; Listing generated by Microsoft (R) Optimizing Compiler Version 19.44.35225.0 

	TITLE	C:\IAGOS\server\v18\Source\Output\WorldServer\Release\Tax.obj
	.686P
	.XMM
	include listing.inc
	.model	flat

INCLUDELIB LIBCMT
INCLUDELIB OLDNAMES

CONST	SEGMENT
?piecewise_construct@std@@3Upiecewise_construct_t@1@B	ORG $+1 ; std::piecewise_construct
CONST	ENDS
PUBLIC	?__empty_global_delete@@YAXPAX@Z		; __empty_global_delete
PUBLIC	?__empty_global_delete@@YAXPAXI@Z		; __empty_global_delete
PUBLIC	??0exception@std@@QAE@ABV01@@Z			; std::exception::exception
PUBLIC	??1exception@std@@UAE@XZ			; std::exception::~exception
PUBLIC	?what@exception@std@@UBEPBDXZ			; std::exception::what
PUBLIC	??_Gexception@std@@UAEPAXI@Z			; std::exception::`scalar deleting destructor'
PUBLIC	??0bad_alloc@std@@QAE@ABV01@@Z			; std::bad_alloc::bad_alloc
PUBLIC	??_Gbad_alloc@std@@UAEPAXI@Z			; std::bad_alloc::`scalar deleting destructor'
PUBLIC	??0bad_array_new_length@std@@QAE@XZ		; std::bad_array_new_length::bad_array_new_length
PUBLIC	??1bad_array_new_length@std@@UAE@XZ		; std::bad_array_new_length::~bad_array_new_length
PUBLIC	??0bad_array_new_length@std@@QAE@ABV01@@Z	; std::bad_array_new_length::bad_array_new_length
PUBLIC	??_Gbad_array_new_length@std@@UAEPAXI@Z		; std::bad_array_new_length::`scalar deleting destructor'
PUBLIC	?_Throw_bad_array_new_length@std@@YAXXZ		; std::_Throw_bad_array_new_length
PUBLIC	?_Throw_tree_length_error@std@@YAXXZ		; std::_Throw_tree_length_error
PUBLIC	??1?$vector@KV?$allocator@K@std@@@std@@QAE@XZ	; std::vector<unsigned long,std::allocator<unsigned long> >::~vector<unsigned long,std::allocator<unsigned long> >
PUBLIC	??$_Allocate_manually_vector_aligned@U_Default_allocate_traits@std@@@std@@YAPAXI@Z ; std::_Allocate_manually_vector_aligned<std::_Default_allocate_traits>
PUBLIC	??1?$_Tree@V?$_Tmap_traits@EPAU__TAXDETAIL@@U?$less@E@std@@V?$allocator@U?$pair@$$CBEPAU__TAXDETAIL@@@std@@@3@$0A@@std@@@std@@QAE@XZ ; std::_Tree<std::_Tmap_traits<unsigned char,__TAXDETAIL *,std::less<unsigned char>,std::allocator<std::pair<unsigned char const ,__TAXDETAIL *> >,0> >::~_Tree<std::_Tmap_traits<unsigned char,__TAXDETAIL *,std::less<unsigned char>,std::allocator<std::pair<unsigned char const ,__TAXDETAIL *> >,0> >
PUBLIC	?_Insert_node@?$_Tree_val@U?$_Tree_simple_types@U?$pair@$$CBEPAU__TAXDETAIL@@@std@@@std@@@std@@QAEPAU?$_Tree_node@U?$pair@$$CBEPAU__TAXDETAIL@@@std@@PAX@2@U?$_Tree_id@PAU?$_Tree_node@U?$pair@$$CBEPAU__TAXDETAIL@@@std@@PAX@std@@@2@QAU32@@Z ; std::_Tree_val<std::_Tree_simple_types<std::pair<unsigned char const ,__TAXDETAIL *> > >::_Insert_node
PUBLIC	??1?$map@EPAU__TAXDETAIL@@U?$less@E@std@@V?$allocator@U?$pair@$$CBEPAU__TAXDETAIL@@@std@@@3@@std@@QAE@XZ ; std::map<unsigned char,__TAXDETAIL *,std::less<unsigned char>,std::allocator<std::pair<unsigned char const ,__TAXDETAIL *> > >::~map<unsigned char,__TAXDETAIL *,std::less<unsigned char>,std::allocator<std::pair<unsigned char const ,__TAXDETAIL *> > >
PUBLIC	??0__TAXINFO@@QAE@XZ				; __TAXINFO::__TAXINFO
PUBLIC	??$insert@U?$pair@EPAU__TAXDETAIL@@@std@@$0A@@?$map@EPAU__TAXDETAIL@@U?$less@E@std@@V?$allocator@U?$pair@$$CBEPAU__TAXDETAIL@@@std@@@3@@std@@QAE?AU?$pair@V?$_Tree_iterator@V?$_Tree_val@U?$_Tree_simple_types@U?$pair@$$CBEPAU__TAXDETAIL@@@std@@@std@@@std@@@std@@_N@1@$$QAU?$pair@EPAU__TAXDETAIL@@@1@@Z ; std::map<unsigned char,__TAXDETAIL *,std::less<unsigned char>,std::allocator<std::pair<unsigned char const ,__TAXDETAIL *> > >::insert<std::pair<unsigned char,__TAXDETAIL *>,0>
PUBLIC	??0CTax@@QAE@XZ					; CTax::CTax
PUBLIC	??1CTax@@QAE@XZ					; CTax::~CTax
PUBLIC	?GetInstance@CTax@@SAPAV1@XZ			; CTax::GetInstance
PUBLIC	?Serialize@CTax@@QAEXAAVCAr@@@Z			; CTax::Serialize
PUBLIC	??1?$_Tree@V?$_Tmap_traits@EPAU__TAXINFO@@U?$less@E@std@@V?$allocator@U?$pair@$$CBEPAU__TAXINFO@@@std@@@3@$0A@@std@@@std@@QAE@XZ ; std::_Tree<std::_Tmap_traits<unsigned char,__TAXINFO *,std::less<unsigned char>,std::allocator<std::pair<unsigned char const ,__TAXINFO *> >,0> >::~_Tree<std::_Tmap_traits<unsigned char,__TAXINFO *,std::less<unsigned char>,std::allocator<std::pair<unsigned char const ,__TAXINFO *> >,0> >
PUBLIC	?_Insert_node@?$_Tree_val@U?$_Tree_simple_types@U?$pair@$$CBEPAU__TAXINFO@@@std@@@std@@@std@@QAEPAU?$_Tree_node@U?$pair@$$CBEPAU__TAXINFO@@@std@@PAX@2@U?$_Tree_id@PAU?$_Tree_node@U?$pair@$$CBEPAU__TAXINFO@@@std@@PAX@std@@@2@QAU32@@Z ; std::_Tree_val<std::_Tree_simple_types<std::pair<unsigned char const ,__TAXINFO *> > >::_Insert_node
PUBLIC	??1?$map@EPAU__TAXINFO@@U?$less@E@std@@V?$allocator@U?$pair@$$CBEPAU__TAXINFO@@@std@@@3@@std@@QAE@XZ ; std::map<unsigned char,__TAXINFO *,std::less<unsigned char>,std::allocator<std::pair<unsigned char const ,__TAXINFO *> > >::~map<unsigned char,__TAXINFO *,std::less<unsigned char>,std::allocator<std::pair<unsigned char const ,__TAXINFO *> > >
PUBLIC	?GetTaxInfo@CTax@@QAEPAU__TAXINFO@@E@Z		; CTax::GetTaxInfo
PUBLIC	?SetNextSecretRoomGuild@CTax@@QAEXEK@Z		; CTax::SetNextSecretRoomGuild
PUBLIC	?SetNextLord@CTax@@QAEXK@Z			; CTax::SetNextLord
PUBLIC	?SetNextTaxRate@CTax@@QAEXEHH@Z			; CTax::SetNextTaxRate
PUBLIC	?SetApplyTaxRateNow@CTax@@QAEXXZ		; CTax::SetApplyTaxRateNow
PUBLIC	?AddTax@CTax@@QAEHEHE@Z				; CTax::AddTax
PUBLIC	?SendSetTaxRateOpenWnd@CTax@@QAEXEK@Z		; CTax::SendSetTaxRateOpenWnd
PUBLIC	?SendNoSetTaxRateOpenWnd@CTax@@QAEXPAVCUser@@@Z	; CTax::SendNoSetTaxRateOpenWnd
PUBLIC	?GetContinent@CTax@@QAEEPAVCMover@@@Z		; CTax::GetContinent
PUBLIC	?GetSalesTaxRate@CTax@@QAEME@Z			; CTax::GetSalesTaxRate
PUBLIC	?GetSalesTaxRate@CTax@@QAEMPAVCMover@@@Z	; CTax::GetSalesTaxRate
PUBLIC	?GetPurchaseTaxRate@CTax@@QAEME@Z		; CTax::GetPurchaseTaxRate
PUBLIC	?GetPurchaseTaxRate@CTax@@QAEMPAVCMover@@@Z	; CTax::GetPurchaseTaxRate
PUBLIC	?IsApplyTaxRate@CTax@@QAEHPAVCMover@@PAVCItemElem@@@Z ; CTax::IsApplyTaxRate
PUBLIC	?IsOccupationGuildMember@CTax@@QAEHPAVCMover@@@Z ; CTax::IsOccupationGuildMember
PUBLIC	?IsOccupationShopItem@CTax@@QAEHK@Z		; CTax::IsOccupationShopItem
PUBLIC	??$?6H@CAr@@QAEAAV0@ABH@Z			; CAr::operator<<<int>
PUBLIC	??$?5H@CAr@@QAEAAV0@AAH@Z			; CAr::operator>><int>
PUBLIC	??$?6I@CAr@@QAEAAV0@ABI@Z			; CAr::operator<<<unsigned int>
PUBLIC	??$?6K@CAr@@QAEAAV0@ABK@Z			; CAr::operator<<<unsigned long>
PUBLIC	??$?5K@CAr@@QAEAAV0@AAK@Z			; CAr::operator>><unsigned long>
PUBLIC	??$insert@U?$pair@HPAU__TAXINFO@@@std@@$0A@@?$map@EPAU__TAXINFO@@U?$less@E@std@@V?$allocator@U?$pair@$$CBEPAU__TAXINFO@@@std@@@3@@std@@QAE?AU?$pair@V?$_Tree_iterator@V?$_Tree_val@U?$_Tree_simple_types@U?$pair@$$CBEPAU__TAXINFO@@@std@@@std@@@std@@@std@@_N@1@$$QAU?$pair@HPAU__TAXINFO@@@1@@Z ; std::map<unsigned char,__TAXINFO *,std::less<unsigned char>,std::allocator<std::pair<unsigned char const ,__TAXINFO *> > >::insert<std::pair<int,__TAXINFO *>,0>
PUBLIC	??$?6E@CAr@@QAEAAV0@ABE@Z			; CAr::operator<<<unsigned char>
PUBLIC	??$?5E@CAr@@QAEAAV0@AAE@Z			; CAr::operator>><unsigned char>
PUBLIC	??$_Erase_tree@V?$allocator@U?$_Tree_node@U?$pair@$$CBEPAU__TAXINFO@@@std@@PAX@std@@@std@@@?$_Tree_val@U?$_Tree_simple_types@U?$pair@$$CBEPAU__TAXINFO@@@std@@@std@@@std@@QAEXAAV?$allocator@U?$_Tree_node@U?$pair@$$CBEPAU__TAXINFO@@@std@@PAX@std@@@1@PAU?$_Tree_node@U?$pair@$$CBEPAU__TAXINFO@@@std@@PAX@1@@Z ; std::_Tree_val<std::_Tree_simple_types<std::pair<unsigned char const ,__TAXINFO *> > >::_Erase_tree<std::allocator<std::_Tree_node<std::pair<unsigned char const ,__TAXINFO *>,void *> > >
PUBLIC	??$_Find_lower_bound@E@?$_Tree@V?$_Tmap_traits@EPAU__TAXINFO@@U?$less@E@std@@V?$allocator@U?$pair@$$CBEPAU__TAXINFO@@@std@@@3@$0A@@std@@@std@@IBE?AU?$_Tree_find_result@PAU?$_Tree_node@U?$pair@$$CBEPAU__TAXINFO@@@std@@PAX@std@@@1@ABE@Z ; std::_Tree<std::_Tmap_traits<unsigned char,__TAXINFO *,std::less<unsigned char>,std::allocator<std::pair<unsigned char const ,__TAXINFO *> >,0> >::_Find_lower_bound<unsigned char>
PUBLIC	??$_Find_lower_bound@E@?$_Tree@V?$_Tmap_traits@EPAU__TAXDETAIL@@U?$less@E@std@@V?$allocator@U?$pair@$$CBEPAU__TAXDETAIL@@@std@@@3@$0A@@std@@@std@@IBE?AU?$_Tree_find_result@PAU?$_Tree_node@U?$pair@$$CBEPAU__TAXDETAIL@@@std@@PAX@std@@@1@ABE@Z ; std::_Tree<std::_Tmap_traits<unsigned char,__TAXDETAIL *,std::less<unsigned char>,std::allocator<std::pair<unsigned char const ,__TAXDETAIL *> >,0> >::_Find_lower_bound<unsigned char>
PUBLIC	??$_Erase_tree@V?$allocator@U?$_Tree_node@U?$pair@$$CBEPAU__TAXDETAIL@@@std@@PAX@std@@@std@@@?$_Tree_val@U?$_Tree_simple_types@U?$pair@$$CBEPAU__TAXDETAIL@@@std@@@std@@@std@@QAEXAAV?$allocator@U?$_Tree_node@U?$pair@$$CBEPAU__TAXDETAIL@@@std@@PAX@std@@@1@PAU?$_Tree_node@U?$pair@$$CBEPAU__TAXDETAIL@@@std@@PAX@1@@Z ; std::_Tree_val<std::_Tree_simple_types<std::pair<unsigned char const ,__TAXDETAIL *> > >::_Erase_tree<std::allocator<std::_Tree_node<std::pair<unsigned char const ,__TAXDETAIL *>,void *> > >
PUBLIC	??1?$_Alloc_construct_ptr@V?$allocator@U?$_Tree_node@U?$pair@$$CBEPAU__TAXDETAIL@@@std@@PAX@std@@@std@@@std@@QAE@XZ ; std::_Alloc_construct_ptr<std::allocator<std::_Tree_node<std::pair<unsigned char const ,__TAXDETAIL *>,void *> > >::~_Alloc_construct_ptr<std::allocator<std::_Tree_node<std::pair<unsigned char const ,__TAXDETAIL *>,void *> > >
PUBLIC	??1?$_Alloc_construct_ptr@V?$allocator@U?$_Tree_node@U?$pair@$$CBEPAU__TAXINFO@@@std@@PAX@std@@@std@@@std@@QAE@XZ ; std::_Alloc_construct_ptr<std::allocator<std::_Tree_node<std::pair<unsigned char const ,__TAXINFO *>,void *> > >::~_Alloc_construct_ptr<std::allocator<std::_Tree_node<std::pair<unsigned char const ,__TAXINFO *>,void *> > >
PUBLIC	??1?$_Tree_temp_node@V?$allocator@U?$_Tree_node@U?$pair@$$CBEPAU__TAXINFO@@@std@@PAX@std@@@std@@@std@@QAE@XZ ; std::_Tree_temp_node<std::allocator<std::_Tree_node<std::pair<unsigned char const ,__TAXINFO *>,void *> > >::~_Tree_temp_node<std::allocator<std::_Tree_node<std::pair<unsigned char const ,__TAXINFO *>,void *> > >
PUBLIC	??_7exception@std@@6B@				; std::exception::`vftable'
PUBLIC	??_C@_0BC@EOODALEL@Unknown?5exception@		; `string'
PUBLIC	??_7bad_alloc@std@@6B@				; std::bad_alloc::`vftable'
PUBLIC	??_7bad_array_new_length@std@@6B@		; std::bad_array_new_length::`vftable'
PUBLIC	??_C@_0BF@KINCDENJ@bad?5array?5new?5length@	; `string'
PUBLIC	??_R0?AVexception@std@@@8			; std::exception `RTTI Type Descriptor'
PUBLIC	__CT??_R0?AVexception@std@@@8??0exception@std@@QAE@ABV01@@Z12
PUBLIC	__TI3?AVbad_array_new_length@std@@
PUBLIC	__CTA3?AVbad_array_new_length@std@@
PUBLIC	??_R0?AVbad_array_new_length@std@@@8		; std::bad_array_new_length `RTTI Type Descriptor'
PUBLIC	__CT??_R0?AVbad_array_new_length@std@@@8??0bad_array_new_length@std@@QAE@ABV01@@Z12
PUBLIC	??_R0?AVbad_alloc@std@@@8			; std::bad_alloc `RTTI Type Descriptor'
PUBLIC	__CT??_R0?AVbad_alloc@std@@@8??0bad_alloc@std@@QAE@ABV01@@Z12
PUBLIC	??_C@_0BB@GCADKGJO@map?1set?5too?5long@		; `string'
PUBLIC	??_R4exception@std@@6B@				; std::exception::`RTTI Complete Object Locator'
PUBLIC	??_R3exception@std@@8				; std::exception::`RTTI Class Hierarchy Descriptor'
PUBLIC	??_R2exception@std@@8				; std::exception::`RTTI Base Class Array'
PUBLIC	??_R1A@?0A@EA@exception@std@@8			; std::exception::`RTTI Base Class Descriptor at (0,-1,0,64)'
PUBLIC	??_R4bad_array_new_length@std@@6B@		; std::bad_array_new_length::`RTTI Complete Object Locator'
PUBLIC	??_R3bad_array_new_length@std@@8		; std::bad_array_new_length::`RTTI Class Hierarchy Descriptor'
PUBLIC	??_R2bad_array_new_length@std@@8		; std::bad_array_new_length::`RTTI Base Class Array'
PUBLIC	??_R1A@?0A@EA@bad_array_new_length@std@@8	; std::bad_array_new_length::`RTTI Base Class Descriptor at (0,-1,0,64)'
PUBLIC	??_R1A@?0A@EA@bad_alloc@std@@8			; std::bad_alloc::`RTTI Base Class Descriptor at (0,-1,0,64)'
PUBLIC	??_R3bad_alloc@std@@8				; std::bad_alloc::`RTTI Class Hierarchy Descriptor'
PUBLIC	??_R2bad_alloc@std@@8				; std::bad_alloc::`RTTI Base Class Array'
PUBLIC	??_R4bad_alloc@std@@6B@				; std::bad_alloc::`RTTI Complete Object Locator'
PUBLIC	??_C@_0CI@EGGDFMCC@CTax?3?3GetTaxInfo?$CI?$CJ?5?9?5?$MA?$NP?$LI?x?$LF?H?5?$LE?k?$LH@ ; `string'
PUBLIC	__real@00000000
PUBLIC	__real@3dcccccd
EXTRN	??2@YAPAXI@Z:PROC				; operator new
EXTRN	??3@YAXPAXI@Z:PROC				; operator delete
EXTRN	_atexit:PROC
EXTRN	__Init_thread_header:PROC
EXTRN	__Init_thread_abort:PROC
EXTRN	__Init_thread_footer:PROC
EXTRN	__invoke_watson:PROC
EXTRN	___std_exception_copy:PROC
EXTRN	___std_exception_destroy:PROC
EXTRN	??_Eexception@std@@UAEPAXI@Z:PROC		; std::exception::`vector deleting destructor'
EXTRN	??_Ebad_alloc@std@@UAEPAXI@Z:PROC		; std::bad_alloc::`vector deleting destructor'
EXTRN	??_Ebad_array_new_length@std@@UAEPAXI@Z:PROC	; std::bad_array_new_length::`vector deleting destructor'
EXTRN	?_Xlength_error@std@@YAXPBD@Z:PROC		; std::_Xlength_error
EXTRN	?Error@@YAPBDPBDZZ:PROC				; Error
EXTRN	?CheckBuf@CAr@@QAEXI@Z:PROC			; CAr::CheckBuf
EXTRN	?GetGuild@CMover@@QAEPAVCGuild@@XZ:PROC		; CMover::GetGuild
EXTRN	?GetInstance@CContinent@@SAPAV1@XZ:PROC		; CContinent::GetInstance
EXTRN	?GetArea@CContinent@@QAEEPAVCMover@@@Z:PROC	; CContinent::GetArea
EXTRN	?IsValidObj@CContinent@@SAHPAVCMover@@@Z:PROC	; CContinent::IsValidObj
EXTRN	?GetGuild@CGuildMng@@QAEPAVCGuild@@K@Z:PROC	; CGuildMng::GetGuild
EXTRN	?AddTaxSetTaxRateOpenWnd@CUser@@QAEXE@Z:PROC	; CUser::AddTaxSetTaxRateOpenWnd
EXTRN	?SendSecretRoomWinGuild@CDPDatabaseClient@@QAEXEK@Z:PROC ; CDPDatabaseClient::SendSecretRoomWinGuild
EXTRN	?SendLord@CDPDatabaseClient@@QAEXK@Z:PROC	; CDPDatabaseClient::SendLord
EXTRN	?SendTaxRate@CDPDatabaseClient@@QAEXEHH@Z:PROC	; CDPDatabaseClient::SendTaxRate
EXTRN	?SendAddTax@CDPDatabaseClient@@QAEXEHE@Z:PROC	; CDPDatabaseClient::SendAddTax
EXTRN	?SendApplyTaxRateNow@CDPDatabaseClient@@QAEXXZ:PROC ; CDPDatabaseClient::SendApplyTaxRateNow
EXTRN	@__security_check_cookie@4:PROC
EXTRN	__CxxThrowException@8:PROC
EXTRN	___CxxFrameHandler3:PROC
EXTRN	__Init_thread_epoch:DWORD
EXTRN	??_7type_info@@6B@:QWORD			; type_info::`vftable'
EXTRN	?prj@@3VCProject@@A:BYTE			; prj
EXTRN	?g_dpDBClient@@3VCDPDatabaseClient@@A:BYTE	; g_dpDBClient
EXTRN	?g_GuildMng@@3VCGuildMng@@A:BYTE		; g_GuildMng
EXTRN	___security_cookie:DWORD
EXTRN	__fltused:DWORD
EXTRN	__tls_array:DWORD
EXTRN	__tls_index:DWORD
;	COMDAT ?sTax@?1??GetInstance@CTax@@SAPAV2@XZ@4V2@A
_BSS	SEGMENT
?sTax@?1??GetInstance@CTax@@SAPAV2@XZ@4V2@A DB 01cH DUP (?) ; `CTax::GetInstance'::`2'::sTax
_BSS	ENDS
;	COMDAT ?$TSS0@?1??GetInstance@CTax@@SAPAV2@XZ@4HA
_BSS	SEGMENT
?$TSS0@?1??GetInstance@CTax@@SAPAV2@XZ@4HA DD 01H DUP (?) ; `CTax::GetInstance'::`2'::$TSS0
_BSS	ENDS
;	COMDAT __real@3dcccccd
CONST	SEGMENT
__real@3dcccccd DD 03dcccccdr			; 0.1
CONST	ENDS
;	COMDAT __real@00000000
CONST	SEGMENT
__real@00000000 DD 000000000r			; 0
CONST	ENDS
;	COMDAT ??_C@_0CI@EGGDFMCC@CTax?3?3GetTaxInfo?$CI?$CJ?5?9?5?$MA?$NP?$LI?x?$LF?H?5?$LE?k?$LH@
CONST	SEGMENT
??_C@_0CI@EGGDFMCC@CTax?3?3GetTaxInfo?$CI?$CJ?5?9?5?$MA?$NP?$LI?x?$LF?H?5?$LE?k?$LH@ DB 'C'
	DB	'Tax::GetTaxInfo() - ', 0c0H, 0dfH, 0b8H, 0f8H, 0b5H, 0c8H, ' '
	DB	0b4H, 0ebH, 0b7H, 0faH, 0c1H, 0a4H, 0baH, 0b8H, ' %x', 00H ; `string'
CONST	ENDS
;	COMDAT ??_R4bad_alloc@std@@6B@
rdata$r	SEGMENT
??_R4bad_alloc@std@@6B@ DD 00H				; std::bad_alloc::`RTTI Complete Object Locator'
	DD	00H
	DD	00H
	DD	FLAT:??_R0?AVbad_alloc@std@@@8
	DD	FLAT:??_R3bad_alloc@std@@8
rdata$r	ENDS
;	COMDAT ??_R2bad_alloc@std@@8
rdata$r	SEGMENT
??_R2bad_alloc@std@@8 DD FLAT:??_R1A@?0A@EA@bad_alloc@std@@8 ; std::bad_alloc::`RTTI Base Class Array'
	DD	FLAT:??_R1A@?0A@EA@exception@std@@8
rdata$r	ENDS
;	COMDAT ??_R3bad_alloc@std@@8
rdata$r	SEGMENT
??_R3bad_alloc@std@@8 DD 00H				; std::bad_alloc::`RTTI Class Hierarchy Descriptor'
	DD	00H
	DD	02H
	DD	FLAT:??_R2bad_alloc@std@@8
rdata$r	ENDS
;	COMDAT ??_R1A@?0A@EA@bad_alloc@std@@8
rdata$r	SEGMENT
??_R1A@?0A@EA@bad_alloc@std@@8 DD FLAT:??_R0?AVbad_alloc@std@@@8 ; std::bad_alloc::`RTTI Base Class Descriptor at (0,-1,0,64)'
	DD	01H
	DD	00H
	DD	0ffffffffH
	DD	00H
	DD	040H
	DD	FLAT:??_R3bad_alloc@std@@8
rdata$r	ENDS
;	COMDAT ??_R1A@?0A@EA@bad_array_new_length@std@@8
rdata$r	SEGMENT
??_R1A@?0A@EA@bad_array_new_length@std@@8 DD FLAT:??_R0?AVbad_array_new_length@std@@@8 ; std::bad_array_new_length::`RTTI Base Class Descriptor at (0,-1,0,64)'
	DD	02H
	DD	00H
	DD	0ffffffffH
	DD	00H
	DD	040H
	DD	FLAT:??_R3bad_array_new_length@std@@8
rdata$r	ENDS
;	COMDAT ??_R2bad_array_new_length@std@@8
rdata$r	SEGMENT
??_R2bad_array_new_length@std@@8 DD FLAT:??_R1A@?0A@EA@bad_array_new_length@std@@8 ; std::bad_array_new_length::`RTTI Base Class Array'
	DD	FLAT:??_R1A@?0A@EA@bad_alloc@std@@8
	DD	FLAT:??_R1A@?0A@EA@exception@std@@8
rdata$r	ENDS
;	COMDAT ??_R3bad_array_new_length@std@@8
rdata$r	SEGMENT
??_R3bad_array_new_length@std@@8 DD 00H			; std::bad_array_new_length::`RTTI Class Hierarchy Descriptor'
	DD	00H
	DD	03H
	DD	FLAT:??_R2bad_array_new_length@std@@8
rdata$r	ENDS
;	COMDAT ??_R4bad_array_new_length@std@@6B@
rdata$r	SEGMENT
??_R4bad_array_new_length@std@@6B@ DD 00H		; std::bad_array_new_length::`RTTI Complete Object Locator'
	DD	00H
	DD	00H
	DD	FLAT:??_R0?AVbad_array_new_length@std@@@8
	DD	FLAT:??_R3bad_array_new_length@std@@8
rdata$r	ENDS
;	COMDAT ??_R1A@?0A@EA@exception@std@@8
rdata$r	SEGMENT
??_R1A@?0A@EA@exception@std@@8 DD FLAT:??_R0?AVexception@std@@@8 ; std::exception::`RTTI Base Class Descriptor at (0,-1,0,64)'
	DD	00H
	DD	00H
	DD	0ffffffffH
	DD	00H
	DD	040H
	DD	FLAT:??_R3exception@std@@8
rdata$r	ENDS
;	COMDAT ??_R2exception@std@@8
rdata$r	SEGMENT
??_R2exception@std@@8 DD FLAT:??_R1A@?0A@EA@exception@std@@8 ; std::exception::`RTTI Base Class Array'
rdata$r	ENDS
;	COMDAT ??_R3exception@std@@8
rdata$r	SEGMENT
??_R3exception@std@@8 DD 00H				; std::exception::`RTTI Class Hierarchy Descriptor'
	DD	00H
	DD	01H
	DD	FLAT:??_R2exception@std@@8
rdata$r	ENDS
;	COMDAT ??_R4exception@std@@6B@
rdata$r	SEGMENT
??_R4exception@std@@6B@ DD 00H				; std::exception::`RTTI Complete Object Locator'
	DD	00H
	DD	00H
	DD	FLAT:??_R0?AVexception@std@@@8
	DD	FLAT:??_R3exception@std@@8
rdata$r	ENDS
;	COMDAT ??_C@_0BB@GCADKGJO@map?1set?5too?5long@
CONST	SEGMENT
??_C@_0BB@GCADKGJO@map?1set?5too?5long@ DB 'map/set too long', 00H ; `string'
CONST	ENDS
;	COMDAT __CT??_R0?AVbad_alloc@std@@@8??0bad_alloc@std@@QAE@ABV01@@Z12
xdata$x	SEGMENT
__CT??_R0?AVbad_alloc@std@@@8??0bad_alloc@std@@QAE@ABV01@@Z12 DD 010H
	DD	FLAT:??_R0?AVbad_alloc@std@@@8
	DD	00H
	DD	0ffffffffH
	ORG $+4
	DD	0cH
	DD	FLAT:??0bad_alloc@std@@QAE@ABV01@@Z
xdata$x	ENDS
;	COMDAT ??_R0?AVbad_alloc@std@@@8
data$r	SEGMENT
??_R0?AVbad_alloc@std@@@8 DD FLAT:??_7type_info@@6B@	; std::bad_alloc `RTTI Type Descriptor'
	DD	00H
	DB	'.?AVbad_alloc@std@@', 00H
data$r	ENDS
;	COMDAT __CT??_R0?AVbad_array_new_length@std@@@8??0bad_array_new_length@std@@QAE@ABV01@@Z12
xdata$x	SEGMENT
__CT??_R0?AVbad_array_new_length@std@@@8??0bad_array_new_length@std@@QAE@ABV01@@Z12 DD 00H
	DD	FLAT:??_R0?AVbad_array_new_length@std@@@8
	DD	00H
	DD	0ffffffffH
	ORG $+4
	DD	0cH
	DD	FLAT:??0bad_array_new_length@std@@QAE@ABV01@@Z
xdata$x	ENDS
;	COMDAT ??_R0?AVbad_array_new_length@std@@@8
data$r	SEGMENT
??_R0?AVbad_array_new_length@std@@@8 DD FLAT:??_7type_info@@6B@ ; std::bad_array_new_length `RTTI Type Descriptor'
	DD	00H
	DB	'.?AVbad_array_new_length@std@@', 00H
data$r	ENDS
;	COMDAT __CTA3?AVbad_array_new_length@std@@
xdata$x	SEGMENT
__CTA3?AVbad_array_new_length@std@@ DD 03H
	DD	FLAT:__CT??_R0?AVbad_array_new_length@std@@@8??0bad_array_new_length@std@@QAE@ABV01@@Z12
	DD	FLAT:__CT??_R0?AVbad_alloc@std@@@8??0bad_alloc@std@@QAE@ABV01@@Z12
	DD	FLAT:__CT??_R0?AVexception@std@@@8??0exception@std@@QAE@ABV01@@Z12
xdata$x	ENDS
;	COMDAT __TI3?AVbad_array_new_length@std@@
xdata$x	SEGMENT
__TI3?AVbad_array_new_length@std@@ DD 00H
	DD	FLAT:??1bad_array_new_length@std@@UAE@XZ
	DD	00H
	DD	FLAT:__CTA3?AVbad_array_new_length@std@@
xdata$x	ENDS
;	COMDAT __CT??_R0?AVexception@std@@@8??0exception@std@@QAE@ABV01@@Z12
xdata$x	SEGMENT
__CT??_R0?AVexception@std@@@8??0exception@std@@QAE@ABV01@@Z12 DD 00H
	DD	FLAT:??_R0?AVexception@std@@@8
	DD	00H
	DD	0ffffffffH
	ORG $+4
	DD	0cH
	DD	FLAT:??0exception@std@@QAE@ABV01@@Z
xdata$x	ENDS
;	COMDAT ??_R0?AVexception@std@@@8
data$r	SEGMENT
??_R0?AVexception@std@@@8 DD FLAT:??_7type_info@@6B@	; std::exception `RTTI Type Descriptor'
	DD	00H
	DB	'.?AVexception@std@@', 00H
data$r	ENDS
;	COMDAT ??_C@_0BF@KINCDENJ@bad?5array?5new?5length@
CONST	SEGMENT
??_C@_0BF@KINCDENJ@bad?5array?5new?5length@ DB 'bad array new length', 00H ; `string'
CONST	ENDS
;	COMDAT ??_7bad_array_new_length@std@@6B@
CONST	SEGMENT
??_7bad_array_new_length@std@@6B@ DD FLAT:??_R4bad_array_new_length@std@@6B@ ; std::bad_array_new_length::`vftable'
	DD	FLAT:??_Ebad_array_new_length@std@@UAEPAXI@Z
	DD	FLAT:?what@exception@std@@UBEPBDXZ
CONST	ENDS
;	COMDAT ??_7bad_alloc@std@@6B@
CONST	SEGMENT
??_7bad_alloc@std@@6B@ DD FLAT:??_R4bad_alloc@std@@6B@	; std::bad_alloc::`vftable'
	DD	FLAT:??_Ebad_alloc@std@@UAEPAXI@Z
	DD	FLAT:?what@exception@std@@UBEPBDXZ
CONST	ENDS
;	COMDAT ??_C@_0BC@EOODALEL@Unknown?5exception@
CONST	SEGMENT
??_C@_0BC@EOODALEL@Unknown?5exception@ DB 'Unknown exception', 00H ; `string'
CONST	ENDS
;	COMDAT ??_7exception@std@@6B@
CONST	SEGMENT
??_7exception@std@@6B@ DD FLAT:??_R4exception@std@@6B@	; std::exception::`vftable'
	DD	FLAT:??_Eexception@std@@UAEPAXI@Z
	DD	FLAT:?what@exception@std@@UBEPBDXZ
CONST	ENDS
;	COMDAT xdata$x
xdata$x	SEGMENT
__unwindtable$??$?0U?$pair@HPAU__TAXINFO@@@std@@@?$_Tree_temp_node@V?$allocator@U?$_Tree_node@U?$pair@$$CBEPAU__TAXINFO@@@std@@PAX@std@@@std@@@std@@QAE@AAV?$allocator@U?$_Tree_node@U?$pair@$$CBEPAU__TAXINFO@@@std@@PAX@std@@@1@PAU?$_Tree_node@U?$pair@$$CBEPAU__TAXINFO@@@std@@PAX@1@$$QAU?$pair@HPAU__TAXINFO@@@1@@Z DD 0ffffffffH
	DD	FLAT:__unwindfunclet$??$?0U?$pair@HPAU__TAXINFO@@@std@@@?$_Tree_temp_node@V?$allocator@U?$_Tree_node@U?$pair@$$CBEPAU__TAXINFO@@@std@@PAX@std@@@std@@@std@@QAE@AAV?$allocator@U?$_Tree_node@U?$pair@$$CBEPAU__TAXINFO@@@std@@PAX@std@@@1@PAU?$_Tree_node@U?$pair@$$CBEPAU__TAXINFO@@@std@@PAX@1@$$QAU?$pair@HPAU__TAXINFO@@@1@@Z$1
__ehfuncinfo$??$?0U?$pair@HPAU__TAXINFO@@@std@@@?$_Tree_temp_node@V?$allocator@U?$_Tree_node@U?$pair@$$CBEPAU__TAXINFO@@@std@@PAX@std@@@std@@@std@@QAE@AAV?$allocator@U?$_Tree_node@U?$pair@$$CBEPAU__TAXINFO@@@std@@PAX@std@@@1@PAU?$_Tree_node@U?$pair@$$CBEPAU__TAXINFO@@@std@@PAX@1@$$QAU?$pair@HPAU__TAXINFO@@@1@@Z DD 019930522H
	DD	01H
	DD	FLAT:__unwindtable$??$?0U?$pair@HPAU__TAXINFO@@@std@@@?$_Tree_temp_node@V?$allocator@U?$_Tree_node@U?$pair@$$CBEPAU__TAXINFO@@@std@@PAX@std@@@std@@@std@@QAE@AAV?$allocator@U?$_Tree_node@U?$pair@$$CBEPAU__TAXINFO@@@std@@PAX@std@@@1@PAU?$_Tree_node@U?$pair@$$CBEPAU__TAXINFO@@@std@@PAX@1@$$QAU?$pair@HPAU__TAXINFO@@@1@@Z
	DD	2 DUP(00H)
	DD	2 DUP(00H)
	DD	00H
	DD	01H
xdata$x	ENDS
;	COMDAT xdata$x
xdata$x	SEGMENT
__unwindtable$??0?$_Tree_temp_node_alloc@V?$allocator@U?$_Tree_node@U?$pair@$$CBEPAU__TAXINFO@@@std@@PAX@std@@@std@@@std@@QAE@AAV?$allocator@U?$_Tree_node@U?$pair@$$CBEPAU__TAXINFO@@@std@@PAX@std@@@1@@Z DD 0ffffffffH
	DD	FLAT:__unwindfunclet$??0?$_Tree_temp_node_alloc@V?$allocator@U?$_Tree_node@U?$pair@$$CBEPAU__TAXINFO@@@std@@PAX@std@@@std@@@std@@QAE@AAV?$allocator@U?$_Tree_node@U?$pair@$$CBEPAU__TAXINFO@@@std@@PAX@std@@@1@@Z$0
__ehfuncinfo$??0?$_Tree_temp_node_alloc@V?$allocator@U?$_Tree_node@U?$pair@$$CBEPAU__TAXINFO@@@std@@PAX@std@@@std@@@std@@QAE@AAV?$allocator@U?$_Tree_node@U?$pair@$$CBEPAU__TAXINFO@@@std@@PAX@std@@@1@@Z DD 019930522H
	DD	01H
	DD	FLAT:__unwindtable$??0?$_Tree_temp_node_alloc@V?$allocator@U?$_Tree_node@U?$pair@$$CBEPAU__TAXINFO@@@std@@PAX@std@@@std@@@std@@QAE@AAV?$allocator@U?$_Tree_node@U?$pair@$$CBEPAU__TAXINFO@@@std@@PAX@std@@@1@@Z
	DD	2 DUP(00H)
	DD	2 DUP(00H)
	DD	00H
	DD	01H
xdata$x	ENDS
;	COMDAT xdata$x
xdata$x	SEGMENT
__unwindtable$??$?0U?$pair@EPAU__TAXDETAIL@@@std@@@?$_Tree_temp_node@V?$allocator@U?$_Tree_node@U?$pair@$$CBEPAU__TAXDETAIL@@@std@@PAX@std@@@std@@@std@@QAE@AAV?$allocator@U?$_Tree_node@U?$pair@$$CBEPAU__TAXDETAIL@@@std@@PAX@std@@@1@PAU?$_Tree_node@U?$pair@$$CBEPAU__TAXDETAIL@@@std@@PAX@1@$$QAU?$pair@EPAU__TAXDETAIL@@@1@@Z DD 0ffffffffH
	DD	FLAT:__unwindfunclet$??$?0U?$pair@EPAU__TAXDETAIL@@@std@@@?$_Tree_temp_node@V?$allocator@U?$_Tree_node@U?$pair@$$CBEPAU__TAXDETAIL@@@std@@PAX@std@@@std@@@std@@QAE@AAV?$allocator@U?$_Tree_node@U?$pair@$$CBEPAU__TAXDETAIL@@@std@@PAX@std@@@1@PAU?$_Tree_node@U?$pair@$$CBEPAU__TAXDETAIL@@@std@@PAX@1@$$QAU?$pair@EPAU__TAXDETAIL@@@1@@Z$1
__ehfuncinfo$??$?0U?$pair@EPAU__TAXDETAIL@@@std@@@?$_Tree_temp_node@V?$allocator@U?$_Tree_node@U?$pair@$$CBEPAU__TAXDETAIL@@@std@@PAX@std@@@std@@@std@@QAE@AAV?$allocator@U?$_Tree_node@U?$pair@$$CBEPAU__TAXDETAIL@@@std@@PAX@std@@@1@PAU?$_Tree_node@U?$pair@$$CBEPAU__TAXDETAIL@@@std@@PAX@1@$$QAU?$pair@EPAU__TAXDETAIL@@@1@@Z DD 019930522H
	DD	01H
	DD	FLAT:__unwindtable$??$?0U?$pair@EPAU__TAXDETAIL@@@std@@@?$_Tree_temp_node@V?$allocator@U?$_Tree_node@U?$pair@$$CBEPAU__TAXDETAIL@@@std@@PAX@std@@@std@@@std@@QAE@AAV?$allocator@U?$_Tree_node@U?$pair@$$CBEPAU__TAXDETAIL@@@std@@PAX@std@@@1@PAU?$_Tree_node@U?$pair@$$CBEPAU__TAXDETAIL@@@std@@PAX@1@$$QAU?$pair@EPAU__TAXDETAIL@@@1@@Z
	DD	2 DUP(00H)
	DD	2 DUP(00H)
	DD	00H
	DD	01H
xdata$x	ENDS
;	COMDAT xdata$x
xdata$x	SEGMENT
__unwindtable$??0?$_Tree_temp_node_alloc@V?$allocator@U?$_Tree_node@U?$pair@$$CBEPAU__TAXDETAIL@@@std@@PAX@std@@@std@@@std@@QAE@AAV?$allocator@U?$_Tree_node@U?$pair@$$CBEPAU__TAXDETAIL@@@std@@PAX@std@@@1@@Z DD 0ffffffffH
	DD	FLAT:__unwindfunclet$??0?$_Tree_temp_node_alloc@V?$allocator@U?$_Tree_node@U?$pair@$$CBEPAU__TAXDETAIL@@@std@@PAX@std@@@std@@@std@@QAE@AAV?$allocator@U?$_Tree_node@U?$pair@$$CBEPAU__TAXDETAIL@@@std@@PAX@std@@@1@@Z$0
__ehfuncinfo$??0?$_Tree_temp_node_alloc@V?$allocator@U?$_Tree_node@U?$pair@$$CBEPAU__TAXDETAIL@@@std@@PAX@std@@@std@@@std@@QAE@AAV?$allocator@U?$_Tree_node@U?$pair@$$CBEPAU__TAXDETAIL@@@std@@PAX@std@@@1@@Z DD 019930522H
	DD	01H
	DD	FLAT:__unwindtable$??0?$_Tree_temp_node_alloc@V?$allocator@U?$_Tree_node@U?$pair@$$CBEPAU__TAXDETAIL@@@std@@PAX@std@@@std@@@std@@QAE@AAV?$allocator@U?$_Tree_node@U?$pair@$$CBEPAU__TAXDETAIL@@@std@@PAX@std@@@1@@Z
	DD	2 DUP(00H)
	DD	2 DUP(00H)
	DD	00H
	DD	01H
xdata$x	ENDS
;	COMDAT xdata$x
xdata$x	SEGMENT
__unwindtable$??$_Emplace@U?$pair@HPAU__TAXINFO@@@std@@@?$_Tree@V?$_Tmap_traits@EPAU__TAXINFO@@U?$less@E@std@@V?$allocator@U?$pair@$$CBEPAU__TAXINFO@@@std@@@3@$0A@@std@@@std@@IAE?AU?$pair@PAU?$_Tree_node@U?$pair@$$CBEPAU__TAXINFO@@@std@@PAX@std@@_N@1@$$QAU?$pair@HPAU__TAXINFO@@@1@@Z DD 0ffffffffH
	DD	FLAT:__unwindfunclet$??$_Emplace@U?$pair@HPAU__TAXINFO@@@std@@@?$_Tree@V?$_Tmap_traits@EPAU__TAXINFO@@U?$less@E@std@@V?$allocator@U?$pair@$$CBEPAU__TAXINFO@@@std@@@3@$0A@@std@@@std@@IAE?AU?$pair@PAU?$_Tree_node@U?$pair@$$CBEPAU__TAXINFO@@@std@@PAX@std@@_N@1@$$QAU?$pair@HPAU__TAXINFO@@@1@@Z$2
	DD	0ffffffffH
	DD	FLAT:__unwindfunclet$??$_Emplace@U?$pair@HPAU__TAXINFO@@@std@@@?$_Tree@V?$_Tmap_traits@EPAU__TAXINFO@@U?$less@E@std@@V?$allocator@U?$pair@$$CBEPAU__TAXINFO@@@std@@@3@$0A@@std@@@std@@IAE?AU?$pair@PAU?$_Tree_node@U?$pair@$$CBEPAU__TAXINFO@@@std@@PAX@std@@_N@1@$$QAU?$pair@HPAU__TAXINFO@@@1@@Z$0
__ehfuncinfo$??$_Emplace@U?$pair@HPAU__TAXINFO@@@std@@@?$_Tree@V?$_Tmap_traits@EPAU__TAXINFO@@U?$less@E@std@@V?$allocator@U?$pair@$$CBEPAU__TAXINFO@@@std@@@3@$0A@@std@@@std@@IAE?AU?$pair@PAU?$_Tree_node@U?$pair@$$CBEPAU__TAXINFO@@@std@@PAX@std@@_N@1@$$QAU?$pair@HPAU__TAXINFO@@@1@@Z DD 019930522H
	DD	02H
	DD	FLAT:__unwindtable$??$_Emplace@U?$pair@HPAU__TAXINFO@@@std@@@?$_Tree@V?$_Tmap_traits@EPAU__TAXINFO@@U?$less@E@std@@V?$allocator@U?$pair@$$CBEPAU__TAXINFO@@@std@@@3@$0A@@std@@@std@@IAE?AU?$pair@PAU?$_Tree_node@U?$pair@$$CBEPAU__TAXINFO@@@std@@PAX@std@@_N@1@$$QAU?$pair@HPAU__TAXINFO@@@1@@Z
	DD	2 DUP(00H)
	DD	2 DUP(00H)
	DD	00H
	DD	01H
xdata$x	ENDS
;	COMDAT xdata$x
xdata$x	SEGMENT
__unwindtable$??$_Emplace@U?$pair@EPAU__TAXDETAIL@@@std@@@?$_Tree@V?$_Tmap_traits@EPAU__TAXDETAIL@@U?$less@E@std@@V?$allocator@U?$pair@$$CBEPAU__TAXDETAIL@@@std@@@3@$0A@@std@@@std@@IAE?AU?$pair@PAU?$_Tree_node@U?$pair@$$CBEPAU__TAXDETAIL@@@std@@PAX@std@@_N@1@$$QAU?$pair@EPAU__TAXDETAIL@@@1@@Z DD 0ffffffffH
	DD	FLAT:__unwindfunclet$??$_Emplace@U?$pair@EPAU__TAXDETAIL@@@std@@@?$_Tree@V?$_Tmap_traits@EPAU__TAXDETAIL@@U?$less@E@std@@V?$allocator@U?$pair@$$CBEPAU__TAXDETAIL@@@std@@@3@$0A@@std@@@std@@IAE?AU?$pair@PAU?$_Tree_node@U?$pair@$$CBEPAU__TAXDETAIL@@@std@@PAX@std@@_N@1@$$QAU?$pair@EPAU__TAXDETAIL@@@1@@Z$2
__ehfuncinfo$??$_Emplace@U?$pair@EPAU__TAXDETAIL@@@std@@@?$_Tree@V?$_Tmap_traits@EPAU__TAXDETAIL@@U?$less@E@std@@V?$allocator@U?$pair@$$CBEPAU__TAXDETAIL@@@std@@@3@$0A@@std@@@std@@IAE?AU?$pair@PAU?$_Tree_node@U?$pair@$$CBEPAU__TAXDETAIL@@@std@@PAX@std@@_N@1@$$QAU?$pair@EPAU__TAXDETAIL@@@1@@Z DD 019930522H
	DD	01H
	DD	FLAT:__unwindtable$??$_Emplace@U?$pair@EPAU__TAXDETAIL@@@std@@@?$_Tree@V?$_Tmap_traits@EPAU__TAXDETAIL@@U?$less@E@std@@V?$allocator@U?$pair@$$CBEPAU__TAXDETAIL@@@std@@@3@$0A@@std@@@std@@IAE?AU?$pair@PAU?$_Tree_node@U?$pair@$$CBEPAU__TAXDETAIL@@@std@@PAX@std@@_N@1@$$QAU?$pair@EPAU__TAXDETAIL@@@1@@Z
	DD	2 DUP(00H)
	DD	2 DUP(00H)
	DD	00H
	DD	01H
xdata$x	ENDS
;	COMDAT xdata$x
xdata$x	SEGMENT
__unwindtable$??$emplace@U?$pair@HPAU__TAXINFO@@@std@@@?$_Tree@V?$_Tmap_traits@EPAU__TAXINFO@@U?$less@E@std@@V?$allocator@U?$pair@$$CBEPAU__TAXINFO@@@std@@@3@$0A@@std@@@std@@QAE?AU?$pair@V?$_Tree_iterator@V?$_Tree_val@U?$_Tree_simple_types@U?$pair@$$CBEPAU__TAXINFO@@@std@@@std@@@std@@@std@@_N@1@$$QAU?$pair@HPAU__TAXINFO@@@1@@Z DD 0ffffffffH
	DD	FLAT:__unwindfunclet$??$emplace@U?$pair@HPAU__TAXINFO@@@std@@@?$_Tree@V?$_Tmap_traits@EPAU__TAXINFO@@U?$less@E@std@@V?$allocator@U?$pair@$$CBEPAU__TAXINFO@@@std@@@3@$0A@@std@@@std@@QAE?AU?$pair@V?$_Tree_iterator@V?$_Tree_val@U?$_Tree_simple_types@U?$pair@$$CBEPAU__TAXINFO@@@std@@@std@@@std@@@std@@_N@1@$$QAU?$pair@HPAU__TAXINFO@@@1@@Z$2
	DD	0ffffffffH
	DD	FLAT:__unwindfunclet$??$emplace@U?$pair@HPAU__TAXINFO@@@std@@@?$_Tree@V?$_Tmap_traits@EPAU__TAXINFO@@U?$less@E@std@@V?$allocator@U?$pair@$$CBEPAU__TAXINFO@@@std@@@3@$0A@@std@@@std@@QAE?AU?$pair@V?$_Tree_iterator@V?$_Tree_val@U?$_Tree_simple_types@U?$pair@$$CBEPAU__TAXINFO@@@std@@@std@@@std@@@std@@_N@1@$$QAU?$pair@HPAU__TAXINFO@@@1@@Z$0
__ehfuncinfo$??$emplace@U?$pair@HPAU__TAXINFO@@@std@@@?$_Tree@V?$_Tmap_traits@EPAU__TAXINFO@@U?$less@E@std@@V?$allocator@U?$pair@$$CBEPAU__TAXINFO@@@std@@@3@$0A@@std@@@std@@QAE?AU?$pair@V?$_Tree_iterator@V?$_Tree_val@U?$_Tree_simple_types@U?$pair@$$CBEPAU__TAXINFO@@@std@@@std@@@std@@@std@@_N@1@$$QAU?$pair@HPAU__TAXINFO@@@1@@Z DD 019930522H
	DD	02H
	DD	FLAT:__unwindtable$??$emplace@U?$pair@HPAU__TAXINFO@@@std@@@?$_Tree@V?$_Tmap_traits@EPAU__TAXINFO@@U?$less@E@std@@V?$allocator@U?$pair@$$CBEPAU__TAXINFO@@@std@@@3@$0A@@std@@@std@@QAE?AU?$pair@V?$_Tree_iterator@V?$_Tree_val@U?$_Tree_simple_types@U?$pair@$$CBEPAU__TAXINFO@@@std@@@std@@@std@@@std@@_N@1@$$QAU?$pair@HPAU__TAXINFO@@@1@@Z
	DD	2 DUP(00H)
	DD	2 DUP(00H)
	DD	00H
	DD	01H
xdata$x	ENDS
;	COMDAT xdata$x
xdata$x	SEGMENT
__unwindtable$??$emplace@U?$pair@EPAU__TAXDETAIL@@@std@@@?$_Tree@V?$_Tmap_traits@EPAU__TAXDETAIL@@U?$less@E@std@@V?$allocator@U?$pair@$$CBEPAU__TAXDETAIL@@@std@@@3@$0A@@std@@@std@@QAE?AU?$pair@V?$_Tree_iterator@V?$_Tree_val@U?$_Tree_simple_types@U?$pair@$$CBEPAU__TAXDETAIL@@@std@@@std@@@std@@@std@@_N@1@$$QAU?$pair@EPAU__TAXDETAIL@@@1@@Z DD 0ffffffffH
	DD	FLAT:__unwindfunclet$??$emplace@U?$pair@EPAU__TAXDETAIL@@@std@@@?$_Tree@V?$_Tmap_traits@EPAU__TAXDETAIL@@U?$less@E@std@@V?$allocator@U?$pair@$$CBEPAU__TAXDETAIL@@@std@@@3@$0A@@std@@@std@@QAE?AU?$pair@V?$_Tree_iterator@V?$_Tree_val@U?$_Tree_simple_types@U?$pair@$$CBEPAU__TAXDETAIL@@@std@@@std@@@std@@@std@@_N@1@$$QAU?$pair@EPAU__TAXDETAIL@@@1@@Z$2
__ehfuncinfo$??$emplace@U?$pair@EPAU__TAXDETAIL@@@std@@@?$_Tree@V?$_Tmap_traits@EPAU__TAXDETAIL@@U?$less@E@std@@V?$allocator@U?$pair@$$CBEPAU__TAXDETAIL@@@std@@@3@$0A@@std@@@std@@QAE?AU?$pair@V?$_Tree_iterator@V?$_Tree_val@U?$_Tree_simple_types@U?$pair@$$CBEPAU__TAXDETAIL@@@std@@@std@@@std@@@std@@_N@1@$$QAU?$pair@EPAU__TAXDETAIL@@@1@@Z DD 019930522H
	DD	01H
	DD	FLAT:__unwindtable$??$emplace@U?$pair@EPAU__TAXDETAIL@@@std@@@?$_Tree@V?$_Tmap_traits@EPAU__TAXDETAIL@@U?$less@E@std@@V?$allocator@U?$pair@$$CBEPAU__TAXDETAIL@@@std@@@3@$0A@@std@@@std@@QAE?AU?$pair@V?$_Tree_iterator@V?$_Tree_val@U?$_Tree_simple_types@U?$pair@$$CBEPAU__TAXDETAIL@@@std@@@std@@@std@@@std@@_N@1@$$QAU?$pair@EPAU__TAXDETAIL@@@1@@Z
	DD	2 DUP(00H)
	DD	2 DUP(00H)
	DD	00H
	DD	01H
xdata$x	ENDS
;	COMDAT xdata$x
xdata$x	SEGMENT
__unwindtable$??$insert@U?$pair@HPAU__TAXINFO@@@std@@$0A@@?$map@EPAU__TAXINFO@@U?$less@E@std@@V?$allocator@U?$pair@$$CBEPAU__TAXINFO@@@std@@@3@@std@@QAE?AU?$pair@V?$_Tree_iterator@V?$_Tree_val@U?$_Tree_simple_types@U?$pair@$$CBEPAU__TAXINFO@@@std@@@std@@@std@@@std@@_N@1@$$QAU?$pair@HPAU__TAXINFO@@@1@@Z DD 0ffffffffH
	DD	FLAT:__unwindfunclet$??$insert@U?$pair@HPAU__TAXINFO@@@std@@$0A@@?$map@EPAU__TAXINFO@@U?$less@E@std@@V?$allocator@U?$pair@$$CBEPAU__TAXINFO@@@std@@@3@@std@@QAE?AU?$pair@V?$_Tree_iterator@V?$_Tree_val@U?$_Tree_simple_types@U?$pair@$$CBEPAU__TAXINFO@@@std@@@std@@@std@@@std@@_N@1@$$QAU?$pair@HPAU__TAXINFO@@@1@@Z$2
	DD	0ffffffffH
	DD	FLAT:__unwindfunclet$??$insert@U?$pair@HPAU__TAXINFO@@@std@@$0A@@?$map@EPAU__TAXINFO@@U?$less@E@std@@V?$allocator@U?$pair@$$CBEPAU__TAXINFO@@@std@@@3@@std@@QAE?AU?$pair@V?$_Tree_iterator@V?$_Tree_val@U?$_Tree_simple_types@U?$pair@$$CBEPAU__TAXINFO@@@std@@@std@@@std@@@std@@_N@1@$$QAU?$pair@HPAU__TAXINFO@@@1@@Z$0
__ehfuncinfo$??$insert@U?$pair@HPAU__TAXINFO@@@std@@$0A@@?$map@EPAU__TAXINFO@@U?$less@E@std@@V?$allocator@U?$pair@$$CBEPAU__TAXINFO@@@std@@@3@@std@@QAE?AU?$pair@V?$_Tree_iterator@V?$_Tree_val@U?$_Tree_simple_types@U?$pair@$$CBEPAU__TAXINFO@@@std@@@std@@@std@@@std@@_N@1@$$QAU?$pair@HPAU__TAXINFO@@@1@@Z DD 019930522H
	DD	02H
	DD	FLAT:__unwindtable$??$insert@U?$pair@HPAU__TAXINFO@@@std@@$0A@@?$map@EPAU__TAXINFO@@U?$less@E@std@@V?$allocator@U?$pair@$$CBEPAU__TAXINFO@@@std@@@3@@std@@QAE?AU?$pair@V?$_Tree_iterator@V?$_Tree_val@U?$_Tree_simple_types@U?$pair@$$CBEPAU__TAXINFO@@@std@@@std@@@std@@@std@@_N@1@$$QAU?$pair@HPAU__TAXINFO@@@1@@Z
	DD	2 DUP(00H)
	DD	2 DUP(00H)
	DD	00H
	DD	01H
xdata$x	ENDS
;	COMDAT xdata$x
xdata$x	SEGMENT
__unwindtable$?GetInstance@CTax@@SAPAV1@XZ DD 0ffffffffH
	DD	FLAT:__unwindfunclet$?GetInstance@CTax@@SAPAV1@XZ$0
__ehfuncinfo$?GetInstance@CTax@@SAPAV1@XZ DD 019930522H
	DD	01H
	DD	FLAT:__unwindtable$?GetInstance@CTax@@SAPAV1@XZ
	DD	2 DUP(00H)
	DD	2 DUP(00H)
	DD	00H
	DD	01H
xdata$x	ENDS
;	COMDAT xdata$x
xdata$x	SEGMENT
__ehfuncinfo$??0CTax@@QAE@XZ DD 019930522H
	DD	05H
	DD	FLAT:__unwindtable$??0CTax@@QAE@XZ
	DD	2 DUP(00H)
	DD	2 DUP(00H)
	DD	00H
	DD	01H
__unwindtable$??0CTax@@QAE@XZ DD 0ffffffffH
	DD	FLAT:__unwindfunclet$??0CTax@@QAE@XZ$0
	DD	00H
	DD	FLAT:__unwindfunclet$??0CTax@@QAE@XZ$1
	DD	01H
	DD	FLAT:__unwindfunclet$??0CTax@@QAE@XZ$2
	DD	01H
	DD	FLAT:__unwindfunclet$??0CTax@@QAE@XZ$4
	DD	01H
	DD	FLAT:__unwindfunclet$??0CTax@@QAE@XZ$5
xdata$x	ENDS
;	COMDAT xdata$x
xdata$x	SEGMENT
__unwindtable$??$insert@U?$pair@EPAU__TAXDETAIL@@@std@@$0A@@?$map@EPAU__TAXDETAIL@@U?$less@E@std@@V?$allocator@U?$pair@$$CBEPAU__TAXDETAIL@@@std@@@3@@std@@QAE?AU?$pair@V?$_Tree_iterator@V?$_Tree_val@U?$_Tree_simple_types@U?$pair@$$CBEPAU__TAXDETAIL@@@std@@@std@@@std@@@std@@_N@1@$$QAU?$pair@EPAU__TAXDETAIL@@@1@@Z DD 0ffffffffH
	DD	FLAT:__unwindfunclet$??$insert@U?$pair@EPAU__TAXDETAIL@@@std@@$0A@@?$map@EPAU__TAXDETAIL@@U?$less@E@std@@V?$allocator@U?$pair@$$CBEPAU__TAXDETAIL@@@std@@@3@@std@@QAE?AU?$pair@V?$_Tree_iterator@V?$_Tree_val@U?$_Tree_simple_types@U?$pair@$$CBEPAU__TAXDETAIL@@@std@@@std@@@std@@@std@@_N@1@$$QAU?$pair@EPAU__TAXDETAIL@@@1@@Z$2
__ehfuncinfo$??$insert@U?$pair@EPAU__TAXDETAIL@@@std@@$0A@@?$map@EPAU__TAXDETAIL@@U?$less@E@std@@V?$allocator@U?$pair@$$CBEPAU__TAXDETAIL@@@std@@@3@@std@@QAE?AU?$pair@V?$_Tree_iterator@V?$_Tree_val@U?$_Tree_simple_types@U?$pair@$$CBEPAU__TAXDETAIL@@@std@@@std@@@std@@@std@@_N@1@$$QAU?$pair@EPAU__TAXDETAIL@@@1@@Z DD 019930522H
	DD	01H
	DD	FLAT:__unwindtable$??$insert@U?$pair@EPAU__TAXDETAIL@@@std@@$0A@@?$map@EPAU__TAXDETAIL@@U?$less@E@std@@V?$allocator@U?$pair@$$CBEPAU__TAXDETAIL@@@std@@@3@@std@@QAE?AU?$pair@V?$_Tree_iterator@V?$_Tree_val@U?$_Tree_simple_types@U?$pair@$$CBEPAU__TAXDETAIL@@@std@@@std@@@std@@@std@@_N@1@$$QAU?$pair@EPAU__TAXDETAIL@@@1@@Z
	DD	2 DUP(00H)
	DD	2 DUP(00H)
	DD	00H
	DD	01H
xdata$x	ENDS
;	COMDAT xdata$x
xdata$x	SEGMENT
__unwindtable$??0__TAXINFO@@QAE@XZ DD 0ffffffffH
	DD	FLAT:__unwindfunclet$??0__TAXINFO@@QAE@XZ$0
	DD	00H
	DD	FLAT:__unwindfunclet$??0__TAXINFO@@QAE@XZ$6
	DD	00H
	DD	FLAT:__unwindfunclet$??0__TAXINFO@@QAE@XZ$11
__ehfuncinfo$??0__TAXINFO@@QAE@XZ DD 019930522H
	DD	03H
	DD	FLAT:__unwindtable$??0__TAXINFO@@QAE@XZ
	DD	2 DUP(00H)
	DD	2 DUP(00H)
	DD	00H
	DD	01H
xdata$x	ENDS
; Function compile flags: /Ogtp
; File C:\Program Files\Microsoft Visual Studio\2022\Professional\VC\Tools\MSVC\14.44.35207\include\xtree
; File C:\Program Files\Microsoft Visual Studio\2022\Professional\VC\Tools\MSVC\14.44.35207\include\xmemory
; File C:\Program Files\Microsoft Visual Studio\2022\Professional\VC\Tools\MSVC\14.44.35207\include\xtree
;	COMDAT ??1?$_Tree_temp_node@V?$allocator@U?$_Tree_node@U?$pair@$$CBEPAU__TAXINFO@@@std@@PAX@std@@@std@@@std@@QAE@XZ
_TEXT	SEGMENT
??1?$_Tree_temp_node@V?$allocator@U?$_Tree_node@U?$pair@$$CBEPAU__TAXINFO@@@std@@PAX@std@@@std@@@std@@QAE@XZ PROC ; std::_Tree_temp_node<std::allocator<std::_Tree_node<std::pair<unsigned char const ,__TAXINFO *>,void *> > >::~_Tree_temp_node<std::allocator<std::_Tree_node<std::pair<unsigned char const ,__TAXINFO *>,void *> > >, COMDAT
; _this$ = ecx
; File C:\Program Files\Microsoft Visual Studio\2022\Professional\VC\Tools\MSVC\14.44.35207\include\xmemory

; 1172 :         if (_Ptr) {

  00000	8b 41 04	 mov	 eax, DWORD PTR [ecx+4]
  00003	85 c0		 test	 eax, eax
  00005	74 0b		 je	 SHORT $LN19@Tree_temp_

; 289  :         ::operator delete(_Ptr, _Bytes);

  00007	6a 18		 push	 24			; 00000018H
  00009	50		 push	 eax
  0000a	e8 00 00 00 00	 call	 ??3@YAXPAXI@Z		; operator delete
  0000f	83 c4 08	 add	 esp, 8
$LN19@Tree_temp_:
; File C:\Program Files\Microsoft Visual Studio\2022\Professional\VC\Tools\MSVC\14.44.35207\include\xtree

; 848  :     }

  00012	c3		 ret	 0
??1?$_Tree_temp_node@V?$allocator@U?$_Tree_node@U?$pair@$$CBEPAU__TAXINFO@@@std@@PAX@std@@@std@@@std@@QAE@XZ ENDP ; std::_Tree_temp_node<std::allocator<std::_Tree_node<std::pair<unsigned char const ,__TAXINFO *>,void *> > >::~_Tree_temp_node<std::allocator<std::_Tree_node<std::pair<unsigned char const ,__TAXINFO *>,void *> > >
_TEXT	ENDS
; Function compile flags: /Ogtp
; File C:\Program Files\Microsoft Visual Studio\2022\Professional\VC\Tools\MSVC\14.44.35207\include\xmemory
;	COMDAT ??1?$_Alloc_construct_ptr@V?$allocator@U?$_Tree_node@U?$pair@$$CBEPAU__TAXINFO@@@std@@PAX@std@@@std@@@std@@QAE@XZ
_TEXT	SEGMENT
??1?$_Alloc_construct_ptr@V?$allocator@U?$_Tree_node@U?$pair@$$CBEPAU__TAXINFO@@@std@@PAX@std@@@std@@@std@@QAE@XZ PROC ; std::_Alloc_construct_ptr<std::allocator<std::_Tree_node<std::pair<unsigned char const ,__TAXINFO *>,void *> > >::~_Alloc_construct_ptr<std::allocator<std::_Tree_node<std::pair<unsigned char const ,__TAXINFO *>,void *> > >, COMDAT
; _this$ = ecx

; 1172 :         if (_Ptr) {

  00000	8b 41 04	 mov	 eax, DWORD PTR [ecx+4]
  00003	85 c0		 test	 eax, eax
  00005	74 0b		 je	 SHORT $LN10@Alloc_cons

; 289  :         ::operator delete(_Ptr, _Bytes);

  00007	6a 18		 push	 24			; 00000018H
  00009	50		 push	 eax
  0000a	e8 00 00 00 00	 call	 ??3@YAXPAXI@Z		; operator delete
  0000f	83 c4 08	 add	 esp, 8
$LN10@Alloc_cons:

; 1173 :             _Al.deallocate(_Ptr, 1);
; 1174 :         }
; 1175 :     }

  00012	c3		 ret	 0
??1?$_Alloc_construct_ptr@V?$allocator@U?$_Tree_node@U?$pair@$$CBEPAU__TAXINFO@@@std@@PAX@std@@@std@@@std@@QAE@XZ ENDP ; std::_Alloc_construct_ptr<std::allocator<std::_Tree_node<std::pair<unsigned char const ,__TAXINFO *>,void *> > >::~_Alloc_construct_ptr<std::allocator<std::_Tree_node<std::pair<unsigned char const ,__TAXINFO *>,void *> > >
_TEXT	ENDS
; Function compile flags: /Ogtp
; File C:\Program Files\Microsoft Visual Studio\2022\Professional\VC\Tools\MSVC\14.44.35207\include\xmemory
;	COMDAT ??1?$_Alloc_construct_ptr@V?$allocator@U?$_Tree_node@U?$pair@$$CBEPAU__TAXDETAIL@@@std@@PAX@std@@@std@@@std@@QAE@XZ
_TEXT	SEGMENT
??1?$_Alloc_construct_ptr@V?$allocator@U?$_Tree_node@U?$pair@$$CBEPAU__TAXDETAIL@@@std@@PAX@std@@@std@@@std@@QAE@XZ PROC ; std::_Alloc_construct_ptr<std::allocator<std::_Tree_node<std::pair<unsigned char const ,__TAXDETAIL *>,void *> > >::~_Alloc_construct_ptr<std::allocator<std::_Tree_node<std::pair<unsigned char const ,__TAXDETAIL *>,void *> > >, COMDAT
; _this$ = ecx

; 1172 :         if (_Ptr) {

  00000	8b 41 04	 mov	 eax, DWORD PTR [ecx+4]
  00003	85 c0		 test	 eax, eax
  00005	74 0b		 je	 SHORT $LN10@Alloc_cons

; 289  :         ::operator delete(_Ptr, _Bytes);

  00007	6a 18		 push	 24			; 00000018H
  00009	50		 push	 eax
  0000a	e8 00 00 00 00	 call	 ??3@YAXPAXI@Z		; operator delete
  0000f	83 c4 08	 add	 esp, 8
$LN10@Alloc_cons:

; 1173 :             _Al.deallocate(_Ptr, 1);
; 1174 :         }
; 1175 :     }

  00012	c3		 ret	 0
??1?$_Alloc_construct_ptr@V?$allocator@U?$_Tree_node@U?$pair@$$CBEPAU__TAXDETAIL@@@std@@PAX@std@@@std@@@std@@QAE@XZ ENDP ; std::_Alloc_construct_ptr<std::allocator<std::_Tree_node<std::pair<unsigned char const ,__TAXDETAIL *>,void *> > >::~_Alloc_construct_ptr<std::allocator<std::_Tree_node<std::pair<unsigned char const ,__TAXDETAIL *>,void *> > >
_TEXT	ENDS
; Function compile flags: /Ogtp
; File C:\Program Files\Microsoft Visual Studio\2022\Professional\VC\Tools\MSVC\14.44.35207\include\xtree
; File C:\Program Files\Microsoft Visual Studio\2022\Professional\VC\Tools\MSVC\14.44.35207\include\utility
; File C:\Program Files\Microsoft Visual Studio\2022\Professional\VC\Tools\MSVC\14.44.35207\include\xmemory
; File C:\Program Files\Microsoft Visual Studio\2022\Professional\VC\Tools\MSVC\14.44.35207\include\xtree
;	COMDAT ??$_Erase_tree@V?$allocator@U?$_Tree_node@U?$pair@$$CBEPAU__TAXDETAIL@@@std@@PAX@std@@@std@@@?$_Tree_val@U?$_Tree_simple_types@U?$pair@$$CBEPAU__TAXDETAIL@@@std@@@std@@@std@@QAEXAAV?$allocator@U?$_Tree_node@U?$pair@$$CBEPAU__TAXDETAIL@@@std@@PAX@std@@@1@PAU?$_Tree_node@U?$pair@$$CBEPAU__TAXDETAIL@@@std@@PAX@1@@Z
_TEXT	SEGMENT
__Al$ = 8						; size = 4
__Rootnode$ = 12					; size = 4
??$_Erase_tree@V?$allocator@U?$_Tree_node@U?$pair@$$CBEPAU__TAXDETAIL@@@std@@PAX@std@@@std@@@?$_Tree_val@U?$_Tree_simple_types@U?$pair@$$CBEPAU__TAXDETAIL@@@std@@@std@@@std@@QAEXAAV?$allocator@U?$_Tree_node@U?$pair@$$CBEPAU__TAXDETAIL@@@std@@PAX@std@@@1@PAU?$_Tree_node@U?$pair@$$CBEPAU__TAXDETAIL@@@std@@PAX@1@@Z PROC ; std::_Tree_val<std::_Tree_simple_types<std::pair<unsigned char const ,__TAXDETAIL *> > >::_Erase_tree<std::allocator<std::_Tree_node<std::pair<unsigned char const ,__TAXDETAIL *>,void *> > >, COMDAT
; _this$ = ecx

; 767  :     void _Erase_tree(_Alnode& _Al, _Nodeptr _Rootnode) noexcept {

  00000	55		 push	 ebp
  00001	8b ec		 mov	 ebp, esp
  00003	53		 push	 ebx
  00004	56		 push	 esi

; 768  :         while (!_Rootnode->_Isnil) { // free subtrees, then node

  00005	8b 75 0c	 mov	 esi, DWORD PTR __Rootnode$[ebp]
  00008	8b d9		 mov	 ebx, ecx
  0000a	80 7e 0d 00	 cmp	 BYTE PTR [esi+13], 0
  0000e	75 25		 jne	 SHORT $LN34@Erase_tree
  00010	57		 push	 edi
  00011	8b 7d 08	 mov	 edi, DWORD PTR __Al$[ebp]
$LL2@Erase_tree:

; 769  :             _Erase_tree(_Al, _Rootnode->_Right);

  00014	ff 76 08	 push	 DWORD PTR [esi+8]
  00017	8b cb		 mov	 ecx, ebx
  00019	57		 push	 edi
  0001a	e8 00 00 00 00	 call	 ??$_Erase_tree@V?$allocator@U?$_Tree_node@U?$pair@$$CBEPAU__TAXDETAIL@@@std@@PAX@std@@@std@@@?$_Tree_val@U?$_Tree_simple_types@U?$pair@$$CBEPAU__TAXDETAIL@@@std@@@std@@@std@@QAEXAAV?$allocator@U?$_Tree_node@U?$pair@$$CBEPAU__TAXDETAIL@@@std@@PAX@std@@@1@PAU?$_Tree_node@U?$pair@$$CBEPAU__TAXDETAIL@@@std@@PAX@1@@Z ; std::_Tree_val<std::_Tree_simple_types<std::pair<unsigned char const ,__TAXDETAIL *> > >::_Erase_tree<std::allocator<std::_Tree_node<std::pair<unsigned char const ,__TAXDETAIL *>,void *> > >
; File C:\Program Files\Microsoft Visual Studio\2022\Professional\VC\Tools\MSVC\14.44.35207\include\utility

; 773  :     _Ty _Old_val = static_cast<_Ty&&>(_Val);

  0001f	8b c6		 mov	 eax, esi

; 774  :     _Val         = static_cast<_Other&&>(_New_val);

  00021	8b 36		 mov	 esi, DWORD PTR [esi]
; File C:\Program Files\Microsoft Visual Studio\2022\Professional\VC\Tools\MSVC\14.44.35207\include\xmemory

; 289  :         ::operator delete(_Ptr, _Bytes);

  00023	6a 18		 push	 24			; 00000018H
  00025	50		 push	 eax
  00026	e8 00 00 00 00	 call	 ??3@YAXPAXI@Z		; operator delete
  0002b	83 c4 08	 add	 esp, 8
; File C:\Program Files\Microsoft Visual Studio\2022\Professional\VC\Tools\MSVC\14.44.35207\include\xtree

; 768  :         while (!_Rootnode->_Isnil) { // free subtrees, then node

  0002e	80 7e 0d 00	 cmp	 BYTE PTR [esi+13], 0
  00032	74 e0		 je	 SHORT $LL2@Erase_tree
  00034	5f		 pop	 edi
$LN34@Erase_tree:
  00035	5e		 pop	 esi

; 770  :             _Alnode::value_type::_Freenode(_Al, _STD exchange(_Rootnode, _Rootnode->_Left));
; 771  :         }
; 772  :     }

  00036	5b		 pop	 ebx
  00037	5d		 pop	 ebp
  00038	c2 08 00	 ret	 8
??$_Erase_tree@V?$allocator@U?$_Tree_node@U?$pair@$$CBEPAU__TAXDETAIL@@@std@@PAX@std@@@std@@@?$_Tree_val@U?$_Tree_simple_types@U?$pair@$$CBEPAU__TAXDETAIL@@@std@@@std@@@std@@QAEXAAV?$allocator@U?$_Tree_node@U?$pair@$$CBEPAU__TAXDETAIL@@@std@@PAX@std@@@1@PAU?$_Tree_node@U?$pair@$$CBEPAU__TAXDETAIL@@@std@@PAX@1@@Z ENDP ; std::_Tree_val<std::_Tree_simple_types<std::pair<unsigned char const ,__TAXDETAIL *> > >::_Erase_tree<std::allocator<std::_Tree_node<std::pair<unsigned char const ,__TAXDETAIL *>,void *> > >
_TEXT	ENDS
; Function compile flags: /Ogtp
; File C:\Program Files\Microsoft Visual Studio\2022\Professional\VC\Tools\MSVC\14.44.35207\include\xtree
; File C:\Program Files\Microsoft Visual Studio\2022\Professional\VC\Tools\MSVC\14.44.35207\include\type_traits
; File C:\Program Files\Microsoft Visual Studio\2022\Professional\VC\Tools\MSVC\14.44.35207\include\xtree
; File C:\Program Files\Microsoft Visual Studio\2022\Professional\VC\Tools\MSVC\14.44.35207\include\type_traits
; File C:\Program Files\Microsoft Visual Studio\2022\Professional\VC\Tools\MSVC\14.44.35207\include\xtree
;	COMDAT ??$_Find_lower_bound@E@?$_Tree@V?$_Tmap_traits@EPAU__TAXDETAIL@@U?$less@E@std@@V?$allocator@U?$pair@$$CBEPAU__TAXDETAIL@@@std@@@3@$0A@@std@@@std@@IBE?AU?$_Tree_find_result@PAU?$_Tree_node@U?$pair@$$CBEPAU__TAXDETAIL@@@std@@PAX@std@@@1@ABE@Z
_TEXT	SEGMENT
___$ReturnUdt$ = 8					; size = 4
__Keyval$ = 12						; size = 4
??$_Find_lower_bound@E@?$_Tree@V?$_Tmap_traits@EPAU__TAXDETAIL@@U?$less@E@std@@V?$allocator@U?$pair@$$CBEPAU__TAXDETAIL@@@std@@@3@$0A@@std@@@std@@IBE?AU?$_Tree_find_result@PAU?$_Tree_node@U?$pair@$$CBEPAU__TAXDETAIL@@@std@@PAX@std@@@1@ABE@Z PROC ; std::_Tree<std::_Tmap_traits<unsigned char,__TAXDETAIL *,std::less<unsigned char>,std::allocator<std::pair<unsigned char const ,__TAXDETAIL *> >,0> >::_Find_lower_bound<unsigned char>, COMDAT
; _this$ = ecx

; 1628 :     _Tree_find_result<_Nodeptr> _Find_lower_bound(const _Keyty& _Keyval) const {

  00000	55		 push	 ebp
  00001	8b ec		 mov	 ebp, esp

; 1629 :         const auto _Scary = _Get_scary();
; 1630 :         _Tree_find_result<_Nodeptr> _Result{{_Scary->_Myhead->_Parent, _Tree_child::_Right}, _Scary->_Myhead};

  00003	8b 09		 mov	 ecx, DWORD PTR [ecx]
  00005	8b 55 08	 mov	 edx, DWORD PTR ___$ReturnUdt$[ebp]
  00008	8b 41 04	 mov	 eax, DWORD PTR [ecx+4]
  0000b	89 02		 mov	 DWORD PTR [edx], eax
  0000d	c7 42 04 00 00
	00 00		 mov	 DWORD PTR [edx+4], 0
  00014	89 4a 08	 mov	 DWORD PTR [edx+8], ecx

; 1631 :         _Nodeptr _Trynode = _Result._Location._Parent;
; 1632 :         while (!_Trynode->_Isnil) {

  00017	80 78 0d 00	 cmp	 BYTE PTR [eax+13], 0
  0001b	75 28		 jne	 SHORT $LN13@Find_lower
; File C:\Program Files\Microsoft Visual Studio\2022\Professional\VC\Tools\MSVC\14.44.35207\include\type_traits

; 2380 :         return _Left < _Right;

  0001d	8b 4d 0c	 mov	 ecx, DWORD PTR __Keyval$[ebp]
  00020	53		 push	 ebx
  00021	8a 19		 mov	 bl, BYTE PTR [ecx]
$LL2@Find_lower:
; File C:\Program Files\Microsoft Visual Studio\2022\Professional\VC\Tools\MSVC\14.44.35207\include\xtree

; 1633 :             _Result._Location._Parent = _Trynode;

  00023	89 02		 mov	 DWORD PTR [edx], eax
; File C:\Program Files\Microsoft Visual Studio\2022\Professional\VC\Tools\MSVC\14.44.35207\include\type_traits

; 2380 :         return _Left < _Right;

  00025	38 58 10	 cmp	 BYTE PTR [eax+16], bl
; File C:\Program Files\Microsoft Visual Studio\2022\Professional\VC\Tools\MSVC\14.44.35207\include\xtree

; 1634 :             if (_DEBUG_LT_PRED(_Getcomp(), _Traits::_Kfn(_Trynode->_Myval), _Keyval)) {

  00028	73 07		 jae	 SHORT $LN4@Find_lower

; 1635 :                 _Result._Location._Child = _Tree_child::_Right;
; 1636 :                 _Trynode                 = _Trynode->_Right;

  0002a	8b 40 08	 mov	 eax, DWORD PTR [eax+8]
  0002d	33 c9		 xor	 ecx, ecx

; 1637 :             } else {

  0002f	eb 0a		 jmp	 SHORT $LN5@Find_lower
$LN4@Find_lower:

; 1638 :                 _Result._Location._Child = _Tree_child::_Left;
; 1639 :                 _Result._Bound           = _Trynode;

  00031	89 42 08	 mov	 DWORD PTR [edx+8], eax

; 1640 :                 _Trynode                 = _Trynode->_Left;

  00034	b9 01 00 00 00	 mov	 ecx, 1
  00039	8b 00		 mov	 eax, DWORD PTR [eax]
$LN5@Find_lower:

; 1631 :         _Nodeptr _Trynode = _Result._Location._Parent;
; 1632 :         while (!_Trynode->_Isnil) {

  0003b	89 4a 04	 mov	 DWORD PTR [edx+4], ecx
  0003e	80 78 0d 00	 cmp	 BYTE PTR [eax+13], 0
  00042	74 df		 je	 SHORT $LL2@Find_lower
  00044	5b		 pop	 ebx
$LN13@Find_lower:

; 1641 :             }
; 1642 :         }
; 1643 : 
; 1644 :         return _Result;
; 1645 :     }

  00045	8b c2		 mov	 eax, edx
  00047	5d		 pop	 ebp
  00048	c2 08 00	 ret	 8
??$_Find_lower_bound@E@?$_Tree@V?$_Tmap_traits@EPAU__TAXDETAIL@@U?$less@E@std@@V?$allocator@U?$pair@$$CBEPAU__TAXDETAIL@@@std@@@3@$0A@@std@@@std@@IBE?AU?$_Tree_find_result@PAU?$_Tree_node@U?$pair@$$CBEPAU__TAXDETAIL@@@std@@PAX@std@@@1@ABE@Z ENDP ; std::_Tree<std::_Tmap_traits<unsigned char,__TAXDETAIL *,std::less<unsigned char>,std::allocator<std::pair<unsigned char const ,__TAXDETAIL *> >,0> >::_Find_lower_bound<unsigned char>
_TEXT	ENDS
; Function compile flags: /Ogtp
; File C:\Program Files\Microsoft Visual Studio\2022\Professional\VC\Tools\MSVC\14.44.35207\include\xtree
; File C:\Program Files\Microsoft Visual Studio\2022\Professional\VC\Tools\MSVC\14.44.35207\include\type_traits
; File C:\Program Files\Microsoft Visual Studio\2022\Professional\VC\Tools\MSVC\14.44.35207\include\xtree
; File C:\Program Files\Microsoft Visual Studio\2022\Professional\VC\Tools\MSVC\14.44.35207\include\type_traits
; File C:\Program Files\Microsoft Visual Studio\2022\Professional\VC\Tools\MSVC\14.44.35207\include\xtree
;	COMDAT ??$_Find_lower_bound@E@?$_Tree@V?$_Tmap_traits@EPAU__TAXINFO@@U?$less@E@std@@V?$allocator@U?$pair@$$CBEPAU__TAXINFO@@@std@@@3@$0A@@std@@@std@@IBE?AU?$_Tree_find_result@PAU?$_Tree_node@U?$pair@$$CBEPAU__TAXINFO@@@std@@PAX@std@@@1@ABE@Z
_TEXT	SEGMENT
___$ReturnUdt$ = 8					; size = 4
__Keyval$ = 12						; size = 4
??$_Find_lower_bound@E@?$_Tree@V?$_Tmap_traits@EPAU__TAXINFO@@U?$less@E@std@@V?$allocator@U?$pair@$$CBEPAU__TAXINFO@@@std@@@3@$0A@@std@@@std@@IBE?AU?$_Tree_find_result@PAU?$_Tree_node@U?$pair@$$CBEPAU__TAXINFO@@@std@@PAX@std@@@1@ABE@Z PROC ; std::_Tree<std::_Tmap_traits<unsigned char,__TAXINFO *,std::less<unsigned char>,std::allocator<std::pair<unsigned char const ,__TAXINFO *> >,0> >::_Find_lower_bound<unsigned char>, COMDAT
; _this$ = ecx

; 1628 :     _Tree_find_result<_Nodeptr> _Find_lower_bound(const _Keyty& _Keyval) const {

  00000	55		 push	 ebp
  00001	8b ec		 mov	 ebp, esp

; 1629 :         const auto _Scary = _Get_scary();
; 1630 :         _Tree_find_result<_Nodeptr> _Result{{_Scary->_Myhead->_Parent, _Tree_child::_Right}, _Scary->_Myhead};

  00003	8b 09		 mov	 ecx, DWORD PTR [ecx]
  00005	8b 55 08	 mov	 edx, DWORD PTR ___$ReturnUdt$[ebp]
  00008	8b 41 04	 mov	 eax, DWORD PTR [ecx+4]
  0000b	89 02		 mov	 DWORD PTR [edx], eax
  0000d	c7 42 04 00 00
	00 00		 mov	 DWORD PTR [edx+4], 0
  00014	89 4a 08	 mov	 DWORD PTR [edx+8], ecx

; 1631 :         _Nodeptr _Trynode = _Result._Location._Parent;
; 1632 :         while (!_Trynode->_Isnil) {

  00017	80 78 0d 00	 cmp	 BYTE PTR [eax+13], 0
  0001b	75 28		 jne	 SHORT $LN13@Find_lower
; File C:\Program Files\Microsoft Visual Studio\2022\Professional\VC\Tools\MSVC\14.44.35207\include\type_traits

; 2380 :         return _Left < _Right;

  0001d	8b 4d 0c	 mov	 ecx, DWORD PTR __Keyval$[ebp]
  00020	53		 push	 ebx
  00021	8a 19		 mov	 bl, BYTE PTR [ecx]
$LL2@Find_lower:
; File C:\Program Files\Microsoft Visual Studio\2022\Professional\VC\Tools\MSVC\14.44.35207\include\xtree

; 1633 :             _Result._Location._Parent = _Trynode;

  00023	89 02		 mov	 DWORD PTR [edx], eax
; File C:\Program Files\Microsoft Visual Studio\2022\Professional\VC\Tools\MSVC\14.44.35207\include\type_traits

; 2380 :         return _Left < _Right;

  00025	38 58 10	 cmp	 BYTE PTR [eax+16], bl
; File C:\Program Files\Microsoft Visual Studio\2022\Professional\VC\Tools\MSVC\14.44.35207\include\xtree

; 1634 :             if (_DEBUG_LT_PRED(_Getcomp(), _Traits::_Kfn(_Trynode->_Myval), _Keyval)) {

  00028	73 07		 jae	 SHORT $LN4@Find_lower

; 1635 :                 _Result._Location._Child = _Tree_child::_Right;
; 1636 :                 _Trynode                 = _Trynode->_Right;

  0002a	8b 40 08	 mov	 eax, DWORD PTR [eax+8]
  0002d	33 c9		 xor	 ecx, ecx

; 1637 :             } else {

  0002f	eb 0a		 jmp	 SHORT $LN5@Find_lower
$LN4@Find_lower:

; 1638 :                 _Result._Location._Child = _Tree_child::_Left;
; 1639 :                 _Result._Bound           = _Trynode;

  00031	89 42 08	 mov	 DWORD PTR [edx+8], eax

; 1640 :                 _Trynode                 = _Trynode->_Left;

  00034	b9 01 00 00 00	 mov	 ecx, 1
  00039	8b 00		 mov	 eax, DWORD PTR [eax]
$LN5@Find_lower:

; 1631 :         _Nodeptr _Trynode = _Result._Location._Parent;
; 1632 :         while (!_Trynode->_Isnil) {

  0003b	89 4a 04	 mov	 DWORD PTR [edx+4], ecx
  0003e	80 78 0d 00	 cmp	 BYTE PTR [eax+13], 0
  00042	74 df		 je	 SHORT $LL2@Find_lower
  00044	5b		 pop	 ebx
$LN13@Find_lower:

; 1641 :             }
; 1642 :         }
; 1643 : 
; 1644 :         return _Result;
; 1645 :     }

  00045	8b c2		 mov	 eax, edx
  00047	5d		 pop	 ebp
  00048	c2 08 00	 ret	 8
??$_Find_lower_bound@E@?$_Tree@V?$_Tmap_traits@EPAU__TAXINFO@@U?$less@E@std@@V?$allocator@U?$pair@$$CBEPAU__TAXINFO@@@std@@@3@$0A@@std@@@std@@IBE?AU?$_Tree_find_result@PAU?$_Tree_node@U?$pair@$$CBEPAU__TAXINFO@@@std@@PAX@std@@@1@ABE@Z ENDP ; std::_Tree<std::_Tmap_traits<unsigned char,__TAXINFO *,std::less<unsigned char>,std::allocator<std::pair<unsigned char const ,__TAXINFO *> >,0> >::_Find_lower_bound<unsigned char>
_TEXT	ENDS
; Function compile flags: /Ogtp
; File C:\Program Files\Microsoft Visual Studio\2022\Professional\VC\Tools\MSVC\14.44.35207\include\xtree
; File C:\Program Files\Microsoft Visual Studio\2022\Professional\VC\Tools\MSVC\14.44.35207\include\utility
; File C:\Program Files\Microsoft Visual Studio\2022\Professional\VC\Tools\MSVC\14.44.35207\include\xmemory
; File C:\Program Files\Microsoft Visual Studio\2022\Professional\VC\Tools\MSVC\14.44.35207\include\xtree
;	COMDAT ??$_Erase_tree@V?$allocator@U?$_Tree_node@U?$pair@$$CBEPAU__TAXINFO@@@std@@PAX@std@@@std@@@?$_Tree_val@U?$_Tree_simple_types@U?$pair@$$CBEPAU__TAXINFO@@@std@@@std@@@std@@QAEXAAV?$allocator@U?$_Tree_node@U?$pair@$$CBEPAU__TAXINFO@@@std@@PAX@std@@@1@PAU?$_Tree_node@U?$pair@$$CBEPAU__TAXINFO@@@std@@PAX@1@@Z
_TEXT	SEGMENT
__Al$ = 8						; size = 4
__Rootnode$ = 12					; size = 4
??$_Erase_tree@V?$allocator@U?$_Tree_node@U?$pair@$$CBEPAU__TAXINFO@@@std@@PAX@std@@@std@@@?$_Tree_val@U?$_Tree_simple_types@U?$pair@$$CBEPAU__TAXINFO@@@std@@@std@@@std@@QAEXAAV?$allocator@U?$_Tree_node@U?$pair@$$CBEPAU__TAXINFO@@@std@@PAX@std@@@1@PAU?$_Tree_node@U?$pair@$$CBEPAU__TAXINFO@@@std@@PAX@1@@Z PROC ; std::_Tree_val<std::_Tree_simple_types<std::pair<unsigned char const ,__TAXINFO *> > >::_Erase_tree<std::allocator<std::_Tree_node<std::pair<unsigned char const ,__TAXINFO *>,void *> > >, COMDAT
; _this$ = ecx

; 767  :     void _Erase_tree(_Alnode& _Al, _Nodeptr _Rootnode) noexcept {

  00000	55		 push	 ebp
  00001	8b ec		 mov	 ebp, esp
  00003	53		 push	 ebx
  00004	56		 push	 esi

; 768  :         while (!_Rootnode->_Isnil) { // free subtrees, then node

  00005	8b 75 0c	 mov	 esi, DWORD PTR __Rootnode$[ebp]
  00008	8b d9		 mov	 ebx, ecx
  0000a	80 7e 0d 00	 cmp	 BYTE PTR [esi+13], 0
  0000e	75 25		 jne	 SHORT $LN34@Erase_tree
  00010	57		 push	 edi
  00011	8b 7d 08	 mov	 edi, DWORD PTR __Al$[ebp]
$LL2@Erase_tree:

; 769  :             _Erase_tree(_Al, _Rootnode->_Right);

  00014	ff 76 08	 push	 DWORD PTR [esi+8]
  00017	8b cb		 mov	 ecx, ebx
  00019	57		 push	 edi
  0001a	e8 00 00 00 00	 call	 ??$_Erase_tree@V?$allocator@U?$_Tree_node@U?$pair@$$CBEPAU__TAXINFO@@@std@@PAX@std@@@std@@@?$_Tree_val@U?$_Tree_simple_types@U?$pair@$$CBEPAU__TAXINFO@@@std@@@std@@@std@@QAEXAAV?$allocator@U?$_Tree_node@U?$pair@$$CBEPAU__TAXINFO@@@std@@PAX@std@@@1@PAU?$_Tree_node@U?$pair@$$CBEPAU__TAXINFO@@@std@@PAX@1@@Z ; std::_Tree_val<std::_Tree_simple_types<std::pair<unsigned char const ,__TAXINFO *> > >::_Erase_tree<std::allocator<std::_Tree_node<std::pair<unsigned char const ,__TAXINFO *>,void *> > >
; File C:\Program Files\Microsoft Visual Studio\2022\Professional\VC\Tools\MSVC\14.44.35207\include\utility

; 773  :     _Ty _Old_val = static_cast<_Ty&&>(_Val);

  0001f	8b c6		 mov	 eax, esi

; 774  :     _Val         = static_cast<_Other&&>(_New_val);

  00021	8b 36		 mov	 esi, DWORD PTR [esi]
; File C:\Program Files\Microsoft Visual Studio\2022\Professional\VC\Tools\MSVC\14.44.35207\include\xmemory

; 289  :         ::operator delete(_Ptr, _Bytes);

  00023	6a 18		 push	 24			; 00000018H
  00025	50		 push	 eax
  00026	e8 00 00 00 00	 call	 ??3@YAXPAXI@Z		; operator delete
  0002b	83 c4 08	 add	 esp, 8
; File C:\Program Files\Microsoft Visual Studio\2022\Professional\VC\Tools\MSVC\14.44.35207\include\xtree

; 768  :         while (!_Rootnode->_Isnil) { // free subtrees, then node

  0002e	80 7e 0d 00	 cmp	 BYTE PTR [esi+13], 0
  00032	74 e0		 je	 SHORT $LL2@Erase_tree
  00034	5f		 pop	 edi
$LN34@Erase_tree:
  00035	5e		 pop	 esi

; 770  :             _Alnode::value_type::_Freenode(_Al, _STD exchange(_Rootnode, _Rootnode->_Left));
; 771  :         }
; 772  :     }

  00036	5b		 pop	 ebx
  00037	5d		 pop	 ebp
  00038	c2 08 00	 ret	 8
??$_Erase_tree@V?$allocator@U?$_Tree_node@U?$pair@$$CBEPAU__TAXINFO@@@std@@PAX@std@@@std@@@?$_Tree_val@U?$_Tree_simple_types@U?$pair@$$CBEPAU__TAXINFO@@@std@@@std@@@std@@QAEXAAV?$allocator@U?$_Tree_node@U?$pair@$$CBEPAU__TAXINFO@@@std@@PAX@std@@@1@PAU?$_Tree_node@U?$pair@$$CBEPAU__TAXINFO@@@std@@PAX@1@@Z ENDP ; std::_Tree_val<std::_Tree_simple_types<std::pair<unsigned char const ,__TAXINFO *> > >::_Erase_tree<std::allocator<std::_Tree_node<std::pair<unsigned char const ,__TAXINFO *>,void *> > >
_TEXT	ENDS
; Function compile flags: /Ogtp
; File C:\IAGOS\server\v18\Source\Source\_Network\Misc\Include\ar.h
;	COMDAT ??$?5E@CAr@@QAEAAV0@AAE@Z
_TEXT	SEGMENT
_t$ = 8							; size = 4
??$?5E@CAr@@QAEAAV0@AAE@Z PROC				; CAr::operator>><unsigned char>, COMDAT
; _this$ = ecx

; 302  : {

  00000	55		 push	 ebp
  00001	8b ec		 mov	 ebp, esp
  00003	8b d1		 mov	 edx, ecx

; 303  : 	if (m_lpBufCur + sizeof(T) <= m_lpBufMax)

  00005	8b 4a 08	 mov	 ecx, DWORD PTR [edx+8]
  00008	8d 41 01	 lea	 eax, DWORD PTR [ecx+1]
  0000b	3b 42 0c	 cmp	 eax, DWORD PTR [edx+12]
  0000e	8b 45 08	 mov	 eax, DWORD PTR _t$[ebp]
  00011	77 0d		 ja	 SHORT $LN2@operator

; 304  : 	{
; 305  : 		t = *(UNALIGNED T*)m_lpBufCur;

  00013	8a 09		 mov	 cl, BYTE PTR [ecx]
  00015	88 08		 mov	 BYTE PTR [eax], cl

; 312  : 	}
; 313  : 	return *this;
; 314  : }

  00017	8b c2		 mov	 eax, edx
  00019	ff 42 08	 inc	 DWORD PTR [edx+8]
  0001c	5d		 pop	 ebp
  0001d	c2 04 00	 ret	 4
$LN2@operator:

; 306  : 		m_lpBufCur += sizeof(T);
; 307  : 	}
; 308  : 	else
; 309  : 	{
; 310  : 		t = T();

  00020	c6 00 00	 mov	 BYTE PTR [eax], 0

; 311  : 		m_lpBufCur = m_lpBufMax;

  00023	8b 42 0c	 mov	 eax, DWORD PTR [edx+12]
  00026	89 42 08	 mov	 DWORD PTR [edx+8], eax

; 312  : 	}
; 313  : 	return *this;
; 314  : }

  00029	8b c2		 mov	 eax, edx
  0002b	5d		 pop	 ebp
  0002c	c2 04 00	 ret	 4
??$?5E@CAr@@QAEAAV0@AAE@Z ENDP				; CAr::operator>><unsigned char>
_TEXT	ENDS
; Function compile flags: /Ogtp
; File C:\IAGOS\server\v18\Source\Source\_Network\Misc\Include\ar.h
;	COMDAT ??$?6E@CAr@@QAEAAV0@ABE@Z
_TEXT	SEGMENT
_t$ = 8							; size = 4
??$?6E@CAr@@QAEAAV0@ABE@Z PROC				; CAr::operator<<<unsigned char>, COMDAT
; _this$ = ecx

; 255  : {

  00000	55		 push	 ebp
  00001	8b ec		 mov	 ebp, esp
  00003	56		 push	 esi

; 256  : 	CheckBuf(sizeof(T));

  00004	6a 01		 push	 1
  00006	8b f1		 mov	 esi, ecx
  00008	e8 00 00 00 00	 call	 ?CheckBuf@CAr@@QAEXI@Z	; CAr::CheckBuf

; 257  : 	*(UNALIGNED T*)m_lpBufCur = t;

  0000d	8b 45 08	 mov	 eax, DWORD PTR _t$[ebp]
  00010	8b 56 08	 mov	 edx, DWORD PTR [esi+8]
  00013	8a 00		 mov	 al, BYTE PTR [eax]
  00015	88 02		 mov	 BYTE PTR [edx], al

; 258  : 	m_lpBufCur += sizeof(T);
; 259  : 	return *this;

  00017	8b c6		 mov	 eax, esi
  00019	ff 46 08	 inc	 DWORD PTR [esi+8]
  0001c	5e		 pop	 esi

; 260  : }

  0001d	5d		 pop	 ebp
  0001e	c2 04 00	 ret	 4
??$?6E@CAr@@QAEAAV0@ABE@Z ENDP				; CAr::operator<<<unsigned char>
_TEXT	ENDS
; Function compile flags: /Ogtp
;	COMDAT ??__FsTax@?1??GetInstance@CTax@@SAPAV1@XZ@YAXXZ
text$yd	SEGMENT
??__FsTax@?1??GetInstance@CTax@@SAPAV1@XZ@YAXXZ PROC	; `CTax::GetInstance'::`2'::`dynamic atexit destructor for 'sTax'', COMDAT
  00000	b9 00 00 00 00	 mov	 ecx, OFFSET ?sTax@?1??GetInstance@CTax@@SAPAV2@XZ@4V2@A
  00005	e9 00 00 00 00	 jmp	 ??1CTax@@QAE@XZ		; CTax::~CTax
??__FsTax@?1??GetInstance@CTax@@SAPAV1@XZ@YAXXZ ENDP	; `CTax::GetInstance'::`2'::`dynamic atexit destructor for 'sTax''
text$yd	ENDS
; Function compile flags: /Ogtp
; File C:\Program Files\Microsoft Visual Studio\2022\Professional\VC\Tools\MSVC\14.44.35207\include\map
; File C:\Program Files\Microsoft Visual Studio\2022\Professional\VC\Tools\MSVC\14.44.35207\include\xtree
; File C:\Program Files\Microsoft Visual Studio\2022\Professional\VC\Tools\MSVC\14.44.35207\include\xmemory
; File C:\Program Files\Microsoft Visual Studio\2022\Professional\VC\Tools\MSVC\14.44.35207\include\xtree
; File C:\Program Files\Microsoft Visual Studio\2022\Professional\VC\Tools\MSVC\14.44.35207\include\xmemory
; File C:\Program Files\Microsoft Visual Studio\2022\Professional\VC\Tools\MSVC\14.44.35207\include\utility
; File C:\Program Files\Microsoft Visual Studio\2022\Professional\VC\Tools\MSVC\14.44.35207\include\xmemory
; File C:\Program Files\Microsoft Visual Studio\2022\Professional\VC\Tools\MSVC\14.44.35207\include\xtree
; File C:\Program Files\Microsoft Visual Studio\2022\Professional\VC\Tools\MSVC\14.44.35207\include\xmemory
; File C:\Program Files\Microsoft Visual Studio\2022\Professional\VC\Tools\MSVC\14.44.35207\include\utility
; File C:\Program Files\Microsoft Visual Studio\2022\Professional\VC\Tools\MSVC\14.44.35207\include\xtree
; File C:\Program Files\Microsoft Visual Studio\2022\Professional\VC\Tools\MSVC\14.44.35207\include\utility
; File C:\Program Files\Microsoft Visual Studio\2022\Professional\VC\Tools\MSVC\14.44.35207\include\xtree
; File C:\Program Files\Microsoft Visual Studio\2022\Professional\VC\Tools\MSVC\14.44.35207\include\type_traits
; File C:\Program Files\Microsoft Visual Studio\2022\Professional\VC\Tools\MSVC\14.44.35207\include\xtree
; File C:\Program Files\Microsoft Visual Studio\2022\Professional\VC\Tools\MSVC\14.44.35207\include\xmemory
; File C:\Program Files\Microsoft Visual Studio\2022\Professional\VC\Tools\MSVC\14.44.35207\include\utility
; File C:\Program Files\Microsoft Visual Studio\2022\Professional\VC\Tools\MSVC\14.44.35207\include\xmemory
; File C:\Program Files\Microsoft Visual Studio\2022\Professional\VC\Tools\MSVC\14.44.35207\include\xtree
; File C:\Program Files\Microsoft Visual Studio\2022\Professional\VC\Tools\MSVC\14.44.35207\include\utility
; File C:\Program Files\Microsoft Visual Studio\2022\Professional\VC\Tools\MSVC\14.44.35207\include\map
; File C:\Program Files\Microsoft Visual Studio\2022\Professional\VC\Tools\MSVC\14.44.35207\include\xtree
; File C:\Program Files\Microsoft Visual Studio\2022\Professional\VC\Tools\MSVC\14.44.35207\include\map
;	COMDAT ??$insert@U?$pair@HPAU__TAXINFO@@@std@@$0A@@?$map@EPAU__TAXINFO@@U?$less@E@std@@V?$allocator@U?$pair@$$CBEPAU__TAXINFO@@@std@@@3@@std@@QAE?AU?$pair@V?$_Tree_iterator@V?$_Tree_val@U?$_Tree_simple_types@U?$pair@$$CBEPAU__TAXINFO@@@std@@@std@@@std@@@std@@_N@1@$$QAU?$pair@HPAU__TAXINFO@@@1@@Z
_TEXT	SEGMENT
$T3 = -44						; size = 12
__Loc$4 = -32						; size = 12
__Newnode$5 = -20					; size = 8
__$EHRec$ = -12						; size = 12
___$ReturnUdt$ = 8					; size = 4
__Val$ = 12						; size = 4
tv694 = 15						; size = 1
??$insert@U?$pair@HPAU__TAXINFO@@@std@@$0A@@?$map@EPAU__TAXINFO@@U?$less@E@std@@V?$allocator@U?$pair@$$CBEPAU__TAXINFO@@@std@@@3@@std@@QAE?AU?$pair@V?$_Tree_iterator@V?$_Tree_val@U?$_Tree_simple_types@U?$pair@$$CBEPAU__TAXINFO@@@std@@@std@@@std@@@std@@_N@1@$$QAU?$pair@HPAU__TAXINFO@@@1@@Z PROC ; std::map<unsigned char,__TAXINFO *,std::less<unsigned char>,std::allocator<std::pair<unsigned char const ,__TAXINFO *> > >::insert<std::pair<int,__TAXINFO *>,0>, COMDAT
; _this$ = ecx

; 185  :     pair<iterator, bool> insert(_Valty&& _Val) {

  00000	55		 push	 ebp
  00001	8b ec		 mov	 ebp, esp
  00003	6a ff		 push	 -1
  00005	68 00 00 00 00	 push	 __ehhandler$??$insert@U?$pair@HPAU__TAXINFO@@@std@@$0A@@?$map@EPAU__TAXINFO@@U?$less@E@std@@V?$allocator@U?$pair@$$CBEPAU__TAXINFO@@@std@@@3@@std@@QAE?AU?$pair@V?$_Tree_iterator@V?$_Tree_val@U?$_Tree_simple_types@U?$pair@$$CBEPAU__TAXINFO@@@std@@@std@@@std@@@std@@_N@1@$$QAU?$pair@HPAU__TAXINFO@@@1@@Z
  0000a	64 a1 00 00 00
	00		 mov	 eax, DWORD PTR fs:0
  00010	50		 push	 eax
  00011	83 ec 20	 sub	 esp, 32			; 00000020H
  00014	53		 push	 ebx
  00015	56		 push	 esi
  00016	57		 push	 edi
  00017	a1 00 00 00 00	 mov	 eax, DWORD PTR ___security_cookie
  0001c	33 c5		 xor	 eax, ebp
  0001e	50		 push	 eax
  0001f	8d 45 f4	 lea	 eax, DWORD PTR __$EHRec$[ebp]
  00022	64 a3 00 00 00
	00		 mov	 DWORD PTR fs:0, eax
  00028	8b d9		 mov	 ebx, ecx
; File C:\Program Files\Microsoft Visual Studio\2022\Professional\VC\Tools\MSVC\14.44.35207\include\xtree

; 1026 :             _Tree_temp_node<_Alnode> _Newnode(_Getal(), _Scary->_Myhead, _STD forward<_Valtys>(_Vals)...);

  0002a	8b 33		 mov	 esi, DWORD PTR [ebx]
; File C:\Program Files\Microsoft Visual Studio\2022\Professional\VC\Tools\MSVC\14.44.35207\include\xmemory

; 1160 :     _CONSTEXPR20 explicit _Alloc_construct_ptr(_Alloc& _Al_) : _Al(_Al_), _Ptr(nullptr) {}

  0002c	89 5d ec	 mov	 DWORD PTR __Newnode$5[ebp], ebx

; 136  :         return ::operator new(_Bytes);

  0002f	6a 18		 push	 24			; 00000018H
; File C:\Program Files\Microsoft Visual Studio\2022\Professional\VC\Tools\MSVC\14.44.35207\include\xtree

; 808  :     explicit _Tree_temp_node_alloc(_Alnode& _Al_) : _Alloc_construct_ptr<_Alnode>(_Al_) {

  00031	c7 45 fc 00 00
	00 00		 mov	 DWORD PTR __$EHRec$[ebp+8], 0
; File C:\Program Files\Microsoft Visual Studio\2022\Professional\VC\Tools\MSVC\14.44.35207\include\xmemory

; 1167 :         _Ptr = nullptr; // if allocate throws, prevents double-free

  00038	c7 45 f0 00 00
	00 00		 mov	 DWORD PTR __Newnode$5[ebp+4], 0

; 136  :         return ::operator new(_Bytes);

  0003f	e8 00 00 00 00	 call	 ??2@YAPAXI@Z		; operator new
; File C:\Program Files\Microsoft Visual Studio\2022\Professional\VC\Tools\MSVC\14.44.35207\include\utility

; 303  :         : first(_STD forward<_Other1>(_Right.first)), second(_STD forward<_Other2>(_Right.second)) {}

  00044	8b 4d 0c	 mov	 ecx, DWORD PTR __Val$[ebp]
; File C:\Program Files\Microsoft Visual Studio\2022\Professional\VC\Tools\MSVC\14.44.35207\include\xmemory

; 256  :         return _Traits::_Allocate(_Bytes);

  00047	8b f8		 mov	 edi, eax
; File C:\Program Files\Microsoft Visual Studio\2022\Professional\VC\Tools\MSVC\14.44.35207\include\xtree

; 830  :         _Alnode_traits::construct(this->_Al, _STD addressof(this->_Ptr->_Myval), _STD forward<_Valtys>(_Vals)...);

  00049	8d 57 10	 lea	 edx, DWORD PTR [edi+16]
; File C:\Program Files\Microsoft Visual Studio\2022\Professional\VC\Tools\MSVC\14.44.35207\include\xmemory

; 1168 :         _Ptr = _Al.allocate(1);

  0004c	89 7d f0	 mov	 DWORD PTR __Newnode$5[ebp+4], edi

; 136  :         return ::operator new(_Bytes);

  0004f	83 c4 04	 add	 esp, 4
; File C:\Program Files\Microsoft Visual Studio\2022\Professional\VC\Tools\MSVC\14.44.35207\include\utility

; 303  :         : first(_STD forward<_Other1>(_Right.first)), second(_STD forward<_Other2>(_Right.second)) {}

  00052	8a 01		 mov	 al, BYTE PTR [ecx]
  00054	88 02		 mov	 BYTE PTR [edx], al
  00056	8b 49 04	 mov	 ecx, DWORD PTR [ecx+4]
  00059	89 4a 04	 mov	 DWORD PTR [edx+4], ecx
; File C:\Program Files\Microsoft Visual Studio\2022\Professional\VC\Tools\MSVC\14.44.35207\include\xtree

; 831  :         _Construct_in_place(this->_Ptr->_Left, _Myhead);

  0005c	89 37		 mov	 DWORD PTR [edi], esi

; 832  :         _Construct_in_place(this->_Ptr->_Parent, _Myhead);

  0005e	89 77 04	 mov	 DWORD PTR [edi+4], esi

; 833  :         _Construct_in_place(this->_Ptr->_Right, _Myhead);

  00061	89 77 08	 mov	 DWORD PTR [edi+8], esi
; File C:\Program Files\Microsoft Visual Studio\2022\Professional\VC\Tools\MSVC\14.44.35207\include\utility

; 303  :         : first(_STD forward<_Other1>(_Right.first)), second(_STD forward<_Other2>(_Right.second)) {}

  00064	88 45 0f	 mov	 BYTE PTR tv694[ebp], al
; File C:\Program Files\Microsoft Visual Studio\2022\Professional\VC\Tools\MSVC\14.44.35207\include\xtree

; 834  :         this->_Ptr->_Color = _Red;

  00067	66 c7 47 0c 00
	00		 mov	 WORD PTR [edi+12], 0

; 1031 :                 _Loc = _Find_lower_bound(_Keyval);

  0006d	52		 push	 edx
  0006e	8d 45 d4	 lea	 eax, DWORD PTR $T3[ebp]
  00071	c7 45 fc 01 00
	00 00		 mov	 DWORD PTR __$EHRec$[ebp+8], 1
  00078	50		 push	 eax
  00079	8b cb		 mov	 ecx, ebx
  0007b	e8 00 00 00 00	 call	 ??$_Find_lower_bound@E@?$_Tree@V?$_Tmap_traits@EPAU__TAXINFO@@U?$less@E@std@@V?$allocator@U?$pair@$$CBEPAU__TAXINFO@@@std@@@3@$0A@@std@@@std@@IBE?AU?$_Tree_find_result@PAU?$_Tree_node@U?$pair@$$CBEPAU__TAXINFO@@@std@@PAX@std@@@1@ABE@Z ; std::_Tree<std::_Tmap_traits<unsigned char,__TAXINFO *,std::less<unsigned char>,std::allocator<std::pair<unsigned char const ,__TAXINFO *> >,0> >::_Find_lower_bound<unsigned char>
  00080	8b 70 08	 mov	 esi, DWORD PTR [eax+8]
  00083	f3 0f 7e 00	 movq	 xmm0, QWORD PTR [eax]
  00087	66 0f d6 45 e0	 movq	 QWORD PTR __Loc$4[ebp], xmm0

; 1624 :         return !_Bound->_Isnil && !_DEBUG_LT_PRED(_Getcomp(), _Keyval, _Traits::_Kfn(_Bound->_Myval));

  0008c	80 7e 0d 00	 cmp	 BYTE PTR [esi+13], 0
  00090	75 17		 jne	 SHORT $LN6@insert
; File C:\Program Files\Microsoft Visual Studio\2022\Professional\VC\Tools\MSVC\14.44.35207\include\type_traits

; 2380 :         return _Left < _Right;

  00092	8a 45 0f	 mov	 al, BYTE PTR tv694[ebp]
  00095	3a 46 10	 cmp	 al, BYTE PTR [esi+16]
; File C:\Program Files\Microsoft Visual Studio\2022\Professional\VC\Tools\MSVC\14.44.35207\include\xtree

; 1624 :         return !_Bound->_Isnil && !_DEBUG_LT_PRED(_Getcomp(), _Keyval, _Traits::_Kfn(_Bound->_Myval));

  00098	72 0f		 jb	 SHORT $LN6@insert
; File C:\Program Files\Microsoft Visual Studio\2022\Professional\VC\Tools\MSVC\14.44.35207\include\xmemory

; 289  :         ::operator delete(_Ptr, _Bytes);

  0009a	6a 18		 push	 24			; 00000018H
  0009c	57		 push	 edi
; File C:\Program Files\Microsoft Visual Studio\2022\Professional\VC\Tools\MSVC\14.44.35207\include\utility

; 274  :         : first(_STD forward<_Other1>(_Val1)), second(_STD forward<_Other2>(_Val2)) {

  0009d	32 db		 xor	 bl, bl
; File C:\Program Files\Microsoft Visual Studio\2022\Professional\VC\Tools\MSVC\14.44.35207\include\xmemory

; 289  :         ::operator delete(_Ptr, _Bytes);

  0009f	e8 00 00 00 00	 call	 ??3@YAXPAXI@Z		; operator delete
  000a4	83 c4 08	 add	 esp, 8
; File C:\Program Files\Microsoft Visual Studio\2022\Professional\VC\Tools\MSVC\14.44.35207\include\xtree

; 1033 :                     return {_Loc._Bound, false};

  000a7	eb 1b		 jmp	 SHORT $LN122@insert
$LN6@insert:

; 1648 :         if (max_size() == _Get_scary()->_Mysize) {

  000a9	81 7b 04 aa aa
	aa 0a		 cmp	 DWORD PTR [ebx+4], 178956970 ; 0aaaaaaaH
  000b0	74 2e		 je	 SHORT $LN142@insert

; 1042 :         return {_Scary->_Insert_node(_Loc._Location, _Inserted), true};

  000b2	57		 push	 edi
  000b3	ff 75 e4	 push	 DWORD PTR __Loc$4[ebp+4]
  000b6	8b cb		 mov	 ecx, ebx
  000b8	ff 75 e0	 push	 DWORD PTR __Loc$4[ebp]
  000bb	e8 00 00 00 00	 call	 ?_Insert_node@?$_Tree_val@U?$_Tree_simple_types@U?$pair@$$CBEPAU__TAXINFO@@@std@@@std@@@std@@QAEPAU?$_Tree_node@U?$pair@$$CBEPAU__TAXINFO@@@std@@PAX@2@U?$_Tree_id@PAU?$_Tree_node@U?$pair@$$CBEPAU__TAXINFO@@@std@@PAX@std@@@2@QAU32@@Z ; std::_Tree_val<std::_Tree_simple_types<std::pair<unsigned char const ,__TAXINFO *> > >::_Insert_node
; File C:\Program Files\Microsoft Visual Studio\2022\Professional\VC\Tools\MSVC\14.44.35207\include\utility

; 274  :         : first(_STD forward<_Other1>(_Val1)), second(_STD forward<_Other2>(_Val2)) {

  000c0	8b f0		 mov	 esi, eax
  000c2	b3 01		 mov	 bl, 1
$LN122@insert:
  000c4	8b 45 08	 mov	 eax, DWORD PTR ___$ReturnUdt$[ebp]
  000c7	89 30		 mov	 DWORD PTR [eax], esi
  000c9	88 58 04	 mov	 BYTE PTR [eax+4], bl
; File C:\Program Files\Microsoft Visual Studio\2022\Professional\VC\Tools\MSVC\14.44.35207\include\map

; 187  :     }

  000cc	8b 4d f4	 mov	 ecx, DWORD PTR __$EHRec$[ebp]
  000cf	64 89 0d 00 00
	00 00		 mov	 DWORD PTR fs:0, ecx
  000d6	59		 pop	 ecx
  000d7	5f		 pop	 edi
  000d8	5e		 pop	 esi
  000d9	5b		 pop	 ebx
  000da	8b e5		 mov	 esp, ebp
  000dc	5d		 pop	 ebp
  000dd	c2 08 00	 ret	 8
$LN142@insert:
; File C:\Program Files\Microsoft Visual Studio\2022\Professional\VC\Tools\MSVC\14.44.35207\include\xtree

; 1649 :             _Throw_tree_length_error();

  000e0	e8 00 00 00 00	 call	 ?_Throw_tree_length_error@std@@YAXXZ ; std::_Throw_tree_length_error
$LN140@insert:
  000e5	cc		 int	 3
_TEXT	ENDS
;	COMDAT text$x
text$x	SEGMENT
__unwindfunclet$??$insert@U?$pair@HPAU__TAXINFO@@@std@@$0A@@?$map@EPAU__TAXINFO@@U?$less@E@std@@V?$allocator@U?$pair@$$CBEPAU__TAXINFO@@@std@@@3@@std@@QAE?AU?$pair@V?$_Tree_iterator@V?$_Tree_val@U?$_Tree_simple_types@U?$pair@$$CBEPAU__TAXINFO@@@std@@@std@@@std@@@std@@_N@1@$$QAU?$pair@HPAU__TAXINFO@@@1@@Z$2:
  00000	8d 4d ec	 lea	 ecx, DWORD PTR __Newnode$5[ebp]
  00003	e9 00 00 00 00	 jmp	 ??1?$_Alloc_construct_ptr@V?$allocator@U?$_Tree_node@U?$pair@$$CBEPAU__TAXINFO@@@std@@PAX@std@@@std@@@std@@QAE@XZ ; std::_Alloc_construct_ptr<std::allocator<std::_Tree_node<std::pair<unsigned char const ,__TAXINFO *>,void *> > >::~_Alloc_construct_ptr<std::allocator<std::_Tree_node<std::pair<unsigned char const ,__TAXINFO *>,void *> > >
__unwindfunclet$??$insert@U?$pair@HPAU__TAXINFO@@@std@@$0A@@?$map@EPAU__TAXINFO@@U?$less@E@std@@V?$allocator@U?$pair@$$CBEPAU__TAXINFO@@@std@@@3@@std@@QAE?AU?$pair@V?$_Tree_iterator@V?$_Tree_val@U?$_Tree_simple_types@U?$pair@$$CBEPAU__TAXINFO@@@std@@@std@@@std@@@std@@_N@1@$$QAU?$pair@HPAU__TAXINFO@@@1@@Z$0:
  00008	8d 4d ec	 lea	 ecx, DWORD PTR __Newnode$5[ebp]
  0000b	e9 00 00 00 00	 jmp	 ??1?$_Tree_temp_node@V?$allocator@U?$_Tree_node@U?$pair@$$CBEPAU__TAXINFO@@@std@@PAX@std@@@std@@@std@@QAE@XZ ; std::_Tree_temp_node<std::allocator<std::_Tree_node<std::pair<unsigned char const ,__TAXINFO *>,void *> > >::~_Tree_temp_node<std::allocator<std::_Tree_node<std::pair<unsigned char const ,__TAXINFO *>,void *> > >
  00010	cc		 int	 3
  00011	cc		 int	 3
  00012	cc		 int	 3
  00013	cc		 int	 3
  00014	cc		 int	 3
__ehhandler$??$insert@U?$pair@HPAU__TAXINFO@@@std@@$0A@@?$map@EPAU__TAXINFO@@U?$less@E@std@@V?$allocator@U?$pair@$$CBEPAU__TAXINFO@@@std@@@3@@std@@QAE?AU?$pair@V?$_Tree_iterator@V?$_Tree_val@U?$_Tree_simple_types@U?$pair@$$CBEPAU__TAXINFO@@@std@@@std@@@std@@@std@@_N@1@$$QAU?$pair@HPAU__TAXINFO@@@1@@Z:
  00015	90		 npad	 1
  00016	90		 npad	 1
  00017	8b 54 24 08	 mov	 edx, DWORD PTR [esp+8]
  0001b	8d 42 0c	 lea	 eax, DWORD PTR [edx+12]
  0001e	8b 4a d0	 mov	 ecx, DWORD PTR [edx-48]
  00021	33 c8		 xor	 ecx, eax
  00023	e8 00 00 00 00	 call	 @__security_check_cookie@4
  00028	b8 00 00 00 00	 mov	 eax, OFFSET __ehfuncinfo$??$insert@U?$pair@HPAU__TAXINFO@@@std@@$0A@@?$map@EPAU__TAXINFO@@U?$less@E@std@@V?$allocator@U?$pair@$$CBEPAU__TAXINFO@@@std@@@3@@std@@QAE?AU?$pair@V?$_Tree_iterator@V?$_Tree_val@U?$_Tree_simple_types@U?$pair@$$CBEPAU__TAXINFO@@@std@@@std@@@std@@@std@@_N@1@$$QAU?$pair@HPAU__TAXINFO@@@1@@Z
  0002d	e9 00 00 00 00	 jmp	 ___CxxFrameHandler3
text$x	ENDS
??$insert@U?$pair@HPAU__TAXINFO@@@std@@$0A@@?$map@EPAU__TAXINFO@@U?$less@E@std@@V?$allocator@U?$pair@$$CBEPAU__TAXINFO@@@std@@@3@@std@@QAE?AU?$pair@V?$_Tree_iterator@V?$_Tree_val@U?$_Tree_simple_types@U?$pair@$$CBEPAU__TAXINFO@@@std@@@std@@@std@@@std@@_N@1@$$QAU?$pair@HPAU__TAXINFO@@@1@@Z ENDP ; std::map<unsigned char,__TAXINFO *,std::less<unsigned char>,std::allocator<std::pair<unsigned char const ,__TAXINFO *> > >::insert<std::pair<int,__TAXINFO *>,0>
; Function compile flags: /Ogtp
; File C:\IAGOS\server\v18\Source\Source\_Network\Misc\Include\ar.h
;	COMDAT ??$?5K@CAr@@QAEAAV0@AAK@Z
_TEXT	SEGMENT
_t$ = 8							; size = 4
??$?5K@CAr@@QAEAAV0@AAK@Z PROC				; CAr::operator>><unsigned long>, COMDAT
; _this$ = ecx

; 302  : {

  00000	55		 push	 ebp
  00001	8b ec		 mov	 ebp, esp
  00003	8b d1		 mov	 edx, ecx

; 303  : 	if (m_lpBufCur + sizeof(T) <= m_lpBufMax)

  00005	8b 4a 08	 mov	 ecx, DWORD PTR [edx+8]
  00008	8d 41 04	 lea	 eax, DWORD PTR [ecx+4]
  0000b	3b 42 0c	 cmp	 eax, DWORD PTR [edx+12]
  0000e	8b 45 08	 mov	 eax, DWORD PTR _t$[ebp]
  00011	77 0e		 ja	 SHORT $LN2@operator

; 304  : 	{
; 305  : 		t = *(UNALIGNED T*)m_lpBufCur;

  00013	8b 09		 mov	 ecx, DWORD PTR [ecx]
  00015	89 08		 mov	 DWORD PTR [eax], ecx

; 312  : 	}
; 313  : 	return *this;
; 314  : }

  00017	8b c2		 mov	 eax, edx
  00019	83 42 08 04	 add	 DWORD PTR [edx+8], 4
  0001d	5d		 pop	 ebp
  0001e	c2 04 00	 ret	 4
$LN2@operator:

; 306  : 		m_lpBufCur += sizeof(T);
; 307  : 	}
; 308  : 	else
; 309  : 	{
; 310  : 		t = T();

  00021	c7 00 00 00 00
	00		 mov	 DWORD PTR [eax], 0

; 311  : 		m_lpBufCur = m_lpBufMax;

  00027	8b 42 0c	 mov	 eax, DWORD PTR [edx+12]
  0002a	89 42 08	 mov	 DWORD PTR [edx+8], eax

; 312  : 	}
; 313  : 	return *this;
; 314  : }

  0002d	8b c2		 mov	 eax, edx
  0002f	5d		 pop	 ebp
  00030	c2 04 00	 ret	 4
??$?5K@CAr@@QAEAAV0@AAK@Z ENDP				; CAr::operator>><unsigned long>
_TEXT	ENDS
; Function compile flags: /Ogtp
; File C:\IAGOS\server\v18\Source\Source\_Network\Misc\Include\ar.h
;	COMDAT ??$?6K@CAr@@QAEAAV0@ABK@Z
_TEXT	SEGMENT
_t$ = 8							; size = 4
??$?6K@CAr@@QAEAAV0@ABK@Z PROC				; CAr::operator<<<unsigned long>, COMDAT
; _this$ = ecx

; 255  : {

  00000	55		 push	 ebp
  00001	8b ec		 mov	 ebp, esp
  00003	56		 push	 esi

; 256  : 	CheckBuf(sizeof(T));

  00004	6a 04		 push	 4
  00006	8b f1		 mov	 esi, ecx
  00008	e8 00 00 00 00	 call	 ?CheckBuf@CAr@@QAEXI@Z	; CAr::CheckBuf

; 257  : 	*(UNALIGNED T*)m_lpBufCur = t;

  0000d	8b 56 08	 mov	 edx, DWORD PTR [esi+8]
  00010	8b 45 08	 mov	 eax, DWORD PTR _t$[ebp]
  00013	8b 00		 mov	 eax, DWORD PTR [eax]
  00015	89 02		 mov	 DWORD PTR [edx], eax

; 258  : 	m_lpBufCur += sizeof(T);
; 259  : 	return *this;

  00017	8b c6		 mov	 eax, esi
  00019	83 46 08 04	 add	 DWORD PTR [esi+8], 4
  0001d	5e		 pop	 esi

; 260  : }

  0001e	5d		 pop	 ebp
  0001f	c2 04 00	 ret	 4
??$?6K@CAr@@QAEAAV0@ABK@Z ENDP				; CAr::operator<<<unsigned long>
_TEXT	ENDS
; Function compile flags: /Ogtp
; File C:\IAGOS\server\v18\Source\Source\_Network\Misc\Include\ar.h
;	COMDAT ??$?6I@CAr@@QAEAAV0@ABI@Z
_TEXT	SEGMENT
_t$ = 8							; size = 4
??$?6I@CAr@@QAEAAV0@ABI@Z PROC				; CAr::operator<<<unsigned int>, COMDAT
; _this$ = ecx

; 255  : {

  00000	55		 push	 ebp
  00001	8b ec		 mov	 ebp, esp
  00003	56		 push	 esi

; 256  : 	CheckBuf(sizeof(T));

  00004	6a 04		 push	 4
  00006	8b f1		 mov	 esi, ecx
  00008	e8 00 00 00 00	 call	 ?CheckBuf@CAr@@QAEXI@Z	; CAr::CheckBuf

; 257  : 	*(UNALIGNED T*)m_lpBufCur = t;

  0000d	8b 56 08	 mov	 edx, DWORD PTR [esi+8]
  00010	8b 45 08	 mov	 eax, DWORD PTR _t$[ebp]
  00013	8b 00		 mov	 eax, DWORD PTR [eax]
  00015	89 02		 mov	 DWORD PTR [edx], eax

; 258  : 	m_lpBufCur += sizeof(T);
; 259  : 	return *this;

  00017	8b c6		 mov	 eax, esi
  00019	83 46 08 04	 add	 DWORD PTR [esi+8], 4
  0001d	5e		 pop	 esi

; 260  : }

  0001e	5d		 pop	 ebp
  0001f	c2 04 00	 ret	 4
??$?6I@CAr@@QAEAAV0@ABI@Z ENDP				; CAr::operator<<<unsigned int>
_TEXT	ENDS
; Function compile flags: /Ogtp
; File C:\IAGOS\server\v18\Source\Source\_Network\Misc\Include\ar.h
;	COMDAT ??$?5H@CAr@@QAEAAV0@AAH@Z
_TEXT	SEGMENT
_t$ = 8							; size = 4
??$?5H@CAr@@QAEAAV0@AAH@Z PROC				; CAr::operator>><int>, COMDAT
; _this$ = ecx

; 302  : {

  00000	55		 push	 ebp
  00001	8b ec		 mov	 ebp, esp
  00003	8b d1		 mov	 edx, ecx

; 303  : 	if (m_lpBufCur + sizeof(T) <= m_lpBufMax)

  00005	8b 4a 08	 mov	 ecx, DWORD PTR [edx+8]
  00008	8d 41 04	 lea	 eax, DWORD PTR [ecx+4]
  0000b	3b 42 0c	 cmp	 eax, DWORD PTR [edx+12]
  0000e	8b 45 08	 mov	 eax, DWORD PTR _t$[ebp]
  00011	77 0e		 ja	 SHORT $LN2@operator

; 304  : 	{
; 305  : 		t = *(UNALIGNED T*)m_lpBufCur;

  00013	8b 09		 mov	 ecx, DWORD PTR [ecx]
  00015	89 08		 mov	 DWORD PTR [eax], ecx

; 312  : 	}
; 313  : 	return *this;
; 314  : }

  00017	8b c2		 mov	 eax, edx
  00019	83 42 08 04	 add	 DWORD PTR [edx+8], 4
  0001d	5d		 pop	 ebp
  0001e	c2 04 00	 ret	 4
$LN2@operator:

; 306  : 		m_lpBufCur += sizeof(T);
; 307  : 	}
; 308  : 	else
; 309  : 	{
; 310  : 		t = T();

  00021	c7 00 00 00 00
	00		 mov	 DWORD PTR [eax], 0

; 311  : 		m_lpBufCur = m_lpBufMax;

  00027	8b 42 0c	 mov	 eax, DWORD PTR [edx+12]
  0002a	89 42 08	 mov	 DWORD PTR [edx+8], eax

; 312  : 	}
; 313  : 	return *this;
; 314  : }

  0002d	8b c2		 mov	 eax, edx
  0002f	5d		 pop	 ebp
  00030	c2 04 00	 ret	 4
??$?5H@CAr@@QAEAAV0@AAH@Z ENDP				; CAr::operator>><int>
_TEXT	ENDS
; Function compile flags: /Ogtp
; File C:\IAGOS\server\v18\Source\Source\_Network\Misc\Include\ar.h
;	COMDAT ??$?6H@CAr@@QAEAAV0@ABH@Z
_TEXT	SEGMENT
_t$ = 8							; size = 4
??$?6H@CAr@@QAEAAV0@ABH@Z PROC				; CAr::operator<<<int>, COMDAT
; _this$ = ecx

; 255  : {

  00000	55		 push	 ebp
  00001	8b ec		 mov	 ebp, esp
  00003	56		 push	 esi

; 256  : 	CheckBuf(sizeof(T));

  00004	6a 04		 push	 4
  00006	8b f1		 mov	 esi, ecx
  00008	e8 00 00 00 00	 call	 ?CheckBuf@CAr@@QAEXI@Z	; CAr::CheckBuf

; 257  : 	*(UNALIGNED T*)m_lpBufCur = t;

  0000d	8b 56 08	 mov	 edx, DWORD PTR [esi+8]
  00010	8b 45 08	 mov	 eax, DWORD PTR _t$[ebp]
  00013	8b 00		 mov	 eax, DWORD PTR [eax]
  00015	89 02		 mov	 DWORD PTR [edx], eax

; 258  : 	m_lpBufCur += sizeof(T);
; 259  : 	return *this;

  00017	8b c6		 mov	 eax, esi
  00019	83 46 08 04	 add	 DWORD PTR [esi+8], 4
  0001d	5e		 pop	 esi

; 260  : }

  0001e	5d		 pop	 ebp
  0001f	c2 04 00	 ret	 4
??$?6H@CAr@@QAEAAV0@ABH@Z ENDP				; CAr::operator<<<int>
_TEXT	ENDS
; Function compile flags: /Ogtp
; File C:\IAGOS\server\v18\Source\Source\_Common\Tax.cpp
; File C:\Program Files\Microsoft Visual Studio\2022\Professional\VC\Tools\MSVC\14.44.35207\include\vector
; File C:\IAGOS\server\v18\Source\Source\_Common\Tax.cpp
; File C:\Program Files\Microsoft Visual Studio\2022\Professional\VC\Tools\MSVC\14.44.35207\include\vector
; File C:\IAGOS\server\v18\Source\Source\_Common\Tax.cpp
;	COMDAT ?IsOccupationShopItem@CTax@@QAEHK@Z
_TEXT	SEGMENT
_dwItemId$ = 8						; size = 4
?IsOccupationShopItem@CTax@@QAEHK@Z PROC		; CTax::IsOccupationShopItem, COMDAT
; _this$ = ecx

; 529  : {

  00000	55		 push	 ebp
  00001	8b ec		 mov	 ebp, esp
; File C:\Program Files\Microsoft Visual Studio\2022\Professional\VC\Tools\MSVC\14.44.35207\include\vector

; 1915 :         return static_cast<size_type>(_My_data._Mylast - _My_data._Myfirst);

  00003	8b 41 10	 mov	 eax, DWORD PTR [ecx+16]
; File C:\IAGOS\server\v18\Source\Source\_Common\Tax.cpp

; 530  : 	for( size_t i=0; i<m_vecdwOccupationShopItem.size(); i++ )

  00006	33 d2		 xor	 edx, edx
; File C:\Program Files\Microsoft Visual Studio\2022\Professional\VC\Tools\MSVC\14.44.35207\include\vector

; 1915 :         return static_cast<size_type>(_My_data._Mylast - _My_data._Myfirst);

  00008	8b 49 14	 mov	 ecx, DWORD PTR [ecx+20]
  0000b	2b c8		 sub	 ecx, eax
  0000d	c1 f9 02	 sar	 ecx, 2
; File C:\IAGOS\server\v18\Source\Source\_Common\Tax.cpp

; 529  : {

  00010	56		 push	 esi

; 530  : 	for( size_t i=0; i<m_vecdwOccupationShopItem.size(); i++ )

  00011	85 c9		 test	 ecx, ecx
  00013	74 0f		 je	 SHORT $LN3@IsOccupati
  00015	8b 75 08	 mov	 esi, DWORD PTR _dwItemId$[ebp]
$LL4@IsOccupati:

; 531  : 	{
; 532  : 		if( m_vecdwOccupationShopItem[i] == dwItemId )

  00018	39 30		 cmp	 DWORD PTR [eax], esi
  0001a	74 0f		 je	 SHORT $LN14@IsOccupati

; 530  : 	for( size_t i=0; i<m_vecdwOccupationShopItem.size(); i++ )

  0001c	42		 inc	 edx
  0001d	83 c0 04	 add	 eax, 4
  00020	3b d1		 cmp	 edx, ecx
  00022	72 f4		 jb	 SHORT $LL4@IsOccupati
$LN3@IsOccupati:

; 534  : 	}
; 535  : 	
; 536  : 	return FALSE;

  00024	33 c0		 xor	 eax, eax
  00026	5e		 pop	 esi

; 537  : }

  00027	5d		 pop	 ebp
  00028	c2 04 00	 ret	 4
$LN14@IsOccupati:

; 533  : 			return TRUE;

  0002b	b8 01 00 00 00	 mov	 eax, 1
  00030	5e		 pop	 esi

; 537  : }

  00031	5d		 pop	 ebp
  00032	c2 04 00	 ret	 4
?IsOccupationShopItem@CTax@@QAEHK@Z ENDP		; CTax::IsOccupationShopItem
_TEXT	ENDS
; Function compile flags: /Ogtp
; File C:\IAGOS\server\v18\Source\Source\_Common\Tax.cpp
;	COMDAT ?IsOccupationGuildMember@CTax@@QAEHPAVCMover@@@Z
_TEXT	SEGMENT
_pMover$ = 8						; size = 4
?IsOccupationGuildMember@CTax@@QAEHPAVCMover@@@Z PROC	; CTax::IsOccupationGuildMember, COMDAT
; _this$ = ecx

; 517  : {

  00000	55		 push	 ebp
  00001	8b ec		 mov	 ebp, esp
  00003	56		 push	 esi

; 518  : 	if( GetContinent( pMover ) == CONT_NODATA )

  00004	8b 75 08	 mov	 esi, DWORD PTR _pMover$[ebp]
  00007	57		 push	 edi
  00008	56		 push	 esi
  00009	8b f9		 mov	 edi, ecx
  0000b	e8 00 00 00 00	 call	 ?GetContinent@CTax@@QAEEPAVCMover@@@Z ; CTax::GetContinent
  00010	84 c0		 test	 al, al
  00012	74 2a		 je	 SHORT $LN3@IsOccupati

; 519  : 		return FALSE;
; 520  : 
; 521  : 	__TAXINFO* pTaxInfo = GetTaxInfo( GetContinent( pMover ) );

  00014	56		 push	 esi
  00015	8b cf		 mov	 ecx, edi
  00017	e8 00 00 00 00	 call	 ?GetContinent@CTax@@QAEEPAVCMover@@@Z ; CTax::GetContinent
  0001c	0f b6 c0	 movzx	 eax, al
  0001f	8b cf		 mov	 ecx, edi
  00021	50		 push	 eax
  00022	e8 00 00 00 00	 call	 ?GetTaxInfo@CTax@@QAEPAU__TAXINFO@@E@Z ; CTax::GetTaxInfo

; 522  : 	if( pTaxInfo && pTaxInfo->dwId == pMover->m_idGuild )

  00027	85 c0		 test	 eax, eax
  00029	74 13		 je	 SHORT $LN3@IsOccupati
  0002b	8b 08		 mov	 ecx, DWORD PTR [eax]
  0002d	33 c0		 xor	 eax, eax
  0002f	3b 8e 14 07 00
	00		 cmp	 ecx, DWORD PTR [esi+1812]
  00035	5f		 pop	 edi
  00036	0f 94 c0	 sete	 al

; 526  : }

  00039	5e		 pop	 esi
  0003a	5d		 pop	 ebp
  0003b	c2 04 00	 ret	 4
$LN3@IsOccupati:
  0003e	5f		 pop	 edi

; 523  : 		return TRUE;
; 524  : 
; 525  : 	return FALSE;

  0003f	33 c0		 xor	 eax, eax

; 526  : }

  00041	5e		 pop	 esi
  00042	5d		 pop	 ebp
  00043	c2 04 00	 ret	 4
?IsOccupationGuildMember@CTax@@QAEHPAVCMover@@@Z ENDP	; CTax::IsOccupationGuildMember
_TEXT	ENDS
; Function compile flags: /Ogtp
; File C:\IAGOS\server\v18\Source\Source\_Common\Tax.cpp
;	COMDAT ?IsApplyTaxRate@CTax@@QAEHPAVCMover@@PAVCItemElem@@@Z
_TEXT	SEGMENT
_pMover$ = 8						; size = 4
_pItemElem$ = 12					; size = 4
?IsApplyTaxRate@CTax@@QAEHPAVCMover@@PAVCItemElem@@@Z PROC ; CTax::IsApplyTaxRate, COMDAT
; _this$ = ecx

; 143  : {

  00000	55		 push	 ebp
  00001	8b ec		 mov	 ebp, esp
  00003	57		 push	 edi

; 144  : 	if( !CContinent::IsValidObj( pMover ) || GetContinent( pMover ) == CONT_NODATA || !pItemElem )

  00004	ff 75 08	 push	 DWORD PTR _pMover$[ebp]
  00007	8b f9		 mov	 edi, ecx
  00009	e8 00 00 00 00	 call	 ?IsValidObj@CContinent@@SAHPAVCMover@@@Z ; CContinent::IsValidObj
  0000e	83 c4 04	 add	 esp, 4
  00011	85 c0		 test	 eax, eax
  00013	74 40		 je	 SHORT $LN5@IsApplyTax
  00015	ff 75 08	 push	 DWORD PTR _pMover$[ebp]
  00018	8b cf		 mov	 ecx, edi
  0001a	e8 00 00 00 00	 call	 ?GetContinent@CTax@@QAEEPAVCMover@@@Z ; CTax::GetContinent
  0001f	84 c0		 test	 al, al
  00021	74 32		 je	 SHORT $LN5@IsApplyTax
  00023	8b 45 0c	 mov	 eax, DWORD PTR _pItemElem$[ebp]
  00026	85 c0		 test	 eax, eax
  00028	74 2b		 je	 SHORT $LN5@IsApplyTax

; 146  : 
; 147  : 	//if( pItemElem->GetProp()->dwItemKind3 == IK3_SCROLL )
; 148  : 	//	return FALSE;
; 149  : 	
; 150  : 	switch( pItemElem->m_dwItemId )

  0002a	8b 40 0c	 mov	 eax, DWORD PTR [eax+12]
  0002d	3d 5c 67 00 00	 cmp	 eax, 26460		; 0000675cH
  00032	77 10		 ja	 SHORT $LN11@IsApplyTax
  00034	74 1f		 je	 SHORT $LN5@IsApplyTax
  00036	3d 38 4e 00 00	 cmp	 eax, 20024		; 00004e38H
  0003b	74 18		 je	 SHORT $LN5@IsApplyTax
  0003d	3d 58 67 00 00	 cmp	 eax, 26456		; 00006758H
  00042	eb 05		 jmp	 SHORT $LN18@IsApplyTax
$LN11@IsApplyTax:
  00044	3d 5d 67 00 00	 cmp	 eax, 26461		; 0000675dH
$LN18@IsApplyTax:

; 151  : 	{
; 152  : 		case II_SYS_SYS_SCR_PERIN :			// Ćä¸°
; 153  : 		case II_CHP_RED :					// ·ąµĺÄ¨
; 154  : 		case II_SYS_SYS_SCR_AWAKE :			// °˘ĽşŔÇ µÎ·ç¸¶¸®
; 155  : 		case II_SYS_SYS_SCR_PETAWAKE :		// ¸®ľîĆę °˘ĽşŔÇ µÎ·ç¸¶¸®
; 156  : 			return FALSE;
; 157  : 	}
; 158  : 
; 159  : 	return TRUE;

  00049	74 0a		 je	 SHORT $LN5@IsApplyTax
  0004b	b8 01 00 00 00	 mov	 eax, 1
  00050	5f		 pop	 edi

; 160  : }

  00051	5d		 pop	 ebp
  00052	c2 08 00	 ret	 8
$LN5@IsApplyTax:

; 145  : 		return FALSE;

  00055	33 c0		 xor	 eax, eax
  00057	5f		 pop	 edi

; 160  : }

  00058	5d		 pop	 ebp
  00059	c2 08 00	 ret	 8
?IsApplyTaxRate@CTax@@QAEHPAVCMover@@PAVCItemElem@@@Z ENDP ; CTax::IsApplyTaxRate
_TEXT	ENDS
; Function compile flags: /Ogtp
; File C:\IAGOS\server\v18\Source\Source\_Common\Tax.cpp
;	COMDAT ?GetPurchaseTaxRate@CTax@@QAEMPAVCMover@@@Z
_TEXT	SEGMENT
_pMover$ = 8						; size = 4
_nContinent$ = 8					; size = 1
?GetPurchaseTaxRate@CTax@@QAEMPAVCMover@@@Z PROC	; CTax::GetPurchaseTaxRate, COMDAT
; _this$ = ecx

; 135  : {

  00000	55		 push	 ebp
  00001	8b ec		 mov	 ebp, esp
  00003	56		 push	 esi

; 136  : 	BYTE nContinent = GetContinent( pMover );

  00004	ff 75 08	 push	 DWORD PTR _pMover$[ebp]
  00007	8b f1		 mov	 esi, ecx
  00009	e8 00 00 00 00	 call	 ?GetContinent@CTax@@QAEEPAVCMover@@@Z ; CTax::GetContinent
  0000e	88 45 08	 mov	 BYTE PTR _nContinent$[ebp], al

; 137  : 
; 138  : 	return GetPurchaseTaxRate( nContinent );

  00011	8b ce		 mov	 ecx, esi
  00013	ff 75 08	 push	 DWORD PTR _nContinent$[ebp]
  00016	e8 00 00 00 00	 call	 ?GetPurchaseTaxRate@CTax@@QAEME@Z ; CTax::GetPurchaseTaxRate
  0001b	5e		 pop	 esi

; 139  : }

  0001c	5d		 pop	 ebp
  0001d	c2 04 00	 ret	 4
?GetPurchaseTaxRate@CTax@@QAEMPAVCMover@@@Z ENDP	; CTax::GetPurchaseTaxRate
_TEXT	ENDS
; Function compile flags: /Ogtp
; File C:\IAGOS\server\v18\Source\Source\_Common\Tax.cpp
; File C:\Program Files\Microsoft Visual Studio\2022\Professional\VC\Tools\MSVC\14.44.35207\include\xtree
; File C:\Program Files\Microsoft Visual Studio\2022\Professional\VC\Tools\MSVC\14.44.35207\include\type_traits
; File C:\Program Files\Microsoft Visual Studio\2022\Professional\VC\Tools\MSVC\14.44.35207\include\xtree
; File C:\IAGOS\server\v18\Source\Source\_Common\Tax.cpp
;	COMDAT ?GetPurchaseTaxRate@CTax@@QAEME@Z
_TEXT	SEGMENT
__Loc$1 = -12						; size = 12
_nContinent$ = 8					; size = 1
tv226 = 8						; size = 4
$T2 = 11						; size = 1
?GetPurchaseTaxRate@CTax@@QAEME@Z PROC			; CTax::GetPurchaseTaxRate, COMDAT
; _this$ = ecx

; 122  : {

  00000	55		 push	 ebp
  00001	8b ec		 mov	 ebp, esp

; 123  : 	if( nContinent == CONT_NODATA )

  00003	8b 45 08	 mov	 eax, DWORD PTR _nContinent$[ebp]
  00006	83 ec 0c	 sub	 esp, 12			; 0000000cH
  00009	84 c0		 test	 al, al
  0000b	74 5b		 je	 SHORT $LN36@GetPurchas

; 124  : 		return 0.0f;
; 125  : 
; 126  : 	__TAXINFO* taxInfo = GetTaxInfo( nContinent );

  0000d	50		 push	 eax
  0000e	e8 00 00 00 00	 call	 ?GetTaxInfo@CTax@@QAEPAU__TAXINFO@@E@Z ; CTax::GetTaxInfo

; 127  : 	if( !taxInfo )

  00013	85 c0		 test	 eax, eax
  00015	74 51		 je	 SHORT $LN36@GetPurchas

; 130  : 	int nTaxRate = taxInfo->mapTaxDetail.find( TAX_PURCHASE )->second->nTaxRate;

  00017	56		 push	 esi
  00018	8d 70 08	 lea	 esi, DWORD PTR [eax+8]
  0001b	c6 45 0b 01	 mov	 BYTE PTR $T2[ebp], 1
; File C:\Program Files\Microsoft Visual Studio\2022\Professional\VC\Tools\MSVC\14.44.35207\include\xtree

; 1384 :         const _Tree_find_result<_Nodeptr> _Loc = _Find_lower_bound(_Keyval);

  0001f	8d 45 0b	 lea	 eax, DWORD PTR $T2[ebp]
  00022	8b ce		 mov	 ecx, esi
  00024	50		 push	 eax
  00025	8d 45 f4	 lea	 eax, DWORD PTR __Loc$1[ebp]
  00028	50		 push	 eax
  00029	e8 00 00 00 00	 call	 ??$_Find_lower_bound@E@?$_Tree@V?$_Tmap_traits@EPAU__TAXDETAIL@@U?$less@E@std@@V?$allocator@U?$pair@$$CBEPAU__TAXDETAIL@@@std@@@3@$0A@@std@@@std@@IBE?AU?$_Tree_find_result@PAU?$_Tree_node@U?$pair@$$CBEPAU__TAXDETAIL@@@std@@PAX@std@@@1@ABE@Z ; std::_Tree<std::_Tmap_traits<unsigned char,__TAXDETAIL *,std::less<unsigned char>,std::allocator<std::pair<unsigned char const ,__TAXDETAIL *> >,0> >::_Find_lower_bound<unsigned char>

; 1624 :         return !_Bound->_Isnil && !_DEBUG_LT_PRED(_Getcomp(), _Keyval, _Traits::_Kfn(_Bound->_Myval));

  0002e	8b 45 fc	 mov	 eax, DWORD PTR __Loc$1[ebp+8]
  00031	80 78 0d 00	 cmp	 BYTE PTR [eax+13], 0
  00035	75 06		 jne	 SHORT $LN8@GetPurchas
; File C:\Program Files\Microsoft Visual Studio\2022\Professional\VC\Tools\MSVC\14.44.35207\include\type_traits

; 2380 :         return _Left < _Right;

  00037	80 78 10 01	 cmp	 BYTE PTR [eax+16], 1
; File C:\Program Files\Microsoft Visual Studio\2022\Professional\VC\Tools\MSVC\14.44.35207\include\xtree

; 1624 :         return !_Bound->_Isnil && !_DEBUG_LT_PRED(_Getcomp(), _Keyval, _Traits::_Kfn(_Bound->_Myval));

  0003b	76 02		 jbe	 SHORT $LN7@GetPurchas
$LN8@GetPurchas:

; 1389 :         return _Get_scary()->_Myhead;

  0003d	8b 06		 mov	 eax, DWORD PTR [esi]
$LN7@GetPurchas:
; File C:\IAGOS\server\v18\Source\Source\_Common\Tax.cpp

; 130  : 	int nTaxRate = taxInfo->mapTaxDetail.find( TAX_PURCHASE )->second->nTaxRate;

  0003f	8b 40 14	 mov	 eax, DWORD PTR [eax+20]

; 131  : 	return static_cast<float>(nTaxRate) * 0.1f * 0.1f;

  00042	5e		 pop	 esi
  00043	66 0f 6e 08	 movd	 xmm1, DWORD PTR [eax]
  00047	0f 5b c9	 cvtdq2ps xmm1, xmm1
  0004a	f3 0f 59 0d 00
	00 00 00	 mulss	 xmm1, DWORD PTR __real@3dcccccd
  00052	f3 0f 59 0d 00
	00 00 00	 mulss	 xmm1, DWORD PTR __real@3dcccccd
  0005a	f3 0f 11 4d 08	 movss	 DWORD PTR tv226[ebp], xmm1
  0005f	d9 45 08	 fld	 DWORD PTR tv226[ebp]

; 132  : }

  00062	8b e5		 mov	 esp, ebp
  00064	5d		 pop	 ebp
  00065	c2 04 00	 ret	 4
$LN36@GetPurchas:

; 128  : 		return 0.0f;

  00068	d9 ee		 fldz

; 132  : }

  0006a	8b e5		 mov	 esp, ebp
  0006c	5d		 pop	 ebp
  0006d	c2 04 00	 ret	 4
?GetPurchaseTaxRate@CTax@@QAEME@Z ENDP			; CTax::GetPurchaseTaxRate
_TEXT	ENDS
; Function compile flags: /Ogtp
; File C:\IAGOS\server\v18\Source\Source\_Common\Tax.cpp
;	COMDAT ?GetSalesTaxRate@CTax@@QAEMPAVCMover@@@Z
_TEXT	SEGMENT
_pMover$ = 8						; size = 4
_nContinent$ = 8					; size = 1
?GetSalesTaxRate@CTax@@QAEMPAVCMover@@@Z PROC		; CTax::GetSalesTaxRate, COMDAT
; _this$ = ecx

; 115  : {

  00000	55		 push	 ebp
  00001	8b ec		 mov	 ebp, esp
  00003	56		 push	 esi

; 116  : 	BYTE nContinent = GetContinent( pMover );

  00004	ff 75 08	 push	 DWORD PTR _pMover$[ebp]
  00007	8b f1		 mov	 esi, ecx
  00009	e8 00 00 00 00	 call	 ?GetContinent@CTax@@QAEEPAVCMover@@@Z ; CTax::GetContinent
  0000e	88 45 08	 mov	 BYTE PTR _nContinent$[ebp], al

; 117  : 
; 118  : 	return GetSalesTaxRate( nContinent );

  00011	8b ce		 mov	 ecx, esi
  00013	ff 75 08	 push	 DWORD PTR _nContinent$[ebp]
  00016	e8 00 00 00 00	 call	 ?GetSalesTaxRate@CTax@@QAEME@Z ; CTax::GetSalesTaxRate
  0001b	5e		 pop	 esi

; 119  : }

  0001c	5d		 pop	 ebp
  0001d	c2 04 00	 ret	 4
?GetSalesTaxRate@CTax@@QAEMPAVCMover@@@Z ENDP		; CTax::GetSalesTaxRate
_TEXT	ENDS
; Function compile flags: /Ogtp
; File C:\IAGOS\server\v18\Source\Source\_Common\Tax.cpp
; File C:\Program Files\Microsoft Visual Studio\2022\Professional\VC\Tools\MSVC\14.44.35207\include\xtree
; File C:\Program Files\Microsoft Visual Studio\2022\Professional\VC\Tools\MSVC\14.44.35207\include\type_traits
; File C:\Program Files\Microsoft Visual Studio\2022\Professional\VC\Tools\MSVC\14.44.35207\include\xtree
; File C:\IAGOS\server\v18\Source\Source\_Common\Tax.cpp
;	COMDAT ?GetSalesTaxRate@CTax@@QAEME@Z
_TEXT	SEGMENT
__Loc$1 = -12						; size = 12
_nContinent$ = 8					; size = 1
tv226 = 8						; size = 4
$T2 = 11						; size = 1
?GetSalesTaxRate@CTax@@QAEME@Z PROC			; CTax::GetSalesTaxRate, COMDAT
; _this$ = ecx

; 102  : {

  00000	55		 push	 ebp
  00001	8b ec		 mov	 ebp, esp

; 103  : 	if( nContinent == CONT_NODATA )

  00003	8b 45 08	 mov	 eax, DWORD PTR _nContinent$[ebp]
  00006	83 ec 0c	 sub	 esp, 12			; 0000000cH
  00009	84 c0		 test	 al, al
  0000b	74 5b		 je	 SHORT $LN36@GetSalesTa

; 104  : 		return 0.0f;
; 105  : 
; 106  : 	__TAXINFO* taxInfo = GetTaxInfo( nContinent );

  0000d	50		 push	 eax
  0000e	e8 00 00 00 00	 call	 ?GetTaxInfo@CTax@@QAEPAU__TAXINFO@@E@Z ; CTax::GetTaxInfo

; 107  : 	if( !taxInfo )

  00013	85 c0		 test	 eax, eax
  00015	74 51		 je	 SHORT $LN36@GetSalesTa

; 110  : 	int nTaxRate = taxInfo->mapTaxDetail.find( TAX_SALES )->second->nTaxRate;

  00017	56		 push	 esi
  00018	8d 70 08	 lea	 esi, DWORD PTR [eax+8]
  0001b	c6 45 0b 00	 mov	 BYTE PTR $T2[ebp], 0
; File C:\Program Files\Microsoft Visual Studio\2022\Professional\VC\Tools\MSVC\14.44.35207\include\xtree

; 1384 :         const _Tree_find_result<_Nodeptr> _Loc = _Find_lower_bound(_Keyval);

  0001f	8d 45 0b	 lea	 eax, DWORD PTR $T2[ebp]
  00022	8b ce		 mov	 ecx, esi
  00024	50		 push	 eax
  00025	8d 45 f4	 lea	 eax, DWORD PTR __Loc$1[ebp]
  00028	50		 push	 eax
  00029	e8 00 00 00 00	 call	 ??$_Find_lower_bound@E@?$_Tree@V?$_Tmap_traits@EPAU__TAXDETAIL@@U?$less@E@std@@V?$allocator@U?$pair@$$CBEPAU__TAXDETAIL@@@std@@@3@$0A@@std@@@std@@IBE?AU?$_Tree_find_result@PAU?$_Tree_node@U?$pair@$$CBEPAU__TAXDETAIL@@@std@@PAX@std@@@1@ABE@Z ; std::_Tree<std::_Tmap_traits<unsigned char,__TAXDETAIL *,std::less<unsigned char>,std::allocator<std::pair<unsigned char const ,__TAXDETAIL *> >,0> >::_Find_lower_bound<unsigned char>

; 1624 :         return !_Bound->_Isnil && !_DEBUG_LT_PRED(_Getcomp(), _Keyval, _Traits::_Kfn(_Bound->_Myval));

  0002e	8b 45 fc	 mov	 eax, DWORD PTR __Loc$1[ebp+8]
  00031	80 78 0d 00	 cmp	 BYTE PTR [eax+13], 0
  00035	75 06		 jne	 SHORT $LN8@GetSalesTa
; File C:\Program Files\Microsoft Visual Studio\2022\Professional\VC\Tools\MSVC\14.44.35207\include\type_traits

; 2380 :         return _Left < _Right;

  00037	80 78 10 00	 cmp	 BYTE PTR [eax+16], 0
; File C:\Program Files\Microsoft Visual Studio\2022\Professional\VC\Tools\MSVC\14.44.35207\include\xtree

; 1624 :         return !_Bound->_Isnil && !_DEBUG_LT_PRED(_Getcomp(), _Keyval, _Traits::_Kfn(_Bound->_Myval));

  0003b	76 02		 jbe	 SHORT $LN7@GetSalesTa
$LN8@GetSalesTa:

; 1389 :         return _Get_scary()->_Myhead;

  0003d	8b 06		 mov	 eax, DWORD PTR [esi]
$LN7@GetSalesTa:
; File C:\IAGOS\server\v18\Source\Source\_Common\Tax.cpp

; 110  : 	int nTaxRate = taxInfo->mapTaxDetail.find( TAX_SALES )->second->nTaxRate;

  0003f	8b 40 14	 mov	 eax, DWORD PTR [eax+20]

; 111  : 	return static_cast<float>(nTaxRate) * 0.1f * 0.1f;

  00042	5e		 pop	 esi
  00043	66 0f 6e 08	 movd	 xmm1, DWORD PTR [eax]
  00047	0f 5b c9	 cvtdq2ps xmm1, xmm1
  0004a	f3 0f 59 0d 00
	00 00 00	 mulss	 xmm1, DWORD PTR __real@3dcccccd
  00052	f3 0f 59 0d 00
	00 00 00	 mulss	 xmm1, DWORD PTR __real@3dcccccd
  0005a	f3 0f 11 4d 08	 movss	 DWORD PTR tv226[ebp], xmm1
  0005f	d9 45 08	 fld	 DWORD PTR tv226[ebp]

; 112  : }

  00062	8b e5		 mov	 esp, ebp
  00064	5d		 pop	 ebp
  00065	c2 04 00	 ret	 4
$LN36@GetSalesTa:

; 108  : 		return 0.0f;

  00068	d9 ee		 fldz

; 112  : }

  0006a	8b e5		 mov	 esp, ebp
  0006c	5d		 pop	 ebp
  0006d	c2 04 00	 ret	 4
?GetSalesTaxRate@CTax@@QAEME@Z ENDP			; CTax::GetSalesTaxRate
_TEXT	ENDS
; Function compile flags: /Ogtp
; File C:\IAGOS\server\v18\Source\Source\_Common\Tax.cpp
;	COMDAT ?GetContinent@CTax@@QAEEPAVCMover@@@Z
_TEXT	SEGMENT
_pMover$ = 8						; size = 4
?GetContinent@CTax@@QAEEPAVCMover@@@Z PROC		; CTax::GetContinent, COMDAT
; _this$ = ecx

; 97   : {

  00000	55		 push	 ebp
  00001	8b ec		 mov	 ebp, esp

; 98   : 	return CContinent::GetInstance()->GetArea( pMover );

  00003	ff 75 08	 push	 DWORD PTR _pMover$[ebp]
  00006	e8 00 00 00 00	 call	 ?GetInstance@CContinent@@SAPAV1@XZ ; CContinent::GetInstance
  0000b	8b c8		 mov	 ecx, eax
  0000d	e8 00 00 00 00	 call	 ?GetArea@CContinent@@QAEEPAVCMover@@@Z ; CContinent::GetArea

; 99   : }

  00012	5d		 pop	 ebp
  00013	c2 04 00	 ret	 4
?GetContinent@CTax@@QAEEPAVCMover@@@Z ENDP		; CTax::GetContinent
_TEXT	ENDS
; Function compile flags: /Ogtp
; File C:\IAGOS\server\v18\Source\Source\_Common\Tax.cpp
; File C:\Program Files\Microsoft Visual Studio\2022\Professional\VC\Tools\MSVC\14.44.35207\include\xtree
; File C:\IAGOS\server\v18\Source\Source\_Common\Tax.cpp
; File C:\IAGOS\server\v18\Source\Source\_Common\guild.h
; File C:\IAGOS\server\v18\Source\Source\_Common\Tax.cpp
; File C:\Program Files\Microsoft Visual Studio\2022\Professional\VC\Tools\MSVC\14.44.35207\include\xtree
; File C:\IAGOS\server\v18\Source\Source\_Common\Tax.cpp
;	COMDAT ?SendNoSetTaxRateOpenWnd@CTax@@QAEXPAVCUser@@@Z
_TEXT	SEGMENT
_pUser$ = 8						; size = 4
?SendNoSetTaxRateOpenWnd@CTax@@QAEXPAVCUser@@@Z PROC	; CTax::SendNoSetTaxRateOpenWnd, COMDAT
; _this$ = ecx

; 499  : {

  00000	55		 push	 ebp
  00001	8b ec		 mov	 ebp, esp
  00003	56		 push	 esi
  00004	8b f1		 mov	 esi, ecx

; 500  : 	CGuild* pGuild = pUser->GetGuild();

  00006	8b 4d 08	 mov	 ecx, DWORD PTR _pUser$[ebp]
  00009	57		 push	 edi
  0000a	e8 00 00 00 00	 call	 ?GetGuild@CMover@@QAEPAVCGuild@@XZ ; CMover::GetGuild
  0000f	8b f8		 mov	 edi, eax

; 501  : 	if( pGuild )

  00011	85 ff		 test	 edi, edi
  00013	0f 84 87 00 00
	00		 je	 $LN101@SendNoSetT
; File C:\Program Files\Microsoft Visual Studio\2022\Professional\VC\Tools\MSVC\14.44.35207\include\xtree

; 1142 :         return iterator(_Scary->_Myhead->_Left, _Scary);

  00019	8b 76 08	 mov	 esi, DWORD PTR [esi+8]

; 37   :     _Tree_unchecked_const_iterator(_Nodeptr _Pnode, const _Mytree* _Plist) noexcept : _Ptr(_Pnode) {

  0001c	8b 0e		 mov	 ecx, DWORD PTR [esi]

; 237  :         return !(*this == _Right);

  0001e	3b ce		 cmp	 ecx, esi
; File C:\IAGOS\server\v18\Source\Source\_Common\Tax.cpp

; 503  : 		for( TAXINFOMAP::iterator it=m_mapTaxInfo.begin(); it!=m_mapTaxInfo.end(); it++ )

  00020	0f 84 7a 00 00
	00		 je	 $LN101@SendNoSetT
  00026	53		 push	 ebx
$LL4@SendNoSetT:

; 506  : 				&& !it->second->bSetTaxRate && pGuild->IsMaster( pUser->m_idPlayer ) )

  00027	8a 59 10	 mov	 bl, BYTE PTR [ecx+16]
  0002a	80 fb ff	 cmp	 bl, 255			; 000000ffH
  0002d	74 1f		 je	 SHORT $LN2@SendNoSetT
  0002f	8b 51 14	 mov	 edx, DWORD PTR [ecx+20]
  00032	8b 42 10	 mov	 eax, DWORD PTR [edx+16]
  00035	3b 47 04	 cmp	 eax, DWORD PTR [edi+4]
  00038	75 14		 jne	 SHORT $LN2@SendNoSetT
  0003a	83 7a 04 00	 cmp	 DWORD PTR [edx+4], 0
  0003e	75 0e		 jne	 SHORT $LN2@SendNoSetT
; File C:\IAGOS\server\v18\Source\Source\_Common\guild.h

; 309  : 	BOOL	IsMaster( u_long idPlayer )	{	return( m_idMaster == idPlayer );	}

  00040	8b 55 08	 mov	 edx, DWORD PTR _pUser$[ebp]
  00043	8b 47 40	 mov	 eax, DWORD PTR [edi+64]
  00046	3b 82 34 02 00
	00		 cmp	 eax, DWORD PTR [edx+564]
; File C:\IAGOS\server\v18\Source\Source\_Common\Tax.cpp

; 506  : 				&& !it->second->bSetTaxRate && pGuild->IsMaster( pUser->m_idPlayer ) )

  0004c	74 49		 je	 SHORT $LN97@SendNoSetT
$LN2@SendNoSetT:
; File C:\Program Files\Microsoft Visual Studio\2022\Professional\VC\Tools\MSVC\14.44.35207\include\xtree

; 50   :         if (_Ptr->_Right->_Isnil) { // climb looking for right subtree

  0004e	8b 41 08	 mov	 eax, DWORD PTR [ecx+8]
  00051	80 78 0d 00	 cmp	 BYTE PTR [eax+13], 0
  00055	74 1d		 je	 SHORT $LN29@SendNoSetT

; 51   :             _Nodeptr _Pnode;
; 52   :             while (!(_Pnode = _Ptr->_Parent)->_Isnil && _Ptr == _Pnode->_Right) {

  00057	8b 41 04	 mov	 eax, DWORD PTR [ecx+4]
  0005a	80 78 0d 00	 cmp	 BYTE PTR [eax+13], 0
  0005e	75 10		 jne	 SHORT $LN108@SendNoSetT
$LL27@SendNoSetT:
  00060	3b 48 08	 cmp	 ecx, DWORD PTR [eax+8]
  00063	75 0b		 jne	 SHORT $LN108@SendNoSetT

; 53   :                 _Ptr = _Pnode; // ==> parent while right subtree

  00065	8b c8		 mov	 ecx, eax
  00067	8b 40 04	 mov	 eax, DWORD PTR [eax+4]
  0006a	80 78 0d 00	 cmp	 BYTE PTR [eax+13], 0
  0006e	74 f0		 je	 SHORT $LL27@SendNoSetT
$LN108@SendNoSetT:

; 54   :             }
; 55   : 
; 56   :             _Ptr = _Pnode; // ==> parent (head if end())

  00070	8b c8		 mov	 ecx, eax

; 57   :         } else {

  00072	eb 18		 jmp	 SHORT $LN35@SendNoSetT
$LN29@SendNoSetT:

; 58   :             _Ptr = _Mytree::_Min(_Ptr->_Right); // ==> smallest of right subtree

  00074	8b c8		 mov	 ecx, eax

; 476  :         while (!_Pnode->_Left->_Isnil) {

  00076	8b 11		 mov	 edx, DWORD PTR [ecx]
  00078	80 7a 0d 00	 cmp	 BYTE PTR [edx+13], 0
  0007c	75 0e		 jne	 SHORT $LN35@SendNoSetT
  0007e	66 90		 npad	 2
$LL34@SendNoSetT:
  00080	8b 02		 mov	 eax, DWORD PTR [edx]

; 477  :             _Pnode = _Pnode->_Left;

  00082	8b ca		 mov	 ecx, edx
  00084	8b d0		 mov	 edx, eax
  00086	80 78 0d 00	 cmp	 BYTE PTR [eax+13], 0
  0008a	74 f4		 je	 SHORT $LL34@SendNoSetT
$LN35@SendNoSetT:

; 237  :         return !(*this == _Right);

  0008c	3b ce		 cmp	 ecx, esi
; File C:\IAGOS\server\v18\Source\Source\_Common\Tax.cpp

; 503  : 		for( TAXINFOMAP::iterator it=m_mapTaxInfo.begin(); it!=m_mapTaxInfo.end(); it++ )

  0008e	75 97		 jne	 SHORT $LL4@SendNoSetT

; 509  : 				return;
; 510  : 			}
; 511  : 		}
; 512  : 	}
; 513  : }

  00090	5b		 pop	 ebx
  00091	5f		 pop	 edi
  00092	5e		 pop	 esi
  00093	5d		 pop	 ebp
  00094	c2 04 00	 ret	 4
$LN97@SendNoSetT:

; 507  : 			{
; 508  : 				pUser->AddTaxSetTaxRateOpenWnd( it->first );

  00097	53		 push	 ebx
  00098	8b ca		 mov	 ecx, edx
  0009a	e8 00 00 00 00	 call	 ?AddTaxSetTaxRateOpenWnd@CUser@@QAEXE@Z ; CUser::AddTaxSetTaxRateOpenWnd
  0009f	5b		 pop	 ebx
$LN101@SendNoSetT:

; 509  : 				return;
; 510  : 			}
; 511  : 		}
; 512  : 	}
; 513  : }

  000a0	5f		 pop	 edi
  000a1	5e		 pop	 esi
  000a2	5d		 pop	 ebp
  000a3	c2 04 00	 ret	 4
?SendNoSetTaxRateOpenWnd@CTax@@QAEXPAVCUser@@@Z ENDP	; CTax::SendNoSetTaxRateOpenWnd
_TEXT	ENDS
; Function compile flags: /Ogtp
; File C:\IAGOS\server\v18\Source\Source\_Common\Tax.cpp
; File C:\Program Files\Microsoft Visual Studio\2022\Professional\VC\Tools\MSVC\14.44.35207\include\xtree
; File C:\Program Files\Microsoft Visual Studio\2022\Professional\VC\Tools\MSVC\14.44.35207\include\type_traits
; File C:\Program Files\Microsoft Visual Studio\2022\Professional\VC\Tools\MSVC\14.44.35207\include\xtree
; File C:\Program Files\Microsoft Visual Studio\2022\Professional\VC\Tools\MSVC\14.44.35207\include\type_traits
; File C:\Program Files\Microsoft Visual Studio\2022\Professional\VC\Tools\MSVC\14.44.35207\include\xtree
; File C:\IAGOS\server\v18\Source\Source\_Common\Project.h
; File C:\IAGOS\server\v18\Source\Source\_Common\Obj.h
; File C:\IAGOS\server\v18\Source\Source\_Common\Tax.cpp
;	COMDAT ?SendSetTaxRateOpenWnd@CTax@@QAEXEK@Z
_TEXT	SEGMENT
_nCont$ = 8						; size = 1
_dwGuildId$ = 12					; size = 4
?SendSetTaxRateOpenWnd@CTax@@QAEXEK@Z PROC		; CTax::SendSetTaxRateOpenWnd, COMDAT
; _this$ = ecx

; 488  : {

  00000	55		 push	 ebp
  00001	8b ec		 mov	 ebp, esp

; 489  : 	CGuild* pGuild = g_GuildMng.GetGuild( dwGuildId );

  00003	ff 75 0c	 push	 DWORD PTR _dwGuildId$[ebp]
  00006	b9 00 00 00 00	 mov	 ecx, OFFSET ?g_GuildMng@@3VCGuildMng@@A ; g_GuildMng
  0000b	e8 00 00 00 00	 call	 ?GetGuild@CGuildMng@@QAEPAVCGuild@@K@Z ; CGuildMng::GetGuild

; 490  : 	if( pGuild )

  00010	85 c0		 test	 eax, eax
  00012	74 57		 je	 SHORT $LN3@SendSetTax

; 491  : 	{
; 492  : 		CUser* pUserTemp = (CUser*)prj.GetUserByID( pGuild->m_idMaster );

  00014	8b 50 40	 mov	 edx, DWORD PTR [eax+64]
  00017	56		 push	 esi
; File C:\Program Files\Microsoft Visual Studio\2022\Professional\VC\Tools\MSVC\14.44.35207\include\xtree

; 1630 :         _Tree_find_result<_Nodeptr> _Result{{_Scary->_Myhead->_Parent, _Tree_child::_Right}, _Scary->_Myhead};

  00018	8b 35 28 00 00
	00		 mov	 esi, DWORD PTR ?prj@@3VCProject@@A+40
  0001e	8b ce		 mov	 ecx, esi
  00020	8b 46 04	 mov	 eax, DWORD PTR [esi+4]

; 1631 :         _Nodeptr _Trynode = _Result._Location._Parent;
; 1632 :         while (!_Trynode->_Isnil) {

  00023	80 78 0d 00	 cmp	 BYTE PTR [eax+13], 0
  00027	75 1b		 jne	 SHORT $LN15@SendSetTax
  00029	0f 1f 80 00 00
	00 00		 npad	 7
$LL14@SendSetTax:
; File C:\Program Files\Microsoft Visual Studio\2022\Professional\VC\Tools\MSVC\14.44.35207\include\type_traits

; 2380 :         return _Left < _Right;

  00030	39 50 10	 cmp	 DWORD PTR [eax+16], edx
; File C:\Program Files\Microsoft Visual Studio\2022\Professional\VC\Tools\MSVC\14.44.35207\include\xtree

; 1634 :             if (_DEBUG_LT_PRED(_Getcomp(), _Traits::_Kfn(_Trynode->_Myval), _Keyval)) {

  00033	73 05		 jae	 SHORT $LN16@SendSetTax

; 1635 :                 _Result._Location._Child = _Tree_child::_Right;
; 1636 :                 _Trynode                 = _Trynode->_Right;

  00035	8b 40 08	 mov	 eax, DWORD PTR [eax+8]

; 1637 :             } else {

  00038	eb 04		 jmp	 SHORT $LN17@SendSetTax
$LN16@SendSetTax:

; 1638 :                 _Result._Location._Child = _Tree_child::_Left;
; 1639 :                 _Result._Bound           = _Trynode;

  0003a	8b c8		 mov	 ecx, eax

; 1640 :                 _Trynode                 = _Trynode->_Left;

  0003c	8b 00		 mov	 eax, DWORD PTR [eax]
$LN17@SendSetTax:

; 1631 :         _Nodeptr _Trynode = _Result._Location._Parent;
; 1632 :         while (!_Trynode->_Isnil) {

  0003e	80 78 0d 00	 cmp	 BYTE PTR [eax+13], 0
  00042	74 ec		 je	 SHORT $LL14@SendSetTax
$LN15@SendSetTax:

; 1624 :         return !_Bound->_Isnil && !_DEBUG_LT_PRED(_Getcomp(), _Keyval, _Traits::_Kfn(_Bound->_Myval));

  00044	80 79 0d 00	 cmp	 BYTE PTR [ecx+13], 0
  00048	75 05		 jne	 SHORT $LN11@SendSetTax
; File C:\Program Files\Microsoft Visual Studio\2022\Professional\VC\Tools\MSVC\14.44.35207\include\type_traits

; 2380 :         return _Left < _Right;

  0004a	3b 51 10	 cmp	 edx, DWORD PTR [ecx+16]
; File C:\Program Files\Microsoft Visual Studio\2022\Professional\VC\Tools\MSVC\14.44.35207\include\xtree

; 1624 :         return !_Bound->_Isnil && !_DEBUG_LT_PRED(_Getcomp(), _Keyval, _Traits::_Kfn(_Bound->_Myval));

  0004d	73 02		 jae	 SHORT $LN10@SendSetTax
$LN11@SendSetTax:

; 1389 :         return _Get_scary()->_Myhead;

  0004f	8b ce		 mov	 ecx, esi
$LN10@SendSetTax:

; 37   :     _Tree_unchecked_const_iterator(_Nodeptr _Pnode, const _Mytree* _Plist) noexcept : _Ptr(_Pnode) {

  00051	3b ce		 cmp	 ecx, esi
  00053	5e		 pop	 esi
; File C:\IAGOS\server\v18\Source\Source\_Common\Project.h

; 1436 : 	if( i != m_idPlayerToUserPtr.end() )

  00054	74 15		 je	 SHORT $LN3@SendSetTax

; 1437 : 		return i->second;

  00056	8b 49 14	 mov	 ecx, DWORD PTR [ecx+20]
; File C:\IAGOS\server\v18\Source\Source\_Common\Obj.h

; 327  : 	return pObj && ( pObj->IsDelete() == FALSE ); 

  00059	85 c9		 test	 ecx, ecx
  0005b	74 0e		 je	 SHORT $LN3@SendSetTax

; 180  : 	BOOL			IsDelete()	{ return (m_dwFlags & OBJ_FLAG_DELETE);  }

  0005d	f6 41 04 01	 test	 BYTE PTR [ecx+4], 1

; 327  : 	return pObj && ( pObj->IsDelete() == FALSE ); 

  00061	75 08		 jne	 SHORT $LN3@SendSetTax
; File C:\IAGOS\server\v18\Source\Source\_Common\Tax.cpp

; 494  : 			pUserTemp->AddTaxSetTaxRateOpenWnd( nCont );

  00063	ff 75 08	 push	 DWORD PTR _nCont$[ebp]
  00066	e8 00 00 00 00	 call	 ?AddTaxSetTaxRateOpenWnd@CUser@@QAEXE@Z ; CUser::AddTaxSetTaxRateOpenWnd
$LN3@SendSetTax:

; 495  : 	}
; 496  : }

  0006b	5d		 pop	 ebp
  0006c	c2 08 00	 ret	 8
?SendSetTaxRateOpenWnd@CTax@@QAEXEK@Z ENDP		; CTax::SendSetTaxRateOpenWnd
_TEXT	ENDS
; Function compile flags: /Ogtp
; File C:\IAGOS\server\v18\Source\Source\_Common\Tax.cpp
;	COMDAT ?AddTax@CTax@@QAEHEHE@Z
_TEXT	SEGMENT
_nCont$ = 8						; size = 1
_nTax$ = 12						; size = 4
_nTaxKind$ = 16						; size = 1
?AddTax@CTax@@QAEHEHE@Z PROC				; CTax::AddTax, COMDAT
; _this$ = ecx

; 444  : {

  00000	55		 push	 ebp
  00001	8b ec		 mov	 ebp, esp

; 445  : 	BOOL bUpdateToDB = FALSE;
; 446  : #ifdef __WORLDSERVER
; 447  : 	g_dpDBClient.SendAddTax( nCont, nTax, nTaxKind );

  00003	ff 75 10	 push	 DWORD PTR _nTaxKind$[ebp]
  00006	b9 00 00 00 00	 mov	 ecx, OFFSET ?g_dpDBClient@@3VCDPDatabaseClient@@A ; g_dpDBClient
  0000b	ff 75 0c	 push	 DWORD PTR _nTax$[ebp]
  0000e	ff 75 08	 push	 DWORD PTR _nCont$[ebp]
  00011	e8 00 00 00 00	 call	 ?SendAddTax@CDPDatabaseClient@@QAEXEHE@Z ; CDPDatabaseClient::SendAddTax

; 448  : #endif // __WORLDSERVER
; 449  : 
; 450  : #ifdef __DBSERVER
; 451  : 	for( TAXINFOMAP::iterator it=m_mapTaxInfo.begin(); it!=m_mapTaxInfo.end(); it++ )
; 452  : 	{
; 453  : #if __VER >= 15 // __USING_CONTINENT_DATA
; 454  : 		if( it->first == CONT_ALL || it->first == nCont )
; 455  : #else // __USING_CONTINENT_DATA
; 456  : 		if( it->first & nCont )
; 457  : #endif // __USING_CONTINENT_DATA
; 458  : 		{
; 459  : 			__TAXINFO* taxInfo = GetTaxInfo( it->first );
; 460  : 			if( !taxInfo || taxInfo->dwId == NULL_ID )
; 461  : 				continue;
; 462  : 			if( taxInfo->mapTaxDetail.find( nTaxKind ) == taxInfo->mapTaxDetail.end() )
; 463  : 				continue;
; 464  : 
; 465  : 			__TAXDETAIL* taxDetail = taxInfo->mapTaxDetail.find( nTaxKind )->second;
; 466  : 			if( taxDetail )
; 467  : 			{
; 468  : 				taxDetail->nTaxCount++;
; 469  : 				taxDetail->nTaxGold += static_cast<int>( static_cast<float>(nTax) * GetEarningRate( nCont, nTaxKind ) );
; 470  : 				int nTaxTemp = taxDetail->nTaxGold;
; 471  : 				if( nTaxTemp >= 100000000 )
; 472  : 				{
; 473  : 					taxDetail->nTaxPerin += nTaxTemp/PERIN_VALUE;
; 474  : 					taxDetail->nTaxGold = nTaxTemp%PERIN_VALUE;
; 475  : 				}
; 476  : 				// m_nDBSaveCount°ÇŔĚ Ă¤żöÁöÁö ľĘŔ¸¸é DBżˇ ŔúŔĺÇĎÁö ľĘ´Â´Ů.
; 477  : 				if( (taxDetail->nTaxCount % m_nDBSaveCount) == 0 )
; 478  : 					bUpdateToDB = TRUE;
; 479  : 			}
; 480  : 		}
; 481  : 	}
; 482  : #endif // __DBSERVER
; 483  : 	return bUpdateToDB;

  00016	33 c0		 xor	 eax, eax

; 484  : }

  00018	5d		 pop	 ebp
  00019	c2 0c 00	 ret	 12			; 0000000cH
?AddTax@CTax@@QAEHEHE@Z ENDP				; CTax::AddTax
_TEXT	ENDS
; Function compile flags: /Ogtp
; File C:\IAGOS\server\v18\Source\Source\_Common\Tax.cpp
;	COMDAT ?SetApplyTaxRateNow@CTax@@QAEXXZ
_TEXT	SEGMENT
?SetApplyTaxRateNow@CTax@@QAEXXZ PROC			; CTax::SetApplyTaxRateNow, COMDAT
; _this$ = ecx

; 382  : #ifdef __WORLDSERVER
; 383  : 	g_dpDBClient.SendApplyTaxRateNow();

  00000	b9 00 00 00 00	 mov	 ecx, OFFSET ?g_dpDBClient@@3VCDPDatabaseClient@@A ; g_dpDBClient
  00005	e9 00 00 00 00	 jmp	 ?SendApplyTaxRateNow@CDPDatabaseClient@@QAEXXZ ; CDPDatabaseClient::SendApplyTaxRateNow
?SetApplyTaxRateNow@CTax@@QAEXXZ ENDP			; CTax::SetApplyTaxRateNow
_TEXT	ENDS
; Function compile flags: /Ogtp
; File C:\IAGOS\server\v18\Source\Source\_Common\Tax.cpp
;	COMDAT ?SetNextTaxRate@CTax@@QAEXEHH@Z
_TEXT	SEGMENT
_nCont$ = 8						; size = 1
_nSalesTaxRate$ = 12					; size = 4
_nPurchaseTaxRate$ = 16					; size = 4
?SetNextTaxRate@CTax@@QAEXEHH@Z PROC			; CTax::SetNextTaxRate, COMDAT
; _this$ = ecx

; 361  : {

  00000	55		 push	 ebp
  00001	8b ec		 mov	 ebp, esp

; 362  : #ifdef __WORLDSERVER
; 363  : 	if( nSalesTaxRate < m_nMinTaxRate || nSalesTaxRate > m_nMaxTaxRate
; 364  : 		|| nPurchaseTaxRate < m_nMinTaxRate || nPurchaseTaxRate > m_nMaxTaxRate )

  00003	8b 55 0c	 mov	 edx, DWORD PTR _nSalesTaxRate$[ebp]
  00006	56		 push	 esi
  00007	8b 31		 mov	 esi, DWORD PTR [ecx]
  00009	3b d6		 cmp	 edx, esi
  0000b	7c 24		 jl	 SHORT $LN3@SetNextTax
  0000d	8b 49 04	 mov	 ecx, DWORD PTR [ecx+4]
  00010	3b d1		 cmp	 edx, ecx
  00012	7f 1d		 jg	 SHORT $LN3@SetNextTax
  00014	8b 45 10	 mov	 eax, DWORD PTR _nPurchaseTaxRate$[ebp]
  00017	3b c6		 cmp	 eax, esi
  00019	7c 16		 jl	 SHORT $LN3@SetNextTax
  0001b	3b c1		 cmp	 eax, ecx
  0001d	7f 12		 jg	 SHORT $LN3@SetNextTax
  0001f	5e		 pop	 esi

; 365  : 		return;	// ĂÖĽŇ, ĂÖ´ë ąüŔ§ ąţľîłŞ¸é ±×łÉ ¸®ĹĎ...
; 366  : 
; 367  : 	g_dpDBClient.SendTaxRate( nCont, nSalesTaxRate, nPurchaseTaxRate );

  00020	89 45 10	 mov	 DWORD PTR _nPurchaseTaxRate$[ebp], eax
  00023	89 55 0c	 mov	 DWORD PTR _nSalesTaxRate$[ebp], edx
  00026	b9 00 00 00 00	 mov	 ecx, OFFSET ?g_dpDBClient@@3VCDPDatabaseClient@@A ; g_dpDBClient

; 368  : #endif // __WORLDSERVER
; 369  : #ifdef __DBSERVER
; 370  : 	__TAXINFO* taxInfo = GetTaxInfo( nCont );
; 371  : 	if( !taxInfo )
; 372  : 		return;
; 373  : 	
; 374  : 	taxInfo->bSetTaxRate = TRUE;
; 375  : 	taxInfo->mapTaxDetail.find( TAX_SALES )->second->nNextTaxRate = nSalesTaxRate;
; 376  : 	taxInfo->mapTaxDetail.find( TAX_PURCHASE )->second->nNextTaxRate = nPurchaseTaxRate;
; 377  : #endif // __DBSERVER
; 378  : }

  0002b	5d		 pop	 ebp

; 365  : 		return;	// ĂÖĽŇ, ĂÖ´ë ąüŔ§ ąţľîłŞ¸é ±×łÉ ¸®ĹĎ...
; 366  : 
; 367  : 	g_dpDBClient.SendTaxRate( nCont, nSalesTaxRate, nPurchaseTaxRate );

  0002c	e9 00 00 00 00	 jmp	 ?SendTaxRate@CDPDatabaseClient@@QAEXEHH@Z ; CDPDatabaseClient::SendTaxRate
$LN3@SetNextTax:
  00031	5e		 pop	 esi

; 368  : #endif // __WORLDSERVER
; 369  : #ifdef __DBSERVER
; 370  : 	__TAXINFO* taxInfo = GetTaxInfo( nCont );
; 371  : 	if( !taxInfo )
; 372  : 		return;
; 373  : 	
; 374  : 	taxInfo->bSetTaxRate = TRUE;
; 375  : 	taxInfo->mapTaxDetail.find( TAX_SALES )->second->nNextTaxRate = nSalesTaxRate;
; 376  : 	taxInfo->mapTaxDetail.find( TAX_PURCHASE )->second->nNextTaxRate = nPurchaseTaxRate;
; 377  : #endif // __DBSERVER
; 378  : }

  00032	5d		 pop	 ebp
  00033	c2 0c 00	 ret	 12			; 0000000cH
?SetNextTaxRate@CTax@@QAEXEHH@Z ENDP			; CTax::SetNextTaxRate
_TEXT	ENDS
; Function compile flags: /Ogtp
; File C:\IAGOS\server\v18\Source\Source\_Common\Tax.cpp
;	COMDAT ?SetNextLord@CTax@@QAEXK@Z
_TEXT	SEGMENT
_dwIdPlayer$ = 8					; size = 4
?SetNextLord@CTax@@QAEXK@Z PROC				; CTax::SetNextLord, COMDAT
; _this$ = ecx

; 342  : {

  00000	55		 push	 ebp
  00001	8b ec		 mov	 ebp, esp

; 343  : #ifdef __WORLDSERVER
; 344  : 	g_dpDBClient.SendLord( dwIdPlayer );

  00003	b9 00 00 00 00	 mov	 ecx, OFFSET ?g_dpDBClient@@3VCDPDatabaseClient@@A ; g_dpDBClient

; 345  : #endif // __WORLDSERVER
; 346  : 
; 347  : #ifdef __DBSERVER
; 348  : 	__TAXINFO* taxInfo = GetTaxInfo( CONT_ALL );
; 349  : 	if( !taxInfo )
; 350  : 		return;
; 351  : 	
; 352  : 	taxInfo->bSetTaxRate = TRUE;
; 353  : 	// ´ŮŔ˝ IDµî·Ď ą× ĽĽŔ˛ ĂĘ±âČ­
; 354  : 	taxInfo->dwNextId = dwIdPlayer;
; 355  : 	for( TAXDETAILMAP::iterator it=taxInfo->mapTaxDetail.begin(); it!=taxInfo->mapTaxDetail.end(); it++ )
; 356  : 		it->second->nNextTaxRate = 0; // ±şÁÖ´Â ĽĽŔ˛ŔĚ ą«ŔÇąĚ ÇĎÁö¸¸ ĂĘ±âČ­...
; 357  : #endif // __DBSERVER
; 358  : }

  00008	5d		 pop	 ebp

; 343  : #ifdef __WORLDSERVER
; 344  : 	g_dpDBClient.SendLord( dwIdPlayer );

  00009	e9 00 00 00 00	 jmp	 ?SendLord@CDPDatabaseClient@@QAEXK@Z ; CDPDatabaseClient::SendLord
?SetNextLord@CTax@@QAEXK@Z ENDP				; CTax::SetNextLord
_TEXT	ENDS
; Function compile flags: /Ogtp
; File C:\IAGOS\server\v18\Source\Source\_Common\Tax.cpp
;	COMDAT ?SetNextSecretRoomGuild@CTax@@QAEXEK@Z
_TEXT	SEGMENT
_nCont$ = 8						; size = 1
_dwGuildId$ = 12					; size = 4
?SetNextSecretRoomGuild@CTax@@QAEXEK@Z PROC		; CTax::SetNextSecretRoomGuild, COMDAT
; _this$ = ecx

; 320  : {

  00000	55		 push	 ebp
  00001	8b ec		 mov	 ebp, esp

; 321  : #ifdef __WORLDSERVER
; 322  : 	g_dpDBClient.SendSecretRoomWinGuild( nCont, dwGuildId );

  00003	b9 00 00 00 00	 mov	 ecx, OFFSET ?g_dpDBClient@@3VCDPDatabaseClient@@A ; g_dpDBClient

; 323  : #endif // __WORLDSERVER
; 324  : 
; 325  : #ifdef __DBSERVER
; 326  : 	__TAXINFO* taxInfo = GetTaxInfo( nCont );
; 327  : 	if( !taxInfo )
; 328  : 		return;
; 329  : 
; 330  : 	if( dwGuildId == NULL_ID )	// Áˇ·É±ćµĺ°ˇ ľř´Â °ćżě ĽĽŔ˛Ŕ» ĽłÁ¤ÇŃ °ÍŔ¸·Î ÇŃ´Ů.
; 331  : 		taxInfo->bSetTaxRate = TRUE;
; 332  : 	else
; 333  : 		taxInfo->bSetTaxRate = FALSE;
; 334  : 	// ´ŮŔ˝ IDµî·Ď ą× ĽĽŔ˛ ĂĘ±âČ­
; 335  : 	taxInfo->dwNextId = dwGuildId;
; 336  : 	for( TAXDETAILMAP::iterator it=taxInfo->mapTaxDetail.begin(); it!=taxInfo->mapTaxDetail.end(); it++ )
; 337  : 		it->second->nNextTaxRate = 0;
; 338  : #endif // __DBSERVER
; 339  : }

  00008	5d		 pop	 ebp

; 321  : #ifdef __WORLDSERVER
; 322  : 	g_dpDBClient.SendSecretRoomWinGuild( nCont, dwGuildId );

  00009	e9 00 00 00 00	 jmp	 ?SendSecretRoomWinGuild@CDPDatabaseClient@@QAEXEK@Z ; CDPDatabaseClient::SendSecretRoomWinGuild
?SetNextSecretRoomGuild@CTax@@QAEXEK@Z ENDP		; CTax::SetNextSecretRoomGuild
_TEXT	ENDS
; Function compile flags: /Ogtp
; File C:\IAGOS\server\v18\Source\Source\_Common\Tax.cpp
; File C:\Program Files\Microsoft Visual Studio\2022\Professional\VC\Tools\MSVC\14.44.35207\include\xtree
; File C:\Program Files\Microsoft Visual Studio\2022\Professional\VC\Tools\MSVC\14.44.35207\include\type_traits
; File C:\Program Files\Microsoft Visual Studio\2022\Professional\VC\Tools\MSVC\14.44.35207\include\xtree
; File C:\IAGOS\server\v18\Source\Source\_Common\Tax.cpp
; File C:\Program Files\Microsoft Visual Studio\2022\Professional\VC\Tools\MSVC\14.44.35207\include\xtree
; File C:\Program Files\Microsoft Visual Studio\2022\Professional\VC\Tools\MSVC\14.44.35207\include\type_traits
; File C:\Program Files\Microsoft Visual Studio\2022\Professional\VC\Tools\MSVC\14.44.35207\include\xtree
; File C:\IAGOS\server\v18\Source\Source\_Common\Tax.cpp
;	COMDAT ?GetTaxInfo@CTax@@QAEPAU__TAXINFO@@E@Z
_TEXT	SEGMENT
__Loc$1 = -12						; size = 12
__Loc$2 = -12						; size = 12
_nContinent$ = 8					; size = 1
?GetTaxInfo@CTax@@QAEPAU__TAXINFO@@E@Z PROC		; CTax::GetTaxInfo, COMDAT
; _this$ = ecx

; 84   : {

  00000	55		 push	 ebp
  00001	8b ec		 mov	 ebp, esp
  00003	83 ec 0c	 sub	 esp, 12			; 0000000cH
  00006	53		 push	 ebx
  00007	57		 push	 edi
; File C:\Program Files\Microsoft Visual Studio\2022\Professional\VC\Tools\MSVC\14.44.35207\include\xtree

; 1384 :         const _Tree_find_result<_Nodeptr> _Loc = _Find_lower_bound(_Keyval);

  00008	8d 45 08	 lea	 eax, DWORD PTR _nContinent$[ebp]
  0000b	50		 push	 eax

; 1152 :         return iterator(_Scary->_Myhead, _Scary);

  0000c	8d 79 08	 lea	 edi, DWORD PTR [ecx+8]

; 1384 :         const _Tree_find_result<_Nodeptr> _Loc = _Find_lower_bound(_Keyval);

  0000f	8d 45 f4	 lea	 eax, DWORD PTR __Loc$1[ebp]
  00012	8b cf		 mov	 ecx, edi
  00014	50		 push	 eax
  00015	e8 00 00 00 00	 call	 ??$_Find_lower_bound@E@?$_Tree@V?$_Tmap_traits@EPAU__TAXINFO@@U?$less@E@std@@V?$allocator@U?$pair@$$CBEPAU__TAXINFO@@@std@@@3@$0A@@std@@@std@@IBE?AU?$_Tree_find_result@PAU?$_Tree_node@U?$pair@$$CBEPAU__TAXINFO@@@std@@PAX@std@@@1@ABE@Z ; std::_Tree<std::_Tmap_traits<unsigned char,__TAXINFO *,std::less<unsigned char>,std::allocator<std::pair<unsigned char const ,__TAXINFO *> >,0> >::_Find_lower_bound<unsigned char>

; 1624 :         return !_Bound->_Isnil && !_DEBUG_LT_PRED(_Getcomp(), _Keyval, _Traits::_Kfn(_Bound->_Myval));

  0001a	8b 45 fc	 mov	 eax, DWORD PTR __Loc$1[ebp+8]
  0001d	8a 5d 08	 mov	 bl, BYTE PTR _nContinent$[ebp]
  00020	80 78 0d 00	 cmp	 BYTE PTR [eax+13], 0
  00024	75 33		 jne	 SHORT $LN2@GetTaxInfo
; File C:\Program Files\Microsoft Visual Studio\2022\Professional\VC\Tools\MSVC\14.44.35207\include\type_traits

; 2380 :         return _Left < _Right;

  00026	3a 58 10	 cmp	 bl, BYTE PTR [eax+16]
; File C:\Program Files\Microsoft Visual Studio\2022\Professional\VC\Tools\MSVC\14.44.35207\include\xtree

; 1624 :         return !_Bound->_Isnil && !_DEBUG_LT_PRED(_Getcomp(), _Keyval, _Traits::_Kfn(_Bound->_Myval));

  00029	72 2e		 jb	 SHORT $LN2@GetTaxInfo

; 232  :         return this->_Ptr == _Right._Ptr;

  0002b	3b 07		 cmp	 eax, DWORD PTR [edi]
; File C:\IAGOS\server\v18\Source\Source\_Common\Tax.cpp

; 85   : 	if( m_mapTaxInfo.find( nContinent ) != m_mapTaxInfo.end() )

  0002d	74 2a		 je	 SHORT $LN2@GetTaxInfo
; File C:\Program Files\Microsoft Visual Studio\2022\Professional\VC\Tools\MSVC\14.44.35207\include\xtree

; 1384 :         const _Tree_find_result<_Nodeptr> _Loc = _Find_lower_bound(_Keyval);

  0002f	8d 45 08	 lea	 eax, DWORD PTR _nContinent$[ebp]
  00032	8b cf		 mov	 ecx, edi
  00034	50		 push	 eax
  00035	8d 45 f4	 lea	 eax, DWORD PTR __Loc$2[ebp]
  00038	50		 push	 eax
  00039	e8 00 00 00 00	 call	 ??$_Find_lower_bound@E@?$_Tree@V?$_Tmap_traits@EPAU__TAXINFO@@U?$less@E@std@@V?$allocator@U?$pair@$$CBEPAU__TAXINFO@@@std@@@3@$0A@@std@@@std@@IBE?AU?$_Tree_find_result@PAU?$_Tree_node@U?$pair@$$CBEPAU__TAXINFO@@@std@@PAX@std@@@1@ABE@Z ; std::_Tree<std::_Tmap_traits<unsigned char,__TAXINFO *,std::less<unsigned char>,std::allocator<std::pair<unsigned char const ,__TAXINFO *> >,0> >::_Find_lower_bound<unsigned char>

; 1624 :         return !_Bound->_Isnil && !_DEBUG_LT_PRED(_Getcomp(), _Keyval, _Traits::_Kfn(_Bound->_Myval));

  0003e	8b 45 fc	 mov	 eax, DWORD PTR __Loc$2[ebp+8]
  00041	80 78 0d 00	 cmp	 BYTE PTR [eax+13], 0
  00045	75 05		 jne	 SHORT $LN47@GetTaxInfo
; File C:\Program Files\Microsoft Visual Studio\2022\Professional\VC\Tools\MSVC\14.44.35207\include\type_traits

; 2380 :         return _Left < _Right;

  00047	3a 58 10	 cmp	 bl, BYTE PTR [eax+16]
; File C:\Program Files\Microsoft Visual Studio\2022\Professional\VC\Tools\MSVC\14.44.35207\include\xtree

; 1624 :         return !_Bound->_Isnil && !_DEBUG_LT_PRED(_Getcomp(), _Keyval, _Traits::_Kfn(_Bound->_Myval));

  0004a	73 02		 jae	 SHORT $LN46@GetTaxInfo
$LN47@GetTaxInfo:

; 1389 :         return _Get_scary()->_Myhead;

  0004c	8b 07		 mov	 eax, DWORD PTR [edi]
$LN46@GetTaxInfo:
; File C:\IAGOS\server\v18\Source\Source\_Common\Tax.cpp

; 86   : 		return m_mapTaxInfo.find( nContinent )->second;

  0004e	8b 40 14	 mov	 eax, DWORD PTR [eax+20]
  00051	5f		 pop	 edi

; 93   : }

  00052	5b		 pop	 ebx
  00053	8b e5		 mov	 esp, ebp
  00055	5d		 pop	 ebp
  00056	c2 04 00	 ret	 4
$LN2@GetTaxInfo:

; 87   : #ifndef __CLIENT
; 88   : 	else
; 89   : 		Error( "CTax::GetTaxInfo() - Ŕß¸řµČ ´ë·úÁ¤ş¸ %x", nContinent );

  00059	0f b6 c3	 movzx	 eax, bl
  0005c	50		 push	 eax
  0005d	68 00 00 00 00	 push	 OFFSET ??_C@_0CI@EGGDFMCC@CTax?3?3GetTaxInfo?$CI?$CJ?5?9?5?$MA?$NP?$LI?x?$LF?H?5?$LE?k?$LH@
  00062	e8 00 00 00 00	 call	 ?Error@@YAPBDPBDZZ	; Error
  00067	83 c4 08	 add	 esp, 8

; 90   : #endif // __CLIENT
; 91   : 
; 92   : 	return NULL;

  0006a	33 c0		 xor	 eax, eax
  0006c	5f		 pop	 edi

; 93   : }

  0006d	5b		 pop	 ebx
  0006e	8b e5		 mov	 esp, ebp
  00070	5d		 pop	 ebp
  00071	c2 04 00	 ret	 4
?GetTaxInfo@CTax@@QAEPAU__TAXINFO@@E@Z ENDP		; CTax::GetTaxInfo
_TEXT	ENDS
; Function compile flags: /Ogtp
;	COMDAT ??1?$map@EPAU__TAXINFO@@U?$less@E@std@@V?$allocator@U?$pair@$$CBEPAU__TAXINFO@@@std@@@3@@std@@QAE@XZ
_TEXT	SEGMENT
??1?$map@EPAU__TAXINFO@@U?$less@E@std@@V?$allocator@U?$pair@$$CBEPAU__TAXINFO@@@std@@@3@@std@@QAE@XZ PROC ; std::map<unsigned char,__TAXINFO *,std::less<unsigned char>,std::allocator<std::pair<unsigned char const ,__TAXINFO *> > >::~map<unsigned char,__TAXINFO *,std::less<unsigned char>,std::allocator<std::pair<unsigned char const ,__TAXINFO *> > >, COMDAT
; _this$ = ecx
  00000	e9 00 00 00 00	 jmp	 ??1?$_Tree@V?$_Tmap_traits@EPAU__TAXINFO@@U?$less@E@std@@V?$allocator@U?$pair@$$CBEPAU__TAXINFO@@@std@@@3@$0A@@std@@@std@@QAE@XZ ; std::_Tree<std::_Tmap_traits<unsigned char,__TAXINFO *,std::less<unsigned char>,std::allocator<std::pair<unsigned char const ,__TAXINFO *> >,0> >::~_Tree<std::_Tmap_traits<unsigned char,__TAXINFO *,std::less<unsigned char>,std::allocator<std::pair<unsigned char const ,__TAXINFO *> >,0> >
??1?$map@EPAU__TAXINFO@@U?$less@E@std@@V?$allocator@U?$pair@$$CBEPAU__TAXINFO@@@std@@@3@@std@@QAE@XZ ENDP ; std::map<unsigned char,__TAXINFO *,std::less<unsigned char>,std::allocator<std::pair<unsigned char const ,__TAXINFO *> > >::~map<unsigned char,__TAXINFO *,std::less<unsigned char>,std::allocator<std::pair<unsigned char const ,__TAXINFO *> > >
_TEXT	ENDS
; Function compile flags: /Ogtp
; File C:\Program Files\Microsoft Visual Studio\2022\Professional\VC\Tools\MSVC\14.44.35207\include\xtree
;	COMDAT ?_Insert_node@?$_Tree_val@U?$_Tree_simple_types@U?$pair@$$CBEPAU__TAXINFO@@@std@@@std@@@std@@QAEPAU?$_Tree_node@U?$pair@$$CBEPAU__TAXINFO@@@std@@PAX@2@U?$_Tree_id@PAU?$_Tree_node@U?$pair@$$CBEPAU__TAXINFO@@@std@@PAX@std@@@2@QAU32@@Z
_TEXT	SEGMENT
__Head$1$ = -4						; size = 4
__Loc$ = 8						; size = 8
__Newnode$ = 16						; size = 4
?_Insert_node@?$_Tree_val@U?$_Tree_simple_types@U?$pair@$$CBEPAU__TAXINFO@@@std@@@std@@@std@@QAEPAU?$_Tree_node@U?$pair@$$CBEPAU__TAXINFO@@@std@@PAX@2@U?$_Tree_id@PAU?$_Tree_node@U?$pair@$$CBEPAU__TAXINFO@@@std@@PAX@std@@@2@QAU32@@Z PROC ; std::_Tree_val<std::_Tree_simple_types<std::pair<unsigned char const ,__TAXINFO *> > >::_Insert_node, COMDAT
; _this$ = ecx

; 669  :     _Nodeptr _Insert_node(const _Tree_id<_Nodeptr> _Loc, const _Nodeptr _Newnode) noexcept {

  00000	55		 push	 ebp
  00001	8b ec		 mov	 ebp, esp
  00003	51		 push	 ecx

; 670  :         ++_Mysize;
; 671  :         const auto _Head  = _Myhead;
; 672  :         _Newnode->_Parent = _Loc._Parent;

  00004	8b 55 08	 mov	 edx, DWORD PTR __Loc$[ebp]
  00007	53		 push	 ebx
  00008	8b d9		 mov	 ebx, ecx
  0000a	57		 push	 edi
  0000b	8b 7d 10	 mov	 edi, DWORD PTR __Newnode$[ebp]
  0000e	8b 03		 mov	 eax, DWORD PTR [ebx]
  00010	ff 43 04	 inc	 DWORD PTR [ebx+4]
  00013	89 45 fc	 mov	 DWORD PTR __Head$1$[ebp], eax
  00016	89 57 04	 mov	 DWORD PTR [edi+4], edx

; 673  :         if (_Loc._Parent == _Head) { // first node in tree, just set head values

  00019	3b d0		 cmp	 edx, eax
  0001b	75 16		 jne	 SHORT $LN5@Insert_nod

; 674  :             _Head->_Left     = _Newnode;

  0001d	89 38		 mov	 DWORD PTR [eax], edi

; 675  :             _Head->_Parent   = _Newnode;

  0001f	89 78 04	 mov	 DWORD PTR [eax+4], edi

; 676  :             _Head->_Right    = _Newnode;

  00022	89 78 08	 mov	 DWORD PTR [eax+8], edi

; 735  :         return _Newnode;
; 736  :     }

  00025	8b c7		 mov	 eax, edi
  00027	c6 47 0c 01	 mov	 BYTE PTR [edi+12], 1
  0002b	5f		 pop	 edi
  0002c	5b		 pop	 ebx
  0002d	8b e5		 mov	 esp, ebp
  0002f	5d		 pop	 ebp
  00030	c2 0c 00	 ret	 12			; 0000000cH
$LN5@Insert_nod:

; 677  :             _Newnode->_Color = _Black; // the root is black
; 678  :             return _Newnode;
; 679  :         }
; 680  : 
; 681  :         _STL_INTERNAL_CHECK(_Loc._Child != _Tree_child::_Unused);
; 682  :         if (_Loc._Child == _Tree_child::_Right) { // add to right of _Loc._Parent

  00033	83 7d 0c 00	 cmp	 DWORD PTR __Loc$[ebp+4], 0
  00037	75 0d		 jne	 SHORT $LN6@Insert_nod

; 683  :             _STL_INTERNAL_CHECK(_Loc._Parent->_Right->_Isnil);
; 684  :             _Loc._Parent->_Right = _Newnode;

  00039	89 7a 08	 mov	 DWORD PTR [edx+8], edi

; 685  :             if (_Loc._Parent == _Head->_Right) { // remember rightmost node

  0003c	3b 50 08	 cmp	 edx, DWORD PTR [eax+8]
  0003f	75 0d		 jne	 SHORT $LN9@Insert_nod

; 686  :                 _Head->_Right = _Newnode;

  00041	89 78 08	 mov	 DWORD PTR [eax+8], edi

; 687  :             }
; 688  :         } else { // add to left of _Loc._Parent

  00044	eb 08		 jmp	 SHORT $LN9@Insert_nod
$LN6@Insert_nod:

; 689  :             _STL_INTERNAL_CHECK(_Loc._Parent->_Left->_Isnil);
; 690  :             _Loc._Parent->_Left = _Newnode;

  00046	89 3a		 mov	 DWORD PTR [edx], edi

; 691  :             if (_Loc._Parent == _Head->_Left) { // remember leftmost node

  00048	3b 10		 cmp	 edx, DWORD PTR [eax]
  0004a	75 02		 jne	 SHORT $LN9@Insert_nod

; 692  :                 _Head->_Left = _Newnode;

  0004c	89 38		 mov	 DWORD PTR [eax], edi
$LN9@Insert_nod:

; 693  :             }
; 694  :         }
; 695  : 
; 696  :         for (_Nodeptr _Pnode = _Newnode; _Pnode->_Parent->_Color == _Red;) {

  0004e	8b 4f 04	 mov	 ecx, DWORD PTR [edi+4]
  00051	8b c7		 mov	 eax, edi
  00053	80 79 0c 00	 cmp	 BYTE PTR [ecx+12], 0
  00057	0f 85 7d 01 00
	00		 jne	 $LN3@Insert_nod
  0005d	56		 push	 esi
  0005e	66 90		 npad	 2
$LL4@Insert_nod:

; 697  :             if (_Pnode->_Parent == _Pnode->_Parent->_Parent->_Left) { // fixup red-red in left subtree

  00060	8b 50 04	 mov	 edx, DWORD PTR [eax+4]
  00063	8b 72 04	 mov	 esi, DWORD PTR [edx+4]
  00066	8b 0e		 mov	 ecx, DWORD PTR [esi]
  00068	3b d1		 cmp	 edx, ecx
  0006a	0f 85 aa 00 00
	00		 jne	 $LN10@Insert_nod

; 698  :                 const auto _Parent_sibling = _Pnode->_Parent->_Parent->_Right;

  00070	8b 4e 08	 mov	 ecx, DWORD PTR [esi+8]

; 699  :                 if (_Parent_sibling->_Color == _Red) { // parent's sibling has two red children, blacken both

  00073	80 79 0c 00	 cmp	 BYTE PTR [ecx+12], 0
  00077	0f 84 a3 00 00
	00		 je	 $LN82@Insert_nod

; 700  :                     _Pnode->_Parent->_Color          = _Black;
; 701  :                     _Parent_sibling->_Color          = _Black;
; 702  :                     _Pnode->_Parent->_Parent->_Color = _Red;
; 703  :                     _Pnode                           = _Pnode->_Parent->_Parent;
; 704  :                 } else { // parent's sibling has red and black children
; 705  :                     if (_Pnode == _Pnode->_Parent->_Right) { // rotate right child to left

  0007d	8b 72 08	 mov	 esi, DWORD PTR [edx+8]
  00080	3b c6		 cmp	 eax, esi
  00082	75 37		 jne	 SHORT $LN57@Insert_nod

; 485  :         _Wherenode->_Right = _Pnode->_Left;

  00084	8b 0e		 mov	 ecx, DWORD PTR [esi]

; 706  :                         _Pnode = _Pnode->_Parent;

  00086	8b c2		 mov	 eax, edx

; 485  :         _Wherenode->_Right = _Pnode->_Left;

  00088	89 4a 08	 mov	 DWORD PTR [edx+8], ecx

; 486  : 
; 487  :         if (!_Pnode->_Left->_Isnil) {

  0008b	8b 0e		 mov	 ecx, DWORD PTR [esi]
  0008d	80 79 0d 00	 cmp	 BYTE PTR [ecx+13], 0
  00091	75 03		 jne	 SHORT $LN21@Insert_nod

; 488  :             _Pnode->_Left->_Parent = _Wherenode;

  00093	89 41 04	 mov	 DWORD PTR [ecx+4], eax
$LN21@Insert_nod:

; 489  :         }
; 490  : 
; 491  :         _Pnode->_Parent = _Wherenode->_Parent;

  00096	8b 4a 04	 mov	 ecx, DWORD PTR [edx+4]
  00099	89 4e 04	 mov	 DWORD PTR [esi+4], ecx

; 492  : 
; 493  :         if (_Wherenode == _Myhead->_Parent) {

  0009c	8b 0b		 mov	 ecx, DWORD PTR [ebx]
  0009e	3b 41 04	 cmp	 eax, DWORD PTR [ecx+4]
  000a1	75 05		 jne	 SHORT $LN22@Insert_nod

; 494  :             _Myhead->_Parent = _Pnode;

  000a3	89 71 04	 mov	 DWORD PTR [ecx+4], esi
  000a6	eb 0e		 jmp	 SHORT $LN25@Insert_nod
$LN22@Insert_nod:

; 495  :         } else if (_Wherenode == _Wherenode->_Parent->_Left) {

  000a8	8b 4a 04	 mov	 ecx, DWORD PTR [edx+4]
  000ab	3b 01		 cmp	 eax, DWORD PTR [ecx]
  000ad	75 04		 jne	 SHORT $LN24@Insert_nod

; 496  :             _Wherenode->_Parent->_Left = _Pnode;

  000af	89 31		 mov	 DWORD PTR [ecx], esi

; 497  :         } else {

  000b1	eb 03		 jmp	 SHORT $LN25@Insert_nod
$LN24@Insert_nod:

; 498  :             _Wherenode->_Parent->_Right = _Pnode;

  000b3	89 71 08	 mov	 DWORD PTR [ecx+8], esi
$LN25@Insert_nod:

; 499  :         }
; 500  : 
; 501  :         _Pnode->_Left       = _Wherenode;

  000b6	89 06		 mov	 DWORD PTR [esi], eax

; 502  :         _Wherenode->_Parent = _Pnode;

  000b8	89 70 04	 mov	 DWORD PTR [eax+4], esi
$LN57@Insert_nod:

; 707  :                         _Lrotate(_Pnode);
; 708  :                     }
; 709  : 
; 710  :                     _Pnode->_Parent->_Color          = _Black; // propagate red up

  000bb	8b 48 04	 mov	 ecx, DWORD PTR [eax+4]
  000be	c6 41 0c 01	 mov	 BYTE PTR [ecx+12], 1

; 711  :                     _Pnode->_Parent->_Parent->_Color = _Red;

  000c2	8b 48 04	 mov	 ecx, DWORD PTR [eax+4]
  000c5	8b 49 04	 mov	 ecx, DWORD PTR [ecx+4]
  000c8	c6 41 0c 00	 mov	 BYTE PTR [ecx+12], 0

; 712  :                     _Rrotate(_Pnode->_Parent->_Parent);

  000cc	8b 48 04	 mov	 ecx, DWORD PTR [eax+4]
  000cf	8b 51 04	 mov	 edx, DWORD PTR [ecx+4]

; 506  :         _Nodeptr _Pnode   = _Wherenode->_Left;

  000d2	8b 32		 mov	 esi, DWORD PTR [edx]

; 507  :         _Wherenode->_Left = _Pnode->_Right;

  000d4	8b 4e 08	 mov	 ecx, DWORD PTR [esi+8]
  000d7	89 0a		 mov	 DWORD PTR [edx], ecx

; 508  : 
; 509  :         if (!_Pnode->_Right->_Isnil) {

  000d9	8b 4e 08	 mov	 ecx, DWORD PTR [esi+8]
  000dc	80 79 0d 00	 cmp	 BYTE PTR [ecx+13], 0
  000e0	75 03		 jne	 SHORT $LN29@Insert_nod

; 510  :             _Pnode->_Right->_Parent = _Wherenode;

  000e2	89 51 04	 mov	 DWORD PTR [ecx+4], edx
$LN29@Insert_nod:

; 511  :         }
; 512  : 
; 513  :         _Pnode->_Parent = _Wherenode->_Parent;

  000e5	8b 4a 04	 mov	 ecx, DWORD PTR [edx+4]
  000e8	89 4e 04	 mov	 DWORD PTR [esi+4], ecx

; 514  : 
; 515  :         if (_Wherenode == _Myhead->_Parent) {

  000eb	8b 0b		 mov	 ecx, DWORD PTR [ebx]
  000ed	3b 51 04	 cmp	 edx, DWORD PTR [ecx+4]
  000f0	75 0b		 jne	 SHORT $LN30@Insert_nod

; 516  :             _Myhead->_Parent = _Pnode;

  000f2	89 71 04	 mov	 DWORD PTR [ecx+4], esi

; 521  :         }
; 522  : 
; 523  :         _Pnode->_Right      = _Wherenode;

  000f5	89 56 08	 mov	 DWORD PTR [esi+8], edx

; 713  :                 }
; 714  :             } else { // fixup red-red in right subtree

  000f8	e9 cc 00 00 00	 jmp	 $LN81@Insert_nod
$LN30@Insert_nod:

; 517  :         } else if (_Wherenode == _Wherenode->_Parent->_Right) {

  000fd	8b 4a 04	 mov	 ecx, DWORD PTR [edx+4]
  00100	3b 51 08	 cmp	 edx, DWORD PTR [ecx+8]
  00103	75 0b		 jne	 SHORT $LN32@Insert_nod

; 518  :             _Wherenode->_Parent->_Right = _Pnode;

  00105	89 71 08	 mov	 DWORD PTR [ecx+8], esi

; 521  :         }
; 522  : 
; 523  :         _Pnode->_Right      = _Wherenode;

  00108	89 56 08	 mov	 DWORD PTR [esi+8], edx

; 713  :                 }
; 714  :             } else { // fixup red-red in right subtree

  0010b	e9 b9 00 00 00	 jmp	 $LN81@Insert_nod
$LN32@Insert_nod:

; 520  :             _Wherenode->_Parent->_Left = _Pnode;

  00110	89 31		 mov	 DWORD PTR [ecx], esi

; 521  :         }
; 522  : 
; 523  :         _Pnode->_Right      = _Wherenode;

  00112	89 56 08	 mov	 DWORD PTR [esi+8], edx

; 713  :                 }
; 714  :             } else { // fixup red-red in right subtree

  00115	e9 af 00 00 00	 jmp	 $LN81@Insert_nod
$LN10@Insert_nod:

; 715  :                 const auto _Parent_sibling = _Pnode->_Parent->_Parent->_Left;
; 716  :                 if (_Parent_sibling->_Color == _Red) { // parent's sibling has two red children, blacken both

  0011a	80 79 0c 00	 cmp	 BYTE PTR [ecx+12], 0
  0011e	75 1d		 jne	 SHORT $LN15@Insert_nod
$LN82@Insert_nod:

; 693  :             }
; 694  :         }
; 695  : 
; 696  :         for (_Nodeptr _Pnode = _Newnode; _Pnode->_Parent->_Color == _Red;) {

  00120	c6 42 0c 01	 mov	 BYTE PTR [edx+12], 1
  00124	c6 41 0c 01	 mov	 BYTE PTR [ecx+12], 1
  00128	8b 48 04	 mov	 ecx, DWORD PTR [eax+4]
  0012b	8b 49 04	 mov	 ecx, DWORD PTR [ecx+4]
  0012e	c6 41 0c 00	 mov	 BYTE PTR [ecx+12], 0
  00132	8b 48 04	 mov	 ecx, DWORD PTR [eax+4]
  00135	8b 41 04	 mov	 eax, DWORD PTR [ecx+4]
  00138	e9 8f 00 00 00	 jmp	 $LN2@Insert_nod
$LN15@Insert_nod:

; 717  :                     _Pnode->_Parent->_Color          = _Black;
; 718  :                     _Parent_sibling->_Color          = _Black;
; 719  :                     _Pnode->_Parent->_Parent->_Color = _Red;
; 720  :                     _Pnode                           = _Pnode->_Parent->_Parent;
; 721  :                 } else { // parent's sibling has red and black children
; 722  :                     if (_Pnode == _Pnode->_Parent->_Left) { // rotate left child to right

  0013d	8b 32		 mov	 esi, DWORD PTR [edx]
  0013f	3b c6		 cmp	 eax, esi
  00141	75 3a		 jne	 SHORT $LN42@Insert_nod

; 507  :         _Wherenode->_Left = _Pnode->_Right;

  00143	8b 4e 08	 mov	 ecx, DWORD PTR [esi+8]

; 723  :                         _Pnode = _Pnode->_Parent;

  00146	8b c2		 mov	 eax, edx

; 507  :         _Wherenode->_Left = _Pnode->_Right;

  00148	89 08		 mov	 DWORD PTR [eax], ecx

; 508  : 
; 509  :         if (!_Pnode->_Right->_Isnil) {

  0014a	8b 4e 08	 mov	 ecx, DWORD PTR [esi+8]
  0014d	80 79 0d 00	 cmp	 BYTE PTR [ecx+13], 0
  00151	75 03		 jne	 SHORT $LN37@Insert_nod

; 510  :             _Pnode->_Right->_Parent = _Wherenode;

  00153	89 41 04	 mov	 DWORD PTR [ecx+4], eax
$LN37@Insert_nod:

; 511  :         }
; 512  : 
; 513  :         _Pnode->_Parent = _Wherenode->_Parent;

  00156	8b 4a 04	 mov	 ecx, DWORD PTR [edx+4]
  00159	89 4e 04	 mov	 DWORD PTR [esi+4], ecx

; 514  : 
; 515  :         if (_Wherenode == _Myhead->_Parent) {

  0015c	8b 0b		 mov	 ecx, DWORD PTR [ebx]
  0015e	3b 41 04	 cmp	 eax, DWORD PTR [ecx+4]
  00161	75 05		 jne	 SHORT $LN38@Insert_nod

; 516  :             _Myhead->_Parent = _Pnode;

  00163	89 71 04	 mov	 DWORD PTR [ecx+4], esi
  00166	eb 0f		 jmp	 SHORT $LN41@Insert_nod
$LN38@Insert_nod:

; 517  :         } else if (_Wherenode == _Wherenode->_Parent->_Right) {

  00168	8b 4a 04	 mov	 ecx, DWORD PTR [edx+4]
  0016b	3b 41 08	 cmp	 eax, DWORD PTR [ecx+8]
  0016e	75 05		 jne	 SHORT $LN40@Insert_nod

; 518  :             _Wherenode->_Parent->_Right = _Pnode;

  00170	89 71 08	 mov	 DWORD PTR [ecx+8], esi

; 519  :         } else {

  00173	eb 02		 jmp	 SHORT $LN41@Insert_nod
$LN40@Insert_nod:

; 520  :             _Wherenode->_Parent->_Left = _Pnode;

  00175	89 31		 mov	 DWORD PTR [ecx], esi
$LN41@Insert_nod:

; 521  :         }
; 522  : 
; 523  :         _Pnode->_Right      = _Wherenode;

  00177	89 46 08	 mov	 DWORD PTR [esi+8], eax

; 524  :         _Wherenode->_Parent = _Pnode;

  0017a	89 70 04	 mov	 DWORD PTR [eax+4], esi
$LN42@Insert_nod:

; 724  :                         _Rrotate(_Pnode);
; 725  :                     }
; 726  : 
; 727  :                     _Pnode->_Parent->_Color          = _Black; // propagate red up

  0017d	8b 48 04	 mov	 ecx, DWORD PTR [eax+4]
  00180	c6 41 0c 01	 mov	 BYTE PTR [ecx+12], 1

; 728  :                     _Pnode->_Parent->_Parent->_Color = _Red;

  00184	8b 48 04	 mov	 ecx, DWORD PTR [eax+4]
  00187	8b 49 04	 mov	 ecx, DWORD PTR [ecx+4]
  0018a	c6 41 0c 00	 mov	 BYTE PTR [ecx+12], 0

; 729  :                     _Lrotate(_Pnode->_Parent->_Parent);

  0018e	8b 48 04	 mov	 ecx, DWORD PTR [eax+4]
  00191	8b 51 04	 mov	 edx, DWORD PTR [ecx+4]

; 484  :         _Nodeptr _Pnode    = _Wherenode->_Right;

  00194	8b 72 08	 mov	 esi, DWORD PTR [edx+8]

; 485  :         _Wherenode->_Right = _Pnode->_Left;

  00197	8b 0e		 mov	 ecx, DWORD PTR [esi]
  00199	89 4a 08	 mov	 DWORD PTR [edx+8], ecx

; 486  : 
; 487  :         if (!_Pnode->_Left->_Isnil) {

  0019c	8b 0e		 mov	 ecx, DWORD PTR [esi]
  0019e	80 79 0d 00	 cmp	 BYTE PTR [ecx+13], 0
  001a2	75 03		 jne	 SHORT $LN45@Insert_nod

; 488  :             _Pnode->_Left->_Parent = _Wherenode;

  001a4	89 51 04	 mov	 DWORD PTR [ecx+4], edx
$LN45@Insert_nod:

; 489  :         }
; 490  : 
; 491  :         _Pnode->_Parent = _Wherenode->_Parent;

  001a7	8b 4a 04	 mov	 ecx, DWORD PTR [edx+4]
  001aa	89 4e 04	 mov	 DWORD PTR [esi+4], ecx

; 492  : 
; 493  :         if (_Wherenode == _Myhead->_Parent) {

  001ad	8b 0b		 mov	 ecx, DWORD PTR [ebx]
  001af	3b 51 04	 cmp	 edx, DWORD PTR [ecx+4]
  001b2	75 05		 jne	 SHORT $LN46@Insert_nod

; 494  :             _Myhead->_Parent = _Pnode;

  001b4	89 71 04	 mov	 DWORD PTR [ecx+4], esi
  001b7	eb 0e		 jmp	 SHORT $LN49@Insert_nod
$LN46@Insert_nod:

; 495  :         } else if (_Wherenode == _Wherenode->_Parent->_Left) {

  001b9	8b 4a 04	 mov	 ecx, DWORD PTR [edx+4]
  001bc	3b 11		 cmp	 edx, DWORD PTR [ecx]
  001be	75 04		 jne	 SHORT $LN48@Insert_nod

; 496  :             _Wherenode->_Parent->_Left = _Pnode;

  001c0	89 31		 mov	 DWORD PTR [ecx], esi

; 497  :         } else {

  001c2	eb 03		 jmp	 SHORT $LN49@Insert_nod
$LN48@Insert_nod:

; 498  :             _Wherenode->_Parent->_Right = _Pnode;

  001c4	89 71 08	 mov	 DWORD PTR [ecx+8], esi
$LN49@Insert_nod:

; 499  :         }
; 500  : 
; 501  :         _Pnode->_Left       = _Wherenode;

  001c7	89 16		 mov	 DWORD PTR [esi], edx
$LN81@Insert_nod:

; 693  :             }
; 694  :         }
; 695  : 
; 696  :         for (_Nodeptr _Pnode = _Newnode; _Pnode->_Parent->_Color == _Red;) {

  001c9	89 72 04	 mov	 DWORD PTR [edx+4], esi
$LN2@Insert_nod:
  001cc	8b 48 04	 mov	 ecx, DWORD PTR [eax+4]
  001cf	80 79 0c 00	 cmp	 BYTE PTR [ecx+12], 0
  001d3	0f 84 87 fe ff
	ff		 je	 $LL4@Insert_nod
  001d9	5e		 pop	 esi
$LN3@Insert_nod:

; 730  :                 }
; 731  :             }
; 732  :         }
; 733  : 
; 734  :         _Head->_Parent->_Color = _Black; // root is always black

  001da	8b 45 fc	 mov	 eax, DWORD PTR __Head$1$[ebp]
  001dd	8b 40 04	 mov	 eax, DWORD PTR [eax+4]
  001e0	c6 40 0c 01	 mov	 BYTE PTR [eax+12], 1

; 735  :         return _Newnode;
; 736  :     }

  001e4	8b c7		 mov	 eax, edi
  001e6	5f		 pop	 edi
  001e7	5b		 pop	 ebx
  001e8	8b e5		 mov	 esp, ebp
  001ea	5d		 pop	 ebp
  001eb	c2 0c 00	 ret	 12			; 0000000cH
?_Insert_node@?$_Tree_val@U?$_Tree_simple_types@U?$pair@$$CBEPAU__TAXINFO@@@std@@@std@@@std@@QAEPAU?$_Tree_node@U?$pair@$$CBEPAU__TAXINFO@@@std@@PAX@2@U?$_Tree_id@PAU?$_Tree_node@U?$pair@$$CBEPAU__TAXINFO@@@std@@PAX@std@@@2@QAU32@@Z ENDP ; std::_Tree_val<std::_Tree_simple_types<std::pair<unsigned char const ,__TAXINFO *> > >::_Insert_node
_TEXT	ENDS
; Function compile flags: /Ogtp
; File C:\Program Files\Microsoft Visual Studio\2022\Professional\VC\Tools\MSVC\14.44.35207\include\xtree
; File C:\Program Files\Microsoft Visual Studio\2022\Professional\VC\Tools\MSVC\14.44.35207\include\utility
; File C:\Program Files\Microsoft Visual Studio\2022\Professional\VC\Tools\MSVC\14.44.35207\include\xmemory
; File C:\Program Files\Microsoft Visual Studio\2022\Professional\VC\Tools\MSVC\14.44.35207\include\xtree
; File C:\Program Files\Microsoft Visual Studio\2022\Professional\VC\Tools\MSVC\14.44.35207\include\xmemory
; File C:\Program Files\Microsoft Visual Studio\2022\Professional\VC\Tools\MSVC\14.44.35207\include\xtree
;	COMDAT ??1?$_Tree@V?$_Tmap_traits@EPAU__TAXINFO@@U?$less@E@std@@V?$allocator@U?$pair@$$CBEPAU__TAXINFO@@@std@@@3@$0A@@std@@@std@@QAE@XZ
_TEXT	SEGMENT
??1?$_Tree@V?$_Tmap_traits@EPAU__TAXINFO@@U?$less@E@std@@V?$allocator@U?$pair@$$CBEPAU__TAXINFO@@@std@@@3@$0A@@std@@@std@@QAE@XZ PROC ; std::_Tree<std::_Tmap_traits<unsigned char,__TAXINFO *,std::less<unsigned char>,std::allocator<std::pair<unsigned char const ,__TAXINFO *> >,0> >::~_Tree<std::_Tmap_traits<unsigned char,__TAXINFO *,std::less<unsigned char>,std::allocator<std::pair<unsigned char const ,__TAXINFO *> >,0> >, COMDAT
; _this$ = ecx

; 1095 :     ~_Tree() noexcept {

  00000	56		 push	 esi
  00001	57		 push	 edi
  00002	8b f9		 mov	 edi, ecx

; 777  :         _Erase_tree(_Al, _Myhead->_Parent);

  00004	8b 37		 mov	 esi, DWORD PTR [edi]
  00006	8b 76 04	 mov	 esi, DWORD PTR [esi+4]

; 768  :         while (!_Rootnode->_Isnil) { // free subtrees, then node

  00009	80 7e 0d 00	 cmp	 BYTE PTR [esi+13], 0
  0000d	75 21		 jne	 SHORT $LN61@Tree
  0000f	90		 npad	 1
$LL8@Tree:

; 769  :             _Erase_tree(_Al, _Rootnode->_Right);

  00010	ff 76 08	 push	 DWORD PTR [esi+8]
  00013	8b cf		 mov	 ecx, edi
  00015	57		 push	 edi
  00016	e8 00 00 00 00	 call	 ??$_Erase_tree@V?$allocator@U?$_Tree_node@U?$pair@$$CBEPAU__TAXINFO@@@std@@PAX@std@@@std@@@?$_Tree_val@U?$_Tree_simple_types@U?$pair@$$CBEPAU__TAXINFO@@@std@@@std@@@std@@QAEXAAV?$allocator@U?$_Tree_node@U?$pair@$$CBEPAU__TAXINFO@@@std@@PAX@std@@@1@PAU?$_Tree_node@U?$pair@$$CBEPAU__TAXINFO@@@std@@PAX@1@@Z ; std::_Tree_val<std::_Tree_simple_types<std::pair<unsigned char const ,__TAXINFO *> > >::_Erase_tree<std::allocator<std::_Tree_node<std::pair<unsigned char const ,__TAXINFO *>,void *> > >
; File C:\Program Files\Microsoft Visual Studio\2022\Professional\VC\Tools\MSVC\14.44.35207\include\utility

; 773  :     _Ty _Old_val = static_cast<_Ty&&>(_Val);

  0001b	8b c6		 mov	 eax, esi

; 774  :     _Val         = static_cast<_Other&&>(_New_val);

  0001d	8b 36		 mov	 esi, DWORD PTR [esi]
; File C:\Program Files\Microsoft Visual Studio\2022\Professional\VC\Tools\MSVC\14.44.35207\include\xmemory

; 289  :         ::operator delete(_Ptr, _Bytes);

  0001f	6a 18		 push	 24			; 00000018H
  00021	50		 push	 eax
  00022	e8 00 00 00 00	 call	 ??3@YAXPAXI@Z		; operator delete
  00027	83 c4 08	 add	 esp, 8
; File C:\Program Files\Microsoft Visual Studio\2022\Professional\VC\Tools\MSVC\14.44.35207\include\xtree

; 768  :         while (!_Rootnode->_Isnil) { // free subtrees, then node

  0002a	80 7e 0d 00	 cmp	 BYTE PTR [esi+13], 0
  0002e	74 e0		 je	 SHORT $LL8@Tree
$LN61@Tree:
; File C:\Program Files\Microsoft Visual Studio\2022\Professional\VC\Tools\MSVC\14.44.35207\include\xmemory

; 289  :         ::operator delete(_Ptr, _Bytes);

  00030	6a 18		 push	 24			; 00000018H
  00032	ff 37		 push	 DWORD PTR [edi]
  00034	e8 00 00 00 00	 call	 ??3@YAXPAXI@Z		; operator delete
  00039	83 c4 08	 add	 esp, 8
  0003c	5f		 pop	 edi
  0003d	5e		 pop	 esi
; File C:\Program Files\Microsoft Visual Studio\2022\Professional\VC\Tools\MSVC\14.44.35207\include\xtree

; 1102 :     }

  0003e	c3		 ret	 0
??1?$_Tree@V?$_Tmap_traits@EPAU__TAXINFO@@U?$less@E@std@@V?$allocator@U?$pair@$$CBEPAU__TAXINFO@@@std@@@3@$0A@@std@@@std@@QAE@XZ ENDP ; std::_Tree<std::_Tmap_traits<unsigned char,__TAXINFO *,std::less<unsigned char>,std::allocator<std::pair<unsigned char const ,__TAXINFO *> >,0> >::~_Tree<std::_Tmap_traits<unsigned char,__TAXINFO *,std::less<unsigned char>,std::allocator<std::pair<unsigned char const ,__TAXINFO *> >,0> >
_TEXT	ENDS
; Function compile flags: /Ogtp
; File C:\IAGOS\server\v18\Source\Source\_Common\Tax.cpp
; File C:\IAGOS\server\v18\Source\Source\_Network\Misc\Include\ar.h
; File C:\IAGOS\server\v18\Source\Source\_Common\Tax.cpp
; File C:\IAGOS\server\v18\Source\Source\_Network\Misc\Include\ar.h
; File C:\IAGOS\server\v18\Source\Source\_Common\Tax.cpp
; File C:\Program Files\Microsoft Visual Studio\2022\Professional\VC\Tools\MSVC\14.44.35207\include\xtree
; File C:\IAGOS\server\v18\Source\Source\_Common\Tax.cpp
; File C:\Program Files\Microsoft Visual Studio\2022\Professional\VC\Tools\MSVC\14.44.35207\include\xtree
; File C:\IAGOS\server\v18\Source\Source\_Common\Tax.cpp
; File C:\Program Files\Microsoft Visual Studio\2022\Professional\VC\Tools\MSVC\14.44.35207\include\xtree
; File C:\IAGOS\server\v18\Source\Source\_Common\Tax.cpp
; File C:\Program Files\Microsoft Visual Studio\2022\Professional\VC\Tools\MSVC\14.44.35207\include\xtree
; File C:\IAGOS\server\v18\Source\Source\_Common\Tax.cpp
; File C:\Program Files\Microsoft Visual Studio\2022\Professional\VC\Tools\MSVC\14.44.35207\include\xtree
; File C:\IAGOS\server\v18\Source\Source\_Common\Tax.cpp
; File C:\Program Files\Microsoft Visual Studio\2022\Professional\VC\Tools\MSVC\14.44.35207\include\xtree
; File C:\IAGOS\server\v18\Source\Source\_Common\Tax.cpp
; File C:\Program Files\Microsoft Visual Studio\2022\Professional\VC\Tools\MSVC\14.44.35207\include\xtree
; File C:\Program Files\Microsoft Visual Studio\2022\Professional\VC\Tools\MSVC\14.44.35207\include\type_traits
; File C:\Program Files\Microsoft Visual Studio\2022\Professional\VC\Tools\MSVC\14.44.35207\include\xtree
; File C:\IAGOS\server\v18\Source\Source\_Common\Tax.cpp
;	COMDAT ?Serialize@CTax@@QAEXAAVCAr@@@Z
_TEXT	SEGMENT
__Loc$1 = -28						; size = 12
_nCont$2 = -16						; size = 1
_taxInfo$1$ = -16					; size = 4
$T3 = -12						; size = 4
_nSize2$4 = -12						; size = 4
_this$1$ = -8						; size = 4
$T5 = -4						; size = 4
_it$1$ = -4						; size = 4
_nSize$1$ = -4						; size = 4
_ar$ = 8						; size = 4
_nSize$6 = 8						; size = 4
_nTaxKind$7 = 11					; size = 1
?Serialize@CTax@@QAEXAAVCAr@@@Z PROC			; CTax::Serialize, COMDAT
; _this$ = ecx

; 392  : {

  00000	55		 push	 ebp
  00001	8b ec		 mov	 ebp, esp
  00003	83 ec 1c	 sub	 esp, 28			; 0000001cH
  00006	53		 push	 ebx
; File C:\IAGOS\server\v18\Source\Source\_Network\Misc\Include\ar.h

; 146  : 	return (m_nMode & CAr::load) == 0;

  00007	8b 5d 08	 mov	 ebx, DWORD PTR _ar$[ebp]
; File C:\IAGOS\server\v18\Source\Source\_Common\Tax.cpp

; 392  : {

  0000a	56		 push	 esi
  0000b	8b f1		 mov	 esi, ecx

; 393  : 	if( ar.IsStoring() )

  0000d	8b cb		 mov	 ecx, ebx
  0000f	57		 push	 edi
; File C:\IAGOS\server\v18\Source\Source\_Network\Misc\Include\ar.h

; 146  : 	return (m_nMode & CAr::load) == 0;

  00010	f6 03 01	 test	 BYTE PTR [ebx], 1
; File C:\IAGOS\server\v18\Source\Source\_Common\Tax.cpp

; 392  : {

  00013	89 75 f8	 mov	 DWORD PTR _this$1$[ebp], esi

; 393  : 	if( ar.IsStoring() )

  00016	0f 85 1c 01 00
	00		 jne	 $LN14@Serialize

; 394  : 	{
; 395  : 		ar << m_mapTaxInfo.size();

  0001c	8b 46 0c	 mov	 eax, DWORD PTR [esi+12]
  0001f	89 45 fc	 mov	 DWORD PTR $T5[ebp], eax
  00022	8d 45 fc	 lea	 eax, DWORD PTR $T5[ebp]
  00025	50		 push	 eax
  00026	e8 00 00 00 00	 call	 ??$?6I@CAr@@QAEAAV0@ABI@Z ; CAr::operator<<<unsigned int>
; File C:\Program Files\Microsoft Visual Studio\2022\Professional\VC\Tools\MSVC\14.44.35207\include\xtree

; 1142 :         return iterator(_Scary->_Myhead->_Left, _Scary);

  0002b	8b 46 08	 mov	 eax, DWORD PTR [esi+8]

; 37   :     _Tree_unchecked_const_iterator(_Nodeptr _Pnode, const _Mytree* _Plist) noexcept : _Ptr(_Pnode) {

  0002e	8b 38		 mov	 edi, DWORD PTR [eax]
  00030	89 7d fc	 mov	 DWORD PTR _it$1$[ebp], edi

; 237  :         return !(*this == _Right);

  00033	3b f8		 cmp	 edi, eax
; File C:\IAGOS\server\v18\Source\Source\_Common\Tax.cpp

; 396  : 		for( TAXINFOMAP::iterator it=m_mapTaxInfo.begin(); it!=m_mapTaxInfo.end(); it++ )

  00035	0f 84 a7 01 00
	00		 je	 $LN9@Serialize
  0003b	0f 1f 44 00 00	 npad	 5
$LL4@Serialize:

; 397  : 		{
; 398  : 			__TAXINFO* taxInfo = it->second;

  00040	8b 77 14	 mov	 esi, DWORD PTR [edi+20]
; File C:\Program Files\Microsoft Visual Studio\2022\Professional\VC\Tools\MSVC\14.44.35207\include\xtree

; 185  :         return this->_Ptr->_Myval;

  00043	8d 47 10	 lea	 eax, DWORD PTR [edi+16]
; File C:\IAGOS\server\v18\Source\Source\_Common\Tax.cpp

; 399  : 			ar << it->first;

  00046	50		 push	 eax
  00047	8b cb		 mov	 ecx, ebx
  00049	89 75 f0	 mov	 DWORD PTR _taxInfo$1$[ebp], esi
  0004c	e8 00 00 00 00	 call	 ??$?6E@CAr@@QAEAAV0@ABE@Z ; CAr::operator<<<unsigned char>

; 400  : 
; 401  : 			ar << taxInfo->dwId;

  00051	56		 push	 esi
  00052	8b cb		 mov	 ecx, ebx
  00054	e8 00 00 00 00	 call	 ??$?6K@CAr@@QAEAAV0@ABK@Z ; CAr::operator<<<unsigned long>

; 402  : #ifdef __DBSERVER
; 403  : 			ar << taxInfo->bSetTaxRate;
; 404  : 			ar << taxInfo->dwNextId;
; 405  : #endif // __DBSERVER
; 406  : 			ar << taxInfo->mapTaxDetail.size();

  00059	8b 46 0c	 mov	 eax, DWORD PTR [esi+12]
  0005c	8b cb		 mov	 ecx, ebx
  0005e	89 45 f4	 mov	 DWORD PTR $T3[ebp], eax
  00061	8d 45 f4	 lea	 eax, DWORD PTR $T3[ebp]
  00064	50		 push	 eax
  00065	e8 00 00 00 00	 call	 ??$?6I@CAr@@QAEAAV0@ABI@Z ; CAr::operator<<<unsigned int>
; File C:\Program Files\Microsoft Visual Studio\2022\Professional\VC\Tools\MSVC\14.44.35207\include\xtree

; 1142 :         return iterator(_Scary->_Myhead->_Left, _Scary);

  0006a	8b 46 08	 mov	 eax, DWORD PTR [esi+8]

; 37   :     _Tree_unchecked_const_iterator(_Nodeptr _Pnode, const _Mytree* _Plist) noexcept : _Ptr(_Pnode) {

  0006d	8b 30		 mov	 esi, DWORD PTR [eax]

; 237  :         return !(*this == _Right);

  0006f	3b f0		 cmp	 esi, eax
; File C:\IAGOS\server\v18\Source\Source\_Common\Tax.cpp

; 407  : 			for( TAXDETAILMAP::iterator it2=taxInfo->mapTaxDetail.begin(); it2!=taxInfo->mapTaxDetail.end(); it2++ )

  00071	74 67		 je	 SHORT $LN2@Serialize
  00073	8b 7d 08	 mov	 edi, DWORD PTR _ar$[ebp]
$LL7@Serialize:

; 408  : 			{
; 409  : 				__TAXDETAIL* taxDetail = it2->second;

  00076	8b 5e 14	 mov	 ebx, DWORD PTR [esi+20]
; File C:\Program Files\Microsoft Visual Studio\2022\Professional\VC\Tools\MSVC\14.44.35207\include\xtree

; 185  :         return this->_Ptr->_Myval;

  00079	8d 46 10	 lea	 eax, DWORD PTR [esi+16]
; File C:\IAGOS\server\v18\Source\Source\_Common\Tax.cpp

; 410  : 				ar << it2->first;

  0007c	50		 push	 eax
  0007d	8b cf		 mov	 ecx, edi
  0007f	e8 00 00 00 00	 call	 ??$?6E@CAr@@QAEAAV0@ABE@Z ; CAr::operator<<<unsigned char>

; 411  : 
; 412  : 				ar << taxDetail->nTaxRate;

  00084	53		 push	 ebx
  00085	8b cf		 mov	 ecx, edi
  00087	e8 00 00 00 00	 call	 ??$?6H@CAr@@QAEAAV0@ABH@Z ; CAr::operator<<<int>
; File C:\Program Files\Microsoft Visual Studio\2022\Professional\VC\Tools\MSVC\14.44.35207\include\xtree

; 50   :         if (_Ptr->_Right->_Isnil) { // climb looking for right subtree

  0008c	8b 46 08	 mov	 eax, DWORD PTR [esi+8]
  0008f	80 78 0d 00	 cmp	 BYTE PTR [eax+13], 0
  00093	74 1f		 je	 SHORT $LN80@Serialize

; 51   :             _Nodeptr _Pnode;
; 52   :             while (!(_Pnode = _Ptr->_Parent)->_Isnil && _Ptr == _Pnode->_Right) {

  00095	8b 46 04	 mov	 eax, DWORD PTR [esi+4]
  00098	80 78 0d 00	 cmp	 BYTE PTR [eax+13], 0
  0009c	75 12		 jne	 SHORT $LN214@Serialize
  0009e	66 90		 npad	 2
$LL78@Serialize:
  000a0	3b 70 08	 cmp	 esi, DWORD PTR [eax+8]
  000a3	75 0b		 jne	 SHORT $LN214@Serialize

; 53   :                 _Ptr = _Pnode; // ==> parent while right subtree

  000a5	8b f0		 mov	 esi, eax
  000a7	8b 40 04	 mov	 eax, DWORD PTR [eax+4]
  000aa	80 78 0d 00	 cmp	 BYTE PTR [eax+13], 0
  000ae	74 f0		 je	 SHORT $LL78@Serialize
$LN214@Serialize:

; 54   :             }
; 55   : 
; 56   :             _Ptr = _Pnode; // ==> parent (head if end())

  000b0	8b f0		 mov	 esi, eax

; 57   :         } else {

  000b2	eb 18		 jmp	 SHORT $LN86@Serialize
$LN80@Serialize:

; 58   :             _Ptr = _Mytree::_Min(_Ptr->_Right); // ==> smallest of right subtree

  000b4	8b f0		 mov	 esi, eax

; 476  :         while (!_Pnode->_Left->_Isnil) {

  000b6	8b 0e		 mov	 ecx, DWORD PTR [esi]
  000b8	80 79 0d 00	 cmp	 BYTE PTR [ecx+13], 0
  000bc	75 0e		 jne	 SHORT $LN86@Serialize
  000be	66 90		 npad	 2
$LL85@Serialize:
  000c0	8b 01		 mov	 eax, DWORD PTR [ecx]

; 477  :             _Pnode = _Pnode->_Left;

  000c2	8b f1		 mov	 esi, ecx
  000c4	8b c8		 mov	 ecx, eax
  000c6	80 78 0d 00	 cmp	 BYTE PTR [eax+13], 0
  000ca	74 f4		 je	 SHORT $LL85@Serialize
$LN86@Serialize:

; 237  :         return !(*this == _Right);

  000cc	8b 45 f0	 mov	 eax, DWORD PTR _taxInfo$1$[ebp]
  000cf	3b 70 08	 cmp	 esi, DWORD PTR [eax+8]
; File C:\IAGOS\server\v18\Source\Source\_Common\Tax.cpp

; 407  : 			for( TAXDETAILMAP::iterator it2=taxInfo->mapTaxDetail.begin(); it2!=taxInfo->mapTaxDetail.end(); it2++ )

  000d2	75 a2		 jne	 SHORT $LL7@Serialize
  000d4	8b 7d fc	 mov	 edi, DWORD PTR _it$1$[ebp]
  000d7	8b 5d 08	 mov	 ebx, DWORD PTR _ar$[ebp]
$LN2@Serialize:
; File C:\Program Files\Microsoft Visual Studio\2022\Professional\VC\Tools\MSVC\14.44.35207\include\xtree

; 50   :         if (_Ptr->_Right->_Isnil) { // climb looking for right subtree

  000da	8b 47 08	 mov	 eax, DWORD PTR [edi+8]
  000dd	80 78 0d 00	 cmp	 BYTE PTR [eax+13], 0
  000e1	74 24		 je	 SHORT $LN62@Serialize

; 51   :             _Nodeptr _Pnode;
; 52   :             while (!(_Pnode = _Ptr->_Parent)->_Isnil && _Ptr == _Pnode->_Right) {

  000e3	8b 47 04	 mov	 eax, DWORD PTR [edi+4]
  000e6	80 78 0d 00	 cmp	 BYTE PTR [eax+13], 0
  000ea	75 14		 jne	 SHORT $LN215@Serialize
  000ec	0f 1f 40 00	 npad	 4
$LL60@Serialize:
  000f0	3b 78 08	 cmp	 edi, DWORD PTR [eax+8]
  000f3	75 0b		 jne	 SHORT $LN215@Serialize

; 53   :                 _Ptr = _Pnode; // ==> parent while right subtree

  000f5	8b f8		 mov	 edi, eax
  000f7	8b 40 04	 mov	 eax, DWORD PTR [eax+4]
  000fa	80 78 0d 00	 cmp	 BYTE PTR [eax+13], 0
  000fe	74 f0		 je	 SHORT $LL60@Serialize
$LN215@Serialize:

; 54   :             }
; 55   : 
; 56   :             _Ptr = _Pnode; // ==> parent (head if end())

  00100	8b f8		 mov	 edi, eax
  00102	89 7d fc	 mov	 DWORD PTR _it$1$[ebp], edi

; 57   :         } else {

  00105	eb 1c		 jmp	 SHORT $LN68@Serialize
$LN62@Serialize:

; 58   :             _Ptr = _Mytree::_Min(_Ptr->_Right); // ==> smallest of right subtree

  00107	8b f8		 mov	 edi, eax
  00109	89 7d fc	 mov	 DWORD PTR _it$1$[ebp], edi

; 476  :         while (!_Pnode->_Left->_Isnil) {

  0010c	8b 0f		 mov	 ecx, DWORD PTR [edi]
  0010e	80 79 0d 00	 cmp	 BYTE PTR [ecx+13], 0
  00112	75 0f		 jne	 SHORT $LN68@Serialize
$LL67@Serialize:
  00114	8b 01		 mov	 eax, DWORD PTR [ecx]

; 477  :             _Pnode = _Pnode->_Left;

  00116	8b f9		 mov	 edi, ecx
  00118	89 7d fc	 mov	 DWORD PTR _it$1$[ebp], edi
  0011b	8b c8		 mov	 ecx, eax
  0011d	80 78 0d 00	 cmp	 BYTE PTR [eax+13], 0
  00121	74 f1		 je	 SHORT $LL67@Serialize
$LN68@Serialize:

; 237  :         return !(*this == _Right);

  00123	8b 45 f8	 mov	 eax, DWORD PTR _this$1$[ebp]
  00126	3b 78 08	 cmp	 edi, DWORD PTR [eax+8]
; File C:\IAGOS\server\v18\Source\Source\_Common\Tax.cpp

; 396  : 		for( TAXINFOMAP::iterator it=m_mapTaxInfo.begin(); it!=m_mapTaxInfo.end(); it++ )

  00129	0f 85 11 ff ff
	ff		 jne	 $LL4@Serialize

; 438  : 			}
; 439  : 		}
; 440  : 	}
; 441  : }

  0012f	5f		 pop	 edi
  00130	5e		 pop	 esi
  00131	5b		 pop	 ebx
  00132	8b e5		 mov	 esp, ebp
  00134	5d		 pop	 ebp
  00135	c2 04 00	 ret	 4
$LN14@Serialize:

; 413  : 			}
; 414  : 		}
; 415  : 	}
; 416  : 	else
; 417  : 	{
; 418  : 		int nSize, nSize2;
; 419  : 		BYTE nCont, nTaxKind;
; 420  : 				
; 421  : 		ar >> nSize;

  00138	8d 45 08	 lea	 eax, DWORD PTR _nSize$6[ebp]
  0013b	50		 push	 eax
  0013c	e8 00 00 00 00	 call	 ??$?5H@CAr@@QAEAAV0@AAH@Z ; CAr::operator>><int>

; 422  : 		for( int i=0; i<nSize; i++ )

  00141	8b 45 08	 mov	 eax, DWORD PTR _nSize$6[ebp]
  00144	89 45 fc	 mov	 DWORD PTR _nSize$1$[ebp], eax
  00147	85 c0		 test	 eax, eax
  00149	0f 8e 93 00 00
	00		 jle	 $LN9@Serialize
  0014f	90		 npad	 1
$LL10@Serialize:

; 423  : 		{
; 424  : 			ar >> nCont;

  00150	8d 45 f0	 lea	 eax, DWORD PTR _nCont$2[ebp]
  00153	8b cb		 mov	 ecx, ebx
  00155	50		 push	 eax
  00156	e8 00 00 00 00	 call	 ??$?5E@CAr@@QAEAAV0@AAE@Z ; CAr::operator>><unsigned char>

; 425  : 			__TAXINFO* taxInfo = GetTaxInfo( nCont );

  0015b	ff 75 f0	 push	 DWORD PTR _nCont$2[ebp]
  0015e	8b ce		 mov	 ecx, esi
  00160	e8 00 00 00 00	 call	 ?GetTaxInfo@CTax@@QAEPAU__TAXINFO@@E@Z ; CTax::GetTaxInfo
  00165	8b f0		 mov	 esi, eax

; 426  : 			ar >> taxInfo->dwId;

  00167	8b cb		 mov	 ecx, ebx
  00169	56		 push	 esi
  0016a	e8 00 00 00 00	 call	 ??$?5K@CAr@@QAEAAV0@AAK@Z ; CAr::operator>><unsigned long>

; 427  : #ifdef __WORLDSERVER
; 428  : 			ar >> taxInfo->bSetTaxRate;

  0016f	8d 4e 04	 lea	 ecx, DWORD PTR [esi+4]
  00172	51		 push	 ecx
  00173	8b cb		 mov	 ecx, ebx
  00175	e8 00 00 00 00	 call	 ??$?5H@CAr@@QAEAAV0@AAH@Z ; CAr::operator>><int>

; 429  : 			ar >> taxInfo->dwNextId;

  0017a	8d 4e 10	 lea	 ecx, DWORD PTR [esi+16]
  0017d	51		 push	 ecx
  0017e	8b cb		 mov	 ecx, ebx
  00180	e8 00 00 00 00	 call	 ??$?5K@CAr@@QAEAAV0@AAK@Z ; CAr::operator>><unsigned long>

; 430  : #endif // __WORLDSERVER
; 431  : 			ar >> nSize2;

  00185	8d 45 f4	 lea	 eax, DWORD PTR _nSize2$4[ebp]
  00188	8b cb		 mov	 ecx, ebx
  0018a	50		 push	 eax
  0018b	e8 00 00 00 00	 call	 ??$?5H@CAr@@QAEAAV0@AAH@Z ; CAr::operator>><int>

; 432  : 			for( int j=0; j<nSize2; j++ )

  00190	8b 7d f4	 mov	 edi, DWORD PTR _nSize2$4[ebp]
  00193	85 ff		 test	 edi, edi
  00195	7e 3e		 jle	 SHORT $LN8@Serialize
$LL13@Serialize:

; 433  : 			{
; 434  : 				ar >> nTaxKind;

  00197	8d 45 0b	 lea	 eax, DWORD PTR _nTaxKind$7[ebp]
  0019a	8b cb		 mov	 ecx, ebx
  0019c	50		 push	 eax
  0019d	e8 00 00 00 00	 call	 ??$?5E@CAr@@QAEAAV0@AAE@Z ; CAr::operator>><unsigned char>
; File C:\Program Files\Microsoft Visual Studio\2022\Professional\VC\Tools\MSVC\14.44.35207\include\xtree

; 1384 :         const _Tree_find_result<_Nodeptr> _Loc = _Find_lower_bound(_Keyval);

  001a2	8d 45 0b	 lea	 eax, DWORD PTR _nTaxKind$7[ebp]
  001a5	50		 push	 eax
  001a6	8d 45 e4	 lea	 eax, DWORD PTR __Loc$1[ebp]
  001a9	50		 push	 eax
  001aa	8d 4e 08	 lea	 ecx, DWORD PTR [esi+8]
  001ad	e8 00 00 00 00	 call	 ??$_Find_lower_bound@E@?$_Tree@V?$_Tmap_traits@EPAU__TAXDETAIL@@U?$less@E@std@@V?$allocator@U?$pair@$$CBEPAU__TAXDETAIL@@@std@@@3@$0A@@std@@@std@@IBE?AU?$_Tree_find_result@PAU?$_Tree_node@U?$pair@$$CBEPAU__TAXDETAIL@@@std@@PAX@std@@@1@ABE@Z ; std::_Tree<std::_Tmap_traits<unsigned char,__TAXDETAIL *,std::less<unsigned char>,std::allocator<std::pair<unsigned char const ,__TAXDETAIL *> >,0> >::_Find_lower_bound<unsigned char>

; 1624 :         return !_Bound->_Isnil && !_DEBUG_LT_PRED(_Getcomp(), _Keyval, _Traits::_Kfn(_Bound->_Myval));

  001b2	8b 4d ec	 mov	 ecx, DWORD PTR __Loc$1[ebp+8]
  001b5	80 79 0d 00	 cmp	 BYTE PTR [ecx+13], 0
  001b9	75 08		 jne	 SHORT $LN110@Serialize
; File C:\Program Files\Microsoft Visual Studio\2022\Professional\VC\Tools\MSVC\14.44.35207\include\type_traits

; 2380 :         return _Left < _Right;

  001bb	8a 45 0b	 mov	 al, BYTE PTR _nTaxKind$7[ebp]
  001be	3a 41 10	 cmp	 al, BYTE PTR [ecx+16]
; File C:\Program Files\Microsoft Visual Studio\2022\Professional\VC\Tools\MSVC\14.44.35207\include\xtree

; 1624 :         return !_Bound->_Isnil && !_DEBUG_LT_PRED(_Getcomp(), _Keyval, _Traits::_Kfn(_Bound->_Myval));

  001c1	73 03		 jae	 SHORT $LN109@Serialize
$LN110@Serialize:

; 1389 :         return _Get_scary()->_Myhead;

  001c3	8b 4e 08	 mov	 ecx, DWORD PTR [esi+8]
$LN109@Serialize:
; File C:\IAGOS\server\v18\Source\Source\_Common\Tax.cpp

; 437  : 				ar >> taxDetail->nTaxRate;

  001c6	ff 71 14	 push	 DWORD PTR [ecx+20]
  001c9	8b cb		 mov	 ecx, ebx
  001cb	e8 00 00 00 00	 call	 ??$?5H@CAr@@QAEAAV0@AAH@Z ; CAr::operator>><int>
  001d0	83 ef 01	 sub	 edi, 1
  001d3	75 c2		 jne	 SHORT $LL13@Serialize
$LN8@Serialize:

; 422  : 		for( int i=0; i<nSize; i++ )

  001d5	83 6d fc 01	 sub	 DWORD PTR _nSize$1$[ebp], 1
  001d9	8b 75 f8	 mov	 esi, DWORD PTR _this$1$[ebp]
  001dc	0f 85 6e ff ff
	ff		 jne	 $LL10@Serialize
$LN9@Serialize:
  001e2	5f		 pop	 edi

; 438  : 			}
; 439  : 		}
; 440  : 	}
; 441  : }

  001e3	5e		 pop	 esi
  001e4	5b		 pop	 ebx
  001e5	8b e5		 mov	 esp, ebp
  001e7	5d		 pop	 ebp
  001e8	c2 04 00	 ret	 4
?Serialize@CTax@@QAEXAAVCAr@@@Z ENDP			; CTax::Serialize
_TEXT	ENDS
; Function compile flags: /Ogtp
; File C:\IAGOS\server\v18\Source\Source\_Common\Tax.cpp
;	COMDAT ?GetInstance@CTax@@SAPAV1@XZ
_TEXT	SEGMENT
__$EHRec$ = -12						; size = 12
?GetInstance@CTax@@SAPAV1@XZ PROC			; CTax::GetInstance, COMDAT

; 78   : {

  00000	55		 push	 ebp
  00001	8b ec		 mov	 ebp, esp
  00003	6a ff		 push	 -1
  00005	68 00 00 00 00	 push	 __ehhandler$?GetInstance@CTax@@SAPAV1@XZ
  0000a	64 a1 00 00 00
	00		 mov	 eax, DWORD PTR fs:0
  00010	50		 push	 eax
  00011	a1 00 00 00 00	 mov	 eax, DWORD PTR ___security_cookie
  00016	33 c5		 xor	 eax, ebp
  00018	50		 push	 eax
  00019	8d 45 f4	 lea	 eax, DWORD PTR __$EHRec$[ebp]
  0001c	64 a3 00 00 00
	00		 mov	 DWORD PTR fs:0, eax

; 79   : 	static CTax sTax;

  00022	64 a1 00 00 00
	00		 mov	 eax, DWORD PTR fs:__tls_array
  00028	8b 0d 00 00 00
	00		 mov	 ecx, DWORD PTR __tls_index
  0002e	8b 0c 88	 mov	 ecx, DWORD PTR [eax+ecx*4]
  00031	a1 00 00 00 00	 mov	 eax, DWORD PTR ?$TSS0@?1??GetInstance@CTax@@SAPAV2@XZ@4HA
  00036	3b 81 00 00 00
	00		 cmp	 eax, DWORD PTR __Init_thread_epoch[ecx]
  0003c	7f 14		 jg	 SHORT $LN9@GetInstanc
$LN5@GetInstanc:

; 80   : 	return &sTax;
; 81   : }

  0003e	b8 00 00 00 00	 mov	 eax, OFFSET ?sTax@?1??GetInstance@CTax@@SAPAV2@XZ@4V2@A
  00043	8b 4d f4	 mov	 ecx, DWORD PTR __$EHRec$[ebp]
  00046	64 89 0d 00 00
	00 00		 mov	 DWORD PTR fs:0, ecx
  0004d	59		 pop	 ecx
  0004e	8b e5		 mov	 esp, ebp
  00050	5d		 pop	 ebp
  00051	c3		 ret	 0
$LN9@GetInstanc:

; 79   : 	static CTax sTax;

  00052	68 00 00 00 00	 push	 OFFSET ?$TSS0@?1??GetInstance@CTax@@SAPAV2@XZ@4HA
  00057	e8 00 00 00 00	 call	 __Init_thread_header
  0005c	83 c4 04	 add	 esp, 4
  0005f	83 3d 00 00 00
	00 ff		 cmp	 DWORD PTR ?$TSS0@?1??GetInstance@CTax@@SAPAV2@XZ@4HA, -1
  00066	75 d6		 jne	 SHORT $LN5@GetInstanc
  00068	b9 00 00 00 00	 mov	 ecx, OFFSET ?sTax@?1??GetInstance@CTax@@SAPAV2@XZ@4V2@A
  0006d	c7 45 fc 00 00
	00 00		 mov	 DWORD PTR __$EHRec$[ebp+8], 0
  00074	e8 00 00 00 00	 call	 ??0CTax@@QAE@XZ		; CTax::CTax
  00079	68 00 00 00 00	 push	 OFFSET ??__FsTax@?1??GetInstance@CTax@@SAPAV1@XZ@YAXXZ ; `CTax::GetInstance'::`2'::`dynamic atexit destructor for 'sTax''
  0007e	e8 00 00 00 00	 call	 _atexit
  00083	68 00 00 00 00	 push	 OFFSET ?$TSS0@?1??GetInstance@CTax@@SAPAV2@XZ@4HA
  00088	e8 00 00 00 00	 call	 __Init_thread_footer
  0008d	83 c4 08	 add	 esp, 8
  00090	eb ac		 jmp	 SHORT $LN5@GetInstanc
_TEXT	ENDS
;	COMDAT text$x
text$x	SEGMENT
__unwindfunclet$?GetInstance@CTax@@SAPAV1@XZ$0:
  00000	68 00 00 00 00	 push	 OFFSET ?$TSS0@?1??GetInstance@CTax@@SAPAV2@XZ@4HA
  00005	e8 00 00 00 00	 call	 __Init_thread_abort
  0000a	59		 pop	 ecx
  0000b	c3		 ret	 0
  0000c	cc		 int	 3
  0000d	cc		 int	 3
  0000e	cc		 int	 3
  0000f	cc		 int	 3
  00010	cc		 int	 3
__ehhandler$?GetInstance@CTax@@SAPAV1@XZ:
  00011	90		 npad	 1
  00012	90		 npad	 1
  00013	8b 54 24 08	 mov	 edx, DWORD PTR [esp+8]
  00017	8d 42 0c	 lea	 eax, DWORD PTR [edx+12]
  0001a	8b 4a fc	 mov	 ecx, DWORD PTR [edx-4]
  0001d	33 c8		 xor	 ecx, eax
  0001f	e8 00 00 00 00	 call	 @__security_check_cookie@4
  00024	b8 00 00 00 00	 mov	 eax, OFFSET __ehfuncinfo$?GetInstance@CTax@@SAPAV1@XZ
  00029	e9 00 00 00 00	 jmp	 ___CxxFrameHandler3
text$x	ENDS
?GetInstance@CTax@@SAPAV1@XZ ENDP			; CTax::GetInstance
; Function compile flags: /Ogtp
; File C:\IAGOS\server\v18\Source\Source\_Common\Tax.cpp
; File C:\Program Files\Microsoft Visual Studio\2022\Professional\VC\Tools\MSVC\14.44.35207\include\xtree
; File C:\IAGOS\server\v18\Source\Source\_Common\Tax.cpp
; File C:\Program Files\Microsoft Visual Studio\2022\Professional\VC\Tools\MSVC\14.44.35207\include\xtree
; File C:\IAGOS\server\v18\Source\Source\_Common\Tax.cpp
; File C:\Program Files\Microsoft Visual Studio\2022\Professional\VC\Tools\MSVC\14.44.35207\include\xtree
; File C:\IAGOS\server\v18\Source\Source\_Common\Tax.cpp
; File C:\Program Files\Microsoft Visual Studio\2022\Professional\VC\Tools\MSVC\14.44.35207\include\xtree
; File C:\IAGOS\server\v18\Source\Source\_Common\Tax.cpp
; File C:\Program Files\Microsoft Visual Studio\2022\Professional\VC\Tools\MSVC\14.44.35207\include\xtree
; File C:\IAGOS\server\v18\Source\Source\_Common\Tax.cpp
; File C:\Program Files\Microsoft Visual Studio\2022\Professional\VC\Tools\MSVC\14.44.35207\include\xtree
; File C:\Program Files\Microsoft Visual Studio\2022\Professional\VC\Tools\MSVC\14.44.35207\include\utility
; File C:\Program Files\Microsoft Visual Studio\2022\Professional\VC\Tools\MSVC\14.44.35207\include\xmemory
; File C:\Program Files\Microsoft Visual Studio\2022\Professional\VC\Tools\MSVC\14.44.35207\include\xtree
; File C:\Program Files\Microsoft Visual Studio\2022\Professional\VC\Tools\MSVC\14.44.35207\include\xmemory
; File C:\Program Files\Microsoft Visual Studio\2022\Professional\VC\Tools\MSVC\14.44.35207\include\xtree
; File C:\Program Files\Microsoft Visual Studio\2022\Professional\VC\Tools\MSVC\14.44.35207\include\vector
; File C:\Program Files\Microsoft Visual Studio\2022\Professional\VC\Tools\MSVC\14.44.35207\include\xtree
; File C:\Program Files\Microsoft Visual Studio\2022\Professional\VC\Tools\MSVC\14.44.35207\include\vector
; File C:\Program Files\Microsoft Visual Studio\2022\Professional\VC\Tools\MSVC\14.44.35207\include\xtree
; File C:\Program Files\Microsoft Visual Studio\2022\Professional\VC\Tools\MSVC\14.44.35207\include\vector
; File C:\IAGOS\server\v18\Source\Source\_Common\Tax.cpp
;	COMDAT ??1CTax@@QAE@XZ
_TEXT	SEGMENT
_this$1$ = -12						; size = 4
_taxInfo$1$ = -8					; size = 4
_this$1$ = -4						; size = 4
??1CTax@@QAE@XZ PROC					; CTax::~CTax, COMDAT
; _this$ = ecx

; 50   : {

  00000	55		 push	 ebp
  00001	8b ec		 mov	 ebp, esp
  00003	83 ec 0c	 sub	 esp, 12			; 0000000cH
  00006	8b c1		 mov	 eax, ecx
  00008	53		 push	 ebx
; File C:\Program Files\Microsoft Visual Studio\2022\Professional\VC\Tools\MSVC\14.44.35207\include\xtree

; 1142 :         return iterator(_Scary->_Myhead->_Left, _Scary);

  00009	8b 58 08	 mov	 ebx, DWORD PTR [eax+8]
  0000c	8d 50 08	 lea	 edx, DWORD PTR [eax+8]
; File C:\IAGOS\server\v18\Source\Source\_Common\Tax.cpp

; 50   : {

  0000f	56		 push	 esi
  00010	57		 push	 edi
  00011	89 45 f4	 mov	 DWORD PTR _this$1$[ebp], eax
; File C:\Program Files\Microsoft Visual Studio\2022\Professional\VC\Tools\MSVC\14.44.35207\include\xtree

; 37   :     _Tree_unchecked_const_iterator(_Nodeptr _Pnode, const _Mytree* _Plist) noexcept : _Ptr(_Pnode) {

  00014	8b 3b		 mov	 edi, DWORD PTR [ebx]

; 1142 :         return iterator(_Scary->_Myhead->_Left, _Scary);

  00016	89 55 fc	 mov	 DWORD PTR _this$1$[ebp], edx

; 237  :         return !(*this == _Right);

  00019	3b fb		 cmp	 edi, ebx
; File C:\IAGOS\server\v18\Source\Source\_Common\Tax.cpp

; 51   : 	for( TAXINFOMAP::iterator it = m_mapTaxInfo.begin(); it!=m_mapTaxInfo.end(); it++ )

  0001b	0f 84 d5 00 00
	00		 je	 $LN3@CTax
$LL4@CTax:

; 52   : 	{
; 53   : 		__TAXINFO* taxInfo = it->second;

  00021	8b 47 14	 mov	 eax, DWORD PTR [edi+20]
  00024	89 45 f8	 mov	 DWORD PTR _taxInfo$1$[ebp], eax

; 54   : 		if( taxInfo )

  00027	85 c0		 test	 eax, eax
  00029	0f 84 7a 00 00
	00		 je	 $LN2@CTax
; File C:\Program Files\Microsoft Visual Studio\2022\Professional\VC\Tools\MSVC\14.44.35207\include\xtree

; 1142 :         return iterator(_Scary->_Myhead->_Left, _Scary);

  0002f	8d 58 08	 lea	 ebx, DWORD PTR [eax+8]
  00032	8b 03		 mov	 eax, DWORD PTR [ebx]

; 37   :     _Tree_unchecked_const_iterator(_Nodeptr _Pnode, const _Mytree* _Plist) noexcept : _Ptr(_Pnode) {

  00034	8b 30		 mov	 esi, DWORD PTR [eax]

; 237  :         return !(*this == _Right);

  00036	3b f0		 cmp	 esi, eax
; File C:\IAGOS\server\v18\Source\Source\_Common\Tax.cpp

; 56   : 			for( TAXDETAILMAP::iterator it2=taxInfo->mapTaxDetail.begin(); it2!=taxInfo->mapTaxDetail.end(); it2++ )

  00038	74 58		 je	 SHORT $LN6@CTax
  0003a	66 0f 1f 44 00
	00		 npad	 6
$LL7@CTax:

; 57   : 			{
; 58   : 				__TAXDETAIL* taxDetail = it2->second;

  00040	8b 46 14	 mov	 eax, DWORD PTR [esi+20]

; 59   : 				if( taxDetail )

  00043	85 c0		 test	 eax, eax
  00045	74 0b		 je	 SHORT $LN5@CTax

; 60   : 					safe_delete( taxDetail );

  00047	6a 04		 push	 4
  00049	50		 push	 eax
  0004a	e8 00 00 00 00	 call	 ??3@YAXPAXI@Z		; operator delete
  0004f	83 c4 08	 add	 esp, 8
$LN5@CTax:
; File C:\Program Files\Microsoft Visual Studio\2022\Professional\VC\Tools\MSVC\14.44.35207\include\xtree

; 50   :         if (_Ptr->_Right->_Isnil) { // climb looking for right subtree

  00052	8b 46 08	 mov	 eax, DWORD PTR [esi+8]
  00055	80 78 0d 00	 cmp	 BYTE PTR [eax+13], 0
  00059	74 1d		 je	 SHORT $LN77@CTax

; 51   :             _Nodeptr _Pnode;
; 52   :             while (!(_Pnode = _Ptr->_Parent)->_Isnil && _Ptr == _Pnode->_Right) {

  0005b	8b 46 04	 mov	 eax, DWORD PTR [esi+4]
  0005e	80 78 0d 00	 cmp	 BYTE PTR [eax+13], 0
  00062	75 10		 jne	 SHORT $LN216@CTax
$LL75@CTax:
  00064	3b 70 08	 cmp	 esi, DWORD PTR [eax+8]
  00067	75 0b		 jne	 SHORT $LN216@CTax

; 53   :                 _Ptr = _Pnode; // ==> parent while right subtree

  00069	8b f0		 mov	 esi, eax
  0006b	8b 40 04	 mov	 eax, DWORD PTR [eax+4]
  0006e	80 78 0d 00	 cmp	 BYTE PTR [eax+13], 0
  00072	74 f0		 je	 SHORT $LL75@CTax
$LN216@CTax:

; 54   :             }
; 55   : 
; 56   :             _Ptr = _Pnode; // ==> parent (head if end())

  00074	8b f0		 mov	 esi, eax

; 57   :         } else {

  00076	eb 16		 jmp	 SHORT $LN83@CTax
$LN77@CTax:

; 58   :             _Ptr = _Mytree::_Min(_Ptr->_Right); // ==> smallest of right subtree

  00078	8b f0		 mov	 esi, eax

; 476  :         while (!_Pnode->_Left->_Isnil) {

  0007a	8b 0e		 mov	 ecx, DWORD PTR [esi]
  0007c	80 79 0d 00	 cmp	 BYTE PTR [ecx+13], 0
  00080	75 0c		 jne	 SHORT $LN83@CTax
$LL82@CTax:
  00082	8b 01		 mov	 eax, DWORD PTR [ecx]

; 477  :             _Pnode = _Pnode->_Left;

  00084	8b f1		 mov	 esi, ecx
  00086	8b c8		 mov	 ecx, eax
  00088	80 78 0d 00	 cmp	 BYTE PTR [eax+13], 0
  0008c	74 f4		 je	 SHORT $LL82@CTax
$LN83@CTax:

; 237  :         return !(*this == _Right);

  0008e	3b 33		 cmp	 esi, DWORD PTR [ebx]
; File C:\IAGOS\server\v18\Source\Source\_Common\Tax.cpp

; 56   : 			for( TAXDETAILMAP::iterator it2=taxInfo->mapTaxDetail.begin(); it2!=taxInfo->mapTaxDetail.end(); it2++ )

  00090	75 ae		 jne	 SHORT $LL7@CTax
$LN6@CTax:
  00092	8b cb		 mov	 ecx, ebx
  00094	e8 00 00 00 00	 call	 ??1?$_Tree@V?$_Tmap_traits@EPAU__TAXDETAIL@@U?$less@E@std@@V?$allocator@U?$pair@$$CBEPAU__TAXDETAIL@@@std@@@3@$0A@@std@@@std@@QAE@XZ ; std::_Tree<std::_Tmap_traits<unsigned char,__TAXDETAIL *,std::less<unsigned char>,std::allocator<std::pair<unsigned char const ,__TAXDETAIL *> >,0> >::~_Tree<std::_Tmap_traits<unsigned char,__TAXDETAIL *,std::less<unsigned char>,std::allocator<std::pair<unsigned char const ,__TAXDETAIL *> >,0> >
  00099	6a 14		 push	 20			; 00000014H
  0009b	ff 75 f8	 push	 DWORD PTR _taxInfo$1$[ebp]
  0009e	e8 00 00 00 00	 call	 ??3@YAXPAXI@Z		; operator delete
  000a3	8b 55 fc	 mov	 edx, DWORD PTR _this$1$[ebp]
  000a6	83 c4 08	 add	 esp, 8
$LN2@CTax:
; File C:\Program Files\Microsoft Visual Studio\2022\Professional\VC\Tools\MSVC\14.44.35207\include\xtree

; 50   :         if (_Ptr->_Right->_Isnil) { // climb looking for right subtree

  000a9	8b 47 08	 mov	 eax, DWORD PTR [edi+8]
  000ac	80 78 0d 00	 cmp	 BYTE PTR [eax+13], 0
  000b0	74 22		 je	 SHORT $LN41@CTax

; 51   :             _Nodeptr _Pnode;
; 52   :             while (!(_Pnode = _Ptr->_Parent)->_Isnil && _Ptr == _Pnode->_Right) {

  000b2	8b 47 04	 mov	 eax, DWORD PTR [edi+4]
  000b5	80 78 0d 00	 cmp	 BYTE PTR [eax+13], 0
  000b9	75 15		 jne	 SHORT $LN217@CTax
  000bb	0f 1f 44 00 00	 npad	 5
$LL39@CTax:
  000c0	3b 78 08	 cmp	 edi, DWORD PTR [eax+8]
  000c3	75 0b		 jne	 SHORT $LN217@CTax

; 53   :                 _Ptr = _Pnode; // ==> parent while right subtree

  000c5	8b f8		 mov	 edi, eax
  000c7	8b 40 04	 mov	 eax, DWORD PTR [eax+4]
  000ca	80 78 0d 00	 cmp	 BYTE PTR [eax+13], 0
  000ce	74 f0		 je	 SHORT $LL39@CTax
$LN217@CTax:

; 54   :             }
; 55   : 
; 56   :             _Ptr = _Pnode; // ==> parent (head if end())

  000d0	8b f8		 mov	 edi, eax

; 57   :         } else {

  000d2	eb 18		 jmp	 SHORT $LN47@CTax
$LN41@CTax:

; 58   :             _Ptr = _Mytree::_Min(_Ptr->_Right); // ==> smallest of right subtree

  000d4	8b f8		 mov	 edi, eax

; 476  :         while (!_Pnode->_Left->_Isnil) {

  000d6	8b 0f		 mov	 ecx, DWORD PTR [edi]
  000d8	80 79 0d 00	 cmp	 BYTE PTR [ecx+13], 0
  000dc	75 0e		 jne	 SHORT $LN47@CTax
  000de	66 90		 npad	 2
$LL46@CTax:
  000e0	8b 01		 mov	 eax, DWORD PTR [ecx]

; 477  :             _Pnode = _Pnode->_Left;

  000e2	8b f9		 mov	 edi, ecx
  000e4	8b c8		 mov	 ecx, eax
  000e6	80 78 0d 00	 cmp	 BYTE PTR [eax+13], 0
  000ea	74 f4		 je	 SHORT $LL46@CTax
$LN47@CTax:

; 37   :     _Tree_unchecked_const_iterator(_Nodeptr _Pnode, const _Mytree* _Plist) noexcept : _Ptr(_Pnode) {

  000ec	8b 1a		 mov	 ebx, DWORD PTR [edx]

; 237  :         return !(*this == _Right);

  000ee	3b fb		 cmp	 edi, ebx
; File C:\IAGOS\server\v18\Source\Source\_Common\Tax.cpp

; 51   : 	for( TAXINFOMAP::iterator it = m_mapTaxInfo.begin(); it!=m_mapTaxInfo.end(); it++ )

  000f0	0f 85 2b ff ff
	ff		 jne	 $LL4@CTax
$LN3@CTax:
; File C:\Program Files\Microsoft Visual Studio\2022\Professional\VC\Tools\MSVC\14.44.35207\include\xtree

; 1374 :         _Scary->_Erase_tree(_Getal(), _Head->_Parent);

  000f6	8b 73 04	 mov	 esi, DWORD PTR [ebx+4]

; 768  :         while (!_Rootnode->_Isnil) { // free subtrees, then node

  000f9	80 7e 0d 00	 cmp	 BYTE PTR [esi+13], 0
  000fd	75 24		 jne	 SHORT $LN201@CTax
  000ff	90		 npad	 1
$LL122@CTax:

; 769  :             _Erase_tree(_Al, _Rootnode->_Right);

  00100	ff 76 08	 push	 DWORD PTR [esi+8]
  00103	8b ca		 mov	 ecx, edx
  00105	52		 push	 edx
  00106	e8 00 00 00 00	 call	 ??$_Erase_tree@V?$allocator@U?$_Tree_node@U?$pair@$$CBEPAU__TAXINFO@@@std@@PAX@std@@@std@@@?$_Tree_val@U?$_Tree_simple_types@U?$pair@$$CBEPAU__TAXINFO@@@std@@@std@@@std@@QAEXAAV?$allocator@U?$_Tree_node@U?$pair@$$CBEPAU__TAXINFO@@@std@@PAX@std@@@1@PAU?$_Tree_node@U?$pair@$$CBEPAU__TAXINFO@@@std@@PAX@1@@Z ; std::_Tree_val<std::_Tree_simple_types<std::pair<unsigned char const ,__TAXINFO *> > >::_Erase_tree<std::allocator<std::_Tree_node<std::pair<unsigned char const ,__TAXINFO *>,void *> > >
; File C:\Program Files\Microsoft Visual Studio\2022\Professional\VC\Tools\MSVC\14.44.35207\include\utility

; 773  :     _Ty _Old_val = static_cast<_Ty&&>(_Val);

  0010b	8b c6		 mov	 eax, esi

; 774  :     _Val         = static_cast<_Other&&>(_New_val);

  0010d	8b 36		 mov	 esi, DWORD PTR [esi]
; File C:\Program Files\Microsoft Visual Studio\2022\Professional\VC\Tools\MSVC\14.44.35207\include\xmemory

; 289  :         ::operator delete(_Ptr, _Bytes);

  0010f	6a 18		 push	 24			; 00000018H
  00111	50		 push	 eax
  00112	e8 00 00 00 00	 call	 ??3@YAXPAXI@Z		; operator delete
; File C:\Program Files\Microsoft Visual Studio\2022\Professional\VC\Tools\MSVC\14.44.35207\include\xtree

; 768  :         while (!_Rootnode->_Isnil) { // free subtrees, then node

  00117	8b 55 fc	 mov	 edx, DWORD PTR _this$1$[ebp]
; File C:\Program Files\Microsoft Visual Studio\2022\Professional\VC\Tools\MSVC\14.44.35207\include\xmemory

; 289  :         ::operator delete(_Ptr, _Bytes);

  0011a	83 c4 08	 add	 esp, 8
; File C:\Program Files\Microsoft Visual Studio\2022\Professional\VC\Tools\MSVC\14.44.35207\include\xtree

; 768  :         while (!_Rootnode->_Isnil) { // free subtrees, then node

  0011d	80 7e 0d 00	 cmp	 BYTE PTR [esi+13], 0
  00121	74 dd		 je	 SHORT $LL122@CTax
$LN201@CTax:
; File C:\Program Files\Microsoft Visual Studio\2022\Professional\VC\Tools\MSVC\14.44.35207\include\vector

; 1808 :         auto& _My_data    = _Mypair._Myval2;

  00123	8b 4d f4	 mov	 ecx, DWORD PTR _this$1$[ebp]
  00126	83 c1 10	 add	 ecx, 16			; 00000010H
; File C:\Program Files\Microsoft Visual Studio\2022\Professional\VC\Tools\MSVC\14.44.35207\include\xtree

; 1375 :         _Head->_Parent  = _Head;

  00129	89 5b 04	 mov	 DWORD PTR [ebx+4], ebx

; 1376 :         _Head->_Left    = _Head;

  0012c	89 1b		 mov	 DWORD PTR [ebx], ebx

; 1377 :         _Head->_Right   = _Head;

  0012e	89 5b 08	 mov	 DWORD PTR [ebx+8], ebx
; File C:\Program Files\Microsoft Visual Studio\2022\Professional\VC\Tools\MSVC\14.44.35207\include\vector

; 1812 :         if (_Myfirst == _Mylast) { // already empty, nothing to do

  00131	5f		 pop	 edi
; File C:\Program Files\Microsoft Visual Studio\2022\Professional\VC\Tools\MSVC\14.44.35207\include\xtree

; 1378 :         _Scary->_Mysize = 0;

  00132	c7 42 04 00 00
	00 00		 mov	 DWORD PTR [edx+4], 0
; File C:\Program Files\Microsoft Visual Studio\2022\Professional\VC\Tools\MSVC\14.44.35207\include\vector

; 1812 :         if (_Myfirst == _Mylast) { // already empty, nothing to do

  00139	8b 01		 mov	 eax, DWORD PTR [ecx]
  0013b	5e		 pop	 esi
  0013c	5b		 pop	 ebx
  0013d	3b 41 04	 cmp	 eax, DWORD PTR [ecx+4]
  00140	74 03		 je	 SHORT $LN153@CTax

; 1813 :             // This is an optimization for debug mode: we can avoid taking the debug lock to invalidate iterators.
; 1814 :             // Note that when clearing an empty vector, this will preserve past-the-end iterators, which is allowed by
; 1815 :             // N4950 [sequence.reqmts]/54 "a.clear() [...] may invalidate the past-the-end iterator".
; 1816 :             return;
; 1817 :         }
; 1818 : 
; 1819 :         _My_data._Orphan_all();
; 1820 :         _Destroy_range(_Myfirst, _Mylast, _Getal());
; 1821 :         _ASAN_VECTOR_MODIFY(static_cast<difference_type>(_Myfirst - _Mylast)); // negative when destroying elements
; 1822 :         _Mylast = _Myfirst;

  00142	89 41 04	 mov	 DWORD PTR [ecx+4], eax
$LN153@CTax:
; File C:\IAGOS\server\v18\Source\Source\_Common\Tax.cpp

; 74   : }

  00145	e8 00 00 00 00	 call	 ??1?$vector@KV?$allocator@K@std@@@std@@QAE@XZ ; std::vector<unsigned long,std::allocator<unsigned long> >::~vector<unsigned long,std::allocator<unsigned long> >
  0014a	8b 4d fc	 mov	 ecx, DWORD PTR _this$1$[ebp]
  0014d	e8 00 00 00 00	 call	 ??1?$_Tree@V?$_Tmap_traits@EPAU__TAXINFO@@U?$less@E@std@@V?$allocator@U?$pair@$$CBEPAU__TAXINFO@@@std@@@3@$0A@@std@@@std@@QAE@XZ ; std::_Tree<std::_Tmap_traits<unsigned char,__TAXINFO *,std::less<unsigned char>,std::allocator<std::pair<unsigned char const ,__TAXINFO *> >,0> >::~_Tree<std::_Tmap_traits<unsigned char,__TAXINFO *,std::less<unsigned char>,std::allocator<std::pair<unsigned char const ,__TAXINFO *> >,0> >
  00152	8b e5		 mov	 esp, ebp
  00154	5d		 pop	 ebp
  00155	c3		 ret	 0
??1CTax@@QAE@XZ ENDP					; CTax::~CTax
_TEXT	ENDS
; Function compile flags: /Ogtp
; File C:\IAGOS\server\v18\Source\Source\_Common\Tax.cpp
; File C:\Program Files\Microsoft Visual Studio\2022\Professional\VC\Tools\MSVC\14.44.35207\include\xmemory
; File C:\Program Files\Microsoft Visual Studio\2022\Professional\VC\Tools\MSVC\14.44.35207\include\xtree
; File C:\Program Files\Microsoft Visual Studio\2022\Professional\VC\Tools\MSVC\14.44.35207\include\xmemory
; File C:\Program Files\Microsoft Visual Studio\2022\Professional\VC\Tools\MSVC\14.44.35207\include\xtree
; File C:\IAGOS\server\v18\Source\Source\_Common\Tax.cpp
; File C:\Program Files\Microsoft Visual Studio\2022\Professional\VC\Tools\MSVC\14.44.35207\include\vector
; File C:\IAGOS\server\v18\Source\Source\_Common\Tax.cpp
; File C:\Program Files\Microsoft Visual Studio\2022\Professional\VC\Tools\MSVC\14.44.35207\include\utility
; File C:\IAGOS\server\v18\Source\Source\_Common\Tax.cpp
; File C:\Program Files\Microsoft Visual Studio\2022\Professional\VC\Tools\MSVC\14.44.35207\include\utility
; File C:\IAGOS\server\v18\Source\Source\_Common\Tax.cpp
; File C:\IAGOS\server\v18\Source\Source\_Common\tax.h
; File C:\IAGOS\server\v18\Source\Source\_Common\Tax.cpp
; File C:\Program Files\Microsoft Visual Studio\2022\Professional\VC\Tools\MSVC\14.44.35207\include\utility
; File C:\Program Files\Microsoft Visual Studio\2022\Professional\VC\Tools\MSVC\14.44.35207\include\xtree
; File C:\IAGOS\server\v18\Source\Source\_Common\Tax.cpp
; File C:\Program Files\Microsoft Visual Studio\2022\Professional\VC\Tools\MSVC\14.44.35207\include\xtree
; File C:\Program Files\Microsoft Visual Studio\2022\Professional\VC\Tools\MSVC\14.44.35207\include\utility
; File C:\Program Files\Microsoft Visual Studio\2022\Professional\VC\Tools\MSVC\14.44.35207\include\xtree
; File C:\Program Files\Microsoft Visual Studio\2022\Professional\VC\Tools\MSVC\14.44.35207\include\type_traits
; File C:\Program Files\Microsoft Visual Studio\2022\Professional\VC\Tools\MSVC\14.44.35207\include\xtree
; File C:\IAGOS\server\v18\Source\Source\_Common\Tax.cpp
; File C:\Program Files\Microsoft Visual Studio\2022\Professional\VC\Tools\MSVC\14.44.35207\include\utility
; File C:\IAGOS\server\v18\Source\Source\_Common\Tax.cpp
; File C:\Program Files\Microsoft Visual Studio\2022\Professional\VC\Tools\MSVC\14.44.35207\include\utility
; File C:\IAGOS\server\v18\Source\Source\_Common\Tax.cpp
; File C:\Program Files\Microsoft Visual Studio\2022\Professional\VC\Tools\MSVC\14.44.35207\include\utility
; File C:\IAGOS\server\v18\Source\Source\_Common\Tax.cpp
; File C:\Program Files\Microsoft Visual Studio\2022\Professional\VC\Tools\MSVC\14.44.35207\include\utility
; File C:\IAGOS\server\v18\Source\Source\_Common\Tax.cpp
; File C:\IAGOS\server\v18\Source\Source\_Common\tax.h
; File C:\IAGOS\server\v18\Source\Source\_Common\Tax.cpp
; File C:\Program Files\Microsoft Visual Studio\2022\Professional\VC\Tools\MSVC\14.44.35207\include\utility
; File C:\Program Files\Microsoft Visual Studio\2022\Professional\VC\Tools\MSVC\14.44.35207\include\xtree
; File C:\IAGOS\server\v18\Source\Source\_Common\Tax.cpp
; File C:\Program Files\Microsoft Visual Studio\2022\Professional\VC\Tools\MSVC\14.44.35207\include\xtree
; File C:\Program Files\Microsoft Visual Studio\2022\Professional\VC\Tools\MSVC\14.44.35207\include\utility
; File C:\Program Files\Microsoft Visual Studio\2022\Professional\VC\Tools\MSVC\14.44.35207\include\xtree
; File C:\IAGOS\server\v18\Source\Source\_Common\Tax.cpp
;	COMDAT ??0CTax@@QAE@XZ
_TEXT	SEGMENT
__Loc$2 = -40						; size = 12
__Loc$3 = -40						; size = 12
$T4 = -36						; size = 8
$T5 = -36						; size = 8
$T6 = -36						; size = 8
$T7 = -36						; size = 8
$T8 = -36						; size = 8
$T9 = -28						; size = 8
$T10 = -28						; size = 8
$T11 = -28						; size = 8
$T12 = -28						; size = 8
$T13 = -28						; size = 8
$T14 = -24						; size = 4
$T15 = -24						; size = 4
$T16 = -24						; size = 4
$T17 = -24						; size = 4
$T18 = -24						; size = 4
_this$ = -24						; size = 4
_this$ = -20						; size = 4
$T19 = -13						; size = 1
$T20 = -13						; size = 1
__$EHRec$ = -12						; size = 12
??0CTax@@QAE@XZ PROC					; CTax::CTax, COMDAT
; _this$ = ecx

; 25   : {

  00000	55		 push	 ebp
  00001	8b ec		 mov	 ebp, esp
  00003	6a ff		 push	 -1
  00005	68 00 00 00 00	 push	 __ehhandler$??0CTax@@QAE@XZ
  0000a	64 a1 00 00 00
	00		 mov	 eax, DWORD PTR fs:0
  00010	50		 push	 eax
  00011	83 ec 1c	 sub	 esp, 28			; 0000001cH
  00014	56		 push	 esi
  00015	57		 push	 edi
  00016	a1 00 00 00 00	 mov	 eax, DWORD PTR ___security_cookie
  0001b	33 c5		 xor	 eax, ebp
  0001d	50		 push	 eax
  0001e	8d 45 f4	 lea	 eax, DWORD PTR __$EHRec$[ebp]
  00021	64 a3 00 00 00
	00		 mov	 DWORD PTR fs:0, eax
  00027	8b f9		 mov	 edi, ecx
  00029	89 7d ec	 mov	 DWORD PTR _this$[ebp], edi
  0002c	8d 77 08	 lea	 esi, DWORD PTR [edi+8]
  0002f	89 75 e8	 mov	 DWORD PTR _this$[ebp], esi
; File C:\Program Files\Microsoft Visual Studio\2022\Professional\VC\Tools\MSVC\14.44.35207\include\xmemory

; 136  :         return ::operator new(_Bytes);

  00032	6a 18		 push	 24			; 00000018H
; File C:\Program Files\Microsoft Visual Studio\2022\Professional\VC\Tools\MSVC\14.44.35207\include\xtree

; 450  :     _Tree_val() noexcept : _Myhead(), _Mysize(0) {}

  00034	c7 06 00 00 00
	00		 mov	 DWORD PTR [esi], 0
  0003a	c7 46 04 00 00
	00 00		 mov	 DWORD PTR [esi+4], 0
; File C:\Program Files\Microsoft Visual Studio\2022\Professional\VC\Tools\MSVC\14.44.35207\include\xmemory

; 136  :         return ::operator new(_Bytes);

  00041	e8 00 00 00 00	 call	 ??2@YAPAXI@Z		; operator new
; File C:\Program Files\Microsoft Visual Studio\2022\Professional\VC\Tools\MSVC\14.44.35207\include\xtree

; 346  :         _Construct_in_place(_Pnode->_Left, _Pnode);

  00046	89 00		 mov	 DWORD PTR [eax], eax

; 347  :         _Construct_in_place(_Pnode->_Parent, _Pnode);

  00048	89 40 04	 mov	 DWORD PTR [eax+4], eax

; 348  :         _Construct_in_place(_Pnode->_Right, _Pnode);

  0004b	89 40 08	 mov	 DWORD PTR [eax+8], eax

; 349  :         _Pnode->_Color = _Black;

  0004e	66 c7 40 0c 01
	01		 mov	 WORD PTR [eax+12], 257	; 00000101H

; 1957 :         _Scary->_Myhead = _Node::_Buyheadnode(_Getal());

  00054	89 06		 mov	 DWORD PTR [esi], eax
; File C:\IAGOS\server\v18\Source\Source\_Common\Tax.cpp

; 25   : {

  00056	c7 45 fc 00 00
	00 00		 mov	 DWORD PTR __$EHRec$[ebp+8], 0
; File C:\Program Files\Microsoft Visual Studio\2022\Professional\VC\Tools\MSVC\14.44.35207\include\vector

; 400  :     _CONSTEXPR20 _Vector_val() noexcept : _Myfirst(), _Mylast(), _Myend() {}

  0005d	c7 47 10 00 00
	00 00		 mov	 DWORD PTR [edi+16], 0
  00064	c7 47 14 00 00
	00 00		 mov	 DWORD PTR [edi+20], 0
  0006b	c7 47 18 00 00
	00 00		 mov	 DWORD PTR [edi+24], 0
; File C:\IAGOS\server\v18\Source\Source\_Common\Tax.cpp

; 29   : 	m_mapTaxInfo.insert( make_pair(CONT_EAST, new __TAXINFO) );		// µżşÎ Áˇ·É ±ćµĺ - ŔÔŔĺ·áµµ Ć÷ÇÔ

  00072	6a 14		 push	 20			; 00000014H
  00074	c6 45 fc 01	 mov	 BYTE PTR __$EHRec$[ebp+8], 1
  00078	c7 07 00 00 00
	00		 mov	 DWORD PTR [edi], 0
  0007e	c7 47 04 00 00
	00 00		 mov	 DWORD PTR [edi+4], 0
  00085	e8 00 00 00 00	 call	 ??2@YAPAXI@Z		; operator new
  0008a	83 c4 08	 add	 esp, 8
  0008d	89 45 e8	 mov	 DWORD PTR $T14[ebp], eax
  00090	c6 45 fc 02	 mov	 BYTE PTR __$EHRec$[ebp+8], 2
  00094	85 c0		 test	 eax, eax
  00096	74 09		 je	 SHORT $LN3@CTax
  00098	8b c8		 mov	 ecx, eax
  0009a	e8 00 00 00 00	 call	 ??0__TAXINFO@@QAE@XZ	; __TAXINFO::__TAXINFO
  0009f	eb 02		 jmp	 SHORT $LN4@CTax
$LN3@CTax:
  000a1	33 c0		 xor	 eax, eax
$LN4@CTax:
; File C:\Program Files\Microsoft Visual Studio\2022\Professional\VC\Tools\MSVC\14.44.35207\include\utility

; 274  :         : first(_STD forward<_Other1>(_Val1)), second(_STD forward<_Other2>(_Val2)) {

  000a3	89 45 e8	 mov	 DWORD PTR $T9[ebp+4], eax
; File C:\IAGOS\server\v18\Source\Source\_Common\Tax.cpp

; 29   : 	m_mapTaxInfo.insert( make_pair(CONT_EAST, new __TAXINFO) );		// µżşÎ Áˇ·É ±ćµĺ - ŔÔŔĺ·áµµ Ć÷ÇÔ

  000a6	8b ce		 mov	 ecx, esi
  000a8	8d 45 e4	 lea	 eax, DWORD PTR $T9[ebp]
  000ab	c6 45 fc 01	 mov	 BYTE PTR __$EHRec$[ebp+8], 1
  000af	50		 push	 eax
  000b0	8d 45 dc	 lea	 eax, DWORD PTR $T4[ebp]
; File C:\Program Files\Microsoft Visual Studio\2022\Professional\VC\Tools\MSVC\14.44.35207\include\utility

; 274  :         : first(_STD forward<_Other1>(_Val1)), second(_STD forward<_Other2>(_Val2)) {

  000b3	c7 45 e4 0f 00
	00 00		 mov	 DWORD PTR $T9[ebp], 15	; 0000000fH
; File C:\IAGOS\server\v18\Source\Source\_Common\Tax.cpp

; 29   : 	m_mapTaxInfo.insert( make_pair(CONT_EAST, new __TAXINFO) );		// µżşÎ Áˇ·É ±ćµĺ - ŔÔŔĺ·áµµ Ć÷ÇÔ

  000ba	50		 push	 eax
  000bb	e8 00 00 00 00	 call	 ??$insert@U?$pair@HPAU__TAXINFO@@@std@@$0A@@?$map@EPAU__TAXINFO@@U?$less@E@std@@V?$allocator@U?$pair@$$CBEPAU__TAXINFO@@@std@@@3@@std@@QAE?AU?$pair@V?$_Tree_iterator@V?$_Tree_val@U?$_Tree_simple_types@U?$pair@$$CBEPAU__TAXINFO@@@std@@@std@@@std@@@std@@_N@1@$$QAU?$pair@HPAU__TAXINFO@@@1@@Z ; std::map<unsigned char,__TAXINFO *,std::less<unsigned char>,std::allocator<std::pair<unsigned char const ,__TAXINFO *> > >::insert<std::pair<int,__TAXINFO *>,0>

; 30   : 	m_mapTaxInfo.find( CONT_EAST )->second->mapTaxDetail.insert( make_pair( TAX_ADMISSION, new __TAXDETAIL ) ); 

  000c0	6a 04		 push	 4
  000c2	e8 00 00 00 00	 call	 ??2@YAPAXI@Z		; operator new
  000c7	83 c4 04	 add	 esp, 4
  000ca	89 45 e8	 mov	 DWORD PTR $T15[ebp], eax
  000cd	85 c0		 test	 eax, eax
  000cf	74 08		 je	 SHORT $LN5@CTax
; File C:\IAGOS\server\v18\Source\Source\_Common\tax.h

; 55   : 		nTaxRate = 0;

  000d1	c7 00 00 00 00
	00		 mov	 DWORD PTR [eax], 0
; File C:\IAGOS\server\v18\Source\Source\_Common\Tax.cpp

; 30   : 	m_mapTaxInfo.find( CONT_EAST )->second->mapTaxDetail.insert( make_pair( TAX_ADMISSION, new __TAXDETAIL ) ); 

  000d7	eb 02		 jmp	 SHORT $LN6@CTax
$LN5@CTax:
  000d9	33 c0		 xor	 eax, eax
$LN6@CTax:
; File C:\Program Files\Microsoft Visual Studio\2022\Professional\VC\Tools\MSVC\14.44.35207\include\utility

; 274  :         : first(_STD forward<_Other1>(_Val1)), second(_STD forward<_Other2>(_Val2)) {

  000db	89 45 e8	 mov	 DWORD PTR $T10[ebp+4], eax
; File C:\Program Files\Microsoft Visual Studio\2022\Professional\VC\Tools\MSVC\14.44.35207\include\xtree

; 1384 :         const _Tree_find_result<_Nodeptr> _Loc = _Find_lower_bound(_Keyval);

  000de	8b ce		 mov	 ecx, esi
  000e0	8d 45 f3	 lea	 eax, DWORD PTR $T19[ebp]
; File C:\IAGOS\server\v18\Source\Source\_Common\Tax.cpp

; 30   : 	m_mapTaxInfo.find( CONT_EAST )->second->mapTaxDetail.insert( make_pair( TAX_ADMISSION, new __TAXDETAIL ) ); 

  000e3	c6 45 f3 0f	 mov	 BYTE PTR $T19[ebp], 15	; 0000000fH
; File C:\Program Files\Microsoft Visual Studio\2022\Professional\VC\Tools\MSVC\14.44.35207\include\xtree

; 1384 :         const _Tree_find_result<_Nodeptr> _Loc = _Find_lower_bound(_Keyval);

  000e7	50		 push	 eax
  000e8	8d 45 d8	 lea	 eax, DWORD PTR __Loc$2[ebp]
; File C:\Program Files\Microsoft Visual Studio\2022\Professional\VC\Tools\MSVC\14.44.35207\include\utility

; 274  :         : first(_STD forward<_Other1>(_Val1)), second(_STD forward<_Other2>(_Val2)) {

  000eb	c6 45 e4 02	 mov	 BYTE PTR $T10[ebp], 2
; File C:\Program Files\Microsoft Visual Studio\2022\Professional\VC\Tools\MSVC\14.44.35207\include\xtree

; 1384 :         const _Tree_find_result<_Nodeptr> _Loc = _Find_lower_bound(_Keyval);

  000ef	50		 push	 eax
  000f0	e8 00 00 00 00	 call	 ??$_Find_lower_bound@E@?$_Tree@V?$_Tmap_traits@EPAU__TAXINFO@@U?$less@E@std@@V?$allocator@U?$pair@$$CBEPAU__TAXINFO@@@std@@@3@$0A@@std@@@std@@IBE?AU?$_Tree_find_result@PAU?$_Tree_node@U?$pair@$$CBEPAU__TAXINFO@@@std@@PAX@std@@@1@ABE@Z ; std::_Tree<std::_Tmap_traits<unsigned char,__TAXINFO *,std::less<unsigned char>,std::allocator<std::pair<unsigned char const ,__TAXINFO *> >,0> >::_Find_lower_bound<unsigned char>

; 1624 :         return !_Bound->_Isnil && !_DEBUG_LT_PRED(_Getcomp(), _Keyval, _Traits::_Kfn(_Bound->_Myval));

  000f5	8b 4d e0	 mov	 ecx, DWORD PTR __Loc$2[ebp+8]
  000f8	80 79 0d 00	 cmp	 BYTE PTR [ecx+13], 0
  000fc	75 06		 jne	 SHORT $LN79@CTax
; File C:\Program Files\Microsoft Visual Studio\2022\Professional\VC\Tools\MSVC\14.44.35207\include\type_traits

; 2380 :         return _Left < _Right;

  000fe	80 79 10 0f	 cmp	 BYTE PTR [ecx+16], 15	; 0000000fH
; File C:\Program Files\Microsoft Visual Studio\2022\Professional\VC\Tools\MSVC\14.44.35207\include\xtree

; 1624 :         return !_Bound->_Isnil && !_DEBUG_LT_PRED(_Getcomp(), _Keyval, _Traits::_Kfn(_Bound->_Myval));

  00102	76 02		 jbe	 SHORT $LN78@CTax
$LN79@CTax:

; 1389 :         return _Get_scary()->_Myhead;

  00104	8b 0e		 mov	 ecx, DWORD PTR [esi]
$LN78@CTax:
; File C:\IAGOS\server\v18\Source\Source\_Common\Tax.cpp

; 30   : 	m_mapTaxInfo.find( CONT_EAST )->second->mapTaxDetail.insert( make_pair( TAX_ADMISSION, new __TAXDETAIL ) ); 

  00106	8b 49 14	 mov	 ecx, DWORD PTR [ecx+20]
  00109	8d 45 e4	 lea	 eax, DWORD PTR $T10[ebp]
  0010c	50		 push	 eax
  0010d	8d 45 dc	 lea	 eax, DWORD PTR $T5[ebp]
  00110	83 c1 08	 add	 ecx, 8
  00113	50		 push	 eax
  00114	e8 00 00 00 00	 call	 ??$insert@U?$pair@EPAU__TAXDETAIL@@@std@@$0A@@?$map@EPAU__TAXDETAIL@@U?$less@E@std@@V?$allocator@U?$pair@$$CBEPAU__TAXDETAIL@@@std@@@3@@std@@QAE?AU?$pair@V?$_Tree_iterator@V?$_Tree_val@U?$_Tree_simple_types@U?$pair@$$CBEPAU__TAXDETAIL@@@std@@@std@@@std@@@std@@_N@1@$$QAU?$pair@EPAU__TAXDETAIL@@@1@@Z ; std::map<unsigned char,__TAXDETAIL *,std::less<unsigned char>,std::allocator<std::pair<unsigned char const ,__TAXDETAIL *> > >::insert<std::pair<unsigned char,__TAXDETAIL *>,0>

; 31   : 	m_mapTaxInfo.insert( make_pair(CONT_WEST, new __TAXINFO) );		// Ľ­şÎ Áˇ·É ±ćµĺ

  00119	6a 14		 push	 20			; 00000014H
  0011b	e8 00 00 00 00	 call	 ??2@YAPAXI@Z		; operator new
  00120	83 c4 04	 add	 esp, 4
  00123	89 45 e8	 mov	 DWORD PTR $T16[ebp], eax
  00126	c6 45 fc 03	 mov	 BYTE PTR __$EHRec$[ebp+8], 3
  0012a	85 c0		 test	 eax, eax
  0012c	74 09		 je	 SHORT $LN7@CTax
  0012e	8b c8		 mov	 ecx, eax
  00130	e8 00 00 00 00	 call	 ??0__TAXINFO@@QAE@XZ	; __TAXINFO::__TAXINFO
  00135	eb 02		 jmp	 SHORT $LN8@CTax
$LN7@CTax:
  00137	33 c0		 xor	 eax, eax
$LN8@CTax:
; File C:\Program Files\Microsoft Visual Studio\2022\Professional\VC\Tools\MSVC\14.44.35207\include\utility

; 274  :         : first(_STD forward<_Other1>(_Val1)), second(_STD forward<_Other2>(_Val2)) {

  00139	89 45 e8	 mov	 DWORD PTR $T11[ebp+4], eax
; File C:\IAGOS\server\v18\Source\Source\_Common\Tax.cpp

; 31   : 	m_mapTaxInfo.insert( make_pair(CONT_WEST, new __TAXINFO) );		// Ľ­şÎ Áˇ·É ±ćµĺ

  0013c	8b ce		 mov	 ecx, esi
  0013e	8d 45 e4	 lea	 eax, DWORD PTR $T11[ebp]
  00141	c6 45 fc 01	 mov	 BYTE PTR __$EHRec$[ebp+8], 1
  00145	50		 push	 eax
  00146	8d 45 dc	 lea	 eax, DWORD PTR $T6[ebp]
; File C:\Program Files\Microsoft Visual Studio\2022\Professional\VC\Tools\MSVC\14.44.35207\include\utility

; 274  :         : first(_STD forward<_Other1>(_Val1)), second(_STD forward<_Other2>(_Val2)) {

  00149	c7 45 e4 f0 00
	00 00		 mov	 DWORD PTR $T11[ebp], 240 ; 000000f0H
; File C:\IAGOS\server\v18\Source\Source\_Common\Tax.cpp

; 31   : 	m_mapTaxInfo.insert( make_pair(CONT_WEST, new __TAXINFO) );		// Ľ­şÎ Áˇ·É ±ćµĺ

  00150	50		 push	 eax
  00151	e8 00 00 00 00	 call	 ??$insert@U?$pair@HPAU__TAXINFO@@@std@@$0A@@?$map@EPAU__TAXINFO@@U?$less@E@std@@V?$allocator@U?$pair@$$CBEPAU__TAXINFO@@@std@@@3@@std@@QAE?AU?$pair@V?$_Tree_iterator@V?$_Tree_val@U?$_Tree_simple_types@U?$pair@$$CBEPAU__TAXINFO@@@std@@@std@@@std@@@std@@_N@1@$$QAU?$pair@HPAU__TAXINFO@@@1@@Z ; std::map<unsigned char,__TAXINFO *,std::less<unsigned char>,std::allocator<std::pair<unsigned char const ,__TAXINFO *> > >::insert<std::pair<int,__TAXINFO *>,0>

; 32   : 	m_mapTaxInfo.insert( make_pair(CONT_ALL, new __TAXINFO) );		// ±şÁÖ - ŔÔŔĺ·áµµ Ć÷ÇÔ

  00156	6a 14		 push	 20			; 00000014H
  00158	e8 00 00 00 00	 call	 ??2@YAPAXI@Z		; operator new
  0015d	83 c4 04	 add	 esp, 4
  00160	89 45 e8	 mov	 DWORD PTR $T17[ebp], eax
  00163	c6 45 fc 04	 mov	 BYTE PTR __$EHRec$[ebp+8], 4
  00167	85 c0		 test	 eax, eax
  00169	74 09		 je	 SHORT $LN9@CTax
  0016b	8b c8		 mov	 ecx, eax
  0016d	e8 00 00 00 00	 call	 ??0__TAXINFO@@QAE@XZ	; __TAXINFO::__TAXINFO
  00172	eb 02		 jmp	 SHORT $LN10@CTax
$LN9@CTax:
  00174	33 c0		 xor	 eax, eax
$LN10@CTax:
; File C:\Program Files\Microsoft Visual Studio\2022\Professional\VC\Tools\MSVC\14.44.35207\include\utility

; 274  :         : first(_STD forward<_Other1>(_Val1)), second(_STD forward<_Other2>(_Val2)) {

  00176	89 45 e8	 mov	 DWORD PTR $T12[ebp+4], eax
; File C:\IAGOS\server\v18\Source\Source\_Common\Tax.cpp

; 32   : 	m_mapTaxInfo.insert( make_pair(CONT_ALL, new __TAXINFO) );		// ±şÁÖ - ŔÔŔĺ·áµµ Ć÷ÇÔ

  00179	8b ce		 mov	 ecx, esi
  0017b	8d 45 e4	 lea	 eax, DWORD PTR $T12[ebp]
  0017e	c6 45 fc 01	 mov	 BYTE PTR __$EHRec$[ebp+8], 1
  00182	50		 push	 eax
  00183	8d 45 dc	 lea	 eax, DWORD PTR $T7[ebp]
; File C:\Program Files\Microsoft Visual Studio\2022\Professional\VC\Tools\MSVC\14.44.35207\include\utility

; 274  :         : first(_STD forward<_Other1>(_Val1)), second(_STD forward<_Other2>(_Val2)) {

  00186	c7 45 e4 ff 00
	00 00		 mov	 DWORD PTR $T12[ebp], 255 ; 000000ffH
; File C:\IAGOS\server\v18\Source\Source\_Common\Tax.cpp

; 32   : 	m_mapTaxInfo.insert( make_pair(CONT_ALL, new __TAXINFO) );		// ±şÁÖ - ŔÔŔĺ·áµµ Ć÷ÇÔ

  0018d	50		 push	 eax
  0018e	e8 00 00 00 00	 call	 ??$insert@U?$pair@HPAU__TAXINFO@@@std@@$0A@@?$map@EPAU__TAXINFO@@U?$less@E@std@@V?$allocator@U?$pair@$$CBEPAU__TAXINFO@@@std@@@3@@std@@QAE?AU?$pair@V?$_Tree_iterator@V?$_Tree_val@U?$_Tree_simple_types@U?$pair@$$CBEPAU__TAXINFO@@@std@@@std@@@std@@@std@@_N@1@$$QAU?$pair@HPAU__TAXINFO@@@1@@Z ; std::map<unsigned char,__TAXINFO *,std::less<unsigned char>,std::allocator<std::pair<unsigned char const ,__TAXINFO *> > >::insert<std::pair<int,__TAXINFO *>,0>

; 33   : 	m_mapTaxInfo.find( CONT_ALL )->second->mapTaxDetail.insert( make_pair( TAX_ADMISSION, new __TAXDETAIL ) );

  00193	6a 04		 push	 4
  00195	e8 00 00 00 00	 call	 ??2@YAPAXI@Z		; operator new
  0019a	83 c4 04	 add	 esp, 4
  0019d	89 45 e8	 mov	 DWORD PTR $T18[ebp], eax
  001a0	85 c0		 test	 eax, eax
  001a2	74 08		 je	 SHORT $LN11@CTax
; File C:\IAGOS\server\v18\Source\Source\_Common\tax.h

; 55   : 		nTaxRate = 0;

  001a4	c7 00 00 00 00
	00		 mov	 DWORD PTR [eax], 0
; File C:\IAGOS\server\v18\Source\Source\_Common\Tax.cpp

; 33   : 	m_mapTaxInfo.find( CONT_ALL )->second->mapTaxDetail.insert( make_pair( TAX_ADMISSION, new __TAXDETAIL ) );

  001aa	eb 02		 jmp	 SHORT $LN12@CTax
$LN11@CTax:
  001ac	33 c0		 xor	 eax, eax
$LN12@CTax:
; File C:\Program Files\Microsoft Visual Studio\2022\Professional\VC\Tools\MSVC\14.44.35207\include\utility

; 274  :         : first(_STD forward<_Other1>(_Val1)), second(_STD forward<_Other2>(_Val2)) {

  001ae	89 45 e8	 mov	 DWORD PTR $T13[ebp+4], eax
; File C:\Program Files\Microsoft Visual Studio\2022\Professional\VC\Tools\MSVC\14.44.35207\include\xtree

; 1384 :         const _Tree_find_result<_Nodeptr> _Loc = _Find_lower_bound(_Keyval);

  001b1	8b ce		 mov	 ecx, esi
  001b3	8d 45 f3	 lea	 eax, DWORD PTR $T20[ebp]
; File C:\IAGOS\server\v18\Source\Source\_Common\Tax.cpp

; 33   : 	m_mapTaxInfo.find( CONT_ALL )->second->mapTaxDetail.insert( make_pair( TAX_ADMISSION, new __TAXDETAIL ) );

  001b6	c6 45 f3 ff	 mov	 BYTE PTR $T20[ebp], 255	; 000000ffH
; File C:\Program Files\Microsoft Visual Studio\2022\Professional\VC\Tools\MSVC\14.44.35207\include\xtree

; 1384 :         const _Tree_find_result<_Nodeptr> _Loc = _Find_lower_bound(_Keyval);

  001ba	50		 push	 eax
  001bb	8d 45 d8	 lea	 eax, DWORD PTR __Loc$3[ebp]
; File C:\Program Files\Microsoft Visual Studio\2022\Professional\VC\Tools\MSVC\14.44.35207\include\utility

; 274  :         : first(_STD forward<_Other1>(_Val1)), second(_STD forward<_Other2>(_Val2)) {

  001be	c6 45 e4 02	 mov	 BYTE PTR $T13[ebp], 2
; File C:\Program Files\Microsoft Visual Studio\2022\Professional\VC\Tools\MSVC\14.44.35207\include\xtree

; 1384 :         const _Tree_find_result<_Nodeptr> _Loc = _Find_lower_bound(_Keyval);

  001c2	50		 push	 eax
  001c3	e8 00 00 00 00	 call	 ??$_Find_lower_bound@E@?$_Tree@V?$_Tmap_traits@EPAU__TAXINFO@@U?$less@E@std@@V?$allocator@U?$pair@$$CBEPAU__TAXINFO@@@std@@@3@$0A@@std@@@std@@IBE?AU?$_Tree_find_result@PAU?$_Tree_node@U?$pair@$$CBEPAU__TAXINFO@@@std@@PAX@std@@@1@ABE@Z ; std::_Tree<std::_Tmap_traits<unsigned char,__TAXINFO *,std::less<unsigned char>,std::allocator<std::pair<unsigned char const ,__TAXINFO *> >,0> >::_Find_lower_bound<unsigned char>

; 1624 :         return !_Bound->_Isnil && !_DEBUG_LT_PRED(_Getcomp(), _Keyval, _Traits::_Kfn(_Bound->_Myval));

  001c8	8b 4d e0	 mov	 ecx, DWORD PTR __Loc$3[ebp+8]
  001cb	80 79 0d 00	 cmp	 BYTE PTR [ecx+13], 0
  001cf	74 02		 je	 SHORT $LN126@CTax

; 1389 :         return _Get_scary()->_Myhead;

  001d1	8b 0e		 mov	 ecx, DWORD PTR [esi]
$LN126@CTax:
; File C:\IAGOS\server\v18\Source\Source\_Common\Tax.cpp

; 33   : 	m_mapTaxInfo.find( CONT_ALL )->second->mapTaxDetail.insert( make_pair( TAX_ADMISSION, new __TAXDETAIL ) );

  001d3	8b 49 14	 mov	 ecx, DWORD PTR [ecx+20]
  001d6	8d 45 e4	 lea	 eax, DWORD PTR $T13[ebp]
  001d9	50		 push	 eax
  001da	8d 45 dc	 lea	 eax, DWORD PTR $T8[ebp]
  001dd	83 c1 08	 add	 ecx, 8
  001e0	50		 push	 eax
  001e1	e8 00 00 00 00	 call	 ??$insert@U?$pair@EPAU__TAXDETAIL@@@std@@$0A@@?$map@EPAU__TAXDETAIL@@U?$less@E@std@@V?$allocator@U?$pair@$$CBEPAU__TAXDETAIL@@@std@@@3@@std@@QAE?AU?$pair@V?$_Tree_iterator@V?$_Tree_val@U?$_Tree_simple_types@U?$pair@$$CBEPAU__TAXDETAIL@@@std@@@std@@@std@@@std@@_N@1@$$QAU?$pair@EPAU__TAXDETAIL@@@1@@Z ; std::map<unsigned char,__TAXDETAIL *,std::less<unsigned char>,std::allocator<std::pair<unsigned char const ,__TAXDETAIL *> > >::insert<std::pair<unsigned char,__TAXDETAIL *>,0>

; 34   : 
; 35   : #ifdef __DBSERVER
; 36   : 	m_nTaxSecretRoomRate = 0;
; 37   : 	m_nTaxLordRate = 0;
; 38   : 	m_nAdmissionSecretRoomRate = 0;
; 39   : 	m_nAdmissionLordRate = 0;
; 40   : 	m_nDBSaveCount = 1;
; 41   : //	m_strChangedDate.clear();
; 42   : 
; 43   : 	// DBController thread »ýĽş
; 44   : 	if( !m_taxDBController.CreateDbHandler( MIN(1) ) )	// 1şĐżˇ ÇŃąř OnTimer()¸¦ callÇŃ´Ů.
; 45   : 		Error( "CTax - m_Controller.CreateDbHandler()" );
; 46   : #endif // __DBSERVER
; 47   : }

  001e6	8b c7		 mov	 eax, edi
  001e8	8b 4d f4	 mov	 ecx, DWORD PTR __$EHRec$[ebp]
  001eb	64 89 0d 00 00
	00 00		 mov	 DWORD PTR fs:0, ecx
  001f2	59		 pop	 ecx
  001f3	5f		 pop	 edi
  001f4	5e		 pop	 esi
  001f5	8b e5		 mov	 esp, ebp
  001f7	5d		 pop	 ebp
  001f8	c3		 ret	 0
_TEXT	ENDS
;	COMDAT text$x
text$x	SEGMENT
__unwindfunclet$??0CTax@@QAE@XZ$0:
  00000	8b 4d ec	 mov	 ecx, DWORD PTR _this$[ebp]
  00003	83 c1 08	 add	 ecx, 8
  00006	e9 00 00 00 00	 jmp	 ??1?$map@EPAU__TAXINFO@@U?$less@E@std@@V?$allocator@U?$pair@$$CBEPAU__TAXINFO@@@std@@@3@@std@@QAE@XZ
__unwindfunclet$??0CTax@@QAE@XZ$1:
  0000b	8b 4d ec	 mov	 ecx, DWORD PTR _this$[ebp]
  0000e	83 c1 10	 add	 ecx, 16			; 00000010H
  00011	e9 00 00 00 00	 jmp	 ??1?$vector@KV?$allocator@K@std@@@std@@QAE@XZ ; std::vector<unsigned long,std::allocator<unsigned long> >::~vector<unsigned long,std::allocator<unsigned long> >
__unwindfunclet$??0CTax@@QAE@XZ$2:
  00016	6a 14		 push	 20			; 00000014H
  00018	8b 45 e8	 mov	 eax, DWORD PTR $T14[ebp]
  0001b	50		 push	 eax
  0001c	e8 00 00 00 00	 call	 ??3@YAXPAXI@Z		; operator delete
  00021	83 c4 08	 add	 esp, 8
  00024	c3		 ret	 0
__unwindfunclet$??0CTax@@QAE@XZ$4:
  00025	6a 14		 push	 20			; 00000014H
  00027	8b 45 e8	 mov	 eax, DWORD PTR $T16[ebp]
  0002a	50		 push	 eax
  0002b	e8 00 00 00 00	 call	 ??3@YAXPAXI@Z		; operator delete
  00030	83 c4 08	 add	 esp, 8
  00033	c3		 ret	 0
__unwindfunclet$??0CTax@@QAE@XZ$5:
  00034	6a 14		 push	 20			; 00000014H
  00036	8b 45 e8	 mov	 eax, DWORD PTR $T17[ebp]
  00039	50		 push	 eax
  0003a	e8 00 00 00 00	 call	 ??3@YAXPAXI@Z		; operator delete
  0003f	83 c4 08	 add	 esp, 8
  00042	c3		 ret	 0
  00043	cc		 int	 3
  00044	cc		 int	 3
  00045	cc		 int	 3
  00046	cc		 int	 3
  00047	cc		 int	 3
__ehhandler$??0CTax@@QAE@XZ:
  00048	90		 npad	 1
  00049	90		 npad	 1
  0004a	8b 54 24 08	 mov	 edx, DWORD PTR [esp+8]
  0004e	8d 42 0c	 lea	 eax, DWORD PTR [edx+12]
  00051	8b 4a d8	 mov	 ecx, DWORD PTR [edx-40]
  00054	33 c8		 xor	 ecx, eax
  00056	e8 00 00 00 00	 call	 @__security_check_cookie@4
  0005b	b8 00 00 00 00	 mov	 eax, OFFSET __ehfuncinfo$??0CTax@@QAE@XZ
  00060	e9 00 00 00 00	 jmp	 ___CxxFrameHandler3
text$x	ENDS
??0CTax@@QAE@XZ ENDP					; CTax::CTax
; Function compile flags: /Ogtp
; File C:\Program Files\Microsoft Visual Studio\2022\Professional\VC\Tools\MSVC\14.44.35207\include\map
; File C:\Program Files\Microsoft Visual Studio\2022\Professional\VC\Tools\MSVC\14.44.35207\include\xtree
; File C:\Program Files\Microsoft Visual Studio\2022\Professional\VC\Tools\MSVC\14.44.35207\include\type_traits
; File C:\Program Files\Microsoft Visual Studio\2022\Professional\VC\Tools\MSVC\14.44.35207\include\xtree
; File C:\Program Files\Microsoft Visual Studio\2022\Professional\VC\Tools\MSVC\14.44.35207\include\utility
; File C:\Program Files\Microsoft Visual Studio\2022\Professional\VC\Tools\MSVC\14.44.35207\include\xtree
; File C:\Program Files\Microsoft Visual Studio\2022\Professional\VC\Tools\MSVC\14.44.35207\include\xmemory
; File C:\Program Files\Microsoft Visual Studio\2022\Professional\VC\Tools\MSVC\14.44.35207\include\xtree
; File C:\Program Files\Microsoft Visual Studio\2022\Professional\VC\Tools\MSVC\14.44.35207\include\xmemory
; File C:\Program Files\Microsoft Visual Studio\2022\Professional\VC\Tools\MSVC\14.44.35207\include\utility
; File C:\Program Files\Microsoft Visual Studio\2022\Professional\VC\Tools\MSVC\14.44.35207\include\xmemory
; File C:\Program Files\Microsoft Visual Studio\2022\Professional\VC\Tools\MSVC\14.44.35207\include\utility
; File C:\Program Files\Microsoft Visual Studio\2022\Professional\VC\Tools\MSVC\14.44.35207\include\xtree
; File C:\Program Files\Microsoft Visual Studio\2022\Professional\VC\Tools\MSVC\14.44.35207\include\utility
; File C:\Program Files\Microsoft Visual Studio\2022\Professional\VC\Tools\MSVC\14.44.35207\include\map
; File C:\Program Files\Microsoft Visual Studio\2022\Professional\VC\Tools\MSVC\14.44.35207\include\xtree
; File C:\Program Files\Microsoft Visual Studio\2022\Professional\VC\Tools\MSVC\14.44.35207\include\map
;	COMDAT ??$insert@U?$pair@EPAU__TAXDETAIL@@@std@@$0A@@?$map@EPAU__TAXDETAIL@@U?$less@E@std@@V?$allocator@U?$pair@$$CBEPAU__TAXDETAIL@@@std@@@3@@std@@QAE?AU?$pair@V?$_Tree_iterator@V?$_Tree_val@U?$_Tree_simple_types@U?$pair@$$CBEPAU__TAXDETAIL@@@std@@@std@@@std@@@std@@_N@1@$$QAU?$pair@EPAU__TAXDETAIL@@@1@@Z
_TEXT	SEGMENT
__Loc$3 = -36						; size = 12
$T4 = -24						; size = 12
$T5 = -20						; size = 8
__$EHRec$ = -12						; size = 12
___$ReturnUdt$ = 8					; size = 4
__Val$ = 12						; size = 4
??$insert@U?$pair@EPAU__TAXDETAIL@@@std@@$0A@@?$map@EPAU__TAXDETAIL@@U?$less@E@std@@V?$allocator@U?$pair@$$CBEPAU__TAXDETAIL@@@std@@@3@@std@@QAE?AU?$pair@V?$_Tree_iterator@V?$_Tree_val@U?$_Tree_simple_types@U?$pair@$$CBEPAU__TAXDETAIL@@@std@@@std@@@std@@@std@@_N@1@$$QAU?$pair@EPAU__TAXDETAIL@@@1@@Z PROC ; std::map<unsigned char,__TAXDETAIL *,std::less<unsigned char>,std::allocator<std::pair<unsigned char const ,__TAXDETAIL *> > >::insert<std::pair<unsigned char,__TAXDETAIL *>,0>, COMDAT
; _this$ = ecx

; 185  :     pair<iterator, bool> insert(_Valty&& _Val) {

  00000	55		 push	 ebp
  00001	8b ec		 mov	 ebp, esp
  00003	6a ff		 push	 -1
  00005	68 00 00 00 00	 push	 __ehhandler$??$insert@U?$pair@EPAU__TAXDETAIL@@@std@@$0A@@?$map@EPAU__TAXDETAIL@@U?$less@E@std@@V?$allocator@U?$pair@$$CBEPAU__TAXDETAIL@@@std@@@3@@std@@QAE?AU?$pair@V?$_Tree_iterator@V?$_Tree_val@U?$_Tree_simple_types@U?$pair@$$CBEPAU__TAXDETAIL@@@std@@@std@@@std@@@std@@_N@1@$$QAU?$pair@EPAU__TAXDETAIL@@@1@@Z
  0000a	64 a1 00 00 00
	00		 mov	 eax, DWORD PTR fs:0
  00010	50		 push	 eax
  00011	83 ec 18	 sub	 esp, 24			; 00000018H
  00014	53		 push	 ebx
  00015	56		 push	 esi
  00016	57		 push	 edi
  00017	a1 00 00 00 00	 mov	 eax, DWORD PTR ___security_cookie
  0001c	33 c5		 xor	 eax, ebp
  0001e	50		 push	 eax
  0001f	8d 45 f4	 lea	 eax, DWORD PTR __$EHRec$[ebp]
  00022	64 a3 00 00 00
	00		 mov	 DWORD PTR fs:0, eax
  00028	8b f9		 mov	 edi, ecx
; File C:\Program Files\Microsoft Visual Studio\2022\Professional\VC\Tools\MSVC\14.44.35207\include\xtree

; 1017 :             _Loc                = _Find_lower_bound(_Keyval);

  0002a	8b 5d 0c	 mov	 ebx, DWORD PTR __Val$[ebp]
  0002d	8d 45 e8	 lea	 eax, DWORD PTR $T4[ebp]
  00030	53		 push	 ebx
  00031	50		 push	 eax
  00032	e8 00 00 00 00	 call	 ??$_Find_lower_bound@E@?$_Tree@V?$_Tmap_traits@EPAU__TAXDETAIL@@U?$less@E@std@@V?$allocator@U?$pair@$$CBEPAU__TAXDETAIL@@@std@@@3@$0A@@std@@@std@@IBE?AU?$_Tree_find_result@PAU?$_Tree_node@U?$pair@$$CBEPAU__TAXDETAIL@@@std@@PAX@std@@@1@ABE@Z ; std::_Tree<std::_Tmap_traits<unsigned char,__TAXDETAIL *,std::less<unsigned char>,std::allocator<std::pair<unsigned char const ,__TAXDETAIL *> >,0> >::_Find_lower_bound<unsigned char>
  00037	8b 48 08	 mov	 ecx, DWORD PTR [eax+8]
  0003a	f3 0f 7e 00	 movq	 xmm0, QWORD PTR [eax]
  0003e	66 0f d6 45 dc	 movq	 QWORD PTR __Loc$3[ebp], xmm0

; 1624 :         return !_Bound->_Isnil && !_DEBUG_LT_PRED(_Getcomp(), _Keyval, _Traits::_Kfn(_Bound->_Myval));

  00043	80 79 0d 00	 cmp	 BYTE PTR [ecx+13], 0
  00047	75 0b		 jne	 SHORT $LN6@insert
; File C:\Program Files\Microsoft Visual Studio\2022\Professional\VC\Tools\MSVC\14.44.35207\include\type_traits

; 2380 :         return _Left < _Right;

  00049	8a 03		 mov	 al, BYTE PTR [ebx]
  0004b	3a 41 10	 cmp	 al, BYTE PTR [ecx+16]
; File C:\Program Files\Microsoft Visual Studio\2022\Professional\VC\Tools\MSVC\14.44.35207\include\xtree

; 1624 :         return !_Bound->_Isnil && !_DEBUG_LT_PRED(_Getcomp(), _Keyval, _Traits::_Kfn(_Bound->_Myval));

  0004e	72 04		 jb	 SHORT $LN6@insert
; File C:\Program Files\Microsoft Visual Studio\2022\Professional\VC\Tools\MSVC\14.44.35207\include\utility

; 274  :         : first(_STD forward<_Other1>(_Val1)), second(_STD forward<_Other2>(_Val2)) {

  00050	32 d2		 xor	 dl, dl
; File C:\Program Files\Microsoft Visual Studio\2022\Professional\VC\Tools\MSVC\14.44.35207\include\xtree

; 1019 :                 return {_Loc._Bound, false};

  00052	eb 51		 jmp	 SHORT $LN91@insert
$LN6@insert:

; 1648 :         if (max_size() == _Get_scary()->_Mysize) {

  00054	81 7f 04 aa aa
	aa 0a		 cmp	 DWORD PTR [edi+4], 178956970 ; 0aaaaaaaH
  0005b	74 64		 je	 SHORT $LN113@insert

; 1023 :             _Inserted = _Tree_temp_node<_Alnode>(_Getal(), _Scary->_Myhead, _STD forward<_Valtys>(_Vals)...)._Release();

  0005d	8b 37		 mov	 esi, DWORD PTR [edi]
; File C:\Program Files\Microsoft Visual Studio\2022\Professional\VC\Tools\MSVC\14.44.35207\include\xmemory

; 1160 :     _CONSTEXPR20 explicit _Alloc_construct_ptr(_Alloc& _Al_) : _Al(_Al_), _Ptr(nullptr) {}

  0005f	89 7d ec	 mov	 DWORD PTR $T5[ebp], edi

; 136  :         return ::operator new(_Bytes);

  00062	6a 18		 push	 24			; 00000018H
; File C:\Program Files\Microsoft Visual Studio\2022\Professional\VC\Tools\MSVC\14.44.35207\include\xtree

; 808  :     explicit _Tree_temp_node_alloc(_Alnode& _Al_) : _Alloc_construct_ptr<_Alnode>(_Al_) {

  00064	c7 45 fc 00 00
	00 00		 mov	 DWORD PTR __$EHRec$[ebp+8], 0
; File C:\Program Files\Microsoft Visual Studio\2022\Professional\VC\Tools\MSVC\14.44.35207\include\xmemory

; 1167 :         _Ptr = nullptr; // if allocate throws, prevents double-free

  0006b	c7 45 f0 00 00
	00 00		 mov	 DWORD PTR $T5[ebp+4], 0

; 136  :         return ::operator new(_Bytes);

  00072	e8 00 00 00 00	 call	 ??2@YAPAXI@Z		; operator new
; File C:\Program Files\Microsoft Visual Studio\2022\Professional\VC\Tools\MSVC\14.44.35207\include\utility

; 303  :         : first(_STD forward<_Other1>(_Right.first)), second(_STD forward<_Other2>(_Right.second)) {}

  00077	8a 0b		 mov	 cl, BYTE PTR [ebx]
; File C:\Program Files\Microsoft Visual Studio\2022\Professional\VC\Tools\MSVC\14.44.35207\include\xmemory

; 136  :         return ::operator new(_Bytes);

  00079	83 c4 04	 add	 esp, 4
; File C:\Program Files\Microsoft Visual Studio\2022\Professional\VC\Tools\MSVC\14.44.35207\include\utility

; 303  :         : first(_STD forward<_Other1>(_Right.first)), second(_STD forward<_Other2>(_Right.second)) {}

  0007c	88 48 10	 mov	 BYTE PTR [eax+16], cl
  0007f	8b 4b 04	 mov	 ecx, DWORD PTR [ebx+4]
  00082	89 48 14	 mov	 DWORD PTR [eax+20], ecx
; File C:\Program Files\Microsoft Visual Studio\2022\Professional\VC\Tools\MSVC\14.44.35207\include\xtree

; 1042 :         return {_Scary->_Insert_node(_Loc._Location, _Inserted), true};

  00085	8b cf		 mov	 ecx, edi
  00087	50		 push	 eax
  00088	ff 75 e0	 push	 DWORD PTR __Loc$3[ebp+4]

; 831  :         _Construct_in_place(this->_Ptr->_Left, _Myhead);

  0008b	89 30		 mov	 DWORD PTR [eax], esi

; 1042 :         return {_Scary->_Insert_node(_Loc._Location, _Inserted), true};

  0008d	ff 75 dc	 push	 DWORD PTR __Loc$3[ebp]

; 832  :         _Construct_in_place(this->_Ptr->_Parent, _Myhead);

  00090	89 70 04	 mov	 DWORD PTR [eax+4], esi

; 833  :         _Construct_in_place(this->_Ptr->_Right, _Myhead);

  00093	89 70 08	 mov	 DWORD PTR [eax+8], esi

; 834  :         this->_Ptr->_Color = _Red;

  00096	66 c7 40 0c 00
	00		 mov	 WORD PTR [eax+12], 0

; 1042 :         return {_Scary->_Insert_node(_Loc._Location, _Inserted), true};

  0009c	e8 00 00 00 00	 call	 ?_Insert_node@?$_Tree_val@U?$_Tree_simple_types@U?$pair@$$CBEPAU__TAXDETAIL@@@std@@@std@@@std@@QAEPAU?$_Tree_node@U?$pair@$$CBEPAU__TAXDETAIL@@@std@@PAX@2@U?$_Tree_id@PAU?$_Tree_node@U?$pair@$$CBEPAU__TAXDETAIL@@@std@@PAX@std@@@2@QAU32@@Z ; std::_Tree_val<std::_Tree_simple_types<std::pair<unsigned char const ,__TAXDETAIL *> > >::_Insert_node
; File C:\Program Files\Microsoft Visual Studio\2022\Professional\VC\Tools\MSVC\14.44.35207\include\utility

; 274  :         : first(_STD forward<_Other1>(_Val1)), second(_STD forward<_Other2>(_Val2)) {

  000a1	8b c8		 mov	 ecx, eax
  000a3	b2 01		 mov	 dl, 1
$LN91@insert:
  000a5	8b 45 08	 mov	 eax, DWORD PTR ___$ReturnUdt$[ebp]
  000a8	89 08		 mov	 DWORD PTR [eax], ecx
  000aa	88 50 04	 mov	 BYTE PTR [eax+4], dl
; File C:\Program Files\Microsoft Visual Studio\2022\Professional\VC\Tools\MSVC\14.44.35207\include\map

; 187  :     }

  000ad	8b 4d f4	 mov	 ecx, DWORD PTR __$EHRec$[ebp]
  000b0	64 89 0d 00 00
	00 00		 mov	 DWORD PTR fs:0, ecx
  000b7	59		 pop	 ecx
  000b8	5f		 pop	 edi
  000b9	5e		 pop	 esi
  000ba	5b		 pop	 ebx
  000bb	8b e5		 mov	 esp, ebp
  000bd	5d		 pop	 ebp
  000be	c2 08 00	 ret	 8
$LN113@insert:
; File C:\Program Files\Microsoft Visual Studio\2022\Professional\VC\Tools\MSVC\14.44.35207\include\xtree

; 1649 :             _Throw_tree_length_error();

  000c1	e8 00 00 00 00	 call	 ?_Throw_tree_length_error@std@@YAXXZ ; std::_Throw_tree_length_error
$LN111@insert:
  000c6	cc		 int	 3
_TEXT	ENDS
;	COMDAT text$x
text$x	SEGMENT
__unwindfunclet$??$insert@U?$pair@EPAU__TAXDETAIL@@@std@@$0A@@?$map@EPAU__TAXDETAIL@@U?$less@E@std@@V?$allocator@U?$pair@$$CBEPAU__TAXDETAIL@@@std@@@3@@std@@QAE?AU?$pair@V?$_Tree_iterator@V?$_Tree_val@U?$_Tree_simple_types@U?$pair@$$CBEPAU__TAXDETAIL@@@std@@@std@@@std@@@std@@_N@1@$$QAU?$pair@EPAU__TAXDETAIL@@@1@@Z$2:
  00000	8d 4d ec	 lea	 ecx, DWORD PTR $T5[ebp]
  00003	e9 00 00 00 00	 jmp	 ??1?$_Alloc_construct_ptr@V?$allocator@U?$_Tree_node@U?$pair@$$CBEPAU__TAXDETAIL@@@std@@PAX@std@@@std@@@std@@QAE@XZ ; std::_Alloc_construct_ptr<std::allocator<std::_Tree_node<std::pair<unsigned char const ,__TAXDETAIL *>,void *> > >::~_Alloc_construct_ptr<std::allocator<std::_Tree_node<std::pair<unsigned char const ,__TAXDETAIL *>,void *> > >
  00008	cc		 int	 3
  00009	cc		 int	 3
  0000a	cc		 int	 3
  0000b	cc		 int	 3
  0000c	cc		 int	 3
__ehhandler$??$insert@U?$pair@EPAU__TAXDETAIL@@@std@@$0A@@?$map@EPAU__TAXDETAIL@@U?$less@E@std@@V?$allocator@U?$pair@$$CBEPAU__TAXDETAIL@@@std@@@3@@std@@QAE?AU?$pair@V?$_Tree_iterator@V?$_Tree_val@U?$_Tree_simple_types@U?$pair@$$CBEPAU__TAXDETAIL@@@std@@@std@@@std@@@std@@_N@1@$$QAU?$pair@EPAU__TAXDETAIL@@@1@@Z:
  0000d	90		 npad	 1
  0000e	90		 npad	 1
  0000f	8b 54 24 08	 mov	 edx, DWORD PTR [esp+8]
  00013	8d 42 0c	 lea	 eax, DWORD PTR [edx+12]
  00016	8b 4a d8	 mov	 ecx, DWORD PTR [edx-40]
  00019	33 c8		 xor	 ecx, eax
  0001b	e8 00 00 00 00	 call	 @__security_check_cookie@4
  00020	b8 00 00 00 00	 mov	 eax, OFFSET __ehfuncinfo$??$insert@U?$pair@EPAU__TAXDETAIL@@@std@@$0A@@?$map@EPAU__TAXDETAIL@@U?$less@E@std@@V?$allocator@U?$pair@$$CBEPAU__TAXDETAIL@@@std@@@3@@std@@QAE?AU?$pair@V?$_Tree_iterator@V?$_Tree_val@U?$_Tree_simple_types@U?$pair@$$CBEPAU__TAXDETAIL@@@std@@@std@@@std@@@std@@_N@1@$$QAU?$pair@EPAU__TAXDETAIL@@@1@@Z
  00025	e9 00 00 00 00	 jmp	 ___CxxFrameHandler3
text$x	ENDS
??$insert@U?$pair@EPAU__TAXDETAIL@@@std@@$0A@@?$map@EPAU__TAXDETAIL@@U?$less@E@std@@V?$allocator@U?$pair@$$CBEPAU__TAXDETAIL@@@std@@@3@@std@@QAE?AU?$pair@V?$_Tree_iterator@V?$_Tree_val@U?$_Tree_simple_types@U?$pair@$$CBEPAU__TAXDETAIL@@@std@@@std@@@std@@@std@@_N@1@$$QAU?$pair@EPAU__TAXDETAIL@@@1@@Z ENDP ; std::map<unsigned char,__TAXDETAIL *,std::less<unsigned char>,std::allocator<std::pair<unsigned char const ,__TAXDETAIL *> > >::insert<std::pair<unsigned char,__TAXDETAIL *>,0>
; Function compile flags: /Ogtp
; File C:\IAGOS\server\v18\Source\Source\_Common\tax.h
; File C:\Program Files\Microsoft Visual Studio\2022\Professional\VC\Tools\MSVC\14.44.35207\include\xmemory
; File C:\Program Files\Microsoft Visual Studio\2022\Professional\VC\Tools\MSVC\14.44.35207\include\xtree
; File C:\Program Files\Microsoft Visual Studio\2022\Professional\VC\Tools\MSVC\14.44.35207\include\xmemory
; File C:\Program Files\Microsoft Visual Studio\2022\Professional\VC\Tools\MSVC\14.44.35207\include\xtree
; File C:\IAGOS\server\v18\Source\Source\_Common\tax.h
; File C:\Program Files\Microsoft Visual Studio\2022\Professional\VC\Tools\MSVC\14.44.35207\include\xtree
; File C:\Program Files\Microsoft Visual Studio\2022\Professional\VC\Tools\MSVC\14.44.35207\include\utility
; File C:\Program Files\Microsoft Visual Studio\2022\Professional\VC\Tools\MSVC\14.44.35207\include\xtree
; File C:\Program Files\Microsoft Visual Studio\2022\Professional\VC\Tools\MSVC\14.44.35207\include\utility
; File C:\Program Files\Microsoft Visual Studio\2022\Professional\VC\Tools\MSVC\14.44.35207\include\xtree
; File C:\Program Files\Microsoft Visual Studio\2022\Professional\VC\Tools\MSVC\14.44.35207\include\type_traits
; File C:\Program Files\Microsoft Visual Studio\2022\Professional\VC\Tools\MSVC\14.44.35207\include\xtree
; File C:\Program Files\Microsoft Visual Studio\2022\Professional\VC\Tools\MSVC\14.44.35207\include\xmemory
; File C:\Program Files\Microsoft Visual Studio\2022\Professional\VC\Tools\MSVC\14.44.35207\include\xtree
; File C:\Program Files\Microsoft Visual Studio\2022\Professional\VC\Tools\MSVC\14.44.35207\include\xmemory
; File C:\Program Files\Microsoft Visual Studio\2022\Professional\VC\Tools\MSVC\14.44.35207\include\xtree
; File C:\Program Files\Microsoft Visual Studio\2022\Professional\VC\Tools\MSVC\14.44.35207\include\utility
; File C:\Program Files\Microsoft Visual Studio\2022\Professional\VC\Tools\MSVC\14.44.35207\include\xtree
; File C:\Program Files\Microsoft Visual Studio\2022\Professional\VC\Tools\MSVC\14.44.35207\include\utility
; File C:\Program Files\Microsoft Visual Studio\2022\Professional\VC\Tools\MSVC\14.44.35207\include\xtree
; File C:\IAGOS\server\v18\Source\Source\_Common\tax.h
; File C:\Program Files\Microsoft Visual Studio\2022\Professional\VC\Tools\MSVC\14.44.35207\include\xtree
; File C:\Program Files\Microsoft Visual Studio\2022\Professional\VC\Tools\MSVC\14.44.35207\include\utility
; File C:\Program Files\Microsoft Visual Studio\2022\Professional\VC\Tools\MSVC\14.44.35207\include\xtree
; File C:\Program Files\Microsoft Visual Studio\2022\Professional\VC\Tools\MSVC\14.44.35207\include\utility
; File C:\Program Files\Microsoft Visual Studio\2022\Professional\VC\Tools\MSVC\14.44.35207\include\xtree
; File C:\Program Files\Microsoft Visual Studio\2022\Professional\VC\Tools\MSVC\14.44.35207\include\type_traits
; File C:\Program Files\Microsoft Visual Studio\2022\Professional\VC\Tools\MSVC\14.44.35207\include\xtree
; File C:\Program Files\Microsoft Visual Studio\2022\Professional\VC\Tools\MSVC\14.44.35207\include\xmemory
; File C:\Program Files\Microsoft Visual Studio\2022\Professional\VC\Tools\MSVC\14.44.35207\include\xtree
; File C:\Program Files\Microsoft Visual Studio\2022\Professional\VC\Tools\MSVC\14.44.35207\include\xmemory
; File C:\Program Files\Microsoft Visual Studio\2022\Professional\VC\Tools\MSVC\14.44.35207\include\xtree
; File C:\Program Files\Microsoft Visual Studio\2022\Professional\VC\Tools\MSVC\14.44.35207\include\utility
; File C:\Program Files\Microsoft Visual Studio\2022\Professional\VC\Tools\MSVC\14.44.35207\include\xtree
; File C:\Program Files\Microsoft Visual Studio\2022\Professional\VC\Tools\MSVC\14.44.35207\include\utility
; File C:\Program Files\Microsoft Visual Studio\2022\Professional\VC\Tools\MSVC\14.44.35207\include\xtree
; File C:\IAGOS\server\v18\Source\Source\_Common\tax.h
; File C:\Program Files\Microsoft Visual Studio\2022\Professional\VC\Tools\MSVC\14.44.35207\include\xtree
; File C:\IAGOS\server\v18\Source\Source\_Common\tax.h
;	COMDAT ??0__TAXINFO@@QAE@XZ
_TEXT	SEGMENT
$T2 = -48						; size = 12
$T3 = -48						; size = 12
__Loc$4 = -36						; size = 12
__Loc$5 = -36						; size = 12
$T6 = -24						; size = 8
$T7 = -24						; size = 8
$T8 = -24						; size = 8
$T9 = -24						; size = 8
$T10 = -20						; size = 4
$T11 = -20						; size = 4
_this$ = -20						; size = 4
_this$ = -16						; size = 4
__$EHRec$ = -12						; size = 12
??0__TAXINFO@@QAE@XZ PROC				; __TAXINFO::__TAXINFO, COMDAT
; _this$ = ecx

; 72   : 	__TAXINFO()

  00000	55		 push	 ebp
  00001	8b ec		 mov	 ebp, esp
  00003	6a ff		 push	 -1
  00005	68 00 00 00 00	 push	 __ehhandler$??0__TAXINFO@@QAE@XZ
  0000a	64 a1 00 00 00
	00		 mov	 eax, DWORD PTR fs:0
  00010	50		 push	 eax
  00011	83 ec 24	 sub	 esp, 36			; 00000024H
  00014	53		 push	 ebx
  00015	56		 push	 esi
  00016	57		 push	 edi
  00017	a1 00 00 00 00	 mov	 eax, DWORD PTR ___security_cookie
  0001c	33 c5		 xor	 eax, ebp
  0001e	50		 push	 eax
  0001f	8d 45 f4	 lea	 eax, DWORD PTR __$EHRec$[ebp]
  00022	64 a3 00 00 00
	00		 mov	 DWORD PTR fs:0, eax
  00028	8b d9		 mov	 ebx, ecx
  0002a	89 5d f0	 mov	 DWORD PTR _this$[ebp], ebx

; 73   : 	{

  0002d	8d 7b 08	 lea	 edi, DWORD PTR [ebx+8]
  00030	89 7d ec	 mov	 DWORD PTR _this$[ebp], edi
; File C:\Program Files\Microsoft Visual Studio\2022\Professional\VC\Tools\MSVC\14.44.35207\include\xmemory

; 136  :         return ::operator new(_Bytes);

  00033	6a 18		 push	 24			; 00000018H
; File C:\Program Files\Microsoft Visual Studio\2022\Professional\VC\Tools\MSVC\14.44.35207\include\xtree

; 450  :     _Tree_val() noexcept : _Myhead(), _Mysize(0) {}

  00035	c7 07 00 00 00
	00		 mov	 DWORD PTR [edi], 0
  0003b	c7 47 04 00 00
	00 00		 mov	 DWORD PTR [edi+4], 0
; File C:\Program Files\Microsoft Visual Studio\2022\Professional\VC\Tools\MSVC\14.44.35207\include\xmemory

; 136  :         return ::operator new(_Bytes);

  00042	e8 00 00 00 00	 call	 ??2@YAPAXI@Z		; operator new
; File C:\Program Files\Microsoft Visual Studio\2022\Professional\VC\Tools\MSVC\14.44.35207\include\xtree

; 346  :         _Construct_in_place(_Pnode->_Left, _Pnode);

  00047	89 00		 mov	 DWORD PTR [eax], eax

; 347  :         _Construct_in_place(_Pnode->_Parent, _Pnode);

  00049	89 40 04	 mov	 DWORD PTR [eax+4], eax

; 348  :         _Construct_in_place(_Pnode->_Right, _Pnode);

  0004c	89 40 08	 mov	 DWORD PTR [eax+8], eax

; 349  :         _Pnode->_Color = _Black;

  0004f	66 c7 40 0c 01
	01		 mov	 WORD PTR [eax+12], 257	; 00000101H

; 1957 :         _Scary->_Myhead = _Node::_Buyheadnode(_Getal());

  00055	89 07		 mov	 DWORD PTR [edi], eax
; File C:\IAGOS\server\v18\Source\Source\_Common\tax.h

; 76   : 		mapTaxDetail.insert( make_pair( TAX_SALES, new __TAXDETAIL ) );			// ±¸¸Ĺ ĽĽ±ÝŔş ±âş»

  00057	6a 04		 push	 4
  00059	c7 45 fc 00 00
	00 00		 mov	 DWORD PTR __$EHRec$[ebp+8], 0
  00060	c7 03 ff ff ff
	ff		 mov	 DWORD PTR [ebx], -1
  00066	c7 43 04 01 00
	00 00		 mov	 DWORD PTR [ebx+4], 1
  0006d	e8 00 00 00 00	 call	 ??2@YAPAXI@Z		; operator new
  00072	8b d8		 mov	 ebx, eax
  00074	83 c4 08	 add	 esp, 8
  00077	89 5d ec	 mov	 DWORD PTR $T10[ebp], ebx
  0007a	85 db		 test	 ebx, ebx
  0007c	74 08		 je	 SHORT $LN3@TAXINFO

; 55   : 		nTaxRate = 0;

  0007e	c7 03 00 00 00
	00		 mov	 DWORD PTR [ebx], 0

; 76   : 		mapTaxDetail.insert( make_pair( TAX_SALES, new __TAXDETAIL ) );			// ±¸¸Ĺ ĽĽ±ÝŔş ±âş»

  00084	eb 02		 jmp	 SHORT $LN4@TAXINFO
$LN3@TAXINFO:
  00086	33 db		 xor	 ebx, ebx
$LN4@TAXINFO:
; File C:\Program Files\Microsoft Visual Studio\2022\Professional\VC\Tools\MSVC\14.44.35207\include\xtree

; 1017 :             _Loc                = _Find_lower_bound(_Keyval);

  00088	8d 45 e8	 lea	 eax, DWORD PTR $T6[ebp]
; File C:\Program Files\Microsoft Visual Studio\2022\Professional\VC\Tools\MSVC\14.44.35207\include\utility

; 274  :         : first(_STD forward<_Other1>(_Val1)), second(_STD forward<_Other2>(_Val2)) {

  0008b	c6 45 e8 00	 mov	 BYTE PTR $T6[ebp], 0
; File C:\Program Files\Microsoft Visual Studio\2022\Professional\VC\Tools\MSVC\14.44.35207\include\xtree

; 1017 :             _Loc                = _Find_lower_bound(_Keyval);

  0008f	50		 push	 eax
  00090	8d 45 d0	 lea	 eax, DWORD PTR $T2[ebp]
; File C:\Program Files\Microsoft Visual Studio\2022\Professional\VC\Tools\MSVC\14.44.35207\include\utility

; 274  :         : first(_STD forward<_Other1>(_Val1)), second(_STD forward<_Other2>(_Val2)) {

  00093	89 5d ec	 mov	 DWORD PTR $T6[ebp+4], ebx
; File C:\Program Files\Microsoft Visual Studio\2022\Professional\VC\Tools\MSVC\14.44.35207\include\xtree

; 1017 :             _Loc                = _Find_lower_bound(_Keyval);

  00096	50		 push	 eax
  00097	8b cf		 mov	 ecx, edi
  00099	e8 00 00 00 00	 call	 ??$_Find_lower_bound@E@?$_Tree@V?$_Tmap_traits@EPAU__TAXDETAIL@@U?$less@E@std@@V?$allocator@U?$pair@$$CBEPAU__TAXDETAIL@@@std@@@3@$0A@@std@@@std@@IBE?AU?$_Tree_find_result@PAU?$_Tree_node@U?$pair@$$CBEPAU__TAXDETAIL@@@std@@PAX@std@@@1@ABE@Z ; std::_Tree<std::_Tmap_traits<unsigned char,__TAXDETAIL *,std::less<unsigned char>,std::allocator<std::pair<unsigned char const ,__TAXDETAIL *> >,0> >::_Find_lower_bound<unsigned char>
  0009e	f3 0f 7e 00	 movq	 xmm0, QWORD PTR [eax]
  000a2	8b 40 08	 mov	 eax, DWORD PTR [eax+8]
  000a5	66 0f d6 45 dc	 movq	 QWORD PTR __Loc$4[ebp], xmm0

; 1624 :         return !_Bound->_Isnil && !_DEBUG_LT_PRED(_Getcomp(), _Keyval, _Traits::_Kfn(_Bound->_Myval));

  000aa	80 78 0d 00	 cmp	 BYTE PTR [eax+13], 0
  000ae	75 06		 jne	 SHORT $LN274@TAXINFO
; File C:\Program Files\Microsoft Visual Studio\2022\Professional\VC\Tools\MSVC\14.44.35207\include\type_traits

; 2380 :         return _Left < _Right;

  000b0	80 78 10 00	 cmp	 BYTE PTR [eax+16], 0
; File C:\Program Files\Microsoft Visual Studio\2022\Professional\VC\Tools\MSVC\14.44.35207\include\xtree

; 1624 :         return !_Bound->_Isnil && !_DEBUG_LT_PRED(_Getcomp(), _Keyval, _Traits::_Kfn(_Bound->_Myval));

  000b4	76 4e		 jbe	 SHORT $LN143@TAXINFO
$LN274@TAXINFO:

; 1648 :         if (max_size() == _Get_scary()->_Mysize) {

  000b6	81 7f 04 aa aa
	aa 0a		 cmp	 DWORD PTR [edi+4], 178956970 ; 0aaaaaaaH
  000bd	0f 84 ee 00 00
	00		 je	 $LN275@TAXINFO

; 1023 :             _Inserted = _Tree_temp_node<_Alnode>(_Getal(), _Scary->_Myhead, _STD forward<_Valtys>(_Vals)...)._Release();

  000c3	8b 37		 mov	 esi, DWORD PTR [edi]
; File C:\Program Files\Microsoft Visual Studio\2022\Professional\VC\Tools\MSVC\14.44.35207\include\xmemory

; 1160 :     _CONSTEXPR20 explicit _Alloc_construct_ptr(_Alloc& _Al_) : _Al(_Al_), _Ptr(nullptr) {}

  000c5	89 7d e8	 mov	 DWORD PTR $T8[ebp], edi

; 136  :         return ::operator new(_Bytes);

  000c8	6a 18		 push	 24			; 00000018H
; File C:\Program Files\Microsoft Visual Studio\2022\Professional\VC\Tools\MSVC\14.44.35207\include\xtree

; 808  :     explicit _Tree_temp_node_alloc(_Alnode& _Al_) : _Alloc_construct_ptr<_Alnode>(_Al_) {

  000ca	c6 45 fc 01	 mov	 BYTE PTR __$EHRec$[ebp+8], 1
; File C:\Program Files\Microsoft Visual Studio\2022\Professional\VC\Tools\MSVC\14.44.35207\include\xmemory

; 1167 :         _Ptr = nullptr; // if allocate throws, prevents double-free

  000ce	c7 45 ec 00 00
	00 00		 mov	 DWORD PTR $T8[ebp+4], 0

; 136  :         return ::operator new(_Bytes);

  000d5	e8 00 00 00 00	 call	 ??2@YAPAXI@Z		; operator new
  000da	83 c4 04	 add	 esp, 4
; File C:\Program Files\Microsoft Visual Studio\2022\Professional\VC\Tools\MSVC\14.44.35207\include\xtree

; 810  :     }

  000dd	c6 45 fc 00	 mov	 BYTE PTR __$EHRec$[ebp+8], 0

; 1042 :         return {_Scary->_Insert_node(_Loc._Location, _Inserted), true};

  000e1	8b cf		 mov	 ecx, edi
; File C:\Program Files\Microsoft Visual Studio\2022\Professional\VC\Tools\MSVC\14.44.35207\include\utility

; 303  :         : first(_STD forward<_Other1>(_Right.first)), second(_STD forward<_Other2>(_Right.second)) {}

  000e3	c6 40 10 00	 mov	 BYTE PTR [eax+16], 0
; File C:\Program Files\Microsoft Visual Studio\2022\Professional\VC\Tools\MSVC\14.44.35207\include\xtree

; 1042 :         return {_Scary->_Insert_node(_Loc._Location, _Inserted), true};

  000e7	50		 push	 eax
  000e8	ff 75 e0	 push	 DWORD PTR __Loc$4[ebp+4]
; File C:\Program Files\Microsoft Visual Studio\2022\Professional\VC\Tools\MSVC\14.44.35207\include\utility

; 303  :         : first(_STD forward<_Other1>(_Right.first)), second(_STD forward<_Other2>(_Right.second)) {}

  000eb	89 58 14	 mov	 DWORD PTR [eax+20], ebx
; File C:\Program Files\Microsoft Visual Studio\2022\Professional\VC\Tools\MSVC\14.44.35207\include\xtree

; 1042 :         return {_Scary->_Insert_node(_Loc._Location, _Inserted), true};

  000ee	ff 75 dc	 push	 DWORD PTR __Loc$4[ebp]

; 831  :         _Construct_in_place(this->_Ptr->_Left, _Myhead);

  000f1	89 30		 mov	 DWORD PTR [eax], esi

; 832  :         _Construct_in_place(this->_Ptr->_Parent, _Myhead);

  000f3	89 70 04	 mov	 DWORD PTR [eax+4], esi

; 833  :         _Construct_in_place(this->_Ptr->_Right, _Myhead);

  000f6	89 70 08	 mov	 DWORD PTR [eax+8], esi

; 834  :         this->_Ptr->_Color = _Red;

  000f9	66 c7 40 0c 00
	00		 mov	 WORD PTR [eax+12], 0

; 1042 :         return {_Scary->_Insert_node(_Loc._Location, _Inserted), true};

  000ff	e8 00 00 00 00	 call	 ?_Insert_node@?$_Tree_val@U?$_Tree_simple_types@U?$pair@$$CBEPAU__TAXDETAIL@@@std@@@std@@@std@@QAEPAU?$_Tree_node@U?$pair@$$CBEPAU__TAXDETAIL@@@std@@PAX@2@U?$_Tree_id@PAU?$_Tree_node@U?$pair@$$CBEPAU__TAXDETAIL@@@std@@PAX@std@@@2@QAU32@@Z ; std::_Tree_val<std::_Tree_simple_types<std::pair<unsigned char const ,__TAXDETAIL *> > >::_Insert_node
$LN143@TAXINFO:
; File C:\IAGOS\server\v18\Source\Source\_Common\tax.h

; 77   : 		mapTaxDetail.insert( make_pair( TAX_PURCHASE, new __TAXDETAIL ) );		// ĆÇ¸Ĺ ĽĽ±ÝŔş ±âş»

  00104	6a 04		 push	 4
  00106	e8 00 00 00 00	 call	 ??2@YAPAXI@Z		; operator new
  0010b	8b d8		 mov	 ebx, eax
  0010d	83 c4 04	 add	 esp, 4
  00110	89 5d ec	 mov	 DWORD PTR $T11[ebp], ebx
  00113	85 db		 test	 ebx, ebx
  00115	74 08		 je	 SHORT $LN5@TAXINFO

; 55   : 		nTaxRate = 0;

  00117	c7 03 00 00 00
	00		 mov	 DWORD PTR [ebx], 0

; 77   : 		mapTaxDetail.insert( make_pair( TAX_PURCHASE, new __TAXDETAIL ) );		// ĆÇ¸Ĺ ĽĽ±ÝŔş ±âş»

  0011d	eb 02		 jmp	 SHORT $LN6@TAXINFO
$LN5@TAXINFO:
  0011f	33 db		 xor	 ebx, ebx
$LN6@TAXINFO:
; File C:\Program Files\Microsoft Visual Studio\2022\Professional\VC\Tools\MSVC\14.44.35207\include\xtree

; 1017 :             _Loc                = _Find_lower_bound(_Keyval);

  00121	8d 45 e8	 lea	 eax, DWORD PTR $T7[ebp]
; File C:\Program Files\Microsoft Visual Studio\2022\Professional\VC\Tools\MSVC\14.44.35207\include\utility

; 274  :         : first(_STD forward<_Other1>(_Val1)), second(_STD forward<_Other2>(_Val2)) {

  00124	c6 45 e8 01	 mov	 BYTE PTR $T7[ebp], 1
; File C:\Program Files\Microsoft Visual Studio\2022\Professional\VC\Tools\MSVC\14.44.35207\include\xtree

; 1017 :             _Loc                = _Find_lower_bound(_Keyval);

  00128	50		 push	 eax
  00129	8d 45 d0	 lea	 eax, DWORD PTR $T3[ebp]
; File C:\Program Files\Microsoft Visual Studio\2022\Professional\VC\Tools\MSVC\14.44.35207\include\utility

; 274  :         : first(_STD forward<_Other1>(_Val1)), second(_STD forward<_Other2>(_Val2)) {

  0012c	89 5d ec	 mov	 DWORD PTR $T7[ebp+4], ebx
; File C:\Program Files\Microsoft Visual Studio\2022\Professional\VC\Tools\MSVC\14.44.35207\include\xtree

; 1017 :             _Loc                = _Find_lower_bound(_Keyval);

  0012f	50		 push	 eax
  00130	8b cf		 mov	 ecx, edi
  00132	e8 00 00 00 00	 call	 ??$_Find_lower_bound@E@?$_Tree@V?$_Tmap_traits@EPAU__TAXDETAIL@@U?$less@E@std@@V?$allocator@U?$pair@$$CBEPAU__TAXDETAIL@@@std@@@3@$0A@@std@@@std@@IBE?AU?$_Tree_find_result@PAU?$_Tree_node@U?$pair@$$CBEPAU__TAXDETAIL@@@std@@PAX@std@@@1@ABE@Z ; std::_Tree<std::_Tmap_traits<unsigned char,__TAXDETAIL *,std::less<unsigned char>,std::allocator<std::pair<unsigned char const ,__TAXDETAIL *> >,0> >::_Find_lower_bound<unsigned char>
  00137	f3 0f 7e 00	 movq	 xmm0, QWORD PTR [eax]
  0013b	8b 40 08	 mov	 eax, DWORD PTR [eax+8]
  0013e	66 0f d6 45 dc	 movq	 QWORD PTR __Loc$5[ebp], xmm0

; 1624 :         return !_Bound->_Isnil && !_DEBUG_LT_PRED(_Getcomp(), _Keyval, _Traits::_Kfn(_Bound->_Myval));

  00143	80 78 0d 00	 cmp	 BYTE PTR [eax+13], 0
  00147	75 06		 jne	 SHORT $LN273@TAXINFO
; File C:\Program Files\Microsoft Visual Studio\2022\Professional\VC\Tools\MSVC\14.44.35207\include\type_traits

; 2380 :         return _Left < _Right;

  00149	80 78 10 01	 cmp	 BYTE PTR [eax+16], 1
; File C:\Program Files\Microsoft Visual Studio\2022\Professional\VC\Tools\MSVC\14.44.35207\include\xtree

; 1624 :         return !_Bound->_Isnil && !_DEBUG_LT_PRED(_Getcomp(), _Keyval, _Traits::_Kfn(_Bound->_Myval));

  0014d	76 46		 jbe	 SHORT $LN257@TAXINFO
$LN273@TAXINFO:

; 1648 :         if (max_size() == _Get_scary()->_Mysize) {

  0014f	81 7f 04 aa aa
	aa 0a		 cmp	 DWORD PTR [edi+4], 178956970 ; 0aaaaaaaH
  00156	74 59		 je	 SHORT $LN275@TAXINFO

; 1023 :             _Inserted = _Tree_temp_node<_Alnode>(_Getal(), _Scary->_Myhead, _STD forward<_Valtys>(_Vals)...)._Release();

  00158	8b 37		 mov	 esi, DWORD PTR [edi]
; File C:\Program Files\Microsoft Visual Studio\2022\Professional\VC\Tools\MSVC\14.44.35207\include\xmemory

; 1160 :     _CONSTEXPR20 explicit _Alloc_construct_ptr(_Alloc& _Al_) : _Al(_Al_), _Ptr(nullptr) {}

  0015a	89 7d e8	 mov	 DWORD PTR $T9[ebp], edi

; 136  :         return ::operator new(_Bytes);

  0015d	6a 18		 push	 24			; 00000018H
; File C:\Program Files\Microsoft Visual Studio\2022\Professional\VC\Tools\MSVC\14.44.35207\include\xtree

; 808  :     explicit _Tree_temp_node_alloc(_Alnode& _Al_) : _Alloc_construct_ptr<_Alnode>(_Al_) {

  0015f	c6 45 fc 02	 mov	 BYTE PTR __$EHRec$[ebp+8], 2
; File C:\Program Files\Microsoft Visual Studio\2022\Professional\VC\Tools\MSVC\14.44.35207\include\xmemory

; 1167 :         _Ptr = nullptr; // if allocate throws, prevents double-free

  00163	c7 45 ec 00 00
	00 00		 mov	 DWORD PTR $T9[ebp+4], 0

; 136  :         return ::operator new(_Bytes);

  0016a	e8 00 00 00 00	 call	 ??2@YAPAXI@Z		; operator new
  0016f	83 c4 04	 add	 esp, 4
; File C:\Program Files\Microsoft Visual Studio\2022\Professional\VC\Tools\MSVC\14.44.35207\include\xtree

; 1042 :         return {_Scary->_Insert_node(_Loc._Location, _Inserted), true};

  00172	8b cf		 mov	 ecx, edi
; File C:\Program Files\Microsoft Visual Studio\2022\Professional\VC\Tools\MSVC\14.44.35207\include\utility

; 303  :         : first(_STD forward<_Other1>(_Right.first)), second(_STD forward<_Other2>(_Right.second)) {}

  00174	c6 40 10 01	 mov	 BYTE PTR [eax+16], 1
; File C:\Program Files\Microsoft Visual Studio\2022\Professional\VC\Tools\MSVC\14.44.35207\include\xtree

; 1042 :         return {_Scary->_Insert_node(_Loc._Location, _Inserted), true};

  00178	50		 push	 eax
  00179	ff 75 e0	 push	 DWORD PTR __Loc$5[ebp+4]
; File C:\Program Files\Microsoft Visual Studio\2022\Professional\VC\Tools\MSVC\14.44.35207\include\utility

; 303  :         : first(_STD forward<_Other1>(_Right.first)), second(_STD forward<_Other2>(_Right.second)) {}

  0017c	89 58 14	 mov	 DWORD PTR [eax+20], ebx
; File C:\Program Files\Microsoft Visual Studio\2022\Professional\VC\Tools\MSVC\14.44.35207\include\xtree

; 1042 :         return {_Scary->_Insert_node(_Loc._Location, _Inserted), true};

  0017f	ff 75 dc	 push	 DWORD PTR __Loc$5[ebp]

; 831  :         _Construct_in_place(this->_Ptr->_Left, _Myhead);

  00182	89 30		 mov	 DWORD PTR [eax], esi

; 832  :         _Construct_in_place(this->_Ptr->_Parent, _Myhead);

  00184	89 70 04	 mov	 DWORD PTR [eax+4], esi

; 833  :         _Construct_in_place(this->_Ptr->_Right, _Myhead);

  00187	89 70 08	 mov	 DWORD PTR [eax+8], esi

; 834  :         this->_Ptr->_Color = _Red;

  0018a	66 c7 40 0c 00
	00		 mov	 WORD PTR [eax+12], 0

; 1042 :         return {_Scary->_Insert_node(_Loc._Location, _Inserted), true};

  00190	e8 00 00 00 00	 call	 ?_Insert_node@?$_Tree_val@U?$_Tree_simple_types@U?$pair@$$CBEPAU__TAXDETAIL@@@std@@@std@@@std@@QAEPAU?$_Tree_node@U?$pair@$$CBEPAU__TAXDETAIL@@@std@@PAX@2@U?$_Tree_id@PAU?$_Tree_node@U?$pair@$$CBEPAU__TAXDETAIL@@@std@@PAX@std@@@2@QAU32@@Z ; std::_Tree_val<std::_Tree_simple_types<std::pair<unsigned char const ,__TAXDETAIL *> > >::_Insert_node
$LN257@TAXINFO:
; File C:\IAGOS\server\v18\Source\Source\_Common\tax.h

; 78   : 		dwNextId = NULL_ID;

  00195	8b 45 f0	 mov	 eax, DWORD PTR _this$[ebp]
  00198	c7 40 10 ff ff
	ff ff		 mov	 DWORD PTR [eax+16], -1

; 79   : 	}

  0019f	8b 4d f4	 mov	 ecx, DWORD PTR __$EHRec$[ebp]
  001a2	64 89 0d 00 00
	00 00		 mov	 DWORD PTR fs:0, ecx
  001a9	59		 pop	 ecx
  001aa	5f		 pop	 edi
  001ab	5e		 pop	 esi
  001ac	5b		 pop	 ebx
  001ad	8b e5		 mov	 esp, ebp
  001af	5d		 pop	 ebp
  001b0	c3		 ret	 0
$LN275@TAXINFO:
; File C:\Program Files\Microsoft Visual Studio\2022\Professional\VC\Tools\MSVC\14.44.35207\include\xtree

; 1649 :             _Throw_tree_length_error();

  001b1	e8 00 00 00 00	 call	 ?_Throw_tree_length_error@std@@YAXXZ ; std::_Throw_tree_length_error
$LN278@TAXINFO:
  001b6	cc		 int	 3
_TEXT	ENDS
;	COMDAT text$x
text$x	SEGMENT
__unwindfunclet$??0__TAXINFO@@QAE@XZ$0:
  00000	8b 4d f0	 mov	 ecx, DWORD PTR _this$[ebp]
  00003	83 c1 08	 add	 ecx, 8
  00006	e9 00 00 00 00	 jmp	 ??1?$map@EPAU__TAXDETAIL@@U?$less@E@std@@V?$allocator@U?$pair@$$CBEPAU__TAXDETAIL@@@std@@@3@@std@@QAE@XZ
__unwindfunclet$??0__TAXINFO@@QAE@XZ$6:
  0000b	8d 4d e8	 lea	 ecx, DWORD PTR $T8[ebp]
  0000e	e9 00 00 00 00	 jmp	 ??1?$_Alloc_construct_ptr@V?$allocator@U?$_Tree_node@U?$pair@$$CBEPAU__TAXDETAIL@@@std@@PAX@std@@@std@@@std@@QAE@XZ ; std::_Alloc_construct_ptr<std::allocator<std::_Tree_node<std::pair<unsigned char const ,__TAXDETAIL *>,void *> > >::~_Alloc_construct_ptr<std::allocator<std::_Tree_node<std::pair<unsigned char const ,__TAXDETAIL *>,void *> > >
__unwindfunclet$??0__TAXINFO@@QAE@XZ$11:
  00013	8d 4d e8	 lea	 ecx, DWORD PTR $T9[ebp]
  00016	e9 00 00 00 00	 jmp	 ??1?$_Alloc_construct_ptr@V?$allocator@U?$_Tree_node@U?$pair@$$CBEPAU__TAXDETAIL@@@std@@PAX@std@@@std@@@std@@QAE@XZ ; std::_Alloc_construct_ptr<std::allocator<std::_Tree_node<std::pair<unsigned char const ,__TAXDETAIL *>,void *> > >::~_Alloc_construct_ptr<std::allocator<std::_Tree_node<std::pair<unsigned char const ,__TAXDETAIL *>,void *> > >
  0001b	cc		 int	 3
  0001c	cc		 int	 3
  0001d	cc		 int	 3
  0001e	cc		 int	 3
  0001f	cc		 int	 3
__ehhandler$??0__TAXINFO@@QAE@XZ:
  00020	90		 npad	 1
  00021	90		 npad	 1
  00022	8b 54 24 08	 mov	 edx, DWORD PTR [esp+8]
  00026	8d 42 0c	 lea	 eax, DWORD PTR [edx+12]
  00029	8b 4a cc	 mov	 ecx, DWORD PTR [edx-52]
  0002c	33 c8		 xor	 ecx, eax
  0002e	e8 00 00 00 00	 call	 @__security_check_cookie@4
  00033	b8 00 00 00 00	 mov	 eax, OFFSET __ehfuncinfo$??0__TAXINFO@@QAE@XZ
  00038	e9 00 00 00 00	 jmp	 ___CxxFrameHandler3
text$x	ENDS
??0__TAXINFO@@QAE@XZ ENDP				; __TAXINFO::__TAXINFO
; Function compile flags: /Ogtp
;	COMDAT ??1?$map@EPAU__TAXDETAIL@@U?$less@E@std@@V?$allocator@U?$pair@$$CBEPAU__TAXDETAIL@@@std@@@3@@std@@QAE@XZ
_TEXT	SEGMENT
??1?$map@EPAU__TAXDETAIL@@U?$less@E@std@@V?$allocator@U?$pair@$$CBEPAU__TAXDETAIL@@@std@@@3@@std@@QAE@XZ PROC ; std::map<unsigned char,__TAXDETAIL *,std::less<unsigned char>,std::allocator<std::pair<unsigned char const ,__TAXDETAIL *> > >::~map<unsigned char,__TAXDETAIL *,std::less<unsigned char>,std::allocator<std::pair<unsigned char const ,__TAXDETAIL *> > >, COMDAT
; _this$ = ecx
  00000	e9 00 00 00 00	 jmp	 ??1?$_Tree@V?$_Tmap_traits@EPAU__TAXDETAIL@@U?$less@E@std@@V?$allocator@U?$pair@$$CBEPAU__TAXDETAIL@@@std@@@3@$0A@@std@@@std@@QAE@XZ ; std::_Tree<std::_Tmap_traits<unsigned char,__TAXDETAIL *,std::less<unsigned char>,std::allocator<std::pair<unsigned char const ,__TAXDETAIL *> >,0> >::~_Tree<std::_Tmap_traits<unsigned char,__TAXDETAIL *,std::less<unsigned char>,std::allocator<std::pair<unsigned char const ,__TAXDETAIL *> >,0> >
??1?$map@EPAU__TAXDETAIL@@U?$less@E@std@@V?$allocator@U?$pair@$$CBEPAU__TAXDETAIL@@@std@@@3@@std@@QAE@XZ ENDP ; std::map<unsigned char,__TAXDETAIL *,std::less<unsigned char>,std::allocator<std::pair<unsigned char const ,__TAXDETAIL *> > >::~map<unsigned char,__TAXDETAIL *,std::less<unsigned char>,std::allocator<std::pair<unsigned char const ,__TAXDETAIL *> > >
_TEXT	ENDS
; Function compile flags: /Ogtp
; File C:\Program Files\Microsoft Visual Studio\2022\Professional\VC\Tools\MSVC\14.44.35207\include\xtree
;	COMDAT ?_Insert_node@?$_Tree_val@U?$_Tree_simple_types@U?$pair@$$CBEPAU__TAXDETAIL@@@std@@@std@@@std@@QAEPAU?$_Tree_node@U?$pair@$$CBEPAU__TAXDETAIL@@@std@@PAX@2@U?$_Tree_id@PAU?$_Tree_node@U?$pair@$$CBEPAU__TAXDETAIL@@@std@@PAX@std@@@2@QAU32@@Z
_TEXT	SEGMENT
__Head$1$ = -4						; size = 4
__Loc$ = 8						; size = 8
__Newnode$ = 16						; size = 4
?_Insert_node@?$_Tree_val@U?$_Tree_simple_types@U?$pair@$$CBEPAU__TAXDETAIL@@@std@@@std@@@std@@QAEPAU?$_Tree_node@U?$pair@$$CBEPAU__TAXDETAIL@@@std@@PAX@2@U?$_Tree_id@PAU?$_Tree_node@U?$pair@$$CBEPAU__TAXDETAIL@@@std@@PAX@std@@@2@QAU32@@Z PROC ; std::_Tree_val<std::_Tree_simple_types<std::pair<unsigned char const ,__TAXDETAIL *> > >::_Insert_node, COMDAT
; _this$ = ecx

; 669  :     _Nodeptr _Insert_node(const _Tree_id<_Nodeptr> _Loc, const _Nodeptr _Newnode) noexcept {

  00000	55		 push	 ebp
  00001	8b ec		 mov	 ebp, esp
  00003	51		 push	 ecx

; 670  :         ++_Mysize;
; 671  :         const auto _Head  = _Myhead;
; 672  :         _Newnode->_Parent = _Loc._Parent;

  00004	8b 55 08	 mov	 edx, DWORD PTR __Loc$[ebp]
  00007	53		 push	 ebx
  00008	8b d9		 mov	 ebx, ecx
  0000a	57		 push	 edi
  0000b	8b 7d 10	 mov	 edi, DWORD PTR __Newnode$[ebp]
  0000e	8b 03		 mov	 eax, DWORD PTR [ebx]
  00010	ff 43 04	 inc	 DWORD PTR [ebx+4]
  00013	89 45 fc	 mov	 DWORD PTR __Head$1$[ebp], eax
  00016	89 57 04	 mov	 DWORD PTR [edi+4], edx

; 673  :         if (_Loc._Parent == _Head) { // first node in tree, just set head values

  00019	3b d0		 cmp	 edx, eax
  0001b	75 16		 jne	 SHORT $LN5@Insert_nod

; 674  :             _Head->_Left     = _Newnode;

  0001d	89 38		 mov	 DWORD PTR [eax], edi

; 675  :             _Head->_Parent   = _Newnode;

  0001f	89 78 04	 mov	 DWORD PTR [eax+4], edi

; 676  :             _Head->_Right    = _Newnode;

  00022	89 78 08	 mov	 DWORD PTR [eax+8], edi

; 735  :         return _Newnode;
; 736  :     }

  00025	8b c7		 mov	 eax, edi
  00027	c6 47 0c 01	 mov	 BYTE PTR [edi+12], 1
  0002b	5f		 pop	 edi
  0002c	5b		 pop	 ebx
  0002d	8b e5		 mov	 esp, ebp
  0002f	5d		 pop	 ebp
  00030	c2 0c 00	 ret	 12			; 0000000cH
$LN5@Insert_nod:

; 677  :             _Newnode->_Color = _Black; // the root is black
; 678  :             return _Newnode;
; 679  :         }
; 680  : 
; 681  :         _STL_INTERNAL_CHECK(_Loc._Child != _Tree_child::_Unused);
; 682  :         if (_Loc._Child == _Tree_child::_Right) { // add to right of _Loc._Parent

  00033	83 7d 0c 00	 cmp	 DWORD PTR __Loc$[ebp+4], 0
  00037	75 0d		 jne	 SHORT $LN6@Insert_nod

; 683  :             _STL_INTERNAL_CHECK(_Loc._Parent->_Right->_Isnil);
; 684  :             _Loc._Parent->_Right = _Newnode;

  00039	89 7a 08	 mov	 DWORD PTR [edx+8], edi

; 685  :             if (_Loc._Parent == _Head->_Right) { // remember rightmost node

  0003c	3b 50 08	 cmp	 edx, DWORD PTR [eax+8]
  0003f	75 0d		 jne	 SHORT $LN9@Insert_nod

; 686  :                 _Head->_Right = _Newnode;

  00041	89 78 08	 mov	 DWORD PTR [eax+8], edi

; 687  :             }
; 688  :         } else { // add to left of _Loc._Parent

  00044	eb 08		 jmp	 SHORT $LN9@Insert_nod
$LN6@Insert_nod:

; 689  :             _STL_INTERNAL_CHECK(_Loc._Parent->_Left->_Isnil);
; 690  :             _Loc._Parent->_Left = _Newnode;

  00046	89 3a		 mov	 DWORD PTR [edx], edi

; 691  :             if (_Loc._Parent == _Head->_Left) { // remember leftmost node

  00048	3b 10		 cmp	 edx, DWORD PTR [eax]
  0004a	75 02		 jne	 SHORT $LN9@Insert_nod

; 692  :                 _Head->_Left = _Newnode;

  0004c	89 38		 mov	 DWORD PTR [eax], edi
$LN9@Insert_nod:

; 693  :             }
; 694  :         }
; 695  : 
; 696  :         for (_Nodeptr _Pnode = _Newnode; _Pnode->_Parent->_Color == _Red;) {

  0004e	8b 4f 04	 mov	 ecx, DWORD PTR [edi+4]
  00051	8b c7		 mov	 eax, edi
  00053	80 79 0c 00	 cmp	 BYTE PTR [ecx+12], 0
  00057	0f 85 7d 01 00
	00		 jne	 $LN3@Insert_nod
  0005d	56		 push	 esi
  0005e	66 90		 npad	 2
$LL4@Insert_nod:

; 697  :             if (_Pnode->_Parent == _Pnode->_Parent->_Parent->_Left) { // fixup red-red in left subtree

  00060	8b 50 04	 mov	 edx, DWORD PTR [eax+4]
  00063	8b 72 04	 mov	 esi, DWORD PTR [edx+4]
  00066	8b 0e		 mov	 ecx, DWORD PTR [esi]
  00068	3b d1		 cmp	 edx, ecx
  0006a	0f 85 aa 00 00
	00		 jne	 $LN10@Insert_nod

; 698  :                 const auto _Parent_sibling = _Pnode->_Parent->_Parent->_Right;

  00070	8b 4e 08	 mov	 ecx, DWORD PTR [esi+8]

; 699  :                 if (_Parent_sibling->_Color == _Red) { // parent's sibling has two red children, blacken both

  00073	80 79 0c 00	 cmp	 BYTE PTR [ecx+12], 0
  00077	0f 84 a3 00 00
	00		 je	 $LN82@Insert_nod

; 700  :                     _Pnode->_Parent->_Color          = _Black;
; 701  :                     _Parent_sibling->_Color          = _Black;
; 702  :                     _Pnode->_Parent->_Parent->_Color = _Red;
; 703  :                     _Pnode                           = _Pnode->_Parent->_Parent;
; 704  :                 } else { // parent's sibling has red and black children
; 705  :                     if (_Pnode == _Pnode->_Parent->_Right) { // rotate right child to left

  0007d	8b 72 08	 mov	 esi, DWORD PTR [edx+8]
  00080	3b c6		 cmp	 eax, esi
  00082	75 37		 jne	 SHORT $LN57@Insert_nod

; 485  :         _Wherenode->_Right = _Pnode->_Left;

  00084	8b 0e		 mov	 ecx, DWORD PTR [esi]

; 706  :                         _Pnode = _Pnode->_Parent;

  00086	8b c2		 mov	 eax, edx

; 485  :         _Wherenode->_Right = _Pnode->_Left;

  00088	89 4a 08	 mov	 DWORD PTR [edx+8], ecx

; 486  : 
; 487  :         if (!_Pnode->_Left->_Isnil) {

  0008b	8b 0e		 mov	 ecx, DWORD PTR [esi]
  0008d	80 79 0d 00	 cmp	 BYTE PTR [ecx+13], 0
  00091	75 03		 jne	 SHORT $LN21@Insert_nod

; 488  :             _Pnode->_Left->_Parent = _Wherenode;

  00093	89 41 04	 mov	 DWORD PTR [ecx+4], eax
$LN21@Insert_nod:

; 489  :         }
; 490  : 
; 491  :         _Pnode->_Parent = _Wherenode->_Parent;

  00096	8b 4a 04	 mov	 ecx, DWORD PTR [edx+4]
  00099	89 4e 04	 mov	 DWORD PTR [esi+4], ecx

; 492  : 
; 493  :         if (_Wherenode == _Myhead->_Parent) {

  0009c	8b 0b		 mov	 ecx, DWORD PTR [ebx]
  0009e	3b 41 04	 cmp	 eax, DWORD PTR [ecx+4]
  000a1	75 05		 jne	 SHORT $LN22@Insert_nod

; 494  :             _Myhead->_Parent = _Pnode;

  000a3	89 71 04	 mov	 DWORD PTR [ecx+4], esi
  000a6	eb 0e		 jmp	 SHORT $LN25@Insert_nod
$LN22@Insert_nod:

; 495  :         } else if (_Wherenode == _Wherenode->_Parent->_Left) {

  000a8	8b 4a 04	 mov	 ecx, DWORD PTR [edx+4]
  000ab	3b 01		 cmp	 eax, DWORD PTR [ecx]
  000ad	75 04		 jne	 SHORT $LN24@Insert_nod

; 496  :             _Wherenode->_Parent->_Left = _Pnode;

  000af	89 31		 mov	 DWORD PTR [ecx], esi

; 497  :         } else {

  000b1	eb 03		 jmp	 SHORT $LN25@Insert_nod
$LN24@Insert_nod:

; 498  :             _Wherenode->_Parent->_Right = _Pnode;

  000b3	89 71 08	 mov	 DWORD PTR [ecx+8], esi
$LN25@Insert_nod:

; 499  :         }
; 500  : 
; 501  :         _Pnode->_Left       = _Wherenode;

  000b6	89 06		 mov	 DWORD PTR [esi], eax

; 502  :         _Wherenode->_Parent = _Pnode;

  000b8	89 70 04	 mov	 DWORD PTR [eax+4], esi
$LN57@Insert_nod:

; 707  :                         _Lrotate(_Pnode);
; 708  :                     }
; 709  : 
; 710  :                     _Pnode->_Parent->_Color          = _Black; // propagate red up

  000bb	8b 48 04	 mov	 ecx, DWORD PTR [eax+4]
  000be	c6 41 0c 01	 mov	 BYTE PTR [ecx+12], 1

; 711  :                     _Pnode->_Parent->_Parent->_Color = _Red;

  000c2	8b 48 04	 mov	 ecx, DWORD PTR [eax+4]
  000c5	8b 49 04	 mov	 ecx, DWORD PTR [ecx+4]
  000c8	c6 41 0c 00	 mov	 BYTE PTR [ecx+12], 0

; 712  :                     _Rrotate(_Pnode->_Parent->_Parent);

  000cc	8b 48 04	 mov	 ecx, DWORD PTR [eax+4]
  000cf	8b 51 04	 mov	 edx, DWORD PTR [ecx+4]

; 506  :         _Nodeptr _Pnode   = _Wherenode->_Left;

  000d2	8b 32		 mov	 esi, DWORD PTR [edx]

; 507  :         _Wherenode->_Left = _Pnode->_Right;

  000d4	8b 4e 08	 mov	 ecx, DWORD PTR [esi+8]
  000d7	89 0a		 mov	 DWORD PTR [edx], ecx

; 508  : 
; 509  :         if (!_Pnode->_Right->_Isnil) {

  000d9	8b 4e 08	 mov	 ecx, DWORD PTR [esi+8]
  000dc	80 79 0d 00	 cmp	 BYTE PTR [ecx+13], 0
  000e0	75 03		 jne	 SHORT $LN29@Insert_nod

; 510  :             _Pnode->_Right->_Parent = _Wherenode;

  000e2	89 51 04	 mov	 DWORD PTR [ecx+4], edx
$LN29@Insert_nod:

; 511  :         }
; 512  : 
; 513  :         _Pnode->_Parent = _Wherenode->_Parent;

  000e5	8b 4a 04	 mov	 ecx, DWORD PTR [edx+4]
  000e8	89 4e 04	 mov	 DWORD PTR [esi+4], ecx

; 514  : 
; 515  :         if (_Wherenode == _Myhead->_Parent) {

  000eb	8b 0b		 mov	 ecx, DWORD PTR [ebx]
  000ed	3b 51 04	 cmp	 edx, DWORD PTR [ecx+4]
  000f0	75 0b		 jne	 SHORT $LN30@Insert_nod

; 516  :             _Myhead->_Parent = _Pnode;

  000f2	89 71 04	 mov	 DWORD PTR [ecx+4], esi

; 521  :         }
; 522  : 
; 523  :         _Pnode->_Right      = _Wherenode;

  000f5	89 56 08	 mov	 DWORD PTR [esi+8], edx

; 713  :                 }
; 714  :             } else { // fixup red-red in right subtree

  000f8	e9 cc 00 00 00	 jmp	 $LN81@Insert_nod
$LN30@Insert_nod:

; 517  :         } else if (_Wherenode == _Wherenode->_Parent->_Right) {

  000fd	8b 4a 04	 mov	 ecx, DWORD PTR [edx+4]
  00100	3b 51 08	 cmp	 edx, DWORD PTR [ecx+8]
  00103	75 0b		 jne	 SHORT $LN32@Insert_nod

; 518  :             _Wherenode->_Parent->_Right = _Pnode;

  00105	89 71 08	 mov	 DWORD PTR [ecx+8], esi

; 521  :         }
; 522  : 
; 523  :         _Pnode->_Right      = _Wherenode;

  00108	89 56 08	 mov	 DWORD PTR [esi+8], edx

; 713  :                 }
; 714  :             } else { // fixup red-red in right subtree

  0010b	e9 b9 00 00 00	 jmp	 $LN81@Insert_nod
$LN32@Insert_nod:

; 520  :             _Wherenode->_Parent->_Left = _Pnode;

  00110	89 31		 mov	 DWORD PTR [ecx], esi

; 521  :         }
; 522  : 
; 523  :         _Pnode->_Right      = _Wherenode;

  00112	89 56 08	 mov	 DWORD PTR [esi+8], edx

; 713  :                 }
; 714  :             } else { // fixup red-red in right subtree

  00115	e9 af 00 00 00	 jmp	 $LN81@Insert_nod
$LN10@Insert_nod:

; 715  :                 const auto _Parent_sibling = _Pnode->_Parent->_Parent->_Left;
; 716  :                 if (_Parent_sibling->_Color == _Red) { // parent's sibling has two red children, blacken both

  0011a	80 79 0c 00	 cmp	 BYTE PTR [ecx+12], 0
  0011e	75 1d		 jne	 SHORT $LN15@Insert_nod
$LN82@Insert_nod:

; 693  :             }
; 694  :         }
; 695  : 
; 696  :         for (_Nodeptr _Pnode = _Newnode; _Pnode->_Parent->_Color == _Red;) {

  00120	c6 42 0c 01	 mov	 BYTE PTR [edx+12], 1
  00124	c6 41 0c 01	 mov	 BYTE PTR [ecx+12], 1
  00128	8b 48 04	 mov	 ecx, DWORD PTR [eax+4]
  0012b	8b 49 04	 mov	 ecx, DWORD PTR [ecx+4]
  0012e	c6 41 0c 00	 mov	 BYTE PTR [ecx+12], 0
  00132	8b 48 04	 mov	 ecx, DWORD PTR [eax+4]
  00135	8b 41 04	 mov	 eax, DWORD PTR [ecx+4]
  00138	e9 8f 00 00 00	 jmp	 $LN2@Insert_nod
$LN15@Insert_nod:

; 717  :                     _Pnode->_Parent->_Color          = _Black;
; 718  :                     _Parent_sibling->_Color          = _Black;
; 719  :                     _Pnode->_Parent->_Parent->_Color = _Red;
; 720  :                     _Pnode                           = _Pnode->_Parent->_Parent;
; 721  :                 } else { // parent's sibling has red and black children
; 722  :                     if (_Pnode == _Pnode->_Parent->_Left) { // rotate left child to right

  0013d	8b 32		 mov	 esi, DWORD PTR [edx]
  0013f	3b c6		 cmp	 eax, esi
  00141	75 3a		 jne	 SHORT $LN42@Insert_nod

; 507  :         _Wherenode->_Left = _Pnode->_Right;

  00143	8b 4e 08	 mov	 ecx, DWORD PTR [esi+8]

; 723  :                         _Pnode = _Pnode->_Parent;

  00146	8b c2		 mov	 eax, edx

; 507  :         _Wherenode->_Left = _Pnode->_Right;

  00148	89 08		 mov	 DWORD PTR [eax], ecx

; 508  : 
; 509  :         if (!_Pnode->_Right->_Isnil) {

  0014a	8b 4e 08	 mov	 ecx, DWORD PTR [esi+8]
  0014d	80 79 0d 00	 cmp	 BYTE PTR [ecx+13], 0
  00151	75 03		 jne	 SHORT $LN37@Insert_nod

; 510  :             _Pnode->_Right->_Parent = _Wherenode;

  00153	89 41 04	 mov	 DWORD PTR [ecx+4], eax
$LN37@Insert_nod:

; 511  :         }
; 512  : 
; 513  :         _Pnode->_Parent = _Wherenode->_Parent;

  00156	8b 4a 04	 mov	 ecx, DWORD PTR [edx+4]
  00159	89 4e 04	 mov	 DWORD PTR [esi+4], ecx

; 514  : 
; 515  :         if (_Wherenode == _Myhead->_Parent) {

  0015c	8b 0b		 mov	 ecx, DWORD PTR [ebx]
  0015e	3b 41 04	 cmp	 eax, DWORD PTR [ecx+4]
  00161	75 05		 jne	 SHORT $LN38@Insert_nod

; 516  :             _Myhead->_Parent = _Pnode;

  00163	89 71 04	 mov	 DWORD PTR [ecx+4], esi
  00166	eb 0f		 jmp	 SHORT $LN41@Insert_nod
$LN38@Insert_nod:

; 517  :         } else if (_Wherenode == _Wherenode->_Parent->_Right) {

  00168	8b 4a 04	 mov	 ecx, DWORD PTR [edx+4]
  0016b	3b 41 08	 cmp	 eax, DWORD PTR [ecx+8]
  0016e	75 05		 jne	 SHORT $LN40@Insert_nod

; 518  :             _Wherenode->_Parent->_Right = _Pnode;

  00170	89 71 08	 mov	 DWORD PTR [ecx+8], esi

; 519  :         } else {

  00173	eb 02		 jmp	 SHORT $LN41@Insert_nod
$LN40@Insert_nod:

; 520  :             _Wherenode->_Parent->_Left = _Pnode;

  00175	89 31		 mov	 DWORD PTR [ecx], esi
$LN41@Insert_nod:

; 521  :         }
; 522  : 
; 523  :         _Pnode->_Right      = _Wherenode;

  00177	89 46 08	 mov	 DWORD PTR [esi+8], eax

; 524  :         _Wherenode->_Parent = _Pnode;

  0017a	89 70 04	 mov	 DWORD PTR [eax+4], esi
$LN42@Insert_nod:

; 724  :                         _Rrotate(_Pnode);
; 725  :                     }
; 726  : 
; 727  :                     _Pnode->_Parent->_Color          = _Black; // propagate red up

  0017d	8b 48 04	 mov	 ecx, DWORD PTR [eax+4]
  00180	c6 41 0c 01	 mov	 BYTE PTR [ecx+12], 1

; 728  :                     _Pnode->_Parent->_Parent->_Color = _Red;

  00184	8b 48 04	 mov	 ecx, DWORD PTR [eax+4]
  00187	8b 49 04	 mov	 ecx, DWORD PTR [ecx+4]
  0018a	c6 41 0c 00	 mov	 BYTE PTR [ecx+12], 0

; 729  :                     _Lrotate(_Pnode->_Parent->_Parent);

  0018e	8b 48 04	 mov	 ecx, DWORD PTR [eax+4]
  00191	8b 51 04	 mov	 edx, DWORD PTR [ecx+4]

; 484  :         _Nodeptr _Pnode    = _Wherenode->_Right;

  00194	8b 72 08	 mov	 esi, DWORD PTR [edx+8]

; 485  :         _Wherenode->_Right = _Pnode->_Left;

  00197	8b 0e		 mov	 ecx, DWORD PTR [esi]
  00199	89 4a 08	 mov	 DWORD PTR [edx+8], ecx

; 486  : 
; 487  :         if (!_Pnode->_Left->_Isnil) {

  0019c	8b 0e		 mov	 ecx, DWORD PTR [esi]
  0019e	80 79 0d 00	 cmp	 BYTE PTR [ecx+13], 0
  001a2	75 03		 jne	 SHORT $LN45@Insert_nod

; 488  :             _Pnode->_Left->_Parent = _Wherenode;

  001a4	89 51 04	 mov	 DWORD PTR [ecx+4], edx
$LN45@Insert_nod:

; 489  :         }
; 490  : 
; 491  :         _Pnode->_Parent = _Wherenode->_Parent;

  001a7	8b 4a 04	 mov	 ecx, DWORD PTR [edx+4]
  001aa	89 4e 04	 mov	 DWORD PTR [esi+4], ecx

; 492  : 
; 493  :         if (_Wherenode == _Myhead->_Parent) {

  001ad	8b 0b		 mov	 ecx, DWORD PTR [ebx]
  001af	3b 51 04	 cmp	 edx, DWORD PTR [ecx+4]
  001b2	75 05		 jne	 SHORT $LN46@Insert_nod

; 494  :             _Myhead->_Parent = _Pnode;

  001b4	89 71 04	 mov	 DWORD PTR [ecx+4], esi
  001b7	eb 0e		 jmp	 SHORT $LN49@Insert_nod
$LN46@Insert_nod:

; 495  :         } else if (_Wherenode == _Wherenode->_Parent->_Left) {

  001b9	8b 4a 04	 mov	 ecx, DWORD PTR [edx+4]
  001bc	3b 11		 cmp	 edx, DWORD PTR [ecx]
  001be	75 04		 jne	 SHORT $LN48@Insert_nod

; 496  :             _Wherenode->_Parent->_Left = _Pnode;

  001c0	89 31		 mov	 DWORD PTR [ecx], esi

; 497  :         } else {

  001c2	eb 03		 jmp	 SHORT $LN49@Insert_nod
$LN48@Insert_nod:

; 498  :             _Wherenode->_Parent->_Right = _Pnode;

  001c4	89 71 08	 mov	 DWORD PTR [ecx+8], esi
$LN49@Insert_nod:

; 499  :         }
; 500  : 
; 501  :         _Pnode->_Left       = _Wherenode;

  001c7	89 16		 mov	 DWORD PTR [esi], edx
$LN81@Insert_nod:

; 693  :             }
; 694  :         }
; 695  : 
; 696  :         for (_Nodeptr _Pnode = _Newnode; _Pnode->_Parent->_Color == _Red;) {

  001c9	89 72 04	 mov	 DWORD PTR [edx+4], esi
$LN2@Insert_nod:
  001cc	8b 48 04	 mov	 ecx, DWORD PTR [eax+4]
  001cf	80 79 0c 00	 cmp	 BYTE PTR [ecx+12], 0
  001d3	0f 84 87 fe ff
	ff		 je	 $LL4@Insert_nod
  001d9	5e		 pop	 esi
$LN3@Insert_nod:

; 730  :                 }
; 731  :             }
; 732  :         }
; 733  : 
; 734  :         _Head->_Parent->_Color = _Black; // root is always black

  001da	8b 45 fc	 mov	 eax, DWORD PTR __Head$1$[ebp]
  001dd	8b 40 04	 mov	 eax, DWORD PTR [eax+4]
  001e0	c6 40 0c 01	 mov	 BYTE PTR [eax+12], 1

; 735  :         return _Newnode;
; 736  :     }

  001e4	8b c7		 mov	 eax, edi
  001e6	5f		 pop	 edi
  001e7	5b		 pop	 ebx
  001e8	8b e5		 mov	 esp, ebp
  001ea	5d		 pop	 ebp
  001eb	c2 0c 00	 ret	 12			; 0000000cH
?_Insert_node@?$_Tree_val@U?$_Tree_simple_types@U?$pair@$$CBEPAU__TAXDETAIL@@@std@@@std@@@std@@QAEPAU?$_Tree_node@U?$pair@$$CBEPAU__TAXDETAIL@@@std@@PAX@2@U?$_Tree_id@PAU?$_Tree_node@U?$pair@$$CBEPAU__TAXDETAIL@@@std@@PAX@std@@@2@QAU32@@Z ENDP ; std::_Tree_val<std::_Tree_simple_types<std::pair<unsigned char const ,__TAXDETAIL *> > >::_Insert_node
_TEXT	ENDS
; Function compile flags: /Ogtp
; File C:\Program Files\Microsoft Visual Studio\2022\Professional\VC\Tools\MSVC\14.44.35207\include\xtree
; File C:\Program Files\Microsoft Visual Studio\2022\Professional\VC\Tools\MSVC\14.44.35207\include\utility
; File C:\Program Files\Microsoft Visual Studio\2022\Professional\VC\Tools\MSVC\14.44.35207\include\xmemory
; File C:\Program Files\Microsoft Visual Studio\2022\Professional\VC\Tools\MSVC\14.44.35207\include\xtree
; File C:\Program Files\Microsoft Visual Studio\2022\Professional\VC\Tools\MSVC\14.44.35207\include\xmemory
; File C:\Program Files\Microsoft Visual Studio\2022\Professional\VC\Tools\MSVC\14.44.35207\include\xtree
;	COMDAT ??1?$_Tree@V?$_Tmap_traits@EPAU__TAXDETAIL@@U?$less@E@std@@V?$allocator@U?$pair@$$CBEPAU__TAXDETAIL@@@std@@@3@$0A@@std@@@std@@QAE@XZ
_TEXT	SEGMENT
??1?$_Tree@V?$_Tmap_traits@EPAU__TAXDETAIL@@U?$less@E@std@@V?$allocator@U?$pair@$$CBEPAU__TAXDETAIL@@@std@@@3@$0A@@std@@@std@@QAE@XZ PROC ; std::_Tree<std::_Tmap_traits<unsigned char,__TAXDETAIL *,std::less<unsigned char>,std::allocator<std::pair<unsigned char const ,__TAXDETAIL *> >,0> >::~_Tree<std::_Tmap_traits<unsigned char,__TAXDETAIL *,std::less<unsigned char>,std::allocator<std::pair<unsigned char const ,__TAXDETAIL *> >,0> >, COMDAT
; _this$ = ecx

; 1095 :     ~_Tree() noexcept {

  00000	56		 push	 esi
  00001	57		 push	 edi
  00002	8b f9		 mov	 edi, ecx

; 777  :         _Erase_tree(_Al, _Myhead->_Parent);

  00004	8b 37		 mov	 esi, DWORD PTR [edi]
  00006	8b 76 04	 mov	 esi, DWORD PTR [esi+4]

; 768  :         while (!_Rootnode->_Isnil) { // free subtrees, then node

  00009	80 7e 0d 00	 cmp	 BYTE PTR [esi+13], 0
  0000d	75 21		 jne	 SHORT $LN61@Tree
  0000f	90		 npad	 1
$LL8@Tree:

; 769  :             _Erase_tree(_Al, _Rootnode->_Right);

  00010	ff 76 08	 push	 DWORD PTR [esi+8]
  00013	8b cf		 mov	 ecx, edi
  00015	57		 push	 edi
  00016	e8 00 00 00 00	 call	 ??$_Erase_tree@V?$allocator@U?$_Tree_node@U?$pair@$$CBEPAU__TAXDETAIL@@@std@@PAX@std@@@std@@@?$_Tree_val@U?$_Tree_simple_types@U?$pair@$$CBEPAU__TAXDETAIL@@@std@@@std@@@std@@QAEXAAV?$allocator@U?$_Tree_node@U?$pair@$$CBEPAU__TAXDETAIL@@@std@@PAX@std@@@1@PAU?$_Tree_node@U?$pair@$$CBEPAU__TAXDETAIL@@@std@@PAX@1@@Z ; std::_Tree_val<std::_Tree_simple_types<std::pair<unsigned char const ,__TAXDETAIL *> > >::_Erase_tree<std::allocator<std::_Tree_node<std::pair<unsigned char const ,__TAXDETAIL *>,void *> > >
; File C:\Program Files\Microsoft Visual Studio\2022\Professional\VC\Tools\MSVC\14.44.35207\include\utility

; 773  :     _Ty _Old_val = static_cast<_Ty&&>(_Val);

  0001b	8b c6		 mov	 eax, esi

; 774  :     _Val         = static_cast<_Other&&>(_New_val);

  0001d	8b 36		 mov	 esi, DWORD PTR [esi]
; File C:\Program Files\Microsoft Visual Studio\2022\Professional\VC\Tools\MSVC\14.44.35207\include\xmemory

; 289  :         ::operator delete(_Ptr, _Bytes);

  0001f	6a 18		 push	 24			; 00000018H
  00021	50		 push	 eax
  00022	e8 00 00 00 00	 call	 ??3@YAXPAXI@Z		; operator delete
  00027	83 c4 08	 add	 esp, 8
; File C:\Program Files\Microsoft Visual Studio\2022\Professional\VC\Tools\MSVC\14.44.35207\include\xtree

; 768  :         while (!_Rootnode->_Isnil) { // free subtrees, then node

  0002a	80 7e 0d 00	 cmp	 BYTE PTR [esi+13], 0
  0002e	74 e0		 je	 SHORT $LL8@Tree
$LN61@Tree:
; File C:\Program Files\Microsoft Visual Studio\2022\Professional\VC\Tools\MSVC\14.44.35207\include\xmemory

; 289  :         ::operator delete(_Ptr, _Bytes);

  00030	6a 18		 push	 24			; 00000018H
  00032	ff 37		 push	 DWORD PTR [edi]
  00034	e8 00 00 00 00	 call	 ??3@YAXPAXI@Z		; operator delete
  00039	83 c4 08	 add	 esp, 8
  0003c	5f		 pop	 edi
  0003d	5e		 pop	 esi
; File C:\Program Files\Microsoft Visual Studio\2022\Professional\VC\Tools\MSVC\14.44.35207\include\xtree

; 1102 :     }

  0003e	c3		 ret	 0
??1?$_Tree@V?$_Tmap_traits@EPAU__TAXDETAIL@@U?$less@E@std@@V?$allocator@U?$pair@$$CBEPAU__TAXDETAIL@@@std@@@3@$0A@@std@@@std@@QAE@XZ ENDP ; std::_Tree<std::_Tmap_traits<unsigned char,__TAXDETAIL *,std::less<unsigned char>,std::allocator<std::pair<unsigned char const ,__TAXDETAIL *> >,0> >::~_Tree<std::_Tmap_traits<unsigned char,__TAXDETAIL *,std::less<unsigned char>,std::allocator<std::pair<unsigned char const ,__TAXDETAIL *> >,0> >
_TEXT	ENDS
; Function compile flags: /Ogtp
; File C:\Program Files\Microsoft Visual Studio\2022\Professional\VC\Tools\MSVC\14.44.35207\include\xmemory
;	COMDAT ??$_Allocate_manually_vector_aligned@U_Default_allocate_traits@std@@@std@@YAPAXI@Z
_TEXT	SEGMENT
__Bytes$ = 8						; size = 4
??$_Allocate_manually_vector_aligned@U_Default_allocate_traits@std@@@std@@YAPAXI@Z PROC ; std::_Allocate_manually_vector_aligned<std::_Default_allocate_traits>, COMDAT

; 182  : __declspec(allocator) void* _Allocate_manually_vector_aligned(const size_t _Bytes) {

  00000	55		 push	 ebp
  00001	8b ec		 mov	 ebp, esp

; 183  :     // allocate _Bytes manually aligned to at least _Big_allocation_alignment
; 184  :     const size_t _Block_size = _Non_user_size + _Bytes;

  00003	8b 45 08	 mov	 eax, DWORD PTR __Bytes$[ebp]
  00006	8d 48 23	 lea	 ecx, DWORD PTR [eax+35]

; 185  :     if (_Block_size <= _Bytes) {

  00009	3b c8		 cmp	 ecx, eax
  0000b	0f 86 00 00 00
	00		 jbe	 ?_Throw_bad_array_new_length@std@@YAXXZ ; std::_Throw_bad_array_new_length

; 136  :         return ::operator new(_Bytes);

  00011	51		 push	 ecx
  00012	e8 00 00 00 00	 call	 ??2@YAPAXI@Z		; operator new

; 186  :         _Throw_bad_array_new_length(); // add overflow
; 187  :     }
; 188  : 
; 189  :     const uintptr_t _Ptr_container = reinterpret_cast<uintptr_t>(_Traits::_Allocate(_Block_size));

  00017	8b c8		 mov	 ecx, eax

; 136  :         return ::operator new(_Bytes);

  00019	83 c4 04	 add	 esp, 4

; 190  :     _STL_VERIFY(_Ptr_container != 0, "invalid argument"); // validate even in release since we're doing p[-1]

  0001c	85 c9		 test	 ecx, ecx
  0001e	74 0b		 je	 SHORT $LN9@Allocate_m

; 191  :     void* const _Ptr = reinterpret_cast<void*>((_Ptr_container + _Non_user_size) & ~(_Big_allocation_alignment - 1));

  00020	8d 41 23	 lea	 eax, DWORD PTR [ecx+35]
  00023	83 e0 e0	 and	 eax, -32		; ffffffe0H

; 192  :     static_cast<uintptr_t*>(_Ptr)[-1] = _Ptr_container;

  00026	89 48 fc	 mov	 DWORD PTR [eax-4], ecx

; 193  : 
; 194  : #ifdef _DEBUG
; 195  :     static_cast<uintptr_t*>(_Ptr)[-2] = _Big_allocation_sentinel;
; 196  : #endif // defined(_DEBUG)
; 197  :     return _Ptr;
; 198  : }

  00029	5d		 pop	 ebp
  0002a	c3		 ret	 0
$LN9@Allocate_m:

; 190  :     _STL_VERIFY(_Ptr_container != 0, "invalid argument"); // validate even in release since we're doing p[-1]

  0002b	6a 00		 push	 0
  0002d	6a 00		 push	 0
  0002f	6a 00		 push	 0
  00031	6a 00		 push	 0
  00033	6a 00		 push	 0
  00035	e8 00 00 00 00	 call	 __invoke_watson
$LN7@Allocate_m:
  0003a	cc		 int	 3
??$_Allocate_manually_vector_aligned@U_Default_allocate_traits@std@@@std@@YAPAXI@Z ENDP ; std::_Allocate_manually_vector_aligned<std::_Default_allocate_traits>
_TEXT	ENDS
; Function compile flags: /Ogtp
; File C:\Program Files\Microsoft Visual Studio\2022\Professional\VC\Tools\MSVC\14.44.35207\include\vector
; File C:\Program Files\Microsoft Visual Studio\2022\Professional\VC\Tools\MSVC\14.44.35207\include\xmemory
; File C:\Program Files\Microsoft Visual Studio\2022\Professional\VC\Tools\MSVC\14.44.35207\include\vector
; File C:\Program Files\Microsoft Visual Studio\2022\Professional\VC\Tools\MSVC\14.44.35207\include\xmemory
; File C:\Program Files\Microsoft Visual Studio\2022\Professional\VC\Tools\MSVC\14.44.35207\include\vector
; File C:\Program Files\Microsoft Visual Studio\2022\Professional\VC\Tools\MSVC\14.44.35207\include\xmemory
; File C:\Program Files\Microsoft Visual Studio\2022\Professional\VC\Tools\MSVC\14.44.35207\include\vector
;	COMDAT ??1?$vector@KV?$allocator@K@std@@@std@@QAE@XZ
_TEXT	SEGMENT
??1?$vector@KV?$allocator@K@std@@@std@@QAE@XZ PROC	; std::vector<unsigned long,std::allocator<unsigned long> >::~vector<unsigned long,std::allocator<unsigned long> >, COMDAT
; _this$ = ecx

; 829  :     _CONSTEXPR20 ~vector() noexcept {

  00000	56		 push	 esi
  00001	8b f1		 mov	 esi, ecx

; 2090 :         if (_Myfirst) { // destroy and deallocate old array

  00003	8b 06		 mov	 eax, DWORD PTR [esi]
  00005	85 c0		 test	 eax, eax
  00007	74 40		 je	 SHORT $LN5@vector

; 2091 :             _STD _Destroy_range(_Myfirst, _Mylast, _Al);
; 2092 :             _ASAN_VECTOR_REMOVE;
; 2093 :             _Al.deallocate(_Myfirst, static_cast<size_type>(_Myend - _Myfirst));

  00009	8b 4e 08	 mov	 ecx, DWORD PTR [esi+8]
  0000c	2b c8		 sub	 ecx, eax
; File C:\Program Files\Microsoft Visual Studio\2022\Professional\VC\Tools\MSVC\14.44.35207\include\xmemory

; 985  :         _STD _Deallocate<_New_alignof<_Ty>>(_Ptr, sizeof(_Ty) * _Count);

  0000e	83 e1 fc	 and	 ecx, -4			; fffffffcH

; 284  :         if (_Bytes >= _Big_allocation_threshold) {

  00011	81 f9 00 10 00
	00		 cmp	 ecx, 4096		; 00001000H
  00017	72 12		 jb	 SHORT $LN18@vector

; 205  :     const uintptr_t _Ptr_container   = _Ptr_user[-1];

  00019	8b 50 fc	 mov	 edx, DWORD PTR [eax-4]
  0001c	83 c1 23	 add	 ecx, 35			; 00000023H

; 206  : 
; 207  :     // If the following asserts, it likely means that we are performing
; 208  :     // an aligned delete on memory coming from an unaligned allocation.
; 209  :     _STL_ASSERT(_Ptr_user[-2] == _Big_allocation_sentinel, "invalid argument");
; 210  : 
; 211  :     // Extra paranoia on aligned allocation/deallocation; ensure _Ptr_container is
; 212  :     // in range [_Min_back_shift, _Non_user_size]
; 213  : #ifdef _DEBUG
; 214  :     constexpr uintptr_t _Min_back_shift = 2 * sizeof(void*);
; 215  : #else // ^^^ defined(_DEBUG) / !defined(_DEBUG) vvv
; 216  :     constexpr uintptr_t _Min_back_shift = sizeof(void*);
; 217  : #endif // ^^^ !defined(_DEBUG) ^^^
; 218  :     const uintptr_t _Back_shift = reinterpret_cast<uintptr_t>(_Ptr) - _Ptr_container;

  0001f	2b c2		 sub	 eax, edx

; 219  :     _STL_VERIFY(_Back_shift >= _Min_back_shift && _Back_shift <= _Non_user_size, "invalid argument");

  00021	83 c0 fc	 add	 eax, -4			; fffffffcH
  00024	83 f8 1f	 cmp	 eax, 31			; 0000001fH
  00027	77 22		 ja	 SHORT $LN17@vector

; 220  :     _Ptr = reinterpret_cast<void*>(_Ptr_container);

  00029	8b c2		 mov	 eax, edx
$LN18@vector:

; 289  :         ::operator delete(_Ptr, _Bytes);

  0002b	51		 push	 ecx
  0002c	50		 push	 eax
  0002d	e8 00 00 00 00	 call	 ??3@YAXPAXI@Z		; operator delete
; File C:\Program Files\Microsoft Visual Studio\2022\Professional\VC\Tools\MSVC\14.44.35207\include\vector

; 2095 :             _Myfirst = nullptr;

  00032	c7 06 00 00 00
	00		 mov	 DWORD PTR [esi], 0
; File C:\Program Files\Microsoft Visual Studio\2022\Professional\VC\Tools\MSVC\14.44.35207\include\xmemory

; 289  :         ::operator delete(_Ptr, _Bytes);

  00038	83 c4 08	 add	 esp, 8
; File C:\Program Files\Microsoft Visual Studio\2022\Professional\VC\Tools\MSVC\14.44.35207\include\vector

; 2096 :             _Mylast  = nullptr;

  0003b	c7 46 04 00 00
	00 00		 mov	 DWORD PTR [esi+4], 0

; 2097 :             _Myend   = nullptr;

  00042	c7 46 08 00 00
	00 00		 mov	 DWORD PTR [esi+8], 0
$LN5@vector:
  00049	5e		 pop	 esi

; 835  :     }

  0004a	c3		 ret	 0
$LN17@vector:
; File C:\Program Files\Microsoft Visual Studio\2022\Professional\VC\Tools\MSVC\14.44.35207\include\xmemory

; 219  :     _STL_VERIFY(_Back_shift >= _Min_back_shift && _Back_shift <= _Non_user_size, "invalid argument");

  0004b	6a 00		 push	 0
  0004d	6a 00		 push	 0
  0004f	6a 00		 push	 0
  00051	6a 00		 push	 0
  00053	6a 00		 push	 0
  00055	e8 00 00 00 00	 call	 __invoke_watson
$LN26@vector:
  0005a	cc		 int	 3
??1?$vector@KV?$allocator@K@std@@@std@@QAE@XZ ENDP	; std::vector<unsigned long,std::allocator<unsigned long> >::~vector<unsigned long,std::allocator<unsigned long> >
_TEXT	ENDS
; Function compile flags: /Ogtp
; File C:\Program Files\Microsoft Visual Studio\2022\Professional\VC\Tools\MSVC\14.44.35207\include\xtree
;	COMDAT ?_Throw_tree_length_error@std@@YAXXZ
_TEXT	SEGMENT
?_Throw_tree_length_error@std@@YAXXZ PROC		; std::_Throw_tree_length_error, COMDAT

; 417  :     _Xlength_error("map/set too long");

  00000	68 00 00 00 00	 push	 OFFSET ??_C@_0BB@GCADKGJO@map?1set?5too?5long@
  00005	e8 00 00 00 00	 call	 ?_Xlength_error@std@@YAXPBD@Z ; std::_Xlength_error
$LN3@Throw_tree:
  0000a	cc		 int	 3
?_Throw_tree_length_error@std@@YAXXZ ENDP		; std::_Throw_tree_length_error
_TEXT	ENDS
; Function compile flags: /Ogtp
; File C:\Program Files\Microsoft Visual Studio\2022\Professional\VC\Tools\MSVC\14.44.35207\include\xmemory
;	COMDAT ?_Throw_bad_array_new_length@std@@YAXXZ
_TEXT	SEGMENT
$T1 = -12						; size = 12
?_Throw_bad_array_new_length@std@@YAXXZ PROC		; std::_Throw_bad_array_new_length, COMDAT

; 107  : [[noreturn]] inline void _Throw_bad_array_new_length() {

  00000	55		 push	 ebp
  00001	8b ec		 mov	 ebp, esp
  00003	83 ec 0c	 sub	 esp, 12			; 0000000cH

; 108  :     _THROW(bad_array_new_length{});

  00006	8d 4d f4	 lea	 ecx, DWORD PTR $T1[ebp]
  00009	e8 00 00 00 00	 call	 ??0bad_array_new_length@std@@QAE@XZ ; std::bad_array_new_length::bad_array_new_length
  0000e	68 00 00 00 00	 push	 OFFSET __TI3?AVbad_array_new_length@std@@
  00013	8d 45 f4	 lea	 eax, DWORD PTR $T1[ebp]
  00016	50		 push	 eax
  00017	e8 00 00 00 00	 call	 __CxxThrowException@8
$LN3@Throw_bad_:
  0001c	cc		 int	 3
?_Throw_bad_array_new_length@std@@YAXXZ ENDP		; std::_Throw_bad_array_new_length
_TEXT	ENDS
; Function compile flags: /Ogtp
; File C:\Program Files\Microsoft Visual Studio\2022\Professional\VC\Tools\MSVC\14.44.35207\include\vcruntime_exception.h
;	COMDAT ??_Gbad_array_new_length@std@@UAEPAXI@Z
_TEXT	SEGMENT
___flags$ = 8						; size = 4
??_Gbad_array_new_length@std@@UAEPAXI@Z PROC		; std::bad_array_new_length::`scalar deleting destructor', COMDAT
; _this$ = ecx
  00000	55		 push	 ebp
  00001	8b ec		 mov	 ebp, esp

; 90   :     {

  00003	56		 push	 esi
  00004	8b f1		 mov	 esi, ecx

; 91   :         __std_exception_destroy(&_Data);

  00006	8d 46 04	 lea	 eax, DWORD PTR [esi+4]
  00009	c7 06 00 00 00
	00		 mov	 DWORD PTR [esi], OFFSET ??_7exception@std@@6B@
  0000f	50		 push	 eax
  00010	e8 00 00 00 00	 call	 ___std_exception_destroy
  00015	83 c4 04	 add	 esp, 4
  00018	f6 45 08 01	 test	 BYTE PTR ___flags$[ebp], 1
  0001c	74 0b		 je	 SHORT $LN18@scalar
  0001e	6a 0c		 push	 12			; 0000000cH
  00020	56		 push	 esi
  00021	e8 00 00 00 00	 call	 ??3@YAXPAXI@Z		; operator delete
  00026	83 c4 08	 add	 esp, 8
$LN18@scalar:
  00029	8b c6		 mov	 eax, esi
  0002b	5e		 pop	 esi
  0002c	5d		 pop	 ebp
  0002d	c2 04 00	 ret	 4
??_Gbad_array_new_length@std@@UAEPAXI@Z ENDP		; std::bad_array_new_length::`scalar deleting destructor'
_TEXT	ENDS
; Function compile flags: /Ogtp
; File C:\Program Files\Microsoft Visual Studio\2022\Professional\VC\Tools\MSVC\14.44.35207\include\vcruntime_exception.h
;	COMDAT ??0bad_array_new_length@std@@QAE@ABV01@@Z
_TEXT	SEGMENT
___that$ = 8						; size = 4
??0bad_array_new_length@std@@QAE@ABV01@@Z PROC		; std::bad_array_new_length::bad_array_new_length, COMDAT
; _this$ = ecx
  00000	55		 push	 ebp
  00001	8b ec		 mov	 ebp, esp

; 73   :     {

  00003	56		 push	 esi
  00004	8b f1		 mov	 esi, ecx
  00006	0f 57 c0	 xorps	 xmm0, xmm0

; 72   :         : _Data()

  00009	8d 46 04	 lea	 eax, DWORD PTR [esi+4]

; 74   :         __std_exception_copy(&_Other._Data, &_Data);

  0000c	50		 push	 eax
  0000d	c7 06 00 00 00
	00		 mov	 DWORD PTR [esi], OFFSET ??_7exception@std@@6B@
  00013	66 0f d6 00	 movq	 QWORD PTR [eax], xmm0
  00017	8b 45 08	 mov	 eax, DWORD PTR ___that$[ebp]
  0001a	83 c0 04	 add	 eax, 4
  0001d	50		 push	 eax
  0001e	e8 00 00 00 00	 call	 ___std_exception_copy
  00023	83 c4 08	 add	 esp, 8
  00026	c7 06 00 00 00
	00		 mov	 DWORD PTR [esi], OFFSET ??_7bad_array_new_length@std@@6B@
  0002c	8b c6		 mov	 eax, esi
  0002e	5e		 pop	 esi
  0002f	5d		 pop	 ebp
  00030	c2 04 00	 ret	 4
??0bad_array_new_length@std@@QAE@ABV01@@Z ENDP		; std::bad_array_new_length::bad_array_new_length
_TEXT	ENDS
; Function compile flags: /Ogtp
; File C:\Program Files\Microsoft Visual Studio\2022\Professional\VC\Tools\MSVC\14.44.35207\include\vcruntime_exception.h
;	COMDAT ??1bad_array_new_length@std@@UAE@XZ
_TEXT	SEGMENT
??1bad_array_new_length@std@@UAE@XZ PROC		; std::bad_array_new_length::~bad_array_new_length, COMDAT
; _this$ = ecx

; 91   :         __std_exception_destroy(&_Data);

  00000	8d 41 04	 lea	 eax, DWORD PTR [ecx+4]
  00003	c7 01 00 00 00
	00		 mov	 DWORD PTR [ecx], OFFSET ??_7exception@std@@6B@
  00009	50		 push	 eax
  0000a	e8 00 00 00 00	 call	 ___std_exception_destroy
  0000f	59		 pop	 ecx
  00010	c3		 ret	 0
??1bad_array_new_length@std@@UAE@XZ ENDP		; std::bad_array_new_length::~bad_array_new_length
_TEXT	ENDS
; Function compile flags: /Ogtp
; File C:\Program Files\Microsoft Visual Studio\2022\Professional\VC\Tools\MSVC\14.44.35207\include\vcruntime_exception.h
;	COMDAT ??0bad_array_new_length@std@@QAE@XZ
_TEXT	SEGMENT
??0bad_array_new_length@std@@QAE@XZ PROC		; std::bad_array_new_length::bad_array_new_length, COMDAT
; _this$ = ecx

; 144  :     {

  00000	0f 57 c0	 xorps	 xmm0, xmm0

; 145  :     }

  00003	8b c1		 mov	 eax, ecx

; 66   :         : _Data()

  00005	66 0f d6 41 04	 movq	 QWORD PTR [ecx+4], xmm0

; 67   :     {
; 68   :         _Data._What = _Message;

  0000a	c7 41 04 00 00
	00 00		 mov	 DWORD PTR [ecx+4], OFFSET ??_C@_0BF@KINCDENJ@bad?5array?5new?5length@

; 144  :     {

  00011	c7 01 00 00 00
	00		 mov	 DWORD PTR [ecx], OFFSET ??_7bad_array_new_length@std@@6B@

; 145  :     }

  00017	c3		 ret	 0
??0bad_array_new_length@std@@QAE@XZ ENDP		; std::bad_array_new_length::bad_array_new_length
_TEXT	ENDS
; Function compile flags: /Ogtp
; File C:\Program Files\Microsoft Visual Studio\2022\Professional\VC\Tools\MSVC\14.44.35207\include\vcruntime_exception.h
;	COMDAT ??_Gbad_alloc@std@@UAEPAXI@Z
_TEXT	SEGMENT
___flags$ = 8						; size = 4
??_Gbad_alloc@std@@UAEPAXI@Z PROC			; std::bad_alloc::`scalar deleting destructor', COMDAT
; _this$ = ecx
  00000	55		 push	 ebp
  00001	8b ec		 mov	 ebp, esp

; 90   :     {

  00003	56		 push	 esi
  00004	8b f1		 mov	 esi, ecx

; 91   :         __std_exception_destroy(&_Data);

  00006	8d 46 04	 lea	 eax, DWORD PTR [esi+4]
  00009	c7 06 00 00 00
	00		 mov	 DWORD PTR [esi], OFFSET ??_7exception@std@@6B@
  0000f	50		 push	 eax
  00010	e8 00 00 00 00	 call	 ___std_exception_destroy
  00015	83 c4 04	 add	 esp, 4
  00018	f6 45 08 01	 test	 BYTE PTR ___flags$[ebp], 1
  0001c	74 0b		 je	 SHORT $LN13@scalar
  0001e	6a 0c		 push	 12			; 0000000cH
  00020	56		 push	 esi
  00021	e8 00 00 00 00	 call	 ??3@YAXPAXI@Z		; operator delete
  00026	83 c4 08	 add	 esp, 8
$LN13@scalar:
  00029	8b c6		 mov	 eax, esi
  0002b	5e		 pop	 esi
  0002c	5d		 pop	 ebp
  0002d	c2 04 00	 ret	 4
??_Gbad_alloc@std@@UAEPAXI@Z ENDP			; std::bad_alloc::`scalar deleting destructor'
_TEXT	ENDS
; Function compile flags: /Ogtp
; File C:\Program Files\Microsoft Visual Studio\2022\Professional\VC\Tools\MSVC\14.44.35207\include\vcruntime_exception.h
;	COMDAT ??0bad_alloc@std@@QAE@ABV01@@Z
_TEXT	SEGMENT
___that$ = 8						; size = 4
??0bad_alloc@std@@QAE@ABV01@@Z PROC			; std::bad_alloc::bad_alloc, COMDAT
; _this$ = ecx
  00000	55		 push	 ebp
  00001	8b ec		 mov	 ebp, esp

; 73   :     {

  00003	56		 push	 esi
  00004	8b f1		 mov	 esi, ecx
  00006	0f 57 c0	 xorps	 xmm0, xmm0

; 72   :         : _Data()

  00009	8d 46 04	 lea	 eax, DWORD PTR [esi+4]

; 74   :         __std_exception_copy(&_Other._Data, &_Data);

  0000c	50		 push	 eax
  0000d	c7 06 00 00 00
	00		 mov	 DWORD PTR [esi], OFFSET ??_7exception@std@@6B@
  00013	66 0f d6 00	 movq	 QWORD PTR [eax], xmm0
  00017	8b 45 08	 mov	 eax, DWORD PTR ___that$[ebp]
  0001a	83 c0 04	 add	 eax, 4
  0001d	50		 push	 eax
  0001e	e8 00 00 00 00	 call	 ___std_exception_copy
  00023	83 c4 08	 add	 esp, 8
  00026	c7 06 00 00 00
	00		 mov	 DWORD PTR [esi], OFFSET ??_7bad_alloc@std@@6B@
  0002c	8b c6		 mov	 eax, esi
  0002e	5e		 pop	 esi
  0002f	5d		 pop	 ebp
  00030	c2 04 00	 ret	 4
??0bad_alloc@std@@QAE@ABV01@@Z ENDP			; std::bad_alloc::bad_alloc
_TEXT	ENDS
; Function compile flags: /Ogtp
; File C:\Program Files\Microsoft Visual Studio\2022\Professional\VC\Tools\MSVC\14.44.35207\include\vcruntime_exception.h
;	COMDAT ??_Gexception@std@@UAEPAXI@Z
_TEXT	SEGMENT
___flags$ = 8						; size = 4
??_Gexception@std@@UAEPAXI@Z PROC			; std::exception::`scalar deleting destructor', COMDAT
; _this$ = ecx
  00000	55		 push	 ebp
  00001	8b ec		 mov	 ebp, esp

; 90   :     {

  00003	56		 push	 esi
  00004	8b f1		 mov	 esi, ecx

; 91   :         __std_exception_destroy(&_Data);

  00006	8d 46 04	 lea	 eax, DWORD PTR [esi+4]
  00009	c7 06 00 00 00
	00		 mov	 DWORD PTR [esi], OFFSET ??_7exception@std@@6B@
  0000f	50		 push	 eax
  00010	e8 00 00 00 00	 call	 ___std_exception_destroy
  00015	83 c4 04	 add	 esp, 4
  00018	f6 45 08 01	 test	 BYTE PTR ___flags$[ebp], 1
  0001c	74 0b		 je	 SHORT $LN8@scalar
  0001e	6a 0c		 push	 12			; 0000000cH
  00020	56		 push	 esi
  00021	e8 00 00 00 00	 call	 ??3@YAXPAXI@Z		; operator delete
  00026	83 c4 08	 add	 esp, 8
$LN8@scalar:
  00029	8b c6		 mov	 eax, esi
  0002b	5e		 pop	 esi
  0002c	5d		 pop	 ebp
  0002d	c2 04 00	 ret	 4
??_Gexception@std@@UAEPAXI@Z ENDP			; std::exception::`scalar deleting destructor'
_TEXT	ENDS
; Function compile flags: /Ogtp
; File C:\Program Files\Microsoft Visual Studio\2022\Professional\VC\Tools\MSVC\14.44.35207\include\vcruntime_exception.h
;	COMDAT ?what@exception@std@@UBEPBDXZ
_TEXT	SEGMENT
?what@exception@std@@UBEPBDXZ PROC			; std::exception::what, COMDAT
; _this$ = ecx

; 96   :         return _Data._What ? _Data._What : "Unknown exception";

  00000	8b 49 04	 mov	 ecx, DWORD PTR [ecx+4]
  00003	b8 00 00 00 00	 mov	 eax, OFFSET ??_C@_0BC@EOODALEL@Unknown?5exception@
  00008	85 c9		 test	 ecx, ecx
  0000a	0f 45 c1	 cmovne	 eax, ecx

; 97   :     }

  0000d	c3		 ret	 0
?what@exception@std@@UBEPBDXZ ENDP			; std::exception::what
_TEXT	ENDS
; Function compile flags: /Ogtp
; File C:\Program Files\Microsoft Visual Studio\2022\Professional\VC\Tools\MSVC\14.44.35207\include\vcruntime_exception.h
;	COMDAT ??1exception@std@@UAE@XZ
_TEXT	SEGMENT
??1exception@std@@UAE@XZ PROC				; std::exception::~exception, COMDAT
; _this$ = ecx

; 91   :         __std_exception_destroy(&_Data);

  00000	8d 41 04	 lea	 eax, DWORD PTR [ecx+4]
  00003	c7 01 00 00 00
	00		 mov	 DWORD PTR [ecx], OFFSET ??_7exception@std@@6B@
  00009	50		 push	 eax
  0000a	e8 00 00 00 00	 call	 ___std_exception_destroy
  0000f	59		 pop	 ecx

; 92   :     }

  00010	c3		 ret	 0
??1exception@std@@UAE@XZ ENDP				; std::exception::~exception
_TEXT	ENDS
; Function compile flags: /Ogtp
; File C:\Program Files\Microsoft Visual Studio\2022\Professional\VC\Tools\MSVC\14.44.35207\include\vcruntime_exception.h
;	COMDAT ??0exception@std@@QAE@ABV01@@Z
_TEXT	SEGMENT
__Other$ = 8						; size = 4
??0exception@std@@QAE@ABV01@@Z PROC			; std::exception::exception, COMDAT
; _this$ = ecx

; 73   :     {

  00000	55		 push	 ebp
  00001	8b ec		 mov	 ebp, esp
  00003	56		 push	 esi
  00004	8b f1		 mov	 esi, ecx
  00006	0f 57 c0	 xorps	 xmm0, xmm0
  00009	8d 46 04	 lea	 eax, DWORD PTR [esi+4]

; 74   :         __std_exception_copy(&_Other._Data, &_Data);

  0000c	50		 push	 eax
  0000d	c7 06 00 00 00
	00		 mov	 DWORD PTR [esi], OFFSET ??_7exception@std@@6B@
  00013	66 0f d6 00	 movq	 QWORD PTR [eax], xmm0
  00017	8b 45 08	 mov	 eax, DWORD PTR __Other$[ebp]
  0001a	83 c0 04	 add	 eax, 4
  0001d	50		 push	 eax
  0001e	e8 00 00 00 00	 call	 ___std_exception_copy
  00023	83 c4 08	 add	 esp, 8

; 75   :     }

  00026	8b c6		 mov	 eax, esi
  00028	5e		 pop	 esi
  00029	5d		 pop	 ebp
  0002a	c2 04 00	 ret	 4
??0exception@std@@QAE@ABV01@@Z ENDP			; std::exception::exception
_TEXT	ENDS
; Function compile flags: /Ogtp
; File C:\IAGOS\server\v18\Source\Source\_Common\Tax.cpp
;	COMDAT ?__empty_global_delete@@YAXPAXI@Z
_TEXT	SEGMENT
___formal$ = 8						; size = 4
___formal$ = 12						; size = 4
?__empty_global_delete@@YAXPAXI@Z PROC			; __empty_global_delete, COMDAT

  00000	c2 00 00	 ret	 0
?__empty_global_delete@@YAXPAXI@Z ENDP			; __empty_global_delete
_TEXT	ENDS
; Function compile flags: /Ogtp
; File C:\IAGOS\server\v18\Source\Source\_Common\Tax.cpp
;	COMDAT ?__empty_global_delete@@YAXPAX@Z
_TEXT	SEGMENT
___formal$ = 8						; size = 4
?__empty_global_delete@@YAXPAX@Z PROC			; __empty_global_delete, COMDAT

  00000	c2 00 00	 ret	 0
?__empty_global_delete@@YAXPAX@Z ENDP			; __empty_global_delete
_TEXT	ENDS
END
