; Listing generated by Microsoft (R) Optimizing Compiler Version 19.44.35225.0 

	TITLE	C:\IAGOS\server\v18\Source\Output\WorldServer\Release\ThreadMng.obj
	.686P
	.XMM
	include listing.inc
	.model	flat

INCLUDELIB LIBCMT
INCLUDELIB OLDNAMES

PUBLIC	?r1@@3MA					; r1
PUBLIC	?r2@@3MA					; r2
PUBLIC	?r3@@3MA					; r3
PUBLIC	?r4@@3MA					; r4
PUBLIC	?r5@@3MA					; r5
PUBLIC	?r6@@3MA					; r6
PUBLIC	?r7@@3MA					; r7
PUBLIC	?r8@@3MA					; r8
PUBLIC	?r9@@3MA					; r9
PUBLIC	?r10@@3MA					; r10
PUBLIC	?r11@@3MA					; r11
PUBLIC	?r12@@3MA					; r12
PUBLIC	?g_bProfiling@@3HA				; g_bProfiling
_BSS	SEGMENT
?r1@@3MA DD	01H DUP (?)				; r1
?r2@@3MA DD	01H DUP (?)				; r2
?r3@@3MA DD	01H DUP (?)				; r3
?r4@@3MA DD	01H DUP (?)				; r4
?r5@@3MA DD	01H DUP (?)				; r5
?r6@@3MA DD	01H DUP (?)				; r6
?r7@@3MA DD	01H DUP (?)				; r7
?r8@@3MA DD	01H DUP (?)				; r8
?r9@@3MA DD	01H DUP (?)				; r9
?r10@@3MA DD	01H DUP (?)				; r10
?r11@@3MA DD	01H DUP (?)				; r11
?r12@@3MA DD	01H DUP (?)				; r12
?g_bProfiling@@3HA DD 01H DUP (?)			; g_bProfiling
_BSS	ENDS
CONST	SEGMENT
?piecewise_construct@std@@3Upiecewise_construct_t@1@B	ORG $+1 ; std::piecewise_construct
CONST	ENDS
PUBLIC	?__empty_global_delete@@YAXPAX@Z		; __empty_global_delete
PUBLIC	?__empty_global_delete@@YAXPAXI@Z		; __empty_global_delete
PUBLIC	___local_stdio_printf_options
PUBLIC	_sprintf
PUBLIC	??0CTimeout@@QAE@KK@Z				; CTimeout::CTimeout
PUBLIC	??1CTimeout@@UAE@XZ				; CTimeout::~CTimeout
PUBLIC	?Over@CTimeout@@QAEKK@Z				; CTimeout::Over
PUBLIC	?Reset@CTimeout@@QAEXKK@Z			; CTimeout::Reset
PUBLIC	?TimeoutReset@CTimeout@@QAEHK@Z			; CTimeout::TimeoutReset
PUBLIC	??_GCTimeout@@UAEPAXI@Z				; CTimeout::`scalar deleting destructor'
PUBLIC	??0CRunObject@@QAE@XZ				; CRunObject::CRunObject
PUBLIC	??1CRunObject@@UAE@XZ				; CRunObject::~CRunObject
PUBLIC	?Init@CRunObject@@QAEHXZ			; CRunObject::Init
PUBLIC	?Close@CRunObject@@QAEXXZ			; CRunObject::Close
PUBLIC	?_Run@CRunObject@@SAIPAX@Z			; CRunObject::_Run
PUBLIC	?GetInstance@CRunObject@@SAPAV1@XZ		; CRunObject::GetInstance
PUBLIC	?Run@CRunObject@@QAEXXZ				; CRunObject::Run
PUBLIC	?ToggleProfiling@CRunObject@@QAEXXZ		; CRunObject::ToggleProfiling
PUBLIC	??_GCRunObject@@UAEPAXI@Z			; CRunObject::`scalar deleting destructor'
PUBLIC	?LogPerformance@@YAXK@Z				; LogPerformance
PUBLIC	?_OptionsStorage@?1??__local_stdio_printf_options@@9@4_KA ; `__local_stdio_printf_options'::`2'::_OptionsStorage
PUBLIC	??_C@_00CNPNBAHC@@				; `string'
PUBLIC	??_7CTimeout@@6B@				; CTimeout::`vftable'
PUBLIC	??_7CRunObject@@6B@				; CRunObject::`vftable'
PUBLIC	??_C@_0BC@HBMHMALC@warning?5?9?5tick?3?$CFd@	; `string'
PUBLIC	??_C@_0FI@BCOANPMN@?$CFd?0?5?$CF2?41f?0?5?$CF2?41f?0?5?$CF2?41f?0?5?$CF2?41f?0@ ; `string'
PUBLIC	??_C@_06MOMOEFHB@CCU?3?$CFd@			; `string'
PUBLIC	??_C@_0BB@MMCGDEMK@frame?3?$CFd?5tick?3?$CFd@	; `string'
PUBLIC	??_C@_0BE@LKFKNEIN@Can?8t?5start?5server?4@	; `string'
PUBLIC	??_C@_0BO@HPOEDEBL@Can?8t?5connect?5to?5core?5server?4@ ; `string'
PUBLIC	??_C@_0CC@JPOGBINE@Can?8t?5connect?5to?5database?5serve@ ; `string'
PUBLIC	??_C@_0M@MFIHLIAI@spevent?4txt@			; `string'
PUBLIC	??_C@_0BH@EBCFPOHO@can?8t?5read?5spevent?4txt@	; `string'
PUBLIC	??_C@_0BF@LLIGDGAK@?4?4?2script?2school?4txt@	; `string'
PUBLIC	??_C@_0CG@IPNBNPAA@?$FLCRITICAL?$FN?5Missing?5File?5?9?$DO?5scho@ ; `string'
PUBLIC	??_C@_0BA@OEFFAKN@GuildCombat?4txt@		; `string'
PUBLIC	??_C@_0CK@KFIOPGDF@?$FLCRITICAL?$FN?5Missing?5File?5?9?$DOGuild@ ; `string'
PUBLIC	??_C@_0BM@BPIJONOA@MAPI_E_NOT_ENOUGH_RESOURCES@	; `string'
PUBLIC	??_C@_0BF@FHJPOALH@Respawn?3?$CFd?5Object?3?$CFd@ ; `string'
PUBLIC	??_R4CTimeout@@6B@				; CTimeout::`RTTI Complete Object Locator'
PUBLIC	??_R0?AVCTimeout@@@8				; CTimeout `RTTI Type Descriptor'
PUBLIC	??_R3CTimeout@@8				; CTimeout::`RTTI Class Hierarchy Descriptor'
PUBLIC	??_R2CTimeout@@8				; CTimeout::`RTTI Base Class Array'
PUBLIC	??_R1A@?0A@EA@CTimeout@@8			; CTimeout::`RTTI Base Class Descriptor at (0,-1,0,64)'
PUBLIC	??_R4CRunObject@@6B@				; CRunObject::`RTTI Complete Object Locator'
PUBLIC	??_R0?AVCRunObject@@@8				; CRunObject `RTTI Type Descriptor'
PUBLIC	??_R3CRunObject@@8				; CRunObject::`RTTI Class Hierarchy Descriptor'
PUBLIC	??_R2CRunObject@@8				; CRunObject::`RTTI Base Class Array'
PUBLIC	??_R1A@?0A@EA@CRunObject@@8			; CRunObject::`RTTI Base Class Descriptor at (0,-1,0,64)'
PUBLIC	__real@3f800000
PUBLIC	__real@42c80000
EXTRN	??3@YAXPAXI@Z:PROC				; operator delete
EXTRN	_atexit:PROC
EXTRN	__Init_thread_header:PROC
EXTRN	__Init_thread_footer:PROC
EXTRN	__imp__OutputDebugStringA@4:PROC
EXTRN	__imp__CloseHandle@4:PROC
EXTRN	__imp__SetEvent@4:PROC
EXTRN	__imp__WaitForSingleObject@8:PROC
EXTRN	__imp__CreateEventA@16:PROC
EXTRN	__imp__OpenEventA@12:PROC
EXTRN	___stdio_common_vsprintf:PROC
EXTRN	__time32:PROC
EXTRN	__beginthreadex:PROC
EXTRN	__imp__timeGetTime@0:PROC
EXTRN	?Compute@CGameTimer@@QAEXXZ:PROC		; CGameTimer::Compute
EXTRN	?Error@@YAPBDPBDZZ:PROC				; Error
EXTRN	?Process@CGuildQuestProcessor@@QAEXXZ:PROC	; CGuildQuestProcessor::Process
EXTRN	?GetInstance@CGuildQuestProcessor@@SAPAV1@XZ:PROC ; CGuildQuestProcessor::GetInstance
EXTRN	?Process@CPartyQuestProcessor@@QAEXXZ:PROC	; CPartyQuestProcessor::Process
EXTRN	?GetInstance@CPartyQuestProcessor@@SAPAV1@XZ:PROC ; CPartyQuestProcessor::GetInstance
EXTRN	?EventSpawnProcess@CEventLua@@QAEXXZ:PROC	; CEventLua::EventSpawnProcess
EXTRN	?KeepConnectEventProcess@CEventLua@@QAEXXZ:PROC	; CEventLua::KeepConnectEventProcess
EXTRN	?GetState@CFlyffEvent@@QAEEH@Z:PROC		; CFlyffEvent::GetState
EXTRN	?Process@CGuildCombat1to1Mng@@QAEXXZ:PROC	; CGuildCombat1to1Mng::Process
EXTRN	??_ECTimeout@@UAEPAXI@Z:PROC			; CTimeout::`vector deleting destructor'
EXTRN	??_ECRunObject@@UAEPAXI@Z:PROC			; CRunObject::`vector deleting destructor'
EXTRN	?Process@CWorldMng@@QAEXXZ:PROC			; CWorldMng::Process
EXTRN	?Respawn@CWorldMng@@QAEKXZ:PROC			; CWorldMng::Respawn
EXTRN	?GetObjCount@CWorldMng@@QAEKXZ:PROC		; CWorldMng::GetObjCount
EXTRN	?CreateDPObject@CDPMng@@QAEHH@Z:PROC		; CDPMng::CreateDPObject
EXTRN	?InitConnection@CDPMng@@QAEHPAXG@Z:PROC		; CDPMng::InitConnection
EXTRN	?ReceiveMessage@CDPMng@@QAEHXZ:PROC		; CDPMng::ReceiveMessage
EXTRN	?CreateSession@CDPMng@@QAEHPBDW4BUFFER_TYPE@@@Z:PROC ; CDPMng::CreateSession
EXTRN	?JoinSession@CDPMng@@QAEHPBDW4BUFFER_TYPE@@@Z:PROC ; CDPMng::JoinSession
EXTRN	?PartyMapInfo@CPartyMng@@QAEXXZ:PROC		; CPartyMng::PartyMapInfo
EXTRN	?Process@CGuildMng@@QAEXXZ:PROC			; CGuildMng::Process
EXTRN	?LoadPos@CEveSchool@@QAEHPBD@Z:PROC		; CEveSchool::LoadPos
EXTRN	?GetInstance@CEveSchool@@SAPAV1@XZ:PROC		; CEveSchool::GetInstance
EXTRN	?LoadScript@CGuildCombat@@QAEHPBD@Z:PROC	; CGuildCombat::LoadScript
EXTRN	?Process@CGuildCombat@@QAEXXZ:PROC		; CGuildCombat::Process
EXTRN	?GetInstance@CSecretRoomMng@@SAPAV1@XZ:PROC	; CSecretRoomMng::GetInstance
EXTRN	?Process@CSecretRoomMng@@QAEXXZ:PROC		; CSecretRoomMng::Process
EXTRN	?GetInstance@CRainbowRaceMng@@SAPAV1@XZ:PROC	; CRainbowRaceMng::GetInstance
EXTRN	?Process@CRainbowRaceMng@@QAEXXZ:PROC		; CRainbowRaceMng::Process
EXTRN	?GetInstance@CPCBang@@SAPAV1@XZ:PROC		; CPCBang::GetInstance
EXTRN	?ProcessPCBang@CPCBang@@QAEXXZ:PROC		; CPCBang::ProcessPCBang
EXTRN	?SetLogInfo@@YAXW4LOGTYPE@@PBDZZ:PROC		; SetLogInfo
EXTRN	?CalluspXXXMultiServer@CDPDatabaseClient@@QAEXKPAVCUser@@@Z:PROC ; CDPDatabaseClient::CalluspXXXMultiServer
EXTRN	?SendQueryGuildQuest@CDPDatabaseClient@@QAEXXZ:PROC ; CDPDatabaseClient::SendQueryGuildQuest
EXTRN	?SendQueryGuildBank@CDPDatabaseClient@@QAEXXZ:PROC ; CDPDatabaseClient::SendQueryGuildBank
EXTRN	?SendRainbowRaceReqLoad@CDPDatabaseClient@@QAEXXZ:PROC ; CDPDatabaseClient::SendRainbowRaceReqLoad
EXTRN	?GetInstance@CColosseumMng@@SAPAV1@XZ:PROC	; CColosseumMng::GetInstance
EXTRN	?Process@CColosseumMng@@QAEXXZ:PROC		; CColosseumMng::Process
EXTRN	?GetInstance@CCreateMonster@@SAPAV1@XZ:PROC	; CCreateMonster::GetInstance
EXTRN	?ProcessRemoveMonster@CCreateMonster@@QAEXXZ:PROC ; CCreateMonster::ProcessRemoveMonster
EXTRN	?Instance@CRangdaController@@SAPAV1@XZ:PROC	; CRangdaController::Instance
EXTRN	?OnTimer@CRangdaController@@QAEXXZ:PROC		; CRangdaController::OnTimer
EXTRN	?GetInstance@CInstanceDungeonParty@@SAPAV1@XZ:PROC ; CInstanceDungeonParty::GetInstance
EXTRN	?Process@CInstanceDungeonParty@@QAEXXZ:PROC	; CInstanceDungeonParty::Process
EXTRN	?GetInstance@CQuiz@@SAPAV1@XZ:PROC		; CQuiz::GetInstance
EXTRN	?Process@CQuiz@@QAEXXZ:PROC			; CQuiz::Process
EXTRN	?Run@CDPCoreClient@@QAEHPADGK@Z:PROC		; CDPCoreClient::Run
EXTRN	?LoadScript@CXMasEvent@@QAEHPBD@Z:PROC		; CXMasEvent::LoadScript
EXTRN	?GetInstance@CXMasEvent@@SAPAV1@XZ:PROC		; CXMasEvent::GetInstance
EXTRN	?CallTheRoll@CEventGeneric@@QAEXXZ:PROC		; CEventGeneric::CallTheRoll
EXTRN	?Spawn@CEventGeneric@@QAEXXZ:PROC		; CEventGeneric::Spawn
EXTRN	?GetInstance@CEventGeneric@@SAPAV1@XZ:PROC	; CEventGeneric::GetInstance
EXTRN	?Process@CGuildWarMng@@QAEXXZ:PROC		; CGuildWarMng::Process
EXTRN	?LoadAIScript@@YAHXZ:PROC			; LoadAIScript
EXTRN	@__security_check_cookie@4:PROC
EXTRN	___CxxFrameHandler3:PROC
EXTRN	__Init_thread_epoch:DWORD
EXTRN	??_7type_info@@6B@:QWORD			; type_info::`vftable'
EXTRN	?g_tCurrent@@3JA:DWORD				; g_tCurrent
EXTRN	?prj@@3VCProject@@A:BYTE			; prj
EXTRN	?g_tmCurrent@@3KA:DWORD				; g_tmCurrent
EXTRN	?g_uIdofMulti@@3KA:DWORD			; g_uIdofMulti
EXTRN	?g_GameTimer@@3VCGameTimer@@A:BYTE		; g_GameTimer
EXTRN	?g_eLocal@@3VCFlyffEvent@@A:BYTE		; g_eLocal
EXTRN	?g_uKey@@3KA:DWORD				; g_uKey
EXTRN	?g_GuildCombat1to1Mng@@3VCGuildCombat1to1Mng@@A:BYTE ; g_GuildCombat1to1Mng
EXTRN	?g_GuildCombatMng@@3VCGuildCombat@@A:BYTE	; g_GuildCombatMng
EXTRN	?g_DPCoreClient@@3VCDPCoreClient@@A:BYTE	; g_DPCoreClient
EXTRN	?g_dpDBClient@@3VCDPDatabaseClient@@A:BYTE	; g_dpDBClient
EXTRN	?g_szDBAddr@@3PADA:BYTE				; g_szDBAddr
EXTRN	?g_szCoreAddr@@3PADA:BYTE			; g_szCoreAddr
EXTRN	?g_GuildMng@@3VCGuildMng@@A:BYTE		; g_GuildMng
EXTRN	?g_GuildWarMng@@3VCGuildWarMng@@A:BYTE		; g_GuildWarMng
EXTRN	?g_WorldMng@@3VCWorldMng@@A:BYTE		; g_WorldMng
EXTRN	?g_DPSrvr@@3VCDPSrvr@@A:BYTE			; g_DPSrvr
EXTRN	?g_UserMng@@3VCUserMng@@A:BYTE			; g_UserMng
EXTRN	?g_sHeartbeat@@3PADA:BYTE			; g_sHeartbeat
EXTRN	?g_PartyMng@@3VCPartyMng@@A:BYTE		; g_PartyMng
EXTRN	___security_cookie:DWORD
EXTRN	__fltused:DWORD
EXTRN	__tls_array:DWORD
EXTRN	__tls_index:DWORD
;	COMDAT ?_OptionsStorage@?1??__local_stdio_printf_options@@9@4_KA
_BSS	SEGMENT
?_OptionsStorage@?1??__local_stdio_printf_options@@9@4_KA DQ 01H DUP (?) ; `__local_stdio_printf_options'::`2'::_OptionsStorage
_BSS	ENDS
;	COMDAT ?nFrame@?1??LogPerformance@@YAXK@Z@4HA
_BSS	SEGMENT
?nFrame@?1??LogPerformance@@YAXK@Z@4HA DD 01H DUP (?)	; `LogPerformance'::`2'::nFrame
_BSS	ENDS
;	COMDAT ?dwPrev@?1??LogPerformance@@YAXK@Z@4KA
_BSS	SEGMENT
?dwPrev@?1??LogPerformance@@YAXK@Z@4KA DD 01H DUP (?)	; `LogPerformance'::`2'::dwPrev
_BSS	ENDS
;	COMDAT ?dwElapsed@?1??LogPerformance@@YAXK@Z@4KA
_BSS	SEGMENT
?dwElapsed@?1??LogPerformance@@YAXK@Z@4KA DD 01H DUP (?) ; `LogPerformance'::`2'::dwElapsed
_BSS	ENDS
;	COMDAT ?sRunObject@?1??GetInstance@CRunObject@@SAPAV2@XZ@4V2@A
_BSS	SEGMENT
?sRunObject@?1??GetInstance@CRunObject@@SAPAV2@XZ@4V2@A DB 0cH DUP (?) ; `CRunObject::GetInstance'::`2'::sRunObject
_BSS	ENDS
;	COMDAT ?$TSS0@?1??GetInstance@CRunObject@@SAPAV2@XZ@4HA
_BSS	SEGMENT
?$TSS0@?1??GetInstance@CRunObject@@SAPAV2@XZ@4HA DD 01H DUP (?) ; `CRunObject::GetInstance'::`2'::$TSS0
_BSS	ENDS
;	COMDAT __real@42c80000
CONST	SEGMENT
__real@42c80000 DD 042c80000r			; 100
CONST	ENDS
;	COMDAT __real@3f800000
CONST	SEGMENT
__real@3f800000 DD 03f800000r			; 1
CONST	ENDS
;	COMDAT ??_R1A@?0A@EA@CRunObject@@8
rdata$r	SEGMENT
??_R1A@?0A@EA@CRunObject@@8 DD FLAT:??_R0?AVCRunObject@@@8 ; CRunObject::`RTTI Base Class Descriptor at (0,-1,0,64)'
	DD	00H
	DD	00H
	DD	0ffffffffH
	DD	00H
	DD	040H
	DD	FLAT:??_R3CRunObject@@8
rdata$r	ENDS
;	COMDAT ??_R2CRunObject@@8
rdata$r	SEGMENT
??_R2CRunObject@@8 DD FLAT:??_R1A@?0A@EA@CRunObject@@8	; CRunObject::`RTTI Base Class Array'
rdata$r	ENDS
;	COMDAT ??_R3CRunObject@@8
rdata$r	SEGMENT
??_R3CRunObject@@8 DD 00H				; CRunObject::`RTTI Class Hierarchy Descriptor'
	DD	00H
	DD	01H
	DD	FLAT:??_R2CRunObject@@8
rdata$r	ENDS
;	COMDAT ??_R0?AVCRunObject@@@8
data$rs	SEGMENT
??_R0?AVCRunObject@@@8 DD FLAT:??_7type_info@@6B@	; CRunObject `RTTI Type Descriptor'
	DD	00H
	DB	'.?AVCRunObject@@', 00H
data$rs	ENDS
;	COMDAT ??_R4CRunObject@@6B@
rdata$r	SEGMENT
??_R4CRunObject@@6B@ DD 00H				; CRunObject::`RTTI Complete Object Locator'
	DD	00H
	DD	00H
	DD	FLAT:??_R0?AVCRunObject@@@8
	DD	FLAT:??_R3CRunObject@@8
rdata$r	ENDS
;	COMDAT ??_R1A@?0A@EA@CTimeout@@8
rdata$r	SEGMENT
??_R1A@?0A@EA@CTimeout@@8 DD FLAT:??_R0?AVCTimeout@@@8	; CTimeout::`RTTI Base Class Descriptor at (0,-1,0,64)'
	DD	00H
	DD	00H
	DD	0ffffffffH
	DD	00H
	DD	040H
	DD	FLAT:??_R3CTimeout@@8
rdata$r	ENDS
;	COMDAT ??_R2CTimeout@@8
rdata$r	SEGMENT
??_R2CTimeout@@8 DD FLAT:??_R1A@?0A@EA@CTimeout@@8	; CTimeout::`RTTI Base Class Array'
rdata$r	ENDS
;	COMDAT ??_R3CTimeout@@8
rdata$r	SEGMENT
??_R3CTimeout@@8 DD 00H					; CTimeout::`RTTI Class Hierarchy Descriptor'
	DD	00H
	DD	01H
	DD	FLAT:??_R2CTimeout@@8
rdata$r	ENDS
;	COMDAT ??_R0?AVCTimeout@@@8
data$rs	SEGMENT
??_R0?AVCTimeout@@@8 DD FLAT:??_7type_info@@6B@		; CTimeout `RTTI Type Descriptor'
	DD	00H
	DB	'.?AVCTimeout@@', 00H
data$rs	ENDS
;	COMDAT ??_R4CTimeout@@6B@
rdata$r	SEGMENT
??_R4CTimeout@@6B@ DD 00H				; CTimeout::`RTTI Complete Object Locator'
	DD	00H
	DD	00H
	DD	FLAT:??_R0?AVCTimeout@@@8
	DD	FLAT:??_R3CTimeout@@8
rdata$r	ENDS
;	COMDAT ??_C@_0BF@FHJPOALH@Respawn?3?$CFd?5Object?3?$CFd@
CONST	SEGMENT
??_C@_0BF@FHJPOALH@Respawn?3?$CFd?5Object?3?$CFd@ DB 'Respawn:%d Object:%'
	DB	'd', 00H					; `string'
CONST	ENDS
;	COMDAT ??_C@_0BM@BPIJONOA@MAPI_E_NOT_ENOUGH_RESOURCES@
CONST	SEGMENT
??_C@_0BM@BPIJONOA@MAPI_E_NOT_ENOUGH_RESOURCES@ DB 'MAPI_E_NOT_ENOUGH_RES'
	DB	'OURCES', 00H				; `string'
CONST	ENDS
;	COMDAT ??_C@_0CK@KFIOPGDF@?$FLCRITICAL?$FN?5Missing?5File?5?9?$DOGuild@
CONST	SEGMENT
??_C@_0CK@KFIOPGDF@?$FLCRITICAL?$FN?5Missing?5File?5?9?$DOGuild@ DB '[CRI'
	DB	'TICAL] Missing File ->GuildCombat.txt', 00H	; `string'
CONST	ENDS
;	COMDAT ??_C@_0BA@OEFFAKN@GuildCombat?4txt@
CONST	SEGMENT
??_C@_0BA@OEFFAKN@GuildCombat?4txt@ DB 'GuildCombat.txt', 00H ; `string'
CONST	ENDS
;	COMDAT ??_C@_0CG@IPNBNPAA@?$FLCRITICAL?$FN?5Missing?5File?5?9?$DO?5scho@
CONST	SEGMENT
??_C@_0CG@IPNBNPAA@?$FLCRITICAL?$FN?5Missing?5File?5?9?$DO?5scho@ DB '[CR'
	DB	'ITICAL] Missing File -> school.txt', 00H	; `string'
CONST	ENDS
;	COMDAT ??_C@_0BF@LLIGDGAK@?4?4?2script?2school?4txt@
CONST	SEGMENT
??_C@_0BF@LLIGDGAK@?4?4?2script?2school?4txt@ DB '..\script\school.txt', 00H ; `string'
CONST	ENDS
;	COMDAT ??_C@_0BH@EBCFPOHO@can?8t?5read?5spevent?4txt@
CONST	SEGMENT
??_C@_0BH@EBCFPOHO@can?8t?5read?5spevent?4txt@ DB 'can''t read spevent.tx'
	DB	't', 00H					; `string'
CONST	ENDS
;	COMDAT ??_C@_0M@MFIHLIAI@spevent?4txt@
CONST	SEGMENT
??_C@_0M@MFIHLIAI@spevent?4txt@ DB 'spevent.txt', 00H	; `string'
CONST	ENDS
;	COMDAT ??_C@_0CC@JPOGBINE@Can?8t?5connect?5to?5database?5serve@
CONST	SEGMENT
??_C@_0CC@JPOGBINE@Can?8t?5connect?5to?5database?5serve@ DB 'Can''t conne'
	DB	'ct to database server.', 00H		; `string'
CONST	ENDS
;	COMDAT ??_C@_0BO@HPOEDEBL@Can?8t?5connect?5to?5core?5server?4@
CONST	SEGMENT
??_C@_0BO@HPOEDEBL@Can?8t?5connect?5to?5core?5server?4@ DB 'Can''t connec'
	DB	't to core server.', 00H			; `string'
CONST	ENDS
;	COMDAT ??_C@_0BE@LKFKNEIN@Can?8t?5start?5server?4@
CONST	SEGMENT
??_C@_0BE@LKFKNEIN@Can?8t?5start?5server?4@ DB 'Can''t start server.', 00H ; `string'
CONST	ENDS
;	COMDAT ??_C@_0BB@MMCGDEMK@frame?3?$CFd?5tick?3?$CFd@
CONST	SEGMENT
??_C@_0BB@MMCGDEMK@frame?3?$CFd?5tick?3?$CFd@ DB 'frame:%d tick:%d', 00H ; `string'
CONST	ENDS
;	COMDAT ??_C@_06MOMOEFHB@CCU?3?$CFd@
CONST	SEGMENT
??_C@_06MOMOEFHB@CCU?3?$CFd@ DB 'CCU:%d', 00H		; `string'
CONST	ENDS
;	COMDAT ??_C@_0FI@BCOANPMN@?$CFd?0?5?$CF2?41f?0?5?$CF2?41f?0?5?$CF2?41f?0?5?$CF2?41f?0@
CONST	SEGMENT
??_C@_0FI@BCOANPMN@?$CFd?0?5?$CF2?41f?0?5?$CF2?41f?0?5?$CF2?41f?0?5?$CF2?41f?0@ DB '%'
	DB	'd, %2.1f, %2.1f, %2.1f, %2.1f, %2.1f, %2.1f, %2.1f, %2.1f, %2'
	DB	'.1f, %2.1f, %2.1f, %2.1f', 0aH, 00H		; `string'
CONST	ENDS
;	COMDAT ??_C@_0BC@HBMHMALC@warning?5?9?5tick?3?$CFd@
CONST	SEGMENT
??_C@_0BC@HBMHMALC@warning?5?9?5tick?3?$CFd@ DB 'warning - tick:%d', 00H ; `string'
CONST	ENDS
;	COMDAT ??_7CRunObject@@6B@
CONST	SEGMENT
??_7CRunObject@@6B@ DD FLAT:??_R4CRunObject@@6B@	; CRunObject::`vftable'
	DD	FLAT:??_ECRunObject@@UAEPAXI@Z
CONST	ENDS
;	COMDAT ??_7CTimeout@@6B@
CONST	SEGMENT
??_7CTimeout@@6B@ DD FLAT:??_R4CTimeout@@6B@		; CTimeout::`vftable'
	DD	FLAT:??_ECTimeout@@UAEPAXI@Z
CONST	ENDS
;	COMDAT ??_C@_00CNPNBAHC@@
CONST	SEGMENT
??_C@_00CNPNBAHC@@ DB 00H				; `string'
CONST	ENDS
;	COMDAT xdata$x
xdata$x	SEGMENT
__ehfuncinfo$?Run@CRunObject@@QAEXXZ DD 019930522H
	DD	08H
	DD	FLAT:__unwindtable$?Run@CRunObject@@QAEXXZ
	DD	2 DUP(00H)
	DD	2 DUP(00H)
	DD	00H
	DD	01H
__unwindtable$?Run@CRunObject@@QAEXXZ DD 0ffffffffH
	DD	FLAT:__unwindfunclet$?Run@CRunObject@@QAEXXZ$0
	DD	00H
	DD	FLAT:__unwindfunclet$?Run@CRunObject@@QAEXXZ$1
	DD	01H
	DD	FLAT:__unwindfunclet$?Run@CRunObject@@QAEXXZ$2
	DD	02H
	DD	FLAT:__unwindfunclet$?Run@CRunObject@@QAEXXZ$3
	DD	03H
	DD	FLAT:__unwindfunclet$?Run@CRunObject@@QAEXXZ$4
	DD	04H
	DD	FLAT:__unwindfunclet$?Run@CRunObject@@QAEXXZ$5
	DD	05H
	DD	FLAT:__unwindfunclet$?Run@CRunObject@@QAEXXZ$6
	DD	06H
	DD	FLAT:__unwindfunclet$?Run@CRunObject@@QAEXXZ$7
xdata$x	ENDS
; Function compile flags: /Ogtp
;	COMDAT ??__FsRunObject@?1??GetInstance@CRunObject@@SAPAV1@XZ@YAXXZ
text$yd	SEGMENT
??__FsRunObject@?1??GetInstance@CRunObject@@SAPAV1@XZ@YAXXZ PROC ; `CRunObject::GetInstance'::`2'::`dynamic atexit destructor for 'sRunObject'', COMDAT
  00000	b9 00 00 00 00	 mov	 ecx, OFFSET ?sRunObject@?1??GetInstance@CRunObject@@SAPAV2@XZ@4V2@A
  00005	e9 00 00 00 00	 jmp	 ??1CRunObject@@UAE@XZ	; CRunObject::~CRunObject
??__FsRunObject@?1??GetInstance@CRunObject@@SAPAV1@XZ@YAXXZ ENDP ; `CRunObject::GetInstance'::`2'::`dynamic atexit destructor for 'sRunObject''
text$yd	ENDS
; Function compile flags: /Ogtp
; File C:\IAGOS\server\v18\Source\Source\WorldServer\ThreadMng.cpp
;	COMDAT ?LogPerformance@@YAXK@Z
_TEXT	SEGMENT
_sum$1$ = -264						; size = 4
_szBuffer$1 = -260					; size = 256
__$ArrayPad$ = -4					; size = 4
_dwCurTick$ = 8						; size = 4
?LogPerformance@@YAXK@Z PROC				; LogPerformance, COMDAT

; 126  : {

  00000	55		 push	 ebp
  00001	8b ec		 mov	 ebp, esp
  00003	81 ec 08 01 00
	00		 sub	 esp, 264		; 00000108H
  00009	a1 00 00 00 00	 mov	 eax, DWORD PTR ___security_cookie
  0000e	33 c5		 xor	 eax, ebp
  00010	89 45 fc	 mov	 DWORD PTR __$ArrayPad$[ebp], eax

; 127  : 	static int nFrame = 0;			
; 128  : 	static DWORD dwPrev = 0;
; 129  : 	static DWORD dwElapsed = 0;
; 130  : 
; 131  : 	++nFrame;
; 132  : 	DWORD dwTick = dwCurTick - dwPrev; 

  00013	8b 45 08	 mov	 eax, DWORD PTR _dwCurTick$[ebp]
  00016	ff 05 00 00 00
	00		 inc	 DWORD PTR ?nFrame@?1??LogPerformance@@YAXK@Z@4HA
  0001c	56		 push	 esi
  0001d	8b f0		 mov	 esi, eax
  0001f	2b 35 00 00 00
	00		 sub	 esi, DWORD PTR ?dwPrev@?1??LogPerformance@@YAXK@Z@4KA

; 133  : 	dwPrev = dwCurTick;
; 134  : 	dwElapsed += dwTick;

  00025	01 35 00 00 00
	00		 add	 DWORD PTR ?dwElapsed@?1??LogPerformance@@YAXK@Z@4KA, esi
  0002b	a3 00 00 00 00	 mov	 DWORD PTR ?dwPrev@?1??LogPerformance@@YAXK@Z@4KA, eax

; 135  : 
; 136  : 	if( dwTick > 100 )

  00030	83 fe 64	 cmp	 esi, 100		; 00000064H
  00033	0f 86 ea 01 00
	00		 jbe	 $LN7@LogPerform

; 137  : 	{
; 138  : 		SetLogInfo( LOGTYPE_WARN1, "warning - tick:%d", dwTick );

  00039	56		 push	 esi
  0003a	68 00 00 00 00	 push	 OFFSET ??_C@_0BC@HBMHMALC@warning?5?9?5tick?3?$CFd@
  0003f	6a 04		 push	 4
  00041	e8 00 00 00 00	 call	 ?SetLogInfo@@YAXW4LOGTYPE@@PBDZZ ; SetLogInfo
  00046	83 c4 0c	 add	 esp, 12			; 0000000cH

; 139  : 
; 140  : 		if( g_bProfiling )

  00049	83 3d 00 00 00
	00 00		 cmp	 DWORD PTR ?g_bProfiling@@3HA, 0 ; g_bProfiling
  00050	0f 84 cd 01 00
	00		 je	 $LN7@LogPerform

; 141  : 		{
; 142  : 			float sum = r1 + r2 + r3 + r4 + r5 + r6 + r7 + r8 + r9 + r10 + r11 + r12 + 1.0f;

  00056	f3 0f 10 05 00
	00 00 00	 movss	 xmm0, DWORD PTR ?r2@@3MA

; 143  : 
; 144  : 			char szBuffer[256];
; 145  : 			sprintf( szBuffer, 

  0005e	8d 85 fc fe ff
	ff		 lea	 eax, DWORD PTR _szBuffer$1[ebp]
  00064	f3 0f 58 05 00
	00 00 00	 addss	 xmm0, DWORD PTR ?r1@@3MA
  0006c	f3 0f 10 35 00
	00 00 00	 movss	 xmm6, DWORD PTR ?r6@@3MA
  00074	83 ec 60	 sub	 esp, 96			; 00000060H
  00077	f3 0f 10 2d 00
	00 00 00	 movss	 xmm5, DWORD PTR ?r7@@3MA
  0007f	f3 0f 10 25 00
	00 00 00	 movss	 xmm4, DWORD PTR ?r8@@3MA
  00087	f3 0f 10 1d 00
	00 00 00	 movss	 xmm3, DWORD PTR ?r9@@3MA
  0008f	f3 0f 58 05 00
	00 00 00	 addss	 xmm0, DWORD PTR ?r3@@3MA
  00097	f3 0f 10 15 00
	00 00 00	 movss	 xmm2, DWORD PTR ?r10@@3MA
  0009f	f3 0f 10 0d 00
	00 00 00	 movss	 xmm1, DWORD PTR ?r11@@3MA
  000a7	f3 0f 58 05 00
	00 00 00	 addss	 xmm0, DWORD PTR ?r4@@3MA
  000af	f3 0f 58 05 00
	00 00 00	 addss	 xmm0, DWORD PTR ?r5@@3MA
  000b7	f3 0f 58 c6	 addss	 xmm0, xmm6
  000bb	f3 0f 58 c5	 addss	 xmm0, xmm5
  000bf	f3 0f 58 c4	 addss	 xmm0, xmm4
  000c3	f3 0f 58 c3	 addss	 xmm0, xmm3
  000c7	f3 0f 58 c2	 addss	 xmm0, xmm2
  000cb	f3 0f 58 c1	 addss	 xmm0, xmm1
  000cf	f3 0f 59 0d 00
	00 00 00	 mulss	 xmm1, DWORD PTR __real@42c80000
  000d7	f3 0f 11 85 f8
	fe ff ff	 movss	 DWORD PTR _sum$1$[ebp], xmm0
  000df	f3 0f 10 05 00
	00 00 00	 movss	 xmm0, DWORD PTR ?r12@@3MA
  000e7	f3 0f 10 bd f8
	fe ff ff	 movss	 xmm7, DWORD PTR _sum$1$[ebp]
  000ef	f3 0f 58 f8	 addss	 xmm7, xmm0
  000f3	f3 0f 59 05 00
	00 00 00	 mulss	 xmm0, DWORD PTR __real@42c80000
  000fb	f3 0f 58 3d 00
	00 00 00	 addss	 xmm7, DWORD PTR __real@3f800000
  00103	f3 0f 5e c7	 divss	 xmm0, xmm7
  00107	f3 0f 5e cf	 divss	 xmm1, xmm7
  0010b	0f 5a c0	 cvtps2pd xmm0, xmm0
  0010e	f2 0f 11 44 24
	58		 movsd	 QWORD PTR [esp+88], xmm0
  00114	0f 5a c1	 cvtps2pd xmm0, xmm1
  00117	f3 0f 10 0d 00
	00 00 00	 movss	 xmm1, DWORD PTR __real@42c80000
  0011f	f3 0f 59 d1	 mulss	 xmm2, xmm1
  00123	f2 0f 11 44 24
	50		 movsd	 QWORD PTR [esp+80], xmm0
  00129	f3 0f 59 d9	 mulss	 xmm3, xmm1
  0012d	f3 0f 5e d7	 divss	 xmm2, xmm7
  00131	f3 0f 59 e1	 mulss	 xmm4, xmm1
  00135	0f 5a c2	 cvtps2pd xmm0, xmm2
  00138	0f 28 d7	 movaps	 xmm2, xmm7
  0013b	f3 0f 59 e9	 mulss	 xmm5, xmm1
  0013f	f3 0f 10 3d 00
	00 00 00	 movss	 xmm7, DWORD PTR ?r5@@3MA
  00147	f3 0f 5e da	 divss	 xmm3, xmm2
  0014b	f2 0f 11 44 24
	48		 movsd	 QWORD PTR [esp+72], xmm0
  00151	f3 0f 5e e2	 divss	 xmm4, xmm2
  00155	f3 0f 5e ea	 divss	 xmm5, xmm2
  00159	f3 0f 59 f1	 mulss	 xmm6, xmm1
  0015d	f3 0f 59 f9	 mulss	 xmm7, xmm1
  00161	f3 0f 5e f2	 divss	 xmm6, xmm2
  00165	0f 5a c3	 cvtps2pd xmm0, xmm3
  00168	f3 0f 5e fa	 divss	 xmm7, xmm2
  0016c	f2 0f 11 44 24
	40		 movsd	 QWORD PTR [esp+64], xmm0
  00172	0f 5a c4	 cvtps2pd xmm0, xmm4
  00175	f2 0f 11 44 24
	38		 movsd	 QWORD PTR [esp+56], xmm0
  0017b	0f 5a c5	 cvtps2pd xmm0, xmm5
  0017e	f2 0f 11 44 24
	30		 movsd	 QWORD PTR [esp+48], xmm0
  00184	0f 5a c6	 cvtps2pd xmm0, xmm6
  00187	f2 0f 11 44 24
	28		 movsd	 QWORD PTR [esp+40], xmm0
  0018d	0f 5a c7	 cvtps2pd xmm0, xmm7
  00190	f2 0f 11 44 24
	20		 movsd	 QWORD PTR [esp+32], xmm0
  00196	f3 0f 10 05 00
	00 00 00	 movss	 xmm0, DWORD PTR ?r4@@3MA
  0019e	f3 0f 59 c1	 mulss	 xmm0, xmm1
  001a2	f3 0f 5e c2	 divss	 xmm0, xmm2
  001a6	0f 5a c0	 cvtps2pd xmm0, xmm0
  001a9	f2 0f 11 44 24
	18		 movsd	 QWORD PTR [esp+24], xmm0
  001af	f3 0f 10 05 00
	00 00 00	 movss	 xmm0, DWORD PTR ?r3@@3MA
  001b7	f3 0f 59 c1	 mulss	 xmm0, xmm1
  001bb	f3 0f 5e c2	 divss	 xmm0, xmm2
  001bf	0f 5a c0	 cvtps2pd xmm0, xmm0
  001c2	f2 0f 11 44 24
	10		 movsd	 QWORD PTR [esp+16], xmm0
  001c8	f3 0f 10 05 00
	00 00 00	 movss	 xmm0, DWORD PTR ?r2@@3MA
  001d0	f3 0f 59 c1	 mulss	 xmm0, xmm1
  001d4	f3 0f 5e c2	 divss	 xmm0, xmm2
  001d8	0f 5a c0	 cvtps2pd xmm0, xmm0
  001db	f2 0f 11 44 24
	08		 movsd	 QWORD PTR [esp+8], xmm0
  001e1	f3 0f 10 05 00
	00 00 00	 movss	 xmm0, DWORD PTR ?r1@@3MA
  001e9	f3 0f 59 c1	 mulss	 xmm0, xmm1
  001ed	f3 0f 5e c2	 divss	 xmm0, xmm2
  001f1	0f 5a c0	 cvtps2pd xmm0, xmm0
  001f4	f2 0f 11 04 24	 movsd	 QWORD PTR [esp], xmm0
  001f9	56		 push	 esi
  001fa	68 00 00 00 00	 push	 OFFSET ??_C@_0FI@BCOANPMN@?$CFd?0?5?$CF2?41f?0?5?$CF2?41f?0?5?$CF2?41f?0?5?$CF2?41f?0@
  001ff	50		 push	 eax
  00200	e8 00 00 00 00	 call	 _sprintf

; 146  : 					"%d, %2.1f, %2.1f, %2.1f, %2.1f, %2.1f, %2.1f, %2.1f, %2.1f, %2.1f, %2.1f, %2.1f, %2.1f\n",
; 147  : 					dwTick,
; 148  : 					( r1 * 100.0f / sum ),
; 149  : 					( r2 * 100.0f / sum ),
; 150  : 					( r3 * 100.0f / sum ),
; 151  : 					( r4 * 100.0f / sum ),
; 152  : 					( r5 * 100.0f / sum ),
; 153  : 					( r6 * 100.0f / sum ),
; 154  : 					( r7 * 100.0f / sum ),
; 155  : 					( r8 * 100.0f / sum ),
; 156  : 					( r9 * 100.0f / sum ),
; 157  : 					( r10 * 100.0f / sum ),
; 158  : 					( r11 * 100.0f / sum ),
; 159  : 					( r12 * 100.0f / sum ) );
; 160  : 
; 161  : 			SetLogInfo( LOGTYPE_WARN2, szBuffer );

  00205	8d 85 fc fe ff
	ff		 lea	 eax, DWORD PTR _szBuffer$1[ebp]
  0020b	50		 push	 eax
  0020c	6a 05		 push	 5
  0020e	e8 00 00 00 00	 call	 ?SetLogInfo@@YAXW4LOGTYPE@@PBDZZ ; SetLogInfo
  00213	83 c4 74	 add	 esp, 116		; 00000074H

; 162  : 			OutputDebugString( szBuffer );

  00216	8d 85 fc fe ff
	ff		 lea	 eax, DWORD PTR _szBuffer$1[ebp]
  0021c	50		 push	 eax
  0021d	ff 15 00 00 00
	00		 call	 DWORD PTR __imp__OutputDebugStringA@4
$LN7@LogPerform:

; 163  : 		}
; 164  : 	}
; 165  : 
; 166  : #ifdef __INFINITE_0227
; 167  : 	/*if( dwTick > 1000 )
; 168  : 	{
; 169  : 		char szBuffer[256];
; 170  : 			sprintf( szBuffer, 
; 171  : 					"OP: %d, %2.1f, %2.1f, %2.1f, %2.1f, %2.1f, %2.1f, %2.1f, %2.1f, %2.1f, %2.1f, %2.1f, %2.1f\n",
; 172  : 					dwTick, r1, r2, r3, r4, r5, r6, r7, r8, r9, r10, r11, r12 );
; 173  : 			Error( szBuffer );
; 174  : 	}*/
; 175  : #endif	// __INFINITE_0227
; 176  : 
; 177  : 	if( dwElapsed > 1000 )

  00223	81 3d 00 00 00
	00 e8 03 00 00	 cmp	 DWORD PTR ?dwElapsed@?1??LogPerformance@@YAXK@Z@4KA, 1000 ; 000003e8H
  0022d	0f 86 cf 00 00
	00		 jbe	 $LN4@LogPerform

; 178  : 	{
; 179  : 		SetLogInfo( LOGTYPE_CCU, "CCU:%d", g_UserMng.GetCount() );

  00233	ff 35 04 00 00
	00		 push	 DWORD PTR ?g_UserMng@@3VCUserMng@@A+4
  00239	68 00 00 00 00	 push	 OFFSET ??_C@_06MOMOEFHB@CCU?3?$CFd@
  0023e	6a 01		 push	 1
  00240	e8 00 00 00 00	 call	 ?SetLogInfo@@YAXW4LOGTYPE@@PBDZZ ; SetLogInfo
  00245	83 c4 0c	 add	 esp, 12			; 0000000cH

; 180  : 
; 181  : 		if( g_bProfiling )

  00248	83 3d 00 00 00
	00 00		 cmp	 DWORD PTR ?g_bProfiling@@3HA, 0 ; g_bProfiling
  0024f	74 16		 je	 SHORT $LN5@LogPerform

; 182  : 			SetLogInfo( LOGTYPE_PERFOMANCE, "frame:%d tick:%d", nFrame, dwTick );

  00251	56		 push	 esi
  00252	ff 35 00 00 00
	00		 push	 DWORD PTR ?nFrame@?1??LogPerformance@@YAXK@Z@4HA
  00258	68 00 00 00 00	 push	 OFFSET ??_C@_0BB@MMCGDEMK@frame?3?$CFd?5tick?3?$CFd@
  0025d	6a 02		 push	 2
  0025f	e8 00 00 00 00	 call	 ?SetLogInfo@@YAXW4LOGTYPE@@PBDZZ ; SetLogInfo
  00264	83 c4 10	 add	 esp, 16			; 00000010H
$LN5@LogPerform:

; 183  : 
; 184  : 		dwElapsed = 0; // -= 1000
; 185  : 		nFrame = 0;
; 186  : 
; 187  : 		r1 = r2 = r3 = r4 = r5 = r6 = r7 = r8 = r9 = r10 = r11 = r12 = 0;
; 188  : 		SetLogInfo( LOGTYPE_REDRAW, "" );

  00267	68 00 00 00 00	 push	 OFFSET ??_C@_00CNPNBAHC@@
  0026c	6a 07		 push	 7
  0026e	c7 05 00 00 00
	00 00 00 00 00	 mov	 DWORD PTR ?dwElapsed@?1??LogPerformance@@YAXK@Z@4KA, 0
  00278	c7 05 00 00 00
	00 00 00 00 00	 mov	 DWORD PTR ?nFrame@?1??LogPerformance@@YAXK@Z@4HA, 0
  00282	c7 05 00 00 00
	00 00 00 00 00	 mov	 DWORD PTR ?r12@@3MA, 0
  0028c	c7 05 00 00 00
	00 00 00 00 00	 mov	 DWORD PTR ?r11@@3MA, 0
  00296	c7 05 00 00 00
	00 00 00 00 00	 mov	 DWORD PTR ?r10@@3MA, 0
  002a0	c7 05 00 00 00
	00 00 00 00 00	 mov	 DWORD PTR ?r9@@3MA, 0
  002aa	c7 05 00 00 00
	00 00 00 00 00	 mov	 DWORD PTR ?r8@@3MA, 0
  002b4	c7 05 00 00 00
	00 00 00 00 00	 mov	 DWORD PTR ?r7@@3MA, 0
  002be	c7 05 00 00 00
	00 00 00 00 00	 mov	 DWORD PTR ?r6@@3MA, 0
  002c8	c7 05 00 00 00
	00 00 00 00 00	 mov	 DWORD PTR ?r5@@3MA, 0
  002d2	c7 05 00 00 00
	00 00 00 00 00	 mov	 DWORD PTR ?r4@@3MA, 0
  002dc	c7 05 00 00 00
	00 00 00 00 00	 mov	 DWORD PTR ?r3@@3MA, 0
  002e6	c7 05 00 00 00
	00 00 00 00 00	 mov	 DWORD PTR ?r2@@3MA, 0
  002f0	c7 05 00 00 00
	00 00 00 00 00	 mov	 DWORD PTR ?r1@@3MA, 0
  002fa	e8 00 00 00 00	 call	 ?SetLogInfo@@YAXW4LOGTYPE@@PBDZZ ; SetLogInfo
  002ff	83 c4 08	 add	 esp, 8
$LN4@LogPerform:

; 189  : #ifdef __NEW_PROFILE
; 190  : 		if( CProfileInfo::GetInstance()->IsToggleProfiling() )
; 191  : 			CProfileInfo::GetInstance()->SetProfileInfo();
; 192  : #endif // __NEW_PROFILE
; 193  : 	}
; 194  : 
; 195  : }

  00302	8b 4d fc	 mov	 ecx, DWORD PTR __$ArrayPad$[ebp]
  00305	33 cd		 xor	 ecx, ebp
  00307	5e		 pop	 esi
  00308	e8 00 00 00 00	 call	 @__security_check_cookie@4
  0030d	8b e5		 mov	 esp, ebp
  0030f	5d		 pop	 ebp
  00310	c3		 ret	 0
?LogPerformance@@YAXK@Z ENDP				; LogPerformance
_TEXT	ENDS
; Function compile flags: /Ogtp
;	COMDAT ??_GCRunObject@@UAEPAXI@Z
_TEXT	SEGMENT
___flags$ = 8						; size = 4
??_GCRunObject@@UAEPAXI@Z PROC				; CRunObject::`scalar deleting destructor', COMDAT
; _this$ = ecx
  00000	55		 push	 ebp
  00001	8b ec		 mov	 ebp, esp
  00003	56		 push	 esi
  00004	8b f1		 mov	 esi, ecx
  00006	e8 00 00 00 00	 call	 ??1CRunObject@@UAE@XZ	; CRunObject::~CRunObject
  0000b	f6 45 08 01	 test	 BYTE PTR ___flags$[ebp], 1
  0000f	74 0b		 je	 SHORT $LN5@scalar
  00011	6a 0c		 push	 12			; 0000000cH
  00013	56		 push	 esi
  00014	e8 00 00 00 00	 call	 ??3@YAXPAXI@Z		; operator delete
  00019	83 c4 08	 add	 esp, 8
$LN5@scalar:
  0001c	8b c6		 mov	 eax, esi
  0001e	5e		 pop	 esi
  0001f	5d		 pop	 ebp
  00020	c2 04 00	 ret	 4
??_GCRunObject@@UAEPAXI@Z ENDP				; CRunObject::`scalar deleting destructor'
_TEXT	ENDS
; Function compile flags: /Ogtp
; File C:\IAGOS\server\v18\Source\Source\WorldServer\ThreadMng.cpp
;	COMDAT ?ToggleProfiling@CRunObject@@QAEXXZ
_TEXT	SEGMENT
?ToggleProfiling@CRunObject@@QAEXXZ PROC		; CRunObject::ToggleProfiling, COMDAT
; _this$ = ecx

; 520  : 	g_bProfiling = !g_bProfiling; 

  00000	33 c0		 xor	 eax, eax
  00002	39 05 00 00 00
	00		 cmp	 DWORD PTR ?g_bProfiling@@3HA, eax ; g_bProfiling
  00008	0f 94 c0	 sete	 al
  0000b	a3 00 00 00 00	 mov	 DWORD PTR ?g_bProfiling@@3HA, eax ; g_bProfiling

; 521  : }

  00010	c3		 ret	 0
?ToggleProfiling@CRunObject@@QAEXXZ ENDP		; CRunObject::ToggleProfiling
_TEXT	ENDS
; Function compile flags: /Ogtp
; File C:\IAGOS\server\v18\Source\Source\WorldServer\ThreadMng.cpp
; File C:\Program Files (x86)\Windows Kits\10\Include\10.0.26100.0\ucrt\time.h
; File C:\IAGOS\server\v18\Source\Source\WorldServer\ThreadMng.cpp
; File C:\Program Files (x86)\Windows Kits\10\Include\10.0.26100.0\ucrt\time.h
; File C:\IAGOS\server\v18\Source\Source\WorldServer\ThreadMng.cpp
;	COMDAT ?Run@CRunObject@@QAEXXZ
_TEXT	SEGMENT
_timeoutCallTheRoll$ = -144				; size = 16
_timeout$ = -128					; size = 16
_timeoutRespawn$ = -112					; size = 16
_timeoutReadAccount$ = -96				; size = 16
_timeoutReadTrans$ = -80				; size = 16
_timeoutReadCore$ = -64					; size = 16
_timeoutReadAgent$ = -48				; size = 16
_timeoutObject$ = -32					; size = 16
_this$1$ = -16						; size = 4
__$EHRec$ = -12						; size = 12
?Run@CRunObject@@QAEXXZ PROC				; CRunObject::Run, COMDAT
; _this$ = ecx

; 318  : {

  00000	55		 push	 ebp
  00001	8b ec		 mov	 ebp, esp
  00003	6a ff		 push	 -1
  00005	68 00 00 00 00	 push	 __ehhandler$?Run@CRunObject@@QAEXXZ
  0000a	64 a1 00 00 00
	00		 mov	 eax, DWORD PTR fs:0
  00010	50		 push	 eax
  00011	81 ec 84 00 00
	00		 sub	 esp, 132		; 00000084H
  00017	53		 push	 ebx
  00018	56		 push	 esi
  00019	57		 push	 edi
  0001a	a1 00 00 00 00	 mov	 eax, DWORD PTR ___security_cookie
  0001f	33 c5		 xor	 eax, ebp
  00021	50		 push	 eax
  00022	8d 45 f4	 lea	 eax, DWORD PTR __$EHRec$[ebp]
  00025	64 a3 00 00 00
	00		 mov	 DWORD PTR fs:0, eax
  0002b	8b f1		 mov	 esi, ecx
  0002d	89 75 f0	 mov	 DWORD PTR _this$1$[ebp], esi

; 319  : 	HANDLE hHeartbeat;
; 320  : 	if( !( hHeartbeat = CreateEvent( NULL, FALSE, FALSE, g_sHeartbeat ) ) )

  00030	68 00 00 00 00	 push	 OFFSET ?g_sHeartbeat@@3PADA ; g_sHeartbeat
  00035	6a 00		 push	 0
  00037	6a 00		 push	 0
  00039	6a 00		 push	 0
  0003b	ff 15 00 00 00
	00		 call	 DWORD PTR __imp__CreateEventA@16
  00041	8b f8		 mov	 edi, eax
  00043	85 ff		 test	 edi, edi
  00045	75 21		 jne	 SHORT $LN5@Run

; 321  : 		hHeartbeat	= OpenEvent( EVENT_MODIFY_STATE, FALSE, g_sHeartbeat );

  00047	68 00 00 00 00	 push	 OFFSET ?g_sHeartbeat@@3PADA ; g_sHeartbeat
  0004c	50		 push	 eax
  0004d	6a 02		 push	 2
  0004f	ff 15 00 00 00
	00		 call	 DWORD PTR __imp__OpenEventA@12
  00055	8b f8		 mov	 edi, eax

; 322  : 	if( NULL == hHeartbeat )

  00057	85 ff		 test	 edi, edi
  00059	75 0d		 jne	 SHORT $LN5@Run

; 323  : 		Error( "MAPI_E_NOT_ENOUGH_RESOURCES" );

  0005b	68 00 00 00 00	 push	 OFFSET ??_C@_0BM@BPIJONOA@MAPI_E_NOT_ENOUGH_RESOURCES@
  00060	e8 00 00 00 00	 call	 ?Error@@YAPBDPBDZZ	; Error
  00065	83 c4 04	 add	 esp, 4
$LN5@Run:

; 324  : 	DWORD dwTickHearbeat = timeGetTime() + SEC( 2 );

  00068	ff 15 00 00 00
	00		 call	 DWORD PTR __imp__timeGetTime@0

; 325  : 
; 326  : 	CTimeout	timeoutObject( 67, 0 );

  0006e	6a 00		 push	 0
  00070	6a 43		 push	 67			; 00000043H
  00072	8d 4d e0	 lea	 ecx, DWORD PTR _timeoutObject$[ebp]
  00075	8d 98 d0 07 00
	00		 lea	 ebx, DWORD PTR [eax+2000]
  0007b	e8 00 00 00 00	 call	 ??0CTimeout@@QAE@KK@Z	; CTimeout::CTimeout

; 327  : 	CTimeout	timeoutReadAgent( 67, 20 );

  00080	6a 14		 push	 20			; 00000014H
  00082	6a 43		 push	 67			; 00000043H
  00084	8d 4d d0	 lea	 ecx, DWORD PTR _timeoutReadAgent$[ebp]
  00087	c7 45 fc 00 00
	00 00		 mov	 DWORD PTR __$EHRec$[ebp+8], 0
  0008e	e8 00 00 00 00	 call	 ??0CTimeout@@QAE@KK@Z	; CTimeout::CTimeout

; 328  : 	CTimeout	timeoutReadCore( 67, 40 );

  00093	6a 28		 push	 40			; 00000028H
  00095	6a 43		 push	 67			; 00000043H
  00097	8d 4d c0	 lea	 ecx, DWORD PTR _timeoutReadCore$[ebp]
  0009a	e8 00 00 00 00	 call	 ??0CTimeout@@QAE@KK@Z	; CTimeout::CTimeout

; 329  : 	CTimeout	timeoutReadTrans( 67, 50 );

  0009f	6a 32		 push	 50			; 00000032H
  000a1	6a 43		 push	 67			; 00000043H
  000a3	8d 4d b0	 lea	 ecx, DWORD PTR _timeoutReadTrans$[ebp]
  000a6	e8 00 00 00 00	 call	 ??0CTimeout@@QAE@KK@Z	; CTimeout::CTimeout

; 330  : 	CTimeout	timeoutReadAccount( 67, 60 );

  000ab	6a 3c		 push	 60			; 0000003cH
  000ad	6a 43		 push	 67			; 00000043H
  000af	8d 4d a0	 lea	 ecx, DWORD PTR _timeoutReadAccount$[ebp]
  000b2	e8 00 00 00 00	 call	 ??0CTimeout@@QAE@KK@Z	; CTimeout::CTimeout

; 331  : 	CTimeout	timeoutRespawn( 1000, 200 );

  000b7	68 c8 00 00 00	 push	 200			; 000000c8H
  000bc	68 e8 03 00 00	 push	 1000			; 000003e8H
  000c1	8d 4d 90	 lea	 ecx, DWORD PTR _timeoutRespawn$[ebp]
  000c4	e8 00 00 00 00	 call	 ??0CTimeout@@QAE@KK@Z	; CTimeout::CTimeout

; 332  : 	CTimeout	timeout( 1000, 600 );

  000c9	68 58 02 00 00	 push	 600			; 00000258H
  000ce	68 e8 03 00 00	 push	 1000			; 000003e8H
  000d3	8d 4d 80	 lea	 ecx, DWORD PTR _timeout$[ebp]
  000d6	e8 00 00 00 00	 call	 ??0CTimeout@@QAE@KK@Z	; CTimeout::CTimeout

; 333  : #ifdef __EVENT_1101
; 334  : 	CTimeout	timeoutCallTheRoll( MIN( 1 ), 70 );

  000db	6a 46		 push	 70			; 00000046H
  000dd	68 60 ea 00 00	 push	 60000			; 0000ea60H
  000e2	8d 8d 70 ff ff
	ff		 lea	 ecx, DWORD PTR _timeoutCallTheRoll$[ebp]
  000e8	e8 00 00 00 00	 call	 ??0CTimeout@@QAE@KK@Z	; CTimeout::CTimeout

; 335  : #endif	// __EVENT_1101
; 336  : 
; 337  : 	DWORD dwCur, dwOld;
; 338  : 
; 339  : 	while( WaitForSingleObject( m_hClose, 1 ) != WAIT_OBJECT_0 )

  000ed	6a 01		 push	 1
  000ef	ff 76 08	 push	 DWORD PTR [esi+8]
  000f2	c6 45 fc 07	 mov	 BYTE PTR __$EHRec$[ebp+8], 7
  000f6	ff 15 00 00 00
	00		 call	 DWORD PTR __imp__WaitForSingleObject@8
  000fc	85 c0		 test	 eax, eax
  000fe	0f 84 98 02 00
	00		 je	 $LN3@Run
$LL2@Run:

; 343  : 			g_tmCurrent		= timeGetTime();

  00104	ff 15 00 00 00
	00		 call	 DWORD PTR __imp__timeGetTime@0
; File C:\Program Files (x86)\Windows Kits\10\Include\10.0.26100.0\ucrt\time.h

; 428  :             return _time32(_Time);

  0010a	6a 00		 push	 0
; File C:\IAGOS\server\v18\Source\Source\WorldServer\ThreadMng.cpp

; 343  : 			g_tmCurrent		= timeGetTime();

  0010c	a3 00 00 00 00	 mov	 DWORD PTR ?g_tmCurrent@@3KA, eax ; g_tmCurrent
; File C:\Program Files (x86)\Windows Kits\10\Include\10.0.26100.0\ucrt\time.h

; 428  :             return _time32(_Time);

  00111	e8 00 00 00 00	 call	 __time32
  00116	83 c4 04	 add	 esp, 4
; File C:\IAGOS\server\v18\Source\Source\WorldServer\ThreadMng.cpp

; 344  : 			g_tCurrent	= time( NULL );

  00119	a3 00 00 00 00	 mov	 DWORD PTR ?g_tCurrent@@3JA, eax ; g_tCurrent

; 345  : 			
; 346  : 			dwCur = g_tmCurrent;
; 347  : 			dwOld = dwCur;
; 348  : 
; 349  : 			if( timeoutObject.TimeoutReset( g_tmCurrent ) )

  0011e	8d 4d e0	 lea	 ecx, DWORD PTR _timeoutObject$[ebp]
  00121	ff 35 00 00 00
	00		 push	 DWORD PTR ?g_tmCurrent@@3KA ; g_tmCurrent
  00127	e8 00 00 00 00	 call	 ?TimeoutReset@CTimeout@@QAEHK@Z ; CTimeout::TimeoutReset
  0012c	85 c0		 test	 eax, eax
  0012e	74 27		 je	 SHORT $LN43@Run

; 350  : 			{
; 351  : 				_PROFILE( "CWorldMng::Process()" );
; 352  : 				g_WorldMng.Process();

  00130	b9 00 00 00 00	 mov	 ecx, OFFSET ?g_WorldMng@@3VCWorldMng@@A ; g_WorldMng
  00135	e8 00 00 00 00	 call	 ?Process@CWorldMng@@QAEXXZ ; CWorldMng::Process

; 353  : 				if( g_tmCurrent > dwTickHearbeat )

  0013a	a1 00 00 00 00	 mov	 eax, DWORD PTR ?g_tmCurrent@@3KA ; g_tmCurrent
  0013f	3b c3		 cmp	 eax, ebx
  00141	76 19		 jbe	 SHORT $LN7@Run

; 354  : 				{
; 355  : 					SetEvent( hHeartbeat );

  00143	57		 push	 edi
  00144	ff 15 00 00 00
	00		 call	 DWORD PTR __imp__SetEvent@4

; 356  : 					dwTickHearbeat = g_tmCurrent + SEC( 2 );

  0014a	a1 00 00 00 00	 mov	 eax, DWORD PTR ?g_tmCurrent@@3KA ; g_tmCurrent
  0014f	8d 98 d0 07 00
	00		 lea	 ebx, DWORD PTR [eax+2000]
  00155	eb 05		 jmp	 SHORT $LN7@Run
$LN43@Run:

; 345  : 			
; 346  : 			dwCur = g_tmCurrent;
; 347  : 			dwOld = dwCur;
; 348  : 
; 349  : 			if( timeoutObject.TimeoutReset( g_tmCurrent ) )

  00157	a1 00 00 00 00	 mov	 eax, DWORD PTR ?g_tmCurrent@@3KA ; g_tmCurrent
$LN7@Run:

; 357  : 				}
; 358  : 			}
; 359  : 			
; 360  : 			PROFILE_RUN( r1 );
; 361  : 
; 362  : 			if( timeoutReadAgent.TimeoutReset( g_tmCurrent ) )

  0015c	50		 push	 eax
  0015d	8d 4d d0	 lea	 ecx, DWORD PTR _timeoutReadAgent$[ebp]
  00160	e8 00 00 00 00	 call	 ?TimeoutReset@CTimeout@@QAEHK@Z ; CTimeout::TimeoutReset
  00165	85 c0		 test	 eax, eax
  00167	74 0a		 je	 SHORT $LN8@Run

; 363  : 			{
; 364  : 				_PROFILE( "g_DPSrvr.ReceiveMessage()" );
; 365  : 				g_DPSrvr.ReceiveMessage();

  00169	b9 00 00 00 00	 mov	 ecx, OFFSET ?g_DPSrvr@@3VCDPSrvr@@A ; g_DPSrvr
  0016e	e8 00 00 00 00	 call	 ?ReceiveMessage@CDPMng@@QAEHXZ ; CDPMng::ReceiveMessage
$LN8@Run:

; 366  : 			}
; 367  : 
; 368  : 			PROFILE_RUN( r2 );
; 369  : 
; 370  : 			if( timeoutReadCore.TimeoutReset( g_tmCurrent ) )

  00173	ff 35 00 00 00
	00		 push	 DWORD PTR ?g_tmCurrent@@3KA ; g_tmCurrent
  00179	8d 4d c0	 lea	 ecx, DWORD PTR _timeoutReadCore$[ebp]
  0017c	e8 00 00 00 00	 call	 ?TimeoutReset@CTimeout@@QAEHK@Z ; CTimeout::TimeoutReset
  00181	85 c0		 test	 eax, eax
  00183	74 0a		 je	 SHORT $LN9@Run

; 371  : 			{
; 372  : 				_PROFILE( "g_DPCoreClient.ReceiveMessage()" );
; 373  : 				g_DPCoreClient.ReceiveMessage();

  00185	b9 00 00 00 00	 mov	 ecx, OFFSET ?g_DPCoreClient@@3VCDPCoreClient@@A ; g_DPCoreClient
  0018a	e8 00 00 00 00	 call	 ?ReceiveMessage@CDPMng@@QAEHXZ ; CDPMng::ReceiveMessage
$LN9@Run:

; 374  : 			}
; 375  : 
; 376  : 			PROFILE_RUN( r3 );
; 377  : 
; 378  : 			if( timeoutReadTrans.TimeoutReset( g_tmCurrent ) )

  0018f	ff 35 00 00 00
	00		 push	 DWORD PTR ?g_tmCurrent@@3KA ; g_tmCurrent
  00195	8d 4d b0	 lea	 ecx, DWORD PTR _timeoutReadTrans$[ebp]
  00198	e8 00 00 00 00	 call	 ?TimeoutReset@CTimeout@@QAEHK@Z ; CTimeout::TimeoutReset
  0019d	85 c0		 test	 eax, eax
  0019f	74 0a		 je	 SHORT $LN10@Run

; 379  : 			{
; 380  : 				_PROFILE( "g_dpDBClient.ReceiveMessage()" );
; 381  : 				g_dpDBClient.ReceiveMessage();

  001a1	b9 00 00 00 00	 mov	 ecx, OFFSET ?g_dpDBClient@@3VCDPDatabaseClient@@A ; g_dpDBClient
  001a6	e8 00 00 00 00	 call	 ?ReceiveMessage@CDPMng@@QAEHXZ ; CDPMng::ReceiveMessage
$LN10@Run:

; 382  : 			}
; 383  : 
; 384  : 			PROFILE_RUN( r4 );
; 385  : 		
; 386  : /*
; 387  : 		#ifdef __GIFTBOX0213
; 388  : 			if( timeoutReadAccount.TimeoutReset( g_tmCurrent ) )
; 389  : 				CDPAccountClient::GetInstance()->ReceiveMessage();
; 390  : 		#endif	// __GIFTBOX0213
; 391  : */
; 392  : 		#ifdef __EVENTLUA_KEEPCONNECT
; 393  : 			if( timeoutReadAccount.TimeoutReset( g_tmCurrent ) )

  001ab	ff 35 00 00 00
	00		 push	 DWORD PTR ?g_tmCurrent@@3KA ; g_tmCurrent
  001b1	8d 4d a0	 lea	 ecx, DWORD PTR _timeoutReadAccount$[ebp]
  001b4	e8 00 00 00 00	 call	 ?TimeoutReset@CTimeout@@QAEHK@Z ; CTimeout::TimeoutReset
  001b9	85 c0		 test	 eax, eax
  001bb	74 0a		 je	 SHORT $LN11@Run

; 394  : 				prj.m_EventLua.KeepConnectEventProcess();

  001bd	b9 bc 96 0d 00	 mov	 ecx, OFFSET ?prj@@3VCProject@@A+890556
  001c2	e8 00 00 00 00	 call	 ?KeepConnectEventProcess@CEventLua@@QAEXXZ ; CEventLua::KeepConnectEventProcess
$LN11@Run:

; 395  : 		#endif // __EVENTLUA_KEEPCONNECT
; 396  : 			PROFILE_RUN( r5 );
; 397  : 
; 398  : 			if( timeoutRespawn.TimeoutReset( g_tmCurrent ) )

  001c7	ff 35 00 00 00
	00		 push	 DWORD PTR ?g_tmCurrent@@3KA ; g_tmCurrent
  001cd	8d 4d 90	 lea	 ecx, DWORD PTR _timeoutRespawn$[ebp]
  001d0	e8 00 00 00 00	 call	 ?TimeoutReset@CTimeout@@QAEHK@Z ; CTimeout::TimeoutReset
  001d5	85 c0		 test	 eax, eax
  001d7	74 2a		 je	 SHORT $LN12@Run

; 399  : 			{
; 400  : 				_PROFILE( "g_WorldMng.Respawn()" );
; 401  : 				u_long uRespawned = g_WorldMng.Respawn();

  001d9	b9 00 00 00 00	 mov	 ecx, OFFSET ?g_WorldMng@@3VCWorldMng@@A ; g_WorldMng
  001de	e8 00 00 00 00	 call	 ?Respawn@CWorldMng@@QAEKXZ ; CWorldMng::Respawn

; 402  : //				if( uRespawned > 0 )
; 403  : 					SetLogInfo( LOGTYPE_RESPAWN, "Respawn:%d Object:%d", uRespawned, g_WorldMng.GetObjCount() );

  001e3	b9 00 00 00 00	 mov	 ecx, OFFSET ?g_WorldMng@@3VCWorldMng@@A ; g_WorldMng
  001e8	8b f0		 mov	 esi, eax
  001ea	e8 00 00 00 00	 call	 ?GetObjCount@CWorldMng@@QAEKXZ ; CWorldMng::GetObjCount
  001ef	50		 push	 eax
  001f0	56		 push	 esi
  001f1	68 00 00 00 00	 push	 OFFSET ??_C@_0BF@FHJPOALH@Respawn?3?$CFd?5Object?3?$CFd@
  001f6	6a 03		 push	 3
  001f8	e8 00 00 00 00	 call	 ?SetLogInfo@@YAXW4LOGTYPE@@PBDZZ ; SetLogInfo
  001fd	8b 75 f0	 mov	 esi, DWORD PTR _this$1$[ebp]
  00200	83 c4 10	 add	 esp, 16			; 00000010H
$LN12@Run:

; 404  : 			}
; 405  : 
; 406  : 			PROFILE_RUN( r6 );
; 407  : 			
; 408  : 
; 409  : 			if( timeout.TimeoutReset( g_tmCurrent ) )

  00203	ff 35 00 00 00
	00		 push	 DWORD PTR ?g_tmCurrent@@3KA ; g_tmCurrent
  00209	8d 4d 80	 lea	 ecx, DWORD PTR _timeout$[ebp]
  0020c	e8 00 00 00 00	 call	 ?TimeoutReset@CTimeout@@QAEHK@Z ; CTimeout::TimeoutReset
  00211	85 c0		 test	 eax, eax
  00213	0f 84 28 01 00
	00		 je	 $LN13@Run

; 410  : 			{
; 411  : 				_PROFILE( "1SEC_Process" );
; 412  : 				g_GameTimer.Compute();

  00219	b9 00 00 00 00	 mov	 ecx, OFFSET ?g_GameTimer@@3VCGameTimer@@A ; g_GameTimer
  0021e	e8 00 00 00 00	 call	 ?Compute@CGameTimer@@QAEXXZ ; CGameTimer::Compute

; 413  : 				CGuildQuestProcessor::GetInstance()->Process();

  00223	e8 00 00 00 00	 call	 ?GetInstance@CGuildQuestProcessor@@SAPAV1@XZ ; CGuildQuestProcessor::GetInstance
  00228	8b c8		 mov	 ecx, eax
  0022a	e8 00 00 00 00	 call	 ?Process@CGuildQuestProcessor@@QAEXXZ ; CGuildQuestProcessor::Process

; 414  : 				CPartyQuestProcessor::GetInstance()->Process();

  0022f	e8 00 00 00 00	 call	 ?GetInstance@CPartyQuestProcessor@@SAPAV1@XZ ; CPartyQuestProcessor::GetInstance
  00234	8b c8		 mov	 ecx, eax
  00236	e8 00 00 00 00	 call	 ?Process@CPartyQuestProcessor@@QAEXXZ ; CPartyQuestProcessor::Process

; 415  : 
; 416  : 				PROFILE_RUN( r7 );
; 417  : 
; 418  : 				if( g_eLocal.GetState( EVE_GUILDCOMBAT ) )

  0023b	6a 0f		 push	 15			; 0000000fH
  0023d	b9 00 00 00 00	 mov	 ecx, OFFSET ?g_eLocal@@3VCFlyffEvent@@A ; g_eLocal
  00242	e8 00 00 00 00	 call	 ?GetState@CFlyffEvent@@QAEEH@Z ; CFlyffEvent::GetState
  00247	84 c0		 test	 al, al
  00249	74 0a		 je	 SHORT $LN14@Run

; 419  : 					g_GuildCombatMng.Process();

  0024b	b9 00 00 00 00	 mov	 ecx, OFFSET ?g_GuildCombatMng@@3VCGuildCombat@@A ; g_GuildCombatMng
  00250	e8 00 00 00 00	 call	 ?Process@CGuildCombat@@QAEXXZ ; CGuildCombat::Process
$LN14@Run:

; 420  : 	#if __VER >= 11 // __GUILD_COMBAT_1TO1
; 421  : 				if( g_eLocal.GetState( EVE_GUILDCOMBAT1TO1 ) )

  00255	6a 16		 push	 22			; 00000016H
  00257	b9 00 00 00 00	 mov	 ecx, OFFSET ?g_eLocal@@3VCFlyffEvent@@A ; g_eLocal
  0025c	e8 00 00 00 00	 call	 ?GetState@CFlyffEvent@@QAEEH@Z ; CFlyffEvent::GetState
  00261	84 c0		 test	 al, al
  00263	74 0a		 je	 SHORT $LN15@Run

; 422  : 					g_GuildCombat1to1Mng.Process();

  00265	b9 00 00 00 00	 mov	 ecx, OFFSET ?g_GuildCombat1to1Mng@@3VCGuildCombat1to1Mng@@A ; g_GuildCombat1to1Mng
  0026a	e8 00 00 00 00	 call	 ?Process@CGuildCombat1to1Mng@@QAEXXZ ; CGuildCombat1to1Mng::Process
$LN15@Run:

; 423  : 	#endif // __GUILD_COMBAT_1TO1
; 424  : 
; 425  : 	#if __VER >= 12 // __SECRET_ROOM
; 426  : 				if( g_eLocal.GetState( EVE_SECRETROOM ) )

  0026f	6a 18		 push	 24			; 00000018H
  00271	b9 00 00 00 00	 mov	 ecx, OFFSET ?g_eLocal@@3VCFlyffEvent@@A ; g_eLocal
  00276	e8 00 00 00 00	 call	 ?GetState@CFlyffEvent@@QAEEH@Z ; CFlyffEvent::GetState
  0027b	84 c0		 test	 al, al
  0027d	74 0c		 je	 SHORT $LN16@Run

; 427  : 				{
; 428  : 					_PROFILE( "CSecretRoomMng::Process()" );
; 429  : 					CSecretRoomMng::GetInstance()->Process();

  0027f	e8 00 00 00 00	 call	 ?GetInstance@CSecretRoomMng@@SAPAV1@XZ ; CSecretRoomMng::GetInstance
  00284	8b c8		 mov	 ecx, eax
  00286	e8 00 00 00 00	 call	 ?Process@CSecretRoomMng@@QAEXXZ ; CSecretRoomMng::Process
$LN16@Run:

; 430  : 				}
; 431  : 	#endif // __SECRET_ROOM
; 432  : 	#if __VER >= 13 // __RAINBOW_RACE
; 433  : 				if( g_eLocal.GetState( EVE_RAINBOWRACE ) )

  0028b	6a 19		 push	 25			; 00000019H
  0028d	b9 00 00 00 00	 mov	 ecx, OFFSET ?g_eLocal@@3VCFlyffEvent@@A ; g_eLocal
  00292	e8 00 00 00 00	 call	 ?GetState@CFlyffEvent@@QAEEH@Z ; CFlyffEvent::GetState
  00297	84 c0		 test	 al, al
  00299	74 0c		 je	 SHORT $LN17@Run

; 434  : 				{
; 435  : 					_PROFILE( "CRainbowRaceMng::Process()" );
; 436  : 					CRainbowRaceMng::GetInstance()->Process();

  0029b	e8 00 00 00 00	 call	 ?GetInstance@CRainbowRaceMng@@SAPAV1@XZ ; CRainbowRaceMng::GetInstance
  002a0	8b c8		 mov	 ecx, eax
  002a2	e8 00 00 00 00	 call	 ?Process@CRainbowRaceMng@@QAEXXZ ; CRainbowRaceMng::Process
$LN17@Run:

; 437  : 				}
; 438  : 	#endif // __RAINBOW_RACE
; 439  : 	#if __VER >= 14 // __PCBANG
; 440  : 				{
; 441  : 					_PROFILE( "CPCBang::ProcessPCBang()" );
; 442  : 					CPCBang::GetInstance()->ProcessPCBang();

  002a7	e8 00 00 00 00	 call	 ?GetInstance@CPCBang@@SAPAV1@XZ ; CPCBang::GetInstance
  002ac	8b c8		 mov	 ecx, eax
  002ae	e8 00 00 00 00	 call	 ?ProcessPCBang@CPCBang@@QAEXXZ ; CPCBang::ProcessPCBang

; 443  : 				}
; 444  : 	#endif // __PCBANG
; 445  : 	#if __VER >= 14 // __INSTANCE_DUNGEON
; 446  : 				{
; 447  : 					CInstanceDungeonParty::GetInstance()->Process();

  002b3	e8 00 00 00 00	 call	 ?GetInstance@CInstanceDungeonParty@@SAPAV1@XZ ; CInstanceDungeonParty::GetInstance
  002b8	8b c8		 mov	 ecx, eax
  002ba	e8 00 00 00 00	 call	 ?Process@CInstanceDungeonParty@@QAEXXZ ; CInstanceDungeonParty::Process

; 448  : 				}
; 449  : 	#endif // __INSTANCE_DUNGEON
; 450  : 
; 451  : 	#ifdef __QUIZ
; 452  : 				{
; 453  : 					if( CQuiz::GetInstance()->IsAutoMode() && CQuiz::GetInstance()->IsRun() )

  002bf	e8 00 00 00 00	 call	 ?GetInstance@CQuiz@@SAPAV1@XZ ; CQuiz::GetInstance
  002c4	83 78 04 00	 cmp	 DWORD PTR [eax+4], 0
  002c8	74 17		 je	 SHORT $LN18@Run
  002ca	e8 00 00 00 00	 call	 ?GetInstance@CQuiz@@SAPAV1@XZ ; CQuiz::GetInstance
  002cf	83 78 08 00	 cmp	 DWORD PTR [eax+8], 0
  002d3	74 0c		 je	 SHORT $LN18@Run

; 454  : 						CQuiz::GetInstance()->Process();

  002d5	e8 00 00 00 00	 call	 ?GetInstance@CQuiz@@SAPAV1@XZ ; CQuiz::GetInstance
  002da	8b c8		 mov	 ecx, eax
  002dc	e8 00 00 00 00	 call	 ?Process@CQuiz@@QAEXXZ	; CQuiz::Process
$LN18@Run:

; 455  : 				}
; 456  : 	#endif // __QUIZ
; 457  : 
; 458  : 				PROFILE_RUN( r8 );
; 459  : 			
; 460  : 			
; 461  : 				if( g_eLocal.GetState( ENABLE_GUILD_INVENTORY ) )

  002e1	6a 02		 push	 2
  002e3	b9 00 00 00 00	 mov	 ecx, OFFSET ?g_eLocal@@3VCFlyffEvent@@A ; g_eLocal
  002e8	e8 00 00 00 00	 call	 ?GetState@CFlyffEvent@@QAEEH@Z ; CFlyffEvent::GetState
  002ed	84 c0		 test	 al, al
  002ef	74 0a		 je	 SHORT $LN19@Run

; 462  : 					g_GuildMng.Process();

  002f1	b9 00 00 00 00	 mov	 ecx, OFFSET ?g_GuildMng@@3VCGuildMng@@A ; g_GuildMng
  002f6	e8 00 00 00 00	 call	 ?Process@CGuildMng@@QAEXXZ ; CGuildMng::Process
$LN19@Run:

; 463  : 
; 464  : 				PROFILE_RUN( r9 );
; 465  : 
; 466  : 				if( g_eLocal.GetState( EVE_GUILDWAR ) )

  002fb	6a 03		 push	 3
  002fd	b9 00 00 00 00	 mov	 ecx, OFFSET ?g_eLocal@@3VCFlyffEvent@@A ; g_eLocal
  00302	e8 00 00 00 00	 call	 ?GetState@CFlyffEvent@@QAEEH@Z ; CFlyffEvent::GetState
  00307	84 c0		 test	 al, al
  00309	74 0a		 je	 SHORT $LN20@Run

; 467  : 					g_GuildWarMng.Process();

  0030b	b9 00 00 00 00	 mov	 ecx, OFFSET ?g_GuildWarMng@@3VCGuildWarMng@@A ; g_GuildWarMng
  00310	e8 00 00 00 00	 call	 ?Process@CGuildWarMng@@QAEXXZ ; CGuildWarMng::Process
$LN20@Run:

; 468  : 
; 469  : 				g_PartyMng.PartyMapInfo();

  00315	b9 00 00 00 00	 mov	 ecx, OFFSET ?g_PartyMng@@3VCPartyMng@@A ; g_PartyMng
  0031a	e8 00 00 00 00	 call	 ?PartyMapInfo@CPartyMng@@QAEXXZ ; CPartyMng::PartyMapInfo

; 470  : 
; 471  : 				PROFILE_RUN( r10 );
; 472  : 
; 473  : 	#if __VER >= 12 // __RANGDA_0521
; 474  : 				// ·Ł´ý ŔĚşĄĆ® ¸ó˝şĹÍ ĂĘ´ç 1Č¸ Ć˝
; 475  : 				CRangdaController::Instance()->OnTimer();

  0031f	e8 00 00 00 00	 call	 ?Instance@CRangdaController@@SAPAV1@XZ ; CRangdaController::Instance
  00324	8b c8		 mov	 ecx, eax
  00326	e8 00 00 00 00	 call	 ?OnTimer@CRangdaController@@QAEXXZ ; CRangdaController::OnTimer

; 476  : 	#endif	// __RANGDA_0521
; 477  : 	#ifdef __EVENTLUA_SPAWN
; 478  : 				prj.m_EventLua.EventSpawnProcess();

  0032b	b9 bc 96 0d 00	 mov	 ecx, OFFSET ?prj@@3VCProject@@A+890556
  00330	e8 00 00 00 00	 call	 ?EventSpawnProcess@CEventLua@@QAEXXZ ; CEventLua::EventSpawnProcess

; 479  : 	#endif // __EVENTLUA_SPAWN
; 480  : 	
; 481  : 	#ifdef	__COLOSSEUM
; 482  : 				CColosseumMng::GetInstance()->Process();

  00335	e8 00 00 00 00	 call	 ?GetInstance@CColosseumMng@@SAPAV1@XZ ; CColosseumMng::GetInstance
  0033a	8b c8		 mov	 ecx, eax
  0033c	e8 00 00 00 00	 call	 ?Process@CColosseumMng@@QAEXXZ ; CColosseumMng::Process
$LN13@Run:

; 483  : 	#endif // __COLOSSEUM	
; 484  : 			}
; 485  : 
; 486  : #ifdef __EVENT_1101
; 487  : 			if( timeoutCallTheRoll.TimeoutReset( g_tmCurrent ) )	// 1şĐ´ç 

  00341	ff 35 00 00 00
	00		 push	 DWORD PTR ?g_tmCurrent@@3KA ; g_tmCurrent
  00347	8d 8d 70 ff ff
	ff		 lea	 ecx, DWORD PTR _timeoutCallTheRoll$[ebp]
  0034d	e8 00 00 00 00	 call	 ?TimeoutReset@CTimeout@@QAEHK@Z ; CTimeout::TimeoutReset
  00352	85 c0		 test	 eax, eax
  00354	74 18		 je	 SHORT $LN21@Run

; 488  : 			{
; 489  : 				CEventGeneric::GetInstance()->CallTheRoll();

  00356	e8 00 00 00 00	 call	 ?GetInstance@CEventGeneric@@SAPAV1@XZ ; CEventGeneric::GetInstance
  0035b	8b c8		 mov	 ecx, eax
  0035d	e8 00 00 00 00	 call	 ?CallTheRoll@CEventGeneric@@QAEXXZ ; CEventGeneric::CallTheRoll

; 490  : 	#if __VER >= 12 // __NEW_ITEMCREATEMON_SERVER
; 491  : 				CCreateMonster::GetInstance()->ProcessRemoveMonster();

  00362	e8 00 00 00 00	 call	 ?GetInstance@CCreateMonster@@SAPAV1@XZ ; CCreateMonster::GetInstance
  00367	8b c8		 mov	 ecx, eax
  00369	e8 00 00 00 00	 call	 ?ProcessRemoveMonster@CCreateMonster@@QAEXXZ ; CCreateMonster::ProcessRemoveMonster
$LN21@Run:

; 492  : 	#endif // __NEW_ITEMCREATEMON_SERVER
; 493  : 			}
; 494  : 	#endif	// __EVENT_1101
; 495  : 
; 496  : 				PROFILE_RUN( r11 );
; 497  : 
; 498  : 	#ifdef __EVENT_0117
; 499  : 			CEventGeneric::GetInstance()->Spawn();

  0036e	e8 00 00 00 00	 call	 ?GetInstance@CEventGeneric@@SAPAV1@XZ ; CEventGeneric::GetInstance
  00373	8b c8		 mov	 ecx, eax
  00375	e8 00 00 00 00	 call	 ?Spawn@CEventGeneric@@QAEXXZ ; CEventGeneric::Spawn

; 500  : 	#endif	// __EVENT_0117
; 501  : 
; 502  : 			PROFILE_RUN( r12 );
; 503  : 		}
; 504  : 		
; 505  : 		LogPerformance( timeGetTime() );

  0037a	ff 15 00 00 00
	00		 call	 DWORD PTR __imp__timeGetTime@0
  00380	50		 push	 eax
  00381	e8 00 00 00 00	 call	 ?LogPerformance@@YAXK@Z	; LogPerformance
  00386	83 c4 04	 add	 esp, 4
  00389	6a 01		 push	 1
  0038b	ff 76 08	 push	 DWORD PTR [esi+8]
  0038e	ff 15 00 00 00
	00		 call	 DWORD PTR __imp__WaitForSingleObject@8
  00394	85 c0		 test	 eax, eax
  00396	0f 85 68 fd ff
	ff		 jne	 $LL2@Run
$LN3@Run:

; 506  : 	
; 507  : 	}
; 508  : 	CLOSE_HANDLE( m_hClose );

  0039c	8b 46 08	 mov	 eax, DWORD PTR [esi+8]
  0039f	8b 35 00 00 00
	00		 mov	 esi, DWORD PTR __imp__CloseHandle@4
  003a5	85 c0		 test	 eax, eax
  003a7	74 0d		 je	 SHORT $LN22@Run
  003a9	50		 push	 eax
  003aa	ff d6		 call	 esi
  003ac	8b 45 f0	 mov	 eax, DWORD PTR _this$1$[ebp]
  003af	c7 40 08 00 00
	00 00		 mov	 DWORD PTR [eax+8], 0
$LN22@Run:

; 509  : 	CLOSE_HANDLE( hHeartbeat );

  003b6	85 ff		 test	 edi, edi
  003b8	74 03		 je	 SHORT $LN23@Run
  003ba	57		 push	 edi
  003bb	ff d6		 call	 esi
$LN23@Run:

; 510  : }

  003bd	8b 4d f4	 mov	 ecx, DWORD PTR __$EHRec$[ebp]
  003c0	64 89 0d 00 00
	00 00		 mov	 DWORD PTR fs:0, ecx
  003c7	59		 pop	 ecx
  003c8	5f		 pop	 edi
  003c9	5e		 pop	 esi
  003ca	5b		 pop	 ebx
  003cb	8b e5		 mov	 esp, ebp
  003cd	5d		 pop	 ebp
  003ce	c3		 ret	 0
_TEXT	ENDS
;	COMDAT text$x
text$x	SEGMENT
__unwindfunclet$?Run@CRunObject@@QAEXXZ$0:
  00000	8d 4d e0	 lea	 ecx, DWORD PTR _timeoutObject$[ebp]
  00003	e9 00 00 00 00	 jmp	 ??1CTimeout@@UAE@XZ	; CTimeout::~CTimeout
__unwindfunclet$?Run@CRunObject@@QAEXXZ$1:
  00008	8d 4d d0	 lea	 ecx, DWORD PTR _timeoutReadAgent$[ebp]
  0000b	e9 00 00 00 00	 jmp	 ??1CTimeout@@UAE@XZ	; CTimeout::~CTimeout
__unwindfunclet$?Run@CRunObject@@QAEXXZ$2:
  00010	8d 4d c0	 lea	 ecx, DWORD PTR _timeoutReadCore$[ebp]
  00013	e9 00 00 00 00	 jmp	 ??1CTimeout@@UAE@XZ	; CTimeout::~CTimeout
__unwindfunclet$?Run@CRunObject@@QAEXXZ$3:
  00018	8d 4d b0	 lea	 ecx, DWORD PTR _timeoutReadTrans$[ebp]
  0001b	e9 00 00 00 00	 jmp	 ??1CTimeout@@UAE@XZ	; CTimeout::~CTimeout
__unwindfunclet$?Run@CRunObject@@QAEXXZ$4:
  00020	8d 4d a0	 lea	 ecx, DWORD PTR _timeoutReadAccount$[ebp]
  00023	e9 00 00 00 00	 jmp	 ??1CTimeout@@UAE@XZ	; CTimeout::~CTimeout
__unwindfunclet$?Run@CRunObject@@QAEXXZ$5:
  00028	8d 4d 90	 lea	 ecx, DWORD PTR _timeoutRespawn$[ebp]
  0002b	e9 00 00 00 00	 jmp	 ??1CTimeout@@UAE@XZ	; CTimeout::~CTimeout
__unwindfunclet$?Run@CRunObject@@QAEXXZ$6:
  00030	8d 4d 80	 lea	 ecx, DWORD PTR _timeout$[ebp]
  00033	e9 00 00 00 00	 jmp	 ??1CTimeout@@UAE@XZ	; CTimeout::~CTimeout
__unwindfunclet$?Run@CRunObject@@QAEXXZ$7:
  00038	8d 8d 70 ff ff
	ff		 lea	 ecx, DWORD PTR _timeoutCallTheRoll$[ebp]
  0003e	e9 00 00 00 00	 jmp	 ??1CTimeout@@UAE@XZ	; CTimeout::~CTimeout
  00043	cc		 int	 3
  00044	cc		 int	 3
  00045	cc		 int	 3
  00046	cc		 int	 3
  00047	cc		 int	 3
__ehhandler$?Run@CRunObject@@QAEXXZ:
  00048	90		 npad	 1
  00049	90		 npad	 1
  0004a	8b 54 24 08	 mov	 edx, DWORD PTR [esp+8]
  0004e	8d 42 0c	 lea	 eax, DWORD PTR [edx+12]
  00051	8b 8a 6c ff ff
	ff		 mov	 ecx, DWORD PTR [edx-148]
  00057	33 c8		 xor	 ecx, eax
  00059	e8 00 00 00 00	 call	 @__security_check_cookie@4
  0005e	b8 00 00 00 00	 mov	 eax, OFFSET __ehfuncinfo$?Run@CRunObject@@QAEXXZ
  00063	e9 00 00 00 00	 jmp	 ___CxxFrameHandler3
text$x	ENDS
?Run@CRunObject@@QAEXXZ ENDP				; CRunObject::Run
; Function compile flags: /Ogtp
; File C:\IAGOS\server\v18\Source\Source\WorldServer\ThreadMng.cpp
;	COMDAT ?GetInstance@CRunObject@@SAPAV1@XZ
_TEXT	SEGMENT
?GetInstance@CRunObject@@SAPAV1@XZ PROC			; CRunObject::GetInstance, COMDAT

; 514  : 	static CRunObject	sRunObject;

  00000	64 a1 00 00 00
	00		 mov	 eax, DWORD PTR fs:__tls_array
  00006	8b 0d 00 00 00
	00		 mov	 ecx, DWORD PTR __tls_index
  0000c	8b 0c 88	 mov	 ecx, DWORD PTR [eax+ecx*4]
  0000f	a1 00 00 00 00	 mov	 eax, DWORD PTR ?$TSS0@?1??GetInstance@CRunObject@@SAPAV2@XZ@4HA
  00014	3b 81 00 00 00
	00		 cmp	 eax, DWORD PTR __Init_thread_epoch[ecx]
  0001a	7f 06		 jg	 SHORT $LN8@GetInstanc
$LN5@GetInstanc:

; 515  : 	return &sRunObject;
; 516  : }

  0001c	b8 00 00 00 00	 mov	 eax, OFFSET ?sRunObject@?1??GetInstance@CRunObject@@SAPAV2@XZ@4V2@A
  00021	c3		 ret	 0
$LN8@GetInstanc:

; 514  : 	static CRunObject	sRunObject;

  00022	68 00 00 00 00	 push	 OFFSET ?$TSS0@?1??GetInstance@CRunObject@@SAPAV2@XZ@4HA
  00027	e8 00 00 00 00	 call	 __Init_thread_header
  0002c	83 c4 04	 add	 esp, 4
  0002f	83 3d 00 00 00
	00 ff		 cmp	 DWORD PTR ?$TSS0@?1??GetInstance@CRunObject@@SAPAV2@XZ@4HA, -1
  00036	75 e4		 jne	 SHORT $LN5@GetInstanc
  00038	b9 00 00 00 00	 mov	 ecx, OFFSET ?sRunObject@?1??GetInstance@CRunObject@@SAPAV2@XZ@4V2@A
  0003d	e8 00 00 00 00	 call	 ??0CRunObject@@QAE@XZ	; CRunObject::CRunObject
  00042	68 00 00 00 00	 push	 OFFSET ??__FsRunObject@?1??GetInstance@CRunObject@@SAPAV1@XZ@YAXXZ ; `CRunObject::GetInstance'::`2'::`dynamic atexit destructor for 'sRunObject''
  00047	e8 00 00 00 00	 call	 _atexit
  0004c	68 00 00 00 00	 push	 OFFSET ?$TSS0@?1??GetInstance@CRunObject@@SAPAV2@XZ@4HA
  00051	e8 00 00 00 00	 call	 __Init_thread_footer
  00056	83 c4 08	 add	 esp, 8
  00059	eb c1		 jmp	 SHORT $LN5@GetInstanc
?GetInstance@CRunObject@@SAPAV1@XZ ENDP			; CRunObject::GetInstance
_TEXT	ENDS
; Function compile flags: /Ogtp
; File C:\IAGOS\server\v18\Source\Source\WorldServer\ThreadMng.cpp
;	COMDAT ?_Run@CRunObject@@SAIPAX@Z
_TEXT	SEGMENT
_pParam$ = 8						; size = 4
?_Run@CRunObject@@SAIPAX@Z PROC				; CRunObject::_Run, COMDAT

; 302  : {

  00000	55		 push	 ebp
  00001	8b ec		 mov	 ebp, esp

; 303  : 	CRunObject* pRunObject	= (CRunObject*)pParam;
; 304  : 	pRunObject->Run();

  00003	8b 4d 08	 mov	 ecx, DWORD PTR _pParam$[ebp]
  00006	e8 00 00 00 00	 call	 ?Run@CRunObject@@QAEXXZ	; CRunObject::Run

; 305  : 	return 0;

  0000b	33 c0		 xor	 eax, eax

; 306  : }

  0000d	5d		 pop	 ebp
  0000e	c3		 ret	 0
?_Run@CRunObject@@SAIPAX@Z ENDP				; CRunObject::_Run
_TEXT	ENDS
; Function compile flags: /Ogtp
; File C:\IAGOS\server\v18\Source\Source\WorldServer\ThreadMng.cpp
;	COMDAT ?Close@CRunObject@@QAEXXZ
_TEXT	SEGMENT
?Close@CRunObject@@QAEXXZ PROC				; CRunObject::Close, COMDAT
; _this$ = ecx

; 297  : {

  00000	57		 push	 edi
  00001	8b f9		 mov	 edi, ecx

; 298  : 	CLOSE_THREAD( m_hRunObject, m_hClose );

  00003	83 7f 04 00	 cmp	 DWORD PTR [edi+4], 0
  00007	74 34		 je	 SHORT $LN2@Close
  00009	ff 77 08	 push	 DWORD PTR [edi+8]
  0000c	ff 15 00 00 00
	00		 call	 DWORD PTR __imp__SetEvent@4
  00012	6a ff		 push	 -1
  00014	ff 77 04	 push	 DWORD PTR [edi+4]
  00017	ff 15 00 00 00
	00		 call	 DWORD PTR __imp__WaitForSingleObject@8
  0001d	ff 77 04	 push	 DWORD PTR [edi+4]
  00020	ff 15 00 00 00
	00		 call	 DWORD PTR __imp__CloseHandle@4
  00026	ff 77 08	 push	 DWORD PTR [edi+8]
  00029	ff 15 00 00 00
	00		 call	 DWORD PTR __imp__CloseHandle@4
  0002f	c7 47 08 00 00
	00 00		 mov	 DWORD PTR [edi+8], 0
  00036	c7 47 04 00 00
	00 00		 mov	 DWORD PTR [edi+4], 0
$LN2@Close:

; 299  : }

  0003d	5f		 pop	 edi
  0003e	c3		 ret	 0
?Close@CRunObject@@QAEXXZ ENDP				; CRunObject::Close
_TEXT	ENDS
; Function compile flags: /Ogtp
; File C:\IAGOS\server\v18\Source\Source\WorldServer\ThreadMng.cpp
; File C:\IAGOS\server\v18\Source\Source\_Network\Net\Include\DPMng.h
; File C:\IAGOS\server\v18\Source\Source\WorldServer\ThreadMng.cpp
; File C:\IAGOS\server\v18\Source\Source\_Network\Net\Include\DPMng.h
; File C:\IAGOS\server\v18\Source\Source\WorldServer\ThreadMng.cpp
; File C:\IAGOS\server\v18\Source\Source\_Network\Net\Include\DPMng.h
; File C:\IAGOS\server\v18\Source\Source\WorldServer\ThreadMng.cpp
;	COMDAT ?Init@CRunObject@@QAEHXZ
_TEXT	SEGMENT
_dwThreadId$ = -4					; size = 4
?Init@CRunObject@@QAEHXZ PROC				; CRunObject::Init, COMDAT
; _this$ = ecx

; 212  : {

  00000	55		 push	 ebp
  00001	8b ec		 mov	 ebp, esp
  00003	51		 push	 ecx
  00004	56		 push	 esi
  00005	8b f1		 mov	 esi, ecx

; 213  : 	if( LoadAIScript() == FALSE )

  00007	e8 00 00 00 00	 call	 ?LoadAIScript@@YAHXZ	; LoadAIScript
  0000c	85 c0		 test	 eax, eax
  0000e	0f 84 08 02 00
	00		 je	 $LN40@Init

; 214  : 		return FALSE;
; 215  : 
; 216  : // 
; 217  : 	m_hClose	= CreateEvent( NULL, FALSE, FALSE, NULL );

  00014	6a 00		 push	 0
  00016	6a 00		 push	 0
  00018	6a 00		 push	 0
  0001a	6a 00		 push	 0
  0001c	ff 15 00 00 00
	00		 call	 DWORD PTR __imp__CreateEventA@16
  00022	89 46 08	 mov	 DWORD PTR [esi+8], eax

; 218  : 	DWORD dwThreadId;
; 219  : 	m_hRunObject	= chBEGINTHREADEX( NULL, 0, _Run, (LPVOID)this, 0, &dwThreadId ); 

  00025	8d 45 fc	 lea	 eax, DWORD PTR _dwThreadId$[ebp]
  00028	50		 push	 eax
  00029	6a 00		 push	 0
  0002b	56		 push	 esi
  0002c	68 00 00 00 00	 push	 OFFSET ?_Run@CRunObject@@SAIPAX@Z ; CRunObject::_Run
  00031	6a 00		 push	 0
  00033	6a 00		 push	 0
  00035	e8 00 00 00 00	 call	 __beginthreadex
  0003a	89 46 04	 mov	 DWORD PTR [esi+4], eax
  0003d	83 c4 18	 add	 esp, 24			; 00000018H

; 231  : 	if( !g_DPSrvr.StartServer( (u_short)( g_uKey + PN_WORLDSRVR ), TRUE ) )

  00040	a1 00 00 00 00	 mov	 eax, DWORD PTR ?g_uKey@@3KA ; g_uKey
; File C:\IAGOS\server\v18\Source\Source\_Network\Net\Include\DPMng.h

; 157  : 		return( CreateDPObject( bSingleThreaded ) && 

  00045	b9 00 00 00 00	 mov	 ecx, OFFSET ?g_DPSrvr@@3VCDPSrvr@@A ; g_DPSrvr
; File C:\IAGOS\server\v18\Source\Source\WorldServer\ThreadMng.cpp

; 231  : 	if( !g_DPSrvr.StartServer( (u_short)( g_uKey + PN_WORLDSRVR ), TRUE ) )

  0004a	05 d0 07 00 00	 add	 eax, 2000		; 000007d0H
  0004f	0f b7 f0	 movzx	 esi, ax
; File C:\IAGOS\server\v18\Source\Source\_Network\Net\Include\DPMng.h

; 157  : 		return( CreateDPObject( bSingleThreaded ) && 

  00052	6a 01		 push	 1
  00054	e8 00 00 00 00	 call	 ?CreateDPObject@CDPMng@@QAEHH@Z ; CDPMng::CreateDPObject
  00059	85 c0		 test	 eax, eax
  0005b	0f 84 b0 01 00
	00		 je	 $LN23@Init
  00061	56		 push	 esi
  00062	6a 00		 push	 0
  00064	b9 00 00 00 00	 mov	 ecx, OFFSET ?g_DPSrvr@@3VCDPSrvr@@A ; g_DPSrvr
  00069	e8 00 00 00 00	 call	 ?InitConnection@CDPMng@@QAEHPAXG@Z ; CDPMng::InitConnection
  0006e	85 c0		 test	 eax, eax
  00070	0f 84 9b 01 00
	00		 je	 $LN23@Init
  00076	6a 00		 push	 0
  00078	6a 00		 push	 0
  0007a	b9 00 00 00 00	 mov	 ecx, OFFSET ?g_DPSrvr@@3VCDPSrvr@@A ; g_DPSrvr
  0007f	e8 00 00 00 00	 call	 ?CreateSession@CDPMng@@QAEHPBDW4BUFFER_TYPE@@@Z ; CDPMng::CreateSession
  00084	85 c0		 test	 eax, eax
  00086	0f 84 85 01 00
	00		 je	 $LN23@Init
; File C:\IAGOS\server\v18\Source\Source\WorldServer\ThreadMng.cpp

; 236  : 	if( !g_DPCoreClient.Run( g_szCoreAddr, PN_CORESRVR + 0, g_uKey ) )

  0008c	ff 35 00 00 00
	00		 push	 DWORD PTR ?g_uKey@@3KA	; g_uKey
  00092	b9 00 00 00 00	 mov	 ecx, OFFSET ?g_DPCoreClient@@3VCDPCoreClient@@A ; g_DPCoreClient
  00097	68 a0 0f 00 00	 push	 4000			; 00000fa0H
  0009c	68 00 00 00 00	 push	 OFFSET ?g_szCoreAddr@@3PADA ; g_szCoreAddr
  000a1	e8 00 00 00 00	 call	 ?Run@CDPCoreClient@@QAEHPADGK@Z ; CDPCoreClient::Run
  000a6	85 c0		 test	 eax, eax
  000a8	75 12		 jne	 SHORT $LN4@Init

; 237  : 	{
; 238  : 		OutputDebugString( "Can't connect to core server." );

  000aa	68 00 00 00 00	 push	 OFFSET ??_C@_0BO@HPOEDEBL@Can?8t?5connect?5to?5core?5server?4@

; 294  : }

  000af	ff 15 00 00 00
	00		 call	 DWORD PTR __imp__OutputDebugStringA@4
  000b5	33 c0		 xor	 eax, eax
  000b7	5e		 pop	 esi
  000b8	8b e5		 mov	 esp, ebp
  000ba	5d		 pop	 ebp
  000bb	c3		 ret	 0
$LN4@Init:
; File C:\IAGOS\server\v18\Source\Source\_Network\Net\Include\DPMng.h

; 163  : 		return( CreateDPObject( bSingleThreaded ) && 

  000bc	6a 01		 push	 1
  000be	b9 00 00 00 00	 mov	 ecx, OFFSET ?g_dpDBClient@@3VCDPDatabaseClient@@A ; g_dpDBClient
  000c3	e8 00 00 00 00	 call	 ?CreateDPObject@CDPMng@@QAEHH@Z ; CDPMng::CreateDPObject
  000c8	85 c0		 test	 eax, eax
  000ca	0f 84 2f 01 00
	00		 je	 $LN22@Init
  000d0	68 c0 5d 00 00	 push	 24000			; 00005dc0H
  000d5	68 00 00 00 00	 push	 OFFSET ?g_szDBAddr@@3PADA ; g_szDBAddr
  000da	b9 00 00 00 00	 mov	 ecx, OFFSET ?g_dpDBClient@@3VCDPDatabaseClient@@A ; g_dpDBClient
  000df	e8 00 00 00 00	 call	 ?InitConnection@CDPMng@@QAEHPAXG@Z ; CDPMng::InitConnection
  000e4	85 c0		 test	 eax, eax
  000e6	0f 84 13 01 00
	00		 je	 $LN22@Init
  000ec	6a 00		 push	 0
  000ee	6a 00		 push	 0
  000f0	b9 00 00 00 00	 mov	 ecx, OFFSET ?g_dpDBClient@@3VCDPDatabaseClient@@A ; g_dpDBClient
  000f5	e8 00 00 00 00	 call	 ?JoinSession@CDPMng@@QAEHPBDW4BUFFER_TYPE@@@Z ; CDPMng::JoinSession
  000fa	85 c0		 test	 eax, eax
  000fc	0f 84 fd 00 00
	00		 je	 $LN22@Init
; File C:\IAGOS\server\v18\Source\Source\WorldServer\ThreadMng.cpp

; 246  : 	if ( g_eLocal.GetState( ENABLE_GUILD_INVENTORY ) )

  00102	6a 02		 push	 2
  00104	b9 00 00 00 00	 mov	 ecx, OFFSET ?g_eLocal@@3VCFlyffEvent@@A ; g_eLocal
  00109	e8 00 00 00 00	 call	 ?GetState@CFlyffEvent@@QAEEH@Z ; CFlyffEvent::GetState
  0010e	84 c0		 test	 al, al
  00110	74 0a		 je	 SHORT $LN6@Init

; 247  : 		g_dpDBClient.SendQueryGuildBank();

  00112	b9 00 00 00 00	 mov	 ecx, OFFSET ?g_dpDBClient@@3VCDPDatabaseClient@@A ; g_dpDBClient
  00117	e8 00 00 00 00	 call	 ?SendQueryGuildBank@CDPDatabaseClient@@QAEXXZ ; CDPDatabaseClient::SendQueryGuildBank
$LN6@Init:

; 248  : 	if( g_eLocal.GetState( EVE_WORMON ) )

  0011c	6a 09		 push	 9
  0011e	b9 00 00 00 00	 mov	 ecx, OFFSET ?g_eLocal@@3VCFlyffEvent@@A ; g_eLocal
  00123	e8 00 00 00 00	 call	 ?GetState@CFlyffEvent@@QAEEH@Z ; CFlyffEvent::GetState
  00128	84 c0		 test	 al, al
  0012a	74 0a		 je	 SHORT $LN7@Init

; 249  : 		g_dpDBClient.SendQueryGuildQuest();

  0012c	b9 00 00 00 00	 mov	 ecx, OFFSET ?g_dpDBClient@@3VCDPDatabaseClient@@A ; g_dpDBClient
  00131	e8 00 00 00 00	 call	 ?SendQueryGuildQuest@CDPDatabaseClient@@QAEXXZ ; CDPDatabaseClient::SendQueryGuildQuest
$LN7@Init:

; 250  : 
; 251  : #if __VER >= 13 // __RAINBOW_RACE
; 252  : 	if( g_eLocal.GetState( EVE_RAINBOWRACE ) )

  00136	6a 19		 push	 25			; 00000019H
  00138	b9 00 00 00 00	 mov	 ecx, OFFSET ?g_eLocal@@3VCFlyffEvent@@A ; g_eLocal
  0013d	e8 00 00 00 00	 call	 ?GetState@CFlyffEvent@@QAEEH@Z ; CFlyffEvent::GetState
  00142	84 c0		 test	 al, al
  00144	74 0a		 je	 SHORT $LN8@Init

; 253  : 		g_dpDBClient.SendRainbowRaceReqLoad();

  00146	b9 00 00 00 00	 mov	 ecx, OFFSET ?g_dpDBClient@@3VCDPDatabaseClient@@A ; g_dpDBClient
  0014b	e8 00 00 00 00	 call	 ?SendRainbowRaceReqLoad@CDPDatabaseClient@@QAEXXZ ; CDPDatabaseClient::SendRainbowRaceReqLoad
$LN8@Init:

; 254  : #endif // __RAINBOW_RACE
; 255  : 
; 256  : #ifdef __INVALID_LOGIN_0320
; 257  : 	g_dpDBClient.CalluspXXXMultiServer( g_uIdofMulti, NULL );

  00150	6a 00		 push	 0
  00152	ff 35 00 00 00
	00		 push	 DWORD PTR ?g_uIdofMulti@@3KA ; g_uIdofMulti
  00158	b9 00 00 00 00	 mov	 ecx, OFFSET ?g_dpDBClient@@3VCDPDatabaseClient@@A ; g_dpDBClient
  0015d	e8 00 00 00 00	 call	 ?CalluspXXXMultiServer@CDPDatabaseClient@@QAEXKPAVCUser@@@Z ; CDPDatabaseClient::CalluspXXXMultiServer

; 258  : #else	// __INVALID_LOGIN_0320
; 259  : 	g_dpDBClient.CalluspXXXMultiServer( g_uIdofMulti, 0 );
; 260  : #endif	// __INVALID_LOGIN_0320
; 261  : 	if( !CXMasEvent::GetInstance()->LoadScript( "spevent.txt" ) )

  00162	68 00 00 00 00	 push	 OFFSET ??_C@_0M@MFIHLIAI@spevent?4txt@
  00167	e8 00 00 00 00	 call	 ?GetInstance@CXMasEvent@@SAPAV1@XZ ; CXMasEvent::GetInstance
  0016c	8b c8		 mov	 ecx, eax
  0016e	e8 00 00 00 00	 call	 ?LoadScript@CXMasEvent@@QAEHPBD@Z ; CXMasEvent::LoadScript
  00173	85 c0		 test	 eax, eax
  00175	75 12		 jne	 SHORT $LN9@Init

; 262  : 	{
; 263  : 		OutputDebugString( "can't read spevent.txt" );

  00177	68 00 00 00 00	 push	 OFFSET ??_C@_0BH@EBCFPOHO@can?8t?5read?5spevent?4txt@

; 294  : }

  0017c	ff 15 00 00 00
	00		 call	 DWORD PTR __imp__OutputDebugStringA@4
  00182	33 c0		 xor	 eax, eax
  00184	5e		 pop	 esi
  00185	8b e5		 mov	 esp, ebp
  00187	5d		 pop	 ebp
  00188	c3		 ret	 0
$LN9@Init:

; 264  : 		return FALSE;
; 265  : 	}
; 266  : 	if( g_eLocal.GetState( EVE_SCHOOL ) )

  00189	6a 04		 push	 4
  0018b	b9 00 00 00 00	 mov	 ecx, OFFSET ?g_eLocal@@3VCFlyffEvent@@A ; g_eLocal
  00190	e8 00 00 00 00	 call	 ?GetState@CFlyffEvent@@QAEEH@Z ; CFlyffEvent::GetState
  00195	84 c0		 test	 al, al
  00197	74 27		 je	 SHORT $LN11@Init

; 267  : 	{
; 268  : #ifdef __IDC
; 269  : 		if( !CEveSchool::GetInstance()->LoadPos( "..\\script\\school.txt" ) )	//

  00199	68 00 00 00 00	 push	 OFFSET ??_C@_0BF@LLIGDGAK@?4?4?2script?2school?4txt@
  0019e	e8 00 00 00 00	 call	 ?GetInstance@CEveSchool@@SAPAV1@XZ ; CEveSchool::GetInstance
  001a3	8b c8		 mov	 ecx, eax
  001a5	e8 00 00 00 00	 call	 ?LoadPos@CEveSchool@@QAEHPBD@Z ; CEveSchool::LoadPos
  001aa	85 c0		 test	 eax, eax
  001ac	75 12		 jne	 SHORT $LN11@Init

; 270  : #else	// __IDC
; 271  : 		if( !CEveSchool::GetInstance()->LoadPos( "school.txt" ) )
; 272  : #endif	// __IDC
; 273  : 		{
; 274  : 			OutputDebugString( "[CRITICAL] Missing File -> school.txt" );

  001ae	68 00 00 00 00	 push	 OFFSET ??_C@_0CG@IPNBNPAA@?$FLCRITICAL?$FN?5Missing?5File?5?9?$DO?5scho@

; 294  : }

  001b3	ff 15 00 00 00
	00		 call	 DWORD PTR __imp__OutputDebugStringA@4
  001b9	33 c0		 xor	 eax, eax
  001bb	5e		 pop	 esi
  001bc	8b e5		 mov	 esp, ebp
  001be	5d		 pop	 ebp
  001bf	c3		 ret	 0
$LN11@Init:

; 275  : 			return FALSE;
; 276  : 		}
; 277  : 	}
; 278  : 	if( g_eLocal.GetState( EVE_GUILDCOMBAT ) && !g_GuildCombatMng.LoadScript( "GuildCombat.txt" ) )

  001c0	6a 0f		 push	 15			; 0000000fH
  001c2	b9 00 00 00 00	 mov	 ecx, OFFSET ?g_eLocal@@3VCFlyffEvent@@A ; g_eLocal
  001c7	e8 00 00 00 00	 call	 ?GetState@CFlyffEvent@@QAEEH@Z ; CFlyffEvent::GetState
  001cc	84 c0		 test	 al, al
  001ce	74 25		 je	 SHORT $LN12@Init
  001d0	68 00 00 00 00	 push	 OFFSET ??_C@_0BA@OEFFAKN@GuildCombat?4txt@
  001d5	b9 00 00 00 00	 mov	 ecx, OFFSET ?g_GuildCombatMng@@3VCGuildCombat@@A ; g_GuildCombatMng
  001da	e8 00 00 00 00	 call	 ?LoadScript@CGuildCombat@@QAEHPBD@Z ; CGuildCombat::LoadScript
  001df	85 c0		 test	 eax, eax
  001e1	75 12		 jne	 SHORT $LN12@Init

; 279  : 	{
; 280  : 		OutputDebugString( "[CRITICAL] Missing File ->GuildCombat.txt" );

  001e3	68 00 00 00 00	 push	 OFFSET ??_C@_0CK@KFIOPGDF@?$FLCRITICAL?$FN?5Missing?5File?5?9?$DOGuild@

; 294  : }

  001e8	ff 15 00 00 00
	00		 call	 DWORD PTR __imp__OutputDebugStringA@4
  001ee	33 c0		 xor	 eax, eax
  001f0	5e		 pop	 esi
  001f1	8b e5		 mov	 esp, ebp
  001f3	5d		 pop	 ebp
  001f4	c3		 ret	 0
$LN12@Init:

; 281  : 		return FALSE;
; 282  : 	}
; 283  : #if __VER >= 12 // __ITEMCREATEMON_S0602
; 284  : #if __VER < 12 // __NEW_ITEMCREATEMON_SERVER
; 285  : 	if( !g_CreateMonster.LoadScript( "CreateMonster.txt" ) )
; 286  : 	{
; 287  : 		OutputDebugString( "[CRITICAL] Missing File -> CreateMonster.txt" );
; 288  : 		return FALSE;
; 289  : 	}
; 290  : #endif // __NEW_ITEMCREATEMON_SERVER
; 291  : #endif // __ITEMCREATEMON_S0602
; 292  : 
; 293  : 	return TRUE;

  001f5	b8 01 00 00 00	 mov	 eax, 1
  001fa	5e		 pop	 esi

; 294  : }

  001fb	8b e5		 mov	 esp, ebp
  001fd	5d		 pop	 ebp
  001fe	c3		 ret	 0
$LN22@Init:

; 239  : 		return FALSE;
; 240  : 	}
; 241  : 	if( !g_dpDBClient.ConnectToServer( g_szDBAddr, PN_DBSRVR_1, TRUE ) )
; 242  : 	{
; 243  : 		OutputDebugString( "Can't connect to database server." );

  001ff	68 00 00 00 00	 push	 OFFSET ??_C@_0CC@JPOGBINE@Can?8t?5connect?5to?5database?5serve@

; 294  : }

  00204	ff 15 00 00 00
	00		 call	 DWORD PTR __imp__OutputDebugStringA@4
  0020a	33 c0		 xor	 eax, eax
  0020c	5e		 pop	 esi
  0020d	8b e5		 mov	 esp, ebp
  0020f	5d		 pop	 ebp
  00210	c3		 ret	 0
$LN23@Init:

; 232  : 	{
; 233  : 		OutputDebugString( "Can't start server." );

  00211	68 00 00 00 00	 push	 OFFSET ??_C@_0BE@LKFKNEIN@Can?8t?5start?5server?4@

; 294  : }

  00216	ff 15 00 00 00
	00		 call	 DWORD PTR __imp__OutputDebugStringA@4
$LN40@Init:
  0021c	33 c0		 xor	 eax, eax
  0021e	5e		 pop	 esi
  0021f	8b e5		 mov	 esp, ebp
  00221	5d		 pop	 ebp
  00222	c3		 ret	 0
?Init@CRunObject@@QAEHXZ ENDP				; CRunObject::Init
_TEXT	ENDS
; Function compile flags: /Ogtp
; File C:\IAGOS\server\v18\Source\Source\WorldServer\ThreadMng.cpp
;	COMDAT ??1CRunObject@@UAE@XZ
_TEXT	SEGMENT
??1CRunObject@@UAE@XZ PROC				; CRunObject::~CRunObject, COMDAT
; _this$ = ecx

; 207  : {

  00000	c7 01 00 00 00
	00		 mov	 DWORD PTR [ecx], OFFSET ??_7CRunObject@@6B@

; 208  : 	Close();

  00006	e9 00 00 00 00	 jmp	 ?Close@CRunObject@@QAEXXZ ; CRunObject::Close
??1CRunObject@@UAE@XZ ENDP				; CRunObject::~CRunObject
_TEXT	ENDS
; Function compile flags: /Ogtp
; File C:\IAGOS\server\v18\Source\Source\WorldServer\ThreadMng.cpp
;	COMDAT ??0CRunObject@@QAE@XZ
_TEXT	SEGMENT
??0CRunObject@@QAE@XZ PROC				; CRunObject::CRunObject, COMDAT
; _this$ = ecx

; 201  : {

  00000	c7 01 00 00 00
	00		 mov	 DWORD PTR [ecx], OFFSET ??_7CRunObject@@6B@

; 202  : 	m_hRunObject	= (HANDLE)0;
; 203  : 	m_hClose	= (HANDLE)0;
; 204  : }

  00006	8b c1		 mov	 eax, ecx
  00008	c7 41 04 00 00
	00 00		 mov	 DWORD PTR [ecx+4], 0
  0000f	c7 41 08 00 00
	00 00		 mov	 DWORD PTR [ecx+8], 0
  00016	c3		 ret	 0
??0CRunObject@@QAE@XZ ENDP				; CRunObject::CRunObject
_TEXT	ENDS
; Function compile flags: /Ogtp
;	COMDAT ??_GCTimeout@@UAEPAXI@Z
_TEXT	SEGMENT
___flags$ = 8						; size = 4
??_GCTimeout@@UAEPAXI@Z PROC				; CTimeout::`scalar deleting destructor', COMDAT
; _this$ = ecx
  00000	55		 push	 ebp
  00001	8b ec		 mov	 ebp, esp
  00003	f6 45 08 01	 test	 BYTE PTR ___flags$[ebp], 1
  00007	56		 push	 esi
  00008	8b f1		 mov	 esi, ecx
  0000a	c7 06 00 00 00
	00		 mov	 DWORD PTR [esi], OFFSET ??_7CTimeout@@6B@
  00010	74 0b		 je	 SHORT $LN5@scalar
  00012	6a 10		 push	 16			; 00000010H
  00014	56		 push	 esi
  00015	e8 00 00 00 00	 call	 ??3@YAXPAXI@Z		; operator delete
  0001a	83 c4 08	 add	 esp, 8
$LN5@scalar:
  0001d	8b c6		 mov	 eax, esi
  0001f	5e		 pop	 esi
  00020	5d		 pop	 ebp
  00021	c2 04 00	 ret	 4
??_GCTimeout@@UAEPAXI@Z ENDP				; CTimeout::`scalar deleting destructor'
_TEXT	ENDS
; Function compile flags: /Ogtp
; File C:\IAGOS\server\v18\Source\Source\WorldServer\ThreadMng.cpp
;	COMDAT ?TimeoutReset@CTimeout@@QAEHK@Z
_TEXT	SEGMENT
_dwCurr$ = 8						; size = 4
?TimeoutReset@CTimeout@@QAEHK@Z PROC			; CTimeout::TimeoutReset, COMDAT
; _this$ = ecx

; 114  : {

  00000	55		 push	 ebp
  00001	8b ec		 mov	 ebp, esp
  00003	56		 push	 esi

; 115  : 	DWORD dwTimeout	= Over( dwCurr );

  00004	ff 75 08	 push	 DWORD PTR _dwCurr$[ebp]
  00007	8b f1		 mov	 esi, ecx
  00009	e8 00 00 00 00	 call	 ?Over@CTimeout@@QAEKK@Z	; CTimeout::Over

; 116  : 	if( dwTimeout > 0 )

  0000e	85 c0		 test	 eax, eax
  00010	74 15		 je	 SHORT $LN2@TimeoutRes

; 117  : 	{
; 118  : 		Reset( dwCurr, dwTimeout );

  00012	50		 push	 eax
  00013	ff 75 08	 push	 DWORD PTR _dwCurr$[ebp]
  00016	8b ce		 mov	 ecx, esi
  00018	e8 00 00 00 00	 call	 ?Reset@CTimeout@@QAEXKK@Z ; CTimeout::Reset

; 119  : 		return TRUE; 

  0001d	b8 01 00 00 00	 mov	 eax, 1
  00022	5e		 pop	 esi

; 122  : }

  00023	5d		 pop	 ebp
  00024	c2 04 00	 ret	 4
$LN2@TimeoutRes:

; 120  : 	}
; 121  : 	return FALSE;

  00027	33 c0		 xor	 eax, eax
  00029	5e		 pop	 esi

; 122  : }

  0002a	5d		 pop	 ebp
  0002b	c2 04 00	 ret	 4
?TimeoutReset@CTimeout@@QAEHK@Z ENDP			; CTimeout::TimeoutReset
_TEXT	ENDS
; Function compile flags: /Ogtp
; File C:\IAGOS\server\v18\Source\Source\WorldServer\ThreadMng.cpp
;	COMDAT ?Reset@CTimeout@@QAEXKK@Z
_TEXT	SEGMENT
_dwCurr$ = 8						; size = 4
_dwTimeout$ = 12					; size = 4
?Reset@CTimeout@@QAEXKK@Z PROC				; CTimeout::Reset, COMDAT
; _this$ = ecx

; 107  : {

  00000	55		 push	 ebp
  00001	8b ec		 mov	 ebp, esp

; 108  : 	if( dwTimeout > m_dwInterval )

  00003	8b 41 0c	 mov	 eax, DWORD PTR [ecx+12]
  00006	8b 55 0c	 mov	 edx, DWORD PTR _dwTimeout$[ebp]
  00009	3b d0		 cmp	 edx, eax
  0000b	76 0a		 jbe	 SHORT $LN2@Reset

; 109  : 		m_endTime	= dwCurr;

  0000d	8b 45 08	 mov	 eax, DWORD PTR _dwCurr$[ebp]

; 112  : }

  00010	89 41 08	 mov	 DWORD PTR [ecx+8], eax
  00013	5d		 pop	 ebp
  00014	c2 08 00	 ret	 8
$LN2@Reset:

; 110  : 	else
; 111  : 		m_endTime	= dwCurr + ( m_dwInterval - dwTimeout );

  00017	2b c2		 sub	 eax, edx
  00019	03 45 08	 add	 eax, DWORD PTR _dwCurr$[ebp]

; 112  : }

  0001c	89 41 08	 mov	 DWORD PTR [ecx+8], eax
  0001f	5d		 pop	 ebp
  00020	c2 08 00	 ret	 8
?Reset@CTimeout@@QAEXKK@Z ENDP				; CTimeout::Reset
_TEXT	ENDS
; Function compile flags: /Ogtp
; File C:\IAGOS\server\v18\Source\Source\WorldServer\ThreadMng.cpp
;	COMDAT ?Over@CTimeout@@QAEKK@Z
_TEXT	SEGMENT
_dwCurr$ = 8						; size = 4
?Over@CTimeout@@QAEKK@Z PROC				; CTimeout::Over, COMDAT
; _this$ = ecx

; 101  : {

  00000	55		 push	 ebp
  00001	8b ec		 mov	 ebp, esp

; 102  : 	if( dwCurr > m_endTime )

  00003	8b 49 08	 mov	 ecx, DWORD PTR [ecx+8]
  00006	8b 55 08	 mov	 edx, DWORD PTR _dwCurr$[ebp]
  00009	2b d1		 sub	 edx, ecx
  0000b	3b 4d 08	 cmp	 ecx, DWORD PTR _dwCurr$[ebp]
  0000e	1b c0		 sbb	 eax, eax
  00010	23 c2		 and	 eax, edx

; 103  : 		return ( dwCurr - m_endTime );
; 104  : 	return 0;
; 105  : }

  00012	5d		 pop	 ebp
  00013	c2 04 00	 ret	 4
?Over@CTimeout@@QAEKK@Z ENDP				; CTimeout::Over
_TEXT	ENDS
; Function compile flags: /Ogtp
; File C:\IAGOS\server\v18\Source\Source\WorldServer\ThreadMng.h
;	COMDAT ??1CTimeout@@UAE@XZ
_TEXT	SEGMENT
??1CTimeout@@UAE@XZ PROC				; CTimeout::~CTimeout, COMDAT
; _this$ = ecx

; 12   : 	virtual	~CTimeout()	{}

  00000	c7 01 00 00 00
	00		 mov	 DWORD PTR [ecx], OFFSET ??_7CTimeout@@6B@
  00006	c3		 ret	 0
??1CTimeout@@UAE@XZ ENDP				; CTimeout::~CTimeout
_TEXT	ENDS
; Function compile flags: /Ogtp
; File C:\IAGOS\server\v18\Source\Source\WorldServer\ThreadMng.cpp
;	COMDAT ??0CTimeout@@QAE@KK@Z
_TEXT	SEGMENT
_dwInterval$ = 8					; size = 4
_dwFirstTimeout$ = 12					; size = 4
??0CTimeout@@QAE@KK@Z PROC				; CTimeout::CTimeout, COMDAT
; _this$ = ecx

; 95   : {

  00000	55		 push	 ebp
  00001	8b ec		 mov	 ebp, esp

; 96   : 	m_dwInterval		= dwInterval;

  00003	8b 45 08	 mov	 eax, DWORD PTR _dwInterval$[ebp]
  00006	56		 push	 esi
  00007	8b f1		 mov	 esi, ecx
  00009	c7 06 00 00 00
	00		 mov	 DWORD PTR [esi], OFFSET ??_7CTimeout@@6B@
  0000f	89 46 0c	 mov	 DWORD PTR [esi+12], eax

; 97   : 	m_endTime	= timeGetTime() + dwFirstTimeout;

  00012	ff 15 00 00 00
	00		 call	 DWORD PTR __imp__timeGetTime@0
  00018	03 45 0c	 add	 eax, DWORD PTR _dwFirstTimeout$[ebp]
  0001b	89 46 08	 mov	 DWORD PTR [esi+8], eax

; 98   : }

  0001e	8b c6		 mov	 eax, esi
  00020	5e		 pop	 esi
  00021	5d		 pop	 ebp
  00022	c2 08 00	 ret	 8
??0CTimeout@@QAE@KK@Z ENDP				; CTimeout::CTimeout
_TEXT	ENDS
; Function compile flags: /Ogtp
; File C:\Program Files (x86)\Windows Kits\10\Include\10.0.26100.0\ucrt\stdio.h
;	COMDAT _sprintf
_TEXT	SEGMENT
__Buffer$ = 8						; size = 4
__Format$ = 12						; size = 4
_sprintf PROC						; COMDAT

; 1771 :     {

  00000	55		 push	 ebp
  00001	8b ec		 mov	 ebp, esp

; 1392 :         int const _Result = __stdio_common_vsprintf(

  00003	8d 45 10	 lea	 eax, DWORD PTR __Format$[ebp+4]
  00006	50		 push	 eax
  00007	6a 00		 push	 0
  00009	ff 75 0c	 push	 DWORD PTR __Format$[ebp]
  0000c	6a ff		 push	 -1
  0000e	ff 75 08	 push	 DWORD PTR __Buffer$[ebp]
  00011	e8 00 00 00 00	 call	 ___local_stdio_printf_options
  00016	8b 08		 mov	 ecx, DWORD PTR [eax]
  00018	ff 70 04	 push	 DWORD PTR [eax+4]
  0001b	83 c9 01	 or	 ecx, 1
  0001e	51		 push	 ecx
  0001f	e8 00 00 00 00	 call	 ___stdio_common_vsprintf

; 1393 :             _CRT_INTERNAL_LOCAL_PRINTF_OPTIONS | _CRT_INTERNAL_PRINTF_LEGACY_VSPRINTF_NULL_TERMINATION,
; 1394 :             _Buffer, _BufferCount, _Format, _Locale, _ArgList);
; 1395 : 
; 1396 :         return _Result < 0 ? -1 : _Result;

  00024	83 c9 ff	 or	 ecx, -1
  00027	83 c4 1c	 add	 esp, 28			; 0000001cH
  0002a	85 c0		 test	 eax, eax
  0002c	0f 48 c1	 cmovs	 eax, ecx

; 1772 :         int _Result;
; 1773 :         va_list _ArgList;
; 1774 :         __crt_va_start(_ArgList, _Format);
; 1775 : 
; 1776 :         _Result = _vsprintf_l(_Buffer, _Format, NULL, _ArgList);
; 1777 : 
; 1778 :         __crt_va_end(_ArgList);
; 1779 :         return _Result;
; 1780 :     }

  0002f	5d		 pop	 ebp
  00030	c3		 ret	 0
_sprintf ENDP
_TEXT	ENDS
; Function compile flags: /Ogtp
; File C:\Program Files (x86)\Windows Kits\10\Include\10.0.26100.0\ucrt\corecrt_stdio_config.h
;	COMDAT ___local_stdio_printf_options
_TEXT	SEGMENT
___local_stdio_printf_options PROC			; COMDAT

; 91   :         static unsigned __int64 _OptionsStorage;
; 92   :         return &_OptionsStorage;

  00000	b8 00 00 00 00	 mov	 eax, OFFSET ?_OptionsStorage@?1??__local_stdio_printf_options@@9@4_KA ; `__local_stdio_printf_options'::`2'::_OptionsStorage

; 93   :     }

  00005	c3		 ret	 0
___local_stdio_printf_options ENDP
_TEXT	ENDS
; Function compile flags: /Ogtp
; File C:\IAGOS\server\v18\Source\Source\WorldServer\ThreadMng.cpp
;	COMDAT ?__empty_global_delete@@YAXPAXI@Z
_TEXT	SEGMENT
___formal$ = 8						; size = 4
___formal$ = 12						; size = 4
?__empty_global_delete@@YAXPAXI@Z PROC			; __empty_global_delete, COMDAT

  00000	c2 00 00	 ret	 0
?__empty_global_delete@@YAXPAXI@Z ENDP			; __empty_global_delete
_TEXT	ENDS
; Function compile flags: /Ogtp
; File C:\IAGOS\server\v18\Source\Source\WorldServer\ThreadMng.cpp
;	COMDAT ?__empty_global_delete@@YAXPAX@Z
_TEXT	SEGMENT
___formal$ = 8						; size = 4
?__empty_global_delete@@YAXPAX@Z PROC			; __empty_global_delete, COMDAT

  00000	c2 00 00	 ret	 0
?__empty_global_delete@@YAXPAX@Z ENDP			; __empty_global_delete
_TEXT	ENDS
END
