; Listing generated by Microsoft (R) Optimizing Compiler Version 19.44.35225.0 

	TITLE	C:\IAGOS\server\v18\Source\Output\WorldServer\Release\tools.obj
	.686P
	.XMM
	include listing.inc
	.model	flat

INCLUDELIB LIBCMT
INCLUDELIB OLDNAMES

PUBLIC	?__empty_global_delete@@YAXPAX@Z		; __empty_global_delete
PUBLIC	?__empty_global_delete@@YAXPAXI@Z		; __empty_global_delete
PUBLIC	___local_stdio_printf_options
PUBLIC	_sprintf
PUBLIC	?md5@@YAXPADPBEK@Z				; md5
PUBLIC	?md5@@YAXPADPBD@Z				; md5
PUBLIC	?MakeTutorialStateString@@YAXPADHPBD@Z		; MakeTutorialStateString
PUBLIC	?_OptionsStorage@?1??__local_stdio_printf_options@@9@4_KA ; `__local_stdio_printf_options'::`2'::_OptionsStorage
PUBLIC	??_C@_04NOJCDH@?$CF02x@				; `string'
PUBLIC	??_C@_04HGGBINEM@?$CFs?$CFd@			; `string'
EXTRN	__imp__lstrlenA@4:PROC
EXTRN	___stdio_common_vsprintf:PROC
EXTRN	__imp__CryptAcquireContextA@20:PROC
EXTRN	__imp__CryptReleaseContext@8:PROC
EXTRN	__imp__CryptGetHashParam@20:PROC
EXTRN	__imp__CryptCreateHash@20:PROC
EXTRN	__imp__CryptHashData@16:PROC
EXTRN	__imp__CryptDestroyHash@4:PROC
EXTRN	@__security_check_cookie@4:PROC
EXTRN	_memset:PROC
EXTRN	___security_cookie:DWORD
;	COMDAT ?_OptionsStorage@?1??__local_stdio_printf_options@@9@4_KA
_BSS	SEGMENT
?_OptionsStorage@?1??__local_stdio_printf_options@@9@4_KA DQ 01H DUP (?) ; `__local_stdio_printf_options'::`2'::_OptionsStorage
_BSS	ENDS
;	COMDAT ??_C@_04HGGBINEM@?$CFs?$CFd@
CONST	SEGMENT
??_C@_04HGGBINEM@?$CFs?$CFd@ DB '%s%d', 00H		; `string'
CONST	ENDS
;	COMDAT ??_C@_04NOJCDH@?$CF02x@
CONST	SEGMENT
??_C@_04NOJCDH@?$CF02x@ DB '%02x', 00H			; `string'
CONST	ENDS
; Function compile flags: /Ogtp
; File C:\IAGOS\server\v18\Source\Source\_Network\tools.cpp
;	COMDAT ?MakeTutorialStateString@@YAXPADHPBD@Z
_TEXT	SEGMENT
_szIn$ = -132						; size = 128
__$ArrayPad$ = -4					; size = 4
_szOut$ = 8						; size = 4
_nState$ = 12						; size = 4
_szKey$ = 16						; size = 4
?MakeTutorialStateString@@YAXPADHPBD@Z PROC		; MakeTutorialStateString, COMDAT

; 47   : {

  00000	55		 push	 ebp
  00001	8b ec		 mov	 ebp, esp
  00003	81 ec 84 00 00
	00		 sub	 esp, 132		; 00000084H
  00009	a1 00 00 00 00	 mov	 eax, DWORD PTR ___security_cookie
  0000e	33 c5		 xor	 eax, ebp
  00010	89 45 fc	 mov	 DWORD PTR __$ArrayPad$[ebp], eax
  00013	56		 push	 esi
  00014	8b 75 10	 mov	 esi, DWORD PTR _szKey$[ebp]

; 48   : 	char szIn[128]	= { 0,};

  00017	8d 85 7c ff ff
	ff		 lea	 eax, DWORD PTR _szIn$[ebp]
  0001d	57		 push	 edi
  0001e	8b 7d 08	 mov	 edi, DWORD PTR _szOut$[ebp]
  00021	68 80 00 00 00	 push	 128			; 00000080H
  00026	6a 00		 push	 0
  00028	50		 push	 eax
  00029	e8 00 00 00 00	 call	 _memset

; 49   : 	sprintf( szIn, "%s%d", szKey, nState );

  0002e	ff 75 0c	 push	 DWORD PTR _nState$[ebp]
  00031	8d 85 7c ff ff
	ff		 lea	 eax, DWORD PTR _szIn$[ebp]
  00037	56		 push	 esi
  00038	68 00 00 00 00	 push	 OFFSET ??_C@_04HGGBINEM@?$CFs?$CFd@
  0003d	50		 push	 eax
  0003e	e8 00 00 00 00	 call	 _sprintf

; 50   : 	md5( szOut, szIn );

  00043	8d 85 7c ff ff
	ff		 lea	 eax, DWORD PTR _szIn$[ebp]
  00049	50		 push	 eax
  0004a	57		 push	 edi
  0004b	e8 00 00 00 00	 call	 ?md5@@YAXPADPBD@Z	; md5

; 51   : }

  00050	8b 4d fc	 mov	 ecx, DWORD PTR __$ArrayPad$[ebp]
  00053	83 c4 24	 add	 esp, 36			; 00000024H
  00056	33 cd		 xor	 ecx, ebp
  00058	5f		 pop	 edi
  00059	5e		 pop	 esi
  0005a	e8 00 00 00 00	 call	 @__security_check_cookie@4
  0005f	8b e5		 mov	 esp, ebp
  00061	5d		 pop	 ebp
  00062	c3		 ret	 0
?MakeTutorialStateString@@YAXPADHPBD@Z ENDP		; MakeTutorialStateString
_TEXT	ENDS
; Function compile flags: /Ogtp
; File C:\IAGOS\server\v18\Source\Source\_Network\tools.cpp
;	COMDAT ?md5@@YAXPADPBD@Z
_TEXT	SEGMENT
_out$ = 8						; size = 4
_in$ = 12						; size = 4
?md5@@YAXPADPBD@Z PROC					; md5, COMDAT

; 40   : {

  00000	55		 push	 ebp
  00001	8b ec		 mov	 ebp, esp

; 41   : 	DWORD cbContent		= lstrlen( in );

  00003	ff 75 0c	 push	 DWORD PTR _in$[ebp]
  00006	ff 15 00 00 00
	00		 call	 DWORD PTR __imp__lstrlenA@4

; 42   : 	BYTE* pbContent	= (BYTE*)in;
; 43   : 	md5( out, pbContent, cbContent );

  0000c	50		 push	 eax
  0000d	ff 75 0c	 push	 DWORD PTR _in$[ebp]
  00010	ff 75 08	 push	 DWORD PTR _out$[ebp]
  00013	e8 00 00 00 00	 call	 ?md5@@YAXPADPBEK@Z	; md5
  00018	83 c4 0c	 add	 esp, 12			; 0000000cH

; 44   : }

  0001b	5d		 pop	 ebp
  0001c	c3		 ret	 0
?md5@@YAXPADPBD@Z ENDP					; md5
_TEXT	ENDS
; Function compile flags: /Ogtp
; File C:\IAGOS\server\v18\Source\Source\_Network\tools.cpp
;	COMDAT ?md5@@YAXPADPBEK@Z
_TEXT	SEGMENT
_out$GSCopy$1$ = -152					; size = 4
_tmp$1 = -148						; size = 4
_dwHashLen$ = -144					; size = 4
_hCryptProv$ = -140					; size = 4
_hHash$ = -136						; size = 4
_bHash$ = -132						; size = 127
__$ArrayPad$ = -4					; size = 4
_out$ = 8						; size = 4
_pbContent$ = 12					; size = 4
_cbContent$ = 16					; size = 4
?md5@@YAXPADPBEK@Z PROC					; md5, COMDAT

; 6    : {

  00000	55		 push	 ebp
  00001	8b ec		 mov	 ebp, esp
  00003	81 ec 98 00 00
	00		 sub	 esp, 152		; 00000098H
  00009	a1 00 00 00 00	 mov	 eax, DWORD PTR ___security_cookie
  0000e	33 c5		 xor	 eax, ebp
  00010	89 45 fc	 mov	 DWORD PTR __$ArrayPad$[ebp], eax
  00013	56		 push	 esi
  00014	8b 75 0c	 mov	 esi, DWORD PTR _pbContent$[ebp]

; 7    : 	HCRYPTPROV hCryptProv;
; 8    : 	HCRYPTHASH hHash;
; 9    : 	BYTE bHash[0x7f];
; 10   : 	DWORD dwHashLen	= 16;	// The MD5 algorithm always returns 16 bytes.
; 11   : 	*out	= '\0';
; 12   : 	
; 13   : 	if( CryptAcquireContext( &hCryptProv, 

  00017	8d 85 74 ff ff
	ff		 lea	 eax, DWORD PTR _hCryptProv$[ebp]
  0001d	57		 push	 edi
  0001e	8b 7d 08	 mov	 edi, DWORD PTR _out$[ebp]
  00021	68 20 00 00 f0	 push	 -268435424		; f0000020H
  00026	6a 01		 push	 1
  00028	6a 00		 push	 0
  0002a	6a 00		 push	 0
  0002c	50		 push	 eax
  0002d	89 bd 68 ff ff
	ff		 mov	 DWORD PTR _out$GSCopy$1$[ebp], edi
  00033	c7 85 70 ff ff
	ff 10 00 00 00	 mov	 DWORD PTR _dwHashLen$[ebp], 16 ; 00000010H
  0003d	c6 07 00	 mov	 BYTE PTR [edi], 0
  00040	ff 15 00 00 00
	00		 call	 DWORD PTR __imp__CryptAcquireContextA@20
  00046	85 c0		 test	 eax, eax
  00048	0f 84 b5 00 00
	00		 je	 $LN3@md5

; 14   : 		NULL, NULL, PROV_RSA_FULL, CRYPT_VERIFYCONTEXT | CRYPT_MACHINE_KEYSET ) )
; 15   : 	{
; 16   : 		if( CryptCreateHash( hCryptProv,

  0004e	8d 85 78 ff ff
	ff		 lea	 eax, DWORD PTR _hHash$[ebp]
  00054	50		 push	 eax
  00055	6a 00		 push	 0
  00057	6a 00		 push	 0
  00059	68 03 80 00 00	 push	 32771			; 00008003H
  0005e	ff b5 74 ff ff
	ff		 push	 DWORD PTR _hCryptProv$[ebp]
  00064	ff 15 00 00 00
	00		 call	 DWORD PTR __imp__CryptCreateHash@20
  0006a	85 c0		 test	 eax, eax
  0006c	0f 84 91 00 00
	00		 je	 $LN3@md5

; 17   : 			CALG_MD5,	// algorithm identifier definitions see: wincrypt.h
; 18   : 			0, 0, &hHash ) )
; 19   : 		{
; 20   : 			if( CryptHashData( hHash, pbContent, cbContent, 0 ) )

  00072	6a 00		 push	 0
  00074	ff 75 10	 push	 DWORD PTR _cbContent$[ebp]
  00077	56		 push	 esi
  00078	ff b5 78 ff ff
	ff		 push	 DWORD PTR _hHash$[ebp]
  0007e	ff 15 00 00 00
	00		 call	 DWORD PTR __imp__CryptHashData@16
  00084	85 c0		 test	 eax, eax
  00086	0f 84 77 00 00
	00		 je	 $LN3@md5

; 21   : 			{
; 22   : 				if( CryptGetHashParam( hHash, HP_HASHVAL, bHash, &dwHashLen, 0 ) )

  0008c	6a 00		 push	 0
  0008e	8d 85 70 ff ff
	ff		 lea	 eax, DWORD PTR _dwHashLen$[ebp]
  00094	50		 push	 eax
  00095	8d 85 7c ff ff
	ff		 lea	 eax, DWORD PTR _bHash$[ebp]
  0009b	50		 push	 eax
  0009c	6a 02		 push	 2
  0009e	ff b5 78 ff ff
	ff		 push	 DWORD PTR _hHash$[ebp]
  000a4	ff 15 00 00 00
	00		 call	 DWORD PTR __imp__CryptGetHashParam@20
  000aa	85 c0		 test	 eax, eax
  000ac	74 55		 je	 SHORT $LN3@md5

; 23   : 				{
; 24   : 					// Make a string version of the numeric digest value
; 25   : 					char tmp[4];
; 26   : 					for( int i = 0; i < 16; i++ )

  000ae	53		 push	 ebx
  000af	33 db		 xor	 ebx, ebx
$LL4@md5:

; 27   : 					{
; 28   : 						sprintf( tmp, "%02x", bHash[i] );

  000b1	0f b6 84 1d 7c
	ff ff ff	 movzx	 eax, BYTE PTR _bHash$[ebp+ebx]
  000b9	50		 push	 eax
  000ba	8d 85 6c ff ff
	ff		 lea	 eax, DWORD PTR _tmp$1[ebp]
  000c0	68 00 00 00 00	 push	 OFFSET ??_C@_04NOJCDH@?$CF02x@
  000c5	50		 push	 eax
  000c6	e8 00 00 00 00	 call	 _sprintf

; 29   : 						strcat( out, tmp );

  000cb	8d 85 6c ff ff
	ff		 lea	 eax, DWORD PTR _tmp$1[ebp]
  000d1	83 c4 0c	 add	 esp, 12			; 0000000cH
  000d4	8b f0		 mov	 esi, eax
$LL14@md5:
  000d6	8a 08		 mov	 cl, BYTE PTR [eax]
  000d8	40		 inc	 eax
  000d9	84 c9		 test	 cl, cl
  000db	75 f9		 jne	 SHORT $LL14@md5
  000dd	2b c6		 sub	 eax, esi
  000df	4f		 dec	 edi
$LL15@md5:
  000e0	8a 4f 01	 mov	 cl, BYTE PTR [edi+1]
  000e3	47		 inc	 edi
  000e4	84 c9		 test	 cl, cl
  000e6	75 f8		 jne	 SHORT $LL15@md5
  000e8	8b c8		 mov	 ecx, eax
  000ea	43		 inc	 ebx
  000eb	c1 e9 02	 shr	 ecx, 2
  000ee	f3 a5		 rep movsd
  000f0	8b c8		 mov	 ecx, eax
  000f2	83 e1 03	 and	 ecx, 3
  000f5	f3 a4		 rep movsb
  000f7	8b bd 68 ff ff
	ff		 mov	 edi, DWORD PTR _out$GSCopy$1$[ebp]
  000fd	83 fb 10	 cmp	 ebx, 16			; 00000010H
  00100	7c af		 jl	 SHORT $LL4@md5

; 23   : 				{
; 24   : 					// Make a string version of the numeric digest value
; 25   : 					char tmp[4];
; 26   : 					for( int i = 0; i < 16; i++ )

  00102	5b		 pop	 ebx
$LN3@md5:

; 30   : 					}
; 31   : 				}
; 32   : 			}
; 33   : 		}
; 34   :     }
; 35   : 	CryptDestroyHash( hHash );

  00103	ff b5 78 ff ff
	ff		 push	 DWORD PTR _hHash$[ebp]
  00109	ff 15 00 00 00
	00		 call	 DWORD PTR __imp__CryptDestroyHash@4

; 36   : 	CryptReleaseContext( hCryptProv, 0 );

  0010f	6a 00		 push	 0
  00111	ff b5 74 ff ff
	ff		 push	 DWORD PTR _hCryptProv$[ebp]
  00117	ff 15 00 00 00
	00		 call	 DWORD PTR __imp__CryptReleaseContext@8

; 37   : }

  0011d	8b 4d fc	 mov	 ecx, DWORD PTR __$ArrayPad$[ebp]
  00120	5f		 pop	 edi
  00121	33 cd		 xor	 ecx, ebp
  00123	5e		 pop	 esi
  00124	e8 00 00 00 00	 call	 @__security_check_cookie@4
  00129	8b e5		 mov	 esp, ebp
  0012b	5d		 pop	 ebp
  0012c	c3		 ret	 0
?md5@@YAXPADPBEK@Z ENDP					; md5
_TEXT	ENDS
; Function compile flags: /Ogtp
; File C:\Program Files (x86)\Windows Kits\10\Include\10.0.26100.0\ucrt\stdio.h
;	COMDAT _sprintf
_TEXT	SEGMENT
__Buffer$ = 8						; size = 4
__Format$ = 12						; size = 4
_sprintf PROC						; COMDAT

; 1771 :     {

  00000	55		 push	 ebp
  00001	8b ec		 mov	 ebp, esp

; 1392 :         int const _Result = __stdio_common_vsprintf(

  00003	8d 45 10	 lea	 eax, DWORD PTR __Format$[ebp+4]
  00006	50		 push	 eax
  00007	6a 00		 push	 0
  00009	ff 75 0c	 push	 DWORD PTR __Format$[ebp]
  0000c	6a ff		 push	 -1
  0000e	ff 75 08	 push	 DWORD PTR __Buffer$[ebp]
  00011	e8 00 00 00 00	 call	 ___local_stdio_printf_options
  00016	8b 08		 mov	 ecx, DWORD PTR [eax]
  00018	ff 70 04	 push	 DWORD PTR [eax+4]
  0001b	83 c9 01	 or	 ecx, 1
  0001e	51		 push	 ecx
  0001f	e8 00 00 00 00	 call	 ___stdio_common_vsprintf

; 1393 :             _CRT_INTERNAL_LOCAL_PRINTF_OPTIONS | _CRT_INTERNAL_PRINTF_LEGACY_VSPRINTF_NULL_TERMINATION,
; 1394 :             _Buffer, _BufferCount, _Format, _Locale, _ArgList);
; 1395 : 
; 1396 :         return _Result < 0 ? -1 : _Result;

  00024	83 c9 ff	 or	 ecx, -1
  00027	83 c4 1c	 add	 esp, 28			; 0000001cH
  0002a	85 c0		 test	 eax, eax
  0002c	0f 48 c1	 cmovs	 eax, ecx

; 1772 :         int _Result;
; 1773 :         va_list _ArgList;
; 1774 :         __crt_va_start(_ArgList, _Format);
; 1775 : 
; 1776 :         _Result = _vsprintf_l(_Buffer, _Format, NULL, _ArgList);
; 1777 : 
; 1778 :         __crt_va_end(_ArgList);
; 1779 :         return _Result;
; 1780 :     }

  0002f	5d		 pop	 ebp
  00030	c3		 ret	 0
_sprintf ENDP
_TEXT	ENDS
; Function compile flags: /Ogtp
; File C:\Program Files (x86)\Windows Kits\10\Include\10.0.26100.0\ucrt\corecrt_stdio_config.h
;	COMDAT ___local_stdio_printf_options
_TEXT	SEGMENT
___local_stdio_printf_options PROC			; COMDAT

; 91   :         static unsigned __int64 _OptionsStorage;
; 92   :         return &_OptionsStorage;

  00000	b8 00 00 00 00	 mov	 eax, OFFSET ?_OptionsStorage@?1??__local_stdio_printf_options@@9@4_KA ; `__local_stdio_printf_options'::`2'::_OptionsStorage

; 93   :     }

  00005	c3		 ret	 0
___local_stdio_printf_options ENDP
_TEXT	ENDS
; Function compile flags: /Ogtp
; File C:\IAGOS\server\v18\Source\Source\_Network\tools.cpp
;	COMDAT ?__empty_global_delete@@YAXPAXI@Z
_TEXT	SEGMENT
___formal$ = 8						; size = 4
___formal$ = 12						; size = 4
?__empty_global_delete@@YAXPAXI@Z PROC			; __empty_global_delete, COMDAT

  00000	c2 00 00	 ret	 0
?__empty_global_delete@@YAXPAXI@Z ENDP			; __empty_global_delete
_TEXT	ENDS
; Function compile flags: /Ogtp
; File C:\IAGOS\server\v18\Source\Source\_Network\tools.cpp
;	COMDAT ?__empty_global_delete@@YAXPAX@Z
_TEXT	SEGMENT
___formal$ = 8						; size = 4
?__empty_global_delete@@YAXPAX@Z PROC			; __empty_global_delete, COMDAT

  00000	c2 00 00	 ret	 0
?__empty_global_delete@@YAXPAX@Z ENDP			; __empty_global_delete
_TEXT	ENDS
END
