; Listing generated by Microsoft (R) Optimizing Compiler Version 19.44.35225.0 

	TITLE	C:\IAGOS\server\v18\Source\Output\WorldServer\Release\UltimateWeapon.obj
	.686P
	.XMM
	include listing.inc
	.model	flat

INCLUDELIB LIBCMT
INCLUDELIB OLDNAMES

CONST	SEGMENT
?piecewise_construct@std@@3Upiecewise_construct_t@1@B	ORG $+1 ; std::piecewise_construct
CONST	ENDS
PUBLIC	?__empty_global_delete@@YAXPAX@Z		; __empty_global_delete
PUBLIC	?__empty_global_delete@@YAXPAXI@Z		; __empty_global_delete
PUBLIC	?AtlThrowImpl@ATL@@YGXJ@Z			; ATL::AtlThrowImpl
PUBLIC	??1?$CSimpleStringT@D$0A@@ATL@@QAE@XZ		; ATL::CSimpleStringT<char,0>::~CSimpleStringT<char,0>
PUBLIC	?SetString@?$CSimpleStringT@D$0A@@ATL@@QAEXPBDH@Z ; ATL::CSimpleStringT<char,0>::SetString
PUBLIC	?ThrowMemoryException@?$CSimpleStringT@D$0A@@ATL@@KAXXZ ; ATL::CSimpleStringT<char,0>::ThrowMemoryException
PUBLIC	?Fork@?$CSimpleStringT@D$0A@@ATL@@AAEXH@Z	; ATL::CSimpleStringT<char,0>::Fork
PUBLIC	?PrepareWrite2@?$CSimpleStringT@D$0A@@ATL@@AAEXH@Z ; ATL::CSimpleStringT<char,0>::PrepareWrite2
PUBLIC	?Reallocate@?$CSimpleStringT@D$0A@@ATL@@AAEXH@Z	; ATL::CSimpleStringT<char,0>::Reallocate
PUBLIC	?CloneData@?$CSimpleStringT@D$0A@@ATL@@CAPAUCStringData@2@PAU32@@Z ; ATL::CSimpleStringT<char,0>::CloneData
PUBLIC	??1?$CStringT@DV?$StrTraitMFC@DV?$ChTraitsCRT@D@ATL@@@@@ATL@@QAE@XZ ; ATL::CStringT<char,StrTraitMFC<char,ATL::ChTraitsCRT<char> > >::~CStringT<char,StrTraitMFC<char,ATL::ChTraitsCRT<char> > >
PUBLIC	??4?$CStringT@DV?$StrTraitMFC@DV?$ChTraitsCRT@D@ATL@@@@@ATL@@QAEAAV01@ABV01@@Z ; ATL::CStringT<char,StrTraitMFC<char,ATL::ChTraitsCRT<char> > >::operator=
PUBLIC	?LoadStringA@?$CStringT@DV?$StrTraitMFC@DV?$ChTraitsCRT@D@ATL@@@@@ATL@@QAEHI@Z ; ATL::CStringT<char,StrTraitMFC<char,ATL::ChTraitsCRT<char> > >::LoadStringA
PUBLIC	??HATL@@YA?AV?$CStringT@DV?$StrTraitMFC@DV?$ChTraitsCRT@D@ATL@@@@@0@ABV10@PBD@Z ; ATL::operator+
PUBLIC	??0exception@std@@QAE@ABV01@@Z			; std::exception::exception
PUBLIC	??1exception@std@@UAE@XZ			; std::exception::~exception
PUBLIC	?what@exception@std@@UBEPBDXZ			; std::exception::what
PUBLIC	??_Gexception@std@@UAEPAXI@Z			; std::exception::`scalar deleting destructor'
PUBLIC	??0bad_alloc@std@@QAE@ABV01@@Z			; std::bad_alloc::bad_alloc
PUBLIC	??_Gbad_alloc@std@@UAEPAXI@Z			; std::bad_alloc::`scalar deleting destructor'
PUBLIC	??0bad_array_new_length@std@@QAE@XZ		; std::bad_array_new_length::bad_array_new_length
PUBLIC	??1bad_array_new_length@std@@UAE@XZ		; std::bad_array_new_length::~bad_array_new_length
PUBLIC	??0bad_array_new_length@std@@QAE@ABV01@@Z	; std::bad_array_new_length::bad_array_new_length
PUBLIC	??_Gbad_array_new_length@std@@UAEPAXI@Z		; std::bad_array_new_length::`scalar deleting destructor'
PUBLIC	?_Throw_bad_array_new_length@std@@YAXXZ		; std::_Throw_bad_array_new_length
PUBLIC	?_Throw_tree_length_error@std@@YAXXZ		; std::_Throw_tree_length_error
PUBLIC	??0_LogItemInfo@@QAE@XZ				; _LogItemInfo::_LogItemInfo
PUBLIC	?deallocate@?$allocator@H@std@@QAEXQAHI@Z	; std::allocator<int>::deallocate
PUBLIC	?_Buy_raw@?$vector@HV?$allocator@H@std@@@std@@AAEXI@Z ; std::vector<int,std::allocator<int> >::_Buy_raw
PUBLIC	?_Tidy@?$vector@HV?$allocator@H@std@@@std@@AAEXXZ ; std::vector<int,std::allocator<int> >::_Tidy
PUBLIC	?_Xlength@?$vector@HV?$allocator@H@std@@@std@@CAXXZ ; std::vector<int,std::allocator<int> >::_Xlength
PUBLIC	??1__GEMABILITY@CUltimateWeapon@@QAE@XZ		; CUltimateWeapon::__GEMABILITY::~__GEMABILITY
PUBLIC	??0__GEMABILITY@CUltimateWeapon@@QAE@ABU01@@Z	; CUltimateWeapon::__GEMABILITY::__GEMABILITY
PUBLIC	??4__GEMABILITY@CUltimateWeapon@@QAEAAU01@ABU01@@Z ; CUltimateWeapon::__GEMABILITY::operator=
PUBLIC	?deallocate@?$allocator@U__GEMABILITY@CUltimateWeapon@@@std@@QAEXQAU__GEMABILITY@CUltimateWeapon@@I@Z ; std::allocator<CUltimateWeapon::__GEMABILITY>::deallocate
PUBLIC	?_Buy_raw@?$vector@U__GEMABILITY@CUltimateWeapon@@V?$allocator@U__GEMABILITY@CUltimateWeapon@@@std@@@std@@AAEXI@Z ; std::vector<CUltimateWeapon::__GEMABILITY,std::allocator<CUltimateWeapon::__GEMABILITY> >::_Buy_raw
PUBLIC	?_Tidy@?$vector@U__GEMABILITY@CUltimateWeapon@@V?$allocator@U__GEMABILITY@CUltimateWeapon@@@std@@@std@@AAEXXZ ; std::vector<CUltimateWeapon::__GEMABILITY,std::allocator<CUltimateWeapon::__GEMABILITY> >::_Tidy
PUBLIC	?_Xlength@?$vector@U__GEMABILITY@CUltimateWeapon@@V?$allocator@U__GEMABILITY@CUltimateWeapon@@@std@@@std@@CAXXZ ; std::vector<CUltimateWeapon::__GEMABILITY,std::allocator<CUltimateWeapon::__GEMABILITY> >::_Xlength
PUBLIC	??1__GEMABILITYKIND@CUltimateWeapon@@QAE@XZ	; CUltimateWeapon::__GEMABILITYKIND::~__GEMABILITYKIND
PUBLIC	?Load_GemAbility@CUltimateWeapon@@QAEHXZ	; CUltimateWeapon::Load_GemAbility
PUBLIC	?GetGemKind@CUltimateWeapon@@QAEKK@Z		; CUltimateWeapon::GetGemKind
PUBLIC	?Load_UltimateWeapon@CUltimateWeapon@@QAEHXZ	; CUltimateWeapon::Load_UltimateWeapon
PUBLIC	?GetGemAbilityKindRandom@CUltimateWeapon@@QAEKK@Z ; CUltimateWeapon::GetGemAbilityKindRandom
PUBLIC	?MakeGem@CUltimateWeapon@@QAEHPAVCUser@@KAAH@Z	; CUltimateWeapon::MakeGem
PUBLIC	?SetGem@CUltimateWeapon@@QAEHPAVCUser@@KK@Z	; CUltimateWeapon::SetGem
PUBLIC	?RemoveGem@CUltimateWeapon@@QAEHPAVCUser@@KK@Z	; CUltimateWeapon::RemoveGem
PUBLIC	?MakeItem@CUltimateWeapon@@QAEHPAVCUser@@PAK@Z	; CUltimateWeapon::MakeItem
PUBLIC	?TransWeapon@CUltimateWeapon@@QAEHPAVCUser@@KKK@Z ; CUltimateWeapon::TransWeapon
PUBLIC	?EnchantWeapon@CUltimateWeapon@@QAEHPAVCUser@@KK@Z ; CUltimateWeapon::EnchantWeapon
PUBLIC	?SmeltSafetyUltimate@CUltimateWeapon@@QAEEPAVCUser@@PAVCItemElem@@11@Z ; CUltimateWeapon::SmeltSafetyUltimate
PUBLIC	?SetDestParamUltimate@CUltimateWeapon@@QAEXPAVCMover@@PAVCItemElem@@HK@Z ; CUltimateWeapon::SetDestParamUltimate
PUBLIC	?GetDestParamUltimate@CUltimateWeapon@@QAE?AV?$map@HHU?$less@H@std@@V?$allocator@U?$pair@$$CBHH@std@@@2@@std@@PAVCItemElem@@@Z ; CUltimateWeapon::GetDestParamUltimate
PUBLIC	?GetDST@CUltimateWeapon@@QAEHKHH@Z		; CUltimateWeapon::GetDST
PUBLIC	??0CUltimateWeapon@@QAE@XZ			; CUltimateWeapon::CUltimateWeapon
PUBLIC	??1CUltimateWeapon@@UAE@XZ			; CUltimateWeapon::~CUltimateWeapon
PUBLIC	??1?$vector@U__MAKEGEMITEM@CUltimateWeapon@@V?$allocator@U__MAKEGEMITEM@CUltimateWeapon@@@std@@@std@@QAE@XZ ; std::vector<CUltimateWeapon::__MAKEGEMITEM,std::allocator<CUltimateWeapon::__MAKEGEMITEM> >::~vector<CUltimateWeapon::__MAKEGEMITEM,std::allocator<CUltimateWeapon::__MAKEGEMITEM> >
PUBLIC	?_Xlength@?$vector@U__MAKEGEMITEM@CUltimateWeapon@@V?$allocator@U__MAKEGEMITEM@CUltimateWeapon@@@std@@@std@@CAXXZ ; std::vector<CUltimateWeapon::__MAKEGEMITEM,std::allocator<CUltimateWeapon::__MAKEGEMITEM> >::_Xlength
PUBLIC	??1?$vector@U__GEMABILITYKIND@CUltimateWeapon@@V?$allocator@U__GEMABILITYKIND@CUltimateWeapon@@@std@@@std@@QAE@XZ ; std::vector<CUltimateWeapon::__GEMABILITYKIND,std::allocator<CUltimateWeapon::__GEMABILITYKIND> >::~vector<CUltimateWeapon::__GEMABILITYKIND,std::allocator<CUltimateWeapon::__GEMABILITYKIND> >
PUBLIC	?_Xlength@?$vector@U__GEMABILITYKIND@CUltimateWeapon@@V?$allocator@U__GEMABILITYKIND@CUltimateWeapon@@@std@@@std@@CAXXZ ; std::vector<CUltimateWeapon::__GEMABILITYKIND,std::allocator<CUltimateWeapon::__GEMABILITYKIND> >::_Xlength
PUBLIC	??1?$_Tree@V?$_Tmap_traits@HU__MAKEGEMPROB@CUltimateWeapon@@U?$less@H@std@@V?$allocator@U?$pair@$$CBHU__MAKEGEMPROB@CUltimateWeapon@@@std@@@4@$0A@@std@@@std@@QAE@XZ ; std::_Tree<std::_Tmap_traits<int,CUltimateWeapon::__MAKEGEMPROB,std::less<int>,std::allocator<std::pair<int const ,CUltimateWeapon::__MAKEGEMPROB> >,0> >::~_Tree<std::_Tmap_traits<int,CUltimateWeapon::__MAKEGEMPROB,std::less<int>,std::allocator<std::pair<int const ,CUltimateWeapon::__MAKEGEMPROB> >,0> >
PUBLIC	?_Insert_node@?$_Tree_val@U?$_Tree_simple_types@U?$pair@$$CBHU__MAKEGEMPROB@CUltimateWeapon@@@std@@@std@@@std@@QAEPAU?$_Tree_node@U?$pair@$$CBHU__MAKEGEMPROB@CUltimateWeapon@@@std@@PAX@2@U?$_Tree_id@PAU?$_Tree_node@U?$pair@$$CBHU__MAKEGEMPROB@CUltimateWeapon@@@std@@PAX@std@@@2@QAU32@@Z ; std::_Tree_val<std::_Tree_simple_types<std::pair<int const ,CUltimateWeapon::__MAKEGEMPROB> > >::_Insert_node
PUBLIC	??1?$map@HU__MAKEGEMPROB@CUltimateWeapon@@U?$less@H@std@@V?$allocator@U?$pair@$$CBHU__MAKEGEMPROB@CUltimateWeapon@@@std@@@4@@std@@QAE@XZ ; std::map<int,CUltimateWeapon::__MAKEGEMPROB,std::less<int>,std::allocator<std::pair<int const ,CUltimateWeapon::__MAKEGEMPROB> > >::~map<int,CUltimateWeapon::__MAKEGEMPROB,std::less<int>,std::allocator<std::pair<int const ,CUltimateWeapon::__MAKEGEMPROB> > >
PUBLIC	??1?$_Tree@V?$_Tmap_traits@HHU?$less@H@std@@V?$allocator@U?$pair@$$CBHH@std@@@2@$0A@@std@@@std@@QAE@XZ ; std::_Tree<std::_Tmap_traits<int,int,std::less<int>,std::allocator<std::pair<int const ,int> >,0> >::~_Tree<std::_Tmap_traits<int,int,std::less<int>,std::allocator<std::pair<int const ,int> >,0> >
PUBLIC	?find@?$_Tree@V?$_Tmap_traits@HHU?$less@H@std@@V?$allocator@U?$pair@$$CBHH@std@@@2@$0A@@std@@@std@@QAE?AV?$_Tree_iterator@V?$_Tree_val@U?$_Tree_simple_types@U?$pair@$$CBHH@std@@@std@@@std@@@2@ABH@Z ; std::_Tree<std::_Tmap_traits<int,int,std::less<int>,std::allocator<std::pair<int const ,int> >,0> >::find
PUBLIC	?_Insert_node@?$_Tree_val@U?$_Tree_simple_types@U?$pair@$$CBHH@std@@@std@@@std@@QAEPAU?$_Tree_node@U?$pair@$$CBHH@std@@PAX@2@U?$_Tree_id@PAU?$_Tree_node@U?$pair@$$CBHH@std@@PAX@std@@@2@QAU32@@Z ; std::_Tree_val<std::_Tree_simple_types<std::pair<int const ,int> > >::_Insert_node
PUBLIC	??1?$map@HHU?$less@H@std@@V?$allocator@U?$pair@$$CBHH@std@@@2@@std@@QAE@XZ ; std::map<int,int,std::less<int>,std::allocator<std::pair<int const ,int> > >::~map<int,int,std::less<int>,std::allocator<std::pair<int const ,int> > >
PUBLIC	??_GCUltimateWeapon@@UAEPAXI@Z			; CUltimateWeapon::`scalar deleting destructor'
PUBLIC	??1?$_Tree@V?$_Tmap_traits@KHU?$less@K@std@@V?$allocator@U?$pair@$$CBKH@std@@@2@$0A@@std@@@std@@QAE@XZ ; std::_Tree<std::_Tmap_traits<unsigned long,int,std::less<unsigned long>,std::allocator<std::pair<unsigned long const ,int> >,0> >::~_Tree<std::_Tmap_traits<unsigned long,int,std::less<unsigned long>,std::allocator<std::pair<unsigned long const ,int> >,0> >
PUBLIC	?_Insert_node@?$_Tree_val@U?$_Tree_simple_types@U?$pair@$$CBKH@std@@@std@@@std@@QAEPAU?$_Tree_node@U?$pair@$$CBKH@std@@PAX@2@U?$_Tree_id@PAU?$_Tree_node@U?$pair@$$CBKH@std@@PAX@std@@@2@QAU32@@Z ; std::_Tree_val<std::_Tree_simple_types<std::pair<unsigned long const ,int> > >::_Insert_node
PUBLIC	??1?$map@KHU?$less@K@std@@V?$allocator@U?$pair@$$CBKH@std@@@2@@std@@QAE@XZ ; std::map<unsigned long,int,std::less<unsigned long>,std::allocator<std::pair<unsigned long const ,int> > >::~map<unsigned long,int,std::less<unsigned long>,std::allocator<std::pair<unsigned long const ,int> > >
PUBLIC	?GetPropA@CItemElem@@QAEPAUItemProp@@XZ		; CItemElem::GetPropA
PUBLIC	?IsEquip@?$CItemContainer@VCItemElem@@@@QAEHK@Z	; CItemContainer<CItemElem>::IsEquip
PUBLIC	?IsFull@?$CItemContainer@VCItemElem@@@@QAEHPAVCItemElem@@PAUItemProp@@F@Z ; CItemContainer<CItemElem>::IsFull
PUBLIC	?GetAtId@?$CItemContainer@VCItemElem@@@@QAEPAVCItemElem@@K@Z ; CItemContainer<CItemElem>::GetAtId
PUBLIC	??$_Erase_tree@V?$allocator@U?$_Tree_node@U?$pair@$$CBKH@std@@PAX@std@@@std@@@?$_Tree_val@U?$_Tree_simple_types@U?$pair@$$CBKH@std@@@std@@@std@@QAEXAAV?$allocator@U?$_Tree_node@U?$pair@$$CBKH@std@@PAX@std@@@1@PAU?$_Tree_node@U?$pair@$$CBKH@std@@PAX@1@@Z ; std::_Tree_val<std::_Tree_simple_types<std::pair<unsigned long const ,int> > >::_Erase_tree<std::allocator<std::_Tree_node<std::pair<unsigned long const ,int>,void *> > >
PUBLIC	??$_Erase_tree@V?$allocator@U?$_Tree_node@U?$pair@$$CBHH@std@@PAX@std@@@std@@@?$_Tree_val@U?$_Tree_simple_types@U?$pair@$$CBHH@std@@@std@@@std@@QAEXAAV?$allocator@U?$_Tree_node@U?$pair@$$CBHH@std@@PAX@std@@@1@PAU?$_Tree_node@U?$pair@$$CBHH@std@@PAX@1@@Z ; std::_Tree_val<std::_Tree_simple_types<std::pair<int const ,int> > >::_Erase_tree<std::allocator<std::_Tree_node<std::pair<int const ,int>,void *> > >
PUBLIC	??$_Allocate_manually_vector_aligned@U_Default_allocate_traits@std@@@std@@YAPAXI@Z ; std::_Allocate_manually_vector_aligned<std::_Default_allocate_traits>
PUBLIC	??$insert@$0A@$0A@@?$_Tree@V?$_Tmap_traits@HHU?$less@H@std@@V?$allocator@U?$pair@$$CBHH@std@@@2@$0A@@std@@@std@@QAE?AU?$pair@V?$_Tree_iterator@V?$_Tree_val@U?$_Tree_simple_types@U?$pair@$$CBHH@std@@@std@@@std@@@std@@_N@1@$$QAU?$pair@$$CBHH@1@@Z ; std::_Tree<std::_Tmap_traits<int,int,std::less<int>,std::allocator<std::pair<int const ,int> >,0> >::insert<0,0>
PUBLIC	??E?$_Tree_const_iterator@V?$_Tree_val@U?$_Tree_simple_types@U?$pair@$$CBKH@std@@@std@@@std@@@std@@QAEAAV01@XZ ; std::_Tree_const_iterator<std::_Tree_val<std::_Tree_simple_types<std::pair<unsigned long const ,int> > > >::operator++
PUBLIC	??$insert@$0A@$0A@@?$_Tree@V?$_Tmap_traits@KHU?$less@K@std@@V?$allocator@U?$pair@$$CBKH@std@@@2@$0A@@std@@@std@@QAE?AU?$pair@V?$_Tree_iterator@V?$_Tree_val@U?$_Tree_simple_types@U?$pair@$$CBKH@std@@@std@@@std@@@std@@_N@1@$$QAU?$pair@$$CBKH@1@@Z ; std::_Tree<std::_Tmap_traits<unsigned long,int,std::less<unsigned long>,std::allocator<std::pair<unsigned long const ,int> >,0> >::insert<0,0>
PUBLIC	??$_Assign_counted_range@PAU__GEMABILITY@CUltimateWeapon@@@?$vector@U__GEMABILITY@CUltimateWeapon@@V?$allocator@U__GEMABILITY@CUltimateWeapon@@@std@@@std@@AAEXPAU__GEMABILITY@CUltimateWeapon@@I@Z ; std::vector<CUltimateWeapon::__GEMABILITY,std::allocator<CUltimateWeapon::__GEMABILITY> >::_Assign_counted_range<CUltimateWeapon::__GEMABILITY *>
PUBLIC	??$_Find_lower_bound@H@?$_Tree@V?$_Tmap_traits@HU__MAKEGEMPROB@CUltimateWeapon@@U?$less@H@std@@V?$allocator@U?$pair@$$CBHU__MAKEGEMPROB@CUltimateWeapon@@@std@@@4@$0A@@std@@@std@@IBE?AU?$_Tree_find_result@PAU?$_Tree_node@U?$pair@$$CBHU__MAKEGEMPROB@CUltimateWeapon@@@std@@PAX@std@@@1@ABH@Z ; std::_Tree<std::_Tmap_traits<int,CUltimateWeapon::__MAKEGEMPROB,std::less<int>,std::allocator<std::pair<int const ,CUltimateWeapon::__MAKEGEMPROB> >,0> >::_Find_lower_bound<int>
PUBLIC	??1?$_Alloc_construct_ptr@V?$allocator@U?$_Tree_node@U?$pair@$$CBHU__MAKEGEMPROB@CUltimateWeapon@@@std@@PAX@std@@@std@@@std@@QAE@XZ ; std::_Alloc_construct_ptr<std::allocator<std::_Tree_node<std::pair<int const ,CUltimateWeapon::__MAKEGEMPROB>,void *> > >::~_Alloc_construct_ptr<std::allocator<std::_Tree_node<std::pair<int const ,CUltimateWeapon::__MAKEGEMPROB>,void *> > >
PUBLIC	??$_Find_lower_bound@H@?$_Tree@V?$_Tmap_traits@HHU?$less@H@std@@V?$allocator@U?$pair@$$CBHH@std@@@2@$0A@@std@@@std@@IBE?AU?$_Tree_find_result@PAU?$_Tree_node@U?$pair@$$CBHH@std@@PAX@std@@@1@ABH@Z ; std::_Tree<std::_Tmap_traits<int,int,std::less<int>,std::allocator<std::pair<int const ,int> >,0> >::_Find_lower_bound<int>
PUBLIC	??1?$_Alloc_construct_ptr@V?$allocator@U?$_Tree_node@U?$pair@$$CBHH@std@@PAX@std@@@std@@@std@@QAE@XZ ; std::_Alloc_construct_ptr<std::allocator<std::_Tree_node<std::pair<int const ,int>,void *> > >::~_Alloc_construct_ptr<std::allocator<std::_Tree_node<std::pair<int const ,int>,void *> > >
PUBLIC	??$_Find_lower_bound@K@?$_Tree@V?$_Tmap_traits@KHU?$less@K@std@@V?$allocator@U?$pair@$$CBKH@std@@@2@$0A@@std@@@std@@IBE?AU?$_Tree_find_result@PAU?$_Tree_node@U?$pair@$$CBKH@std@@PAX@std@@@1@ABK@Z ; std::_Tree<std::_Tmap_traits<unsigned long,int,std::less<unsigned long>,std::allocator<std::pair<unsigned long const ,int> >,0> >::_Find_lower_bound<unsigned long>
PUBLIC	??1?$_Alloc_construct_ptr@V?$allocator@U?$_Tree_node@U?$pair@$$CBKH@std@@PAX@std@@@std@@@std@@QAE@XZ ; std::_Alloc_construct_ptr<std::allocator<std::_Tree_node<std::pair<unsigned long const ,int>,void *> > >::~_Alloc_construct_ptr<std::allocator<std::_Tree_node<std::pair<unsigned long const ,int>,void *> > >
PUBLIC	??$_Erase_tree@V?$allocator@U?$_Tree_node@U?$pair@$$CBHU__MAKEGEMPROB@CUltimateWeapon@@@std@@PAX@std@@@std@@@?$_Tree_val@U?$_Tree_simple_types@U?$pair@$$CBHU__MAKEGEMPROB@CUltimateWeapon@@@std@@@std@@@std@@QAEXAAV?$allocator@U?$_Tree_node@U?$pair@$$CBHU__MAKEGEMPROB@CUltimateWeapon@@@std@@PAX@std@@@1@PAU?$_Tree_node@U?$pair@$$CBHU__MAKEGEMPROB@CUltimateWeapon@@@std@@PAX@1@@Z ; std::_Tree_val<std::_Tree_simple_types<std::pair<int const ,CUltimateWeapon::__MAKEGEMPROB> > >::_Erase_tree<std::allocator<std::_Tree_node<std::pair<int const ,CUltimateWeapon::__MAKEGEMPROB>,void *> > >
PUBLIC	??$_Emplace_reallocate@ABU__GEMABILITYKIND@CUltimateWeapon@@@?$vector@U__GEMABILITYKIND@CUltimateWeapon@@V?$allocator@U__GEMABILITYKIND@CUltimateWeapon@@@std@@@std@@AAEPAU__GEMABILITYKIND@CUltimateWeapon@@QAU23@ABU23@@Z ; std::vector<CUltimateWeapon::__GEMABILITYKIND,std::allocator<CUltimateWeapon::__GEMABILITYKIND> >::_Emplace_reallocate<CUltimateWeapon::__GEMABILITYKIND const &>
PUBLIC	??$_Emplace_reallocate@ABU__MAKEGEMITEM@CUltimateWeapon@@@?$vector@U__MAKEGEMITEM@CUltimateWeapon@@V?$allocator@U__MAKEGEMITEM@CUltimateWeapon@@@std@@@std@@AAEPAU__MAKEGEMITEM@CUltimateWeapon@@QAU23@ABU23@@Z ; std::vector<CUltimateWeapon::__MAKEGEMITEM,std::allocator<CUltimateWeapon::__MAKEGEMITEM> >::_Emplace_reallocate<CUltimateWeapon::__MAKEGEMITEM const &>
PUBLIC	??$_Uninitialized_copy_n@PAU__GEMABILITY@CUltimateWeapon@@V?$allocator@U__GEMABILITY@CUltimateWeapon@@@std@@@std@@YAPAU__GEMABILITY@CUltimateWeapon@@PAU12@I0AAV?$allocator@U__GEMABILITY@CUltimateWeapon@@@0@@Z ; std::_Uninitialized_copy_n<CUltimateWeapon::__GEMABILITY *,std::allocator<CUltimateWeapon::__GEMABILITY> >
PUBLIC	??$_Emplace_reallocate@ABU__GEMABILITY@CUltimateWeapon@@@?$vector@U__GEMABILITY@CUltimateWeapon@@V?$allocator@U__GEMABILITY@CUltimateWeapon@@@std@@@std@@AAEPAU__GEMABILITY@CUltimateWeapon@@QAU23@ABU23@@Z ; std::vector<CUltimateWeapon::__GEMABILITY,std::allocator<CUltimateWeapon::__GEMABILITY> >::_Emplace_reallocate<CUltimateWeapon::__GEMABILITY const &>
PUBLIC	??$_Emplace_reallocate@H@?$vector@HV?$allocator@H@std@@@std@@AAEPAHQAH$$QAH@Z ; std::vector<int,std::allocator<int> >::_Emplace_reallocate<int>
PUBLIC	??$construct@U__GEMABILITYKIND@CUltimateWeapon@@ABU12@@?$_Default_allocator_traits@V?$allocator@U__GEMABILITYKIND@CUltimateWeapon@@@std@@@std@@SAXAAV?$allocator@U__GEMABILITYKIND@CUltimateWeapon@@@1@QAU__GEMABILITYKIND@CUltimateWeapon@@ABU34@@Z ; std::_Default_allocator_traits<std::allocator<CUltimateWeapon::__GEMABILITYKIND> >::construct<CUltimateWeapon::__GEMABILITYKIND,CUltimateWeapon::__GEMABILITYKIND const &>
PUBLIC	??1_Reallocation_guard@?$vector@U__GEMABILITYKIND@CUltimateWeapon@@V?$allocator@U__GEMABILITYKIND@CUltimateWeapon@@@std@@@std@@QAE@XZ ; std::vector<CUltimateWeapon::__GEMABILITYKIND,std::allocator<CUltimateWeapon::__GEMABILITYKIND> >::_Reallocation_guard::~_Reallocation_guard
PUBLIC	??$_Uninitialized_move@PAU__GEMABILITYKIND@CUltimateWeapon@@V?$allocator@U__GEMABILITYKIND@CUltimateWeapon@@@std@@@std@@YAPAU__GEMABILITYKIND@CUltimateWeapon@@QAU12@0PAU12@AAV?$allocator@U__GEMABILITYKIND@CUltimateWeapon@@@0@@Z ; std::_Uninitialized_move<CUltimateWeapon::__GEMABILITYKIND *,std::allocator<CUltimateWeapon::__GEMABILITYKIND> >
PUBLIC	??1?$_Uninitialized_backout_al@V?$allocator@U__GEMABILITY@CUltimateWeapon@@@std@@@std@@QAE@XZ ; std::_Uninitialized_backout_al<std::allocator<CUltimateWeapon::__GEMABILITY> >::~_Uninitialized_backout_al<std::allocator<CUltimateWeapon::__GEMABILITY> >
PUBLIC	??1_Reallocation_guard@?$vector@U__GEMABILITY@CUltimateWeapon@@V?$allocator@U__GEMABILITY@CUltimateWeapon@@@std@@@std@@QAE@XZ ; std::vector<CUltimateWeapon::__GEMABILITY,std::allocator<CUltimateWeapon::__GEMABILITY> >::_Reallocation_guard::~_Reallocation_guard
PUBLIC	??$_Uninitialized_move@PAU__GEMABILITY@CUltimateWeapon@@V?$allocator@U__GEMABILITY@CUltimateWeapon@@@std@@@std@@YAPAU__GEMABILITY@CUltimateWeapon@@QAU12@0PAU12@AAV?$allocator@U__GEMABILITY@CUltimateWeapon@@@0@@Z ; std::_Uninitialized_move<CUltimateWeapon::__GEMABILITY *,std::allocator<CUltimateWeapon::__GEMABILITY> >
PUBLIC	??$_Copy_memmove@PAU__MAKEGEMITEM@CUltimateWeapon@@PAU12@@std@@YAPAU__MAKEGEMITEM@CUltimateWeapon@@PAU12@00@Z ; std::_Copy_memmove<CUltimateWeapon::__MAKEGEMITEM *,CUltimateWeapon::__MAKEGEMITEM *>
PUBLIC	??$_Copy_memmove@PAHPAH@std@@YAPAHPAH00@Z	; std::_Copy_memmove<int *,int *>
PUBLIC	??$_Copy_memmove_n@PAHPAH@std@@YAPAHPAHI0@Z	; std::_Copy_memmove_n<int *,int *>
PUBLIC	??$_Copy_memmove_tail@PAU__MAKEGEMITEM@CUltimateWeapon@@@std@@YAPAU__MAKEGEMITEM@CUltimateWeapon@@QBDQAU12@II@Z ; std::_Copy_memmove_tail<CUltimateWeapon::__MAKEGEMITEM *>
PUBLIC	??$_Copy_memmove_tail@PAH@std@@YAPAHQBDQAHII@Z	; std::_Copy_memmove_tail<int *>
PUBLIC	??1?$_Tidy_guard@V?$vector@U__GEMABILITY@CUltimateWeapon@@V?$allocator@U__GEMABILITY@CUltimateWeapon@@@std@@@std@@@std@@QAE@XZ ; std::_Tidy_guard<std::vector<CUltimateWeapon::__GEMABILITY,std::allocator<CUltimateWeapon::__GEMABILITY> > >::~_Tidy_guard<std::vector<CUltimateWeapon::__GEMABILITY,std::allocator<CUltimateWeapon::__GEMABILITY> > >
PUBLIC	??_C@_00CNPNBAHC@@				; `string'
PUBLIC	??_7exception@std@@6B@				; std::exception::`vftable'
PUBLIC	??_C@_0BC@EOODALEL@Unknown?5exception@		; `string'
PUBLIC	??_7bad_alloc@std@@6B@				; std::bad_alloc::`vftable'
PUBLIC	??_7bad_array_new_length@std@@6B@		; std::bad_array_new_length::`vftable'
PUBLIC	??_C@_0BF@KINCDENJ@bad?5array?5new?5length@	; `string'
PUBLIC	??_R0?AVexception@std@@@8			; std::exception `RTTI Type Descriptor'
PUBLIC	__CT??_R0?AVexception@std@@@8??0exception@std@@QAE@ABV01@@Z12
PUBLIC	__TI3?AVbad_array_new_length@std@@
PUBLIC	__CTA3?AVbad_array_new_length@std@@
PUBLIC	??_R0?AVbad_array_new_length@std@@@8		; std::bad_array_new_length `RTTI Type Descriptor'
PUBLIC	__CT??_R0?AVbad_array_new_length@std@@@8??0bad_array_new_length@std@@QAE@ABV01@@Z12
PUBLIC	??_R0?AVbad_alloc@std@@@8			; std::bad_alloc `RTTI Type Descriptor'
PUBLIC	__CT??_R0?AVbad_alloc@std@@@8??0bad_alloc@std@@QAE@ABV01@@Z12
PUBLIC	??_C@_0BB@GCADKGJO@map?1set?5too?5long@		; `string'
PUBLIC	??_7CUltimateWeapon@@6B@			; CUltimateWeapon::`vftable'
PUBLIC	??_C@_0BM@HMFGHCP@?$CFs?5min?3?$CFd?0?5max?3?$CFd?0?5index?3?$CFd@ ; `string'
PUBLIC	??_C@_0BI@BEIFNGEL@GetItemProp?5range_error@	; `string'
PUBLIC	??_C@_0BA@FOIKENOD@vector?5too?5long@		; `string'
PUBLIC	??_R4exception@std@@6B@				; std::exception::`RTTI Complete Object Locator'
PUBLIC	??_R3exception@std@@8				; std::exception::`RTTI Class Hierarchy Descriptor'
PUBLIC	??_R2exception@std@@8				; std::exception::`RTTI Base Class Array'
PUBLIC	??_R1A@?0A@EA@exception@std@@8			; std::exception::`RTTI Base Class Descriptor at (0,-1,0,64)'
PUBLIC	??_R4bad_array_new_length@std@@6B@		; std::bad_array_new_length::`RTTI Complete Object Locator'
PUBLIC	??_R3bad_array_new_length@std@@8		; std::bad_array_new_length::`RTTI Class Hierarchy Descriptor'
PUBLIC	??_R2bad_array_new_length@std@@8		; std::bad_array_new_length::`RTTI Base Class Array'
PUBLIC	??_R1A@?0A@EA@bad_array_new_length@std@@8	; std::bad_array_new_length::`RTTI Base Class Descriptor at (0,-1,0,64)'
PUBLIC	??_R1A@?0A@EA@bad_alloc@std@@8			; std::bad_alloc::`RTTI Base Class Descriptor at (0,-1,0,64)'
PUBLIC	??_R3bad_alloc@std@@8				; std::bad_alloc::`RTTI Class Hierarchy Descriptor'
PUBLIC	??_R2bad_alloc@std@@8				; std::bad_alloc::`RTTI Base Class Array'
PUBLIC	??_R4bad_alloc@std@@6B@				; std::bad_alloc::`RTTI Complete Object Locator'
PUBLIC	??_C@_0BI@PGNGBLIK@Ultimate_GemAbility?4txt@	; `string'
PUBLIC	??_C@_07PPPKBPJP@ABILITY@			; `string'
PUBLIC	??_C@_09HOBABKJK@LEVEL_GEM@			; `string'
PUBLIC	??_C@_0EB@DAOJOOCO@UltimateWeapon?3?3Load_UltimateWe@ ; `string'
PUBLIC	??_C@_0BM@DMGOPMPC@Ultimate_UltimateWeapon?4txt@ ; `string'
PUBLIC	??_C@_07EPFOICHB@SET_GEM@			; `string'
PUBLIC	??_C@_0L@IDMPNDKM@REMOVE_GEM@			; `string'
PUBLIC	??_C@_0P@HIBHEIJI@GENERAL2UNIQUE@		; `string'
PUBLIC	??_C@_0BA@OLEDFDG@UNIQUE2ULTIMATE@		; `string'
PUBLIC	??_C@_08EFIDDBND@MAKE_GEM@			; `string'
PUBLIC	??_C@_0BB@LFPKPKBP@ULTIMATE_ENCHANT@		; `string'
PUBLIC	??_C@_01JOAMLHOP@?9@				; `string'
PUBLIC	??_C@_0BB@DGKKMOLK@ULTIMATE_MAKEGEM@		; `string'
PUBLIC	??_C@_0BJ@IPGEIBKP@ULTIMATE_MAKEGEM_SUCCESS@	; `string'
PUBLIC	??_C@_0BI@EJIMCPBH@ULTIMATE_MAKEGEM_FAILED@	; `string'
PUBLIC	??_C@_0BC@OJCMHJFC@ULTIMATE_PIERCING@		; `string'
PUBLIC	??_C@_0BK@PJMPNBBI@ULTIMATE_PIERCING_SUCCESS@	; `string'
PUBLIC	??_C@_0BJ@DOJNAIFH@ULTIMATE_PIERCING_FAILED@	; `string'
PUBLIC	??_C@_0BJ@NGNDNHNK@ULTIMATE_PIERCING_REMOVE@	; `string'
PUBLIC	??_C@_0BN@NGFCJDLO@ULTIMATE_PIERCING_REMOVE_SUC@ ; `string'
PUBLIC	??_C@_0BO@KCPJBPN@ULTIMATE_PIERCING_REMOVE_FAIL@ ; `string'
PUBLIC	??_C@_0BC@DHNDBODH@ULTIMATE_MAKEITEM@		; `string'
PUBLIC	??_C@_0BK@PNNEGHFI@ULTIMATE_MAKEITEM_SUCCESS@	; `string'
PUBLIC	??_C@_07JKKJPOP@UNIQUE_@			; `string'
PUBLIC	??_C@_09KCFJBJAO@ULTIMATE_@			; `string'
PUBLIC	??_C@_01FDFGLJHB@2@				; `string'
PUBLIC	??_C@_05FDMLBJBD@TRANS@				; `string'
PUBLIC	??_C@_0O@MGHIGEAB@TRANS_SUCCESS@		; `string'
PUBLIC	??_C@_0N@DMCOMMPB@TRANS_FAILED@			; `string'
PUBLIC	??_C@_0O@HLDFODDC@TRANS_PROTECT@		; `string'
PUBLIC	??_C@_0BJ@MLCNCLLD@ULTIMATE_ENCHANT_SUCCESS@	; `string'
PUBLIC	??_C@_0BJ@HGGAKMIA@ULTIMATE_ENCHANT_PROTECT@	; `string'
PUBLIC	??_C@_0BI@EALEAHL@ULTIMATE_ENCHANT_FAILED@	; `string'
PUBLIC	??_C@_0BJ@DFCEOGGG@ULTIMATE_ENC_SMELTSAFETY@	; `string'
PUBLIC	??_C@_01HIHLOKLC@1@				; `string'
PUBLIC	??_C@_0BO@MILNHMHC@ULTIMATE_ENC_FAIL_SMELTSAFETY@ ; `string'
PUBLIC	??_C@_0BN@JLMGDFNO@ULTIMATE_ENC_SUC_SMELTSAFETY@ ; `string'
PUBLIC	??_C@_0N@GELFDHNG@CONTAINER?1?10@		; `string'
PUBLIC	??_R4CUltimateWeapon@@6B@			; CUltimateWeapon::`RTTI Complete Object Locator'
PUBLIC	??_R0?AVCUltimateWeapon@@@8			; CUltimateWeapon `RTTI Type Descriptor'
PUBLIC	??_R3CUltimateWeapon@@8				; CUltimateWeapon::`RTTI Class Hierarchy Descriptor'
PUBLIC	??_R2CUltimateWeapon@@8				; CUltimateWeapon::`RTTI Base Class Array'
PUBLIC	??_R1A@?0A@EA@CUltimateWeapon@@8		; CUltimateWeapon::`RTTI Base Class Descriptor at (0,-1,0,64)'
EXTRN	??2@YAPAXI@Z:PROC				; operator new
EXTRN	??3@YAXPAXI@Z:PROC				; operator delete
EXTRN	__invalid_parameter_noinfo:PROC
EXTRN	__invoke_watson:PROC
EXTRN	__errno:PROC
EXTRN	__imp__LoadResource@8:PROC
EXTRN	__imp__LockResource@4:PROC
EXTRN	__imp__SizeofResource@8:PROC
EXTRN	__imp__FindResourceW@12:PROC
EXTRN	__imp__WideCharToMultiByte@32:PROC
EXTRN	__mbscmp:PROC
EXTRN	_atoi:PROC
EXTRN	?AfxThrowMemoryException@@YGXXZ:PROC		; AfxThrowMemoryException
EXTRN	?AfxThrowOleException@@YGXJ@Z:PROC		; AfxThrowOleException
EXTRN	?AfxFindStringResourceHandle@@YGPAUHINSTANCE__@@I@Z:PROC ; AfxFindStringResourceHandle
EXTRN	?AfxGetStringManager@@YGPAUIAtlStringMgr@ATL@@XZ:PROC ; AfxGetStringManager
EXTRN	___std_exception_copy:PROC
EXTRN	___std_exception_destroy:PROC
EXTRN	??_Eexception@std@@UAEPAXI@Z:PROC		; std::exception::`vector deleting destructor'
EXTRN	??_Ebad_alloc@std@@UAEPAXI@Z:PROC		; std::bad_alloc::`vector deleting destructor'
EXTRN	??_Ebad_array_new_length@std@@UAEPAXI@Z:PROC	; std::bad_array_new_length::`vector deleting destructor'
EXTRN	?_Xlength_error@std@@YAXPBD@Z:PROC		; std::_Xlength_error
EXTRN	?WriteError@@YAXPBDZZ:PROC			; WriteError
EXTRN	??0CScanner@@QAE@H@Z:PROC			; CScanner::CScanner
EXTRN	??1CScanner@@UAE@XZ:PROC			; CScanner::~CScanner
EXTRN	?GetToken@CScanner@@UAEHH@Z:PROC		; CScanner::GetToken
EXTRN	?Load@CScanner@@QAEHPBDH@Z:PROC			; CScanner::Load
EXTRN	?GetNumber@CScanner@@QAEHH@Z:PROC		; CScanner::GetNumber
EXTRN	?GetDefineNum@CScript@@SAHPBD@Z:PROC		; CScript::GetDefineNum
EXTRN	?Error@@YAPBDPBDZZ:PROC				; Error
EXTRN	??_ECUltimateWeapon@@UAEPAXI@Z:PROC		; CUltimateWeapon::`vector deleting destructor'
EXTRN	?GetUltimatePiercingSize@CPiercing@@QAEHXZ:PROC	; CPiercing::GetUltimatePiercingSize
EXTRN	?GetUltimatePiercingItem@CPiercing@@QAEKH@Z:PROC ; CPiercing::GetUltimatePiercingItem
EXTRN	?SetSerialNumber@CItemBase@@QAEXXZ:PROC		; CItemBase::SetSerialNumber
EXTRN	??0CItemElem@@QAE@XZ:PROC			; CItemElem::CItemElem
EXTRN	??1CItemElem@@UAE@XZ:PROC			; CItemElem::~CItemElem
EXTRN	?IsUsableItem@@YAHPAVCItemBase@@@Z:PROC		; IsUsableItem
EXTRN	?GetBuffByIk3@CBuffMgr@@QAEPAVIBuff@@K@Z:PROC	; CBuffMgr::GetBuffByIk3
EXTRN	?HasBuff@CMover@@QAEHGG@Z:PROC			; CMover::HasBuff
EXTRN	?RemoveBuff@CMover@@QAEXGG@Z:PROC		; CMover::RemoveBuff
EXTRN	?HasBuffByIk3@CMover@@QAEHK@Z:PROC		; CMover::HasBuffByIk3
EXTRN	?SetDestParam@CMover@@QAEXHHHH@Z:PROC		; CMover::SetDestParam
EXTRN	?ResetDestParam@CMover@@QAEXHHH@Z:PROC		; CMover::ResetDestParam
EXTRN	?GetAdjParam@CMover@@QAEHH@Z:PROC		; CMover::GetAdjParam
EXTRN	?GetName@CMover@@QAEPBDH@Z:PROC			; CMover::GetName
EXTRN	?UpdateItem@CMover@@QAEXEDKK@Z:PROC		; CMover::UpdateItem
EXTRN	?CreateItem@CMover@@QAEHPAVCItemBase@@PAEPAFE@Z:PROC ; CMover::CreateItem
EXTRN	?RemoveItem@CMover@@QAEXEF@Z:PROC		; CMover::RemoveItem
EXTRN	?AddDefinedText@CUser@@QAAXHPBDZZ:PROC		; CUser::AddDefinedText
EXTRN	?AddPlaySound@CUser@@QAEXK@Z:PROC		; CUser::AddPlaySound
EXTRN	?AddCreateSfxObj@CUserMng@@QAEXPAVCCtrl@@KMMMH@Z:PROC ; CUserMng::AddCreateSfxObj
EXTRN	?OnLogItem@CDPSrvr@@QAEXAAU_LogItemInfo@@PAVCItemElem@@H@Z:PROC ; CDPSrvr::OnLogItem
EXTRN	?SendLogSMItemUse@CDPDatabaseClient@@QAEXPBDPAVCUser@@PAVCItemElem@@PAUItemProp@@0@Z:PROC ; CDPDatabaseClient::SendLogSMItemUse
EXTRN	@__security_check_cookie@4:PROC
EXTRN	__CxxThrowException@8:PROC
EXTRN	___CxxFrameHandler3:PROC
EXTRN	_memcpy:PROC
EXTRN	_memmove:PROC
EXTRN	_memset:PROC
EXTRN	??_7type_info@@6B@:QWORD			; type_info::`vftable'
EXTRN	?g_next@@3KA:DWORD				; g_next
EXTRN	?prj@@3VCProject@@A:BYTE			; prj
EXTRN	?g_UserMng@@3VCUserMng@@A:BYTE			; g_UserMng
EXTRN	?g_DPSrvr@@3VCDPSrvr@@A:BYTE			; g_DPSrvr
EXTRN	?g_dpDBClient@@3VCDPDatabaseClient@@A:BYTE	; g_dpDBClient
EXTRN	___security_cookie:DWORD
EXTRN	__fltused:DWORD
;	COMDAT ??_R1A@?0A@EA@CUltimateWeapon@@8
rdata$r	SEGMENT
??_R1A@?0A@EA@CUltimateWeapon@@8 DD FLAT:??_R0?AVCUltimateWeapon@@@8 ; CUltimateWeapon::`RTTI Base Class Descriptor at (0,-1,0,64)'
	DD	00H
	DD	00H
	DD	0ffffffffH
	DD	00H
	DD	040H
	DD	FLAT:??_R3CUltimateWeapon@@8
rdata$r	ENDS
;	COMDAT ??_R2CUltimateWeapon@@8
rdata$r	SEGMENT
??_R2CUltimateWeapon@@8 DD FLAT:??_R1A@?0A@EA@CUltimateWeapon@@8 ; CUltimateWeapon::`RTTI Base Class Array'
rdata$r	ENDS
;	COMDAT ??_R3CUltimateWeapon@@8
rdata$r	SEGMENT
??_R3CUltimateWeapon@@8 DD 00H				; CUltimateWeapon::`RTTI Class Hierarchy Descriptor'
	DD	00H
	DD	01H
	DD	FLAT:??_R2CUltimateWeapon@@8
rdata$r	ENDS
;	COMDAT ??_R0?AVCUltimateWeapon@@@8
data$rs	SEGMENT
??_R0?AVCUltimateWeapon@@@8 DD FLAT:??_7type_info@@6B@	; CUltimateWeapon `RTTI Type Descriptor'
	DD	00H
	DB	'.?AVCUltimateWeapon@@', 00H
data$rs	ENDS
;	COMDAT ??_R4CUltimateWeapon@@6B@
rdata$r	SEGMENT
??_R4CUltimateWeapon@@6B@ DD 00H			; CUltimateWeapon::`RTTI Complete Object Locator'
	DD	00H
	DD	00H
	DD	FLAT:??_R0?AVCUltimateWeapon@@@8
	DD	FLAT:??_R3CUltimateWeapon@@8
rdata$r	ENDS
;	COMDAT ??_C@_0N@GELFDHNG@CONTAINER?1?10@
CONST	SEGMENT
??_C@_0N@GELFDHNG@CONTAINER?1?10@ DB 'CONTAINER//0', 00H ; `string'
CONST	ENDS
;	COMDAT ??_C@_0BN@JLMGDFNO@ULTIMATE_ENC_SUC_SMELTSAFETY@
CONST	SEGMENT
??_C@_0BN@JLMGDFNO@ULTIMATE_ENC_SUC_SMELTSAFETY@ DB 'ULTIMATE_ENC_SUC_SME'
	DB	'LTSAFETY', 00H				; `string'
CONST	ENDS
;	COMDAT ??_C@_0BO@MILNHMHC@ULTIMATE_ENC_FAIL_SMELTSAFETY@
CONST	SEGMENT
??_C@_0BO@MILNHMHC@ULTIMATE_ENC_FAIL_SMELTSAFETY@ DB 'ULTIMATE_ENC_FAIL_S'
	DB	'MELTSAFETY', 00H				; `string'
CONST	ENDS
;	COMDAT ??_C@_01HIHLOKLC@1@
CONST	SEGMENT
??_C@_01HIHLOKLC@1@ DB '1', 00H				; `string'
CONST	ENDS
;	COMDAT ??_C@_0BJ@DFCEOGGG@ULTIMATE_ENC_SMELTSAFETY@
CONST	SEGMENT
??_C@_0BJ@DFCEOGGG@ULTIMATE_ENC_SMELTSAFETY@ DB 'ULTIMATE_ENC_SMELTSAFETY'
	DB	00H						; `string'
CONST	ENDS
;	COMDAT ??_C@_0BI@EALEAHL@ULTIMATE_ENCHANT_FAILED@
CONST	SEGMENT
??_C@_0BI@EALEAHL@ULTIMATE_ENCHANT_FAILED@ DB 'ULTIMATE_ENCHANT_FAILED', 00H ; `string'
CONST	ENDS
;	COMDAT ??_C@_0BJ@HGGAKMIA@ULTIMATE_ENCHANT_PROTECT@
CONST	SEGMENT
??_C@_0BJ@HGGAKMIA@ULTIMATE_ENCHANT_PROTECT@ DB 'ULTIMATE_ENCHANT_PROTECT'
	DB	00H						; `string'
CONST	ENDS
;	COMDAT ??_C@_0BJ@MLCNCLLD@ULTIMATE_ENCHANT_SUCCESS@
CONST	SEGMENT
??_C@_0BJ@MLCNCLLD@ULTIMATE_ENCHANT_SUCCESS@ DB 'ULTIMATE_ENCHANT_SUCCESS'
	DB	00H						; `string'
CONST	ENDS
;	COMDAT ??_C@_0O@HLDFODDC@TRANS_PROTECT@
CONST	SEGMENT
??_C@_0O@HLDFODDC@TRANS_PROTECT@ DB 'TRANS_PROTECT', 00H ; `string'
CONST	ENDS
;	COMDAT ??_C@_0N@DMCOMMPB@TRANS_FAILED@
CONST	SEGMENT
??_C@_0N@DMCOMMPB@TRANS_FAILED@ DB 'TRANS_FAILED', 00H	; `string'
CONST	ENDS
;	COMDAT ??_C@_0O@MGHIGEAB@TRANS_SUCCESS@
CONST	SEGMENT
??_C@_0O@MGHIGEAB@TRANS_SUCCESS@ DB 'TRANS_SUCCESS', 00H ; `string'
CONST	ENDS
;	COMDAT ??_C@_05FDMLBJBD@TRANS@
CONST	SEGMENT
??_C@_05FDMLBJBD@TRANS@ DB 'TRANS', 00H			; `string'
CONST	ENDS
;	COMDAT ??_C@_01FDFGLJHB@2@
CONST	SEGMENT
??_C@_01FDFGLJHB@2@ DB '2', 00H				; `string'
CONST	ENDS
;	COMDAT ??_C@_09KCFJBJAO@ULTIMATE_@
CONST	SEGMENT
??_C@_09KCFJBJAO@ULTIMATE_@ DB 'ULTIMATE_', 00H		; `string'
CONST	ENDS
;	COMDAT ??_C@_07JKKJPOP@UNIQUE_@
CONST	SEGMENT
??_C@_07JKKJPOP@UNIQUE_@ DB 'UNIQUE_', 00H		; `string'
CONST	ENDS
;	COMDAT ??_C@_0BK@PNNEGHFI@ULTIMATE_MAKEITEM_SUCCESS@
CONST	SEGMENT
??_C@_0BK@PNNEGHFI@ULTIMATE_MAKEITEM_SUCCESS@ DB 'ULTIMATE_MAKEITEM_SUCCE'
	DB	'SS', 00H					; `string'
CONST	ENDS
;	COMDAT ??_C@_0BC@DHNDBODH@ULTIMATE_MAKEITEM@
CONST	SEGMENT
??_C@_0BC@DHNDBODH@ULTIMATE_MAKEITEM@ DB 'ULTIMATE_MAKEITEM', 00H ; `string'
CONST	ENDS
;	COMDAT ??_C@_0BO@KCPJBPN@ULTIMATE_PIERCING_REMOVE_FAIL@
CONST	SEGMENT
??_C@_0BO@KCPJBPN@ULTIMATE_PIERCING_REMOVE_FAIL@ DB 'ULTIMATE_PIERCING_RE'
	DB	'MOVE_FAIL', 00H				; `string'
CONST	ENDS
;	COMDAT ??_C@_0BN@NGFCJDLO@ULTIMATE_PIERCING_REMOVE_SUC@
CONST	SEGMENT
??_C@_0BN@NGFCJDLO@ULTIMATE_PIERCING_REMOVE_SUC@ DB 'ULTIMATE_PIERCING_RE'
	DB	'MOVE_SUC', 00H				; `string'
CONST	ENDS
;	COMDAT ??_C@_0BJ@NGNDNHNK@ULTIMATE_PIERCING_REMOVE@
CONST	SEGMENT
??_C@_0BJ@NGNDNHNK@ULTIMATE_PIERCING_REMOVE@ DB 'ULTIMATE_PIERCING_REMOVE'
	DB	00H						; `string'
CONST	ENDS
;	COMDAT ??_C@_0BJ@DOJNAIFH@ULTIMATE_PIERCING_FAILED@
CONST	SEGMENT
??_C@_0BJ@DOJNAIFH@ULTIMATE_PIERCING_FAILED@ DB 'ULTIMATE_PIERCING_FAILED'
	DB	00H						; `string'
CONST	ENDS
;	COMDAT ??_C@_0BK@PJMPNBBI@ULTIMATE_PIERCING_SUCCESS@
CONST	SEGMENT
??_C@_0BK@PJMPNBBI@ULTIMATE_PIERCING_SUCCESS@ DB 'ULTIMATE_PIERCING_SUCCE'
	DB	'SS', 00H					; `string'
CONST	ENDS
;	COMDAT ??_C@_0BC@OJCMHJFC@ULTIMATE_PIERCING@
CONST	SEGMENT
??_C@_0BC@OJCMHJFC@ULTIMATE_PIERCING@ DB 'ULTIMATE_PIERCING', 00H ; `string'
CONST	ENDS
;	COMDAT ??_C@_0BI@EJIMCPBH@ULTIMATE_MAKEGEM_FAILED@
CONST	SEGMENT
??_C@_0BI@EJIMCPBH@ULTIMATE_MAKEGEM_FAILED@ DB 'ULTIMATE_MAKEGEM_FAILED', 00H ; `string'
CONST	ENDS
;	COMDAT ??_C@_0BJ@IPGEIBKP@ULTIMATE_MAKEGEM_SUCCESS@
CONST	SEGMENT
??_C@_0BJ@IPGEIBKP@ULTIMATE_MAKEGEM_SUCCESS@ DB 'ULTIMATE_MAKEGEM_SUCCESS'
	DB	00H						; `string'
CONST	ENDS
;	COMDAT ??_C@_0BB@DGKKMOLK@ULTIMATE_MAKEGEM@
CONST	SEGMENT
??_C@_0BB@DGKKMOLK@ULTIMATE_MAKEGEM@ DB 'ULTIMATE_MAKEGEM', 00H ; `string'
CONST	ENDS
;	COMDAT ??_C@_01JOAMLHOP@?9@
CONST	SEGMENT
??_C@_01JOAMLHOP@?9@ DB '-', 00H			; `string'
CONST	ENDS
;	COMDAT ??_C@_0BB@LFPKPKBP@ULTIMATE_ENCHANT@
CONST	SEGMENT
??_C@_0BB@LFPKPKBP@ULTIMATE_ENCHANT@ DB 'ULTIMATE_ENCHANT', 00H ; `string'
CONST	ENDS
;	COMDAT ??_C@_08EFIDDBND@MAKE_GEM@
CONST	SEGMENT
??_C@_08EFIDDBND@MAKE_GEM@ DB 'MAKE_GEM', 00H		; `string'
CONST	ENDS
;	COMDAT ??_C@_0BA@OLEDFDG@UNIQUE2ULTIMATE@
CONST	SEGMENT
??_C@_0BA@OLEDFDG@UNIQUE2ULTIMATE@ DB 'UNIQUE2ULTIMATE', 00H ; `string'
CONST	ENDS
;	COMDAT ??_C@_0P@HIBHEIJI@GENERAL2UNIQUE@
CONST	SEGMENT
??_C@_0P@HIBHEIJI@GENERAL2UNIQUE@ DB 'GENERAL2UNIQUE', 00H ; `string'
CONST	ENDS
;	COMDAT ??_C@_0L@IDMPNDKM@REMOVE_GEM@
CONST	SEGMENT
??_C@_0L@IDMPNDKM@REMOVE_GEM@ DB 'REMOVE_GEM', 00H	; `string'
CONST	ENDS
;	COMDAT ??_C@_07EPFOICHB@SET_GEM@
CONST	SEGMENT
??_C@_07EPFOICHB@SET_GEM@ DB 'SET_GEM', 00H		; `string'
CONST	ENDS
;	COMDAT ??_C@_0BM@DMGOPMPC@Ultimate_UltimateWeapon?4txt@
CONST	SEGMENT
??_C@_0BM@DMGOPMPC@Ultimate_UltimateWeapon?4txt@ DB 'Ultimate_UltimateWea'
	DB	'pon.txt', 00H				; `string'
CONST	ENDS
;	COMDAT ??_C@_0EB@DAOJOOCO@UltimateWeapon?3?3Load_UltimateWe@
CONST	SEGMENT
??_C@_0EB@DAOJOOCO@UltimateWeapon?3?3Load_UltimateWe@ DB 'UltimateWeapon:'
	DB	':Load_UltimateWeapon() ', 0beH, 0c6H, 0c0H, 0ccH, 0c5H, 0dbH, 0c0H
	DB	0ccH, ' ', 0beH, 0f8H, 0b4H, 0c2H, 0b0H, 0cdH, 0c0H, 0bbH, ' ', 0bcH
	DB	0b3H, 0c1H, 0a4H, 0c7H, 0dfH, 0c0H, 0bdH, 00H ; `string'
CONST	ENDS
;	COMDAT ??_C@_09HOBABKJK@LEVEL_GEM@
CONST	SEGMENT
??_C@_09HOBABKJK@LEVEL_GEM@ DB 'LEVEL_GEM', 00H		; `string'
CONST	ENDS
;	COMDAT ??_C@_07PPPKBPJP@ABILITY@
CONST	SEGMENT
??_C@_07PPPKBPJP@ABILITY@ DB 'ABILITY', 00H		; `string'
CONST	ENDS
;	COMDAT ??_C@_0BI@PGNGBLIK@Ultimate_GemAbility?4txt@
CONST	SEGMENT
??_C@_0BI@PGNGBLIK@Ultimate_GemAbility?4txt@ DB 'Ultimate_GemAbility.txt', 00H ; `string'
CONST	ENDS
;	COMDAT ??_R4bad_alloc@std@@6B@
rdata$r	SEGMENT
??_R4bad_alloc@std@@6B@ DD 00H				; std::bad_alloc::`RTTI Complete Object Locator'
	DD	00H
	DD	00H
	DD	FLAT:??_R0?AVbad_alloc@std@@@8
	DD	FLAT:??_R3bad_alloc@std@@8
rdata$r	ENDS
;	COMDAT ??_R2bad_alloc@std@@8
rdata$r	SEGMENT
??_R2bad_alloc@std@@8 DD FLAT:??_R1A@?0A@EA@bad_alloc@std@@8 ; std::bad_alloc::`RTTI Base Class Array'
	DD	FLAT:??_R1A@?0A@EA@exception@std@@8
rdata$r	ENDS
;	COMDAT ??_R3bad_alloc@std@@8
rdata$r	SEGMENT
??_R3bad_alloc@std@@8 DD 00H				; std::bad_alloc::`RTTI Class Hierarchy Descriptor'
	DD	00H
	DD	02H
	DD	FLAT:??_R2bad_alloc@std@@8
rdata$r	ENDS
;	COMDAT ??_R1A@?0A@EA@bad_alloc@std@@8
rdata$r	SEGMENT
??_R1A@?0A@EA@bad_alloc@std@@8 DD FLAT:??_R0?AVbad_alloc@std@@@8 ; std::bad_alloc::`RTTI Base Class Descriptor at (0,-1,0,64)'
	DD	01H
	DD	00H
	DD	0ffffffffH
	DD	00H
	DD	040H
	DD	FLAT:??_R3bad_alloc@std@@8
rdata$r	ENDS
;	COMDAT ??_R1A@?0A@EA@bad_array_new_length@std@@8
rdata$r	SEGMENT
??_R1A@?0A@EA@bad_array_new_length@std@@8 DD FLAT:??_R0?AVbad_array_new_length@std@@@8 ; std::bad_array_new_length::`RTTI Base Class Descriptor at (0,-1,0,64)'
	DD	02H
	DD	00H
	DD	0ffffffffH
	DD	00H
	DD	040H
	DD	FLAT:??_R3bad_array_new_length@std@@8
rdata$r	ENDS
;	COMDAT ??_R2bad_array_new_length@std@@8
rdata$r	SEGMENT
??_R2bad_array_new_length@std@@8 DD FLAT:??_R1A@?0A@EA@bad_array_new_length@std@@8 ; std::bad_array_new_length::`RTTI Base Class Array'
	DD	FLAT:??_R1A@?0A@EA@bad_alloc@std@@8
	DD	FLAT:??_R1A@?0A@EA@exception@std@@8
rdata$r	ENDS
;	COMDAT ??_R3bad_array_new_length@std@@8
rdata$r	SEGMENT
??_R3bad_array_new_length@std@@8 DD 00H			; std::bad_array_new_length::`RTTI Class Hierarchy Descriptor'
	DD	00H
	DD	03H
	DD	FLAT:??_R2bad_array_new_length@std@@8
rdata$r	ENDS
;	COMDAT ??_R4bad_array_new_length@std@@6B@
rdata$r	SEGMENT
??_R4bad_array_new_length@std@@6B@ DD 00H		; std::bad_array_new_length::`RTTI Complete Object Locator'
	DD	00H
	DD	00H
	DD	FLAT:??_R0?AVbad_array_new_length@std@@@8
	DD	FLAT:??_R3bad_array_new_length@std@@8
rdata$r	ENDS
;	COMDAT ??_R1A@?0A@EA@exception@std@@8
rdata$r	SEGMENT
??_R1A@?0A@EA@exception@std@@8 DD FLAT:??_R0?AVexception@std@@@8 ; std::exception::`RTTI Base Class Descriptor at (0,-1,0,64)'
	DD	00H
	DD	00H
	DD	0ffffffffH
	DD	00H
	DD	040H
	DD	FLAT:??_R3exception@std@@8
rdata$r	ENDS
;	COMDAT ??_R2exception@std@@8
rdata$r	SEGMENT
??_R2exception@std@@8 DD FLAT:??_R1A@?0A@EA@exception@std@@8 ; std::exception::`RTTI Base Class Array'
rdata$r	ENDS
;	COMDAT ??_R3exception@std@@8
rdata$r	SEGMENT
??_R3exception@std@@8 DD 00H				; std::exception::`RTTI Class Hierarchy Descriptor'
	DD	00H
	DD	01H
	DD	FLAT:??_R2exception@std@@8
rdata$r	ENDS
;	COMDAT ??_R4exception@std@@6B@
rdata$r	SEGMENT
??_R4exception@std@@6B@ DD 00H				; std::exception::`RTTI Complete Object Locator'
	DD	00H
	DD	00H
	DD	FLAT:??_R0?AVexception@std@@@8
	DD	FLAT:??_R3exception@std@@8
rdata$r	ENDS
;	COMDAT ??_C@_0BA@FOIKENOD@vector?5too?5long@
CONST	SEGMENT
??_C@_0BA@FOIKENOD@vector?5too?5long@ DB 'vector too long', 00H ; `string'
CONST	ENDS
;	COMDAT ??_C@_0BI@BEIFNGEL@GetItemProp?5range_error@
CONST	SEGMENT
??_C@_0BI@BEIFNGEL@GetItemProp?5range_error@ DB 'GetItemProp range_error', 00H ; `string'
CONST	ENDS
;	COMDAT ??_C@_0BM@HMFGHCP@?$CFs?5min?3?$CFd?0?5max?3?$CFd?0?5index?3?$CFd@
CONST	SEGMENT
??_C@_0BM@HMFGHCP@?$CFs?5min?3?$CFd?0?5max?3?$CFd?0?5index?3?$CFd@ DB '%s'
	DB	' min:%d, max:%d, index:%d', 00H		; `string'
CONST	ENDS
;	COMDAT ??_7CUltimateWeapon@@6B@
CONST	SEGMENT
??_7CUltimateWeapon@@6B@ DD FLAT:??_R4CUltimateWeapon@@6B@ ; CUltimateWeapon::`vftable'
	DD	FLAT:??_ECUltimateWeapon@@UAEPAXI@Z
CONST	ENDS
;	COMDAT ??_C@_0BB@GCADKGJO@map?1set?5too?5long@
CONST	SEGMENT
??_C@_0BB@GCADKGJO@map?1set?5too?5long@ DB 'map/set too long', 00H ; `string'
CONST	ENDS
;	COMDAT __CT??_R0?AVbad_alloc@std@@@8??0bad_alloc@std@@QAE@ABV01@@Z12
xdata$x	SEGMENT
__CT??_R0?AVbad_alloc@std@@@8??0bad_alloc@std@@QAE@ABV01@@Z12 DD 010H
	DD	FLAT:??_R0?AVbad_alloc@std@@@8
	DD	00H
	DD	0ffffffffH
	ORG $+4
	DD	0cH
	DD	FLAT:??0bad_alloc@std@@QAE@ABV01@@Z
xdata$x	ENDS
;	COMDAT ??_R0?AVbad_alloc@std@@@8
data$r	SEGMENT
??_R0?AVbad_alloc@std@@@8 DD FLAT:??_7type_info@@6B@	; std::bad_alloc `RTTI Type Descriptor'
	DD	00H
	DB	'.?AVbad_alloc@std@@', 00H
data$r	ENDS
;	COMDAT __CT??_R0?AVbad_array_new_length@std@@@8??0bad_array_new_length@std@@QAE@ABV01@@Z12
xdata$x	SEGMENT
__CT??_R0?AVbad_array_new_length@std@@@8??0bad_array_new_length@std@@QAE@ABV01@@Z12 DD 00H
	DD	FLAT:??_R0?AVbad_array_new_length@std@@@8
	DD	00H
	DD	0ffffffffH
	ORG $+4
	DD	0cH
	DD	FLAT:??0bad_array_new_length@std@@QAE@ABV01@@Z
xdata$x	ENDS
;	COMDAT ??_R0?AVbad_array_new_length@std@@@8
data$r	SEGMENT
??_R0?AVbad_array_new_length@std@@@8 DD FLAT:??_7type_info@@6B@ ; std::bad_array_new_length `RTTI Type Descriptor'
	DD	00H
	DB	'.?AVbad_array_new_length@std@@', 00H
data$r	ENDS
;	COMDAT __CTA3?AVbad_array_new_length@std@@
xdata$x	SEGMENT
__CTA3?AVbad_array_new_length@std@@ DD 03H
	DD	FLAT:__CT??_R0?AVbad_array_new_length@std@@@8??0bad_array_new_length@std@@QAE@ABV01@@Z12
	DD	FLAT:__CT??_R0?AVbad_alloc@std@@@8??0bad_alloc@std@@QAE@ABV01@@Z12
	DD	FLAT:__CT??_R0?AVexception@std@@@8??0exception@std@@QAE@ABV01@@Z12
xdata$x	ENDS
;	COMDAT __TI3?AVbad_array_new_length@std@@
xdata$x	SEGMENT
__TI3?AVbad_array_new_length@std@@ DD 00H
	DD	FLAT:??1bad_array_new_length@std@@UAE@XZ
	DD	00H
	DD	FLAT:__CTA3?AVbad_array_new_length@std@@
xdata$x	ENDS
;	COMDAT __CT??_R0?AVexception@std@@@8??0exception@std@@QAE@ABV01@@Z12
xdata$x	SEGMENT
__CT??_R0?AVexception@std@@@8??0exception@std@@QAE@ABV01@@Z12 DD 00H
	DD	FLAT:??_R0?AVexception@std@@@8
	DD	00H
	DD	0ffffffffH
	ORG $+4
	DD	0cH
	DD	FLAT:??0exception@std@@QAE@ABV01@@Z
xdata$x	ENDS
;	COMDAT ??_R0?AVexception@std@@@8
data$r	SEGMENT
??_R0?AVexception@std@@@8 DD FLAT:??_7type_info@@6B@	; std::exception `RTTI Type Descriptor'
	DD	00H
	DB	'.?AVexception@std@@', 00H
data$r	ENDS
;	COMDAT ??_C@_0BF@KINCDENJ@bad?5array?5new?5length@
CONST	SEGMENT
??_C@_0BF@KINCDENJ@bad?5array?5new?5length@ DB 'bad array new length', 00H ; `string'
CONST	ENDS
;	COMDAT ??_7bad_array_new_length@std@@6B@
CONST	SEGMENT
??_7bad_array_new_length@std@@6B@ DD FLAT:??_R4bad_array_new_length@std@@6B@ ; std::bad_array_new_length::`vftable'
	DD	FLAT:??_Ebad_array_new_length@std@@UAEPAXI@Z
	DD	FLAT:?what@exception@std@@UBEPBDXZ
CONST	ENDS
;	COMDAT ??_7bad_alloc@std@@6B@
CONST	SEGMENT
??_7bad_alloc@std@@6B@ DD FLAT:??_R4bad_alloc@std@@6B@	; std::bad_alloc::`vftable'
	DD	FLAT:??_Ebad_alloc@std@@UAEPAXI@Z
	DD	FLAT:?what@exception@std@@UBEPBDXZ
CONST	ENDS
;	COMDAT ??_C@_0BC@EOODALEL@Unknown?5exception@
CONST	SEGMENT
??_C@_0BC@EOODALEL@Unknown?5exception@ DB 'Unknown exception', 00H ; `string'
CONST	ENDS
;	COMDAT ??_7exception@std@@6B@
CONST	SEGMENT
??_7exception@std@@6B@ DD FLAT:??_R4exception@std@@6B@	; std::exception::`vftable'
	DD	FLAT:??_Eexception@std@@UAEPAXI@Z
	DD	FLAT:?what@exception@std@@UBEPBDXZ
CONST	ENDS
;	COMDAT ??_C@_00CNPNBAHC@@
CONST	SEGMENT
??_C@_00CNPNBAHC@@ DB 00H				; `string'
CONST	ENDS
;	COMDAT xdata$x
xdata$x	SEGMENT
__unwindtable$??$_Uninitialized_copy@PAU__GEMABILITY@CUltimateWeapon@@PAU12@V?$allocator@U__GEMABILITY@CUltimateWeapon@@@std@@@std@@YAPAU__GEMABILITY@CUltimateWeapon@@PAU12@00AAV?$allocator@U__GEMABILITY@CUltimateWeapon@@@0@@Z DD 0ffffffffH
	DD	FLAT:__unwindfunclet$??$_Uninitialized_copy@PAU__GEMABILITY@CUltimateWeapon@@PAU12@V?$allocator@U__GEMABILITY@CUltimateWeapon@@@std@@@std@@YAPAU__GEMABILITY@CUltimateWeapon@@PAU12@00AAV?$allocator@U__GEMABILITY@CUltimateWeapon@@@0@@Z$0
__ehfuncinfo$??$_Uninitialized_copy@PAU__GEMABILITY@CUltimateWeapon@@PAU12@V?$allocator@U__GEMABILITY@CUltimateWeapon@@@std@@@std@@YAPAU__GEMABILITY@CUltimateWeapon@@PAU12@00AAV?$allocator@U__GEMABILITY@CUltimateWeapon@@@0@@Z DD 019930522H
	DD	01H
	DD	FLAT:__unwindtable$??$_Uninitialized_copy@PAU__GEMABILITY@CUltimateWeapon@@PAU12@V?$allocator@U__GEMABILITY@CUltimateWeapon@@@std@@@std@@YAPAU__GEMABILITY@CUltimateWeapon@@PAU12@00AAV?$allocator@U__GEMABILITY@CUltimateWeapon@@@0@@Z
	DD	2 DUP(00H)
	DD	2 DUP(00H)
	DD	00H
	DD	01H
xdata$x	ENDS
;	COMDAT xdata$x
xdata$x	SEGMENT
__unwindtable$??$_Construct_n@ABQAU__GEMABILITY@CUltimateWeapon@@ABQAU12@@?$vector@U__GEMABILITY@CUltimateWeapon@@V?$allocator@U__GEMABILITY@CUltimateWeapon@@@std@@@std@@AAEXIABQAU__GEMABILITY@CUltimateWeapon@@0@Z DD 0ffffffffH
	DD	FLAT:__unwindfunclet$??$_Construct_n@ABQAU__GEMABILITY@CUltimateWeapon@@ABQAU12@@?$vector@U__GEMABILITY@CUltimateWeapon@@V?$allocator@U__GEMABILITY@CUltimateWeapon@@@std@@@std@@AAEXIABQAU__GEMABILITY@CUltimateWeapon@@0@Z$0
	DD	00H
	DD	FLAT:__unwindfunclet$??$_Construct_n@ABQAU__GEMABILITY@CUltimateWeapon@@ABQAU12@@?$vector@U__GEMABILITY@CUltimateWeapon@@V?$allocator@U__GEMABILITY@CUltimateWeapon@@@std@@@std@@AAEXIABQAU__GEMABILITY@CUltimateWeapon@@0@Z$1
__ehfuncinfo$??$_Construct_n@ABQAU__GEMABILITY@CUltimateWeapon@@ABQAU12@@?$vector@U__GEMABILITY@CUltimateWeapon@@V?$allocator@U__GEMABILITY@CUltimateWeapon@@@std@@@std@@AAEXIABQAU__GEMABILITY@CUltimateWeapon@@0@Z DD 019930522H
	DD	02H
	DD	FLAT:__unwindtable$??$_Construct_n@ABQAU__GEMABILITY@CUltimateWeapon@@ABQAU12@@?$vector@U__GEMABILITY@CUltimateWeapon@@V?$allocator@U__GEMABILITY@CUltimateWeapon@@@std@@@std@@AAEXIABQAU__GEMABILITY@CUltimateWeapon@@0@Z
	DD	2 DUP(00H)
	DD	2 DUP(00H)
	DD	00H
	DD	01H
xdata$x	ENDS
;	COMDAT xdata$x
xdata$x	SEGMENT
__unwindtable$??$construct@U__GEMABILITYKIND@CUltimateWeapon@@ABU12@@?$_Default_allocator_traits@V?$allocator@U__GEMABILITYKIND@CUltimateWeapon@@@std@@@std@@SAXAAV?$allocator@U__GEMABILITYKIND@CUltimateWeapon@@@1@QAU__GEMABILITYKIND@CUltimateWeapon@@ABU34@@Z DD 0ffffffffH
	DD	FLAT:__unwindfunclet$??$construct@U__GEMABILITYKIND@CUltimateWeapon@@ABU12@@?$_Default_allocator_traits@V?$allocator@U__GEMABILITYKIND@CUltimateWeapon@@@std@@@std@@SAXAAV?$allocator@U__GEMABILITYKIND@CUltimateWeapon@@@1@QAU__GEMABILITYKIND@CUltimateWeapon@@ABU34@@Z$1
	DD	00H
	DD	FLAT:__unwindfunclet$??$construct@U__GEMABILITYKIND@CUltimateWeapon@@ABU12@@?$_Default_allocator_traits@V?$allocator@U__GEMABILITYKIND@CUltimateWeapon@@@std@@@std@@SAXAAV?$allocator@U__GEMABILITYKIND@CUltimateWeapon@@@1@QAU__GEMABILITYKIND@CUltimateWeapon@@ABU34@@Z$2
__ehfuncinfo$??$construct@U__GEMABILITYKIND@CUltimateWeapon@@ABU12@@?$_Default_allocator_traits@V?$allocator@U__GEMABILITYKIND@CUltimateWeapon@@@std@@@std@@SAXAAV?$allocator@U__GEMABILITYKIND@CUltimateWeapon@@@1@QAU__GEMABILITYKIND@CUltimateWeapon@@ABU34@@Z DD 019930522H
	DD	02H
	DD	FLAT:__unwindtable$??$construct@U__GEMABILITYKIND@CUltimateWeapon@@ABU12@@?$_Default_allocator_traits@V?$allocator@U__GEMABILITYKIND@CUltimateWeapon@@@std@@@std@@SAXAAV?$allocator@U__GEMABILITYKIND@CUltimateWeapon@@@1@QAU__GEMABILITYKIND@CUltimateWeapon@@ABU34@@Z
	DD	2 DUP(00H)
	DD	2 DUP(00H)
	DD	00H
	DD	01H
xdata$x	ENDS
;	COMDAT xdata$x
xdata$x	SEGMENT
__unwindtable$??$_Emplace_reallocate@ABU__GEMABILITY@CUltimateWeapon@@@?$vector@U__GEMABILITY@CUltimateWeapon@@V?$allocator@U__GEMABILITY@CUltimateWeapon@@@std@@@std@@AAEPAU__GEMABILITY@CUltimateWeapon@@QAU23@ABU23@@Z DD 0ffffffffH
	DD	FLAT:__unwindfunclet$??$_Emplace_reallocate@ABU__GEMABILITY@CUltimateWeapon@@@?$vector@U__GEMABILITY@CUltimateWeapon@@V?$allocator@U__GEMABILITY@CUltimateWeapon@@@std@@@std@@AAEPAU__GEMABILITY@CUltimateWeapon@@QAU23@ABU23@@Z$0
__ehfuncinfo$??$_Emplace_reallocate@ABU__GEMABILITY@CUltimateWeapon@@@?$vector@U__GEMABILITY@CUltimateWeapon@@V?$allocator@U__GEMABILITY@CUltimateWeapon@@@std@@@std@@AAEPAU__GEMABILITY@CUltimateWeapon@@QAU23@ABU23@@Z DD 019930522H
	DD	01H
	DD	FLAT:__unwindtable$??$_Emplace_reallocate@ABU__GEMABILITY@CUltimateWeapon@@@?$vector@U__GEMABILITY@CUltimateWeapon@@V?$allocator@U__GEMABILITY@CUltimateWeapon@@@std@@@std@@AAEPAU__GEMABILITY@CUltimateWeapon@@QAU23@ABU23@@Z
	DD	2 DUP(00H)
	DD	2 DUP(00H)
	DD	00H
	DD	01H
xdata$x	ENDS
;	COMDAT xdata$x
xdata$x	SEGMENT
__unwindtable$??$_Uninitialized_copy_n@PAU__GEMABILITY@CUltimateWeapon@@V?$allocator@U__GEMABILITY@CUltimateWeapon@@@std@@@std@@YAPAU__GEMABILITY@CUltimateWeapon@@PAU12@I0AAV?$allocator@U__GEMABILITY@CUltimateWeapon@@@0@@Z DD 0ffffffffH
	DD	FLAT:__unwindfunclet$??$_Uninitialized_copy_n@PAU__GEMABILITY@CUltimateWeapon@@V?$allocator@U__GEMABILITY@CUltimateWeapon@@@std@@@std@@YAPAU__GEMABILITY@CUltimateWeapon@@PAU12@I0AAV?$allocator@U__GEMABILITY@CUltimateWeapon@@@0@@Z$0
__ehfuncinfo$??$_Uninitialized_copy_n@PAU__GEMABILITY@CUltimateWeapon@@V?$allocator@U__GEMABILITY@CUltimateWeapon@@@std@@@std@@YAPAU__GEMABILITY@CUltimateWeapon@@PAU12@I0AAV?$allocator@U__GEMABILITY@CUltimateWeapon@@@0@@Z DD 019930522H
	DD	01H
	DD	FLAT:__unwindtable$??$_Uninitialized_copy_n@PAU__GEMABILITY@CUltimateWeapon@@V?$allocator@U__GEMABILITY@CUltimateWeapon@@@std@@@std@@YAPAU__GEMABILITY@CUltimateWeapon@@PAU12@I0AAV?$allocator@U__GEMABILITY@CUltimateWeapon@@@0@@Z
	DD	2 DUP(00H)
	DD	2 DUP(00H)
	DD	00H
	DD	01H
xdata$x	ENDS
;	COMDAT xdata$x
xdata$x	SEGMENT
__unwindtable$??$_Emplace_reallocate@ABU__GEMABILITYKIND@CUltimateWeapon@@@?$vector@U__GEMABILITYKIND@CUltimateWeapon@@V?$allocator@U__GEMABILITYKIND@CUltimateWeapon@@@std@@@std@@AAEPAU__GEMABILITYKIND@CUltimateWeapon@@QAU23@ABU23@@Z DD 0ffffffffH
	DD	FLAT:__unwindfunclet$??$_Emplace_reallocate@ABU__GEMABILITYKIND@CUltimateWeapon@@@?$vector@U__GEMABILITYKIND@CUltimateWeapon@@V?$allocator@U__GEMABILITYKIND@CUltimateWeapon@@@std@@@std@@AAEPAU__GEMABILITYKIND@CUltimateWeapon@@QAU23@ABU23@@Z$0
__ehfuncinfo$??$_Emplace_reallocate@ABU__GEMABILITYKIND@CUltimateWeapon@@@?$vector@U__GEMABILITYKIND@CUltimateWeapon@@V?$allocator@U__GEMABILITYKIND@CUltimateWeapon@@@std@@@std@@AAEPAU__GEMABILITYKIND@CUltimateWeapon@@QAU23@ABU23@@Z DD 019930522H
	DD	01H
	DD	FLAT:__unwindtable$??$_Emplace_reallocate@ABU__GEMABILITYKIND@CUltimateWeapon@@@?$vector@U__GEMABILITYKIND@CUltimateWeapon@@V?$allocator@U__GEMABILITYKIND@CUltimateWeapon@@@std@@@std@@AAEPAU__GEMABILITYKIND@CUltimateWeapon@@QAU23@ABU23@@Z
	DD	2 DUP(00H)
	DD	2 DUP(00H)
	DD	00H
	DD	01H
xdata$x	ENDS
;	COMDAT xdata$x
xdata$x	SEGMENT
__unwindtable$??$?0U?$pair@$$CBKH@std@@@?$_Tree_temp_node@V?$allocator@U?$_Tree_node@U?$pair@$$CBKH@std@@PAX@std@@@std@@@std@@QAE@AAV?$allocator@U?$_Tree_node@U?$pair@$$CBKH@std@@PAX@std@@@1@PAU?$_Tree_node@U?$pair@$$CBKH@std@@PAX@1@$$QAU?$pair@$$CBKH@1@@Z DD 0ffffffffH
	DD	FLAT:__unwindfunclet$??$?0U?$pair@$$CBKH@std@@@?$_Tree_temp_node@V?$allocator@U?$_Tree_node@U?$pair@$$CBKH@std@@PAX@std@@@std@@@std@@QAE@AAV?$allocator@U?$_Tree_node@U?$pair@$$CBKH@std@@PAX@std@@@1@PAU?$_Tree_node@U?$pair@$$CBKH@std@@PAX@1@$$QAU?$pair@$$CBKH@1@@Z$1
__ehfuncinfo$??$?0U?$pair@$$CBKH@std@@@?$_Tree_temp_node@V?$allocator@U?$_Tree_node@U?$pair@$$CBKH@std@@PAX@std@@@std@@@std@@QAE@AAV?$allocator@U?$_Tree_node@U?$pair@$$CBKH@std@@PAX@std@@@1@PAU?$_Tree_node@U?$pair@$$CBKH@std@@PAX@1@$$QAU?$pair@$$CBKH@1@@Z DD 019930522H
	DD	01H
	DD	FLAT:__unwindtable$??$?0U?$pair@$$CBKH@std@@@?$_Tree_temp_node@V?$allocator@U?$_Tree_node@U?$pair@$$CBKH@std@@PAX@std@@@std@@@std@@QAE@AAV?$allocator@U?$_Tree_node@U?$pair@$$CBKH@std@@PAX@std@@@1@PAU?$_Tree_node@U?$pair@$$CBKH@std@@PAX@1@$$QAU?$pair@$$CBKH@1@@Z
	DD	2 DUP(00H)
	DD	2 DUP(00H)
	DD	00H
	DD	01H
xdata$x	ENDS
;	COMDAT xdata$x
xdata$x	SEGMENT
__unwindtable$??0?$_Tree_temp_node_alloc@V?$allocator@U?$_Tree_node@U?$pair@$$CBKH@std@@PAX@std@@@std@@@std@@QAE@AAV?$allocator@U?$_Tree_node@U?$pair@$$CBKH@std@@PAX@std@@@1@@Z DD 0ffffffffH
	DD	FLAT:__unwindfunclet$??0?$_Tree_temp_node_alloc@V?$allocator@U?$_Tree_node@U?$pair@$$CBKH@std@@PAX@std@@@std@@@std@@QAE@AAV?$allocator@U?$_Tree_node@U?$pair@$$CBKH@std@@PAX@std@@@1@@Z$0
__ehfuncinfo$??0?$_Tree_temp_node_alloc@V?$allocator@U?$_Tree_node@U?$pair@$$CBKH@std@@PAX@std@@@std@@@std@@QAE@AAV?$allocator@U?$_Tree_node@U?$pair@$$CBKH@std@@PAX@std@@@1@@Z DD 019930522H
	DD	01H
	DD	FLAT:__unwindtable$??0?$_Tree_temp_node_alloc@V?$allocator@U?$_Tree_node@U?$pair@$$CBKH@std@@PAX@std@@@std@@@std@@QAE@AAV?$allocator@U?$_Tree_node@U?$pair@$$CBKH@std@@PAX@std@@@1@@Z
	DD	2 DUP(00H)
	DD	2 DUP(00H)
	DD	00H
	DD	01H
xdata$x	ENDS
;	COMDAT xdata$x
xdata$x	SEGMENT
__unwindtable$??$?0U?$pair@$$CBHH@std@@@?$_Tree_temp_node@V?$allocator@U?$_Tree_node@U?$pair@$$CBHH@std@@PAX@std@@@std@@@std@@QAE@AAV?$allocator@U?$_Tree_node@U?$pair@$$CBHH@std@@PAX@std@@@1@PAU?$_Tree_node@U?$pair@$$CBHH@std@@PAX@1@$$QAU?$pair@$$CBHH@1@@Z DD 0ffffffffH
	DD	FLAT:__unwindfunclet$??$?0U?$pair@$$CBHH@std@@@?$_Tree_temp_node@V?$allocator@U?$_Tree_node@U?$pair@$$CBHH@std@@PAX@std@@@std@@@std@@QAE@AAV?$allocator@U?$_Tree_node@U?$pair@$$CBHH@std@@PAX@std@@@1@PAU?$_Tree_node@U?$pair@$$CBHH@std@@PAX@1@$$QAU?$pair@$$CBHH@1@@Z$1
__ehfuncinfo$??$?0U?$pair@$$CBHH@std@@@?$_Tree_temp_node@V?$allocator@U?$_Tree_node@U?$pair@$$CBHH@std@@PAX@std@@@std@@@std@@QAE@AAV?$allocator@U?$_Tree_node@U?$pair@$$CBHH@std@@PAX@std@@@1@PAU?$_Tree_node@U?$pair@$$CBHH@std@@PAX@1@$$QAU?$pair@$$CBHH@1@@Z DD 019930522H
	DD	01H
	DD	FLAT:__unwindtable$??$?0U?$pair@$$CBHH@std@@@?$_Tree_temp_node@V?$allocator@U?$_Tree_node@U?$pair@$$CBHH@std@@PAX@std@@@std@@@std@@QAE@AAV?$allocator@U?$_Tree_node@U?$pair@$$CBHH@std@@PAX@std@@@1@PAU?$_Tree_node@U?$pair@$$CBHH@std@@PAX@1@$$QAU?$pair@$$CBHH@1@@Z
	DD	2 DUP(00H)
	DD	2 DUP(00H)
	DD	00H
	DD	01H
xdata$x	ENDS
;	COMDAT xdata$x
xdata$x	SEGMENT
__unwindtable$??0?$_Tree_temp_node_alloc@V?$allocator@U?$_Tree_node@U?$pair@$$CBHH@std@@PAX@std@@@std@@@std@@QAE@AAV?$allocator@U?$_Tree_node@U?$pair@$$CBHH@std@@PAX@std@@@1@@Z DD 0ffffffffH
	DD	FLAT:__unwindfunclet$??0?$_Tree_temp_node_alloc@V?$allocator@U?$_Tree_node@U?$pair@$$CBHH@std@@PAX@std@@@std@@@std@@QAE@AAV?$allocator@U?$_Tree_node@U?$pair@$$CBHH@std@@PAX@std@@@1@@Z$0
__ehfuncinfo$??0?$_Tree_temp_node_alloc@V?$allocator@U?$_Tree_node@U?$pair@$$CBHH@std@@PAX@std@@@std@@@std@@QAE@AAV?$allocator@U?$_Tree_node@U?$pair@$$CBHH@std@@PAX@std@@@1@@Z DD 019930522H
	DD	01H
	DD	FLAT:__unwindtable$??0?$_Tree_temp_node_alloc@V?$allocator@U?$_Tree_node@U?$pair@$$CBHH@std@@PAX@std@@@std@@@std@@QAE@AAV?$allocator@U?$_Tree_node@U?$pair@$$CBHH@std@@PAX@std@@@1@@Z
	DD	2 DUP(00H)
	DD	2 DUP(00H)
	DD	00H
	DD	01H
xdata$x	ENDS
;	COMDAT xdata$x
xdata$x	SEGMENT
__unwindtable$??$?0U?$pair@$$CBHU__MAKEGEMPROB@CUltimateWeapon@@@std@@@?$_Tree_temp_node@V?$allocator@U?$_Tree_node@U?$pair@$$CBHU__MAKEGEMPROB@CUltimateWeapon@@@std@@PAX@std@@@std@@@std@@QAE@AAV?$allocator@U?$_Tree_node@U?$pair@$$CBHU__MAKEGEMPROB@CUltimateWeapon@@@std@@PAX@std@@@1@PAU?$_Tree_node@U?$pair@$$CBHU__MAKEGEMPROB@CUltimateWeapon@@@std@@PAX@1@$$QAU?$pair@$$CBHU__MAKEGEMPROB@CUltimateWeapon@@@1@@Z DD 0ffffffffH
	DD	FLAT:__unwindfunclet$??$?0U?$pair@$$CBHU__MAKEGEMPROB@CUltimateWeapon@@@std@@@?$_Tree_temp_node@V?$allocator@U?$_Tree_node@U?$pair@$$CBHU__MAKEGEMPROB@CUltimateWeapon@@@std@@PAX@std@@@std@@@std@@QAE@AAV?$allocator@U?$_Tree_node@U?$pair@$$CBHU__MAKEGEMPROB@CUltimateWeapon@@@std@@PAX@std@@@1@PAU?$_Tree_node@U?$pair@$$CBHU__MAKEGEMPROB@CUltimateWeapon@@@std@@PAX@1@$$QAU?$pair@$$CBHU__MAKEGEMPROB@CUltimateWeapon@@@1@@Z$1
__ehfuncinfo$??$?0U?$pair@$$CBHU__MAKEGEMPROB@CUltimateWeapon@@@std@@@?$_Tree_temp_node@V?$allocator@U?$_Tree_node@U?$pair@$$CBHU__MAKEGEMPROB@CUltimateWeapon@@@std@@PAX@std@@@std@@@std@@QAE@AAV?$allocator@U?$_Tree_node@U?$pair@$$CBHU__MAKEGEMPROB@CUltimateWeapon@@@std@@PAX@std@@@1@PAU?$_Tree_node@U?$pair@$$CBHU__MAKEGEMPROB@CUltimateWeapon@@@std@@PAX@1@$$QAU?$pair@$$CBHU__MAKEGEMPROB@CUltimateWeapon@@@1@@Z DD 019930522H
	DD	01H
	DD	FLAT:__unwindtable$??$?0U?$pair@$$CBHU__MAKEGEMPROB@CUltimateWeapon@@@std@@@?$_Tree_temp_node@V?$allocator@U?$_Tree_node@U?$pair@$$CBHU__MAKEGEMPROB@CUltimateWeapon@@@std@@PAX@std@@@std@@@std@@QAE@AAV?$allocator@U?$_Tree_node@U?$pair@$$CBHU__MAKEGEMPROB@CUltimateWeapon@@@std@@PAX@std@@@1@PAU?$_Tree_node@U?$pair@$$CBHU__MAKEGEMPROB@CUltimateWeapon@@@std@@PAX@1@$$QAU?$pair@$$CBHU__MAKEGEMPROB@CUltimateWeapon@@@1@@Z
	DD	2 DUP(00H)
	DD	2 DUP(00H)
	DD	00H
	DD	01H
xdata$x	ENDS
;	COMDAT xdata$x
xdata$x	SEGMENT
__unwindtable$??0?$_Tree_temp_node_alloc@V?$allocator@U?$_Tree_node@U?$pair@$$CBHU__MAKEGEMPROB@CUltimateWeapon@@@std@@PAX@std@@@std@@@std@@QAE@AAV?$allocator@U?$_Tree_node@U?$pair@$$CBHU__MAKEGEMPROB@CUltimateWeapon@@@std@@PAX@std@@@1@@Z DD 0ffffffffH
	DD	FLAT:__unwindfunclet$??0?$_Tree_temp_node_alloc@V?$allocator@U?$_Tree_node@U?$pair@$$CBHU__MAKEGEMPROB@CUltimateWeapon@@@std@@PAX@std@@@std@@@std@@QAE@AAV?$allocator@U?$_Tree_node@U?$pair@$$CBHU__MAKEGEMPROB@CUltimateWeapon@@@std@@PAX@std@@@1@@Z$0
__ehfuncinfo$??0?$_Tree_temp_node_alloc@V?$allocator@U?$_Tree_node@U?$pair@$$CBHU__MAKEGEMPROB@CUltimateWeapon@@@std@@PAX@std@@@std@@@std@@QAE@AAV?$allocator@U?$_Tree_node@U?$pair@$$CBHU__MAKEGEMPROB@CUltimateWeapon@@@std@@PAX@std@@@1@@Z DD 019930522H
	DD	01H
	DD	FLAT:__unwindtable$??0?$_Tree_temp_node_alloc@V?$allocator@U?$_Tree_node@U?$pair@$$CBHU__MAKEGEMPROB@CUltimateWeapon@@@std@@PAX@std@@@std@@@std@@QAE@AAV?$allocator@U?$_Tree_node@U?$pair@$$CBHU__MAKEGEMPROB@CUltimateWeapon@@@std@@PAX@std@@@1@@Z
	DD	2 DUP(00H)
	DD	2 DUP(00H)
	DD	00H
	DD	01H
xdata$x	ENDS
;	COMDAT xdata$x
xdata$x	SEGMENT
__unwindtable$??$_Assign_counted_range@PAU__GEMABILITY@CUltimateWeapon@@@?$vector@U__GEMABILITY@CUltimateWeapon@@V?$allocator@U__GEMABILITY@CUltimateWeapon@@@std@@@std@@AAEXPAU__GEMABILITY@CUltimateWeapon@@I@Z DD 0ffffffffH
	DD	FLAT:__unwindfunclet$??$_Assign_counted_range@PAU__GEMABILITY@CUltimateWeapon@@@?$vector@U__GEMABILITY@CUltimateWeapon@@V?$allocator@U__GEMABILITY@CUltimateWeapon@@@std@@@std@@AAEXPAU__GEMABILITY@CUltimateWeapon@@I@Z$1
__ehfuncinfo$??$_Assign_counted_range@PAU__GEMABILITY@CUltimateWeapon@@@?$vector@U__GEMABILITY@CUltimateWeapon@@V?$allocator@U__GEMABILITY@CUltimateWeapon@@@std@@@std@@AAEXPAU__GEMABILITY@CUltimateWeapon@@I@Z DD 019930522H
	DD	01H
	DD	FLAT:__unwindtable$??$_Assign_counted_range@PAU__GEMABILITY@CUltimateWeapon@@@?$vector@U__GEMABILITY@CUltimateWeapon@@V?$allocator@U__GEMABILITY@CUltimateWeapon@@@std@@@std@@AAEXPAU__GEMABILITY@CUltimateWeapon@@I@Z
	DD	2 DUP(00H)
	DD	2 DUP(00H)
	DD	00H
	DD	01H
xdata$x	ENDS
;	COMDAT xdata$x
xdata$x	SEGMENT
__unwindtable$??$_Emplace@U?$pair@$$CBKH@std@@@?$_Tree@V?$_Tmap_traits@KHU?$less@K@std@@V?$allocator@U?$pair@$$CBKH@std@@@2@$0A@@std@@@std@@IAE?AU?$pair@PAU?$_Tree_node@U?$pair@$$CBKH@std@@PAX@std@@_N@1@$$QAU?$pair@$$CBKH@1@@Z DD 0ffffffffH
	DD	FLAT:__unwindfunclet$??$_Emplace@U?$pair@$$CBKH@std@@@?$_Tree@V?$_Tmap_traits@KHU?$less@K@std@@V?$allocator@U?$pair@$$CBKH@std@@@2@$0A@@std@@@std@@IAE?AU?$pair@PAU?$_Tree_node@U?$pair@$$CBKH@std@@PAX@std@@_N@1@$$QAU?$pair@$$CBKH@1@@Z$2
__ehfuncinfo$??$_Emplace@U?$pair@$$CBKH@std@@@?$_Tree@V?$_Tmap_traits@KHU?$less@K@std@@V?$allocator@U?$pair@$$CBKH@std@@@2@$0A@@std@@@std@@IAE?AU?$pair@PAU?$_Tree_node@U?$pair@$$CBKH@std@@PAX@std@@_N@1@$$QAU?$pair@$$CBKH@1@@Z DD 019930522H
	DD	01H
	DD	FLAT:__unwindtable$??$_Emplace@U?$pair@$$CBKH@std@@@?$_Tree@V?$_Tmap_traits@KHU?$less@K@std@@V?$allocator@U?$pair@$$CBKH@std@@@2@$0A@@std@@@std@@IAE?AU?$pair@PAU?$_Tree_node@U?$pair@$$CBKH@std@@PAX@std@@_N@1@$$QAU?$pair@$$CBKH@1@@Z
	DD	2 DUP(00H)
	DD	2 DUP(00H)
	DD	00H
	DD	01H
xdata$x	ENDS
;	COMDAT xdata$x
xdata$x	SEGMENT
__unwindtable$??$_Emplace@U?$pair@$$CBHH@std@@@?$_Tree@V?$_Tmap_traits@HHU?$less@H@std@@V?$allocator@U?$pair@$$CBHH@std@@@2@$0A@@std@@@std@@IAE?AU?$pair@PAU?$_Tree_node@U?$pair@$$CBHH@std@@PAX@std@@_N@1@$$QAU?$pair@$$CBHH@1@@Z DD 0ffffffffH
	DD	FLAT:__unwindfunclet$??$_Emplace@U?$pair@$$CBHH@std@@@?$_Tree@V?$_Tmap_traits@HHU?$less@H@std@@V?$allocator@U?$pair@$$CBHH@std@@@2@$0A@@std@@@std@@IAE?AU?$pair@PAU?$_Tree_node@U?$pair@$$CBHH@std@@PAX@std@@_N@1@$$QAU?$pair@$$CBHH@1@@Z$2
__ehfuncinfo$??$_Emplace@U?$pair@$$CBHH@std@@@?$_Tree@V?$_Tmap_traits@HHU?$less@H@std@@V?$allocator@U?$pair@$$CBHH@std@@@2@$0A@@std@@@std@@IAE?AU?$pair@PAU?$_Tree_node@U?$pair@$$CBHH@std@@PAX@std@@_N@1@$$QAU?$pair@$$CBHH@1@@Z DD 019930522H
	DD	01H
	DD	FLAT:__unwindtable$??$_Emplace@U?$pair@$$CBHH@std@@@?$_Tree@V?$_Tmap_traits@HHU?$less@H@std@@V?$allocator@U?$pair@$$CBHH@std@@@2@$0A@@std@@@std@@IAE?AU?$pair@PAU?$_Tree_node@U?$pair@$$CBHH@std@@PAX@std@@_N@1@$$QAU?$pair@$$CBHH@1@@Z
	DD	2 DUP(00H)
	DD	2 DUP(00H)
	DD	00H
	DD	01H
xdata$x	ENDS
;	COMDAT xdata$x
xdata$x	SEGMENT
__unwindtable$??$_Emplace@U?$pair@$$CBHU__MAKEGEMPROB@CUltimateWeapon@@@std@@@?$_Tree@V?$_Tmap_traits@HU__MAKEGEMPROB@CUltimateWeapon@@U?$less@H@std@@V?$allocator@U?$pair@$$CBHU__MAKEGEMPROB@CUltimateWeapon@@@std@@@4@$0A@@std@@@std@@IAE?AU?$pair@PAU?$_Tree_node@U?$pair@$$CBHU__MAKEGEMPROB@CUltimateWeapon@@@std@@PAX@std@@_N@1@$$QAU?$pair@$$CBHU__MAKEGEMPROB@CUltimateWeapon@@@1@@Z DD 0ffffffffH
	DD	FLAT:__unwindfunclet$??$_Emplace@U?$pair@$$CBHU__MAKEGEMPROB@CUltimateWeapon@@@std@@@?$_Tree@V?$_Tmap_traits@HU__MAKEGEMPROB@CUltimateWeapon@@U?$less@H@std@@V?$allocator@U?$pair@$$CBHU__MAKEGEMPROB@CUltimateWeapon@@@std@@@4@$0A@@std@@@std@@IAE?AU?$pair@PAU?$_Tree_node@U?$pair@$$CBHU__MAKEGEMPROB@CUltimateWeapon@@@std@@PAX@std@@_N@1@$$QAU?$pair@$$CBHU__MAKEGEMPROB@CUltimateWeapon@@@1@@Z$2
__ehfuncinfo$??$_Emplace@U?$pair@$$CBHU__MAKEGEMPROB@CUltimateWeapon@@@std@@@?$_Tree@V?$_Tmap_traits@HU__MAKEGEMPROB@CUltimateWeapon@@U?$less@H@std@@V?$allocator@U?$pair@$$CBHU__MAKEGEMPROB@CUltimateWeapon@@@std@@@4@$0A@@std@@@std@@IAE?AU?$pair@PAU?$_Tree_node@U?$pair@$$CBHU__MAKEGEMPROB@CUltimateWeapon@@@std@@PAX@std@@_N@1@$$QAU?$pair@$$CBHU__MAKEGEMPROB@CUltimateWeapon@@@1@@Z DD 019930522H
	DD	01H
	DD	FLAT:__unwindtable$??$_Emplace@U?$pair@$$CBHU__MAKEGEMPROB@CUltimateWeapon@@@std@@@?$_Tree@V?$_Tmap_traits@HU__MAKEGEMPROB@CUltimateWeapon@@U?$less@H@std@@V?$allocator@U?$pair@$$CBHU__MAKEGEMPROB@CUltimateWeapon@@@std@@@4@$0A@@std@@@std@@IAE?AU?$pair@PAU?$_Tree_node@U?$pair@$$CBHU__MAKEGEMPROB@CUltimateWeapon@@@std@@PAX@std@@_N@1@$$QAU?$pair@$$CBHU__MAKEGEMPROB@CUltimateWeapon@@@1@@Z
	DD	2 DUP(00H)
	DD	2 DUP(00H)
	DD	00H
	DD	01H
xdata$x	ENDS
;	COMDAT xdata$x
xdata$x	SEGMENT
__unwindtable$??$insert@$0A@$0A@@?$_Tree@V?$_Tmap_traits@KHU?$less@K@std@@V?$allocator@U?$pair@$$CBKH@std@@@2@$0A@@std@@@std@@QAE?AU?$pair@V?$_Tree_iterator@V?$_Tree_val@U?$_Tree_simple_types@U?$pair@$$CBKH@std@@@std@@@std@@@std@@_N@1@$$QAU?$pair@$$CBKH@1@@Z DD 0ffffffffH
	DD	FLAT:__unwindfunclet$??$insert@$0A@$0A@@?$_Tree@V?$_Tmap_traits@KHU?$less@K@std@@V?$allocator@U?$pair@$$CBKH@std@@@2@$0A@@std@@@std@@QAE?AU?$pair@V?$_Tree_iterator@V?$_Tree_val@U?$_Tree_simple_types@U?$pair@$$CBKH@std@@@std@@@std@@@std@@_N@1@$$QAU?$pair@$$CBKH@1@@Z$2
__ehfuncinfo$??$insert@$0A@$0A@@?$_Tree@V?$_Tmap_traits@KHU?$less@K@std@@V?$allocator@U?$pair@$$CBKH@std@@@2@$0A@@std@@@std@@QAE?AU?$pair@V?$_Tree_iterator@V?$_Tree_val@U?$_Tree_simple_types@U?$pair@$$CBKH@std@@@std@@@std@@@std@@_N@1@$$QAU?$pair@$$CBKH@1@@Z DD 019930522H
	DD	01H
	DD	FLAT:__unwindtable$??$insert@$0A@$0A@@?$_Tree@V?$_Tmap_traits@KHU?$less@K@std@@V?$allocator@U?$pair@$$CBKH@std@@@2@$0A@@std@@@std@@QAE?AU?$pair@V?$_Tree_iterator@V?$_Tree_val@U?$_Tree_simple_types@U?$pair@$$CBKH@std@@@std@@@std@@@std@@_N@1@$$QAU?$pair@$$CBKH@1@@Z
	DD	2 DUP(00H)
	DD	2 DUP(00H)
	DD	00H
	DD	01H
xdata$x	ENDS
;	COMDAT xdata$x
xdata$x	SEGMENT
__unwindtable$??$insert@$0A@$0A@@?$_Tree@V?$_Tmap_traits@HHU?$less@H@std@@V?$allocator@U?$pair@$$CBHH@std@@@2@$0A@@std@@@std@@QAE?AU?$pair@V?$_Tree_iterator@V?$_Tree_val@U?$_Tree_simple_types@U?$pair@$$CBHH@std@@@std@@@std@@@std@@_N@1@$$QAU?$pair@$$CBHH@1@@Z DD 0ffffffffH
	DD	FLAT:__unwindfunclet$??$insert@$0A@$0A@@?$_Tree@V?$_Tmap_traits@HHU?$less@H@std@@V?$allocator@U?$pair@$$CBHH@std@@@2@$0A@@std@@@std@@QAE?AU?$pair@V?$_Tree_iterator@V?$_Tree_val@U?$_Tree_simple_types@U?$pair@$$CBHH@std@@@std@@@std@@@std@@_N@1@$$QAU?$pair@$$CBHH@1@@Z$2
__ehfuncinfo$??$insert@$0A@$0A@@?$_Tree@V?$_Tmap_traits@HHU?$less@H@std@@V?$allocator@U?$pair@$$CBHH@std@@@2@$0A@@std@@@std@@QAE?AU?$pair@V?$_Tree_iterator@V?$_Tree_val@U?$_Tree_simple_types@U?$pair@$$CBHH@std@@@std@@@std@@@std@@_N@1@$$QAU?$pair@$$CBHH@1@@Z DD 019930522H
	DD	01H
	DD	FLAT:__unwindtable$??$insert@$0A@$0A@@?$_Tree@V?$_Tmap_traits@HHU?$less@H@std@@V?$allocator@U?$pair@$$CBHH@std@@@2@$0A@@std@@@std@@QAE?AU?$pair@V?$_Tree_iterator@V?$_Tree_val@U?$_Tree_simple_types@U?$pair@$$CBHH@std@@@std@@@std@@@std@@_N@1@$$QAU?$pair@$$CBHH@1@@Z
	DD	2 DUP(00H)
	DD	2 DUP(00H)
	DD	00H
	DD	01H
xdata$x	ENDS
;	COMDAT xdata$x
xdata$x	SEGMENT
__unwindtable$??$insert@$0A@$0A@@?$_Tree@V?$_Tmap_traits@HU__MAKEGEMPROB@CUltimateWeapon@@U?$less@H@std@@V?$allocator@U?$pair@$$CBHU__MAKEGEMPROB@CUltimateWeapon@@@std@@@4@$0A@@std@@@std@@QAE?AU?$pair@V?$_Tree_iterator@V?$_Tree_val@U?$_Tree_simple_types@U?$pair@$$CBHU__MAKEGEMPROB@CUltimateWeapon@@@std@@@std@@@std@@@std@@_N@1@$$QAU?$pair@$$CBHU__MAKEGEMPROB@CUltimateWeapon@@@1@@Z DD 0ffffffffH
	DD	FLAT:__unwindfunclet$??$insert@$0A@$0A@@?$_Tree@V?$_Tmap_traits@HU__MAKEGEMPROB@CUltimateWeapon@@U?$less@H@std@@V?$allocator@U?$pair@$$CBHU__MAKEGEMPROB@CUltimateWeapon@@@std@@@4@$0A@@std@@@std@@QAE?AU?$pair@V?$_Tree_iterator@V?$_Tree_val@U?$_Tree_simple_types@U?$pair@$$CBHU__MAKEGEMPROB@CUltimateWeapon@@@std@@@std@@@std@@@std@@_N@1@$$QAU?$pair@$$CBHU__MAKEGEMPROB@CUltimateWeapon@@@1@@Z$2
__ehfuncinfo$??$insert@$0A@$0A@@?$_Tree@V?$_Tmap_traits@HU__MAKEGEMPROB@CUltimateWeapon@@U?$less@H@std@@V?$allocator@U?$pair@$$CBHU__MAKEGEMPROB@CUltimateWeapon@@@std@@@4@$0A@@std@@@std@@QAE?AU?$pair@V?$_Tree_iterator@V?$_Tree_val@U?$_Tree_simple_types@U?$pair@$$CBHU__MAKEGEMPROB@CUltimateWeapon@@@std@@@std@@@std@@@std@@_N@1@$$QAU?$pair@$$CBHU__MAKEGEMPROB@CUltimateWeapon@@@1@@Z DD 019930522H
	DD	01H
	DD	FLAT:__unwindtable$??$insert@$0A@$0A@@?$_Tree@V?$_Tmap_traits@HU__MAKEGEMPROB@CUltimateWeapon@@U?$less@H@std@@V?$allocator@U?$pair@$$CBHU__MAKEGEMPROB@CUltimateWeapon@@@std@@@4@$0A@@std@@@std@@QAE?AU?$pair@V?$_Tree_iterator@V?$_Tree_val@U?$_Tree_simple_types@U?$pair@$$CBHU__MAKEGEMPROB@CUltimateWeapon@@@std@@@std@@@std@@@std@@_N@1@$$QAU?$pair@$$CBHU__MAKEGEMPROB@CUltimateWeapon@@@1@@Z
	DD	2 DUP(00H)
	DD	2 DUP(00H)
	DD	00H
	DD	01H
xdata$x	ENDS
;	COMDAT xdata$x
xdata$x	SEGMENT
__unwindtable$??0CUltimateWeapon@@QAE@XZ DD 0ffffffffH
	DD	FLAT:__unwindfunclet$??0CUltimateWeapon@@QAE@XZ$0
	DD	00H
	DD	FLAT:__unwindfunclet$??0CUltimateWeapon@@QAE@XZ$1
	DD	01H
	DD	FLAT:__unwindfunclet$??0CUltimateWeapon@@QAE@XZ$2
__ehfuncinfo$??0CUltimateWeapon@@QAE@XZ DD 019930522H
	DD	03H
	DD	FLAT:__unwindtable$??0CUltimateWeapon@@QAE@XZ
	DD	2 DUP(00H)
	DD	2 DUP(00H)
	DD	00H
	DD	01H
xdata$x	ENDS
;	COMDAT xdata$x
xdata$x	SEGMENT
__unwindtable$?GetDST@CUltimateWeapon@@QAEHKHH@Z DD 0ffffffffH
	DD	FLAT:__unwindfunclet$?GetDST@CUltimateWeapon@@QAEHKHH@Z$0
__ehfuncinfo$?GetDST@CUltimateWeapon@@QAEHKHH@Z DD 019930522H
	DD	01H
	DD	FLAT:__unwindtable$?GetDST@CUltimateWeapon@@QAEHKHH@Z
	DD	2 DUP(00H)
	DD	2 DUP(00H)
	DD	00H
	DD	01H
xdata$x	ENDS
;	COMDAT xdata$x
xdata$x	SEGMENT
__unwindtable$?GetDestParamUltimate@CUltimateWeapon@@QAE?AV?$map@HHU?$less@H@std@@V?$allocator@U?$pair@$$CBHH@std@@@2@@std@@PAVCItemElem@@@Z DD 0ffffffffH
	DD	FLAT:__unwindfunclet$?GetDestParamUltimate@CUltimateWeapon@@QAE?AV?$map@HHU?$less@H@std@@V?$allocator@U?$pair@$$CBHH@std@@@2@@std@@PAVCItemElem@@@Z$0
	DD	00H
	DD	FLAT:__unwindfunclet$?GetDestParamUltimate@CUltimateWeapon@@QAE?AV?$map@HHU?$less@H@std@@V?$allocator@U?$pair@$$CBHH@std@@@2@@std@@PAVCItemElem@@@Z$1
	DD	01H
	DD	FLAT:__unwindfunclet$?GetDestParamUltimate@CUltimateWeapon@@QAE?AV?$map@HHU?$less@H@std@@V?$allocator@U?$pair@$$CBHH@std@@@2@@std@@PAVCItemElem@@@Z$5
__ehfuncinfo$?GetDestParamUltimate@CUltimateWeapon@@QAE?AV?$map@HHU?$less@H@std@@V?$allocator@U?$pair@$$CBHH@std@@@2@@std@@PAVCItemElem@@@Z DD 019930522H
	DD	03H
	DD	FLAT:__unwindtable$?GetDestParamUltimate@CUltimateWeapon@@QAE?AV?$map@HHU?$less@H@std@@V?$allocator@U?$pair@$$CBHH@std@@@2@@std@@PAVCItemElem@@@Z
	DD	2 DUP(00H)
	DD	2 DUP(00H)
	DD	00H
	DD	01H
xdata$x	ENDS
;	COMDAT xdata$x
xdata$x	SEGMENT
__unwindtable$?SetDestParamUltimate@CUltimateWeapon@@QAEXPAVCMover@@PAVCItemElem@@HK@Z DD 0ffffffffH
	DD	FLAT:__unwindfunclet$?SetDestParamUltimate@CUltimateWeapon@@QAEXPAVCMover@@PAVCItemElem@@HK@Z$0
__ehfuncinfo$?SetDestParamUltimate@CUltimateWeapon@@QAEXPAVCMover@@PAVCItemElem@@HK@Z DD 019930522H
	DD	01H
	DD	FLAT:__unwindtable$?SetDestParamUltimate@CUltimateWeapon@@QAEXPAVCMover@@PAVCItemElem@@HK@Z
	DD	2 DUP(00H)
	DD	2 DUP(00H)
	DD	00H
	DD	01H
xdata$x	ENDS
;	COMDAT xdata$x
xdata$x	SEGMENT
__ehfuncinfo$?TransWeapon@CUltimateWeapon@@QAEHPAVCUser@@KKK@Z DD 019930522H
	DD	08H
	DD	FLAT:__unwindtable$?TransWeapon@CUltimateWeapon@@QAEHPAVCUser@@KKK@Z
	DD	2 DUP(00H)
	DD	2 DUP(00H)
	DD	00H
	DD	01H
__unwindtable$?TransWeapon@CUltimateWeapon@@QAEHPAVCUser@@KKK@Z DD 0ffffffffH
	DD	FLAT:__unwindfunclet$?TransWeapon@CUltimateWeapon@@QAEHPAVCUser@@KKK@Z$7
	DD	0ffffffffH
	DD	FLAT:__unwindfunclet$?TransWeapon@CUltimateWeapon@@QAEHPAVCUser@@KKK@Z$0
	DD	01H
	DD	FLAT:__unwindfunclet$?TransWeapon@CUltimateWeapon@@QAEHPAVCUser@@KKK@Z$1
	DD	02H
	DD	FLAT:__unwindfunclet$?TransWeapon@CUltimateWeapon@@QAEHPAVCUser@@KKK@Z$2
	DD	02H
	DD	FLAT:__unwindfunclet$?TransWeapon@CUltimateWeapon@@QAEHPAVCUser@@KKK@Z$3
	DD	04H
	DD	FLAT:__unwindfunclet$?TransWeapon@CUltimateWeapon@@QAEHPAVCUser@@KKK@Z$4
	DD	02H
	DD	FLAT:__unwindfunclet$?TransWeapon@CUltimateWeapon@@QAEHPAVCUser@@KKK@Z$5
	DD	02H
	DD	FLAT:__unwindfunclet$?TransWeapon@CUltimateWeapon@@QAEHPAVCUser@@KKK@Z$6
xdata$x	ENDS
;	COMDAT xdata$x
xdata$x	SEGMENT
__ehfuncinfo$?MakeItem@CUltimateWeapon@@QAEHPAVCUser@@PAK@Z DD 019930522H
	DD	06H
	DD	FLAT:__unwindtable$?MakeItem@CUltimateWeapon@@QAEHPAVCUser@@PAK@Z
	DD	2 DUP(00H)
	DD	2 DUP(00H)
	DD	00H
	DD	01H
__unwindtable$?MakeItem@CUltimateWeapon@@QAEHPAVCUser@@PAK@Z DD 0ffffffffH
	DD	FLAT:__unwindfunclet$?MakeItem@CUltimateWeapon@@QAEHPAVCUser@@PAK@Z$0
	DD	00H
	DD	FLAT:__unwindfunclet$?MakeItem@CUltimateWeapon@@QAEHPAVCUser@@PAK@Z$1
	DD	01H
	DD	FLAT:__unwindfunclet$?MakeItem@CUltimateWeapon@@QAEHPAVCUser@@PAK@Z$13
	DD	01H
	DD	FLAT:__unwindfunclet$?MakeItem@CUltimateWeapon@@QAEHPAVCUser@@PAK@Z$8
	DD	01H
	DD	FLAT:__unwindfunclet$?MakeItem@CUltimateWeapon@@QAEHPAVCUser@@PAK@Z$2
	DD	04H
	DD	FLAT:__unwindfunclet$?MakeItem@CUltimateWeapon@@QAEHPAVCUser@@PAK@Z$3
xdata$x	ENDS
;	COMDAT xdata$x
xdata$x	SEGMENT
__unwindtable$?MakeGem@CUltimateWeapon@@QAEHPAVCUser@@KAAH@Z DD 0ffffffffH
	DD	FLAT:__unwindfunclet$?MakeGem@CUltimateWeapon@@QAEHPAVCUser@@KAAH@Z$0
	DD	00H
	DD	FLAT:__unwindfunclet$?MakeGem@CUltimateWeapon@@QAEHPAVCUser@@KAAH@Z$1
__ehfuncinfo$?MakeGem@CUltimateWeapon@@QAEHPAVCUser@@KAAH@Z DD 019930522H
	DD	02H
	DD	FLAT:__unwindtable$?MakeGem@CUltimateWeapon@@QAEHPAVCUser@@KAAH@Z
	DD	2 DUP(00H)
	DD	2 DUP(00H)
	DD	00H
	DD	01H
xdata$x	ENDS
;	COMDAT xdata$x
xdata$x	SEGMENT
__unwindtable$?Load_UltimateWeapon@CUltimateWeapon@@QAEHXZ DD 0ffffffffH
	DD	FLAT:__unwindfunclet$?Load_UltimateWeapon@CUltimateWeapon@@QAEHXZ$0
	DD	00H
	DD	FLAT:__unwindfunclet$?Load_UltimateWeapon@CUltimateWeapon@@QAEHXZ$3
__ehfuncinfo$?Load_UltimateWeapon@CUltimateWeapon@@QAEHXZ DD 019930522H
	DD	02H
	DD	FLAT:__unwindtable$?Load_UltimateWeapon@CUltimateWeapon@@QAEHXZ
	DD	2 DUP(00H)
	DD	2 DUP(00H)
	DD	00H
	DD	01H
xdata$x	ENDS
;	COMDAT xdata$x
xdata$x	SEGMENT
__unwindtable$?Load_GemAbility@CUltimateWeapon@@QAEHXZ DD 0ffffffffH
	DD	FLAT:__unwindfunclet$?Load_GemAbility@CUltimateWeapon@@QAEHXZ$0
	DD	00H
	DD	FLAT:__unwindfunclet$?Load_GemAbility@CUltimateWeapon@@QAEHXZ$1
	DD	01H
	DD	FLAT:__unwindfunclet$?Load_GemAbility@CUltimateWeapon@@QAEHXZ$2
__ehfuncinfo$?Load_GemAbility@CUltimateWeapon@@QAEHXZ DD 019930522H
	DD	03H
	DD	FLAT:__unwindtable$?Load_GemAbility@CUltimateWeapon@@QAEHXZ
	DD	2 DUP(00H)
	DD	2 DUP(00H)
	DD	00H
	DD	01H
xdata$x	ENDS
;	COMDAT xdata$x
xdata$x	SEGMENT
__unwindtable$??0__GEMABILITYKIND@CUltimateWeapon@@QAE@ABU01@@Z DD 0ffffffffH
	DD	FLAT:__unwindfunclet$??0__GEMABILITYKIND@CUltimateWeapon@@QAE@ABU01@@Z$1
	DD	00H
	DD	FLAT:__unwindfunclet$??0__GEMABILITYKIND@CUltimateWeapon@@QAE@ABU01@@Z$2
__ehfuncinfo$??0__GEMABILITYKIND@CUltimateWeapon@@QAE@ABU01@@Z DD 019930522H
	DD	02H
	DD	FLAT:__unwindtable$??0__GEMABILITYKIND@CUltimateWeapon@@QAE@ABU01@@Z
	DD	2 DUP(00H)
	DD	2 DUP(00H)
	DD	00H
	DD	01H
xdata$x	ENDS
;	COMDAT xdata$x
xdata$x	SEGMENT
__unwindtable$??0?$vector@U__GEMABILITY@CUltimateWeapon@@V?$allocator@U__GEMABILITY@CUltimateWeapon@@@std@@@std@@QAE@ABV01@@Z DD 0ffffffffH
	DD	FLAT:__unwindfunclet$??0?$vector@U__GEMABILITY@CUltimateWeapon@@V?$allocator@U__GEMABILITY@CUltimateWeapon@@@std@@@std@@QAE@ABV01@@Z$0
	DD	00H
	DD	FLAT:__unwindfunclet$??0?$vector@U__GEMABILITY@CUltimateWeapon@@V?$allocator@U__GEMABILITY@CUltimateWeapon@@@std@@@std@@QAE@ABV01@@Z$1
__ehfuncinfo$??0?$vector@U__GEMABILITY@CUltimateWeapon@@V?$allocator@U__GEMABILITY@CUltimateWeapon@@@std@@@std@@QAE@ABV01@@Z DD 019930522H
	DD	02H
	DD	FLAT:__unwindtable$??0?$vector@U__GEMABILITY@CUltimateWeapon@@V?$allocator@U__GEMABILITY@CUltimateWeapon@@@std@@@std@@QAE@ABV01@@Z
	DD	2 DUP(00H)
	DD	2 DUP(00H)
	DD	00H
	DD	01H
xdata$x	ENDS
;	COMDAT xdata$x
xdata$x	SEGMENT
__unwindtable$??HATL@@YA?AV?$CStringT@DV?$StrTraitMFC@DV?$ChTraitsCRT@D@ATL@@@@@0@ABV10@PBD@Z DD 0ffffffffH
	DD	FLAT:__unwindfunclet$??HATL@@YA?AV?$CStringT@DV?$StrTraitMFC@DV?$ChTraitsCRT@D@ATL@@@@@0@ABV10@PBD@Z$0
__ehfuncinfo$??HATL@@YA?AV?$CStringT@DV?$StrTraitMFC@DV?$ChTraitsCRT@D@ATL@@@@@0@ABV10@PBD@Z DD 019930522H
	DD	01H
	DD	FLAT:__unwindtable$??HATL@@YA?AV?$CStringT@DV?$StrTraitMFC@DV?$ChTraitsCRT@D@ATL@@@@@0@ABV10@PBD@Z
	DD	2 DUP(00H)
	DD	2 DUP(00H)
	DD	00H
	DD	01H
xdata$x	ENDS
;	COMDAT xdata$x
xdata$x	SEGMENT
__unwindtable$??0?$CStringT@DV?$StrTraitMFC@DV?$ChTraitsCRT@D@ATL@@@@@ATL@@QAE@PBD@Z DD 0ffffffffH
	DD	FLAT:__unwindfunclet$??0?$CStringT@DV?$StrTraitMFC@DV?$ChTraitsCRT@D@ATL@@@@@ATL@@QAE@PBD@Z$0
__ehfuncinfo$??0?$CStringT@DV?$StrTraitMFC@DV?$ChTraitsCRT@D@ATL@@@@@ATL@@QAE@PBD@Z DD 019930522H
	DD	01H
	DD	FLAT:__unwindtable$??0?$CStringT@DV?$StrTraitMFC@DV?$ChTraitsCRT@D@ATL@@@@@ATL@@QAE@PBD@Z
	DD	2 DUP(00H)
	DD	2 DUP(00H)
	DD	00H
	DD	01H
xdata$x	ENDS
; Function compile flags: /Ogtp
; File C:\Program Files\Microsoft Visual Studio\2022\Professional\VC\Tools\MSVC\14.44.35207\include\xmemory
;	COMDAT ??1?$_Tidy_guard@V?$vector@U__GEMABILITY@CUltimateWeapon@@V?$allocator@U__GEMABILITY@CUltimateWeapon@@@std@@@std@@@std@@QAE@XZ
_TEXT	SEGMENT
??1?$_Tidy_guard@V?$vector@U__GEMABILITY@CUltimateWeapon@@V?$allocator@U__GEMABILITY@CUltimateWeapon@@@std@@@std@@@std@@QAE@XZ PROC ; std::_Tidy_guard<std::vector<CUltimateWeapon::__GEMABILITY,std::allocator<CUltimateWeapon::__GEMABILITY> > >::~_Tidy_guard<std::vector<CUltimateWeapon::__GEMABILITY,std::allocator<CUltimateWeapon::__GEMABILITY> > >, COMDAT
; _this$ = ecx

; 87   :         if (_Target) {

  00000	8b 09		 mov	 ecx, DWORD PTR [ecx]
  00002	85 c9		 test	 ecx, ecx
  00004	0f 85 00 00 00
	00		 jne	 ?_Tidy@?$vector@U__GEMABILITY@CUltimateWeapon@@V?$allocator@U__GEMABILITY@CUltimateWeapon@@@std@@@std@@AAEXXZ ; std::vector<CUltimateWeapon::__GEMABILITY,std::allocator<CUltimateWeapon::__GEMABILITY> >::_Tidy

; 88   :             _Target->_Tidy();
; 89   :         }
; 90   :     }

  0000a	c3		 ret	 0
??1?$_Tidy_guard@V?$vector@U__GEMABILITY@CUltimateWeapon@@V?$allocator@U__GEMABILITY@CUltimateWeapon@@@std@@@std@@@std@@QAE@XZ ENDP ; std::_Tidy_guard<std::vector<CUltimateWeapon::__GEMABILITY,std::allocator<CUltimateWeapon::__GEMABILITY> > >::~_Tidy_guard<std::vector<CUltimateWeapon::__GEMABILITY,std::allocator<CUltimateWeapon::__GEMABILITY> > >
_TEXT	ENDS
; Function compile flags: /Ogtp
; File C:\Program Files\Microsoft Visual Studio\2022\Professional\VC\Tools\MSVC\14.44.35207\include\xutility
;	COMDAT ??$_Copy_memmove_tail@PAH@std@@YAPAHQBDQAHII@Z
_TEXT	SEGMENT
__First_ch$ = 8						; size = 4
__Dest$ = 12						; size = 4
__Byte_count$ = 16					; size = 4
__Object_count$ = 20					; size = 4
??$_Copy_memmove_tail@PAH@std@@YAPAHQBDQAHII@Z PROC	; std::_Copy_memmove_tail<int *>, COMDAT

; 4747 :     const char* const _First_ch, const _OutCtgIt _Dest, const size_t _Byte_count, const size_t _Object_count) {

  00000	55		 push	 ebp
  00001	8b ec		 mov	 ebp, esp
  00003	56		 push	 esi

; 4748 :     _STL_INTERNAL_CHECK(_Byte_count == _Object_count * sizeof(*_Dest));
; 4749 :     const auto _Dest_ptr = _STD _To_address(_Dest);
; 4750 :     const auto _Dest_ch  = const_cast<char*>(reinterpret_cast<const volatile char*>(_Dest_ptr));
; 4751 :     _CSTD memmove(_Dest_ch, _First_ch, _Byte_count);

  00004	8b 75 0c	 mov	 esi, DWORD PTR __Dest$[ebp]
  00007	57		 push	 edi
  00008	8b 7d 10	 mov	 edi, DWORD PTR __Byte_count$[ebp]
  0000b	57		 push	 edi
  0000c	ff 75 08	 push	 DWORD PTR __First_ch$[ebp]
  0000f	56		 push	 esi
  00010	e8 00 00 00 00	 call	 _memmove
  00015	83 c4 0c	 add	 esp, 12			; 0000000cH

; 4752 :     if constexpr (is_pointer_v<_OutCtgIt>) {
; 4753 :         (void) _Object_count;
; 4754 :         // CodeQL [SM02986] This cast is correct: we're bypassing pointer arithmetic for performance.
; 4755 :         return reinterpret_cast<_OutCtgIt>(_Dest_ch + _Byte_count);

  00018	8d 04 3e	 lea	 eax, DWORD PTR [esi+edi]
  0001b	5f		 pop	 edi
  0001c	5e		 pop	 esi

; 4756 :     } else {
; 4757 :         return _Dest + static_cast<_Iter_diff_t<_OutCtgIt>>(_Object_count);
; 4758 :     }
; 4759 : }

  0001d	5d		 pop	 ebp
  0001e	c3		 ret	 0
??$_Copy_memmove_tail@PAH@std@@YAPAHQBDQAHII@Z ENDP	; std::_Copy_memmove_tail<int *>
_TEXT	ENDS
; Function compile flags: /Ogtp
; File C:\Program Files\Microsoft Visual Studio\2022\Professional\VC\Tools\MSVC\14.44.35207\include\xutility
;	COMDAT ??$_Copy_memmove_tail@PAU__MAKEGEMITEM@CUltimateWeapon@@@std@@YAPAU__MAKEGEMITEM@CUltimateWeapon@@QBDQAU12@II@Z
_TEXT	SEGMENT
__First_ch$ = 8						; size = 4
__Dest$ = 12						; size = 4
__Byte_count$ = 16					; size = 4
__Object_count$ = 20					; size = 4
??$_Copy_memmove_tail@PAU__MAKEGEMITEM@CUltimateWeapon@@@std@@YAPAU__MAKEGEMITEM@CUltimateWeapon@@QBDQAU12@II@Z PROC ; std::_Copy_memmove_tail<CUltimateWeapon::__MAKEGEMITEM *>, COMDAT

; 4747 :     const char* const _First_ch, const _OutCtgIt _Dest, const size_t _Byte_count, const size_t _Object_count) {

  00000	55		 push	 ebp
  00001	8b ec		 mov	 ebp, esp
  00003	56		 push	 esi

; 4748 :     _STL_INTERNAL_CHECK(_Byte_count == _Object_count * sizeof(*_Dest));
; 4749 :     const auto _Dest_ptr = _STD _To_address(_Dest);
; 4750 :     const auto _Dest_ch  = const_cast<char*>(reinterpret_cast<const volatile char*>(_Dest_ptr));
; 4751 :     _CSTD memmove(_Dest_ch, _First_ch, _Byte_count);

  00004	8b 75 0c	 mov	 esi, DWORD PTR __Dest$[ebp]
  00007	57		 push	 edi
  00008	8b 7d 10	 mov	 edi, DWORD PTR __Byte_count$[ebp]
  0000b	57		 push	 edi
  0000c	ff 75 08	 push	 DWORD PTR __First_ch$[ebp]
  0000f	56		 push	 esi
  00010	e8 00 00 00 00	 call	 _memmove
  00015	83 c4 0c	 add	 esp, 12			; 0000000cH

; 4752 :     if constexpr (is_pointer_v<_OutCtgIt>) {
; 4753 :         (void) _Object_count;
; 4754 :         // CodeQL [SM02986] This cast is correct: we're bypassing pointer arithmetic for performance.
; 4755 :         return reinterpret_cast<_OutCtgIt>(_Dest_ch + _Byte_count);

  00018	8d 04 3e	 lea	 eax, DWORD PTR [esi+edi]
  0001b	5f		 pop	 edi
  0001c	5e		 pop	 esi

; 4756 :     } else {
; 4757 :         return _Dest + static_cast<_Iter_diff_t<_OutCtgIt>>(_Object_count);
; 4758 :     }
; 4759 : }

  0001d	5d		 pop	 ebp
  0001e	c3		 ret	 0
??$_Copy_memmove_tail@PAU__MAKEGEMITEM@CUltimateWeapon@@@std@@YAPAU__MAKEGEMITEM@CUltimateWeapon@@QBDQAU12@II@Z ENDP ; std::_Copy_memmove_tail<CUltimateWeapon::__MAKEGEMITEM *>
_TEXT	ENDS
; Function compile flags: /Ogtp
; File C:\Program Files\Microsoft Visual Studio\2022\Professional\VC\Tools\MSVC\14.44.35207\include\xutility
;	COMDAT ??$_Copy_memmove_n@PAHPAH@std@@YAPAHPAHI0@Z
_TEXT	SEGMENT
__First$ = 8						; size = 4
__Object_count$ = 12					; size = 4
__Dest$ = 16						; size = 4
??$_Copy_memmove_n@PAHPAH@std@@YAPAHPAHI0@Z PROC	; std::_Copy_memmove_n<int *,int *>, COMDAT

; 4774 : _OutCtgIt _Copy_memmove_n(_CtgIt _First, const size_t _Object_count, _OutCtgIt _Dest) {

  00000	55		 push	 ebp
  00001	8b ec		 mov	 ebp, esp

; 4775 :     const auto _First_ptr  = _STD _To_address(_First);
; 4776 :     const auto _First_ch   = const_cast<const char*>(reinterpret_cast<const volatile char*>(_First_ptr));
; 4777 :     const auto _Byte_count = _Object_count * sizeof(*_First_ptr);
; 4778 :     return _STD _Copy_memmove_tail(_First_ch, _STD move(_Dest), _Byte_count, _Object_count);

  00003	8b 45 0c	 mov	 eax, DWORD PTR __Object_count$[ebp]
  00006	50		 push	 eax
  00007	c1 e0 02	 shl	 eax, 2
  0000a	50		 push	 eax
  0000b	ff 75 10	 push	 DWORD PTR __Dest$[ebp]
  0000e	ff 75 08	 push	 DWORD PTR __First$[ebp]
  00011	e8 00 00 00 00	 call	 ??$_Copy_memmove_tail@PAH@std@@YAPAHQBDQAHII@Z ; std::_Copy_memmove_tail<int *>
  00016	83 c4 10	 add	 esp, 16			; 00000010H

; 4779 : }

  00019	5d		 pop	 ebp
  0001a	c3		 ret	 0
??$_Copy_memmove_n@PAHPAH@std@@YAPAHPAHI0@Z ENDP	; std::_Copy_memmove_n<int *,int *>
_TEXT	ENDS
; Function compile flags: /Ogtp
; File C:\Program Files\Microsoft Visual Studio\2022\Professional\VC\Tools\MSVC\14.44.35207\include\xutility
;	COMDAT ??$_Copy_memmove@PAHPAH@std@@YAPAHPAH00@Z
_TEXT	SEGMENT
__First$ = 8						; size = 4
__Last$ = 12						; size = 4
__Dest$ = 16						; size = 4
??$_Copy_memmove@PAHPAH@std@@YAPAHPAH00@Z PROC		; std::_Copy_memmove<int *,int *>, COMDAT

; 4762 : _OutCtgIt _Copy_memmove(_CtgIt _First, _CtgIt _Last, _OutCtgIt _Dest) {

  00000	55		 push	 ebp
  00001	8b ec		 mov	 ebp, esp

; 4763 :     _STL_INTERNAL_CHECK(_First <= _Last);
; 4764 :     const auto _First_ptr    = _STD _To_address(_First);
; 4765 :     const auto _Last_ptr     = _STD _To_address(_Last);
; 4766 :     const auto _Object_count = static_cast<size_t>(_Last_ptr - _First_ptr);

  00003	8b 55 08	 mov	 edx, DWORD PTR __First$[ebp]
  00006	8b 4d 0c	 mov	 ecx, DWORD PTR __Last$[ebp]
  00009	2b ca		 sub	 ecx, edx
  0000b	8b c1		 mov	 eax, ecx
  0000d	c1 f8 02	 sar	 eax, 2

; 4767 :     const auto _First_ch     = const_cast<const char*>(reinterpret_cast<const volatile char*>(_First_ptr));
; 4768 :     const auto _Last_ch      = const_cast<const char*>(reinterpret_cast<const volatile char*>(_Last_ptr));
; 4769 :     const auto _Byte_count   = static_cast<size_t>(_Last_ch - _First_ch);
; 4770 :     return _STD _Copy_memmove_tail(_First_ch, _STD move(_Dest), _Byte_count, _Object_count);

  00010	50		 push	 eax
  00011	51		 push	 ecx
  00012	ff 75 10	 push	 DWORD PTR __Dest$[ebp]
  00015	52		 push	 edx
  00016	e8 00 00 00 00	 call	 ??$_Copy_memmove_tail@PAH@std@@YAPAHQBDQAHII@Z ; std::_Copy_memmove_tail<int *>
  0001b	83 c4 10	 add	 esp, 16			; 00000010H

; 4771 : }

  0001e	5d		 pop	 ebp
  0001f	c3		 ret	 0
??$_Copy_memmove@PAHPAH@std@@YAPAHPAH00@Z ENDP		; std::_Copy_memmove<int *,int *>
_TEXT	ENDS
; Function compile flags: /Ogtp
; File C:\Program Files\Microsoft Visual Studio\2022\Professional\VC\Tools\MSVC\14.44.35207\include\xutility
;	COMDAT ??$_Copy_memmove@PAU__MAKEGEMITEM@CUltimateWeapon@@PAU12@@std@@YAPAU__MAKEGEMITEM@CUltimateWeapon@@PAU12@00@Z
_TEXT	SEGMENT
__First$ = 8						; size = 4
__Last$ = 12						; size = 4
__Dest$ = 16						; size = 4
??$_Copy_memmove@PAU__MAKEGEMITEM@CUltimateWeapon@@PAU12@@std@@YAPAU__MAKEGEMITEM@CUltimateWeapon@@PAU12@00@Z PROC ; std::_Copy_memmove<CUltimateWeapon::__MAKEGEMITEM *,CUltimateWeapon::__MAKEGEMITEM *>, COMDAT

; 4762 : _OutCtgIt _Copy_memmove(_CtgIt _First, _CtgIt _Last, _OutCtgIt _Dest) {

  00000	55		 push	 ebp
  00001	8b ec		 mov	 ebp, esp

; 4763 :     _STL_INTERNAL_CHECK(_First <= _Last);
; 4764 :     const auto _First_ptr    = _STD _To_address(_First);
; 4765 :     const auto _Last_ptr     = _STD _To_address(_Last);
; 4766 :     const auto _Object_count = static_cast<size_t>(_Last_ptr - _First_ptr);

  00003	8b 4d 0c	 mov	 ecx, DWORD PTR __Last$[ebp]
  00006	b8 ab aa aa 2a	 mov	 eax, 715827883		; 2aaaaaabH
  0000b	2b 4d 08	 sub	 ecx, DWORD PTR __First$[ebp]
  0000e	f7 e9		 imul	 ecx
  00010	d1 fa		 sar	 edx, 1
  00012	8b c2		 mov	 eax, edx
  00014	c1 e8 1f	 shr	 eax, 31			; 0000001fH
  00017	03 c2		 add	 eax, edx

; 4767 :     const auto _First_ch     = const_cast<const char*>(reinterpret_cast<const volatile char*>(_First_ptr));
; 4768 :     const auto _Last_ch      = const_cast<const char*>(reinterpret_cast<const volatile char*>(_Last_ptr));
; 4769 :     const auto _Byte_count   = static_cast<size_t>(_Last_ch - _First_ch);
; 4770 :     return _STD _Copy_memmove_tail(_First_ch, _STD move(_Dest), _Byte_count, _Object_count);

  00019	50		 push	 eax
  0001a	51		 push	 ecx
  0001b	ff 75 10	 push	 DWORD PTR __Dest$[ebp]
  0001e	ff 75 08	 push	 DWORD PTR __First$[ebp]
  00021	e8 00 00 00 00	 call	 ??$_Copy_memmove_tail@PAU__MAKEGEMITEM@CUltimateWeapon@@@std@@YAPAU__MAKEGEMITEM@CUltimateWeapon@@QBDQAU12@II@Z ; std::_Copy_memmove_tail<CUltimateWeapon::__MAKEGEMITEM *>
  00026	83 c4 10	 add	 esp, 16			; 00000010H

; 4771 : }

  00029	5d		 pop	 ebp
  0002a	c3		 ret	 0
??$_Copy_memmove@PAU__MAKEGEMITEM@CUltimateWeapon@@PAU12@@std@@YAPAU__MAKEGEMITEM@CUltimateWeapon@@PAU12@00@Z ENDP ; std::_Copy_memmove<CUltimateWeapon::__MAKEGEMITEM *,CUltimateWeapon::__MAKEGEMITEM *>
_TEXT	ENDS
; Function compile flags: /Ogtp
; File C:\Program Files\Microsoft Visual Studio\2022\Professional\VC\Tools\MSVC\14.44.35207\include\xmemory
; File C:\Program Files\Microsoft Visual Studio\2022\Professional\VC\Tools\MSVC\14.44.35207\include\utility
; File C:\Program Files\Microsoft Visual Studio\2022\Professional\VC\Tools\MSVC\14.44.35207\include\vector
; File C:\Program Files\Microsoft Visual Studio\2022\Professional\VC\Tools\MSVC\14.44.35207\include\xmemory
; File C:\Program Files\Microsoft Visual Studio\2022\Professional\VC\Tools\MSVC\14.44.35207\include\vector
; File C:\Program Files\Microsoft Visual Studio\2022\Professional\VC\Tools\MSVC\14.44.35207\include\xmemory
;	COMDAT ??$_Uninitialized_move@PAU__GEMABILITY@CUltimateWeapon@@V?$allocator@U__GEMABILITY@CUltimateWeapon@@@std@@@std@@YAPAU__GEMABILITY@CUltimateWeapon@@QAU12@0PAU12@AAV?$allocator@U__GEMABILITY@CUltimateWeapon@@@0@@Z
_TEXT	SEGMENT
__First$ = 8						; size = 4
__Last$ = 12						; size = 4
__Dest$ = 16						; size = 4
__Al$ = 20						; size = 4
??$_Uninitialized_move@PAU__GEMABILITY@CUltimateWeapon@@V?$allocator@U__GEMABILITY@CUltimateWeapon@@@std@@@std@@YAPAU__GEMABILITY@CUltimateWeapon@@QAU12@0PAU12@AAV?$allocator@U__GEMABILITY@CUltimateWeapon@@@0@@Z PROC ; std::_Uninitialized_move<CUltimateWeapon::__GEMABILITY *,std::allocator<CUltimateWeapon::__GEMABILITY> >, COMDAT

; 1977 :     const _InIt _First, const _InIt _Last, _Alloc_ptr_t<_Alloc> _Dest, _Alloc& _Al) {

  00000	55		 push	 ebp
  00001	8b ec		 mov	 ebp, esp

; 1998 :     for (; _UFirst != _ULast; ++_UFirst) {

  00003	8b 45 08	 mov	 eax, DWORD PTR __First$[ebp]
  00006	57		 push	 edi

; 1833 :     _CONSTEXPR20 _Uninitialized_backout_al(pointer _Dest, _Alloc& _Al_) : _First(_Dest), _Last(_Dest), _Al(_Al_) {}

  00007	8b 7d 10	 mov	 edi, DWORD PTR __Dest$[ebp]

; 1998 :     for (; _UFirst != _ULast; ++_UFirst) {

  0000a	3b 45 0c	 cmp	 eax, DWORD PTR __Last$[ebp]
  0000d	74 4c		 je	 SHORT $LN69@Uninitiali
  0000f	53		 push	 ebx

; 1833 :     _CONSTEXPR20 _Uninitialized_backout_al(pointer _Dest, _Alloc& _Al_) : _First(_Dest), _Last(_Dest), _Al(_Al_) {}

  00010	8b df		 mov	 ebx, edi
  00012	8d 48 0c	 lea	 ecx, DWORD PTR [eax+12]
  00015	56		 push	 esi
  00016	2b d8		 sub	 ebx, eax
$LL4@Uninitiali:
  00018	8b 41 f4	 mov	 eax, DWORD PTR [ecx-12]

; 1845 :         ++_Last;

  0001b	8d 49 14	 lea	 ecx, DWORD PTR [ecx+20]
  0001e	89 07		 mov	 DWORD PTR [edi], eax
  00020	8b 41 e4	 mov	 eax, DWORD PTR [ecx-28]
  00023	89 47 04	 mov	 DWORD PTR [edi+4], eax
; File C:\Program Files\Microsoft Visual Studio\2022\Professional\VC\Tools\MSVC\14.44.35207\include\utility

; 773  :     _Ty _Old_val = static_cast<_Ty&&>(_Val);

  00026	8b 51 ec	 mov	 edx, DWORD PTR [ecx-20]
  00029	8b 71 f0	 mov	 esi, DWORD PTR [ecx-16]
  0002c	8b 41 e8	 mov	 eax, DWORD PTR [ecx-24]

; 774  :     _Val         = static_cast<_Other&&>(_New_val);

  0002f	c7 41 f0 00 00
	00 00		 mov	 DWORD PTR [ecx-16], 0
  00036	c7 41 ec 00 00
	00 00		 mov	 DWORD PTR [ecx-20], 0
  0003d	c7 41 e8 00 00
	00 00		 mov	 DWORD PTR [ecx-24], 0
; File C:\Program Files\Microsoft Visual Studio\2022\Professional\VC\Tools\MSVC\14.44.35207\include\vector

; 403  :         : _Myfirst(_First), _Mylast(_Last), _Myend(_End) {}

  00044	89 54 0b ec	 mov	 DWORD PTR [ebx+ecx-20], edx
; File C:\Program Files\Microsoft Visual Studio\2022\Professional\VC\Tools\MSVC\14.44.35207\include\xmemory

; 1998 :     for (; _UFirst != _ULast; ++_UFirst) {

  00048	8d 51 f4	 lea	 edx, DWORD PTR [ecx-12]
; File C:\Program Files\Microsoft Visual Studio\2022\Professional\VC\Tools\MSVC\14.44.35207\include\vector

; 403  :         : _Myfirst(_First), _Mylast(_Last), _Myend(_End) {}

  0004b	89 47 08	 mov	 DWORD PTR [edi+8], eax
  0004e	89 77 10	 mov	 DWORD PTR [edi+16], esi
; File C:\Program Files\Microsoft Visual Studio\2022\Professional\VC\Tools\MSVC\14.44.35207\include\xmemory

; 1845 :         ++_Last;

  00051	83 c7 14	 add	 edi, 20			; 00000014H

; 1998 :     for (; _UFirst != _ULast; ++_UFirst) {

  00054	3b 55 0c	 cmp	 edx, DWORD PTR __Last$[ebp]
  00057	75 bf		 jne	 SHORT $LL4@Uninitiali
  00059	5e		 pop	 esi
  0005a	5b		 pop	 ebx
$LN69@Uninitiali:

; 1999 :         _Backout._Emplace_back(_STD move(*_UFirst));
; 2000 :     }
; 2001 : 
; 2002 :     return _Backout._Release();
; 2003 : }

  0005b	8b c7		 mov	 eax, edi
  0005d	5f		 pop	 edi
  0005e	5d		 pop	 ebp
  0005f	c3		 ret	 0
??$_Uninitialized_move@PAU__GEMABILITY@CUltimateWeapon@@V?$allocator@U__GEMABILITY@CUltimateWeapon@@@std@@@std@@YAPAU__GEMABILITY@CUltimateWeapon@@QAU12@0PAU12@AAV?$allocator@U__GEMABILITY@CUltimateWeapon@@@0@@Z ENDP ; std::_Uninitialized_move<CUltimateWeapon::__GEMABILITY *,std::allocator<CUltimateWeapon::__GEMABILITY> >
_TEXT	ENDS
; Function compile flags: /Ogtp
; File C:\Program Files\Microsoft Visual Studio\2022\Professional\VC\Tools\MSVC\14.44.35207\include\vector
; File C:\Program Files\Microsoft Visual Studio\2022\Professional\VC\Tools\MSVC\14.44.35207\include\xmemory
; File C:\Program Files\Microsoft Visual Studio\2022\Professional\VC\Tools\MSVC\14.44.35207\include\vector
; File C:\Program Files\Microsoft Visual Studio\2022\Professional\VC\Tools\MSVC\14.44.35207\include\xmemory
; File C:\Program Files\Microsoft Visual Studio\2022\Professional\VC\Tools\MSVC\14.44.35207\include\vector
; File C:\Program Files\Microsoft Visual Studio\2022\Professional\VC\Tools\MSVC\14.44.35207\include\xmemory
; File C:\Program Files\Microsoft Visual Studio\2022\Professional\VC\Tools\MSVC\14.44.35207\include\vector
;	COMDAT ??1_Reallocation_guard@?$vector@U__GEMABILITY@CUltimateWeapon@@V?$allocator@U__GEMABILITY@CUltimateWeapon@@@std@@@std@@QAE@XZ
_TEXT	SEGMENT
??1_Reallocation_guard@?$vector@U__GEMABILITY@CUltimateWeapon@@V?$allocator@U__GEMABILITY@CUltimateWeapon@@@std@@@std@@QAE@XZ PROC ; std::vector<CUltimateWeapon::__GEMABILITY,std::allocator<CUltimateWeapon::__GEMABILITY> >::_Reallocation_guard::~_Reallocation_guard, COMDAT
; _this$ = ecx

; 620  :         _CONSTEXPR20 ~_Reallocation_guard() noexcept {

  00000	57		 push	 edi
  00001	8b f9		 mov	 edi, ecx

; 621  :             if (_New_begin != nullptr) {

  00003	83 7f 04 00	 cmp	 DWORD PTR [edi+4], 0
  00007	74 4d		 je	 SHORT $LN30@Reallocati

; 622  :                 _STD _Destroy_range(_Constructed_first, _Constructed_last, _Al);

  00009	53		 push	 ebx
  0000a	8b 5f 10	 mov	 ebx, DWORD PTR [edi+16]
  0000d	56		 push	 esi
  0000e	8b 77 0c	 mov	 esi, DWORD PTR [edi+12]
; File C:\Program Files\Microsoft Visual Studio\2022\Professional\VC\Tools\MSVC\14.44.35207\include\xmemory

; 1102 :         for (; _First != _Last; ++_First) {

  00011	3b f3		 cmp	 esi, ebx
  00013	74 0f		 je	 SHORT $LN7@Reallocati
$LL8@Reallocati:
; File C:\Program Files\Microsoft Visual Studio\2022\Professional\VC\Tools\MSVC\14.44.35207\include\vector

; 830  :         _Tidy();

  00015	8d 4e 08	 lea	 ecx, DWORD PTR [esi+8]
  00018	e8 00 00 00 00	 call	 ?_Tidy@?$vector@HV?$allocator@H@std@@@std@@AAEXXZ ; std::vector<int,std::allocator<int> >::_Tidy
; File C:\Program Files\Microsoft Visual Studio\2022\Professional\VC\Tools\MSVC\14.44.35207\include\xmemory

; 1102 :         for (; _First != _Last; ++_First) {

  0001d	83 c6 14	 add	 esi, 20			; 00000014H
  00020	3b f3		 cmp	 esi, ebx
  00022	75 f1		 jne	 SHORT $LL8@Reallocati
$LN7@Reallocati:

; 985  :         _STD _Deallocate<_New_alignof<_Ty>>(_Ptr, sizeof(_Ty) * _Count);

  00024	8b 47 08	 mov	 eax, DWORD PTR [edi+8]
  00027	5e		 pop	 esi
  00028	5b		 pop	 ebx
  00029	8d 0c 80	 lea	 ecx, DWORD PTR [eax+eax*4]
  0002c	8b 47 04	 mov	 eax, DWORD PTR [edi+4]
  0002f	c1 e1 02	 shl	 ecx, 2

; 284  :         if (_Bytes >= _Big_allocation_threshold) {

  00032	81 f9 00 10 00
	00		 cmp	 ecx, 4096		; 00001000H
  00038	72 12		 jb	 SHORT $LN35@Reallocati

; 205  :     const uintptr_t _Ptr_container   = _Ptr_user[-1];

  0003a	8b 50 fc	 mov	 edx, DWORD PTR [eax-4]
  0003d	83 c1 23	 add	 ecx, 35			; 00000023H

; 206  : 
; 207  :     // If the following asserts, it likely means that we are performing
; 208  :     // an aligned delete on memory coming from an unaligned allocation.
; 209  :     _STL_ASSERT(_Ptr_user[-2] == _Big_allocation_sentinel, "invalid argument");
; 210  : 
; 211  :     // Extra paranoia on aligned allocation/deallocation; ensure _Ptr_container is
; 212  :     // in range [_Min_back_shift, _Non_user_size]
; 213  : #ifdef _DEBUG
; 214  :     constexpr uintptr_t _Min_back_shift = 2 * sizeof(void*);
; 215  : #else // ^^^ defined(_DEBUG) / !defined(_DEBUG) vvv
; 216  :     constexpr uintptr_t _Min_back_shift = sizeof(void*);
; 217  : #endif // ^^^ !defined(_DEBUG) ^^^
; 218  :     const uintptr_t _Back_shift = reinterpret_cast<uintptr_t>(_Ptr) - _Ptr_container;

  00040	2b c2		 sub	 eax, edx

; 219  :     _STL_VERIFY(_Back_shift >= _Min_back_shift && _Back_shift <= _Non_user_size, "invalid argument");

  00042	83 c0 fc	 add	 eax, -4			; fffffffcH
  00045	83 f8 1f	 cmp	 eax, 31			; 0000001fH
  00048	77 0e		 ja	 SHORT $LN34@Reallocati

; 220  :     _Ptr = reinterpret_cast<void*>(_Ptr_container);

  0004a	8b c2		 mov	 eax, edx
$LN35@Reallocati:

; 289  :         ::operator delete(_Ptr, _Bytes);

  0004c	51		 push	 ecx
  0004d	50		 push	 eax
  0004e	e8 00 00 00 00	 call	 ??3@YAXPAXI@Z		; operator delete
  00053	83 c4 08	 add	 esp, 8
$LN30@Reallocati:
  00056	5f		 pop	 edi
; File C:\Program Files\Microsoft Visual Studio\2022\Professional\VC\Tools\MSVC\14.44.35207\include\vector

; 625  :         }

  00057	c3		 ret	 0
$LN34@Reallocati:
; File C:\Program Files\Microsoft Visual Studio\2022\Professional\VC\Tools\MSVC\14.44.35207\include\xmemory

; 219  :     _STL_VERIFY(_Back_shift >= _Min_back_shift && _Back_shift <= _Non_user_size, "invalid argument");

  00058	6a 00		 push	 0
  0005a	6a 00		 push	 0
  0005c	6a 00		 push	 0
  0005e	6a 00		 push	 0
  00060	6a 00		 push	 0
  00062	e8 00 00 00 00	 call	 __invoke_watson
$LN47@Reallocati:
  00067	cc		 int	 3
??1_Reallocation_guard@?$vector@U__GEMABILITY@CUltimateWeapon@@V?$allocator@U__GEMABILITY@CUltimateWeapon@@@std@@@std@@QAE@XZ ENDP ; std::vector<CUltimateWeapon::__GEMABILITY,std::allocator<CUltimateWeapon::__GEMABILITY> >::_Reallocation_guard::~_Reallocation_guard
_TEXT	ENDS
; Function compile flags: /Ogtp
; File C:\Program Files\Microsoft Visual Studio\2022\Professional\VC\Tools\MSVC\14.44.35207\include\xmemory
; File C:\Program Files\Microsoft Visual Studio\2022\Professional\VC\Tools\MSVC\14.44.35207\include\vector
; File C:\Program Files\Microsoft Visual Studio\2022\Professional\VC\Tools\MSVC\14.44.35207\include\xmemory
;	COMDAT ??1?$_Uninitialized_backout_al@V?$allocator@U__GEMABILITY@CUltimateWeapon@@@std@@@std@@QAE@XZ
_TEXT	SEGMENT
??1?$_Uninitialized_backout_al@V?$allocator@U__GEMABILITY@CUltimateWeapon@@@std@@@std@@QAE@XZ PROC ; std::_Uninitialized_backout_al<std::allocator<CUltimateWeapon::__GEMABILITY> >::~_Uninitialized_backout_al<std::allocator<CUltimateWeapon::__GEMABILITY> >, COMDAT
; _this$ = ecx

; 1838 :     _CONSTEXPR20 ~_Uninitialized_backout_al() {

  00000	56		 push	 esi

; 1839 :         _STD _Destroy_range(_First, _Last, _Al);

  00001	8b 31		 mov	 esi, DWORD PTR [ecx]
  00003	57		 push	 edi
  00004	8b 79 04	 mov	 edi, DWORD PTR [ecx+4]

; 1102 :         for (; _First != _Last; ++_First) {

  00007	3b f7		 cmp	 esi, edi
  00009	74 14		 je	 SHORT $LN6@Uninitiali
  0000b	0f 1f 44 00 00	 npad	 5
$LL7@Uninitiali:
; File C:\Program Files\Microsoft Visual Studio\2022\Professional\VC\Tools\MSVC\14.44.35207\include\vector

; 830  :         _Tidy();

  00010	8d 4e 08	 lea	 ecx, DWORD PTR [esi+8]
  00013	e8 00 00 00 00	 call	 ?_Tidy@?$vector@HV?$allocator@H@std@@@std@@AAEXXZ ; std::vector<int,std::allocator<int> >::_Tidy
; File C:\Program Files\Microsoft Visual Studio\2022\Professional\VC\Tools\MSVC\14.44.35207\include\xmemory

; 1102 :         for (; _First != _Last; ++_First) {

  00018	83 c6 14	 add	 esi, 20			; 00000014H
  0001b	3b f7		 cmp	 esi, edi
  0001d	75 f1		 jne	 SHORT $LL7@Uninitiali
$LN6@Uninitiali:
  0001f	5f		 pop	 edi

; 1840 :     }

  00020	5e		 pop	 esi
  00021	c3		 ret	 0
??1?$_Uninitialized_backout_al@V?$allocator@U__GEMABILITY@CUltimateWeapon@@@std@@@std@@QAE@XZ ENDP ; std::_Uninitialized_backout_al<std::allocator<CUltimateWeapon::__GEMABILITY> >::~_Uninitialized_backout_al<std::allocator<CUltimateWeapon::__GEMABILITY> >
_TEXT	ENDS
; Function compile flags: /Ogtp
; File C:\Program Files\Microsoft Visual Studio\2022\Professional\VC\Tools\MSVC\14.44.35207\include\xmemory
; File C:\Program Files\Microsoft Visual Studio\2022\Professional\VC\Tools\MSVC\14.44.35207\include\utility
; File C:\Program Files\Microsoft Visual Studio\2022\Professional\VC\Tools\MSVC\14.44.35207\include\vector
; File C:\Program Files\Microsoft Visual Studio\2022\Professional\VC\Tools\MSVC\14.44.35207\include\xmemory
; File C:\Program Files\Microsoft Visual Studio\2022\Professional\VC\Tools\MSVC\14.44.35207\include\vector
; File C:\Program Files\Microsoft Visual Studio\2022\Professional\VC\Tools\MSVC\14.44.35207\include\xmemory
;	COMDAT ??$_Uninitialized_move@PAU__GEMABILITYKIND@CUltimateWeapon@@V?$allocator@U__GEMABILITYKIND@CUltimateWeapon@@@std@@@std@@YAPAU__GEMABILITYKIND@CUltimateWeapon@@QAU12@0PAU12@AAV?$allocator@U__GEMABILITYKIND@CUltimateWeapon@@@0@@Z
_TEXT	SEGMENT
__First$ = 8						; size = 4
__Last$ = 12						; size = 4
__Dest$ = 16						; size = 4
__Al$ = 20						; size = 4
??$_Uninitialized_move@PAU__GEMABILITYKIND@CUltimateWeapon@@V?$allocator@U__GEMABILITYKIND@CUltimateWeapon@@@std@@@std@@YAPAU__GEMABILITYKIND@CUltimateWeapon@@QAU12@0PAU12@AAV?$allocator@U__GEMABILITYKIND@CUltimateWeapon@@@0@@Z PROC ; std::_Uninitialized_move<CUltimateWeapon::__GEMABILITYKIND *,std::allocator<CUltimateWeapon::__GEMABILITYKIND> >, COMDAT

; 1977 :     const _InIt _First, const _InIt _Last, _Alloc_ptr_t<_Alloc> _Dest, _Alloc& _Al) {

  00000	55		 push	 ebp
  00001	8b ec		 mov	 ebp, esp

; 1998 :     for (; _UFirst != _ULast; ++_UFirst) {

  00003	8b 45 08	 mov	 eax, DWORD PTR __First$[ebp]
  00006	57		 push	 edi

; 1833 :     _CONSTEXPR20 _Uninitialized_backout_al(pointer _Dest, _Alloc& _Al_) : _First(_Dest), _Last(_Dest), _Al(_Al_) {}

  00007	8b 7d 10	 mov	 edi, DWORD PTR __Dest$[ebp]

; 1998 :     for (; _UFirst != _ULast; ++_UFirst) {

  0000a	3b 45 0c	 cmp	 eax, DWORD PTR __Last$[ebp]
  0000d	74 46		 je	 SHORT $LN69@Uninitiali
  0000f	53		 push	 ebx

; 1833 :     _CONSTEXPR20 _Uninitialized_backout_al(pointer _Dest, _Alloc& _Al_) : _First(_Dest), _Last(_Dest), _Al(_Al_) {}

  00010	8b df		 mov	 ebx, edi
  00012	8d 48 08	 lea	 ecx, DWORD PTR [eax+8]
  00015	56		 push	 esi
  00016	2b d8		 sub	 ebx, eax
$LL4@Uninitiali:
  00018	8b 41 f8	 mov	 eax, DWORD PTR [ecx-8]

; 1845 :         ++_Last;

  0001b	8d 49 10	 lea	 ecx, DWORD PTR [ecx+16]
  0001e	89 07		 mov	 DWORD PTR [edi], eax
; File C:\Program Files\Microsoft Visual Studio\2022\Professional\VC\Tools\MSVC\14.44.35207\include\utility

; 773  :     _Ty _Old_val = static_cast<_Ty&&>(_Val);

  00020	8b 51 f0	 mov	 edx, DWORD PTR [ecx-16]
  00023	8b 71 f4	 mov	 esi, DWORD PTR [ecx-12]
  00026	8b 41 ec	 mov	 eax, DWORD PTR [ecx-20]

; 774  :     _Val         = static_cast<_Other&&>(_New_val);

  00029	c7 41 f4 00 00
	00 00		 mov	 DWORD PTR [ecx-12], 0
  00030	c7 41 f0 00 00
	00 00		 mov	 DWORD PTR [ecx-16], 0
  00037	c7 41 ec 00 00
	00 00		 mov	 DWORD PTR [ecx-20], 0
; File C:\Program Files\Microsoft Visual Studio\2022\Professional\VC\Tools\MSVC\14.44.35207\include\vector

; 403  :         : _Myfirst(_First), _Mylast(_Last), _Myend(_End) {}

  0003e	89 54 0b f0	 mov	 DWORD PTR [ebx+ecx-16], edx
; File C:\Program Files\Microsoft Visual Studio\2022\Professional\VC\Tools\MSVC\14.44.35207\include\xmemory

; 1998 :     for (; _UFirst != _ULast; ++_UFirst) {

  00042	8d 51 f8	 lea	 edx, DWORD PTR [ecx-8]
; File C:\Program Files\Microsoft Visual Studio\2022\Professional\VC\Tools\MSVC\14.44.35207\include\vector

; 403  :         : _Myfirst(_First), _Mylast(_Last), _Myend(_End) {}

  00045	89 47 04	 mov	 DWORD PTR [edi+4], eax
  00048	89 77 0c	 mov	 DWORD PTR [edi+12], esi
; File C:\Program Files\Microsoft Visual Studio\2022\Professional\VC\Tools\MSVC\14.44.35207\include\xmemory

; 1845 :         ++_Last;

  0004b	83 c7 10	 add	 edi, 16			; 00000010H

; 1998 :     for (; _UFirst != _ULast; ++_UFirst) {

  0004e	3b 55 0c	 cmp	 edx, DWORD PTR __Last$[ebp]
  00051	75 c5		 jne	 SHORT $LL4@Uninitiali
  00053	5e		 pop	 esi
  00054	5b		 pop	 ebx
$LN69@Uninitiali:

; 1999 :         _Backout._Emplace_back(_STD move(*_UFirst));
; 2000 :     }
; 2001 : 
; 2002 :     return _Backout._Release();
; 2003 : }

  00055	8b c7		 mov	 eax, edi
  00057	5f		 pop	 edi
  00058	5d		 pop	 ebp
  00059	c3		 ret	 0
??$_Uninitialized_move@PAU__GEMABILITYKIND@CUltimateWeapon@@V?$allocator@U__GEMABILITYKIND@CUltimateWeapon@@@std@@@std@@YAPAU__GEMABILITYKIND@CUltimateWeapon@@QAU12@0PAU12@AAV?$allocator@U__GEMABILITYKIND@CUltimateWeapon@@@0@@Z ENDP ; std::_Uninitialized_move<CUltimateWeapon::__GEMABILITYKIND *,std::allocator<CUltimateWeapon::__GEMABILITYKIND> >
_TEXT	ENDS
; Function compile flags: /Ogtp
; File C:\Program Files\Microsoft Visual Studio\2022\Professional\VC\Tools\MSVC\14.44.35207\include\vector
; File C:\Program Files\Microsoft Visual Studio\2022\Professional\VC\Tools\MSVC\14.44.35207\include\xmemory
; File C:\Program Files\Microsoft Visual Studio\2022\Professional\VC\Tools\MSVC\14.44.35207\include\vector
; File C:\Program Files\Microsoft Visual Studio\2022\Professional\VC\Tools\MSVC\14.44.35207\include\xmemory
; File C:\Program Files\Microsoft Visual Studio\2022\Professional\VC\Tools\MSVC\14.44.35207\include\vector
; File C:\Program Files\Microsoft Visual Studio\2022\Professional\VC\Tools\MSVC\14.44.35207\include\xmemory
; File C:\Program Files\Microsoft Visual Studio\2022\Professional\VC\Tools\MSVC\14.44.35207\include\vector
;	COMDAT ??1_Reallocation_guard@?$vector@U__GEMABILITYKIND@CUltimateWeapon@@V?$allocator@U__GEMABILITYKIND@CUltimateWeapon@@@std@@@std@@QAE@XZ
_TEXT	SEGMENT
??1_Reallocation_guard@?$vector@U__GEMABILITYKIND@CUltimateWeapon@@V?$allocator@U__GEMABILITYKIND@CUltimateWeapon@@@std@@@std@@QAE@XZ PROC ; std::vector<CUltimateWeapon::__GEMABILITYKIND,std::allocator<CUltimateWeapon::__GEMABILITYKIND> >::_Reallocation_guard::~_Reallocation_guard, COMDAT
; _this$ = ecx

; 620  :         _CONSTEXPR20 ~_Reallocation_guard() noexcept {

  00000	57		 push	 edi
  00001	8b f9		 mov	 edi, ecx

; 621  :             if (_New_begin != nullptr) {

  00003	83 7f 04 00	 cmp	 DWORD PTR [edi+4], 0
  00007	74 4a		 je	 SHORT $LN30@Reallocati

; 622  :                 _STD _Destroy_range(_Constructed_first, _Constructed_last, _Al);

  00009	53		 push	 ebx
  0000a	8b 5f 10	 mov	 ebx, DWORD PTR [edi+16]
  0000d	56		 push	 esi
  0000e	8b 77 0c	 mov	 esi, DWORD PTR [edi+12]
; File C:\Program Files\Microsoft Visual Studio\2022\Professional\VC\Tools\MSVC\14.44.35207\include\xmemory

; 1102 :         for (; _First != _Last; ++_First) {

  00011	3b f3		 cmp	 esi, ebx
  00013	74 0f		 je	 SHORT $LN7@Reallocati
$LL8@Reallocati:
; File C:\Program Files\Microsoft Visual Studio\2022\Professional\VC\Tools\MSVC\14.44.35207\include\vector

; 830  :         _Tidy();

  00015	8d 4e 04	 lea	 ecx, DWORD PTR [esi+4]
  00018	e8 00 00 00 00	 call	 ?_Tidy@?$vector@U__GEMABILITY@CUltimateWeapon@@V?$allocator@U__GEMABILITY@CUltimateWeapon@@@std@@@std@@AAEXXZ ; std::vector<CUltimateWeapon::__GEMABILITY,std::allocator<CUltimateWeapon::__GEMABILITY> >::_Tidy
; File C:\Program Files\Microsoft Visual Studio\2022\Professional\VC\Tools\MSVC\14.44.35207\include\xmemory

; 1102 :         for (; _First != _Last; ++_First) {

  0001d	83 c6 10	 add	 esi, 16			; 00000010H
  00020	3b f3		 cmp	 esi, ebx
  00022	75 f1		 jne	 SHORT $LL8@Reallocati
$LN7@Reallocati:

; 985  :         _STD _Deallocate<_New_alignof<_Ty>>(_Ptr, sizeof(_Ty) * _Count);

  00024	8b 4f 08	 mov	 ecx, DWORD PTR [edi+8]
  00027	8b 47 04	 mov	 eax, DWORD PTR [edi+4]
  0002a	c1 e1 04	 shl	 ecx, 4
  0002d	5e		 pop	 esi
  0002e	5b		 pop	 ebx

; 284  :         if (_Bytes >= _Big_allocation_threshold) {

  0002f	81 f9 00 10 00
	00		 cmp	 ecx, 4096		; 00001000H
  00035	72 12		 jb	 SHORT $LN35@Reallocati

; 205  :     const uintptr_t _Ptr_container   = _Ptr_user[-1];

  00037	8b 50 fc	 mov	 edx, DWORD PTR [eax-4]
  0003a	83 c1 23	 add	 ecx, 35			; 00000023H

; 206  : 
; 207  :     // If the following asserts, it likely means that we are performing
; 208  :     // an aligned delete on memory coming from an unaligned allocation.
; 209  :     _STL_ASSERT(_Ptr_user[-2] == _Big_allocation_sentinel, "invalid argument");
; 210  : 
; 211  :     // Extra paranoia on aligned allocation/deallocation; ensure _Ptr_container is
; 212  :     // in range [_Min_back_shift, _Non_user_size]
; 213  : #ifdef _DEBUG
; 214  :     constexpr uintptr_t _Min_back_shift = 2 * sizeof(void*);
; 215  : #else // ^^^ defined(_DEBUG) / !defined(_DEBUG) vvv
; 216  :     constexpr uintptr_t _Min_back_shift = sizeof(void*);
; 217  : #endif // ^^^ !defined(_DEBUG) ^^^
; 218  :     const uintptr_t _Back_shift = reinterpret_cast<uintptr_t>(_Ptr) - _Ptr_container;

  0003d	2b c2		 sub	 eax, edx

; 219  :     _STL_VERIFY(_Back_shift >= _Min_back_shift && _Back_shift <= _Non_user_size, "invalid argument");

  0003f	83 c0 fc	 add	 eax, -4			; fffffffcH
  00042	83 f8 1f	 cmp	 eax, 31			; 0000001fH
  00045	77 0e		 ja	 SHORT $LN34@Reallocati

; 220  :     _Ptr = reinterpret_cast<void*>(_Ptr_container);

  00047	8b c2		 mov	 eax, edx
$LN35@Reallocati:

; 289  :         ::operator delete(_Ptr, _Bytes);

  00049	51		 push	 ecx
  0004a	50		 push	 eax
  0004b	e8 00 00 00 00	 call	 ??3@YAXPAXI@Z		; operator delete
  00050	83 c4 08	 add	 esp, 8
$LN30@Reallocati:
  00053	5f		 pop	 edi
; File C:\Program Files\Microsoft Visual Studio\2022\Professional\VC\Tools\MSVC\14.44.35207\include\vector

; 625  :         }

  00054	c3		 ret	 0
$LN34@Reallocati:
; File C:\Program Files\Microsoft Visual Studio\2022\Professional\VC\Tools\MSVC\14.44.35207\include\xmemory

; 219  :     _STL_VERIFY(_Back_shift >= _Min_back_shift && _Back_shift <= _Non_user_size, "invalid argument");

  00055	6a 00		 push	 0
  00057	6a 00		 push	 0
  00059	6a 00		 push	 0
  0005b	6a 00		 push	 0
  0005d	6a 00		 push	 0
  0005f	e8 00 00 00 00	 call	 __invoke_watson
$LN47@Reallocati:
  00064	cc		 int	 3
??1_Reallocation_guard@?$vector@U__GEMABILITYKIND@CUltimateWeapon@@V?$allocator@U__GEMABILITYKIND@CUltimateWeapon@@@std@@@std@@QAE@XZ ENDP ; std::vector<CUltimateWeapon::__GEMABILITYKIND,std::allocator<CUltimateWeapon::__GEMABILITYKIND> >::_Reallocation_guard::~_Reallocation_guard
_TEXT	ENDS
; Function compile flags: /Ogtp
; File C:\Program Files\Microsoft Visual Studio\2022\Professional\VC\Tools\MSVC\14.44.35207\include\xmemory
; File C:\Program Files\Microsoft Visual Studio\2022\Professional\VC\Tools\MSVC\14.44.35207\include\vector
; File C:\Program Files\Microsoft Visual Studio\2022\Professional\VC\Tools\MSVC\14.44.35207\include\xmemory
; File C:\Program Files\Microsoft Visual Studio\2022\Professional\VC\Tools\MSVC\14.44.35207\include\vector
; File C:\Program Files\Microsoft Visual Studio\2022\Professional\VC\Tools\MSVC\14.44.35207\include\xmemory
; File C:\Program Files\Microsoft Visual Studio\2022\Professional\VC\Tools\MSVC\14.44.35207\include\vector
; File C:\Program Files\Microsoft Visual Studio\2022\Professional\VC\Tools\MSVC\14.44.35207\include\xmemory
; File C:\Program Files\Microsoft Visual Studio\2022\Professional\VC\Tools\MSVC\14.44.35207\include\vector
; File C:\Program Files\Microsoft Visual Studio\2022\Professional\VC\Tools\MSVC\14.44.35207\include\xmemory
;	COMDAT ??$construct@U__GEMABILITYKIND@CUltimateWeapon@@ABU12@@?$_Default_allocator_traits@V?$allocator@U__GEMABILITYKIND@CUltimateWeapon@@@std@@@std@@SAXAAV?$allocator@U__GEMABILITYKIND@CUltimateWeapon@@@1@QAU__GEMABILITYKIND@CUltimateWeapon@@ABU34@@Z
_TEXT	SEGMENT
__Backout$2 = -24					; size = 12
__$EHRec$ = -12						; size = 12
___formal$ = 8						; size = 4
__Ptr$ = 12						; size = 4
__Guard$3 = 12						; size = 4
_<_Args_0>$ = 16					; size = 4
_this$1$ = 16						; size = 4
??$construct@U__GEMABILITYKIND@CUltimateWeapon@@ABU12@@?$_Default_allocator_traits@V?$allocator@U__GEMABILITYKIND@CUltimateWeapon@@@std@@@std@@SAXAAV?$allocator@U__GEMABILITYKIND@CUltimateWeapon@@@1@QAU__GEMABILITYKIND@CUltimateWeapon@@ABU34@@Z PROC ; std::_Default_allocator_traits<std::allocator<CUltimateWeapon::__GEMABILITYKIND> >::construct<CUltimateWeapon::__GEMABILITYKIND,CUltimateWeapon::__GEMABILITYKIND const &>, COMDAT

; 728  :     static _CONSTEXPR20 void construct(_Alloc&, _Objty* const _Ptr, _Types&&... _Args) {

  00000	55		 push	 ebp
  00001	8b ec		 mov	 ebp, esp
  00003	6a ff		 push	 -1
  00005	68 00 00 00 00	 push	 __ehhandler$??$construct@U__GEMABILITYKIND@CUltimateWeapon@@ABU12@@?$_Default_allocator_traits@V?$allocator@U__GEMABILITYKIND@CUltimateWeapon@@@std@@@std@@SAXAAV?$allocator@U__GEMABILITYKIND@CUltimateWeapon@@@1@QAU__GEMABILITYKIND@CUltimateWeapon@@ABU34@@Z
  0000a	64 a1 00 00 00
	00		 mov	 eax, DWORD PTR fs:0
  00010	50		 push	 eax
  00011	83 ec 0c	 sub	 esp, 12			; 0000000cH
  00014	53		 push	 ebx
  00015	56		 push	 esi
  00016	57		 push	 edi
  00017	a1 00 00 00 00	 mov	 eax, DWORD PTR ___security_cookie
  0001c	33 c5		 xor	 eax, ebp
  0001e	50		 push	 eax
  0001f	8d 45 f4	 lea	 eax, DWORD PTR __$EHRec$[ebp]
  00022	64 a3 00 00 00
	00		 mov	 DWORD PTR fs:0, eax
  00028	8b 75 10	 mov	 esi, DWORD PTR _<_Args_0>$[ebp]
  0002b	8b 4d 0c	 mov	 ecx, DWORD PTR __Ptr$[ebp]
  0002e	8d 59 04	 lea	 ebx, DWORD PTR [ecx+4]
  00031	89 5d 10	 mov	 DWORD PTR _this$1$[ebp], ebx
  00034	8b 06		 mov	 eax, DWORD PTR [esi]
  00036	89 01		 mov	 DWORD PTR [ecx], eax
; File C:\Program Files\Microsoft Visual Studio\2022\Professional\VC\Tools\MSVC\14.44.35207\include\vector

; 748  :         const auto _Count       = static_cast<size_type>(_Right_data._Mylast - _Right_data._Myfirst);

  00038	b8 67 66 66 66	 mov	 eax, 1717986919		; 66666667H

; 400  :     _CONSTEXPR20 _Vector_val() noexcept : _Myfirst(), _Mylast(), _Myend() {}

  0003d	c7 03 00 00 00
	00		 mov	 DWORD PTR [ebx], 0
  00043	c7 43 04 00 00
	00 00		 mov	 DWORD PTR [ebx+4], 0
  0004a	c7 43 08 00 00
	00 00		 mov	 DWORD PTR [ebx+8], 0

; 748  :         const auto _Count       = static_cast<size_type>(_Right_data._Mylast - _Right_data._Myfirst);

  00051	8b 4e 08	 mov	 ecx, DWORD PTR [esi+8]
  00054	2b 4e 04	 sub	 ecx, DWORD PTR [esi+4]
  00057	f7 e9		 imul	 ecx
  00059	c1 fa 03	 sar	 edx, 3
  0005c	8b c2		 mov	 eax, edx
  0005e	c1 e8 1f	 shr	 eax, 31			; 0000001fH
  00061	03 c2		 add	 eax, edx

; 2111 :         if (_Count != 0) {

  00063	74 56		 je	 SHORT $LN60@construct

; 2051 :         if (_Newcapacity > max_size()) {

  00065	3d cc cc cc 0c	 cmp	 eax, 214748364		; 0cccccccH
  0006a	77 61		 ja	 SHORT $LN77@construct

; 2053 :         }
; 2054 : 
; 2055 :         _Buy_raw(_Newcapacity);

  0006c	50		 push	 eax
  0006d	8b cb		 mov	 ecx, ebx
  0006f	e8 00 00 00 00	 call	 ?_Buy_raw@?$vector@U__GEMABILITY@CUltimateWeapon@@V?$allocator@U__GEMABILITY@CUltimateWeapon@@@std@@@std@@AAEXI@Z ; std::vector<CUltimateWeapon::__GEMABILITY,std::allocator<CUltimateWeapon::__GEMABILITY> >::_Buy_raw

; 2113 :             _Tidy_guard<vector> _Guard{this};

  00074	89 5d 0c	 mov	 DWORD PTR __Guard$3[ebp], ebx

; 2120 :                 _My_data._Mylast = _STD _Uninitialized_copy(_STD forward<_Valty>(_Val)..., _My_data._Myfirst, _Al);

  00077	8b 3b		 mov	 edi, DWORD PTR [ebx]
  00079	8b 5e 08	 mov	 ebx, DWORD PTR [esi+8]
; File C:\Program Files\Microsoft Visual Studio\2022\Professional\VC\Tools\MSVC\14.44.35207\include\xmemory

; 1833 :     _CONSTEXPR20 _Uninitialized_backout_al(pointer _Dest, _Alloc& _Al_) : _First(_Dest), _Last(_Dest), _Al(_Al_) {}

  0007c	8b 45 10	 mov	 eax, DWORD PTR _this$1$[ebp]
; File C:\Program Files\Microsoft Visual Studio\2022\Professional\VC\Tools\MSVC\14.44.35207\include\vector

; 2120 :                 _My_data._Mylast = _STD _Uninitialized_copy(_STD forward<_Valty>(_Val)..., _My_data._Myfirst, _Al);

  0007f	8b 76 04	 mov	 esi, DWORD PTR [esi+4]
  00082	c7 45 fc 00 00
	00 00		 mov	 DWORD PTR __$EHRec$[ebp+8], 0
; File C:\Program Files\Microsoft Visual Studio\2022\Professional\VC\Tools\MSVC\14.44.35207\include\xmemory

; 1833 :     _CONSTEXPR20 _Uninitialized_backout_al(pointer _Dest, _Alloc& _Al_) : _First(_Dest), _Last(_Dest), _Al(_Al_) {}

  00089	89 7d e8	 mov	 DWORD PTR __Backout$2[ebp], edi
  0008c	89 7d ec	 mov	 DWORD PTR __Backout$2[ebp+4], edi
  0008f	89 45 f0	 mov	 DWORD PTR __Backout$2[ebp+8], eax

; 1900 :     _Uninitialized_backout_al<_Alloc> _Backout{_Dest, _Al};

  00092	c6 45 fc 01	 mov	 BYTE PTR __$EHRec$[ebp+8], 1

; 1901 :     for (; _UFirst != _ULast; ++_UFirst) {

  00096	3b f3		 cmp	 esi, ebx
  00098	74 1e		 je	 SHORT $LN24@construct
  0009a	66 0f 1f 44 00
	00		 npad	 6
$LL25@construct:

; 732  :         ::new (const_cast<void*>(static_cast<const volatile void*>(_Ptr))) _Objty(_STD forward<_Types>(_Args)...);

  000a0	56		 push	 esi
  000a1	8b cf		 mov	 ecx, edi
  000a3	e8 00 00 00 00	 call	 ??0__GEMABILITY@CUltimateWeapon@@QAE@ABU01@@Z

; 1845 :         ++_Last;

  000a8	83 c7 14	 add	 edi, 20			; 00000014H

; 1901 :     for (; _UFirst != _ULast; ++_UFirst) {

  000ab	83 c6 14	 add	 esi, 20			; 00000014H

; 1845 :         ++_Last;

  000ae	89 7d ec	 mov	 DWORD PTR __Backout$2[ebp+4], edi

; 1901 :     for (; _UFirst != _ULast; ++_UFirst) {

  000b1	3b f3		 cmp	 esi, ebx
  000b3	75 eb		 jne	 SHORT $LL25@construct
  000b5	8b 45 10	 mov	 eax, DWORD PTR _this$1$[ebp]
$LN24@construct:
; File C:\Program Files\Microsoft Visual Studio\2022\Professional\VC\Tools\MSVC\14.44.35207\include\vector

; 2120 :                 _My_data._Mylast = _STD _Uninitialized_copy(_STD forward<_Valty>(_Val)..., _My_data._Myfirst, _Al);

  000b8	89 78 04	 mov	 DWORD PTR [eax+4], edi
$LN60@construct:
; File C:\Program Files\Microsoft Visual Studio\2022\Professional\VC\Tools\MSVC\14.44.35207\include\xmemory

; 734  :     }

  000bb	8b 4d f4	 mov	 ecx, DWORD PTR __$EHRec$[ebp]
  000be	64 89 0d 00 00
	00 00		 mov	 DWORD PTR fs:0, ecx
  000c5	59		 pop	 ecx
  000c6	5f		 pop	 edi
  000c7	5e		 pop	 esi
  000c8	5b		 pop	 ebx
  000c9	8b e5		 mov	 esp, ebp
  000cb	5d		 pop	 ebp
  000cc	c3		 ret	 0
$LN77@construct:
; File C:\Program Files\Microsoft Visual Studio\2022\Professional\VC\Tools\MSVC\14.44.35207\include\vector

; 2052 :             _Xlength();

  000cd	e8 00 00 00 00	 call	 ?_Xlength@?$vector@U__GEMABILITY@CUltimateWeapon@@V?$allocator@U__GEMABILITY@CUltimateWeapon@@@std@@@std@@CAXXZ ; std::vector<CUltimateWeapon::__GEMABILITY,std::allocator<CUltimateWeapon::__GEMABILITY> >::_Xlength
$LN75@construct:
  000d2	cc		 int	 3
_TEXT	ENDS
;	COMDAT text$x
text$x	SEGMENT
__unwindfunclet$??$construct@U__GEMABILITYKIND@CUltimateWeapon@@ABU12@@?$_Default_allocator_traits@V?$allocator@U__GEMABILITYKIND@CUltimateWeapon@@@std@@@std@@SAXAAV?$allocator@U__GEMABILITYKIND@CUltimateWeapon@@@1@QAU__GEMABILITYKIND@CUltimateWeapon@@ABU34@@Z$1:
  00000	8d 4d 0c	 lea	 ecx, DWORD PTR __Guard$3[ebp]
  00003	e9 00 00 00 00	 jmp	 ??1?$_Tidy_guard@V?$vector@U__GEMABILITY@CUltimateWeapon@@V?$allocator@U__GEMABILITY@CUltimateWeapon@@@std@@@std@@@std@@QAE@XZ ; std::_Tidy_guard<std::vector<CUltimateWeapon::__GEMABILITY,std::allocator<CUltimateWeapon::__GEMABILITY> > >::~_Tidy_guard<std::vector<CUltimateWeapon::__GEMABILITY,std::allocator<CUltimateWeapon::__GEMABILITY> > >
__unwindfunclet$??$construct@U__GEMABILITYKIND@CUltimateWeapon@@ABU12@@?$_Default_allocator_traits@V?$allocator@U__GEMABILITYKIND@CUltimateWeapon@@@std@@@std@@SAXAAV?$allocator@U__GEMABILITYKIND@CUltimateWeapon@@@1@QAU__GEMABILITYKIND@CUltimateWeapon@@ABU34@@Z$2:
  00008	8d 4d e8	 lea	 ecx, DWORD PTR __Backout$2[ebp]
  0000b	e9 00 00 00 00	 jmp	 ??1?$_Uninitialized_backout_al@V?$allocator@U__GEMABILITY@CUltimateWeapon@@@std@@@std@@QAE@XZ ; std::_Uninitialized_backout_al<std::allocator<CUltimateWeapon::__GEMABILITY> >::~_Uninitialized_backout_al<std::allocator<CUltimateWeapon::__GEMABILITY> >
  00010	cc		 int	 3
  00011	cc		 int	 3
  00012	cc		 int	 3
  00013	cc		 int	 3
  00014	cc		 int	 3
__ehhandler$??$construct@U__GEMABILITYKIND@CUltimateWeapon@@ABU12@@?$_Default_allocator_traits@V?$allocator@U__GEMABILITYKIND@CUltimateWeapon@@@std@@@std@@SAXAAV?$allocator@U__GEMABILITYKIND@CUltimateWeapon@@@1@QAU__GEMABILITYKIND@CUltimateWeapon@@ABU34@@Z:
  00015	90		 npad	 1
  00016	90		 npad	 1
  00017	8b 54 24 08	 mov	 edx, DWORD PTR [esp+8]
  0001b	8d 42 0c	 lea	 eax, DWORD PTR [edx+12]
  0001e	8b 4a e4	 mov	 ecx, DWORD PTR [edx-28]
  00021	33 c8		 xor	 ecx, eax
  00023	e8 00 00 00 00	 call	 @__security_check_cookie@4
  00028	b8 00 00 00 00	 mov	 eax, OFFSET __ehfuncinfo$??$construct@U__GEMABILITYKIND@CUltimateWeapon@@ABU12@@?$_Default_allocator_traits@V?$allocator@U__GEMABILITYKIND@CUltimateWeapon@@@std@@@std@@SAXAAV?$allocator@U__GEMABILITYKIND@CUltimateWeapon@@@1@QAU__GEMABILITYKIND@CUltimateWeapon@@ABU34@@Z
  0002d	e9 00 00 00 00	 jmp	 ___CxxFrameHandler3
text$x	ENDS
??$construct@U__GEMABILITYKIND@CUltimateWeapon@@ABU12@@?$_Default_allocator_traits@V?$allocator@U__GEMABILITYKIND@CUltimateWeapon@@@std@@@std@@SAXAAV?$allocator@U__GEMABILITYKIND@CUltimateWeapon@@@1@QAU__GEMABILITYKIND@CUltimateWeapon@@ABU34@@Z ENDP ; std::_Default_allocator_traits<std::allocator<CUltimateWeapon::__GEMABILITYKIND> >::construct<CUltimateWeapon::__GEMABILITYKIND,CUltimateWeapon::__GEMABILITYKIND const &>
; Function compile flags: /Ogtp
; File C:\Program Files\Microsoft Visual Studio\2022\Professional\VC\Tools\MSVC\14.44.35207\include\vector
; File C:\Program Files\Microsoft Visual Studio\2022\Professional\VC\Tools\MSVC\14.44.35207\include\xmemory
; File C:\Program Files\Microsoft Visual Studio\2022\Professional\VC\Tools\MSVC\14.44.35207\include\vector
; File C:\Program Files\Microsoft Visual Studio\2022\Professional\VC\Tools\MSVC\14.44.35207\include\xmemory
; File C:\Program Files\Microsoft Visual Studio\2022\Professional\VC\Tools\MSVC\14.44.35207\include\vector
; File C:\Program Files\Microsoft Visual Studio\2022\Professional\VC\Tools\MSVC\14.44.35207\include\xmemory
; File C:\Program Files\Microsoft Visual Studio\2022\Professional\VC\Tools\MSVC\14.44.35207\include\vector
; File C:\Program Files\Microsoft Visual Studio\2022\Professional\VC\Tools\MSVC\14.44.35207\include\xmemory
; File C:\Program Files\Microsoft Visual Studio\2022\Professional\VC\Tools\MSVC\14.44.35207\include\vector
; File C:\Program Files\Microsoft Visual Studio\2022\Professional\VC\Tools\MSVC\14.44.35207\include\xmemory
; File C:\Program Files\Microsoft Visual Studio\2022\Professional\VC\Tools\MSVC\14.44.35207\include\vector
; File C:\Program Files\Microsoft Visual Studio\2022\Professional\VC\Tools\MSVC\14.44.35207\include\xmemory
; File C:\Program Files\Microsoft Visual Studio\2022\Professional\VC\Tools\MSVC\14.44.35207\include\vector
; File C:\Program Files\Microsoft Visual Studio\2022\Professional\VC\Tools\MSVC\14.44.35207\include\xmemory
; File C:\Program Files\Microsoft Visual Studio\2022\Professional\VC\Tools\MSVC\14.44.35207\include\vector
; File C:\Program Files\Microsoft Visual Studio\2022\Professional\VC\Tools\MSVC\14.44.35207\include\xmemory
; File C:\Program Files\Microsoft Visual Studio\2022\Professional\VC\Tools\MSVC\14.44.35207\include\vector
;	COMDAT ??$_Emplace_reallocate@H@?$vector@HV?$allocator@H@std@@@std@@AAEPAHQAH$$QAH@Z
_TEXT	SEGMENT
__Newsize$1$ = -12					; size = 4
tv652 = -8						; size = 4
tv650 = -4						; size = 4
__Whereptr$ = 8						; size = 4
_<_Val_0>$ = 12						; size = 4
??$_Emplace_reallocate@H@?$vector@HV?$allocator@H@std@@@std@@AAEPAHQAH$$QAH@Z PROC ; std::vector<int,std::allocator<int> >::_Emplace_reallocate<int>, COMDAT
; _this$ = ecx

; 875  :     _CONSTEXPR20 pointer _Emplace_reallocate(const pointer _Whereptr, _Valty&&... _Val) {

  00000	55		 push	 ebp
  00001	8b ec		 mov	 ebp, esp
  00003	83 ec 0c	 sub	 esp, 12			; 0000000cH
  00006	53		 push	 ebx

; 876  :         // reallocate and insert by perfectly forwarding _Val at _Whereptr
; 877  :         _Alty& _Al        = _Getal();
; 878  :         auto& _My_data    = _Mypair._Myval2;
; 879  :         pointer& _Myfirst = _My_data._Myfirst;
; 880  :         pointer& _Mylast  = _My_data._Mylast;
; 881  : 
; 882  :         _STL_INTERNAL_CHECK(_Mylast == _My_data._Myend); // check that we have no unused capacity
; 883  : 
; 884  :         const auto _Whereoff = static_cast<size_type>(_Whereptr - _Myfirst);

  00007	8b 5d 08	 mov	 ebx, DWORD PTR __Whereptr$[ebp]
  0000a	56		 push	 esi
  0000b	8b f1		 mov	 esi, ecx
  0000d	57		 push	 edi
  0000e	8b 0e		 mov	 ecx, DWORD PTR [esi]
  00010	2b d9		 sub	 ebx, ecx

; 885  :         const auto _Oldsize  = static_cast<size_type>(_Mylast - _Myfirst);

  00012	8b 46 04	 mov	 eax, DWORD PTR [esi+4]
  00015	2b c1		 sub	 eax, ecx
  00017	c1 fb 02	 sar	 ebx, 2
  0001a	c1 f8 02	 sar	 eax, 2

; 886  : 
; 887  :         if (_Oldsize == max_size()) {

  0001d	3d ff ff ff 3f	 cmp	 eax, 1073741823		; 3fffffffH
  00022	0f 84 13 01 00
	00		 je	 $LN111@Emplace_re

; 1924 :         return static_cast<size_type>(_My_data._Myend - _My_data._Myfirst);

  00028	8b 56 08	 mov	 edx, DWORD PTR [esi+8]

; 889  :         }
; 890  : 
; 891  :         const size_type _Newsize = _Oldsize + 1;

  0002b	8d 78 01	 lea	 edi, DWORD PTR [eax+1]

; 1924 :         return static_cast<size_type>(_My_data._Myend - _My_data._Myfirst);

  0002e	2b d1		 sub	 edx, ecx

; 889  :         }
; 890  : 
; 891  :         const size_type _Newsize = _Oldsize + 1;

  00030	89 7d f4	 mov	 DWORD PTR __Newsize$1$[ebp], edi

; 1924 :         return static_cast<size_type>(_My_data._Myend - _My_data._Myfirst);

  00033	c1 fa 02	 sar	 edx, 2

; 2011 :         if (_Oldcapacity > _Max - _Oldcapacity / 2) {

  00036	b8 ff ff ff 3f	 mov	 eax, 1073741823		; 3fffffffH
  0003b	8b ca		 mov	 ecx, edx
  0003d	d1 e9		 shr	 ecx, 1
  0003f	2b c1		 sub	 eax, ecx
  00041	3b d0		 cmp	 edx, eax
  00043	76 14		 jbe	 SHORT $LN8@Emplace_re

; 2012 :             return _Max; // geometric growth would overflow

  00045	b8 fc ff ff ff	 mov	 eax, -4			; fffffffcH
  0004a	c7 45 f8 fc ff
	ff ff		 mov	 DWORD PTR tv652[ebp], -4 ; fffffffcH
; File C:\Program Files\Microsoft Visual Studio\2022\Professional\VC\Tools\MSVC\14.44.35207\include\xmemory

; 253  :             return _Allocate_manually_vector_aligned<_Traits>(_Bytes);

  00051	50		 push	 eax
  00052	e8 00 00 00 00	 call	 ??$_Allocate_manually_vector_aligned@U_Default_allocate_traits@std@@@std@@YAPAXI@Z ; std::_Allocate_manually_vector_aligned<std::_Default_allocate_traits>
  00057	eb 3d		 jmp	 SHORT $LN109@Emplace_re
$LN8@Emplace_re:
; File C:\Program Files\Microsoft Visual Studio\2022\Professional\VC\Tools\MSVC\14.44.35207\include\vector

; 2015 :         const size_type _Geometric = _Oldcapacity + _Oldcapacity / 2;

  00059	8d 04 11	 lea	 eax, DWORD PTR [ecx+edx]
; File C:\Program Files\Microsoft Visual Studio\2022\Professional\VC\Tools\MSVC\14.44.35207\include\xmemory

; 117  :         if (_Count > _Max_possible) {

  0005c	8b cf		 mov	 ecx, edi
  0005e	3b c7		 cmp	 eax, edi
  00060	0f 43 c8	 cmovae	 ecx, eax
  00063	81 f9 ff ff ff
	3f		 cmp	 ecx, 1073741823		; 3fffffffH
  00069	0f 87 d1 00 00
	00		 ja	 $LN112@Emplace_re

; 119  :         }
; 120  :     }
; 121  : 
; 122  :     return _Count * _Ty_size;

  0006f	8d 04 8d 00 00
	00 00		 lea	 eax, DWORD PTR [ecx*4]
  00076	89 45 f8	 mov	 DWORD PTR tv652[ebp], eax

; 227  :     if (_Bytes == 0) {

  00079	85 c0		 test	 eax, eax
  0007b	75 04		 jne	 SHORT $LN23@Emplace_re

; 228  :         return nullptr;

  0007d	33 ff		 xor	 edi, edi
  0007f	eb 1a		 jmp	 SHORT $LN22@Emplace_re
$LN23@Emplace_re:

; 229  :     }
; 230  : 
; 231  : #if _HAS_CXX20 // TRANSITION, GH-1532
; 232  :     if (_STD is_constant_evaluated()) {
; 233  :         return _Traits::_Allocate(_Bytes);
; 234  :     }
; 235  : #endif // _HAS_CXX20
; 236  : 
; 237  : #ifdef __cpp_aligned_new
; 238  :     if constexpr (_Align > __STDCPP_DEFAULT_NEW_ALIGNMENT__) {
; 239  :         size_t _Passed_align = _Align;
; 240  : #if defined(_M_IX86) || defined(_M_X64)
; 241  :         if (_Bytes >= _Big_allocation_threshold) {
; 242  :             // boost the alignment of big allocations to help autovectorization
; 243  :             _Passed_align = (_STD max)(_Align, _Big_allocation_alignment);
; 244  :         }
; 245  : #endif // defined(_M_IX86) || defined(_M_X64)
; 246  :         return _Traits::_Allocate_aligned(_Bytes, _Passed_align);
; 247  :     } else
; 248  : #endif // defined(__cpp_aligned_new)
; 249  :     {
; 250  : #if defined(_M_IX86) || defined(_M_X64)
; 251  :         if (_Bytes >= _Big_allocation_threshold) {

  00081	3d 00 10 00 00	 cmp	 eax, 4096		; 00001000H
  00086	72 08		 jb	 SHORT $LN24@Emplace_re

; 253  :             return _Allocate_manually_vector_aligned<_Traits>(_Bytes);

  00088	50		 push	 eax
  00089	e8 00 00 00 00	 call	 ??$_Allocate_manually_vector_aligned@U_Default_allocate_traits@std@@@std@@YAPAXI@Z ; std::_Allocate_manually_vector_aligned<std::_Default_allocate_traits>
  0008e	eb 06		 jmp	 SHORT $LN109@Emplace_re
$LN24@Emplace_re:

; 136  :         return ::operator new(_Bytes);

  00090	50		 push	 eax
  00091	e8 00 00 00 00	 call	 ??2@YAPAXI@Z		; operator new
$LN109@Emplace_re:
; File C:\Program Files\Microsoft Visual Studio\2022\Professional\VC\Tools\MSVC\14.44.35207\include\vector

; 900  :         _Alty_traits::construct(_Al, _STD _Unfancy(_Newvec + _Whereoff), _STD forward<_Valty>(_Val)...);

  00096	8b f8		 mov	 edi, eax
  00098	83 c4 04	 add	 esp, 4
$LN22@Emplace_re:
  0009b	8b 45 0c	 mov	 eax, DWORD PTR _<_Val_0>$[ebp]
  0009e	8d 0c 9f	 lea	 ecx, DWORD PTR [edi+ebx*4]

; 901  :         _Constructed_first = _Newvec + _Whereoff;
; 902  : 
; 903  :         if (_Whereptr == _Mylast) { // at back, provide strong guarantee

  000a1	8b 5d 08	 mov	 ebx, DWORD PTR __Whereptr$[ebp]
  000a4	89 4d fc	 mov	 DWORD PTR tv650[ebp], ecx
  000a7	8b 00		 mov	 eax, DWORD PTR [eax]
  000a9	89 01		 mov	 DWORD PTR [ecx], eax
  000ab	8b 46 04	 mov	 eax, DWORD PTR [esi+4]
  000ae	8b 0e		 mov	 ecx, DWORD PTR [esi]
  000b0	3b d8		 cmp	 ebx, eax
  000b2	75 07		 jne	 SHORT $LN3@Emplace_re

; 909  :         } else { // provide basic guarantee

  000b4	8b 5d fc	 mov	 ebx, DWORD PTR tv650[ebp]
; File C:\Program Files\Microsoft Visual Studio\2022\Professional\VC\Tools\MSVC\14.44.35207\include\xmemory

; 1992 :             _STD _Copy_memmove(_UFirst, _ULast, _STD _Unfancy(_Dest));

  000b7	8b d7		 mov	 edx, edi
; File C:\Program Files\Microsoft Visual Studio\2022\Professional\VC\Tools\MSVC\14.44.35207\include\vector

; 909  :         } else { // provide basic guarantee

  000b9	eb 16		 jmp	 SHORT $LN52@Emplace_re
$LN3@Emplace_re:
; File C:\Program Files\Microsoft Visual Studio\2022\Professional\VC\Tools\MSVC\14.44.35207\include\xmemory

; 1992 :             _STD _Copy_memmove(_UFirst, _ULast, _STD _Unfancy(_Dest));

  000bb	57		 push	 edi
  000bc	53		 push	 ebx
  000bd	51		 push	 ecx
  000be	e8 00 00 00 00	 call	 ??$_Copy_memmove@PAHPAH@std@@YAPAHPAH00@Z ; std::_Copy_memmove<int *,int *>
  000c3	8b 46 04	 mov	 eax, DWORD PTR [esi+4]
  000c6	8b cb		 mov	 ecx, ebx
; File C:\Program Files\Microsoft Visual Studio\2022\Professional\VC\Tools\MSVC\14.44.35207\include\vector

; 912  :             _STD _Uninitialized_move(_Whereptr, _Mylast, _Newvec + _Whereoff + 1, _Al);

  000c8	8b 5d fc	 mov	 ebx, DWORD PTR tv650[ebp]
; File C:\Program Files\Microsoft Visual Studio\2022\Professional\VC\Tools\MSVC\14.44.35207\include\xmemory

; 1992 :             _STD _Copy_memmove(_UFirst, _ULast, _STD _Unfancy(_Dest));

  000cb	83 c4 0c	 add	 esp, 12			; 0000000cH
; File C:\Program Files\Microsoft Visual Studio\2022\Professional\VC\Tools\MSVC\14.44.35207\include\vector

; 912  :             _STD _Uninitialized_move(_Whereptr, _Mylast, _Newvec + _Whereoff + 1, _Al);

  000ce	8d 53 04	 lea	 edx, DWORD PTR [ebx+4]
$LN52@Emplace_re:

; 913  :         }
; 914  : 
; 915  :         _Guard._New_begin = nullptr;

  000d1	52		 push	 edx
  000d2	50		 push	 eax
  000d3	51		 push	 ecx
  000d4	e8 00 00 00 00	 call	 ??$_Copy_memmove@PAHPAH@std@@YAPAHPAH00@Z ; std::_Copy_memmove<int *,int *>

; 2069 :         if (_Myfirst) { // destroy and deallocate old array

  000d9	8b 06		 mov	 eax, DWORD PTR [esi]

; 913  :         }
; 914  : 
; 915  :         _Guard._New_begin = nullptr;

  000db	83 c4 0c	 add	 esp, 12			; 0000000cH

; 2069 :         if (_Myfirst) { // destroy and deallocate old array

  000de	85 c0		 test	 eax, eax
  000e0	74 2c		 je	 SHORT $LN72@Emplace_re

; 2070 :             _STD _Destroy_range(_Myfirst, _Mylast, _Al);
; 2071 :             _ASAN_VECTOR_REMOVE;
; 2072 :             _Al.deallocate(_Myfirst, static_cast<size_type>(_Myend - _Myfirst));

  000e2	8b 4e 08	 mov	 ecx, DWORD PTR [esi+8]
  000e5	2b c8		 sub	 ecx, eax
; File C:\Program Files\Microsoft Visual Studio\2022\Professional\VC\Tools\MSVC\14.44.35207\include\xmemory

; 985  :         _STD _Deallocate<_New_alignof<_Ty>>(_Ptr, sizeof(_Ty) * _Count);

  000e7	83 e1 fc	 and	 ecx, -4			; fffffffcH

; 284  :         if (_Bytes >= _Big_allocation_threshold) {

  000ea	81 f9 00 10 00
	00		 cmp	 ecx, 4096		; 00001000H
  000f0	72 12		 jb	 SHORT $LN77@Emplace_re

; 205  :     const uintptr_t _Ptr_container   = _Ptr_user[-1];

  000f2	8b 50 fc	 mov	 edx, DWORD PTR [eax-4]
  000f5	83 c1 23	 add	 ecx, 35			; 00000023H

; 206  : 
; 207  :     // If the following asserts, it likely means that we are performing
; 208  :     // an aligned delete on memory coming from an unaligned allocation.
; 209  :     _STL_ASSERT(_Ptr_user[-2] == _Big_allocation_sentinel, "invalid argument");
; 210  : 
; 211  :     // Extra paranoia on aligned allocation/deallocation; ensure _Ptr_container is
; 212  :     // in range [_Min_back_shift, _Non_user_size]
; 213  : #ifdef _DEBUG
; 214  :     constexpr uintptr_t _Min_back_shift = 2 * sizeof(void*);
; 215  : #else // ^^^ defined(_DEBUG) / !defined(_DEBUG) vvv
; 216  :     constexpr uintptr_t _Min_back_shift = sizeof(void*);
; 217  : #endif // ^^^ !defined(_DEBUG) ^^^
; 218  :     const uintptr_t _Back_shift = reinterpret_cast<uintptr_t>(_Ptr) - _Ptr_container;

  000f8	2b c2		 sub	 eax, edx

; 219  :     _STL_VERIFY(_Back_shift >= _Min_back_shift && _Back_shift <= _Non_user_size, "invalid argument");

  000fa	83 c0 fc	 add	 eax, -4			; fffffffcH
  000fd	83 f8 1f	 cmp	 eax, 31			; 0000001fH
  00100	77 2a		 ja	 SHORT $LN76@Emplace_re

; 220  :     _Ptr = reinterpret_cast<void*>(_Ptr_container);

  00102	8b c2		 mov	 eax, edx
$LN77@Emplace_re:

; 289  :         ::operator delete(_Ptr, _Bytes);

  00104	51		 push	 ecx
  00105	50		 push	 eax
  00106	e8 00 00 00 00	 call	 ??3@YAXPAXI@Z		; operator delete
  0010b	83 c4 08	 add	 esp, 8
$LN72@Emplace_re:
; File C:\Program Files\Microsoft Visual Studio\2022\Professional\VC\Tools\MSVC\14.44.35207\include\vector

; 2076 :         _Mylast  = _Newvec + _Newsize;

  0010e	8b 45 f4	 mov	 eax, DWORD PTR __Newsize$1$[ebp]
  00111	89 3e		 mov	 DWORD PTR [esi], edi
  00113	8d 0c 87	 lea	 ecx, DWORD PTR [edi+eax*4]

; 916  :         _Change_array(_Newvec, _Newsize, _Newcapacity);
; 917  :         return _Newvec + _Whereoff;

  00116	8b c3		 mov	 eax, ebx

; 2076 :         _Mylast  = _Newvec + _Newsize;

  00118	89 4e 04	 mov	 DWORD PTR [esi+4], ecx

; 2077 :         _Myend   = _Newvec + _Newcapacity;

  0011b	8b 4d f8	 mov	 ecx, DWORD PTR tv652[ebp]
  0011e	03 cf		 add	 ecx, edi

; 918  :     }

  00120	5f		 pop	 edi

; 2077 :         _Myend   = _Newvec + _Newcapacity;

  00121	89 4e 08	 mov	 DWORD PTR [esi+8], ecx

; 918  :     }

  00124	5e		 pop	 esi
  00125	5b		 pop	 ebx
  00126	8b e5		 mov	 esp, ebp
  00128	5d		 pop	 ebp
  00129	c2 08 00	 ret	 8
$LN76@Emplace_re:
; File C:\Program Files\Microsoft Visual Studio\2022\Professional\VC\Tools\MSVC\14.44.35207\include\xmemory

; 219  :     _STL_VERIFY(_Back_shift >= _Min_back_shift && _Back_shift <= _Non_user_size, "invalid argument");

  0012c	6a 00		 push	 0
  0012e	6a 00		 push	 0
  00130	6a 00		 push	 0
  00132	6a 00		 push	 0
  00134	6a 00		 push	 0
  00136	e8 00 00 00 00	 call	 __invoke_watson
$LN111@Emplace_re:
; File C:\Program Files\Microsoft Visual Studio\2022\Professional\VC\Tools\MSVC\14.44.35207\include\vector

; 888  :             _Xlength();

  0013b	e8 00 00 00 00	 call	 ?_Xlength@?$vector@HV?$allocator@H@std@@@std@@CAXXZ ; std::vector<int,std::allocator<int> >::_Xlength
$LN112@Emplace_re:
; File C:\Program Files\Microsoft Visual Studio\2022\Professional\VC\Tools\MSVC\14.44.35207\include\xmemory

; 118  :             _Throw_bad_array_new_length(); // multiply overflow

  00140	e8 00 00 00 00	 call	 ?_Throw_bad_array_new_length@std@@YAXXZ ; std::_Throw_bad_array_new_length
$LN108@Emplace_re:
  00145	cc		 int	 3
??$_Emplace_reallocate@H@?$vector@HV?$allocator@H@std@@@std@@AAEPAHQAH$$QAH@Z ENDP ; std::vector<int,std::allocator<int> >::_Emplace_reallocate<int>
_TEXT	ENDS
; Function compile flags: /Ogtp
; File C:\Program Files\Microsoft Visual Studio\2022\Professional\VC\Tools\MSVC\14.44.35207\include\vector
; File C:\Program Files\Microsoft Visual Studio\2022\Professional\VC\Tools\MSVC\14.44.35207\include\xmemory
; File C:\Program Files\Microsoft Visual Studio\2022\Professional\VC\Tools\MSVC\14.44.35207\include\vector
; File C:\Program Files\Microsoft Visual Studio\2022\Professional\VC\Tools\MSVC\14.44.35207\include\xmemory
; File C:\Program Files\Microsoft Visual Studio\2022\Professional\VC\Tools\MSVC\14.44.35207\include\vector
; File C:\Program Files\Microsoft Visual Studio\2022\Professional\VC\Tools\MSVC\14.44.35207\include\xmemory
; File C:\Program Files\Microsoft Visual Studio\2022\Professional\VC\Tools\MSVC\14.44.35207\include\vector
; File C:\Program Files\Microsoft Visual Studio\2022\Professional\VC\Tools\MSVC\14.44.35207\include\xmemory
; File C:\Program Files\Microsoft Visual Studio\2022\Professional\VC\Tools\MSVC\14.44.35207\include\vector
; File C:\Program Files\Microsoft Visual Studio\2022\Professional\VC\Tools\MSVC\14.44.35207\include\xmemory
; File C:\Program Files\Microsoft Visual Studio\2022\Professional\VC\Tools\MSVC\14.44.35207\include\vector
; File C:\Program Files\Microsoft Visual Studio\2022\Professional\VC\Tools\MSVC\14.44.35207\include\xmemory
; File C:\Program Files\Microsoft Visual Studio\2022\Professional\VC\Tools\MSVC\14.44.35207\include\vector
; File C:\Program Files\Microsoft Visual Studio\2022\Professional\VC\Tools\MSVC\14.44.35207\include\xmemory
; File C:\Program Files\Microsoft Visual Studio\2022\Professional\VC\Tools\MSVC\14.44.35207\include\vector
; File C:\Program Files\Microsoft Visual Studio\2022\Professional\VC\Tools\MSVC\14.44.35207\include\xmemory
; File C:\Program Files\Microsoft Visual Studio\2022\Professional\VC\Tools\MSVC\14.44.35207\include\vector
; File C:\Program Files\Microsoft Visual Studio\2022\Professional\VC\Tools\MSVC\14.44.35207\include\xmemory
; File C:\Program Files\Microsoft Visual Studio\2022\Professional\VC\Tools\MSVC\14.44.35207\include\vector
; File C:\Program Files\Microsoft Visual Studio\2022\Professional\VC\Tools\MSVC\14.44.35207\include\xmemory
; File C:\Program Files\Microsoft Visual Studio\2022\Professional\VC\Tools\MSVC\14.44.35207\include\vector
;	COMDAT ??$_Emplace_reallocate@ABU__GEMABILITY@CUltimateWeapon@@@?$vector@U__GEMABILITY@CUltimateWeapon@@V?$allocator@U__GEMABILITY@CUltimateWeapon@@@std@@@std@@AAEPAU__GEMABILITY@CUltimateWeapon@@QAU23@ABU23@@Z
_TEXT	SEGMENT
__Guard$ = -52						; size = 20
tv575 = -32						; size = 4
__Newsize$1$ = -28					; size = 4
_this$1$ = -24						; size = 4
__Whereoff$1$ = -20					; size = 4
$T2 = -20						; size = 4
tv576 = -16						; size = 4
__$EHRec$ = -12						; size = 12
__Whereptr$ = 8						; size = 4
_<_Val_0>$ = 12						; size = 4
??$_Emplace_reallocate@ABU__GEMABILITY@CUltimateWeapon@@@?$vector@U__GEMABILITY@CUltimateWeapon@@V?$allocator@U__GEMABILITY@CUltimateWeapon@@@std@@@std@@AAEPAU__GEMABILITY@CUltimateWeapon@@QAU23@ABU23@@Z PROC ; std::vector<CUltimateWeapon::__GEMABILITY,std::allocator<CUltimateWeapon::__GEMABILITY> >::_Emplace_reallocate<CUltimateWeapon::__GEMABILITY const &>, COMDAT
; _this$ = ecx

; 875  :     _CONSTEXPR20 pointer _Emplace_reallocate(const pointer _Whereptr, _Valty&&... _Val) {

  00000	55		 push	 ebp
  00001	8b ec		 mov	 ebp, esp
  00003	6a ff		 push	 -1
  00005	68 00 00 00 00	 push	 __ehhandler$??$_Emplace_reallocate@ABU__GEMABILITY@CUltimateWeapon@@@?$vector@U__GEMABILITY@CUltimateWeapon@@V?$allocator@U__GEMABILITY@CUltimateWeapon@@@std@@@std@@AAEPAU__GEMABILITY@CUltimateWeapon@@QAU23@ABU23@@Z
  0000a	64 a1 00 00 00
	00		 mov	 eax, DWORD PTR fs:0
  00010	50		 push	 eax
  00011	83 ec 28	 sub	 esp, 40			; 00000028H
  00014	53		 push	 ebx
  00015	56		 push	 esi
  00016	57		 push	 edi
  00017	a1 00 00 00 00	 mov	 eax, DWORD PTR ___security_cookie
  0001c	33 c5		 xor	 eax, ebp
  0001e	50		 push	 eax
  0001f	8d 45 f4	 lea	 eax, DWORD PTR __$EHRec$[ebp]
  00022	64 a3 00 00 00
	00		 mov	 DWORD PTR fs:0, eax
  00028	8b f9		 mov	 edi, ecx
  0002a	89 7d e8	 mov	 DWORD PTR _this$1$[ebp], edi

; 876  :         // reallocate and insert by perfectly forwarding _Val at _Whereptr
; 877  :         _Alty& _Al        = _Getal();
; 878  :         auto& _My_data    = _Mypair._Myval2;
; 879  :         pointer& _Myfirst = _My_data._Myfirst;
; 880  :         pointer& _Mylast  = _My_data._Mylast;
; 881  : 
; 882  :         _STL_INTERNAL_CHECK(_Mylast == _My_data._Myend); // check that we have no unused capacity
; 883  : 
; 884  :         const auto _Whereoff = static_cast<size_type>(_Whereptr - _Myfirst);

  0002d	8b 37		 mov	 esi, DWORD PTR [edi]
  0002f	b8 67 66 66 66	 mov	 eax, 1717986919		; 66666667H
  00034	8b 55 08	 mov	 edx, DWORD PTR __Whereptr$[ebp]

; 885  :         const auto _Oldsize  = static_cast<size_type>(_Mylast - _Myfirst);

  00037	8b 4f 04	 mov	 ecx, DWORD PTR [edi+4]
  0003a	2b d6		 sub	 edx, esi
  0003c	f7 ea		 imul	 edx
  0003e	2b ce		 sub	 ecx, esi
  00040	c1 fa 03	 sar	 edx, 3
  00043	8b c2		 mov	 eax, edx
  00045	c1 e8 1f	 shr	 eax, 31			; 0000001fH
  00048	03 c2		 add	 eax, edx
  0004a	89 45 ec	 mov	 DWORD PTR __Whereoff$1$[ebp], eax
  0004d	b8 67 66 66 66	 mov	 eax, 1717986919		; 66666667H
  00052	f7 e9		 imul	 ecx
  00054	c1 fa 03	 sar	 edx, 3
  00057	8b c2		 mov	 eax, edx
  00059	c1 e8 1f	 shr	 eax, 31			; 0000001fH
  0005c	03 c2		 add	 eax, edx

; 886  : 
; 887  :         if (_Oldsize == max_size()) {

  0005e	3d cc cc cc 0c	 cmp	 eax, 214748364		; 0cccccccH
  00063	0f 84 87 01 00
	00		 je	 $LN121@Emplace_re

; 1924 :         return static_cast<size_type>(_My_data._Myend - _My_data._Myfirst);

  00069	8b 4f 08	 mov	 ecx, DWORD PTR [edi+8]

; 889  :         }
; 890  : 
; 891  :         const size_type _Newsize = _Oldsize + 1;

  0006c	8d 58 01	 lea	 ebx, DWORD PTR [eax+1]

; 1924 :         return static_cast<size_type>(_My_data._Myend - _My_data._Myfirst);

  0006f	2b ce		 sub	 ecx, esi

; 889  :         }
; 890  : 
; 891  :         const size_type _Newsize = _Oldsize + 1;

  00071	89 5d e4	 mov	 DWORD PTR __Newsize$1$[ebp], ebx

; 1924 :         return static_cast<size_type>(_My_data._Myend - _My_data._Myfirst);

  00074	b8 67 66 66 66	 mov	 eax, 1717986919		; 66666667H
  00079	f7 e9		 imul	 ecx

; 2011 :         if (_Oldcapacity > _Max - _Oldcapacity / 2) {

  0007b	b8 cc cc cc 0c	 mov	 eax, 214748364		; 0cccccccH

; 1924 :         return static_cast<size_type>(_My_data._Myend - _My_data._Myfirst);

  00080	c1 fa 03	 sar	 edx, 3
  00083	8b ca		 mov	 ecx, edx
  00085	c1 e9 1f	 shr	 ecx, 31			; 0000001fH
  00088	03 ca		 add	 ecx, edx

; 2011 :         if (_Oldcapacity > _Max - _Oldcapacity / 2) {

  0008a	8b d1		 mov	 edx, ecx
  0008c	d1 ea		 shr	 edx, 1
  0008e	2b c2		 sub	 eax, edx
  00090	3b c8		 cmp	 ecx, eax
  00092	76 19		 jbe	 SHORT $LN8@Emplace_re

; 2012 :             return _Max; // geometric growth would overflow

  00094	b8 f0 ff ff ff	 mov	 eax, -16		; fffffff0H
  00099	c7 45 f0 f0 ff
	ff ff		 mov	 DWORD PTR tv576[ebp], -16 ; fffffff0H
; File C:\Program Files\Microsoft Visual Studio\2022\Professional\VC\Tools\MSVC\14.44.35207\include\xmemory

; 253  :             return _Allocate_manually_vector_aligned<_Traits>(_Bytes);

  000a0	50		 push	 eax
; File C:\Program Files\Microsoft Visual Studio\2022\Professional\VC\Tools\MSVC\14.44.35207\include\vector

; 2012 :             return _Max; // geometric growth would overflow

  000a1	be cc cc cc 0c	 mov	 esi, 214748364		; 0cccccccH
; File C:\Program Files\Microsoft Visual Studio\2022\Professional\VC\Tools\MSVC\14.44.35207\include\xmemory

; 253  :             return _Allocate_manually_vector_aligned<_Traits>(_Bytes);

  000a6	e8 00 00 00 00	 call	 ??$_Allocate_manually_vector_aligned@U_Default_allocate_traits@std@@@std@@YAPAXI@Z ; std::_Allocate_manually_vector_aligned<std::_Default_allocate_traits>
  000ab	eb 3c		 jmp	 SHORT $LN119@Emplace_re
$LN8@Emplace_re:
; File C:\Program Files\Microsoft Visual Studio\2022\Professional\VC\Tools\MSVC\14.44.35207\include\vector

; 2015 :         const size_type _Geometric = _Oldcapacity + _Oldcapacity / 2;

  000ad	8d 04 0a	 lea	 eax, DWORD PTR [edx+ecx]
; File C:\Program Files\Microsoft Visual Studio\2022\Professional\VC\Tools\MSVC\14.44.35207\include\xmemory

; 117  :         if (_Count > _Max_possible) {

  000b0	8b f3		 mov	 esi, ebx
  000b2	3b c3		 cmp	 eax, ebx
  000b4	0f 43 f0	 cmovae	 esi, eax
  000b7	81 fe cc cc cc
	0c		 cmp	 esi, 214748364		; 0cccccccH
  000bd	0f 87 32 01 00
	00		 ja	 $LN122@Emplace_re

; 119  :         }
; 120  :     }
; 121  : 
; 122  :     return _Count * _Ty_size;

  000c3	8d 04 b6	 lea	 eax, DWORD PTR [esi+esi*4]
  000c6	c1 e0 02	 shl	 eax, 2
  000c9	89 45 f0	 mov	 DWORD PTR tv576[ebp], eax

; 227  :     if (_Bytes == 0) {

  000cc	85 c0		 test	 eax, eax
  000ce	75 04		 jne	 SHORT $LN23@Emplace_re

; 228  :         return nullptr;

  000d0	33 db		 xor	 ebx, ebx
  000d2	eb 1a		 jmp	 SHORT $LN22@Emplace_re
$LN23@Emplace_re:

; 229  :     }
; 230  : 
; 231  : #if _HAS_CXX20 // TRANSITION, GH-1532
; 232  :     if (_STD is_constant_evaluated()) {
; 233  :         return _Traits::_Allocate(_Bytes);
; 234  :     }
; 235  : #endif // _HAS_CXX20
; 236  : 
; 237  : #ifdef __cpp_aligned_new
; 238  :     if constexpr (_Align > __STDCPP_DEFAULT_NEW_ALIGNMENT__) {
; 239  :         size_t _Passed_align = _Align;
; 240  : #if defined(_M_IX86) || defined(_M_X64)
; 241  :         if (_Bytes >= _Big_allocation_threshold) {
; 242  :             // boost the alignment of big allocations to help autovectorization
; 243  :             _Passed_align = (_STD max)(_Align, _Big_allocation_alignment);
; 244  :         }
; 245  : #endif // defined(_M_IX86) || defined(_M_X64)
; 246  :         return _Traits::_Allocate_aligned(_Bytes, _Passed_align);
; 247  :     } else
; 248  : #endif // defined(__cpp_aligned_new)
; 249  :     {
; 250  : #if defined(_M_IX86) || defined(_M_X64)
; 251  :         if (_Bytes >= _Big_allocation_threshold) {

  000d4	3d 00 10 00 00	 cmp	 eax, 4096		; 00001000H
  000d9	72 08		 jb	 SHORT $LN24@Emplace_re

; 253  :             return _Allocate_manually_vector_aligned<_Traits>(_Bytes);

  000db	50		 push	 eax
  000dc	e8 00 00 00 00	 call	 ??$_Allocate_manually_vector_aligned@U_Default_allocate_traits@std@@@std@@YAPAXI@Z ; std::_Allocate_manually_vector_aligned<std::_Default_allocate_traits>
  000e1	eb 06		 jmp	 SHORT $LN119@Emplace_re
$LN24@Emplace_re:

; 136  :         return ::operator new(_Bytes);

  000e3	50		 push	 eax
  000e4	e8 00 00 00 00	 call	 ??2@YAPAXI@Z		; operator new
$LN119@Emplace_re:
; File C:\Program Files\Microsoft Visual Studio\2022\Professional\VC\Tools\MSVC\14.44.35207\include\vector

; 895  :         const pointer _Constructed_last = _Newvec + _Whereoff + 1;

  000e9	8b d8		 mov	 ebx, eax
  000eb	83 c4 04	 add	 esp, 4
$LN22@Emplace_re:
  000ee	8b 45 ec	 mov	 eax, DWORD PTR __Whereoff$1$[ebp]

; 897  :         _Reallocation_guard _Guard{_Al, _Newvec, _Newcapacity, _Constructed_last, _Constructed_last};

  000f1	89 7d cc	 mov	 DWORD PTR __Guard$[ebp], edi
  000f4	89 5d d0	 mov	 DWORD PTR __Guard$[ebp+4], ebx
  000f7	89 75 d4	 mov	 DWORD PTR __Guard$[ebp+8], esi
  000fa	8d 04 80	 lea	 eax, DWORD PTR [eax+eax*4]
  000fd	8d 0c 83	 lea	 ecx, DWORD PTR [ebx+eax*4]
  00100	8d 41 14	 lea	 eax, DWORD PTR [ecx+20]
  00103	89 4d e0	 mov	 DWORD PTR tv575[ebp], ecx
  00106	89 45 ec	 mov	 DWORD PTR $T2[ebp], eax
  00109	89 45 d8	 mov	 DWORD PTR __Guard$[ebp+12], eax
  0010c	89 45 dc	 mov	 DWORD PTR __Guard$[ebp+16], eax
; File C:\Program Files\Microsoft Visual Studio\2022\Professional\VC\Tools\MSVC\14.44.35207\include\xmemory

; 732  :         ::new (const_cast<void*>(static_cast<const volatile void*>(_Ptr))) _Objty(_STD forward<_Types>(_Args)...);

  0010f	ff 75 0c	 push	 DWORD PTR _<_Val_0>$[ebp]
; File C:\Program Files\Microsoft Visual Studio\2022\Professional\VC\Tools\MSVC\14.44.35207\include\vector

; 897  :         _Reallocation_guard _Guard{_Al, _Newvec, _Newcapacity, _Constructed_last, _Constructed_last};

  00112	c7 45 fc 00 00
	00 00		 mov	 DWORD PTR __$EHRec$[ebp+8], 0
; File C:\Program Files\Microsoft Visual Studio\2022\Professional\VC\Tools\MSVC\14.44.35207\include\xmemory

; 732  :         ::new (const_cast<void*>(static_cast<const volatile void*>(_Ptr))) _Objty(_STD forward<_Types>(_Args)...);

  00119	e8 00 00 00 00	 call	 ??0__GEMABILITY@CUltimateWeapon@@QAE@ABU01@@Z
; File C:\Program Files\Microsoft Visual Studio\2022\Professional\VC\Tools\MSVC\14.44.35207\include\vector

; 903  :         if (_Whereptr == _Mylast) { // at back, provide strong guarantee

  0011e	8b 57 04	 mov	 edx, DWORD PTR [edi+4]
  00121	8b 75 08	 mov	 esi, DWORD PTR __Whereptr$[ebp]
  00124	8b 0f		 mov	 ecx, DWORD PTR [edi]
  00126	3b f2		 cmp	 esi, edx
  00128	75 04		 jne	 SHORT $LN3@Emplace_re

; 904  :             if constexpr (is_nothrow_move_constructible_v<_Ty> || !is_copy_constructible_v<_Ty>) {
; 905  :                 _STD _Uninitialized_move(_Myfirst, _Mylast, _Newvec, _Al);

  0012a	8b c3		 mov	 eax, ebx

; 906  :             } else {
; 907  :                 _STD _Uninitialized_copy(_Myfirst, _Mylast, _Newvec, _Al);
; 908  :             }
; 909  :         } else { // provide basic guarantee

  0012c	eb 14		 jmp	 SHORT $LN4@Emplace_re
$LN3@Emplace_re:

; 910  :             _STD _Uninitialized_move(_Myfirst, _Whereptr, _Newvec, _Al);

  0012e	57		 push	 edi
  0012f	53		 push	 ebx
  00130	56		 push	 esi
  00131	51		 push	 ecx
  00132	e8 00 00 00 00	 call	 ??$_Uninitialized_move@PAU__GEMABILITY@CUltimateWeapon@@V?$allocator@U__GEMABILITY@CUltimateWeapon@@@std@@@std@@YAPAU__GEMABILITY@CUltimateWeapon@@QAU12@0PAU12@AAV?$allocator@U__GEMABILITY@CUltimateWeapon@@@0@@Z ; std::_Uninitialized_move<CUltimateWeapon::__GEMABILITY *,std::allocator<CUltimateWeapon::__GEMABILITY> >

; 911  :             _Constructed_first = _Newvec;
; 912  :             _STD _Uninitialized_move(_Whereptr, _Mylast, _Newvec + _Whereoff + 1, _Al);

  00137	8b 57 04	 mov	 edx, DWORD PTR [edi+4]
  0013a	83 c4 10	 add	 esp, 16			; 00000010H
  0013d	8b 45 ec	 mov	 eax, DWORD PTR $T2[ebp]
  00140	8b ce		 mov	 ecx, esi
$LN4@Emplace_re:

; 913  :         }
; 914  : 
; 915  :         _Guard._New_begin = nullptr;

  00142	57		 push	 edi
  00143	50		 push	 eax
  00144	52		 push	 edx
  00145	51		 push	 ecx
  00146	e8 00 00 00 00	 call	 ??$_Uninitialized_move@PAU__GEMABILITY@CUltimateWeapon@@V?$allocator@U__GEMABILITY@CUltimateWeapon@@@std@@@std@@YAPAU__GEMABILITY@CUltimateWeapon@@QAU12@0PAU12@AAV?$allocator@U__GEMABILITY@CUltimateWeapon@@@0@@Z ; std::_Uninitialized_move<CUltimateWeapon::__GEMABILITY *,std::allocator<CUltimateWeapon::__GEMABILITY> >

; 2069 :         if (_Myfirst) { // destroy and deallocate old array

  0014b	8b 37		 mov	 esi, DWORD PTR [edi]

; 913  :         }
; 914  : 
; 915  :         _Guard._New_begin = nullptr;

  0014d	83 c4 10	 add	 esp, 16			; 00000010H

; 2069 :         if (_Myfirst) { // destroy and deallocate old array

  00150	85 f6		 test	 esi, esi
  00152	74 60		 je	 SHORT $LN61@Emplace_re

; 2070 :             _STD _Destroy_range(_Myfirst, _Mylast, _Al);

  00154	8b 47 04	 mov	 eax, DWORD PTR [edi+4]
; File C:\Program Files\Microsoft Visual Studio\2022\Professional\VC\Tools\MSVC\14.44.35207\include\xmemory

; 1102 :         for (; _First != _Last; ++_First) {

  00157	3b f0		 cmp	 esi, eax
  00159	74 17		 je	 SHORT $LN38@Emplace_re
  0015b	8b f8		 mov	 edi, eax
  0015d	0f 1f 00	 npad	 3
$LL39@Emplace_re:
; File C:\Program Files\Microsoft Visual Studio\2022\Professional\VC\Tools\MSVC\14.44.35207\include\vector

; 830  :         _Tidy();

  00160	8d 4e 08	 lea	 ecx, DWORD PTR [esi+8]
  00163	e8 00 00 00 00	 call	 ?_Tidy@?$vector@HV?$allocator@H@std@@@std@@AAEXXZ ; std::vector<int,std::allocator<int> >::_Tidy
; File C:\Program Files\Microsoft Visual Studio\2022\Professional\VC\Tools\MSVC\14.44.35207\include\xmemory

; 1102 :         for (; _First != _Last; ++_First) {

  00168	83 c6 14	 add	 esi, 20			; 00000014H
  0016b	3b f7		 cmp	 esi, edi
  0016d	75 f1		 jne	 SHORT $LL39@Emplace_re
  0016f	8b 7d e8	 mov	 edi, DWORD PTR _this$1$[ebp]
$LN38@Emplace_re:
; File C:\Program Files\Microsoft Visual Studio\2022\Professional\VC\Tools\MSVC\14.44.35207\include\vector

; 2072 :             _Al.deallocate(_Myfirst, static_cast<size_type>(_Myend - _Myfirst));

  00172	8b 4f 08	 mov	 ecx, DWORD PTR [edi+8]
  00175	b8 67 66 66 66	 mov	 eax, 1717986919		; 66666667H
  0017a	8b 37		 mov	 esi, DWORD PTR [edi]
  0017c	2b ce		 sub	 ecx, esi
  0017e	f7 e9		 imul	 ecx
  00180	c1 fa 03	 sar	 edx, 3
  00183	8b c2		 mov	 eax, edx
  00185	c1 e8 1f	 shr	 eax, 31			; 0000001fH
  00188	03 c2		 add	 eax, edx
; File C:\Program Files\Microsoft Visual Studio\2022\Professional\VC\Tools\MSVC\14.44.35207\include\xmemory

; 985  :         _STD _Deallocate<_New_alignof<_Ty>>(_Ptr, sizeof(_Ty) * _Count);

  0018a	8d 0c 80	 lea	 ecx, DWORD PTR [eax+eax*4]
  0018d	c1 e1 02	 shl	 ecx, 2

; 284  :         if (_Bytes >= _Big_allocation_threshold) {

  00190	81 f9 00 10 00
	00		 cmp	 ecx, 4096		; 00001000H
  00196	72 12		 jb	 SHORT $LN66@Emplace_re

; 205  :     const uintptr_t _Ptr_container   = _Ptr_user[-1];

  00198	8b 56 fc	 mov	 edx, DWORD PTR [esi-4]
  0019b	83 c1 23	 add	 ecx, 35			; 00000023H

; 206  : 
; 207  :     // If the following asserts, it likely means that we are performing
; 208  :     // an aligned delete on memory coming from an unaligned allocation.
; 209  :     _STL_ASSERT(_Ptr_user[-2] == _Big_allocation_sentinel, "invalid argument");
; 210  : 
; 211  :     // Extra paranoia on aligned allocation/deallocation; ensure _Ptr_container is
; 212  :     // in range [_Min_back_shift, _Non_user_size]
; 213  : #ifdef _DEBUG
; 214  :     constexpr uintptr_t _Min_back_shift = 2 * sizeof(void*);
; 215  : #else // ^^^ defined(_DEBUG) / !defined(_DEBUG) vvv
; 216  :     constexpr uintptr_t _Min_back_shift = sizeof(void*);
; 217  : #endif // ^^^ !defined(_DEBUG) ^^^
; 218  :     const uintptr_t _Back_shift = reinterpret_cast<uintptr_t>(_Ptr) - _Ptr_container;

  0019e	2b f2		 sub	 esi, edx

; 219  :     _STL_VERIFY(_Back_shift >= _Min_back_shift && _Back_shift <= _Non_user_size, "invalid argument");

  001a0	8d 46 fc	 lea	 eax, DWORD PTR [esi-4]
  001a3	83 f8 1f	 cmp	 eax, 31			; 0000001fH
  001a6	77 39		 ja	 SHORT $LN65@Emplace_re

; 220  :     _Ptr = reinterpret_cast<void*>(_Ptr_container);

  001a8	8b f2		 mov	 esi, edx
$LN66@Emplace_re:

; 289  :         ::operator delete(_Ptr, _Bytes);

  001aa	51		 push	 ecx
  001ab	56		 push	 esi
  001ac	e8 00 00 00 00	 call	 ??3@YAXPAXI@Z		; operator delete
  001b1	83 c4 08	 add	 esp, 8
$LN61@Emplace_re:
; File C:\Program Files\Microsoft Visual Studio\2022\Professional\VC\Tools\MSVC\14.44.35207\include\vector

; 2076 :         _Mylast  = _Newvec + _Newsize;

  001b4	8b 4d e4	 mov	 ecx, DWORD PTR __Newsize$1$[ebp]

; 916  :         _Change_array(_Newvec, _Newsize, _Newcapacity);
; 917  :         return _Newvec + _Whereoff;

  001b7	8b 45 e0	 mov	 eax, DWORD PTR tv575[ebp]

; 2075 :         _Myfirst = _Newvec;

  001ba	89 1f		 mov	 DWORD PTR [edi], ebx

; 2076 :         _Mylast  = _Newvec + _Newsize;

  001bc	8d 0c 89	 lea	 ecx, DWORD PTR [ecx+ecx*4]
  001bf	8d 0c 8b	 lea	 ecx, DWORD PTR [ebx+ecx*4]
  001c2	89 4f 04	 mov	 DWORD PTR [edi+4], ecx

; 2077 :         _Myend   = _Newvec + _Newcapacity;

  001c5	8b 4d f0	 mov	 ecx, DWORD PTR tv576[ebp]
  001c8	03 cb		 add	 ecx, ebx
  001ca	89 4f 08	 mov	 DWORD PTR [edi+8], ecx

; 918  :     }

  001cd	8b 4d f4	 mov	 ecx, DWORD PTR __$EHRec$[ebp]
  001d0	64 89 0d 00 00
	00 00		 mov	 DWORD PTR fs:0, ecx
  001d7	59		 pop	 ecx
  001d8	5f		 pop	 edi
  001d9	5e		 pop	 esi
  001da	5b		 pop	 ebx
  001db	8b e5		 mov	 esp, ebp
  001dd	5d		 pop	 ebp
  001de	c2 08 00	 ret	 8
$LN65@Emplace_re:
; File C:\Program Files\Microsoft Visual Studio\2022\Professional\VC\Tools\MSVC\14.44.35207\include\xmemory

; 219  :     _STL_VERIFY(_Back_shift >= _Min_back_shift && _Back_shift <= _Non_user_size, "invalid argument");

  001e1	6a 00		 push	 0
  001e3	6a 00		 push	 0
  001e5	6a 00		 push	 0
  001e7	6a 00		 push	 0
  001e9	6a 00		 push	 0
  001eb	e8 00 00 00 00	 call	 __invoke_watson
$LN121@Emplace_re:
; File C:\Program Files\Microsoft Visual Studio\2022\Professional\VC\Tools\MSVC\14.44.35207\include\vector

; 888  :             _Xlength();

  001f0	e8 00 00 00 00	 call	 ?_Xlength@?$vector@U__GEMABILITY@CUltimateWeapon@@V?$allocator@U__GEMABILITY@CUltimateWeapon@@@std@@@std@@CAXXZ ; std::vector<CUltimateWeapon::__GEMABILITY,std::allocator<CUltimateWeapon::__GEMABILITY> >::_Xlength
$LN122@Emplace_re:
; File C:\Program Files\Microsoft Visual Studio\2022\Professional\VC\Tools\MSVC\14.44.35207\include\xmemory

; 118  :             _Throw_bad_array_new_length(); // multiply overflow

  001f5	e8 00 00 00 00	 call	 ?_Throw_bad_array_new_length@std@@YAXXZ ; std::_Throw_bad_array_new_length
$LN118@Emplace_re:
  001fa	cc		 int	 3
_TEXT	ENDS
;	COMDAT text$x
text$x	SEGMENT
__unwindfunclet$??$_Emplace_reallocate@ABU__GEMABILITY@CUltimateWeapon@@@?$vector@U__GEMABILITY@CUltimateWeapon@@V?$allocator@U__GEMABILITY@CUltimateWeapon@@@std@@@std@@AAEPAU__GEMABILITY@CUltimateWeapon@@QAU23@ABU23@@Z$0:
  00000	8d 4d cc	 lea	 ecx, DWORD PTR __Guard$[ebp]
  00003	e9 00 00 00 00	 jmp	 ??1_Reallocation_guard@?$vector@U__GEMABILITY@CUltimateWeapon@@V?$allocator@U__GEMABILITY@CUltimateWeapon@@@std@@@std@@QAE@XZ ; std::vector<CUltimateWeapon::__GEMABILITY,std::allocator<CUltimateWeapon::__GEMABILITY> >::_Reallocation_guard::~_Reallocation_guard
  00008	cc		 int	 3
  00009	cc		 int	 3
  0000a	cc		 int	 3
  0000b	cc		 int	 3
  0000c	cc		 int	 3
__ehhandler$??$_Emplace_reallocate@ABU__GEMABILITY@CUltimateWeapon@@@?$vector@U__GEMABILITY@CUltimateWeapon@@V?$allocator@U__GEMABILITY@CUltimateWeapon@@@std@@@std@@AAEPAU__GEMABILITY@CUltimateWeapon@@QAU23@ABU23@@Z:
  0000d	90		 npad	 1
  0000e	90		 npad	 1
  0000f	8b 54 24 08	 mov	 edx, DWORD PTR [esp+8]
  00013	8d 42 0c	 lea	 eax, DWORD PTR [edx+12]
  00016	8b 4a c8	 mov	 ecx, DWORD PTR [edx-56]
  00019	33 c8		 xor	 ecx, eax
  0001b	e8 00 00 00 00	 call	 @__security_check_cookie@4
  00020	b8 00 00 00 00	 mov	 eax, OFFSET __ehfuncinfo$??$_Emplace_reallocate@ABU__GEMABILITY@CUltimateWeapon@@@?$vector@U__GEMABILITY@CUltimateWeapon@@V?$allocator@U__GEMABILITY@CUltimateWeapon@@@std@@@std@@AAEPAU__GEMABILITY@CUltimateWeapon@@QAU23@ABU23@@Z
  00025	e9 00 00 00 00	 jmp	 ___CxxFrameHandler3
text$x	ENDS
??$_Emplace_reallocate@ABU__GEMABILITY@CUltimateWeapon@@@?$vector@U__GEMABILITY@CUltimateWeapon@@V?$allocator@U__GEMABILITY@CUltimateWeapon@@@std@@@std@@AAEPAU__GEMABILITY@CUltimateWeapon@@QAU23@ABU23@@Z ENDP ; std::vector<CUltimateWeapon::__GEMABILITY,std::allocator<CUltimateWeapon::__GEMABILITY> >::_Emplace_reallocate<CUltimateWeapon::__GEMABILITY const &>
; Function compile flags: /Ogtp
; File C:\Program Files\Microsoft Visual Studio\2022\Professional\VC\Tools\MSVC\14.44.35207\include\xmemory
;	COMDAT ??$_Uninitialized_copy_n@PAU__GEMABILITY@CUltimateWeapon@@V?$allocator@U__GEMABILITY@CUltimateWeapon@@@std@@@std@@YAPAU__GEMABILITY@CUltimateWeapon@@PAU12@I0AAV?$allocator@U__GEMABILITY@CUltimateWeapon@@@0@@Z
_TEXT	SEGMENT
__Backout$ = -24					; size = 12
__$EHRec$ = -12						; size = 12
__First$ = 8						; size = 4
__Count$ = 12						; size = 4
__Dest$ = 16						; size = 4
__Al$ = 20						; size = 4
??$_Uninitialized_copy_n@PAU__GEMABILITY@CUltimateWeapon@@V?$allocator@U__GEMABILITY@CUltimateWeapon@@@std@@@std@@YAPAU__GEMABILITY@CUltimateWeapon@@PAU12@I0AAV?$allocator@U__GEMABILITY@CUltimateWeapon@@@0@@Z PROC ; std::_Uninitialized_copy_n<CUltimateWeapon::__GEMABILITY *,std::allocator<CUltimateWeapon::__GEMABILITY> >, COMDAT

; 1910 :     _InIt _First, size_t _Count, _Alloc_ptr_t<_Alloc> _Dest, _Alloc& _Al) {

  00000	55		 push	 ebp
  00001	8b ec		 mov	 ebp, esp
  00003	6a ff		 push	 -1
  00005	68 00 00 00 00	 push	 __ehhandler$??$_Uninitialized_copy_n@PAU__GEMABILITY@CUltimateWeapon@@V?$allocator@U__GEMABILITY@CUltimateWeapon@@@std@@@std@@YAPAU__GEMABILITY@CUltimateWeapon@@PAU12@I0AAV?$allocator@U__GEMABILITY@CUltimateWeapon@@@0@@Z
  0000a	64 a1 00 00 00
	00		 mov	 eax, DWORD PTR fs:0
  00010	50		 push	 eax
  00011	83 ec 0c	 sub	 esp, 12			; 0000000cH
  00014	53		 push	 ebx
  00015	56		 push	 esi
  00016	57		 push	 edi
  00017	a1 00 00 00 00	 mov	 eax, DWORD PTR ___security_cookie
  0001c	33 c5		 xor	 eax, ebp
  0001e	50		 push	 eax
  0001f	8d 45 f4	 lea	 eax, DWORD PTR __$EHRec$[ebp]
  00022	64 a3 00 00 00
	00		 mov	 DWORD PTR fs:0, eax

; 1833 :     _CONSTEXPR20 _Uninitialized_backout_al(pointer _Dest, _Alloc& _Al_) : _First(_Dest), _Last(_Dest), _Al(_Al_) {}

  00028	8b 75 10	 mov	 esi, DWORD PTR __Dest$[ebp]
  0002b	8b 45 14	 mov	 eax, DWORD PTR __Al$[ebp]

; 1911 :     // copy _First + [0, _Count) to raw _Dest, using _Al
; 1912 :     // note: only called internally from elsewhere in the STL
; 1913 :     using _Ptrval = typename _Alloc::value_type*;
; 1914 : 
; 1915 : #ifdef _ENABLE_STL_INTERNAL_CHECK
; 1916 :     auto _UFirst = _STD _Get_unwrapped_n(_STD move(_First), _Count);
; 1917 : #else // ^^^ Checking / No checking vvv
; 1918 :     auto _UFirst = _STD _Get_unwrapped(_STD move(_First));

  0002e	8b 7d 08	 mov	 edi, DWORD PTR __First$[ebp]

; 1833 :     _CONSTEXPR20 _Uninitialized_backout_al(pointer _Dest, _Alloc& _Al_) : _First(_Dest), _Last(_Dest), _Al(_Al_) {}

  00031	89 75 e8	 mov	 DWORD PTR __Backout$[ebp], esi
  00034	89 75 ec	 mov	 DWORD PTR __Backout$[ebp+4], esi
  00037	89 45 f0	 mov	 DWORD PTR __Backout$[ebp+8], eax

; 1919 : #endif // ^^^ No checking ^^^
; 1920 : 
; 1921 :     constexpr bool _Can_memmove =
; 1922 :         conjunction_v<bool_constant<_Iter_copy_cat<decltype(_UFirst), _Ptrval>::_Bitcopy_constructible>,
; 1923 :             _Uses_default_construct<_Alloc, _Ptrval, decltype(*_UFirst)>>;
; 1924 : 
; 1925 :     if constexpr (_Can_memmove) {
; 1926 : #if _HAS_CXX20
; 1927 :         if (!_STD is_constant_evaluated())
; 1928 : #endif // _HAS_CXX20
; 1929 :         {
; 1930 :             _STD _Copy_memmove_n(_UFirst, _Count, _STD _Unfancy(_Dest));
; 1931 :             _Dest += _Count;
; 1932 :             return _Dest;
; 1933 :         }
; 1934 :     }
; 1935 : 
; 1936 :     _Uninitialized_backout_al<_Alloc> _Backout{_Dest, _Al};
; 1937 :     for (; _Count != 0; ++_UFirst, (void) --_Count) {

  0003a	8b 5d 0c	 mov	 ebx, DWORD PTR __Count$[ebp]
  0003d	c7 45 fc 00 00
	00 00		 mov	 DWORD PTR __$EHRec$[ebp+8], 0
  00044	85 db		 test	 ebx, ebx
  00046	74 16		 je	 SHORT $LN46@Uninitiali
$LL4@Uninitiali:

; 732  :         ::new (const_cast<void*>(static_cast<const volatile void*>(_Ptr))) _Objty(_STD forward<_Types>(_Args)...);

  00048	57		 push	 edi
  00049	8b ce		 mov	 ecx, esi
  0004b	e8 00 00 00 00	 call	 ??0__GEMABILITY@CUltimateWeapon@@QAE@ABU01@@Z

; 1845 :         ++_Last;

  00050	83 c6 14	 add	 esi, 20			; 00000014H

; 1919 : #endif // ^^^ No checking ^^^
; 1920 : 
; 1921 :     constexpr bool _Can_memmove =
; 1922 :         conjunction_v<bool_constant<_Iter_copy_cat<decltype(_UFirst), _Ptrval>::_Bitcopy_constructible>,
; 1923 :             _Uses_default_construct<_Alloc, _Ptrval, decltype(*_UFirst)>>;
; 1924 : 
; 1925 :     if constexpr (_Can_memmove) {
; 1926 : #if _HAS_CXX20
; 1927 :         if (!_STD is_constant_evaluated())
; 1928 : #endif // _HAS_CXX20
; 1929 :         {
; 1930 :             _STD _Copy_memmove_n(_UFirst, _Count, _STD _Unfancy(_Dest));
; 1931 :             _Dest += _Count;
; 1932 :             return _Dest;
; 1933 :         }
; 1934 :     }
; 1935 : 
; 1936 :     _Uninitialized_backout_al<_Alloc> _Backout{_Dest, _Al};
; 1937 :     for (; _Count != 0; ++_UFirst, (void) --_Count) {

  00053	83 c7 14	 add	 edi, 20			; 00000014H

; 1845 :         ++_Last;

  00056	89 75 ec	 mov	 DWORD PTR __Backout$[ebp+4], esi

; 1919 : #endif // ^^^ No checking ^^^
; 1920 : 
; 1921 :     constexpr bool _Can_memmove =
; 1922 :         conjunction_v<bool_constant<_Iter_copy_cat<decltype(_UFirst), _Ptrval>::_Bitcopy_constructible>,
; 1923 :             _Uses_default_construct<_Alloc, _Ptrval, decltype(*_UFirst)>>;
; 1924 : 
; 1925 :     if constexpr (_Can_memmove) {
; 1926 : #if _HAS_CXX20
; 1927 :         if (!_STD is_constant_evaluated())
; 1928 : #endif // _HAS_CXX20
; 1929 :         {
; 1930 :             _STD _Copy_memmove_n(_UFirst, _Count, _STD _Unfancy(_Dest));
; 1931 :             _Dest += _Count;
; 1932 :             return _Dest;
; 1933 :         }
; 1934 :     }
; 1935 : 
; 1936 :     _Uninitialized_backout_al<_Alloc> _Backout{_Dest, _Al};
; 1937 :     for (; _Count != 0; ++_UFirst, (void) --_Count) {

  00059	83 eb 01	 sub	 ebx, 1
  0005c	75 ea		 jne	 SHORT $LL4@Uninitiali
$LN46@Uninitiali:

; 1938 :         _Backout._Emplace_back(*_UFirst);
; 1939 :     }
; 1940 : 
; 1941 :     return _Backout._Release();
; 1942 : }

  0005e	8b c6		 mov	 eax, esi
  00060	8b 4d f4	 mov	 ecx, DWORD PTR __$EHRec$[ebp]
  00063	64 89 0d 00 00
	00 00		 mov	 DWORD PTR fs:0, ecx
  0006a	59		 pop	 ecx
  0006b	5f		 pop	 edi
  0006c	5e		 pop	 esi
  0006d	5b		 pop	 ebx
  0006e	8b e5		 mov	 esp, ebp
  00070	5d		 pop	 ebp
  00071	c3		 ret	 0
_TEXT	ENDS
;	COMDAT text$x
text$x	SEGMENT
__unwindfunclet$??$_Uninitialized_copy_n@PAU__GEMABILITY@CUltimateWeapon@@V?$allocator@U__GEMABILITY@CUltimateWeapon@@@std@@@std@@YAPAU__GEMABILITY@CUltimateWeapon@@PAU12@I0AAV?$allocator@U__GEMABILITY@CUltimateWeapon@@@0@@Z$0:
  00000	8d 4d e8	 lea	 ecx, DWORD PTR __Backout$[ebp]
  00003	e9 00 00 00 00	 jmp	 ??1?$_Uninitialized_backout_al@V?$allocator@U__GEMABILITY@CUltimateWeapon@@@std@@@std@@QAE@XZ ; std::_Uninitialized_backout_al<std::allocator<CUltimateWeapon::__GEMABILITY> >::~_Uninitialized_backout_al<std::allocator<CUltimateWeapon::__GEMABILITY> >
  00008	cc		 int	 3
  00009	cc		 int	 3
  0000a	cc		 int	 3
  0000b	cc		 int	 3
  0000c	cc		 int	 3
__ehhandler$??$_Uninitialized_copy_n@PAU__GEMABILITY@CUltimateWeapon@@V?$allocator@U__GEMABILITY@CUltimateWeapon@@@std@@@std@@YAPAU__GEMABILITY@CUltimateWeapon@@PAU12@I0AAV?$allocator@U__GEMABILITY@CUltimateWeapon@@@0@@Z:
  0000d	90		 npad	 1
  0000e	90		 npad	 1
  0000f	8b 54 24 08	 mov	 edx, DWORD PTR [esp+8]
  00013	8d 42 0c	 lea	 eax, DWORD PTR [edx+12]
  00016	8b 4a e4	 mov	 ecx, DWORD PTR [edx-28]
  00019	33 c8		 xor	 ecx, eax
  0001b	e8 00 00 00 00	 call	 @__security_check_cookie@4
  00020	b8 00 00 00 00	 mov	 eax, OFFSET __ehfuncinfo$??$_Uninitialized_copy_n@PAU__GEMABILITY@CUltimateWeapon@@V?$allocator@U__GEMABILITY@CUltimateWeapon@@@std@@@std@@YAPAU__GEMABILITY@CUltimateWeapon@@PAU12@I0AAV?$allocator@U__GEMABILITY@CUltimateWeapon@@@0@@Z
  00025	e9 00 00 00 00	 jmp	 ___CxxFrameHandler3
text$x	ENDS
??$_Uninitialized_copy_n@PAU__GEMABILITY@CUltimateWeapon@@V?$allocator@U__GEMABILITY@CUltimateWeapon@@@std@@@std@@YAPAU__GEMABILITY@CUltimateWeapon@@PAU12@I0AAV?$allocator@U__GEMABILITY@CUltimateWeapon@@@0@@Z ENDP ; std::_Uninitialized_copy_n<CUltimateWeapon::__GEMABILITY *,std::allocator<CUltimateWeapon::__GEMABILITY> >
; Function compile flags: /Ogtp
; File C:\Program Files\Microsoft Visual Studio\2022\Professional\VC\Tools\MSVC\14.44.35207\include\vector
; File C:\Program Files\Microsoft Visual Studio\2022\Professional\VC\Tools\MSVC\14.44.35207\include\xmemory
; File C:\Program Files\Microsoft Visual Studio\2022\Professional\VC\Tools\MSVC\14.44.35207\include\vector
; File C:\Program Files\Microsoft Visual Studio\2022\Professional\VC\Tools\MSVC\14.44.35207\include\xmemory
; File C:\Program Files\Microsoft Visual Studio\2022\Professional\VC\Tools\MSVC\14.44.35207\include\vector
; File C:\Program Files\Microsoft Visual Studio\2022\Professional\VC\Tools\MSVC\14.44.35207\include\xmemory
; File C:\Program Files\Microsoft Visual Studio\2022\Professional\VC\Tools\MSVC\14.44.35207\include\vector
; File C:\Program Files\Microsoft Visual Studio\2022\Professional\VC\Tools\MSVC\14.44.35207\include\xmemory
; File C:\Program Files\Microsoft Visual Studio\2022\Professional\VC\Tools\MSVC\14.44.35207\include\vector
; File C:\Program Files\Microsoft Visual Studio\2022\Professional\VC\Tools\MSVC\14.44.35207\include\xmemory
; File C:\Program Files\Microsoft Visual Studio\2022\Professional\VC\Tools\MSVC\14.44.35207\include\vector
; File C:\Program Files\Microsoft Visual Studio\2022\Professional\VC\Tools\MSVC\14.44.35207\include\xmemory
; File C:\Program Files\Microsoft Visual Studio\2022\Professional\VC\Tools\MSVC\14.44.35207\include\vector
; File C:\Program Files\Microsoft Visual Studio\2022\Professional\VC\Tools\MSVC\14.44.35207\include\xmemory
; File C:\Program Files\Microsoft Visual Studio\2022\Professional\VC\Tools\MSVC\14.44.35207\include\vector
; File C:\Program Files\Microsoft Visual Studio\2022\Professional\VC\Tools\MSVC\14.44.35207\include\xmemory
; File C:\Program Files\Microsoft Visual Studio\2022\Professional\VC\Tools\MSVC\14.44.35207\include\vector
; File C:\Program Files\Microsoft Visual Studio\2022\Professional\VC\Tools\MSVC\14.44.35207\include\xmemory
; File C:\Program Files\Microsoft Visual Studio\2022\Professional\VC\Tools\MSVC\14.44.35207\include\vector
;	COMDAT ??$_Emplace_reallocate@ABU__MAKEGEMITEM@CUltimateWeapon@@@?$vector@U__MAKEGEMITEM@CUltimateWeapon@@V?$allocator@U__MAKEGEMITEM@CUltimateWeapon@@@std@@@std@@AAEPAU__MAKEGEMITEM@CUltimateWeapon@@QAU23@ABU23@@Z
_TEXT	SEGMENT
__Oldsize$1$ = -12					; size = 4
__Whereoff$1$ = -8					; size = 4
tv650 = -8						; size = 4
tv652 = -4						; size = 4
__Whereptr$ = 8						; size = 4
_<_Val_0>$ = 12						; size = 4
??$_Emplace_reallocate@ABU__MAKEGEMITEM@CUltimateWeapon@@@?$vector@U__MAKEGEMITEM@CUltimateWeapon@@V?$allocator@U__MAKEGEMITEM@CUltimateWeapon@@@std@@@std@@AAEPAU__MAKEGEMITEM@CUltimateWeapon@@QAU23@ABU23@@Z PROC ; std::vector<CUltimateWeapon::__MAKEGEMITEM,std::allocator<CUltimateWeapon::__MAKEGEMITEM> >::_Emplace_reallocate<CUltimateWeapon::__MAKEGEMITEM const &>, COMDAT
; _this$ = ecx

; 875  :     _CONSTEXPR20 pointer _Emplace_reallocate(const pointer _Whereptr, _Valty&&... _Val) {

  00000	55		 push	 ebp
  00001	8b ec		 mov	 ebp, esp
  00003	83 ec 0c	 sub	 esp, 12			; 0000000cH

; 876  :         // reallocate and insert by perfectly forwarding _Val at _Whereptr
; 877  :         _Alty& _Al        = _Getal();
; 878  :         auto& _My_data    = _Mypair._Myval2;
; 879  :         pointer& _Myfirst = _My_data._Myfirst;
; 880  :         pointer& _Mylast  = _My_data._Mylast;
; 881  : 
; 882  :         _STL_INTERNAL_CHECK(_Mylast == _My_data._Myend); // check that we have no unused capacity
; 883  : 
; 884  :         const auto _Whereoff = static_cast<size_type>(_Whereptr - _Myfirst);

  00006	8b 55 08	 mov	 edx, DWORD PTR __Whereptr$[ebp]
  00009	b8 ab aa aa 2a	 mov	 eax, 715827883		; 2aaaaaabH
  0000e	53		 push	 ebx
  0000f	8b d9		 mov	 ebx, ecx
  00011	57		 push	 edi
  00012	8b 3b		 mov	 edi, DWORD PTR [ebx]
  00014	2b d7		 sub	 edx, edi

; 885  :         const auto _Oldsize  = static_cast<size_type>(_Mylast - _Myfirst);

  00016	8b 4b 04	 mov	 ecx, DWORD PTR [ebx+4]
  00019	f7 ea		 imul	 edx
  0001b	2b cf		 sub	 ecx, edi
  0001d	d1 fa		 sar	 edx, 1
  0001f	8b c2		 mov	 eax, edx
  00021	c1 e8 1f	 shr	 eax, 31			; 0000001fH
  00024	03 c2		 add	 eax, edx
  00026	89 45 f8	 mov	 DWORD PTR __Whereoff$1$[ebp], eax
  00029	b8 ab aa aa 2a	 mov	 eax, 715827883		; 2aaaaaabH
  0002e	f7 e9		 imul	 ecx
  00030	d1 fa		 sar	 edx, 1
  00032	8b c2		 mov	 eax, edx
  00034	c1 e8 1f	 shr	 eax, 31			; 0000001fH
  00037	03 c2		 add	 eax, edx
  00039	89 45 f4	 mov	 DWORD PTR __Oldsize$1$[ebp], eax

; 886  : 
; 887  :         if (_Oldsize == max_size()) {

  0003c	3d 55 55 55 15	 cmp	 eax, 357913941		; 15555555H
  00041	0f 84 42 01 00
	00		 je	 $LN119@Emplace_re

; 1924 :         return static_cast<size_type>(_My_data._Myend - _My_data._Myfirst);

  00047	8b 4b 08	 mov	 ecx, DWORD PTR [ebx+8]
  0004a	2b cf		 sub	 ecx, edi
  0004c	56		 push	 esi

; 889  :         }
; 890  : 
; 891  :         const size_type _Newsize = _Oldsize + 1;

  0004d	8d 70 01	 lea	 esi, DWORD PTR [eax+1]

; 1924 :         return static_cast<size_type>(_My_data._Myend - _My_data._Myfirst);

  00050	b8 ab aa aa 2a	 mov	 eax, 715827883		; 2aaaaaabH
  00055	f7 e9		 imul	 ecx

; 2011 :         if (_Oldcapacity > _Max - _Oldcapacity / 2) {

  00057	b8 55 55 55 15	 mov	 eax, 357913941		; 15555555H

; 1924 :         return static_cast<size_type>(_My_data._Myend - _My_data._Myfirst);

  0005c	d1 fa		 sar	 edx, 1
  0005e	8b ca		 mov	 ecx, edx
  00060	c1 e9 1f	 shr	 ecx, 31			; 0000001fH
  00063	03 ca		 add	 ecx, edx

; 2011 :         if (_Oldcapacity > _Max - _Oldcapacity / 2) {

  00065	8b d1		 mov	 edx, ecx
  00067	d1 ea		 shr	 edx, 1
  00069	2b c2		 sub	 eax, edx
  0006b	3b c8		 cmp	 ecx, eax
  0006d	76 14		 jbe	 SHORT $LN8@Emplace_re

; 2012 :             return _Max; // geometric growth would overflow

  0006f	b8 fc ff ff ff	 mov	 eax, -4			; fffffffcH
  00074	c7 45 fc fc ff
	ff ff		 mov	 DWORD PTR tv652[ebp], -4 ; fffffffcH
; File C:\Program Files\Microsoft Visual Studio\2022\Professional\VC\Tools\MSVC\14.44.35207\include\xmemory

; 253  :             return _Allocate_manually_vector_aligned<_Traits>(_Bytes);

  0007b	50		 push	 eax
  0007c	e8 00 00 00 00	 call	 ??$_Allocate_manually_vector_aligned@U_Default_allocate_traits@std@@@std@@YAPAXI@Z ; std::_Allocate_manually_vector_aligned<std::_Default_allocate_traits>
  00081	eb 3e		 jmp	 SHORT $LN117@Emplace_re
$LN8@Emplace_re:
; File C:\Program Files\Microsoft Visual Studio\2022\Professional\VC\Tools\MSVC\14.44.35207\include\vector

; 2015 :         const size_type _Geometric = _Oldcapacity + _Oldcapacity / 2;

  00083	8d 04 0a	 lea	 eax, DWORD PTR [edx+ecx]
; File C:\Program Files\Microsoft Visual Studio\2022\Professional\VC\Tools\MSVC\14.44.35207\include\xmemory

; 117  :         if (_Count > _Max_possible) {

  00086	8b ce		 mov	 ecx, esi
  00088	3b c6		 cmp	 eax, esi
  0008a	0f 43 c8	 cmovae	 ecx, eax
  0008d	81 f9 55 55 55
	15		 cmp	 ecx, 357913941		; 15555555H
  00093	0f 87 f5 00 00
	00		 ja	 $LN120@Emplace_re

; 119  :         }
; 120  :     }
; 121  : 
; 122  :     return _Count * _Ty_size;

  00099	8d 34 49	 lea	 esi, DWORD PTR [ecx+ecx*2]
  0009c	c1 e6 02	 shl	 esi, 2

; 990  :         return static_cast<_Ty*>(_STD _Allocate<_New_alignof<_Ty>>(_Get_size_of_n<sizeof(_Ty)>(_Count)));

  0009f	8b c6		 mov	 eax, esi

; 122  :     return _Count * _Ty_size;

  000a1	89 75 fc	 mov	 DWORD PTR tv652[ebp], esi

; 227  :     if (_Bytes == 0) {

  000a4	85 c0		 test	 eax, eax
  000a6	75 04		 jne	 SHORT $LN23@Emplace_re

; 228  :         return nullptr;

  000a8	33 ff		 xor	 edi, edi
  000aa	eb 1a		 jmp	 SHORT $LN22@Emplace_re
$LN23@Emplace_re:

; 229  :     }
; 230  : 
; 231  : #if _HAS_CXX20 // TRANSITION, GH-1532
; 232  :     if (_STD is_constant_evaluated()) {
; 233  :         return _Traits::_Allocate(_Bytes);
; 234  :     }
; 235  : #endif // _HAS_CXX20
; 236  : 
; 237  : #ifdef __cpp_aligned_new
; 238  :     if constexpr (_Align > __STDCPP_DEFAULT_NEW_ALIGNMENT__) {
; 239  :         size_t _Passed_align = _Align;
; 240  : #if defined(_M_IX86) || defined(_M_X64)
; 241  :         if (_Bytes >= _Big_allocation_threshold) {
; 242  :             // boost the alignment of big allocations to help autovectorization
; 243  :             _Passed_align = (_STD max)(_Align, _Big_allocation_alignment);
; 244  :         }
; 245  : #endif // defined(_M_IX86) || defined(_M_X64)
; 246  :         return _Traits::_Allocate_aligned(_Bytes, _Passed_align);
; 247  :     } else
; 248  : #endif // defined(__cpp_aligned_new)
; 249  :     {
; 250  : #if defined(_M_IX86) || defined(_M_X64)
; 251  :         if (_Bytes >= _Big_allocation_threshold) {

  000ac	3d 00 10 00 00	 cmp	 eax, 4096		; 00001000H
  000b1	72 08		 jb	 SHORT $LN24@Emplace_re

; 253  :             return _Allocate_manually_vector_aligned<_Traits>(_Bytes);

  000b3	50		 push	 eax
  000b4	e8 00 00 00 00	 call	 ??$_Allocate_manually_vector_aligned@U_Default_allocate_traits@std@@@std@@YAPAXI@Z ; std::_Allocate_manually_vector_aligned<std::_Default_allocate_traits>
  000b9	eb 06		 jmp	 SHORT $LN117@Emplace_re
$LN24@Emplace_re:

; 136  :         return ::operator new(_Bytes);

  000bb	50		 push	 eax
  000bc	e8 00 00 00 00	 call	 ??2@YAPAXI@Z		; operator new
$LN117@Emplace_re:
; File C:\Program Files\Microsoft Visual Studio\2022\Professional\VC\Tools\MSVC\14.44.35207\include\vector

; 900  :         _Alty_traits::construct(_Al, _STD _Unfancy(_Newvec + _Whereoff), _STD forward<_Valty>(_Val)...);

  000c1	8b f8		 mov	 edi, eax
  000c3	83 c4 04	 add	 esp, 4
$LN22@Emplace_re:
  000c6	8b 45 f8	 mov	 eax, DWORD PTR __Whereoff$1$[ebp]

; 903  :         if (_Whereptr == _Mylast) { // at back, provide strong guarantee

  000c9	8b 55 08	 mov	 edx, DWORD PTR __Whereptr$[ebp]
  000cc	8d 04 40	 lea	 eax, DWORD PTR [eax+eax*2]
  000cf	8d 34 87	 lea	 esi, DWORD PTR [edi+eax*4]
; File C:\Program Files\Microsoft Visual Studio\2022\Professional\VC\Tools\MSVC\14.44.35207\include\xmemory

; 732  :         ::new (const_cast<void*>(static_cast<const volatile void*>(_Ptr))) _Objty(_STD forward<_Types>(_Args)...);

  000d2	8b 45 0c	 mov	 eax, DWORD PTR _<_Val_0>$[ebp]
; File C:\Program Files\Microsoft Visual Studio\2022\Professional\VC\Tools\MSVC\14.44.35207\include\vector

; 900  :         _Alty_traits::construct(_Al, _STD _Unfancy(_Newvec + _Whereoff), _STD forward<_Valty>(_Val)...);

  000d5	89 75 f8	 mov	 DWORD PTR tv650[ebp], esi
; File C:\Program Files\Microsoft Visual Studio\2022\Professional\VC\Tools\MSVC\14.44.35207\include\xmemory

; 732  :         ::new (const_cast<void*>(static_cast<const volatile void*>(_Ptr))) _Objty(_STD forward<_Types>(_Args)...);

  000d8	f3 0f 7e 00	 movq	 xmm0, QWORD PTR [eax]
  000dc	66 0f d6 06	 movq	 QWORD PTR [esi], xmm0
  000e0	8b 40 08	 mov	 eax, DWORD PTR [eax+8]
  000e3	89 46 08	 mov	 DWORD PTR [esi+8], eax
; File C:\Program Files\Microsoft Visual Studio\2022\Professional\VC\Tools\MSVC\14.44.35207\include\vector

; 903  :         if (_Whereptr == _Mylast) { // at back, provide strong guarantee

  000e6	8b 4b 04	 mov	 ecx, DWORD PTR [ebx+4]
  000e9	8b 03		 mov	 eax, DWORD PTR [ebx]
  000eb	3b d1		 cmp	 edx, ecx
  000ed	75 04		 jne	 SHORT $LN3@Emplace_re
; File C:\Program Files\Microsoft Visual Studio\2022\Professional\VC\Tools\MSVC\14.44.35207\include\xmemory

; 1992 :             _STD _Copy_memmove(_UFirst, _ULast, _STD _Unfancy(_Dest));

  000ef	8b f7		 mov	 esi, edi
; File C:\Program Files\Microsoft Visual Studio\2022\Professional\VC\Tools\MSVC\14.44.35207\include\vector

; 909  :         } else { // provide basic guarantee

  000f1	eb 14		 jmp	 SHORT $LN58@Emplace_re
$LN3@Emplace_re:
; File C:\Program Files\Microsoft Visual Studio\2022\Professional\VC\Tools\MSVC\14.44.35207\include\xmemory

; 1992 :             _STD _Copy_memmove(_UFirst, _ULast, _STD _Unfancy(_Dest));

  000f3	57		 push	 edi
  000f4	52		 push	 edx
  000f5	50		 push	 eax
  000f6	e8 00 00 00 00	 call	 ??$_Copy_memmove@PAU__MAKEGEMITEM@CUltimateWeapon@@PAU12@@std@@YAPAU__MAKEGEMITEM@CUltimateWeapon@@PAU12@00@Z ; std::_Copy_memmove<CUltimateWeapon::__MAKEGEMITEM *,CUltimateWeapon::__MAKEGEMITEM *>
  000fb	8b 45 08	 mov	 eax, DWORD PTR __Whereptr$[ebp]
  000fe	83 c4 0c	 add	 esp, 12			; 0000000cH
  00101	8b 4b 04	 mov	 ecx, DWORD PTR [ebx+4]
; File C:\Program Files\Microsoft Visual Studio\2022\Professional\VC\Tools\MSVC\14.44.35207\include\vector

; 912  :             _STD _Uninitialized_move(_Whereptr, _Mylast, _Newvec + _Whereoff + 1, _Al);

  00104	83 c6 0c	 add	 esi, 12			; 0000000cH
$LN58@Emplace_re:

; 913  :         }
; 914  : 
; 915  :         _Guard._New_begin = nullptr;

  00107	56		 push	 esi
  00108	51		 push	 ecx
  00109	50		 push	 eax
  0010a	e8 00 00 00 00	 call	 ??$_Copy_memmove@PAU__MAKEGEMITEM@CUltimateWeapon@@PAU12@@std@@YAPAU__MAKEGEMITEM@CUltimateWeapon@@PAU12@00@Z ; std::_Copy_memmove<CUltimateWeapon::__MAKEGEMITEM *,CUltimateWeapon::__MAKEGEMITEM *>

; 2069 :         if (_Myfirst) { // destroy and deallocate old array

  0010f	8b 33		 mov	 esi, DWORD PTR [ebx]

; 913  :         }
; 914  : 
; 915  :         _Guard._New_begin = nullptr;

  00111	83 c4 0c	 add	 esp, 12			; 0000000cH

; 2069 :         if (_Myfirst) { // destroy and deallocate old array

  00114	85 f6		 test	 esi, esi
  00116	74 3f		 je	 SHORT $LN80@Emplace_re

; 2070 :             _STD _Destroy_range(_Myfirst, _Mylast, _Al);
; 2071 :             _ASAN_VECTOR_REMOVE;
; 2072 :             _Al.deallocate(_Myfirst, static_cast<size_type>(_Myend - _Myfirst));

  00118	8b 4b 08	 mov	 ecx, DWORD PTR [ebx+8]
  0011b	b8 ab aa aa 2a	 mov	 eax, 715827883		; 2aaaaaabH
  00120	2b ce		 sub	 ecx, esi
  00122	f7 e9		 imul	 ecx
  00124	d1 fa		 sar	 edx, 1
  00126	8b c2		 mov	 eax, edx
  00128	c1 e8 1f	 shr	 eax, 31			; 0000001fH
  0012b	03 c2		 add	 eax, edx
; File C:\Program Files\Microsoft Visual Studio\2022\Professional\VC\Tools\MSVC\14.44.35207\include\xmemory

; 985  :         _STD _Deallocate<_New_alignof<_Ty>>(_Ptr, sizeof(_Ty) * _Count);

  0012d	8d 0c 40	 lea	 ecx, DWORD PTR [eax+eax*2]
  00130	c1 e1 02	 shl	 ecx, 2

; 284  :         if (_Bytes >= _Big_allocation_threshold) {

  00133	81 f9 00 10 00
	00		 cmp	 ecx, 4096		; 00001000H
  00139	72 12		 jb	 SHORT $LN85@Emplace_re

; 205  :     const uintptr_t _Ptr_container   = _Ptr_user[-1];

  0013b	8b 56 fc	 mov	 edx, DWORD PTR [esi-4]
  0013e	83 c1 23	 add	 ecx, 35			; 00000023H

; 206  : 
; 207  :     // If the following asserts, it likely means that we are performing
; 208  :     // an aligned delete on memory coming from an unaligned allocation.
; 209  :     _STL_ASSERT(_Ptr_user[-2] == _Big_allocation_sentinel, "invalid argument");
; 210  : 
; 211  :     // Extra paranoia on aligned allocation/deallocation; ensure _Ptr_container is
; 212  :     // in range [_Min_back_shift, _Non_user_size]
; 213  : #ifdef _DEBUG
; 214  :     constexpr uintptr_t _Min_back_shift = 2 * sizeof(void*);
; 215  : #else // ^^^ defined(_DEBUG) / !defined(_DEBUG) vvv
; 216  :     constexpr uintptr_t _Min_back_shift = sizeof(void*);
; 217  : #endif // ^^^ !defined(_DEBUG) ^^^
; 218  :     const uintptr_t _Back_shift = reinterpret_cast<uintptr_t>(_Ptr) - _Ptr_container;

  00141	2b f2		 sub	 esi, edx

; 219  :     _STL_VERIFY(_Back_shift >= _Min_back_shift && _Back_shift <= _Non_user_size, "invalid argument");

  00143	8d 46 fc	 lea	 eax, DWORD PTR [esi-4]
  00146	83 f8 1f	 cmp	 eax, 31			; 0000001fH
  00149	77 2f		 ja	 SHORT $LN84@Emplace_re

; 220  :     _Ptr = reinterpret_cast<void*>(_Ptr_container);

  0014b	8b f2		 mov	 esi, edx
$LN85@Emplace_re:

; 289  :         ::operator delete(_Ptr, _Bytes);

  0014d	51		 push	 ecx
  0014e	56		 push	 esi
  0014f	e8 00 00 00 00	 call	 ??3@YAXPAXI@Z		; operator delete
  00154	83 c4 08	 add	 esp, 8
$LN80@Emplace_re:
; File C:\Program Files\Microsoft Visual Studio\2022\Professional\VC\Tools\MSVC\14.44.35207\include\vector

; 2076 :         _Mylast  = _Newvec + _Newsize;

  00157	8b 45 f4	 mov	 eax, DWORD PTR __Oldsize$1$[ebp]
  0015a	40		 inc	 eax
  0015b	89 3b		 mov	 DWORD PTR [ebx], edi

; 916  :         _Change_array(_Newvec, _Newsize, _Newcapacity);
; 917  :         return _Newvec + _Whereoff;

  0015d	5e		 pop	 esi

; 2076 :         _Mylast  = _Newvec + _Newsize;

  0015e	8d 0c 40	 lea	 ecx, DWORD PTR [eax+eax*2]

; 916  :         _Change_array(_Newvec, _Newsize, _Newcapacity);
; 917  :         return _Newvec + _Whereoff;

  00161	8b 45 f8	 mov	 eax, DWORD PTR tv650[ebp]

; 2076 :         _Mylast  = _Newvec + _Newsize;

  00164	8d 0c 8f	 lea	 ecx, DWORD PTR [edi+ecx*4]
  00167	89 4b 04	 mov	 DWORD PTR [ebx+4], ecx

; 2077 :         _Myend   = _Newvec + _Newcapacity;

  0016a	8b 4d fc	 mov	 ecx, DWORD PTR tv652[ebp]
  0016d	03 cf		 add	 ecx, edi

; 918  :     }

  0016f	5f		 pop	 edi

; 2077 :         _Myend   = _Newvec + _Newcapacity;

  00170	89 4b 08	 mov	 DWORD PTR [ebx+8], ecx

; 918  :     }

  00173	5b		 pop	 ebx
  00174	8b e5		 mov	 esp, ebp
  00176	5d		 pop	 ebp
  00177	c2 08 00	 ret	 8
$LN84@Emplace_re:
; File C:\Program Files\Microsoft Visual Studio\2022\Professional\VC\Tools\MSVC\14.44.35207\include\xmemory

; 219  :     _STL_VERIFY(_Back_shift >= _Min_back_shift && _Back_shift <= _Non_user_size, "invalid argument");

  0017a	6a 00		 push	 0
  0017c	6a 00		 push	 0
  0017e	6a 00		 push	 0
  00180	6a 00		 push	 0
  00182	6a 00		 push	 0
  00184	e8 00 00 00 00	 call	 __invoke_watson
$LN119@Emplace_re:
; File C:\Program Files\Microsoft Visual Studio\2022\Professional\VC\Tools\MSVC\14.44.35207\include\vector

; 888  :             _Xlength();

  00189	e8 00 00 00 00	 call	 ?_Xlength@?$vector@U__MAKEGEMITEM@CUltimateWeapon@@V?$allocator@U__MAKEGEMITEM@CUltimateWeapon@@@std@@@std@@CAXXZ ; std::vector<CUltimateWeapon::__MAKEGEMITEM,std::allocator<CUltimateWeapon::__MAKEGEMITEM> >::_Xlength
$LN120@Emplace_re:
; File C:\Program Files\Microsoft Visual Studio\2022\Professional\VC\Tools\MSVC\14.44.35207\include\xmemory

; 118  :             _Throw_bad_array_new_length(); // multiply overflow

  0018e	e8 00 00 00 00	 call	 ?_Throw_bad_array_new_length@std@@YAXXZ ; std::_Throw_bad_array_new_length
$LN116@Emplace_re:
  00193	cc		 int	 3
??$_Emplace_reallocate@ABU__MAKEGEMITEM@CUltimateWeapon@@@?$vector@U__MAKEGEMITEM@CUltimateWeapon@@V?$allocator@U__MAKEGEMITEM@CUltimateWeapon@@@std@@@std@@AAEPAU__MAKEGEMITEM@CUltimateWeapon@@QAU23@ABU23@@Z ENDP ; std::vector<CUltimateWeapon::__MAKEGEMITEM,std::allocator<CUltimateWeapon::__MAKEGEMITEM> >::_Emplace_reallocate<CUltimateWeapon::__MAKEGEMITEM const &>
_TEXT	ENDS
; Function compile flags: /Ogtp
; File C:\Program Files\Microsoft Visual Studio\2022\Professional\VC\Tools\MSVC\14.44.35207\include\vector
; File C:\Program Files\Microsoft Visual Studio\2022\Professional\VC\Tools\MSVC\14.44.35207\include\xmemory
; File C:\Program Files\Microsoft Visual Studio\2022\Professional\VC\Tools\MSVC\14.44.35207\include\vector
; File C:\Program Files\Microsoft Visual Studio\2022\Professional\VC\Tools\MSVC\14.44.35207\include\xmemory
; File C:\Program Files\Microsoft Visual Studio\2022\Professional\VC\Tools\MSVC\14.44.35207\include\vector
; File C:\Program Files\Microsoft Visual Studio\2022\Professional\VC\Tools\MSVC\14.44.35207\include\xmemory
; File C:\Program Files\Microsoft Visual Studio\2022\Professional\VC\Tools\MSVC\14.44.35207\include\vector
; File C:\Program Files\Microsoft Visual Studio\2022\Professional\VC\Tools\MSVC\14.44.35207\include\xmemory
; File C:\Program Files\Microsoft Visual Studio\2022\Professional\VC\Tools\MSVC\14.44.35207\include\vector
; File C:\Program Files\Microsoft Visual Studio\2022\Professional\VC\Tools\MSVC\14.44.35207\include\xmemory
; File C:\Program Files\Microsoft Visual Studio\2022\Professional\VC\Tools\MSVC\14.44.35207\include\vector
; File C:\Program Files\Microsoft Visual Studio\2022\Professional\VC\Tools\MSVC\14.44.35207\include\xmemory
; File C:\Program Files\Microsoft Visual Studio\2022\Professional\VC\Tools\MSVC\14.44.35207\include\vector
; File C:\Program Files\Microsoft Visual Studio\2022\Professional\VC\Tools\MSVC\14.44.35207\include\xmemory
; File C:\Program Files\Microsoft Visual Studio\2022\Professional\VC\Tools\MSVC\14.44.35207\include\vector
; File C:\Program Files\Microsoft Visual Studio\2022\Professional\VC\Tools\MSVC\14.44.35207\include\xmemory
; File C:\Program Files\Microsoft Visual Studio\2022\Professional\VC\Tools\MSVC\14.44.35207\include\vector
;	COMDAT ??$_Emplace_reallocate@ABU__GEMABILITYKIND@CUltimateWeapon@@@?$vector@U__GEMABILITYKIND@CUltimateWeapon@@V?$allocator@U__GEMABILITYKIND@CUltimateWeapon@@@std@@@std@@AAEPAU__GEMABILITYKIND@CUltimateWeapon@@QAU23@ABU23@@Z
_TEXT	SEGMENT
__Guard$ = -52						; size = 20
tv635 = -32						; size = 4
__Newsize$1$ = -28					; size = 4
_this$1$ = -24						; size = 4
tv636 = -20						; size = 4
__Whereoff$1$ = -16					; size = 4
$T2 = -16						; size = 4
__$EHRec$ = -12						; size = 12
__Whereptr$ = 8						; size = 4
_<_Val_0>$ = 12						; size = 4
??$_Emplace_reallocate@ABU__GEMABILITYKIND@CUltimateWeapon@@@?$vector@U__GEMABILITYKIND@CUltimateWeapon@@V?$allocator@U__GEMABILITYKIND@CUltimateWeapon@@@std@@@std@@AAEPAU__GEMABILITYKIND@CUltimateWeapon@@QAU23@ABU23@@Z PROC ; std::vector<CUltimateWeapon::__GEMABILITYKIND,std::allocator<CUltimateWeapon::__GEMABILITYKIND> >::_Emplace_reallocate<CUltimateWeapon::__GEMABILITYKIND const &>, COMDAT
; _this$ = ecx

; 875  :     _CONSTEXPR20 pointer _Emplace_reallocate(const pointer _Whereptr, _Valty&&... _Val) {

  00000	55		 push	 ebp
  00001	8b ec		 mov	 ebp, esp
  00003	6a ff		 push	 -1
  00005	68 00 00 00 00	 push	 __ehhandler$??$_Emplace_reallocate@ABU__GEMABILITYKIND@CUltimateWeapon@@@?$vector@U__GEMABILITYKIND@CUltimateWeapon@@V?$allocator@U__GEMABILITYKIND@CUltimateWeapon@@@std@@@std@@AAEPAU__GEMABILITYKIND@CUltimateWeapon@@QAU23@ABU23@@Z
  0000a	64 a1 00 00 00
	00		 mov	 eax, DWORD PTR fs:0
  00010	50		 push	 eax
  00011	83 ec 28	 sub	 esp, 40			; 00000028H
  00014	53		 push	 ebx
  00015	56		 push	 esi
  00016	57		 push	 edi
  00017	a1 00 00 00 00	 mov	 eax, DWORD PTR ___security_cookie
  0001c	33 c5		 xor	 eax, ebp
  0001e	50		 push	 eax
  0001f	8d 45 f4	 lea	 eax, DWORD PTR __$EHRec$[ebp]
  00022	64 a3 00 00 00
	00		 mov	 DWORD PTR fs:0, eax
  00028	8b f9		 mov	 edi, ecx
  0002a	89 7d e8	 mov	 DWORD PTR _this$1$[ebp], edi

; 876  :         // reallocate and insert by perfectly forwarding _Val at _Whereptr
; 877  :         _Alty& _Al        = _Getal();
; 878  :         auto& _My_data    = _Mypair._Myval2;
; 879  :         pointer& _Myfirst = _My_data._Myfirst;
; 880  :         pointer& _Mylast  = _My_data._Mylast;
; 881  : 
; 882  :         _STL_INTERNAL_CHECK(_Mylast == _My_data._Myend); // check that we have no unused capacity
; 883  : 
; 884  :         const auto _Whereoff = static_cast<size_type>(_Whereptr - _Myfirst);

  0002d	8b 37		 mov	 esi, DWORD PTR [edi]

; 885  :         const auto _Oldsize  = static_cast<size_type>(_Mylast - _Myfirst);

  0002f	8b 47 04	 mov	 eax, DWORD PTR [edi+4]
  00032	8b 4d 08	 mov	 ecx, DWORD PTR __Whereptr$[ebp]
  00035	2b c6		 sub	 eax, esi
  00037	2b ce		 sub	 ecx, esi
  00039	c1 f8 04	 sar	 eax, 4
  0003c	c1 f9 04	 sar	 ecx, 4
  0003f	89 4d f0	 mov	 DWORD PTR __Whereoff$1$[ebp], ecx

; 886  : 
; 887  :         if (_Oldsize == max_size()) {

  00042	3d ff ff ff 0f	 cmp	 eax, 268435455		; 0fffffffH
  00047	0f 84 64 01 00
	00		 je	 $LN119@Emplace_re

; 1924 :         return static_cast<size_type>(_My_data._Myend - _My_data._Myfirst);

  0004d	8b 5f 08	 mov	 ebx, DWORD PTR [edi+8]

; 889  :         }
; 890  : 
; 891  :         const size_type _Newsize = _Oldsize + 1;

  00050	8d 50 01	 lea	 edx, DWORD PTR [eax+1]

; 1924 :         return static_cast<size_type>(_My_data._Myend - _My_data._Myfirst);

  00053	2b de		 sub	 ebx, esi

; 889  :         }
; 890  : 
; 891  :         const size_type _Newsize = _Oldsize + 1;

  00055	89 55 e4	 mov	 DWORD PTR __Newsize$1$[ebp], edx

; 1924 :         return static_cast<size_type>(_My_data._Myend - _My_data._Myfirst);

  00058	c1 fb 04	 sar	 ebx, 4

; 2011 :         if (_Oldcapacity > _Max - _Oldcapacity / 2) {

  0005b	b8 ff ff ff 0f	 mov	 eax, 268435455		; 0fffffffH
  00060	8b f3		 mov	 esi, ebx
  00062	d1 ee		 shr	 esi, 1
  00064	2b c6		 sub	 eax, esi
  00066	3b d8		 cmp	 ebx, eax
  00068	76 19		 jbe	 SHORT $LN8@Emplace_re

; 2012 :             return _Max; // geometric growth would overflow

  0006a	b8 f0 ff ff ff	 mov	 eax, -16		; fffffff0H
  0006f	c7 45 ec f0 ff
	ff ff		 mov	 DWORD PTR tv636[ebp], -16 ; fffffff0H
; File C:\Program Files\Microsoft Visual Studio\2022\Professional\VC\Tools\MSVC\14.44.35207\include\xmemory

; 253  :             return _Allocate_manually_vector_aligned<_Traits>(_Bytes);

  00076	50		 push	 eax
; File C:\Program Files\Microsoft Visual Studio\2022\Professional\VC\Tools\MSVC\14.44.35207\include\vector

; 2012 :             return _Max; // geometric growth would overflow

  00077	be ff ff ff 0f	 mov	 esi, 268435455		; 0fffffffH
; File C:\Program Files\Microsoft Visual Studio\2022\Professional\VC\Tools\MSVC\14.44.35207\include\xmemory

; 253  :             return _Allocate_manually_vector_aligned<_Traits>(_Bytes);

  0007c	e8 00 00 00 00	 call	 ??$_Allocate_manually_vector_aligned@U_Default_allocate_traits@std@@@std@@YAPAXI@Z ; std::_Allocate_manually_vector_aligned<std::_Default_allocate_traits>
  00081	eb 3b		 jmp	 SHORT $LN117@Emplace_re
$LN8@Emplace_re:
; File C:\Program Files\Microsoft Visual Studio\2022\Professional\VC\Tools\MSVC\14.44.35207\include\vector

; 2015 :         const size_type _Geometric = _Oldcapacity + _Oldcapacity / 2;

  00083	8d 04 1e	 lea	 eax, DWORD PTR [esi+ebx]
; File C:\Program Files\Microsoft Visual Studio\2022\Professional\VC\Tools\MSVC\14.44.35207\include\xmemory

; 117  :         if (_Count > _Max_possible) {

  00086	8b f2		 mov	 esi, edx
  00088	3b c2		 cmp	 eax, edx
  0008a	0f 43 f0	 cmovae	 esi, eax
  0008d	81 fe ff ff ff
	0f		 cmp	 esi, 268435455		; 0fffffffH
  00093	0f 87 1d 01 00
	00		 ja	 $LN120@Emplace_re

; 119  :         }
; 120  :     }
; 121  : 
; 122  :     return _Count * _Ty_size;

  00099	8b c6		 mov	 eax, esi
  0009b	c1 e0 04	 shl	 eax, 4
  0009e	89 45 ec	 mov	 DWORD PTR tv636[ebp], eax

; 227  :     if (_Bytes == 0) {

  000a1	85 c0		 test	 eax, eax
  000a3	75 04		 jne	 SHORT $LN23@Emplace_re

; 228  :         return nullptr;

  000a5	33 db		 xor	 ebx, ebx
  000a7	eb 1d		 jmp	 SHORT $LN22@Emplace_re
$LN23@Emplace_re:

; 229  :     }
; 230  : 
; 231  : #if _HAS_CXX20 // TRANSITION, GH-1532
; 232  :     if (_STD is_constant_evaluated()) {
; 233  :         return _Traits::_Allocate(_Bytes);
; 234  :     }
; 235  : #endif // _HAS_CXX20
; 236  : 
; 237  : #ifdef __cpp_aligned_new
; 238  :     if constexpr (_Align > __STDCPP_DEFAULT_NEW_ALIGNMENT__) {
; 239  :         size_t _Passed_align = _Align;
; 240  : #if defined(_M_IX86) || defined(_M_X64)
; 241  :         if (_Bytes >= _Big_allocation_threshold) {
; 242  :             // boost the alignment of big allocations to help autovectorization
; 243  :             _Passed_align = (_STD max)(_Align, _Big_allocation_alignment);
; 244  :         }
; 245  : #endif // defined(_M_IX86) || defined(_M_X64)
; 246  :         return _Traits::_Allocate_aligned(_Bytes, _Passed_align);
; 247  :     } else
; 248  : #endif // defined(__cpp_aligned_new)
; 249  :     {
; 250  : #if defined(_M_IX86) || defined(_M_X64)
; 251  :         if (_Bytes >= _Big_allocation_threshold) {

  000a9	3d 00 10 00 00	 cmp	 eax, 4096		; 00001000H
  000ae	72 08		 jb	 SHORT $LN24@Emplace_re

; 253  :             return _Allocate_manually_vector_aligned<_Traits>(_Bytes);

  000b0	50		 push	 eax
  000b1	e8 00 00 00 00	 call	 ??$_Allocate_manually_vector_aligned@U_Default_allocate_traits@std@@@std@@YAPAXI@Z ; std::_Allocate_manually_vector_aligned<std::_Default_allocate_traits>
  000b6	eb 06		 jmp	 SHORT $LN117@Emplace_re
$LN24@Emplace_re:

; 136  :         return ::operator new(_Bytes);

  000b8	50		 push	 eax
  000b9	e8 00 00 00 00	 call	 ??2@YAPAXI@Z		; operator new
$LN117@Emplace_re:
; File C:\Program Files\Microsoft Visual Studio\2022\Professional\VC\Tools\MSVC\14.44.35207\include\vector

; 895  :         const pointer _Constructed_last = _Newvec + _Whereoff + 1;

  000be	8b 4d f0	 mov	 ecx, DWORD PTR __Whereoff$1$[ebp]
  000c1	8b d8		 mov	 ebx, eax
  000c3	83 c4 04	 add	 esp, 4
$LN22@Emplace_re:
  000c6	c1 e1 04	 shl	 ecx, 4
  000c9	03 cb		 add	 ecx, ebx

; 896  : 
; 897  :         _Reallocation_guard _Guard{_Al, _Newvec, _Newcapacity, _Constructed_last, _Constructed_last};

  000cb	89 7d cc	 mov	 DWORD PTR __Guard$[ebp], edi
  000ce	89 4d e0	 mov	 DWORD PTR tv635[ebp], ecx
  000d1	89 5d d0	 mov	 DWORD PTR __Guard$[ebp+4], ebx
  000d4	89 75 d4	 mov	 DWORD PTR __Guard$[ebp+8], esi
  000d7	8d 41 10	 lea	 eax, DWORD PTR [ecx+16]
  000da	89 45 f0	 mov	 DWORD PTR $T2[ebp], eax
  000dd	89 45 d8	 mov	 DWORD PTR __Guard$[ebp+12], eax
  000e0	89 45 dc	 mov	 DWORD PTR __Guard$[ebp+16], eax

; 898  :         auto& _Constructed_first = _Guard._Constructed_first;
; 899  : 
; 900  :         _Alty_traits::construct(_Al, _STD _Unfancy(_Newvec + _Whereoff), _STD forward<_Valty>(_Val)...);

  000e3	ff 75 0c	 push	 DWORD PTR _<_Val_0>$[ebp]
  000e6	c7 45 fc 00 00
	00 00		 mov	 DWORD PTR __$EHRec$[ebp+8], 0
  000ed	51		 push	 ecx
  000ee	57		 push	 edi
  000ef	e8 00 00 00 00	 call	 ??$construct@U__GEMABILITYKIND@CUltimateWeapon@@ABU12@@?$_Default_allocator_traits@V?$allocator@U__GEMABILITYKIND@CUltimateWeapon@@@std@@@std@@SAXAAV?$allocator@U__GEMABILITYKIND@CUltimateWeapon@@@1@QAU__GEMABILITYKIND@CUltimateWeapon@@ABU34@@Z ; std::_Default_allocator_traits<std::allocator<CUltimateWeapon::__GEMABILITYKIND> >::construct<CUltimateWeapon::__GEMABILITYKIND,CUltimateWeapon::__GEMABILITYKIND const &>

; 901  :         _Constructed_first = _Newvec + _Whereoff;
; 902  : 
; 903  :         if (_Whereptr == _Mylast) { // at back, provide strong guarantee

  000f4	8b 57 04	 mov	 edx, DWORD PTR [edi+4]
  000f7	83 c4 0c	 add	 esp, 12			; 0000000cH
  000fa	8b 75 08	 mov	 esi, DWORD PTR __Whereptr$[ebp]
  000fd	8b 0f		 mov	 ecx, DWORD PTR [edi]
  000ff	3b f2		 cmp	 esi, edx
  00101	75 04		 jne	 SHORT $LN3@Emplace_re

; 904  :             if constexpr (is_nothrow_move_constructible_v<_Ty> || !is_copy_constructible_v<_Ty>) {
; 905  :                 _STD _Uninitialized_move(_Myfirst, _Mylast, _Newvec, _Al);

  00103	8b c3		 mov	 eax, ebx

; 906  :             } else {
; 907  :                 _STD _Uninitialized_copy(_Myfirst, _Mylast, _Newvec, _Al);
; 908  :             }
; 909  :         } else { // provide basic guarantee

  00105	eb 14		 jmp	 SHORT $LN4@Emplace_re
$LN3@Emplace_re:

; 910  :             _STD _Uninitialized_move(_Myfirst, _Whereptr, _Newvec, _Al);

  00107	57		 push	 edi
  00108	53		 push	 ebx
  00109	56		 push	 esi
  0010a	51		 push	 ecx
  0010b	e8 00 00 00 00	 call	 ??$_Uninitialized_move@PAU__GEMABILITYKIND@CUltimateWeapon@@V?$allocator@U__GEMABILITYKIND@CUltimateWeapon@@@std@@@std@@YAPAU__GEMABILITYKIND@CUltimateWeapon@@QAU12@0PAU12@AAV?$allocator@U__GEMABILITYKIND@CUltimateWeapon@@@0@@Z ; std::_Uninitialized_move<CUltimateWeapon::__GEMABILITYKIND *,std::allocator<CUltimateWeapon::__GEMABILITYKIND> >

; 911  :             _Constructed_first = _Newvec;
; 912  :             _STD _Uninitialized_move(_Whereptr, _Mylast, _Newvec + _Whereoff + 1, _Al);

  00110	8b 57 04	 mov	 edx, DWORD PTR [edi+4]
  00113	83 c4 10	 add	 esp, 16			; 00000010H
  00116	8b 45 f0	 mov	 eax, DWORD PTR $T2[ebp]
  00119	8b ce		 mov	 ecx, esi
$LN4@Emplace_re:

; 913  :         }
; 914  : 
; 915  :         _Guard._New_begin = nullptr;

  0011b	57		 push	 edi
  0011c	50		 push	 eax
  0011d	52		 push	 edx
  0011e	51		 push	 ecx
  0011f	e8 00 00 00 00	 call	 ??$_Uninitialized_move@PAU__GEMABILITYKIND@CUltimateWeapon@@V?$allocator@U__GEMABILITYKIND@CUltimateWeapon@@@std@@@std@@YAPAU__GEMABILITYKIND@CUltimateWeapon@@QAU12@0PAU12@AAV?$allocator@U__GEMABILITYKIND@CUltimateWeapon@@@0@@Z ; std::_Uninitialized_move<CUltimateWeapon::__GEMABILITYKIND *,std::allocator<CUltimateWeapon::__GEMABILITYKIND> >

; 2069 :         if (_Myfirst) { // destroy and deallocate old array

  00124	8b 37		 mov	 esi, DWORD PTR [edi]

; 913  :         }
; 914  : 
; 915  :         _Guard._New_begin = nullptr;

  00126	83 c4 10	 add	 esp, 16			; 00000010H

; 2069 :         if (_Myfirst) { // destroy and deallocate old array

  00129	85 f6		 test	 esi, esi
  0012b	74 49		 je	 SHORT $LN59@Emplace_re

; 2070 :             _STD _Destroy_range(_Myfirst, _Mylast, _Al);

  0012d	8b 47 04	 mov	 eax, DWORD PTR [edi+4]
; File C:\Program Files\Microsoft Visual Studio\2022\Professional\VC\Tools\MSVC\14.44.35207\include\xmemory

; 1102 :         for (; _First != _Last; ++_First) {

  00130	3b f0		 cmp	 esi, eax
  00132	74 14		 je	 SHORT $LN36@Emplace_re
  00134	8b f8		 mov	 edi, eax
$LL37@Emplace_re:
; File C:\Program Files\Microsoft Visual Studio\2022\Professional\VC\Tools\MSVC\14.44.35207\include\vector

; 830  :         _Tidy();

  00136	8d 4e 04	 lea	 ecx, DWORD PTR [esi+4]
  00139	e8 00 00 00 00	 call	 ?_Tidy@?$vector@U__GEMABILITY@CUltimateWeapon@@V?$allocator@U__GEMABILITY@CUltimateWeapon@@@std@@@std@@AAEXXZ ; std::vector<CUltimateWeapon::__GEMABILITY,std::allocator<CUltimateWeapon::__GEMABILITY> >::_Tidy
; File C:\Program Files\Microsoft Visual Studio\2022\Professional\VC\Tools\MSVC\14.44.35207\include\xmemory

; 1102 :         for (; _First != _Last; ++_First) {

  0013e	83 c6 10	 add	 esi, 16			; 00000010H
  00141	3b f7		 cmp	 esi, edi
  00143	75 f1		 jne	 SHORT $LL37@Emplace_re
  00145	8b 7d e8	 mov	 edi, DWORD PTR _this$1$[ebp]
$LN36@Emplace_re:
; File C:\Program Files\Microsoft Visual Studio\2022\Professional\VC\Tools\MSVC\14.44.35207\include\vector

; 2072 :             _Al.deallocate(_Myfirst, static_cast<size_type>(_Myend - _Myfirst));

  00148	8b 4f 08	 mov	 ecx, DWORD PTR [edi+8]
  0014b	8b 07		 mov	 eax, DWORD PTR [edi]
  0014d	2b c8		 sub	 ecx, eax
; File C:\Program Files\Microsoft Visual Studio\2022\Professional\VC\Tools\MSVC\14.44.35207\include\xmemory

; 985  :         _STD _Deallocate<_New_alignof<_Ty>>(_Ptr, sizeof(_Ty) * _Count);

  0014f	83 e1 f0	 and	 ecx, -16		; fffffff0H

; 284  :         if (_Bytes >= _Big_allocation_threshold) {

  00152	81 f9 00 10 00
	00		 cmp	 ecx, 4096		; 00001000H
  00158	72 12		 jb	 SHORT $LN64@Emplace_re

; 205  :     const uintptr_t _Ptr_container   = _Ptr_user[-1];

  0015a	8b 50 fc	 mov	 edx, DWORD PTR [eax-4]
  0015d	83 c1 23	 add	 ecx, 35			; 00000023H

; 206  : 
; 207  :     // If the following asserts, it likely means that we are performing
; 208  :     // an aligned delete on memory coming from an unaligned allocation.
; 209  :     _STL_ASSERT(_Ptr_user[-2] == _Big_allocation_sentinel, "invalid argument");
; 210  : 
; 211  :     // Extra paranoia on aligned allocation/deallocation; ensure _Ptr_container is
; 212  :     // in range [_Min_back_shift, _Non_user_size]
; 213  : #ifdef _DEBUG
; 214  :     constexpr uintptr_t _Min_back_shift = 2 * sizeof(void*);
; 215  : #else // ^^^ defined(_DEBUG) / !defined(_DEBUG) vvv
; 216  :     constexpr uintptr_t _Min_back_shift = sizeof(void*);
; 217  : #endif // ^^^ !defined(_DEBUG) ^^^
; 218  :     const uintptr_t _Back_shift = reinterpret_cast<uintptr_t>(_Ptr) - _Ptr_container;

  00160	2b c2		 sub	 eax, edx

; 219  :     _STL_VERIFY(_Back_shift >= _Min_back_shift && _Back_shift <= _Non_user_size, "invalid argument");

  00162	83 c0 fc	 add	 eax, -4			; fffffffcH
  00165	83 f8 1f	 cmp	 eax, 31			; 0000001fH
  00168	77 38		 ja	 SHORT $LN63@Emplace_re

; 220  :     _Ptr = reinterpret_cast<void*>(_Ptr_container);

  0016a	8b c2		 mov	 eax, edx
$LN64@Emplace_re:

; 289  :         ::operator delete(_Ptr, _Bytes);

  0016c	51		 push	 ecx
  0016d	50		 push	 eax
  0016e	e8 00 00 00 00	 call	 ??3@YAXPAXI@Z		; operator delete
  00173	83 c4 08	 add	 esp, 8
$LN59@Emplace_re:
; File C:\Program Files\Microsoft Visual Studio\2022\Professional\VC\Tools\MSVC\14.44.35207\include\vector

; 2076 :         _Mylast  = _Newvec + _Newsize;

  00176	8b 45 e4	 mov	 eax, DWORD PTR __Newsize$1$[ebp]

; 2077 :         _Myend   = _Newvec + _Newcapacity;

  00179	8b 4d ec	 mov	 ecx, DWORD PTR tv636[ebp]
  0017c	c1 e0 04	 shl	 eax, 4
  0017f	03 c3		 add	 eax, ebx
  00181	89 1f		 mov	 DWORD PTR [edi], ebx
  00183	89 47 04	 mov	 DWORD PTR [edi+4], eax
  00186	03 cb		 add	 ecx, ebx

; 916  :         _Change_array(_Newvec, _Newsize, _Newcapacity);
; 917  :         return _Newvec + _Whereoff;

  00188	8b 45 e0	 mov	 eax, DWORD PTR tv635[ebp]

; 2077 :         _Myend   = _Newvec + _Newcapacity;

  0018b	89 4f 08	 mov	 DWORD PTR [edi+8], ecx

; 918  :     }

  0018e	8b 4d f4	 mov	 ecx, DWORD PTR __$EHRec$[ebp]
  00191	64 89 0d 00 00
	00 00		 mov	 DWORD PTR fs:0, ecx
  00198	59		 pop	 ecx
  00199	5f		 pop	 edi
  0019a	5e		 pop	 esi
  0019b	5b		 pop	 ebx
  0019c	8b e5		 mov	 esp, ebp
  0019e	5d		 pop	 ebp
  0019f	c2 08 00	 ret	 8
$LN63@Emplace_re:
; File C:\Program Files\Microsoft Visual Studio\2022\Professional\VC\Tools\MSVC\14.44.35207\include\xmemory

; 219  :     _STL_VERIFY(_Back_shift >= _Min_back_shift && _Back_shift <= _Non_user_size, "invalid argument");

  001a2	6a 00		 push	 0
  001a4	6a 00		 push	 0
  001a6	6a 00		 push	 0
  001a8	6a 00		 push	 0
  001aa	6a 00		 push	 0
  001ac	e8 00 00 00 00	 call	 __invoke_watson
$LN119@Emplace_re:
; File C:\Program Files\Microsoft Visual Studio\2022\Professional\VC\Tools\MSVC\14.44.35207\include\vector

; 888  :             _Xlength();

  001b1	e8 00 00 00 00	 call	 ?_Xlength@?$vector@U__GEMABILITYKIND@CUltimateWeapon@@V?$allocator@U__GEMABILITYKIND@CUltimateWeapon@@@std@@@std@@CAXXZ ; std::vector<CUltimateWeapon::__GEMABILITYKIND,std::allocator<CUltimateWeapon::__GEMABILITYKIND> >::_Xlength
$LN120@Emplace_re:
; File C:\Program Files\Microsoft Visual Studio\2022\Professional\VC\Tools\MSVC\14.44.35207\include\xmemory

; 118  :             _Throw_bad_array_new_length(); // multiply overflow

  001b6	e8 00 00 00 00	 call	 ?_Throw_bad_array_new_length@std@@YAXXZ ; std::_Throw_bad_array_new_length
$LN116@Emplace_re:
  001bb	cc		 int	 3
_TEXT	ENDS
;	COMDAT text$x
text$x	SEGMENT
__unwindfunclet$??$_Emplace_reallocate@ABU__GEMABILITYKIND@CUltimateWeapon@@@?$vector@U__GEMABILITYKIND@CUltimateWeapon@@V?$allocator@U__GEMABILITYKIND@CUltimateWeapon@@@std@@@std@@AAEPAU__GEMABILITYKIND@CUltimateWeapon@@QAU23@ABU23@@Z$0:
  00000	8d 4d cc	 lea	 ecx, DWORD PTR __Guard$[ebp]
  00003	e9 00 00 00 00	 jmp	 ??1_Reallocation_guard@?$vector@U__GEMABILITYKIND@CUltimateWeapon@@V?$allocator@U__GEMABILITYKIND@CUltimateWeapon@@@std@@@std@@QAE@XZ ; std::vector<CUltimateWeapon::__GEMABILITYKIND,std::allocator<CUltimateWeapon::__GEMABILITYKIND> >::_Reallocation_guard::~_Reallocation_guard
  00008	cc		 int	 3
  00009	cc		 int	 3
  0000a	cc		 int	 3
  0000b	cc		 int	 3
  0000c	cc		 int	 3
__ehhandler$??$_Emplace_reallocate@ABU__GEMABILITYKIND@CUltimateWeapon@@@?$vector@U__GEMABILITYKIND@CUltimateWeapon@@V?$allocator@U__GEMABILITYKIND@CUltimateWeapon@@@std@@@std@@AAEPAU__GEMABILITYKIND@CUltimateWeapon@@QAU23@ABU23@@Z:
  0000d	90		 npad	 1
  0000e	90		 npad	 1
  0000f	8b 54 24 08	 mov	 edx, DWORD PTR [esp+8]
  00013	8d 42 0c	 lea	 eax, DWORD PTR [edx+12]
  00016	8b 4a c8	 mov	 ecx, DWORD PTR [edx-56]
  00019	33 c8		 xor	 ecx, eax
  0001b	e8 00 00 00 00	 call	 @__security_check_cookie@4
  00020	b8 00 00 00 00	 mov	 eax, OFFSET __ehfuncinfo$??$_Emplace_reallocate@ABU__GEMABILITYKIND@CUltimateWeapon@@@?$vector@U__GEMABILITYKIND@CUltimateWeapon@@V?$allocator@U__GEMABILITYKIND@CUltimateWeapon@@@std@@@std@@AAEPAU__GEMABILITYKIND@CUltimateWeapon@@QAU23@ABU23@@Z
  00025	e9 00 00 00 00	 jmp	 ___CxxFrameHandler3
text$x	ENDS
??$_Emplace_reallocate@ABU__GEMABILITYKIND@CUltimateWeapon@@@?$vector@U__GEMABILITYKIND@CUltimateWeapon@@V?$allocator@U__GEMABILITYKIND@CUltimateWeapon@@@std@@@std@@AAEPAU__GEMABILITYKIND@CUltimateWeapon@@QAU23@ABU23@@Z ENDP ; std::vector<CUltimateWeapon::__GEMABILITYKIND,std::allocator<CUltimateWeapon::__GEMABILITYKIND> >::_Emplace_reallocate<CUltimateWeapon::__GEMABILITYKIND const &>
; Function compile flags: /Ogtp
; File C:\Program Files\Microsoft Visual Studio\2022\Professional\VC\Tools\MSVC\14.44.35207\include\xtree
; File C:\Program Files\Microsoft Visual Studio\2022\Professional\VC\Tools\MSVC\14.44.35207\include\utility
; File C:\Program Files\Microsoft Visual Studio\2022\Professional\VC\Tools\MSVC\14.44.35207\include\xmemory
; File C:\Program Files\Microsoft Visual Studio\2022\Professional\VC\Tools\MSVC\14.44.35207\include\xtree
;	COMDAT ??$_Erase_tree@V?$allocator@U?$_Tree_node@U?$pair@$$CBHU__MAKEGEMPROB@CUltimateWeapon@@@std@@PAX@std@@@std@@@?$_Tree_val@U?$_Tree_simple_types@U?$pair@$$CBHU__MAKEGEMPROB@CUltimateWeapon@@@std@@@std@@@std@@QAEXAAV?$allocator@U?$_Tree_node@U?$pair@$$CBHU__MAKEGEMPROB@CUltimateWeapon@@@std@@PAX@std@@@1@PAU?$_Tree_node@U?$pair@$$CBHU__MAKEGEMPROB@CUltimateWeapon@@@std@@PAX@1@@Z
_TEXT	SEGMENT
__Al$ = 8						; size = 4
__Rootnode$ = 12					; size = 4
??$_Erase_tree@V?$allocator@U?$_Tree_node@U?$pair@$$CBHU__MAKEGEMPROB@CUltimateWeapon@@@std@@PAX@std@@@std@@@?$_Tree_val@U?$_Tree_simple_types@U?$pair@$$CBHU__MAKEGEMPROB@CUltimateWeapon@@@std@@@std@@@std@@QAEXAAV?$allocator@U?$_Tree_node@U?$pair@$$CBHU__MAKEGEMPROB@CUltimateWeapon@@@std@@PAX@std@@@1@PAU?$_Tree_node@U?$pair@$$CBHU__MAKEGEMPROB@CUltimateWeapon@@@std@@PAX@1@@Z PROC ; std::_Tree_val<std::_Tree_simple_types<std::pair<int const ,CUltimateWeapon::__MAKEGEMPROB> > >::_Erase_tree<std::allocator<std::_Tree_node<std::pair<int const ,CUltimateWeapon::__MAKEGEMPROB>,void *> > >, COMDAT
; _this$ = ecx

; 767  :     void _Erase_tree(_Alnode& _Al, _Nodeptr _Rootnode) noexcept {

  00000	55		 push	 ebp
  00001	8b ec		 mov	 ebp, esp
  00003	53		 push	 ebx
  00004	56		 push	 esi

; 768  :         while (!_Rootnode->_Isnil) { // free subtrees, then node

  00005	8b 75 0c	 mov	 esi, DWORD PTR __Rootnode$[ebp]
  00008	8b d9		 mov	 ebx, ecx
  0000a	80 7e 0d 00	 cmp	 BYTE PTR [esi+13], 0
  0000e	75 25		 jne	 SHORT $LN34@Erase_tree
  00010	57		 push	 edi
  00011	8b 7d 08	 mov	 edi, DWORD PTR __Al$[ebp]
$LL2@Erase_tree:

; 769  :             _Erase_tree(_Al, _Rootnode->_Right);

  00014	ff 76 08	 push	 DWORD PTR [esi+8]
  00017	8b cb		 mov	 ecx, ebx
  00019	57		 push	 edi
  0001a	e8 00 00 00 00	 call	 ??$_Erase_tree@V?$allocator@U?$_Tree_node@U?$pair@$$CBHU__MAKEGEMPROB@CUltimateWeapon@@@std@@PAX@std@@@std@@@?$_Tree_val@U?$_Tree_simple_types@U?$pair@$$CBHU__MAKEGEMPROB@CUltimateWeapon@@@std@@@std@@@std@@QAEXAAV?$allocator@U?$_Tree_node@U?$pair@$$CBHU__MAKEGEMPROB@CUltimateWeapon@@@std@@PAX@std@@@1@PAU?$_Tree_node@U?$pair@$$CBHU__MAKEGEMPROB@CUltimateWeapon@@@std@@PAX@1@@Z ; std::_Tree_val<std::_Tree_simple_types<std::pair<int const ,CUltimateWeapon::__MAKEGEMPROB> > >::_Erase_tree<std::allocator<std::_Tree_node<std::pair<int const ,CUltimateWeapon::__MAKEGEMPROB>,void *> > >
; File C:\Program Files\Microsoft Visual Studio\2022\Professional\VC\Tools\MSVC\14.44.35207\include\utility

; 773  :     _Ty _Old_val = static_cast<_Ty&&>(_Val);

  0001f	8b c6		 mov	 eax, esi

; 774  :     _Val         = static_cast<_Other&&>(_New_val);

  00021	8b 36		 mov	 esi, DWORD PTR [esi]
; File C:\Program Files\Microsoft Visual Studio\2022\Professional\VC\Tools\MSVC\14.44.35207\include\xmemory

; 289  :         ::operator delete(_Ptr, _Bytes);

  00023	6a 28		 push	 40			; 00000028H
  00025	50		 push	 eax
  00026	e8 00 00 00 00	 call	 ??3@YAXPAXI@Z		; operator delete
  0002b	83 c4 08	 add	 esp, 8
; File C:\Program Files\Microsoft Visual Studio\2022\Professional\VC\Tools\MSVC\14.44.35207\include\xtree

; 768  :         while (!_Rootnode->_Isnil) { // free subtrees, then node

  0002e	80 7e 0d 00	 cmp	 BYTE PTR [esi+13], 0
  00032	74 e0		 je	 SHORT $LL2@Erase_tree
  00034	5f		 pop	 edi
$LN34@Erase_tree:
  00035	5e		 pop	 esi

; 770  :             _Alnode::value_type::_Freenode(_Al, _STD exchange(_Rootnode, _Rootnode->_Left));
; 771  :         }
; 772  :     }

  00036	5b		 pop	 ebx
  00037	5d		 pop	 ebp
  00038	c2 08 00	 ret	 8
??$_Erase_tree@V?$allocator@U?$_Tree_node@U?$pair@$$CBHU__MAKEGEMPROB@CUltimateWeapon@@@std@@PAX@std@@@std@@@?$_Tree_val@U?$_Tree_simple_types@U?$pair@$$CBHU__MAKEGEMPROB@CUltimateWeapon@@@std@@@std@@@std@@QAEXAAV?$allocator@U?$_Tree_node@U?$pair@$$CBHU__MAKEGEMPROB@CUltimateWeapon@@@std@@PAX@std@@@1@PAU?$_Tree_node@U?$pair@$$CBHU__MAKEGEMPROB@CUltimateWeapon@@@std@@PAX@1@@Z ENDP ; std::_Tree_val<std::_Tree_simple_types<std::pair<int const ,CUltimateWeapon::__MAKEGEMPROB> > >::_Erase_tree<std::allocator<std::_Tree_node<std::pair<int const ,CUltimateWeapon::__MAKEGEMPROB>,void *> > >
_TEXT	ENDS
; Function compile flags: /Ogtp
; File C:\Program Files\Microsoft Visual Studio\2022\Professional\VC\Tools\MSVC\14.44.35207\include\xmemory
;	COMDAT ??1?$_Alloc_construct_ptr@V?$allocator@U?$_Tree_node@U?$pair@$$CBKH@std@@PAX@std@@@std@@@std@@QAE@XZ
_TEXT	SEGMENT
??1?$_Alloc_construct_ptr@V?$allocator@U?$_Tree_node@U?$pair@$$CBKH@std@@PAX@std@@@std@@@std@@QAE@XZ PROC ; std::_Alloc_construct_ptr<std::allocator<std::_Tree_node<std::pair<unsigned long const ,int>,void *> > >::~_Alloc_construct_ptr<std::allocator<std::_Tree_node<std::pair<unsigned long const ,int>,void *> > >, COMDAT
; _this$ = ecx

; 1172 :         if (_Ptr) {

  00000	8b 41 04	 mov	 eax, DWORD PTR [ecx+4]
  00003	85 c0		 test	 eax, eax
  00005	74 0b		 je	 SHORT $LN10@Alloc_cons

; 289  :         ::operator delete(_Ptr, _Bytes);

  00007	6a 18		 push	 24			; 00000018H
  00009	50		 push	 eax
  0000a	e8 00 00 00 00	 call	 ??3@YAXPAXI@Z		; operator delete
  0000f	83 c4 08	 add	 esp, 8
$LN10@Alloc_cons:

; 1173 :             _Al.deallocate(_Ptr, 1);
; 1174 :         }
; 1175 :     }

  00012	c3		 ret	 0
??1?$_Alloc_construct_ptr@V?$allocator@U?$_Tree_node@U?$pair@$$CBKH@std@@PAX@std@@@std@@@std@@QAE@XZ ENDP ; std::_Alloc_construct_ptr<std::allocator<std::_Tree_node<std::pair<unsigned long const ,int>,void *> > >::~_Alloc_construct_ptr<std::allocator<std::_Tree_node<std::pair<unsigned long const ,int>,void *> > >
_TEXT	ENDS
; Function compile flags: /Ogtp
; File C:\Program Files\Microsoft Visual Studio\2022\Professional\VC\Tools\MSVC\14.44.35207\include\xtree
; File C:\Program Files\Microsoft Visual Studio\2022\Professional\VC\Tools\MSVC\14.44.35207\include\type_traits
; File C:\Program Files\Microsoft Visual Studio\2022\Professional\VC\Tools\MSVC\14.44.35207\include\xtree
; File C:\Program Files\Microsoft Visual Studio\2022\Professional\VC\Tools\MSVC\14.44.35207\include\type_traits
; File C:\Program Files\Microsoft Visual Studio\2022\Professional\VC\Tools\MSVC\14.44.35207\include\xtree
;	COMDAT ??$_Find_lower_bound@K@?$_Tree@V?$_Tmap_traits@KHU?$less@K@std@@V?$allocator@U?$pair@$$CBKH@std@@@2@$0A@@std@@@std@@IBE?AU?$_Tree_find_result@PAU?$_Tree_node@U?$pair@$$CBKH@std@@PAX@std@@@1@ABK@Z
_TEXT	SEGMENT
___$ReturnUdt$ = 8					; size = 4
__Keyval$ = 12						; size = 4
??$_Find_lower_bound@K@?$_Tree@V?$_Tmap_traits@KHU?$less@K@std@@V?$allocator@U?$pair@$$CBKH@std@@@2@$0A@@std@@@std@@IBE?AU?$_Tree_find_result@PAU?$_Tree_node@U?$pair@$$CBKH@std@@PAX@std@@@1@ABK@Z PROC ; std::_Tree<std::_Tmap_traits<unsigned long,int,std::less<unsigned long>,std::allocator<std::pair<unsigned long const ,int> >,0> >::_Find_lower_bound<unsigned long>, COMDAT
; _this$ = ecx

; 1628 :     _Tree_find_result<_Nodeptr> _Find_lower_bound(const _Keyty& _Keyval) const {

  00000	55		 push	 ebp
  00001	8b ec		 mov	 ebp, esp

; 1629 :         const auto _Scary = _Get_scary();
; 1630 :         _Tree_find_result<_Nodeptr> _Result{{_Scary->_Myhead->_Parent, _Tree_child::_Right}, _Scary->_Myhead};

  00003	8b 09		 mov	 ecx, DWORD PTR [ecx]
  00005	8b 55 08	 mov	 edx, DWORD PTR ___$ReturnUdt$[ebp]
  00008	8b 41 04	 mov	 eax, DWORD PTR [ecx+4]
  0000b	89 02		 mov	 DWORD PTR [edx], eax
  0000d	c7 42 04 00 00
	00 00		 mov	 DWORD PTR [edx+4], 0
  00014	89 4a 08	 mov	 DWORD PTR [edx+8], ecx

; 1631 :         _Nodeptr _Trynode = _Result._Location._Parent;
; 1632 :         while (!_Trynode->_Isnil) {

  00017	80 78 0d 00	 cmp	 BYTE PTR [eax+13], 0
  0001b	75 28		 jne	 SHORT $LN13@Find_lower
; File C:\Program Files\Microsoft Visual Studio\2022\Professional\VC\Tools\MSVC\14.44.35207\include\type_traits

; 2380 :         return _Left < _Right;

  0001d	8b 4d 0c	 mov	 ecx, DWORD PTR __Keyval$[ebp]
  00020	56		 push	 esi
  00021	8b 31		 mov	 esi, DWORD PTR [ecx]
$LL2@Find_lower:
; File C:\Program Files\Microsoft Visual Studio\2022\Professional\VC\Tools\MSVC\14.44.35207\include\xtree

; 1633 :             _Result._Location._Parent = _Trynode;

  00023	89 02		 mov	 DWORD PTR [edx], eax
; File C:\Program Files\Microsoft Visual Studio\2022\Professional\VC\Tools\MSVC\14.44.35207\include\type_traits

; 2380 :         return _Left < _Right;

  00025	39 70 10	 cmp	 DWORD PTR [eax+16], esi
; File C:\Program Files\Microsoft Visual Studio\2022\Professional\VC\Tools\MSVC\14.44.35207\include\xtree

; 1634 :             if (_DEBUG_LT_PRED(_Getcomp(), _Traits::_Kfn(_Trynode->_Myval), _Keyval)) {

  00028	73 07		 jae	 SHORT $LN4@Find_lower

; 1635 :                 _Result._Location._Child = _Tree_child::_Right;
; 1636 :                 _Trynode                 = _Trynode->_Right;

  0002a	8b 40 08	 mov	 eax, DWORD PTR [eax+8]
  0002d	33 c9		 xor	 ecx, ecx

; 1637 :             } else {

  0002f	eb 0a		 jmp	 SHORT $LN5@Find_lower
$LN4@Find_lower:

; 1638 :                 _Result._Location._Child = _Tree_child::_Left;
; 1639 :                 _Result._Bound           = _Trynode;

  00031	89 42 08	 mov	 DWORD PTR [edx+8], eax

; 1640 :                 _Trynode                 = _Trynode->_Left;

  00034	b9 01 00 00 00	 mov	 ecx, 1
  00039	8b 00		 mov	 eax, DWORD PTR [eax]
$LN5@Find_lower:

; 1631 :         _Nodeptr _Trynode = _Result._Location._Parent;
; 1632 :         while (!_Trynode->_Isnil) {

  0003b	89 4a 04	 mov	 DWORD PTR [edx+4], ecx
  0003e	80 78 0d 00	 cmp	 BYTE PTR [eax+13], 0
  00042	74 df		 je	 SHORT $LL2@Find_lower
  00044	5e		 pop	 esi
$LN13@Find_lower:

; 1641 :             }
; 1642 :         }
; 1643 : 
; 1644 :         return _Result;
; 1645 :     }

  00045	8b c2		 mov	 eax, edx
  00047	5d		 pop	 ebp
  00048	c2 08 00	 ret	 8
??$_Find_lower_bound@K@?$_Tree@V?$_Tmap_traits@KHU?$less@K@std@@V?$allocator@U?$pair@$$CBKH@std@@@2@$0A@@std@@@std@@IBE?AU?$_Tree_find_result@PAU?$_Tree_node@U?$pair@$$CBKH@std@@PAX@std@@@1@ABK@Z ENDP ; std::_Tree<std::_Tmap_traits<unsigned long,int,std::less<unsigned long>,std::allocator<std::pair<unsigned long const ,int> >,0> >::_Find_lower_bound<unsigned long>
_TEXT	ENDS
; Function compile flags: /Ogtp
; File C:\Program Files\Microsoft Visual Studio\2022\Professional\VC\Tools\MSVC\14.44.35207\include\xmemory
;	COMDAT ??1?$_Alloc_construct_ptr@V?$allocator@U?$_Tree_node@U?$pair@$$CBHH@std@@PAX@std@@@std@@@std@@QAE@XZ
_TEXT	SEGMENT
??1?$_Alloc_construct_ptr@V?$allocator@U?$_Tree_node@U?$pair@$$CBHH@std@@PAX@std@@@std@@@std@@QAE@XZ PROC ; std::_Alloc_construct_ptr<std::allocator<std::_Tree_node<std::pair<int const ,int>,void *> > >::~_Alloc_construct_ptr<std::allocator<std::_Tree_node<std::pair<int const ,int>,void *> > >, COMDAT
; _this$ = ecx

; 1172 :         if (_Ptr) {

  00000	8b 41 04	 mov	 eax, DWORD PTR [ecx+4]
  00003	85 c0		 test	 eax, eax
  00005	74 0b		 je	 SHORT $LN10@Alloc_cons

; 289  :         ::operator delete(_Ptr, _Bytes);

  00007	6a 18		 push	 24			; 00000018H
  00009	50		 push	 eax
  0000a	e8 00 00 00 00	 call	 ??3@YAXPAXI@Z		; operator delete
  0000f	83 c4 08	 add	 esp, 8
$LN10@Alloc_cons:

; 1173 :             _Al.deallocate(_Ptr, 1);
; 1174 :         }
; 1175 :     }

  00012	c3		 ret	 0
??1?$_Alloc_construct_ptr@V?$allocator@U?$_Tree_node@U?$pair@$$CBHH@std@@PAX@std@@@std@@@std@@QAE@XZ ENDP ; std::_Alloc_construct_ptr<std::allocator<std::_Tree_node<std::pair<int const ,int>,void *> > >::~_Alloc_construct_ptr<std::allocator<std::_Tree_node<std::pair<int const ,int>,void *> > >
_TEXT	ENDS
; Function compile flags: /Ogtp
; File C:\Program Files\Microsoft Visual Studio\2022\Professional\VC\Tools\MSVC\14.44.35207\include\xtree
; File C:\Program Files\Microsoft Visual Studio\2022\Professional\VC\Tools\MSVC\14.44.35207\include\type_traits
; File C:\Program Files\Microsoft Visual Studio\2022\Professional\VC\Tools\MSVC\14.44.35207\include\xtree
; File C:\Program Files\Microsoft Visual Studio\2022\Professional\VC\Tools\MSVC\14.44.35207\include\type_traits
; File C:\Program Files\Microsoft Visual Studio\2022\Professional\VC\Tools\MSVC\14.44.35207\include\xtree
;	COMDAT ??$_Find_lower_bound@H@?$_Tree@V?$_Tmap_traits@HHU?$less@H@std@@V?$allocator@U?$pair@$$CBHH@std@@@2@$0A@@std@@@std@@IBE?AU?$_Tree_find_result@PAU?$_Tree_node@U?$pair@$$CBHH@std@@PAX@std@@@1@ABH@Z
_TEXT	SEGMENT
___$ReturnUdt$ = 8					; size = 4
__Keyval$ = 12						; size = 4
??$_Find_lower_bound@H@?$_Tree@V?$_Tmap_traits@HHU?$less@H@std@@V?$allocator@U?$pair@$$CBHH@std@@@2@$0A@@std@@@std@@IBE?AU?$_Tree_find_result@PAU?$_Tree_node@U?$pair@$$CBHH@std@@PAX@std@@@1@ABH@Z PROC ; std::_Tree<std::_Tmap_traits<int,int,std::less<int>,std::allocator<std::pair<int const ,int> >,0> >::_Find_lower_bound<int>, COMDAT
; _this$ = ecx

; 1628 :     _Tree_find_result<_Nodeptr> _Find_lower_bound(const _Keyty& _Keyval) const {

  00000	55		 push	 ebp
  00001	8b ec		 mov	 ebp, esp

; 1629 :         const auto _Scary = _Get_scary();
; 1630 :         _Tree_find_result<_Nodeptr> _Result{{_Scary->_Myhead->_Parent, _Tree_child::_Right}, _Scary->_Myhead};

  00003	8b 09		 mov	 ecx, DWORD PTR [ecx]
  00005	8b 55 08	 mov	 edx, DWORD PTR ___$ReturnUdt$[ebp]
  00008	8b 41 04	 mov	 eax, DWORD PTR [ecx+4]
  0000b	89 02		 mov	 DWORD PTR [edx], eax
  0000d	c7 42 04 00 00
	00 00		 mov	 DWORD PTR [edx+4], 0
  00014	89 4a 08	 mov	 DWORD PTR [edx+8], ecx

; 1631 :         _Nodeptr _Trynode = _Result._Location._Parent;
; 1632 :         while (!_Trynode->_Isnil) {

  00017	80 78 0d 00	 cmp	 BYTE PTR [eax+13], 0
  0001b	75 28		 jne	 SHORT $LN13@Find_lower
; File C:\Program Files\Microsoft Visual Studio\2022\Professional\VC\Tools\MSVC\14.44.35207\include\type_traits

; 2380 :         return _Left < _Right;

  0001d	8b 4d 0c	 mov	 ecx, DWORD PTR __Keyval$[ebp]
  00020	56		 push	 esi
  00021	8b 31		 mov	 esi, DWORD PTR [ecx]
$LL2@Find_lower:
; File C:\Program Files\Microsoft Visual Studio\2022\Professional\VC\Tools\MSVC\14.44.35207\include\xtree

; 1633 :             _Result._Location._Parent = _Trynode;

  00023	89 02		 mov	 DWORD PTR [edx], eax
; File C:\Program Files\Microsoft Visual Studio\2022\Professional\VC\Tools\MSVC\14.44.35207\include\type_traits

; 2380 :         return _Left < _Right;

  00025	39 70 10	 cmp	 DWORD PTR [eax+16], esi
; File C:\Program Files\Microsoft Visual Studio\2022\Professional\VC\Tools\MSVC\14.44.35207\include\xtree

; 1634 :             if (_DEBUG_LT_PRED(_Getcomp(), _Traits::_Kfn(_Trynode->_Myval), _Keyval)) {

  00028	7d 07		 jge	 SHORT $LN4@Find_lower

; 1635 :                 _Result._Location._Child = _Tree_child::_Right;
; 1636 :                 _Trynode                 = _Trynode->_Right;

  0002a	8b 40 08	 mov	 eax, DWORD PTR [eax+8]
  0002d	33 c9		 xor	 ecx, ecx

; 1637 :             } else {

  0002f	eb 0a		 jmp	 SHORT $LN5@Find_lower
$LN4@Find_lower:

; 1638 :                 _Result._Location._Child = _Tree_child::_Left;
; 1639 :                 _Result._Bound           = _Trynode;

  00031	89 42 08	 mov	 DWORD PTR [edx+8], eax

; 1640 :                 _Trynode                 = _Trynode->_Left;

  00034	b9 01 00 00 00	 mov	 ecx, 1
  00039	8b 00		 mov	 eax, DWORD PTR [eax]
$LN5@Find_lower:

; 1631 :         _Nodeptr _Trynode = _Result._Location._Parent;
; 1632 :         while (!_Trynode->_Isnil) {

  0003b	89 4a 04	 mov	 DWORD PTR [edx+4], ecx
  0003e	80 78 0d 00	 cmp	 BYTE PTR [eax+13], 0
  00042	74 df		 je	 SHORT $LL2@Find_lower
  00044	5e		 pop	 esi
$LN13@Find_lower:

; 1641 :             }
; 1642 :         }
; 1643 : 
; 1644 :         return _Result;
; 1645 :     }

  00045	8b c2		 mov	 eax, edx
  00047	5d		 pop	 ebp
  00048	c2 08 00	 ret	 8
??$_Find_lower_bound@H@?$_Tree@V?$_Tmap_traits@HHU?$less@H@std@@V?$allocator@U?$pair@$$CBHH@std@@@2@$0A@@std@@@std@@IBE?AU?$_Tree_find_result@PAU?$_Tree_node@U?$pair@$$CBHH@std@@PAX@std@@@1@ABH@Z ENDP ; std::_Tree<std::_Tmap_traits<int,int,std::less<int>,std::allocator<std::pair<int const ,int> >,0> >::_Find_lower_bound<int>
_TEXT	ENDS
; Function compile flags: /Ogtp
; File C:\Program Files\Microsoft Visual Studio\2022\Professional\VC\Tools\MSVC\14.44.35207\include\xmemory
;	COMDAT ??1?$_Alloc_construct_ptr@V?$allocator@U?$_Tree_node@U?$pair@$$CBHU__MAKEGEMPROB@CUltimateWeapon@@@std@@PAX@std@@@std@@@std@@QAE@XZ
_TEXT	SEGMENT
??1?$_Alloc_construct_ptr@V?$allocator@U?$_Tree_node@U?$pair@$$CBHU__MAKEGEMPROB@CUltimateWeapon@@@std@@PAX@std@@@std@@@std@@QAE@XZ PROC ; std::_Alloc_construct_ptr<std::allocator<std::_Tree_node<std::pair<int const ,CUltimateWeapon::__MAKEGEMPROB>,void *> > >::~_Alloc_construct_ptr<std::allocator<std::_Tree_node<std::pair<int const ,CUltimateWeapon::__MAKEGEMPROB>,void *> > >, COMDAT
; _this$ = ecx

; 1172 :         if (_Ptr) {

  00000	8b 41 04	 mov	 eax, DWORD PTR [ecx+4]
  00003	85 c0		 test	 eax, eax
  00005	74 0b		 je	 SHORT $LN10@Alloc_cons

; 289  :         ::operator delete(_Ptr, _Bytes);

  00007	6a 28		 push	 40			; 00000028H
  00009	50		 push	 eax
  0000a	e8 00 00 00 00	 call	 ??3@YAXPAXI@Z		; operator delete
  0000f	83 c4 08	 add	 esp, 8
$LN10@Alloc_cons:

; 1173 :             _Al.deallocate(_Ptr, 1);
; 1174 :         }
; 1175 :     }

  00012	c3		 ret	 0
??1?$_Alloc_construct_ptr@V?$allocator@U?$_Tree_node@U?$pair@$$CBHU__MAKEGEMPROB@CUltimateWeapon@@@std@@PAX@std@@@std@@@std@@QAE@XZ ENDP ; std::_Alloc_construct_ptr<std::allocator<std::_Tree_node<std::pair<int const ,CUltimateWeapon::__MAKEGEMPROB>,void *> > >::~_Alloc_construct_ptr<std::allocator<std::_Tree_node<std::pair<int const ,CUltimateWeapon::__MAKEGEMPROB>,void *> > >
_TEXT	ENDS
; Function compile flags: /Ogtp
; File C:\Program Files\Microsoft Visual Studio\2022\Professional\VC\Tools\MSVC\14.44.35207\include\xtree
; File C:\Program Files\Microsoft Visual Studio\2022\Professional\VC\Tools\MSVC\14.44.35207\include\type_traits
; File C:\Program Files\Microsoft Visual Studio\2022\Professional\VC\Tools\MSVC\14.44.35207\include\xtree
; File C:\Program Files\Microsoft Visual Studio\2022\Professional\VC\Tools\MSVC\14.44.35207\include\type_traits
; File C:\Program Files\Microsoft Visual Studio\2022\Professional\VC\Tools\MSVC\14.44.35207\include\xtree
;	COMDAT ??$_Find_lower_bound@H@?$_Tree@V?$_Tmap_traits@HU__MAKEGEMPROB@CUltimateWeapon@@U?$less@H@std@@V?$allocator@U?$pair@$$CBHU__MAKEGEMPROB@CUltimateWeapon@@@std@@@4@$0A@@std@@@std@@IBE?AU?$_Tree_find_result@PAU?$_Tree_node@U?$pair@$$CBHU__MAKEGEMPROB@CUltimateWeapon@@@std@@PAX@std@@@1@ABH@Z
_TEXT	SEGMENT
___$ReturnUdt$ = 8					; size = 4
__Keyval$ = 12						; size = 4
??$_Find_lower_bound@H@?$_Tree@V?$_Tmap_traits@HU__MAKEGEMPROB@CUltimateWeapon@@U?$less@H@std@@V?$allocator@U?$pair@$$CBHU__MAKEGEMPROB@CUltimateWeapon@@@std@@@4@$0A@@std@@@std@@IBE?AU?$_Tree_find_result@PAU?$_Tree_node@U?$pair@$$CBHU__MAKEGEMPROB@CUltimateWeapon@@@std@@PAX@std@@@1@ABH@Z PROC ; std::_Tree<std::_Tmap_traits<int,CUltimateWeapon::__MAKEGEMPROB,std::less<int>,std::allocator<std::pair<int const ,CUltimateWeapon::__MAKEGEMPROB> >,0> >::_Find_lower_bound<int>, COMDAT
; _this$ = ecx

; 1628 :     _Tree_find_result<_Nodeptr> _Find_lower_bound(const _Keyty& _Keyval) const {

  00000	55		 push	 ebp
  00001	8b ec		 mov	 ebp, esp

; 1629 :         const auto _Scary = _Get_scary();
; 1630 :         _Tree_find_result<_Nodeptr> _Result{{_Scary->_Myhead->_Parent, _Tree_child::_Right}, _Scary->_Myhead};

  00003	8b 09		 mov	 ecx, DWORD PTR [ecx]
  00005	8b 55 08	 mov	 edx, DWORD PTR ___$ReturnUdt$[ebp]
  00008	8b 41 04	 mov	 eax, DWORD PTR [ecx+4]
  0000b	89 02		 mov	 DWORD PTR [edx], eax
  0000d	c7 42 04 00 00
	00 00		 mov	 DWORD PTR [edx+4], 0
  00014	89 4a 08	 mov	 DWORD PTR [edx+8], ecx

; 1631 :         _Nodeptr _Trynode = _Result._Location._Parent;
; 1632 :         while (!_Trynode->_Isnil) {

  00017	80 78 0d 00	 cmp	 BYTE PTR [eax+13], 0
  0001b	75 28		 jne	 SHORT $LN13@Find_lower
; File C:\Program Files\Microsoft Visual Studio\2022\Professional\VC\Tools\MSVC\14.44.35207\include\type_traits

; 2380 :         return _Left < _Right;

  0001d	8b 4d 0c	 mov	 ecx, DWORD PTR __Keyval$[ebp]
  00020	56		 push	 esi
  00021	8b 31		 mov	 esi, DWORD PTR [ecx]
$LL2@Find_lower:
; File C:\Program Files\Microsoft Visual Studio\2022\Professional\VC\Tools\MSVC\14.44.35207\include\xtree

; 1633 :             _Result._Location._Parent = _Trynode;

  00023	89 02		 mov	 DWORD PTR [edx], eax
; File C:\Program Files\Microsoft Visual Studio\2022\Professional\VC\Tools\MSVC\14.44.35207\include\type_traits

; 2380 :         return _Left < _Right;

  00025	39 70 10	 cmp	 DWORD PTR [eax+16], esi
; File C:\Program Files\Microsoft Visual Studio\2022\Professional\VC\Tools\MSVC\14.44.35207\include\xtree

; 1634 :             if (_DEBUG_LT_PRED(_Getcomp(), _Traits::_Kfn(_Trynode->_Myval), _Keyval)) {

  00028	7d 07		 jge	 SHORT $LN4@Find_lower

; 1635 :                 _Result._Location._Child = _Tree_child::_Right;
; 1636 :                 _Trynode                 = _Trynode->_Right;

  0002a	8b 40 08	 mov	 eax, DWORD PTR [eax+8]
  0002d	33 c9		 xor	 ecx, ecx

; 1637 :             } else {

  0002f	eb 0a		 jmp	 SHORT $LN5@Find_lower
$LN4@Find_lower:

; 1638 :                 _Result._Location._Child = _Tree_child::_Left;
; 1639 :                 _Result._Bound           = _Trynode;

  00031	89 42 08	 mov	 DWORD PTR [edx+8], eax

; 1640 :                 _Trynode                 = _Trynode->_Left;

  00034	b9 01 00 00 00	 mov	 ecx, 1
  00039	8b 00		 mov	 eax, DWORD PTR [eax]
$LN5@Find_lower:

; 1631 :         _Nodeptr _Trynode = _Result._Location._Parent;
; 1632 :         while (!_Trynode->_Isnil) {

  0003b	89 4a 04	 mov	 DWORD PTR [edx+4], ecx
  0003e	80 78 0d 00	 cmp	 BYTE PTR [eax+13], 0
  00042	74 df		 je	 SHORT $LL2@Find_lower
  00044	5e		 pop	 esi
$LN13@Find_lower:

; 1641 :             }
; 1642 :         }
; 1643 : 
; 1644 :         return _Result;
; 1645 :     }

  00045	8b c2		 mov	 eax, edx
  00047	5d		 pop	 ebp
  00048	c2 08 00	 ret	 8
??$_Find_lower_bound@H@?$_Tree@V?$_Tmap_traits@HU__MAKEGEMPROB@CUltimateWeapon@@U?$less@H@std@@V?$allocator@U?$pair@$$CBHU__MAKEGEMPROB@CUltimateWeapon@@@std@@@4@$0A@@std@@@std@@IBE?AU?$_Tree_find_result@PAU?$_Tree_node@U?$pair@$$CBHU__MAKEGEMPROB@CUltimateWeapon@@@std@@PAX@std@@@1@ABH@Z ENDP ; std::_Tree<std::_Tmap_traits<int,CUltimateWeapon::__MAKEGEMPROB,std::less<int>,std::allocator<std::pair<int const ,CUltimateWeapon::__MAKEGEMPROB> >,0> >::_Find_lower_bound<int>
_TEXT	ENDS
; Function compile flags: /Ogtp
; File C:\Program Files\Microsoft Visual Studio\2022\Professional\VC\Tools\MSVC\14.44.35207\include\vector
; File C:\Program Files\Microsoft Visual Studio\2022\Professional\VC\Tools\MSVC\14.44.35207\include\xmemory
; File C:\Program Files\Microsoft Visual Studio\2022\Professional\VC\Tools\MSVC\14.44.35207\include\vector
; File C:\Program Files\Microsoft Visual Studio\2022\Professional\VC\Tools\MSVC\14.44.35207\include\xmemory
; File C:\Program Files\Microsoft Visual Studio\2022\Professional\VC\Tools\MSVC\14.44.35207\include\vector
; File C:\Program Files\Microsoft Visual Studio\2022\Professional\VC\Tools\MSVC\14.44.35207\include\xmemory
; File C:\Program Files\Microsoft Visual Studio\2022\Professional\VC\Tools\MSVC\14.44.35207\include\vector
; File C:\Program Files\Microsoft Visual Studio\2022\Professional\VC\Tools\MSVC\14.44.35207\include\xutility
; File C:\Program Files\Microsoft Visual Studio\2022\Professional\VC\Tools\MSVC\14.44.35207\include\vector
; File C:\Program Files\Microsoft Visual Studio\2022\Professional\VC\Tools\MSVC\14.44.35207\include\xmemory
; File C:\Program Files\Microsoft Visual Studio\2022\Professional\VC\Tools\MSVC\14.44.35207\include\vector
; File C:\Program Files\Microsoft Visual Studio\2022\Professional\VC\Tools\MSVC\14.44.35207\include\xmemory
; File C:\Program Files\Microsoft Visual Studio\2022\Professional\VC\Tools\MSVC\14.44.35207\include\vector
; File C:\Program Files\Microsoft Visual Studio\2022\Professional\VC\Tools\MSVC\14.44.35207\include\xmemory
; File C:\Program Files\Microsoft Visual Studio\2022\Professional\VC\Tools\MSVC\14.44.35207\include\vector
; File C:\Program Files\Microsoft Visual Studio\2022\Professional\VC\Tools\MSVC\14.44.35207\include\xutility
; File C:\Program Files\Microsoft Visual Studio\2022\Professional\VC\Tools\MSVC\14.44.35207\include\vector
; File C:\Program Files\Microsoft Visual Studio\2022\Professional\VC\Tools\MSVC\14.44.35207\include\xutility
; File C:\Program Files\Microsoft Visual Studio\2022\Professional\VC\Tools\MSVC\14.44.35207\include\vector
; File C:\Program Files\Microsoft Visual Studio\2022\Professional\VC\Tools\MSVC\14.44.35207\include\xmemory
; File C:\Program Files\Microsoft Visual Studio\2022\Professional\VC\Tools\MSVC\14.44.35207\include\vector
; File C:\Program Files\Microsoft Visual Studio\2022\Professional\VC\Tools\MSVC\14.44.35207\include\xmemory
; File C:\Program Files\Microsoft Visual Studio\2022\Professional\VC\Tools\MSVC\14.44.35207\include\vector
;	COMDAT ??$_Assign_counted_range@PAU__GEMABILITY@CUltimateWeapon@@@?$vector@U__GEMABILITY@CUltimateWeapon@@V?$allocator@U__GEMABILITY@CUltimateWeapon@@@std@@@std@@AAEXPAU__GEMABILITY@CUltimateWeapon@@I@Z
_TEXT	SEGMENT
__Backout$2 = -48					; size = 12
tv1242 = -36						; size = 4
__Oldsize$1$ = -36					; size = 4
__Oldsize$1$ = -32					; size = 4
__Newlast$1$ = -32					; size = 4
__Oldcapacity$1$ = -32					; size = 4
tv1268 = -28						; size = 4
tv1273 = -28						; size = 4
$T3 = -28						; size = 4
$T4 = -24						; size = 4
tv1249 = -24						; size = 4
tv1258 = -20						; size = 4
_this$1$ = -16						; size = 4
__$EHRec$ = -12						; size = 12
__First$ = 8						; size = 4
__First$2$ = 8						; size = 4
__Newsize$ = 12						; size = 4
??$_Assign_counted_range@PAU__GEMABILITY@CUltimateWeapon@@@?$vector@U__GEMABILITY@CUltimateWeapon@@V?$allocator@U__GEMABILITY@CUltimateWeapon@@@std@@@std@@AAEXPAU__GEMABILITY@CUltimateWeapon@@I@Z PROC ; std::vector<CUltimateWeapon::__GEMABILITY,std::allocator<CUltimateWeapon::__GEMABILITY> >::_Assign_counted_range<CUltimateWeapon::__GEMABILITY *>, COMDAT
; _this$ = ecx

; 1420 :     _CONSTEXPR20 void _Assign_counted_range(_Iter _First, const size_type _Newsize) {

  00000	55		 push	 ebp
  00001	8b ec		 mov	 ebp, esp
  00003	6a ff		 push	 -1
  00005	68 00 00 00 00	 push	 __ehhandler$??$_Assign_counted_range@PAU__GEMABILITY@CUltimateWeapon@@@?$vector@U__GEMABILITY@CUltimateWeapon@@V?$allocator@U__GEMABILITY@CUltimateWeapon@@@std@@@std@@AAEXPAU__GEMABILITY@CUltimateWeapon@@I@Z
  0000a	64 a1 00 00 00
	00		 mov	 eax, DWORD PTR fs:0
  00010	50		 push	 eax
  00011	83 ec 24	 sub	 esp, 36			; 00000024H
  00014	53		 push	 ebx
  00015	56		 push	 esi
  00016	57		 push	 edi
  00017	a1 00 00 00 00	 mov	 eax, DWORD PTR ___security_cookie
  0001c	33 c5		 xor	 eax, ebp
  0001e	50		 push	 eax
  0001f	8d 45 f4	 lea	 eax, DWORD PTR __$EHRec$[ebp]
  00022	64 a3 00 00 00
	00		 mov	 DWORD PTR fs:0, eax
  00028	8b f1		 mov	 esi, ecx
  0002a	89 75 f0	 mov	 DWORD PTR _this$1$[ebp], esi

; 1421 :         // assign elements from counted range _First + [0, _Newsize)
; 1422 :         auto& _Al         = _Getal();
; 1423 :         auto& _My_data    = _Mypair._Myval2;
; 1424 :         pointer& _Myfirst = _My_data._Myfirst;
; 1425 :         pointer& _Mylast  = _My_data._Mylast;
; 1426 :         pointer& _Myend   = _My_data._Myend;
; 1427 : 
; 1428 :         constexpr bool _Nothrow_construct = conjunction_v<is_nothrow_constructible<_Ty, _Iter_ref_t<_Iter>>,
; 1429 :             _Uses_default_construct<_Alloc, _Ty*, _Iter_ref_t<_Iter>>>;
; 1430 : 
; 1431 :         _My_data._Orphan_all();
; 1432 :         const auto _Oldcapacity = static_cast<size_type>(_Myend - _Myfirst);

  0002d	8b 56 08	 mov	 edx, DWORD PTR [esi+8]
  00030	b8 67 66 66 66	 mov	 eax, 1717986919		; 66666667H
  00035	8b 3e		 mov	 edi, DWORD PTR [esi]
  00037	2b d7		 sub	 edx, edi

; 1433 :         if (_Newsize > _Oldcapacity) {

  00039	8b 5d 0c	 mov	 ebx, DWORD PTR __Newsize$[ebp]
  0003c	f7 ea		 imul	 edx
  0003e	c1 fa 03	 sar	 edx, 3
  00041	8b c2		 mov	 eax, edx
  00043	c1 e8 1f	 shr	 eax, 31			; 0000001fH
  00046	03 c2		 add	 eax, edx
  00048	89 45 e0	 mov	 DWORD PTR __Oldcapacity$1$[ebp], eax
  0004b	3b d8		 cmp	 ebx, eax
  0004d	0f 86 bc 00 00
	00		 jbe	 $LN5@Assign_cou

; 1703 :         if (_Newsize > max_size()) {

  00053	81 fb cc cc cc
	0c		 cmp	 ebx, 214748364		; 0cccccccH
  00059	0f 87 bf 02 00
	00		 ja	 $LN199@Assign_cou

; 2011 :         if (_Oldcapacity > _Max - _Oldcapacity / 2) {

  0005f	8b 55 e0	 mov	 edx, DWORD PTR __Oldcapacity$1$[ebp]
  00062	8b c8		 mov	 ecx, eax
  00064	d1 e9		 shr	 ecx, 1
  00066	b8 cc cc cc 0c	 mov	 eax, 214748364		; 0cccccccH
  0006b	2b c1		 sub	 eax, ecx
  0006d	3b d0		 cmp	 edx, eax
  0006f	76 09		 jbe	 SHORT $LN15@Assign_cou

; 2012 :             return _Max; // geometric growth would overflow

  00071	c7 45 e8 cc cc
	cc 0c		 mov	 DWORD PTR $T4[ebp], 214748364 ; 0cccccccH
  00078	eb 0b		 jmp	 SHORT $LN16@Assign_cou
$LN15@Assign_cou:

; 2013 :         }
; 2014 : 
; 2015 :         const size_type _Geometric = _Oldcapacity + _Oldcapacity / 2;

  0007a	8d 04 11	 lea	 eax, DWORD PTR [ecx+edx]

; 2016 : 
; 2017 :         if (_Geometric < _Newsize) {

  0007d	3b c3		 cmp	 eax, ebx
  0007f	0f 42 c3	 cmovb	 eax, ebx
  00082	89 45 e8	 mov	 DWORD PTR $T4[ebp], eax
$LN16@Assign_cou:

; 1709 :         if (_Myfirst) { // destroy and deallocate old array

  00085	85 ff		 test	 edi, edi
  00087	74 56		 je	 SHORT $LN12@Assign_cou

; 1710 :             _Destroy_range(_Myfirst, _Mylast, _Al);

  00089	8b 46 04	 mov	 eax, DWORD PTR [esi+4]
; File C:\Program Files\Microsoft Visual Studio\2022\Professional\VC\Tools\MSVC\14.44.35207\include\xmemory

; 1102 :         for (; _First != _Last; ++_First) {

  0008c	3b f8		 cmp	 edi, eax
  0008e	74 14		 je	 SHORT $LN23@Assign_cou
  00090	8b d8		 mov	 ebx, eax
$LL24@Assign_cou:
; File C:\Program Files\Microsoft Visual Studio\2022\Professional\VC\Tools\MSVC\14.44.35207\include\vector

; 830  :         _Tidy();

  00092	8d 4f 08	 lea	 ecx, DWORD PTR [edi+8]
  00095	e8 00 00 00 00	 call	 ?_Tidy@?$vector@HV?$allocator@H@std@@@std@@AAEXXZ ; std::vector<int,std::allocator<int> >::_Tidy
; File C:\Program Files\Microsoft Visual Studio\2022\Professional\VC\Tools\MSVC\14.44.35207\include\xmemory

; 1102 :         for (; _First != _Last; ++_First) {

  0009a	83 c7 14	 add	 edi, 20			; 00000014H
  0009d	3b fb		 cmp	 edi, ebx
  0009f	75 f1		 jne	 SHORT $LL24@Assign_cou
  000a1	8b 5d 0c	 mov	 ebx, DWORD PTR __Newsize$[ebp]
$LN23@Assign_cou:
; File C:\Program Files\Microsoft Visual Studio\2022\Professional\VC\Tools\MSVC\14.44.35207\include\vector

; 1712 :             _Al.deallocate(_Myfirst, static_cast<size_type>(_Myend - _Myfirst));

  000a4	8b 4d f0	 mov	 ecx, DWORD PTR _this$1$[ebp]
  000a7	b8 67 66 66 66	 mov	 eax, 1717986919		; 66666667H
  000ac	8b 36		 mov	 esi, DWORD PTR [esi]
  000ae	8b 49 08	 mov	 ecx, DWORD PTR [ecx+8]
  000b1	2b ce		 sub	 ecx, esi
  000b3	f7 e9		 imul	 ecx
  000b5	c1 fa 03	 sar	 edx, 3
  000b8	8b c2		 mov	 eax, edx
  000ba	c1 e8 1f	 shr	 eax, 31			; 0000001fH
  000bd	03 c2		 add	 eax, edx
  000bf	50		 push	 eax
  000c0	56		 push	 esi
  000c1	8b 75 f0	 mov	 esi, DWORD PTR _this$1$[ebp]
  000c4	8b ce		 mov	 ecx, esi
  000c6	e8 00 00 00 00	 call	 ?deallocate@?$allocator@U__GEMABILITY@CUltimateWeapon@@@std@@QAEXQAU__GEMABILITY@CUltimateWeapon@@I@Z ; std::allocator<CUltimateWeapon::__GEMABILITY>::deallocate

; 1713 : 
; 1714 :             _Myfirst = nullptr;

  000cb	c7 06 00 00 00
	00		 mov	 DWORD PTR [esi], 0

; 1715 :             _Mylast  = nullptr;

  000d1	c7 46 04 00 00
	00 00		 mov	 DWORD PTR [esi+4], 0

; 1716 :             _Myend   = nullptr;

  000d8	c7 46 08 00 00
	00 00		 mov	 DWORD PTR [esi+8], 0
$LN12@Assign_cou:

; 1717 :         }
; 1718 : 
; 1719 :         _Buy_raw(_Newcapacity);

  000df	ff 75 e8	 push	 DWORD PTR $T4[ebp]
  000e2	8b ce		 mov	 ecx, esi
  000e4	e8 00 00 00 00	 call	 ?_Buy_raw@?$vector@U__GEMABILITY@CUltimateWeapon@@V?$allocator@U__GEMABILITY@CUltimateWeapon@@@std@@@std@@AAEXI@Z ; std::vector<CUltimateWeapon::__GEMABILITY,std::allocator<CUltimateWeapon::__GEMABILITY> >::_Buy_raw

; 1437 :                 _ASAN_VECTOR_CREATE;
; 1438 :             } else {
; 1439 :                 _ASAN_VECTOR_CREATE_GUARD;
; 1440 :                 _Mylast = _STD _Uninitialized_copy_n(_STD move(_First), _Newsize, _Myfirst, _Al);

  000e9	56		 push	 esi
  000ea	ff 36		 push	 DWORD PTR [esi]
  000ec	53		 push	 ebx
  000ed	ff 75 08	 push	 DWORD PTR __First$[ebp]
  000f0	e8 00 00 00 00	 call	 ??$_Uninitialized_copy_n@PAU__GEMABILITY@CUltimateWeapon@@V?$allocator@U__GEMABILITY@CUltimateWeapon@@@std@@@std@@YAPAU__GEMABILITY@CUltimateWeapon@@PAU12@I0AAV?$allocator@U__GEMABILITY@CUltimateWeapon@@@0@@Z ; std::_Uninitialized_copy_n<CUltimateWeapon::__GEMABILITY *,std::allocator<CUltimateWeapon::__GEMABILITY> >
  000f5	83 c4 10	 add	 esp, 16			; 00000010H
  000f8	89 46 04	 mov	 DWORD PTR [esi+4], eax

; 1479 :         }
; 1480 :     }

  000fb	8b 4d f4	 mov	 ecx, DWORD PTR __$EHRec$[ebp]
  000fe	64 89 0d 00 00
	00 00		 mov	 DWORD PTR fs:0, ecx
  00105	59		 pop	 ecx
  00106	5f		 pop	 edi
  00107	5e		 pop	 esi
  00108	5b		 pop	 ebx
  00109	8b e5		 mov	 esp, ebp
  0010b	5d		 pop	 ebp
  0010c	c2 08 00	 ret	 8
$LN5@Assign_cou:

; 1443 :         }
; 1444 : 
; 1445 :         const auto _Oldsize = static_cast<size_type>(_Mylast - _Myfirst);

  0010f	8b 76 04	 mov	 esi, DWORD PTR [esi+4]
  00112	b8 67 66 66 66	 mov	 eax, 1717986919		; 66666667H
  00117	8b ce		 mov	 ecx, esi
  00119	2b cf		 sub	 ecx, edi
  0011b	f7 e9		 imul	 ecx
  0011d	c1 fa 03	 sar	 edx, 3
  00120	8b c2		 mov	 eax, edx
  00122	c1 e8 1f	 shr	 eax, 31			; 0000001fH
  00125	03 c2		 add	 eax, edx
  00127	89 45 e0	 mov	 DWORD PTR __Oldsize$1$[ebp], eax

; 1446 :         if (_Newsize > _Oldsize) {

  0012a	3b d8		 cmp	 ebx, eax
  0012c	76 72		 jbe	 SHORT $LN6@Assign_cou

; 1455 :                     _Copied = true;
; 1456 :                 }
; 1457 :             }
; 1458 : 
; 1459 :             if (!_Copied) {
; 1460 :                 for (auto _Mid = _Myfirst; _Mid != _Mylast; ++_Mid, (void) ++_First) {

  0012e	8b 5d 08	 mov	 ebx, DWORD PTR __First$[ebp]
  00131	3b fe		 cmp	 edi, esi
  00133	74 1a		 je	 SHORT $LN192@Assign_cou
$LL4@Assign_cou:

; 1461 :                     *_Mid = *_First;

  00135	53		 push	 ebx
  00136	8b cf		 mov	 ecx, edi
  00138	e8 00 00 00 00	 call	 ??4__GEMABILITY@CUltimateWeapon@@QAEAAU01@ABU01@@Z
  0013d	8b 45 f0	 mov	 eax, DWORD PTR _this$1$[ebp]
  00140	83 c7 14	 add	 edi, 20			; 00000014H
  00143	83 c3 14	 add	 ebx, 20			; 00000014H
  00146	8b 70 04	 mov	 esi, DWORD PTR [eax+4]
  00149	3b fe		 cmp	 edi, esi
  0014b	75 e8		 jne	 SHORT $LL4@Assign_cou

; 1455 :                     _Copied = true;
; 1456 :                 }
; 1457 :             }
; 1458 : 
; 1459 :             if (!_Copied) {
; 1460 :                 for (auto _Mid = _Myfirst; _Mid != _Mylast; ++_Mid, (void) ++_First) {

  0014d	eb 03		 jmp	 SHORT $LN3@Assign_cou
$LN192@Assign_cou:
  0014f	8b 45 f0	 mov	 eax, DWORD PTR _this$1$[ebp]
$LN3@Assign_cou:

; 1470 :                 _Mylast = _STD _Uninitialized_copy_n(_STD move(_First), _Newsize - _Oldsize, _Mylast, _Al);

  00152	8b 7d 0c	 mov	 edi, DWORD PTR __Newsize$[ebp]
  00155	2b 7d e0	 sub	 edi, DWORD PTR __Oldsize$1$[ebp]
; File C:\Program Files\Microsoft Visual Studio\2022\Professional\VC\Tools\MSVC\14.44.35207\include\xmemory

; 1833 :     _CONSTEXPR20 _Uninitialized_backout_al(pointer _Dest, _Alloc& _Al_) : _First(_Dest), _Last(_Dest), _Al(_Al_) {}

  00158	89 75 d0	 mov	 DWORD PTR __Backout$2[ebp], esi
  0015b	89 75 d4	 mov	 DWORD PTR __Backout$2[ebp+4], esi
  0015e	89 45 d8	 mov	 DWORD PTR __Backout$2[ebp+8], eax

; 1936 :     _Uninitialized_backout_al<_Alloc> _Backout{_Dest, _Al};

  00161	c7 45 fc 00 00
	00 00		 mov	 DWORD PTR __$EHRec$[ebp+8], 0

; 1937 :     for (; _Count != 0; ++_UFirst, (void) --_Count) {

  00168	74 1f		 je	 SHORT $LN44@Assign_cou
  0016a	66 0f 1f 44 00
	00		 npad	 6
$LL45@Assign_cou:

; 732  :         ::new (const_cast<void*>(static_cast<const volatile void*>(_Ptr))) _Objty(_STD forward<_Types>(_Args)...);

  00170	53		 push	 ebx
  00171	8b ce		 mov	 ecx, esi
  00173	e8 00 00 00 00	 call	 ??0__GEMABILITY@CUltimateWeapon@@QAE@ABU01@@Z

; 1845 :         ++_Last;

  00178	83 c6 14	 add	 esi, 20			; 00000014H

; 1937 :     for (; _Count != 0; ++_UFirst, (void) --_Count) {

  0017b	83 c3 14	 add	 ebx, 20			; 00000014H

; 1845 :         ++_Last;

  0017e	89 75 d4	 mov	 DWORD PTR __Backout$2[ebp+4], esi

; 1937 :     for (; _Count != 0; ++_UFirst, (void) --_Count) {

  00181	83 ef 01	 sub	 edi, 1
  00184	75 ea		 jne	 SHORT $LL45@Assign_cou
  00186	8b 45 f0	 mov	 eax, DWORD PTR _this$1$[ebp]
$LN44@Assign_cou:
; File C:\Program Files\Microsoft Visual Studio\2022\Professional\VC\Tools\MSVC\14.44.35207\include\vector

; 1470 :                 _Mylast = _STD _Uninitialized_copy_n(_STD move(_First), _Newsize - _Oldsize, _Mylast, _Al);

  00189	89 70 04	 mov	 DWORD PTR [eax+4], esi

; 1479 :         }
; 1480 :     }

  0018c	8b 4d f4	 mov	 ecx, DWORD PTR __$EHRec$[ebp]
  0018f	64 89 0d 00 00
	00 00		 mov	 DWORD PTR fs:0, ecx
  00196	59		 pop	 ecx
  00197	5f		 pop	 edi
  00198	5e		 pop	 esi
  00199	5b		 pop	 ebx
  0019a	8b e5		 mov	 esp, ebp
  0019c	5d		 pop	 ebp
  0019d	c2 08 00	 ret	 8
$LN6@Assign_cou:

; 1474 :             const pointer _Newlast = _Myfirst + _Newsize;

  001a0	8d 04 9b	 lea	 eax, DWORD PTR [ebx+ebx*4]
  001a3	8d 04 87	 lea	 eax, DWORD PTR [edi+eax*4]
  001a6	89 45 e0	 mov	 DWORD PTR __Newlast$1$[ebp], eax
; File C:\Program Files\Microsoft Visual Studio\2022\Professional\VC\Tools\MSVC\14.44.35207\include\xutility

; 4812 :     for (; _Count != 0; ++_Dest, (void) ++_First, --_Count) {

  001a9	85 db		 test	 ebx, ebx
  001ab	0f 84 2d 01 00
	00		 je	 $LN191@Assign_cou
; File C:\Program Files\Microsoft Visual Studio\2022\Professional\VC\Tools\MSVC\14.44.35207\include\vector

; 1474 :             const pointer _Newlast = _Myfirst + _Newsize;

  001b1	8b 4d 08	 mov	 ecx, DWORD PTR __First$[ebp]
  001b4	8d 77 0c	 lea	 esi, DWORD PTR [edi+12]
  001b7	83 c1 08	 add	 ecx, 8
  001ba	89 75 e8	 mov	 DWORD PTR tv1249[ebp], esi
  001bd	89 4d ec	 mov	 DWORD PTR tv1258[ebp], ecx
$LL82@Assign_cou:
  001c0	8b 41 f8	 mov	 eax, DWORD PTR [ecx-8]
  001c3	89 07		 mov	 DWORD PTR [edi], eax
  001c5	8b 41 fc	 mov	 eax, DWORD PTR [ecx-4]
  001c8	89 46 f8	 mov	 DWORD PTR [esi-8], eax

; 1524 :         if (this == _STD addressof(_Right)) {

  001cb	8d 46 fc	 lea	 eax, DWORD PTR [esi-4]
  001ce	3b c1		 cmp	 eax, ecx
  001d0	0f 84 ec 00 00
	00		 je	 $LN80@Assign_cou

; 1525 :             return *this;
; 1526 :         }
; 1527 : 
; 1528 :         auto& _Al       = _Getal();
; 1529 :         auto& _Right_al = _Right._Getal();
; 1530 :         if constexpr (_Choose_pocca_v<_Alty>) {
; 1531 :             if (_Al != _Right_al) {
; 1532 :                 _Tidy();
; 1533 :                 _Mypair._Myval2._Reload_proxy(_GET_PROXY_ALLOCATOR(_Alty, _Al), _GET_PROXY_ALLOCATOR(_Alty, _Right_al));
; 1534 :             }
; 1535 :         }
; 1536 : 
; 1537 :         _Pocca(_Al, _Right_al);
; 1538 :         auto& _Right_data = _Right._Mypair._Myval2;
; 1539 :         _Assign_counted_range(_Right_data._Myfirst, static_cast<size_type>(_Right_data._Mylast - _Right_data._Myfirst));

  001d6	8b 01		 mov	 eax, DWORD PTR [ecx]
  001d8	8b 59 04	 mov	 ebx, DWORD PTR [ecx+4]

; 1432 :         const auto _Oldcapacity = static_cast<size_type>(_Myend - _Myfirst);

  001db	8b 4e fc	 mov	 ecx, DWORD PTR [esi-4]

; 1539 :         _Assign_counted_range(_Right_data._Myfirst, static_cast<size_type>(_Right_data._Mylast - _Right_data._Myfirst));

  001de	2b d8		 sub	 ebx, eax

; 1432 :         const auto _Oldcapacity = static_cast<size_type>(_Myend - _Myfirst);

  001e0	8b 56 04	 mov	 edx, DWORD PTR [esi+4]

; 1539 :         _Assign_counted_range(_Right_data._Myfirst, static_cast<size_type>(_Right_data._Mylast - _Right_data._Myfirst));

  001e3	89 45 08	 mov	 DWORD PTR __First$2$[ebp], eax

; 1432 :         const auto _Oldcapacity = static_cast<size_type>(_Myend - _Myfirst);

  001e6	2b d1		 sub	 edx, ecx
  001e8	8d 46 fc	 lea	 eax, DWORD PTR [esi-4]

; 1539 :         _Assign_counted_range(_Right_data._Myfirst, static_cast<size_type>(_Right_data._Mylast - _Right_data._Myfirst));

  001eb	c1 fb 02	 sar	 ebx, 2

; 1432 :         const auto _Oldcapacity = static_cast<size_type>(_Myend - _Myfirst);

  001ee	c1 fa 02	 sar	 edx, 2
  001f1	89 45 dc	 mov	 DWORD PTR tv1242[ebp], eax
  001f4	89 4d e4	 mov	 DWORD PTR tv1273[ebp], ecx

; 1433 :         if (_Newsize > _Oldcapacity) {

  001f7	3b da		 cmp	 ebx, edx
  001f9	76 78		 jbe	 SHORT $LN93@Assign_cou

; 1703 :         if (_Newsize > max_size()) {

  001fb	81 fb ff ff ff
	3f		 cmp	 ebx, 1073741823		; 3fffffffH
  00201	0f 87 12 01 00
	00		 ja	 $LN167@Assign_cou

; 2011 :         if (_Oldcapacity > _Max - _Oldcapacity / 2) {

  00207	8b c2		 mov	 eax, edx
  00209	d1 e8		 shr	 eax, 1
  0020b	89 45 e4	 mov	 DWORD PTR tv1268[ebp], eax
  0020e	b8 ff ff ff 3f	 mov	 eax, 1073741823		; 3fffffffH
  00213	2b 45 e4	 sub	 eax, DWORD PTR tv1268[ebp]
  00216	3b d0		 cmp	 edx, eax
  00218	76 09		 jbe	 SHORT $LN103@Assign_cou

; 2012 :             return _Max; // geometric growth would overflow

  0021a	c7 45 e4 ff ff
	ff 3f		 mov	 DWORD PTR $T3[ebp], 1073741823 ; 3fffffffH
  00221	eb 0d		 jmp	 SHORT $LN104@Assign_cou
$LN103@Assign_cou:

; 2013 :         }
; 2014 : 
; 2015 :         const size_type _Geometric = _Oldcapacity + _Oldcapacity / 2;

  00223	8b 45 e4	 mov	 eax, DWORD PTR tv1268[ebp]
  00226	03 c2		 add	 eax, edx

; 2016 : 
; 2017 :         if (_Geometric < _Newsize) {

  00228	3b c3		 cmp	 eax, ebx
  0022a	0f 42 c3	 cmovb	 eax, ebx
  0022d	89 45 e4	 mov	 DWORD PTR $T3[ebp], eax
$LN104@Assign_cou:

; 1709 :         if (_Myfirst) { // destroy and deallocate old array

  00230	85 c9		 test	 ecx, ecx
  00232	74 1e		 je	 SHORT $LN100@Assign_cou

; 1712 :             _Al.deallocate(_Myfirst, static_cast<size_type>(_Myend - _Myfirst));

  00234	52		 push	 edx
  00235	51		 push	 ecx
  00236	8d 4e fc	 lea	 ecx, DWORD PTR [esi-4]
  00239	e8 00 00 00 00	 call	 ?deallocate@?$allocator@H@std@@QAEXQAHI@Z ; std::allocator<int>::deallocate

; 1713 : 
; 1714 :             _Myfirst = nullptr;

  0023e	c7 46 fc 00 00
	00 00		 mov	 DWORD PTR [esi-4], 0

; 1715 :             _Mylast  = nullptr;

  00245	c7 06 00 00 00
	00		 mov	 DWORD PTR [esi], 0

; 1716 :             _Myend   = nullptr;

  0024b	c7 46 04 00 00
	00 00		 mov	 DWORD PTR [esi+4], 0
$LN100@Assign_cou:

; 1717 :         }
; 1718 : 
; 1719 :         _Buy_raw(_Newcapacity);

  00252	ff 75 e4	 push	 DWORD PTR $T3[ebp]
  00255	8b 75 dc	 mov	 esi, DWORD PTR tv1242[ebp]
  00258	8b ce		 mov	 ecx, esi
  0025a	e8 00 00 00 00	 call	 ?_Buy_raw@?$vector@HV?$allocator@H@std@@@std@@AAEXI@Z ; std::vector<int,std::allocator<int> >::_Buy_raw

; 1436 :                 _Mylast = _STD _Uninitialized_copy_n(_STD move(_First), _Newsize, _Myfirst, _Al);

  0025f	8b 36		 mov	 esi, DWORD PTR [esi]
; File C:\Program Files\Microsoft Visual Studio\2022\Professional\VC\Tools\MSVC\14.44.35207\include\xmemory

; 1930 :             _STD _Copy_memmove_n(_UFirst, _Count, _STD _Unfancy(_Dest));

  00261	56		 push	 esi
  00262	53		 push	 ebx
  00263	ff 75 08	 push	 DWORD PTR __First$2$[ebp]
  00266	e8 00 00 00 00	 call	 ??$_Copy_memmove_n@PAHPAH@std@@YAPAHPAHI0@Z ; std::_Copy_memmove_n<int *,int *>

; 1931 :             _Dest += _Count;

  0026b	8d 04 9e	 lea	 eax, DWORD PTR [esi+ebx*4]
; File C:\Program Files\Microsoft Visual Studio\2022\Professional\VC\Tools\MSVC\14.44.35207\include\vector

; 1436 :                 _Mylast = _STD _Uninitialized_copy_n(_STD move(_First), _Newsize, _Myfirst, _Al);

  0026e	8b 75 e8	 mov	 esi, DWORD PTR tv1249[ebp]

; 1441 :             }
; 1442 :             return;

  00271	eb 47		 jmp	 SHORT $LN196@Assign_cou
$LN93@Assign_cou:

; 1443 :         }
; 1444 : 
; 1445 :         const auto _Oldsize = static_cast<size_type>(_Mylast - _Myfirst);

  00273	8b 06		 mov	 eax, DWORD PTR [esi]
  00275	2b c1		 sub	 eax, ecx
  00277	c1 f8 02	 sar	 eax, 2
  0027a	89 45 dc	 mov	 DWORD PTR __Oldsize$1$[ebp], eax

; 1446 :         if (_Newsize > _Oldsize) {

  0027d	51		 push	 ecx
  0027e	3b d8		 cmp	 ebx, eax
  00280	76 29		 jbe	 SHORT $LN94@Assign_cou

; 1447 :             bool _Copied = false;
; 1448 :             if constexpr (_Iter_copy_cat<_Iter, pointer>::_Bitcopy_assignable) {
; 1449 : #if _HAS_CXX20
; 1450 :                 if (!_STD is_constant_evaluated())
; 1451 : #endif // _HAS_CXX20
; 1452 :                 {
; 1453 :                     _Copy_memmove_n(_First, static_cast<size_t>(_Oldsize), _Myfirst);

  00282	50		 push	 eax
  00283	ff 75 08	 push	 DWORD PTR __First$2$[ebp]
  00286	e8 00 00 00 00	 call	 ??$_Copy_memmove_n@PAHPAH@std@@YAPAHPAHI0@Z ; std::_Copy_memmove_n<int *,int *>

; 1454 :                     _First += _Oldsize;

  0028b	8b 4d dc	 mov	 ecx, DWORD PTR __Oldsize$1$[ebp]

; 1467 :                 _Mylast = _STD _Uninitialized_copy_n(_STD move(_First), _Newsize - _Oldsize, _Mylast, _Al);

  0028e	2b d9		 sub	 ebx, ecx
  00290	8b 45 08	 mov	 eax, DWORD PTR __First$2$[ebp]
  00293	8b 36		 mov	 esi, DWORD PTR [esi]
; File C:\Program Files\Microsoft Visual Studio\2022\Professional\VC\Tools\MSVC\14.44.35207\include\xmemory

; 1930 :             _STD _Copy_memmove_n(_UFirst, _Count, _STD _Unfancy(_Dest));

  00295	56		 push	 esi
  00296	53		 push	 ebx
; File C:\Program Files\Microsoft Visual Studio\2022\Professional\VC\Tools\MSVC\14.44.35207\include\vector

; 1454 :                     _First += _Oldsize;

  00297	8d 04 88	 lea	 eax, DWORD PTR [eax+ecx*4]
; File C:\Program Files\Microsoft Visual Studio\2022\Professional\VC\Tools\MSVC\14.44.35207\include\xmemory

; 1930 :             _STD _Copy_memmove_n(_UFirst, _Count, _STD _Unfancy(_Dest));

  0029a	50		 push	 eax
  0029b	e8 00 00 00 00	 call	 ??$_Copy_memmove_n@PAHPAH@std@@YAPAHPAHI0@Z ; std::_Copy_memmove_n<int *,int *>

; 1931 :             _Dest += _Count;

  002a0	8d 04 9e	 lea	 eax, DWORD PTR [esi+ebx*4]
  002a3	83 c4 18	 add	 esp, 24			; 00000018H
; File C:\Program Files\Microsoft Visual Studio\2022\Professional\VC\Tools\MSVC\14.44.35207\include\vector

; 1467 :                 _Mylast = _STD _Uninitialized_copy_n(_STD move(_First), _Newsize - _Oldsize, _Mylast, _Al);

  002a6	8b 75 e8	 mov	 esi, DWORD PTR tv1249[ebp]

; 1471 :                 _ASAN_VECTOR_RELEASE_GUARD;
; 1472 :             }
; 1473 :         } else {

  002a9	eb 12		 jmp	 SHORT $LN197@Assign_cou
$LN94@Assign_cou:
; File C:\Program Files\Microsoft Visual Studio\2022\Professional\VC\Tools\MSVC\14.44.35207\include\xutility

; 4808 :             return _Copy_memmove_n(_First, static_cast<size_t>(_Count), _Dest);

  002ab	53		 push	 ebx
  002ac	ff 75 08	 push	 DWORD PTR __First$2$[ebp]
  002af	e8 00 00 00 00	 call	 ??$_Copy_memmove_n@PAHPAH@std@@YAPAHPAHI0@Z ; std::_Copy_memmove_n<int *,int *>
; File C:\Program Files\Microsoft Visual Studio\2022\Professional\VC\Tools\MSVC\14.44.35207\include\vector

; 1474 :             const pointer _Newlast = _Myfirst + _Newsize;

  002b4	8b 45 e4	 mov	 eax, DWORD PTR tv1273[ebp]
  002b7	8d 04 98	 lea	 eax, DWORD PTR [eax+ebx*4]
$LN196@Assign_cou:
; File C:\Program Files\Microsoft Visual Studio\2022\Professional\VC\Tools\MSVC\14.44.35207\include\xutility

; 4812 :     for (; _Count != 0; ++_Dest, (void) ++_First, --_Count) {

  002ba	83 c4 0c	 add	 esp, 12			; 0000000cH
$LN197@Assign_cou:
  002bd	8b 4d ec	 mov	 ecx, DWORD PTR tv1258[ebp]
  002c0	89 06		 mov	 DWORD PTR [esi], eax
$LN80@Assign_cou:
  002c2	83 c6 14	 add	 esi, 20			; 00000014H
  002c5	83 c1 14	 add	 ecx, 20			; 00000014H
  002c8	83 c7 14	 add	 edi, 20			; 00000014H
  002cb	89 75 e8	 mov	 DWORD PTR tv1249[ebp], esi
  002ce	83 6d 0c 01	 sub	 DWORD PTR __Newsize$[ebp], 1
  002d2	89 4d ec	 mov	 DWORD PTR tv1258[ebp], ecx
  002d5	0f 85 e5 fe ff
	ff		 jne	 $LL82@Assign_cou
  002db	8b 45 e0	 mov	 eax, DWORD PTR __Newlast$1$[ebp]
$LN191@Assign_cou:
; File C:\Program Files\Microsoft Visual Studio\2022\Professional\VC\Tools\MSVC\14.44.35207\include\vector

; 1476 :             _STD _Destroy_range(_Newlast, _Mylast, _Al);

  002de	8b 5d f0	 mov	 ebx, DWORD PTR _this$1$[ebp]
  002e1	8b f0		 mov	 esi, eax
  002e3	8b 7b 04	 mov	 edi, DWORD PTR [ebx+4]
; File C:\Program Files\Microsoft Visual Studio\2022\Professional\VC\Tools\MSVC\14.44.35207\include\xmemory

; 1102 :         for (; _First != _Last; ++_First) {

  002e6	3b c7		 cmp	 eax, edi
  002e8	74 18		 je	 SHORT $LN142@Assign_cou
  002ea	66 0f 1f 44 00
	00		 npad	 6
$LL143@Assign_cou:
; File C:\Program Files\Microsoft Visual Studio\2022\Professional\VC\Tools\MSVC\14.44.35207\include\vector

; 830  :         _Tidy();

  002f0	8d 4e 08	 lea	 ecx, DWORD PTR [esi+8]
  002f3	e8 00 00 00 00	 call	 ?_Tidy@?$vector@HV?$allocator@H@std@@@std@@AAEXXZ ; std::vector<int,std::allocator<int> >::_Tidy
; File C:\Program Files\Microsoft Visual Studio\2022\Professional\VC\Tools\MSVC\14.44.35207\include\xmemory

; 1102 :         for (; _First != _Last; ++_First) {

  002f8	83 c6 14	 add	 esi, 20			; 00000014H
  002fb	3b f7		 cmp	 esi, edi
  002fd	75 f1		 jne	 SHORT $LL143@Assign_cou
  002ff	8b 45 e0	 mov	 eax, DWORD PTR __Newlast$1$[ebp]
$LN142@Assign_cou:
; File C:\Program Files\Microsoft Visual Studio\2022\Professional\VC\Tools\MSVC\14.44.35207\include\vector

; 1478 :             _Mylast = _Newlast;

  00302	89 43 04	 mov	 DWORD PTR [ebx+4], eax

; 1479 :         }
; 1480 :     }

  00305	8b 4d f4	 mov	 ecx, DWORD PTR __$EHRec$[ebp]
  00308	64 89 0d 00 00
	00 00		 mov	 DWORD PTR fs:0, ecx
  0030f	59		 pop	 ecx
  00310	5f		 pop	 edi
  00311	5e		 pop	 esi
  00312	5b		 pop	 ebx
  00313	8b e5		 mov	 esp, ebp
  00315	5d		 pop	 ebp
  00316	c2 08 00	 ret	 8
$LN167@Assign_cou:

; 1704 :             _Xlength();

  00319	e8 00 00 00 00	 call	 ?_Xlength@?$vector@HV?$allocator@H@std@@@std@@CAXXZ ; std::vector<int,std::allocator<int> >::_Xlength
$LN199@Assign_cou:
  0031e	e8 00 00 00 00	 call	 ?_Xlength@?$vector@U__GEMABILITY@CUltimateWeapon@@V?$allocator@U__GEMABILITY@CUltimateWeapon@@@std@@@std@@CAXXZ ; std::vector<CUltimateWeapon::__GEMABILITY,std::allocator<CUltimateWeapon::__GEMABILITY> >::_Xlength
$LN195@Assign_cou:
  00323	cc		 int	 3
_TEXT	ENDS
;	COMDAT text$x
text$x	SEGMENT
__unwindfunclet$??$_Assign_counted_range@PAU__GEMABILITY@CUltimateWeapon@@@?$vector@U__GEMABILITY@CUltimateWeapon@@V?$allocator@U__GEMABILITY@CUltimateWeapon@@@std@@@std@@AAEXPAU__GEMABILITY@CUltimateWeapon@@I@Z$1:
  00000	8d 4d d0	 lea	 ecx, DWORD PTR __Backout$2[ebp]
  00003	e9 00 00 00 00	 jmp	 ??1?$_Uninitialized_backout_al@V?$allocator@U__GEMABILITY@CUltimateWeapon@@@std@@@std@@QAE@XZ ; std::_Uninitialized_backout_al<std::allocator<CUltimateWeapon::__GEMABILITY> >::~_Uninitialized_backout_al<std::allocator<CUltimateWeapon::__GEMABILITY> >
  00008	cc		 int	 3
  00009	cc		 int	 3
  0000a	cc		 int	 3
  0000b	cc		 int	 3
  0000c	cc		 int	 3
__ehhandler$??$_Assign_counted_range@PAU__GEMABILITY@CUltimateWeapon@@@?$vector@U__GEMABILITY@CUltimateWeapon@@V?$allocator@U__GEMABILITY@CUltimateWeapon@@@std@@@std@@AAEXPAU__GEMABILITY@CUltimateWeapon@@I@Z:
  0000d	90		 npad	 1
  0000e	90		 npad	 1
  0000f	8b 54 24 08	 mov	 edx, DWORD PTR [esp+8]
  00013	8d 42 0c	 lea	 eax, DWORD PTR [edx+12]
  00016	8b 4a cc	 mov	 ecx, DWORD PTR [edx-52]
  00019	33 c8		 xor	 ecx, eax
  0001b	e8 00 00 00 00	 call	 @__security_check_cookie@4
  00020	b8 00 00 00 00	 mov	 eax, OFFSET __ehfuncinfo$??$_Assign_counted_range@PAU__GEMABILITY@CUltimateWeapon@@@?$vector@U__GEMABILITY@CUltimateWeapon@@V?$allocator@U__GEMABILITY@CUltimateWeapon@@@std@@@std@@AAEXPAU__GEMABILITY@CUltimateWeapon@@I@Z
  00025	e9 00 00 00 00	 jmp	 ___CxxFrameHandler3
text$x	ENDS
??$_Assign_counted_range@PAU__GEMABILITY@CUltimateWeapon@@@?$vector@U__GEMABILITY@CUltimateWeapon@@V?$allocator@U__GEMABILITY@CUltimateWeapon@@@std@@@std@@AAEXPAU__GEMABILITY@CUltimateWeapon@@I@Z ENDP ; std::vector<CUltimateWeapon::__GEMABILITY,std::allocator<CUltimateWeapon::__GEMABILITY> >::_Assign_counted_range<CUltimateWeapon::__GEMABILITY *>
; Function compile flags: /Ogtp
; File C:\Program Files\Microsoft Visual Studio\2022\Professional\VC\Tools\MSVC\14.44.35207\include\xtree
; File C:\Program Files\Microsoft Visual Studio\2022\Professional\VC\Tools\MSVC\14.44.35207\include\type_traits
; File C:\Program Files\Microsoft Visual Studio\2022\Professional\VC\Tools\MSVC\14.44.35207\include\xtree
; File C:\Program Files\Microsoft Visual Studio\2022\Professional\VC\Tools\MSVC\14.44.35207\include\utility
; File C:\Program Files\Microsoft Visual Studio\2022\Professional\VC\Tools\MSVC\14.44.35207\include\xtree
; File C:\Program Files\Microsoft Visual Studio\2022\Professional\VC\Tools\MSVC\14.44.35207\include\xmemory
; File C:\Program Files\Microsoft Visual Studio\2022\Professional\VC\Tools\MSVC\14.44.35207\include\xtree
; File C:\Program Files\Microsoft Visual Studio\2022\Professional\VC\Tools\MSVC\14.44.35207\include\xmemory
; File C:\Program Files\Microsoft Visual Studio\2022\Professional\VC\Tools\MSVC\14.44.35207\include\xtree
; File C:\Program Files\Microsoft Visual Studio\2022\Professional\VC\Tools\MSVC\14.44.35207\include\xmemory
; File C:\Program Files\Microsoft Visual Studio\2022\Professional\VC\Tools\MSVC\14.44.35207\include\xtree
; File C:\Program Files\Microsoft Visual Studio\2022\Professional\VC\Tools\MSVC\14.44.35207\include\utility
; File C:\Program Files\Microsoft Visual Studio\2022\Professional\VC\Tools\MSVC\14.44.35207\include\xtree
;	COMDAT ??$insert@$0A@$0A@@?$_Tree@V?$_Tmap_traits@KHU?$less@K@std@@V?$allocator@U?$pair@$$CBKH@std@@@2@$0A@@std@@@std@@QAE?AU?$pair@V?$_Tree_iterator@V?$_Tree_val@U?$_Tree_simple_types@U?$pair@$$CBKH@std@@@std@@@std@@@std@@_N@1@$$QAU?$pair@$$CBKH@1@@Z
_TEXT	SEGMENT
__Loc$2 = -36						; size = 12
$T3 = -24						; size = 12
$T4 = -20						; size = 8
__$EHRec$ = -12						; size = 12
___$ReturnUdt$ = 8					; size = 4
__Val$ = 12						; size = 4
??$insert@$0A@$0A@@?$_Tree@V?$_Tmap_traits@KHU?$less@K@std@@V?$allocator@U?$pair@$$CBKH@std@@@2@$0A@@std@@@std@@QAE?AU?$pair@V?$_Tree_iterator@V?$_Tree_val@U?$_Tree_simple_types@U?$pair@$$CBKH@std@@@std@@@std@@@std@@_N@1@$$QAU?$pair@$$CBKH@1@@Z PROC ; std::_Tree<std::_Tmap_traits<unsigned long,int,std::less<unsigned long>,std::allocator<std::pair<unsigned long const ,int> >,0> >::insert<0,0>, COMDAT
; _this$ = ecx

; 1245 :     pair<iterator, bool> insert(value_type&& _Val) {

  00000	55		 push	 ebp
  00001	8b ec		 mov	 ebp, esp
  00003	6a ff		 push	 -1
  00005	68 00 00 00 00	 push	 __ehhandler$??$insert@$0A@$0A@@?$_Tree@V?$_Tmap_traits@KHU?$less@K@std@@V?$allocator@U?$pair@$$CBKH@std@@@2@$0A@@std@@@std@@QAE?AU?$pair@V?$_Tree_iterator@V?$_Tree_val@U?$_Tree_simple_types@U?$pair@$$CBKH@std@@@std@@@std@@@std@@_N@1@$$QAU?$pair@$$CBKH@1@@Z
  0000a	64 a1 00 00 00
	00		 mov	 eax, DWORD PTR fs:0
  00010	50		 push	 eax
  00011	83 ec 18	 sub	 esp, 24			; 00000018H
  00014	53		 push	 ebx
  00015	56		 push	 esi
  00016	57		 push	 edi
  00017	a1 00 00 00 00	 mov	 eax, DWORD PTR ___security_cookie
  0001c	33 c5		 xor	 eax, ebp
  0001e	50		 push	 eax
  0001f	8d 45 f4	 lea	 eax, DWORD PTR __$EHRec$[ebp]
  00022	64 a3 00 00 00
	00		 mov	 DWORD PTR fs:0, eax
  00028	8b f9		 mov	 edi, ecx

; 1017 :             _Loc                = _Find_lower_bound(_Keyval);

  0002a	8b 5d 0c	 mov	 ebx, DWORD PTR __Val$[ebp]
  0002d	8d 45 e8	 lea	 eax, DWORD PTR $T3[ebp]
  00030	53		 push	 ebx
  00031	50		 push	 eax
  00032	e8 00 00 00 00	 call	 ??$_Find_lower_bound@K@?$_Tree@V?$_Tmap_traits@KHU?$less@K@std@@V?$allocator@U?$pair@$$CBKH@std@@@2@$0A@@std@@@std@@IBE?AU?$_Tree_find_result@PAU?$_Tree_node@U?$pair@$$CBKH@std@@PAX@std@@@1@ABK@Z ; std::_Tree<std::_Tmap_traits<unsigned long,int,std::less<unsigned long>,std::allocator<std::pair<unsigned long const ,int> >,0> >::_Find_lower_bound<unsigned long>
  00037	8b 48 08	 mov	 ecx, DWORD PTR [eax+8]
  0003a	f3 0f 7e 00	 movq	 xmm0, QWORD PTR [eax]
  0003e	66 0f d6 45 dc	 movq	 QWORD PTR __Loc$2[ebp], xmm0

; 1624 :         return !_Bound->_Isnil && !_DEBUG_LT_PRED(_Getcomp(), _Keyval, _Traits::_Kfn(_Bound->_Myval));

  00043	80 79 0d 00	 cmp	 BYTE PTR [ecx+13], 0
  00047	75 0b		 jne	 SHORT $LN4@insert
; File C:\Program Files\Microsoft Visual Studio\2022\Professional\VC\Tools\MSVC\14.44.35207\include\type_traits

; 2380 :         return _Left < _Right;

  00049	8b 03		 mov	 eax, DWORD PTR [ebx]
  0004b	3b 41 10	 cmp	 eax, DWORD PTR [ecx+16]
; File C:\Program Files\Microsoft Visual Studio\2022\Professional\VC\Tools\MSVC\14.44.35207\include\xtree

; 1624 :         return !_Bound->_Isnil && !_DEBUG_LT_PRED(_Getcomp(), _Keyval, _Traits::_Kfn(_Bound->_Myval));

  0004e	72 04		 jb	 SHORT $LN4@insert
; File C:\Program Files\Microsoft Visual Studio\2022\Professional\VC\Tools\MSVC\14.44.35207\include\utility

; 274  :         : first(_STD forward<_Other1>(_Val1)), second(_STD forward<_Other2>(_Val2)) {

  00050	32 d2		 xor	 dl, dl
; File C:\Program Files\Microsoft Visual Studio\2022\Professional\VC\Tools\MSVC\14.44.35207\include\xtree

; 1019 :                 return {_Loc._Bound, false};

  00052	eb 51		 jmp	 SHORT $LN84@insert
$LN4@insert:

; 1648 :         if (max_size() == _Get_scary()->_Mysize) {

  00054	81 7f 04 aa aa
	aa 0a		 cmp	 DWORD PTR [edi+4], 178956970 ; 0aaaaaaaH
  0005b	74 64		 je	 SHORT $LN103@insert

; 1023 :             _Inserted = _Tree_temp_node<_Alnode>(_Getal(), _Scary->_Myhead, _STD forward<_Valtys>(_Vals)...)._Release();

  0005d	8b 37		 mov	 esi, DWORD PTR [edi]
; File C:\Program Files\Microsoft Visual Studio\2022\Professional\VC\Tools\MSVC\14.44.35207\include\xmemory

; 1160 :     _CONSTEXPR20 explicit _Alloc_construct_ptr(_Alloc& _Al_) : _Al(_Al_), _Ptr(nullptr) {}

  0005f	89 7d ec	 mov	 DWORD PTR $T4[ebp], edi

; 136  :         return ::operator new(_Bytes);

  00062	6a 18		 push	 24			; 00000018H
; File C:\Program Files\Microsoft Visual Studio\2022\Professional\VC\Tools\MSVC\14.44.35207\include\xtree

; 808  :     explicit _Tree_temp_node_alloc(_Alnode& _Al_) : _Alloc_construct_ptr<_Alnode>(_Al_) {

  00064	c7 45 fc 00 00
	00 00		 mov	 DWORD PTR __$EHRec$[ebp+8], 0
; File C:\Program Files\Microsoft Visual Studio\2022\Professional\VC\Tools\MSVC\14.44.35207\include\xmemory

; 1167 :         _Ptr = nullptr; // if allocate throws, prevents double-free

  0006b	c7 45 f0 00 00
	00 00		 mov	 DWORD PTR $T4[ebp+4], 0

; 136  :         return ::operator new(_Bytes);

  00072	e8 00 00 00 00	 call	 ??2@YAPAXI@Z		; operator new
; File C:\Program Files\Microsoft Visual Studio\2022\Professional\VC\Tools\MSVC\14.44.35207\include\xtree

; 830  :         _Alnode_traits::construct(this->_Al, _STD addressof(this->_Ptr->_Myval), _STD forward<_Valtys>(_Vals)...);

  00077	8b 0b		 mov	 ecx, DWORD PTR [ebx]
; File C:\Program Files\Microsoft Visual Studio\2022\Professional\VC\Tools\MSVC\14.44.35207\include\xmemory

; 136  :         return ::operator new(_Bytes);

  00079	83 c4 04	 add	 esp, 4
; File C:\Program Files\Microsoft Visual Studio\2022\Professional\VC\Tools\MSVC\14.44.35207\include\xtree

; 830  :         _Alnode_traits::construct(this->_Al, _STD addressof(this->_Ptr->_Myval), _STD forward<_Valtys>(_Vals)...);

  0007c	8b 53 04	 mov	 edx, DWORD PTR [ebx+4]
  0007f	89 48 10	 mov	 DWORD PTR [eax+16], ecx

; 1042 :         return {_Scary->_Insert_node(_Loc._Location, _Inserted), true};

  00082	8b cf		 mov	 ecx, edi
  00084	50		 push	 eax
  00085	ff 75 e0	 push	 DWORD PTR __Loc$2[ebp+4]

; 830  :         _Alnode_traits::construct(this->_Al, _STD addressof(this->_Ptr->_Myval), _STD forward<_Valtys>(_Vals)...);

  00088	89 50 14	 mov	 DWORD PTR [eax+20], edx

; 1042 :         return {_Scary->_Insert_node(_Loc._Location, _Inserted), true};

  0008b	ff 75 dc	 push	 DWORD PTR __Loc$2[ebp]

; 831  :         _Construct_in_place(this->_Ptr->_Left, _Myhead);

  0008e	89 30		 mov	 DWORD PTR [eax], esi

; 832  :         _Construct_in_place(this->_Ptr->_Parent, _Myhead);

  00090	89 70 04	 mov	 DWORD PTR [eax+4], esi

; 833  :         _Construct_in_place(this->_Ptr->_Right, _Myhead);

  00093	89 70 08	 mov	 DWORD PTR [eax+8], esi

; 834  :         this->_Ptr->_Color = _Red;

  00096	66 c7 40 0c 00
	00		 mov	 WORD PTR [eax+12], 0

; 1042 :         return {_Scary->_Insert_node(_Loc._Location, _Inserted), true};

  0009c	e8 00 00 00 00	 call	 ?_Insert_node@?$_Tree_val@U?$_Tree_simple_types@U?$pair@$$CBKH@std@@@std@@@std@@QAEPAU?$_Tree_node@U?$pair@$$CBKH@std@@PAX@2@U?$_Tree_id@PAU?$_Tree_node@U?$pair@$$CBKH@std@@PAX@std@@@2@QAU32@@Z ; std::_Tree_val<std::_Tree_simple_types<std::pair<unsigned long const ,int> > >::_Insert_node
; File C:\Program Files\Microsoft Visual Studio\2022\Professional\VC\Tools\MSVC\14.44.35207\include\utility

; 274  :         : first(_STD forward<_Other1>(_Val1)), second(_STD forward<_Other2>(_Val2)) {

  000a1	8b c8		 mov	 ecx, eax
  000a3	b2 01		 mov	 dl, 1
$LN84@insert:
  000a5	8b 45 08	 mov	 eax, DWORD PTR ___$ReturnUdt$[ebp]
  000a8	89 08		 mov	 DWORD PTR [eax], ecx
  000aa	88 50 04	 mov	 BYTE PTR [eax+4], dl
; File C:\Program Files\Microsoft Visual Studio\2022\Professional\VC\Tools\MSVC\14.44.35207\include\xtree

; 1248 :     }

  000ad	8b 4d f4	 mov	 ecx, DWORD PTR __$EHRec$[ebp]
  000b0	64 89 0d 00 00
	00 00		 mov	 DWORD PTR fs:0, ecx
  000b7	59		 pop	 ecx
  000b8	5f		 pop	 edi
  000b9	5e		 pop	 esi
  000ba	5b		 pop	 ebx
  000bb	8b e5		 mov	 esp, ebp
  000bd	5d		 pop	 ebp
  000be	c2 08 00	 ret	 8
$LN103@insert:

; 1649 :             _Throw_tree_length_error();

  000c1	e8 00 00 00 00	 call	 ?_Throw_tree_length_error@std@@YAXXZ ; std::_Throw_tree_length_error
$LN101@insert:
  000c6	cc		 int	 3
_TEXT	ENDS
;	COMDAT text$x
text$x	SEGMENT
__unwindfunclet$??$insert@$0A@$0A@@?$_Tree@V?$_Tmap_traits@KHU?$less@K@std@@V?$allocator@U?$pair@$$CBKH@std@@@2@$0A@@std@@@std@@QAE?AU?$pair@V?$_Tree_iterator@V?$_Tree_val@U?$_Tree_simple_types@U?$pair@$$CBKH@std@@@std@@@std@@@std@@_N@1@$$QAU?$pair@$$CBKH@1@@Z$2:
  00000	8d 4d ec	 lea	 ecx, DWORD PTR $T4[ebp]
  00003	e9 00 00 00 00	 jmp	 ??1?$_Alloc_construct_ptr@V?$allocator@U?$_Tree_node@U?$pair@$$CBKH@std@@PAX@std@@@std@@@std@@QAE@XZ ; std::_Alloc_construct_ptr<std::allocator<std::_Tree_node<std::pair<unsigned long const ,int>,void *> > >::~_Alloc_construct_ptr<std::allocator<std::_Tree_node<std::pair<unsigned long const ,int>,void *> > >
  00008	cc		 int	 3
  00009	cc		 int	 3
  0000a	cc		 int	 3
  0000b	cc		 int	 3
  0000c	cc		 int	 3
__ehhandler$??$insert@$0A@$0A@@?$_Tree@V?$_Tmap_traits@KHU?$less@K@std@@V?$allocator@U?$pair@$$CBKH@std@@@2@$0A@@std@@@std@@QAE?AU?$pair@V?$_Tree_iterator@V?$_Tree_val@U?$_Tree_simple_types@U?$pair@$$CBKH@std@@@std@@@std@@@std@@_N@1@$$QAU?$pair@$$CBKH@1@@Z:
  0000d	90		 npad	 1
  0000e	90		 npad	 1
  0000f	8b 54 24 08	 mov	 edx, DWORD PTR [esp+8]
  00013	8d 42 0c	 lea	 eax, DWORD PTR [edx+12]
  00016	8b 4a d8	 mov	 ecx, DWORD PTR [edx-40]
  00019	33 c8		 xor	 ecx, eax
  0001b	e8 00 00 00 00	 call	 @__security_check_cookie@4
  00020	b8 00 00 00 00	 mov	 eax, OFFSET __ehfuncinfo$??$insert@$0A@$0A@@?$_Tree@V?$_Tmap_traits@KHU?$less@K@std@@V?$allocator@U?$pair@$$CBKH@std@@@2@$0A@@std@@@std@@QAE?AU?$pair@V?$_Tree_iterator@V?$_Tree_val@U?$_Tree_simple_types@U?$pair@$$CBKH@std@@@std@@@std@@@std@@_N@1@$$QAU?$pair@$$CBKH@1@@Z
  00025	e9 00 00 00 00	 jmp	 ___CxxFrameHandler3
text$x	ENDS
??$insert@$0A@$0A@@?$_Tree@V?$_Tmap_traits@KHU?$less@K@std@@V?$allocator@U?$pair@$$CBKH@std@@@2@$0A@@std@@@std@@QAE?AU?$pair@V?$_Tree_iterator@V?$_Tree_val@U?$_Tree_simple_types@U?$pair@$$CBKH@std@@@std@@@std@@@std@@_N@1@$$QAU?$pair@$$CBKH@1@@Z ENDP ; std::_Tree<std::_Tmap_traits<unsigned long,int,std::less<unsigned long>,std::allocator<std::pair<unsigned long const ,int> >,0> >::insert<0,0>
; Function compile flags: /Ogtp
; File C:\Program Files\Microsoft Visual Studio\2022\Professional\VC\Tools\MSVC\14.44.35207\include\xtree
;	COMDAT ??E?$_Tree_const_iterator@V?$_Tree_val@U?$_Tree_simple_types@U?$pair@$$CBKH@std@@@std@@@std@@@std@@QAEAAV01@XZ
_TEXT	SEGMENT
??E?$_Tree_const_iterator@V?$_Tree_val@U?$_Tree_simple_types@U?$pair@$$CBKH@std@@@std@@@std@@@std@@QAEAAV01@XZ PROC ; std::_Tree_const_iterator<std::_Tree_val<std::_Tree_simple_types<std::pair<unsigned long const ,int> > > >::operator++, COMDAT
; _this$ = ecx

; 192  :     _Tree_const_iterator& operator++() noexcept {

  00000	56		 push	 esi
  00001	8b f1		 mov	 esi, ecx
  00003	57		 push	 edi

; 50   :         if (_Ptr->_Right->_Isnil) { // climb looking for right subtree

  00004	8b 16		 mov	 edx, DWORD PTR [esi]
  00006	8b 7a 08	 mov	 edi, DWORD PTR [edx+8]
  00009	80 7f 0d 00	 cmp	 BYTE PTR [edi+13], 0
  0000d	74 22		 je	 SHORT $LN7@operator

; 51   :             _Nodeptr _Pnode;
; 52   :             while (!(_Pnode = _Ptr->_Parent)->_Isnil && _Ptr == _Pnode->_Right) {

  0000f	8b 42 04	 mov	 eax, DWORD PTR [edx+4]
  00012	80 78 0d 00	 cmp	 BYTE PTR [eax+13], 0
  00016	75 12		 jne	 SHORT $LN24@operator
$LL5@operator:
  00018	3b 50 08	 cmp	 edx, DWORD PTR [eax+8]
  0001b	75 0d		 jne	 SHORT $LN24@operator

; 53   :                 _Ptr = _Pnode; // ==> parent while right subtree

  0001d	89 06		 mov	 DWORD PTR [esi], eax
  0001f	8b d0		 mov	 edx, eax
  00021	8b 40 04	 mov	 eax, DWORD PTR [eax+4]
  00024	80 78 0d 00	 cmp	 BYTE PTR [eax+13], 0
  00028	74 ee		 je	 SHORT $LL5@operator
$LN24@operator:

; 193  : #if _ITERATOR_DEBUG_LEVEL == 2
; 194  :         _STL_VERIFY(this->_Getcont(), "cannot increment value-initialized map/set iterator");
; 195  :         _STL_VERIFY(!this->_Ptr->_Isnil, "cannot increment end map/set iterator");
; 196  : #endif // _ITERATOR_DEBUG_LEVEL == 2
; 197  : 
; 198  :         _Mybase::operator++();
; 199  :         return *this;

  0002a	89 06		 mov	 DWORD PTR [esi], eax

; 200  :     }

  0002c	8b c6		 mov	 eax, esi
  0002e	5f		 pop	 edi
  0002f	5e		 pop	 esi
  00030	c3		 ret	 0
$LN7@operator:

; 476  :         while (!_Pnode->_Left->_Isnil) {

  00031	8b 0f		 mov	 ecx, DWORD PTR [edi]
  00033	80 79 0d 00	 cmp	 BYTE PTR [ecx+13], 0
  00037	75 13		 jne	 SHORT $LN13@operator
  00039	0f 1f 80 00 00
	00 00		 npad	 7
$LL12@operator:
  00040	8b 01		 mov	 eax, DWORD PTR [ecx]

; 477  :             _Pnode = _Pnode->_Left;

  00042	8b f9		 mov	 edi, ecx
  00044	8b c8		 mov	 ecx, eax
  00046	80 78 0d 00	 cmp	 BYTE PTR [eax+13], 0
  0004a	74 f4		 je	 SHORT $LL12@operator
$LN13@operator:

; 193  : #if _ITERATOR_DEBUG_LEVEL == 2
; 194  :         _STL_VERIFY(this->_Getcont(), "cannot increment value-initialized map/set iterator");
; 195  :         _STL_VERIFY(!this->_Ptr->_Isnil, "cannot increment end map/set iterator");
; 196  : #endif // _ITERATOR_DEBUG_LEVEL == 2
; 197  : 
; 198  :         _Mybase::operator++();
; 199  :         return *this;

  0004c	89 3e		 mov	 DWORD PTR [esi], edi

; 200  :     }

  0004e	8b c6		 mov	 eax, esi
  00050	5f		 pop	 edi
  00051	5e		 pop	 esi
  00052	c3		 ret	 0
??E?$_Tree_const_iterator@V?$_Tree_val@U?$_Tree_simple_types@U?$pair@$$CBKH@std@@@std@@@std@@@std@@QAEAAV01@XZ ENDP ; std::_Tree_const_iterator<std::_Tree_val<std::_Tree_simple_types<std::pair<unsigned long const ,int> > > >::operator++
_TEXT	ENDS
; Function compile flags: /Ogtp
; File C:\Program Files\Microsoft Visual Studio\2022\Professional\VC\Tools\MSVC\14.44.35207\include\xtree
; File C:\Program Files\Microsoft Visual Studio\2022\Professional\VC\Tools\MSVC\14.44.35207\include\type_traits
; File C:\Program Files\Microsoft Visual Studio\2022\Professional\VC\Tools\MSVC\14.44.35207\include\xtree
; File C:\Program Files\Microsoft Visual Studio\2022\Professional\VC\Tools\MSVC\14.44.35207\include\utility
; File C:\Program Files\Microsoft Visual Studio\2022\Professional\VC\Tools\MSVC\14.44.35207\include\xtree
; File C:\Program Files\Microsoft Visual Studio\2022\Professional\VC\Tools\MSVC\14.44.35207\include\xmemory
; File C:\Program Files\Microsoft Visual Studio\2022\Professional\VC\Tools\MSVC\14.44.35207\include\xtree
; File C:\Program Files\Microsoft Visual Studio\2022\Professional\VC\Tools\MSVC\14.44.35207\include\xmemory
; File C:\Program Files\Microsoft Visual Studio\2022\Professional\VC\Tools\MSVC\14.44.35207\include\xtree
; File C:\Program Files\Microsoft Visual Studio\2022\Professional\VC\Tools\MSVC\14.44.35207\include\xmemory
; File C:\Program Files\Microsoft Visual Studio\2022\Professional\VC\Tools\MSVC\14.44.35207\include\xtree
; File C:\Program Files\Microsoft Visual Studio\2022\Professional\VC\Tools\MSVC\14.44.35207\include\utility
; File C:\Program Files\Microsoft Visual Studio\2022\Professional\VC\Tools\MSVC\14.44.35207\include\xtree
;	COMDAT ??$insert@$0A@$0A@@?$_Tree@V?$_Tmap_traits@HHU?$less@H@std@@V?$allocator@U?$pair@$$CBHH@std@@@2@$0A@@std@@@std@@QAE?AU?$pair@V?$_Tree_iterator@V?$_Tree_val@U?$_Tree_simple_types@U?$pair@$$CBHH@std@@@std@@@std@@@std@@_N@1@$$QAU?$pair@$$CBHH@1@@Z
_TEXT	SEGMENT
__Loc$2 = -36						; size = 12
$T3 = -24						; size = 12
$T4 = -20						; size = 8
__$EHRec$ = -12						; size = 12
___$ReturnUdt$ = 8					; size = 4
__Val$ = 12						; size = 4
??$insert@$0A@$0A@@?$_Tree@V?$_Tmap_traits@HHU?$less@H@std@@V?$allocator@U?$pair@$$CBHH@std@@@2@$0A@@std@@@std@@QAE?AU?$pair@V?$_Tree_iterator@V?$_Tree_val@U?$_Tree_simple_types@U?$pair@$$CBHH@std@@@std@@@std@@@std@@_N@1@$$QAU?$pair@$$CBHH@1@@Z PROC ; std::_Tree<std::_Tmap_traits<int,int,std::less<int>,std::allocator<std::pair<int const ,int> >,0> >::insert<0,0>, COMDAT
; _this$ = ecx

; 1245 :     pair<iterator, bool> insert(value_type&& _Val) {

  00000	55		 push	 ebp
  00001	8b ec		 mov	 ebp, esp
  00003	6a ff		 push	 -1
  00005	68 00 00 00 00	 push	 __ehhandler$??$insert@$0A@$0A@@?$_Tree@V?$_Tmap_traits@HHU?$less@H@std@@V?$allocator@U?$pair@$$CBHH@std@@@2@$0A@@std@@@std@@QAE?AU?$pair@V?$_Tree_iterator@V?$_Tree_val@U?$_Tree_simple_types@U?$pair@$$CBHH@std@@@std@@@std@@@std@@_N@1@$$QAU?$pair@$$CBHH@1@@Z
  0000a	64 a1 00 00 00
	00		 mov	 eax, DWORD PTR fs:0
  00010	50		 push	 eax
  00011	83 ec 18	 sub	 esp, 24			; 00000018H
  00014	53		 push	 ebx
  00015	56		 push	 esi
  00016	57		 push	 edi
  00017	a1 00 00 00 00	 mov	 eax, DWORD PTR ___security_cookie
  0001c	33 c5		 xor	 eax, ebp
  0001e	50		 push	 eax
  0001f	8d 45 f4	 lea	 eax, DWORD PTR __$EHRec$[ebp]
  00022	64 a3 00 00 00
	00		 mov	 DWORD PTR fs:0, eax
  00028	8b f9		 mov	 edi, ecx

; 1017 :             _Loc                = _Find_lower_bound(_Keyval);

  0002a	8b 5d 0c	 mov	 ebx, DWORD PTR __Val$[ebp]
  0002d	8d 45 e8	 lea	 eax, DWORD PTR $T3[ebp]
  00030	53		 push	 ebx
  00031	50		 push	 eax
  00032	e8 00 00 00 00	 call	 ??$_Find_lower_bound@H@?$_Tree@V?$_Tmap_traits@HHU?$less@H@std@@V?$allocator@U?$pair@$$CBHH@std@@@2@$0A@@std@@@std@@IBE?AU?$_Tree_find_result@PAU?$_Tree_node@U?$pair@$$CBHH@std@@PAX@std@@@1@ABH@Z ; std::_Tree<std::_Tmap_traits<int,int,std::less<int>,std::allocator<std::pair<int const ,int> >,0> >::_Find_lower_bound<int>
  00037	8b 48 08	 mov	 ecx, DWORD PTR [eax+8]
  0003a	f3 0f 7e 00	 movq	 xmm0, QWORD PTR [eax]
  0003e	66 0f d6 45 dc	 movq	 QWORD PTR __Loc$2[ebp], xmm0

; 1624 :         return !_Bound->_Isnil && !_DEBUG_LT_PRED(_Getcomp(), _Keyval, _Traits::_Kfn(_Bound->_Myval));

  00043	80 79 0d 00	 cmp	 BYTE PTR [ecx+13], 0
  00047	75 0b		 jne	 SHORT $LN4@insert
; File C:\Program Files\Microsoft Visual Studio\2022\Professional\VC\Tools\MSVC\14.44.35207\include\type_traits

; 2380 :         return _Left < _Right;

  00049	8b 03		 mov	 eax, DWORD PTR [ebx]
  0004b	3b 41 10	 cmp	 eax, DWORD PTR [ecx+16]
; File C:\Program Files\Microsoft Visual Studio\2022\Professional\VC\Tools\MSVC\14.44.35207\include\xtree

; 1624 :         return !_Bound->_Isnil && !_DEBUG_LT_PRED(_Getcomp(), _Keyval, _Traits::_Kfn(_Bound->_Myval));

  0004e	7c 04		 jl	 SHORT $LN4@insert
; File C:\Program Files\Microsoft Visual Studio\2022\Professional\VC\Tools\MSVC\14.44.35207\include\utility

; 274  :         : first(_STD forward<_Other1>(_Val1)), second(_STD forward<_Other2>(_Val2)) {

  00050	32 d2		 xor	 dl, dl
; File C:\Program Files\Microsoft Visual Studio\2022\Professional\VC\Tools\MSVC\14.44.35207\include\xtree

; 1019 :                 return {_Loc._Bound, false};

  00052	eb 51		 jmp	 SHORT $LN84@insert
$LN4@insert:

; 1648 :         if (max_size() == _Get_scary()->_Mysize) {

  00054	81 7f 04 aa aa
	aa 0a		 cmp	 DWORD PTR [edi+4], 178956970 ; 0aaaaaaaH
  0005b	74 64		 je	 SHORT $LN103@insert

; 1023 :             _Inserted = _Tree_temp_node<_Alnode>(_Getal(), _Scary->_Myhead, _STD forward<_Valtys>(_Vals)...)._Release();

  0005d	8b 37		 mov	 esi, DWORD PTR [edi]
; File C:\Program Files\Microsoft Visual Studio\2022\Professional\VC\Tools\MSVC\14.44.35207\include\xmemory

; 1160 :     _CONSTEXPR20 explicit _Alloc_construct_ptr(_Alloc& _Al_) : _Al(_Al_), _Ptr(nullptr) {}

  0005f	89 7d ec	 mov	 DWORD PTR $T4[ebp], edi

; 136  :         return ::operator new(_Bytes);

  00062	6a 18		 push	 24			; 00000018H
; File C:\Program Files\Microsoft Visual Studio\2022\Professional\VC\Tools\MSVC\14.44.35207\include\xtree

; 808  :     explicit _Tree_temp_node_alloc(_Alnode& _Al_) : _Alloc_construct_ptr<_Alnode>(_Al_) {

  00064	c7 45 fc 00 00
	00 00		 mov	 DWORD PTR __$EHRec$[ebp+8], 0
; File C:\Program Files\Microsoft Visual Studio\2022\Professional\VC\Tools\MSVC\14.44.35207\include\xmemory

; 1167 :         _Ptr = nullptr; // if allocate throws, prevents double-free

  0006b	c7 45 f0 00 00
	00 00		 mov	 DWORD PTR $T4[ebp+4], 0

; 136  :         return ::operator new(_Bytes);

  00072	e8 00 00 00 00	 call	 ??2@YAPAXI@Z		; operator new
; File C:\Program Files\Microsoft Visual Studio\2022\Professional\VC\Tools\MSVC\14.44.35207\include\xtree

; 830  :         _Alnode_traits::construct(this->_Al, _STD addressof(this->_Ptr->_Myval), _STD forward<_Valtys>(_Vals)...);

  00077	8b 0b		 mov	 ecx, DWORD PTR [ebx]
; File C:\Program Files\Microsoft Visual Studio\2022\Professional\VC\Tools\MSVC\14.44.35207\include\xmemory

; 136  :         return ::operator new(_Bytes);

  00079	83 c4 04	 add	 esp, 4
; File C:\Program Files\Microsoft Visual Studio\2022\Professional\VC\Tools\MSVC\14.44.35207\include\xtree

; 830  :         _Alnode_traits::construct(this->_Al, _STD addressof(this->_Ptr->_Myval), _STD forward<_Valtys>(_Vals)...);

  0007c	8b 53 04	 mov	 edx, DWORD PTR [ebx+4]
  0007f	89 48 10	 mov	 DWORD PTR [eax+16], ecx

; 1042 :         return {_Scary->_Insert_node(_Loc._Location, _Inserted), true};

  00082	8b cf		 mov	 ecx, edi
  00084	50		 push	 eax
  00085	ff 75 e0	 push	 DWORD PTR __Loc$2[ebp+4]

; 830  :         _Alnode_traits::construct(this->_Al, _STD addressof(this->_Ptr->_Myval), _STD forward<_Valtys>(_Vals)...);

  00088	89 50 14	 mov	 DWORD PTR [eax+20], edx

; 1042 :         return {_Scary->_Insert_node(_Loc._Location, _Inserted), true};

  0008b	ff 75 dc	 push	 DWORD PTR __Loc$2[ebp]

; 831  :         _Construct_in_place(this->_Ptr->_Left, _Myhead);

  0008e	89 30		 mov	 DWORD PTR [eax], esi

; 832  :         _Construct_in_place(this->_Ptr->_Parent, _Myhead);

  00090	89 70 04	 mov	 DWORD PTR [eax+4], esi

; 833  :         _Construct_in_place(this->_Ptr->_Right, _Myhead);

  00093	89 70 08	 mov	 DWORD PTR [eax+8], esi

; 834  :         this->_Ptr->_Color = _Red;

  00096	66 c7 40 0c 00
	00		 mov	 WORD PTR [eax+12], 0

; 1042 :         return {_Scary->_Insert_node(_Loc._Location, _Inserted), true};

  0009c	e8 00 00 00 00	 call	 ?_Insert_node@?$_Tree_val@U?$_Tree_simple_types@U?$pair@$$CBHH@std@@@std@@@std@@QAEPAU?$_Tree_node@U?$pair@$$CBHH@std@@PAX@2@U?$_Tree_id@PAU?$_Tree_node@U?$pair@$$CBHH@std@@PAX@std@@@2@QAU32@@Z ; std::_Tree_val<std::_Tree_simple_types<std::pair<int const ,int> > >::_Insert_node
; File C:\Program Files\Microsoft Visual Studio\2022\Professional\VC\Tools\MSVC\14.44.35207\include\utility

; 274  :         : first(_STD forward<_Other1>(_Val1)), second(_STD forward<_Other2>(_Val2)) {

  000a1	8b c8		 mov	 ecx, eax
  000a3	b2 01		 mov	 dl, 1
$LN84@insert:
  000a5	8b 45 08	 mov	 eax, DWORD PTR ___$ReturnUdt$[ebp]
  000a8	89 08		 mov	 DWORD PTR [eax], ecx
  000aa	88 50 04	 mov	 BYTE PTR [eax+4], dl
; File C:\Program Files\Microsoft Visual Studio\2022\Professional\VC\Tools\MSVC\14.44.35207\include\xtree

; 1248 :     }

  000ad	8b 4d f4	 mov	 ecx, DWORD PTR __$EHRec$[ebp]
  000b0	64 89 0d 00 00
	00 00		 mov	 DWORD PTR fs:0, ecx
  000b7	59		 pop	 ecx
  000b8	5f		 pop	 edi
  000b9	5e		 pop	 esi
  000ba	5b		 pop	 ebx
  000bb	8b e5		 mov	 esp, ebp
  000bd	5d		 pop	 ebp
  000be	c2 08 00	 ret	 8
$LN103@insert:

; 1649 :             _Throw_tree_length_error();

  000c1	e8 00 00 00 00	 call	 ?_Throw_tree_length_error@std@@YAXXZ ; std::_Throw_tree_length_error
$LN101@insert:
  000c6	cc		 int	 3
_TEXT	ENDS
;	COMDAT text$x
text$x	SEGMENT
__unwindfunclet$??$insert@$0A@$0A@@?$_Tree@V?$_Tmap_traits@HHU?$less@H@std@@V?$allocator@U?$pair@$$CBHH@std@@@2@$0A@@std@@@std@@QAE?AU?$pair@V?$_Tree_iterator@V?$_Tree_val@U?$_Tree_simple_types@U?$pair@$$CBHH@std@@@std@@@std@@@std@@_N@1@$$QAU?$pair@$$CBHH@1@@Z$2:
  00000	8d 4d ec	 lea	 ecx, DWORD PTR $T4[ebp]
  00003	e9 00 00 00 00	 jmp	 ??1?$_Alloc_construct_ptr@V?$allocator@U?$_Tree_node@U?$pair@$$CBHH@std@@PAX@std@@@std@@@std@@QAE@XZ ; std::_Alloc_construct_ptr<std::allocator<std::_Tree_node<std::pair<int const ,int>,void *> > >::~_Alloc_construct_ptr<std::allocator<std::_Tree_node<std::pair<int const ,int>,void *> > >
  00008	cc		 int	 3
  00009	cc		 int	 3
  0000a	cc		 int	 3
  0000b	cc		 int	 3
  0000c	cc		 int	 3
__ehhandler$??$insert@$0A@$0A@@?$_Tree@V?$_Tmap_traits@HHU?$less@H@std@@V?$allocator@U?$pair@$$CBHH@std@@@2@$0A@@std@@@std@@QAE?AU?$pair@V?$_Tree_iterator@V?$_Tree_val@U?$_Tree_simple_types@U?$pair@$$CBHH@std@@@std@@@std@@@std@@_N@1@$$QAU?$pair@$$CBHH@1@@Z:
  0000d	90		 npad	 1
  0000e	90		 npad	 1
  0000f	8b 54 24 08	 mov	 edx, DWORD PTR [esp+8]
  00013	8d 42 0c	 lea	 eax, DWORD PTR [edx+12]
  00016	8b 4a d8	 mov	 ecx, DWORD PTR [edx-40]
  00019	33 c8		 xor	 ecx, eax
  0001b	e8 00 00 00 00	 call	 @__security_check_cookie@4
  00020	b8 00 00 00 00	 mov	 eax, OFFSET __ehfuncinfo$??$insert@$0A@$0A@@?$_Tree@V?$_Tmap_traits@HHU?$less@H@std@@V?$allocator@U?$pair@$$CBHH@std@@@2@$0A@@std@@@std@@QAE?AU?$pair@V?$_Tree_iterator@V?$_Tree_val@U?$_Tree_simple_types@U?$pair@$$CBHH@std@@@std@@@std@@@std@@_N@1@$$QAU?$pair@$$CBHH@1@@Z
  00025	e9 00 00 00 00	 jmp	 ___CxxFrameHandler3
text$x	ENDS
??$insert@$0A@$0A@@?$_Tree@V?$_Tmap_traits@HHU?$less@H@std@@V?$allocator@U?$pair@$$CBHH@std@@@2@$0A@@std@@@std@@QAE?AU?$pair@V?$_Tree_iterator@V?$_Tree_val@U?$_Tree_simple_types@U?$pair@$$CBHH@std@@@std@@@std@@@std@@_N@1@$$QAU?$pair@$$CBHH@1@@Z ENDP ; std::_Tree<std::_Tmap_traits<int,int,std::less<int>,std::allocator<std::pair<int const ,int> >,0> >::insert<0,0>
; Function compile flags: /Ogtp
; File C:\Program Files\Microsoft Visual Studio\2022\Professional\VC\Tools\MSVC\14.44.35207\include\xmemory
;	COMDAT ??$_Allocate_manually_vector_aligned@U_Default_allocate_traits@std@@@std@@YAPAXI@Z
_TEXT	SEGMENT
__Bytes$ = 8						; size = 4
??$_Allocate_manually_vector_aligned@U_Default_allocate_traits@std@@@std@@YAPAXI@Z PROC ; std::_Allocate_manually_vector_aligned<std::_Default_allocate_traits>, COMDAT

; 182  : __declspec(allocator) void* _Allocate_manually_vector_aligned(const size_t _Bytes) {

  00000	55		 push	 ebp
  00001	8b ec		 mov	 ebp, esp

; 183  :     // allocate _Bytes manually aligned to at least _Big_allocation_alignment
; 184  :     const size_t _Block_size = _Non_user_size + _Bytes;

  00003	8b 45 08	 mov	 eax, DWORD PTR __Bytes$[ebp]
  00006	8d 48 23	 lea	 ecx, DWORD PTR [eax+35]

; 185  :     if (_Block_size <= _Bytes) {

  00009	3b c8		 cmp	 ecx, eax
  0000b	0f 86 00 00 00
	00		 jbe	 ?_Throw_bad_array_new_length@std@@YAXXZ ; std::_Throw_bad_array_new_length

; 136  :         return ::operator new(_Bytes);

  00011	51		 push	 ecx
  00012	e8 00 00 00 00	 call	 ??2@YAPAXI@Z		; operator new

; 186  :         _Throw_bad_array_new_length(); // add overflow
; 187  :     }
; 188  : 
; 189  :     const uintptr_t _Ptr_container = reinterpret_cast<uintptr_t>(_Traits::_Allocate(_Block_size));

  00017	8b c8		 mov	 ecx, eax

; 136  :         return ::operator new(_Bytes);

  00019	83 c4 04	 add	 esp, 4

; 190  :     _STL_VERIFY(_Ptr_container != 0, "invalid argument"); // validate even in release since we're doing p[-1]

  0001c	85 c9		 test	 ecx, ecx
  0001e	74 0b		 je	 SHORT $LN9@Allocate_m

; 191  :     void* const _Ptr = reinterpret_cast<void*>((_Ptr_container + _Non_user_size) & ~(_Big_allocation_alignment - 1));

  00020	8d 41 23	 lea	 eax, DWORD PTR [ecx+35]
  00023	83 e0 e0	 and	 eax, -32		; ffffffe0H

; 192  :     static_cast<uintptr_t*>(_Ptr)[-1] = _Ptr_container;

  00026	89 48 fc	 mov	 DWORD PTR [eax-4], ecx

; 193  : 
; 194  : #ifdef _DEBUG
; 195  :     static_cast<uintptr_t*>(_Ptr)[-2] = _Big_allocation_sentinel;
; 196  : #endif // defined(_DEBUG)
; 197  :     return _Ptr;
; 198  : }

  00029	5d		 pop	 ebp
  0002a	c3		 ret	 0
$LN9@Allocate_m:

; 190  :     _STL_VERIFY(_Ptr_container != 0, "invalid argument"); // validate even in release since we're doing p[-1]

  0002b	6a 00		 push	 0
  0002d	6a 00		 push	 0
  0002f	6a 00		 push	 0
  00031	6a 00		 push	 0
  00033	6a 00		 push	 0
  00035	e8 00 00 00 00	 call	 __invoke_watson
$LN7@Allocate_m:
  0003a	cc		 int	 3
??$_Allocate_manually_vector_aligned@U_Default_allocate_traits@std@@@std@@YAPAXI@Z ENDP ; std::_Allocate_manually_vector_aligned<std::_Default_allocate_traits>
_TEXT	ENDS
; Function compile flags: /Ogtp
; File C:\Program Files\Microsoft Visual Studio\2022\Professional\VC\Tools\MSVC\14.44.35207\include\xtree
; File C:\Program Files\Microsoft Visual Studio\2022\Professional\VC\Tools\MSVC\14.44.35207\include\utility
; File C:\Program Files\Microsoft Visual Studio\2022\Professional\VC\Tools\MSVC\14.44.35207\include\xmemory
; File C:\Program Files\Microsoft Visual Studio\2022\Professional\VC\Tools\MSVC\14.44.35207\include\xtree
;	COMDAT ??$_Erase_tree@V?$allocator@U?$_Tree_node@U?$pair@$$CBHH@std@@PAX@std@@@std@@@?$_Tree_val@U?$_Tree_simple_types@U?$pair@$$CBHH@std@@@std@@@std@@QAEXAAV?$allocator@U?$_Tree_node@U?$pair@$$CBHH@std@@PAX@std@@@1@PAU?$_Tree_node@U?$pair@$$CBHH@std@@PAX@1@@Z
_TEXT	SEGMENT
__Al$ = 8						; size = 4
__Rootnode$ = 12					; size = 4
??$_Erase_tree@V?$allocator@U?$_Tree_node@U?$pair@$$CBHH@std@@PAX@std@@@std@@@?$_Tree_val@U?$_Tree_simple_types@U?$pair@$$CBHH@std@@@std@@@std@@QAEXAAV?$allocator@U?$_Tree_node@U?$pair@$$CBHH@std@@PAX@std@@@1@PAU?$_Tree_node@U?$pair@$$CBHH@std@@PAX@1@@Z PROC ; std::_Tree_val<std::_Tree_simple_types<std::pair<int const ,int> > >::_Erase_tree<std::allocator<std::_Tree_node<std::pair<int const ,int>,void *> > >, COMDAT
; _this$ = ecx

; 767  :     void _Erase_tree(_Alnode& _Al, _Nodeptr _Rootnode) noexcept {

  00000	55		 push	 ebp
  00001	8b ec		 mov	 ebp, esp
  00003	53		 push	 ebx
  00004	56		 push	 esi

; 768  :         while (!_Rootnode->_Isnil) { // free subtrees, then node

  00005	8b 75 0c	 mov	 esi, DWORD PTR __Rootnode$[ebp]
  00008	8b d9		 mov	 ebx, ecx
  0000a	80 7e 0d 00	 cmp	 BYTE PTR [esi+13], 0
  0000e	75 25		 jne	 SHORT $LN34@Erase_tree
  00010	57		 push	 edi
  00011	8b 7d 08	 mov	 edi, DWORD PTR __Al$[ebp]
$LL2@Erase_tree:

; 769  :             _Erase_tree(_Al, _Rootnode->_Right);

  00014	ff 76 08	 push	 DWORD PTR [esi+8]
  00017	8b cb		 mov	 ecx, ebx
  00019	57		 push	 edi
  0001a	e8 00 00 00 00	 call	 ??$_Erase_tree@V?$allocator@U?$_Tree_node@U?$pair@$$CBHH@std@@PAX@std@@@std@@@?$_Tree_val@U?$_Tree_simple_types@U?$pair@$$CBHH@std@@@std@@@std@@QAEXAAV?$allocator@U?$_Tree_node@U?$pair@$$CBHH@std@@PAX@std@@@1@PAU?$_Tree_node@U?$pair@$$CBHH@std@@PAX@1@@Z ; std::_Tree_val<std::_Tree_simple_types<std::pair<int const ,int> > >::_Erase_tree<std::allocator<std::_Tree_node<std::pair<int const ,int>,void *> > >
; File C:\Program Files\Microsoft Visual Studio\2022\Professional\VC\Tools\MSVC\14.44.35207\include\utility

; 773  :     _Ty _Old_val = static_cast<_Ty&&>(_Val);

  0001f	8b c6		 mov	 eax, esi

; 774  :     _Val         = static_cast<_Other&&>(_New_val);

  00021	8b 36		 mov	 esi, DWORD PTR [esi]
; File C:\Program Files\Microsoft Visual Studio\2022\Professional\VC\Tools\MSVC\14.44.35207\include\xmemory

; 289  :         ::operator delete(_Ptr, _Bytes);

  00023	6a 18		 push	 24			; 00000018H
  00025	50		 push	 eax
  00026	e8 00 00 00 00	 call	 ??3@YAXPAXI@Z		; operator delete
  0002b	83 c4 08	 add	 esp, 8
; File C:\Program Files\Microsoft Visual Studio\2022\Professional\VC\Tools\MSVC\14.44.35207\include\xtree

; 768  :         while (!_Rootnode->_Isnil) { // free subtrees, then node

  0002e	80 7e 0d 00	 cmp	 BYTE PTR [esi+13], 0
  00032	74 e0		 je	 SHORT $LL2@Erase_tree
  00034	5f		 pop	 edi
$LN34@Erase_tree:
  00035	5e		 pop	 esi

; 770  :             _Alnode::value_type::_Freenode(_Al, _STD exchange(_Rootnode, _Rootnode->_Left));
; 771  :         }
; 772  :     }

  00036	5b		 pop	 ebx
  00037	5d		 pop	 ebp
  00038	c2 08 00	 ret	 8
??$_Erase_tree@V?$allocator@U?$_Tree_node@U?$pair@$$CBHH@std@@PAX@std@@@std@@@?$_Tree_val@U?$_Tree_simple_types@U?$pair@$$CBHH@std@@@std@@@std@@QAEXAAV?$allocator@U?$_Tree_node@U?$pair@$$CBHH@std@@PAX@std@@@1@PAU?$_Tree_node@U?$pair@$$CBHH@std@@PAX@1@@Z ENDP ; std::_Tree_val<std::_Tree_simple_types<std::pair<int const ,int> > >::_Erase_tree<std::allocator<std::_Tree_node<std::pair<int const ,int>,void *> > >
_TEXT	ENDS
; Function compile flags: /Ogtp
; File C:\Program Files\Microsoft Visual Studio\2022\Professional\VC\Tools\MSVC\14.44.35207\include\xtree
; File C:\Program Files\Microsoft Visual Studio\2022\Professional\VC\Tools\MSVC\14.44.35207\include\utility
; File C:\Program Files\Microsoft Visual Studio\2022\Professional\VC\Tools\MSVC\14.44.35207\include\xmemory
; File C:\Program Files\Microsoft Visual Studio\2022\Professional\VC\Tools\MSVC\14.44.35207\include\xtree
;	COMDAT ??$_Erase_tree@V?$allocator@U?$_Tree_node@U?$pair@$$CBKH@std@@PAX@std@@@std@@@?$_Tree_val@U?$_Tree_simple_types@U?$pair@$$CBKH@std@@@std@@@std@@QAEXAAV?$allocator@U?$_Tree_node@U?$pair@$$CBKH@std@@PAX@std@@@1@PAU?$_Tree_node@U?$pair@$$CBKH@std@@PAX@1@@Z
_TEXT	SEGMENT
__Al$ = 8						; size = 4
__Rootnode$ = 12					; size = 4
??$_Erase_tree@V?$allocator@U?$_Tree_node@U?$pair@$$CBKH@std@@PAX@std@@@std@@@?$_Tree_val@U?$_Tree_simple_types@U?$pair@$$CBKH@std@@@std@@@std@@QAEXAAV?$allocator@U?$_Tree_node@U?$pair@$$CBKH@std@@PAX@std@@@1@PAU?$_Tree_node@U?$pair@$$CBKH@std@@PAX@1@@Z PROC ; std::_Tree_val<std::_Tree_simple_types<std::pair<unsigned long const ,int> > >::_Erase_tree<std::allocator<std::_Tree_node<std::pair<unsigned long const ,int>,void *> > >, COMDAT
; _this$ = ecx

; 767  :     void _Erase_tree(_Alnode& _Al, _Nodeptr _Rootnode) noexcept {

  00000	55		 push	 ebp
  00001	8b ec		 mov	 ebp, esp
  00003	53		 push	 ebx
  00004	56		 push	 esi

; 768  :         while (!_Rootnode->_Isnil) { // free subtrees, then node

  00005	8b 75 0c	 mov	 esi, DWORD PTR __Rootnode$[ebp]
  00008	8b d9		 mov	 ebx, ecx
  0000a	80 7e 0d 00	 cmp	 BYTE PTR [esi+13], 0
  0000e	75 25		 jne	 SHORT $LN34@Erase_tree
  00010	57		 push	 edi
  00011	8b 7d 08	 mov	 edi, DWORD PTR __Al$[ebp]
$LL2@Erase_tree:

; 769  :             _Erase_tree(_Al, _Rootnode->_Right);

  00014	ff 76 08	 push	 DWORD PTR [esi+8]
  00017	8b cb		 mov	 ecx, ebx
  00019	57		 push	 edi
  0001a	e8 00 00 00 00	 call	 ??$_Erase_tree@V?$allocator@U?$_Tree_node@U?$pair@$$CBKH@std@@PAX@std@@@std@@@?$_Tree_val@U?$_Tree_simple_types@U?$pair@$$CBKH@std@@@std@@@std@@QAEXAAV?$allocator@U?$_Tree_node@U?$pair@$$CBKH@std@@PAX@std@@@1@PAU?$_Tree_node@U?$pair@$$CBKH@std@@PAX@1@@Z ; std::_Tree_val<std::_Tree_simple_types<std::pair<unsigned long const ,int> > >::_Erase_tree<std::allocator<std::_Tree_node<std::pair<unsigned long const ,int>,void *> > >
; File C:\Program Files\Microsoft Visual Studio\2022\Professional\VC\Tools\MSVC\14.44.35207\include\utility

; 773  :     _Ty _Old_val = static_cast<_Ty&&>(_Val);

  0001f	8b c6		 mov	 eax, esi

; 774  :     _Val         = static_cast<_Other&&>(_New_val);

  00021	8b 36		 mov	 esi, DWORD PTR [esi]
; File C:\Program Files\Microsoft Visual Studio\2022\Professional\VC\Tools\MSVC\14.44.35207\include\xmemory

; 289  :         ::operator delete(_Ptr, _Bytes);

  00023	6a 18		 push	 24			; 00000018H
  00025	50		 push	 eax
  00026	e8 00 00 00 00	 call	 ??3@YAXPAXI@Z		; operator delete
  0002b	83 c4 08	 add	 esp, 8
; File C:\Program Files\Microsoft Visual Studio\2022\Professional\VC\Tools\MSVC\14.44.35207\include\xtree

; 768  :         while (!_Rootnode->_Isnil) { // free subtrees, then node

  0002e	80 7e 0d 00	 cmp	 BYTE PTR [esi+13], 0
  00032	74 e0		 je	 SHORT $LL2@Erase_tree
  00034	5f		 pop	 edi
$LN34@Erase_tree:
  00035	5e		 pop	 esi

; 770  :             _Alnode::value_type::_Freenode(_Al, _STD exchange(_Rootnode, _Rootnode->_Left));
; 771  :         }
; 772  :     }

  00036	5b		 pop	 ebx
  00037	5d		 pop	 ebp
  00038	c2 08 00	 ret	 8
??$_Erase_tree@V?$allocator@U?$_Tree_node@U?$pair@$$CBKH@std@@PAX@std@@@std@@@?$_Tree_val@U?$_Tree_simple_types@U?$pair@$$CBKH@std@@@std@@@std@@QAEXAAV?$allocator@U?$_Tree_node@U?$pair@$$CBKH@std@@PAX@std@@@1@PAU?$_Tree_node@U?$pair@$$CBKH@std@@PAX@1@@Z ENDP ; std::_Tree_val<std::_Tree_simple_types<std::pair<unsigned long const ,int> > >::_Erase_tree<std::allocator<std::_Tree_node<std::pair<unsigned long const ,int>,void *> > >
_TEXT	ENDS
; Function compile flags: /Ogtp
; File C:\IAGOS\server\v18\Source\Source\_Common\Item.h
;	COMDAT ?GetAtId@?$CItemContainer@VCItemElem@@@@QAEPAVCItemElem@@K@Z
_TEXT	SEGMENT
_dwId$ = 8						; size = 4
?GetAtId@?$CItemContainer@VCItemElem@@@@QAEPAVCItemElem@@K@Z PROC ; CItemContainer<CItemElem>::GetAtId, COMDAT
; _this$ = ecx

; 518  : {

  00000	55		 push	 ebp
  00001	8b ec		 mov	 ebp, esp

; 519  : 	if( dwId >= (DWORD)( GetMax() ) ) return NULL;

  00003	8b 45 08	 mov	 eax, DWORD PTR _dwId$[ebp]
  00006	3b 41 0c	 cmp	 eax, DWORD PTR [ecx+12]
  00009	73 15		 jae	 SHORT $LN7@GetAtId

; 520  : 	T* pItemElem = &m_apItem[ dwId ];

  0000b	69 c0 b0 00 00
	00		 imul	 eax, eax, 176
  00011	03 41 10	 add	 eax, DWORD PTR [ecx+16]

; 50   : 	BOOL			IsEmpty() { return m_dwItemId ? FALSE : TRUE; }

  00014	33 c9		 xor	 ecx, ecx
  00016	39 48 0c	 cmp	 DWORD PTR [eax+12], ecx
  00019	0f 44 c1	 cmove	 eax, ecx

; 523  : 	return pItemElem;
; 524  : }

  0001c	5d		 pop	 ebp
  0001d	c2 04 00	 ret	 4
$LN7@GetAtId:

; 521  : 	if( pItemElem->IsEmpty() ) 
; 522  : 		return NULL;

  00020	33 c0		 xor	 eax, eax

; 523  : 	return pItemElem;
; 524  : }

  00022	5d		 pop	 ebp
  00023	c2 04 00	 ret	 4
?GetAtId@?$CItemContainer@VCItemElem@@@@QAEPAVCItemElem@@K@Z ENDP ; CItemContainer<CItemElem>::GetAtId
_TEXT	ENDS
; Function compile flags: /Ogtp
; File C:\IAGOS\server\v18\Source\Source\_Common\Item.h
;	COMDAT ?IsFull@?$CItemContainer@VCItemElem@@@@QAEHPAVCItemElem@@PAUItemProp@@F@Z
_TEXT	SEGMENT
_this$1$ = -4						; size = 4
_pElem$ = 8						; size = 4
_pItemProp$ = 12					; size = 4
_nNum$ = 16						; size = 2
tv344 = 16						; size = 4
?IsFull@?$CItemContainer@VCItemElem@@@@QAEHPAVCItemElem@@PAUItemProp@@F@Z PROC ; CItemContainer<CItemElem>::IsFull, COMDAT
; _this$ = ecx

; 632  : {

  00000	55		 push	 ebp
  00001	8b ec		 mov	 ebp, esp
  00003	51		 push	 ecx

; 633  : 	int nId;
; 634  : 	short nNumtmp	= nNum;

  00004	0f b7 55 10	 movzx	 edx, WORD PTR _nNum$[ebp]
  00008	53		 push	 ebx
  00009	56		 push	 esi
  0000a	8b f1		 mov	 esi, ecx
  0000c	57		 push	 edi

; 635  : 	CItemElem* pElemtmp;
; 636  : 	for( DWORD i = 0; i < m_dwIndexNum; i++ )

  0000d	33 ff		 xor	 edi, edi
  0000f	89 75 fc	 mov	 DWORD PTR _this$1$[ebp], esi
  00012	39 7e 08	 cmp	 DWORD PTR [esi+8], edi
  00015	0f 86 7e 00 00
	00		 jbe	 $LN19@IsFull

; 637  : 	{
; 638  : 		nId	= m_apIndex[i];

  0001b	8b 5e 04	 mov	 ebx, DWORD PTR [esi+4]
  0001e	66 90		 npad	 2
$LL4@IsFull:
  00020	8b 03		 mov	 eax, DWORD PTR [ebx]

; 639  : 		if( nId < 0 || nId >= (int)( m_dwItemMax ) )

  00022	85 c0		 test	 eax, eax
  00024	78 6a		 js	 SHORT $LN2@IsFull
  00026	3b 46 0c	 cmp	 eax, DWORD PTR [esi+12]
  00029	7d 65		 jge	 SHORT $LN2@IsFull

; 640  : 			continue;
; 641  : 		pElemtmp	= (CItemElem*)&m_apItem[nId];

  0002b	69 c8 b0 00 00
	00		 imul	 ecx, eax, 176
  00031	03 4e 10	 add	 ecx, DWORD PTR [esi+16]

; 50   : 	BOOL			IsEmpty() { return m_dwItemId ? FALSE : TRUE; }

  00034	8b 41 0c	 mov	 eax, DWORD PTR [ecx+12]
  00037	85 c0		 test	 eax, eax

; 642  : 		if( pElemtmp->IsEmpty() )

  00039	75 10		 jne	 SHORT $LN7@IsFull

; 643  : 		{
; 644  : 			if( nNumtmp > (short)pItemProp->dwPackMax )

  0003b	8b 45 0c	 mov	 eax, DWORD PTR _pItemProp$[ebp]
  0003e	0f b7 40 6c	 movzx	 eax, WORD PTR [eax+108]
  00042	66 3b d0	 cmp	 dx, ax
  00045	7e 60		 jle	 SHORT $LN12@IsFull

; 645  : 				nNumtmp		-= (short)pItemProp->dwPackMax;

  00047	2b d0		 sub	 edx, eax

; 646  : 			else
; 647  : 				return FALSE;
; 648  : 		}

  00049	eb 45		 jmp	 SHORT $LN2@IsFull
$LN7@IsFull:

; 649  : 		else if( pElem->m_dwItemId == pElemtmp->m_dwItemId
; 650  : 				&& pElem->m_byFlag == pElemtmp->m_byFlag && pElem->m_bCharged == pElemtmp->m_bCharged )

  0004b	8b 75 08	 mov	 esi, DWORD PTR _pElem$[ebp]
  0004e	39 46 0c	 cmp	 DWORD PTR [esi+12], eax
  00051	75 3a		 jne	 SHORT $LN24@IsFull
  00053	8a 46 76	 mov	 al, BYTE PTR [esi+118]
  00056	3a 41 76	 cmp	 al, BYTE PTR [ecx+118]
  00059	75 32		 jne	 SHORT $LN24@IsFull
  0005b	8b 86 a4 00 00
	00		 mov	 eax, DWORD PTR [esi+164]
  00061	3b 81 a4 00 00
	00		 cmp	 eax, DWORD PTR [ecx+164]
  00067	75 24		 jne	 SHORT $LN24@IsFull

; 651  : 		{
; 652  : 			if( pElemtmp->m_nItemNum + nNumtmp > (short)pItemProp->dwPackMax )

  00069	0f b7 71 74	 movzx	 esi, WORD PTR [ecx+116]
  0006d	0f bf c2	 movsx	 eax, dx
  00070	0f bf ce	 movsx	 ecx, si
  00073	03 c8		 add	 ecx, eax
  00075	89 4d 10	 mov	 DWORD PTR tv344[ebp], ecx
  00078	8b 4d 0c	 mov	 ecx, DWORD PTR _pItemProp$[ebp]
  0007b	0f b7 41 6c	 movzx	 eax, WORD PTR [ecx+108]
  0007f	98		 cwde
  00080	39 45 10	 cmp	 DWORD PTR tv344[ebp], eax
  00083	7e 22		 jle	 SHORT $LN12@IsFull

; 653  : 				nNumtmp	-= ( (short)pItemProp->dwPackMax - pElemtmp->m_nItemNum );

  00085	0f b7 41 6c	 movzx	 eax, WORD PTR [ecx+108]
  00089	2b f0		 sub	 esi, eax
  0008b	03 d6		 add	 edx, esi
$LN24@IsFull:

; 635  : 	CItemElem* pElemtmp;
; 636  : 	for( DWORD i = 0; i < m_dwIndexNum; i++ )

  0008d	8b 75 fc	 mov	 esi, DWORD PTR _this$1$[ebp]
$LN2@IsFull:
  00090	47		 inc	 edi
  00091	83 c3 04	 add	 ebx, 4
  00094	3b 7e 08	 cmp	 edi, DWORD PTR [esi+8]
  00097	72 87		 jb	 SHORT $LL4@IsFull
$LN19@IsFull:
  00099	5f		 pop	 edi

; 654  : 			else
; 655  : 				return FALSE;
; 656  : 		}
; 657  : 	}
; 658  : 
; 659  : 	return TRUE;
; 660  : }

  0009a	5e		 pop	 esi
  0009b	b8 01 00 00 00	 mov	 eax, 1
  000a0	5b		 pop	 ebx
  000a1	8b e5		 mov	 esp, ebp
  000a3	5d		 pop	 ebp
  000a4	c2 0c 00	 ret	 12			; 0000000cH
$LN12@IsFull:
  000a7	5f		 pop	 edi
  000a8	5e		 pop	 esi
  000a9	33 c0		 xor	 eax, eax
  000ab	5b		 pop	 ebx
  000ac	8b e5		 mov	 esp, ebp
  000ae	5d		 pop	 ebp
  000af	c2 0c 00	 ret	 12			; 0000000cH
?IsFull@?$CItemContainer@VCItemElem@@@@QAEHPAVCItemElem@@PAUItemProp@@F@Z ENDP ; CItemContainer<CItemElem>::IsFull
_TEXT	ENDS
; Function compile flags: /Ogtp
; File C:\IAGOS\server\v18\Source\Source\_Common\Item.h
;	COMDAT ?IsEquip@?$CItemContainer@VCItemElem@@@@QAEHK@Z
_TEXT	SEGMENT
_dwObjId$ = 8						; size = 4
?IsEquip@?$CItemContainer@VCItemElem@@@@QAEHK@Z PROC	; CItemContainer<CItemElem>::IsEquip, COMDAT
; _this$ = ecx

; 602  : {

  00000	55		 push	 ebp
  00001	8b ec		 mov	 ebp, esp

; 603  : 	if( !m_apItem )

  00003	8b 51 10	 mov	 edx, DWORD PTR [ecx+16]
  00006	85 d2		 test	 edx, edx
  00008	75 13		 jne	 SHORT $LN2@IsEquip

; 604  : 	{
; 605  : 		WriteError( "CONTAINER//0" );

  0000a	68 00 00 00 00	 push	 OFFSET ??_C@_0N@GELFDHNG@CONTAINER?1?10@
  0000f	e8 00 00 00 00	 call	 ?WriteError@@YAXPBDZZ	; WriteError
  00014	83 c4 04	 add	 esp, 4
$LN4@IsEquip:

; 613  : 		return TRUE;
; 614  : 	return FALSE;
; 615  : }

  00017	33 c0		 xor	 eax, eax
  00019	5d		 pop	 ebp
  0001a	c2 04 00	 ret	 4
$LN2@IsEquip:

; 606  : 		return FALSE;
; 607  : 	}
; 608  : 
; 609  : 	if( dwObjId >= m_dwItemMax )

  0001d	8b 45 08	 mov	 eax, DWORD PTR _dwObjId$[ebp]
  00020	3b 41 0c	 cmp	 eax, DWORD PTR [ecx+12]
  00023	73 f2		 jae	 SHORT $LN4@IsEquip

; 610  : 		return FALSE;
; 611  : 
; 612  : 	if( m_apItem[ dwObjId ].m_dwObjIndex >= m_dwIndexNum )

  00025	69 c0 b0 00 00
	00		 imul	 eax, eax, 176
  0002b	8b 44 10 08	 mov	 eax, DWORD PTR [eax+edx+8]
  0002f	3b 41 08	 cmp	 eax, DWORD PTR [ecx+8]
  00032	1b c0		 sbb	 eax, eax
  00034	40		 inc	 eax

; 613  : 		return TRUE;
; 614  : 	return FALSE;
; 615  : }

  00035	5d		 pop	 ebp
  00036	c2 04 00	 ret	 4
?IsEquip@?$CItemContainer@VCItemElem@@@@QAEHK@Z ENDP	; CItemContainer<CItemElem>::IsEquip
_TEXT	ENDS
; Function compile flags: /Ogtp
; File C:\IAGOS\server\v18\Source\Source\_Common\Item.h
; File C:\IAGOS\server\v18\Source\Source\_Common\Project.h
; File C:\IAGOS\server\v18\Source\Source\_Common\data.h
; File C:\IAGOS\server\v18\Source\Source\_Common\Item.h
; File C:\IAGOS\server\v18\Source\Source\_Common\Project.h
; File C:\IAGOS\server\v18\Source\Source\_Common\Item.h
;	COMDAT ?GetPropA@CItemElem@@QAEPAUItemProp@@XZ
_TEXT	SEGMENT
?GetPropA@CItemElem@@QAEPAUItemProp@@XZ PROC		; CItemElem::GetPropA, COMDAT
; _this$ = ecx

; 230  : 	ItemProp*	GetProp()	{	return prj.GetItemProp( m_dwItemId );	}

  00000	8b 49 0c	 mov	 ecx, DWORD PTR [ecx+12]
; File C:\IAGOS\server\v18\Source\Source\_Common\Project.h

; 1389 : 	VERIFY_RANGE_ASSERT( nIndex, 0, m_aPropItem.GetSize(), "GetItemProp range_error", NULL );

  00003	a1 40 02 00 00	 mov	 eax, DWORD PTR ?prj@@3VCProject@@A+576
  00008	85 c9		 test	 ecx, ecx
  0000a	78 0f		 js	 SHORT $LN8@GetPropA
  0000c	3b c8		 cmp	 ecx, eax
  0000e	7d 0b		 jge	 SHORT $LN8@GetPropA
; File C:\IAGOS\server\v18\Source\Source\_Common\data.h

; 270  : 	if( dwIndex >= (DWORD)m_nMaxIndex )

  00010	73 1f		 jae	 SHORT $LN15@GetPropA

; 271  : 		return NULL;
; 272  : 	return (T*) m_apOffset[ dwIndex ];

  00012	a1 30 02 00 00	 mov	 eax, DWORD PTR ?prj@@3VCProject@@A+560
  00017	8b 04 88	 mov	 eax, DWORD PTR [eax+ecx*4]
; File C:\IAGOS\server\v18\Source\Source\_Common\Item.h

; 230  : 	ItemProp*	GetProp()	{	return prj.GetItemProp( m_dwItemId );	}

  0001a	c3		 ret	 0
$LN8@GetPropA:
; File C:\IAGOS\server\v18\Source\Source\_Common\Project.h

; 579  : 	LPCTSTR szErr = Error( _T( "%s min:%d, max:%d, index:%d" ), szMsg, nMin, nMax, nIndex ); 

  0001b	51		 push	 ecx
  0001c	50		 push	 eax
  0001d	6a 00		 push	 0
  0001f	68 00 00 00 00	 push	 OFFSET ??_C@_0BI@BEIFNGEL@GetItemProp?5range_error@
  00024	68 00 00 00 00	 push	 OFFSET ??_C@_0BM@HMFGHCP@?$CFs?5min?3?$CFd?0?5max?3?$CFd?0?5index?3?$CFd@
  00029	e8 00 00 00 00	 call	 ?Error@@YAPBDPBDZZ	; Error
  0002e	83 c4 14	 add	 esp, 20			; 00000014H
$LN15@GetPropA:
; File C:\IAGOS\server\v18\Source\Source\_Common\Item.h

; 230  : 	ItemProp*	GetProp()	{	return prj.GetItemProp( m_dwItemId );	}

  00031	33 c0		 xor	 eax, eax
  00033	c3		 ret	 0
?GetPropA@CItemElem@@QAEPAUItemProp@@XZ ENDP		; CItemElem::GetPropA
_TEXT	ENDS
; Function compile flags: /Ogtp
;	COMDAT ??1?$map@KHU?$less@K@std@@V?$allocator@U?$pair@$$CBKH@std@@@2@@std@@QAE@XZ
_TEXT	SEGMENT
??1?$map@KHU?$less@K@std@@V?$allocator@U?$pair@$$CBKH@std@@@2@@std@@QAE@XZ PROC ; std::map<unsigned long,int,std::less<unsigned long>,std::allocator<std::pair<unsigned long const ,int> > >::~map<unsigned long,int,std::less<unsigned long>,std::allocator<std::pair<unsigned long const ,int> > >, COMDAT
; _this$ = ecx
  00000	e9 00 00 00 00	 jmp	 ??1?$_Tree@V?$_Tmap_traits@KHU?$less@K@std@@V?$allocator@U?$pair@$$CBKH@std@@@2@$0A@@std@@@std@@QAE@XZ ; std::_Tree<std::_Tmap_traits<unsigned long,int,std::less<unsigned long>,std::allocator<std::pair<unsigned long const ,int> >,0> >::~_Tree<std::_Tmap_traits<unsigned long,int,std::less<unsigned long>,std::allocator<std::pair<unsigned long const ,int> >,0> >
??1?$map@KHU?$less@K@std@@V?$allocator@U?$pair@$$CBKH@std@@@2@@std@@QAE@XZ ENDP ; std::map<unsigned long,int,std::less<unsigned long>,std::allocator<std::pair<unsigned long const ,int> > >::~map<unsigned long,int,std::less<unsigned long>,std::allocator<std::pair<unsigned long const ,int> > >
_TEXT	ENDS
; Function compile flags: /Ogtp
; File C:\Program Files\Microsoft Visual Studio\2022\Professional\VC\Tools\MSVC\14.44.35207\include\xtree
;	COMDAT ?_Insert_node@?$_Tree_val@U?$_Tree_simple_types@U?$pair@$$CBKH@std@@@std@@@std@@QAEPAU?$_Tree_node@U?$pair@$$CBKH@std@@PAX@2@U?$_Tree_id@PAU?$_Tree_node@U?$pair@$$CBKH@std@@PAX@std@@@2@QAU32@@Z
_TEXT	SEGMENT
__Head$1$ = -4						; size = 4
__Loc$ = 8						; size = 8
__Newnode$ = 16						; size = 4
?_Insert_node@?$_Tree_val@U?$_Tree_simple_types@U?$pair@$$CBKH@std@@@std@@@std@@QAEPAU?$_Tree_node@U?$pair@$$CBKH@std@@PAX@2@U?$_Tree_id@PAU?$_Tree_node@U?$pair@$$CBKH@std@@PAX@std@@@2@QAU32@@Z PROC ; std::_Tree_val<std::_Tree_simple_types<std::pair<unsigned long const ,int> > >::_Insert_node, COMDAT
; _this$ = ecx

; 669  :     _Nodeptr _Insert_node(const _Tree_id<_Nodeptr> _Loc, const _Nodeptr _Newnode) noexcept {

  00000	55		 push	 ebp
  00001	8b ec		 mov	 ebp, esp
  00003	51		 push	 ecx

; 670  :         ++_Mysize;
; 671  :         const auto _Head  = _Myhead;
; 672  :         _Newnode->_Parent = _Loc._Parent;

  00004	8b 55 08	 mov	 edx, DWORD PTR __Loc$[ebp]
  00007	53		 push	 ebx
  00008	8b d9		 mov	 ebx, ecx
  0000a	57		 push	 edi
  0000b	8b 7d 10	 mov	 edi, DWORD PTR __Newnode$[ebp]
  0000e	8b 03		 mov	 eax, DWORD PTR [ebx]
  00010	ff 43 04	 inc	 DWORD PTR [ebx+4]
  00013	89 45 fc	 mov	 DWORD PTR __Head$1$[ebp], eax
  00016	89 57 04	 mov	 DWORD PTR [edi+4], edx

; 673  :         if (_Loc._Parent == _Head) { // first node in tree, just set head values

  00019	3b d0		 cmp	 edx, eax
  0001b	75 16		 jne	 SHORT $LN5@Insert_nod

; 674  :             _Head->_Left     = _Newnode;

  0001d	89 38		 mov	 DWORD PTR [eax], edi

; 675  :             _Head->_Parent   = _Newnode;

  0001f	89 78 04	 mov	 DWORD PTR [eax+4], edi

; 676  :             _Head->_Right    = _Newnode;

  00022	89 78 08	 mov	 DWORD PTR [eax+8], edi

; 735  :         return _Newnode;
; 736  :     }

  00025	8b c7		 mov	 eax, edi
  00027	c6 47 0c 01	 mov	 BYTE PTR [edi+12], 1
  0002b	5f		 pop	 edi
  0002c	5b		 pop	 ebx
  0002d	8b e5		 mov	 esp, ebp
  0002f	5d		 pop	 ebp
  00030	c2 0c 00	 ret	 12			; 0000000cH
$LN5@Insert_nod:

; 677  :             _Newnode->_Color = _Black; // the root is black
; 678  :             return _Newnode;
; 679  :         }
; 680  : 
; 681  :         _STL_INTERNAL_CHECK(_Loc._Child != _Tree_child::_Unused);
; 682  :         if (_Loc._Child == _Tree_child::_Right) { // add to right of _Loc._Parent

  00033	83 7d 0c 00	 cmp	 DWORD PTR __Loc$[ebp+4], 0
  00037	75 0d		 jne	 SHORT $LN6@Insert_nod

; 683  :             _STL_INTERNAL_CHECK(_Loc._Parent->_Right->_Isnil);
; 684  :             _Loc._Parent->_Right = _Newnode;

  00039	89 7a 08	 mov	 DWORD PTR [edx+8], edi

; 685  :             if (_Loc._Parent == _Head->_Right) { // remember rightmost node

  0003c	3b 50 08	 cmp	 edx, DWORD PTR [eax+8]
  0003f	75 0d		 jne	 SHORT $LN9@Insert_nod

; 686  :                 _Head->_Right = _Newnode;

  00041	89 78 08	 mov	 DWORD PTR [eax+8], edi

; 687  :             }
; 688  :         } else { // add to left of _Loc._Parent

  00044	eb 08		 jmp	 SHORT $LN9@Insert_nod
$LN6@Insert_nod:

; 689  :             _STL_INTERNAL_CHECK(_Loc._Parent->_Left->_Isnil);
; 690  :             _Loc._Parent->_Left = _Newnode;

  00046	89 3a		 mov	 DWORD PTR [edx], edi

; 691  :             if (_Loc._Parent == _Head->_Left) { // remember leftmost node

  00048	3b 10		 cmp	 edx, DWORD PTR [eax]
  0004a	75 02		 jne	 SHORT $LN9@Insert_nod

; 692  :                 _Head->_Left = _Newnode;

  0004c	89 38		 mov	 DWORD PTR [eax], edi
$LN9@Insert_nod:

; 693  :             }
; 694  :         }
; 695  : 
; 696  :         for (_Nodeptr _Pnode = _Newnode; _Pnode->_Parent->_Color == _Red;) {

  0004e	8b 4f 04	 mov	 ecx, DWORD PTR [edi+4]
  00051	8b c7		 mov	 eax, edi
  00053	80 79 0c 00	 cmp	 BYTE PTR [ecx+12], 0
  00057	0f 85 7d 01 00
	00		 jne	 $LN3@Insert_nod
  0005d	56		 push	 esi
  0005e	66 90		 npad	 2
$LL4@Insert_nod:

; 697  :             if (_Pnode->_Parent == _Pnode->_Parent->_Parent->_Left) { // fixup red-red in left subtree

  00060	8b 50 04	 mov	 edx, DWORD PTR [eax+4]
  00063	8b 72 04	 mov	 esi, DWORD PTR [edx+4]
  00066	8b 0e		 mov	 ecx, DWORD PTR [esi]
  00068	3b d1		 cmp	 edx, ecx
  0006a	0f 85 aa 00 00
	00		 jne	 $LN10@Insert_nod

; 698  :                 const auto _Parent_sibling = _Pnode->_Parent->_Parent->_Right;

  00070	8b 4e 08	 mov	 ecx, DWORD PTR [esi+8]

; 699  :                 if (_Parent_sibling->_Color == _Red) { // parent's sibling has two red children, blacken both

  00073	80 79 0c 00	 cmp	 BYTE PTR [ecx+12], 0
  00077	0f 84 a3 00 00
	00		 je	 $LN82@Insert_nod

; 700  :                     _Pnode->_Parent->_Color          = _Black;
; 701  :                     _Parent_sibling->_Color          = _Black;
; 702  :                     _Pnode->_Parent->_Parent->_Color = _Red;
; 703  :                     _Pnode                           = _Pnode->_Parent->_Parent;
; 704  :                 } else { // parent's sibling has red and black children
; 705  :                     if (_Pnode == _Pnode->_Parent->_Right) { // rotate right child to left

  0007d	8b 72 08	 mov	 esi, DWORD PTR [edx+8]
  00080	3b c6		 cmp	 eax, esi
  00082	75 37		 jne	 SHORT $LN57@Insert_nod

; 485  :         _Wherenode->_Right = _Pnode->_Left;

  00084	8b 0e		 mov	 ecx, DWORD PTR [esi]

; 706  :                         _Pnode = _Pnode->_Parent;

  00086	8b c2		 mov	 eax, edx

; 485  :         _Wherenode->_Right = _Pnode->_Left;

  00088	89 4a 08	 mov	 DWORD PTR [edx+8], ecx

; 486  : 
; 487  :         if (!_Pnode->_Left->_Isnil) {

  0008b	8b 0e		 mov	 ecx, DWORD PTR [esi]
  0008d	80 79 0d 00	 cmp	 BYTE PTR [ecx+13], 0
  00091	75 03		 jne	 SHORT $LN21@Insert_nod

; 488  :             _Pnode->_Left->_Parent = _Wherenode;

  00093	89 41 04	 mov	 DWORD PTR [ecx+4], eax
$LN21@Insert_nod:

; 489  :         }
; 490  : 
; 491  :         _Pnode->_Parent = _Wherenode->_Parent;

  00096	8b 4a 04	 mov	 ecx, DWORD PTR [edx+4]
  00099	89 4e 04	 mov	 DWORD PTR [esi+4], ecx

; 492  : 
; 493  :         if (_Wherenode == _Myhead->_Parent) {

  0009c	8b 0b		 mov	 ecx, DWORD PTR [ebx]
  0009e	3b 41 04	 cmp	 eax, DWORD PTR [ecx+4]
  000a1	75 05		 jne	 SHORT $LN22@Insert_nod

; 494  :             _Myhead->_Parent = _Pnode;

  000a3	89 71 04	 mov	 DWORD PTR [ecx+4], esi
  000a6	eb 0e		 jmp	 SHORT $LN25@Insert_nod
$LN22@Insert_nod:

; 495  :         } else if (_Wherenode == _Wherenode->_Parent->_Left) {

  000a8	8b 4a 04	 mov	 ecx, DWORD PTR [edx+4]
  000ab	3b 01		 cmp	 eax, DWORD PTR [ecx]
  000ad	75 04		 jne	 SHORT $LN24@Insert_nod

; 496  :             _Wherenode->_Parent->_Left = _Pnode;

  000af	89 31		 mov	 DWORD PTR [ecx], esi

; 497  :         } else {

  000b1	eb 03		 jmp	 SHORT $LN25@Insert_nod
$LN24@Insert_nod:

; 498  :             _Wherenode->_Parent->_Right = _Pnode;

  000b3	89 71 08	 mov	 DWORD PTR [ecx+8], esi
$LN25@Insert_nod:

; 499  :         }
; 500  : 
; 501  :         _Pnode->_Left       = _Wherenode;

  000b6	89 06		 mov	 DWORD PTR [esi], eax

; 502  :         _Wherenode->_Parent = _Pnode;

  000b8	89 70 04	 mov	 DWORD PTR [eax+4], esi
$LN57@Insert_nod:

; 707  :                         _Lrotate(_Pnode);
; 708  :                     }
; 709  : 
; 710  :                     _Pnode->_Parent->_Color          = _Black; // propagate red up

  000bb	8b 48 04	 mov	 ecx, DWORD PTR [eax+4]
  000be	c6 41 0c 01	 mov	 BYTE PTR [ecx+12], 1

; 711  :                     _Pnode->_Parent->_Parent->_Color = _Red;

  000c2	8b 48 04	 mov	 ecx, DWORD PTR [eax+4]
  000c5	8b 49 04	 mov	 ecx, DWORD PTR [ecx+4]
  000c8	c6 41 0c 00	 mov	 BYTE PTR [ecx+12], 0

; 712  :                     _Rrotate(_Pnode->_Parent->_Parent);

  000cc	8b 48 04	 mov	 ecx, DWORD PTR [eax+4]
  000cf	8b 51 04	 mov	 edx, DWORD PTR [ecx+4]

; 506  :         _Nodeptr _Pnode   = _Wherenode->_Left;

  000d2	8b 32		 mov	 esi, DWORD PTR [edx]

; 507  :         _Wherenode->_Left = _Pnode->_Right;

  000d4	8b 4e 08	 mov	 ecx, DWORD PTR [esi+8]
  000d7	89 0a		 mov	 DWORD PTR [edx], ecx

; 508  : 
; 509  :         if (!_Pnode->_Right->_Isnil) {

  000d9	8b 4e 08	 mov	 ecx, DWORD PTR [esi+8]
  000dc	80 79 0d 00	 cmp	 BYTE PTR [ecx+13], 0
  000e0	75 03		 jne	 SHORT $LN29@Insert_nod

; 510  :             _Pnode->_Right->_Parent = _Wherenode;

  000e2	89 51 04	 mov	 DWORD PTR [ecx+4], edx
$LN29@Insert_nod:

; 511  :         }
; 512  : 
; 513  :         _Pnode->_Parent = _Wherenode->_Parent;

  000e5	8b 4a 04	 mov	 ecx, DWORD PTR [edx+4]
  000e8	89 4e 04	 mov	 DWORD PTR [esi+4], ecx

; 514  : 
; 515  :         if (_Wherenode == _Myhead->_Parent) {

  000eb	8b 0b		 mov	 ecx, DWORD PTR [ebx]
  000ed	3b 51 04	 cmp	 edx, DWORD PTR [ecx+4]
  000f0	75 0b		 jne	 SHORT $LN30@Insert_nod

; 516  :             _Myhead->_Parent = _Pnode;

  000f2	89 71 04	 mov	 DWORD PTR [ecx+4], esi

; 521  :         }
; 522  : 
; 523  :         _Pnode->_Right      = _Wherenode;

  000f5	89 56 08	 mov	 DWORD PTR [esi+8], edx

; 713  :                 }
; 714  :             } else { // fixup red-red in right subtree

  000f8	e9 cc 00 00 00	 jmp	 $LN81@Insert_nod
$LN30@Insert_nod:

; 517  :         } else if (_Wherenode == _Wherenode->_Parent->_Right) {

  000fd	8b 4a 04	 mov	 ecx, DWORD PTR [edx+4]
  00100	3b 51 08	 cmp	 edx, DWORD PTR [ecx+8]
  00103	75 0b		 jne	 SHORT $LN32@Insert_nod

; 518  :             _Wherenode->_Parent->_Right = _Pnode;

  00105	89 71 08	 mov	 DWORD PTR [ecx+8], esi

; 521  :         }
; 522  : 
; 523  :         _Pnode->_Right      = _Wherenode;

  00108	89 56 08	 mov	 DWORD PTR [esi+8], edx

; 713  :                 }
; 714  :             } else { // fixup red-red in right subtree

  0010b	e9 b9 00 00 00	 jmp	 $LN81@Insert_nod
$LN32@Insert_nod:

; 520  :             _Wherenode->_Parent->_Left = _Pnode;

  00110	89 31		 mov	 DWORD PTR [ecx], esi

; 521  :         }
; 522  : 
; 523  :         _Pnode->_Right      = _Wherenode;

  00112	89 56 08	 mov	 DWORD PTR [esi+8], edx

; 713  :                 }
; 714  :             } else { // fixup red-red in right subtree

  00115	e9 af 00 00 00	 jmp	 $LN81@Insert_nod
$LN10@Insert_nod:

; 715  :                 const auto _Parent_sibling = _Pnode->_Parent->_Parent->_Left;
; 716  :                 if (_Parent_sibling->_Color == _Red) { // parent's sibling has two red children, blacken both

  0011a	80 79 0c 00	 cmp	 BYTE PTR [ecx+12], 0
  0011e	75 1d		 jne	 SHORT $LN15@Insert_nod
$LN82@Insert_nod:

; 693  :             }
; 694  :         }
; 695  : 
; 696  :         for (_Nodeptr _Pnode = _Newnode; _Pnode->_Parent->_Color == _Red;) {

  00120	c6 42 0c 01	 mov	 BYTE PTR [edx+12], 1
  00124	c6 41 0c 01	 mov	 BYTE PTR [ecx+12], 1
  00128	8b 48 04	 mov	 ecx, DWORD PTR [eax+4]
  0012b	8b 49 04	 mov	 ecx, DWORD PTR [ecx+4]
  0012e	c6 41 0c 00	 mov	 BYTE PTR [ecx+12], 0
  00132	8b 48 04	 mov	 ecx, DWORD PTR [eax+4]
  00135	8b 41 04	 mov	 eax, DWORD PTR [ecx+4]
  00138	e9 8f 00 00 00	 jmp	 $LN2@Insert_nod
$LN15@Insert_nod:

; 717  :                     _Pnode->_Parent->_Color          = _Black;
; 718  :                     _Parent_sibling->_Color          = _Black;
; 719  :                     _Pnode->_Parent->_Parent->_Color = _Red;
; 720  :                     _Pnode                           = _Pnode->_Parent->_Parent;
; 721  :                 } else { // parent's sibling has red and black children
; 722  :                     if (_Pnode == _Pnode->_Parent->_Left) { // rotate left child to right

  0013d	8b 32		 mov	 esi, DWORD PTR [edx]
  0013f	3b c6		 cmp	 eax, esi
  00141	75 3a		 jne	 SHORT $LN42@Insert_nod

; 507  :         _Wherenode->_Left = _Pnode->_Right;

  00143	8b 4e 08	 mov	 ecx, DWORD PTR [esi+8]

; 723  :                         _Pnode = _Pnode->_Parent;

  00146	8b c2		 mov	 eax, edx

; 507  :         _Wherenode->_Left = _Pnode->_Right;

  00148	89 08		 mov	 DWORD PTR [eax], ecx

; 508  : 
; 509  :         if (!_Pnode->_Right->_Isnil) {

  0014a	8b 4e 08	 mov	 ecx, DWORD PTR [esi+8]
  0014d	80 79 0d 00	 cmp	 BYTE PTR [ecx+13], 0
  00151	75 03		 jne	 SHORT $LN37@Insert_nod

; 510  :             _Pnode->_Right->_Parent = _Wherenode;

  00153	89 41 04	 mov	 DWORD PTR [ecx+4], eax
$LN37@Insert_nod:

; 511  :         }
; 512  : 
; 513  :         _Pnode->_Parent = _Wherenode->_Parent;

  00156	8b 4a 04	 mov	 ecx, DWORD PTR [edx+4]
  00159	89 4e 04	 mov	 DWORD PTR [esi+4], ecx

; 514  : 
; 515  :         if (_Wherenode == _Myhead->_Parent) {

  0015c	8b 0b		 mov	 ecx, DWORD PTR [ebx]
  0015e	3b 41 04	 cmp	 eax, DWORD PTR [ecx+4]
  00161	75 05		 jne	 SHORT $LN38@Insert_nod

; 516  :             _Myhead->_Parent = _Pnode;

  00163	89 71 04	 mov	 DWORD PTR [ecx+4], esi
  00166	eb 0f		 jmp	 SHORT $LN41@Insert_nod
$LN38@Insert_nod:

; 517  :         } else if (_Wherenode == _Wherenode->_Parent->_Right) {

  00168	8b 4a 04	 mov	 ecx, DWORD PTR [edx+4]
  0016b	3b 41 08	 cmp	 eax, DWORD PTR [ecx+8]
  0016e	75 05		 jne	 SHORT $LN40@Insert_nod

; 518  :             _Wherenode->_Parent->_Right = _Pnode;

  00170	89 71 08	 mov	 DWORD PTR [ecx+8], esi

; 519  :         } else {

  00173	eb 02		 jmp	 SHORT $LN41@Insert_nod
$LN40@Insert_nod:

; 520  :             _Wherenode->_Parent->_Left = _Pnode;

  00175	89 31		 mov	 DWORD PTR [ecx], esi
$LN41@Insert_nod:

; 521  :         }
; 522  : 
; 523  :         _Pnode->_Right      = _Wherenode;

  00177	89 46 08	 mov	 DWORD PTR [esi+8], eax

; 524  :         _Wherenode->_Parent = _Pnode;

  0017a	89 70 04	 mov	 DWORD PTR [eax+4], esi
$LN42@Insert_nod:

; 724  :                         _Rrotate(_Pnode);
; 725  :                     }
; 726  : 
; 727  :                     _Pnode->_Parent->_Color          = _Black; // propagate red up

  0017d	8b 48 04	 mov	 ecx, DWORD PTR [eax+4]
  00180	c6 41 0c 01	 mov	 BYTE PTR [ecx+12], 1

; 728  :                     _Pnode->_Parent->_Parent->_Color = _Red;

  00184	8b 48 04	 mov	 ecx, DWORD PTR [eax+4]
  00187	8b 49 04	 mov	 ecx, DWORD PTR [ecx+4]
  0018a	c6 41 0c 00	 mov	 BYTE PTR [ecx+12], 0

; 729  :                     _Lrotate(_Pnode->_Parent->_Parent);

  0018e	8b 48 04	 mov	 ecx, DWORD PTR [eax+4]
  00191	8b 51 04	 mov	 edx, DWORD PTR [ecx+4]

; 484  :         _Nodeptr _Pnode    = _Wherenode->_Right;

  00194	8b 72 08	 mov	 esi, DWORD PTR [edx+8]

; 485  :         _Wherenode->_Right = _Pnode->_Left;

  00197	8b 0e		 mov	 ecx, DWORD PTR [esi]
  00199	89 4a 08	 mov	 DWORD PTR [edx+8], ecx

; 486  : 
; 487  :         if (!_Pnode->_Left->_Isnil) {

  0019c	8b 0e		 mov	 ecx, DWORD PTR [esi]
  0019e	80 79 0d 00	 cmp	 BYTE PTR [ecx+13], 0
  001a2	75 03		 jne	 SHORT $LN45@Insert_nod

; 488  :             _Pnode->_Left->_Parent = _Wherenode;

  001a4	89 51 04	 mov	 DWORD PTR [ecx+4], edx
$LN45@Insert_nod:

; 489  :         }
; 490  : 
; 491  :         _Pnode->_Parent = _Wherenode->_Parent;

  001a7	8b 4a 04	 mov	 ecx, DWORD PTR [edx+4]
  001aa	89 4e 04	 mov	 DWORD PTR [esi+4], ecx

; 492  : 
; 493  :         if (_Wherenode == _Myhead->_Parent) {

  001ad	8b 0b		 mov	 ecx, DWORD PTR [ebx]
  001af	3b 51 04	 cmp	 edx, DWORD PTR [ecx+4]
  001b2	75 05		 jne	 SHORT $LN46@Insert_nod

; 494  :             _Myhead->_Parent = _Pnode;

  001b4	89 71 04	 mov	 DWORD PTR [ecx+4], esi
  001b7	eb 0e		 jmp	 SHORT $LN49@Insert_nod
$LN46@Insert_nod:

; 495  :         } else if (_Wherenode == _Wherenode->_Parent->_Left) {

  001b9	8b 4a 04	 mov	 ecx, DWORD PTR [edx+4]
  001bc	3b 11		 cmp	 edx, DWORD PTR [ecx]
  001be	75 04		 jne	 SHORT $LN48@Insert_nod

; 496  :             _Wherenode->_Parent->_Left = _Pnode;

  001c0	89 31		 mov	 DWORD PTR [ecx], esi

; 497  :         } else {

  001c2	eb 03		 jmp	 SHORT $LN49@Insert_nod
$LN48@Insert_nod:

; 498  :             _Wherenode->_Parent->_Right = _Pnode;

  001c4	89 71 08	 mov	 DWORD PTR [ecx+8], esi
$LN49@Insert_nod:

; 499  :         }
; 500  : 
; 501  :         _Pnode->_Left       = _Wherenode;

  001c7	89 16		 mov	 DWORD PTR [esi], edx
$LN81@Insert_nod:

; 693  :             }
; 694  :         }
; 695  : 
; 696  :         for (_Nodeptr _Pnode = _Newnode; _Pnode->_Parent->_Color == _Red;) {

  001c9	89 72 04	 mov	 DWORD PTR [edx+4], esi
$LN2@Insert_nod:
  001cc	8b 48 04	 mov	 ecx, DWORD PTR [eax+4]
  001cf	80 79 0c 00	 cmp	 BYTE PTR [ecx+12], 0
  001d3	0f 84 87 fe ff
	ff		 je	 $LL4@Insert_nod
  001d9	5e		 pop	 esi
$LN3@Insert_nod:

; 730  :                 }
; 731  :             }
; 732  :         }
; 733  : 
; 734  :         _Head->_Parent->_Color = _Black; // root is always black

  001da	8b 45 fc	 mov	 eax, DWORD PTR __Head$1$[ebp]
  001dd	8b 40 04	 mov	 eax, DWORD PTR [eax+4]
  001e0	c6 40 0c 01	 mov	 BYTE PTR [eax+12], 1

; 735  :         return _Newnode;
; 736  :     }

  001e4	8b c7		 mov	 eax, edi
  001e6	5f		 pop	 edi
  001e7	5b		 pop	 ebx
  001e8	8b e5		 mov	 esp, ebp
  001ea	5d		 pop	 ebp
  001eb	c2 0c 00	 ret	 12			; 0000000cH
?_Insert_node@?$_Tree_val@U?$_Tree_simple_types@U?$pair@$$CBKH@std@@@std@@@std@@QAEPAU?$_Tree_node@U?$pair@$$CBKH@std@@PAX@2@U?$_Tree_id@PAU?$_Tree_node@U?$pair@$$CBKH@std@@PAX@std@@@2@QAU32@@Z ENDP ; std::_Tree_val<std::_Tree_simple_types<std::pair<unsigned long const ,int> > >::_Insert_node
_TEXT	ENDS
; Function compile flags: /Ogtp
; File C:\Program Files\Microsoft Visual Studio\2022\Professional\VC\Tools\MSVC\14.44.35207\include\xtree
; File C:\Program Files\Microsoft Visual Studio\2022\Professional\VC\Tools\MSVC\14.44.35207\include\utility
; File C:\Program Files\Microsoft Visual Studio\2022\Professional\VC\Tools\MSVC\14.44.35207\include\xmemory
; File C:\Program Files\Microsoft Visual Studio\2022\Professional\VC\Tools\MSVC\14.44.35207\include\xtree
; File C:\Program Files\Microsoft Visual Studio\2022\Professional\VC\Tools\MSVC\14.44.35207\include\xmemory
; File C:\Program Files\Microsoft Visual Studio\2022\Professional\VC\Tools\MSVC\14.44.35207\include\xtree
;	COMDAT ??1?$_Tree@V?$_Tmap_traits@KHU?$less@K@std@@V?$allocator@U?$pair@$$CBKH@std@@@2@$0A@@std@@@std@@QAE@XZ
_TEXT	SEGMENT
??1?$_Tree@V?$_Tmap_traits@KHU?$less@K@std@@V?$allocator@U?$pair@$$CBKH@std@@@2@$0A@@std@@@std@@QAE@XZ PROC ; std::_Tree<std::_Tmap_traits<unsigned long,int,std::less<unsigned long>,std::allocator<std::pair<unsigned long const ,int> >,0> >::~_Tree<std::_Tmap_traits<unsigned long,int,std::less<unsigned long>,std::allocator<std::pair<unsigned long const ,int> >,0> >, COMDAT
; _this$ = ecx

; 1095 :     ~_Tree() noexcept {

  00000	56		 push	 esi
  00001	57		 push	 edi
  00002	8b f9		 mov	 edi, ecx

; 777  :         _Erase_tree(_Al, _Myhead->_Parent);

  00004	8b 37		 mov	 esi, DWORD PTR [edi]
  00006	8b 76 04	 mov	 esi, DWORD PTR [esi+4]

; 768  :         while (!_Rootnode->_Isnil) { // free subtrees, then node

  00009	80 7e 0d 00	 cmp	 BYTE PTR [esi+13], 0
  0000d	75 21		 jne	 SHORT $LN61@Tree
  0000f	90		 npad	 1
$LL8@Tree:

; 769  :             _Erase_tree(_Al, _Rootnode->_Right);

  00010	ff 76 08	 push	 DWORD PTR [esi+8]
  00013	8b cf		 mov	 ecx, edi
  00015	57		 push	 edi
  00016	e8 00 00 00 00	 call	 ??$_Erase_tree@V?$allocator@U?$_Tree_node@U?$pair@$$CBKH@std@@PAX@std@@@std@@@?$_Tree_val@U?$_Tree_simple_types@U?$pair@$$CBKH@std@@@std@@@std@@QAEXAAV?$allocator@U?$_Tree_node@U?$pair@$$CBKH@std@@PAX@std@@@1@PAU?$_Tree_node@U?$pair@$$CBKH@std@@PAX@1@@Z ; std::_Tree_val<std::_Tree_simple_types<std::pair<unsigned long const ,int> > >::_Erase_tree<std::allocator<std::_Tree_node<std::pair<unsigned long const ,int>,void *> > >
; File C:\Program Files\Microsoft Visual Studio\2022\Professional\VC\Tools\MSVC\14.44.35207\include\utility

; 773  :     _Ty _Old_val = static_cast<_Ty&&>(_Val);

  0001b	8b c6		 mov	 eax, esi

; 774  :     _Val         = static_cast<_Other&&>(_New_val);

  0001d	8b 36		 mov	 esi, DWORD PTR [esi]
; File C:\Program Files\Microsoft Visual Studio\2022\Professional\VC\Tools\MSVC\14.44.35207\include\xmemory

; 289  :         ::operator delete(_Ptr, _Bytes);

  0001f	6a 18		 push	 24			; 00000018H
  00021	50		 push	 eax
  00022	e8 00 00 00 00	 call	 ??3@YAXPAXI@Z		; operator delete
  00027	83 c4 08	 add	 esp, 8
; File C:\Program Files\Microsoft Visual Studio\2022\Professional\VC\Tools\MSVC\14.44.35207\include\xtree

; 768  :         while (!_Rootnode->_Isnil) { // free subtrees, then node

  0002a	80 7e 0d 00	 cmp	 BYTE PTR [esi+13], 0
  0002e	74 e0		 je	 SHORT $LL8@Tree
$LN61@Tree:
; File C:\Program Files\Microsoft Visual Studio\2022\Professional\VC\Tools\MSVC\14.44.35207\include\xmemory

; 289  :         ::operator delete(_Ptr, _Bytes);

  00030	6a 18		 push	 24			; 00000018H
  00032	ff 37		 push	 DWORD PTR [edi]
  00034	e8 00 00 00 00	 call	 ??3@YAXPAXI@Z		; operator delete
  00039	83 c4 08	 add	 esp, 8
  0003c	5f		 pop	 edi
  0003d	5e		 pop	 esi
; File C:\Program Files\Microsoft Visual Studio\2022\Professional\VC\Tools\MSVC\14.44.35207\include\xtree

; 1102 :     }

  0003e	c3		 ret	 0
??1?$_Tree@V?$_Tmap_traits@KHU?$less@K@std@@V?$allocator@U?$pair@$$CBKH@std@@@2@$0A@@std@@@std@@QAE@XZ ENDP ; std::_Tree<std::_Tmap_traits<unsigned long,int,std::less<unsigned long>,std::allocator<std::pair<unsigned long const ,int> >,0> >::~_Tree<std::_Tmap_traits<unsigned long,int,std::less<unsigned long>,std::allocator<std::pair<unsigned long const ,int> >,0> >
_TEXT	ENDS
; Function compile flags: /Ogtp
;	COMDAT ??_GCUltimateWeapon@@UAEPAXI@Z
_TEXT	SEGMENT
___flags$ = 8						; size = 4
??_GCUltimateWeapon@@UAEPAXI@Z PROC			; CUltimateWeapon::`scalar deleting destructor', COMDAT
; _this$ = ecx
  00000	55		 push	 ebp
  00001	8b ec		 mov	 ebp, esp
  00003	56		 push	 esi
  00004	8b f1		 mov	 esi, ecx
  00006	e8 00 00 00 00	 call	 ??1CUltimateWeapon@@UAE@XZ ; CUltimateWeapon::~CUltimateWeapon
  0000b	f6 45 08 01	 test	 BYTE PTR ___flags$[ebp], 1
  0000f	74 0b		 je	 SHORT $LN5@scalar
  00011	6a 3c		 push	 60			; 0000003cH
  00013	56		 push	 esi
  00014	e8 00 00 00 00	 call	 ??3@YAXPAXI@Z		; operator delete
  00019	83 c4 08	 add	 esp, 8
$LN5@scalar:
  0001c	8b c6		 mov	 eax, esi
  0001e	5e		 pop	 esi
  0001f	5d		 pop	 ebp
  00020	c2 04 00	 ret	 4
??_GCUltimateWeapon@@UAEPAXI@Z ENDP			; CUltimateWeapon::`scalar deleting destructor'
_TEXT	ENDS
; Function compile flags: /Ogtp
;	COMDAT ??1?$map@HHU?$less@H@std@@V?$allocator@U?$pair@$$CBHH@std@@@2@@std@@QAE@XZ
_TEXT	SEGMENT
??1?$map@HHU?$less@H@std@@V?$allocator@U?$pair@$$CBHH@std@@@2@@std@@QAE@XZ PROC ; std::map<int,int,std::less<int>,std::allocator<std::pair<int const ,int> > >::~map<int,int,std::less<int>,std::allocator<std::pair<int const ,int> > >, COMDAT
; _this$ = ecx
  00000	e9 00 00 00 00	 jmp	 ??1?$_Tree@V?$_Tmap_traits@HHU?$less@H@std@@V?$allocator@U?$pair@$$CBHH@std@@@2@$0A@@std@@@std@@QAE@XZ ; std::_Tree<std::_Tmap_traits<int,int,std::less<int>,std::allocator<std::pair<int const ,int> >,0> >::~_Tree<std::_Tmap_traits<int,int,std::less<int>,std::allocator<std::pair<int const ,int> >,0> >
??1?$map@HHU?$less@H@std@@V?$allocator@U?$pair@$$CBHH@std@@@2@@std@@QAE@XZ ENDP ; std::map<int,int,std::less<int>,std::allocator<std::pair<int const ,int> > >::~map<int,int,std::less<int>,std::allocator<std::pair<int const ,int> > >
_TEXT	ENDS
; Function compile flags: /Ogtp
; File C:\Program Files\Microsoft Visual Studio\2022\Professional\VC\Tools\MSVC\14.44.35207\include\xtree
;	COMDAT ?_Insert_node@?$_Tree_val@U?$_Tree_simple_types@U?$pair@$$CBHH@std@@@std@@@std@@QAEPAU?$_Tree_node@U?$pair@$$CBHH@std@@PAX@2@U?$_Tree_id@PAU?$_Tree_node@U?$pair@$$CBHH@std@@PAX@std@@@2@QAU32@@Z
_TEXT	SEGMENT
__Head$1$ = -4						; size = 4
__Loc$ = 8						; size = 8
__Newnode$ = 16						; size = 4
?_Insert_node@?$_Tree_val@U?$_Tree_simple_types@U?$pair@$$CBHH@std@@@std@@@std@@QAEPAU?$_Tree_node@U?$pair@$$CBHH@std@@PAX@2@U?$_Tree_id@PAU?$_Tree_node@U?$pair@$$CBHH@std@@PAX@std@@@2@QAU32@@Z PROC ; std::_Tree_val<std::_Tree_simple_types<std::pair<int const ,int> > >::_Insert_node, COMDAT
; _this$ = ecx

; 669  :     _Nodeptr _Insert_node(const _Tree_id<_Nodeptr> _Loc, const _Nodeptr _Newnode) noexcept {

  00000	55		 push	 ebp
  00001	8b ec		 mov	 ebp, esp
  00003	51		 push	 ecx

; 670  :         ++_Mysize;
; 671  :         const auto _Head  = _Myhead;
; 672  :         _Newnode->_Parent = _Loc._Parent;

  00004	8b 55 08	 mov	 edx, DWORD PTR __Loc$[ebp]
  00007	53		 push	 ebx
  00008	8b d9		 mov	 ebx, ecx
  0000a	57		 push	 edi
  0000b	8b 7d 10	 mov	 edi, DWORD PTR __Newnode$[ebp]
  0000e	8b 03		 mov	 eax, DWORD PTR [ebx]
  00010	ff 43 04	 inc	 DWORD PTR [ebx+4]
  00013	89 45 fc	 mov	 DWORD PTR __Head$1$[ebp], eax
  00016	89 57 04	 mov	 DWORD PTR [edi+4], edx

; 673  :         if (_Loc._Parent == _Head) { // first node in tree, just set head values

  00019	3b d0		 cmp	 edx, eax
  0001b	75 16		 jne	 SHORT $LN5@Insert_nod

; 674  :             _Head->_Left     = _Newnode;

  0001d	89 38		 mov	 DWORD PTR [eax], edi

; 675  :             _Head->_Parent   = _Newnode;

  0001f	89 78 04	 mov	 DWORD PTR [eax+4], edi

; 676  :             _Head->_Right    = _Newnode;

  00022	89 78 08	 mov	 DWORD PTR [eax+8], edi

; 735  :         return _Newnode;
; 736  :     }

  00025	8b c7		 mov	 eax, edi
  00027	c6 47 0c 01	 mov	 BYTE PTR [edi+12], 1
  0002b	5f		 pop	 edi
  0002c	5b		 pop	 ebx
  0002d	8b e5		 mov	 esp, ebp
  0002f	5d		 pop	 ebp
  00030	c2 0c 00	 ret	 12			; 0000000cH
$LN5@Insert_nod:

; 677  :             _Newnode->_Color = _Black; // the root is black
; 678  :             return _Newnode;
; 679  :         }
; 680  : 
; 681  :         _STL_INTERNAL_CHECK(_Loc._Child != _Tree_child::_Unused);
; 682  :         if (_Loc._Child == _Tree_child::_Right) { // add to right of _Loc._Parent

  00033	83 7d 0c 00	 cmp	 DWORD PTR __Loc$[ebp+4], 0
  00037	75 0d		 jne	 SHORT $LN6@Insert_nod

; 683  :             _STL_INTERNAL_CHECK(_Loc._Parent->_Right->_Isnil);
; 684  :             _Loc._Parent->_Right = _Newnode;

  00039	89 7a 08	 mov	 DWORD PTR [edx+8], edi

; 685  :             if (_Loc._Parent == _Head->_Right) { // remember rightmost node

  0003c	3b 50 08	 cmp	 edx, DWORD PTR [eax+8]
  0003f	75 0d		 jne	 SHORT $LN9@Insert_nod

; 686  :                 _Head->_Right = _Newnode;

  00041	89 78 08	 mov	 DWORD PTR [eax+8], edi

; 687  :             }
; 688  :         } else { // add to left of _Loc._Parent

  00044	eb 08		 jmp	 SHORT $LN9@Insert_nod
$LN6@Insert_nod:

; 689  :             _STL_INTERNAL_CHECK(_Loc._Parent->_Left->_Isnil);
; 690  :             _Loc._Parent->_Left = _Newnode;

  00046	89 3a		 mov	 DWORD PTR [edx], edi

; 691  :             if (_Loc._Parent == _Head->_Left) { // remember leftmost node

  00048	3b 10		 cmp	 edx, DWORD PTR [eax]
  0004a	75 02		 jne	 SHORT $LN9@Insert_nod

; 692  :                 _Head->_Left = _Newnode;

  0004c	89 38		 mov	 DWORD PTR [eax], edi
$LN9@Insert_nod:

; 693  :             }
; 694  :         }
; 695  : 
; 696  :         for (_Nodeptr _Pnode = _Newnode; _Pnode->_Parent->_Color == _Red;) {

  0004e	8b 4f 04	 mov	 ecx, DWORD PTR [edi+4]
  00051	8b c7		 mov	 eax, edi
  00053	80 79 0c 00	 cmp	 BYTE PTR [ecx+12], 0
  00057	0f 85 7d 01 00
	00		 jne	 $LN3@Insert_nod
  0005d	56		 push	 esi
  0005e	66 90		 npad	 2
$LL4@Insert_nod:

; 697  :             if (_Pnode->_Parent == _Pnode->_Parent->_Parent->_Left) { // fixup red-red in left subtree

  00060	8b 50 04	 mov	 edx, DWORD PTR [eax+4]
  00063	8b 72 04	 mov	 esi, DWORD PTR [edx+4]
  00066	8b 0e		 mov	 ecx, DWORD PTR [esi]
  00068	3b d1		 cmp	 edx, ecx
  0006a	0f 85 aa 00 00
	00		 jne	 $LN10@Insert_nod

; 698  :                 const auto _Parent_sibling = _Pnode->_Parent->_Parent->_Right;

  00070	8b 4e 08	 mov	 ecx, DWORD PTR [esi+8]

; 699  :                 if (_Parent_sibling->_Color == _Red) { // parent's sibling has two red children, blacken both

  00073	80 79 0c 00	 cmp	 BYTE PTR [ecx+12], 0
  00077	0f 84 a3 00 00
	00		 je	 $LN82@Insert_nod

; 700  :                     _Pnode->_Parent->_Color          = _Black;
; 701  :                     _Parent_sibling->_Color          = _Black;
; 702  :                     _Pnode->_Parent->_Parent->_Color = _Red;
; 703  :                     _Pnode                           = _Pnode->_Parent->_Parent;
; 704  :                 } else { // parent's sibling has red and black children
; 705  :                     if (_Pnode == _Pnode->_Parent->_Right) { // rotate right child to left

  0007d	8b 72 08	 mov	 esi, DWORD PTR [edx+8]
  00080	3b c6		 cmp	 eax, esi
  00082	75 37		 jne	 SHORT $LN57@Insert_nod

; 485  :         _Wherenode->_Right = _Pnode->_Left;

  00084	8b 0e		 mov	 ecx, DWORD PTR [esi]

; 706  :                         _Pnode = _Pnode->_Parent;

  00086	8b c2		 mov	 eax, edx

; 485  :         _Wherenode->_Right = _Pnode->_Left;

  00088	89 4a 08	 mov	 DWORD PTR [edx+8], ecx

; 486  : 
; 487  :         if (!_Pnode->_Left->_Isnil) {

  0008b	8b 0e		 mov	 ecx, DWORD PTR [esi]
  0008d	80 79 0d 00	 cmp	 BYTE PTR [ecx+13], 0
  00091	75 03		 jne	 SHORT $LN21@Insert_nod

; 488  :             _Pnode->_Left->_Parent = _Wherenode;

  00093	89 41 04	 mov	 DWORD PTR [ecx+4], eax
$LN21@Insert_nod:

; 489  :         }
; 490  : 
; 491  :         _Pnode->_Parent = _Wherenode->_Parent;

  00096	8b 4a 04	 mov	 ecx, DWORD PTR [edx+4]
  00099	89 4e 04	 mov	 DWORD PTR [esi+4], ecx

; 492  : 
; 493  :         if (_Wherenode == _Myhead->_Parent) {

  0009c	8b 0b		 mov	 ecx, DWORD PTR [ebx]
  0009e	3b 41 04	 cmp	 eax, DWORD PTR [ecx+4]
  000a1	75 05		 jne	 SHORT $LN22@Insert_nod

; 494  :             _Myhead->_Parent = _Pnode;

  000a3	89 71 04	 mov	 DWORD PTR [ecx+4], esi
  000a6	eb 0e		 jmp	 SHORT $LN25@Insert_nod
$LN22@Insert_nod:

; 495  :         } else if (_Wherenode == _Wherenode->_Parent->_Left) {

  000a8	8b 4a 04	 mov	 ecx, DWORD PTR [edx+4]
  000ab	3b 01		 cmp	 eax, DWORD PTR [ecx]
  000ad	75 04		 jne	 SHORT $LN24@Insert_nod

; 496  :             _Wherenode->_Parent->_Left = _Pnode;

  000af	89 31		 mov	 DWORD PTR [ecx], esi

; 497  :         } else {

  000b1	eb 03		 jmp	 SHORT $LN25@Insert_nod
$LN24@Insert_nod:

; 498  :             _Wherenode->_Parent->_Right = _Pnode;

  000b3	89 71 08	 mov	 DWORD PTR [ecx+8], esi
$LN25@Insert_nod:

; 499  :         }
; 500  : 
; 501  :         _Pnode->_Left       = _Wherenode;

  000b6	89 06		 mov	 DWORD PTR [esi], eax

; 502  :         _Wherenode->_Parent = _Pnode;

  000b8	89 70 04	 mov	 DWORD PTR [eax+4], esi
$LN57@Insert_nod:

; 707  :                         _Lrotate(_Pnode);
; 708  :                     }
; 709  : 
; 710  :                     _Pnode->_Parent->_Color          = _Black; // propagate red up

  000bb	8b 48 04	 mov	 ecx, DWORD PTR [eax+4]
  000be	c6 41 0c 01	 mov	 BYTE PTR [ecx+12], 1

; 711  :                     _Pnode->_Parent->_Parent->_Color = _Red;

  000c2	8b 48 04	 mov	 ecx, DWORD PTR [eax+4]
  000c5	8b 49 04	 mov	 ecx, DWORD PTR [ecx+4]
  000c8	c6 41 0c 00	 mov	 BYTE PTR [ecx+12], 0

; 712  :                     _Rrotate(_Pnode->_Parent->_Parent);

  000cc	8b 48 04	 mov	 ecx, DWORD PTR [eax+4]
  000cf	8b 51 04	 mov	 edx, DWORD PTR [ecx+4]

; 506  :         _Nodeptr _Pnode   = _Wherenode->_Left;

  000d2	8b 32		 mov	 esi, DWORD PTR [edx]

; 507  :         _Wherenode->_Left = _Pnode->_Right;

  000d4	8b 4e 08	 mov	 ecx, DWORD PTR [esi+8]
  000d7	89 0a		 mov	 DWORD PTR [edx], ecx

; 508  : 
; 509  :         if (!_Pnode->_Right->_Isnil) {

  000d9	8b 4e 08	 mov	 ecx, DWORD PTR [esi+8]
  000dc	80 79 0d 00	 cmp	 BYTE PTR [ecx+13], 0
  000e0	75 03		 jne	 SHORT $LN29@Insert_nod

; 510  :             _Pnode->_Right->_Parent = _Wherenode;

  000e2	89 51 04	 mov	 DWORD PTR [ecx+4], edx
$LN29@Insert_nod:

; 511  :         }
; 512  : 
; 513  :         _Pnode->_Parent = _Wherenode->_Parent;

  000e5	8b 4a 04	 mov	 ecx, DWORD PTR [edx+4]
  000e8	89 4e 04	 mov	 DWORD PTR [esi+4], ecx

; 514  : 
; 515  :         if (_Wherenode == _Myhead->_Parent) {

  000eb	8b 0b		 mov	 ecx, DWORD PTR [ebx]
  000ed	3b 51 04	 cmp	 edx, DWORD PTR [ecx+4]
  000f0	75 0b		 jne	 SHORT $LN30@Insert_nod

; 516  :             _Myhead->_Parent = _Pnode;

  000f2	89 71 04	 mov	 DWORD PTR [ecx+4], esi

; 521  :         }
; 522  : 
; 523  :         _Pnode->_Right      = _Wherenode;

  000f5	89 56 08	 mov	 DWORD PTR [esi+8], edx

; 713  :                 }
; 714  :             } else { // fixup red-red in right subtree

  000f8	e9 cc 00 00 00	 jmp	 $LN81@Insert_nod
$LN30@Insert_nod:

; 517  :         } else if (_Wherenode == _Wherenode->_Parent->_Right) {

  000fd	8b 4a 04	 mov	 ecx, DWORD PTR [edx+4]
  00100	3b 51 08	 cmp	 edx, DWORD PTR [ecx+8]
  00103	75 0b		 jne	 SHORT $LN32@Insert_nod

; 518  :             _Wherenode->_Parent->_Right = _Pnode;

  00105	89 71 08	 mov	 DWORD PTR [ecx+8], esi

; 521  :         }
; 522  : 
; 523  :         _Pnode->_Right      = _Wherenode;

  00108	89 56 08	 mov	 DWORD PTR [esi+8], edx

; 713  :                 }
; 714  :             } else { // fixup red-red in right subtree

  0010b	e9 b9 00 00 00	 jmp	 $LN81@Insert_nod
$LN32@Insert_nod:

; 520  :             _Wherenode->_Parent->_Left = _Pnode;

  00110	89 31		 mov	 DWORD PTR [ecx], esi

; 521  :         }
; 522  : 
; 523  :         _Pnode->_Right      = _Wherenode;

  00112	89 56 08	 mov	 DWORD PTR [esi+8], edx

; 713  :                 }
; 714  :             } else { // fixup red-red in right subtree

  00115	e9 af 00 00 00	 jmp	 $LN81@Insert_nod
$LN10@Insert_nod:

; 715  :                 const auto _Parent_sibling = _Pnode->_Parent->_Parent->_Left;
; 716  :                 if (_Parent_sibling->_Color == _Red) { // parent's sibling has two red children, blacken both

  0011a	80 79 0c 00	 cmp	 BYTE PTR [ecx+12], 0
  0011e	75 1d		 jne	 SHORT $LN15@Insert_nod
$LN82@Insert_nod:

; 693  :             }
; 694  :         }
; 695  : 
; 696  :         for (_Nodeptr _Pnode = _Newnode; _Pnode->_Parent->_Color == _Red;) {

  00120	c6 42 0c 01	 mov	 BYTE PTR [edx+12], 1
  00124	c6 41 0c 01	 mov	 BYTE PTR [ecx+12], 1
  00128	8b 48 04	 mov	 ecx, DWORD PTR [eax+4]
  0012b	8b 49 04	 mov	 ecx, DWORD PTR [ecx+4]
  0012e	c6 41 0c 00	 mov	 BYTE PTR [ecx+12], 0
  00132	8b 48 04	 mov	 ecx, DWORD PTR [eax+4]
  00135	8b 41 04	 mov	 eax, DWORD PTR [ecx+4]
  00138	e9 8f 00 00 00	 jmp	 $LN2@Insert_nod
$LN15@Insert_nod:

; 717  :                     _Pnode->_Parent->_Color          = _Black;
; 718  :                     _Parent_sibling->_Color          = _Black;
; 719  :                     _Pnode->_Parent->_Parent->_Color = _Red;
; 720  :                     _Pnode                           = _Pnode->_Parent->_Parent;
; 721  :                 } else { // parent's sibling has red and black children
; 722  :                     if (_Pnode == _Pnode->_Parent->_Left) { // rotate left child to right

  0013d	8b 32		 mov	 esi, DWORD PTR [edx]
  0013f	3b c6		 cmp	 eax, esi
  00141	75 3a		 jne	 SHORT $LN42@Insert_nod

; 507  :         _Wherenode->_Left = _Pnode->_Right;

  00143	8b 4e 08	 mov	 ecx, DWORD PTR [esi+8]

; 723  :                         _Pnode = _Pnode->_Parent;

  00146	8b c2		 mov	 eax, edx

; 507  :         _Wherenode->_Left = _Pnode->_Right;

  00148	89 08		 mov	 DWORD PTR [eax], ecx

; 508  : 
; 509  :         if (!_Pnode->_Right->_Isnil) {

  0014a	8b 4e 08	 mov	 ecx, DWORD PTR [esi+8]
  0014d	80 79 0d 00	 cmp	 BYTE PTR [ecx+13], 0
  00151	75 03		 jne	 SHORT $LN37@Insert_nod

; 510  :             _Pnode->_Right->_Parent = _Wherenode;

  00153	89 41 04	 mov	 DWORD PTR [ecx+4], eax
$LN37@Insert_nod:

; 511  :         }
; 512  : 
; 513  :         _Pnode->_Parent = _Wherenode->_Parent;

  00156	8b 4a 04	 mov	 ecx, DWORD PTR [edx+4]
  00159	89 4e 04	 mov	 DWORD PTR [esi+4], ecx

; 514  : 
; 515  :         if (_Wherenode == _Myhead->_Parent) {

  0015c	8b 0b		 mov	 ecx, DWORD PTR [ebx]
  0015e	3b 41 04	 cmp	 eax, DWORD PTR [ecx+4]
  00161	75 05		 jne	 SHORT $LN38@Insert_nod

; 516  :             _Myhead->_Parent = _Pnode;

  00163	89 71 04	 mov	 DWORD PTR [ecx+4], esi
  00166	eb 0f		 jmp	 SHORT $LN41@Insert_nod
$LN38@Insert_nod:

; 517  :         } else if (_Wherenode == _Wherenode->_Parent->_Right) {

  00168	8b 4a 04	 mov	 ecx, DWORD PTR [edx+4]
  0016b	3b 41 08	 cmp	 eax, DWORD PTR [ecx+8]
  0016e	75 05		 jne	 SHORT $LN40@Insert_nod

; 518  :             _Wherenode->_Parent->_Right = _Pnode;

  00170	89 71 08	 mov	 DWORD PTR [ecx+8], esi

; 519  :         } else {

  00173	eb 02		 jmp	 SHORT $LN41@Insert_nod
$LN40@Insert_nod:

; 520  :             _Wherenode->_Parent->_Left = _Pnode;

  00175	89 31		 mov	 DWORD PTR [ecx], esi
$LN41@Insert_nod:

; 521  :         }
; 522  : 
; 523  :         _Pnode->_Right      = _Wherenode;

  00177	89 46 08	 mov	 DWORD PTR [esi+8], eax

; 524  :         _Wherenode->_Parent = _Pnode;

  0017a	89 70 04	 mov	 DWORD PTR [eax+4], esi
$LN42@Insert_nod:

; 724  :                         _Rrotate(_Pnode);
; 725  :                     }
; 726  : 
; 727  :                     _Pnode->_Parent->_Color          = _Black; // propagate red up

  0017d	8b 48 04	 mov	 ecx, DWORD PTR [eax+4]
  00180	c6 41 0c 01	 mov	 BYTE PTR [ecx+12], 1

; 728  :                     _Pnode->_Parent->_Parent->_Color = _Red;

  00184	8b 48 04	 mov	 ecx, DWORD PTR [eax+4]
  00187	8b 49 04	 mov	 ecx, DWORD PTR [ecx+4]
  0018a	c6 41 0c 00	 mov	 BYTE PTR [ecx+12], 0

; 729  :                     _Lrotate(_Pnode->_Parent->_Parent);

  0018e	8b 48 04	 mov	 ecx, DWORD PTR [eax+4]
  00191	8b 51 04	 mov	 edx, DWORD PTR [ecx+4]

; 484  :         _Nodeptr _Pnode    = _Wherenode->_Right;

  00194	8b 72 08	 mov	 esi, DWORD PTR [edx+8]

; 485  :         _Wherenode->_Right = _Pnode->_Left;

  00197	8b 0e		 mov	 ecx, DWORD PTR [esi]
  00199	89 4a 08	 mov	 DWORD PTR [edx+8], ecx

; 486  : 
; 487  :         if (!_Pnode->_Left->_Isnil) {

  0019c	8b 0e		 mov	 ecx, DWORD PTR [esi]
  0019e	80 79 0d 00	 cmp	 BYTE PTR [ecx+13], 0
  001a2	75 03		 jne	 SHORT $LN45@Insert_nod

; 488  :             _Pnode->_Left->_Parent = _Wherenode;

  001a4	89 51 04	 mov	 DWORD PTR [ecx+4], edx
$LN45@Insert_nod:

; 489  :         }
; 490  : 
; 491  :         _Pnode->_Parent = _Wherenode->_Parent;

  001a7	8b 4a 04	 mov	 ecx, DWORD PTR [edx+4]
  001aa	89 4e 04	 mov	 DWORD PTR [esi+4], ecx

; 492  : 
; 493  :         if (_Wherenode == _Myhead->_Parent) {

  001ad	8b 0b		 mov	 ecx, DWORD PTR [ebx]
  001af	3b 51 04	 cmp	 edx, DWORD PTR [ecx+4]
  001b2	75 05		 jne	 SHORT $LN46@Insert_nod

; 494  :             _Myhead->_Parent = _Pnode;

  001b4	89 71 04	 mov	 DWORD PTR [ecx+4], esi
  001b7	eb 0e		 jmp	 SHORT $LN49@Insert_nod
$LN46@Insert_nod:

; 495  :         } else if (_Wherenode == _Wherenode->_Parent->_Left) {

  001b9	8b 4a 04	 mov	 ecx, DWORD PTR [edx+4]
  001bc	3b 11		 cmp	 edx, DWORD PTR [ecx]
  001be	75 04		 jne	 SHORT $LN48@Insert_nod

; 496  :             _Wherenode->_Parent->_Left = _Pnode;

  001c0	89 31		 mov	 DWORD PTR [ecx], esi

; 497  :         } else {

  001c2	eb 03		 jmp	 SHORT $LN49@Insert_nod
$LN48@Insert_nod:

; 498  :             _Wherenode->_Parent->_Right = _Pnode;

  001c4	89 71 08	 mov	 DWORD PTR [ecx+8], esi
$LN49@Insert_nod:

; 499  :         }
; 500  : 
; 501  :         _Pnode->_Left       = _Wherenode;

  001c7	89 16		 mov	 DWORD PTR [esi], edx
$LN81@Insert_nod:

; 693  :             }
; 694  :         }
; 695  : 
; 696  :         for (_Nodeptr _Pnode = _Newnode; _Pnode->_Parent->_Color == _Red;) {

  001c9	89 72 04	 mov	 DWORD PTR [edx+4], esi
$LN2@Insert_nod:
  001cc	8b 48 04	 mov	 ecx, DWORD PTR [eax+4]
  001cf	80 79 0c 00	 cmp	 BYTE PTR [ecx+12], 0
  001d3	0f 84 87 fe ff
	ff		 je	 $LL4@Insert_nod
  001d9	5e		 pop	 esi
$LN3@Insert_nod:

; 730  :                 }
; 731  :             }
; 732  :         }
; 733  : 
; 734  :         _Head->_Parent->_Color = _Black; // root is always black

  001da	8b 45 fc	 mov	 eax, DWORD PTR __Head$1$[ebp]
  001dd	8b 40 04	 mov	 eax, DWORD PTR [eax+4]
  001e0	c6 40 0c 01	 mov	 BYTE PTR [eax+12], 1

; 735  :         return _Newnode;
; 736  :     }

  001e4	8b c7		 mov	 eax, edi
  001e6	5f		 pop	 edi
  001e7	5b		 pop	 ebx
  001e8	8b e5		 mov	 esp, ebp
  001ea	5d		 pop	 ebp
  001eb	c2 0c 00	 ret	 12			; 0000000cH
?_Insert_node@?$_Tree_val@U?$_Tree_simple_types@U?$pair@$$CBHH@std@@@std@@@std@@QAEPAU?$_Tree_node@U?$pair@$$CBHH@std@@PAX@2@U?$_Tree_id@PAU?$_Tree_node@U?$pair@$$CBHH@std@@PAX@std@@@2@QAU32@@Z ENDP ; std::_Tree_val<std::_Tree_simple_types<std::pair<int const ,int> > >::_Insert_node
_TEXT	ENDS
; Function compile flags: /Ogtp
; File C:\Program Files\Microsoft Visual Studio\2022\Professional\VC\Tools\MSVC\14.44.35207\include\xtree
; File C:\Program Files\Microsoft Visual Studio\2022\Professional\VC\Tools\MSVC\14.44.35207\include\type_traits
; File C:\Program Files\Microsoft Visual Studio\2022\Professional\VC\Tools\MSVC\14.44.35207\include\xtree
;	COMDAT ?find@?$_Tree@V?$_Tmap_traits@HHU?$less@H@std@@V?$allocator@U?$pair@$$CBHH@std@@@2@$0A@@std@@@std@@QAE?AV?$_Tree_iterator@V?$_Tree_val@U?$_Tree_simple_types@U?$pair@$$CBHH@std@@@std@@@std@@@2@ABH@Z
_TEXT	SEGMENT
__Loc$1 = -12						; size = 12
___$ReturnUdt$ = 8					; size = 4
__Keyval$ = 12						; size = 4
?find@?$_Tree@V?$_Tmap_traits@HHU?$less@H@std@@V?$allocator@U?$pair@$$CBHH@std@@@2@$0A@@std@@@std@@QAE?AV?$_Tree_iterator@V?$_Tree_val@U?$_Tree_simple_types@U?$pair@$$CBHH@std@@@std@@@std@@@2@ABH@Z PROC ; std::_Tree<std::_Tmap_traits<int,int,std::less<int>,std::allocator<std::pair<int const ,int> >,0> >::find, COMDAT
; _this$ = ecx

; 1393 :     _NODISCARD iterator find(const key_type& _Keyval) {

  00000	55		 push	 ebp
  00001	8b ec		 mov	 ebp, esp
  00003	83 ec 0c	 sub	 esp, 12			; 0000000cH
  00006	56		 push	 esi

; 1384 :         const _Tree_find_result<_Nodeptr> _Loc = _Find_lower_bound(_Keyval);

  00007	8b 75 0c	 mov	 esi, DWORD PTR __Keyval$[ebp]
  0000a	8d 45 f4	 lea	 eax, DWORD PTR __Loc$1[ebp]

; 1393 :     _NODISCARD iterator find(const key_type& _Keyval) {

  0000d	57		 push	 edi

; 1384 :         const _Tree_find_result<_Nodeptr> _Loc = _Find_lower_bound(_Keyval);

  0000e	56		 push	 esi
  0000f	50		 push	 eax

; 1393 :     _NODISCARD iterator find(const key_type& _Keyval) {

  00010	8b f9		 mov	 edi, ecx

; 1384 :         const _Tree_find_result<_Nodeptr> _Loc = _Find_lower_bound(_Keyval);

  00012	e8 00 00 00 00	 call	 ??$_Find_lower_bound@H@?$_Tree@V?$_Tmap_traits@HHU?$less@H@std@@V?$allocator@U?$pair@$$CBHH@std@@@2@$0A@@std@@@std@@IBE?AU?$_Tree_find_result@PAU?$_Tree_node@U?$pair@$$CBHH@std@@PAX@std@@@1@ABH@Z ; std::_Tree<std::_Tmap_traits<int,int,std::less<int>,std::allocator<std::pair<int const ,int> >,0> >::_Find_lower_bound<int>

; 1624 :         return !_Bound->_Isnil && !_DEBUG_LT_PRED(_Getcomp(), _Keyval, _Traits::_Kfn(_Bound->_Myval));

  00017	8b 55 fc	 mov	 edx, DWORD PTR __Loc$1[ebp+8]
  0001a	80 7a 0d 00	 cmp	 BYTE PTR [edx+13], 0
  0001e	75 14		 jne	 SHORT $LN4@find
; File C:\Program Files\Microsoft Visual Studio\2022\Professional\VC\Tools\MSVC\14.44.35207\include\type_traits

; 2380 :         return _Left < _Right;

  00020	8b 06		 mov	 eax, DWORD PTR [esi]
  00022	3b 42 10	 cmp	 eax, DWORD PTR [edx+16]
; File C:\Program Files\Microsoft Visual Studio\2022\Professional\VC\Tools\MSVC\14.44.35207\include\xtree

; 1624 :         return !_Bound->_Isnil && !_DEBUG_LT_PRED(_Getcomp(), _Keyval, _Traits::_Kfn(_Bound->_Myval));

  00025	7c 0d		 jl	 SHORT $LN4@find

; 37   :     _Tree_unchecked_const_iterator(_Nodeptr _Pnode, const _Mytree* _Plist) noexcept : _Ptr(_Pnode) {

  00027	8b 45 08	 mov	 eax, DWORD PTR ___$ReturnUdt$[ebp]
  0002a	5f		 pop	 edi

; 1394 :         return iterator(_Find(_Keyval), _Get_scary());
; 1395 :     }

  0002b	5e		 pop	 esi

; 37   :     _Tree_unchecked_const_iterator(_Nodeptr _Pnode, const _Mytree* _Plist) noexcept : _Ptr(_Pnode) {

  0002c	89 10		 mov	 DWORD PTR [eax], edx

; 1394 :         return iterator(_Find(_Keyval), _Get_scary());
; 1395 :     }

  0002e	8b e5		 mov	 esp, ebp
  00030	5d		 pop	 ebp
  00031	c2 08 00	 ret	 8
$LN4@find:

; 37   :     _Tree_unchecked_const_iterator(_Nodeptr _Pnode, const _Mytree* _Plist) noexcept : _Ptr(_Pnode) {

  00034	8b 45 08	 mov	 eax, DWORD PTR ___$ReturnUdt$[ebp]

; 1389 :         return _Get_scary()->_Myhead;

  00037	8b 0f		 mov	 ecx, DWORD PTR [edi]
  00039	5f		 pop	 edi

; 1394 :         return iterator(_Find(_Keyval), _Get_scary());
; 1395 :     }

  0003a	5e		 pop	 esi

; 37   :     _Tree_unchecked_const_iterator(_Nodeptr _Pnode, const _Mytree* _Plist) noexcept : _Ptr(_Pnode) {

  0003b	89 08		 mov	 DWORD PTR [eax], ecx

; 1394 :         return iterator(_Find(_Keyval), _Get_scary());
; 1395 :     }

  0003d	8b e5		 mov	 esp, ebp
  0003f	5d		 pop	 ebp
  00040	c2 08 00	 ret	 8
?find@?$_Tree@V?$_Tmap_traits@HHU?$less@H@std@@V?$allocator@U?$pair@$$CBHH@std@@@2@$0A@@std@@@std@@QAE?AV?$_Tree_iterator@V?$_Tree_val@U?$_Tree_simple_types@U?$pair@$$CBHH@std@@@std@@@std@@@2@ABH@Z ENDP ; std::_Tree<std::_Tmap_traits<int,int,std::less<int>,std::allocator<std::pair<int const ,int> >,0> >::find
_TEXT	ENDS
; Function compile flags: /Ogtp
; File C:\Program Files\Microsoft Visual Studio\2022\Professional\VC\Tools\MSVC\14.44.35207\include\xtree
; File C:\Program Files\Microsoft Visual Studio\2022\Professional\VC\Tools\MSVC\14.44.35207\include\utility
; File C:\Program Files\Microsoft Visual Studio\2022\Professional\VC\Tools\MSVC\14.44.35207\include\xmemory
; File C:\Program Files\Microsoft Visual Studio\2022\Professional\VC\Tools\MSVC\14.44.35207\include\xtree
; File C:\Program Files\Microsoft Visual Studio\2022\Professional\VC\Tools\MSVC\14.44.35207\include\xmemory
; File C:\Program Files\Microsoft Visual Studio\2022\Professional\VC\Tools\MSVC\14.44.35207\include\xtree
;	COMDAT ??1?$_Tree@V?$_Tmap_traits@HHU?$less@H@std@@V?$allocator@U?$pair@$$CBHH@std@@@2@$0A@@std@@@std@@QAE@XZ
_TEXT	SEGMENT
??1?$_Tree@V?$_Tmap_traits@HHU?$less@H@std@@V?$allocator@U?$pair@$$CBHH@std@@@2@$0A@@std@@@std@@QAE@XZ PROC ; std::_Tree<std::_Tmap_traits<int,int,std::less<int>,std::allocator<std::pair<int const ,int> >,0> >::~_Tree<std::_Tmap_traits<int,int,std::less<int>,std::allocator<std::pair<int const ,int> >,0> >, COMDAT
; _this$ = ecx

; 1095 :     ~_Tree() noexcept {

  00000	56		 push	 esi
  00001	57		 push	 edi
  00002	8b f9		 mov	 edi, ecx

; 777  :         _Erase_tree(_Al, _Myhead->_Parent);

  00004	8b 37		 mov	 esi, DWORD PTR [edi]
  00006	8b 76 04	 mov	 esi, DWORD PTR [esi+4]

; 768  :         while (!_Rootnode->_Isnil) { // free subtrees, then node

  00009	80 7e 0d 00	 cmp	 BYTE PTR [esi+13], 0
  0000d	75 21		 jne	 SHORT $LN61@Tree
  0000f	90		 npad	 1
$LL8@Tree:

; 769  :             _Erase_tree(_Al, _Rootnode->_Right);

  00010	ff 76 08	 push	 DWORD PTR [esi+8]
  00013	8b cf		 mov	 ecx, edi
  00015	57		 push	 edi
  00016	e8 00 00 00 00	 call	 ??$_Erase_tree@V?$allocator@U?$_Tree_node@U?$pair@$$CBHH@std@@PAX@std@@@std@@@?$_Tree_val@U?$_Tree_simple_types@U?$pair@$$CBHH@std@@@std@@@std@@QAEXAAV?$allocator@U?$_Tree_node@U?$pair@$$CBHH@std@@PAX@std@@@1@PAU?$_Tree_node@U?$pair@$$CBHH@std@@PAX@1@@Z ; std::_Tree_val<std::_Tree_simple_types<std::pair<int const ,int> > >::_Erase_tree<std::allocator<std::_Tree_node<std::pair<int const ,int>,void *> > >
; File C:\Program Files\Microsoft Visual Studio\2022\Professional\VC\Tools\MSVC\14.44.35207\include\utility

; 773  :     _Ty _Old_val = static_cast<_Ty&&>(_Val);

  0001b	8b c6		 mov	 eax, esi

; 774  :     _Val         = static_cast<_Other&&>(_New_val);

  0001d	8b 36		 mov	 esi, DWORD PTR [esi]
; File C:\Program Files\Microsoft Visual Studio\2022\Professional\VC\Tools\MSVC\14.44.35207\include\xmemory

; 289  :         ::operator delete(_Ptr, _Bytes);

  0001f	6a 18		 push	 24			; 00000018H
  00021	50		 push	 eax
  00022	e8 00 00 00 00	 call	 ??3@YAXPAXI@Z		; operator delete
  00027	83 c4 08	 add	 esp, 8
; File C:\Program Files\Microsoft Visual Studio\2022\Professional\VC\Tools\MSVC\14.44.35207\include\xtree

; 768  :         while (!_Rootnode->_Isnil) { // free subtrees, then node

  0002a	80 7e 0d 00	 cmp	 BYTE PTR [esi+13], 0
  0002e	74 e0		 je	 SHORT $LL8@Tree
$LN61@Tree:
; File C:\Program Files\Microsoft Visual Studio\2022\Professional\VC\Tools\MSVC\14.44.35207\include\xmemory

; 289  :         ::operator delete(_Ptr, _Bytes);

  00030	6a 18		 push	 24			; 00000018H
  00032	ff 37		 push	 DWORD PTR [edi]
  00034	e8 00 00 00 00	 call	 ??3@YAXPAXI@Z		; operator delete
  00039	83 c4 08	 add	 esp, 8
  0003c	5f		 pop	 edi
  0003d	5e		 pop	 esi
; File C:\Program Files\Microsoft Visual Studio\2022\Professional\VC\Tools\MSVC\14.44.35207\include\xtree

; 1102 :     }

  0003e	c3		 ret	 0
??1?$_Tree@V?$_Tmap_traits@HHU?$less@H@std@@V?$allocator@U?$pair@$$CBHH@std@@@2@$0A@@std@@@std@@QAE@XZ ENDP ; std::_Tree<std::_Tmap_traits<int,int,std::less<int>,std::allocator<std::pair<int const ,int> >,0> >::~_Tree<std::_Tmap_traits<int,int,std::less<int>,std::allocator<std::pair<int const ,int> >,0> >
_TEXT	ENDS
; Function compile flags: /Ogtp
;	COMDAT ??1?$map@HU__MAKEGEMPROB@CUltimateWeapon@@U?$less@H@std@@V?$allocator@U?$pair@$$CBHU__MAKEGEMPROB@CUltimateWeapon@@@std@@@4@@std@@QAE@XZ
_TEXT	SEGMENT
??1?$map@HU__MAKEGEMPROB@CUltimateWeapon@@U?$less@H@std@@V?$allocator@U?$pair@$$CBHU__MAKEGEMPROB@CUltimateWeapon@@@std@@@4@@std@@QAE@XZ PROC ; std::map<int,CUltimateWeapon::__MAKEGEMPROB,std::less<int>,std::allocator<std::pair<int const ,CUltimateWeapon::__MAKEGEMPROB> > >::~map<int,CUltimateWeapon::__MAKEGEMPROB,std::less<int>,std::allocator<std::pair<int const ,CUltimateWeapon::__MAKEGEMPROB> > >, COMDAT
; _this$ = ecx
  00000	e9 00 00 00 00	 jmp	 ??1?$_Tree@V?$_Tmap_traits@HU__MAKEGEMPROB@CUltimateWeapon@@U?$less@H@std@@V?$allocator@U?$pair@$$CBHU__MAKEGEMPROB@CUltimateWeapon@@@std@@@4@$0A@@std@@@std@@QAE@XZ ; std::_Tree<std::_Tmap_traits<int,CUltimateWeapon::__MAKEGEMPROB,std::less<int>,std::allocator<std::pair<int const ,CUltimateWeapon::__MAKEGEMPROB> >,0> >::~_Tree<std::_Tmap_traits<int,CUltimateWeapon::__MAKEGEMPROB,std::less<int>,std::allocator<std::pair<int const ,CUltimateWeapon::__MAKEGEMPROB> >,0> >
??1?$map@HU__MAKEGEMPROB@CUltimateWeapon@@U?$less@H@std@@V?$allocator@U?$pair@$$CBHU__MAKEGEMPROB@CUltimateWeapon@@@std@@@4@@std@@QAE@XZ ENDP ; std::map<int,CUltimateWeapon::__MAKEGEMPROB,std::less<int>,std::allocator<std::pair<int const ,CUltimateWeapon::__MAKEGEMPROB> > >::~map<int,CUltimateWeapon::__MAKEGEMPROB,std::less<int>,std::allocator<std::pair<int const ,CUltimateWeapon::__MAKEGEMPROB> > >
_TEXT	ENDS
; Function compile flags: /Ogtp
; File C:\Program Files\Microsoft Visual Studio\2022\Professional\VC\Tools\MSVC\14.44.35207\include\xtree
;	COMDAT ?_Insert_node@?$_Tree_val@U?$_Tree_simple_types@U?$pair@$$CBHU__MAKEGEMPROB@CUltimateWeapon@@@std@@@std@@@std@@QAEPAU?$_Tree_node@U?$pair@$$CBHU__MAKEGEMPROB@CUltimateWeapon@@@std@@PAX@2@U?$_Tree_id@PAU?$_Tree_node@U?$pair@$$CBHU__MAKEGEMPROB@CUltimateWeapon@@@std@@PAX@std@@@2@QAU32@@Z
_TEXT	SEGMENT
__Head$1$ = -4						; size = 4
__Loc$ = 8						; size = 8
__Newnode$ = 16						; size = 4
?_Insert_node@?$_Tree_val@U?$_Tree_simple_types@U?$pair@$$CBHU__MAKEGEMPROB@CUltimateWeapon@@@std@@@std@@@std@@QAEPAU?$_Tree_node@U?$pair@$$CBHU__MAKEGEMPROB@CUltimateWeapon@@@std@@PAX@2@U?$_Tree_id@PAU?$_Tree_node@U?$pair@$$CBHU__MAKEGEMPROB@CUltimateWeapon@@@std@@PAX@std@@@2@QAU32@@Z PROC ; std::_Tree_val<std::_Tree_simple_types<std::pair<int const ,CUltimateWeapon::__MAKEGEMPROB> > >::_Insert_node, COMDAT
; _this$ = ecx

; 669  :     _Nodeptr _Insert_node(const _Tree_id<_Nodeptr> _Loc, const _Nodeptr _Newnode) noexcept {

  00000	55		 push	 ebp
  00001	8b ec		 mov	 ebp, esp
  00003	51		 push	 ecx

; 670  :         ++_Mysize;
; 671  :         const auto _Head  = _Myhead;
; 672  :         _Newnode->_Parent = _Loc._Parent;

  00004	8b 55 08	 mov	 edx, DWORD PTR __Loc$[ebp]
  00007	53		 push	 ebx
  00008	8b d9		 mov	 ebx, ecx
  0000a	57		 push	 edi
  0000b	8b 7d 10	 mov	 edi, DWORD PTR __Newnode$[ebp]
  0000e	8b 03		 mov	 eax, DWORD PTR [ebx]
  00010	ff 43 04	 inc	 DWORD PTR [ebx+4]
  00013	89 45 fc	 mov	 DWORD PTR __Head$1$[ebp], eax
  00016	89 57 04	 mov	 DWORD PTR [edi+4], edx

; 673  :         if (_Loc._Parent == _Head) { // first node in tree, just set head values

  00019	3b d0		 cmp	 edx, eax
  0001b	75 16		 jne	 SHORT $LN5@Insert_nod

; 674  :             _Head->_Left     = _Newnode;

  0001d	89 38		 mov	 DWORD PTR [eax], edi

; 675  :             _Head->_Parent   = _Newnode;

  0001f	89 78 04	 mov	 DWORD PTR [eax+4], edi

; 676  :             _Head->_Right    = _Newnode;

  00022	89 78 08	 mov	 DWORD PTR [eax+8], edi

; 735  :         return _Newnode;
; 736  :     }

  00025	8b c7		 mov	 eax, edi
  00027	c6 47 0c 01	 mov	 BYTE PTR [edi+12], 1
  0002b	5f		 pop	 edi
  0002c	5b		 pop	 ebx
  0002d	8b e5		 mov	 esp, ebp
  0002f	5d		 pop	 ebp
  00030	c2 0c 00	 ret	 12			; 0000000cH
$LN5@Insert_nod:

; 677  :             _Newnode->_Color = _Black; // the root is black
; 678  :             return _Newnode;
; 679  :         }
; 680  : 
; 681  :         _STL_INTERNAL_CHECK(_Loc._Child != _Tree_child::_Unused);
; 682  :         if (_Loc._Child == _Tree_child::_Right) { // add to right of _Loc._Parent

  00033	83 7d 0c 00	 cmp	 DWORD PTR __Loc$[ebp+4], 0
  00037	75 0d		 jne	 SHORT $LN6@Insert_nod

; 683  :             _STL_INTERNAL_CHECK(_Loc._Parent->_Right->_Isnil);
; 684  :             _Loc._Parent->_Right = _Newnode;

  00039	89 7a 08	 mov	 DWORD PTR [edx+8], edi

; 685  :             if (_Loc._Parent == _Head->_Right) { // remember rightmost node

  0003c	3b 50 08	 cmp	 edx, DWORD PTR [eax+8]
  0003f	75 0d		 jne	 SHORT $LN9@Insert_nod

; 686  :                 _Head->_Right = _Newnode;

  00041	89 78 08	 mov	 DWORD PTR [eax+8], edi

; 687  :             }
; 688  :         } else { // add to left of _Loc._Parent

  00044	eb 08		 jmp	 SHORT $LN9@Insert_nod
$LN6@Insert_nod:

; 689  :             _STL_INTERNAL_CHECK(_Loc._Parent->_Left->_Isnil);
; 690  :             _Loc._Parent->_Left = _Newnode;

  00046	89 3a		 mov	 DWORD PTR [edx], edi

; 691  :             if (_Loc._Parent == _Head->_Left) { // remember leftmost node

  00048	3b 10		 cmp	 edx, DWORD PTR [eax]
  0004a	75 02		 jne	 SHORT $LN9@Insert_nod

; 692  :                 _Head->_Left = _Newnode;

  0004c	89 38		 mov	 DWORD PTR [eax], edi
$LN9@Insert_nod:

; 693  :             }
; 694  :         }
; 695  : 
; 696  :         for (_Nodeptr _Pnode = _Newnode; _Pnode->_Parent->_Color == _Red;) {

  0004e	8b 4f 04	 mov	 ecx, DWORD PTR [edi+4]
  00051	8b c7		 mov	 eax, edi
  00053	80 79 0c 00	 cmp	 BYTE PTR [ecx+12], 0
  00057	0f 85 7d 01 00
	00		 jne	 $LN3@Insert_nod
  0005d	56		 push	 esi
  0005e	66 90		 npad	 2
$LL4@Insert_nod:

; 697  :             if (_Pnode->_Parent == _Pnode->_Parent->_Parent->_Left) { // fixup red-red in left subtree

  00060	8b 50 04	 mov	 edx, DWORD PTR [eax+4]
  00063	8b 72 04	 mov	 esi, DWORD PTR [edx+4]
  00066	8b 0e		 mov	 ecx, DWORD PTR [esi]
  00068	3b d1		 cmp	 edx, ecx
  0006a	0f 85 aa 00 00
	00		 jne	 $LN10@Insert_nod

; 698  :                 const auto _Parent_sibling = _Pnode->_Parent->_Parent->_Right;

  00070	8b 4e 08	 mov	 ecx, DWORD PTR [esi+8]

; 699  :                 if (_Parent_sibling->_Color == _Red) { // parent's sibling has two red children, blacken both

  00073	80 79 0c 00	 cmp	 BYTE PTR [ecx+12], 0
  00077	0f 84 a3 00 00
	00		 je	 $LN82@Insert_nod

; 700  :                     _Pnode->_Parent->_Color          = _Black;
; 701  :                     _Parent_sibling->_Color          = _Black;
; 702  :                     _Pnode->_Parent->_Parent->_Color = _Red;
; 703  :                     _Pnode                           = _Pnode->_Parent->_Parent;
; 704  :                 } else { // parent's sibling has red and black children
; 705  :                     if (_Pnode == _Pnode->_Parent->_Right) { // rotate right child to left

  0007d	8b 72 08	 mov	 esi, DWORD PTR [edx+8]
  00080	3b c6		 cmp	 eax, esi
  00082	75 37		 jne	 SHORT $LN57@Insert_nod

; 485  :         _Wherenode->_Right = _Pnode->_Left;

  00084	8b 0e		 mov	 ecx, DWORD PTR [esi]

; 706  :                         _Pnode = _Pnode->_Parent;

  00086	8b c2		 mov	 eax, edx

; 485  :         _Wherenode->_Right = _Pnode->_Left;

  00088	89 4a 08	 mov	 DWORD PTR [edx+8], ecx

; 486  : 
; 487  :         if (!_Pnode->_Left->_Isnil) {

  0008b	8b 0e		 mov	 ecx, DWORD PTR [esi]
  0008d	80 79 0d 00	 cmp	 BYTE PTR [ecx+13], 0
  00091	75 03		 jne	 SHORT $LN21@Insert_nod

; 488  :             _Pnode->_Left->_Parent = _Wherenode;

  00093	89 41 04	 mov	 DWORD PTR [ecx+4], eax
$LN21@Insert_nod:

; 489  :         }
; 490  : 
; 491  :         _Pnode->_Parent = _Wherenode->_Parent;

  00096	8b 4a 04	 mov	 ecx, DWORD PTR [edx+4]
  00099	89 4e 04	 mov	 DWORD PTR [esi+4], ecx

; 492  : 
; 493  :         if (_Wherenode == _Myhead->_Parent) {

  0009c	8b 0b		 mov	 ecx, DWORD PTR [ebx]
  0009e	3b 41 04	 cmp	 eax, DWORD PTR [ecx+4]
  000a1	75 05		 jne	 SHORT $LN22@Insert_nod

; 494  :             _Myhead->_Parent = _Pnode;

  000a3	89 71 04	 mov	 DWORD PTR [ecx+4], esi
  000a6	eb 0e		 jmp	 SHORT $LN25@Insert_nod
$LN22@Insert_nod:

; 495  :         } else if (_Wherenode == _Wherenode->_Parent->_Left) {

  000a8	8b 4a 04	 mov	 ecx, DWORD PTR [edx+4]
  000ab	3b 01		 cmp	 eax, DWORD PTR [ecx]
  000ad	75 04		 jne	 SHORT $LN24@Insert_nod

; 496  :             _Wherenode->_Parent->_Left = _Pnode;

  000af	89 31		 mov	 DWORD PTR [ecx], esi

; 497  :         } else {

  000b1	eb 03		 jmp	 SHORT $LN25@Insert_nod
$LN24@Insert_nod:

; 498  :             _Wherenode->_Parent->_Right = _Pnode;

  000b3	89 71 08	 mov	 DWORD PTR [ecx+8], esi
$LN25@Insert_nod:

; 499  :         }
; 500  : 
; 501  :         _Pnode->_Left       = _Wherenode;

  000b6	89 06		 mov	 DWORD PTR [esi], eax

; 502  :         _Wherenode->_Parent = _Pnode;

  000b8	89 70 04	 mov	 DWORD PTR [eax+4], esi
$LN57@Insert_nod:

; 707  :                         _Lrotate(_Pnode);
; 708  :                     }
; 709  : 
; 710  :                     _Pnode->_Parent->_Color          = _Black; // propagate red up

  000bb	8b 48 04	 mov	 ecx, DWORD PTR [eax+4]
  000be	c6 41 0c 01	 mov	 BYTE PTR [ecx+12], 1

; 711  :                     _Pnode->_Parent->_Parent->_Color = _Red;

  000c2	8b 48 04	 mov	 ecx, DWORD PTR [eax+4]
  000c5	8b 49 04	 mov	 ecx, DWORD PTR [ecx+4]
  000c8	c6 41 0c 00	 mov	 BYTE PTR [ecx+12], 0

; 712  :                     _Rrotate(_Pnode->_Parent->_Parent);

  000cc	8b 48 04	 mov	 ecx, DWORD PTR [eax+4]
  000cf	8b 51 04	 mov	 edx, DWORD PTR [ecx+4]

; 506  :         _Nodeptr _Pnode   = _Wherenode->_Left;

  000d2	8b 32		 mov	 esi, DWORD PTR [edx]

; 507  :         _Wherenode->_Left = _Pnode->_Right;

  000d4	8b 4e 08	 mov	 ecx, DWORD PTR [esi+8]
  000d7	89 0a		 mov	 DWORD PTR [edx], ecx

; 508  : 
; 509  :         if (!_Pnode->_Right->_Isnil) {

  000d9	8b 4e 08	 mov	 ecx, DWORD PTR [esi+8]
  000dc	80 79 0d 00	 cmp	 BYTE PTR [ecx+13], 0
  000e0	75 03		 jne	 SHORT $LN29@Insert_nod

; 510  :             _Pnode->_Right->_Parent = _Wherenode;

  000e2	89 51 04	 mov	 DWORD PTR [ecx+4], edx
$LN29@Insert_nod:

; 511  :         }
; 512  : 
; 513  :         _Pnode->_Parent = _Wherenode->_Parent;

  000e5	8b 4a 04	 mov	 ecx, DWORD PTR [edx+4]
  000e8	89 4e 04	 mov	 DWORD PTR [esi+4], ecx

; 514  : 
; 515  :         if (_Wherenode == _Myhead->_Parent) {

  000eb	8b 0b		 mov	 ecx, DWORD PTR [ebx]
  000ed	3b 51 04	 cmp	 edx, DWORD PTR [ecx+4]
  000f0	75 0b		 jne	 SHORT $LN30@Insert_nod

; 516  :             _Myhead->_Parent = _Pnode;

  000f2	89 71 04	 mov	 DWORD PTR [ecx+4], esi

; 521  :         }
; 522  : 
; 523  :         _Pnode->_Right      = _Wherenode;

  000f5	89 56 08	 mov	 DWORD PTR [esi+8], edx

; 713  :                 }
; 714  :             } else { // fixup red-red in right subtree

  000f8	e9 cc 00 00 00	 jmp	 $LN81@Insert_nod
$LN30@Insert_nod:

; 517  :         } else if (_Wherenode == _Wherenode->_Parent->_Right) {

  000fd	8b 4a 04	 mov	 ecx, DWORD PTR [edx+4]
  00100	3b 51 08	 cmp	 edx, DWORD PTR [ecx+8]
  00103	75 0b		 jne	 SHORT $LN32@Insert_nod

; 518  :             _Wherenode->_Parent->_Right = _Pnode;

  00105	89 71 08	 mov	 DWORD PTR [ecx+8], esi

; 521  :         }
; 522  : 
; 523  :         _Pnode->_Right      = _Wherenode;

  00108	89 56 08	 mov	 DWORD PTR [esi+8], edx

; 713  :                 }
; 714  :             } else { // fixup red-red in right subtree

  0010b	e9 b9 00 00 00	 jmp	 $LN81@Insert_nod
$LN32@Insert_nod:

; 520  :             _Wherenode->_Parent->_Left = _Pnode;

  00110	89 31		 mov	 DWORD PTR [ecx], esi

; 521  :         }
; 522  : 
; 523  :         _Pnode->_Right      = _Wherenode;

  00112	89 56 08	 mov	 DWORD PTR [esi+8], edx

; 713  :                 }
; 714  :             } else { // fixup red-red in right subtree

  00115	e9 af 00 00 00	 jmp	 $LN81@Insert_nod
$LN10@Insert_nod:

; 715  :                 const auto _Parent_sibling = _Pnode->_Parent->_Parent->_Left;
; 716  :                 if (_Parent_sibling->_Color == _Red) { // parent's sibling has two red children, blacken both

  0011a	80 79 0c 00	 cmp	 BYTE PTR [ecx+12], 0
  0011e	75 1d		 jne	 SHORT $LN15@Insert_nod
$LN82@Insert_nod:

; 693  :             }
; 694  :         }
; 695  : 
; 696  :         for (_Nodeptr _Pnode = _Newnode; _Pnode->_Parent->_Color == _Red;) {

  00120	c6 42 0c 01	 mov	 BYTE PTR [edx+12], 1
  00124	c6 41 0c 01	 mov	 BYTE PTR [ecx+12], 1
  00128	8b 48 04	 mov	 ecx, DWORD PTR [eax+4]
  0012b	8b 49 04	 mov	 ecx, DWORD PTR [ecx+4]
  0012e	c6 41 0c 00	 mov	 BYTE PTR [ecx+12], 0
  00132	8b 48 04	 mov	 ecx, DWORD PTR [eax+4]
  00135	8b 41 04	 mov	 eax, DWORD PTR [ecx+4]
  00138	e9 8f 00 00 00	 jmp	 $LN2@Insert_nod
$LN15@Insert_nod:

; 717  :                     _Pnode->_Parent->_Color          = _Black;
; 718  :                     _Parent_sibling->_Color          = _Black;
; 719  :                     _Pnode->_Parent->_Parent->_Color = _Red;
; 720  :                     _Pnode                           = _Pnode->_Parent->_Parent;
; 721  :                 } else { // parent's sibling has red and black children
; 722  :                     if (_Pnode == _Pnode->_Parent->_Left) { // rotate left child to right

  0013d	8b 32		 mov	 esi, DWORD PTR [edx]
  0013f	3b c6		 cmp	 eax, esi
  00141	75 3a		 jne	 SHORT $LN42@Insert_nod

; 507  :         _Wherenode->_Left = _Pnode->_Right;

  00143	8b 4e 08	 mov	 ecx, DWORD PTR [esi+8]

; 723  :                         _Pnode = _Pnode->_Parent;

  00146	8b c2		 mov	 eax, edx

; 507  :         _Wherenode->_Left = _Pnode->_Right;

  00148	89 08		 mov	 DWORD PTR [eax], ecx

; 508  : 
; 509  :         if (!_Pnode->_Right->_Isnil) {

  0014a	8b 4e 08	 mov	 ecx, DWORD PTR [esi+8]
  0014d	80 79 0d 00	 cmp	 BYTE PTR [ecx+13], 0
  00151	75 03		 jne	 SHORT $LN37@Insert_nod

; 510  :             _Pnode->_Right->_Parent = _Wherenode;

  00153	89 41 04	 mov	 DWORD PTR [ecx+4], eax
$LN37@Insert_nod:

; 511  :         }
; 512  : 
; 513  :         _Pnode->_Parent = _Wherenode->_Parent;

  00156	8b 4a 04	 mov	 ecx, DWORD PTR [edx+4]
  00159	89 4e 04	 mov	 DWORD PTR [esi+4], ecx

; 514  : 
; 515  :         if (_Wherenode == _Myhead->_Parent) {

  0015c	8b 0b		 mov	 ecx, DWORD PTR [ebx]
  0015e	3b 41 04	 cmp	 eax, DWORD PTR [ecx+4]
  00161	75 05		 jne	 SHORT $LN38@Insert_nod

; 516  :             _Myhead->_Parent = _Pnode;

  00163	89 71 04	 mov	 DWORD PTR [ecx+4], esi
  00166	eb 0f		 jmp	 SHORT $LN41@Insert_nod
$LN38@Insert_nod:

; 517  :         } else if (_Wherenode == _Wherenode->_Parent->_Right) {

  00168	8b 4a 04	 mov	 ecx, DWORD PTR [edx+4]
  0016b	3b 41 08	 cmp	 eax, DWORD PTR [ecx+8]
  0016e	75 05		 jne	 SHORT $LN40@Insert_nod

; 518  :             _Wherenode->_Parent->_Right = _Pnode;

  00170	89 71 08	 mov	 DWORD PTR [ecx+8], esi

; 519  :         } else {

  00173	eb 02		 jmp	 SHORT $LN41@Insert_nod
$LN40@Insert_nod:

; 520  :             _Wherenode->_Parent->_Left = _Pnode;

  00175	89 31		 mov	 DWORD PTR [ecx], esi
$LN41@Insert_nod:

; 521  :         }
; 522  : 
; 523  :         _Pnode->_Right      = _Wherenode;

  00177	89 46 08	 mov	 DWORD PTR [esi+8], eax

; 524  :         _Wherenode->_Parent = _Pnode;

  0017a	89 70 04	 mov	 DWORD PTR [eax+4], esi
$LN42@Insert_nod:

; 724  :                         _Rrotate(_Pnode);
; 725  :                     }
; 726  : 
; 727  :                     _Pnode->_Parent->_Color          = _Black; // propagate red up

  0017d	8b 48 04	 mov	 ecx, DWORD PTR [eax+4]
  00180	c6 41 0c 01	 mov	 BYTE PTR [ecx+12], 1

; 728  :                     _Pnode->_Parent->_Parent->_Color = _Red;

  00184	8b 48 04	 mov	 ecx, DWORD PTR [eax+4]
  00187	8b 49 04	 mov	 ecx, DWORD PTR [ecx+4]
  0018a	c6 41 0c 00	 mov	 BYTE PTR [ecx+12], 0

; 729  :                     _Lrotate(_Pnode->_Parent->_Parent);

  0018e	8b 48 04	 mov	 ecx, DWORD PTR [eax+4]
  00191	8b 51 04	 mov	 edx, DWORD PTR [ecx+4]

; 484  :         _Nodeptr _Pnode    = _Wherenode->_Right;

  00194	8b 72 08	 mov	 esi, DWORD PTR [edx+8]

; 485  :         _Wherenode->_Right = _Pnode->_Left;

  00197	8b 0e		 mov	 ecx, DWORD PTR [esi]
  00199	89 4a 08	 mov	 DWORD PTR [edx+8], ecx

; 486  : 
; 487  :         if (!_Pnode->_Left->_Isnil) {

  0019c	8b 0e		 mov	 ecx, DWORD PTR [esi]
  0019e	80 79 0d 00	 cmp	 BYTE PTR [ecx+13], 0
  001a2	75 03		 jne	 SHORT $LN45@Insert_nod

; 488  :             _Pnode->_Left->_Parent = _Wherenode;

  001a4	89 51 04	 mov	 DWORD PTR [ecx+4], edx
$LN45@Insert_nod:

; 489  :         }
; 490  : 
; 491  :         _Pnode->_Parent = _Wherenode->_Parent;

  001a7	8b 4a 04	 mov	 ecx, DWORD PTR [edx+4]
  001aa	89 4e 04	 mov	 DWORD PTR [esi+4], ecx

; 492  : 
; 493  :         if (_Wherenode == _Myhead->_Parent) {

  001ad	8b 0b		 mov	 ecx, DWORD PTR [ebx]
  001af	3b 51 04	 cmp	 edx, DWORD PTR [ecx+4]
  001b2	75 05		 jne	 SHORT $LN46@Insert_nod

; 494  :             _Myhead->_Parent = _Pnode;

  001b4	89 71 04	 mov	 DWORD PTR [ecx+4], esi
  001b7	eb 0e		 jmp	 SHORT $LN49@Insert_nod
$LN46@Insert_nod:

; 495  :         } else if (_Wherenode == _Wherenode->_Parent->_Left) {

  001b9	8b 4a 04	 mov	 ecx, DWORD PTR [edx+4]
  001bc	3b 11		 cmp	 edx, DWORD PTR [ecx]
  001be	75 04		 jne	 SHORT $LN48@Insert_nod

; 496  :             _Wherenode->_Parent->_Left = _Pnode;

  001c0	89 31		 mov	 DWORD PTR [ecx], esi

; 497  :         } else {

  001c2	eb 03		 jmp	 SHORT $LN49@Insert_nod
$LN48@Insert_nod:

; 498  :             _Wherenode->_Parent->_Right = _Pnode;

  001c4	89 71 08	 mov	 DWORD PTR [ecx+8], esi
$LN49@Insert_nod:

; 499  :         }
; 500  : 
; 501  :         _Pnode->_Left       = _Wherenode;

  001c7	89 16		 mov	 DWORD PTR [esi], edx
$LN81@Insert_nod:

; 693  :             }
; 694  :         }
; 695  : 
; 696  :         for (_Nodeptr _Pnode = _Newnode; _Pnode->_Parent->_Color == _Red;) {

  001c9	89 72 04	 mov	 DWORD PTR [edx+4], esi
$LN2@Insert_nod:
  001cc	8b 48 04	 mov	 ecx, DWORD PTR [eax+4]
  001cf	80 79 0c 00	 cmp	 BYTE PTR [ecx+12], 0
  001d3	0f 84 87 fe ff
	ff		 je	 $LL4@Insert_nod
  001d9	5e		 pop	 esi
$LN3@Insert_nod:

; 730  :                 }
; 731  :             }
; 732  :         }
; 733  : 
; 734  :         _Head->_Parent->_Color = _Black; // root is always black

  001da	8b 45 fc	 mov	 eax, DWORD PTR __Head$1$[ebp]
  001dd	8b 40 04	 mov	 eax, DWORD PTR [eax+4]
  001e0	c6 40 0c 01	 mov	 BYTE PTR [eax+12], 1

; 735  :         return _Newnode;
; 736  :     }

  001e4	8b c7		 mov	 eax, edi
  001e6	5f		 pop	 edi
  001e7	5b		 pop	 ebx
  001e8	8b e5		 mov	 esp, ebp
  001ea	5d		 pop	 ebp
  001eb	c2 0c 00	 ret	 12			; 0000000cH
?_Insert_node@?$_Tree_val@U?$_Tree_simple_types@U?$pair@$$CBHU__MAKEGEMPROB@CUltimateWeapon@@@std@@@std@@@std@@QAEPAU?$_Tree_node@U?$pair@$$CBHU__MAKEGEMPROB@CUltimateWeapon@@@std@@PAX@2@U?$_Tree_id@PAU?$_Tree_node@U?$pair@$$CBHU__MAKEGEMPROB@CUltimateWeapon@@@std@@PAX@std@@@2@QAU32@@Z ENDP ; std::_Tree_val<std::_Tree_simple_types<std::pair<int const ,CUltimateWeapon::__MAKEGEMPROB> > >::_Insert_node
_TEXT	ENDS
; Function compile flags: /Ogtp
; File C:\Program Files\Microsoft Visual Studio\2022\Professional\VC\Tools\MSVC\14.44.35207\include\xtree
; File C:\Program Files\Microsoft Visual Studio\2022\Professional\VC\Tools\MSVC\14.44.35207\include\utility
; File C:\Program Files\Microsoft Visual Studio\2022\Professional\VC\Tools\MSVC\14.44.35207\include\xmemory
; File C:\Program Files\Microsoft Visual Studio\2022\Professional\VC\Tools\MSVC\14.44.35207\include\xtree
; File C:\Program Files\Microsoft Visual Studio\2022\Professional\VC\Tools\MSVC\14.44.35207\include\xmemory
; File C:\Program Files\Microsoft Visual Studio\2022\Professional\VC\Tools\MSVC\14.44.35207\include\xtree
;	COMDAT ??1?$_Tree@V?$_Tmap_traits@HU__MAKEGEMPROB@CUltimateWeapon@@U?$less@H@std@@V?$allocator@U?$pair@$$CBHU__MAKEGEMPROB@CUltimateWeapon@@@std@@@4@$0A@@std@@@std@@QAE@XZ
_TEXT	SEGMENT
??1?$_Tree@V?$_Tmap_traits@HU__MAKEGEMPROB@CUltimateWeapon@@U?$less@H@std@@V?$allocator@U?$pair@$$CBHU__MAKEGEMPROB@CUltimateWeapon@@@std@@@4@$0A@@std@@@std@@QAE@XZ PROC ; std::_Tree<std::_Tmap_traits<int,CUltimateWeapon::__MAKEGEMPROB,std::less<int>,std::allocator<std::pair<int const ,CUltimateWeapon::__MAKEGEMPROB> >,0> >::~_Tree<std::_Tmap_traits<int,CUltimateWeapon::__MAKEGEMPROB,std::less<int>,std::allocator<std::pair<int const ,CUltimateWeapon::__MAKEGEMPROB> >,0> >, COMDAT
; _this$ = ecx

; 1095 :     ~_Tree() noexcept {

  00000	56		 push	 esi
  00001	57		 push	 edi
  00002	8b f9		 mov	 edi, ecx

; 777  :         _Erase_tree(_Al, _Myhead->_Parent);

  00004	8b 37		 mov	 esi, DWORD PTR [edi]
  00006	8b 76 04	 mov	 esi, DWORD PTR [esi+4]

; 768  :         while (!_Rootnode->_Isnil) { // free subtrees, then node

  00009	80 7e 0d 00	 cmp	 BYTE PTR [esi+13], 0
  0000d	75 21		 jne	 SHORT $LN61@Tree
  0000f	90		 npad	 1
$LL8@Tree:

; 769  :             _Erase_tree(_Al, _Rootnode->_Right);

  00010	ff 76 08	 push	 DWORD PTR [esi+8]
  00013	8b cf		 mov	 ecx, edi
  00015	57		 push	 edi
  00016	e8 00 00 00 00	 call	 ??$_Erase_tree@V?$allocator@U?$_Tree_node@U?$pair@$$CBHU__MAKEGEMPROB@CUltimateWeapon@@@std@@PAX@std@@@std@@@?$_Tree_val@U?$_Tree_simple_types@U?$pair@$$CBHU__MAKEGEMPROB@CUltimateWeapon@@@std@@@std@@@std@@QAEXAAV?$allocator@U?$_Tree_node@U?$pair@$$CBHU__MAKEGEMPROB@CUltimateWeapon@@@std@@PAX@std@@@1@PAU?$_Tree_node@U?$pair@$$CBHU__MAKEGEMPROB@CUltimateWeapon@@@std@@PAX@1@@Z ; std::_Tree_val<std::_Tree_simple_types<std::pair<int const ,CUltimateWeapon::__MAKEGEMPROB> > >::_Erase_tree<std::allocator<std::_Tree_node<std::pair<int const ,CUltimateWeapon::__MAKEGEMPROB>,void *> > >
; File C:\Program Files\Microsoft Visual Studio\2022\Professional\VC\Tools\MSVC\14.44.35207\include\utility

; 773  :     _Ty _Old_val = static_cast<_Ty&&>(_Val);

  0001b	8b c6		 mov	 eax, esi

; 774  :     _Val         = static_cast<_Other&&>(_New_val);

  0001d	8b 36		 mov	 esi, DWORD PTR [esi]
; File C:\Program Files\Microsoft Visual Studio\2022\Professional\VC\Tools\MSVC\14.44.35207\include\xmemory

; 289  :         ::operator delete(_Ptr, _Bytes);

  0001f	6a 28		 push	 40			; 00000028H
  00021	50		 push	 eax
  00022	e8 00 00 00 00	 call	 ??3@YAXPAXI@Z		; operator delete
  00027	83 c4 08	 add	 esp, 8
; File C:\Program Files\Microsoft Visual Studio\2022\Professional\VC\Tools\MSVC\14.44.35207\include\xtree

; 768  :         while (!_Rootnode->_Isnil) { // free subtrees, then node

  0002a	80 7e 0d 00	 cmp	 BYTE PTR [esi+13], 0
  0002e	74 e0		 je	 SHORT $LL8@Tree
$LN61@Tree:
; File C:\Program Files\Microsoft Visual Studio\2022\Professional\VC\Tools\MSVC\14.44.35207\include\xmemory

; 289  :         ::operator delete(_Ptr, _Bytes);

  00030	6a 28		 push	 40			; 00000028H
  00032	ff 37		 push	 DWORD PTR [edi]
  00034	e8 00 00 00 00	 call	 ??3@YAXPAXI@Z		; operator delete
  00039	83 c4 08	 add	 esp, 8
  0003c	5f		 pop	 edi
  0003d	5e		 pop	 esi
; File C:\Program Files\Microsoft Visual Studio\2022\Professional\VC\Tools\MSVC\14.44.35207\include\xtree

; 1102 :     }

  0003e	c3		 ret	 0
??1?$_Tree@V?$_Tmap_traits@HU__MAKEGEMPROB@CUltimateWeapon@@U?$less@H@std@@V?$allocator@U?$pair@$$CBHU__MAKEGEMPROB@CUltimateWeapon@@@std@@@4@$0A@@std@@@std@@QAE@XZ ENDP ; std::_Tree<std::_Tmap_traits<int,CUltimateWeapon::__MAKEGEMPROB,std::less<int>,std::allocator<std::pair<int const ,CUltimateWeapon::__MAKEGEMPROB> >,0> >::~_Tree<std::_Tmap_traits<int,CUltimateWeapon::__MAKEGEMPROB,std::less<int>,std::allocator<std::pair<int const ,CUltimateWeapon::__MAKEGEMPROB> >,0> >
_TEXT	ENDS
; Function compile flags: /Ogtp
; File C:\Program Files\Microsoft Visual Studio\2022\Professional\VC\Tools\MSVC\14.44.35207\include\vector
;	COMDAT ?_Xlength@?$vector@U__GEMABILITYKIND@CUltimateWeapon@@V?$allocator@U__GEMABILITYKIND@CUltimateWeapon@@@std@@@std@@CAXXZ
_TEXT	SEGMENT
?_Xlength@?$vector@U__GEMABILITYKIND@CUltimateWeapon@@V?$allocator@U__GEMABILITYKIND@CUltimateWeapon@@@std@@@std@@CAXXZ PROC ; std::vector<CUltimateWeapon::__GEMABILITYKIND,std::allocator<CUltimateWeapon::__GEMABILITYKIND> >::_Xlength, COMDAT

; 2184 :         _Xlength_error("vector too long");

  00000	68 00 00 00 00	 push	 OFFSET ??_C@_0BA@FOIKENOD@vector?5too?5long@
  00005	e8 00 00 00 00	 call	 ?_Xlength_error@std@@YAXPBD@Z ; std::_Xlength_error
$LN3@Xlength:
  0000a	cc		 int	 3
?_Xlength@?$vector@U__GEMABILITYKIND@CUltimateWeapon@@V?$allocator@U__GEMABILITYKIND@CUltimateWeapon@@@std@@@std@@CAXXZ ENDP ; std::vector<CUltimateWeapon::__GEMABILITYKIND,std::allocator<CUltimateWeapon::__GEMABILITYKIND> >::_Xlength
_TEXT	ENDS
; Function compile flags: /Ogtp
; File C:\Program Files\Microsoft Visual Studio\2022\Professional\VC\Tools\MSVC\14.44.35207\include\vector
; File C:\Program Files\Microsoft Visual Studio\2022\Professional\VC\Tools\MSVC\14.44.35207\include\xmemory
; File C:\Program Files\Microsoft Visual Studio\2022\Professional\VC\Tools\MSVC\14.44.35207\include\vector
; File C:\Program Files\Microsoft Visual Studio\2022\Professional\VC\Tools\MSVC\14.44.35207\include\xmemory
; File C:\Program Files\Microsoft Visual Studio\2022\Professional\VC\Tools\MSVC\14.44.35207\include\vector
; File C:\Program Files\Microsoft Visual Studio\2022\Professional\VC\Tools\MSVC\14.44.35207\include\xmemory
; File C:\Program Files\Microsoft Visual Studio\2022\Professional\VC\Tools\MSVC\14.44.35207\include\vector
; File C:\Program Files\Microsoft Visual Studio\2022\Professional\VC\Tools\MSVC\14.44.35207\include\xmemory
; File C:\Program Files\Microsoft Visual Studio\2022\Professional\VC\Tools\MSVC\14.44.35207\include\vector
; File C:\Program Files\Microsoft Visual Studio\2022\Professional\VC\Tools\MSVC\14.44.35207\include\xmemory
; File C:\Program Files\Microsoft Visual Studio\2022\Professional\VC\Tools\MSVC\14.44.35207\include\vector
;	COMDAT ??1?$vector@U__GEMABILITYKIND@CUltimateWeapon@@V?$allocator@U__GEMABILITYKIND@CUltimateWeapon@@@std@@@std@@QAE@XZ
_TEXT	SEGMENT
??1?$vector@U__GEMABILITYKIND@CUltimateWeapon@@V?$allocator@U__GEMABILITYKIND@CUltimateWeapon@@@std@@@std@@QAE@XZ PROC ; std::vector<CUltimateWeapon::__GEMABILITYKIND,std::allocator<CUltimateWeapon::__GEMABILITYKIND> >::~vector<CUltimateWeapon::__GEMABILITYKIND,std::allocator<CUltimateWeapon::__GEMABILITYKIND> >, COMDAT
; _this$ = ecx

; 829  :     _CONSTEXPR20 ~vector() noexcept {

  00000	56		 push	 esi
  00001	57		 push	 edi
  00002	8b f9		 mov	 edi, ecx

; 2090 :         if (_Myfirst) { // destroy and deallocate old array

  00004	8b 37		 mov	 esi, DWORD PTR [edi]
  00006	85 f6		 test	 esi, esi
  00008	74 5a		 je	 SHORT $LN5@vector
  0000a	53		 push	 ebx

; 2091 :             _STD _Destroy_range(_Myfirst, _Mylast, _Al);

  0000b	8b 5f 04	 mov	 ebx, DWORD PTR [edi+4]
; File C:\Program Files\Microsoft Visual Studio\2022\Professional\VC\Tools\MSVC\14.44.35207\include\xmemory

; 1102 :         for (; _First != _Last; ++_First) {

  0000e	3b f3		 cmp	 esi, ebx
  00010	74 0f		 je	 SHORT $LN10@vector
$LL11@vector:
; File C:\Program Files\Microsoft Visual Studio\2022\Professional\VC\Tools\MSVC\14.44.35207\include\vector

; 830  :         _Tidy();

  00012	8d 4e 04	 lea	 ecx, DWORD PTR [esi+4]
  00015	e8 00 00 00 00	 call	 ?_Tidy@?$vector@U__GEMABILITY@CUltimateWeapon@@V?$allocator@U__GEMABILITY@CUltimateWeapon@@@std@@@std@@AAEXXZ ; std::vector<CUltimateWeapon::__GEMABILITY,std::allocator<CUltimateWeapon::__GEMABILITY> >::_Tidy
; File C:\Program Files\Microsoft Visual Studio\2022\Professional\VC\Tools\MSVC\14.44.35207\include\xmemory

; 1102 :         for (; _First != _Last; ++_First) {

  0001a	83 c6 10	 add	 esi, 16			; 00000010H
  0001d	3b f3		 cmp	 esi, ebx
  0001f	75 f1		 jne	 SHORT $LL11@vector
$LN10@vector:
; File C:\Program Files\Microsoft Visual Studio\2022\Professional\VC\Tools\MSVC\14.44.35207\include\vector

; 2093 :             _Al.deallocate(_Myfirst, static_cast<size_type>(_Myend - _Myfirst));

  00021	8b 4f 08	 mov	 ecx, DWORD PTR [edi+8]
  00024	8b 07		 mov	 eax, DWORD PTR [edi]
  00026	2b c8		 sub	 ecx, eax
; File C:\Program Files\Microsoft Visual Studio\2022\Professional\VC\Tools\MSVC\14.44.35207\include\xmemory

; 985  :         _STD _Deallocate<_New_alignof<_Ty>>(_Ptr, sizeof(_Ty) * _Count);

  00028	83 e1 f0	 and	 ecx, -16		; fffffff0H
  0002b	5b		 pop	 ebx

; 284  :         if (_Bytes >= _Big_allocation_threshold) {

  0002c	81 f9 00 10 00
	00		 cmp	 ecx, 4096		; 00001000H
  00032	72 12		 jb	 SHORT $LN38@vector

; 205  :     const uintptr_t _Ptr_container   = _Ptr_user[-1];

  00034	8b 50 fc	 mov	 edx, DWORD PTR [eax-4]
  00037	83 c1 23	 add	 ecx, 35			; 00000023H

; 206  : 
; 207  :     // If the following asserts, it likely means that we are performing
; 208  :     // an aligned delete on memory coming from an unaligned allocation.
; 209  :     _STL_ASSERT(_Ptr_user[-2] == _Big_allocation_sentinel, "invalid argument");
; 210  : 
; 211  :     // Extra paranoia on aligned allocation/deallocation; ensure _Ptr_container is
; 212  :     // in range [_Min_back_shift, _Non_user_size]
; 213  : #ifdef _DEBUG
; 214  :     constexpr uintptr_t _Min_back_shift = 2 * sizeof(void*);
; 215  : #else // ^^^ defined(_DEBUG) / !defined(_DEBUG) vvv
; 216  :     constexpr uintptr_t _Min_back_shift = sizeof(void*);
; 217  : #endif // ^^^ !defined(_DEBUG) ^^^
; 218  :     const uintptr_t _Back_shift = reinterpret_cast<uintptr_t>(_Ptr) - _Ptr_container;

  0003a	2b c2		 sub	 eax, edx

; 219  :     _STL_VERIFY(_Back_shift >= _Min_back_shift && _Back_shift <= _Non_user_size, "invalid argument");

  0003c	83 c0 fc	 add	 eax, -4			; fffffffcH
  0003f	83 f8 1f	 cmp	 eax, 31			; 0000001fH
  00042	77 23		 ja	 SHORT $LN37@vector

; 220  :     _Ptr = reinterpret_cast<void*>(_Ptr_container);

  00044	8b c2		 mov	 eax, edx
$LN38@vector:

; 289  :         ::operator delete(_Ptr, _Bytes);

  00046	51		 push	 ecx
  00047	50		 push	 eax
  00048	e8 00 00 00 00	 call	 ??3@YAXPAXI@Z		; operator delete
; File C:\Program Files\Microsoft Visual Studio\2022\Professional\VC\Tools\MSVC\14.44.35207\include\vector

; 2095 :             _Myfirst = nullptr;

  0004d	c7 07 00 00 00
	00		 mov	 DWORD PTR [edi], 0
; File C:\Program Files\Microsoft Visual Studio\2022\Professional\VC\Tools\MSVC\14.44.35207\include\xmemory

; 289  :         ::operator delete(_Ptr, _Bytes);

  00053	83 c4 08	 add	 esp, 8
; File C:\Program Files\Microsoft Visual Studio\2022\Professional\VC\Tools\MSVC\14.44.35207\include\vector

; 2096 :             _Mylast  = nullptr;

  00056	c7 47 04 00 00
	00 00		 mov	 DWORD PTR [edi+4], 0

; 2097 :             _Myend   = nullptr;

  0005d	c7 47 08 00 00
	00 00		 mov	 DWORD PTR [edi+8], 0
$LN5@vector:
  00064	5f		 pop	 edi

; 835  :     }

  00065	5e		 pop	 esi
  00066	c3		 ret	 0
$LN37@vector:
; File C:\Program Files\Microsoft Visual Studio\2022\Professional\VC\Tools\MSVC\14.44.35207\include\xmemory

; 219  :     _STL_VERIFY(_Back_shift >= _Min_back_shift && _Back_shift <= _Non_user_size, "invalid argument");

  00067	6a 00		 push	 0
  00069	6a 00		 push	 0
  0006b	6a 00		 push	 0
  0006d	6a 00		 push	 0
  0006f	6a 00		 push	 0
  00071	e8 00 00 00 00	 call	 __invoke_watson
$LN51@vector:
  00076	cc		 int	 3
??1?$vector@U__GEMABILITYKIND@CUltimateWeapon@@V?$allocator@U__GEMABILITYKIND@CUltimateWeapon@@@std@@@std@@QAE@XZ ENDP ; std::vector<CUltimateWeapon::__GEMABILITYKIND,std::allocator<CUltimateWeapon::__GEMABILITYKIND> >::~vector<CUltimateWeapon::__GEMABILITYKIND,std::allocator<CUltimateWeapon::__GEMABILITYKIND> >
_TEXT	ENDS
; Function compile flags: /Ogtp
; File C:\Program Files\Microsoft Visual Studio\2022\Professional\VC\Tools\MSVC\14.44.35207\include\vector
;	COMDAT ?_Xlength@?$vector@U__MAKEGEMITEM@CUltimateWeapon@@V?$allocator@U__MAKEGEMITEM@CUltimateWeapon@@@std@@@std@@CAXXZ
_TEXT	SEGMENT
?_Xlength@?$vector@U__MAKEGEMITEM@CUltimateWeapon@@V?$allocator@U__MAKEGEMITEM@CUltimateWeapon@@@std@@@std@@CAXXZ PROC ; std::vector<CUltimateWeapon::__MAKEGEMITEM,std::allocator<CUltimateWeapon::__MAKEGEMITEM> >::_Xlength, COMDAT

; 2184 :         _Xlength_error("vector too long");

  00000	68 00 00 00 00	 push	 OFFSET ??_C@_0BA@FOIKENOD@vector?5too?5long@
  00005	e8 00 00 00 00	 call	 ?_Xlength_error@std@@YAXPBD@Z ; std::_Xlength_error
$LN3@Xlength:
  0000a	cc		 int	 3
?_Xlength@?$vector@U__MAKEGEMITEM@CUltimateWeapon@@V?$allocator@U__MAKEGEMITEM@CUltimateWeapon@@@std@@@std@@CAXXZ ENDP ; std::vector<CUltimateWeapon::__MAKEGEMITEM,std::allocator<CUltimateWeapon::__MAKEGEMITEM> >::_Xlength
_TEXT	ENDS
; Function compile flags: /Ogtp
; File C:\Program Files\Microsoft Visual Studio\2022\Professional\VC\Tools\MSVC\14.44.35207\include\vector
; File C:\Program Files\Microsoft Visual Studio\2022\Professional\VC\Tools\MSVC\14.44.35207\include\xmemory
; File C:\Program Files\Microsoft Visual Studio\2022\Professional\VC\Tools\MSVC\14.44.35207\include\vector
; File C:\Program Files\Microsoft Visual Studio\2022\Professional\VC\Tools\MSVC\14.44.35207\include\xmemory
; File C:\Program Files\Microsoft Visual Studio\2022\Professional\VC\Tools\MSVC\14.44.35207\include\vector
; File C:\Program Files\Microsoft Visual Studio\2022\Professional\VC\Tools\MSVC\14.44.35207\include\xmemory
; File C:\Program Files\Microsoft Visual Studio\2022\Professional\VC\Tools\MSVC\14.44.35207\include\vector
;	COMDAT ??1?$vector@U__MAKEGEMITEM@CUltimateWeapon@@V?$allocator@U__MAKEGEMITEM@CUltimateWeapon@@@std@@@std@@QAE@XZ
_TEXT	SEGMENT
??1?$vector@U__MAKEGEMITEM@CUltimateWeapon@@V?$allocator@U__MAKEGEMITEM@CUltimateWeapon@@@std@@@std@@QAE@XZ PROC ; std::vector<CUltimateWeapon::__MAKEGEMITEM,std::allocator<CUltimateWeapon::__MAKEGEMITEM> >::~vector<CUltimateWeapon::__MAKEGEMITEM,std::allocator<CUltimateWeapon::__MAKEGEMITEM> >, COMDAT
; _this$ = ecx

; 829  :     _CONSTEXPR20 ~vector() noexcept {

  00000	56		 push	 esi
  00001	57		 push	 edi
  00002	8b f9		 mov	 edi, ecx

; 2090 :         if (_Myfirst) { // destroy and deallocate old array

  00004	8b 37		 mov	 esi, DWORD PTR [edi]
  00006	85 f6		 test	 esi, esi
  00008	74 53		 je	 SHORT $LN5@vector

; 2091 :             _STD _Destroy_range(_Myfirst, _Mylast, _Al);
; 2092 :             _ASAN_VECTOR_REMOVE;
; 2093 :             _Al.deallocate(_Myfirst, static_cast<size_type>(_Myend - _Myfirst));

  0000a	8b 4f 08	 mov	 ecx, DWORD PTR [edi+8]
  0000d	b8 ab aa aa 2a	 mov	 eax, 715827883		; 2aaaaaabH
  00012	2b ce		 sub	 ecx, esi
  00014	f7 e9		 imul	 ecx
  00016	d1 fa		 sar	 edx, 1
  00018	8b c2		 mov	 eax, edx
  0001a	c1 e8 1f	 shr	 eax, 31			; 0000001fH
  0001d	03 c2		 add	 eax, edx
; File C:\Program Files\Microsoft Visual Studio\2022\Professional\VC\Tools\MSVC\14.44.35207\include\xmemory

; 985  :         _STD _Deallocate<_New_alignof<_Ty>>(_Ptr, sizeof(_Ty) * _Count);

  0001f	8d 0c 40	 lea	 ecx, DWORD PTR [eax+eax*2]
  00022	c1 e1 02	 shl	 ecx, 2

; 284  :         if (_Bytes >= _Big_allocation_threshold) {

  00025	81 f9 00 10 00
	00		 cmp	 ecx, 4096		; 00001000H
  0002b	72 12		 jb	 SHORT $LN18@vector

; 205  :     const uintptr_t _Ptr_container   = _Ptr_user[-1];

  0002d	8b 56 fc	 mov	 edx, DWORD PTR [esi-4]
  00030	83 c1 23	 add	 ecx, 35			; 00000023H

; 206  : 
; 207  :     // If the following asserts, it likely means that we are performing
; 208  :     // an aligned delete on memory coming from an unaligned allocation.
; 209  :     _STL_ASSERT(_Ptr_user[-2] == _Big_allocation_sentinel, "invalid argument");
; 210  : 
; 211  :     // Extra paranoia on aligned allocation/deallocation; ensure _Ptr_container is
; 212  :     // in range [_Min_back_shift, _Non_user_size]
; 213  : #ifdef _DEBUG
; 214  :     constexpr uintptr_t _Min_back_shift = 2 * sizeof(void*);
; 215  : #else // ^^^ defined(_DEBUG) / !defined(_DEBUG) vvv
; 216  :     constexpr uintptr_t _Min_back_shift = sizeof(void*);
; 217  : #endif // ^^^ !defined(_DEBUG) ^^^
; 218  :     const uintptr_t _Back_shift = reinterpret_cast<uintptr_t>(_Ptr) - _Ptr_container;

  00033	2b f2		 sub	 esi, edx

; 219  :     _STL_VERIFY(_Back_shift >= _Min_back_shift && _Back_shift <= _Non_user_size, "invalid argument");

  00035	8d 46 fc	 lea	 eax, DWORD PTR [esi-4]
  00038	83 f8 1f	 cmp	 eax, 31			; 0000001fH
  0003b	77 23		 ja	 SHORT $LN17@vector

; 220  :     _Ptr = reinterpret_cast<void*>(_Ptr_container);

  0003d	8b f2		 mov	 esi, edx
$LN18@vector:

; 289  :         ::operator delete(_Ptr, _Bytes);

  0003f	51		 push	 ecx
  00040	56		 push	 esi
  00041	e8 00 00 00 00	 call	 ??3@YAXPAXI@Z		; operator delete
; File C:\Program Files\Microsoft Visual Studio\2022\Professional\VC\Tools\MSVC\14.44.35207\include\vector

; 2095 :             _Myfirst = nullptr;

  00046	c7 07 00 00 00
	00		 mov	 DWORD PTR [edi], 0
; File C:\Program Files\Microsoft Visual Studio\2022\Professional\VC\Tools\MSVC\14.44.35207\include\xmemory

; 289  :         ::operator delete(_Ptr, _Bytes);

  0004c	83 c4 08	 add	 esp, 8
; File C:\Program Files\Microsoft Visual Studio\2022\Professional\VC\Tools\MSVC\14.44.35207\include\vector

; 2096 :             _Mylast  = nullptr;

  0004f	c7 47 04 00 00
	00 00		 mov	 DWORD PTR [edi+4], 0

; 2097 :             _Myend   = nullptr;

  00056	c7 47 08 00 00
	00 00		 mov	 DWORD PTR [edi+8], 0
$LN5@vector:
  0005d	5f		 pop	 edi

; 835  :     }

  0005e	5e		 pop	 esi
  0005f	c3		 ret	 0
$LN17@vector:
; File C:\Program Files\Microsoft Visual Studio\2022\Professional\VC\Tools\MSVC\14.44.35207\include\xmemory

; 219  :     _STL_VERIFY(_Back_shift >= _Min_back_shift && _Back_shift <= _Non_user_size, "invalid argument");

  00060	6a 00		 push	 0
  00062	6a 00		 push	 0
  00064	6a 00		 push	 0
  00066	6a 00		 push	 0
  00068	6a 00		 push	 0
  0006a	e8 00 00 00 00	 call	 __invoke_watson
$LN26@vector:
  0006f	cc		 int	 3
??1?$vector@U__MAKEGEMITEM@CUltimateWeapon@@V?$allocator@U__MAKEGEMITEM@CUltimateWeapon@@@std@@@std@@QAE@XZ ENDP ; std::vector<CUltimateWeapon::__MAKEGEMITEM,std::allocator<CUltimateWeapon::__MAKEGEMITEM> >::~vector<CUltimateWeapon::__MAKEGEMITEM,std::allocator<CUltimateWeapon::__MAKEGEMITEM> >
_TEXT	ENDS
; Function compile flags: /Ogtp
; File C:\IAGOS\server\v18\Source\Source\_Common\UltimateWeapon.cpp
;	COMDAT ??1CUltimateWeapon@@UAE@XZ
_TEXT	SEGMENT
??1CUltimateWeapon@@UAE@XZ PROC				; CUltimateWeapon::~CUltimateWeapon, COMDAT
; _this$ = ecx

; 41   : {

  00000	56		 push	 esi
  00001	8b f1		 mov	 esi, ecx

; 42   : 
; 43   : }

  00003	8d 4e 24	 lea	 ecx, DWORD PTR [esi+36]
  00006	c7 06 00 00 00
	00		 mov	 DWORD PTR [esi], OFFSET ??_7CUltimateWeapon@@6B@
  0000c	e8 00 00 00 00	 call	 ??1?$_Tree@V?$_Tmap_traits@HHU?$less@H@std@@V?$allocator@U?$pair@$$CBHH@std@@@2@$0A@@std@@@std@@QAE@XZ ; std::_Tree<std::_Tmap_traits<int,int,std::less<int>,std::allocator<std::pair<int const ,int> >,0> >::~_Tree<std::_Tmap_traits<int,int,std::less<int>,std::allocator<std::pair<int const ,int> >,0> >
  00011	8d 4e 1c	 lea	 ecx, DWORD PTR [esi+28]
  00014	e8 00 00 00 00	 call	 ??1?$_Tree@V?$_Tmap_traits@HU__MAKEGEMPROB@CUltimateWeapon@@U?$less@H@std@@V?$allocator@U?$pair@$$CBHU__MAKEGEMPROB@CUltimateWeapon@@@std@@@4@$0A@@std@@@std@@QAE@XZ ; std::_Tree<std::_Tmap_traits<int,CUltimateWeapon::__MAKEGEMPROB,std::less<int>,std::allocator<std::pair<int const ,CUltimateWeapon::__MAKEGEMPROB> >,0> >::~_Tree<std::_Tmap_traits<int,CUltimateWeapon::__MAKEGEMPROB,std::less<int>,std::allocator<std::pair<int const ,CUltimateWeapon::__MAKEGEMPROB> >,0> >
  00019	8d 4e 10	 lea	 ecx, DWORD PTR [esi+16]
  0001c	e8 00 00 00 00	 call	 ??1?$vector@U__GEMABILITYKIND@CUltimateWeapon@@V?$allocator@U__GEMABILITYKIND@CUltimateWeapon@@@std@@@std@@QAE@XZ ; std::vector<CUltimateWeapon::__GEMABILITYKIND,std::allocator<CUltimateWeapon::__GEMABILITYKIND> >::~vector<CUltimateWeapon::__GEMABILITYKIND,std::allocator<CUltimateWeapon::__GEMABILITYKIND> >
  00021	8d 4e 04	 lea	 ecx, DWORD PTR [esi+4]
  00024	5e		 pop	 esi
  00025	e9 00 00 00 00	 jmp	 ??1?$vector@U__MAKEGEMITEM@CUltimateWeapon@@V?$allocator@U__MAKEGEMITEM@CUltimateWeapon@@@std@@@std@@QAE@XZ ; std::vector<CUltimateWeapon::__MAKEGEMITEM,std::allocator<CUltimateWeapon::__MAKEGEMITEM> >::~vector<CUltimateWeapon::__MAKEGEMITEM,std::allocator<CUltimateWeapon::__MAKEGEMITEM> >
??1CUltimateWeapon@@UAE@XZ ENDP				; CUltimateWeapon::~CUltimateWeapon
_TEXT	ENDS
; Function compile flags: /Ogtp
; File C:\IAGOS\server\v18\Source\Source\_Common\UltimateWeapon.cpp
; File C:\Program Files\Microsoft Visual Studio\2022\Professional\VC\Tools\MSVC\14.44.35207\include\vector
; File C:\IAGOS\server\v18\Source\Source\_Common\UltimateWeapon.cpp
; File C:\Program Files\Microsoft Visual Studio\2022\Professional\VC\Tools\MSVC\14.44.35207\include\vector
; File C:\IAGOS\server\v18\Source\Source\_Common\UltimateWeapon.cpp
; File C:\Program Files\Microsoft Visual Studio\2022\Professional\VC\Tools\MSVC\14.44.35207\include\xmemory
; File C:\IAGOS\server\v18\Source\Source\_Common\UltimateWeapon.cpp
; File C:\Program Files\Microsoft Visual Studio\2022\Professional\VC\Tools\MSVC\14.44.35207\include\xtree
; File C:\Program Files\Microsoft Visual Studio\2022\Professional\VC\Tools\MSVC\14.44.35207\include\xmemory
; File C:\Program Files\Microsoft Visual Studio\2022\Professional\VC\Tools\MSVC\14.44.35207\include\xtree
; File C:\IAGOS\server\v18\Source\Source\_Common\UltimateWeapon.cpp
; File C:\Program Files\Microsoft Visual Studio\2022\Professional\VC\Tools\MSVC\14.44.35207\include\xmemory
; File C:\IAGOS\server\v18\Source\Source\_Common\UltimateWeapon.cpp
; File C:\Program Files\Microsoft Visual Studio\2022\Professional\VC\Tools\MSVC\14.44.35207\include\xtree
; File C:\Program Files\Microsoft Visual Studio\2022\Professional\VC\Tools\MSVC\14.44.35207\include\xmemory
; File C:\Program Files\Microsoft Visual Studio\2022\Professional\VC\Tools\MSVC\14.44.35207\include\xtree
; File C:\IAGOS\server\v18\Source\Source\_Common\UltimateWeapon.cpp
;	COMDAT ??0CUltimateWeapon@@QAE@XZ
_TEXT	SEGMENT
_this$ = -20						; size = 4
_this$ = -20						; size = 4
_this$ = -16						; size = 4
__$EHRec$ = -12						; size = 12
??0CUltimateWeapon@@QAE@XZ PROC				; CUltimateWeapon::CUltimateWeapon, COMDAT
; _this$ = ecx

; 31   : {

  00000	55		 push	 ebp
  00001	8b ec		 mov	 ebp, esp
  00003	6a ff		 push	 -1
  00005	68 00 00 00 00	 push	 __ehhandler$??0CUltimateWeapon@@QAE@XZ
  0000a	64 a1 00 00 00
	00		 mov	 eax, DWORD PTR fs:0
  00010	50		 push	 eax
  00011	83 ec 08	 sub	 esp, 8
  00014	56		 push	 esi
  00015	57		 push	 edi
  00016	a1 00 00 00 00	 mov	 eax, DWORD PTR ___security_cookie
  0001b	33 c5		 xor	 eax, ebp
  0001d	50		 push	 eax
  0001e	8d 45 f4	 lea	 eax, DWORD PTR __$EHRec$[ebp]
  00021	64 a3 00 00 00
	00		 mov	 DWORD PTR fs:0, eax
  00027	8b f9		 mov	 edi, ecx
  00029	89 7d f0	 mov	 DWORD PTR _this$[ebp], edi
  0002c	c7 07 00 00 00
	00		 mov	 DWORD PTR [edi], OFFSET ??_7CUltimateWeapon@@6B@
; File C:\Program Files\Microsoft Visual Studio\2022\Professional\VC\Tools\MSVC\14.44.35207\include\vector

; 400  :     _CONSTEXPR20 _Vector_val() noexcept : _Myfirst(), _Mylast(), _Myend() {}

  00032	c7 47 04 00 00
	00 00		 mov	 DWORD PTR [edi+4], 0
  00039	c7 47 08 00 00
	00 00		 mov	 DWORD PTR [edi+8], 0
  00040	c7 47 0c 00 00
	00 00		 mov	 DWORD PTR [edi+12], 0
; File C:\IAGOS\server\v18\Source\Source\_Common\UltimateWeapon.cpp

; 31   : {

  00047	c7 45 fc 00 00
	00 00		 mov	 DWORD PTR __$EHRec$[ebp+8], 0
; File C:\Program Files\Microsoft Visual Studio\2022\Professional\VC\Tools\MSVC\14.44.35207\include\vector

; 400  :     _CONSTEXPR20 _Vector_val() noexcept : _Myfirst(), _Mylast(), _Myend() {}

  0004e	c7 47 10 00 00
	00 00		 mov	 DWORD PTR [edi+16], 0
  00055	c7 47 14 00 00
	00 00		 mov	 DWORD PTR [edi+20], 0
  0005c	c7 47 18 00 00
	00 00		 mov	 DWORD PTR [edi+24], 0
; File C:\IAGOS\server\v18\Source\Source\_Common\UltimateWeapon.cpp

; 31   : {

  00063	8d 77 1c	 lea	 esi, DWORD PTR [edi+28]
  00066	c6 45 fc 01	 mov	 BYTE PTR __$EHRec$[ebp+8], 1
; File C:\Program Files\Microsoft Visual Studio\2022\Professional\VC\Tools\MSVC\14.44.35207\include\xmemory

; 136  :         return ::operator new(_Bytes);

  0006a	6a 28		 push	 40			; 00000028H
; File C:\IAGOS\server\v18\Source\Source\_Common\UltimateWeapon.cpp

; 31   : {

  0006c	89 75 ec	 mov	 DWORD PTR _this$[ebp], esi
; File C:\Program Files\Microsoft Visual Studio\2022\Professional\VC\Tools\MSVC\14.44.35207\include\xtree

; 450  :     _Tree_val() noexcept : _Myhead(), _Mysize(0) {}

  0006f	c7 06 00 00 00
	00		 mov	 DWORD PTR [esi], 0
  00075	c7 46 04 00 00
	00 00		 mov	 DWORD PTR [esi+4], 0
; File C:\Program Files\Microsoft Visual Studio\2022\Professional\VC\Tools\MSVC\14.44.35207\include\xmemory

; 136  :         return ::operator new(_Bytes);

  0007c	e8 00 00 00 00	 call	 ??2@YAPAXI@Z		; operator new
; File C:\Program Files\Microsoft Visual Studio\2022\Professional\VC\Tools\MSVC\14.44.35207\include\xtree

; 346  :         _Construct_in_place(_Pnode->_Left, _Pnode);

  00081	89 00		 mov	 DWORD PTR [eax], eax

; 347  :         _Construct_in_place(_Pnode->_Parent, _Pnode);

  00083	89 40 04	 mov	 DWORD PTR [eax+4], eax

; 348  :         _Construct_in_place(_Pnode->_Right, _Pnode);

  00086	89 40 08	 mov	 DWORD PTR [eax+8], eax

; 349  :         _Pnode->_Color = _Black;

  00089	66 c7 40 0c 01
	01		 mov	 WORD PTR [eax+12], 257	; 00000101H

; 1957 :         _Scary->_Myhead = _Node::_Buyheadnode(_Getal());

  0008f	89 06		 mov	 DWORD PTR [esi], eax
; File C:\IAGOS\server\v18\Source\Source\_Common\UltimateWeapon.cpp

; 31   : {

  00091	8d 77 24	 lea	 esi, DWORD PTR [edi+36]
  00094	c6 45 fc 02	 mov	 BYTE PTR __$EHRec$[ebp+8], 2
; File C:\Program Files\Microsoft Visual Studio\2022\Professional\VC\Tools\MSVC\14.44.35207\include\xmemory

; 136  :         return ::operator new(_Bytes);

  00098	6a 18		 push	 24			; 00000018H
; File C:\IAGOS\server\v18\Source\Source\_Common\UltimateWeapon.cpp

; 31   : {

  0009a	89 75 ec	 mov	 DWORD PTR _this$[ebp], esi
; File C:\Program Files\Microsoft Visual Studio\2022\Professional\VC\Tools\MSVC\14.44.35207\include\xtree

; 450  :     _Tree_val() noexcept : _Myhead(), _Mysize(0) {}

  0009d	c7 06 00 00 00
	00		 mov	 DWORD PTR [esi], 0
  000a3	c7 46 04 00 00
	00 00		 mov	 DWORD PTR [esi+4], 0
; File C:\Program Files\Microsoft Visual Studio\2022\Professional\VC\Tools\MSVC\14.44.35207\include\xmemory

; 136  :         return ::operator new(_Bytes);

  000aa	e8 00 00 00 00	 call	 ??2@YAPAXI@Z		; operator new
  000af	83 c4 08	 add	 esp, 8
; File C:\Program Files\Microsoft Visual Studio\2022\Professional\VC\Tools\MSVC\14.44.35207\include\xtree

; 346  :         _Construct_in_place(_Pnode->_Left, _Pnode);

  000b2	89 00		 mov	 DWORD PTR [eax], eax

; 347  :         _Construct_in_place(_Pnode->_Parent, _Pnode);

  000b4	89 40 04	 mov	 DWORD PTR [eax+4], eax

; 348  :         _Construct_in_place(_Pnode->_Right, _Pnode);

  000b7	89 40 08	 mov	 DWORD PTR [eax+8], eax

; 349  :         _Pnode->_Color = _Black;

  000ba	66 c7 40 0c 01
	01		 mov	 WORD PTR [eax+12], 257	; 00000101H

; 1957 :         _Scary->_Myhead = _Node::_Buyheadnode(_Getal());

  000c0	89 06		 mov	 DWORD PTR [esi], eax
; File C:\IAGOS\server\v18\Source\Source\_Common\UltimateWeapon.cpp

; 38   : }

  000c2	8b c7		 mov	 eax, edi
  000c4	c7 47 2c 00 00
	00 00		 mov	 DWORD PTR [edi+44], 0
  000cb	c7 47 30 00 00
	00 00		 mov	 DWORD PTR [edi+48], 0
  000d2	c7 47 34 00 00
	00 00		 mov	 DWORD PTR [edi+52], 0
  000d9	c7 47 38 00 00
	00 00		 mov	 DWORD PTR [edi+56], 0
  000e0	8b 4d f4	 mov	 ecx, DWORD PTR __$EHRec$[ebp]
  000e3	64 89 0d 00 00
	00 00		 mov	 DWORD PTR fs:0, ecx
  000ea	59		 pop	 ecx
  000eb	5f		 pop	 edi
  000ec	5e		 pop	 esi
  000ed	8b e5		 mov	 esp, ebp
  000ef	5d		 pop	 ebp
  000f0	c3		 ret	 0
_TEXT	ENDS
;	COMDAT text$x
text$x	SEGMENT
__unwindfunclet$??0CUltimateWeapon@@QAE@XZ$0:
  00000	8b 4d f0	 mov	 ecx, DWORD PTR _this$[ebp]
  00003	83 c1 04	 add	 ecx, 4
  00006	e9 00 00 00 00	 jmp	 ??1?$vector@U__MAKEGEMITEM@CUltimateWeapon@@V?$allocator@U__MAKEGEMITEM@CUltimateWeapon@@@std@@@std@@QAE@XZ ; std::vector<CUltimateWeapon::__MAKEGEMITEM,std::allocator<CUltimateWeapon::__MAKEGEMITEM> >::~vector<CUltimateWeapon::__MAKEGEMITEM,std::allocator<CUltimateWeapon::__MAKEGEMITEM> >
__unwindfunclet$??0CUltimateWeapon@@QAE@XZ$1:
  0000b	8b 4d f0	 mov	 ecx, DWORD PTR _this$[ebp]
  0000e	83 c1 10	 add	 ecx, 16			; 00000010H
  00011	e9 00 00 00 00	 jmp	 ??1?$vector@U__GEMABILITYKIND@CUltimateWeapon@@V?$allocator@U__GEMABILITYKIND@CUltimateWeapon@@@std@@@std@@QAE@XZ ; std::vector<CUltimateWeapon::__GEMABILITYKIND,std::allocator<CUltimateWeapon::__GEMABILITYKIND> >::~vector<CUltimateWeapon::__GEMABILITYKIND,std::allocator<CUltimateWeapon::__GEMABILITYKIND> >
__unwindfunclet$??0CUltimateWeapon@@QAE@XZ$2:
  00016	8b 4d f0	 mov	 ecx, DWORD PTR _this$[ebp]
  00019	83 c1 1c	 add	 ecx, 28			; 0000001cH
  0001c	e9 00 00 00 00	 jmp	 ??1?$map@HU__MAKEGEMPROB@CUltimateWeapon@@U?$less@H@std@@V?$allocator@U?$pair@$$CBHU__MAKEGEMPROB@CUltimateWeapon@@@std@@@4@@std@@QAE@XZ
  00021	cc		 int	 3
  00022	cc		 int	 3
  00023	cc		 int	 3
  00024	cc		 int	 3
  00025	cc		 int	 3
__ehhandler$??0CUltimateWeapon@@QAE@XZ:
  00026	90		 npad	 1
  00027	90		 npad	 1
  00028	8b 54 24 08	 mov	 edx, DWORD PTR [esp+8]
  0002c	8d 42 0c	 lea	 eax, DWORD PTR [edx+12]
  0002f	8b 4a ec	 mov	 ecx, DWORD PTR [edx-20]
  00032	33 c8		 xor	 ecx, eax
  00034	e8 00 00 00 00	 call	 @__security_check_cookie@4
  00039	b8 00 00 00 00	 mov	 eax, OFFSET __ehfuncinfo$??0CUltimateWeapon@@QAE@XZ
  0003e	e9 00 00 00 00	 jmp	 ___CxxFrameHandler3
text$x	ENDS
??0CUltimateWeapon@@QAE@XZ ENDP				; CUltimateWeapon::CUltimateWeapon
; Function compile flags: /Ogtp
; File C:\IAGOS\server\v18\Source\Source\_Common\UltimateWeapon.cpp
; File C:\Program Files\Microsoft Visual Studio\2022\Professional\VC\Tools\MSVC\14.44.35207\include\vector
; File C:\IAGOS\server\v18\Source\Source\_Common\UltimateWeapon.cpp
; File C:\Program Files\Microsoft Visual Studio\2022\Professional\VC\Tools\MSVC\14.44.35207\include\vector
; File C:\IAGOS\server\v18\Source\Source\_Common\UltimateWeapon.cpp
; File C:\Program Files\Microsoft Visual Studio\2022\Professional\VC\Tools\MSVC\14.44.35207\include\vector
; File C:\IAGOS\server\v18\Source\Source\_Common\UltimateWeapon.cpp
; File C:\Program Files\Microsoft Visual Studio\2022\Professional\VC\Tools\MSVC\14.44.35207\include\vector
; File C:\Program Files\Microsoft Visual Studio\2022\Professional\VC\Tools\MSVC\14.44.35207\include\xmemory
; File C:\Program Files\Microsoft Visual Studio\2022\Professional\VC\Tools\MSVC\14.44.35207\include\vector
; File C:\Program Files\Microsoft Visual Studio\2022\Professional\VC\Tools\MSVC\14.44.35207\include\xmemory
; File C:\Program Files\Microsoft Visual Studio\2022\Professional\VC\Tools\MSVC\14.44.35207\include\vector
; File C:\Program Files\Microsoft Visual Studio\2022\Professional\VC\Tools\MSVC\14.44.35207\include\xmemory
; File C:\Program Files\Microsoft Visual Studio\2022\Professional\VC\Tools\MSVC\14.44.35207\include\vector
; File C:\IAGOS\server\v18\Source\Source\_Common\UltimateWeapon.cpp
; File C:\Program Files\Microsoft Visual Studio\2022\Professional\VC\Tools\MSVC\14.44.35207\include\vector
; File C:\IAGOS\server\v18\Source\Source\_Common\UltimateWeapon.cpp
; File C:\Program Files\Microsoft Visual Studio\2022\Professional\VC\Tools\MSVC\14.44.35207\include\vector
; File C:\IAGOS\server\v18\Source\Source\_Common\UltimateWeapon.cpp
; File C:\Program Files\Microsoft Visual Studio\2022\Professional\VC\Tools\MSVC\14.44.35207\include\xmemory
; File C:\IAGOS\server\v18\Source\Source\_Common\UltimateWeapon.cpp
; File C:\Program Files\Microsoft Visual Studio\2022\Professional\VC\Tools\MSVC\14.44.35207\include\xmemory
; File C:\IAGOS\server\v18\Source\Source\_Common\UltimateWeapon.cpp
;	COMDAT ?GetDST@CUltimateWeapon@@QAEHKHH@Z
_TEXT	SEGMENT
_GemAbilityKind$ = -32					; size = 16
tv620 = -16						; size = 4
__$EHRec$ = -12						; size = 12
_dwItemId$ = 8						; size = 4
_nItemNum$ = 12						; size = 4
_nDSTInfo$ = 16						; size = 4
?GetDST@CUltimateWeapon@@QAEHKHH@Z PROC			; CUltimateWeapon::GetDST, COMDAT
; _this$ = ecx

; 903  : {

  00000	55		 push	 ebp
  00001	8b ec		 mov	 ebp, esp
  00003	6a ff		 push	 -1
  00005	68 00 00 00 00	 push	 __ehhandler$?GetDST@CUltimateWeapon@@QAEHKHH@Z
  0000a	64 a1 00 00 00
	00		 mov	 eax, DWORD PTR fs:0
  00010	50		 push	 eax
  00011	83 ec 14	 sub	 esp, 20			; 00000014H
  00014	53		 push	 ebx
  00015	56		 push	 esi
  00016	57		 push	 edi
  00017	a1 00 00 00 00	 mov	 eax, DWORD PTR ___security_cookie
  0001c	33 c5		 xor	 eax, ebp
  0001e	50		 push	 eax
  0001f	8d 45 f4	 lea	 eax, DWORD PTR __$EHRec$[ebp]
  00022	64 a3 00 00 00
	00		 mov	 DWORD PTR fs:0, eax
; File C:\Program Files\Microsoft Visual Studio\2022\Professional\VC\Tools\MSVC\14.44.35207\include\vector

; 400  :     _CONSTEXPR20 _Vector_val() noexcept : _Myfirst(), _Mylast(), _Myend() {}

  00028	33 db		 xor	 ebx, ebx
  0002a	33 f6		 xor	 esi, esi
  0002c	89 75 e4	 mov	 DWORD PTR _GemAbilityKind$[ebp+4], esi
  0002f	89 5d e8	 mov	 DWORD PTR _GemAbilityKind$[ebp+8], ebx
  00032	89 5d ec	 mov	 DWORD PTR _GemAbilityKind$[ebp+12], ebx

; 1915 :         return static_cast<size_type>(_My_data._Mylast - _My_data._Myfirst);

  00035	8b 79 10	 mov	 edi, DWORD PTR [ecx+16]
; File C:\IAGOS\server\v18\Source\Source\_Common\UltimateWeapon.cpp

; 908  : 	for( DWORD i=0; i<m_vecGemAbilityKind.size(); i++ )

  00038	33 c0		 xor	 eax, eax
; File C:\Program Files\Microsoft Visual Studio\2022\Professional\VC\Tools\MSVC\14.44.35207\include\vector

; 1915 :         return static_cast<size_type>(_My_data._Mylast - _My_data._Myfirst);

  0003a	8b 51 14	 mov	 edx, DWORD PTR [ecx+20]
  0003d	2b d7		 sub	 edx, edi
; File C:\IAGOS\server\v18\Source\Source\_Common\UltimateWeapon.cpp

; 905  : 	__GEMABILITYKIND	GemAbilityKind;

  0003f	89 5d fc	 mov	 DWORD PTR __$EHRec$[ebp+8], ebx
; File C:\Program Files\Microsoft Visual Studio\2022\Professional\VC\Tools\MSVC\14.44.35207\include\vector

; 1915 :         return static_cast<size_type>(_My_data._Mylast - _My_data._Myfirst);

  00042	c1 fa 04	 sar	 edx, 4
  00045	89 7d f0	 mov	 DWORD PTR tv620[ebp], edi
; File C:\IAGOS\server\v18\Source\Source\_Common\UltimateWeapon.cpp

; 908  : 	for( DWORD i=0; i<m_vecGemAbilityKind.size(); i++ )

  00048	85 d2		 test	 edx, edx
  0004a	74 13		 je	 SHORT $LN149@GetDST
  0004c	8b cf		 mov	 ecx, edi
  0004e	66 90		 npad	 2
$LL4@GetDST:

; 909  : 	{
; 910  : 		if( m_vecGemAbilityKind[i].nAbility == nDSTInfo )

  00050	8b 39		 mov	 edi, DWORD PTR [ecx]
  00052	3b 7d 10	 cmp	 edi, DWORD PTR _nDSTInfo$[ebp]
  00055	74 6e		 je	 SHORT $LN138@GetDST

; 908  : 	for( DWORD i=0; i<m_vecGemAbilityKind.size(); i++ )

  00057	40		 inc	 eax
  00058	83 c1 10	 add	 ecx, 16			; 00000010H
  0005b	3b c2		 cmp	 eax, edx
  0005d	72 f1		 jb	 SHORT $LL4@GetDST
$LN149@GetDST:
; File C:\Program Files\Microsoft Visual Studio\2022\Professional\VC\Tools\MSVC\14.44.35207\include\vector

; 2090 :         if (_Myfirst) { // destroy and deallocate old array

  0005f	33 ff		 xor	 edi, edi
$LN13@GetDST:
  00061	85 f6		 test	 esi, esi
  00063	0f 84 ea 00 00
	00		 je	 $LN95@GetDST

; 2091 :             _STD _Destroy_range(_Myfirst, _Mylast, _Al);

  00069	3b f3		 cmp	 esi, ebx
; File C:\Program Files\Microsoft Visual Studio\2022\Professional\VC\Tools\MSVC\14.44.35207\include\xmemory

; 1102 :         for (; _First != _Last; ++_First) {

  0006b	74 15		 je	 SHORT $LN100@GetDST
  0006d	0f 1f 00	 npad	 3
$LL101@GetDST:
; File C:\Program Files\Microsoft Visual Studio\2022\Professional\VC\Tools\MSVC\14.44.35207\include\vector

; 830  :         _Tidy();

  00070	8d 4e 08	 lea	 ecx, DWORD PTR [esi+8]
  00073	e8 00 00 00 00	 call	 ?_Tidy@?$vector@HV?$allocator@H@std@@@std@@AAEXXZ ; std::vector<int,std::allocator<int> >::_Tidy
; File C:\Program Files\Microsoft Visual Studio\2022\Professional\VC\Tools\MSVC\14.44.35207\include\xmemory

; 1102 :         for (; _First != _Last; ++_First) {

  00078	83 c6 14	 add	 esi, 20			; 00000014H
  0007b	3b f3		 cmp	 esi, ebx
  0007d	75 f1		 jne	 SHORT $LL101@GetDST
  0007f	8b 75 e4	 mov	 esi, DWORD PTR _GemAbilityKind$[ebp+4]
$LN100@GetDST:
; File C:\Program Files\Microsoft Visual Studio\2022\Professional\VC\Tools\MSVC\14.44.35207\include\vector

; 2093 :             _Al.deallocate(_Myfirst, static_cast<size_type>(_Myend - _Myfirst));

  00082	8b 4d ec	 mov	 ecx, DWORD PTR _GemAbilityKind$[ebp+12]
  00085	b8 67 66 66 66	 mov	 eax, 1717986919		; 66666667H
  0008a	2b ce		 sub	 ecx, esi
  0008c	f7 e9		 imul	 ecx
  0008e	c1 fa 03	 sar	 edx, 3
  00091	8b c2		 mov	 eax, edx
  00093	c1 e8 1f	 shr	 eax, 31			; 0000001fH
  00096	03 c2		 add	 eax, edx
; File C:\Program Files\Microsoft Visual Studio\2022\Professional\VC\Tools\MSVC\14.44.35207\include\xmemory

; 985  :         _STD _Deallocate<_New_alignof<_Ty>>(_Ptr, sizeof(_Ty) * _Count);

  00098	8d 0c 80	 lea	 ecx, DWORD PTR [eax+eax*4]
  0009b	8b c6		 mov	 eax, esi
  0009d	c1 e1 02	 shl	 ecx, 2

; 284  :         if (_Bytes >= _Big_allocation_threshold) {

  000a0	81 f9 00 10 00
	00		 cmp	 ecx, 4096		; 00001000H
  000a6	0f 82 9d 00 00
	00		 jb	 $LN128@GetDST

; 205  :     const uintptr_t _Ptr_container   = _Ptr_user[-1];

  000ac	8b 70 fc	 mov	 esi, DWORD PTR [eax-4]
  000af	83 c1 23	 add	 ecx, 35			; 00000023H
  000b2	2b c6		 sub	 eax, esi

; 219  :     _STL_VERIFY(_Back_shift >= _Min_back_shift && _Back_shift <= _Non_user_size, "invalid argument");

  000b4	83 c0 fc	 add	 eax, -4			; fffffffcH
  000b7	83 f8 1f	 cmp	 eax, 31			; 0000001fH
  000ba	0f 87 a9 00 00
	00		 ja	 $LN154@GetDST
  000c0	e9 84 00 00 00	 jmp	 $LN128@GetDST
$LN138@GetDST:
  000c5	8b 4d f0	 mov	 ecx, DWORD PTR tv620[ebp]
; File C:\Program Files\Microsoft Visual Studio\2022\Professional\VC\Tools\MSVC\14.44.35207\include\vector

; 1934 :         return _My_data._Myfirst[_Pos];

  000c8	c1 e0 04	 shl	 eax, 4
  000cb	83 c1 04	 add	 ecx, 4
  000ce	03 c8		 add	 ecx, eax
  000d0	89 7d e0	 mov	 DWORD PTR _GemAbilityKind$[ebp], edi

; 1524 :         if (this == _STD addressof(_Right)) {

  000d3	8d 45 e4	 lea	 eax, DWORD PTR _GemAbilityKind$[ebp+4]
  000d6	3b c1		 cmp	 eax, ecx
  000d8	74 28		 je	 SHORT $LN9@GetDST

; 1525 :             return *this;
; 1526 :         }
; 1527 : 
; 1528 :         auto& _Al       = _Getal();
; 1529 :         auto& _Right_al = _Right._Getal();
; 1530 :         if constexpr (_Choose_pocca_v<_Alty>) {
; 1531 :             if (_Al != _Right_al) {
; 1532 :                 _Tidy();
; 1533 :                 _Mypair._Myval2._Reload_proxy(_GET_PROXY_ALLOCATOR(_Alty, _Al), _GET_PROXY_ALLOCATOR(_Alty, _Right_al));
; 1534 :             }
; 1535 :         }
; 1536 : 
; 1537 :         _Pocca(_Al, _Right_al);
; 1538 :         auto& _Right_data = _Right._Mypair._Myval2;
; 1539 :         _Assign_counted_range(_Right_data._Myfirst, static_cast<size_type>(_Right_data._Mylast - _Right_data._Myfirst));

  000da	8b 31		 mov	 esi, DWORD PTR [ecx]
  000dc	b8 67 66 66 66	 mov	 eax, 1717986919		; 66666667H
  000e1	8b 49 04	 mov	 ecx, DWORD PTR [ecx+4]
  000e4	2b ce		 sub	 ecx, esi
  000e6	f7 e9		 imul	 ecx
  000e8	8d 4d e4	 lea	 ecx, DWORD PTR _GemAbilityKind$[ebp+4]
  000eb	c1 fa 03	 sar	 edx, 3
  000ee	8b c2		 mov	 eax, edx
  000f0	c1 e8 1f	 shr	 eax, 31			; 0000001fH
  000f3	03 c2		 add	 eax, edx
  000f5	50		 push	 eax
  000f6	56		 push	 esi
  000f7	e8 00 00 00 00	 call	 ??$_Assign_counted_range@PAU__GEMABILITY@CUltimateWeapon@@@?$vector@U__GEMABILITY@CUltimateWeapon@@V?$allocator@U__GEMABILITY@CUltimateWeapon@@@std@@@std@@AAEXPAU__GEMABILITY@CUltimateWeapon@@I@Z ; std::vector<CUltimateWeapon::__GEMABILITY,std::allocator<CUltimateWeapon::__GEMABILITY> >::_Assign_counted_range<CUltimateWeapon::__GEMABILITY *>
  000fc	8b 5d e8	 mov	 ebx, DWORD PTR _GemAbilityKind$[ebp+8]
  000ff	8b 75 e4	 mov	 esi, DWORD PTR _GemAbilityKind$[ebp+4]
$LN9@GetDST:

; 1915 :         return static_cast<size_type>(_My_data._Mylast - _My_data._Myfirst);

  00102	8b cb		 mov	 ecx, ebx
  00104	b8 67 66 66 66	 mov	 eax, 1717986919		; 66666667H
  00109	2b ce		 sub	 ecx, esi
; File C:\IAGOS\server\v18\Source\Source\_Common\UltimateWeapon.cpp

; 921  : 	for( DWORD i = 0 ; i < GemAbilityKind.vecAbilityKind.size() ; ++i )

  0010b	33 ff		 xor	 edi, edi
; File C:\Program Files\Microsoft Visual Studio\2022\Professional\VC\Tools\MSVC\14.44.35207\include\vector

; 1915 :         return static_cast<size_type>(_My_data._Mylast - _My_data._Myfirst);

  0010d	f7 e9		 imul	 ecx
  0010f	c1 fa 03	 sar	 edx, 3
  00112	8b ca		 mov	 ecx, edx
  00114	c1 e9 1f	 shr	 ecx, 31			; 0000001fH
  00117	03 ca		 add	 ecx, edx
; File C:\IAGOS\server\v18\Source\Source\_Common\UltimateWeapon.cpp

; 921  : 	for( DWORD i = 0 ; i < GemAbilityKind.vecAbilityKind.size() ; ++i )

  00119	0f 84 40 ff ff
	ff		 je	 $LN149@GetDST
  0011f	8b 55 08	 mov	 edx, DWORD PTR _dwItemId$[ebp]
  00122	8d 46 04	 lea	 eax, DWORD PTR [esi+4]
$LL7@GetDST:

; 922  : 	{
; 923  : 		if( dwItemId == GemAbilityKind.vecAbilityKind[i].dwAbilityItemId )

  00125	3b 10		 cmp	 edx, DWORD PTR [eax]
  00127	74 0d		 je	 SHORT $LN139@GetDST

; 921  : 	for( DWORD i = 0 ; i < GemAbilityKind.vecAbilityKind.size() ; ++i )

  00129	47		 inc	 edi
  0012a	83 c0 14	 add	 eax, 20			; 00000014H
  0012d	3b f9		 cmp	 edi, ecx
  0012f	72 f4		 jb	 SHORT $LL7@GetDST

; 922  : 	{
; 923  : 		if( dwItemId == GemAbilityKind.vecAbilityKind[i].dwAbilityItemId )

  00131	e9 29 ff ff ff	 jmp	 $LN149@GetDST
$LN139@GetDST:
; File C:\Program Files\Microsoft Visual Studio\2022\Professional\VC\Tools\MSVC\14.44.35207\include\vector

; 1934 :         return _My_data._Myfirst[_Pos];

  00136	8d 04 bf	 lea	 eax, DWORD PTR [edi+edi*4]
; File C:\IAGOS\server\v18\Source\Source\_Common\UltimateWeapon.cpp

; 925  : 			nResultDST = GemAbilityKind.vecAbilityKind[i].vecAbility[nItemNum-1];

  00139	8b 4c 86 08	 mov	 ecx, DWORD PTR [esi+eax*4+8]
  0013d	8b 45 0c	 mov	 eax, DWORD PTR _nItemNum$[ebp]
  00140	8b 7c 81 fc	 mov	 edi, DWORD PTR [ecx+eax*4-4]
  00144	e9 18 ff ff ff	 jmp	 $LN13@GetDST
$LN128@GetDST:
; File C:\Program Files\Microsoft Visual Studio\2022\Professional\VC\Tools\MSVC\14.44.35207\include\xmemory

; 289  :         ::operator delete(_Ptr, _Bytes);

  00149	51		 push	 ecx
  0014a	56		 push	 esi
  0014b	e8 00 00 00 00	 call	 ??3@YAXPAXI@Z		; operator delete
  00150	83 c4 08	 add	 esp, 8
$LN95@GetDST:
; File C:\IAGOS\server\v18\Source\Source\_Common\UltimateWeapon.cpp

; 929  : 	return nResultDST;

  00153	8b c7		 mov	 eax, edi

; 930  : }

  00155	8b 4d f4	 mov	 ecx, DWORD PTR __$EHRec$[ebp]
  00158	64 89 0d 00 00
	00 00		 mov	 DWORD PTR fs:0, ecx
  0015f	59		 pop	 ecx
  00160	5f		 pop	 edi
  00161	5e		 pop	 esi
  00162	5b		 pop	 ebx
  00163	8b e5		 mov	 esp, ebp
  00165	5d		 pop	 ebp
  00166	c2 0c 00	 ret	 12			; 0000000cH
$LN154@GetDST:
; File C:\Program Files\Microsoft Visual Studio\2022\Professional\VC\Tools\MSVC\14.44.35207\include\xmemory

; 219  :     _STL_VERIFY(_Back_shift >= _Min_back_shift && _Back_shift <= _Non_user_size, "invalid argument");

  00169	6a 00		 push	 0
  0016b	6a 00		 push	 0
  0016d	6a 00		 push	 0
  0016f	6a 00		 push	 0
  00171	6a 00		 push	 0
  00173	e8 00 00 00 00	 call	 __invoke_watson
$LN152@GetDST:
  00178	cc		 int	 3
_TEXT	ENDS
;	COMDAT text$x
text$x	SEGMENT
__unwindfunclet$?GetDST@CUltimateWeapon@@QAEHKHH@Z$0:
  00000	8d 4d e0	 lea	 ecx, DWORD PTR _GemAbilityKind$[ebp]
  00003	e9 00 00 00 00	 jmp	 ??1__GEMABILITYKIND@CUltimateWeapon@@QAE@XZ
  00008	cc		 int	 3
  00009	cc		 int	 3
  0000a	cc		 int	 3
  0000b	cc		 int	 3
  0000c	cc		 int	 3
__ehhandler$?GetDST@CUltimateWeapon@@QAEHKHH@Z:
  0000d	90		 npad	 1
  0000e	90		 npad	 1
  0000f	8b 54 24 08	 mov	 edx, DWORD PTR [esp+8]
  00013	8d 42 0c	 lea	 eax, DWORD PTR [edx+12]
  00016	8b 4a dc	 mov	 ecx, DWORD PTR [edx-36]
  00019	33 c8		 xor	 ecx, eax
  0001b	e8 00 00 00 00	 call	 @__security_check_cookie@4
  00020	b8 00 00 00 00	 mov	 eax, OFFSET __ehfuncinfo$?GetDST@CUltimateWeapon@@QAEHKHH@Z
  00025	e9 00 00 00 00	 jmp	 ___CxxFrameHandler3
text$x	ENDS
?GetDST@CUltimateWeapon@@QAEHKHH@Z ENDP			; CUltimateWeapon::GetDST
; Function compile flags: /Ogtp
; File C:\IAGOS\server\v18\Source\Source\_Common\UltimateWeapon.cpp
; File C:\Program Files\Microsoft Visual Studio\2022\Professional\VC\Tools\MSVC\14.44.35207\include\xmemory
; File C:\Program Files\Microsoft Visual Studio\2022\Professional\VC\Tools\MSVC\14.44.35207\include\xtree
; File C:\Program Files\Microsoft Visual Studio\2022\Professional\VC\Tools\MSVC\14.44.35207\include\xmemory
; File C:\Program Files\Microsoft Visual Studio\2022\Professional\VC\Tools\MSVC\14.44.35207\include\xtree
; File C:\IAGOS\server\v18\Source\Source\_Common\UltimateWeapon.cpp
; File C:\IAGOS\server\v18\Source\Source\_Common\Item.h
; File C:\IAGOS\server\v18\Source\Source\_Common\Project.h
; File C:\IAGOS\server\v18\Source\Source\_Common\data.h
; File C:\IAGOS\server\v18\Source\Source\_Common\Project.h
; File C:\IAGOS\server\v18\Source\Source\_Common\UltimateWeapon.cpp
; File C:\Program Files\Microsoft Visual Studio\2022\Professional\VC\Tools\MSVC\14.44.35207\include\xmemory
; File C:\Program Files\Microsoft Visual Studio\2022\Professional\VC\Tools\MSVC\14.44.35207\include\xtree
; File C:\Program Files\Microsoft Visual Studio\2022\Professional\VC\Tools\MSVC\14.44.35207\include\xmemory
; File C:\Program Files\Microsoft Visual Studio\2022\Professional\VC\Tools\MSVC\14.44.35207\include\xtree
; File C:\IAGOS\server\v18\Source\Source\_Common\Item.h
; File C:\IAGOS\server\v18\Source\Source\_Common\UltimateWeapon.cpp
; File C:\IAGOS\server\v18\Source\Source\_Common\Item.h
; File C:\IAGOS\server\v18\Source\Source\_Common\UltimateWeapon.cpp
; File C:\IAGOS\server\v18\Source\Source\_Common\Item.h
; File C:\IAGOS\server\v18\Source\Source\_Common\UltimateWeapon.cpp
; File C:\IAGOS\server\v18\Source\Source\_Common\Item.h
; File C:\IAGOS\server\v18\Source\Source\_Common\UltimateWeapon.cpp
; File C:\IAGOS\server\v18\Source\Source\_Common\Item.h
; File C:\Program Files\Microsoft Visual Studio\2022\Professional\VC\Tools\MSVC\14.44.35207\include\xtree
; File C:\Program Files\Microsoft Visual Studio\2022\Professional\VC\Tools\MSVC\14.44.35207\include\type_traits
; File C:\Program Files\Microsoft Visual Studio\2022\Professional\VC\Tools\MSVC\14.44.35207\include\xtree
; File C:\IAGOS\server\v18\Source\Source\_Common\UltimateWeapon.cpp
; File C:\IAGOS\server\v18\Source\Source\_Common\Item.h
; File C:\Program Files\Microsoft Visual Studio\2022\Professional\VC\Tools\MSVC\14.44.35207\include\utility
; File C:\IAGOS\server\v18\Source\Source\_Common\UltimateWeapon.cpp
; File C:\Program Files\Microsoft Visual Studio\2022\Professional\VC\Tools\MSVC\14.44.35207\include\utility
; File C:\IAGOS\server\v18\Source\Source\_Common\UltimateWeapon.cpp
; File C:\IAGOS\server\v18\Source\Source\_Common\Item.h
; File C:\IAGOS\server\v18\Source\Source\_Common\UltimateWeapon.cpp
; File C:\IAGOS\server\v18\Source\Source\_Common\Item.h
; File C:\IAGOS\server\v18\Source\Source\_Common\UltimateWeapon.cpp
; File C:\Program Files\Microsoft Visual Studio\2022\Professional\VC\Tools\MSVC\14.44.35207\include\xtree
; File C:\IAGOS\server\v18\Source\Source\_Common\UltimateWeapon.cpp
; File C:\IAGOS\server\v18\Source\Source\_Common\Project.h
; File C:\IAGOS\server\v18\Source\Source\_Common\data.h
; File C:\IAGOS\server\v18\Source\Source\_Common\Project.h
; File C:\IAGOS\server\v18\Source\Source\_Common\UltimateWeapon.cpp
; File C:\Program Files\Microsoft Visual Studio\2022\Professional\VC\Tools\MSVC\14.44.35207\include\xtree
; File C:\IAGOS\server\v18\Source\Source\_Common\UltimateWeapon.cpp
; File C:\Program Files\Microsoft Visual Studio\2022\Professional\VC\Tools\MSVC\14.44.35207\include\xtree
; File C:\IAGOS\server\v18\Source\Source\_Common\UltimateWeapon.cpp
; File C:\Program Files\Microsoft Visual Studio\2022\Professional\VC\Tools\MSVC\14.44.35207\include\xtree
; File C:\Program Files\Microsoft Visual Studio\2022\Professional\VC\Tools\MSVC\14.44.35207\include\type_traits
; File C:\Program Files\Microsoft Visual Studio\2022\Professional\VC\Tools\MSVC\14.44.35207\include\xtree
; File C:\IAGOS\server\v18\Source\Source\_Common\UltimateWeapon.cpp
; File C:\Program Files\Microsoft Visual Studio\2022\Professional\VC\Tools\MSVC\14.44.35207\include\xtree
; File C:\Program Files\Microsoft Visual Studio\2022\Professional\VC\Tools\MSVC\14.44.35207\include\utility
; File C:\Program Files\Microsoft Visual Studio\2022\Professional\VC\Tools\MSVC\14.44.35207\include\xtree
; File C:\Program Files\Microsoft Visual Studio\2022\Professional\VC\Tools\MSVC\14.44.35207\include\utility
; File C:\Program Files\Microsoft Visual Studio\2022\Professional\VC\Tools\MSVC\14.44.35207\include\xtree
; File C:\Program Files\Microsoft Visual Studio\2022\Professional\VC\Tools\MSVC\14.44.35207\include\utility
; File C:\Program Files\Microsoft Visual Studio\2022\Professional\VC\Tools\MSVC\14.44.35207\include\xtree
; File C:\Program Files\Microsoft Visual Studio\2022\Professional\VC\Tools\MSVC\14.44.35207\include\type_traits
; File C:\Program Files\Microsoft Visual Studio\2022\Professional\VC\Tools\MSVC\14.44.35207\include\xtree
; File C:\Program Files\Microsoft Visual Studio\2022\Professional\VC\Tools\MSVC\14.44.35207\include\xmemory
; File C:\Program Files\Microsoft Visual Studio\2022\Professional\VC\Tools\MSVC\14.44.35207\include\xtree
; File C:\Program Files\Microsoft Visual Studio\2022\Professional\VC\Tools\MSVC\14.44.35207\include\xmemory
; File C:\Program Files\Microsoft Visual Studio\2022\Professional\VC\Tools\MSVC\14.44.35207\include\xtree
; File C:\Program Files\Microsoft Visual Studio\2022\Professional\VC\Tools\MSVC\14.44.35207\include\xmemory
; File C:\Program Files\Microsoft Visual Studio\2022\Professional\VC\Tools\MSVC\14.44.35207\include\xtree
; File C:\Program Files\Microsoft Visual Studio\2022\Professional\VC\Tools\MSVC\14.44.35207\include\utility
; File C:\Program Files\Microsoft Visual Studio\2022\Professional\VC\Tools\MSVC\14.44.35207\include\xtree
; File C:\IAGOS\server\v18\Source\Source\_Common\UltimateWeapon.cpp
; File C:\Program Files\Microsoft Visual Studio\2022\Professional\VC\Tools\MSVC\14.44.35207\include\xtree
; File C:\IAGOS\server\v18\Source\Source\_Common\UltimateWeapon.cpp
;	COMDAT ?GetDestParamUltimate@CUltimateWeapon@@QAE?AV?$map@HHU?$less@H@std@@V?$allocator@U?$pair@$$CBHH@std@@@2@@std@@PAVCItemElem@@@Z
_TEXT	SEGMENT
$T2 = -92						; size = 12
__Loc$3 = -80						; size = 12
__Loc$4 = -68						; size = 12
__Loc$5 = -68						; size = 12
$T6 = -56						; size = 8
$T7 = -56						; size = 8
$T8 = -48						; size = 8
_mapItem$ = -40						; size = 8
$T9 = -32						; size = 8
$T10 = -28						; size = 4
_this$1$ = -24						; size = 4
$T11 = -20						; size = 4
_it$12 = -16						; size = 4
__$EHRec$ = -12						; size = 12
___$ReturnUdt$ = 8					; size = 4
_pItemElem$ = 12					; size = 4
$T13 = 12						; size = 4
$T14 = 12						; size = 4
?GetDestParamUltimate@CUltimateWeapon@@QAE?AV?$map@HHU?$less@H@std@@V?$allocator@U?$pair@$$CBHH@std@@@2@@std@@PAVCItemElem@@@Z PROC ; CUltimateWeapon::GetDestParamUltimate, COMDAT
; _this$ = ecx

; 858  : {

  00000	55		 push	 ebp
  00001	8b ec		 mov	 ebp, esp
  00003	6a ff		 push	 -1
  00005	68 00 00 00 00	 push	 __ehhandler$?GetDestParamUltimate@CUltimateWeapon@@QAE?AV?$map@HHU?$less@H@std@@V?$allocator@U?$pair@$$CBHH@std@@@2@@std@@PAVCItemElem@@@Z
  0000a	64 a1 00 00 00
	00		 mov	 eax, DWORD PTR fs:0
  00010	50		 push	 eax
  00011	83 ec 50	 sub	 esp, 80			; 00000050H
  00014	53		 push	 ebx
  00015	56		 push	 esi
  00016	57		 push	 edi
  00017	a1 00 00 00 00	 mov	 eax, DWORD PTR ___security_cookie
  0001c	33 c5		 xor	 eax, ebp
  0001e	50		 push	 eax
  0001f	8d 45 f4	 lea	 eax, DWORD PTR __$EHRec$[ebp]
  00022	64 a3 00 00 00
	00		 mov	 DWORD PTR fs:0, eax
  00028	89 4d e8	 mov	 DWORD PTR _this$1$[ebp], ecx
  0002b	8b 7d 08	 mov	 edi, DWORD PTR ___$ReturnUdt$[ebp]
  0002e	c7 45 ec 01 00
	00 00		 mov	 DWORD PTR $T11[ebp], 1
; File C:\Program Files\Microsoft Visual Studio\2022\Professional\VC\Tools\MSVC\14.44.35207\include\xmemory

; 136  :         return ::operator new(_Bytes);

  00035	6a 18		 push	 24			; 00000018H
; File C:\Program Files\Microsoft Visual Studio\2022\Professional\VC\Tools\MSVC\14.44.35207\include\xtree

; 450  :     _Tree_val() noexcept : _Myhead(), _Mysize(0) {}

  00037	c7 07 00 00 00
	00		 mov	 DWORD PTR [edi], 0
  0003d	c7 47 04 00 00
	00 00		 mov	 DWORD PTR [edi+4], 0
; File C:\Program Files\Microsoft Visual Studio\2022\Professional\VC\Tools\MSVC\14.44.35207\include\xmemory

; 136  :         return ::operator new(_Bytes);

  00044	e8 00 00 00 00	 call	 ??2@YAPAXI@Z		; operator new
  00049	83 c4 04	 add	 esp, 4
; File C:\Program Files\Microsoft Visual Studio\2022\Professional\VC\Tools\MSVC\14.44.35207\include\xtree

; 346  :         _Construct_in_place(_Pnode->_Left, _Pnode);

  0004c	89 00		 mov	 DWORD PTR [eax], eax

; 347  :         _Construct_in_place(_Pnode->_Parent, _Pnode);

  0004e	89 40 04	 mov	 DWORD PTR [eax+4], eax

; 348  :         _Construct_in_place(_Pnode->_Right, _Pnode);

  00051	89 40 08	 mov	 DWORD PTR [eax+8], eax

; 349  :         _Pnode->_Color = _Black;

  00054	66 c7 40 0c 01
	01		 mov	 WORD PTR [eax+12], 257	; 00000101H

; 1957 :         _Scary->_Myhead = _Node::_Buyheadnode(_Getal());

  0005a	89 07		 mov	 DWORD PTR [edi], eax
; File C:\IAGOS\server\v18\Source\Source\_Common\UltimateWeapon.cpp

; 860  : 	if( !pItemElem || pItemElem->GetProp()->dwReferStat1 != WEAPON_ULTIMATE )

  0005c	8b 5d 0c	 mov	 ebx, DWORD PTR _pItemElem$[ebp]
  0005f	c7 45 fc 00 00
	00 00		 mov	 DWORD PTR __$EHRec$[ebp+8], 0
  00066	c7 45 ec 01 00
	00 00		 mov	 DWORD PTR $T11[ebp], 1
  0006d	85 db		 test	 ebx, ebx
  0006f	0f 84 2b 02 00
	00		 je	 $LN9@GetDestPar
; File C:\IAGOS\server\v18\Source\Source\_Common\Item.h

; 230  : 	ItemProp*	GetProp()	{	return prj.GetItemProp( m_dwItemId );	}

  00075	8b 4b 0c	 mov	 ecx, DWORD PTR [ebx+12]
; File C:\IAGOS\server\v18\Source\Source\_Common\Project.h

; 1389 : 	VERIFY_RANGE_ASSERT( nIndex, 0, m_aPropItem.GetSize(), "GetItemProp range_error", NULL );

  00078	a1 40 02 00 00	 mov	 eax, DWORD PTR ?prj@@3VCProject@@A+576
  0007d	85 c9		 test	 ecx, ecx
  0007f	78 10		 js	 SHORT $LN333@GetDestPar
  00081	3b c8		 cmp	 ecx, eax
  00083	7d 0c		 jge	 SHORT $LN333@GetDestPar
; File C:\IAGOS\server\v18\Source\Source\_Common\data.h

; 270  : 	if( dwIndex >= (DWORD)m_nMaxIndex )

  00085	73 20		 jae	 SHORT $LN412@GetDestPar

; 271  : 		return NULL;
; 272  : 	return (T*) m_apOffset[ dwIndex ];

  00087	a1 30 02 00 00	 mov	 eax, DWORD PTR ?prj@@3VCProject@@A+560
  0008c	8b 04 88	 mov	 eax, DWORD PTR [eax+ecx*4]
; File C:\IAGOS\server\v18\Source\Source\_Common\Project.h

; 1390 : 	return m_aPropItem.GetAt( nIndex ); 

  0008f	eb 18		 jmp	 SHORT $LN328@GetDestPar
$LN333@GetDestPar:

; 579  : 	LPCTSTR szErr = Error( _T( "%s min:%d, max:%d, index:%d" ), szMsg, nMin, nMax, nIndex ); 

  00091	51		 push	 ecx
  00092	50		 push	 eax
  00093	6a 00		 push	 0
  00095	68 00 00 00 00	 push	 OFFSET ??_C@_0BI@BEIFNGEL@GetItemProp?5range_error@
  0009a	68 00 00 00 00	 push	 OFFSET ??_C@_0BM@HMFGHCP@?$CFs?5min?3?$CFd?0?5max?3?$CFd?0?5index?3?$CFd@
  0009f	e8 00 00 00 00	 call	 ?Error@@YAPBDPBDZZ	; Error
  000a4	83 c4 14	 add	 esp, 20			; 00000014H
$LN412@GetDestPar:
; File C:\IAGOS\server\v18\Source\Source\_Common\UltimateWeapon.cpp

; 860  : 	if( !pItemElem || pItemElem->GetProp()->dwReferStat1 != WEAPON_ULTIMATE )

  000a7	33 c0		 xor	 eax, eax
$LN328@GetDestPar:
  000a9	83 b8 d0 01 00
	00 02		 cmp	 DWORD PTR [eax+464], 2
  000b0	0f 85 ea 01 00
	00		 jne	 $LN9@GetDestPar
; File C:\Program Files\Microsoft Visual Studio\2022\Professional\VC\Tools\MSVC\14.44.35207\include\xmemory

; 136  :         return ::operator new(_Bytes);

  000b6	6a 18		 push	 24			; 00000018H
; File C:\Program Files\Microsoft Visual Studio\2022\Professional\VC\Tools\MSVC\14.44.35207\include\xtree

; 450  :     _Tree_val() noexcept : _Myhead(), _Mysize(0) {}

  000b8	c7 45 d8 00 00
	00 00		 mov	 DWORD PTR _mapItem$[ebp], 0
  000bf	c7 45 dc 00 00
	00 00		 mov	 DWORD PTR _mapItem$[ebp+4], 0
; File C:\Program Files\Microsoft Visual Studio\2022\Professional\VC\Tools\MSVC\14.44.35207\include\xmemory

; 136  :         return ::operator new(_Bytes);

  000c6	e8 00 00 00 00	 call	 ??2@YAPAXI@Z		; operator new
  000cb	83 c4 04	 add	 esp, 4
; File C:\Program Files\Microsoft Visual Studio\2022\Professional\VC\Tools\MSVC\14.44.35207\include\xtree

; 346  :         _Construct_in_place(_Pnode->_Left, _Pnode);

  000ce	89 00		 mov	 DWORD PTR [eax], eax

; 347  :         _Construct_in_place(_Pnode->_Parent, _Pnode);

  000d0	89 40 04	 mov	 DWORD PTR [eax+4], eax

; 348  :         _Construct_in_place(_Pnode->_Right, _Pnode);

  000d3	89 40 08	 mov	 DWORD PTR [eax+8], eax

; 349  :         _Pnode->_Color = _Black;

  000d6	66 c7 40 0c 01
	01		 mov	 WORD PTR [eax+12], 257	; 00000101H

; 1957 :         _Scary->_Myhead = _Node::_Buyheadnode(_Getal());

  000dc	89 45 d8	 mov	 DWORD PTR _mapItem$[ebp], eax
; File C:\IAGOS\server\v18\Source\Source\_Common\Item.h

; 111  : 	int		GetUltimatePiercingSize()	{	return m_piercing.GetUltimatePiercingSize();		}

  000df	83 c3 3c	 add	 ebx, 60			; 0000003cH
; File C:\IAGOS\server\v18\Source\Source\_Common\UltimateWeapon.cpp

; 863  : 	map<DWORD, int> mapItem;		

  000e2	c7 45 fc 01 00
	00 00		 mov	 DWORD PTR __$EHRec$[ebp+8], 1
; File C:\IAGOS\server\v18\Source\Source\_Common\Item.h

; 111  : 	int		GetUltimatePiercingSize()	{	return m_piercing.GetUltimatePiercingSize();		}

  000e9	8b cb		 mov	 ecx, ebx
; File C:\IAGOS\server\v18\Source\Source\_Common\UltimateWeapon.cpp

; 865  : 	for( int i=0; i<pItemElem->GetUltimatePiercingSize(); i++ )

  000eb	33 f6		 xor	 esi, esi
; File C:\IAGOS\server\v18\Source\Source\_Common\Item.h

; 111  : 	int		GetUltimatePiercingSize()	{	return m_piercing.GetUltimatePiercingSize();		}

  000ed	e8 00 00 00 00	 call	 ?GetUltimatePiercingSize@CPiercing@@QAEHXZ ; CPiercing::GetUltimatePiercingSize
; File C:\IAGOS\server\v18\Source\Source\_Common\UltimateWeapon.cpp

; 865  : 	for( int i=0; i<pItemElem->GetUltimatePiercingSize(); i++ )

  000f2	85 c0		 test	 eax, eax
  000f4	7e 74		 jle	 SHORT $LN395@GetDestPar
$LL4@GetDestPar:
; File C:\IAGOS\server\v18\Source\Source\_Common\Item.h

; 113  : 	DWORD	GetUltimatePiercingItem( int nth )	{	return m_piercing.GetUltimatePiercingItem( nth );	}

  000f6	56		 push	 esi
  000f7	8b cb		 mov	 ecx, ebx
  000f9	e8 00 00 00 00	 call	 ?GetUltimatePiercingItem@CPiercing@@QAEKH@Z ; CPiercing::GetUltimatePiercingItem
; File C:\IAGOS\server\v18\Source\Source\_Common\UltimateWeapon.cpp

; 867  : 		if( pItemElem->GetUltimatePiercingItem( i ) == 0 )

  000fe	85 c0		 test	 eax, eax
  00100	74 68		 je	 SHORT $LN395@GetDestPar
; File C:\IAGOS\server\v18\Source\Source\_Common\Item.h

; 113  : 	DWORD	GetUltimatePiercingItem( int nth )	{	return m_piercing.GetUltimatePiercingItem( nth );	}

  00102	56		 push	 esi
  00103	8b cb		 mov	 ecx, ebx
  00105	e8 00 00 00 00	 call	 ?GetUltimatePiercingItem@CPiercing@@QAEKH@Z ; CPiercing::GetUltimatePiercingItem
  0010a	89 45 0c	 mov	 DWORD PTR $T13[ebp], eax
; File C:\Program Files\Microsoft Visual Studio\2022\Professional\VC\Tools\MSVC\14.44.35207\include\xtree

; 1384 :         const _Tree_find_result<_Nodeptr> _Loc = _Find_lower_bound(_Keyval);

  0010d	8d 4d d8	 lea	 ecx, DWORD PTR _mapItem$[ebp]
  00110	8d 45 0c	 lea	 eax, DWORD PTR $T13[ebp]
  00113	50		 push	 eax
  00114	8d 45 bc	 lea	 eax, DWORD PTR __Loc$5[ebp]
  00117	50		 push	 eax
  00118	e8 00 00 00 00	 call	 ??$_Find_lower_bound@K@?$_Tree@V?$_Tmap_traits@KHU?$less@K@std@@V?$allocator@U?$pair@$$CBKH@std@@@2@$0A@@std@@@std@@IBE?AU?$_Tree_find_result@PAU?$_Tree_node@U?$pair@$$CBKH@std@@PAX@std@@@1@ABK@Z ; std::_Tree<std::_Tmap_traits<unsigned long,int,std::less<unsigned long>,std::allocator<std::pair<unsigned long const ,int> >,0> >::_Find_lower_bound<unsigned long>

; 1624 :         return !_Bound->_Isnil && !_DEBUG_LT_PRED(_Getcomp(), _Keyval, _Traits::_Kfn(_Bound->_Myval));

  0011d	8b 4d c4	 mov	 ecx, DWORD PTR __Loc$5[ebp+8]
  00120	8b 45 d8	 mov	 eax, DWORD PTR _mapItem$[ebp]
  00123	80 79 0d 00	 cmp	 BYTE PTR [ecx+13], 0
  00127	75 08		 jne	 SHORT $LN293@GetDestPar
; File C:\Program Files\Microsoft Visual Studio\2022\Professional\VC\Tools\MSVC\14.44.35207\include\type_traits

; 2380 :         return _Left < _Right;

  00129	8b 55 0c	 mov	 edx, DWORD PTR $T13[ebp]
  0012c	3b 51 10	 cmp	 edx, DWORD PTR [ecx+16]
; File C:\Program Files\Microsoft Visual Studio\2022\Professional\VC\Tools\MSVC\14.44.35207\include\xtree

; 1624 :         return !_Bound->_Isnil && !_DEBUG_LT_PRED(_Getcomp(), _Keyval, _Traits::_Kfn(_Bound->_Myval));

  0012f	73 02		 jae	 SHORT $LN292@GetDestPar
$LN293@GetDestPar:

; 1389 :         return _Get_scary()->_Myhead;

  00131	8b c8		 mov	 ecx, eax
$LN292@GetDestPar:

; 37   :     _Tree_unchecked_const_iterator(_Nodeptr _Pnode, const _Mytree* _Plist) noexcept : _Ptr(_Pnode) {

  00133	3b c8		 cmp	 ecx, eax
; File C:\IAGOS\server\v18\Source\Source\_Common\UltimateWeapon.cpp

; 871  : 		if( it==mapItem.end() )

  00135	75 24		 jne	 SHORT $LN11@GetDestPar
; File C:\IAGOS\server\v18\Source\Source\_Common\Item.h

; 113  : 	DWORD	GetUltimatePiercingItem( int nth )	{	return m_piercing.GetUltimatePiercingItem( nth );	}

  00137	56		 push	 esi
  00138	8b cb		 mov	 ecx, ebx
  0013a	e8 00 00 00 00	 call	 ?GetUltimatePiercingItem@CPiercing@@QAEKH@Z ; CPiercing::GetUltimatePiercingItem
; File C:\Program Files\Microsoft Visual Studio\2022\Professional\VC\Tools\MSVC\14.44.35207\include\utility

; 274  :         : first(_STD forward<_Other1>(_Val1)), second(_STD forward<_Other2>(_Val2)) {

  0013f	89 45 e0	 mov	 DWORD PTR $T9[ebp], eax
; File C:\IAGOS\server\v18\Source\Source\_Common\UltimateWeapon.cpp

; 872  : 			mapItem.insert( map<DWORD, int>::value_type( pItemElem->GetUltimatePiercingItem( i ), 1 ) );

  00142	8d 4d d8	 lea	 ecx, DWORD PTR _mapItem$[ebp]
  00145	8d 45 e0	 lea	 eax, DWORD PTR $T9[ebp]
; File C:\Program Files\Microsoft Visual Studio\2022\Professional\VC\Tools\MSVC\14.44.35207\include\utility

; 274  :         : first(_STD forward<_Other1>(_Val1)), second(_STD forward<_Other2>(_Val2)) {

  00148	c7 45 e4 01 00
	00 00		 mov	 DWORD PTR $T9[ebp+4], 1
; File C:\IAGOS\server\v18\Source\Source\_Common\UltimateWeapon.cpp

; 872  : 			mapItem.insert( map<DWORD, int>::value_type( pItemElem->GetUltimatePiercingItem( i ), 1 ) );

  0014f	50		 push	 eax
  00150	8d 45 c8	 lea	 eax, DWORD PTR $T6[ebp]
  00153	50		 push	 eax
  00154	e8 00 00 00 00	 call	 ??$insert@$0A@$0A@@?$_Tree@V?$_Tmap_traits@KHU?$less@K@std@@V?$allocator@U?$pair@$$CBKH@std@@@2@$0A@@std@@@std@@QAE?AU?$pair@V?$_Tree_iterator@V?$_Tree_val@U?$_Tree_simple_types@U?$pair@$$CBKH@std@@@std@@@std@@@std@@_N@1@$$QAU?$pair@$$CBKH@1@@Z ; std::_Tree<std::_Tmap_traits<unsigned long,int,std::less<unsigned long>,std::allocator<std::pair<unsigned long const ,int> >,0> >::insert<0,0>
  00159	eb 03		 jmp	 SHORT $LN2@GetDestPar
$LN11@GetDestPar:

; 873  : #else // __EXT_PIERCING
; 874  : 	for( int i=0; i<pItemElem->GetPiercingSize(); i++ )
; 875  : 	{
; 876  : 		if( pItemElem->GetPiercingItem( i ) == 0 )
; 877  : 			break;
; 878  : 		
; 879  : 		map<DWORD, int>::iterator it=mapItem.find( pItemElem->GetPiercingItem( i ) );
; 880  : 		if( it==mapItem.end() )
; 881  : 			mapItem.insert( map<DWORD, int>::value_type( pItemElem->GetPiercingItem( i ), 1 ) );
; 882  : #endif // __EXT_PIERCING
; 883  : 		else
; 884  : 			it->second++;

  0015b	ff 41 14	 inc	 DWORD PTR [ecx+20]
$LN2@GetDestPar:
; File C:\IAGOS\server\v18\Source\Source\_Common\Item.h

; 111  : 	int		GetUltimatePiercingSize()	{	return m_piercing.GetUltimatePiercingSize();		}

  0015e	8b cb		 mov	 ecx, ebx
; File C:\IAGOS\server\v18\Source\Source\_Common\UltimateWeapon.cpp

; 865  : 	for( int i=0; i<pItemElem->GetUltimatePiercingSize(); i++ )

  00160	46		 inc	 esi
; File C:\IAGOS\server\v18\Source\Source\_Common\Item.h

; 111  : 	int		GetUltimatePiercingSize()	{	return m_piercing.GetUltimatePiercingSize();		}

  00161	e8 00 00 00 00	 call	 ?GetUltimatePiercingSize@CPiercing@@QAEHXZ ; CPiercing::GetUltimatePiercingSize
; File C:\IAGOS\server\v18\Source\Source\_Common\UltimateWeapon.cpp

; 865  : 	for( int i=0; i<pItemElem->GetUltimatePiercingSize(); i++ )

  00166	3b f0		 cmp	 esi, eax
  00168	7c 8c		 jl	 SHORT $LL4@GetDestPar
$LN395@GetDestPar:
; File C:\Program Files\Microsoft Visual Studio\2022\Professional\VC\Tools\MSVC\14.44.35207\include\xtree

; 37   :     _Tree_unchecked_const_iterator(_Nodeptr _Pnode, const _Mytree* _Plist) noexcept : _Ptr(_Pnode) {

  0016a	8b 45 d8	 mov	 eax, DWORD PTR _mapItem$[ebp]
  0016d	8b 30		 mov	 esi, DWORD PTR [eax]
  0016f	89 75 f0	 mov	 DWORD PTR _it$12[ebp], esi

; 237  :         return !(*this == _Right);

  00172	3b f0		 cmp	 esi, eax
; File C:\IAGOS\server\v18\Source\Source\_Common\UltimateWeapon.cpp

; 887  : 	for( map<DWORD, int>::iterator it=mapItem.begin(); it!=mapItem.end(); it++ )

  00174	0f 84 1e 01 00
	00		 je	 $LN400@GetDestPar
  0017a	66 0f 1f 44 00
	00		 npad	 6
$LL7@GetDestPar:

; 888  : 	{
; 889  : 		ItemProp* pItemProp	= prj.GetItemProp( it->first );

  00180	8b 4e 10	 mov	 ecx, DWORD PTR [esi+16]
; File C:\IAGOS\server\v18\Source\Source\_Common\Project.h

; 1389 : 	VERIFY_RANGE_ASSERT( nIndex, 0, m_aPropItem.GetSize(), "GetItemProp range_error", NULL );

  00183	a1 40 02 00 00	 mov	 eax, DWORD PTR ?prj@@3VCProject@@A+576
  00188	85 c9		 test	 ecx, ecx
  0018a	78 10		 js	 SHORT $LN56@GetDestPar
  0018c	3b c8		 cmp	 ecx, eax
  0018e	7d 0c		 jge	 SHORT $LN56@GetDestPar
; File C:\IAGOS\server\v18\Source\Source\_Common\data.h

; 270  : 	if( dwIndex >= (DWORD)m_nMaxIndex )

  00190	73 20		 jae	 SHORT $LN413@GetDestPar

; 271  : 		return NULL;
; 272  : 	return (T*) m_apOffset[ dwIndex ];

  00192	a1 30 02 00 00	 mov	 eax, DWORD PTR ?prj@@3VCProject@@A+560
  00197	8b 1c 88	 mov	 ebx, DWORD PTR [eax+ecx*4]
; File C:\IAGOS\server\v18\Source\Source\_Common\Project.h

; 1390 : 	return m_aPropItem.GetAt( nIndex ); 

  0019a	eb 18		 jmp	 SHORT $LN51@GetDestPar
$LN56@GetDestPar:

; 579  : 	LPCTSTR szErr = Error( _T( "%s min:%d, max:%d, index:%d" ), szMsg, nMin, nMax, nIndex ); 

  0019c	51		 push	 ecx
  0019d	50		 push	 eax
  0019e	6a 00		 push	 0
  001a0	68 00 00 00 00	 push	 OFFSET ??_C@_0BI@BEIFNGEL@GetItemProp?5range_error@
  001a5	68 00 00 00 00	 push	 OFFSET ??_C@_0BM@HMFGHCP@?$CFs?5min?3?$CFd?0?5max?3?$CFd?0?5index?3?$CFd@
  001aa	e8 00 00 00 00	 call	 ?Error@@YAPBDPBDZZ	; Error
  001af	83 c4 14	 add	 esp, 20			; 00000014H
$LN413@GetDestPar:
; File C:\IAGOS\server\v18\Source\Source\_Common\UltimateWeapon.cpp

; 890  : 		int nResultDst = GetDST( it->first, it->second, pItemProp->dwReferStat2 );

  001b2	33 db		 xor	 ebx, ebx
$LN51@GetDestPar:
  001b4	ff b3 d4 01 00
	00		 push	 DWORD PTR [ebx+468]
  001ba	8b 4d e8	 mov	 ecx, DWORD PTR _this$1$[ebp]
  001bd	ff 76 14	 push	 DWORD PTR [esi+20]
  001c0	ff 76 10	 push	 DWORD PTR [esi+16]
  001c3	e8 00 00 00 00	 call	 ?GetDST@CUltimateWeapon@@QAEHKHH@Z ; CUltimateWeapon::GetDST

; 892  : 		map<int, int>::iterator iter=mapDst.find( pItemProp->dwReferStat2 );

  001c8	8b 9b d4 01 00
	00		 mov	 ebx, DWORD PTR [ebx+468]
; File C:\Program Files\Microsoft Visual Studio\2022\Professional\VC\Tools\MSVC\14.44.35207\include\xtree

; 1384 :         const _Tree_find_result<_Nodeptr> _Loc = _Find_lower_bound(_Keyval);

  001ce	8b cf		 mov	 ecx, edi
; File C:\IAGOS\server\v18\Source\Source\_Common\UltimateWeapon.cpp

; 890  : 		int nResultDst = GetDST( it->first, it->second, pItemProp->dwReferStat2 );

  001d0	89 45 0c	 mov	 DWORD PTR $T14[ebp], eax
; File C:\Program Files\Microsoft Visual Studio\2022\Professional\VC\Tools\MSVC\14.44.35207\include\xtree

; 1384 :         const _Tree_find_result<_Nodeptr> _Loc = _Find_lower_bound(_Keyval);

  001d3	8d 45 e4	 lea	 eax, DWORD PTR $T10[ebp]
  001d6	50		 push	 eax
  001d7	8d 45 b0	 lea	 eax, DWORD PTR __Loc$3[ebp]
; File C:\IAGOS\server\v18\Source\Source\_Common\UltimateWeapon.cpp

; 892  : 		map<int, int>::iterator iter=mapDst.find( pItemProp->dwReferStat2 );

  001da	89 5d e4	 mov	 DWORD PTR $T10[ebp], ebx
; File C:\Program Files\Microsoft Visual Studio\2022\Professional\VC\Tools\MSVC\14.44.35207\include\xtree

; 1384 :         const _Tree_find_result<_Nodeptr> _Loc = _Find_lower_bound(_Keyval);

  001dd	50		 push	 eax
  001de	e8 00 00 00 00	 call	 ??$_Find_lower_bound@H@?$_Tree@V?$_Tmap_traits@HHU?$less@H@std@@V?$allocator@U?$pair@$$CBHH@std@@@2@$0A@@std@@@std@@IBE?AU?$_Tree_find_result@PAU?$_Tree_node@U?$pair@$$CBHH@std@@PAX@std@@@1@ABH@Z ; std::_Tree<std::_Tmap_traits<int,int,std::less<int>,std::allocator<std::pair<int const ,int> >,0> >::_Find_lower_bound<int>

; 1624 :         return !_Bound->_Isnil && !_DEBUG_LT_PRED(_Getcomp(), _Keyval, _Traits::_Kfn(_Bound->_Myval));

  001e3	8b 4d b8	 mov	 ecx, DWORD PTR __Loc$3[ebp+8]
  001e6	80 79 0d 00	 cmp	 BYTE PTR [ecx+13], 0
  001ea	75 16		 jne	 SHORT $LN84@GetDestPar
; File C:\Program Files\Microsoft Visual Studio\2022\Professional\VC\Tools\MSVC\14.44.35207\include\type_traits

; 2380 :         return _Left < _Right;

  001ec	3b 59 10	 cmp	 ebx, DWORD PTR [ecx+16]
; File C:\Program Files\Microsoft Visual Studio\2022\Professional\VC\Tools\MSVC\14.44.35207\include\xtree

; 1624 :         return !_Bound->_Isnil && !_DEBUG_LT_PRED(_Getcomp(), _Keyval, _Traits::_Kfn(_Bound->_Myval));

  001ef	7c 11		 jl	 SHORT $LN84@GetDestPar

; 37   :     _Tree_unchecked_const_iterator(_Nodeptr _Pnode, const _Mytree* _Plist) noexcept : _Ptr(_Pnode) {

  001f1	8b 37		 mov	 esi, DWORD PTR [edi]
  001f3	3b ce		 cmp	 ecx, esi
; File C:\IAGOS\server\v18\Source\Source\_Common\UltimateWeapon.cpp

; 893  : 		if( iter==mapDst.end() )

  001f5	74 0d		 je	 SHORT $LN408@GetDestPar

; 894  : 			mapDst.insert( map<int, int>::value_type( pItemProp->dwReferStat2, nResultDst ) );
; 895  : 		else
; 896  : 			iter->second += nResultDst;

  001f7	8b 55 0c	 mov	 edx, DWORD PTR $T14[ebp]
  001fa	01 51 14	 add	 DWORD PTR [ecx+20], edx
  001fd	e9 82 00 00 00	 jmp	 $LN5@GetDestPar
$LN84@GetDestPar:
; File C:\Program Files\Microsoft Visual Studio\2022\Professional\VC\Tools\MSVC\14.44.35207\include\xtree

; 1389 :         return _Get_scary()->_Myhead;

  00202	8b 37		 mov	 esi, DWORD PTR [edi]
$LN408@GetDestPar:
; File C:\Program Files\Microsoft Visual Studio\2022\Professional\VC\Tools\MSVC\14.44.35207\include\utility

; 274  :         : first(_STD forward<_Other1>(_Val1)), second(_STD forward<_Other2>(_Val2)) {

  00204	8b 45 0c	 mov	 eax, DWORD PTR $T14[ebp]
; File C:\Program Files\Microsoft Visual Studio\2022\Professional\VC\Tools\MSVC\14.44.35207\include\xtree

; 1017 :             _Loc                = _Find_lower_bound(_Keyval);

  00207	8b cf		 mov	 ecx, edi
; File C:\Program Files\Microsoft Visual Studio\2022\Professional\VC\Tools\MSVC\14.44.35207\include\utility

; 274  :         : first(_STD forward<_Other1>(_Val1)), second(_STD forward<_Other2>(_Val2)) {

  00209	89 45 d4	 mov	 DWORD PTR $T8[ebp+4], eax
; File C:\Program Files\Microsoft Visual Studio\2022\Professional\VC\Tools\MSVC\14.44.35207\include\xtree

; 1017 :             _Loc                = _Find_lower_bound(_Keyval);

  0020c	8d 45 d0	 lea	 eax, DWORD PTR $T8[ebp]
  0020f	50		 push	 eax
  00210	8d 45 a4	 lea	 eax, DWORD PTR $T2[ebp]
; File C:\Program Files\Microsoft Visual Studio\2022\Professional\VC\Tools\MSVC\14.44.35207\include\utility

; 274  :         : first(_STD forward<_Other1>(_Val1)), second(_STD forward<_Other2>(_Val2)) {

  00213	89 5d d0	 mov	 DWORD PTR $T8[ebp], ebx
; File C:\Program Files\Microsoft Visual Studio\2022\Professional\VC\Tools\MSVC\14.44.35207\include\xtree

; 1017 :             _Loc                = _Find_lower_bound(_Keyval);

  00216	50		 push	 eax
  00217	e8 00 00 00 00	 call	 ??$_Find_lower_bound@H@?$_Tree@V?$_Tmap_traits@HHU?$less@H@std@@V?$allocator@U?$pair@$$CBHH@std@@@2@$0A@@std@@@std@@IBE?AU?$_Tree_find_result@PAU?$_Tree_node@U?$pair@$$CBHH@std@@PAX@std@@@1@ABH@Z ; std::_Tree<std::_Tmap_traits<int,int,std::less<int>,std::allocator<std::pair<int const ,int> >,0> >::_Find_lower_bound<int>
  0021c	f3 0f 7e 00	 movq	 xmm0, QWORD PTR [eax]
  00220	8b 40 08	 mov	 eax, DWORD PTR [eax+8]
  00223	66 0f d6 45 bc	 movq	 QWORD PTR __Loc$4[ebp], xmm0

; 1624 :         return !_Bound->_Isnil && !_DEBUG_LT_PRED(_Getcomp(), _Keyval, _Traits::_Kfn(_Bound->_Myval));

  00228	80 78 0d 00	 cmp	 BYTE PTR [eax+13], 0
  0022c	75 05		 jne	 SHORT $LN133@GetDestPar
; File C:\Program Files\Microsoft Visual Studio\2022\Professional\VC\Tools\MSVC\14.44.35207\include\type_traits

; 2380 :         return _Left < _Right;

  0022e	3b 58 10	 cmp	 ebx, DWORD PTR [eax+16]
; File C:\Program Files\Microsoft Visual Studio\2022\Professional\VC\Tools\MSVC\14.44.35207\include\xtree

; 1624 :         return !_Bound->_Isnil && !_DEBUG_LT_PRED(_Getcomp(), _Keyval, _Traits::_Kfn(_Bound->_Myval));

  00231	7d 51		 jge	 SHORT $LN5@GetDestPar
$LN133@GetDestPar:

; 1648 :         if (max_size() == _Get_scary()->_Mysize) {

  00233	81 7f 04 aa aa
	aa 0a		 cmp	 DWORD PTR [edi+4], 178956970 ; 0aaaaaaaH
  0023a	74 7a		 je	 SHORT $LN396@GetDestPar
; File C:\Program Files\Microsoft Visual Studio\2022\Professional\VC\Tools\MSVC\14.44.35207\include\xmemory

; 1160 :     _CONSTEXPR20 explicit _Alloc_construct_ptr(_Alloc& _Al_) : _Al(_Al_), _Ptr(nullptr) {}

  0023c	89 7d c8	 mov	 DWORD PTR $T7[ebp], edi

; 136  :         return ::operator new(_Bytes);

  0023f	6a 18		 push	 24			; 00000018H
; File C:\Program Files\Microsoft Visual Studio\2022\Professional\VC\Tools\MSVC\14.44.35207\include\xtree

; 808  :     explicit _Tree_temp_node_alloc(_Alnode& _Al_) : _Alloc_construct_ptr<_Alnode>(_Al_) {

  00241	c6 45 fc 02	 mov	 BYTE PTR __$EHRec$[ebp+8], 2
; File C:\Program Files\Microsoft Visual Studio\2022\Professional\VC\Tools\MSVC\14.44.35207\include\xmemory

; 1167 :         _Ptr = nullptr; // if allocate throws, prevents double-free

  00245	c7 45 cc 00 00
	00 00		 mov	 DWORD PTR $T7[ebp+4], 0

; 136  :         return ::operator new(_Bytes);

  0024c	e8 00 00 00 00	 call	 ??2@YAPAXI@Z		; operator new
; File C:\Program Files\Microsoft Visual Studio\2022\Professional\VC\Tools\MSVC\14.44.35207\include\xtree

; 830  :         _Alnode_traits::construct(this->_Al, _STD addressof(this->_Ptr->_Myval), _STD forward<_Valtys>(_Vals)...);

  00251	8b 55 0c	 mov	 edx, DWORD PTR $T14[ebp]
; File C:\Program Files\Microsoft Visual Studio\2022\Professional\VC\Tools\MSVC\14.44.35207\include\xmemory

; 136  :         return ::operator new(_Bytes);

  00254	83 c4 04	 add	 esp, 4
; File C:\Program Files\Microsoft Visual Studio\2022\Professional\VC\Tools\MSVC\14.44.35207\include\xtree

; 1042 :         return {_Scary->_Insert_node(_Loc._Location, _Inserted), true};

  00257	8b cf		 mov	 ecx, edi

; 810  :     }

  00259	c6 45 fc 01	 mov	 BYTE PTR __$EHRec$[ebp+8], 1
; File C:\Program Files\Microsoft Visual Studio\2022\Professional\VC\Tools\MSVC\14.44.35207\include\utility

; 774  :     _Val         = static_cast<_Other&&>(_New_val);

  0025d	c7 45 cc 00 00
	00 00		 mov	 DWORD PTR $T7[ebp+4], 0
; File C:\Program Files\Microsoft Visual Studio\2022\Professional\VC\Tools\MSVC\14.44.35207\include\xtree

; 830  :         _Alnode_traits::construct(this->_Al, _STD addressof(this->_Ptr->_Myval), _STD forward<_Valtys>(_Vals)...);

  00264	89 58 10	 mov	 DWORD PTR [eax+16], ebx

; 1042 :         return {_Scary->_Insert_node(_Loc._Location, _Inserted), true};

  00267	50		 push	 eax
  00268	ff 75 c0	 push	 DWORD PTR __Loc$4[ebp+4]

; 830  :         _Alnode_traits::construct(this->_Al, _STD addressof(this->_Ptr->_Myval), _STD forward<_Valtys>(_Vals)...);

  0026b	89 50 14	 mov	 DWORD PTR [eax+20], edx

; 1042 :         return {_Scary->_Insert_node(_Loc._Location, _Inserted), true};

  0026e	ff 75 bc	 push	 DWORD PTR __Loc$4[ebp]

; 831  :         _Construct_in_place(this->_Ptr->_Left, _Myhead);

  00271	89 30		 mov	 DWORD PTR [eax], esi

; 832  :         _Construct_in_place(this->_Ptr->_Parent, _Myhead);

  00273	89 70 04	 mov	 DWORD PTR [eax+4], esi

; 833  :         _Construct_in_place(this->_Ptr->_Right, _Myhead);

  00276	89 70 08	 mov	 DWORD PTR [eax+8], esi

; 834  :         this->_Ptr->_Color = _Red;

  00279	66 c7 40 0c 00
	00		 mov	 WORD PTR [eax+12], 0

; 1042 :         return {_Scary->_Insert_node(_Loc._Location, _Inserted), true};

  0027f	e8 00 00 00 00	 call	 ?_Insert_node@?$_Tree_val@U?$_Tree_simple_types@U?$pair@$$CBHH@std@@@std@@@std@@QAEPAU?$_Tree_node@U?$pair@$$CBHH@std@@PAX@2@U?$_Tree_id@PAU?$_Tree_node@U?$pair@$$CBHH@std@@PAX@std@@@2@QAU32@@Z ; std::_Tree_val<std::_Tree_simple_types<std::pair<int const ,int> > >::_Insert_node
$LN5@GetDestPar:

; 288  :         _Mybase::operator++();

  00284	8d 4d f0	 lea	 ecx, DWORD PTR _it$12[ebp]
  00287	e8 00 00 00 00	 call	 ??E?$_Tree_const_iterator@V?$_Tree_val@U?$_Tree_simple_types@U?$pair@$$CBKH@std@@@std@@@std@@@std@@QAEAAV01@XZ ; std::_Tree_const_iterator<std::_Tree_val<std::_Tree_simple_types<std::pair<unsigned long const ,int> > > >::operator++

; 237  :         return !(*this == _Right);

  0028c	8b 75 f0	 mov	 esi, DWORD PTR _it$12[ebp]
  0028f	3b 75 d8	 cmp	 esi, DWORD PTR _mapItem$[ebp]
; File C:\IAGOS\server\v18\Source\Source\_Common\UltimateWeapon.cpp

; 887  : 	for( map<DWORD, int>::iterator it=mapItem.begin(); it!=mapItem.end(); it++ )

  00292	0f 85 e8 fe ff
	ff		 jne	 $LL7@GetDestPar
$LN400@GetDestPar:
  00298	8d 4d d8	 lea	 ecx, DWORD PTR _mapItem$[ebp]
  0029b	e8 00 00 00 00	 call	 ??1?$_Tree@V?$_Tmap_traits@KHU?$less@K@std@@V?$allocator@U?$pair@$$CBKH@std@@@2@$0A@@std@@@std@@QAE@XZ ; std::_Tree<std::_Tmap_traits<unsigned long,int,std::less<unsigned long>,std::allocator<std::pair<unsigned long const ,int> >,0> >::~_Tree<std::_Tmap_traits<unsigned long,int,std::less<unsigned long>,std::allocator<std::pair<unsigned long const ,int> >,0> >
$LN9@GetDestPar:

; 899  : }

  002a0	8b c7		 mov	 eax, edi
  002a2	8b 4d f4	 mov	 ecx, DWORD PTR __$EHRec$[ebp]
  002a5	64 89 0d 00 00
	00 00		 mov	 DWORD PTR fs:0, ecx
  002ac	59		 pop	 ecx
  002ad	5f		 pop	 edi
  002ae	5e		 pop	 esi
  002af	5b		 pop	 ebx
  002b0	8b e5		 mov	 esp, ebp
  002b2	5d		 pop	 ebp
  002b3	c2 08 00	 ret	 8
$LN396@GetDestPar:
; File C:\Program Files\Microsoft Visual Studio\2022\Professional\VC\Tools\MSVC\14.44.35207\include\xtree

; 1649 :             _Throw_tree_length_error();

  002b6	e8 00 00 00 00	 call	 ?_Throw_tree_length_error@std@@YAXXZ ; std::_Throw_tree_length_error
$LN411@GetDestPar:
  002bb	cc		 int	 3
_TEXT	ENDS
;	COMDAT text$x
text$x	SEGMENT
__unwindfunclet$?GetDestParamUltimate@CUltimateWeapon@@QAE?AV?$map@HHU?$less@H@std@@V?$allocator@U?$pair@$$CBHH@std@@@2@@std@@PAVCItemElem@@@Z$0:
  00000	8b 45 ec	 mov	 eax, DWORD PTR $T11[ebp]
  00003	83 e0 01	 and	 eax, 1
  00006	0f 84 0c 00 00
	00		 je	 $LN17@GetDestPar
  0000c	83 65 ec fe	 and	 DWORD PTR $T11[ebp], -2	; fffffffeH
  00010	8b 4d 08	 mov	 ecx, DWORD PTR ___$ReturnUdt$[ebp]
  00013	e9 00 00 00 00	 jmp	 ??1?$map@HHU?$less@H@std@@V?$allocator@U?$pair@$$CBHH@std@@@2@@std@@QAE@XZ
$LN17@GetDestPar:
  00018	c3		 ret	 0
__unwindfunclet$?GetDestParamUltimate@CUltimateWeapon@@QAE?AV?$map@HHU?$less@H@std@@V?$allocator@U?$pair@$$CBHH@std@@@2@@std@@PAVCItemElem@@@Z$1:
  00019	8d 4d d8	 lea	 ecx, DWORD PTR _mapItem$[ebp]
  0001c	e9 00 00 00 00	 jmp	 ??1?$map@KHU?$less@K@std@@V?$allocator@U?$pair@$$CBKH@std@@@2@@std@@QAE@XZ
__unwindfunclet$?GetDestParamUltimate@CUltimateWeapon@@QAE?AV?$map@HHU?$less@H@std@@V?$allocator@U?$pair@$$CBHH@std@@@2@@std@@PAVCItemElem@@@Z$5:
  00021	8d 4d c8	 lea	 ecx, DWORD PTR $T7[ebp]
  00024	e9 00 00 00 00	 jmp	 ??1?$_Alloc_construct_ptr@V?$allocator@U?$_Tree_node@U?$pair@$$CBHH@std@@PAX@std@@@std@@@std@@QAE@XZ ; std::_Alloc_construct_ptr<std::allocator<std::_Tree_node<std::pair<int const ,int>,void *> > >::~_Alloc_construct_ptr<std::allocator<std::_Tree_node<std::pair<int const ,int>,void *> > >
  00029	cc		 int	 3
  0002a	cc		 int	 3
  0002b	cc		 int	 3
  0002c	cc		 int	 3
  0002d	cc		 int	 3
__ehhandler$?GetDestParamUltimate@CUltimateWeapon@@QAE?AV?$map@HHU?$less@H@std@@V?$allocator@U?$pair@$$CBHH@std@@@2@@std@@PAVCItemElem@@@Z:
  0002e	90		 npad	 1
  0002f	90		 npad	 1
  00030	8b 54 24 08	 mov	 edx, DWORD PTR [esp+8]
  00034	8d 42 0c	 lea	 eax, DWORD PTR [edx+12]
  00037	8b 4a a0	 mov	 ecx, DWORD PTR [edx-96]
  0003a	33 c8		 xor	 ecx, eax
  0003c	e8 00 00 00 00	 call	 @__security_check_cookie@4
  00041	b8 00 00 00 00	 mov	 eax, OFFSET __ehfuncinfo$?GetDestParamUltimate@CUltimateWeapon@@QAE?AV?$map@HHU?$less@H@std@@V?$allocator@U?$pair@$$CBHH@std@@@2@@std@@PAVCItemElem@@@Z
  00046	e9 00 00 00 00	 jmp	 ___CxxFrameHandler3
text$x	ENDS
?GetDestParamUltimate@CUltimateWeapon@@QAE?AV?$map@HHU?$less@H@std@@V?$allocator@U?$pair@$$CBHH@std@@@2@@std@@PAVCItemElem@@@Z ENDP ; CUltimateWeapon::GetDestParamUltimate
; Function compile flags: /Ogtp
; File C:\IAGOS\server\v18\Source\Source\_Common\UltimateWeapon.cpp
; File C:\Program Files\Microsoft Visual Studio\2022\Professional\VC\Tools\MSVC\14.44.35207\include\xtree
; File C:\IAGOS\server\v18\Source\Source\_Common\UltimateWeapon.cpp
; File C:\Program Files\Microsoft Visual Studio\2022\Professional\VC\Tools\MSVC\14.44.35207\include\xtree
; File C:\IAGOS\server\v18\Source\Source\_Common\UltimateWeapon.cpp
; File C:\Program Files\Microsoft Visual Studio\2022\Professional\VC\Tools\MSVC\14.44.35207\include\xtree
; File C:\IAGOS\server\v18\Source\Source\_Common\UltimateWeapon.cpp
;	COMDAT ?SetDestParamUltimate@CUltimateWeapon@@QAEXPAVCMover@@PAVCItemElem@@HK@Z
_TEXT	SEGMENT
_mapDst$ = -20						; size = 8
__$EHRec$ = -12						; size = 12
_pMover$ = 8						; size = 4
_pItemElem$ = 12					; size = 4
_bEquip$ = 16						; size = 4
_dwParts$ = 20						; size = 4
?SetDestParamUltimate@CUltimateWeapon@@QAEXPAVCMover@@PAVCItemElem@@HK@Z PROC ; CUltimateWeapon::SetDestParamUltimate, COMDAT
; _this$ = ecx

; 841  : {

  00000	55		 push	 ebp
  00001	8b ec		 mov	 ebp, esp
  00003	6a ff		 push	 -1
  00005	68 00 00 00 00	 push	 __ehhandler$?SetDestParamUltimate@CUltimateWeapon@@QAEXPAVCMover@@PAVCItemElem@@HK@Z
  0000a	64 a1 00 00 00
	00		 mov	 eax, DWORD PTR fs:0
  00010	50		 push	 eax
  00011	83 ec 08	 sub	 esp, 8
  00014	53		 push	 ebx
  00015	56		 push	 esi
  00016	57		 push	 edi
  00017	a1 00 00 00 00	 mov	 eax, DWORD PTR ___security_cookie
  0001c	33 c5		 xor	 eax, ebp
  0001e	50		 push	 eax
  0001f	8d 45 f4	 lea	 eax, DWORD PTR __$EHRec$[ebp]
  00022	64 a3 00 00 00
	00		 mov	 DWORD PTR fs:0, eax

; 842  : 	
; 843  : 	if( dwParts != PARTS_RWEAPON )

  00028	83 7d 14 0a	 cmp	 DWORD PTR _dwParts$[ebp], 10 ; 0000000aH
  0002c	0f 85 97 00 00
	00		 jne	 $LN95@SetDestPar

; 846  : 	map<int, int> mapDst = GetDestParamUltimate( pItemElem );

  00032	ff 75 0c	 push	 DWORD PTR _pItemElem$[ebp]
  00035	8d 45 ec	 lea	 eax, DWORD PTR _mapDst$[ebp]
  00038	50		 push	 eax
  00039	e8 00 00 00 00	 call	 ?GetDestParamUltimate@CUltimateWeapon@@QAE?AV?$map@HHU?$less@H@std@@V?$allocator@U?$pair@$$CBHH@std@@@2@@std@@PAVCItemElem@@@Z ; CUltimateWeapon::GetDestParamUltimate
; File C:\Program Files\Microsoft Visual Studio\2022\Professional\VC\Tools\MSVC\14.44.35207\include\xtree

; 37   :     _Tree_unchecked_const_iterator(_Nodeptr _Pnode, const _Mytree* _Plist) noexcept : _Ptr(_Pnode) {

  0003e	8b 45 ec	 mov	 eax, DWORD PTR _mapDst$[ebp]
; File C:\IAGOS\server\v18\Source\Source\_Common\UltimateWeapon.cpp

; 846  : 	map<int, int> mapDst = GetDestParamUltimate( pItemElem );

  00041	c7 45 fc 00 00
	00 00		 mov	 DWORD PTR __$EHRec$[ebp+8], 0
; File C:\Program Files\Microsoft Visual Studio\2022\Professional\VC\Tools\MSVC\14.44.35207\include\xtree

; 37   :     _Tree_unchecked_const_iterator(_Nodeptr _Pnode, const _Mytree* _Plist) noexcept : _Ptr(_Pnode) {

  00048	8b 30		 mov	 esi, DWORD PTR [eax]

; 237  :         return !(*this == _Right);

  0004a	3b f0		 cmp	 esi, eax
; File C:\IAGOS\server\v18\Source\Source\_Common\UltimateWeapon.cpp

; 847  : 	for(map<int, int>::iterator it = mapDst.begin(); it != mapDst.end(); it++ )

  0004c	74 73		 je	 SHORT $LN3@SetDestPar
  0004e	8b 5d 10	 mov	 ebx, DWORD PTR _bEquip$[ebp]
  00051	8b 7d 08	 mov	 edi, DWORD PTR _pMover$[ebp]
$LL4@SetDestPar:

; 848  : 	{
; 849  : 		if( bEquip )

  00054	8b 46 14	 mov	 eax, DWORD PTR [esi+20]
  00057	8b 4e 10	 mov	 ecx, DWORD PTR [esi+16]
  0005a	6a 01		 push	 1
  0005c	85 db		 test	 ebx, ebx
  0005e	74 10		 je	 SHORT $LN6@SetDestPar

; 850  : 			pMover->SetDestParam( it->first, it->second, NULL_CHGPARAM );

  00060	68 ff ff ff 7f	 push	 2147483647		; 7fffffffH
  00065	50		 push	 eax
  00066	51		 push	 ecx
  00067	8b cf		 mov	 ecx, edi
  00069	e8 00 00 00 00	 call	 ?SetDestParam@CMover@@QAEXHHHH@Z ; CMover::SetDestParam
  0006e	eb 09		 jmp	 SHORT $LN2@SetDestPar
$LN6@SetDestPar:

; 851  : 		else 
; 852  : 			pMover->ResetDestParam( it->first, it->second, TRUE );

  00070	50		 push	 eax
  00071	51		 push	 ecx
  00072	8b cf		 mov	 ecx, edi
  00074	e8 00 00 00 00	 call	 ?ResetDestParam@CMover@@QAEXHHH@Z ; CMover::ResetDestParam
$LN2@SetDestPar:
; File C:\Program Files\Microsoft Visual Studio\2022\Professional\VC\Tools\MSVC\14.44.35207\include\xtree

; 50   :         if (_Ptr->_Right->_Isnil) { // climb looking for right subtree

  00079	8b 46 08	 mov	 eax, DWORD PTR [esi+8]
  0007c	80 78 0d 00	 cmp	 BYTE PTR [eax+13], 0
  00080	74 22		 je	 SHORT $LN31@SetDestPar

; 51   :             _Nodeptr _Pnode;
; 52   :             while (!(_Pnode = _Ptr->_Parent)->_Isnil && _Ptr == _Pnode->_Right) {

  00082	8b 46 04	 mov	 eax, DWORD PTR [esi+4]
  00085	80 78 0d 00	 cmp	 BYTE PTR [eax+13], 0
  00089	75 15		 jne	 SHORT $LN30@SetDestPar
  0008b	0f 1f 44 00 00	 npad	 5
$LL29@SetDestPar:
  00090	3b 70 08	 cmp	 esi, DWORD PTR [eax+8]
  00093	75 0b		 jne	 SHORT $LN30@SetDestPar

; 53   :                 _Ptr = _Pnode; // ==> parent while right subtree

  00095	8b f0		 mov	 esi, eax
  00097	8b 40 04	 mov	 eax, DWORD PTR [eax+4]
  0009a	80 78 0d 00	 cmp	 BYTE PTR [eax+13], 0
  0009e	74 f0		 je	 SHORT $LL29@SetDestPar
$LN30@SetDestPar:

; 54   :             }
; 55   : 
; 56   :             _Ptr = _Pnode; // ==> parent (head if end())

  000a0	8b f0		 mov	 esi, eax

; 57   :         } else {

  000a2	eb 18		 jmp	 SHORT $LN104@SetDestPar
$LN31@SetDestPar:

; 58   :             _Ptr = _Mytree::_Min(_Ptr->_Right); // ==> smallest of right subtree

  000a4	8b f0		 mov	 esi, eax

; 476  :         while (!_Pnode->_Left->_Isnil) {

  000a6	8b 0e		 mov	 ecx, DWORD PTR [esi]
  000a8	80 79 0d 00	 cmp	 BYTE PTR [ecx+13], 0
  000ac	75 0e		 jne	 SHORT $LN104@SetDestPar
  000ae	66 90		 npad	 2
$LL36@SetDestPar:
  000b0	8b 01		 mov	 eax, DWORD PTR [ecx]

; 477  :             _Pnode = _Pnode->_Left;

  000b2	8b f1		 mov	 esi, ecx
  000b4	8b c8		 mov	 ecx, eax
  000b6	80 78 0d 00	 cmp	 BYTE PTR [eax+13], 0
  000ba	74 f4		 je	 SHORT $LL36@SetDestPar
$LN104@SetDestPar:

; 237  :         return !(*this == _Right);

  000bc	3b 75 ec	 cmp	 esi, DWORD PTR _mapDst$[ebp]
; File C:\IAGOS\server\v18\Source\Source\_Common\UltimateWeapon.cpp

; 847  : 	for(map<int, int>::iterator it = mapDst.begin(); it != mapDst.end(); it++ )

  000bf	75 93		 jne	 SHORT $LL4@SetDestPar
$LN3@SetDestPar:
  000c1	8d 4d ec	 lea	 ecx, DWORD PTR _mapDst$[ebp]
  000c4	e8 00 00 00 00	 call	 ??1?$_Tree@V?$_Tmap_traits@HHU?$less@H@std@@V?$allocator@U?$pair@$$CBHH@std@@@2@$0A@@std@@@std@@QAE@XZ ; std::_Tree<std::_Tmap_traits<int,int,std::less<int>,std::allocator<std::pair<int const ,int> >,0> >::~_Tree<std::_Tmap_traits<int,int,std::less<int>,std::allocator<std::pair<int const ,int> >,0> >
$LN95@SetDestPar:

; 853  : 	}
; 854  : }

  000c9	8b 4d f4	 mov	 ecx, DWORD PTR __$EHRec$[ebp]
  000cc	64 89 0d 00 00
	00 00		 mov	 DWORD PTR fs:0, ecx
  000d3	59		 pop	 ecx
  000d4	5f		 pop	 edi
  000d5	5e		 pop	 esi
  000d6	5b		 pop	 ebx
  000d7	8b e5		 mov	 esp, ebp
  000d9	5d		 pop	 ebp
  000da	c2 10 00	 ret	 16			; 00000010H
_TEXT	ENDS
;	COMDAT text$x
text$x	SEGMENT
__unwindfunclet$?SetDestParamUltimate@CUltimateWeapon@@QAEXPAVCMover@@PAVCItemElem@@HK@Z$0:
  00000	8d 4d ec	 lea	 ecx, DWORD PTR _mapDst$[ebp]
  00003	e9 00 00 00 00	 jmp	 ??1?$map@HHU?$less@H@std@@V?$allocator@U?$pair@$$CBHH@std@@@2@@std@@QAE@XZ
  00008	cc		 int	 3
  00009	cc		 int	 3
  0000a	cc		 int	 3
  0000b	cc		 int	 3
  0000c	cc		 int	 3
__ehhandler$?SetDestParamUltimate@CUltimateWeapon@@QAEXPAVCMover@@PAVCItemElem@@HK@Z:
  0000d	90		 npad	 1
  0000e	90		 npad	 1
  0000f	8b 54 24 08	 mov	 edx, DWORD PTR [esp+8]
  00013	8d 42 0c	 lea	 eax, DWORD PTR [edx+12]
  00016	8b 4a e8	 mov	 ecx, DWORD PTR [edx-24]
  00019	33 c8		 xor	 ecx, eax
  0001b	e8 00 00 00 00	 call	 @__security_check_cookie@4
  00020	b8 00 00 00 00	 mov	 eax, OFFSET __ehfuncinfo$?SetDestParamUltimate@CUltimateWeapon@@QAEXPAVCMover@@PAVCItemElem@@HK@Z
  00025	e9 00 00 00 00	 jmp	 ___CxxFrameHandler3
text$x	ENDS
?SetDestParamUltimate@CUltimateWeapon@@QAEXPAVCMover@@PAVCItemElem@@HK@Z ENDP ; CUltimateWeapon::SetDestParamUltimate
; Function compile flags: /Ogtp
; File C:\IAGOS\server\v18\Source\Source\_Common\UltimateWeapon.cpp
; File C:\IAGOS\server\v18\Source\Source\_Common\Item.h
; File C:\IAGOS\server\v18\Source\Source\_Common\Project.h
; File C:\IAGOS\server\v18\Source\Source\_Common\UltimateWeapon.cpp
; File C:\IAGOS\server\v18\Source\Source\_Common\Project.h
; File C:\IAGOS\server\v18\Source\Source\_Common\data.h
; File C:\IAGOS\server\v18\Source\Source\_Common\Project.h
; File C:\IAGOS\server\v18\Source\Source\_Common\UltimateWeapon.cpp
; File C:\IAGOS\server\v18\Source\Source\_Common\Item.h
; File C:\IAGOS\server\v18\Source\Source\_Common\Project.h
; File C:\IAGOS\server\v18\Source\Source\_Common\data.h
; File C:\IAGOS\server\v18\Source\Source\_Common\Project.h
; File C:\IAGOS\server\v18\Source\Source\_Common\UltimateWeapon.cpp
; File C:\Program Files\Microsoft Visual Studio\2022\Professional\VC\Tools\MSVC\14.44.35207\include\xtree
; File C:\IAGOS\server\v18\Source\Source\_Common\UltimateWeapon.cpp
; File C:\Program Files\Microsoft Visual Studio\2022\Professional\VC\Tools\MSVC\14.44.35207\include\xtree
; File C:\IAGOS\server\v18\Source\Source\_Common\UltimateWeapon.cpp
; File C:\Program Files\Microsoft Visual Studio\2022\Professional\VC\Tools\MSVC\14.44.35207\include\xtree
; File C:\Program Files\Microsoft Visual Studio\2022\Professional\VC\Tools\MSVC\14.44.35207\include\type_traits
; File C:\Program Files\Microsoft Visual Studio\2022\Professional\VC\Tools\MSVC\14.44.35207\include\xtree
; File C:\IAGOS\server\v18\Source\Source\_Common\UltimateWeapon.cpp
; File C:\IAGOS\server\v18\Source\Source\_Common\xUtil.h
; File C:\IAGOS\server\v18\Source\Source\_Common\UltimateWeapon.cpp
; File C:\IAGOS\server\v18\Source\Source\_Common\Mover.h
; File C:\IAGOS\server\v18\Source\Source\_Common\UltimateWeapon.cpp
; File C:\IAGOS\server\v18\Source\Source\_Common\Obj.h
; File C:\IAGOS\server\v18\Source\Source\_Common\UltimateWeapon.cpp
; File C:\IAGOS\server\v18\Source\Source\_Common\Obj.h
; File C:\IAGOS\server\v18\Source\Source\_Common\UltimateWeapon.cpp
; File C:\IAGOS\server\v18\Source\Source\_Common\Obj.h
; File C:\IAGOS\server\v18\Source\Source\_Common\UltimateWeapon.cpp
; File C:\IAGOS\server\v18\Source\Source\_Common\Mover.h
; File C:\IAGOS\server\v18\Source\Source\_Common\UltimateWeapon.cpp
; File C:\IAGOS\server\v18\Source\Source\_Common\Obj.h
; File C:\IAGOS\server\v18\Source\Source\_Common\UltimateWeapon.cpp
; File C:\IAGOS\server\v18\Source\Source\_Common\Obj.h
; File C:\IAGOS\server\v18\Source\Source\_Common\UltimateWeapon.cpp
; File C:\IAGOS\server\v18\Source\Source\_Common\Obj.h
; File C:\IAGOS\server\v18\Source\Source\_Common\UltimateWeapon.cpp
;	COMDAT ?SmeltSafetyUltimate@CUltimateWeapon@@QAEEPAVCUser@@PAVCItemElem@@11@Z
_TEXT	SEGMENT
$T1 = -252						; size = 12
$T2 = -252						; size = 12
$T3 = -240						; size = 12
$T4 = -240						; size = 12
$T5 = -228						; size = 12
$T6 = -228						; size = 12
__Loc$7 = -228						; size = 12
_this$1$ = -216						; size = 4
_pItemProp$1$ = -212					; size = 4
_pItemMaterial$GSCopy$1$ = -212				; size = 4
$T8 = -208						; size = 4
_pItemProtScr$GSCopy$1$ = -208				; size = 4
_aLogItem$ = -204					; size = 200
__$ArrayPad$ = -4					; size = 4
_pUser$ = 8						; size = 4
_pItemMain$ = 12					; size = 4
_pItemMaterial$ = 16					; size = 4
_pItemProtScr$ = 20					; size = 4
?SmeltSafetyUltimate@CUltimateWeapon@@QAEEPAVCUser@@PAVCItemElem@@11@Z PROC ; CUltimateWeapon::SmeltSafetyUltimate, COMDAT
; _this$ = ecx

; 758  : {

  00000	55		 push	 ebp
  00001	8b ec		 mov	 ebp, esp
  00003	81 ec fc 00 00
	00		 sub	 esp, 252		; 000000fcH
  00009	a1 00 00 00 00	 mov	 eax, DWORD PTR ___security_cookie
  0000e	33 c5		 xor	 eax, ebp
  00010	89 45 fc	 mov	 DWORD PTR __$ArrayPad$[ebp], eax
  00013	8b 45 10	 mov	 eax, DWORD PTR _pItemMaterial$[ebp]
  00016	53		 push	 ebx
  00017	56		 push	 esi
  00018	8b 75 08	 mov	 esi, DWORD PTR _pUser$[ebp]
  0001b	57		 push	 edi
  0001c	8b 7d 0c	 mov	 edi, DWORD PTR _pItemMain$[ebp]
  0001f	89 85 2c ff ff
	ff		 mov	 DWORD PTR _pItemMaterial$GSCopy$1$[ebp], eax
  00025	8b 45 14	 mov	 eax, DWORD PTR _pItemProtScr$[ebp]
  00028	89 85 30 ff ff
	ff		 mov	 DWORD PTR _pItemProtScr$GSCopy$1$[ebp], eax
; File C:\IAGOS\server\v18\Source\Source\_Common\Item.h

; 230  : 	ItemProp*	GetProp()	{	return prj.GetItemProp( m_dwItemId );	}

  0002e	8b 57 0c	 mov	 edx, DWORD PTR [edi+12]
; File C:\IAGOS\server\v18\Source\Source\_Common\Project.h

; 1389 : 	VERIFY_RANGE_ASSERT( nIndex, 0, m_aPropItem.GetSize(), "GetItemProp range_error", NULL );

  00031	a1 40 02 00 00	 mov	 eax, DWORD PTR ?prj@@3VCProject@@A+576
; File C:\IAGOS\server\v18\Source\Source\_Common\UltimateWeapon.cpp

; 758  : {

  00036	89 8d 28 ff ff
	ff		 mov	 DWORD PTR _this$1$[ebp], ecx
; File C:\IAGOS\server\v18\Source\Source\_Common\Project.h

; 1389 : 	VERIFY_RANGE_ASSERT( nIndex, 0, m_aPropItem.GetSize(), "GetItemProp range_error", NULL );

  0003c	85 d2		 test	 edx, edx
  0003e	78 11		 js	 SHORT $LN20@SmeltSafet
  00040	3b d0		 cmp	 edx, eax
  00042	7d 0d		 jge	 SHORT $LN20@SmeltSafet
; File C:\IAGOS\server\v18\Source\Source\_Common\data.h

; 270  : 	if( dwIndex >= (DWORD)m_nMaxIndex )

  00044	8b 1d 30 02 00
	00		 mov	 ebx, DWORD PTR ?prj@@3VCProject@@A+560
  0004a	73 26		 jae	 SHORT $LN145@SmeltSafet

; 271  : 		return NULL;
; 272  : 	return (T*) m_apOffset[ dwIndex ];

  0004c	8b 0c 93	 mov	 ecx, DWORD PTR [ebx+edx*4]
; File C:\IAGOS\server\v18\Source\Source\_Common\Project.h

; 1390 : 	return m_aPropItem.GetAt( nIndex ); 

  0004f	eb 23		 jmp	 SHORT $LN15@SmeltSafet
$LN20@SmeltSafet:

; 579  : 	LPCTSTR szErr = Error( _T( "%s min:%d, max:%d, index:%d" ), szMsg, nMin, nMax, nIndex ); 

  00051	52		 push	 edx
  00052	50		 push	 eax
  00053	6a 00		 push	 0
  00055	68 00 00 00 00	 push	 OFFSET ??_C@_0BI@BEIFNGEL@GetItemProp?5range_error@
  0005a	68 00 00 00 00	 push	 OFFSET ??_C@_0BM@HMFGHCP@?$CFs?5min?3?$CFd?0?5max?3?$CFd?0?5index?3?$CFd@
  0005f	e8 00 00 00 00	 call	 ?Error@@YAPBDPBDZZ	; Error

; 1389 : 	VERIFY_RANGE_ASSERT( nIndex, 0, m_aPropItem.GetSize(), "GetItemProp range_error", NULL );

  00064	a1 40 02 00 00	 mov	 eax, DWORD PTR ?prj@@3VCProject@@A+576

; 579  : 	LPCTSTR szErr = Error( _T( "%s min:%d, max:%d, index:%d" ), szMsg, nMin, nMax, nIndex ); 

  00069	83 c4 14	 add	 esp, 20			; 00000014H

; 1389 : 	VERIFY_RANGE_ASSERT( nIndex, 0, m_aPropItem.GetSize(), "GetItemProp range_error", NULL );

  0006c	8b 1d 30 02 00
	00		 mov	 ebx, DWORD PTR ?prj@@3VCProject@@A+560
$LN145@SmeltSafet:
; File C:\IAGOS\server\v18\Source\Source\_Common\UltimateWeapon.cpp

; 760  : 	if( pItemMain->GetProp()->dwReferStat1 != WEAPON_ULTIMATE )

  00072	33 c9		 xor	 ecx, ecx
$LN15@SmeltSafet:
  00074	83 b9 d0 01 00
	00 02		 cmp	 DWORD PTR [ecx+464], 2
  0007b	0f 85 7b 03 00
	00		 jne	 $LN123@SmeltSafet
; File C:\IAGOS\server\v18\Source\Source\_Common\Item.h

; 230  : 	ItemProp*	GetProp()	{	return prj.GetItemProp( m_dwItemId );	}

  00081	8b 8d 30 ff ff
	ff		 mov	 ecx, DWORD PTR _pItemProtScr$GSCopy$1$[ebp]
  00087	8b 49 0c	 mov	 ecx, DWORD PTR [ecx+12]
; File C:\IAGOS\server\v18\Source\Source\_Common\Project.h

; 1389 : 	VERIFY_RANGE_ASSERT( nIndex, 0, m_aPropItem.GetSize(), "GetItemProp range_error", NULL );

  0008a	85 c9		 test	 ecx, ecx
  0008c	78 0b		 js	 SHORT $LN34@SmeltSafet
  0008e	3b c8		 cmp	 ecx, eax
  00090	7d 07		 jge	 SHORT $LN34@SmeltSafet
; File C:\IAGOS\server\v18\Source\Source\_Common\data.h

; 270  : 	if( dwIndex >= (DWORD)m_nMaxIndex )

  00092	73 1b		 jae	 SHORT $LN146@SmeltSafet

; 271  : 		return NULL;
; 272  : 	return (T*) m_apOffset[ dwIndex ];

  00094	8b 04 8b	 mov	 eax, DWORD PTR [ebx+ecx*4]
; File C:\IAGOS\server\v18\Source\Source\_Common\Project.h

; 1390 : 	return m_aPropItem.GetAt( nIndex ); 

  00097	eb 18		 jmp	 SHORT $LN29@SmeltSafet
$LN34@SmeltSafet:

; 579  : 	LPCTSTR szErr = Error( _T( "%s min:%d, max:%d, index:%d" ), szMsg, nMin, nMax, nIndex ); 

  00099	51		 push	 ecx
  0009a	50		 push	 eax
  0009b	6a 00		 push	 0
  0009d	68 00 00 00 00	 push	 OFFSET ??_C@_0BI@BEIFNGEL@GetItemProp?5range_error@
  000a2	68 00 00 00 00	 push	 OFFSET ??_C@_0BM@HMFGHCP@?$CFs?5min?3?$CFd?0?5max?3?$CFd?0?5index?3?$CFd@
  000a7	e8 00 00 00 00	 call	 ?Error@@YAPBDPBDZZ	; Error
  000ac	83 c4 14	 add	 esp, 20			; 00000014H
$LN146@SmeltSafet:
; File C:\IAGOS\server\v18\Source\Source\_Common\UltimateWeapon.cpp

; 767  : 	if( pItemProtScr->GetProp()->dwID != II_SYS_SYS_SCR_SMELPROT3)

  000af	33 c0		 xor	 eax, eax
$LN29@SmeltSafet:
  000b1	81 38 f8 28 00
	00		 cmp	 DWORD PTR [eax], 10488	; 000028f8H
  000b7	0f 85 3f 03 00
	00		 jne	 $LN123@SmeltSafet

; 768  : 	{
; 769  : 		//pUser->AddDefinedText( TID_GAME_NOTEQUALITEM );
; 770  : 		return 0;
; 771  : 	}
; 772  : 
; 773  : 	//	Á¦·ĂĽöÄˇ°ˇ maxÄˇ¸¦ łŃľúŔ»¶§ ¸®ĹĎ
; 774  : 	if( pItemMain->GetAbilityOption() >= 10 )

  000bd	83 7f 64 0a	 cmp	 DWORD PTR [edi+100], 10	; 0000000aH
  000c1	7c 15		 jl	 SHORT $LN4@SmeltSafet

; 831  : 
; 832  : 		return 1;
; 833  : 	}
; 834  : 	return 0;
; 835  : }

  000c3	5f		 pop	 edi
  000c4	5e		 pop	 esi
  000c5	b0 03		 mov	 al, 3
  000c7	5b		 pop	 ebx
  000c8	8b 4d fc	 mov	 ecx, DWORD PTR __$ArrayPad$[ebp]
  000cb	33 cd		 xor	 ecx, ebp
  000cd	e8 00 00 00 00	 call	 @__security_check_cookie@4
  000d2	8b e5		 mov	 esp, ebp
  000d4	5d		 pop	 ebp
  000d5	c2 10 00	 ret	 16			; 00000010H
$LN4@SmeltSafet:

; 775  : 	{
; 776  : 		//pUser->AddDefinedText( TID_UPGRADE_MAXOVER );
; 777  : 		return 3;
; 778  : 	}
; 779  : 
; 780  : 
; 781  : 	LogItemInfo aLogItem;

  000d8	8d 8d 34 ff ff
	ff		 lea	 ecx, DWORD PTR _aLogItem$[ebp]
  000de	e8 00 00 00 00	 call	 ??0_LogItemInfo@@QAE@XZ	; _LogItemInfo::_LogItemInfo

; 782  : 	aLogItem.Action = "-";
; 783  : 	aLogItem.SendName = pUser->GetName();

  000e3	6a 00		 push	 0
  000e5	8b ce		 mov	 ecx, esi
  000e7	c7 85 34 ff ff
	ff 00 00 00 00	 mov	 DWORD PTR _aLogItem$[ebp], OFFSET ??_C@_01JOAMLHOP@?9@
  000f1	e8 00 00 00 00	 call	 ?GetName@CMover@@QAEPBDH@Z ; CMover::GetName

; 784  : 	aLogItem.RecvName = "ULTIMATE_ENC_SMELTSAFETY";
; 785  : 	aLogItem.WorldId = pUser->GetWorld()->GetID();
; 786  : 	aLogItem.Gold = pUser->GetGold();
; 787  : 	aLogItem.Gold2 = pUser->GetGold();
; 788  : 	
; 789  : 	// Á¦·ĂľĆĹŰ »čÁ¦ - Ľş°řŔĚ´ř, ˝ÇĆĐ´ř...
; 790  : 	g_DPSrvr.OnLogItem( aLogItem, pItemMaterial, pItemMaterial->m_nItemNum );

  000f6	8b 9d 2c ff ff
	ff		 mov	 ebx, DWORD PTR _pItemMaterial$GSCopy$1$[ebp]
  000fc	b9 00 00 00 00	 mov	 ecx, OFFSET ?g_DPSrvr@@3VCDPSrvr@@A ; g_DPSrvr
  00101	89 85 38 ff ff
	ff		 mov	 DWORD PTR _aLogItem$[ebp+4], eax
  00107	8b 86 6c 01 00
	00		 mov	 eax, DWORD PTR [esi+364]
  0010d	c7 85 3c ff ff
	ff 00 00 00 00	 mov	 DWORD PTR _aLogItem$[ebp+8], OFFSET ??_C@_0BJ@DFCEOGGG@ULTIMATE_ENC_SMELTSAFETY@
  00117	8b 00		 mov	 eax, DWORD PTR [eax]
  00119	89 85 40 ff ff
	ff		 mov	 DWORD PTR _aLogItem$[ebp+12], eax
  0011f	8b 86 e0 14 00
	00		 mov	 eax, DWORD PTR [esi+5344]
  00125	89 85 44 ff ff
	ff		 mov	 DWORD PTR _aLogItem$[ebp+16], eax
  0012b	89 85 48 ff ff
	ff		 mov	 DWORD PTR _aLogItem$[ebp+20], eax
  00131	0f bf 43 74	 movsx	 eax, WORD PTR [ebx+116]
  00135	50		 push	 eax
  00136	53		 push	 ebx
  00137	8d 85 34 ff ff
	ff		 lea	 eax, DWORD PTR _aLogItem$[ebp]
  0013d	50		 push	 eax
  0013e	e8 00 00 00 00	 call	 ?OnLogItem@CDPSrvr@@QAEXAAU_LogItemInfo@@PAVCItemElem@@H@Z ; CDPSrvr::OnLogItem

; 791  : 	pUser->RemoveItem( (BYTE)( pItemMaterial->m_dwObjId ), 1 );

  00143	0f b6 43 04	 movzx	 eax, BYTE PTR [ebx+4]
  00147	8b ce		 mov	 ecx, esi
  00149	6a 01		 push	 1
  0014b	50		 push	 eax
  0014c	e8 00 00 00 00	 call	 ?RemoveItem@CMover@@QAEXEF@Z ; CMover::RemoveItem

; 792  : 	//	µÎ·ç¸¶¸® ·Î±×ł˛±ć°Í
; 793  : 	ItemProp* pItemProp = pItemProtScr->GetProp();

  00151	8b 9d 30 ff ff
	ff		 mov	 ebx, DWORD PTR _pItemProtScr$GSCopy$1$[ebp]
  00157	8b cb		 mov	 ecx, ebx
  00159	e8 00 00 00 00	 call	 ?GetPropA@CItemElem@@QAEPAUItemProp@@XZ ; CItemElem::GetPropA
  0015e	89 85 2c ff ff
	ff		 mov	 DWORD PTR _pItemProp$1$[ebp], eax

; 794  : 	if( pItemProp )

  00164	85 c0		 test	 eax, eax
  00166	74 34		 je	 SHORT $LN5@SmeltSafet

; 795  : 	{
; 796  : 		g_dpDBClient.SendLogSMItemUse( "1", pUser, pItemProtScr, pItemProp );

  00168	68 00 00 00 00	 push	 OFFSET ??_C@_00CNPNBAHC@@
  0016d	50		 push	 eax
  0016e	53		 push	 ebx
  0016f	56		 push	 esi
  00170	68 00 00 00 00	 push	 OFFSET ??_C@_01HIHLOKLC@1@
  00175	b9 00 00 00 00	 mov	 ecx, OFFSET ?g_dpDBClient@@3VCDPDatabaseClient@@A ; g_dpDBClient
  0017a	e8 00 00 00 00	 call	 ?SendLogSMItemUse@CDPDatabaseClient@@QAEXPBDPAVCUser@@PAVCItemElem@@PAUItemProp@@0@Z ; CDPDatabaseClient::SendLogSMItemUse

; 797  : 		g_dpDBClient.SendLogSMItemUse( "2", pUser, NULL, pItemProp );

  0017f	68 00 00 00 00	 push	 OFFSET ??_C@_00CNPNBAHC@@
  00184	ff b5 2c ff ff
	ff		 push	 DWORD PTR _pItemProp$1$[ebp]
  0018a	b9 00 00 00 00	 mov	 ecx, OFFSET ?g_dpDBClient@@3VCDPDatabaseClient@@A ; g_dpDBClient
  0018f	6a 00		 push	 0
  00191	56		 push	 esi
  00192	68 00 00 00 00	 push	 OFFSET ??_C@_01FDFGLJHB@2@
  00197	e8 00 00 00 00	 call	 ?SendLogSMItemUse@CDPDatabaseClient@@QAEXPBDPAVCUser@@PAVCItemElem@@PAUItemProp@@0@Z ; CDPDatabaseClient::SendLogSMItemUse
$LN5@SmeltSafet:

; 798  : 	}
; 799  : 	pUser->RemoveItem( (BYTE)( pItemProtScr->m_dwObjId ), 1 );

  0019c	0f b6 43 04	 movzx	 eax, BYTE PTR [ebx+4]
  001a0	8b ce		 mov	 ecx, esi
  001a2	6a 01		 push	 1
  001a4	50		 push	 eax
  001a5	e8 00 00 00 00	 call	 ?RemoveItem@CMover@@QAEXEF@Z ; CMover::RemoveItem

; 802  : 	map<int, int>::iterator it = m_mapUltimateProb.find( pItemMain->GetAbilityOption() + 1 );

  001aa	8b 47 64	 mov	 eax, DWORD PTR [edi+100]
; File C:\Program Files\Microsoft Visual Studio\2022\Professional\VC\Tools\MSVC\14.44.35207\include\xtree

; 1384 :         const _Tree_find_result<_Nodeptr> _Loc = _Find_lower_bound(_Keyval);

  001ad	8d 8d 30 ff ff
	ff		 lea	 ecx, DWORD PTR $T8[ebp]
; File C:\IAGOS\server\v18\Source\Source\_Common\UltimateWeapon.cpp

; 802  : 	map<int, int>::iterator it = m_mapUltimateProb.find( pItemMain->GetAbilityOption() + 1 );

  001b3	40		 inc	 eax
  001b4	89 85 30 ff ff
	ff		 mov	 DWORD PTR $T8[ebp], eax
  001ba	8b 85 28 ff ff
	ff		 mov	 eax, DWORD PTR _this$1$[ebp]
; File C:\Program Files\Microsoft Visual Studio\2022\Professional\VC\Tools\MSVC\14.44.35207\include\xtree

; 1384 :         const _Tree_find_result<_Nodeptr> _Loc = _Find_lower_bound(_Keyval);

  001c0	51		 push	 ecx
  001c1	8d 8d 1c ff ff
	ff		 lea	 ecx, DWORD PTR __Loc$7[ebp]
; File C:\IAGOS\server\v18\Source\Source\_Common\UltimateWeapon.cpp

; 802  : 	map<int, int>::iterator it = m_mapUltimateProb.find( pItemMain->GetAbilityOption() + 1 );

  001c7	83 c0 24	 add	 eax, 36			; 00000024H
; File C:\Program Files\Microsoft Visual Studio\2022\Professional\VC\Tools\MSVC\14.44.35207\include\xtree

; 1384 :         const _Tree_find_result<_Nodeptr> _Loc = _Find_lower_bound(_Keyval);

  001ca	51		 push	 ecx
  001cb	8b c8		 mov	 ecx, eax
  001cd	e8 00 00 00 00	 call	 ??$_Find_lower_bound@H@?$_Tree@V?$_Tmap_traits@HHU?$less@H@std@@V?$allocator@U?$pair@$$CBHH@std@@@2@$0A@@std@@@std@@IBE?AU?$_Tree_find_result@PAU?$_Tree_node@U?$pair@$$CBHH@std@@PAX@std@@@1@ABH@Z ; std::_Tree<std::_Tmap_traits<int,int,std::less<int>,std::allocator<std::pair<int const ,int> >,0> >::_Find_lower_bound<int>

; 1624 :         return !_Bound->_Isnil && !_DEBUG_LT_PRED(_Getcomp(), _Keyval, _Traits::_Kfn(_Bound->_Myval));

  001d2	8b 9d 24 ff ff
	ff		 mov	 ebx, DWORD PTR __Loc$7[ebp+8]
  001d8	80 7b 0d 00	 cmp	 BYTE PTR [ebx+13], 0
  001dc	0f 85 1a 02 00
	00		 jne	 $LN123@SmeltSafet
; File C:\Program Files\Microsoft Visual Studio\2022\Professional\VC\Tools\MSVC\14.44.35207\include\type_traits

; 2380 :         return _Left < _Right;

  001e2	8b 85 30 ff ff
	ff		 mov	 eax, DWORD PTR $T8[ebp]
  001e8	3b 43 10	 cmp	 eax, DWORD PTR [ebx+16]
; File C:\Program Files\Microsoft Visual Studio\2022\Professional\VC\Tools\MSVC\14.44.35207\include\xtree

; 1624 :         return !_Bound->_Isnil && !_DEBUG_LT_PRED(_Getcomp(), _Keyval, _Traits::_Kfn(_Bound->_Myval));

  001eb	0f 8c 0b 02 00
	00		 jl	 $LN123@SmeltSafet

; 37   :     _Tree_unchecked_const_iterator(_Nodeptr _Pnode, const _Mytree* _Plist) noexcept : _Ptr(_Pnode) {

  001f1	8b 85 28 ff ff
	ff		 mov	 eax, DWORD PTR _this$1$[ebp]
  001f7	3b 58 24	 cmp	 ebx, DWORD PTR [eax+36]
; File C:\IAGOS\server\v18\Source\Source\_Common\UltimateWeapon.cpp

; 803  : 	if( it == m_mapUltimateProb.end() )

  001fa	0f 84 fc 01 00
	00		 je	 $LN123@SmeltSafet
; File C:\IAGOS\server\v18\Source\Source\_Common\xUtil.h

; 16   : 	g_next = g_next * 1103515245 + 12345;// + nRandomSeed[ i++ ];

  00200	69 0d 00 00 00
	00 6d 4e c6 41	 imul	 ecx, DWORD PTR ?g_next@@3KA, 1103515245 ; g_next

; 22   : 	return  xRand() % num;

  0020a	b8 83 de 1b 43	 mov	 eax, 1125899907		; 431bde83H

; 16   : 	g_next = g_next * 1103515245 + 12345;// + nRandomSeed[ i++ ];

  0020f	81 c1 39 30 00
	00		 add	 ecx, 12345		; 00003039H

; 22   : 	return  xRand() % num;

  00215	f7 e1		 mul	 ecx

; 16   : 	g_next = g_next * 1103515245 + 12345;// + nRandomSeed[ i++ ];

  00217	89 0d 00 00 00
	00		 mov	 DWORD PTR ?g_next@@3KA, ecx ; g_next

; 22   : 	return  xRand() % num;

  0021d	c1 ea 12	 shr	 edx, 18			; 00000012H
  00220	69 c2 40 42 0f
	00		 imul	 eax, edx, 1000000
  00226	2b c8		 sub	 ecx, eax
; File C:\IAGOS\server\v18\Source\Source\_Common\UltimateWeapon.cpp

; 806  : 	if( (int)( xRandom( 1000000 ) ) > it->second )

  00228	3b 4b 14	 cmp	 ecx, DWORD PTR [ebx+20]
  0022b	8b ce		 mov	 ecx, esi
  0022d	0f 8e cc 00 00
	00		 jle	 $LN7@SmeltSafet

; 807  : 	{
; 808  : 		// ˝ÇĆĐ
; 809  : 		pUser->AddPlaySound( SND_INF_UPGRADEFAIL );

  00233	6a 0d		 push	 13			; 0000000dH
  00235	e8 00 00 00 00	 call	 ?AddPlaySound@CUser@@QAEXK@Z ; CUser::AddPlaySound
; File C:\IAGOS\server\v18\Source\Source\_Common\Mover.h

; 1740 : 		if( GetAdjParam(DST_CHRSTATE) & CHS_INVISIBILITY )	// ¸¶ąýĹő¸íČ­°ˇ °É·Č´Â°ˇ?

  0023a	6a 40		 push	 64			; 00000040H
  0023c	8b ce		 mov	 ecx, esi
  0023e	e8 00 00 00 00	 call	 ?GetAdjParam@CMover@@QAEHH@Z ; CMover::GetAdjParam
  00243	a9 00 04 00 00	 test	 eax, 1024		; 00000400H
  00248	75 7f		 jne	 SHORT $LN9@SmeltSafet
; File C:\IAGOS\server\v18\Source\Source\_Common\UltimateWeapon.cpp

; 810  : 		if( ( pUser->IsMode( TRANSPARENT_MODE ) ) == 0 )

  0024a	f6 86 40 02 00
	00 02		 test	 BYTE PTR [esi+576], 2
  00251	75 76		 jne	 SHORT $LN9@SmeltSafet
; File C:\IAGOS\server\v18\Source\Source\_Common\Obj.h

; 215  : 	D3DXVECTOR3		GetPos()	{ return m_vPos; }

  00253	f3 0f 7e 86 60
	01 00 00	 movq	 xmm0, QWORD PTR [esi+352]
; File C:\IAGOS\server\v18\Source\Source\_Common\UltimateWeapon.cpp

; 811  : 			g_UserMng.AddCreateSfxObj( ( CMover * )pUser, XI_INT_FAIL, pUser->GetPos().x, pUser->GetPos().y, pUser->GetPos().z );

  0025b	b9 00 00 00 00	 mov	 ecx, OFFSET ?g_UserMng@@3VCUserMng@@A ; g_UserMng
; File C:\IAGOS\server\v18\Source\Source\_Common\Obj.h

; 215  : 	D3DXVECTOR3		GetPos()	{ return m_vPos; }

  00260	8b 86 68 01 00
	00		 mov	 eax, DWORD PTR [esi+360]
  00266	66 0f d6 85 10
	ff ff ff	 movq	 QWORD PTR $T3[ebp], xmm0
  0026e	f3 0f 7e c0	 movq	 xmm0, xmm0
  00272	66 0f d6 85 04
	ff ff ff	 movq	 QWORD PTR $T1[ebp], xmm0
  0027a	f3 0f 7e 86 60
	01 00 00	 movq	 xmm0, QWORD PTR [esi+352]
; File C:\IAGOS\server\v18\Source\Source\_Common\UltimateWeapon.cpp

; 811  : 			g_UserMng.AddCreateSfxObj( ( CMover * )pUser, XI_INT_FAIL, pUser->GetPos().x, pUser->GetPos().y, pUser->GetPos().z );

  00282	6a 00		 push	 0
  00284	83 ec 0c	 sub	 esp, 12			; 0000000cH
; File C:\IAGOS\server\v18\Source\Source\_Common\Obj.h

; 215  : 	D3DXVECTOR3		GetPos()	{ return m_vPos; }

  00287	66 0f d6 85 1c
	ff ff ff	 movq	 QWORD PTR $T5[ebp], xmm0
  0028f	89 85 18 ff ff
	ff		 mov	 DWORD PTR $T3[ebp+8], eax
; File C:\IAGOS\server\v18\Source\Source\_Common\UltimateWeapon.cpp

; 811  : 			g_UserMng.AddCreateSfxObj( ( CMover * )pUser, XI_INT_FAIL, pUser->GetPos().x, pUser->GetPos().y, pUser->GetPos().z );

  00295	f3 0f 10 85 18
	ff ff ff	 movss	 xmm0, DWORD PTR $T3[ebp+8]
  0029d	f3 0f 11 44 24
	08		 movss	 DWORD PTR [esp+8], xmm0
  002a3	f3 0f 10 85 08
	ff ff ff	 movss	 xmm0, DWORD PTR $T1[ebp+4]
  002ab	f3 0f 11 44 24
	04		 movss	 DWORD PTR [esp+4], xmm0
  002b1	f3 0f 10 85 1c
	ff ff ff	 movss	 xmm0, DWORD PTR $T5[ebp]
  002b9	f3 0f 11 04 24	 movss	 DWORD PTR [esp], xmm0
  002be	68 b3 06 00 00	 push	 1715			; 000006b3H
  002c3	56		 push	 esi
  002c4	e8 00 00 00 00	 call	 ?AddCreateSfxObj@CUserMng@@QAEXPAVCCtrl@@KMMMH@Z ; CUserMng::AddCreateSfxObj
$LN9@SmeltSafet:

; 812  : 
; 813  : 		aLogItem.RecvName = "ULTIMATE_ENC_FAIL_SMELTSAFETY";
; 814  : 		g_DPSrvr.OnLogItem( aLogItem, pItemMain, pItemMain->m_nItemNum );

  002c9	0f bf 47 74	 movsx	 eax, WORD PTR [edi+116]
  002cd	b9 00 00 00 00	 mov	 ecx, OFFSET ?g_DPSrvr@@3VCDPSrvr@@A ; g_DPSrvr
  002d2	50		 push	 eax
  002d3	57		 push	 edi
  002d4	8d 85 34 ff ff
	ff		 lea	 eax, DWORD PTR _aLogItem$[ebp]
  002da	c7 85 3c ff ff
	ff 00 00 00 00	 mov	 DWORD PTR _aLogItem$[ebp+8], OFFSET ??_C@_0BO@MILNHMHC@ULTIMATE_ENC_FAIL_SMELTSAFETY@
  002e4	50		 push	 eax
  002e5	e8 00 00 00 00	 call	 ?OnLogItem@CDPSrvr@@QAEXAAU_LogItemInfo@@PAVCItemElem@@H@Z ; CDPSrvr::OnLogItem
  002ea	5f		 pop	 edi

; 831  : 
; 832  : 		return 1;
; 833  : 	}
; 834  : 	return 0;
; 835  : }

  002eb	5e		 pop	 esi
  002ec	b0 02		 mov	 al, 2
  002ee	5b		 pop	 ebx
  002ef	8b 4d fc	 mov	 ecx, DWORD PTR __$ArrayPad$[ebp]
  002f2	33 cd		 xor	 ecx, ebp
  002f4	e8 00 00 00 00	 call	 @__security_check_cookie@4
  002f9	8b e5		 mov	 esp, ebp
  002fb	5d		 pop	 ebp
  002fc	c2 10 00	 ret	 16			; 00000010H
$LN7@SmeltSafet:

; 815  : 
; 816  : 		return 2;
; 817  : 	}
; 818  : 	else
; 819  : 	{
; 820  : 		// Ľş°ř
; 821  : 		pUser->AddPlaySound( SND_INF_UPGRADESUCCESS );		

  002ff	6a 0e		 push	 14			; 0000000eH
  00301	e8 00 00 00 00	 call	 ?AddPlaySound@CUser@@QAEXK@Z ; CUser::AddPlaySound
; File C:\IAGOS\server\v18\Source\Source\_Common\Mover.h

; 1740 : 		if( GetAdjParam(DST_CHRSTATE) & CHS_INVISIBILITY )	// ¸¶ąýĹő¸íČ­°ˇ °É·Č´Â°ˇ?

  00306	6a 40		 push	 64			; 00000040H
  00308	8b ce		 mov	 ecx, esi
  0030a	e8 00 00 00 00	 call	 ?GetAdjParam@CMover@@QAEHH@Z ; CMover::GetAdjParam
  0030f	a9 00 04 00 00	 test	 eax, 1024		; 00000400H
  00314	75 7f		 jne	 SHORT $LN10@SmeltSafet
; File C:\IAGOS\server\v18\Source\Source\_Common\UltimateWeapon.cpp

; 822  : 		if((pUser->IsMode( TRANSPARENT_MODE ) ) == 0 )

  00316	f6 86 40 02 00
	00 02		 test	 BYTE PTR [esi+576], 2
  0031d	75 76		 jne	 SHORT $LN10@SmeltSafet
; File C:\IAGOS\server\v18\Source\Source\_Common\Obj.h

; 215  : 	D3DXVECTOR3		GetPos()	{ return m_vPos; }

  0031f	f3 0f 7e 86 60
	01 00 00	 movq	 xmm0, QWORD PTR [esi+352]
; File C:\IAGOS\server\v18\Source\Source\_Common\UltimateWeapon.cpp

; 823  : 			g_UserMng.AddCreateSfxObj( ( CMover * )pUser, XI_INT_SUCCESS, pUser->GetPos().x, pUser->GetPos().y, pUser->GetPos().z );

  00327	b9 00 00 00 00	 mov	 ecx, OFFSET ?g_UserMng@@3VCUserMng@@A ; g_UserMng
; File C:\IAGOS\server\v18\Source\Source\_Common\Obj.h

; 215  : 	D3DXVECTOR3		GetPos()	{ return m_vPos; }

  0032c	8b 86 68 01 00
	00		 mov	 eax, DWORD PTR [esi+360]
  00332	66 0f d6 85 1c
	ff ff ff	 movq	 QWORD PTR $T6[ebp], xmm0
  0033a	f3 0f 7e c0	 movq	 xmm0, xmm0
  0033e	66 0f d6 85 04
	ff ff ff	 movq	 QWORD PTR $T2[ebp], xmm0
  00346	f3 0f 7e 86 60
	01 00 00	 movq	 xmm0, QWORD PTR [esi+352]
; File C:\IAGOS\server\v18\Source\Source\_Common\UltimateWeapon.cpp

; 823  : 			g_UserMng.AddCreateSfxObj( ( CMover * )pUser, XI_INT_SUCCESS, pUser->GetPos().x, pUser->GetPos().y, pUser->GetPos().z );

  0034e	6a 00		 push	 0
  00350	83 ec 0c	 sub	 esp, 12			; 0000000cH
; File C:\IAGOS\server\v18\Source\Source\_Common\Obj.h

; 215  : 	D3DXVECTOR3		GetPos()	{ return m_vPos; }

  00353	66 0f d6 85 10
	ff ff ff	 movq	 QWORD PTR $T4[ebp], xmm0
  0035b	89 85 24 ff ff
	ff		 mov	 DWORD PTR $T6[ebp+8], eax
; File C:\IAGOS\server\v18\Source\Source\_Common\UltimateWeapon.cpp

; 823  : 			g_UserMng.AddCreateSfxObj( ( CMover * )pUser, XI_INT_SUCCESS, pUser->GetPos().x, pUser->GetPos().y, pUser->GetPos().z );

  00361	f3 0f 10 85 24
	ff ff ff	 movss	 xmm0, DWORD PTR $T6[ebp+8]
  00369	f3 0f 11 44 24
	08		 movss	 DWORD PTR [esp+8], xmm0
  0036f	f3 0f 10 85 08
	ff ff ff	 movss	 xmm0, DWORD PTR $T2[ebp+4]
  00377	f3 0f 11 44 24
	04		 movss	 DWORD PTR [esp+4], xmm0
  0037d	f3 0f 10 85 10
	ff ff ff	 movss	 xmm0, DWORD PTR $T4[ebp]
  00385	f3 0f 11 04 24	 movss	 DWORD PTR [esp], xmm0
  0038a	68 b2 06 00 00	 push	 1714			; 000006b2H
  0038f	56		 push	 esi
  00390	e8 00 00 00 00	 call	 ?AddCreateSfxObj@CUserMng@@QAEXPAVCCtrl@@KMMMH@Z ; CUserMng::AddCreateSfxObj
$LN10@SmeltSafet:

; 824  : 		
; 825  : 		pUser->UpdateItem( (BYTE)pItemMain->m_dwObjId, UI_AO, pItemMain->GetAbilityOption() + 1 );

  00395	8b 47 64	 mov	 eax, DWORD PTR [edi+100]
  00398	8b ce		 mov	 ecx, esi
  0039a	6a 00		 push	 0
  0039c	40		 inc	 eax
  0039d	50		 push	 eax
  0039e	0f b6 47 04	 movzx	 eax, BYTE PTR [edi+4]
  003a2	6a 03		 push	 3
  003a4	50		 push	 eax
  003a5	e8 00 00 00 00	 call	 ?UpdateItem@CMover@@QAEXEDKK@Z ; CMover::UpdateItem

; 826  : 		if( pItemMain->GetAbilityOption() > 5 )

  003aa	8b 47 64	 mov	 eax, DWORD PTR [edi+100]
  003ad	83 f8 05	 cmp	 eax, 5
  003b0	7e 14		 jle	 SHORT $LN11@SmeltSafet

; 827  : 			pUser->UpdateItem( (BYTE)pItemMain->m_dwObjId, UI_ULTIMATE_PIERCING_SIZE, pItemMain->GetAbilityOption() - 5 );

  003b2	6a 00		 push	 0
  003b4	83 c0 fb	 add	 eax, -5			; fffffffbH
  003b7	8b ce		 mov	 ecx, esi
  003b9	50		 push	 eax
  003ba	0f b6 47 04	 movzx	 eax, BYTE PTR [edi+4]
  003be	6a 0d		 push	 13			; 0000000dH
  003c0	50		 push	 eax
  003c1	e8 00 00 00 00	 call	 ?UpdateItem@CMover@@QAEXEDKK@Z ; CMover::UpdateItem
$LN11@SmeltSafet:

; 828  : 		
; 829  : 		aLogItem.RecvName = "ULTIMATE_ENC_SUC_SMELTSAFETY";
; 830  : 		g_DPSrvr.OnLogItem( aLogItem, pItemMain, pItemMain->m_nItemNum );

  003c6	0f bf 47 74	 movsx	 eax, WORD PTR [edi+116]
  003ca	b9 00 00 00 00	 mov	 ecx, OFFSET ?g_DPSrvr@@3VCDPSrvr@@A ; g_DPSrvr
  003cf	50		 push	 eax
  003d0	57		 push	 edi
  003d1	8d 85 34 ff ff
	ff		 lea	 eax, DWORD PTR _aLogItem$[ebp]
  003d7	c7 85 3c ff ff
	ff 00 00 00 00	 mov	 DWORD PTR _aLogItem$[ebp+8], OFFSET ??_C@_0BN@JLMGDFNO@ULTIMATE_ENC_SUC_SMELTSAFETY@
  003e1	50		 push	 eax
  003e2	e8 00 00 00 00	 call	 ?OnLogItem@CDPSrvr@@QAEXAAU_LogItemInfo@@PAVCItemElem@@H@Z ; CDPSrvr::OnLogItem
  003e7	5f		 pop	 edi

; 831  : 
; 832  : 		return 1;
; 833  : 	}
; 834  : 	return 0;
; 835  : }

  003e8	5e		 pop	 esi
  003e9	b0 01		 mov	 al, 1
  003eb	5b		 pop	 ebx
  003ec	8b 4d fc	 mov	 ecx, DWORD PTR __$ArrayPad$[ebp]
  003ef	33 cd		 xor	 ecx, ebp
  003f1	e8 00 00 00 00	 call	 @__security_check_cookie@4
  003f6	8b e5		 mov	 esp, ebp
  003f8	5d		 pop	 ebp
  003f9	c2 10 00	 ret	 16			; 00000010H
$LN123@SmeltSafet:
  003fc	8b 4d fc	 mov	 ecx, DWORD PTR __$ArrayPad$[ebp]
  003ff	32 c0		 xor	 al, al
  00401	5f		 pop	 edi
  00402	5e		 pop	 esi
  00403	33 cd		 xor	 ecx, ebp
  00405	5b		 pop	 ebx
  00406	e8 00 00 00 00	 call	 @__security_check_cookie@4
  0040b	8b e5		 mov	 esp, ebp
  0040d	5d		 pop	 ebp
  0040e	c2 10 00	 ret	 16			; 00000010H
?SmeltSafetyUltimate@CUltimateWeapon@@QAEEPAVCUser@@PAVCItemElem@@11@Z ENDP ; CUltimateWeapon::SmeltSafetyUltimate
_TEXT	ENDS
; Function compile flags: /Ogtp
; File C:\IAGOS\server\v18\Source\Source\_Common\UltimateWeapon.cpp
; File C:\IAGOS\server\v18\Source\Source\_Common\Item.h
; File C:\IAGOS\server\v18\Source\Source\_Common\Project.h
; File C:\IAGOS\server\v18\Source\Source\_Common\data.h
; File C:\IAGOS\server\v18\Source\Source\_Common\Project.h
; File C:\IAGOS\server\v18\Source\Source\_Common\UltimateWeapon.cpp
; File C:\IAGOS\server\v18\Source\Source\_Common\Project.h
; File C:\IAGOS\server\v18\Source\Source\_Common\data.h
; File C:\IAGOS\server\v18\Source\Source\_Common\UltimateWeapon.cpp
; File C:\IAGOS\server\v18\Source\Source\_Common\xUtil.h
; File C:\IAGOS\server\v18\Source\Source\_Common\UltimateWeapon.cpp
; File C:\IAGOS\server\v18\Source\Source\_Common\xUtil.h
; File C:\IAGOS\server\v18\Source\Source\_Common\UltimateWeapon.cpp
; File C:\IAGOS\server\v18\Source\Source\_Common\xUtil.h
; File C:\IAGOS\server\v18\Source\Source\_Common\UltimateWeapon.cpp
; File C:\Program Files\Microsoft Visual Studio\2022\Professional\VC\Tools\MSVC\14.44.35207\include\xtree
; File C:\IAGOS\server\v18\Source\Source\_Common\UltimateWeapon.cpp
; File C:\IAGOS\server\v18\Source\Source\_Common\xUtil.h
; File C:\IAGOS\server\v18\Source\Source\_Common\UltimateWeapon.cpp
;	COMDAT ?EnchantWeapon@CUltimateWeapon@@QAEHPAVCUser@@KK@Z
_TEXT	SEGMENT
_pAbilityOpt$1$ = -228					; size = 4
_objItem$GSCopy$1$ = -224				; size = 4
_bSmelprot3$1$ = -220					; size = 4
_it$ = -216						; size = 4
_this$1$ = -216						; size = 4
$T1 = -212						; size = 4
_objItemGem$GSCopy$1$ = -212				; size = 4
_pItemElemGem$1$ = -208					; size = 4
tv542 = -208						; size = 4
_aLogItem$ = -204					; size = 200
__$ArrayPad$ = -4					; size = 4
_pUser$ = 8						; size = 4
_objItem$ = 12						; size = 4
_objItemGem$ = 16					; size = 4
?EnchantWeapon@CUltimateWeapon@@QAEHPAVCUser@@KK@Z PROC	; CUltimateWeapon::EnchantWeapon, COMDAT
; _this$ = ecx

; 674  : {

  00000	55		 push	 ebp
  00001	8b ec		 mov	 ebp, esp
  00003	81 ec e4 00 00
	00		 sub	 esp, 228		; 000000e4H
  00009	a1 00 00 00 00	 mov	 eax, DWORD PTR ___security_cookie
  0000e	33 c5		 xor	 eax, ebp
  00010	89 45 fc	 mov	 DWORD PTR __$ArrayPad$[ebp], eax
  00013	8b 45 0c	 mov	 eax, DWORD PTR _objItem$[ebp]
  00016	53		 push	 ebx
  00017	56		 push	 esi
  00018	57		 push	 edi
  00019	8b 7d 08	 mov	 edi, DWORD PTR _pUser$[ebp]
  0001c	89 8d 28 ff ff
	ff		 mov	 DWORD PTR _this$1$[ebp], ecx
  00022	8b 4d 10	 mov	 ecx, DWORD PTR _objItemGem$[ebp]
  00025	89 8d 2c ff ff
	ff		 mov	 DWORD PTR _objItemGem$GSCopy$1$[ebp], ecx

; 675  : 	CItemElem* pItemElemWeapon	= pUser->m_Inventory.GetAtId( objItem );

  0002b	50		 push	 eax
  0002c	8d 8f fc 0a 00
	00		 lea	 ecx, DWORD PTR [edi+2812]
  00032	89 85 20 ff ff
	ff		 mov	 DWORD PTR _objItem$GSCopy$1$[ebp], eax
  00038	e8 00 00 00 00	 call	 ?GetAtId@?$CItemContainer@VCItemElem@@@@QAEPAVCItemElem@@K@Z ; CItemContainer<CItemElem>::GetAtId

; 676  : 	CItemElem* pItemElemGem	= pUser->m_Inventory.GetAtId( objItemGem );

  0003d	ff b5 2c ff ff
	ff		 push	 DWORD PTR _objItemGem$GSCopy$1$[ebp]
  00043	8d 8f fc 0a 00
	00		 lea	 ecx, DWORD PTR [edi+2812]
  00049	8b d8		 mov	 ebx, eax
  0004b	e8 00 00 00 00	 call	 ?GetAtId@?$CItemContainer@VCItemElem@@@@QAEPAVCItemElem@@K@Z ; CItemContainer<CItemElem>::GetAtId

; 677  : 	if( IsUsableItem( pItemElemWeapon ) == FALSE || IsUsableItem( pItemElemGem ) == FALSE )

  00050	53		 push	 ebx
  00051	89 85 30 ff ff
	ff		 mov	 DWORD PTR _pItemElemGem$1$[ebp], eax
  00057	e8 00 00 00 00	 call	 ?IsUsableItem@@YAHPAVCItemBase@@@Z ; IsUsableItem
  0005c	83 c4 04	 add	 esp, 4
  0005f	85 c0		 test	 eax, eax
  00061	0f 84 8e 00 00
	00		 je	 $LN3@EnchantWea
  00067	ff b5 30 ff ff
	ff		 push	 DWORD PTR _pItemElemGem$1$[ebp]
  0006d	e8 00 00 00 00	 call	 ?IsUsableItem@@YAHPAVCItemBase@@@Z ; IsUsableItem
  00072	83 c4 04	 add	 esp, 4
  00075	85 c0		 test	 eax, eax
  00077	74 7c		 je	 SHORT $LN3@EnchantWea
; File C:\IAGOS\server\v18\Source\Source\_Common\Item.h

; 230  : 	ItemProp*	GetProp()	{	return prj.GetItemProp( m_dwItemId );	}

  00079	8b 4b 0c	 mov	 ecx, DWORD PTR [ebx+12]
; File C:\IAGOS\server\v18\Source\Source\_Common\Project.h

; 1389 : 	VERIFY_RANGE_ASSERT( nIndex, 0, m_aPropItem.GetSize(), "GetItemProp range_error", NULL );

  0007c	a1 40 02 00 00	 mov	 eax, DWORD PTR ?prj@@3VCProject@@A+576
  00081	85 c9		 test	 ecx, ecx
  00083	78 10		 js	 SHORT $LN24@EnchantWea
  00085	3b c8		 cmp	 ecx, eax
  00087	7d 0c		 jge	 SHORT $LN24@EnchantWea
; File C:\IAGOS\server\v18\Source\Source\_Common\data.h

; 270  : 	if( dwIndex >= (DWORD)m_nMaxIndex )

  00089	73 20		 jae	 SHORT $LN89@EnchantWea

; 272  : 	return (T*) m_apOffset[ dwIndex ];

  0008b	a1 30 02 00 00	 mov	 eax, DWORD PTR ?prj@@3VCProject@@A+560
  00090	8b 04 88	 mov	 eax, DWORD PTR [eax+ecx*4]
; File C:\IAGOS\server\v18\Source\Source\_Common\Project.h

; 1390 : 	return m_aPropItem.GetAt( nIndex ); 

  00093	eb 18		 jmp	 SHORT $LN19@EnchantWea
$LN24@EnchantWea:

; 579  : 	LPCTSTR szErr = Error( _T( "%s min:%d, max:%d, index:%d" ), szMsg, nMin, nMax, nIndex ); 

  00095	51		 push	 ecx
  00096	50		 push	 eax
  00097	6a 00		 push	 0
  00099	68 00 00 00 00	 push	 OFFSET ??_C@_0BI@BEIFNGEL@GetItemProp?5range_error@
  0009e	68 00 00 00 00	 push	 OFFSET ??_C@_0BM@HMFGHCP@?$CFs?5min?3?$CFd?0?5max?3?$CFd?0?5index?3?$CFd@
  000a3	e8 00 00 00 00	 call	 ?Error@@YAPBDPBDZZ	; Error
  000a8	83 c4 14	 add	 esp, 20			; 00000014H
$LN89@EnchantWea:
; File C:\IAGOS\server\v18\Source\Source\_Common\UltimateWeapon.cpp

; 681  : 	if( pItemElemWeapon->GetProp()->dwReferStat1 != WEAPON_ULTIMATE ||

  000ab	33 c0		 xor	 eax, eax
$LN19@EnchantWea:
  000ad	83 b8 d0 01 00
	00 02		 cmp	 DWORD PTR [eax+464], 2
  000b4	0f 85 b1 02 00
	00		 jne	 $LN5@EnchantWea
  000ba	8b 85 30 ff ff
	ff		 mov	 eax, DWORD PTR _pItemElemGem$1$[ebp]
  000c0	81 78 0c f2 07
	00 00		 cmp	 DWORD PTR [eax+12], 2034 ; 000007f2H
  000c7	0f 85 9e 02 00
	00		 jne	 $LN5@EnchantWea

; 682  : 		pItemElemGem->m_dwItemId != II_GEN_MAT_ORICHALCUM02 )
; 683  : 		return ULTIMATE_ISNOTULTIMATE;
; 684  : 
; 685  : 	// ŔĺÂřÇĎ°í ŔÖŔ¸¸é ĂëĽŇ
; 686  : 	if( pUser->m_Inventory.IsEquip( objItem ) )

  000cd	ff b5 20 ff ff
	ff		 push	 DWORD PTR _objItem$GSCopy$1$[ebp]
  000d3	8d 8f fc 0a 00
	00		 lea	 ecx, DWORD PTR [edi+2812]
  000d9	e8 00 00 00 00	 call	 ?IsEquip@?$CItemContainer@VCItemElem@@@@QAEHK@Z ; CItemContainer<CItemElem>::IsEquip
  000de	85 c0		 test	 eax, eax
  000e0	74 2b		 je	 SHORT $LN6@EnchantWea

; 687  : 	{
; 688  : 		pUser->AddDefinedText( TID_GAME_ULTIMATE_ISEQUIP , "" );

  000e2	68 00 00 00 00	 push	 OFFSET ??_C@_00CNPNBAHC@@
  000e7	68 f4 0c 00 00	 push	 3316			; 00000cf4H
$LN90@EnchantWea:

; 750  : 		}
; 751  : 	}	
; 752  : 	return ULTIMATE_FAILED;
; 753  : }

  000ec	57		 push	 edi
  000ed	e8 00 00 00 00	 call	 ?AddDefinedText@CUser@@QAAXHPBDZZ ; CUser::AddDefinedText
  000f2	83 c4 0c	 add	 esp, 12			; 0000000cH
$LN3@EnchantWea:
  000f5	5f		 pop	 edi
  000f6	5e		 pop	 esi
  000f7	b8 02 00 00 00	 mov	 eax, 2
  000fc	5b		 pop	 ebx
  000fd	8b 4d fc	 mov	 ecx, DWORD PTR __$ArrayPad$[ebp]
  00100	33 cd		 xor	 ecx, ebp
  00102	e8 00 00 00 00	 call	 @__security_check_cookie@4
  00107	8b e5		 mov	 esp, ebp
  00109	5d		 pop	 ebp
  0010a	c2 0c 00	 ret	 12			; 0000000cH
$LN6@EnchantWea:

; 689  : 		return ULTIMATE_CANCEL;
; 690  : 	}
; 691  : 
; 692  : 	int pAbilityOpt = pItemElemWeapon->GetAbilityOption();
; 693  : 	if( (pAbilityOpt+1) > 10 )

  0010d	8b 73 64	 mov	 esi, DWORD PTR [ebx+100]
  00110	46		 inc	 esi
  00111	89 b5 1c ff ff
	ff		 mov	 DWORD PTR _pAbilityOpt$1$[ebp], esi
  00117	83 fe 0a	 cmp	 esi, 10			; 0000000aH
  0011a	7e 0c		 jle	 SHORT $LN7@EnchantWea

; 694  : 	{
; 695  : 		pUser->AddDefinedText( TID_UPGRADE_MAXOVER , "" );

  0011c	68 00 00 00 00	 push	 OFFSET ??_C@_00CNPNBAHC@@
  00121	68 a2 08 00 00	 push	 2210			; 000008a2H

; 696  : 		return ULTIMATE_CANCEL;

  00126	eb c4		 jmp	 SHORT $LN90@EnchantWea
$LN7@EnchantWea:

; 697  : 	}
; 698  : 
; 699  : 	BOOL bSmelprot3	= FALSE;
; 700  : 	if( pUser->HasBuff( BUFF_ITEM, II_SYS_SYS_SCR_SMELPROT3 ) )

  00128	68 f8 28 00 00	 push	 10488			; 000028f8H
  0012d	6a 00		 push	 0
  0012f	8b cf		 mov	 ecx, edi
  00131	c7 85 24 ff ff
	ff 00 00 00 00	 mov	 DWORD PTR _bSmelprot3$1$[ebp], 0
  0013b	e8 00 00 00 00	 call	 ?HasBuff@CMover@@QAEHGG@Z ; CMover::HasBuff
  00140	85 c0		 test	 eax, eax
  00142	74 6d		 je	 SHORT $LN9@EnchantWea

; 701  : 	{
; 702  : 		bSmelprot3	= TRUE;
; 703  : 		pUser->RemoveBuff( BUFF_ITEM, II_SYS_SYS_SCR_SMELPROT3 );

  00144	68 f8 28 00 00	 push	 10488			; 000028f8H
  00149	6a 00		 push	 0
  0014b	8b cf		 mov	 ecx, edi
  0014d	c7 85 24 ff ff
	ff 01 00 00 00	 mov	 DWORD PTR _bSmelprot3$1$[ebp], 1
  00157	e8 00 00 00 00	 call	 ?RemoveBuff@CMover@@QAEXGG@Z ; CMover::RemoveBuff
; File C:\IAGOS\server\v18\Source\Source\_Common\Project.h

; 1389 : 	VERIFY_RANGE_ASSERT( nIndex, 0, m_aPropItem.GetSize(), "GetItemProp range_error", NULL );

  0015c	a1 40 02 00 00	 mov	 eax, DWORD PTR ?prj@@3VCProject@@A+576
  00161	3d f8 28 00 00	 cmp	 eax, 10488		; 000028f8H
  00166	7f 1c		 jg	 SHORT $LN32@EnchantWea

; 579  : 	LPCTSTR szErr = Error( _T( "%s min:%d, max:%d, index:%d" ), szMsg, nMin, nMax, nIndex ); 

  00168	68 f8 28 00 00	 push	 10488			; 000028f8H
  0016d	50		 push	 eax
  0016e	6a 00		 push	 0
  00170	68 00 00 00 00	 push	 OFFSET ??_C@_0BI@BEIFNGEL@GetItemProp?5range_error@
  00175	68 00 00 00 00	 push	 OFFSET ??_C@_0BM@HMFGHCP@?$CFs?5min?3?$CFd?0?5max?3?$CFd?0?5index?3?$CFd@
  0017a	e8 00 00 00 00	 call	 ?Error@@YAPBDPBDZZ	; Error
  0017f	83 c4 14	 add	 esp, 20			; 00000014H

; 1389 : 	VERIFY_RANGE_ASSERT( nIndex, 0, m_aPropItem.GetSize(), "GetItemProp range_error", NULL );

  00182	eb 2d		 jmp	 SHORT $LN9@EnchantWea
$LN32@EnchantWea:
; File C:\IAGOS\server\v18\Source\Source\_Common\data.h

; 270  : 	if( dwIndex >= (DWORD)m_nMaxIndex )

  00184	77 04		 ja	 SHORT $LN41@EnchantWea

; 271  : 		return NULL;

  00186	33 c0		 xor	 eax, eax
  00188	eb 0b		 jmp	 SHORT $LN40@EnchantWea
$LN41@EnchantWea:

; 272  : 	return (T*) m_apOffset[ dwIndex ];

  0018a	a1 30 02 00 00	 mov	 eax, DWORD PTR ?prj@@3VCProject@@A+560
  0018f	8b 80 e0 a3 00
	00		 mov	 eax, DWORD PTR [eax+41952]
$LN40@EnchantWea:
; File C:\IAGOS\server\v18\Source\Source\_Common\UltimateWeapon.cpp

; 706  : 		if( pItemProp )

  00195	85 c0		 test	 eax, eax
  00197	74 18		 je	 SHORT $LN9@EnchantWea

; 707  : 			g_dpDBClient.SendLogSMItemUse( "2", pUser, NULL, pItemProp );

  00199	68 00 00 00 00	 push	 OFFSET ??_C@_00CNPNBAHC@@
  0019e	50		 push	 eax
  0019f	6a 00		 push	 0
  001a1	57		 push	 edi
  001a2	68 00 00 00 00	 push	 OFFSET ??_C@_01FDFGLJHB@2@
  001a7	b9 00 00 00 00	 mov	 ecx, OFFSET ?g_dpDBClient@@3VCDPDatabaseClient@@A ; g_dpDBClient
  001ac	e8 00 00 00 00	 call	 ?SendLogSMItemUse@CDPDatabaseClient@@QAEXPBDPAVCUser@@PAVCItemElem@@PAUItemProp@@0@Z ; CDPDatabaseClient::SendLogSMItemUse
$LN9@EnchantWea:

; 708  : 	}
; 709  : 	
; 710  : 	//ş¸Ľ® ĽŇÁř
; 711  : 	LogItemInfo aLogItem;

  001b1	8d 8d 34 ff ff
	ff		 lea	 ecx, DWORD PTR _aLogItem$[ebp]
  001b7	e8 00 00 00 00	 call	 ??0_LogItemInfo@@QAE@XZ	; _LogItemInfo::_LogItemInfo

; 712  : 	aLogItem.Action = "-";
; 713  : 	aLogItem.SendName = pUser->GetName();

  001bc	6a 00		 push	 0
  001be	8b cf		 mov	 ecx, edi
  001c0	c7 85 34 ff ff
	ff 00 00 00 00	 mov	 DWORD PTR _aLogItem$[ebp], OFFSET ??_C@_01JOAMLHOP@?9@
  001ca	e8 00 00 00 00	 call	 ?GetName@CMover@@QAEPBDH@Z ; CMover::GetName
  001cf	89 85 38 ff ff
	ff		 mov	 DWORD PTR _aLogItem$[ebp+4], eax

; 714  : 	aLogItem.RecvName = "ULTIMATE_ENCHANT";
; 715  : 	aLogItem.WorldId = pUser->GetWorld()->GetID();
; 716  : 	aLogItem.Gold = aLogItem.Gold2 = pUser->GetGold();
; 717  : 	g_DPSrvr.OnLogItem( aLogItem, pItemElemGem, 1 );	

  001d5	b9 00 00 00 00	 mov	 ecx, OFFSET ?g_DPSrvr@@3VCDPSrvr@@A ; g_DPSrvr
  001da	8b 87 6c 01 00
	00		 mov	 eax, DWORD PTR [edi+364]
  001e0	c7 85 3c ff ff
	ff 00 00 00 00	 mov	 DWORD PTR _aLogItem$[ebp+8], OFFSET ??_C@_0BB@LFPKPKBP@ULTIMATE_ENCHANT@
  001ea	6a 01		 push	 1
  001ec	ff b5 30 ff ff
	ff		 push	 DWORD PTR _pItemElemGem$1$[ebp]
  001f2	8b 00		 mov	 eax, DWORD PTR [eax]
  001f4	89 85 40 ff ff
	ff		 mov	 DWORD PTR _aLogItem$[ebp+12], eax
  001fa	8b 87 e0 14 00
	00		 mov	 eax, DWORD PTR [edi+5344]
  00200	89 85 48 ff ff
	ff		 mov	 DWORD PTR _aLogItem$[ebp+20], eax
  00206	89 85 44 ff ff
	ff		 mov	 DWORD PTR _aLogItem$[ebp+16], eax
  0020c	8d 85 34 ff ff
	ff		 lea	 eax, DWORD PTR _aLogItem$[ebp]
  00212	50		 push	 eax
  00213	e8 00 00 00 00	 call	 ?OnLogItem@CDPSrvr@@QAEXAAU_LogItemInfo@@PAVCItemElem@@H@Z ; CDPSrvr::OnLogItem

; 718  : 	pUser->RemoveItem( (BYTE)( objItemGem ), 1 );

  00218	6a 01		 push	 1
  0021a	ff b5 2c ff ff
	ff		 push	 DWORD PTR _objItemGem$GSCopy$1$[ebp]
  00220	8b cf		 mov	 ecx, edi
  00222	e8 00 00 00 00	 call	 ?RemoveItem@CMover@@QAEXEF@Z ; CMover::RemoveItem
; File C:\IAGOS\server\v18\Source\Source\_Common\xUtil.h

; 16   : 	g_next = g_next * 1103515245 + 12345;// + nRandomSeed[ i++ ];

  00227	69 05 00 00 00
	00 6d 4e c6 41	 imul	 eax, DWORD PTR ?g_next@@3KA, 1103515245 ; g_next
; File C:\IAGOS\server\v18\Source\Source\_Common\UltimateWeapon.cpp

; 721  : 	map<int, int>::iterator it = m_mapUltimateProb.find( pAbilityOpt+1 );

  00231	89 b5 2c ff ff
	ff		 mov	 DWORD PTR $T1[ebp], esi
  00237	8b b5 28 ff ff
	ff		 mov	 esi, DWORD PTR _this$1$[ebp]
; File C:\IAGOS\server\v18\Source\Source\_Common\xUtil.h

; 16   : 	g_next = g_next * 1103515245 + 12345;// + nRandomSeed[ i++ ];

  0023d	05 39 30 00 00	 add	 eax, 12345		; 00003039H
  00242	89 85 30 ff ff
	ff		 mov	 DWORD PTR tv542[ebp], eax
; File C:\IAGOS\server\v18\Source\Source\_Common\UltimateWeapon.cpp

; 721  : 	map<int, int>::iterator it = m_mapUltimateProb.find( pAbilityOpt+1 );

  00248	8d 4e 24	 lea	 ecx, DWORD PTR [esi+36]
; File C:\IAGOS\server\v18\Source\Source\_Common\xUtil.h

; 16   : 	g_next = g_next * 1103515245 + 12345;// + nRandomSeed[ i++ ];

  0024b	a3 00 00 00 00	 mov	 DWORD PTR ?g_next@@3KA, eax ; g_next
; File C:\IAGOS\server\v18\Source\Source\_Common\UltimateWeapon.cpp

; 721  : 	map<int, int>::iterator it = m_mapUltimateProb.find( pAbilityOpt+1 );

  00250	8d 85 2c ff ff
	ff		 lea	 eax, DWORD PTR $T1[ebp]
  00256	50		 push	 eax
  00257	8d 85 28 ff ff
	ff		 lea	 eax, DWORD PTR _it$[ebp]
  0025d	50		 push	 eax
  0025e	e8 00 00 00 00	 call	 ?find@?$_Tree@V?$_Tmap_traits@HHU?$less@H@std@@V?$allocator@U?$pair@$$CBHH@std@@@2@$0A@@std@@@std@@QAE?AV?$_Tree_iterator@V?$_Tree_val@U?$_Tree_simple_types@U?$pair@$$CBHH@std@@@std@@@std@@@2@ABH@Z ; std::_Tree<std::_Tmap_traits<int,int,std::less<int>,std::allocator<std::pair<int const ,int> >,0> >::find
; File C:\Program Files\Microsoft Visual Studio\2022\Professional\VC\Tools\MSVC\14.44.35207\include\xtree

; 37   :     _Tree_unchecked_const_iterator(_Nodeptr _Pnode, const _Mytree* _Plist) noexcept : _Ptr(_Pnode) {

  00263	8b 8d 28 ff ff
	ff		 mov	 ecx, DWORD PTR _it$[ebp]
  00269	3b 4e 24	 cmp	 ecx, DWORD PTR [esi+36]
; File C:\IAGOS\server\v18\Source\Source\_Common\UltimateWeapon.cpp

; 722  : 	if( it == m_mapUltimateProb.end() )

  0026c	0f 84 83 fe ff
	ff		 je	 $LN3@EnchantWea
; File C:\IAGOS\server\v18\Source\Source\_Common\xUtil.h

; 22   : 	return  xRand() % num;

  00272	8b b5 30 ff ff
	ff		 mov	 esi, DWORD PTR tv542[ebp]
  00278	b8 83 de 1b 43	 mov	 eax, 1125899907		; 431bde83H
  0027d	f7 e6		 mul	 esi
  0027f	c1 ea 12	 shr	 edx, 18			; 00000012H
  00282	69 c2 40 42 0f
	00		 imul	 eax, edx, 1000000
  00288	2b f0		 sub	 esi, eax
; File C:\IAGOS\server\v18\Source\Source\_Common\UltimateWeapon.cpp

; 725  : 	if( nRandom < it->second )

  0028a	3b 71 14	 cmp	 esi, DWORD PTR [ecx+20]
  0028d	7d 63		 jge	 SHORT $LN11@EnchantWea

; 726  : 	{
; 727  : 		pUser->UpdateItem( (BYTE)pItemElemWeapon->m_dwObjId, UI_AO, ++pAbilityOpt );

  0028f	8b b5 1c ff ff
	ff		 mov	 esi, DWORD PTR _pAbilityOpt$1$[ebp]
  00295	8b cf		 mov	 ecx, edi
  00297	0f b6 43 04	 movzx	 eax, BYTE PTR [ebx+4]
  0029b	6a 00		 push	 0
  0029d	56		 push	 esi
  0029e	6a 03		 push	 3
  002a0	50		 push	 eax
  002a1	e8 00 00 00 00	 call	 ?UpdateItem@CMover@@QAEXEDKK@Z ; CMover::UpdateItem

; 728  : 		if( pAbilityOpt > 5 )

  002a6	83 fe 05	 cmp	 esi, 5
  002a9	7e 14		 jle	 SHORT $LN13@EnchantWea

; 729  : #if __VER >= 12 // __EXT_PIERCING
; 730  : 			pUser->UpdateItem( (BYTE)pItemElemWeapon->m_dwObjId, UI_ULTIMATE_PIERCING_SIZE, pAbilityOpt - 5 );

  002ab	6a 00		 push	 0
  002ad	8d 46 fb	 lea	 eax, DWORD PTR [esi-5]
  002b0	8b cf		 mov	 ecx, edi
  002b2	50		 push	 eax
  002b3	0f b6 43 04	 movzx	 eax, BYTE PTR [ebx+4]
  002b7	6a 0d		 push	 13			; 0000000dH
  002b9	50		 push	 eax
  002ba	e8 00 00 00 00	 call	 ?UpdateItem@CMover@@QAEXEDKK@Z ; CMover::UpdateItem
$LN13@EnchantWea:

; 731  : #else //__EXT_PIERCING
; 732  : 			pUser->UpdateItem( (BYTE)pItemElemWeapon->m_dwObjId, UI_PIERCING_SIZE, pAbilityOpt - 5 );
; 733  : #endif // __EXT_PIERCING
; 734  : 		aLogItem.RecvName = "ULTIMATE_ENCHANT_SUCCESS";
; 735  : 		g_DPSrvr.OnLogItem( aLogItem, pItemElemWeapon, 1 );

  002bf	6a 01		 push	 1
  002c1	53		 push	 ebx
  002c2	8d 85 34 ff ff
	ff		 lea	 eax, DWORD PTR _aLogItem$[ebp]
  002c8	c7 85 3c ff ff
	ff 00 00 00 00	 mov	 DWORD PTR _aLogItem$[ebp+8], OFFSET ??_C@_0BJ@MLCNCLLD@ULTIMATE_ENCHANT_SUCCESS@
  002d2	50		 push	 eax
  002d3	b9 00 00 00 00	 mov	 ecx, OFFSET ?g_DPSrvr@@3VCDPSrvr@@A ; g_DPSrvr
  002d8	e8 00 00 00 00	 call	 ?OnLogItem@CDPSrvr@@QAEXAAU_LogItemInfo@@PAVCItemElem@@H@Z ; CDPSrvr::OnLogItem
  002dd	5f		 pop	 edi

; 750  : 		}
; 751  : 	}	
; 752  : 	return ULTIMATE_FAILED;
; 753  : }

  002de	5e		 pop	 esi
  002df	33 c0		 xor	 eax, eax
  002e1	5b		 pop	 ebx
  002e2	8b 4d fc	 mov	 ecx, DWORD PTR __$ArrayPad$[ebp]
  002e5	33 cd		 xor	 ecx, ebp
  002e7	e8 00 00 00 00	 call	 @__security_check_cookie@4
  002ec	8b e5		 mov	 esp, ebp
  002ee	5d		 pop	 ebp
  002ef	c2 0c 00	 ret	 12			; 0000000cH
$LN11@EnchantWea:

; 736  : 		return ULTIMATE_SUCCESS;
; 737  : 	}
; 738  : 	else
; 739  : 	{
; 740  : 		if( bSmelprot3 )	// ş¸ČŁŔÇ µÎ·ç¸¶¸®(ĂÖ»ó±Ţ) »çżë˝Ă

  002f2	83 bd 24 ff ff
	ff 00		 cmp	 DWORD PTR _bSmelprot3$1$[ebp], 0
  002f9	8d 85 34 ff ff
	ff		 lea	 eax, DWORD PTR _aLogItem$[ebp]
  002ff	b9 00 00 00 00	 mov	 ecx, OFFSET ?g_DPSrvr@@3VCDPSrvr@@A ; g_DPSrvr
  00304	74 2b		 je	 SHORT $LN14@EnchantWea

; 741  : 		{
; 742  : 			aLogItem.RecvName = "ULTIMATE_ENCHANT_PROTECT";
; 743  : 			g_DPSrvr.OnLogItem( aLogItem, pItemElemWeapon );

  00306	6a 00		 push	 0
  00308	53		 push	 ebx
  00309	50		 push	 eax
  0030a	c7 85 3c ff ff
	ff 00 00 00 00	 mov	 DWORD PTR _aLogItem$[ebp+8], OFFSET ??_C@_0BJ@HGGAKMIA@ULTIMATE_ENCHANT_PROTECT@
  00314	e8 00 00 00 00	 call	 ?OnLogItem@CDPSrvr@@QAEXAAU_LogItemInfo@@PAVCItemElem@@H@Z ; CDPSrvr::OnLogItem
  00319	5f		 pop	 edi

; 750  : 		}
; 751  : 	}	
; 752  : 	return ULTIMATE_FAILED;
; 753  : }

  0031a	5e		 pop	 esi
  0031b	b8 01 00 00 00	 mov	 eax, 1
  00320	5b		 pop	 ebx
  00321	8b 4d fc	 mov	 ecx, DWORD PTR __$ArrayPad$[ebp]
  00324	33 cd		 xor	 ecx, ebp
  00326	e8 00 00 00 00	 call	 @__security_check_cookie@4
  0032b	8b e5		 mov	 esp, ebp
  0032d	5d		 pop	 ebp
  0032e	c2 0c 00	 ret	 12			; 0000000cH
$LN14@EnchantWea:

; 744  : 		}
; 745  : 		else	// ľóĹÍ¸Ú żţĆů ĆÄ±«
; 746  : 		{
; 747  : 			aLogItem.RecvName = "ULTIMATE_ENCHANT_FAILED";
; 748  : 			g_DPSrvr.OnLogItem( aLogItem, pItemElemWeapon, 1 );

  00331	6a 01		 push	 1
  00333	53		 push	 ebx
  00334	50		 push	 eax
  00335	c7 85 3c ff ff
	ff 00 00 00 00	 mov	 DWORD PTR _aLogItem$[ebp+8], OFFSET ??_C@_0BI@EALEAHL@ULTIMATE_ENCHANT_FAILED@
  0033f	e8 00 00 00 00	 call	 ?OnLogItem@CDPSrvr@@QAEXAAU_LogItemInfo@@PAVCItemElem@@H@Z ; CDPSrvr::OnLogItem

; 749  : 			pUser->RemoveItem( (BYTE)( objItem ), 1 );

  00344	6a 01		 push	 1
  00346	ff b5 20 ff ff
	ff		 push	 DWORD PTR _objItem$GSCopy$1$[ebp]
  0034c	8b cf		 mov	 ecx, edi
  0034e	e8 00 00 00 00	 call	 ?RemoveItem@CMover@@QAEXEF@Z ; CMover::RemoveItem
  00353	5f		 pop	 edi

; 750  : 		}
; 751  : 	}	
; 752  : 	return ULTIMATE_FAILED;
; 753  : }

  00354	5e		 pop	 esi
  00355	b8 01 00 00 00	 mov	 eax, 1
  0035a	5b		 pop	 ebx
  0035b	8b 4d fc	 mov	 ecx, DWORD PTR __$ArrayPad$[ebp]
  0035e	33 cd		 xor	 ecx, ebp
  00360	e8 00 00 00 00	 call	 @__security_check_cookie@4
  00365	8b e5		 mov	 esp, ebp
  00367	5d		 pop	 ebp
  00368	c2 0c 00	 ret	 12			; 0000000cH
$LN5@EnchantWea:
  0036b	8b 4d fc	 mov	 ecx, DWORD PTR __$ArrayPad$[ebp]
  0036e	b8 05 00 00 00	 mov	 eax, 5
  00373	5f		 pop	 edi
  00374	5e		 pop	 esi
  00375	33 cd		 xor	 ecx, ebp
  00377	5b		 pop	 ebx
  00378	e8 00 00 00 00	 call	 @__security_check_cookie@4
  0037d	8b e5		 mov	 esp, ebp
  0037f	5d		 pop	 ebp
  00380	c2 0c 00	 ret	 12			; 0000000cH
?EnchantWeapon@CUltimateWeapon@@QAEHPAVCUser@@KK@Z ENDP	; CUltimateWeapon::EnchantWeapon
_TEXT	ENDS
; Function compile flags: /Ogtp
; File C:\IAGOS\server\v18\Source\Source\_Common\UltimateWeapon.cpp
; File C:\Program Files\Microsoft Visual Studio\2022\Professional\VC\Tools\MSVC\14.44.35207\atlmfc\include\afxstr.h
; File C:\Program Files\Microsoft Visual Studio\2022\Professional\VC\Tools\MSVC\14.44.35207\atlmfc\include\atlsimpstr.h
; File C:\Program Files\Microsoft Visual Studio\2022\Professional\VC\Tools\MSVC\14.44.35207\atlmfc\include\cstringt.h
; File C:\Program Files\Microsoft Visual Studio\2022\Professional\VC\Tools\MSVC\14.44.35207\atlmfc\include\atlsimpstr.h
; File C:\IAGOS\server\v18\Source\Source\_Common\UltimateWeapon.cpp
; File C:\Program Files\Microsoft Visual Studio\2022\Professional\VC\Tools\MSVC\14.44.35207\atlmfc\include\afxstr.h
; File C:\Program Files\Microsoft Visual Studio\2022\Professional\VC\Tools\MSVC\14.44.35207\atlmfc\include\atlsimpstr.h
; File C:\IAGOS\server\v18\Source\Source\_Common\UltimateWeapon.cpp
; File C:\Program Files\Microsoft Visual Studio\2022\Professional\VC\Tools\MSVC\14.44.35207\atlmfc\include\atlsimpstr.h
; File C:\IAGOS\server\v18\Source\Source\_Common\UltimateWeapon.cpp
; File C:\Program Files\Microsoft Visual Studio\2022\Professional\VC\Tools\MSVC\14.44.35207\atlmfc\include\atlsimpstr.h
; File C:\IAGOS\server\v18\Source\Source\_Common\UltimateWeapon.cpp
; File C:\IAGOS\server\v18\Source\Source\_Common\Project.h
; File C:\IAGOS\server\v18\Source\Source\_Common\data.h
; File C:\IAGOS\server\v18\Source\Source\_Common\UltimateWeapon.cpp
; File C:\IAGOS\server\v18\Source\Source\_Common\xUtil.h
; File C:\IAGOS\server\v18\Source\Source\_Common\UltimateWeapon.cpp
; File C:\Program Files\Microsoft Visual Studio\2022\Professional\VC\Tools\MSVC\14.44.35207\atlmfc\include\atlsimpstr.h
; File C:\IAGOS\server\v18\Source\Source\_Common\UltimateWeapon.cpp
;	COMDAT ?TransWeapon@CUltimateWeapon@@QAEHPAVCUser@@KKK@Z
_TEXT	SEGMENT
_objGem2$GSCopy$1$ = -432				; size = 4
_objGem1$GSCopy$1$ = -428				; size = 4
_objItem$GSCopy$1$ = -424				; size = 4
_pItemElemGem2$1$ = -420				; size = 4
_pItemElemGem1$1$ = -416				; size = 4
_bSmelprot3$1$ = -412					; size = 4
_this$GSCopy$1$ = -412					; size = 4
_nProb$1$ = -408					; size = 4
$T2 = -404						; size = 4
$T3 = -404						; size = 4
$T4 = -404						; size = 4
$T5 = -404						; size = 4
_strTemp$ = -400					; size = 4
_strLog$ = -396						; size = 4
_CreateItem$6 = -392					; size = 176
_aLogItem$ = -216					; size = 200
__$ArrayPad$ = -16					; size = 4
__$EHRec$ = -12						; size = 12
_pUser$ = 8						; size = 4
_objItem$ = 12						; size = 4
_objGem1$ = 16						; size = 4
_objGem2$ = 20						; size = 4
?TransWeapon@CUltimateWeapon@@QAEHPAVCUser@@KKK@Z PROC	; CUltimateWeapon::TransWeapon, COMDAT
; _this$ = ecx

; 520  : {

  00000	55		 push	 ebp
  00001	8b ec		 mov	 ebp, esp
  00003	6a ff		 push	 -1
  00005	68 00 00 00 00	 push	 __ehhandler$?TransWeapon@CUltimateWeapon@@QAEHPAVCUser@@KKK@Z
  0000a	64 a1 00 00 00
	00		 mov	 eax, DWORD PTR fs:0
  00010	50		 push	 eax
  00011	81 ec a4 01 00
	00		 sub	 esp, 420		; 000001a4H
  00017	a1 00 00 00 00	 mov	 eax, DWORD PTR ___security_cookie
  0001c	33 c5		 xor	 eax, ebp
  0001e	89 45 f0	 mov	 DWORD PTR __$ArrayPad$[ebp], eax
  00021	53		 push	 ebx
  00022	56		 push	 esi
  00023	57		 push	 edi
  00024	50		 push	 eax
  00025	8d 45 f4	 lea	 eax, DWORD PTR __$EHRec$[ebp]
  00028	64 a3 00 00 00
	00		 mov	 DWORD PTR fs:0, eax
  0002e	89 8d 64 fe ff
	ff		 mov	 DWORD PTR _this$GSCopy$1$[ebp], ecx
  00034	8b 7d 08	 mov	 edi, DWORD PTR _pUser$[ebp]
  00037	8b 4d 10	 mov	 ecx, DWORD PTR _objGem1$[ebp]
  0003a	8b 45 0c	 mov	 eax, DWORD PTR _objItem$[ebp]
  0003d	89 8d 54 fe ff
	ff		 mov	 DWORD PTR _objGem1$GSCopy$1$[ebp], ecx
  00043	8b 4d 14	 mov	 ecx, DWORD PTR _objGem2$[ebp]
  00046	89 8d 50 fe ff
	ff		 mov	 DWORD PTR _objGem2$GSCopy$1$[ebp], ecx

; 521  : 	CItemElem* pItemElemWeapon	= pUser->m_Inventory.GetAtId( objItem );

  0004c	8d 8f fc 0a 00
	00		 lea	 ecx, DWORD PTR [edi+2812]
  00052	50		 push	 eax
  00053	89 85 58 fe ff
	ff		 mov	 DWORD PTR _objItem$GSCopy$1$[ebp], eax
  00059	e8 00 00 00 00	 call	 ?GetAtId@?$CItemContainer@VCItemElem@@@@QAEPAVCItemElem@@K@Z ; CItemContainer<CItemElem>::GetAtId

; 522  : 	CItemElem* pItemElemGem1	= pUser->m_Inventory.GetAtId( objGem1 );

  0005e	ff b5 54 fe ff
	ff		 push	 DWORD PTR _objGem1$GSCopy$1$[ebp]
  00064	8d 8f fc 0a 00
	00		 lea	 ecx, DWORD PTR [edi+2812]
  0006a	8b f0		 mov	 esi, eax
  0006c	e8 00 00 00 00	 call	 ?GetAtId@?$CItemContainer@VCItemElem@@@@QAEPAVCItemElem@@K@Z ; CItemContainer<CItemElem>::GetAtId

; 523  : 	CItemElem* pItemElemGem2	= pUser->m_Inventory.GetAtId( objGem2 );

  00071	ff b5 50 fe ff
	ff		 push	 DWORD PTR _objGem2$GSCopy$1$[ebp]
  00077	8d 8f fc 0a 00
	00		 lea	 ecx, DWORD PTR [edi+2812]
  0007d	89 85 60 fe ff
	ff		 mov	 DWORD PTR _pItemElemGem1$1$[ebp], eax
  00083	e8 00 00 00 00	 call	 ?GetAtId@?$CItemContainer@VCItemElem@@@@QAEPAVCItemElem@@K@Z ; CItemContainer<CItemElem>::GetAtId

; 524  : 	if( IsUsableItem( pItemElemWeapon ) == FALSE
; 525  : 		|| IsUsableItem( pItemElemGem1 ) == FALSE
; 526  : 		|| IsUsableItem( pItemElemGem2 ) == FALSE )

  00088	56		 push	 esi
  00089	89 85 5c fe ff
	ff		 mov	 DWORD PTR _pItemElemGem2$1$[ebp], eax
  0008f	e8 00 00 00 00	 call	 ?IsUsableItem@@YAHPAVCItemBase@@@Z ; IsUsableItem
  00094	83 c4 04	 add	 esp, 4
  00097	85 c0		 test	 eax, eax
  00099	74 4c		 je	 SHORT $LN3@TransWeapo
  0009b	ff b5 60 fe ff
	ff		 push	 DWORD PTR _pItemElemGem1$1$[ebp]
  000a1	e8 00 00 00 00	 call	 ?IsUsableItem@@YAHPAVCItemBase@@@Z ; IsUsableItem
  000a6	83 c4 04	 add	 esp, 4
  000a9	85 c0		 test	 eax, eax
  000ab	74 3a		 je	 SHORT $LN3@TransWeapo
  000ad	ff b5 5c fe ff
	ff		 push	 DWORD PTR _pItemElemGem2$1$[ebp]
  000b3	e8 00 00 00 00	 call	 ?IsUsableItem@@YAHPAVCItemBase@@@Z ; IsUsableItem
  000b8	83 c4 04	 add	 esp, 4
  000bb	85 c0		 test	 eax, eax
  000bd	74 28		 je	 SHORT $LN3@TransWeapo

; 527  : 		return ULTIMATE_CANCEL;
; 528  : 	
; 529  : 	// ŔĺÂřÇĎ°í ŔÖŔ¸¸é ĂëĽŇ
; 530  : 	if( pUser->m_Inventory.IsEquip( objItem ) )

  000bf	ff b5 58 fe ff
	ff		 push	 DWORD PTR _objItem$GSCopy$1$[ebp]
  000c5	8d 8f fc 0a 00
	00		 lea	 ecx, DWORD PTR [edi+2812]
  000cb	e8 00 00 00 00	 call	 ?IsEquip@?$CItemContainer@VCItemElem@@@@QAEHK@Z ; CItemContainer<CItemElem>::IsEquip
  000d0	85 c0		 test	 eax, eax
  000d2	74 36		 je	 SHORT $LN4@TransWeapo

; 531  : 	{
; 532  : 		pUser->AddDefinedText( TID_GAME_ULTIMATE_ISEQUIP , "" );

  000d4	68 00 00 00 00	 push	 OFFSET ??_C@_00CNPNBAHC@@
  000d9	68 f4 0c 00 00	 push	 3316			; 00000cf4H
  000de	57		 push	 edi
  000df	e8 00 00 00 00	 call	 ?AddDefinedText@CUser@@QAAXHPBDZZ ; CUser::AddDefinedText
  000e4	83 c4 0c	 add	 esp, 12			; 0000000cH
$LN3@TransWeapo:

; 670  : }

  000e7	b8 02 00 00 00	 mov	 eax, 2
$LN1@TransWeapo:
  000ec	8b 4d f4	 mov	 ecx, DWORD PTR __$EHRec$[ebp]
  000ef	64 89 0d 00 00
	00 00		 mov	 DWORD PTR fs:0, ecx
  000f6	59		 pop	 ecx
  000f7	5f		 pop	 edi
  000f8	5e		 pop	 esi
  000f9	5b		 pop	 ebx
  000fa	8b 4d f0	 mov	 ecx, DWORD PTR __$ArrayPad$[ebp]
  000fd	33 cd		 xor	 ecx, ebp
  000ff	e8 00 00 00 00	 call	 @__security_check_cookie@4
  00104	8b e5		 mov	 esp, ebp
  00106	5d		 pop	 ebp
  00107	c2 10 00	 ret	 16			; 00000010H
$LN4@TransWeapo:

; 533  : 		return ULTIMATE_CANCEL;
; 534  : 	}
; 535  : 		
; 536  : 	// ą«±â°ˇ ľĆ´Ď¸é ĂëĽŇ
; 537  : 	if( pItemElemWeapon->GetProp()->dwItemKind1 != IK1_WEAPON )

  0010a	8b ce		 mov	 ecx, esi
  0010c	e8 00 00 00 00	 call	 ?GetPropA@CItemElem@@QAEPAUItemProp@@XZ ; CItemElem::GetPropA
  00111	83 78 70 01	 cmp	 DWORD PTR [eax+112], 1
  00115	75 d0		 jne	 SHORT $LN3@TransWeapo

; 538  : 	{
; 539  : #ifdef __INTERNALSERVER
; 540  : 		pUser->AddText( "ą«±â°ˇ ľĆ´Ô." );
; 541  : #endif // __INTERNALSERVER
; 542  : 		return ULTIMATE_CANCEL;
; 543  : 	}
; 544  : 
; 545  : 	// Ĺ¸°Ů ID °ˇ ľřŔ» ¶§
; 546  : 	if( pItemElemWeapon->GetProp()->dwReferTarget1 == NULL_ID )

  00117	8b ce		 mov	 ecx, esi
  00119	e8 00 00 00 00	 call	 ?GetPropA@CItemElem@@QAEPAUItemProp@@XZ ; CItemElem::GetPropA
  0011e	83 b8 d8 01 00
	00 ff		 cmp	 DWORD PTR [eax+472], -1
  00125	74 c0		 je	 SHORT $LN3@TransWeapo

; 547  : 	{
; 548  : #ifdef __INTERNALSERVER
; 549  : 		pUser->AddText( "dwReferTarget1 żˇ şŻČŻµÉ ľĆŔĚĹŰ ID°ˇ ľřŔ˝." );
; 550  : #endif // __INTERNALSERVER
; 551  : 		return ULTIMATE_CANCEL;	
; 552  : 	}
; 553  : 	
; 554  : 	// ŔĎąÝ, ŔŻ´ĎĹ© ľĆŔĚĹŰŔĚ ľĆ´Ň ¶§
; 555  : 	if( pItemElemWeapon->GetProp()->dwReferStat1 != WEAPON_GENERAL &&

  00127	8b ce		 mov	 ecx, esi
  00129	e8 00 00 00 00	 call	 ?GetPropA@CItemElem@@QAEPAUItemProp@@XZ ; CItemElem::GetPropA
  0012e	83 b8 d0 01 00
	00 00		 cmp	 DWORD PTR [eax+464], 0
  00135	74 10		 je	 SHORT $LN7@TransWeapo
  00137	8b ce		 mov	 ecx, esi
  00139	e8 00 00 00 00	 call	 ?GetPropA@CItemElem@@QAEPAUItemProp@@XZ ; CItemElem::GetPropA
  0013e	83 b8 d0 01 00
	00 01		 cmp	 DWORD PTR [eax+464], 1
  00145	75 a0		 jne	 SHORT $LN3@TransWeapo
$LN7@TransWeapo:

; 556  : 		  pItemElemWeapon->GetProp()->dwReferStat1 != WEAPON_UNIQUE )
; 557  : 	{
; 558  : #ifdef __INTERNALSERVER
; 559  : 		pUser->AddText( "dwReferStat1 °ŞŔĚ WEAPON_GENERAL, WEAPON_UNIQUE °ˇ ľĆ´Ô." );
; 560  : #endif // __INTERNALSERVER
; 561  : 		return ULTIMATE_CANCEL;
; 562  : 	}
; 563  : 
; 564  : 	DWORD dwItemId = GetGemKind( pItemElemWeapon->GetProp()->dwLimitLevel1 );

  00147	8b ce		 mov	 ecx, esi
  00149	e8 00 00 00 00	 call	 ?GetPropA@CItemElem@@QAEPAUItemProp@@XZ ; CItemElem::GetPropA
  0014e	8b 9d 64 fe ff
	ff		 mov	 ebx, DWORD PTR _this$GSCopy$1$[ebp]
  00154	8b cb		 mov	 ecx, ebx
  00156	8b 80 30 02 00
	00		 mov	 eax, DWORD PTR [eax+560]
  0015c	50		 push	 eax
  0015d	e8 00 00 00 00	 call	 ?GetGemKind@CUltimateWeapon@@QAEKK@Z ; CUltimateWeapon::GetGemKind

; 565  : 	if( dwItemId != pItemElemGem1->m_dwItemId || pItemElemGem2->m_dwItemId != II_GEN_MAT_ORICHALCUM02 )

  00162	8b 8d 60 fe ff
	ff		 mov	 ecx, DWORD PTR _pItemElemGem1$1$[ebp]
  00168	3b 41 0c	 cmp	 eax, DWORD PTR [ecx+12]
  0016b	0f 85 76 ff ff
	ff		 jne	 $LN3@TransWeapo
  00171	8b 85 5c fe ff
	ff		 mov	 eax, DWORD PTR _pItemElemGem2$1$[ebp]
  00177	81 78 0c f2 07
	00 00		 cmp	 DWORD PTR [eax+12], 2034 ; 000007f2H
  0017e	0f 85 63 ff ff
	ff		 jne	 $LN3@TransWeapo
; File C:\Program Files\Microsoft Visual Studio\2022\Professional\VC\Tools\MSVC\14.44.35207\atlmfc\include\afxstr.h

; 56   : 		return( AfxGetStringManager() );

  00184	e8 00 00 00 00	 call	 ?AfxGetStringManager@@YGPAUIAtlStringMgr@ATL@@XZ ; AfxGetStringManager
  00189	8b c8		 mov	 ecx, eax
; File C:\Program Files\Microsoft Visual Studio\2022\Professional\VC\Tools\MSVC\14.44.35207\atlmfc\include\atlsimpstr.h

; 209  : 		ATLENSURE( pStringMgr != NULL );

  0018b	85 c9		 test	 ecx, ecx
  0018d	0f 84 f1 04 00
	00		 je	 $LN113@TransWeapo

; 210  : 		CStringData* pData = pStringMgr->GetNilString();

  00193	8b 01		 mov	 eax, DWORD PTR [ecx]
  00195	ff 50 0c	 call	 DWORD PTR [eax+12]

; 211  : 		Attach( pData );

  00198	83 c0 10	 add	 eax, 16			; 00000010H
  0019b	89 85 70 fe ff
	ff		 mov	 DWORD PTR _strTemp$[ebp], eax
; File C:\Program Files\Microsoft Visual Studio\2022\Professional\VC\Tools\MSVC\14.44.35207\atlmfc\include\cstringt.h

; 2712 : 		if( (pv != NULL) && IS_INTRESOURCE( pv ) )

  001a1	b8 00 00 00 00	 mov	 eax, OFFSET ??_C@_07JKKJPOP@UNIQUE_@

; 1052 : 		CThisSimpleString( StringTraits::GetDefaultManager() )

  001a6	c7 45 fc 00 00
	00 00		 mov	 DWORD PTR __$EHRec$[ebp+8], 0

; 2712 : 		if( (pv != NULL) && IS_INTRESOURCE( pv ) )

  001ad	8d 8d 70 fe ff
	ff		 lea	 ecx, DWORD PTR _strTemp$[ebp]
  001b3	a9 00 00 ff ff	 test	 eax, -65536		; ffff0000H
  001b8	75 0b		 jne	 SHORT $LN106@TransWeapo

; 2713 : 		{
; 2714 : 			UINT nID = LOWORD( reinterpret_cast< DWORD_PTR >( pv ) );

  001ba	0f b7 c0	 movzx	 eax, ax

; 2715 : 			(nID);
; 2716 : #ifdef _ATL_USE_WINAPI_FAMILY_DESKTOP_APP
; 2717 : 			if( !LoadString( nID ) )

  001bd	50		 push	 eax
  001be	e8 00 00 00 00	 call	 ?LoadStringA@?$CStringT@DV?$StrTraitMFC@DV?$ChTraitsCRT@D@ATL@@@@@ATL@@QAEHI@Z ; ATL::CStringT<char,StrTraitMFC<char,ATL::ChTraitsCRT<char> > >::LoadStringA

; 1054 : 		if( !CheckImplicitLoad( pszSrc ) )

  001c3	eb 0c		 jmp	 SHORT $LN36@TransWeapo
$LN106@TransWeapo:
; File C:\Program Files\Microsoft Visual Studio\2022\Professional\VC\Tools\MSVC\14.44.35207\atlmfc\include\atlsimpstr.h

; 606  : 		SetString( pszSrc, StringLength( pszSrc ) );

  001c5	6a 07		 push	 7
  001c7	68 00 00 00 00	 push	 OFFSET ??_C@_07JKKJPOP@UNIQUE_@
  001cc	e8 00 00 00 00	 call	 ?SetString@?$CSimpleStringT@D$0A@@ATL@@QAEXPBDH@Z ; ATL::CSimpleStringT<char,0>::SetString
$LN36@TransWeapo:
; File C:\IAGOS\server\v18\Source\Source\_Common\UltimateWeapon.cpp

; 568  : 	CString strTemp = "UNIQUE_"; 

  001d1	c7 45 fc 01 00
	00 00		 mov	 DWORD PTR __$EHRec$[ebp+8], 1
; File C:\Program Files\Microsoft Visual Studio\2022\Professional\VC\Tools\MSVC\14.44.35207\atlmfc\include\afxstr.h

; 56   : 		return( AfxGetStringManager() );

  001d8	e8 00 00 00 00	 call	 ?AfxGetStringManager@@YGPAUIAtlStringMgr@ATL@@XZ ; AfxGetStringManager
  001dd	8b c8		 mov	 ecx, eax
; File C:\Program Files\Microsoft Visual Studio\2022\Professional\VC\Tools\MSVC\14.44.35207\atlmfc\include\atlsimpstr.h

; 209  : 		ATLENSURE( pStringMgr != NULL );

  001df	85 c9		 test	 ecx, ecx
  001e1	0f 84 a7 04 00
	00		 je	 $LN114@TransWeapo

; 210  : 		CStringData* pData = pStringMgr->GetNilString();

  001e7	8b 01		 mov	 eax, DWORD PTR [ecx]
  001e9	ff 50 0c	 call	 DWORD PTR [eax+12]

; 211  : 		Attach( pData );

  001ec	83 c0 10	 add	 eax, 16			; 00000010H
  001ef	89 85 74 fe ff
	ff		 mov	 DWORD PTR _strLog$[ebp], eax
; File C:\IAGOS\server\v18\Source\Source\_Common\UltimateWeapon.cpp

; 570  : 	int nProb = m_nGen2UniProb;

  001f5	8b 5b 34	 mov	 ebx, DWORD PTR [ebx+52]

; 571  : 	if( pItemElemWeapon->GetProp()->dwReferStat1 == WEAPON_UNIQUE )

  001f8	8b ce		 mov	 ecx, esi
  001fa	c6 45 fc 02	 mov	 BYTE PTR __$EHRec$[ebp+8], 2
  001fe	89 9d 68 fe ff
	ff		 mov	 DWORD PTR _nProb$1$[ebp], ebx
  00204	e8 00 00 00 00	 call	 ?GetPropA@CItemElem@@QAEPAUItemProp@@XZ ; CItemElem::GetPropA
  00209	83 b8 d0 01 00
	00 01		 cmp	 DWORD PTR [eax+464], 1
  00210	75 31		 jne	 SHORT $LN10@TransWeapo

; 572  : 	{
; 573  : 		if( pItemElemWeapon->GetAbilityOption() != 10 )

  00212	83 7e 64 0a	 cmp	 DWORD PTR [esi+100], 10	; 0000000aH
  00216	74 0a		 je	 SHORT $LN11@TransWeapo
  00218	be 02 00 00 00	 mov	 esi, 2
  0021d	e9 45 04 00 00	 jmp	 $LN34@TransWeapo
$LN11@TransWeapo:

; 575  : 		nProb = m_nUni2UltiProb;

  00222	8b 85 64 fe ff
	ff		 mov	 eax, DWORD PTR _this$GSCopy$1$[ebp]
; File C:\Program Files\Microsoft Visual Studio\2022\Professional\VC\Tools\MSVC\14.44.35207\atlmfc\include\atlsimpstr.h

; 606  : 		SetString( pszSrc, StringLength( pszSrc ) );

  00228	8d 8d 70 fe ff
	ff		 lea	 ecx, DWORD PTR _strTemp$[ebp]
  0022e	6a 09		 push	 9
  00230	68 00 00 00 00	 push	 OFFSET ??_C@_09KCFJBJAO@ULTIMATE_@
; File C:\IAGOS\server\v18\Source\Source\_Common\UltimateWeapon.cpp

; 575  : 		nProb = m_nUni2UltiProb;

  00235	8b 40 38	 mov	 eax, DWORD PTR [eax+56]
  00238	89 85 68 fe ff
	ff		 mov	 DWORD PTR _nProb$1$[ebp], eax
; File C:\Program Files\Microsoft Visual Studio\2022\Professional\VC\Tools\MSVC\14.44.35207\atlmfc\include\atlsimpstr.h

; 606  : 		SetString( pszSrc, StringLength( pszSrc ) );

  0023e	e8 00 00 00 00	 call	 ?SetString@?$CSimpleStringT@D$0A@@ATL@@QAEXPBDH@Z ; ATL::CSimpleStringT<char,0>::SetString
$LN10@TransWeapo:
; File C:\IAGOS\server\v18\Source\Source\_Common\UltimateWeapon.cpp

; 580  : 	if( pItemElemWeapon->GetProp()->dwReferTarget2 != NULL_ID )

  00243	8b ce		 mov	 ecx, esi
  00245	e8 00 00 00 00	 call	 ?GetPropA@CItemElem@@QAEPAUItemProp@@XZ ; CItemElem::GetPropA
  0024a	83 b8 dc 01 00
	00 ff		 cmp	 DWORD PTR [eax+476], -1
  00251	74 13		 je	 SHORT $LN12@TransWeapo

; 581  : 		nProb = pItemElemWeapon->GetProp()->dwReferTarget2;

  00253	8b ce		 mov	 ecx, esi
  00255	e8 00 00 00 00	 call	 ?GetPropA@CItemElem@@QAEPAUItemProp@@XZ ; CItemElem::GetPropA
  0025a	8b 80 dc 01 00
	00		 mov	 eax, DWORD PTR [eax+476]
  00260	89 85 68 fe ff
	ff		 mov	 DWORD PTR _nProb$1$[ebp], eax
$LN12@TransWeapo:

; 582  : 	
; 583  : 	BOOL bSmelprot3	= FALSE;
; 584  : 	if( pUser->HasBuff( BUFF_ITEM, II_SYS_SYS_SCR_SMELPROT3 )
; 585  : 		&& pItemElemWeapon->GetProp()->dwReferStat1 == WEAPON_UNIQUE )

  00266	68 f8 28 00 00	 push	 10488			; 000028f8H
  0026b	6a 00		 push	 0
  0026d	8b cf		 mov	 ecx, edi
  0026f	c7 85 64 fe ff
	ff 00 00 00 00	 mov	 DWORD PTR _bSmelprot3$1$[ebp], 0
  00279	e8 00 00 00 00	 call	 ?HasBuff@CMover@@QAEHGG@Z ; CMover::HasBuff
  0027e	85 c0		 test	 eax, eax
  00280	74 7d		 je	 SHORT $LN14@TransWeapo
  00282	8b ce		 mov	 ecx, esi
  00284	e8 00 00 00 00	 call	 ?GetPropA@CItemElem@@QAEPAUItemProp@@XZ ; CItemElem::GetPropA
  00289	83 b8 d0 01 00
	00 01		 cmp	 DWORD PTR [eax+464], 1
  00290	75 6d		 jne	 SHORT $LN14@TransWeapo

; 586  : 	{
; 587  : 		bSmelprot3	= TRUE;
; 588  : 		pUser->RemoveBuff( BUFF_ITEM, II_SYS_SYS_SCR_SMELPROT3 );

  00292	68 f8 28 00 00	 push	 10488			; 000028f8H
  00297	6a 00		 push	 0
  00299	8b cf		 mov	 ecx, edi
  0029b	c7 85 64 fe ff
	ff 01 00 00 00	 mov	 DWORD PTR _bSmelprot3$1$[ebp], 1
  002a5	e8 00 00 00 00	 call	 ?RemoveBuff@CMover@@QAEXGG@Z ; CMover::RemoveBuff
; File C:\IAGOS\server\v18\Source\Source\_Common\Project.h

; 1389 : 	VERIFY_RANGE_ASSERT( nIndex, 0, m_aPropItem.GetSize(), "GetItemProp range_error", NULL );

  002aa	a1 40 02 00 00	 mov	 eax, DWORD PTR ?prj@@3VCProject@@A+576
  002af	3d f8 28 00 00	 cmp	 eax, 10488		; 000028f8H
  002b4	7f 1c		 jg	 SHORT $LN95@TransWeapo

; 579  : 	LPCTSTR szErr = Error( _T( "%s min:%d, max:%d, index:%d" ), szMsg, nMin, nMax, nIndex ); 

  002b6	68 f8 28 00 00	 push	 10488			; 000028f8H
  002bb	50		 push	 eax
  002bc	6a 00		 push	 0
  002be	68 00 00 00 00	 push	 OFFSET ??_C@_0BI@BEIFNGEL@GetItemProp?5range_error@
  002c3	68 00 00 00 00	 push	 OFFSET ??_C@_0BM@HMFGHCP@?$CFs?5min?3?$CFd?0?5max?3?$CFd?0?5index?3?$CFd@
  002c8	e8 00 00 00 00	 call	 ?Error@@YAPBDPBDZZ	; Error
  002cd	83 c4 14	 add	 esp, 20			; 00000014H

; 1389 : 	VERIFY_RANGE_ASSERT( nIndex, 0, m_aPropItem.GetSize(), "GetItemProp range_error", NULL );

  002d0	eb 2d		 jmp	 SHORT $LN14@TransWeapo
$LN95@TransWeapo:
; File C:\IAGOS\server\v18\Source\Source\_Common\data.h

; 270  : 	if( dwIndex >= (DWORD)m_nMaxIndex )

  002d2	77 04		 ja	 SHORT $LN104@TransWeapo

; 271  : 		return NULL;

  002d4	33 c0		 xor	 eax, eax
  002d6	eb 0b		 jmp	 SHORT $LN103@TransWeapo
$LN104@TransWeapo:

; 272  : 	return (T*) m_apOffset[ dwIndex ];

  002d8	a1 30 02 00 00	 mov	 eax, DWORD PTR ?prj@@3VCProject@@A+560
  002dd	8b 80 e0 a3 00
	00		 mov	 eax, DWORD PTR [eax+41952]
$LN103@TransWeapo:
; File C:\IAGOS\server\v18\Source\Source\_Common\UltimateWeapon.cpp

; 591  : 		if( pItemProp )

  002e3	85 c0		 test	 eax, eax
  002e5	74 18		 je	 SHORT $LN14@TransWeapo

; 592  : 			g_dpDBClient.SendLogSMItemUse( "2", pUser, NULL, pItemProp );

  002e7	68 00 00 00 00	 push	 OFFSET ??_C@_00CNPNBAHC@@
  002ec	50		 push	 eax
  002ed	6a 00		 push	 0
  002ef	57		 push	 edi
  002f0	68 00 00 00 00	 push	 OFFSET ??_C@_01FDFGLJHB@2@
  002f5	b9 00 00 00 00	 mov	 ecx, OFFSET ?g_dpDBClient@@3VCDPDatabaseClient@@A ; g_dpDBClient
  002fa	e8 00 00 00 00	 call	 ?SendLogSMItemUse@CDPDatabaseClient@@QAEXPBDPAVCUser@@PAVCItemElem@@PAUItemProp@@0@Z ; CDPDatabaseClient::SendLogSMItemUse
$LN14@TransWeapo:

; 593  : 	}
; 594  : 
; 595  : #ifdef __UPGRADE_SUCCESS_SCROLL
; 596  : 	if( pUser->HasBuffByIk3( IK3_ULTIMATE_UPGRADE_RATE ))

  002ff	68 a8 00 00 00	 push	 168			; 000000a8H
  00304	8b cf		 mov	 ecx, edi
  00306	e8 00 00 00 00	 call	 ?HasBuffByIk3@CMover@@QAEHK@Z ; CMover::HasBuffByIk3
  0030b	85 c0		 test	 eax, eax
  0030d	74 69		 je	 SHORT $LN18@TransWeapo

; 597  : 	{
; 598  : 		IBuff* pBuff = pUser->m_buffs.GetBuffByIk3( IK3_ULTIMATE_UPGRADE_RATE );

  0030f	68 a8 00 00 00	 push	 168			; 000000a8H
  00314	8d 8f ec 02 00
	00		 lea	 ecx, DWORD PTR [edi+748]
  0031a	e8 00 00 00 00	 call	 ?GetBuffByIk3@CBuffMgr@@QAEPAVIBuff@@K@Z ; CBuffMgr::GetBuffByIk3

; 599  : 		if( pBuff != NULL )

  0031f	85 c0		 test	 eax, eax
  00321	74 55		 je	 SHORT $LN18@TransWeapo

; 600  : 		{
; 601  : 			ItemProp *pItemProp = pBuff->GetProp();

  00323	8b 10		 mov	 edx, DWORD PTR [eax]
  00325	8b c8		 mov	 ecx, eax
  00327	ff 52 24	 call	 DWORD PTR [edx+36]
  0032a	8b d8		 mov	 ebx, eax

; 602  : 			if( pItemProp )

  0032c	85 db		 test	 ebx, ebx
  0032e	74 48		 je	 SHORT $LN18@TransWeapo

; 603  : 			{
; 604  : 				if( pItemElemWeapon->GetAbilityOption() >= pItemProp->nTargetMinEnchant && pItemElemWeapon->GetAbilityOption() <= pItemProp->nTargetMaxEnchant )

  00330	8b 46 64	 mov	 eax, DWORD PTR [esi+100]
  00333	3b 83 a0 02 00
	00		 cmp	 eax, DWORD PTR [ebx+672]
  00339	7c 3d		 jl	 SHORT $LN18@TransWeapo
  0033b	3b 83 a4 02 00
	00		 cmp	 eax, DWORD PTR [ebx+676]
  00341	7f 35		 jg	 SHORT $LN18@TransWeapo

; 605  : 				{
; 606  : 					nProb += ((WORD)pItemProp->nEffectValue * 100 );

  00343	0f b7 83 9c 02
	00 00		 movzx	 eax, WORD PTR [ebx+668]

; 607  : 					pUser->RemoveBuff( BUFF_ITEM,(WORD)pItemProp->dwID );

  0034a	8b cf		 mov	 ecx, edi
  0034c	6b c0 64	 imul	 eax, eax, 100
  0034f	01 85 68 fe ff
	ff		 add	 DWORD PTR _nProb$1$[ebp], eax
  00355	0f b7 03	 movzx	 eax, WORD PTR [ebx]
  00358	50		 push	 eax
  00359	6a 00		 push	 0
  0035b	e8 00 00 00 00	 call	 ?RemoveBuff@CMover@@QAEXGG@Z ; CMover::RemoveBuff

; 608  : 					g_dpDBClient.SendLogSMItemUse( "2", pUser, NULL, pItemProp );

  00360	68 00 00 00 00	 push	 OFFSET ??_C@_00CNPNBAHC@@
  00365	53		 push	 ebx
  00366	6a 00		 push	 0
  00368	57		 push	 edi
  00369	68 00 00 00 00	 push	 OFFSET ??_C@_01FDFGLJHB@2@
  0036e	b9 00 00 00 00	 mov	 ecx, OFFSET ?g_dpDBClient@@3VCDPDatabaseClient@@A ; g_dpDBClient
  00373	e8 00 00 00 00	 call	 ?SendLogSMItemUse@CDPDatabaseClient@@QAEXPBDPAVCUser@@PAVCItemElem@@PAUItemProp@@0@Z ; CDPDatabaseClient::SendLogSMItemUse
$LN18@TransWeapo:

; 609  : 				}
; 610  : 			}
; 611  : 		}
; 612  : 	}
; 613  : #endif // __UPGRADE_SUCCESS_SCROLL
; 614  : 
; 615  : 	LogItemInfo aLogItem;

  00378	8d 8d 28 ff ff
	ff		 lea	 ecx, DWORD PTR _aLogItem$[ebp]
  0037e	e8 00 00 00 00	 call	 ??0_LogItemInfo@@QAE@XZ	; _LogItemInfo::_LogItemInfo

; 616  : 	aLogItem.Action = "-";
; 617  : 	aLogItem.SendName = pUser->GetName();

  00383	6a 00		 push	 0
  00385	8b cf		 mov	 ecx, edi
  00387	c7 85 28 ff ff
	ff 00 00 00 00	 mov	 DWORD PTR _aLogItem$[ebp], OFFSET ??_C@_01JOAMLHOP@?9@
  00391	e8 00 00 00 00	 call	 ?GetName@CMover@@QAEPBDH@Z ; CMover::GetName
  00396	89 85 2c ff ff
	ff		 mov	 DWORD PTR _aLogItem$[ebp+4], eax

; 618  : 	strLog = strTemp + "TRANS";

  0039c	8d 85 70 fe ff
	ff		 lea	 eax, DWORD PTR _strTemp$[ebp]
  003a2	68 00 00 00 00	 push	 OFFSET ??_C@_05FDMLBJBD@TRANS@
  003a7	50		 push	 eax
  003a8	8d 85 6c fe ff
	ff		 lea	 eax, DWORD PTR $T2[ebp]
  003ae	50		 push	 eax
  003af	e8 00 00 00 00	 call	 ??HATL@@YA?AV?$CStringT@DV?$StrTraitMFC@DV?$ChTraitsCRT@D@ATL@@@@@0@ABV10@PBD@Z ; ATL::operator+
  003b4	83 c4 0c	 add	 esp, 12			; 0000000cH
  003b7	50		 push	 eax
  003b8	8d 8d 74 fe ff
	ff		 lea	 ecx, DWORD PTR _strLog$[ebp]
  003be	c6 45 fc 03	 mov	 BYTE PTR __$EHRec$[ebp+8], 3
  003c2	e8 00 00 00 00	 call	 ??4?$CStringT@DV?$StrTraitMFC@DV?$ChTraitsCRT@D@ATL@@@@@ATL@@QAEAAV01@ABV01@@Z ; ATL::CStringT<char,StrTraitMFC<char,ATL::ChTraitsCRT<char> > >::operator=
  003c7	8d 8d 6c fe ff
	ff		 lea	 ecx, DWORD PTR $T2[ebp]
  003cd	c6 45 fc 02	 mov	 BYTE PTR __$EHRec$[ebp+8], 2
  003d1	e8 00 00 00 00	 call	 ??1?$CStringT@DV?$StrTraitMFC@DV?$ChTraitsCRT@D@ATL@@@@@ATL@@QAE@XZ ; ATL::CStringT<char,StrTraitMFC<char,ATL::ChTraitsCRT<char> > >::~CStringT<char,StrTraitMFC<char,ATL::ChTraitsCRT<char> > >

; 619  : 	aLogItem.RecvName = (LPCTSTR)strLog;

  003d6	8b 85 74 fe ff
	ff		 mov	 eax, DWORD PTR _strLog$[ebp]

; 620  : 	aLogItem.WorldId = pUser->GetWorld()->GetID();
; 621  : 	aLogItem.Gold = aLogItem.Gold2 = pUser->GetGold();
; 622  : 	g_DPSrvr.OnLogItem( aLogItem, pItemElemGem1, 1 );

  003dc	b9 00 00 00 00	 mov	 ecx, OFFSET ?g_DPSrvr@@3VCDPSrvr@@A ; g_DPSrvr
  003e1	89 85 30 ff ff
	ff		 mov	 DWORD PTR _aLogItem$[ebp+8], eax
  003e7	8b 87 6c 01 00
	00		 mov	 eax, DWORD PTR [edi+364]
  003ed	6a 01		 push	 1
  003ef	ff b5 60 fe ff
	ff		 push	 DWORD PTR _pItemElemGem1$1$[ebp]
  003f5	8b 00		 mov	 eax, DWORD PTR [eax]
  003f7	89 85 34 ff ff
	ff		 mov	 DWORD PTR _aLogItem$[ebp+12], eax
  003fd	8b 87 e0 14 00
	00		 mov	 eax, DWORD PTR [edi+5344]
  00403	89 85 3c ff ff
	ff		 mov	 DWORD PTR _aLogItem$[ebp+20], eax
  00409	89 85 38 ff ff
	ff		 mov	 DWORD PTR _aLogItem$[ebp+16], eax
  0040f	8d 85 28 ff ff
	ff		 lea	 eax, DWORD PTR _aLogItem$[ebp]
  00415	50		 push	 eax
  00416	e8 00 00 00 00	 call	 ?OnLogItem@CDPSrvr@@QAEXAAU_LogItemInfo@@PAVCItemElem@@H@Z ; CDPSrvr::OnLogItem

; 623  : 	pUser->RemoveItem( (BYTE)( objGem1 ), 1 );

  0041b	6a 01		 push	 1
  0041d	ff b5 54 fe ff
	ff		 push	 DWORD PTR _objGem1$GSCopy$1$[ebp]
  00423	8b cf		 mov	 ecx, edi
  00425	e8 00 00 00 00	 call	 ?RemoveItem@CMover@@QAEXEF@Z ; CMover::RemoveItem

; 624  : 	g_DPSrvr.OnLogItem( aLogItem, pItemElemGem2, 1 );

  0042a	6a 01		 push	 1
  0042c	ff b5 5c fe ff
	ff		 push	 DWORD PTR _pItemElemGem2$1$[ebp]
  00432	8d 85 28 ff ff
	ff		 lea	 eax, DWORD PTR _aLogItem$[ebp]
  00438	b9 00 00 00 00	 mov	 ecx, OFFSET ?g_DPSrvr@@3VCDPSrvr@@A ; g_DPSrvr
  0043d	50		 push	 eax
  0043e	e8 00 00 00 00	 call	 ?OnLogItem@CDPSrvr@@QAEXAAU_LogItemInfo@@PAVCItemElem@@H@Z ; CDPSrvr::OnLogItem

; 625  : 	pUser->RemoveItem( (BYTE)( objGem2 ), 1 );

  00443	6a 01		 push	 1
  00445	ff b5 50 fe ff
	ff		 push	 DWORD PTR _objGem2$GSCopy$1$[ebp]
  0044b	8b cf		 mov	 ecx, edi
  0044d	e8 00 00 00 00	 call	 ?RemoveItem@CMover@@QAEXEF@Z ; CMover::RemoveItem
; File C:\IAGOS\server\v18\Source\Source\_Common\xUtil.h

; 16   : 	g_next = g_next * 1103515245 + 12345;// + nRandomSeed[ i++ ];

  00452	69 0d 00 00 00
	00 6d 4e c6 41	 imul	 ecx, DWORD PTR ?g_next@@3KA, 1103515245 ; g_next

; 22   : 	return  xRand() % num;

  0045c	b8 83 de 1b 43	 mov	 eax, 1125899907		; 431bde83H

; 16   : 	g_next = g_next * 1103515245 + 12345;// + nRandomSeed[ i++ ];

  00461	81 c1 39 30 00
	00		 add	 ecx, 12345		; 00003039H

; 22   : 	return  xRand() % num;

  00467	f7 e1		 mul	 ecx

; 16   : 	g_next = g_next * 1103515245 + 12345;// + nRandomSeed[ i++ ];

  00469	89 0d 00 00 00
	00		 mov	 DWORD PTR ?g_next@@3KA, ecx ; g_next

; 22   : 	return  xRand() % num;

  0046f	c1 ea 12	 shr	 edx, 18			; 00000012H
  00472	69 c2 40 42 0f
	00		 imul	 eax, edx, 1000000
  00478	2b c8		 sub	 ecx, eax
; File C:\IAGOS\server\v18\Source\Source\_Common\UltimateWeapon.cpp

; 628  : 	if( nRandom < nProb )

  0047a	3b 8d 68 fe ff
	ff		 cmp	 ecx, DWORD PTR _nProb$1$[ebp]
  00480	0f 8d 14 01 00
	00		 jge	 $LN19@TransWeapo

; 629  : 	{
; 630  : 		CItemElem CreateItem;

  00486	8d 8d 78 fe ff
	ff		 lea	 ecx, DWORD PTR _CreateItem$6[ebp]
  0048c	e8 00 00 00 00	 call	 ??0CItemElem@@QAE@XZ	; CItemElem::CItemElem

; 631  : 		CreateItem	= *pItemElemWeapon;

  00491	8b 85 78 fe ff
	ff		 mov	 eax, DWORD PTR _CreateItem$6[ebp]
  00497	8d 8d 78 fe ff
	ff		 lea	 ecx, DWORD PTR _CreateItem$6[ebp]
  0049d	56		 push	 esi
  0049e	c6 45 fc 04	 mov	 BYTE PTR __$EHRec$[ebp+8], 4
  004a2	ff 50 10	 call	 DWORD PTR [eax+16]

; 632  : 		CreateItem.m_dwItemId = pItemElemWeapon->GetProp()->dwReferTarget1;

  004a5	8b ce		 mov	 ecx, esi
  004a7	e8 00 00 00 00	 call	 ?GetPropA@CItemElem@@QAEPAUItemProp@@XZ ; CItemElem::GetPropA

; 633  : 		CreateItem.SetSerialNumber();

  004ac	8d 8d 78 fe ff
	ff		 lea	 ecx, DWORD PTR _CreateItem$6[ebp]
  004b2	8b 80 d8 01 00
	00		 mov	 eax, DWORD PTR [eax+472]
  004b8	89 85 84 fe ff
	ff		 mov	 DWORD PTR _CreateItem$6[ebp+12], eax
  004be	e8 00 00 00 00	 call	 ?SetSerialNumber@CItemBase@@QAEXXZ ; CItemBase::SetSerialNumber

; 634  : 
; 635  : 		if( pItemElemWeapon->GetProp()->dwReferStat1 == WEAPON_UNIQUE )

  004c3	8b ce		 mov	 ecx, esi
  004c5	e8 00 00 00 00	 call	 ?GetPropA@CItemElem@@QAEPAUItemProp@@XZ ; CItemElem::GetPropA
  004ca	83 b8 d0 01 00
	00 01		 cmp	 DWORD PTR [eax+464], 1
  004d1	75 0a		 jne	 SHORT $LN21@TransWeapo

; 636  : 			CreateItem.SetAbilityOption( 0 );

  004d3	c7 85 dc fe ff
	ff 00 00 00 00	 mov	 DWORD PTR _CreateItem$6[ebp+100], 0
$LN21@TransWeapo:

; 637  : 		
; 638  : 
; 639  : 		g_DPSrvr.OnLogItem( aLogItem, pItemElemWeapon, 1 );

  004dd	6a 01		 push	 1
  004df	56		 push	 esi
  004e0	8d 85 28 ff ff
	ff		 lea	 eax, DWORD PTR _aLogItem$[ebp]
  004e6	b9 00 00 00 00	 mov	 ecx, OFFSET ?g_DPSrvr@@3VCDPSrvr@@A ; g_DPSrvr
  004eb	50		 push	 eax
  004ec	e8 00 00 00 00	 call	 ?OnLogItem@CDPSrvr@@QAEXAAU_LogItemInfo@@PAVCItemElem@@H@Z ; CDPSrvr::OnLogItem

; 640  : 		pUser->RemoveItem( (BYTE)( objItem ), 1 );

  004f1	6a 01		 push	 1
  004f3	ff b5 58 fe ff
	ff		 push	 DWORD PTR _objItem$GSCopy$1$[ebp]
  004f9	8b cf		 mov	 ecx, edi
  004fb	e8 00 00 00 00	 call	 ?RemoveItem@CMover@@QAEXEF@Z ; CMover::RemoveItem

; 641  : 		if( pUser->CreateItem( &CreateItem ) )

  00500	6a 00		 push	 0
  00502	6a 00		 push	 0
  00504	6a 00		 push	 0
  00506	8d 85 78 fe ff
	ff		 lea	 eax, DWORD PTR _CreateItem$6[ebp]
  0050c	8b cf		 mov	 ecx, edi
  0050e	50		 push	 eax
  0050f	e8 00 00 00 00	 call	 ?CreateItem@CMover@@QAEHPAVCItemBase@@PAEPAFE@Z ; CMover::CreateItem
  00514	85 c0		 test	 eax, eax
  00516	74 72		 je	 SHORT $LN22@TransWeapo

; 642  : 		{
; 643  : 			//aLogItem.RecvName = "ULTIMATE_TRANS_SUCCESS";
; 644  : 			strLog = strTemp + "TRANS_SUCCESS";

  00518	68 00 00 00 00	 push	 OFFSET ??_C@_0O@MGHIGEAB@TRANS_SUCCESS@
  0051d	8d 85 70 fe ff
	ff		 lea	 eax, DWORD PTR _strTemp$[ebp]
  00523	50		 push	 eax
  00524	8d 85 6c fe ff
	ff		 lea	 eax, DWORD PTR $T3[ebp]
  0052a	50		 push	 eax
  0052b	e8 00 00 00 00	 call	 ??HATL@@YA?AV?$CStringT@DV?$StrTraitMFC@DV?$ChTraitsCRT@D@ATL@@@@@0@ABV10@PBD@Z ; ATL::operator+
  00530	83 c4 0c	 add	 esp, 12			; 0000000cH
  00533	50		 push	 eax
  00534	8d 8d 74 fe ff
	ff		 lea	 ecx, DWORD PTR _strLog$[ebp]
  0053a	c6 45 fc 05	 mov	 BYTE PTR __$EHRec$[ebp+8], 5
  0053e	e8 00 00 00 00	 call	 ??4?$CStringT@DV?$StrTraitMFC@DV?$ChTraitsCRT@D@ATL@@@@@ATL@@QAEAAV01@ABV01@@Z ; ATL::CStringT<char,StrTraitMFC<char,ATL::ChTraitsCRT<char> > >::operator=
  00543	8d 8d 6c fe ff
	ff		 lea	 ecx, DWORD PTR $T3[ebp]
  00549	c6 45 fc 04	 mov	 BYTE PTR __$EHRec$[ebp+8], 4
  0054d	e8 00 00 00 00	 call	 ??1?$CStringT@DV?$StrTraitMFC@DV?$ChTraitsCRT@D@ATL@@@@@ATL@@QAE@XZ ; ATL::CStringT<char,StrTraitMFC<char,ATL::ChTraitsCRT<char> > >::~CStringT<char,StrTraitMFC<char,ATL::ChTraitsCRT<char> > >

; 645  : 			aLogItem.RecvName = (LPCTSTR)strLog;

  00552	8b 85 74 fe ff
	ff		 mov	 eax, DWORD PTR _strLog$[ebp]

; 646  : 			g_DPSrvr.OnLogItem( aLogItem, &CreateItem, 1 );

  00558	b9 00 00 00 00	 mov	 ecx, OFFSET ?g_DPSrvr@@3VCDPSrvr@@A ; g_DPSrvr
  0055d	89 85 30 ff ff
	ff		 mov	 DWORD PTR _aLogItem$[ebp+8], eax
  00563	8d 85 78 fe ff
	ff		 lea	 eax, DWORD PTR _CreateItem$6[ebp]
  00569	6a 01		 push	 1
  0056b	50		 push	 eax
  0056c	8d 85 28 ff ff
	ff		 lea	 eax, DWORD PTR _aLogItem$[ebp]
  00572	50		 push	 eax
  00573	e8 00 00 00 00	 call	 ?OnLogItem@CDPSrvr@@QAEXAAU_LogItemInfo@@PAVCItemElem@@H@Z ; CDPSrvr::OnLogItem

; 647  : 			return ULTIMATE_SUCCESS;

  00578	8d 8d 78 fe ff
	ff		 lea	 ecx, DWORD PTR _CreateItem$6[ebp]
  0057e	e8 00 00 00 00	 call	 ??1CItemElem@@UAE@XZ	; CItemElem::~CItemElem
  00583	33 f6		 xor	 esi, esi
  00585	e9 dd 00 00 00	 jmp	 $LN34@TransWeapo
$LN22@TransWeapo:

; 648  : 		}
; 649  : 	}

  0058a	8d 8d 78 fe ff
	ff		 lea	 ecx, DWORD PTR _CreateItem$6[ebp]
  00590	e8 00 00 00 00	 call	 ??1CItemElem@@UAE@XZ	; CItemElem::~CItemElem
  00595	e9 c8 00 00 00	 jmp	 $LN24@TransWeapo
$LN19@TransWeapo:

; 650  : 	else //˝ÇĆĐ
; 651  : 	{
; 652  : 		if( !bSmelprot3 )

  0059a	83 bd 64 fe ff
	ff 00		 cmp	 DWORD PTR _bSmelprot3$1$[ebp], 0
  005a1	8d 85 70 fe ff
	ff		 lea	 eax, DWORD PTR _strTemp$[ebp]
  005a7	75 65		 jne	 SHORT $LN23@TransWeapo

; 653  : 		{
; 654  : 			//aLogItem.RecvName = "ULTIMATE_TRANS_FAILED";
; 655  : 			strLog = strTemp + "TRANS_FAILED";

  005a9	68 00 00 00 00	 push	 OFFSET ??_C@_0N@DMCOMMPB@TRANS_FAILED@
  005ae	50		 push	 eax
  005af	8d 85 6c fe ff
	ff		 lea	 eax, DWORD PTR $T4[ebp]
  005b5	50		 push	 eax
  005b6	e8 00 00 00 00	 call	 ??HATL@@YA?AV?$CStringT@DV?$StrTraitMFC@DV?$ChTraitsCRT@D@ATL@@@@@0@ABV10@PBD@Z ; ATL::operator+
  005bb	83 c4 0c	 add	 esp, 12			; 0000000cH
  005be	50		 push	 eax
  005bf	8d 8d 74 fe ff
	ff		 lea	 ecx, DWORD PTR _strLog$[ebp]
  005c5	c6 45 fc 06	 mov	 BYTE PTR __$EHRec$[ebp+8], 6
  005c9	e8 00 00 00 00	 call	 ??4?$CStringT@DV?$StrTraitMFC@DV?$ChTraitsCRT@D@ATL@@@@@ATL@@QAEAAV01@ABV01@@Z ; ATL::CStringT<char,StrTraitMFC<char,ATL::ChTraitsCRT<char> > >::operator=
  005ce	8d 8d 6c fe ff
	ff		 lea	 ecx, DWORD PTR $T4[ebp]
  005d4	c6 45 fc 02	 mov	 BYTE PTR __$EHRec$[ebp+8], 2
  005d8	e8 00 00 00 00	 call	 ??1?$CStringT@DV?$StrTraitMFC@DV?$ChTraitsCRT@D@ATL@@@@@ATL@@QAE@XZ ; ATL::CStringT<char,StrTraitMFC<char,ATL::ChTraitsCRT<char> > >::~CStringT<char,StrTraitMFC<char,ATL::ChTraitsCRT<char> > >

; 656  : 			aLogItem.RecvName = (LPCTSTR)strLog;

  005dd	8b 85 74 fe ff
	ff		 mov	 eax, DWORD PTR _strLog$[ebp]

; 657  : 			g_DPSrvr.OnLogItem( aLogItem, pItemElemWeapon, 1 );

  005e3	b9 00 00 00 00	 mov	 ecx, OFFSET ?g_DPSrvr@@3VCDPSrvr@@A ; g_DPSrvr
  005e8	6a 01		 push	 1
  005ea	89 85 30 ff ff
	ff		 mov	 DWORD PTR _aLogItem$[ebp+8], eax
  005f0	8d 85 28 ff ff
	ff		 lea	 eax, DWORD PTR _aLogItem$[ebp]
  005f6	56		 push	 esi
  005f7	50		 push	 eax
  005f8	e8 00 00 00 00	 call	 ?OnLogItem@CDPSrvr@@QAEXAAU_LogItemInfo@@PAVCItemElem@@H@Z ; CDPSrvr::OnLogItem

; 658  : 			pUser->RemoveItem( (BYTE)( objItem ), 1 );

  005fd	6a 01		 push	 1
  005ff	ff b5 58 fe ff
	ff		 push	 DWORD PTR _objItem$GSCopy$1$[ebp]
  00605	8b cf		 mov	 ecx, edi
  00607	e8 00 00 00 00	 call	 ?RemoveItem@CMover@@QAEXEF@Z ; CMover::RemoveItem

; 659  : 		}

  0060c	eb 54		 jmp	 SHORT $LN24@TransWeapo
$LN23@TransWeapo:

; 660  : 		else
; 661  : 		{
; 662  : 			//aLogItem.RecvName = "ULTIMATE_TRANS_PROTECT";
; 663  : 			strLog = strTemp + "TRANS_PROTECT";

  0060e	68 00 00 00 00	 push	 OFFSET ??_C@_0O@HLDFODDC@TRANS_PROTECT@
  00613	50		 push	 eax
  00614	8d 85 6c fe ff
	ff		 lea	 eax, DWORD PTR $T5[ebp]
  0061a	50		 push	 eax
  0061b	e8 00 00 00 00	 call	 ??HATL@@YA?AV?$CStringT@DV?$StrTraitMFC@DV?$ChTraitsCRT@D@ATL@@@@@0@ABV10@PBD@Z ; ATL::operator+
  00620	83 c4 0c	 add	 esp, 12			; 0000000cH
  00623	50		 push	 eax
  00624	8d 8d 74 fe ff
	ff		 lea	 ecx, DWORD PTR _strLog$[ebp]
  0062a	c6 45 fc 07	 mov	 BYTE PTR __$EHRec$[ebp+8], 7
  0062e	e8 00 00 00 00	 call	 ??4?$CStringT@DV?$StrTraitMFC@DV?$ChTraitsCRT@D@ATL@@@@@ATL@@QAEAAV01@ABV01@@Z ; ATL::CStringT<char,StrTraitMFC<char,ATL::ChTraitsCRT<char> > >::operator=
  00633	8d 8d 6c fe ff
	ff		 lea	 ecx, DWORD PTR $T5[ebp]
  00639	c6 45 fc 02	 mov	 BYTE PTR __$EHRec$[ebp+8], 2
  0063d	e8 00 00 00 00	 call	 ??1?$CStringT@DV?$StrTraitMFC@DV?$ChTraitsCRT@D@ATL@@@@@ATL@@QAE@XZ ; ATL::CStringT<char,StrTraitMFC<char,ATL::ChTraitsCRT<char> > >::~CStringT<char,StrTraitMFC<char,ATL::ChTraitsCRT<char> > >

; 664  : 			aLogItem.RecvName = (LPCTSTR)strLog;

  00642	8b 85 74 fe ff
	ff		 mov	 eax, DWORD PTR _strLog$[ebp]

; 665  : 			g_DPSrvr.OnLogItem( aLogItem, pItemElemWeapon );

  00648	b9 00 00 00 00	 mov	 ecx, OFFSET ?g_DPSrvr@@3VCDPSrvr@@A ; g_DPSrvr
  0064d	6a 00		 push	 0
  0064f	89 85 30 ff ff
	ff		 mov	 DWORD PTR _aLogItem$[ebp+8], eax
  00655	8d 85 28 ff ff
	ff		 lea	 eax, DWORD PTR _aLogItem$[ebp]
  0065b	56		 push	 esi
  0065c	50		 push	 eax
  0065d	e8 00 00 00 00	 call	 ?OnLogItem@CDPSrvr@@QAEXAAU_LogItemInfo@@PAVCItemElem@@H@Z ; CDPSrvr::OnLogItem
$LN24@TransWeapo:

; 666  : 		}
; 667  : 	}
; 668  : 	
; 669  : 	return ULTIMATE_FAILED;

  00662	be 01 00 00 00	 mov	 esi, 1
$LN34@TransWeapo:
  00667	8d 8d 74 fe ff
	ff		 lea	 ecx, DWORD PTR _strLog$[ebp]
  0066d	e8 00 00 00 00	 call	 ??1?$CStringT@DV?$StrTraitMFC@DV?$ChTraitsCRT@D@ATL@@@@@ATL@@QAE@XZ ; ATL::CStringT<char,StrTraitMFC<char,ATL::ChTraitsCRT<char> > >::~CStringT<char,StrTraitMFC<char,ATL::ChTraitsCRT<char> > >
  00672	8d 8d 70 fe ff
	ff		 lea	 ecx, DWORD PTR _strTemp$[ebp]
  00678	e8 00 00 00 00	 call	 ??1?$CStringT@DV?$StrTraitMFC@DV?$ChTraitsCRT@D@ATL@@@@@ATL@@QAE@XZ ; ATL::CStringT<char,StrTraitMFC<char,ATL::ChTraitsCRT<char> > >::~CStringT<char,StrTraitMFC<char,ATL::ChTraitsCRT<char> > >
  0067d	8b c6		 mov	 eax, esi
  0067f	e9 68 fa ff ff	 jmp	 $LN1@TransWeapo
$LN113@TransWeapo:
; File C:\Program Files\Microsoft Visual Studio\2022\Professional\VC\Tools\MSVC\14.44.35207\atlmfc\include\atlsimpstr.h

; 209  : 		ATLENSURE( pStringMgr != NULL );

  00684	68 05 40 00 80	 push	 -2147467259		; 80004005H
  00689	e8 00 00 00 00	 call	 ?AtlThrowImpl@ATL@@YGXJ@Z ; ATL::AtlThrowImpl
$LN114@TransWeapo:
  0068e	68 05 40 00 80	 push	 -2147467259		; 80004005H
  00693	e8 00 00 00 00	 call	 ?AtlThrowImpl@ATL@@YGXJ@Z ; ATL::AtlThrowImpl
$LN111@TransWeapo:
  00698	cc		 int	 3
_TEXT	ENDS
;	COMDAT text$x
text$x	SEGMENT
__unwindfunclet$?TransWeapon@CUltimateWeapon@@QAEHPAVCUser@@KKK@Z$7:
  00000	8d 8d 70 fe ff
	ff		 lea	 ecx, DWORD PTR _strTemp$[ebp]
  00006	e9 00 00 00 00	 jmp	 ??1?$CSimpleStringT@D$0A@@ATL@@QAE@XZ ; ATL::CSimpleStringT<char,0>::~CSimpleStringT<char,0>
__unwindfunclet$?TransWeapon@CUltimateWeapon@@QAEHPAVCUser@@KKK@Z$0:
  0000b	8d 8d 70 fe ff
	ff		 lea	 ecx, DWORD PTR _strTemp$[ebp]
  00011	e9 00 00 00 00	 jmp	 ??1?$CStringT@DV?$StrTraitMFC@DV?$ChTraitsCRT@D@ATL@@@@@ATL@@QAE@XZ ; ATL::CStringT<char,StrTraitMFC<char,ATL::ChTraitsCRT<char> > >::~CStringT<char,StrTraitMFC<char,ATL::ChTraitsCRT<char> > >
__unwindfunclet$?TransWeapon@CUltimateWeapon@@QAEHPAVCUser@@KKK@Z$1:
  00016	8d 8d 74 fe ff
	ff		 lea	 ecx, DWORD PTR _strLog$[ebp]
  0001c	e9 00 00 00 00	 jmp	 ??1?$CStringT@DV?$StrTraitMFC@DV?$ChTraitsCRT@D@ATL@@@@@ATL@@QAE@XZ ; ATL::CStringT<char,StrTraitMFC<char,ATL::ChTraitsCRT<char> > >::~CStringT<char,StrTraitMFC<char,ATL::ChTraitsCRT<char> > >
__unwindfunclet$?TransWeapon@CUltimateWeapon@@QAEHPAVCUser@@KKK@Z$2:
  00021	8d 8d 6c fe ff
	ff		 lea	 ecx, DWORD PTR $T2[ebp]
  00027	e9 00 00 00 00	 jmp	 ??1?$CStringT@DV?$StrTraitMFC@DV?$ChTraitsCRT@D@ATL@@@@@ATL@@QAE@XZ ; ATL::CStringT<char,StrTraitMFC<char,ATL::ChTraitsCRT<char> > >::~CStringT<char,StrTraitMFC<char,ATL::ChTraitsCRT<char> > >
__unwindfunclet$?TransWeapon@CUltimateWeapon@@QAEHPAVCUser@@KKK@Z$3:
  0002c	8d 8d 78 fe ff
	ff		 lea	 ecx, DWORD PTR _CreateItem$6[ebp]
  00032	e9 00 00 00 00	 jmp	 ??1CItemElem@@UAE@XZ	; CItemElem::~CItemElem
__unwindfunclet$?TransWeapon@CUltimateWeapon@@QAEHPAVCUser@@KKK@Z$4:
  00037	8d 8d 6c fe ff
	ff		 lea	 ecx, DWORD PTR $T3[ebp]
  0003d	e9 00 00 00 00	 jmp	 ??1?$CStringT@DV?$StrTraitMFC@DV?$ChTraitsCRT@D@ATL@@@@@ATL@@QAE@XZ ; ATL::CStringT<char,StrTraitMFC<char,ATL::ChTraitsCRT<char> > >::~CStringT<char,StrTraitMFC<char,ATL::ChTraitsCRT<char> > >
__unwindfunclet$?TransWeapon@CUltimateWeapon@@QAEHPAVCUser@@KKK@Z$5:
  00042	8d 8d 6c fe ff
	ff		 lea	 ecx, DWORD PTR $T4[ebp]
  00048	e9 00 00 00 00	 jmp	 ??1?$CStringT@DV?$StrTraitMFC@DV?$ChTraitsCRT@D@ATL@@@@@ATL@@QAE@XZ ; ATL::CStringT<char,StrTraitMFC<char,ATL::ChTraitsCRT<char> > >::~CStringT<char,StrTraitMFC<char,ATL::ChTraitsCRT<char> > >
__unwindfunclet$?TransWeapon@CUltimateWeapon@@QAEHPAVCUser@@KKK@Z$6:
  0004d	8d 8d 6c fe ff
	ff		 lea	 ecx, DWORD PTR $T5[ebp]
  00053	e9 00 00 00 00	 jmp	 ??1?$CStringT@DV?$StrTraitMFC@DV?$ChTraitsCRT@D@ATL@@@@@ATL@@QAE@XZ ; ATL::CStringT<char,StrTraitMFC<char,ATL::ChTraitsCRT<char> > >::~CStringT<char,StrTraitMFC<char,ATL::ChTraitsCRT<char> > >
  00058	cc		 int	 3
  00059	cc		 int	 3
  0005a	cc		 int	 3
  0005b	cc		 int	 3
  0005c	cc		 int	 3
__ehhandler$?TransWeapon@CUltimateWeapon@@QAEHPAVCUser@@KKK@Z:
  0005d	90		 npad	 1
  0005e	90		 npad	 1
  0005f	8b 54 24 08	 mov	 edx, DWORD PTR [esp+8]
  00063	8d 42 0c	 lea	 eax, DWORD PTR [edx+12]
  00066	8b 8a 4c fe ff
	ff		 mov	 ecx, DWORD PTR [edx-436]
  0006c	33 c8		 xor	 ecx, eax
  0006e	e8 00 00 00 00	 call	 @__security_check_cookie@4
  00073	8b 4a fc	 mov	 ecx, DWORD PTR [edx-4]
  00076	33 c8		 xor	 ecx, eax
  00078	e8 00 00 00 00	 call	 @__security_check_cookie@4
  0007d	b8 00 00 00 00	 mov	 eax, OFFSET __ehfuncinfo$?TransWeapon@CUltimateWeapon@@QAEHPAVCUser@@KKK@Z
  00082	e9 00 00 00 00	 jmp	 ___CxxFrameHandler3
text$x	ENDS
?TransWeapon@CUltimateWeapon@@QAEHPAVCUser@@KKK@Z ENDP	; CUltimateWeapon::TransWeapon
; Function compile flags: /Ogtp
; File C:\IAGOS\server\v18\Source\Source\_Common\UltimateWeapon.cpp
; File C:\Program Files\Microsoft Visual Studio\2022\Professional\VC\Tools\MSVC\14.44.35207\include\xmemory
; File C:\IAGOS\server\v18\Source\Source\_Common\UltimateWeapon.cpp
; File C:\Program Files\Microsoft Visual Studio\2022\Professional\VC\Tools\MSVC\14.44.35207\include\xtree
; File C:\Program Files\Microsoft Visual Studio\2022\Professional\VC\Tools\MSVC\14.44.35207\include\xmemory
; File C:\Program Files\Microsoft Visual Studio\2022\Professional\VC\Tools\MSVC\14.44.35207\include\xtree
; File C:\Program Files\Microsoft Visual Studio\2022\Professional\VC\Tools\MSVC\14.44.35207\include\xmemory
; File C:\IAGOS\server\v18\Source\Source\_Common\UltimateWeapon.cpp
; File C:\Program Files\Microsoft Visual Studio\2022\Professional\VC\Tools\MSVC\14.44.35207\include\xtree
; File C:\Program Files\Microsoft Visual Studio\2022\Professional\VC\Tools\MSVC\14.44.35207\include\xmemory
; File C:\Program Files\Microsoft Visual Studio\2022\Professional\VC\Tools\MSVC\14.44.35207\include\xtree
; File C:\IAGOS\server\v18\Source\Source\_Common\UltimateWeapon.cpp
; File C:\Program Files\Microsoft Visual Studio\2022\Professional\VC\Tools\MSVC\14.44.35207\include\xtree
; File C:\Program Files\Microsoft Visual Studio\2022\Professional\VC\Tools\MSVC\14.44.35207\include\type_traits
; File C:\Program Files\Microsoft Visual Studio\2022\Professional\VC\Tools\MSVC\14.44.35207\include\xtree
; File C:\IAGOS\server\v18\Source\Source\_Common\UltimateWeapon.cpp
; File C:\Program Files\Microsoft Visual Studio\2022\Professional\VC\Tools\MSVC\14.44.35207\include\utility
; File C:\Program Files\Microsoft Visual Studio\2022\Professional\VC\Tools\MSVC\14.44.35207\include\xtree
; File C:\Program Files\Microsoft Visual Studio\2022\Professional\VC\Tools\MSVC\14.44.35207\include\utility
; File C:\Program Files\Microsoft Visual Studio\2022\Professional\VC\Tools\MSVC\14.44.35207\include\xtree
; File C:\Program Files\Microsoft Visual Studio\2022\Professional\VC\Tools\MSVC\14.44.35207\include\utility
; File C:\Program Files\Microsoft Visual Studio\2022\Professional\VC\Tools\MSVC\14.44.35207\include\xtree
; File C:\Program Files\Microsoft Visual Studio\2022\Professional\VC\Tools\MSVC\14.44.35207\include\type_traits
; File C:\Program Files\Microsoft Visual Studio\2022\Professional\VC\Tools\MSVC\14.44.35207\include\xtree
; File C:\Program Files\Microsoft Visual Studio\2022\Professional\VC\Tools\MSVC\14.44.35207\include\xmemory
; File C:\Program Files\Microsoft Visual Studio\2022\Professional\VC\Tools\MSVC\14.44.35207\include\xtree
; File C:\Program Files\Microsoft Visual Studio\2022\Professional\VC\Tools\MSVC\14.44.35207\include\xmemory
; File C:\Program Files\Microsoft Visual Studio\2022\Professional\VC\Tools\MSVC\14.44.35207\include\xtree
; File C:\Program Files\Microsoft Visual Studio\2022\Professional\VC\Tools\MSVC\14.44.35207\include\xmemory
; File C:\Program Files\Microsoft Visual Studio\2022\Professional\VC\Tools\MSVC\14.44.35207\include\xtree
; File C:\Program Files\Microsoft Visual Studio\2022\Professional\VC\Tools\MSVC\14.44.35207\include\utility
; File C:\Program Files\Microsoft Visual Studio\2022\Professional\VC\Tools\MSVC\14.44.35207\include\xtree
; File C:\Program Files\Microsoft Visual Studio\2022\Professional\VC\Tools\MSVC\14.44.35207\include\type_traits
; File C:\Program Files\Microsoft Visual Studio\2022\Professional\VC\Tools\MSVC\14.44.35207\include\xtree
; File C:\IAGOS\server\v18\Source\Source\_Common\UltimateWeapon.cpp
; File C:\Program Files\Microsoft Visual Studio\2022\Professional\VC\Tools\MSVC\14.44.35207\include\utility
; File C:\Program Files\Microsoft Visual Studio\2022\Professional\VC\Tools\MSVC\14.44.35207\include\xtree
; File C:\Program Files\Microsoft Visual Studio\2022\Professional\VC\Tools\MSVC\14.44.35207\include\utility
; File C:\Program Files\Microsoft Visual Studio\2022\Professional\VC\Tools\MSVC\14.44.35207\include\xtree
; File C:\Program Files\Microsoft Visual Studio\2022\Professional\VC\Tools\MSVC\14.44.35207\include\utility
; File C:\Program Files\Microsoft Visual Studio\2022\Professional\VC\Tools\MSVC\14.44.35207\include\xtree
; File C:\Program Files\Microsoft Visual Studio\2022\Professional\VC\Tools\MSVC\14.44.35207\include\type_traits
; File C:\Program Files\Microsoft Visual Studio\2022\Professional\VC\Tools\MSVC\14.44.35207\include\xtree
; File C:\Program Files\Microsoft Visual Studio\2022\Professional\VC\Tools\MSVC\14.44.35207\include\xmemory
; File C:\Program Files\Microsoft Visual Studio\2022\Professional\VC\Tools\MSVC\14.44.35207\include\xtree
; File C:\Program Files\Microsoft Visual Studio\2022\Professional\VC\Tools\MSVC\14.44.35207\include\xmemory
; File C:\Program Files\Microsoft Visual Studio\2022\Professional\VC\Tools\MSVC\14.44.35207\include\xtree
; File C:\Program Files\Microsoft Visual Studio\2022\Professional\VC\Tools\MSVC\14.44.35207\include\xmemory
; File C:\Program Files\Microsoft Visual Studio\2022\Professional\VC\Tools\MSVC\14.44.35207\include\xtree
; File C:\Program Files\Microsoft Visual Studio\2022\Professional\VC\Tools\MSVC\14.44.35207\include\utility
; File C:\Program Files\Microsoft Visual Studio\2022\Professional\VC\Tools\MSVC\14.44.35207\include\xtree
; File C:\IAGOS\server\v18\Source\Source\_Common\UltimateWeapon.cpp
; File C:\Program Files\Microsoft Visual Studio\2022\Professional\VC\Tools\MSVC\14.44.35207\include\xtree
; File C:\IAGOS\server\v18\Source\Source\_Common\UltimateWeapon.cpp
; File C:\Program Files\Microsoft Visual Studio\2022\Professional\VC\Tools\MSVC\14.44.35207\include\xtree
; File C:\IAGOS\server\v18\Source\Source\_Common\UltimateWeapon.cpp
; File C:\IAGOS\server\v18\Source\Source\_Common\Item.h
; File C:\IAGOS\server\v18\Source\Source\_Common\Project.h
; File C:\IAGOS\server\v18\Source\Source\_Common\data.h
; File C:\IAGOS\server\v18\Source\Source\_Common\Project.h
; File C:\IAGOS\server\v18\Source\Source\_Common\UltimateWeapon.cpp
; File C:\IAGOS\server\v18\Source\Source\_Common\Item.h
; File C:\IAGOS\server\v18\Source\Source\_Common\Project.h
; File C:\IAGOS\server\v18\Source\Source\_Common\data.h
; File C:\IAGOS\server\v18\Source\Source\_Common\Project.h
; File C:\IAGOS\server\v18\Source\Source\_Common\UltimateWeapon.cpp
; File C:\Program Files\Microsoft Visual Studio\2022\Professional\VC\Tools\MSVC\14.44.35207\include\xtree
; File C:\IAGOS\server\v18\Source\Source\_Common\UltimateWeapon.cpp
; File C:\Program Files\Microsoft Visual Studio\2022\Professional\VC\Tools\MSVC\14.44.35207\include\xtree
; File C:\IAGOS\server\v18\Source\Source\_Common\UltimateWeapon.cpp
; File C:\Program Files\Microsoft Visual Studio\2022\Professional\VC\Tools\MSVC\14.44.35207\include\xtree
; File C:\IAGOS\server\v18\Source\Source\_Common\UltimateWeapon.cpp
; File C:\Program Files\Microsoft Visual Studio\2022\Professional\VC\Tools\MSVC\14.44.35207\include\xtree
; File C:\IAGOS\server\v18\Source\Source\_Common\UltimateWeapon.cpp
; File C:\IAGOS\server\v18\Source\Source\_Common\Item.h
; File C:\IAGOS\server\v18\Source\Source\_Common\Project.h
; File C:\IAGOS\server\v18\Source\Source\_Common\data.h
; File C:\IAGOS\server\v18\Source\Source\_Common\Project.h
; File C:\IAGOS\server\v18\Source\Source\_Common\UltimateWeapon.cpp
; File C:\IAGOS\server\v18\Source\Source\_Common\Item.h
; File C:\IAGOS\server\v18\Source\Source\_Common\Project.h
; File C:\IAGOS\server\v18\Source\Source\_Common\data.h
; File C:\IAGOS\server\v18\Source\Source\_Common\Project.h
; File C:\IAGOS\server\v18\Source\Source\_Common\UltimateWeapon.cpp
; File C:\Program Files\Microsoft Visual Studio\2022\Professional\VC\Tools\MSVC\14.44.35207\include\xtree
; File C:\IAGOS\server\v18\Source\Source\_Common\UltimateWeapon.cpp
; File C:\Program Files\Microsoft Visual Studio\2022\Professional\VC\Tools\MSVC\14.44.35207\include\xtree
; File C:\IAGOS\server\v18\Source\Source\_Common\UltimateWeapon.cpp
; File C:\IAGOS\server\v18\Source\Source\_Common\Project.h
; File C:\IAGOS\server\v18\Source\Source\_Common\UltimateWeapon.cpp
; File C:\IAGOS\server\v18\Source\Source\_Common\Project.h
; File C:\IAGOS\server\v18\Source\Source\_Common\data.h
; File C:\IAGOS\server\v18\Source\Source\_Common\UltimateWeapon.cpp
; File C:\IAGOS\server\v18\Source\Source\_Common\data.h
; File C:\IAGOS\server\v18\Source\Source\_Common\UltimateWeapon.cpp
; File C:\Program Files\Microsoft Visual Studio\2022\Professional\VC\Tools\MSVC\14.44.35207\include\xtree
; File C:\IAGOS\server\v18\Source\Source\_Common\UltimateWeapon.cpp
; File C:\Program Files\Microsoft Visual Studio\2022\Professional\VC\Tools\MSVC\14.44.35207\include\xtree
; File C:\IAGOS\server\v18\Source\Source\_Common\UltimateWeapon.cpp
; File C:\Program Files\Microsoft Visual Studio\2022\Professional\VC\Tools\MSVC\14.44.35207\include\xtree
; File C:\IAGOS\server\v18\Source\Source\_Common\UltimateWeapon.cpp
; File C:\Program Files\Microsoft Visual Studio\2022\Professional\VC\Tools\MSVC\14.44.35207\include\xtree
; File C:\IAGOS\server\v18\Source\Source\_Common\UltimateWeapon.cpp
; File C:\IAGOS\server\v18\Source\Source\_Common\Project.h
; File C:\IAGOS\server\v18\Source\Source\_Common\UltimateWeapon.cpp
; File C:\Program Files\Microsoft Visual Studio\2022\Professional\VC\Tools\MSVC\14.44.35207\include\xtree
; File C:\IAGOS\server\v18\Source\Source\_Common\UltimateWeapon.cpp
;	COMDAT ?MakeItem@CUltimateWeapon@@QAEHPAVCUser@@PAK@Z
_TEXT	SEGMENT
$T2 = -696						; size = 12
$T3 = -684						; size = 12
__Loc$4 = -672						; size = 12
__Loc$5 = -660						; size = 12
__Loc$6 = -648						; size = 12
__Loc$7 = -636						; size = 12
$T8 = -624						; size = 8
$T9 = -616						; size = 8
$T10 = -608						; size = 8
$T11 = -600						; size = 8
tv3304 = -596						; size = 4
tv3305 = -596						; size = 4
_pUser$GSCopy$1$ = -592					; size = 4
_mapObjId1$ = -588					; size = 8
_mapObjId2$ = -580					; size = 8
_it$12 = -572						; size = 4
_it$13 = -572						; size = 4
_it$14 = -572						; size = 4
_it$15 = -572						; size = 4
$T16 = -572						; size = 4
$T17 = -572						; size = 4
_aLogItem$ = -568					; size = 200
_itemElemTemp$ = -368					; size = 176
_itemElem$ = -192					; size = 176
__$ArrayPad$ = -16					; size = 4
__$EHRec$ = -12						; size = 12
_pUser$ = 8						; size = 4
_objItemId$ = 12					; size = 4
?MakeItem@CUltimateWeapon@@QAEHPAVCUser@@PAK@Z PROC	; CUltimateWeapon::MakeItem, COMDAT
; _this$ = ecx

; 421  : {

  00000	55		 push	 ebp
  00001	8b ec		 mov	 ebp, esp
  00003	6a ff		 push	 -1
  00005	68 00 00 00 00	 push	 __ehhandler$?MakeItem@CUltimateWeapon@@QAEHPAVCUser@@PAK@Z
  0000a	64 a1 00 00 00
	00		 mov	 eax, DWORD PTR fs:0
  00010	50		 push	 eax
  00011	81 ec ac 02 00
	00		 sub	 esp, 684		; 000002acH
  00017	a1 00 00 00 00	 mov	 eax, DWORD PTR ___security_cookie
  0001c	33 c5		 xor	 eax, ebp
  0001e	89 45 f0	 mov	 DWORD PTR __$ArrayPad$[ebp], eax
  00021	53		 push	 ebx
  00022	56		 push	 esi
  00023	57		 push	 edi
  00024	50		 push	 eax
  00025	8d 45 f4	 lea	 eax, DWORD PTR __$EHRec$[ebp]
  00028	64 a3 00 00 00
	00		 mov	 DWORD PTR fs:0, eax
  0002e	8b 45 08	 mov	 eax, DWORD PTR _pUser$[ebp]
; File C:\Program Files\Microsoft Visual Studio\2022\Professional\VC\Tools\MSVC\14.44.35207\include\xmemory

; 136  :         return ::operator new(_Bytes);

  00031	6a 18		 push	 24			; 00000018H
; File C:\IAGOS\server\v18\Source\Source\_Common\UltimateWeapon.cpp

; 421  : {

  00033	89 85 b0 fd ff
	ff		 mov	 DWORD PTR _pUser$GSCopy$1$[ebp], eax
; File C:\Program Files\Microsoft Visual Studio\2022\Professional\VC\Tools\MSVC\14.44.35207\include\xtree

; 450  :     _Tree_val() noexcept : _Myhead(), _Mysize(0) {}

  00039	c7 85 b4 fd ff
	ff 00 00 00 00	 mov	 DWORD PTR _mapObjId1$[ebp], 0
  00043	c7 85 b8 fd ff
	ff 00 00 00 00	 mov	 DWORD PTR _mapObjId1$[ebp+4], 0
; File C:\Program Files\Microsoft Visual Studio\2022\Professional\VC\Tools\MSVC\14.44.35207\include\xmemory

; 136  :         return ::operator new(_Bytes);

  0004d	e8 00 00 00 00	 call	 ??2@YAPAXI@Z		; operator new
; File C:\Program Files\Microsoft Visual Studio\2022\Professional\VC\Tools\MSVC\14.44.35207\include\xtree

; 346  :         _Construct_in_place(_Pnode->_Left, _Pnode);

  00052	89 00		 mov	 DWORD PTR [eax], eax

; 347  :         _Construct_in_place(_Pnode->_Parent, _Pnode);

  00054	89 40 04	 mov	 DWORD PTR [eax+4], eax

; 348  :         _Construct_in_place(_Pnode->_Right, _Pnode);

  00057	89 40 08	 mov	 DWORD PTR [eax+8], eax

; 349  :         _Pnode->_Color = _Black;

  0005a	66 c7 40 0c 01
	01		 mov	 WORD PTR [eax+12], 257	; 00000101H

; 1957 :         _Scary->_Myhead = _Node::_Buyheadnode(_Getal());

  00060	89 85 b4 fd ff
	ff		 mov	 DWORD PTR _mapObjId1$[ebp], eax
; File C:\Program Files\Microsoft Visual Studio\2022\Professional\VC\Tools\MSVC\14.44.35207\include\xmemory

; 136  :         return ::operator new(_Bytes);

  00066	6a 18		 push	 24			; 00000018H
; File C:\IAGOS\server\v18\Source\Source\_Common\UltimateWeapon.cpp

; 422  : 	map<OBJID, int> mapObjId1;

  00068	c7 45 fc 00 00
	00 00		 mov	 DWORD PTR __$EHRec$[ebp+8], 0
; File C:\Program Files\Microsoft Visual Studio\2022\Professional\VC\Tools\MSVC\14.44.35207\include\xtree

; 450  :     _Tree_val() noexcept : _Myhead(), _Mysize(0) {}

  0006f	c7 85 bc fd ff
	ff 00 00 00 00	 mov	 DWORD PTR _mapObjId2$[ebp], 0
  00079	c7 85 c0 fd ff
	ff 00 00 00 00	 mov	 DWORD PTR _mapObjId2$[ebp+4], 0
; File C:\Program Files\Microsoft Visual Studio\2022\Professional\VC\Tools\MSVC\14.44.35207\include\xmemory

; 136  :         return ::operator new(_Bytes);

  00083	e8 00 00 00 00	 call	 ??2@YAPAXI@Z		; operator new
  00088	83 c4 08	 add	 esp, 8
; File C:\Program Files\Microsoft Visual Studio\2022\Professional\VC\Tools\MSVC\14.44.35207\include\xtree

; 346  :         _Construct_in_place(_Pnode->_Left, _Pnode);

  0008b	89 00		 mov	 DWORD PTR [eax], eax

; 347  :         _Construct_in_place(_Pnode->_Parent, _Pnode);

  0008d	89 40 04	 mov	 DWORD PTR [eax+4], eax

; 348  :         _Construct_in_place(_Pnode->_Right, _Pnode);

  00090	89 40 08	 mov	 DWORD PTR [eax+8], eax

; 349  :         _Pnode->_Color = _Black;

  00093	66 c7 40 0c 01
	01		 mov	 WORD PTR [eax+12], 257	; 00000101H

; 1957 :         _Scary->_Myhead = _Node::_Buyheadnode(_Getal());

  00099	89 85 bc fd ff
	ff		 mov	 DWORD PTR _mapObjId2$[ebp], eax
; File C:\IAGOS\server\v18\Source\Source\_Common\UltimateWeapon.cpp

; 423  : 	map<OBJID, int> mapObjId2;

  0009f	8b 7d 0c	 mov	 edi, DWORD PTR _objItemId$[ebp]

; 424  : 	for( int i=0; i<5; i++ )

  000a2	33 db		 xor	 ebx, ebx
  000a4	c6 45 fc 01	 mov	 BYTE PTR __$EHRec$[ebp+8], 1
$LL4@MakeItem:
; File C:\Program Files\Microsoft Visual Studio\2022\Professional\VC\Tools\MSVC\14.44.35207\include\xtree

; 1384 :         const _Tree_find_result<_Nodeptr> _Loc = _Find_lower_bound(_Keyval);

  000a8	57		 push	 edi
  000a9	8d 85 6c fd ff
	ff		 lea	 eax, DWORD PTR __Loc$5[ebp]
  000af	50		 push	 eax
  000b0	8d 8d b4 fd ff
	ff		 lea	 ecx, DWORD PTR _mapObjId1$[ebp]
  000b6	e8 00 00 00 00	 call	 ??$_Find_lower_bound@K@?$_Tree@V?$_Tmap_traits@KHU?$less@K@std@@V?$allocator@U?$pair@$$CBKH@std@@@2@$0A@@std@@@std@@IBE?AU?$_Tree_find_result@PAU?$_Tree_node@U?$pair@$$CBKH@std@@PAX@std@@@1@ABK@Z ; std::_Tree<std::_Tmap_traits<unsigned long,int,std::less<unsigned long>,std::allocator<std::pair<unsigned long const ,int> >,0> >::_Find_lower_bound<unsigned long>

; 1624 :         return !_Bound->_Isnil && !_DEBUG_LT_PRED(_Getcomp(), _Keyval, _Traits::_Kfn(_Bound->_Myval));

  000bb	8b 8d 74 fd ff
	ff		 mov	 ecx, DWORD PTR __Loc$5[ebp+8]
  000c1	80 79 0d 00	 cmp	 BYTE PTR [ecx+13], 0
  000c5	75 07		 jne	 SHORT $LN445@MakeItem
; File C:\Program Files\Microsoft Visual Studio\2022\Professional\VC\Tools\MSVC\14.44.35207\include\type_traits

; 2380 :         return _Left < _Right;

  000c7	8b 07		 mov	 eax, DWORD PTR [edi]
  000c9	3b 41 10	 cmp	 eax, DWORD PTR [ecx+16]
; File C:\Program Files\Microsoft Visual Studio\2022\Professional\VC\Tools\MSVC\14.44.35207\include\xtree

; 1624 :         return !_Bound->_Isnil && !_DEBUG_LT_PRED(_Getcomp(), _Keyval, _Traits::_Kfn(_Bound->_Myval));

  000cc	73 06		 jae	 SHORT $LN444@MakeItem
$LN445@MakeItem:

; 1389 :         return _Get_scary()->_Myhead;

  000ce	8b 8d b4 fd ff
	ff		 mov	 ecx, DWORD PTR _mapObjId1$[ebp]
$LN444@MakeItem:

; 232  :         return this->_Ptr == _Right._Ptr;

  000d4	3b 8d b4 fd ff
	ff		 cmp	 ecx, DWORD PTR _mapObjId1$[ebp]
; File C:\IAGOS\server\v18\Source\Source\_Common\UltimateWeapon.cpp

; 427  : 		if( *it != mapObjId1.end() )

  000da	74 08		 je	 SHORT $LN17@MakeItem

; 428  : 			++(*it)->second;

  000dc	ff 41 14	 inc	 DWORD PTR [ecx+20]
  000df	e9 c9 00 00 00	 jmp	 $LN669@MakeItem
$LN17@MakeItem:
; File C:\Program Files\Microsoft Visual Studio\2022\Professional\VC\Tools\MSVC\14.44.35207\include\utility

; 274  :         : first(_STD forward<_Other1>(_Val1)), second(_STD forward<_Other2>(_Val2)) {

  000e4	8b 37		 mov	 esi, DWORD PTR [edi]
; File C:\Program Files\Microsoft Visual Studio\2022\Professional\VC\Tools\MSVC\14.44.35207\include\xtree

; 1017 :             _Loc                = _Find_lower_bound(_Keyval);

  000e6	8d 85 a8 fd ff
	ff		 lea	 eax, DWORD PTR $T11[ebp]
  000ec	50		 push	 eax
  000ed	8d 85 54 fd ff
	ff		 lea	 eax, DWORD PTR $T3[ebp]
; File C:\Program Files\Microsoft Visual Studio\2022\Professional\VC\Tools\MSVC\14.44.35207\include\utility

; 274  :         : first(_STD forward<_Other1>(_Val1)), second(_STD forward<_Other2>(_Val2)) {

  000f3	89 b5 c4 fd ff
	ff		 mov	 DWORD PTR $T16[ebp], esi
; File C:\Program Files\Microsoft Visual Studio\2022\Professional\VC\Tools\MSVC\14.44.35207\include\xtree

; 1017 :             _Loc                = _Find_lower_bound(_Keyval);

  000f9	50		 push	 eax
  000fa	8d 8d b4 fd ff
	ff		 lea	 ecx, DWORD PTR _mapObjId1$[ebp]
; File C:\Program Files\Microsoft Visual Studio\2022\Professional\VC\Tools\MSVC\14.44.35207\include\utility

; 274  :         : first(_STD forward<_Other1>(_Val1)), second(_STD forward<_Other2>(_Val2)) {

  00100	89 b5 a8 fd ff
	ff		 mov	 DWORD PTR $T11[ebp], esi
  00106	c7 85 ac fd ff
	ff 01 00 00 00	 mov	 DWORD PTR $T11[ebp+4], 1
; File C:\Program Files\Microsoft Visual Studio\2022\Professional\VC\Tools\MSVC\14.44.35207\include\xtree

; 1017 :             _Loc                = _Find_lower_bound(_Keyval);

  00110	e8 00 00 00 00	 call	 ??$_Find_lower_bound@K@?$_Tree@V?$_Tmap_traits@KHU?$less@K@std@@V?$allocator@U?$pair@$$CBKH@std@@@2@$0A@@std@@@std@@IBE?AU?$_Tree_find_result@PAU?$_Tree_node@U?$pair@$$CBKH@std@@PAX@std@@@1@ABK@Z ; std::_Tree<std::_Tmap_traits<unsigned long,int,std::less<unsigned long>,std::allocator<std::pair<unsigned long const ,int> >,0> >::_Find_lower_bound<unsigned long>
  00115	f3 0f 7e 00	 movq	 xmm0, QWORD PTR [eax]
  00119	8b 40 08	 mov	 eax, DWORD PTR [eax+8]
  0011c	66 0f d6 85 84
	fd ff ff	 movq	 QWORD PTR __Loc$7[ebp], xmm0

; 1624 :         return !_Bound->_Isnil && !_DEBUG_LT_PRED(_Getcomp(), _Keyval, _Traits::_Kfn(_Bound->_Myval));

  00124	80 78 0d 00	 cmp	 BYTE PTR [eax+13], 0
  00128	75 05		 jne	 SHORT $LN594@MakeItem
; File C:\Program Files\Microsoft Visual Studio\2022\Professional\VC\Tools\MSVC\14.44.35207\include\type_traits

; 2380 :         return _Left < _Right;

  0012a	3b 70 10	 cmp	 esi, DWORD PTR [eax+16]
; File C:\Program Files\Microsoft Visual Studio\2022\Professional\VC\Tools\MSVC\14.44.35207\include\xtree

; 1624 :         return !_Bound->_Isnil && !_DEBUG_LT_PRED(_Getcomp(), _Keyval, _Traits::_Kfn(_Bound->_Myval));

  0012d	73 7e		 jae	 SHORT $LN669@MakeItem
$LN594@MakeItem:

; 1648 :         if (max_size() == _Get_scary()->_Mysize) {

  0012f	81 bd b8 fd ff
	ff aa aa aa 0a	 cmp	 DWORD PTR _mapObjId1$[ebp+4], 178956970 ; 0aaaaaaaH
  00139	0f 84 fb 05 00
	00		 je	 $LN861@MakeItem

; 1023 :             _Inserted = _Tree_temp_node<_Alnode>(_Getal(), _Scary->_Myhead, _STD forward<_Valtys>(_Vals)...)._Release();

  0013f	8b b5 b4 fd ff
	ff		 mov	 esi, DWORD PTR _mapObjId1$[ebp]
; File C:\Program Files\Microsoft Visual Studio\2022\Professional\VC\Tools\MSVC\14.44.35207\include\xmemory

; 1160 :     _CONSTEXPR20 explicit _Alloc_construct_ptr(_Alloc& _Al_) : _Al(_Al_), _Ptr(nullptr) {}

  00145	8d 85 b4 fd ff
	ff		 lea	 eax, DWORD PTR _mapObjId1$[ebp]
  0014b	89 85 a0 fd ff
	ff		 mov	 DWORD PTR $T10[ebp], eax

; 136  :         return ::operator new(_Bytes);

  00151	6a 18		 push	 24			; 00000018H
; File C:\Program Files\Microsoft Visual Studio\2022\Professional\VC\Tools\MSVC\14.44.35207\include\xtree

; 808  :     explicit _Tree_temp_node_alloc(_Alnode& _Al_) : _Alloc_construct_ptr<_Alnode>(_Al_) {

  00153	c6 45 fc 02	 mov	 BYTE PTR __$EHRec$[ebp+8], 2
; File C:\Program Files\Microsoft Visual Studio\2022\Professional\VC\Tools\MSVC\14.44.35207\include\xmemory

; 1167 :         _Ptr = nullptr; // if allocate throws, prevents double-free

  00157	c7 85 a4 fd ff
	ff 00 00 00 00	 mov	 DWORD PTR $T10[ebp+4], 0

; 136  :         return ::operator new(_Bytes);

  00161	e8 00 00 00 00	 call	 ??2@YAPAXI@Z		; operator new
; File C:\Program Files\Microsoft Visual Studio\2022\Professional\VC\Tools\MSVC\14.44.35207\include\xtree

; 830  :         _Alnode_traits::construct(this->_Al, _STD addressof(this->_Ptr->_Myval), _STD forward<_Valtys>(_Vals)...);

  00166	8b 8d c4 fd ff
	ff		 mov	 ecx, DWORD PTR $T16[ebp]
; File C:\Program Files\Microsoft Visual Studio\2022\Professional\VC\Tools\MSVC\14.44.35207\include\xmemory

; 136  :         return ::operator new(_Bytes);

  0016c	83 c4 04	 add	 esp, 4
; File C:\Program Files\Microsoft Visual Studio\2022\Professional\VC\Tools\MSVC\14.44.35207\include\xtree

; 810  :     }

  0016f	c6 45 fc 01	 mov	 BYTE PTR __$EHRec$[ebp+8], 1
; File C:\Program Files\Microsoft Visual Studio\2022\Professional\VC\Tools\MSVC\14.44.35207\include\utility

; 774  :     _Val         = static_cast<_Other&&>(_New_val);

  00173	c7 85 a4 fd ff
	ff 00 00 00 00	 mov	 DWORD PTR $T10[ebp+4], 0
; File C:\Program Files\Microsoft Visual Studio\2022\Professional\VC\Tools\MSVC\14.44.35207\include\xtree

; 830  :         _Alnode_traits::construct(this->_Al, _STD addressof(this->_Ptr->_Myval), _STD forward<_Valtys>(_Vals)...);

  0017d	89 48 10	 mov	 DWORD PTR [eax+16], ecx

; 1042 :         return {_Scary->_Insert_node(_Loc._Location, _Inserted), true};

  00180	8d 8d b4 fd ff
	ff		 lea	 ecx, DWORD PTR _mapObjId1$[ebp]
  00186	50		 push	 eax
  00187	ff b5 88 fd ff
	ff		 push	 DWORD PTR __Loc$7[ebp+4]

; 830  :         _Alnode_traits::construct(this->_Al, _STD addressof(this->_Ptr->_Myval), _STD forward<_Valtys>(_Vals)...);

  0018d	c7 40 14 01 00
	00 00		 mov	 DWORD PTR [eax+20], 1

; 1042 :         return {_Scary->_Insert_node(_Loc._Location, _Inserted), true};

  00194	ff b5 84 fd ff
	ff		 push	 DWORD PTR __Loc$7[ebp]

; 831  :         _Construct_in_place(this->_Ptr->_Left, _Myhead);

  0019a	89 30		 mov	 DWORD PTR [eax], esi

; 832  :         _Construct_in_place(this->_Ptr->_Parent, _Myhead);

  0019c	89 70 04	 mov	 DWORD PTR [eax+4], esi

; 833  :         _Construct_in_place(this->_Ptr->_Right, _Myhead);

  0019f	89 70 08	 mov	 DWORD PTR [eax+8], esi

; 834  :         this->_Ptr->_Color = _Red;

  001a2	66 c7 40 0c 00
	00		 mov	 WORD PTR [eax+12], 0

; 1042 :         return {_Scary->_Insert_node(_Loc._Location, _Inserted), true};

  001a8	e8 00 00 00 00	 call	 ?_Insert_node@?$_Tree_val@U?$_Tree_simple_types@U?$pair@$$CBKH@std@@@std@@@std@@QAEPAU?$_Tree_node@U?$pair@$$CBKH@std@@PAX@2@U?$_Tree_id@PAU?$_Tree_node@U?$pair@$$CBKH@std@@PAX@std@@@2@QAU32@@Z ; std::_Tree_val<std::_Tree_simple_types<std::pair<unsigned long const ,int> > >::_Insert_node
$LN669@MakeItem:

; 1384 :         const _Tree_find_result<_Nodeptr> _Loc = _Find_lower_bound(_Keyval);

  001ad	8d 77 14	 lea	 esi, DWORD PTR [edi+20]
  001b0	56		 push	 esi
  001b1	8d 85 60 fd ff
	ff		 lea	 eax, DWORD PTR __Loc$4[ebp]
  001b7	50		 push	 eax
  001b8	8d 8d bc fd ff
	ff		 lea	 ecx, DWORD PTR _mapObjId2$[ebp]
  001be	e8 00 00 00 00	 call	 ??$_Find_lower_bound@K@?$_Tree@V?$_Tmap_traits@KHU?$less@K@std@@V?$allocator@U?$pair@$$CBKH@std@@@2@$0A@@std@@@std@@IBE?AU?$_Tree_find_result@PAU?$_Tree_node@U?$pair@$$CBKH@std@@PAX@std@@@1@ABK@Z ; std::_Tree<std::_Tmap_traits<unsigned long,int,std::less<unsigned long>,std::allocator<std::pair<unsigned long const ,int> >,0> >::_Find_lower_bound<unsigned long>

; 1624 :         return !_Bound->_Isnil && !_DEBUG_LT_PRED(_Getcomp(), _Keyval, _Traits::_Kfn(_Bound->_Myval));

  001c3	8b 8d 68 fd ff
	ff		 mov	 ecx, DWORD PTR __Loc$4[ebp+8]
  001c9	80 79 0d 00	 cmp	 BYTE PTR [ecx+13], 0
  001cd	75 07		 jne	 SHORT $LN394@MakeItem
; File C:\Program Files\Microsoft Visual Studio\2022\Professional\VC\Tools\MSVC\14.44.35207\include\type_traits

; 2380 :         return _Left < _Right;

  001cf	8b 06		 mov	 eax, DWORD PTR [esi]
  001d1	3b 41 10	 cmp	 eax, DWORD PTR [ecx+16]
; File C:\Program Files\Microsoft Visual Studio\2022\Professional\VC\Tools\MSVC\14.44.35207\include\xtree

; 1624 :         return !_Bound->_Isnil && !_DEBUG_LT_PRED(_Getcomp(), _Keyval, _Traits::_Kfn(_Bound->_Myval));

  001d4	73 06		 jae	 SHORT $LN393@MakeItem
$LN394@MakeItem:

; 1389 :         return _Get_scary()->_Myhead;

  001d6	8b 8d bc fd ff
	ff		 mov	 ecx, DWORD PTR _mapObjId2$[ebp]
$LN393@MakeItem:

; 232  :         return this->_Ptr == _Right._Ptr;

  001dc	3b 8d bc fd ff
	ff		 cmp	 ecx, DWORD PTR _mapObjId2$[ebp]
; File C:\IAGOS\server\v18\Source\Source\_Common\UltimateWeapon.cpp

; 433  : 		if( *it != mapObjId2.end() )

  001e2	74 08		 je	 SHORT $LN19@MakeItem

; 434  : 			++(*it)->second;

  001e4	ff 41 14	 inc	 DWORD PTR [ecx+20]
  001e7	e9 c9 00 00 00	 jmp	 $LN2@MakeItem
$LN19@MakeItem:
; File C:\Program Files\Microsoft Visual Studio\2022\Professional\VC\Tools\MSVC\14.44.35207\include\utility

; 274  :         : first(_STD forward<_Other1>(_Val1)), second(_STD forward<_Other2>(_Val2)) {

  001ec	8b 36		 mov	 esi, DWORD PTR [esi]
; File C:\Program Files\Microsoft Visual Studio\2022\Professional\VC\Tools\MSVC\14.44.35207\include\xtree

; 1017 :             _Loc                = _Find_lower_bound(_Keyval);

  001ee	8d 85 98 fd ff
	ff		 lea	 eax, DWORD PTR $T9[ebp]
  001f4	50		 push	 eax
  001f5	8d 85 48 fd ff
	ff		 lea	 eax, DWORD PTR $T2[ebp]
; File C:\Program Files\Microsoft Visual Studio\2022\Professional\VC\Tools\MSVC\14.44.35207\include\utility

; 274  :         : first(_STD forward<_Other1>(_Val1)), second(_STD forward<_Other2>(_Val2)) {

  001fb	89 b5 c4 fd ff
	ff		 mov	 DWORD PTR $T17[ebp], esi
; File C:\Program Files\Microsoft Visual Studio\2022\Professional\VC\Tools\MSVC\14.44.35207\include\xtree

; 1017 :             _Loc                = _Find_lower_bound(_Keyval);

  00201	50		 push	 eax
  00202	8d 8d bc fd ff
	ff		 lea	 ecx, DWORD PTR _mapObjId2$[ebp]
; File C:\Program Files\Microsoft Visual Studio\2022\Professional\VC\Tools\MSVC\14.44.35207\include\utility

; 274  :         : first(_STD forward<_Other1>(_Val1)), second(_STD forward<_Other2>(_Val2)) {

  00208	89 b5 98 fd ff
	ff		 mov	 DWORD PTR $T9[ebp], esi
  0020e	c7 85 9c fd ff
	ff 01 00 00 00	 mov	 DWORD PTR $T9[ebp+4], 1
; File C:\Program Files\Microsoft Visual Studio\2022\Professional\VC\Tools\MSVC\14.44.35207\include\xtree

; 1017 :             _Loc                = _Find_lower_bound(_Keyval);

  00218	e8 00 00 00 00	 call	 ??$_Find_lower_bound@K@?$_Tree@V?$_Tmap_traits@KHU?$less@K@std@@V?$allocator@U?$pair@$$CBKH@std@@@2@$0A@@std@@@std@@IBE?AU?$_Tree_find_result@PAU?$_Tree_node@U?$pair@$$CBKH@std@@PAX@std@@@1@ABK@Z ; std::_Tree<std::_Tmap_traits<unsigned long,int,std::less<unsigned long>,std::allocator<std::pair<unsigned long const ,int> >,0> >::_Find_lower_bound<unsigned long>
  0021d	f3 0f 7e 00	 movq	 xmm0, QWORD PTR [eax]
  00221	8b 40 08	 mov	 eax, DWORD PTR [eax+8]
  00224	66 0f d6 85 78
	fd ff ff	 movq	 QWORD PTR __Loc$6[ebp], xmm0

; 1624 :         return !_Bound->_Isnil && !_DEBUG_LT_PRED(_Getcomp(), _Keyval, _Traits::_Kfn(_Bound->_Myval));

  0022c	80 78 0d 00	 cmp	 BYTE PTR [eax+13], 0
  00230	75 05		 jne	 SHORT $LN483@MakeItem
; File C:\Program Files\Microsoft Visual Studio\2022\Professional\VC\Tools\MSVC\14.44.35207\include\type_traits

; 2380 :         return _Left < _Right;

  00232	3b 70 10	 cmp	 esi, DWORD PTR [eax+16]
; File C:\Program Files\Microsoft Visual Studio\2022\Professional\VC\Tools\MSVC\14.44.35207\include\xtree

; 1624 :         return !_Bound->_Isnil && !_DEBUG_LT_PRED(_Getcomp(), _Keyval, _Traits::_Kfn(_Bound->_Myval));

  00235	73 7e		 jae	 SHORT $LN2@MakeItem
$LN483@MakeItem:

; 1648 :         if (max_size() == _Get_scary()->_Mysize) {

  00237	81 bd c0 fd ff
	ff aa aa aa 0a	 cmp	 DWORD PTR _mapObjId2$[ebp+4], 178956970 ; 0aaaaaaaH
  00241	0f 84 f3 04 00
	00		 je	 $LN861@MakeItem

; 1023 :             _Inserted = _Tree_temp_node<_Alnode>(_Getal(), _Scary->_Myhead, _STD forward<_Valtys>(_Vals)...)._Release();

  00247	8b b5 bc fd ff
	ff		 mov	 esi, DWORD PTR _mapObjId2$[ebp]
; File C:\Program Files\Microsoft Visual Studio\2022\Professional\VC\Tools\MSVC\14.44.35207\include\xmemory

; 1160 :     _CONSTEXPR20 explicit _Alloc_construct_ptr(_Alloc& _Al_) : _Al(_Al_), _Ptr(nullptr) {}

  0024d	8d 85 bc fd ff
	ff		 lea	 eax, DWORD PTR _mapObjId2$[ebp]
  00253	89 85 90 fd ff
	ff		 mov	 DWORD PTR $T8[ebp], eax

; 136  :         return ::operator new(_Bytes);

  00259	6a 18		 push	 24			; 00000018H
; File C:\Program Files\Microsoft Visual Studio\2022\Professional\VC\Tools\MSVC\14.44.35207\include\xtree

; 808  :     explicit _Tree_temp_node_alloc(_Alnode& _Al_) : _Alloc_construct_ptr<_Alnode>(_Al_) {

  0025b	c6 45 fc 03	 mov	 BYTE PTR __$EHRec$[ebp+8], 3
; File C:\Program Files\Microsoft Visual Studio\2022\Professional\VC\Tools\MSVC\14.44.35207\include\xmemory

; 1167 :         _Ptr = nullptr; // if allocate throws, prevents double-free

  0025f	c7 85 94 fd ff
	ff 00 00 00 00	 mov	 DWORD PTR $T8[ebp+4], 0

; 136  :         return ::operator new(_Bytes);

  00269	e8 00 00 00 00	 call	 ??2@YAPAXI@Z		; operator new
; File C:\Program Files\Microsoft Visual Studio\2022\Professional\VC\Tools\MSVC\14.44.35207\include\xtree

; 830  :         _Alnode_traits::construct(this->_Al, _STD addressof(this->_Ptr->_Myval), _STD forward<_Valtys>(_Vals)...);

  0026e	8b 8d c4 fd ff
	ff		 mov	 ecx, DWORD PTR $T17[ebp]
; File C:\Program Files\Microsoft Visual Studio\2022\Professional\VC\Tools\MSVC\14.44.35207\include\xmemory

; 136  :         return ::operator new(_Bytes);

  00274	83 c4 04	 add	 esp, 4
; File C:\Program Files\Microsoft Visual Studio\2022\Professional\VC\Tools\MSVC\14.44.35207\include\xtree

; 810  :     }

  00277	c6 45 fc 01	 mov	 BYTE PTR __$EHRec$[ebp+8], 1
; File C:\Program Files\Microsoft Visual Studio\2022\Professional\VC\Tools\MSVC\14.44.35207\include\utility

; 774  :     _Val         = static_cast<_Other&&>(_New_val);

  0027b	c7 85 94 fd ff
	ff 00 00 00 00	 mov	 DWORD PTR $T8[ebp+4], 0
; File C:\Program Files\Microsoft Visual Studio\2022\Professional\VC\Tools\MSVC\14.44.35207\include\xtree

; 830  :         _Alnode_traits::construct(this->_Al, _STD addressof(this->_Ptr->_Myval), _STD forward<_Valtys>(_Vals)...);

  00285	89 48 10	 mov	 DWORD PTR [eax+16], ecx

; 1042 :         return {_Scary->_Insert_node(_Loc._Location, _Inserted), true};

  00288	8d 8d bc fd ff
	ff		 lea	 ecx, DWORD PTR _mapObjId2$[ebp]
  0028e	50		 push	 eax
  0028f	ff b5 7c fd ff
	ff		 push	 DWORD PTR __Loc$6[ebp+4]

; 830  :         _Alnode_traits::construct(this->_Al, _STD addressof(this->_Ptr->_Myval), _STD forward<_Valtys>(_Vals)...);

  00295	c7 40 14 01 00
	00 00		 mov	 DWORD PTR [eax+20], 1

; 1042 :         return {_Scary->_Insert_node(_Loc._Location, _Inserted), true};

  0029c	ff b5 78 fd ff
	ff		 push	 DWORD PTR __Loc$6[ebp]

; 831  :         _Construct_in_place(this->_Ptr->_Left, _Myhead);

  002a2	89 30		 mov	 DWORD PTR [eax], esi

; 832  :         _Construct_in_place(this->_Ptr->_Parent, _Myhead);

  002a4	89 70 04	 mov	 DWORD PTR [eax+4], esi

; 833  :         _Construct_in_place(this->_Ptr->_Right, _Myhead);

  002a7	89 70 08	 mov	 DWORD PTR [eax+8], esi

; 834  :         this->_Ptr->_Color = _Red;

  002aa	66 c7 40 0c 00
	00		 mov	 WORD PTR [eax+12], 0

; 1042 :         return {_Scary->_Insert_node(_Loc._Location, _Inserted), true};

  002b0	e8 00 00 00 00	 call	 ?_Insert_node@?$_Tree_val@U?$_Tree_simple_types@U?$pair@$$CBKH@std@@@std@@@std@@QAEPAU?$_Tree_node@U?$pair@$$CBKH@std@@PAX@2@U?$_Tree_id@PAU?$_Tree_node@U?$pair@$$CBKH@std@@PAX@std@@@2@QAU32@@Z ; std::_Tree_val<std::_Tree_simple_types<std::pair<unsigned long const ,int> > >::_Insert_node
$LN2@MakeItem:
; File C:\IAGOS\server\v18\Source\Source\_Common\UltimateWeapon.cpp

; 424  : 	for( int i=0; i<5; i++ )

  002b5	43		 inc	 ebx
  002b6	83 c7 04	 add	 edi, 4
  002b9	83 fb 05	 cmp	 ebx, 5
  002bc	0f 8c e6 fd ff
	ff		 jl	 $LL4@MakeItem
; File C:\Program Files\Microsoft Visual Studio\2022\Professional\VC\Tools\MSVC\14.44.35207\include\xtree

; 37   :     _Tree_unchecked_const_iterator(_Nodeptr _Pnode, const _Mytree* _Plist) noexcept : _Ptr(_Pnode) {

  002c2	8b 85 b4 fd ff
	ff		 mov	 eax, DWORD PTR _mapObjId1$[ebp]
; File C:\IAGOS\server\v18\Source\Source\_Common\UltimateWeapon.cpp

; 439  : 	int nItemCount = 0;

  002c8	33 db		 xor	 ebx, ebx
; File C:\Program Files\Microsoft Visual Studio\2022\Professional\VC\Tools\MSVC\14.44.35207\include\xtree

; 37   :     _Tree_unchecked_const_iterator(_Nodeptr _Pnode, const _Mytree* _Plist) noexcept : _Ptr(_Pnode) {

  002ca	8b 30		 mov	 esi, DWORD PTR [eax]
  002cc	89 b5 c4 fd ff
	ff		 mov	 DWORD PTR _it$12[ebp], esi

; 237  :         return !(*this == _Right);

  002d2	3b f0		 cmp	 esi, eax
; File C:\IAGOS\server\v18\Source\Source\_Common\UltimateWeapon.cpp

; 440  : 	for( map<OBJID, int>::iterator it = mapObjId1.begin() ; it != mapObjId1.end() ; ++it )

  002d4	0f 84 25 04 00
	00		 je	 $LN895@MakeItem
  002da	8b 85 b0 fd ff
	ff		 mov	 eax, DWORD PTR _pUser$GSCopy$1$[ebp]
  002e0	05 fc 0a 00 00	 add	 eax, 2812		; 00000afcH
  002e5	89 85 ac fd ff
	ff		 mov	 DWORD PTR tv3305[ebp], eax
  002eb	0f 1f 44 00 00	 npad	 5
$LL7@MakeItem:

; 441  : 	{
; 442  : 		CItemElem* pItemElem;
; 443  : 		pItemElem = pUser->m_Inventory.GetAtId( it->first );

  002f0	ff 76 10	 push	 DWORD PTR [esi+16]
  002f3	8b c8		 mov	 ecx, eax
  002f5	e8 00 00 00 00	 call	 ?GetAtId@?$CItemContainer@VCItemElem@@@@QAEPAVCItemElem@@K@Z ; CItemContainer<CItemElem>::GetAtId
  002fa	8b f8		 mov	 edi, eax

; 444  : 		if( !IsUsableItem( pItemElem ) )

  002fc	57		 push	 edi
  002fd	e8 00 00 00 00	 call	 ?IsUsableItem@@YAHPAVCItemBase@@@Z ; IsUsableItem
  00302	83 c4 04	 add	 esp, 4
  00305	85 c0		 test	 eax, eax
  00307	0f 84 f2 03 00
	00		 je	 $LN895@MakeItem
; File C:\IAGOS\server\v18\Source\Source\_Common\Item.h

; 230  : 	ItemProp*	GetProp()	{	return prj.GetItemProp( m_dwItemId );	}

  0030d	8b 4f 0c	 mov	 ecx, DWORD PTR [edi+12]
; File C:\IAGOS\server\v18\Source\Source\_Common\Project.h

; 1389 : 	VERIFY_RANGE_ASSERT( nIndex, 0, m_aPropItem.GetSize(), "GetItemProp range_error", NULL );

  00310	a1 40 02 00 00	 mov	 eax, DWORD PTR ?prj@@3VCProject@@A+576
  00315	85 c9		 test	 ecx, ecx
  00317	78 11		 js	 SHORT $LN884@MakeItem
  00319	3b c8		 cmp	 ecx, eax
  0031b	7d 0d		 jge	 SHORT $LN884@MakeItem
; File C:\IAGOS\server\v18\Source\Source\_Common\data.h

; 270  : 	if( dwIndex >= (DWORD)m_nMaxIndex )

  0031d	8b 15 30 02 00
	00		 mov	 edx, DWORD PTR ?prj@@3VCProject@@A+560
  00323	73 26		 jae	 SHORT $LN901@MakeItem

; 272  : 	return (T*) m_apOffset[ dwIndex ];

  00325	8b 0c 8a	 mov	 ecx, DWORD PTR [edx+ecx*4]
; File C:\IAGOS\server\v18\Source\Source\_Common\Project.h

; 1390 : 	return m_aPropItem.GetAt( nIndex ); 

  00328	eb 23		 jmp	 SHORT $LN284@MakeItem
$LN884@MakeItem:

; 579  : 	LPCTSTR szErr = Error( _T( "%s min:%d, max:%d, index:%d" ), szMsg, nMin, nMax, nIndex ); 

  0032a	51		 push	 ecx
  0032b	50		 push	 eax
  0032c	6a 00		 push	 0
  0032e	68 00 00 00 00	 push	 OFFSET ??_C@_0BI@BEIFNGEL@GetItemProp?5range_error@
  00333	68 00 00 00 00	 push	 OFFSET ??_C@_0BM@HMFGHCP@?$CFs?5min?3?$CFd?0?5max?3?$CFd?0?5index?3?$CFd@
  00338	e8 00 00 00 00	 call	 ?Error@@YAPBDPBDZZ	; Error

; 1389 : 	VERIFY_RANGE_ASSERT( nIndex, 0, m_aPropItem.GetSize(), "GetItemProp range_error", NULL );

  0033d	a1 40 02 00 00	 mov	 eax, DWORD PTR ?prj@@3VCProject@@A+576

; 579  : 	LPCTSTR szErr = Error( _T( "%s min:%d, max:%d, index:%d" ), szMsg, nMin, nMax, nIndex ); 

  00342	83 c4 14	 add	 esp, 20			; 00000014H

; 1389 : 	VERIFY_RANGE_ASSERT( nIndex, 0, m_aPropItem.GetSize(), "GetItemProp range_error", NULL );

  00345	8b 15 30 02 00
	00		 mov	 edx, DWORD PTR ?prj@@3VCProject@@A+560
$LN901@MakeItem:
; File C:\IAGOS\server\v18\Source\Source\_Common\UltimateWeapon.cpp

; 448  : 			&& pItemElem->GetProp()->dwID != II_GEN_MAT_ORICHALCUM01_1 )

  0034b	33 c9		 xor	 ecx, ecx
$LN284@MakeItem:
  0034d	81 39 f3 07 00
	00		 cmp	 DWORD PTR [ecx], 2035	; 000007f3H
  00353	74 36		 je	 SHORT $LN22@MakeItem
; File C:\IAGOS\server\v18\Source\Source\_Common\Item.h

; 230  : 	ItemProp*	GetProp()	{	return prj.GetItemProp( m_dwItemId );	}

  00355	8b 4f 0c	 mov	 ecx, DWORD PTR [edi+12]
; File C:\IAGOS\server\v18\Source\Source\_Common\Project.h

; 1389 : 	VERIFY_RANGE_ASSERT( nIndex, 0, m_aPropItem.GetSize(), "GetItemProp range_error", NULL );

  00358	85 c9		 test	 ecx, ecx
  0035a	78 0b		 js	 SHORT $LN898@MakeItem
  0035c	3b c8		 cmp	 ecx, eax
  0035e	7d 07		 jge	 SHORT $LN898@MakeItem
; File C:\IAGOS\server\v18\Source\Source\_Common\data.h

; 270  : 	if( dwIndex >= (DWORD)m_nMaxIndex )

  00360	73 1b		 jae	 SHORT $LN902@MakeItem

; 272  : 	return (T*) m_apOffset[ dwIndex ];

  00362	8b 04 8a	 mov	 eax, DWORD PTR [edx+ecx*4]
; File C:\IAGOS\server\v18\Source\Source\_Common\Project.h

; 1390 : 	return m_aPropItem.GetAt( nIndex ); 

  00365	eb 18		 jmp	 SHORT $LN361@MakeItem
$LN898@MakeItem:

; 579  : 	LPCTSTR szErr = Error( _T( "%s min:%d, max:%d, index:%d" ), szMsg, nMin, nMax, nIndex ); 

  00367	51		 push	 ecx
  00368	50		 push	 eax
  00369	6a 00		 push	 0
  0036b	68 00 00 00 00	 push	 OFFSET ??_C@_0BI@BEIFNGEL@GetItemProp?5range_error@
  00370	68 00 00 00 00	 push	 OFFSET ??_C@_0BM@HMFGHCP@?$CFs?5min?3?$CFd?0?5max?3?$CFd?0?5index?3?$CFd@
  00375	e8 00 00 00 00	 call	 ?Error@@YAPBDPBDZZ	; Error
  0037a	83 c4 14	 add	 esp, 20			; 00000014H
$LN902@MakeItem:
; File C:\IAGOS\server\v18\Source\Source\_Common\UltimateWeapon.cpp

; 448  : 			&& pItemElem->GetProp()->dwID != II_GEN_MAT_ORICHALCUM01_1 )

  0037d	33 c0		 xor	 eax, eax
$LN361@MakeItem:
  0037f	81 38 22 08 00
	00		 cmp	 DWORD PTR [eax], 2082	; 00000822H
  00385	0f 85 74 03 00
	00		 jne	 $LN895@MakeItem
$LN22@MakeItem:

; 449  : 			return ULTIMATE_CANCEL;
; 450  : 		if( it->second > pItemElem->m_nItemNum )

  0038b	0f bf 47 74	 movsx	 eax, WORD PTR [edi+116]
  0038f	8b 4e 14	 mov	 ecx, DWORD PTR [esi+20]
  00392	3b c8		 cmp	 ecx, eax
  00394	0f 8f 65 03 00
	00		 jg	 $LN895@MakeItem

; 451  : 			return ULTIMATE_CANCEL;
; 452  : 
; 453  : 		nItemCount += it->second;

  0039a	03 d9		 add	 ebx, ecx
; File C:\Program Files\Microsoft Visual Studio\2022\Professional\VC\Tools\MSVC\14.44.35207\include\xtree

; 282  :         _Mybase::operator++();

  0039c	8d 8d c4 fd ff
	ff		 lea	 ecx, DWORD PTR _it$12[ebp]
  003a2	e8 00 00 00 00	 call	 ??E?$_Tree_const_iterator@V?$_Tree_val@U?$_Tree_simple_types@U?$pair@$$CBKH@std@@@std@@@std@@@std@@QAEAAV01@XZ ; std::_Tree_const_iterator<std::_Tree_val<std::_Tree_simple_types<std::pair<unsigned long const ,int> > > >::operator++

; 237  :         return !(*this == _Right);

  003a7	8b b5 c4 fd ff
	ff		 mov	 esi, DWORD PTR _it$12[ebp]
; File C:\IAGOS\server\v18\Source\Source\_Common\UltimateWeapon.cpp

; 440  : 	for( map<OBJID, int>::iterator it = mapObjId1.begin() ; it != mapObjId1.end() ; ++it )

  003ad	8b 85 ac fd ff
	ff		 mov	 eax, DWORD PTR tv3305[ebp]
; File C:\Program Files\Microsoft Visual Studio\2022\Professional\VC\Tools\MSVC\14.44.35207\include\xtree

; 237  :         return !(*this == _Right);

  003b3	3b b5 b4 fd ff
	ff		 cmp	 esi, DWORD PTR _mapObjId1$[ebp]
; File C:\IAGOS\server\v18\Source\Source\_Common\UltimateWeapon.cpp

; 440  : 	for( map<OBJID, int>::iterator it = mapObjId1.begin() ; it != mapObjId1.end() ; ++it )

  003b9	0f 85 31 ff ff
	ff		 jne	 $LL7@MakeItem

; 454  : 	}
; 455  : 	if( nItemCount != 5 )

  003bf	83 fb 05	 cmp	 ebx, 5
  003c2	0f 85 37 03 00
	00		 jne	 $LN895@MakeItem
; File C:\Program Files\Microsoft Visual Studio\2022\Professional\VC\Tools\MSVC\14.44.35207\include\xtree

; 37   :     _Tree_unchecked_const_iterator(_Nodeptr _Pnode, const _Mytree* _Plist) noexcept : _Ptr(_Pnode) {

  003c8	8b 85 bc fd ff
	ff		 mov	 eax, DWORD PTR _mapObjId2$[ebp]
; File C:\IAGOS\server\v18\Source\Source\_Common\UltimateWeapon.cpp

; 458  : 	nItemCount = 0;

  003ce	33 db		 xor	 ebx, ebx
; File C:\Program Files\Microsoft Visual Studio\2022\Professional\VC\Tools\MSVC\14.44.35207\include\xtree

; 37   :     _Tree_unchecked_const_iterator(_Nodeptr _Pnode, const _Mytree* _Plist) noexcept : _Ptr(_Pnode) {

  003d0	8b 30		 mov	 esi, DWORD PTR [eax]
  003d2	89 b5 c4 fd ff
	ff		 mov	 DWORD PTR _it$13[ebp], esi

; 237  :         return !(*this == _Right);

  003d8	3b f0		 cmp	 esi, eax
; File C:\IAGOS\server\v18\Source\Source\_Common\UltimateWeapon.cpp

; 459  : 	for( map<OBJID, int>::iterator it = mapObjId2.begin() ; it != mapObjId2.end() ; ++it )

  003da	0f 84 1f 03 00
	00		 je	 $LN895@MakeItem
  003e0	8b 85 b0 fd ff
	ff		 mov	 eax, DWORD PTR _pUser$GSCopy$1$[ebp]
  003e6	05 fc 0a 00 00	 add	 eax, 2812		; 00000afcH
  003eb	89 85 ac fd ff
	ff		 mov	 DWORD PTR tv3304[ebp], eax
$LL10@MakeItem:

; 460  : 	{
; 461  : 		CItemElem* pItemElem;
; 462  : 		pItemElem = pUser->m_Inventory.GetAtId( it->first );

  003f1	ff 76 10	 push	 DWORD PTR [esi+16]
  003f4	8b c8		 mov	 ecx, eax
  003f6	e8 00 00 00 00	 call	 ?GetAtId@?$CItemContainer@VCItemElem@@@@QAEPAVCItemElem@@K@Z ; CItemContainer<CItemElem>::GetAtId
  003fb	8b f8		 mov	 edi, eax

; 463  : 		if( !IsUsableItem( pItemElem ) )

  003fd	57		 push	 edi
  003fe	e8 00 00 00 00	 call	 ?IsUsableItem@@YAHPAVCItemBase@@@Z ; IsUsableItem
  00403	83 c4 04	 add	 esp, 4
  00406	85 c0		 test	 eax, eax
  00408	0f 84 f1 02 00
	00		 je	 $LN895@MakeItem
; File C:\IAGOS\server\v18\Source\Source\_Common\Item.h

; 230  : 	ItemProp*	GetProp()	{	return prj.GetItemProp( m_dwItemId );	}

  0040e	8b 4f 0c	 mov	 ecx, DWORD PTR [edi+12]
; File C:\IAGOS\server\v18\Source\Source\_Common\Project.h

; 1389 : 	VERIFY_RANGE_ASSERT( nIndex, 0, m_aPropItem.GetSize(), "GetItemProp range_error", NULL );

  00411	a1 40 02 00 00	 mov	 eax, DWORD PTR ?prj@@3VCProject@@A+576
  00416	85 c9		 test	 ecx, ecx
  00418	78 11		 js	 SHORT $LN197@MakeItem
  0041a	3b c8		 cmp	 ecx, eax
  0041c	7d 0d		 jge	 SHORT $LN197@MakeItem
; File C:\IAGOS\server\v18\Source\Source\_Common\data.h

; 270  : 	if( dwIndex >= (DWORD)m_nMaxIndex )

  0041e	8b 15 30 02 00
	00		 mov	 edx, DWORD PTR ?prj@@3VCProject@@A+560
  00424	73 26		 jae	 SHORT $LN903@MakeItem

; 272  : 	return (T*) m_apOffset[ dwIndex ];

  00426	8b 0c 8a	 mov	 ecx, DWORD PTR [edx+ecx*4]
; File C:\IAGOS\server\v18\Source\Source\_Common\Project.h

; 1390 : 	return m_aPropItem.GetAt( nIndex ); 

  00429	eb 23		 jmp	 SHORT $LN192@MakeItem
$LN197@MakeItem:

; 579  : 	LPCTSTR szErr = Error( _T( "%s min:%d, max:%d, index:%d" ), szMsg, nMin, nMax, nIndex ); 

  0042b	51		 push	 ecx
  0042c	50		 push	 eax
  0042d	6a 00		 push	 0
  0042f	68 00 00 00 00	 push	 OFFSET ??_C@_0BI@BEIFNGEL@GetItemProp?5range_error@
  00434	68 00 00 00 00	 push	 OFFSET ??_C@_0BM@HMFGHCP@?$CFs?5min?3?$CFd?0?5max?3?$CFd?0?5index?3?$CFd@
  00439	e8 00 00 00 00	 call	 ?Error@@YAPBDPBDZZ	; Error

; 1389 : 	VERIFY_RANGE_ASSERT( nIndex, 0, m_aPropItem.GetSize(), "GetItemProp range_error", NULL );

  0043e	a1 40 02 00 00	 mov	 eax, DWORD PTR ?prj@@3VCProject@@A+576

; 579  : 	LPCTSTR szErr = Error( _T( "%s min:%d, max:%d, index:%d" ), szMsg, nMin, nMax, nIndex ); 

  00443	83 c4 14	 add	 esp, 20			; 00000014H

; 1389 : 	VERIFY_RANGE_ASSERT( nIndex, 0, m_aPropItem.GetSize(), "GetItemProp range_error", NULL );

  00446	8b 15 30 02 00
	00		 mov	 edx, DWORD PTR ?prj@@3VCProject@@A+560
$LN903@MakeItem:
; File C:\IAGOS\server\v18\Source\Source\_Common\UltimateWeapon.cpp

; 467  : 			&& pItemElem->GetProp()->dwID != II_GEN_MAT_MOONSTONE_1 )

  0044c	33 c9		 xor	 ecx, ecx
$LN192@MakeItem:
  0044e	81 39 f4 07 00
	00		 cmp	 DWORD PTR [ecx], 2036	; 000007f4H
  00454	74 36		 je	 SHORT $LN26@MakeItem
; File C:\IAGOS\server\v18\Source\Source\_Common\Item.h

; 230  : 	ItemProp*	GetProp()	{	return prj.GetItemProp( m_dwItemId );	}

  00456	8b 4f 0c	 mov	 ecx, DWORD PTR [edi+12]
; File C:\IAGOS\server\v18\Source\Source\_Common\Project.h

; 1389 : 	VERIFY_RANGE_ASSERT( nIndex, 0, m_aPropItem.GetSize(), "GetItemProp range_error", NULL );

  00459	85 c9		 test	 ecx, ecx
  0045b	78 0b		 js	 SHORT $LN275@MakeItem
  0045d	3b c8		 cmp	 ecx, eax
  0045f	7d 07		 jge	 SHORT $LN275@MakeItem
; File C:\IAGOS\server\v18\Source\Source\_Common\data.h

; 270  : 	if( dwIndex >= (DWORD)m_nMaxIndex )

  00461	73 1b		 jae	 SHORT $LN904@MakeItem

; 272  : 	return (T*) m_apOffset[ dwIndex ];

  00463	8b 04 8a	 mov	 eax, DWORD PTR [edx+ecx*4]
; File C:\IAGOS\server\v18\Source\Source\_Common\Project.h

; 1390 : 	return m_aPropItem.GetAt( nIndex ); 

  00466	eb 18		 jmp	 SHORT $LN270@MakeItem
$LN275@MakeItem:

; 579  : 	LPCTSTR szErr = Error( _T( "%s min:%d, max:%d, index:%d" ), szMsg, nMin, nMax, nIndex ); 

  00468	51		 push	 ecx
  00469	50		 push	 eax
  0046a	6a 00		 push	 0
  0046c	68 00 00 00 00	 push	 OFFSET ??_C@_0BI@BEIFNGEL@GetItemProp?5range_error@
  00471	68 00 00 00 00	 push	 OFFSET ??_C@_0BM@HMFGHCP@?$CFs?5min?3?$CFd?0?5max?3?$CFd?0?5index?3?$CFd@
  00476	e8 00 00 00 00	 call	 ?Error@@YAPBDPBDZZ	; Error
  0047b	83 c4 14	 add	 esp, 20			; 00000014H
$LN904@MakeItem:
; File C:\IAGOS\server\v18\Source\Source\_Common\UltimateWeapon.cpp

; 467  : 			&& pItemElem->GetProp()->dwID != II_GEN_MAT_MOONSTONE_1 )

  0047e	33 c0		 xor	 eax, eax
$LN270@MakeItem:
  00480	81 38 23 08 00
	00		 cmp	 DWORD PTR [eax], 2083	; 00000823H
  00486	0f 85 73 02 00
	00		 jne	 $LN895@MakeItem
$LN26@MakeItem:

; 468  : 			return ULTIMATE_CANCEL;
; 469  : 		if( it->second > pItemElem->m_nItemNum )

  0048c	0f bf 47 74	 movsx	 eax, WORD PTR [edi+116]
  00490	8b 4e 14	 mov	 ecx, DWORD PTR [esi+20]
  00493	3b c8		 cmp	 ecx, eax
  00495	0f 8f 64 02 00
	00		 jg	 $LN895@MakeItem

; 470  : 			return ULTIMATE_CANCEL;
; 471  : 		
; 472  : 		nItemCount += it->second;

  0049b	03 d9		 add	 ebx, ecx
; File C:\Program Files\Microsoft Visual Studio\2022\Professional\VC\Tools\MSVC\14.44.35207\include\xtree

; 282  :         _Mybase::operator++();

  0049d	8d 8d c4 fd ff
	ff		 lea	 ecx, DWORD PTR _it$13[ebp]
  004a3	e8 00 00 00 00	 call	 ??E?$_Tree_const_iterator@V?$_Tree_val@U?$_Tree_simple_types@U?$pair@$$CBKH@std@@@std@@@std@@@std@@QAEAAV01@XZ ; std::_Tree_const_iterator<std::_Tree_val<std::_Tree_simple_types<std::pair<unsigned long const ,int> > > >::operator++

; 237  :         return !(*this == _Right);

  004a8	8b b5 c4 fd ff
	ff		 mov	 esi, DWORD PTR _it$13[ebp]
; File C:\IAGOS\server\v18\Source\Source\_Common\UltimateWeapon.cpp

; 459  : 	for( map<OBJID, int>::iterator it = mapObjId2.begin() ; it != mapObjId2.end() ; ++it )

  004ae	8b 85 ac fd ff
	ff		 mov	 eax, DWORD PTR tv3304[ebp]
; File C:\Program Files\Microsoft Visual Studio\2022\Professional\VC\Tools\MSVC\14.44.35207\include\xtree

; 237  :         return !(*this == _Right);

  004b4	3b b5 bc fd ff
	ff		 cmp	 esi, DWORD PTR _mapObjId2$[ebp]
; File C:\IAGOS\server\v18\Source\Source\_Common\UltimateWeapon.cpp

; 459  : 	for( map<OBJID, int>::iterator it = mapObjId2.begin() ; it != mapObjId2.end() ; ++it )

  004ba	0f 85 31 ff ff
	ff		 jne	 $LL10@MakeItem

; 473  : 	}
; 474  : 
; 475  : 	if( nItemCount != 5 )

  004c0	83 fb 05	 cmp	 ebx, 5
  004c3	0f 85 36 02 00
	00		 jne	 $LN895@MakeItem

; 479  : 	CItemElem itemElemTemp;

  004c9	8d 8d 90 fe ff
	ff		 lea	 ecx, DWORD PTR _itemElemTemp$[ebp]
  004cf	e8 00 00 00 00	 call	 ??0CItemElem@@QAE@XZ	; CItemElem::CItemElem
; File C:\IAGOS\server\v18\Source\Source\_Common\Project.h

; 1389 : 	VERIFY_RANGE_ASSERT( nIndex, 0, m_aPropItem.GetSize(), "GetItemProp range_error", NULL );

  004d4	a1 40 02 00 00	 mov	 eax, DWORD PTR ?prj@@3VCProject@@A+576
; File C:\IAGOS\server\v18\Source\Source\_Common\UltimateWeapon.cpp

; 479  : 	CItemElem itemElemTemp;

  004d9	c6 45 fc 04	 mov	 BYTE PTR __$EHRec$[ebp+8], 4

; 480  : 	itemElemTemp.m_dwItemId = II_GEN_MAT_ORICHALCUM02;

  004dd	c7 85 9c fe ff
	ff f2 07 00 00	 mov	 DWORD PTR _itemElemTemp$[ebp+12], 2034 ; 000007f2H
; File C:\IAGOS\server\v18\Source\Source\_Common\Project.h

; 1389 : 	VERIFY_RANGE_ASSERT( nIndex, 0, m_aPropItem.GetSize(), "GetItemProp range_error", NULL );

  004e7	3d f2 07 00 00	 cmp	 eax, 2034		; 000007f2H
  004ec	0f 8e e1 01 00
	00		 jle	 $LN211@MakeItem
; File C:\IAGOS\server\v18\Source\Source\_Common\data.h

; 270  : 	if( dwIndex >= (DWORD)m_nMaxIndex )

  004f2	8b 0d 30 02 00
	00		 mov	 ecx, DWORD PTR ?prj@@3VCProject@@A+560
  004f8	77 04		 ja	 SHORT $LN216@MakeItem

; 271  : 		return NULL;

  004fa	33 d2		 xor	 edx, edx
  004fc	eb 06		 jmp	 SHORT $LN215@MakeItem
$LN216@MakeItem:

; 272  : 	return (T*) m_apOffset[ dwIndex ];

  004fe	8b 91 c8 1f 00
	00		 mov	 edx, DWORD PTR [ecx+8136]
$LN215@MakeItem:
; File C:\IAGOS\server\v18\Source\Source\_Common\UltimateWeapon.cpp

; 481  : 	if( !itemElemTemp.GetProp() || pUser->m_Inventory.IsFull( &itemElemTemp, itemElemTemp.GetProp(), 1 ) )

  00504	85 d2		 test	 edx, edx
  00506	0f 84 e1 01 00
	00		 je	 $LN30@MakeItem
; File C:\IAGOS\server\v18\Source\Source\_Common\data.h

; 270  : 	if( dwIndex >= (DWORD)m_nMaxIndex )

  0050c	3d f2 07 00 00	 cmp	 eax, 2034		; 000007f2H
  00511	77 04		 ja	 SHORT $LN266@MakeItem

; 271  : 		return NULL;

  00513	33 c0		 xor	 eax, eax
  00515	eb 06		 jmp	 SHORT $LN265@MakeItem
$LN266@MakeItem:

; 272  : 	return (T*) m_apOffset[ dwIndex ];

  00517	8b 81 c8 1f 00
	00		 mov	 eax, DWORD PTR [ecx+8136]
$LN265@MakeItem:
; File C:\IAGOS\server\v18\Source\Source\_Common\UltimateWeapon.cpp

; 481  : 	if( !itemElemTemp.GetProp() || pUser->m_Inventory.IsFull( &itemElemTemp, itemElemTemp.GetProp(), 1 ) )

  0051d	8b 9d b0 fd ff
	ff		 mov	 ebx, DWORD PTR _pUser$GSCopy$1$[ebp]
  00523	6a 01		 push	 1
  00525	50		 push	 eax
  00526	8d 85 90 fe ff
	ff		 lea	 eax, DWORD PTR _itemElemTemp$[ebp]
  0052c	50		 push	 eax
  0052d	8d 8b fc 0a 00
	00		 lea	 ecx, DWORD PTR [ebx+2812]
  00533	e8 00 00 00 00	 call	 ?IsFull@?$CItemContainer@VCItemElem@@@@QAEHPAVCItemElem@@PAUItemProp@@F@Z ; CItemContainer<CItemElem>::IsFull
  00538	85 c0		 test	 eax, eax
  0053a	0f 85 ad 01 00
	00		 jne	 $LN30@MakeItem

; 482  : 		return ULTIMATE_INVENTORY;
; 483  : 	
; 484  : 	LogItemInfo aLogItem;

  00540	8d 8d c8 fd ff
	ff		 lea	 ecx, DWORD PTR _aLogItem$[ebp]
  00546	e8 00 00 00 00	 call	 ??0_LogItemInfo@@QAE@XZ	; _LogItemInfo::_LogItemInfo

; 485  : 	aLogItem.Action = "-";
; 486  : 	aLogItem.SendName = pUser->GetName();

  0054b	6a 00		 push	 0
  0054d	8b cb		 mov	 ecx, ebx
  0054f	c7 85 c8 fd ff
	ff 00 00 00 00	 mov	 DWORD PTR _aLogItem$[ebp], OFFSET ??_C@_01JOAMLHOP@?9@
  00559	e8 00 00 00 00	 call	 ?GetName@CMover@@QAEPBDH@Z ; CMover::GetName
  0055e	89 85 cc fd ff
	ff		 mov	 DWORD PTR _aLogItem$[ebp+4], eax

; 487  : 	aLogItem.RecvName = "ULTIMATE_MAKEITEM";
; 488  : 	aLogItem.WorldId = pUser->GetWorld()->GetID();

  00564	8b 83 6c 01 00
	00		 mov	 eax, DWORD PTR [ebx+364]
  0056a	c7 85 d0 fd ff
	ff 00 00 00 00	 mov	 DWORD PTR _aLogItem$[ebp+8], OFFSET ??_C@_0BC@DHNDBODH@ULTIMATE_MAKEITEM@
  00574	8b 00		 mov	 eax, DWORD PTR [eax]
  00576	89 85 d4 fd ff
	ff		 mov	 DWORD PTR _aLogItem$[ebp+12], eax

; 489  : 	aLogItem.Gold = aLogItem.Gold2 = pUser->GetGold();

  0057c	8b 83 e0 14 00
	00		 mov	 eax, DWORD PTR [ebx+5344]
  00582	89 85 dc fd ff
	ff		 mov	 DWORD PTR _aLogItem$[ebp+20], eax
  00588	89 85 d8 fd ff
	ff		 mov	 DWORD PTR _aLogItem$[ebp+16], eax
; File C:\Program Files\Microsoft Visual Studio\2022\Professional\VC\Tools\MSVC\14.44.35207\include\xtree

; 37   :     _Tree_unchecked_const_iterator(_Nodeptr _Pnode, const _Mytree* _Plist) noexcept : _Ptr(_Pnode) {

  0058e	8b 85 b4 fd ff
	ff		 mov	 eax, DWORD PTR _mapObjId1$[ebp]
  00594	8b 30		 mov	 esi, DWORD PTR [eax]
  00596	89 b5 c4 fd ff
	ff		 mov	 DWORD PTR _it$14[ebp], esi

; 237  :         return !(*this == _Right);

  0059c	3b f0		 cmp	 esi, eax
; File C:\IAGOS\server\v18\Source\Source\_Common\UltimateWeapon.cpp

; 492  : 	for( map<OBJID, int>::iterator it = mapObjId1.begin() ; it != mapObjId1.end() ; ++it )

  0059e	74 4d		 je	 SHORT $LN12@MakeItem
$LL13@MakeItem:

; 493  : 	{
; 494  : 		pItemElem = pUser->m_Inventory.GetAtId( it->first );

  005a0	ff 76 10	 push	 DWORD PTR [esi+16]
  005a3	8d 8b fc 0a 00
	00		 lea	 ecx, DWORD PTR [ebx+2812]
  005a9	e8 00 00 00 00	 call	 ?GetAtId@?$CItemContainer@VCItemElem@@@@QAEPAVCItemElem@@K@Z ; CItemContainer<CItemElem>::GetAtId

; 495  : 		g_DPSrvr.OnLogItem( aLogItem, pItemElem, it->second );	

  005ae	ff 76 14	 push	 DWORD PTR [esi+20]
  005b1	b9 00 00 00 00	 mov	 ecx, OFFSET ?g_DPSrvr@@3VCDPSrvr@@A ; g_DPSrvr
  005b6	50		 push	 eax
  005b7	8d 85 c8 fd ff
	ff		 lea	 eax, DWORD PTR _aLogItem$[ebp]
  005bd	50		 push	 eax
  005be	e8 00 00 00 00	 call	 ?OnLogItem@CDPSrvr@@QAEXAAU_LogItemInfo@@PAVCItemElem@@H@Z ; CDPSrvr::OnLogItem

; 496  : 		pUser->RemoveItem( (BYTE)( it->first ), it->second );

  005c3	0f b7 46 14	 movzx	 eax, WORD PTR [esi+20]
  005c7	8b cb		 mov	 ecx, ebx
  005c9	50		 push	 eax
  005ca	0f b6 46 10	 movzx	 eax, BYTE PTR [esi+16]
  005ce	50		 push	 eax
  005cf	e8 00 00 00 00	 call	 ?RemoveItem@CMover@@QAEXEF@Z ; CMover::RemoveItem
; File C:\Program Files\Microsoft Visual Studio\2022\Professional\VC\Tools\MSVC\14.44.35207\include\xtree

; 282  :         _Mybase::operator++();

  005d4	8d 8d c4 fd ff
	ff		 lea	 ecx, DWORD PTR _it$14[ebp]
  005da	e8 00 00 00 00	 call	 ??E?$_Tree_const_iterator@V?$_Tree_val@U?$_Tree_simple_types@U?$pair@$$CBKH@std@@@std@@@std@@@std@@QAEAAV01@XZ ; std::_Tree_const_iterator<std::_Tree_val<std::_Tree_simple_types<std::pair<unsigned long const ,int> > > >::operator++

; 237  :         return !(*this == _Right);

  005df	8b b5 c4 fd ff
	ff		 mov	 esi, DWORD PTR _it$14[ebp]
  005e5	3b b5 b4 fd ff
	ff		 cmp	 esi, DWORD PTR _mapObjId1$[ebp]
; File C:\IAGOS\server\v18\Source\Source\_Common\UltimateWeapon.cpp

; 492  : 	for( map<OBJID, int>::iterator it = mapObjId1.begin() ; it != mapObjId1.end() ; ++it )

  005eb	75 b3		 jne	 SHORT $LL13@MakeItem
$LN12@MakeItem:
; File C:\Program Files\Microsoft Visual Studio\2022\Professional\VC\Tools\MSVC\14.44.35207\include\xtree

; 37   :     _Tree_unchecked_const_iterator(_Nodeptr _Pnode, const _Mytree* _Plist) noexcept : _Ptr(_Pnode) {

  005ed	8b 85 bc fd ff
	ff		 mov	 eax, DWORD PTR _mapObjId2$[ebp]
  005f3	8b 30		 mov	 esi, DWORD PTR [eax]
  005f5	89 b5 c4 fd ff
	ff		 mov	 DWORD PTR _it$15[ebp], esi

; 237  :         return !(*this == _Right);

  005fb	3b f0		 cmp	 esi, eax
; File C:\IAGOS\server\v18\Source\Source\_Common\UltimateWeapon.cpp

; 498  : 	for( map<OBJID, int>::iterator it = mapObjId2.begin() ; it != mapObjId2.end() ; ++it )

  005fd	74 4e		 je	 SHORT $LN15@MakeItem
  005ff	90		 npad	 1
$LL16@MakeItem:

; 499  : 	{
; 500  : 		pItemElem = pUser->m_Inventory.GetAtId( it->first );

  00600	ff 76 10	 push	 DWORD PTR [esi+16]
  00603	8d 8b fc 0a 00
	00		 lea	 ecx, DWORD PTR [ebx+2812]
  00609	e8 00 00 00 00	 call	 ?GetAtId@?$CItemContainer@VCItemElem@@@@QAEPAVCItemElem@@K@Z ; CItemContainer<CItemElem>::GetAtId

; 501  : 		g_DPSrvr.OnLogItem( aLogItem, pItemElem, it->second );	

  0060e	ff 76 14	 push	 DWORD PTR [esi+20]
  00611	b9 00 00 00 00	 mov	 ecx, OFFSET ?g_DPSrvr@@3VCDPSrvr@@A ; g_DPSrvr
  00616	50		 push	 eax
  00617	8d 85 c8 fd ff
	ff		 lea	 eax, DWORD PTR _aLogItem$[ebp]
  0061d	50		 push	 eax
  0061e	e8 00 00 00 00	 call	 ?OnLogItem@CDPSrvr@@QAEXAAU_LogItemInfo@@PAVCItemElem@@H@Z ; CDPSrvr::OnLogItem

; 502  : 		pUser->RemoveItem( (BYTE)( it->first ), it->second );

  00623	0f b7 46 14	 movzx	 eax, WORD PTR [esi+20]
  00627	8b cb		 mov	 ecx, ebx
  00629	50		 push	 eax
  0062a	0f b6 46 10	 movzx	 eax, BYTE PTR [esi+16]
  0062e	50		 push	 eax
  0062f	e8 00 00 00 00	 call	 ?RemoveItem@CMover@@QAEXEF@Z ; CMover::RemoveItem
; File C:\Program Files\Microsoft Visual Studio\2022\Professional\VC\Tools\MSVC\14.44.35207\include\xtree

; 282  :         _Mybase::operator++();

  00634	8d 8d c4 fd ff
	ff		 lea	 ecx, DWORD PTR _it$15[ebp]
  0063a	e8 00 00 00 00	 call	 ??E?$_Tree_const_iterator@V?$_Tree_val@U?$_Tree_simple_types@U?$pair@$$CBKH@std@@@std@@@std@@@std@@QAEAAV01@XZ ; std::_Tree_const_iterator<std::_Tree_val<std::_Tree_simple_types<std::pair<unsigned long const ,int> > > >::operator++

; 237  :         return !(*this == _Right);

  0063f	8b b5 c4 fd ff
	ff		 mov	 esi, DWORD PTR _it$15[ebp]
  00645	3b b5 bc fd ff
	ff		 cmp	 esi, DWORD PTR _mapObjId2$[ebp]
; File C:\IAGOS\server\v18\Source\Source\_Common\UltimateWeapon.cpp

; 498  : 	for( map<OBJID, int>::iterator it = mapObjId2.begin() ; it != mapObjId2.end() ; ++it )

  0064b	75 b3		 jne	 SHORT $LL16@MakeItem
$LN15@MakeItem:

; 503  : 	}
; 504  : 
; 505  : 	CItemElem itemElem;

  0064d	8d 8d 40 ff ff
	ff		 lea	 ecx, DWORD PTR _itemElem$[ebp]
  00653	e8 00 00 00 00	 call	 ??0CItemElem@@QAE@XZ	; CItemElem::CItemElem

; 506  : 	itemElem.m_dwItemId = II_GEN_MAT_ORICHALCUM02;
; 507  : 	itemElem.m_nItemNum	= 1;

  00658	b8 01 00 00 00	 mov	 eax, 1
  0065d	c6 45 fc 05	 mov	 BYTE PTR __$EHRec$[ebp+8], 5

; 508  : 	itemElem.SetSerialNumber();

  00661	8d 8d 40 ff ff
	ff		 lea	 ecx, DWORD PTR _itemElem$[ebp]
  00667	c7 85 4c ff ff
	ff f2 07 00 00	 mov	 DWORD PTR _itemElem$[ebp+12], 2034 ; 000007f2H
  00671	66 89 45 b4	 mov	 WORD PTR _itemElem$[ebp+116], ax
  00675	e8 00 00 00 00	 call	 ?SetSerialNumber@CItemBase@@QAEXXZ ; CItemBase::SetSerialNumber

; 509  : 	itemElem.m_nHitPoint	= 0;
; 510  : 	
; 511  : 	pUser->CreateItem( &itemElem );

  0067a	6a 00		 push	 0
  0067c	6a 00		 push	 0
  0067e	6a 00		 push	 0
  00680	8d 85 40 ff ff
	ff		 lea	 eax, DWORD PTR _itemElem$[ebp]
  00686	c7 45 b0 00 00
	00 00		 mov	 DWORD PTR _itemElem$[ebp+112], 0
  0068d	50		 push	 eax
  0068e	8b cb		 mov	 ecx, ebx
  00690	e8 00 00 00 00	 call	 ?CreateItem@CMover@@QAEHPAVCItemBase@@PAEPAFE@Z ; CMover::CreateItem

; 512  : 	aLogItem.RecvName = "ULTIMATE_MAKEITEM_SUCCESS";
; 513  : 	g_DPSrvr.OnLogItem( aLogItem, &itemElem, 1 );

  00695	6a 01		 push	 1
  00697	8d 85 40 ff ff
	ff		 lea	 eax, DWORD PTR _itemElem$[ebp]
  0069d	c7 85 d0 fd ff
	ff 00 00 00 00	 mov	 DWORD PTR _aLogItem$[ebp+8], OFFSET ??_C@_0BK@PNNEGHFI@ULTIMATE_MAKEITEM_SUCCESS@
  006a7	50		 push	 eax
  006a8	8d 85 c8 fd ff
	ff		 lea	 eax, DWORD PTR _aLogItem$[ebp]
  006ae	b9 00 00 00 00	 mov	 ecx, OFFSET ?g_DPSrvr@@3VCDPSrvr@@A ; g_DPSrvr
  006b3	50		 push	 eax
  006b4	e8 00 00 00 00	 call	 ?OnLogItem@CDPSrvr@@QAEXAAU_LogItemInfo@@PAVCItemElem@@H@Z ; CDPSrvr::OnLogItem

; 515  : 	return ULTIMATE_SUCCESS;

  006b9	8d 8d 40 ff ff
	ff		 lea	 ecx, DWORD PTR _itemElem$[ebp]
  006bf	33 f6		 xor	 esi, esi
  006c1	e8 00 00 00 00	 call	 ??1CItemElem@@UAE@XZ	; CItemElem::~CItemElem
  006c6	8d 8d 90 fe ff
	ff		 lea	 ecx, DWORD PTR _itemElemTemp$[ebp]
  006cc	e8 00 00 00 00	 call	 ??1CItemElem@@UAE@XZ	; CItemElem::~CItemElem
  006d1	eb 31		 jmp	 SHORT $LN43@MakeItem
$LN211@MakeItem:
; File C:\IAGOS\server\v18\Source\Source\_Common\Project.h

; 579  : 	LPCTSTR szErr = Error( _T( "%s min:%d, max:%d, index:%d" ), szMsg, nMin, nMax, nIndex ); 

  006d3	68 f2 07 00 00	 push	 2034			; 000007f2H
  006d8	50		 push	 eax
  006d9	6a 00		 push	 0
  006db	68 00 00 00 00	 push	 OFFSET ??_C@_0BI@BEIFNGEL@GetItemProp?5range_error@
  006e0	68 00 00 00 00	 push	 OFFSET ??_C@_0BM@HMFGHCP@?$CFs?5min?3?$CFd?0?5max?3?$CFd?0?5index?3?$CFd@
  006e5	e8 00 00 00 00	 call	 ?Error@@YAPBDPBDZZ	; Error
  006ea	83 c4 14	 add	 esp, 20			; 00000014H
$LN30@MakeItem:
; File C:\IAGOS\server\v18\Source\Source\_Common\UltimateWeapon.cpp

; 515  : 	return ULTIMATE_SUCCESS;

  006ed	8d 8d 90 fe ff
	ff		 lea	 ecx, DWORD PTR _itemElemTemp$[ebp]
  006f3	be 04 00 00 00	 mov	 esi, 4
  006f8	e8 00 00 00 00	 call	 ??1CItemElem@@UAE@XZ	; CItemElem::~CItemElem
  006fd	eb 05		 jmp	 SHORT $LN43@MakeItem
$LN895@MakeItem:
  006ff	be 02 00 00 00	 mov	 esi, 2
$LN43@MakeItem:
  00704	8d 8d bc fd ff
	ff		 lea	 ecx, DWORD PTR _mapObjId2$[ebp]
  0070a	e8 00 00 00 00	 call	 ??1?$_Tree@V?$_Tmap_traits@KHU?$less@K@std@@V?$allocator@U?$pair@$$CBKH@std@@@2@$0A@@std@@@std@@QAE@XZ ; std::_Tree<std::_Tmap_traits<unsigned long,int,std::less<unsigned long>,std::allocator<std::pair<unsigned long const ,int> >,0> >::~_Tree<std::_Tmap_traits<unsigned long,int,std::less<unsigned long>,std::allocator<std::pair<unsigned long const ,int> >,0> >
  0070f	8d 8d b4 fd ff
	ff		 lea	 ecx, DWORD PTR _mapObjId1$[ebp]
  00715	e8 00 00 00 00	 call	 ??1?$_Tree@V?$_Tmap_traits@KHU?$less@K@std@@V?$allocator@U?$pair@$$CBKH@std@@@2@$0A@@std@@@std@@QAE@XZ ; std::_Tree<std::_Tmap_traits<unsigned long,int,std::less<unsigned long>,std::allocator<std::pair<unsigned long const ,int> >,0> >::~_Tree<std::_Tmap_traits<unsigned long,int,std::less<unsigned long>,std::allocator<std::pair<unsigned long const ,int> >,0> >
  0071a	8b c6		 mov	 eax, esi

; 516  : }

  0071c	8b 4d f4	 mov	 ecx, DWORD PTR __$EHRec$[ebp]
  0071f	64 89 0d 00 00
	00 00		 mov	 DWORD PTR fs:0, ecx
  00726	59		 pop	 ecx
  00727	5f		 pop	 edi
  00728	5e		 pop	 esi
  00729	5b		 pop	 ebx
  0072a	8b 4d f0	 mov	 ecx, DWORD PTR __$ArrayPad$[ebp]
  0072d	33 cd		 xor	 ecx, ebp
  0072f	e8 00 00 00 00	 call	 @__security_check_cookie@4
  00734	8b e5		 mov	 esp, ebp
  00736	5d		 pop	 ebp
  00737	c2 08 00	 ret	 8
$LN861@MakeItem:
; File C:\Program Files\Microsoft Visual Studio\2022\Professional\VC\Tools\MSVC\14.44.35207\include\xtree

; 1649 :             _Throw_tree_length_error();

  0073a	e8 00 00 00 00	 call	 ?_Throw_tree_length_error@std@@YAXXZ ; std::_Throw_tree_length_error
$LN900@MakeItem:
  0073f	cc		 int	 3
_TEXT	ENDS
;	COMDAT text$x
text$x	SEGMENT
__unwindfunclet$?MakeItem@CUltimateWeapon@@QAEHPAVCUser@@PAK@Z$0:
  00000	8d 8d b4 fd ff
	ff		 lea	 ecx, DWORD PTR _mapObjId1$[ebp]
  00006	e9 00 00 00 00	 jmp	 ??1?$map@KHU?$less@K@std@@V?$allocator@U?$pair@$$CBKH@std@@@2@@std@@QAE@XZ
__unwindfunclet$?MakeItem@CUltimateWeapon@@QAEHPAVCUser@@PAK@Z$1:
  0000b	8d 8d bc fd ff
	ff		 lea	 ecx, DWORD PTR _mapObjId2$[ebp]
  00011	e9 00 00 00 00	 jmp	 ??1?$map@KHU?$less@K@std@@V?$allocator@U?$pair@$$CBKH@std@@@2@@std@@QAE@XZ
__unwindfunclet$?MakeItem@CUltimateWeapon@@QAEHPAVCUser@@PAK@Z$13:
  00016	8d 8d a0 fd ff
	ff		 lea	 ecx, DWORD PTR $T10[ebp]
  0001c	e9 00 00 00 00	 jmp	 ??1?$_Alloc_construct_ptr@V?$allocator@U?$_Tree_node@U?$pair@$$CBKH@std@@PAX@std@@@std@@@std@@QAE@XZ ; std::_Alloc_construct_ptr<std::allocator<std::_Tree_node<std::pair<unsigned long const ,int>,void *> > >::~_Alloc_construct_ptr<std::allocator<std::_Tree_node<std::pair<unsigned long const ,int>,void *> > >
__unwindfunclet$?MakeItem@CUltimateWeapon@@QAEHPAVCUser@@PAK@Z$8:
  00021	8d 8d 90 fd ff
	ff		 lea	 ecx, DWORD PTR $T8[ebp]
  00027	e9 00 00 00 00	 jmp	 ??1?$_Alloc_construct_ptr@V?$allocator@U?$_Tree_node@U?$pair@$$CBKH@std@@PAX@std@@@std@@@std@@QAE@XZ ; std::_Alloc_construct_ptr<std::allocator<std::_Tree_node<std::pair<unsigned long const ,int>,void *> > >::~_Alloc_construct_ptr<std::allocator<std::_Tree_node<std::pair<unsigned long const ,int>,void *> > >
__unwindfunclet$?MakeItem@CUltimateWeapon@@QAEHPAVCUser@@PAK@Z$2:
  0002c	8d 8d 90 fe ff
	ff		 lea	 ecx, DWORD PTR _itemElemTemp$[ebp]
  00032	e9 00 00 00 00	 jmp	 ??1CItemElem@@UAE@XZ	; CItemElem::~CItemElem
__unwindfunclet$?MakeItem@CUltimateWeapon@@QAEHPAVCUser@@PAK@Z$3:
  00037	8d 8d 40 ff ff
	ff		 lea	 ecx, DWORD PTR _itemElem$[ebp]
  0003d	e9 00 00 00 00	 jmp	 ??1CItemElem@@UAE@XZ	; CItemElem::~CItemElem
  00042	cc		 int	 3
  00043	cc		 int	 3
  00044	cc		 int	 3
  00045	cc		 int	 3
  00046	cc		 int	 3
__ehhandler$?MakeItem@CUltimateWeapon@@QAEHPAVCUser@@PAK@Z:
  00047	90		 npad	 1
  00048	90		 npad	 1
  00049	8b 54 24 08	 mov	 edx, DWORD PTR [esp+8]
  0004d	8d 42 0c	 lea	 eax, DWORD PTR [edx+12]
  00050	8b 8a 44 fd ff
	ff		 mov	 ecx, DWORD PTR [edx-700]
  00056	33 c8		 xor	 ecx, eax
  00058	e8 00 00 00 00	 call	 @__security_check_cookie@4
  0005d	8b 4a fc	 mov	 ecx, DWORD PTR [edx-4]
  00060	33 c8		 xor	 ecx, eax
  00062	e8 00 00 00 00	 call	 @__security_check_cookie@4
  00067	b8 00 00 00 00	 mov	 eax, OFFSET __ehfuncinfo$?MakeItem@CUltimateWeapon@@QAEHPAVCUser@@PAK@Z
  0006c	e9 00 00 00 00	 jmp	 ___CxxFrameHandler3
text$x	ENDS
?MakeItem@CUltimateWeapon@@QAEHPAVCUser@@PAK@Z ENDP	; CUltimateWeapon::MakeItem
; Function compile flags: /Ogtp
; File C:\IAGOS\server\v18\Source\Source\_Common\UltimateWeapon.cpp
; File C:\IAGOS\server\v18\Source\Source\_Common\Item.h
; File C:\IAGOS\server\v18\Source\Source\_Common\Project.h
; File C:\IAGOS\server\v18\Source\Source\_Common\data.h
; File C:\IAGOS\server\v18\Source\Source\_Common\Project.h
; File C:\IAGOS\server\v18\Source\Source\_Common\UltimateWeapon.cpp
; File C:\IAGOS\server\v18\Source\Source\_Common\Item.h
; File C:\IAGOS\server\v18\Source\Source\_Common\UltimateWeapon.cpp
; File C:\IAGOS\server\v18\Source\Source\_Common\xUtil.h
; File C:\IAGOS\server\v18\Source\Source\_Common\UltimateWeapon.cpp
; File C:\IAGOS\server\v18\Source\Source\_Common\Item.h
; File C:\IAGOS\server\v18\Source\Source\_Common\UltimateWeapon.cpp
; File C:\IAGOS\server\v18\Source\Source\_Common\Item.h
; File C:\IAGOS\server\v18\Source\Source\_Common\UltimateWeapon.cpp
;	COMDAT ?RemoveGem@CUltimateWeapon@@QAEHPAVCUser@@KK@Z
_TEXT	SEGMENT
_pUser$GSCopy$1$ = -224					; size = 4
_this$1$ = -220						; size = 4
_objItemId$GSCopy$1$ = -216				; size = 4
_objItemGem$GSCopy$1$ = -212				; size = 4
_aLogItem$ = -204					; size = 200
__$ArrayPad$ = -4					; size = 4
_pUser$ = 8						; size = 4
_objItemId$ = 12					; size = 4
_objItemGem$ = 16					; size = 4
?RemoveGem@CUltimateWeapon@@QAEHPAVCUser@@KK@Z PROC	; CUltimateWeapon::RemoveGem, COMDAT
; _this$ = ecx

; 352  : {

  00000	55		 push	 ebp
  00001	8b ec		 mov	 ebp, esp
  00003	81 ec e0 00 00
	00		 sub	 esp, 224		; 000000e0H
  00009	a1 00 00 00 00	 mov	 eax, DWORD PTR ___security_cookie
  0000e	33 c5		 xor	 eax, ebp
  00010	89 45 fc	 mov	 DWORD PTR __$ArrayPad$[ebp], eax
  00013	8b 45 0c	 mov	 eax, DWORD PTR _objItemId$[ebp]
  00016	53		 push	 ebx
  00017	56		 push	 esi
  00018	8b 75 08	 mov	 esi, DWORD PTR _pUser$[ebp]
  0001b	89 8d 24 ff ff
	ff		 mov	 DWORD PTR _this$1$[ebp], ecx
  00021	8b 4d 10	 mov	 ecx, DWORD PTR _objItemGem$[ebp]
  00024	57		 push	 edi
  00025	89 8d 2c ff ff
	ff		 mov	 DWORD PTR _objItemGem$GSCopy$1$[ebp], ecx

; 353  : 	CItemElem* pItemElem	= pUser->m_Inventory.GetAtId( objItemId );

  0002b	8d 8e fc 0a 00
	00		 lea	 ecx, DWORD PTR [esi+2812]
  00031	50		 push	 eax
  00032	89 b5 20 ff ff
	ff		 mov	 DWORD PTR _pUser$GSCopy$1$[ebp], esi
  00038	89 85 28 ff ff
	ff		 mov	 DWORD PTR _objItemId$GSCopy$1$[ebp], eax
  0003e	e8 00 00 00 00	 call	 ?GetAtId@?$CItemContainer@VCItemElem@@@@QAEPAVCItemElem@@K@Z ; CItemContainer<CItemElem>::GetAtId

; 354  : 	CItemElem* pItemElemGem	= pUser->m_Inventory.GetAtId( objItemGem );

  00043	ff b5 2c ff ff
	ff		 push	 DWORD PTR _objItemGem$GSCopy$1$[ebp]
  00049	8d 8e fc 0a 00
	00		 lea	 ecx, DWORD PTR [esi+2812]
  0004f	8b d8		 mov	 ebx, eax
  00051	e8 00 00 00 00	 call	 ?GetAtId@?$CItemContainer@VCItemElem@@@@QAEPAVCItemElem@@K@Z ; CItemContainer<CItemElem>::GetAtId

; 355  : 	if( !IsUsableItem( pItemElem ) || !IsUsableItem( pItemElemGem ) )

  00056	53		 push	 ebx
  00057	8b f8		 mov	 edi, eax
  00059	e8 00 00 00 00	 call	 ?IsUsableItem@@YAHPAVCItemBase@@@Z ; IsUsableItem
  0005e	83 c4 04	 add	 esp, 4
  00061	85 c0		 test	 eax, eax
  00063	0f 84 af 00 00
	00		 je	 $LN6@RemoveGem
  00069	57		 push	 edi
  0006a	e8 00 00 00 00	 call	 ?IsUsableItem@@YAHPAVCItemBase@@@Z ; IsUsableItem
  0006f	83 c4 04	 add	 esp, 4
  00072	85 c0		 test	 eax, eax
  00074	0f 84 9e 00 00
	00		 je	 $LN6@RemoveGem
; File C:\IAGOS\server\v18\Source\Source\_Common\Item.h

; 230  : 	ItemProp*	GetProp()	{	return prj.GetItemProp( m_dwItemId );	}

  0007a	8b 4b 0c	 mov	 ecx, DWORD PTR [ebx+12]
; File C:\IAGOS\server\v18\Source\Source\_Common\Project.h

; 1389 : 	VERIFY_RANGE_ASSERT( nIndex, 0, m_aPropItem.GetSize(), "GetItemProp range_error", NULL );

  0007d	a1 40 02 00 00	 mov	 eax, DWORD PTR ?prj@@3VCProject@@A+576
  00082	85 c9		 test	 ecx, ecx
  00084	78 10		 js	 SHORT $LN21@RemoveGem
  00086	3b c8		 cmp	 ecx, eax
  00088	7d 0c		 jge	 SHORT $LN21@RemoveGem
; File C:\IAGOS\server\v18\Source\Source\_Common\data.h

; 270  : 	if( dwIndex >= (DWORD)m_nMaxIndex )

  0008a	73 20		 jae	 SHORT $LN57@RemoveGem

; 271  : 		return NULL;
; 272  : 	return (T*) m_apOffset[ dwIndex ];

  0008c	a1 30 02 00 00	 mov	 eax, DWORD PTR ?prj@@3VCProject@@A+560
  00091	8b 04 88	 mov	 eax, DWORD PTR [eax+ecx*4]
; File C:\IAGOS\server\v18\Source\Source\_Common\Project.h

; 1390 : 	return m_aPropItem.GetAt( nIndex ); 

  00094	eb 18		 jmp	 SHORT $LN16@RemoveGem
$LN21@RemoveGem:

; 579  : 	LPCTSTR szErr = Error( _T( "%s min:%d, max:%d, index:%d" ), szMsg, nMin, nMax, nIndex ); 

  00096	51		 push	 ecx
  00097	50		 push	 eax
  00098	6a 00		 push	 0
  0009a	68 00 00 00 00	 push	 OFFSET ??_C@_0BI@BEIFNGEL@GetItemProp?5range_error@
  0009f	68 00 00 00 00	 push	 OFFSET ??_C@_0BM@HMFGHCP@?$CFs?5min?3?$CFd?0?5max?3?$CFd?0?5index?3?$CFd@
  000a4	e8 00 00 00 00	 call	 ?Error@@YAPBDPBDZZ	; Error
  000a9	83 c4 14	 add	 esp, 20			; 00000014H
$LN57@RemoveGem:
; File C:\IAGOS\server\v18\Source\Source\_Common\UltimateWeapon.cpp

; 358  : 	if( pItemElem->GetProp()->dwReferStat1 != WEAPON_ULTIMATE )

  000ac	33 c0		 xor	 eax, eax
$LN16@RemoveGem:
  000ae	83 b8 d0 01 00
	00 02		 cmp	 DWORD PTR [eax+464], 2
  000b5	74 18		 je	 SHORT $LN7@RemoveGem

; 416  : 	return ULTIMATE_FAILED;
; 417  : }

  000b7	5f		 pop	 edi
  000b8	5e		 pop	 esi
  000b9	b8 05 00 00 00	 mov	 eax, 5
  000be	5b		 pop	 ebx
  000bf	8b 4d fc	 mov	 ecx, DWORD PTR __$ArrayPad$[ebp]
  000c2	33 cd		 xor	 ecx, ebp
  000c4	e8 00 00 00 00	 call	 @__security_check_cookie@4
  000c9	8b e5		 mov	 esp, ebp
  000cb	5d		 pop	 ebp
  000cc	c2 0c 00	 ret	 12			; 0000000cH
$LN7@RemoveGem:
; File C:\IAGOS\server\v18\Source\Source\_Common\Item.h

; 113  : 	DWORD	GetUltimatePiercingItem( int nth )	{	return m_piercing.GetUltimatePiercingItem( nth );	}

  000cf	6a 00		 push	 0
  000d1	8d 4b 3c	 lea	 ecx, DWORD PTR [ebx+60]
  000d4	e8 00 00 00 00	 call	 ?GetUltimatePiercingItem@CPiercing@@QAEKH@Z ; CPiercing::GetUltimatePiercingItem
; File C:\IAGOS\server\v18\Source\Source\_Common\UltimateWeapon.cpp

; 363  : 	if( pItemElem->GetUltimatePiercingItem( 0 ) == 0 )

  000d9	85 c0		 test	 eax, eax
  000db	74 3b		 je	 SHORT $LN6@RemoveGem

; 364  : #else // __EXT_PIERCING
; 365  : 	if( pItemElem->GetPiercingItem( 0 ) == 0 )
; 366  : #endif // __EXT_PIERCING
; 367  : 		return ULTIMATE_CANCEL;
; 368  : 
; 369  : 	if( pItemElemGem->m_dwItemId != II_GEN_MAT_MOONSTONE
; 370  : 		&& pItemElemGem->m_dwItemId != II_GEN_MAT_MOONSTONE_1 )

  000dd	8b c7		 mov	 eax, edi
  000df	8b 40 0c	 mov	 eax, DWORD PTR [eax+12]
  000e2	3d f4 07 00 00	 cmp	 eax, 2036		; 000007f4H
  000e7	74 07		 je	 SHORT $LN9@RemoveGem
  000e9	3d 23 08 00 00	 cmp	 eax, 2083		; 00000823H
  000ee	75 28		 jne	 SHORT $LN6@RemoveGem
$LN9@RemoveGem:

; 371  : 		return ULTIMATE_CANCEL;
; 372  :  
; 373  : 	// ŔĺÂř µÇľî ŔÖŔ» ¶§ X
; 374  : 	if( pUser->m_Inventory.IsEquip( objItemId ) )

  000f0	ff b5 28 ff ff
	ff		 push	 DWORD PTR _objItemId$GSCopy$1$[ebp]
  000f6	8d 8e fc 0a 00
	00		 lea	 ecx, DWORD PTR [esi+2812]
  000fc	e8 00 00 00 00	 call	 ?IsEquip@?$CItemContainer@VCItemElem@@@@QAEHK@Z ; CItemContainer<CItemElem>::IsEquip
  00101	85 c0		 test	 eax, eax
  00103	74 2b		 je	 SHORT $LN10@RemoveGem

; 375  : 	{
; 376  : 		pUser->AddDefinedText( TID_GAME_ULTIMATE_ISEQUIP , "" );

  00105	68 00 00 00 00	 push	 OFFSET ??_C@_00CNPNBAHC@@
  0010a	68 f4 0c 00 00	 push	 3316			; 00000cf4H
  0010f	56		 push	 esi
  00110	e8 00 00 00 00	 call	 ?AddDefinedText@CUser@@QAAXHPBDZZ ; CUser::AddDefinedText
  00115	83 c4 0c	 add	 esp, 12			; 0000000cH
$LN6@RemoveGem:

; 416  : 	return ULTIMATE_FAILED;
; 417  : }

  00118	5f		 pop	 edi
  00119	5e		 pop	 esi
  0011a	b8 02 00 00 00	 mov	 eax, 2
  0011f	5b		 pop	 ebx
  00120	8b 4d fc	 mov	 ecx, DWORD PTR __$ArrayPad$[ebp]
  00123	33 cd		 xor	 ecx, ebp
  00125	e8 00 00 00 00	 call	 @__security_check_cookie@4
  0012a	8b e5		 mov	 esp, ebp
  0012c	5d		 pop	 ebp
  0012d	c2 0c 00	 ret	 12			; 0000000cH
$LN10@RemoveGem:

; 377  : 		return ULTIMATE_CANCEL;
; 378  : 	}	
; 379  : 
; 380  : 	// ą®˝şĹć »čÁ¦
; 381  : 	LogItemInfo aLogItem;

  00130	8d 8d 34 ff ff
	ff		 lea	 ecx, DWORD PTR _aLogItem$[ebp]
  00136	e8 00 00 00 00	 call	 ??0_LogItemInfo@@QAE@XZ	; _LogItemInfo::_LogItemInfo

; 382  : 	aLogItem.Action = "-";
; 383  : 	aLogItem.SendName = pUser->GetName();

  0013b	6a 00		 push	 0
  0013d	8b ce		 mov	 ecx, esi
  0013f	c7 85 34 ff ff
	ff 00 00 00 00	 mov	 DWORD PTR _aLogItem$[ebp], OFFSET ??_C@_01JOAMLHOP@?9@
  00149	e8 00 00 00 00	 call	 ?GetName@CMover@@QAEPBDH@Z ; CMover::GetName
  0014e	89 85 38 ff ff
	ff		 mov	 DWORD PTR _aLogItem$[ebp+4], eax

; 384  : 	aLogItem.RecvName = "ULTIMATE_PIERCING_REMOVE";
; 385  : 	aLogItem.WorldId = pUser->GetWorld()->GetID();
; 386  : 	aLogItem.Gold = aLogItem.Gold2 = pUser->GetGold();
; 387  : 	g_DPSrvr.OnLogItem( aLogItem, pItemElemGem, 1 );

  00154	b9 00 00 00 00	 mov	 ecx, OFFSET ?g_DPSrvr@@3VCDPSrvr@@A ; g_DPSrvr
  00159	8b 86 6c 01 00
	00		 mov	 eax, DWORD PTR [esi+364]
  0015f	c7 85 3c ff ff
	ff 00 00 00 00	 mov	 DWORD PTR _aLogItem$[ebp+8], OFFSET ??_C@_0BJ@NGNDNHNK@ULTIMATE_PIERCING_REMOVE@
  00169	6a 01		 push	 1
  0016b	57		 push	 edi
  0016c	8b 00		 mov	 eax, DWORD PTR [eax]
  0016e	89 85 40 ff ff
	ff		 mov	 DWORD PTR _aLogItem$[ebp+12], eax
  00174	8b 86 e0 14 00
	00		 mov	 eax, DWORD PTR [esi+5344]
  0017a	89 85 48 ff ff
	ff		 mov	 DWORD PTR _aLogItem$[ebp+20], eax
  00180	89 85 44 ff ff
	ff		 mov	 DWORD PTR _aLogItem$[ebp+16], eax
  00186	8d 85 34 ff ff
	ff		 lea	 eax, DWORD PTR _aLogItem$[ebp]
  0018c	50		 push	 eax
  0018d	e8 00 00 00 00	 call	 ?OnLogItem@CDPSrvr@@QAEXAAU_LogItemInfo@@PAVCItemElem@@H@Z ; CDPSrvr::OnLogItem

; 388  : 	pUser->RemoveItem( (BYTE)( objItemGem ), 1 );

  00192	6a 01		 push	 1
  00194	ff b5 2c ff ff
	ff		 push	 DWORD PTR _objItemGem$GSCopy$1$[ebp]
  0019a	8b ce		 mov	 ecx, esi
  0019c	e8 00 00 00 00	 call	 ?RemoveItem@CMover@@QAEXEF@Z ; CMover::RemoveItem
; File C:\IAGOS\server\v18\Source\Source\_Common\xUtil.h

; 16   : 	g_next = g_next * 1103515245 + 12345;// + nRandomSeed[ i++ ];

  001a1	69 0d 00 00 00
	00 6d 4e c6 41	 imul	 ecx, DWORD PTR ?g_next@@3KA, 1103515245 ; g_next

; 22   : 	return  xRand() % num;

  001ab	b8 83 de 1b 43	 mov	 eax, 1125899907		; 431bde83H

; 16   : 	g_next = g_next * 1103515245 + 12345;// + nRandomSeed[ i++ ];

  001b0	81 c1 39 30 00
	00		 add	 ecx, 12345		; 00003039H

; 22   : 	return  xRand() % num;

  001b6	f7 e1		 mul	 ecx

; 16   : 	g_next = g_next * 1103515245 + 12345;// + nRandomSeed[ i++ ];

  001b8	89 0d 00 00 00
	00		 mov	 DWORD PTR ?g_next@@3KA, ecx ; g_next

; 22   : 	return  xRand() % num;

  001be	c1 ea 12	 shr	 edx, 18			; 00000012H
  001c1	69 c2 40 42 0f
	00		 imul	 eax, edx, 1000000
  001c7	2b c8		 sub	 ecx, eax
; File C:\IAGOS\server\v18\Source\Source\_Common\UltimateWeapon.cpp

; 391  : 	if( nRandom < m_nRemoveGemProb )

  001c9	8b 85 24 ff ff
	ff		 mov	 eax, DWORD PTR _this$1$[ebp]
  001cf	3b 48 30	 cmp	 ecx, DWORD PTR [eax+48]
  001d2	0f 8d 7f 00 00
	00		 jge	 $LN11@RemoveGem
; File C:\IAGOS\server\v18\Source\Source\_Common\Item.h

; 111  : 	int		GetUltimatePiercingSize()	{	return m_piercing.GetUltimatePiercingSize();		}

  001d8	8d 4b 3c	 lea	 ecx, DWORD PTR [ebx+60]
  001db	e8 00 00 00 00	 call	 ?GetUltimatePiercingSize@CPiercing@@QAEHXZ ; CPiercing::GetUltimatePiercingSize
  001e0	8b f0		 mov	 esi, eax
; File C:\IAGOS\server\v18\Source\Source\_Common\UltimateWeapon.cpp

; 395  : 		for( int i=pItemElem->GetUltimatePiercingSize()-1; i>=0; i-- )

  001e2	83 ee 01	 sub	 esi, 1
  001e5	78 5b		 js	 SHORT $LN3@RemoveGem
$LL4@RemoveGem:
; File C:\IAGOS\server\v18\Source\Source\_Common\Item.h

; 113  : 	DWORD	GetUltimatePiercingItem( int nth )	{	return m_piercing.GetUltimatePiercingItem( nth );	}

  001e7	56		 push	 esi
  001e8	8d 4b 3c	 lea	 ecx, DWORD PTR [ebx+60]
  001eb	e8 00 00 00 00	 call	 ?GetUltimatePiercingItem@CPiercing@@QAEKH@Z ; CPiercing::GetUltimatePiercingItem
; File C:\IAGOS\server\v18\Source\Source\_Common\UltimateWeapon.cpp

; 397  : 			if( pItemElem->GetUltimatePiercingItem( i ) != 0 )

  001f0	85 c0		 test	 eax, eax
  001f2	75 18		 jne	 SHORT $LN39@RemoveGem

; 395  : 		for( int i=pItemElem->GetUltimatePiercingSize()-1; i>=0; i-- )

  001f4	83 ee 01	 sub	 esi, 1
  001f7	79 ee		 jns	 SHORT $LL4@RemoveGem

; 416  : 	return ULTIMATE_FAILED;
; 417  : }

  001f9	5f		 pop	 edi
  001fa	5e		 pop	 esi
  001fb	5b		 pop	 ebx
  001fc	8b 4d fc	 mov	 ecx, DWORD PTR __$ArrayPad$[ebp]
  001ff	33 cd		 xor	 ecx, ebp
  00201	e8 00 00 00 00	 call	 @__security_check_cookie@4
  00206	8b e5		 mov	 esp, ebp
  00208	5d		 pop	 ebp
  00209	c2 0c 00	 ret	 12			; 0000000cH
$LN39@RemoveGem:

; 398  : 			{
; 399  : 				pUser->UpdateItem( (BYTE)( pItemElem->m_dwObjId ), UI_ULTIMATE_PIERCING, MAKELONG( i, 0 ) );

  0020c	8b 8d 20 ff ff
	ff		 mov	 ecx, DWORD PTR _pUser$GSCopy$1$[ebp]
  00212	6a 00		 push	 0
  00214	0f b7 c6	 movzx	 eax, si
  00217	50		 push	 eax
  00218	0f b6 43 04	 movzx	 eax, BYTE PTR [ebx+4]
  0021c	6a 0e		 push	 14			; 0000000eH
  0021e	50		 push	 eax
  0021f	e8 00 00 00 00	 call	 ?UpdateItem@CMover@@QAEXEDKK@Z ; CMover::UpdateItem

; 400  : #else // __EXT_PIERCING
; 401  : 		for( int i=pItemElem->GetPiercingSize()-1; i>=0; i-- )
; 402  : 		{
; 403  : 			if( pItemElem->GetPiercingItem( i ) != 0 )
; 404  : 			{
; 405  : 				pUser->UpdateItem( pItemElem->m_dwObjId, UI_PIERCING, MAKELONG( i, 0 ) );
; 406  : #endif // __EXT_PIERCING
; 407  : 				aLogItem.RecvName = "ULTIMATE_PIERCING_REMOVE_SUC";
; 408  : 				g_DPSrvr.OnLogItem( aLogItem, pItemElem, 1 );

  00224	6a 01		 push	 1
  00226	53		 push	 ebx
  00227	8d 85 34 ff ff
	ff		 lea	 eax, DWORD PTR _aLogItem$[ebp]
  0022d	c7 85 3c ff ff
	ff 00 00 00 00	 mov	 DWORD PTR _aLogItem$[ebp+8], OFFSET ??_C@_0BN@NGFCJDLO@ULTIMATE_PIERCING_REMOVE_SUC@
  00237	50		 push	 eax
  00238	b9 00 00 00 00	 mov	 ecx, OFFSET ?g_DPSrvr@@3VCDPSrvr@@A ; g_DPSrvr
  0023d	e8 00 00 00 00	 call	 ?OnLogItem@CDPSrvr@@QAEXAAU_LogItemInfo@@PAVCItemElem@@H@Z ; CDPSrvr::OnLogItem
$LN3@RemoveGem:

; 416  : 	return ULTIMATE_FAILED;
; 417  : }

  00242	5f		 pop	 edi
  00243	5e		 pop	 esi
  00244	33 c0		 xor	 eax, eax
  00246	5b		 pop	 ebx
  00247	8b 4d fc	 mov	 ecx, DWORD PTR __$ArrayPad$[ebp]
  0024a	33 cd		 xor	 ecx, ebp
  0024c	e8 00 00 00 00	 call	 @__security_check_cookie@4
  00251	8b e5		 mov	 esp, ebp
  00253	5d		 pop	 ebp
  00254	c2 0c 00	 ret	 12			; 0000000cH
$LN11@RemoveGem:

; 409  : 				break;
; 410  : 			}
; 411  : 		}
; 412  : 		return ULTIMATE_SUCCESS;
; 413  : 	}
; 414  : 	aLogItem.RecvName = "ULTIMATE_PIERCING_REMOVE_FAIL";
; 415  : 	g_DPSrvr.OnLogItem( aLogItem, pItemElem );

  00257	6a 00		 push	 0
  00259	53		 push	 ebx
  0025a	8d 85 34 ff ff
	ff		 lea	 eax, DWORD PTR _aLogItem$[ebp]
  00260	c7 85 3c ff ff
	ff 00 00 00 00	 mov	 DWORD PTR _aLogItem$[ebp+8], OFFSET ??_C@_0BO@KCPJBPN@ULTIMATE_PIERCING_REMOVE_FAIL@
  0026a	50		 push	 eax
  0026b	b9 00 00 00 00	 mov	 ecx, OFFSET ?g_DPSrvr@@3VCDPSrvr@@A ; g_DPSrvr
  00270	e8 00 00 00 00	 call	 ?OnLogItem@CDPSrvr@@QAEXAAU_LogItemInfo@@PAVCItemElem@@H@Z ; CDPSrvr::OnLogItem

; 416  : 	return ULTIMATE_FAILED;
; 417  : }

  00275	8b 4d fc	 mov	 ecx, DWORD PTR __$ArrayPad$[ebp]
  00278	b8 01 00 00 00	 mov	 eax, 1
  0027d	5f		 pop	 edi
  0027e	5e		 pop	 esi
  0027f	33 cd		 xor	 ecx, ebp
  00281	5b		 pop	 ebx
  00282	e8 00 00 00 00	 call	 @__security_check_cookie@4
  00287	8b e5		 mov	 esp, ebp
  00289	5d		 pop	 ebp
  0028a	c2 0c 00	 ret	 12			; 0000000cH
?RemoveGem@CUltimateWeapon@@QAEHPAVCUser@@KK@Z ENDP	; CUltimateWeapon::RemoveGem
_TEXT	ENDS
; Function compile flags: /Ogtp
; File C:\IAGOS\server\v18\Source\Source\_Common\UltimateWeapon.cpp
; File C:\IAGOS\server\v18\Source\Source\_Common\Item.h
; File C:\IAGOS\server\v18\Source\Source\_Common\Project.h
; File C:\IAGOS\server\v18\Source\Source\_Common\data.h
; File C:\IAGOS\server\v18\Source\Source\_Common\Project.h
; File C:\IAGOS\server\v18\Source\Source\_Common\UltimateWeapon.cpp
; File C:\IAGOS\server\v18\Source\Source\_Common\Item.h
; File C:\IAGOS\server\v18\Source\Source\_Common\UltimateWeapon.cpp
; File C:\IAGOS\server\v18\Source\Source\_Common\Item.h
; File C:\IAGOS\server\v18\Source\Source\_Common\UltimateWeapon.cpp
; File C:\IAGOS\server\v18\Source\Source\_Common\Item.h
; File C:\IAGOS\server\v18\Source\Source\_Common\UltimateWeapon.cpp
; File C:\IAGOS\server\v18\Source\Source\_Common\Item.h
; File C:\IAGOS\server\v18\Source\Source\_Common\UltimateWeapon.cpp
; File C:\IAGOS\server\v18\Source\Source\_Common\Item.h
; File C:\IAGOS\server\v18\Source\Source\_Common\UltimateWeapon.cpp
; File C:\IAGOS\server\v18\Source\Source\_Common\Item.h
; File C:\IAGOS\server\v18\Source\Source\_Common\UltimateWeapon.cpp
; File C:\IAGOS\server\v18\Source\Source\_Common\xUtil.h
; File C:\IAGOS\server\v18\Source\Source\_Common\UltimateWeapon.cpp
; File C:\IAGOS\server\v18\Source\Source\_Common\xUtil.h
; File C:\IAGOS\server\v18\Source\Source\_Common\UltimateWeapon.cpp
;	COMDAT ?SetGem@CUltimateWeapon@@QAEHPAVCUser@@KK@Z
_TEXT	SEGMENT
_this$GSCopy$1$ = -224					; size = 4
_objGemItemId$GSCopy$1$ = -220				; size = 4
_pUser$GSCopy$1$ = -216					; size = 4
_dwSetItemId$1$ = -212					; size = 4
_objItemId$GSCopy$1$ = -212				; size = 4
_pGemItemElem$1$ = -208					; size = 4
_aLogItem$ = -204					; size = 200
__$ArrayPad$ = -4					; size = 4
_pUser$ = 8						; size = 4
_objItemId$ = 12					; size = 4
_objGemItemId$ = 16					; size = 4
?SetGem@CUltimateWeapon@@QAEHPAVCUser@@KK@Z PROC	; CUltimateWeapon::SetGem, COMDAT
; _this$ = ecx

; 279  : {

  00000	55		 push	 ebp
  00001	8b ec		 mov	 ebp, esp
  00003	81 ec e0 00 00
	00		 sub	 esp, 224		; 000000e0H
  00009	a1 00 00 00 00	 mov	 eax, DWORD PTR ___security_cookie
  0000e	33 c5		 xor	 eax, ebp
  00010	89 45 fc	 mov	 DWORD PTR __$ArrayPad$[ebp], eax
  00013	8b 45 0c	 mov	 eax, DWORD PTR _objItemId$[ebp]
  00016	53		 push	 ebx
  00017	56		 push	 esi
  00018	8b 75 08	 mov	 esi, DWORD PTR _pUser$[ebp]
  0001b	89 8d 20 ff ff
	ff		 mov	 DWORD PTR _this$GSCopy$1$[ebp], ecx
  00021	8b 4d 10	 mov	 ecx, DWORD PTR _objGemItemId$[ebp]
  00024	57		 push	 edi
  00025	89 8d 24 ff ff
	ff		 mov	 DWORD PTR _objGemItemId$GSCopy$1$[ebp], ecx

; 280  : 	CItemElem* pItemElem	= pUser->m_Inventory.GetAtId( objItemId );

  0002b	8d 8e fc 0a 00
	00		 lea	 ecx, DWORD PTR [esi+2812]
  00031	50		 push	 eax
  00032	89 b5 28 ff ff
	ff		 mov	 DWORD PTR _pUser$GSCopy$1$[ebp], esi
  00038	89 85 2c ff ff
	ff		 mov	 DWORD PTR _objItemId$GSCopy$1$[ebp], eax
  0003e	e8 00 00 00 00	 call	 ?GetAtId@?$CItemContainer@VCItemElem@@@@QAEPAVCItemElem@@K@Z ; CItemContainer<CItemElem>::GetAtId

; 281  : 	CItemElem* pGemItemElem	= pUser->m_Inventory.GetAtId( objGemItemId );

  00043	ff b5 24 ff ff
	ff		 push	 DWORD PTR _objGemItemId$GSCopy$1$[ebp]
  00049	8d 8e fc 0a 00
	00		 lea	 ecx, DWORD PTR [esi+2812]
  0004f	8b d8		 mov	 ebx, eax
  00051	e8 00 00 00 00	 call	 ?GetAtId@?$CItemContainer@VCItemElem@@@@QAEPAVCItemElem@@K@Z ; CItemContainer<CItemElem>::GetAtId

; 282  : 	if( !IsUsableItem( pItemElem ) || !IsUsableItem( pGemItemElem ) )

  00056	53		 push	 ebx
  00057	89 85 30 ff ff
	ff		 mov	 DWORD PTR _pGemItemElem$1$[ebp], eax
  0005d	e8 00 00 00 00	 call	 ?IsUsableItem@@YAHPAVCItemBase@@@Z ; IsUsableItem
  00062	83 c4 04	 add	 esp, 4
  00065	85 c0		 test	 eax, eax
  00067	0f 84 8f 00 00
	00		 je	 $LN6@SetGem
  0006d	ff b5 30 ff ff
	ff		 push	 DWORD PTR _pGemItemElem$1$[ebp]
  00073	e8 00 00 00 00	 call	 ?IsUsableItem@@YAHPAVCItemBase@@@Z ; IsUsableItem
  00078	83 c4 04	 add	 esp, 4
  0007b	85 c0		 test	 eax, eax
  0007d	74 7d		 je	 SHORT $LN6@SetGem
; File C:\IAGOS\server\v18\Source\Source\_Common\Item.h

; 230  : 	ItemProp*	GetProp()	{	return prj.GetItemProp( m_dwItemId );	}

  0007f	8b 4b 0c	 mov	 ecx, DWORD PTR [ebx+12]
; File C:\IAGOS\server\v18\Source\Source\_Common\Project.h

; 1389 : 	VERIFY_RANGE_ASSERT( nIndex, 0, m_aPropItem.GetSize(), "GetItemProp range_error", NULL );

  00082	a1 40 02 00 00	 mov	 eax, DWORD PTR ?prj@@3VCProject@@A+576
  00087	85 c9		 test	 ecx, ecx
  00089	78 10		 js	 SHORT $LN21@SetGem
  0008b	3b c8		 cmp	 ecx, eax
  0008d	7d 0c		 jge	 SHORT $LN21@SetGem
; File C:\IAGOS\server\v18\Source\Source\_Common\data.h

; 270  : 	if( dwIndex >= (DWORD)m_nMaxIndex )

  0008f	73 20		 jae	 SHORT $LN57@SetGem

; 271  : 		return NULL;
; 272  : 	return (T*) m_apOffset[ dwIndex ];

  00091	a1 30 02 00 00	 mov	 eax, DWORD PTR ?prj@@3VCProject@@A+560
  00096	8b 04 88	 mov	 eax, DWORD PTR [eax+ecx*4]
; File C:\IAGOS\server\v18\Source\Source\_Common\Project.h

; 1390 : 	return m_aPropItem.GetAt( nIndex ); 

  00099	eb 18		 jmp	 SHORT $LN16@SetGem
$LN21@SetGem:

; 579  : 	LPCTSTR szErr = Error( _T( "%s min:%d, max:%d, index:%d" ), szMsg, nMin, nMax, nIndex ); 

  0009b	51		 push	 ecx
  0009c	50		 push	 eax
  0009d	6a 00		 push	 0
  0009f	68 00 00 00 00	 push	 OFFSET ??_C@_0BI@BEIFNGEL@GetItemProp?5range_error@
  000a4	68 00 00 00 00	 push	 OFFSET ??_C@_0BM@HMFGHCP@?$CFs?5min?3?$CFd?0?5max?3?$CFd?0?5index?3?$CFd@
  000a9	e8 00 00 00 00	 call	 ?Error@@YAPBDPBDZZ	; Error
  000ae	83 c4 14	 add	 esp, 20			; 00000014H
$LN57@SetGem:
; File C:\IAGOS\server\v18\Source\Source\_Common\UltimateWeapon.cpp

; 286  : 	if( pItemElem->GetProp()->dwReferStat1 != WEAPON_ULTIMATE )

  000b1	33 c0		 xor	 eax, eax
$LN16@SetGem:
  000b3	83 b8 d0 01 00
	00 02		 cmp	 DWORD PTR [eax+464], 2
  000ba	74 18		 je	 SHORT $LN7@SetGem

; 347  : 	return ULTIMATE_FAILED;
; 348  : }

  000bc	5f		 pop	 edi
  000bd	5e		 pop	 esi
  000be	b8 05 00 00 00	 mov	 eax, 5
  000c3	5b		 pop	 ebx
  000c4	8b 4d fc	 mov	 ecx, DWORD PTR __$ArrayPad$[ebp]
  000c7	33 cd		 xor	 ecx, ebp
  000c9	e8 00 00 00 00	 call	 @__security_check_cookie@4
  000ce	8b e5		 mov	 esp, ebp
  000d0	5d		 pop	 ebp
  000d1	c2 0c 00	 ret	 12			; 0000000cH
$LN7@SetGem:

; 287  : 		return ULTIMATE_ISNOTULTIMATE;
; 288  : 
; 289  : 
; 290  : 	// ŔĺÂřµÇľî ŔÖŔ¸¸é Áß´Ü
; 291  : 	if( pUser->m_Inventory.IsEquip( objItemId ) )

  000d4	ff b5 2c ff ff
	ff		 push	 DWORD PTR _objItemId$GSCopy$1$[ebp]
  000da	8d 8e fc 0a 00
	00		 lea	 ecx, DWORD PTR [esi+2812]
  000e0	e8 00 00 00 00	 call	 ?IsEquip@?$CItemContainer@VCItemElem@@@@QAEHK@Z ; CItemContainer<CItemElem>::IsEquip
  000e5	85 c0		 test	 eax, eax
  000e7	74 2b		 je	 SHORT $LN8@SetGem

; 292  : 	{
; 293  : 		pUser->AddDefinedText( TID_GAME_ULTIMATE_ISEQUIP , "" );

  000e9	68 00 00 00 00	 push	 OFFSET ??_C@_00CNPNBAHC@@
  000ee	68 f4 0c 00 00	 push	 3316			; 00000cf4H
  000f3	56		 push	 esi
$LN58@SetGem:

; 347  : 	return ULTIMATE_FAILED;
; 348  : }

  000f4	e8 00 00 00 00	 call	 ?AddDefinedText@CUser@@QAAXHPBDZZ ; CUser::AddDefinedText
  000f9	83 c4 0c	 add	 esp, 12			; 0000000cH
$LN6@SetGem:
  000fc	5f		 pop	 edi
  000fd	5e		 pop	 esi
  000fe	b8 02 00 00 00	 mov	 eax, 2
  00103	5b		 pop	 ebx
  00104	8b 4d fc	 mov	 ecx, DWORD PTR __$ArrayPad$[ebp]
  00107	33 cd		 xor	 ecx, ebp
  00109	e8 00 00 00 00	 call	 @__security_check_cookie@4
  0010e	8b e5		 mov	 esp, ebp
  00110	5d		 pop	 ebp
  00111	c2 0c 00	 ret	 12			; 0000000cH
$LN8@SetGem:
; File C:\IAGOS\server\v18\Source\Source\_Common\Item.h

; 111  : 	int		GetUltimatePiercingSize()	{	return m_piercing.GetUltimatePiercingSize();		}

  00114	8d 4b 3c	 lea	 ecx, DWORD PTR [ebx+60]
; File C:\IAGOS\server\v18\Source\Source\_Common\UltimateWeapon.cpp

; 298  : 	int nCount = NULL;

  00117	33 f6		 xor	 esi, esi
; File C:\IAGOS\server\v18\Source\Source\_Common\Item.h

; 111  : 	int		GetUltimatePiercingSize()	{	return m_piercing.GetUltimatePiercingSize();		}

  00119	e8 00 00 00 00	 call	 ?GetUltimatePiercingSize@CPiercing@@QAEHXZ ; CPiercing::GetUltimatePiercingSize
; File C:\IAGOS\server\v18\Source\Source\_Common\UltimateWeapon.cpp

; 299  : 	for( ; nCount < pItemElem->GetUltimatePiercingSize(); nCount++ )

  0011e	85 c0		 test	 eax, eax
  00120	7e 1a		 jle	 SHORT $LN44@SetGem
$LL4@SetGem:
; File C:\IAGOS\server\v18\Source\Source\_Common\Item.h

; 113  : 	DWORD	GetUltimatePiercingItem( int nth )	{	return m_piercing.GetUltimatePiercingItem( nth );	}

  00122	56		 push	 esi
  00123	8d 4b 3c	 lea	 ecx, DWORD PTR [ebx+60]
  00126	e8 00 00 00 00	 call	 ?GetUltimatePiercingItem@CPiercing@@QAEKH@Z ; CPiercing::GetUltimatePiercingItem
; File C:\IAGOS\server\v18\Source\Source\_Common\UltimateWeapon.cpp

; 300  : 		if( pItemElem->GetUltimatePiercingItem( nCount ) == 0 )

  0012b	85 c0		 test	 eax, eax
  0012d	74 0d		 je	 SHORT $LN44@SetGem
; File C:\IAGOS\server\v18\Source\Source\_Common\Item.h

; 111  : 	int		GetUltimatePiercingSize()	{	return m_piercing.GetUltimatePiercingSize();		}

  0012f	8d 4b 3c	 lea	 ecx, DWORD PTR [ebx+60]
; File C:\IAGOS\server\v18\Source\Source\_Common\UltimateWeapon.cpp

; 299  : 	for( ; nCount < pItemElem->GetUltimatePiercingSize(); nCount++ )

  00132	46		 inc	 esi
; File C:\IAGOS\server\v18\Source\Source\_Common\Item.h

; 111  : 	int		GetUltimatePiercingSize()	{	return m_piercing.GetUltimatePiercingSize();		}

  00133	e8 00 00 00 00	 call	 ?GetUltimatePiercingSize@CPiercing@@QAEHXZ ; CPiercing::GetUltimatePiercingSize
; File C:\IAGOS\server\v18\Source\Source\_Common\UltimateWeapon.cpp

; 299  : 	for( ; nCount < pItemElem->GetUltimatePiercingSize(); nCount++ )

  00138	3b f0		 cmp	 esi, eax
  0013a	7c e6		 jl	 SHORT $LL4@SetGem
$LN44@SetGem:
; File C:\IAGOS\server\v18\Source\Source\_Common\Item.h

; 111  : 	int		GetUltimatePiercingSize()	{	return m_piercing.GetUltimatePiercingSize();		}

  0013c	8d 4b 3c	 lea	 ecx, DWORD PTR [ebx+60]
  0013f	e8 00 00 00 00	 call	 ?GetUltimatePiercingSize@CPiercing@@QAEHXZ ; CPiercing::GetUltimatePiercingSize
; File C:\IAGOS\server\v18\Source\Source\_Common\UltimateWeapon.cpp

; 309  : 	if( nCount == pItemElem->GetUltimatePiercingSize() )

  00144	3b f0		 cmp	 esi, eax
  00146	75 12		 jne	 SHORT $LN10@SetGem

; 310  : #else //__EXT_PIERCING
; 311  : 	if( nCount == pItemElem->GetPiercingSize() )
; 312  : #endif //__EXT_PIERCING
; 313  : 	{
; 314  : 		pUser->AddDefinedText( TID_GAME_ULTIMATE_GEMSPACE, "" );

  00148	68 00 00 00 00	 push	 OFFSET ??_C@_00CNPNBAHC@@
  0014d	68 f5 0c 00 00	 push	 3317			; 00000cf5H
  00152	ff b5 28 ff ff
	ff		 push	 DWORD PTR _pUser$GSCopy$1$[ebp]

; 315  : 		return ULTIMATE_CANCEL;

  00158	eb 9a		 jmp	 SHORT $LN58@SetGem
$LN10@SetGem:

; 316  : 	}
; 317  : 
; 318  : 	DWORD dwSetItemId = GetGemAbilityKindRandom( pGemItemElem->m_dwItemId );

  0015a	8b 85 30 ff ff
	ff		 mov	 eax, DWORD PTR _pGemItemElem$1$[ebp]
  00160	8b 8d 20 ff ff
	ff		 mov	 ecx, DWORD PTR _this$GSCopy$1$[ebp]
  00166	ff 70 0c	 push	 DWORD PTR [eax+12]
  00169	e8 00 00 00 00	 call	 ?GetGemAbilityKindRandom@CUltimateWeapon@@QAEKK@Z ; CUltimateWeapon::GetGemAbilityKindRandom
  0016e	89 85 2c ff ff
	ff		 mov	 DWORD PTR _dwSetItemId$1$[ebp], eax

; 319  : 	if( dwSetItemId == NULL_ID )

  00174	83 f8 ff	 cmp	 eax, -1
  00177	74 83		 je	 SHORT $LN6@SetGem

; 320  : 		return ULTIMATE_CANCEL;
; 321  : 	
; 322  : 	// ş¸Ľ® »čÁ¦
; 323  : 	LogItemInfo aLogItem;

  00179	8d 8d 34 ff ff
	ff		 lea	 ecx, DWORD PTR _aLogItem$[ebp]
  0017f	e8 00 00 00 00	 call	 ??0_LogItemInfo@@QAE@XZ	; _LogItemInfo::_LogItemInfo

; 324  : 	aLogItem.Action = "-";
; 325  : 	aLogItem.SendName = pUser->GetName();

  00184	8b bd 28 ff ff
	ff		 mov	 edi, DWORD PTR _pUser$GSCopy$1$[ebp]
  0018a	8b cf		 mov	 ecx, edi
  0018c	6a 00		 push	 0
  0018e	c7 85 34 ff ff
	ff 00 00 00 00	 mov	 DWORD PTR _aLogItem$[ebp], OFFSET ??_C@_01JOAMLHOP@?9@
  00198	e8 00 00 00 00	 call	 ?GetName@CMover@@QAEPBDH@Z ; CMover::GetName
  0019d	89 85 38 ff ff
	ff		 mov	 DWORD PTR _aLogItem$[ebp+4], eax

; 326  : 	aLogItem.RecvName = "ULTIMATE_PIERCING";
; 327  : 	aLogItem.WorldId = pUser->GetWorld()->GetID();
; 328  : 	aLogItem.Gold = aLogItem.Gold2 = pUser->GetGold();
; 329  : 	g_DPSrvr.OnLogItem( aLogItem, pGemItemElem, 1 );	

  001a3	b9 00 00 00 00	 mov	 ecx, OFFSET ?g_DPSrvr@@3VCDPSrvr@@A ; g_DPSrvr
  001a8	8b 87 6c 01 00
	00		 mov	 eax, DWORD PTR [edi+364]
  001ae	c7 85 3c ff ff
	ff 00 00 00 00	 mov	 DWORD PTR _aLogItem$[ebp+8], OFFSET ??_C@_0BC@OJCMHJFC@ULTIMATE_PIERCING@
  001b8	6a 01		 push	 1
  001ba	ff b5 30 ff ff
	ff		 push	 DWORD PTR _pGemItemElem$1$[ebp]
  001c0	8b 00		 mov	 eax, DWORD PTR [eax]
  001c2	89 85 40 ff ff
	ff		 mov	 DWORD PTR _aLogItem$[ebp+12], eax
  001c8	8b 87 e0 14 00
	00		 mov	 eax, DWORD PTR [edi+5344]
  001ce	89 85 48 ff ff
	ff		 mov	 DWORD PTR _aLogItem$[ebp+20], eax
  001d4	89 85 44 ff ff
	ff		 mov	 DWORD PTR _aLogItem$[ebp+16], eax
  001da	8d 85 34 ff ff
	ff		 lea	 eax, DWORD PTR _aLogItem$[ebp]
  001e0	50		 push	 eax
  001e1	e8 00 00 00 00	 call	 ?OnLogItem@CDPSrvr@@QAEXAAU_LogItemInfo@@PAVCItemElem@@H@Z ; CDPSrvr::OnLogItem

; 330  : 	pUser->RemoveItem( (BYTE)( objGemItemId ), 1 );

  001e6	6a 01		 push	 1
  001e8	ff b5 24 ff ff
	ff		 push	 DWORD PTR _objGemItemId$GSCopy$1$[ebp]
  001ee	8b cf		 mov	 ecx, edi
  001f0	e8 00 00 00 00	 call	 ?RemoveItem@CMover@@QAEXEF@Z ; CMover::RemoveItem
; File C:\IAGOS\server\v18\Source\Source\_Common\xUtil.h

; 16   : 	g_next = g_next * 1103515245 + 12345;// + nRandomSeed[ i++ ];

  001f5	69 0d 00 00 00
	00 6d 4e c6 41	 imul	 ecx, DWORD PTR ?g_next@@3KA, 1103515245 ; g_next

; 22   : 	return  xRand() % num;

  001ff	b8 83 de 1b 43	 mov	 eax, 1125899907		; 431bde83H
; File C:\IAGOS\server\v18\Source\Source\_Common\UltimateWeapon.cpp

; 333  : 	if( nRandom < m_nSetGemProb )

  00204	6a 00		 push	 0
; File C:\IAGOS\server\v18\Source\Source\_Common\xUtil.h

; 16   : 	g_next = g_next * 1103515245 + 12345;// + nRandomSeed[ i++ ];

  00206	81 c1 39 30 00
	00		 add	 ecx, 12345		; 00003039H

; 22   : 	return  xRand() % num;

  0020c	f7 e1		 mul	 ecx

; 16   : 	g_next = g_next * 1103515245 + 12345;// + nRandomSeed[ i++ ];

  0020e	89 0d 00 00 00
	00		 mov	 DWORD PTR ?g_next@@3KA, ecx ; g_next

; 22   : 	return  xRand() % num;

  00214	c1 ea 12	 shr	 edx, 18			; 00000012H
  00217	69 c2 40 42 0f
	00		 imul	 eax, edx, 1000000
  0021d	2b c8		 sub	 ecx, eax
; File C:\IAGOS\server\v18\Source\Source\_Common\UltimateWeapon.cpp

; 333  : 	if( nRandom < m_nSetGemProb )

  0021f	8b 85 20 ff ff
	ff		 mov	 eax, DWORD PTR _this$GSCopy$1$[ebp]
  00225	3b 48 2c	 cmp	 ecx, DWORD PTR [eax+44]
  00228	7d 53		 jge	 SHORT $LN12@SetGem

; 334  : 	{
; 335  : 		// ş¸Ľ® ÇŐĽş
; 336  : #if __VER >= 12 // __EXT_PIERCING
; 337  : 		pUser->UpdateItem( (BYTE)( pItemElem->m_dwObjId ), UI_ULTIMATE_PIERCING, MAKELONG( nCount, dwSetItemId ) );

  0022a	8b 85 2c ff ff
	ff		 mov	 eax, DWORD PTR _dwSetItemId$1$[ebp]
  00230	8b cf		 mov	 ecx, edi
  00232	0f b7 d0	 movzx	 edx, ax
  00235	c1 e2 10	 shl	 edx, 16			; 00000010H
  00238	0f b7 c6	 movzx	 eax, si
  0023b	0b d0		 or	 edx, eax
  0023d	0f b6 43 04	 movzx	 eax, BYTE PTR [ebx+4]
  00241	52		 push	 edx
  00242	6a 0e		 push	 14			; 0000000eH
  00244	50		 push	 eax
  00245	e8 00 00 00 00	 call	 ?UpdateItem@CMover@@QAEXEDKK@Z ; CMover::UpdateItem

; 338  : #else // __EXT_PIERCING
; 339  : 		pUser->UpdateItem( (BYTE)( pItemElem->m_dwObjId ), UI_PIERCING, MAKELONG( nCount, dwSetItemId ) );
; 340  : #endif // __EXT_PIERCING
; 341  : 		aLogItem.RecvName = "ULTIMATE_PIERCING_SUCCESS";
; 342  : 		g_DPSrvr.OnLogItem( aLogItem, pItemElem, 1 );

  0024a	6a 01		 push	 1
  0024c	53		 push	 ebx
  0024d	8d 85 34 ff ff
	ff		 lea	 eax, DWORD PTR _aLogItem$[ebp]
  00253	c7 85 3c ff ff
	ff 00 00 00 00	 mov	 DWORD PTR _aLogItem$[ebp+8], OFFSET ??_C@_0BK@PJMPNBBI@ULTIMATE_PIERCING_SUCCESS@
  0025d	50		 push	 eax
  0025e	b9 00 00 00 00	 mov	 ecx, OFFSET ?g_DPSrvr@@3VCDPSrvr@@A ; g_DPSrvr
  00263	e8 00 00 00 00	 call	 ?OnLogItem@CDPSrvr@@QAEXAAU_LogItemInfo@@PAVCItemElem@@H@Z ; CDPSrvr::OnLogItem
  00268	5f		 pop	 edi

; 347  : 	return ULTIMATE_FAILED;
; 348  : }

  00269	5e		 pop	 esi
  0026a	33 c0		 xor	 eax, eax
  0026c	5b		 pop	 ebx
  0026d	8b 4d fc	 mov	 ecx, DWORD PTR __$ArrayPad$[ebp]
  00270	33 cd		 xor	 ecx, ebp
  00272	e8 00 00 00 00	 call	 @__security_check_cookie@4
  00277	8b e5		 mov	 esp, ebp
  00279	5d		 pop	 ebp
  0027a	c2 0c 00	 ret	 12			; 0000000cH
$LN12@SetGem:

; 343  : 		return ULTIMATE_SUCCESS;	
; 344  : 	}
; 345  : 	aLogItem.RecvName = "ULTIMATE_PIERCING_FAILED";
; 346  : 	g_DPSrvr.OnLogItem( aLogItem, pItemElem );

  0027d	53		 push	 ebx
  0027e	8d 85 34 ff ff
	ff		 lea	 eax, DWORD PTR _aLogItem$[ebp]
  00284	c7 85 3c ff ff
	ff 00 00 00 00	 mov	 DWORD PTR _aLogItem$[ebp+8], OFFSET ??_C@_0BJ@DOJNAIFH@ULTIMATE_PIERCING_FAILED@
  0028e	50		 push	 eax
  0028f	b9 00 00 00 00	 mov	 ecx, OFFSET ?g_DPSrvr@@3VCDPSrvr@@A ; g_DPSrvr
  00294	e8 00 00 00 00	 call	 ?OnLogItem@CDPSrvr@@QAEXAAU_LogItemInfo@@PAVCItemElem@@H@Z ; CDPSrvr::OnLogItem

; 347  : 	return ULTIMATE_FAILED;
; 348  : }

  00299	8b 4d fc	 mov	 ecx, DWORD PTR __$ArrayPad$[ebp]
  0029c	b8 01 00 00 00	 mov	 eax, 1
  002a1	5f		 pop	 edi
  002a2	5e		 pop	 esi
  002a3	33 cd		 xor	 ecx, ebp
  002a5	5b		 pop	 ebx
  002a6	e8 00 00 00 00	 call	 @__security_check_cookie@4
  002ab	8b e5		 mov	 esp, ebp
  002ad	5d		 pop	 ebp
  002ae	c2 0c 00	 ret	 12			; 0000000cH
?SetGem@CUltimateWeapon@@QAEHPAVCUser@@KK@Z ENDP	; CUltimateWeapon::SetGem
_TEXT	ENDS
; Function compile flags: /Ogtp
; File C:\IAGOS\server\v18\Source\Source\_Common\UltimateWeapon.cpp
; File C:\IAGOS\server\v18\Source\Source\_Common\Item.h
; File C:\IAGOS\server\v18\Source\Source\_Common\Project.h
; File C:\IAGOS\server\v18\Source\Source\_Common\data.h
; File C:\IAGOS\server\v18\Source\Source\_Common\Project.h
; File C:\IAGOS\server\v18\Source\Source\_Common\UltimateWeapon.cpp
; File C:\IAGOS\server\v18\Source\Source\_Common\Item.h
; File C:\IAGOS\server\v18\Source\Source\_Common\Project.h
; File C:\IAGOS\server\v18\Source\Source\_Common\data.h
; File C:\IAGOS\server\v18\Source\Source\_Common\Project.h
; File C:\IAGOS\server\v18\Source\Source\_Common\UltimateWeapon.cpp
; File C:\Program Files\Microsoft Visual Studio\2022\Professional\VC\Tools\MSVC\14.44.35207\include\xtree
; File C:\IAGOS\server\v18\Source\Source\_Common\UltimateWeapon.cpp
; File C:\Program Files\Microsoft Visual Studio\2022\Professional\VC\Tools\MSVC\14.44.35207\include\xtree
; File C:\Program Files\Microsoft Visual Studio\2022\Professional\VC\Tools\MSVC\14.44.35207\include\type_traits
; File C:\Program Files\Microsoft Visual Studio\2022\Professional\VC\Tools\MSVC\14.44.35207\include\xtree
; File C:\IAGOS\server\v18\Source\Source\_Common\UltimateWeapon.cpp
; File C:\IAGOS\server\v18\Source\Source\_Common\xUtil.h
; File C:\IAGOS\server\v18\Source\Source\_Common\UltimateWeapon.cpp
; File C:\IAGOS\server\v18\Source\Source\_Common\xUtil.h
; File C:\IAGOS\server\v18\Source\Source\_Common\UltimateWeapon.cpp
;	COMDAT ?MakeGem@CUltimateWeapon@@QAEHPAVCUser@@KAAH@Z
_TEXT	SEGMENT
__Loc$2 = -608						; size = 12
_nNum$GSCopy$1$ = -596					; size = 4
_pUser$GSCopy$1$ = -592					; size = 4
_nOpt$ = -588						; size = 4
_dwItemId$1$ = -584					; size = 4
_objItemId$GSCopy$1$ = -580				; size = 4
tv790 = -576						; size = 4
tv796 = -576						; size = 4
_dwProb$1$ = -572					; size = 4
_this$GSCopy$1$ = -572					; size = 4
_aLogItem$ = -568					; size = 200
_itemElemTemp$ = -368					; size = 176
_itemElem$3 = -192					; size = 176
__$ArrayPad$ = -16					; size = 4
__$EHRec$ = -12						; size = 12
_pUser$ = 8						; size = 4
_objItemId$ = 12					; size = 4
_nNum$ = 16						; size = 4
?MakeGem@CUltimateWeapon@@QAEHPAVCUser@@KAAH@Z PROC	; CUltimateWeapon::MakeGem, COMDAT
; _this$ = ecx

; 189  : {

  00000	55		 push	 ebp
  00001	8b ec		 mov	 ebp, esp
  00003	6a ff		 push	 -1
  00005	68 00 00 00 00	 push	 __ehhandler$?MakeGem@CUltimateWeapon@@QAEHPAVCUser@@KAAH@Z
  0000a	64 a1 00 00 00
	00		 mov	 eax, DWORD PTR fs:0
  00010	50		 push	 eax
  00011	81 ec 54 02 00
	00		 sub	 esp, 596		; 00000254H
  00017	a1 00 00 00 00	 mov	 eax, DWORD PTR ___security_cookie
  0001c	33 c5		 xor	 eax, ebp
  0001e	89 45 f0	 mov	 DWORD PTR __$ArrayPad$[ebp], eax
  00021	53		 push	 ebx
  00022	56		 push	 esi
  00023	57		 push	 edi
  00024	50		 push	 eax
  00025	8d 45 f4	 lea	 eax, DWORD PTR __$EHRec$[ebp]
  00028	64 a3 00 00 00
	00		 mov	 DWORD PTR fs:0, eax
  0002e	89 8d c4 fd ff
	ff		 mov	 DWORD PTR _this$GSCopy$1$[ebp], ecx
  00034	8b 75 08	 mov	 esi, DWORD PTR _pUser$[ebp]
  00037	8b 45 0c	 mov	 eax, DWORD PTR _objItemId$[ebp]
  0003a	8b 4d 10	 mov	 ecx, DWORD PTR _nNum$[ebp]
  0003d	89 8d ac fd ff
	ff		 mov	 DWORD PTR _nNum$GSCopy$1$[ebp], ecx

; 190  : 	CItemElem* pItemElem	= pUser->m_Inventory.GetAtId( objItemId );

  00043	8d 9e fc 0a 00
	00		 lea	 ebx, DWORD PTR [esi+2812]
  00049	89 b5 b0 fd ff
	ff		 mov	 DWORD PTR _pUser$GSCopy$1$[ebp], esi
  0004f	50		 push	 eax
  00050	8b cb		 mov	 ecx, ebx
  00052	89 85 bc fd ff
	ff		 mov	 DWORD PTR _objItemId$GSCopy$1$[ebp], eax
  00058	89 9d c0 fd ff
	ff		 mov	 DWORD PTR tv796[ebp], ebx
  0005e	e8 00 00 00 00	 call	 ?GetAtId@?$CItemContainer@VCItemElem@@@@QAEPAVCItemElem@@K@Z ; CItemContainer<CItemElem>::GetAtId
  00063	8b f8		 mov	 edi, eax

; 191  : 	if( !IsUsableItem( pItemElem ) )

  00065	57		 push	 edi
  00066	e8 00 00 00 00	 call	 ?IsUsableItem@@YAHPAVCItemBase@@@Z ; IsUsableItem
  0006b	83 c4 04	 add	 esp, 4
  0006e	85 c0		 test	 eax, eax
  00070	0f 84 ad 00 00
	00		 je	 $LN124@MakeGem
; File C:\IAGOS\server\v18\Source\Source\_Common\Item.h

; 230  : 	ItemProp*	GetProp()	{	return prj.GetItemProp( m_dwItemId );	}

  00076	8b 4f 0c	 mov	 ecx, DWORD PTR [edi+12]
; File C:\IAGOS\server\v18\Source\Source\_Common\Project.h

; 1389 : 	VERIFY_RANGE_ASSERT( nIndex, 0, m_aPropItem.GetSize(), "GetItemProp range_error", NULL );

  00079	a1 40 02 00 00	 mov	 eax, DWORD PTR ?prj@@3VCProject@@A+576
  0007e	85 c9		 test	 ecx, ecx
  00080	78 11		 js	 SHORT $LN25@MakeGem
  00082	3b c8		 cmp	 ecx, eax
  00084	7d 0d		 jge	 SHORT $LN25@MakeGem
; File C:\IAGOS\server\v18\Source\Source\_Common\data.h

; 270  : 	if( dwIndex >= (DWORD)m_nMaxIndex )

  00086	8b 15 30 02 00
	00		 mov	 edx, DWORD PTR ?prj@@3VCProject@@A+560
  0008c	73 26		 jae	 SHORT $LN130@MakeGem

; 271  : 		return NULL;
; 272  : 	return (T*) m_apOffset[ dwIndex ];

  0008e	8b 0c 8a	 mov	 ecx, DWORD PTR [edx+ecx*4]
; File C:\IAGOS\server\v18\Source\Source\_Common\Project.h

; 1390 : 	return m_aPropItem.GetAt( nIndex ); 

  00091	eb 23		 jmp	 SHORT $LN20@MakeGem
$LN25@MakeGem:

; 579  : 	LPCTSTR szErr = Error( _T( "%s min:%d, max:%d, index:%d" ), szMsg, nMin, nMax, nIndex ); 

  00093	51		 push	 ecx
  00094	50		 push	 eax
  00095	6a 00		 push	 0
  00097	68 00 00 00 00	 push	 OFFSET ??_C@_0BI@BEIFNGEL@GetItemProp?5range_error@
  0009c	68 00 00 00 00	 push	 OFFSET ??_C@_0BM@HMFGHCP@?$CFs?5min?3?$CFd?0?5max?3?$CFd?0?5index?3?$CFd@
  000a1	e8 00 00 00 00	 call	 ?Error@@YAPBDPBDZZ	; Error

; 1389 : 	VERIFY_RANGE_ASSERT( nIndex, 0, m_aPropItem.GetSize(), "GetItemProp range_error", NULL );

  000a6	a1 40 02 00 00	 mov	 eax, DWORD PTR ?prj@@3VCProject@@A+576

; 579  : 	LPCTSTR szErr = Error( _T( "%s min:%d, max:%d, index:%d" ), szMsg, nMin, nMax, nIndex ); 

  000ab	83 c4 14	 add	 esp, 20			; 00000014H

; 1389 : 	VERIFY_RANGE_ASSERT( nIndex, 0, m_aPropItem.GetSize(), "GetItemProp range_error", NULL );

  000ae	8b 15 30 02 00
	00		 mov	 edx, DWORD PTR ?prj@@3VCProject@@A+560
$LN130@MakeGem:
; File C:\IAGOS\server\v18\Source\Source\_Common\UltimateWeapon.cpp

; 194  : 	if( pItemElem->GetProp()->dwItemKind1 != IK1_WEAPON )

  000b4	33 c9		 xor	 ecx, ecx
$LN20@MakeGem:
  000b6	83 79 70 01	 cmp	 DWORD PTR [ecx+112], 1
  000ba	75 67		 jne	 SHORT $LN124@MakeGem
; File C:\IAGOS\server\v18\Source\Source\_Common\Item.h

; 230  : 	ItemProp*	GetProp()	{	return prj.GetItemProp( m_dwItemId );	}

  000bc	8b 4f 0c	 mov	 ecx, DWORD PTR [edi+12]
; File C:\IAGOS\server\v18\Source\Source\_Common\Project.h

; 1389 : 	VERIFY_RANGE_ASSERT( nIndex, 0, m_aPropItem.GetSize(), "GetItemProp range_error", NULL );

  000bf	85 c9		 test	 ecx, ecx
  000c1	78 0b		 js	 SHORT $LN39@MakeGem
  000c3	3b c8		 cmp	 ecx, eax
  000c5	7d 07		 jge	 SHORT $LN39@MakeGem
; File C:\IAGOS\server\v18\Source\Source\_Common\data.h

; 270  : 	if( dwIndex >= (DWORD)m_nMaxIndex )

  000c7	73 1b		 jae	 SHORT $LN131@MakeGem

; 271  : 		return NULL;
; 272  : 	return (T*) m_apOffset[ dwIndex ];

  000c9	8b 04 8a	 mov	 eax, DWORD PTR [edx+ecx*4]
; File C:\IAGOS\server\v18\Source\Source\_Common\Project.h

; 1390 : 	return m_aPropItem.GetAt( nIndex ); 

  000cc	eb 18		 jmp	 SHORT $LN34@MakeGem
$LN39@MakeGem:

; 579  : 	LPCTSTR szErr = Error( _T( "%s min:%d, max:%d, index:%d" ), szMsg, nMin, nMax, nIndex ); 

  000ce	51		 push	 ecx
  000cf	50		 push	 eax
  000d0	6a 00		 push	 0
  000d2	68 00 00 00 00	 push	 OFFSET ??_C@_0BI@BEIFNGEL@GetItemProp?5range_error@
  000d7	68 00 00 00 00	 push	 OFFSET ??_C@_0BM@HMFGHCP@?$CFs?5min?3?$CFd?0?5max?3?$CFd?0?5index?3?$CFd@
  000dc	e8 00 00 00 00	 call	 ?Error@@YAPBDPBDZZ	; Error
  000e1	83 c4 14	 add	 esp, 20			; 00000014H
$LN131@MakeGem:
; File C:\IAGOS\server\v18\Source\Source\_Common\UltimateWeapon.cpp

; 202  : 	if(	pItemElem->GetProp()->dwReferStat1 != WEAPON_GENERAL &&

  000e4	33 c0		 xor	 eax, eax
$LN34@MakeGem:
  000e6	83 b8 d0 01 00
	00 00		 cmp	 DWORD PTR [eax+464], 0
  000ed	74 10		 je	 SHORT $LN4@MakeGem
  000ef	8b cf		 mov	 ecx, edi
  000f1	e8 00 00 00 00	 call	 ?GetPropA@CItemElem@@QAEPAUItemProp@@XZ ; CItemElem::GetPropA
  000f6	83 b8 d0 01 00
	00 01		 cmp	 DWORD PTR [eax+464], 1
  000fd	75 24		 jne	 SHORT $LN124@MakeGem
$LN4@MakeGem:

; 203  : 		pItemElem->GetProp()->dwReferStat1 != WEAPON_UNIQUE )
; 204  : 	{
; 205  : #ifdef __INTERNALSERVER
; 206  : 	pUser->AddText( "dwReferStat1 °ŞŔĚ WEAPON_GENERAL, WEAPON_UNIQUE °ˇ ľĆ´Ô." );
; 207  : #endif // __INTERNALSERVER
; 208  : 		return ULTIMATE_CANCEL;
; 209  : 	}
; 210  : 	
; 211  : 	// ŔĺÂřµÇľî ŔÖŔ¸¸é ĂëĽŇ
; 212  : 	if( pUser->m_Inventory.IsEquip( objItemId ) )

  000ff	ff b5 bc fd ff
	ff		 push	 DWORD PTR _objItemId$GSCopy$1$[ebp]
  00105	8b cb		 mov	 ecx, ebx
  00107	e8 00 00 00 00	 call	 ?IsEquip@?$CItemContainer@VCItemElem@@@@QAEHK@Z ; CItemContainer<CItemElem>::IsEquip
  0010c	85 c0		 test	 eax, eax
  0010e	74 36		 je	 SHORT $LN5@MakeGem

; 213  : 	{
; 214  : 		pUser->AddDefinedText( TID_GAME_ULTIMATE_ISEQUIP , "" );

  00110	68 00 00 00 00	 push	 OFFSET ??_C@_00CNPNBAHC@@
  00115	68 f4 0c 00 00	 push	 3316			; 00000cf4H
  0011a	56		 push	 esi
  0011b	e8 00 00 00 00	 call	 ?AddDefinedText@CUser@@QAAXHPBDZZ ; CUser::AddDefinedText
  00120	83 c4 0c	 add	 esp, 12			; 0000000cH
$LN124@MakeGem:

; 275  : }

  00123	b8 02 00 00 00	 mov	 eax, 2
$LN1@MakeGem:
  00128	8b 4d f4	 mov	 ecx, DWORD PTR __$EHRec$[ebp]
  0012b	64 89 0d 00 00
	00 00		 mov	 DWORD PTR fs:0, ecx
  00132	59		 pop	 ecx
  00133	5f		 pop	 edi
  00134	5e		 pop	 esi
  00135	5b		 pop	 ebx
  00136	8b 4d f0	 mov	 ecx, DWORD PTR __$ArrayPad$[ebp]
  00139	33 cd		 xor	 ecx, ebp
  0013b	e8 00 00 00 00	 call	 @__security_check_cookie@4
  00140	8b e5		 mov	 esp, ebp
  00142	5d		 pop	 ebp
  00143	c2 0c 00	 ret	 12			; 0000000cH
$LN5@MakeGem:

; 215  : 		return ULTIMATE_CANCEL;
; 216  : 	}
; 217  : 	// ·ąş§żˇ ÇŘ´çÇĎ´Â ş¸Ľ® 
; 218  : 	DWORD dwItemId = GetGemKind( pItemElem->GetProp()->dwLimitLevel1 );

  00146	8b cf		 mov	 ecx, edi
  00148	e8 00 00 00 00	 call	 ?GetPropA@CItemElem@@QAEPAUItemProp@@XZ ; CItemElem::GetPropA
  0014d	8b b5 c4 fd ff
	ff		 mov	 esi, DWORD PTR _this$GSCopy$1$[ebp]
  00153	8b ce		 mov	 ecx, esi
  00155	8b 80 30 02 00
	00		 mov	 eax, DWORD PTR [eax+560]
  0015b	50		 push	 eax
  0015c	e8 00 00 00 00	 call	 ?GetGemKind@CUltimateWeapon@@QAEKK@Z ; CUltimateWeapon::GetGemKind
  00161	89 85 b8 fd ff
	ff		 mov	 DWORD PTR _dwItemId$1$[ebp], eax

; 219  : 	if( dwItemId == NULL_ID )

  00167	83 f8 ff	 cmp	 eax, -1
  0016a	74 b7		 je	 SHORT $LN124@MakeGem

; 222  : 	int nOpt = pItemElem->GetAbilityOption();

  0016c	8b 5f 64	 mov	 ebx, DWORD PTR [edi+100]
; File C:\Program Files\Microsoft Visual Studio\2022\Professional\VC\Tools\MSVC\14.44.35207\include\xtree

; 1384 :         const _Tree_find_result<_Nodeptr> _Loc = _Find_lower_bound(_Keyval);

  0016f	8d 8d b4 fd ff
	ff		 lea	 ecx, DWORD PTR _nOpt$[ebp]
  00175	51		 push	 ecx
  00176	8d 8d a0 fd ff
	ff		 lea	 ecx, DWORD PTR __Loc$2[ebp]
; File C:\IAGOS\server\v18\Source\Source\_Common\UltimateWeapon.cpp

; 222  : 	int nOpt = pItemElem->GetAbilityOption();

  0017c	89 9d b4 fd ff
	ff		 mov	 DWORD PTR _nOpt$[ebp], ebx
; File C:\Program Files\Microsoft Visual Studio\2022\Professional\VC\Tools\MSVC\14.44.35207\include\xtree

; 1384 :         const _Tree_find_result<_Nodeptr> _Loc = _Find_lower_bound(_Keyval);

  00182	51		 push	 ecx
  00183	8d 4e 1c	 lea	 ecx, DWORD PTR [esi+28]
  00186	e8 00 00 00 00	 call	 ??$_Find_lower_bound@H@?$_Tree@V?$_Tmap_traits@HU__MAKEGEMPROB@CUltimateWeapon@@U?$less@H@std@@V?$allocator@U?$pair@$$CBHU__MAKEGEMPROB@CUltimateWeapon@@@std@@@4@$0A@@std@@@std@@IBE?AU?$_Tree_find_result@PAU?$_Tree_node@U?$pair@$$CBHU__MAKEGEMPROB@CUltimateWeapon@@@std@@PAX@std@@@1@ABH@Z ; std::_Tree<std::_Tmap_traits<int,CUltimateWeapon::__MAKEGEMPROB,std::less<int>,std::allocator<std::pair<int const ,CUltimateWeapon::__MAKEGEMPROB> >,0> >::_Find_lower_bound<int>

; 1624 :         return !_Bound->_Isnil && !_DEBUG_LT_PRED(_Getcomp(), _Keyval, _Traits::_Kfn(_Bound->_Myval));

  0018b	8b b5 a8 fd ff
	ff		 mov	 esi, DWORD PTR __Loc$2[ebp+8]
  00191	80 7e 0d 00	 cmp	 BYTE PTR [esi+13], 0
  00195	75 8c		 jne	 SHORT $LN124@MakeGem
; File C:\Program Files\Microsoft Visual Studio\2022\Professional\VC\Tools\MSVC\14.44.35207\include\type_traits

; 2380 :         return _Left < _Right;

  00197	3b 5e 10	 cmp	 ebx, DWORD PTR [esi+16]
; File C:\Program Files\Microsoft Visual Studio\2022\Professional\VC\Tools\MSVC\14.44.35207\include\xtree

; 1624 :         return !_Bound->_Isnil && !_DEBUG_LT_PRED(_Getcomp(), _Keyval, _Traits::_Kfn(_Bound->_Myval));

  0019a	7c 87		 jl	 SHORT $LN124@MakeGem

; 37   :     _Tree_unchecked_const_iterator(_Nodeptr _Pnode, const _Mytree* _Plist) noexcept : _Ptr(_Pnode) {

  0019c	8b 85 c4 fd ff
	ff		 mov	 eax, DWORD PTR _this$GSCopy$1$[ebp]
  001a2	3b 70 1c	 cmp	 esi, DWORD PTR [eax+28]
; File C:\IAGOS\server\v18\Source\Source\_Common\UltimateWeapon.cpp

; 225  : 	if( it == m_mapMakeGemProb.end() )

  001a5	0f 84 78 ff ff
	ff		 je	 $LN124@MakeGem

; 226  : 		return ULTIMATE_CANCEL;
; 227  : 
; 228  : 	DWORD dwProb = it->second.dwGeneralProb;

  001ab	8b 46 18	 mov	 eax, DWORD PTR [esi+24]

; 229  : 	int nItemNum = it->second.nGeneralNum;
; 230  : 	if( pItemElem->GetProp()->dwReferStat1 == WEAPON_UNIQUE )

  001ae	8b cf		 mov	 ecx, edi
  001b0	8b 5e 1c	 mov	 ebx, DWORD PTR [esi+28]
  001b3	89 85 c4 fd ff
	ff		 mov	 DWORD PTR _dwProb$1$[ebp], eax
  001b9	e8 00 00 00 00	 call	 ?GetPropA@CItemElem@@QAEPAUItemProp@@XZ ; CItemElem::GetPropA
  001be	83 b8 d0 01 00
	00 01		 cmp	 DWORD PTR [eax+464], 1
  001c5	75 0c		 jne	 SHORT $LN8@MakeGem

; 231  : 	{
; 232  : 		dwProb = it->second.dwUniqueProb;

  001c7	8b 46 20	 mov	 eax, DWORD PTR [esi+32]

; 233  : 		nItemNum = it->second.nUniqueNum;

  001ca	8b 5e 24	 mov	 ebx, DWORD PTR [esi+36]
  001cd	89 85 c4 fd ff
	ff		 mov	 DWORD PTR _dwProb$1$[ebp], eax
$LN8@MakeGem:

; 234  : 	}
; 235  : 	// ŔÎşĄĹä¸®°ˇ şÎÁ·ÇŇ ¶§ - ĂëĽŇ
; 236  : 	CItemElem itemElemTemp;

  001d3	8d 8d 90 fe ff
	ff		 lea	 ecx, DWORD PTR _itemElemTemp$[ebp]
  001d9	e8 00 00 00 00	 call	 ??0CItemElem@@QAE@XZ	; CItemElem::CItemElem

; 237  : 	itemElemTemp.m_dwItemId = dwItemId;

  001de	8b 85 b8 fd ff
	ff		 mov	 eax, DWORD PTR _dwItemId$1$[ebp]

; 238  : 	ItemProp* pItemprop = itemElemTemp.GetProp();

  001e4	8d 8d 90 fe ff
	ff		 lea	 ecx, DWORD PTR _itemElemTemp$[ebp]
  001ea	c7 45 fc 00 00
	00 00		 mov	 DWORD PTR __$EHRec$[ebp+8], 0
  001f1	89 85 9c fe ff
	ff		 mov	 DWORD PTR _itemElemTemp$[ebp+12], eax
  001f7	e8 00 00 00 00	 call	 ?GetPropA@CItemElem@@QAEPAUItemProp@@XZ ; CItemElem::GetPropA
  001fc	8b c8		 mov	 ecx, eax

; 239  : 	if( !pItemprop )

  001fe	85 c9		 test	 ecx, ecx
  00200	75 15		 jne	 SHORT $LN9@MakeGem

; 274  : 	return ULTIMATE_FAILED;

  00202	8d 8d 90 fe ff
	ff		 lea	 ecx, DWORD PTR _itemElemTemp$[ebp]
  00208	8d 70 02	 lea	 esi, DWORD PTR [eax+2]
  0020b	e8 00 00 00 00	 call	 ??1CItemElem@@UAE@XZ	; CItemElem::~CItemElem
  00210	8b c6		 mov	 eax, esi
  00212	e9 11 ff ff ff	 jmp	 $LN1@MakeGem
$LN9@MakeGem:

; 240  : 		return ULTIMATE_CANCEL;
; 241  : 
; 242  : 	// ą«±â¸¦ »čÁ¦µÇĽ­ 1Ä­ŔĚ »ý±âąÇ·Î 2Ä­ŔĚ»ó ŔĎ¶§¸¸ °Ë»ç
; 243  : 	if( (DWORD)( nItemNum ) > pItemprop->dwPackMax 
; 244  : 		&& pUser->m_Inventory.IsFull( &itemElemTemp, pItemprop, (short)( nItemNum - pItemprop->dwPackMax ) ) )

  00217	8b 41 6c	 mov	 eax, DWORD PTR [ecx+108]
  0021a	0f b7 d0	 movzx	 edx, ax
  0021d	0f b7 f3	 movzx	 esi, bx
  00220	3b d8		 cmp	 ebx, eax
  00222	76 33		 jbe	 SHORT $LN122@MakeGem
  00224	8b c6		 mov	 eax, esi
  00226	2b c2		 sub	 eax, edx
  00228	50		 push	 eax
  00229	51		 push	 ecx
  0022a	8b 8d c0 fd ff
	ff		 mov	 ecx, DWORD PTR tv796[ebp]
  00230	8d 85 90 fe ff
	ff		 lea	 eax, DWORD PTR _itemElemTemp$[ebp]
  00236	50		 push	 eax
  00237	e8 00 00 00 00	 call	 ?IsFull@?$CItemContainer@VCItemElem@@@@QAEHPAVCItemElem@@PAUItemProp@@F@Z ; CItemContainer<CItemElem>::IsFull
  0023c	85 c0		 test	 eax, eax
  0023e	74 17		 je	 SHORT $LN122@MakeGem

; 274  : 	return ULTIMATE_FAILED;

  00240	8d 8d 90 fe ff
	ff		 lea	 ecx, DWORD PTR _itemElemTemp$[ebp]
  00246	be 04 00 00 00	 mov	 esi, 4
  0024b	e8 00 00 00 00	 call	 ??1CItemElem@@UAE@XZ	; CItemElem::~CItemElem
  00250	8b c6		 mov	 eax, esi
  00252	e9 d1 fe ff ff	 jmp	 $LN1@MakeGem
$LN122@MakeGem:

; 245  : 		return ULTIMATE_INVENTORY;
; 246  : 	
; 247  : 	LogItemInfo aLogItem;

  00257	8b c6		 mov	 eax, esi
  00259	8d 8d c8 fd ff
	ff		 lea	 ecx, DWORD PTR _aLogItem$[ebp]
  0025f	89 85 c0 fd ff
	ff		 mov	 DWORD PTR tv790[ebp], eax
  00265	e8 00 00 00 00	 call	 ??0_LogItemInfo@@QAE@XZ	; _LogItemInfo::_LogItemInfo

; 248  : 	aLogItem.Action = "-";
; 249  : 	aLogItem.SendName = pUser->GetName();

  0026a	8b b5 b0 fd ff
	ff		 mov	 esi, DWORD PTR _pUser$GSCopy$1$[ebp]
  00270	8b ce		 mov	 ecx, esi
  00272	6a 00		 push	 0
  00274	c7 85 c8 fd ff
	ff 00 00 00 00	 mov	 DWORD PTR _aLogItem$[ebp], OFFSET ??_C@_01JOAMLHOP@?9@
  0027e	e8 00 00 00 00	 call	 ?GetName@CMover@@QAEPBDH@Z ; CMover::GetName
  00283	89 85 cc fd ff
	ff		 mov	 DWORD PTR _aLogItem$[ebp+4], eax

; 250  : 	aLogItem.RecvName = "ULTIMATE_MAKEGEM";
; 251  : 	aLogItem.WorldId = pUser->GetWorld()->GetID();
; 252  : 	aLogItem.Gold = aLogItem.Gold2 = pUser->GetGold();
; 253  : 	g_DPSrvr.OnLogItem( aLogItem, pItemElem, 1 );	

  00289	b9 00 00 00 00	 mov	 ecx, OFFSET ?g_DPSrvr@@3VCDPSrvr@@A ; g_DPSrvr
  0028e	8b 86 6c 01 00
	00		 mov	 eax, DWORD PTR [esi+364]
  00294	c7 85 d0 fd ff
	ff 00 00 00 00	 mov	 DWORD PTR _aLogItem$[ebp+8], OFFSET ??_C@_0BB@DGKKMOLK@ULTIMATE_MAKEGEM@
  0029e	6a 01		 push	 1
  002a0	57		 push	 edi
  002a1	8b 00		 mov	 eax, DWORD PTR [eax]
  002a3	89 85 d4 fd ff
	ff		 mov	 DWORD PTR _aLogItem$[ebp+12], eax
  002a9	8b 86 e0 14 00
	00		 mov	 eax, DWORD PTR [esi+5344]
  002af	89 85 dc fd ff
	ff		 mov	 DWORD PTR _aLogItem$[ebp+20], eax
  002b5	89 85 d8 fd ff
	ff		 mov	 DWORD PTR _aLogItem$[ebp+16], eax
  002bb	8d 85 c8 fd ff
	ff		 lea	 eax, DWORD PTR _aLogItem$[ebp]
  002c1	50		 push	 eax
  002c2	e8 00 00 00 00	 call	 ?OnLogItem@CDPSrvr@@QAEXAAU_LogItemInfo@@PAVCItemElem@@H@Z ; CDPSrvr::OnLogItem

; 254  : 	pUser->RemoveItem( (BYTE)( objItemId ), 1 );

  002c7	6a 01		 push	 1
  002c9	ff b5 bc fd ff
	ff		 push	 DWORD PTR _objItemId$GSCopy$1$[ebp]
  002cf	8b ce		 mov	 ecx, esi
  002d1	e8 00 00 00 00	 call	 ?RemoveItem@CMover@@QAEXEF@Z ; CMover::RemoveItem

; 256  : 	nNum = 0;

  002d6	8b bd ac fd ff
	ff		 mov	 edi, DWORD PTR _nNum$GSCopy$1$[ebp]
; File C:\IAGOS\server\v18\Source\Source\_Common\xUtil.h

; 22   : 	return  xRand() % num;

  002dc	b8 83 de 1b 43	 mov	 eax, 1125899907		; 431bde83H
; File C:\IAGOS\server\v18\Source\Source\_Common\UltimateWeapon.cpp

; 256  : 	nNum = 0;

  002e1	c7 07 00 00 00
	00		 mov	 DWORD PTR [edi], 0
; File C:\IAGOS\server\v18\Source\Source\_Common\xUtil.h

; 16   : 	g_next = g_next * 1103515245 + 12345;// + nRandomSeed[ i++ ];

  002e7	69 0d 00 00 00
	00 6d 4e c6 41	 imul	 ecx, DWORD PTR ?g_next@@3KA, 1103515245 ; g_next
  002f1	81 c1 39 30 00
	00		 add	 ecx, 12345		; 00003039H

; 22   : 	return  xRand() % num;

  002f7	f7 e1		 mul	 ecx

; 16   : 	g_next = g_next * 1103515245 + 12345;// + nRandomSeed[ i++ ];

  002f9	89 0d 00 00 00
	00		 mov	 DWORD PTR ?g_next@@3KA, ecx ; g_next

; 22   : 	return  xRand() % num;

  002ff	c1 ea 12	 shr	 edx, 18			; 00000012H
  00302	69 c2 40 42 0f
	00		 imul	 eax, edx, 1000000
  00308	2b c8		 sub	 ecx, eax
; File C:\IAGOS\server\v18\Source\Source\_Common\UltimateWeapon.cpp

; 258  : 	if( (DWORD)( nRandom ) < dwProb )

  0030a	3b 8d c4 fd ff
	ff		 cmp	 ecx, DWORD PTR _dwProb$1$[ebp]
  00310	0f 83 8f 00 00
	00		 jae	 $LN11@MakeGem

; 259  : 	{
; 260  : 		nNum = nItemNum;
; 261  : 		CItemElem itemElem;

  00316	8d 8d 40 ff ff
	ff		 lea	 ecx, DWORD PTR _itemElem$3[ebp]
  0031c	89 1f		 mov	 DWORD PTR [edi], ebx
  0031e	e8 00 00 00 00	 call	 ??0CItemElem@@QAE@XZ	; CItemElem::CItemElem

; 262  : 		itemElem.m_dwItemId = dwItemId;

  00323	8b 85 b8 fd ff
	ff		 mov	 eax, DWORD PTR _dwItemId$1$[ebp]

; 263  : 		itemElem.m_nItemNum	= nItemNum;
; 264  : 		itemElem.SetSerialNumber();

  00329	8d 8d 40 ff ff
	ff		 lea	 ecx, DWORD PTR _itemElem$3[ebp]
  0032f	89 85 4c ff ff
	ff		 mov	 DWORD PTR _itemElem$3[ebp+12], eax
  00335	8b 85 c0 fd ff
	ff		 mov	 eax, DWORD PTR tv790[ebp]
  0033b	c6 45 fc 01	 mov	 BYTE PTR __$EHRec$[ebp+8], 1
  0033f	66 89 45 b4	 mov	 WORD PTR _itemElem$3[ebp+116], ax
  00343	e8 00 00 00 00	 call	 ?SetSerialNumber@CItemBase@@QAEXXZ ; CItemBase::SetSerialNumber

; 265  : 		itemElem.m_nHitPoint	= 0;
; 266  : 
; 267  : 		pUser->CreateItem( &itemElem );

  00348	6a 00		 push	 0
  0034a	6a 00		 push	 0
  0034c	6a 00		 push	 0
  0034e	8d 85 40 ff ff
	ff		 lea	 eax, DWORD PTR _itemElem$3[ebp]
  00354	c7 45 b0 00 00
	00 00		 mov	 DWORD PTR _itemElem$3[ebp+112], 0
  0035b	50		 push	 eax
  0035c	8b ce		 mov	 ecx, esi
  0035e	e8 00 00 00 00	 call	 ?CreateItem@CMover@@QAEHPAVCItemBase@@PAEPAFE@Z ; CMover::CreateItem

; 268  : 		aLogItem.RecvName = "ULTIMATE_MAKEGEM_SUCCESS";
; 269  : 		g_DPSrvr.OnLogItem( aLogItem, &itemElem, nItemNum );

  00363	53		 push	 ebx
  00364	8d 85 40 ff ff
	ff		 lea	 eax, DWORD PTR _itemElem$3[ebp]
  0036a	c7 85 d0 fd ff
	ff 00 00 00 00	 mov	 DWORD PTR _aLogItem$[ebp+8], OFFSET ??_C@_0BJ@IPGEIBKP@ULTIMATE_MAKEGEM_SUCCESS@
  00374	50		 push	 eax
  00375	8d 85 c8 fd ff
	ff		 lea	 eax, DWORD PTR _aLogItem$[ebp]
  0037b	b9 00 00 00 00	 mov	 ecx, OFFSET ?g_DPSrvr@@3VCDPSrvr@@A ; g_DPSrvr
  00380	50		 push	 eax
  00381	e8 00 00 00 00	 call	 ?OnLogItem@CDPSrvr@@QAEXAAU_LogItemInfo@@PAVCItemElem@@H@Z ; CDPSrvr::OnLogItem

; 270  : 		return ULTIMATE_SUCCESS;

  00386	8d 8d 40 ff ff
	ff		 lea	 ecx, DWORD PTR _itemElem$3[ebp]
  0038c	e8 00 00 00 00	 call	 ??1CItemElem@@UAE@XZ	; CItemElem::~CItemElem

; 274  : 	return ULTIMATE_FAILED;

  00391	8d 8d 90 fe ff
	ff		 lea	 ecx, DWORD PTR _itemElemTemp$[ebp]
  00397	33 f6		 xor	 esi, esi
  00399	e8 00 00 00 00	 call	 ??1CItemElem@@UAE@XZ	; CItemElem::~CItemElem
  0039e	8b c6		 mov	 eax, esi
  003a0	e9 83 fd ff ff	 jmp	 $LN1@MakeGem
$LN11@MakeGem:

; 271  : 	}
; 272  : 	aLogItem.RecvName = "ULTIMATE_MAKEGEM_FAILED";
; 273  : 	g_DPSrvr.OnLogItem( aLogItem );

  003a5	6a 00		 push	 0
  003a7	6a 00		 push	 0
  003a9	8d 85 c8 fd ff
	ff		 lea	 eax, DWORD PTR _aLogItem$[ebp]
  003af	c7 85 d0 fd ff
	ff 00 00 00 00	 mov	 DWORD PTR _aLogItem$[ebp+8], OFFSET ??_C@_0BI@EJIMCPBH@ULTIMATE_MAKEGEM_FAILED@
  003b9	50		 push	 eax
  003ba	b9 00 00 00 00	 mov	 ecx, OFFSET ?g_DPSrvr@@3VCDPSrvr@@A ; g_DPSrvr
  003bf	e8 00 00 00 00	 call	 ?OnLogItem@CDPSrvr@@QAEXAAU_LogItemInfo@@PAVCItemElem@@H@Z ; CDPSrvr::OnLogItem

; 274  : 	return ULTIMATE_FAILED;

  003c4	8d 8d 90 fe ff
	ff		 lea	 ecx, DWORD PTR _itemElemTemp$[ebp]
  003ca	be 01 00 00 00	 mov	 esi, 1
  003cf	e8 00 00 00 00	 call	 ??1CItemElem@@UAE@XZ	; CItemElem::~CItemElem
  003d4	8b c6		 mov	 eax, esi
  003d6	e9 4d fd ff ff	 jmp	 $LN1@MakeGem
_TEXT	ENDS
;	COMDAT text$x
text$x	SEGMENT
__unwindfunclet$?MakeGem@CUltimateWeapon@@QAEHPAVCUser@@KAAH@Z$0:
  00000	8d 8d 90 fe ff
	ff		 lea	 ecx, DWORD PTR _itemElemTemp$[ebp]
  00006	e9 00 00 00 00	 jmp	 ??1CItemElem@@UAE@XZ	; CItemElem::~CItemElem
__unwindfunclet$?MakeGem@CUltimateWeapon@@QAEHPAVCUser@@KAAH@Z$1:
  0000b	8d 8d 40 ff ff
	ff		 lea	 ecx, DWORD PTR _itemElem$3[ebp]
  00011	e9 00 00 00 00	 jmp	 ??1CItemElem@@UAE@XZ	; CItemElem::~CItemElem
  00016	cc		 int	 3
  00017	cc		 int	 3
  00018	cc		 int	 3
  00019	cc		 int	 3
  0001a	cc		 int	 3
__ehhandler$?MakeGem@CUltimateWeapon@@QAEHPAVCUser@@KAAH@Z:
  0001b	90		 npad	 1
  0001c	90		 npad	 1
  0001d	8b 54 24 08	 mov	 edx, DWORD PTR [esp+8]
  00021	8d 42 0c	 lea	 eax, DWORD PTR [edx+12]
  00024	8b 8a 9c fd ff
	ff		 mov	 ecx, DWORD PTR [edx-612]
  0002a	33 c8		 xor	 ecx, eax
  0002c	e8 00 00 00 00	 call	 @__security_check_cookie@4
  00031	8b 4a fc	 mov	 ecx, DWORD PTR [edx-4]
  00034	33 c8		 xor	 ecx, eax
  00036	e8 00 00 00 00	 call	 @__security_check_cookie@4
  0003b	b8 00 00 00 00	 mov	 eax, OFFSET __ehfuncinfo$?MakeGem@CUltimateWeapon@@QAEHPAVCUser@@KAAH@Z
  00040	e9 00 00 00 00	 jmp	 ___CxxFrameHandler3
text$x	ENDS
?MakeGem@CUltimateWeapon@@QAEHPAVCUser@@KAAH@Z ENDP	; CUltimateWeapon::MakeGem
; Function compile flags: /Ogtp
; File C:\IAGOS\server\v18\Source\Source\_Common\UltimateWeapon.cpp
; File C:\Program Files\Microsoft Visual Studio\2022\Professional\VC\Tools\MSVC\14.44.35207\include\vector
; File C:\IAGOS\server\v18\Source\Source\_Common\UltimateWeapon.cpp
; File C:\Program Files\Microsoft Visual Studio\2022\Professional\VC\Tools\MSVC\14.44.35207\include\vector
; File C:\IAGOS\server\v18\Source\Source\_Common\UltimateWeapon.cpp
; File C:\Program Files\Microsoft Visual Studio\2022\Professional\VC\Tools\MSVC\14.44.35207\include\vector
; File C:\IAGOS\server\v18\Source\Source\_Common\UltimateWeapon.cpp
; File C:\IAGOS\server\v18\Source\Source\_Common\xUtil.h
; File C:\Program Files\Microsoft Visual Studio\2022\Professional\VC\Tools\MSVC\14.44.35207\include\vector
; File C:\IAGOS\server\v18\Source\Source\_Common\xUtil.h
; File C:\Program Files\Microsoft Visual Studio\2022\Professional\VC\Tools\MSVC\14.44.35207\include\vector
; File C:\IAGOS\server\v18\Source\Source\_Common\xUtil.h
; File C:\Program Files\Microsoft Visual Studio\2022\Professional\VC\Tools\MSVC\14.44.35207\include\vector
; File C:\IAGOS\server\v18\Source\Source\_Common\UltimateWeapon.cpp
; File C:\Program Files\Microsoft Visual Studio\2022\Professional\VC\Tools\MSVC\14.44.35207\include\vector
; File C:\IAGOS\server\v18\Source\Source\_Common\UltimateWeapon.cpp
; File C:\Program Files\Microsoft Visual Studio\2022\Professional\VC\Tools\MSVC\14.44.35207\include\vector
; File C:\IAGOS\server\v18\Source\Source\_Common\UltimateWeapon.cpp
; File C:\Program Files\Microsoft Visual Studio\2022\Professional\VC\Tools\MSVC\14.44.35207\include\vector
; File C:\IAGOS\server\v18\Source\Source\_Common\UltimateWeapon.cpp
; File C:\Program Files\Microsoft Visual Studio\2022\Professional\VC\Tools\MSVC\14.44.35207\include\vector
; File C:\IAGOS\server\v18\Source\Source\_Common\UltimateWeapon.cpp
; File C:\Program Files\Microsoft Visual Studio\2022\Professional\VC\Tools\MSVC\14.44.35207\include\vector
; File C:\IAGOS\server\v18\Source\Source\_Common\UltimateWeapon.cpp
; File C:\Program Files\Microsoft Visual Studio\2022\Professional\VC\Tools\MSVC\14.44.35207\include\vector
; File C:\IAGOS\server\v18\Source\Source\_Common\UltimateWeapon.cpp
;	COMDAT ?GetGemAbilityKindRandom@CUltimateWeapon@@QAEKK@Z
_TEXT	SEGMENT
_dwGemItemid$ = 8					; size = 4
?GetGemAbilityKindRandom@CUltimateWeapon@@QAEKK@Z PROC	; CUltimateWeapon::GetGemAbilityKindRandom, COMDAT
; _this$ = ecx

; 173  : {

  00000	55		 push	 ebp
  00001	8b ec		 mov	 ebp, esp
; File C:\Program Files\Microsoft Visual Studio\2022\Professional\VC\Tools\MSVC\14.44.35207\include\vector

; 1910 :         return _My_data._Myfirst == _My_data._Mylast;

  00003	8b 51 10	 mov	 edx, DWORD PTR [ecx+16]
; File C:\IAGOS\server\v18\Source\Source\_Common\UltimateWeapon.cpp

; 173  : {

  00006	53		 push	 ebx
  00007	56		 push	 esi
; File C:\Program Files\Microsoft Visual Studio\2022\Professional\VC\Tools\MSVC\14.44.35207\include\vector

; 1910 :         return _My_data._Myfirst == _My_data._Mylast;

  00008	8b 71 14	 mov	 esi, DWORD PTR [ecx+20]
; File C:\IAGOS\server\v18\Source\Source\_Common\UltimateWeapon.cpp

; 173  : {

  0000b	57		 push	 edi
; File C:\Program Files\Microsoft Visual Studio\2022\Professional\VC\Tools\MSVC\14.44.35207\include\vector

; 1910 :         return _My_data._Myfirst == _My_data._Mylast;

  0000c	3b d6		 cmp	 edx, esi
; File C:\IAGOS\server\v18\Source\Source\_Common\UltimateWeapon.cpp

; 174  : 	if( m_vecGemAbilityKind.empty() == TRUE )

  0000e	74 6d		 je	 SHORT $LN3@GetGemAbil
; File C:\IAGOS\server\v18\Source\Source\_Common\xUtil.h

; 16   : 	g_next = g_next * 1103515245 + 12345;// + nRandomSeed[ i++ ];

  00010	69 05 00 00 00
	00 6d 4e c6 41	 imul	 eax, DWORD PTR ?g_next@@3KA, 1103515245 ; g_next
; File C:\Program Files\Microsoft Visual Studio\2022\Professional\VC\Tools\MSVC\14.44.35207\include\vector

; 1915 :         return static_cast<size_type>(_My_data._Mylast - _My_data._Myfirst);

  0001a	2b f2		 sub	 esi, edx
; File C:\IAGOS\server\v18\Source\Source\_Common\xUtil.h

; 16   : 	g_next = g_next * 1103515245 + 12345;// + nRandomSeed[ i++ ];

  0001c	33 d2		 xor	 edx, edx
; File C:\Program Files\Microsoft Visual Studio\2022\Professional\VC\Tools\MSVC\14.44.35207\include\vector

; 1915 :         return static_cast<size_type>(_My_data._Mylast - _My_data._Myfirst);

  0001e	c1 fe 04	 sar	 esi, 4
; File C:\IAGOS\server\v18\Source\Source\_Common\xUtil.h

; 16   : 	g_next = g_next * 1103515245 + 12345;// + nRandomSeed[ i++ ];

  00021	05 39 30 00 00	 add	 eax, 12345		; 00003039H
  00026	a3 00 00 00 00	 mov	 DWORD PTR ?g_next@@3KA, eax ; g_next
  0002b	f7 f6		 div	 esi
; File C:\Program Files\Microsoft Visual Studio\2022\Professional\VC\Tools\MSVC\14.44.35207\include\vector

; 1914 :         auto& _My_data = _Mypair._Myval2;

  0002d	8b 59 10	 mov	 ebx, DWORD PTR [ecx+16]

; 1915 :         return static_cast<size_type>(_My_data._Mylast - _My_data._Myfirst);

  00030	b8 67 66 66 66	 mov	 eax, 1717986919		; 66666667H

; 1934 :         return _My_data._Myfirst[_Pos];

  00035	c1 e2 04	 shl	 edx, 4
; File C:\IAGOS\server\v18\Source\Source\_Common\UltimateWeapon.cpp

; 179  : 	for(DWORD i=0; i<m_vecGemAbilityKind[nRandom].vecAbilityKind.size(); i++ )

  00038	33 f6		 xor	 esi, esi
; File C:\Program Files\Microsoft Visual Studio\2022\Professional\VC\Tools\MSVC\14.44.35207\include\vector

; 1914 :         auto& _My_data = _Mypair._Myval2;

  0003a	03 da		 add	 ebx, edx

; 1915 :         return static_cast<size_type>(_My_data._Mylast - _My_data._Myfirst);

  0003c	8b 4b 08	 mov	 ecx, DWORD PTR [ebx+8]
  0003f	2b 4b 04	 sub	 ecx, DWORD PTR [ebx+4]
  00042	f7 e9		 imul	 ecx
  00044	c1 fa 03	 sar	 edx, 3
  00047	8b c2		 mov	 eax, edx
  00049	c1 e8 1f	 shr	 eax, 31			; 0000001fH
  0004c	03 c2		 add	 eax, edx
; File C:\IAGOS\server\v18\Source\Source\_Common\UltimateWeapon.cpp

; 179  : 	for(DWORD i=0; i<m_vecGemAbilityKind[nRandom].vecAbilityKind.size(); i++ )

  0004e	74 2d		 je	 SHORT $LN3@GetGemAbil
; File C:\Program Files\Microsoft Visual Studio\2022\Professional\VC\Tools\MSVC\14.44.35207\include\vector

; 1934 :         return _My_data._Myfirst[_Pos];

  00050	8b 43 04	 mov	 eax, DWORD PTR [ebx+4]
  00053	8b c8		 mov	 ecx, eax
  00055	8b 7d 08	 mov	 edi, DWORD PTR _dwGemItemid$[ebp]
$LL4@GetGemAbil:
; File C:\IAGOS\server\v18\Source\Source\_Common\UltimateWeapon.cpp

; 181  : 		if( m_vecGemAbilityKind[nRandom].vecAbilityKind[i].dwGemItemId == dwGemItemid )

  00058	39 39		 cmp	 DWORD PTR [ecx], edi
  0005a	74 2b		 je	 SHORT $LN37@GetGemAbil
; File C:\Program Files\Microsoft Visual Studio\2022\Professional\VC\Tools\MSVC\14.44.35207\include\vector

; 1915 :         return static_cast<size_type>(_My_data._Mylast - _My_data._Myfirst);

  0005c	8b 53 08	 mov	 edx, DWORD PTR [ebx+8]
; File C:\IAGOS\server\v18\Source\Source\_Common\UltimateWeapon.cpp

; 179  : 	for(DWORD i=0; i<m_vecGemAbilityKind[nRandom].vecAbilityKind.size(); i++ )

  0005f	46		 inc	 esi
; File C:\Program Files\Microsoft Visual Studio\2022\Professional\VC\Tools\MSVC\14.44.35207\include\vector

; 1915 :         return static_cast<size_type>(_My_data._Mylast - _My_data._Myfirst);

  00060	2b d0		 sub	 edx, eax
; File C:\IAGOS\server\v18\Source\Source\_Common\UltimateWeapon.cpp

; 179  : 	for(DWORD i=0; i<m_vecGemAbilityKind[nRandom].vecAbilityKind.size(); i++ )

  00062	83 c1 14	 add	 ecx, 20			; 00000014H
; File C:\Program Files\Microsoft Visual Studio\2022\Professional\VC\Tools\MSVC\14.44.35207\include\vector

; 1915 :         return static_cast<size_type>(_My_data._Mylast - _My_data._Myfirst);

  00065	b8 67 66 66 66	 mov	 eax, 1717986919		; 66666667H
  0006a	f7 ea		 imul	 edx
  0006c	c1 fa 03	 sar	 edx, 3
  0006f	8b c2		 mov	 eax, edx
  00071	c1 e8 1f	 shr	 eax, 31			; 0000001fH
  00074	03 c2		 add	 eax, edx
; File C:\IAGOS\server\v18\Source\Source\_Common\UltimateWeapon.cpp

; 179  : 	for(DWORD i=0; i<m_vecGemAbilityKind[nRandom].vecAbilityKind.size(); i++ )

  00076	3b f0		 cmp	 esi, eax
  00078	8b 43 04	 mov	 eax, DWORD PTR [ebx+4]
  0007b	72 db		 jb	 SHORT $LL4@GetGemAbil
$LN3@GetGemAbil:
  0007d	5f		 pop	 edi

; 185  : }

  0007e	5e		 pop	 esi
  0007f	83 c8 ff	 or	 eax, -1
  00082	5b		 pop	 ebx
  00083	5d		 pop	 ebp
  00084	c2 04 00	 ret	 4
$LN37@GetGemAbil:

; 182  : 			return m_vecGemAbilityKind[nRandom].vecAbilityKind[i].dwAbilityItemId;

  00087	8b 43 04	 mov	 eax, DWORD PTR [ebx+4]
; File C:\Program Files\Microsoft Visual Studio\2022\Professional\VC\Tools\MSVC\14.44.35207\include\vector

; 1934 :         return _My_data._Myfirst[_Pos];

  0008a	8d 0c b6	 lea	 ecx, DWORD PTR [esi+esi*4]
  0008d	5f		 pop	 edi
; File C:\IAGOS\server\v18\Source\Source\_Common\UltimateWeapon.cpp

; 185  : }

  0008e	5e		 pop	 esi
  0008f	5b		 pop	 ebx
  00090	8b 44 88 04	 mov	 eax, DWORD PTR [eax+ecx*4+4]
  00094	5d		 pop	 ebp
  00095	c2 04 00	 ret	 4
?GetGemAbilityKindRandom@CUltimateWeapon@@QAEKK@Z ENDP	; CUltimateWeapon::GetGemAbilityKindRandom
_TEXT	ENDS
; Function compile flags: /Ogtp
; File C:\IAGOS\server\v18\Source\Source\_Common\UltimateWeapon.cpp
; File C:\Program Files\Microsoft Visual Studio\2022\Professional\VC\Tools\MSVC\14.44.35207\atlmfc\include\cstringt.h
; File C:\IAGOS\server\v18\Source\Source\_Common\UltimateWeapon.cpp
; File C:\Program Files\Microsoft Visual Studio\2022\Professional\VC\Tools\MSVC\14.44.35207\atlmfc\include\cstringt.h
; File C:\IAGOS\server\v18\Source\Source\_Common\UltimateWeapon.cpp
; File C:\Program Files\Microsoft Visual Studio\2022\Professional\VC\Tools\MSVC\14.44.35207\atlmfc\include\cstringt.h
; File C:\IAGOS\server\v18\Source\Source\_Common\UltimateWeapon.cpp
; File C:\Program Files\Microsoft Visual Studio\2022\Professional\VC\Tools\MSVC\14.44.35207\atlmfc\include\cstringt.h
; File C:\IAGOS\server\v18\Source\Source\_Common\UltimateWeapon.cpp
; File C:\Program Files\Microsoft Visual Studio\2022\Professional\VC\Tools\MSVC\14.44.35207\atlmfc\include\cstringt.h
; File C:\IAGOS\server\v18\Source\Source\_Common\UltimateWeapon.cpp
; File C:\Program Files\Microsoft Visual Studio\2022\Professional\VC\Tools\MSVC\14.44.35207\include\utility
; File C:\Program Files\Microsoft Visual Studio\2022\Professional\VC\Tools\MSVC\14.44.35207\include\xtree
; File C:\Program Files\Microsoft Visual Studio\2022\Professional\VC\Tools\MSVC\14.44.35207\include\utility
; File C:\Program Files\Microsoft Visual Studio\2022\Professional\VC\Tools\MSVC\14.44.35207\include\xtree
; File C:\Program Files\Microsoft Visual Studio\2022\Professional\VC\Tools\MSVC\14.44.35207\include\utility
; File C:\Program Files\Microsoft Visual Studio\2022\Professional\VC\Tools\MSVC\14.44.35207\include\xtree
; File C:\Program Files\Microsoft Visual Studio\2022\Professional\VC\Tools\MSVC\14.44.35207\include\utility
; File C:\Program Files\Microsoft Visual Studio\2022\Professional\VC\Tools\MSVC\14.44.35207\include\xtree
; File C:\Program Files\Microsoft Visual Studio\2022\Professional\VC\Tools\MSVC\14.44.35207\include\type_traits
; File C:\Program Files\Microsoft Visual Studio\2022\Professional\VC\Tools\MSVC\14.44.35207\include\xtree
; File C:\Program Files\Microsoft Visual Studio\2022\Professional\VC\Tools\MSVC\14.44.35207\include\xmemory
; File C:\Program Files\Microsoft Visual Studio\2022\Professional\VC\Tools\MSVC\14.44.35207\include\xtree
; File C:\Program Files\Microsoft Visual Studio\2022\Professional\VC\Tools\MSVC\14.44.35207\include\xmemory
; File C:\Program Files\Microsoft Visual Studio\2022\Professional\VC\Tools\MSVC\14.44.35207\include\xtree
; File C:\Program Files\Microsoft Visual Studio\2022\Professional\VC\Tools\MSVC\14.44.35207\include\utility
; File C:\Program Files\Microsoft Visual Studio\2022\Professional\VC\Tools\MSVC\14.44.35207\include\xmemory
; File C:\Program Files\Microsoft Visual Studio\2022\Professional\VC\Tools\MSVC\14.44.35207\include\xtree
; File C:\Program Files\Microsoft Visual Studio\2022\Professional\VC\Tools\MSVC\14.44.35207\include\xmemory
; File C:\Program Files\Microsoft Visual Studio\2022\Professional\VC\Tools\MSVC\14.44.35207\include\xtree
; File C:\IAGOS\server\v18\Source\Source\_Common\UltimateWeapon.cpp
; File C:\Program Files\Microsoft Visual Studio\2022\Professional\VC\Tools\MSVC\14.44.35207\atlmfc\include\cstringt.h
; File C:\IAGOS\server\v18\Source\Source\_Common\UltimateWeapon.cpp
; File C:\Program Files\Microsoft Visual Studio\2022\Professional\VC\Tools\MSVC\14.44.35207\include\utility
; File C:\IAGOS\server\v18\Source\Source\_Common\UltimateWeapon.cpp
; File C:\Program Files\Microsoft Visual Studio\2022\Professional\VC\Tools\MSVC\14.44.35207\include\utility
; File C:\IAGOS\server\v18\Source\Source\_Common\UltimateWeapon.cpp
; File C:\Program Files\Microsoft Visual Studio\2022\Professional\VC\Tools\MSVC\14.44.35207\include\xtree
; File C:\IAGOS\server\v18\Source\Source\_Common\UltimateWeapon.cpp
;	COMDAT ?Load_UltimateWeapon@CUltimateWeapon@@QAEHXZ
_TEXT	SEGMENT
$T3 = -2240						; size = 12
$T4 = -2228						; size = 8
__Loc$5 = -2220						; size = 12
$T6 = -2208						; size = 24
$T7 = -2184						; size = 8
$T8 = -2176						; size = 8
_this$GSCopy$1$ = -2168					; size = 4
_infoMakeGem$1$sroa$664$1$ = -2164			; size = 4
_infoMakeGem$1$sroa$665$1$ = -2160			; size = 4
_nEnchant$1$ = -2156					; size = 4
_s$ = -2152						; size = 2136
__$ArrayPad$ = -16					; size = 4
__$EHRec$ = -12						; size = 12
?Load_UltimateWeapon@CUltimateWeapon@@QAEHXZ PROC	; CUltimateWeapon::Load_UltimateWeapon, COMDAT
; _this$ = ecx

; 117  : {

  00000	55		 push	 ebp
  00001	8b ec		 mov	 ebp, esp
  00003	6a ff		 push	 -1
  00005	68 00 00 00 00	 push	 __ehhandler$?Load_UltimateWeapon@CUltimateWeapon@@QAEHXZ
  0000a	64 a1 00 00 00
	00		 mov	 eax, DWORD PTR fs:0
  00010	50		 push	 eax
  00011	81 ec b4 08 00
	00		 sub	 esp, 2228		; 000008b4H
  00017	a1 00 00 00 00	 mov	 eax, DWORD PTR ___security_cookie
  0001c	33 c5		 xor	 eax, ebp
  0001e	89 45 f0	 mov	 DWORD PTR __$ArrayPad$[ebp], eax
  00021	56		 push	 esi
  00022	57		 push	 edi
  00023	50		 push	 eax
  00024	8d 45 f4	 lea	 eax, DWORD PTR __$EHRec$[ebp]
  00027	64 a3 00 00 00
	00		 mov	 DWORD PTR fs:0, eax
  0002d	8b f1		 mov	 esi, ecx
  0002f	89 b5 88 f7 ff
	ff		 mov	 DWORD PTR _this$GSCopy$1$[ebp], esi

; 118  : 	CScanner s;

  00035	6a 00		 push	 0
  00037	8d 8d 98 f7 ff
	ff		 lea	 ecx, DWORD PTR _s$[ebp]
  0003d	e8 00 00 00 00	 call	 ??0CScanner@@QAE@H@Z	; CScanner::CScanner

; 119  : 	
; 120  : 	if( !s.Load( "Ultimate_UltimateWeapon.txt" ) )

  00042	6a 01		 push	 1
  00044	68 00 00 00 00	 push	 OFFSET ??_C@_0BM@DMGOPMPC@Ultimate_UltimateWeapon?4txt@
  00049	8d 8d 98 f7 ff
	ff		 lea	 ecx, DWORD PTR _s$[ebp]
  0004f	c7 45 fc 00 00
	00 00		 mov	 DWORD PTR __$EHRec$[ebp+8], 0
  00056	e8 00 00 00 00	 call	 ?Load@CScanner@@QAEHPBDH@Z ; CScanner::Load
  0005b	85 c0		 test	 eax, eax
  0005d	75 07		 jne	 SHORT $LN8@Load_Ultim
  0005f	33 f6		 xor	 esi, esi
  00061	e9 1d 03 00 00	 jmp	 $LN22@Load_Ultim
$LN8@Load_Ultim:

; 121  : 		return FALSE;
; 122  : 	
; 123  : 
; 124  : 	s.GetToken();

  00066	6a 00		 push	 0
  00068	8d 8d 98 f7 ff
	ff		 lea	 ecx, DWORD PTR _s$[ebp]
  0006e	e8 00 00 00 00	 call	 ?GetToken@CScanner@@UAEHH@Z ; CScanner::GetToken

; 125  : 	while( s.tok != FINISHED )

  00073	83 7d dc 15	 cmp	 DWORD PTR _s$[ebp+2116], 21 ; 00000015H
  00077	0f 84 01 03 00
	00		 je	 $LN243@Load_Ultim
  0007d	0f 1f 00	 npad	 3
$LL2@Load_Ultim:
; File C:\Program Files\Microsoft Visual Studio\2022\Professional\VC\Tools\MSVC\14.44.35207\atlmfc\include\cstringt.h

; 184  : 		return _mbscmp( reinterpret_cast< const unsigned char* >( pszA ), reinterpret_cast< const unsigned char* >( pszB ) );

  00080	68 00 00 00 00	 push	 OFFSET ??_C@_07EPFOICHB@SET_GEM@
  00085	ff b5 b8 f7 ff
	ff		 push	 DWORD PTR _s$[ebp+32]
  0008b	e8 00 00 00 00	 call	 __mbscmp
  00090	83 c4 08	 add	 esp, 8

; 2490 : 		return(str1.Compare(psz2) == 0);

  00093	85 c0		 test	 eax, eax
; File C:\IAGOS\server\v18\Source\Source\_Common\UltimateWeapon.cpp

; 127  : 		if( s.Token == _T( "SET_GEM" ) )

  00095	75 14		 jne	 SHORT $LN45@Load_Ultim

; 128  : 			m_nSetGemProb = s.GetNumber();

  00097	50		 push	 eax
  00098	8d 8d 98 f7 ff
	ff		 lea	 ecx, DWORD PTR _s$[ebp]
  0009e	e8 00 00 00 00	 call	 ?GetNumber@CScanner@@QAEHH@Z ; CScanner::GetNumber
  000a3	89 46 2c	 mov	 DWORD PTR [esi+44], eax
  000a6	e9 bc 02 00 00	 jmp	 $LN7@Load_Ultim
$LN45@Load_Ultim:
; File C:\Program Files\Microsoft Visual Studio\2022\Professional\VC\Tools\MSVC\14.44.35207\atlmfc\include\cstringt.h

; 184  : 		return _mbscmp( reinterpret_cast< const unsigned char* >( pszA ), reinterpret_cast< const unsigned char* >( pszB ) );

  000ab	68 00 00 00 00	 push	 OFFSET ??_C@_0L@IDMPNDKM@REMOVE_GEM@
  000b0	ff b5 b8 f7 ff
	ff		 push	 DWORD PTR _s$[ebp+32]
  000b6	e8 00 00 00 00	 call	 __mbscmp
  000bb	83 c4 08	 add	 esp, 8

; 2490 : 		return(str1.Compare(psz2) == 0);

  000be	85 c0		 test	 eax, eax
; File C:\IAGOS\server\v18\Source\Source\_Common\UltimateWeapon.cpp

; 129  : 		else if( s.Token == _T( "REMOVE_GEM" ) )

  000c0	75 14		 jne	 SHORT $LN61@Load_Ultim

; 130  : 			m_nRemoveGemProb = s.GetNumber();

  000c2	50		 push	 eax
  000c3	8d 8d 98 f7 ff
	ff		 lea	 ecx, DWORD PTR _s$[ebp]
  000c9	e8 00 00 00 00	 call	 ?GetNumber@CScanner@@QAEHH@Z ; CScanner::GetNumber
  000ce	89 46 30	 mov	 DWORD PTR [esi+48], eax
  000d1	e9 91 02 00 00	 jmp	 $LN7@Load_Ultim
$LN61@Load_Ultim:
; File C:\Program Files\Microsoft Visual Studio\2022\Professional\VC\Tools\MSVC\14.44.35207\atlmfc\include\cstringt.h

; 184  : 		return _mbscmp( reinterpret_cast< const unsigned char* >( pszA ), reinterpret_cast< const unsigned char* >( pszB ) );

  000d6	68 00 00 00 00	 push	 OFFSET ??_C@_0P@HIBHEIJI@GENERAL2UNIQUE@
  000db	ff b5 b8 f7 ff
	ff		 push	 DWORD PTR _s$[ebp+32]
  000e1	e8 00 00 00 00	 call	 __mbscmp
  000e6	83 c4 08	 add	 esp, 8

; 2490 : 		return(str1.Compare(psz2) == 0);

  000e9	85 c0		 test	 eax, eax
; File C:\IAGOS\server\v18\Source\Source\_Common\UltimateWeapon.cpp

; 131  : 		else if( s.Token == _T( "GENERAL2UNIQUE" ) )

  000eb	75 14		 jne	 SHORT $LN77@Load_Ultim

; 132  : 			m_nGen2UniProb = s.GetNumber();

  000ed	50		 push	 eax
  000ee	8d 8d 98 f7 ff
	ff		 lea	 ecx, DWORD PTR _s$[ebp]
  000f4	e8 00 00 00 00	 call	 ?GetNumber@CScanner@@QAEHH@Z ; CScanner::GetNumber
  000f9	89 46 34	 mov	 DWORD PTR [esi+52], eax
  000fc	e9 66 02 00 00	 jmp	 $LN7@Load_Ultim
$LN77@Load_Ultim:
; File C:\Program Files\Microsoft Visual Studio\2022\Professional\VC\Tools\MSVC\14.44.35207\atlmfc\include\cstringt.h

; 184  : 		return _mbscmp( reinterpret_cast< const unsigned char* >( pszA ), reinterpret_cast< const unsigned char* >( pszB ) );

  00101	68 00 00 00 00	 push	 OFFSET ??_C@_0BA@OLEDFDG@UNIQUE2ULTIMATE@
  00106	ff b5 b8 f7 ff
	ff		 push	 DWORD PTR _s$[ebp+32]
  0010c	e8 00 00 00 00	 call	 __mbscmp
  00111	83 c4 08	 add	 esp, 8

; 2490 : 		return(str1.Compare(psz2) == 0);

  00114	85 c0		 test	 eax, eax
; File C:\IAGOS\server\v18\Source\Source\_Common\UltimateWeapon.cpp

; 133  : 		else if( s.Token == _T( "UNIQUE2ULTIMATE" ) )

  00116	75 14		 jne	 SHORT $LN93@Load_Ultim

; 134  : 			m_nUni2UltiProb = s.GetNumber();

  00118	50		 push	 eax
  00119	8d 8d 98 f7 ff
	ff		 lea	 ecx, DWORD PTR _s$[ebp]
  0011f	e8 00 00 00 00	 call	 ?GetNumber@CScanner@@QAEHH@Z ; CScanner::GetNumber
  00124	89 46 38	 mov	 DWORD PTR [esi+56], eax
  00127	e9 3b 02 00 00	 jmp	 $LN7@Load_Ultim
$LN93@Load_Ultim:
; File C:\Program Files\Microsoft Visual Studio\2022\Professional\VC\Tools\MSVC\14.44.35207\atlmfc\include\cstringt.h

; 184  : 		return _mbscmp( reinterpret_cast< const unsigned char* >( pszA ), reinterpret_cast< const unsigned char* >( pszB ) );

  0012c	68 00 00 00 00	 push	 OFFSET ??_C@_08EFIDDBND@MAKE_GEM@
  00131	ff b5 b8 f7 ff
	ff		 push	 DWORD PTR _s$[ebp+32]
  00137	e8 00 00 00 00	 call	 __mbscmp
  0013c	83 c4 08	 add	 esp, 8

; 2490 : 		return(str1.Compare(psz2) == 0);

  0013f	85 c0		 test	 eax, eax
; File C:\IAGOS\server\v18\Source\Source\_Common\UltimateWeapon.cpp

; 135  : 		else if( s.Token == _T( "MAKE_GEM" ) )

  00141	0f 85 8c 01 00
	00		 jne	 $LN214@Load_Ultim

; 136  : 		{
; 137  : 			__MAKEGEMPROB infoMakeGem;
; 138  : 			s.GetToken();	// {

  00147	50		 push	 eax
  00148	8d 8d 98 f7 ff
	ff		 lea	 ecx, DWORD PTR _s$[ebp]
  0014e	e8 00 00 00 00	 call	 ?GetToken@CScanner@@UAEHH@Z ; CScanner::GetToken

; 139  : 			s.GetToken();

  00153	6a 00		 push	 0
  00155	8d 8d 98 f7 ff
	ff		 lea	 ecx, DWORD PTR _s$[ebp]
  0015b	e8 00 00 00 00	 call	 ?GetToken@CScanner@@UAEHH@Z ; CScanner::GetToken

; 140  : 			while( *s.token != '}' )

  00160	8b 85 d4 f7 ff
	ff		 mov	 eax, DWORD PTR _s$[ebp+60]
  00166	80 38 7d	 cmp	 BYTE PTR [eax], 125	; 0000007dH
  00169	0f 84 f8 01 00
	00		 je	 $LN7@Load_Ultim
  0016f	83 c6 1c	 add	 esi, 28			; 0000001cH
$LL4@Load_Ultim:

; 141  : 			{
; 142  : 				int nEnchant = atoi( s.Token );

  00172	ff b5 b8 f7 ff
	ff		 push	 DWORD PTR _s$[ebp+32]
  00178	e8 00 00 00 00	 call	 _atoi
  0017d	83 c4 04	 add	 esp, 4
  00180	89 85 94 f7 ff
	ff		 mov	 DWORD PTR _nEnchant$1$[ebp], eax

; 143  : 				infoMakeGem.dwGeneralProb = s.GetNumber();

  00186	8d 8d 98 f7 ff
	ff		 lea	 ecx, DWORD PTR _s$[ebp]
  0018c	6a 00		 push	 0
  0018e	e8 00 00 00 00	 call	 ?GetNumber@CScanner@@QAEHH@Z ; CScanner::GetNumber

; 144  : 				infoMakeGem.nGeneralNum = s.GetNumber();

  00193	6a 00		 push	 0
  00195	8d 8d 98 f7 ff
	ff		 lea	 ecx, DWORD PTR _s$[ebp]
  0019b	89 85 90 f7 ff
	ff		 mov	 DWORD PTR _infoMakeGem$1$sroa$665$1$[ebp], eax
  001a1	e8 00 00 00 00	 call	 ?GetNumber@CScanner@@QAEHH@Z ; CScanner::GetNumber

; 145  : 				infoMakeGem.dwUniqueProb = s.GetNumber();

  001a6	6a 00		 push	 0
  001a8	8d 8d 98 f7 ff
	ff		 lea	 ecx, DWORD PTR _s$[ebp]
  001ae	89 85 8c f7 ff
	ff		 mov	 DWORD PTR _infoMakeGem$1$sroa$664$1$[ebp], eax
  001b4	e8 00 00 00 00	 call	 ?GetNumber@CScanner@@QAEHH@Z ; CScanner::GetNumber

; 146  : 				infoMakeGem.nUniqueNum = s.GetNumber();

  001b9	6a 00		 push	 0
  001bb	8d 8d 98 f7 ff
	ff		 lea	 ecx, DWORD PTR _s$[ebp]
  001c1	8b f8		 mov	 edi, eax
  001c3	e8 00 00 00 00	 call	 ?GetNumber@CScanner@@QAEHH@Z ; CScanner::GetNumber
; File C:\Program Files\Microsoft Visual Studio\2022\Professional\VC\Tools\MSVC\14.44.35207\include\utility

; 274  :         : first(_STD forward<_Other1>(_Val1)), second(_STD forward<_Other2>(_Val2)) {

  001c8	8b 8d 94 f7 ff
	ff		 mov	 ecx, DWORD PTR _nEnchant$1$[ebp]
  001ce	89 8d 60 f7 ff
	ff		 mov	 DWORD PTR $T6[ebp], ecx
  001d4	8b 8d 90 f7 ff
	ff		 mov	 ecx, DWORD PTR _infoMakeGem$1$sroa$665$1$[ebp]
  001da	89 85 74 f7 ff
	ff		 mov	 DWORD PTR $T6[ebp+20], eax
; File C:\Program Files\Microsoft Visual Studio\2022\Professional\VC\Tools\MSVC\14.44.35207\include\xtree

; 1017 :             _Loc                = _Find_lower_bound(_Keyval);

  001e0	8d 85 60 f7 ff
	ff		 lea	 eax, DWORD PTR $T6[ebp]
; File C:\Program Files\Microsoft Visual Studio\2022\Professional\VC\Tools\MSVC\14.44.35207\include\utility

; 274  :         : first(_STD forward<_Other1>(_Val1)), second(_STD forward<_Other2>(_Val2)) {

  001e6	89 8d 68 f7 ff
	ff		 mov	 DWORD PTR $T6[ebp+8], ecx
  001ec	8b 8d 8c f7 ff
	ff		 mov	 ecx, DWORD PTR _infoMakeGem$1$sroa$664$1$[ebp]
; File C:\Program Files\Microsoft Visual Studio\2022\Professional\VC\Tools\MSVC\14.44.35207\include\xtree

; 1017 :             _Loc                = _Find_lower_bound(_Keyval);

  001f2	50		 push	 eax
  001f3	8d 85 40 f7 ff
	ff		 lea	 eax, DWORD PTR $T3[ebp]
; File C:\Program Files\Microsoft Visual Studio\2022\Professional\VC\Tools\MSVC\14.44.35207\include\utility

; 274  :         : first(_STD forward<_Other1>(_Val1)), second(_STD forward<_Other2>(_Val2)) {

  001f9	89 8d 6c f7 ff
	ff		 mov	 DWORD PTR $T6[ebp+12], ecx
; File C:\Program Files\Microsoft Visual Studio\2022\Professional\VC\Tools\MSVC\14.44.35207\include\xtree

; 1017 :             _Loc                = _Find_lower_bound(_Keyval);

  001ff	50		 push	 eax
  00200	8b ce		 mov	 ecx, esi
; File C:\Program Files\Microsoft Visual Studio\2022\Professional\VC\Tools\MSVC\14.44.35207\include\utility

; 274  :         : first(_STD forward<_Other1>(_Val1)), second(_STD forward<_Other2>(_Val2)) {

  00202	c7 85 64 f7 ff
	ff 00 00 00 00	 mov	 DWORD PTR $T6[ebp+4], 0
  0020c	89 bd 70 f7 ff
	ff		 mov	 DWORD PTR $T6[ebp+16], edi
; File C:\Program Files\Microsoft Visual Studio\2022\Professional\VC\Tools\MSVC\14.44.35207\include\xtree

; 1017 :             _Loc                = _Find_lower_bound(_Keyval);

  00212	e8 00 00 00 00	 call	 ??$_Find_lower_bound@H@?$_Tree@V?$_Tmap_traits@HU__MAKEGEMPROB@CUltimateWeapon@@U?$less@H@std@@V?$allocator@U?$pair@$$CBHU__MAKEGEMPROB@CUltimateWeapon@@@std@@@4@$0A@@std@@@std@@IBE?AU?$_Tree_find_result@PAU?$_Tree_node@U?$pair@$$CBHU__MAKEGEMPROB@CUltimateWeapon@@@std@@PAX@std@@@1@ABH@Z ; std::_Tree<std::_Tmap_traits<int,CUltimateWeapon::__MAKEGEMPROB,std::less<int>,std::allocator<std::pair<int const ,CUltimateWeapon::__MAKEGEMPROB> >,0> >::_Find_lower_bound<int>
  00217	8b 48 08	 mov	 ecx, DWORD PTR [eax+8]
  0021a	f3 0f 7e 00	 movq	 xmm0, QWORD PTR [eax]
  0021e	66 0f d6 85 54
	f7 ff ff	 movq	 QWORD PTR __Loc$5[ebp], xmm0

; 1624 :         return !_Bound->_Isnil && !_DEBUG_LT_PRED(_Getcomp(), _Keyval, _Traits::_Kfn(_Bound->_Myval));

  00226	80 79 0d 00	 cmp	 BYTE PTR [ecx+13], 0
  0022a	75 0b		 jne	 SHORT $LN247@Load_Ultim
; File C:\Program Files\Microsoft Visual Studio\2022\Professional\VC\Tools\MSVC\14.44.35207\include\type_traits

; 2380 :         return _Left < _Right;

  0022c	8b 85 94 f7 ff
	ff		 mov	 eax, DWORD PTR _nEnchant$1$[ebp]
  00232	3b 41 10	 cmp	 eax, DWORD PTR [ecx+16]
; File C:\Program Files\Microsoft Visual Studio\2022\Professional\VC\Tools\MSVC\14.44.35207\include\xtree

; 1624 :         return !_Bound->_Isnil && !_DEBUG_LT_PRED(_Getcomp(), _Keyval, _Traits::_Kfn(_Bound->_Myval));

  00235	7d 75		 jge	 SHORT $LN194@Load_Ultim
$LN247@Load_Ultim:

; 1648 :         if (max_size() == _Get_scary()->_Mysize) {

  00237	81 7e 04 66 66
	66 06		 cmp	 DWORD PTR [esi+4], 107374182 ; 06666666H
  0023e	0f 84 67 01 00
	00		 je	 $LN231@Load_Ultim

; 1023 :             _Inserted = _Tree_temp_node<_Alnode>(_Getal(), _Scary->_Myhead, _STD forward<_Valtys>(_Vals)...)._Release();

  00244	8b 3e		 mov	 edi, DWORD PTR [esi]
; File C:\Program Files\Microsoft Visual Studio\2022\Professional\VC\Tools\MSVC\14.44.35207\include\xmemory

; 1160 :     _CONSTEXPR20 explicit _Alloc_construct_ptr(_Alloc& _Al_) : _Al(_Al_), _Ptr(nullptr) {}

  00246	89 b5 80 f7 ff
	ff		 mov	 DWORD PTR $T8[ebp], esi

; 136  :         return ::operator new(_Bytes);

  0024c	6a 28		 push	 40			; 00000028H
; File C:\Program Files\Microsoft Visual Studio\2022\Professional\VC\Tools\MSVC\14.44.35207\include\xtree

; 808  :     explicit _Tree_temp_node_alloc(_Alnode& _Al_) : _Alloc_construct_ptr<_Alnode>(_Al_) {

  0024e	c6 45 fc 01	 mov	 BYTE PTR __$EHRec$[ebp+8], 1
; File C:\Program Files\Microsoft Visual Studio\2022\Professional\VC\Tools\MSVC\14.44.35207\include\xmemory

; 1167 :         _Ptr = nullptr; // if allocate throws, prevents double-free

  00252	c7 85 84 f7 ff
	ff 00 00 00 00	 mov	 DWORD PTR $T8[ebp+4], 0

; 136  :         return ::operator new(_Bytes);

  0025c	e8 00 00 00 00	 call	 ??2@YAPAXI@Z		; operator new

; 732  :         ::new (const_cast<void*>(static_cast<const volatile void*>(_Ptr))) _Objty(_STD forward<_Types>(_Args)...);

  00261	0f 10 85 60 f7
	ff ff		 movups	 xmm0, XMMWORD PTR $T6[ebp]

; 136  :         return ::operator new(_Bytes);

  00268	83 c4 04	 add	 esp, 4
; File C:\Program Files\Microsoft Visual Studio\2022\Professional\VC\Tools\MSVC\14.44.35207\include\xtree

; 810  :     }

  0026b	c6 45 fc 00	 mov	 BYTE PTR __$EHRec$[ebp+8], 0

; 1042 :         return {_Scary->_Insert_node(_Loc._Location, _Inserted), true};

  0026f	8b ce		 mov	 ecx, esi
; File C:\Program Files\Microsoft Visual Studio\2022\Professional\VC\Tools\MSVC\14.44.35207\include\utility

; 774  :     _Val         = static_cast<_Other&&>(_New_val);

  00271	c7 85 84 f7 ff
	ff 00 00 00 00	 mov	 DWORD PTR $T8[ebp+4], 0
; File C:\Program Files\Microsoft Visual Studio\2022\Professional\VC\Tools\MSVC\14.44.35207\include\xmemory

; 732  :         ::new (const_cast<void*>(static_cast<const volatile void*>(_Ptr))) _Objty(_STD forward<_Types>(_Args)...);

  0027b	0f 11 40 10	 movups	 XMMWORD PTR [eax+16], xmm0
  0027f	f3 0f 7e 85 70
	f7 ff ff	 movq	 xmm0, QWORD PTR $T6[ebp+16]
; File C:\Program Files\Microsoft Visual Studio\2022\Professional\VC\Tools\MSVC\14.44.35207\include\xtree

; 1042 :         return {_Scary->_Insert_node(_Loc._Location, _Inserted), true};

  00287	50		 push	 eax
  00288	ff b5 58 f7 ff
	ff		 push	 DWORD PTR __Loc$5[ebp+4]
; File C:\Program Files\Microsoft Visual Studio\2022\Professional\VC\Tools\MSVC\14.44.35207\include\xmemory

; 732  :         ::new (const_cast<void*>(static_cast<const volatile void*>(_Ptr))) _Objty(_STD forward<_Types>(_Args)...);

  0028e	66 0f d6 40 20	 movq	 QWORD PTR [eax+32], xmm0
; File C:\Program Files\Microsoft Visual Studio\2022\Professional\VC\Tools\MSVC\14.44.35207\include\xtree

; 1042 :         return {_Scary->_Insert_node(_Loc._Location, _Inserted), true};

  00293	ff b5 54 f7 ff
	ff		 push	 DWORD PTR __Loc$5[ebp]

; 831  :         _Construct_in_place(this->_Ptr->_Left, _Myhead);

  00299	89 38		 mov	 DWORD PTR [eax], edi

; 832  :         _Construct_in_place(this->_Ptr->_Parent, _Myhead);

  0029b	89 78 04	 mov	 DWORD PTR [eax+4], edi

; 833  :         _Construct_in_place(this->_Ptr->_Right, _Myhead);

  0029e	89 78 08	 mov	 DWORD PTR [eax+8], edi

; 834  :         this->_Ptr->_Color = _Red;

  002a1	66 c7 40 0c 00
	00		 mov	 WORD PTR [eax+12], 0

; 1042 :         return {_Scary->_Insert_node(_Loc._Location, _Inserted), true};

  002a7	e8 00 00 00 00	 call	 ?_Insert_node@?$_Tree_val@U?$_Tree_simple_types@U?$pair@$$CBHU__MAKEGEMPROB@CUltimateWeapon@@@std@@@std@@@std@@QAEPAU?$_Tree_node@U?$pair@$$CBHU__MAKEGEMPROB@CUltimateWeapon@@@std@@PAX@2@U?$_Tree_id@PAU?$_Tree_node@U?$pair@$$CBHU__MAKEGEMPROB@CUltimateWeapon@@@std@@PAX@std@@@2@QAU32@@Z ; std::_Tree_val<std::_Tree_simple_types<std::pair<int const ,CUltimateWeapon::__MAKEGEMPROB> > >::_Insert_node
$LN194@Load_Ultim:
; File C:\IAGOS\server\v18\Source\Source\_Common\UltimateWeapon.cpp

; 149  : 				s.GetToken();

  002ac	6a 00		 push	 0
  002ae	8d 8d 98 f7 ff
	ff		 lea	 ecx, DWORD PTR _s$[ebp]
  002b4	e8 00 00 00 00	 call	 ?GetToken@CScanner@@UAEHH@Z ; CScanner::GetToken
  002b9	8b 85 d4 f7 ff
	ff		 mov	 eax, DWORD PTR _s$[ebp+60]
  002bf	80 38 7d	 cmp	 BYTE PTR [eax], 125	; 0000007dH
  002c2	0f 85 aa fe ff
	ff		 jne	 $LL4@Load_Ultim

; 150  : 			}
; 151  : 		}

  002c8	8b b5 88 f7 ff
	ff		 mov	 esi, DWORD PTR _this$GSCopy$1$[ebp]
  002ce	e9 94 00 00 00	 jmp	 $LN7@Load_Ultim
$LN214@Load_Ultim:
; File C:\Program Files\Microsoft Visual Studio\2022\Professional\VC\Tools\MSVC\14.44.35207\atlmfc\include\cstringt.h

; 184  : 		return _mbscmp( reinterpret_cast< const unsigned char* >( pszA ), reinterpret_cast< const unsigned char* >( pszB ) );

  002d3	68 00 00 00 00	 push	 OFFSET ??_C@_0BB@LFPKPKBP@ULTIMATE_ENCHANT@
  002d8	ff b5 b8 f7 ff
	ff		 push	 DWORD PTR _s$[ebp+32]
  002de	e8 00 00 00 00	 call	 __mbscmp
  002e3	83 c4 08	 add	 esp, 8

; 2490 : 		return(str1.Compare(psz2) == 0);

  002e6	85 c0		 test	 eax, eax
; File C:\IAGOS\server\v18\Source\Source\_Common\UltimateWeapon.cpp

; 152  : 		else if( s.Token == _T( "ULTIMATE_ENCHANT" ) )

  002e8	0f 85 79 00 00
	00		 jne	 $LN7@Load_Ultim

; 153  : 		{
; 154  : 			int nNum = 0;
; 155  : 			int nProb= 0;
; 156  : 			s.GetToken(); // {

  002ee	50		 push	 eax
  002ef	8d 8d 98 f7 ff
	ff		 lea	 ecx, DWORD PTR _s$[ebp]
  002f5	e8 00 00 00 00	 call	 ?GetToken@CScanner@@UAEHH@Z ; CScanner::GetToken

; 157  : 			s.GetToken();

  002fa	6a 00		 push	 0
  002fc	8d 8d 98 f7 ff
	ff		 lea	 ecx, DWORD PTR _s$[ebp]
  00302	e8 00 00 00 00	 call	 ?GetToken@CScanner@@UAEHH@Z ; CScanner::GetToken

; 158  : 			while( *s.token != '}' )

  00307	8b 85 d4 f7 ff
	ff		 mov	 eax, DWORD PTR _s$[ebp+60]
  0030d	80 38 7d	 cmp	 BYTE PTR [eax], 125	; 0000007dH
  00310	74 55		 je	 SHORT $LN7@Load_Ultim
$LL6@Load_Ultim:

; 159  : 			{
; 160  : 				nNum = atoi( s.Token );

  00312	ff b5 b8 f7 ff
	ff		 push	 DWORD PTR _s$[ebp+32]
  00318	e8 00 00 00 00	 call	 _atoi
  0031d	83 c4 04	 add	 esp, 4
; File C:\Program Files\Microsoft Visual Studio\2022\Professional\VC\Tools\MSVC\14.44.35207\include\utility

; 274  :         : first(_STD forward<_Other1>(_Val1)), second(_STD forward<_Other2>(_Val2)) {

  00320	89 85 78 f7 ff
	ff		 mov	 DWORD PTR $T7[ebp], eax
; File C:\IAGOS\server\v18\Source\Source\_Common\UltimateWeapon.cpp

; 161  : 				nProb = s.GetNumber();

  00326	8d 8d 98 f7 ff
	ff		 lea	 ecx, DWORD PTR _s$[ebp]
  0032c	6a 00		 push	 0
  0032e	e8 00 00 00 00	 call	 ?GetNumber@CScanner@@QAEHH@Z ; CScanner::GetNumber
; File C:\Program Files\Microsoft Visual Studio\2022\Professional\VC\Tools\MSVC\14.44.35207\include\utility

; 274  :         : first(_STD forward<_Other1>(_Val1)), second(_STD forward<_Other2>(_Val2)) {

  00333	89 85 7c f7 ff
	ff		 mov	 DWORD PTR $T7[ebp+4], eax
; File C:\IAGOS\server\v18\Source\Source\_Common\UltimateWeapon.cpp

; 162  : 				m_mapUltimateProb.insert( map<int, int>::value_type( nNum, nProb ) );

  00339	8d 4e 24	 lea	 ecx, DWORD PTR [esi+36]
  0033c	8d 85 78 f7 ff
	ff		 lea	 eax, DWORD PTR $T7[ebp]
  00342	50		 push	 eax
  00343	8d 85 4c f7 ff
	ff		 lea	 eax, DWORD PTR $T4[ebp]
  00349	50		 push	 eax
  0034a	e8 00 00 00 00	 call	 ??$insert@$0A@$0A@@?$_Tree@V?$_Tmap_traits@HHU?$less@H@std@@V?$allocator@U?$pair@$$CBHH@std@@@2@$0A@@std@@@std@@QAE?AU?$pair@V?$_Tree_iterator@V?$_Tree_val@U?$_Tree_simple_types@U?$pair@$$CBHH@std@@@std@@@std@@@std@@_N@1@$$QAU?$pair@$$CBHH@1@@Z ; std::_Tree<std::_Tmap_traits<int,int,std::less<int>,std::allocator<std::pair<int const ,int> >,0> >::insert<0,0>

; 163  : 				s.GetToken();

  0034f	6a 00		 push	 0
  00351	8d 8d 98 f7 ff
	ff		 lea	 ecx, DWORD PTR _s$[ebp]
  00357	e8 00 00 00 00	 call	 ?GetToken@CScanner@@UAEHH@Z ; CScanner::GetToken
  0035c	8b 85 d4 f7 ff
	ff		 mov	 eax, DWORD PTR _s$[ebp+60]
  00362	80 38 7d	 cmp	 BYTE PTR [eax], 125	; 0000007dH
  00365	75 ab		 jne	 SHORT $LL6@Load_Ultim
$LN7@Load_Ultim:

; 164  : 			}
; 165  : 		}
; 166  : 		s.GetToken();

  00367	6a 00		 push	 0
  00369	8d 8d 98 f7 ff
	ff		 lea	 ecx, DWORD PTR _s$[ebp]
  0036f	e8 00 00 00 00	 call	 ?GetToken@CScanner@@UAEHH@Z ; CScanner::GetToken
  00374	83 7d dc 15	 cmp	 DWORD PTR _s$[ebp+2116], 21 ; 00000015H
  00378	0f 85 02 fd ff
	ff		 jne	 $LL2@Load_Ultim
$LN243@Load_Ultim:

; 167  : 	}	
; 168  : 	return TRUE;

  0037e	be 01 00 00 00	 mov	 esi, 1
$LN22@Load_Ultim:
  00383	8d 8d 98 f7 ff
	ff		 lea	 ecx, DWORD PTR _s$[ebp]
  00389	e8 00 00 00 00	 call	 ??1CScanner@@UAE@XZ	; CScanner::~CScanner
  0038e	8b c6		 mov	 eax, esi

; 169  : }

  00390	8b 4d f4	 mov	 ecx, DWORD PTR __$EHRec$[ebp]
  00393	64 89 0d 00 00
	00 00		 mov	 DWORD PTR fs:0, ecx
  0039a	59		 pop	 ecx
  0039b	5f		 pop	 edi
  0039c	5e		 pop	 esi
  0039d	8b 4d f0	 mov	 ecx, DWORD PTR __$ArrayPad$[ebp]
  003a0	33 cd		 xor	 ecx, ebp
  003a2	e8 00 00 00 00	 call	 @__security_check_cookie@4
  003a7	8b e5		 mov	 esp, ebp
  003a9	5d		 pop	 ebp
  003aa	c3		 ret	 0
$LN231@Load_Ultim:
; File C:\Program Files\Microsoft Visual Studio\2022\Professional\VC\Tools\MSVC\14.44.35207\include\xtree

; 1649 :             _Throw_tree_length_error();

  003ab	e8 00 00 00 00	 call	 ?_Throw_tree_length_error@std@@YAXXZ ; std::_Throw_tree_length_error
$LN253@Load_Ultim:
  003b0	cc		 int	 3
_TEXT	ENDS
;	COMDAT text$x
text$x	SEGMENT
__unwindfunclet$?Load_UltimateWeapon@CUltimateWeapon@@QAEHXZ$0:
  00000	8d 8d 98 f7 ff
	ff		 lea	 ecx, DWORD PTR _s$[ebp]
  00006	e9 00 00 00 00	 jmp	 ??1CScanner@@UAE@XZ	; CScanner::~CScanner
__unwindfunclet$?Load_UltimateWeapon@CUltimateWeapon@@QAEHXZ$3:
  0000b	8d 8d 80 f7 ff
	ff		 lea	 ecx, DWORD PTR $T8[ebp]
  00011	e9 00 00 00 00	 jmp	 ??1?$_Alloc_construct_ptr@V?$allocator@U?$_Tree_node@U?$pair@$$CBHU__MAKEGEMPROB@CUltimateWeapon@@@std@@PAX@std@@@std@@@std@@QAE@XZ ; std::_Alloc_construct_ptr<std::allocator<std::_Tree_node<std::pair<int const ,CUltimateWeapon::__MAKEGEMPROB>,void *> > >::~_Alloc_construct_ptr<std::allocator<std::_Tree_node<std::pair<int const ,CUltimateWeapon::__MAKEGEMPROB>,void *> > >
  00016	cc		 int	 3
  00017	cc		 int	 3
  00018	cc		 int	 3
  00019	cc		 int	 3
  0001a	cc		 int	 3
__ehhandler$?Load_UltimateWeapon@CUltimateWeapon@@QAEHXZ:
  0001b	90		 npad	 1
  0001c	90		 npad	 1
  0001d	8b 54 24 08	 mov	 edx, DWORD PTR [esp+8]
  00021	8d 42 0c	 lea	 eax, DWORD PTR [edx+12]
  00024	8b 8a 40 f7 ff
	ff		 mov	 ecx, DWORD PTR [edx-2240]
  0002a	33 c8		 xor	 ecx, eax
  0002c	e8 00 00 00 00	 call	 @__security_check_cookie@4
  00031	8b 4a fc	 mov	 ecx, DWORD PTR [edx-4]
  00034	33 c8		 xor	 ecx, eax
  00036	e8 00 00 00 00	 call	 @__security_check_cookie@4
  0003b	b8 00 00 00 00	 mov	 eax, OFFSET __ehfuncinfo$?Load_UltimateWeapon@CUltimateWeapon@@QAEHXZ
  00040	e9 00 00 00 00	 jmp	 ___CxxFrameHandler3
text$x	ENDS
?Load_UltimateWeapon@CUltimateWeapon@@QAEHXZ ENDP	; CUltimateWeapon::Load_UltimateWeapon
; Function compile flags: /Ogtp
; File C:\IAGOS\server\v18\Source\Source\_Common\UltimateWeapon.cpp
; File C:\Program Files\Microsoft Visual Studio\2022\Professional\VC\Tools\MSVC\14.44.35207\include\vector
; File C:\IAGOS\server\v18\Source\Source\_Common\UltimateWeapon.cpp
; File C:\Program Files\Microsoft Visual Studio\2022\Professional\VC\Tools\MSVC\14.44.35207\include\vector
; File C:\IAGOS\server\v18\Source\Source\_Common\UltimateWeapon.cpp
; File C:\Program Files\Microsoft Visual Studio\2022\Professional\VC\Tools\MSVC\14.44.35207\include\vector
; File C:\IAGOS\server\v18\Source\Source\_Common\UltimateWeapon.cpp
; File C:\Program Files\Microsoft Visual Studio\2022\Professional\VC\Tools\MSVC\14.44.35207\include\vector
; File C:\IAGOS\server\v18\Source\Source\_Common\UltimateWeapon.cpp
;	COMDAT ?GetGemKind@CUltimateWeapon@@QAEKK@Z
_TEXT	SEGMENT
_dwLimitLevel$ = 8					; size = 4
?GetGemKind@CUltimateWeapon@@QAEKK@Z PROC		; CUltimateWeapon::GetGemKind, COMDAT
; _this$ = ecx

; 104  : {

  00000	55		 push	 ebp
  00001	8b ec		 mov	 ebp, esp
  00003	53		 push	 ebx
  00004	8b d9		 mov	 ebx, ecx
; File C:\Program Files\Microsoft Visual Studio\2022\Professional\VC\Tools\MSVC\14.44.35207\include\vector

; 1915 :         return static_cast<size_type>(_My_data._Mylast - _My_data._Myfirst);

  00006	b8 ab aa aa 2a	 mov	 eax, 715827883		; 2aaaaaabH
; File C:\IAGOS\server\v18\Source\Source\_Common\UltimateWeapon.cpp

; 104  : {

  0000b	56		 push	 esi
  0000c	57		 push	 edi

; 105  : 	for( DWORD i=0; i<m_vecMakeGemItem.size(); i++ )

  0000d	33 f6		 xor	 esi, esi
; File C:\Program Files\Microsoft Visual Studio\2022\Professional\VC\Tools\MSVC\14.44.35207\include\vector

; 1915 :         return static_cast<size_type>(_My_data._Mylast - _My_data._Myfirst);

  0000f	8b 53 08	 mov	 edx, DWORD PTR [ebx+8]
  00012	8b 4b 04	 mov	 ecx, DWORD PTR [ebx+4]
  00015	2b d1		 sub	 edx, ecx
  00017	f7 ea		 imul	 edx
  00019	d1 fa		 sar	 edx, 1
  0001b	8b fa		 mov	 edi, edx
  0001d	c1 ef 1f	 shr	 edi, 31			; 0000001fH
  00020	03 fa		 add	 edi, edx
; File C:\IAGOS\server\v18\Source\Source\_Common\UltimateWeapon.cpp

; 105  : 	for( DWORD i=0; i<m_vecMakeGemItem.size(); i++ )

  00022	74 1d		 je	 SHORT $LN22@GetGemKind
; File C:\Program Files\Microsoft Visual Studio\2022\Professional\VC\Tools\MSVC\14.44.35207\include\vector

; 1934 :         return _My_data._Myfirst[_Pos];

  00024	8d 41 04	 lea	 eax, DWORD PTR [ecx+4]
  00027	8b 4d 08	 mov	 ecx, DWORD PTR _dwLimitLevel$[ebp]
  0002a	66 0f 1f 44 00
	00		 npad	 6
$LL4@GetGemKind:
; File C:\IAGOS\server\v18\Source\Source\_Common\UltimateWeapon.cpp

; 107  : 		if( (int)( dwLimitLevel ) <= m_vecMakeGemItem[i].nMaxLevel &&

  00030	3b 48 04	 cmp	 ecx, DWORD PTR [eax+4]
  00033	7f 04		 jg	 SHORT $LN2@GetGemKind
  00035	3b 08		 cmp	 ecx, DWORD PTR [eax]
  00037	7d 12		 jge	 SHORT $LN20@GetGemKind
$LN2@GetGemKind:

; 105  : 	for( DWORD i=0; i<m_vecMakeGemItem.size(); i++ )

  00039	46		 inc	 esi
  0003a	83 c0 0c	 add	 eax, 12			; 0000000cH
  0003d	3b f7		 cmp	 esi, edi
  0003f	72 ef		 jb	 SHORT $LL4@GetGemKind
$LN22@GetGemKind:
  00041	5f		 pop	 edi

; 113  : }

  00042	5e		 pop	 esi
  00043	83 c8 ff	 or	 eax, -1
  00046	5b		 pop	 ebx
  00047	5d		 pop	 ebp
  00048	c2 04 00	 ret	 4
$LN20@GetGemKind:

; 108  : 			(int)( dwLimitLevel ) >= m_vecMakeGemItem[i].nMinLevel )
; 109  : 			return m_vecMakeGemItem[i].dwItemID;

  0004b	8b 43 04	 mov	 eax, DWORD PTR [ebx+4]
; File C:\Program Files\Microsoft Visual Studio\2022\Professional\VC\Tools\MSVC\14.44.35207\include\vector

; 1934 :         return _My_data._Myfirst[_Pos];

  0004e	8d 0c 76	 lea	 ecx, DWORD PTR [esi+esi*2]
  00051	5f		 pop	 edi
; File C:\IAGOS\server\v18\Source\Source\_Common\UltimateWeapon.cpp

; 113  : }

  00052	5e		 pop	 esi
  00053	5b		 pop	 ebx
  00054	8b 04 88	 mov	 eax, DWORD PTR [eax+ecx*4]
  00057	5d		 pop	 ebp
  00058	c2 04 00	 ret	 4
?GetGemKind@CUltimateWeapon@@QAEKK@Z ENDP		; CUltimateWeapon::GetGemKind
_TEXT	ENDS
; Function compile flags: /Ogtp
; File C:\IAGOS\server\v18\Source\Source\_Common\UltimateWeapon.cpp
; File C:\Program Files\Microsoft Visual Studio\2022\Professional\VC\Tools\MSVC\14.44.35207\atlmfc\include\cstringt.h
; File C:\IAGOS\server\v18\Source\Source\_Common\UltimateWeapon.cpp
; File C:\Program Files\Microsoft Visual Studio\2022\Professional\VC\Tools\MSVC\14.44.35207\include\vector
; File C:\IAGOS\server\v18\Source\Source\_Common\UltimateWeapon.cpp
; File C:\Program Files\Microsoft Visual Studio\2022\Professional\VC\Tools\MSVC\14.44.35207\include\vector
; File C:\IAGOS\server\v18\Source\Source\_Common\UltimateWeapon.cpp
; File C:\Program Files\Microsoft Visual Studio\2022\Professional\VC\Tools\MSVC\14.44.35207\include\vector
; File C:\IAGOS\server\v18\Source\Source\_Common\UltimateWeapon.cpp
; File C:\Program Files\Microsoft Visual Studio\2022\Professional\VC\Tools\MSVC\14.44.35207\include\vector
; File C:\IAGOS\server\v18\Source\Source\_Common\UltimateWeapon.cpp
; File C:\Program Files\Microsoft Visual Studio\2022\Professional\VC\Tools\MSVC\14.44.35207\include\vector
; File C:\IAGOS\server\v18\Source\Source\_Common\UltimateWeapon.cpp
; File C:\Program Files\Microsoft Visual Studio\2022\Professional\VC\Tools\MSVC\14.44.35207\include\vector
; File C:\Program Files\Microsoft Visual Studio\2022\Professional\VC\Tools\MSVC\14.44.35207\include\xmemory
; File C:\Program Files\Microsoft Visual Studio\2022\Professional\VC\Tools\MSVC\14.44.35207\include\vector
; File C:\IAGOS\server\v18\Source\Source\_Common\UltimateWeapon.cpp
; File C:\Program Files\Microsoft Visual Studio\2022\Professional\VC\Tools\MSVC\14.44.35207\include\vector
; File C:\IAGOS\server\v18\Source\Source\_Common\UltimateWeapon.cpp
; File C:\Program Files\Microsoft Visual Studio\2022\Professional\VC\Tools\MSVC\14.44.35207\include\vector
; File C:\IAGOS\server\v18\Source\Source\_Common\UltimateWeapon.cpp
; File C:\Program Files\Microsoft Visual Studio\2022\Professional\VC\Tools\MSVC\14.44.35207\include\vector
; File C:\IAGOS\server\v18\Source\Source\_Common\UltimateWeapon.cpp
; File C:\Program Files\Microsoft Visual Studio\2022\Professional\VC\Tools\MSVC\14.44.35207\include\vector
; File C:\IAGOS\server\v18\Source\Source\_Common\UltimateWeapon.cpp
; File C:\Program Files\Microsoft Visual Studio\2022\Professional\VC\Tools\MSVC\14.44.35207\include\vector
; File C:\IAGOS\server\v18\Source\Source\_Common\UltimateWeapon.cpp
; File C:\Program Files\Microsoft Visual Studio\2022\Professional\VC\Tools\MSVC\14.44.35207\include\vector
; File C:\IAGOS\server\v18\Source\Source\_Common\UltimateWeapon.cpp
; File C:\Program Files\Microsoft Visual Studio\2022\Professional\VC\Tools\MSVC\14.44.35207\include\vector
; File C:\IAGOS\server\v18\Source\Source\_Common\UltimateWeapon.cpp
; File C:\Program Files\Microsoft Visual Studio\2022\Professional\VC\Tools\MSVC\14.44.35207\atlmfc\include\cstringt.h
; File C:\IAGOS\server\v18\Source\Source\_Common\UltimateWeapon.cpp
; File C:\IAGOS\server\v18\Source\Source\_Common\UltimateWeapon.h
; File C:\IAGOS\server\v18\Source\Source\_Common\UltimateWeapon.cpp
; File C:\Program Files\Microsoft Visual Studio\2022\Professional\VC\Tools\MSVC\14.44.35207\include\vector
; File C:\IAGOS\server\v18\Source\Source\_Common\UltimateWeapon.cpp
; File C:\Program Files\Microsoft Visual Studio\2022\Professional\VC\Tools\MSVC\14.44.35207\include\vector
; File C:\Program Files\Microsoft Visual Studio\2022\Professional\VC\Tools\MSVC\14.44.35207\include\xutility
; File C:\Program Files\Microsoft Visual Studio\2022\Professional\VC\Tools\MSVC\14.44.35207\include\vector
; File C:\IAGOS\server\v18\Source\Source\_Common\UltimateWeapon.cpp
;	COMDAT ?Load_GemAbility@CUltimateWeapon@@QAEHXZ
_TEXT	SEGMENT
$T2 = -2204						; size = 4
_MakeGemItem$3 = -2200					; size = 12
_GemAbility$4 = -2188					; size = 20
_GemAbilityKind$5 = -2168				; size = 16
_s$ = -2152						; size = 2136
__$ArrayPad$ = -16					; size = 4
__$EHRec$ = -12						; size = 12
?Load_GemAbility@CUltimateWeapon@@QAEHXZ PROC		; CUltimateWeapon::Load_GemAbility, COMDAT
; _this$ = ecx

; 46   : {

  00000	55		 push	 ebp
  00001	8b ec		 mov	 ebp, esp
  00003	6a ff		 push	 -1
  00005	68 00 00 00 00	 push	 __ehhandler$?Load_GemAbility@CUltimateWeapon@@QAEHXZ
  0000a	64 a1 00 00 00
	00		 mov	 eax, DWORD PTR fs:0
  00010	50		 push	 eax
  00011	81 ec 90 08 00
	00		 sub	 esp, 2192		; 00000890H
  00017	a1 00 00 00 00	 mov	 eax, DWORD PTR ___security_cookie
  0001c	33 c5		 xor	 eax, ebp
  0001e	89 45 f0	 mov	 DWORD PTR __$ArrayPad$[ebp], eax
  00021	53		 push	 ebx
  00022	56		 push	 esi
  00023	57		 push	 edi
  00024	50		 push	 eax
  00025	8d 45 f4	 lea	 eax, DWORD PTR __$EHRec$[ebp]
  00028	64 a3 00 00 00
	00		 mov	 DWORD PTR fs:0, eax
  0002e	8b d9		 mov	 ebx, ecx

; 47   : 	CScanner s;

  00030	6a 00		 push	 0
  00032	8d 8d 98 f7 ff
	ff		 lea	 ecx, DWORD PTR _s$[ebp]
  00038	e8 00 00 00 00	 call	 ??0CScanner@@QAE@H@Z	; CScanner::CScanner

; 48   : 	
; 49   : 	if( !s.Load( "Ultimate_GemAbility.txt" ) )

  0003d	6a 01		 push	 1
  0003f	68 00 00 00 00	 push	 OFFSET ??_C@_0BI@PGNGBLIK@Ultimate_GemAbility?4txt@
  00044	8d 8d 98 f7 ff
	ff		 lea	 ecx, DWORD PTR _s$[ebp]
  0004a	c7 45 fc 00 00
	00 00		 mov	 DWORD PTR __$EHRec$[ebp+8], 0
  00051	e8 00 00 00 00	 call	 ?Load@CScanner@@QAEHPBDH@Z ; CScanner::Load
  00056	85 c0		 test	 eax, eax
  00058	0f 84 fa 02 00
	00		 je	 $LN20@Load_GemAb

; 50   : 		return FALSE;
; 51   : 	
; 52   : 	int nMaxGemNum = 0;
; 53   : 	s.GetToken();

  0005e	6a 00		 push	 0
  00060	8d 8d 98 f7 ff
	ff		 lea	 ecx, DWORD PTR _s$[ebp]
  00066	e8 00 00 00 00	 call	 ?GetToken@CScanner@@UAEHH@Z ; CScanner::GetToken

; 54   : 	while( s.tok != FINISHED )

  0006b	83 7d dc 15	 cmp	 DWORD PTR _s$[ebp+2116], 21 ; 00000015H
  0006f	0f 84 cf 02 00
	00		 je	 $LN149@Load_GemAb
  00075	66 66 66 0f 1f
	84 00 00 00 00
	00		 npad	 11
$LL2@Load_GemAb:
; File C:\Program Files\Microsoft Visual Studio\2022\Professional\VC\Tools\MSVC\14.44.35207\atlmfc\include\cstringt.h

; 184  : 		return _mbscmp( reinterpret_cast< const unsigned char* >( pszA ), reinterpret_cast< const unsigned char* >( pszB ) );

  00080	68 00 00 00 00	 push	 OFFSET ??_C@_07PPPKBPJP@ABILITY@
  00085	ff b5 b8 f7 ff
	ff		 push	 DWORD PTR _s$[ebp+32]
  0008b	e8 00 00 00 00	 call	 __mbscmp
  00090	83 c4 08	 add	 esp, 8

; 2490 : 		return(str1.Compare(psz2) == 0);

  00093	85 c0		 test	 eax, eax
; File C:\IAGOS\server\v18\Source\Source\_Common\UltimateWeapon.cpp

; 56   : 		if( s.Token == _T( "ABILITY" ) )

  00095	0f 85 b4 01 00
	00		 jne	 $LN125@Load_GemAb
; File C:\Program Files\Microsoft Visual Studio\2022\Professional\VC\Tools\MSVC\14.44.35207\include\vector

; 400  :     _CONSTEXPR20 _Vector_val() noexcept : _Myfirst(), _Mylast(), _Myend() {}

  0009b	89 85 8c f7 ff
	ff		 mov	 DWORD PTR _GemAbilityKind$5[ebp+4], eax
  000a1	89 85 90 f7 ff
	ff		 mov	 DWORD PTR _GemAbilityKind$5[ebp+8], eax
  000a7	89 85 94 f7 ff
	ff		 mov	 DWORD PTR _GemAbilityKind$5[ebp+12], eax
; File C:\IAGOS\server\v18\Source\Source\_Common\UltimateWeapon.cpp

; 59   : 			s.GetToken();

  000ad	50		 push	 eax
  000ae	8d 8d 98 f7 ff
	ff		 lea	 ecx, DWORD PTR _s$[ebp]
  000b4	c6 45 fc 01	 mov	 BYTE PTR __$EHRec$[ebp+8], 1
  000b8	e8 00 00 00 00	 call	 ?GetToken@CScanner@@UAEHH@Z ; CScanner::GetToken

; 60   : 			GemAbilityKind.nAbility = CScript::GetDefineNum( s.Token );

  000bd	ff b5 b8 f7 ff
	ff		 push	 DWORD PTR _s$[ebp+32]
  000c3	e8 00 00 00 00	 call	 ?GetDefineNum@CScript@@SAHPBD@Z ; CScript::GetDefineNum
  000c8	83 c4 04	 add	 esp, 4
  000cb	89 85 88 f7 ff
	ff		 mov	 DWORD PTR _GemAbilityKind$5[ebp], eax

; 61   : 			
; 62   : 			s.GetToken(); // {

  000d1	8d 8d 98 f7 ff
	ff		 lea	 ecx, DWORD PTR _s$[ebp]
  000d7	6a 00		 push	 0
  000d9	e8 00 00 00 00	 call	 ?GetToken@CScanner@@UAEHH@Z ; CScanner::GetToken

; 63   : 			s.GetToken();

  000de	6a 00		 push	 0
  000e0	8d 8d 98 f7 ff
	ff		 lea	 ecx, DWORD PTR _s$[ebp]
  000e6	e8 00 00 00 00	 call	 ?GetToken@CScanner@@UAEHH@Z ; CScanner::GetToken

; 64   : 			while( *s.token != '}' )

  000eb	8b 85 d4 f7 ff
	ff		 mov	 eax, DWORD PTR _s$[ebp+60]
  000f1	80 38 7d	 cmp	 BYTE PTR [eax], 125	; 0000007dH
  000f4	0f 84 06 01 00
	00		 je	 $LN5@Load_GemAb
  000fa	66 0f 1f 44 00
	00		 npad	 6
$LL4@Load_GemAb:
; File C:\Program Files\Microsoft Visual Studio\2022\Professional\VC\Tools\MSVC\14.44.35207\include\vector

; 400  :     _CONSTEXPR20 _Vector_val() noexcept : _Myfirst(), _Mylast(), _Myend() {}

  00100	c7 85 7c f7 ff
	ff 00 00 00 00	 mov	 DWORD PTR _GemAbility$4[ebp+8], 0
  0010a	c7 85 80 f7 ff
	ff 00 00 00 00	 mov	 DWORD PTR _GemAbility$4[ebp+12], 0
  00114	c7 85 84 f7 ff
	ff 00 00 00 00	 mov	 DWORD PTR _GemAbility$4[ebp+16], 0
; File C:\IAGOS\server\v18\Source\Source\_Common\UltimateWeapon.cpp

; 67   : 				GemAbility.dwGemItemId = CScript::GetDefineNum( s.Token );

  0011e	ff b5 b8 f7 ff
	ff		 push	 DWORD PTR _s$[ebp+32]
  00124	c6 45 fc 02	 mov	 BYTE PTR __$EHRec$[ebp+8], 2
  00128	e8 00 00 00 00	 call	 ?GetDefineNum@CScript@@SAHPBD@Z ; CScript::GetDefineNum
  0012d	83 c4 04	 add	 esp, 4
  00130	89 85 74 f7 ff
	ff		 mov	 DWORD PTR _GemAbility$4[ebp], eax

; 68   : 				s.GetToken();

  00136	8d 8d 98 f7 ff
	ff		 lea	 ecx, DWORD PTR _s$[ebp]
  0013c	6a 00		 push	 0
  0013e	e8 00 00 00 00	 call	 ?GetToken@CScanner@@UAEHH@Z ; CScanner::GetToken

; 69   : 				GemAbility.dwAbilityItemId = CScript::GetDefineNum( s.Token );

  00143	ff b5 b8 f7 ff
	ff		 push	 DWORD PTR _s$[ebp+32]
  00149	e8 00 00 00 00	 call	 ?GetDefineNum@CScript@@SAHPBD@Z ; CScript::GetDefineNum
  0014e	83 c4 04	 add	 esp, 4
  00151	89 85 78 f7 ff
	ff		 mov	 DWORD PTR _GemAbility$4[ebp+4], eax
; File C:\Program Files\Microsoft Visual Studio\2022\Professional\VC\Tools\MSVC\14.44.35207\include\vector

; 400  :     _CONSTEXPR20 _Vector_val() noexcept : _Myfirst(), _Mylast(), _Myend() {}

  00157	be 05 00 00 00	 mov	 esi, 5
  0015c	0f 1f 40 00	 npad	 4
$LL8@Load_GemAb:
; File C:\IAGOS\server\v18\Source\Source\_Common\UltimateWeapon.cpp

; 71   : 					GemAbility.vecAbility.push_back( s.GetNumber() );

  00160	6a 00		 push	 0
  00162	8d 8d 98 f7 ff
	ff		 lea	 ecx, DWORD PTR _s$[ebp]
  00168	e8 00 00 00 00	 call	 ?GetNumber@CScanner@@QAEHH@Z ; CScanner::GetNumber
; File C:\Program Files\Microsoft Visual Studio\2022\Professional\VC\Tools\MSVC\14.44.35207\include\vector

; 844  :         if (_Mylast != _My_data._Myend) {

  0016d	8b 8d 80 f7 ff
	ff		 mov	 ecx, DWORD PTR _GemAbility$4[ebp+12]
; File C:\IAGOS\server\v18\Source\Source\_Common\UltimateWeapon.cpp

; 71   : 					GemAbility.vecAbility.push_back( s.GetNumber() );

  00173	89 85 64 f7 ff
	ff		 mov	 DWORD PTR $T2[ebp], eax
; File C:\Program Files\Microsoft Visual Studio\2022\Professional\VC\Tools\MSVC\14.44.35207\include\vector

; 844  :         if (_Mylast != _My_data._Myend) {

  00179	3b 8d 84 f7 ff
	ff		 cmp	 ecx, DWORD PTR _GemAbility$4[ebp+16]
  0017f	74 0b		 je	 SHORT $LN25@Load_GemAb

; 860  :             _STD _Construct_in_place(*_Mylast, _STD forward<_Valty>(_Val)...);

  00181	89 01		 mov	 DWORD PTR [ecx], eax

; 869  :         ++_Mylast;

  00183	83 85 80 f7 ff
	ff 04		 add	 DWORD PTR _GemAbility$4[ebp+12], 4

; 845  :             return _Emplace_back_with_unused_capacity(_STD forward<_Valty>(_Val)...);

  0018a	eb 13		 jmp	 SHORT $LN6@Load_GemAb
$LN25@Load_GemAb:

; 848  :         return *_Emplace_reallocate(_Mylast, _STD forward<_Valty>(_Val)...);

  0018c	8d 85 64 f7 ff
	ff		 lea	 eax, DWORD PTR $T2[ebp]
  00192	50		 push	 eax
  00193	51		 push	 ecx
  00194	8d 8d 7c f7 ff
	ff		 lea	 ecx, DWORD PTR _GemAbility$4[ebp+8]
  0019a	e8 00 00 00 00	 call	 ??$_Emplace_reallocate@H@?$vector@HV?$allocator@H@std@@@std@@AAEPAHQAH$$QAH@Z ; std::vector<int,std::allocator<int> >::_Emplace_reallocate<int>
$LN6@Load_GemAb:
; File C:\IAGOS\server\v18\Source\Source\_Common\UltimateWeapon.cpp

; 70   : 				for( int i=0; i<5; i++ )

  0019f	83 ee 01	 sub	 esi, 1
  001a2	75 bc		 jne	 SHORT $LL8@Load_GemAb
; File C:\Program Files\Microsoft Visual Studio\2022\Professional\VC\Tools\MSVC\14.44.35207\include\vector

; 844  :         if (_Mylast != _My_data._Myend) {

  001a4	8b 85 90 f7 ff
	ff		 mov	 eax, DWORD PTR _GemAbilityKind$5[ebp+8]
  001aa	8d 8d 74 f7 ff
	ff		 lea	 ecx, DWORD PTR _GemAbility$4[ebp]
  001b0	51		 push	 ecx
  001b1	3b 85 94 f7 ff
	ff		 cmp	 eax, DWORD PTR _GemAbilityKind$5[ebp+12]
  001b7	74 10		 je	 SHORT $LN32@Load_GemAb
; File C:\Program Files\Microsoft Visual Studio\2022\Professional\VC\Tools\MSVC\14.44.35207\include\xmemory

; 732  :         ::new (const_cast<void*>(static_cast<const volatile void*>(_Ptr))) _Objty(_STD forward<_Types>(_Args)...);

  001b9	8b c8		 mov	 ecx, eax
  001bb	e8 00 00 00 00	 call	 ??0__GEMABILITY@CUltimateWeapon@@QAE@ABU01@@Z
; File C:\Program Files\Microsoft Visual Studio\2022\Professional\VC\Tools\MSVC\14.44.35207\include\vector

; 869  :         ++_Mylast;

  001c0	83 85 90 f7 ff
	ff 14		 add	 DWORD PTR _GemAbilityKind$5[ebp+8], 20 ; 00000014H

; 845  :             return _Emplace_back_with_unused_capacity(_STD forward<_Valty>(_Val)...);

  001c7	eb 0c		 jmp	 SHORT $LN31@Load_GemAb
$LN32@Load_GemAb:

; 848  :         return *_Emplace_reallocate(_Mylast, _STD forward<_Valty>(_Val)...);

  001c9	50		 push	 eax
  001ca	8d 8d 8c f7 ff
	ff		 lea	 ecx, DWORD PTR _GemAbilityKind$5[ebp+4]
  001d0	e8 00 00 00 00	 call	 ??$_Emplace_reallocate@ABU__GEMABILITY@CUltimateWeapon@@@?$vector@U__GEMABILITY@CUltimateWeapon@@V?$allocator@U__GEMABILITY@CUltimateWeapon@@@std@@@std@@AAEPAU__GEMABILITY@CUltimateWeapon@@QAU23@ABU23@@Z ; std::vector<CUltimateWeapon::__GEMABILITY,std::allocator<CUltimateWeapon::__GEMABILITY> >::_Emplace_reallocate<CUltimateWeapon::__GEMABILITY const &>
$LN31@Load_GemAb:
; File C:\IAGOS\server\v18\Source\Source\_Common\UltimateWeapon.cpp

; 73   : 				s.GetToken();

  001d5	6a 00		 push	 0
  001d7	8d 8d 98 f7 ff
	ff		 lea	 ecx, DWORD PTR _s$[ebp]
  001dd	e8 00 00 00 00	 call	 ?GetToken@CScanner@@UAEHH@Z ; CScanner::GetToken
; File C:\Program Files\Microsoft Visual Studio\2022\Professional\VC\Tools\MSVC\14.44.35207\include\vector

; 830  :         _Tidy();

  001e2	8d 8d 7c f7 ff
	ff		 lea	 ecx, DWORD PTR _GemAbility$4[ebp+8]
; File C:\IAGOS\server\v18\Source\Source\_Common\UltimateWeapon.cpp

; 74   : 			}

  001e8	c6 45 fc 01	 mov	 BYTE PTR __$EHRec$[ebp+8], 1
; File C:\Program Files\Microsoft Visual Studio\2022\Professional\VC\Tools\MSVC\14.44.35207\include\vector

; 830  :         _Tidy();

  001ec	e8 00 00 00 00	 call	 ?_Tidy@?$vector@HV?$allocator@H@std@@@std@@AAEXXZ ; std::vector<int,std::allocator<int> >::_Tidy
; File C:\IAGOS\server\v18\Source\Source\_Common\UltimateWeapon.cpp

; 64   : 			while( *s.token != '}' )

  001f1	8b 85 d4 f7 ff
	ff		 mov	 eax, DWORD PTR _s$[ebp+60]
  001f7	80 38 7d	 cmp	 BYTE PTR [eax], 125	; 0000007dH
  001fa	0f 85 00 ff ff
	ff		 jne	 $LL4@Load_GemAb
$LN5@Load_GemAb:
; File C:\Program Files\Microsoft Visual Studio\2022\Professional\VC\Tools\MSVC\14.44.35207\include\vector

; 844  :         if (_Mylast != _My_data._Myend) {

  00200	8b 43 14	 mov	 eax, DWORD PTR [ebx+20]
; File C:\IAGOS\server\v18\Source\Source\_Common\UltimateWeapon.cpp

; 75   : 			m_vecGemAbilityKind.push_back( GemAbilityKind );

  00203	8d 73 10	 lea	 esi, DWORD PTR [ebx+16]
; File C:\Program Files\Microsoft Visual Studio\2022\Professional\VC\Tools\MSVC\14.44.35207\include\vector

; 844  :         if (_Mylast != _My_data._Myend) {

  00206	8d 8d 88 f7 ff
	ff		 lea	 ecx, DWORD PTR _GemAbilityKind$5[ebp]
  0020c	51		 push	 ecx
  0020d	50		 push	 eax
  0020e	3b 46 08	 cmp	 eax, DWORD PTR [esi+8]
  00211	74 21		 je	 SHORT $LN65@Load_GemAb

; 863  :             _Alty_traits::construct(_Getal(), _Unfancy(_Mylast), _STD forward<_Valty>(_Val)...);

  00213	56		 push	 esi
  00214	e8 00 00 00 00	 call	 ??$construct@U__GEMABILITYKIND@CUltimateWeapon@@ABU12@@?$_Default_allocator_traits@V?$allocator@U__GEMABILITYKIND@CUltimateWeapon@@@std@@@std@@SAXAAV?$allocator@U__GEMABILITYKIND@CUltimateWeapon@@@1@QAU__GEMABILITYKIND@CUltimateWeapon@@ABU34@@Z ; std::_Default_allocator_traits<std::allocator<CUltimateWeapon::__GEMABILITYKIND> >::construct<CUltimateWeapon::__GEMABILITYKIND,CUltimateWeapon::__GEMABILITYKIND const &>

; 869  :         ++_Mylast;

  00219	83 46 04 10	 add	 DWORD PTR [esi+4], 16	; 00000010H

; 830  :         _Tidy();

  0021d	8d 8d 8c f7 ff
	ff		 lea	 ecx, DWORD PTR _GemAbilityKind$5[ebp+4]

; 863  :             _Alty_traits::construct(_Getal(), _Unfancy(_Mylast), _STD forward<_Valty>(_Val)...);

  00223	83 c4 0c	 add	 esp, 12			; 0000000cH
; File C:\IAGOS\server\v18\Source\Source\_Common\UltimateWeapon.cpp

; 76   : 		}

  00226	c6 45 fc 00	 mov	 BYTE PTR __$EHRec$[ebp+8], 0
; File C:\Program Files\Microsoft Visual Studio\2022\Professional\VC\Tools\MSVC\14.44.35207\include\vector

; 830  :         _Tidy();

  0022a	e8 00 00 00 00	 call	 ?_Tidy@?$vector@U__GEMABILITY@CUltimateWeapon@@V?$allocator@U__GEMABILITY@CUltimateWeapon@@@std@@@std@@AAEXXZ ; std::vector<CUltimateWeapon::__GEMABILITY,std::allocator<CUltimateWeapon::__GEMABILITY> >::_Tidy
; File C:\IAGOS\server\v18\Source\Source\_Common\UltimateWeapon.cpp

; 76   : 		}

  0022f	e9 f9 00 00 00	 jmp	 $LN10@Load_GemAb
$LN65@Load_GemAb:
; File C:\Program Files\Microsoft Visual Studio\2022\Professional\VC\Tools\MSVC\14.44.35207\include\vector

; 848  :         return *_Emplace_reallocate(_Mylast, _STD forward<_Valty>(_Val)...);

  00234	8b ce		 mov	 ecx, esi
  00236	e8 00 00 00 00	 call	 ??$_Emplace_reallocate@ABU__GEMABILITYKIND@CUltimateWeapon@@@?$vector@U__GEMABILITYKIND@CUltimateWeapon@@V?$allocator@U__GEMABILITYKIND@CUltimateWeapon@@@std@@@std@@AAEPAU__GEMABILITYKIND@CUltimateWeapon@@QAU23@ABU23@@Z ; std::vector<CUltimateWeapon::__GEMABILITYKIND,std::allocator<CUltimateWeapon::__GEMABILITYKIND> >::_Emplace_reallocate<CUltimateWeapon::__GEMABILITYKIND const &>

; 830  :         _Tidy();

  0023b	8d 8d 8c f7 ff
	ff		 lea	 ecx, DWORD PTR _GemAbilityKind$5[ebp+4]
; File C:\IAGOS\server\v18\Source\Source\_Common\UltimateWeapon.cpp

; 76   : 		}

  00241	c6 45 fc 00	 mov	 BYTE PTR __$EHRec$[ebp+8], 0
; File C:\Program Files\Microsoft Visual Studio\2022\Professional\VC\Tools\MSVC\14.44.35207\include\vector

; 830  :         _Tidy();

  00245	e8 00 00 00 00	 call	 ?_Tidy@?$vector@U__GEMABILITY@CUltimateWeapon@@V?$allocator@U__GEMABILITY@CUltimateWeapon@@@std@@@std@@AAEXXZ ; std::vector<CUltimateWeapon::__GEMABILITY,std::allocator<CUltimateWeapon::__GEMABILITY> >::_Tidy
; File C:\IAGOS\server\v18\Source\Source\_Common\UltimateWeapon.cpp

; 76   : 		}

  0024a	e9 de 00 00 00	 jmp	 $LN10@Load_GemAb
$LN125@Load_GemAb:
; File C:\Program Files\Microsoft Visual Studio\2022\Professional\VC\Tools\MSVC\14.44.35207\atlmfc\include\cstringt.h

; 184  : 		return _mbscmp( reinterpret_cast< const unsigned char* >( pszA ), reinterpret_cast< const unsigned char* >( pszB ) );

  0024f	68 00 00 00 00	 push	 OFFSET ??_C@_09HOBABKJK@LEVEL_GEM@
  00254	ff b5 b8 f7 ff
	ff		 push	 DWORD PTR _s$[ebp+32]
  0025a	e8 00 00 00 00	 call	 __mbscmp
  0025f	83 c4 08	 add	 esp, 8

; 2490 : 		return(str1.Compare(psz2) == 0);

  00262	85 c0		 test	 eax, eax
; File C:\IAGOS\server\v18\Source\Source\_Common\UltimateWeapon.cpp

; 77   : 		else if( s.Token == _T( "LEVEL_GEM" ) )

  00264	0f 85 c3 00 00
	00		 jne	 $LN10@Load_GemAb

; 80   : 			s.GetToken(); // {

  0026a	50		 push	 eax
  0026b	8d 8d 98 f7 ff
	ff		 lea	 ecx, DWORD PTR _s$[ebp]
; File C:\IAGOS\server\v18\Source\Source\_Common\UltimateWeapon.h

; 46   : 			dwItemID = 0;

  00271	89 85 68 f7 ff
	ff		 mov	 DWORD PTR _MakeGemItem$3[ebp], eax

; 47   : 			nMinLevel = 0;

  00277	89 85 6c f7 ff
	ff		 mov	 DWORD PTR _MakeGemItem$3[ebp+4], eax

; 48   : 			nMaxLevel = 0;

  0027d	89 85 70 f7 ff
	ff		 mov	 DWORD PTR _MakeGemItem$3[ebp+8], eax
; File C:\IAGOS\server\v18\Source\Source\_Common\UltimateWeapon.cpp

; 80   : 			s.GetToken(); // {

  00283	e8 00 00 00 00	 call	 ?GetToken@CScanner@@UAEHH@Z ; CScanner::GetToken

; 81   : 			s.GetToken();

  00288	6a 00		 push	 0
  0028a	8d 8d 98 f7 ff
	ff		 lea	 ecx, DWORD PTR _s$[ebp]
  00290	e8 00 00 00 00	 call	 ?GetToken@CScanner@@UAEHH@Z ; CScanner::GetToken

; 82   : 			while( *s.token != '}' )

  00295	8b 85 d4 f7 ff
	ff		 mov	 eax, DWORD PTR _s$[ebp+60]
  0029b	80 38 7d	 cmp	 BYTE PTR [eax], 125	; 0000007dH
  0029e	0f 84 89 00 00
	00		 je	 $LN10@Load_GemAb
$LL9@Load_GemAb:

; 83   : 			{
; 84   : 				MakeGemItem.dwItemID = CScript::GetDefineNum( s.Token );

  002a4	ff b5 b8 f7 ff
	ff		 push	 DWORD PTR _s$[ebp+32]
  002aa	e8 00 00 00 00	 call	 ?GetDefineNum@CScript@@SAHPBD@Z ; CScript::GetDefineNum
  002af	8b f0		 mov	 esi, eax
  002b1	83 c4 04	 add	 esp, 4
  002b4	89 b5 68 f7 ff
	ff		 mov	 DWORD PTR _MakeGemItem$3[ebp], esi
  002ba	83 fe ff	 cmp	 esi, -1

; 85   : 				if( MakeGemItem.dwItemID == (DWORD)-1 )		// cr

  002bd	0f 84 88 00 00
	00		 je	 $LN142@Load_GemAb

; 88   : 					return FALSE;
; 89   : 				}
; 90   : 				MakeGemItem.nMinLevel = s.GetNumber();

  002c3	6a 00		 push	 0
  002c5	8d 8d 98 f7 ff
	ff		 lea	 ecx, DWORD PTR _s$[ebp]
  002cb	e8 00 00 00 00	 call	 ?GetNumber@CScanner@@QAEHH@Z ; CScanner::GetNumber
  002d0	8b f8		 mov	 edi, eax

; 91   : 				MakeGemItem.nMaxLevel = s.GetNumber();

  002d2	8d 8d 98 f7 ff
	ff		 lea	 ecx, DWORD PTR _s$[ebp]
  002d8	6a 00		 push	 0
  002da	89 bd 6c f7 ff
	ff		 mov	 DWORD PTR _MakeGemItem$3[ebp+4], edi
  002e0	e8 00 00 00 00	 call	 ?GetNumber@CScanner@@QAEHH@Z ; CScanner::GetNumber
; File C:\Program Files\Microsoft Visual Studio\2022\Professional\VC\Tools\MSVC\14.44.35207\include\vector

; 844  :         if (_Mylast != _My_data._Myend) {

  002e5	8b 4b 08	 mov	 ecx, DWORD PTR [ebx+8]
; File C:\IAGOS\server\v18\Source\Source\_Common\UltimateWeapon.cpp

; 91   : 				MakeGemItem.nMaxLevel = s.GetNumber();

  002e8	89 85 70 f7 ff
	ff		 mov	 DWORD PTR _MakeGemItem$3[ebp+8], eax
; File C:\Program Files\Microsoft Visual Studio\2022\Professional\VC\Tools\MSVC\14.44.35207\include\vector

; 844  :         if (_Mylast != _My_data._Myend) {

  002ee	3b 4b 0c	 cmp	 ecx, DWORD PTR [ebx+12]
  002f1	74 0e		 je	 SHORT $LN80@Load_GemAb
; File C:\Program Files\Microsoft Visual Studio\2022\Professional\VC\Tools\MSVC\14.44.35207\include\xutility

; 476  :         ::new (static_cast<void*>(_STD addressof(_Obj))) _Ty(_STD forward<_Types>(_Args)...);

  002f3	89 31		 mov	 DWORD PTR [ecx], esi
  002f5	89 79 04	 mov	 DWORD PTR [ecx+4], edi
  002f8	89 41 08	 mov	 DWORD PTR [ecx+8], eax
; File C:\Program Files\Microsoft Visual Studio\2022\Professional\VC\Tools\MSVC\14.44.35207\include\vector

; 869  :         ++_Mylast;

  002fb	83 43 08 0c	 add	 DWORD PTR [ebx+8], 12	; 0000000cH

; 845  :             return _Emplace_back_with_unused_capacity(_STD forward<_Valty>(_Val)...);

  002ff	eb 10		 jmp	 SHORT $LN79@Load_GemAb
$LN80@Load_GemAb:

; 848  :         return *_Emplace_reallocate(_Mylast, _STD forward<_Valty>(_Val)...);

  00301	8d 85 68 f7 ff
	ff		 lea	 eax, DWORD PTR _MakeGemItem$3[ebp]
  00307	50		 push	 eax
  00308	51		 push	 ecx
  00309	8d 4b 04	 lea	 ecx, DWORD PTR [ebx+4]
  0030c	e8 00 00 00 00	 call	 ??$_Emplace_reallocate@ABU__MAKEGEMITEM@CUltimateWeapon@@@?$vector@U__MAKEGEMITEM@CUltimateWeapon@@V?$allocator@U__MAKEGEMITEM@CUltimateWeapon@@@std@@@std@@AAEPAU__MAKEGEMITEM@CUltimateWeapon@@QAU23@ABU23@@Z ; std::vector<CUltimateWeapon::__MAKEGEMITEM,std::allocator<CUltimateWeapon::__MAKEGEMITEM> >::_Emplace_reallocate<CUltimateWeapon::__MAKEGEMITEM const &>
$LN79@Load_GemAb:
; File C:\IAGOS\server\v18\Source\Source\_Common\UltimateWeapon.cpp

; 94   : 				s.GetToken();

  00311	6a 00		 push	 0
  00313	8d 8d 98 f7 ff
	ff		 lea	 ecx, DWORD PTR _s$[ebp]
  00319	e8 00 00 00 00	 call	 ?GetToken@CScanner@@UAEHH@Z ; CScanner::GetToken
  0031e	8b 85 d4 f7 ff
	ff		 mov	 eax, DWORD PTR _s$[ebp+60]
  00324	80 38 7d	 cmp	 BYTE PTR [eax], 125	; 0000007dH
  00327	0f 85 77 ff ff
	ff		 jne	 $LL9@Load_GemAb
$LN10@Load_GemAb:

; 95   : 			}
; 96   : 		}
; 97   : 		s.GetToken();

  0032d	6a 00		 push	 0
  0032f	8d 8d 98 f7 ff
	ff		 lea	 ecx, DWORD PTR _s$[ebp]
  00335	e8 00 00 00 00	 call	 ?GetToken@CScanner@@UAEHH@Z ; CScanner::GetToken
  0033a	83 7d dc 15	 cmp	 DWORD PTR _s$[ebp+2116], 21 ; 00000015H
  0033e	0f 85 3c fd ff
	ff		 jne	 $LL2@Load_GemAb
$LN149@Load_GemAb:

; 98   : 	}	
; 99   : 	return TRUE;

  00344	be 01 00 00 00	 mov	 esi, 1
  00349	eb 0f		 jmp	 SHORT $LN21@Load_GemAb
$LN142@Load_GemAb:

; 86   : 				{
; 87   : 					Error( "UltimateWeapon::Load_UltimateWeapon() ľĆŔĚĹŰŔĚ ľř´Â°ÍŔ» ĽłÁ¤ÇßŔ˝" );

  0034b	68 00 00 00 00	 push	 OFFSET ??_C@_0EB@DAOJOOCO@UltimateWeapon?3?3Load_UltimateWe@
  00350	e8 00 00 00 00	 call	 ?Error@@YAPBDPBDZZ	; Error
  00355	83 c4 04	 add	 esp, 4
$LN20@Load_GemAb:
  00358	33 f6		 xor	 esi, esi
$LN21@Load_GemAb:

; 98   : 	}	
; 99   : 	return TRUE;

  0035a	8d 8d 98 f7 ff
	ff		 lea	 ecx, DWORD PTR _s$[ebp]
  00360	e8 00 00 00 00	 call	 ??1CScanner@@UAE@XZ	; CScanner::~CScanner
  00365	8b c6		 mov	 eax, esi

; 100  : }

  00367	8b 4d f4	 mov	 ecx, DWORD PTR __$EHRec$[ebp]
  0036a	64 89 0d 00 00
	00 00		 mov	 DWORD PTR fs:0, ecx
  00371	59		 pop	 ecx
  00372	5f		 pop	 edi
  00373	5e		 pop	 esi
  00374	5b		 pop	 ebx
  00375	8b 4d f0	 mov	 ecx, DWORD PTR __$ArrayPad$[ebp]
  00378	33 cd		 xor	 ecx, ebp
  0037a	e8 00 00 00 00	 call	 @__security_check_cookie@4
  0037f	8b e5		 mov	 esp, ebp
  00381	5d		 pop	 ebp
  00382	c3		 ret	 0
_TEXT	ENDS
;	COMDAT text$x
text$x	SEGMENT
__unwindfunclet$?Load_GemAbility@CUltimateWeapon@@QAEHXZ$0:
  00000	8d 8d 98 f7 ff
	ff		 lea	 ecx, DWORD PTR _s$[ebp]
  00006	e9 00 00 00 00	 jmp	 ??1CScanner@@UAE@XZ	; CScanner::~CScanner
__unwindfunclet$?Load_GemAbility@CUltimateWeapon@@QAEHXZ$1:
  0000b	8d 8d 88 f7 ff
	ff		 lea	 ecx, DWORD PTR _GemAbilityKind$5[ebp]
  00011	e9 00 00 00 00	 jmp	 ??1__GEMABILITYKIND@CUltimateWeapon@@QAE@XZ
__unwindfunclet$?Load_GemAbility@CUltimateWeapon@@QAEHXZ$2:
  00016	8d 8d 74 f7 ff
	ff		 lea	 ecx, DWORD PTR _GemAbility$4[ebp]
  0001c	e9 00 00 00 00	 jmp	 ??1__GEMABILITY@CUltimateWeapon@@QAE@XZ
  00021	cc		 int	 3
  00022	cc		 int	 3
  00023	cc		 int	 3
  00024	cc		 int	 3
  00025	cc		 int	 3
__ehhandler$?Load_GemAbility@CUltimateWeapon@@QAEHXZ:
  00026	90		 npad	 1
  00027	90		 npad	 1
  00028	8b 54 24 08	 mov	 edx, DWORD PTR [esp+8]
  0002c	8d 42 0c	 lea	 eax, DWORD PTR [edx+12]
  0002f	8b 8a 60 f7 ff
	ff		 mov	 ecx, DWORD PTR [edx-2208]
  00035	33 c8		 xor	 ecx, eax
  00037	e8 00 00 00 00	 call	 @__security_check_cookie@4
  0003c	8b 4a fc	 mov	 ecx, DWORD PTR [edx-4]
  0003f	33 c8		 xor	 ecx, eax
  00041	e8 00 00 00 00	 call	 @__security_check_cookie@4
  00046	b8 00 00 00 00	 mov	 eax, OFFSET __ehfuncinfo$?Load_GemAbility@CUltimateWeapon@@QAEHXZ
  0004b	e9 00 00 00 00	 jmp	 ___CxxFrameHandler3
text$x	ENDS
?Load_GemAbility@CUltimateWeapon@@QAEHXZ ENDP		; CUltimateWeapon::Load_GemAbility
; Function compile flags: /Ogtp
; File C:\Program Files\Microsoft Visual Studio\2022\Professional\VC\Tools\MSVC\14.44.35207\include\vector
;	COMDAT ??1__GEMABILITYKIND@CUltimateWeapon@@QAE@XZ
_TEXT	SEGMENT
??1__GEMABILITYKIND@CUltimateWeapon@@QAE@XZ PROC	; CUltimateWeapon::__GEMABILITYKIND::~__GEMABILITYKIND, COMDAT
; _this$ = ecx
  00000	83 c1 04	 add	 ecx, 4

; 830  :         _Tidy();

  00003	e9 00 00 00 00	 jmp	 ?_Tidy@?$vector@U__GEMABILITY@CUltimateWeapon@@V?$allocator@U__GEMABILITY@CUltimateWeapon@@@std@@@std@@AAEXXZ ; std::vector<CUltimateWeapon::__GEMABILITY,std::allocator<CUltimateWeapon::__GEMABILITY> >::_Tidy
??1__GEMABILITYKIND@CUltimateWeapon@@QAE@XZ ENDP	; CUltimateWeapon::__GEMABILITYKIND::~__GEMABILITYKIND
_TEXT	ENDS
; Function compile flags: /Ogtp
; File C:\Program Files\Microsoft Visual Studio\2022\Professional\VC\Tools\MSVC\14.44.35207\include\vector
;	COMDAT ?_Xlength@?$vector@U__GEMABILITY@CUltimateWeapon@@V?$allocator@U__GEMABILITY@CUltimateWeapon@@@std@@@std@@CAXXZ
_TEXT	SEGMENT
?_Xlength@?$vector@U__GEMABILITY@CUltimateWeapon@@V?$allocator@U__GEMABILITY@CUltimateWeapon@@@std@@@std@@CAXXZ PROC ; std::vector<CUltimateWeapon::__GEMABILITY,std::allocator<CUltimateWeapon::__GEMABILITY> >::_Xlength, COMDAT

; 2184 :         _Xlength_error("vector too long");

  00000	68 00 00 00 00	 push	 OFFSET ??_C@_0BA@FOIKENOD@vector?5too?5long@
  00005	e8 00 00 00 00	 call	 ?_Xlength_error@std@@YAXPBD@Z ; std::_Xlength_error
$LN3@Xlength:
  0000a	cc		 int	 3
?_Xlength@?$vector@U__GEMABILITY@CUltimateWeapon@@V?$allocator@U__GEMABILITY@CUltimateWeapon@@@std@@@std@@CAXXZ ENDP ; std::vector<CUltimateWeapon::__GEMABILITY,std::allocator<CUltimateWeapon::__GEMABILITY> >::_Xlength
_TEXT	ENDS
; Function compile flags: /Ogtp
; File C:\Program Files\Microsoft Visual Studio\2022\Professional\VC\Tools\MSVC\14.44.35207\include\vector
; File C:\Program Files\Microsoft Visual Studio\2022\Professional\VC\Tools\MSVC\14.44.35207\include\xmemory
; File C:\Program Files\Microsoft Visual Studio\2022\Professional\VC\Tools\MSVC\14.44.35207\include\vector
; File C:\Program Files\Microsoft Visual Studio\2022\Professional\VC\Tools\MSVC\14.44.35207\include\xmemory
; File C:\Program Files\Microsoft Visual Studio\2022\Professional\VC\Tools\MSVC\14.44.35207\include\vector
; File C:\Program Files\Microsoft Visual Studio\2022\Professional\VC\Tools\MSVC\14.44.35207\include\xmemory
; File C:\Program Files\Microsoft Visual Studio\2022\Professional\VC\Tools\MSVC\14.44.35207\include\vector
; File C:\Program Files\Microsoft Visual Studio\2022\Professional\VC\Tools\MSVC\14.44.35207\include\xmemory
; File C:\Program Files\Microsoft Visual Studio\2022\Professional\VC\Tools\MSVC\14.44.35207\include\vector
; File C:\Program Files\Microsoft Visual Studio\2022\Professional\VC\Tools\MSVC\14.44.35207\include\xmemory
; File C:\Program Files\Microsoft Visual Studio\2022\Professional\VC\Tools\MSVC\14.44.35207\include\vector
; File C:\Program Files\Microsoft Visual Studio\2022\Professional\VC\Tools\MSVC\14.44.35207\include\xmemory
; File C:\Program Files\Microsoft Visual Studio\2022\Professional\VC\Tools\MSVC\14.44.35207\include\vector
;	COMDAT ?_Tidy@?$vector@U__GEMABILITY@CUltimateWeapon@@V?$allocator@U__GEMABILITY@CUltimateWeapon@@@std@@@std@@AAEXXZ
_TEXT	SEGMENT
?_Tidy@?$vector@U__GEMABILITY@CUltimateWeapon@@V?$allocator@U__GEMABILITY@CUltimateWeapon@@@std@@@std@@AAEXXZ PROC ; std::vector<CUltimateWeapon::__GEMABILITY,std::allocator<CUltimateWeapon::__GEMABILITY> >::_Tidy, COMDAT
; _this$ = ecx

; 2081 :     _CONSTEXPR20 void _Tidy() noexcept { // free all storage

  00000	56		 push	 esi
  00001	57		 push	 edi
  00002	8b f9		 mov	 edi, ecx

; 2082 :         auto& _Al         = _Getal();
; 2083 :         auto& _My_data    = _Mypair._Myval2;
; 2084 :         pointer& _Myfirst = _My_data._Myfirst;
; 2085 :         pointer& _Mylast  = _My_data._Mylast;
; 2086 :         pointer& _Myend   = _My_data._Myend;
; 2087 : 
; 2088 :         _My_data._Orphan_all();
; 2089 : 
; 2090 :         if (_Myfirst) { // destroy and deallocate old array

  00004	8b 37		 mov	 esi, DWORD PTR [edi]
  00006	85 f6		 test	 esi, esi
  00008	74 6e		 je	 SHORT $LN2@Tidy

; 2091 :             _STD _Destroy_range(_Myfirst, _Mylast, _Al);

  0000a	53		 push	 ebx
  0000b	8b 5f 04	 mov	 ebx, DWORD PTR [edi+4]
; File C:\Program Files\Microsoft Visual Studio\2022\Professional\VC\Tools\MSVC\14.44.35207\include\xmemory

; 1102 :         for (; _First != _Last; ++_First) {

  0000e	3b f3		 cmp	 esi, ebx
  00010	74 0f		 je	 SHORT $LN7@Tidy
$LL8@Tidy:
; File C:\Program Files\Microsoft Visual Studio\2022\Professional\VC\Tools\MSVC\14.44.35207\include\vector

; 830  :         _Tidy();

  00012	8d 4e 08	 lea	 ecx, DWORD PTR [esi+8]
  00015	e8 00 00 00 00	 call	 ?_Tidy@?$vector@HV?$allocator@H@std@@@std@@AAEXXZ ; std::vector<int,std::allocator<int> >::_Tidy
; File C:\Program Files\Microsoft Visual Studio\2022\Professional\VC\Tools\MSVC\14.44.35207\include\xmemory

; 1102 :         for (; _First != _Last; ++_First) {

  0001a	83 c6 14	 add	 esi, 20			; 00000014H
  0001d	3b f3		 cmp	 esi, ebx
  0001f	75 f1		 jne	 SHORT $LL8@Tidy
$LN7@Tidy:
; File C:\Program Files\Microsoft Visual Studio\2022\Professional\VC\Tools\MSVC\14.44.35207\include\vector

; 2093 :             _Al.deallocate(_Myfirst, static_cast<size_type>(_Myend - _Myfirst));

  00021	8b 4f 08	 mov	 ecx, DWORD PTR [edi+8]
  00024	b8 67 66 66 66	 mov	 eax, 1717986919		; 66666667H
  00029	8b 37		 mov	 esi, DWORD PTR [edi]
  0002b	2b ce		 sub	 ecx, esi
  0002d	f7 e9		 imul	 ecx
; File C:\Program Files\Microsoft Visual Studio\2022\Professional\VC\Tools\MSVC\14.44.35207\include\xmemory

; 985  :         _STD _Deallocate<_New_alignof<_Ty>>(_Ptr, sizeof(_Ty) * _Count);

  0002f	5b		 pop	 ebx
; File C:\Program Files\Microsoft Visual Studio\2022\Professional\VC\Tools\MSVC\14.44.35207\include\vector

; 2093 :             _Al.deallocate(_Myfirst, static_cast<size_type>(_Myend - _Myfirst));

  00030	c1 fa 03	 sar	 edx, 3
  00033	8b c2		 mov	 eax, edx
  00035	c1 e8 1f	 shr	 eax, 31			; 0000001fH
  00038	03 c2		 add	 eax, edx
; File C:\Program Files\Microsoft Visual Studio\2022\Professional\VC\Tools\MSVC\14.44.35207\include\xmemory

; 985  :         _STD _Deallocate<_New_alignof<_Ty>>(_Ptr, sizeof(_Ty) * _Count);

  0003a	8d 0c 80	 lea	 ecx, DWORD PTR [eax+eax*4]
  0003d	c1 e1 02	 shl	 ecx, 2

; 284  :         if (_Bytes >= _Big_allocation_threshold) {

  00040	81 f9 00 10 00
	00		 cmp	 ecx, 4096		; 00001000H
  00046	72 12		 jb	 SHORT $LN35@Tidy

; 205  :     const uintptr_t _Ptr_container   = _Ptr_user[-1];

  00048	8b 56 fc	 mov	 edx, DWORD PTR [esi-4]
  0004b	83 c1 23	 add	 ecx, 35			; 00000023H

; 206  : 
; 207  :     // If the following asserts, it likely means that we are performing
; 208  :     // an aligned delete on memory coming from an unaligned allocation.
; 209  :     _STL_ASSERT(_Ptr_user[-2] == _Big_allocation_sentinel, "invalid argument");
; 210  : 
; 211  :     // Extra paranoia on aligned allocation/deallocation; ensure _Ptr_container is
; 212  :     // in range [_Min_back_shift, _Non_user_size]
; 213  : #ifdef _DEBUG
; 214  :     constexpr uintptr_t _Min_back_shift = 2 * sizeof(void*);
; 215  : #else // ^^^ defined(_DEBUG) / !defined(_DEBUG) vvv
; 216  :     constexpr uintptr_t _Min_back_shift = sizeof(void*);
; 217  : #endif // ^^^ !defined(_DEBUG) ^^^
; 218  :     const uintptr_t _Back_shift = reinterpret_cast<uintptr_t>(_Ptr) - _Ptr_container;

  0004e	2b f2		 sub	 esi, edx

; 219  :     _STL_VERIFY(_Back_shift >= _Min_back_shift && _Back_shift <= _Non_user_size, "invalid argument");

  00050	8d 46 fc	 lea	 eax, DWORD PTR [esi-4]
  00053	83 f8 1f	 cmp	 eax, 31			; 0000001fH
  00056	77 23		 ja	 SHORT $LN34@Tidy

; 220  :     _Ptr = reinterpret_cast<void*>(_Ptr_container);

  00058	8b f2		 mov	 esi, edx
$LN35@Tidy:

; 289  :         ::operator delete(_Ptr, _Bytes);

  0005a	51		 push	 ecx
  0005b	56		 push	 esi
  0005c	e8 00 00 00 00	 call	 ??3@YAXPAXI@Z		; operator delete
; File C:\Program Files\Microsoft Visual Studio\2022\Professional\VC\Tools\MSVC\14.44.35207\include\vector

; 2095 :             _Myfirst = nullptr;

  00061	c7 07 00 00 00
	00		 mov	 DWORD PTR [edi], 0
; File C:\Program Files\Microsoft Visual Studio\2022\Professional\VC\Tools\MSVC\14.44.35207\include\xmemory

; 289  :         ::operator delete(_Ptr, _Bytes);

  00067	83 c4 08	 add	 esp, 8
; File C:\Program Files\Microsoft Visual Studio\2022\Professional\VC\Tools\MSVC\14.44.35207\include\vector

; 2096 :             _Mylast  = nullptr;

  0006a	c7 47 04 00 00
	00 00		 mov	 DWORD PTR [edi+4], 0

; 2097 :             _Myend   = nullptr;

  00071	c7 47 08 00 00
	00 00		 mov	 DWORD PTR [edi+8], 0
$LN2@Tidy:

; 2099 :     }

  00078	5f		 pop	 edi
  00079	5e		 pop	 esi
  0007a	c3		 ret	 0
$LN34@Tidy:
; File C:\Program Files\Microsoft Visual Studio\2022\Professional\VC\Tools\MSVC\14.44.35207\include\xmemory

; 219  :     _STL_VERIFY(_Back_shift >= _Min_back_shift && _Back_shift <= _Non_user_size, "invalid argument");

  0007b	6a 00		 push	 0
  0007d	6a 00		 push	 0
  0007f	6a 00		 push	 0
  00081	6a 00		 push	 0
  00083	6a 00		 push	 0
  00085	e8 00 00 00 00	 call	 __invoke_watson
$LN47@Tidy:
  0008a	cc		 int	 3
?_Tidy@?$vector@U__GEMABILITY@CUltimateWeapon@@V?$allocator@U__GEMABILITY@CUltimateWeapon@@@std@@@std@@AAEXXZ ENDP ; std::vector<CUltimateWeapon::__GEMABILITY,std::allocator<CUltimateWeapon::__GEMABILITY> >::_Tidy
_TEXT	ENDS
; Function compile flags: /Ogtp
; File C:\Program Files\Microsoft Visual Studio\2022\Professional\VC\Tools\MSVC\14.44.35207\include\vector
; File C:\Program Files\Microsoft Visual Studio\2022\Professional\VC\Tools\MSVC\14.44.35207\include\xmemory
; File C:\Program Files\Microsoft Visual Studio\2022\Professional\VC\Tools\MSVC\14.44.35207\include\vector
; File C:\Program Files\Microsoft Visual Studio\2022\Professional\VC\Tools\MSVC\14.44.35207\include\xmemory
; File C:\Program Files\Microsoft Visual Studio\2022\Professional\VC\Tools\MSVC\14.44.35207\include\vector
; File C:\Program Files\Microsoft Visual Studio\2022\Professional\VC\Tools\MSVC\14.44.35207\include\xmemory
; File C:\Program Files\Microsoft Visual Studio\2022\Professional\VC\Tools\MSVC\14.44.35207\include\vector
; File C:\Program Files\Microsoft Visual Studio\2022\Professional\VC\Tools\MSVC\14.44.35207\include\xmemory
; File C:\Program Files\Microsoft Visual Studio\2022\Professional\VC\Tools\MSVC\14.44.35207\include\vector
; File C:\Program Files\Microsoft Visual Studio\2022\Professional\VC\Tools\MSVC\14.44.35207\include\xmemory
; File C:\Program Files\Microsoft Visual Studio\2022\Professional\VC\Tools\MSVC\14.44.35207\include\vector
;	COMDAT ?_Buy_raw@?$vector@U__GEMABILITY@CUltimateWeapon@@V?$allocator@U__GEMABILITY@CUltimateWeapon@@@std@@@std@@AAEXI@Z
_TEXT	SEGMENT
__Newcapacity$ = 8					; size = 4
?_Buy_raw@?$vector@U__GEMABILITY@CUltimateWeapon@@V?$allocator@U__GEMABILITY@CUltimateWeapon@@@std@@@std@@AAEXI@Z PROC ; std::vector<CUltimateWeapon::__GEMABILITY,std::allocator<CUltimateWeapon::__GEMABILITY> >::_Buy_raw, COMDAT
; _this$ = ecx

; 2024 :     _CONSTEXPR20 void _Buy_raw(size_type _Newcapacity) {

  00000	55		 push	 ebp
  00001	8b ec		 mov	 ebp, esp
; File C:\Program Files\Microsoft Visual Studio\2022\Professional\VC\Tools\MSVC\14.44.35207\include\xmemory

; 117  :         if (_Count > _Max_possible) {

  00003	8b 45 08	 mov	 eax, DWORD PTR __Newcapacity$[ebp]
; File C:\Program Files\Microsoft Visual Studio\2022\Professional\VC\Tools\MSVC\14.44.35207\include\vector

; 2024 :     _CONSTEXPR20 void _Buy_raw(size_type _Newcapacity) {

  00006	57		 push	 edi
  00007	8b f9		 mov	 edi, ecx
; File C:\Program Files\Microsoft Visual Studio\2022\Professional\VC\Tools\MSVC\14.44.35207\include\xmemory

; 117  :         if (_Count > _Max_possible) {

  00009	3d cc cc cc 0c	 cmp	 eax, 214748364		; 0cccccccH
  0000e	77 56		 ja	 SHORT $LN25@Buy_raw
  00010	56		 push	 esi

; 119  :         }
; 120  :     }
; 121  : 
; 122  :     return _Count * _Ty_size;

  00011	8d 34 80	 lea	 esi, DWORD PTR [eax+eax*4]
  00014	c1 e6 02	 shl	 esi, 2

; 227  :     if (_Bytes == 0) {

  00017	85 f6		 test	 esi, esi
  00019	75 12		 jne	 SHORT $LN12@Buy_raw

; 228  :         return nullptr;

  0001b	33 c0		 xor	 eax, eax
; File C:\Program Files\Microsoft Visual Studio\2022\Professional\VC\Tools\MSVC\14.44.35207\include\vector

; 2035 :         _Myfirst              = _Newvec;

  0001d	89 07		 mov	 DWORD PTR [edi], eax

; 2036 :         _Mylast               = _Newvec;

  0001f	89 47 04	 mov	 DWORD PTR [edi+4], eax

; 2037 :         _Myend                = _Newvec + _Newcapacity;

  00022	8b c6		 mov	 eax, esi
  00024	89 47 08	 mov	 DWORD PTR [edi+8], eax
  00027	5e		 pop	 esi

; 2038 :     }

  00028	5f		 pop	 edi
  00029	5d		 pop	 ebp
  0002a	c2 04 00	 ret	 4
$LN12@Buy_raw:
; File C:\Program Files\Microsoft Visual Studio\2022\Professional\VC\Tools\MSVC\14.44.35207\include\xmemory

; 251  :         if (_Bytes >= _Big_allocation_threshold) {

  0002d	56		 push	 esi
  0002e	81 fe 00 10 00
	00		 cmp	 esi, 4096		; 00001000H
  00034	72 18		 jb	 SHORT $LN13@Buy_raw

; 252  :             // boost the alignment of big allocations to help autovectorization
; 253  :             return _Allocate_manually_vector_aligned<_Traits>(_Bytes);

  00036	e8 00 00 00 00	 call	 ??$_Allocate_manually_vector_aligned@U_Default_allocate_traits@std@@@std@@YAPAXI@Z ; std::_Allocate_manually_vector_aligned<std::_Default_allocate_traits>
; File C:\Program Files\Microsoft Visual Studio\2022\Professional\VC\Tools\MSVC\14.44.35207\include\vector

; 2035 :         _Myfirst              = _Newvec;

  0003b	83 c4 04	 add	 esp, 4
  0003e	89 07		 mov	 DWORD PTR [edi], eax

; 2036 :         _Mylast               = _Newvec;

  00040	89 47 04	 mov	 DWORD PTR [edi+4], eax

; 2037 :         _Myend                = _Newvec + _Newcapacity;

  00043	03 c6		 add	 eax, esi
  00045	89 47 08	 mov	 DWORD PTR [edi+8], eax
  00048	5e		 pop	 esi

; 2038 :     }

  00049	5f		 pop	 edi
  0004a	5d		 pop	 ebp
  0004b	c2 04 00	 ret	 4
$LN13@Buy_raw:
; File C:\Program Files\Microsoft Visual Studio\2022\Professional\VC\Tools\MSVC\14.44.35207\include\xmemory

; 136  :         return ::operator new(_Bytes);

  0004e	e8 00 00 00 00	 call	 ??2@YAPAXI@Z		; operator new
; File C:\Program Files\Microsoft Visual Studio\2022\Professional\VC\Tools\MSVC\14.44.35207\include\vector

; 2035 :         _Myfirst              = _Newvec;

  00053	83 c4 04	 add	 esp, 4
  00056	89 07		 mov	 DWORD PTR [edi], eax

; 2036 :         _Mylast               = _Newvec;

  00058	89 47 04	 mov	 DWORD PTR [edi+4], eax

; 2037 :         _Myend                = _Newvec + _Newcapacity;

  0005b	03 c6		 add	 eax, esi
  0005d	89 47 08	 mov	 DWORD PTR [edi+8], eax
  00060	5e		 pop	 esi

; 2038 :     }

  00061	5f		 pop	 edi
  00062	5d		 pop	 ebp
  00063	c2 04 00	 ret	 4
$LN25@Buy_raw:
; File C:\Program Files\Microsoft Visual Studio\2022\Professional\VC\Tools\MSVC\14.44.35207\include\xmemory

; 118  :             _Throw_bad_array_new_length(); // multiply overflow

  00066	e8 00 00 00 00	 call	 ?_Throw_bad_array_new_length@std@@YAXXZ ; std::_Throw_bad_array_new_length
$LN22@Buy_raw:
  0006b	cc		 int	 3
?_Buy_raw@?$vector@U__GEMABILITY@CUltimateWeapon@@V?$allocator@U__GEMABILITY@CUltimateWeapon@@@std@@@std@@AAEXI@Z ENDP ; std::vector<CUltimateWeapon::__GEMABILITY,std::allocator<CUltimateWeapon::__GEMABILITY> >::_Buy_raw
_TEXT	ENDS
; Function compile flags: /Ogtp
; File C:\Program Files\Microsoft Visual Studio\2022\Professional\VC\Tools\MSVC\14.44.35207\include\xmemory
;	COMDAT ?deallocate@?$allocator@U__GEMABILITY@CUltimateWeapon@@@std@@QAEXQAU__GEMABILITY@CUltimateWeapon@@I@Z
_TEXT	SEGMENT
__Ptr$ = 8						; size = 4
__Count$ = 12						; size = 4
?deallocate@?$allocator@U__GEMABILITY@CUltimateWeapon@@@std@@QAEXQAU__GEMABILITY@CUltimateWeapon@@I@Z PROC ; std::allocator<CUltimateWeapon::__GEMABILITY>::deallocate, COMDAT
; _this$ = ecx

; 982  :     _CONSTEXPR20 void deallocate(_Ty* const _Ptr, const size_t _Count) noexcept /* strengthened */ {

  00000	55		 push	 ebp
  00001	8b ec		 mov	 ebp, esp

; 983  :         _STL_ASSERT(_Ptr != nullptr || _Count == 0, "null pointer cannot point to a block of non-zero size");
; 984  :         // no overflow check on the following multiply; we assume _Allocate did that check
; 985  :         _STD _Deallocate<_New_alignof<_Ty>>(_Ptr, sizeof(_Ty) * _Count);

  00003	8b 45 0c	 mov	 eax, DWORD PTR __Count$[ebp]
  00006	8d 0c 80	 lea	 ecx, DWORD PTR [eax+eax*4]
  00009	8b 45 08	 mov	 eax, DWORD PTR __Ptr$[ebp]
  0000c	c1 e1 02	 shl	 ecx, 2

; 284  :         if (_Bytes >= _Big_allocation_threshold) {

  0000f	81 f9 00 10 00
	00		 cmp	 ecx, 4096		; 00001000H
  00015	72 12		 jb	 SHORT $LN11@deallocate

; 205  :     const uintptr_t _Ptr_container   = _Ptr_user[-1];

  00017	8b 50 fc	 mov	 edx, DWORD PTR [eax-4]
  0001a	83 c1 23	 add	 ecx, 35			; 00000023H

; 206  : 
; 207  :     // If the following asserts, it likely means that we are performing
; 208  :     // an aligned delete on memory coming from an unaligned allocation.
; 209  :     _STL_ASSERT(_Ptr_user[-2] == _Big_allocation_sentinel, "invalid argument");
; 210  : 
; 211  :     // Extra paranoia on aligned allocation/deallocation; ensure _Ptr_container is
; 212  :     // in range [_Min_back_shift, _Non_user_size]
; 213  : #ifdef _DEBUG
; 214  :     constexpr uintptr_t _Min_back_shift = 2 * sizeof(void*);
; 215  : #else // ^^^ defined(_DEBUG) / !defined(_DEBUG) vvv
; 216  :     constexpr uintptr_t _Min_back_shift = sizeof(void*);
; 217  : #endif // ^^^ !defined(_DEBUG) ^^^
; 218  :     const uintptr_t _Back_shift = reinterpret_cast<uintptr_t>(_Ptr) - _Ptr_container;

  0001d	2b c2		 sub	 eax, edx

; 219  :     _STL_VERIFY(_Back_shift >= _Min_back_shift && _Back_shift <= _Non_user_size, "invalid argument");

  0001f	83 c0 fc	 add	 eax, -4			; fffffffcH
  00022	83 f8 1f	 cmp	 eax, 31			; 0000001fH
  00025	77 10		 ja	 SHORT $LN10@deallocate

; 220  :     _Ptr = reinterpret_cast<void*>(_Ptr_container);

  00027	8b c2		 mov	 eax, edx
$LN11@deallocate:

; 289  :         ::operator delete(_Ptr, _Bytes);

  00029	51		 push	 ecx
  0002a	50		 push	 eax
  0002b	e8 00 00 00 00	 call	 ??3@YAXPAXI@Z		; operator delete
  00030	83 c4 08	 add	 esp, 8

; 986  :     }

  00033	5d		 pop	 ebp
  00034	c2 08 00	 ret	 8
$LN10@deallocate:

; 219  :     _STL_VERIFY(_Back_shift >= _Min_back_shift && _Back_shift <= _Non_user_size, "invalid argument");

  00037	6a 00		 push	 0
  00039	6a 00		 push	 0
  0003b	6a 00		 push	 0
  0003d	6a 00		 push	 0
  0003f	6a 00		 push	 0
  00041	e8 00 00 00 00	 call	 __invoke_watson
$LN14@deallocate:
  00046	cc		 int	 3
?deallocate@?$allocator@U__GEMABILITY@CUltimateWeapon@@@std@@QAEXQAU__GEMABILITY@CUltimateWeapon@@I@Z ENDP ; std::allocator<CUltimateWeapon::__GEMABILITY>::deallocate
_TEXT	ENDS
; Function compile flags: /Ogtp
; File C:\Program Files\Microsoft Visual Studio\2022\Professional\VC\Tools\MSVC\14.44.35207\include\vector
; File C:\Program Files\Microsoft Visual Studio\2022\Professional\VC\Tools\MSVC\14.44.35207\include\xmemory
; File C:\Program Files\Microsoft Visual Studio\2022\Professional\VC\Tools\MSVC\14.44.35207\include\xutility
; File C:\Program Files\Microsoft Visual Studio\2022\Professional\VC\Tools\MSVC\14.44.35207\include\xmemory
; File C:\Program Files\Microsoft Visual Studio\2022\Professional\VC\Tools\MSVC\14.44.35207\include\vector
; File C:\Program Files\Microsoft Visual Studio\2022\Professional\VC\Tools\MSVC\14.44.35207\include\xmemory
; File C:\Program Files\Microsoft Visual Studio\2022\Professional\VC\Tools\MSVC\14.44.35207\include\vector
; File C:\Program Files\Microsoft Visual Studio\2022\Professional\VC\Tools\MSVC\14.44.35207\include\xutility
; File C:\Program Files\Microsoft Visual Studio\2022\Professional\VC\Tools\MSVC\14.44.35207\include\vector
; File C:\Program Files\Microsoft Visual Studio\2022\Professional\VC\Tools\MSVC\14.44.35207\include\xutility
; File C:\Program Files\Microsoft Visual Studio\2022\Professional\VC\Tools\MSVC\14.44.35207\include\vector
;	COMDAT ??4__GEMABILITY@CUltimateWeapon@@QAEAAU01@ABU01@@Z
_TEXT	SEGMENT
_this$1$ = -12						; size = 4
tv535 = -8						; size = 4
__Oldsize$1$ = -4					; size = 4
___that$ = 8						; size = 4
__First$2$ = 8						; size = 4
??4__GEMABILITY@CUltimateWeapon@@QAEAAU01@ABU01@@Z PROC	; CUltimateWeapon::__GEMABILITY::operator=, COMDAT
; _this$ = ecx
  00000	55		 push	 ebp
  00001	8b ec		 mov	 ebp, esp
  00003	83 ec 0c	 sub	 esp, 12			; 0000000cH

; 1524 :         if (this == _STD addressof(_Right)) {

  00006	8b 55 08	 mov	 edx, DWORD PTR ___that$[ebp]
  00009	53		 push	 ebx
  0000a	57		 push	 edi
  0000b	8b f9		 mov	 edi, ecx
  0000d	8b 02		 mov	 eax, DWORD PTR [edx]
  0000f	8d 5a 08	 lea	 ebx, DWORD PTR [edx+8]
  00012	89 7d f4	 mov	 DWORD PTR _this$1$[ebp], edi
  00015	89 07		 mov	 DWORD PTR [edi], eax
  00017	8b 42 04	 mov	 eax, DWORD PTR [edx+4]
  0001a	89 47 04	 mov	 DWORD PTR [edi+4], eax
  0001d	83 c7 08	 add	 edi, 8
  00020	3b fb		 cmp	 edi, ebx
  00022	0f 84 e7 00 00
	00		 je	 $LN12@operator

; 1525 :             return *this;
; 1526 :         }
; 1527 : 
; 1528 :         auto& _Al       = _Getal();
; 1529 :         auto& _Right_al = _Right._Getal();
; 1530 :         if constexpr (_Choose_pocca_v<_Alty>) {
; 1531 :             if (_Al != _Right_al) {
; 1532 :                 _Tidy();
; 1533 :                 _Mypair._Myval2._Reload_proxy(_GET_PROXY_ALLOCATOR(_Alty, _Al), _GET_PROXY_ALLOCATOR(_Alty, _Right_al));
; 1534 :             }
; 1535 :         }
; 1536 : 
; 1537 :         _Pocca(_Al, _Right_al);
; 1538 :         auto& _Right_data = _Right._Mypair._Myval2;
; 1539 :         _Assign_counted_range(_Right_data._Myfirst, static_cast<size_type>(_Right_data._Mylast - _Right_data._Myfirst));

  00028	8b 03		 mov	 eax, DWORD PTR [ebx]
  0002a	8b 5b 04	 mov	 ebx, DWORD PTR [ebx+4]

; 1432 :         const auto _Oldcapacity = static_cast<size_type>(_Myend - _Myfirst);

  0002d	8b 0f		 mov	 ecx, DWORD PTR [edi]

; 1539 :         _Assign_counted_range(_Right_data._Myfirst, static_cast<size_type>(_Right_data._Mylast - _Right_data._Myfirst));

  0002f	2b d8		 sub	 ebx, eax

; 1432 :         const auto _Oldcapacity = static_cast<size_type>(_Myend - _Myfirst);

  00031	8b 57 08	 mov	 edx, DWORD PTR [edi+8]
  00034	2b d1		 sub	 edx, ecx

; 1539 :         _Assign_counted_range(_Right_data._Myfirst, static_cast<size_type>(_Right_data._Mylast - _Right_data._Myfirst));

  00036	c1 fb 02	 sar	 ebx, 2

; 1432 :         const auto _Oldcapacity = static_cast<size_type>(_Myend - _Myfirst);

  00039	c1 fa 02	 sar	 edx, 2

; 1539 :         _Assign_counted_range(_Right_data._Myfirst, static_cast<size_type>(_Right_data._Mylast - _Right_data._Myfirst));

  0003c	89 45 08	 mov	 DWORD PTR __First$2$[ebp], eax

; 1432 :         const auto _Oldcapacity = static_cast<size_type>(_Myend - _Myfirst);

  0003f	89 4d f8	 mov	 DWORD PTR tv535[ebp], ecx
  00042	56		 push	 esi

; 1433 :         if (_Newsize > _Oldcapacity) {

  00043	3b da		 cmp	 ebx, edx
  00045	76 74		 jbe	 SHORT $LN10@operator

; 1703 :         if (_Newsize > max_size()) {

  00047	81 fb ff ff ff
	3f		 cmp	 ebx, 1073741823		; 3fffffffH
  0004d	0f 87 c7 00 00
	00		 ja	 $LN71@operator

; 2011 :         if (_Oldcapacity > _Max - _Oldcapacity / 2) {

  00053	8b f2		 mov	 esi, edx
  00055	b8 ff ff ff 3f	 mov	 eax, 1073741823		; 3fffffffH
  0005a	d1 ee		 shr	 esi, 1
  0005c	2b c6		 sub	 eax, esi
  0005e	3b d0		 cmp	 edx, eax
  00060	76 07		 jbe	 SHORT $LN20@operator

; 2012 :             return _Max; // geometric growth would overflow

  00062	be ff ff ff 3f	 mov	 esi, 1073741823		; 3fffffffH
  00067	eb 07		 jmp	 SHORT $LN21@operator
$LN20@operator:

; 2013 :         }
; 2014 : 
; 2015 :         const size_type _Geometric = _Oldcapacity + _Oldcapacity / 2;

  00069	03 f2		 add	 esi, edx

; 2016 : 
; 2017 :         if (_Geometric < _Newsize) {

  0006b	3b f3		 cmp	 esi, ebx
  0006d	0f 42 f3	 cmovb	 esi, ebx
$LN21@operator:

; 1709 :         if (_Myfirst) { // destroy and deallocate old array

  00070	85 c9		 test	 ecx, ecx
  00072	74 1d		 je	 SHORT $LN17@operator

; 1710 :             _Destroy_range(_Myfirst, _Mylast, _Al);
; 1711 :             _ASAN_VECTOR_REMOVE;
; 1712 :             _Al.deallocate(_Myfirst, static_cast<size_type>(_Myend - _Myfirst));

  00074	52		 push	 edx
  00075	51		 push	 ecx
  00076	8b cf		 mov	 ecx, edi
  00078	e8 00 00 00 00	 call	 ?deallocate@?$allocator@H@std@@QAEXQAHI@Z ; std::allocator<int>::deallocate

; 1713 : 
; 1714 :             _Myfirst = nullptr;

  0007d	c7 07 00 00 00
	00		 mov	 DWORD PTR [edi], 0

; 1715 :             _Mylast  = nullptr;

  00083	c7 47 04 00 00
	00 00		 mov	 DWORD PTR [edi+4], 0

; 1716 :             _Myend   = nullptr;

  0008a	c7 47 08 00 00
	00 00		 mov	 DWORD PTR [edi+8], 0
$LN17@operator:

; 1717 :         }
; 1718 : 
; 1719 :         _Buy_raw(_Newcapacity);

  00091	56		 push	 esi
  00092	8b cf		 mov	 ecx, edi
  00094	e8 00 00 00 00	 call	 ?_Buy_raw@?$vector@HV?$allocator@H@std@@@std@@AAEXI@Z ; std::vector<int,std::allocator<int> >::_Buy_raw

; 1436 :                 _Mylast = _STD _Uninitialized_copy_n(_STD move(_First), _Newsize, _Myfirst, _Al);

  00099	8b 37		 mov	 esi, DWORD PTR [edi]
; File C:\Program Files\Microsoft Visual Studio\2022\Professional\VC\Tools\MSVC\14.44.35207\include\xmemory

; 1930 :             _STD _Copy_memmove_n(_UFirst, _Count, _STD _Unfancy(_Dest));

  0009b	8b 45 08	 mov	 eax, DWORD PTR __First$2$[ebp]
  0009e	56		 push	 esi
  0009f	53		 push	 ebx
  000a0	50		 push	 eax
  000a1	e8 00 00 00 00	 call	 ??$_Copy_memmove_n@PAHPAH@std@@YAPAHPAHI0@Z ; std::_Copy_memmove_n<int *,int *>
; File C:\Program Files\Microsoft Visual Studio\2022\Professional\VC\Tools\MSVC\14.44.35207\include\xutility

; 4808 :             return _Copy_memmove_n(_First, static_cast<size_t>(_Count), _Dest);

  000a6	83 c4 0c	 add	 esp, 12			; 0000000cH
; File C:\Program Files\Microsoft Visual Studio\2022\Professional\VC\Tools\MSVC\14.44.35207\include\xmemory

; 1931 :             _Dest += _Count;

  000a9	8d 04 9e	 lea	 eax, DWORD PTR [esi+ebx*4]
; File C:\Program Files\Microsoft Visual Studio\2022\Professional\VC\Tools\MSVC\14.44.35207\include\vector

; 1478 :             _Mylast = _Newlast;

  000ac	89 47 04	 mov	 DWORD PTR [edi+4], eax
  000af	8b 45 f4	 mov	 eax, DWORD PTR _this$1$[ebp]
  000b2	5e		 pop	 esi
  000b3	5f		 pop	 edi
  000b4	5b		 pop	 ebx
  000b5	8b e5		 mov	 esp, ebp
  000b7	5d		 pop	 ebp
  000b8	c2 04 00	 ret	 4
$LN10@operator:

; 1437 :                 _ASAN_VECTOR_CREATE;
; 1438 :             } else {
; 1439 :                 _ASAN_VECTOR_CREATE_GUARD;
; 1440 :                 _Mylast = _STD _Uninitialized_copy_n(_STD move(_First), _Newsize, _Myfirst, _Al);
; 1441 :             }
; 1442 :             return;
; 1443 :         }
; 1444 : 
; 1445 :         const auto _Oldsize = static_cast<size_type>(_Mylast - _Myfirst);

  000bb	8b 77 04	 mov	 esi, DWORD PTR [edi+4]
  000be	2b f1		 sub	 esi, ecx
  000c0	c1 fe 02	 sar	 esi, 2
  000c3	89 75 fc	 mov	 DWORD PTR __Oldsize$1$[ebp], esi

; 1446 :         if (_Newsize > _Oldsize) {

  000c6	51		 push	 ecx
  000c7	3b de		 cmp	 ebx, esi
  000c9	76 30		 jbe	 SHORT $LN11@operator

; 1447 :             bool _Copied = false;
; 1448 :             if constexpr (_Iter_copy_cat<_Iter, pointer>::_Bitcopy_assignable) {
; 1449 : #if _HAS_CXX20
; 1450 :                 if (!_STD is_constant_evaluated())
; 1451 : #endif // _HAS_CXX20
; 1452 :                 {
; 1453 :                     _Copy_memmove_n(_First, static_cast<size_t>(_Oldsize), _Myfirst);

  000cb	56		 push	 esi
  000cc	50		 push	 eax
  000cd	e8 00 00 00 00	 call	 ??$_Copy_memmove_n@PAHPAH@std@@YAPAHPAHI0@Z ; std::_Copy_memmove_n<int *,int *>

; 1454 :                     _First += _Oldsize;

  000d2	8b 45 08	 mov	 eax, DWORD PTR __First$2$[ebp]

; 1455 :                     _Copied = true;
; 1456 :                 }
; 1457 :             }
; 1458 : 
; 1459 :             if (!_Copied) {
; 1460 :                 for (auto _Mid = _Myfirst; _Mid != _Mylast; ++_Mid, (void) ++_First) {
; 1461 :                     *_Mid = *_First;
; 1462 :                 }
; 1463 :             }
; 1464 : 
; 1465 :             if constexpr (_Nothrow_construct) {
; 1466 :                 _ASAN_VECTOR_MODIFY(static_cast<difference_type>(_Newsize - _Oldsize));
; 1467 :                 _Mylast = _STD _Uninitialized_copy_n(_STD move(_First), _Newsize - _Oldsize, _Mylast, _Al);

  000d5	2b 5d fc	 sub	 ebx, DWORD PTR __Oldsize$1$[ebp]
  000d8	8d 04 b0	 lea	 eax, DWORD PTR [eax+esi*4]
  000db	8b 77 04	 mov	 esi, DWORD PTR [edi+4]
; File C:\Program Files\Microsoft Visual Studio\2022\Professional\VC\Tools\MSVC\14.44.35207\include\xmemory

; 1930 :             _STD _Copy_memmove_n(_UFirst, _Count, _STD _Unfancy(_Dest));

  000de	56		 push	 esi
  000df	53		 push	 ebx
  000e0	50		 push	 eax
  000e1	e8 00 00 00 00	 call	 ??$_Copy_memmove_n@PAHPAH@std@@YAPAHPAHI0@Z ; std::_Copy_memmove_n<int *,int *>
  000e6	83 c4 18	 add	 esp, 24			; 00000018H

; 1931 :             _Dest += _Count;

  000e9	8d 04 9e	 lea	 eax, DWORD PTR [esi+ebx*4]
; File C:\Program Files\Microsoft Visual Studio\2022\Professional\VC\Tools\MSVC\14.44.35207\include\vector

; 1478 :             _Mylast = _Newlast;

  000ec	89 47 04	 mov	 DWORD PTR [edi+4], eax
  000ef	8b 45 f4	 mov	 eax, DWORD PTR _this$1$[ebp]
  000f2	5e		 pop	 esi
  000f3	5f		 pop	 edi
  000f4	5b		 pop	 ebx
  000f5	8b e5		 mov	 esp, ebp
  000f7	5d		 pop	 ebp
  000f8	c2 04 00	 ret	 4
$LN11@operator:
; File C:\Program Files\Microsoft Visual Studio\2022\Professional\VC\Tools\MSVC\14.44.35207\include\xutility

; 4808 :             return _Copy_memmove_n(_First, static_cast<size_t>(_Count), _Dest);

  000fb	53		 push	 ebx
  000fc	50		 push	 eax
  000fd	e8 00 00 00 00	 call	 ??$_Copy_memmove_n@PAHPAH@std@@YAPAHPAHI0@Z ; std::_Copy_memmove_n<int *,int *>
; File C:\Program Files\Microsoft Visual Studio\2022\Professional\VC\Tools\MSVC\14.44.35207\include\vector

; 1474 :             const pointer _Newlast = _Myfirst + _Newsize;

  00102	8b 45 f8	 mov	 eax, DWORD PTR tv535[ebp]
; File C:\Program Files\Microsoft Visual Studio\2022\Professional\VC\Tools\MSVC\14.44.35207\include\xutility

; 4808 :             return _Copy_memmove_n(_First, static_cast<size_t>(_Count), _Dest);

  00105	83 c4 0c	 add	 esp, 12			; 0000000cH
; File C:\Program Files\Microsoft Visual Studio\2022\Professional\VC\Tools\MSVC\14.44.35207\include\vector

; 1474 :             const pointer _Newlast = _Myfirst + _Newsize;

  00108	8d 04 98	 lea	 eax, DWORD PTR [eax+ebx*4]

; 1478 :             _Mylast = _Newlast;

  0010b	89 47 04	 mov	 DWORD PTR [edi+4], eax
  0010e	5e		 pop	 esi
$LN12@operator:
  0010f	8b 45 f4	 mov	 eax, DWORD PTR _this$1$[ebp]
  00112	5f		 pop	 edi
  00113	5b		 pop	 ebx
  00114	8b e5		 mov	 esp, ebp
  00116	5d		 pop	 ebp
  00117	c2 04 00	 ret	 4
$LN71@operator:

; 1704 :             _Xlength();

  0011a	e8 00 00 00 00	 call	 ?_Xlength@?$vector@HV?$allocator@H@std@@@std@@CAXXZ ; std::vector<int,std::allocator<int> >::_Xlength
$LN67@operator:
  0011f	cc		 int	 3
??4__GEMABILITY@CUltimateWeapon@@QAEAAU01@ABU01@@Z ENDP	; CUltimateWeapon::__GEMABILITY::operator=
_TEXT	ENDS
; Function compile flags: /Ogtp
; File C:\Program Files\Microsoft Visual Studio\2022\Professional\VC\Tools\MSVC\14.44.35207\include\vector
; File C:\Program Files\Microsoft Visual Studio\2022\Professional\VC\Tools\MSVC\14.44.35207\include\xmemory
; File C:\Program Files\Microsoft Visual Studio\2022\Professional\VC\Tools\MSVC\14.44.35207\include\vector
; File C:\Program Files\Microsoft Visual Studio\2022\Professional\VC\Tools\MSVC\14.44.35207\include\xmemory
; File C:\Program Files\Microsoft Visual Studio\2022\Professional\VC\Tools\MSVC\14.44.35207\include\vector
;	COMDAT ??0__GEMABILITY@CUltimateWeapon@@QAE@ABU01@@Z
_TEXT	SEGMENT
_this$ = -4						; size = 4
___that$ = 8						; size = 4
??0__GEMABILITY@CUltimateWeapon@@QAE@ABU01@@Z PROC	; CUltimateWeapon::__GEMABILITY::__GEMABILITY, COMDAT
; _this$ = ecx
  00000	55		 push	 ebp
  00001	8b ec		 mov	 ebp, esp
  00003	51		 push	 ecx

; 400  :     _CONSTEXPR20 _Vector_val() noexcept : _Myfirst(), _Mylast(), _Myend() {}

  00004	53		 push	 ebx
  00005	57		 push	 edi
  00006	8b 7d 08	 mov	 edi, DWORD PTR ___that$[ebp]
  00009	8d 59 08	 lea	 ebx, DWORD PTR [ecx+8]
  0000c	89 4d fc	 mov	 DWORD PTR _this$[ebp], ecx
  0000f	8b 07		 mov	 eax, DWORD PTR [edi]
  00011	89 01		 mov	 DWORD PTR [ecx], eax
  00013	8b 47 04	 mov	 eax, DWORD PTR [edi+4]
  00016	89 41 04	 mov	 DWORD PTR [ecx+4], eax
  00019	c7 03 00 00 00
	00		 mov	 DWORD PTR [ebx], 0
  0001f	c7 43 04 00 00
	00 00		 mov	 DWORD PTR [ebx+4], 0
  00026	c7 43 08 00 00
	00 00		 mov	 DWORD PTR [ebx+8], 0

; 748  :         const auto _Count       = static_cast<size_type>(_Right_data._Mylast - _Right_data._Myfirst);

  0002d	8b 47 0c	 mov	 eax, DWORD PTR [edi+12]
  00030	2b 47 08	 sub	 eax, DWORD PTR [edi+8]
  00033	c1 f8 02	 sar	 eax, 2

; 2111 :         if (_Count != 0) {

  00036	85 c0		 test	 eax, eax
  00038	74 32		 je	 SHORT $LN32@GEMABILITY

; 2051 :         if (_Newcapacity > max_size()) {

  0003a	3d ff ff ff 3f	 cmp	 eax, 1073741823		; 3fffffffH
  0003f	77 35		 ja	 SHORT $LN41@GEMABILITY
  00041	56		 push	 esi

; 2053 :         }
; 2054 : 
; 2055 :         _Buy_raw(_Newcapacity);

  00042	50		 push	 eax
  00043	8b cb		 mov	 ecx, ebx
  00045	e8 00 00 00 00	 call	 ?_Buy_raw@?$vector@HV?$allocator@H@std@@@std@@AAEXI@Z ; std::vector<int,std::allocator<int> >::_Buy_raw

; 2120 :                 _My_data._Mylast = _STD _Uninitialized_copy(_STD forward<_Valty>(_Val)..., _My_data._Myfirst, _Al);

  0004a	8b 1b		 mov	 ebx, DWORD PTR [ebx]
; File C:\Program Files\Microsoft Visual Studio\2022\Professional\VC\Tools\MSVC\14.44.35207\include\xmemory

; 1876 :     auto _UFirst = _STD _Get_unwrapped(_STD move(_First));

  0004c	8b 77 08	 mov	 esi, DWORD PTR [edi+8]

; 1877 :     auto _ULast  = _STD _Get_unwrapped(_STD move(_Last));

  0004f	8b 7f 0c	 mov	 edi, DWORD PTR [edi+12]

; 1878 : #endif // ^^^ !_HAS_CXX20 ^^^
; 1879 : 
; 1880 :     constexpr bool _Can_memmove = _Sent_copy_cat<decltype(_UFirst), decltype(_ULast), _Ptrval>::_Bitcopy_constructible
; 1881 :                                && _Uses_default_construct<_Alloc, _Ptrval, decltype(*_UFirst)>::value;
; 1882 : 
; 1883 :     if constexpr (_Can_memmove) {
; 1884 : #if _HAS_CXX20
; 1885 :         if (!_STD is_constant_evaluated())
; 1886 : #endif // _HAS_CXX20
; 1887 :         {
; 1888 :             if constexpr (is_same_v<decltype(_UFirst), decltype(_ULast)>) {
; 1889 :                 _STD _Copy_memmove(_STD _To_address(_UFirst), _STD _To_address(_ULast), _STD _Unfancy(_Dest));

  00052	53		 push	 ebx
  00053	57		 push	 edi
  00054	56		 push	 esi
  00055	e8 00 00 00 00	 call	 ??$_Copy_memmove@PAHPAH@std@@YAPAHPAH00@Z ; std::_Copy_memmove<int *,int *>
; File C:\Program Files\Microsoft Visual Studio\2022\Professional\VC\Tools\MSVC\14.44.35207\include\vector

; 2120 :                 _My_data._Mylast = _STD _Uninitialized_copy(_STD forward<_Valty>(_Val)..., _My_data._Myfirst, _Al);

  0005a	8b 4d fc	 mov	 ecx, DWORD PTR _this$[ebp]
; File C:\Program Files\Microsoft Visual Studio\2022\Professional\VC\Tools\MSVC\14.44.35207\include\xmemory

; 1890 :                 _Dest += _ULast - _UFirst;

  0005d	2b fe		 sub	 edi, esi
  0005f	83 c4 0c	 add	 esp, 12			; 0000000cH
  00062	c1 ff 02	 sar	 edi, 2
  00065	8d 04 bb	 lea	 eax, DWORD PTR [ebx+edi*4]
; File C:\Program Files\Microsoft Visual Studio\2022\Professional\VC\Tools\MSVC\14.44.35207\include\vector

; 2120 :                 _My_data._Mylast = _STD _Uninitialized_copy(_STD forward<_Valty>(_Val)..., _My_data._Myfirst, _Al);

  00068	89 41 0c	 mov	 DWORD PTR [ecx+12], eax
  0006b	5e		 pop	 esi
$LN32@GEMABILITY:
  0006c	5f		 pop	 edi
  0006d	8b c1		 mov	 eax, ecx
  0006f	5b		 pop	 ebx
  00070	8b e5		 mov	 esp, ebp
  00072	5d		 pop	 ebp
  00073	c2 04 00	 ret	 4
$LN41@GEMABILITY:

; 2052 :             _Xlength();

  00076	e8 00 00 00 00	 call	 ?_Xlength@?$vector@HV?$allocator@H@std@@@std@@CAXXZ ; std::vector<int,std::allocator<int> >::_Xlength
$LN39@GEMABILITY:
  0007b	cc		 int	 3
??0__GEMABILITY@CUltimateWeapon@@QAE@ABU01@@Z ENDP	; CUltimateWeapon::__GEMABILITY::__GEMABILITY
_TEXT	ENDS
; Function compile flags: /Ogtp
; File C:\Program Files\Microsoft Visual Studio\2022\Professional\VC\Tools\MSVC\14.44.35207\include\vector
;	COMDAT ??1__GEMABILITY@CUltimateWeapon@@QAE@XZ
_TEXT	SEGMENT
??1__GEMABILITY@CUltimateWeapon@@QAE@XZ PROC		; CUltimateWeapon::__GEMABILITY::~__GEMABILITY, COMDAT
; _this$ = ecx
  00000	83 c1 08	 add	 ecx, 8

; 830  :         _Tidy();

  00003	e9 00 00 00 00	 jmp	 ?_Tidy@?$vector@HV?$allocator@H@std@@@std@@AAEXXZ ; std::vector<int,std::allocator<int> >::_Tidy
??1__GEMABILITY@CUltimateWeapon@@QAE@XZ ENDP		; CUltimateWeapon::__GEMABILITY::~__GEMABILITY
_TEXT	ENDS
; Function compile flags: /Ogtp
; File C:\Program Files\Microsoft Visual Studio\2022\Professional\VC\Tools\MSVC\14.44.35207\include\vector
;	COMDAT ?_Xlength@?$vector@HV?$allocator@H@std@@@std@@CAXXZ
_TEXT	SEGMENT
?_Xlength@?$vector@HV?$allocator@H@std@@@std@@CAXXZ PROC ; std::vector<int,std::allocator<int> >::_Xlength, COMDAT

; 2184 :         _Xlength_error("vector too long");

  00000	68 00 00 00 00	 push	 OFFSET ??_C@_0BA@FOIKENOD@vector?5too?5long@
  00005	e8 00 00 00 00	 call	 ?_Xlength_error@std@@YAXPBD@Z ; std::_Xlength_error
$LN3@Xlength:
  0000a	cc		 int	 3
?_Xlength@?$vector@HV?$allocator@H@std@@@std@@CAXXZ ENDP ; std::vector<int,std::allocator<int> >::_Xlength
_TEXT	ENDS
; Function compile flags: /Ogtp
; File C:\Program Files\Microsoft Visual Studio\2022\Professional\VC\Tools\MSVC\14.44.35207\include\vector
; File C:\Program Files\Microsoft Visual Studio\2022\Professional\VC\Tools\MSVC\14.44.35207\include\xmemory
; File C:\Program Files\Microsoft Visual Studio\2022\Professional\VC\Tools\MSVC\14.44.35207\include\vector
; File C:\Program Files\Microsoft Visual Studio\2022\Professional\VC\Tools\MSVC\14.44.35207\include\xmemory
; File C:\Program Files\Microsoft Visual Studio\2022\Professional\VC\Tools\MSVC\14.44.35207\include\vector
; File C:\Program Files\Microsoft Visual Studio\2022\Professional\VC\Tools\MSVC\14.44.35207\include\xmemory
; File C:\Program Files\Microsoft Visual Studio\2022\Professional\VC\Tools\MSVC\14.44.35207\include\vector
;	COMDAT ?_Tidy@?$vector@HV?$allocator@H@std@@@std@@AAEXXZ
_TEXT	SEGMENT
?_Tidy@?$vector@HV?$allocator@H@std@@@std@@AAEXXZ PROC	; std::vector<int,std::allocator<int> >::_Tidy, COMDAT
; _this$ = ecx

; 2081 :     _CONSTEXPR20 void _Tidy() noexcept { // free all storage

  00000	56		 push	 esi
  00001	8b f1		 mov	 esi, ecx

; 2082 :         auto& _Al         = _Getal();
; 2083 :         auto& _My_data    = _Mypair._Myval2;
; 2084 :         pointer& _Myfirst = _My_data._Myfirst;
; 2085 :         pointer& _Mylast  = _My_data._Mylast;
; 2086 :         pointer& _Myend   = _My_data._Myend;
; 2087 : 
; 2088 :         _My_data._Orphan_all();
; 2089 : 
; 2090 :         if (_Myfirst) { // destroy and deallocate old array

  00003	8b 06		 mov	 eax, DWORD PTR [esi]
  00005	85 c0		 test	 eax, eax
  00007	74 40		 je	 SHORT $LN2@Tidy

; 2091 :             _STD _Destroy_range(_Myfirst, _Mylast, _Al);
; 2092 :             _ASAN_VECTOR_REMOVE;
; 2093 :             _Al.deallocate(_Myfirst, static_cast<size_type>(_Myend - _Myfirst));

  00009	8b 4e 08	 mov	 ecx, DWORD PTR [esi+8]
  0000c	2b c8		 sub	 ecx, eax
; File C:\Program Files\Microsoft Visual Studio\2022\Professional\VC\Tools\MSVC\14.44.35207\include\xmemory

; 985  :         _STD _Deallocate<_New_alignof<_Ty>>(_Ptr, sizeof(_Ty) * _Count);

  0000e	83 e1 fc	 and	 ecx, -4			; fffffffcH

; 284  :         if (_Bytes >= _Big_allocation_threshold) {

  00011	81 f9 00 10 00
	00		 cmp	 ecx, 4096		; 00001000H
  00017	72 12		 jb	 SHORT $LN15@Tidy

; 205  :     const uintptr_t _Ptr_container   = _Ptr_user[-1];

  00019	8b 50 fc	 mov	 edx, DWORD PTR [eax-4]
  0001c	83 c1 23	 add	 ecx, 35			; 00000023H

; 206  : 
; 207  :     // If the following asserts, it likely means that we are performing
; 208  :     // an aligned delete on memory coming from an unaligned allocation.
; 209  :     _STL_ASSERT(_Ptr_user[-2] == _Big_allocation_sentinel, "invalid argument");
; 210  : 
; 211  :     // Extra paranoia on aligned allocation/deallocation; ensure _Ptr_container is
; 212  :     // in range [_Min_back_shift, _Non_user_size]
; 213  : #ifdef _DEBUG
; 214  :     constexpr uintptr_t _Min_back_shift = 2 * sizeof(void*);
; 215  : #else // ^^^ defined(_DEBUG) / !defined(_DEBUG) vvv
; 216  :     constexpr uintptr_t _Min_back_shift = sizeof(void*);
; 217  : #endif // ^^^ !defined(_DEBUG) ^^^
; 218  :     const uintptr_t _Back_shift = reinterpret_cast<uintptr_t>(_Ptr) - _Ptr_container;

  0001f	2b c2		 sub	 eax, edx

; 219  :     _STL_VERIFY(_Back_shift >= _Min_back_shift && _Back_shift <= _Non_user_size, "invalid argument");

  00021	83 c0 fc	 add	 eax, -4			; fffffffcH
  00024	83 f8 1f	 cmp	 eax, 31			; 0000001fH
  00027	77 22		 ja	 SHORT $LN14@Tidy

; 220  :     _Ptr = reinterpret_cast<void*>(_Ptr_container);

  00029	8b c2		 mov	 eax, edx
$LN15@Tidy:

; 289  :         ::operator delete(_Ptr, _Bytes);

  0002b	51		 push	 ecx
  0002c	50		 push	 eax
  0002d	e8 00 00 00 00	 call	 ??3@YAXPAXI@Z		; operator delete
; File C:\Program Files\Microsoft Visual Studio\2022\Professional\VC\Tools\MSVC\14.44.35207\include\vector

; 2095 :             _Myfirst = nullptr;

  00032	c7 06 00 00 00
	00		 mov	 DWORD PTR [esi], 0
; File C:\Program Files\Microsoft Visual Studio\2022\Professional\VC\Tools\MSVC\14.44.35207\include\xmemory

; 289  :         ::operator delete(_Ptr, _Bytes);

  00038	83 c4 08	 add	 esp, 8
; File C:\Program Files\Microsoft Visual Studio\2022\Professional\VC\Tools\MSVC\14.44.35207\include\vector

; 2096 :             _Mylast  = nullptr;

  0003b	c7 46 04 00 00
	00 00		 mov	 DWORD PTR [esi+4], 0

; 2097 :             _Myend   = nullptr;

  00042	c7 46 08 00 00
	00 00		 mov	 DWORD PTR [esi+8], 0
$LN2@Tidy:

; 2099 :     }

  00049	5e		 pop	 esi
  0004a	c3		 ret	 0
$LN14@Tidy:
; File C:\Program Files\Microsoft Visual Studio\2022\Professional\VC\Tools\MSVC\14.44.35207\include\xmemory

; 219  :     _STL_VERIFY(_Back_shift >= _Min_back_shift && _Back_shift <= _Non_user_size, "invalid argument");

  0004b	6a 00		 push	 0
  0004d	6a 00		 push	 0
  0004f	6a 00		 push	 0
  00051	6a 00		 push	 0
  00053	6a 00		 push	 0
  00055	e8 00 00 00 00	 call	 __invoke_watson
$LN22@Tidy:
  0005a	cc		 int	 3
?_Tidy@?$vector@HV?$allocator@H@std@@@std@@AAEXXZ ENDP	; std::vector<int,std::allocator<int> >::_Tidy
_TEXT	ENDS
; Function compile flags: /Ogtp
; File C:\Program Files\Microsoft Visual Studio\2022\Professional\VC\Tools\MSVC\14.44.35207\include\vector
; File C:\Program Files\Microsoft Visual Studio\2022\Professional\VC\Tools\MSVC\14.44.35207\include\xmemory
; File C:\Program Files\Microsoft Visual Studio\2022\Professional\VC\Tools\MSVC\14.44.35207\include\vector
; File C:\Program Files\Microsoft Visual Studio\2022\Professional\VC\Tools\MSVC\14.44.35207\include\xmemory
; File C:\Program Files\Microsoft Visual Studio\2022\Professional\VC\Tools\MSVC\14.44.35207\include\vector
; File C:\Program Files\Microsoft Visual Studio\2022\Professional\VC\Tools\MSVC\14.44.35207\include\xmemory
; File C:\Program Files\Microsoft Visual Studio\2022\Professional\VC\Tools\MSVC\14.44.35207\include\vector
; File C:\Program Files\Microsoft Visual Studio\2022\Professional\VC\Tools\MSVC\14.44.35207\include\xmemory
; File C:\Program Files\Microsoft Visual Studio\2022\Professional\VC\Tools\MSVC\14.44.35207\include\vector
; File C:\Program Files\Microsoft Visual Studio\2022\Professional\VC\Tools\MSVC\14.44.35207\include\xmemory
; File C:\Program Files\Microsoft Visual Studio\2022\Professional\VC\Tools\MSVC\14.44.35207\include\vector
;	COMDAT ?_Buy_raw@?$vector@HV?$allocator@H@std@@@std@@AAEXI@Z
_TEXT	SEGMENT
__Newcapacity$ = 8					; size = 4
?_Buy_raw@?$vector@HV?$allocator@H@std@@@std@@AAEXI@Z PROC ; std::vector<int,std::allocator<int> >::_Buy_raw, COMDAT
; _this$ = ecx

; 2024 :     _CONSTEXPR20 void _Buy_raw(size_type _Newcapacity) {

  00000	55		 push	 ebp
  00001	8b ec		 mov	 ebp, esp
  00003	56		 push	 esi
; File C:\Program Files\Microsoft Visual Studio\2022\Professional\VC\Tools\MSVC\14.44.35207\include\xmemory

; 117  :         if (_Count > _Max_possible) {

  00004	8b 75 08	 mov	 esi, DWORD PTR __Newcapacity$[ebp]
; File C:\Program Files\Microsoft Visual Studio\2022\Professional\VC\Tools\MSVC\14.44.35207\include\vector

; 2024 :     _CONSTEXPR20 void _Buy_raw(size_type _Newcapacity) {

  00007	57		 push	 edi
  00008	8b f9		 mov	 edi, ecx
; File C:\Program Files\Microsoft Visual Studio\2022\Professional\VC\Tools\MSVC\14.44.35207\include\xmemory

; 117  :         if (_Count > _Max_possible) {

  0000a	81 fe ff ff ff
	3f		 cmp	 esi, 1073741823		; 3fffffffH
  00010	77 52		 ja	 SHORT $LN25@Buy_raw

; 119  :         }
; 120  :     }
; 121  : 
; 122  :     return _Count * _Ty_size;

  00012	c1 e6 02	 shl	 esi, 2

; 227  :     if (_Bytes == 0) {

  00015	85 f6		 test	 esi, esi
  00017	75 12		 jne	 SHORT $LN12@Buy_raw

; 228  :         return nullptr;

  00019	33 c0		 xor	 eax, eax
; File C:\Program Files\Microsoft Visual Studio\2022\Professional\VC\Tools\MSVC\14.44.35207\include\vector

; 2035 :         _Myfirst              = _Newvec;

  0001b	89 07		 mov	 DWORD PTR [edi], eax

; 2036 :         _Mylast               = _Newvec;

  0001d	89 47 04	 mov	 DWORD PTR [edi+4], eax

; 2037 :         _Myend                = _Newvec + _Newcapacity;

  00020	8b c6		 mov	 eax, esi
  00022	89 47 08	 mov	 DWORD PTR [edi+8], eax

; 2038 :     }

  00025	5f		 pop	 edi
  00026	5e		 pop	 esi
  00027	5d		 pop	 ebp
  00028	c2 04 00	 ret	 4
$LN12@Buy_raw:
; File C:\Program Files\Microsoft Visual Studio\2022\Professional\VC\Tools\MSVC\14.44.35207\include\xmemory

; 251  :         if (_Bytes >= _Big_allocation_threshold) {

  0002b	56		 push	 esi
  0002c	81 fe 00 10 00
	00		 cmp	 esi, 4096		; 00001000H
  00032	72 18		 jb	 SHORT $LN13@Buy_raw

; 252  :             // boost the alignment of big allocations to help autovectorization
; 253  :             return _Allocate_manually_vector_aligned<_Traits>(_Bytes);

  00034	e8 00 00 00 00	 call	 ??$_Allocate_manually_vector_aligned@U_Default_allocate_traits@std@@@std@@YAPAXI@Z ; std::_Allocate_manually_vector_aligned<std::_Default_allocate_traits>
; File C:\Program Files\Microsoft Visual Studio\2022\Professional\VC\Tools\MSVC\14.44.35207\include\vector

; 2035 :         _Myfirst              = _Newvec;

  00039	89 07		 mov	 DWORD PTR [edi], eax
  0003b	83 c4 04	 add	 esp, 4

; 2036 :         _Mylast               = _Newvec;

  0003e	89 47 04	 mov	 DWORD PTR [edi+4], eax

; 2037 :         _Myend                = _Newvec + _Newcapacity;

  00041	03 c6		 add	 eax, esi
  00043	89 47 08	 mov	 DWORD PTR [edi+8], eax

; 2038 :     }

  00046	5f		 pop	 edi
  00047	5e		 pop	 esi
  00048	5d		 pop	 ebp
  00049	c2 04 00	 ret	 4
$LN13@Buy_raw:
; File C:\Program Files\Microsoft Visual Studio\2022\Professional\VC\Tools\MSVC\14.44.35207\include\xmemory

; 136  :         return ::operator new(_Bytes);

  0004c	e8 00 00 00 00	 call	 ??2@YAPAXI@Z		; operator new
; File C:\Program Files\Microsoft Visual Studio\2022\Professional\VC\Tools\MSVC\14.44.35207\include\vector

; 2035 :         _Myfirst              = _Newvec;

  00051	89 07		 mov	 DWORD PTR [edi], eax
  00053	83 c4 04	 add	 esp, 4

; 2036 :         _Mylast               = _Newvec;

  00056	89 47 04	 mov	 DWORD PTR [edi+4], eax

; 2037 :         _Myend                = _Newvec + _Newcapacity;

  00059	03 c6		 add	 eax, esi
  0005b	89 47 08	 mov	 DWORD PTR [edi+8], eax

; 2038 :     }

  0005e	5f		 pop	 edi
  0005f	5e		 pop	 esi
  00060	5d		 pop	 ebp
  00061	c2 04 00	 ret	 4
$LN25@Buy_raw:
; File C:\Program Files\Microsoft Visual Studio\2022\Professional\VC\Tools\MSVC\14.44.35207\include\xmemory

; 118  :             _Throw_bad_array_new_length(); // multiply overflow

  00064	e8 00 00 00 00	 call	 ?_Throw_bad_array_new_length@std@@YAXXZ ; std::_Throw_bad_array_new_length
$LN22@Buy_raw:
  00069	cc		 int	 3
?_Buy_raw@?$vector@HV?$allocator@H@std@@@std@@AAEXI@Z ENDP ; std::vector<int,std::allocator<int> >::_Buy_raw
_TEXT	ENDS
; Function compile flags: /Ogtp
; File C:\Program Files\Microsoft Visual Studio\2022\Professional\VC\Tools\MSVC\14.44.35207\include\xmemory
;	COMDAT ?deallocate@?$allocator@H@std@@QAEXQAHI@Z
_TEXT	SEGMENT
__Ptr$ = 8						; size = 4
__Count$ = 12						; size = 4
?deallocate@?$allocator@H@std@@QAEXQAHI@Z PROC		; std::allocator<int>::deallocate, COMDAT
; _this$ = ecx

; 982  :     _CONSTEXPR20 void deallocate(_Ty* const _Ptr, const size_t _Count) noexcept /* strengthened */ {

  00000	55		 push	 ebp
  00001	8b ec		 mov	 ebp, esp

; 983  :         _STL_ASSERT(_Ptr != nullptr || _Count == 0, "null pointer cannot point to a block of non-zero size");
; 984  :         // no overflow check on the following multiply; we assume _Allocate did that check
; 985  :         _STD _Deallocate<_New_alignof<_Ty>>(_Ptr, sizeof(_Ty) * _Count);

  00003	8b 45 0c	 mov	 eax, DWORD PTR __Count$[ebp]
  00006	8d 0c 85 00 00
	00 00		 lea	 ecx, DWORD PTR [eax*4]
  0000d	8b 45 08	 mov	 eax, DWORD PTR __Ptr$[ebp]

; 284  :         if (_Bytes >= _Big_allocation_threshold) {

  00010	81 f9 00 10 00
	00		 cmp	 ecx, 4096		; 00001000H
  00016	72 12		 jb	 SHORT $LN11@deallocate

; 205  :     const uintptr_t _Ptr_container   = _Ptr_user[-1];

  00018	8b 50 fc	 mov	 edx, DWORD PTR [eax-4]
  0001b	83 c1 23	 add	 ecx, 35			; 00000023H

; 206  : 
; 207  :     // If the following asserts, it likely means that we are performing
; 208  :     // an aligned delete on memory coming from an unaligned allocation.
; 209  :     _STL_ASSERT(_Ptr_user[-2] == _Big_allocation_sentinel, "invalid argument");
; 210  : 
; 211  :     // Extra paranoia on aligned allocation/deallocation; ensure _Ptr_container is
; 212  :     // in range [_Min_back_shift, _Non_user_size]
; 213  : #ifdef _DEBUG
; 214  :     constexpr uintptr_t _Min_back_shift = 2 * sizeof(void*);
; 215  : #else // ^^^ defined(_DEBUG) / !defined(_DEBUG) vvv
; 216  :     constexpr uintptr_t _Min_back_shift = sizeof(void*);
; 217  : #endif // ^^^ !defined(_DEBUG) ^^^
; 218  :     const uintptr_t _Back_shift = reinterpret_cast<uintptr_t>(_Ptr) - _Ptr_container;

  0001e	2b c2		 sub	 eax, edx

; 219  :     _STL_VERIFY(_Back_shift >= _Min_back_shift && _Back_shift <= _Non_user_size, "invalid argument");

  00020	83 c0 fc	 add	 eax, -4			; fffffffcH
  00023	83 f8 1f	 cmp	 eax, 31			; 0000001fH
  00026	77 10		 ja	 SHORT $LN10@deallocate

; 220  :     _Ptr = reinterpret_cast<void*>(_Ptr_container);

  00028	8b c2		 mov	 eax, edx
$LN11@deallocate:

; 289  :         ::operator delete(_Ptr, _Bytes);

  0002a	51		 push	 ecx
  0002b	50		 push	 eax
  0002c	e8 00 00 00 00	 call	 ??3@YAXPAXI@Z		; operator delete
  00031	83 c4 08	 add	 esp, 8

; 986  :     }

  00034	5d		 pop	 ebp
  00035	c2 08 00	 ret	 8
$LN10@deallocate:

; 219  :     _STL_VERIFY(_Back_shift >= _Min_back_shift && _Back_shift <= _Non_user_size, "invalid argument");

  00038	6a 00		 push	 0
  0003a	6a 00		 push	 0
  0003c	6a 00		 push	 0
  0003e	6a 00		 push	 0
  00040	6a 00		 push	 0
  00042	e8 00 00 00 00	 call	 __invoke_watson
$LN14@deallocate:
  00047	cc		 int	 3
?deallocate@?$allocator@H@std@@QAEXQAHI@Z ENDP		; std::allocator<int>::deallocate
_TEXT	ENDS
; Function compile flags: /Ogtp
; File C:\IAGOS\server\v18\Source\Source\_network\CmnHdr.h
;	COMDAT ??0_LogItemInfo@@QAE@XZ
_TEXT	SEGMENT
??0_LogItemInfo@@QAE@XZ PROC				; _LogItemInfo::_LogItemInfo, COMDAT
; _this$ = ecx

; 636  : 	{
; 637  : 		Action = _T("");

  00000	c7 01 00 00 00
	00		 mov	 DWORD PTR [ecx], OFFSET ??_C@_00CNPNBAHC@@
  00006	0f 57 c0	 xorps	 xmm0, xmm0

; 638  : 		SendName = _T("");

  00009	c7 41 04 00 00
	00 00		 mov	 DWORD PTR [ecx+4], OFFSET ??_C@_00CNPNBAHC@@

; 639  : 		RecvName = _T("");
; 640  : 		WorldId = Gold = Gold2 = 0;
; 641  : 		Negudo = 0;
; 642  : 		MaxNegudo = 0;
; 643  : 		ItemNo = 0;
; 644  : 		//ItemName = _T("");
; 645  : 		::memset( szItemName, 0, sizeof(szItemName) );
; 646  : 		itemNumber = 0;
; 647  : 		nAbilityOption = 0;
; 648  : 		Gold_1 = 0;
; 649  : 		nSlot = 100;
; 650  : 		nSlot1 = 100;
; 651  : 		nItemResist = 0;
; 652  : 		nResistAbilityOption = 0;
; 653  : 		m_bCharged = FALSE;
; 654  : 		m_dwKeepTime = 0;
; 655  : #if __VER >= 11 // __SYS_IDENTIFY
; 656  : 		m_iRandomOptItemId = 0;
; 657  : #else	//__SYS_IDENTIFY
; 658  : 		m_nRandomOptItemId = 0;
; 659  : #endif	// __SYS_IDENTIFY
; 660  : #if __VER >= 12 // __EXT_PIERCING
; 661  : 		nPiercedSize = 0;
; 662  : //		for( int i=0; i<MAX_PIERCING_WEAPON; i++ )
; 663  : //			adwItemId[i] = 0;
; 664  : 		memset( adwItemId, 0, sizeof(adwItemId) );
; 665  : 		nUMPiercedSize = 0;
; 666  : //		for( i=0; i<MAX_PIERCING_ULTIMATE; i++ )
; 667  : //	adwUMItemId[i] = 0;
; 668  : 		memset( adwUMItemId, 0, sizeof(adwUMItemId) );
; 669  : #else // __EXT_PIERCING
; 670  : 		nPiercedSize = 0;
; 671  : 		adwItemId0 = 0;
; 672  : 		adwItemId1 = 0;
; 673  : 		adwItemId2 = 0;
; 674  : 		adwItemId3 = 0;
; 675  : #if __VER >= 9 // __ULTIMATE
; 676  : 		adwItemId4 = 0;
; 677  : #endif // __ULTIMATE
; 678  : #endif // __EXT_PIERCING
; 679  : #if __VER >= 9 // __PET_0410
; 680  : 		nPetKind = 0;
; 681  : 		nPetLevel = 0;
; 682  : 		dwPetExp = 0;
; 683  : 		wPetEnergy = 0;

  00010	33 c0		 xor	 eax, eax
  00012	c7 41 08 00 00
	00 00		 mov	 DWORD PTR [ecx+8], OFFSET ??_C@_00CNPNBAHC@@
  00019	c7 41 14 00 00
	00 00		 mov	 DWORD PTR [ecx+20], 0
  00020	c7 41 10 00 00
	00 00		 mov	 DWORD PTR [ecx+16], 0
  00027	c7 41 0c 00 00
	00 00		 mov	 DWORD PTR [ecx+12], 0
  0002e	c7 41 1c 00 00
	00 00		 mov	 DWORD PTR [ecx+28], 0
  00035	c7 41 20 00 00
	00 00		 mov	 DWORD PTR [ecx+32], 0
  0003c	c7 41 18 00 00
	00 00		 mov	 DWORD PTR [ecx+24], 0
  00043	0f 11 41 24	 movups	 XMMWORD PTR [ecx+36], xmm0
  00047	0f 11 41 34	 movups	 XMMWORD PTR [ecx+52], xmm0
  0004b	c7 41 44 00 00
	00 00		 mov	 DWORD PTR [ecx+68], 0
  00052	c7 41 48 00 00
	00 00		 mov	 DWORD PTR [ecx+72], 0
  00059	c7 41 4c 00 00
	00 00		 mov	 DWORD PTR [ecx+76], 0
  00060	c7 41 50 64 00
	00 00		 mov	 DWORD PTR [ecx+80], 100	; 00000064H
  00067	c7 41 54 64 00
	00 00		 mov	 DWORD PTR [ecx+84], 100	; 00000064H
  0006e	c7 41 58 00 00
	00 00		 mov	 DWORD PTR [ecx+88], 0
  00075	c7 41 5c 00 00
	00 00		 mov	 DWORD PTR [ecx+92], 0
  0007c	c7 41 60 00 00
	00 00		 mov	 DWORD PTR [ecx+96], 0
  00083	c7 41 64 00 00
	00 00		 mov	 DWORD PTR [ecx+100], 0
  0008a	c7 41 68 00 00
	00 00		 mov	 DWORD PTR [ecx+104], 0
  00091	c7 41 6c 00 00
	00 00		 mov	 DWORD PTR [ecx+108], 0
  00098	c7 41 70 00 00
	00 00		 mov	 DWORD PTR [ecx+112], 0
  0009f	0f 11 41 74	 movups	 XMMWORD PTR [ecx+116], xmm0
  000a3	0f 11 81 84 00
	00 00		 movups	 XMMWORD PTR [ecx+132], xmm0
  000aa	66 0f d6 81 94
	00 00 00	 movq	 QWORD PTR [ecx+148], xmm0
  000b2	c7 81 9c 00 00
	00 00 00 00 00	 mov	 DWORD PTR [ecx+156], 0
  000bc	0f 11 81 a0 00
	00 00		 movups	 XMMWORD PTR [ecx+160], xmm0
  000c3	c7 81 b0 00 00
	00 00 00 00 00	 mov	 DWORD PTR [ecx+176], 0
  000cd	89 81 bc 00 00
	00		 mov	 DWORD PTR [ecx+188], eax

; 684  : 		wPetLife = 0;
; 685  : 		nPetAL_D = 0;

  000d3	89 81 c0 00 00
	00		 mov	 DWORD PTR [ecx+192], eax

; 686  : 		nPetAL_C = 0;
; 687  : 		nPetAL_B = 0;
; 688  : 		nPetAL_A = 0;
; 689  : 		nPetAL_S = 0;

  000d9	88 81 c4 00 00
	00		 mov	 BYTE PTR [ecx+196], al

; 690  : #endif // __PET_0410
; 691  : 	}

  000df	8b c1		 mov	 eax, ecx
  000e1	66 c7 81 b4 00
	00 00 00 00	 mov	 WORD PTR [ecx+180], 0
  000ea	c7 81 b8 00 00
	00 00 00 00 00	 mov	 DWORD PTR [ecx+184], 0
  000f4	c3		 ret	 0
??0_LogItemInfo@@QAE@XZ ENDP				; _LogItemInfo::_LogItemInfo
_TEXT	ENDS
; Function compile flags: /Ogtp
; File C:\Program Files\Microsoft Visual Studio\2022\Professional\VC\Tools\MSVC\14.44.35207\include\xtree
;	COMDAT ?_Throw_tree_length_error@std@@YAXXZ
_TEXT	SEGMENT
?_Throw_tree_length_error@std@@YAXXZ PROC		; std::_Throw_tree_length_error, COMDAT

; 417  :     _Xlength_error("map/set too long");

  00000	68 00 00 00 00	 push	 OFFSET ??_C@_0BB@GCADKGJO@map?1set?5too?5long@
  00005	e8 00 00 00 00	 call	 ?_Xlength_error@std@@YAXPBD@Z ; std::_Xlength_error
$LN3@Throw_tree:
  0000a	cc		 int	 3
?_Throw_tree_length_error@std@@YAXXZ ENDP		; std::_Throw_tree_length_error
_TEXT	ENDS
; Function compile flags: /Ogtp
; File C:\Program Files\Microsoft Visual Studio\2022\Professional\VC\Tools\MSVC\14.44.35207\include\xmemory
;	COMDAT ?_Throw_bad_array_new_length@std@@YAXXZ
_TEXT	SEGMENT
$T1 = -12						; size = 12
?_Throw_bad_array_new_length@std@@YAXXZ PROC		; std::_Throw_bad_array_new_length, COMDAT

; 107  : [[noreturn]] inline void _Throw_bad_array_new_length() {

  00000	55		 push	 ebp
  00001	8b ec		 mov	 ebp, esp
  00003	83 ec 0c	 sub	 esp, 12			; 0000000cH

; 108  :     _THROW(bad_array_new_length{});

  00006	8d 4d f4	 lea	 ecx, DWORD PTR $T1[ebp]
  00009	e8 00 00 00 00	 call	 ??0bad_array_new_length@std@@QAE@XZ ; std::bad_array_new_length::bad_array_new_length
  0000e	68 00 00 00 00	 push	 OFFSET __TI3?AVbad_array_new_length@std@@
  00013	8d 45 f4	 lea	 eax, DWORD PTR $T1[ebp]
  00016	50		 push	 eax
  00017	e8 00 00 00 00	 call	 __CxxThrowException@8
$LN3@Throw_bad_:
  0001c	cc		 int	 3
?_Throw_bad_array_new_length@std@@YAXXZ ENDP		; std::_Throw_bad_array_new_length
_TEXT	ENDS
; Function compile flags: /Ogtp
; File C:\Program Files\Microsoft Visual Studio\2022\Professional\VC\Tools\MSVC\14.44.35207\include\vcruntime_exception.h
;	COMDAT ??_Gbad_array_new_length@std@@UAEPAXI@Z
_TEXT	SEGMENT
___flags$ = 8						; size = 4
??_Gbad_array_new_length@std@@UAEPAXI@Z PROC		; std::bad_array_new_length::`scalar deleting destructor', COMDAT
; _this$ = ecx
  00000	55		 push	 ebp
  00001	8b ec		 mov	 ebp, esp

; 90   :     {

  00003	56		 push	 esi
  00004	8b f1		 mov	 esi, ecx

; 91   :         __std_exception_destroy(&_Data);

  00006	8d 46 04	 lea	 eax, DWORD PTR [esi+4]
  00009	c7 06 00 00 00
	00		 mov	 DWORD PTR [esi], OFFSET ??_7exception@std@@6B@
  0000f	50		 push	 eax
  00010	e8 00 00 00 00	 call	 ___std_exception_destroy
  00015	83 c4 04	 add	 esp, 4
  00018	f6 45 08 01	 test	 BYTE PTR ___flags$[ebp], 1
  0001c	74 0b		 je	 SHORT $LN18@scalar
  0001e	6a 0c		 push	 12			; 0000000cH
  00020	56		 push	 esi
  00021	e8 00 00 00 00	 call	 ??3@YAXPAXI@Z		; operator delete
  00026	83 c4 08	 add	 esp, 8
$LN18@scalar:
  00029	8b c6		 mov	 eax, esi
  0002b	5e		 pop	 esi
  0002c	5d		 pop	 ebp
  0002d	c2 04 00	 ret	 4
??_Gbad_array_new_length@std@@UAEPAXI@Z ENDP		; std::bad_array_new_length::`scalar deleting destructor'
_TEXT	ENDS
; Function compile flags: /Ogtp
; File C:\Program Files\Microsoft Visual Studio\2022\Professional\VC\Tools\MSVC\14.44.35207\include\vcruntime_exception.h
;	COMDAT ??0bad_array_new_length@std@@QAE@ABV01@@Z
_TEXT	SEGMENT
___that$ = 8						; size = 4
??0bad_array_new_length@std@@QAE@ABV01@@Z PROC		; std::bad_array_new_length::bad_array_new_length, COMDAT
; _this$ = ecx
  00000	55		 push	 ebp
  00001	8b ec		 mov	 ebp, esp

; 73   :     {

  00003	56		 push	 esi
  00004	8b f1		 mov	 esi, ecx
  00006	0f 57 c0	 xorps	 xmm0, xmm0

; 72   :         : _Data()

  00009	8d 46 04	 lea	 eax, DWORD PTR [esi+4]

; 74   :         __std_exception_copy(&_Other._Data, &_Data);

  0000c	50		 push	 eax
  0000d	c7 06 00 00 00
	00		 mov	 DWORD PTR [esi], OFFSET ??_7exception@std@@6B@
  00013	66 0f d6 00	 movq	 QWORD PTR [eax], xmm0
  00017	8b 45 08	 mov	 eax, DWORD PTR ___that$[ebp]
  0001a	83 c0 04	 add	 eax, 4
  0001d	50		 push	 eax
  0001e	e8 00 00 00 00	 call	 ___std_exception_copy
  00023	83 c4 08	 add	 esp, 8
  00026	c7 06 00 00 00
	00		 mov	 DWORD PTR [esi], OFFSET ??_7bad_array_new_length@std@@6B@
  0002c	8b c6		 mov	 eax, esi
  0002e	5e		 pop	 esi
  0002f	5d		 pop	 ebp
  00030	c2 04 00	 ret	 4
??0bad_array_new_length@std@@QAE@ABV01@@Z ENDP		; std::bad_array_new_length::bad_array_new_length
_TEXT	ENDS
; Function compile flags: /Ogtp
; File C:\Program Files\Microsoft Visual Studio\2022\Professional\VC\Tools\MSVC\14.44.35207\include\vcruntime_exception.h
;	COMDAT ??1bad_array_new_length@std@@UAE@XZ
_TEXT	SEGMENT
??1bad_array_new_length@std@@UAE@XZ PROC		; std::bad_array_new_length::~bad_array_new_length, COMDAT
; _this$ = ecx

; 91   :         __std_exception_destroy(&_Data);

  00000	8d 41 04	 lea	 eax, DWORD PTR [ecx+4]
  00003	c7 01 00 00 00
	00		 mov	 DWORD PTR [ecx], OFFSET ??_7exception@std@@6B@
  00009	50		 push	 eax
  0000a	e8 00 00 00 00	 call	 ___std_exception_destroy
  0000f	59		 pop	 ecx
  00010	c3		 ret	 0
??1bad_array_new_length@std@@UAE@XZ ENDP		; std::bad_array_new_length::~bad_array_new_length
_TEXT	ENDS
; Function compile flags: /Ogtp
; File C:\Program Files\Microsoft Visual Studio\2022\Professional\VC\Tools\MSVC\14.44.35207\include\vcruntime_exception.h
;	COMDAT ??0bad_array_new_length@std@@QAE@XZ
_TEXT	SEGMENT
??0bad_array_new_length@std@@QAE@XZ PROC		; std::bad_array_new_length::bad_array_new_length, COMDAT
; _this$ = ecx

; 144  :     {

  00000	0f 57 c0	 xorps	 xmm0, xmm0

; 145  :     }

  00003	8b c1		 mov	 eax, ecx

; 66   :         : _Data()

  00005	66 0f d6 41 04	 movq	 QWORD PTR [ecx+4], xmm0

; 67   :     {
; 68   :         _Data._What = _Message;

  0000a	c7 41 04 00 00
	00 00		 mov	 DWORD PTR [ecx+4], OFFSET ??_C@_0BF@KINCDENJ@bad?5array?5new?5length@

; 144  :     {

  00011	c7 01 00 00 00
	00		 mov	 DWORD PTR [ecx], OFFSET ??_7bad_array_new_length@std@@6B@

; 145  :     }

  00017	c3		 ret	 0
??0bad_array_new_length@std@@QAE@XZ ENDP		; std::bad_array_new_length::bad_array_new_length
_TEXT	ENDS
; Function compile flags: /Ogtp
; File C:\Program Files\Microsoft Visual Studio\2022\Professional\VC\Tools\MSVC\14.44.35207\include\vcruntime_exception.h
;	COMDAT ??_Gbad_alloc@std@@UAEPAXI@Z
_TEXT	SEGMENT
___flags$ = 8						; size = 4
??_Gbad_alloc@std@@UAEPAXI@Z PROC			; std::bad_alloc::`scalar deleting destructor', COMDAT
; _this$ = ecx
  00000	55		 push	 ebp
  00001	8b ec		 mov	 ebp, esp

; 90   :     {

  00003	56		 push	 esi
  00004	8b f1		 mov	 esi, ecx

; 91   :         __std_exception_destroy(&_Data);

  00006	8d 46 04	 lea	 eax, DWORD PTR [esi+4]
  00009	c7 06 00 00 00
	00		 mov	 DWORD PTR [esi], OFFSET ??_7exception@std@@6B@
  0000f	50		 push	 eax
  00010	e8 00 00 00 00	 call	 ___std_exception_destroy
  00015	83 c4 04	 add	 esp, 4
  00018	f6 45 08 01	 test	 BYTE PTR ___flags$[ebp], 1
  0001c	74 0b		 je	 SHORT $LN13@scalar
  0001e	6a 0c		 push	 12			; 0000000cH
  00020	56		 push	 esi
  00021	e8 00 00 00 00	 call	 ??3@YAXPAXI@Z		; operator delete
  00026	83 c4 08	 add	 esp, 8
$LN13@scalar:
  00029	8b c6		 mov	 eax, esi
  0002b	5e		 pop	 esi
  0002c	5d		 pop	 ebp
  0002d	c2 04 00	 ret	 4
??_Gbad_alloc@std@@UAEPAXI@Z ENDP			; std::bad_alloc::`scalar deleting destructor'
_TEXT	ENDS
; Function compile flags: /Ogtp
; File C:\Program Files\Microsoft Visual Studio\2022\Professional\VC\Tools\MSVC\14.44.35207\include\vcruntime_exception.h
;	COMDAT ??0bad_alloc@std@@QAE@ABV01@@Z
_TEXT	SEGMENT
___that$ = 8						; size = 4
??0bad_alloc@std@@QAE@ABV01@@Z PROC			; std::bad_alloc::bad_alloc, COMDAT
; _this$ = ecx
  00000	55		 push	 ebp
  00001	8b ec		 mov	 ebp, esp

; 73   :     {

  00003	56		 push	 esi
  00004	8b f1		 mov	 esi, ecx
  00006	0f 57 c0	 xorps	 xmm0, xmm0

; 72   :         : _Data()

  00009	8d 46 04	 lea	 eax, DWORD PTR [esi+4]

; 74   :         __std_exception_copy(&_Other._Data, &_Data);

  0000c	50		 push	 eax
  0000d	c7 06 00 00 00
	00		 mov	 DWORD PTR [esi], OFFSET ??_7exception@std@@6B@
  00013	66 0f d6 00	 movq	 QWORD PTR [eax], xmm0
  00017	8b 45 08	 mov	 eax, DWORD PTR ___that$[ebp]
  0001a	83 c0 04	 add	 eax, 4
  0001d	50		 push	 eax
  0001e	e8 00 00 00 00	 call	 ___std_exception_copy
  00023	83 c4 08	 add	 esp, 8
  00026	c7 06 00 00 00
	00		 mov	 DWORD PTR [esi], OFFSET ??_7bad_alloc@std@@6B@
  0002c	8b c6		 mov	 eax, esi
  0002e	5e		 pop	 esi
  0002f	5d		 pop	 ebp
  00030	c2 04 00	 ret	 4
??0bad_alloc@std@@QAE@ABV01@@Z ENDP			; std::bad_alloc::bad_alloc
_TEXT	ENDS
; Function compile flags: /Ogtp
; File C:\Program Files\Microsoft Visual Studio\2022\Professional\VC\Tools\MSVC\14.44.35207\include\vcruntime_exception.h
;	COMDAT ??_Gexception@std@@UAEPAXI@Z
_TEXT	SEGMENT
___flags$ = 8						; size = 4
??_Gexception@std@@UAEPAXI@Z PROC			; std::exception::`scalar deleting destructor', COMDAT
; _this$ = ecx
  00000	55		 push	 ebp
  00001	8b ec		 mov	 ebp, esp

; 90   :     {

  00003	56		 push	 esi
  00004	8b f1		 mov	 esi, ecx

; 91   :         __std_exception_destroy(&_Data);

  00006	8d 46 04	 lea	 eax, DWORD PTR [esi+4]
  00009	c7 06 00 00 00
	00		 mov	 DWORD PTR [esi], OFFSET ??_7exception@std@@6B@
  0000f	50		 push	 eax
  00010	e8 00 00 00 00	 call	 ___std_exception_destroy
  00015	83 c4 04	 add	 esp, 4
  00018	f6 45 08 01	 test	 BYTE PTR ___flags$[ebp], 1
  0001c	74 0b		 je	 SHORT $LN8@scalar
  0001e	6a 0c		 push	 12			; 0000000cH
  00020	56		 push	 esi
  00021	e8 00 00 00 00	 call	 ??3@YAXPAXI@Z		; operator delete
  00026	83 c4 08	 add	 esp, 8
$LN8@scalar:
  00029	8b c6		 mov	 eax, esi
  0002b	5e		 pop	 esi
  0002c	5d		 pop	 ebp
  0002d	c2 04 00	 ret	 4
??_Gexception@std@@UAEPAXI@Z ENDP			; std::exception::`scalar deleting destructor'
_TEXT	ENDS
; Function compile flags: /Ogtp
; File C:\Program Files\Microsoft Visual Studio\2022\Professional\VC\Tools\MSVC\14.44.35207\include\vcruntime_exception.h
;	COMDAT ?what@exception@std@@UBEPBDXZ
_TEXT	SEGMENT
?what@exception@std@@UBEPBDXZ PROC			; std::exception::what, COMDAT
; _this$ = ecx

; 96   :         return _Data._What ? _Data._What : "Unknown exception";

  00000	8b 49 04	 mov	 ecx, DWORD PTR [ecx+4]
  00003	b8 00 00 00 00	 mov	 eax, OFFSET ??_C@_0BC@EOODALEL@Unknown?5exception@
  00008	85 c9		 test	 ecx, ecx
  0000a	0f 45 c1	 cmovne	 eax, ecx

; 97   :     }

  0000d	c3		 ret	 0
?what@exception@std@@UBEPBDXZ ENDP			; std::exception::what
_TEXT	ENDS
; Function compile flags: /Ogtp
; File C:\Program Files\Microsoft Visual Studio\2022\Professional\VC\Tools\MSVC\14.44.35207\include\vcruntime_exception.h
;	COMDAT ??1exception@std@@UAE@XZ
_TEXT	SEGMENT
??1exception@std@@UAE@XZ PROC				; std::exception::~exception, COMDAT
; _this$ = ecx

; 91   :         __std_exception_destroy(&_Data);

  00000	8d 41 04	 lea	 eax, DWORD PTR [ecx+4]
  00003	c7 01 00 00 00
	00		 mov	 DWORD PTR [ecx], OFFSET ??_7exception@std@@6B@
  00009	50		 push	 eax
  0000a	e8 00 00 00 00	 call	 ___std_exception_destroy
  0000f	59		 pop	 ecx

; 92   :     }

  00010	c3		 ret	 0
??1exception@std@@UAE@XZ ENDP				; std::exception::~exception
_TEXT	ENDS
; Function compile flags: /Ogtp
; File C:\Program Files\Microsoft Visual Studio\2022\Professional\VC\Tools\MSVC\14.44.35207\include\vcruntime_exception.h
;	COMDAT ??0exception@std@@QAE@ABV01@@Z
_TEXT	SEGMENT
__Other$ = 8						; size = 4
??0exception@std@@QAE@ABV01@@Z PROC			; std::exception::exception, COMDAT
; _this$ = ecx

; 73   :     {

  00000	55		 push	 ebp
  00001	8b ec		 mov	 ebp, esp
  00003	56		 push	 esi
  00004	8b f1		 mov	 esi, ecx
  00006	0f 57 c0	 xorps	 xmm0, xmm0
  00009	8d 46 04	 lea	 eax, DWORD PTR [esi+4]

; 74   :         __std_exception_copy(&_Other._Data, &_Data);

  0000c	50		 push	 eax
  0000d	c7 06 00 00 00
	00		 mov	 DWORD PTR [esi], OFFSET ??_7exception@std@@6B@
  00013	66 0f d6 00	 movq	 QWORD PTR [eax], xmm0
  00017	8b 45 08	 mov	 eax, DWORD PTR __Other$[ebp]
  0001a	83 c0 04	 add	 eax, 4
  0001d	50		 push	 eax
  0001e	e8 00 00 00 00	 call	 ___std_exception_copy
  00023	83 c4 08	 add	 esp, 8

; 75   :     }

  00026	8b c6		 mov	 eax, esi
  00028	5e		 pop	 esi
  00029	5d		 pop	 ebp
  0002a	c2 04 00	 ret	 4
??0exception@std@@QAE@ABV01@@Z ENDP			; std::exception::exception
_TEXT	ENDS
; Function compile flags: /Ogtp
; File C:\Program Files\Microsoft Visual Studio\2022\Professional\VC\Tools\MSVC\14.44.35207\atlmfc\include\cstringt.h
; File C:\Program Files\Microsoft Visual Studio\2022\Professional\VC\Tools\MSVC\14.44.35207\atlmfc\include\atlsimpstr.h
; File C:\Program Files\Microsoft Visual Studio\2022\Professional\VC\Tools\MSVC\14.44.35207\atlmfc\include\cstringt.h
; File C:\Program Files\Microsoft Visual Studio\2022\Professional\VC\Tools\MSVC\14.44.35207\atlmfc\include\atlsimpstr.h
; File C:\Program Files\Microsoft Visual Studio\2022\Professional\VC\Tools\MSVC\14.44.35207\atlmfc\include\cstringt.h
; File C:\Program Files\Microsoft Visual Studio\2022\Professional\VC\Tools\MSVC\14.44.35207\atlmfc\include\afxstr.h
; File C:\Program Files\Microsoft Visual Studio\2022\Professional\VC\Tools\MSVC\14.44.35207\atlmfc\include\cstringt.h
; File C:\Program Files\Microsoft Visual Studio\2022\Professional\VC\Tools\MSVC\14.44.35207\atlmfc\include\atlsimpstr.h
; File C:\Program Files\Microsoft Visual Studio\2022\Professional\VC\Tools\MSVC\14.44.35207\atlmfc\include\cstringt.h
; File C:\Program Files\Microsoft Visual Studio\2022\Professional\VC\Tools\MSVC\14.44.35207\atlmfc\include\atlsimpstr.h
; File C:\Program Files\Microsoft Visual Studio\2022\Professional\VC\Tools\MSVC\14.44.35207\atlmfc\include\cstringt.h
; File C:\Program Files\Microsoft Visual Studio\2022\Professional\VC\Tools\MSVC\14.44.35207\atlmfc\include\atlsimpstr.h
; File C:\Program Files (x86)\Windows Kits\10\Include\10.0.26100.0\ucrt\corecrt_memcpy_s.h
; File C:\Program Files\Microsoft Visual Studio\2022\Professional\VC\Tools\MSVC\14.44.35207\atlmfc\include\atlsimpstr.h
; File C:\Program Files (x86)\Windows Kits\10\Include\10.0.26100.0\ucrt\corecrt_memcpy_s.h
; File C:\Program Files\Microsoft Visual Studio\2022\Professional\VC\Tools\MSVC\14.44.35207\atlmfc\include\atlsimpstr.h
; File C:\Program Files (x86)\Windows Kits\10\Include\10.0.26100.0\ucrt\corecrt_memcpy_s.h
; File C:\Program Files\Microsoft Visual Studio\2022\Professional\VC\Tools\MSVC\14.44.35207\atlmfc\include\atlsimpstr.h
; File C:\Program Files\Microsoft Visual Studio\2022\Professional\VC\Tools\MSVC\14.44.35207\atlmfc\include\cstringt.h
; File C:\Program Files\Microsoft Visual Studio\2022\Professional\VC\Tools\MSVC\14.44.35207\atlmfc\include\atlsimpstr.h
; File C:\Program Files\Microsoft Visual Studio\2022\Professional\VC\Tools\MSVC\14.44.35207\atlmfc\include\cstringt.h
; File C:\Program Files\Microsoft Visual Studio\2022\Professional\VC\Tools\MSVC\14.44.35207\atlmfc\include\atlsimpstr.h
; File C:\Program Files\Microsoft Visual Studio\2022\Professional\VC\Tools\MSVC\14.44.35207\atlmfc\include\cstringt.h
;	COMDAT ??HATL@@YA?AV?$CStringT@DV?$StrTraitMFC@DV?$ChTraitsCRT@D@ATL@@@@@0@ABV10@PBD@Z
_TEXT	SEGMENT
_psz1$1$ = -24						; size = 4
$T2 = -20						; size = 4
_pszBuffer$1$ = -16					; size = 4
tv469 = -16						; size = 4
__$EHRec$ = -12						; size = 12
___$ReturnUdt$ = 8					; size = 4
_str1$ = 12						; size = 4
_nLength1$1$ = 12					; size = 4
_psz2$ = 16						; size = 4
??HATL@@YA?AV?$CStringT@DV?$StrTraitMFC@DV?$ChTraitsCRT@D@ATL@@@@@0@ABV10@PBD@Z PROC ; ATL::operator+, COMDAT

; 2404 : 	{

  00000	55		 push	 ebp
  00001	8b ec		 mov	 ebp, esp
  00003	6a ff		 push	 -1
  00005	68 00 00 00 00	 push	 __ehhandler$??HATL@@YA?AV?$CStringT@DV?$StrTraitMFC@DV?$ChTraitsCRT@D@ATL@@@@@0@ABV10@PBD@Z
  0000a	64 a1 00 00 00
	00		 mov	 eax, DWORD PTR fs:0
  00010	50		 push	 eax
  00011	83 ec 0c	 sub	 esp, 12			; 0000000cH
  00014	53		 push	 ebx
  00015	56		 push	 esi
  00016	57		 push	 edi
  00017	a1 00 00 00 00	 mov	 eax, DWORD PTR ___security_cookie
  0001c	33 c5		 xor	 eax, ebp
  0001e	50		 push	 eax
  0001f	8d 45 f4	 lea	 eax, DWORD PTR __$EHRec$[ebp]
  00022	64 a3 00 00 00
	00		 mov	 DWORD PTR fs:0, eax
; File C:\Program Files\Microsoft Visual Studio\2022\Professional\VC\Tools\MSVC\14.44.35207\atlmfc\include\atlsimpstr.h

; 527  : 		IAtlStringMgr* pStringMgr = GetData()->pStringMgr;

  00028	8b 7d 0c	 mov	 edi, DWORD PTR _str1$[ebp]
; File C:\Program Files\Microsoft Visual Studio\2022\Professional\VC\Tools\MSVC\14.44.35207\atlmfc\include\cstringt.h

; 2404 : 	{

  0002b	c7 45 ec 00 00
	00 00		 mov	 DWORD PTR $T2[ebp], 0
  00032	c7 45 fc 00 00
	00 00		 mov	 DWORD PTR __$EHRec$[ebp+8], 0
; File C:\Program Files\Microsoft Visual Studio\2022\Professional\VC\Tools\MSVC\14.44.35207\atlmfc\include\atlsimpstr.h

; 527  : 		IAtlStringMgr* pStringMgr = GetData()->pStringMgr;

  00039	8b 07		 mov	 eax, DWORD PTR [edi]
  0003b	8b 48 f0	 mov	 ecx, DWORD PTR [eax-16]

; 528  : 		return pStringMgr ? pStringMgr->Clone() : NULL;

  0003e	85 c9		 test	 ecx, ecx
  00040	74 0b		 je	 SHORT $LN6@operator
  00042	8b 01		 mov	 eax, DWORD PTR [ecx]
  00044	ff 50 10	 call	 DWORD PTR [eax+16]
  00047	8b c8		 mov	 ecx, eax
; File C:\Program Files\Microsoft Visual Studio\2022\Professional\VC\Tools\MSVC\14.44.35207\atlmfc\include\cstringt.h

; 1442 : 		if(pStringMgr) { return pStringMgr; }

  00049	85 c9		 test	 ecx, ecx
  0004b	75 16		 jne	 SHORT $LN19@operator
$LN6@operator:
; File C:\Program Files\Microsoft Visual Studio\2022\Professional\VC\Tools\MSVC\14.44.35207\atlmfc\include\afxstr.h

; 56   : 		return( AfxGetStringManager() );

  0004d	e8 00 00 00 00	 call	 ?AfxGetStringManager@@YGPAUIAtlStringMgr@ATL@@XZ ; AfxGetStringManager
; File C:\Program Files\Microsoft Visual Studio\2022\Professional\VC\Tools\MSVC\14.44.35207\atlmfc\include\cstringt.h

; 1445 : 		return pStringMgr->Clone();

  00052	8b c8		 mov	 ecx, eax
  00054	8b 10		 mov	 edx, DWORD PTR [eax]
  00056	ff 52 10	 call	 DWORD PTR [edx+16]
  00059	8b c8		 mov	 ecx, eax
; File C:\Program Files\Microsoft Visual Studio\2022\Professional\VC\Tools\MSVC\14.44.35207\atlmfc\include\atlsimpstr.h

; 209  : 		ATLENSURE( pStringMgr != NULL );

  0005b	85 c9		 test	 ecx, ecx
  0005d	0f 84 15 01 00
	00		 je	 $LN83@operator
$LN19@operator:

; 210  : 		CStringData* pData = pStringMgr->GetNilString();

  00063	8b 01		 mov	 eax, DWORD PTR [ecx]
  00065	ff 50 0c	 call	 DWORD PTR [eax+12]

; 211  : 		Attach( pData );

  00068	8b 5d 08	 mov	 ebx, DWORD PTR ___$ReturnUdt$[ebp]
  0006b	83 c0 10	 add	 eax, 16			; 00000010H
  0006e	89 45 f0	 mov	 DWORD PTR tv469[ebp], eax
  00071	89 03		 mov	 DWORD PTR [ebx], eax

; 726  : 		if( psz == NULL )

  00073	8b 45 10	 mov	 eax, DWORD PTR _psz2$[ebp]
; File C:\Program Files\Microsoft Visual Studio\2022\Professional\VC\Tools\MSVC\14.44.35207\atlmfc\include\cstringt.h

; 2409 : 		return( strResult );

  00076	c7 45 fc 00 00
	00 00		 mov	 DWORD PTR __$EHRec$[ebp+8], 0
  0007d	c7 45 ec 01 00
	00 00		 mov	 DWORD PTR $T2[ebp], 1
; File C:\Program Files\Microsoft Visual Studio\2022\Professional\VC\Tools\MSVC\14.44.35207\atlmfc\include\atlsimpstr.h

; 726  : 		if( psz == NULL )

  00084	85 c0		 test	 eax, eax
  00086	75 04		 jne	 SHORT $LN30@operator

; 727  : 		{
; 728  : 			return( 0 );

  00088	33 f6		 xor	 esi, esi
  0008a	eb 0e		 jmp	 SHORT $LN29@operator
$LN30@operator:

; 729  : 		}
; 730  : 		return( int( strlen( psz ) ) );

  0008c	8b f0		 mov	 esi, eax
  0008e	8d 4e 01	 lea	 ecx, DWORD PTR [esi+1]
$LL76@operator:
  00091	8a 06		 mov	 al, BYTE PTR [esi]
  00093	46		 inc	 esi
  00094	84 c0		 test	 al, al
  00096	75 f9		 jne	 SHORT $LL76@operator
  00098	2b f1		 sub	 esi, ecx
$LN29@operator:

; 523  : 		return( GetData()->nDataLength );

  0009a	8b 17		 mov	 edx, DWORD PTR [edi]
  0009c	89 55 e8	 mov	 DWORD PTR _psz1$1$[ebp], edx
; File C:\Program Files\Microsoft Visual Studio\2022\Professional\VC\Tools\MSVC\14.44.35207\atlmfc\include\cstringt.h

; 2407 : 		CThisSimpleString::Concatenate( strResult, str1, str1.GetLength(), psz2, CThisSimpleString::StringLength( psz2 ) );

  0009f	8b 42 f4	 mov	 eax, DWORD PTR [edx-12]
  000a2	89 45 0c	 mov	 DWORD PTR _nLength1$1$[ebp], eax
; File C:\Program Files\Microsoft Visual Studio\2022\Professional\VC\Tools\MSVC\14.44.35207\atlmfc\include\atlsimpstr.h

; 769  : 		int nNewLength = nLength1+nLength2;

  000a5	8d 3c 30	 lea	 edi, DWORD PTR [eax+esi]

; 808  : 		if (nLength < 0)

  000a8	85 ff		 test	 edi, edi
  000aa	0f 88 be 00 00
	00		 js	 $LN68@operator

; 809  : 			AtlThrow(E_INVALIDARG);
; 810  : 
; 811  : 		CStringData* pOldData = GetData();
; 812  : 		int nShared = 1-pOldData->nRefs;  // nShared < 0 means true, >= 0 means false

  000b0	8b 45 f0	 mov	 eax, DWORD PTR tv469[ebp]
  000b3	b9 01 00 00 00	 mov	 ecx, 1
  000b8	2b 48 fc	 sub	 ecx, DWORD PTR [eax-4]

; 813  : 		int nTooShort = pOldData->nAllocLength-nLength;  // nTooShort < 0 means true, >= 0 means false

  000bb	8b 40 f8	 mov	 eax, DWORD PTR [eax-8]
  000be	2b c7		 sub	 eax, edi

; 814  : 		if( (nShared|nTooShort) < 0 )  // If either sign bit is set (i.e. either is less than zero), we need to copy data

  000c0	0b c8		 or	 ecx, eax
  000c2	7d 0b		 jge	 SHORT $LN42@operator

; 815  : 		{
; 816  : 			PrepareWrite2( nLength );

  000c4	57		 push	 edi
  000c5	8b cb		 mov	 ecx, ebx
  000c7	e8 00 00 00 00	 call	 ?PrepareWrite2@?$CSimpleStringT@D$0A@@ATL@@AAEXH@Z ; ATL::CSimpleStringT<char,0>::PrepareWrite2
  000cc	8b 55 e8	 mov	 edx, DWORD PTR _psz1$1$[ebp]
$LN42@operator:
; File C:\Program Files (x86)\Windows Kits\10\Include\10.0.26100.0\ucrt\corecrt_memcpy_s.h

; 47   :         if (_SourceSize == 0)

  000cf	8b 4d 0c	 mov	 ecx, DWORD PTR _nLength1$1$[ebp]
; File C:\Program Files\Microsoft Visual Studio\2022\Professional\VC\Tools\MSVC\14.44.35207\atlmfc\include\atlsimpstr.h

; 770  : 		PXSTR pszBuffer = strResult.GetBuffer( nNewLength );

  000d2	8b 03		 mov	 eax, DWORD PTR [ebx]
  000d4	89 45 f0	 mov	 DWORD PTR _pszBuffer$1$[ebp], eax
; File C:\Program Files (x86)\Windows Kits\10\Include\10.0.26100.0\ucrt\corecrt_memcpy_s.h

; 47   :         if (_SourceSize == 0)

  000d7	85 c9		 test	 ecx, ecx
  000d9	74 36		 je	 SHORT $LN53@operator

; 48   :         {
; 49   :             return 0;
; 50   :         }
; 51   : 
; 52   :         _CRT_MEMCPY_S_VALIDATE_RETURN_ERRCODE(_Destination != NULL, EINVAL);

  000db	85 c0		 test	 eax, eax
  000dd	74 1c		 je	 SHORT $LN79@operator

; 53   :         if (_Source == NULL || _DestinationSize < _SourceSize)

  000df	51		 push	 ecx
  000e0	85 d2		 test	 edx, edx
  000e2	74 0c		 je	 SHORT $LN52@operator

; 56   : 
; 57   :             _CRT_MEMCPY_S_VALIDATE_RETURN_ERRCODE(_Source != NULL,                 EINVAL);
; 58   :             _CRT_MEMCPY_S_VALIDATE_RETURN_ERRCODE(_DestinationSize >= _SourceSize, ERANGE);
; 59   : 
; 60   :             // Unreachable, but required to suppress /analyze warnings:
; 61   :             return EINVAL;
; 62   :         }
; 63   :         memcpy(_Destination, _Source, _SourceSize);

  000e4	52		 push	 edx
  000e5	50		 push	 eax
  000e6	e8 00 00 00 00	 call	 _memcpy
  000eb	83 c4 0c	 add	 esp, 12			; 0000000cH
  000ee	eb 1b		 jmp	 SHORT $LN80@operator
$LN52@operator:

; 54   :         {
; 55   :             memset(_Destination, 0, _DestinationSize);

  000f0	6a 00		 push	 0
  000f2	50		 push	 eax
  000f3	e8 00 00 00 00	 call	 _memset
  000f8	83 c4 0c	 add	 esp, 12			; 0000000cH
$LN79@operator:
; File C:\Program Files\Microsoft Visual Studio\2022\Professional\VC\Tools\MSVC\14.44.35207\atlmfc\include\atlsimpstr.h

; 772  : 		memcpy_s( pszBuffer+nLength1, nLength2 * sizeof( XCHAR ), psz2, nLength2 * sizeof( XCHAR ));

  000fb	e8 00 00 00 00	 call	 __errno
  00100	c7 00 16 00 00
	00		 mov	 DWORD PTR [eax], 22	; 00000016H
  00106	e8 00 00 00 00	 call	 __invalid_parameter_noinfo
$LN80@operator:
  0010b	8b 45 f0	 mov	 eax, DWORD PTR _pszBuffer$1$[ebp]
  0010e	8b 4d 0c	 mov	 ecx, DWORD PTR _nLength1$1$[ebp]
$LN53@operator:
  00111	03 c1		 add	 eax, ecx
; File C:\Program Files (x86)\Windows Kits\10\Include\10.0.26100.0\ucrt\corecrt_memcpy_s.h

; 47   :         if (_SourceSize == 0)

  00113	85 f6		 test	 esi, esi
  00115	74 33		 je	 SHORT $LN61@operator

; 48   :         {
; 49   :             return 0;
; 50   :         }
; 51   : 
; 52   :         _CRT_MEMCPY_S_VALIDATE_RETURN_ERRCODE(_Destination != NULL, EINVAL);

  00117	85 c0		 test	 eax, eax
  00119	74 1f		 je	 SHORT $LN81@operator

; 53   :         if (_Source == NULL || _DestinationSize < _SourceSize)

  0011b	8b 4d 10	 mov	 ecx, DWORD PTR _psz2$[ebp]
  0011e	56		 push	 esi
  0011f	85 c9		 test	 ecx, ecx
  00121	74 0c		 je	 SHORT $LN60@operator

; 56   : 
; 57   :             _CRT_MEMCPY_S_VALIDATE_RETURN_ERRCODE(_Source != NULL,                 EINVAL);
; 58   :             _CRT_MEMCPY_S_VALIDATE_RETURN_ERRCODE(_DestinationSize >= _SourceSize, ERANGE);
; 59   : 
; 60   :             // Unreachable, but required to suppress /analyze warnings:
; 61   :             return EINVAL;
; 62   :         }
; 63   :         memcpy(_Destination, _Source, _SourceSize);

  00123	51		 push	 ecx
  00124	50		 push	 eax
  00125	e8 00 00 00 00	 call	 _memcpy
  0012a	83 c4 0c	 add	 esp, 12			; 0000000cH
  0012d	eb 1b		 jmp	 SHORT $LN61@operator
$LN60@operator:

; 54   :         {
; 55   :             memset(_Destination, 0, _DestinationSize);

  0012f	6a 00		 push	 0
  00131	50		 push	 eax
  00132	e8 00 00 00 00	 call	 _memset
  00137	83 c4 0c	 add	 esp, 12			; 0000000cH
$LN81@operator:
; File C:\Program Files\Microsoft Visual Studio\2022\Professional\VC\Tools\MSVC\14.44.35207\atlmfc\include\atlsimpstr.h

; 875  : 		if( nLength < 0 || nLength > GetData()->nAllocLength)

  0013a	e8 00 00 00 00	 call	 __errno
  0013f	c7 00 16 00 00
	00		 mov	 DWORD PTR [eax], 22	; 00000016H
  00145	e8 00 00 00 00	 call	 __invalid_parameter_noinfo
$LN61@operator:
  0014a	8b 03		 mov	 eax, DWORD PTR [ebx]
  0014c	3b 78 f8	 cmp	 edi, DWORD PTR [eax-8]
  0014f	7f 1d		 jg	 SHORT $LN68@operator

; 877  : 
; 878  : 		GetData()->nDataLength = nLength;

  00151	89 78 f4	 mov	 DWORD PTR [eax-12], edi
; File C:\Program Files\Microsoft Visual Studio\2022\Professional\VC\Tools\MSVC\14.44.35207\atlmfc\include\cstringt.h

; 2409 : 		return( strResult );

  00154	8b c3		 mov	 eax, ebx
; File C:\Program Files\Microsoft Visual Studio\2022\Professional\VC\Tools\MSVC\14.44.35207\atlmfc\include\atlsimpstr.h

; 879  : 		m_pszData[nLength] = 0;

  00156	8b 0b		 mov	 ecx, DWORD PTR [ebx]
  00158	c6 04 0f 00	 mov	 BYTE PTR [edi+ecx], 0
; File C:\Program Files\Microsoft Visual Studio\2022\Professional\VC\Tools\MSVC\14.44.35207\atlmfc\include\cstringt.h

; 2410 : 	}

  0015c	8b 4d f4	 mov	 ecx, DWORD PTR __$EHRec$[ebp]
  0015f	64 89 0d 00 00
	00 00		 mov	 DWORD PTR fs:0, ecx
  00166	59		 pop	 ecx
  00167	5f		 pop	 edi
  00168	5e		 pop	 esi
  00169	5b		 pop	 ebx
  0016a	8b e5		 mov	 esp, ebp
  0016c	5d		 pop	 ebp
  0016d	c3		 ret	 0
$LN68@operator:
; File C:\Program Files\Microsoft Visual Studio\2022\Professional\VC\Tools\MSVC\14.44.35207\atlmfc\include\atlsimpstr.h

; 876  : 			AtlThrow(E_INVALIDARG);

  0016e	68 57 00 07 80	 push	 -2147024809		; 80070057H
  00173	e8 00 00 00 00	 call	 ?AtlThrowImpl@ATL@@YGXJ@Z ; ATL::AtlThrowImpl
$LN83@operator:

; 209  : 		ATLENSURE( pStringMgr != NULL );

  00178	68 05 40 00 80	 push	 -2147467259		; 80004005H
  0017d	e8 00 00 00 00	 call	 ?AtlThrowImpl@ATL@@YGXJ@Z ; ATL::AtlThrowImpl
$LN78@operator:
  00182	cc		 int	 3
_TEXT	ENDS
;	COMDAT text$x
text$x	SEGMENT
__unwindfunclet$??HATL@@YA?AV?$CStringT@DV?$StrTraitMFC@DV?$ChTraitsCRT@D@ATL@@@@@0@ABV10@PBD@Z$0:
  00000	8b 45 ec	 mov	 eax, DWORD PTR $T2[ebp]
  00003	83 e0 01	 and	 eax, 1
  00006	0f 84 0c 00 00
	00		 je	 $LN4@operator
  0000c	83 65 ec fe	 and	 DWORD PTR $T2[ebp], -2	; fffffffeH
  00010	8b 4d 08	 mov	 ecx, DWORD PTR ___$ReturnUdt$[ebp]
  00013	e9 00 00 00 00	 jmp	 ??1?$CStringT@DV?$StrTraitMFC@DV?$ChTraitsCRT@D@ATL@@@@@ATL@@QAE@XZ ; ATL::CStringT<char,StrTraitMFC<char,ATL::ChTraitsCRT<char> > >::~CStringT<char,StrTraitMFC<char,ATL::ChTraitsCRT<char> > >
$LN4@operator:
  00018	c3		 ret	 0
  00019	cc		 int	 3
  0001a	cc		 int	 3
  0001b	cc		 int	 3
  0001c	cc		 int	 3
  0001d	cc		 int	 3
__ehhandler$??HATL@@YA?AV?$CStringT@DV?$StrTraitMFC@DV?$ChTraitsCRT@D@ATL@@@@@0@ABV10@PBD@Z:
  0001e	90		 npad	 1
  0001f	90		 npad	 1
  00020	8b 54 24 08	 mov	 edx, DWORD PTR [esp+8]
  00024	8d 42 0c	 lea	 eax, DWORD PTR [edx+12]
  00027	8b 4a e4	 mov	 ecx, DWORD PTR [edx-28]
  0002a	33 c8		 xor	 ecx, eax
  0002c	e8 00 00 00 00	 call	 @__security_check_cookie@4
  00031	b8 00 00 00 00	 mov	 eax, OFFSET __ehfuncinfo$??HATL@@YA?AV?$CStringT@DV?$StrTraitMFC@DV?$ChTraitsCRT@D@ATL@@@@@0@ABV10@PBD@Z
  00036	e9 00 00 00 00	 jmp	 ___CxxFrameHandler3
text$x	ENDS
??HATL@@YA?AV?$CStringT@DV?$StrTraitMFC@DV?$ChTraitsCRT@D@ATL@@@@@0@ABV10@PBD@Z ENDP ; ATL::operator+
; Function compile flags: /Ogtp
; File C:\Program Files\Microsoft Visual Studio\2022\Professional\VC\Tools\MSVC\14.44.35207\atlmfc\include\cstringt.h
; File C:\Program Files\Microsoft Visual Studio\2022\Professional\VC\Tools\MSVC\14.44.35207\atlmfc\include\afxstr.h
; File C:\Program Files\Microsoft Visual Studio\2022\Professional\VC\Tools\MSVC\14.44.35207\atlmfc\include\cstringt.h
; File C:\Program Files\Microsoft Visual Studio\2022\Professional\VC\Tools\MSVC\14.44.35207\atlmfc\include\afxstr.h
; File C:\Program Files\Microsoft Visual Studio\2022\Professional\VC\Tools\MSVC\14.44.35207\atlmfc\include\cstringt.h
; File C:\Program Files\Microsoft Visual Studio\2022\Professional\VC\Tools\MSVC\14.44.35207\atlmfc\include\atlcore.h
; File C:\Program Files\Microsoft Visual Studio\2022\Professional\VC\Tools\MSVC\14.44.35207\atlmfc\include\cstringt.h
; File C:\Program Files\Microsoft Visual Studio\2022\Professional\VC\Tools\MSVC\14.44.35207\atlmfc\include\atlsimpstr.h
; File C:\Program Files\Microsoft Visual Studio\2022\Professional\VC\Tools\MSVC\14.44.35207\atlmfc\include\cstringt.h
; File C:\Program Files\Microsoft Visual Studio\2022\Professional\VC\Tools\MSVC\14.44.35207\atlmfc\include\atlsimpstr.h
; File C:\Program Files\Microsoft Visual Studio\2022\Professional\VC\Tools\MSVC\14.44.35207\atlmfc\include\cstringt.h
; File C:\Program Files\Microsoft Visual Studio\2022\Professional\VC\Tools\MSVC\14.44.35207\atlmfc\include\atlsimpstr.h
; File C:\Program Files\Microsoft Visual Studio\2022\Professional\VC\Tools\MSVC\14.44.35207\atlmfc\include\cstringt.h
; File C:\Program Files\Microsoft Visual Studio\2022\Professional\VC\Tools\MSVC\14.44.35207\atlmfc\include\atlsimpstr.h
; File C:\Program Files\Microsoft Visual Studio\2022\Professional\VC\Tools\MSVC\14.44.35207\atlmfc\include\cstringt.h
;	COMDAT ?LoadStringA@?$CStringT@DV?$StrTraitMFC@DV?$ChTraitsCRT@D@ATL@@@@@ATL@@QAEHI@Z
_TEXT	SEGMENT
_this$1$ = -4						; size = 4
_nID$ = 8						; size = 4
_hResource$1$ = 8					; size = 4
?LoadStringA@?$CStringT@DV?$StrTraitMFC@DV?$ChTraitsCRT@D@ATL@@@@@ATL@@QAEHI@Z PROC ; ATL::CStringT<char,StrTraitMFC<char,ATL::ChTraitsCRT<char> > >::LoadStringA, COMDAT
; _this$ = ecx

; 2340 : 	{

  00000	55		 push	 ebp
  00001	8b ec		 mov	 ebp, esp
  00003	51		 push	 ecx
  00004	53		 push	 ebx
  00005	57		 push	 edi
; File C:\Program Files\Microsoft Visual Studio\2022\Professional\VC\Tools\MSVC\14.44.35207\atlmfc\include\afxstr.h

; 51   : 		return( AfxFindStringResourceHandle( nID ) );

  00006	8b 7d 08	 mov	 edi, DWORD PTR _nID$[ebp]
  00009	57		 push	 edi
; File C:\Program Files\Microsoft Visual Studio\2022\Professional\VC\Tools\MSVC\14.44.35207\atlmfc\include\cstringt.h

; 2340 : 	{

  0000a	89 4d fc	 mov	 DWORD PTR _this$1$[ebp], ecx
; File C:\Program Files\Microsoft Visual Studio\2022\Professional\VC\Tools\MSVC\14.44.35207\atlmfc\include\afxstr.h

; 51   : 		return( AfxFindStringResourceHandle( nID ) );

  0000d	e8 00 00 00 00	 call	 ?AfxFindStringResourceHandle@@YGPAUHINSTANCE__@@I@Z ; AfxFindStringResourceHandle
; File C:\Program Files\Microsoft Visual Studio\2022\Professional\VC\Tools\MSVC\14.44.35207\atlmfc\include\cstringt.h

; 2341 : 		HINSTANCE hInstance = StringTraits::FindStringResourceInstance( nID );

  00012	8b d8		 mov	 ebx, eax

; 2342 : 		if( hInstance == NULL )

  00014	85 db		 test	 ebx, ebx
  00016	75 08		 jne	 SHORT $LN2@LoadString

; 2348 : 	}

  00018	5f		 pop	 edi
  00019	5b		 pop	 ebx
  0001a	8b e5		 mov	 esp, ebp
  0001c	5d		 pop	 ebp
  0001d	c2 04 00	 ret	 4
$LN2@LoadString:
; File C:\Program Files\Microsoft Visual Studio\2022\Professional\VC\Tools\MSVC\14.44.35207\atlmfc\include\atlcore.h

; 380  : 	hResource = ::FindResourceW(hInstance, MAKEINTRESOURCEW( (((id>>4)+1) & static_cast<WORD>(~0)) ), (LPWSTR) RT_STRING);

  00020	8b c7		 mov	 eax, edi
  00022	c1 e8 04	 shr	 eax, 4
  00025	56		 push	 esi
  00026	40		 inc	 eax
  00027	6a 06		 push	 6
  00029	0f b7 c0	 movzx	 eax, ax
  0002c	50		 push	 eax
  0002d	53		 push	 ebx
  0002e	ff 15 00 00 00
	00		 call	 DWORD PTR __imp__FindResourceW@12
  00034	89 45 08	 mov	 DWORD PTR _hResource$1$[ebp], eax

; 381  : 	if( hResource == NULL )

  00037	85 c0		 test	 eax, eax
  00039	0f 84 cc 00 00
	00		 je	 $LN51@LoadString

; 338  : 	hGlobal = ::LoadResource( hInstance, hResource );

  0003f	50		 push	 eax
  00040	53		 push	 ebx
  00041	ff 15 00 00 00
	00		 call	 DWORD PTR __imp__LoadResource@8

; 339  : 	if( hGlobal == NULL )

  00047	85 c0		 test	 eax, eax
  00049	75 04		 jne	 SHORT $LN15@LoadString

; 340  : 	{
; 341  : 		return( NULL );

  0004b	33 f6		 xor	 esi, esi
  0004d	eb 43		 jmp	 SHORT $LN18@LoadString
$LN15@LoadString:

; 342  : 	}
; 343  : 
; 344  : 	pImage = (const ATLSTRINGRESOURCEIMAGE*)::LockResource( hGlobal );

  0004f	50		 push	 eax
  00050	ff 15 00 00 00
	00		 call	 DWORD PTR __imp__LockResource@4
  00056	8b f0		 mov	 esi, eax

; 345  : 	if( pImage == NULL )

  00058	85 f6		 test	 esi, esi
  0005a	74 36		 je	 SHORT $LN18@LoadString
$LN16@LoadString:

; 346  : 	{
; 347  : 		return( NULL );
; 348  : 	}
; 349  : 
; 350  : 	nResourceSize = ::SizeofResource( hInstance, hResource );

  0005c	ff 75 08	 push	 DWORD PTR _hResource$1$[ebp]
  0005f	53		 push	 ebx
  00060	ff 15 00 00 00
	00		 call	 DWORD PTR __imp__SizeofResource@8

; 351  : 	pImageEnd = (const ATLSTRINGRESOURCEIMAGE*)(LPBYTE( pImage )+nResourceSize);

  00066	8d 0c 06	 lea	 ecx, DWORD PTR [esi+eax]

; 352  : 	iIndex = id&0x000f;

  00069	83 e7 0f	 and	 edi, 15			; 0000000fH

; 353  : 
; 354  : 	while( (iIndex > 0) && (pImage < pImageEnd) )

  0006c	76 14		 jbe	 SHORT $LN14@LoadString
  0006e	66 90		 npad	 2
$LL13@LoadString:
  00070	3b f1		 cmp	 esi, ecx
  00072	73 12		 jae	 SHORT $LN50@LoadString

; 355  : 	{
; 356  : 		pImage = (const ATLSTRINGRESOURCEIMAGE*)(LPBYTE( pImage )+(sizeof( ATLSTRINGRESOURCEIMAGE )+(pImage->nLength*sizeof( WCHAR ))));

  00074	0f b7 06	 movzx	 eax, WORD PTR [esi]
  00077	8d 34 46	 lea	 esi, DWORD PTR [esi+eax*2]
  0007a	83 c6 02	 add	 esi, 2

; 357  : 		iIndex--;

  0007d	83 ef 01	 sub	 edi, 1
  00080	75 ee		 jne	 SHORT $LL13@LoadString
$LN14@LoadString:

; 358  : 	}
; 359  : 	if( pImage >= pImageEnd )

  00082	3b f1		 cmp	 esi, ecx
  00084	72 04		 jb	 SHORT $LN17@LoadString
$LN50@LoadString:

; 360  : 	{
; 361  : 		return( NULL );

  00086	33 f6		 xor	 esi, esi
  00088	eb 08		 jmp	 SHORT $LN18@LoadString
$LN17@LoadString:

; 362  : 	}
; 363  : 	if( pImage->nLength == 0 )

  0008a	33 c0		 xor	 eax, eax
  0008c	66 39 06	 cmp	 WORD PTR [esi], ax
  0008f	0f 44 f0	 cmove	 esi, eax
$LN18@LoadString:
; File C:\Program Files\Microsoft Visual Studio\2022\Professional\VC\Tools\MSVC\14.44.35207\atlmfc\include\cstringt.h

; 2356 : 		if( pImage == NULL )

  00092	85 f6		 test	 esi, esi
  00094	74 75		 je	 SHORT $LN51@LoadString

; 2359 : 		}
; 2360 : 
; 2361 : 		int nLength = StringTraits::GetBaseTypeLength( pImage->achString, pImage->nLength );

  00096	0f b7 06	 movzx	 eax, WORD PTR [esi]
  00099	8d 4e 02	 lea	 ecx, DWORD PTR [esi+2]

; 350  : 		return ::WideCharToMultiByte( _AtlGetConversionACP(), 0, pszSource, nLength, NULL, 0, NULL, NULL );

  0009c	6a 00		 push	 0
  0009e	6a 00		 push	 0
  000a0	6a 00		 push	 0
  000a2	6a 00		 push	 0
  000a4	50		 push	 eax
  000a5	51		 push	 ecx
  000a6	6a 00		 push	 0
  000a8	6a 03		 push	 3
  000aa	ff 15 00 00 00
	00		 call	 DWORD PTR __imp__WideCharToMultiByte@32

; 2361 : 		int nLength = StringTraits::GetBaseTypeLength( pImage->achString, pImage->nLength );

  000b0	8b f8		 mov	 edi, eax
; File C:\Program Files\Microsoft Visual Studio\2022\Professional\VC\Tools\MSVC\14.44.35207\atlmfc\include\atlsimpstr.h

; 808  : 		if (nLength < 0)

  000b2	85 ff		 test	 edi, edi
  000b4	78 60		 js	 SHORT $LN38@LoadString

; 804  : 		return( reinterpret_cast< CStringData* >( m_pszData )-1 );

  000b6	8b 5d fc	 mov	 ebx, DWORD PTR _this$1$[ebp]

; 812  : 		int nShared = 1-pOldData->nRefs;  // nShared < 0 means true, >= 0 means false

  000b9	ba 01 00 00 00	 mov	 edx, 1

; 804  : 		return( reinterpret_cast< CStringData* >( m_pszData )-1 );

  000be	8b 0b		 mov	 ecx, DWORD PTR [ebx]

; 812  : 		int nShared = 1-pOldData->nRefs;  // nShared < 0 means true, >= 0 means false

  000c0	2b 51 fc	 sub	 edx, DWORD PTR [ecx-4]

; 813  : 		int nTooShort = pOldData->nAllocLength-nLength;  // nTooShort < 0 means true, >= 0 means false

  000c3	8b 49 f8	 mov	 ecx, DWORD PTR [ecx-8]
  000c6	2b cf		 sub	 ecx, edi

; 814  : 		if( (nShared|nTooShort) < 0 )  // If either sign bit is set (i.e. either is less than zero), we need to copy data

  000c8	0b d1		 or	 edx, ecx
  000ca	7d 08		 jge	 SHORT $LN26@LoadString

; 815  : 		{
; 816  : 			PrepareWrite2( nLength );

  000cc	57		 push	 edi
  000cd	8b cb		 mov	 ecx, ebx
  000cf	e8 00 00 00 00	 call	 ?PrepareWrite2@?$CSimpleStringT@D$0A@@ATL@@AAEXH@Z ; ATL::CSimpleStringT<char,0>::PrepareWrite2
$LN26@LoadString:
; File C:\Program Files\Microsoft Visual Studio\2022\Professional\VC\Tools\MSVC\14.44.35207\atlmfc\include\cstringt.h

; 2363 : 		StringTraits::ConvertToBaseType( pszBuffer, nLength, pImage->achString, pImage->nLength );

  000d4	0f b7 06	 movzx	 eax, WORD PTR [esi]

; 372  : 		::WideCharToMultiByte( _AtlGetConversionACP(), 0, pszSrc, nSrcLength, pszDest, nDestLength, NULL, NULL );

  000d7	6a 00		 push	 0
  000d9	6a 00		 push	 0
  000db	57		 push	 edi
  000dc	ff 33		 push	 DWORD PTR [ebx]
  000de	50		 push	 eax
  000df	8d 46 02	 lea	 eax, DWORD PTR [esi+2]
  000e2	50		 push	 eax
  000e3	6a 00		 push	 0
  000e5	6a 03		 push	 3
  000e7	ff 15 00 00 00
	00		 call	 DWORD PTR __imp__WideCharToMultiByte@32
; File C:\Program Files\Microsoft Visual Studio\2022\Professional\VC\Tools\MSVC\14.44.35207\atlmfc\include\atlsimpstr.h

; 875  : 		if( nLength < 0 || nLength > GetData()->nAllocLength)

  000ed	8b 03		 mov	 eax, DWORD PTR [ebx]
  000ef	3b 78 f8	 cmp	 edi, DWORD PTR [eax-8]
  000f2	7f 22		 jg	 SHORT $LN38@LoadString

; 877  : 
; 878  : 		GetData()->nDataLength = nLength;

  000f4	89 78 f4	 mov	 DWORD PTR [eax-12], edi

; 879  : 		m_pszData[nLength] = 0;

  000f7	8b 03		 mov	 eax, DWORD PTR [ebx]
; File C:\Program Files\Microsoft Visual Studio\2022\Professional\VC\Tools\MSVC\14.44.35207\atlmfc\include\cstringt.h

; 2347 : 		return( LoadString( hInstance, nID ) );

  000f9	5e		 pop	 esi
; File C:\Program Files\Microsoft Visual Studio\2022\Professional\VC\Tools\MSVC\14.44.35207\atlmfc\include\atlsimpstr.h

; 879  : 		m_pszData[nLength] = 0;

  000fa	c6 04 07 00	 mov	 BYTE PTR [edi+eax], 0
; File C:\Program Files\Microsoft Visual Studio\2022\Professional\VC\Tools\MSVC\14.44.35207\atlmfc\include\cstringt.h

; 2366 : 		return( TRUE );

  000fe	b8 01 00 00 00	 mov	 eax, 1
  00103	5f		 pop	 edi

; 2348 : 	}

  00104	5b		 pop	 ebx
  00105	8b e5		 mov	 esp, ebp
  00107	5d		 pop	 ebp
  00108	c2 04 00	 ret	 4
$LN51@LoadString:

; 2347 : 		return( LoadString( hInstance, nID ) );

  0010b	5e		 pop	 esi
  0010c	5f		 pop	 edi

; 2358 : 			return( FALSE );

  0010d	33 c0		 xor	 eax, eax

; 2348 : 	}

  0010f	5b		 pop	 ebx
  00110	8b e5		 mov	 esp, ebp
  00112	5d		 pop	 ebp
  00113	c2 04 00	 ret	 4
$LN38@LoadString:
; File C:\Program Files\Microsoft Visual Studio\2022\Professional\VC\Tools\MSVC\14.44.35207\atlmfc\include\atlsimpstr.h

; 876  : 			AtlThrow(E_INVALIDARG);

  00116	68 57 00 07 80	 push	 -2147024809		; 80070057H
  0011b	e8 00 00 00 00	 call	 ?AtlThrowImpl@ATL@@YGXJ@Z ; ATL::AtlThrowImpl
$LN63@LoadString:
  00120	cc		 int	 3
?LoadStringA@?$CStringT@DV?$StrTraitMFC@DV?$ChTraitsCRT@D@ATL@@@@@ATL@@QAEHI@Z ENDP ; ATL::CStringT<char,StrTraitMFC<char,ATL::ChTraitsCRT<char> > >::LoadStringA
_TEXT	ENDS
; Function compile flags: /Ogtp
; File C:\Program Files\Microsoft Visual Studio\2022\Professional\VC\Tools\MSVC\14.44.35207\atlmfc\include\cstringt.h
; File C:\Program Files\Microsoft Visual Studio\2022\Professional\VC\Tools\MSVC\14.44.35207\atlmfc\include\atlsimpstr.h
; File C:\Program Files\Microsoft Visual Studio\2022\Professional\VC\Tools\MSVC\14.44.35207\atlmfc\include\cstringt.h
; File C:\Program Files\Microsoft Visual Studio\2022\Professional\VC\Tools\MSVC\14.44.35207\atlmfc\include\atlsimpstr.h
; File C:\Program Files\Microsoft Visual Studio\2022\Professional\VC\Tools\MSVC\14.44.35207\atlmfc\include\cstringt.h
; File C:\Program Files\Microsoft Visual Studio\2022\Professional\VC\Tools\MSVC\14.44.35207\atlmfc\include\atlsimpstr.h
; File C:\Program Files\Microsoft Visual Studio\2022\Professional\VC\Tools\MSVC\14.44.35207\atlmfc\include\cstringt.h
;	COMDAT ??4?$CStringT@DV?$StrTraitMFC@DV?$ChTraitsCRT@D@ATL@@@@@ATL@@QAEAAV01@ABV01@@Z
_TEXT	SEGMENT
_strSrc$ = 8						; size = 4
_pNewData$1$ = 8					; size = 4
??4?$CStringT@DV?$StrTraitMFC@DV?$ChTraitsCRT@D@ATL@@@@@ATL@@QAEAAV01@ABV01@@Z PROC ; ATL::CStringT<char,StrTraitMFC<char,ATL::ChTraitsCRT<char> > >::operator=, COMDAT
; _this$ = ecx

; 1307 : 	{

  00000	55		 push	 ebp
  00001	8b ec		 mov	 ebp, esp
; File C:\Program Files\Microsoft Visual Studio\2022\Professional\VC\Tools\MSVC\14.44.35207\atlmfc\include\atlsimpstr.h

; 804  : 		return( reinterpret_cast< CStringData* >( m_pszData )-1 );

  00003	8b 45 08	 mov	 eax, DWORD PTR _strSrc$[ebp]
; File C:\Program Files\Microsoft Visual Studio\2022\Professional\VC\Tools\MSVC\14.44.35207\atlmfc\include\cstringt.h

; 1307 : 	{

  00006	56		 push	 esi
  00007	8b f1		 mov	 esi, ecx
  00009	57		 push	 edi
; File C:\Program Files\Microsoft Visual Studio\2022\Professional\VC\Tools\MSVC\14.44.35207\atlmfc\include\atlsimpstr.h

; 804  : 		return( reinterpret_cast< CStringData* >( m_pszData )-1 );

  0000a	8b 08		 mov	 ecx, DWORD PTR [eax]
  0000c	8b 3e		 mov	 edi, DWORD PTR [esi]
  0000e	83 ef 10	 sub	 edi, 16			; 00000010H
  00011	8d 51 f0	 lea	 edx, DWORD PTR [ecx-16]

; 278  : 		if( pSrcData != pOldData)

  00014	3b d7		 cmp	 edx, edi
  00016	74 4d		 je	 SHORT $LN22@operator

; 73   : 		return nRefs < 0;

  00018	83 7f 0c 00	 cmp	 DWORD PTR [edi+12], 0
  0001c	53		 push	 ebx
  0001d	8d 5f 0c	 lea	 ebx, DWORD PTR [edi+12]

; 280  : 			if( pOldData->IsLocked() || pSrcData->pStringMgr != pOldData->pStringMgr )

  00020	7c 37		 jl	 SHORT $LN7@operator
  00022	8b 02		 mov	 eax, DWORD PTR [edx]
  00024	3b 07		 cmp	 eax, DWORD PTR [edi]
  00026	75 31		 jne	 SHORT $LN7@operator

; 283  : 			}
; 284  : 			else
; 285  : 			{
; 286  : 				CStringData* pNewData = CloneData( pSrcData );

  00028	52		 push	 edx
  00029	e8 00 00 00 00	 call	 ?CloneData@?$CSimpleStringT@D$0A@@ATL@@CAPAUCStringData@2@PAU32@@Z ; ATL::CSimpleStringT<char,0>::CloneData
  0002e	83 c4 04	 add	 esp, 4
  00031	89 45 08	 mov	 DWORD PTR _pNewData$1$[ebp], eax

; 92   : 		if( _InterlockedDecrement( &nRefs ) <= 0 )

  00034	83 c9 ff	 or	 ecx, -1
  00037	f0 0f c1 0b	 lock	  xadd	 DWORD PTR [ebx], ecx
  0003b	49		 dec	 ecx
  0003c	85 c9		 test	 ecx, ecx
  0003e	7f 0b		 jg	 SHORT $LN20@operator

; 93   : 		{
; 94   : 			pStringMgr->Free( this );

  00040	8b 0f		 mov	 ecx, DWORD PTR [edi]
  00042	57		 push	 edi
  00043	8b 11		 mov	 edx, DWORD PTR [ecx]
  00045	ff 52 04	 call	 DWORD PTR [edx+4]
  00048	8b 45 08	 mov	 eax, DWORD PTR _pNewData$1$[ebp]
$LN20@operator:

; 288  : 				Attach( pNewData );

  0004b	83 c0 10	 add	 eax, 16			; 00000010H
  0004e	5b		 pop	 ebx
  0004f	89 06		 mov	 DWORD PTR [esi], eax
; File C:\Program Files\Microsoft Visual Studio\2022\Professional\VC\Tools\MSVC\14.44.35207\atlmfc\include\cstringt.h

; 1311 : 	}

  00051	8b c6		 mov	 eax, esi
  00053	5f		 pop	 edi
  00054	5e		 pop	 esi
  00055	5d		 pop	 ebp
  00056	c2 04 00	 ret	 4
$LN7@operator:
; File C:\Program Files\Microsoft Visual Studio\2022\Professional\VC\Tools\MSVC\14.44.35207\atlmfc\include\atlsimpstr.h

; 282  : 				SetString( strSrc.GetString(), strSrc.GetLength() );

  00059	ff 71 f4	 push	 DWORD PTR [ecx-12]
  0005c	51		 push	 ecx
  0005d	8b ce		 mov	 ecx, esi
  0005f	e8 00 00 00 00	 call	 ?SetString@?$CSimpleStringT@D$0A@@ATL@@QAEXPBDH@Z ; ATL::CSimpleStringT<char,0>::SetString
  00064	5b		 pop	 ebx
$LN22@operator:
  00065	5f		 pop	 edi
; File C:\Program Files\Microsoft Visual Studio\2022\Professional\VC\Tools\MSVC\14.44.35207\atlmfc\include\cstringt.h

; 1311 : 	}

  00066	8b c6		 mov	 eax, esi
  00068	5e		 pop	 esi
  00069	5d		 pop	 ebp
  0006a	c2 04 00	 ret	 4
??4?$CStringT@DV?$StrTraitMFC@DV?$ChTraitsCRT@D@ATL@@@@@ATL@@QAEAAV01@ABV01@@Z ENDP ; ATL::CStringT<char,StrTraitMFC<char,ATL::ChTraitsCRT<char> > >::operator=
_TEXT	ENDS
; Function compile flags: /Ogtp
; File C:\Program Files\Microsoft Visual Studio\2022\Professional\VC\Tools\MSVC\14.44.35207\atlmfc\include\cstringt.h
; File C:\Program Files\Microsoft Visual Studio\2022\Professional\VC\Tools\MSVC\14.44.35207\atlmfc\include\atlsimpstr.h
; File C:\Program Files\Microsoft Visual Studio\2022\Professional\VC\Tools\MSVC\14.44.35207\atlmfc\include\cstringt.h
;	COMDAT ??1?$CStringT@DV?$StrTraitMFC@DV?$ChTraitsCRT@D@ATL@@@@@ATL@@QAE@XZ
_TEXT	SEGMENT
??1?$CStringT@DV?$StrTraitMFC@DV?$ChTraitsCRT@D@ATL@@@@@ATL@@QAE@XZ PROC ; ATL::CStringT<char,StrTraitMFC<char,ATL::ChTraitsCRT<char> > >::~CStringT<char,StrTraitMFC<char,ATL::ChTraitsCRT<char> > >, COMDAT
; _this$ = ecx
; File C:\Program Files\Microsoft Visual Studio\2022\Professional\VC\Tools\MSVC\14.44.35207\atlmfc\include\atlsimpstr.h

; 804  : 		return( reinterpret_cast< CStringData* >( m_pszData )-1 );

  00000	8b 11		 mov	 edx, DWORD PTR [ecx]

; 92   : 		if( _InterlockedDecrement( &nRefs ) <= 0 )

  00002	83 c8 ff	 or	 eax, -1

; 804  : 		return( reinterpret_cast< CStringData* >( m_pszData )-1 );

  00005	83 ea 10	 sub	 edx, 16			; 00000010H

; 92   : 		if( _InterlockedDecrement( &nRefs ) <= 0 )

  00008	f0 0f c1 42 0c	 lock	  xadd	 DWORD PTR [edx+12], eax
  0000d	48		 dec	 eax
  0000e	85 c0		 test	 eax, eax
  00010	7f 08		 jg	 SHORT $LN8@CStringT

; 93   : 		{
; 94   : 			pStringMgr->Free( this );

  00012	8b 0a		 mov	 ecx, DWORD PTR [edx]
  00014	52		 push	 edx
  00015	8b 01		 mov	 eax, DWORD PTR [ecx]
  00017	ff 50 04	 call	 DWORD PTR [eax+4]
$LN8@CStringT:
; File C:\Program Files\Microsoft Visual Studio\2022\Professional\VC\Tools\MSVC\14.44.35207\atlmfc\include\cstringt.h

; 1303 : 	}

  0001a	c3		 ret	 0
??1?$CStringT@DV?$StrTraitMFC@DV?$ChTraitsCRT@D@ATL@@@@@ATL@@QAE@XZ ENDP ; ATL::CStringT<char,StrTraitMFC<char,ATL::ChTraitsCRT<char> > >::~CStringT<char,StrTraitMFC<char,ATL::ChTraitsCRT<char> > >
_TEXT	ENDS
; Function compile flags: /Ogtp
; File C:\Program Files\Microsoft Visual Studio\2022\Professional\VC\Tools\MSVC\14.44.35207\atlmfc\include\atlsimpstr.h
; File C:\Program Files (x86)\Windows Kits\10\Include\10.0.26100.0\ucrt\corecrt_memcpy_s.h
; File C:\Program Files\Microsoft Visual Studio\2022\Professional\VC\Tools\MSVC\14.44.35207\atlmfc\include\atlsimpstr.h
; File C:\Program Files (x86)\Windows Kits\10\Include\10.0.26100.0\ucrt\corecrt_memcpy_s.h
; File C:\Program Files\Microsoft Visual Studio\2022\Professional\VC\Tools\MSVC\14.44.35207\atlmfc\include\atlsimpstr.h
; File C:\Program Files (x86)\Windows Kits\10\Include\10.0.26100.0\ucrt\corecrt_memcpy_s.h
; File C:\Program Files\Microsoft Visual Studio\2022\Professional\VC\Tools\MSVC\14.44.35207\atlmfc\include\atlsimpstr.h
;	COMDAT ?CloneData@?$CSimpleStringT@D$0A@@ATL@@CAPAUCStringData@2@PAU32@@Z
_TEXT	SEGMENT
_pData$ = 8						; size = 4
__Source$1$ = 8						; size = 4
?CloneData@?$CSimpleStringT@D$0A@@ATL@@CAPAUCStringData@2@PAU32@@Z PROC ; ATL::CSimpleStringT<char,0>::CloneData, COMDAT

; 883  : 	{

  00000	55		 push	 ebp
  00001	8b ec		 mov	 ebp, esp
  00003	53		 push	 ebx
  00004	56		 push	 esi

; 884  : 		CStringData* pNewData = NULL;
; 885  : 
; 886  : 		IAtlStringMgr* pNewStringMgr = pData->pStringMgr->Clone();

  00005	8b 75 08	 mov	 esi, DWORD PTR _pData$[ebp]
  00008	8b 0e		 mov	 ecx, DWORD PTR [esi]
  0000a	8b 01		 mov	 eax, DWORD PTR [ecx]
  0000c	ff 50 10	 call	 DWORD PTR [eax+16]

; 73   : 		return nRefs < 0;

  0000f	83 7e 0c 00	 cmp	 DWORD PTR [esi+12], 0

; 884  : 		CStringData* pNewData = NULL;
; 885  : 
; 886  : 		IAtlStringMgr* pNewStringMgr = pData->pStringMgr->Clone();

  00013	8b c8		 mov	 ecx, eax

; 73   : 		return nRefs < 0;

  00015	8d 46 0c	 lea	 eax, DWORD PTR [esi+12]

; 887  : 		if( !pData->IsLocked() && (pNewStringMgr == pData->pStringMgr) )

  00018	7c 0f		 jl	 SHORT $LN2@CloneData
  0001a	3b 0e		 cmp	 ecx, DWORD PTR [esi]
  0001c	75 0b		 jne	 SHORT $LN2@CloneData

; 888  : 		{
; 889  : 			pNewData = pData;

  0001e	8b de		 mov	 ebx, esi

; 69   : 		_InterlockedIncrement(&nRefs);

  00020	f0 ff 00	 lock	  inc	 DWORD PTR [eax]

; 904  : 		return( pNewData );

  00023	8b c3		 mov	 eax, ebx

; 905  : 	}

  00025	5e		 pop	 esi
  00026	5b		 pop	 ebx
  00027	5d		 pop	 ebp
  00028	c3		 ret	 0
$LN2@CloneData:

; 890  : 			pNewData->AddRef();
; 891  : 		}
; 892  : 		else
; 893  : 		{
; 894  : 			pNewData = pNewStringMgr->Allocate( pData->nDataLength, sizeof( XCHAR ) );

  00029	8b 01		 mov	 eax, DWORD PTR [ecx]
  0002b	6a 01		 push	 1
  0002d	ff 76 04	 push	 DWORD PTR [esi+4]
  00030	ff 10		 call	 DWORD PTR [eax]
  00032	8b d8		 mov	 ebx, eax

; 895  : 			if( pNewData == NULL )

  00034	85 db		 test	 ebx, ebx
  00036	74 7d		 je	 SHORT $LN32@CloneData

; 898  : 			}
; 899  : 			pNewData->nDataLength = pData->nDataLength;

  00038	8b 46 04	 mov	 eax, DWORD PTR [esi+4]

; 900  : 			memcpy_s( PXSTR( pNewData->data() ), (pNewData->nDataLength+1) * sizeof( XCHAR ),

  0003b	8d 4e 10	 lea	 ecx, DWORD PTR [esi+16]
  0003e	57		 push	 edi
  0003f	89 43 04	 mov	 DWORD PTR [ebx+4], eax
  00042	8b 7e 04	 mov	 edi, DWORD PTR [esi+4]
  00045	89 4d 08	 mov	 DWORD PTR __Source$1$[ebp], ecx
  00048	8d 70 01	 lea	 esi, DWORD PTR [eax+1]
  0004b	8d 43 10	 lea	 eax, DWORD PTR [ebx+16]
  0004e	83 c7 01	 add	 edi, 1
; File C:\Program Files (x86)\Windows Kits\10\Include\10.0.26100.0\ucrt\corecrt_memcpy_s.h

; 47   :         if (_SourceSize == 0)

  00051	74 5b		 je	 SHORT $LN27@CloneData

; 48   :         {
; 49   :             return 0;
; 50   :         }
; 51   : 
; 52   :         _CRT_MEMCPY_S_VALIDATE_RETURN_ERRCODE(_Destination != NULL, EINVAL);

  00053	85 c0		 test	 eax, eax
  00055	75 17		 jne	 SHORT $LN12@CloneData
$LN30@CloneData:

; 58   :             _CRT_MEMCPY_S_VALIDATE_RETURN_ERRCODE(_DestinationSize >= _SourceSize, ERANGE);

  00057	e8 00 00 00 00	 call	 __errno
  0005c	c7 00 16 00 00
	00		 mov	 DWORD PTR [eax], 22	; 00000016H
  00062	e8 00 00 00 00	 call	 __invalid_parameter_noinfo
  00067	5f		 pop	 edi
; File C:\Program Files\Microsoft Visual Studio\2022\Professional\VC\Tools\MSVC\14.44.35207\atlmfc\include\atlsimpstr.h

; 904  : 		return( pNewData );

  00068	8b c3		 mov	 eax, ebx

; 905  : 	}

  0006a	5e		 pop	 esi
  0006b	5b		 pop	 ebx
  0006c	5d		 pop	 ebp
  0006d	c3		 ret	 0
$LN12@CloneData:
; File C:\Program Files (x86)\Windows Kits\10\Include\10.0.26100.0\ucrt\corecrt_memcpy_s.h

; 53   :         if (_Source == NULL || _DestinationSize < _SourceSize)

  0006e	85 c9		 test	 ecx, ecx
  00070	74 16		 je	 SHORT $LN14@CloneData
  00072	3b f7		 cmp	 esi, edi
  00074	72 12		 jb	 SHORT $LN14@CloneData

; 59   : 
; 60   :             // Unreachable, but required to suppress /analyze warnings:
; 61   :             return EINVAL;
; 62   :         }
; 63   :         memcpy(_Destination, _Source, _SourceSize);

  00076	57		 push	 edi
  00077	51		 push	 ecx
  00078	50		 push	 eax
  00079	e8 00 00 00 00	 call	 _memcpy
  0007e	83 c4 0c	 add	 esp, 12			; 0000000cH
; File C:\Program Files\Microsoft Visual Studio\2022\Professional\VC\Tools\MSVC\14.44.35207\atlmfc\include\atlsimpstr.h

; 904  : 		return( pNewData );

  00081	8b c3		 mov	 eax, ebx
  00083	5f		 pop	 edi

; 905  : 	}

  00084	5e		 pop	 esi
  00085	5b		 pop	 ebx
  00086	5d		 pop	 ebp
  00087	c3		 ret	 0
$LN14@CloneData:
; File C:\Program Files (x86)\Windows Kits\10\Include\10.0.26100.0\ucrt\corecrt_memcpy_s.h

; 55   :             memset(_Destination, 0, _DestinationSize);

  00088	56		 push	 esi
  00089	6a 00		 push	 0
  0008b	50		 push	 eax
  0008c	e8 00 00 00 00	 call	 _memset
  00091	83 c4 0c	 add	 esp, 12			; 0000000cH

; 56   : 
; 57   :             _CRT_MEMCPY_S_VALIDATE_RETURN_ERRCODE(_Source != NULL,                 EINVAL);

  00094	83 7d 08 00	 cmp	 DWORD PTR __Source$1$[ebp], 0
  00098	74 bd		 je	 SHORT $LN30@CloneData

; 58   :             _CRT_MEMCPY_S_VALIDATE_RETURN_ERRCODE(_DestinationSize >= _SourceSize, ERANGE);

  0009a	3b f7		 cmp	 esi, edi
  0009c	73 10		 jae	 SHORT $LN27@CloneData
  0009e	e8 00 00 00 00	 call	 __errno
  000a3	c7 00 22 00 00
	00		 mov	 DWORD PTR [eax], 34	; 00000022H
  000a9	e8 00 00 00 00	 call	 __invalid_parameter_noinfo
$LN27@CloneData:
  000ae	5f		 pop	 edi
; File C:\Program Files\Microsoft Visual Studio\2022\Professional\VC\Tools\MSVC\14.44.35207\atlmfc\include\atlsimpstr.h

; 905  : 	}

  000af	5e		 pop	 esi
  000b0	8b c3		 mov	 eax, ebx
  000b2	5b		 pop	 ebx
  000b3	5d		 pop	 ebp
  000b4	c3		 ret	 0
$LN32@CloneData:

; 896  : 			{
; 897  : 				ThrowMemoryException();

  000b5	e8 00 00 00 00	 call	 ?ThrowMemoryException@?$CSimpleStringT@D$0A@@ATL@@KAXXZ ; ATL::CSimpleStringT<char,0>::ThrowMemoryException
$LN28@CloneData:
  000ba	cc		 int	 3
?CloneData@?$CSimpleStringT@D$0A@@ATL@@CAPAUCStringData@2@PAU32@@Z ENDP ; ATL::CSimpleStringT<char,0>::CloneData
_TEXT	ENDS
; Function compile flags: /Ogtp
; File C:\Program Files\Microsoft Visual Studio\2022\Professional\VC\Tools\MSVC\14.44.35207\atlmfc\include\atlsimpstr.h
;	COMDAT ?Reallocate@?$CSimpleStringT@D$0A@@ATL@@AAEXH@Z
_TEXT	SEGMENT
_nLength$ = 8						; size = 4
?Reallocate@?$CSimpleStringT@D$0A@@ATL@@AAEXH@Z PROC	; ATL::CSimpleStringT<char,0>::Reallocate, COMDAT
; _this$ = ecx

; 853  : 	{

  00000	55		 push	 ebp
  00001	8b ec		 mov	 ebp, esp
  00003	56		 push	 esi

; 854  : 		CStringData* pOldData = GetData();
; 855  : 		ATLASSERT( pOldData->nAllocLength < nLength );
; 856  : 		IAtlStringMgr* pStringMgr = pOldData->pStringMgr;
; 857  : 		if ( pOldData->nAllocLength >= nLength || nLength <= 0)

  00004	8b 75 08	 mov	 esi, DWORD PTR _nLength$[ebp]
  00007	57		 push	 edi
  00008	8b f9		 mov	 edi, ecx

; 804  : 		return( reinterpret_cast< CStringData* >( m_pszData )-1 );

  0000a	8b 17		 mov	 edx, DWORD PTR [edi]
  0000c	83 ea 10	 sub	 edx, 16			; 00000010H

; 854  : 		CStringData* pOldData = GetData();
; 855  : 		ATLASSERT( pOldData->nAllocLength < nLength );
; 856  : 		IAtlStringMgr* pStringMgr = pOldData->pStringMgr;
; 857  : 		if ( pOldData->nAllocLength >= nLength || nLength <= 0)

  0000f	39 72 08	 cmp	 DWORD PTR [edx+8], esi
  00012	7d 1e		 jge	 SHORT $LN3@Reallocate
  00014	85 f6		 test	 esi, esi
  00016	7e 1a		 jle	 SHORT $LN3@Reallocate

; 860  : 			return;
; 861  : 		}
; 862  : 		CStringData* pNewData = pStringMgr->Reallocate( pOldData, nLength, sizeof( XCHAR ) );

  00018	8b 0a		 mov	 ecx, DWORD PTR [edx]
  0001a	6a 01		 push	 1
  0001c	56		 push	 esi
  0001d	52		 push	 edx
  0001e	8b 01		 mov	 eax, DWORD PTR [ecx]
  00020	ff 50 08	 call	 DWORD PTR [eax+8]

; 863  : 		if( pNewData == NULL )

  00023	85 c0		 test	 eax, eax
  00025	74 0b		 je	 SHORT $LN3@Reallocate

; 864  : 		{
; 865  : 			ThrowMemoryException();
; 866  : 		}
; 867  : 		Attach( pNewData );

  00027	83 c0 10	 add	 eax, 16			; 00000010H
  0002a	89 07		 mov	 DWORD PTR [edi], eax
  0002c	5f		 pop	 edi
  0002d	5e		 pop	 esi

; 868  : 	}

  0002e	5d		 pop	 ebp
  0002f	c2 04 00	 ret	 4
$LN3@Reallocate:

; 858  : 		{
; 859  : 			ThrowMemoryException();

  00032	e8 00 00 00 00	 call	 ?ThrowMemoryException@?$CSimpleStringT@D$0A@@ATL@@KAXXZ ; ATL::CSimpleStringT<char,0>::ThrowMemoryException
$LN12@Reallocate:
  00037	cc		 int	 3
?Reallocate@?$CSimpleStringT@D$0A@@ATL@@AAEXH@Z ENDP	; ATL::CSimpleStringT<char,0>::Reallocate
_TEXT	ENDS
; Function compile flags: /Ogtp
; File C:\Program Files\Microsoft Visual Studio\2022\Professional\VC\Tools\MSVC\14.44.35207\atlmfc\include\atlsimpstr.h
;	COMDAT ?PrepareWrite2@?$CSimpleStringT@D$0A@@ATL@@AAEXH@Z
_TEXT	SEGMENT
_nLength$ = 8						; size = 4
?PrepareWrite2@?$CSimpleStringT@D$0A@@ATL@@AAEXH@Z PROC	; ATL::CSimpleStringT<char,0>::PrepareWrite2, COMDAT
; _this$ = ecx

; 822  : 	{

  00000	55		 push	 ebp
  00001	8b ec		 mov	 ebp, esp
  00003	56		 push	 esi

; 823  : 		CStringData* pOldData = GetData();
; 824  : 		if( pOldData->nDataLength > nLength )

  00004	8b 75 08	 mov	 esi, DWORD PTR _nLength$[ebp]
  00007	57		 push	 edi
  00008	8b f9		 mov	 edi, ecx

; 804  : 		return( reinterpret_cast< CStringData* >( m_pszData )-1 );

  0000a	8b 0f		 mov	 ecx, DWORD PTR [edi]

; 823  : 		CStringData* pOldData = GetData();
; 824  : 		if( pOldData->nDataLength > nLength )

  0000c	39 71 f4	 cmp	 DWORD PTR [ecx-12], esi
  0000f	0f 4f 71 f4	 cmovg	 esi, DWORD PTR [ecx-12]

; 77   : 		return( nRefs > 1 );

  00013	83 79 fc 01	 cmp	 DWORD PTR [ecx-4], 1

; 825  : 		{
; 826  : 			nLength = pOldData->nDataLength;
; 827  : 		}
; 828  : 		if( pOldData->IsShared() )

  00017	7e 0e		 jle	 SHORT $LN3@PrepareWri

; 829  : 		{
; 830  : 			Fork( nLength );

  00019	56		 push	 esi
  0001a	8b cf		 mov	 ecx, edi
  0001c	e8 00 00 00 00	 call	 ?Fork@?$CSimpleStringT@D$0A@@ATL@@AAEXH@Z ; ATL::CSimpleStringT<char,0>::Fork
  00021	5f		 pop	 edi

; 850  : 		}
; 851  : 	}

  00022	5e		 pop	 esi
  00023	5d		 pop	 ebp
  00024	c2 04 00	 ret	 4
$LN3@PrepareWri:

; 831  : 		}
; 832  : 		else if( pOldData->nAllocLength < nLength )

  00027	8b 49 f8	 mov	 ecx, DWORD PTR [ecx-8]
  0002a	3b ce		 cmp	 ecx, esi
  0002c	7d 25		 jge	 SHORT $LN5@PrepareWri

; 833  : 		{
; 834  : 			// Grow exponentially, until we hit 1G, then by 1M thereafter.
; 835  : 			int nNewLength = pOldData->nAllocLength;
; 836  : 			if( nNewLength > 1024 * 1024 * 1024 )

  0002e	81 f9 00 00 00
	40		 cmp	 ecx, 1073741824		; 40000000H
  00034	7e 07		 jle	 SHORT $LN6@PrepareWri

; 837  : 			{
; 838  : 				nNewLength += 1024 * 1024;

  00036	b8 00 00 10 00	 mov	 eax, 1048576		; 00100000H

; 839  : 			}

  0003b	eb 07		 jmp	 SHORT $LN7@PrepareWri
$LN6@PrepareWri:

; 840  : 			else
; 841  : 			{
; 842  : 				// Exponential growth factor is 1.5.
; 843  : 				nNewLength = nNewLength + nNewLength / 2;

  0003d	8b c1		 mov	 eax, ecx
  0003f	99		 cdq
  00040	2b c2		 sub	 eax, edx
  00042	d1 f8		 sar	 eax, 1
$LN7@PrepareWri:

; 844  : 			}
; 845  : 			if( nNewLength < nLength )

  00044	03 c1		 add	 eax, ecx

; 846  : 			{
; 847  : 				nNewLength = nLength;
; 848  : 			}
; 849  : 			Reallocate( nNewLength );

  00046	8b cf		 mov	 ecx, edi
  00048	3b c6		 cmp	 eax, esi
  0004a	0f 4d f0	 cmovge	 esi, eax
  0004d	56		 push	 esi
  0004e	e8 00 00 00 00	 call	 ?Reallocate@?$CSimpleStringT@D$0A@@ATL@@AAEXH@Z ; ATL::CSimpleStringT<char,0>::Reallocate
$LN5@PrepareWri:

; 850  : 		}
; 851  : 	}

  00053	5f		 pop	 edi
  00054	5e		 pop	 esi
  00055	5d		 pop	 ebp
  00056	c2 04 00	 ret	 4
?PrepareWrite2@?$CSimpleStringT@D$0A@@ATL@@AAEXH@Z ENDP	; ATL::CSimpleStringT<char,0>::PrepareWrite2
_TEXT	ENDS
; Function compile flags: /Ogtp
; File C:\Program Files\Microsoft Visual Studio\2022\Professional\VC\Tools\MSVC\14.44.35207\atlmfc\include\atlsimpstr.h
; File C:\Program Files (x86)\Windows Kits\10\Include\10.0.26100.0\ucrt\corecrt_memcpy_s.h
; File C:\Program Files\Microsoft Visual Studio\2022\Professional\VC\Tools\MSVC\14.44.35207\atlmfc\include\atlsimpstr.h
;	COMDAT ?Fork@?$CSimpleStringT@D$0A@@ATL@@AAEXH@Z
_TEXT	SEGMENT
_this$1$ = -12						; size = 4
_nOldLength$1$ = -8					; size = 4
__Source$1$ = -4					; size = 4
_nLength$ = 8						; size = 4
_pNewData$1$ = 8					; size = 4
?Fork@?$CSimpleStringT@D$0A@@ATL@@AAEXH@Z PROC		; ATL::CSimpleStringT<char,0>::Fork, COMDAT
; _this$ = ecx

; 787  : 	{

  00000	55		 push	 ebp
  00001	8b ec		 mov	 ebp, esp
  00003	83 ec 0c	 sub	 esp, 12			; 0000000cH
  00006	8b c1		 mov	 eax, ecx
  00008	89 45 f4	 mov	 DWORD PTR _this$1$[ebp], eax
  0000b	53		 push	 ebx
  0000c	56		 push	 esi

; 804  : 		return( reinterpret_cast< CStringData* >( m_pszData )-1 );

  0000d	8b 00		 mov	 eax, DWORD PTR [eax]

; 790  : 		CStringData* pNewData = pOldData->pStringMgr->Clone()->Allocate( nLength, sizeof( XCHAR ) );

  0000f	8b 48 f0	 mov	 ecx, DWORD PTR [eax-16]

; 804  : 		return( reinterpret_cast< CStringData* >( m_pszData )-1 );

  00012	8d 58 f0	 lea	 ebx, DWORD PTR [eax-16]
  00015	89 45 fc	 mov	 DWORD PTR __Source$1$[ebp], eax

; 787  : 	{

  00018	57		 push	 edi

; 788  : 		CStringData* pOldData = GetData();
; 789  : 		int nOldLength = pOldData->nDataLength;

  00019	8b 7b 04	 mov	 edi, DWORD PTR [ebx+4]

; 790  : 		CStringData* pNewData = pOldData->pStringMgr->Clone()->Allocate( nLength, sizeof( XCHAR ) );

  0001c	8b 01		 mov	 eax, DWORD PTR [ecx]
  0001e	89 7d f8	 mov	 DWORD PTR _nOldLength$1$[ebp], edi
  00021	ff 50 10	 call	 DWORD PTR [eax+16]
  00024	8b 75 08	 mov	 esi, DWORD PTR _nLength$[ebp]
  00027	8b c8		 mov	 ecx, eax
  00029	6a 01		 push	 1
  0002b	56		 push	 esi
  0002c	8b 10		 mov	 edx, DWORD PTR [eax]
  0002e	ff 12		 call	 DWORD PTR [edx]
  00030	89 45 08	 mov	 DWORD PTR _pNewData$1$[ebp], eax

; 791  : 		if( pNewData == NULL )

  00033	85 c0		 test	 eax, eax
  00035	74 6c		 je	 SHORT $LN25@Fork

; 794  : 		}
; 795  : 		int nCharsToCopy = ((nOldLength < nLength) ? nOldLength : nLength)+1;  // Copy '\0'

  00037	3b fe		 cmp	 edi, esi
  00039	0f 4c f7	 cmovl	 esi, edi

; 796  : 		memcpy_s( PXSTR( pNewData->data() ), nCharsToCopy * sizeof( XCHAR ),

  0003c	8d 78 10	 lea	 edi, DWORD PTR [eax+16]
  0003f	83 c6 01	 add	 esi, 1
; File C:\Program Files (x86)\Windows Kits\10\Include\10.0.26100.0\ucrt\corecrt_memcpy_s.h

; 47   :         if (_SourceSize == 0)

  00042	74 33		 je	 SHORT $LN11@Fork

; 48   :         {
; 49   :             return 0;
; 50   :         }
; 51   : 
; 52   :         _CRT_MEMCPY_S_VALIDATE_RETURN_ERRCODE(_Destination != NULL, EINVAL);

  00044	85 ff		 test	 edi, edi
  00046	74 1f		 je	 SHORT $LN23@Fork

; 53   :         if (_Source == NULL || _DestinationSize < _SourceSize)

  00048	8b 45 fc	 mov	 eax, DWORD PTR __Source$1$[ebp]
  0004b	56		 push	 esi
  0004c	85 c0		 test	 eax, eax
  0004e	74 0c		 je	 SHORT $LN10@Fork

; 56   : 
; 57   :             _CRT_MEMCPY_S_VALIDATE_RETURN_ERRCODE(_Source != NULL,                 EINVAL);
; 58   :             _CRT_MEMCPY_S_VALIDATE_RETURN_ERRCODE(_DestinationSize >= _SourceSize, ERANGE);
; 59   : 
; 60   :             // Unreachable, but required to suppress /analyze warnings:
; 61   :             return EINVAL;
; 62   :         }
; 63   :         memcpy(_Destination, _Source, _SourceSize);

  00050	50		 push	 eax
  00051	57		 push	 edi
  00052	e8 00 00 00 00	 call	 _memcpy
  00057	83 c4 0c	 add	 esp, 12			; 0000000cH
  0005a	eb 1b		 jmp	 SHORT $LN11@Fork
$LN10@Fork:

; 54   :         {
; 55   :             memset(_Destination, 0, _DestinationSize);

  0005c	6a 00		 push	 0
  0005e	57		 push	 edi
  0005f	e8 00 00 00 00	 call	 _memset
  00064	83 c4 0c	 add	 esp, 12			; 0000000cH
$LN23@Fork:
; File C:\Program Files\Microsoft Visual Studio\2022\Professional\VC\Tools\MSVC\14.44.35207\atlmfc\include\atlsimpstr.h

; 798  : 		pNewData->nDataLength = nOldLength;

  00067	e8 00 00 00 00	 call	 __errno
  0006c	c7 00 16 00 00
	00		 mov	 DWORD PTR [eax], 22	; 00000016H
  00072	e8 00 00 00 00	 call	 __invalid_parameter_noinfo
$LN11@Fork:
  00077	8b 4d 08	 mov	 ecx, DWORD PTR _pNewData$1$[ebp]
  0007a	8b 45 f8	 mov	 eax, DWORD PTR _nOldLength$1$[ebp]
  0007d	89 41 04	 mov	 DWORD PTR [ecx+4], eax

; 92   : 		if( _InterlockedDecrement( &nRefs ) <= 0 )

  00080	83 c8 ff	 or	 eax, -1
  00083	f0 0f c1 43 0c	 lock	  xadd	 DWORD PTR [ebx+12], eax
  00088	48		 dec	 eax
  00089	85 c0		 test	 eax, eax
  0008b	7f 08		 jg	 SHORT $LN15@Fork

; 93   : 		{
; 94   : 			pStringMgr->Free( this );

  0008d	8b 0b		 mov	 ecx, DWORD PTR [ebx]
  0008f	53		 push	 ebx
  00090	8b 01		 mov	 eax, DWORD PTR [ecx]
  00092	ff 50 04	 call	 DWORD PTR [eax+4]
$LN15@Fork:

; 799  : 		pOldData->Release();
; 800  : 		Attach( pNewData );

  00095	8b 45 f4	 mov	 eax, DWORD PTR _this$1$[ebp]
  00098	89 38		 mov	 DWORD PTR [eax], edi

; 801  : 	}

  0009a	5f		 pop	 edi
  0009b	5e		 pop	 esi
  0009c	5b		 pop	 ebx
  0009d	8b e5		 mov	 esp, ebp
  0009f	5d		 pop	 ebp
  000a0	c2 04 00	 ret	 4
$LN25@Fork:

; 792  : 		{
; 793  : 			ThrowMemoryException();

  000a3	e8 00 00 00 00	 call	 ?ThrowMemoryException@?$CSimpleStringT@D$0A@@ATL@@KAXXZ ; ATL::CSimpleStringT<char,0>::ThrowMemoryException
$LN22@Fork:
  000a8	cc		 int	 3
?Fork@?$CSimpleStringT@D$0A@@ATL@@AAEXH@Z ENDP		; ATL::CSimpleStringT<char,0>::Fork
_TEXT	ENDS
; Function compile flags: /Ogtp
; File C:\Program Files\Microsoft Visual Studio\2022\Professional\VC\Tools\MSVC\14.44.35207\atlmfc\include\atlsimpstr.h
;	COMDAT ?ThrowMemoryException@?$CSimpleStringT@D$0A@@ATL@@KAXXZ
_TEXT	SEGMENT
?ThrowMemoryException@?$CSimpleStringT@D$0A@@ATL@@KAXXZ PROC ; ATL::CSimpleStringT<char,0>::ThrowMemoryException, COMDAT

; 777  : 		AtlThrow( E_OUTOFMEMORY );

  00000	68 0e 00 07 80	 push	 -2147024882		; 8007000eH
  00005	e8 00 00 00 00	 call	 ?AtlThrowImpl@ATL@@YGXJ@Z ; ATL::AtlThrowImpl
$LN3@ThrowMemor:
  0000a	cc		 int	 3
?ThrowMemoryException@?$CSimpleStringT@D$0A@@ATL@@KAXXZ ENDP ; ATL::CSimpleStringT<char,0>::ThrowMemoryException
_TEXT	ENDS
; Function compile flags: /Ogtp
; File C:\Program Files\Microsoft Visual Studio\2022\Professional\VC\Tools\MSVC\14.44.35207\atlmfc\include\atlsimpstr.h
; File C:\Program Files (x86)\Windows Kits\10\Include\10.0.26100.0\ucrt\corecrt_memcpy_s.h
; File C:\Program Files\Microsoft Visual Studio\2022\Professional\VC\Tools\MSVC\14.44.35207\atlmfc\include\atlsimpstr.h
; File C:\Program Files (x86)\Windows Kits\10\Include\10.0.26100.0\ucrt\corecrt_memcpy_s.h
; File C:\Program Files\Microsoft Visual Studio\2022\Professional\VC\Tools\MSVC\14.44.35207\atlmfc\include\atlsimpstr.h
;	COMDAT ?SetString@?$CSimpleStringT@D$0A@@ATL@@QAEXPBDH@Z
_TEXT	SEGMENT
_pszSrc$ = 8						; size = 4
_nOldLength$1$ = 8					; size = 4
_nLength$ = 12						; size = 4
_nOffset$1$ = 12					; size = 4
?SetString@?$CSimpleStringT@D$0A@@ATL@@QAEXPBDH@Z PROC	; ATL::CSimpleStringT<char,0>::SetString, COMDAT
; _this$ = ecx

; 611  : 	{

  00000	55		 push	 ebp
  00001	8b ec		 mov	 ebp, esp
  00003	56		 push	 esi

; 612  : 		if( nLength == 0 )

  00004	8b 75 0c	 mov	 esi, DWORD PTR _nLength$[ebp]
  00007	57		 push	 edi
  00008	8b f9		 mov	 edi, ecx
  0000a	85 f6		 test	 esi, esi
  0000c	75 58		 jne	 SHORT $LN2@SetString

; 804  : 		return( reinterpret_cast< CStringData* >( m_pszData )-1 );

  0000e	8b 07		 mov	 eax, DWORD PTR [edi]

; 443  : 		if( pOldData->nDataLength == 0 )

  00010	83 78 f4 00	 cmp	 DWORD PTR [eax-12], 0

; 804  : 		return( reinterpret_cast< CStringData* >( m_pszData )-1 );

  00014	8d 50 f0	 lea	 edx, DWORD PTR [eax-16]

; 442  : 		IAtlStringMgr* pStringMgr = pOldData->pStringMgr;

  00017	8b 32		 mov	 esi, DWORD PTR [edx]

; 443  : 		if( pOldData->nDataLength == 0 )

  00019	74 1f		 je	 SHORT $LN72@SetString

; 73   : 		return nRefs < 0;

  0001b	83 7a 0c 00	 cmp	 DWORD PTR [edx+12], 0
  0001f	8d 4a 0c	 lea	 ecx, DWORD PTR [edx+12]

; 448  : 		if( pOldData->IsLocked() )

  00022	7d 1c		 jge	 SHORT $LN10@SetString

; 875  : 		if( nLength < 0 || nLength > GetData()->nAllocLength)

  00024	83 78 f8 00	 cmp	 DWORD PTR [eax-8], 0
  00028	0f 8c 0b 01 00
	00		 jl	 $LN71@SetString

; 877  : 
; 878  : 		GetData()->nDataLength = nLength;

  0002e	c7 40 f4 00 00
	00 00		 mov	 DWORD PTR [eax-12], 0

; 879  : 		m_pszData[nLength] = 0;

  00035	8b 07		 mov	 eax, DWORD PTR [edi]
  00037	c6 00 00	 mov	 BYTE PTR [eax], 0
$LN72@SetString:
  0003a	5f		 pop	 edi

; 638  : 			else
; 639  : 			{
; 640  : 				memcpy_s( pszBuffer, GetAllocLength() * sizeof( XCHAR ), pszSrc, nLength * sizeof( XCHAR ));
; 641  : 			}
; 642  : 			ReleaseBufferSetLength( nLength );
; 643  : 		}
; 644  : 	}

  0003b	5e		 pop	 esi
  0003c	5d		 pop	 ebp
  0003d	c2 08 00	 ret	 8
$LN10@SetString:

; 92   : 		if( _InterlockedDecrement( &nRefs ) <= 0 )

  00040	83 c8 ff	 or	 eax, -1
  00043	f0 0f c1 01	 lock	  xadd	 DWORD PTR [ecx], eax
  00047	48		 dec	 eax
  00048	85 c0		 test	 eax, eax
  0004a	7f 08		 jg	 SHORT $LN27@SetString

; 93   : 		{
; 94   : 			pStringMgr->Free( this );

  0004c	8b 0a		 mov	 ecx, DWORD PTR [edx]
  0004e	52		 push	 edx
  0004f	8b 01		 mov	 eax, DWORD PTR [ecx]
  00051	ff 50 04	 call	 DWORD PTR [eax+4]
$LN27@SetString:

; 456  : 			CStringData* pNewData = pStringMgr->GetNilString();

  00054	8b 06		 mov	 eax, DWORD PTR [esi]
  00056	8b ce		 mov	 ecx, esi
  00058	ff 50 0c	 call	 DWORD PTR [eax+12]

; 457  : 			Attach( pNewData );

  0005b	83 c0 10	 add	 eax, 16			; 00000010H
  0005e	89 07		 mov	 DWORD PTR [edi], eax
  00060	5f		 pop	 edi

; 638  : 			else
; 639  : 			{
; 640  : 				memcpy_s( pszBuffer, GetAllocLength() * sizeof( XCHAR ), pszSrc, nLength * sizeof( XCHAR ));
; 641  : 			}
; 642  : 			ReleaseBufferSetLength( nLength );
; 643  : 		}
; 644  : 	}

  00061	5e		 pop	 esi
  00062	5d		 pop	 ebp
  00063	c2 08 00	 ret	 8
$LN2@SetString:
  00066	53		 push	 ebx

; 613  : 		{
; 614  : 			Empty();
; 615  : 		}
; 616  : 		else
; 617  : 		{
; 618  : 			// It is possible that pszSrc points to a location inside of our
; 619  : 			// buffer.  GetBuffer() might change m_pszData if (1) the buffer
; 620  : 			// is shared or (2) the buffer is too small to hold the new
; 621  : 			// string.  We detect this aliasing, and modify pszSrc to point
; 622  : 			// into the newly allocated buffer instead.
; 623  : 
; 624  : 			if(pszSrc == NULL)

  00067	8b 5d 08	 mov	 ebx, DWORD PTR _pszSrc$[ebp]
  0006a	85 db		 test	 ebx, ebx
  0006c	0f 84 c7 00 00
	00		 je	 $LN71@SetString

; 523  : 		return( GetData()->nDataLength );

  00072	8b 07		 mov	 eax, DWORD PTR [edi]

; 625  : 				AtlThrow(E_INVALIDARG);
; 626  : 
; 627  : 			UINT nOldLength = GetLength();
; 628  : 			UINT_PTR nOffset = pszSrc-GetString();

  00074	8b d3		 mov	 edx, ebx
  00076	2b d0		 sub	 edx, eax
  00078	89 55 0c	 mov	 DWORD PTR _nOffset$1$[ebp], edx
  0007b	8b 48 f4	 mov	 ecx, DWORD PTR [eax-12]
  0007e	89 4d 08	 mov	 DWORD PTR _nOldLength$1$[ebp], ecx

; 808  : 		if (nLength < 0)

  00081	85 f6		 test	 esi, esi
  00083	0f 88 b0 00 00
	00		 js	 $LN71@SetString

; 809  : 			AtlThrow(E_INVALIDARG);
; 810  : 
; 811  : 		CStringData* pOldData = GetData();
; 812  : 		int nShared = 1-pOldData->nRefs;  // nShared < 0 means true, >= 0 means false

  00089	b9 01 00 00 00	 mov	 ecx, 1
  0008e	2b 48 fc	 sub	 ecx, DWORD PTR [eax-4]

; 813  : 		int nTooShort = pOldData->nAllocLength-nLength;  // nTooShort < 0 means true, >= 0 means false

  00091	8b 40 f8	 mov	 eax, DWORD PTR [eax-8]
  00094	2b c6		 sub	 eax, esi

; 814  : 		if( (nShared|nTooShort) < 0 )  // If either sign bit is set (i.e. either is less than zero), we need to copy data

  00096	0b c8		 or	 ecx, eax
  00098	7d 0b		 jge	 SHORT $LN38@SetString

; 815  : 		{
; 816  : 			PrepareWrite2( nLength );

  0009a	56		 push	 esi
  0009b	8b cf		 mov	 ecx, edi
  0009d	e8 00 00 00 00	 call	 ?PrepareWrite2@?$CSimpleStringT@D$0A@@ATL@@AAEXH@Z ; ATL::CSimpleStringT<char,0>::PrepareWrite2
  000a2	8b 55 0c	 mov	 edx, DWORD PTR _nOffset$1$[ebp]
$LN38@SetString:

; 629  : 			// If 0 <= nOffset <= nOldLength, then pszSrc points into our
; 630  : 			// buffer
; 631  : 
; 632  : 			PXSTR pszBuffer = GetBuffer( nLength );

  000a5	8b 07		 mov	 eax, DWORD PTR [edi]
  000a7	8b 48 f8	 mov	 ecx, DWORD PTR [eax-8]

; 633  : 			if( nOffset <= nOldLength )

  000aa	3b 55 08	 cmp	 edx, DWORD PTR _nOldLength$1$[ebp]
  000ad	77 35		 ja	 SHORT $LN5@SetString

; 634  : 			{
; 635  : 				CopyCharsOverlapped( pszBuffer, GetAllocLength(),

  000af	03 d0		 add	 edx, eax
; File C:\Program Files (x86)\Windows Kits\10\Include\10.0.26100.0\ucrt\corecrt_memcpy_s.h

; 81   :         _CRT_MEMCPY_S_VALIDATE_RETURN_ERRCODE(_Destination != NULL,            EINVAL);

  000b1	85 c0		 test	 eax, eax
  000b3	75 0d		 jne	 SHORT $LN51@SetString
  000b5	e8 00 00 00 00	 call	 __errno
  000ba	c7 00 16 00 00
	00		 mov	 DWORD PTR [eax], 22	; 00000016H
  000c0	eb 5b		 jmp	 SHORT $LN97@SetString
$LN51@SetString:

; 82   :         _CRT_MEMCPY_S_VALIDATE_RETURN_ERRCODE(_Source != NULL,                 EINVAL);

  000c2	85 d2		 test	 edx, edx
  000c4	75 0d		 jne	 SHORT $LN52@SetString
  000c6	e8 00 00 00 00	 call	 __errno
  000cb	c7 00 16 00 00
	00		 mov	 DWORD PTR [eax], 22	; 00000016H
  000d1	eb 4a		 jmp	 SHORT $LN97@SetString
$LN52@SetString:

; 83   :         _CRT_MEMCPY_S_VALIDATE_RETURN_ERRCODE(_DestinationSize >= _SourceSize, ERANGE);

  000d3	3b ce		 cmp	 ecx, esi
  000d5	72 3b		 jb	 SHORT $LN98@SetString

; 84   : 
; 85   :         memmove(_Destination, _Source, _SourceSize);

  000d7	56		 push	 esi
  000d8	52		 push	 edx
  000d9	50		 push	 eax
  000da	e8 00 00 00 00	 call	 _memmove
  000df	83 c4 0c	 add	 esp, 12			; 0000000cH
; File C:\Program Files\Microsoft Visual Studio\2022\Professional\VC\Tools\MSVC\14.44.35207\atlmfc\include\atlsimpstr.h

; 637  : 			}

  000e2	eb 3e		 jmp	 SHORT $LN65@SetString
$LN5@SetString:
; File C:\Program Files (x86)\Windows Kits\10\Include\10.0.26100.0\ucrt\corecrt_memcpy_s.h

; 52   :         _CRT_MEMCPY_S_VALIDATE_RETURN_ERRCODE(_Destination != NULL, EINVAL);

  000e4	85 c0		 test	 eax, eax
  000e6	75 0d		 jne	 SHORT $LN61@SetString
  000e8	e8 00 00 00 00	 call	 __errno
  000ed	c7 00 16 00 00
	00		 mov	 DWORD PTR [eax], 22	; 00000016H
  000f3	eb 28		 jmp	 SHORT $LN97@SetString
$LN61@SetString:

; 53   :         if (_Source == NULL || _DestinationSize < _SourceSize)

  000f5	3b ce		 cmp	 ecx, esi
  000f7	72 0d		 jb	 SHORT $LN63@SetString

; 56   : 
; 57   :             _CRT_MEMCPY_S_VALIDATE_RETURN_ERRCODE(_Source != NULL,                 EINVAL);
; 58   :             _CRT_MEMCPY_S_VALIDATE_RETURN_ERRCODE(_DestinationSize >= _SourceSize, ERANGE);
; 59   : 
; 60   :             // Unreachable, but required to suppress /analyze warnings:
; 61   :             return EINVAL;
; 62   :         }
; 63   :         memcpy(_Destination, _Source, _SourceSize);

  000f9	56		 push	 esi
  000fa	53		 push	 ebx
  000fb	50		 push	 eax
  000fc	e8 00 00 00 00	 call	 _memcpy
  00101	83 c4 0c	 add	 esp, 12			; 0000000cH
  00104	eb 1c		 jmp	 SHORT $LN65@SetString
$LN63@SetString:

; 54   :         {
; 55   :             memset(_Destination, 0, _DestinationSize);

  00106	51		 push	 ecx
  00107	6a 00		 push	 0
  00109	50		 push	 eax
  0010a	e8 00 00 00 00	 call	 _memset
  0010f	83 c4 0c	 add	 esp, 12			; 0000000cH
$LN98@SetString:
; File C:\Program Files\Microsoft Visual Studio\2022\Professional\VC\Tools\MSVC\14.44.35207\atlmfc\include\atlsimpstr.h

; 875  : 		if( nLength < 0 || nLength > GetData()->nAllocLength)

  00112	e8 00 00 00 00	 call	 __errno
  00117	c7 00 22 00 00
	00		 mov	 DWORD PTR [eax], 34	; 00000022H
$LN97@SetString:
  0011d	e8 00 00 00 00	 call	 __invalid_parameter_noinfo
$LN65@SetString:
  00122	8b 07		 mov	 eax, DWORD PTR [edi]
  00124	5b		 pop	 ebx
  00125	3b 70 f8	 cmp	 esi, DWORD PTR [eax-8]
  00128	7f 0f		 jg	 SHORT $LN71@SetString

; 877  : 
; 878  : 		GetData()->nDataLength = nLength;

  0012a	89 70 f4	 mov	 DWORD PTR [eax-12], esi

; 879  : 		m_pszData[nLength] = 0;

  0012d	8b 07		 mov	 eax, DWORD PTR [edi]
  0012f	5f		 pop	 edi
  00130	c6 04 06 00	 mov	 BYTE PTR [esi+eax], 0

; 638  : 			else
; 639  : 			{
; 640  : 				memcpy_s( pszBuffer, GetAllocLength() * sizeof( XCHAR ), pszSrc, nLength * sizeof( XCHAR ));
; 641  : 			}
; 642  : 			ReleaseBufferSetLength( nLength );
; 643  : 		}
; 644  : 	}

  00134	5e		 pop	 esi
  00135	5d		 pop	 ebp
  00136	c2 08 00	 ret	 8
$LN71@SetString:

; 876  : 			AtlThrow(E_INVALIDARG);

  00139	68 57 00 07 80	 push	 -2147024809		; 80070057H
  0013e	e8 00 00 00 00	 call	 ?AtlThrowImpl@ATL@@YGXJ@Z ; ATL::AtlThrowImpl
$LN96@SetString:
  00143	cc		 int	 3
?SetString@?$CSimpleStringT@D$0A@@ATL@@QAEXPBDH@Z ENDP	; ATL::CSimpleStringT<char,0>::SetString
_TEXT	ENDS
; Function compile flags: /Ogtp
; File C:\Program Files\Microsoft Visual Studio\2022\Professional\VC\Tools\MSVC\14.44.35207\atlmfc\include\atlsimpstr.h
;	COMDAT ??1?$CSimpleStringT@D$0A@@ATL@@QAE@XZ
_TEXT	SEGMENT
??1?$CSimpleStringT@D$0A@@ATL@@QAE@XZ PROC		; ATL::CSimpleStringT<char,0>::~CSimpleStringT<char,0>, COMDAT
; _this$ = ecx

; 804  : 		return( reinterpret_cast< CStringData* >( m_pszData )-1 );

  00000	8b 11		 mov	 edx, DWORD PTR [ecx]

; 92   : 		if( _InterlockedDecrement( &nRefs ) <= 0 )

  00002	83 c8 ff	 or	 eax, -1

; 804  : 		return( reinterpret_cast< CStringData* >( m_pszData )-1 );

  00005	83 ea 10	 sub	 edx, 16			; 00000010H

; 92   : 		if( _InterlockedDecrement( &nRefs ) <= 0 )

  00008	f0 0f c1 42 0c	 lock	  xadd	 DWORD PTR [edx+12], eax
  0000d	48		 dec	 eax
  0000e	85 c0		 test	 eax, eax
  00010	7f 08		 jg	 SHORT $LN6@CSimpleStr

; 93   : 		{
; 94   : 			pStringMgr->Free( this );

  00012	8b 0a		 mov	 ecx, DWORD PTR [edx]
  00014	52		 push	 edx
  00015	8b 01		 mov	 eax, DWORD PTR [ecx]
  00017	ff 50 04	 call	 DWORD PTR [eax+4]
$LN6@CSimpleStr:

; 265  : 		CStringData* pData = GetData();
; 266  : 		pData->Release();
; 267  : 	}

  0001a	c3		 ret	 0
??1?$CSimpleStringT@D$0A@@ATL@@QAE@XZ ENDP		; ATL::CSimpleStringT<char,0>::~CSimpleStringT<char,0>
_TEXT	ENDS
; Function compile flags: /Ogtp
; File C:\Program Files\Microsoft Visual Studio\2022\Professional\VC\Tools\MSVC\14.44.35207\atlmfc\include\atlexcept.h
;	COMDAT ?AtlThrowImpl@ATL@@YGXJ@Z
_TEXT	SEGMENT
_hr$ = 8						; size = 4
?AtlThrowImpl@ATL@@YGXJ@Z PROC				; ATL::AtlThrowImpl, COMDAT

; 69   : {

  00000	55		 push	 ebp
  00001	8b ec		 mov	 ebp, esp

; 70   : 	ATLTRACE(atlTraceException, 0, _T("AtlThrow: hr = 0x%x\n"), hr );
; 71   : #ifdef _AFX
; 72   : 	if( hr == E_OUTOFMEMORY )

  00003	8b 45 08	 mov	 eax, DWORD PTR _hr$[ebp]
  00006	3d 0e 00 07 80	 cmp	 eax, -2147024882	; 8007000eH
  0000b	75 05		 jne	 SHORT $LN2@AtlThrowIm

; 73   : 	{
; 74   : 		AfxThrowMemoryException();

  0000d	e8 00 00 00 00	 call	 ?AfxThrowMemoryException@@YGXXZ ; AfxThrowMemoryException
$LN2@AtlThrowIm:

; 75   : 	}
; 76   : 	else
; 77   : 	{
; 78   : 		AfxThrowOleException( hr );

  00012	50		 push	 eax
  00013	e8 00 00 00 00	 call	 ?AfxThrowOleException@@YGXJ@Z ; AfxThrowOleException
$LN5@AtlThrowIm:
  00018	cc		 int	 3
?AtlThrowImpl@ATL@@YGXJ@Z ENDP				; ATL::AtlThrowImpl
_TEXT	ENDS
; Function compile flags: /Ogtp
; File C:\IAGOS\server\v18\Source\Source\_Common\UltimateWeapon.cpp
;	COMDAT ?__empty_global_delete@@YAXPAXI@Z
_TEXT	SEGMENT
___formal$ = 8						; size = 4
___formal$ = 12						; size = 4
?__empty_global_delete@@YAXPAXI@Z PROC			; __empty_global_delete, COMDAT

  00000	c2 00 00	 ret	 0
?__empty_global_delete@@YAXPAXI@Z ENDP			; __empty_global_delete
_TEXT	ENDS
; Function compile flags: /Ogtp
; File C:\IAGOS\server\v18\Source\Source\_Common\UltimateWeapon.cpp
;	COMDAT ?__empty_global_delete@@YAXPAX@Z
_TEXT	SEGMENT
___formal$ = 8						; size = 4
?__empty_global_delete@@YAXPAX@Z PROC			; __empty_global_delete, COMDAT

  00000	c2 00 00	 ret	 0
?__empty_global_delete@@YAXPAX@Z ENDP			; __empty_global_delete
_TEXT	ENDS
END
