; Listing generated by Microsoft (R) Optimizing Compiler Version 19.44.35225.0 

	TITLE	C:\IAGOS\server\v18\Source\Output\WorldServer\Release\UltimateWeapon.obj
	.686P
	.XMM
	include listing.inc
	.model	flat

INCLUDELIB LIBCMT
INCLUDELIB OLDNAMES

CONST	SEGMENT
?piecewise_construct@std@@3Upiecewise_construct_t@1@B	ORG $+1 ; std::piecewise_construct
CONST	ENDS
PUBLIC	?__empty_global_delete@@YAXPAX@Z		; __empty_global_delete
PUBLIC	?__empty_global_delete@@YAXPAXI@Z		; __empty_global_delete
PUBLIC	?AtlThrowImpl@ATL@@YGXJ@Z			; ATL::AtlThrowImpl
PUBLIC	??1?$CSimpleStringT@D$0A@@ATL@@QAE@XZ		; ATL::CSimpleStringT<char,0>::~CSimpleStringT<char,0>
PUBLIC	?SetString@?$CSimpleStringT@D$0A@@ATL@@QAEXPBDH@Z ; ATL::CSimpleStringT<char,0>::SetString
PUBLIC	?ThrowMemoryException@?$CSimpleStringT@D$0A@@ATL@@KAXXZ ; ATL::CSimpleStringT<char,0>::ThrowMemoryException
PUBLIC	?Fork@?$CSimpleStringT@D$0A@@ATL@@AAEXH@Z	; ATL::CSimpleStringT<char,0>::Fork
PUBLIC	?PrepareWrite2@?$CSimpleStringT@D$0A@@ATL@@AAEXH@Z ; ATL::CSimpleStringT<char,0>::PrepareWrite2
PUBLIC	?Reallocate@?$CSimpleStringT@D$0A@@ATL@@AAEXH@Z	; ATL::CSimpleStringT<char,0>::Reallocate
PUBLIC	?CloneData@?$CSimpleStringT@D$0A@@ATL@@CAPAUCStringData@2@PAU32@@Z ; ATL::CSimpleStringT<char,0>::CloneData
PUBLIC	??1?$CStringT@DV?$StrTraitMFC@DV?$ChTraitsCRT@D@ATL@@@@@ATL@@QAE@XZ ; ATL::CStringT<char,StrTraitMFC<char,ATL::ChTraitsCRT<char> > >::~CStringT<char,StrTraitMFC<char,ATL::ChTraitsCRT<char> > >
PUBLIC	??4?$CStringT@DV?$StrTraitMFC@DV?$ChTraitsCRT@D@ATL@@@@@ATL@@QAEAAV01@ABV01@@Z ; ATL::CStringT<char,StrTraitMFC<char,ATL::ChTraitsCRT<char> > >::operator=
PUBLIC	?LoadStringA@?$CStringT@DV?$StrTraitMFC@DV?$ChTraitsCRT@D@ATL@@@@@ATL@@QAEHI@Z ; ATL::CStringT<char,StrTraitMFC<char,ATL::ChTraitsCRT<char> > >::LoadStringA
PUBLIC	??HATL@@YA?AV?$CStringT@DV?$StrTraitMFC@DV?$ChTraitsCRT@D@ATL@@@@@0@ABV10@PBD@Z ; ATL::operator+
PUBLIC	??0exception@std@@QAE@ABV01@@Z			; std::exception::exception
PUBLIC	??1exception@std@@UAE@XZ			; std::exception::~exception
PUBLIC	?what@exception@std@@UBEPBDXZ			; std::exception::what
PUBLIC	??_Gexception@std@@UAEPAXI@Z			; std::exception::`scalar deleting destructor'
PUBLIC	??0bad_alloc@std@@QAE@ABV01@@Z			; std::bad_alloc::bad_alloc
PUBLIC	??_Gbad_alloc@std@@UAEPAXI@Z			; std::bad_alloc::`scalar deleting destructor'
PUBLIC	??0bad_array_new_length@std@@QAE@XZ		; std::bad_array_new_length::bad_array_new_length
PUBLIC	??1bad_array_new_length@std@@UAE@XZ		; std::bad_array_new_length::~bad_array_new_length
PUBLIC	??0bad_array_new_length@std@@QAE@ABV01@@Z	; std::bad_array_new_length::bad_array_new_length
PUBLIC	??_Gbad_array_new_length@std@@UAEPAXI@Z		; std::bad_array_new_length::`scalar deleting destructor'
PUBLIC	?_Throw_bad_array_new_length@std@@YAXXZ		; std::_Throw_bad_array_new_length
PUBLIC	?_Throw_tree_length_error@std@@YAXXZ		; std::_Throw_tree_length_error
PUBLIC	??0_LogItemInfo@@QAE@XZ				; _LogItemInfo::_LogItemInfo
PUBLIC	?deallocate@?$allocator@H@std@@QAEXQAHI@Z	; std::allocator<int>::deallocate
PUBLIC	?_Buy_raw@?$vector@HV?$allocator@H@std@@@std@@AAEXI@Z ; std::vector<int,std::allocator<int> >::_Buy_raw
PUBLIC	?_Tidy@?$vector@HV?$allocator@H@std@@@std@@AAEXXZ ; std::vector<int,std::allocator<int> >::_Tidy
PUBLIC	?_Xlength@?$vector@HV?$allocator@H@std@@@std@@CAXXZ ; std::vector<int,std::allocator<int> >::_Xlength
PUBLIC	??1__GEMABILITY@CUltimateWeapon@@QAE@XZ		; CUltimateWeapon::__GEMABILITY::~__GEMABILITY
PUBLIC	??0__GEMABILITY@CUltimateWeapon@@QAE@ABU01@@Z	; CUltimateWeapon::__GEMABILITY::__GEMABILITY
PUBLIC	??4__GEMABILITY@CUltimateWeapon@@QAEAAU01@ABU01@@Z ; CUltimateWeapon::__GEMABILITY::operator=
PUBLIC	?deallocate@?$allocator@U__GEMABILITY@CUltimateWeapon@@@std@@QAEXQAU__GEMABILITY@CUltimateWeapon@@I@Z ; std::allocator<CUltimateWeapon::__GEMABILITY>::deallocate
PUBLIC	?_Buy_raw@?$vector@U__GEMABILITY@CUltimateWeapon@@V?$allocator@U__GEMABILITY@CUltimateWeapon@@@std@@@std@@AAEXI@Z ; std::vector<CUltimateWeapon::__GEMABILITY,std::allocator<CUltimateWeapon::__GEMABILITY> >::_Buy_raw
PUBLIC	?_Tidy@?$vector@U__GEMABILITY@CUltimateWeapon@@V?$allocator@U__GEMABILITY@CUltimateWeapon@@@std@@@std@@AAEXXZ ; std::vector<CUltimateWeapon::__GEMABILITY,std::allocator<CUltimateWeapon::__GEMABILITY> >::_Tidy
PUBLIC	?_Xlength@?$vector@U__GEMABILITY@CUltimateWeapon@@V?$allocator@U__GEMABILITY@CUltimateWeapon@@@std@@@std@@CAXXZ ; std::vector<CUltimateWeapon::__GEMABILITY,std::allocator<CUltimateWeapon::__GEMABILITY> >::_Xlength
PUBLIC	??1__GEMABILITYKIND@CUltimateWeapon@@QAE@XZ	; CUltimateWeapon::__GEMABILITYKIND::~__GEMABILITYKIND
PUBLIC	?Load_GemAbility@CUltimateWeapon@@QAEHXZ	; CUltimateWeapon::Load_GemAbility
PUBLIC	?GetGemKind@CUltimateWeapon@@QAEKK@Z		; CUltimateWeapon::GetGemKind
PUBLIC	?Load_UltimateWeapon@CUltimateWeapon@@QAEHXZ	; CUltimateWeapon::Load_UltimateWeapon
PUBLIC	?GetGemAbilityKindRandom@CUltimateWeapon@@QAEKK@Z ; CUltimateWeapon::GetGemAbilityKindRandom
PUBLIC	?MakeGem@CUltimateWeapon@@QAEHPAVCUser@@KAAH@Z	; CUltimateWeapon::MakeGem
PUBLIC	?SetGem@CUltimateWeapon@@QAEHPAVCUser@@KK@Z	; CUltimateWeapon::SetGem
PUBLIC	?RemoveGem@CUltimateWeapon@@QAEHPAVCUser@@KK@Z	; CUltimateWeapon::RemoveGem
PUBLIC	?MakeItem@CUltimateWeapon@@QAEHPAVCUser@@PAK@Z	; CUltimateWeapon::MakeItem
PUBLIC	?TransWeapon@CUltimateWeapon@@QAEHPAVCUser@@KKK@Z ; CUltimateWeapon::TransWeapon
PUBLIC	?EnchantWeapon@CUltimateWeapon@@QAEHPAVCUser@@KK@Z ; CUltimateWeapon::EnchantWeapon
PUBLIC	?SmeltSafetyUltimate@CUltimateWeapon@@QAEEPAVCUser@@PAVCItemElem@@11@Z ; CUltimateWeapon::SmeltSafetyUltimate
PUBLIC	?SetDestParamUltimate@CUltimateWeapon@@QAEXPAVCMover@@PAVCItemElem@@HK@Z ; CUltimateWeapon::SetDestParamUltimate
PUBLIC	?GetDestParamUltimate@CUltimateWeapon@@QAE?AV?$map@HHU?$less@H@std@@V?$allocator@U?$pair@$$CBHH@std@@@2@@std@@PAVCItemElem@@@Z ; CUltimateWeapon::GetDestParamUltimate
PUBLIC	?GetDST@CUltimateWeapon@@QAEHKHH@Z		; CUltimateWeapon::GetDST
PUBLIC	??0CUltimateWeapon@@QAE@XZ			; CUltimateWeapon::CUltimateWeapon
PUBLIC	??1CUltimateWeapon@@UAE@XZ			; CUltimateWeapon::~CUltimateWeapon
PUBLIC	??1?$vector@U__MAKEGEMITEM@CUltimateWeapon@@V?$allocator@U__MAKEGEMITEM@CUltimateWeapon@@@std@@@std@@QAE@XZ ; std::vector<CUltimateWeapon::__MAKEGEMITEM,std::allocator<CUltimateWeapon::__MAKEGEMITEM> >::~vector<CUltimateWeapon::__MAKEGEMITEM,std::allocator<CUltimateWeapon::__MAKEGEMITEM> >
PUBLIC	?_Xlength@?$vector@U__MAKEGEMITEM@CUltimateWeapon@@V?$allocator@U__MAKEGEMITEM@CUltimateWeapon@@@std@@@std@@CAXXZ ; std::vector<CUltimateWeapon::__MAKEGEMITEM,std::allocator<CUltimateWeapon::__MAKEGEMITEM> >::_Xlength
PUBLIC	??1?$vector@U__GEMABILITYKIND@CUltimateWeapon@@V?$allocator@U__GEMABILITYKIND@CUltimateWeapon@@@std@@@std@@QAE@XZ ; std::vector<CUltimateWeapon::__GEMABILITYKIND,std::allocator<CUltimateWeapon::__GEMABILITYKIND> >::~vector<CUltimateWeapon::__GEMABILITYKIND,std::allocator<CUltimateWeapon::__GEMABILITYKIND> >
PUBLIC	?_Xlength@?$vector@U__GEMABILITYKIND@CUltimateWeapon@@V?$allocator@U__GEMABILITYKIND@CUltimateWeapon@@@std@@@std@@CAXXZ ; std::vector<CUltimateWeapon::__GEMABILITYKIND,std::allocator<CUltimateWeapon::__GEMABILITYKIND> >::_Xlength
PUBLIC	??1?$_Tree@V?$_Tmap_traits@HU__MAKEGEMPROB@CUltimateWeapon@@U?$less@H@std@@V?$allocator@U?$pair@$$CBHU__MAKEGEMPROB@CUltimateWeapon@@@std@@@4@$0A@@std@@@std@@QAE@XZ ; std::_Tree<std::_Tmap_traits<int,CUltimateWeapon::__MAKEGEMPROB,std::less<int>,std::allocator<std::pair<int const ,CUltimateWeapon::__MAKEGEMPROB> >,0> >::~_Tree<std::_Tmap_traits<int,CUltimateWeapon::__MAKEGEMPROB,std::less<int>,std::allocator<std::pair<int const ,CUltimateWeapon::__MAKEGEMPROB> >,0> >
PUBLIC	?_Insert_node@?$_Tree_val@U?$_Tree_simple_types@U?$pair@$$CBHU__MAKEGEMPROB@CUltimateWeapon@@@std@@@std@@@std@@QAEPAU?$_Tree_node@U?$pair@$$CBHU__MAKEGEMPROB@CUltimateWeapon@@@std@@PAX@2@U?$_Tree_id@PAU?$_Tree_node@U?$pair@$$CBHU__MAKEGEMPROB@CUltimateWeapon@@@std@@PAX@std@@@2@QAU32@@Z ; std::_Tree_val<std::_Tree_simple_types<std::pair<int const ,CUltimateWeapon::__MAKEGEMPROB> > >::_Insert_node
PUBLIC	??1?$map@HU__MAKEGEMPROB@CUltimateWeapon@@U?$less@H@std@@V?$allocator@U?$pair@$$CBHU__MAKEGEMPROB@CUltimateWeapon@@@std@@@4@@std@@QAE@XZ ; std::map<int,CUltimateWeapon::__MAKEGEMPROB,std::less<int>,std::allocator<std::pair<int const ,CUltimateWeapon::__MAKEGEMPROB> > >::~map<int,CUltimateWeapon::__MAKEGEMPROB,std::less<int>,std::allocator<std::pair<int const ,CUltimateWeapon::__MAKEGEMPROB> > >
PUBLIC	??1?$_Tree@V?$_Tmap_traits@HHU?$less@H@std@@V?$allocator@U?$pair@$$CBHH@std@@@2@$0A@@std@@@std@@QAE@XZ ; std::_Tree<std::_Tmap_traits<int,int,std::less<int>,std::allocator<std::pair<int const ,int> >,0> >::~_Tree<std::_Tmap_traits<int,int,std::less<int>,std::allocator<std::pair<int const ,int> >,0> >
PUBLIC	?find@?$_Tree@V?$_Tmap_traits@HHU?$less@H@std@@V?$allocator@U?$pair@$$CBHH@std@@@2@$0A@@std@@@std@@QAE?AV?$_Tree_iterator@V?$_Tree_val@U?$_Tree_simple_types@U?$pair@$$CBHH@std@@@std@@@std@@@2@ABH@Z ; std::_Tree<std::_Tmap_traits<int,int,std::less<int>,std::allocator<std::pair<int const ,int> >,0> >::find
PUBLIC	?_Insert_node@?$_Tree_val@U?$_Tree_simple_types@U?$pair@$$CBHH@std@@@std@@@std@@QAEPAU?$_Tree_node@U?$pair@$$CBHH@std@@PAX@2@U?$_Tree_id@PAU?$_Tree_node@U?$pair@$$CBHH@std@@PAX@std@@@2@QAU32@@Z ; std::_Tree_val<std::_Tree_simple_types<std::pair<int const ,int> > >::_Insert_node
PUBLIC	??1?$map@HHU?$less@H@std@@V?$allocator@U?$pair@$$CBHH@std@@@2@@std@@QAE@XZ ; std::map<int,int,std::less<int>,std::allocator<std::pair<int const ,int> > >::~map<int,int,std::less<int>,std::allocator<std::pair<int const ,int> > >
PUBLIC	??_GCUltimateWeapon@@UAEPAXI@Z			; CUltimateWeapon::`scalar deleting destructor'
PUBLIC	??1?$_Tree@V?$_Tmap_traits@KHU?$less@K@std@@V?$allocator@U?$pair@$$CBKH@std@@@2@$0A@@std@@@std@@QAE@XZ ; std::_Tree<std::_Tmap_traits<unsigned long,int,std::less<unsigned long>,std::allocator<std::pair<unsigned long const ,int> >,0> >::~_Tree<std::_Tmap_traits<unsigned long,int,std::less<unsigned long>,std::allocator<std::pair<unsigned long const ,int> >,0> >
PUBLIC	?_Insert_node@?$_Tree_val@U?$_Tree_simple_types@U?$pair@$$CBKH@std@@@std@@@std@@QAEPAU?$_Tree_node@U?$pair@$$CBKH@std@@PAX@2@U?$_Tree_id@PAU?$_Tree_node@U?$pair@$$CBKH@std@@PAX@std@@@2@QAU32@@Z ; std::_Tree_val<std::_Tree_simple_types<std::pair<unsigned long const ,int> > >::_Insert_node
PUBLIC	??1?$map@KHU?$less@K@std@@V?$allocator@U?$pair@$$CBKH@std@@@2@@std@@QAE@XZ ; std::map<unsigned long,int,std::less<unsigned long>,std::allocator<std::pair<unsigned long const ,int> > >::~map<unsigned long,int,std::less<unsigned long>,std::allocator<std::pair<unsigned long const ,int> > >
PUBLIC	?GetPropA@CItemElem@@QAEPAUItemProp@@XZ		; CItemElem::GetPropA
PUBLIC	?IsEquip@?$CItemContainer@VCItemElem@@@@QAEHK@Z	; CItemContainer<CItemElem>::IsEquip
PUBLIC	?IsFull@?$CItemContainer@VCItemElem@@@@QAEHPAVCItemElem@@PAUItemProp@@F@Z ; CItemContainer<CItemElem>::IsFull
PUBLIC	?GetAtId@?$CItemContainer@VCItemElem@@@@QAEPAVCItemElem@@K@Z ; CItemContainer<CItemElem>::GetAtId
PUBLIC	??$_Erase_tree@V?$allocator@U?$_Tree_node@U?$pair@$$CBKH@std@@PAX@std@@@std@@@?$_Tree_val@U?$_Tree_simple_types@U?$pair@$$CBKH@std@@@std@@@std@@QAEXAAV?$allocator@U?$_Tree_node@U?$pair@$$CBKH@std@@PAX@std@@@1@PAU?$_Tree_node@U?$pair@$$CBKH@std@@PAX@1@@Z ; std::_Tree_val<std::_Tree_simple_types<std::pair<unsigned long const ,int> > >::_Erase_tree<std::allocator<std::_Tree_node<std::pair<unsigned long const ,int>,void *> > >
PUBLIC	??$_Erase_tree@V?$allocator@U?$_Tree_node@U?$pair@$$CBHH@std@@PAX@std@@@std@@@?$_Tree_val@U?$_Tree_simple_types@U?$pair@$$CBHH@std@@@std@@@std@@QAEXAAV?$allocator@U?$_Tree_node@U?$pair@$$CBHH@std@@PAX@std@@@1@PAU?$_Tree_node@U?$pair@$$CBHH@std@@PAX@1@@Z ; std::_Tree_val<std::_Tree_simple_types<std::pair<int const ,int> > >::_Erase_tree<std::allocator<std::_Tree_node<std::pair<int const ,int>,void *> > >
PUBLIC	??$_Allocate_manually_vector_aligned@U_Default_allocate_traits@std@@@std@@YAPAXI@Z ; std::_Allocate_manually_vector_aligned<std::_Default_allocate_traits>
PUBLIC	??$insert@$0A@$0A@@?$_Tree@V?$_Tmap_traits@HHU?$less@H@std@@V?$allocator@U?$pair@$$CBHH@std@@@2@$0A@@std@@@std@@QAE?AU?$pair@V?$_Tree_iterator@V?$_Tree_val@U?$_Tree_simple_types@U?$pair@$$CBHH@std@@@std@@@std@@@std@@_N@1@$$QAU?$pair@$$CBHH@1@@Z ; std::_Tree<std::_Tmap_traits<int,int,std::less<int>,std::allocator<std::pair<int const ,int> >,0> >::insert<0,0>
PUBLIC	??E?$_Tree_const_iterator@V?$_Tree_val@U?$_Tree_simple_types@U?$pair@$$CBKH@std@@@std@@@std@@@std@@QAEAAV01@XZ ; std::_Tree_const_iterator<std::_Tree_val<std::_Tree_simple_types<std::pair<unsigned long const ,int> > > >::operator++
PUBLIC	??$insert@$0A@$0A@@?$_Tree@V?$_Tmap_traits@KHU?$less@K@std@@V?$allocator@U?$pair@$$CBKH@std@@@2@$0A@@std@@@std@@QAE?AU?$pair@V?$_Tree_iterator@V?$_Tree_val@U?$_Tree_simple_types@U?$pair@$$CBKH@std@@@std@@@std@@@std@@_N@1@$$QAU?$pair@$$CBKH@1@@Z ; std::_Tree<std::_Tmap_traits<unsigned long,int,std::less<unsigned long>,std::allocator<std::pair<unsigned long const ,int> >,0> >::insert<0,0>
PUBLIC	??$_Assign_counted_range@PAU__GEMABILITY@CUltimateWeapon@@@?$vector@U__GEMABILITY@CUltimateWeapon@@V?$allocator@U__GEMABILITY@CUltimateWeapon@@@std@@@std@@AAEXPAU__GEMABILITY@CUltimateWeapon@@I@Z ; std::vector<CUltimateWeapon::__GEMABILITY,std::allocator<CUltimateWeapon::__GEMABILITY> >::_Assign_counted_range<CUltimateWeapon::__GEMABILITY *>
PUBLIC	??$_Find_lower_bound@H@?$_Tree@V?$_Tmap_traits@HU__MAKEGEMPROB@CUltimateWeapon@@U?$less@H@std@@V?$allocator@U?$pair@$$CBHU__MAKEGEMPROB@CUltimateWeapon@@@std@@@4@$0A@@std@@@std@@IBE?AU?$_Tree_find_result@PAU?$_Tree_node@U?$pair@$$CBHU__MAKEGEMPROB@CUltimateWeapon@@@std@@PAX@std@@@1@ABH@Z ; std::_Tree<std::_Tmap_traits<int,CUltimateWeapon::__MAKEGEMPROB,std::less<int>,std::allocator<std::pair<int const ,CUltimateWeapon::__MAKEGEMPROB> >,0> >::_Find_lower_bound<int>
PUBLIC	??1?$_Alloc_construct_ptr@V?$allocator@U?$_Tree_node@U?$pair@$$CBHU__MAKEGEMPROB@CUltimateWeapon@@@std@@PAX@std@@@std@@@std@@QAE@XZ ; std::_Alloc_construct_ptr<std::allocator<std::_Tree_node<std::pair<int const ,CUltimateWeapon::__MAKEGEMPROB>,void *> > >::~_Alloc_construct_ptr<std::allocator<std::_Tree_node<std::pair<int const ,CUltimateWeapon::__MAKEGEMPROB>,void *> > >
PUBLIC	??$_Find_lower_bound@H@?$_Tree@V?$_Tmap_traits@HHU?$less@H@std@@V?$allocator@U?$pair@$$CBHH@std@@@2@$0A@@std@@@std@@IBE?AU?$_Tree_find_result@PAU?$_Tree_node@U?$pair@$$CBHH@std@@PAX@std@@@1@ABH@Z ; std::_Tree<std::_Tmap_traits<int,int,std::less<int>,std::allocator<std::pair<int const ,int> >,0> >::_Find_lower_bound<int>
PUBLIC	??1?$_Alloc_construct_ptr@V?$allocator@U?$_Tree_node@U?$pair@$$CBHH@std@@PAX@std@@@std@@@std@@QAE@XZ ; std::_Alloc_construct_ptr<std::allocator<std::_Tree_node<std::pair<int const ,int>,void *> > >::~_Alloc_construct_ptr<std::allocator<std::_Tree_node<std::pair<int const ,int>,void *> > >
PUBLIC	??$_Find_lower_bound@K@?$_Tree@V?$_Tmap_traits@KHU?$less@K@std@@V?$allocator@U?$pair@$$CBKH@std@@@2@$0A@@std@@@std@@IBE?AU?$_Tree_find_result@PAU?$_Tree_node@U?$pair@$$CBKH@std@@PAX@std@@@1@ABK@Z ; std::_Tree<std::_Tmap_traits<unsigned long,int,std::less<unsigned long>,std::allocator<std::pair<unsigned long const ,int> >,0> >::_Find_lower_bound<unsigned long>
PUBLIC	??1?$_Alloc_construct_ptr@V?$allocator@U?$_Tree_node@U?$pair@$$CBKH@std@@PAX@std@@@std@@@std@@QAE@XZ ; std::_Alloc_construct_ptr<std::allocator<std::_Tree_node<std::pair<unsigned long const ,int>,void *> > >::~_Alloc_construct_ptr<std::allocator<std::_Tree_node<std::pair<unsigned long const ,int>,void *> > >
PUBLIC	??$_Erase_tree@V?$allocator@U?$_Tree_node@U?$pair@$$CBHU__MAKEGEMPROB@CUltimateWeapon@@@std@@PAX@std@@@std@@@?$_Tree_val@U?$_Tree_simple_types@U?$pair@$$CBHU__MAKEGEMPROB@CUltimateWeapon@@@std@@@std@@@std@@QAEXAAV?$allocator@U?$_Tree_node@U?$pair@$$CBHU__MAKEGEMPROB@CUltimateWeapon@@@std@@PAX@std@@@1@PAU?$_Tree_node@U?$pair@$$CBHU__MAKEGEMPROB@CUltimateWeapon@@@std@@PAX@1@@Z ; std::_Tree_val<std::_Tree_simple_types<std::pair<int const ,CUltimateWeapon::__MAKEGEMPROB> > >::_Erase_tree<std::allocator<std::_Tree_node<std::pair<int const ,CUltimateWeapon::__MAKEGEMPROB>,void *> > >
PUBLIC	??$_Emplace_reallocate@ABU__GEMABILITYKIND@CUltimateWeapon@@@?$vector@U__GEMABILITYKIND@CUltimateWeapon@@V?$allocator@U__GEMABILITYKIND@CUltimateWeapon@@@std@@@std@@AAEPAU__GEMABILITYKIND@CUltimateWeapon@@QAU23@ABU23@@Z ; std::vector<CUltimateWeapon::__GEMABILITYKIND,std::allocator<CUltimateWeapon::__GEMABILITYKIND> >::_Emplace_reallocate<CUltimateWeapon::__GEMABILITYKIND const &>
PUBLIC	??$_Emplace_reallocate@ABU__MAKEGEMITEM@CUltimateWeapon@@@?$vector@U__MAKEGEMITEM@CUltimateWeapon@@V?$allocator@U__MAKEGEMITEM@CUltimateWeapon@@@std@@@std@@AAEPAU__MAKEGEMITEM@CUltimateWeapon@@QAU23@ABU23@@Z ; std::vector<CUltimateWeapon::__MAKEGEMITEM,std::allocator<CUltimateWeapon::__MAKEGEMITEM> >::_Emplace_reallocate<CUltimateWeapon::__MAKEGEMITEM const &>
PUBLIC	??$_Uninitialized_copy_n@PAU__GEMABILITY@CUltimateWeapon@@V?$allocator@U__GEMABILITY@CUltimateWeapon@@@std@@@std@@YAPAU__GEMABILITY@CUltimateWeapon@@PAU12@I0AAV?$allocator@U__GEMABILITY@CUltimateWeapon@@@0@@Z ; std::_Uninitialized_copy_n<CUltimateWeapon::__GEMABILITY *,std::allocator<CUltimateWeapon::__GEMABILITY> >
PUBLIC	??$_Emplace_reallocate@ABU__GEMABILITY@CUltimateWeapon@@@?$vector@U__GEMABILITY@CUltimateWeapon@@V?$allocator@U__GEMABILITY@CUltimateWeapon@@@std@@@std@@AAEPAU__GEMABILITY@CUltimateWeapon@@QAU23@ABU23@@Z ; std::vector<CUltimateWeapon::__GEMABILITY,std::allocator<CUltimateWeapon::__GEMABILITY> >::_Emplace_reallocate<CUltimateWeapon::__GEMABILITY const &>
PUBLIC	??$_Emplace_reallocate@H@?$vector@HV?$allocator@H@std@@@std@@AAEPAHQAH$$QAH@Z ; std::vector<int,std::allocator<int> >::_Emplace_reallocate<int>
PUBLIC	??$construct@U__GEMABILITYKIND@CUltimateWeapon@@ABU12@@?$_Default_allocator_traits@V?$allocator@U__GEMABILITYKIND@CUltimateWeapon@@@std@@@std@@SAXAAV?$allocator@U__GEMABILITYKIND@CUltimateWeapon@@@1@QAU__GEMABILITYKIND@CUltimateWeapon@@ABU34@@Z ; std::_Default_allocator_traits<std::allocator<CUltimateWeapon::__GEMABILITYKIND> >::construct<CUltimateWeapon::__GEMABILITYKIND,CUltimateWeapon::__GEMABILITYKIND const &>
PUBLIC	??1_Reallocation_guard@?$vector@U__GEMABILITYKIND@CUltimateWeapon@@V?$allocator@U__GEMABILITYKIND@CUltimateWeapon@@@std@@@std@@QAE@XZ ; std::vector<CUltimateWeapon::__GEMABILITYKIND,std::allocator<CUltimateWeapon::__GEMABILITYKIND> >::_Reallocation_guard::~_Reallocation_guard
PUBLIC	??$_Uninitialized_move@PAU__GEMABILITYKIND@CUltimateWeapon@@V?$allocator@U__GEMABILITYKIND@CUltimateWeapon@@@std@@@std@@YAPAU__GEMABILITYKIND@CUltimateWeapon@@QAU12@0PAU12@AAV?$allocator@U__GEMABILITYKIND@CUltimateWeapon@@@0@@Z ; std::_Uninitialized_move<CUltimateWeapon::__GEMABILITYKIND *,std::allocator<CUltimateWeapon::__GEMABILITYKIND> >
PUBLIC	??1?$_Uninitialized_backout_al@V?$allocator@U__GEMABILITY@CUltimateWeapon@@@std@@@std@@QAE@XZ ; std::_Uninitialized_backout_al<std::allocator<CUltimateWeapon::__GEMABILITY> >::~_Uninitialized_backout_al<std::allocator<CUltimateWeapon::__GEMABILITY> >
PUBLIC	??1_Reallocation_guard@?$vector@U__GEMABILITY@CUltimateWeapon@@V?$allocator@U__GEMABILITY@CUltimateWeapon@@@std@@@std@@QAE@XZ ; std::vector<CUltimateWeapon::__GEMABILITY,std::allocator<CUltimateWeapon::__GEMABILITY> >::_Reallocation_guard::~_Reallocation_guard
PUBLIC	??$_Uninitialized_move@PAU__GEMABILITY@CUltimateWeapon@@V?$allocator@U__GEMABILITY@CUltimateWeapon@@@std@@@std@@YAPAU__GEMABILITY@CUltimateWeapon@@QAU12@0PAU12@AAV?$allocator@U__GEMABILITY@CUltimateWeapon@@@0@@Z ; std::_Uninitialized_move<CUltimateWeapon::__GEMABILITY *,std::allocator<CUltimateWeapon::__GEMABILITY> >
PUBLIC	??$_Copy_memmove@PAU__MAKEGEMITEM@CUltimateWeapon@@PAU12@@std@@YAPAU__MAKEGEMITEM@CUltimateWeapon@@PAU12@00@Z ; std::_Copy_memmove<CUltimateWeapon::__MAKEGEMITEM *,CUltimateWeapon::__MAKEGEMITEM *>
PUBLIC	??$_Copy_memmove@PAHPAH@std@@YAPAHPAH00@Z	; std::_Copy_memmove<int *,int *>
PUBLIC	??$_Copy_memmove_n@PAHPAH@std@@YAPAHPAHI0@Z	; std::_Copy_memmove_n<int *,int *>
PUBLIC	??$_Copy_memmove_tail@PAU__MAKEGEMITEM@CUltimateWeapon@@@std@@YAPAU__MAKEGEMITEM@CUltimateWeapon@@QBDQAU12@II@Z ; std::_Copy_memmove_tail<CUltimateWeapon::__MAKEGEMITEM *>
PUBLIC	??$_Copy_memmove_tail@PAH@std@@YAPAHQBDQAHII@Z	; std::_Copy_memmove_tail<int *>
PUBLIC	??1?$_Tidy_guard@V?$vector@U__GEMABILITY@CUltimateWeapon@@V?$allocator@U__GEMABILITY@CUltimateWeapon@@@std@@@std@@@std@@QAE@XZ ; std::_Tidy_guard<std::vector<CUltimateWeapon::__GEMABILITY,std::allocator<CUltimateWeapon::__GEMABILITY> > >::~_Tidy_guard<std::vector<CUltimateWeapon::__GEMABILITY,std::allocator<CUltimateWeapon::__GEMABILITY> > >
PUBLIC	??_C@_00CNPNBAHC@@				; `string'
PUBLIC	??_7exception@std@@6B@				; std::exception::`vftable'
PUBLIC	??_C@_0BC@EOODALEL@Unknown?5exception@		; `string'
PUBLIC	??_7bad_alloc@std@@6B@				; std::bad_alloc::`vftable'
PUBLIC	??_7bad_array_new_length@std@@6B@		; std::bad_array_new_length::`vftable'
PUBLIC	??_C@_0BF@KINCDENJ@bad?5array?5new?5length@	; `string'
PUBLIC	??_R0?AVexception@std@@@8			; std::exception `RTTI Type Descriptor'
PUBLIC	__CT??_R0?AVexception@std@@@8??0exception@std@@QAE@ABV01@@Z12
PUBLIC	__TI3?AVbad_array_new_length@std@@
PUBLIC	__CTA3?AVbad_array_new_length@std@@
PUBLIC	??_R0?AVbad_array_new_length@std@@@8		; std::bad_array_new_length `RTTI Type Descriptor'
PUBLIC	__CT??_R0?AVbad_array_new_length@std@@@8??0bad_array_new_length@std@@QAE@ABV01@@Z12
PUBLIC	??_R0?AVbad_alloc@std@@@8			; std::bad_alloc `RTTI Type Descriptor'
PUBLIC	__CT??_R0?AVbad_alloc@std@@@8??0bad_alloc@std@@QAE@ABV01@@Z12
PUBLIC	??_C@_0BB@GCADKGJO@map?1set?5too?5long@		; `string'
PUBLIC	??_7CUltimateWeapon@@6B@			; CUltimateWeapon::`vftable'
PUBLIC	??_C@_0BM@HMFGHCP@?$CFs?5min?3?$CFd?0?5max?3?$CFd?0?5index?3?$CFd@ ; `string'
PUBLIC	??_C@_0BI@BEIFNGEL@GetItemProp?5range_error@	; `string'
PUBLIC	??_C@_0BA@FOIKENOD@vector?5too?5long@		; `string'
PUBLIC	??_R4exception@std@@6B@				; std::exception::`RTTI Complete Object Locator'
PUBLIC	??_R3exception@std@@8				; std::exception::`RTTI Class Hierarchy Descriptor'
PUBLIC	??_R2exception@std@@8				; std::exception::`RTTI Base Class Array'
PUBLIC	??_R1A@?0A@EA@exception@std@@8			; std::exception::`RTTI Base Class Descriptor at (0,-1,0,64)'
PUBLIC	??_R4bad_array_new_length@std@@6B@		; std::bad_array_new_length::`RTTI Complete Object Locator'
PUBLIC	??_R3bad_array_new_length@std@@8		; std::bad_array_new_length::`RTTI Class Hierarchy Descriptor'
PUBLIC	??_R2bad_array_new_length@std@@8		; std::bad_array_new_length::`RTTI Base Class Array'
PUBLIC	??_R1A@?0A@EA@bad_array_new_length@std@@8	; std::bad_array_new_length::`RTTI Base Class Descriptor at (0,-1,0,64)'
PUBLIC	??_R1A@?0A@EA@bad_alloc@std@@8			; std::bad_alloc::`RTTI Base Class Descriptor at (0,-1,0,64)'
PUBLIC	??_R3bad_alloc@std@@8				; std::bad_alloc::`RTTI Class Hierarchy Descriptor'
PUBLIC	??_R2bad_alloc@std@@8				; std::bad_alloc::`RTTI Base Class Array'
PUBLIC	??_R4bad_alloc@std@@6B@				; std::bad_alloc::`RTTI Complete Object Locator'
PUBLIC	??_C@_0BI@PGNGBLIK@Ultimate_GemAbility?4txt@	; `string'
PUBLIC	??_C@_07PPPKBPJP@ABILITY@			; `string'
PUBLIC	??_C@_09HOBABKJK@LEVEL_GEM@			; `string'
PUBLIC	??_C@_0EB@DAOJOOCO@UltimateWeapon?3?3Load_UltimateWe@ ; `string'
PUBLIC	??_C@_0BM@DMGOPMPC@Ultimate_UltimateWeapon?4txt@ ; `string'
PUBLIC	??_C@_07EPFOICHB@SET_GEM@			; `string'
PUBLIC	??_C@_0L@IDMPNDKM@REMOVE_GEM@			; `string'
PUBLIC	??_C@_0P@HIBHEIJI@GENERAL2UNIQUE@		; `string'
PUBLIC	??_C@_0BA@OLEDFDG@UNIQUE2ULTIMATE@		; `string'
PUBLIC	??_C@_08EFIDDBND@MAKE_GEM@			; `string'
PUBLIC	??_C@_0BB@LFPKPKBP@ULTIMATE_ENCHANT@		; `string'
PUBLIC	??_C@_01JOAMLHOP@?9@				; `string'
PUBLIC	??_C@_0BB@DGKKMOLK@ULTIMATE_MAKEGEM@		; `string'
PUBLIC	??_C@_0BJ@IPGEIBKP@ULTIMATE_MAKEGEM_SUCCESS@	; `string'
PUBLIC	??_C@_0BI@EJIMCPBH@ULTIMATE_MAKEGEM_FAILED@	; `string'
PUBLIC	??_C@_0BC@OJCMHJFC@ULTIMATE_PIERCING@		; `string'
PUBLIC	??_C@_0BK@PJMPNBBI@ULTIMATE_PIERCING_SUCCESS@	; `string'
PUBLIC	??_C@_0BJ@DOJNAIFH@ULTIMATE_PIERCING_FAILED@	; `string'
PUBLIC	??_C@_0BJ@NGNDNHNK@ULTIMATE_PIERCING_REMOVE@	; `string'
PUBLIC	??_C@_0BN@NGFCJDLO@ULTIMATE_PIERCING_REMOVE_SUC@ ; `string'
PUBLIC	??_C@_0BO@KCPJBPN@ULTIMATE_PIERCING_REMOVE_FAIL@ ; `string'
PUBLIC	??_C@_0BC@DHNDBODH@ULTIMATE_MAKEITEM@		; `string'
PUBLIC	??_C@_0BK@PNNEGHFI@ULTIMATE_MAKEITEM_SUCCESS@	; `string'
PUBLIC	??_C@_07JKKJPOP@UNIQUE_@			; `string'
PUBLIC	??_C@_09KCFJBJAO@ULTIMATE_@			; `string'
PUBLIC	??_C@_01FDFGLJHB@2@				; `string'
PUBLIC	??_C@_05FDMLBJBD@TRANS@				; `string'
PUBLIC	??_C@_0O@MGHIGEAB@TRANS_SUCCESS@		; `string'
PUBLIC	??_C@_0N@DMCOMMPB@TRANS_FAILED@			; `string'
PUBLIC	??_C@_0O@HLDFODDC@TRANS_PROTECT@		; `string'
PUBLIC	??_C@_0BJ@MLCNCLLD@ULTIMATE_ENCHANT_SUCCESS@	; `string'
PUBLIC	??_C@_0BJ@HGGAKMIA@ULTIMATE_ENCHANT_PROTECT@	; `string'
PUBLIC	??_C@_0BI@EALEAHL@ULTIMATE_ENCHANT_FAILED@	; `string'
PUBLIC	??_C@_0BJ@DFCEOGGG@ULTIMATE_ENC_SMELTSAFETY@	; `string'
PUBLIC	??_C@_01HIHLOKLC@1@				; `string'
PUBLIC	??_C@_0BO@MILNHMHC@ULTIMATE_ENC_FAIL_SMELTSAFETY@ ; `string'
PUBLIC	??_C@_0BN@JLMGDFNO@ULTIMATE_ENC_SUC_SMELTSAFETY@ ; `string'
PUBLIC	??_C@_0N@GELFDHNG@CONTAINER?1?10@		; `string'
PUBLIC	??_R4CUltimateWeapon@@6B@			; CUltimateWeapon::`RTTI Complete Object Locator'
PUBLIC	??_R0?AVCUltimateWeapon@@@8			; CUltimateWeapon `RTTI Type Descriptor'
PUBLIC	??_R3CUltimateWeapon@@8				; CUltimateWeapon::`RTTI Class Hierarchy Descriptor'
PUBLIC	??_R2CUltimateWeapon@@8				; CUltimateWeapon::`RTTI Base Class Array'
PUBLIC	??_R1A@?0A@EA@CUltimateWeapon@@8		; CUltimateWeapon::`RTTI Base Class Descriptor at (0,-1,0,64)'
EXTRN	??2@YAPAXI@Z:PROC				; operator new
EXTRN	??3@YAXPAXI@Z:PROC				; operator delete
EXTRN	__invalid_parameter_noinfo:PROC
EXTRN	__invoke_watson:PROC
EXTRN	__errno:PROC
EXTRN	__imp__LoadResource@8:PROC
EXTRN	__imp__LockResource@4:PROC
EXTRN	__imp__SizeofResource@8:PROC
EXTRN	__imp__FindResourceW@12:PROC
EXTRN	__imp__WideCharToMultiByte@32:PROC
EXTRN	__mbscmp:PROC
EXTRN	_atoi:PROC
EXTRN	?AfxThrowMemoryException@@YGXXZ:PROC		; AfxThrowMemoryException
EXTRN	?AfxThrowOleException@@YGXJ@Z:PROC		; AfxThrowOleException
EXTRN	?AfxFindStringResourceHandle@@YGPAUHINSTANCE__@@I@Z:PROC ; AfxFindStringResourceHandle
EXTRN	?AfxGetStringManager@@YGPAUIAtlStringMgr@ATL@@XZ:PROC ; AfxGetStringManager
EXTRN	___std_exception_copy:PROC
EXTRN	___std_exception_destroy:PROC
EXTRN	??_Eexception@std@@UAEPAXI@Z:PROC		; std::exception::`vector deleting destructor'
EXTRN	??_Ebad_alloc@std@@UAEPAXI@Z:PROC		; std::bad_alloc::`vector deleting destructor'
EXTRN	??_Ebad_array_new_length@std@@UAEPAXI@Z:PROC	; std::bad_array_new_length::`vector deleting destructor'
EXTRN	?_Xlength_error@std@@YAXPBD@Z:PROC		; std::_Xlength_error
EXTRN	?WriteError@@YAXPBDZZ:PROC			; WriteError
EXTRN	??0CScanner@@QAE@H@Z:PROC			; CScanner::CScanner
EXTRN	??1CScanner@@UAE@XZ:PROC			; CScanner::~CScanner
EXTRN	?GetToken@CScanner@@UAEHH@Z:PROC		; CScanner::GetToken
EXTRN	?Load@CScanner@@QAEHPBDH@Z:PROC			; CScanner::Load
EXTRN	?GetNumber@CScanner@@QAEHH@Z:PROC		; CScanner::GetNumber
EXTRN	?GetDefineNum@CScript@@SAHPBD@Z:PROC		; CScript::GetDefineNum
EXTRN	?Error@@YAPBDPBDZZ:PROC				; Error
EXTRN	??_ECUltimateWeapon@@UAEPAXI@Z:PROC		; CUltimateWeapon::`vector deleting destructor'
EXTRN	?GetUltimatePiercingSize@CPiercing@@QAEHXZ:PROC	; CPiercing::GetUltimatePiercingSize
EXTRN	?GetUltimatePiercingItem@CPiercing@@QAEKH@Z:PROC ; CPiercing::GetUltimatePiercingItem
EXTRN	?SetSerialNumber@CItemBase@@QAEXXZ:PROC		; CItemBase::SetSerialNumber
EXTRN	??0CItemElem@@QAE@XZ:PROC			; CItemElem::CItemElem
EXTRN	??1CItemElem@@UAE@XZ:PROC			; CItemElem::~CItemElem
EXTRN	?IsUsableItem@@YAHPAVCItemBase@@@Z:PROC		; IsUsableItem
EXTRN	?GetBuffByIk3@CBuffMgr@@QAEPAVIBuff@@K@Z:PROC	; CBuffMgr::GetBuffByIk3
EXTRN	?HasBuff@CMover@@QAEHGG@Z:PROC			; CMover::HasBuff
EXTRN	?RemoveBuff@CMover@@QAEXGG@Z:PROC		; CMover::RemoveBuff
EXTRN	?HasBuffByIk3@CMover@@QAEHK@Z:PROC		; CMover::HasBuffByIk3
EXTRN	?SetDestParam@CMover@@QAEXHHHH@Z:PROC		; CMover::SetDestParam
EXTRN	?ResetDestParam@CMover@@QAEXHHH@Z:PROC		; CMover::ResetDestParam
EXTRN	?GetAdjParam@CMover@@QAEHH@Z:PROC		; CMover::GetAdjParam
EXTRN	?GetName@CMover@@QAEPBDH@Z:PROC			; CMover::GetName
EXTRN	?UpdateItem@CMover@@QAEXEDKK@Z:PROC		; CMover::UpdateItem
EXTRN	?CreateItem@CMover@@QAEHPAVCItemBase@@PAEPAFE@Z:PROC ; CMover::CreateItem
EXTRN	?RemoveItem@CMover@@QAEXEF@Z:PROC		; CMover::RemoveItem
EXTRN	?AddDefinedText@CUser@@QAAXHPBDZZ:PROC		; CUser::AddDefinedText
EXTRN	?AddPlaySound@CUser@@QAEXK@Z:PROC		; CUser::AddPlaySound
EXTRN	?AddCreateSfxObj@CUserMng@@QAEXPAVCCtrl@@KMMMH@Z:PROC ; CUserMng::AddCreateSfxObj
EXTRN	?OnLogItem@CDPSrvr@@QAEXAAU_LogItemInfo@@PAVCItemElem@@H@Z:PROC ; CDPSrvr::OnLogItem
EXTRN	?SendLogSMItemUse@CDPDatabaseClient@@QAEXPBDPAVCUser@@PAVCItemElem@@PAUItemProp@@0@Z:PROC ; CDPDatabaseClient::SendLogSMItemUse
EXTRN	@__security_check_cookie@4:PROC
EXTRN	__CxxThrowException@8:PROC
EXTRN	___CxxFrameHandler3:PROC
EXTRN	_memcpy:PROC
EXTRN	_memmove:PROC
EXTRN	_memset:PROC
EXTRN	??_7type_info@@6B@:QWORD			; type_info::`vftable'
EXTRN	?g_next@@3KA:DWORD				; g_next
EXTRN	?prj@@3VCProject@@A:BYTE			; prj
EXTRN	?g_UserMng@@3VCUserMng@@A:BYTE			; g_UserMng
EXTRN	?g_DPSrvr@@3VCDPSrvr@@A:BYTE			; g_DPSrvr
EXTRN	?g_dpDBClient@@3VCDPDatabaseClient@@A:BYTE	; g_dpDBClient
EXTRN	___security_cookie:DWORD
EXTRN	__fltused:DWORD
;	COMDAT ??_R1A@?0A@EA@CUltimateWeapon@@8
rdata$r	SEGMENT
??_R1A@?0A@EA@CUltimateWeapon@@8 DD FLAT:??_R0?AVCUltimateWeapon@@@8 ; CUltimateWeapon::`RTTI Base Class Descriptor at (0,-1,0,64)'
	DD	00H
	DD	00H
	DD	0ffffffffH
	DD	00H
	DD	040H
	DD	FLAT:??_R3CUltimateWeapon@@8
rdata$r	ENDS
;	COMDAT ??_R2CUltimateWeapon@@8
rdata$r	SEGMENT
??_R2CUltimateWeapon@@8 DD FLAT:??_R1A@?0A@EA@CUltimateWeapon@@8 ; CUltimateWeapon::`RTTI Base Class Array'
rdata$r	ENDS
;	COMDAT ??_R3CUltimateWeapon@@8
rdata$r	SEGMENT
??_R3CUltimateWeapon@@8 DD 00H				; CUltimateWeapon::`RTTI Class Hierarchy Descriptor'
	DD	00H
	DD	01H
	DD	FLAT:??_R2CUltimateWeapon@@8
rdata$r	ENDS
;	COMDAT ??_R0?AVCUltimateWeapon@@@8
data$rs	SEGMENT
??_R0?AVCUltimateWeapon@@@8 DD FLAT:??_7type_info@@6B@	; CUltimateWeapon `RTTI Type Descriptor'
	DD	00H
	DB	'.?AVCUltimateWeapon@@', 00H
data$rs	ENDS
;	COMDAT ??_R4CUltimateWeapon@@6B@
rdata$r	SEGMENT
??_R4CUltimateWeapon@@6B@ DD 00H			; CUltimateWeapon::`RTTI Complete Object Locator'
	DD	00H
	DD	00H
	DD	FLAT:??_R0?AVCUltimateWeapon@@@8
	DD	FLAT:??_R3CUltimateWeapon@@8
rdata$r	ENDS
;	COMDAT ??_C@_0N@GELFDHNG@CONTAINER?1?10@
CONST	SEGMENT
??_C@_0N@GELFDHNG@CONTAINER?1?10@ DB 'CONTAINER//0', 00H ; `string'
CONST	ENDS
;	COMDAT ??_C@_0BN@JLMGDFNO@ULTIMATE_ENC_SUC_SMELTSAFETY@
CONST	SEGMENT
??_C@_0BN@JLMGDFNO@ULTIMATE_ENC_SUC_SMELTSAFETY@ DB 'ULTIMATE_ENC_SUC_SME'
	DB	'LTSAFETY', 00H				; `string'
CONST	ENDS
;	COMDAT ??_C@_0BO@MILNHMHC@ULTIMATE_ENC_FAIL_SMELTSAFETY@
CONST	SEGMENT
??_C@_0BO@MILNHMHC@ULTIMATE_ENC_FAIL_SMELTSAFETY@ DB 'ULTIMATE_ENC_FAIL_S'
	DB	'MELTSAFETY', 00H				; `string'
CONST	ENDS
;	COMDAT ??_C@_01HIHLOKLC@1@
CONST	SEGMENT
??_C@_01HIHLOKLC@1@ DB '1', 00H				; `string'
CONST	ENDS
;	COMDAT ??_C@_0BJ@DFCEOGGG@ULTIMATE_ENC_SMELTSAFETY@
CONST	SEGMENT
??_C@_0BJ@DFCEOGGG@ULTIMATE_ENC_SMELTSAFETY@ DB 'ULTIMATE_ENC_SMELTSAFETY'
	DB	00H						; `string'
CONST	ENDS
;	COMDAT ??_C@_0BI@EALEAHL@ULTIMATE_ENCHANT_FAILED@
CONST	SEGMENT
??_C@_0BI@EALEAHL@ULTIMATE_ENCHANT_FAILED@ DB 'ULTIMATE_ENCHANT_FAILED', 00H ; `string'
CONST	ENDS
;	COMDAT ??_C@_0BJ@HGGAKMIA@ULTIMATE_ENCHANT_PROTECT@
CONST	SEGMENT
??_C@_0BJ@HGGAKMIA@ULTIMATE_ENCHANT_PROTECT@ DB 'ULTIMATE_ENCHANT_PROTECT'
	DB	00H						; `string'
CONST	ENDS
;	COMDAT ??_C@_0BJ@MLCNCLLD@ULTIMATE_ENCHANT_SUCCESS@
CONST	SEGMENT
??_C@_0BJ@MLCNCLLD@ULTIMATE_ENCHANT_SUCCESS@ DB 'ULTIMATE_ENCHANT_SUCCESS'
	DB	00H						; `string'
CONST	ENDS
;	COMDAT ??_C@_0O@HLDFODDC@TRANS_PROTECT@
CONST	SEGMENT
??_C@_0O@HLDFODDC@TRANS_PROTECT@ DB 'TRANS_PROTECT', 00H ; `string'
CONST	ENDS
;	COMDAT ??_C@_0N@DMCOMMPB@TRANS_FAILED@
CONST	SEGMENT
??_C@_0N@DMCOMMPB@TRANS_FAILED@ DB 'TRANS_FAILED', 00H	; `string'
CONST	ENDS
;	COMDAT ??_C@_0O@MGHIGEAB@TRANS_SUCCESS@
CONST	SEGMENT
??_C@_0O@MGHIGEAB@TRANS_SUCCESS@ DB 'TRANS_SUCCESS', 00H ; `string'
CONST	ENDS
;	COMDAT ??_C@_05FDMLBJBD@TRANS@
CONST	SEGMENT
??_C@_05FDMLBJBD@TRANS@ DB 'TRANS', 00H			; `string'
CONST	ENDS
;	COMDAT ??_C@_01FDFGLJHB@2@
CONST	SEGMENT
??_C@_01FDFGLJHB@2@ DB '2', 00H				; `string'
CONST	ENDS
;	COMDAT ??_C@_09KCFJBJAO@ULTIMATE_@
CONST	SEGMENT
??_C@_09KCFJBJAO@ULTIMATE_@ DB 'ULTIMATE_', 00H		; `string'
CONST	ENDS
;	COMDAT ??_C@_07JKKJPOP@UNIQUE_@
CONST	SEGMENT
??_C@_07JKKJPOP@UNIQUE_@ DB 'UNIQUE_', 00H		; `string'
CONST	ENDS
;	COMDAT ??_C@_0BK@PNNEGHFI@ULTIMATE_MAKEITEM_SUCCESS@
CONST	SEGMENT
??_C@_0BK@PNNEGHFI@ULTIMATE_MAKEITEM_SUCCESS@ DB 'ULTIMATE_MAKEITEM_SUCCE'
	DB	'SS', 00H					; `string'
CONST	ENDS
;	COMDAT ??_C@_0BC@DHNDBODH@ULTIMATE_MAKEITEM@
CONST	SEGMENT
??_C@_0BC@DHNDBODH@ULTIMATE_MAKEITEM@ DB 'ULTIMATE_MAKEITEM', 00H ; `string'
CONST	ENDS
;	COMDAT ??_C@_0BO@KCPJBPN@ULTIMATE_PIERCING_REMOVE_FAIL@
CONST	SEGMENT
??_C@_0BO@KCPJBPN@ULTIMATE_PIERCING_REMOVE_FAIL@ DB 'ULTIMATE_PIERCING_RE'
	DB	'MOVE_FAIL', 00H				; `string'
CONST	ENDS
;	COMDAT ??_C@_0BN@NGFCJDLO@ULTIMATE_PIERCING_REMOVE_SUC@
CONST	SEGMENT
??_C@_0BN@NGFCJDLO@ULTIMATE_PIERCING_REMOVE_SUC@ DB 'ULTIMATE_PIERCING_RE'
	DB	'MOVE_SUC', 00H				; `string'
CONST	ENDS
;	COMDAT ??_C@_0BJ@NGNDNHNK@ULTIMATE_PIERCING_REMOVE@
CONST	SEGMENT
??_C@_0BJ@NGNDNHNK@ULTIMATE_PIERCING_REMOVE@ DB 'ULTIMATE_PIERCING_REMOVE'
	DB	00H						; `string'
CONST	ENDS
;	COMDAT ??_C@_0BJ@DOJNAIFH@ULTIMATE_PIERCING_FAILED@
CONST	SEGMENT
??_C@_0BJ@DOJNAIFH@ULTIMATE_PIERCING_FAILED@ DB 'ULTIMATE_PIERCING_FAILED'
	DB	00H						; `string'
CONST	ENDS
;	COMDAT ??_C@_0BK@PJMPNBBI@ULTIMATE_PIERCING_SUCCESS@
CONST	SEGMENT
??_C@_0BK@PJMPNBBI@ULTIMATE_PIERCING_SUCCESS@ DB 'ULTIMATE_PIERCING_SUCCE'
	DB	'SS', 00H					; `string'
CONST	ENDS
;	COMDAT ??_C@_0BC@OJCMHJFC@ULTIMATE_PIERCING@
CONST	SEGMENT
??_C@_0BC@OJCMHJFC@ULTIMATE_PIERCING@ DB 'ULTIMATE_PIERCING', 00H ; `string'
CONST	ENDS
;	COMDAT ??_C@_0BI@EJIMCPBH@ULTIMATE_MAKEGEM_FAILED@
CONST	SEGMENT
??_C@_0BI@EJIMCPBH@ULTIMATE_MAKEGEM_FAILED@ DB 'ULTIMATE_MAKEGEM_FAILED', 00H ; `string'
CONST	ENDS
;	COMDAT ??_C@_0BJ@IPGEIBKP@ULTIMATE_MAKEGEM_SUCCESS@
CONST	SEGMENT
??_C@_0BJ@IPGEIBKP@ULTIMATE_MAKEGEM_SUCCESS@ DB 'ULTIMATE_MAKEGEM_SUCCESS'
	DB	00H						; `string'
CONST	ENDS
;	COMDAT ??_C@_0BB@DGKKMOLK@ULTIMATE_MAKEGEM@
CONST	SEGMENT
??_C@_0BB@DGKKMOLK@ULTIMATE_MAKEGEM@ DB 'ULTIMATE_MAKEGEM', 00H ; `string'
CONST	ENDS
;	COMDAT ??_C@_01JOAMLHOP@?9@
CONST	SEGMENT
??_C@_01JOAMLHOP@?9@ DB '-', 00H			; `string'
CONST	ENDS
;	COMDAT ??_C@_0BB@LFPKPKBP@ULTIMATE_ENCHANT@
CONST	SEGMENT
??_C@_0BB@LFPKPKBP@ULTIMATE_ENCHANT@ DB 'ULTIMATE_ENCHANT', 00H ; `string'
CONST	ENDS
;	COMDAT ??_C@_08EFIDDBND@MAKE_GEM@
CONST	SEGMENT
??_C@_08EFIDDBND@MAKE_GEM@ DB 'MAKE_GEM', 00H		; `string'
CONST	ENDS
;	COMDAT ??_C@_0BA@OLEDFDG@UNIQUE2ULTIMATE@
CONST	SEGMENT
??_C@_0BA@OLEDFDG@UNIQUE2ULTIMATE@ DB 'UNIQUE2ULTIMATE', 00H ; `string'
CONST	ENDS
;	COMDAT ??_C@_0P@HIBHEIJI@GENERAL2UNIQUE@
CONST	SEGMENT
??_C@_0P@HIBHEIJI@GENERAL2UNIQUE@ DB 'GENERAL2UNIQUE', 00H ; `string'
CONST	ENDS
;	COMDAT ??_C@_0L@IDMPNDKM@REMOVE_GEM@
CONST	SEGMENT
??_C@_0L@IDMPNDKM@REMOVE_GEM@ DB 'REMOVE_GEM', 00H	; `string'
CONST	ENDS
;	COMDAT ??_C@_07EPFOICHB@SET_GEM@
CONST	SEGMENT
??_C@_07EPFOICHB@SET_GEM@ DB 'SET_GEM', 00H		; `string'
CONST	ENDS
;	COMDAT ??_C@_0BM@DMGOPMPC@Ultimate_UltimateWeapon?4txt@
CONST	SEGMENT
??_C@_0BM@DMGOPMPC@Ultimate_UltimateWeapon?4txt@ DB 'Ultimate_UltimateWea'
	DB	'pon.txt', 00H				; `string'
CONST	ENDS
;	COMDAT ??_C@_0EB@DAOJOOCO@UltimateWeapon?3?3Load_UltimateWe@
CONST	SEGMENT
??_C@_0EB@DAOJOOCO@UltimateWeapon?3?3Load_UltimateWe@ DB 'UltimateWeapon:'
	DB	':Load_UltimateWeapon() ', 0beH, 0c6H, 0c0H, 0ccH, 0c5H, 0dbH, 0c0H
	DB	0ccH, ' ', 0beH, 0f8H, 0b4H, 0c2H, 0b0H, 0cdH, 0c0H, 0bbH, ' ', 0bcH
	DB	0b3H, 0c1H, 0a4H, 0c7H, 0dfH, 0c0H, 0bdH, 00H ; `string'
CONST	ENDS
;	COMDAT ??_C@_09HOBABKJK@LEVEL_GEM@
CONST	SEGMENT
??_C@_09HOBABKJK@LEVEL_GEM@ DB 'LEVEL_GEM', 00H		; `string'
CONST	ENDS
;	COMDAT ??_C@_07PPPKBPJP@ABILITY@
CONST	SEGMENT
??_C@_07PPPKBPJP@ABILITY@ DB 'ABILITY', 00H		; `string'
CONST	ENDS
;	COMDAT ??_C@_0BI@PGNGBLIK@Ultimate_GemAbility?4txt@
CONST	SEGMENT
??_C@_0BI@PGNGBLIK@Ultimate_GemAbility?4txt@ DB 'Ultimate_GemAbility.txt', 00H ; `string'
CONST	ENDS
;	COMDAT ??_R4bad_alloc@std@@6B@
rdata$r	SEGMENT
??_R4bad_alloc@std@@6B@ DD 00H				; std::bad_alloc::`RTTI Complete Object Locator'
	DD	00H
	DD	00H
	DD	FLAT:??_R0?AVbad_alloc@std@@@8
	DD	FLAT:??_R3bad_alloc@std@@8
rdata$r	ENDS
;	COMDAT ??_R2bad_alloc@std@@8
rdata$r	SEGMENT
??_R2bad_alloc@std@@8 DD FLAT:??_R1A@?0A@EA@bad_alloc@std@@8 ; std::bad_alloc::`RTTI Base Class Array'
	DD	FLAT:??_R1A@?0A@EA@exception@std@@8
rdata$r	ENDS
;	COMDAT ??_R3bad_alloc@std@@8
rdata$r	SEGMENT
??_R3bad_alloc@std@@8 DD 00H				; std::bad_alloc::`RTTI Class Hierarchy Descriptor'
	DD	00H
	DD	02H
	DD	FLAT:??_R2bad_alloc@std@@8
rdata$r	ENDS
;	COMDAT ??_R1A@?0A@EA@bad_alloc@std@@8
rdata$r	SEGMENT
??_R1A@?0A@EA@bad_alloc@std@@8 DD FLAT:??_R0?AVbad_alloc@std@@@8 ; std::bad_alloc::`RTTI Base Class Descriptor at (0,-1,0,64)'
	DD	01H
	DD	00H
	DD	0ffffffffH
	DD	00H
	DD	040H
	DD	FLAT:??_R3bad_alloc@std@@8
rdata$r	ENDS
;	COMDAT ??_R1A@?0A@EA@bad_array_new_length@std@@8
rdata$r	SEGMENT
??_R1A@?0A@EA@bad_array_new_length@std@@8 DD FLAT:??_R0?AVbad_array_new_length@std@@@8 ; std::bad_array_new_length::`RTTI Base Class Descriptor at (0,-1,0,64)'
	DD	02H
	DD	00H
	DD	0ffffffffH
	DD	00H
	DD	040H
	DD	FLAT:??_R3bad_array_new_length@std@@8
rdata$r	ENDS
;	COMDAT ??_R2bad_array_new_length@std@@8
rdata$r	SEGMENT
??_R2bad_array_new_length@std@@8 DD FLAT:??_R1A@?0A@EA@bad_array_new_length@std@@8 ; std::bad_array_new_length::`RTTI Base Class Array'
	DD	FLAT:??_R1A@?0A@EA@bad_alloc@std@@8
	DD	FLAT:??_R1A@?0A@EA@exception@std@@8
rdata$r	ENDS
;	COMDAT ??_R3bad_array_new_length@std@@8
rdata$r	SEGMENT
??_R3bad_array_new_length@std@@8 DD 00H			; std::bad_array_new_length::`RTTI Class Hierarchy Descriptor'
	DD	00H
	DD	03H
	DD	FLAT:??_R2bad_array_new_length@std@@8
rdata$r	ENDS
;	COMDAT ??_R4bad_array_new_length@std@@6B@
rdata$r	SEGMENT
??_R4bad_array_new_length@std@@6B@ DD 00H		; std::bad_array_new_length::`RTTI Complete Object Locator'
	DD	00H
	DD	00H
	DD	FLAT:??_R0?AVbad_array_new_length@std@@@8
	DD	FLAT:??_R3bad_array_new_length@std@@8
rdata$r	ENDS
;	COMDAT ??_R1A@?0A@EA@exception@std@@8
rdata$r	SEGMENT
??_R1A@?0A@EA@exception@std@@8 DD FLAT:??_R0?AVexception@std@@@8 ; std::exception::`RTTI Base Class Descriptor at (0,-1,0,64)'
	DD	00H
	DD	00H
	DD	0ffffffffH
	DD	00H
	DD	040H
	DD	FLAT:??_R3exception@std@@8
rdata$r	ENDS
;	COMDAT ??_R2exception@std@@8
rdata$r	SEGMENT
??_R2exception@std@@8 DD FLAT:??_R1A@?0A@EA@exception@std@@8 ; std::exception::`RTTI Base Class Array'
rdata$r	ENDS
;	COMDAT ??_R3exception@std@@8
rdata$r	SEGMENT
??_R3exception@std@@8 DD 00H				; std::exception::`RTTI Class Hierarchy Descriptor'
	DD	00H
	DD	01H
	DD	FLAT:??_R2exception@std@@8
rdata$r	ENDS
;	COMDAT ??_R4exception@std@@6B@
rdata$r	SEGMENT
??_R4exception@std@@6B@ DD 00H				; std::exception::`RTTI Complete Object Locator'
	DD	00H
	DD	00H
	DD	FLAT:??_R0?AVexception@std@@@8
	DD	FLAT:??_R3exception@std@@8
rdata$r	ENDS
;	COMDAT ??_C@_0BA@FOIKENOD@vector?5too?5long@
CONST	SEGMENT
??_C@_0BA@FOIKENOD@vector?5too?5long@ DB 'vector too long', 00H ; `string'
CONST	ENDS
;	COMDAT ??_C@_0BI@BEIFNGEL@GetItemProp?5range_error@
CONST	SEGMENT
??_C@_0BI@BEIFNGEL@GetItemProp?5range_error@ DB 'GetItemProp range_error', 00H ; `string'
CONST	ENDS
;	COMDAT ??_C@_0BM@HMFGHCP@?$CFs?5min?3?$CFd?0?5max?3?$CFd?0?5index?3?$CFd@
CONST	SEGMENT
??_C@_0BM@HMFGHCP@?$CFs?5min?3?$CFd?0?5max?3?$CFd?0?5index?3?$CFd@ DB '%s'
	DB	' min:%d, max:%d, index:%d', 00H		; `string'
CONST	ENDS
;	COMDAT ??_7CUltimateWeapon@@6B@
CONST	SEGMENT
??_7CUltimateWeapon@@6B@ DD FLAT:??_R4CUltimateWeapon@@6B@ ; CUltimateWeapon::`vftable'
	DD	FLAT:??_ECUltimateWeapon@@UAEPAXI@Z
CONST	ENDS
;	COMDAT ??_C@_0BB@GCADKGJO@map?1set?5too?5long@
CONST	SEGMENT
??_C@_0BB@GCADKGJO@map?1set?5too?5long@ DB 'map/set too long', 00H ; `string'
CONST	ENDS
;	COMDAT __CT??_R0?AVbad_alloc@std@@@8??0bad_alloc@std@@QAE@ABV01@@Z12
xdata$x	SEGMENT
__CT??_R0?AVbad_alloc@std@@@8??0bad_alloc@std@@QAE@ABV01@@Z12 DD 010H
	DD	FLAT:??_R0?AVbad_alloc@std@@@8
	DD	00H
	DD	0ffffffffH
	ORG $+4
	DD	0cH
	DD	FLAT:??0bad_alloc@std@@QAE@ABV01@@Z
xdata$x	ENDS
;	COMDAT ??_R0?AVbad_alloc@std@@@8
data$r	SEGMENT
??_R0?AVbad_alloc@std@@@8 DD FLAT:??_7type_info@@6B@	; std::bad_alloc `RTTI Type Descriptor'
	DD	00H
	DB	'.?AVbad_alloc@std@@', 00H
data$r	ENDS
;	COMDAT __CT??_R0?AVbad_array_new_length@std@@@8??0bad_array_new_length@std@@QAE@ABV01@@Z12
xdata$x	SEGMENT
__CT??_R0?AVbad_array_new_length@std@@@8??0bad_array_new_length@std@@QAE@ABV01@@Z12 DD 00H
	DD	FLAT:??_R0?AVbad_array_new_length@std@@@8
	DD	00H
	DD	0ffffffffH
	ORG $+4
	DD	0cH
	DD	FLAT:??0bad_array_new_length@std@@QAE@ABV01@@Z
xdata$x	ENDS
;	COMDAT ??_R0?AVbad_array_new_length@std@@@8
data$r	SEGMENT
??_R0?AVbad_array_new_length@std@@@8 DD FLAT:??_7type_info@@6B@ ; std::bad_array_new_length `RTTI Type Descriptor'
	DD	00H
	DB	'.?AVbad_array_new_length@std@@', 00H
data$r	ENDS
;	COMDAT __CTA3?AVbad_array_new_length@std@@
xdata$x	SEGMENT
__CTA3?AVbad_array_new_length@std@@ DD 03H
	DD	FLAT:__CT??_R0?AVbad_array_new_length@std@@@8??0bad_array_new_length@std@@QAE@ABV01@@Z12
	DD	FLAT:__CT??_R0?AVbad_alloc@std@@@8??0bad_alloc@std@@QAE@ABV01@@Z12
	DD	FLAT:__CT??_R0?AVexception@std@@@8??0exception@std@@QAE@ABV01@@Z12
xdata$x	ENDS
;	COMDAT __TI3?AVbad_array_new_length@std@@
xdata$x	SEGMENT
__TI3?AVbad_array_new_length@std@@ DD 00H
	DD	FLAT:??1bad_array_new_length@std@@UAE@XZ
	DD	00H
	DD	FLAT:__CTA3?AVbad_array_new_length@std@@
xdata$x	ENDS
;	COMDAT __CT??_R0?AVexception@std@@@8??0exception@std@@QAE@ABV01@@Z12
xdata$x	SEGMENT
__CT??_R0?AVexception@std@@@8??0exception@std@@QAE@ABV01@@Z12 DD 00H
	DD	FLAT:??_R0?AVexception@std@@@8
	DD	00H
	DD	0ffffffffH
	ORG $+4
	DD	0cH
	DD	FLAT:??0exception@std@@QAE@ABV01@@Z
xdata$x	ENDS
;	COMDAT ??_R0?AVexception@std@@@8
data$r	SEGMENT
??_R0?AVexception@std@@@8 DD FLAT:??_7type_info@@6B@	; std::exception `RTTI Type Descriptor'
	DD	00H
	DB	'.?AVexception@std@@', 00H
data$r	ENDS
;	COMDAT ??_C@_0BF@KINCDENJ@bad?5array?5new?5length@
CONST	SEGMENT
??_C@_0BF@KINCDENJ@bad?5array?5new?5length@ DB 'bad array new length', 00H ; `string'
CONST	ENDS
;	COMDAT ??_7bad_array_new_length@std@@6B@
CONST	SEGMENT
??_7bad_array_new_length@std@@6B@ DD FLAT:??_R4bad_array_new_length@std@@6B@ ; std::bad_array_new_length::`vftable'
	DD	FLAT:??_Ebad_array_new_length@std@@UAEPAXI@Z
	DD	FLAT:?what@exception@std@@UBEPBDXZ
CONST	ENDS
;	COMDAT ??_7bad_alloc@std@@6B@
CONST	SEGMENT
??_7bad_alloc@std@@6B@ DD FLAT:??_R4bad_alloc@std@@6B@	; std::bad_alloc::`vftable'
	DD	FLAT:??_Ebad_alloc@std@@UAEPAXI@Z
	DD	FLAT:?what@exception@std@@UBEPBDXZ
CONST	ENDS
;	COMDAT ??_C@_0BC@EOODALEL@Unknown?5exception@
CONST	SEGMENT
??_C@_0BC@EOODALEL@Unknown?5exception@ DB 'Unknown exception', 00H ; `string'
CONST	ENDS
;	COMDAT ??_7exception@std@@6B@
CONST	SEGMENT
??_7exception@std@@6B@ DD FLAT:??_R4exception@std@@6B@	; std::exception::`vftable'
	DD	FLAT:??_Eexception@std@@UAEPAXI@Z
	DD	FLAT:?what@exception@std@@UBEPBDXZ
CONST	ENDS
;	COMDAT ??_C@_00CNPNBAHC@@
CONST	SEGMENT
??_C@_00CNPNBAHC@@ DB 00H				; `string'
CONST	ENDS
;	COMDAT xdata$x
xdata$x	SEGMENT
__unwindtable$??$_Uninitialized_copy@PAU__GEMABILITY@CUltimateWeapon@@PAU12@V?$allocator@U__GEMABILITY@CUltimateWeapon@@@std@@@std@@YAPAU__GEMABILITY@CUltimateWeapon@@PAU12@00AAV?$allocator@U__GEMABILITY@CUltimateWeapon@@@0@@Z DD 0ffffffffH
	DD	FLAT:__unwindfunclet$??$_Uninitialized_copy@PAU__GEMABILITY@CUltimateWeapon@@PAU12@V?$allocator@U__GEMABILITY@CUltimateWeapon@@@std@@@std@@YAPAU__GEMABILITY@CUltimateWeapon@@PAU12@00AAV?$allocator@U__GEMABILITY@CUltimateWeapon@@@0@@Z$0
__ehfuncinfo$??$_Uninitialized_copy@PAU__GEMABILITY@CUltimateWeapon@@PAU12@V?$allocator@U__GEMABILITY@CUltimateWeapon@@@std@@@std@@YAPAU__GEMABILITY@CUltimateWeapon@@PAU12@00AAV?$allocator@U__GEMABILITY@CUltimateWeapon@@@0@@Z DD 019930522H
	DD	01H
	DD	FLAT:__unwindtable$??$_Uninitialized_copy@PAU__GEMABILITY@CUltimateWeapon@@PAU12@V?$allocator@U__GEMABILITY@CUltimateWeapon@@@std@@@std@@YAPAU__GEMABILITY@CUltimateWeapon@@PAU12@00AAV?$allocator@U__GEMABILITY@CUltimateWeapon@@@0@@Z
	DD	2 DUP(00H)
	DD	2 DUP(00H)
	DD	00H
	DD	01H
xdata$x	ENDS
;	COMDAT xdata$x
xdata$x	SEGMENT
__unwindtable$??$_Construct_n@ABQAU__GEMABILITY@CUltimateWeapon@@ABQAU12@@?$vector@U__GEMABILITY@CUltimateWeapon@@V?$allocator@U__GEMABILITY@CUltimateWeapon@@@std@@@std@@AAEXIABQAU__GEMABILITY@CUltimateWeapon@@0@Z DD 0ffffffffH
	DD	FLAT:__unwindfunclet$??$_Construct_n@ABQAU__GEMABILITY@CUltimateWeapon@@ABQAU12@@?$vector@U__GEMABILITY@CUltimateWeapon@@V?$allocator@U__GEMABILITY@CUltimateWeapon@@@std@@@std@@AAEXIABQAU__GEMABILITY@CUltimateWeapon@@0@Z$0
	DD	00H
	DD	FLAT:__unwindfunclet$??$_Construct_n@ABQAU__GEMABILITY@CUltimateWeapon@@ABQAU12@@?$vector@U__GEMABILITY@CUltimateWeapon@@V?$allocator@U__GEMABILITY@CUltimateWeapon@@@std@@@std@@AAEXIABQAU__GEMABILITY@CUltimateWeapon@@0@Z$1
__ehfuncinfo$??$_Construct_n@ABQAU__GEMABILITY@CUltimateWeapon@@ABQAU12@@?$vector@U__GEMABILITY@CUltimateWeapon@@V?$allocator@U__GEMABILITY@CUltimateWeapon@@@std@@@std@@AAEXIABQAU__GEMABILITY@CUltimateWeapon@@0@Z DD 019930522H
	DD	02H
	DD	FLAT:__unwindtable$??$_Construct_n@ABQAU__GEMABILITY@CUltimateWeapon@@ABQAU12@@?$vector@U__GEMABILITY@CUltimateWeapon@@V?$allocator@U__GEMABILITY@CUltimateWeapon@@@std@@@std@@AAEXIABQAU__GEMABILITY@CUltimateWeapon@@0@Z
	DD	2 DUP(00H)
	DD	2 DUP(00H)
	DD	00H
	DD	01H
xdata$x	ENDS
;	COMDAT xdata$x
xdata$x	SEGMENT
__unwindtable$??$construct@U__GEMABILITYKIND@CUltimateWeapon@@ABU12@@?$_Default_allocator_traits@V?$allocator@U__GEMABILITYKIND@CUltimateWeapon@@@std@@@std@@SAXAAV?$allocator@U__GEMABILITYKIND@CUltimateWeapon@@@1@QAU__GEMABILITYKIND@CUltimateWeapon@@ABU34@@Z DD 0ffffffffH
	DD	FLAT:__unwindfunclet$??$construct@U__GEMABILITYKIND@CUltimateWeapon@@ABU12@@?$_Default_allocator_traits@V?$allocator@U__GEMABILITYKIND@CUltimateWeapon@@@std@@@std@@SAXAAV?$allocator@U__GEMABILITYKIND@CUltimateWeapon@@@1@QAU__GEMABILITYKIND@CUltimateWeapon@@ABU34@@Z$1
	DD	00H
	DD	FLAT:__unwindfunclet$??$construct@U__GEMABILITYKIND@CUltimateWeapon@@ABU12@@?$_Default_allocator_traits@V?$allocator@U__GEMABILITYKIND@CUltimateWeapon@@@std@@@std@@SAXAAV?$allocator@U__GEMABILITYKIND@CUltimateWeapon@@@1@QAU__GEMABILITYKIND@CUltimateWeapon@@ABU34@@Z$2
__ehfuncinfo$??$construct@U__GEMABILITYKIND@CUltimateWeapon@@ABU12@@?$_Default_allocator_traits@V?$allocator@U__GEMABILITYKIND@CUltimateWeapon@@@std@@@std@@SAXAAV?$allocator@U__GEMABILITYKIND@CUltimateWeapon@@@1@QAU__GEMABILITYKIND@CUltimateWeapon@@ABU34@@Z DD 019930522H
	DD	02H
	DD	FLAT:__unwindtable$??$construct@U__GEMABILITYKIND@CUltimateWeapon@@ABU12@@?$_Default_allocator_traits@V?$allocator@U__GEMABILITYKIND@CUltimateWeapon@@@std@@@std@@SAXAAV?$allocator@U__GEMABILITYKIND@CUltimateWeapon@@@1@QAU__GEMABILITYKIND@CUltimateWeapon@@ABU34@@Z
	DD	2 DUP(00H)
	DD	2 DUP(00H)
	DD	00H
	DD	01H
xdata$x	ENDS
;	COMDAT xdata$x
xdata$x	SEGMENT
__unwindtable$??$_Emplace_reallocate@ABU__GEMABILITY@CUltimateWeapon@@@?$vector@U__GEMABILITY@CUltimateWeapon@@V?$allocator@U__GEMABILITY@CUltimateWeapon@@@std@@@std@@AAEPAU__GEMABILITY@CUltimateWeapon@@QAU23@ABU23@@Z DD 0ffffffffH
	DD	FLAT:__unwindfunclet$??$_Emplace_reallocate@ABU__GEMABILITY@CUltimateWeapon@@@?$vector@U__GEMABILITY@CUltimateWeapon@@V?$allocator@U__GEMABILITY@CUltimateWeapon@@@std@@@std@@AAEPAU__GEMABILITY@CUltimateWeapon@@QAU23@ABU23@@Z$0
__ehfuncinfo$??$_Emplace_reallocate@ABU__GEMABILITY@CUltimateWeapon@@@?$vector@U__GEMABILITY@CUltimateWeapon@@V?$allocator@U__GEMABILITY@CUltimateWeapon@@@std@@@std@@AAEPAU__GEMABILITY@CUltimateWeapon@@QAU23@ABU23@@Z DD 019930522H
	DD	01H
	DD	FLAT:__unwindtable$??$_Emplace_reallocate@ABU__GEMABILITY@CUltimateWeapon@@@?$vector@U__GEMABILITY@CUltimateWeapon@@V?$allocator@U__GEMABILITY@CUltimateWeapon@@@std@@@std@@AAEPAU__GEMABILITY@CUltimateWeapon@@QAU23@ABU23@@Z
	DD	2 DUP(00H)
	DD	2 DUP(00H)
	DD	00H
	DD	01H
xdata$x	ENDS
;	COMDAT xdata$x
xdata$x	SEGMENT
__unwindtable$??$_Uninitialized_copy_n@PAU__GEMABILITY@CUltimateWeapon@@V?$allocator@U__GEMABILITY@CUltimateWeapon@@@std@@@std@@YAPAU__GEMABILITY@CUltimateWeapon@@PAU12@I0AAV?$allocator@U__GEMABILITY@CUltimateWeapon@@@0@@Z DD 0ffffffffH
	DD	FLAT:__unwindfunclet$??$_Uninitialized_copy_n@PAU__GEMABILITY@CUltimateWeapon@@V?$allocator@U__GEMABILITY@CUltimateWeapon@@@std@@@std@@YAPAU__GEMABILITY@CUltimateWeapon@@PAU12@I0AAV?$allocator@U__GEMABILITY@CUltimateWeapon@@@0@@Z$0
__ehfuncinfo$??$_Uninitialized_copy_n@PAU__GEMABILITY@CUltimateWeapon@@V?$allocator@U__GEMABILITY@CUltimateWeapon@@@std@@@std@@YAPAU__GEMABILITY@CUltimateWeapon@@PAU12@I0AAV?$allocator@U__GEMABILITY@CUltimateWeapon@@@0@@Z DD 019930522H
	DD	01H
	DD	FLAT:__unwindtable$??$_Uninitialized_copy_n@PAU__GEMABILITY@CUltimateWeapon@@V?$allocator@U__GEMABILITY@CUltimateWeapon@@@std@@@std@@YAPAU__GEMABILITY@CUltimateWeapon@@PAU12@I0AAV?$allocator@U__GEMABILITY@CUltimateWeapon@@@0@@Z
	DD	2 DUP(00H)
	DD	2 DUP(00H)
	DD	00H
	DD	01H
xdata$x	ENDS
;	COMDAT xdata$x
xdata$x	SEGMENT
__unwindtable$??$_Emplace_reallocate@ABU__GEMABILITYKIND@CUltimateWeapon@@@?$vector@U__GEMABILITYKIND@CUltimateWeapon@@V?$allocator@U__GEMABILITYKIND@CUltimateWeapon@@@std@@@std@@AAEPAU__GEMABILITYKIND@CUltimateWeapon@@QAU23@ABU23@@Z DD 0ffffffffH
	DD	FLAT:__unwindfunclet$??$_Emplace_reallocate@ABU__GEMABILITYKIND@CUltimateWeapon@@@?$vector@U__GEMABILITYKIND@CUltimateWeapon@@V?$allocator@U__GEMABILITYKIND@CUltimateWeapon@@@std@@@std@@AAEPAU__GEMABILITYKIND@CUltimateWeapon@@QAU23@ABU23@@Z$0
__ehfuncinfo$??$_Emplace_reallocate@ABU__GEMABILITYKIND@CUltimateWeapon@@@?$vector@U__GEMABILITYKIND@CUltimateWeapon@@V?$allocator@U__GEMABILITYKIND@CUltimateWeapon@@@std@@@std@@AAEPAU__GEMABILITYKIND@CUltimateWeapon@@QAU23@ABU23@@Z DD 019930522H
	DD	01H
	DD	FLAT:__unwindtable$??$_Emplace_reallocate@ABU__GEMABILITYKIND@CUltimateWeapon@@@?$vector@U__GEMABILITYKIND@CUltimateWeapon@@V?$allocator@U__GEMABILITYKIND@CUltimateWeapon@@@std@@@std@@AAEPAU__GEMABILITYKIND@CUltimateWeapon@@QAU23@ABU23@@Z
	DD	2 DUP(00H)
	DD	2 DUP(00H)
	DD	00H
	DD	01H
xdata$x	ENDS
;	COMDAT xdata$x
xdata$x	SEGMENT
__unwindtable$??$?0U?$pair@$$CBKH@std@@@?$_Tree_temp_node@V?$allocator@U?$_Tree_node@U?$pair@$$CBKH@std@@PAX@std@@@std@@@std@@QAE@AAV?$allocator@U?$_Tree_node@U?$pair@$$CBKH@std@@PAX@std@@@1@PAU?$_Tree_node@U?$pair@$$CBKH@std@@PAX@1@$$QAU?$pair@$$CBKH@1@@Z DD 0ffffffffH
	DD	FLAT:__unwindfunclet$??$?0U?$pair@$$CBKH@std@@@?$_Tree_temp_node@V?$allocator@U?$_Tree_node@U?$pair@$$CBKH@std@@PAX@std@@@std@@@std@@QAE@AAV?$allocator@U?$_Tree_node@U?$pair@$$CBKH@std@@PAX@std@@@1@PAU?$_Tree_node@U?$pair@$$CBKH@std@@PAX@1@$$QAU?$pair@$$CBKH@1@@Z$1
__ehfuncinfo$??$?0U?$pair@$$CBKH@std@@@?$_Tree_temp_node@V?$allocator@U?$_Tree_node@U?$pair@$$CBKH@std@@PAX@std@@@std@@@std@@QAE@AAV?$allocator@U?$_Tree_node@U?$pair@$$CBKH@std@@PAX@std@@@1@PAU?$_Tree_node@U?$pair@$$CBKH@std@@PAX@1@$$QAU?$pair@$$CBKH@1@@Z DD 019930522H
	DD	01H
	DD	FLAT:__unwindtable$??$?0U?$pair@$$CBKH@std@@@?$_Tree_temp_node@V?$allocator@U?$_Tree_node@U?$pair@$$CBKH@std@@PAX@std@@@std@@@std@@QAE@AAV?$allocator@U?$_Tree_node@U?$pair@$$CBKH@std@@PAX@std@@@1@PAU?$_Tree_node@U?$pair@$$CBKH@std@@PAX@1@$$QAU?$pair@$$CBKH@1@@Z
	DD	2 DUP(00H)
	DD	2 DUP(00H)
	DD	00H
	DD	01H
xdata$x	ENDS
;	COMDAT xdata$x
xdata$x	SEGMENT
__unwindtable$??0?$_Tree_temp_node_alloc@V?$allocator@U?$_Tree_node@U?$pair@$$CBKH@std@@PAX@std@@@std@@@std@@QAE@AAV?$allocator@U?$_Tree_node@U?$pair@$$CBKH@std@@PAX@std@@@1@@Z DD 0ffffffffH
	DD	FLAT:__unwindfunclet$??0?$_Tree_temp_node_alloc@V?$allocator@U?$_Tree_node@U?$pair@$$CBKH@std@@PAX@std@@@std@@@std@@QAE@AAV?$allocator@U?$_Tree_node@U?$pair@$$CBKH@std@@PAX@std@@@1@@Z$0
__ehfuncinfo$??0?$_Tree_temp_node_alloc@V?$allocator@U?$_Tree_node@U?$pair@$$CBKH@std@@PAX@std@@@std@@@std@@QAE@AAV?$allocator@U?$_Tree_node@U?$pair@$$CBKH@std@@PAX@std@@@1@@Z DD 019930522H
	DD	01H
	DD	FLAT:__unwindtable$??0?$_Tree_temp_node_alloc@V?$allocator@U?$_Tree_node@U?$pair@$$CBKH@std@@PAX@std@@@std@@@std@@QAE@AAV?$allocator@U?$_Tree_node@U?$pair@$$CBKH@std@@PAX@std@@@1@@Z
	DD	2 DUP(00H)
	DD	2 DUP(00H)
	DD	00H
	DD	01H
xdata$x	ENDS
;	COMDAT xdata$x
xdata$x	SEGMENT
__unwindtable$??$?0U?$pair@$$CBHH@std@@@?$_Tree_temp_node@V?$allocator@U?$_Tree_node@U?$pair@$$CBHH@std@@PAX@std@@@std@@@std@@QAE@AAV?$allocator@U?$_Tree_node@U?$pair@$$CBHH@std@@PAX@std@@@1@PAU?$_Tree_node@U?$pair@$$CBHH@std@@PAX@1@$$QAU?$pair@$$CBHH@1@@Z DD 0ffffffffH
	DD	FLAT:__unwindfunclet$??$?0U?$pair@$$CBHH@std@@@?$_Tree_temp_node@V?$allocator@U?$_Tree_node@U?$pair@$$CBHH@std@@PAX@std@@@std@@@std@@QAE@AAV?$allocator@U?$_Tree_node@U?$pair@$$CBHH@std@@PAX@std@@@1@PAU?$_Tree_node@U?$pair@$$CBHH@std@@PAX@1@$$QAU?$pair@$$CBHH@1@@Z$1
__ehfuncinfo$??$?0U?$pair@$$CBHH@std@@@?$_Tree_temp_node@V?$allocator@U?$_Tree_node@U?$pair@$$CBHH@std@@PAX@std@@@std@@@std@@QAE@AAV?$allocator@U?$_Tree_node@U?$pair@$$CBHH@std@@PAX@std@@@1@PAU?$_Tree_node@U?$pair@$$CBHH@std@@PAX@1@$$QAU?$pair@$$CBHH@1@@Z DD 019930522H
	DD	01H
	DD	FLAT:__unwindtable$??$?0U?$pair@$$CBHH@std@@@?$_Tree_temp_node@V?$allocator@U?$_Tree_node@U?$pair@$$CBHH@std@@PAX@std@@@std@@@std@@QAE@AAV?$allocator@U?$_Tree_node@U?$pair@$$CBHH@std@@PAX@std@@@1@PAU?$_Tree_node@U?$pair@$$CBHH@std@@PAX@1@$$QAU?$pair@$$CBHH@1@@Z
	DD	2 DUP(00H)
	DD	2 DUP(00H)
	DD	00H
	DD	01H
xdata$x	ENDS
;	COMDAT xdata$x
xdata$x	SEGMENT
__unwindtable$??0?$_Tree_temp_node_alloc@V?$allocator@U?$_Tree_node@U?$pair@$$CBHH@std@@PAX@std@@@std@@@std@@QAE@AAV?$allocator@U?$_Tree_node@U?$pair@$$CBHH@std@@PAX@std@@@1@@Z DD 0ffffffffH
	DD	FLAT:__unwindfunclet$??0?$_Tree_temp_node_alloc@V?$allocator@U?$_Tree_node@U?$pair@$$CBHH@std@@PAX@std@@@std@@@std@@QAE@AAV?$allocator@U?$_Tree_node@U?$pair@$$CBHH@std@@PAX@std@@@1@@Z$0
__ehfuncinfo$??0?$_Tree_temp_node_alloc@V?$allocator@U?$_Tree_node@U?$pair@$$CBHH@std@@PAX@std@@@std@@@std@@QAE@AAV?$allocator@U?$_Tree_node@U?$pair@$$CBHH@std@@PAX@std@@@1@@Z DD 019930522H
	DD	01H
	DD	FLAT:__unwindtable$??0?$_Tree_temp_node_alloc@V?$allocator@U?$_Tree_node@U?$pair@$$CBHH@std@@PAX@std@@@std@@@std@@QAE@AAV?$allocator@U?$_Tree_node@U?$pair@$$CBHH@std@@PAX@std@@@1@@Z
	DD	2 DUP(00H)
	DD	2 DUP(00H)
	DD	00H
	DD	01H
xdata$x	ENDS
;	COMDAT xdata$x
xdata$x	SEGMENT
__unwindtable$??$?0U?$pair@$$CBHU__MAKEGEMPROB@CUltimateWeapon@@@std@@@?$_Tree_temp_node@V?$allocator@U?$_Tree_node@U?$pair@$$CBHU__MAKEGEMPROB@CUltimateWeapon@@@std@@PAX@std@@@std@@@std@@QAE@AAV?$allocator@U?$_Tree_node@U?$pair@$$CBHU__MAKEGEMPROB@CUltimateWeapon@@@std@@PAX@std@@@1@PAU?$_Tree_node@U?$pair@$$CBHU__MAKEGEMPROB@CUltimateWeapon@@@std@@PAX@1@$$QAU?$pair@$$CBHU__MAKEGEMPROB@CUltimateWeapon@@@1@@Z DD 0ffffffffH
	DD	FLAT:__unwindfunclet$??$?0U?$pair@$$CBHU__MAKEGEMPROB@CUltimateWeapon@@@std@@@?$_Tree_temp_node@V?$allocator@U?$_Tree_node@U?$pair@$$CBHU__MAKEGEMPROB@CUltimateWeapon@@@std@@PAX@std@@@std@@@std@@QAE@AAV?$allocator@U?$_Tree_node@U?$pair@$$CBHU__MAKEGEMPROB@CUltimateWeapon@@@std@@PAX@std@@@1@PAU?$_Tree_node@U?$pair@$$CBHU__MAKEGEMPROB@CUltimateWeapon@@@std@@PAX@1@$$QAU?$pair@$$CBHU__MAKEGEMPROB@CUltimateWeapon@@@1@@Z$1
__ehfuncinfo$??$?0U?$pair@$$CBHU__MAKEGEMPROB@CUltimateWeapon@@@std@@@?$_Tree_temp_node@V?$allocator@U?$_Tree_node@U?$pair@$$CBHU__MAKEGEMPROB@CUltimateWeapon@@@std@@PAX@std@@@std@@@std@@QAE@AAV?$allocator@U?$_Tree_node@U?$pair@$$CBHU__MAKEGEMPROB@CUltimateWeapon@@@std@@PAX@std@@@1@PAU?$_Tree_node@U?$pair@$$CBHU__MAKEGEMPROB@CUltimateWeapon@@@std@@PAX@1@$$QAU?$pair@$$CBHU__MAKEGEMPROB@CUltimateWeapon@@@1@@Z DD 019930522H
	DD	01H
	DD	FLAT:__unwindtable$??$?0U?$pair@$$CBHU__MAKEGEMPROB@CUltimateWeapon@@@std@@@?$_Tree_temp_node@V?$allocator@U?$_Tree_node@U?$pair@$$CBHU__MAKEGEMPROB@CUltimateWeapon@@@std@@PAX@std@@@std@@@std@@QAE@AAV?$allocator@U?$_Tree_node@U?$pair@$$CBHU__MAKEGEMPROB@CUltimateWeapon@@@std@@PAX@std@@@1@PAU?$_Tree_node@U?$pair@$$CBHU__MAKEGEMPROB@CUltimateWeapon@@@std@@PAX@1@$$QAU?$pair@$$CBHU__MAKEGEMPROB@CUltimateWeapon@@@1@@Z
	DD	2 DUP(00H)
	DD	2 DUP(00H)
	DD	00H
	DD	01H
xdata$x	ENDS
;	COMDAT xdata$x
xdata$x	SEGMENT
__unwindtable$??0?$_Tree_temp_node_alloc@V?$allocator@U?$_Tree_node@U?$pair@$$CBHU__MAKEGEMPROB@CUltimateWeapon@@@std@@PAX@std@@@std@@@std@@QAE@AAV?$allocator@U?$_Tree_node@U?$pair@$$CBHU__MAKEGEMPROB@CUltimateWeapon@@@std@@PAX@std@@@1@@Z DD 0ffffffffH
	DD	FLAT:__unwindfunclet$??0?$_Tree_temp_node_alloc@V?$allocator@U?$_Tree_node@U?$pair@$$CBHU__MAKEGEMPROB@CUltimateWeapon@@@std@@PAX@std@@@std@@@std@@QAE@AAV?$allocator@U?$_Tree_node@U?$pair@$$CBHU__MAKEGEMPROB@CUltimateWeapon@@@std@@PAX@std@@@1@@Z$0
__ehfuncinfo$??0?$_Tree_temp_node_alloc@V?$allocator@U?$_Tree_node@U?$pair@$$CBHU__MAKEGEMPROB@CUltimateWeapon@@@std@@PAX@std@@@std@@@std@@QAE@AAV?$allocator@U?$_Tree_node@U?$pair@$$CBHU__MAKEGEMPROB@CUltimateWeapon@@@std@@PAX@std@@@1@@Z DD 019930522H
	DD	01H
	DD	FLAT:__unwindtable$??0?$_Tree_temp_node_alloc@V?$allocator@U?$_Tree_node@U?$pair@$$CBHU__MAKEGEMPROB@CUltimateWeapon@@@std@@PAX@std@@@std@@@std@@QAE@AAV?$allocator@U?$_Tree_node@U?$pair@$$CBHU__MAKEGEMPROB@CUltimateWeapon@@@std@@PAX@std@@@1@@Z
	DD	2 DUP(00H)
	DD	2 DUP(00H)
	DD	00H
	DD	01H
xdata$x	ENDS
;	COMDAT xdata$x
xdata$x	SEGMENT
__unwindtable$??$_Assign_counted_range@PAU__GEMABILITY@CUltimateWeapon@@@?$vector@U__GEMABILITY@CUltimateWeapon@@V?$allocator@U__GEMABILITY@CUltimateWeapon@@@std@@@std@@AAEXPAU__GEMABILITY@CUltimateWeapon@@I@Z DD 0ffffffffH
	DD	FLAT:__unwindfunclet$??$_Assign_counted_range@PAU__GEMABILITY@CUltimateWeapon@@@?$vector@U__GEMABILITY@CUltimateWeapon@@V?$allocator@U__GEMABILITY@CUltimateWeapon@@@std@@@std@@AAEXPAU__GEMABILITY@CUltimateWeapon@@I@Z$1
__ehfuncinfo$??$_Assign_counted_range@PAU__GEMABILITY@CUltimateWeapon@@@?$vector@U__GEMABILITY@CUltimateWeapon@@V?$allocator@U__GEMABILITY@CUltimateWeapon@@@std@@@std@@AAEXPAU__GEMABILITY@CUltimateWeapon@@I@Z DD 019930522H
	DD	01H
	DD	FLAT:__unwindtable$??$_Assign_counted_range@PAU__GEMABILITY@CUltimateWeapon@@@?$vector@U__GEMABILITY@CUltimateWeapon@@V?$allocator@U__GEMABILITY@CUltimateWeapon@@@std@@@std@@AAEXPAU__GEMABILITY@CUltimateWeapon@@I@Z
	DD	2 DUP(00H)
	DD	2 DUP(00H)
	DD	00H
	DD	01H
xdata$x	ENDS
;	COMDAT xdata$x
xdata$x	SEGMENT
__unwindtable$??$_Emplace@U?$pair@$$CBKH@std@@@?$_Tree@V?$_Tmap_traits@KHU?$less@K@std@@V?$allocator@U?$pair@$$CBKH@std@@@2@$0A@@std@@@std@@IAE?AU?$pair@PAU?$_Tree_node@U?$pair@$$CBKH@std@@PAX@std@@_N@1@$$QAU?$pair@$$CBKH@1@@Z DD 0ffffffffH
	DD	FLAT:__unwindfunclet$??$_Emplace@U?$pair@$$CBKH@std@@@?$_Tree@V?$_Tmap_traits@KHU?$less@K@std@@V?$allocator@U?$pair@$$CBKH@std@@@2@$0A@@std@@@std@@IAE?AU?$pair@PAU?$_Tree_node@U?$pair@$$CBKH@std@@PAX@std@@_N@1@$$QAU?$pair@$$CBKH@1@@Z$2
__ehfuncinfo$??$_Emplace@U?$pair@$$CBKH@std@@@?$_Tree@V?$_Tmap_traits@KHU?$less@K@std@@V?$allocator@U?$pair@$$CBKH@std@@@2@$0A@@std@@@std@@IAE?AU?$pair@PAU?$_Tree_node@U?$pair@$$CBKH@std@@PAX@std@@_N@1@$$QAU?$pair@$$CBKH@1@@Z DD 019930522H
	DD	01H
	DD	FLAT:__unwindtable$??$_Emplace@U?$pair@$$CBKH@std@@@?$_Tree@V?$_Tmap_traits@KHU?$less@K@std@@V?$allocator@U?$pair@$$CBKH@std@@@2@$0A@@std@@@std@@IAE?AU?$pair@PAU?$_Tree_node@U?$pair@$$CBKH@std@@PAX@std@@_N@1@$$QAU?$pair@$$CBKH@1@@Z
	DD	2 DUP(00H)
	DD	2 DUP(00H)
	DD	00H
	DD	01H
xdata$x	ENDS
;	COMDAT xdata$x
xdata$x	SEGMENT
__unwindtable$??$_Emplace@U?$pair@$$CBHH@std@@@?$_Tree@V?$_Tmap_traits@HHU?$less@H@std@@V?$allocator@U?$pair@$$CBHH@std@@@2@$0A@@std@@@std@@IAE?AU?$pair@PAU?$_Tree_node@U?$pair@$$CBHH@std@@PAX@std@@_N@1@$$QAU?$pair@$$CBHH@1@@Z DD 0ffffffffH
	DD	FLAT:__unwindfunclet$??$_Emplace@U?$pair@$$CBHH@std@@@?$_Tree@V?$_Tmap_traits@HHU?$less@H@std@@V?$allocator@U?$pair@$$CBHH@std@@@2@$0A@@std@@@std@@IAE?AU?$pair@PAU?$_Tree_node@U?$pair@$$CBHH@std@@PAX@std@@_N@1@$$QAU?$pair@$$CBHH@1@@Z$2
__ehfuncinfo$??$_Emplace@U?$pair@$$CBHH@std@@@?$_Tree@V?$_Tmap_traits@HHU?$less@H@std@@V?$allocator@U?$pair@$$CBHH@std@@@2@$0A@@std@@@std@@IAE?AU?$pair@PAU?$_Tree_node@U?$pair@$$CBHH@std@@PAX@std@@_N@1@$$QAU?$pair@$$CBHH@1@@Z DD 019930522H
	DD	01H
	DD	FLAT:__unwindtable$??$_Emplace@U?$pair@$$CBHH@std@@@?$_Tree@V?$_Tmap_traits@HHU?$less@H@std@@V?$allocator@U?$pair@$$CBHH@std@@@2@$0A@@std@@@std@@IAE?AU?$pair@PAU?$_Tree_node@U?$pair@$$CBHH@std@@PAX@std@@_N@1@$$QAU?$pair@$$CBHH@1@@Z
	DD	2 DUP(00H)
	DD	2 DUP(00H)
	DD	00H
	DD	01H
xdata$x	ENDS
;	COMDAT xdata$x
xdata$x	SEGMENT
__unwindtable$??$_Emplace@U?$pair@$$CBHU__MAKEGEMPROB@CUltimateWeapon@@@std@@@?$_Tree@V?$_Tmap_traits@HU__MAKEGEMPROB@CUltimateWeapon@@U?$less@H@std@@V?$allocator@U?$pair@$$CBHU__MAKEGEMPROB@CUltimateWeapon@@@std@@@4@$0A@@std@@@std@@IAE?AU?$pair@PAU?$_Tree_node@U?$pair@$$CBHU__MAKEGEMPROB@CUltimateWeapon@@@std@@PAX@std@@_N@1@$$QAU?$pair@$$CBHU__MAKEGEMPROB@CUltimateWeapon@@@1@@Z DD 0ffffffffH
	DD	FLAT:__unwindfunclet$??$_Emplace@U?$pair@$$CBHU__MAKEGEMPROB@CUltimateWeapon@@@std@@@?$_Tree@V?$_Tmap_traits@HU__MAKEGEMPROB@CUltimateWeapon@@U?$less@H@std@@V?$allocator@U?$pair@$$CBHU__MAKEGEMPROB@CUltimateWeapon@@@std@@@4@$0A@@std@@@std@@IAE?AU?$pair@PAU?$_Tree_node@U?$pair@$$CBHU__MAKEGEMPROB@CUltimateWeapon@@@std@@PAX@std@@_N@1@$$QAU?$pair@$$CBHU__MAKEGEMPROB@CUltimateWeapon@@@1@@Z$2
__ehfuncinfo$??$_Emplace@U?$pair@$$CBHU__MAKEGEMPROB@CUltimateWeapon@@@std@@@?$_Tree@V?$_Tmap_traits@HU__MAKEGEMPROB@CUltimateWeapon@@U?$less@H@std@@V?$allocator@U?$pair@$$CBHU__MAKEGEMPROB@CUltimateWeapon@@@std@@@4@$0A@@std@@@std@@IAE?AU?$pair@PAU?$_Tree_node@U?$pair@$$CBHU__MAKEGEMPROB@CUltimateWeapon@@@std@@PAX@std@@_N@1@$$QAU?$pair@$$CBHU__MAKEGEMPROB@CUltimateWeapon@@@1@@Z DD 019930522H
	DD	01H
	DD	FLAT:__unwindtable$??$_Emplace@U?$pair@$$CBHU__MAKEGEMPROB@CUltimateWeapon@@@std@@@?$_Tree@V?$_Tmap_traits@HU__MAKEGEMPROB@CUltimateWeapon@@U?$less@H@std@@V?$allocator@U?$pair@$$CBHU__MAKEGEMPROB@CUltimateWeapon@@@std@@@4@$0A@@std@@@std@@IAE?AU?$pair@PAU?$_Tree_node@U?$pair@$$CBHU__MAKEGEMPROB@CUltimateWeapon@@@std@@PAX@std@@_N@1@$$QAU?$pair@$$CBHU__MAKEGEMPROB@CUltimateWeapon@@@1@@Z
	DD	2 DUP(00H)
	DD	2 DUP(00H)
	DD	00H
	DD	01H
xdata$x	ENDS
;	COMDAT xdata$x
xdata$x	SEGMENT
__unwindtable$??$insert@$0A@$0A@@?$_Tree@V?$_Tmap_traits@KHU?$less@K@std@@V?$allocator@U?$pair@$$CBKH@std@@@2@$0A@@std@@@std@@QAE?AU?$pair@V?$_Tree_iterator@V?$_Tree_val@U?$_Tree_simple_types@U?$pair@$$CBKH@std@@@std@@@std@@@std@@_N@1@$$QAU?$pair@$$CBKH@1@@Z DD 0ffffffffH
	DD	FLAT:__unwindfunclet$??$insert@$0A@$0A@@?$_Tree@V?$_Tmap_traits@KHU?$less@K@std@@V?$allocator@U?$pair@$$CBKH@std@@@2@$0A@@std@@@std@@QAE?AU?$pair@V?$_Tree_iterator@V?$_Tree_val@U?$_Tree_simple_types@U?$pair@$$CBKH@std@@@std@@@std@@@std@@_N@1@$$QAU?$pair@$$CBKH@1@@Z$2
__ehfuncinfo$??$insert@$0A@$0A@@?$_Tree@V?$_Tmap_traits@KHU?$less@K@std@@V?$allocator@U?$pair@$$CBKH@std@@@2@$0A@@std@@@std@@QAE?AU?$pair@V?$_Tree_iterator@V?$_Tree_val@U?$_Tree_simple_types@U?$pair@$$CBKH@std@@@std@@@std@@@std@@_N@1@$$QAU?$pair@$$CBKH@1@@Z DD 019930522H
	DD	01H
	DD	FLAT:__unwindtable$??$insert@$0A@$0A@@?$_Tree@V?$_Tmap_traits@KHU?$less@K@std@@V?$allocator@U?$pair@$$CBKH@std@@@2@$0A@@std@@@std@@QAE?AU?$pair@V?$_Tree_iterator@V?$_Tree_val@U?$_Tree_simple_types@U?$pair@$$CBKH@std@@@std@@@std@@@std@@_N@1@$$QAU?$pair@$$CBKH@1@@Z
	DD	2 DUP(00H)
	DD	2 DUP(00H)
	DD	00H
	DD	01H
xdata$x	ENDS
;	COMDAT xdata$x
xdata$x	SEGMENT
__unwindtable$??$insert@$0A@$0A@@?$_Tree@V?$_Tmap_traits@HHU?$less@H@std@@V?$allocator@U?$pair@$$CBHH@std@@@2@$0A@@std@@@std@@QAE?AU?$pair@V?$_Tree_iterator@V?$_Tree_val@U?$_Tree_simple_types@U?$pair@$$CBHH@std@@@std@@@std@@@std@@_N@1@$$QAU?$pair@$$CBHH@1@@Z DD 0ffffffffH
	DD	FLAT:__unwindfunclet$??$insert@$0A@$0A@@?$_Tree@V?$_Tmap_traits@HHU?$less@H@std@@V?$allocator@U?$pair@$$CBHH@std@@@2@$0A@@std@@@std@@QAE?AU?$pair@V?$_Tree_iterator@V?$_Tree_val@U?$_Tree_simple_types@U?$pair@$$CBHH@std@@@std@@@std@@@std@@_N@1@$$QAU?$pair@$$CBHH@1@@Z$2
__ehfuncinfo$??$insert@$0A@$0A@@?$_Tree@V?$_Tmap_traits@HHU?$less@H@std@@V?$allocator@U?$pair@$$CBHH@std@@@2@$0A@@std@@@std@@QAE?AU?$pair@V?$_Tree_iterator@V?$_Tree_val@U?$_Tree_simple_types@U?$pair@$$CBHH@std@@@std@@@std@@@std@@_N@1@$$QAU?$pair@$$CBHH@1@@Z DD 019930522H
	DD	01H
	DD	FLAT:__unwindtable$??$insert@$0A@$0A@@?$_Tree@V?$_Tmap_traits@HHU?$less@H@std@@V?$allocator@U?$pair@$$CBHH@std@@@2@$0A@@std@@@std@@QAE?AU?$pair@V?$_Tree_iterator@V?$_Tree_val@U?$_Tree_simple_types@U?$pair@$$CBHH@std@@@std@@@std@@@std@@_N@1@$$QAU?$pair@$$CBHH@1@@Z
	DD	2 DUP(00H)
	DD	2 DUP(00H)
	DD	00H
	DD	01H
xdata$x	ENDS
;	COMDAT xdata$x
xdata$x	SEGMENT
__unwindtable$??$insert@$0A@$0A@@?$_Tree@V?$_Tmap_traits@HU__MAKEGEMPROB@CUltimateWeapon@@U?$less@H@std@@V?$allocator@U?$pair@$$CBHU__MAKEGEMPROB@CUltimateWeapon@@@std@@@4@$0A@@std@@@std@@QAE?AU?$pair@V?$_Tree_iterator@V?$_Tree_val@U?$_Tree_simple_types@U?$pair@$$CBHU__MAKEGEMPROB@CUltimateWeapon@@@std@@@std@@@std@@@std@@_N@1@$$QAU?$pair@$$CBHU__MAKEGEMPROB@CUltimateWeapon@@@1@@Z DD 0ffffffffH
	DD	FLAT:__unwindfunclet$??$insert@$0A@$0A@@?$_Tree@V?$_Tmap_traits@HU__MAKEGEMPROB@CUltimateWeapon@@U?$less@H@std@@V?$allocator@U?$pair@$$CBHU__MAKEGEMPROB@CUltimateWeapon@@@std@@@4@$0A@@std@@@std@@QAE?AU?$pair@V?$_Tree_iterator@V?$_Tree_val@U?$_Tree_simple_types@U?$pair@$$CBHU__MAKEGEMPROB@CUltimateWeapon@@@std@@@std@@@std@@@std@@_N@1@$$QAU?$pair@$$CBHU__MAKEGEMPROB@CUltimateWeapon@@@1@@Z$2
__ehfuncinfo$??$insert@$0A@$0A@@?$_Tree@V?$_Tmap_traits@HU__MAKEGEMPROB@CUltimateWeapon@@U?$less@H@std@@V?$allocator@U?$pair@$$CBHU__MAKEGEMPROB@CUltimateWeapon@@@std@@@4@$0A@@std@@@std@@QAE?AU?$pair@V?$_Tree_iterator@V?$_Tree_val@U?$_Tree_simple_types@U?$pair@$$CBHU__MAKEGEMPROB@CUltimateWeapon@@@std@@@std@@@std@@@std@@_N@1@$$QAU?$pair@$$CBHU__MAKEGEMPROB@CUltimateWeapon@@@1@@Z DD 019930522H
	DD	01H
	DD	FLAT:__unwindtable$??$insert@$0A@$0A@@?$_Tree@V?$_Tmap_traits@HU__MAKEGEMPROB@CUltimateWeapon@@U?$less@H@std@@V?$allocator@U?$pair@$$CBHU__MAKEGEMPROB@CUltimateWeapon@@@std@@@4@$0A@@std@@@std@@QAE?AU?$pair@V?$_Tree_iterator@V?$_Tree_val@U?$_Tree_simple_types@U?$pair@$$CBHU__MAKEGEMPROB@CUltimateWeapon@@@std@@@std@@@std@@@std@@_N@1@$$QAU?$pair@$$CBHU__MAKEGEMPROB@CUltimateWeapon@@@1@@Z
	DD	2 DUP(00H)
	DD	2 DUP(00H)
	DD	00H
	DD	01H
xdata$x	ENDS
;	COMDAT xdata$x
xdata$x	SEGMENT
__unwindtable$??0CUltimateWeapon@@QAE@XZ DD 0ffffffffH
	DD	FLAT:__unwindfunclet$??0CUltimateWeapon@@QAE@XZ$0
	DD	00H
	DD	FLAT:__unwindfunclet$??0CUltimateWeapon@@QAE@XZ$1
	DD	01H
	DD	FLAT:__unwindfunclet$??0CUltimateWeapon@@QAE@XZ$2
__ehfuncinfo$??0CUltimateWeapon@@QAE@XZ DD 019930522H
	DD	03H
	DD	FLAT:__unwindtable$??0CUltimateWeapon@@QAE@XZ
	DD	2 DUP(00H)
	DD	2 DUP(00H)
	DD	00H
	DD	01H
xdata$x	ENDS
;	COMDAT xdata$x
xdata$x	SEGMENT
__unwindtable$?GetDST@CUltimateWeapon@@QAEHKHH@Z DD 0ffffffffH
	DD	FLAT:__unwindfunclet$?GetDST@CUltimateWeapon@@QAEHKHH@Z$0
__ehfuncinfo$?GetDST@CUltimateWeapon@@QAEHKHH@Z DD 019930522H
	DD	01H
	DD	FLAT:__unwindtable$?GetDST@CUltimateWeapon@@QAEHKHH@Z
	DD	2 DUP(00H)
	DD	2 DUP(00H)
	DD	00H
	DD	01H
xdata$x	ENDS
;	COMDAT xdata$x
xdata$x	SEGMENT
__unwindtable$?GetDestParamUltimate@CUltimateWeapon@@QAE?AV?$map@HHU?$less@H@std@@V?$allocator@U?$pair@$$CBHH@std@@@2@@std@@PAVCItemElem@@@Z DD 0ffffffffH
	DD	FLAT:__unwindfunclet$?GetDestParamUltimate@CUltimateWeapon@@QAE?AV?$map@HHU?$less@H@std@@V?$allocator@U?$pair@$$CBHH@std@@@2@@std@@PAVCItemElem@@@Z$0
	DD	00H
	DD	FLAT:__unwindfunclet$?GetDestParamUltimate@CUltimateWeapon@@QAE?AV?$map@HHU?$less@H@std@@V?$allocator@U?$pair@$$CBHH@std@@@2@@std@@PAVCItemElem@@@Z$1
	DD	01H
	DD	FLAT:__unwindfunclet$?GetDestParamUltimate@CUltimateWeapon@@QAE?AV?$map@HHU?$less@H@std@@V?$allocator@U?$pair@$$CBHH@std@@@2@@std@@PAVCItemElem@@@Z$5
__ehfuncinfo$?GetDestParamUltimate@CUltimateWeapon@@QAE?AV?$map@HHU?$less@H@std@@V?$allocator@U?$pair@$$CBHH@std@@@2@@std@@PAVCItemElem@@@Z DD 019930522H
	DD	03H
	DD	FLAT:__unwindtable$?GetDestParamUltimate@CUltimateWeapon@@QAE?AV?$map@HHU?$less@H@std@@V?$allocator@U?$pair@$$CBHH@std@@@2@@std@@PAVCItemElem@@@Z
	DD	2 DUP(00H)
	DD	2 DUP(00H)
	DD	00H
	DD	01H
xdata$x	ENDS
;	COMDAT xdata$x
xdata$x	SEGMENT
__unwindtable$?SetDestParamUltimate@CUltimateWeapon@@QAEXPAVCMover@@PAVCItemElem@@HK@Z DD 0ffffffffH
	DD	FLAT:__unwindfunclet$?SetDestParamUltimate@CUltimateWeapon@@QAEXPAVCMover@@PAVCItemElem@@HK@Z$0
__ehfuncinfo$?SetDestParamUltimate@CUltimateWeapon@@QAEXPAVCMover@@PAVCItemElem@@HK@Z DD 019930522H
	DD	01H
	DD	FLAT:__unwindtable$?SetDestParamUltimate@CUltimateWeapon@@QAEXPAVCMover@@PAVCItemElem@@HK@Z
	DD	2 DUP(00H)
	DD	2 DUP(00H)
	DD	00H
	DD	01H
xdata$x	ENDS
;	COMDAT xdata$x
xdata$x	SEGMENT
__ehfuncinfo$?TransWeapon@CUltimateWeapon@@QAEHPAVCUser@@KKK@Z DD 019930522H
	DD	08H
	DD	FLAT:__unwindtable$?TransWeapon@CUltimateWeapon@@QAEHPAVCUser@@KKK@Z
	DD	2 DUP(00H)
	DD	2 DUP(00H)
	DD	00H
	DD	01H
__unwindtable$?TransWeapon@CUltimateWeapon@@QAEHPAVCUser@@KKK@Z DD 0ffffffffH
	DD	FLAT:__unwindfunclet$?TransWeapon@CUltimateWeapon@@QAEHPAVCUser@@KKK@Z$7
	DD	0ffffffffH
	DD	FLAT:__unwindfunclet$?TransWeapon@CUltimateWeapon@@QAEHPAVCUser@@KKK@Z$0
	DD	01H
	DD	FLAT:__unwindfunclet$?TransWeapon@CUltimateWeapon@@QAEHPAVCUser@@KKK@Z$1
	DD	02H
	DD	FLAT:__unwindfunclet$?TransWeapon@CUltimateWeapon@@QAEHPAVCUser@@KKK@Z$2
	DD	02H
	DD	FLAT:__unwindfunclet$?TransWeapon@CUltimateWeapon@@QAEHPAVCUser@@KKK@Z$3
	DD	04H
	DD	FLAT:__unwindfunclet$?TransWeapon@CUltimateWeapon@@QAEHPAVCUser@@KKK@Z$4
	DD	02H
	DD	FLAT:__unwindfunclet$?TransWeapon@CUltimateWeapon@@QAEHPAVCUser@@KKK@Z$5
	DD	02H
	DD	FLAT:__unwindfunclet$?TransWeapon@CUltimateWeapon@@QAEHPAVCUser@@KKK@Z$6
xdata$x	ENDS
;	COMDAT xdata$x
xdata$x	SEGMENT
__ehfuncinfo$?MakeItem@CUltimateWeapon@@QAEHPAVCUser@@PAK@Z DD 019930522H
	DD	06H
	DD	FLAT:__unwindtable$?MakeItem@CUltimateWeapon@@QAEHPAVCUser@@PAK@Z
	DD	2 DUP(00H)
	DD	2 DUP(00H)
	DD	00H
	DD	01H
__unwindtable$?MakeItem@CUltimateWeapon@@QAEHPAVCUser@@PAK@Z DD 0ffffffffH
	DD	FLAT:__unwindfunclet$?MakeItem@CUltimateWeapon@@QAEHPAVCUser@@PAK@Z$0
	DD	00H
	DD	FLAT:__unwindfunclet$?MakeItem@CUltimateWeapon@@QAEHPAVCUser@@PAK@Z$1
	DD	01H
	DD	FLAT:__unwindfunclet$?MakeItem@CUltimateWeapon@@QAEHPAVCUser@@PAK@Z$13
	DD	01H
	DD	FLAT:__unwindfunclet$?MakeItem@CUltimateWeapon@@QAEHPAVCUser@@PAK@Z$8
	DD	01H
	DD	FLAT:__unwindfunclet$?MakeItem@CUltimateWeapon@@QAEHPAVCUser@@PAK@Z$2
	DD	04H
	DD	FLAT:__unwindfunclet$?MakeItem@CUltimateWeapon@@QAEHPAVCUser@@PAK@Z$3
xdata$x	ENDS
;	COMDAT xdata$x
xdata$x	SEGMENT
__unwindtable$?MakeGem@CUltimateWeapon@@QAEHPAVCUser@@KAAH@Z DD 0ffffffffH
	DD	FLAT:__unwindfunclet$?MakeGem@CUltimateWeapon@@QAEHPAVCUser@@KAAH@Z$0
	DD	00H
	DD	FLAT:__unwindfunclet$?MakeGem@CUltimateWeapon@@QAEHPAVCUser@@KAAH@Z$1
__ehfuncinfo$?MakeGem@CUltimateWeapon@@QAEHPAVCUser@@KAAH@Z DD 019930522H
	DD	02H
	DD	FLAT:__unwindtable$?MakeGem@CUltimateWeapon@@QAEHPAVCUser@@KAAH@Z
	DD	2 DUP(00H)
	DD	2 DUP(00H)
	DD	00H
	DD	01H
xdata$x	ENDS
;	COMDAT xdata$x
xdata$x	SEGMENT
__unwindtable$?Load_UltimateWeapon@CUltimateWeapon@@QAEHXZ DD 0ffffffffH
	DD	FLAT:__unwindfunclet$?Load_UltimateWeapon@CUltimateWeapon@@QAEHXZ$0
	DD	00H
	DD	FLAT:__unwindfunclet$?Load_UltimateWeapon@CUltimateWeapon@@QAEHXZ$3
__ehfuncinfo$?Load_UltimateWeapon@CUltimateWeapon@@QAEHXZ DD 019930522H
	DD	02H
	DD	FLAT:__unwindtable$?Load_UltimateWeapon@CUltimateWeapon@@QAEHXZ
	DD	2 DUP(00H)
	DD	2 DUP(00H)
	DD	00H
	DD	01H
xdata$x	ENDS
;	COMDAT xdata$x
xdata$x	SEGMENT
__unwindtable$?Load_GemAbility@CUltimateWeapon@@QAEHXZ DD 0ffffffffH
	DD	FLAT:__unwindfunclet$?Load_GemAbility@CUltimateWeapon@@QAEHXZ$0
	DD	00H
	DD	FLAT:__unwindfunclet$?Load_GemAbility@CUltimateWeapon@@QAEHXZ$1
	DD	01H
	DD	FLAT:__unwindfunclet$?Load_GemAbility@CUltimateWeapon@@QAEHXZ$2
__ehfuncinfo$?Load_GemAbility@CUltimateWeapon@@QAEHXZ DD 019930522H
	DD	03H
	DD	FLAT:__unwindtable$?Load_GemAbility@CUltimateWeapon@@QAEHXZ
	DD	2 DUP(00H)
	DD	2 DUP(00H)
	DD	00H
	DD	01H
xdata$x	ENDS
;	COMDAT xdata$x
xdata$x	SEGMENT
__unwindtable$??0__GEMABILITYKIND@CUltimateWeapon@@QAE@ABU01@@Z DD 0ffffffffH
	DD	FLAT:__unwindfunclet$??0__GEMABILITYKIND@CUltimateWeapon@@QAE@ABU01@@Z$1
	DD	00H
	DD	FLAT:__unwindfunclet$??0__GEMABILITYKIND@CUltimateWeapon@@QAE@ABU01@@Z$2
__ehfuncinfo$??0__GEMABILITYKIND@CUltimateWeapon@@QAE@ABU01@@Z DD 019930522H
	DD	02H
	DD	FLAT:__unwindtable$??0__GEMABILITYKIND@CUltimateWeapon@@QAE@ABU01@@Z
	DD	2 DUP(00H)
	DD	2 DUP(00H)
	DD	00H
	DD	01H
xdata$x	ENDS
;	COMDAT xdata$x
xdata$x	SEGMENT
__unwindtable$??0?$vector@U__GEMABILITY@CUltimateWeapon@@V?$allocator@U__GEMABILITY@CUltimateWeapon@@@std@@@std@@QAE@ABV01@@Z DD 0ffffffffH
	DD	FLAT:__unwindfunclet$??0?$vector@U__GEMABILITY@CUltimateWeapon@@V?$allocator@U__GEMABILITY@CUltimateWeapon@@@std@@@std@@QAE@ABV01@@Z$0
	DD	00H
	DD	FLAT:__unwindfunclet$??0?$vector@U__GEMABILITY@CUltimateWeapon@@V?$allocator@U__GEMABILITY@CUltimateWeapon@@@std@@@std@@QAE@ABV01@@Z$1
__ehfuncinfo$??0?$vector@U__GEMABILITY@CUltimateWeapon@@V?$allocator@U__GEMABILITY@CUltimateWeapon@@@std@@@std@@QAE@ABV01@@Z DD 019930522H
	DD	02H
	DD	FLAT:__unwindtable$??0?$vector@U__GEMABILITY@CUltimateWeapon@@V?$allocator@U__GEMABILITY@CUltimateWeapon@@@std@@@std@@QAE@ABV01@@Z
	DD	2 DUP(00H)
	DD	2 DUP(00H)
	DD	00H
	DD	01H
xdata$x	ENDS
;	COMDAT xdata$x
xdata$x	SEGMENT
__unwindtable$??HATL@@YA?AV?$CStringT@DV?$StrTraitMFC@DV?$ChTraitsCRT@D@ATL@@@@@0@ABV10@PBD@Z DD 0ffffffffH
	DD	FLAT:__unwindfunclet$??HATL@@YA?AV?$CStringT@DV?$StrTraitMFC@DV?$ChTraitsCRT@D@ATL@@@@@0@ABV10@PBD@Z$0
__ehfuncinfo$??HATL@@YA?AV?$CStringT@DV?$StrTraitMFC@DV?$ChTraitsCRT@D@ATL@@@@@0@ABV10@PBD@Z DD 019930522H
	DD	01H
	DD	FLAT:__unwindtable$??HATL@@YA?AV?$CStringT@DV?$StrTraitMFC@DV?$ChTraitsCRT@D@ATL@@@@@0@ABV10@PBD@Z
	DD	2 DUP(00H)
	DD	2 DUP(00H)
	DD	00H
	DD	01H
xdata$x	ENDS
;	COMDAT xdata$x
xdata$x	SEGMENT
__unwindtable$??0?$CStringT@DV?$StrTraitMFC@DV?$ChTraitsCRT@D@ATL@@@@@ATL@@QAE@PBD@Z DD 0ffffffffH
	DD	FLAT:__unwindfunclet$??0?$CStringT@DV?$StrTraitMFC@DV?$ChTraitsCRT@D@ATL@@@@@ATL@@QAE@PBD@Z$0
__ehfuncinfo$??0?$CStringT@DV?$StrTraitMFC@DV?$ChTraitsCRT@D@ATL@@@@@ATL@@QAE@PBD@Z DD 019930522H
	DD	01H
	DD	FLAT:__unwindtable$??0?$CStringT@DV?$StrTraitMFC@DV?$ChTraitsCRT@D@ATL@@@@@ATL@@QAE@PBD@Z
	DD	2 DUP(00H)
	DD	2 DUP(00H)
	DD	00H
	DD	01H
xdata$x	ENDS
; Function compile flags: /Ogtp
; File C:\Program Files\Microsoft Visual Studio\2022\Professional\VC\Tools\MSVC\14.44.35207\include\xmemory
;	COMDAT ??1?$_Tidy_guard@V?$vector@U__GEMABILITY@CUltimateWeapon@@V?$allocator@U__GEMABILITY@CUltimateWeapon@@@std@@@std@@@std@@QAE@XZ
_TEXT	SEGMENT
??1?$_Tidy_guard@V?$vector@U__GEMABILITY@CUltimateWeapon@@V?$allocator@U__GEMABILITY@CUltimateWeapon@@@std@@@std@@@std@@QAE@XZ PROC ; std::_Tidy_guard<std::vector<CUltimateWeapon::__GEMABILITY,std::allocator<CUltimateWeapon::__GEMABILITY> > >::~_Tidy_guard<std::vector<CUltimateWeapon::__GEMABILITY,std::allocator<CUltimateWeapon::__GEMABILITY> > >, COMDAT
; _this$ = ecx

; 87   :         if (_Target) {

  00000	8b 09		 mov	 ecx, DWORD PTR [ecx]
  00002	85 c9		 test	 ecx, ecx
  00004	0f 85 00 00 00
	00		 jne	 ?_Tidy@?$vector@U__GEMABILITY@CUltimateWeapon@@V?$allocator@U__GEMABILITY@CUltimateWeapon@@@std@@@std@@AAEXXZ ; std::vector<CUltimateWeapon::__GEMABILITY,std::allocator<CUltimateWeapon::__GEMABILITY> >::_Tidy

; 88   :             _Target->_Tidy();
; 89   :         }
; 90   :     }

  0000a	c3		 ret	 0
??1?$_Tidy_guard@V?$vector@U__GEMABILITY@CUltimateWeapon@@V?$allocator@U__GEMABILITY@CUltimateWeapon@@@std@@@std@@@std@@QAE@XZ ENDP ; std::_Tidy_guard<std::vector<CUltimateWeapon::__GEMABILITY,std::allocator<CUltimateWeapon::__GEMABILITY> > >::~_Tidy_guard<std::vector<CUltimateWeapon::__GEMABILITY,std::allocator<CUltimateWeapon::__GEMABILITY> > >
_TEXT	ENDS
; Function compile flags: /Ogtp
; File C:\Program Files\Microsoft Visual Studio\2022\Professional\VC\Tools\MSVC\14.44.35207\include\xutility
;	COMDAT ??$_Copy_memmove_tail@PAH@std@@YAPAHQBDQAHII@Z
_TEXT	SEGMENT
__First_ch$ = 8						; size = 4
__Dest$ = 12						; size = 4
__Byte_count$ = 16					; size = 4
__Object_count$ = 20					; size = 4
??$_Copy_memmove_tail@PAH@std@@YAPAHQBDQAHII@Z PROC	; std::_Copy_memmove_tail<int *>, COMDAT

; 4747 :     const char* const _First_ch, const _OutCtgIt _Dest, const size_t _Byte_count, const size_t _Object_count) {

  00000	55		 push	 ebp
  00001	8b ec		 mov	 ebp, esp
  00003	56		 push	 esi

; 4748 :     _STL_INTERNAL_CHECK(_Byte_count == _Object_count * sizeof(*_Dest));
; 4749 :     const auto _Dest_ptr = _STD _To_address(_Dest);
; 4750 :     const auto _Dest_ch  = const_cast<char*>(reinterpret_cast<const volatile char*>(_Dest_ptr));
; 4751 :     _CSTD memmove(_Dest_ch, _First_ch, _Byte_count);

  00004	8b 75 0c	 mov	 esi, DWORD PTR __Dest$[ebp]
  00007	57		 push	 edi
  00008	8b 7d 10	 mov	 edi, DWORD PTR __Byte_count$[ebp]
  0000b	57		 push	 edi
  0000c	ff 75 08	 push	 DWORD PTR __First_ch$[ebp]
  0000f	56		 push	 esi
  00010	e8 00 00 00 00	 call	 _memmove
  00015	83 c4 0c	 add	 esp, 12			; 0000000cH

; 4752 :     if constexpr (is_pointer_v<_OutCtgIt>) {
; 4753 :         (void) _Object_count;
; 4754 :         // CodeQL [SM02986] This cast is correct: we're bypassing pointer arithmetic for performance.
; 4755 :         return reinterpret_cast<_OutCtgIt>(_Dest_ch + _Byte_count);

  00018	8d 04 3e	 lea	 eax, DWORD PTR [esi+edi]
  0001b	5f		 pop	 edi
  0001c	5e		 pop	 esi

; 4756 :     } else {
; 4757 :         return _Dest + static_cast<_Iter_diff_t<_OutCtgIt>>(_Object_count);
; 4758 :     }
; 4759 : }

  0001d	5d		 pop	 ebp
  0001e	c3		 ret	 0
??$_Copy_memmove_tail@PAH@std@@YAPAHQBDQAHII@Z ENDP	; std::_Copy_memmove_tail<int *>
_TEXT	ENDS
; Function compile flags: /Ogtp
; File C:\Program Files\Microsoft Visual Studio\2022\Professional\VC\Tools\MSVC\14.44.35207\include\xutility
;	COMDAT ??$_Copy_memmove_tail@PAU__MAKEGEMITEM@CUltimateWeapon@@@std@@YAPAU__MAKEGEMITEM@CUltimateWeapon@@QBDQAU12@II@Z
_TEXT	SEGMENT
__First_ch$ = 8						; size = 4
__Dest$ = 12						; size = 4
__Byte_count$ = 16					; size = 4
__Object_count$ = 20					; size = 4
??$_Copy_memmove_tail@PAU__MAKEGEMITEM@CUltimateWeapon@@@std@@YAPAU__MAKEGEMITEM@CUltimateWeapon@@QBDQAU12@II@Z PROC ; std::_Copy_memmove_tail<CUltimateWeapon::__MAKEGEMITEM *>, COMDAT

; 4747 :     const char* const _First_ch, const _OutCtgIt _Dest, const size_t _Byte_count, const size_t _Object_count) {

  00000	55		 push	 ebp
  00001	8b ec		 mov	 ebp, esp
  00003	56		 push	 esi

; 4748 :     _STL_INTERNAL_CHECK(_Byte_count == _Object_count * sizeof(*_Dest));
; 4749 :     const auto _Dest_ptr = _STD _To_address(_Dest);
; 4750 :     const auto _Dest_ch  = const_cast<char*>(reinterpret_cast<const volatile char*>(_Dest_ptr));
; 4751 :     _CSTD memmove(_Dest_ch, _First_ch, _Byte_count);

  00004	8b 75 0c	 mov	 esi, DWORD PTR __Dest$[ebp]
  00007	57		 push	 edi
  00008	8b 7d 10	 mov	 edi, DWORD PTR __Byte_count$[ebp]
  0000b	57		 push	 edi
  0000c	ff 75 08	 push	 DWORD PTR __First_ch$[ebp]
  0000f	56		 push	 esi
  00010	e8 00 00 00 00	 call	 _memmove
  00015	83 c4 0c	 add	 esp, 12			; 0000000cH

; 4752 :     if constexpr (is_pointer_v<_OutCtgIt>) {
; 4753 :         (void) _Object_count;
; 4754 :         // CodeQL [SM02986] This cast is correct: we're bypassing pointer arithmetic for performance.
; 4755 :         return reinterpret_cast<_OutCtgIt>(_Dest_ch + _Byte_count);

  00018	8d 04 3e	 lea	 eax, DWORD PTR [esi+edi]
  0001b	5f		 pop	 edi
  0001c	5e		 pop	 esi

; 4756 :     } else {
; 4757 :         return _Dest + static_cast<_Iter_diff_t<_OutCtgIt>>(_Object_count);
; 4758 :     }
; 4759 : }

  0001d	5d		 pop	 ebp
  0001e	c3		 ret	 0
??$_Copy_memmove_tail@PAU__MAKEGEMITEM@CUltimateWeapon@@@std@@YAPAU__MAKEGEMITEM@CUltimateWeapon@@QBDQAU12@II@Z ENDP ; std::_Copy_memmove_tail<CUltimateWeapon::__MAKEGEMITEM *>
_TEXT	ENDS
; Function compile flags: /Ogtp
; File C:\Program Files\Microsoft Visual Studio\2022\Professional\VC\Tools\MSVC\14.44.35207\include\xutility
;	COMDAT ??$_Copy_memmove_n@PAHPAH@std@@YAPAHPAHI0@Z
_TEXT	SEGMENT
__First$ = 8						; size = 4
__Object_count$ = 12					; size = 4
__Dest$ = 16						; size = 4
??$_Copy_memmove_n@PAHPAH@std@@YAPAHPAHI0@Z PROC	; std::_Copy_memmove_n<int *,int *>, COMDAT

; 4774 : _OutCtgIt _Copy_memmove_n(_CtgIt _First, const size_t _Object_count, _OutCtgIt _Dest) {

  00000	55		 push	 ebp
  00001	8b ec		 mov	 ebp, esp

; 4775 :     const auto _First_ptr  = _STD _To_address(_First);
; 4776 :     const auto _First_ch   = const_cast<const char*>(reinterpret_cast<const volatile char*>(_First_ptr));
; 4777 :     const auto _Byte_count = _Object_count * sizeof(*_First_ptr);
; 4778 :     return _STD _Copy_memmove_tail(_First_ch, _STD move(_Dest), _Byte_count, _Object_count);

  00003	8b 45 0c	 mov	 eax, DWORD PTR __Object_count$[ebp]
  00006	50		 push	 eax
  00007	c1 e0 02	 shl	 eax, 2
  0000a	50		 push	 eax
  0000b	ff 75 10	 push	 DWORD PTR __Dest$[ebp]
  0000e	ff 75 08	 push	 DWORD PTR __First$[ebp]
  00011	e8 00 00 00 00	 call	 ??$_Copy_memmove_tail@PAH@std@@YAPAHQBDQAHII@Z ; std::_Copy_memmove_tail<int *>
  00016	83 c4 10	 add	 esp, 16			; 00000010H

; 4779 : }

  00019	5d		 pop	 ebp
  0001a	c3		 ret	 0
??$_Copy_memmove_n@PAHPAH@std@@YAPAHPAHI0@Z ENDP	; std::_Copy_memmove_n<int *,int *>
_TEXT	ENDS
; Function compile flags: /Ogtp
; File C:\Program Files\Microsoft Visual Studio\2022\Professional\VC\Tools\MSVC\14.44.35207\include\xutility
;	COMDAT ??$_Copy_memmove@PAHPAH@std@@YAPAHPAH00@Z
_TEXT	SEGMENT
__First$ = 8						; size = 4
__Last$ = 12						; size = 4
__Dest$ = 16						; size = 4
??$_Copy_memmove@PAHPAH@std@@YAPAHPAH00@Z PROC		; std::_Copy_memmove<int *,int *>, COMDAT

; 4762 : _OutCtgIt _Copy_memmove(_CtgIt _First, _CtgIt _Last, _OutCtgIt _Dest) {

  00000	55		 push	 ebp
  00001	8b ec		 mov	 ebp, esp

; 4763 :     _STL_INTERNAL_CHECK(_First <= _Last);
; 4764 :     const auto _First_ptr    = _STD _To_address(_First);
; 4765 :     const auto _Last_ptr     = _STD _To_address(_Last);
; 4766 :     const auto _Object_count = static_cast<size_t>(_Last_ptr - _First_ptr);

  00003	8b 55 08	 mov	 edx, DWORD PTR __First$[ebp]
  00006	8b 4d 0c	 mov	 ecx, DWORD PTR __Last$[ebp]
  00009	2b ca		 sub	 ecx, edx
  0000b	8b c1		 mov	 eax, ecx
  0000d	c1 f8 02	 sar	 eax, 2

; 4767 :     const auto _First_ch     = const_cast<const char*>(reinterpret_cast<const volatile char*>(_First_ptr));
; 4768 :     const auto _Last_ch      = const_cast<const char*>(reinterpret_cast<const volatile char*>(_Last_ptr));
; 4769 :     const auto _Byte_count   = static_cast<size_t>(_Last_ch - _First_ch);
; 4770 :     return _STD _Copy_memmove_tail(_First_ch, _STD move(_Dest), _Byte_count, _Object_count);

  00010	50		 push	 eax
  00011	51		 push	 ecx
  00012	ff 75 10	 push	 DWORD PTR __Dest$[ebp]
  00015	52		 push	 edx
  00016	e8 00 00 00 00	 call	 ??$_Copy_memmove_tail@PAH@std@@YAPAHQBDQAHII@Z ; std::_Copy_memmove_tail<int *>
  0001b	83 c4 10	 add	 esp, 16			; 00000010H

; 4771 : }

  0001e	5d		 pop	 ebp
  0001f	c3		 ret	 0
??$_Copy_memmove@PAHPAH@std@@YAPAHPAH00@Z ENDP		; std::_Copy_memmove<int *,int *>
_TEXT	ENDS
; Function compile flags: /Ogtp
; File C:\Program Files\Microsoft Visual Studio\2022\Professional\VC\Tools\MSVC\14.44.35207\include\xutility
;	COMDAT ??$_Copy_memmove@PAU__MAKEGEMITEM@CUltimateWeapon@@PAU12@@std@@YAPAU__MAKEGEMITEM@CUltimateWeapon@@PAU12@00@Z
_TEXT	SEGMENT
__First$ = 8						; size = 4
__Last$ = 12						; size = 4
__Dest$ = 16						; size = 4
??$_Copy_memmove@PAU__MAKEGEMITEM@CUltimateWeapon@@PAU12@@std@@YAPAU__MAKEGEMITEM@CUltimateWeapon@@PAU12@00@Z PROC ; std::_Copy_memmove<CUltimateWeapon::__MAKEGEMITEM *,CUltimateWeapon::__MAKEGEMITEM *>, COMDAT

; 4762 : _OutCtgIt _Copy_memmove(_CtgIt _First, _CtgIt _Last, _OutCtgIt _Dest) {

  00000	55		 push	 ebp
  00001	8b ec		 mov	 ebp, esp

; 4763 :     _STL_INTERNAL_CHECK(_First <= _Last);
; 4764 :     const auto _First_ptr    = _STD _To_address(_First);
; 4765 :     const auto _Last_ptr     = _STD _To_address(_Last);
; 4766 :     const auto _Object_count = static_cast<size_t>(_Last_ptr - _First_ptr);

  00003	8b 4d 0c	 mov	 ecx, DWORD PTR __Last$[ebp]
  00006	b8 ab aa aa 2a	 mov	 eax, 715827883		; 2aaaaaabH
  0000b	2b 4d 08	 sub	 ecx, DWORD PTR __First$[ebp]
  0000e	f7 e9		 imul	 ecx
  00010	d1 fa		 sar	 edx, 1
  00012	8b c2		 mov	 eax, edx
  00014	c1 e8 1f	 shr	 eax, 31			; 0000001fH
  00017	03 c2		 add	 eax, edx

; 4767 :     const auto _First_ch     = const_cast<const char*>(reinterpret_cast<const volatile char*>(_First_ptr));
; 4768 :     const auto _Last_ch      = const_cast<const char*>(reinterpret_cast<const volatile char*>(_Last_ptr));
; 4769 :     const auto _Byte_count   = static_cast<size_t>(_Last_ch - _First_ch);
; 4770 :     return _STD _Copy_memmove_tail(_First_ch, _STD move(_Dest), _Byte_count, _Object_count);

  00019	50		 push	 eax
  0001a	51		 push	 ecx
  0001b	ff 75 10	 push	 DWORD PTR __Dest$[ebp]
  0001e	ff 75 08	 push	 DWORD PTR __First$[ebp]
  00021	e8 00 00 00 00	 call	 ??$_Copy_memmove_tail@PAU__MAKEGEMITEM@CUltimateWeapon@@@std@@YAPAU__MAKEGEMITEM@CUltimateWeapon@@QBDQAU12@II@Z ; std::_Copy_memmove_tail<CUltimateWeapon::__MAKEGEMITEM *>
  00026	83 c4 10	 add	 esp, 16			; 00000010H

; 4771 : }

  00029	5d		 pop	 ebp
  0002a	c3		 ret	 0
??$_Copy_memmove@PAU__MAKEGEMITEM@CUltimateWeapon@@PAU12@@std@@YAPAU__MAKEGEMITEM@CUltimateWeapon@@PAU12@00@Z ENDP ; std::_Copy_memmove<CUltimateWeapon::__MAKEGEMITEM *,CUltimateWeapon::__MAKEGEMITEM *>
_TEXT	ENDS
; Function compile flags: /Ogtp
; File C:\Program Files\Microsoft Visual Studio\2022\Professional\VC\Tools\MSVC\14.44.35207\include\xmemory
; File C:\Program Files\Microsoft Visual Studio\2022\Professional\VC\Tools\MSVC\14.44.35207\include\utility
; File C:\Program Files\Microsoft Visual Studio\2022\Professional\VC\Tools\MSVC\14.44.35207\include\vector
; File C:\Program Files\Microsoft Visual Studio\2022\Professional\VC\Tools\MSVC\14.44.35207\include\xmemory
; File C:\Program Files\Microsoft Visual Studio\2022\Professional\VC\Tools\MSVC\14.44.35207\include\vector
; File C:\Program Files\Microsoft Visual Studio\2022\Professional\VC\Tools\MSVC\14.44.35207\include\xmemory
;	COMDAT ??$_Uninitialized_move@PAU__GEMABILITY@CUltimateWeapon@@V?$allocator@U__GEMABILITY@CUltimateWeapon@@@std@@@std@@YAPAU__GEMABILITY@CUltimateWeapon@@QAU12@0PAU12@AAV?$allocator@U__GEMABILITY@CUltimateWeapon@@@0@@Z
_TEXT	SEGMENT
__First$ = 8						; size = 4
__Last$ = 12						; size = 4
__Dest$ = 16						; size = 4
__Al$ = 20						; size = 4
??$_Uninitialized_move@PAU__GEMABILITY@CUltimateWeapon@@V?$allocator@U__GEMABILITY@CUltimateWeapon@@@std@@@std@@YAPAU__GEMABILITY@CUltimateWeapon@@QAU12@0PAU12@AAV?$allocator@U__GEMABILITY@CUltimateWeapon@@@0@@Z PROC ; std::_Uninitialized_move<CUltimateWeapon::__GEMABILITY *,std::allocator<CUltimateWeapon::__GEMABILITY> >, COMDAT

; 1977 :     const _InIt _First, const _InIt _Last, _Alloc_ptr_t<_Alloc> _Dest, _Alloc& _Al) {

  00000	55		 push	 ebp
  00001	8b ec		 mov	 ebp, esp

; 1998 :     for (; _UFirst != _ULast; ++_UFirst) {

  00003	8b 45 08	 mov	 eax, DWORD PTR __First$[ebp]
  00006	57		 push	 edi

; 1833 :     _CONSTEXPR20 _Uninitialized_backout_al(pointer _Dest, _Alloc& _Al_) : _First(_Dest), _Last(_Dest), _Al(_Al_) {}

  00007	8b 7d 10	 mov	 edi, DWORD PTR __Dest$[ebp]

; 1998 :     for (; _UFirst != _ULast; ++_UFirst) {

  0000a	3b 45 0c	 cmp	 eax, DWORD PTR __Last$[ebp]
  0000d	74 4c		 je	 SHORT $LN69@Uninitiali
  0000f	53		 push	 ebx

; 1833 :     _CONSTEXPR20 _Uninitialized_backout_al(pointer _Dest, _Alloc& _Al_) : _First(_Dest), _Last(_Dest), _Al(_Al_) {}

  00010	8b df		 mov	 ebx, edi
  00012	8d 48 0c	 lea	 ecx, DWORD PTR [eax+12]
  00015	56		 push	 esi
  00016	2b d8		 sub	 ebx, eax
$LL4@Uninitiali:
  00018	8b 41 f4	 mov	 eax, DWORD PTR [ecx-12]

; 1845 :         ++_Last;

  0001b	8d 49 14	 lea	 ecx, DWORD PTR [ecx+20]
  0001e	89 07		 mov	 DWORD PTR [edi], eax
  00020	8b 41 e4	 mov	 eax, DWORD PTR [ecx-28]
  00023	89 47 04	 mov	 DWORD PTR [edi+4], eax
; File C:\Program Files\Microsoft Visual Studio\2022\Professional\VC\Tools\MSVC\14.44.35207\include\utility

; 773  :     _Ty _Old_val = static_cast<_Ty&&>(_Val);

  00026	8b 51 ec	 mov	 edx, DWORD PTR [ecx-20]
  00029	8b 71 f0	 mov	 esi, DWORD PTR [ecx-16]
  0002c	8b 41 e8	 mov	 eax, DWORD PTR [ecx-24]

; 774  :     _Val         = static_cast<_Other&&>(_New_val);

  0002f	c7 41 f0 00 00
	00 00		 mov	 DWORD PTR [ecx-16], 0
  00036	c7 41 ec 00 00
	00 00		 mov	 DWORD PTR [ecx-20], 0
  0003d	c7 41 e8 00 00
	00 00		 mov	 DWORD PTR [ecx-24], 0
; File C:\Program Files\Microsoft Visual Studio\2022\Professional\VC\Tools\MSVC\14.44.35207\include\vector

; 403  :         : _Myfirst(_First), _Mylast(_Last), _Myend(_End) {}

  00044	89 54 0b ec	 mov	 DWORD PTR [ebx+ecx-20], edx
; File C:\Program Files\Microsoft Visual Studio\2022\Professional\VC\Tools\MSVC\14.44.35207\include\xmemory

; 1998 :     for (; _UFirst != _ULast; ++_UFirst) {

  00048	8d 51 f4	 lea	 edx, DWORD PTR [ecx-12]
; File C:\Program Files\Microsoft Visual Studio\2022\Professional\VC\Tools\MSVC\14.44.35207\include\vector

; 403  :         : _Myfirst(_First), _Mylast(_Last), _Myend(_End) {}

  0004b	89 47 08	 mov	 DWORD PTR [edi+8], eax
  0004e	89 77 10	 mov	 DWORD PTR [edi+16], esi
; File C:\Program Files\Microsoft Visual Studio\2022\Professional\VC\Tools\MSVC\14.44.35207\include\xmemory

; 1845 :         ++_Last;

  00051	83 c7 14	 add	 edi, 20			; 00000014H

; 1998 :     for (; _UFirst != _ULast; ++_UFirst) {

  00054	3b 55 0c	 cmp	 edx, DWORD PTR __Last$[ebp]
  00057	75 bf		 jne	 SHORT $LL4@Uninitiali
  00059	5e		 pop	 esi
  0005a	5b		 pop	 ebx
$LN69@Uninitiali:

; 1999 :         _Backout._Emplace_back(_STD move(*_UFirst));
; 2000 :     }
; 2001 : 
; 2002 :     return _Backout._Release();
; 2003 : }

  0005b	8b c7		 mov	 eax, edi
  0005d	5f		 pop	 edi
  0005e	5d		 pop	 ebp
  0005f	c3		 ret	 0
??$_Uninitialized_move@PAU__GEMABILITY@CUltimateWeapon@@V?$allocator@U__GEMABILITY@CUltimateWeapon@@@std@@@std@@YAPAU__GEMABILITY@CUltimateWeapon@@QAU12@0PAU12@AAV?$allocator@U__GEMABILITY@CUltimateWeapon@@@0@@Z ENDP ; std::_Uninitialized_move<CUltimateWeapon::__GEMABILITY *,std::allocator<CUltimateWeapon::__GEMABILITY> >
_TEXT	ENDS
; Function compile flags: /Ogtp
; File C:\Program Files\Microsoft Visual Studio\2022\Professional\VC\Tools\MSVC\14.44.35207\include\vector
; File C:\Program Files\Microsoft Visual Studio\2022\Professional\VC\Tools\MSVC\14.44.35207\include\xmemory
; File C:\Program Files\Microsoft Visual Studio\2022\Professional\VC\Tools\MSVC\14.44.35207\include\vector
; File C:\Program Files\Microsoft Visual Studio\2022\Professional\VC\Tools\MSVC\14.44.35207\include\xmemory
; File C:\Program Files\Microsoft Visual Studio\2022\Professional\VC\Tools\MSVC\14.44.35207\include\vector
; File C:\Program Files\Microsoft Visual Studio\2022\Professional\VC\Tools\MSVC\14.44.35207\include\xmemory
; File C:\Program Files\Microsoft Visual Studio\2022\Professional\VC\Tools\MSVC\14.44.35207\include\vector
;	COMDAT ??1_Reallocation_guard@?$vector@U__GEMABILITY@CUltimateWeapon@@V?$allocator@U__GEMABILITY@CUltimateWeapon@@@std@@@std@@QAE@XZ
_TEXT	SEGMENT
??1_Reallocation_guard@?$vector@U__GEMABILITY@CUltimateWeapon@@V?$allocator@U__GEMABILITY@CUltimateWeapon@@@std@@@std@@QAE@XZ PROC ; std::vector<CUltimateWeapon::__GEMABILITY,std::allocator<CUltimateWeapon::__GEMABILITY> >::_Reallocation_guard::~_Reallocation_guard, COMDAT
; _this$ = ecx

; 620  :         _CONSTEXPR20 ~_Reallocation_guard() noexcept {

  00000	57		 push	 edi
  00001	8b f9		 mov	 edi, ecx

; 621  :             if (_New_begin != nullptr) {

  00003	83 7f 04 00	 cmp	 DWORD PTR [edi+4], 0
  00007	74 4d		 je	 SHORT $LN30@Reallocati

; 622  :                 _STD _Destroy_range(_Constructed_first, _Constructed_last, _Al);

  00009	53		 push	 ebx
  0000a	8b 5f 10	 mov	 ebx, DWORD PTR [edi+16]
  0000d	56		 push	 esi
  0000e	8b 77 0c	 mov	 esi, DWORD PTR [edi+12]
; File C:\Program Files\Microsoft Visual Studio\2022\Professional\VC\Tools\MSVC\14.44.35207\include\xmemory

; 1102 :         for (; _First != _Last; ++_First) {

  00011	3b f3		 cmp	 esi, ebx
  00013	74 0f		 je	 SHORT $LN7@Reallocati
$LL8@Reallocati:
; File C:\Program Files\Microsoft Visual Studio\2022\Professional\VC\Tools\MSVC\14.44.35207\include\vector

; 830  :         _Tidy();

  00015	8d 4e 08	 lea	 ecx, DWORD PTR [esi+8]
  00018	e8 00 00 00 00	 call	 ?_Tidy@?$vector@HV?$allocator@H@std@@@std@@AAEXXZ ; std::vector<int,std::allocator<int> >::_Tidy
; File C:\Program Files\Microsoft Visual Studio\2022\Professional\VC\Tools\MSVC\14.44.35207\include\xmemory

; 1102 :         for (; _First != _Last; ++_First) {

  0001d	83 c6 14	 add	 esi, 20			; 00000014H
  00020	3b f3		 cmp	 esi, ebx
  00022	75 f1		 jne	 SHORT $LL8@Reallocati
$LN7@Reallocati:

; 985  :         _STD _Deallocate<_New_alignof<_Ty>>(_Ptr, sizeof(_Ty) * _Count);

  00024	8b 47 08	 mov	 eax, DWORD PTR [edi+8]
  00027	5e		 pop	 esi
  00028	5b		 pop	 ebx
  00029	8d 0c 80	 lea	 ecx, DWORD PTR [eax+eax*4]
  0002c	8b 47 04	 mov	 eax, DWORD PTR [edi+4]
  0002f	c1 e1 02	 shl	 ecx, 2

; 284  :         if (_Bytes >= _Big_allocation_threshold) {

  00032	81 f9 00 10 00
	00		 cmp	 ecx, 4096		; 00001000H
  00038	72 12		 jb	 SHORT $LN35@Reallocati

; 205  :     const uintptr_t _Ptr_container   = _Ptr_user[-1];

  0003a	8b 50 fc	 mov	 edx, DWORD PTR [eax-4]
  0003d	83 c1 23	 add	 ecx, 35			; 00000023H

; 206  : 
; 207  :     // If the following asserts, it likely means that we are performing
; 208  :     // an aligned delete on memory coming from an unaligned allocation.
; 209  :     _STL_ASSERT(_Ptr_user[-2] == _Big_allocation_sentinel, "invalid argument");
; 210  : 
; 211  :     // Extra paranoia on aligned allocation/deallocation; ensure _Ptr_container is
; 212  :     // in range [_Min_back_shift, _Non_user_size]
; 213  : #ifdef _DEBUG
; 214  :     constexpr uintptr_t _Min_back_shift = 2 * sizeof(void*);
; 215  : #else // ^^^ defined(_DEBUG) / !defined(_DEBUG) vvv
; 216  :     constexpr uintptr_t _Min_back_shift = sizeof(void*);
; 217  : #endif // ^^^ !defined(_DEBUG) ^^^
; 218  :     const uintptr_t _Back_shift = reinterpret_cast<uintptr_t>(_Ptr) - _Ptr_container;

  00040	2b c2		 sub	 eax, edx

; 219  :     _STL_VERIFY(_Back_shift >= _Min_back_shift && _Back_shift <= _Non_user_size, "invalid argument");

  00042	83 c0 fc	 add	 eax, -4			; fffffffcH
  00045	83 f8 1f	 cmp	 eax, 31			; 0000001fH
  00048	77 0e		 ja	 SHORT $LN34@Reallocati

; 220  :     _Ptr = reinterpret_cast<void*>(_Ptr_container);

  0004a	8b c2		 mov	 eax, edx
$LN35@Reallocati:

; 289  :         ::operator delete(_Ptr, _Bytes);

  0004c	51		 push	 ecx
  0004d	50		 push	 eax
  0004e	e8 00 00 00 00	 call	 ??3@YAXPAXI@Z		; operator delete
  00053	83 c4 08	 add	 esp, 8
$LN30@Reallocati:
  00056	5f		 pop	 edi
; File C:\Program Files\Microsoft Visual Studio\2022\Professional\VC\Tools\MSVC\14.44.35207\include\vector

; 625  :         }

  00057	c3		 ret	 0
$LN34@Reallocati:
; File C:\Program Files\Microsoft Visual Studio\2022\Professional\VC\Tools\MSVC\14.44.35207\include\xmemory

; 219  :     _STL_VERIFY(_Back_shift >= _Min_back_shift && _Back_shift <= _Non_user_size, "invalid argument");

  00058	6a 00		 push	 0
  0005a	6a 00		 push	 0
  0005c	6a 00		 push	 0
  0005e	6a 00		 push	 0
  00060	6a 00		 push	 0
  00062	e8 00 00 00 00	 call	 __invoke_watson
$LN47@Reallocati:
  00067	cc		 int	 3
??1_Reallocation_guard@?$vector@U__GEMABILITY@CUltimateWeapon@@V?$allocator@U__GEMABILITY@CUltimateWeapon@@@std@@@std@@QAE@XZ ENDP ; std::vector<CUltimateWeapon::__GEMABILITY,std::allocator<CUltimateWeapon::__GEMABILITY> >::_Reallocation_guard::~_Reallocation_guard
_TEXT	ENDS
; Function compile flags: /Ogtp
; File C:\Program Files\Microsoft Visual Studio\2022\Professional\VC\Tools\MSVC\14.44.35207\include\xmemory
; File C:\Program Files\Microsoft Visual Studio\2022\Professional\VC\Tools\MSVC\14.44.35207\include\vector
; File C:\Program Files\Microsoft Visual Studio\2022\Professional\VC\Tools\MSVC\14.44.35207\include\xmemory
;	COMDAT ??1?$_Uninitialized_backout_al@V?$allocator@U__GEMABILITY@CUltimateWeapon@@@std@@@std@@QAE@XZ
_TEXT	SEGMENT
??1?$_Uninitialized_backout_al@V?$allocator@U__GEMABILITY@CUltimateWeapon@@@std@@@std@@QAE@XZ PROC ; std::_Uninitialized_backout_al<std::allocator<CUltimateWeapon::__GEMABILITY> >::~_Uninitialized_backout_al<std::allocator<CUltimateWeapon::__GEMABILITY> >, COMDAT
; _this$ = ecx

; 1838 :     _CONSTEXPR20 ~_Uninitialized_backout_al() {

  00000	56		 push	 esi

; 1839 :         _STD _Destroy_range(_First, _Last, _Al);

  00001	8b 31		 mov	 esi, DWORD PTR [ecx]
  00003	57		 push	 edi
  00004	8b 79 04	 mov	 edi, DWORD PTR [ecx+4]

; 1102 :         for (; _First != _Last; ++_First) {

  00007	3b f7		 cmp	 esi, edi
  00009	74 14		 je	 SHORT $LN6@Uninitiali
  0000b	0f 1f 44 00 00	 npad	 5
$LL7@Uninitiali:
; File C:\Program Files\Microsoft Visual Studio\2022\Professional\VC\Tools\MSVC\14.44.35207\include\vector

; 830  :         _Tidy();

  00010	8d 4e 08	 lea	 ecx, DWORD PTR [esi+8]
  00013	e8 00 00 00 00	 call	 ?_Tidy@?$vector@HV?$allocator@H@std@@@std@@AAEXXZ ; std::vector<int,std::allocator<int> >::_Tidy
; File C:\Program Files\Microsoft Visual Studio\2022\Professional\VC\Tools\MSVC\14.44.35207\include\xmemory

; 1102 :         for (; _First != _Last; ++_First) {

  00018	83 c6 14	 add	 esi, 20			; 00000014H
  0001b	3b f7		 cmp	 esi, edi
  0001d	75 f1		 jne	 SHORT $LL7@Uninitiali
$LN6@Uninitiali:
  0001f	5f		 pop	 edi

; 1840 :     }

  00020	5e		 pop	 esi
  00021	c3		 ret	 0
??1?$_Uninitialized_backout_al@V?$allocator@U__GEMABILITY@CUltimateWeapon@@@std@@@std@@QAE@XZ ENDP ; std::_Uninitialized_backout_al<std::allocator<CUltimateWeapon::__GEMABILITY> >::~_Uninitialized_backout_al<std::allocator<CUltimateWeapon::__GEMABILITY> >
_TEXT	ENDS
; Function compile flags: /Ogtp
; File C:\Program Files\Microsoft Visual Studio\2022\Professional\VC\Tools\MSVC\14.44.35207\include\xmemory
; File C:\Program Files\Microsoft Visual Studio\2022\Professional\VC\Tools\MSVC\14.44.35207\include\utility
; File C:\Program Files\Microsoft Visual Studio\2022\Professional\VC\Tools\MSVC\14.44.35207\include\vector
; File C:\Program Files\Microsoft Visual Studio\2022\Professional\VC\Tools\MSVC\14.44.35207\include\xmemory
; File C:\Program Files\Microsoft Visual Studio\2022\Professional\VC\Tools\MSVC\14.44.35207\include\vector
; File C:\Program Files\Microsoft Visual Studio\2022\Professional\VC\Tools\MSVC\14.44.35207\include\xmemory
;	COMDAT ??$_Uninitialized_move@PAU__GEMABILITYKIND@CUltimateWeapon@@V?$allocator@U__GEMABILITYKIND@CUltimateWeapon@@@std@@@std@@YAPAU__GEMABILITYKIND@CUltimateWeapon@@QAU12@0PAU12@AAV?$allocator@U__GEMABILITYKIND@CUltimateWeapon@@@0@@Z
_TEXT	SEGMENT
__First$ = 8						; size = 4
__Last$ = 12						; size = 4
__Dest$ = 16						; size = 4
__Al$ = 20						; size = 4
??$_Uninitialized_move@PAU__GEMABILITYKIND@CUltimateWeapon@@V?$allocator@U__GEMABILITYKIND@CUltimateWeapon@@@std@@@std@@YAPAU__GEMABILITYKIND@CUltimateWeapon@@QAU12@0PAU12@AAV?$allocator@U__GEMABILITYKIND@CUltimateWeapon@@@0@@Z PROC ; std::_Uninitialized_move<CUltimateWeapon::__GEMABILITYKIND *,std::allocator<CUltimateWeapon::__GEMABILITYKIND> >, COMDAT

; 1977 :     const _InIt _First, const _InIt _Last, _Alloc_ptr_t<_Alloc> _Dest, _Alloc& _Al) {

  00000	55		 push	 ebp
  00001	8b ec		 mov	 ebp, esp

; 1998 :     for (; _UFirst != _ULast; ++_UFirst) {

  00003	8b 45 08	 mov	 eax, DWORD PTR __First$[ebp]
  00006	57		 push	 edi

; 1833 :     _CONSTEXPR20 _Uninitialized_backout_al(pointer _Dest, _Alloc& _Al_) : _First(_Dest), _Last(_Dest), _Al(_Al_) {}

  00007	8b 7d 10	 mov	 edi, DWORD PTR __Dest$[ebp]

; 1998 :     for (; _UFirst != _ULast; ++_UFirst) {

  0000a	3b 45 0c	 cmp	 eax, DWORD PTR __Last$[ebp]
  0000d	74 46		 je	 SHORT $LN69@Uninitiali
  0000f	53		 push	 ebx

; 1833 :     _CONSTEXPR20 _Uninitialized_backout_al(pointer _Dest, _Alloc& _Al_) : _First(_Dest), _Last(_Dest), _Al(_Al_) {}

  00010	8b df		 mov	 ebx, edi
  00012	8d 48 08	 lea	 ecx, DWORD PTR [eax+8]
  00015	56		 push	 esi
  00016	2b d8		 sub	 ebx, eax
$LL4@Uninitiali:
  00018	8b 41 f8	 mov	 eax, DWORD PTR [ecx-8]

; 1845 :         ++_Last;

  0001b	8d 49 10	 lea	 ecx, DWORD PTR [ecx+16]
  0001e	89 07		 mov	 DWORD PTR [edi], eax
; File C:\Program Files\Microsoft Visual Studio\2022\Professional\VC\Tools\MSVC\14.44.35207\include\utility

; 773  :     _Ty _Old_val = static_cast<_Ty&&>(_Val);

  00020	8b 51 f0	 mov	 edx, DWORD PTR [ecx-16]
  00023	8b 71 f4	 mov	 esi, DWORD PTR [ecx-12]
  00026	8b 41 ec	 mov	 eax, DWORD PTR [ecx-20]

; 774  :     _Val         = static_cast<_Other&&>(_New_val);

  00029	c7 41 f4 00 00
	00 00		 mov	 DWORD PTR [ecx-12], 0
  00030	c7 41 f0 00 00
	00 00		 mov	 DWORD PTR [ecx-16], 0
  00037	c7 41 ec 00 00
	00 00		 mov	 DWORD PTR [ecx-20], 0
; File C:\Program Files\Microsoft Visual Studio\2022\Professional\VC\Tools\MSVC\14.44.35207\include\vector

; 403  :         : _Myfirst(_First), _Mylast(_Last), _Myend(_End) {}

  0003e	89 54 0b f0	 mov	 DWORD PTR [ebx+ecx-16], edx
; File C:\Program Files\Microsoft Visual Studio\2022\Professional\VC\Tools\MSVC\14.44.35207\include\xmemory

; 1998 :     for (; _UFirst != _ULast; ++_UFirst) {

  00042	8d 51 f8	 lea	 edx, DWORD PTR [ecx-8]
; File C:\Program Files\Microsoft Visual Studio\2022\Professional\VC\Tools\MSVC\14.44.35207\include\vector

; 403  :         : _Myfirst(_First), _Mylast(_Last), _Myend(_End) {}

  00045	89 47 04	 mov	 DWORD PTR [edi+4], eax
  00048	89 77 0c	 mov	 DWORD PTR [edi+12], esi
; File C:\Program Files\Microsoft Visual Studio\2022\Professional\VC\Tools\MSVC\14.44.35207\include\xmemory

; 1845 :         ++_Last;

  0004b	83 c7 10	 add	 edi, 16			; 00000010H

; 1998 :     for (; _UFirst != _ULast; ++_UFirst) {

  0004e	3b 55 0c	 cmp	 edx, DWORD PTR __Last$[ebp]
  00051	75 c5		 jne	 SHORT $LL4@Uninitiali
  00053	5e		 pop	 esi
  00054	5b		 pop	 ebx
$LN69@Uninitiali:

; 1999 :         _Backout._Emplace_back(_STD move(*_UFirst));
; 2000 :     }
; 2001 : 
; 2002 :     return _Backout._Release();
; 2003 : }

  00055	8b c7		 mov	 eax, edi
  00057	5f		 pop	 edi
  00058	5d		 pop	 ebp
  00059	c3		 ret	 0
??$_Uninitialized_move@PAU__GEMABILITYKIND@CUltimateWeapon@@V?$allocator@U__GEMABILITYKIND@CUltimateWeapon@@@std@@@std@@YAPAU__GEMABILITYKIND@CUltimateWeapon@@QAU12@0PAU12@AAV?$allocator@U__GEMABILITYKIND@CUltimateWeapon@@@0@@Z ENDP ; std::_Uninitialized_move<CUltimateWeapon::__GEMABILITYKIND *,std::allocator<CUltimateWeapon::__GEMABILITYKIND> >
_TEXT	ENDS
; Function compile flags: /Ogtp
; File C:\Program Files\Microsoft Visual Studio\2022\Professional\VC\Tools\MSVC\14.44.35207\include\vector
; File C:\Program Files\Microsoft Visual Studio\2022\Professional\VC\Tools\MSVC\14.44.35207\include\xmemory
; File C:\Program Files\Microsoft Visual Studio\2022\Professional\VC\Tools\MSVC\14.44.35207\include\vector
; File C:\Program Files\Microsoft Visual Studio\2022\Professional\VC\Tools\MSVC\14.44.35207\include\xmemory
; File C:\Program Files\Microsoft Visual Studio\2022\Professional\VC\Tools\MSVC\14.44.35207\include\vector
; File C:\Program Files\Microsoft Visual Studio\2022\Professional\VC\Tools\MSVC\14.44.35207\include\xmemory
; File C:\Program Files\Microsoft Visual Studio\2022\Professional\VC\Tools\MSVC\14.44.35207\include\vector
;	COMDAT ??1_Reallocation_guard@?$vector@U__GEMABILITYKIND@CUltimateWeapon@@V?$allocator@U__GEMABILITYKIND@CUltimateWeapon@@@std@@@std@@QAE@XZ
_TEXT	SEGMENT
??1_Reallocation_guard@?$vector@U__GEMABILITYKIND@CUltimateWeapon@@V?$allocator@U__GEMABILITYKIND@CUltimateWeapon@@@std@@@std@@QAE@XZ PROC ; std::vector<CUltimateWeapon::__GEMABILITYKIND,std::allocator<CUltimateWeapon::__GEMABILITYKIND> >::_Reallocation_guard::~_Reallocation_guard, COMDAT
; _this$ = ecx

; 620  :         _CONSTEXPR20 ~_Reallocation_guard() noexcept {

  00000	57		 push	 edi
  00001	8b f9		 mov	 edi, ecx

; 621  :             if (_New_begin != nullptr) {

  00003	83 7f 04 00	 cmp	 DWORD PTR [edi+4], 0
  00007	74 4a		 je	 SHORT $LN30@Reallocati

; 622  :                 _STD _Destroy_range(_Constructed_first, _Constructed_last, _Al);

  00009	53		 push	 ebx
  0000a	8b 5f 10	 mov	 ebx, DWORD PTR [edi+16]
  0000d	56		 push	 esi
  0000e	8b 77 0c	 mov	 esi, DWORD PTR [edi+12]
; File C:\Program Files\Microsoft Visual Studio\2022\Professional\VC\Tools\MSVC\14.44.35207\include\xmemory

; 1102 :         for (; _First != _Last; ++_First) {

  00011	3b f3		 cmp	 esi, ebx
  00013	74 0f		 je	 SHORT $LN7@Reallocati
$LL8@Reallocati:
; File C:\Program Files\Microsoft Visual Studio\2022\Professional\VC\Tools\MSVC\14.44.35207\include\vector

; 830  :         _Tidy();

  00015	8d 4e 04	 lea	 ecx, DWORD PTR [esi+4]
  00018	e8 00 00 00 00	 call	 ?_Tidy@?$vector@U__GEMABILITY@CUltimateWeapon@@V?$allocator@U__GEMABILITY@CUltimateWeapon@@@std@@@std@@AAEXXZ ; std::vector<CUltimateWeapon::__GEMABILITY,std::allocator<CUltimateWeapon::__GEMABILITY> >::_Tidy
; File C:\Program Files\Microsoft Visual Studio\2022\Professional\VC\Tools\MSVC\14.44.35207\include\xmemory

; 1102 :         for (; _First != _Last; ++_First) {

  0001d	83 c6 10	 add	 esi, 16			; 00000010H
  00020	3b f3		 cmp	 esi, ebx
  00022	75 f1		 jne	 SHORT $LL8@Reallocati
$LN7@Reallocati:

; 985  :         _STD _Deallocate<_New_alignof<_Ty>>(_Ptr, sizeof(_Ty) * _Count);

  00024	8b 4f 08	 mov	 ecx, DWORD PTR [edi+8]
  00027	8b 47 04	 mov	 eax, DWORD PTR [edi+4]
  0002a	c1 e1 04	 shl	 ecx, 4
  0002d	5e		 pop	 esi
  0002e	5b		 pop	 ebx

; 284  :         if (_Bytes >= _Big_allocation_threshold) {

  0002f	81 f9 00 10 00
	00		 cmp	 ecx, 4096		; 00001000H
  00035	72 12		 jb	 SHORT $LN35@Reallocati

; 205  :     const uintptr_t _Ptr_container   = _Ptr_user[-1];

  00037	8b 50 fc	 mov	 edx, DWORD PTR [eax-4]
  0003a	83 c1 23	 add	 ecx, 35			; 00000023H

; 206  : 
; 207  :     // If the following asserts, it likely means that we are performing
; 208  :     // an aligned delete on memory coming from an unaligned allocation.
; 209  :     _STL_ASSERT(_Ptr_user[-2] == _Big_allocation_sentinel, "invalid argument");
; 210  : 
; 211  :     // Extra paranoia on aligned allocation/deallocation; ensure _Ptr_container is
; 212  :     // in range [_Min_back_shift, _Non_user_size]
; 213  : #ifdef _DEBUG
; 214  :     constexpr uintptr_t _Min_back_shift = 2 * sizeof(void*);
; 215  : #else // ^^^ defined(_DEBUG) / !defined(_DEBUG) vvv
; 216  :     constexpr uintptr_t _Min_back_shift = sizeof(void*);
; 217  : #endif // ^^^ !defined(_DEBUG) ^^^
; 218  :     const uintptr_t _Back_shift = reinterpret_cast<uintptr_t>(_Ptr) - _Ptr_container;

  0003d	2b c2		 sub	 eax, edx

; 219  :     _STL_VERIFY(_Back_shift >= _Min_back_shift && _Back_shift <= _Non_user_size, "invalid argument");

  0003f	83 c0 fc	 add	 eax, -4			; fffffffcH
  00042	83 f8 1f	 cmp	 eax, 31			; 0000001fH
  00045	77 0e		 ja	 SHORT $LN34@Reallocati

; 220  :     _Ptr = reinterpret_cast<void*>(_Ptr_container);

  00047	8b c2		 mov	 eax, edx
$LN35@Reallocati:

; 289  :         ::operator delete(_Ptr, _Bytes);

  00049	51		 push	 ecx
  0004a	50		 push	 eax
  0004b	e8 00 00 00 00	 call	 ??3@YAXPAXI@Z		; operator delete
  00050	83 c4 08	 add	 esp, 8
$LN30@Reallocati:
  00053	5f		 pop	 edi
; File C:\Program Files\Microsoft Visual Studio\2022\Professional\VC\Tools\MSVC\14.44.35207\include\vector

; 625  :         }

  00054	c3		 ret	 0
$LN34@Reallocati:
; File C:\Program Files\Microsoft Visual Studio\2022\Professional\VC\Tools\MSVC\14.44.35207\include\xmemory

; 219  :     _STL_VERIFY(_Back_shift >= _Min_back_shift && _Back_shift <= _Non_user_size, "invalid argument");

  00055	6a 00		 push	 0
  00057	6a 00		 push	 0
  00059	6a 00		 push	 0
  0005b	6a 00		 push	 0
  0005d	6a 00		 push	 0
  0005f	e8 00 00 00 00	 call	 __invoke_watson
$LN47@Reallocati:
  00064	cc		 int	 3
??1_Reallocation_guard@?$vector@U__GEMABILITYKIND@CUltimateWeapon@@V?$allocator@U__GEMABILITYKIND@CUltimateWeapon@@@std@@@std@@QAE@XZ ENDP ; std::vector<CUltimateWeapon::__GEMABILITYKIND,std::allocator<CUltimateWeapon::__GEMABILITYKIND> >::_Reallocation_guard::~_Reallocation_guard
_TEXT	ENDS
; Function compile flags: /Ogtp
; File C:\Program Files\Microsoft Visual Studio\2022\Professional\VC\Tools\MSVC\14.44.35207\include\xmemory
; File C:\Program Files\Microsoft Visual Studio\2022\Professional\VC\Tools\MSVC\14.44.35207\include\vector
; File C:\Program Files\Microsoft Visual Studio\2022\Professional\VC\Tools\MSVC\14.44.35207\include\xmemory
; File C:\Program Files\Microsoft Visual Studio\2022\Professional\VC\Tools\MSVC\14.44.35207\include\vector
; File C:\Program Files\Microsoft Visual Studio\2022\Professional\VC\Tools\MSVC\14.44.35207\include\xmemory
; File C:\Program Files\Microsoft Visual Studio\2022\Professional\VC\Tools\MSVC\14.44.35207\include\vector
; File C:\Program Files\Microsoft Visual Studio\2022\Professional\VC\Tools\MSVC\14.44.35207\include\xmemory
; File C:\Program Files\Microsoft Visual Studio\2022\Professional\VC\Tools\MSVC\14.44.35207\include\vector
; File C:\Program Files\Microsoft Visual Studio\2022\Professional\VC\Tools\MSVC\14.44.35207\include\xmemory
;	COMDAT ??$construct@U__GEMABILITYKIND@CUltimateWeapon@@ABU12@@?$_Default_allocator_traits@V?$allocator@U__GEMABILITYKIND@CUltimateWeapon@@@std@@@std@@SAXAAV?$allocator@U__GEMABILITYKIND@CUltimateWeapon@@@1@QAU__GEMABILITYKIND@CUltimateWeapon@@ABU34@@Z
_TEXT	SEGMENT
__Backout$2 = -24					; size = 12
__$EHRec$ = -12						; size = 12
___formal$ = 8						; size = 4
__Ptr$ = 12						; size = 4
__Guard$3 = 12						; size = 4
_<_Args_0>$ = 16					; size = 4
_this$1$ = 16						; size = 4
??$construct@U__GEMABILITYKIND@CUltimateWeapon@@ABU12@@?$_Default_allocator_traits@V?$allocator@U__GEMABILITYKIND@CUltimateWeapon@@@std@@@std@@SAXAAV?$allocator@U__GEMABILITYKIND@CUltimateWeapon@@@1@QAU__GEMABILITYKIND@CUltimateWeapon@@ABU34@@Z PROC ; std::_Default_allocator_traits<std::allocator<CUltimateWeapon::__GEMABILITYKIND> >::construct<CUltimateWeapon::__GEMABILITYKIND,CUltimateWeapon::__GEMABILITYKIND const &>, COMDAT

; 728  :     static _CONSTEXPR20 void construct(_Alloc&, _Objty* const _Ptr, _Types&&... _Args) {

  00000	55		 push	 ebp
  00001	8b ec		 mov	 ebp, esp
  00003	6a ff		 push	 -1
  00005	68 00 00 00 00	 push	 __ehhandler$??$construct@U__GEMABILITYKIND@CUltimateWeapon@@ABU12@@?$_Default_allocator_traits@V?$allocator@U__GEMABILITYKIND@CUltimateWeapon@@@std@@@std@@SAXAAV?$allocator@U__GEMABILITYKIND@CUltimateWeapon@@@1@QAU__GEMABILITYKIND@CUltimateWeapon@@ABU34@@Z
  0000a	64 a1 00 00 00
	00		 mov	 eax, DWORD PTR fs:0
  00010	50		 push	 eax
  00011	83 ec 0c	 sub	 esp, 12			; 0000000cH
  00014	53		 push	 ebx
  00015	56		 push	 esi
  00016	57		 push	 edi
  00017	a1 00 00 00 00	 mov	 eax, DWORD PTR ___security_cookie
  0001c	33 c5		 xor	 eax, ebp
  0001e	50		 push	 eax
  0001f	8d 45 f4	 lea	 eax, DWORD PTR __$EHRec$[ebp]
  00022	64 a3 00 00 00
	00		 mov	 DWORD PTR fs:0, eax
  00028	8b 75 10	 mov	 esi, DWORD PTR _<_Args_0>$[ebp]
  0002b	8b 4d 0c	 mov	 ecx, DWORD PTR __Ptr$[ebp]
  0002e	8d 59 04	 lea	 ebx, DWORD PTR [ecx+4]
  00031	89 5d 10	 mov	 DWORD PTR _this$1$[ebp], ebx
  00034	8b 06		 mov	 eax, DWORD PTR [esi]
  00036	89 01		 mov	 DWORD PTR [ecx], eax
; File C:\Program Files\Microsoft Visual Studio\2022\Professional\VC\Tools\MSVC\14.44.35207\include\vector

; 748  :         const auto _Count       = static_cast<size_type>(_Right_data._Mylast - _Right_data._Myfirst);

  00038	b8 67 66 66 66	 mov	 eax, 1717986919		; 66666667H

; 400  :     _CONSTEXPR20 _Vector_val() noexcept : _Myfirst(), _Mylast(), _Myend() {}

  0003d	c7 03 00 00 00
	00		 mov	 DWORD PTR [ebx], 0
  00043	c7 43 04 00 00
	00 00		 mov	 DWORD PTR [ebx+4], 0
  0004a	c7 43 08 00 00
	00 00		 mov	 DWORD PTR [ebx+8], 0

; 748  :         const auto _Count       = static_cast<size_type>(_Right_data._Mylast - _Right_data._Myfirst);

  00051	8b 4e 08	 mov	 ecx, DWORD PTR [esi+8]
  00054	2b 4e 04	 sub	 ecx, DWORD PTR [esi+4]
  00057	f7 e9		 imul	 ecx
  00059	c1 fa 03	 sar	 edx, 3
  0005c	8b c2		 mov	 eax, edx
  0005e	c1 e8 1f	 shr	 eax, 31			; 0000001fH
  00061	03 c2		 add	 eax, edx

; 2111 :         if (_Count != 0) {

  00063	74 56		 je	 SHORT $LN60@construct

; 2051 :         if (_Newcapacity > max_size()) {

  00065	3d cc cc cc 0c	 cmp	 eax, 214748364		; 0cccccccH
  0006a	77 61		 ja	 SHORT $LN77@construct

; 2053 :         }
; 2054 : 
; 2055 :         _Buy_raw(_Newcapacity);

  0006c	50		 push	 eax
  0006d	8b cb		 mov	 ecx, ebx
  0006f	e8 00 00 00 00	 call	 ?_Buy_raw@?$vector@U__GEMABILITY@CUltimateWeapon@@V?$allocator@U__GEMABILITY@CUltimateWeapon@@@std@@@std@@AAEXI@Z ; std::vector<CUltimateWeapon::__GEMABILITY,std::allocator<CUltimateWeapon::__GEMABILITY> >::_Buy_raw

; 2113 :             _Tidy_guard<vector> _Guard{this};

  00074	89 5d 0c	 mov	 DWORD PTR __Guard$3[ebp], ebx

; 2120 :                 _My_data._Mylast = _STD _Uninitialized_copy(_STD forward<_Valty>(_Val)..., _My_data._Myfirst, _Al);

  00077	8b 3b		 mov	 edi, DWORD PTR [ebx]
  00079	8b 5e 08	 mov	 ebx, DWORD PTR [esi+8]
; File C:\Program Files\Microsoft Visual Studio\2022\Professional\VC\Tools\MSVC\14.44.35207\include\xmemory

; 1833 :     _CONSTEXPR20 _Uninitialized_backout_al(pointer _Dest, _Alloc& _Al_) : _First(_Dest), _Last(_Dest), _Al(_Al_) {}

  0007c	8b 45 10	 mov	 eax, DWORD PTR _this$1$[ebp]
; File C:\Program Files\Microsoft Visual Studio\2022\Professional\VC\Tools\MSVC\14.44.35207\include\vector

; 2120 :                 _My_data._Mylast = _STD _Uninitialized_copy(_STD forward<_Valty>(_Val)..., _My_data._Myfirst, _Al);

  0007f	8b 76 04	 mov	 esi, DWORD PTR [esi+4]
  00082	c7 45 fc 00 00
	00 00		 mov	 DWORD PTR __$EHRec$[ebp+8], 0
; File C:\Program Files\Microsoft Visual Studio\2022\Professional\VC\Tools\MSVC\14.44.35207\include\xmemory

; 1833 :     _CONSTEXPR20 _Uninitialized_backout_al(pointer _Dest, _Alloc& _Al_) : _First(_Dest), _Last(_Dest), _Al(_Al_) {}

  00089	89 7d e8	 mov	 DWORD PTR __Backout$2[ebp], edi
  0008c	89 7d ec	 mov	 DWORD PTR __Backout$2[ebp+4], edi
  0008f	89 45 f0	 mov	 DWORD PTR __Backout$2[ebp+8], eax

; 1900 :     _Uninitialized_backout_al<_Alloc> _Backout{_Dest, _Al};

  00092	c6 45 fc 01	 mov	 BYTE PTR __$EHRec$[ebp+8], 1

; 1901 :     for (; _UFirst != _ULast; ++_UFirst) {

  00096	3b f3		 cmp	 esi, ebx
  00098	74 1e		 je	 SHORT $LN24@construct
  0009a	66 0f 1f 44 00
	00		 npad	 6
$LL25@construct:

; 732  :         ::new (const_cast<void*>(static_cast<const volatile void*>(_Ptr))) _Objty(_STD forward<_Types>(_Args)...);

  000a0	56		 push	 esi
  000a1	8b cf		 mov	 ecx, edi
  000a3	e8 00 00 00 00	 call	 ??0__GEMABILITY@CUltimateWeapon@@QAE@ABU01@@Z

; 1845 :         ++_Last;

  000a8	83 c7 14	 add	 edi, 20			; 00000014H

; 1901 :     for (; _UFirst != _ULast; ++_UFirst) {

  000ab	83 c6 14	 add	 esi, 20			; 00000014H

; 1845 :         ++_Last;

  000ae	89 7d ec	 mov	 DWORD PTR __Backout$2[ebp+4], edi

; 1901 :     for (; _UFirst != _ULast; ++_UFirst) {

  000b1	3b f3		 cmp	 esi, ebx
  000b3	75 eb		 jne	 SHORT $LL25@construct
  000b5	8b 45 10	 mov	 eax, DWORD PTR _this$1$[ebp]
$LN24@construct:
; File C:\Program Files\Microsoft Visual Studio\2022\Professional\VC\Tools\MSVC\14.44.35207\include\vector

; 2120 :                 _My_data._Mylast = _STD _Uninitialized_copy(_STD forward<_Valty>(_Val)..., _My_data._Myfirst, _Al);

  000b8	89 78 04	 mov	 DWORD PTR [eax+4], edi
$LN60@construct:
; File C:\Program Files\Microsoft Visual Studio\2022\Professional\VC\Tools\MSVC\14.44.35207\include\xmemory

; 734  :     }

  000bb	8b 4d f4	 mov	 ecx, DWORD PTR __$EHRec$[ebp]
  000be	64 89 0d 00 00
	00 00		 mov	 DWORD PTR fs:0, ecx
  000c5	59		 pop	 ecx
  000c6	5f		 pop	 edi
  000c7	5e		 pop	 esi
  000c8	5b		 pop	 ebx
  000c9	8b e5		 mov	 esp, ebp
  000cb	5d		 pop	 ebp
  000cc	c3		 ret	 0
$LN77@construct:
; File C:\Program Files\Microsoft Visual Studio\2022\Professional\VC\Tools\MSVC\14.44.35207\include\vector

; 2052 :             _Xlength();

  000cd	e8 00 00 00 00	 call	 ?_Xlength@?$vector@U__GEMABILITY@CUltimateWeapon@@V?$allocator@U__GEMABILITY@CUltimateWeapon@@@std@@@std@@CAXXZ ; std::vector<CUltimateWeapon::__GEMABILITY,std::allocator<CUltimateWeapon::__GEMABILITY> >::_Xlength
$LN75@construct:
  000d2	cc		 int	 3
_TEXT	ENDS
;	COMDAT text$x
text$x	SEGMENT
__unwindfunclet$??$construct@U__GEMABILITYKIND@CUltimateWeapon@@ABU12@@?$_Default_allocator_traits@V?$allocator@U__GEMABILITYKIND@CUltimateWeapon@@@std@@@std@@SAXAAV?$allocator@U__GEMABILITYKIND@CUltimateWeapon@@@1@QAU__GEMABILITYKIND@CUltimateWeapon@@ABU34@@Z$1:
  00000	8d 4d 0c	 lea	 ecx, DWORD PTR __Guard$3[ebp]
  00003	e9 00 00 00 00	 jmp	 ??1?$_Tidy_guard@V?$vector@U__GEMABILITY@CUltimateWeapon@@V?$allocator@U__GEMABILITY@CUltimateWeapon@@@std@@@std@@@std@@QAE@XZ ; std::_Tidy_guard<std::vector<CUltimateWeapon::__GEMABILITY,std::allocator<CUltimateWeapon::__GEMABILITY> > >::~_Tidy_guard<std::vector<CUltimateWeapon::__GEMABILITY,std::allocator<CUltimateWeapon::__GEMABILITY> > >
__unwindfunclet$??$construct@U__GEMABILITYKIND@CUltimateWeapon@@ABU12@@?$_Default_allocator_traits@V?$allocator@U__GEMABILITYKIND@CUltimateWeapon@@@std@@@std@@SAXAAV?$allocator@U__GEMABILITYKIND@CUltimateWeapon@@@1@QAU__GEMABILITYKIND@CUltimateWeapon@@ABU34@@Z$2:
  00008	8d 4d e8	 lea	 ecx, DWORD PTR __Backout$2[ebp]
  0000b	e9 00 00 00 00	 jmp	 ??1?$_Uninitialized_backout_al@V?$allocator@U__GEMABILITY@CUltimateWeapon@@@std@@@std@@QAE@XZ ; std::_Uninitialized_backout_al<std::allocator<CUltimateWeapon::__GEMABILITY> >::~_Uninitialized_backout_al<std::allocator<CUltimateWeapon::__GEMABILITY> >
  00010	cc		 int	 3
  00011	cc		 int	 3
  00012	cc		 int	 3
  00013	cc		 int	 3
  00014	cc		 int	 3
__ehhandler$??$construct@U__GEMABILITYKIND@CUltimateWeapon@@ABU12@@?$_Default_allocator_traits@V?$allocator@U__GEMABILITYKIND@CUltimateWeapon@@@std@@@std@@SAXAAV?$allocator@U__GEMABILITYKIND@CUltimateWeapon@@@1@QAU__GEMABILITYKIND@CUltimateWeapon@@ABU34@@Z:
  00015	90		 npad	 1
  00016	90		 npad	 1
  00017	8b 54 24 08	 mov	 edx, DWORD PTR [esp+8]
  0001b	8d 42 0c	 lea	 eax, DWORD PTR [edx+12]
  0001e	8b 4a e4	 mov	 ecx, DWORD PTR [edx-28]
  00021	33 c8		 xor	 ecx, eax
  00023	e8 00 00 00 00	 call	 @__security_check_cookie@4
  00028	b8 00 00 00 00	 mov	 eax, OFFSET __ehfuncinfo$??$construct@U__GEMABILITYKIND@CUltimateWeapon@@ABU12@@?$_Default_allocator_traits@V?$allocator@U__GEMABILITYKIND@CUltimateWeapon@@@std@@@std@@SAXAAV?$allocator@U__GEMABILITYKIND@CUltimateWeapon@@@1@QAU__GEMABILITYKIND@CUltimateWeapon@@ABU34@@Z
  0002d	e9 00 00 00 00	 jmp	 ___CxxFrameHandler3
text$x	ENDS
??$construct@U__GEMABILITYKIND@CUltimateWeapon@@ABU12@@?$_Default_allocator_traits@V?$allocator@U__GEMABILITYKIND@CUltimateWeapon@@@std@@@std@@SAXAAV?$allocator@U__GEMABILITYKIND@CUltimateWeapon@@@1@QAU__GEMABILITYKIND@CUltimateWeapon@@ABU34@@Z ENDP ; std::_Default_allocator_traits<std::allocator<CUltimateWeapon::__GEMABILITYKIND> >::construct<CUltimateWeapon::__GEMABILITYKIND,CUltimateWeapon::__GEMABILITYKIND const &>
; Function compile flags: /Ogtp
; File C:\Program Files\Microsoft Visual Studio\2022\Professional\VC\Tools\MSVC\14.44.35207\include\vector
; File C:\Program Files\Microsoft Visual Studio\2022\Professional\VC\Tools\MSVC\14.44.35207\include\xmemory
; File C:\Program Files\Microsoft Visual Studio\2022\Professional\VC\Tools\MSVC\14.44.35207\include\vector
; File C:\Program Files\Microsoft Visual Studio\2022\Professional\VC\Tools\MSVC\14.44.35207\include\xmemory
; File C:\Program Files\Microsoft Visual Studio\2022\Professional\VC\Tools\MSVC\14.44.35207\include\vector
; File C:\Program Files\Microsoft Visual Studio\2022\Professional\VC\Tools\MSVC\14.44.35207\include\xmemory
; File C:\Program Files\Microsoft Visual Studio\2022\Professional\VC\Tools\MSVC\14.44.35207\include\vector
; File C:\Program Files\Microsoft Visual Studio\2022\Professional\VC\Tools\MSVC\14.44.35207\include\xmemory
; File C:\Program Files\Microsoft Visual Studio\2022\Professional\VC\Tools\MSVC\14.44.35207\include\vector
; File C:\Program Files\Microsoft Visual Studio\2022\Professional\VC\Tools\MSVC\14.44.35207\include\xmemory
; File C:\Program Files\Microsoft Visual Studio\2022\Professional\VC\Tools\MSVC\14.44.35207\include\vector
; File C:\Program Files\Microsoft Visual Studio\2022\Professional\VC\Tools\MSVC\14.44.35207\include\xmemory
; File C:\Program Files\Microsoft Visual Studio\2022\Professional\VC\Tools\MSVC\14.44.35207\include\vector
; File C:\Program Files\Microsoft Visual Studio\2022\Professional\VC\Tools\MSVC\14.44.35207\include\xmemory
; File C:\Program Files\Microsoft Visual Studio\2022\Professional\VC\Tools\MSVC\14.44.35207\include\vector
; File C:\Program Files\Microsoft Visual Studio\2022\Professional\VC\Tools\MSVC\14.44.35207\include\xmemory
; File C:\Program Files\Microsoft Visual Studio\2022\Professional\VC\Tools\MSVC\14.44.35207\include\vector
;	COMDAT ??$_Emplace_reallocate@H@?$vector@HV?$allocator@H@std@@@std@@AAEPAHQAH$$QAH@Z
_TEXT	SEGMENT
__Newsize$1$ = -12					; size = 4
tv652 = -8						; size = 4
tv650 = -4						; size = 4
__Whereptr$ = 8						; size = 4
_<_Val_0>$ = 12						; size = 4
??$_Emplace_reallocate@H@?$vector@HV?$allocator@H@std@@@std@@AAEPAHQAH$$QAH@Z PROC ; std::vector<int,std::allocator<int> >::_Emplace_reallocate<int>, COMDAT
; _this$ = ecx

; 875  :     _CONSTEXPR20 pointer _Emplace_reallocate(const pointer _Whereptr, _Valty&&... _Val) {

  00000	55		 push	 ebp
  00001	8b ec		 mov	 ebp, esp
  00003	83 ec 0c	 sub	 esp, 12			; 0000000cH
  00006	53		 push	 ebx

; 876  :         // reallocate and insert by perfectly forwarding _Val at _Whereptr
; 877  :         _Alty& _Al        = _Getal();
; 878  :         auto& _My_data    = _Mypair._Myval2;
; 879  :         pointer& _Myfirst = _My_data._Myfirst;
; 880  :         pointer& _Mylast  = _My_data._Mylast;
; 881  : 
; 882  :         _STL_INTERNAL_CHECK(_Mylast == _My_data._Myend); // check that we have no unused capacity
; 883  : 
; 884  :         const auto _Whereoff = static_cast<size_type>(_Whereptr - _Myfirst);

  00007	8b 5d 08	 mov	 ebx, DWORD PTR __Whereptr$[ebp]
  0000a	56		 push	 esi
  0000b	8b f1		 mov	 esi, ecx
  0000d	57		 push	 edi
  0000e	8b 0e		 mov	 ecx, DWORD PTR [esi]
  00010	2b d9		 sub	 ebx, ecx

; 885  :         const auto _Oldsize  = static_cast<size_type>(_Mylast - _Myfirst);

  00012	8b 46 04	 mov	 eax, DWORD PTR [esi+4]
  00015	2b c1		 sub	 eax, ecx
  00017	c1 fb 02	 sar	 ebx, 2
  0001a	c1 f8 02	 sar	 eax, 2

; 886  : 
; 887  :         if (_Oldsize == max_size()) {

  0001d	3d ff ff ff 3f	 cmp	 eax, 1073741823		; 3fffffffH
  00022	0f 84 13 01 00
	00		 je	 $LN111@Emplace_re

; 1924 :         return static_cast<size_type>(_My_data._Myend - _My_data._Myfirst);

  00028	8b 56 08	 mov	 edx, DWORD PTR [esi+8]

; 889  :         }
; 890  : 
; 891  :         const size_type _Newsize = _Oldsize + 1;

  0002b	8d 78 01	 lea	 edi, DWORD PTR [eax+1]

; 1924 :         return static_cast<size_type>(_My_data._Myend - _My_data._Myfirst);

  0002e	2b d1		 sub	 edx, ecx

; 889  :         }
; 890  : 
; 891  :         const size_type _Newsize = _Oldsize + 1;

  00030	89 7d f4	 mov	 DWORD PTR __Newsize$1$[ebp], edi

; 1924 :         return static_cast<size_type>(_My_data._Myend - _My_data._Myfirst);

  00033	c1 fa 02	 sar	 edx, 2

; 2011 :         if (_Oldcapacity > _Max - _Oldcapacity / 2) {

  00036	b8 ff ff ff 3f	 mov	 eax, 1073741823		; 3fffffffH
  0003b	8b ca		 mov	 ecx, edx
  0003d	d1 e9		 shr	 ecx, 1
  0003f	2b c1		 sub	 eax, ecx
  00041	3b d0		 cmp	 edx, eax
  00043	76 14		 jbe	 SHORT $LN8@Emplace_re

; 2012 :             return _Max; // geometric growth would overflow

  00045	b8 fc ff ff ff	 mov	 eax, -4			; fffffffcH
  0004a	c7 45 f8 fc ff
	ff ff		 mov	 DWORD PTR tv652[ebp], -4 ; fffffffcH
; File C:\Program Files\Microsoft Visual Studio\2022\Professional\VC\Tools\MSVC\14.44.35207\include\xmemory

; 253  :             return _Allocate_manually_vector_aligned<_Traits>(_Bytes);

  00051	50		 push	 eax
  00052	e8 00 00 00 00	 call	 ??$_Allocate_manually_vector_aligned@U_Default_allocate_traits@std@@@std@@YAPAXI@Z ; std::_Allocate_manually_vector_aligned<std::_Default_allocate_traits>
  00057	eb 3d		 jmp	 SHORT $LN109@Emplace_re
$LN8@Emplace_re:
; File C:\Program Files\Microsoft Visual Studio\2022\Professional\VC\Tools\MSVC\14.44.35207\include\vector

; 2015 :         const size_type _Geometric = _Oldcapacity + _Oldcapacity / 2;

  00059	8d 04 11	 lea	 eax, DWORD PTR [ecx+edx]
; File C:\Program Files\Microsoft Visual Studio\2022\Professional\VC\Tools\MSVC\14.44.35207\include\xmemory

; 117  :         if (_Count > _Max_possible) {

  0005c	8b cf		 mov	 ecx, edi
  0005e	3b c7		 cmp	 eax, edi
  00060	0f 43 c8	 cmovae	 ecx, eax
  00063	81 f9 ff ff ff
	3f		 cmp	 ecx, 1073741823		; 3fffffffH
  00069	0f 87 d1 00 00
	00		 ja	 $LN112@Emplace_re

; 119  :         }
; 120  :     }
; 121  : 
; 122  :     return _Count * _Ty_size;

  0006f	8d 04 8d 00 00
	00 00		 lea	 eax, DWORD PTR [ecx*4]
  00076	89 45 f8	 mov	 DWORD PTR tv652[ebp], eax

; 227  :     if (_Bytes == 0) {

  00079	85 c0		 test	 eax, eax
  0007b	75 04		 jne	 SHORT $LN23@Emplace_re

; 228  :         return nullptr;

  0007d	33 ff		 xor	 edi, edi
  0007f	eb 1a		 jmp	 SHORT $LN22@Emplace_re
$LN23@Emplace_re:

; 229  :     }
; 230  : 
; 231  : #if _HAS_CXX20 // TRANSITION, GH-1532
; 232  :     if (_STD is_constant_evaluated()) {
; 233  :         return _Traits::_Allocate(_Bytes);
; 234  :     }
; 235  : #endif // _HAS_CXX20
; 236  : 
; 237  : #ifdef __cpp_aligned_new
; 238  :     if constexpr (_Align > __STDCPP_DEFAULT_NEW_ALIGNMENT__) {
; 239  :         size_t _Passed_align = _Align;
; 240  : #if defined(_M_IX86) || defined(_M_X64)
; 241  :         if (_Bytes >= _Big_allocation_threshold) {
; 242  :             // boost the alignment of big allocations to help autovectorization
; 243  :             _Passed_align = (_STD max)(_Align, _Big_allocation_alignment);
; 244  :         }
; 245  : #endif // defined(_M_IX86) || defined(_M_X64)
; 246  :         return _Traits::_Allocate_aligned(_Bytes, _Passed_align);
; 247  :     } else
; 248  : #endif // defined(__cpp_aligned_new)
; 249  :     {
; 250  : #if defined(_M_IX86) || defined(_M_X64)
; 251  :         if (_Bytes >= _Big_allocation_threshold) {

  00081	3d 00 10 00 00	 cmp	 eax, 4096		; 00001000H
  00086	72 08		 jb	 SHORT $LN24@Emplace_re

; 253  :             return _Allocate_manually_vector_aligned<_Traits>(_Bytes);

  00088	50		 push	 eax
  00089	e8 00 00 00 00	 call	 ??$_Allocate_manually_vector_aligned@U_Default_allocate_traits@std@@@std@@YAPAXI@Z ; std::_Allocate_manually_vector_aligned<std::_Default_allocate_traits>
  0008e	eb 06		 jmp	 SHORT $LN109@Emplace_re
$LN24@Emplace_re:

; 136  :         return ::operator new(_Bytes);

  00090	50		 push	 eax
  00091	e8 00 00 00 00	 call	 ??2@YAPAXI@Z		; operator new
$LN109@Emplace_re:
; File C:\Program Files\Microsoft Visual Studio\2022\Professional\VC\Tools\MSVC\14.44.35207\include\vector

; 900  :         _Alty_traits::construct(_Al, _STD _Unfancy(_Newvec + _Whereoff), _STD forward<_Valty>(_Val)...);

  00096	8b f8		 mov	 edi, eax
  00098	83 c4 04	 add	 esp, 4
$LN22@Emplace_re:
  0009b	8b 45 0c	 mov	 eax, DWORD PTR _<_Val_0>$[ebp]
  0009e	8d 0c 9f	 lea	 ecx, DWORD PTR [edi+ebx*4]

; 901  :         _Constructed_first = _Newvec + _Whereoff;
; 902  : 
; 903  :         if (_Whereptr == _Mylast) { // at back, provide strong guarantee

  000a1	8b 5d 08	 mov	 ebx, DWORD PTR __Whereptr$[ebp]
  000a4	89 4d fc	 mov	 DWORD PTR tv650[ebp], ecx
  000a7	8b 00		 mov	 eax, DWORD PTR [eax]
  000a9	89 01		 mov	 DWORD PTR [ecx], eax
  000ab	8b 46 04	 mov	 eax, DWORD PTR [esi+4]
  000ae	8b 0e		 mov	 ecx, DWORD PTR [esi]
  000b0	3b d8		 cmp	 ebx, eax
  000b2	75 07		 jne	 SHORT $LN3@Emplace_re

; 909  :         } else { // provide basic guarantee

  000b4	8b 5d fc	 mov	 ebx, DWORD PTR tv650[ebp]
; File C:\Program Files\Microsoft Visual Studio\2022\Professional\VC\Tools\MSVC\14.44.35207\include\xmemory

; 1992 :             _STD _Copy_memmove(_UFirst, _ULast, _STD _Unfancy(_Dest));

  000b7	8b d7		 mov	 edx, edi
; File C:\Program Files\Microsoft Visual Studio\2022\Professional\VC\Tools\MSVC\14.44.35207\include\vector

; 909  :         } else { // provide basic guarantee

  000b9	eb 16		 jmp	 SHORT $LN52@Emplace_re
$LN3@Emplace_re:
; File C:\Program Files\Microsoft Visual Studio\2022\Professional\VC\Tools\MSVC\14.44.35207\include\xmemory

; 1992 :             _STD _Copy_memmove(_UFirst, _ULast, _STD _Unfancy(_Dest));

  000bb	57		 push	 edi
  000bc	53		 push	 ebx
  000bd	51		 push	 ecx
  000be	e8 00 00 00 00	 call	 ??$_Copy_memmove@PAHPAH@std@@YAPAHPAH00@Z ; std::_Copy_memmove<int *,int *>
  000c3	8b 46 04	 mov	 eax, DWORD PTR [esi+4]
  000c6	8b cb		 mov	 ecx, ebx
; File C:\Program Files\Microsoft Visual Studio\2022\Professional\VC\Tools\MSVC\14.44.35207\include\vector

; 912  :             _STD _Uninitialized_move(_Whereptr, _Mylast, _Newvec + _Whereoff + 1, _Al);

  000c8	8b 5d fc	 mov	 ebx, DWORD PTR tv650[ebp]
; File C:\Program Files\Microsoft Visual Studio\2022\Professional\VC\Tools\MSVC\14.44.35207\include\xmemory

; 1992 :             _STD _Copy_memmove(_UFirst, _ULast, _STD _Unfancy(_Dest));

  000cb	83 c4 0c	 add	 esp, 12			; 0000000cH
; File C:\Program Files\Microsoft Visual Studio\2022\Professional\VC\Tools\MSVC\14.44.35207\include\vector

; 912  :             _STD _Uninitialized_move(_Whereptr, _Mylast, _Newvec + _Whereoff + 1, _Al);

  000ce	8d 53 04	 lea	 edx, DWORD PTR [ebx+4]
$LN52@Emplace_re:

; 913  :         }
; 914  : 
; 915  :         _Guard._New_begin = nullptr;

  000d1	52		 push	 edx
  000d2	50		 push	 eax
  000d3	51		 push	 ecx
  000d4	e8 00 00 00 00	 call	 ??$_Copy_memmove@PAHPAH@std@@YAPAHPAH00@Z ; std::_Copy_memmove<int *,int *>

; 2069 :         if (_Myfirst) { // destroy and deallocate old array

  000d9	8b 06		 mov	 eax, DWORD PTR [esi]

; 913  :         }
; 914  : 
; 915  :         _Guard._New_begin = nullptr;

  000db	83 c4 0c	 add	 esp, 12			; 0000000cH

; 2069 :         if (_Myfirst) { // destroy and deallocate old array

  000de	85 c0		 test	 eax, eax
  000e0	74 2c		 je	 SHORT $LN72@Emplace_re

; 2070 :             _STD _Destroy_range(_Myfirst, _Mylast, _Al);
; 2071 :             _ASAN_VECTOR_REMOVE;
; 2072 :             _Al.deallocate(_Myfirst, static_cast<size_type>(_Myend - _Myfirst));

  000e2	8b 4e 08	 mov	 ecx, DWORD PTR [esi+8]
  000e5	2b c8		 sub	 ecx, eax
; File C:\Program Files\Microsoft Visual Studio\2022\Professional\VC\Tools\MSVC\14.44.35207\include\xmemory

; 985  :         _STD _Deallocate<_New_alignof<_Ty>>(_Ptr, sizeof(_Ty) * _Count);

  000e7	83 e1 fc	 and	 ecx, -4			; fffffffcH

; 284  :         if (_Bytes >= _Big_allocation_threshold) {

  000ea	81 f9 00 10 00
	00		 cmp	 ecx, 4096		; 00001000H
  000f0	72 12		 jb	 SHORT $LN77@Emplace_re

; 205  :     const uintptr_t _Ptr_container   = _Ptr_user[-1];

  000f2	8b 50 fc	 mov	 edx, DWORD PTR [eax-4]
  000f5	83 c1 23	 add	 ecx, 35			; 00000023H

; 206  : 
; 207  :     // If the following asserts, it likely means that we are performing
; 208  :     // an aligned delete on memory coming from an unaligned allocation.
; 209  :     _STL_ASSERT(_Ptr_user[-2] == _Big_allocation_sentinel, "invalid argument");
; 210  : 
; 211  :     // Extra paranoia on aligned allocation/deallocation; ensure _Ptr_container is
; 212  :     // in range [_Min_back_shift, _Non_user_size]
; 213  : #ifdef _DEBUG
; 214  :     constexpr uintptr_t _Min_back_shift = 2 * sizeof(void*);
; 215  : #else // ^^^ defined(_DEBUG) / !defined(_DEBUG) vvv
; 216  :     constexpr uintptr_t _Min_back_shift = sizeof(void*);
; 217  : #endif // ^^^ !defined(_DEBUG) ^^^
; 218  :     const uintptr_t _Back_shift = reinterpret_cast<uintptr_t>(_Ptr) - _Ptr_container;

  000f8	2b c2		 sub	 eax, edx

; 219  :     _STL_VERIFY(_Back_shift >= _Min_back_shift && _Back_shift <= _Non_user_size, "invalid argument");

  000fa	83 c0 fc	 add	 eax, -4			; fffffffcH
  000fd	83 f8 1f	 cmp	 eax, 31			; 0000001fH
  00100	77 2a		 ja	 SHORT $LN76@Emplace_re

; 220  :     _Ptr = reinterpret_cast<void*>(_Ptr_container);

  00102	8b c2		 mov	 eax, edx
$LN77@Emplace_re:

; 289  :         ::operator delete(_Ptr, _Bytes);

  00104	51		 push	 ecx
  00105	50		 push	 eax
  00106	e8 00 00 00 00	 call	 ??3@YAXPAXI@Z		; operator delete
  0010b	83 c4 08	 add	 esp, 8
$LN72@Emplace_re:
; File C:\Program Files\Microsoft Visual Studio\2022\Professional\VC\Tools\MSVC\14.44.35207\include\vector

; 2076 :         _Mylast  = _Newvec + _Newsize;

  0010e	8b 45 f4	 mov	 eax, DWORD PTR __Newsize$1$[ebp]
  00111	89 3e		 mov	 DWORD PTR [esi], edi
  00113	8d 0c 87	 lea	 ecx, DWORD PTR [edi+eax*4]

; 916  :         _Change_array(_Newvec, _Newsize, _Newcapacity);
; 917  :         return _Newvec + _Whereoff;

  00116	8b c3		 mov	 eax, ebx

; 2076 :         _Mylast  = _Newvec + _Newsize;

  00118	89 4e 04	 mov	 DWORD PTR [esi+4], ecx

; 2077 :         _Myend   = _Newvec + _Newcapacity;

  0011b	8b 4d f8	 mov	 ecx, DWORD PTR tv652[ebp]
  0011e	03 cf		 add	 ecx, edi

; 918  :     }

  00120	5f		 pop	 edi

; 2077 :         _Myend   = _Newvec + _Newcapacity;

  00121	89 4e 08	 mov	 DWORD PTR [esi+8], ecx

; 918  :     }

  00124	5e		 pop	 esi
  00125	5b		 pop	 ebx
  00126	8b e5		 mov	 esp, ebp
  00128	5d		 pop	 ebp
  00129	c2 08 00	 ret	 8
$LN76@Emplace_re:
; File C:\Program Files\Microsoft Visual Studio\2022\Professional\VC\Tools\MSVC\14.44.35207\include\xmemory

; 219  :     _STL_VERIFY(_Back_shift >= _Min_back_shift && _Back_shift <= _Non_user_size, "invalid argument");

  0012c	6a 00		 push	 0
  0012e	6a 00		 push	 0
  00130	6a 00		 push	 0
  00132	6a 00		 push	 0
  00134	6a 00		 push	 0
  00136	e8 00 00 00 00	 call	 __invoke_watson
$LN111@Emplace_re:
; File C:\Program Files\Microsoft Visual Studio\2022\Professional\VC\Tools\MSVC\14.44.35207\include\vector

; 888  :             _Xlength();

  0013b	e8 00 00 00 00	 call	 ?_Xlength@?$vector@HV?$allocator@H@std@@@std@@CAXXZ ; std::vector<int,std::allocator<int> >::_Xlength
$LN112@Emplace_re:
; File C:\Program Files\Microsoft Visual Studio\2022\Professional\VC\Tools\MSVC\14.44.35207\include\xmemory

; 118  :             _Throw_bad_array_new_length(); // multiply overflow

  00140	e8 00 00 00 00	 call	 ?_Throw_bad_array_new_length@std@@YAXXZ ; std::_Throw_bad_array_new_length
$LN108@Emplace_re:
  00145	cc		 int	 3
??$_Emplace_reallocate@H@?$vector@HV?$allocator@H@std@@@std@@AAEPAHQAH$$QAH@Z ENDP ; std::vector<int,std::allocator<int> >::_Emplace_reallocate<int>
_TEXT	ENDS
; Function compile flags: /Ogtp
; File C:\Program Files\Microsoft Visual Studio\2022\Professional\VC\Tools\MSVC\14.44.35207\include\vector
; File C:\Program Files\Microsoft Visual Studio\2022\Professional\VC\Tools\MSVC\14.44.35207\include\xmemory
; File C:\Program Files\Microsoft Visual Studio\2022\Professional\VC\Tools\MSVC\14.44.35207\include\vector
; File C:\Program Files\Microsoft Visual Studio\2022\Professional\VC\Tools\MSVC\14.44.35207\include\xmemory
; File C:\Program Files\Microsoft Visual Studio\2022\Professional\VC\Tools\MSVC\14.44.35207\include\vector
; File C:\Program Files\Microsoft Visual Studio\2022\Professional\VC\Tools\MSVC\14.44.35207\include\xmemory
; File C:\Program Files\Microsoft Visual Studio\2022\Professional\VC\Tools\MSVC\14.44.35207\include\vector
; File C:\Program Files\Microsoft Visual Studio\2022\Professional\VC\Tools\MSVC\14.44.35207\include\xmemory
; File C:\Program Files\Microsoft Visual Studio\2022\Professional\VC\Tools\MSVC\14.44.35207\include\vector
; File C:\Program Files\Microsoft Visual Studio\2022\Professional\VC\Tools\MSVC\14.44.35207\include\xmemory
; File C:\Program Files\Microsoft Visual Studio\2022\Professional\VC\Tools\MSVC\14.44.35207\include\vector
; File C:\Program Files\Microsoft Visual Studio\2022\Professional\VC\Tools\MSVC\14.44.35207\include\xmemory
; File C:\Program Files\Microsoft Visual Studio\2022\Professional\VC\Tools\MSVC\14.44.35207\include\vector
; File C:\Program Files\Microsoft Visual Studio\2022\Professional\VC\Tools\MSVC\14.44.35207\include\xmemory
; File C:\Program Files\Microsoft Visual Studio\2022\Professional\VC\Tools\MSVC\14.44.35207\include\vector
; File C:\Program Files\Microsoft Visual Studio\2022\Professional\VC\Tools\MSVC\14.44.35207\include\xmemory
; File C:\Program Files\Microsoft Visual Studio\2022\Professional\VC\Tools\MSVC\14.44.35207\include\vector
; File C:\Program Files\Microsoft Visual Studio\2022\Professional\VC\Tools\MSVC\14.44.35207\include\xmemory
; File C:\Program Files\Microsoft Visual Studio\2022\Professional\VC\Tools\MSVC\14.44.35207\include\vector
; File C:\Program Files\Microsoft Visual Studio\2022\Professional\VC\Tools\MSVC\14.44.35207\include\xmemory
; File C:\Program Files\Microsoft Visual Studio\2022\Professional\VC\Tools\MSVC\14.44.35207\include\vector
;	COMDAT ??$_Emplace_reallocate@ABU__GEMABILITY@CUltimateWeapon@@@?$vector@U__GEMABILITY@CUltimateWeapon@@V?$allocator@U__GEMABILITY@CUltimateWeapon@@@std@@@std@@AAEPAU__GEMABILITY@CUltimateWeapon@@QAU23@ABU23@@Z
_TEXT	SEGMENT
__Guard$ = -52						; size = 20
tv575 = -32						; size = 4
__Newsize$1$ = -28					; size = 4
_this$1$ = -24						; size = 4
__Whereoff$1$ = -20					; size = 4
$T2 = -20						; size = 4
tv576 = -16						; size = 4
__$EHRec$ = -12						; size = 12
__Whereptr$ = 8						; size = 4
_<_Val_0>$ = 12						; size = 4
??$_Emplace_reallocate@ABU__GEMABILITY@CUltimateWeapon@@@?$vector@U__GEMABILITY@CUltimateWeapon@@V?$allocator@U__GEMABILITY@CUltimateWeapon@@@std@@@std@@AAEPAU__GEMABILITY@CUltimateWeapon@@QAU23@ABU23@@Z PROC ; std::vector<CUltimateWeapon::__GEMABILITY,std::allocator<CUltimateWeapon::__GEMABILITY> >::_Emplace_reallocate<CUltimateWeapon::__GEMABILITY const &>, COMDAT
; _this$ = ecx

; 875  :     _CONSTEXPR20 pointer _Emplace_reallocate(const pointer _Whereptr, _Valty&&... _Val) {

  00000	55		 push	 ebp
  00001	8b ec		 mov	 ebp, esp
  00003	6a ff		 push	 -1
  00005	68 00 00 00 00	 push	 __ehhandler$??$_Emplace_reallocate@ABU__GEMABILITY@CUltimateWeapon@@@?$vector@U__GEMABILITY@CUltimateWeapon@@V?$allocator@U__GEMABILITY@CUltimateWeapon@@@std@@@std@@AAEPAU__GEMABILITY@CUltimateWeapon@@QAU23@ABU23@@Z
  0000a	64 a1 00 00 00
	00		 mov	 eax, DWORD PTR fs:0
  00010	50		 push	 eax
  00011	83 ec 28	 sub	 esp, 40			; 00000028H
  00014	53		 push	 ebx
  00015	56		 push	 esi
  00016	57		 push	 edi
  00017	a1 00 00 00 00	 mov	 eax, DWORD PTR ___security_cookie
  0001c	33 c5		 xor	 eax, ebp
  0001e	50		 push	 eax
  0001f	8d 45 f4	 lea	 eax, DWORD PTR __$EHRec$[ebp]
  00022	64 a3 00 00 00
	00		 mov	 DWORD PTR fs:0, eax
  00028	8b f9		 mov	 edi, ecx
  0002a	89 7d e8	 mov	 DWORD PTR _this$1$[ebp], edi

; 876  :         // reallocate and insert by perfectly forwarding _Val at _Whereptr
; 877  :         _Alty& _Al        = _Getal();
; 878  :         auto& _My_data    = _Mypair._Myval2;
; 879  :         pointer& _Myfirst = _My_data._Myfirst;
; 880  :         pointer& _Mylast  = _My_data._Mylast;
; 881  : 
; 882  :         _STL_INTERNAL_CHECK(_Mylast == _My_data._Myend); // check that we have no unused capacity
; 883  : 
; 884  :         const auto _Whereoff = static_cast<size_type>(_Whereptr - _Myfirst);

  0002d	8b 37		 mov	 esi, DWORD PTR [edi]
  0002f	b8 67 66 66 66	 mov	 eax, 1717986919		; 66666667H
  00034	8b 55 08	 mov	 edx, DWORD PTR __Whereptr$[ebp]

; 885  :         const auto _Oldsize  = static_cast<size_type>(_Mylast - _Myfirst);

  00037	8b 4f 04	 mov	 ecx, DWORD PTR [edi+4]
  0003a	2b d6		 sub	 edx, esi
  0003c	f7 ea		 imul	 edx
  0003e	2b ce		 sub	 ecx, esi
  00040	c1 fa 03	 sar	 edx, 3
  00043	8b c2		 mov	 eax, edx
  00045	c1 e8 1f	 shr	 eax, 31			; 0000001fH
  00048	03 c2		 add	 eax, edx
  0004a	89 45 ec	 mov	 DWORD PTR __Whereoff$1$[ebp], eax
  0004d	b8 67 66 66 66	 mov	 eax, 1717986919		; 66666667H
  00052	f7 e9		 imul	 ecx
  00054	c1 fa 03	 sar	 edx, 3
  00057	8b c2		 mov	 eax, edx
  00059	c1 e8 1f	 shr	 eax, 31			; 0000001fH
  0005c	03 c2		 add	 eax, edx

; 886  : 
; 887  :         if (_Oldsize == max_size()) {

  0005e	3d cc cc cc 0c	 cmp	 eax, 214748364		; 0cccccccH
  00063	0f 84 87 01 00
	00		 je	 $LN121@Emplace_re

; 1924 :         return static_cast<size_type>(_My_data._Myend - _My_data._Myfirst);

  00069	8b 4f 08	 mov	 ecx, DWORD PTR [edi+8]

; 889  :         }
; 890  : 
; 891  :         const size_type _Newsize = _Oldsize + 1;

  0006c	8d 58 01	 lea	 ebx, DWORD PTR [eax+1]

; 1924 :         return static_cast<size_type>(_My_data._Myend - _My_data._Myfirst);

  0006f	2b ce		 sub	 ecx, esi

; 889  :         }
; 890  : 
; 891  :         const size_type _Newsize = _Oldsize + 1;

  00071	89 5d e4	 mov	 DWORD PTR __Newsize$1$[ebp], ebx

; 1924 :         return static_cast<size_type>(_My_data._Myend - _My_data._Myfirst);

  00074	b8 67 66 66 66	 mov	 eax, 1717986919		; 66666667H
  00079	f7 e9		 imul	 ecx

; 2011 :         if (_Oldcapacity > _Max - _Oldcapacity / 2) {

  0007b	b8 cc cc cc 0c	 mov	 eax, 214748364		; 0cccccccH

; 1924 :         return static_cast<size_type>(_My_data._Myend - _My_data._Myfirst);

  00080	c1 fa 03	 sar	 edx, 3
  00083	8b ca		 mov	 ecx, edx
  00085	c1 e9 1f	 shr	 ecx, 31			; 0000001fH
  00088	03 ca		 add	 ecx, edx

; 2011 :         if (_Oldcapacity > _Max - _Oldcapacity / 2) {

  0008a	8b d1		 mov	 edx, ecx
  0008c	d1 ea		 shr	 edx, 1
  0008e	2b c2		 sub	 eax, edx
  00090	3b c8		 cmp	 ecx, eax
  00092	76 19		 jbe	 SHORT $LN8@Emplace_re

; 2012 :             return _Max; // geometric growth would overflow

  00094	b8 f0 ff ff ff	 mov	 eax, -16		; fffffff0H
  00099	c7 45 f0 f0 ff
	ff ff		 mov	 DWORD PTR tv576[ebp], -16 ; fffffff0H
; File C:\Program Files\Microsoft Visual Studio\2022\Professional\VC\Tools\MSVC\14.44.35207\include\xmemory

; 253  :             return _Allocate_manually_vector_aligned<_Traits>(_Bytes);

  000a0	50		 push	 eax
; File C:\Program Files\Microsoft Visual Studio\2022\Professional\VC\Tools\MSVC\14.44.35207\include\vector

; 2012 :             return _Max; // geometric growth would overflow

  000a1	be cc cc cc 0c	 mov	 esi, 214748364		; 0cccccccH
; File C:\Program Files\Microsoft Visual Studio\2022\Professional\VC\Tools\MSVC\14.44.35207\include\xmemory

; 253  :             return _Allocate_manually_vector_aligned<_Traits>(_Bytes);

  000a6	e8 00 00 00 00	 call	 ??$_Allocate_manually_vector_aligned@U_Default_allocate_traits@std@@@std@@YAPAXI@Z ; std::_Allocate_manually_vector_aligned<std::_Default_allocate_traits>
  000ab	eb 3c		 jmp	 SHORT $LN119@Emplace_re
$LN8@Emplace_re:
; File C:\Program Files\Microsoft Visual Studio\2022\Professional\VC\Tools\MSVC\14.44.35207\include\vector

; 2015 :         const size_type _Geometric = _Oldcapacity + _Oldcapacity / 2;

  000ad	8d 04 0a	 lea	 eax, DWORD PTR [edx+ecx]
; File C:\Program Files\Microsoft Visual Studio\2022\Professional\VC\Tools\MSVC\14.44.35207\include\xmemory

; 117  :         if (_Count > _Max_possible) {

  000b0	8b f3		 mov	 esi, ebx
  000b2	3b c3		 cmp	 eax, ebx
  000b4	0f 43 f0	 cmovae	 esi, eax
  000b7	81 fe cc cc cc
	0c		 cmp	 esi, 214748364		; 0cccccccH
  000bd	0f 87 32 01 00
	00		 ja	 $LN122@Emplace_re

; 119  :         }
; 120  :     }
; 121  : 
; 122  :     return _Count * _Ty_size;

  000c3	8d 04 b6	 lea	 eax, DWORD PTR [esi+esi*4]
  000c6	c1 e0 02	 shl	 eax, 2
  000c9	89 45 f0	 mov	 DWORD PTR tv576[ebp], eax

; 227  :     if (_Bytes == 0) {

  000cc	85 c0		 test	 eax, eax
  000ce	75 04		 jne	 SHORT $LN23@Emplace_re

; 228  :         return nullptr;

  000d0	33 db		 xor	 ebx, ebx
  000d2	eb 1a		 jmp	 SHORT $LN22@Emplace_re
$LN23@Emplace_re:

; 229  :     }
; 230  : 
; 231  : #if _HAS_CXX20 // TRANSITION, GH-1532
; 232  :     if (_STD is_constant_evaluated()) {
; 233  :         return _Traits::_Allocate(_Bytes);
; 234  :     }
; 235  : #endif // _HAS_CXX20
; 236  : 
; 237  : #ifdef __cpp_aligned_new
; 238  :     if constexpr (_Align > __STDCPP_DEFAULT_NEW_ALIGNMENT__) {
; 239  :         size_t _Passed_align = _Align;
; 240  : #if defined(_M_IX86) || defined(_M_X64)
; 241  :         if (_Bytes >= _Big_allocation_threshold) {
; 242  :             // boost the alignment of big allocations to help autovectorization
; 243  :             _Passed_align = (_STD max)(_Align, _Big_allocation_alignment);
; 244  :         }
; 245  : #endif // defined(_M_IX86) || defined(_M_X64)
; 246  :         return _Traits::_Allocate_aligned(_Bytes, _Passed_align);
; 247  :     } else
; 248  : #endif // defined(__cpp_aligned_new)
; 249  :     {
; 250  : #if defined(_M_IX86) || defined(_M_X64)
; 251  :         if (_Bytes >= _Big_allocation_threshold) {

  000d4	3d 00 10 00 00	 cmp	 eax, 4096		; 00001000H
  000d9	72 08		 jb	 SHORT $LN24@Emplace_re

; 253  :             return _Allocate_manually_vector_aligned<_Traits>(_Bytes);

  000db	50		 push	 eax
  000dc	e8 00 00 00 00	 call	 ??$_Allocate_manually_vector_aligned@U_Default_allocate_traits@std@@@std@@YAPAXI@Z ; std::_Allocate_manually_vector_aligned<std::_Default_allocate_traits>
  000e1	eb 06		 jmp	 SHORT $LN119@Emplace_re
$LN24@Emplace_re:

; 136  :         return ::operator new(_Bytes);

  000e3	50		 push	 eax
  000e4	e8 00 00 00 00	 call	 ??2@YAPAXI@Z		; operator new
$LN119@Emplace_re:
; File C:\Program Files\Microsoft Visual Studio\2022\Professional\VC\Tools\MSVC\14.44.35207\include\vector

; 895  :         const pointer _Constructed_last = _Newvec + _Whereoff + 1;

  000e9	8b d8		 mov	 ebx, eax
  000eb	83 c4 04	 add	 esp, 4
$LN22@Emplace_re:
  000ee	8b 45 ec	 mov	 eax, DWORD PTR __Whereoff$1$[ebp]

; 897  :         _Reallocation_guard _Guard{_Al, _Newvec, _Newcapacity, _Constructed_last, _Constructed_last};

  000f1	89 7d cc	 mov	 DWORD PTR __Guard$[ebp], edi
  000f4	89 5d d0	 mov	 DWORD PTR __Guard$[ebp+4], ebx
  000f7	89 75 d4	 mov	 DWORD PTR __Guard$[ebp+8], esi
  000fa	8d 04 80	 lea	 eax, DWORD PTR [eax+eax*4]
  000fd	8d 0c 83	 lea	 ecx, DWORD PTR [ebx+eax*4]
  00100	8d 41 14	 lea	 eax, DWORD PTR [ecx+20]
  00103	89 4d e0	 mov	 DWORD PTR tv575[ebp], ecx
  00106	89 45 ec	 mov	 DWORD PTR $T2[ebp], eax
  00109	89 45 d8	 mov	 DWORD PTR __Guard$[ebp+12], eax
  0010c	89 45 dc	 mov	 DWORD PTR __Guard$[ebp+16], eax
; File C:\Program Files\Microsoft Visual Studio\2022\Professional\VC\Tools\MSVC\14.44.35207\include\xmemory

; 732  :         ::new (const_cast<void*>(static_cast<const volatile void*>(_Ptr))) _Objty(_STD forward<_Types>(_Args)...);

  0010f	ff 75 0c	 push	 DWORD PTR _<_Val_0>$[ebp]
; File C:\Program Files\Microsoft Visual Studio\2022\Professional\VC\Tools\MSVC\14.44.35207\include\vector

; 897  :         _Reallocation_guard _Guard{_Al, _Newvec, _Newcapacity, _Constructed_last, _Constructed_last};

  00112	c7 45 fc 00 00
	00 00		 mov	 DWORD PTR __$EHRec$[ebp+8], 0
; File C:\Program Files\Microsoft Visual Studio\2022\Professional\VC\Tools\MSVC\14.44.35207\include\xmemory

; 732  :         ::new (const_cast<void*>(static_cast<const volatile void*>(_Ptr))) _Objty(_STD forward<_Types>(_Args)...);

  00119	e8 00 00 00 00	 call	 ??0__GEMABILITY@CUltimateWeapon@@QAE@ABU01@@Z
; File C:\Program Files\Microsoft Visual Studio\2022\Professional\VC\Tools\MSVC\14.44.35207\include\vector

; 903  :         if (_Whereptr == _Mylast) { // at back, provide strong guarantee

  0011e	8b 57 04	 mov	 edx, DWORD PTR [edi+4]
  00121	8b 75 08	 mov	 esi, DWORD PTR __Whereptr$[ebp]
  00124	8b 0f		 mov	 ecx, DWORD PTR [edi]
  00126	3b f2		 cmp	 esi, edx
  00128	75 04		 jne	 SHORT $LN3@Emplace_re

; 904  :             if constexpr (is_nothrow_move_constructible_v<_Ty> || !is_copy_constructible_v<_Ty>) {
; 905  :                 _STD _Uninitialized_move(_Myfirst, _Mylast, _Newvec, _Al);

  0012a	8b c3		 mov	 eax, ebx

; 906  :             } else {
; 907  :                 _STD _Uninitialized_copy(_Myfirst, _Mylast, _Newvec, _Al);
; 908  :             }
; 909  :         } else { // provide basic guarantee

  0012c	eb 14		 jmp	 SHORT $LN4@Emplace_re
$LN3@Emplace_re:

; 910  :             _STD _Uninitialized_move(_Myfirst, _Whereptr, _Newvec, _Al);

  0012e	57		 push	 edi
  0012f	53		 push	 ebx
  00130	56		 push	 esi
  00131	51		 push	 ecx
  00132	e8 00 00 00 00	 call	 ??$_Uninitialized_move@PAU__GEMABILITY@CUltimateWeapon@@V?$allocator@U__GEMABILITY@CUltimateWeapon@@@std@@@std@@YAPAU__GEMABILITY@CUltimateWeapon@@QAU12@0PAU12@AAV?$allocator@U__GEMABILITY@CUltimateWeapon@@@0@@Z ; std::_Uninitialized_move<CUltimateWeapon::__GEMABILITY *,std::allocator<CUltimateWeapon::__GEMABILITY> >

; 911  :             _Constructed_first = _Newvec;
; 912  :             _STD _Uninitialized_move(_Whereptr, _Mylast, _Newvec + _Whereoff + 1, _Al);

  00137	8b 57 04	 mov	 edx, DWORD PTR [edi+4]
  0013a	83 c4 10	 add	 esp, 16			; 00000010H
  0013d	8b 45 ec	 mov	 eax, DWORD PTR $T2[ebp]
  00140	8b ce		 mov	 ecx, esi
$LN4@Emplace_re:

; 913  :         }
; 914  : 
; 915  :         _Guard._New_begin = nullptr;

  00142	57		 push	 edi
  00143	50		 push	 eax
  00144	52		 push	 edx
  00145	51		 push	 ecx
  00146	e8 00 00 00 00	 call	 ??$_Uninitialized_move@PAU__GEMABILITY@CUltimateWeapon@@V?$allocator@U__GEMABILITY@CUltimateWeapon@@@std@@@std@@YAPAU__GEMABILITY@CUltimateWeapon@@QAU12@0PAU12@AAV?$allocator@U__GEMABILITY@CUltimateWeapon@@@0@@Z ; std::_Uninitialized_move<CUltimateWeapon::__GEMABILITY *,std::allocator<CUltimateWeapon::__GEMABILITY> >

; 2069 :         if (_Myfirst) { // destroy and deallocate old array

  0014b	8b 37		 mov	 esi, DWORD PTR [edi]

; 913  :         }
; 914  : 
; 915  :         _Guard._New_begin = nullptr;

  0014d	83 c4 10	 add	 esp, 16			; 00000010H

; 2069 :         if (_Myfirst) { // destroy and deallocate old array

  00150	85 f6		 test	 esi, esi
  00152	74 60		 je	 SHORT $LN61@Emplace_re

; 2070 :             _STD _Destroy_range(_Myfirst, _Mylast, _Al);

  00154	8b 47 04	 mov	 eax, DWORD PTR [edi+4]
; File C:\Program Files\Microsoft Visual Studio\2022\Professional\VC\Tools\MSVC\14.44.35207\include\xmemory

; 1102 :         for (; _First != _Last; ++_First) {

  00157	3b f0		 cmp	 esi, eax
  00159	74 17		 je	 SHORT $LN38@Emplace_re
  0015b	8b f8		 mov	 edi, eax
  0015d	0f 1f 00	 npad	 3
$LL39@Emplace_re:
; File C:\Program Files\Microsoft Visual Studio\2022\Professional\VC\Tools\MSVC\14.44.35207\include\vector

; 830  :         _Tidy();

  00160	8d 4e 08	 lea	 ecx, DWORD PTR [esi+8]
  00163	e8 00 00 00 00	 call	 ?_Tidy@?$vector@HV?$allocator@H@std@@@std@@AAEXXZ ; std::vector<int,std::allocator<int> >::_Tidy
; File C:\Program Files\Microsoft Visual Studio\2022\Professional\VC\Tools\MSVC\14.44.35207\include\xmemory

; 1102 :         for (; _First != _Last; ++_First) {

  00168	83 c6 14	 add	 esi, 20			; 00000014H
  0016b	3b f7		 cmp	 esi, edi
  0016d	75 f1		 jne	 SHORT $LL39@Emplace_re
  0016f	8b 7d e8	 mov	 edi, DWORD PTR _this$1$[ebp]
$LN38@Emplace_re:
; File C:\Program Files\Microsoft Visual Studio\2022\Professional\VC\Tools\MSVC\14.44.35207\include\vector

; 2072 :             _Al.deallocate(_Myfirst, static_cast<size_type>(_Myend - _Myfirst));

  00172	8b 4f 08	 mov	 ecx, DWORD PTR [edi+8]
  00175	b8 67 66 66 66	 mov	 eax, 1717986919		; 66666667H
  0017a	8b 37		 mov	 esi, DWORD PTR [edi]
  0017c	2b ce		 sub	 ecx, esi
  0017e	f7 e9		 imul	 ecx
  00180	c1 fa 03	 sar	 edx, 3
  00183	8b c2		 mov	 eax, edx
  00185	c1 e8 1f	 shr	 eax, 31			; 0000001fH
  00188	03 c2		 add	 eax, edx
; File C:\Program Files\Microsoft Visual Studio\2022\Professional\VC\Tools\MSVC\14.44.35207\include\xmemory

; 985  :         _STD _Deallocate<_New_alignof<_Ty>>(_Ptr, sizeof(_Ty) * _Count);

  0018a	8d 0c 80	 lea	 ecx, DWORD PTR [eax+eax*4]
  0018d	c1 e1 02	 shl	 ecx, 2

; 284  :         if (_Bytes >= _Big_allocation_threshold) {

  00190	81 f9 00 10 00
	00		 cmp	 ecx, 4096		; 00001000H
  00196	72 12		 jb	 SHORT $LN66@Emplace_re

; 205  :     const uintptr_t _Ptr_container   = _Ptr_user[-1];

  00198	8b 56 fc	 mov	 edx, DWORD PTR [esi-4]
  0019b	83 c1 23	 add	 ecx, 35			; 00000023H

; 206  : 
; 207  :     // If the following asserts, it likely means that we are performing
; 208  :     // an aligned delete on memory coming from an unaligned allocation.
; 209  :     _STL_ASSERT(_Ptr_user[-2] == _Big_allocation_sentinel, "invalid argument");
; 210  : 
; 211  :     // Extra paranoia on aligned allocation/deallocation; ensure _Ptr_container is
; 212  :     // in range [_Min_back_shift, _Non_user_size]
; 213  : #ifdef _DEBUG
; 214  :     constexpr uintptr_t _Min_back_shift = 2 * sizeof(void*);
; 215  : #else // ^^^ defined(_DEBUG) / !defined(_DEBUG) vvv
; 216  :     constexpr uintptr_t _Min_back_shift = sizeof(void*);
; 217  : #endif // ^^^ !defined(_DEBUG) ^^^
; 218  :     const uintptr_t _Back_shift = reinterpret_cast<uintptr_t>(_Ptr) - _Ptr_container;

  0019e	2b f2		 sub	 esi, edx

; 219  :     _STL_VERIFY(_Back_shift >= _Min_back_shift && _Back_shift <= _Non_user_size, "invalid argument");

  001a0	8d 46 fc	 lea	 eax, DWORD PTR [esi-4]
  001a3	83 f8 1f	 cmp	 eax, 31			; 0000001fH
  001a6	77 39		 ja	 SHORT $LN65@Emplace_re

; 220  :     _Ptr = reinterpret_cast<void*>(_Ptr_container);

  001a8	8b f2		 mov	 esi, edx
$LN66@Emplace_re:

; 289  :         ::operator delete(_Ptr, _Bytes);

  001aa	51		 push	 ecx
  001ab	56		 push	 esi
  001ac	e8 00 00 00 00	 call	 ??3@YAXPAXI@Z		; operator delete
  001b1	83 c4 08	 add	 esp, 8
$LN61@Emplace_re:
; File C:\Program Files\Microsoft Visual Studio\2022\Professional\VC\Tools\MSVC\14.44.35207\include\vector

; 2076 :         _Mylast  = _Newvec + _Newsize;

  001b4	8b 4d e4	 mov	 ecx, DWORD PTR __Newsize$1$[ebp]

; 916  :         _Change_array(_Newvec, _Newsize, _Newcapacity);
; 917  :         return _Newvec + _Whereoff;

  001b7	8b 45 e0	 mov	 eax, DWORD PTR tv575[ebp]

; 2075 :         _Myfirst = _Newvec;

  001ba	89 1f		 mov	 DWORD PTR [edi], ebx

; 2076 :         _Mylast  = _Newvec + _Newsize;

  001bc	8d 0c 89	 lea	 ecx, DWORD PTR [ecx+ecx*4]
  001bf	8d 0c 8b	 lea	 ecx, DWORD PTR [ebx+ecx*4]
  001c2	89 4f 04	 mov	 DWORD PTR [edi+4], ecx

; 2077 :         _Myend   = _Newvec + _Newcapacity;

  001c5	8b 4d f0	 mov	 ecx, DWORD PTR tv576[ebp]
  001c8	03 cb		 add	 ecx, ebx
  001ca	89 4f 08	 mov	 DWORD PTR [edi+8], ecx

; 918  :     }

  001cd	8b 4d f4	 mov	 ecx, DWORD PTR __$EHRec$[ebp]
  001d0	64 89 0d 00 00
	00 00		 mov	 DWORD PTR fs:0, ecx
  001d7	59		 pop	 ecx
  001d8	5f		 pop	 edi
  001d9	5e		 pop	 esi
  001da	5b		 pop	 ebx
  001db	8b e5		 mov	 esp, ebp
  001dd	5d		 pop	 ebp
  001de	c2 08 00	 ret	 8
$LN65@Emplace_re:
; File C:\Program Files\Microsoft Visual Studio\2022\Professional\VC\Tools\MSVC\14.44.35207\include\xmemory

; 219  :     _STL_VERIFY(_Back_shift >= _Min_back_shift && _Back_shift <= _Non_user_size, "invalid argument");

  001e1	6a 00		 push	 0
  001e3	6a 00		 push	 0
  001e5	6a 00		 push	 0
  001e7	6a 00		 push	 0
  001e9	6a 00		 push	 0
  001eb	e8 00 00 00 00	 call	 __invoke_watson
$LN121@Emplace_re:
; File C:\Program Files\Microsoft Visual Studio\2022\Professional\VC\Tools\MSVC\14.44.35207\include\vector

; 888  :             _Xlength();

  001f0	e8 00 00 00 00	 call	 ?_Xlength@?$vector@U__GEMABILITY@CUltimateWeapon@@V?$allocator@U__GEMABILITY@CUltimateWeapon@@@std@@@std@@CAXXZ ; std::vector<CUltimateWeapon::__GEMABILITY,std::allocator<CUltimateWeapon::__GEMABILITY> >::_Xlength
$LN122@Emplace_re:
; File C:\Program Files\Microsoft Visual Studio\2022\Professional\VC\Tools\MSVC\14.44.35207\include\xmemory

; 118  :             _Throw_bad_array_new_length(); // multiply overflow

  001f5	e8 00 00 00 00	 call	 ?_Throw_bad_array_new_length@std@@YAXXZ ; std::_Throw_bad_array_new_length
$LN118@Emplace_re:
  001fa	cc		 int	 3
_TEXT	ENDS
;	COMDAT text$x
text$x	SEGMENT
__unwindfunclet$??$_Emplace_reallocate@ABU__GEMABILITY@CUltimateWeapon@@@?$vector@U__GEMABILITY@CUltimateWeapon@@V?$allocator@U__GEMABILITY@CUltimateWeapon@@@std@@@std@@AAEPAU__GEMABILITY@CUltimateWeapon@@QAU23@ABU23@@Z$0:
  00000	8d 4d cc	 lea	 ecx, DWORD PTR __Guard$[ebp]
  00003	e9 00 00 00 00	 jmp	 ??1_Reallocation_guard@?$vector@U__GEMABILITY@CUltimateWeapon@@V?$allocator@U__GEMABILITY@CUltimateWeapon@@@std@@@std@@QAE@XZ ; std::vector<CUltimateWeapon::__GEMABILITY,std::allocator<CUltimateWeapon::__GEMABILITY> >::_Reallocation_guard::~_Reallocation_guard
  00008	cc		 int	 3
  00009	cc		 int	 3
  0000a	cc		 int	 3
  0000b	cc		 int	 3
  0000c	cc		 int	 3
__ehhandler$??$_Emplace_reallocate@ABU__GEMABILITY@CUltimateWeapon@@@?$vector@U__GEMABILITY@CUltimateWeapon@@V?$allocator@U__GEMABILITY@CUltimateWeapon@@@std@@@std@@AAEPAU__GEMABILITY@CUltimateWeapon@@QAU23@ABU23@@Z:
  0000d	90		 npad	 1
  0000e	90		 npad	 1
  0000f	8b 54 24 08	 mov	 edx, DWORD PTR [esp+8]
  00013	8d 42 0c	 lea	 eax, DWORD PTR [edx+12]
  00016	8b 4a c8	 mov	 ecx, DWORD PTR [edx-56]
  00019	33 c8		 xor	 ecx, eax
  0001b	e8 00 00 00 00	 call	 @__security_check_cookie@4
  00020	b8 00 00 00 00	 mov	 eax, OFFSET __ehfuncinfo$??$_Emplace_reallocate@ABU__GEMABILITY@CUltimateWeapon@@@?$vector@U__GEMABILITY@CUltimateWeapon@@V?$allocator@U__GEMABILITY@CUltimateWeapon@@@std@@@std@@AAEPAU__GEMABILITY@CUltimateWeapon@@QAU23@ABU23@@Z
  00025	e9 00 00 00 00	 jmp	 ___CxxFrameHandler3
text$x	ENDS
??$_Emplace_reallocate@ABU__GEMABILITY@CUltimateWeapon@@@?$vector@U__GEMABILITY@CUltimateWeapon@@V?$allocator@U__GEMABILITY@CUltimateWeapon@@@std@@@std@@AAEPAU__GEMABILITY@CUltimateWeapon@@QAU23@ABU23@@Z ENDP ; std::vector<CUltimateWeapon::__GEMABILITY,std::allocator<CUltimateWeapon::__GEMABILITY> >::_Emplace_reallocate<CUltimateWeapon::__GEMABILITY const &>
; Function compile flags: /Ogtp
; File C:\Program Files\Microsoft Visual Studio\2022\Professional\VC\Tools\MSVC\14.44.35207\include\xmemory
;	COMDAT ??$_Uninitialized_copy_n@PAU__GEMABILITY@CUltimateWeapon@@V?$allocator@U__GEMABILITY@CUltimateWeapon@@@std@@@std@@YAPAU__GEMABILITY@CUltimateWeapon@@PAU12@I0AAV?$allocator@U__GEMABILITY@CUltimateWeapon@@@0@@Z
_TEXT	SEGMENT
__Backout$ = -24					; size = 12
__$EHRec$ = -12						; size = 12
__First$ = 8						; size = 4
__Count$ = 12						; size = 4
__Dest$ = 16						; size = 4
__Al$ = 20						; size = 4
??$_Uninitialized_copy_n@PAU__GEMABILITY@CUltimateWeapon@@V?$allocator@U__GEMABILITY@CUltimateWeapon@@@std@@@std@@YAPAU__GEMABILITY@CUltimateWeapon@@PAU12@I0AAV?$allocator@U__GEMABILITY@CUltimateWeapon@@@0@@Z PROC ; std::_Uninitialized_copy_n<CUltimateWeapon::__GEMABILITY *,std::allocator<CUltimateWeapon::__GEMABILITY> >, COMDAT

; 1910 :     _InIt _First, size_t _Count, _Alloc_ptr_t<_Alloc> _Dest, _Alloc& _Al) {

  00000	55		 push	 ebp
  00001	8b ec		 mov	 ebp, esp
  00003	6a ff		 push	 -1
  00005	68 00 00 00 00	 push	 __ehhandler$??$_Uninitialized_copy_n@PAU__GEMABILITY@CUltimateWeapon@@V?$allocator@U__GEMABILITY@CUltimateWeapon@@@std@@@std@@YAPAU__GEMABILITY@CUltimateWeapon@@PAU12@I0AAV?$allocator@U__GEMABILITY@CUltimateWeapon@@@0@@Z
  0000a	64 a1 00 00 00
	00		 mov	 eax, DWORD PTR fs:0
  00010	50		 push	 eax
  00011	83 ec 0c	 sub	 esp, 12			; 0000000cH
  00014	53		 push	 ebx
  00015	56		 push	 esi
  00016	57		 push	 edi
  00017	a1 00 00 00 00	 mov	 eax, DWORD PTR ___security_cookie
  0001c	33 c5		 xor	 eax, ebp
  0001e	50		 push	 eax
  0001f	8d 45 f4	 lea	 eax, DWORD PTR __$EHRec$[ebp]
  00022	64 a3 00 00 00
	00		 mov	 DWORD PTR fs:0, eax

; 1833 :     _CONSTEXPR20 _Uninitialized_backout_al(pointer _Dest, _Alloc& _Al_) : _First(_Dest), _Last(_Dest), _Al(_Al_) {}

  00028	8b 75 10	 mov	 esi, DWORD PTR __Dest$[ebp]
  0002b	8b 45 14	 mov	 eax, DWORD PTR __Al$[ebp]

; 1911 :     // copy _First + [0, _Count) to raw _Dest, using _Al
; 1912 :     // note: only called internally from elsewhere in the STL
; 1913 :     using _Ptrval = typename _Alloc::value_type*;
; 1914 : 
; 1915 : #ifdef _ENABLE_STL_INTERNAL_CHECK
; 1916 :     auto _UFirst = _STD _Get_unwrapped_n(_STD move(_First), _Count);
; 1917 : #else // ^^^ Checking / No checking vvv
; 1918 :     auto _UFirst = _STD _Get_unwrapped(_STD move(_First));

  0002e	8b 7d 08	 mov	 edi, DWORD PTR __First$[ebp]

; 1833 :     _CONSTEXPR20 _Uninitialized_backout_al(pointer _Dest, _Alloc& _Al_) : _First(_Dest), _Last(_Dest), _Al(_Al_) {}

  00031	89 75 e8	 mov	 DWORD PTR __Backout$[ebp], esi
  00034	89 75 ec	 mov	 DWORD PTR __Backout$[ebp+4], esi
  00037	89 45 f0	 mov	 DWORD PTR __Backout$[ebp+8], eax

; 1919 : #endif // ^^^ No checking ^^^
; 1920 : 
; 1921 :     constexpr bool _Can_memmove =
; 1922 :         conjunction_v<bool_constant<_Iter_copy_cat<decltype(_UFirst), _Ptrval>::_Bitcopy_constructible>,
; 1923 :             _Uses_default_construct<_Alloc, _Ptrval, decltype(*_UFirst)>>;
; 1924 : 
; 1925 :     if constexpr (_Can_memmove) {
; 1926 : #if _HAS_CXX20
; 1927 :         if (!_STD is_constant_evaluated())
; 1928 : #endif // _HAS_CXX20
; 1929 :         {
; 1930 :             _STD _Copy_memmove_n(_UFirst, _Count, _STD _Unfancy(_Dest));
; 1931 :             _Dest += _Count;
; 1932 :             return _Dest;
; 1933 :         }
; 1934 :     }
; 1935 : 
; 1936 :     _Uninitialized_backout_al<_Alloc> _Backout{_Dest, _Al};
; 1937 :     for (; _Count != 0; ++_UFirst, (void) --_Count) {

  0003a	8b 5d 0c	 mov	 ebx, DWORD PTR __Count$[ebp]
  0003d	c7 45 fc 00 00
	00 00		 mov	 DWORD PTR __$EHRec$[ebp+8], 0
  00044	85 db		 test	 ebx, ebx
  00046	74 16		 je	 SHORT $LN46@Uninitiali
$LL4@Uninitiali:

; 732  :         ::new (const_cast<void*>(static_cast<const volatile void*>(_Ptr))) _Objty(_STD forward<_Types>(_Args)...);

  00048	57		 push	 edi
  00049	8b ce		 mov	 ecx, esi
  0004b	e8 00 00 00 00	 call	 ??0__GEMABILITY@CUltimateWeapon@@QAE@ABU01@@Z

; 1845 :         ++_Last;

  00050	83 c6 14	 add	 esi, 20			; 00000014H

; 1919 : #endif // ^^^ No checking ^^^
; 1920 : 
; 1921 :     constexpr bool _Can_memmove =
; 1922 :         conjunction_v<bool_constant<_Iter_copy_cat<decltype(_UFirst), _Ptrval>::_Bitcopy_constructible>,
; 1923 :             _Uses_default_construct<_Alloc, _Ptrval, decltype(*_UFirst)>>;
; 1924 : 
; 1925 :     if constexpr (_Can_memmove) {
; 1926 : #if _HAS_CXX20
; 1927 :         if (!_STD is_constant_evaluated())
; 1928 : #endif // _HAS_CXX20
; 1929 :         {
; 1930 :             _STD _Copy_memmove_n(_UFirst, _Count, _STD _Unfancy(_Dest));
; 1931 :             _Dest += _Count;
; 1932 :             return _Dest;
; 1933 :         }
; 1934 :     }
; 1935 : 
; 1936 :     _Uninitialized_backout_al<_Alloc> _Backout{_Dest, _Al};
; 1937 :     for (; _Count != 0; ++_UFirst, (void) --_Count) {

  00053	83 c7 14	 add	 edi, 20			; 00000014H

; 1845 :         ++_Last;

  00056	89 75 ec	 mov	 DWORD PTR __Backout$[ebp+4], esi

; 1919 : #endif // ^^^ No checking ^^^
; 1920 : 
; 1921 :     constexpr bool _Can_memmove =
; 1922 :         conjunction_v<bool_constant<_Iter_copy_cat<decltype(_UFirst), _Ptrval>::_Bitcopy_constructible>,
; 1923 :             _Uses_default_construct<_Alloc, _Ptrval, decltype(*_UFirst)>>;
; 1924 : 
; 1925 :     if constexpr (_Can_memmove) {
; 1926 : #if _HAS_CXX20
; 1927 :         if (!_STD is_constant_evaluated())
; 1928 : #endif // _HAS_CXX20
; 1929 :         {
; 1930 :             _STD _Copy_memmove_n(_UFirst, _Count, _STD _Unfancy(_Dest));
; 1931 :             _Dest += _Count;
; 1932 :             return _Dest;
; 1933 :         }
; 1934 :     }
; 1935 : 
; 1936 :     _Uninitialized_backout_al<_Alloc> _Backout{_Dest, _Al};
; 1937 :     for (; _Count != 0; ++_UFirst, (void) --_Count) {

  00059	83 eb 01	 sub	 ebx, 1
  0005c	75 ea		 jne	 SHORT $LL4@Uninitiali
$LN46@Uninitiali:

; 1938 :         _Backout._Emplace_back(*_UFirst);
; 1939 :     }
; 1940 : 
; 1941 :     return _Backout._Release();
; 1942 : }

  0005e	8b c6		 mov	 eax, esi
  00060	8b 4d f4	 mov	 ecx, DWORD PTR __$EHRec$[ebp]
  00063	64 89 0d 00 00
	00 00		 mov	 DWORD PTR fs:0, ecx
  0006a	59		 pop	 ecx
  0006b	5f		 pop	 edi
  0006c	5e		 pop	 esi
  0006d	5b		 pop	 ebx
  0006e	8b e5		 mov	 esp, ebp
  00070	5d		 pop	 ebp
  00071	c3		 ret	 0
_TEXT	ENDS
;	COMDAT text$x
text$x	SEGMENT
__unwindfunclet$??$_Uninitialized_copy_n@PAU__GEMABILITY@CUltimateWeapon@@V?$allocator@U__GEMABILITY@CUltimateWeapon@@@std@@@std@@YAPAU__GEMABILITY@CUltimateWeapon@@PAU12@I0AAV?$allocator@U__GEMABILITY@CUltimateWeapon@@@0@@Z$0:
  00000	8d 4d e8	 lea	 ecx, DWORD PTR __Backout$[ebp]
  00003	e9 00 00 00 00	 jmp	 ??1?$_Uninitialized_backout_al@V?$allocator@U__GEMABILITY@CUltimateWeapon@@@std@@@std@@QAE@XZ ; std::_Uninitialized_backout_al<std::allocator<CUltimateWeapon::__GEMABILITY> >::~_Uninitialized_backout_al<std::allocator<CUltimateWeapon::__GEMABILITY> >
  00008	cc		 int	 3
  00009	cc		 int	 3
  0000a	cc		 int	 3
  0000b	cc		 int	 3
  0000c	cc		 int	 3
__ehhandler$??$_Uninitialized_copy_n@PAU__GEMABILITY@CUltimateWeapon@@V?$allocator@U__GEMABILITY@CUltimateWeapon@@@std@@@std@@YAPAU__GEMABILITY@CUltimateWeapon@@PAU12@I0AAV?$allocator@U__GEMABILITY@CUltimateWeapon@@@0@@Z:
  0000d	90		 npad	 1
  0000e	90		 npad	 1
  0000f	8b 54 24 08	 mov	 edx, DWORD PTR [esp+8]
  00013	8d 42 0c	 lea	 eax, DWORD PTR [edx+12]
  00016	8b 4a e4	 mov	 ecx, DWORD PTR [edx-28]
  00019	33 c8		 xor	 ecx, eax
  0001b	e8 00 00 00 00	 call	 @__security_check_cookie@4
  00020	b8 00 00 00 00	 mov	 eax, OFFSET __ehfuncinfo$??$_Uninitialized_copy_n@PAU__GEMABILITY@CUltimateWeapon@@V?$allocator@U__GEMABILITY@CUltimateWeapon@@@std@@@std@@YAPAU__GEMABILITY@CUltimateWeapon@@PAU12@I0AAV?$allocator@U__GEMABILITY@CUltimateWeapon@@@0@@Z
  00025	e9 00 00 00 00	 jmp	 ___CxxFrameHandler3
text$x	ENDS
??$_Uninitialized_copy_n@PAU__GEMABILITY@CUltimateWeapon@@V?$allocator@U__GEMABILITY@CUltimateWeapon@@@std@@@std@@YAPAU__GEMABILITY@CUltimateWeapon@@PAU12@I0AAV?$allocator@U__GEMABILITY@CUltimateWeapon@@@0@@Z ENDP ; std::_Uninitialized_copy_n<CUltimateWeapon::__GEMABILITY *,std::allocator<CUltimateWeapon::__GEMABILITY> >
; Function compile flags: /Ogtp
; File C:\Program Files\Microsoft Visual Studio\2022\Professional\VC\Tools\MSVC\14.44.35207\include\vector
; File C:\Program Files\Microsoft Visual Studio\2022\Professional\VC\Tools\MSVC\14.44.35207\include\xmemory
; File C:\Program Files\Microsoft Visual Studio\2022\Professional\VC\Tools\MSVC\14.44.35207\include\vector
; File C:\Program Files\Microsoft Visual Studio\2022\Professional\VC\Tools\MSVC\14.44.35207\include\xmemory
; File C:\Program Files\Microsoft Visual Studio\2022\Professional\VC\Tools\MSVC\14.44.35207\include\vector
; File C:\Program Files\Microsoft Visual Studio\2022\Professional\VC\Tools\MSVC\14.44.35207\include\xmemory
; File C:\Program Files\Microsoft Visual Studio\2022\Professional\VC\Tools\MSVC\14.44.35207\include\vector
; File C:\Program Files\Microsoft Visual Studio\2022\Professional\VC\Tools\MSVC\14.44.35207\include\xmemory
; File C:\Program Files\Microsoft Visual Studio\2022\Professional\VC\Tools\MSVC\14.44.35207\include\vector
; File C:\Program Files\Microsoft Visual Studio\2022\Professional\VC\Tools\MSVC\14.44.35207\include\xmemory
; File C:\Program Files\Microsoft Visual Studio\2022\Professional\VC\Tools\MSVC\14.44.35207\include\vector
; File C:\Program Files\Microsoft Visual Studio\2022\Professional\VC\Tools\MSVC\14.44.35207\include\xmemory
; File C:\Program Files\Microsoft Visual Studio\2022\Professional\VC\Tools\MSVC\14.44.35207\include\vector
; File C:\Program Files\Microsoft Visual Studio\2022\Professional\VC\Tools\MSVC\14.44.35207\include\xmemory
; File C:\Program Files\Microsoft Visual Studio\2022\Professional\VC\Tools\MSVC\14.44.35207\include\vector
; File C:\Program Files\Microsoft Visual Studio\2022\Professional\VC\Tools\MSVC\14.44.35207\include\xmemory
; File C:\Program Files\Microsoft Visual Studio\2022\Professional\VC\Tools\MSVC\14.44.35207\include\vector
; File C:\Program Files\Microsoft Visual Studio\2022\Professional\VC\Tools\MSVC\14.44.35207\include\xmemory
; File C:\Program Files\Microsoft Visual Studio\2022\Professional\VC\Tools\MSVC\14.44.35207\include\vector
;	COMDAT ??$_Emplace_reallocate@ABU__MAKEGEMITEM@CUltimateWeapon@@@?$vector@U__MAKEGEMITEM@CUltimateWeapon@@V?$allocator@U__MAKEGEMITEM@CUltimateWeapon@@@std@@@std@@AAEPAU__MAKEGEMITEM@CUltimateWeapon@@QAU23@ABU23@@Z
_TEXT	SEGMENT
__Oldsize$1$ = -12					; size = 4
__Whereoff$1$ = -8					; size = 4
tv650 = -8						; size = 4
tv652 = -4						; size = 4
__Whereptr$ = 8						; size = 4
_<_Val_0>$ = 12						; size = 4
??$_Emplace_reallocate@ABU__MAKEGEMITEM@CUltimateWeapon@@@?$vector@U__MAKEGEMITEM@CUltimateWeapon@@V?$allocator@U__MAKEGEMITEM@CUltimateWeapon@@@std@@@std@@AAEPAU__MAKEGEMITEM@CUltimateWeapon@@QAU23@ABU23@@Z PROC ; std::vector<CUltimateWeapon::__MAKEGEMITEM,std::allocator<CUltimateWeapon::__MAKEGEMITEM> >::_Emplace_reallocate<CUltimateWeapon::__MAKEGEMITEM const &>, COMDAT
; _this$ = ecx

; 875  :     _CONSTEXPR20 pointer _Emplace_reallocate(const pointer _Whereptr, _Valty&&... _Val) {

  00000	55		 push	 ebp
  00001	8b ec		 mov	 ebp, esp
  00003	83 ec 0c	 sub	 esp, 12			; 0000000cH

; 876  :         // reallocate and insert by perfectly forwarding _Val at _Whereptr
; 877  :         _Alty& _Al        = _Getal();
; 878  :         auto& _My_data    = _Mypair._Myval2;
; 879  :         pointer& _Myfirst = _My_data._Myfirst;
; 880  :         pointer& _Mylast  = _My_data._Mylast;
; 881  : 
; 882  :         _STL_INTERNAL_CHECK(_Mylast == _My_data._Myend); // check that we have no unused capacity
; 883  : 
; 884  :         const auto _Whereoff = static_cast<size_type>(_Whereptr - _Myfirst);

  00006	8b 55 08	 mov	 edx, DWORD PTR __Whereptr$[ebp]
  00009	b8 ab aa aa 2a	 mov	 eax, 715827883		; 2aaaaaabH
  0000e	53		 push	 ebx
  0000f	8b d9		 mov	 ebx, ecx
  00011	57		 push	 edi
  00012	8b 3b		 mov	 edi, DWORD PTR [ebx]
  00014	2b d7		 sub	 edx, edi

; 885  :         const auto _Oldsize  = static_cast<size_type>(_Mylast - _Myfirst);

  00016	8b 4b 04	 mov	 ecx, DWORD PTR [ebx+4]
  00019	f7 ea		 imul	 edx
  0001b	2b cf		 sub	 ecx, edi
  0001d	d1 fa		 sar	 edx, 1
  0001f	8b c2		 mov	 eax, edx
  00021	c1 e8 1f	 shr	 eax, 31			; 0000001fH
  00024	03 c2		 add	 eax, edx
  00026	89 45 f8	 mov	 DWORD PTR __Whereoff$1$[ebp], eax
  00029	b8 ab aa aa 2a	 mov	 eax, 715827883		; 2aaaaaabH
  0002e	f7 e9		 imul	 ecx
  00030	d1 fa		 sar	 edx, 1
  00032	8b c2		 mov	 eax, edx
  00034	c1 e8 1f	 shr	 eax, 31			; 0000001fH
  00037	03 c2		 add	 eax, edx
  00039	89 45 f4	 mov	 DWORD PTR __Oldsize$1$[ebp], eax

; 886  : 
; 887  :         if (_Oldsize == max_size()) {

  0003c	3d 55 55 55 15	 cmp	 eax, 357913941		; 15555555H
  00041	0f 84 42 01 00
	00		 je	 $LN119@Emplace_re

; 1924 :         return static_cast<size_type>(_My_data._Myend - _My_data._Myfirst);

  00047	8b 4b 08	 mov	 ecx, DWORD PTR [ebx+8]
  0004a	2b cf		 sub	 ecx, edi
  0004c	56		 push	 esi

; 889  :         }
; 890  : 
; 891  :         const size_type _Newsize = _Oldsize + 1;

  0004d	8d 70 01	 lea	 esi, DWORD PTR [eax+1]

; 1924 :         return static_cast<size_type>(_My_data._Myend - _My_data._Myfirst);

  00050	b8 ab aa aa 2a	 mov	 eax, 715827883		; 2aaaaaabH
  00055	f7 e9		 imul	 ecx

; 2011 :         if (_Oldcapacity > _Max - _Oldcapacity / 2) {

  00057	b8 55 55 55 15	 mov	 eax, 357913941		; 15555555H

; 1924 :         return static_cast<size_type>(_My_data._Myend - _My_data._Myfirst);

  0005c	d1 fa		 sar	 edx, 1
  0005e	8b ca		 mov	 ecx, edx
  00060	c1 e9 1f	 shr	 ecx, 31			; 0000001fH
  00063	03 ca		 add	 ecx, edx

; 2011 :         if (_Oldcapacity > _Max - _Oldcapacity / 2) {

  00065	8b d1		 mov	 edx, ecx
  00067	d1 ea		 shr	 edx, 1
  00069	2b c2		 sub	 eax, edx
  0006b	3b c8		 cmp	 ecx, eax
  0006d	76 14		 jbe	 SHORT $LN8@Emplace_re

; 2012 :             return _Max; // geometric growth would overflow

  0006f	b8 fc ff ff ff	 mov	 eax, -4			; fffffffcH
  00074	c7 45 fc fc ff
	ff ff		 mov	 DWORD PTR tv652[ebp], -4 ; fffffffcH
; File C:\Program Files\Microsoft Visual Studio\2022\Professional\VC\Tools\MSVC\14.44.35207\include\xmemory

; 253  :             return _Allocate_manually_vector_aligned<_Traits>(_Bytes);

  0007b	50		 push	 eax
  0007c	e8 00 00 00 00	 call	 ??$_Allocate_manually_vector_aligned@U_Default_allocate_traits@std@@@std@@YAPAXI@Z ; std::_Allocate_manually_vector_aligned<std::_Default_allocate_traits>
  00081	eb 3e		 jmp	 SHORT $LN117@Emplace_re
$LN8@Emplace_re:
; File C:\Program Files\Microsoft Visual Studio\2022\Professional\VC\Tools\MSVC\14.44.35207\include\vector

; 2015 :         const size_type _Geometric = _Oldcapacity + _Oldcapacity / 2;

  00083	8d 04 0a	 lea	 eax, DWORD PTR [edx+ecx]
; File C:\Program Files\Microsoft Visual Studio\2022\Professional\VC\Tools\MSVC\14.44.35207\include\xmemory

; 117  :         if (_Count > _Max_possible) {

  00086	8b ce		 mov	 ecx, esi
  00088	3b c6		 cmp	 eax, esi
  0008a	0f 43 c8	 cmovae	 ecx, eax
  0008d	81 f9 55 55 55
	15		 cmp	 ecx, 357913941		; 15555555H
  00093	0f 87 f5 00 00
	00		 ja	 $LN120@Emplace_re

; 119  :         }
; 120  :     }
; 121  : 
; 122  :     return _Count * _Ty_size;

  00099	8d 34 49	 lea	 esi, DWORD PTR [ecx+ecx*2]
  0009c	c1 e6 02	 shl	 esi, 2

; 990  :         return static_cast<_Ty*>(_STD _Allocate<_New_alignof<_Ty>>(_Get_size_of_n<sizeof(_Ty)>(_Count)));

  0009f	8b c6		 mov	 eax, esi

; 122  :     return _Count * _Ty_size;

  000a1	89 75 fc	 mov	 DWORD PTR tv652[ebp], esi

; 227  :     if (_Bytes == 0) {

  000a4	85 c0		 test	 eax, eax
  000a6	75 04		 jne	 SHORT $LN23@Emplace_re

; 228  :         return nullptr;

  000a8	33 ff		 xor	 edi, edi
  000aa	eb 1a		 jmp	 SHORT $LN22@Emplace_re
$LN23@Emplace_re:

; 229  :     }
; 230  : 
; 231  : #if _HAS_CXX20 // TRANSITION, GH-1532
; 232  :     if (_STD is_constant_evaluated()) {
; 233  :         return _Traits::_Allocate(_Bytes);
; 234  :     }
; 235  : #endif // _HAS_CXX20
; 236  : 
; 237  : #ifdef __cpp_aligned_new
; 238  :     if constexpr (_Align > __STDCPP_DEFAULT_NEW_ALIGNMENT__) {
; 239  :         size_t _Passed_align = _Align;
; 240  : #if defined(_M_IX86) || defined(_M_X64)
; 241  :         if (_Bytes >= _Big_allocation_threshold) {
; 242  :             // boost the alignment of big allocations to help autovectorization
; 243  :             _Passed_align = (_STD max)(_Align, _Big_allocation_alignment);
; 244  :         }
; 245  : #endif // defined(_M_IX86) || defined(_M_X64)
; 246  :         return _Traits::_Allocate_aligned(_Bytes, _Passed_align);
; 247  :     } else
; 248  : #endif // defined(__cpp_aligned_new)
; 249  :     {
; 250  : #if defined(_M_IX86) || defined(_M_X64)
; 251  :         if (_Bytes >= _Big_allocation_threshold) {

  000ac	3d 00 10 00 00	 cmp	 eax, 4096		; 00001000H
  000b1	72 08		 jb	 SHORT $LN24@Emplace_re

; 253  :             return _Allocate_manually_vector_aligned<_Traits>(_Bytes);

  000b3	50		 push	 eax
  000b4	e8 00 00 00 00	 call	 ??$_Allocate_manually_vector_aligned@U_Default_allocate_traits@std@@@std@@YAPAXI@Z ; std::_Allocate_manually_vector_aligned<std::_Default_allocate_traits>
  000b9	eb 06		 jmp	 SHORT $LN117@Emplace_re
$LN24@Emplace_re:

; 136  :         return ::operator new(_Bytes);

  000bb	50		 push	 eax
  000bc	e8 00 00 00 00	 call	 ??2@YAPAXI@Z		; operator new
$LN117@Emplace_re:
; File C:\Program Files\Microsoft Visual Studio\2022\Professional\VC\Tools\MSVC\14.44.35207\include\vector

; 900  :         _Alty_traits::construct(_Al, _STD _Unfancy(_Newvec + _Whereoff), _STD forward<_Valty>(_Val)...);

  000c1	8b f8		 mov	 edi, eax
  000c3	83 c4 04	 add	 esp, 4
$LN22@Emplace_re:
  000c6	8b 45 f8	 mov	 eax, DWORD PTR __Whereoff$1$[ebp]

; 903  :         if (_Whereptr == _Mylast) { // at back, provide strong guarantee

  000c9	8b 55 08	 mov	 edx, DWORD PTR __Whereptr$[ebp]
  000cc	8d 04 40	 lea	 eax, DWORD PTR [eax+eax*2]
  000cf	8d 34 87	 lea	 esi, DWORD PTR [edi+eax*4]
; File C:\Program Files\Microsoft Visual Studio\2022\Professional\VC\Tools\MSVC\14.44.35207\include\xmemory

; 732  :         ::new (const_cast<void*>(static_cast<const volatile void*>(_Ptr))) _Objty(_STD forward<_Types>(_Args)...);

  000d2	8b 45 0c	 mov	 eax, DWORD PTR _<_Val_0>$[ebp]
; File C:\Program Files\Microsoft Visual Studio\2022\Professional\VC\Tools\MSVC\14.44.35207\include\vector

; 900  :         _Alty_traits::construct(_Al, _STD _Unfancy(_Newvec + _Whereoff), _STD forward<_Valty>(_Val)...);

  000d5	89 75 f8	 mov	 DWORD PTR tv650[ebp], esi
; File C:\Program Files\Microsoft Visual Studio\2022\Professional\VC\Tools\MSVC\14.44.35207\include\xmemory

; 732  :         ::new (const_cast<void*>(static_cast<const volatile void*>(_Ptr))) _Objty(_STD forward<_Types>(_Args)...);

  000d8	f3 0f 7e 00	 movq	 xmm0, QWORD PTR [eax]
  000dc	66 0f d6 06	 movq	 QWORD PTR [esi], xmm0
  000e0	8b 40 08	 mov	 eax, DWORD PTR [eax+8]
  000e3	89 46 08	 mov	 DWORD PTR [esi+8], eax
; File C:\Program Files\Microsoft Visual Studio\2022\Professional\VC\Tools\MSVC\14.44.35207\include\vector

; 903  :         if (_Whereptr == _Mylast) { // at back, provide strong guarantee

  000e6	8b 4b 04	 mov	 ecx, DWORD PTR [ebx+4]
  000e9	8b 03		 mov	 eax, DWORD PTR [ebx]
  000eb	3b d1		 cmp	 edx, ecx
  000ed	75 04		 jne	 SHORT $LN3@Emplace_re
; File C:\Program Files\Microsoft Visual Studio\2022\Professional\VC\Tools\MSVC\14.44.35207\include\xmemory

; 1992 :             _STD _Copy_memmove(_UFirst, _ULast, _STD _Unfancy(_Dest));

  000ef	8b f7		 mov	 esi, edi
; File C:\Program Files\Microsoft Visual Studio\2022\Professional\VC\Tools\MSVC\14.44.35207\include\vector

; 909  :         } else { // provide basic guarantee

  000f1	eb 14		 jmp	 SHORT $LN58@Emplace_re
$LN3@Emplace_re:
; File C:\Program Files\Microsoft Visual Studio\2022\Professional\VC\Tools\MSVC\14.44.35207\include\xmemory

; 1992 :             _STD _Copy_memmove(_UFirst, _ULast, _STD _Unfancy(_Dest));

  000f3	57		 push	 edi
  000f4	52		 push	 edx
  000f5	50		 push	 eax
  000f6	e8 00 00 00 00	 call	 ??$_Copy_memmove@PAU__MAKEGEMITEM@CUltimateWeapon@@PAU12@@std@@YAPAU__MAKEGEMITEM@CUltimateWeapon@@PAU12@00@Z ; std::_Copy_memmove<CUltimateWeapon::__MAKEGEMITEM *,CUltimateWeapon::__MAKEGEMITEM *>
  000fb	8b 45 08	 mov	 eax, DWORD PTR __Whereptr$[ebp]
  000fe	83 c4 0c	 add	 esp, 12			; 0000000cH
  00101	8b 4b 04	 mov	 ecx, DWORD PTR [ebx+4]
; File C:\Program Files\Microsoft Visual Studio\2022\Professional\VC\Tools\MSVC\14.44.35207\include\vector

; 912  :             _STD _Uninitialized_move(_Whereptr, _Mylast, _Newvec + _Whereoff + 1, _Al);

  00104	83 c6 0c	 add	 esi, 12			; 0000000cH
$LN58@Emplace_re:

; 913  :         }
; 914  : 
; 915  :         _Guard._New_begin = nullptr;

  00107	56		 push	 esi
  00108	51		 push	 ecx
  00109	50		 push	 eax
  0010a	e8 00 00 00 00	 call	 ??$_Copy_memmove@PAU__MAKEGEMITEM@CUltimateWeapon@@PAU12@@std@@YAPAU__MAKEGEMITEM@CUltimateWeapon@@PAU12@00@Z ; std::_Copy_memmove<CUltimateWeapon::__MAKEGEMITEM *,CUltimateWeapon::__MAKEGEMITEM *>

; 2069 :         if (_Myfirst) { // destroy and deallocate old array

  0010f	8b 33		 mov	 esi, DWORD PTR [ebx]

; 913  :         }
; 914  : 
; 915  :         _Guard._New_begin = nullptr;

  00111	83 c4 0c	 add	 esp, 12			; 0000000cH

; 2069 :         if (_Myfirst) { // destroy and deallocate old array

  00114	85 f6		 test	 esi, esi
  00116	74 3f		 je	 SHORT $LN80@Emplace_re

; 2070 :             _STD _Destroy_range(_Myfirst, _Mylast, _Al);
; 2071 :             _ASAN_VECTOR_REMOVE;
; 2072 :             _Al.deallocate(_Myfirst, static_cast<size_type>(_Myend - _Myfirst));

  00118	8b 4b 08	 mov	 ecx, DWORD PTR [ebx+8]
  0011b	b8 ab aa aa 2a	 mov	 eax, 715827883		; 2aaaaaabH
  00120	2b ce		 sub	 ecx, esi
  00122	f7 e9		 imul	 ecx
  00124	d1 fa		 sar	 edx, 1
  00126	8b c2		 mov	 eax, edx
  00128	c1 e8 1f	 shr	 eax, 31			; 0000001fH
  0012b	03 c2		 add	 eax, edx
; File C:\Program Files\Microsoft Visual Studio\2022\Professional\VC\Tools\MSVC\14.44.35207\include\xmemory

; 985  :         _STD _Deallocate<_New_alignof<_Ty>>(_Ptr, sizeof(_Ty) * _Count);

  0012d	8d 0c 40	 lea	 ecx, DWORD PTR [eax+eax*2]
  00130	c1 e1 02	 shl	 ecx, 2

; 284  :         if (_Bytes >= _Big_allocation_threshold) {

  00133	81 f9 00 10 00
	00		 cmp	 ecx, 4096		; 00001000H
  00139	72 12		 jb	 SHORT $LN85@Emplace_re

; 205  :     const uintptr_t _Ptr_container   = _Ptr_user[-1];

  0013b	8b 56 fc	 mov	 edx, DWORD PTR [esi-4]
  0013e	83 c1 23	 add	 ecx, 35			; 00000023H

; 206  : 
; 207  :     // If the following asserts, it likely means that we are performing
; 208  :     // an aligned delete on memory coming from an unaligned allocation.
; 209  :     _STL_ASSERT(_Ptr_user[-2] == _Big_allocation_sentinel, "invalid argument");
; 210  : 
; 211  :     // Extra paranoia on aligned allocation/deallocation; ensure _Ptr_container is
; 212  :     // in range [_Min_back_shift, _Non_user_size]
; 213  : #ifdef _DEBUG
; 214  :     constexpr uintptr_t _Min_back_shift = 2 * sizeof(void*);
; 215  : #else // ^^^ defined(_DEBUG) / !defined(_DEBUG) vvv
; 216  :     constexpr uintptr_t _Min_back_shift = sizeof(void*);
; 217  : #endif // ^^^ !defined(_DEBUG) ^^^
; 218  :     const uintptr_t _Back_shift = reinterpret_cast<uintptr_t>(_Ptr) - _Ptr_container;

  00141	2b f2		 sub	 esi, edx

; 219  :     _STL_VERIFY(_Back_shift >= _Min_back_shift && _Back_shift <= _Non_user_size, "invalid argument");

  00143	8d 46 fc	 lea	 eax, DWORD PTR [esi-4]
  00146	83 f8 1f	 cmp	 eax, 31			; 0000001fH
  00149	77 2f		 ja	 SHORT $LN84@Emplace_re

; 220  :     _Ptr = reinterpret_cast<void*>(_Ptr_container);

  0014b	8b f2		 mov	 esi, edx
$LN85@Emplace_re:

; 289  :         ::operator delete(_Ptr, _Bytes);

  0014d	51		 push	 ecx
  0014e	56		 push	 esi
  0014f	e8 00 00 00 00	 call	 ??3@YAXPAXI@Z		; operator delete
  00154	83 c4 08	 add	 esp, 8
$LN80@Emplace_re:
; File C:\Program Files\Microsoft Visual Studio\2022\Professional\VC\Tools\MSVC\14.44.35207\include\vector

; 2076 :         _Mylast  = _Newvec + _Newsize;

  00157	8b 45 f4	 mov	 eax, DWORD PTR __Oldsize$1$[ebp]
  0015a	40		 inc	 eax
  0015b	89 3b		 mov	 DWORD PTR [ebx], edi

; 916  :         _Change_array(_Newvec, _Newsize, _Newcapacity);
; 917  :         return _Newvec + _Whereoff;

  0015d	5e		 pop	 esi

; 2076 :         _Mylast  = _Newvec + _Newsize;

  0015e	8d 0c 40	 lea	 ecx, DWORD PTR [eax+eax*2]

; 916  :         _Change_array(_Newvec, _Newsize, _Newcapacity);
; 917  :         return _Newvec + _Whereoff;

  00161	8b 45 f8	 mov	 eax, DWORD PTR tv650[ebp]

; 2076 :         _Mylast  = _Newvec + _Newsize;

  00164	8d 0c 8f	 lea	 ecx, DWORD PTR [edi+ecx*4]
  00167	89 4b 04	 mov	 DWORD PTR [ebx+4], ecx

; 2077 :         _Myend   = _Newvec + _Newcapacity;

  0016a	8b 4d fc	 mov	 ecx, DWORD PTR tv652[ebp]
  0016d	03 cf		 add	 ecx, edi

; 918  :     }

  0016f	5f		 pop	 edi

; 2077 :         _Myend   = _Newvec + _Newcapacity;

  00170	89 4b 08	 mov	 DWORD PTR [ebx+8], ecx

; 918  :     }

  00173	5b		 pop	 ebx
  00174	8b e5		 mov	 esp, ebp
  00176	5d		 pop	 ebp
  00177	c2 08 00	 ret	 8
$LN84@Emplace_re:
; File C:\Program Files\Microsoft Visual Studio\2022\Professional\VC\Tools\MSVC\14.44.35207\include\xmemory

; 219  :     _STL_VERIFY(_Back_shift >= _Min_back_shift && _Back_shift <= _Non_user_size, "invalid argument");

  0017a	6a 00		 push	 0
  0017c	6a 00		 push	 0
  0017e	6a 00		 push	 0
  00180	6a 00		 push	 0
  00182	6a 00		 push	 0
  00184	e8 00 00 00 00	 call	 __invoke_watson
$LN119@Emplace_re:
; File C:\Program Files\Microsoft Visual Studio\2022\Professional\VC\Tools\MSVC\14.44.35207\include\vector

; 888  :             _Xlength();

  00189	e8 00 00 00 00	 call	 ?_Xlength@?$vector@U__MAKEGEMITEM@CUltimateWeapon@@V?$allocator@U__MAKEGEMITEM@CUltimateWeapon@@@std@@@std@@CAXXZ ; std::vector<CUltimateWeapon::__MAKEGEMITEM,std::allocator<CUltimateWeapon::__MAKEGEMITEM> >::_Xlength
$LN120@Emplace_re:
; File C:\Program Files\Microsoft Visual Studio\2022\Professional\VC\Tools\MSVC\14.44.35207\include\xmemory

; 118  :             _Throw_bad_array_new_length(); // multiply overflow

  0018e	e8 00 00 00 00	 call	 ?_Throw_bad_array_new_length@std@@YAXXZ ; std::_Throw_bad_array_new_length
$LN116@Emplace_re:
  00193	cc		 int	 3
??$_Emplace_reallocate@ABU__MAKEGEMITEM@CUltimateWeapon@@@?$vector@U__MAKEGEMITEM@CUltimateWeapon@@V?$allocator@U__MAKEGEMITEM@CUltimateWeapon@@@std@@@std@@AAEPAU__MAKEGEMITEM@CUltimateWeapon@@QAU23@ABU23@@Z ENDP ; std::vector<CUltimateWeapon::__MAKEGEMITEM,std::allocator<CUltimateWeapon::__MAKEGEMITEM> >::_Emplace_reallocate<CUltimateWeapon::__MAKEGEMITEM const &>
_TEXT	ENDS
; Function compile flags: /Ogtp
; File C:\Program Files\Microsoft Visual Studio\2022\Professional\VC\Tools\MSVC\14.44.35207\include\vector
; File C:\Program Files\Microsoft Visual Studio\2022\Professional\VC\Tools\MSVC\14.44.35207\include\xmemory
; File C:\Program Files\Microsoft Visual Studio\2022\Professional\VC\Tools\MSVC\14.44.35207\include\vector
; File C:\Program Files\Microsoft Visual Studio\2022\Professional\VC\Tools\MSVC\14.44.35207\include\xmemory
; File C:\Program Files\Microsoft Visual Studio\2022\Professional\VC\Tools\MSVC\14.44.35207\include\vector
; File C:\Program Files\Microsoft Visual Studio\2022\Professional\VC\Tools\MSVC\14.44.35207\include\xmemory
; File C:\Program Files\Microsoft Visual Studio\2022\Professional\VC\Tools\MSVC\14.44.35207\include\vector
; File C:\Program Files\Microsoft Visual Studio\2022\Professional\VC\Tools\MSVC\14.44.35207\include\xmemory
; File C:\Program Files\Microsoft Visual Studio\2022\Professional\VC\Tools\MSVC\14.44.35207\include\vector
; File C:\Program Files\Microsoft Visual Studio\2022\Professional\VC\Tools\MSVC\14.44.35207\include\xmemory
; File C:\Program Files\Microsoft Visual Studio\2022\Professional\VC\Tools\MSVC\14.44.35207\include\vector
; File C:\Program Files\Microsoft Visual Studio\2022\Professional\VC\Tools\MSVC\14.44.35207\include\xmemory
; File C:\Program Files\Microsoft Visual Studio\2022\Professional\VC\Tools\MSVC\14.44.35207\include\vector
; File C:\Program Files\Microsoft Visual Studio\2022\Professional\VC\Tools\MSVC\14.44.35207\include\xmemory
; File C:\Program Files\Microsoft Visual Studio\2022\Professional\VC\Tools\MSVC\14.44.35207\include\vector
; File C:\Program Files\Microsoft Visual Studio\2022\Professional\VC\Tools\MSVC\14.44.35207\include\xmemory
; File C:\Program Files\Microsoft Visual Studio\2022\Professional\VC\Tools\MSVC\14.44.35207\include\vector
;	COMDAT ??$_Emplace_reallocate@ABU__GEMABILITYKIND@CUltimateWeapon@@@?$vector@U__GEMABILITYKIND@CUltimateWeapon@@V?$allocator@U__GEMABILITYKIND@CUltimateWeapon@@@std@@@std@@AAEPAU__GEMABILITYKIND@CUltimateWeapon@@QAU23@ABU23@@Z
_TEXT	SEGMENT
__Guard$ = -52						; size = 20
tv635 = -32						; size = 4
__Newsize$1$ = -28					; size = 4
_this$1$ = -24						; size = 4
tv636 = -20						; size = 4
__Whereoff$1$ = -16					; size = 4
$T2 = -16						; size = 4
__$EHRec$ = -12						; size = 12
__Whereptr$ = 8						; size = 4
_<_Val_0>$ = 12						; size = 4
??$_Emplace_reallocate@ABU__GEMABILITYKIND@CUltimateWeapon@@@?$vector@U__GEMABILITYKIND@CUltimateWeapon@@V?$allocator@U__GEMABILITYKIND@CUltimateWeapon@@@std@@@std@@AAEPAU__GEMABILITYKIND@CUltimateWeapon@@QAU23@ABU23@@Z PROC ; std::vector<CUltimateWeapon::__GEMABILITYKIND,std::allocator<CUltimateWeapon::__GEMABILITYKIND> >::_Emplace_reallocate<CUltimateWeapon::__GEMABILITYKIND const &>, COMDAT
; _this$ = ecx

; 875  :     _CONSTEXPR20 pointer _Emplace_reallocate(const pointer _Whereptr, _Valty&&... _Val) {

  00000	55		 push	 ebp
  00001	8b ec		 mov	 ebp, esp
  00003	6a ff		 push	 -1
  00005	68 00 00 00 00	 push	 __ehhandler$??$_Emplace_reallocate@ABU__GEMABILITYKIND@CUltimateWeapon@@@?$vector@U__GEMABILITYKIND@CUltimateWeapon@@V?$allocator@U__GEMABILITYKIND@CUltimateWeapon@@@std@@@std@@AAEPAU__GEMABILITYKIND@CUltimateWeapon@@QAU23@ABU23@@Z
  0000a	64 a1 00 00 00
	00		 mov	 eax, DWORD PTR fs:0
  00010	50		 push	 eax
  00011	83 ec 28	 sub	 esp, 40			; 00000028H
  00014	53		 push	 ebx
  00015	56		 push	 esi
  00016	57		 push	 edi
  00017	a1 00 00 00 00	 mov	 eax, DWORD PTR ___security_cookie
  0001c	33 c5		 xor	 eax, ebp
  0001e	50		 push	 eax
  0001f	8d 45 f4	 lea	 eax, DWORD PTR __$EHRec$[ebp]
  00022	64 a3 00 00 00
	00		 mov	 DWORD PTR fs:0, eax
  00028	8b f9		 mov	 edi, ecx
  0002a	89 7d e8	 mov	 DWORD PTR _this$1$[ebp], edi

; 876  :         // reallocate and insert by perfectly forwarding _Val at _Whereptr
; 877  :         _Alty& _Al        = _Getal();
; 878  :         auto& _My_data    = _Mypair._Myval2;
; 879  :         pointer& _Myfirst = _My_data._Myfirst;
; 880  :         pointer& _Mylast  = _My_data._Mylast;
; 881  : 
; 882  :         _STL_INTERNAL_CHECK(_Mylast == _My_data._Myend); // check that we have no unused capacity
; 883  : 
; 884  :         const auto _Whereoff = static_cast<size_type>(_Whereptr - _Myfirst);

  0002d	8b 37		 mov	 esi, DWORD PTR [edi]

; 885  :         const auto _Oldsize  = static_cast<size_type>(_Mylast - _Myfirst);

  0002f	8b 47 04	 mov	 eax, DWORD PTR [edi+4]
  00032	8b 4d 08	 mov	 ecx, DWORD PTR __Whereptr$[ebp]
  00035	2b c6		 sub	 eax, esi
  00037	2b ce		 sub	 ecx, esi
  00039	c1 f8 04	 sar	 eax, 4
  0003c	c1 f9 04	 sar	 ecx, 4
  0003f	89 4d f0	 mov	 DWORD PTR __Whereoff$1$[ebp], ecx

; 886  : 
; 887  :         if (_Oldsize == max_size()) {

  00042	3d ff ff ff 0f	 cmp	 eax, 268435455		; 0fffffffH
  00047	0f 84 64 01 00
	00		 je	 $LN119@Emplace_re

; 1924 :         return static_cast<size_type>(_My_data._Myend - _My_data._Myfirst);

  0004d	8b 5f 08	 mov	 ebx, DWORD PTR [edi+8]

; 889  :         }
; 890  : 
; 891  :         const size_type _Newsize = _Oldsize + 1;

  00050	8d 50 01	 lea	 edx, DWORD PTR [eax+1]

; 1924 :         return static_cast<size_type>(_My_data._Myend - _My_data._Myfirst);

  00053	2b de		 sub	 ebx, esi

; 889  :         }
; 890  : 
; 891  :         const size_type _Newsize = _Oldsize + 1;

  00055	89 55 e4	 mov	 DWORD PTR __Newsize$1$[ebp], edx

; 1924 :         return static_cast<size_type>(_My_data._Myend - _My_data._Myfirst);

  00058	c1 fb 04	 sar	 ebx, 4

; 2011 :         if (_Oldcapacity > _Max - _Oldcapacity / 2) {

  0005b	b8 ff ff ff 0f	 mov	 eax, 268435455		; 0fffffffH
  00060	8b f3		 mov	 esi, ebx
  00062	d1 ee		 shr	 esi, 1
  00064	2b c6		 sub	 eax, esi
  00066	3b d8		 cmp	 ebx, eax
  00068	76 19		 jbe	 SHORT $LN8@Emplace_re

; 2012 :             return _Max; // geometric growth would overflow

  0006a	b8 f0 ff ff ff	 mov	 eax, -16		; fffffff0H
  0006f	c7 45 ec f0 ff
	ff ff		 mov	 DWORD PTR tv636[ebp], -16 ; fffffff0H
; File C:\Program Files\Microsoft Visual Studio\2022\Professional\VC\Tools\MSVC\14.44.35207\include\xmemory

; 253  :             return _Allocate_manually_vector_aligned<_Traits>(_Bytes);

  00076	50		 push	 eax
; File C:\Program Files\Microsoft Visual Studio\2022\Professional\VC\Tools\MSVC\14.44.35207\include\vector

; 2012 :             return _Max; // geometric growth would overflow

  00077	be ff ff ff 0f	 mov	 esi, 268435455		; 0fffffffH
; File C:\Program Files\Microsoft Visual Studio\2022\Professional\VC\Tools\MSVC\14.44.35207\include\xmemory

; 253  :             return _Allocate_manually_vector_aligned<_Traits>(_Bytes);

  0007c	e8 00 00 00 00	 call	 ??$_Allocate_manually_vector_aligned@U_Default_allocate_traits@std@@@std@@YAPAXI@Z ; std::_Allocate_manually_vector_aligned<std::_Default_allocate_traits>
  00081	eb 3b		 jmp	 SHORT $LN117@Emplace_re
$LN8@Emplace_re:
; File C:\Program Files\Microsoft Visual Studio\2022\Professional\VC\Tools\MSVC\14.44.35207\include\vector

; 2015 :         const size_type _Geometric = _Oldcapacity + _Oldcapacity / 2;

  00083	8d 04 1e	 lea	 eax, DWORD PTR [esi+ebx]
; File C:\Program Files\Microsoft Visual Studio\2022\Professional\VC\Tools\MSVC\14.44.35207\include\xmemory

; 117  :         if (_Count > _Max_possible) {

  00086	8b f2		 mov	 esi, edx
  00088	3b c2		 cmp	 eax, edx
  0008a	0f 43 f0	 cmovae	 esi, eax
  0008d	81 fe ff ff ff
	0f		 cmp	 esi, 268435455		; 0fffffffH
  00093	0f 87 1d 01 00
	00		 ja	 $LN120@Emplace_re

; 119  :         }
; 120  :     }
; 121  : 
; 122  :     return _Count * _Ty_size;

  00099	8b c6		 mov	 eax, esi
  0009b	c1 e0 04	 shl	 eax, 4
  0009e	89 45 ec	 mov	 DWORD PTR tv636[ebp], eax

; 227  :     if (_Bytes == 0) {

  000a1	85 c0		 test	 eax, eax
  000a3	75 04		 jne	 SHORT $LN23@Emplace_re

; 228  :         return nullptr;

  000a5	33 db		 xor	 ebx, ebx
  000a7	eb 1d		 jmp	 SHORT $LN22@Emplace_re
$LN23@Emplace_re:

; 229  :     }
; 230  : 
; 231  : #if _HAS_CXX20 // TRANSITION, GH-1532
; 232  :     if (_STD is_constant_evaluated()) {
; 233  :         return _Traits::_Allocate(_Bytes);
; 234  :     }
; 235  : #endif // _HAS_CXX20
; 236  : 
; 237  : #ifdef __cpp_aligned_new
; 238  :     if constexpr (_Align > __STDCPP_DEFAULT_NEW_ALIGNMENT__) {
; 239  :         size_t _Passed_align = _Align;
; 240  : #if defined(_M_IX86) || defined(_M_X64)
; 241  :         if (_Bytes >= _Big_allocation_threshold) {
; 242  :             // boost the alignment of big allocations to help autovectorization
; 243  :             _Passed_align = (_STD max)(_Align, _Big_allocation_alignment);
; 244  :         }
; 245  : #endif // defined(_M_IX86) || defined(_M_X64)
; 246  :         return _Traits::_Allocate_aligned(_Bytes, _Passed_align);
; 247  :     } else
; 248  : #endif // defined(__cpp_aligned_new)
; 249  :     {
; 250  : #if defined(_M_IX86) || defined(_M_X64)
; 251  :         if (_Bytes >= _Big_allocation_threshold) {

  000a9	3d 00 10 00 00	 cmp	 eax, 4096		; 00001000H
  000ae	72 08		 jb	 SHORT $LN24@Emplace_re

; 253  :             return _Allocate_manually_vector_aligned<_Traits>(_Bytes);

  000b0	50		 push	 eax
  000b1	e8 00 00 00 00	 call	 ??$_Allocate_manually_vector_aligned@U_Default_allocate_traits@std@@@std@@YAPAXI@Z ; std::_Allocate_manually_vector_aligned<std::_Default_allocate_traits>
  000b6	eb 06		 jmp	 SHORT $LN117@Emplace_re
$LN24@Emplace_re:

; 136  :         return ::operator new(_Bytes);

  000b8	50		 push	 eax
  000b9	e8 00 00 00 00	 call	 ??2@YAPAXI@Z		; operator new
$LN117@Emplace_re:
; File C:\Program Files\Microsoft Visual Studio\2022\Professional\VC\Tools\MSVC\14.44.35207\include\vector

; 895  :         const pointer _Constructed_last = _Newvec + _Whereoff + 1;

  000be	8b 4d f0	 mov	 ecx, DWORD PTR __Whereoff$1$[ebp]
  000c1	8b d8		 mov	 ebx, eax
  000c3	83 c4 04	 add	 esp, 4
$LN22@Emplace_re:
  000c6	c1 e1 04	 shl	 ecx, 4
  000c9	03 cb		 add	 ecx, ebx

; 896  : 
; 897  :         _Reallocation_guard _Guard{_Al, _Newvec, _Newcapacity, _Constructed_last, _Constructed_last};

  000cb	89 7d cc	 mov	 DWORD PTR __Guard$[ebp], edi
  000ce	89 4d e0	 mov	 DWORD PTR tv635[ebp], ecx
  000d1	89 5d d0	 mov	 DWORD PTR __Guard$[ebp+4], ebx
  000d4	89 75 d4	 mov	 DWORD PTR __Guard$[ebp+8], esi
  000d7	8d 41 10	 lea	 eax, DWORD PTR [ecx+16]
  000da	89 45 f0	 mov	 DWORD PTR $T2[ebp], eax
  000dd	89 45 d8	 mov	 DWORD PTR __Guard$[ebp+12], eax
  000e0	89 45 dc	 mov	 DWORD PTR __Guard$[ebp+16], eax

; 898  :         auto& _Constructed_first = _Guard._Constructed_first;
; 899  : 
; 900  :         _Alty_traits::construct(_Al, _STD _Unfancy(_Newvec + _Whereoff), _STD forward<_Valty>(_Val)...);

  000e3	ff 75 0c	 push	 DWORD PTR _<_Val_0>$[ebp]
  000e6	c7 45 fc 00 00
	00 00		 mov	 DWORD PTR __$EHRec$[ebp+8], 0
  000ed	51		 push	 ecx
  000ee	57		 push	 edi
  000ef	e8 00 00 00 00	 call	 ??$construct@U__GEMABILITYKIND@CUltimateWeapon@@ABU12@@?$_Default_allocator_traits@V?$allocator@U__GEMABILITYKIND@CUltimateWeapon@@@std@@@std@@SAXAAV?$allocator@U__GEMABILITYKIND@CUltimateWeapon@@@1@QAU__GEMABILITYKIND@CUltimateWeapon@@ABU34@@Z ; std::_Default_allocator_traits<std::allocator<CUltimateWeapon::__GEMABILITYKIND> >::construct<CUltimateWeapon::__GEMABILITYKIND,CUltimateWeapon::__GEMABILITYKIND const &>

; 901  :         _Constructed_first = _Newvec + _Whereoff;
; 902  : 
; 903  :         if (_Whereptr == _Mylast) { // at back, provide strong guarantee

  000f4	8b 57 04	 mov	 edx, DWORD PTR [edi+4]
  000f7	83 c4 0c	 add	 esp, 12			; 0000000cH
  000fa	8b 75 08	 mov	 esi, DWORD PTR __Whereptr$[ebp]
  000fd	8b 0f		 mov	 ecx, DWORD PTR [edi]
  000ff	3b f2		 cmp	 esi, edx
  00101	75 04		 jne	 SHORT $LN3@Emplace_re

; 904  :             if constexpr (is_nothrow_move_constructible_v<_Ty> || !is_copy_constructible_v<_Ty>) {
; 905  :                 _STD _Uninitialized_move(_Myfirst, _Mylast, _Newvec, _Al);

  00103	8b c3		 mov	 eax, ebx

; 906  :             } else {
; 907  :                 _STD _Uninitialized_copy(_Myfirst, _Mylast, _Newvec, _Al);
; 908  :             }
; 909  :         } else { // provide basic guarantee

  00105	eb 14		 jmp	 SHORT $LN4@Emplace_re
$LN3@Emplace_re:

; 910  :             _STD _Uninitialized_move(_Myfirst, _Whereptr, _Newvec, _Al);

  00107	57		 push	 edi
  00108	53		 push	 ebx
  00109	56		 push	 esi
  0010a	51		 push	 ecx
  0010b	e8 00 00 00 00	 call	 ??$_Uninitialized_move@PAU__GEMABILITYKIND@CUltimateWeapon@@V?$allocator@U__GEMABILITYKIND@CUltimateWeapon@@@std@@@std@@YAPAU__GEMABILITYKIND@CUltimateWeapon@@QAU12@0PAU12@AAV?$allocator@U__GEMABILITYKIND@CUltimateWeapon@@@0@@Z ; std::_Uninitialized_move<CUltimateWeapon::__GEMABILITYKIND *,std::allocator<CUltimateWeapon::__GEMABILITYKIND> >

; 911  :             _Constructed_first = _Newvec;
; 912  :             _STD _Uninitialized_move(_Whereptr, _Mylast, _Newvec + _Whereoff + 1, _Al);

  00110	8b 57 04	 mov	 edx, DWORD PTR [edi+4]
  00113	83 c4 10	 add	 esp, 16			; 00000010H
  00116	8b 45 f0	 mov	 eax, DWORD PTR $T2[ebp]
  00119	8b ce		 mov	 ecx, esi
$LN4@Emplace_re:

; 913  :         }
; 914  : 
; 915  :         _Guard._New_begin = nullptr;

  0011b	57		 push	 edi
  0011c	50		 push	 eax
  0011d	52		 push	 edx
  0011e	51		 push	 ecx
  0011f	e8 00 00 00 00	 call	 ??$_Uninitialized_move@PAU__GEMABILITYKIND@CUltimateWeapon@@V?$allocator@U__GEMABILITYKIND@CUltimateWeapon@@@std@@@std@@YAPAU__GEMABILITYKIND@CUltimateWeapon@@QAU12@0PAU12@AAV?$allocator@U__GEMABILITYKIND@CUltimateWeapon@@@0@@Z ; std::_Uninitialized_move<CUltimateWeapon::__GEMABILITYKIND *,std::allocator<CUltimateWeapon::__GEMABILITYKIND> >

; 2069 :         if (_Myfirst) { // destroy and deallocate old array

  00124	8b 37		 mov	 esi, DWORD PTR [edi]

; 913  :         }
; 914  : 
; 915  :         _Guard._New_begin = nullptr;

  00126	83 c4 10	 add	 esp, 16			; 00000010H

; 2069 :         if (_Myfirst) { // destroy and deallocate old array

  00129	85 f6		 test	 esi, esi
  0012b	74 49		 je	 SHORT $LN59@Emplace_re

; 2070 :             _STD _Destroy_range(_Myfirst, _Mylast, _Al);

  0012d	8b 47 04	 mov	 eax, DWORD PTR [edi+4]
; File C:\Program Files\Microsoft Visual Studio\2022\Professional\VC\Tools\MSVC\14.44.35207\include\xmemory

; 1102 :         for (; _First != _Last; ++_First) {

  00130	3b f0		 cmp	 esi, eax
  00132	74 14		 je	 SHORT $LN36@Emplace_re
  00134	8b f8		 mov	 edi, eax
$LL37@Emplace_re:
; File C:\Program Files\Microsoft Visual Studio\2022\Professional\VC\Tools\MSVC\14.44.35207\include\vector

; 830  :         _Tidy();

  00136	8d 4e 04	 lea	 ecx, DWORD PTR [esi+4]
  00139	e8 00 00 00 00	 call	 ?_Tidy@?$vector@U__GEMABILITY@CUltimateWeapon@@V?$allocator@U__GEMABILITY@CUltimateWeapon@@@std@@@std@@AAEXXZ ; std::vector<CUltimateWeapon::__GEMABILITY,std::allocator<CUltimateWeapon::__GEMABILITY> >::_Tidy
; File C:\Program Files\Microsoft Visual Studio\2022\Professional\VC\Tools\MSVC\14.44.35207\include\xmemory

; 1102 :         for (; _First != _Last; ++_First) {

  0013e	83 c6 10	 add	 esi, 16			; 00000010H
  00141	3b f7		 cmp	 esi, edi
  00143	75 f1		 jne	 SHORT $LL37@Emplace_re
  00145	8b 7d e8	 mov	 edi, DWORD PTR _this$1$[ebp]
$LN36@Emplace_re:
; File C:\Program Files\Microsoft Visual Studio\2022\Professional\VC\Tools\MSVC\14.44.35207\include\vector

; 2072 :             _Al.deallocate(_Myfirst, static_cast<size_type>(_Myend - _Myfirst));

  00148	8b 4f 08	 mov	 ecx, DWORD PTR [edi+8]
  0014b	8b 07		 mov	 eax, DWORD PTR [edi]
  0014d	2b c8		 sub	 ecx, eax
; File C:\Program Files\Microsoft Visual Studio\2022\Professional\VC\Tools\MSVC\14.44.35207\include\xmemory

; 985  :         _STD _Deallocate<_New_alignof<_Ty>>(_Ptr, sizeof(_Ty) * _Count);

  0014f	83 e1 f0	 and	 ecx, -16		; fffffff0H

; 284  :         if (_Bytes >= _Big_allocation_threshold) {

  00152	81 f9 00 10 00
	00		 cmp	 ecx, 4096		; 00001000H
  00158	72 12		 jb	 SHORT $LN64@Emplace_re

; 205  :     const uintptr_t _Ptr_container   = _Ptr_user[-1];

  0015a	8b 50 fc	 mov	 edx, DWORD PTR [eax-4]
  0015d	83 c1 23	 add	 ecx, 35			; 00000023H

; 206  : 
; 207  :     // If the following asserts, it likely means that we are performing
; 208  :     // an aligned delete on memory coming from an unaligned allocation.
; 209  :     _STL_ASSERT(_Ptr_user[-2] == _Big_allocation_sentinel, "invalid argument");
; 210  : 
; 211  :     // Extra paranoia on aligned allocation/deallocation; ensure _Ptr_container is
; 212  :     // in range [_Min_back_shift, _Non_user_size]
; 213  : #ifdef _DEBUG
; 214  :     constexpr uintptr_t _Min_back_shift = 2 * sizeof(void*);
; 215  : #else // ^^^ defined(_DEBUG) / !defined(_DEBUG) vvv
; 216  :     constexpr uintptr_t _Min_back_shift = sizeof(void*);
; 217  : #endif // ^^^ !defined(_DEBUG) ^^^
; 218  :     const uintptr_t _Back_shift = reinterpret_cast<uintptr_t>(_Ptr) - _Ptr_container;

  00160	2b c2		 sub	 eax, edx

; 219  :     _STL_VERIFY(_Back_shift >= _Min_back_shift && _Back_shift <= _Non_user_size, "invalid argument");

  00162	83 c0 fc	 add	 eax, -4			; fffffffcH
  00165	83 f8 1f	 cmp	 eax, 31			; 0000001fH
  00168	77 38		 ja	 SHORT $LN63@Emplace_re

; 220  :     _Ptr = reinterpret_cast<void*>(_Ptr_container);

  0016a	8b c2		 mov	 eax, edx
$LN64@Emplace_re:

; 289  :         ::operator delete(_Ptr, _Bytes);

  0016c	51		 push	 ecx
  0016d	50		 push	 eax
  0016e	e8 00 00 00 00	 call	 ??3@YAXPAXI@Z		; operator delete
  00173	83 c4 08	 add	 esp, 8
$LN59@Emplace_re:
; File C:\Program Files\Microsoft Visual Studio\2022\Professional\VC\Tools\MSVC\14.44.35207\include\vector

; 2076 :         _Mylast  = _Newvec + _Newsize;

  00176	8b 45 e4	 mov	 eax, DWORD PTR __Newsize$1$[ebp]

; 2077 :         _Myend   = _Newvec + _Newcapacity;

  00179	8b 4d ec	 mov	 ecx, DWORD PTR tv636[ebp]
  0017c	c1 e0 04	 shl	 eax, 4
  0017f	03 c3		 add	 eax, ebx
  00181	89 1f		 mov	 DWORD PTR [edi], ebx
  00183	89 47 04	 mov	 DWORD PTR [edi+4], eax
  00186	03 cb		 add	 ecx, ebx

; 916  :         _Change_array(_Newvec, _Newsize, _Newcapacity);
; 917  :         return _Newvec + _Whereoff;

  00188	8b 45 e0	 mov	 eax, DWORD PTR tv635[ebp]

; 2077 :         _Myend   = _Newvec + _Newcapacity;

  0018b	89 4f 08	 mov	 DWORD PTR [edi+8], ecx

; 918  :     }

  0018e	8b 4d f4	 mov	 ecx, DWORD PTR __$EHRec$[ebp]
  00191	64 89 0d 00 00
	00 00		 mov	 DWORD PTR fs:0, ecx
  00198	59		 pop	 ecx
  00199	5f		 pop	 edi
  0019a	5e		 pop	 esi
  0019b	5b		 pop	 ebx
  0019c	8b e5		 mov	 esp, ebp
  0019e	5d		 pop	 ebp
  0019f	c2 08 00	 ret	 8
$LN63@Emplace_re:
; File C:\Program Files\Microsoft Visual Studio\2022\Professional\VC\Tools\MSVC\14.44.35207\include\xmemory

; 219  :     _STL_VERIFY(_Back_shift >= _Min_back_shift && _Back_shift <= _Non_user_size, "invalid argument");

  001a2	6a 00		 push	 0
  001a4	6a 00		 push	 0
  001a6	6a 00		 push	 0
  001a8	6a 00		 push	 0
  001aa	6a 00		 push	 0
  001ac	e8 00 00 00 00	 call	 __invoke_watson
$LN119@Emplace_re:
; File C:\Program Files\Microsoft Visual Studio\2022\Professional\VC\Tools\MSVC\14.44.35207\include\vector

; 888  :             _Xlength();

  001b1	e8 00 00 00 00	 call	 ?_Xlength@?$vector@U__GEMABILITYKIND@CUltimateWeapon@@V?$allocator@U__GEMABILITYKIND@CUltimateWeapon@@@std@@@std@@CAXXZ ; std::vector<CUltimateWeapon::__GEMABILITYKIND,std::allocator<CUltimateWeapon::__GEMABILITYKIND> >::_Xlength
$LN120@Emplace_re:
; File C:\Program Files\Microsoft Visual Studio\2022\Professional\VC\Tools\MSVC\14.44.35207\include\xmemory

; 118  :             _Throw_bad_array_new_length(); // multiply overflow

  001b6	e8 00 00 00 00	 call	 ?_Throw_bad_array_new_length@std@@YAXXZ ; std::_Throw_bad_array_new_length
$LN116@Emplace_re:
  001bb	cc		 int	 3
_TEXT	ENDS
;	COMDAT text$x
text$x	SEGMENT
__unwindfunclet$??$_Emplace_reallocate@ABU__GEMABILITYKIND@CUltimateWeapon@@@?$vector@U__GEMABILITYKIND@CUltimateWeapon@@V?$allocator@U__GEMABILITYKIND@CUltimateWeapon@@@std@@@std@@AAEPAU__GEMABILITYKIND@CUltimateWeapon@@QAU23@ABU23@@Z$0:
  00000	8d 4d cc	 lea	 ecx, DWORD PTR __Guard$[ebp]
  00003	e9 00 00 00 00	 jmp	 ??1_Reallocation_guard@?$vector@U__GEMABILITYKIND@CUltimateWeapon@@V?$allocator@U__GEMABILITYKIND@CUltimateWeapon@@@std@@@std@@QAE@XZ ; std::vector<CUltimateWeapon::__GEMABILITYKIND,std::allocator<CUltimateWeapon::__GEMABILITYKIND> >::_Reallocation_guard::~_Reallocation_guard
  00008	cc		 int	 3
  00009	cc		 int	 3
  0000a	cc		 int	 3
  0000b	cc		 int	 3
  0000c	cc		 int	 3
__ehhandler$??$_Emplace_reallocate@ABU__GEMABILITYKIND@CUltimateWeapon@@@?$vector@U__GEMABILITYKIND@CUltimateWeapon@@V?$allocator@U__GEMABILITYKIND@CUltimateWeapon@@@std@@@std@@AAEPAU__GEMABILITYKIND@CUltimateWeapon@@QAU23@ABU23@@Z:
  0000d	90		 npad	 1
  0000e	90		 npad	 1
  0000f	8b 54 24 08	 mov	 edx, DWORD PTR [esp+8]
  00013	8d 42 0c	 lea	 eax, DWORD PTR [edx+12]
  00016	8b 4a c8	 mov	 ecx, DWORD PTR [edx-56]
  00019	33 c8		 xor	 ecx, eax
  0001b	e8 00 00 00 00	 call	 @__security_check_cookie@4
  00020	b8 00 00 00 00	 mov	 eax, OFFSET __ehfuncinfo$??$_Emplace_reallocate@ABU__GEMABILITYKIND@CUltimateWeapon@@@?$vector@U__GEMABILITYKIND@CUltimateWeapon@@V?$allocator@U__GEMABILITYKIND@CUltimateWeapon@@@std@@@std@@AAEPAU__GEMABILITYKIND@CUltimateWeapon@@QAU23@ABU23@@Z
  00025	e9 00 00 00 00	 jmp	 ___CxxFrameHandler3
text$x	ENDS
??$_Emplace_reallocate@ABU__GEMABILITYKIND@CUltimateWeapon@@@?$vector@U__GEMABILITYKIND@CUltimateWeapon@@V?$allocator@U__GEMABILITYKIND@CUltimateWeapon@@@std@@@std@@AAEPAU__GEMABILITYKIND@CUltimateWeapon@@QAU23@ABU23@@Z ENDP ; std::vector<CUltimateWeapon::__GEMABILITYKIND,std::allocator<CUltimateWeapon::__GEMABILITYKIND> >::_Emplace_reallocate<CUltimateWeapon::__GEMABILITYKIND const &>
; Function compile flags: /Ogtp
; File C:\Program Files\Microsoft Visual Studio\2022\Professional\VC\Tools\MSVC\14.44.35207\include\xtree
; File C:\Program Files\Microsoft Visual Studio\2022\Professional\VC\Tools\MSVC\14.44.35207\include\utility
; File C:\Program Files\Microsoft Visual Studio\2022\Professional\VC\Tools\MSVC\14.44.35207\include\xmemory
; File C:\Program Files\Microsoft Visual Studio\2022\Professional\VC\Tools\MSVC\14.44.35207\include\xtree
;	COMDAT ??$_Erase_tree@V?$allocator@U?$_Tree_node@U?$pair@$$CBHU__MAKEGEMPROB@CUltimateWeapon@@@std@@PAX@std@@@std@@@?$_Tree_val@U?$_Tree_simple_types@U?$pair@$$CBHU__MAKEGEMPROB@CUltimateWeapon@@@std@@@std@@@std@@QAEXAAV?$allocator@U?$_Tree_node@U?$pair@$$CBHU__MAKEGEMPROB@CUltimateWeapon@@@std@@PAX@std@@@1@PAU?$_Tree_node@U?$pair@$$CBHU__MAKEGEMPROB@CUltimateWeapon@@@std@@PAX@1@@Z
_TEXT	SEGMENT
__Al$ = 8						; size = 4
__Rootnode$ = 12					; size = 4
??$_Erase_tree@V?$allocator@U?$_Tree_node@U?$pair@$$CBHU__MAKEGEMPROB@CUltimateWeapon@@@std@@PAX@std@@@std@@@?$_Tree_val@U?$_Tree_simple_types@U?$pair@$$CBHU__MAKEGEMPROB@CUltimateWeapon@@@std@@@std@@@std@@QAEXAAV?$allocator@U?$_Tree_node@U?$pair@$$CBHU__MAKEGEMPROB@CUltimateWeapon@@@std@@PAX@std@@@1@PAU?$_Tree_node@U?$pair@$$CBHU__MAKEGEMPROB@CUltimateWeapon@@@std@@PAX@1@@Z PROC ; std::_Tree_val<std::_Tree_simple_types<std::pair<int const ,CUltimateWeapon::__MAKEGEMPROB> > >::_Erase_tree<std::allocator<std::_Tree_node<std::pair<int const ,CUltimateWeapon::__MAKEGEMPROB>,void *> > >, COMDAT
; _this$ = ecx

; 767  :     void _Erase_tree(_Alnode& _Al, _Nodeptr _Rootnode) noexcept {

  00000	55		 push	 ebp
  00001	8b ec		 mov	 ebp, esp
  00003	53		 push	 ebx
  00004	56		 push	 esi

; 768  :         while (!_Rootnode->_Isnil) { // free subtrees, then node

  00005	8b 75 0c	 mov	 esi, DWORD PTR __Rootnode$[ebp]
  00008	8b d9		 mov	 ebx, ecx
  0000a	80 7e 0d 00	 cmp	 BYTE PTR [esi+13], 0
  0000e	75 25		 jne	 SHORT $LN34@Erase_tree
  00010	57		 push	 edi
  00011	8b 7d 08	 mov	 edi, DWORD PTR __Al$[ebp]
$LL2@Erase_tree:

; 769  :             _Erase_tree(_Al, _Rootnode->_Right);

  00014	ff 76 08	 push	 DWORD PTR [esi+8]
  00017	8b cb		 mov	 ecx, ebx
  00019	57		 push	 edi
  0001a	e8 00 00 00 00	 call	 ??$_Erase_tree@V?$allocator@U?$_Tree_node@U?$pair@$$CBHU__MAKEGEMPROB@CUltimateWeapon@@@std@@PAX@std@@@std@@@?$_Tree_val@U?$_Tree_simple_types@U?$pair@$$CBHU__MAKEGEMPROB@CUltimateWeapon@@@std@@@std@@@std@@QAEXAAV?$allocator@U?$_Tree_node@U?$pair@$$CBHU__MAKEGEMPROB@CUltimateWeapon@@@std@@PAX@std@@@1@PAU?$_Tree_node@U?$pair@$$CBHU__MAKEGEMPROB@CUltimateWeapon@@@std@@PAX@1@@Z ; std::_Tree_val<std::_Tree_simple_types<std::pair<int const ,CUltimateWeapon::__MAKEGEMPROB> > >::_Erase_tree<std::allocator<std::_Tree_node<std::pair<int const ,CUltimateWeapon::__MAKEGEMPROB>,void *> > >
; File C:\Program Files\Microsoft Visual Studio\2022\Professional\VC\Tools\MSVC\14.44.35207\include\utility

; 773  :     _Ty _Old_val = static_cast<_Ty&&>(_Val);

  0001f	8b c6		 mov	 eax, esi

; 774  :     _Val         = static_cast<_Other&&>(_New_val);

  00021	8b 36		 mov	 esi, DWORD PTR [esi]
; File C:\Program Files\Microsoft Visual Studio\2022\Professional\VC\Tools\MSVC\14.44.35207\include\xmemory

; 289  :         ::operator delete(_Ptr, _Bytes);

  00023	6a 28		 push	 40			; 00000028H
  00025	50		 push	 eax
  00026	e8 00 00 00 00	 call	 ??3@YAXPAXI@Z		; operator delete
  0002b	83 c4 08	 add	 esp, 8
; File C:\Program Files\Microsoft Visual Studio\2022\Professional\VC\Tools\MSVC\14.44.35207\include\xtree

; 768  :         while (!_Rootnode->_Isnil) { // free subtrees, then node

  0002e	80 7e 0d 00	 cmp	 BYTE PTR [esi+13], 0
  00032	74 e0		 je	 SHORT $LL2@Erase_tree
  00034	5f		 pop	 edi
$LN34@Erase_tree:
  00035	5e		 pop	 esi

; 770  :             _Alnode::value_type::_Freenode(_Al, _STD exchange(_Rootnode, _Rootnode->_Left));
; 771  :         }
; 772  :     }

  00036	5b		 pop	 ebx
  00037	5d		 pop	 ebp
  00038	c2 08 00	 ret	 8
??$_Erase_tree@V?$allocator@U?$_Tree_node@U?$pair@$$CBHU__MAKEGEMPROB@CUltimateWeapon@@@std@@PAX@std@@@std@@@?$_Tree_val@U?$_Tree_simple_types@U?$pair@$$CBHU__MAKEGEMPROB@CUltimateWeapon@@@std@@@std@@@std@@QAEXAAV?$allocator@U?$_Tree_node@U?$pair@$$CBHU__MAKEGEMPROB@CUltimateWeapon@@@std@@PAX@std@@@1@PAU?$_Tree_node@U?$pair@$$CBHU__MAKEGEMPROB@CUltimateWeapon@@@std@@PAX@1@@Z ENDP ; std::_Tree_val<std::_Tree_simple_types<std::pair<int const ,CUltimateWeapon::__MAKEGEMPROB> > >::_Erase_tree<std::allocator<std::_Tree_node<std::pair<int const ,CUltimateWeapon::__MAKEGEMPROB>,void *> > >
_TEXT	ENDS
; Function compile flags: /Ogtp
; File C:\Program Files\Microsoft Visual Studio\2022\Professional\VC\Tools\MSVC\14.44.35207\include\xmemory
;	COMDAT ??1?$_Alloc_construct_ptr@V?$allocator@U?$_Tree_node@U?$pair@$$CBKH@std@@PAX@std@@@std@@@std@@QAE@XZ
_TEXT	SEGMENT
??1?$_Alloc_construct_ptr@V?$allocator@U?$_Tree_node@U?$pair@$$CBKH@std@@PAX@std@@@std@@@std@@QAE@XZ PROC ; std::_Alloc_construct_ptr<std::allocator<std::_Tree_node<std::pair<unsigned long const ,int>,void *> > >::~_Alloc_construct_ptr<std::allocator<std::_Tree_node<std::pair<unsigned long const ,int>,void *> > >, COMDAT
; _this$ = ecx

; 1172 :         if (_Ptr) {

  00000	8b 41 04	 mov	 eax, DWORD PTR [ecx+4]
  00003	85 c0		 test	 eax, eax
  00005	74 0b		 je	 SHORT $LN10@Alloc_cons

; 289  :         ::operator delete(_Ptr, _Bytes);

  00007	6a 18		 push	 24			; 00000018H
  00009	50		 push	 eax
  0000a	e8 00 00 00 00	 call	 ??3@YAXPAXI@Z		; operator delete
  0000f	83 c4 08	 add	 esp, 8
$LN10@Alloc_cons:

; 1173 :             _Al.deallocate(_Ptr, 1);
; 1174 :         }
; 1175 :     }

  00012	c3		 ret	 0
??1?$_Alloc_construct_ptr@V?$allocator@U?$_Tree_node@U?$pair@$$CBKH@std@@PAX@std@@@std@@@std@@QAE@XZ ENDP ; std::_Alloc_construct_ptr<std::allocator<std::_Tree_node<std::pair<unsigned long const ,int>,void *> > >::~_Alloc_construct_ptr<std::allocator<std::_Tree_node<std::pair<unsigned long const ,int>,void *> > >
_TEXT	ENDS
; Function compile flags: /Ogtp
; File C:\Program Files\Microsoft Visual Studio\2022\Professional\VC\Tools\MSVC\14.44.35207\include\xtree
; File C:\Program Files\Microsoft Visual Studio\2022\Professional\VC\Tools\MSVC\14.44.35207\include\type_traits
; File C:\Program Files\Microsoft Visual Studio\2022\Professional\VC\Tools\MSVC\14.44.35207\include\xtree
; File C:\Program Files\Microsoft Visual Studio\2022\Professional\VC\Tools\MSVC\14.44.35207\include\type_traits
; File C:\Program Files\Microsoft Visual Studio\2022\Professional\VC\Tools\MSVC\14.44.35207\include\xtree
;	COMDAT ??$_Find_lower_bound@K@?$_Tree@V?$_Tmap_traits@KHU?$less@K@std@@V?$allocator@U?$pair@$$CBKH@std@@@2@$0A@@std@@@std@@IBE?AU?$_Tree_find_result@PAU?$_Tree_node@U?$pair@$$CBKH@std@@PAX@std@@@1@ABK@Z
_TEXT	SEGMENT
___$ReturnUdt$ = 8					; size = 4
__Keyval$ = 12						; size = 4
??$_Find_lower_bound@K@?$_Tree@V?$_Tmap_traits@KHU?$less@K@std@@V?$allocator@U?$pair@$$CBKH@std@@@2@$0A@@std@@@std@@IBE?AU?$_Tree_find_result@PAU?$_Tree_node@U?$pair@$$CBKH@std@@PAX@std@@@1@ABK@Z PROC ; std::_Tree<std::_Tmap_traits<unsigned long,int,std::less<unsigned long>,std::allocator<std::pair<unsigned long const ,int> >,0> >::_Find_lower_bound<unsigned long>, COMDAT
; _this$ = ecx

; 1628 :     _Tree_find_result<_Nodeptr> _Find_lower_bound(const _Keyty& _Keyval) const {

  00000	55		 push	 ebp
  00001	8b ec		 mov	 ebp, esp

; 1629 :         const auto _Scary = _Get_scary();
; 1630 :         _Tree_find_result<_Nodeptr> _Result{{_Scary->_Myhead->_Parent, _Tree_child::_Right}, _Scary->_Myhead};

  00003	8b 09		 mov	 ecx, DWORD PTR [ecx]
  00005	8b 55 08	 mov	 edx, DWORD PTR ___$ReturnUdt$[ebp]
  00008	8b 41 04	 mov	 eax, DWORD PTR [ecx+4]
  0000b	89 02		 mov	 DWORD PTR [edx], eax
  0000d	c7 42 04 00 00
	00 00		 mov	 DWORD PTR [edx+4], 0
  00014	89 4a 08	 mov	 DWORD PTR [edx+8], ecx

; 1631 :         _Nodeptr _Trynode = _Result._Location._Parent;
; 1632 :         while (!_Trynode->_Isnil) {

  00017	80 78 0d 00	 cmp	 BYTE PTR [eax+13], 0
  0001b	75 28		 jne	 SHORT $LN13@Find_lower
; File C:\Program Files\Microsoft Visual Studio\2022\Professional\VC\Tools\MSVC\14.44.35207\include\type_traits

; 2380 :         return _Left < _Right;

  0001d	8b 4d 0c	 mov	 ecx, DWORD PTR __Keyval$[ebp]
  00020	56		 push	 esi
  00021	8b 31		 mov	 esi, DWORD PTR [ecx]
$LL2@Find_lower:
; File C:\Program Files\Microsoft Visual Studio\2022\Professional\VC\Tools\MSVC\14.44.35207\include\xtree

; 1633 :             _Result._Location._Parent = _Trynode;

  00023	89 02		 mov	 DWORD PTR [edx], eax
; File C:\Program Files\Microsoft Visual Studio\2022\Professional\VC\Tools\MSVC\14.44.35207\include\type_traits

; 2380 :         return _Left < _Right;

  00025	39 70 10	 cmp	 DWORD PTR [eax+16], esi
; File C:\Program Files\Microsoft Visual Studio\2022\Professional\VC\Tools\MSVC\14.44.35207\include\xtree

; 1634 :             if (_DEBUG_LT_PRED(_Getcomp(), _Traits::_Kfn(_Trynode->_Myval), _Keyval)) {

  00028	73 07		 jae	 SHORT $LN4@Find_lower

; 1635 :                 _Result._Location._Child = _Tree_child::_Right;
; 1636 :                 _Trynode                 = _Trynode->_Right;

  0002a	8b 40 08	 mov	 eax, DWORD PTR [eax+8]
  0002d	33 c9		 xor	 ecx, ecx

; 1637 :             } else {

  0002f	eb 0a		 jmp	 SHORT $LN5@Find_lower
$LN4@Find_lower:

; 1638 :                 _Result._Location._Child = _Tree_child::_Left;
; 1639 :                 _Result._Bound           = _Trynode;

  00031	89 42 08	 mov	 DWORD PTR [edx+8], eax

; 1640 :                 _Trynode                 = _Trynode->_Left;

  00034	b9 01 00 00 00	 mov	 ecx, 1
  00039	8b 00		 mov	 eax, DWORD PTR [eax]
$LN5@Find_lower:

; 1631 :         _Nodeptr _Trynode = _Result._Location._Parent;
; 1632 :         while (!_Trynode->_Isnil) {

  0003b	89 4a 04	 mov	 DWORD PTR [edx+4], ecx
  0003e	80 78 0d 00	 cmp	 BYTE PTR [eax+13], 0
  00042	74 df		 je	 SHORT $LL2@Find_lower
  00044	5e		 pop	 esi
$LN13@Find_lower:

; 1641 :             }
; 1642 :         }
; 1643 : 
; 1644 :         return _Result;
; 1645 :     }

  00045	8b c2		 mov	 eax, edx
  00047	5d		 pop	 ebp
  00048	c2 08 00	 ret	 8
??$_Find_lower_bound@K@?$_Tree@V?$_Tmap_traits@KHU?$less@K@std@@V?$allocator@U?$pair@$$CBKH@std@@@2@$0A@@std@@@std@@IBE?AU?$_Tree_find_result@PAU?$_Tree_node@U?$pair@$$CBKH@std@@PAX@std@@@1@ABK@Z ENDP ; std::_Tree<std::_Tmap_traits<unsigned long,int,std::less<unsigned long>,std::allocator<std::pair<unsigned long const ,int> >,0> >::_Find_lower_bound<unsigned long>
_TEXT	ENDS
; Function compile flags: /Ogtp
; File C:\Program Files\Microsoft Visual Studio\2022\Professional\VC\Tools\MSVC\14.44.35207\include\xmemory
;	COMDAT ??1?$_Alloc_construct_ptr@V?$allocator@U?$_Tree_node@U?$pair@$$CBHH@std@@PAX@std@@@std@@@std@@QAE@XZ
_TEXT	SEGMENT
??1?$_Alloc_construct_ptr@V?$allocator@U?$_Tree_node@U?$pair@$$CBHH@std@@PAX@std@@@std@@@std@@QAE@XZ PROC ; std::_Alloc_construct_ptr<std::allocator<std::_Tree_node<std::pair<int const ,int>,void *> > >::~_Alloc_construct_ptr<std::allocator<std::_Tree_node<std::pair<int const ,int>,void *> > >, COMDAT
; _this$ = ecx

; 1172 :         if (_Ptr) {

  00000	8b 41 04	 mov	 eax, DWORD PTR [ecx+4]
  00003	85 c0		 test	 eax, eax
  00005	74 0b		 je	 SHORT $LN10@Alloc_cons

; 289  :         ::operator delete(_Ptr, _Bytes);

  00007	6a 18		 push	 24			; 00000018H
  00009	50		 push	 eax
  0000a	e8 00 00 00 00	 call	 ??3@YAXPAXI@Z		; operator delete
  0000f	83 c4 08	 add	 esp, 8
$LN10@Alloc_cons:

; 1173 :             _Al.deallocate(_Ptr, 1);
; 1174 :         }
; 1175 :     }

  00012	c3		 ret	 0
??1?$_Alloc_construct_ptr@V?$allocator@U?$_Tree_node@U?$pair@$$CBHH@std@@PAX@std@@@std@@@std@@QAE@XZ ENDP ; std::_Alloc_construct_ptr<std::allocator<std::_Tree_node<std::pair<int const ,int>,void *> > >::~_Alloc_construct_ptr<std::allocator<std::_Tree_node<std::pair<int const ,int>,void *> > >
_TEXT	ENDS
; Function compile flags: /Ogtp
; File C:\Program Files\Microsoft Visual Studio\2022\Professional\VC\Tools\MSVC\14.44.35207\include\xtree
; File C:\Program Files\Microsoft Visual Studio\2022\Professional\VC\Tools\MSVC\14.44.35207\include\type_traits
; File C:\Program Files\Microsoft Visual Studio\2022\Professional\VC\Tools\MSVC\14.44.35207\include\xtree
; File C:\Program Files\Microsoft Visual Studio\2022\Professional\VC\Tools\MSVC\14.44.35207\include\type_traits
; File C:\Program Files\Microsoft Visual Studio\2022\Professional\VC\Tools\MSVC\14.44.35207\include\xtree
;	COMDAT ??$_Find_lower_bound@H@?$_Tree@V?$_Tmap_traits@HHU?$less@H@std@@V?$allocator@U?$pair@$$CBHH@std@@@2@$0A@@std@@@std@@IBE?AU?$_Tree_find_result@PAU?$_Tree_node@U?$pair@$$CBHH@std@@PAX@std@@@1@ABH@Z
_TEXT	SEGMENT
___$ReturnUdt$ = 8					; size = 4
__Keyval$ = 12						; size = 4
??$_Find_lower_bound@H@?$_Tree@V?$_Tmap_traits@HHU?$less@H@std@@V?$allocator@U?$pair@$$CBHH@std@@@2@$0A@@std@@@std@@IBE?AU?$_Tree_find_result@PAU?$_Tree_node@U?$pair@$$CBHH@std@@PAX@std@@@1@ABH@Z PROC ; std::_Tree<std::_Tmap_traits<int,int,std::less<int>,std::allocator<std::pair<int const ,int> >,0> >::_Find_lower_bound<int>, COMDAT
; _this$ = ecx

; 1628 :     _Tree_find_result<_Nodeptr> _Find_lower_bound(const _Keyty& _Keyval) const {

  00000	55		 push	 ebp
  00001	8b ec		 mov	 ebp, esp

; 1629 :         const auto _Scary = _Get_scary();
; 1630 :         _Tree_find_result<_Nodeptr> _Result{{_Scary->_Myhead->_Parent, _Tree_child::_Right}, _Scary->_Myhead};

  00003	8b 09		 mov	 ecx, DWORD PTR [ecx]
  00005	8b 55 08	 mov	 edx, DWORD PTR ___$ReturnUdt$[ebp]
  00008	8b 41 04	 mov	 eax, DWORD PTR [ecx+4]
  0000b	89 02		 mov	 DWORD PTR [edx], eax
  0000d	c7 42 04 00 00
	00 00		 mov	 DWORD PTR [edx+4], 0
  00014	89 4a 08	 mov	 DWORD PTR [edx+8], ecx

; 1631 :         _Nodeptr _Trynode = _Result._Location._Parent;
; 1632 :         while (!_Trynode->_Isnil) {

  00017	80 78 0d 00	 cmp	 BYTE PTR [eax+13], 0
  0001b	75 28		 jne	 SHORT $LN13@Find_lower
; File C:\Program Files\Microsoft Visual Studio\2022\Professional\VC\Tools\MSVC\14.44.35207\include\type_traits

; 2380 :         return _Left < _Right;

  0001d	8b 4d 0c	 mov	 ecx, DWORD PTR __Keyval$[ebp]
  00020	56		 push	 esi
  00021	8b 31		 mov	 esi, DWORD PTR [ecx]
$LL2@Find_lower:
; File C:\Program Files\Microsoft Visual Studio\2022\Professional\VC\Tools\MSVC\14.44.35207\include\xtree

; 1633 :             _Result._Location._Parent = _Trynode;

  00023	89 02		 mov	 DWORD PTR [edx], eax
; File C:\Program Files\Microsoft Visual Studio\2022\Professional\VC\Tools\MSVC\14.44.35207\include\type_traits

; 2380 :         return _Left < _Right;

  00025	39 70 10	 cmp	 DWORD PTR [eax+16], esi
; File C:\Program Files\Microsoft Visual Studio\2022\Professional\VC\Tools\MSVC\14.44.35207\include\xtree

; 1634 :             if (_DEBUG_LT_PRED(_Getcomp(), _Traits::_Kfn(_Trynode->_Myval), _Keyval)) {

  00028	7d 07		 jge	 SHORT $LN4@Find_lower

; 1635 :                 _Result._Location._Child = _Tree_child::_Right;
; 1636 :                 _Trynode                 = _Trynode->_Right;

  0002a	8b 40 08	 mov	 eax, DWORD PTR [eax+8]
  0002d	33 c9		 xor	 ecx, ecx

; 1637 :             } else {

  0002f	eb 0a		 jmp	 SHORT $LN5@Find_lower
$LN4@Find_lower:

; 1638 :                 _Result._Location._Child = _Tree_child::_Left;
; 1639 :                 _Result._Bound           = _Trynode;

  00031	89 42 08	 mov	 DWORD PTR [edx+8], eax

; 1640 :                 _Trynode                 = _Trynode->_Left;

  00034	b9 01 00 00 00	 mov	 ecx, 1
  00039	8b 00		 mov	 eax, DWORD PTR [eax]
$LN5@Find_lower:

; 1631 :         _Nodeptr _Trynode = _Result._Location._Parent;
; 1632 :         while (!_Trynode->_Isnil) {

  0003b	89 4a 04	 mov	 DWORD PTR [edx+4], ecx
  0003e	80 78 0d 00	 cmp	 BYTE PTR [eax+13], 0
  00042	74 df		 je	 SHORT $LL2@Find_lower
  00044	5e		 pop	 esi
$LN13@Find_lower:

; 1641 :             }
; 1642 :         }
; 1643 : 
; 1644 :         return _Result;
; 1645 :     }

  00045	8b c2		 mov	 eax, edx
  00047	5d		 pop	 ebp
  00048	c2 08 00	 ret	 8
??$_Find_lower_bound@H@?$_Tree@V?$_Tmap_traits@HHU?$less@H@std@@V?$allocator@U?$pair@$$CBHH@std@@@2@$0A@@std@@@std@@IBE?AU?$_Tree_find_result@PAU?$_Tree_node@U?$pair@$$CBHH@std@@PAX@std@@@1@ABH@Z ENDP ; std::_Tree<std::_Tmap_traits<int,int,std::less<int>,std::allocator<std::pair<int const ,int> >,0> >::_Find_lower_bound<int>
_TEXT	ENDS
; Function compile flags: /Ogtp
; File C:\Program Files\Microsoft Visual Studio\2022\Professional\VC\Tools\MSVC\14.44.35207\include\xmemory
;	COMDAT ??1?$_Alloc_construct_ptr@V?$allocator@U?$_Tree_node@U?$pair@$$CBHU__MAKEGEMPROB@CUltimateWeapon@@@std@@PAX@std@@@std@@@std@@QAE@XZ
_TEXT	SEGMENT
??1?$_Alloc_construct_ptr@V?$allocator@U?$_Tree_node@U?$pair@$$CBHU__MAKEGEMPROB@CUltimateWeapon@@@std@@PAX@std@@@std@@@std@@QAE@XZ PROC ; std::_Alloc_construct_ptr<std::allocator<std::_Tree_node<std::pair<int const ,CUltimateWeapon::__MAKEGEMPROB>,void *> > >::~_Alloc_construct_ptr<std::allocator<std::_Tree_node<std::pair<int const ,CUltimateWeapon::__MAKEGEMPROB>,void *> > >, COMDAT
; _this$ = ecx

; 1172 :         if (_Ptr) {

  00000	8b 41 04	 mov	 eax, DWORD PTR [ecx+4]
  00003	85 c0		 test	 eax, eax
  00005	74 0b		 je	 SHORT $LN10@Alloc_cons

; 289  :         ::operator delete(_Ptr, _Bytes);

  00007	6a 28		 push	 40			; 00000028H
  00009	50		 push	 eax
  0000a	e8 00 00 00 00	 call	 ??3@YAXPAXI@Z		; operator delete
  0000f	83 c4 08	 add	 esp, 8
$LN10@Alloc_cons:

; 1173 :             _Al.deallocate(_Ptr, 1);
; 1174 :         }
; 1175 :     }

  00012	c3		 ret	 0
??1?$_Alloc_construct_ptr@V?$allocator@U?$_Tree_node@U?$pair@$$CBHU__MAKEGEMPROB@CUltimateWeapon@@@std@@PAX@std@@@std@@@std@@QAE@XZ ENDP ; std::_Alloc_construct_ptr<std::allocator<std::_Tree_node<std::pair<int const ,CUltimateWeapon::__MAKEGEMPROB>,void *> > >::~_Alloc_construct_ptr<std::allocator<std::_Tree_node<std::pair<int const ,CUltimateWeapon::__MAKEGEMPROB>,void *> > >
_TEXT	ENDS
; Function compile flags: /Ogtp
; File C:\Program Files\Microsoft Visual Studio\2022\Professional\VC\Tools\MSVC\14.44.35207\include\xtree
; File C:\Program Files\Microsoft Visual Studio\2022\Professional\VC\Tools\MSVC\14.44.35207\include\type_traits
; File C:\Program Files\Microsoft Visual Studio\2022\Professional\VC\Tools\MSVC\14.44.35207\include\xtree
; File C:\Program Files\Microsoft Visual Studio\2022\Professional\VC\Tools\MSVC\14.44.35207\include\type_traits
; File C:\Program Files\Microsoft Visual Studio\2022\Professional\VC\Tools\MSVC\14.44.35207\include\xtree
;	COMDAT ??$_Find_lower_bound@H@?$_Tree@V?$_Tmap_traits@HU__MAKEGEMPROB@CUltimateWeapon@@U?$less@H@std@@V?$allocator@U?$pair@$$CBHU__MAKEGEMPROB@CUltimateWeapon@@@std@@@4@$0A@@std@@@std@@IBE?AU?$_Tree_find_result@PAU?$_Tree_node@U?$pair@$$CBHU__MAKEGEMPROB@CUltimateWeapon@@@std@@PAX@std@@@1@ABH@Z
_TEXT	SEGMENT
___$ReturnUdt$ = 8					; size = 4
__Keyval$ = 12						; size = 4
??$_Find_lower_bound@H@?$_Tree@V?$_Tmap_traits@HU__MAKEGEMPROB@CUltimateWeapon@@U?$less@H@std@@V?$allocator@U?$pair@$$CBHU__MAKEGEMPROB@CUltimateWeapon@@@std@@@4@$0A@@std@@@std@@IBE?AU?$_Tree_find_result@PAU?$_Tree_node@U?$pair@$$CBHU__MAKEGEMPROB@CUltimateWeapon@@@std@@PAX@std@@@1@ABH@Z PROC ; std::_Tree<std::_Tmap_traits<int,CUltimateWeapon::__MAKEGEMPROB,std::less<int>,std::allocator<std::pair<int const ,CUltimateWeapon::__MAKEGEMPROB> >,0> >::_Find_lower_bound<int>, COMDAT
; _this$ = ecx

; 1628 :     _Tree_find_result<_Nodeptr> _Find_lower_bound(const _Keyty& _Keyval) const {

  00000	55		 push	 ebp
  00001	8b ec		 mov	 ebp, esp

; 1629 :         const auto _Scary = _Get_scary();
; 1630 :         _Tree_find_result<_Nodeptr> _Result{{_Scary->_Myhead->_Parent, _Tree_child::_Right}, _Scary->_Myhead};

  00003	8b 09		 mov	 ecx, DWORD PTR [ecx]
  00005	8b 55 08	 mov	 edx, DWORD PTR ___$ReturnUdt$[ebp]
  00008	8b 41 04	 mov	 eax, DWORD PTR [ecx+4]
  0000b	89 02		 mov	 DWORD PTR [edx], eax
  0000d	c7 42 04 00 00
	00 00		 mov	 DWORD PTR [edx+4], 0
  00014	89 4a 08	 mov	 DWORD PTR [edx+8], ecx

; 1631 :         _Nodeptr _Trynode = _Result._Location._Parent;
; 1632 :         while (!_Trynode->_Isnil) {

  00017	80 78 0d 00	 cmp	 BYTE PTR [eax+13], 0
  0001b	75 28		 jne	 SHORT $LN13@Find_lower
; File C:\Program Files\Microsoft Visual Studio\2022\Professional\VC\Tools\MSVC\14.44.35207\include\type_traits

; 2380 :         return _Left < _Right;

  0001d	8b 4d 0c	 mov	 ecx, DWORD PTR __Keyval$[ebp]
  00020	56		 push	 esi
  00021	8b 31		 mov	 esi, DWORD PTR [ecx]
$LL2@Find_lower:
; File C:\Program Files\Microsoft Visual Studio\2022\Professional\VC\Tools\MSVC\14.44.35207\include\xtree

; 1633 :             _Result._Location._Parent = _Trynode;

  00023	89 02		 mov	 DWORD PTR [edx], eax
; File C:\Program Files\Microsoft Visual Studio\2022\Professional\VC\Tools\MSVC\14.44.35207\include\type_traits

; 2380 :         return _Left < _Right;

  00025	39 70 10	 cmp	 DWORD PTR [eax+16], esi
; File C:\Program Files\Microsoft Visual Studio\2022\Professional\VC\Tools\MSVC\14.44.35207\include\xtree

; 1634 :             if (_DEBUG_LT_PRED(_Getcomp(), _Traits::_Kfn(_Trynode->_Myval), _Keyval)) {

  00028	7d 07		 jge	 SHORT $LN4@Find_lower

; 1635 :                 _Result._Location._Child = _Tree_child::_Right;
; 1636 :                 _Trynode                 = _Trynode->_Right;

  0002a	8b 40 08	 mov	 eax, DWORD PTR [eax+8]
  0002d	33 c9		 xor	 ecx, ecx

; 1637 :             } else {

  0002f	eb 0a		 jmp	 SHORT $LN5@Find_lower
$LN4@Find_lower:

; 1638 :                 _Result._Location._Child = _Tree_child::_Left;
; 1639 :                 _Result._Bound           = _Trynode;

  00031	89 42 08	 mov	 DWORD PTR [edx+8], eax

; 1640 :                 _Trynode                 = _Trynode->_Left;

  00034	b9 01 00 00 00	 mov	 ecx, 1
  00039	8b 00		 mov	 eax, DWORD PTR [eax]
$LN5@Find_lower:

; 1631 :         _Nodeptr _Trynode = _Result._Location._Parent;
; 1632 :         while (!_Trynode->_Isnil) {

  0003b	89 4a 04	 mov	 DWORD PTR [edx+4], ecx
  0003e	80 78 0d 00	 cmp	 BYTE PTR [eax+13], 0
  00042	74 df		 je	 SHORT $LL2@Find_lower
  00044	5e		 pop	 esi
$LN13@Find_lower:

; 1641 :             }
; 1642 :         }
; 1643 : 
; 1644 :         return _Result;
; 1645 :     }

  00045	8b c2		 mov	 eax, edx
  00047	5d		 pop	 ebp
  00048	c2 08 00	 ret	 8
??$_Find_lower_bound@H@?$_Tree@V?$_Tmap_traits@HU__MAKEGEMPROB@CUltimateWeapon@@U?$less@H@std@@V?$allocator@U?$pair@$$CBHU__MAKEGEMPROB@CUltimateWeapon@@@std@@@4@$0A@@std@@@std@@IBE?AU?$_Tree_find_result@PAU?$_Tree_node@U?$pair@$$CBHU__MAKEGEMPROB@CUltimateWeapon@@@std@@PAX@std@@@1@ABH@Z ENDP ; std::_Tree<std::_Tmap_traits<int,CUltimateWeapon::__MAKEGEMPROB,std::less<int>,std::allocator<std::pair<int const ,CUltimateWeapon::__MAKEGEMPROB> >,0> >::_Find_lower_bound<int>
_TEXT	ENDS
; Function compile flags: /Ogtp
; File C:\Program Files\Microsoft Visual Studio\2022\Professional\VC\Tools\MSVC\14.44.35207\include\vector
; File C:\Program Files\Microsoft Visual Studio\2022\Professional\VC\Tools\MSVC\14.44.35207\include\xmemory
; File C:\Program Files\Microsoft Visual Studio\2022\Professional\VC\Tools\MSVC\14.44.35207\include\vector
; File C:\Program Files\Microsoft Visual Studio\2022\Professional\VC\Tools\MSVC\14.44.35207\include\xmemory
; File C:\Program Files\Microsoft Visual Studio\2022\Professional\VC\Tools\MSVC\14.44.35207\include\vector
; File C:\Program Files\Microsoft Visual Studio\2022\Professional\VC\Tools\MSVC\14.44.35207\include\xmemory
; File C:\Program Files\Microsoft Visual Studio\2022\Professional\VC\Tools\MSVC\14.44.35207\include\vector
; File C:\Program Files\Microsoft Visual Studio\2022\Professional\VC\Tools\MSVC\14.44.35207\include\xutility
; File C:\Program Files\Microsoft Visual Studio\2022\Professional\VC\Tools\MSVC\14.44.35207\include\vector
; File C:\Program Files\Microsoft Visual Studio\2022\Professional\VC\Tools\MSVC\14.44.35207\include\xmemory
; File C:\Program Files\Microsoft Visual Studio\2022\Professional\VC\Tools\MSVC\14.44.35207\include\vector
; File C:\Program Files\Microsoft Visual Studio\2022\Professional\VC\Tools\MSVC\14.44.35207\include\xmemory
; File C:\Program Files\Microsoft Visual Studio\2022\Professional\VC\Tools\MSVC\14.44.35207\include\vector
; File C:\Program Files\Microsoft Visual Studio\2022\Professional\VC\Tools\MSVC\14.44.35207\include\xmemory
; File C:\Program Files\Microsoft Visual Studio\2022\Professional\VC\Tools\MSVC\14.44.35207\include\vector
; File C:\Program Files\Microsoft Visual Studio\2022\Professional\VC\Tools\MSVC\14.44.35207\include\xutility
; File C:\Program Files\Microsoft Visual Studio\2022\Professional\VC\Tools\MSVC\14.44.35207\include\vector
; File C:\Program Files\Microsoft Visual Studio\2022\Professional\VC\Tools\MSVC\14.44.35207\include\xutility
; File C:\Program Files\Microsoft Visual Studio\2022\Professional\VC\Tools\MSVC\14.44.35207\include\vector
; File C:\Program Files\Microsoft Visual Studio\2022\Professional\VC\Tools\MSVC\14.44.35207\include\xmemory
; File C:\Program Files\Microsoft Visual Studio\2022\Professional\VC\Tools\MSVC\14.44.35207\include\vector
; File C:\Program Files\Microsoft Visual Studio\2022\Professional\VC\Tools\MSVC\14.44.35207\include\xmemory
; File C:\Program Files\Microsoft Visual Studio\2022\Professional\VC\Tools\MSVC\14.44.35207\include\vector
;	COMDAT ??$_Assign_counted_range@PAU__GEMABILITY@CUltimateWeapon@@@?$vector@U__GEMABILITY@CUltimateWeapon@@V?$allocator@U__GEMABILITY@CUltimateWeapon@@@std@@@std@@AAEXPAU__GEMABILITY@CUltimateWeapon@@I@Z
_TEXT	SEGMENT
__Backout$2 = -48					; size = 12
tv1242 = -36						; size = 4
__Oldsize$1$ = -36					; size = 4
__Oldsize$1$ = -32					; size = 4
__Newlast$1$ = -32					; size = 4
__Oldcapacity$1$ = -32					; size = 4
tv1268 = -28						; size = 4
tv1273 = -28						; size = 4
$T3 = -28						; size = 4
$T4 = -24						; size = 4
tv1249 = -24						; size = 4
tv1258 = -20						; size = 4
_this$1$ = -16						; size = 4
__$EHRec$ = -12						; size = 12
__First$ = 8						; size = 4
__First$2$ = 8						; size = 4
__Newsize$ = 12						; size = 4
??$_Assign_counted_range@PAU__GEMABILITY@CUltimateWeapon@@@?$vector@U__GEMABILITY@CUltimateWeapon@@V?$allocator@U__GEMABILITY@CUltimateWeapon@@@std@@@std@@AAEXPAU__GEMABILITY@CUltimateWeapon@@I@Z PROC ; std::vector<CUltimateWeapon::__GEMABILITY,std::allocator<CUltimateWeapon::__GEMABILITY> >::_Assign_counted_range<CUltimateWeapon::__GEMABILITY *>, COMDAT
; _this$ = ecx

; 1420 :     _CONSTEXPR20 void _Assign_counted_range(_Iter _First, const size_type _Newsize) {

  00000	55		 push	 ebp
  00001	8b ec		 mov	 ebp, esp
  00003	6a ff		 push	 -1
  00005	68 00 00 00 00	 push	 __ehhandler$??$_Assign_counted_range@PAU__GEMABILITY@CUltimateWeapon@@@?$vector@U__GEMABILITY@CUltimateWeapon@@V?$allocator@U__GEMABILITY@CUltimateWeapon@@@std@@@std@@AAEXPAU__GEMABILITY@CUltimateWeapon@@I@Z
  0000a	64 a1 00 00 00
	00		 mov	 eax, DWORD PTR fs:0
  00010	50		 push	 eax
  00011	83 ec 24	 sub	 esp, 36			; 00000024H
  00014	53		 push	 ebx
  00015	56		 push	 esi
  00016	57		 push	 edi
  00017	a1 00 00 00 00	 mov	 eax, DWORD PTR ___security_cookie
  0001c	33 c5		 xor	 eax, ebp
  0001e	50		 push	 eax
  0001f	8d 45 f4	 lea	 eax, DWORD PTR __$EHRec$[ebp]
  00022	64 a3 00 00 00
	00		 mov	 DWORD PTR fs:0, eax
  00028	8b f1		 mov	 esi, ecx
  0002a	89 75 f0	 mov	 DWORD PTR _this$1$[ebp], esi

; 1421 :         // assign elements from counted range _First + [0, _Newsize)
; 1422 :         auto& _Al         = _Getal();
; 1423 :         auto& _My_data    = _Mypair._Myval2;
; 1424 :         pointer& _Myfirst = _My_data._Myfirst;
; 1425 :         pointer& _Mylast  = _My_data._Mylast;
; 1426 :         pointer& _Myend   = _My_data._Myend;
; 1427 : 
; 1428 :         constexpr bool _Nothrow_construct = conjunction_v<is_nothrow_constructible<_Ty, _Iter_ref_t<_Iter>>,
; 1429 :             _Uses_default_construct<_Alloc, _Ty*, _Iter_ref_t<_Iter>>>;
; 1430 : 
; 1431 :         _My_data._Orphan_all();
; 1432 :         const auto _Oldcapacity = static_cast<size_type>(_Myend - _Myfirst);

  0002d	8b 56 08	 mov	 edx, DWORD PTR [esi+8]
  00030	b8 67 66 66 66	 mov	 eax, 1717986919		; 66666667H
  00035	8b 3e		 mov	 edi, DWORD PTR [esi]
  00037	2b d7		 sub	 edx, edi

; 1433 :         if (_Newsize > _Oldcapacity) {

  00039	8b 5d 0c	 mov	 ebx, DWORD PTR __Newsize$[ebp]
  0003c	f7 ea		 imul	 edx
  0003e	c1 fa 03	 sar	 edx, 3
  00041	8b c2		 mov	 eax, edx
  00043	c1 e8 1f	 shr	 eax, 31			; 0000001fH
  00046	03 c2		 add	 eax, edx
  00048	89 45 e0	 mov	 DWORD PTR __Oldcapacity$1$[ebp], eax
  0004b	3b d8		 cmp	 ebx, eax
  0004d	0f 86 bc 00 00
	00		 jbe	 $LN5@Assign_cou

; 1703 :         if (_Newsize > max_size()) {

  00053	81 fb cc cc cc
	0c		 cmp	 ebx, 214748364		; 0cccccccH
  00059	0f 87 bf 02 00
	00		 ja	 $LN199@Assign_cou

; 2011 :         if (_Oldcapacity > _Max - _Oldcapacity / 2) {

  0005f	8b 55 e0	 mov	 edx, DWORD PTR __Oldcapacity$1$[ebp]
  00062	8b c8		 mov	 ecx, eax
  00064	d1 e9		 shr	 ecx, 1
  00066	b8 cc cc cc 0c	 mov	 eax, 214748364		; 0cccccccH
  0006b	2b c1		 sub	 eax, ecx
  0006d	3b d0		 cmp	 edx, eax
  0006f	76 09		 jbe	 SHORT $LN15@Assign_cou

; 2012 :             return _Max; // geometric growth would overflow

  00071	c7 45 e8 cc cc
	cc 0c		 mov	 DWORD PTR $T4[ebp], 214748364 ; 0cccccccH
  00078	eb 0b		 jmp	 SHORT $LN16@Assign_cou
$LN15@Assign_cou:

; 2013 :         }
; 2014 : 
; 2015 :         const size_type _Geometric = _Oldcapacity + _Oldcapacity / 2;

  0007a	8d 04 11	 lea	 eax, DWORD PTR [ecx+edx]

; 2016 : 
; 2017 :         if (_Geometric < _Newsize) {

  0007d	3b c3		 cmp	 eax, ebx
  0007f	0f 42 c3	 cmovb	 eax, ebx
  00082	89 45 e8	 mov	 DWORD PTR $T4[ebp], eax
$LN16@Assign_cou:

; 1709 :         if (_Myfirst) { // destroy and deallocate old array

  00085	85 ff		 test	 edi, edi
  00087	74 56		 je	 SHORT $LN12@Assign_cou

; 1710 :             _Destroy_range(_Myfirst, _Mylast, _Al);

  00089	8b 46 04	 mov	 eax, DWORD PTR [esi+4]
; File C:\Program Files\Microsoft Visual Studio\2022\Professional\VC\Tools\MSVC\14.44.35207\include\xmemory

; 1102 :         for (; _First != _Last; ++_First) {

  0008c	3b f8		 cmp	 edi, eax
  0008e	74 14		 je	 SHORT $LN23@Assign_cou
  00090	8b d8		 mov	 ebx, eax
$LL24@Assign_cou:
; File C:\Program Files\Microsoft Visual Studio\2022\Professional\VC\Tools\MSVC\14.44.35207\include\vector

; 830  :         _Tidy();

  00092	8d 4f 08	 lea	 ecx, DWORD PTR [edi+8]
  00095	e8 00 00 00 00	 call	 ?_Tidy@?$vector@HV?$allocator@H@std@@@std@@AAEXXZ ; std::vector<int,std::allocator<int> >::_Tidy
; File C:\Program Files\Microsoft Visual Studio\2022\Professional\VC\Tools\MSVC\14.44.35207\include\xmemory

; 1102 :         for (; _First != _Last; ++_First) {

  0009a	83 c7 14	 add	 edi, 20			; 00000014H
  0009d	3b fb		 cmp	 edi, ebx
  0009f	75 f1		 jne	 SHORT $LL24@Assign_cou
  000a1	8b 5d 0c	 mov	 ebx, DWORD PTR __Newsize$[ebp]
$LN23@Assign_cou:
; File C:\Program Files\Microsoft Visual Studio\2022\Professional\VC\Tools\MSVC\14.44.35207\include\vector

; 1712 :             _Al.deallocate(_Myfirst, static_cast<size_type>(_Myend - _Myfirst));

  000a4	8b 4d f0	 mov	 ecx, DWORD PTR _this$1$[ebp]
  000a7	b8 67 66 66 66	 mov	 eax, 1717986919		; 66666667H
  000ac	8b 36		 mov	 esi, DWORD PTR [esi]
  000ae	8b 49 08	 mov	 ecx, DWORD PTR [ecx+8]
  000b1	2b ce		 sub	 ecx, esi
  000b3	f7 e9		 imul	 ecx
  000b5	c1 fa 03	 sar	 edx, 3
  000b8	8b c2		 mov	 eax, edx
  000ba	c1 e8 1f	 shr	 eax, 31			; 0000001fH
  000bd	03 c2		 add	 eax, edx
  000bf	50		 push	 eax
  000c0	56		 push	 esi
  000c1	8b 75 f0	 mov	 esi, DWORD PTR _this$1$[ebp]
  000c4	8b ce		 mov	 ecx, esi
  000c6	e8 00 00 00 00	 call	 ?deallocate@?$allocator@U__GEMABILITY@CUltimateWeapon@@@std@@QAEXQAU__GEMABILITY@CUltimateWeapon@@I@Z ; std::allocator<CUltimateWeapon::__GEMABILITY>::deallocate

; 1713 : 
; 1714 :             _Myfirst = nullptr;

  000cb	c7 06 00 00 00
	00		 mov	 DWORD PTR [esi], 0

; 1715 :             _Mylast  = nullptr;

  000d1	c7 46 04 00 00
	00 00		 mov	 DWORD PTR [esi+4], 0

; 1716 :             _Myend   = nullptr;

  000d8	c7 46 08 00 00
	00 00		 mov	 DWORD PTR [esi+8], 0
$LN12@Assign_cou:

; 1717 :         }
; 1718 : 
; 1719 :         _Buy_raw(_Newcapacity);

  000df	ff 75 e8	 push	 DWORD PTR $T4[ebp]
  000e2	8b ce		 mov	 ecx, esi
  000e4	e8 00 00 00 00	 call	 ?_Buy_raw@?$vector@U__GEMABILITY@CUltimateWeapon@@V?$allocator@U__GEMABILITY@CUltimateWeapon@@@std@@@std@@AAEXI@Z ; std::vector<CUltimateWeapon::__GEMABILITY,std::allocator<CUltimateWeapon::__GEMABILITY> >::_Buy_raw

; 1437 :                 _ASAN_VECTOR_CREATE;
; 1438 :             } else {
; 1439 :                 _ASAN_VECTOR_CREATE_GUARD;
; 1440 :                 _Mylast = _STD _Uninitialized_copy_n(_STD move(_First), _Newsize, _Myfirst, _Al);

  000e9	56		 push	 esi
  000ea	ff 36		 push	 DWORD PTR [esi]
  000ec	53		 push	 ebx
  000ed	ff 75 08	 push	 DWORD PTR __First$[ebp]
  000f0	e8 00 00 00 00	 call	 ??$_Uninitialized_copy_n@PAU__GEMABILITY@CUltimateWeapon@@V?$allocator@U__GEMABILITY@CUltimateWeapon@@@std@@@std@@YAPAU__GEMABILITY@CUltimateWeapon@@PAU12@I0AAV?$allocator@U__GEMABILITY@CUltimateWeapon@@@0@@Z ; std::_Uninitialized_copy_n<CUltimateWeapon::__GEMABILITY *,std::allocator<CUltimateWeapon::__GEMABILITY> >
  000f5	83 c4 10	 add	 esp, 16			; 00000010H
  000f8	89 46 04	 mov	 DWORD PTR [esi+4], eax

; 1479 :         }
; 1480 :     }

  000fb	8b 4d f4	 mov	 ecx, DWORD PTR __$EHRec$[ebp]
  000fe	64 89 0d 00 00
	00 00		 mov	 DWORD PTR fs:0, ecx
  00105	59		 pop	 ecx
  00106	5f		 pop	 edi
  00107	5e		 pop	 esi
  00108	5b		 pop	 ebx
  00109	8b e5		 mov	 esp, ebp
  0010b	5d		 pop	 ebp
  0010c	c2 08 00	 ret	 8
$LN5@Assign_cou:

; 1443 :         }
; 1444 : 
; 1445 :         const auto _Oldsize = static_cast<size_type>(_Mylast - _Myfirst);

  0010f	8b 76 04	 mov	 esi, DWORD PTR [esi+4]
  00112	b8 67 66 66 66	 mov	 eax, 1717986919		; 66666667H
  00117	8b ce		 mov	 ecx, esi
  00119	2b cf		 sub	 ecx, edi
  0011b	f7 e9		 imul	 ecx
  0011d	c1 fa 03	 sar	 edx, 3
  00120	8b c2		 mov	 eax, edx
  00122	c1 e8 1f	 shr	 eax, 31			; 0000001fH
  00125	03 c2		 add	 eax, edx
  00127	89 45 e0	 mov	 DWORD PTR __Oldsize$1$[ebp], eax

; 1446 :         if (_Newsize > _Oldsize) {

  0012a	3b d8		 cmp	 ebx, eax
  0012c	76 72		 jbe	 SHORT $LN6@Assign_cou

; 1455 :                     _Copied = true;
; 1456 :                 }
; 1457 :             }
; 1458 : 
; 1459 :             if (!_Copied) {
; 1460 :                 for (auto _Mid = _Myfirst; _Mid != _Mylast; ++_Mid, (void) ++_First) {

  0012e	8b 5d 08	 mov	 ebx, DWORD PTR __First$[ebp]
  00131	3b fe		 cmp	 edi, esi
  00133	74 1a		 je	 SHORT $LN192@Assign_cou
$LL4@Assign_cou:

; 1461 :                     *_Mid = *_First;

  00135	53		 push	 ebx
  00136	8b cf		 mov	 ecx, edi
  00138	e8 00 00 00 00	 call	 ??4__GEMABILITY@CUltimateWeapon@@QAEAAU01@ABU01@@Z
  0013d	8b 45 f0	 mov	 eax, DWORD PTR _this$1$[ebp]
  00140	83 c7 14	 add	 edi, 20			; 00000014H
  00143	83 c3 14	 add	 ebx, 20			; 00000014H
  00146	8b 70 04	 mov	 esi, DWORD PTR [eax+4]
  00149	3b fe		 cmp	 edi, esi
  0014b	75 e8		 jne	 SHORT $LL4@Assign_cou

; 1455 :                     _Copied = true;
; 1456 :                 }
; 1457 :             }
; 1458 : 
; 1459 :             if (!_Copied) {
; 1460 :                 for (auto _Mid = _Myfirst; _Mid != _Mylast; ++_Mid, (void) ++_First) {

  0014d	eb 03		 jmp	 SHORT $LN3@Assign_cou
$LN192@Assign_cou:
  0014f	8b 45 f0	 mov	 eax, DWORD PTR _this$1$[ebp]
$LN3@Assign_cou:

; 1470 :                 _Mylast = _STD _Uninitialized_copy_n(_STD move(_First), _Newsize - _Oldsize, _Mylast, _Al);

  00152	8b 7d 0c	 mov	 edi, DWORD PTR __Newsize$[ebp]
  00155	2b 7d e0	 sub	 edi, DWORD PTR __Oldsize$1$[ebp]
; File C:\Program Files\Microsoft Visual Studio\2022\Professional\VC\Tools\MSVC\14.44.35207\include\xmemory

; 1833 :     _CONSTEXPR20 _Uninitialized_backout_al(pointer _Dest, _Alloc& _Al_) : _First(_Dest), _Last(_Dest), _Al(_Al_) {}

  00158	89 75 d0	 mov	 DWORD PTR __Backout$2[ebp], esi
  0015b	89 75 d4	 mov	 DWORD PTR __Backout$2[ebp+4], esi
  0015e	89 45 d8	 mov	 DWORD PTR __Backout$2[ebp+8], eax

; 1936 :     _Uninitialized_backout_al<_Alloc> _Backout{_Dest, _Al};

  00161	c7 45 fc 00 00
	00 00		 mov	 DWORD PTR __$EHRec$[ebp+8], 0

; 1937 :     for (; _Count != 0; ++_UFirst, (void) --_Count) {

  00168	74 1f		 je	 SHORT $LN44@Assign_cou
  0016a	66 0f 1f 44 00
	00		 npad	 6
$LL45@Assign_cou:

; 732  :         ::new (const_cast<void*>(static_cast<const volatile void*>(_Ptr))) _Objty(_STD forward<_Types>(_Args)...);

  00170	53		 push	 ebx
  00171	8b ce		 mov	 ecx, esi
  00173	e8 00 00 00 00	 call	 ??0__GEMABILITY@CUltimateWeapon@@QAE@ABU01@@Z

; 1845 :         ++_Last;

  00178	83 c6 14	 add	 esi, 20			; 00000014H

; 1937 :     for (; _Count != 0; ++_UFirst, (void) --_Count) {

  0017b	83 c3 14	 add	 ebx, 20			; 00000014H

; 1845 :         ++_Last;

  0017e	89 75 d4	 mov	 DWORD PTR __Backout$2[ebp+4], esi

; 1937 :     for (; _Count != 0; ++_UFirst, (void) --_Count) {

  00181	83 ef 01	 sub	 edi, 1
  00184	75 ea		 jne	 SHORT $LL45@Assign_cou
  00186	8b 45 f0	 mov	 eax, DWORD PTR _this$1$[ebp]
$LN44@Assign_cou:
; File C:\Program Files\Microsoft Visual Studio\2022\Professional\VC\Tools\MSVC\14.44.35207\include\vector

; 1470 :                 _Mylast = _STD _Uninitialized_copy_n(_STD move(_First), _Newsize - _Oldsize, _Mylast, _Al);

  00189	89 70 04	 mov	 DWORD PTR [eax+4], esi

; 1479 :         }
; 1480 :     }

  0018c	8b 4d f4	 mov	 ecx, DWORD PTR __$EHRec$[ebp]
  0018f	64 89 0d 00 00
	00 00		 mov	 DWORD PTR fs:0, ecx
  00196	59		 pop	 ecx
  00197	5f		 pop	 edi
  00198	5e		 pop	 esi
  00199	5b		 pop	 ebx
  0019a	8b e5		 mov	 esp, ebp
  0019c	5d		 pop	 ebp
  0019d	c2 08 00	 ret	 8
$LN6@Assign_cou:

; 1474 :             const pointer _Newlast = _Myfirst + _Newsize;

  001a0	8d 04 9b	 lea	 eax, DWORD PTR [ebx+ebx*4]
  001a3	8d 04 87	 lea	 eax, DWORD PTR [edi+eax*4]
  001a6	89 45 e0	 mov	 DWORD PTR __Newlast$1$[ebp], eax
; File C:\Program Files\Microsoft Visual Studio\2022\Professional\VC\Tools\MSVC\14.44.35207\include\xutility

; 4812 :     for (; _Count != 0; ++_Dest, (void) ++_First, --_Count) {

  001a9	85 db		 test	 ebx, ebx
  001ab	0f 84 2d 01 00
	00		 je	 $LN191@Assign_cou
; File C:\Program Files\Microsoft Visual Studio\2022\Professional\VC\Tools\MSVC\14.44.35207\include\vector

; 1474 :             const pointer _Newlast = _Myfirst + _Newsize;

  001b1	8b 4d 08	 mov	 ecx, DWORD PTR __First$[ebp]
  001b4	8d 77 0c	 lea	 esi, DWORD PTR [edi+12]
  001b7	83 c1 08	 add	 ecx, 8
  001ba	89 75 e8	 mov	 DWORD PTR tv1249[ebp], esi
  001bd	89 4d ec	 mov	 DWORD PTR tv1258[ebp], ecx
$LL82@Assign_cou:
  001c0	8b 41 f8	 mov	 eax, DWORD PTR [ecx-8]
  001c3	89 07		 mov	 DWORD PTR [edi], eax
  001c5	8b 41 fc	 mov	 eax, DWORD PTR [ecx-4]
  001c8	89 46 f8	 mov	 DWORD PTR [esi-8], eax

; 1524 :         if (this == _STD addressof(_Right)) {

  001cb	8d 46 fc	 lea	 eax, DWORD PTR [esi-4]
  001ce	3b c1		 cmp	 eax, ecx
  001d0	0f 84 ec 00 00
	00		 je	 $LN80@Assign_cou

; 1525 :             return *this;
; 1526 :         }
; 1527 : 
; 1528 :         auto& _Al       = _Getal();
; 1529 :         auto& _Right_al = _Right._Getal();
; 1530 :         if constexpr (_Choose_pocca_v<_Alty>) {
; 1531 :             if (_Al != _Right_al) {
; 1532 :                 _Tidy();
; 1533 :                 _Mypair._Myval2._Reload_proxy(_GET_PROXY_ALLOCATOR(_Alty, _Al), _GET_PROXY_ALLOCATOR(_Alty, _Right_al));
; 1534 :             }
; 1535 :         }
; 1536 : 
; 1537 :         _Pocca(_Al, _Right_al);
; 1538 :         auto& _Right_data = _Right._Mypair._Myval2;
; 1539 :         _Assign_counted_range(_Right_data._Myfirst, static_cast<size_type>(_Right_data._Mylast - _Right_data._Myfirst));

  001d6	8b 01		 mov	 eax, DWORD PTR [ecx]
  001d8	8b 59 04	 mov	 ebx, DWORD PTR [ecx+4]

; 1432 :         const auto _Oldcapacity = static_cast<size_type>(_Myend - _Myfirst);

  001db	8b 4e fc	 mov	 ecx, DWORD PTR [esi-4]

; 1539 :         _Assign_counted_range(_Right_data._Myfirst, static_cast<size_type>(_Right_data._Mylast - _Right_data._Myfirst));

  001de	2b d8		 sub	 ebx, eax

; 1432 :         const auto _Oldcapacity = static_cast<size_type>(_Myend - _Myfirst);

  001e0	8b 56 04	 mov	 edx, DWORD PTR [esi+4]

; 1539 :         _Assign_counted_range(_Right_data._Myfirst, static_cast<size_type>(_Right_data._Mylast - _Right_data._Myfirst));

  001e3	89 45 08	 mov	 DWORD PTR __First$2$[ebp], eax

; 1432 :         const auto _Oldcapacity = static_cast<size_type>(_Myend - _Myfirst);

  001e6	2b d1		 sub	 edx, ecx
  001e8	8d 46 fc	 lea	 eax, DWORD PTR [esi-4]

; 1539 :         _Assign_counted_range(_Right_data._Myfirst, static_cast<size_type>(_Right_data._Mylast - _Right_data._Myfirst));

  001eb	c1 fb 02	 sar	 ebx, 2

; 1432 :         const auto _Oldcapacity = static_cast<size_type>(_Myend - _Myfirst);

  001ee	c1 fa 02	 sar	 edx, 2
  001f1	89 45 dc	 mov	 DWORD PTR tv1242[ebp], eax
  001f4	89 4d e4	 mov	 DWORD PTR tv1273[ebp], ecx

; 1433 :         if (_Newsize > _Oldcapacity) {

  001f7	3b da		 cmp	 ebx, edx
  001f9	76 78		 jbe	 SHORT $LN93@Assign_cou

; 1703 :         if (_Newsize > max_size()) {

  001fb	81 fb ff ff ff
	3f		 cmp	 ebx, 1073741823		; 3fffffffH
  00201	0f 87 12 01 00
	00		 ja	 $LN167@Assign_cou

; 2011 :         if (_Oldcapacity > _Max - _Oldcapacity / 2) {

  00207	8b c2		 mov	 eax, edx
  00209	d1 e8		 shr	 eax, 1
  0020b	89 45 e4	 mov	 DWORD PTR tv1268[ebp], eax
  0020e	b8 ff ff ff 3f	 mov	 eax, 1073741823		; 3fffffffH
  00213	2b 45 e4	 sub	 eax, DWORD PTR tv1268[ebp]
  00216	3b d0		 cmp	 edx, eax
  00218	76 09		 jbe	 SHORT $LN103@Assign_cou

; 2012 :             return _Max; // geometric growth would overflow

  0021a	c7 45 e4 ff ff
	ff 3f		 mov	 DWORD PTR $T3[ebp], 1073741823 ; 3fffffffH
  00221	eb 0d		 jmp	 SHORT $LN104@Assign_cou
$LN103@Assign_cou:

; 2013 :         }
; 2014 : 
; 2015 :         const size_type _Geometric = _Oldcapacity + _Oldcapacity / 2;

  00223	8b 45 e4	 mov	 eax, DWORD PTR tv1268[ebp]
  00226	03 c2		 add	 eax, edx

; 2016 : 
; 2017 :         if (_Geometric < _Newsize) {

  00228	3b c3		 cmp	 eax, ebx
  0022a	0f 42 c3	 cmovb	 eax, ebx
  0022d	89 45 e4	 mov	 DWORD PTR $T3[ebp], eax
$LN104@Assign_cou:

; 1709 :         if (_Myfirst) { // destroy and deallocate old array

  00230	85 c9		 test	 ecx, ecx
  00232	74 1e		 je	 SHORT $LN100@Assign_cou

; 1712 :             _Al.deallocate(_Myfirst, static_cast<size_type>(_Myend - _Myfirst));

  00234	52		 push	 edx
  00235	51		 push	 ecx
  00236	8d 4e fc	 lea	 ecx, DWORD PTR [esi-4]
  00239	e8 00 00 00 00	 call	 ?deallocate@?$allocator@H@std@@QAEXQAHI@Z ; std::allocator<int>::deallocate

; 1713 : 
; 1714 :             _Myfirst = nullptr;

  0023e	c7 46 fc 00 00
	00 00		 mov	 DWORD PTR [esi-4], 0

; 1715 :             _Mylast  = nullptr;

  00245	c7 06 00 00 00
	00		 mov	 DWORD PTR [esi], 0

; 1716 :             _Myend   = nullptr;

  0024b	c7 46 04 00 00
	00 00		 mov	 DWORD PTR [esi+4], 0
$LN100@Assign_cou:

; 1717 :         }
; 1718 : 
; 1719 :         _Buy_raw(_Newcapacity);

  00252	ff 75 e4	 push	 DWORD PTR $T3[ebp]
  00255	8b 75 dc	 mov	 esi, DWORD PTR tv1242[ebp]
  00258	8b ce		 mov	 ecx, esi
  0025a	e8 00 00 00 00	 call	 ?_Buy_raw@?$vector@HV?$allocator@H@std@@@std@@AAEXI@Z ; std::vector<int,std::allocator<int> >::_Buy_raw

; 1436 :                 _Mylast = _STD _Uninitialized_copy_n(_STD move(_First), _Newsize, _Myfirst, _Al);

  0025f	8b 36		 mov	 esi, DWORD PTR [esi]
; File C:\Program Files\Microsoft Visual Studio\2022\Professional\VC\Tools\MSVC\14.44.35207\include\xmemory

; 1930 :             _STD _Copy_memmove_n(_UFirst, _Count, _STD _Unfancy(_Dest));

  00261	56		 push	 esi
  00262	53		 push	 ebx
  00263	ff 75 08	 push	 DWORD PTR __First$2$[ebp]
  00266	e8 00 00 00 00	 call	 ??$_Copy_memmove_n@PAHPAH@std@@YAPAHPAHI0@Z ; std::_Copy_memmove_n<int *,int *>

; 1931 :             _Dest += _Count;

  0026b	8d 04 9e	 lea	 eax, DWORD PTR [esi+ebx*4]
; File C:\Program Files\Microsoft Visual Studio\2022\Professional\VC\Tools\MSVC\14.44.35207\include\vector

; 1436 :                 _Mylast = _STD _Uninitialized_copy_n(_STD move(_First), _Newsize, _Myfirst, _Al);

  0026e	8b 75 e8	 mov	 esi, DWORD PTR tv1249[ebp]

; 1441 :             }
; 1442 :             return;

  00271	eb 47		 jmp	 SHORT $LN196@Assign_cou
$LN93@Assign_cou:

; 1443 :         }
; 1444 : 
; 1445 :         const auto _Oldsize = static_cast<size_type>(_Mylast - _Myfirst);

  00273	8b 06		 mov	 eax, DWORD PTR [esi]
  00275	2b c1		 sub	 eax, ecx
  00277	c1 f8 02	 sar	 eax, 2
  0027a	89 45 dc	 mov	 DWORD PTR __Oldsize$1$[ebp], eax

; 1446 :         if (_Newsize > _Oldsize) {

  0027d	51		 push	 ecx
  0027e	3b d8		 cmp	 ebx, eax
  00280	76 29		 jbe	 SHORT $LN94@Assign_cou

; 1447 :             bool _Copied = false;
; 1448 :             if constexpr (_Iter_copy_cat<_Iter, pointer>::_Bitcopy_assignable) {
; 1449 : #if _HAS_CXX20
; 1450 :                 if (!_STD is_constant_evaluated())
; 1451 : #endif // _HAS_CXX20
; 1452 :                 {
; 1453 :                     _Copy_memmove_n(_First, static_cast<size_t>(_Oldsize), _Myfirst);

  00282	50		 push	 eax
