; Listing generated by Microsoft (R) Optimizing Compiler Version 19.44.35225.0 

	TITLE	C:\IAGOS\server\v18\Source\Output\WorldServer\Release\UserLux.obj
	.686P
	.XMM
	include listing.inc
	.model	flat

INCLUDELIB LIBCMT
INCLUDELIB OLDNAMES

CONST	SEGMENT
?piecewise_construct@std@@3Upiecewise_construct_t@1@B	ORG $+1 ; std::piecewise_construct
CONST	ENDS
PUBLIC	?__empty_global_delete@@YAXPAX@Z		; __empty_global_delete
PUBLIC	?__empty_global_delete@@YAXPAXI@Z		; __empty_global_delete
PUBLIC	??$?6G@CAr@@QAEAAV0@ABG@Z			; CAr::operator<<<unsigned short>
PUBLIC	??$?6H@CAr@@QAEAAV0@ABH@Z			; CAr::operator<<<int>
PUBLIC	??$?6I@CAr@@QAEAAV0@ABI@Z			; CAr::operator<<<unsigned int>
PUBLIC	??$?6K@CAr@@QAEAAV0@ABK@Z			; CAr::operator<<<unsigned long>
PUBLIC	??$?6UD3DXVECTOR3@@@CAr@@QAEAAV0@ABUD3DXVECTOR3@@@Z ; CAr::operator<<<D3DXVECTOR3>
PUBLIC	??$?6M@CAr@@QAEAAV0@ABM@Z			; CAr::operator<<<float>
PUBLIC	?AddEscape@CUser@@QAEXK@Z			; CUser::AddEscape
PUBLIC	?AddSetActionPoint@CUser@@QAEXH@Z		; CUser::AddSetActionPoint
PUBLIC	?AddSetTarget@CUser@@QAEXK@Z			; CUser::AddSetTarget
PUBLIC	?AddSetPosAngle@CUserMng@@QAEXPAVCCtrl@@ABUD3DXVECTOR3@@M@Z ; CUserMng::AddSetPosAngle
PUBLIC	?AddCreateSkillEffect@CUserMng@@QAEXPAVCMover@@KKK@Z ; CUserMng::AddCreateSkillEffect
PUBLIC	?AddSetStun@CUserMng@@QAEXPAVCMover@@H@Z	; CUserMng::AddSetStun
PUBLIC	?AddSendActMsg@CUserMng@@QAEXPAVCMover@@W4OBJMSG@@HHH@Z ; CUserMng::AddSendActMsg
PUBLIC	?AddPushPower@CUserMng@@QAEXPAVCMover@@UD3DXVECTOR3@@MMM@Z ; CUserMng::AddPushPower
PUBLIC	?AddRemoveSkillInfluence@CUserMng@@QAEXPAVCMover@@GG@Z ; CUserMng::AddRemoveSkillInfluence
PUBLIC	?AddDoApplySkill@CUserMng@@QAEXPAVCCtrl@@KKK@Z	; CUserMng::AddDoApplySkill
EXTRN	??0CAr@@QAE@PAXI@Z:PROC				; CAr::CAr
EXTRN	??1CAr@@QAE@XZ:PROC				; CAr::~CAr
EXTRN	?CheckBuf@CAr@@QAEXI@Z:PROC			; CAr::CheckBuf
EXTRN	?GetBuffer@CAr@@QAEPAEPAH@Z:PROC		; CAr::GetBuffer
EXTRN	?AddBlock@CUser@@QAEXPAEK@Z:PROC		; CUser::AddBlock
EXTRN	@__security_check_cookie@4:PROC
EXTRN	___CxxFrameHandler3:PROC
EXTRN	__chkstk:PROC
EXTRN	___security_cookie:DWORD
EXTRN	__fltused:DWORD
;	COMDAT xdata$x
xdata$x	SEGMENT
__unwindtable$?AddDoApplySkill@CUserMng@@QAEXPAVCCtrl@@KKK@Z DD 0ffffffffH
	DD	FLAT:__unwindfunclet$?AddDoApplySkill@CUserMng@@QAEXPAVCCtrl@@KKK@Z$0
__ehfuncinfo$?AddDoApplySkill@CUserMng@@QAEXPAVCCtrl@@KKK@Z DD 019930522H
	DD	01H
	DD	FLAT:__unwindtable$?AddDoApplySkill@CUserMng@@QAEXPAVCCtrl@@KKK@Z
	DD	2 DUP(00H)
	DD	2 DUP(00H)
	DD	00H
	DD	01H
xdata$x	ENDS
;	COMDAT xdata$x
xdata$x	SEGMENT
__unwindtable$?AddRemoveSkillInfluence@CUserMng@@QAEXPAVCMover@@GG@Z DD 0ffffffffH
	DD	FLAT:__unwindfunclet$?AddRemoveSkillInfluence@CUserMng@@QAEXPAVCMover@@GG@Z$0
__ehfuncinfo$?AddRemoveSkillInfluence@CUserMng@@QAEXPAVCMover@@GG@Z DD 019930522H
	DD	01H
	DD	FLAT:__unwindtable$?AddRemoveSkillInfluence@CUserMng@@QAEXPAVCMover@@GG@Z
	DD	2 DUP(00H)
	DD	2 DUP(00H)
	DD	00H
	DD	01H
xdata$x	ENDS
;	COMDAT xdata$x
xdata$x	SEGMENT
__unwindtable$?AddPushPower@CUserMng@@QAEXPAVCMover@@UD3DXVECTOR3@@MMM@Z DD 0ffffffffH
	DD	FLAT:__unwindfunclet$?AddPushPower@CUserMng@@QAEXPAVCMover@@UD3DXVECTOR3@@MMM@Z$0
__ehfuncinfo$?AddPushPower@CUserMng@@QAEXPAVCMover@@UD3DXVECTOR3@@MMM@Z DD 019930522H
	DD	01H
	DD	FLAT:__unwindtable$?AddPushPower@CUserMng@@QAEXPAVCMover@@UD3DXVECTOR3@@MMM@Z
	DD	2 DUP(00H)
	DD	2 DUP(00H)
	DD	00H
	DD	01H
xdata$x	ENDS
;	COMDAT xdata$x
xdata$x	SEGMENT
__unwindtable$?AddSendActMsg@CUserMng@@QAEXPAVCMover@@W4OBJMSG@@HHH@Z DD 0ffffffffH
	DD	FLAT:__unwindfunclet$?AddSendActMsg@CUserMng@@QAEXPAVCMover@@W4OBJMSG@@HHH@Z$0
__ehfuncinfo$?AddSendActMsg@CUserMng@@QAEXPAVCMover@@W4OBJMSG@@HHH@Z DD 019930522H
	DD	01H
	DD	FLAT:__unwindtable$?AddSendActMsg@CUserMng@@QAEXPAVCMover@@W4OBJMSG@@HHH@Z
	DD	2 DUP(00H)
	DD	2 DUP(00H)
	DD	00H
	DD	01H
xdata$x	ENDS
;	COMDAT xdata$x
xdata$x	SEGMENT
__unwindtable$?AddSetStun@CUserMng@@QAEXPAVCMover@@H@Z DD 0ffffffffH
	DD	FLAT:__unwindfunclet$?AddSetStun@CUserMng@@QAEXPAVCMover@@H@Z$0
__ehfuncinfo$?AddSetStun@CUserMng@@QAEXPAVCMover@@H@Z DD 019930522H
	DD	01H
	DD	FLAT:__unwindtable$?AddSetStun@CUserMng@@QAEXPAVCMover@@H@Z
	DD	2 DUP(00H)
	DD	2 DUP(00H)
	DD	00H
	DD	01H
xdata$x	ENDS
;	COMDAT xdata$x
xdata$x	SEGMENT
__unwindtable$?AddCreateSkillEffect@CUserMng@@QAEXPAVCMover@@KKK@Z DD 0ffffffffH
	DD	FLAT:__unwindfunclet$?AddCreateSkillEffect@CUserMng@@QAEXPAVCMover@@KKK@Z$0
__ehfuncinfo$?AddCreateSkillEffect@CUserMng@@QAEXPAVCMover@@KKK@Z DD 019930522H
	DD	01H
	DD	FLAT:__unwindtable$?AddCreateSkillEffect@CUserMng@@QAEXPAVCMover@@KKK@Z
	DD	2 DUP(00H)
	DD	2 DUP(00H)
	DD	00H
	DD	01H
xdata$x	ENDS
;	COMDAT xdata$x
xdata$x	SEGMENT
__unwindtable$?AddSetPosAngle@CUserMng@@QAEXPAVCCtrl@@ABUD3DXVECTOR3@@M@Z DD 0ffffffffH
	DD	FLAT:__unwindfunclet$?AddSetPosAngle@CUserMng@@QAEXPAVCCtrl@@ABUD3DXVECTOR3@@M@Z$0
__ehfuncinfo$?AddSetPosAngle@CUserMng@@QAEXPAVCCtrl@@ABUD3DXVECTOR3@@M@Z DD 019930522H
	DD	01H
	DD	FLAT:__unwindtable$?AddSetPosAngle@CUserMng@@QAEXPAVCCtrl@@ABUD3DXVECTOR3@@M@Z
	DD	2 DUP(00H)
	DD	2 DUP(00H)
	DD	00H
	DD	01H
xdata$x	ENDS
; Function compile flags: /Ogtp
; File C:\IAGOS\server\v18\Source\Source\WorldServer\UserLux.cpp
; File C:\Program Files\Microsoft Visual Studio\2022\Professional\VC\Tools\MSVC\14.44.35207\include\xtree
; File C:\IAGOS\server\v18\Source\Source\WorldServer\UserLux.cpp
; File C:\Program Files\Microsoft Visual Studio\2022\Professional\VC\Tools\MSVC\14.44.35207\include\xtree
; File C:\IAGOS\server\v18\Source\Source\WorldServer\UserLux.cpp
; File C:\Program Files\Microsoft Visual Studio\2022\Professional\VC\Tools\MSVC\14.44.35207\include\xtree
; File C:\IAGOS\server\v18\Source\Source\WorldServer\UserLux.cpp
;	COMDAT ?AddDoApplySkill@CUserMng@@QAEXPAVCCtrl@@KKK@Z
_TEXT	SEGMENT
_nBufSize$ = -16432					; size = 4
$T2 = -16428						; size = 4
$T3 = -16424						; size = 2
_ar$ = -16420						; size = 16404
__$ArrayPad$ = -16					; size = 4
__$EHRec$ = -12						; size = 12
_pCtrl$ = 8						; size = 4
_idTarget$ = 12						; size = 4
_dwSkill$ = 16						; size = 4
_dwLevel$ = 20						; size = 4
?AddDoApplySkill@CUserMng@@QAEXPAVCCtrl@@KKK@Z PROC	; CUserMng::AddDoApplySkill, COMDAT
; _this$ = ecx

; 271  : {

  00000	55		 push	 ebp
  00001	8b ec		 mov	 ebp, esp
  00003	6a ff		 push	 -1
  00005	68 00 00 00 00	 push	 __ehhandler$?AddDoApplySkill@CUserMng@@QAEXPAVCCtrl@@KKK@Z
  0000a	64 a1 00 00 00
	00		 mov	 eax, DWORD PTR fs:0
  00010	50		 push	 eax
  00011	b8 24 40 00 00	 mov	 eax, 16420		; 00004024H
  00016	e8 00 00 00 00	 call	 __chkstk
  0001b	a1 00 00 00 00	 mov	 eax, DWORD PTR ___security_cookie
  00020	33 c5		 xor	 eax, ebp
  00022	89 45 f0	 mov	 DWORD PTR __$ArrayPad$[ebp], eax
  00025	53		 push	 ebx
  00026	56		 push	 esi
  00027	57		 push	 edi
  00028	50		 push	 eax
  00029	8d 45 f4	 lea	 eax, DWORD PTR __$EHRec$[ebp]
  0002c	64 a3 00 00 00
	00		 mov	 DWORD PTR fs:0, eax
  00032	8b 75 08	 mov	 esi, DWORD PTR _pCtrl$[ebp]

; 272  : 	CAr ar;

  00035	8d 8d dc bf ff
	ff		 lea	 ecx, DWORD PTR _ar$[ebp]
  0003b	6a 00		 push	 0
  0003d	6a 00		 push	 0
  0003f	e8 00 00 00 00	 call	 ??0CAr@@QAE@PAXI@Z	; CAr::CAr
  00044	c7 45 fc 00 00
	00 00		 mov	 DWORD PTR __$EHRec$[ebp+8], 0

; 273  : 	ar << GETID( pCtrl ) << SNAPSHOTTYPE_DOAPPLYUSESKILL;

  0004b	c7 85 d8 bf ff
	ff d7 00 00 00	 mov	 DWORD PTR $T3[ebp], 215	; 000000d7H
  00055	85 f6		 test	 esi, esi
  00057	74 08		 je	 SHORT $LN5@AddDoApply
  00059	8b 86 bc 01 00
	00		 mov	 eax, DWORD PTR [esi+444]
  0005f	eb 03		 jmp	 SHORT $LN6@AddDoApply
$LN5@AddDoApply:
  00061	83 c8 ff	 or	 eax, -1
$LN6@AddDoApply:
  00064	89 85 d4 bf ff
	ff		 mov	 DWORD PTR $T2[ebp], eax
  0006a	8d 8d dc bf ff
	ff		 lea	 ecx, DWORD PTR _ar$[ebp]
  00070	8d 85 d8 bf ff
	ff		 lea	 eax, DWORD PTR $T3[ebp]
  00076	50		 push	 eax
  00077	8d 85 d4 bf ff
	ff		 lea	 eax, DWORD PTR $T2[ebp]
  0007d	50		 push	 eax
  0007e	e8 00 00 00 00	 call	 ??$?6K@CAr@@QAEAAV0@ABK@Z ; CAr::operator<<<unsigned long>
  00083	8b c8		 mov	 ecx, eax
  00085	e8 00 00 00 00	 call	 ??$?6G@CAr@@QAEAAV0@ABG@Z ; CAr::operator<<<unsigned short>

; 274  : 	ar << idTarget << dwSkill << dwLevel;

  0008a	8d 45 14	 lea	 eax, DWORD PTR _dwLevel$[ebp]
  0008d	50		 push	 eax
  0008e	8d 45 10	 lea	 eax, DWORD PTR _dwSkill$[ebp]
  00091	50		 push	 eax
  00092	8d 45 0c	 lea	 eax, DWORD PTR _idTarget$[ebp]
  00095	50		 push	 eax
  00096	8d 8d dc bf ff
	ff		 lea	 ecx, DWORD PTR _ar$[ebp]
  0009c	e8 00 00 00 00	 call	 ??$?6K@CAr@@QAEAAV0@ABK@Z ; CAr::operator<<<unsigned long>
  000a1	8b c8		 mov	 ecx, eax
  000a3	e8 00 00 00 00	 call	 ??$?6K@CAr@@QAEAAV0@ABK@Z ; CAr::operator<<<unsigned long>
  000a8	8b c8		 mov	 ecx, eax
  000aa	e8 00 00 00 00	 call	 ??$?6K@CAr@@QAEAAV0@ABK@Z ; CAr::operator<<<unsigned long>

; 275  : 	GETBLOCK( ar, lpBuf, nBufSize );

  000af	8d 85 d0 bf ff
	ff		 lea	 eax, DWORD PTR _nBufSize$[ebp]
  000b5	50		 push	 eax
  000b6	8d 8d dc bf ff
	ff		 lea	 ecx, DWORD PTR _ar$[ebp]
  000bc	e8 00 00 00 00	 call	 ?GetBuffer@CAr@@QAEPAEPAH@Z ; CAr::GetBuffer
; File C:\Program Files\Microsoft Visual Studio\2022\Professional\VC\Tools\MSVC\14.44.35207\include\xtree

; 1142 :         return iterator(_Scary->_Myhead->_Left, _Scary);

  000c1	8b be 0c 02 00
	00		 mov	 edi, DWORD PTR [esi+524]
; File C:\IAGOS\server\v18\Source\Source\WorldServer\UserLux.cpp

; 275  : 	GETBLOCK( ar, lpBuf, nBufSize );

  000c7	8b d8		 mov	 ebx, eax
; File C:\Program Files\Microsoft Visual Studio\2022\Professional\VC\Tools\MSVC\14.44.35207\include\xtree

; 37   :     _Tree_unchecked_const_iterator(_Nodeptr _Pnode, const _Mytree* _Plist) noexcept : _Ptr(_Pnode) {

  000c9	8b 37		 mov	 esi, DWORD PTR [edi]

; 237  :         return !(*this == _Right);

  000cb	3b f7		 cmp	 esi, edi
; File C:\IAGOS\server\v18\Source\Source\WorldServer\UserLux.cpp

; 277  : 	FOR_VISIBILITYRANGE( pCtrl )

  000cd	74 51		 je	 SHORT $LN3@AddDoApply
  000cf	90		 npad	 1
$LL2@AddDoApply:

; 278  : 		USERPTR->AddBlock( lpBuf, nBufSize );

  000d0	ff b5 d0 bf ff
	ff		 push	 DWORD PTR _nBufSize$[ebp]
  000d6	8b 4e 14	 mov	 ecx, DWORD PTR [esi+20]
  000d9	53		 push	 ebx
  000da	e8 00 00 00 00	 call	 ?AddBlock@CUser@@QAEXPAEK@Z ; CUser::AddBlock
; File C:\Program Files\Microsoft Visual Studio\2022\Professional\VC\Tools\MSVC\14.44.35207\include\xtree

; 50   :         if (_Ptr->_Right->_Isnil) { // climb looking for right subtree

  000df	8b 46 08	 mov	 eax, DWORD PTR [esi+8]
  000e2	80 78 0d 00	 cmp	 BYTE PTR [eax+13], 0
  000e6	74 1d		 je	 SHORT $LN56@AddDoApply

; 51   :             _Nodeptr _Pnode;
; 52   :             while (!(_Pnode = _Ptr->_Parent)->_Isnil && _Ptr == _Pnode->_Right) {

  000e8	8b 46 04	 mov	 eax, DWORD PTR [esi+4]
  000eb	80 78 0d 00	 cmp	 BYTE PTR [eax+13], 0
  000ef	75 10		 jne	 SHORT $LN55@AddDoApply
$LL54@AddDoApply:
  000f1	3b 70 08	 cmp	 esi, DWORD PTR [eax+8]
  000f4	75 0b		 jne	 SHORT $LN55@AddDoApply

; 53   :                 _Ptr = _Pnode; // ==> parent while right subtree

  000f6	8b f0		 mov	 esi, eax
  000f8	8b 40 04	 mov	 eax, DWORD PTR [eax+4]
  000fb	80 78 0d 00	 cmp	 BYTE PTR [eax+13], 0
  000ff	74 f0		 je	 SHORT $LL54@AddDoApply
$LN55@AddDoApply:

; 54   :             }
; 55   : 
; 56   :             _Ptr = _Pnode; // ==> parent (head if end())

  00101	8b f0		 mov	 esi, eax

; 57   :         } else {

  00103	eb 17		 jmp	 SHORT $LN57@AddDoApply
$LN56@AddDoApply:

; 58   :             _Ptr = _Mytree::_Min(_Ptr->_Right); // ==> smallest of right subtree

  00105	8b f0		 mov	 esi, eax

; 476  :         while (!_Pnode->_Left->_Isnil) {

  00107	8b 0e		 mov	 ecx, DWORD PTR [esi]
  00109	80 79 0d 00	 cmp	 BYTE PTR [ecx+13], 0
  0010d	75 0d		 jne	 SHORT $LN57@AddDoApply
  0010f	90		 npad	 1
$LL61@AddDoApply:
  00110	8b 01		 mov	 eax, DWORD PTR [ecx]

; 477  :             _Pnode = _Pnode->_Left;

  00112	8b f1		 mov	 esi, ecx
  00114	8b c8		 mov	 ecx, eax
  00116	80 78 0d 00	 cmp	 BYTE PTR [eax+13], 0
  0011a	74 f4		 je	 SHORT $LL61@AddDoApply
$LN57@AddDoApply:

; 237  :         return !(*this == _Right);

  0011c	3b f7		 cmp	 esi, edi
; File C:\IAGOS\server\v18\Source\Source\WorldServer\UserLux.cpp

; 277  : 	FOR_VISIBILITYRANGE( pCtrl )

  0011e	75 b0		 jne	 SHORT $LL2@AddDoApply
$LN3@AddDoApply:

; 279  : 	NEXT_VISIBILITYRANGE( pCtrl )
; 280  : }

  00120	8d 8d dc bf ff
	ff		 lea	 ecx, DWORD PTR _ar$[ebp]
  00126	e8 00 00 00 00	 call	 ??1CAr@@QAE@XZ		; CAr::~CAr
  0012b	8b 4d f4	 mov	 ecx, DWORD PTR __$EHRec$[ebp]
  0012e	64 89 0d 00 00
	00 00		 mov	 DWORD PTR fs:0, ecx
  00135	59		 pop	 ecx
  00136	5f		 pop	 edi
  00137	5e		 pop	 esi
  00138	5b		 pop	 ebx
  00139	8b 4d f0	 mov	 ecx, DWORD PTR __$ArrayPad$[ebp]
  0013c	33 cd		 xor	 ecx, ebp
  0013e	e8 00 00 00 00	 call	 @__security_check_cookie@4
  00143	8b e5		 mov	 esp, ebp
  00145	5d		 pop	 ebp
  00146	c2 10 00	 ret	 16			; 00000010H
_TEXT	ENDS
;	COMDAT text$x
text$x	SEGMENT
__unwindfunclet$?AddDoApplySkill@CUserMng@@QAEXPAVCCtrl@@KKK@Z$0:
  00000	8d 8d dc bf ff
	ff		 lea	 ecx, DWORD PTR _ar$[ebp]
  00006	e9 00 00 00 00	 jmp	 ??1CAr@@QAE@XZ		; CAr::~CAr
  0000b	cc		 int	 3
  0000c	cc		 int	 3
  0000d	cc		 int	 3
  0000e	cc		 int	 3
  0000f	cc		 int	 3
__ehhandler$?AddDoApplySkill@CUserMng@@QAEXPAVCCtrl@@KKK@Z:
  00010	90		 npad	 1
  00011	90		 npad	 1
  00012	8b 54 24 08	 mov	 edx, DWORD PTR [esp+8]
  00016	8d 42 0c	 lea	 eax, DWORD PTR [edx+12]
  00019	8b 8a cc bf ff
	ff		 mov	 ecx, DWORD PTR [edx-16436]
  0001f	33 c8		 xor	 ecx, eax
  00021	e8 00 00 00 00	 call	 @__security_check_cookie@4
  00026	8b 4a fc	 mov	 ecx, DWORD PTR [edx-4]
  00029	33 c8		 xor	 ecx, eax
  0002b	e8 00 00 00 00	 call	 @__security_check_cookie@4
  00030	b8 00 00 00 00	 mov	 eax, OFFSET __ehfuncinfo$?AddDoApplySkill@CUserMng@@QAEXPAVCCtrl@@KKK@Z
  00035	e9 00 00 00 00	 jmp	 ___CxxFrameHandler3
text$x	ENDS
?AddDoApplySkill@CUserMng@@QAEXPAVCCtrl@@KKK@Z ENDP	; CUserMng::AddDoApplySkill
; Function compile flags: /Ogtp
; File C:\IAGOS\server\v18\Source\Source\WorldServer\UserLux.cpp
; File C:\Program Files\Microsoft Visual Studio\2022\Professional\VC\Tools\MSVC\14.44.35207\include\xtree
; File C:\IAGOS\server\v18\Source\Source\WorldServer\UserLux.cpp
; File C:\Program Files\Microsoft Visual Studio\2022\Professional\VC\Tools\MSVC\14.44.35207\include\xtree
; File C:\IAGOS\server\v18\Source\Source\WorldServer\UserLux.cpp
; File C:\Program Files\Microsoft Visual Studio\2022\Professional\VC\Tools\MSVC\14.44.35207\include\xtree
; File C:\IAGOS\server\v18\Source\Source\WorldServer\UserLux.cpp
;	COMDAT ?AddRemoveSkillInfluence@CUserMng@@QAEXPAVCMover@@GG@Z
_TEXT	SEGMENT
_nBufSize$ = -16432					; size = 4
$T2 = -16428						; size = 4
$T3 = -16424						; size = 2
_ar$ = -16420						; size = 16404
__$ArrayPad$ = -16					; size = 4
__$EHRec$ = -12						; size = 12
_pMover$ = 8						; size = 4
_wType$ = 12						; size = 2
_wID$ = 16						; size = 2
?AddRemoveSkillInfluence@CUserMng@@QAEXPAVCMover@@GG@Z PROC ; CUserMng::AddRemoveSkillInfluence, COMDAT
; _this$ = ecx

; 321  : {

  00000	55		 push	 ebp
  00001	8b ec		 mov	 ebp, esp
  00003	6a ff		 push	 -1
  00005	68 00 00 00 00	 push	 __ehhandler$?AddRemoveSkillInfluence@CUserMng@@QAEXPAVCMover@@GG@Z
  0000a	64 a1 00 00 00
	00		 mov	 eax, DWORD PTR fs:0
  00010	50		 push	 eax
  00011	b8 24 40 00 00	 mov	 eax, 16420		; 00004024H
  00016	e8 00 00 00 00	 call	 __chkstk
  0001b	a1 00 00 00 00	 mov	 eax, DWORD PTR ___security_cookie
  00020	33 c5		 xor	 eax, ebp
  00022	89 45 f0	 mov	 DWORD PTR __$ArrayPad$[ebp], eax
  00025	53		 push	 ebx
  00026	56		 push	 esi
  00027	57		 push	 edi
  00028	50		 push	 eax
  00029	8d 45 f4	 lea	 eax, DWORD PTR __$EHRec$[ebp]
  0002c	64 a3 00 00 00
	00		 mov	 DWORD PTR fs:0, eax
  00032	8b 75 08	 mov	 esi, DWORD PTR _pMover$[ebp]

; 322  : 	CAr ar;

  00035	8d 8d dc bf ff
	ff		 lea	 ecx, DWORD PTR _ar$[ebp]
  0003b	6a 00		 push	 0
  0003d	6a 00		 push	 0
  0003f	e8 00 00 00 00	 call	 ??0CAr@@QAE@PAXI@Z	; CAr::CAr
  00044	c7 45 fc 00 00
	00 00		 mov	 DWORD PTR __$EHRec$[ebp+8], 0

; 323  : 	ar << GETID( pMover ) << SNAPSHOTTYPE_REMOVESKILLINFULENCE;

  0004b	c7 85 d8 bf ff
	ff f8 00 00 00	 mov	 DWORD PTR $T3[ebp], 248	; 000000f8H
  00055	85 f6		 test	 esi, esi
  00057	74 08		 je	 SHORT $LN5@AddRemoveS
  00059	8b 86 bc 01 00
	00		 mov	 eax, DWORD PTR [esi+444]
  0005f	eb 03		 jmp	 SHORT $LN6@AddRemoveS
$LN5@AddRemoveS:
  00061	83 c8 ff	 or	 eax, -1
$LN6@AddRemoveS:
  00064	89 85 d4 bf ff
	ff		 mov	 DWORD PTR $T2[ebp], eax
  0006a	8d 8d dc bf ff
	ff		 lea	 ecx, DWORD PTR _ar$[ebp]
  00070	8d 85 d8 bf ff
	ff		 lea	 eax, DWORD PTR $T3[ebp]
  00076	50		 push	 eax
  00077	8d 85 d4 bf ff
	ff		 lea	 eax, DWORD PTR $T2[ebp]
  0007d	50		 push	 eax
  0007e	e8 00 00 00 00	 call	 ??$?6K@CAr@@QAEAAV0@ABK@Z ; CAr::operator<<<unsigned long>
  00083	8b c8		 mov	 ecx, eax
  00085	e8 00 00 00 00	 call	 ??$?6G@CAr@@QAEAAV0@ABG@Z ; CAr::operator<<<unsigned short>

; 324  : 	ar << wType;

  0008a	8d 45 0c	 lea	 eax, DWORD PTR _wType$[ebp]
  0008d	50		 push	 eax
  0008e	8d 8d dc bf ff
	ff		 lea	 ecx, DWORD PTR _ar$[ebp]
  00094	e8 00 00 00 00	 call	 ??$?6G@CAr@@QAEAAV0@ABG@Z ; CAr::operator<<<unsigned short>

; 325  : 	ar << wID;

  00099	8d 45 10	 lea	 eax, DWORD PTR _wID$[ebp]
  0009c	50		 push	 eax
  0009d	8d 8d dc bf ff
	ff		 lea	 ecx, DWORD PTR _ar$[ebp]
  000a3	e8 00 00 00 00	 call	 ??$?6G@CAr@@QAEAAV0@ABG@Z ; CAr::operator<<<unsigned short>

; 326  : 	GETBLOCK( ar, lpBuf, nBufSize );

  000a8	8d 85 d0 bf ff
	ff		 lea	 eax, DWORD PTR _nBufSize$[ebp]
  000ae	50		 push	 eax
  000af	8d 8d dc bf ff
	ff		 lea	 ecx, DWORD PTR _ar$[ebp]
  000b5	e8 00 00 00 00	 call	 ?GetBuffer@CAr@@QAEPAEPAH@Z ; CAr::GetBuffer
; File C:\Program Files\Microsoft Visual Studio\2022\Professional\VC\Tools\MSVC\14.44.35207\include\xtree

; 1142 :         return iterator(_Scary->_Myhead->_Left, _Scary);

  000ba	8b be 0c 02 00
	00		 mov	 edi, DWORD PTR [esi+524]
; File C:\IAGOS\server\v18\Source\Source\WorldServer\UserLux.cpp

; 326  : 	GETBLOCK( ar, lpBuf, nBufSize );

  000c0	8b d8		 mov	 ebx, eax
; File C:\Program Files\Microsoft Visual Studio\2022\Professional\VC\Tools\MSVC\14.44.35207\include\xtree

; 37   :     _Tree_unchecked_const_iterator(_Nodeptr _Pnode, const _Mytree* _Plist) noexcept : _Ptr(_Pnode) {

  000c2	8b 37		 mov	 esi, DWORD PTR [edi]

; 237  :         return !(*this == _Right);

  000c4	3b f7		 cmp	 esi, edi
; File C:\IAGOS\server\v18\Source\Source\WorldServer\UserLux.cpp

; 328  : 	FOR_VISIBILITYRANGE( pMover )

  000c6	74 58		 je	 SHORT $LN3@AddRemoveS
  000c8	0f 1f 84 00 00
	00 00 00	 npad	 8
$LL2@AddRemoveS:

; 329  : 		USERPTR->AddBlock( lpBuf, nBufSize );

  000d0	ff b5 d0 bf ff
	ff		 push	 DWORD PTR _nBufSize$[ebp]
  000d6	8b 4e 14	 mov	 ecx, DWORD PTR [esi+20]
  000d9	53		 push	 ebx
  000da	e8 00 00 00 00	 call	 ?AddBlock@CUser@@QAEXPAEK@Z ; CUser::AddBlock
; File C:\Program Files\Microsoft Visual Studio\2022\Professional\VC\Tools\MSVC\14.44.35207\include\xtree

; 50   :         if (_Ptr->_Right->_Isnil) { // climb looking for right subtree

  000df	8b 46 08	 mov	 eax, DWORD PTR [esi+8]
  000e2	80 78 0d 00	 cmp	 BYTE PTR [eax+13], 0
  000e6	74 1d		 je	 SHORT $LN56@AddRemoveS

; 51   :             _Nodeptr _Pnode;
; 52   :             while (!(_Pnode = _Ptr->_Parent)->_Isnil && _Ptr == _Pnode->_Right) {

  000e8	8b 46 04	 mov	 eax, DWORD PTR [esi+4]
  000eb	80 78 0d 00	 cmp	 BYTE PTR [eax+13], 0
  000ef	75 10		 jne	 SHORT $LN55@AddRemoveS
$LL54@AddRemoveS:
  000f1	3b 70 08	 cmp	 esi, DWORD PTR [eax+8]
  000f4	75 0b		 jne	 SHORT $LN55@AddRemoveS

; 53   :                 _Ptr = _Pnode; // ==> parent while right subtree

  000f6	8b f0		 mov	 esi, eax
  000f8	8b 40 04	 mov	 eax, DWORD PTR [eax+4]
  000fb	80 78 0d 00	 cmp	 BYTE PTR [eax+13], 0
  000ff	74 f0		 je	 SHORT $LL54@AddRemoveS
$LN55@AddRemoveS:

; 54   :             }
; 55   : 
; 56   :             _Ptr = _Pnode; // ==> parent (head if end())

  00101	8b f0		 mov	 esi, eax

; 57   :         } else {

  00103	eb 17		 jmp	 SHORT $LN57@AddRemoveS
$LN56@AddRemoveS:

; 58   :             _Ptr = _Mytree::_Min(_Ptr->_Right); // ==> smallest of right subtree

  00105	8b f0		 mov	 esi, eax

; 476  :         while (!_Pnode->_Left->_Isnil) {

  00107	8b 0e		 mov	 ecx, DWORD PTR [esi]
  00109	80 79 0d 00	 cmp	 BYTE PTR [ecx+13], 0
  0010d	75 0d		 jne	 SHORT $LN57@AddRemoveS
  0010f	90		 npad	 1
$LL61@AddRemoveS:
  00110	8b 01		 mov	 eax, DWORD PTR [ecx]

; 477  :             _Pnode = _Pnode->_Left;

  00112	8b f1		 mov	 esi, ecx
  00114	8b c8		 mov	 ecx, eax
  00116	80 78 0d 00	 cmp	 BYTE PTR [eax+13], 0
  0011a	74 f4		 je	 SHORT $LL61@AddRemoveS
$LN57@AddRemoveS:

; 237  :         return !(*this == _Right);

  0011c	3b f7		 cmp	 esi, edi
; File C:\IAGOS\server\v18\Source\Source\WorldServer\UserLux.cpp

; 328  : 	FOR_VISIBILITYRANGE( pMover )

  0011e	75 b0		 jne	 SHORT $LL2@AddRemoveS
$LN3@AddRemoveS:

; 330  : 	NEXT_VISIBILITYRANGE( pMover )
; 331  : }

  00120	8d 8d dc bf ff
	ff		 lea	 ecx, DWORD PTR _ar$[ebp]
  00126	e8 00 00 00 00	 call	 ??1CAr@@QAE@XZ		; CAr::~CAr
  0012b	8b 4d f4	 mov	 ecx, DWORD PTR __$EHRec$[ebp]
  0012e	64 89 0d 00 00
	00 00		 mov	 DWORD PTR fs:0, ecx
  00135	59		 pop	 ecx
  00136	5f		 pop	 edi
  00137	5e		 pop	 esi
  00138	5b		 pop	 ebx
  00139	8b 4d f0	 mov	 ecx, DWORD PTR __$ArrayPad$[ebp]
  0013c	33 cd		 xor	 ecx, ebp
  0013e	e8 00 00 00 00	 call	 @__security_check_cookie@4
  00143	8b e5		 mov	 esp, ebp
  00145	5d		 pop	 ebp
  00146	c2 0c 00	 ret	 12			; 0000000cH
_TEXT	ENDS
;	COMDAT text$x
text$x	SEGMENT
__unwindfunclet$?AddRemoveSkillInfluence@CUserMng@@QAEXPAVCMover@@GG@Z$0:
  00000	8d 8d dc bf ff
	ff		 lea	 ecx, DWORD PTR _ar$[ebp]
  00006	e9 00 00 00 00	 jmp	 ??1CAr@@QAE@XZ		; CAr::~CAr
  0000b	cc		 int	 3
  0000c	cc		 int	 3
  0000d	cc		 int	 3
  0000e	cc		 int	 3
  0000f	cc		 int	 3
__ehhandler$?AddRemoveSkillInfluence@CUserMng@@QAEXPAVCMover@@GG@Z:
  00010	90		 npad	 1
  00011	90		 npad	 1
  00012	8b 54 24 08	 mov	 edx, DWORD PTR [esp+8]
  00016	8d 42 0c	 lea	 eax, DWORD PTR [edx+12]
  00019	8b 8a cc bf ff
	ff		 mov	 ecx, DWORD PTR [edx-16436]
  0001f	33 c8		 xor	 ecx, eax
  00021	e8 00 00 00 00	 call	 @__security_check_cookie@4
  00026	8b 4a fc	 mov	 ecx, DWORD PTR [edx-4]
  00029	33 c8		 xor	 ecx, eax
  0002b	e8 00 00 00 00	 call	 @__security_check_cookie@4
  00030	b8 00 00 00 00	 mov	 eax, OFFSET __ehfuncinfo$?AddRemoveSkillInfluence@CUserMng@@QAEXPAVCMover@@GG@Z
  00035	e9 00 00 00 00	 jmp	 ___CxxFrameHandler3
text$x	ENDS
?AddRemoveSkillInfluence@CUserMng@@QAEXPAVCMover@@GG@Z ENDP ; CUserMng::AddRemoveSkillInfluence
; Function compile flags: /Ogtp
; File C:\IAGOS\server\v18\Source\Source\WorldServer\UserLux.cpp
; File C:\Program Files\Microsoft Visual Studio\2022\Professional\VC\Tools\MSVC\14.44.35207\include\xtree
; File C:\IAGOS\server\v18\Source\Source\WorldServer\UserLux.cpp
; File C:\Program Files\Microsoft Visual Studio\2022\Professional\VC\Tools\MSVC\14.44.35207\include\xtree
; File C:\IAGOS\server\v18\Source\Source\WorldServer\UserLux.cpp
; File C:\Program Files\Microsoft Visual Studio\2022\Professional\VC\Tools\MSVC\14.44.35207\include\xtree
; File C:\IAGOS\server\v18\Source\Source\WorldServer\UserLux.cpp
;	COMDAT ?AddPushPower@CUserMng@@QAEXPAVCMover@@UD3DXVECTOR3@@MMM@Z
_TEXT	SEGMENT
_nBufSize$ = -16432					; size = 4
$T2 = -16428						; size = 4
$T3 = -16424						; size = 2
_ar$ = -16420						; size = 16404
__$ArrayPad$ = -16					; size = 4
__$EHRec$ = -12						; size = 12
_pMover$ = 8						; size = 4
_vPos$ = 12						; size = 12
_fAngle$ = 24						; size = 4
_fPushAngle$ = 28					; size = 4
_fPower$ = 32						; size = 4
?AddPushPower@CUserMng@@QAEXPAVCMover@@UD3DXVECTOR3@@MMM@Z PROC ; CUserMng::AddPushPower, COMDAT
; _this$ = ecx

; 304  : {

  00000	55		 push	 ebp
  00001	8b ec		 mov	 ebp, esp
  00003	6a ff		 push	 -1
  00005	68 00 00 00 00	 push	 __ehhandler$?AddPushPower@CUserMng@@QAEXPAVCMover@@UD3DXVECTOR3@@MMM@Z
  0000a	64 a1 00 00 00
	00		 mov	 eax, DWORD PTR fs:0
  00010	50		 push	 eax
  00011	b8 24 40 00 00	 mov	 eax, 16420		; 00004024H
  00016	e8 00 00 00 00	 call	 __chkstk
  0001b	a1 00 00 00 00	 mov	 eax, DWORD PTR ___security_cookie
  00020	33 c5		 xor	 eax, ebp
  00022	89 45 f0	 mov	 DWORD PTR __$ArrayPad$[ebp], eax
  00025	53		 push	 ebx
  00026	56		 push	 esi
  00027	57		 push	 edi
  00028	50		 push	 eax
  00029	8d 45 f4	 lea	 eax, DWORD PTR __$EHRec$[ebp]
  0002c	64 a3 00 00 00
	00		 mov	 DWORD PTR fs:0, eax
  00032	8b 7d 08	 mov	 edi, DWORD PTR _pMover$[ebp]
  00035	8b 87 38 02 00
	00		 mov	 eax, DWORD PTR [edi+568]
  0003b	f7 40 04 00 00
	00 42		 test	 DWORD PTR [eax+4], 1107296256 ; 42000000H

; 305  : 	if( (pMover->m_pActMover->GetState() & OBJSTA_DMG_FLY_ALL) || pMover->m_pActMover->GetState() & OBJSTA_STUN ) // µĄąĚÁö ÇĂ¶óŔĚÁßŔĚ¸é ¸®ĹĎ

  00042	0f 85 03 01 00
	00		 jne	 $LN5@AddPushPow

; 306  : 		return;
; 307  : 
; 308  : 	CAr ar;

  00048	6a 00		 push	 0
  0004a	6a 00		 push	 0
  0004c	8d 8d dc bf ff
	ff		 lea	 ecx, DWORD PTR _ar$[ebp]
  00052	e8 00 00 00 00	 call	 ??0CAr@@QAE@PAXI@Z	; CAr::CAr

; 309  : 	ar << GETID( pMover ) << SNAPSHOTTYPE_PUSHPOWER;

  00057	8b 87 bc 01 00
	00		 mov	 eax, DWORD PTR [edi+444]
  0005d	8d 8d dc bf ff
	ff		 lea	 ecx, DWORD PTR _ar$[ebp]
  00063	89 85 d4 bf ff
	ff		 mov	 DWORD PTR $T2[ebp], eax
  00069	8d 85 d8 bf ff
	ff		 lea	 eax, DWORD PTR $T3[ebp]
  0006f	50		 push	 eax
  00070	8d 85 d4 bf ff
	ff		 lea	 eax, DWORD PTR $T2[ebp]
  00076	c7 45 fc 00 00
	00 00		 mov	 DWORD PTR __$EHRec$[ebp+8], 0
  0007d	50		 push	 eax
  0007e	c7 85 d8 bf ff
	ff 5f 00 00 00	 mov	 DWORD PTR $T3[ebp], 95	; 0000005fH
  00088	e8 00 00 00 00	 call	 ??$?6K@CAr@@QAEAAV0@ABK@Z ; CAr::operator<<<unsigned long>
  0008d	8b c8		 mov	 ecx, eax
  0008f	e8 00 00 00 00	 call	 ??$?6G@CAr@@QAEAAV0@ABG@Z ; CAr::operator<<<unsigned short>

; 310  : 	ar << vPos;

  00094	8d 45 0c	 lea	 eax, DWORD PTR _vPos$[ebp]
  00097	50		 push	 eax
  00098	8d 8d dc bf ff
	ff		 lea	 ecx, DWORD PTR _ar$[ebp]
  0009e	e8 00 00 00 00	 call	 ??$?6UD3DXVECTOR3@@@CAr@@QAEAAV0@ABUD3DXVECTOR3@@@Z ; CAr::operator<<<D3DXVECTOR3>

; 311  : 	ar << fAngle;

  000a3	8d 45 18	 lea	 eax, DWORD PTR _fAngle$[ebp]
  000a6	50		 push	 eax
  000a7	8d 8d dc bf ff
	ff		 lea	 ecx, DWORD PTR _ar$[ebp]
  000ad	e8 00 00 00 00	 call	 ??$?6M@CAr@@QAEAAV0@ABM@Z ; CAr::operator<<<float>

; 312  : 	ar << fPushAngle << fPower;

  000b2	8d 45 20	 lea	 eax, DWORD PTR _fPower$[ebp]
  000b5	50		 push	 eax
  000b6	8d 45 1c	 lea	 eax, DWORD PTR _fPushAngle$[ebp]
  000b9	50		 push	 eax
  000ba	8d 8d dc bf ff
	ff		 lea	 ecx, DWORD PTR _ar$[ebp]
  000c0	e8 00 00 00 00	 call	 ??$?6M@CAr@@QAEAAV0@ABM@Z ; CAr::operator<<<float>
  000c5	8b c8		 mov	 ecx, eax
  000c7	e8 00 00 00 00	 call	 ??$?6M@CAr@@QAEAAV0@ABM@Z ; CAr::operator<<<float>

; 313  : 	GETBLOCK( ar, lpBuf, nBufSize );

  000cc	8d 85 d0 bf ff
	ff		 lea	 eax, DWORD PTR _nBufSize$[ebp]
  000d2	50		 push	 eax
  000d3	8d 8d dc bf ff
	ff		 lea	 ecx, DWORD PTR _ar$[ebp]
  000d9	e8 00 00 00 00	 call	 ?GetBuffer@CAr@@QAEPAEPAH@Z ; CAr::GetBuffer
; File C:\Program Files\Microsoft Visual Studio\2022\Professional\VC\Tools\MSVC\14.44.35207\include\xtree

; 1142 :         return iterator(_Scary->_Myhead->_Left, _Scary);

  000de	8b bf 0c 02 00
	00		 mov	 edi, DWORD PTR [edi+524]
; File C:\IAGOS\server\v18\Source\Source\WorldServer\UserLux.cpp

; 313  : 	GETBLOCK( ar, lpBuf, nBufSize );

  000e4	8b d8		 mov	 ebx, eax
; File C:\Program Files\Microsoft Visual Studio\2022\Professional\VC\Tools\MSVC\14.44.35207\include\xtree

; 37   :     _Tree_unchecked_const_iterator(_Nodeptr _Pnode, const _Mytree* _Plist) noexcept : _Ptr(_Pnode) {

  000e6	8b 37		 mov	 esi, DWORD PTR [edi]

; 237  :         return !(*this == _Right);

  000e8	3b f7		 cmp	 esi, edi
; File C:\IAGOS\server\v18\Source\Source\WorldServer\UserLux.cpp

; 315  : 	FOR_VISIBILITYRANGE( pMover )

  000ea	74 54		 je	 SHORT $LN3@AddPushPow
  000ec	0f 1f 40 00	 npad	 4
$LL2@AddPushPow:

; 316  : 		USERPTR->AddBlock( lpBuf, nBufSize );

  000f0	ff b5 d0 bf ff
	ff		 push	 DWORD PTR _nBufSize$[ebp]
  000f6	8b 4e 14	 mov	 ecx, DWORD PTR [esi+20]
  000f9	53		 push	 ebx
  000fa	e8 00 00 00 00	 call	 ?AddBlock@CUser@@QAEXPAEK@Z ; CUser::AddBlock
; File C:\Program Files\Microsoft Visual Studio\2022\Professional\VC\Tools\MSVC\14.44.35207\include\xtree

; 50   :         if (_Ptr->_Right->_Isnil) { // climb looking for right subtree

  000ff	8b 46 08	 mov	 eax, DWORD PTR [esi+8]
  00102	80 78 0d 00	 cmp	 BYTE PTR [eax+13], 0
  00106	74 1d		 je	 SHORT $LN58@AddPushPow

; 51   :             _Nodeptr _Pnode;
; 52   :             while (!(_Pnode = _Ptr->_Parent)->_Isnil && _Ptr == _Pnode->_Right) {

  00108	8b 46 04	 mov	 eax, DWORD PTR [esi+4]
  0010b	80 78 0d 00	 cmp	 BYTE PTR [eax+13], 0
  0010f	75 10		 jne	 SHORT $LN57@AddPushPow
$LL56@AddPushPow:
  00111	3b 70 08	 cmp	 esi, DWORD PTR [eax+8]
  00114	75 0b		 jne	 SHORT $LN57@AddPushPow

; 53   :                 _Ptr = _Pnode; // ==> parent while right subtree

  00116	8b f0		 mov	 esi, eax
  00118	8b 40 04	 mov	 eax, DWORD PTR [eax+4]
  0011b	80 78 0d 00	 cmp	 BYTE PTR [eax+13], 0
  0011f	74 f0		 je	 SHORT $LL56@AddPushPow
$LN57@AddPushPow:

; 54   :             }
; 55   : 
; 56   :             _Ptr = _Pnode; // ==> parent (head if end())

  00121	8b f0		 mov	 esi, eax

; 57   :         } else {

  00123	eb 17		 jmp	 SHORT $LN59@AddPushPow
$LN58@AddPushPow:

; 58   :             _Ptr = _Mytree::_Min(_Ptr->_Right); // ==> smallest of right subtree

  00125	8b f0		 mov	 esi, eax

; 476  :         while (!_Pnode->_Left->_Isnil) {

  00127	8b 0e		 mov	 ecx, DWORD PTR [esi]
  00129	80 79 0d 00	 cmp	 BYTE PTR [ecx+13], 0
  0012d	75 0d		 jne	 SHORT $LN59@AddPushPow
  0012f	90		 npad	 1
$LL63@AddPushPow:
  00130	8b 01		 mov	 eax, DWORD PTR [ecx]

; 477  :             _Pnode = _Pnode->_Left;

  00132	8b f1		 mov	 esi, ecx
  00134	8b c8		 mov	 ecx, eax
  00136	80 78 0d 00	 cmp	 BYTE PTR [eax+13], 0
  0013a	74 f4		 je	 SHORT $LL63@AddPushPow
$LN59@AddPushPow:

; 237  :         return !(*this == _Right);

  0013c	3b f7		 cmp	 esi, edi
; File C:\IAGOS\server\v18\Source\Source\WorldServer\UserLux.cpp

; 315  : 	FOR_VISIBILITYRANGE( pMover )

  0013e	75 b0		 jne	 SHORT $LL2@AddPushPow
$LN3@AddPushPow:

; 317  : 	NEXT_VISIBILITYRANGE( pMover )
; 318  : }

  00140	8d 8d dc bf ff
	ff		 lea	 ecx, DWORD PTR _ar$[ebp]
  00146	e8 00 00 00 00	 call	 ??1CAr@@QAE@XZ		; CAr::~CAr
$LN5@AddPushPow:
  0014b	8b 4d f4	 mov	 ecx, DWORD PTR __$EHRec$[ebp]
  0014e	64 89 0d 00 00
	00 00		 mov	 DWORD PTR fs:0, ecx
  00155	59		 pop	 ecx
  00156	5f		 pop	 edi
  00157	5e		 pop	 esi
  00158	5b		 pop	 ebx
  00159	8b 4d f0	 mov	 ecx, DWORD PTR __$ArrayPad$[ebp]
  0015c	33 cd		 xor	 ecx, ebp
  0015e	e8 00 00 00 00	 call	 @__security_check_cookie@4
  00163	8b e5		 mov	 esp, ebp
  00165	5d		 pop	 ebp
  00166	c2 1c 00	 ret	 28			; 0000001cH
_TEXT	ENDS
;	COMDAT text$x
text$x	SEGMENT
__unwindfunclet$?AddPushPower@CUserMng@@QAEXPAVCMover@@UD3DXVECTOR3@@MMM@Z$0:
  00000	8d 8d dc bf ff
	ff		 lea	 ecx, DWORD PTR _ar$[ebp]
  00006	e9 00 00 00 00	 jmp	 ??1CAr@@QAE@XZ		; CAr::~CAr
  0000b	cc		 int	 3
  0000c	cc		 int	 3
  0000d	cc		 int	 3
  0000e	cc		 int	 3
  0000f	cc		 int	 3
__ehhandler$?AddPushPower@CUserMng@@QAEXPAVCMover@@UD3DXVECTOR3@@MMM@Z:
  00010	90		 npad	 1
  00011	90		 npad	 1
  00012	8b 54 24 08	 mov	 edx, DWORD PTR [esp+8]
  00016	8d 42 0c	 lea	 eax, DWORD PTR [edx+12]
  00019	8b 8a cc bf ff
	ff		 mov	 ecx, DWORD PTR [edx-16436]
  0001f	33 c8		 xor	 ecx, eax
  00021	e8 00 00 00 00	 call	 @__security_check_cookie@4
  00026	8b 4a fc	 mov	 ecx, DWORD PTR [edx-4]
  00029	33 c8		 xor	 ecx, eax
  0002b	e8 00 00 00 00	 call	 @__security_check_cookie@4
  00030	b8 00 00 00 00	 mov	 eax, OFFSET __ehfuncinfo$?AddPushPower@CUserMng@@QAEXPAVCMover@@UD3DXVECTOR3@@MMM@Z
  00035	e9 00 00 00 00	 jmp	 ___CxxFrameHandler3
text$x	ENDS
?AddPushPower@CUserMng@@QAEXPAVCMover@@UD3DXVECTOR3@@MMM@Z ENDP ; CUserMng::AddPushPower
; Function compile flags: /Ogtp
; File C:\IAGOS\server\v18\Source\Source\WorldServer\UserLux.cpp
; File C:\IAGOS\server\v18\Source\Source\_AIInterface\Action.h
; File C:\IAGOS\server\v18\Source\Source\WorldServer\UserLux.cpp
; File C:\IAGOS\server\v18\Source\Source\_AIInterface\Action.h
; File C:\IAGOS\server\v18\Source\Source\WorldServer\UserLux.cpp
; File C:\Program Files\Microsoft Visual Studio\2022\Professional\VC\Tools\MSVC\14.44.35207\include\xtree
; File C:\IAGOS\server\v18\Source\Source\WorldServer\UserLux.cpp
; File C:\Program Files\Microsoft Visual Studio\2022\Professional\VC\Tools\MSVC\14.44.35207\include\xtree
; File C:\IAGOS\server\v18\Source\Source\WorldServer\UserLux.cpp
; File C:\Program Files\Microsoft Visual Studio\2022\Professional\VC\Tools\MSVC\14.44.35207\include\xtree
; File C:\IAGOS\server\v18\Source\Source\WorldServer\UserLux.cpp
;	COMDAT ?AddSendActMsg@CUserMng@@QAEXPAVCMover@@W4OBJMSG@@HHH@Z
_TEXT	SEGMENT
_nBufSize$ = -16432					; size = 4
$T2 = -16428						; size = 2
$T3 = -16424						; size = 4
$T4 = -16424						; size = 4
$T5 = -16424						; size = 4
_ar$ = -16420						; size = 16404
__$ArrayPad$ = -16					; size = 4
__$EHRec$ = -12						; size = 12
_pMover$ = 8						; size = 4
_dwMsg$ = 12						; size = 4
_nParam1$ = 16						; size = 4
_nParam2$ = 20						; size = 4
_nParam3$ = 24						; size = 4
?AddSendActMsg@CUserMng@@QAEXPAVCMover@@W4OBJMSG@@HHH@Z PROC ; CUserMng::AddSendActMsg, COMDAT
; _this$ = ecx

; 284  : {

  00000	55		 push	 ebp
  00001	8b ec		 mov	 ebp, esp
  00003	6a ff		 push	 -1
  00005	68 00 00 00 00	 push	 __ehhandler$?AddSendActMsg@CUserMng@@QAEXPAVCMover@@W4OBJMSG@@HHH@Z
  0000a	64 a1 00 00 00
	00		 mov	 eax, DWORD PTR fs:0
  00010	50		 push	 eax
  00011	b8 24 40 00 00	 mov	 eax, 16420		; 00004024H
  00016	e8 00 00 00 00	 call	 __chkstk
  0001b	a1 00 00 00 00	 mov	 eax, DWORD PTR ___security_cookie
  00020	33 c5		 xor	 eax, ebp
  00022	89 45 f0	 mov	 DWORD PTR __$ArrayPad$[ebp], eax
  00025	53		 push	 ebx
  00026	56		 push	 esi
  00027	57		 push	 edi
  00028	50		 push	 eax
  00029	8d 45 f4	 lea	 eax, DWORD PTR __$EHRec$[ebp]
  0002c	64 a3 00 00 00
	00		 mov	 DWORD PTR fs:0, eax
  00032	8b 75 08	 mov	 esi, DWORD PTR _pMover$[ebp]

; 285  : 	CAr ar;

  00035	8d 8d dc bf ff
	ff		 lea	 ecx, DWORD PTR _ar$[ebp]
  0003b	6a 00		 push	 0
  0003d	6a 00		 push	 0
  0003f	e8 00 00 00 00	 call	 ??0CAr@@QAE@PAXI@Z	; CAr::CAr
  00044	c7 45 fc 00 00
	00 00		 mov	 DWORD PTR __$EHRec$[ebp+8], 0

; 286  : 	ar << GETID( pMover ) << SNAPSHOTTYPE_SENDACTMSG;

  0004b	c7 85 d4 bf ff
	ff 5c 00 00 00	 mov	 DWORD PTR $T2[ebp], 92	; 0000005cH
  00055	85 f6		 test	 esi, esi
  00057	74 08		 je	 SHORT $LN5@AddSendAct
  00059	8b 86 bc 01 00
	00		 mov	 eax, DWORD PTR [esi+444]
  0005f	eb 03		 jmp	 SHORT $LN6@AddSendAct
$LN5@AddSendAct:
  00061	83 c8 ff	 or	 eax, -1
$LN6@AddSendAct:
  00064	89 85 d8 bf ff
	ff		 mov	 DWORD PTR $T3[ebp], eax
  0006a	8d 8d dc bf ff
	ff		 lea	 ecx, DWORD PTR _ar$[ebp]
  00070	8d 85 d4 bf ff
	ff		 lea	 eax, DWORD PTR $T2[ebp]
  00076	50		 push	 eax
  00077	8d 85 d8 bf ff
	ff		 lea	 eax, DWORD PTR $T3[ebp]
  0007d	50		 push	 eax
  0007e	e8 00 00 00 00	 call	 ??$?6K@CAr@@QAEAAV0@ABK@Z ; CAr::operator<<<unsigned long>
  00083	8b c8		 mov	 ecx, eax
  00085	e8 00 00 00 00	 call	 ??$?6G@CAr@@QAEAAV0@ABG@Z ; CAr::operator<<<unsigned short>

; 287  : 	ar << (int)dwMsg;

  0008a	8b 45 0c	 mov	 eax, DWORD PTR _dwMsg$[ebp]
  0008d	8d 8d dc bf ff
	ff		 lea	 ecx, DWORD PTR _ar$[ebp]
  00093	89 85 d8 bf ff
	ff		 mov	 DWORD PTR $T4[ebp], eax
  00099	8d 85 d8 bf ff
	ff		 lea	 eax, DWORD PTR $T4[ebp]
  0009f	50		 push	 eax
  000a0	e8 00 00 00 00	 call	 ??$?6H@CAr@@QAEAAV0@ABH@Z ; CAr::operator<<<int>
; File C:\IAGOS\server\v18\Source\Source\_AIInterface\Action.h

; 309  : 	BOOL			IsFly() { return (m_dwStateFlag & OBJSTAF_FLY) ? TRUE : FALSE; }

  000a5	8b 86 38 02 00
	00		 mov	 eax, DWORD PTR [esi+568]
; File C:\IAGOS\server\v18\Source\Source\WorldServer\UserLux.cpp

; 288  : 	ar << pMover->IsFly();

  000ab	8d 8d dc bf ff
	ff		 lea	 ecx, DWORD PTR _ar$[ebp]
; File C:\IAGOS\server\v18\Source\Source\_AIInterface\Action.h

; 309  : 	BOOL			IsFly() { return (m_dwStateFlag & OBJSTAF_FLY) ? TRUE : FALSE; }

  000b1	8b 40 08	 mov	 eax, DWORD PTR [eax+8]
  000b4	c1 e8 03	 shr	 eax, 3
  000b7	83 e0 01	 and	 eax, 1
; File C:\IAGOS\server\v18\Source\Source\WorldServer\UserLux.cpp

; 288  : 	ar << pMover->IsFly();

  000ba	89 85 d8 bf ff
	ff		 mov	 DWORD PTR $T5[ebp], eax
  000c0	8d 85 d8 bf ff
	ff		 lea	 eax, DWORD PTR $T5[ebp]
  000c6	50		 push	 eax
  000c7	e8 00 00 00 00	 call	 ??$?6H@CAr@@QAEAAV0@ABH@Z ; CAr::operator<<<int>

; 289  : 	ar << nParam1 << nParam2 << nParam3;

  000cc	8d 45 18	 lea	 eax, DWORD PTR _nParam3$[ebp]
  000cf	50		 push	 eax
  000d0	8d 45 14	 lea	 eax, DWORD PTR _nParam2$[ebp]
  000d3	50		 push	 eax
  000d4	8d 45 10	 lea	 eax, DWORD PTR _nParam1$[ebp]
  000d7	50		 push	 eax
  000d8	8d 8d dc bf ff
	ff		 lea	 ecx, DWORD PTR _ar$[ebp]
  000de	e8 00 00 00 00	 call	 ??$?6H@CAr@@QAEAAV0@ABH@Z ; CAr::operator<<<int>
  000e3	8b c8		 mov	 ecx, eax
  000e5	e8 00 00 00 00	 call	 ??$?6H@CAr@@QAEAAV0@ABH@Z ; CAr::operator<<<int>
  000ea	8b c8		 mov	 ecx, eax
  000ec	e8 00 00 00 00	 call	 ??$?6H@CAr@@QAEAAV0@ABH@Z ; CAr::operator<<<int>

; 290  : 	GETBLOCK( ar, lpBuf, nBufSize );

  000f1	8d 85 d0 bf ff
	ff		 lea	 eax, DWORD PTR _nBufSize$[ebp]
  000f7	50		 push	 eax
  000f8	8d 8d dc bf ff
	ff		 lea	 ecx, DWORD PTR _ar$[ebp]
  000fe	e8 00 00 00 00	 call	 ?GetBuffer@CAr@@QAEPAEPAH@Z ; CAr::GetBuffer
; File C:\Program Files\Microsoft Visual Studio\2022\Professional\VC\Tools\MSVC\14.44.35207\include\xtree

; 1142 :         return iterator(_Scary->_Myhead->_Left, _Scary);

  00103	8b be 0c 02 00
	00		 mov	 edi, DWORD PTR [esi+524]
; File C:\IAGOS\server\v18\Source\Source\WorldServer\UserLux.cpp

; 290  : 	GETBLOCK( ar, lpBuf, nBufSize );

  00109	8b d8		 mov	 ebx, eax
; File C:\Program Files\Microsoft Visual Studio\2022\Professional\VC\Tools\MSVC\14.44.35207\include\xtree

; 37   :     _Tree_unchecked_const_iterator(_Nodeptr _Pnode, const _Mytree* _Plist) noexcept : _Ptr(_Pnode) {

  0010b	8b 37		 mov	 esi, DWORD PTR [edi]

; 237  :         return !(*this == _Right);

  0010d	3b f7		 cmp	 esi, edi
; File C:\IAGOS\server\v18\Source\Source\WorldServer\UserLux.cpp

; 292  : 	FOR_VISIBILITYRANGE( pMover )

  0010f	74 4f		 je	 SHORT $LN3@AddSendAct
$LL2@AddSendAct:

; 293  : 		USERPTR->AddBlock( lpBuf, nBufSize );

  00111	ff b5 d0 bf ff
	ff		 push	 DWORD PTR _nBufSize$[ebp]
  00117	8b 4e 14	 mov	 ecx, DWORD PTR [esi+20]
  0011a	53		 push	 ebx
  0011b	e8 00 00 00 00	 call	 ?AddBlock@CUser@@QAEXPAEK@Z ; CUser::AddBlock
; File C:\Program Files\Microsoft Visual Studio\2022\Professional\VC\Tools\MSVC\14.44.35207\include\xtree

; 50   :         if (_Ptr->_Right->_Isnil) { // climb looking for right subtree

  00120	8b 46 08	 mov	 eax, DWORD PTR [esi+8]
  00123	80 78 0d 00	 cmp	 BYTE PTR [eax+13], 0
  00127	74 1d		 je	 SHORT $LN60@AddSendAct

; 51   :             _Nodeptr _Pnode;
; 52   :             while (!(_Pnode = _Ptr->_Parent)->_Isnil && _Ptr == _Pnode->_Right) {

  00129	8b 46 04	 mov	 eax, DWORD PTR [esi+4]
  0012c	80 78 0d 00	 cmp	 BYTE PTR [eax+13], 0
  00130	75 10		 jne	 SHORT $LN59@AddSendAct
$LL58@AddSendAct:
  00132	3b 70 08	 cmp	 esi, DWORD PTR [eax+8]
  00135	75 0b		 jne	 SHORT $LN59@AddSendAct

; 53   :                 _Ptr = _Pnode; // ==> parent while right subtree

  00137	8b f0		 mov	 esi, eax
  00139	8b 40 04	 mov	 eax, DWORD PTR [eax+4]
  0013c	80 78 0d 00	 cmp	 BYTE PTR [eax+13], 0
  00140	74 f0		 je	 SHORT $LL58@AddSendAct
$LN59@AddSendAct:

; 54   :             }
; 55   : 
; 56   :             _Ptr = _Pnode; // ==> parent (head if end())

  00142	8b f0		 mov	 esi, eax

; 57   :         } else {

  00144	eb 16		 jmp	 SHORT $LN61@AddSendAct
$LN60@AddSendAct:

; 58   :             _Ptr = _Mytree::_Min(_Ptr->_Right); // ==> smallest of right subtree

  00146	8b f0		 mov	 esi, eax

; 476  :         while (!_Pnode->_Left->_Isnil) {

  00148	8b 0e		 mov	 ecx, DWORD PTR [esi]
  0014a	80 79 0d 00	 cmp	 BYTE PTR [ecx+13], 0
  0014e	75 0c		 jne	 SHORT $LN61@AddSendAct
$LL65@AddSendAct:
  00150	8b 01		 mov	 eax, DWORD PTR [ecx]

; 477  :             _Pnode = _Pnode->_Left;

  00152	8b f1		 mov	 esi, ecx
  00154	8b c8		 mov	 ecx, eax
  00156	80 78 0d 00	 cmp	 BYTE PTR [eax+13], 0
  0015a	74 f4		 je	 SHORT $LL65@AddSendAct
$LN61@AddSendAct:

; 237  :         return !(*this == _Right);

  0015c	3b f7		 cmp	 esi, edi
; File C:\IAGOS\server\v18\Source\Source\WorldServer\UserLux.cpp

; 292  : 	FOR_VISIBILITYRANGE( pMover )

  0015e	75 b1		 jne	 SHORT $LL2@AddSendAct
$LN3@AddSendAct:

; 294  : 	NEXT_VISIBILITYRANGE( pMover )
; 295  : }

  00160	8d 8d dc bf ff
	ff		 lea	 ecx, DWORD PTR _ar$[ebp]
  00166	e8 00 00 00 00	 call	 ??1CAr@@QAE@XZ		; CAr::~CAr
  0016b	8b 4d f4	 mov	 ecx, DWORD PTR __$EHRec$[ebp]
  0016e	64 89 0d 00 00
	00 00		 mov	 DWORD PTR fs:0, ecx
  00175	59		 pop	 ecx
  00176	5f		 pop	 edi
  00177	5e		 pop	 esi
  00178	5b		 pop	 ebx
  00179	8b 4d f0	 mov	 ecx, DWORD PTR __$ArrayPad$[ebp]
  0017c	33 cd		 xor	 ecx, ebp
  0017e	e8 00 00 00 00	 call	 @__security_check_cookie@4
  00183	8b e5		 mov	 esp, ebp
  00185	5d		 pop	 ebp
  00186	c2 14 00	 ret	 20			; 00000014H
_TEXT	ENDS
;	COMDAT text$x
text$x	SEGMENT
__unwindfunclet$?AddSendActMsg@CUserMng@@QAEXPAVCMover@@W4OBJMSG@@HHH@Z$0:
  00000	8d 8d dc bf ff
	ff		 lea	 ecx, DWORD PTR _ar$[ebp]
  00006	e9 00 00 00 00	 jmp	 ??1CAr@@QAE@XZ		; CAr::~CAr
  0000b	cc		 int	 3
  0000c	cc		 int	 3
  0000d	cc		 int	 3
  0000e	cc		 int	 3
  0000f	cc		 int	 3
__ehhandler$?AddSendActMsg@CUserMng@@QAEXPAVCMover@@W4OBJMSG@@HHH@Z:
  00010	90		 npad	 1
  00011	90		 npad	 1
  00012	8b 54 24 08	 mov	 edx, DWORD PTR [esp+8]
  00016	8d 42 0c	 lea	 eax, DWORD PTR [edx+12]
  00019	8b 8a cc bf ff
	ff		 mov	 ecx, DWORD PTR [edx-16436]
  0001f	33 c8		 xor	 ecx, eax
  00021	e8 00 00 00 00	 call	 @__security_check_cookie@4
  00026	8b 4a fc	 mov	 ecx, DWORD PTR [edx-4]
  00029	33 c8		 xor	 ecx, eax
  0002b	e8 00 00 00 00	 call	 @__security_check_cookie@4
  00030	b8 00 00 00 00	 mov	 eax, OFFSET __ehfuncinfo$?AddSendActMsg@CUserMng@@QAEXPAVCMover@@W4OBJMSG@@HHH@Z
  00035	e9 00 00 00 00	 jmp	 ___CxxFrameHandler3
text$x	ENDS
?AddSendActMsg@CUserMng@@QAEXPAVCMover@@W4OBJMSG@@HHH@Z ENDP ; CUserMng::AddSendActMsg
; Function compile flags: /Ogtp
; File C:\IAGOS\server\v18\Source\Source\WorldServer\UserLux.cpp
; File C:\Program Files\Microsoft Visual Studio\2022\Professional\VC\Tools\MSVC\14.44.35207\include\xtree
; File C:\IAGOS\server\v18\Source\Source\WorldServer\UserLux.cpp
; File C:\Program Files\Microsoft Visual Studio\2022\Professional\VC\Tools\MSVC\14.44.35207\include\xtree
; File C:\IAGOS\server\v18\Source\Source\WorldServer\UserLux.cpp
; File C:\Program Files\Microsoft Visual Studio\2022\Professional\VC\Tools\MSVC\14.44.35207\include\xtree
; File C:\IAGOS\server\v18\Source\Source\WorldServer\UserLux.cpp
;	COMDAT ?AddSetStun@CUserMng@@QAEXPAVCMover@@H@Z
_TEXT	SEGMENT
_nBufSize$ = -16432					; size = 4
$T2 = -16428						; size = 4
$T3 = -16424						; size = 2
_ar$ = -16420						; size = 16404
__$ArrayPad$ = -16					; size = 4
__$EHRec$ = -12						; size = 12
_pMover$ = 8						; size = 4
_nMaxTime$ = 12						; size = 4
?AddSetStun@CUserMng@@QAEXPAVCMover@@H@Z PROC		; CUserMng::AddSetStun, COMDAT
; _this$ = ecx

; 259  : {

  00000	55		 push	 ebp
  00001	8b ec		 mov	 ebp, esp
  00003	6a ff		 push	 -1
  00005	68 00 00 00 00	 push	 __ehhandler$?AddSetStun@CUserMng@@QAEXPAVCMover@@H@Z
  0000a	64 a1 00 00 00
	00		 mov	 eax, DWORD PTR fs:0
  00010	50		 push	 eax
  00011	b8 24 40 00 00	 mov	 eax, 16420		; 00004024H
  00016	e8 00 00 00 00	 call	 __chkstk
  0001b	a1 00 00 00 00	 mov	 eax, DWORD PTR ___security_cookie
  00020	33 c5		 xor	 eax, ebp
  00022	89 45 f0	 mov	 DWORD PTR __$ArrayPad$[ebp], eax
  00025	53		 push	 ebx
  00026	56		 push	 esi
  00027	57		 push	 edi
  00028	50		 push	 eax
  00029	8d 45 f4	 lea	 eax, DWORD PTR __$EHRec$[ebp]
  0002c	64 a3 00 00 00
	00		 mov	 DWORD PTR fs:0, eax
  00032	8b 75 08	 mov	 esi, DWORD PTR _pMover$[ebp]

; 260  : 	CAr ar;

  00035	8d 8d dc bf ff
	ff		 lea	 ecx, DWORD PTR _ar$[ebp]
  0003b	6a 00		 push	 0
  0003d	6a 00		 push	 0
  0003f	e8 00 00 00 00	 call	 ??0CAr@@QAE@PAXI@Z	; CAr::CAr
  00044	c7 45 fc 00 00
	00 00		 mov	 DWORD PTR __$EHRec$[ebp+8], 0

; 261  : 	ar << GETID( pMover ) << SNAPSHOTTYPE_SETSTUN;

  0004b	c7 85 d8 bf ff
	ff 59 00 00 00	 mov	 DWORD PTR $T3[ebp], 89	; 00000059H
  00055	85 f6		 test	 esi, esi
  00057	74 08		 je	 SHORT $LN5@AddSetStun
  00059	8b 86 bc 01 00
	00		 mov	 eax, DWORD PTR [esi+444]
  0005f	eb 03		 jmp	 SHORT $LN6@AddSetStun
$LN5@AddSetStun:
  00061	83 c8 ff	 or	 eax, -1
$LN6@AddSetStun:
  00064	89 85 d4 bf ff
	ff		 mov	 DWORD PTR $T2[ebp], eax
  0006a	8d 8d dc bf ff
	ff		 lea	 ecx, DWORD PTR _ar$[ebp]
  00070	8d 85 d8 bf ff
	ff		 lea	 eax, DWORD PTR $T3[ebp]
  00076	50		 push	 eax
  00077	8d 85 d4 bf ff
	ff		 lea	 eax, DWORD PTR $T2[ebp]
  0007d	50		 push	 eax
  0007e	e8 00 00 00 00	 call	 ??$?6K@CAr@@QAEAAV0@ABK@Z ; CAr::operator<<<unsigned long>
  00083	8b c8		 mov	 ecx, eax
  00085	e8 00 00 00 00	 call	 ??$?6G@CAr@@QAEAAV0@ABG@Z ; CAr::operator<<<unsigned short>

; 262  : 	ar << nMaxTime;

  0008a	8d 45 0c	 lea	 eax, DWORD PTR _nMaxTime$[ebp]
  0008d	50		 push	 eax
  0008e	8d 8d dc bf ff
	ff		 lea	 ecx, DWORD PTR _ar$[ebp]
  00094	e8 00 00 00 00	 call	 ??$?6H@CAr@@QAEAAV0@ABH@Z ; CAr::operator<<<int>

; 263  : 	GETBLOCK( ar, lpBuf, nBufSize );

  00099	8d 85 d0 bf ff
	ff		 lea	 eax, DWORD PTR _nBufSize$[ebp]
  0009f	50		 push	 eax
  000a0	8d 8d dc bf ff
	ff		 lea	 ecx, DWORD PTR _ar$[ebp]
  000a6	e8 00 00 00 00	 call	 ?GetBuffer@CAr@@QAEPAEPAH@Z ; CAr::GetBuffer
; File C:\Program Files\Microsoft Visual Studio\2022\Professional\VC\Tools\MSVC\14.44.35207\include\xtree

; 1142 :         return iterator(_Scary->_Myhead->_Left, _Scary);

  000ab	8b be 0c 02 00
	00		 mov	 edi, DWORD PTR [esi+524]
; File C:\IAGOS\server\v18\Source\Source\WorldServer\UserLux.cpp

; 263  : 	GETBLOCK( ar, lpBuf, nBufSize );

  000b1	8b d8		 mov	 ebx, eax
; File C:\Program Files\Microsoft Visual Studio\2022\Professional\VC\Tools\MSVC\14.44.35207\include\xtree

; 37   :     _Tree_unchecked_const_iterator(_Nodeptr _Pnode, const _Mytree* _Plist) noexcept : _Ptr(_Pnode) {

  000b3	8b 37		 mov	 esi, DWORD PTR [edi]

; 237  :         return !(*this == _Right);

  000b5	3b f7		 cmp	 esi, edi
; File C:\IAGOS\server\v18\Source\Source\WorldServer\UserLux.cpp

; 265  : 	FOR_VISIBILITYRANGE( pMover )

  000b7	74 57		 je	 SHORT $LN3@AddSetStun
  000b9	0f 1f 80 00 00
	00 00		 npad	 7
$LL2@AddSetStun:

; 266  : 		USERPTR->AddBlock( lpBuf, nBufSize );

  000c0	ff b5 d0 bf ff
	ff		 push	 DWORD PTR _nBufSize$[ebp]
  000c6	8b 4e 14	 mov	 ecx, DWORD PTR [esi+20]
  000c9	53		 push	 ebx
  000ca	e8 00 00 00 00	 call	 ?AddBlock@CUser@@QAEXPAEK@Z ; CUser::AddBlock
; File C:\Program Files\Microsoft Visual Studio\2022\Professional\VC\Tools\MSVC\14.44.35207\include\xtree

; 50   :         if (_Ptr->_Right->_Isnil) { // climb looking for right subtree

  000cf	8b 46 08	 mov	 eax, DWORD PTR [esi+8]
  000d2	80 78 0d 00	 cmp	 BYTE PTR [eax+13], 0
  000d6	74 1d		 je	 SHORT $LN56@AddSetStun

; 51   :             _Nodeptr _Pnode;
; 52   :             while (!(_Pnode = _Ptr->_Parent)->_Isnil && _Ptr == _Pnode->_Right) {

  000d8	8b 46 04	 mov	 eax, DWORD PTR [esi+4]
  000db	80 78 0d 00	 cmp	 BYTE PTR [eax+13], 0
  000df	75 10		 jne	 SHORT $LN55@AddSetStun
$LL54@AddSetStun:
  000e1	3b 70 08	 cmp	 esi, DWORD PTR [eax+8]
  000e4	75 0b		 jne	 SHORT $LN55@AddSetStun

; 53   :                 _Ptr = _Pnode; // ==> parent while right subtree

  000e6	8b f0		 mov	 esi, eax
  000e8	8b 40 04	 mov	 eax, DWORD PTR [eax+4]
  000eb	80 78 0d 00	 cmp	 BYTE PTR [eax+13], 0
  000ef	74 f0		 je	 SHORT $LL54@AddSetStun
$LN55@AddSetStun:

; 54   :             }
; 55   : 
; 56   :             _Ptr = _Pnode; // ==> parent (head if end())

  000f1	8b f0		 mov	 esi, eax

; 57   :         } else {

  000f3	eb 17		 jmp	 SHORT $LN57@AddSetStun
$LN56@AddSetStun:

; 58   :             _Ptr = _Mytree::_Min(_Ptr->_Right); // ==> smallest of right subtree

  000f5	8b f0		 mov	 esi, eax

; 476  :         while (!_Pnode->_Left->_Isnil) {

  000f7	8b 0e		 mov	 ecx, DWORD PTR [esi]
  000f9	80 79 0d 00	 cmp	 BYTE PTR [ecx+13], 0
  000fd	75 0d		 jne	 SHORT $LN57@AddSetStun
  000ff	90		 npad	 1
$LL61@AddSetStun:
  00100	8b 01		 mov	 eax, DWORD PTR [ecx]

; 477  :             _Pnode = _Pnode->_Left;

  00102	8b f1		 mov	 esi, ecx
  00104	8b c8		 mov	 ecx, eax
  00106	80 78 0d 00	 cmp	 BYTE PTR [eax+13], 0
  0010a	74 f4		 je	 SHORT $LL61@AddSetStun
$LN57@AddSetStun:

; 237  :         return !(*this == _Right);

  0010c	3b f7		 cmp	 esi, edi
; File C:\IAGOS\server\v18\Source\Source\WorldServer\UserLux.cpp

; 265  : 	FOR_VISIBILITYRANGE( pMover )

  0010e	75 b0		 jne	 SHORT $LL2@AddSetStun
$LN3@AddSetStun:

; 267  : 	NEXT_VISIBILITYRANGE( pMover )
; 268  : }

  00110	8d 8d dc bf ff
	ff		 lea	 ecx, DWORD PTR _ar$[ebp]
  00116	e8 00 00 00 00	 call	 ??1CAr@@QAE@XZ		; CAr::~CAr
  0011b	8b 4d f4	 mov	 ecx, DWORD PTR __$EHRec$[ebp]
  0011e	64 89 0d 00 00
	00 00		 mov	 DWORD PTR fs:0, ecx
  00125	59		 pop	 ecx
  00126	5f		 pop	 edi
  00127	5e		 pop	 esi
  00128	5b		 pop	 ebx
  00129	8b 4d f0	 mov	 ecx, DWORD PTR __$ArrayPad$[ebp]
  0012c	33 cd		 xor	 ecx, ebp
  0012e	e8 00 00 00 00	 call	 @__security_check_cookie@4
  00133	8b e5		 mov	 esp, ebp
  00135	5d		 pop	 ebp
  00136	c2 08 00	 ret	 8
_TEXT	ENDS
;	COMDAT text$x
text$x	SEGMENT
__unwindfunclet$?AddSetStun@CUserMng@@QAEXPAVCMover@@H@Z$0:
  00000	8d 8d dc bf ff
	ff		 lea	 ecx, DWORD PTR _ar$[ebp]
  00006	e9 00 00 00 00	 jmp	 ??1CAr@@QAE@XZ		; CAr::~CAr
  0000b	cc		 int	 3
  0000c	cc		 int	 3
  0000d	cc		 int	 3
  0000e	cc		 int	 3
  0000f	cc		 int	 3
__ehhandler$?AddSetStun@CUserMng@@QAEXPAVCMover@@H@Z:
  00010	90		 npad	 1
  00011	90		 npad	 1
  00012	8b 54 24 08	 mov	 edx, DWORD PTR [esp+8]
  00016	8d 42 0c	 lea	 eax, DWORD PTR [edx+12]
  00019	8b 8a cc bf ff
	ff		 mov	 ecx, DWORD PTR [edx-16436]
  0001f	33 c8		 xor	 ecx, eax
  00021	e8 00 00 00 00	 call	 @__security_check_cookie@4
  00026	8b 4a fc	 mov	 ecx, DWORD PTR [edx-4]
  00029	33 c8		 xor	 ecx, eax
  0002b	e8 00 00 00 00	 call	 @__security_check_cookie@4
  00030	b8 00 00 00 00	 mov	 eax, OFFSET __ehfuncinfo$?AddSetStun@CUserMng@@QAEXPAVCMover@@H@Z
  00035	e9 00 00 00 00	 jmp	 ___CxxFrameHandler3
text$x	ENDS
?AddSetStun@CUserMng@@QAEXPAVCMover@@H@Z ENDP		; CUserMng::AddSetStun
; Function compile flags: /Ogtp
; File C:\IAGOS\server\v18\Source\Source\WorldServer\UserLux.cpp
; File C:\Program Files\Microsoft Visual Studio\2022\Professional\VC\Tools\MSVC\14.44.35207\include\xtree
; File C:\IAGOS\server\v18\Source\Source\WorldServer\UserLux.cpp
; File C:\Program Files\Microsoft Visual Studio\2022\Professional\VC\Tools\MSVC\14.44.35207\include\xtree
; File C:\IAGOS\server\v18\Source\Source\WorldServer\UserLux.cpp
; File C:\Program Files\Microsoft Visual Studio\2022\Professional\VC\Tools\MSVC\14.44.35207\include\xtree
; File C:\IAGOS\server\v18\Source\Source\WorldServer\UserLux.cpp
;	COMDAT ?AddCreateSkillEffect@CUserMng@@QAEXPAVCMover@@KKK@Z
_TEXT	SEGMENT
_nBufSize$ = -16432					; size = 4
$T2 = -16428						; size = 4
$T3 = -16424						; size = 2
_ar$ = -16420						; size = 16404
__$ArrayPad$ = -16					; size = 4
__$EHRec$ = -12						; size = 12
_pAttacker$ = 8						; size = 4
_idTarget$ = 12						; size = 4
_dwSkill$ = 16						; size = 4
_dwLevel$ = 20						; size = 4
?AddCreateSkillEffect@CUserMng@@QAEXPAVCMover@@KKK@Z PROC ; CUserMng::AddCreateSkillEffect, COMDAT
; _this$ = ecx

; 246  : {

  00000	55		 push	 ebp
  00001	8b ec		 mov	 ebp, esp
  00003	6a ff		 push	 -1
  00005	68 00 00 00 00	 push	 __ehhandler$?AddCreateSkillEffect@CUserMng@@QAEXPAVCMover@@KKK@Z
  0000a	64 a1 00 00 00
	00		 mov	 eax, DWORD PTR fs:0
  00010	50		 push	 eax
  00011	b8 24 40 00 00	 mov	 eax, 16420		; 00004024H
  00016	e8 00 00 00 00	 call	 __chkstk
  0001b	a1 00 00 00 00	 mov	 eax, DWORD PTR ___security_cookie
  00020	33 c5		 xor	 eax, ebp
  00022	89 45 f0	 mov	 DWORD PTR __$ArrayPad$[ebp], eax
  00025	53		 push	 ebx
  00026	56		 push	 esi
  00027	57		 push	 edi
  00028	50		 push	 eax
  00029	8d 45 f4	 lea	 eax, DWORD PTR __$EHRec$[ebp]
  0002c	64 a3 00 00 00
	00		 mov	 DWORD PTR fs:0, eax
  00032	8b 75 08	 mov	 esi, DWORD PTR _pAttacker$[ebp]

; 247  : 	CAr ar;

  00035	8d 8d dc bf ff
	ff		 lea	 ecx, DWORD PTR _ar$[ebp]
  0003b	6a 00		 push	 0
  0003d	6a 00		 push	 0
  0003f	e8 00 00 00 00	 call	 ??0CAr@@QAE@PAXI@Z	; CAr::CAr
  00044	c7 45 fc 00 00
	00 00		 mov	 DWORD PTR __$EHRec$[ebp+8], 0

; 248  : 	ar << GETID( pAttacker ) << SNAPSHOTTYPE_ACTIVESKILL;

  0004b	c7 85 d8 bf ff
	ff 6e 00 00 00	 mov	 DWORD PTR $T3[ebp], 110	; 0000006eH
  00055	85 f6		 test	 esi, esi
  00057	74 08		 je	 SHORT $LN5@AddCreateS
  00059	8b 86 bc 01 00
	00		 mov	 eax, DWORD PTR [esi+444]
  0005f	eb 03		 jmp	 SHORT $LN6@AddCreateS
$LN5@AddCreateS:
  00061	83 c8 ff	 or	 eax, -1
$LN6@AddCreateS:
  00064	89 85 d4 bf ff
	ff		 mov	 DWORD PTR $T2[ebp], eax
  0006a	8d 8d dc bf ff
	ff		 lea	 ecx, DWORD PTR _ar$[ebp]
  00070	8d 85 d8 bf ff
	ff		 lea	 eax, DWORD PTR $T3[ebp]
  00076	50		 push	 eax
  00077	8d 85 d4 bf ff
	ff		 lea	 eax, DWORD PTR $T2[ebp]
  0007d	50		 push	 eax
  0007e	e8 00 00 00 00	 call	 ??$?6K@CAr@@QAEAAV0@ABK@Z ; CAr::operator<<<unsigned long>
  00083	8b c8		 mov	 ecx, eax
  00085	e8 00 00 00 00	 call	 ??$?6G@CAr@@QAEAAV0@ABG@Z ; CAr::operator<<<unsigned short>

; 249  : 	ar << idTarget << dwSkill << dwLevel;

  0008a	8d 45 14	 lea	 eax, DWORD PTR _dwLevel$[ebp]
  0008d	50		 push	 eax
  0008e	8d 45 10	 lea	 eax, DWORD PTR _dwSkill$[ebp]
  00091	50		 push	 eax
  00092	8d 45 0c	 lea	 eax, DWORD PTR _idTarget$[ebp]
  00095	50		 push	 eax
  00096	8d 8d dc bf ff
	ff		 lea	 ecx, DWORD PTR _ar$[ebp]
  0009c	e8 00 00 00 00	 call	 ??$?6K@CAr@@QAEAAV0@ABK@Z ; CAr::operator<<<unsigned long>
  000a1	8b c8		 mov	 ecx, eax
  000a3	e8 00 00 00 00	 call	 ??$?6K@CAr@@QAEAAV0@ABK@Z ; CAr::operator<<<unsigned long>
  000a8	8b c8		 mov	 ecx, eax
  000aa	e8 00 00 00 00	 call	 ??$?6K@CAr@@QAEAAV0@ABK@Z ; CAr::operator<<<unsigned long>

; 250  : 	GETBLOCK( ar, lpBuf, nBufSize );

  000af	8d 85 d0 bf ff
	ff		 lea	 eax, DWORD PTR _nBufSize$[ebp]
  000b5	50		 push	 eax
  000b6	8d 8d dc bf ff
	ff		 lea	 ecx, DWORD PTR _ar$[ebp]
  000bc	e8 00 00 00 00	 call	 ?GetBuffer@CAr@@QAEPAEPAH@Z ; CAr::GetBuffer
; File C:\Program Files\Microsoft Visual Studio\2022\Professional\VC\Tools\MSVC\14.44.35207\include\xtree

; 1142 :         return iterator(_Scary->_Myhead->_Left, _Scary);

  000c1	8b be 0c 02 00
	00		 mov	 edi, DWORD PTR [esi+524]
; File C:\IAGOS\server\v18\Source\Source\WorldServer\UserLux.cpp

; 250  : 	GETBLOCK( ar, lpBuf, nBufSize );

  000c7	8b d8		 mov	 ebx, eax
; File C:\Program Files\Microsoft Visual Studio\2022\Professional\VC\Tools\MSVC\14.44.35207\include\xtree

; 37   :     _Tree_unchecked_const_iterator(_Nodeptr _Pnode, const _Mytree* _Plist) noexcept : _Ptr(_Pnode) {

  000c9	8b 37		 mov	 esi, DWORD PTR [edi]

; 237  :         return !(*this == _Right);

  000cb	3b f7		 cmp	 esi, edi
; File C:\IAGOS\server\v18\Source\Source\WorldServer\UserLux.cpp

; 252  : 	FOR_VISIBILITYRANGE( pAttacker )

  000cd	74 51		 je	 SHORT $LN3@AddCreateS
  000cf	90		 npad	 1
$LL2@AddCreateS:

; 253  : 		USERPTR->AddBlock( lpBuf, nBufSize );

  000d0	ff b5 d0 bf ff
	ff		 push	 DWORD PTR _nBufSize$[ebp]
  000d6	8b 4e 14	 mov	 ecx, DWORD PTR [esi+20]
  000d9	53		 push	 ebx
  000da	e8 00 00 00 00	 call	 ?AddBlock@CUser@@QAEXPAEK@Z ; CUser::AddBlock
; File C:\Program Files\Microsoft Visual Studio\2022\Professional\VC\Tools\MSVC\14.44.35207\include\xtree

; 50   :         if (_Ptr->_Right->_Isnil) { // climb looking for right subtree

  000df	8b 46 08	 mov	 eax, DWORD PTR [esi+8]
  000e2	80 78 0d 00	 cmp	 BYTE PTR [eax+13], 0
  000e6	74 1d		 je	 SHORT $LN56@AddCreateS

; 51   :             _Nodeptr _Pnode;
; 52   :             while (!(_Pnode = _Ptr->_Parent)->_Isnil && _Ptr == _Pnode->_Right) {

  000e8	8b 46 04	 mov	 eax, DWORD PTR [esi+4]
  000eb	80 78 0d 00	 cmp	 BYTE PTR [eax+13], 0
  000ef	75 10		 jne	 SHORT $LN55@AddCreateS
$LL54@AddCreateS:
  000f1	3b 70 08	 cmp	 esi, DWORD PTR [eax+8]
  000f4	75 0b		 jne	 SHORT $LN55@AddCreateS

; 53   :                 _Ptr = _Pnode; // ==> parent while right subtree

  000f6	8b f0		 mov	 esi, eax
  000f8	8b 40 04	 mov	 eax, DWORD PTR [eax+4]
  000fb	80 78 0d 00	 cmp	 BYTE PTR [eax+13], 0
  000ff	74 f0		 je	 SHORT $LL54@AddCreateS
$LN55@AddCreateS:

; 54   :             }
; 55   : 
; 56   :             _Ptr = _Pnode; // ==> parent (head if end())

  00101	8b f0		 mov	 esi, eax

; 57   :         } else {

  00103	eb 17		 jmp	 SHORT $LN57@AddCreateS
$LN56@AddCreateS:

; 58   :             _Ptr = _Mytree::_Min(_Ptr->_Right); // ==> smallest of right subtree

  00105	8b f0		 mov	 esi, eax

; 476  :         while (!_Pnode->_Left->_Isnil) {

  00107	8b 0e		 mov	 ecx, DWORD PTR [esi]
  00109	80 79 0d 00	 cmp	 BYTE PTR [ecx+13], 0
  0010d	75 0d		 jne	 SHORT $LN57@AddCreateS
  0010f	90		 npad	 1
$LL61@AddCreateS:
  00110	8b 01		 mov	 eax, DWORD PTR [ecx]

; 477  :             _Pnode = _Pnode->_Left;

  00112	8b f1		 mov	 esi, ecx
  00114	8b c8		 mov	 ecx, eax
  00116	80 78 0d 00	 cmp	 BYTE PTR [eax+13], 0
  0011a	74 f4		 je	 SHORT $LL61@AddCreateS
$LN57@AddCreateS:

; 237  :         return !(*this == _Right);

  0011c	3b f7		 cmp	 esi, edi
; File C:\IAGOS\server\v18\Source\Source\WorldServer\UserLux.cpp

; 252  : 	FOR_VISIBILITYRANGE( pAttacker )

  0011e	75 b0		 jne	 SHORT $LL2@AddCreateS
$LN3@AddCreateS:

; 254  : 	NEXT_VISIBILITYRANGE( pAttacker )
; 255  : }

  00120	8d 8d dc bf ff
	ff		 lea	 ecx, DWORD PTR _ar$[ebp]
  00126	e8 00 00 00 00	 call	 ??1CAr@@QAE@XZ		; CAr::~CAr
  0012b	8b 4d f4	 mov	 ecx, DWORD PTR __$EHRec$[ebp]
  0012e	64 89 0d 00 00
	00 00		 mov	 DWORD PTR fs:0, ecx
  00135	59		 pop	 ecx
  00136	5f		 pop	 edi
  00137	5e		 pop	 esi
  00138	5b		 pop	 ebx
  00139	8b 4d f0	 mov	 ecx, DWORD PTR __$ArrayPad$[ebp]
  0013c	33 cd		 xor	 ecx, ebp
  0013e	e8 00 00 00 00	 call	 @__security_check_cookie@4
  00143	8b e5		 mov	 esp, ebp
  00145	5d		 pop	 ebp
  00146	c2 10 00	 ret	 16			; 00000010H
_TEXT	ENDS
;	COMDAT text$x
text$x	SEGMENT
__unwindfunclet$?AddCreateSkillEffect@CUserMng@@QAEXPAVCMover@@KKK@Z$0:
  00000	8d 8d dc bf ff
	ff		 lea	 ecx, DWORD PTR _ar$[ebp]
  00006	e9 00 00 00 00	 jmp	 ??1CAr@@QAE@XZ		; CAr::~CAr
  0000b	cc		 int	 3
  0000c	cc		 int	 3
  0000d	cc		 int	 3
  0000e	cc		 int	 3
  0000f	cc		 int	 3
__ehhandler$?AddCreateSkillEffect@CUserMng@@QAEXPAVCMover@@KKK@Z:
  00010	90		 npad	 1
  00011	90		 npad	 1
  00012	8b 54 24 08	 mov	 edx, DWORD PTR [esp+8]
  00016	8d 42 0c	 lea	 eax, DWORD PTR [edx+12]
  00019	8b 8a cc bf ff
	ff		 mov	 ecx, DWORD PTR [edx-16436]
  0001f	33 c8		 xor	 ecx, eax
  00021	e8 00 00 00 00	 call	 @__security_check_cookie@4
  00026	8b 4a fc	 mov	 ecx, DWORD PTR [edx-4]
  00029	33 c8		 xor	 ecx, eax
  0002b	e8 00 00 00 00	 call	 @__security_check_cookie@4
  00030	b8 00 00 00 00	 mov	 eax, OFFSET __ehfuncinfo$?AddCreateSkillEffect@CUserMng@@QAEXPAVCMover@@KKK@Z
  00035	e9 00 00 00 00	 jmp	 ___CxxFrameHandler3
text$x	ENDS
?AddCreateSkillEffect@CUserMng@@QAEXPAVCMover@@KKK@Z ENDP ; CUserMng::AddCreateSkillEffect
; Function compile flags: /Ogtp
; File C:\IAGOS\server\v18\Source\Source\WorldServer\UserLux.cpp
; File C:\Program Files\Microsoft Visual Studio\2022\Professional\VC\Tools\MSVC\14.44.35207\include\xtree
; File C:\IAGOS\server\v18\Source\Source\WorldServer\UserLux.cpp
; File C:\Program Files\Microsoft Visual Studio\2022\Professional\VC\Tools\MSVC\14.44.35207\include\xtree
; File C:\IAGOS\server\v18\Source\Source\WorldServer\UserLux.cpp
; File C:\Program Files\Microsoft Visual Studio\2022\Professional\VC\Tools\MSVC\14.44.35207\include\xtree
; File C:\IAGOS\server\v18\Source\Source\WorldServer\UserLux.cpp
;	COMDAT ?AddSetPosAngle@CUserMng@@QAEXPAVCCtrl@@ABUD3DXVECTOR3@@M@Z
_TEXT	SEGMENT
_nBufSize$ = -16432					; size = 4
$T2 = -16428						; size = 4
$T3 = -16424						; size = 2
_ar$ = -16420						; size = 16404
__$ArrayPad$ = -16					; size = 4
__$EHRec$ = -12						; size = 12
_pCtrl$ = 8						; size = 4
_vPos$ = 12						; size = 4
_fAngle$ = 16						; size = 4
?AddSetPosAngle@CUserMng@@QAEXPAVCCtrl@@ABUD3DXVECTOR3@@M@Z PROC ; CUserMng::AddSetPosAngle, COMDAT
; _this$ = ecx

; 334  : {

  00000	55		 push	 ebp
  00001	8b ec		 mov	 ebp, esp
  00003	6a ff		 push	 -1
  00005	68 00 00 00 00	 push	 __ehhandler$?AddSetPosAngle@CUserMng@@QAEXPAVCCtrl@@ABUD3DXVECTOR3@@M@Z
  0000a	64 a1 00 00 00
	00		 mov	 eax, DWORD PTR fs:0
  00010	50		 push	 eax
  00011	b8 24 40 00 00	 mov	 eax, 16420		; 00004024H
  00016	e8 00 00 00 00	 call	 __chkstk
  0001b	a1 00 00 00 00	 mov	 eax, DWORD PTR ___security_cookie
  00020	33 c5		 xor	 eax, ebp
  00022	89 45 f0	 mov	 DWORD PTR __$ArrayPad$[ebp], eax
  00025	53		 push	 ebx
  00026	56		 push	 esi
  00027	57		 push	 edi
  00028	50		 push	 eax
  00029	8d 45 f4	 lea	 eax, DWORD PTR __$EHRec$[ebp]
  0002c	64 a3 00 00 00
	00		 mov	 DWORD PTR fs:0, eax
  00032	8b 75 08	 mov	 esi, DWORD PTR _pCtrl$[ebp]

; 335  : 	CAr ar;

  00035	8d 8d dc bf ff
	ff		 lea	 ecx, DWORD PTR _ar$[ebp]
  0003b	8b 7d 0c	 mov	 edi, DWORD PTR _vPos$[ebp]
  0003e	6a 00		 push	 0
  00040	6a 00		 push	 0
  00042	e8 00 00 00 00	 call	 ??0CAr@@QAE@PAXI@Z	; CAr::CAr
  00047	c7 45 fc 00 00
	00 00		 mov	 DWORD PTR __$EHRec$[ebp+8], 0

; 336  : 	
; 337  : 	ar << GETID( pCtrl ) << SNAPSHOTTYPE_SETPOSANGLE;

  0004e	c7 85 d8 bf ff
	ff 0e 00 00 00	 mov	 DWORD PTR $T3[ebp], 14	; 0000000eH
  00058	85 f6		 test	 esi, esi
  0005a	74 08		 je	 SHORT $LN5@AddSetPosA
  0005c	8b 86 bc 01 00
	00		 mov	 eax, DWORD PTR [esi+444]
  00062	eb 03		 jmp	 SHORT $LN6@AddSetPosA
$LN5@AddSetPosA:
  00064	83 c8 ff	 or	 eax, -1
$LN6@AddSetPosA:
  00067	89 85 d4 bf ff
	ff		 mov	 DWORD PTR $T2[ebp], eax
  0006d	8d 8d dc bf ff
	ff		 lea	 ecx, DWORD PTR _ar$[ebp]
  00073	8d 85 d8 bf ff
	ff		 lea	 eax, DWORD PTR $T3[ebp]
  00079	50		 push	 eax
  0007a	8d 85 d4 bf ff
	ff		 lea	 eax, DWORD PTR $T2[ebp]
  00080	50		 push	 eax
  00081	e8 00 00 00 00	 call	 ??$?6K@CAr@@QAEAAV0@ABK@Z ; CAr::operator<<<unsigned long>
  00086	8b c8		 mov	 ecx, eax
  00088	e8 00 00 00 00	 call	 ??$?6G@CAr@@QAEAAV0@ABG@Z ; CAr::operator<<<unsigned short>

; 338  : 	ar << vPos << fAngle;

  0008d	8d 45 10	 lea	 eax, DWORD PTR _fAngle$[ebp]
  00090	50		 push	 eax
  00091	57		 push	 edi
  00092	8d 8d dc bf ff
	ff		 lea	 ecx, DWORD PTR _ar$[ebp]
  00098	e8 00 00 00 00	 call	 ??$?6UD3DXVECTOR3@@@CAr@@QAEAAV0@ABUD3DXVECTOR3@@@Z ; CAr::operator<<<D3DXVECTOR3>
  0009d	8b c8		 mov	 ecx, eax
  0009f	e8 00 00 00 00	 call	 ??$?6M@CAr@@QAEAAV0@ABM@Z ; CAr::operator<<<float>

; 340  : 	GETBLOCK( ar, lpBuf, nBufSize );

  000a4	8d 85 d0 bf ff
	ff		 lea	 eax, DWORD PTR _nBufSize$[ebp]
  000aa	50		 push	 eax
  000ab	8d 8d dc bf ff
	ff		 lea	 ecx, DWORD PTR _ar$[ebp]
  000b1	e8 00 00 00 00	 call	 ?GetBuffer@CAr@@QAEPAEPAH@Z ; CAr::GetBuffer
; File C:\Program Files\Microsoft Visual Studio\2022\Professional\VC\Tools\MSVC\14.44.35207\include\xtree

; 1142 :         return iterator(_Scary->_Myhead->_Left, _Scary);

  000b6	8b be 0c 02 00
	00		 mov	 edi, DWORD PTR [esi+524]
; File C:\IAGOS\server\v18\Source\Source\WorldServer\UserLux.cpp

; 340  : 	GETBLOCK( ar, lpBuf, nBufSize );

  000bc	8b d8		 mov	 ebx, eax
; File C:\Program Files\Microsoft Visual Studio\2022\Professional\VC\Tools\MSVC\14.44.35207\include\xtree

; 37   :     _Tree_unchecked_const_iterator(_Nodeptr _Pnode, const _Mytree* _Plist) noexcept : _Ptr(_Pnode) {

  000be	8b 37		 mov	 esi, DWORD PTR [edi]

; 237  :         return !(*this == _Right);

  000c0	3b f7		 cmp	 esi, edi
; File C:\IAGOS\server\v18\Source\Source\WorldServer\UserLux.cpp

; 342  : 	FOR_VISIBILITYRANGE( pCtrl )

  000c2	74 4f		 je	 SHORT $LN3@AddSetPosA
$LL2@AddSetPosA:

; 343  : 		USERPTR->AddBlock( lpBuf, nBufSize );

  000c4	ff b5 d0 bf ff
	ff		 push	 DWORD PTR _nBufSize$[ebp]
  000ca	8b 4e 14	 mov	 ecx, DWORD PTR [esi+20]
  000cd	53		 push	 ebx
  000ce	e8 00 00 00 00	 call	 ?AddBlock@CUser@@QAEXPAEK@Z ; CUser::AddBlock
; File C:\Program Files\Microsoft Visual Studio\2022\Professional\VC\Tools\MSVC\14.44.35207\include\xtree

; 50   :         if (_Ptr->_Right->_Isnil) { // climb looking for right subtree

  000d3	8b 46 08	 mov	 eax, DWORD PTR [esi+8]
  000d6	80 78 0d 00	 cmp	 BYTE PTR [eax+13], 0
  000da	74 1d		 je	 SHORT $LN56@AddSetPosA

; 51   :             _Nodeptr _Pnode;
; 52   :             while (!(_Pnode = _Ptr->_Parent)->_Isnil && _Ptr == _Pnode->_Right) {

  000dc	8b 46 04	 mov	 eax, DWORD PTR [esi+4]
  000df	80 78 0d 00	 cmp	 BYTE PTR [eax+13], 0
  000e3	75 10		 jne	 SHORT $LN55@AddSetPosA
$LL54@AddSetPosA:
  000e5	3b 70 08	 cmp	 esi, DWORD PTR [eax+8]
  000e8	75 0b		 jne	 SHORT $LN55@AddSetPosA

; 53   :                 _Ptr = _Pnode; // ==> parent while right subtree

  000ea	8b f0		 mov	 esi, eax
  000ec	8b 40 04	 mov	 eax, DWORD PTR [eax+4]
  000ef	80 78 0d 00	 cmp	 BYTE PTR [eax+13], 0
  000f3	74 f0		 je	 SHORT $LL54@AddSetPosA
$LN55@AddSetPosA:

; 54   :             }
; 55   : 
; 56   :             _Ptr = _Pnode; // ==> parent (head if end())

  000f5	8b f0		 mov	 esi, eax

; 57   :         } else {

  000f7	eb 16		 jmp	 SHORT $LN57@AddSetPosA
$LN56@AddSetPosA:

; 58   :             _Ptr = _Mytree::_Min(_Ptr->_Right); // ==> smallest of right subtree

  000f9	8b f0		 mov	 esi, eax

; 476  :         while (!_Pnode->_Left->_Isnil) {

  000fb	8b 0e		 mov	 ecx, DWORD PTR [esi]
  000fd	80 79 0d 00	 cmp	 BYTE PTR [ecx+13], 0
  00101	75 0c		 jne	 SHORT $LN57@AddSetPosA
$LL61@AddSetPosA:
  00103	8b 01		 mov	 eax, DWORD PTR [ecx]

; 477  :             _Pnode = _Pnode->_Left;

  00105	8b f1		 mov	 esi, ecx
  00107	8b c8		 mov	 ecx, eax
  00109	80 78 0d 00	 cmp	 BYTE PTR [eax+13], 0
  0010d	74 f4		 je	 SHORT $LL61@AddSetPosA
$LN57@AddSetPosA:

; 237  :         return !(*this == _Right);

  0010f	3b f7		 cmp	 esi, edi
; File C:\IAGOS\server\v18\Source\Source\WorldServer\UserLux.cpp

; 342  : 	FOR_VISIBILITYRANGE( pCtrl )

  00111	75 b1		 jne	 SHORT $LL2@AddSetPosA
$LN3@AddSetPosA:

; 344  : 	NEXT_VISIBILITYRANGE( pCtrl )
; 345  : }

  00113	8d 8d dc bf ff
	ff		 lea	 ecx, DWORD PTR _ar$[ebp]
  00119	e8 00 00 00 00	 call	 ??1CAr@@QAE@XZ		; CAr::~CAr
  0011e	8b 4d f4	 mov	 ecx, DWORD PTR __$EHRec$[ebp]
  00121	64 89 0d 00 00
	00 00		 mov	 DWORD PTR fs:0, ecx
  00128	59		 pop	 ecx
  00129	5f		 pop	 edi
  0012a	5e		 pop	 esi
  0012b	5b		 pop	 ebx
  0012c	8b 4d f0	 mov	 ecx, DWORD PTR __$ArrayPad$[ebp]
  0012f	33 cd		 xor	 ecx, ebp
  00131	e8 00 00 00 00	 call	 @__security_check_cookie@4
  00136	8b e5		 mov	 esp, ebp
  00138	5d		 pop	 ebp
  00139	c2 0c 00	 ret	 12			; 0000000cH
_TEXT	ENDS
;	COMDAT text$x
text$x	SEGMENT
__unwindfunclet$?AddSetPosAngle@CUserMng@@QAEXPAVCCtrl@@ABUD3DXVECTOR3@@M@Z$0:
  00000	8d 8d dc bf ff
	ff		 lea	 ecx, DWORD PTR _ar$[ebp]
  00006	e9 00 00 00 00	 jmp	 ??1CAr@@QAE@XZ		; CAr::~CAr
  0000b	cc		 int	 3
  0000c	cc		 int	 3
  0000d	cc		 int	 3
  0000e	cc		 int	 3
  0000f	cc		 int	 3
__ehhandler$?AddSetPosAngle@CUserMng@@QAEXPAVCCtrl@@ABUD3DXVECTOR3@@M@Z:
  00010	90		 npad	 1
  00011	90		 npad	 1
  00012	8b 54 24 08	 mov	 edx, DWORD PTR [esp+8]
  00016	8d 42 0c	 lea	 eax, DWORD PTR [edx+12]
  00019	8b 8a cc bf ff
	ff		 mov	 ecx, DWORD PTR [edx-16436]
  0001f	33 c8		 xor	 ecx, eax
  00021	e8 00 00 00 00	 call	 @__security_check_cookie@4
  00026	8b 4a fc	 mov	 ecx, DWORD PTR [edx-4]
  00029	33 c8		 xor	 ecx, eax
  0002b	e8 00 00 00 00	 call	 @__security_check_cookie@4
  00030	b8 00 00 00 00	 mov	 eax, OFFSET __ehfuncinfo$?AddSetPosAngle@CUserMng@@QAEXPAVCCtrl@@ABUD3DXVECTOR3@@M@Z
  00035	e9 00 00 00 00	 jmp	 ___CxxFrameHandler3
text$x	ENDS
?AddSetPosAngle@CUserMng@@QAEXPAVCCtrl@@ABUD3DXVECTOR3@@M@Z ENDP ; CUserMng::AddSetPosAngle
; Function compile flags: /Ogtp
; File C:\IAGOS\server\v18\Source\Source\WorldServer\UserLux.cpp
; File C:\IAGOS\server\v18\Source\Source\_Common\Obj.h
; File C:\IAGOS\server\v18\Source\Source\WorldServer\UserLux.cpp
;	COMDAT ?AddSetTarget@CUser@@QAEXK@Z
_TEXT	SEGMENT
$T1 = -4						; size = 4
$T2 = -4						; size = 2
_idTarget$ = 8						; size = 4
?AddSetTarget@CUser@@QAEXK@Z PROC			; CUser::AddSetTarget, COMDAT
; _this$ = ecx

; 217  : {

  00000	55		 push	 ebp
  00001	8b ec		 mov	 ebp, esp
  00003	51		 push	 ecx
; File C:\IAGOS\server\v18\Source\Source\_Common\Obj.h

; 180  : 	BOOL			IsDelete()	{ return (m_dwFlags & OBJ_FLAG_DELETE);  }

  00004	f6 41 04 01	 test	 BYTE PTR [ecx+4], 1
; File C:\IAGOS\server\v18\Source\Source\WorldServer\UserLux.cpp

; 218  : 	if( IsDelete() )	return;

  00008	75 3e		 jne	 SHORT $LN1@AddSetTarg

; 219  : 	
; 220  : 	m_Snapshot.cb++;

  0000a	66 ff 81 64 55
	00 00		 inc	 WORD PTR [ecx+21860]

; 221  : 	m_Snapshot.ar << NULL_ID;

  00011	8d 45 fc	 lea	 eax, DWORD PTR $T1[ebp]
  00014	56		 push	 esi
  00015	8d b1 50 15 00
	00		 lea	 esi, DWORD PTR [ecx+5456]
  0001b	c7 45 fc ff ff
	ff ff		 mov	 DWORD PTR $T1[ebp], -1
  00022	50		 push	 eax
  00023	8b ce		 mov	 ecx, esi
  00025	e8 00 00 00 00	 call	 ??$?6I@CAr@@QAEAAV0@ABI@Z ; CAr::operator<<<unsigned int>

; 222  : 	m_Snapshot.ar << SNAPSHOTTYPE_SETTARGET;

  0002a	8d 45 fc	 lea	 eax, DWORD PTR $T2[ebp]
  0002d	c7 45 fc ae 00
	00 00		 mov	 DWORD PTR $T2[ebp], 174	; 000000aeH
  00034	50		 push	 eax
  00035	8b ce		 mov	 ecx, esi
  00037	e8 00 00 00 00	 call	 ??$?6G@CAr@@QAEAAV0@ABG@Z ; CAr::operator<<<unsigned short>

; 223  : 	m_Snapshot.ar << idTarget;

  0003c	8d 45 08	 lea	 eax, DWORD PTR _idTarget$[ebp]
  0003f	8b ce		 mov	 ecx, esi
  00041	50		 push	 eax
  00042	e8 00 00 00 00	 call	 ??$?6K@CAr@@QAEAAV0@ABK@Z ; CAr::operator<<<unsigned long>
  00047	5e		 pop	 esi
$LN1@AddSetTarg:

; 224  : }

  00048	8b e5		 mov	 esp, ebp
  0004a	5d		 pop	 ebp
  0004b	c2 04 00	 ret	 4
?AddSetTarget@CUser@@QAEXK@Z ENDP			; CUser::AddSetTarget
_TEXT	ENDS
; Function compile flags: /Ogtp
; File C:\IAGOS\server\v18\Source\Source\WorldServer\UserLux.cpp
; File C:\IAGOS\server\v18\Source\Source\_Common\Obj.h
; File C:\IAGOS\server\v18\Source\Source\WorldServer\UserLux.cpp
;	COMDAT ?AddSetActionPoint@CUser@@QAEXH@Z
_TEXT	SEGMENT
$T1 = -4						; size = 4
$T2 = -4						; size = 2
_nAP$ = 8						; size = 4
?AddSetActionPoint@CUser@@QAEXH@Z PROC			; CUser::AddSetActionPoint, COMDAT
; _this$ = ecx

; 207  : {

  00000	55		 push	 ebp
  00001	8b ec		 mov	 ebp, esp
  00003	51		 push	 ecx
; File C:\IAGOS\server\v18\Source\Source\_Common\Obj.h

; 180  : 	BOOL			IsDelete()	{ return (m_dwFlags & OBJ_FLAG_DELETE);  }

  00004	f6 41 04 01	 test	 BYTE PTR [ecx+4], 1
; File C:\IAGOS\server\v18\Source\Source\WorldServer\UserLux.cpp

; 208  : 	if( IsDelete() )	return;

  00008	75 3e		 jne	 SHORT $LN1@AddSetActi

; 209  : 	
; 210  : 	m_Snapshot.cb++;

  0000a	66 ff 81 64 55
	00 00		 inc	 WORD PTR [ecx+21860]

; 211  : 	m_Snapshot.ar << NULL_ID;

  00011	8d 45 fc	 lea	 eax, DWORD PTR $T1[ebp]
  00014	56		 push	 esi
  00015	8d b1 50 15 00
	00		 lea	 esi, DWORD PTR [ecx+5456]
  0001b	c7 45 fc ff ff
	ff ff		 mov	 DWORD PTR $T1[ebp], -1
  00022	50		 push	 eax
  00023	8b ce		 mov	 ecx, esi
  00025	e8 00 00 00 00	 call	 ??$?6I@CAr@@QAEAAV0@ABI@Z ; CAr::operator<<<unsigned int>

; 212  : 	m_Snapshot.ar << SNAPSHOTTYPE_SETACTIONPOINT;

  0002a	8d 45 fc	 lea	 eax, DWORD PTR $T2[ebp]
  0002d	c7 45 fc c5 00
	00 00		 mov	 DWORD PTR $T2[ebp], 197	; 000000c5H
  00034	50		 push	 eax
  00035	8b ce		 mov	 ecx, esi
  00037	e8 00 00 00 00	 call	 ??$?6G@CAr@@QAEAAV0@ABG@Z ; CAr::operator<<<unsigned short>

; 213  : 	m_Snapshot.ar << nAP;

  0003c	8d 45 08	 lea	 eax, DWORD PTR _nAP$[ebp]
  0003f	8b ce		 mov	 ecx, esi
  00041	50		 push	 eax
  00042	e8 00 00 00 00	 call	 ??$?6H@CAr@@QAEAAV0@ABH@Z ; CAr::operator<<<int>
  00047	5e		 pop	 esi
$LN1@AddSetActi:

; 214  : }

  00048	8b e5		 mov	 esp, ebp
  0004a	5d		 pop	 ebp
  0004b	c2 04 00	 ret	 4
?AddSetActionPoint@CUser@@QAEXH@Z ENDP			; CUser::AddSetActionPoint
_TEXT	ENDS
; Function compile flags: /Ogtp
; File C:\IAGOS\server\v18\Source\Source\WorldServer\UserLux.cpp
; File C:\IAGOS\server\v18\Source\Source\_Common\Obj.h
; File C:\IAGOS\server\v18\Source\Source\WorldServer\UserLux.cpp
;	COMDAT ?AddEscape@CUser@@QAEXK@Z
_TEXT	SEGMENT
$T1 = -4						; size = 4
$T2 = -4						; size = 2
_tmMaxEscape$ = 8					; size = 4
?AddEscape@CUser@@QAEXK@Z PROC				; CUser::AddEscape, COMDAT
; _this$ = ecx

; 196  : {

  00000	55		 push	 ebp
  00001	8b ec		 mov	 ebp, esp
  00003	51		 push	 ecx
; File C:\IAGOS\server\v18\Source\Source\_Common\Obj.h

; 180  : 	BOOL			IsDelete()	{ return (m_dwFlags & OBJ_FLAG_DELETE);  }

  00004	f6 41 04 01	 test	 BYTE PTR [ecx+4], 1
; File C:\IAGOS\server\v18\Source\Source\WorldServer\UserLux.cpp

; 197  : 	if( IsDelete() )	return;

  00008	75 3e		 jne	 SHORT $LN1@AddEscape

; 198  : 	
; 199  : 	m_Snapshot.cb++;

  0000a	66 ff 81 64 55
	00 00		 inc	 WORD PTR [ecx+21860]

; 200  : 	m_Snapshot.ar << NULL_ID;

  00011	8d 45 fc	 lea	 eax, DWORD PTR $T1[ebp]
  00014	56		 push	 esi
  00015	8d b1 50 15 00
	00		 lea	 esi, DWORD PTR [ecx+5456]
  0001b	c7 45 fc ff ff
	ff ff		 mov	 DWORD PTR $T1[ebp], -1
  00022	50		 push	 eax
  00023	8b ce		 mov	 ecx, esi
  00025	e8 00 00 00 00	 call	 ??$?6I@CAr@@QAEAAV0@ABI@Z ; CAr::operator<<<unsigned int>

; 201  : 	m_Snapshot.ar << SNAPSHOTTYPE_DO_ESCAPE;

  0002a	8d 45 fc	 lea	 eax, DWORD PTR $T2[ebp]
  0002d	c7 45 fc 92 00
	00 00		 mov	 DWORD PTR $T2[ebp], 146	; 00000092H
  00034	50		 push	 eax
  00035	8b ce		 mov	 ecx, esi
  00037	e8 00 00 00 00	 call	 ??$?6G@CAr@@QAEAAV0@ABG@Z ; CAr::operator<<<unsigned short>

; 202  : 	m_Snapshot.ar << tmMaxEscape;

  0003c	8d 45 08	 lea	 eax, DWORD PTR _tmMaxEscape$[ebp]
  0003f	8b ce		 mov	 ecx, esi
  00041	50		 push	 eax
  00042	e8 00 00 00 00	 call	 ??$?6K@CAr@@QAEAAV0@ABK@Z ; CAr::operator<<<unsigned long>
  00047	5e		 pop	 esi
$LN1@AddEscape:

; 203  : }

  00048	8b e5		 mov	 esp, ebp
  0004a	5d		 pop	 ebp
  0004b	c2 04 00	 ret	 4
?AddEscape@CUser@@QAEXK@Z ENDP				; CUser::AddEscape
_TEXT	ENDS
; Function compile flags: /Ogtp
; File C:\IAGOS\server\v18\Source\Source\_Network\Misc\Include\ar.h
;	COMDAT ??$?6M@CAr@@QAEAAV0@ABM@Z
_TEXT	SEGMENT
_t$ = 8							; size = 4
??$?6M@CAr@@QAEAAV0@ABM@Z PROC				; CAr::operator<<<float>, COMDAT
; _this$ = ecx

; 255  : {

  00000	55		 push	 ebp
  00001	8b ec		 mov	 ebp, esp
  00003	56		 push	 esi

; 256  : 	CheckBuf(sizeof(T));

  00004	6a 04		 push	 4
  00006	8b f1		 mov	 esi, ecx
  00008	e8 00 00 00 00	 call	 ?CheckBuf@CAr@@QAEXI@Z	; CAr::CheckBuf

; 257  : 	*(UNALIGNED T*)m_lpBufCur = t;

  0000d	8b 56 08	 mov	 edx, DWORD PTR [esi+8]
  00010	8b 45 08	 mov	 eax, DWORD PTR _t$[ebp]
  00013	8b 00		 mov	 eax, DWORD PTR [eax]
  00015	89 02		 mov	 DWORD PTR [edx], eax

; 258  : 	m_lpBufCur += sizeof(T);
; 259  : 	return *this;

  00017	8b c6		 mov	 eax, esi
  00019	83 46 08 04	 add	 DWORD PTR [esi+8], 4
  0001d	5e		 pop	 esi

; 260  : }

  0001e	5d		 pop	 ebp
  0001f	c2 04 00	 ret	 4
??$?6M@CAr@@QAEAAV0@ABM@Z ENDP				; CAr::operator<<<float>
_TEXT	ENDS
; Function compile flags: /Ogtp
; File C:\IAGOS\server\v18\Source\Source\_Network\Misc\Include\ar.h
;	COMDAT ??$?6UD3DXVECTOR3@@@CAr@@QAEAAV0@ABUD3DXVECTOR3@@@Z
_TEXT	SEGMENT
_t$ = 8							; size = 4
??$?6UD3DXVECTOR3@@@CAr@@QAEAAV0@ABUD3DXVECTOR3@@@Z PROC ; CAr::operator<<<D3DXVECTOR3>, COMDAT
; _this$ = ecx

; 255  : {

  00000	55		 push	 ebp
  00001	8b ec		 mov	 ebp, esp
  00003	56		 push	 esi

; 256  : 	CheckBuf(sizeof(T));

  00004	6a 0c		 push	 12			; 0000000cH
  00006	8b f1		 mov	 esi, ecx
  00008	e8 00 00 00 00	 call	 ?CheckBuf@CAr@@QAEXI@Z	; CAr::CheckBuf

; 257  : 	*(UNALIGNED T*)m_lpBufCur = t;

  0000d	8b 56 08	 mov	 edx, DWORD PTR [esi+8]
  00010	8b 45 08	 mov	 eax, DWORD PTR _t$[ebp]
  00013	f3 0f 7e 00	 movq	 xmm0, QWORD PTR [eax]
  00017	66 0f d6 02	 movq	 QWORD PTR [edx], xmm0
  0001b	8b 40 08	 mov	 eax, DWORD PTR [eax+8]
  0001e	89 42 08	 mov	 DWORD PTR [edx+8], eax

; 258  : 	m_lpBufCur += sizeof(T);
; 259  : 	return *this;

  00021	8b c6		 mov	 eax, esi
  00023	83 46 08 0c	 add	 DWORD PTR [esi+8], 12	; 0000000cH
  00027	5e		 pop	 esi

; 260  : }

  00028	5d		 pop	 ebp
  00029	c2 04 00	 ret	 4
??$?6UD3DXVECTOR3@@@CAr@@QAEAAV0@ABUD3DXVECTOR3@@@Z ENDP ; CAr::operator<<<D3DXVECTOR3>
_TEXT	ENDS
; Function compile flags: /Ogtp
; File C:\IAGOS\server\v18\Source\Source\_Network\Misc\Include\ar.h
;	COMDAT ??$?6K@CAr@@QAEAAV0@ABK@Z
_TEXT	SEGMENT
_t$ = 8							; size = 4
??$?6K@CAr@@QAEAAV0@ABK@Z PROC				; CAr::operator<<<unsigned long>, COMDAT
; _this$ = ecx

; 255  : {

  00000	55		 push	 ebp
  00001	8b ec		 mov	 ebp, esp
  00003	56		 push	 esi

; 256  : 	CheckBuf(sizeof(T));

  00004	6a 04		 push	 4
  00006	8b f1		 mov	 esi, ecx
  00008	e8 00 00 00 00	 call	 ?CheckBuf@CAr@@QAEXI@Z	; CAr::CheckBuf

; 257  : 	*(UNALIGNED T*)m_lpBufCur = t;

  0000d	8b 56 08	 mov	 edx, DWORD PTR [esi+8]
  00010	8b 45 08	 mov	 eax, DWORD PTR _t$[ebp]
  00013	8b 00		 mov	 eax, DWORD PTR [eax]
  00015	89 02		 mov	 DWORD PTR [edx], eax

; 258  : 	m_lpBufCur += sizeof(T);
; 259  : 	return *this;

  00017	8b c6		 mov	 eax, esi
  00019	83 46 08 04	 add	 DWORD PTR [esi+8], 4
  0001d	5e		 pop	 esi

; 260  : }

  0001e	5d		 pop	 ebp
  0001f	c2 04 00	 ret	 4
??$?6K@CAr@@QAEAAV0@ABK@Z ENDP				; CAr::operator<<<unsigned long>
_TEXT	ENDS
; Function compile flags: /Ogtp
; File C:\IAGOS\server\v18\Source\Source\_Network\Misc\Include\ar.h
;	COMDAT ??$?6I@CAr@@QAEAAV0@ABI@Z
_TEXT	SEGMENT
_t$ = 8							; size = 4
??$?6I@CAr@@QAEAAV0@ABI@Z PROC				; CAr::operator<<<unsigned int>, COMDAT
; _this$ = ecx

; 255  : {

  00000	55		 push	 ebp
  00001	8b ec		 mov	 ebp, esp
  00003	56		 push	 esi

; 256  : 	CheckBuf(sizeof(T));

  00004	6a 04		 push	 4
  00006	8b f1		 mov	 esi, ecx
  00008	e8 00 00 00 00	 call	 ?CheckBuf@CAr@@QAEXI@Z	; CAr::CheckBuf

; 257  : 	*(UNALIGNED T*)m_lpBufCur = t;

  0000d	8b 56 08	 mov	 edx, DWORD PTR [esi+8]
  00010	8b 45 08	 mov	 eax, DWORD PTR _t$[ebp]
  00013	8b 00		 mov	 eax, DWORD PTR [eax]
  00015	89 02		 mov	 DWORD PTR [edx], eax

; 258  : 	m_lpBufCur += sizeof(T);
; 259  : 	return *this;

  00017	8b c6		 mov	 eax, esi
  00019	83 46 08 04	 add	 DWORD PTR [esi+8], 4
  0001d	5e		 pop	 esi

; 260  : }

  0001e	5d		 pop	 ebp
  0001f	c2 04 00	 ret	 4
??$?6I@CAr@@QAEAAV0@ABI@Z ENDP				; CAr::operator<<<unsigned int>
_TEXT	ENDS
; Function compile flags: /Ogtp
; File C:\IAGOS\server\v18\Source\Source\_Network\Misc\Include\ar.h
;	COMDAT ??$?6H@CAr@@QAEAAV0@ABH@Z
_TEXT	SEGMENT
_t$ = 8							; size = 4
??$?6H@CAr@@QAEAAV0@ABH@Z PROC				; CAr::operator<<<int>, COMDAT
; _this$ = ecx

; 255  : {

  00000	55		 push	 ebp
  00001	8b ec		 mov	 ebp, esp
  00003	56		 push	 esi

; 256  : 	CheckBuf(sizeof(T));

  00004	6a 04		 push	 4
  00006	8b f1		 mov	 esi, ecx
  00008	e8 00 00 00 00	 call	 ?CheckBuf@CAr@@QAEXI@Z	; CAr::CheckBuf

; 257  : 	*(UNALIGNED T*)m_lpBufCur = t;

  0000d	8b 56 08	 mov	 edx, DWORD PTR [esi+8]
  00010	8b 45 08	 mov	 eax, DWORD PTR _t$[ebp]
  00013	8b 00		 mov	 eax, DWORD PTR [eax]
  00015	89 02		 mov	 DWORD PTR [edx], eax

; 258  : 	m_lpBufCur += sizeof(T);
; 259  : 	return *this;

  00017	8b c6		 mov	 eax, esi
  00019	83 46 08 04	 add	 DWORD PTR [esi+8], 4
  0001d	5e		 pop	 esi

; 260  : }

  0001e	5d		 pop	 ebp
  0001f	c2 04 00	 ret	 4
??$?6H@CAr@@QAEAAV0@ABH@Z ENDP				; CAr::operator<<<int>
_TEXT	ENDS
; Function compile flags: /Ogtp
; File C:\IAGOS\server\v18\Source\Source\_Network\Misc\Include\ar.h
;	COMDAT ??$?6G@CAr@@QAEAAV0@ABG@Z
_TEXT	SEGMENT
_t$ = 8							; size = 4
??$?6G@CAr@@QAEAAV0@ABG@Z PROC				; CAr::operator<<<unsigned short>, COMDAT
; _this$ = ecx

; 255  : {

  00000	55		 push	 ebp
  00001	8b ec		 mov	 ebp, esp
  00003	56		 push	 esi

; 256  : 	CheckBuf(sizeof(T));

  00004	6a 02		 push	 2
  00006	8b f1		 mov	 esi, ecx
  00008	e8 00 00 00 00	 call	 ?CheckBuf@CAr@@QAEXI@Z	; CAr::CheckBuf

; 257  : 	*(UNALIGNED T*)m_lpBufCur = t;

  0000d	8b 45 08	 mov	 eax, DWORD PTR _t$[ebp]
  00010	8b 56 08	 mov	 edx, DWORD PTR [esi+8]
  00013	66 8b 00	 mov	 ax, WORD PTR [eax]
  00016	66 89 02	 mov	 WORD PTR [edx], ax

; 258  : 	m_lpBufCur += sizeof(T);
; 259  : 	return *this;

  00019	8b c6		 mov	 eax, esi
  0001b	83 46 08 02	 add	 DWORD PTR [esi+8], 2
  0001f	5e		 pop	 esi

; 260  : }

  00020	5d		 pop	 ebp
  00021	c2 04 00	 ret	 4
??$?6G@CAr@@QAEAAV0@ABG@Z ENDP				; CAr::operator<<<unsigned short>
_TEXT	ENDS
; Function compile flags: /Ogtp
; File C:\IAGOS\server\v18\Source\Source\WorldServer\UserLux.cpp
;	COMDAT ?__empty_global_delete@@YAXPAXI@Z
_TEXT	SEGMENT
___formal$ = 8						; size = 4
___formal$ = 12						; size = 4
?__empty_global_delete@@YAXPAXI@Z PROC			; __empty_global_delete, COMDAT

  00000	c2 00 00	 ret	 0
?__empty_global_delete@@YAXPAXI@Z ENDP			; __empty_global_delete
_TEXT	ENDS
; Function compile flags: /Ogtp
; File C:\IAGOS\server\v18\Source\Source\WorldServer\UserLux.cpp
;	COMDAT ?__empty_global_delete@@YAXPAX@Z
_TEXT	SEGMENT
___formal$ = 8						; size = 4
?__empty_global_delete@@YAXPAX@Z PROC			; __empty_global_delete, COMDAT

  00000	c2 00 00	 ret	 0
?__empty_global_delete@@YAXPAX@Z ENDP			; __empty_global_delete
_TEXT	ENDS
END
