; Listing generated by Microsoft (R) Optimizing Compiler Version 19.44.35225.0 

	TITLE	C:\IAGOS\server\v18\Source\Output\WorldServer\Release\vmlog.obj
	.686P
	.XMM
	include listing.inc
	.model	flat

INCLUDELIB LIBCMT
INCLUDELIB OLDNAMES

CONST	SEGMENT
?piecewise_construct@std@@3Upiecewise_construct_t@1@B	ORG $+1 ; std::piecewise_construct
CONST	ENDS
PUBLIC	?__empty_global_delete@@YAXPAX@Z		; __empty_global_delete
PUBLIC	?__empty_global_delete@@YAXPAXI@Z		; __empty_global_delete
PUBLIC	?Instance@CVMLog@@SAPAV1@XZ			; CVMLog::Instance
PUBLIC	?Log@CVMLog@@QAEXXZ				; CVMLog::Log
EXTRN	_atexit:PROC
EXTRN	__Init_thread_header:PROC
EXTRN	__Init_thread_footer:PROC
EXTRN	__Init_thread_epoch:DWORD
EXTRN	__tls_array:DWORD
EXTRN	__tls_index:DWORD
;	COMDAT ?sVMLog@?1??Instance@CVMLog@@SAPAV2@XZ@4V2@A
_BSS	SEGMENT
?sVMLog@?1??Instance@CVMLog@@SAPAV2@XZ@4V2@A DB 01H DUP (?) ; `CVMLog::Instance'::`2'::sVMLog
_BSS	ENDS
;	COMDAT ?$TSS0@?1??Instance@CVMLog@@SAPAV2@XZ@4HA
_BSS	SEGMENT
?$TSS0@?1??Instance@CVMLog@@SAPAV2@XZ@4HA DD 01H DUP (?) ; `CVMLog::Instance'::`2'::$TSS0
_BSS	ENDS
; Function compile flags: /Ogtp
;	COMDAT ??__FsVMLog@?1??Instance@CVMLog@@SAPAV1@XZ@YAXXZ
text$yd	SEGMENT
??__FsVMLog@?1??Instance@CVMLog@@SAPAV1@XZ@YAXXZ PROC	; `CVMLog::Instance'::`2'::`dynamic atexit destructor for 'sVMLog'', COMDAT
  00000	c2 00 00	 ret	 0
??__FsVMLog@?1??Instance@CVMLog@@SAPAV1@XZ@YAXXZ ENDP	; `CVMLog::Instance'::`2'::`dynamic atexit destructor for 'sVMLog''
text$yd	ENDS
; Function compile flags: /Ogtp
; File C:\IAGOS\server\v18\Source\Source\WorldServer\vmlog.cpp
;	COMDAT ?Log@CVMLog@@QAEXXZ
_TEXT	SEGMENT
?Log@CVMLog@@QAEXXZ PROC				; CVMLog::Log, COMDAT
; _this$ = ecx

; 27   : #ifndef __VM_0820
; 28   : 	SYSTEMTIME	time;
; 29   : 	GetLocalTime( &time );
; 30   : 	FILEOUT( "../vm.txt", "\n%d/%02d/%02d\t%02d:%02d:%02d\n", time.wYear, time.wMonth, time.wDay, time.wHour, time.wMinute, time.wSecond );
; 31   : 
; 32   : 	if( CBuffer::m_pHeapMng )
; 33   : 		CBuffer::m_pHeapMng->Log();
; 34   : 	if( CAr::m_pHeapMng )
; 35   : 		CAr::m_pHeapMng->Log();
; 36   : 	if( CAIBear::m_pPool )
; 37   : 		CAIBear::m_pPool->Log( "" );
; 38   : 	if( CAIBigMuscle::m_pPool )
; 39   : 		CAIBigMuscle::m_pPool->Log( "" );
; 40   : 	if( CAIClockWorks::m_pPool )
; 41   : 		CAIClockWorks::m_pPool->Log( "" );
; 42   : 	if( CAIGuard::m_pPool )
; 43   : 		CAIGuard::m_pPool->Log( "" );
; 44   : 	if( CAIKrrr::m_pPool )
; 45   : 		CAIKrrr::m_pPool->Log( "" );
; 46   : 	if( CAIMonster::m_pPool )
; 47   : 		CAIMonster::m_pPool->Log( "" );
; 48   : 	if( CAIPet::m_pPool )
; 49   : 		CAIPet::m_pPool->Log( "" );
; 50   : 	if( CChatting::m_pPool )
; 51   : 		CChatting::m_pPool->Log( "" );
; 52   : 	if( CGuildMember::sm_pPool )
; 53   : 		CGuildMember::sm_pPool->Log( "" );
; 54   : 	if( CGuild::sm_pPool )
; 55   : 		CGuild::sm_pPool->Log( "" );
; 56   : 	if( CParty::m_pPool )
; 57   : 		CParty::m_pPool->Log( "" );
; 58   : 	if( CBuffer2::m_pPool2 )
; 59   : 		CBuffer2::m_pPool2->Log( "" );
; 60   : 	if( CBuffer::m_pPool )
; 61   : 		CBuffer::m_pPool->Log( "" );
; 62   : 	if( CClientSock::m_pPool )
; 63   : 		CClientSock::m_pPool->Log( "" );
; 64   : 	if( CClientSockE::m_pPool )
; 65   : 		CClientSockE::m_pPool->Log( "" );
; 66   : 	if( CUser::m_pPool )
; 67   : 		CUser::m_pPool->Log( "" );
; 68   : 	if( CMover::m_pPool )
; 69   : 		CMover::m_pPool->Log( "" );
; 70   : 	if( CActionMover::m_pPool )
; 71   : 		CActionMover::m_pPool->Log( "" );
; 72   : 	if( CItem::m_pPool )
; 73   : 		CItem::m_pPool->Log( "" );
; 74   : #endif	// __VM_0820
; 75   : }

  00000	c2 00 00	 ret	 0
?Log@CVMLog@@QAEXXZ ENDP				; CVMLog::Log
_TEXT	ENDS
; Function compile flags: /Ogtp
; File C:\IAGOS\server\v18\Source\Source\WorldServer\vmlog.cpp
;	COMDAT ?Instance@CVMLog@@SAPAV1@XZ
_TEXT	SEGMENT
?Instance@CVMLog@@SAPAV1@XZ PROC			; CVMLog::Instance, COMDAT

; 21   : 	static CVMLog sVMLog;

  00000	64 a1 00 00 00
	00		 mov	 eax, DWORD PTR fs:__tls_array
  00006	8b 0d 00 00 00
	00		 mov	 ecx, DWORD PTR __tls_index
  0000c	8b 0c 88	 mov	 ecx, DWORD PTR [eax+ecx*4]
  0000f	a1 00 00 00 00	 mov	 eax, DWORD PTR ?$TSS0@?1??Instance@CVMLog@@SAPAV2@XZ@4HA
  00014	3b 81 00 00 00
	00		 cmp	 eax, DWORD PTR __Init_thread_epoch[ecx]
  0001a	7f 06		 jg	 SHORT $LN8@Instance
$LN5@Instance:

; 22   : 	return &sVMLog;
; 23   : }

  0001c	b8 00 00 00 00	 mov	 eax, OFFSET ?sVMLog@?1??Instance@CVMLog@@SAPAV2@XZ@4V2@A
  00021	c3		 ret	 0
$LN8@Instance:

; 21   : 	static CVMLog sVMLog;

  00022	68 00 00 00 00	 push	 OFFSET ?$TSS0@?1??Instance@CVMLog@@SAPAV2@XZ@4HA
  00027	e8 00 00 00 00	 call	 __Init_thread_header
  0002c	83 c4 04	 add	 esp, 4
  0002f	83 3d 00 00 00
	00 ff		 cmp	 DWORD PTR ?$TSS0@?1??Instance@CVMLog@@SAPAV2@XZ@4HA, -1
  00036	75 e4		 jne	 SHORT $LN5@Instance
  00038	68 00 00 00 00	 push	 OFFSET ??__FsVMLog@?1??Instance@CVMLog@@SAPAV1@XZ@YAXXZ ; `CVMLog::Instance'::`2'::`dynamic atexit destructor for 'sVMLog''
  0003d	e8 00 00 00 00	 call	 _atexit
  00042	68 00 00 00 00	 push	 OFFSET ?$TSS0@?1??Instance@CVMLog@@SAPAV2@XZ@4HA
  00047	e8 00 00 00 00	 call	 __Init_thread_footer
  0004c	83 c4 08	 add	 esp, 8
  0004f	eb cb		 jmp	 SHORT $LN5@Instance
?Instance@CVMLog@@SAPAV1@XZ ENDP			; CVMLog::Instance
_TEXT	ENDS
; Function compile flags: /Ogtp
; File C:\IAGOS\server\v18\Source\Source\WorldServer\vmlog.cpp
;	COMDAT ?__empty_global_delete@@YAXPAXI@Z
_TEXT	SEGMENT
___formal$ = 8						; size = 4
___formal$ = 12						; size = 4
?__empty_global_delete@@YAXPAXI@Z PROC			; __empty_global_delete, COMDAT

  00000	c2 00 00	 ret	 0
?__empty_global_delete@@YAXPAXI@Z ENDP			; __empty_global_delete
_TEXT	ENDS
; Function compile flags: /Ogtp
; File C:\IAGOS\server\v18\Source\Source\WorldServer\vmlog.cpp
;	COMDAT ?__empty_global_delete@@YAXPAX@Z
_TEXT	SEGMENT
___formal$ = 8						; size = 4
?__empty_global_delete@@YAXPAX@Z PROC			; __empty_global_delete, COMDAT

  00000	c2 00 00	 ret	 0
?__empty_global_delete@@YAXPAX@Z ENDP			; __empty_global_delete
_TEXT	ENDS
END
