; Listing generated by Microsoft (R) Optimizing Compiler Version 19.44.35225.0 

	TITLE	C:\IAGOS\server\v18\Source\Output\WorldServer\Release\vutil.obj
	.686P
	.XMM
	include listing.inc
	.model	flat

INCLUDELIB LIBCMT
INCLUDELIB OLDNAMES

PUBLIC	?g_szCrashClient@@3PADA				; g_szCrashClient
_BSS	SEGMENT
?g_szCrashClient@@3PADA DB 0400H DUP (?)		; g_szCrashClient
_BSS	ENDS
PUBLIC	?__empty_global_delete@@YAXPAX@Z		; __empty_global_delete
PUBLIC	?__empty_global_delete@@YAXPAXI@Z		; __empty_global_delete
PUBLIC	___local_stdio_printf_options
PUBLIC	_sprintf
PUBLIC	?AtlThrowImpl@ATL@@YGXJ@Z			; ATL::AtlThrowImpl
PUBLIC	?SetString@?$CSimpleStringT@D$0A@@ATL@@QAEXPBDH@Z ; ATL::CSimpleStringT<char,0>::SetString
PUBLIC	?ThrowMemoryException@?$CSimpleStringT@D$0A@@ATL@@KAXXZ ; ATL::CSimpleStringT<char,0>::ThrowMemoryException
PUBLIC	?Fork@?$CSimpleStringT@D$0A@@ATL@@AAEXH@Z	; ATL::CSimpleStringT<char,0>::Fork
PUBLIC	?PrepareWrite2@?$CSimpleStringT@D$0A@@ATL@@AAEXH@Z ; ATL::CSimpleStringT<char,0>::PrepareWrite2
PUBLIC	?Reallocate@?$CSimpleStringT@D$0A@@ATL@@AAEXH@Z	; ATL::CSimpleStringT<char,0>::Reallocate
PUBLIC	?CloneData@?$CSimpleStringT@D$0A@@ATL@@CAPAUCStringData@2@PAU32@@Z ; ATL::CSimpleStringT<char,0>::CloneData
PUBLIC	??1?$CStringT@DV?$StrTraitMFC@DV?$ChTraitsCRT@D@ATL@@@@@ATL@@QAE@XZ ; ATL::CStringT<char,StrTraitMFC<char,ATL::ChTraitsCRT<char> > >::~CStringT<char,StrTraitMFC<char,ATL::ChTraitsCRT<char> > >
PUBLIC	??4?$CStringT@DV?$StrTraitMFC@DV?$ChTraitsCRT@D@ATL@@@@@ATL@@QAEAAV01@ABV01@@Z ; ATL::CStringT<char,StrTraitMFC<char,ATL::ChTraitsCRT<char> > >::operator=
PUBLIC	?Left@?$CStringT@DV?$StrTraitMFC@DV?$ChTraitsCRT@D@ATL@@@@@ATL@@QBE?AV12@H@Z ; ATL::CStringT<char,StrTraitMFC<char,ATL::ChTraitsCRT<char> > >::Left
PUBLIC	??0D3DXVECTOR3@@QAE@XZ				; D3DXVECTOR3::D3DXVECTOR3
PUBLIC	??1CFileIO@@UAE@XZ				; CFileIO::~CFileIO
PUBLIC	?Flush@CFileIO@@UAEHXZ				; CFileIO::Flush
PUBLIC	?GetC@CFileIO@@UAEDXZ				; CFileIO::GetC
PUBLIC	?GetW@CFileIO@@UAEGXZ				; CFileIO::GetW
PUBLIC	?GetDW@CFileIO@@UAEKXZ				; CFileIO::GetDW
PUBLIC	?Tell@CFileIO@@UAEJXZ				; CFileIO::Tell
PUBLIC	?Seek@CFileIO@@UAEHJH@Z				; CFileIO::Seek
PUBLIC	?GetLength@CFileIO@@UAEJXZ			; CFileIO::GetLength
PUBLIC	?Read@CFileIO@@UAEIPAXII@Z			; CFileIO::Read
PUBLIC	??_GCFileIO@@UAEPAXI@Z				; CFileIO::`scalar deleting destructor'
PUBLIC	?SetStrNull@@YAXPADH@Z				; SetStrNull
PUBLIC	?SetStrNull@@YAXAAV?$CStringT@DV?$StrTraitMFC@DV?$ChTraitsCRT@D@ATL@@@@@ATL@@H@Z ; SetStrNull
PUBLIC	?GetCharLen@@YAHPBD@Z				; GetCharLen
PUBLIC	?CopyChar@@YAHPBDPAD@Z				; CopyChar
PUBLIC	?IsMultiByte@@YAHPBD@Z				; IsMultiByte
PUBLIC	?IsHangul@@YAHG@Z				; IsHangul
PUBLIC	?IsNative@@YAHPBD@Z				; IsNative
PUBLIC	?GetStrCut@@YAHPBDPADH@Z			; GetStrCut
PUBLIC	?GetStrLen@@YAHPBD@Z				; GetStrLen
PUBLIC	?LoadTextureFromRes@@YAJPAUIDirect3DDevice9@@PBDPAPAUIDirect3DTexture9@@KW4_D3DFORMAT@@@Z ; LoadTextureFromRes
PUBLIC	?LoadTextureFromRes@@YAJPAUIDirect3DDevice9@@PBDIIIKW4_D3DFORMAT@@W4_D3DPOOL@@KKKPAU_D3DXIMAGE_INFO@@PAUtagPALETTEENTRY@@PAPAUIDirect3DTexture9@@@Z ; LoadTextureFromRes
PUBLIC	?PaintTexture@@YAXPAXPAUIMAGE@@VCPoint@@VCSize@@W4_D3DFORMAT@@@Z ; PaintTexture
PUBLIC	?AdjustSize@@YAXPAUtagSIZE@@@Z			; AdjustSize
PUBLIC	?LoadImageA@@YAHPBDPAUIMAGE@@@Z			; LoadImageA
PUBLIC	?LoadBMP@@YAHPBDPAUIMAGE@@@Z			; LoadBMP
PUBLIC	?LoadTGA@@YAHPBDPAUIMAGE@@@Z			; LoadTGA
PUBLIC	?SaveBMP@@YAHPBDPAEUtagSIZE@@@Z			; SaveBMP
PUBLIC	?GetPickRay@@YAXVCRect@@UtagPOINT@@PAUD3DXMATRIX@@2PAUD3DXVECTOR3@@3@Z ; GetPickRay
PUBLIC	?GetRayEnd@@YAXPAUD3DXVECTOR3@@00@Z		; GetRayEnd
PUBLIC	?IntersectTriangle@@YAHAAUD3DXVECTOR3@@00ABU1@1PAU1@PAM@Z ; IntersectTriangle
PUBLIC	?_OptionsStorage@?1??__local_stdio_printf_options@@9@4_KA ; `__local_stdio_printf_options'::`2'::_OptionsStorage
PUBLIC	??_7CFileIO@@6B@				; CFileIO::`vftable'
PUBLIC	??_R4CFileIO@@6B@				; CFileIO::`RTTI Complete Object Locator'
PUBLIC	??_R0?AVCFileIO@@@8				; CFileIO `RTTI Type Descriptor'
PUBLIC	??_R3CFileIO@@8					; CFileIO::`RTTI Class Hierarchy Descriptor'
PUBLIC	??_R2CFileIO@@8					; CFileIO::`RTTI Base Class Array'
PUBLIC	??_R1A@?0A@EA@CFileIO@@8			; CFileIO::`RTTI Base Class Descriptor at (0,-1,0,64)'
PUBLIC	??_C@_02JDPG@rb@				; `string'
PUBLIC	??_C@_0CE@NBIPLAAF@?3?3LoadTextureFromRes?5?3?5?$CFs?5not?5f@ ; `string'
PUBLIC	??_C@_0CK@EOOHBDEA@D3DXCreateTextureFromFileInMemo@ ; `string'
PUBLIC	??_C@_0BD@EAALEJKH@?6PaintTexture?5?9?5IN@	; `string'
PUBLIC	??_C@_0DG@EONEHPLE@?6Surface?5?$CFd?5?$CFd?0?5Pt?5?$CFd?5?$CFd?5IMG_BI@ ; `string'
PUBLIC	??_C@_0GC@NMPFDOHB@D3DFMT_A4R4G4B4?5ERROR?5IMGBIT_24@ ; `string'
PUBLIC	??_C@_0CB@FIMJOGAK@?5D3DFMT_A4R4G4B4?5ERROR?5IMGBIT_3@ ; `string'
PUBLIC	??_C@_0CB@JOHHHILL@?5D3DFMT_A8R8G8B8?5ERROR?5IMGBIT_2@ ; `string'
PUBLIC	??_C@_0BE@KDDNLGBP@?6PaintTexture?5?9?5OUT@	; `string'
PUBLIC	??_C@_04JCAPCJAP@?4tga@				; `string'
PUBLIC	??_C@_04LJDDIHIK@?4bmp@				; `string'
PUBLIC	??_C@_0BE@MHDFBJEH@LoadBMP?5Failed?5?$DN?5?$CFs@ ; `string'
PUBLIC	__real@3f800000
PUBLIC	__xmm@80000000800000008000000080000000
EXTRN	??3@YAXPAXI@Z:PROC				; operator delete
EXTRN	??_U@YAPAXI@Z:PROC				; operator new[]
EXTRN	??_V@YAXPAX@Z:PROC				; operator delete[]
EXTRN	___std_terminate:PROC
EXTRN	__invalid_parameter_noinfo:PROC
EXTRN	__errno:PROC
EXTRN	_strstr:PROC
EXTRN	_strlwr:PROC
EXTRN	__imp__CharNextA@4:PROC
EXTRN	__imp__IsDBCSLeadByte@4:PROC
EXTRN	_getwc:PROC
EXTRN	_fflush:PROC
EXTRN	_fread:PROC
EXTRN	_fseek:PROC
EXTRN	_ftell:PROC
EXTRN	_getc:PROC
EXTRN	___stdio_common_vsprintf:PROC
EXTRN	_fileno:PROC
EXTRN	?AfxThrowMemoryException@@YGXXZ:PROC		; AfxThrowMemoryException
EXTRN	?AfxThrowOleException@@YGXJ@Z:PROC		; AfxThrowOleException
EXTRN	?AfxGetStringManager@@YGPAUIAtlStringMgr@ATL@@XZ:PROC ; AfxGetStringManager
EXTRN	??0CFile@@QAE@XZ:PROC				; CFile::CFile
EXTRN	?Open@CFile@@UAEHPBDIPAVCFileException@@@Z:PROC	; CFile::Open
EXTRN	?Write@CFile@@UAEXPBXI@Z:PROC			; CFile::Write
EXTRN	??1CFile@@UAE@XZ:PROC				; CFile::~CFile
EXTRN	?AfxMessageBox@@YGHPBDII@Z:PROC			; AfxMessageBox
EXTRN	_DXGetErrorString9A@4:PROC
EXTRN	_D3DXMatrixInverse@12:PROC
EXTRN	_D3DXIntersectTri@32:PROC
EXTRN	_D3DXCreateTextureFromFileInMemoryEx@60:PROC
EXTRN	__filelength:PROC
EXTRN	?Open@CFileIO@@UAEHPBDPAD@Z:PROC		; CFileIO::Open
EXTRN	?Close@CFileIO@@UAEHXZ:PROC			; CFileIO::Close
EXTRN	?Read@CFileIO@@UAEPAXXZ:PROC			; CFileIO::Read
EXTRN	??_ECFileIO@@UAEPAXI@Z:PROC			; CFileIO::`vector deleting destructor'
EXTRN	?CharNextEx@@YAPBDPBDG@Z:PROC			; CharNextEx
EXTRN	?Error@@YAPBDPBDZZ:PROC				; Error
EXTRN	@__security_check_cookie@4:PROC
EXTRN	___CxxFrameHandler3:PROC
EXTRN	_memcpy:PROC
EXTRN	_memmove:PROC
EXTRN	_memset:PROC
EXTRN	??_7type_info@@6B@:QWORD			; type_info::`vftable'
EXTRN	?g_codePage@@3GA:WORD				; g_codePage
EXTRN	___security_cookie:DWORD
EXTRN	__fltused:DWORD
;	COMDAT ?_OptionsStorage@?1??__local_stdio_printf_options@@9@4_KA
_BSS	SEGMENT
?_OptionsStorage@?1??__local_stdio_printf_options@@9@4_KA DQ 01H DUP (?) ; `__local_stdio_printf_options'::`2'::_OptionsStorage
_BSS	ENDS
;	COMDAT ?szstrError@?1??PaintTexture@@YAXPAXPAUIMAGE@@VCPoint@@VCSize@@W4_D3DFORMAT@@@Z@4PADA
_BSS	SEGMENT
?szstrError@?1??PaintTexture@@YAXPAXPAUIMAGE@@VCPoint@@VCSize@@W4_D3DFORMAT@@@Z@4PADA DB 080H DUP (?) ; `PaintTexture'::`2'::szstrError
_BSS	ENDS
;	COMDAT __xmm@80000000800000008000000080000000
CONST	SEGMENT
__xmm@80000000800000008000000080000000 DB 00H, 00H, 00H, 080H, 00H, 00H, 00H
	DB	080H, 00H, 00H, 00H, 080H, 00H, 00H, 00H, 080H
CONST	ENDS
;	COMDAT __real@3f800000
CONST	SEGMENT
__real@3f800000 DD 03f800000r			; 1
CONST	ENDS
;	COMDAT ??_C@_0BE@MHDFBJEH@LoadBMP?5Failed?5?$DN?5?$CFs@
CONST	SEGMENT
??_C@_0BE@MHDFBJEH@LoadBMP?5Failed?5?$DN?5?$CFs@ DB 'LoadBMP Failed = %s', 00H ; `string'
CONST	ENDS
;	COMDAT ??_C@_04LJDDIHIK@?4bmp@
CONST	SEGMENT
??_C@_04LJDDIHIK@?4bmp@ DB '.bmp', 00H			; `string'
CONST	ENDS
;	COMDAT ??_C@_04JCAPCJAP@?4tga@
CONST	SEGMENT
??_C@_04JCAPCJAP@?4tga@ DB '.tga', 00H			; `string'
CONST	ENDS
;	COMDAT ??_C@_0BE@KDDNLGBP@?6PaintTexture?5?9?5OUT@
CONST	SEGMENT
??_C@_0BE@KDDNLGBP@?6PaintTexture?5?9?5OUT@ DB 0aH, 'PaintTexture - OUT', 00H ; `string'
CONST	ENDS
;	COMDAT ??_C@_0CB@JOHHHILL@?5D3DFMT_A8R8G8B8?5ERROR?5IMGBIT_2@
CONST	SEGMENT
??_C@_0CB@JOHHHILL@?5D3DFMT_A8R8G8B8?5ERROR?5IMGBIT_2@ DB ' D3DFMT_A8R8G8'
	DB	'B8 ERROR IMGBIT_24', 00H			; `string'
CONST	ENDS
;	COMDAT ??_C@_0CB@FIMJOGAK@?5D3DFMT_A4R4G4B4?5ERROR?5IMGBIT_3@
CONST	SEGMENT
??_C@_0CB@FIMJOGAK@?5D3DFMT_A4R4G4B4?5ERROR?5IMGBIT_3@ DB ' D3DFMT_A4R4G4'
	DB	'B4 ERROR IMGBIT_32', 00H			; `string'
CONST	ENDS
;	COMDAT ??_C@_0GC@NMPFDOHB@D3DFMT_A4R4G4B4?5ERROR?5IMGBIT_24@
CONST	SEGMENT
??_C@_0GC@NMPFDOHB@D3DFMT_A4R4G4B4?5ERROR?5IMGBIT_24@ DB 'D3DFMT_A4R4G4B4'
	DB	' ERROR IMGBIT_24', 0aH, ' Current = %d   Tex X = %d, Y = %d  '
	DB	'[%d,%d]', 0aH, ' LINE = %d', 0aH, ' Size = %d', 00H ; `string'
CONST	ENDS
;	COMDAT ??_C@_0DG@EONEHPLE@?6Surface?5?$CFd?5?$CFd?0?5Pt?5?$CFd?5?$CFd?5IMG_BI@
CONST	SEGMENT
??_C@_0DG@EONEHPLE@?6Surface?5?$CFd?5?$CFd?0?5Pt?5?$CFd?5?$CFd?5IMG_BI@ DB 0aH
	DB	'Surface %d %d, Pt %d %d IMG_BIT = %d, D3DFORMAT = %d', 00H ; `string'
CONST	ENDS
;	COMDAT ??_C@_0BD@EAALEJKH@?6PaintTexture?5?9?5IN@
CONST	SEGMENT
??_C@_0BD@EAALEJKH@?6PaintTexture?5?9?5IN@ DB 0aH, 'PaintTexture - IN', 00H ; `string'
CONST	ENDS
;	COMDAT ??_C@_0CK@EOOHBDEA@D3DXCreateTextureFromFileInMemo@
CONST	SEGMENT
??_C@_0CK@EOOHBDEA@D3DXCreateTextureFromFileInMemo@ DB 'D3DXCreateTexture'
	DB	'FromFileInMemoryEx %s %s', 00H		; `string'
CONST	ENDS
;	COMDAT ??_C@_0CE@NBIPLAAF@?3?3LoadTextureFromRes?5?3?5?$CFs?5not?5f@
CONST	SEGMENT
??_C@_0CE@NBIPLAAF@?3?3LoadTextureFromRes?5?3?5?$CFs?5not?5f@ DB '::LoadT'
	DB	'extureFromRes : %s not found', 00H		; `string'
CONST	ENDS
;	COMDAT ??_C@_02JDPG@rb@
CONST	SEGMENT
??_C@_02JDPG@rb@ DB 'rb', 00H				; `string'
CONST	ENDS
;	COMDAT ??_R1A@?0A@EA@CFileIO@@8
rdata$r	SEGMENT
??_R1A@?0A@EA@CFileIO@@8 DD FLAT:??_R0?AVCFileIO@@@8	; CFileIO::`RTTI Base Class Descriptor at (0,-1,0,64)'
	DD	00H
	DD	00H
	DD	0ffffffffH
	DD	00H
	DD	040H
	DD	FLAT:??_R3CFileIO@@8
rdata$r	ENDS
;	COMDAT ??_R2CFileIO@@8
rdata$r	SEGMENT
??_R2CFileIO@@8 DD FLAT:??_R1A@?0A@EA@CFileIO@@8	; CFileIO::`RTTI Base Class Array'
rdata$r	ENDS
;	COMDAT ??_R3CFileIO@@8
rdata$r	SEGMENT
??_R3CFileIO@@8 DD 00H					; CFileIO::`RTTI Class Hierarchy Descriptor'
	DD	00H
	DD	01H
	DD	FLAT:??_R2CFileIO@@8
rdata$r	ENDS
;	COMDAT ??_R0?AVCFileIO@@@8
data$rs	SEGMENT
??_R0?AVCFileIO@@@8 DD FLAT:??_7type_info@@6B@		; CFileIO `RTTI Type Descriptor'
	DD	00H
	DB	'.?AVCFileIO@@', 00H
data$rs	ENDS
;	COMDAT ??_R4CFileIO@@6B@
rdata$r	SEGMENT
??_R4CFileIO@@6B@ DD 00H				; CFileIO::`RTTI Complete Object Locator'
	DD	00H
	DD	00H
	DD	FLAT:??_R0?AVCFileIO@@@8
	DD	FLAT:??_R3CFileIO@@8
rdata$r	ENDS
;	COMDAT ??_7CFileIO@@6B@
CONST	SEGMENT
??_7CFileIO@@6B@ DD FLAT:??_R4CFileIO@@6B@		; CFileIO::`vftable'
	DD	FLAT:??_ECFileIO@@UAEPAXI@Z
	DD	FLAT:?Open@CFileIO@@UAEHPBDPAD@Z
	DD	FLAT:?Close@CFileIO@@UAEHXZ
	DD	FLAT:?Flush@CFileIO@@UAEHXZ
	DD	FLAT:?GetC@CFileIO@@UAEDXZ
	DD	FLAT:?GetW@CFileIO@@UAEGXZ
	DD	FLAT:?GetDW@CFileIO@@UAEKXZ
	DD	FLAT:?Tell@CFileIO@@UAEJXZ
	DD	FLAT:?Seek@CFileIO@@UAEHJH@Z
	DD	FLAT:?GetLength@CFileIO@@UAEJXZ
	DD	FLAT:?Read@CFileIO@@UAEPAXXZ
	DD	FLAT:?Read@CFileIO@@UAEIPAXII@Z
CONST	ENDS
;	COMDAT xdata$x
xdata$x	SEGMENT
__unwindtable$?SaveBMP@@YAHPBDPAEUtagSIZE@@@Z DD 0ffffffffH
	DD	FLAT:__unwindfunclet$?SaveBMP@@YAHPBDPAEUtagSIZE@@@Z$0
__ehfuncinfo$?SaveBMP@@YAHPBDPAEUtagSIZE@@@Z DD 019930522H
	DD	01H
	DD	FLAT:__unwindtable$?SaveBMP@@YAHPBDPAEUtagSIZE@@@Z
	DD	2 DUP(00H)
	DD	2 DUP(00H)
	DD	00H
	DD	01H
xdata$x	ENDS
;	COMDAT xdata$x
xdata$x	SEGMENT
__ehfuncinfo$?LoadBMP@@YAHPBDPAUIMAGE@@@Z DD 019930522H
	DD	05H
	DD	FLAT:__unwindtable$?LoadBMP@@YAHPBDPAUIMAGE@@@Z
	DD	2 DUP(00H)
	DD	2 DUP(00H)
	DD	00H
	DD	01H
__unwindtable$?LoadBMP@@YAHPBDPAUIMAGE@@@Z DD 0ffffffffH
	DD	FLAT:__unwindfunclet$?LoadBMP@@YAHPBDPAUIMAGE@@@Z$0
	DD	0ffffffffH
	DD	00H
	DD	0ffffffffH
	DD	00H
	DD	0ffffffffH
	DD	00H
	DD	0ffffffffH
	DD	FLAT:___std_terminate
xdata$x	ENDS
;	COMDAT xdata$x
xdata$x	SEGMENT
__unwindtable$?LoadTextureFromRes@@YAJPAUIDirect3DDevice9@@PBDIIIKW4_D3DFORMAT@@W4_D3DPOOL@@KKKPAU_D3DXIMAGE_INFO@@PAUtagPALETTEENTRY@@PAPAUIDirect3DTexture9@@@Z DD 0ffffffffH
	DD	FLAT:__unwindfunclet$?LoadTextureFromRes@@YAJPAUIDirect3DDevice9@@PBDIIIKW4_D3DFORMAT@@W4_D3DPOOL@@KKKPAU_D3DXIMAGE_INFO@@PAUtagPALETTEENTRY@@PAPAUIDirect3DTexture9@@@Z$0
	DD	0ffffffffH
	DD	00H
	DD	0ffffffffH
	DD	FLAT:___std_terminate
__ehfuncinfo$?LoadTextureFromRes@@YAJPAUIDirect3DDevice9@@PBDIIIKW4_D3DFORMAT@@W4_D3DPOOL@@KKKPAU_D3DXIMAGE_INFO@@PAUtagPALETTEENTRY@@PAPAUIDirect3DTexture9@@@Z DD 019930522H
	DD	03H
	DD	FLAT:__unwindtable$?LoadTextureFromRes@@YAJPAUIDirect3DDevice9@@PBDIIIKW4_D3DFORMAT@@W4_D3DPOOL@@KKKPAU_D3DXIMAGE_INFO@@PAUtagPALETTEENTRY@@PAPAUIDirect3DTexture9@@@Z
	DD	2 DUP(00H)
	DD	2 DUP(00H)
	DD	00H
	DD	01H
xdata$x	ENDS
;	COMDAT xdata$x
xdata$x	SEGMENT
__unwindtable$?SetStrNull@@YAXAAV?$CStringT@DV?$StrTraitMFC@DV?$ChTraitsCRT@D@ATL@@@@@ATL@@H@Z DD 0ffffffffH
	DD	FLAT:__unwindfunclet$?SetStrNull@@YAXAAV?$CStringT@DV?$StrTraitMFC@DV?$ChTraitsCRT@D@ATL@@@@@ATL@@H@Z$0
	DD	0ffffffffH
	DD	FLAT:__unwindfunclet$?SetStrNull@@YAXAAV?$CStringT@DV?$StrTraitMFC@DV?$ChTraitsCRT@D@ATL@@@@@ATL@@H@Z$1
__ehfuncinfo$?SetStrNull@@YAXAAV?$CStringT@DV?$StrTraitMFC@DV?$ChTraitsCRT@D@ATL@@@@@ATL@@H@Z DD 019930522H
	DD	02H
	DD	FLAT:__unwindtable$?SetStrNull@@YAXAAV?$CStringT@DV?$StrTraitMFC@DV?$ChTraitsCRT@D@ATL@@@@@ATL@@H@Z
	DD	2 DUP(00H)
	DD	2 DUP(00H)
	DD	00H
	DD	01H
xdata$x	ENDS
;	COMDAT xdata$x
xdata$x	SEGMENT
__unwindtable$??_GCFileIO@@UAEPAXI@Z DD 0ffffffffH
	DD	FLAT:___std_terminate
__ehfuncinfo$??_GCFileIO@@UAEPAXI@Z DD 019930522H
	DD	01H
	DD	FLAT:__unwindtable$??_GCFileIO@@UAEPAXI@Z
	DD	2 DUP(00H)
	DD	2 DUP(00H)
	DD	00H
	DD	05H
xdata$x	ENDS
;	COMDAT xdata$x
xdata$x	SEGMENT
__ehfuncinfo$??1CFileIO@@UAE@XZ DD 019930522H
	DD	00H
	DD	00H
	DD	2 DUP(00H)
	DD	2 DUP(00H)
	DD	00H
	DD	05H
xdata$x	ENDS
; Function compile flags: /Ogtp
; File C:\IAGOS\server\v18\Source\Source\_Common\vutil.cpp
; File C:\IAGOS\server\v18\Source\Source\DX_SDK\d3dx9math.inl
; File C:\IAGOS\server\v18\Source\Source\_Common\vutil.cpp
;	COMDAT ?IntersectTriangle@@YAHAAUD3DXVECTOR3@@00ABU1@1PAU1@PAM@Z
_TEXT	SEGMENT
_fU$ = -8						; size = 4
_fV$ = -4						; size = 4
_v0$ = 8						; size = 4
_v1$ = 12						; size = 4
_v2$ = 16						; size = 4
_orig$ = 20						; size = 4
_dir$ = 24						; size = 4
_pIntersect$ = 28					; size = 4
_pfDist$ = 32						; size = 4
?IntersectTriangle@@YAHAAUD3DXVECTOR3@@00ABU1@1PAU1@PAM@Z PROC ; IntersectTriangle, COMDAT

; 625  : {

  00000	55		 push	 ebp
  00001	8b ec		 mov	 ebp, esp
  00003	83 ec 08	 sub	 esp, 8

; 626  : 	FLOAT fU,fV;
; 627  : 	if(D3DXIntersectTri( &v0, &v1, &v2, &orig, &dir, &fU, &fV, pfDist ) == TRUE )

  00006	8d 45 fc	 lea	 eax, DWORD PTR _fV$[ebp]
  00009	53		 push	 ebx
  0000a	8b 5d 20	 mov	 ebx, DWORD PTR _pfDist$[ebp]
  0000d	56		 push	 esi
  0000e	8b 75 18	 mov	 esi, DWORD PTR _dir$[ebp]
  00011	57		 push	 edi
  00012	8b 7d 14	 mov	 edi, DWORD PTR _orig$[ebp]
  00015	53		 push	 ebx
  00016	50		 push	 eax
  00017	8d 45 f8	 lea	 eax, DWORD PTR _fU$[ebp]
  0001a	50		 push	 eax
  0001b	56		 push	 esi
  0001c	57		 push	 edi
  0001d	ff 75 10	 push	 DWORD PTR _v2$[ebp]
  00020	ff 75 0c	 push	 DWORD PTR _v1$[ebp]
  00023	ff 75 08	 push	 DWORD PTR _v0$[ebp]
  00026	e8 00 00 00 00	 call	 _D3DXIntersectTri@32
  0002b	83 f8 01	 cmp	 eax, 1
  0002e	75 43		 jne	 SHORT $LN2@IntersectT

; 628  : 	{
; 629  : 		*pIntersect = orig + *pfDist * dir;

  00030	f3 0f 10 0b	 movss	 xmm1, DWORD PTR [ebx]
  00034	8b 45 1c	 mov	 eax, DWORD PTR _pIntersect$[ebp]
; File C:\IAGOS\server\v18\Source\Source\DX_SDK\d3dx9math.inl

; 403  :     return D3DXVECTOR3(f * v.x, f * v.y, f * v.z);

  00037	0f 28 d1	 movaps	 xmm2, xmm1
  0003a	f3 0f 59 56 04	 mulss	 xmm2, DWORD PTR [esi+4]
  0003f	0f 28 c1	 movaps	 xmm0, xmm1
  00042	f3 0f 59 0e	 mulss	 xmm1, DWORD PTR [esi]
  00046	f3 0f 59 46 08	 mulss	 xmm0, DWORD PTR [esi+8]

; 377  :     return D3DXVECTOR3(x + v.x, y + v.y, z + v.z);

  0004b	f3 0f 58 0f	 addss	 xmm1, DWORD PTR [edi]
  0004f	f3 0f 58 57 04	 addss	 xmm2, DWORD PTR [edi+4]
  00054	f3 0f 58 47 08	 addss	 xmm0, DWORD PTR [edi+8]
  00059	5f		 pop	 edi
; File C:\IAGOS\server\v18\Source\Source\_Common\vutil.cpp

; 633  : }

  0005a	5e		 pop	 esi
  0005b	f3 0f 11 08	 movss	 DWORD PTR [eax], xmm1
  0005f	f3 0f 11 50 04	 movss	 DWORD PTR [eax+4], xmm2
  00064	f3 0f 11 40 08	 movss	 DWORD PTR [eax+8], xmm0
  00069	b8 01 00 00 00	 mov	 eax, 1
  0006e	5b		 pop	 ebx
  0006f	8b e5		 mov	 esp, ebp
  00071	5d		 pop	 ebp
  00072	c3		 ret	 0
$LN2@IntersectT:
  00073	5f		 pop	 edi
  00074	5e		 pop	 esi
  00075	33 c0		 xor	 eax, eax
  00077	5b		 pop	 ebx
  00078	8b e5		 mov	 esp, ebp
  0007a	5d		 pop	 ebp
  0007b	c3		 ret	 0
?IntersectTriangle@@YAHAAUD3DXVECTOR3@@00ABU1@1PAU1@PAM@Z ENDP ; IntersectTriangle
_TEXT	ENDS
; Function compile flags: /Ogtp
; File C:\IAGOS\server\v18\Source\Source\_Common\vutil.cpp
; File C:\IAGOS\server\v18\Source\Source\DX_SDK\d3dx9math.inl
; File C:\IAGOS\server\v18\Source\Source\_Common\vutil.cpp
; File C:\IAGOS\server\v18\Source\Source\DX_SDK\d3dx9math.inl
; File C:\IAGOS\server\v18\Source\Source\_Common\vutil.cpp
;	COMDAT ?GetRayEnd@@YAXPAUD3DXVECTOR3@@00@Z
_TEXT	SEGMENT
_pvPickRayOrig$ = 8					; size = 4
_pvPickRayDir$ = 12					; size = 4
_pvPickRayEnd$ = 16					; size = 4
?GetRayEnd@@YAXPAUD3DXVECTOR3@@00@Z PROC		; GetRayEnd, COMDAT

; 612  : {

  00000	55		 push	 ebp
  00001	8b ec		 mov	 ebp, esp

; 613  : 	FLOAT fyOrig = pvPickRayOrig->y;

  00003	8b 4d 08	 mov	 ecx, DWORD PTR _pvPickRayOrig$[ebp]

; 614  : 	FLOAT fyDir  = -pvPickRayDir->y;

  00006	8b 45 0c	 mov	 eax, DWORD PTR _pvPickRayDir$[ebp]
  00009	f3 0f 10 61 04	 movss	 xmm4, DWORD PTR [ecx+4]
  0000e	f3 0f 10 40 04	 movss	 xmm0, DWORD PTR [eax+4]

; 615  : 	pvPickRayDir->x = fyOrig * pvPickRayDir->x / fyDir; // vecY : posY = vecX : posX

  00013	0f 28 dc	 movaps	 xmm3, xmm4
  00016	f3 0f 59 18	 mulss	 xmm3, DWORD PTR [eax]

; 616  : 	pvPickRayDir->z = fyOrig * pvPickRayDir->z / fyDir; // vecY : posY = vecZ : posZ

  0001a	0f 28 d4	 movaps	 xmm2, xmm4
  0001d	f3 0f 59 50 08	 mulss	 xmm2, DWORD PTR [eax+8]
  00022	0f 57 05 00 00
	00 00		 xorps	 xmm0, DWORD PTR __xmm@80000000800000008000000080000000

; 617  : 	pvPickRayDir->y = -fyOrig; // ľĆ·ˇ *pvPickRayDir + *pvPickRayOrigżˇĽ­ y°ˇ 0ŔĚ łŞżŔ°Ô ÇĎ·Á¸é -fyOrig¸¦ łÖľîľß ÇŃ´Ů.

  00029	0f 57 25 00 00
	00 00		 xorps	 xmm4, DWORD PTR __xmm@80000000800000008000000080000000
  00030	f3 0f 5e d8	 divss	 xmm3, xmm0
  00034	f3 0f 5e d0	 divss	 xmm2, xmm0
  00038	f3 0f 11 18	 movss	 DWORD PTR [eax], xmm3
  0003c	f3 0f 11 50 08	 movss	 DWORD PTR [eax+8], xmm2
  00041	f3 0f 11 60 04	 movss	 DWORD PTR [eax+4], xmm4
; File C:\IAGOS\server\v18\Source\Source\DX_SDK\d3dx9math.inl

; 377  :     return D3DXVECTOR3(x + v.x, y + v.y, z + v.z);

  00046	f3 0f 58 19	 addss	 xmm3, DWORD PTR [ecx]
  0004a	f3 0f 58 61 04	 addss	 xmm4, DWORD PTR [ecx+4]
; File C:\IAGOS\server\v18\Source\Source\_Common\vutil.cpp

; 618  : 	*pvPickRayEnd = *pvPickRayDir + *pvPickRayOrig;

  0004f	8b 45 10	 mov	 eax, DWORD PTR _pvPickRayEnd$[ebp]
; File C:\IAGOS\server\v18\Source\Source\DX_SDK\d3dx9math.inl

; 377  :     return D3DXVECTOR3(x + v.x, y + v.y, z + v.z);

  00052	f3 0f 58 51 08	 addss	 xmm2, DWORD PTR [ecx+8]
; File C:\IAGOS\server\v18\Source\Source\_Common\vutil.cpp

; 618  : 	*pvPickRayEnd = *pvPickRayDir + *pvPickRayOrig;

  00057	f3 0f 11 18	 movss	 DWORD PTR [eax], xmm3
  0005b	f3 0f 11 60 04	 movss	 DWORD PTR [eax+4], xmm4
  00060	f3 0f 11 50 08	 movss	 DWORD PTR [eax+8], xmm2

; 619  : }

  00065	5d		 pop	 ebp
  00066	c3		 ret	 0
?GetRayEnd@@YAXPAUD3DXVECTOR3@@00@Z ENDP		; GetRayEnd
_TEXT	ENDS
; Function compile flags: /Ogtp
; File C:\IAGOS\server\v18\Source\Source\_Common\vutil.cpp
; File C:\Program Files\Microsoft Visual Studio\2022\Professional\VC\Tools\MSVC\14.44.35207\atlmfc\include\atltypes.h
; File C:\IAGOS\server\v18\Source\Source\_Common\vutil.cpp
; File C:\Program Files\Microsoft Visual Studio\2022\Professional\VC\Tools\MSVC\14.44.35207\atlmfc\include\atltypes.h
; File C:\IAGOS\server\v18\Source\Source\_Common\vutil.cpp
; File C:\Program Files\Microsoft Visual Studio\2022\Professional\VC\Tools\MSVC\14.44.35207\atlmfc\include\atltypes.h
; File C:\IAGOS\server\v18\Source\Source\_Common\vutil.cpp
;	COMDAT ?GetPickRay@@YAXVCRect@@UtagPOINT@@PAUD3DXMATRIX@@2PAUD3DXVECTOR3@@3@Z
_TEXT	SEGMENT
tv485 = -76						; size = 4
tv486 = -72						; size = 4
_m$ = -68						; size = 64
__$ArrayPad$ = -4					; size = 4
_rect$ = 8						; size = 16
_ptCursor$ = 24						; size = 8
_pmatProj$ = 32						; size = 4
_pmatView$ = 36						; size = 4
_pvPickRayOrig$ = 40					; size = 4
_pvPickRayDir$ = 44					; size = 4
?GetPickRay@@YAXVCRect@@UtagPOINT@@PAUD3DXMATRIX@@2PAUD3DXVECTOR3@@3@Z PROC ; GetPickRay, COMDAT

; 592  : {

  00000	55		 push	 ebp
  00001	8b ec		 mov	 ebp, esp
  00003	83 ec 4c	 sub	 esp, 76			; 0000004cH
  00006	a1 00 00 00 00	 mov	 eax, DWORD PTR ___security_cookie
  0000b	33 c5		 xor	 eax, ebp
  0000d	89 45 fc	 mov	 DWORD PTR __$ArrayPad$[ebp], eax
; File C:\Program Files\Microsoft Visual Studio\2022\Professional\VC\Tools\MSVC\14.44.35207\atlmfc\include\atltypes.h

; 580  : 	return right - left;

  00010	8b 45 10	 mov	 eax, DWORD PTR _rect$[ebp+8]
  00013	2b 45 08	 sub	 eax, DWORD PTR _rect$[ebp]
  00016	66 0f 6e 55 18	 movd	 xmm2, DWORD PTR _ptCursor$[ebp]
; File C:\IAGOS\server\v18\Source\Source\_Common\vutil.cpp

; 594  : 	v.x =  ( ( ( 2.0f * ptCursor.x ) / rect.Width()  ) - 1 ) / pmatProj->_11;

  0001b	0f 5b d2	 cvtdq2ps xmm2, xmm2
  0001e	8b 4d 20	 mov	 ecx, DWORD PTR _pmatProj$[ebp]
  00021	8b 55 24	 mov	 edx, DWORD PTR _pmatView$[ebp]
  00024	56		 push	 esi
  00025	8b 75 2c	 mov	 esi, DWORD PTR _pvPickRayDir$[ebp]
  00028	66 0f 6e c0	 movd	 xmm0, eax
  0002c	f3 0f 58 d2	 addss	 xmm2, xmm2
; File C:\Program Files\Microsoft Visual Studio\2022\Professional\VC\Tools\MSVC\14.44.35207\atlmfc\include\atltypes.h

; 585  : 	return bottom - top;

  00030	8b 45 14	 mov	 eax, DWORD PTR _rect$[ebp+12]
; File C:\IAGOS\server\v18\Source\Source\_Common\vutil.cpp

; 594  : 	v.x =  ( ( ( 2.0f * ptCursor.x ) / rect.Width()  ) - 1 ) / pmatProj->_11;

  00033	0f 5b c0	 cvtdq2ps xmm0, xmm0
; File C:\Program Files\Microsoft Visual Studio\2022\Professional\VC\Tools\MSVC\14.44.35207\atlmfc\include\atltypes.h

; 585  : 	return bottom - top;

  00036	2b 45 0c	 sub	 eax, DWORD PTR _rect$[ebp+4]
; File C:\IAGOS\server\v18\Source\Source\_Common\vutil.cpp

; 592  : {

  00039	57		 push	 edi
  0003a	8b 7d 28	 mov	 edi, DWORD PTR _pvPickRayOrig$[ebp]

; 595  : 	v.y = -( ( ( 2.0f * ptCursor.y ) / rect.Height() ) - 1 ) / pmatProj->_22;
; 596  : 	v.z =  1.0f;
; 597  : 
; 598  : 	// Get the inverse view matrix
; 599  : 	D3DXMATRIX m;
; 600  : 	D3DXMatrixInverse( &m, NULL, pmatView );

  0003d	52		 push	 edx
  0003e	6a 00		 push	 0
  00040	f3 0f 5e d0	 divss	 xmm2, xmm0
  00044	66 0f 6e c0	 movd	 xmm0, eax
  00048	8d 45 bc	 lea	 eax, DWORD PTR _m$[ebp]
  0004b	f3 0f 5c 15 00
	00 00 00	 subss	 xmm2, DWORD PTR __real@3f800000
  00053	0f 5b c0	 cvtdq2ps xmm0, xmm0
  00056	50		 push	 eax
  00057	f3 0f 5e 11	 divss	 xmm2, DWORD PTR [ecx]
  0005b	f3 0f 11 55 b4	 movss	 DWORD PTR tv485[ebp], xmm2
  00060	66 0f 6e 55 1c	 movd	 xmm2, DWORD PTR _ptCursor$[ebp+4]
  00065	0f 5b d2	 cvtdq2ps xmm2, xmm2
  00068	f3 0f 58 d2	 addss	 xmm2, xmm2
  0006c	f3 0f 5e d0	 divss	 xmm2, xmm0
  00070	f3 0f 5c 15 00
	00 00 00	 subss	 xmm2, DWORD PTR __real@3f800000
  00078	0f 57 15 00 00
	00 00		 xorps	 xmm2, DWORD PTR __xmm@80000000800000008000000080000000
  0007f	f3 0f 5e 51 14	 divss	 xmm2, DWORD PTR [ecx+20]
  00084	f3 0f 11 55 b8	 movss	 DWORD PTR tv486[ebp], xmm2
  00089	e8 00 00 00 00	 call	 _D3DXMatrixInverse@12
  0008e	f3 0f 10 55 b8	 movss	 xmm2, DWORD PTR tv486[ebp]

; 601  : 
; 602  : 	// Transform the screen space pick ray into 3D space
; 603  : 	pvPickRayDir->x  = v.x*m._11 + v.y*m._21 + v.z*m._31;

  00093	f3 0f 10 5d b4	 movss	 xmm3, DWORD PTR tv485[ebp]
  00098	0f 28 ca	 movaps	 xmm1, xmm2
  0009b	f3 0f 59 4d cc	 mulss	 xmm1, DWORD PTR _m$[ebp+16]
  000a0	0f 28 c3	 movaps	 xmm0, xmm3

; 604  : 	pvPickRayDir->y  = v.x*m._12 + v.y*m._22 + v.z*m._32;
; 605  : 	pvPickRayDir->z  = v.x*m._13 + v.y*m._23 + v.z*m._33;
; 606  : 	pvPickRayOrig->x = m._41;
; 607  : 	pvPickRayOrig->y = m._42;
; 608  : 	pvPickRayOrig->z = m._43;
; 609  : }

  000a3	8b 4d fc	 mov	 ecx, DWORD PTR __$ArrayPad$[ebp]
  000a6	f3 0f 59 45 bc	 mulss	 xmm0, DWORD PTR _m$[ebp]
  000ab	33 cd		 xor	 ecx, ebp
  000ad	f3 0f 58 c8	 addss	 xmm1, xmm0
  000b1	0f 28 c3	 movaps	 xmm0, xmm3
  000b4	f3 0f 59 45 c0	 mulss	 xmm0, DWORD PTR _m$[ebp+4]
  000b9	f3 0f 59 5d c4	 mulss	 xmm3, DWORD PTR _m$[ebp+8]
  000be	f3 0f 58 4d dc	 addss	 xmm1, DWORD PTR _m$[ebp+32]
  000c3	f3 0f 11 0e	 movss	 DWORD PTR [esi], xmm1
  000c7	0f 28 ca	 movaps	 xmm1, xmm2
  000ca	f3 0f 59 4d d0	 mulss	 xmm1, DWORD PTR _m$[ebp+20]
  000cf	f3 0f 59 55 d4	 mulss	 xmm2, DWORD PTR _m$[ebp+24]
  000d4	f3 0f 58 c8	 addss	 xmm1, xmm0
  000d8	f3 0f 10 45 ec	 movss	 xmm0, DWORD PTR _m$[ebp+48]
  000dd	f3 0f 58 d3	 addss	 xmm2, xmm3
  000e1	f3 0f 58 4d e0	 addss	 xmm1, DWORD PTR _m$[ebp+36]
  000e6	f3 0f 58 55 e4	 addss	 xmm2, DWORD PTR _m$[ebp+40]
  000eb	f3 0f 11 4e 04	 movss	 DWORD PTR [esi+4], xmm1
  000f0	f3 0f 11 56 08	 movss	 DWORD PTR [esi+8], xmm2
  000f5	f3 0f 11 07	 movss	 DWORD PTR [edi], xmm0
  000f9	f3 0f 10 45 f0	 movss	 xmm0, DWORD PTR _m$[ebp+52]
  000fe	f3 0f 11 47 04	 movss	 DWORD PTR [edi+4], xmm0
  00103	f3 0f 10 45 f4	 movss	 xmm0, DWORD PTR _m$[ebp+56]
  00108	f3 0f 11 47 08	 movss	 DWORD PTR [edi+8], xmm0
  0010d	5f		 pop	 edi
  0010e	5e		 pop	 esi
  0010f	e8 00 00 00 00	 call	 @__security_check_cookie@4
  00114	8b e5		 mov	 esp, ebp
  00116	5d		 pop	 ebp
  00117	c3		 ret	 0
?GetPickRay@@YAXVCRect@@UtagPOINT@@PAUD3DXMATRIX@@2PAUD3DXVECTOR3@@3@Z ENDP ; GetPickRay
_TEXT	ENDS
; Function compile flags: /Ogtp
; File C:\IAGOS\server\v18\Source\Source\_Common\vutil.cpp
; File C:\Program Files (x86)\Windows Kits\10\Include\10.0.26100.0\ucrt\stdlib.h
; File C:\IAGOS\server\v18\Source\Source\_Common\vutil.cpp
; File C:\Program Files (x86)\Windows Kits\10\Include\10.0.26100.0\ucrt\stdlib.h
; File C:\IAGOS\server\v18\Source\Source\_Common\vutil.cpp
; File C:\Program Files (x86)\Windows Kits\10\Include\10.0.26100.0\ucrt\stdlib.h
; File C:\IAGOS\server\v18\Source\Source\_Common\vutil.cpp
; File C:\Program Files (x86)\Windows Kits\10\Include\10.0.26100.0\ucrt\stdlib.h
; File C:\IAGOS\server\v18\Source\Source\_Common\vutil.cpp
;	COMDAT ?SaveBMP@@YAHPBDPAEUtagSIZE@@@Z
_TEXT	SEGMENT
_file$ = -52						; size = 20
_BMPheader$ = -32					; size = 14
_pBMP$1$ = -16						; size = 4
__$EHRec$ = -12						; size = 12
_lpszFileName$ = 8					; size = 4
_lpData$ = 12						; size = 4
_size$ = 16						; size = 8
tv534 = 20						; size = 4
$T2 = 20						; size = 4
?SaveBMP@@YAHPBDPAEUtagSIZE@@@Z PROC			; SaveBMP, COMDAT

; 525  : {

  00000	55		 push	 ebp
  00001	8b ec		 mov	 ebp, esp
  00003	6a ff		 push	 -1
  00005	68 00 00 00 00	 push	 __ehhandler$?SaveBMP@@YAHPBDPAEUtagSIZE@@@Z
  0000a	64 a1 00 00 00
	00		 mov	 eax, DWORD PTR fs:0
  00010	50		 push	 eax
  00011	83 ec 28	 sub	 esp, 40			; 00000028H
  00014	53		 push	 ebx
  00015	56		 push	 esi
  00016	57		 push	 edi
  00017	a1 00 00 00 00	 mov	 eax, DWORD PTR ___security_cookie
  0001c	33 c5		 xor	 eax, ebp
  0001e	50		 push	 eax
  0001f	8d 45 f4	 lea	 eax, DWORD PTR __$EHRec$[ebp]
  00022	64 a3 00 00 00
	00		 mov	 DWORD PTR fs:0, eax

; 526  : 	int i, j;
; 527  : 	BITMAPFILEHEADER BMPheader;
; 528  : 	BITMAPINFOHEADER header = { 40,640,-480,1,24,0,0,5904,5904,0,0 };
; 529  : 	header.biBitCount = 24;
; 530  : 	header.biWidth  = size.cx;

  00028	8b 7d 10	 mov	 edi, DWORD PTR _size$[ebp]

; 532  : 
; 533  : 	LPBYTE pBMP = NULL;
; 534  : 	LPBYTE pp;
; 535  : 
; 536  : 	LPBYTE pSurface = (LPBYTE) lpData;
; 537  : 
; 538  : 	int nBit = 24 >> 3;//m_infoHeader.biBitCount >> 3;
; 539  : 
; 540  : 	BMPheader.bfType = 'M';
; 541  : 	BMPheader.bfType <<= 8;
; 542  : 	BMPheader.bfType += 'B';

  0002b	b8 42 4d 00 00	 mov	 eax, 19778		; 00004d42H
  00030	66 89 45 e0	 mov	 WORD PTR _BMPheader$[ebp], ax

; 543  : 	BMPheader.bfReserved1 = 0; 

  00034	33 c0		 xor	 eax, eax
  00036	89 45 e6	 mov	 DWORD PTR _BMPheader$[ebp+6], eax
; File C:\Program Files (x86)\Windows Kits\10\Include\10.0.26100.0\ucrt\stdlib.h

; 365  :         return labs(_X);

  00039	8b 45 14	 mov	 eax, DWORD PTR _size$[ebp+4]
  0003c	99		 cdq
  0003d	33 c2		 xor	 eax, edx
; File C:\IAGOS\server\v18\Source\Source\_Common\vutil.cpp

; 554  : 		BMPheader.bfOffBits = sizeof(BITMAPFILEHEADER ) + sizeof(BITMAPINFOHEADER);

  0003f	c7 45 ea 36 00
	00 00		 mov	 DWORD PTR _BMPheader$[ebp+10], 54 ; 00000036H
; File C:\Program Files (x86)\Windows Kits\10\Include\10.0.26100.0\ucrt\stdlib.h

; 365  :         return labs(_X);

  00046	2b c2		 sub	 eax, edx
; File C:\IAGOS\server\v18\Source\Source\_Common\vutil.cpp

; 531  : 	header.biHeight = -abs(size.cy);

  00048	f7 d8		 neg	 eax
; File C:\Program Files (x86)\Windows Kits\10\Include\10.0.26100.0\ucrt\stdlib.h

; 365  :         return labs(_X);

  0004a	99		 cdq
  0004b	8b f0		 mov	 esi, eax
  0004d	33 f2		 xor	 esi, edx
  0004f	2b f2		 sub	 esi, edx
; File C:\IAGOS\server\v18\Source\Source\_Common\vutil.cpp

; 553  : 		BMPheader.bfSize = ( sizeof(BITMAPFILEHEADER ) + sizeof(BITMAPINFOHEADER) + header.biWidth * abs(header.biHeight) * nBit );

  00051	8b c6		 mov	 eax, esi
; File C:\Program Files (x86)\Windows Kits\10\Include\10.0.26100.0\ucrt\stdlib.h

; 365  :         return labs(_X);

  00053	89 75 14	 mov	 DWORD PTR tv534[ebp], esi
; File C:\IAGOS\server\v18\Source\Source\_Common\vutil.cpp

; 553  : 		BMPheader.bfSize = ( sizeof(BITMAPFILEHEADER ) + sizeof(BITMAPINFOHEADER) + header.biWidth * abs(header.biHeight) * nBit );

  00056	0f af c7	 imul	 eax, edi
  00059	83 c0 12	 add	 eax, 18			; 00000012H
  0005c	8d 04 40	 lea	 eax, DWORD PTR [eax+eax*2]

; 555  : 	}
; 556  :  	pBMP = new BYTE[BMPheader.bfSize];

  0005f	50		 push	 eax
  00060	89 45 e2	 mov	 DWORD PTR _BMPheader$[ebp+2], eax
  00063	e8 00 00 00 00	 call	 ??_U@YAPAXI@Z		; operator new[]
  00068	8b d8		 mov	 ebx, eax
  0006a	83 c4 04	 add	 esp, 4
  0006d	89 5d f0	 mov	 DWORD PTR _pBMP$1$[ebp], ebx

; 557  : 	if( pBMP == NULL )	return	FALSE;

  00070	85 db		 test	 ebx, ebx
  00072	75 12		 jne	 SHORT $LN8@SaveBMP

; 589  : }

  00074	8b 4d f4	 mov	 ecx, DWORD PTR __$EHRec$[ebp]
  00077	64 89 0d 00 00
	00 00		 mov	 DWORD PTR fs:0, ecx
  0007e	59		 pop	 ecx
  0007f	5f		 pop	 edi
  00080	5e		 pop	 esi
  00081	5b		 pop	 ebx
  00082	8b e5		 mov	 esp, ebp
  00084	5d		 pop	 ebp
  00085	c3		 ret	 0
$LN8@SaveBMP:

; 559  : 
; 560  : 	header.biHeight = abs( header.biHeight);
; 561  : 
; 562  : 	memcpy( pp, &BMPheader, sizeof(BITMAPFILEHEADER) ); pp += sizeof(BITMAPFILEHEADER);

  00086	f3 0f 7e 45 e0	 movq	 xmm0, QWORD PTR _BMPheader$[ebp]
  0008b	8b 45 e8	 mov	 eax, DWORD PTR _BMPheader$[ebp+8]
  0008e	66 0f d6 03	 movq	 QWORD PTR [ebx], xmm0
  00092	89 43 08	 mov	 DWORD PTR [ebx+8], eax
  00095	66 8b 45 ec	 mov	 ax, WORD PTR _BMPheader$[ebp+12]
  00099	66 89 43 0c	 mov	 WORD PTR [ebx+12], ax

; 563  : 	memcpy( pp, &header, sizeof(BITMAPINFOHEADER) ); pp += sizeof(BITMAPINFOHEADER);

  0009d	8b 45 14	 mov	 eax, DWORD PTR tv534[ebp]
  000a0	99		 cdq
  000a1	c7 43 0e 28 00
	00 00		 mov	 DWORD PTR [ebx+14], 40	; 00000028H
  000a8	33 c2		 xor	 eax, edx
  000aa	89 7b 12	 mov	 DWORD PTR [ebx+18], edi
  000ad	2b c2		 sub	 eax, edx
  000af	89 73 16	 mov	 DWORD PTR [ebx+22], esi

; 564  : 
; 565  : 	if(nBit == 1 || nBit == 2)
; 566  : 	{
; 567  : 	}
; 568  : 
; 569  : 	j = header.biWidth * abs(header.biHeight) * nBit;

  000b2	8b c8		 mov	 ecx, eax
  000b4	c7 43 1a 01 00
	18 00		 mov	 DWORD PTR [ebx+26], 1572865 ; 00180001H
  000bb	8d 73 36	 lea	 esi, DWORD PTR [ebx+54]
  000be	0f af cf	 imul	 ecx, edi
  000c1	c7 43 1e 00 00
	00 00		 mov	 DWORD PTR [ebx+30], 0
  000c8	c7 43 22 00 00
	00 00		 mov	 DWORD PTR [ebx+34], 0
  000cf	c7 43 26 10 17
	00 00		 mov	 DWORD PTR [ebx+38], 5904 ; 00001710H
  000d6	c7 43 2a 10 17
	00 00		 mov	 DWORD PTR [ebx+42], 5904 ; 00001710H
  000dd	c7 43 2e 00 00
	00 00		 mov	 DWORD PTR [ebx+46], 0
  000e4	c7 43 32 00 00
	00 00		 mov	 DWORD PTR [ebx+50], 0
  000eb	89 45 14	 mov	 DWORD PTR $T2[ebp], eax
  000ee	8d 0c 49	 lea	 ecx, DWORD PTR [ecx+ecx*2]

; 570  : 
; 571  : 
; 572  : 	for( i = 0; i < abs(header.biHeight); i ++ )

  000f1	85 c0		 test	 eax, eax
  000f3	7e 23		 jle	 SHORT $LN3@SaveBMP

; 558  : 	pp = pBMP;

  000f5	8b 5d 0c	 mov	 ebx, DWORD PTR _lpData$[ebp]
  000f8	8d 3c 7f	 lea	 edi, DWORD PTR [edi+edi*2]
  000fb	03 d9		 add	 ebx, ecx
  000fd	0f 1f 00	 npad	 3
$LL4@SaveBMP:

; 573  : 	{
; 574  : 		j  -= header.biWidth * nBit;
; 575  : 		memcpy( pp, pSurface + j, header.biWidth * nBit );		

  00100	57		 push	 edi
  00101	2b df		 sub	 ebx, edi
  00103	53		 push	 ebx
  00104	56		 push	 esi
  00105	e8 00 00 00 00	 call	 _memcpy
  0010a	83 c4 0c	 add	 esp, 12			; 0000000cH

; 576  : 		pp += header.biWidth * nBit;

  0010d	03 f7		 add	 esi, edi
  0010f	83 6d 14 01	 sub	 DWORD PTR $T2[ebp], 1
  00113	75 eb		 jne	 SHORT $LL4@SaveBMP
  00115	8b 5d f0	 mov	 ebx, DWORD PTR _pBMP$1$[ebp]
$LN3@SaveBMP:

; 577  : 	}
; 578  : 
; 579  : 	CFile file;

  00118	8d 4d cc	 lea	 ecx, DWORD PTR _file$[ebp]
  0011b	e8 00 00 00 00	 call	 ??0CFile@@QAE@XZ	; CFile::CFile

; 580  : 	if(file.Open(lpszFileName,CFile::modeWrite|CFile::modeCreate))

  00120	6a 00		 push	 0
  00122	68 01 10 00 00	 push	 4097			; 00001001H
  00127	ff 75 08	 push	 DWORD PTR _lpszFileName$[ebp]
  0012a	8d 4d cc	 lea	 ecx, DWORD PTR _file$[ebp]
  0012d	c7 45 fc 00 00
	00 00		 mov	 DWORD PTR __$EHRec$[ebp+8], 0
  00134	e8 00 00 00 00	 call	 ?Open@CFile@@UAEHPBDIPAVCFileException@@@Z ; CFile::Open
  00139	85 c0		 test	 eax, eax
  0013b	74 13		 je	 SHORT $LN11@SaveBMP

; 581  : 	{
; 582  : 		file.Write(pBMP,(int)(pp - pBMP));

  0013d	2b f3		 sub	 esi, ebx
  0013f	8d 4d cc	 lea	 ecx, DWORD PTR _file$[ebp]
  00142	56		 push	 esi
  00143	53		 push	 ebx
  00144	e8 00 00 00 00	 call	 ?Write@CFile@@UAEXPBXI@Z ; CFile::Write
  00149	be 01 00 00 00	 mov	 esi, 1
  0014e	eb 02		 jmp	 SHORT $LN14@SaveBMP
$LN11@SaveBMP:

; 583  : 		safe_delete_array( pBMP );
; 584  : 		return TRUE;
; 585  : 	}
; 586  : 
; 587  : 	safe_delete_array( pBMP );
; 588  : 	return FALSE; 

  00150	33 f6		 xor	 esi, esi
$LN14@SaveBMP:
  00152	53		 push	 ebx
  00153	e8 00 00 00 00	 call	 ??_V@YAXPAX@Z		; operator delete[]
  00158	83 c4 04	 add	 esp, 4
  0015b	8d 4d cc	 lea	 ecx, DWORD PTR _file$[ebp]
  0015e	e8 00 00 00 00	 call	 ??1CFile@@UAE@XZ	; CFile::~CFile
  00163	8b c6		 mov	 eax, esi

; 589  : }

  00165	8b 4d f4	 mov	 ecx, DWORD PTR __$EHRec$[ebp]
  00168	64 89 0d 00 00
	00 00		 mov	 DWORD PTR fs:0, ecx
  0016f	59		 pop	 ecx
  00170	5f		 pop	 edi
  00171	5e		 pop	 esi
  00172	5b		 pop	 ebx
  00173	8b e5		 mov	 esp, ebp
  00175	5d		 pop	 ebp
  00176	c3		 ret	 0
_TEXT	ENDS
;	COMDAT text$x
text$x	SEGMENT
__unwindfunclet$?SaveBMP@@YAHPBDPAEUtagSIZE@@@Z$0:
  00000	8d 4d cc	 lea	 ecx, DWORD PTR _file$[ebp]
  00003	e9 00 00 00 00	 jmp	 ??1CFile@@UAE@XZ	; CFile::~CFile
  00008	cc		 int	 3
  00009	cc		 int	 3
  0000a	cc		 int	 3
  0000b	cc		 int	 3
  0000c	cc		 int	 3
__ehhandler$?SaveBMP@@YAHPBDPAEUtagSIZE@@@Z:
  0000d	90		 npad	 1
  0000e	90		 npad	 1
  0000f	8b 54 24 08	 mov	 edx, DWORD PTR [esp+8]
  00013	8d 42 0c	 lea	 eax, DWORD PTR [edx+12]
  00016	8b 4a c8	 mov	 ecx, DWORD PTR [edx-56]
  00019	33 c8		 xor	 ecx, eax
  0001b	e8 00 00 00 00	 call	 @__security_check_cookie@4
  00020	b8 00 00 00 00	 mov	 eax, OFFSET __ehfuncinfo$?SaveBMP@@YAHPBDPAEUtagSIZE@@@Z
  00025	e9 00 00 00 00	 jmp	 ___CxxFrameHandler3
text$x	ENDS
?SaveBMP@@YAHPBDPAEUtagSIZE@@@Z ENDP			; SaveBMP
; Function compile flags: /Ogtp
; File C:\IAGOS\server\v18\Source\Source\_Common\vutil.cpp
;	COMDAT ?LoadTGA@@YAHPBDPAUIMAGE@@@Z
_TEXT	SEGMENT
_lpszFileName$ = 8					; size = 4
_lpImage$ = 12						; size = 4
?LoadTGA@@YAHPBDPAUIMAGE@@@Z PROC			; LoadTGA, COMDAT

; 440  : #if !defined(__SERVER)
; 441  : 	lpImage->nImgBit = IMGBIT_32;
; 442  : 	CTarga targa;
; 443  : 	return targa.Load( lpszFileName, &lpImage->lpData, &lpImage->size );
; 444  : #endif
; 445  : 	return FALSE;

  00000	33 c0		 xor	 eax, eax

; 446  : }

  00002	c3		 ret	 0
?LoadTGA@@YAHPBDPAUIMAGE@@@Z ENDP			; LoadTGA
_TEXT	ENDS
; Function compile flags: /Ogtp
; File C:\IAGOS\server\v18\Source\Source\_Common\vutil.cpp
; File C:\IAGOS\server\v18\Source\Source\_Common\File.h
; File C:\IAGOS\server\v18\Source\Source\_Common\vutil.cpp
; File C:\IAGOS\server\v18\Source\Source\_Common\File.h
; File C:\IAGOS\server\v18\Source\Source\_Common\vutil.cpp
;	COMDAT ?LoadBMP@@YAHPBDPAUIMAGE@@@Z
_TEXT	SEGMENT
_infoHeader$ = -80					; size = 40
_file$ = -40						; size = 8
_lpDataDelete$1$ = -32					; size = 4
_nLgWidth$1$ = -28					; size = 4
_lpNewData$1$ = -24					; size = 4
_bitCount$1$ = -20					; size = 4
_nPgWidth$1$ = -20					; size = 4
_nPgHeight$1$ = -16					; size = 4
__$EHRec$ = -12						; size = 12
_lpszFileName$ = 8					; size = 4
_lpImage$ = 12						; size = 4
?LoadBMP@@YAHPBDPAUIMAGE@@@Z PROC			; LoadBMP, COMDAT

; 449  : {

  00000	55		 push	 ebp
  00001	8b ec		 mov	 ebp, esp
  00003	6a ff		 push	 -1
  00005	68 00 00 00 00	 push	 __ehhandler$?LoadBMP@@YAHPBDPAUIMAGE@@@Z
  0000a	64 a1 00 00 00
	00		 mov	 eax, DWORD PTR fs:0
  00010	50		 push	 eax
  00011	83 ec 44	 sub	 esp, 68			; 00000044H
  00014	56		 push	 esi
  00015	57		 push	 edi
  00016	a1 00 00 00 00	 mov	 eax, DWORD PTR ___security_cookie
  0001b	33 c5		 xor	 eax, ebp
  0001d	50		 push	 eax
  0001e	8d 45 f4	 lea	 eax, DWORD PTR __$EHRec$[ebp]
  00021	64 a3 00 00 00
	00		 mov	 DWORD PTR fs:0, eax
; File C:\IAGOS\server\v18\Source\Source\_Common\File.h

; 15   : 	CFileIO() { fp = NULL; } 

  00027	c7 45 d8 00 00
	00 00		 mov	 DWORD PTR _file$[ebp], OFFSET ??_7CFileIO@@6B@
  0002e	c7 45 dc 00 00
	00 00		 mov	 DWORD PTR _file$[ebp+4], 0
; File C:\IAGOS\server\v18\Source\Source\_Common\vutil.cpp

; 451  : 	if( file.Open( lpszFileName, "rb" ) == FALSE )

  00035	8b 75 08	 mov	 esi, DWORD PTR _lpszFileName$[ebp]
  00038	8d 4d d8	 lea	 ecx, DWORD PTR _file$[ebp]
  0003b	68 00 00 00 00	 push	 OFFSET ??_C@_02JDPG@rb@
  00040	56		 push	 esi
  00041	c7 45 fc 00 00
	00 00		 mov	 DWORD PTR __$EHRec$[ebp+8], 0
  00048	e8 00 00 00 00	 call	 ?Open@CFileIO@@UAEHPBDPAD@Z ; CFileIO::Open
  0004d	85 c0		 test	 eax, eax
  0004f	75 15		 jne	 SHORT $LN5@LoadBMP

; 452  : 	{
; 453  : 		Error( "LoadBMP Failed = %s", lpszFileName );

  00051	56		 push	 esi
  00052	68 00 00 00 00	 push	 OFFSET ??_C@_0BE@MHDFBJEH@LoadBMP?5Failed?5?$DN?5?$CFs@
  00057	e8 00 00 00 00	 call	 ?Error@@YAPBDPBDZZ	; Error
  0005c	83 c4 08	 add	 esp, 8
  0005f	33 f6		 xor	 esi, esi
  00061	e9 52 01 00 00	 jmp	 $LN17@LoadBMP
$LN5@LoadBMP:

; 454  : 		return FALSE;
; 455  : 	}
; 456  : 
; 457  : 	BITMAPINFOHEADER infoHeader;
; 458  : 	LPBYTE lpData = (LPBYTE)file.Read();

  00066	8d 4d d8	 lea	 ecx, DWORD PTR _file$[ebp]
  00069	e8 00 00 00 00	 call	 ?Read@CFileIO@@UAEPAXXZ	; CFileIO::Read
  0006e	8b f0		 mov	 esi, eax

; 459  : 	LPBYTE lpDataDelete = lpData;
; 460  : 	lpData += sizeof( BITMAPFILEHEADER );
; 461  : 	memcpy( &infoHeader, lpData, sizeof( BITMAPINFOHEADER ) );
; 462  : 	lpData += sizeof( BITMAPINFOHEADER );
; 463  : 
; 464  : 	int bitCount = 1;

  00070	ba 01 00 00 00	 mov	 edx, 1
  00075	8b ce		 mov	 ecx, esi
  00077	89 55 ec	 mov	 DWORD PTR _bitCount$1$[ebp], edx
  0007a	89 4d e0	 mov	 DWORD PTR _lpDataDelete$1$[ebp], ecx
  0007d	0f 10 4e 0e	 movups	 xmm1, XMMWORD PTR [esi+14]
  00081	0f 10 46 1e	 movups	 xmm0, XMMWORD PTR [esi+30]
  00085	0f 11 4d b0	 movups	 XMMWORD PTR _infoHeader$[ebp], xmm1

; 465  : 	if( infoHeader.biBitCount < 8)

  00089	66 0f 73 d9 0c	 psrldq	 xmm1, 12		; 0000000cH
  0008e	66 0f 7e c8	 movd	 eax, xmm1
  00092	0f 11 45 c0	 movups	 XMMWORD PTR _infoHeader$[ebp+16], xmm0
  00096	f3 0f 7e 46 2e	 movq	 xmm0, QWORD PTR [esi+46]
  0009b	83 c6 36	 add	 esi, 54			; 00000036H
  0009e	c1 e8 10	 shr	 eax, 16			; 00000010H
  000a1	66 0f d6 45 d0	 movq	 QWORD PTR _infoHeader$[ebp+32], xmm0
  000a6	83 f8 08	 cmp	 eax, 8
  000a9	72 19		 jb	 SHORT $LN48@LoadBMP

; 466  : 	{
; 467  : 		lpImage->size.cx = 0;
; 468  : 		lpImage->size.cy = 0;
; 469  : 		lpImage->lpData = NULL;
; 470  : 		lpImage->nImgBit = IMGBIT_24;
; 471  : 		safe_delete_array( lpDataDelete );
; 472  : 		return FALSE;
; 473  : 	}
; 474  : 	if( infoHeader.biBitCount > 8)

  000ab	66 8b 45 be	 mov	 ax, WORD PTR _infoHeader$[ebp+14]
  000af	66 83 f8 08	 cmp	 ax, 8
  000b3	76 09		 jbe	 SHORT $LN7@LoadBMP

; 475  : 	{
; 476  : 		bitCount = infoHeader.biBitCount / 8;

  000b5	0f b7 d0	 movzx	 edx, ax
  000b8	c1 ea 03	 shr	 edx, 3
  000bb	89 55 ec	 mov	 DWORD PTR _bitCount$1$[ebp], edx
$LN7@LoadBMP:

; 477  : 	}
; 478  : 	if( infoHeader.biCompression)

  000be	83 7d c0 00	 cmp	 DWORD PTR _infoHeader$[ebp+16], 0
  000c2	74 2e		 je	 SHORT $LN8@LoadBMP
$LN48@LoadBMP:

; 479  : 	{
; 480  : 		lpImage->size.cx = 0;

  000c4	8b 45 0c	 mov	 eax, DWORD PTR _lpImage$[ebp]

; 481  : 		lpImage->size.cy = 0;
; 482  : 		lpImage->lpData = NULL;
; 483  : 		lpImage->nImgBit = IMGBIT_24;
; 484  : 		safe_delete_array( lpDataDelete );

  000c7	51		 push	 ecx
  000c8	c7 40 04 00 00
	00 00		 mov	 DWORD PTR [eax+4], 0
  000cf	c7 40 08 00 00
	00 00		 mov	 DWORD PTR [eax+8], 0
  000d6	c7 00 00 00 00
	00		 mov	 DWORD PTR [eax], 0
  000dc	c7 40 0c 02 00
	00 00		 mov	 DWORD PTR [eax+12], 2
  000e3	e8 00 00 00 00	 call	 ??_V@YAXPAX@Z		; operator delete[]
  000e8	83 c4 04	 add	 esp, 4
  000eb	33 f6		 xor	 esi, esi
  000ed	e9 c6 00 00 00	 jmp	 $LN17@LoadBMP
$LN8@LoadBMP:

; 485  : 		return FALSE;
; 486  : 	}
; 487  : 	int nLgHeight = infoHeader.biHeight;
; 488  : 	int nLgWidth  = infoHeader.biWidth;
; 489  : 
; 490  : 	lpImage->size.cx = nLgWidth;

  000f2	8b 45 0c	 mov	 eax, DWORD PTR _lpImage$[ebp]
  000f5	8b 4d b4	 mov	 ecx, DWORD PTR _infoHeader$[ebp+4]

; 491  : 	lpImage->size.cy = nLgHeight;

  000f8	8b 7d b8	 mov	 edi, DWORD PTR _infoHeader$[ebp+8]
  000fb	89 48 04	 mov	 DWORD PTR [eax+4], ecx
  000fe	89 78 08	 mov	 DWORD PTR [eax+8], edi

; 492  : 
; 493  : 	if( bitCount == 1 ) 

  00101	83 fa 01	 cmp	 edx, 1
  00104	75 10		 jne	 SHORT $LN9@LoadBMP

; 494  : 	{
; 495  : 		if( infoHeader.biClrUsed == 0 )

  00106	8b 45 d0	 mov	 eax, DWORD PTR _infoHeader$[ebp+32]
  00109	bf 00 01 00 00	 mov	 edi, 256		; 00000100H
  0010e	85 c0		 test	 eax, eax
  00110	0f 44 c7	 cmove	 eax, edi

; 496  : 			infoHeader.biClrUsed = 256;
; 497  : 		lpData += infoHeader.biClrUsed * 4;

  00113	8d 34 86	 lea	 esi, DWORD PTR [esi+eax*4]
$LN9@LoadBMP:

; 498  : 	}
; 499  : 
; 500  : 	LPBYTE lpNewData = new BYTE[ nLgWidth * nLgHeight * bitCount * 2 ]; // ąö±× ¶§ą®żˇ 2 °öÇßŔ˝. »çŔĚÁî°ˇ 4ŔÇ ąčĽö°ˇ ľĆ´ĎľîĽ­ ą®Á¦ »ý°ÜĽ­ * 2 ÇßŔ˝ 

  00116	8b f9		 mov	 edi, ecx
  00118	0f af 7d b8	 imul	 edi, DWORD PTR _infoHeader$[ebp+8]
  0011c	0f af fa	 imul	 edi, edx
  0011f	03 ff		 add	 edi, edi
  00121	57		 push	 edi
  00122	e8 00 00 00 00	 call	 ??_U@YAPAXI@Z		; operator new[]
  00127	89 45 e8	 mov	 DWORD PTR _lpNewData$1$[ebp], eax
  0012a	83 c4 04	 add	 esp, 4

; 501  : 	lpImage->dwSizeBak	= lpImage->dwSize = nLgWidth * nLgHeight * bitCount * 2;

  0012d	8b 45 0c	 mov	 eax, DWORD PTR _lpImage$[ebp]
  00130	89 78 10	 mov	 DWORD PTR [eax+16], edi
  00133	89 78 14	 mov	 DWORD PTR [eax+20], edi
  00136	8b 45 b8	 mov	 eax, DWORD PTR _infoHeader$[ebp+8]
  00139	99		 cdq
  0013a	8b f8		 mov	 edi, eax

; 502  : 
; 503  : 	int nPgHeight = abs( infoHeader.biHeight );

  0013c	8b 45 b4	 mov	 eax, DWORD PTR _infoHeader$[ebp+4]
  0013f	0f af 45 ec	 imul	 eax, DWORD PTR _bitCount$1$[ebp]
  00143	33 fa		 xor	 edi, edx
  00145	2b fa		 sub	 edi, edx
  00147	89 7d f0	 mov	 DWORD PTR _nPgHeight$1$[ebp], edi

; 504  : 	int nPgWidth  = infoHeader.biWidth;
; 505  : 
; 506  : 	nPgWidth *= bitCount;
; 507  : 	nLgWidth *= bitCount;

  0014a	8b d0		 mov	 edx, eax
  0014c	89 45 ec	 mov	 DWORD PTR _nPgWidth$1$[ebp], eax

; 508  : 	nLgWidth += ( ( nLgWidth % 4 ) ? ( 4 - nLgWidth % 4 ) : 0 );

  0014f	8b ca		 mov	 ecx, edx
  00151	81 e1 03 00 00
	80		 and	 ecx, -2147483645	; 80000003H
  00157	79 05		 jns	 SHORT $LN47@LoadBMP
  00159	49		 dec	 ecx
  0015a	83 c9 fc	 or	 ecx, -4			; fffffffcH
  0015d	41		 inc	 ecx
$LN47@LoadBMP:
  0015e	b8 04 00 00 00	 mov	 eax, 4
  00163	2b c1		 sub	 eax, ecx
  00165	f7 d9		 neg	 ecx
  00167	1b c9		 sbb	 ecx, ecx

; 509  : 
; 510  : 	LPBYTE pTempDst = lpNewData + ( nPgWidth * ( nPgHeight - 1 ) );

  00169	4f		 dec	 edi
  0016a	0f af 7d ec	 imul	 edi, DWORD PTR _nPgWidth$1$[ebp]
  0016e	23 c8		 and	 ecx, eax
  00170	03 d1		 add	 edx, ecx
  00172	89 55 e4	 mov	 DWORD PTR _nLgWidth$1$[ebp], edx
  00175	03 7d e8	 add	 edi, DWORD PTR _lpNewData$1$[ebp]

; 511  : 
; 512  : 	for( int i = 0; i < nPgHeight; i++ )

  00178	83 7d f0 00	 cmp	 DWORD PTR _nPgHeight$1$[ebp], 0
  0017c	7e 1b		 jle	 SHORT $LN3@LoadBMP
  0017e	66 90		 npad	 2
$LL4@LoadBMP:

; 513  : 	{
; 514  : 		memcpy( pTempDst, lpData, nLgWidth );

  00180	52		 push	 edx
  00181	56		 push	 esi
  00182	57		 push	 edi
  00183	e8 00 00 00 00	 call	 _memcpy

; 515  : 		lpData += nLgWidth;

  00188	8b 55 e4	 mov	 edx, DWORD PTR _nLgWidth$1$[ebp]
  0018b	83 c4 0c	 add	 esp, 12			; 0000000cH

; 516  : 		pTempDst -= nPgWidth;

  0018e	2b 7d ec	 sub	 edi, DWORD PTR _nPgWidth$1$[ebp]
  00191	03 f2		 add	 esi, edx
  00193	83 6d f0 01	 sub	 DWORD PTR _nPgHeight$1$[ebp], 1
  00197	75 e7		 jne	 SHORT $LL4@LoadBMP
$LN3@LoadBMP:

; 517  : 	}
; 518  : 	safe_delete_array( lpDataDelete );

  00199	ff 75 e0	 push	 DWORD PTR _lpDataDelete$1$[ebp]
  0019c	e8 00 00 00 00	 call	 ??_V@YAXPAX@Z		; operator delete[]

; 519  : 	lpImage->lpData = lpNewData;

  001a1	8b 45 0c	 mov	 eax, DWORD PTR _lpImage$[ebp]
  001a4	83 c4 04	 add	 esp, 4
  001a7	8b 4d e8	 mov	 ecx, DWORD PTR _lpNewData$1$[ebp]

; 521  : 	return TRUE;

  001aa	be 01 00 00 00	 mov	 esi, 1
  001af	89 08		 mov	 DWORD PTR [eax], ecx
  001b1	c7 40 0c 02 00
	00 00		 mov	 DWORD PTR [eax+12], 2
$LN17@LoadBMP:
; File C:\IAGOS\server\v18\Source\Source\_Common\File.h

; 17   : 	virtual ~CFileIO() { Close(); }

  001b8	8d 4d d8	 lea	 ecx, DWORD PTR _file$[ebp]
  001bb	c7 45 fc 04 00
	00 00		 mov	 DWORD PTR __$EHRec$[ebp+8], 4
  001c2	c7 45 d8 00 00
	00 00		 mov	 DWORD PTR _file$[ebp], OFFSET ??_7CFileIO@@6B@
  001c9	e8 00 00 00 00	 call	 ?Close@CFileIO@@UAEHXZ	; CFileIO::Close
; File C:\IAGOS\server\v18\Source\Source\_Common\vutil.cpp

; 521  : 	return TRUE;

  001ce	8b c6		 mov	 eax, esi

; 522  : }

  001d0	8b 4d f4	 mov	 ecx, DWORD PTR __$EHRec$[ebp]
  001d3	64 89 0d 00 00
	00 00		 mov	 DWORD PTR fs:0, ecx
  001da	59		 pop	 ecx
  001db	5f		 pop	 edi
  001dc	5e		 pop	 esi
  001dd	8b e5		 mov	 esp, ebp
  001df	5d		 pop	 ebp
  001e0	c3		 ret	 0
_TEXT	ENDS
;	COMDAT text$x
text$x	SEGMENT
__unwindfunclet$?LoadBMP@@YAHPBDPAUIMAGE@@@Z$0:
  00000	8d 4d d8	 lea	 ecx, DWORD PTR _file$[ebp]
  00003	e9 00 00 00 00	 jmp	 ??1CFileIO@@UAE@XZ	; CFileIO::~CFileIO
  00008	cc		 int	 3
  00009	cc		 int	 3
  0000a	cc		 int	 3
  0000b	cc		 int	 3
  0000c	cc		 int	 3
__ehhandler$?LoadBMP@@YAHPBDPAUIMAGE@@@Z:
  0000d	90		 npad	 1
  0000e	90		 npad	 1
  0000f	8b 54 24 08	 mov	 edx, DWORD PTR [esp+8]
  00013	8d 42 0c	 lea	 eax, DWORD PTR [edx+12]
  00016	8b 4a b0	 mov	 ecx, DWORD PTR [edx-80]
  00019	33 c8		 xor	 ecx, eax
  0001b	e8 00 00 00 00	 call	 @__security_check_cookie@4
  00020	b8 00 00 00 00	 mov	 eax, OFFSET __ehfuncinfo$?LoadBMP@@YAHPBDPAUIMAGE@@@Z
  00025	e9 00 00 00 00	 jmp	 ___CxxFrameHandler3
text$x	ENDS
?LoadBMP@@YAHPBDPAUIMAGE@@@Z ENDP			; LoadBMP
; Function compile flags: /Ogtp
; File C:\IAGOS\server\v18\Source\Source\_Common\vutil.cpp
; File C:\Program Files (x86)\Windows Kits\10\Include\10.0.26100.0\ucrt\string.h
; File C:\IAGOS\server\v18\Source\Source\_Common\vutil.cpp
; File C:\Program Files (x86)\Windows Kits\10\Include\10.0.26100.0\ucrt\string.h
; File C:\IAGOS\server\v18\Source\Source\_Common\vutil.cpp
;	COMDAT ?LoadImageA@@YAHPBDPAUIMAGE@@@Z
_TEXT	SEGMENT
_szFileName$ = -264					; size = 260
__$ArrayPad$ = -4					; size = 4
_lpszFileName$ = 8					; size = 4
_lpImage$ = 12						; size = 4
?LoadImageA@@YAHPBDPAUIMAGE@@@Z PROC			; LoadImageA, COMDAT

; 423  : {

  00000	55		 push	 ebp
  00001	8b ec		 mov	 ebp, esp
  00003	81 ec 08 01 00
	00		 sub	 esp, 264		; 00000108H
  00009	a1 00 00 00 00	 mov	 eax, DWORD PTR ___security_cookie
  0000e	33 c5		 xor	 eax, ebp
  00010	89 45 fc	 mov	 DWORD PTR __$ArrayPad$[ebp], eax
  00013	56		 push	 esi
  00014	8b 75 08	 mov	 esi, DWORD PTR _lpszFileName$[ebp]
  00017	8d 95 f8 fe ff
	ff		 lea	 edx, DWORD PTR _szFileName$[ebp]
  0001d	57		 push	 edi
  0001e	8b 7d 0c	 mov	 edi, DWORD PTR _lpImage$[ebp]

; 424  : 	TCHAR szFileName[ MAX_PATH ];
; 425  : 	strcpy( szFileName, lpszFileName );

  00021	8b ce		 mov	 ecx, esi
  00023	2b d6		 sub	 edx, esi
$LL6@LoadImageA:
  00025	8a 01		 mov	 al, BYTE PTR [ecx]
  00027	8d 49 01	 lea	 ecx, DWORD PTR [ecx+1]
  0002a	88 44 0a ff	 mov	 BYTE PTR [edx+ecx-1], al
  0002e	84 c0		 test	 al, al
  00030	75 f3		 jne	 SHORT $LL6@LoadImageA

; 426  : 	strlwr( szFileName );

  00032	8d 85 f8 fe ff
	ff		 lea	 eax, DWORD PTR _szFileName$[ebp]
  00038	50		 push	 eax
  00039	e8 00 00 00 00	 call	 _strlwr
; File C:\Program Files (x86)\Windows Kits\10\Include\10.0.26100.0\ucrt\string.h

; 520  :         return const_cast<char*>(strstr(static_cast<char const*>(_String), _SubString));

  0003e	8d 85 f8 fe ff
	ff		 lea	 eax, DWORD PTR _szFileName$[ebp]
  00044	68 00 00 00 00	 push	 OFFSET ??_C@_04JCAPCJAP@?4tga@
  00049	50		 push	 eax
  0004a	e8 00 00 00 00	 call	 _strstr
  0004f	83 c4 0c	 add	 esp, 12			; 0000000cH
; File C:\IAGOS\server\v18\Source\Source\_Common\vutil.cpp

; 427  : 	if( strstr( szFileName, ".tga" ) )

  00052	85 c0		 test	 eax, eax
  00054	74 1a		 je	 SHORT $LN2@LoadImageA

; 428  : 	{
; 429  : 		return LoadTGA( lpszFileName, lpImage );

  00056	57		 push	 edi
  00057	56		 push	 esi
  00058	e8 00 00 00 00	 call	 ?LoadTGA@@YAHPBDPAUIMAGE@@@Z ; LoadTGA
  0005d	83 c4 08	 add	 esp, 8
  00060	5f		 pop	 edi

; 435  : 	}				
; 436  : 	return FALSE;
; 437  : }

  00061	5e		 pop	 esi
  00062	8b 4d fc	 mov	 ecx, DWORD PTR __$ArrayPad$[ebp]
  00065	33 cd		 xor	 ecx, ebp
  00067	e8 00 00 00 00	 call	 @__security_check_cookie@4
  0006c	8b e5		 mov	 esp, ebp
  0006e	5d		 pop	 ebp
  0006f	c3		 ret	 0
$LN2@LoadImageA:
; File C:\Program Files (x86)\Windows Kits\10\Include\10.0.26100.0\ucrt\string.h

; 520  :         return const_cast<char*>(strstr(static_cast<char const*>(_String), _SubString));

  00070	8d 85 f8 fe ff
	ff		 lea	 eax, DWORD PTR _szFileName$[ebp]
  00076	68 00 00 00 00	 push	 OFFSET ??_C@_04LJDDIHIK@?4bmp@
  0007b	50		 push	 eax
  0007c	e8 00 00 00 00	 call	 _strstr
  00081	83 c4 08	 add	 esp, 8
; File C:\IAGOS\server\v18\Source\Source\_Common\vutil.cpp

; 432  : 	if( strstr( szFileName, ".bmp" ) )

  00084	85 c0		 test	 eax, eax
  00086	74 1a		 je	 SHORT $LN4@LoadImageA

; 433  : 	{
; 434  : 		return LoadBMP( lpszFileName, lpImage );

  00088	57		 push	 edi
  00089	56		 push	 esi
  0008a	e8 00 00 00 00	 call	 ?LoadBMP@@YAHPBDPAUIMAGE@@@Z ; LoadBMP
  0008f	83 c4 08	 add	 esp, 8
  00092	5f		 pop	 edi

; 435  : 	}				
; 436  : 	return FALSE;
; 437  : }

  00093	5e		 pop	 esi
  00094	8b 4d fc	 mov	 ecx, DWORD PTR __$ArrayPad$[ebp]
  00097	33 cd		 xor	 ecx, ebp
  00099	e8 00 00 00 00	 call	 @__security_check_cookie@4
  0009e	8b e5		 mov	 esp, ebp
  000a0	5d		 pop	 ebp
  000a1	c3		 ret	 0
$LN4@LoadImageA:
  000a2	8b 4d fc	 mov	 ecx, DWORD PTR __$ArrayPad$[ebp]
  000a5	33 c0		 xor	 eax, eax
  000a7	5f		 pop	 edi
  000a8	33 cd		 xor	 ecx, ebp
  000aa	5e		 pop	 esi
  000ab	e8 00 00 00 00	 call	 @__security_check_cookie@4
  000b0	8b e5		 mov	 esp, ebp
  000b2	5d		 pop	 ebp
  000b3	c3		 ret	 0
?LoadImageA@@YAHPBDPAUIMAGE@@@Z ENDP			; LoadImageA
_TEXT	ENDS
; Function compile flags: /Ogtp
; File C:\IAGOS\server\v18\Source\Source\_Common\vutil.cpp
;	COMDAT ?AdjustSize@@YAXPAUtagSIZE@@@Z
_TEXT	SEGMENT
_dwTemp$ = -4						; size = 2
_pSize$ = 8						; size = 4
?AdjustSize@@YAXPAUtagSIZE@@@Z PROC			; AdjustSize, COMDAT

; 390  : {

  00000	55		 push	 ebp
  00001	8b ec		 mov	 ebp, esp
  00003	51		 push	 ecx
  00004	56		 push	 esi
  00005	57		 push	 edi

; 391  : 	// »çŔĚÁî¸¦ 2ŔÇ ŔÚ˝ÂŔ¸·Î ąŮ˛Ů±â 
; 392  : 	WORD dwTemp = 0x8000;
; 393  : 	for( int i = 0; i < 16; i++ )
; 394  : 	{
; 395  : 		if( pSize->cx & dwTemp )

  00006	8b 7d 08	 mov	 edi, DWORD PTR _pSize$[ebp]
  00009	33 c9		 xor	 ecx, ecx
  0000b	c7 45 fc 00 80
	00 00		 mov	 DWORD PTR _dwTemp$[ebp], 32768 ; 00008000H
  00012	66 8b 45 fc	 mov	 ax, WORD PTR _dwTemp$[ebp]
  00016	8b 17		 mov	 edx, DWORD PTR [edi]
$LL4@AdjustSize:
  00018	0f b7 f0	 movzx	 esi, ax
  0001b	85 d6		 test	 edx, esi
  0001d	75 0f		 jne	 SHORT $LN15@AdjustSize

; 401  : 			}
; 402  : 			break;
; 403  : 		}
; 404  : 		dwTemp >>= 1;

  0001f	66 d1 e8	 shr	 ax, 1
  00022	41		 inc	 ecx
  00023	66 89 45 fc	 mov	 WORD PTR _dwTemp$[ebp], ax
  00027	83 f9 10	 cmp	 ecx, 16			; 00000010H
  0002a	7c ec		 jl	 SHORT $LL4@AdjustSize

; 405  : 	}
; 406  : 	dwTemp = 0x8000;
; 407  : 	for( int i = 0; i < 16; i++ )
; 408  : 	{
; 409  : 		if( pSize->cy & dwTemp )

  0002c	eb 13		 jmp	 SHORT $LN9@AdjustSize
$LN15@AdjustSize:

; 396  : 		{
; 397  : 			if( pSize->cx % dwTemp )

  0002e	8b c2		 mov	 eax, edx
  00030	99		 cdq
  00031	f7 fe		 idiv	 esi
  00033	85 d2		 test	 edx, edx
  00035	74 0a		 je	 SHORT $LN9@AdjustSize

; 398  : 			{
; 399  : 				dwTemp <<= 1;

  00037	8b 45 fc	 mov	 eax, DWORD PTR _dwTemp$[ebp]
  0003a	03 c0		 add	 eax, eax

; 400  : 				pSize->cx = dwTemp;

  0003c	0f b7 c0	 movzx	 eax, ax
  0003f	89 07		 mov	 DWORD PTR [edi], eax
$LN9@AdjustSize:

; 405  : 	}
; 406  : 	dwTemp = 0x8000;
; 407  : 	for( int i = 0; i < 16; i++ )
; 408  : 	{
; 409  : 		if( pSize->cy & dwTemp )

  00041	8b 57 04	 mov	 edx, DWORD PTR [edi+4]
  00044	33 c9		 xor	 ecx, ecx
  00046	c7 45 fc 00 80
	00 00		 mov	 DWORD PTR _dwTemp$[ebp], 32768 ; 00008000H
  0004d	66 8b 45 fc	 mov	 ax, WORD PTR _dwTemp$[ebp]
$LL7@AdjustSize:
  00051	0f b7 f0	 movzx	 esi, ax
  00054	85 d6		 test	 edx, esi
  00056	75 13		 jne	 SHORT $LN16@AdjustSize

; 415  : 			}
; 416  : 			break;
; 417  : 		}
; 418  : 		dwTemp >>= 1;

  00058	66 d1 e8	 shr	 ax, 1
  0005b	41		 inc	 ecx
  0005c	66 89 45 fc	 mov	 WORD PTR _dwTemp$[ebp], ax
  00060	83 f9 10	 cmp	 ecx, 16			; 00000010H
  00063	7c ec		 jl	 SHORT $LL7@AdjustSize

; 419  : 	}
; 420  : 	//return size;
; 421  : }

  00065	5f		 pop	 edi
  00066	5e		 pop	 esi
  00067	8b e5		 mov	 esp, ebp
  00069	5d		 pop	 ebp
  0006a	c3		 ret	 0
$LN16@AdjustSize:

; 410  : 		{
; 411  : 			if( pSize->cy % dwTemp )

  0006b	8b c2		 mov	 eax, edx
  0006d	99		 cdq
  0006e	f7 fe		 idiv	 esi
  00070	85 d2		 test	 edx, edx
  00072	74 0b		 je	 SHORT $LN11@AdjustSize

; 412  : 			{
; 413  : 				dwTemp <<= 1;

  00074	8b 45 fc	 mov	 eax, DWORD PTR _dwTemp$[ebp]
  00077	03 c0		 add	 eax, eax

; 414  : 				pSize->cy = dwTemp;

  00079	0f b7 c0	 movzx	 eax, ax
  0007c	89 47 04	 mov	 DWORD PTR [edi+4], eax
$LN11@AdjustSize:

; 419  : 	}
; 420  : 	//return size;
; 421  : }

  0007f	5f		 pop	 edi
  00080	5e		 pop	 esi
  00081	8b e5		 mov	 esp, ebp
  00083	5d		 pop	 ebp
  00084	c3		 ret	 0
?AdjustSize@@YAXPAUtagSIZE@@@Z ENDP			; AdjustSize
_TEXT	ENDS
; Function compile flags: /Ogtp
; File C:\IAGOS\server\v18\Source\Source\_Common\vutil.cpp
;	COMDAT ?PaintTexture@@YAXPAXPAUIMAGE@@VCPoint@@VCSize@@W4_D3DFORMAT@@@Z
_TEXT	SEGMENT
_pDestData$GSCopy$1$ = -2096				; size = 4
tv1384 = -2092						; size = 4
tv1388 = -2092						; size = 4
tv1392 = -2092						; size = 4
_dwLine$1$ = -2088					; size = 4
_pImage$GSCopy$1$ = -2084				; size = 4
_dwOffsetSrc$1$ = -2080					; size = 4
_pSrc$1$ = -2076					; size = 4
_y$1$ = -2076						; size = 4
_pSrc$1$ = -2076					; size = 4
_sizeTexture$1$ = -2072					; size = 4
$T1 = -2072						; size = 4
_nSizeSurface$1$ = -2068				; size = 4
_y$1$ = -2064						; size = 4
_y$1$ = -2064						; size = 4
_pSrc$1$ = -2064					; size = 4
$T2 = -2064						; size = 4
_sizeTexture$2$ = -2060					; size = 4
_byData1$1$ = -2053					; size = 1
_byData1$1$ = -2053					; size = 1
_szFile$3 = -2052					; size = 2048
__$ArrayPad$ = -4					; size = 4
_pDestData$ = 8						; size = 4
_pImage$ = 12						; size = 4
_pt$ = 16						; size = 8
_sizeSurface$ = 24					; size = 8
_d3dFormat$ = 32					; size = 4
?PaintTexture@@YAXPAXPAUIMAGE@@VCPoint@@VCSize@@W4_D3DFORMAT@@@Z PROC ; PaintTexture, COMDAT

; 251  : {

  00000	55		 push	 ebp
  00001	8b ec		 mov	 ebp, esp
  00003	81 ec 30 08 00
	00		 sub	 esp, 2096		; 00000830H
  00009	a1 00 00 00 00	 mov	 eax, DWORD PTR ___security_cookie
  0000e	33 c5		 xor	 eax, ebp
  00010	89 45 fc	 mov	 DWORD PTR __$ArrayPad$[ebp], eax
  00013	8b 45 08	 mov	 eax, DWORD PTR _pDestData$[ebp]
  00016	53		 push	 ebx
  00017	8b 5d 0c	 mov	 ebx, DWORD PTR _pImage$[ebp]
  0001a	56		 push	 esi
  0001b	57		 push	 edi

; 252  : 	memset( g_szCrashClient, 0, sizeof(char) * 1024 );

  0001c	68 00 04 00 00	 push	 1024			; 00000400H
  00021	6a 00		 push	 0
  00023	68 00 00 00 00	 push	 OFFSET ?g_szCrashClient@@3PADA ; g_szCrashClient
  00028	89 85 d0 f7 ff
	ff		 mov	 DWORD PTR _pDestData$GSCopy$1$[ebp], eax
  0002e	89 9d dc f7 ff
	ff		 mov	 DWORD PTR _pImage$GSCopy$1$[ebp], ebx
  00034	e8 00 00 00 00	 call	 _memset

; 253  : 
; 254  : 	strcat( g_szCrashClient, "\nPaintTexture - IN" );

  00039	b9 00 00 00 00	 mov	 ecx, OFFSET ?g_szCrashClient@@3PADA ; g_szCrashClient
  0003e	83 c4 0c	 add	 esp, 12			; 0000000cH
  00041	49		 dec	 ecx
$LL87@PaintTextu:
  00042	8a 41 01	 mov	 al, BYTE PTR [ecx+1]
  00045	8d 49 01	 lea	 ecx, DWORD PTR [ecx+1]
  00048	84 c0		 test	 al, al
  0004a	75 f6		 jne	 SHORT $LL87@PaintTextu
  0004c	a1 00 00 00 00	 mov	 eax, DWORD PTR ??_C@_0BD@EAALEJKH@?6PaintTexture?5?9?5IN@

; 255  : 
; 256  : 	SIZE sizeTexture = pImage->size;
; 257  : 	DWORD dwOffsetSrc = 0;
; 258  : 	DWORD dwOffsetDest = ( pt.y * sizeSurface.cx + pt.x );

  00051	8b 75 18	 mov	 esi, DWORD PTR _sizeSurface$[ebp]
  00054	89 01		 mov	 DWORD PTR [ecx], eax
  00056	a1 04 00 00 00	 mov	 eax, DWORD PTR ??_C@_0BD@EAALEJKH@?6PaintTexture?5?9?5IN@+4
  0005b	89 41 04	 mov	 DWORD PTR [ecx+4], eax
  0005e	a1 08 00 00 00	 mov	 eax, DWORD PTR ??_C@_0BD@EAALEJKH@?6PaintTexture?5?9?5IN@+8
  00063	89 41 08	 mov	 DWORD PTR [ecx+8], eax
  00066	a1 0c 00 00 00	 mov	 eax, DWORD PTR ??_C@_0BD@EAALEJKH@?6PaintTexture?5?9?5IN@+12

; 259  : 	DWORD dwLine = sizeSurface.cx - sizeTexture.cx;
; 260  : 	int nSizeSurface = sizeSurface.cx * sizeSurface.cy;
; 261  : 
; 262  : 	static char szstrError[128];
; 263  : 
; 264  : 	sprintf( szstrError, "\nSurface %d %d, Pt %d %d IMG_BIT = %d, D3DFORMAT = %d", sizeSurface.cx, sizeSurface.cy, pt.x, pt.y, pImage->nImgBit, d3dFormat );

  0006b	ff 75 20	 push	 DWORD PTR _d3dFormat$[ebp]
  0006e	89 41 0c	 mov	 DWORD PTR [ecx+12], eax
  00071	66 a1 10 00 00
	00		 mov	 ax, WORD PTR ??_C@_0BD@EAALEJKH@?6PaintTexture?5?9?5IN@+16
  00077	66 89 41 10	 mov	 WORD PTR [ecx+16], ax
  0007b	a0 12 00 00 00	 mov	 al, BYTE PTR ??_C@_0BD@EAALEJKH@?6PaintTexture?5?9?5IN@+18
  00080	8b 55 14	 mov	 edx, DWORD PTR _pt$[ebp+4]
  00083	88 41 12	 mov	 BYTE PTR [ecx+18], al
  00086	8b 43 08	 mov	 eax, DWORD PTR [ebx+8]
  00089	8b 7b 04	 mov	 edi, DWORD PTR [ebx+4]
  0008c	8b de		 mov	 ebx, esi
  0008e	8b 4d 10	 mov	 ecx, DWORD PTR _pt$[ebp]
  00091	89 85 f4 f7 ff
	ff		 mov	 DWORD PTR _sizeTexture$2$[ebp], eax
  00097	8b c6		 mov	 eax, esi
  00099	2b c7		 sub	 eax, edi
  0009b	89 bd e8 f7 ff
	ff		 mov	 DWORD PTR _sizeTexture$1$[ebp], edi
  000a1	89 85 d8 f7 ff
	ff		 mov	 DWORD PTR _dwLine$1$[ebp], eax
  000a7	8b 45 1c	 mov	 eax, DWORD PTR _sizeSurface$[ebp+4]
  000aa	8b f8		 mov	 edi, eax
  000ac	0f af fe	 imul	 edi, esi
  000af	0f af da	 imul	 ebx, edx
  000b2	c7 85 e0 f7 ff
	ff 00 00 00 00	 mov	 DWORD PTR _dwOffsetSrc$1$[ebp], 0
  000bc	89 bd ec f7 ff
	ff		 mov	 DWORD PTR _nSizeSurface$1$[ebp], edi
  000c2	8b bd dc f7 ff
	ff		 mov	 edi, DWORD PTR _pImage$GSCopy$1$[ebp]
  000c8	03 d9		 add	 ebx, ecx
  000ca	ff 77 0c	 push	 DWORD PTR [edi+12]
  000cd	52		 push	 edx
  000ce	51		 push	 ecx
  000cf	50		 push	 eax
  000d0	56		 push	 esi
  000d1	68 00 00 00 00	 push	 OFFSET ??_C@_0DG@EONEHPLE@?6Surface?5?$CFd?5?$CFd?0?5Pt?5?$CFd?5?$CFd?5IMG_BI@
  000d6	68 00 00 00 00	 push	 OFFSET ?szstrError@?1??PaintTexture@@YAXPAXPAUIMAGE@@VCPoint@@VCSize@@W4_D3DFORMAT@@@Z@4PADA
  000db	e8 00 00 00 00	 call	 _sprintf

; 265  : 	strcat( g_szCrashClient, szstrError );

  000e0	ba 00 00 00 00	 mov	 edx, OFFSET ?szstrError@?1??PaintTexture@@YAXPAXPAUIMAGE@@VCPoint@@VCSize@@W4_D3DFORMAT@@@Z@4PADA
  000e5	83 c4 20	 add	 esp, 32			; 00000020H
  000e8	8b f2		 mov	 esi, edx
  000ea	66 0f 1f 44 00
	00		 npad	 6
$LL88@PaintTextu:
  000f0	8a 02		 mov	 al, BYTE PTR [edx]
  000f2	42		 inc	 edx
  000f3	84 c0		 test	 al, al
  000f5	75 f9		 jne	 SHORT $LL88@PaintTextu
  000f7	bf 00 00 00 00	 mov	 edi, OFFSET ?g_szCrashClient@@3PADA ; g_szCrashClient
  000fc	2b d6		 sub	 edx, esi
  000fe	4f		 dec	 edi
  000ff	90		 npad	 1
$LL89@PaintTextu:
  00100	8a 47 01	 mov	 al, BYTE PTR [edi+1]
  00103	47		 inc	 edi
  00104	84 c0		 test	 al, al
  00106	75 f8		 jne	 SHORT $LL89@PaintTextu

; 266  : 
; 267  : 	if( d3dFormat == D3DFMT_A4R4G4B4 )

  00108	8b 45 20	 mov	 eax, DWORD PTR _d3dFormat$[ebp]
  0010b	8b ca		 mov	 ecx, edx
  0010d	c1 e9 02	 shr	 ecx, 2
  00110	f3 a5		 rep movsd
  00112	8b ca		 mov	 ecx, edx
  00114	83 e1 03	 and	 ecx, 3
  00117	f3 a4		 rep movsb
  00119	83 f8 1a	 cmp	 eax, 26			; 0000001aH
  0011c	0f 85 8b 02 00
	00		 jne	 $LN26@PaintTextu

; 268  : 	{
; 269  : 		LPWORD pDest = (LPWORD) pDestData;
; 270  : 		LPBYTE pSrc = pImage->lpData;

  00122	8b 8d dc f7 ff
	ff		 mov	 ecx, DWORD PTR _pImage$GSCopy$1$[ebp]

; 271  : 		if( pImage->nImgBit == IMGBIT_24 )

  00128	8b 41 0c	 mov	 eax, DWORD PTR [ecx+12]
  0012b	8b 31		 mov	 esi, DWORD PTR [ecx]
  0012d	89 b5 e4 f7 ff
	ff		 mov	 DWORD PTR _pSrc$1$[ebp], esi
  00133	83 f8 02	 cmp	 eax, 2
  00136	0f 85 5c 01 00
	00		 jne	 $LN28@PaintTextu

; 272  : 		{
; 273  : 			for( int y = pt.y; y < pt.y + sizeTexture.cy; y++, dwOffsetDest += dwLine )

  0013c	8b 55 14	 mov	 edx, DWORD PTR _pt$[ebp+4]
  0013f	8b 85 f4 f7 ff
	ff		 mov	 eax, DWORD PTR _sizeTexture$2$[ebp]
  00145	03 c2		 add	 eax, edx
  00147	89 95 f0 f7 ff
	ff		 mov	 DWORD PTR _y$1$[ebp], edx
  0014d	3b d0		 cmp	 edx, eax
  0014f	0f 8d 20 04 00
	00		 jge	 $LN21@PaintTextu
  00155	8b 55 10	 mov	 edx, DWORD PTR _pt$[ebp]
  00158	8b 75 14	 mov	 esi, DWORD PTR _pt$[ebp+4]
  0015b	0f 1f 44 00 00	 npad	 5
$LL4@PaintTextu:

; 274  : 			{
; 275  : 				for( int x = pt.x; x < pt.x + sizeTexture.cx; x++, dwOffsetSrc += 3, dwOffsetDest++ )

  00160	8b 85 e8 f7 ff
	ff		 mov	 eax, DWORD PTR _sizeTexture$1$[ebp]
  00166	03 c2		 add	 eax, edx
  00168	89 85 d4 f7 ff
	ff		 mov	 DWORD PTR tv1392[ebp], eax
  0016e	3b d0		 cmp	 edx, eax
  00170	0f 8d f4 00 00
	00		 jge	 $LN2@PaintTextu
  00176	8b b5 e0 f7 ff
	ff		 mov	 esi, DWORD PTR _dwOffsetSrc$1$[ebp]
  0017c	8b fa		 mov	 edi, edx
  0017e	8b 95 e4 f7 ff
	ff		 mov	 edx, DWORD PTR _pSrc$1$[ebp]
  00184	8b 85 ec f7 ff
	ff		 mov	 eax, DWORD PTR _nSizeSurface$1$[ebp]
  0018a	83 c2 02	 add	 edx, 2
  0018d	03 d6		 add	 edx, esi
  0018f	90		 npad	 1
$LL7@PaintTextu:

; 276  : 				{
; 277  : 					if( dwOffsetDest >= 0 && (DWORD)dwOffsetDest < (DWORD)nSizeSurface )

  00190	3b d8		 cmp	 ebx, eax
  00192	73 5f		 jae	 SHORT $LN5@PaintTextu

; 278  : 					{
; 279  : 						DWORD bitcount = pImage->nImgBit / 8;
; 280  : //						if( dwOffsetSrc >= pImage->dwSize )
; 281  : 						if( pImage->dwSize != pImage->dwSizeBak )

  00194	8b 41 10	 mov	 eax, DWORD PTR [ecx+16]
  00197	3b 41 14	 cmp	 eax, DWORD PTR [ecx+20]
  0019a	75 6f		 jne	 SHORT $LN57@PaintTextu

; 290  : 
; 291  : //							dwOffsetSrc = si
; 292  : 							break;
; 293  : 						}
; 294  : 
; 295  : 						BYTE byData1 = pSrc[ dwOffsetSrc + 0 ] >> 4; 

  0019c	8a 4a fe	 mov	 cl, BYTE PTR [edx-2]

; 296  : 						BYTE byData2 = pSrc[ dwOffsetSrc + 1 ] >> 4; 

  0019f	8a 62 ff	 mov	 ah, BYTE PTR [edx-1]

; 297  : 						BYTE byData3 = pSrc[ dwOffsetSrc + 2 ] >> 4; 

  001a2	8a 02		 mov	 al, BYTE PTR [edx]
  001a4	c0 e9 04	 shr	 cl, 4
  001a7	c0 ec 04	 shr	 ah, 4
  001aa	c0 e8 04	 shr	 al, 4
  001ad	88 8d fb f7 ff
	ff		 mov	 BYTE PTR _byData1$1$[ebp], cl

; 298  : 						// żř·ˇ ŔÖ´ř ąč°ćŔ» ş¸Á¸ÇĎ±â Ŕ§ÇŘĽ­ ff00ff¸é ÂďÁö ľĘ´Â´Ů.
; 299  : 						if( byData1 != 0xf || byData2 != 0 || byData3 != 0xf )

  001b3	80 f9 0f	 cmp	 cl, 15			; 0000000fH
  001b6	75 08		 jne	 SHORT $LN33@PaintTextu
  001b8	84 e4		 test	 ah, ah
  001ba	75 04		 jne	 SHORT $LN33@PaintTextu
  001bc	3a c1		 cmp	 al, cl
  001be	74 27		 je	 SHORT $LN91@PaintTextu
$LN33@PaintTextu:

; 300  : 							pDest[ dwOffsetDest ] = 0xf000 | ( byData3 << 8 ) | ( byData2 << 4 ) | byData1;

  001c0	0c f0		 or	 al, 240			; 000000f0H
  001c2	0f b6 c8	 movzx	 ecx, al
  001c5	66 c1 e1 04	 shl	 cx, 4
  001c9	0f b6 c4	 movzx	 eax, ah
  001cc	66 0b c8	 or	 cx, ax
  001cf	0f b6 85 fb f7
	ff ff		 movzx	 eax, BYTE PTR _byData1$1$[ebp]
  001d6	66 c1 e1 04	 shl	 cx, 4
  001da	66 0b c8	 or	 cx, ax
  001dd	8b 85 d0 f7 ff
	ff		 mov	 eax, DWORD PTR _pDestData$GSCopy$1$[ebp]
  001e3	66 89 0c 58	 mov	 WORD PTR [eax+ebx*2], cx
$LN91@PaintTextu:

; 274  : 			{
; 275  : 				for( int x = pt.x; x < pt.x + sizeTexture.cx; x++, dwOffsetSrc += 3, dwOffsetDest++ )

  001e7	8b 8d dc f7 ff
	ff		 mov	 ecx, DWORD PTR _pImage$GSCopy$1$[ebp]
  001ed	8b 85 ec f7 ff
	ff		 mov	 eax, DWORD PTR _nSizeSurface$1$[ebp]
$LN5@PaintTextu:
  001f3	83 c6 03	 add	 esi, 3
  001f6	47		 inc	 edi
  001f7	83 c2 03	 add	 edx, 3
  001fa	89 b5 e0 f7 ff
	ff		 mov	 DWORD PTR _dwOffsetSrc$1$[ebp], esi
  00200	43		 inc	 ebx
  00201	3b bd d4 f7 ff
	ff		 cmp	 edi, DWORD PTR tv1392[ebp]
  00207	7c 87		 jl	 SHORT $LL7@PaintTextu
  00209	eb 59		 jmp	 SHORT $LN95@PaintTextu
$LN57@PaintTextu:

; 282  : 						{
; 283  : 							
; 284  : 							char szFile[2048] = { 0 };

  0020b	68 00 08 00 00	 push	 2048			; 00000800H
  00210	8d 85 fc f7 ff
	ff		 lea	 eax, DWORD PTR _szFile$3[ebp]
  00216	6a 00		 push	 0
  00218	50		 push	 eax
  00219	e8 00 00 00 00	 call	 _memset

; 285  : 
; 286  : 							sprintf( szFile, "D3DFMT_A4R4G4B4 ERROR IMGBIT_24\n Current = %d   Tex X = %d, Y = %d  [%d,%d]\n LINE = %d\n Size = %d", dwOffsetSrc, sizeTexture.cx, sizeTexture.cy, sizeSurface.cx, sizeSurface.cy, dwLine, pImage->dwSize );

  0021e	8b bd dc f7 ff
	ff		 mov	 edi, DWORD PTR _pImage$GSCopy$1$[ebp]
  00224	8d 85 fc f7 ff
	ff		 lea	 eax, DWORD PTR _szFile$3[ebp]
  0022a	ff 77 10	 push	 DWORD PTR [edi+16]
  0022d	ff b5 d8 f7 ff
	ff		 push	 DWORD PTR _dwLine$1$[ebp]
  00233	ff 75 1c	 push	 DWORD PTR _sizeSurface$[ebp+4]
  00236	ff 75 18	 push	 DWORD PTR _sizeSurface$[ebp]
  00239	ff b5 f4 f7 ff
	ff		 push	 DWORD PTR _sizeTexture$2$[ebp]
  0023f	ff b5 e8 f7 ff
	ff		 push	 DWORD PTR _sizeTexture$1$[ebp]
  00245	56		 push	 esi
  00246	68 00 00 00 00	 push	 OFFSET ??_C@_0GC@NMPFDOHB@D3DFMT_A4R4G4B4?5ERROR?5IMGBIT_24@
  0024b	50		 push	 eax
  0024c	e8 00 00 00 00	 call	 _sprintf
  00251	83 c4 30	 add	 esp, 48			; 00000030H

; 287  : 							//if( byData4 )
; 288  : 							//	pDest[ dwOffsetDest ] = ( byData4 << 12 ) | ( byData3 << 8 ) | ( byData2 << 4 ) | byData1;
; 289  : 							AfxMessageBox(szFile, MB_OKCANCEL);

  00254	8d 85 fc f7 ff
	ff		 lea	 eax, DWORD PTR _szFile$3[ebp]
  0025a	6a 00		 push	 0
  0025c	6a 01		 push	 1
  0025e	50		 push	 eax
  0025f	e8 00 00 00 00	 call	 ?AfxMessageBox@@YGHPBDII@Z ; AfxMessageBox
$LN95@PaintTextu:

; 272  : 		{
; 273  : 			for( int y = pt.y; y < pt.y + sizeTexture.cy; y++, dwOffsetDest += dwLine )

  00264	8b 75 14	 mov	 esi, DWORD PTR _pt$[ebp+4]
  00267	8b 55 10	 mov	 edx, DWORD PTR _pt$[ebp]
$LN2@PaintTextu:
  0026a	8b 8d f0 f7 ff
	ff		 mov	 ecx, DWORD PTR _y$1$[ebp]
  00270	8b 85 f4 f7 ff
	ff		 mov	 eax, DWORD PTR _sizeTexture$2$[ebp]
  00276	41		 inc	 ecx
  00277	03 9d d8 f7 ff
	ff		 add	 ebx, DWORD PTR _dwLine$1$[ebp]
  0027d	03 c6		 add	 eax, esi
  0027f	89 8d f0 f7 ff
	ff		 mov	 DWORD PTR _y$1$[ebp], ecx
  00285	3b c8		 cmp	 ecx, eax
  00287	8b 8d dc f7 ff
	ff		 mov	 ecx, DWORD PTR _pImage$GSCopy$1$[ebp]
  0028d	0f 8c cd fe ff
	ff		 jl	 $LL4@PaintTextu

; 301  : 					}
; 302  : 				}
; 303  : 			}
; 304  : 		}

  00293	e9 dd 02 00 00	 jmp	 $LN21@PaintTextu
$LN28@PaintTextu:

; 305  : 		else
; 306  : 		if( pImage->nImgBit == IMGBIT_32 )

  00298	83 f8 03	 cmp	 eax, 3
  0029b	0f 85 d4 02 00
	00		 jne	 $LN21@PaintTextu

; 307  : 		{
; 308  : 			for( int y = pt.y; y < pt.y + sizeTexture.cy; y++, dwOffsetDest += dwLine )

  002a1	8b 55 14	 mov	 edx, DWORD PTR _pt$[ebp+4]
  002a4	8b 8d f4 f7 ff
	ff		 mov	 ecx, DWORD PTR _sizeTexture$2$[ebp]
  002aa	89 95 f0 f7 ff
	ff		 mov	 DWORD PTR _y$1$[ebp], edx
  002b0	8d 04 0a	 lea	 eax, DWORD PTR [edx+ecx]
  002b3	3b d0		 cmp	 edx, eax
  002b5	0f 8d ba 02 00
	00		 jge	 $LN21@PaintTextu
  002bb	0f 1f 44 00 00	 npad	 5
$LL10@PaintTextu:

; 309  : 			{
; 310  : 				for( int x = pt.x; x < pt.x + sizeTexture.cx; x++, dwOffsetSrc += 4, dwOffsetDest++ )

  002c0	8b 7d 10	 mov	 edi, DWORD PTR _pt$[ebp]
  002c3	8b 85 e8 f7 ff
	ff		 mov	 eax, DWORD PTR _sizeTexture$1$[ebp]
  002c9	03 c7		 add	 eax, edi
  002cb	89 85 d4 f7 ff
	ff		 mov	 DWORD PTR tv1388[ebp], eax
  002d1	3b f8		 cmp	 edi, eax
  002d3	0f 8d af 00 00
	00		 jge	 $LN8@PaintTextu
  002d9	8b 95 e0 f7 ff
	ff		 mov	 edx, DWORD PTR _dwOffsetSrc$1$[ebp]
  002df	83 c6 02	 add	 esi, 2
  002e2	8b 85 ec f7 ff
	ff		 mov	 eax, DWORD PTR _nSizeSurface$1$[ebp]
  002e8	03 f2		 add	 esi, edx
  002ea	66 0f 1f 44 00
	00		 npad	 6
$LL13@PaintTextu:

; 311  : 				{
; 312  : 					if( dwOffsetDest >= 0 && (DWORD)dwOffsetDest < (DWORD)nSizeSurface )

  002f0	3b d8		 cmp	 ebx, eax
  002f2	73 62		 jae	 SHORT $LN11@PaintTextu

; 313  : 					{
; 314  : 						if( dwOffsetSrc >= (DWORD)( (sizeTexture.cx * sizeTexture.cy * 4) ) )

  002f4	8b c1		 mov	 eax, ecx
  002f6	0f af 85 e8 f7
	ff ff		 imul	 eax, DWORD PTR _sizeTexture$1$[ebp]
  002fd	c1 e0 02	 shl	 eax, 2
  00300	3b d0		 cmp	 edx, eax
  00302	73 6a		 jae	 SHORT $LN58@PaintTextu

; 325  : 						
; 326  : 
; 327  : 						BYTE byData4 = pSrc[ dwOffsetSrc + 3 ] >> 4; 

  00304	8a 66 01	 mov	 ah, BYTE PTR [esi+1]
  00307	c0 ec 04	 shr	 ah, 4

; 328  : 						// żř·ˇ ŔÖ´ř ąč°ćŔ» ş¸Á¸ÇĎ±â Ŕ§ÇŘĽ­ ľËĆÄ°ŞŔĚ ŔüÇô ľřŔ¸¸é ÂďÁö ľĘ´Â´Ů.
; 329  : 						if( byData4 )

  0030a	84 e4		 test	 ah, ah
  0030c	74 42		 je	 SHORT $LN92@PaintTextu

; 319  : 							break;
; 320  : 						}
; 321  : 
; 322  : 						BYTE byData1 = pSrc[ dwOffsetSrc + 0 ] >> 4; 
; 323  : 						BYTE byData2 = pSrc[ dwOffsetSrc + 1 ] >> 4; 
; 324  : 						BYTE byData3 = pSrc[ dwOffsetSrc + 2 ] >> 4; 

  0030e	8a 06		 mov	 al, BYTE PTR [esi]
  00310	c0 e8 04	 shr	 al, 4

; 330  : 							pDest[ dwOffsetDest ] = ( byData4 << 12 ) | ( byData3 << 8 ) | ( byData2 << 4 ) | byData1;

  00313	0f b6 c8	 movzx	 ecx, al
  00316	0f b6 c4	 movzx	 eax, ah
  00319	66 c1 e0 04	 shl	 ax, 4
  0031d	66 0b c8	 or	 cx, ax
  00320	8a 46 ff	 mov	 al, BYTE PTR [esi-1]
  00323	c0 e8 04	 shr	 al, 4
  00326	0f b6 c0	 movzx	 eax, al
  00329	66 c1 e1 04	 shl	 cx, 4
  0032d	66 0b c8	 or	 cx, ax
  00330	8a 46 fe	 mov	 al, BYTE PTR [esi-2]
  00333	c0 e8 04	 shr	 al, 4
  00336	66 c1 e1 04	 shl	 cx, 4
  0033a	0f b6 c0	 movzx	 eax, al
  0033d	66 0b c8	 or	 cx, ax
  00340	8b 85 d0 f7 ff
	ff		 mov	 eax, DWORD PTR _pDestData$GSCopy$1$[ebp]
  00346	66 89 0c 58	 mov	 WORD PTR [eax+ebx*2], cx
  0034a	8b 8d f4 f7 ff
	ff		 mov	 ecx, DWORD PTR _sizeTexture$2$[ebp]
$LN92@PaintTextu:

; 309  : 			{
; 310  : 				for( int x = pt.x; x < pt.x + sizeTexture.cx; x++, dwOffsetSrc += 4, dwOffsetDest++ )

  00350	8b 85 ec f7 ff
	ff		 mov	 eax, DWORD PTR _nSizeSurface$1$[ebp]
$LN11@PaintTextu:
  00356	47		 inc	 edi
  00357	83 c2 04	 add	 edx, 4
  0035a	83 c6 04	 add	 esi, 4
  0035d	89 95 e0 f7 ff
	ff		 mov	 DWORD PTR _dwOffsetSrc$1$[ebp], edx
  00363	43		 inc	 ebx
  00364	3b bd d4 f7 ff
	ff		 cmp	 edi, DWORD PTR tv1388[ebp]
  0036a	7c 84		 jl	 SHORT $LL13@PaintTextu
  0036c	eb 14		 jmp	 SHORT $LN97@PaintTextu
$LN58@PaintTextu:

; 315  : 						{
; 316  : 							//if( byData4 )
; 317  : 							//	pDest[ dwOffsetDest ] = ( byData4 << 12 ) | ( byData3 << 8 ) | ( byData2 << 4 ) | byData1;
; 318  : 							AfxMessageBox(" D3DFMT_A4R4G4B4 ERROR IMGBIT_32", MB_OK );

  0036e	6a 00		 push	 0
  00370	6a 00		 push	 0
  00372	68 00 00 00 00	 push	 OFFSET ??_C@_0CB@FIMJOGAK@?5D3DFMT_A4R4G4B4?5ERROR?5IMGBIT_3@
  00377	e8 00 00 00 00	 call	 ?AfxMessageBox@@YGHPBDII@Z ; AfxMessageBox
  0037c	8b 8d f4 f7 ff
	ff		 mov	 ecx, DWORD PTR _sizeTexture$2$[ebp]
$LN97@PaintTextu:

; 307  : 		{
; 308  : 			for( int y = pt.y; y < pt.y + sizeTexture.cy; y++, dwOffsetDest += dwLine )

  00382	8b b5 e4 f7 ff
	ff		 mov	 esi, DWORD PTR _pSrc$1$[ebp]
$LN8@PaintTextu:
  00388	8b bd f0 f7 ff
	ff		 mov	 edi, DWORD PTR _y$1$[ebp]
  0038e	8b 45 14	 mov	 eax, DWORD PTR _pt$[ebp+4]
  00391	47		 inc	 edi
  00392	03 9d d8 f7 ff
	ff		 add	 ebx, DWORD PTR _dwLine$1$[ebp]
  00398	03 c1		 add	 eax, ecx
  0039a	89 bd f0 f7 ff
	ff		 mov	 DWORD PTR _y$1$[ebp], edi
  003a0	3b f8		 cmp	 edi, eax
  003a2	0f 8c 18 ff ff
	ff		 jl	 $LL10@PaintTextu

; 331  : 					}
; 332  : 				}
; 333  : 			}
; 334  : 		}
; 335  : 	}

  003a8	e9 c8 01 00 00	 jmp	 $LN21@PaintTextu
$LN26@PaintTextu:

; 336  : 	else
; 337  : 	if( d3dFormat == D3DFMT_A8R8G8B8 )

  003ad	83 f8 15	 cmp	 eax, 21			; 00000015H
  003b0	0f 85 bf 01 00
	00		 jne	 $LN21@PaintTextu

; 338  : 	{
; 339  : 		LPDWORD pDest = (LPDWORD) pDestData;
; 340  : 		if( pImage->nImgBit == IMGBIT_24 )

  003b6	8b 85 dc f7 ff
	ff		 mov	 eax, DWORD PTR _pImage$GSCopy$1$[ebp]
  003bc	8b 48 0c	 mov	 ecx, DWORD PTR [eax+12]
  003bf	83 f9 02	 cmp	 ecx, 2
  003c2	0f 85 0f 01 00
	00		 jne	 $LN39@PaintTextu

; 341  : 		{
; 342  : 			LPBYTE pSrc = pImage->lpData;
; 343  : 			for( int y = pt.y; y < pt.y + sizeTexture.cy; y++, dwOffsetDest += dwLine )

  003c8	8b 55 14	 mov	 edx, DWORD PTR _pt$[ebp+4]
  003cb	8b 8d f4 f7 ff
	ff		 mov	 ecx, DWORD PTR _sizeTexture$2$[ebp]
  003d1	8b 30		 mov	 esi, DWORD PTR [eax]
  003d3	89 b5 f0 f7 ff
	ff		 mov	 DWORD PTR _pSrc$1$[ebp], esi
  003d9	89 95 e4 f7 ff
	ff		 mov	 DWORD PTR _y$1$[ebp], edx
  003df	8d 04 0a	 lea	 eax, DWORD PTR [edx+ecx]
  003e2	3b d0		 cmp	 edx, eax
  003e4	0f 8d 8b 01 00
	00		 jge	 $LN21@PaintTextu
  003ea	66 0f 1f 44 00
	00		 npad	 6
$LL16@PaintTextu:

; 344  : 			{
; 345  : 				for( int x = pt.x; x < pt.x + sizeTexture.cx; x++, dwOffsetSrc += 3, dwOffsetDest++ )

  003f0	8b 7d 10	 mov	 edi, DWORD PTR _pt$[ebp]
  003f3	8b 85 e8 f7 ff
	ff		 mov	 eax, DWORD PTR _sizeTexture$1$[ebp]
  003f9	03 c7		 add	 eax, edi
  003fb	89 85 d4 f7 ff
	ff		 mov	 DWORD PTR tv1384[ebp], eax
  00401	3b f8		 cmp	 edi, eax
  00403	0f 8d a9 00 00
	00		 jge	 $LN14@PaintTextu
  00409	8b 95 e0 f7 ff
	ff		 mov	 edx, DWORD PTR _dwOffsetSrc$1$[ebp]
  0040f	83 c6 02	 add	 esi, 2
  00412	8b 85 ec f7 ff
	ff		 mov	 eax, DWORD PTR _nSizeSurface$1$[ebp]
  00418	03 f2		 add	 esi, edx
  0041a	66 0f 1f 44 00
	00		 npad	 6
$LL19@PaintTextu:

; 346  : 				{
; 347  : 					if( dwOffsetDest >= 0 && (DWORD)dwOffsetDest < (DWORD)nSizeSurface )

  00420	3b d8		 cmp	 ebx, eax
  00422	73 5c		 jae	 SHORT $LN17@PaintTextu

; 348  : 					{
; 349  : 						if( dwOffsetSrc >= (DWORD)( (sizeTexture.cx * sizeTexture.cy * 2 ) ) )

  00424	8b c1		 mov	 eax, ecx
  00426	0f af 85 e8 f7
	ff ff		 imul	 eax, DWORD PTR _sizeTexture$1$[ebp]
  0042d	03 c0		 add	 eax, eax
  0042f	3b d0		 cmp	 edx, eax
  00431	73 65		 jae	 SHORT $LN59@PaintTextu

; 354  : 							break;
; 355  : 						}
; 356  : 
; 357  : 						BYTE byData1 = pSrc[ dwOffsetSrc + 0 ]; 

  00433	8a 66 fe	 mov	 ah, BYTE PTR [esi-2]

; 358  : 						BYTE byData2 = pSrc[ dwOffsetSrc + 1 ]; 

  00436	8a 46 ff	 mov	 al, BYTE PTR [esi-1]

; 359  : 						BYTE byData3 = pSrc[ dwOffsetSrc + 2 ]; 

  00439	8a 0e		 mov	 cl, BYTE PTR [esi]
  0043b	88 a5 fb f7 ff
	ff		 mov	 BYTE PTR _byData1$1$[ebp], ah

; 360  : 						// żř·ˇ ŔÖ´ř ąč°ćŔ» ş¸Á¸ÇĎ±â Ŕ§ÇŘĽ­ ff00ff¸é ÂďÁö ľĘ´Â´Ů.
; 361  : 						if( byData1 != 0xff || byData2 != 0 || byData3 != 0xff )

  00441	80 fc ff	 cmp	 ah, 255			; 000000ffH
  00444	75 08		 jne	 SHORT $LN44@PaintTextu
  00446	84 c0		 test	 al, al
  00448	75 04		 jne	 SHORT $LN44@PaintTextu
  0044a	3a cc		 cmp	 cl, ah
  0044c	74 26		 je	 SHORT $LN93@PaintTextu
$LN44@PaintTextu:

; 362  : 							pDest[ dwOffsetDest ] = 0xf000 | ( byData3 << 16 ) | ( byData2 << 8 ) | byData1;

  0044e	0f b6 c9	 movzx	 ecx, cl
  00451	c1 e1 08	 shl	 ecx, 8
  00454	0f b6 c0	 movzx	 eax, al
  00457	0b c8		 or	 ecx, eax
  00459	0f b6 85 fb f7
	ff ff		 movzx	 eax, BYTE PTR _byData1$1$[ebp]
  00460	81 c9 f0 00 00
	00		 or	 ecx, 240		; 000000f0H
  00466	c1 e1 08	 shl	 ecx, 8
  00469	0b c8		 or	 ecx, eax
  0046b	8b 85 d0 f7 ff
	ff		 mov	 eax, DWORD PTR _pDestData$GSCopy$1$[ebp]
  00471	89 0c 98	 mov	 DWORD PTR [eax+ebx*4], ecx
$LN93@PaintTextu:

; 344  : 			{
; 345  : 				for( int x = pt.x; x < pt.x + sizeTexture.cx; x++, dwOffsetSrc += 3, dwOffsetDest++ )

  00474	8b 8d f4 f7 ff
	ff		 mov	 ecx, DWORD PTR _sizeTexture$2$[ebp]
  0047a	8b 85 ec f7 ff
	ff		 mov	 eax, DWORD PTR _nSizeSurface$1$[ebp]
$LN17@PaintTextu:
  00480	47		 inc	 edi
  00481	83 c2 03	 add	 edx, 3
  00484	83 c6 03	 add	 esi, 3
  00487	89 95 e0 f7 ff
	ff		 mov	 DWORD PTR _dwOffsetSrc$1$[ebp], edx
  0048d	43		 inc	 ebx
  0048e	3b bd d4 f7 ff
	ff		 cmp	 edi, DWORD PTR tv1384[ebp]
  00494	7c 8a		 jl	 SHORT $LL19@PaintTextu
  00496	eb 14		 jmp	 SHORT $LN96@PaintTextu
$LN59@PaintTextu:

; 350  : 						{
; 351  : 							//if( byData4 )
; 352  : 							//	pDest[ dwOffsetDest ] = ( byData4 << 12 ) | ( byData3 << 8 ) | ( byData2 << 4 ) | byData1;
; 353  : 							AfxMessageBox(" D3DFMT_A8R8G8B8 ERROR IMGBIT_24", MB_OK );

  00498	6a 00		 push	 0
  0049a	6a 00		 push	 0
  0049c	68 00 00 00 00	 push	 OFFSET ??_C@_0CB@JOHHHILL@?5D3DFMT_A8R8G8B8?5ERROR?5IMGBIT_2@
  004a1	e8 00 00 00 00	 call	 ?AfxMessageBox@@YGHPBDII@Z ; AfxMessageBox
  004a6	8b 8d f4 f7 ff
	ff		 mov	 ecx, DWORD PTR _sizeTexture$2$[ebp]
$LN96@PaintTextu:

; 341  : 		{
; 342  : 			LPBYTE pSrc = pImage->lpData;
; 343  : 			for( int y = pt.y; y < pt.y + sizeTexture.cy; y++, dwOffsetDest += dwLine )

  004ac	8b b5 f0 f7 ff
	ff		 mov	 esi, DWORD PTR _pSrc$1$[ebp]
$LN14@PaintTextu:
  004b2	8b bd e4 f7 ff
	ff		 mov	 edi, DWORD PTR _y$1$[ebp]
  004b8	8b 45 14	 mov	 eax, DWORD PTR _pt$[ebp+4]
  004bb	47		 inc	 edi
  004bc	03 9d d8 f7 ff
	ff		 add	 ebx, DWORD PTR _dwLine$1$[ebp]
  004c2	03 c1		 add	 eax, ecx
  004c4	89 bd e4 f7 ff
	ff		 mov	 DWORD PTR _y$1$[ebp], edi
  004ca	3b f8		 cmp	 edi, eax
  004cc	0f 8c 1e ff ff
	ff		 jl	 $LL16@PaintTextu

; 363  : 					}
; 364  : 				}
; 365  : 			}
; 366  : 		}

  004d2	e9 9e 00 00 00	 jmp	 $LN21@PaintTextu
$LN39@PaintTextu:

; 367  : 		else
; 368  : 		if( pImage->nImgBit == IMGBIT_32 )

  004d7	83 f9 03	 cmp	 ecx, 3
  004da	0f 85 95 00 00
	00		 jne	 $LN21@PaintTextu

; 369  : 		{
; 370  : 			LPDWORD pSrc = (LPDWORD)pImage->lpData;
; 371  : 			for( int y = pt.y; y < pt.y + sizeTexture.cy; y++, dwOffsetDest += dwLine )

  004e0	8b 7d 14	 mov	 edi, DWORD PTR _pt$[ebp+4]
  004e3	8b 95 f4 f7 ff
	ff		 mov	 edx, DWORD PTR _sizeTexture$2$[ebp]
  004e9	8b 08		 mov	 ecx, DWORD PTR [eax]
  004eb	03 d7		 add	 edx, edi
  004ed	89 8d e4 f7 ff
	ff		 mov	 DWORD PTR _pSrc$1$[ebp], ecx
  004f3	3b fa		 cmp	 edi, edx
  004f5	7d 7e		 jge	 SHORT $LN21@PaintTextu

; 372  : 			{
; 373  : 				for( int x = pt.x; x < pt.x + sizeTexture.cx; x++, dwOffsetSrc++, dwOffsetDest++ )

  004f7	8b 85 e8 f7 ff
	ff		 mov	 eax, DWORD PTR _sizeTexture$1$[ebp]
  004fd	03 45 10	 add	 eax, DWORD PTR _pt$[ebp]
  00500	2b d7		 sub	 edx, edi
  00502	8b b5 ec f7 ff
	ff		 mov	 esi, DWORD PTR _nSizeSurface$1$[ebp]
  00508	8b bd d0 f7 ff
	ff		 mov	 edi, DWORD PTR _pDestData$GSCopy$1$[ebp]
  0050e	89 85 f0 f7 ff
	ff		 mov	 DWORD PTR $T2[ebp], eax
  00514	8b 45 10	 mov	 eax, DWORD PTR _pt$[ebp]
  00517	89 95 e8 f7 ff
	ff		 mov	 DWORD PTR $T1[ebp], edx
  0051d	0f 1f 00	 npad	 3
$LL22@PaintTextu:
  00520	3b 85 f0 f7 ff
	ff		 cmp	 eax, DWORD PTR $T2[ebp]
  00526	7d 3c		 jge	 SHORT $LN20@PaintTextu
  00528	8b 95 f0 f7 ff
	ff		 mov	 edx, DWORD PTR $T2[ebp]
  0052e	2b d0		 sub	 edx, eax
  00530	8b 85 e0 f7 ff
	ff		 mov	 eax, DWORD PTR _dwOffsetSrc$1$[ebp]
$LL25@PaintTextu:

; 374  : 				{
; 375  : 					if( dwOffsetDest >= 0 && (DWORD)dwOffsetDest < (DWORD)nSizeSurface )

  00536	3b de		 cmp	 ebx, esi
  00538	73 14		 jae	 SHORT $LN23@PaintTextu

; 376  : 					{
; 377  : 						// żř·ˇ ŔÖ´ř ąč°ćŔ» ş¸Á¸ÇĎ±â Ŕ§ÇŘĽ­ ľËĆÄ°ŞŔĚ ŔüÇô ľřŔ¸¸é ÂďÁö ľĘ´Â´Ů.
; 378  : 						if( pSrc[ dwOffsetSrc ] & 0xff000000 )

  0053a	8b 0c 81	 mov	 ecx, DWORD PTR [ecx+eax*4]
  0053d	f7 c1 00 00 00
	ff		 test	 ecx, -16777216		; ff000000H
  00543	74 03		 je	 SHORT $LN94@PaintTextu

; 379  : 							pDest[ dwOffsetDest ] = pSrc[ dwOffsetSrc ];//yData4 << 24 ) | ( byData3 << 16 ) | ( byData2 << 8 ) | byData1;

  00545	89 0c 9f	 mov	 DWORD PTR [edi+ebx*4], ecx
$LN94@PaintTextu:

; 372  : 			{
; 373  : 				for( int x = pt.x; x < pt.x + sizeTexture.cx; x++, dwOffsetSrc++, dwOffsetDest++ )

  00548	8b 8d e4 f7 ff
	ff		 mov	 ecx, DWORD PTR _pSrc$1$[ebp]
$LN23@PaintTextu:
  0054e	40		 inc	 eax
  0054f	43		 inc	 ebx
  00550	83 ea 01	 sub	 edx, 1
  00553	75 e1		 jne	 SHORT $LL25@PaintTextu
  00555	8b 95 e8 f7 ff
	ff		 mov	 edx, DWORD PTR $T1[ebp]
  0055b	89 85 e0 f7 ff
	ff		 mov	 DWORD PTR _dwOffsetSrc$1$[ebp], eax
  00561	8b 45 10	 mov	 eax, DWORD PTR _pt$[ebp]
$LN20@PaintTextu:

; 369  : 		{
; 370  : 			LPDWORD pSrc = (LPDWORD)pImage->lpData;
; 371  : 			for( int y = pt.y; y < pt.y + sizeTexture.cy; y++, dwOffsetDest += dwLine )

  00564	03 9d d8 f7 ff
	ff		 add	 ebx, DWORD PTR _dwLine$1$[ebp]
  0056a	83 ea 01	 sub	 edx, 1
  0056d	89 95 e8 f7 ff
	ff		 mov	 DWORD PTR $T1[ebp], edx
  00573	75 ab		 jne	 SHORT $LL22@PaintTextu
$LN21@PaintTextu:

; 380  : 					}
; 381  : 				}
; 382  : 			}
; 383  : 		}
; 384  : 	}
; 385  : 
; 386  : 	strcat( g_szCrashClient, "\nPaintTexture - OUT" );

  00575	5f		 pop	 edi
  00576	b9 00 00 00 00	 mov	 ecx, OFFSET ?g_szCrashClient@@3PADA ; g_szCrashClient
  0057b	5e		 pop	 esi
  0057c	49		 dec	 ecx
  0057d	5b		 pop	 ebx
  0057e	66 90		 npad	 2
$LL90@PaintTextu:
  00580	8a 41 01	 mov	 al, BYTE PTR [ecx+1]
  00583	8d 49 01	 lea	 ecx, DWORD PTR [ecx+1]
  00586	84 c0		 test	 al, al
  00588	75 f6		 jne	 SHORT $LL90@PaintTextu
  0058a	a1 00 00 00 00	 mov	 eax, DWORD PTR ??_C@_0BE@KDDNLGBP@?6PaintTexture?5?9?5OUT@
  0058f	89 01		 mov	 DWORD PTR [ecx], eax
  00591	a1 04 00 00 00	 mov	 eax, DWORD PTR ??_C@_0BE@KDDNLGBP@?6PaintTexture?5?9?5OUT@+4
  00596	89 41 04	 mov	 DWORD PTR [ecx+4], eax
  00599	a1 08 00 00 00	 mov	 eax, DWORD PTR ??_C@_0BE@KDDNLGBP@?6PaintTexture?5?9?5OUT@+8
  0059e	89 41 08	 mov	 DWORD PTR [ecx+8], eax
  005a1	a1 0c 00 00 00	 mov	 eax, DWORD PTR ??_C@_0BE@KDDNLGBP@?6PaintTexture?5?9?5OUT@+12
  005a6	89 41 0c	 mov	 DWORD PTR [ecx+12], eax
  005a9	a1 10 00 00 00	 mov	 eax, DWORD PTR ??_C@_0BE@KDDNLGBP@?6PaintTexture?5?9?5OUT@+16
  005ae	89 41 10	 mov	 DWORD PTR [ecx+16], eax

; 387  : }

  005b1	8b 4d fc	 mov	 ecx, DWORD PTR __$ArrayPad$[ebp]
  005b4	33 cd		 xor	 ecx, ebp
  005b6	e8 00 00 00 00	 call	 @__security_check_cookie@4
  005bb	8b e5		 mov	 esp, ebp
  005bd	5d		 pop	 ebp
  005be	c3		 ret	 0
?PaintTexture@@YAXPAXPAUIMAGE@@VCPoint@@VCSize@@W4_D3DFORMAT@@@Z ENDP ; PaintTexture
_TEXT	ENDS
; Function compile flags: /Ogtp
; File C:\IAGOS\server\v18\Source\Source\_Common\vutil.cpp
; File C:\IAGOS\server\v18\Source\Source\_Common\File.h
; File C:\IAGOS\server\v18\Source\Source\_Common\vutil.cpp
; File C:\IAGOS\server\v18\Source\Source\_Common\File.h
; File C:\IAGOS\server\v18\Source\Source\_Common\vutil.cpp
; File C:\IAGOS\server\v18\Source\Source\_Common\File.h
; File C:\IAGOS\server\v18\Source\Source\_Common\vutil.cpp
; File C:\IAGOS\server\v18\Source\Source\_Common\File.h
; File C:\IAGOS\server\v18\Source\Source\_Common\vutil.cpp
; File C:\IAGOS\server\v18\Source\Source\_Common\File.h
; File C:\IAGOS\server\v18\Source\Source\_Common\vutil.cpp
;	COMDAT ?LoadTextureFromRes@@YAJPAUIDirect3DDevice9@@PBDIIIKW4_D3DFORMAT@@W4_D3DPOOL@@KKKPAU_D3DXIMAGE_INFO@@PAUtagPALETTEENTRY@@PAPAUIDirect3DTexture9@@@Z
_TEXT	SEGMENT
_file$ = -24						; size = 8
_nSrcDataSize$1$ = -16					; size = 4
__$EHRec$ = -12						; size = 12
_pDevice$ = 8						; size = 4
_pFileName$ = 12					; size = 4
_Width$ = 16						; size = 4
_Height$ = 20						; size = 4
_MipLevels$ = 24					; size = 4
_Usage$ = 28						; size = 4
_Format$ = 32						; size = 4
_Pool$ = 36						; size = 4
_Filter$ = 40						; size = 4
_MipFilter$ = 44					; size = 4
_ColorKey$ = 48						; size = 4
_pSrcInfo$ = 52						; size = 4
_pPalette$ = 56						; size = 4
_ppTexture$ = 60					; size = 4
?LoadTextureFromRes@@YAJPAUIDirect3DDevice9@@PBDIIIKW4_D3DFORMAT@@W4_D3DPOOL@@KKKPAU_D3DXIMAGE_INFO@@PAUtagPALETTEENTRY@@PAPAUIDirect3DTexture9@@@Z PROC ; LoadTextureFromRes, COMDAT

; 222  : {

  00000	55		 push	 ebp
  00001	8b ec		 mov	 ebp, esp
  00003	6a ff		 push	 -1
  00005	68 00 00 00 00	 push	 __ehhandler$?LoadTextureFromRes@@YAJPAUIDirect3DDevice9@@PBDIIIKW4_D3DFORMAT@@W4_D3DPOOL@@KKKPAU_D3DXIMAGE_INFO@@PAUtagPALETTEENTRY@@PAPAUIDirect3DTexture9@@@Z
  0000a	64 a1 00 00 00
	00		 mov	 eax, DWORD PTR fs:0
  00010	50		 push	 eax
  00011	83 ec 0c	 sub	 esp, 12			; 0000000cH
  00014	53		 push	 ebx
  00015	56		 push	 esi
  00016	57		 push	 edi
  00017	a1 00 00 00 00	 mov	 eax, DWORD PTR ___security_cookie
  0001c	33 c5		 xor	 eax, ebp
  0001e	50		 push	 eax
  0001f	8d 45 f4	 lea	 eax, DWORD PTR __$EHRec$[ebp]
  00022	64 a3 00 00 00
	00		 mov	 DWORD PTR fs:0, eax

; 223  : 	HRESULT hr = E_FAIL;

  00028	be 05 40 00 80	 mov	 esi, -2147467259	; 80004005H
; File C:\IAGOS\server\v18\Source\Source\_Common\File.h

; 15   : 	CFileIO() { fp = NULL; } 

  0002d	c7 45 e8 00 00
	00 00		 mov	 DWORD PTR _file$[ebp], OFFSET ??_7CFileIO@@6B@
  00034	c7 45 ec 00 00
	00 00		 mov	 DWORD PTR _file$[ebp+4], 0
; File C:\IAGOS\server\v18\Source\Source\_Common\vutil.cpp

; 225  : 	if( file.Open( pFileName, "rb" ) == FALSE )

  0003b	8b 7d 0c	 mov	 edi, DWORD PTR _pFileName$[ebp]
  0003e	8d 4d e8	 lea	 ecx, DWORD PTR _file$[ebp]
  00041	68 00 00 00 00	 push	 OFFSET ??_C@_02JDPG@rb@
  00046	57		 push	 edi
  00047	c7 45 fc 00 00
	00 00		 mov	 DWORD PTR __$EHRec$[ebp+8], 0
  0004e	e8 00 00 00 00	 call	 ?Open@CFileIO@@UAEHPBDPAD@Z ; CFileIO::Open
  00053	85 c0		 test	 eax, eax
  00055	75 13		 jne	 SHORT $LN2@LoadTextur

; 226  : 	{
; 227  : 		LPCTSTR szErr = Error( "::LoadTextureFromRes : %s not found", pFileName );

  00057	57		 push	 edi
  00058	68 00 00 00 00	 push	 OFFSET ??_C@_0CE@NBIPLAAF@?3?3LoadTextureFromRes?5?3?5?$CFs?5not?5f@
  0005d	e8 00 00 00 00	 call	 ?Error@@YAPBDPBDZZ	; Error
  00062	83 c4 08	 add	 esp, 8
  00065	e9 87 00 00 00	 jmp	 $LN8@LoadTextur
$LN2@LoadTextur:
; File C:\IAGOS\server\v18\Source\Source\_Common\File.h

; 30   : 	int  Handle() { return fileno( fp ); }

  0006a	ff 75 ec	 push	 DWORD PTR _file$[ebp+4]
  0006d	e8 00 00 00 00	 call	 _fileno

; 26   : 	virtual long GetLength() { return _filelength( Handle() ); }

  00072	50		 push	 eax
  00073	e8 00 00 00 00	 call	 __filelength
; File C:\IAGOS\server\v18\Source\Source\_Common\vutil.cpp

; 233  : 	LPBYTE pSrcData = new BYTE[ nSrcDataSize ];

  00078	50		 push	 eax
  00079	89 45 f0	 mov	 DWORD PTR _nSrcDataSize$1$[ebp], eax
  0007c	e8 00 00 00 00	 call	 ??_U@YAPAXI@Z		; operator new[]
; File C:\IAGOS\server\v18\Source\Source\_Common\File.h

; 27   : 	virtual size_t Read( void *ptr, size_t size, size_t n = 1 )	{ return fread( ptr, size, n, fp ); }

  00081	ff 75 ec	 push	 DWORD PTR _file$[ebp+4]
; File C:\IAGOS\server\v18\Source\Source\_Common\vutil.cpp

; 233  : 	LPBYTE pSrcData = new BYTE[ nSrcDataSize ];

  00084	8b d8		 mov	 ebx, eax
; File C:\IAGOS\server\v18\Source\Source\_Common\File.h

; 27   : 	virtual size_t Read( void *ptr, size_t size, size_t n = 1 )	{ return fread( ptr, size, n, fp ); }

  00086	6a 01		 push	 1
  00088	ff 75 f0	 push	 DWORD PTR _nSrcDataSize$1$[ebp]
  0008b	53		 push	 ebx
  0008c	e8 00 00 00 00	 call	 _fread
  00091	83 c4 1c	 add	 esp, 28			; 0000001cH
; File C:\IAGOS\server\v18\Source\Source\_Common\vutil.cpp

; 234  : 	if( file.Read( pSrcData, nSrcDataSize ) >= 1 )

  00094	83 f8 01	 cmp	 eax, 1
  00097	72 4b		 jb	 SHORT $LN4@LoadTextur

; 235  : 	{
; 236  : 		hr = D3DXCreateTextureFromFileInMemoryEx( pDevice,

  00099	ff 75 3c	 push	 DWORD PTR _ppTexture$[ebp]
  0009c	ff 75 38	 push	 DWORD PTR _pPalette$[ebp]
  0009f	ff 75 34	 push	 DWORD PTR _pSrcInfo$[ebp]
  000a2	ff 75 30	 push	 DWORD PTR _ColorKey$[ebp]
  000a5	ff 75 2c	 push	 DWORD PTR _MipFilter$[ebp]
  000a8	ff 75 28	 push	 DWORD PTR _Filter$[ebp]
  000ab	ff 75 24	 push	 DWORD PTR _Pool$[ebp]
  000ae	ff 75 20	 push	 DWORD PTR _Format$[ebp]
  000b1	ff 75 1c	 push	 DWORD PTR _Usage$[ebp]
  000b4	ff 75 18	 push	 DWORD PTR _MipLevels$[ebp]
  000b7	ff 75 14	 push	 DWORD PTR _Height$[ebp]
  000ba	ff 75 10	 push	 DWORD PTR _Width$[ebp]
  000bd	ff 75 f0	 push	 DWORD PTR _nSrcDataSize$1$[ebp]
  000c0	53		 push	 ebx
  000c1	ff 75 08	 push	 DWORD PTR _pDevice$[ebp]
  000c4	e8 00 00 00 00	 call	 _D3DXCreateTextureFromFileInMemoryEx@60
  000c9	8b f0		 mov	 esi, eax

; 237  : 			   pSrcData, nSrcDataSize, Width, Height, MipLevels, Usage, Format, Pool, Filter, MipFilter, ColorKey, pSrcInfo, pPalette, ppTexture );
; 238  : 		if( FAILED( hr ) )

  000cb	85 f6		 test	 esi, esi
  000cd	79 15		 jns	 SHORT $LN4@LoadTextur

; 239  : 		{
; 240  : 			LPCTSTR szErr = Error( "D3DXCreateTextureFromFileInMemoryEx %s %s", pFileName, DXGetErrorString9( hr ) );

  000cf	56		 push	 esi
  000d0	e8 00 00 00 00	 call	 _DXGetErrorString9A@4
  000d5	50		 push	 eax
  000d6	57		 push	 edi
  000d7	68 00 00 00 00	 push	 OFFSET ??_C@_0CK@EOOHBDEA@D3DXCreateTextureFromFileInMemo@
  000dc	e8 00 00 00 00	 call	 ?Error@@YAPBDPBDZZ	; Error
  000e1	83 c4 0c	 add	 esp, 12			; 0000000cH
$LN4@LoadTextur:

; 241  : 			ADDERRORMSG( szErr );
; 242  : 		}
; 243  : 	}
; 244  : 	SAFE_DELETE_ARRAY( pSrcData );

  000e4	85 db		 test	 ebx, ebx
  000e6	74 09		 je	 SHORT $LN8@LoadTextur
  000e8	53		 push	 ebx
  000e9	e8 00 00 00 00	 call	 ??_V@YAXPAX@Z		; operator delete[]
  000ee	83 c4 04	 add	 esp, 4
$LN8@LoadTextur:
; File C:\IAGOS\server\v18\Source\Source\_Common\File.h

; 17   : 	virtual ~CFileIO() { Close(); }

  000f1	8d 4d e8	 lea	 ecx, DWORD PTR _file$[ebp]
  000f4	c7 45 fc 02 00
	00 00		 mov	 DWORD PTR __$EHRec$[ebp+8], 2
  000fb	c7 45 e8 00 00
	00 00		 mov	 DWORD PTR _file$[ebp], OFFSET ??_7CFileIO@@6B@
  00102	e8 00 00 00 00	 call	 ?Close@CFileIO@@UAEHXZ	; CFileIO::Close
; File C:\IAGOS\server\v18\Source\Source\_Common\vutil.cpp

; 245  : 	return hr;

  00107	8b c6		 mov	 eax, esi

; 246  : }

  00109	8b 4d f4	 mov	 ecx, DWORD PTR __$EHRec$[ebp]
  0010c	64 89 0d 00 00
	00 00		 mov	 DWORD PTR fs:0, ecx
  00113	59		 pop	 ecx
  00114	5f		 pop	 edi
  00115	5e		 pop	 esi
  00116	5b		 pop	 ebx
  00117	8b e5		 mov	 esp, ebp
  00119	5d		 pop	 ebp
  0011a	c3		 ret	 0
_TEXT	ENDS
;	COMDAT text$x
text$x	SEGMENT
__unwindfunclet$?LoadTextureFromRes@@YAJPAUIDirect3DDevice9@@PBDIIIKW4_D3DFORMAT@@W4_D3DPOOL@@KKKPAU_D3DXIMAGE_INFO@@PAUtagPALETTEENTRY@@PAPAUIDirect3DTexture9@@@Z$0:
  00000	8d 4d e8	 lea	 ecx, DWORD PTR _file$[ebp]
  00003	e9 00 00 00 00	 jmp	 ??1CFileIO@@UAE@XZ	; CFileIO::~CFileIO
  00008	cc		 int	 3
  00009	cc		 int	 3
  0000a	cc		 int	 3
  0000b	cc		 int	 3
  0000c	cc		 int	 3
__ehhandler$?LoadTextureFromRes@@YAJPAUIDirect3DDevice9@@PBDIIIKW4_D3DFORMAT@@W4_D3DPOOL@@KKKPAU_D3DXIMAGE_INFO@@PAUtagPALETTEENTRY@@PAPAUIDirect3DTexture9@@@Z:
  0000d	90		 npad	 1
  0000e	90		 npad	 1
  0000f	8b 54 24 08	 mov	 edx, DWORD PTR [esp+8]
  00013	8d 42 0c	 lea	 eax, DWORD PTR [edx+12]
  00016	8b 4a e4	 mov	 ecx, DWORD PTR [edx-28]
  00019	33 c8		 xor	 ecx, eax
  0001b	e8 00 00 00 00	 call	 @__security_check_cookie@4
  00020	b8 00 00 00 00	 mov	 eax, OFFSET __ehfuncinfo$?LoadTextureFromRes@@YAJPAUIDirect3DDevice9@@PBDIIIKW4_D3DFORMAT@@W4_D3DPOOL@@KKKPAU_D3DXIMAGE_INFO@@PAUtagPALETTEENTRY@@PAPAUIDirect3DTexture9@@@Z
  00025	e9 00 00 00 00	 jmp	 ___CxxFrameHandler3
text$x	ENDS
?LoadTextureFromRes@@YAJPAUIDirect3DDevice9@@PBDIIIKW4_D3DFORMAT@@W4_D3DPOOL@@KKKPAU_D3DXIMAGE_INFO@@PAUtagPALETTEENTRY@@PAPAUIDirect3DTexture9@@@Z ENDP ; LoadTextureFromRes
; Function compile flags: /Ogtp
; File C:\IAGOS\server\v18\Source\Source\_Common\vutil.cpp
;	COMDAT ?LoadTextureFromRes@@YAJPAUIDirect3DDevice9@@PBDPAPAUIDirect3DTexture9@@KW4_D3DFORMAT@@@Z
_TEXT	SEGMENT
_pd3dDevice$ = 8					; size = 4
_strTexture$ = 12					; size = 4
_ppTexture$ = 16					; size = 4
_MipFilter$ = 20					; size = 4
_d3dFormat$ = 24					; size = 4
?LoadTextureFromRes@@YAJPAUIDirect3DDevice9@@PBDPAPAUIDirect3DTexture9@@KW4_D3DFORMAT@@@Z PROC ; LoadTextureFromRes, COMDAT

; 198  : {

  00000	55		 push	 ebp
  00001	8b ec		 mov	 ebp, esp

; 199  : 
; 200  :     return LoadTextureFromRes( pd3dDevice, strTexture, 

  00003	ff 75 10	 push	 DWORD PTR _ppTexture$[ebp]
  00006	6a 00		 push	 0
  00008	6a 00		 push	 0
  0000a	6a 00		 push	 0
  0000c	68 04 00 07 00	 push	 458756			; 00070004H
  00011	68 04 00 07 00	 push	 458756			; 00070004H
  00016	6a 01		 push	 1
  00018	ff 75 18	 push	 DWORD PTR _d3dFormat$[ebp]
  0001b	6a 00		 push	 0
  0001d	ff 75 14	 push	 DWORD PTR _MipFilter$[ebp]
  00020	6a ff		 push	 -1
  00022	6a ff		 push	 -1
  00024	ff 75 0c	 push	 DWORD PTR _strTexture$[ebp]
  00027	ff 75 08	 push	 DWORD PTR _pd3dDevice$[ebp]
  0002a	e8 00 00 00 00	 call	 ?LoadTextureFromRes@@YAJPAUIDirect3DDevice9@@PBDIIIKW4_D3DFORMAT@@W4_D3DPOOL@@KKKPAU_D3DXIMAGE_INFO@@PAUtagPALETTEENTRY@@PAPAUIDirect3DTexture9@@@Z ; LoadTextureFromRes
  0002f	83 c4 38	 add	 esp, 56			; 00000038H

; 201  : 		D3DX_DEFAULT, D3DX_DEFAULT, MipFilter, 0, d3dFormat, 
; 202  : 		D3DPOOL_MANAGED, D3DX_FILTER_TRIANGLE|D3DX_FILTER_MIRROR, 
; 203  : 		D3DX_FILTER_TRIANGLE|D3DX_FILTER_MIRROR, 0, NULL, NULL, ppTexture );
; 204  : }

  00032	5d		 pop	 ebp
  00033	c3		 ret	 0
?LoadTextureFromRes@@YAJPAUIDirect3DDevice9@@PBDPAPAUIDirect3DTexture9@@KW4_D3DFORMAT@@@Z ENDP ; LoadTextureFromRes
_TEXT	ENDS
; Function compile flags: /Ogtp
; File C:\IAGOS\server\v18\Source\Source\_Common\vutil.cpp
;	COMDAT ?GetStrLen@@YAHPBD@Z
_TEXT	SEGMENT
_pSrc$ = 8						; size = 4
?GetStrLen@@YAHPBD@Z PROC				; GetStrLen, COMDAT

; 38   : {

  00000	55		 push	 ebp
  00001	8b ec		 mov	 ebp, esp
  00003	8b 45 08	 mov	 eax, DWORD PTR _pSrc$[ebp]
  00006	57		 push	 edi

; 39   : 	int nCount = 0;

  00007	33 ff		 xor	 edi, edi

; 40   : 	int nOffset = 0;
; 41   : 	int nLen;
; 42   : 	
; 43   : 	while( pSrc[ nOffset ] != NULL )

  00009	80 38 00	 cmp	 BYTE PTR [eax], 0
  0000c	74 17		 je	 SHORT $LN9@GetStrLen
  0000e	56		 push	 esi
  0000f	8b f0		 mov	 esi, eax
$LL2@GetStrLen:

; 44   : 	{
; 45   : 		nLen = GetCharLen( &pSrc[ nOffset ]  );

  00011	50		 push	 eax
  00012	e8 00 00 00 00	 call	 ?GetCharLen@@YAHPBD@Z	; GetCharLen

; 46   : 		nOffset += nLen;

  00017	03 f0		 add	 esi, eax
  00019	83 c4 04	 add	 esp, 4

; 47   : 		nCount++;

  0001c	47		 inc	 edi
  0001d	8b c6		 mov	 eax, esi
  0001f	80 3e 00	 cmp	 BYTE PTR [esi], 0
  00022	75 ed		 jne	 SHORT $LL2@GetStrLen

; 40   : 	int nOffset = 0;
; 41   : 	int nLen;
; 42   : 	
; 43   : 	while( pSrc[ nOffset ] != NULL )

  00024	5e		 pop	 esi
$LN9@GetStrLen:

; 48   : 	}
; 49   : 	
; 50   : 	return nCount;
; 51   : }	

  00025	8b c7		 mov	 eax, edi
  00027	5f		 pop	 edi
  00028	5d		 pop	 ebp
  00029	c3		 ret	 0
?GetStrLen@@YAHPBD@Z ENDP				; GetStrLen
_TEXT	ENDS
; Function compile flags: /Ogtp
; File C:\IAGOS\server\v18\Source\Source\_Common\vutil.cpp
;	COMDAT ?GetStrCut@@YAHPBDPADH@Z
_TEXT	SEGMENT
_pSrc$ = 8						; size = 4
_pDest$ = 12						; size = 4
_nCount$ = 16						; size = 4
?GetStrCut@@YAHPBDPADH@Z PROC				; GetStrCut, COMDAT

; 20   : {

  00000	55		 push	 ebp
  00001	8b ec		 mov	 ebp, esp
  00003	8b 45 08	 mov	 eax, DWORD PTR _pSrc$[ebp]
  00006	53		 push	 ebx
  00007	57		 push	 edi

; 21   : 	int nOffset = 0;
; 22   : 	int nLen;
; 23   : 	
; 24   : 	while( nCount )

  00008	8b 7d 10	 mov	 edi, DWORD PTR _nCount$[ebp]
  0000b	33 db		 xor	 ebx, ebx
  0000d	85 ff		 test	 edi, edi
  0000f	74 1a		 je	 SHORT $LN3@GetStrCut
  00011	56		 push	 esi
  00012	8b f0		 mov	 esi, eax
$LL2@GetStrCut:

; 25   : 	{
; 26   : 		nLen = GetCharLen( &pSrc[ nOffset ]  );

  00014	56		 push	 esi
  00015	e8 00 00 00 00	 call	 ?GetCharLen@@YAHPBD@Z	; GetCharLen
  0001a	83 c4 04	 add	 esp, 4

; 27   : 		nOffset += nLen;

  0001d	03 d8		 add	 ebx, eax
  0001f	8d 34 06	 lea	 esi, DWORD PTR [esi+eax]

; 28   : 		nCount--;

  00022	83 ef 01	 sub	 edi, 1
  00025	75 ed		 jne	 SHORT $LL2@GetStrCut

; 21   : 	int nOffset = 0;
; 22   : 	int nLen;
; 23   : 	
; 24   : 	while( nCount )

  00027	8b 45 08	 mov	 eax, DWORD PTR _pSrc$[ebp]
  0002a	5e		 pop	 esi
$LN3@GetStrCut:

; 29   : 	}
; 30   : 	
; 31   : 	memcpy( pDest, pSrc, sizeof(char)*nOffset);

  0002b	53		 push	 ebx
  0002c	50		 push	 eax
  0002d	ff 75 0c	 push	 DWORD PTR _pDest$[ebp]
  00030	e8 00 00 00 00	 call	 _memcpy
  00035	83 c4 0c	 add	 esp, 12			; 0000000cH

; 32   : 	
; 33   : 	return 1;

  00038	b8 01 00 00 00	 mov	 eax, 1
  0003d	5f		 pop	 edi
  0003e	5b		 pop	 ebx

; 34   : }	

  0003f	5d		 pop	 ebp
  00040	c3		 ret	 0
?GetStrCut@@YAHPBDPADH@Z ENDP				; GetStrCut
_TEXT	ENDS
; Function compile flags: /Ogtp
; File C:\IAGOS\server\v18\Source\Source\_Common\vutil.cpp
; File C:\IAGOS\server\v18\Source\Source\_Common\vutil.h
; File C:\IAGOS\server\v18\Source\Source\_Common\vutil.cpp
;	COMDAT ?IsNative@@YAHPBD@Z
_TEXT	SEGMENT
_lpszStr$ = 8						; size = 4
?IsNative@@YAHPBD@Z PROC				; IsNative, COMDAT

; 69   : {

  00000	55		 push	 ebp
  00001	8b ec		 mov	 ebp, esp

; 70   : 	ASSERT( g_codePage != 0 );
; 71   : 
; 72   : 	LPCWSTR pwSrc = (LPCWSTR) lpszStr;
; 73   : 
; 74   : 	if( g_codePage == 874 ) // Ĺ¸ŔĚ 

  00003	66 a1 00 00 00
	00		 mov	 ax, WORD PTR ?g_codePage@@3GA ; g_codePage
  00009	b9 6a 03 00 00	 mov	 ecx, 874		; 0000036aH
  0000e	66 3b c1	 cmp	 ax, cx
  00011	75 10		 jne	 SHORT $LN2@IsNative

; 75   : 	{
; 76   : 		return (BYTE)*lpszStr >= 0xa1 && (BYTE)*lpszStr <= 0xfb;

  00013	8b 45 08	 mov	 eax, DWORD PTR _lpszStr$[ebp]
  00016	b1 5a		 mov	 cl, 90			; 0000005aH
  00018	8a 00		 mov	 al, BYTE PTR [eax]
  0001a	04 5f		 add	 al, 95			; 0000005fH
  0001c	3a c8		 cmp	 cl, al
  0001e	1b c0		 sbb	 eax, eax
  00020	40		 inc	 eax

; 115  : }

  00021	5d		 pop	 ebp
  00022	c3		 ret	 0
$LN2@IsNative:

; 77   : 	}
; 78   : 	else
; 79   : 	if( g_codePage == 949 ) // ÇŃ±Ű 

  00023	b9 b5 03 00 00	 mov	 ecx, 949		; 000003b5H
  00028	66 3b c1	 cmp	 ax, cx
  0002b	75 0f		 jne	 SHORT $LN4@IsNative

; 80   : 	{
; 81   : 		return IsHangul( *pwSrc );

  0002d	8b 45 08	 mov	 eax, DWORD PTR _lpszStr$[ebp]
  00030	0f b7 00	 movzx	 eax, WORD PTR [eax]
  00033	89 45 08	 mov	 DWORD PTR _lpszStr$[ebp], eax

; 115  : }

  00036	5d		 pop	 ebp

; 80   : 	{
; 81   : 		return IsHangul( *pwSrc );

  00037	e9 00 00 00 00	 jmp	 ?IsHangul@@YAHG@Z	; IsHangul
$LN4@IsNative:

; 82   : 	}
; 83   : 	else
; 84   : 	if( g_codePage == 932 ) // ŔĎş» 

  0003c	b9 a4 03 00 00	 mov	 ecx, 932		; 000003a4H
  00041	66 3b c1	 cmp	 ax, cx
  00044	75 0f		 jne	 SHORT $LN6@IsNative
$LN29@IsNative:

; 115  : }

  00046	8b 45 08	 mov	 eax, DWORD PTR _lpszStr$[ebp]
  00049	0f b6 00	 movzx	 eax, BYTE PTR [eax]
  0004c	50		 push	 eax
  0004d	ff 15 00 00 00
	00		 call	 DWORD PTR __imp__IsDBCSLeadByte@4
  00053	5d		 pop	 ebp
  00054	c3		 ret	 0
$LN6@IsNative:

; 85   : 	{
; 86   : 		return IsDBCSLeadByte( (BYTE)( *pwSrc ) );
; 87   : 	}
; 88   : 	else
; 89   : 	if( g_codePage == 936 ) // ÇŃŔÚ : Áß±ą

  00055	b9 a8 03 00 00	 mov	 ecx, 936		; 000003a8H
  0005a	66 3b c1	 cmp	 ax, cx
  0005d	74 e7		 je	 SHORT $LN29@IsNative

; 90   : 	{
; 91   : 		return IsDBCSLeadByte( (BYTE)( *pwSrc ) );
; 92   : 	}
; 93   : 	else
; 94   : 	if( g_codePage == 950 ) // ÇŃŔÚ : ´ë¸¸ 

  0005f	b9 b6 03 00 00	 mov	 ecx, 950		; 000003b6H
  00064	66 3b c1	 cmp	 ax, cx
  00067	75 39		 jne	 SHORT $LN17@IsNative

; 95   : 	{
; 96   : //		return IsDBCSLeadByte( *pwSrc );
; 97   : 
; 98   : 		if( ((BYTE)*lpszStr >= 0xCA && (BYTE)*lpszStr <= 0xFD) && ( (BYTE)*lpszStr+1 >= 0xA1 ) && ( (BYTE)*lpszStr+1 <= 0xFE) )

  00069	8b 45 08	 mov	 eax, DWORD PTR _lpszStr$[ebp]
  0006c	8a 08		 mov	 cl, BYTE PTR [eax]
  0006e	8d 41 36	 lea	 eax, DWORD PTR [ecx+54]
  00071	3c 33		 cmp	 al, 51			; 00000033H
  00073	77 0d		 ja	 SHORT $LN11@IsNative
  00075	0f b6 c1	 movzx	 eax, cl
  00078	2d a0 00 00 00	 sub	 eax, 160		; 000000a0H
  0007d	83 f8 5d	 cmp	 eax, 93			; 0000005dH
  00080	76 19		 jbe	 SHORT $LN25@IsNative
$LN11@IsNative:

; 99   : 		{
; 100  : 			return TRUE;
; 101  : 		}
; 102  : 		else
; 103  : 		if ( ( ( (BYTE)*lpszStr >= 0x41 ) && 
; 104  : 		 	 ( (BYTE)*lpszStr <= 0x5A ) ) || 

  00082	80 f9 41	 cmp	 cl, 65			; 00000041H
  00085	72 05		 jb	 SHORT $LN16@IsNative
  00087	80 f9 5a	 cmp	 cl, 90			; 0000005aH
  0008a	76 0f		 jbe	 SHORT $LN25@IsNative
$LN16@IsNative:
  0008c	8d 41 9f	 lea	 eax, DWORD PTR [ecx-97]
  0008f	3c 19		 cmp	 al, 25			; 00000019H
  00091	76 08		 jbe	 SHORT $LN25@IsNative
; File C:\IAGOS\server\v18\Source\Source\_Common\vutil.h

; 105  : 	if( c >= '0' && c <= '9' )

  00093	80 e9 30	 sub	 cl, 48			; 00000030H
  00096	80 f9 09	 cmp	 cl, 9
  00099	77 07		 ja	 SHORT $LN17@IsNative
$LN25@IsNative:
; File C:\IAGOS\server\v18\Source\Source\_Common\vutil.cpp

; 111  : 			return TRUE;

  0009b	b8 01 00 00 00	 mov	 eax, 1

; 115  : }

  000a0	5d		 pop	 ebp
  000a1	c3		 ret	 0
$LN17@IsNative:

; 112  : 		
; 113  : 	}
; 114  : 	return FALSE;

  000a2	33 c0		 xor	 eax, eax

; 115  : }

  000a4	5d		 pop	 ebp
  000a5	c3		 ret	 0
?IsNative@@YAHPBD@Z ENDP				; IsNative
_TEXT	ENDS
; Function compile flags: /Ogtp
; File C:\IAGOS\server\v18\Source\Source\_Common\vutil.cpp
;	COMDAT ?IsHangul@@YAHG@Z
_TEXT	SEGMENT
_word$ = 8						; size = 2
?IsHangul@@YAHG@Z PROC					; IsHangul, COMDAT

; 118  : {

  00000	55		 push	 ebp
  00001	8b ec		 mov	 ebp, esp

; 119  : 	BYTE l = word & 0xff;

  00003	8b 55 08	 mov	 edx, DWORD PTR _word$[ebp]

; 120  : 	BYTE h = word >> 8;

  00006	8b ca		 mov	 ecx, edx
  00008	c1 e9 08	 shr	 ecx, 8

; 121  : 
; 122  : 	// ĆŻĽö ą®ŔÚ, ŔĎľî ±âĹ¸ ľđľî FALSE
; 123  : 	if( h >= 0xa1 && h <= 0xac && l >= 0xa0 && l <= 0xff )

  0000b	8d 41 5f	 lea	 eax, DWORD PTR [ecx+95]
  0000e	3c 0b		 cmp	 al, 11			; 0000000bH
  00010	77 05		 ja	 SHORT $LN2@IsHangul
  00012	80 fa a0	 cmp	 dl, 160			; 000000a0H
  00015	73 29		 jae	 SHORT $LN4@IsHangul
$LN2@IsHangul:

; 124  : 		return FALSE;
; 125  : 	// Č®Ŕĺ żĎĽşÇü  
; 126  : 	if( h >= 0x81 && h <= 0xc6 && l >= 0x41 && l <= 0xfe )

  00017	8d 41 7f	 lea	 eax, DWORD PTR [ecx+127]
  0001a	3c 45		 cmp	 al, 69			; 00000045H
  0001c	77 0e		 ja	 SHORT $LN3@IsHangul
  0001e	8d 42 bf	 lea	 eax, DWORD PTR [edx-65]
  00021	3c bd		 cmp	 al, 189			; 000000bdH
  00023	77 07		 ja	 SHORT $LN3@IsHangul

; 130  : 		return TRUE;

  00025	b8 01 00 00 00	 mov	 eax, 1

; 132  : } 

  0002a	5d		 pop	 ebp
  0002b	c3		 ret	 0
$LN3@IsHangul:

; 127  : 		return TRUE;
; 128  : 	// żĎĽşÇü ÄÚµĺ 
; 129  : 	if( h >= 0xb0 && h <= 0xc8 && l >= 0xa1 && l <= 0xfe )

  0002c	80 c1 50	 add	 cl, 80			; 00000050H
  0002f	80 f9 18	 cmp	 cl, 24			; 00000018H
  00032	77 0c		 ja	 SHORT $LN4@IsHangul
  00034	80 c2 5f	 add	 dl, 95			; 0000005fH
  00037	b0 5d		 mov	 al, 93			; 0000005dH
  00039	3a c2		 cmp	 al, dl
  0003b	1b c0		 sbb	 eax, eax
  0003d	40		 inc	 eax

; 132  : } 

  0003e	5d		 pop	 ebp
  0003f	c3		 ret	 0
$LN4@IsHangul:

; 131  : 	return FALSE;

  00040	33 c0		 xor	 eax, eax

; 132  : } 

  00042	5d		 pop	 ebp
  00043	c3		 ret	 0
?IsHangul@@YAHG@Z ENDP					; IsHangul
_TEXT	ENDS
; Function compile flags: /Ogtp
; File C:\IAGOS\server\v18\Source\Source\_Common\vutil.cpp
;	COMDAT ?IsMultiByte@@YAHPBD@Z
_TEXT	SEGMENT
_pSrc$ = 8						; size = 4
?IsMultiByte@@YAHPBD@Z PROC				; IsMultiByte, COMDAT

; 64   : {

  00000	55		 push	 ebp
  00001	8b ec		 mov	 ebp, esp

; 65   : 	return ( CharNextEx(pSrc) - pSrc ) > 1;

  00003	0f b7 05 00 00
	00 00		 movzx	 eax, WORD PTR ?g_codePage@@3GA ; g_codePage
  0000a	50		 push	 eax
  0000b	ff 75 08	 push	 DWORD PTR _pSrc$[ebp]
  0000e	e8 00 00 00 00	 call	 ?CharNextEx@@YAPBDPBDG@Z ; CharNextEx
  00013	2b 45 08	 sub	 eax, DWORD PTR _pSrc$[ebp]
  00016	33 c9		 xor	 ecx, ecx
  00018	83 c4 08	 add	 esp, 8
  0001b	83 f8 01	 cmp	 eax, 1
  0001e	0f 9f c1	 setg	 cl
  00021	8b c1		 mov	 eax, ecx

; 66   : }

  00023	5d		 pop	 ebp
  00024	c3		 ret	 0
?IsMultiByte@@YAHPBD@Z ENDP				; IsMultiByte
_TEXT	ENDS
; Function compile flags: /Ogtp
; File C:\IAGOS\server\v18\Source\Source\_Common\vutil.cpp
;	COMDAT ?CopyChar@@YAHPBDPAD@Z
_TEXT	SEGMENT
_pSrc$ = 8						; size = 4
_pDest$ = 12						; size = 4
?CopyChar@@YAHPBDPAD@Z PROC				; CopyChar, COMDAT

; 55   : {

  00000	55		 push	 ebp
  00001	8b ec		 mov	 ebp, esp

; 56   : 	const char* pNext = CharNextEx(pSrc);

  00003	0f b7 05 00 00
	00 00		 movzx	 eax, WORD PTR ?g_codePage@@3GA ; g_codePage
  0000a	56		 push	 esi
  0000b	8b 75 08	 mov	 esi, DWORD PTR _pSrc$[ebp]
  0000e	57		 push	 edi
  0000f	50		 push	 eax
  00010	56		 push	 esi
  00011	e8 00 00 00 00	 call	 ?CharNextEx@@YAPBDPBDG@Z ; CharNextEx

; 57   : 
; 58   : 	memcpy(pDest, pSrc, pNext - pSrc);

  00016	8b f8		 mov	 edi, eax
  00018	2b fe		 sub	 edi, esi
  0001a	57		 push	 edi
  0001b	56		 push	 esi
  0001c	ff 75 0c	 push	 DWORD PTR _pDest$[ebp]
  0001f	e8 00 00 00 00	 call	 _memcpy
  00024	83 c4 14	 add	 esp, 20			; 00000014H

; 59   : 
; 60   : 	return pNext - pSrc;

  00027	8b c7		 mov	 eax, edi
  00029	5f		 pop	 edi
  0002a	5e		 pop	 esi

; 61   : }

  0002b	5d		 pop	 ebp
  0002c	c3		 ret	 0
?CopyChar@@YAHPBDPAD@Z ENDP				; CopyChar
_TEXT	ENDS
; Function compile flags: /Ogtp
; File C:\IAGOS\server\v18\Source\Source\_Common\vutil.cpp
;	COMDAT ?GetCharLen@@YAHPBD@Z
_TEXT	SEGMENT
_pStr$ = 8						; size = 4
?GetCharLen@@YAHPBD@Z PROC				; GetCharLen, COMDAT

; 13   : {

  00000	55		 push	 ebp
  00001	8b ec		 mov	 ebp, esp

; 14   : 	char* pNext = CharNext( pStr );

  00003	ff 75 08	 push	 DWORD PTR _pStr$[ebp]
  00006	ff 15 00 00 00
	00		 call	 DWORD PTR __imp__CharNextA@4

; 15   : 	return (int) (pNext - pStr );

  0000c	2b 45 08	 sub	 eax, DWORD PTR _pStr$[ebp]

; 16   : }

  0000f	5d		 pop	 ebp
  00010	c3		 ret	 0
?GetCharLen@@YAHPBD@Z ENDP				; GetCharLen
_TEXT	ENDS
; Function compile flags: /Ogtp
; File C:\IAGOS\server\v18\Source\Source\_Common\vutil.cpp
; File C:\Program Files\Microsoft Visual Studio\2022\Professional\VC\Tools\MSVC\14.44.35207\atlmfc\include\atlsimpstr.h
; File C:\IAGOS\server\v18\Source\Source\_Common\vutil.cpp
; File C:\Program Files\Microsoft Visual Studio\2022\Professional\VC\Tools\MSVC\14.44.35207\atlmfc\include\atlsimpstr.h
; File C:\IAGOS\server\v18\Source\Source\_Common\vutil.cpp
; File C:\Program Files\Microsoft Visual Studio\2022\Professional\VC\Tools\MSVC\14.44.35207\atlmfc\include\atlsimpstr.h
; File C:\IAGOS\server\v18\Source\Source\_Common\vutil.cpp
; File C:\Program Files\Microsoft Visual Studio\2022\Professional\VC\Tools\MSVC\14.44.35207\atlmfc\include\atlsimpstr.h
; File C:\IAGOS\server\v18\Source\Source\_Common\vutil.cpp
;	COMDAT ?SetStrNull@@YAXAAV?$CStringT@DV?$StrTraitMFC@DV?$ChTraitsCRT@D@ATL@@@@@ATL@@H@Z
_TEXT	SEGMENT
__$EHRec$ = -12						; size = 12
_string$ = 8						; size = 4
$T2 = 8							; size = 4
_nNullLength$ = 12					; size = 4
$T3 = 12						; size = 4
?SetStrNull@@YAXAAV?$CStringT@DV?$StrTraitMFC@DV?$ChTraitsCRT@D@ATL@@@@@ATL@@H@Z PROC ; SetStrNull, COMDAT

; 162  : {

  00000	55		 push	 ebp
  00001	8b ec		 mov	 ebp, esp
  00003	6a ff		 push	 -1
  00005	68 00 00 00 00	 push	 __ehhandler$?SetStrNull@@YAXAAV?$CStringT@DV?$StrTraitMFC@DV?$ChTraitsCRT@D@ATL@@@@@ATL@@H@Z
  0000a	64 a1 00 00 00
	00		 mov	 eax, DWORD PTR fs:0
  00010	50		 push	 eax
  00011	53		 push	 ebx
  00012	56		 push	 esi
  00013	57		 push	 edi
  00014	a1 00 00 00 00	 mov	 eax, DWORD PTR ___security_cookie
  00019	33 c5		 xor	 eax, ebp
  0001b	50		 push	 eax
  0001c	8d 45 f4	 lea	 eax, DWORD PTR __$EHRec$[ebp]
  0001f	64 a3 00 00 00
	00		 mov	 DWORD PTR fs:0, eax

; 163  : 	int nLength = string.GetLength();

  00025	8b 7d 08	 mov	 edi, DWORD PTR _string$[ebp]

; 164  : 	// 0Ŕ» łÖŔ» Ć÷ÁöĽÇŔĚ ˝ÇÁ¦ ˝şĆ®¸µ ±ćŔĚş¸´Ů ±ć¸é ˝ÇÁ¦ ˝şĆ®¸µ ±ćŔĚ·Î ¸ÂĂâ ÇĘżä°ˇ ŔÖŔ˝
; 165  : 	if( nNullLength > nLength )

  00028	8b 5d 0c	 mov	 ebx, DWORD PTR _nNullLength$[ebp]
  0002b	8b 07		 mov	 eax, DWORD PTR [edi]
  0002d	3b 58 f4	 cmp	 ebx, DWORD PTR [eax-12]
  00030	0f 4f 58 f4	 cmovg	 ebx, DWORD PTR [eax-12]

; 166  : 		nNullLength = nLength;
; 167  : 	int i = NULL;
; 168  : 	for( i = 0; i < nNullLength; )

  00034	33 f6		 xor	 esi, esi
  00036	85 db		 test	 ebx, ebx
  00038	7e 31		 jle	 SHORT $LN3@SetStrNull
  0003a	66 0f 1f 44 00
	00		 npad	 6
$LL4@SetStrNull:
; File C:\Program Files\Microsoft Visual Studio\2022\Professional\VC\Tools\MSVC\14.44.35207\atlmfc\include\atlsimpstr.h

; 373  : 		if( (iChar < 0) || (iChar > GetLength()) )

  00040	85 f6		 test	 esi, esi
  00042	0f 88 93 00 00
	00		 js	 $LN45@SetStrNull

; 523  : 		return( GetData()->nDataLength );

  00048	8b 07		 mov	 eax, DWORD PTR [edi]

; 373  : 		if( (iChar < 0) || (iChar > GetLength()) )

  0004a	3b 70 f4	 cmp	 esi, DWORD PTR [eax-12]
  0004d	0f 8f 88 00 00
	00		 jg	 $LN45@SetStrNull
; File C:\IAGOS\server\v18\Source\Source\_Common\vutil.cpp

; 177  : 		if( IsDBCSLeadByte( string[ i ] ) )

  00053	0f b6 04 30	 movzx	 eax, BYTE PTR [eax+esi]
  00057	50		 push	 eax
  00058	ff 15 00 00 00
	00		 call	 DWORD PTR __imp__IsDBCSLeadByte@4
  0005e	f7 d8		 neg	 eax
  00060	1b c0		 sbb	 eax, eax
  00062	f7 d8		 neg	 eax
  00064	40		 inc	 eax
  00065	03 f0		 add	 esi, eax
  00067	3b f3		 cmp	 esi, ebx
  00069	7c d5		 jl	 SHORT $LL4@SetStrNull
$LN3@SetStrNull:

; 178  : 			i+=2;
; 179  : 		else
; 180  : 			i++;
; 181  : 	}
; 182  : 	// i°ˇ nLength ş¸´Ů Ĺ©´Ů¸é WordÄł¸ŻĹÍŔĎ °ÍŔĚ°í, łˇşÎşĐŔĚ ±úÁ®Ľ­ żŔÂ÷°ˇ »ý±ä °ÍŔĚ´Ů.
; 183  : 	if( i > nNullLength )

  0006b	8b cf		 mov	 ecx, edi
  0006d	3b f3		 cmp	 esi, ebx
  0006f	7e 21		 jle	 SHORT $LN8@SetStrNull

; 184  : 		string = string.Left( i - 2 );

  00071	8d 46 fe	 lea	 eax, DWORD PTR [esi-2]
  00074	50		 push	 eax
  00075	8d 45 08	 lea	 eax, DWORD PTR $T2[ebp]
  00078	50		 push	 eax
  00079	e8 00 00 00 00	 call	 ?Left@?$CStringT@DV?$StrTraitMFC@DV?$ChTraitsCRT@D@ATL@@@@@ATL@@QBE?AV12@H@Z ; ATL::CStringT<char,StrTraitMFC<char,ATL::ChTraitsCRT<char> > >::Left
  0007e	50		 push	 eax
  0007f	8b cf		 mov	 ecx, edi
  00081	c7 45 fc 00 00
	00 00		 mov	 DWORD PTR __$EHRec$[ebp+8], 0
  00088	e8 00 00 00 00	 call	 ??4?$CStringT@DV?$StrTraitMFC@DV?$ChTraitsCRT@D@ATL@@@@@ATL@@QAEAAV01@ABV01@@Z ; ATL::CStringT<char,StrTraitMFC<char,ATL::ChTraitsCRT<char> > >::operator=
; File C:\Program Files\Microsoft Visual Studio\2022\Professional\VC\Tools\MSVC\14.44.35207\atlmfc\include\atlsimpstr.h

; 804  : 		return( reinterpret_cast< CStringData* >( m_pszData )-1 );

  0008d	8b 55 08	 mov	 edx, DWORD PTR $T2[ebp]
; File C:\IAGOS\server\v18\Source\Source\_Common\vutil.cpp

; 184  : 		string = string.Left( i - 2 );

  00090	eb 1c		 jmp	 SHORT $LN52@SetStrNull
$LN8@SetStrNull:

; 185  : 	else
; 186  : 		string = string.Left( i );

  00092	56		 push	 esi
  00093	8d 45 0c	 lea	 eax, DWORD PTR $T3[ebp]
  00096	50		 push	 eax
  00097	e8 00 00 00 00	 call	 ?Left@?$CStringT@DV?$StrTraitMFC@DV?$ChTraitsCRT@D@ATL@@@@@ATL@@QBE?AV12@H@Z ; ATL::CStringT<char,StrTraitMFC<char,ATL::ChTraitsCRT<char> > >::Left
  0009c	50		 push	 eax
  0009d	8b cf		 mov	 ecx, edi
  0009f	c7 45 fc 01 00
	00 00		 mov	 DWORD PTR __$EHRec$[ebp+8], 1
  000a6	e8 00 00 00 00	 call	 ??4?$CStringT@DV?$StrTraitMFC@DV?$ChTraitsCRT@D@ATL@@@@@ATL@@QAEAAV01@ABV01@@Z ; ATL::CStringT<char,StrTraitMFC<char,ATL::ChTraitsCRT<char> > >::operator=
; File C:\Program Files\Microsoft Visual Studio\2022\Professional\VC\Tools\MSVC\14.44.35207\atlmfc\include\atlsimpstr.h

; 804  : 		return( reinterpret_cast< CStringData* >( m_pszData )-1 );

  000ab	8b 55 0c	 mov	 edx, DWORD PTR $T3[ebp]
$LN52@SetStrNull:
; File C:\IAGOS\server\v18\Source\Source\_Common\vutil.cpp

; 187  : }

  000ae	83 c8 ff	 or	 eax, -1
  000b1	83 c2 f0	 add	 edx, -16		; fffffff0H
  000b4	89 45 fc	 mov	 DWORD PTR __$EHRec$[ebp+8], eax
  000b7	f0 0f c1 42 0c	 lock	  xadd	 DWORD PTR [edx+12], eax
  000bc	48		 dec	 eax
  000bd	85 c0		 test	 eax, eax
  000bf	7f 08		 jg	 SHORT $LN42@SetStrNull
  000c1	8b 0a		 mov	 ecx, DWORD PTR [edx]
  000c3	52		 push	 edx
  000c4	8b 01		 mov	 eax, DWORD PTR [ecx]
  000c6	ff 50 04	 call	 DWORD PTR [eax+4]
$LN42@SetStrNull:
  000c9	8b 4d f4	 mov	 ecx, DWORD PTR __$EHRec$[ebp]
  000cc	64 89 0d 00 00
	00 00		 mov	 DWORD PTR fs:0, ecx
  000d3	59		 pop	 ecx
  000d4	5f		 pop	 edi
  000d5	5e		 pop	 esi
  000d6	5b		 pop	 ebx
  000d7	8b e5		 mov	 esp, ebp
  000d9	5d		 pop	 ebp
  000da	c3		 ret	 0
$LN45@SetStrNull:
; File C:\Program Files\Microsoft Visual Studio\2022\Professional\VC\Tools\MSVC\14.44.35207\atlmfc\include\atlsimpstr.h

; 374  : 			AtlThrow(E_INVALIDARG);

  000db	68 57 00 07 80	 push	 -2147024809		; 80070057H
  000e0	e8 00 00 00 00	 call	 ?AtlThrowImpl@ATL@@YGXJ@Z ; ATL::AtlThrowImpl
$LN50@SetStrNull:
  000e5	cc		 int	 3
_TEXT	ENDS
;	COMDAT text$x
text$x	SEGMENT
__unwindfunclet$?SetStrNull@@YAXAAV?$CStringT@DV?$StrTraitMFC@DV?$ChTraitsCRT@D@ATL@@@@@ATL@@H@Z$0:
  00000	8d 4d 08	 lea	 ecx, DWORD PTR $T2[ebp]
  00003	e9 00 00 00 00	 jmp	 ??1?$CStringT@DV?$StrTraitMFC@DV?$ChTraitsCRT@D@ATL@@@@@ATL@@QAE@XZ ; ATL::CStringT<char,StrTraitMFC<char,ATL::ChTraitsCRT<char> > >::~CStringT<char,StrTraitMFC<char,ATL::ChTraitsCRT<char> > >
__unwindfunclet$?SetStrNull@@YAXAAV?$CStringT@DV?$StrTraitMFC@DV?$ChTraitsCRT@D@ATL@@@@@ATL@@H@Z$1:
  00008	8d 4d 0c	 lea	 ecx, DWORD PTR $T3[ebp]
  0000b	e9 00 00 00 00	 jmp	 ??1?$CStringT@DV?$StrTraitMFC@DV?$ChTraitsCRT@D@ATL@@@@@ATL@@QAE@XZ ; ATL::CStringT<char,StrTraitMFC<char,ATL::ChTraitsCRT<char> > >::~CStringT<char,StrTraitMFC<char,ATL::ChTraitsCRT<char> > >
  00010	cc		 int	 3
  00011	cc		 int	 3
  00012	cc		 int	 3
  00013	cc		 int	 3
  00014	cc		 int	 3
__ehhandler$?SetStrNull@@YAXAAV?$CStringT@DV?$StrTraitMFC@DV?$ChTraitsCRT@D@ATL@@@@@ATL@@H@Z:
  00015	90		 npad	 1
  00016	90		 npad	 1
  00017	8b 54 24 08	 mov	 edx, DWORD PTR [esp+8]
  0001b	8d 42 0c	 lea	 eax, DWORD PTR [edx+12]
  0001e	8b 4a f0	 mov	 ecx, DWORD PTR [edx-16]
  00021	33 c8		 xor	 ecx, eax
  00023	e8 00 00 00 00	 call	 @__security_check_cookie@4
  00028	b8 00 00 00 00	 mov	 eax, OFFSET __ehfuncinfo$?SetStrNull@@YAXAAV?$CStringT@DV?$StrTraitMFC@DV?$ChTraitsCRT@D@ATL@@@@@ATL@@H@Z
  0002d	e9 00 00 00 00	 jmp	 ___CxxFrameHandler3
text$x	ENDS
?SetStrNull@@YAXAAV?$CStringT@DV?$StrTraitMFC@DV?$ChTraitsCRT@D@ATL@@@@@ATL@@H@Z ENDP ; SetStrNull
; Function compile flags: /Ogtp
; File C:\IAGOS\server\v18\Source\Source\_Common\vutil.cpp
;	COMDAT ?SetStrNull@@YAXPADH@Z
_TEXT	SEGMENT
_lpStr$ = 8						; size = 4
_nNullLength$ = 12					; size = 4
?SetStrNull@@YAXPADH@Z PROC				; SetStrNull, COMDAT

; 135  : {

  00000	55		 push	 ebp
  00001	8b ec		 mov	 ebp, esp
  00003	53		 push	 ebx
  00004	8b 5d 08	 mov	 ebx, DWORD PTR _lpStr$[ebp]

; 136  : 	int nLength = strlen( lpStr );

  00007	8b cb		 mov	 ecx, ebx
  00009	56		 push	 esi
  0000a	8d 51 01	 lea	 edx, DWORD PTR [ecx+1]
  0000d	0f 1f 00	 npad	 3
$LL15@SetStrNull:
  00010	8a 01		 mov	 al, BYTE PTR [ecx]
  00012	41		 inc	 ecx
  00013	84 c0		 test	 al, al
  00015	75 f9		 jne	 SHORT $LL15@SetStrNull
  00017	2b ca		 sub	 ecx, edx
  00019	57		 push	 edi

; 137  : 	// 0Ŕ» łÖŔ» Ć÷ÁöĽÇŔĚ ˝ÇÁ¦ ˝şĆ®¸µ ±ćŔĚş¸´Ů ±ć¸é ˝ÇÁ¦ ˝şĆ®¸µ ±ćŔĚ·Î ¸ÂĂâ ÇĘżä°ˇ ŔÖŔ˝
; 138  : 	if( nNullLength > nLength )

  0001a	8b 7d 0c	 mov	 edi, DWORD PTR _nNullLength$[ebp]
  0001d	3b f9		 cmp	 edi, ecx
  0001f	0f 4f f9	 cmovg	 edi, ecx

; 139  : 		nNullLength = nLength;
; 140  : 	int i = NULL;
; 141  : 	for( i = 0; i < nNullLength; )

  00022	33 f6		 xor	 esi, esi
  00024	85 ff		 test	 edi, edi
  00026	7e 20		 jle	 SHORT $LN3@SetStrNull
  00028	0f 1f 84 00 00
	00 00 00	 npad	 8
$LL4@SetStrNull:

; 142  : 	{
; 143  : #ifdef __CLIENT
; 144  : 		if( ::GetLanguage() == LANG_THA && g_codePage == 874 ) // Ĺ¸ŔĚ 
; 145  : 			i++;
; 146  : 		else if(::GetLanguage() == LANG_VTN && g_codePage == 1258)
; 147  : 			i++;
; 148  : 		else
; 149  : #endif//__CLIENT
; 150  : 		if( IsDBCSLeadByte( lpStr[ i ] ) )

  00030	0f b6 04 33	 movzx	 eax, BYTE PTR [ebx+esi]
  00034	50		 push	 eax
  00035	ff 15 00 00 00
	00		 call	 DWORD PTR __imp__IsDBCSLeadByte@4
  0003b	f7 d8		 neg	 eax
  0003d	1b c0		 sbb	 eax, eax
  0003f	f7 d8		 neg	 eax
  00041	40		 inc	 eax
  00042	03 f0		 add	 esi, eax
  00044	3b f7		 cmp	 esi, edi
  00046	7c e8		 jl	 SHORT $LL4@SetStrNull
$LN3@SetStrNull:

; 151  : 			i+=2;
; 152  : 		else
; 153  : 			i++;
; 154  : 	}
; 155  : 	// i°ˇ nLength ş¸´Ů Ĺ©´Ů¸é WordÄł¸ŻĹÍŔĎ °ÍŔĚ°í, łˇşÎşĐŔĚ ±úÁ®Ľ­ żŔÂ÷°ˇ »ý±ä °ÍŔĚ´Ů.
; 156  : 	if( i > nNullLength )

  00048	3b f7		 cmp	 esi, edi
  0004a	5f		 pop	 edi
  0004b	7e 09		 jle	 SHORT $LN8@SetStrNull

; 157  : 		lpStr[ i - 2 ] = 0;

  0004d	c6 44 1e fe 00	 mov	 BYTE PTR [esi+ebx-2], 0
  00052	5e		 pop	 esi

; 160  : }

  00053	5b		 pop	 ebx
  00054	5d		 pop	 ebp
  00055	c3		 ret	 0
$LN8@SetStrNull:

; 158  : 	else
; 159  : 		lpStr[ i ] = 0;

  00056	c6 04 1e 00	 mov	 BYTE PTR [esi+ebx], 0
  0005a	5e		 pop	 esi

; 160  : }

  0005b	5b		 pop	 ebx
  0005c	5d		 pop	 ebp
  0005d	c3		 ret	 0
?SetStrNull@@YAXPADH@Z ENDP				; SetStrNull
_TEXT	ENDS
; Function compile flags: /Ogtp
; File C:\IAGOS\server\v18\Source\Source\_Common\File.h
;	COMDAT ??_GCFileIO@@UAEPAXI@Z
_TEXT	SEGMENT
__$EHRec$ = -12						; size = 12
___flags$ = 8						; size = 4
??_GCFileIO@@UAEPAXI@Z PROC				; CFileIO::`scalar deleting destructor', COMDAT
; _this$ = ecx
  00000	55		 push	 ebp
  00001	8b ec		 mov	 ebp, esp
  00003	6a ff		 push	 -1
  00005	68 00 00 00 00	 push	 __ehhandler$??_GCFileIO@@UAEPAXI@Z
  0000a	64 a1 00 00 00
	00		 mov	 eax, DWORD PTR fs:0
  00010	50		 push	 eax
  00011	56		 push	 esi
  00012	a1 00 00 00 00	 mov	 eax, DWORD PTR ___security_cookie
  00017	33 c5		 xor	 eax, ebp
  00019	50		 push	 eax
  0001a	8d 45 f4	 lea	 eax, DWORD PTR __$EHRec$[ebp]
  0001d	64 a3 00 00 00
	00		 mov	 DWORD PTR fs:0, eax
  00023	8b f1		 mov	 esi, ecx

; 17   : 	virtual ~CFileIO() { Close(); }

  00025	c7 45 fc 00 00
	00 00		 mov	 DWORD PTR __$EHRec$[ebp+8], 0
  0002c	c7 06 00 00 00
	00		 mov	 DWORD PTR [esi], OFFSET ??_7CFileIO@@6B@
  00032	e8 00 00 00 00	 call	 ?Close@CFileIO@@UAEHXZ	; CFileIO::Close
  00037	f6 45 08 01	 test	 BYTE PTR ___flags$[ebp], 1
  0003b	74 0b		 je	 SHORT $LN10@scalar
  0003d	6a 08		 push	 8
  0003f	56		 push	 esi
  00040	e8 00 00 00 00	 call	 ??3@YAXPAXI@Z		; operator delete
  00045	83 c4 08	 add	 esp, 8
$LN10@scalar:
  00048	8b c6		 mov	 eax, esi
  0004a	8b 4d f4	 mov	 ecx, DWORD PTR __$EHRec$[ebp]
  0004d	64 89 0d 00 00
	00 00		 mov	 DWORD PTR fs:0, ecx
  00054	59		 pop	 ecx
  00055	5e		 pop	 esi
  00056	8b e5		 mov	 esp, ebp
  00058	5d		 pop	 ebp
  00059	c2 04 00	 ret	 4
  0005c	cc		 int	 3
  0005d	cc		 int	 3
  0005e	cc		 int	 3
  0005f	cc		 int	 3
  00060	cc		 int	 3
_TEXT	ENDS
;	COMDAT text$x
text$x	SEGMENT
__ehhandler$??_GCFileIO@@UAEPAXI@Z:
  00000	90		 npad	 1
  00001	90		 npad	 1
  00002	8b 54 24 08	 mov	 edx, DWORD PTR [esp+8]
  00006	8d 42 0c	 lea	 eax, DWORD PTR [edx+12]
  00009	8b 4a f8	 mov	 ecx, DWORD PTR [edx-8]
  0000c	33 c8		 xor	 ecx, eax
  0000e	e8 00 00 00 00	 call	 @__security_check_cookie@4
  00013	b8 00 00 00 00	 mov	 eax, OFFSET __ehfuncinfo$??_GCFileIO@@UAEPAXI@Z
  00018	e9 00 00 00 00	 jmp	 ___CxxFrameHandler3
text$x	ENDS
??_GCFileIO@@UAEPAXI@Z ENDP				; CFileIO::`scalar deleting destructor'
; Function compile flags: /Ogtp
; File C:\IAGOS\server\v18\Source\Source\_Common\File.h
;	COMDAT ?Read@CFileIO@@UAEIPAXII@Z
_TEXT	SEGMENT
_ptr$ = 8						; size = 4
_size$ = 12						; size = 4
_n$ = 16						; size = 4
?Read@CFileIO@@UAEIPAXII@Z PROC				; CFileIO::Read, COMDAT
; _this$ = ecx

; 27   : 	virtual size_t Read( void *ptr, size_t size, size_t n = 1 )	{ return fread( ptr, size, n, fp ); }

  00000	55		 push	 ebp
  00001	8b ec		 mov	 ebp, esp
  00003	ff 71 04	 push	 DWORD PTR [ecx+4]
  00006	ff 75 10	 push	 DWORD PTR _n$[ebp]
  00009	ff 75 0c	 push	 DWORD PTR _size$[ebp]
  0000c	ff 75 08	 push	 DWORD PTR _ptr$[ebp]
  0000f	e8 00 00 00 00	 call	 _fread
  00014	83 c4 10	 add	 esp, 16			; 00000010H
  00017	5d		 pop	 ebp
  00018	c2 0c 00	 ret	 12			; 0000000cH
?Read@CFileIO@@UAEIPAXII@Z ENDP				; CFileIO::Read
_TEXT	ENDS
; Function compile flags: /Ogtp
; File C:\IAGOS\server\v18\Source\Source\_Common\File.h
;	COMDAT ?GetLength@CFileIO@@UAEJXZ
_TEXT	SEGMENT
?GetLength@CFileIO@@UAEJXZ PROC				; CFileIO::GetLength, COMDAT
; _this$ = ecx

; 30   : 	int  Handle() { return fileno( fp ); }

  00000	ff 71 04	 push	 DWORD PTR [ecx+4]
  00003	e8 00 00 00 00	 call	 _fileno

; 26   : 	virtual long GetLength() { return _filelength( Handle() ); }

  00008	50		 push	 eax
  00009	e8 00 00 00 00	 call	 __filelength
  0000e	83 c4 08	 add	 esp, 8
  00011	c3		 ret	 0
?GetLength@CFileIO@@UAEJXZ ENDP				; CFileIO::GetLength
_TEXT	ENDS
; Function compile flags: /Ogtp
; File C:\IAGOS\server\v18\Source\Source\_Common\File.h
;	COMDAT ?Seek@CFileIO@@UAEHJH@Z
_TEXT	SEGMENT
_offset$ = 8						; size = 4
_whence$ = 12						; size = 4
?Seek@CFileIO@@UAEHJH@Z PROC				; CFileIO::Seek, COMDAT
; _this$ = ecx

; 25   : 	virtual int  Seek( long offset, int whence ) { return fseek( fp, offset, whence ); }

  00000	55		 push	 ebp
  00001	8b ec		 mov	 ebp, esp
  00003	ff 75 0c	 push	 DWORD PTR _whence$[ebp]
  00006	ff 75 08	 push	 DWORD PTR _offset$[ebp]
  00009	ff 71 04	 push	 DWORD PTR [ecx+4]
  0000c	e8 00 00 00 00	 call	 _fseek
  00011	83 c4 0c	 add	 esp, 12			; 0000000cH
  00014	5d		 pop	 ebp
  00015	c2 08 00	 ret	 8
?Seek@CFileIO@@UAEHJH@Z ENDP				; CFileIO::Seek
_TEXT	ENDS
; Function compile flags: /Ogtp
; File C:\IAGOS\server\v18\Source\Source\_Common\File.h
;	COMDAT ?Tell@CFileIO@@UAEJXZ
_TEXT	SEGMENT
?Tell@CFileIO@@UAEJXZ PROC				; CFileIO::Tell, COMDAT
; _this$ = ecx

; 24   : 	virtual long Tell()   { return ftell(fp); }

  00000	ff 71 04	 push	 DWORD PTR [ecx+4]
  00003	e8 00 00 00 00	 call	 _ftell
  00008	83 c4 04	 add	 esp, 4
  0000b	c3		 ret	 0
?Tell@CFileIO@@UAEJXZ ENDP				; CFileIO::Tell
_TEXT	ENDS
; Function compile flags: /Ogtp
; File C:\IAGOS\server\v18\Source\Source\_Common\File.h
;	COMDAT ?GetDW@CFileIO@@UAEKXZ
_TEXT	SEGMENT
_dw$ = -4						; size = 4
?GetDW@CFileIO@@UAEKXZ PROC				; CFileIO::GetDW, COMDAT
; _this$ = ecx

; 23   : 	virtual DWORD GetDW() { DWORD dw; fread( &dw, sizeof( dw ), 1, fp ); return dw; }

  00000	55		 push	 ebp
  00001	8b ec		 mov	 ebp, esp
  00003	51		 push	 ecx
  00004	ff 71 04	 push	 DWORD PTR [ecx+4]
  00007	8d 45 fc	 lea	 eax, DWORD PTR _dw$[ebp]
  0000a	6a 01		 push	 1
  0000c	6a 04		 push	 4
  0000e	50		 push	 eax
  0000f	e8 00 00 00 00	 call	 _fread
  00014	8b 45 fc	 mov	 eax, DWORD PTR _dw$[ebp]
  00017	83 c4 10	 add	 esp, 16			; 00000010H
  0001a	8b e5		 mov	 esp, ebp
  0001c	5d		 pop	 ebp
  0001d	c3		 ret	 0
?GetDW@CFileIO@@UAEKXZ ENDP				; CFileIO::GetDW
_TEXT	ENDS
; Function compile flags: /Ogtp
; File C:\IAGOS\server\v18\Source\Source\_Common\File.h
;	COMDAT ?GetW@CFileIO@@UAEGXZ
_TEXT	SEGMENT
?GetW@CFileIO@@UAEGXZ PROC				; CFileIO::GetW, COMDAT
; _this$ = ecx

; 22   : 	virtual WORD  GetW()  { return getwc( fp ); } 

  00000	ff 71 04	 push	 DWORD PTR [ecx+4]
  00003	e8 00 00 00 00	 call	 _getwc
  00008	83 c4 04	 add	 esp, 4
  0000b	c3		 ret	 0
?GetW@CFileIO@@UAEGXZ ENDP				; CFileIO::GetW
_TEXT	ENDS
; Function compile flags: /Ogtp
; File C:\IAGOS\server\v18\Source\Source\_Common\File.h
;	COMDAT ?GetC@CFileIO@@UAEDXZ
_TEXT	SEGMENT
?GetC@CFileIO@@UAEDXZ PROC				; CFileIO::GetC, COMDAT
; _this$ = ecx

; 21   : 	virtual char  GetC()  { return (char)getc( fp ); }

  00000	ff 71 04	 push	 DWORD PTR [ecx+4]
  00003	e8 00 00 00 00	 call	 _getc
  00008	83 c4 04	 add	 esp, 4
  0000b	c3		 ret	 0
?GetC@CFileIO@@UAEDXZ ENDP				; CFileIO::GetC
_TEXT	ENDS
; Function compile flags: /Ogtp
; File C:\IAGOS\server\v18\Source\Source\_Common\File.h
;	COMDAT ?Flush@CFileIO@@UAEHXZ
_TEXT	SEGMENT
?Flush@CFileIO@@UAEHXZ PROC				; CFileIO::Flush, COMDAT
; _this$ = ecx

; 20   : 	virtual int	 Flush()  { return fflush( fp ); }

  00000	ff 71 04	 push	 DWORD PTR [ecx+4]
  00003	e8 00 00 00 00	 call	 _fflush
  00008	83 c4 04	 add	 esp, 4
  0000b	c3		 ret	 0
?Flush@CFileIO@@UAEHXZ ENDP				; CFileIO::Flush
_TEXT	ENDS
; Function compile flags: /Ogtp
; File C:\IAGOS\server\v18\Source\Source\_Common\File.h
;	COMDAT ??1CFileIO@@UAE@XZ
_TEXT	SEGMENT
__$EHRec$ = -12						; size = 12
??1CFileIO@@UAE@XZ PROC					; CFileIO::~CFileIO, COMDAT
; _this$ = ecx

; 17   : 	virtual ~CFileIO() { Close(); }

  00000	55		 push	 ebp
  00001	8b ec		 mov	 ebp, esp
  00003	6a ff		 push	 -1
  00005	68 00 00 00 00	 push	 __ehhandler$??1CFileIO@@UAE@XZ
  0000a	64 a1 00 00 00
	00		 mov	 eax, DWORD PTR fs:0
  00010	50		 push	 eax
  00011	a1 00 00 00 00	 mov	 eax, DWORD PTR ___security_cookie
  00016	33 c5		 xor	 eax, ebp
  00018	50		 push	 eax
  00019	8d 45 f4	 lea	 eax, DWORD PTR __$EHRec$[ebp]
  0001c	64 a3 00 00 00
	00		 mov	 DWORD PTR fs:0, eax
  00022	c7 01 00 00 00
	00		 mov	 DWORD PTR [ecx], OFFSET ??_7CFileIO@@6B@
  00028	e8 00 00 00 00	 call	 ?Close@CFileIO@@UAEHXZ	; CFileIO::Close
  0002d	8b 4d f4	 mov	 ecx, DWORD PTR __$EHRec$[ebp]
  00030	64 89 0d 00 00
	00 00		 mov	 DWORD PTR fs:0, ecx
  00037	59		 pop	 ecx
  00038	8b e5		 mov	 esp, ebp
  0003a	5d		 pop	 ebp
  0003b	c3		 ret	 0
  0003c	cc		 int	 3
  0003d	cc		 int	 3
  0003e	cc		 int	 3
  0003f	cc		 int	 3
  00040	cc		 int	 3
_TEXT	ENDS
;	COMDAT text$x
text$x	SEGMENT
__ehhandler$??1CFileIO@@UAE@XZ:
  00000	90		 npad	 1
  00001	90		 npad	 1
  00002	8b 54 24 08	 mov	 edx, DWORD PTR [esp+8]
  00006	8d 42 0c	 lea	 eax, DWORD PTR [edx+12]
  00009	8b 4a fc	 mov	 ecx, DWORD PTR [edx-4]
  0000c	33 c8		 xor	 ecx, eax
  0000e	e8 00 00 00 00	 call	 @__security_check_cookie@4
  00013	b8 00 00 00 00	 mov	 eax, OFFSET __ehfuncinfo$??1CFileIO@@UAE@XZ
  00018	e9 00 00 00 00	 jmp	 ___CxxFrameHandler3
text$x	ENDS
??1CFileIO@@UAE@XZ ENDP					; CFileIO::~CFileIO
; Function compile flags: /Ogtp
; File C:\IAGOS\server\v18\Source\Source\DX_SDK\d3dx9math.h
;	COMDAT ??0D3DXVECTOR3@@QAE@XZ
_TEXT	SEGMENT
??0D3DXVECTOR3@@QAE@XZ PROC				; D3DXVECTOR3::D3DXVECTOR3, COMDAT
; _this$ = ecx

; 165  :     D3DXVECTOR3() {};

  00000	8b c1		 mov	 eax, ecx
  00002	c3		 ret	 0
??0D3DXVECTOR3@@QAE@XZ ENDP				; D3DXVECTOR3::D3DXVECTOR3
_TEXT	ENDS
; Function compile flags: /Ogtp
; File C:\Program Files\Microsoft Visual Studio\2022\Professional\VC\Tools\MSVC\14.44.35207\atlmfc\include\cstringt.h
; File C:\Program Files\Microsoft Visual Studio\2022\Professional\VC\Tools\MSVC\14.44.35207\atlmfc\include\atlsimpstr.h
; File C:\Program Files\Microsoft Visual Studio\2022\Professional\VC\Tools\MSVC\14.44.35207\atlmfc\include\cstringt.h
; File C:\Program Files\Microsoft Visual Studio\2022\Professional\VC\Tools\MSVC\14.44.35207\atlmfc\include\atlsimpstr.h
; File C:\Program Files\Microsoft Visual Studio\2022\Professional\VC\Tools\MSVC\14.44.35207\atlmfc\include\cstringt.h
; File C:\Program Files\Microsoft Visual Studio\2022\Professional\VC\Tools\MSVC\14.44.35207\atlmfc\include\atlsimpstr.h
; File C:\Program Files\Microsoft Visual Studio\2022\Professional\VC\Tools\MSVC\14.44.35207\atlmfc\include\cstringt.h
; File C:\Program Files\Microsoft Visual Studio\2022\Professional\VC\Tools\MSVC\14.44.35207\atlmfc\include\atlsimpstr.h
; File C:\Program Files\Microsoft Visual Studio\2022\Professional\VC\Tools\MSVC\14.44.35207\atlmfc\include\cstringt.h
; File C:\Program Files\Microsoft Visual Studio\2022\Professional\VC\Tools\MSVC\14.44.35207\atlmfc\include\atlsimpstr.h
; File C:\Program Files\Microsoft Visual Studio\2022\Professional\VC\Tools\MSVC\14.44.35207\atlmfc\include\cstringt.h
; File C:\Program Files\Microsoft Visual Studio\2022\Professional\VC\Tools\MSVC\14.44.35207\atlmfc\include\atlsimpstr.h
; File C:\Program Files\Microsoft Visual Studio\2022\Professional\VC\Tools\MSVC\14.44.35207\atlmfc\include\cstringt.h
; File C:\Program Files\Microsoft Visual Studio\2022\Professional\VC\Tools\MSVC\14.44.35207\atlmfc\include\atlsimpstr.h
; File C:\Program Files\Microsoft Visual Studio\2022\Professional\VC\Tools\MSVC\14.44.35207\atlmfc\include\afxstr.h
; File C:\Program Files\Microsoft Visual Studio\2022\Professional\VC\Tools\MSVC\14.44.35207\atlmfc\include\cstringt.h
; File C:\Program Files\Microsoft Visual Studio\2022\Professional\VC\Tools\MSVC\14.44.35207\atlmfc\include\atlsimpstr.h
; File C:\Program Files (x86)\Windows Kits\10\Include\10.0.26100.0\ucrt\corecrt_memcpy_s.h
; File C:\Program Files\Microsoft Visual Studio\2022\Professional\VC\Tools\MSVC\14.44.35207\atlmfc\include\cstringt.h
; File C:\Program Files (x86)\Windows Kits\10\Include\10.0.26100.0\ucrt\corecrt_memcpy_s.h
; File C:\Program Files\Microsoft Visual Studio\2022\Professional\VC\Tools\MSVC\14.44.35207\atlmfc\include\cstringt.h
; File C:\Program Files\Microsoft Visual Studio\2022\Professional\VC\Tools\MSVC\14.44.35207\atlmfc\include\atlsimpstr.h
; File C:\Program Files\Microsoft Visual Studio\2022\Professional\VC\Tools\MSVC\14.44.35207\atlmfc\include\cstringt.h
;	COMDAT ?Left@?$CStringT@DV?$StrTraitMFC@DV?$ChTraitsCRT@D@ATL@@@@@ATL@@QBE?AV12@H@Z
_TEXT	SEGMENT
___$ReturnUdt$ = 8					; size = 4
_nCount$ = 12						; size = 4
?Left@?$CStringT@DV?$StrTraitMFC@DV?$ChTraitsCRT@D@ATL@@@@@ATL@@QBE?AV12@H@Z PROC ; ATL::CStringT<char,StrTraitMFC<char,ATL::ChTraitsCRT<char> > >::Left, COMDAT
; _this$ = ecx

; 2155 : 	{

  00000	55		 push	 ebp
  00001	8b ec		 mov	 ebp, esp
  00003	51		 push	 ecx
; File C:\Program Files\Microsoft Visual Studio\2022\Professional\VC\Tools\MSVC\14.44.35207\atlmfc\include\atlsimpstr.h

; 523  : 		return( GetData()->nDataLength );

  00004	8b 45 0c	 mov	 eax, DWORD PTR _nCount$[ebp]
; File C:\Program Files\Microsoft Visual Studio\2022\Professional\VC\Tools\MSVC\14.44.35207\atlmfc\include\cstringt.h

; 2155 : 	{

  00007	56		 push	 esi
; File C:\Program Files\Microsoft Visual Studio\2022\Professional\VC\Tools\MSVC\14.44.35207\atlmfc\include\atlsimpstr.h

; 523  : 		return( GetData()->nDataLength );

  00008	33 f6		 xor	 esi, esi
  0000a	85 c0		 test	 eax, eax
; File C:\Program Files\Microsoft Visual Studio\2022\Professional\VC\Tools\MSVC\14.44.35207\atlmfc\include\cstringt.h

; 2155 : 	{

  0000c	57		 push	 edi
  0000d	8b f9		 mov	 edi, ecx
; File C:\Program Files\Microsoft Visual Studio\2022\Professional\VC\Tools\MSVC\14.44.35207\atlmfc\include\atlsimpstr.h

; 523  : 		return( GetData()->nDataLength );

  0000f	0f 49 f0	 cmovns	 esi, eax
  00012	8b 07		 mov	 eax, DWORD PTR [edi]
; File C:\Program Files\Microsoft Visual Studio\2022\Professional\VC\Tools\MSVC\14.44.35207\atlmfc\include\cstringt.h

; 2161 : 		if( nCount >= nLength )

  00014	8d 48 f0	 lea	 ecx, DWORD PTR [eax-16]
  00017	3b 70 f4	 cmp	 esi, DWORD PTR [eax-12]
  0001a	7c 19		 jl	 SHORT $LN3@Left
; File C:\Program Files\Microsoft Visual Studio\2022\Professional\VC\Tools\MSVC\14.44.35207\atlmfc\include\atlsimpstr.h

; 217  : 		CStringData* pNewData = CloneData( pSrcData );

  0001c	51		 push	 ecx
  0001d	e8 00 00 00 00	 call	 ?CloneData@?$CSimpleStringT@D$0A@@ATL@@CAPAUCStringData@2@PAU32@@Z ; ATL::CSimpleStringT<char,0>::CloneData
  00022	83 c4 04	 add	 esp, 4

; 218  : 		Attach( pNewData );

  00025	8d 48 10	 lea	 ecx, DWORD PTR [eax+16]
  00028	8b 45 08	 mov	 eax, DWORD PTR ___$ReturnUdt$[ebp]
  0002b	5f		 pop	 edi
; File C:\Program Files\Microsoft Visual Studio\2022\Professional\VC\Tools\MSVC\14.44.35207\atlmfc\include\cstringt.h

; 2167 : 	}

  0002c	5e		 pop	 esi
; File C:\Program Files\Microsoft Visual Studio\2022\Professional\VC\Tools\MSVC\14.44.35207\atlmfc\include\atlsimpstr.h

; 218  : 		Attach( pNewData );

  0002d	89 08		 mov	 DWORD PTR [eax], ecx
; File C:\Program Files\Microsoft Visual Studio\2022\Professional\VC\Tools\MSVC\14.44.35207\atlmfc\include\cstringt.h

; 2167 : 	}

  0002f	8b e5		 mov	 esp, ebp
  00031	5d		 pop	 ebp
  00032	c2 08 00	 ret	 8
$LN3@Left:
; File C:\Program Files\Microsoft Visual Studio\2022\Professional\VC\Tools\MSVC\14.44.35207\atlmfc\include\atlsimpstr.h

; 527  : 		IAtlStringMgr* pStringMgr = GetData()->pStringMgr;

  00035	8b 09		 mov	 ecx, DWORD PTR [ecx]

; 528  : 		return pStringMgr ? pStringMgr->Clone() : NULL;

  00037	85 c9		 test	 ecx, ecx
  00039	74 2a		 je	 SHORT $LN19@Left
  0003b	8b 01		 mov	 eax, DWORD PTR [ecx]
  0003d	ff 50 10	 call	 DWORD PTR [eax+16]
  00040	8b c8		 mov	 ecx, eax
; File C:\Program Files\Microsoft Visual Studio\2022\Professional\VC\Tools\MSVC\14.44.35207\atlmfc\include\cstringt.h

; 1442 : 		if(pStringMgr) { return pStringMgr; }

  00042	85 c9		 test	 ecx, ecx
  00044	74 1f		 je	 SHORT $LN19@Left
  00046	8b 3f		 mov	 edi, DWORD PTR [edi]
$LN33@Left:
; File C:\Program Files\Microsoft Visual Studio\2022\Professional\VC\Tools\MSVC\14.44.35207\atlmfc\include\atlsimpstr.h

; 251  : 		if(pchSrc == NULL && nLength != 0)

  00048	85 ff		 test	 edi, edi
  0004a	75 08		 jne	 SHORT $LN40@Left
  0004c	85 f6		 test	 esi, esi
  0004e	0f 85 88 00 00
	00		 jne	 $LN45@Left
$LN40@Left:

; 252  : 			AtlThrow(E_INVALIDARG);
; 253  : 
; 254  : 		CStringData* pData = pStringMgr->Allocate( nLength, sizeof( XCHAR ) );

  00054	8b 01		 mov	 eax, DWORD PTR [ecx]
  00056	6a 01		 push	 1
  00058	56		 push	 esi
  00059	ff 10		 call	 DWORD PTR [eax]

; 255  : 		if( pData == NULL )

  0005b	85 c0		 test	 eax, eax
  0005d	0f 84 83 00 00
	00		 je	 $LN77@Left
  00063	eb 16		 jmp	 SHORT $LN41@Left
$LN19@Left:
; File C:\Program Files\Microsoft Visual Studio\2022\Professional\VC\Tools\MSVC\14.44.35207\atlmfc\include\afxstr.h

; 56   : 		return( AfxGetStringManager() );

  00065	e8 00 00 00 00	 call	 ?AfxGetStringManager@@YGPAUIAtlStringMgr@ATL@@XZ ; AfxGetStringManager
; File C:\Program Files\Microsoft Visual Studio\2022\Professional\VC\Tools\MSVC\14.44.35207\atlmfc\include\cstringt.h

; 1445 : 		return pStringMgr->Clone();

  0006a	8b c8		 mov	 ecx, eax
  0006c	8b 10		 mov	 edx, DWORD PTR [eax]
  0006e	ff 52 10	 call	 DWORD PTR [edx+16]

; 2166 : 		return( CStringT( this->GetString(), nCount, GetManager() ) );

  00071	8b 3f		 mov	 edi, DWORD PTR [edi]

; 1445 : 		return pStringMgr->Clone();

  00073	8b c8		 mov	 ecx, eax
; File C:\Program Files\Microsoft Visual Studio\2022\Professional\VC\Tools\MSVC\14.44.35207\atlmfc\include\atlsimpstr.h

; 249  : 		ATLENSURE( pStringMgr != NULL );

  00075	85 c9		 test	 ecx, ecx
  00077	74 72		 je	 SHORT $LN78@Left
  00079	eb cd		 jmp	 SHORT $LN33@Left
$LN41@Left:
  0007b	53		 push	 ebx

; 258  : 		}
; 259  : 		Attach( pData );

  0007c	8b 5d 08	 mov	 ebx, DWORD PTR ___$ReturnUdt$[ebp]
  0007f	83 c0 10	 add	 eax, 16			; 00000010H
  00082	89 03		 mov	 DWORD PTR [ebx], eax

; 875  : 		if( nLength < 0 || nLength > GetData()->nAllocLength)

  00084	85 f6		 test	 esi, esi
  00086	78 54		 js	 SHORT $LN45@Left
  00088	3b 70 f8	 cmp	 esi, DWORD PTR [eax-8]
  0008b	7f 4f		 jg	 SHORT $LN45@Left

; 877  : 
; 878  : 		GetData()->nDataLength = nLength;

  0008d	89 70 f4	 mov	 DWORD PTR [eax-12], esi

; 879  : 		m_pszData[nLength] = 0;

  00090	c6 04 06 00	 mov	 BYTE PTR [esi+eax], 0
; File C:\Program Files (x86)\Windows Kits\10\Include\10.0.26100.0\ucrt\corecrt_memcpy_s.h

; 47   :         if (_SourceSize == 0)

  00094	85 f6		 test	 esi, esi
  00096	74 39		 je	 SHORT $LN57@Left

; 48   :         {
; 49   :             return 0;
; 50   :         }
; 51   : 
; 52   :         _CRT_MEMCPY_S_VALIDATE_RETURN_ERRCODE(_Destination != NULL, EINVAL);

  00098	85 c0		 test	 eax, eax
  0009a	74 25		 je	 SHORT $LN75@Left

; 53   :         if (_Source == NULL || _DestinationSize < _SourceSize)

  0009c	56		 push	 esi
  0009d	85 ff		 test	 edi, edi
  0009f	74 15		 je	 SHORT $LN56@Left

; 56   : 
; 57   :             _CRT_MEMCPY_S_VALIDATE_RETURN_ERRCODE(_Source != NULL,                 EINVAL);
; 58   :             _CRT_MEMCPY_S_VALIDATE_RETURN_ERRCODE(_DestinationSize >= _SourceSize, ERANGE);
; 59   : 
; 60   :             // Unreachable, but required to suppress /analyze warnings:
; 61   :             return EINVAL;
; 62   :         }
; 63   :         memcpy(_Destination, _Source, _SourceSize);

  000a1	57		 push	 edi
  000a2	50		 push	 eax
  000a3	e8 00 00 00 00	 call	 _memcpy
  000a8	83 c4 0c	 add	 esp, 12			; 0000000cH
; File C:\Program Files\Microsoft Visual Studio\2022\Professional\VC\Tools\MSVC\14.44.35207\atlmfc\include\cstringt.h

; 2166 : 		return( CStringT( this->GetString(), nCount, GetManager() ) );

  000ab	8b c3		 mov	 eax, ebx
  000ad	5b		 pop	 ebx
  000ae	5f		 pop	 edi

; 2167 : 	}

  000af	5e		 pop	 esi
  000b0	8b e5		 mov	 esp, ebp
  000b2	5d		 pop	 ebp
  000b3	c2 08 00	 ret	 8
$LN56@Left:
; File C:\Program Files (x86)\Windows Kits\10\Include\10.0.26100.0\ucrt\corecrt_memcpy_s.h

; 55   :             memset(_Destination, 0, _DestinationSize);

  000b6	6a 00		 push	 0
  000b8	50		 push	 eax
  000b9	e8 00 00 00 00	 call	 _memset
  000be	83 c4 0c	 add	 esp, 12			; 0000000cH
$LN75@Left:
; File C:\Program Files\Microsoft Visual Studio\2022\Professional\VC\Tools\MSVC\14.44.35207\atlmfc\include\cstringt.h

; 2166 : 		return( CStringT( this->GetString(), nCount, GetManager() ) );

  000c1	e8 00 00 00 00	 call	 __errno
  000c6	c7 00 16 00 00
	00		 mov	 DWORD PTR [eax], 22	; 00000016H
  000cc	e8 00 00 00 00	 call	 __invalid_parameter_noinfo
$LN57@Left:
  000d1	8b c3		 mov	 eax, ebx
  000d3	5b		 pop	 ebx
  000d4	5f		 pop	 edi

; 2167 : 	}

  000d5	5e		 pop	 esi
  000d6	8b e5		 mov	 esp, ebp
  000d8	5d		 pop	 ebp
  000d9	c2 08 00	 ret	 8
$LN45@Left:
; File C:\Program Files\Microsoft Visual Studio\2022\Professional\VC\Tools\MSVC\14.44.35207\atlmfc\include\atlsimpstr.h

; 876  : 			AtlThrow(E_INVALIDARG);

  000dc	68 57 00 07 80	 push	 -2147024809		; 80070057H
  000e1	e8 00 00 00 00	 call	 ?AtlThrowImpl@ATL@@YGXJ@Z ; ATL::AtlThrowImpl
$LN77@Left:

; 257  : 			ThrowMemoryException();

  000e6	e8 00 00 00 00	 call	 ?ThrowMemoryException@?$CSimpleStringT@D$0A@@ATL@@KAXXZ ; ATL::CSimpleStringT<char,0>::ThrowMemoryException
$LN78@Left:

; 249  : 		ATLENSURE( pStringMgr != NULL );

  000eb	68 05 40 00 80	 push	 -2147467259		; 80004005H
  000f0	e8 00 00 00 00	 call	 ?AtlThrowImpl@ATL@@YGXJ@Z ; ATL::AtlThrowImpl
$LN74@Left:
  000f5	cc		 int	 3
?Left@?$CStringT@DV?$StrTraitMFC@DV?$ChTraitsCRT@D@ATL@@@@@ATL@@QBE?AV12@H@Z ENDP ; ATL::CStringT<char,StrTraitMFC<char,ATL::ChTraitsCRT<char> > >::Left
_TEXT	ENDS
; Function compile flags: /Ogtp
; File C:\Program Files\Microsoft Visual Studio\2022\Professional\VC\Tools\MSVC\14.44.35207\atlmfc\include\cstringt.h
; File C:\Program Files\Microsoft Visual Studio\2022\Professional\VC\Tools\MSVC\14.44.35207\atlmfc\include\atlsimpstr.h
; File C:\Program Files\Microsoft Visual Studio\2022\Professional\VC\Tools\MSVC\14.44.35207\atlmfc\include\cstringt.h
; File C:\Program Files\Microsoft Visual Studio\2022\Professional\VC\Tools\MSVC\14.44.35207\atlmfc\include\atlsimpstr.h
; File C:\Program Files\Microsoft Visual Studio\2022\Professional\VC\Tools\MSVC\14.44.35207\atlmfc\include\cstringt.h
; File C:\Program Files\Microsoft Visual Studio\2022\Professional\VC\Tools\MSVC\14.44.35207\atlmfc\include\atlsimpstr.h
; File C:\Program Files\Microsoft Visual Studio\2022\Professional\VC\Tools\MSVC\14.44.35207\atlmfc\include\cstringt.h
;	COMDAT ??4?$CStringT@DV?$StrTraitMFC@DV?$ChTraitsCRT@D@ATL@@@@@ATL@@QAEAAV01@ABV01@@Z
_TEXT	SEGMENT
_strSrc$ = 8						; size = 4
_pNewData$1$ = 8					; size = 4
??4?$CStringT@DV?$StrTraitMFC@DV?$ChTraitsCRT@D@ATL@@@@@ATL@@QAEAAV01@ABV01@@Z PROC ; ATL::CStringT<char,StrTraitMFC<char,ATL::ChTraitsCRT<char> > >::operator=, COMDAT
; _this$ = ecx

; 1307 : 	{

  00000	55		 push	 ebp
  00001	8b ec		 mov	 ebp, esp
; File C:\Program Files\Microsoft Visual Studio\2022\Professional\VC\Tools\MSVC\14.44.35207\atlmfc\include\atlsimpstr.h

; 804  : 		return( reinterpret_cast< CStringData* >( m_pszData )-1 );

  00003	8b 45 08	 mov	 eax, DWORD PTR _strSrc$[ebp]
; File C:\Program Files\Microsoft Visual Studio\2022\Professional\VC\Tools\MSVC\14.44.35207\atlmfc\include\cstringt.h

; 1307 : 	{

  00006	56		 push	 esi
  00007	8b f1		 mov	 esi, ecx
  00009	57		 push	 edi
; File C:\Program Files\Microsoft Visual Studio\2022\Professional\VC\Tools\MSVC\14.44.35207\atlmfc\include\atlsimpstr.h

; 804  : 		return( reinterpret_cast< CStringData* >( m_pszData )-1 );

  0000a	8b 08		 mov	 ecx, DWORD PTR [eax]
  0000c	8b 3e		 mov	 edi, DWORD PTR [esi]
  0000e	83 ef 10	 sub	 edi, 16			; 00000010H
  00011	8d 51 f0	 lea	 edx, DWORD PTR [ecx-16]

; 278  : 		if( pSrcData != pOldData)

  00014	3b d7		 cmp	 edx, edi
  00016	74 4d		 je	 SHORT $LN22@operator

; 73   : 		return nRefs < 0;

  00018	83 7f 0c 00	 cmp	 DWORD PTR [edi+12], 0
  0001c	53		 push	 ebx
  0001d	8d 5f 0c	 lea	 ebx, DWORD PTR [edi+12]

; 280  : 			if( pOldData->IsLocked() || pSrcData->pStringMgr != pOldData->pStringMgr )

  00020	7c 37		 jl	 SHORT $LN7@operator
  00022	8b 02		 mov	 eax, DWORD PTR [edx]
  00024	3b 07		 cmp	 eax, DWORD PTR [edi]
  00026	75 31		 jne	 SHORT $LN7@operator

; 283  : 			}
; 284  : 			else
; 285  : 			{
; 286  : 				CStringData* pNewData = CloneData( pSrcData );

  00028	52		 push	 edx
  00029	e8 00 00 00 00	 call	 ?CloneData@?$CSimpleStringT@D$0A@@ATL@@CAPAUCStringData@2@PAU32@@Z ; ATL::CSimpleStringT<char,0>::CloneData
  0002e	83 c4 04	 add	 esp, 4
  00031	89 45 08	 mov	 DWORD PTR _pNewData$1$[ebp], eax

; 92   : 		if( _InterlockedDecrement( &nRefs ) <= 0 )

  00034	83 c9 ff	 or	 ecx, -1
  00037	f0 0f c1 0b	 lock	  xadd	 DWORD PTR [ebx], ecx
  0003b	49		 dec	 ecx
  0003c	85 c9		 test	 ecx, ecx
  0003e	7f 0b		 jg	 SHORT $LN20@operator

; 93   : 		{
; 94   : 			pStringMgr->Free( this );

  00040	8b 0f		 mov	 ecx, DWORD PTR [edi]
  00042	57		 push	 edi
  00043	8b 11		 mov	 edx, DWORD PTR [ecx]
  00045	ff 52 04	 call	 DWORD PTR [edx+4]
  00048	8b 45 08	 mov	 eax, DWORD PTR _pNewData$1$[ebp]
$LN20@operator:

; 288  : 				Attach( pNewData );

  0004b	83 c0 10	 add	 eax, 16			; 00000010H
  0004e	5b		 pop	 ebx
  0004f	89 06		 mov	 DWORD PTR [esi], eax
; File C:\Program Files\Microsoft Visual Studio\2022\Professional\VC\Tools\MSVC\14.44.35207\atlmfc\include\cstringt.h

; 1311 : 	}

  00051	8b c6		 mov	 eax, esi
  00053	5f		 pop	 edi
  00054	5e		 pop	 esi
  00055	5d		 pop	 ebp
  00056	c2 04 00	 ret	 4
$LN7@operator:
; File C:\Program Files\Microsoft Visual Studio\2022\Professional\VC\Tools\MSVC\14.44.35207\atlmfc\include\atlsimpstr.h

; 282  : 				SetString( strSrc.GetString(), strSrc.GetLength() );

  00059	ff 71 f4	 push	 DWORD PTR [ecx-12]
  0005c	51		 push	 ecx
  0005d	8b ce		 mov	 ecx, esi
  0005f	e8 00 00 00 00	 call	 ?SetString@?$CSimpleStringT@D$0A@@ATL@@QAEXPBDH@Z ; ATL::CSimpleStringT<char,0>::SetString
  00064	5b		 pop	 ebx
$LN22@operator:
  00065	5f		 pop	 edi
; File C:\Program Files\Microsoft Visual Studio\2022\Professional\VC\Tools\MSVC\14.44.35207\atlmfc\include\cstringt.h

; 1311 : 	}

  00066	8b c6		 mov	 eax, esi
  00068	5e		 pop	 esi
  00069	5d		 pop	 ebp
  0006a	c2 04 00	 ret	 4
??4?$CStringT@DV?$StrTraitMFC@DV?$ChTraitsCRT@D@ATL@@@@@ATL@@QAEAAV01@ABV01@@Z ENDP ; ATL::CStringT<char,StrTraitMFC<char,ATL::ChTraitsCRT<char> > >::operator=
_TEXT	ENDS
; Function compile flags: /Ogtp
; File C:\Program Files\Microsoft Visual Studio\2022\Professional\VC\Tools\MSVC\14.44.35207\atlmfc\include\cstringt.h
; File C:\Program Files\Microsoft Visual Studio\2022\Professional\VC\Tools\MSVC\14.44.35207\atlmfc\include\atlsimpstr.h
; File C:\Program Files\Microsoft Visual Studio\2022\Professional\VC\Tools\MSVC\14.44.35207\atlmfc\include\cstringt.h
;	COMDAT ??1?$CStringT@DV?$StrTraitMFC@DV?$ChTraitsCRT@D@ATL@@@@@ATL@@QAE@XZ
_TEXT	SEGMENT
??1?$CStringT@DV?$StrTraitMFC@DV?$ChTraitsCRT@D@ATL@@@@@ATL@@QAE@XZ PROC ; ATL::CStringT<char,StrTraitMFC<char,ATL::ChTraitsCRT<char> > >::~CStringT<char,StrTraitMFC<char,ATL::ChTraitsCRT<char> > >, COMDAT
; _this$ = ecx
; File C:\Program Files\Microsoft Visual Studio\2022\Professional\VC\Tools\MSVC\14.44.35207\atlmfc\include\atlsimpstr.h

; 804  : 		return( reinterpret_cast< CStringData* >( m_pszData )-1 );

  00000	8b 11		 mov	 edx, DWORD PTR [ecx]

; 92   : 		if( _InterlockedDecrement( &nRefs ) <= 0 )

  00002	83 c8 ff	 or	 eax, -1

; 804  : 		return( reinterpret_cast< CStringData* >( m_pszData )-1 );

  00005	83 ea 10	 sub	 edx, 16			; 00000010H

; 92   : 		if( _InterlockedDecrement( &nRefs ) <= 0 )

  00008	f0 0f c1 42 0c	 lock	  xadd	 DWORD PTR [edx+12], eax
  0000d	48		 dec	 eax
  0000e	85 c0		 test	 eax, eax
  00010	7f 08		 jg	 SHORT $LN8@CStringT

; 93   : 		{
; 94   : 			pStringMgr->Free( this );

  00012	8b 0a		 mov	 ecx, DWORD PTR [edx]
  00014	52		 push	 edx
  00015	8b 01		 mov	 eax, DWORD PTR [ecx]
  00017	ff 50 04	 call	 DWORD PTR [eax+4]
$LN8@CStringT:
; File C:\Program Files\Microsoft Visual Studio\2022\Professional\VC\Tools\MSVC\14.44.35207\atlmfc\include\cstringt.h

; 1303 : 	}

  0001a	c3		 ret	 0
??1?$CStringT@DV?$StrTraitMFC@DV?$ChTraitsCRT@D@ATL@@@@@ATL@@QAE@XZ ENDP ; ATL::CStringT<char,StrTraitMFC<char,ATL::ChTraitsCRT<char> > >::~CStringT<char,StrTraitMFC<char,ATL::ChTraitsCRT<char> > >
_TEXT	ENDS
; Function compile flags: /Ogtp
; File C:\Program Files\Microsoft Visual Studio\2022\Professional\VC\Tools\MSVC\14.44.35207\atlmfc\include\atlsimpstr.h
; File C:\Program Files (x86)\Windows Kits\10\Include\10.0.26100.0\ucrt\corecrt_memcpy_s.h
; File C:\Program Files\Microsoft Visual Studio\2022\Professional\VC\Tools\MSVC\14.44.35207\atlmfc\include\atlsimpstr.h
; File C:\Program Files (x86)\Windows Kits\10\Include\10.0.26100.0\ucrt\corecrt_memcpy_s.h
; File C:\Program Files\Microsoft Visual Studio\2022\Professional\VC\Tools\MSVC\14.44.35207\atlmfc\include\atlsimpstr.h
; File C:\Program Files (x86)\Windows Kits\10\Include\10.0.26100.0\ucrt\corecrt_memcpy_s.h
; File C:\Program Files\Microsoft Visual Studio\2022\Professional\VC\Tools\MSVC\14.44.35207\atlmfc\include\atlsimpstr.h
;	COMDAT ?CloneData@?$CSimpleStringT@D$0A@@ATL@@CAPAUCStringData@2@PAU32@@Z
_TEXT	SEGMENT
_pData$ = 8						; size = 4
__Source$1$ = 8						; size = 4
?CloneData@?$CSimpleStringT@D$0A@@ATL@@CAPAUCStringData@2@PAU32@@Z PROC ; ATL::CSimpleStringT<char,0>::CloneData, COMDAT

; 883  : 	{

  00000	55		 push	 ebp
  00001	8b ec		 mov	 ebp, esp
  00003	53		 push	 ebx
  00004	56		 push	 esi

; 884  : 		CStringData* pNewData = NULL;
; 885  : 
; 886  : 		IAtlStringMgr* pNewStringMgr = pData->pStringMgr->Clone();

  00005	8b 75 08	 mov	 esi, DWORD PTR _pData$[ebp]
  00008	8b 0e		 mov	 ecx, DWORD PTR [esi]
  0000a	8b 01		 mov	 eax, DWORD PTR [ecx]
  0000c	ff 50 10	 call	 DWORD PTR [eax+16]

; 73   : 		return nRefs < 0;

  0000f	83 7e 0c 00	 cmp	 DWORD PTR [esi+12], 0

; 884  : 		CStringData* pNewData = NULL;
; 885  : 
; 886  : 		IAtlStringMgr* pNewStringMgr = pData->pStringMgr->Clone();

  00013	8b c8		 mov	 ecx, eax

; 73   : 		return nRefs < 0;

  00015	8d 46 0c	 lea	 eax, DWORD PTR [esi+12]

; 887  : 		if( !pData->IsLocked() && (pNewStringMgr == pData->pStringMgr) )

  00018	7c 0f		 jl	 SHORT $LN2@CloneData
  0001a	3b 0e		 cmp	 ecx, DWORD PTR [esi]
  0001c	75 0b		 jne	 SHORT $LN2@CloneData

; 888  : 		{
; 889  : 			pNewData = pData;

  0001e	8b de		 mov	 ebx, esi

; 69   : 		_InterlockedIncrement(&nRefs);

  00020	f0 ff 00	 lock	  inc	 DWORD PTR [eax]

; 904  : 		return( pNewData );

  00023	8b c3		 mov	 eax, ebx

; 905  : 	}

  00025	5e		 pop	 esi
  00026	5b		 pop	 ebx
  00027	5d		 pop	 ebp
  00028	c3		 ret	 0
$LN2@CloneData:

; 890  : 			pNewData->AddRef();
; 891  : 		}
; 892  : 		else
; 893  : 		{
; 894  : 			pNewData = pNewStringMgr->Allocate( pData->nDataLength, sizeof( XCHAR ) );

  00029	8b 01		 mov	 eax, DWORD PTR [ecx]
  0002b	6a 01		 push	 1
  0002d	ff 76 04	 push	 DWORD PTR [esi+4]
  00030	ff 10		 call	 DWORD PTR [eax]
  00032	8b d8		 mov	 ebx, eax

; 895  : 			if( pNewData == NULL )

  00034	85 db		 test	 ebx, ebx
  00036	74 7d		 je	 SHORT $LN32@CloneData

; 898  : 			}
; 899  : 			pNewData->nDataLength = pData->nDataLength;

  00038	8b 46 04	 mov	 eax, DWORD PTR [esi+4]

; 900  : 			memcpy_s( PXSTR( pNewData->data() ), (pNewData->nDataLength+1) * sizeof( XCHAR ),

  0003b	8d 4e 10	 lea	 ecx, DWORD PTR [esi+16]
  0003e	57		 push	 edi
  0003f	89 43 04	 mov	 DWORD PTR [ebx+4], eax
  00042	8b 7e 04	 mov	 edi, DWORD PTR [esi+4]
  00045	89 4d 08	 mov	 DWORD PTR __Source$1$[ebp], ecx
  00048	8d 70 01	 lea	 esi, DWORD PTR [eax+1]
  0004b	8d 43 10	 lea	 eax, DWORD PTR [ebx+16]
  0004e	83 c7 01	 add	 edi, 1
; File C:\Program Files (x86)\Windows Kits\10\Include\10.0.26100.0\ucrt\corecrt_memcpy_s.h

; 47   :         if (_SourceSize == 0)

  00051	74 5b		 je	 SHORT $LN27@CloneData

; 48   :         {
; 49   :             return 0;
; 50   :         }
; 51   : 
; 52   :         _CRT_MEMCPY_S_VALIDATE_RETURN_ERRCODE(_Destination != NULL, EINVAL);

  00053	85 c0		 test	 eax, eax
  00055	75 17		 jne	 SHORT $LN12@CloneData
$LN30@CloneData:

; 58   :             _CRT_MEMCPY_S_VALIDATE_RETURN_ERRCODE(_DestinationSize >= _SourceSize, ERANGE);

  00057	e8 00 00 00 00	 call	 __errno
  0005c	c7 00 16 00 00
	00		 mov	 DWORD PTR [eax], 22	; 00000016H
  00062	e8 00 00 00 00	 call	 __invalid_parameter_noinfo
  00067	5f		 pop	 edi
; File C:\Program Files\Microsoft Visual Studio\2022\Professional\VC\Tools\MSVC\14.44.35207\atlmfc\include\atlsimpstr.h

; 904  : 		return( pNewData );

  00068	8b c3		 mov	 eax, ebx

; 905  : 	}

  0006a	5e		 pop	 esi
  0006b	5b		 pop	 ebx
  0006c	5d		 pop	 ebp
  0006d	c3		 ret	 0
$LN12@CloneData:
; File C:\Program Files (x86)\Windows Kits\10\Include\10.0.26100.0\ucrt\corecrt_memcpy_s.h

; 53   :         if (_Source == NULL || _DestinationSize < _SourceSize)

  0006e	85 c9		 test	 ecx, ecx
  00070	74 16		 je	 SHORT $LN14@CloneData
  00072	3b f7		 cmp	 esi, edi
  00074	72 12		 jb	 SHORT $LN14@CloneData

; 59   : 
; 60   :             // Unreachable, but required to suppress /analyze warnings:
; 61   :             return EINVAL;
; 62   :         }
; 63   :         memcpy(_Destination, _Source, _SourceSize);

  00076	57		 push	 edi
  00077	51		 push	 ecx
  00078	50		 push	 eax
  00079	e8 00 00 00 00	 call	 _memcpy
  0007e	83 c4 0c	 add	 esp, 12			; 0000000cH
; File C:\Program Files\Microsoft Visual Studio\2022\Professional\VC\Tools\MSVC\14.44.35207\atlmfc\include\atlsimpstr.h

; 904  : 		return( pNewData );

  00081	8b c3		 mov	 eax, ebx
  00083	5f		 pop	 edi

; 905  : 	}

  00084	5e		 pop	 esi
  00085	5b		 pop	 ebx
  00086	5d		 pop	 ebp
  00087	c3		 ret	 0
$LN14@CloneData:
; File C:\Program Files (x86)\Windows Kits\10\Include\10.0.26100.0\ucrt\corecrt_memcpy_s.h

; 55   :             memset(_Destination, 0, _DestinationSize);

  00088	56		 push	 esi
  00089	6a 00		 push	 0
  0008b	50		 push	 eax
  0008c	e8 00 00 00 00	 call	 _memset
  00091	83 c4 0c	 add	 esp, 12			; 0000000cH

; 56   : 
; 57   :             _CRT_MEMCPY_S_VALIDATE_RETURN_ERRCODE(_Source != NULL,                 EINVAL);

  00094	83 7d 08 00	 cmp	 DWORD PTR __Source$1$[ebp], 0
  00098	74 bd		 je	 SHORT $LN30@CloneData

; 58   :             _CRT_MEMCPY_S_VALIDATE_RETURN_ERRCODE(_DestinationSize >= _SourceSize, ERANGE);

  0009a	3b f7		 cmp	 esi, edi
  0009c	73 10		 jae	 SHORT $LN27@CloneData
  0009e	e8 00 00 00 00	 call	 __errno
  000a3	c7 00 22 00 00
	00		 mov	 DWORD PTR [eax], 34	; 00000022H
  000a9	e8 00 00 00 00	 call	 __invalid_parameter_noinfo
$LN27@CloneData:
  000ae	5f		 pop	 edi
; File C:\Program Files\Microsoft Visual Studio\2022\Professional\VC\Tools\MSVC\14.44.35207\atlmfc\include\atlsimpstr.h

; 905  : 	}

  000af	5e		 pop	 esi
  000b0	8b c3		 mov	 eax, ebx
  000b2	5b		 pop	 ebx
  000b3	5d		 pop	 ebp
  000b4	c3		 ret	 0
$LN32@CloneData:

; 896  : 			{
; 897  : 				ThrowMemoryException();

  000b5	e8 00 00 00 00	 call	 ?ThrowMemoryException@?$CSimpleStringT@D$0A@@ATL@@KAXXZ ; ATL::CSimpleStringT<char,0>::ThrowMemoryException
$LN28@CloneData:
  000ba	cc		 int	 3
?CloneData@?$CSimpleStringT@D$0A@@ATL@@CAPAUCStringData@2@PAU32@@Z ENDP ; ATL::CSimpleStringT<char,0>::CloneData
_TEXT	ENDS
; Function compile flags: /Ogtp
; File C:\Program Files\Microsoft Visual Studio\2022\Professional\VC\Tools\MSVC\14.44.35207\atlmfc\include\atlsimpstr.h
;	COMDAT ?Reallocate@?$CSimpleStringT@D$0A@@ATL@@AAEXH@Z
_TEXT	SEGMENT
_nLength$ = 8						; size = 4
?Reallocate@?$CSimpleStringT@D$0A@@ATL@@AAEXH@Z PROC	; ATL::CSimpleStringT<char,0>::Reallocate, COMDAT
; _this$ = ecx

; 853  : 	{

  00000	55		 push	 ebp
  00001	8b ec		 mov	 ebp, esp
  00003	56		 push	 esi

; 854  : 		CStringData* pOldData = GetData();
; 855  : 		ATLASSERT( pOldData->nAllocLength < nLength );
; 856  : 		IAtlStringMgr* pStringMgr = pOldData->pStringMgr;
; 857  : 		if ( pOldData->nAllocLength >= nLength || nLength <= 0)

  00004	8b 75 08	 mov	 esi, DWORD PTR _nLength$[ebp]
  00007	57		 push	 edi
  00008	8b f9		 mov	 edi, ecx

; 804  : 		return( reinterpret_cast< CStringData* >( m_pszData )-1 );

  0000a	8b 17		 mov	 edx, DWORD PTR [edi]
  0000c	83 ea 10	 sub	 edx, 16			; 00000010H

; 854  : 		CStringData* pOldData = GetData();
; 855  : 		ATLASSERT( pOldData->nAllocLength < nLength );
; 856  : 		IAtlStringMgr* pStringMgr = pOldData->pStringMgr;
; 857  : 		if ( pOldData->nAllocLength >= nLength || nLength <= 0)

  0000f	39 72 08	 cmp	 DWORD PTR [edx+8], esi
  00012	7d 1e		 jge	 SHORT $LN3@Reallocate
  00014	85 f6		 test	 esi, esi
  00016	7e 1a		 jle	 SHORT $LN3@Reallocate

; 860  : 			return;
; 861  : 		}
; 862  : 		CStringData* pNewData = pStringMgr->Reallocate( pOldData, nLength, sizeof( XCHAR ) );

  00018	8b 0a		 mov	 ecx, DWORD PTR [edx]
  0001a	6a 01		 push	 1
  0001c	56		 push	 esi
  0001d	52		 push	 edx
  0001e	8b 01		 mov	 eax, DWORD PTR [ecx]
  00020	ff 50 08	 call	 DWORD PTR [eax+8]

; 863  : 		if( pNewData == NULL )

  00023	85 c0		 test	 eax, eax
  00025	74 0b		 je	 SHORT $LN3@Reallocate

; 864  : 		{
; 865  : 			ThrowMemoryException();
; 866  : 		}
; 867  : 		Attach( pNewData );

  00027	83 c0 10	 add	 eax, 16			; 00000010H
  0002a	89 07		 mov	 DWORD PTR [edi], eax
  0002c	5f		 pop	 edi
  0002d	5e		 pop	 esi

; 868  : 	}

  0002e	5d		 pop	 ebp
  0002f	c2 04 00	 ret	 4
$LN3@Reallocate:

; 858  : 		{
; 859  : 			ThrowMemoryException();

  00032	e8 00 00 00 00	 call	 ?ThrowMemoryException@?$CSimpleStringT@D$0A@@ATL@@KAXXZ ; ATL::CSimpleStringT<char,0>::ThrowMemoryException
$LN12@Reallocate:
  00037	cc		 int	 3
?Reallocate@?$CSimpleStringT@D$0A@@ATL@@AAEXH@Z ENDP	; ATL::CSimpleStringT<char,0>::Reallocate
_TEXT	ENDS
; Function compile flags: /Ogtp
; File C:\Program Files\Microsoft Visual Studio\2022\Professional\VC\Tools\MSVC\14.44.35207\atlmfc\include\atlsimpstr.h
;	COMDAT ?PrepareWrite2@?$CSimpleStringT@D$0A@@ATL@@AAEXH@Z
_TEXT	SEGMENT
_nLength$ = 8						; size = 4
?PrepareWrite2@?$CSimpleStringT@D$0A@@ATL@@AAEXH@Z PROC	; ATL::CSimpleStringT<char,0>::PrepareWrite2, COMDAT
; _this$ = ecx

; 822  : 	{

  00000	55		 push	 ebp
  00001	8b ec		 mov	 ebp, esp
  00003	56		 push	 esi

; 823  : 		CStringData* pOldData = GetData();
; 824  : 		if( pOldData->nDataLength > nLength )

  00004	8b 75 08	 mov	 esi, DWORD PTR _nLength$[ebp]
  00007	57		 push	 edi
  00008	8b f9		 mov	 edi, ecx

; 804  : 		return( reinterpret_cast< CStringData* >( m_pszData )-1 );

  0000a	8b 0f		 mov	 ecx, DWORD PTR [edi]

; 823  : 		CStringData* pOldData = GetData();
; 824  : 		if( pOldData->nDataLength > nLength )

  0000c	39 71 f4	 cmp	 DWORD PTR [ecx-12], esi
  0000f	0f 4f 71 f4	 cmovg	 esi, DWORD PTR [ecx-12]

; 77   : 		return( nRefs > 1 );

  00013	83 79 fc 01	 cmp	 DWORD PTR [ecx-4], 1

; 825  : 		{
; 826  : 			nLength = pOldData->nDataLength;
; 827  : 		}
; 828  : 		if( pOldData->IsShared() )

  00017	7e 0e		 jle	 SHORT $LN3@PrepareWri

; 829  : 		{
; 830  : 			Fork( nLength );

  00019	56		 push	 esi
  0001a	8b cf		 mov	 ecx, edi
  0001c	e8 00 00 00 00	 call	 ?Fork@?$CSimpleStringT@D$0A@@ATL@@AAEXH@Z ; ATL::CSimpleStringT<char,0>::Fork
  00021	5f		 pop	 edi

; 850  : 		}
; 851  : 	}

  00022	5e		 pop	 esi
  00023	5d		 pop	 ebp
  00024	c2 04 00	 ret	 4
$LN3@PrepareWri:

; 831  : 		}
; 832  : 		else if( pOldData->nAllocLength < nLength )

  00027	8b 49 f8	 mov	 ecx, DWORD PTR [ecx-8]
  0002a	3b ce		 cmp	 ecx, esi
  0002c	7d 25		 jge	 SHORT $LN5@PrepareWri

; 833  : 		{
; 834  : 			// Grow exponentially, until we hit 1G, then by 1M thereafter.
; 835  : 			int nNewLength = pOldData->nAllocLength;
; 836  : 			if( nNewLength > 1024 * 1024 * 1024 )

  0002e	81 f9 00 00 00
	40		 cmp	 ecx, 1073741824		; 40000000H
  00034	7e 07		 jle	 SHORT $LN6@PrepareWri

; 837  : 			{
; 838  : 				nNewLength += 1024 * 1024;

  00036	b8 00 00 10 00	 mov	 eax, 1048576		; 00100000H

; 839  : 			}

  0003b	eb 07		 jmp	 SHORT $LN7@PrepareWri
$LN6@PrepareWri:

; 840  : 			else
; 841  : 			{
; 842  : 				// Exponential growth factor is 1.5.
; 843  : 				nNewLength = nNewLength + nNewLength / 2;

  0003d	8b c1		 mov	 eax, ecx
  0003f	99		 cdq
  00040	2b c2		 sub	 eax, edx
  00042	d1 f8		 sar	 eax, 1
$LN7@PrepareWri:

; 844  : 			}
; 845  : 			if( nNewLength < nLength )

  00044	03 c1		 add	 eax, ecx

; 846  : 			{
; 847  : 				nNewLength = nLength;
; 848  : 			}
; 849  : 			Reallocate( nNewLength );

  00046	8b cf		 mov	 ecx, edi
  00048	3b c6		 cmp	 eax, esi
  0004a	0f 4d f0	 cmovge	 esi, eax
  0004d	56		 push	 esi
  0004e	e8 00 00 00 00	 call	 ?Reallocate@?$CSimpleStringT@D$0A@@ATL@@AAEXH@Z ; ATL::CSimpleStringT<char,0>::Reallocate
$LN5@PrepareWri:

; 850  : 		}
; 851  : 	}

  00053	5f		 pop	 edi
  00054	5e		 pop	 esi
  00055	5d		 pop	 ebp
  00056	c2 04 00	 ret	 4
?PrepareWrite2@?$CSimpleStringT@D$0A@@ATL@@AAEXH@Z ENDP	; ATL::CSimpleStringT<char,0>::PrepareWrite2
_TEXT	ENDS
; Function compile flags: /Ogtp
; File C:\Program Files\Microsoft Visual Studio\2022\Professional\VC\Tools\MSVC\14.44.35207\atlmfc\include\atlsimpstr.h
; File C:\Program Files (x86)\Windows Kits\10\Include\10.0.26100.0\ucrt\corecrt_memcpy_s.h
; File C:\Program Files\Microsoft Visual Studio\2022\Professional\VC\Tools\MSVC\14.44.35207\atlmfc\include\atlsimpstr.h
;	COMDAT ?Fork@?$CSimpleStringT@D$0A@@ATL@@AAEXH@Z
_TEXT	SEGMENT
_this$1$ = -12						; size = 4
_nOldLength$1$ = -8					; size = 4
__Source$1$ = -4					; size = 4
_nLength$ = 8						; size = 4
_pNewData$1$ = 8					; size = 4
?Fork@?$CSimpleStringT@D$0A@@ATL@@AAEXH@Z PROC		; ATL::CSimpleStringT<char,0>::Fork, COMDAT
; _this$ = ecx

; 787  : 	{

  00000	55		 push	 ebp
  00001	8b ec		 mov	 ebp, esp
  00003	83 ec 0c	 sub	 esp, 12			; 0000000cH
  00006	8b c1		 mov	 eax, ecx
  00008	89 45 f4	 mov	 DWORD PTR _this$1$[ebp], eax
  0000b	53		 push	 ebx
  0000c	56		 push	 esi

; 804  : 		return( reinterpret_cast< CStringData* >( m_pszData )-1 );

  0000d	8b 00		 mov	 eax, DWORD PTR [eax]

; 790  : 		CStringData* pNewData = pOldData->pStringMgr->Clone()->Allocate( nLength, sizeof( XCHAR ) );

  0000f	8b 48 f0	 mov	 ecx, DWORD PTR [eax-16]

; 804  : 		return( reinterpret_cast< CStringData* >( m_pszData )-1 );

  00012	8d 58 f0	 lea	 ebx, DWORD PTR [eax-16]
  00015	89 45 fc	 mov	 DWORD PTR __Source$1$[ebp], eax

; 787  : 	{

  00018	57		 push	 edi

; 788  : 		CStringData* pOldData = GetData();
; 789  : 		int nOldLength = pOldData->nDataLength;

  00019	8b 7b 04	 mov	 edi, DWORD PTR [ebx+4]

; 790  : 		CStringData* pNewData = pOldData->pStringMgr->Clone()->Allocate( nLength, sizeof( XCHAR ) );

  0001c	8b 01		 mov	 eax, DWORD PTR [ecx]
  0001e	89 7d f8	 mov	 DWORD PTR _nOldLength$1$[ebp], edi
  00021	ff 50 10	 call	 DWORD PTR [eax+16]
  00024	8b 75 08	 mov	 esi, DWORD PTR _nLength$[ebp]
  00027	8b c8		 mov	 ecx, eax
  00029	6a 01		 push	 1
  0002b	56		 push	 esi
  0002c	8b 10		 mov	 edx, DWORD PTR [eax]
  0002e	ff 12		 call	 DWORD PTR [edx]
  00030	89 45 08	 mov	 DWORD PTR _pNewData$1$[ebp], eax

; 791  : 		if( pNewData == NULL )

  00033	85 c0		 test	 eax, eax
  00035	74 6c		 je	 SHORT $LN25@Fork

; 794  : 		}
; 795  : 		int nCharsToCopy = ((nOldLength < nLength) ? nOldLength : nLength)+1;  // Copy '\0'

  00037	3b fe		 cmp	 edi, esi
  00039	0f 4c f7	 cmovl	 esi, edi

; 796  : 		memcpy_s( PXSTR( pNewData->data() ), nCharsToCopy * sizeof( XCHAR ),

  0003c	8d 78 10	 lea	 edi, DWORD PTR [eax+16]
  0003f	83 c6 01	 add	 esi, 1
; File C:\Program Files (x86)\Windows Kits\10\Include\10.0.26100.0\ucrt\corecrt_memcpy_s.h

; 47   :         if (_SourceSize == 0)

  00042	74 33		 je	 SHORT $LN11@Fork

; 48   :         {
; 49   :             return 0;
; 50   :         }
; 51   : 
; 52   :         _CRT_MEMCPY_S_VALIDATE_RETURN_ERRCODE(_Destination != NULL, EINVAL);

  00044	85 ff		 test	 edi, edi
  00046	74 1f		 je	 SHORT $LN23@Fork

; 53   :         if (_Source == NULL || _DestinationSize < _SourceSize)

  00048	8b 45 fc	 mov	 eax, DWORD PTR __Source$1$[ebp]
  0004b	56		 push	 esi
  0004c	85 c0		 test	 eax, eax
  0004e	74 0c		 je	 SHORT $LN10@Fork

; 56   : 
; 57   :             _CRT_MEMCPY_S_VALIDATE_RETURN_ERRCODE(_Source != NULL,                 EINVAL);
; 58   :             _CRT_MEMCPY_S_VALIDATE_RETURN_ERRCODE(_DestinationSize >= _SourceSize, ERANGE);
; 59   : 
; 60   :             // Unreachable, but required to suppress /analyze warnings:
; 61   :             return EINVAL;
; 62   :         }
; 63   :         memcpy(_Destination, _Source, _SourceSize);

  00050	50		 push	 eax
  00051	57		 push	 edi
  00052	e8 00 00 00 00	 call	 _memcpy
  00057	83 c4 0c	 add	 esp, 12			; 0000000cH
  0005a	eb 1b		 jmp	 SHORT $LN11@Fork
$LN10@Fork:

; 54   :         {
; 55   :             memset(_Destination, 0, _DestinationSize);

  0005c	6a 00		 push	 0
  0005e	57		 push	 edi
  0005f	e8 00 00 00 00	 call	 _memset
  00064	83 c4 0c	 add	 esp, 12			; 0000000cH
$LN23@Fork:
; File C:\Program Files\Microsoft Visual Studio\2022\Professional\VC\Tools\MSVC\14.44.35207\atlmfc\include\atlsimpstr.h

; 798  : 		pNewData->nDataLength = nOldLength;

  00067	e8 00 00 00 00	 call	 __errno
  0006c	c7 00 16 00 00
	00		 mov	 DWORD PTR [eax], 22	; 00000016H
  00072	e8 00 00 00 00	 call	 __invalid_parameter_noinfo
$LN11@Fork:
  00077	8b 4d 08	 mov	 ecx, DWORD PTR _pNewData$1$[ebp]
  0007a	8b 45 f8	 mov	 eax, DWORD PTR _nOldLength$1$[ebp]
  0007d	89 41 04	 mov	 DWORD PTR [ecx+4], eax

; 92   : 		if( _InterlockedDecrement( &nRefs ) <= 0 )

  00080	83 c8 ff	 or	 eax, -1
  00083	f0 0f c1 43 0c	 lock	  xadd	 DWORD PTR [ebx+12], eax
  00088	48		 dec	 eax
  00089	85 c0		 test	 eax, eax
  0008b	7f 08		 jg	 SHORT $LN15@Fork

; 93   : 		{
; 94   : 			pStringMgr->Free( this );

  0008d	8b 0b		 mov	 ecx, DWORD PTR [ebx]
  0008f	53		 push	 ebx
  00090	8b 01		 mov	 eax, DWORD PTR [ecx]
  00092	ff 50 04	 call	 DWORD PTR [eax+4]
$LN15@Fork:

; 799  : 		pOldData->Release();
; 800  : 		Attach( pNewData );

  00095	8b 45 f4	 mov	 eax, DWORD PTR _this$1$[ebp]
  00098	89 38		 mov	 DWORD PTR [eax], edi

; 801  : 	}

  0009a	5f		 pop	 edi
  0009b	5e		 pop	 esi
  0009c	5b		 pop	 ebx
  0009d	8b e5		 mov	 esp, ebp
  0009f	5d		 pop	 ebp
  000a0	c2 04 00	 ret	 4
$LN25@Fork:

; 792  : 		{
; 793  : 			ThrowMemoryException();

  000a3	e8 00 00 00 00	 call	 ?ThrowMemoryException@?$CSimpleStringT@D$0A@@ATL@@KAXXZ ; ATL::CSimpleStringT<char,0>::ThrowMemoryException
$LN22@Fork:
  000a8	cc		 int	 3
?Fork@?$CSimpleStringT@D$0A@@ATL@@AAEXH@Z ENDP		; ATL::CSimpleStringT<char,0>::Fork
_TEXT	ENDS
; Function compile flags: /Ogtp
; File C:\Program Files\Microsoft Visual Studio\2022\Professional\VC\Tools\MSVC\14.44.35207\atlmfc\include\atlsimpstr.h
;	COMDAT ?ThrowMemoryException@?$CSimpleStringT@D$0A@@ATL@@KAXXZ
_TEXT	SEGMENT
?ThrowMemoryException@?$CSimpleStringT@D$0A@@ATL@@KAXXZ PROC ; ATL::CSimpleStringT<char,0>::ThrowMemoryException, COMDAT

; 777  : 		AtlThrow( E_OUTOFMEMORY );

  00000	68 0e 00 07 80	 push	 -2147024882		; 8007000eH
  00005	e8 00 00 00 00	 call	 ?AtlThrowImpl@ATL@@YGXJ@Z ; ATL::AtlThrowImpl
$LN3@ThrowMemor:
  0000a	cc		 int	 3
?ThrowMemoryException@?$CSimpleStringT@D$0A@@ATL@@KAXXZ ENDP ; ATL::CSimpleStringT<char,0>::ThrowMemoryException
_TEXT	ENDS
; Function compile flags: /Ogtp
; File C:\Program Files\Microsoft Visual Studio\2022\Professional\VC\Tools\MSVC\14.44.35207\atlmfc\include\atlsimpstr.h
; File C:\Program Files (x86)\Windows Kits\10\Include\10.0.26100.0\ucrt\corecrt_memcpy_s.h
; File C:\Program Files\Microsoft Visual Studio\2022\Professional\VC\Tools\MSVC\14.44.35207\atlmfc\include\atlsimpstr.h
; File C:\Program Files (x86)\Windows Kits\10\Include\10.0.26100.0\ucrt\corecrt_memcpy_s.h
; File C:\Program Files\Microsoft Visual Studio\2022\Professional\VC\Tools\MSVC\14.44.35207\atlmfc\include\atlsimpstr.h
;	COMDAT ?SetString@?$CSimpleStringT@D$0A@@ATL@@QAEXPBDH@Z
_TEXT	SEGMENT
_pszSrc$ = 8						; size = 4
_nOldLength$1$ = 8					; size = 4
_nLength$ = 12						; size = 4
_nOffset$1$ = 12					; size = 4
?SetString@?$CSimpleStringT@D$0A@@ATL@@QAEXPBDH@Z PROC	; ATL::CSimpleStringT<char,0>::SetString, COMDAT
; _this$ = ecx

; 611  : 	{

  00000	55		 push	 ebp
  00001	8b ec		 mov	 ebp, esp
  00003	56		 push	 esi

; 612  : 		if( nLength == 0 )

  00004	8b 75 0c	 mov	 esi, DWORD PTR _nLength$[ebp]
  00007	57		 push	 edi
  00008	8b f9		 mov	 edi, ecx
  0000a	85 f6		 test	 esi, esi
  0000c	75 58		 jne	 SHORT $LN2@SetString

; 804  : 		return( reinterpret_cast< CStringData* >( m_pszData )-1 );

  0000e	8b 07		 mov	 eax, DWORD PTR [edi]

; 443  : 		if( pOldData->nDataLength == 0 )

  00010	83 78 f4 00	 cmp	 DWORD PTR [eax-12], 0

; 804  : 		return( reinterpret_cast< CStringData* >( m_pszData )-1 );

  00014	8d 50 f0	 lea	 edx, DWORD PTR [eax-16]

; 442  : 		IAtlStringMgr* pStringMgr = pOldData->pStringMgr;

  00017	8b 32		 mov	 esi, DWORD PTR [edx]

; 443  : 		if( pOldData->nDataLength == 0 )

  00019	74 1f		 je	 SHORT $LN72@SetString

; 73   : 		return nRefs < 0;

  0001b	83 7a 0c 00	 cmp	 DWORD PTR [edx+12], 0
  0001f	8d 4a 0c	 lea	 ecx, DWORD PTR [edx+12]

; 448  : 		if( pOldData->IsLocked() )

  00022	7d 1c		 jge	 SHORT $LN10@SetString

; 875  : 		if( nLength < 0 || nLength > GetData()->nAllocLength)

  00024	83 78 f8 00	 cmp	 DWORD PTR [eax-8], 0
  00028	0f 8c 0b 01 00
	00		 jl	 $LN71@SetString

; 877  : 
; 878  : 		GetData()->nDataLength = nLength;

  0002e	c7 40 f4 00 00
	00 00		 mov	 DWORD PTR [eax-12], 0

; 879  : 		m_pszData[nLength] = 0;

  00035	8b 07		 mov	 eax, DWORD PTR [edi]
  00037	c6 00 00	 mov	 BYTE PTR [eax], 0
$LN72@SetString:
  0003a	5f		 pop	 edi

; 638  : 			else
; 639  : 			{
; 640  : 				memcpy_s( pszBuffer, GetAllocLength() * sizeof( XCHAR ), pszSrc, nLength * sizeof( XCHAR ));
; 641  : 			}
; 642  : 			ReleaseBufferSetLength( nLength );
; 643  : 		}
; 644  : 	}

  0003b	5e		 pop	 esi
  0003c	5d		 pop	 ebp
  0003d	c2 08 00	 ret	 8
$LN10@SetString:

; 92   : 		if( _InterlockedDecrement( &nRefs ) <= 0 )

  00040	83 c8 ff	 or	 eax, -1
  00043	f0 0f c1 01	 lock	  xadd	 DWORD PTR [ecx], eax
  00047	48		 dec	 eax
  00048	85 c0		 test	 eax, eax
  0004a	7f 08		 jg	 SHORT $LN27@SetString

; 93   : 		{
; 94   : 			pStringMgr->Free( this );

  0004c	8b 0a		 mov	 ecx, DWORD PTR [edx]
  0004e	52		 push	 edx
  0004f	8b 01		 mov	 eax, DWORD PTR [ecx]
  00051	ff 50 04	 call	 DWORD PTR [eax+4]
$LN27@SetString:

; 456  : 			CStringData* pNewData = pStringMgr->GetNilString();

  00054	8b 06		 mov	 eax, DWORD PTR [esi]
  00056	8b ce		 mov	 ecx, esi
  00058	ff 50 0c	 call	 DWORD PTR [eax+12]

; 457  : 			Attach( pNewData );

  0005b	83 c0 10	 add	 eax, 16			; 00000010H
  0005e	89 07		 mov	 DWORD PTR [edi], eax
  00060	5f		 pop	 edi

; 638  : 			else
; 639  : 			{
; 640  : 				memcpy_s( pszBuffer, GetAllocLength() * sizeof( XCHAR ), pszSrc, nLength * sizeof( XCHAR ));
; 641  : 			}
; 642  : 			ReleaseBufferSetLength( nLength );
; 643  : 		}
; 644  : 	}

  00061	5e		 pop	 esi
  00062	5d		 pop	 ebp
  00063	c2 08 00	 ret	 8
$LN2@SetString:
  00066	53		 push	 ebx

; 613  : 		{
; 614  : 			Empty();
; 615  : 		}
; 616  : 		else
; 617  : 		{
; 618  : 			// It is possible that pszSrc points to a location inside of our
; 619  : 			// buffer.  GetBuffer() might change m_pszData if (1) the buffer
; 620  : 			// is shared or (2) the buffer is too small to hold the new
; 621  : 			// string.  We detect this aliasing, and modify pszSrc to point
; 622  : 			// into the newly allocated buffer instead.
; 623  : 
; 624  : 			if(pszSrc == NULL)

  00067	8b 5d 08	 mov	 ebx, DWORD PTR _pszSrc$[ebp]
  0006a	85 db		 test	 ebx, ebx
  0006c	0f 84 c7 00 00
	00		 je	 $LN71@SetString

; 523  : 		return( GetData()->nDataLength );

  00072	8b 07		 mov	 eax, DWORD PTR [edi]

; 625  : 				AtlThrow(E_INVALIDARG);
; 626  : 
; 627  : 			UINT nOldLength = GetLength();
; 628  : 			UINT_PTR nOffset = pszSrc-GetString();

  00074	8b d3		 mov	 edx, ebx
  00076	2b d0		 sub	 edx, eax
  00078	89 55 0c	 mov	 DWORD PTR _nOffset$1$[ebp], edx
  0007b	8b 48 f4	 mov	 ecx, DWORD PTR [eax-12]
  0007e	89 4d 08	 mov	 DWORD PTR _nOldLength$1$[ebp], ecx

; 808  : 		if (nLength < 0)

  00081	85 f6		 test	 esi, esi
  00083	0f 88 b0 00 00
	00		 js	 $LN71@SetString

; 809  : 			AtlThrow(E_INVALIDARG);
; 810  : 
; 811  : 		CStringData* pOldData = GetData();
; 812  : 		int nShared = 1-pOldData->nRefs;  // nShared < 0 means true, >= 0 means false

  00089	b9 01 00 00 00	 mov	 ecx, 1
  0008e	2b 48 fc	 sub	 ecx, DWORD PTR [eax-4]

; 813  : 		int nTooShort = pOldData->nAllocLength-nLength;  // nTooShort < 0 means true, >= 0 means false

  00091	8b 40 f8	 mov	 eax, DWORD PTR [eax-8]
  00094	2b c6		 sub	 eax, esi

; 814  : 		if( (nShared|nTooShort) < 0 )  // If either sign bit is set (i.e. either is less than zero), we need to copy data

  00096	0b c8		 or	 ecx, eax
  00098	7d 0b		 jge	 SHORT $LN38@SetString

; 815  : 		{
; 816  : 			PrepareWrite2( nLength );

  0009a	56		 push	 esi
  0009b	8b cf		 mov	 ecx, edi
  0009d	e8 00 00 00 00	 call	 ?PrepareWrite2@?$CSimpleStringT@D$0A@@ATL@@AAEXH@Z ; ATL::CSimpleStringT<char,0>::PrepareWrite2
  000a2	8b 55 0c	 mov	 edx, DWORD PTR _nOffset$1$[ebp]
$LN38@SetString:

; 629  : 			// If 0 <= nOffset <= nOldLength, then pszSrc points into our
; 630  : 			// buffer
; 631  : 
; 632  : 			PXSTR pszBuffer = GetBuffer( nLength );

  000a5	8b 07		 mov	 eax, DWORD PTR [edi]
  000a7	8b 48 f8	 mov	 ecx, DWORD PTR [eax-8]

; 633  : 			if( nOffset <= nOldLength )

  000aa	3b 55 08	 cmp	 edx, DWORD PTR _nOldLength$1$[ebp]
  000ad	77 35		 ja	 SHORT $LN5@SetString

; 634  : 			{
; 635  : 				CopyCharsOverlapped( pszBuffer, GetAllocLength(),

  000af	03 d0		 add	 edx, eax
; File C:\Program Files (x86)\Windows Kits\10\Include\10.0.26100.0\ucrt\corecrt_memcpy_s.h

; 81   :         _CRT_MEMCPY_S_VALIDATE_RETURN_ERRCODE(_Destination != NULL,            EINVAL);

  000b1	85 c0		 test	 eax, eax
  000b3	75 0d		 jne	 SHORT $LN51@SetString
  000b5	e8 00 00 00 00	 call	 __errno
  000ba	c7 00 16 00 00
	00		 mov	 DWORD PTR [eax], 22	; 00000016H
  000c0	eb 5b		 jmp	 SHORT $LN97@SetString
$LN51@SetString:

; 82   :         _CRT_MEMCPY_S_VALIDATE_RETURN_ERRCODE(_Source != NULL,                 EINVAL);

  000c2	85 d2		 test	 edx, edx
  000c4	75 0d		 jne	 SHORT $LN52@SetString
  000c6	e8 00 00 00 00	 call	 __errno
  000cb	c7 00 16 00 00
	00		 mov	 DWORD PTR [eax], 22	; 00000016H
  000d1	eb 4a		 jmp	 SHORT $LN97@SetString
$LN52@SetString:

; 83   :         _CRT_MEMCPY_S_VALIDATE_RETURN_ERRCODE(_DestinationSize >= _SourceSize, ERANGE);

  000d3	3b ce		 cmp	 ecx, esi
  000d5	72 3b		 jb	 SHORT $LN98@SetString

; 84   : 
; 85   :         memmove(_Destination, _Source, _SourceSize);

  000d7	56		 push	 esi
  000d8	52		 push	 edx
  000d9	50		 push	 eax
  000da	e8 00 00 00 00	 call	 _memmove
  000df	83 c4 0c	 add	 esp, 12			; 0000000cH
; File C:\Program Files\Microsoft Visual Studio\2022\Professional\VC\Tools\MSVC\14.44.35207\atlmfc\include\atlsimpstr.h

; 637  : 			}

  000e2	eb 3e		 jmp	 SHORT $LN65@SetString
$LN5@SetString:
; File C:\Program Files (x86)\Windows Kits\10\Include\10.0.26100.0\ucrt\corecrt_memcpy_s.h

; 52   :         _CRT_MEMCPY_S_VALIDATE_RETURN_ERRCODE(_Destination != NULL, EINVAL);

  000e4	85 c0		 test	 eax, eax
  000e6	75 0d		 jne	 SHORT $LN61@SetString
  000e8	e8 00 00 00 00	 call	 __errno
  000ed	c7 00 16 00 00
	00		 mov	 DWORD PTR [eax], 22	; 00000016H
  000f3	eb 28		 jmp	 SHORT $LN97@SetString
$LN61@SetString:

; 53   :         if (_Source == NULL || _DestinationSize < _SourceSize)

  000f5	3b ce		 cmp	 ecx, esi
  000f7	72 0d		 jb	 SHORT $LN63@SetString

; 56   : 
; 57   :             _CRT_MEMCPY_S_VALIDATE_RETURN_ERRCODE(_Source != NULL,                 EINVAL);
; 58   :             _CRT_MEMCPY_S_VALIDATE_RETURN_ERRCODE(_DestinationSize >= _SourceSize, ERANGE);
; 59   : 
; 60   :             // Unreachable, but required to suppress /analyze warnings:
; 61   :             return EINVAL;
; 62   :         }
; 63   :         memcpy(_Destination, _Source, _SourceSize);

  000f9	56		 push	 esi
  000fa	53		 push	 ebx
  000fb	50		 push	 eax
  000fc	e8 00 00 00 00	 call	 _memcpy
  00101	83 c4 0c	 add	 esp, 12			; 0000000cH
  00104	eb 1c		 jmp	 SHORT $LN65@SetString
$LN63@SetString:

; 54   :         {
; 55   :             memset(_Destination, 0, _DestinationSize);

  00106	51		 push	 ecx
  00107	6a 00		 push	 0
  00109	50		 push	 eax
  0010a	e8 00 00 00 00	 call	 _memset
  0010f	83 c4 0c	 add	 esp, 12			; 0000000cH
$LN98@SetString:
; File C:\Program Files\Microsoft Visual Studio\2022\Professional\VC\Tools\MSVC\14.44.35207\atlmfc\include\atlsimpstr.h

; 875  : 		if( nLength < 0 || nLength > GetData()->nAllocLength)

  00112	e8 00 00 00 00	 call	 __errno
  00117	c7 00 22 00 00
	00		 mov	 DWORD PTR [eax], 34	; 00000022H
$LN97@SetString:
  0011d	e8 00 00 00 00	 call	 __invalid_parameter_noinfo
$LN65@SetString:
  00122	8b 07		 mov	 eax, DWORD PTR [edi]
  00124	5b		 pop	 ebx
  00125	3b 70 f8	 cmp	 esi, DWORD PTR [eax-8]
  00128	7f 0f		 jg	 SHORT $LN71@SetString

; 877  : 
; 878  : 		GetData()->nDataLength = nLength;

  0012a	89 70 f4	 mov	 DWORD PTR [eax-12], esi

; 879  : 		m_pszData[nLength] = 0;

  0012d	8b 07		 mov	 eax, DWORD PTR [edi]
  0012f	5f		 pop	 edi
  00130	c6 04 06 00	 mov	 BYTE PTR [esi+eax], 0

; 638  : 			else
; 639  : 			{
; 640  : 				memcpy_s( pszBuffer, GetAllocLength() * sizeof( XCHAR ), pszSrc, nLength * sizeof( XCHAR ));
; 641  : 			}
; 642  : 			ReleaseBufferSetLength( nLength );
; 643  : 		}
; 644  : 	}

  00134	5e		 pop	 esi
  00135	5d		 pop	 ebp
  00136	c2 08 00	 ret	 8
$LN71@SetString:

; 876  : 			AtlThrow(E_INVALIDARG);

  00139	68 57 00 07 80	 push	 -2147024809		; 80070057H
  0013e	e8 00 00 00 00	 call	 ?AtlThrowImpl@ATL@@YGXJ@Z ; ATL::AtlThrowImpl
$LN96@SetString:
  00143	cc		 int	 3
?SetString@?$CSimpleStringT@D$0A@@ATL@@QAEXPBDH@Z ENDP	; ATL::CSimpleStringT<char,0>::SetString
_TEXT	ENDS
; Function compile flags: /Ogtp
; File C:\Program Files\Microsoft Visual Studio\2022\Professional\VC\Tools\MSVC\14.44.35207\atlmfc\include\atlexcept.h
;	COMDAT ?AtlThrowImpl@ATL@@YGXJ@Z
_TEXT	SEGMENT
_hr$ = 8						; size = 4
?AtlThrowImpl@ATL@@YGXJ@Z PROC				; ATL::AtlThrowImpl, COMDAT

; 69   : {

  00000	55		 push	 ebp
  00001	8b ec		 mov	 ebp, esp

; 70   : 	ATLTRACE(atlTraceException, 0, _T("AtlThrow: hr = 0x%x\n"), hr );
; 71   : #ifdef _AFX
; 72   : 	if( hr == E_OUTOFMEMORY )

  00003	8b 45 08	 mov	 eax, DWORD PTR _hr$[ebp]
  00006	3d 0e 00 07 80	 cmp	 eax, -2147024882	; 8007000eH
  0000b	75 05		 jne	 SHORT $LN2@AtlThrowIm

; 73   : 	{
; 74   : 		AfxThrowMemoryException();

  0000d	e8 00 00 00 00	 call	 ?AfxThrowMemoryException@@YGXXZ ; AfxThrowMemoryException
$LN2@AtlThrowIm:

; 75   : 	}
; 76   : 	else
; 77   : 	{
; 78   : 		AfxThrowOleException( hr );

  00012	50		 push	 eax
  00013	e8 00 00 00 00	 call	 ?AfxThrowOleException@@YGXJ@Z ; AfxThrowOleException
$LN5@AtlThrowIm:
  00018	cc		 int	 3
?AtlThrowImpl@ATL@@YGXJ@Z ENDP				; ATL::AtlThrowImpl
_TEXT	ENDS
; Function compile flags: /Ogtp
; File C:\Program Files (x86)\Windows Kits\10\Include\10.0.26100.0\ucrt\stdio.h
;	COMDAT _sprintf
_TEXT	SEGMENT
__Buffer$ = 8						; size = 4
__Format$ = 12						; size = 4
_sprintf PROC						; COMDAT

; 1771 :     {

  00000	55		 push	 ebp
  00001	8b ec		 mov	 ebp, esp

; 1392 :         int const _Result = __stdio_common_vsprintf(

  00003	8d 45 10	 lea	 eax, DWORD PTR __Format$[ebp+4]
  00006	50		 push	 eax
  00007	6a 00		 push	 0
  00009	ff 75 0c	 push	 DWORD PTR __Format$[ebp]
  0000c	6a ff		 push	 -1
  0000e	ff 75 08	 push	 DWORD PTR __Buffer$[ebp]
  00011	e8 00 00 00 00	 call	 ___local_stdio_printf_options
  00016	8b 08		 mov	 ecx, DWORD PTR [eax]
  00018	ff 70 04	 push	 DWORD PTR [eax+4]
  0001b	83 c9 01	 or	 ecx, 1
  0001e	51		 push	 ecx
  0001f	e8 00 00 00 00	 call	 ___stdio_common_vsprintf

; 1393 :             _CRT_INTERNAL_LOCAL_PRINTF_OPTIONS | _CRT_INTERNAL_PRINTF_LEGACY_VSPRINTF_NULL_TERMINATION,
; 1394 :             _Buffer, _BufferCount, _Format, _Locale, _ArgList);
; 1395 : 
; 1396 :         return _Result < 0 ? -1 : _Result;

  00024	83 c9 ff	 or	 ecx, -1
  00027	83 c4 1c	 add	 esp, 28			; 0000001cH
  0002a	85 c0		 test	 eax, eax
  0002c	0f 48 c1	 cmovs	 eax, ecx

; 1772 :         int _Result;
; 1773 :         va_list _ArgList;
; 1774 :         __crt_va_start(_ArgList, _Format);
; 1775 : 
; 1776 :         _Result = _vsprintf_l(_Buffer, _Format, NULL, _ArgList);
; 1777 : 
; 1778 :         __crt_va_end(_ArgList);
; 1779 :         return _Result;
; 1780 :     }

  0002f	5d		 pop	 ebp
  00030	c3		 ret	 0
_sprintf ENDP
_TEXT	ENDS
; Function compile flags: /Ogtp
; File C:\Program Files (x86)\Windows Kits\10\Include\10.0.26100.0\ucrt\corecrt_stdio_config.h
;	COMDAT ___local_stdio_printf_options
_TEXT	SEGMENT
___local_stdio_printf_options PROC			; COMDAT

; 91   :         static unsigned __int64 _OptionsStorage;
; 92   :         return &_OptionsStorage;

  00000	b8 00 00 00 00	 mov	 eax, OFFSET ?_OptionsStorage@?1??__local_stdio_printf_options@@9@4_KA ; `__local_stdio_printf_options'::`2'::_OptionsStorage

; 93   :     }

  00005	c3		 ret	 0
___local_stdio_printf_options ENDP
_TEXT	ENDS
; Function compile flags: /Ogtp
; File C:\IAGOS\server\v18\Source\Source\_Common\vutil.cpp
;	COMDAT ?__empty_global_delete@@YAXPAXI@Z
_TEXT	SEGMENT
___formal$ = 8						; size = 4
___formal$ = 12						; size = 4
?__empty_global_delete@@YAXPAXI@Z PROC			; __empty_global_delete, COMDAT

  00000	c2 00 00	 ret	 0
?__empty_global_delete@@YAXPAXI@Z ENDP			; __empty_global_delete
_TEXT	ENDS
; Function compile flags: /Ogtp
; File C:\IAGOS\server\v18\Source\Source\_Common\vutil.cpp
;	COMDAT ?__empty_global_delete@@YAXPAX@Z
_TEXT	SEGMENT
___formal$ = 8						; size = 4
?__empty_global_delete@@YAXPAX@Z PROC			; __empty_global_delete, COMDAT

  00000	c2 00 00	 ret	 0
?__empty_global_delete@@YAXPAX@Z ENDP			; __empty_global_delete
_TEXT	ENDS
END
