; Listing generated by Microsoft (R) Optimizing Compiler Version 19.44.35225.0 

	TITLE	C:\IAGOS\server\v18\Source\Output\WorldServer\Release\WorldDialog.obj
	.686P
	.XMM
	include listing.inc
	.model	flat

INCLUDELIB LIBCMT
INCLUDELIB OLDNAMES

PUBLIC	?__empty_global_delete@@YAXPAX@Z		; __empty_global_delete
PUBLIC	?__empty_global_delete@@YAXPAXI@Z		; __empty_global_delete
PUBLIC	??0CWorldDialog@@AAE@XZ				; CWorldDialog::CWorldDialog
PUBLIC	??1CWorldDialog@@QAE@XZ				; CWorldDialog::~CWorldDialog
PUBLIC	?Load@CWorldDialog@@AAEHXZ			; CWorldDialog::Load
PUBLIC	?Free@CWorldDialog@@AAEXXZ			; CWorldDialog::Free
PUBLIC	?Init@CWorldDialog@@QAEHXZ			; CWorldDialog::Init
PUBLIC	?Run@CWorldDialog@@QAEHPBD0PAUNPCDIALOG_INFO@@@Z ; CWorldDialog::Run
PUBLIC	?Find@CWorldDialog@@QAEHPBD0@Z			; CWorldDialog::Find
PUBLIC	?Reload@CWorldDialog@@QAEHXZ			; CWorldDialog::Reload
PUBLIC	?GetInstance@CWorldDialog@@SAAAV1@XZ		; CWorldDialog::GetInstance
PUBLIC	??_C@_0BA@CJEOMAAL@WorldDialog?4dll@		; `string'
PUBLIC	??_C@_09PNOLJNCM@RunDialog@			; `string'
PUBLIC	??_C@_0O@DCFPABC@FindScriptKey@			; `string'
PUBLIC	??_C@_0BA@KDGFEHIJ@InitWorldDialog@		; `string'
PUBLIC	??_C@_0M@BMMLELAG@SetLanguage@			; `string'
EXTRN	_atexit:PROC
EXTRN	__Init_thread_header:PROC
EXTRN	__Init_thread_footer:PROC
EXTRN	__imp__FreeLibrary@4:PROC
EXTRN	__imp__GetProcAddress@8:PROC
EXTRN	__imp__LoadLibraryA@4:PROC
EXTRN	?GetLanguage@@YAHXZ:PROC			; GetLanguage
EXTRN	?InitDialogFunctions@@YAXXZ:PROC		; InitDialogFunctions
EXTRN	__Init_thread_epoch:DWORD
EXTRN	__tls_array:DWORD
EXTRN	__tls_index:DWORD
;	COMDAT ?obj@?1??GetInstance@CWorldDialog@@SAAAV2@XZ@4V2@A
_BSS	SEGMENT
?obj@?1??GetInstance@CWorldDialog@@SAAAV2@XZ@4V2@A DB 010H DUP (?) ; `CWorldDialog::GetInstance'::`2'::obj
_BSS	ENDS
;	COMDAT ?$TSS0@?1??GetInstance@CWorldDialog@@SAAAV2@XZ@4HA
_BSS	SEGMENT
?$TSS0@?1??GetInstance@CWorldDialog@@SAAAV2@XZ@4HA DD 01H DUP (?) ; `CWorldDialog::GetInstance'::`2'::$TSS0
_BSS	ENDS
;	COMDAT ??_C@_0M@BMMLELAG@SetLanguage@
CONST	SEGMENT
??_C@_0M@BMMLELAG@SetLanguage@ DB 'SetLanguage', 00H	; `string'
CONST	ENDS
;	COMDAT ??_C@_0BA@KDGFEHIJ@InitWorldDialog@
CONST	SEGMENT
??_C@_0BA@KDGFEHIJ@InitWorldDialog@ DB 'InitWorldDialog', 00H ; `string'
CONST	ENDS
;	COMDAT ??_C@_0O@DCFPABC@FindScriptKey@
CONST	SEGMENT
??_C@_0O@DCFPABC@FindScriptKey@ DB 'FindScriptKey', 00H	; `string'
CONST	ENDS
;	COMDAT ??_C@_09PNOLJNCM@RunDialog@
CONST	SEGMENT
??_C@_09PNOLJNCM@RunDialog@ DB 'RunDialog', 00H		; `string'
CONST	ENDS
;	COMDAT ??_C@_0BA@CJEOMAAL@WorldDialog?4dll@
CONST	SEGMENT
??_C@_0BA@CJEOMAAL@WorldDialog?4dll@ DB 'WorldDialog.dll', 00H ; `string'
CONST	ENDS
; Function compile flags: /Ogtp
;	COMDAT ??__Fobj@?1??GetInstance@CWorldDialog@@SAAAV1@XZ@YAXXZ
text$yd	SEGMENT
??__Fobj@?1??GetInstance@CWorldDialog@@SAAAV1@XZ@YAXXZ PROC ; `CWorldDialog::GetInstance'::`2'::`dynamic atexit destructor for 'obj'', COMDAT
  00000	b9 00 00 00 00	 mov	 ecx, OFFSET ?obj@?1??GetInstance@CWorldDialog@@SAAAV2@XZ@4V2@A
  00005	e9 00 00 00 00	 jmp	 ??1CWorldDialog@@QAE@XZ	; CWorldDialog::~CWorldDialog
??__Fobj@?1??GetInstance@CWorldDialog@@SAAAV1@XZ@YAXXZ ENDP ; `CWorldDialog::GetInstance'::`2'::`dynamic atexit destructor for 'obj''
text$yd	ENDS
; Function compile flags: /Ogtp
; File C:\IAGOS\server\v18\Source\Source\WorldServer\WorldDialog.cpp
;	COMDAT ?GetInstance@CWorldDialog@@SAAAV1@XZ
_TEXT	SEGMENT
?GetInstance@CWorldDialog@@SAAAV1@XZ PROC		; CWorldDialog::GetInstance, COMDAT

; 11   : 	static CWorldDialog obj;

  00000	64 a1 00 00 00
	00		 mov	 eax, DWORD PTR fs:__tls_array
  00006	8b 0d 00 00 00
	00		 mov	 ecx, DWORD PTR __tls_index
  0000c	8b 0c 88	 mov	 ecx, DWORD PTR [eax+ecx*4]
  0000f	a1 00 00 00 00	 mov	 eax, DWORD PTR ?$TSS0@?1??GetInstance@CWorldDialog@@SAAAV2@XZ@4HA
  00014	3b 81 00 00 00
	00		 cmp	 eax, DWORD PTR __Init_thread_epoch[ecx]
  0001a	7f 06		 jg	 SHORT $LN8@GetInstanc
$LN5@GetInstanc:

; 12   : 	return obj;
; 13   : }

  0001c	b8 00 00 00 00	 mov	 eax, OFFSET ?obj@?1??GetInstance@CWorldDialog@@SAAAV2@XZ@4V2@A
  00021	c3		 ret	 0
$LN8@GetInstanc:

; 11   : 	static CWorldDialog obj;

  00022	68 00 00 00 00	 push	 OFFSET ?$TSS0@?1??GetInstance@CWorldDialog@@SAAAV2@XZ@4HA
  00027	e8 00 00 00 00	 call	 __Init_thread_header
  0002c	83 c4 04	 add	 esp, 4
  0002f	83 3d 00 00 00
	00 ff		 cmp	 DWORD PTR ?$TSS0@?1??GetInstance@CWorldDialog@@SAAAV2@XZ@4HA, -1
  00036	75 e4		 jne	 SHORT $LN5@GetInstanc
  00038	b9 00 00 00 00	 mov	 ecx, OFFSET ?obj@?1??GetInstance@CWorldDialog@@SAAAV2@XZ@4V2@A
  0003d	e8 00 00 00 00	 call	 ??0CWorldDialog@@AAE@XZ	; CWorldDialog::CWorldDialog
  00042	68 00 00 00 00	 push	 OFFSET ??__Fobj@?1??GetInstance@CWorldDialog@@SAAAV1@XZ@YAXXZ ; `CWorldDialog::GetInstance'::`2'::`dynamic atexit destructor for 'obj''
  00047	e8 00 00 00 00	 call	 _atexit
  0004c	68 00 00 00 00	 push	 OFFSET ?$TSS0@?1??GetInstance@CWorldDialog@@SAAAV2@XZ@4HA
  00051	e8 00 00 00 00	 call	 __Init_thread_footer
  00056	83 c4 08	 add	 esp, 8
  00059	eb c1		 jmp	 SHORT $LN5@GetInstanc
?GetInstance@CWorldDialog@@SAAAV1@XZ ENDP		; CWorldDialog::GetInstance
_TEXT	ENDS
; Function compile flags: /Ogtp
; File C:\IAGOS\server\v18\Source\Source\WorldServer\WorldDialog.cpp
;	COMDAT ?Reload@CWorldDialog@@QAEHXZ
_TEXT	SEGMENT
?Reload@CWorldDialog@@QAEHXZ PROC			; CWorldDialog::Reload, COMDAT
; _this$ = ecx

; 29   : {

  00000	56		 push	 esi
  00001	8b f1		 mov	 esi, ecx

; 30   : 	Free();

  00003	e8 00 00 00 00	 call	 ?Free@CWorldDialog@@AAEXXZ ; CWorldDialog::Free

; 31   : 	return Load();

  00008	8b ce		 mov	 ecx, esi
  0000a	5e		 pop	 esi
  0000b	e9 00 00 00 00	 jmp	 ?Load@CWorldDialog@@AAEHXZ ; CWorldDialog::Load
?Reload@CWorldDialog@@QAEHXZ ENDP			; CWorldDialog::Reload
_TEXT	ENDS
; Function compile flags: /Ogtp
; File C:\IAGOS\server\v18\Source\Source\WorldServer\WorldDialog.cpp
;	COMDAT ?Find@CWorldDialog@@QAEHPBD0@Z
_TEXT	SEGMENT
_szName$ = 8						; size = 4
_szKey$ = 12						; size = 4
?Find@CWorldDialog@@QAEHPBD0@Z PROC			; CWorldDialog::Find, COMDAT
; _this$ = ecx

; 73   : {

  00000	55		 push	 ebp
  00001	8b ec		 mov	 ebp, esp

; 74   : 	if( m_hDLL )

  00003	83 39 00	 cmp	 DWORD PTR [ecx], 0
  00006	74 06		 je	 SHORT $LN2@Find

; 75   : 		return m_pfnFindScriptKey( szName, szKey );

  00008	8b 41 08	 mov	 eax, DWORD PTR [ecx+8]

; 78   : }

  0000b	5d		 pop	 ebp

; 75   : 		return m_pfnFindScriptKey( szName, szKey );

  0000c	ff e0		 jmp	 eax
$LN2@Find:

; 76   : 	else
; 77   : 		return FALSE;

  0000e	33 c0		 xor	 eax, eax

; 78   : }

  00010	5d		 pop	 ebp
  00011	c2 08 00	 ret	 8
?Find@CWorldDialog@@QAEHPBD0@Z ENDP			; CWorldDialog::Find
_TEXT	ENDS
; Function compile flags: /Ogtp
; File C:\IAGOS\server\v18\Source\Source\WorldServer\WorldDialog.cpp
;	COMDAT ?Run@CWorldDialog@@QAEHPBD0PAUNPCDIALOG_INFO@@@Z
_TEXT	SEGMENT
_szName$ = 8						; size = 4
_szKey$ = 12						; size = 4
_pInfo$ = 16						; size = 4
?Run@CWorldDialog@@QAEHPBD0PAUNPCDIALOG_INFO@@@Z PROC	; CWorldDialog::Run, COMDAT
; _this$ = ecx

; 81   : {

  00000	55		 push	 ebp
  00001	8b ec		 mov	 ebp, esp

; 82   : 	if( m_hDLL )

  00003	83 39 00	 cmp	 DWORD PTR [ecx], 0
  00006	74 06		 je	 SHORT $LN2@Run

; 83   : 		return m_pfnRunDialog( szName, szKey, pInfo );

  00008	8b 41 04	 mov	 eax, DWORD PTR [ecx+4]

; 86   : }

  0000b	5d		 pop	 ebp

; 83   : 		return m_pfnRunDialog( szName, szKey, pInfo );

  0000c	ff e0		 jmp	 eax
$LN2@Run:

; 84   : 	else
; 85   : 		return 0;

  0000e	33 c0		 xor	 eax, eax

; 86   : }

  00010	5d		 pop	 ebp
  00011	c2 0c 00	 ret	 12			; 0000000cH
?Run@CWorldDialog@@QAEHPBD0PAUNPCDIALOG_INFO@@@Z ENDP	; CWorldDialog::Run
_TEXT	ENDS
; Function compile flags: /Ogtp
; File C:\IAGOS\server\v18\Source\Source\WorldServer\WorldDialog.cpp
;	COMDAT ?Init@CWorldDialog@@QAEHXZ
_TEXT	SEGMENT
?Init@CWorldDialog@@QAEHXZ PROC				; CWorldDialog::Init, COMDAT
; _this$ = ecx

; 67   : {

  00000	56		 push	 esi
  00001	8b f1		 mov	 esi, ecx

; 68   : 	InitDialogFunctions();

  00003	e8 00 00 00 00	 call	 ?InitDialogFunctions@@YAXXZ ; InitDialogFunctions

; 69   : 	return Load();

  00008	8b ce		 mov	 ecx, esi
  0000a	5e		 pop	 esi
  0000b	e9 00 00 00 00	 jmp	 ?Load@CWorldDialog@@AAEHXZ ; CWorldDialog::Load
?Init@CWorldDialog@@QAEHXZ ENDP				; CWorldDialog::Init
_TEXT	ENDS
; Function compile flags: /Ogtp
; File C:\IAGOS\server\v18\Source\Source\WorldServer\WorldDialog.cpp
;	COMDAT ?Free@CWorldDialog@@AAEXXZ
_TEXT	SEGMENT
?Free@CWorldDialog@@AAEXXZ PROC				; CWorldDialog::Free, COMDAT
; _this$ = ecx

; 58   : {

  00000	56		 push	 esi
  00001	8b f1		 mov	 esi, ecx

; 59   : 	if( m_hDLL )

  00003	8b 06		 mov	 eax, DWORD PTR [esi]
  00005	85 c0		 test	 eax, eax
  00007	74 0d		 je	 SHORT $LN2@Free

; 60   : 	{
; 61   : 		::FreeLibrary( m_hDLL );

  00009	50		 push	 eax
  0000a	ff 15 00 00 00
	00		 call	 DWORD PTR __imp__FreeLibrary@4

; 62   : 		m_hDLL = NULL;

  00010	c7 06 00 00 00
	00		 mov	 DWORD PTR [esi], 0
$LN2@Free:

; 63   : 	}
; 64   : }

  00016	5e		 pop	 esi
  00017	c3		 ret	 0
?Free@CWorldDialog@@AAEXXZ ENDP				; CWorldDialog::Free
_TEXT	ENDS
; Function compile flags: /Ogtp
; File C:\IAGOS\server\v18\Source\Source\WorldServer\WorldDialog.cpp
;	COMDAT ?Load@CWorldDialog@@AAEHXZ
_TEXT	SEGMENT
?Load@CWorldDialog@@AAEHXZ PROC				; CWorldDialog::Load, COMDAT
; _this$ = ecx

; 35   : {

  00000	56		 push	 esi
  00001	57		 push	 edi

; 36   : 	HINSTANCE hModule = LoadLibrary( "WorldDialog.dll" );

  00002	68 00 00 00 00	 push	 OFFSET ??_C@_0BA@CJEOMAAL@WorldDialog?4dll@
  00007	8b f9		 mov	 edi, ecx
  00009	ff 15 00 00 00
	00		 call	 DWORD PTR __imp__LoadLibraryA@4

; 37   : 	if( hModule )

  0000f	85 c0		 test	 eax, eax
  00011	74 65		 je	 SHORT $LN5@Load

; 38   : 	{
; 39   : 		m_hDLL = hModule;
; 40   : 		m_pfnRunDialog = (PFRUNDIALOG)GetProcAddress( m_hDLL, "RunDialog" );		

  00013	8b 35 00 00 00
	00		 mov	 esi, DWORD PTR __imp__GetProcAddress@8
  00019	68 00 00 00 00	 push	 OFFSET ??_C@_09PNOLJNCM@RunDialog@
  0001e	50		 push	 eax
  0001f	89 07		 mov	 DWORD PTR [edi], eax
  00021	ff d6		 call	 esi

; 41   : 		m_pfnFindScriptKey = (PFFINDSCIRPTKEY)GetProcAddress( m_hDLL, "FindScriptKey" );

  00023	68 00 00 00 00	 push	 OFFSET ??_C@_0O@DCFPABC@FindScriptKey@
  00028	ff 37		 push	 DWORD PTR [edi]
  0002a	89 47 04	 mov	 DWORD PTR [edi+4], eax
  0002d	ff d6		 call	 esi

; 42   : 		m_pfnInitWorldDialog = (PFINITWORLDDIALOG)GetProcAddress( m_hDLL, "InitWorldDialog" );

  0002f	68 00 00 00 00	 push	 OFFSET ??_C@_0BA@KDGFEHIJ@InitWorldDialog@
  00034	ff 37		 push	 DWORD PTR [edi]
  00036	89 47 08	 mov	 DWORD PTR [edi+8], eax
  00039	ff d6		 call	 esi

; 43   : 		PFSETLANGUAGE pfSetLanguage = (PFSETLANGUAGE)GetProcAddress( m_hDLL, "SetLanguage" );

  0003b	68 00 00 00 00	 push	 OFFSET ??_C@_0M@BMMLELAG@SetLanguage@
  00040	ff 37		 push	 DWORD PTR [edi]
  00042	89 47 0c	 mov	 DWORD PTR [edi+12], eax
  00045	ff d6		 call	 esi

; 44   : 		if( m_pfnRunDialog && m_pfnFindScriptKey && m_pfnInitWorldDialog && pfSetLanguage )

  00047	83 7f 04 00	 cmp	 DWORD PTR [edi+4], 0
  0004b	8b f0		 mov	 esi, eax
  0004d	74 29		 je	 SHORT $LN5@Load
  0004f	83 7f 08 00	 cmp	 DWORD PTR [edi+8], 0
  00053	74 23		 je	 SHORT $LN5@Load
  00055	83 7f 0c 00	 cmp	 DWORD PTR [edi+12], 0
  00059	74 1d		 je	 SHORT $LN5@Load
  0005b	85 f6		 test	 esi, esi
  0005d	74 19		 je	 SHORT $LN5@Load

; 45   : 		{
; 46   : 			pfSetLanguage(::GetLanguage());

  0005f	e8 00 00 00 00	 call	 ?GetLanguage@@YAHXZ	; GetLanguage
  00064	50		 push	 eax
  00065	ff d6		 call	 esi

; 47   : 			if(m_pfnInitWorldDialog())

  00067	8b 47 0c	 mov	 eax, DWORD PTR [edi+12]
  0006a	ff d0		 call	 eax
  0006c	85 c0		 test	 eax, eax
  0006e	74 08		 je	 SHORT $LN5@Load

; 48   : 				return TRUE;

  00070	5f		 pop	 edi
  00071	b8 01 00 00 00	 mov	 eax, 1

; 55   : }

  00076	5e		 pop	 esi
  00077	c3		 ret	 0
$LN5@Load:
  00078	5f		 pop	 edi

; 49   : 			else
; 50   : 				return FALSE;
; 51   : 		}
; 52   : 	}
; 53   : 	
; 54   : 	return FALSE;

  00079	33 c0		 xor	 eax, eax

; 55   : }

  0007b	5e		 pop	 esi
  0007c	c3		 ret	 0
?Load@CWorldDialog@@AAEHXZ ENDP				; CWorldDialog::Load
_TEXT	ENDS
; Function compile flags: /Ogtp
; File C:\IAGOS\server\v18\Source\Source\WorldServer\WorldDialog.cpp
;	COMDAT ??1CWorldDialog@@QAE@XZ
_TEXT	SEGMENT
??1CWorldDialog@@QAE@XZ PROC				; CWorldDialog::~CWorldDialog, COMDAT
; _this$ = ecx

; 25   : 	Free();

  00000	e9 00 00 00 00	 jmp	 ?Free@CWorldDialog@@AAEXXZ ; CWorldDialog::Free
??1CWorldDialog@@QAE@XZ ENDP				; CWorldDialog::~CWorldDialog
_TEXT	ENDS
; Function compile flags: /Ogtp
; File C:\IAGOS\server\v18\Source\Source\WorldServer\WorldDialog.cpp
;	COMDAT ??0CWorldDialog@@AAE@XZ
_TEXT	SEGMENT
??0CWorldDialog@@AAE@XZ PROC				; CWorldDialog::CWorldDialog, COMDAT
; _this$ = ecx

; 17   : 	m_hDLL = NULL;

  00000	c7 01 00 00 00
	00		 mov	 DWORD PTR [ecx], 0

; 18   : 	m_pfnRunDialog = NULL;
; 19   : 	m_pfnFindScriptKey = NULL;
; 20   : 	m_pfnInitWorldDialog = NULL;
; 21   : }

  00006	8b c1		 mov	 eax, ecx
  00008	c7 41 04 00 00
	00 00		 mov	 DWORD PTR [ecx+4], 0
  0000f	c7 41 08 00 00
	00 00		 mov	 DWORD PTR [ecx+8], 0
  00016	c7 41 0c 00 00
	00 00		 mov	 DWORD PTR [ecx+12], 0
  0001d	c3		 ret	 0
??0CWorldDialog@@AAE@XZ ENDP				; CWorldDialog::CWorldDialog
_TEXT	ENDS
; Function compile flags: /Ogtp
; File C:\IAGOS\server\v18\Source\Source\WorldServer\WorldDialog.cpp
;	COMDAT ?__empty_global_delete@@YAXPAXI@Z
_TEXT	SEGMENT
___formal$ = 8						; size = 4
___formal$ = 12						; size = 4
?__empty_global_delete@@YAXPAXI@Z PROC			; __empty_global_delete, COMDAT

  00000	c2 00 00	 ret	 0
?__empty_global_delete@@YAXPAXI@Z ENDP			; __empty_global_delete
_TEXT	ENDS
; Function compile flags: /Ogtp
; File C:\IAGOS\server\v18\Source\Source\WorldServer\WorldDialog.cpp
;	COMDAT ?__empty_global_delete@@YAXPAX@Z
_TEXT	SEGMENT
___formal$ = 8						; size = 4
?__empty_global_delete@@YAXPAX@Z PROC			; __empty_global_delete, COMDAT

  00000	c2 00 00	 ret	 0
?__empty_global_delete@@YAXPAX@Z ENDP			; __empty_global_delete
_TEXT	ENDS
END
