; Listing generated by Microsoft (R) Optimizing Compiler Version 19.44.35225.0 

	TITLE	C:\IAGOS\server\v18\Source\Output\WorldServer\Release\worldmng.obj
	.686P
	.XMM
	include listing.inc
	.model	flat

INCLUDELIB LIBCMT
INCLUDELIB OLDNAMES

CONST	SEGMENT
?piecewise_construct@std@@3Upiecewise_construct_t@1@B	ORG $+1 ; std::piecewise_construct
CONST	ENDS
PUBLIC	??_H@YGXPAXIIP6EPAX0@Z@Z			; `vector constructor iterator'
PUBLIC	?__empty_global_delete@@YAXPAX@Z		; __empty_global_delete
PUBLIC	?__empty_global_delete@@YAXPAXI@Z		; __empty_global_delete
PUBLIC	___local_stdio_printf_options
PUBLIC	_sprintf
PUBLIC	?AtlThrowImpl@ATL@@YGXJ@Z			; ATL::AtlThrowImpl
PUBLIC	??1?$CStringT@DV?$StrTraitMFC@DV?$ChTraitsCRT@D@ATL@@@@@ATL@@QAE@XZ ; ATL::CStringT<char,StrTraitMFC<char,ATL::ChTraitsCRT<char> > >::~CStringT<char,StrTraitMFC<char,ATL::ChTraitsCRT<char> > >
PUBLIC	??0exception@std@@QAE@ABV01@@Z			; std::exception::exception
PUBLIC	??1exception@std@@UAE@XZ			; std::exception::~exception
PUBLIC	?what@exception@std@@UBEPBDXZ			; std::exception::what
PUBLIC	??_Gexception@std@@UAEPAXI@Z			; std::exception::`scalar deleting destructor'
PUBLIC	??0bad_alloc@std@@QAE@ABV01@@Z			; std::bad_alloc::bad_alloc
PUBLIC	??_Gbad_alloc@std@@UAEPAXI@Z			; std::bad_alloc::`scalar deleting destructor'
PUBLIC	??0bad_array_new_length@std@@QAE@XZ		; std::bad_array_new_length::bad_array_new_length
PUBLIC	??1bad_array_new_length@std@@UAE@XZ		; std::bad_array_new_length::~bad_array_new_length
PUBLIC	??0bad_array_new_length@std@@QAE@ABV01@@Z	; std::bad_array_new_length::bad_array_new_length
PUBLIC	??_Gbad_array_new_length@std@@UAEPAXI@Z		; std::bad_array_new_length::`scalar deleting destructor'
PUBLIC	?_Throw_bad_array_new_length@std@@YAXXZ		; std::_Throw_bad_array_new_length
PUBLIC	?_Xlen_string@std@@YAXXZ			; std::_Xlen_string
PUBLIC	??0?$basic_string@DU?$char_traits@D@std@@V?$allocator@D@2@@std@@QAE@QBD@Z ; std::basic_string<char,std::char_traits<char>,std::allocator<char> >::basic_string<char,std::char_traits<char>,std::allocator<char> >
PUBLIC	??1?$basic_string@DU?$char_traits@D@std@@V?$allocator@D@2@@std@@QAE@XZ ; std::basic_string<char,std::char_traits<char>,std::allocator<char> >::~basic_string<char,std::char_traits<char>,std::allocator<char> >
PUBLIC	?_Throw_tree_length_error@std@@YAXXZ		; std::_Throw_tree_length_error
PUBLIC	??0D3DXVECTOR3@@QAE@XZ				; D3DXVECTOR3::D3DXVECTOR3
PUBLIC	??1CFileIO@@UAE@XZ				; CFileIO::~CFileIO
PUBLIC	?Flush@CFileIO@@UAEHXZ				; CFileIO::Flush
PUBLIC	?GetC@CFileIO@@UAEDXZ				; CFileIO::GetC
PUBLIC	?GetW@CFileIO@@UAEGXZ				; CFileIO::GetW
PUBLIC	?GetDW@CFileIO@@UAEKXZ				; CFileIO::GetDW
PUBLIC	?Tell@CFileIO@@UAEJXZ				; CFileIO::Tell
PUBLIC	?Seek@CFileIO@@UAEHJH@Z				; CFileIO::Seek
PUBLIC	?GetLength@CFileIO@@UAEJXZ			; CFileIO::GetLength
PUBLIC	?Read@CFileIO@@UAEIPAXII@Z			; CFileIO::Read
PUBLIC	??_GCFileIO@@UAEPAXI@Z				; CFileIO::`scalar deleting destructor'
PUBLIC	??0REGIONELEM@@QAE@XZ				; REGIONELEM::REGIONELEM
PUBLIC	??0CRegionElemArray@@QAE@XZ			; CRegionElemArray::CRegionElemArray
PUBLIC	??$?MDU?$char_traits@D@std@@V?$allocator@D@1@@std@@YA_NABV?$basic_string@DU?$char_traits@D@std@@V?$allocator@D@2@@0@0@Z ; std::operator<<char,std::char_traits<char>,std::allocator<char> >
PUBLIC	??$_Allocate_manually_vector_aligned@U_Default_allocate_traits@std@@@std@@YAPAXI@Z ; std::_Allocate_manually_vector_aligned<std::_Default_allocate_traits>
PUBLIC	?Free@CWorldMng@@QAEXXZ				; CWorldMng::Free
PUBLIC	?GetWorld@CWorldMng@@QAEPAVCWorld@@K@Z		; CWorldMng::GetWorld
PUBLIC	?Add@CWorldMng@@QAEXPAVCJurisdiction@@@Z	; CWorldMng::Add
PUBLIC	?ReadObject@CWorldMng@@QAEXXZ			; CWorldMng::ReadObject
PUBLIC	?Process@CWorldMng@@QAEXXZ			; CWorldMng::Process
PUBLIC	?HasNobody_Replace@CWorldMng@@QAEHKH@Z		; CWorldMng::HasNobody_Replace
PUBLIC	?AddObj@CWorldMng@@QAEHPAVCObj@@KHH@Z		; CWorldMng::AddObj
PUBLIC	?PreremoveObj@CWorldMng@@QAEHK@Z		; CWorldMng::PreremoveObj
PUBLIC	?PregetObj@CWorldMng@@QAEPAVCObj@@K@Z		; CWorldMng::PregetObj
PUBLIC	?Respawn@CWorldMng@@QAEKXZ			; CWorldMng::Respawn
PUBLIC	?GetObjCount@CWorldMng@@QAEKXZ			; CWorldMng::GetObjCount
PUBLIC	?LoadRevivalPos@CWorldMng@@AAEXKPBD@Z		; CWorldMng::LoadRevivalPos
PUBLIC	?GetRevivalPosChao@CWorldMng@@QAEPAUREGIONELEM@@KPBD@Z ; CWorldMng::GetRevivalPosChao
PUBLIC	?GetNearRevivalPosChao@CWorldMng@@QAEPAUREGIONELEM@@KAAUD3DXVECTOR3@@@Z ; CWorldMng::GetNearRevivalPosChao
PUBLIC	?GetRevivalPos@CWorldMng@@QAEPAUREGIONELEM@@KPBD@Z ; CWorldMng::GetRevivalPos
PUBLIC	?GetNearRevivalPos@CWorldMng@@QAEPAUREGIONELEM@@KAAUD3DXVECTOR3@@@Z ; CWorldMng::GetNearRevivalPos
PUBLIC	??1?$CFixedArray@UtagWORLD@@@@UAE@XZ		; CFixedArray<tagWORLD>::~CFixedArray<tagWORLD>
PUBLIC	?SetAtGrow@?$CFixedArray@UtagWORLD@@@@QAEXHPAUtagWORLD@@H@Z ; CFixedArray<tagWORLD>::SetAtGrow
PUBLIC	?Optimize@?$CFixedArray@UtagWORLD@@@@QAEXXZ	; CFixedArray<tagWORLD>::Optimize
PUBLIC	??_G?$CFixedArray@UtagWORLD@@@@UAEPAXI@Z	; CFixedArray<tagWORLD>::`scalar deleting destructor'
PUBLIC	??0CWorldMng@@QAE@XZ				; CWorldMng::CWorldMng
PUBLIC	??1CWorldMng@@UAE@XZ				; CWorldMng::~CWorldMng
PUBLIC	?LoadScript@CWorldMng@@QAEHPBD@Z		; CWorldMng::LoadScript
PUBLIC	?LoadAllMoverDialog@CWorldMng@@QAEXXZ		; CWorldMng::LoadAllMoverDialog
PUBLIC	?AddMapCheckInfo@CWorldMng@@QAEXPBD@Z		; CWorldMng::AddMapCheckInfo
PUBLIC	?SetMapCheck@CWorldMng@@AAEHPBD@Z		; CWorldMng::SetMapCheck
PUBLIC	?_Insert_node@?$_Tree_val@U?$_Tree_simple_types@U?$pair@$$CBV?$basic_string@DU?$char_traits@D@std@@V?$allocator@D@2@@std@@V12@@std@@@std@@@std@@QAEPAU?$_Tree_node@U?$pair@$$CBV?$basic_string@DU?$char_traits@D@std@@V?$allocator@D@2@@std@@V12@@std@@PAX@2@U?$_Tree_id@PAU?$_Tree_node@U?$pair@$$CBV?$basic_string@DU?$char_traits@D@std@@V?$allocator@D@2@@std@@V12@@std@@PAX@std@@@2@QAU32@@Z ; std::_Tree_val<std::_Tree_simple_types<std::pair<std::basic_string<char,std::char_traits<char>,std::allocator<char> > const ,std::basic_string<char,std::char_traits<char>,std::allocator<char> > > > >::_Insert_node
PUBLIC	?CheckMapKey@CWorldMng@@QAEXPAVCUser@@PBD1@Z	; CWorldMng::CheckMapKey
PUBLIC	??_GCWorldMng@@UAEPAXI@Z			; CWorldMng::`scalar deleting destructor'
PUBLIC	??1?$pair@$$CBV?$basic_string@DU?$char_traits@D@std@@V?$allocator@D@2@@std@@V12@@std@@QAE@XZ ; std::pair<std::basic_string<char,std::char_traits<char>,std::allocator<char> > const ,std::basic_string<char,std::char_traits<char>,std::allocator<char> > >::~pair<std::basic_string<char,std::char_traits<char>,std::allocator<char> > const ,std::basic_string<char,std::char_traits<char>,std::allocator<char> > >
PUBLIC	??$_Emplace@U?$pair@$$CBV?$basic_string@DU?$char_traits@D@std@@V?$allocator@D@2@@std@@V12@@std@@@?$_Tree@V?$_Tmap_traits@V?$basic_string@DU?$char_traits@D@std@@V?$allocator@D@2@@std@@V12@U?$less@V?$basic_string@DU?$char_traits@D@std@@V?$allocator@D@2@@std@@@2@V?$allocator@U?$pair@$$CBV?$basic_string@DU?$char_traits@D@std@@V?$allocator@D@2@@std@@V12@@std@@@2@$0A@@std@@@std@@IAE?AU?$pair@PAU?$_Tree_node@U?$pair@$$CBV?$basic_string@DU?$char_traits@D@std@@V?$allocator@D@2@@std@@V12@@std@@PAX@std@@_N@1@$$QAU?$pair@$$CBV?$basic_string@DU?$char_traits@D@std@@V?$allocator@D@2@@std@@V12@@1@@Z ; std::_Tree<std::_Tmap_traits<std::basic_string<char,std::char_traits<char>,std::allocator<char> >,std::basic_string<char,std::char_traits<char>,std::allocator<char> >,std::less<std::basic_string<char,std::char_traits<char>,std::allocator<char> > >,std::allocator<std::pair<std::basic_string<char,std::char_traits<char>,std::allocator<char> > const ,std::basic_string<char,std::char_traits<char>,std::allocator<char> > > >,0> >::_Emplace<std::pair<std::basic_string<char,std::char_traits<char>,std::allocator<char> > const ,std::basic_string<char,std::char_traits<char>,std::allocator<char> > > >
PUBLIC	??$_Find_lower_bound@V?$basic_string@DU?$char_traits@D@std@@V?$allocator@D@2@@std@@@?$_Tree@V?$_Tmap_traits@V?$basic_string@DU?$char_traits@D@std@@V?$allocator@D@2@@std@@V12@U?$less@V?$basic_string@DU?$char_traits@D@std@@V?$allocator@D@2@@std@@@2@V?$allocator@U?$pair@$$CBV?$basic_string@DU?$char_traits@D@std@@V?$allocator@D@2@@std@@V12@@std@@@2@$0A@@std@@@std@@IBE?AU?$_Tree_find_result@PAU?$_Tree_node@U?$pair@$$CBV?$basic_string@DU?$char_traits@D@std@@V?$allocator@D@2@@std@@V12@@std@@PAX@std@@@1@ABV?$basic_string@DU?$char_traits@D@std@@V?$allocator@D@2@@1@@Z ; std::_Tree<std::_Tmap_traits<std::basic_string<char,std::char_traits<char>,std::allocator<char> >,std::basic_string<char,std::char_traits<char>,std::allocator<char> >,std::less<std::basic_string<char,std::char_traits<char>,std::allocator<char> > >,std::allocator<std::pair<std::basic_string<char,std::char_traits<char>,std::allocator<char> > const ,std::basic_string<char,std::char_traits<char>,std::allocator<char> > > >,0> >::_Find_lower_bound<std::basic_string<char,std::char_traits<char>,std::allocator<char> > >
PUBLIC	??1?$_Alloc_construct_ptr@V?$allocator@U?$_Tree_node@U?$pair@$$CBV?$basic_string@DU?$char_traits@D@std@@V?$allocator@D@2@@std@@V12@@std@@PAX@std@@@std@@@std@@QAE@XZ ; std::_Alloc_construct_ptr<std::allocator<std::_Tree_node<std::pair<std::basic_string<char,std::char_traits<char>,std::allocator<char> > const ,std::basic_string<char,std::char_traits<char>,std::allocator<char> > >,void *> > >::~_Alloc_construct_ptr<std::allocator<std::_Tree_node<std::pair<std::basic_string<char,std::char_traits<char>,std::allocator<char> > const ,std::basic_string<char,std::char_traits<char>,std::allocator<char> > >,void *> > >
PUBLIC	??1?$_Tree_temp_node_alloc@V?$allocator@U?$_Tree_node@U?$pair@$$CBV?$basic_string@DU?$char_traits@D@std@@V?$allocator@D@2@@std@@V12@@std@@PAX@std@@@std@@@std@@QAE@XZ ; std::_Tree_temp_node_alloc<std::allocator<std::_Tree_node<std::pair<std::basic_string<char,std::char_traits<char>,std::allocator<char> > const ,std::basic_string<char,std::char_traits<char>,std::allocator<char> > >,void *> > >::~_Tree_temp_node_alloc<std::allocator<std::_Tree_node<std::pair<std::basic_string<char,std::char_traits<char>,std::allocator<char> > const ,std::basic_string<char,std::char_traits<char>,std::allocator<char> > >,void *> > >
PUBLIC	??$_Erase_tree@V?$allocator@U?$_Tree_node@U?$pair@$$CBV?$basic_string@DU?$char_traits@D@std@@V?$allocator@D@2@@std@@V12@@std@@PAX@std@@@std@@@?$_Tree_val@U?$_Tree_simple_types@U?$pair@$$CBV?$basic_string@DU?$char_traits@D@std@@V?$allocator@D@2@@std@@V12@@std@@@std@@@std@@QAEXAAV?$allocator@U?$_Tree_node@U?$pair@$$CBV?$basic_string@DU?$char_traits@D@std@@V?$allocator@D@2@@std@@V12@@std@@PAX@std@@@1@PAU?$_Tree_node@U?$pair@$$CBV?$basic_string@DU?$char_traits@D@std@@V?$allocator@D@2@@std@@V12@@std@@PAX@1@@Z ; std::_Tree_val<std::_Tree_simple_types<std::pair<std::basic_string<char,std::char_traits<char>,std::allocator<char> > const ,std::basic_string<char,std::char_traits<char>,std::allocator<char> > > > >::_Erase_tree<std::allocator<std::_Tree_node<std::pair<std::basic_string<char,std::char_traits<char>,std::allocator<char> > const ,std::basic_string<char,std::char_traits<char>,std::allocator<char> > >,void *> > >
PUBLIC	?_OptionsStorage@?1??__local_stdio_printf_options@@9@4_KA ; `__local_stdio_printf_options'::`2'::_OptionsStorage
PUBLIC	??_7exception@std@@6B@				; std::exception::`vftable'
PUBLIC	??_C@_0BC@EOODALEL@Unknown?5exception@		; `string'
PUBLIC	??_7bad_alloc@std@@6B@				; std::bad_alloc::`vftable'
PUBLIC	??_7bad_array_new_length@std@@6B@		; std::bad_array_new_length::`vftable'
PUBLIC	??_C@_0BF@KINCDENJ@bad?5array?5new?5length@	; `string'
PUBLIC	??_R0?AVexception@std@@@8			; std::exception `RTTI Type Descriptor'
PUBLIC	__CT??_R0?AVexception@std@@@8??0exception@std@@QAE@ABV01@@Z12
PUBLIC	__TI3?AVbad_array_new_length@std@@
PUBLIC	__CTA3?AVbad_array_new_length@std@@
PUBLIC	??_R0?AVbad_array_new_length@std@@@8		; std::bad_array_new_length `RTTI Type Descriptor'
PUBLIC	__CT??_R0?AVbad_array_new_length@std@@@8??0bad_array_new_length@std@@QAE@ABV01@@Z12
PUBLIC	??_R0?AVbad_alloc@std@@@8			; std::bad_alloc `RTTI Type Descriptor'
PUBLIC	__CT??_R0?AVbad_alloc@std@@@8??0bad_alloc@std@@QAE@ABV01@@Z12
PUBLIC	??_C@_0BA@JFNIOLAK@string?5too?5long@		; `string'
PUBLIC	??_C@_0BB@GCADKGJO@map?1set?5too?5long@		; `string'
PUBLIC	??_7CFileIO@@6B@				; CFileIO::`vftable'
PUBLIC	??_C@_06OJLEAOEG@?$CFs?0?5?$CFd@		; `string'
PUBLIC	??_C@_0DB@ILBMOCBP@C?3?2IAGOS?2server?2v18?2Source?2Sour@ ; `string'
PUBLIC	??_R4exception@std@@6B@				; std::exception::`RTTI Complete Object Locator'
PUBLIC	??_R3exception@std@@8				; std::exception::`RTTI Class Hierarchy Descriptor'
PUBLIC	??_R2exception@std@@8				; std::exception::`RTTI Base Class Array'
PUBLIC	??_R1A@?0A@EA@exception@std@@8			; std::exception::`RTTI Base Class Descriptor at (0,-1,0,64)'
PUBLIC	??_R4bad_array_new_length@std@@6B@		; std::bad_array_new_length::`RTTI Complete Object Locator'
PUBLIC	??_R3bad_array_new_length@std@@8		; std::bad_array_new_length::`RTTI Class Hierarchy Descriptor'
PUBLIC	??_R2bad_array_new_length@std@@8		; std::bad_array_new_length::`RTTI Base Class Array'
PUBLIC	??_R1A@?0A@EA@bad_array_new_length@std@@8	; std::bad_array_new_length::`RTTI Base Class Descriptor at (0,-1,0,64)'
PUBLIC	??_R1A@?0A@EA@bad_alloc@std@@8			; std::bad_alloc::`RTTI Base Class Descriptor at (0,-1,0,64)'
PUBLIC	??_R3bad_alloc@std@@8				; std::bad_alloc::`RTTI Class Hierarchy Descriptor'
PUBLIC	??_R2bad_alloc@std@@8				; std::bad_alloc::`RTTI Base Class Array'
PUBLIC	??_R4bad_alloc@std@@6B@				; std::bad_alloc::`RTTI Complete Object Locator'
PUBLIC	??_R4CFileIO@@6B@				; CFileIO::`RTTI Complete Object Locator'
PUBLIC	??_R0?AVCFileIO@@@8				; CFileIO `RTTI Type Descriptor'
PUBLIC	??_R3CFileIO@@8					; CFileIO::`RTTI Class Hierarchy Descriptor'
PUBLIC	??_R2CFileIO@@8					; CFileIO::`RTTI Base Class Array'
PUBLIC	??_R1A@?0A@EA@CFileIO@@8			; CFileIO::`RTTI Base Class Descriptor at (0,-1,0,64)'
PUBLIC	??_7?$CFixedArray@UtagWORLD@@@@6B@		; CFixedArray<tagWORLD>::`vftable'
PUBLIC	??_7CWorldMng@@6B@				; CWorldMng::`vftable'
PUBLIC	?g_WorldMng@@3VCWorldMng@@A			; g_WorldMng
PUBLIC	??_C@_06NGHBMAIH@World?2@			; `string'
PUBLIC	??_C@_08GMCCAJLF@SetTitle@			; `string'
PUBLIC	??_C@_0CI@LGJLMEMK@CWorldMng?3?3LoadScript?5?9?$DO?5Load?5W@ ; `string'
PUBLIC	??_C@_0M@BILJHLCN@?$CFs?$CFs?2?$CFs?4rgn@	; `string'
PUBLIC	??_C@_06JEJEKGIK@region@			; `string'
PUBLIC	??_C@_07OAIJKKOJ@region2@			; `string'
PUBLIC	??_C@_07PJJCJLKI@region3@			; `string'
PUBLIC	??_C@_07PABIOCAD@respawn@			; `string'
PUBLIC	??_C@_02JDPG@rb@				; `string'
PUBLIC	??_C@_02GMHACPFF@?$CFu@				; `string'
PUBLIC	??_C@_0DK@MPLEIMAJ@Invalid?5Map?5Key?5?9?5?$FLUser?5?3?5?$CFs?0?5?$CF@ ; `string'
PUBLIC	??_R4CWorldMng@@6B@				; CWorldMng::`RTTI Complete Object Locator'
PUBLIC	??_R0?AVCWorldMng@@@8				; CWorldMng `RTTI Type Descriptor'
PUBLIC	??_R3CWorldMng@@8				; CWorldMng::`RTTI Class Hierarchy Descriptor'
PUBLIC	??_R2CWorldMng@@8				; CWorldMng::`RTTI Base Class Array'
PUBLIC	??_R1A@?0A@EA@CWorldMng@@8			; CWorldMng::`RTTI Base Class Descriptor at (0,-1,0,64)'
PUBLIC	??_R4?$CFixedArray@UtagWORLD@@@@6B@		; CFixedArray<tagWORLD>::`RTTI Complete Object Locator'
PUBLIC	??_R0?AV?$CFixedArray@UtagWORLD@@@@@8		; CFixedArray<tagWORLD> `RTTI Type Descriptor'
PUBLIC	??_R3?$CFixedArray@UtagWORLD@@@@8		; CFixedArray<tagWORLD>::`RTTI Class Hierarchy Descriptor'
PUBLIC	??_R2?$CFixedArray@UtagWORLD@@@@8		; CFixedArray<tagWORLD>::`RTTI Base Class Array'
PUBLIC	??_R1A@?0A@EA@?$CFixedArray@UtagWORLD@@@@8	; CFixedArray<tagWORLD>::`RTTI Base Class Descriptor at (0,-1,0,64)'
PUBLIC	__xmm@ffffffffffffffffffffffffffffffff
EXTRN	??2@YAPAXI@Z:PROC				; operator new
EXTRN	??3@YAXPAXI@Z:PROC				; operator delete
EXTRN	??_U@YAPAXI@Z:PROC				; operator new[]
EXTRN	??_V@YAXPAX@Z:PROC				; operator delete[]
EXTRN	_atexit:PROC
EXTRN	___std_terminate:PROC
EXTRN	__invoke_watson:PROC
EXTRN	_strncpy:PROC
EXTRN	_strcmpi:PROC
EXTRN	__imp__PtInRect@12:PROC
EXTRN	__mbscmp:PROC
EXTRN	_getwc:PROC
EXTRN	_fflush:PROC
EXTRN	_fread:PROC
EXTRN	_fseek:PROC
EXTRN	_ftell:PROC
EXTRN	_getc:PROC
EXTRN	___stdio_common_vsprintf:PROC
EXTRN	_fileno:PROC
EXTRN	?AfxThrowMemoryException@@YGXXZ:PROC		; AfxThrowMemoryException
EXTRN	?AfxThrowOleException@@YGXJ@Z:PROC		; AfxThrowOleException
EXTRN	?AfxGetStringManager@@YGPAUIAtlStringMgr@ATL@@XZ:PROC ; AfxGetStringManager
EXTRN	___std_exception_copy:PROC
EXTRN	___std_exception_destroy:PROC
EXTRN	??_Eexception@std@@UAEPAXI@Z:PROC		; std::exception::`vector deleting destructor'
EXTRN	??_Ebad_alloc@std@@UAEPAXI@Z:PROC		; std::bad_alloc::`vector deleting destructor'
EXTRN	??_Ebad_array_new_length@std@@UAEPAXI@Z:PROC	; std::bad_array_new_length::`vector deleting destructor'
EXTRN	?_Xlength_error@std@@YAXPBD@Z:PROC		; std::_Xlength_error
EXTRN	__filelength:PROC
EXTRN	?Open@CFileIO@@UAEHPBDPAD@Z:PROC		; CFileIO::Open
EXTRN	?Close@CFileIO@@UAEHXZ:PROC			; CFileIO::Close
EXTRN	?Read@CFileIO@@UAEPAXXZ:PROC			; CFileIO::Read
EXTRN	??_ECFileIO@@UAEPAXI@Z:PROC			; CFileIO::`vector deleting destructor'
EXTRN	?MakePath@@YA?AV?$CStringT@DV?$StrTraitMFC@DV?$ChTraitsCRT@D@ATL@@@@@ATL@@PBD0@Z:PROC ; MakePath
EXTRN	?WriteLog@@YAXPBDZZ:PROC			; WriteLog
EXTRN	??0CScanner@@QAE@H@Z:PROC			; CScanner::CScanner
EXTRN	??1CScanner@@UAE@XZ:PROC			; CScanner::~CScanner
EXTRN	?GetToken@CScanner@@UAEHH@Z:PROC		; CScanner::GetToken
EXTRN	?GetLastFull@CScanner@@QAEXXZ:PROC		; CScanner::GetLastFull
EXTRN	?Load@CScanner@@QAEHPBDH@Z:PROC			; CScanner::Load
EXTRN	?GetNumber@CScanner@@QAEHH@Z:PROC		; CScanner::GetNumber
EXTRN	?GetFloat@CScanner@@QAEMH@Z:PROC		; CScanner::GetFloat
EXTRN	??0CScript@@QAE@H@Z:PROC			; CScript::CScript
EXTRN	??1CScript@@UAE@XZ:PROC				; CScript::~CScript
EXTRN	?SetMark@CScript@@UAEXXZ:PROC			; CScript::SetMark
EXTRN	?GoMark@CScript@@UAEXXZ:PROC			; CScript::GoMark
EXTRN	?Load@CScript@@QAEHPBDHH@Z:PROC			; CScript::Load
EXTRN	?GetToken@CScript@@UAEHH@Z:PROC			; CScript::GetToken
EXTRN	?Error@@YAPBDPBDZZ:PROC				; Error
EXTRN	?GetLanguage@@YAHXZ:PROC			; GetLanguage
EXTRN	?GetLangScript@CProject@@QAE?AV?$CStringT@DV?$StrTraitMFC@DV?$ChTraitsCRT@D@ATL@@@@@ATL@@AAVCScript@@@Z:PROC ; CProject::GetLangScript
EXTRN	?GetName@CMover@@QAEPBDH@Z:PROC			; CMover::GetName
EXTRN	?Spawn@CLayerdRespawner@@QAEKPAVCWorld@@@Z:PROC	; CLayerdRespawner::Spawn
EXTRN	??0CWorld@@QAE@XZ:PROC				; CWorld::CWorld
EXTRN	??1CWorld@@QAE@XZ:PROC				; CWorld::~CWorld
EXTRN	?Process@CWorld@@QAEXXZ:PROC			; CWorld::Process
EXTRN	?ReadWorld@CWorld@@QAEHABVCRect@@@Z:PROC	; CWorld::ReadWorld
EXTRN	?PreremoveObj@CWorld@@QAEHK@Z:PROC		; CWorld::PreremoveObj
EXTRN	?PregetObj@CWorld@@QAEPAVCObj@@K@Z:PROC		; CWorld::PregetObj
EXTRN	?LoadAllMoverDialog@CWorld@@QAEXXZ:PROC		; CWorld::LoadAllMoverDialog
EXTRN	?AddObj@CWorld@@QAEHPAVCObj@@HH@Z:PROC		; CWorld::AddObj
EXTRN	?OpenWorld@CWorld@@QAEHPBDH@Z:PROC		; CWorld::OpenWorld
EXTRN	?LoadObject@CWorld@@QAEHH@Z:PROC		; CWorld::LoadObject
EXTRN	?LoadPatrol@CWorld@@QAEHXZ:PROC			; CWorld::LoadPatrol
EXTRN	??_E?$CFixedArray@UtagWORLD@@@@UAEPAXI@Z:PROC	; CFixedArray<tagWORLD>::`vector deleting destructor'
EXTRN	??_ECWorldMng@@UAEPAXI@Z:PROC			; CWorldMng::`vector deleting destructor'
EXTRN	?md5@@YAXPADPBD@Z:PROC				; md5
EXTRN	?QueryDestroyPlayer@CDPSrvr@@QAEXKKKK@Z:PROC	; CDPSrvr::QueryDestroyPlayer
EXTRN	@__security_check_cookie@4:PROC
EXTRN	__CxxThrowException@8:PROC
EXTRN	___CxxFrameHandler3:PROC
EXTRN	_memcpy:PROC
EXTRN	_memset:PROC
EXTRN	??_7type_info@@6B@:QWORD			; type_info::`vftable'
EXTRN	?prj@@3VCProject@@A:BYTE			; prj
EXTRN	?g_DPSrvr@@3VCDPSrvr@@A:BYTE			; g_DPSrvr
EXTRN	___security_cookie:DWORD
EXTRN	__fltused:DWORD
;	COMDAT ?_OptionsStorage@?1??__local_stdio_printf_options@@9@4_KA
_BSS	SEGMENT
?_OptionsStorage@?1??__local_stdio_printf_options@@9@4_KA DQ 01H DUP (?) ; `__local_stdio_printf_options'::`2'::_OptionsStorage
_BSS	ENDS
_BSS	SEGMENT
?g_WorldMng@@3VCWorldMng@@A DB 05e844H DUP (?)		; g_WorldMng
_BSS	ENDS
CRT$XCU	SEGMENT
?g_WorldMng$initializer$@@3P6AXXZA DD FLAT:??__Eg_WorldMng@@YAXXZ ; g_WorldMng$initializer$
CRT$XCU	ENDS
;	COMDAT __xmm@ffffffffffffffffffffffffffffffff
CONST	SEGMENT
__xmm@ffffffffffffffffffffffffffffffff DB 0ffH, 0ffH, 0ffH, 0ffH, 0ffH, 0ffH
	DB	0ffH, 0ffH, 0ffH, 0ffH, 0ffH, 0ffH, 0ffH, 0ffH, 0ffH, 0ffH
CONST	ENDS
;	COMDAT ??_R1A@?0A@EA@?$CFixedArray@UtagWORLD@@@@8
rdata$r	SEGMENT
??_R1A@?0A@EA@?$CFixedArray@UtagWORLD@@@@8 DD FLAT:??_R0?AV?$CFixedArray@UtagWORLD@@@@@8 ; CFixedArray<tagWORLD>::`RTTI Base Class Descriptor at (0,-1,0,64)'
	DD	00H
	DD	00H
	DD	0ffffffffH
	DD	00H
	DD	040H
	DD	FLAT:??_R3?$CFixedArray@UtagWORLD@@@@8
rdata$r	ENDS
;	COMDAT ??_R2?$CFixedArray@UtagWORLD@@@@8
rdata$r	SEGMENT
??_R2?$CFixedArray@UtagWORLD@@@@8 DD FLAT:??_R1A@?0A@EA@?$CFixedArray@UtagWORLD@@@@8 ; CFixedArray<tagWORLD>::`RTTI Base Class Array'
rdata$r	ENDS
;	COMDAT ??_R3?$CFixedArray@UtagWORLD@@@@8
rdata$r	SEGMENT
??_R3?$CFixedArray@UtagWORLD@@@@8 DD 00H		; CFixedArray<tagWORLD>::`RTTI Class Hierarchy Descriptor'
	DD	00H
	DD	01H
	DD	FLAT:??_R2?$CFixedArray@UtagWORLD@@@@8
rdata$r	ENDS
;	COMDAT ??_R0?AV?$CFixedArray@UtagWORLD@@@@@8
data$rs	SEGMENT
??_R0?AV?$CFixedArray@UtagWORLD@@@@@8 DD FLAT:??_7type_info@@6B@ ; CFixedArray<tagWORLD> `RTTI Type Descriptor'
	DD	00H
	DB	'.?AV?$CFixedArray@UtagWORLD@@@@', 00H
data$rs	ENDS
;	COMDAT ??_R4?$CFixedArray@UtagWORLD@@@@6B@
rdata$r	SEGMENT
??_R4?$CFixedArray@UtagWORLD@@@@6B@ DD 00H		; CFixedArray<tagWORLD>::`RTTI Complete Object Locator'
	DD	00H
	DD	00H
	DD	FLAT:??_R0?AV?$CFixedArray@UtagWORLD@@@@@8
	DD	FLAT:??_R3?$CFixedArray@UtagWORLD@@@@8
rdata$r	ENDS
;	COMDAT ??_R1A@?0A@EA@CWorldMng@@8
rdata$r	SEGMENT
??_R1A@?0A@EA@CWorldMng@@8 DD FLAT:??_R0?AVCWorldMng@@@8 ; CWorldMng::`RTTI Base Class Descriptor at (0,-1,0,64)'
	DD	00H
	DD	00H
	DD	0ffffffffH
	DD	00H
	DD	040H
	DD	FLAT:??_R3CWorldMng@@8
rdata$r	ENDS
;	COMDAT ??_R2CWorldMng@@8
rdata$r	SEGMENT
??_R2CWorldMng@@8 DD FLAT:??_R1A@?0A@EA@CWorldMng@@8	; CWorldMng::`RTTI Base Class Array'
rdata$r	ENDS
;	COMDAT ??_R3CWorldMng@@8
rdata$r	SEGMENT
??_R3CWorldMng@@8 DD 00H				; CWorldMng::`RTTI Class Hierarchy Descriptor'
	DD	00H
	DD	01H
	DD	FLAT:??_R2CWorldMng@@8
rdata$r	ENDS
;	COMDAT ??_R0?AVCWorldMng@@@8
data$rs	SEGMENT
??_R0?AVCWorldMng@@@8 DD FLAT:??_7type_info@@6B@	; CWorldMng `RTTI Type Descriptor'
	DD	00H
	DB	'.?AVCWorldMng@@', 00H
data$rs	ENDS
;	COMDAT ??_R4CWorldMng@@6B@
rdata$r	SEGMENT
??_R4CWorldMng@@6B@ DD 00H				; CWorldMng::`RTTI Complete Object Locator'
	DD	00H
	DD	00H
	DD	FLAT:??_R0?AVCWorldMng@@@8
	DD	FLAT:??_R3CWorldMng@@8
rdata$r	ENDS
;	COMDAT ??_C@_0DK@MPLEIMAJ@Invalid?5Map?5Key?5?9?5?$FLUser?5?3?5?$CFs?0?5?$CF@
CONST	SEGMENT
??_C@_0DK@MPLEIMAJ@Invalid?5Map?5Key?5?9?5?$FLUser?5?3?5?$CFs?0?5?$CF@ DB 'I'
	DB	'nvalid Map Key - [User : %s, %07d], [Land : %s%02d-%02d]', 00H ; `string'
CONST	ENDS
;	COMDAT ??_C@_02GMHACPFF@?$CFu@
CONST	SEGMENT
??_C@_02GMHACPFF@?$CFu@ DB '%u', 00H			; `string'
CONST	ENDS
;	COMDAT ??_C@_02JDPG@rb@
CONST	SEGMENT
??_C@_02JDPG@rb@ DB 'rb', 00H				; `string'
CONST	ENDS
;	COMDAT ??_C@_07PABIOCAD@respawn@
CONST	SEGMENT
??_C@_07PABIOCAD@respawn@ DB 'respawn', 00H		; `string'
CONST	ENDS
;	COMDAT ??_C@_07PJJCJLKI@region3@
CONST	SEGMENT
??_C@_07PJJCJLKI@region3@ DB 'region3', 00H		; `string'
CONST	ENDS
;	COMDAT ??_C@_07OAIJKKOJ@region2@
CONST	SEGMENT
??_C@_07OAIJKKOJ@region2@ DB 'region2', 00H		; `string'
CONST	ENDS
;	COMDAT ??_C@_06JEJEKGIK@region@
CONST	SEGMENT
??_C@_06JEJEKGIK@region@ DB 'region', 00H		; `string'
CONST	ENDS
;	COMDAT ??_C@_0M@BILJHLCN@?$CFs?$CFs?2?$CFs?4rgn@
CONST	SEGMENT
??_C@_0M@BILJHLCN@?$CFs?$CFs?2?$CFs?4rgn@ DB '%s%s\%s.rgn', 00H ; `string'
CONST	ENDS
;	COMDAT ??_C@_0CI@LGJLMEMK@CWorldMng?3?3LoadScript?5?9?$DO?5Load?5W@
CONST	SEGMENT
??_C@_0CI@LGJLMEMK@CWorldMng?3?3LoadScript?5?9?$DO?5Load?5W@ DB 'CWorldMn'
	DB	'g::LoadScript -> Load WorldName', 00H	; `string'
CONST	ENDS
;	COMDAT ??_C@_08GMCCAJLF@SetTitle@
CONST	SEGMENT
??_C@_08GMCCAJLF@SetTitle@ DB 'SetTitle', 00H		; `string'
CONST	ENDS
;	COMDAT ??_C@_06NGHBMAIH@World?2@
CONST	SEGMENT
??_C@_06NGHBMAIH@World?2@ DB 'World\', 00H		; `string'
CONST	ENDS
;	COMDAT ??_7CWorldMng@@6B@
CONST	SEGMENT
??_7CWorldMng@@6B@ DD FLAT:??_R4CWorldMng@@6B@		; CWorldMng::`vftable'
	DD	FLAT:??_ECWorldMng@@UAEPAXI@Z
CONST	ENDS
;	COMDAT ??_7?$CFixedArray@UtagWORLD@@@@6B@
CONST	SEGMENT
??_7?$CFixedArray@UtagWORLD@@@@6B@ DD FLAT:??_R4?$CFixedArray@UtagWORLD@@@@6B@ ; CFixedArray<tagWORLD>::`vftable'
	DD	FLAT:??_E?$CFixedArray@UtagWORLD@@@@UAEPAXI@Z
CONST	ENDS
;	COMDAT ??_R1A@?0A@EA@CFileIO@@8
rdata$r	SEGMENT
??_R1A@?0A@EA@CFileIO@@8 DD FLAT:??_R0?AVCFileIO@@@8	; CFileIO::`RTTI Base Class Descriptor at (0,-1,0,64)'
	DD	00H
	DD	00H
	DD	0ffffffffH
	DD	00H
	DD	040H
	DD	FLAT:??_R3CFileIO@@8
rdata$r	ENDS
;	COMDAT ??_R2CFileIO@@8
rdata$r	SEGMENT
??_R2CFileIO@@8 DD FLAT:??_R1A@?0A@EA@CFileIO@@8	; CFileIO::`RTTI Base Class Array'
rdata$r	ENDS
;	COMDAT ??_R3CFileIO@@8
rdata$r	SEGMENT
??_R3CFileIO@@8 DD 00H					; CFileIO::`RTTI Class Hierarchy Descriptor'
	DD	00H
	DD	01H
	DD	FLAT:??_R2CFileIO@@8
rdata$r	ENDS
;	COMDAT ??_R0?AVCFileIO@@@8
data$rs	SEGMENT
??_R0?AVCFileIO@@@8 DD FLAT:??_7type_info@@6B@		; CFileIO `RTTI Type Descriptor'
	DD	00H
	DB	'.?AVCFileIO@@', 00H
data$rs	ENDS
;	COMDAT ??_R4CFileIO@@6B@
rdata$r	SEGMENT
??_R4CFileIO@@6B@ DD 00H				; CFileIO::`RTTI Complete Object Locator'
	DD	00H
	DD	00H
	DD	FLAT:??_R0?AVCFileIO@@@8
	DD	FLAT:??_R3CFileIO@@8
rdata$r	ENDS
;	COMDAT ??_R4bad_alloc@std@@6B@
rdata$r	SEGMENT
??_R4bad_alloc@std@@6B@ DD 00H				; std::bad_alloc::`RTTI Complete Object Locator'
	DD	00H
	DD	00H
	DD	FLAT:??_R0?AVbad_alloc@std@@@8
	DD	FLAT:??_R3bad_alloc@std@@8
rdata$r	ENDS
;	COMDAT ??_R2bad_alloc@std@@8
rdata$r	SEGMENT
??_R2bad_alloc@std@@8 DD FLAT:??_R1A@?0A@EA@bad_alloc@std@@8 ; std::bad_alloc::`RTTI Base Class Array'
	DD	FLAT:??_R1A@?0A@EA@exception@std@@8
rdata$r	ENDS
;	COMDAT ??_R3bad_alloc@std@@8
rdata$r	SEGMENT
??_R3bad_alloc@std@@8 DD 00H				; std::bad_alloc::`RTTI Class Hierarchy Descriptor'
	DD	00H
	DD	02H
	DD	FLAT:??_R2bad_alloc@std@@8
rdata$r	ENDS
;	COMDAT ??_R1A@?0A@EA@bad_alloc@std@@8
rdata$r	SEGMENT
??_R1A@?0A@EA@bad_alloc@std@@8 DD FLAT:??_R0?AVbad_alloc@std@@@8 ; std::bad_alloc::`RTTI Base Class Descriptor at (0,-1,0,64)'
	DD	01H
	DD	00H
	DD	0ffffffffH
	DD	00H
	DD	040H
	DD	FLAT:??_R3bad_alloc@std@@8
rdata$r	ENDS
;	COMDAT ??_R1A@?0A@EA@bad_array_new_length@std@@8
rdata$r	SEGMENT
??_R1A@?0A@EA@bad_array_new_length@std@@8 DD FLAT:??_R0?AVbad_array_new_length@std@@@8 ; std::bad_array_new_length::`RTTI Base Class Descriptor at (0,-1,0,64)'
	DD	02H
	DD	00H
	DD	0ffffffffH
	DD	00H
	DD	040H
	DD	FLAT:??_R3bad_array_new_length@std@@8
rdata$r	ENDS
;	COMDAT ??_R2bad_array_new_length@std@@8
rdata$r	SEGMENT
??_R2bad_array_new_length@std@@8 DD FLAT:??_R1A@?0A@EA@bad_array_new_length@std@@8 ; std::bad_array_new_length::`RTTI Base Class Array'
	DD	FLAT:??_R1A@?0A@EA@bad_alloc@std@@8
	DD	FLAT:??_R1A@?0A@EA@exception@std@@8
rdata$r	ENDS
;	COMDAT ??_R3bad_array_new_length@std@@8
rdata$r	SEGMENT
??_R3bad_array_new_length@std@@8 DD 00H			; std::bad_array_new_length::`RTTI Class Hierarchy Descriptor'
	DD	00H
	DD	03H
	DD	FLAT:??_R2bad_array_new_length@std@@8
rdata$r	ENDS
;	COMDAT ??_R4bad_array_new_length@std@@6B@
rdata$r	SEGMENT
??_R4bad_array_new_length@std@@6B@ DD 00H		; std::bad_array_new_length::`RTTI Complete Object Locator'
	DD	00H
	DD	00H
	DD	FLAT:??_R0?AVbad_array_new_length@std@@@8
	DD	FLAT:??_R3bad_array_new_length@std@@8
rdata$r	ENDS
;	COMDAT ??_R1A@?0A@EA@exception@std@@8
rdata$r	SEGMENT
??_R1A@?0A@EA@exception@std@@8 DD FLAT:??_R0?AVexception@std@@@8 ; std::exception::`RTTI Base Class Descriptor at (0,-1,0,64)'
	DD	00H
	DD	00H
	DD	0ffffffffH
	DD	00H
	DD	040H
	DD	FLAT:??_R3exception@std@@8
rdata$r	ENDS
;	COMDAT ??_R2exception@std@@8
rdata$r	SEGMENT
??_R2exception@std@@8 DD FLAT:??_R1A@?0A@EA@exception@std@@8 ; std::exception::`RTTI Base Class Array'
rdata$r	ENDS
;	COMDAT ??_R3exception@std@@8
rdata$r	SEGMENT
??_R3exception@std@@8 DD 00H				; std::exception::`RTTI Class Hierarchy Descriptor'
	DD	00H
	DD	01H
	DD	FLAT:??_R2exception@std@@8
rdata$r	ENDS
;	COMDAT ??_R4exception@std@@6B@
rdata$r	SEGMENT
??_R4exception@std@@6B@ DD 00H				; std::exception::`RTTI Complete Object Locator'
	DD	00H
	DD	00H
	DD	FLAT:??_R0?AVexception@std@@@8
	DD	FLAT:??_R3exception@std@@8
rdata$r	ENDS
;	COMDAT ??_C@_0DB@ILBMOCBP@C?3?2IAGOS?2server?2v18?2Source?2Sour@
CONST	SEGMENT
??_C@_0DB@ILBMOCBP@C?3?2IAGOS?2server?2v18?2Source?2Sour@ DB 'C:\IAGOS\se'
	DB	'rver\v18\Source\Source\_Common\data.h', 00H	; `string'
CONST	ENDS
;	COMDAT ??_C@_06OJLEAOEG@?$CFs?0?5?$CFd@
CONST	SEGMENT
??_C@_06OJLEAOEG@?$CFs?0?5?$CFd@ DB '%s, %d', 00H	; `string'
CONST	ENDS
;	COMDAT ??_7CFileIO@@6B@
CONST	SEGMENT
??_7CFileIO@@6B@ DD FLAT:??_R4CFileIO@@6B@		; CFileIO::`vftable'
	DD	FLAT:??_ECFileIO@@UAEPAXI@Z
	DD	FLAT:?Open@CFileIO@@UAEHPBDPAD@Z
	DD	FLAT:?Close@CFileIO@@UAEHXZ
	DD	FLAT:?Flush@CFileIO@@UAEHXZ
	DD	FLAT:?GetC@CFileIO@@UAEDXZ
	DD	FLAT:?GetW@CFileIO@@UAEGXZ
	DD	FLAT:?GetDW@CFileIO@@UAEKXZ
	DD	FLAT:?Tell@CFileIO@@UAEJXZ
	DD	FLAT:?Seek@CFileIO@@UAEHJH@Z
	DD	FLAT:?GetLength@CFileIO@@UAEJXZ
	DD	FLAT:?Read@CFileIO@@UAEPAXXZ
	DD	FLAT:?Read@CFileIO@@UAEIPAXII@Z
CONST	ENDS
;	COMDAT ??_C@_0BB@GCADKGJO@map?1set?5too?5long@
CONST	SEGMENT
??_C@_0BB@GCADKGJO@map?1set?5too?5long@ DB 'map/set too long', 00H ; `string'
CONST	ENDS
;	COMDAT ??_C@_0BA@JFNIOLAK@string?5too?5long@
CONST	SEGMENT
??_C@_0BA@JFNIOLAK@string?5too?5long@ DB 'string too long', 00H ; `string'
CONST	ENDS
;	COMDAT __CT??_R0?AVbad_alloc@std@@@8??0bad_alloc@std@@QAE@ABV01@@Z12
xdata$x	SEGMENT
__CT??_R0?AVbad_alloc@std@@@8??0bad_alloc@std@@QAE@ABV01@@Z12 DD 010H
	DD	FLAT:??_R0?AVbad_alloc@std@@@8
	DD	00H
	DD	0ffffffffH
	ORG $+4
	DD	0cH
	DD	FLAT:??0bad_alloc@std@@QAE@ABV01@@Z
xdata$x	ENDS
;	COMDAT ??_R0?AVbad_alloc@std@@@8
data$r	SEGMENT
??_R0?AVbad_alloc@std@@@8 DD FLAT:??_7type_info@@6B@	; std::bad_alloc `RTTI Type Descriptor'
	DD	00H
	DB	'.?AVbad_alloc@std@@', 00H
data$r	ENDS
;	COMDAT __CT??_R0?AVbad_array_new_length@std@@@8??0bad_array_new_length@std@@QAE@ABV01@@Z12
xdata$x	SEGMENT
__CT??_R0?AVbad_array_new_length@std@@@8??0bad_array_new_length@std@@QAE@ABV01@@Z12 DD 00H
	DD	FLAT:??_R0?AVbad_array_new_length@std@@@8
	DD	00H
	DD	0ffffffffH
	ORG $+4
	DD	0cH
	DD	FLAT:??0bad_array_new_length@std@@QAE@ABV01@@Z
xdata$x	ENDS
;	COMDAT ??_R0?AVbad_array_new_length@std@@@8
data$r	SEGMENT
??_R0?AVbad_array_new_length@std@@@8 DD FLAT:??_7type_info@@6B@ ; std::bad_array_new_length `RTTI Type Descriptor'
	DD	00H
	DB	'.?AVbad_array_new_length@std@@', 00H
data$r	ENDS
;	COMDAT __CTA3?AVbad_array_new_length@std@@
xdata$x	SEGMENT
__CTA3?AVbad_array_new_length@std@@ DD 03H
	DD	FLAT:__CT??_R0?AVbad_array_new_length@std@@@8??0bad_array_new_length@std@@QAE@ABV01@@Z12
	DD	FLAT:__CT??_R0?AVbad_alloc@std@@@8??0bad_alloc@std@@QAE@ABV01@@Z12
	DD	FLAT:__CT??_R0?AVexception@std@@@8??0exception@std@@QAE@ABV01@@Z12
xdata$x	ENDS
;	COMDAT __TI3?AVbad_array_new_length@std@@
xdata$x	SEGMENT
__TI3?AVbad_array_new_length@std@@ DD 00H
	DD	FLAT:??1bad_array_new_length@std@@UAE@XZ
	DD	00H
	DD	FLAT:__CTA3?AVbad_array_new_length@std@@
xdata$x	ENDS
;	COMDAT __CT??_R0?AVexception@std@@@8??0exception@std@@QAE@ABV01@@Z12
xdata$x	SEGMENT
__CT??_R0?AVexception@std@@@8??0exception@std@@QAE@ABV01@@Z12 DD 00H
	DD	FLAT:??_R0?AVexception@std@@@8
	DD	00H
	DD	0ffffffffH
	ORG $+4
	DD	0cH
	DD	FLAT:??0exception@std@@QAE@ABV01@@Z
xdata$x	ENDS
;	COMDAT ??_R0?AVexception@std@@@8
data$r	SEGMENT
??_R0?AVexception@std@@@8 DD FLAT:??_7type_info@@6B@	; std::exception `RTTI Type Descriptor'
	DD	00H
	DB	'.?AVexception@std@@', 00H
data$r	ENDS
;	COMDAT ??_C@_0BF@KINCDENJ@bad?5array?5new?5length@
CONST	SEGMENT
??_C@_0BF@KINCDENJ@bad?5array?5new?5length@ DB 'bad array new length', 00H ; `string'
CONST	ENDS
;	COMDAT ??_7bad_array_new_length@std@@6B@
CONST	SEGMENT
??_7bad_array_new_length@std@@6B@ DD FLAT:??_R4bad_array_new_length@std@@6B@ ; std::bad_array_new_length::`vftable'
	DD	FLAT:??_Ebad_array_new_length@std@@UAEPAXI@Z
	DD	FLAT:?what@exception@std@@UBEPBDXZ
CONST	ENDS
;	COMDAT ??_7bad_alloc@std@@6B@
CONST	SEGMENT
??_7bad_alloc@std@@6B@ DD FLAT:??_R4bad_alloc@std@@6B@	; std::bad_alloc::`vftable'
	DD	FLAT:??_Ebad_alloc@std@@UAEPAXI@Z
	DD	FLAT:?what@exception@std@@UBEPBDXZ
CONST	ENDS
;	COMDAT ??_C@_0BC@EOODALEL@Unknown?5exception@
CONST	SEGMENT
??_C@_0BC@EOODALEL@Unknown?5exception@ DB 'Unknown exception', 00H ; `string'
CONST	ENDS
;	COMDAT ??_7exception@std@@6B@
CONST	SEGMENT
??_7exception@std@@6B@ DD FLAT:??_R4exception@std@@6B@	; std::exception::`vftable'
	DD	FLAT:??_Eexception@std@@UAEPAXI@Z
	DD	FLAT:?what@exception@std@@UBEPBDXZ
CONST	ENDS
;	COMDAT xdata$x
xdata$x	SEGMENT
__unwindtable$??$?0U?$pair@$$CBV?$basic_string@DU?$char_traits@D@std@@V?$allocator@D@2@@std@@V12@@std@@@?$_Tree_temp_node@V?$allocator@U?$_Tree_node@U?$pair@$$CBV?$basic_string@DU?$char_traits@D@std@@V?$allocator@D@2@@std@@V12@@std@@PAX@std@@@std@@@std@@QAE@AAV?$allocator@U?$_Tree_node@U?$pair@$$CBV?$basic_string@DU?$char_traits@D@std@@V?$allocator@D@2@@std@@V12@@std@@PAX@std@@@1@PAU?$_Tree_node@U?$pair@$$CBV?$basic_string@DU?$char_traits@D@std@@V?$allocator@D@2@@std@@V12@@std@@PAX@1@$$QAU?$pair@$$CBV?$basic_string@DU?$char_traits@D@std@@V?$allocator@D@2@@std@@V12@@1@@Z DD 0ffffffffH
	DD	FLAT:__unwindfunclet$??$?0U?$pair@$$CBV?$basic_string@DU?$char_traits@D@std@@V?$allocator@D@2@@std@@V12@@std@@@?$_Tree_temp_node@V?$allocator@U?$_Tree_node@U?$pair@$$CBV?$basic_string@DU?$char_traits@D@std@@V?$allocator@D@2@@std@@V12@@std@@PAX@std@@@std@@@std@@QAE@AAV?$allocator@U?$_Tree_node@U?$pair@$$CBV?$basic_string@DU?$char_traits@D@std@@V?$allocator@D@2@@std@@V12@@std@@PAX@std@@@1@PAU?$_Tree_node@U?$pair@$$CBV?$basic_string@DU?$char_traits@D@std@@V?$allocator@D@2@@std@@V12@@std@@PAX@1@$$QAU?$pair@$$CBV?$basic_string@DU?$char_traits@D@std@@V?$allocator@D@2@@std@@V12@@1@@Z$1
	DD	0ffffffffH
	DD	FLAT:__unwindfunclet$??$?0U?$pair@$$CBV?$basic_string@DU?$char_traits@D@std@@V?$allocator@D@2@@std@@V12@@std@@@?$_Tree_temp_node@V?$allocator@U?$_Tree_node@U?$pair@$$CBV?$basic_string@DU?$char_traits@D@std@@V?$allocator@D@2@@std@@V12@@std@@PAX@std@@@std@@@std@@QAE@AAV?$allocator@U?$_Tree_node@U?$pair@$$CBV?$basic_string@DU?$char_traits@D@std@@V?$allocator@D@2@@std@@V12@@std@@PAX@std@@@1@PAU?$_Tree_node@U?$pair@$$CBV?$basic_string@DU?$char_traits@D@std@@V?$allocator@D@2@@std@@V12@@std@@PAX@1@$$QAU?$pair@$$CBV?$basic_string@DU?$char_traits@D@std@@V?$allocator@D@2@@std@@V12@@1@@Z$0
__ehfuncinfo$??$?0U?$pair@$$CBV?$basic_string@DU?$char_traits@D@std@@V?$allocator@D@2@@std@@V12@@std@@@?$_Tree_temp_node@V?$allocator@U?$_Tree_node@U?$pair@$$CBV?$basic_string@DU?$char_traits@D@std@@V?$allocator@D@2@@std@@V12@@std@@PAX@std@@@std@@@std@@QAE@AAV?$allocator@U?$_Tree_node@U?$pair@$$CBV?$basic_string@DU?$char_traits@D@std@@V?$allocator@D@2@@std@@V12@@std@@PAX@std@@@1@PAU?$_Tree_node@U?$pair@$$CBV?$basic_string@DU?$char_traits@D@std@@V?$allocator@D@2@@std@@V12@@std@@PAX@1@$$QAU?$pair@$$CBV?$basic_string@DU?$char_traits@D@std@@V?$allocator@D@2@@std@@V12@@1@@Z DD 019930522H
	DD	02H
	DD	FLAT:__unwindtable$??$?0U?$pair@$$CBV?$basic_string@DU?$char_traits@D@std@@V?$allocator@D@2@@std@@V12@@std@@@?$_Tree_temp_node@V?$allocator@U?$_Tree_node@U?$pair@$$CBV?$basic_string@DU?$char_traits@D@std@@V?$allocator@D@2@@std@@V12@@std@@PAX@std@@@std@@@std@@QAE@AAV?$allocator@U?$_Tree_node@U?$pair@$$CBV?$basic_string@DU?$char_traits@D@std@@V?$allocator@D@2@@std@@V12@@std@@PAX@std@@@1@PAU?$_Tree_node@U?$pair@$$CBV?$basic_string@DU?$char_traits@D@std@@V?$allocator@D@2@@std@@V12@@std@@PAX@1@$$QAU?$pair@$$CBV?$basic_string@DU?$char_traits@D@std@@V?$allocator@D@2@@std@@V12@@1@@Z
	DD	2 DUP(00H)
	DD	2 DUP(00H)
	DD	00H
	DD	01H
xdata$x	ENDS
;	COMDAT xdata$x
xdata$x	SEGMENT
__unwindtable$??0?$_Tree_temp_node_alloc@V?$allocator@U?$_Tree_node@U?$pair@$$CBV?$basic_string@DU?$char_traits@D@std@@V?$allocator@D@2@@std@@V12@@std@@PAX@std@@@std@@@std@@QAE@AAV?$allocator@U?$_Tree_node@U?$pair@$$CBV?$basic_string@DU?$char_traits@D@std@@V?$allocator@D@2@@std@@V12@@std@@PAX@std@@@1@@Z DD 0ffffffffH
	DD	FLAT:__unwindfunclet$??0?$_Tree_temp_node_alloc@V?$allocator@U?$_Tree_node@U?$pair@$$CBV?$basic_string@DU?$char_traits@D@std@@V?$allocator@D@2@@std@@V12@@std@@PAX@std@@@std@@@std@@QAE@AAV?$allocator@U?$_Tree_node@U?$pair@$$CBV?$basic_string@DU?$char_traits@D@std@@V?$allocator@D@2@@std@@V12@@std@@PAX@std@@@1@@Z$0
__ehfuncinfo$??0?$_Tree_temp_node_alloc@V?$allocator@U?$_Tree_node@U?$pair@$$CBV?$basic_string@DU?$char_traits@D@std@@V?$allocator@D@2@@std@@V12@@std@@PAX@std@@@std@@@std@@QAE@AAV?$allocator@U?$_Tree_node@U?$pair@$$CBV?$basic_string@DU?$char_traits@D@std@@V?$allocator@D@2@@std@@V12@@std@@PAX@std@@@1@@Z DD 019930522H
	DD	01H
	DD	FLAT:__unwindtable$??0?$_Tree_temp_node_alloc@V?$allocator@U?$_Tree_node@U?$pair@$$CBV?$basic_string@DU?$char_traits@D@std@@V?$allocator@D@2@@std@@V12@@std@@PAX@std@@@std@@@std@@QAE@AAV?$allocator@U?$_Tree_node@U?$pair@$$CBV?$basic_string@DU?$char_traits@D@std@@V?$allocator@D@2@@std@@V12@@std@@PAX@std@@@1@@Z
	DD	2 DUP(00H)
	DD	2 DUP(00H)
	DD	00H
	DD	01H
xdata$x	ENDS
;	COMDAT xdata$x
xdata$x	SEGMENT
__unwindtable$??$_Emplace@U?$pair@$$CBV?$basic_string@DU?$char_traits@D@std@@V?$allocator@D@2@@std@@V12@@std@@@?$_Tree@V?$_Tmap_traits@V?$basic_string@DU?$char_traits@D@std@@V?$allocator@D@2@@std@@V12@U?$less@V?$basic_string@DU?$char_traits@D@std@@V?$allocator@D@2@@std@@@2@V?$allocator@U?$pair@$$CBV?$basic_string@DU?$char_traits@D@std@@V?$allocator@D@2@@std@@V12@@std@@@2@$0A@@std@@@std@@IAE?AU?$pair@PAU?$_Tree_node@U?$pair@$$CBV?$basic_string@DU?$char_traits@D@std@@V?$allocator@D@2@@std@@V12@@std@@PAX@std@@_N@1@$$QAU?$pair@$$CBV?$basic_string@DU?$char_traits@D@std@@V?$allocator@D@2@@std@@V12@@1@@Z DD 0ffffffffH
	DD	FLAT:__unwindfunclet$??$_Emplace@U?$pair@$$CBV?$basic_string@DU?$char_traits@D@std@@V?$allocator@D@2@@std@@V12@@std@@@?$_Tree@V?$_Tmap_traits@V?$basic_string@DU?$char_traits@D@std@@V?$allocator@D@2@@std@@V12@U?$less@V?$basic_string@DU?$char_traits@D@std@@V?$allocator@D@2@@std@@@2@V?$allocator@U?$pair@$$CBV?$basic_string@DU?$char_traits@D@std@@V?$allocator@D@2@@std@@V12@@std@@@2@$0A@@std@@@std@@IAE?AU?$pair@PAU?$_Tree_node@U?$pair@$$CBV?$basic_string@DU?$char_traits@D@std@@V?$allocator@D@2@@std@@V12@@std@@PAX@std@@_N@1@$$QAU?$pair@$$CBV?$basic_string@DU?$char_traits@D@std@@V?$allocator@D@2@@std@@V12@@1@@Z$2
	DD	0ffffffffH
	DD	FLAT:__unwindfunclet$??$_Emplace@U?$pair@$$CBV?$basic_string@DU?$char_traits@D@std@@V?$allocator@D@2@@std@@V12@@std@@@?$_Tree@V?$_Tmap_traits@V?$basic_string@DU?$char_traits@D@std@@V?$allocator@D@2@@std@@V12@U?$less@V?$basic_string@DU?$char_traits@D@std@@V?$allocator@D@2@@std@@@2@V?$allocator@U?$pair@$$CBV?$basic_string@DU?$char_traits@D@std@@V?$allocator@D@2@@std@@V12@@std@@@2@$0A@@std@@@std@@IAE?AU?$pair@PAU?$_Tree_node@U?$pair@$$CBV?$basic_string@DU?$char_traits@D@std@@V?$allocator@D@2@@std@@V12@@std@@PAX@std@@_N@1@$$QAU?$pair@$$CBV?$basic_string@DU?$char_traits@D@std@@V?$allocator@D@2@@std@@V12@@1@@Z$1
__ehfuncinfo$??$_Emplace@U?$pair@$$CBV?$basic_string@DU?$char_traits@D@std@@V?$allocator@D@2@@std@@V12@@std@@@?$_Tree@V?$_Tmap_traits@V?$basic_string@DU?$char_traits@D@std@@V?$allocator@D@2@@std@@V12@U?$less@V?$basic_string@DU?$char_traits@D@std@@V?$allocator@D@2@@std@@@2@V?$allocator@U?$pair@$$CBV?$basic_string@DU?$char_traits@D@std@@V?$allocator@D@2@@std@@V12@@std@@@2@$0A@@std@@@std@@IAE?AU?$pair@PAU?$_Tree_node@U?$pair@$$CBV?$basic_string@DU?$char_traits@D@std@@V?$allocator@D@2@@std@@V12@@std@@PAX@std@@_N@1@$$QAU?$pair@$$CBV?$basic_string@DU?$char_traits@D@std@@V?$allocator@D@2@@std@@V12@@1@@Z DD 019930522H
	DD	02H
	DD	FLAT:__unwindtable$??$_Emplace@U?$pair@$$CBV?$basic_string@DU?$char_traits@D@std@@V?$allocator@D@2@@std@@V12@@std@@@?$_Tree@V?$_Tmap_traits@V?$basic_string@DU?$char_traits@D@std@@V?$allocator@D@2@@std@@V12@U?$less@V?$basic_string@DU?$char_traits@D@std@@V?$allocator@D@2@@std@@@2@V?$allocator@U?$pair@$$CBV?$basic_string@DU?$char_traits@D@std@@V?$allocator@D@2@@std@@V12@@std@@@2@$0A@@std@@@std@@IAE?AU?$pair@PAU?$_Tree_node@U?$pair@$$CBV?$basic_string@DU?$char_traits@D@std@@V?$allocator@D@2@@std@@V12@@std@@PAX@std@@_N@1@$$QAU?$pair@$$CBV?$basic_string@DU?$char_traits@D@std@@V?$allocator@D@2@@std@@V12@@1@@Z
	DD	2 DUP(00H)
	DD	2 DUP(00H)
	DD	00H
	DD	01H
xdata$x	ENDS
;	COMDAT xdata$x
xdata$x	SEGMENT
__unwindtable$??$?0AAY0CB@DAAY0CB@D$0A@@?$pair@$$CBV?$basic_string@DU?$char_traits@D@std@@V?$allocator@D@2@@std@@V12@@std@@QAE@AAY0CB@D0@Z DD 0ffffffffH
	DD	FLAT:__unwindfunclet$??$?0AAY0CB@DAAY0CB@D$0A@@?$pair@$$CBV?$basic_string@DU?$char_traits@D@std@@V?$allocator@D@2@@std@@V12@@std@@QAE@AAY0CB@D0@Z$0
__ehfuncinfo$??$?0AAY0CB@DAAY0CB@D$0A@@?$pair@$$CBV?$basic_string@DU?$char_traits@D@std@@V?$allocator@D@2@@std@@V12@@std@@QAE@AAY0CB@D0@Z DD 019930522H
	DD	01H
	DD	FLAT:__unwindtable$??$?0AAY0CB@DAAY0CB@D$0A@@?$pair@$$CBV?$basic_string@DU?$char_traits@D@std@@V?$allocator@D@2@@std@@V12@@std@@QAE@AAY0CB@D0@Z
	DD	2 DUP(00H)
	DD	2 DUP(00H)
	DD	00H
	DD	01H
xdata$x	ENDS
;	COMDAT xdata$x
xdata$x	SEGMENT
__ehfuncinfo$?SetMapCheck@CWorldMng@@AAEHPBD@Z DD 019930522H
	DD	05H
	DD	FLAT:__unwindtable$?SetMapCheck@CWorldMng@@AAEHPBD@Z
	DD	2 DUP(00H)
	DD	2 DUP(00H)
	DD	00H
	DD	01H
__unwindtable$?SetMapCheck@CWorldMng@@AAEHPBD@Z DD 0ffffffffH
	DD	FLAT:__unwindfunclet$?SetMapCheck@CWorldMng@@AAEHPBD@Z$0
	DD	00H
	DD	FLAT:__unwindfunclet$?SetMapCheck@CWorldMng@@AAEHPBD@Z$2
	DD	00H
	DD	FLAT:__unwindfunclet$?SetMapCheck@CWorldMng@@AAEHPBD@Z$1
	DD	0ffffffffH
	DD	00H
	DD	0ffffffffH
	DD	FLAT:___std_terminate
xdata$x	ENDS
;	COMDAT xdata$x
xdata$x	SEGMENT
__unwindtable$?LoadScript@CWorldMng@@QAEHPBD@Z DD 0ffffffffH
	DD	FLAT:__unwindfunclet$?LoadScript@CWorldMng@@QAEHPBD@Z$0
__ehfuncinfo$?LoadScript@CWorldMng@@QAEHPBD@Z DD 019930522H
	DD	01H
	DD	FLAT:__unwindtable$?LoadScript@CWorldMng@@QAEHPBD@Z
	DD	2 DUP(00H)
	DD	2 DUP(00H)
	DD	00H
	DD	01H
xdata$x	ENDS
;	COMDAT xdata$x
xdata$x	SEGMENT
__ehfuncinfo$??1CWorldMng@@UAE@XZ DD 019930522H
	DD	00H
	DD	00H
	DD	2 DUP(00H)
	DD	2 DUP(00H)
	DD	00H
	DD	05H
xdata$x	ENDS
;	COMDAT xdata$x
xdata$x	SEGMENT
__unwindtable$??0CWorldMng@@QAE@XZ DD 0ffffffffH
	DD	FLAT:__unwindfunclet$??0CWorldMng@@QAE@XZ$0
__ehfuncinfo$??0CWorldMng@@QAE@XZ DD 019930522H
	DD	01H
	DD	FLAT:__unwindtable$??0CWorldMng@@QAE@XZ
	DD	2 DUP(00H)
	DD	2 DUP(00H)
	DD	00H
	DD	01H
xdata$x	ENDS
;	COMDAT xdata$x
xdata$x	SEGMENT
__unwindtable$?LoadRevivalPos@CWorldMng@@AAEXKPBD@Z DD 0ffffffffH
	DD	FLAT:__unwindfunclet$?LoadRevivalPos@CWorldMng@@AAEXKPBD@Z$0
	DD	00H
	DD	FLAT:__unwindfunclet$?LoadRevivalPos@CWorldMng@@AAEXKPBD@Z$1
	DD	00H
	DD	FLAT:__unwindfunclet$?LoadRevivalPos@CWorldMng@@AAEXKPBD@Z$2
	DD	00H
	DD	FLAT:__unwindfunclet$?LoadRevivalPos@CWorldMng@@AAEXKPBD@Z$3
__ehfuncinfo$?LoadRevivalPos@CWorldMng@@AAEXKPBD@Z DD 019930522H
	DD	04H
	DD	FLAT:__unwindtable$?LoadRevivalPos@CWorldMng@@AAEXKPBD@Z
	DD	2 DUP(00H)
	DD	2 DUP(00H)
	DD	00H
	DD	01H
xdata$x	ENDS
;	COMDAT xdata$x
xdata$x	SEGMENT
__unwindtable$?Add@CWorldMng@@QAEXPAVCJurisdiction@@@Z DD 0ffffffffH
	DD	FLAT:__unwindfunclet$?Add@CWorldMng@@QAEXPAVCJurisdiction@@@Z$0
	DD	0ffffffffH
	DD	FLAT:__unwindfunclet$?Add@CWorldMng@@QAEXPAVCJurisdiction@@@Z$1
__ehfuncinfo$?Add@CWorldMng@@QAEXPAVCJurisdiction@@@Z DD 019930522H
	DD	02H
	DD	FLAT:__unwindtable$?Add@CWorldMng@@QAEXPAVCJurisdiction@@@Z
	DD	2 DUP(00H)
	DD	2 DUP(00H)
	DD	00H
	DD	01H
xdata$x	ENDS
;	COMDAT xdata$x
xdata$x	SEGMENT
__unwindtable$??_GCFileIO@@UAEPAXI@Z DD 0ffffffffH
	DD	FLAT:___std_terminate
__ehfuncinfo$??_GCFileIO@@UAEPAXI@Z DD 019930522H
	DD	01H
	DD	FLAT:__unwindtable$??_GCFileIO@@UAEPAXI@Z
	DD	2 DUP(00H)
	DD	2 DUP(00H)
	DD	00H
	DD	05H
xdata$x	ENDS
;	COMDAT xdata$x
xdata$x	SEGMENT
__ehfuncinfo$??1CFileIO@@UAE@XZ DD 019930522H
	DD	00H
	DD	00H
	DD	2 DUP(00H)
	DD	2 DUP(00H)
	DD	00H
	DD	05H
xdata$x	ENDS
; Function compile flags: /Ogtp
; File C:\Program Files\Microsoft Visual Studio\2022\Professional\VC\Tools\MSVC\14.44.35207\include\xtree
; File C:\Program Files\Microsoft Visual Studio\2022\Professional\VC\Tools\MSVC\14.44.35207\include\utility
; File C:\Program Files\Microsoft Visual Studio\2022\Professional\VC\Tools\MSVC\14.44.35207\include\xmemory
; File C:\Program Files\Microsoft Visual Studio\2022\Professional\VC\Tools\MSVC\14.44.35207\include\xtree
; File C:\Program Files\Microsoft Visual Studio\2022\Professional\VC\Tools\MSVC\14.44.35207\include\xmemory
; File C:\Program Files\Microsoft Visual Studio\2022\Professional\VC\Tools\MSVC\14.44.35207\include\xtree
;	COMDAT ??$_Erase_tree@V?$allocator@U?$_Tree_node@U?$pair@$$CBV?$basic_string@DU?$char_traits@D@std@@V?$allocator@D@2@@std@@V12@@std@@PAX@std@@@std@@@?$_Tree_val@U?$_Tree_simple_types@U?$pair@$$CBV?$basic_string@DU?$char_traits@D@std@@V?$allocator@D@2@@std@@V12@@std@@@std@@@std@@QAEXAAV?$allocator@U?$_Tree_node@U?$pair@$$CBV?$basic_string@DU?$char_traits@D@std@@V?$allocator@D@2@@std@@V12@@std@@PAX@std@@@1@PAU?$_Tree_node@U?$pair@$$CBV?$basic_string@DU?$char_traits@D@std@@V?$allocator@D@2@@std@@V12@@std@@PAX@1@@Z
_TEXT	SEGMENT
_this$1$ = -4						; size = 4
__Al$ = 8						; size = 4
__Rootnode$ = 12					; size = 4
??$_Erase_tree@V?$allocator@U?$_Tree_node@U?$pair@$$CBV?$basic_string@DU?$char_traits@D@std@@V?$allocator@D@2@@std@@V12@@std@@PAX@std@@@std@@@?$_Tree_val@U?$_Tree_simple_types@U?$pair@$$CBV?$basic_string@DU?$char_traits@D@std@@V?$allocator@D@2@@std@@V12@@std@@@std@@@std@@QAEXAAV?$allocator@U?$_Tree_node@U?$pair@$$CBV?$basic_string@DU?$char_traits@D@std@@V?$allocator@D@2@@std@@V12@@std@@PAX@std@@@1@PAU?$_Tree_node@U?$pair@$$CBV?$basic_string@DU?$char_traits@D@std@@V?$allocator@D@2@@std@@V12@@std@@PAX@1@@Z PROC ; std::_Tree_val<std::_Tree_simple_types<std::pair<std::basic_string<char,std::char_traits<char>,std::allocator<char> > const ,std::basic_string<char,std::char_traits<char>,std::allocator<char> > > > >::_Erase_tree<std::allocator<std::_Tree_node<std::pair<std::basic_string<char,std::char_traits<char>,std::allocator<char> > const ,std::basic_string<char,std::char_traits<char>,std::allocator<char> > >,void *> > >, COMDAT
; _this$ = ecx

; 767  :     void _Erase_tree(_Alnode& _Al, _Nodeptr _Rootnode) noexcept {

  00000	55		 push	 ebp
  00001	8b ec		 mov	 ebp, esp
  00003	51		 push	 ecx
  00004	56		 push	 esi

; 768  :         while (!_Rootnode->_Isnil) { // free subtrees, then node

  00005	8b 75 0c	 mov	 esi, DWORD PTR __Rootnode$[ebp]
  00008	8b c1		 mov	 eax, ecx
  0000a	89 45 fc	 mov	 DWORD PTR _this$1$[ebp], eax
  0000d	80 7e 0d 00	 cmp	 BYTE PTR [esi+13], 0
  00011	75 39		 jne	 SHORT $LN45@Erase_tree
  00013	53		 push	 ebx
  00014	57		 push	 edi
$LL2@Erase_tree:

; 769  :             _Erase_tree(_Al, _Rootnode->_Right);

  00015	ff 76 08	 push	 DWORD PTR [esi+8]
  00018	8b c8		 mov	 ecx, eax
  0001a	ff 75 08	 push	 DWORD PTR __Al$[ebp]
  0001d	e8 00 00 00 00	 call	 ??$_Erase_tree@V?$allocator@U?$_Tree_node@U?$pair@$$CBV?$basic_string@DU?$char_traits@D@std@@V?$allocator@D@2@@std@@V12@@std@@PAX@std@@@std@@@?$_Tree_val@U?$_Tree_simple_types@U?$pair@$$CBV?$basic_string@DU?$char_traits@D@std@@V?$allocator@D@2@@std@@V12@@std@@@std@@@std@@QAEXAAV?$allocator@U?$_Tree_node@U?$pair@$$CBV?$basic_string@DU?$char_traits@D@std@@V?$allocator@D@2@@std@@V12@@std@@PAX@std@@@1@PAU?$_Tree_node@U?$pair@$$CBV?$basic_string@DU?$char_traits@D@std@@V?$allocator@D@2@@std@@V12@@std@@PAX@1@@Z ; std::_Tree_val<std::_Tree_simple_types<std::pair<std::basic_string<char,std::char_traits<char>,std::allocator<char> > const ,std::basic_string<char,std::char_traits<char>,std::allocator<char> > > > >::_Erase_tree<std::allocator<std::_Tree_node<std::pair<std::basic_string<char,std::char_traits<char>,std::allocator<char> > const ,std::basic_string<char,std::char_traits<char>,std::allocator<char> > >,void *> > >
; File C:\Program Files\Microsoft Visual Studio\2022\Professional\VC\Tools\MSVC\14.44.35207\include\utility

; 773  :     _Ty _Old_val = static_cast<_Ty&&>(_Val);

  00022	8b de		 mov	 ebx, esi

; 774  :     _Val         = static_cast<_Other&&>(_New_val);

  00024	8b 36		 mov	 esi, DWORD PTR [esi]
  00026	8d 4b 28	 lea	 ecx, DWORD PTR [ebx+40]
  00029	e8 00 00 00 00	 call	 ??1?$basic_string@DU?$char_traits@D@std@@V?$allocator@D@2@@std@@QAE@XZ ; std::basic_string<char,std::char_traits<char>,std::allocator<char> >::~basic_string<char,std::char_traits<char>,std::allocator<char> >
  0002e	8d 4b 10	 lea	 ecx, DWORD PTR [ebx+16]
  00031	e8 00 00 00 00	 call	 ??1?$basic_string@DU?$char_traits@D@std@@V?$allocator@D@2@@std@@QAE@XZ ; std::basic_string<char,std::char_traits<char>,std::allocator<char> >::~basic_string<char,std::char_traits<char>,std::allocator<char> >
; File C:\Program Files\Microsoft Visual Studio\2022\Professional\VC\Tools\MSVC\14.44.35207\include\xmemory

; 289  :         ::operator delete(_Ptr, _Bytes);

  00036	6a 40		 push	 64			; 00000040H
  00038	53		 push	 ebx
  00039	e8 00 00 00 00	 call	 ??3@YAXPAXI@Z		; operator delete
; File C:\Program Files\Microsoft Visual Studio\2022\Professional\VC\Tools\MSVC\14.44.35207\include\xtree

; 768  :         while (!_Rootnode->_Isnil) { // free subtrees, then node

  0003e	8b 45 fc	 mov	 eax, DWORD PTR _this$1$[ebp]
; File C:\Program Files\Microsoft Visual Studio\2022\Professional\VC\Tools\MSVC\14.44.35207\include\xmemory

; 289  :         ::operator delete(_Ptr, _Bytes);

  00041	83 c4 08	 add	 esp, 8
; File C:\Program Files\Microsoft Visual Studio\2022\Professional\VC\Tools\MSVC\14.44.35207\include\xtree

; 768  :         while (!_Rootnode->_Isnil) { // free subtrees, then node

  00044	80 7e 0d 00	 cmp	 BYTE PTR [esi+13], 0
  00048	74 cb		 je	 SHORT $LL2@Erase_tree
  0004a	5f		 pop	 edi
  0004b	5b		 pop	 ebx
$LN45@Erase_tree:
  0004c	5e		 pop	 esi

; 770  :             _Alnode::value_type::_Freenode(_Al, _STD exchange(_Rootnode, _Rootnode->_Left));
; 771  :         }
; 772  :     }

  0004d	8b e5		 mov	 esp, ebp
  0004f	5d		 pop	 ebp
  00050	c2 08 00	 ret	 8
??$_Erase_tree@V?$allocator@U?$_Tree_node@U?$pair@$$CBV?$basic_string@DU?$char_traits@D@std@@V?$allocator@D@2@@std@@V12@@std@@PAX@std@@@std@@@?$_Tree_val@U?$_Tree_simple_types@U?$pair@$$CBV?$basic_string@DU?$char_traits@D@std@@V?$allocator@D@2@@std@@V12@@std@@@std@@@std@@QAEXAAV?$allocator@U?$_Tree_node@U?$pair@$$CBV?$basic_string@DU?$char_traits@D@std@@V?$allocator@D@2@@std@@V12@@std@@PAX@std@@@1@PAU?$_Tree_node@U?$pair@$$CBV?$basic_string@DU?$char_traits@D@std@@V?$allocator@D@2@@std@@V12@@std@@PAX@1@@Z ENDP ; std::_Tree_val<std::_Tree_simple_types<std::pair<std::basic_string<char,std::char_traits<char>,std::allocator<char> > const ,std::basic_string<char,std::char_traits<char>,std::allocator<char> > > > >::_Erase_tree<std::allocator<std::_Tree_node<std::pair<std::basic_string<char,std::char_traits<char>,std::allocator<char> > const ,std::basic_string<char,std::char_traits<char>,std::allocator<char> > >,void *> > >
_TEXT	ENDS
; Function compile flags: /Ogtp
; File C:\Program Files\Microsoft Visual Studio\2022\Professional\VC\Tools\MSVC\14.44.35207\include\xmemory
;	COMDAT ??1?$_Tree_temp_node_alloc@V?$allocator@U?$_Tree_node@U?$pair@$$CBV?$basic_string@DU?$char_traits@D@std@@V?$allocator@D@2@@std@@V12@@std@@PAX@std@@@std@@@std@@QAE@XZ
_TEXT	SEGMENT
??1?$_Tree_temp_node_alloc@V?$allocator@U?$_Tree_node@U?$pair@$$CBV?$basic_string@DU?$char_traits@D@std@@V?$allocator@D@2@@std@@V12@@std@@PAX@std@@@std@@@std@@QAE@XZ PROC ; std::_Tree_temp_node_alloc<std::allocator<std::_Tree_node<std::pair<std::basic_string<char,std::char_traits<char>,std::allocator<char> > const ,std::basic_string<char,std::char_traits<char>,std::allocator<char> > >,void *> > >::~_Tree_temp_node_alloc<std::allocator<std::_Tree_node<std::pair<std::basic_string<char,std::char_traits<char>,std::allocator<char> > const ,std::basic_string<char,std::char_traits<char>,std::allocator<char> > >,void *> > >, COMDAT
; _this$ = ecx

; 1172 :         if (_Ptr) {

  00000	8b 41 04	 mov	 eax, DWORD PTR [ecx+4]
  00003	85 c0		 test	 eax, eax
  00005	74 0b		 je	 SHORT $LN13@Tree_temp_

; 289  :         ::operator delete(_Ptr, _Bytes);

  00007	6a 40		 push	 64			; 00000040H
  00009	50		 push	 eax
  0000a	e8 00 00 00 00	 call	 ??3@YAXPAXI@Z		; operator delete
  0000f	83 c4 08	 add	 esp, 8
$LN13@Tree_temp_:
  00012	c3		 ret	 0
??1?$_Tree_temp_node_alloc@V?$allocator@U?$_Tree_node@U?$pair@$$CBV?$basic_string@DU?$char_traits@D@std@@V?$allocator@D@2@@std@@V12@@std@@PAX@std@@@std@@@std@@QAE@XZ ENDP ; std::_Tree_temp_node_alloc<std::allocator<std::_Tree_node<std::pair<std::basic_string<char,std::char_traits<char>,std::allocator<char> > const ,std::basic_string<char,std::char_traits<char>,std::allocator<char> > >,void *> > >::~_Tree_temp_node_alloc<std::allocator<std::_Tree_node<std::pair<std::basic_string<char,std::char_traits<char>,std::allocator<char> > const ,std::basic_string<char,std::char_traits<char>,std::allocator<char> > >,void *> > >
_TEXT	ENDS
; Function compile flags: /Ogtp
; File C:\Program Files\Microsoft Visual Studio\2022\Professional\VC\Tools\MSVC\14.44.35207\include\xmemory
;	COMDAT ??1?$_Alloc_construct_ptr@V?$allocator@U?$_Tree_node@U?$pair@$$CBV?$basic_string@DU?$char_traits@D@std@@V?$allocator@D@2@@std@@V12@@std@@PAX@std@@@std@@@std@@QAE@XZ
_TEXT	SEGMENT
??1?$_Alloc_construct_ptr@V?$allocator@U?$_Tree_node@U?$pair@$$CBV?$basic_string@DU?$char_traits@D@std@@V?$allocator@D@2@@std@@V12@@std@@PAX@std@@@std@@@std@@QAE@XZ PROC ; std::_Alloc_construct_ptr<std::allocator<std::_Tree_node<std::pair<std::basic_string<char,std::char_traits<char>,std::allocator<char> > const ,std::basic_string<char,std::char_traits<char>,std::allocator<char> > >,void *> > >::~_Alloc_construct_ptr<std::allocator<std::_Tree_node<std::pair<std::basic_string<char,std::char_traits<char>,std::allocator<char> > const ,std::basic_string<char,std::char_traits<char>,std::allocator<char> > >,void *> > >, COMDAT
; _this$ = ecx

; 1172 :         if (_Ptr) {

  00000	8b 41 04	 mov	 eax, DWORD PTR [ecx+4]
  00003	85 c0		 test	 eax, eax
  00005	74 0b		 je	 SHORT $LN10@Alloc_cons

; 289  :         ::operator delete(_Ptr, _Bytes);

  00007	6a 40		 push	 64			; 00000040H
  00009	50		 push	 eax
  0000a	e8 00 00 00 00	 call	 ??3@YAXPAXI@Z		; operator delete
  0000f	83 c4 08	 add	 esp, 8
$LN10@Alloc_cons:

; 1173 :             _Al.deallocate(_Ptr, 1);
; 1174 :         }
; 1175 :     }

  00012	c3		 ret	 0
??1?$_Alloc_construct_ptr@V?$allocator@U?$_Tree_node@U?$pair@$$CBV?$basic_string@DU?$char_traits@D@std@@V?$allocator@D@2@@std@@V12@@std@@PAX@std@@@std@@@std@@QAE@XZ ENDP ; std::_Alloc_construct_ptr<std::allocator<std::_Tree_node<std::pair<std::basic_string<char,std::char_traits<char>,std::allocator<char> > const ,std::basic_string<char,std::char_traits<char>,std::allocator<char> > >,void *> > >::~_Alloc_construct_ptr<std::allocator<std::_Tree_node<std::pair<std::basic_string<char,std::char_traits<char>,std::allocator<char> > const ,std::basic_string<char,std::char_traits<char>,std::allocator<char> > >,void *> > >
_TEXT	ENDS
; Function compile flags: /Ogtp
; File C:\Program Files\Microsoft Visual Studio\2022\Professional\VC\Tools\MSVC\14.44.35207\include\xtree
; File C:\Program Files\Microsoft Visual Studio\2022\Professional\VC\Tools\MSVC\14.44.35207\include\type_traits
; File C:\Program Files\Microsoft Visual Studio\2022\Professional\VC\Tools\MSVC\14.44.35207\include\xtree
;	COMDAT ??$_Find_lower_bound@V?$basic_string@DU?$char_traits@D@std@@V?$allocator@D@2@@std@@@?$_Tree@V?$_Tmap_traits@V?$basic_string@DU?$char_traits@D@std@@V?$allocator@D@2@@std@@V12@U?$less@V?$basic_string@DU?$char_traits@D@std@@V?$allocator@D@2@@std@@@2@V?$allocator@U?$pair@$$CBV?$basic_string@DU?$char_traits@D@std@@V?$allocator@D@2@@std@@V12@@std@@@2@$0A@@std@@@std@@IBE?AU?$_Tree_find_result@PAU?$_Tree_node@U?$pair@$$CBV?$basic_string@DU?$char_traits@D@std@@V?$allocator@D@2@@std@@V12@@std@@PAX@std@@@1@ABV?$basic_string@DU?$char_traits@D@std@@V?$allocator@D@2@@1@@Z
_TEXT	SEGMENT
___$ReturnUdt$ = 8					; size = 4
__Keyval$ = 12						; size = 4
??$_Find_lower_bound@V?$basic_string@DU?$char_traits@D@std@@V?$allocator@D@2@@std@@@?$_Tree@V?$_Tmap_traits@V?$basic_string@DU?$char_traits@D@std@@V?$allocator@D@2@@std@@V12@U?$less@V?$basic_string@DU?$char_traits@D@std@@V?$allocator@D@2@@std@@@2@V?$allocator@U?$pair@$$CBV?$basic_string@DU?$char_traits@D@std@@V?$allocator@D@2@@std@@V12@@std@@@2@$0A@@std@@@std@@IBE?AU?$_Tree_find_result@PAU?$_Tree_node@U?$pair@$$CBV?$basic_string@DU?$char_traits@D@std@@V?$allocator@D@2@@std@@V12@@std@@PAX@std@@@1@ABV?$basic_string@DU?$char_traits@D@std@@V?$allocator@D@2@@1@@Z PROC ; std::_Tree<std::_Tmap_traits<std::basic_string<char,std::char_traits<char>,std::allocator<char> >,std::basic_string<char,std::char_traits<char>,std::allocator<char> >,std::less<std::basic_string<char,std::char_traits<char>,std::allocator<char> > >,std::allocator<std::pair<std::basic_string<char,std::char_traits<char>,std::allocator<char> > const ,std::basic_string<char,std::char_traits<char>,std::allocator<char> > > >,0> >::_Find_lower_bound<std::basic_string<char,std::char_traits<char>,std::allocator<char> > >, COMDAT
; _this$ = ecx

; 1628 :     _Tree_find_result<_Nodeptr> _Find_lower_bound(const _Keyty& _Keyval) const {

  00000	55		 push	 ebp
  00001	8b ec		 mov	 ebp, esp

; 1629 :         const auto _Scary = _Get_scary();
; 1630 :         _Tree_find_result<_Nodeptr> _Result{{_Scary->_Myhead->_Parent, _Tree_child::_Right}, _Scary->_Myhead};

  00003	8b 01		 mov	 eax, DWORD PTR [ecx]
  00005	56		 push	 esi
  00006	57		 push	 edi
  00007	8b 7d 08	 mov	 edi, DWORD PTR ___$ReturnUdt$[ebp]
  0000a	8b 70 04	 mov	 esi, DWORD PTR [eax+4]
  0000d	89 37		 mov	 DWORD PTR [edi], esi

; 1631 :         _Nodeptr _Trynode = _Result._Location._Parent;
; 1632 :         while (!_Trynode->_Isnil) {

  0000f	80 7e 0d 00	 cmp	 BYTE PTR [esi+13], 0
  00013	c7 47 04 00 00
	00 00		 mov	 DWORD PTR [edi+4], 0
  0001a	89 47 08	 mov	 DWORD PTR [edi+8], eax
  0001d	75 32		 jne	 SHORT $LN13@Find_lower
  0001f	53		 push	 ebx
  00020	8b 5d 0c	 mov	 ebx, DWORD PTR __Keyval$[ebp]
$LL2@Find_lower:

; 1634 :             if (_DEBUG_LT_PRED(_Getcomp(), _Traits::_Kfn(_Trynode->_Myval), _Keyval)) {

  00023	8d 46 10	 lea	 eax, DWORD PTR [esi+16]
  00026	89 37		 mov	 DWORD PTR [edi], esi
; File C:\Program Files\Microsoft Visual Studio\2022\Professional\VC\Tools\MSVC\14.44.35207\include\type_traits

; 2380 :         return _Left < _Right;

  00028	53		 push	 ebx
  00029	50		 push	 eax
  0002a	e8 00 00 00 00	 call	 ??$?MDU?$char_traits@D@std@@V?$allocator@D@1@@std@@YA_NABV?$basic_string@DU?$char_traits@D@std@@V?$allocator@D@2@@0@0@Z ; std::operator<<char,std::char_traits<char>,std::allocator<char> >
  0002f	83 c4 08	 add	 esp, 8
; File C:\Program Files\Microsoft Visual Studio\2022\Professional\VC\Tools\MSVC\14.44.35207\include\xtree

; 1634 :             if (_DEBUG_LT_PRED(_Getcomp(), _Traits::_Kfn(_Trynode->_Myval), _Keyval)) {

  00032	84 c0		 test	 al, al
  00034	74 07		 je	 SHORT $LN4@Find_lower

; 1635 :                 _Result._Location._Child = _Tree_child::_Right;
; 1636 :                 _Trynode                 = _Trynode->_Right;

  00036	8b 76 08	 mov	 esi, DWORD PTR [esi+8]
  00039	33 c0		 xor	 eax, eax

; 1637 :             } else {

  0003b	eb 0a		 jmp	 SHORT $LN5@Find_lower
$LN4@Find_lower:

; 1638 :                 _Result._Location._Child = _Tree_child::_Left;
; 1639 :                 _Result._Bound           = _Trynode;

  0003d	89 77 08	 mov	 DWORD PTR [edi+8], esi

; 1640 :                 _Trynode                 = _Trynode->_Left;

  00040	b8 01 00 00 00	 mov	 eax, 1
  00045	8b 36		 mov	 esi, DWORD PTR [esi]
$LN5@Find_lower:

; 1631 :         _Nodeptr _Trynode = _Result._Location._Parent;
; 1632 :         while (!_Trynode->_Isnil) {

  00047	89 47 04	 mov	 DWORD PTR [edi+4], eax
  0004a	80 7e 0d 00	 cmp	 BYTE PTR [esi+13], 0
  0004e	74 d3		 je	 SHORT $LL2@Find_lower
  00050	5b		 pop	 ebx
$LN13@Find_lower:

; 1641 :             }
; 1642 :         }
; 1643 : 
; 1644 :         return _Result;
; 1645 :     }

  00051	8b c7		 mov	 eax, edi
  00053	5f		 pop	 edi
  00054	5e		 pop	 esi
  00055	5d		 pop	 ebp
  00056	c2 08 00	 ret	 8
??$_Find_lower_bound@V?$basic_string@DU?$char_traits@D@std@@V?$allocator@D@2@@std@@@?$_Tree@V?$_Tmap_traits@V?$basic_string@DU?$char_traits@D@std@@V?$allocator@D@2@@std@@V12@U?$less@V?$basic_string@DU?$char_traits@D@std@@V?$allocator@D@2@@std@@@2@V?$allocator@U?$pair@$$CBV?$basic_string@DU?$char_traits@D@std@@V?$allocator@D@2@@std@@V12@@std@@@2@$0A@@std@@@std@@IBE?AU?$_Tree_find_result@PAU?$_Tree_node@U?$pair@$$CBV?$basic_string@DU?$char_traits@D@std@@V?$allocator@D@2@@std@@V12@@std@@PAX@std@@@1@ABV?$basic_string@DU?$char_traits@D@std@@V?$allocator@D@2@@1@@Z ENDP ; std::_Tree<std::_Tmap_traits<std::basic_string<char,std::char_traits<char>,std::allocator<char> >,std::basic_string<char,std::char_traits<char>,std::allocator<char> >,std::less<std::basic_string<char,std::char_traits<char>,std::allocator<char> > >,std::allocator<std::pair<std::basic_string<char,std::char_traits<char>,std::allocator<char> > const ,std::basic_string<char,std::char_traits<char>,std::allocator<char> > > >,0> >::_Find_lower_bound<std::basic_string<char,std::char_traits<char>,std::allocator<char> > >
_TEXT	ENDS
; Function compile flags: /Ogtp
; File C:\Program Files\Microsoft Visual Studio\2022\Professional\VC\Tools\MSVC\14.44.35207\include\xtree
; File C:\Program Files\Microsoft Visual Studio\2022\Professional\VC\Tools\MSVC\14.44.35207\include\type_traits
; File C:\Program Files\Microsoft Visual Studio\2022\Professional\VC\Tools\MSVC\14.44.35207\include\xtree
; File C:\Program Files\Microsoft Visual Studio\2022\Professional\VC\Tools\MSVC\14.44.35207\include\utility
; File C:\Program Files\Microsoft Visual Studio\2022\Professional\VC\Tools\MSVC\14.44.35207\include\xtree
; File C:\Program Files\Microsoft Visual Studio\2022\Professional\VC\Tools\MSVC\14.44.35207\include\xmemory
; File C:\Program Files\Microsoft Visual Studio\2022\Professional\VC\Tools\MSVC\14.44.35207\include\xtree
; File C:\Program Files\Microsoft Visual Studio\2022\Professional\VC\Tools\MSVC\14.44.35207\include\xmemory
; File C:\Program Files\Microsoft Visual Studio\2022\Professional\VC\Tools\MSVC\14.44.35207\include\xtree
; File C:\Program Files\Microsoft Visual Studio\2022\Professional\VC\Tools\MSVC\14.44.35207\include\xstring
; File C:\Program Files\Microsoft Visual Studio\2022\Professional\VC\Tools\MSVC\14.44.35207\include\__msvc_string_view.hpp
; File C:\Program Files\Microsoft Visual Studio\2022\Professional\VC\Tools\MSVC\14.44.35207\include\xstring
; File C:\Program Files\Microsoft Visual Studio\2022\Professional\VC\Tools\MSVC\14.44.35207\include\xmemory
; File C:\Program Files\Microsoft Visual Studio\2022\Professional\VC\Tools\MSVC\14.44.35207\include\xstring
; File C:\Program Files\Microsoft Visual Studio\2022\Professional\VC\Tools\MSVC\14.44.35207\include\xmemory
; File C:\Program Files\Microsoft Visual Studio\2022\Professional\VC\Tools\MSVC\14.44.35207\include\xstring
; File C:\Program Files\Microsoft Visual Studio\2022\Professional\VC\Tools\MSVC\14.44.35207\include\__msvc_string_view.hpp
; File C:\Program Files\Microsoft Visual Studio\2022\Professional\VC\Tools\MSVC\14.44.35207\include\xstring
; File C:\Program Files\Microsoft Visual Studio\2022\Professional\VC\Tools\MSVC\14.44.35207\include\__msvc_string_view.hpp
; File C:\Program Files\Microsoft Visual Studio\2022\Professional\VC\Tools\MSVC\14.44.35207\include\xstring
; File C:\Program Files\Microsoft Visual Studio\2022\Professional\VC\Tools\MSVC\14.44.35207\include\__msvc_string_view.hpp
; File C:\Program Files\Microsoft Visual Studio\2022\Professional\VC\Tools\MSVC\14.44.35207\include\xtree
; File C:\Program Files\Microsoft Visual Studio\2022\Professional\VC\Tools\MSVC\14.44.35207\include\xstring
; File C:\Program Files\Microsoft Visual Studio\2022\Professional\VC\Tools\MSVC\14.44.35207\include\xtree
; File C:\Program Files\Microsoft Visual Studio\2022\Professional\VC\Tools\MSVC\14.44.35207\include\xstring
; File C:\Program Files\Microsoft Visual Studio\2022\Professional\VC\Tools\MSVC\14.44.35207\include\xtree
; File C:\Program Files\Microsoft Visual Studio\2022\Professional\VC\Tools\MSVC\14.44.35207\include\xstring
; File C:\Program Files\Microsoft Visual Studio\2022\Professional\VC\Tools\MSVC\14.44.35207\include\xtree
; File C:\Program Files\Microsoft Visual Studio\2022\Professional\VC\Tools\MSVC\14.44.35207\include\utility
; File C:\Program Files\Microsoft Visual Studio\2022\Professional\VC\Tools\MSVC\14.44.35207\include\xtree
; File C:\Program Files\Microsoft Visual Studio\2022\Professional\VC\Tools\MSVC\14.44.35207\include\utility
; File C:\Program Files\Microsoft Visual Studio\2022\Professional\VC\Tools\MSVC\14.44.35207\include\xtree
; File C:\Program Files\Microsoft Visual Studio\2022\Professional\VC\Tools\MSVC\14.44.35207\include\xstring
; File C:\Program Files\Microsoft Visual Studio\2022\Professional\VC\Tools\MSVC\14.44.35207\include\xtree
;	COMDAT ??$_Emplace@U?$pair@$$CBV?$basic_string@DU?$char_traits@D@std@@V?$allocator@D@2@@std@@V12@@std@@@?$_Tree@V?$_Tmap_traits@V?$basic_string@DU?$char_traits@D@std@@V?$allocator@D@2@@std@@V12@U?$less@V?$basic_string@DU?$char_traits@D@std@@V?$allocator@D@2@@std@@@2@V?$allocator@U?$pair@$$CBV?$basic_string@DU?$char_traits@D@std@@V?$allocator@D@2@@std@@V12@@std@@@2@$0A@@std@@@std@@IAE?AU?$pair@PAU?$_Tree_node@U?$pair@$$CBV?$basic_string@DU?$char_traits@D@std@@V?$allocator@D@2@@std@@V12@@std@@PAX@std@@_N@1@$$QAU?$pair@$$CBV?$basic_string@DU?$char_traits@D@std@@V?$allocator@D@2@@std@@V12@@1@@Z
_TEXT	SEGMENT
__Loc$ = -52						; size = 12
$T2 = -40						; size = 12
$T3 = -36						; size = 8
__Myhead$1$ = -28					; size = 4
_this$1$ = -24						; size = 4
__Result$1$ = -20					; size = 4
__Count$1$ = -16					; size = 4
__$EHRec$ = -12						; size = 12
___$ReturnUdt$ = 8					; size = 4
_<_Vals_0>$ = 12					; size = 4
??$_Emplace@U?$pair@$$CBV?$basic_string@DU?$char_traits@D@std@@V?$allocator@D@2@@std@@V12@@std@@@?$_Tree@V?$_Tmap_traits@V?$basic_string@DU?$char_traits@D@std@@V?$allocator@D@2@@std@@V12@U?$less@V?$basic_string@DU?$char_traits@D@std@@V?$allocator@D@2@@std@@@2@V?$allocator@U?$pair@$$CBV?$basic_string@DU?$char_traits@D@std@@V?$allocator@D@2@@std@@V12@@std@@@2@$0A@@std@@@std@@IAE?AU?$pair@PAU?$_Tree_node@U?$pair@$$CBV?$basic_string@DU?$char_traits@D@std@@V?$allocator@D@2@@std@@V12@@std@@PAX@std@@_N@1@$$QAU?$pair@$$CBV?$basic_string@DU?$char_traits@D@std@@V?$allocator@D@2@@std@@V12@@1@@Z PROC ; std::_Tree<std::_Tmap_traits<std::basic_string<char,std::char_traits<char>,std::allocator<char> >,std::basic_string<char,std::char_traits<char>,std::allocator<char> >,std::less<std::basic_string<char,std::char_traits<char>,std::allocator<char> > >,std::allocator<std::pair<std::basic_string<char,std::char_traits<char>,std::allocator<char> > const ,std::basic_string<char,std::char_traits<char>,std::allocator<char> > > >,0> >::_Emplace<std::pair<std::basic_string<char,std::char_traits<char>,std::allocator<char> > const ,std::basic_string<char,std::char_traits<char>,std::allocator<char> > > >, COMDAT
; _this$ = ecx

; 1010 :     pair<_Nodeptr, bool> _Emplace(_Valtys&&... _Vals) {

  00000	55		 push	 ebp
  00001	8b ec		 mov	 ebp, esp
  00003	6a ff		 push	 -1
  00005	68 00 00 00 00	 push	 __ehhandler$??$_Emplace@U?$pair@$$CBV?$basic_string@DU?$char_traits@D@std@@V?$allocator@D@2@@std@@V12@@std@@@?$_Tree@V?$_Tmap_traits@V?$basic_string@DU?$char_traits@D@std@@V?$allocator@D@2@@std@@V12@U?$less@V?$basic_string@DU?$char_traits@D@std@@V?$allocator@D@2@@std@@@2@V?$allocator@U?$pair@$$CBV?$basic_string@DU?$char_traits@D@std@@V?$allocator@D@2@@std@@V12@@std@@@2@$0A@@std@@@std@@IAE?AU?$pair@PAU?$_Tree_node@U?$pair@$$CBV?$basic_string@DU?$char_traits@D@std@@V?$allocator@D@2@@std@@V12@@std@@PAX@std@@_N@1@$$QAU?$pair@$$CBV?$basic_string@DU?$char_traits@D@std@@V?$allocator@D@2@@std@@V12@@1@@Z
  0000a	64 a1 00 00 00
	00		 mov	 eax, DWORD PTR fs:0
  00010	50		 push	 eax
  00011	83 ec 28	 sub	 esp, 40			; 00000028H
  00014	56		 push	 esi
  00015	57		 push	 edi
  00016	a1 00 00 00 00	 mov	 eax, DWORD PTR ___security_cookie
  0001b	33 c5		 xor	 eax, ebp
  0001d	50		 push	 eax
  0001e	8d 45 f4	 lea	 eax, DWORD PTR __$EHRec$[ebp]
  00021	64 a3 00 00 00
	00		 mov	 DWORD PTR fs:0, eax
  00027	89 4d e8	 mov	 DWORD PTR _this$1$[ebp], ecx

; 1011 :         using _In_place_key_extractor = typename _Traits::template _In_place_key_extractor<_Valtys...>;
; 1012 :         const auto _Scary             = _Get_scary();
; 1013 :         _Tree_find_result<_Nodeptr> _Loc;
; 1014 :         _Nodeptr _Inserted;
; 1015 :         if constexpr (!_Multi && _In_place_key_extractor::_Extractable) {
; 1016 :             const auto& _Keyval = _In_place_key_extractor::_Extract(_Vals...);
; 1017 :             _Loc                = _Find_lower_bound(_Keyval);

  0002a	8b 7d 0c	 mov	 edi, DWORD PTR _<_Vals_0>$[ebp]
  0002d	8d 45 d8	 lea	 eax, DWORD PTR $T2[ebp]
  00030	57		 push	 edi
  00031	50		 push	 eax
  00032	e8 00 00 00 00	 call	 ??$_Find_lower_bound@V?$basic_string@DU?$char_traits@D@std@@V?$allocator@D@2@@std@@@?$_Tree@V?$_Tmap_traits@V?$basic_string@DU?$char_traits@D@std@@V?$allocator@D@2@@std@@V12@U?$less@V?$basic_string@DU?$char_traits@D@std@@V?$allocator@D@2@@std@@@2@V?$allocator@U?$pair@$$CBV?$basic_string@DU?$char_traits@D@std@@V?$allocator@D@2@@std@@V12@@std@@@2@$0A@@std@@@std@@IBE?AU?$_Tree_find_result@PAU?$_Tree_node@U?$pair@$$CBV?$basic_string@DU?$char_traits@D@std@@V?$allocator@D@2@@std@@V12@@std@@PAX@std@@@1@ABV?$basic_string@DU?$char_traits@D@std@@V?$allocator@D@2@@1@@Z ; std::_Tree<std::_Tmap_traits<std::basic_string<char,std::char_traits<char>,std::allocator<char> >,std::basic_string<char,std::char_traits<char>,std::allocator<char> >,std::less<std::basic_string<char,std::char_traits<char>,std::allocator<char> > >,std::allocator<std::pair<std::basic_string<char,std::char_traits<char>,std::allocator<char> > const ,std::basic_string<char,std::char_traits<char>,std::allocator<char> > > >,0> >::_Find_lower_bound<std::basic_string<char,std::char_traits<char>,std::allocator<char> > >
  00037	8b 70 08	 mov	 esi, DWORD PTR [eax+8]
  0003a	f3 0f 7e 00	 movq	 xmm0, QWORD PTR [eax]
  0003e	66 0f d6 45 cc	 movq	 QWORD PTR __Loc$[ebp], xmm0

; 1624 :         return !_Bound->_Isnil && !_DEBUG_LT_PRED(_Getcomp(), _Keyval, _Traits::_Kfn(_Bound->_Myval));

  00043	80 7e 0d 00	 cmp	 BYTE PTR [esi+13], 0
  00047	75 2d		 jne	 SHORT $LN2@Emplace
  00049	8d 46 10	 lea	 eax, DWORD PTR [esi+16]
; File C:\Program Files\Microsoft Visual Studio\2022\Professional\VC\Tools\MSVC\14.44.35207\include\type_traits

; 2380 :         return _Left < _Right;

  0004c	50		 push	 eax
  0004d	57		 push	 edi
  0004e	e8 00 00 00 00	 call	 ??$?MDU?$char_traits@D@std@@V?$allocator@D@1@@std@@YA_NABV?$basic_string@DU?$char_traits@D@std@@V?$allocator@D@2@@0@0@Z ; std::operator<<char,std::char_traits<char>,std::allocator<char> >
  00053	83 c4 08	 add	 esp, 8
; File C:\Program Files\Microsoft Visual Studio\2022\Professional\VC\Tools\MSVC\14.44.35207\include\xtree

; 1624 :         return !_Bound->_Isnil && !_DEBUG_LT_PRED(_Getcomp(), _Keyval, _Traits::_Kfn(_Bound->_Myval));

  00056	84 c0		 test	 al, al
  00058	75 1c		 jne	 SHORT $LN2@Emplace
; File C:\Program Files\Microsoft Visual Studio\2022\Professional\VC\Tools\MSVC\14.44.35207\include\utility

; 274  :         : first(_STD forward<_Other1>(_Val1)), second(_STD forward<_Other2>(_Val2)) {

  0005a	8b 45 08	 mov	 eax, DWORD PTR ___$ReturnUdt$[ebp]
  0005d	89 30		 mov	 DWORD PTR [eax], esi
  0005f	c6 40 04 00	 mov	 BYTE PTR [eax+4], 0
; File C:\Program Files\Microsoft Visual Studio\2022\Professional\VC\Tools\MSVC\14.44.35207\include\xtree

; 1043 :     }

  00063	8b 4d f4	 mov	 ecx, DWORD PTR __$EHRec$[ebp]
  00066	64 89 0d 00 00
	00 00		 mov	 DWORD PTR fs:0, ecx
  0006d	59		 pop	 ecx
  0006e	5f		 pop	 edi
  0006f	5e		 pop	 esi
  00070	8b e5		 mov	 esp, ebp
  00072	5d		 pop	 ebp
  00073	c2 08 00	 ret	 8
$LN2@Emplace:

; 1648 :         if (max_size() == _Get_scary()->_Mysize) {

  00076	8b 45 e8	 mov	 eax, DWORD PTR _this$1$[ebp]
  00079	81 78 04 ff ff
	ff 03		 cmp	 DWORD PTR [eax+4], 67108863 ; 03ffffffH
  00080	0f 84 59 01 00
	00		 je	 $LN256@Emplace

; 1018 :             if (_Lower_bound_duplicate(_Loc._Bound, _Keyval)) {
; 1019 :                 return {_Loc._Bound, false};
; 1020 :             }
; 1021 : 
; 1022 :             _Check_grow_by_1();
; 1023 :             _Inserted = _Tree_temp_node<_Alnode>(_Getal(), _Scary->_Myhead, _STD forward<_Valtys>(_Vals)...)._Release();

  00086	8b 08		 mov	 ecx, DWORD PTR [eax]
  00088	89 4d e4	 mov	 DWORD PTR __Myhead$1$[ebp], ecx
; File C:\Program Files\Microsoft Visual Studio\2022\Professional\VC\Tools\MSVC\14.44.35207\include\xmemory

; 1160 :     _CONSTEXPR20 explicit _Alloc_construct_ptr(_Alloc& _Al_) : _Al(_Al_), _Ptr(nullptr) {}

  0008b	89 45 dc	 mov	 DWORD PTR $T3[ebp], eax

; 136  :         return ::operator new(_Bytes);

  0008e	6a 40		 push	 64			; 00000040H
; File C:\Program Files\Microsoft Visual Studio\2022\Professional\VC\Tools\MSVC\14.44.35207\include\xtree

; 808  :     explicit _Tree_temp_node_alloc(_Alnode& _Al_) : _Alloc_construct_ptr<_Alnode>(_Al_) {

  00090	c7 45 fc 00 00
	00 00		 mov	 DWORD PTR __$EHRec$[ebp+8], 0
; File C:\Program Files\Microsoft Visual Studio\2022\Professional\VC\Tools\MSVC\14.44.35207\include\xmemory

; 1167 :         _Ptr = nullptr; // if allocate throws, prevents double-free

  00097	c7 45 e0 00 00
	00 00		 mov	 DWORD PTR $T3[ebp+4], 0

; 136  :         return ::operator new(_Bytes);

  0009e	e8 00 00 00 00	 call	 ??2@YAPAXI@Z		; operator new

; 256  :         return _Traits::_Allocate(_Bytes);

  000a3	8b f0		 mov	 esi, eax

; 136  :         return ::operator new(_Bytes);

  000a5	83 c4 04	 add	 esp, 4

; 1168 :         _Ptr = _Al.allocate(1);

  000a8	89 75 e0	 mov	 DWORD PTR $T3[ebp+4], esi
  000ab	0f 57 c0	 xorps	 xmm0, xmm0
; File C:\Program Files\Microsoft Visual Studio\2022\Professional\VC\Tools\MSVC\14.44.35207\include\xtree

; 829  :         : _Tree_temp_node_alloc<_Alnode>(_Al_) {

  000ae	c7 45 fc 01 00
	00 00		 mov	 DWORD PTR __$EHRec$[ebp+8], 1
; File C:\Program Files\Microsoft Visual Studio\2022\Professional\VC\Tools\MSVC\14.44.35207\include\xstring

; 493  :         _CONSTEXPR20 _Bxty() noexcept : _Buf() {} // user-provided, for fancy pointers

  000b5	0f 11 46 10	 movups	 XMMWORD PTR [esi+16], xmm0

; 517  :     size_type _Mysize = 0; // current length of string (size)

  000b9	c7 46 20 00 00
	00 00		 mov	 DWORD PTR [esi+32], 0

; 444  :         const value_type* _Result = _Bx._Buf;

  000c0	8b cf		 mov	 ecx, edi

; 518  :     size_type _Myres  = 0; // current storage reserved for string (capacity)

  000c2	c7 46 24 00 00
	00 00		 mov	 DWORD PTR [esi+36], 0

; 453  :         return _Myres > _Small_string_capacity;

  000c9	83 7f 14 0f	 cmp	 DWORD PTR [edi+20], 15	; 0000000fH

; 444  :         const value_type* _Result = _Bx._Buf;

  000cd	89 7d ec	 mov	 DWORD PTR __Result$1$[ebp], edi

; 445  :         if (_Large_mode_engaged()) {

  000d0	76 05		 jbe	 SHORT $LN66@Emplace

; 446  :             _Result = _Unfancy(_Bx._Ptr);

  000d2	8b 0f		 mov	 ecx, DWORD PTR [edi]
  000d4	89 4d ec	 mov	 DWORD PTR __Result$1$[ebp], ecx
$LN66@Emplace:

; 718  :         _Construct<_Construct_strategy::_From_string>(_Right._Mypair._Myval2._Myptr(), _Right._Mypair._Myval2._Mysize);

  000d7	8b 47 10	 mov	 eax, DWORD PTR [edi+16]
  000da	89 45 f0	 mov	 DWORD PTR __Count$1$[ebp], eax

; 881  :         if (_Count > max_size()) {

  000dd	3d ff ff ff 7f	 cmp	 eax, 2147483647		; 7fffffffH
  000e2	0f 87 fc 00 00
	00		 ja	 $LN257@Emplace

; 883  :         }
; 884  : 
; 885  :         auto& _Al       = _Getal();
; 886  :         auto&& _Alproxy = _GET_PROXY_ALLOCATOR(_Alty, _Al);
; 887  :         _Container_proxy_ptr<_Alty> _Proxy(_Alproxy, _My_data);
; 888  : 
; 889  :         if (_Count <= _Small_string_capacity) {

  000e8	83 f8 0f	 cmp	 eax, 15			; 0000000fH
  000eb	77 13		 ja	 SHORT $LN74@Emplace

; 890  :             _My_data._Mysize = _Count;

  000ed	89 46 20	 mov	 DWORD PTR [esi+32], eax

; 891  :             _My_data._Myres  = _Small_string_capacity;

  000f0	c7 46 24 0f 00
	00 00		 mov	 DWORD PTR [esi+36], 15	; 0000000fH
; File C:\Program Files\Microsoft Visual Studio\2022\Professional\VC\Tools\MSVC\14.44.35207\include\__msvc_string_view.hpp

; 121  :         _CSTD memcpy(_First1, _First2, _Count * sizeof(_Elem));

  000f7	0f 10 01	 movups	 xmm0, XMMWORD PTR [ecx]
  000fa	0f 11 46 10	 movups	 XMMWORD PTR [esi+16], xmm0
; File C:\Program Files\Microsoft Visual Studio\2022\Professional\VC\Tools\MSVC\14.44.35207\include\xstring

; 908  :             return;

  000fe	eb 68		 jmp	 SHORT $LN100@Emplace
$LN74@Emplace:

; 2978 :         const size_type _Masked = _Requested | _Alloc_mask;

  00100	8b f8		 mov	 edi, eax
  00102	83 cf 0f	 or	 edi, 15			; 0000000fH
  00105	81 ff ff ff ff
	7f		 cmp	 edi, 2147483647		; 7fffffffH

; 2979 :         if (_Masked > _Max) { // the mask overflows, settle for max_size()

  0010b	76 12		 jbe	 SHORT $LN80@Emplace

; 2980 :             return _Max;

  0010d	b9 00 00 00 80	 mov	 ecx, -2147483648	; 80000000H
  00112	bf ff ff ff 7f	 mov	 edi, 2147483647		; 7fffffffH
; File C:\Program Files\Microsoft Visual Studio\2022\Professional\VC\Tools\MSVC\14.44.35207\include\xmemory

; 253  :             return _Allocate_manually_vector_aligned<_Traits>(_Bytes);

  00117	51		 push	 ecx
  00118	e8 00 00 00 00	 call	 ??$_Allocate_manually_vector_aligned@U_Default_allocate_traits@std@@@std@@YAPAXI@Z ; std::_Allocate_manually_vector_aligned<std::_Default_allocate_traits>
  0011d	eb 27		 jmp	 SHORT $LN254@Emplace
$LN80@Emplace:
; File C:\Program Files\Microsoft Visual Studio\2022\Professional\VC\Tools\MSVC\14.44.35207\include\xstring

; 2987 :         return (_STD max)(_Masked, _Old + _Old / 2);

  0011f	b9 16 00 00 00	 mov	 ecx, 22			; 00000016H
  00124	3b f9		 cmp	 edi, ecx
  00126	0f 42 f9	 cmovb	 edi, ecx

; 825  :         ++_Capacity; // Take null terminator into consideration

  00129	8d 4f 01	 lea	 ecx, DWORD PTR [edi+1]
; File C:\Program Files\Microsoft Visual Studio\2022\Professional\VC\Tools\MSVC\14.44.35207\include\xmemory

; 227  :     if (_Bytes == 0) {

  0012c	85 c9		 test	 ecx, ecx
  0012e	74 1e		 je	 SHORT $LN93@Emplace
$LN94@Emplace:

; 228  :         return nullptr;
; 229  :     }
; 230  : 
; 231  : #if _HAS_CXX20 // TRANSITION, GH-1532
; 232  :     if (_STD is_constant_evaluated()) {
; 233  :         return _Traits::_Allocate(_Bytes);
; 234  :     }
; 235  : #endif // _HAS_CXX20
; 236  : 
; 237  : #ifdef __cpp_aligned_new
; 238  :     if constexpr (_Align > __STDCPP_DEFAULT_NEW_ALIGNMENT__) {
; 239  :         size_t _Passed_align = _Align;
; 240  : #if defined(_M_IX86) || defined(_M_X64)
; 241  :         if (_Bytes >= _Big_allocation_threshold) {
; 242  :             // boost the alignment of big allocations to help autovectorization
; 243  :             _Passed_align = (_STD max)(_Align, _Big_allocation_alignment);
; 244  :         }
; 245  : #endif // defined(_M_IX86) || defined(_M_X64)
; 246  :         return _Traits::_Allocate_aligned(_Bytes, _Passed_align);
; 247  :     } else
; 248  : #endif // defined(__cpp_aligned_new)
; 249  :     {
; 250  : #if defined(_M_IX86) || defined(_M_X64)
; 251  :         if (_Bytes >= _Big_allocation_threshold) {

  00130	81 f9 00 10 00
	00		 cmp	 ecx, 4096		; 00001000H
  00136	72 08		 jb	 SHORT $LN95@Emplace

; 253  :             return _Allocate_manually_vector_aligned<_Traits>(_Bytes);

  00138	51		 push	 ecx
  00139	e8 00 00 00 00	 call	 ??$_Allocate_manually_vector_aligned@U_Default_allocate_traits@std@@@std@@YAPAXI@Z ; std::_Allocate_manually_vector_aligned<std::_Default_allocate_traits>
  0013e	eb 06		 jmp	 SHORT $LN254@Emplace
$LN95@Emplace:

; 136  :         return ::operator new(_Bytes);

  00140	51		 push	 ecx
  00141	e8 00 00 00 00	 call	 ??2@YAPAXI@Z		; operator new
$LN254@Emplace:
; File C:\Program Files\Microsoft Visual Studio\2022\Professional\VC\Tools\MSVC\14.44.35207\include\xstring

; 913  :         _Construct_in_place(_My_data._Bx._Ptr, _New_ptr);

  00146	8b c8		 mov	 ecx, eax
  00148	83 c4 04	 add	 esp, 4
  0014b	8b 45 f0	 mov	 eax, DWORD PTR __Count$1$[ebp]
$LN93@Emplace:

; 914  : 
; 915  :         _My_data._Mysize = _Count;

  0014e	89 46 20	 mov	 DWORD PTR [esi+32], eax

; 917  :         if constexpr (_Strat == _Construct_strategy::_From_char) {
; 918  :             _Traits::assign(_Unfancy(_New_ptr), _Count, _Arg);
; 919  :             _Traits::assign(_Unfancy(_New_ptr)[_Count], _Elem());
; 920  :         } else if constexpr (_Strat == _Construct_strategy::_From_ptr) {
; 921  :             _Traits::copy(_Unfancy(_New_ptr), _Arg, _Count);
; 922  :             _Traits::assign(_Unfancy(_New_ptr)[_Count], _Elem());
; 923  :         } else { // _Strat == _Construct_strategy::_From_string
; 924  :             _Traits::copy(_Unfancy(_New_ptr), _Arg, _Count + 1);

  00151	40		 inc	 eax
; File C:\Program Files\Microsoft Visual Studio\2022\Professional\VC\Tools\MSVC\14.44.35207\include\__msvc_string_view.hpp

; 121  :         _CSTD memcpy(_First1, _First2, _Count * sizeof(_Elem));

  00152	50		 push	 eax
  00153	ff 75 ec	 push	 DWORD PTR __Result$1$[ebp]
; File C:\Program Files\Microsoft Visual Studio\2022\Professional\VC\Tools\MSVC\14.44.35207\include\xstring

; 913  :         _Construct_in_place(_My_data._Bx._Ptr, _New_ptr);

  00156	89 4e 10	 mov	 DWORD PTR [esi+16], ecx
; File C:\Program Files\Microsoft Visual Studio\2022\Professional\VC\Tools\MSVC\14.44.35207\include\__msvc_string_view.hpp

; 121  :         _CSTD memcpy(_First1, _First2, _Count * sizeof(_Elem));

  00159	51		 push	 ecx
; File C:\Program Files\Microsoft Visual Studio\2022\Professional\VC\Tools\MSVC\14.44.35207\include\xstring

; 916  :         _My_data._Myres  = _New_capacity;

  0015a	89 7e 24	 mov	 DWORD PTR [esi+36], edi
; File C:\Program Files\Microsoft Visual Studio\2022\Professional\VC\Tools\MSVC\14.44.35207\include\__msvc_string_view.hpp

; 121  :         _CSTD memcpy(_First1, _First2, _Count * sizeof(_Elem));

  0015d	e8 00 00 00 00	 call	 _memcpy
  00162	8b 7d 0c	 mov	 edi, DWORD PTR _<_Vals_0>$[ebp]
  00165	83 c4 0c	 add	 esp, 12			; 0000000cH
$LN100@Emplace:
; File C:\Program Files\Microsoft Visual Studio\2022\Professional\VC\Tools\MSVC\14.44.35207\include\xtree

; 831  :         _Construct_in_place(this->_Ptr->_Left, _Myhead);

  00168	8b 45 e4	 mov	 eax, DWORD PTR __Myhead$1$[ebp]
  0016b	0f 57 c0	 xorps	 xmm0, xmm0

; 1042 :         return {_Scary->_Insert_node(_Loc._Location, _Inserted), true};

  0016e	8b 4d e8	 mov	 ecx, DWORD PTR _this$1$[ebp]
; File C:\Program Files\Microsoft Visual Studio\2022\Professional\VC\Tools\MSVC\14.44.35207\include\xstring

; 493  :         _CONSTEXPR20 _Bxty() noexcept : _Buf() {} // user-provided, for fancy pointers

  00171	0f 11 46 28	 movups	 XMMWORD PTR [esi+40], xmm0

; 517  :     size_type _Mysize = 0; // current length of string (size)

  00175	c7 46 38 00 00
	00 00		 mov	 DWORD PTR [esi+56], 0

; 518  :     size_type _Myres  = 0; // current storage reserved for string (capacity)

  0017c	c7 46 3c 00 00
	00 00		 mov	 DWORD PTR [esi+60], 0

; 1286 :                 _CSTD memcpy(_My_data_mem, _Right_data_mem, _Memcpy_val_size);

  00183	0f 10 47 18	 movups	 xmm0, XMMWORD PTR [edi+24]
; File C:\Program Files\Microsoft Visual Studio\2022\Professional\VC\Tools\MSVC\14.44.35207\include\xtree

; 1042 :         return {_Scary->_Insert_node(_Loc._Location, _Inserted), true};

  00187	56		 push	 esi
  00188	ff 75 d0	 push	 DWORD PTR __Loc$[ebp+4]
; File C:\Program Files\Microsoft Visual Studio\2022\Professional\VC\Tools\MSVC\14.44.35207\include\xstring

; 1286 :                 _CSTD memcpy(_My_data_mem, _Right_data_mem, _Memcpy_val_size);

  0018b	0f 11 46 28	 movups	 XMMWORD PTR [esi+40], xmm0
  0018f	f3 0f 7e 47 28	 movq	 xmm0, QWORD PTR [edi+40]
; File C:\Program Files\Microsoft Visual Studio\2022\Professional\VC\Tools\MSVC\14.44.35207\include\xtree

; 1042 :         return {_Scary->_Insert_node(_Loc._Location, _Inserted), true};

  00194	ff 75 cc	 push	 DWORD PTR __Loc$[ebp]
; File C:\Program Files\Microsoft Visual Studio\2022\Professional\VC\Tools\MSVC\14.44.35207\include\xstring

; 1286 :                 _CSTD memcpy(_My_data_mem, _Right_data_mem, _Memcpy_val_size);

  00197	66 0f d6 46 38	 movq	 QWORD PTR [esi+56], xmm0

; 1287 : 
; 1288 :                 _Right_data._Mysize = 0;

  0019c	c7 47 28 00 00
	00 00		 mov	 DWORD PTR [edi+40], 0

; 1289 :                 _Right_data._Myres  = _Small_string_capacity;

  001a3	c7 47 2c 0f 00
	00 00		 mov	 DWORD PTR [edi+44], 15	; 0000000fH

; 1290 :                 _Right_data._Activate_SSO_buffer();
; 1291 :                 _Traits::assign(_Right_data._Bx._Buf[0], _Elem());

  001aa	c6 47 18 00	 mov	 BYTE PTR [edi+24], 0
; File C:\Program Files\Microsoft Visual Studio\2022\Professional\VC\Tools\MSVC\14.44.35207\include\xtree

; 831  :         _Construct_in_place(this->_Ptr->_Left, _Myhead);

  001ae	89 06		 mov	 DWORD PTR [esi], eax

; 832  :         _Construct_in_place(this->_Ptr->_Parent, _Myhead);

  001b0	89 46 04	 mov	 DWORD PTR [esi+4], eax

; 833  :         _Construct_in_place(this->_Ptr->_Right, _Myhead);

  001b3	89 46 08	 mov	 DWORD PTR [esi+8], eax

; 834  :         this->_Ptr->_Color = _Red;

  001b6	66 c7 46 0c 00
	00		 mov	 WORD PTR [esi+12], 0

; 1042 :         return {_Scary->_Insert_node(_Loc._Location, _Inserted), true};

  001bc	e8 00 00 00 00	 call	 ?_Insert_node@?$_Tree_val@U?$_Tree_simple_types@U?$pair@$$CBV?$basic_string@DU?$char_traits@D@std@@V?$allocator@D@2@@std@@V12@@std@@@std@@@std@@QAEPAU?$_Tree_node@U?$pair@$$CBV?$basic_string@DU?$char_traits@D@std@@V?$allocator@D@2@@std@@V12@@std@@PAX@2@U?$_Tree_id@PAU?$_Tree_node@U?$pair@$$CBV?$basic_string@DU?$char_traits@D@std@@V?$allocator@D@2@@std@@V12@@std@@PAX@std@@@2@QAU32@@Z ; std::_Tree_val<std::_Tree_simple_types<std::pair<std::basic_string<char,std::char_traits<char>,std::allocator<char> > const ,std::basic_string<char,std::char_traits<char>,std::allocator<char> > > > >::_Insert_node
; File C:\Program Files\Microsoft Visual Studio\2022\Professional\VC\Tools\MSVC\14.44.35207\include\utility

; 274  :         : first(_STD forward<_Other1>(_Val1)), second(_STD forward<_Other2>(_Val2)) {

  001c1	8b 4d 08	 mov	 ecx, DWORD PTR ___$ReturnUdt$[ebp]
  001c4	89 01		 mov	 DWORD PTR [ecx], eax
; File C:\Program Files\Microsoft Visual Studio\2022\Professional\VC\Tools\MSVC\14.44.35207\include\xtree

; 1042 :         return {_Scary->_Insert_node(_Loc._Location, _Inserted), true};

  001c6	8b c1		 mov	 eax, ecx
; File C:\Program Files\Microsoft Visual Studio\2022\Professional\VC\Tools\MSVC\14.44.35207\include\utility

; 274  :         : first(_STD forward<_Other1>(_Val1)), second(_STD forward<_Other2>(_Val2)) {

  001c8	c6 41 04 01	 mov	 BYTE PTR [ecx+4], 1
; File C:\Program Files\Microsoft Visual Studio\2022\Professional\VC\Tools\MSVC\14.44.35207\include\xtree

; 1043 :     }

  001cc	8b 4d f4	 mov	 ecx, DWORD PTR __$EHRec$[ebp]
  001cf	64 89 0d 00 00
	00 00		 mov	 DWORD PTR fs:0, ecx
  001d6	59		 pop	 ecx
  001d7	5f		 pop	 edi
  001d8	5e		 pop	 esi
  001d9	8b e5		 mov	 esp, ebp
  001db	5d		 pop	 ebp
  001dc	c2 08 00	 ret	 8
$LN256@Emplace:

; 1649 :             _Throw_tree_length_error();

  001df	e8 00 00 00 00	 call	 ?_Throw_tree_length_error@std@@YAXXZ ; std::_Throw_tree_length_error
$LN257@Emplace:
; File C:\Program Files\Microsoft Visual Studio\2022\Professional\VC\Tools\MSVC\14.44.35207\include\xstring

; 882  :             _Xlen_string(); // result too long

  001e4	e8 00 00 00 00	 call	 ?_Xlen_string@std@@YAXXZ ; std::_Xlen_string
$LN253@Emplace:
  001e9	cc		 int	 3
_TEXT	ENDS
;	COMDAT text$x
text$x	SEGMENT
__unwindfunclet$??$_Emplace@U?$pair@$$CBV?$basic_string@DU?$char_traits@D@std@@V?$allocator@D@2@@std@@V12@@std@@@?$_Tree@V?$_Tmap_traits@V?$basic_string@DU?$char_traits@D@std@@V?$allocator@D@2@@std@@V12@U?$less@V?$basic_string@DU?$char_traits@D@std@@V?$allocator@D@2@@std@@@2@V?$allocator@U?$pair@$$CBV?$basic_string@DU?$char_traits@D@std@@V?$allocator@D@2@@std@@V12@@std@@@2@$0A@@std@@@std@@IAE?AU?$pair@PAU?$_Tree_node@U?$pair@$$CBV?$basic_string@DU?$char_traits@D@std@@V?$allocator@D@2@@std@@V12@@std@@PAX@std@@_N@1@$$QAU?$pair@$$CBV?$basic_string@DU?$char_traits@D@std@@V?$allocator@D@2@@std@@V12@@1@@Z$2:
  00000	8d 4d dc	 lea	 ecx, DWORD PTR $T3[ebp]
  00003	e9 00 00 00 00	 jmp	 ??1?$_Alloc_construct_ptr@V?$allocator@U?$_Tree_node@U?$pair@$$CBV?$basic_string@DU?$char_traits@D@std@@V?$allocator@D@2@@std@@V12@@std@@PAX@std@@@std@@@std@@QAE@XZ ; std::_Alloc_construct_ptr<std::allocator<std::_Tree_node<std::pair<std::basic_string<char,std::char_traits<char>,std::allocator<char> > const ,std::basic_string<char,std::char_traits<char>,std::allocator<char> > >,void *> > >::~_Alloc_construct_ptr<std::allocator<std::_Tree_node<std::pair<std::basic_string<char,std::char_traits<char>,std::allocator<char> > const ,std::basic_string<char,std::char_traits<char>,std::allocator<char> > >,void *> > >
__unwindfunclet$??$_Emplace@U?$pair@$$CBV?$basic_string@DU?$char_traits@D@std@@V?$allocator@D@2@@std@@V12@@std@@@?$_Tree@V?$_Tmap_traits@V?$basic_string@DU?$char_traits@D@std@@V?$allocator@D@2@@std@@V12@U?$less@V?$basic_string@DU?$char_traits@D@std@@V?$allocator@D@2@@std@@@2@V?$allocator@U?$pair@$$CBV?$basic_string@DU?$char_traits@D@std@@V?$allocator@D@2@@std@@V12@@std@@@2@$0A@@std@@@std@@IAE?AU?$pair@PAU?$_Tree_node@U?$pair@$$CBV?$basic_string@DU?$char_traits@D@std@@V?$allocator@D@2@@std@@V12@@std@@PAX@std@@_N@1@$$QAU?$pair@$$CBV?$basic_string@DU?$char_traits@D@std@@V?$allocator@D@2@@std@@V12@@1@@Z$1:
  00008	8d 4d dc	 lea	 ecx, DWORD PTR $T3[ebp]
  0000b	e9 00 00 00 00	 jmp	 ??1?$_Tree_temp_node_alloc@V?$allocator@U?$_Tree_node@U?$pair@$$CBV?$basic_string@DU?$char_traits@D@std@@V?$allocator@D@2@@std@@V12@@std@@PAX@std@@@std@@@std@@QAE@XZ
  00010	cc		 int	 3
  00011	cc		 int	 3
  00012	cc		 int	 3
  00013	cc		 int	 3
  00014	cc		 int	 3
__ehhandler$??$_Emplace@U?$pair@$$CBV?$basic_string@DU?$char_traits@D@std@@V?$allocator@D@2@@std@@V12@@std@@@?$_Tree@V?$_Tmap_traits@V?$basic_string@DU?$char_traits@D@std@@V?$allocator@D@2@@std@@V12@U?$less@V?$basic_string@DU?$char_traits@D@std@@V?$allocator@D@2@@std@@@2@V?$allocator@U?$pair@$$CBV?$basic_string@DU?$char_traits@D@std@@V?$allocator@D@2@@std@@V12@@std@@@2@$0A@@std@@@std@@IAE?AU?$pair@PAU?$_Tree_node@U?$pair@$$CBV?$basic_string@DU?$char_traits@D@std@@V?$allocator@D@2@@std@@V12@@std@@PAX@std@@_N@1@$$QAU?$pair@$$CBV?$basic_string@DU?$char_traits@D@std@@V?$allocator@D@2@@std@@V12@@1@@Z:
  00015	90		 npad	 1
  00016	90		 npad	 1
  00017	8b 54 24 08	 mov	 edx, DWORD PTR [esp+8]
  0001b	8d 42 0c	 lea	 eax, DWORD PTR [edx+12]
  0001e	8b 4a cc	 mov	 ecx, DWORD PTR [edx-52]
  00021	33 c8		 xor	 ecx, eax
  00023	e8 00 00 00 00	 call	 @__security_check_cookie@4
  00028	b8 00 00 00 00	 mov	 eax, OFFSET __ehfuncinfo$??$_Emplace@U?$pair@$$CBV?$basic_string@DU?$char_traits@D@std@@V?$allocator@D@2@@std@@V12@@std@@@?$_Tree@V?$_Tmap_traits@V?$basic_string@DU?$char_traits@D@std@@V?$allocator@D@2@@std@@V12@U?$less@V?$basic_string@DU?$char_traits@D@std@@V?$allocator@D@2@@std@@@2@V?$allocator@U?$pair@$$CBV?$basic_string@DU?$char_traits@D@std@@V?$allocator@D@2@@std@@V12@@std@@@2@$0A@@std@@@std@@IAE?AU?$pair@PAU?$_Tree_node@U?$pair@$$CBV?$basic_string@DU?$char_traits@D@std@@V?$allocator@D@2@@std@@V12@@std@@PAX@std@@_N@1@$$QAU?$pair@$$CBV?$basic_string@DU?$char_traits@D@std@@V?$allocator@D@2@@std@@V12@@1@@Z
  0002d	e9 00 00 00 00	 jmp	 ___CxxFrameHandler3
text$x	ENDS
??$_Emplace@U?$pair@$$CBV?$basic_string@DU?$char_traits@D@std@@V?$allocator@D@2@@std@@V12@@std@@@?$_Tree@V?$_Tmap_traits@V?$basic_string@DU?$char_traits@D@std@@V?$allocator@D@2@@std@@V12@U?$less@V?$basic_string@DU?$char_traits@D@std@@V?$allocator@D@2@@std@@@2@V?$allocator@U?$pair@$$CBV?$basic_string@DU?$char_traits@D@std@@V?$allocator@D@2@@std@@V12@@std@@@2@$0A@@std@@@std@@IAE?AU?$pair@PAU?$_Tree_node@U?$pair@$$CBV?$basic_string@DU?$char_traits@D@std@@V?$allocator@D@2@@std@@V12@@std@@PAX@std@@_N@1@$$QAU?$pair@$$CBV?$basic_string@DU?$char_traits@D@std@@V?$allocator@D@2@@std@@V12@@1@@Z ENDP ; std::_Tree<std::_Tmap_traits<std::basic_string<char,std::char_traits<char>,std::allocator<char> >,std::basic_string<char,std::char_traits<char>,std::allocator<char> >,std::less<std::basic_string<char,std::char_traits<char>,std::allocator<char> > >,std::allocator<std::pair<std::basic_string<char,std::char_traits<char>,std::allocator<char> > const ,std::basic_string<char,std::char_traits<char>,std::allocator<char> > > >,0> >::_Emplace<std::pair<std::basic_string<char,std::char_traits<char>,std::allocator<char> > const ,std::basic_string<char,std::char_traits<char>,std::allocator<char> > > >
; Function compile flags: /Ogtp
;	COMDAT ??1?$pair@$$CBV?$basic_string@DU?$char_traits@D@std@@V?$allocator@D@2@@std@@V12@@std@@QAE@XZ
_TEXT	SEGMENT
??1?$pair@$$CBV?$basic_string@DU?$char_traits@D@std@@V?$allocator@D@2@@std@@V12@@std@@QAE@XZ PROC ; std::pair<std::basic_string<char,std::char_traits<char>,std::allocator<char> > const ,std::basic_string<char,std::char_traits<char>,std::allocator<char> > >::~pair<std::basic_string<char,std::char_traits<char>,std::allocator<char> > const ,std::basic_string<char,std::char_traits<char>,std::allocator<char> > >, COMDAT
; _this$ = ecx
  00000	56		 push	 esi
  00001	8b f1		 mov	 esi, ecx
  00003	8d 4e 18	 lea	 ecx, DWORD PTR [esi+24]
  00006	e8 00 00 00 00	 call	 ??1?$basic_string@DU?$char_traits@D@std@@V?$allocator@D@2@@std@@QAE@XZ ; std::basic_string<char,std::char_traits<char>,std::allocator<char> >::~basic_string<char,std::char_traits<char>,std::allocator<char> >
  0000b	8b ce		 mov	 ecx, esi
  0000d	5e		 pop	 esi
  0000e	e9 00 00 00 00	 jmp	 ??1?$basic_string@DU?$char_traits@D@std@@V?$allocator@D@2@@std@@QAE@XZ ; std::basic_string<char,std::char_traits<char>,std::allocator<char> >::~basic_string<char,std::char_traits<char>,std::allocator<char> >
??1?$pair@$$CBV?$basic_string@DU?$char_traits@D@std@@V?$allocator@D@2@@std@@V12@@std@@QAE@XZ ENDP ; std::pair<std::basic_string<char,std::char_traits<char>,std::allocator<char> > const ,std::basic_string<char,std::char_traits<char>,std::allocator<char> > >::~pair<std::basic_string<char,std::char_traits<char>,std::allocator<char> > const ,std::basic_string<char,std::char_traits<char>,std::allocator<char> > >
_TEXT	ENDS
; Function compile flags: /Ogtp
;	COMDAT ??__Fg_WorldMng@@YAXXZ
text$yd	SEGMENT
??__Fg_WorldMng@@YAXXZ PROC				; `dynamic atexit destructor for 'g_WorldMng'', COMDAT
  00000	b9 00 00 00 00	 mov	 ecx, OFFSET ?g_WorldMng@@3VCWorldMng@@A ; g_WorldMng
  00005	e9 00 00 00 00	 jmp	 ??1CWorldMng@@UAE@XZ	; CWorldMng::~CWorldMng
??__Fg_WorldMng@@YAXXZ ENDP				; `dynamic atexit destructor for 'g_WorldMng''
text$yd	ENDS
; Function compile flags: /Ogtp
; File C:\IAGOS\server\v18\Source\Source\_Common\worldmng.cpp
;	COMDAT ??__Eg_WorldMng@@YAXXZ
text$di	SEGMENT
??__Eg_WorldMng@@YAXXZ PROC				; `dynamic initializer for 'g_WorldMng'', COMDAT

; 28   : CWorldMng	g_WorldMng;

  00000	b9 00 00 00 00	 mov	 ecx, OFFSET ?g_WorldMng@@3VCWorldMng@@A ; g_WorldMng
  00005	e8 00 00 00 00	 call	 ??0CWorldMng@@QAE@XZ	; CWorldMng::CWorldMng
  0000a	68 00 00 00 00	 push	 OFFSET ??__Fg_WorldMng@@YAXXZ ; `dynamic atexit destructor for 'g_WorldMng''
  0000f	e8 00 00 00 00	 call	 _atexit
  00014	59		 pop	 ecx
  00015	c3		 ret	 0
??__Eg_WorldMng@@YAXXZ ENDP				; `dynamic initializer for 'g_WorldMng''
text$di	ENDS
; Function compile flags: /Ogtp
;	COMDAT ??_GCWorldMng@@UAEPAXI@Z
_TEXT	SEGMENT
___flags$ = 8						; size = 4
??_GCWorldMng@@UAEPAXI@Z PROC				; CWorldMng::`scalar deleting destructor', COMDAT
; _this$ = ecx
  00000	55		 push	 ebp
  00001	8b ec		 mov	 ebp, esp
  00003	56		 push	 esi
  00004	8b f1		 mov	 esi, ecx
  00006	e8 00 00 00 00	 call	 ??1CWorldMng@@UAE@XZ	; CWorldMng::~CWorldMng
  0000b	f6 45 08 01	 test	 BYTE PTR ___flags$[ebp], 1
  0000f	74 0e		 je	 SHORT $LN5@scalar
  00011	68 44 e8 05 00	 push	 387140			; 0005e844H
  00016	56		 push	 esi
  00017	e8 00 00 00 00	 call	 ??3@YAXPAXI@Z		; operator delete
  0001c	83 c4 08	 add	 esp, 8
$LN5@scalar:
  0001f	8b c6		 mov	 eax, esi
  00021	5e		 pop	 esi
  00022	5d		 pop	 ebp
  00023	c2 04 00	 ret	 4
??_GCWorldMng@@UAEPAXI@Z ENDP				; CWorldMng::`scalar deleting destructor'
_TEXT	ENDS
; Function compile flags: /Ogtp
; File C:\IAGOS\server\v18\Source\Source\_Common\worldmng.cpp
; File C:\Program Files\Microsoft Visual Studio\2022\Professional\VC\Tools\MSVC\14.44.35207\include\xtree
; File C:\Program Files\Microsoft Visual Studio\2022\Professional\VC\Tools\MSVC\14.44.35207\include\type_traits
; File C:\Program Files\Microsoft Visual Studio\2022\Professional\VC\Tools\MSVC\14.44.35207\include\xtree
; File C:\Program Files\Microsoft Visual Studio\2022\Professional\VC\Tools\MSVC\14.44.35207\include\xstring
; File C:\Program Files\Microsoft Visual Studio\2022\Professional\VC\Tools\MSVC\14.44.35207\include\xmemory
; File C:\Program Files\Microsoft Visual Studio\2022\Professional\VC\Tools\MSVC\14.44.35207\include\xstring
; File C:\Program Files\Microsoft Visual Studio\2022\Professional\VC\Tools\MSVC\14.44.35207\include\xmemory
; File C:\Program Files\Microsoft Visual Studio\2022\Professional\VC\Tools\MSVC\14.44.35207\include\xtree
; File C:\IAGOS\server\v18\Source\Source\_Common\worldmng.cpp
; File C:\Program Files\Microsoft Visual Studio\2022\Professional\VC\Tools\MSVC\14.44.35207\include\xstring
; File C:\IAGOS\server\v18\Source\Source\_Common\worldmng.cpp
; File C:\IAGOS\server\v18\Source\Source\_Common\Obj.h
; File C:\IAGOS\server\v18\Source\Source\_Common\worldmng.cpp
; File C:\IAGOS\server\v18\Source\Source\_Common\Obj.h
; File C:\IAGOS\server\v18\Source\Source\_Common\worldmng.cpp
; File C:\IAGOS\server\v18\Source\Source\_Common\Obj.h
; File C:\IAGOS\server\v18\Source\Source\_Common\worldmng.cpp
; File C:\IAGOS\server\v18\Source\Source\_Common\Obj.h
; File C:\IAGOS\server\v18\Source\Source\_Common\worldmng.cpp
; File C:\Program Files\Microsoft Visual Studio\2022\Professional\VC\Tools\MSVC\14.44.35207\include\xmemory
; File C:\IAGOS\server\v18\Source\Source\_Common\worldmng.cpp
;	COMDAT ?CheckMapKey@CWorldMng@@QAEXPAVCUser@@PBD1@Z
_TEXT	SEGMENT
_x$1$ = -308						; size = 4
$T1 = -304						; size = 12
$T2 = -304						; size = 12
__Loc$3 = -304						; size = 12
_z$1$ = -292						; size = 4
_szMapKey$GSCopy$1$ = -292				; size = 4
$T4 = -288						; size = 24
_szLandFile$ = -264					; size = 260
__$ArrayPad$ = -4					; size = 4
_pUser$ = 8						; size = 4
_szFileName$ = 12					; size = 4
_szMapKey$ = 16						; size = 4
?CheckMapKey@CWorldMng@@QAEXPAVCUser@@PBD1@Z PROC	; CWorldMng::CheckMapKey, COMDAT
; _this$ = ecx

; 771  : {	

  00000	55		 push	 ebp
  00001	8b ec		 mov	 ebp, esp
  00003	81 ec 34 01 00
	00		 sub	 esp, 308		; 00000134H
  00009	a1 00 00 00 00	 mov	 eax, DWORD PTR ___security_cookie
  0000e	33 c5		 xor	 eax, ebp
  00010	89 45 fc	 mov	 DWORD PTR __$ArrayPad$[ebp], eax
  00013	8b 45 0c	 mov	 eax, DWORD PTR _szFileName$[ebp]
  00016	53		 push	 ebx
  00017	56		 push	 esi
  00018	8b d9		 mov	 ebx, ecx
  0001a	8b 4d 10	 mov	 ecx, DWORD PTR _szMapKey$[ebp]
  0001d	57		 push	 edi
  0001e	8b 7d 08	 mov	 edi, DWORD PTR _pUser$[ebp]
  00021	89 8d dc fe ff
	ff		 mov	 DWORD PTR _szMapKey$GSCopy$1$[ebp], ecx

; 772  : 	map<string, string>::iterator it = m_mapMapKey.find( szFileName );

  00027	8d 8d e0 fe ff
	ff		 lea	 ecx, DWORD PTR $T4[ebp]
  0002d	50		 push	 eax
  0002e	e8 00 00 00 00	 call	 ??0?$basic_string@DU?$char_traits@D@std@@V?$allocator@D@2@@std@@QAE@QBD@Z ; std::basic_string<char,std::char_traits<char>,std::allocator<char> >::basic_string<char,std::char_traits<char>,std::allocator<char> >
; File C:\Program Files\Microsoft Visual Studio\2022\Professional\VC\Tools\MSVC\14.44.35207\include\xtree

; 1384 :         const _Tree_find_result<_Nodeptr> _Loc = _Find_lower_bound(_Keyval);

  00033	8d 85 e0 fe ff
	ff		 lea	 eax, DWORD PTR $T4[ebp]
  00039	50		 push	 eax
  0003a	8d 85 d0 fe ff
	ff		 lea	 eax, DWORD PTR __Loc$3[ebp]
  00040	50		 push	 eax
  00041	8d 8b 3c e8 05
	00		 lea	 ecx, DWORD PTR [ebx+387132]
  00047	e8 00 00 00 00	 call	 ??$_Find_lower_bound@V?$basic_string@DU?$char_traits@D@std@@V?$allocator@D@2@@std@@@?$_Tree@V?$_Tmap_traits@V?$basic_string@DU?$char_traits@D@std@@V?$allocator@D@2@@std@@V12@U?$less@V?$basic_string@DU?$char_traits@D@std@@V?$allocator@D@2@@std@@@2@V?$allocator@U?$pair@$$CBV?$basic_string@DU?$char_traits@D@std@@V?$allocator@D@2@@std@@V12@@std@@@2@$0A@@std@@@std@@IBE?AU?$_Tree_find_result@PAU?$_Tree_node@U?$pair@$$CBV?$basic_string@DU?$char_traits@D@std@@V?$allocator@D@2@@std@@V12@@std@@PAX@std@@@1@ABV?$basic_string@DU?$char_traits@D@std@@V?$allocator@D@2@@1@@Z ; std::_Tree<std::_Tmap_traits<std::basic_string<char,std::char_traits<char>,std::allocator<char> >,std::basic_string<char,std::char_traits<char>,std::allocator<char> >,std::less<std::basic_string<char,std::char_traits<char>,std::allocator<char> > >,std::allocator<std::pair<std::basic_string<char,std::char_traits<char>,std::allocator<char> > const ,std::basic_string<char,std::char_traits<char>,std::allocator<char> > > >,0> >::_Find_lower_bound<std::basic_string<char,std::char_traits<char>,std::allocator<char> > >

; 1624 :         return !_Bound->_Isnil && !_DEBUG_LT_PRED(_Getcomp(), _Keyval, _Traits::_Kfn(_Bound->_Myval));

  0004c	8b b5 d8 fe ff
	ff		 mov	 esi, DWORD PTR __Loc$3[ebp+8]
  00052	80 7e 0d 00	 cmp	 BYTE PTR [esi+13], 0
  00056	75 17		 jne	 SHORT $LN11@CheckMapKe
  00058	8d 46 10	 lea	 eax, DWORD PTR [esi+16]
; File C:\Program Files\Microsoft Visual Studio\2022\Professional\VC\Tools\MSVC\14.44.35207\include\type_traits

; 2380 :         return _Left < _Right;

  0005b	50		 push	 eax
  0005c	8d 85 e0 fe ff
	ff		 lea	 eax, DWORD PTR $T4[ebp]
  00062	50		 push	 eax
  00063	e8 00 00 00 00	 call	 ??$?MDU?$char_traits@D@std@@V?$allocator@D@1@@std@@YA_NABV?$basic_string@DU?$char_traits@D@std@@V?$allocator@D@2@@0@0@Z ; std::operator<<char,std::char_traits<char>,std::allocator<char> >
  00068	83 c4 08	 add	 esp, 8
; File C:\Program Files\Microsoft Visual Studio\2022\Professional\VC\Tools\MSVC\14.44.35207\include\xtree

; 1624 :         return !_Bound->_Isnil && !_DEBUG_LT_PRED(_Getcomp(), _Keyval, _Traits::_Kfn(_Bound->_Myval));

  0006b	84 c0		 test	 al, al
  0006d	74 06		 je	 SHORT $LN10@CheckMapKe
$LN11@CheckMapKe:

; 1389 :         return _Get_scary()->_Myhead;

  0006f	8b b3 3c e8 05
	00		 mov	 esi, DWORD PTR [ebx+387132]
$LN10@CheckMapKe:
; File C:\Program Files\Microsoft Visual Studio\2022\Professional\VC\Tools\MSVC\14.44.35207\include\xstring

; 453  :         return _Myres > _Small_string_capacity;

  00075	8b 8d f4 fe ff
	ff		 mov	 ecx, DWORD PTR $T4[ebp+20]
  0007b	83 f9 0f	 cmp	 ecx, 15			; 0000000fH

; 3083 :         if (_My_data._Large_mode_engaged()) {

  0007e	76 2f		 jbe	 SHORT $LN49@CheckMapKe
; File C:\Program Files\Microsoft Visual Studio\2022\Professional\VC\Tools\MSVC\14.44.35207\include\xmemory

; 985  :         _STD _Deallocate<_New_alignof<_Ty>>(_Ptr, sizeof(_Ty) * _Count);

  00080	8b 95 e0 fe ff
	ff		 mov	 edx, DWORD PTR $T4[ebp]
; File C:\Program Files\Microsoft Visual Studio\2022\Professional\VC\Tools\MSVC\14.44.35207\include\xstring

; 852  :         _Al.deallocate(_Old_ptr, _Capacity + 1); // +1 for null terminator

  00086	41		 inc	 ecx
; File C:\Program Files\Microsoft Visual Studio\2022\Professional\VC\Tools\MSVC\14.44.35207\include\xmemory

; 985  :         _STD _Deallocate<_New_alignof<_Ty>>(_Ptr, sizeof(_Ty) * _Count);

  00087	8b c2		 mov	 eax, edx

; 284  :         if (_Bytes >= _Big_allocation_threshold) {

  00089	81 f9 00 10 00
	00		 cmp	 ecx, 4096		; 00001000H
  0008f	72 14		 jb	 SHORT $LN54@CheckMapKe

; 205  :     const uintptr_t _Ptr_container   = _Ptr_user[-1];

  00091	8b 50 fc	 mov	 edx, DWORD PTR [eax-4]
  00094	83 c1 23	 add	 ecx, 35			; 00000023H
  00097	2b c2		 sub	 eax, edx

; 219  :     _STL_VERIFY(_Back_shift >= _Min_back_shift && _Back_shift <= _Non_user_size, "invalid argument");

  00099	83 c0 fc	 add	 eax, -4			; fffffffcH
  0009c	83 f8 1f	 cmp	 eax, 31			; 0000001fH
  0009f	0f 87 47 01 00
	00		 ja	 $LN115@CheckMapKe
$LN54@CheckMapKe:

; 289  :         ::operator delete(_Ptr, _Bytes);

  000a5	51		 push	 ecx
  000a6	52		 push	 edx
  000a7	e8 00 00 00 00	 call	 ??3@YAXPAXI@Z		; operator delete
  000ac	83 c4 08	 add	 esp, 8
$LN49@CheckMapKe:
; File C:\Program Files\Microsoft Visual Studio\2022\Professional\VC\Tools\MSVC\14.44.35207\include\xtree

; 37   :     _Tree_unchecked_const_iterator(_Nodeptr _Pnode, const _Mytree* _Plist) noexcept : _Ptr(_Pnode) {

  000af	3b b3 3c e8 05
	00		 cmp	 esi, DWORD PTR [ebx+387132]
; File C:\IAGOS\server\v18\Source\Source\_Common\worldmng.cpp

; 773  : 	if( it != m_mapMapKey.end() )

  000b5	74 22		 je	 SHORT $LN3@CheckMapKe
; File C:\Program Files\Microsoft Visual Studio\2022\Professional\VC\Tools\MSVC\14.44.35207\include\xstring

; 453  :         return _Myres > _Small_string_capacity;

  000b7	83 7e 3c 0f	 cmp	 DWORD PTR [esi+60], 15	; 0000000fH

; 2356 :         return _Mypair._Myval2._Myptr();

  000bb	8d 46 28	 lea	 eax, DWORD PTR [esi+40]

; 445  :         if (_Large_mode_engaged()) {

  000be	76 02		 jbe	 SHORT $LN92@CheckMapKe

; 446  :             _Result = _Unfancy(_Bx._Ptr);

  000c0	8b 00		 mov	 eax, DWORD PTR [eax]
$LN92@CheckMapKe:
; File C:\IAGOS\server\v18\Source\Source\_Common\worldmng.cpp

; 775  : 		if( !strcmpi( szMapKey, it->second.c_str() ) )	// ¸Ę ŔÎÁő Ľş°ř!

  000c2	50		 push	 eax
  000c3	ff b5 dc fe ff
	ff		 push	 DWORD PTR _szMapKey$GSCopy$1$[ebp]
  000c9	e8 00 00 00 00	 call	 _strcmpi
  000ce	83 c4 08	 add	 esp, 8
  000d1	85 c0		 test	 eax, eax
  000d3	0f 84 00 01 00
	00		 je	 $LN5@CheckMapKe
$LN3@CheckMapKe:
; File C:\IAGOS\server\v18\Source\Source\_Common\Obj.h

; 215  : 	D3DXVECTOR3		GetPos()	{ return m_vPos; }

  000d9	f3 0f 7e 87 60
	01 00 00	 movq	 xmm0, QWORD PTR [edi+352]
  000e1	8b 87 68 01 00
	00		 mov	 eax, DWORD PTR [edi+360]
; File C:\IAGOS\server\v18\Source\Source\_Common\worldmng.cpp

; 782  : 	int x = int( pUser->GetPos().x ) / ( MAP_SIZE * pUser->GetWorld()->m_iMPU );

  000e7	8b 9f 6c 01 00
	00		 mov	 ebx, DWORD PTR [edi+364]
; File C:\IAGOS\server\v18\Source\Source\_Common\Obj.h

; 215  : 	D3DXVECTOR3		GetPos()	{ return m_vPos; }

  000ed	89 85 d8 fe ff
	ff		 mov	 DWORD PTR $T1[ebp+8], eax
  000f3	66 0f d6 85 d0
	fe ff ff	 movq	 QWORD PTR $T1[ebp], xmm0
  000fb	f3 0f 7e c0	 movq	 xmm0, xmm0
; File C:\IAGOS\server\v18\Source\Source\_Common\worldmng.cpp

; 782  : 	int x = int( pUser->GetPos().x ) / ( MAP_SIZE * pUser->GetWorld()->m_iMPU );

  000ff	f3 0f 2c 85 d0
	fe ff ff	 cvttss2si eax, DWORD PTR $T1[ebp]
  00107	8b 73 14	 mov	 esi, DWORD PTR [ebx+20]
  0010a	c1 e6 07	 shl	 esi, 7
; File C:\IAGOS\server\v18\Source\Source\_Common\Obj.h

; 215  : 	D3DXVECTOR3		GetPos()	{ return m_vPos; }

  0010d	8b 8f 68 01 00
	00		 mov	 ecx, DWORD PTR [edi+360]
  00113	89 8d d8 fe ff
	ff		 mov	 DWORD PTR $T2[ebp+8], ecx
; File C:\IAGOS\server\v18\Source\Source\_Common\worldmng.cpp

; 788  : 	char szLandFile[MAX_PATH] = {0,};

  00119	68 04 01 00 00	 push	 260			; 00000104H
  0011e	6a 00		 push	 0
; File C:\IAGOS\server\v18\Source\Source\_Common\Obj.h

; 215  : 	D3DXVECTOR3		GetPos()	{ return m_vPos; }

  00120	66 0f d6 85 d0
	fe ff ff	 movq	 QWORD PTR $T2[ebp], xmm0
; File C:\IAGOS\server\v18\Source\Source\_Common\worldmng.cpp

; 782  : 	int x = int( pUser->GetPos().x ) / ( MAP_SIZE * pUser->GetWorld()->m_iMPU );

  00128	99		 cdq
  00129	f7 fe		 idiv	 esi
  0012b	89 85 cc fe ff
	ff		 mov	 DWORD PTR _x$1$[ebp], eax

; 783  : 	int z = int( pUser->GetPos().z ) / ( MAP_SIZE * pUser->GetWorld()->m_iMPU );

  00131	f3 0f 2c 85 d8
	fe ff ff	 cvttss2si eax, DWORD PTR $T2[ebp+8]
  00139	99		 cdq
  0013a	f7 fe		 idiv	 esi
  0013c	89 85 dc fe ff
	ff		 mov	 DWORD PTR _z$1$[ebp], eax

; 788  : 	char szLandFile[MAX_PATH] = {0,};

  00142	8d 85 f8 fe ff
	ff		 lea	 eax, DWORD PTR _szLandFile$[ebp]
  00148	50		 push	 eax
  00149	e8 00 00 00 00	 call	 _memset
  0014e	83 c4 0c	 add	 esp, 12			; 0000000cH

; 789  : 	if( pUser->GetWorld() )

  00151	85 db		 test	 ebx, ebx
  00153	74 28		 je	 SHORT $LN4@CheckMapKe

; 790  : 	{
; 791  : 		strncpy( szLandFile, pUser->GetWorld()->m_szFileName, strlen( pUser->GetWorld()->m_szFileName ) - 4 );

  00155	8d 93 20 92 08
	00		 lea	 edx, DWORD PTR [ebx+561696]
  0015b	8b ca		 mov	 ecx, edx
  0015d	8d 71 01	 lea	 esi, DWORD PTR [ecx+1]
$LL103@CheckMapKe:
  00160	8a 01		 mov	 al, BYTE PTR [ecx]
  00162	41		 inc	 ecx
  00163	84 c0		 test	 al, al
  00165	75 f9		 jne	 SHORT $LL103@CheckMapKe
  00167	2b ce		 sub	 ecx, esi
  00169	8d 41 fc	 lea	 eax, DWORD PTR [ecx-4]
  0016c	50		 push	 eax
  0016d	52		 push	 edx
  0016e	8d 85 f8 fe ff
	ff		 lea	 eax, DWORD PTR _szLandFile$[ebp]
  00174	50		 push	 eax
  00175	e8 00 00 00 00	 call	 _strncpy
  0017a	83 c4 0c	 add	 esp, 12			; 0000000cH
$LN4@CheckMapKe:

; 792  : 	}
; 793  : 
; 794  : 	Error( "Invalid Map Key - [User : %s, %07d], [Land : %s%02d-%02d]", pUser->GetName(), pUser->m_idPlayer, szLandFile, x, z );

  0017d	ff b5 dc fe ff
	ff		 push	 DWORD PTR _z$1$[ebp]
  00183	8d 85 f8 fe ff
	ff		 lea	 eax, DWORD PTR _szLandFile$[ebp]
  00189	8b cf		 mov	 ecx, edi
  0018b	ff b5 cc fe ff
	ff		 push	 DWORD PTR _x$1$[ebp]
  00191	50		 push	 eax
  00192	ff b7 34 02 00
	00		 push	 DWORD PTR [edi+564]
  00198	6a 00		 push	 0
  0019a	e8 00 00 00 00	 call	 ?GetName@CMover@@QAEPBDH@Z ; CMover::GetName
  0019f	50		 push	 eax
  001a0	68 00 00 00 00	 push	 OFFSET ??_C@_0DK@MPLEIMAJ@Invalid?5Map?5Key?5?9?5?$FLUser?5?3?5?$CFs?0?5?$CF@
  001a5	e8 00 00 00 00	 call	 ?Error@@YAPBDPBDZZ	; Error
  001aa	83 c4 18	 add	 esp, 24			; 00000018H

; 795  : 
; 796  : 	//	mulcom	BEGIN100330	¸ĘşŻÁ¶ Č®ŔÎ µ¶ŔĎŔş Á¦żÜ ˝ĂĹ´
; 797  : 	if( ::GetLanguage() != LANG_GER )

  001ad	e8 00 00 00 00	 call	 ?GetLanguage@@YAHXZ	; GetLanguage
  001b2	83 f8 06	 cmp	 eax, 6
  001b5	74 22		 je	 SHORT $LN5@CheckMapKe

; 798  : 	{
; 799  : 		g_DPSrvr.QueryDestroyPlayer( pUser->m_Snapshot.dpidCache, pUser->m_Snapshot.dpidUser, pUser->m_dwSerial, pUser->m_idPlayer );

  001b7	ff b7 34 02 00
	00		 push	 DWORD PTR [edi+564]
  001bd	b9 00 00 00 00	 mov	 ecx, OFFSET ?g_DPSrvr@@3VCDPSrvr@@A ; g_DPSrvr
  001c2	ff b7 3c 15 00
	00		 push	 DWORD PTR [edi+5436]
  001c8	ff b7 4c 15 00
	00		 push	 DWORD PTR [edi+5452]
  001ce	ff b7 48 15 00
	00		 push	 DWORD PTR [edi+5448]
  001d4	e8 00 00 00 00	 call	 ?QueryDestroyPlayer@CDPSrvr@@QAEXKKKK@Z ; CDPSrvr::QueryDestroyPlayer
$LN5@CheckMapKe:

; 802  : }

  001d9	8b 4d fc	 mov	 ecx, DWORD PTR __$ArrayPad$[ebp]
  001dc	5f		 pop	 edi
  001dd	5e		 pop	 esi
  001de	33 cd		 xor	 ecx, ebp
  001e0	5b		 pop	 ebx
  001e1	e8 00 00 00 00	 call	 @__security_check_cookie@4
  001e6	8b e5		 mov	 esp, ebp
  001e8	5d		 pop	 ebp
  001e9	c2 0c 00	 ret	 12			; 0000000cH
$LN115@CheckMapKe:
; File C:\Program Files\Microsoft Visual Studio\2022\Professional\VC\Tools\MSVC\14.44.35207\include\xmemory

; 219  :     _STL_VERIFY(_Back_shift >= _Min_back_shift && _Back_shift <= _Non_user_size, "invalid argument");

  001ec	6a 00		 push	 0
  001ee	6a 00		 push	 0
  001f0	6a 00		 push	 0
  001f2	6a 00		 push	 0
  001f4	6a 00		 push	 0
  001f6	e8 00 00 00 00	 call	 __invoke_watson
$LN113@CheckMapKe:
  001fb	cc		 int	 3
?CheckMapKey@CWorldMng@@QAEXPAVCUser@@PBD1@Z ENDP	; CWorldMng::CheckMapKey
_TEXT	ENDS
; Function compile flags: /Ogtp
; File C:\Program Files\Microsoft Visual Studio\2022\Professional\VC\Tools\MSVC\14.44.35207\include\xtree
;	COMDAT ?_Insert_node@?$_Tree_val@U?$_Tree_simple_types@U?$pair@$$CBV?$basic_string@DU?$char_traits@D@std@@V?$allocator@D@2@@std@@V12@@std@@@std@@@std@@QAEPAU?$_Tree_node@U?$pair@$$CBV?$basic_string@DU?$char_traits@D@std@@V?$allocator@D@2@@std@@V12@@std@@PAX@2@U?$_Tree_id@PAU?$_Tree_node@U?$pair@$$CBV?$basic_string@DU?$char_traits@D@std@@V?$allocator@D@2@@std@@V12@@std@@PAX@std@@@2@QAU32@@Z
_TEXT	SEGMENT
__Head$1$ = -4						; size = 4
__Loc$ = 8						; size = 8
__Newnode$ = 16						; size = 4
?_Insert_node@?$_Tree_val@U?$_Tree_simple_types@U?$pair@$$CBV?$basic_string@DU?$char_traits@D@std@@V?$allocator@D@2@@std@@V12@@std@@@std@@@std@@QAEPAU?$_Tree_node@U?$pair@$$CBV?$basic_string@DU?$char_traits@D@std@@V?$allocator@D@2@@std@@V12@@std@@PAX@2@U?$_Tree_id@PAU?$_Tree_node@U?$pair@$$CBV?$basic_string@DU?$char_traits@D@std@@V?$allocator@D@2@@std@@V12@@std@@PAX@std@@@2@QAU32@@Z PROC ; std::_Tree_val<std::_Tree_simple_types<std::pair<std::basic_string<char,std::char_traits<char>,std::allocator<char> > const ,std::basic_string<char,std::char_traits<char>,std::allocator<char> > > > >::_Insert_node, COMDAT
; _this$ = ecx

; 669  :     _Nodeptr _Insert_node(const _Tree_id<_Nodeptr> _Loc, const _Nodeptr _Newnode) noexcept {

  00000	55		 push	 ebp
  00001	8b ec		 mov	 ebp, esp
  00003	51		 push	 ecx

; 670  :         ++_Mysize;
; 671  :         const auto _Head  = _Myhead;
; 672  :         _Newnode->_Parent = _Loc._Parent;

  00004	8b 55 08	 mov	 edx, DWORD PTR __Loc$[ebp]
  00007	53		 push	 ebx
  00008	8b d9		 mov	 ebx, ecx
  0000a	57		 push	 edi
  0000b	8b 7d 10	 mov	 edi, DWORD PTR __Newnode$[ebp]
  0000e	8b 03		 mov	 eax, DWORD PTR [ebx]
  00010	ff 43 04	 inc	 DWORD PTR [ebx+4]
  00013	89 45 fc	 mov	 DWORD PTR __Head$1$[ebp], eax
  00016	89 57 04	 mov	 DWORD PTR [edi+4], edx

; 673  :         if (_Loc._Parent == _Head) { // first node in tree, just set head values

  00019	3b d0		 cmp	 edx, eax
  0001b	75 16		 jne	 SHORT $LN5@Insert_nod

; 674  :             _Head->_Left     = _Newnode;

  0001d	89 38		 mov	 DWORD PTR [eax], edi

; 675  :             _Head->_Parent   = _Newnode;

  0001f	89 78 04	 mov	 DWORD PTR [eax+4], edi

; 676  :             _Head->_Right    = _Newnode;

  00022	89 78 08	 mov	 DWORD PTR [eax+8], edi

; 735  :         return _Newnode;
; 736  :     }

  00025	8b c7		 mov	 eax, edi
  00027	c6 47 0c 01	 mov	 BYTE PTR [edi+12], 1
  0002b	5f		 pop	 edi
  0002c	5b		 pop	 ebx
  0002d	8b e5		 mov	 esp, ebp
  0002f	5d		 pop	 ebp
  00030	c2 0c 00	 ret	 12			; 0000000cH
$LN5@Insert_nod:

; 677  :             _Newnode->_Color = _Black; // the root is black
; 678  :             return _Newnode;
; 679  :         }
; 680  : 
; 681  :         _STL_INTERNAL_CHECK(_Loc._Child != _Tree_child::_Unused);
; 682  :         if (_Loc._Child == _Tree_child::_Right) { // add to right of _Loc._Parent

  00033	83 7d 0c 00	 cmp	 DWORD PTR __Loc$[ebp+4], 0
  00037	75 0d		 jne	 SHORT $LN6@Insert_nod

; 683  :             _STL_INTERNAL_CHECK(_Loc._Parent->_Right->_Isnil);
; 684  :             _Loc._Parent->_Right = _Newnode;

  00039	89 7a 08	 mov	 DWORD PTR [edx+8], edi

; 685  :             if (_Loc._Parent == _Head->_Right) { // remember rightmost node

  0003c	3b 50 08	 cmp	 edx, DWORD PTR [eax+8]
  0003f	75 0d		 jne	 SHORT $LN9@Insert_nod

; 686  :                 _Head->_Right = _Newnode;

  00041	89 78 08	 mov	 DWORD PTR [eax+8], edi

; 687  :             }
; 688  :         } else { // add to left of _Loc._Parent

  00044	eb 08		 jmp	 SHORT $LN9@Insert_nod
$LN6@Insert_nod:

; 689  :             _STL_INTERNAL_CHECK(_Loc._Parent->_Left->_Isnil);
; 690  :             _Loc._Parent->_Left = _Newnode;

  00046	89 3a		 mov	 DWORD PTR [edx], edi

; 691  :             if (_Loc._Parent == _Head->_Left) { // remember leftmost node

  00048	3b 10		 cmp	 edx, DWORD PTR [eax]
  0004a	75 02		 jne	 SHORT $LN9@Insert_nod

; 692  :                 _Head->_Left = _Newnode;

  0004c	89 38		 mov	 DWORD PTR [eax], edi
$LN9@Insert_nod:

; 693  :             }
; 694  :         }
; 695  : 
; 696  :         for (_Nodeptr _Pnode = _Newnode; _Pnode->_Parent->_Color == _Red;) {

  0004e	8b 4f 04	 mov	 ecx, DWORD PTR [edi+4]
  00051	8b c7		 mov	 eax, edi
  00053	80 79 0c 00	 cmp	 BYTE PTR [ecx+12], 0
  00057	0f 85 7d 01 00
	00		 jne	 $LN3@Insert_nod
  0005d	56		 push	 esi
  0005e	66 90		 npad	 2
$LL4@Insert_nod:

; 697  :             if (_Pnode->_Parent == _Pnode->_Parent->_Parent->_Left) { // fixup red-red in left subtree

  00060	8b 50 04	 mov	 edx, DWORD PTR [eax+4]
  00063	8b 72 04	 mov	 esi, DWORD PTR [edx+4]
  00066	8b 0e		 mov	 ecx, DWORD PTR [esi]
  00068	3b d1		 cmp	 edx, ecx
  0006a	0f 85 aa 00 00
	00		 jne	 $LN10@Insert_nod

; 698  :                 const auto _Parent_sibling = _Pnode->_Parent->_Parent->_Right;

  00070	8b 4e 08	 mov	 ecx, DWORD PTR [esi+8]

; 699  :                 if (_Parent_sibling->_Color == _Red) { // parent's sibling has two red children, blacken both

  00073	80 79 0c 00	 cmp	 BYTE PTR [ecx+12], 0
  00077	0f 84 a3 00 00
	00		 je	 $LN82@Insert_nod

; 700  :                     _Pnode->_Parent->_Color          = _Black;
; 701  :                     _Parent_sibling->_Color          = _Black;
; 702  :                     _Pnode->_Parent->_Parent->_Color = _Red;
; 703  :                     _Pnode                           = _Pnode->_Parent->_Parent;
; 704  :                 } else { // parent's sibling has red and black children
; 705  :                     if (_Pnode == _Pnode->_Parent->_Right) { // rotate right child to left

  0007d	8b 72 08	 mov	 esi, DWORD PTR [edx+8]
  00080	3b c6		 cmp	 eax, esi
  00082	75 37		 jne	 SHORT $LN57@Insert_nod

; 485  :         _Wherenode->_Right = _Pnode->_Left;

  00084	8b 0e		 mov	 ecx, DWORD PTR [esi]

; 706  :                         _Pnode = _Pnode->_Parent;

  00086	8b c2		 mov	 eax, edx

; 485  :         _Wherenode->_Right = _Pnode->_Left;

  00088	89 4a 08	 mov	 DWORD PTR [edx+8], ecx

; 486  : 
; 487  :         if (!_Pnode->_Left->_Isnil) {

  0008b	8b 0e		 mov	 ecx, DWORD PTR [esi]
  0008d	80 79 0d 00	 cmp	 BYTE PTR [ecx+13], 0
  00091	75 03		 jne	 SHORT $LN21@Insert_nod

; 488  :             _Pnode->_Left->_Parent = _Wherenode;

  00093	89 41 04	 mov	 DWORD PTR [ecx+4], eax
$LN21@Insert_nod:

; 489  :         }
; 490  : 
; 491  :         _Pnode->_Parent = _Wherenode->_Parent;

  00096	8b 4a 04	 mov	 ecx, DWORD PTR [edx+4]
  00099	89 4e 04	 mov	 DWORD PTR [esi+4], ecx

; 492  : 
; 493  :         if (_Wherenode == _Myhead->_Parent) {

  0009c	8b 0b		 mov	 ecx, DWORD PTR [ebx]
  0009e	3b 41 04	 cmp	 eax, DWORD PTR [ecx+4]
  000a1	75 05		 jne	 SHORT $LN22@Insert_nod

; 494  :             _Myhead->_Parent = _Pnode;

  000a3	89 71 04	 mov	 DWORD PTR [ecx+4], esi
  000a6	eb 0e		 jmp	 SHORT $LN25@Insert_nod
$LN22@Insert_nod:

; 495  :         } else if (_Wherenode == _Wherenode->_Parent->_Left) {

  000a8	8b 4a 04	 mov	 ecx, DWORD PTR [edx+4]
  000ab	3b 01		 cmp	 eax, DWORD PTR [ecx]
  000ad	75 04		 jne	 SHORT $LN24@Insert_nod

; 496  :             _Wherenode->_Parent->_Left = _Pnode;

  000af	89 31		 mov	 DWORD PTR [ecx], esi

; 497  :         } else {

  000b1	eb 03		 jmp	 SHORT $LN25@Insert_nod
$LN24@Insert_nod:

; 498  :             _Wherenode->_Parent->_Right = _Pnode;

  000b3	89 71 08	 mov	 DWORD PTR [ecx+8], esi
$LN25@Insert_nod:

; 499  :         }
; 500  : 
; 501  :         _Pnode->_Left       = _Wherenode;

  000b6	89 06		 mov	 DWORD PTR [esi], eax

; 502  :         _Wherenode->_Parent = _Pnode;

  000b8	89 70 04	 mov	 DWORD PTR [eax+4], esi
$LN57@Insert_nod:

; 707  :                         _Lrotate(_Pnode);
; 708  :                     }
; 709  : 
; 710  :                     _Pnode->_Parent->_Color          = _Black; // propagate red up

  000bb	8b 48 04	 mov	 ecx, DWORD PTR [eax+4]
  000be	c6 41 0c 01	 mov	 BYTE PTR [ecx+12], 1

; 711  :                     _Pnode->_Parent->_Parent->_Color = _Red;

  000c2	8b 48 04	 mov	 ecx, DWORD PTR [eax+4]
  000c5	8b 49 04	 mov	 ecx, DWORD PTR [ecx+4]
  000c8	c6 41 0c 00	 mov	 BYTE PTR [ecx+12], 0

; 712  :                     _Rrotate(_Pnode->_Parent->_Parent);

  000cc	8b 48 04	 mov	 ecx, DWORD PTR [eax+4]
  000cf	8b 51 04	 mov	 edx, DWORD PTR [ecx+4]

; 506  :         _Nodeptr _Pnode   = _Wherenode->_Left;

  000d2	8b 32		 mov	 esi, DWORD PTR [edx]

; 507  :         _Wherenode->_Left = _Pnode->_Right;

  000d4	8b 4e 08	 mov	 ecx, DWORD PTR [esi+8]
  000d7	89 0a		 mov	 DWORD PTR [edx], ecx

; 508  : 
; 509  :         if (!_Pnode->_Right->_Isnil) {

  000d9	8b 4e 08	 mov	 ecx, DWORD PTR [esi+8]
  000dc	80 79 0d 00	 cmp	 BYTE PTR [ecx+13], 0
  000e0	75 03		 jne	 SHORT $LN29@Insert_nod

; 510  :             _Pnode->_Right->_Parent = _Wherenode;

  000e2	89 51 04	 mov	 DWORD PTR [ecx+4], edx
$LN29@Insert_nod:

; 511  :         }
; 512  : 
; 513  :         _Pnode->_Parent = _Wherenode->_Parent;

  000e5	8b 4a 04	 mov	 ecx, DWORD PTR [edx+4]
  000e8	89 4e 04	 mov	 DWORD PTR [esi+4], ecx

; 514  : 
; 515  :         if (_Wherenode == _Myhead->_Parent) {

  000eb	8b 0b		 mov	 ecx, DWORD PTR [ebx]
  000ed	3b 51 04	 cmp	 edx, DWORD PTR [ecx+4]
  000f0	75 0b		 jne	 SHORT $LN30@Insert_nod

; 516  :             _Myhead->_Parent = _Pnode;

  000f2	89 71 04	 mov	 DWORD PTR [ecx+4], esi

; 521  :         }
; 522  : 
; 523  :         _Pnode->_Right      = _Wherenode;

  000f5	89 56 08	 mov	 DWORD PTR [esi+8], edx

; 713  :                 }
; 714  :             } else { // fixup red-red in right subtree

  000f8	e9 cc 00 00 00	 jmp	 $LN81@Insert_nod
$LN30@Insert_nod:

; 517  :         } else if (_Wherenode == _Wherenode->_Parent->_Right) {

  000fd	8b 4a 04	 mov	 ecx, DWORD PTR [edx+4]
  00100	3b 51 08	 cmp	 edx, DWORD PTR [ecx+8]
  00103	75 0b		 jne	 SHORT $LN32@Insert_nod

; 518  :             _Wherenode->_Parent->_Right = _Pnode;

  00105	89 71 08	 mov	 DWORD PTR [ecx+8], esi

; 521  :         }
; 522  : 
; 523  :         _Pnode->_Right      = _Wherenode;

  00108	89 56 08	 mov	 DWORD PTR [esi+8], edx

; 713  :                 }
; 714  :             } else { // fixup red-red in right subtree

  0010b	e9 b9 00 00 00	 jmp	 $LN81@Insert_nod
$LN32@Insert_nod:

; 520  :             _Wherenode->_Parent->_Left = _Pnode;

  00110	89 31		 mov	 DWORD PTR [ecx], esi

; 521  :         }
; 522  : 
; 523  :         _Pnode->_Right      = _Wherenode;

  00112	89 56 08	 mov	 DWORD PTR [esi+8], edx

; 713  :                 }
; 714  :             } else { // fixup red-red in right subtree

  00115	e9 af 00 00 00	 jmp	 $LN81@Insert_nod
$LN10@Insert_nod:

; 715  :                 const auto _Parent_sibling = _Pnode->_Parent->_Parent->_Left;
; 716  :                 if (_Parent_sibling->_Color == _Red) { // parent's sibling has two red children, blacken both

  0011a	80 79 0c 00	 cmp	 BYTE PTR [ecx+12], 0
  0011e	75 1d		 jne	 SHORT $LN15@Insert_nod
$LN82@Insert_nod:

; 693  :             }
; 694  :         }
; 695  : 
; 696  :         for (_Nodeptr _Pnode = _Newnode; _Pnode->_Parent->_Color == _Red;) {

  00120	c6 42 0c 01	 mov	 BYTE PTR [edx+12], 1
  00124	c6 41 0c 01	 mov	 BYTE PTR [ecx+12], 1
  00128	8b 48 04	 mov	 ecx, DWORD PTR [eax+4]
  0012b	8b 49 04	 mov	 ecx, DWORD PTR [ecx+4]
  0012e	c6 41 0c 00	 mov	 BYTE PTR [ecx+12], 0
  00132	8b 48 04	 mov	 ecx, DWORD PTR [eax+4]
  00135	8b 41 04	 mov	 eax, DWORD PTR [ecx+4]
  00138	e9 8f 00 00 00	 jmp	 $LN2@Insert_nod
$LN15@Insert_nod:

; 717  :                     _Pnode->_Parent->_Color          = _Black;
; 718  :                     _Parent_sibling->_Color          = _Black;
; 719  :                     _Pnode->_Parent->_Parent->_Color = _Red;
; 720  :                     _Pnode                           = _Pnode->_Parent->_Parent;
; 721  :                 } else { // parent's sibling has red and black children
; 722  :                     if (_Pnode == _Pnode->_Parent->_Left) { // rotate left child to right

  0013d	8b 32		 mov	 esi, DWORD PTR [edx]
  0013f	3b c6		 cmp	 eax, esi
  00141	75 3a		 jne	 SHORT $LN42@Insert_nod

; 507  :         _Wherenode->_Left = _Pnode->_Right;

  00143	8b 4e 08	 mov	 ecx, DWORD PTR [esi+8]

; 723  :                         _Pnode = _Pnode->_Parent;

  00146	8b c2		 mov	 eax, edx

; 507  :         _Wherenode->_Left = _Pnode->_Right;

  00148	89 08		 mov	 DWORD PTR [eax], ecx

; 508  : 
; 509  :         if (!_Pnode->_Right->_Isnil) {

  0014a	8b 4e 08	 mov	 ecx, DWORD PTR [esi+8]
  0014d	80 79 0d 00	 cmp	 BYTE PTR [ecx+13], 0
  00151	75 03		 jne	 SHORT $LN37@Insert_nod

; 510  :             _Pnode->_Right->_Parent = _Wherenode;

  00153	89 41 04	 mov	 DWORD PTR [ecx+4], eax
$LN37@Insert_nod:

; 511  :         }
; 512  : 
; 513  :         _Pnode->_Parent = _Wherenode->_Parent;

  00156	8b 4a 04	 mov	 ecx, DWORD PTR [edx+4]
  00159	89 4e 04	 mov	 DWORD PTR [esi+4], ecx

; 514  : 
; 515  :         if (_Wherenode == _Myhead->_Parent) {

  0015c	8b 0b		 mov	 ecx, DWORD PTR [ebx]
  0015e	3b 41 04	 cmp	 eax, DWORD PTR [ecx+4]
  00161	75 05		 jne	 SHORT $LN38@Insert_nod

; 516  :             _Myhead->_Parent = _Pnode;

  00163	89 71 04	 mov	 DWORD PTR [ecx+4], esi
  00166	eb 0f		 jmp	 SHORT $LN41@Insert_nod
$LN38@Insert_nod:

; 517  :         } else if (_Wherenode == _Wherenode->_Parent->_Right) {

  00168	8b 4a 04	 mov	 ecx, DWORD PTR [edx+4]
  0016b	3b 41 08	 cmp	 eax, DWORD PTR [ecx+8]
  0016e	75 05		 jne	 SHORT $LN40@Insert_nod

; 518  :             _Wherenode->_Parent->_Right = _Pnode;

  00170	89 71 08	 mov	 DWORD PTR [ecx+8], esi

; 519  :         } else {

  00173	eb 02		 jmp	 SHORT $LN41@Insert_nod
$LN40@Insert_nod:

; 520  :             _Wherenode->_Parent->_Left = _Pnode;

  00175	89 31		 mov	 DWORD PTR [ecx], esi
$LN41@Insert_nod:

; 521  :         }
; 522  : 
; 523  :         _Pnode->_Right      = _Wherenode;

  00177	89 46 08	 mov	 DWORD PTR [esi+8], eax

; 524  :         _Wherenode->_Parent = _Pnode;

  0017a	89 70 04	 mov	 DWORD PTR [eax+4], esi
$LN42@Insert_nod:

; 724  :                         _Rrotate(_Pnode);
; 725  :                     }
; 726  : 
; 727  :                     _Pnode->_Parent->_Color          = _Black; // propagate red up

  0017d	8b 48 04	 mov	 ecx, DWORD PTR [eax+4]
  00180	c6 41 0c 01	 mov	 BYTE PTR [ecx+12], 1

; 728  :                     _Pnode->_Parent->_Parent->_Color = _Red;

  00184	8b 48 04	 mov	 ecx, DWORD PTR [eax+4]
  00187	8b 49 04	 mov	 ecx, DWORD PTR [ecx+4]
  0018a	c6 41 0c 00	 mov	 BYTE PTR [ecx+12], 0

; 729  :                     _Lrotate(_Pnode->_Parent->_Parent);

  0018e	8b 48 04	 mov	 ecx, DWORD PTR [eax+4]
  00191	8b 51 04	 mov	 edx, DWORD PTR [ecx+4]

; 484  :         _Nodeptr _Pnode    = _Wherenode->_Right;

  00194	8b 72 08	 mov	 esi, DWORD PTR [edx+8]

; 485  :         _Wherenode->_Right = _Pnode->_Left;

  00197	8b 0e		 mov	 ecx, DWORD PTR [esi]
  00199	89 4a 08	 mov	 DWORD PTR [edx+8], ecx

; 486  : 
; 487  :         if (!_Pnode->_Left->_Isnil) {

  0019c	8b 0e		 mov	 ecx, DWORD PTR [esi]
  0019e	80 79 0d 00	 cmp	 BYTE PTR [ecx+13], 0
  001a2	75 03		 jne	 SHORT $LN45@Insert_nod

; 488  :             _Pnode->_Left->_Parent = _Wherenode;

  001a4	89 51 04	 mov	 DWORD PTR [ecx+4], edx
$LN45@Insert_nod:

; 489  :         }
; 490  : 
; 491  :         _Pnode->_Parent = _Wherenode->_Parent;

  001a7	8b 4a 04	 mov	 ecx, DWORD PTR [edx+4]
  001aa	89 4e 04	 mov	 DWORD PTR [esi+4], ecx

; 492  : 
; 493  :         if (_Wherenode == _Myhead->_Parent) {

  001ad	8b 0b		 mov	 ecx, DWORD PTR [ebx]
  001af	3b 51 04	 cmp	 edx, DWORD PTR [ecx+4]
  001b2	75 05		 jne	 SHORT $LN46@Insert_nod

; 494  :             _Myhead->_Parent = _Pnode;

  001b4	89 71 04	 mov	 DWORD PTR [ecx+4], esi
  001b7	eb 0e		 jmp	 SHORT $LN49@Insert_nod
$LN46@Insert_nod:

; 495  :         } else if (_Wherenode == _Wherenode->_Parent->_Left) {

  001b9	8b 4a 04	 mov	 ecx, DWORD PTR [edx+4]
  001bc	3b 11		 cmp	 edx, DWORD PTR [ecx]
  001be	75 04		 jne	 SHORT $LN48@Insert_nod

; 496  :             _Wherenode->_Parent->_Left = _Pnode;

  001c0	89 31		 mov	 DWORD PTR [ecx], esi

; 497  :         } else {

  001c2	eb 03		 jmp	 SHORT $LN49@Insert_nod
$LN48@Insert_nod:

; 498  :             _Wherenode->_Parent->_Right = _Pnode;

  001c4	89 71 08	 mov	 DWORD PTR [ecx+8], esi
$LN49@Insert_nod:

; 499  :         }
; 500  : 
; 501  :         _Pnode->_Left       = _Wherenode;

  001c7	89 16		 mov	 DWORD PTR [esi], edx
$LN81@Insert_nod:

; 693  :             }
; 694  :         }
; 695  : 
; 696  :         for (_Nodeptr _Pnode = _Newnode; _Pnode->_Parent->_Color == _Red;) {

  001c9	89 72 04	 mov	 DWORD PTR [edx+4], esi
$LN2@Insert_nod:
  001cc	8b 48 04	 mov	 ecx, DWORD PTR [eax+4]
  001cf	80 79 0c 00	 cmp	 BYTE PTR [ecx+12], 0
  001d3	0f 84 87 fe ff
	ff		 je	 $LL4@Insert_nod
  001d9	5e		 pop	 esi
$LN3@Insert_nod:

; 730  :                 }
; 731  :             }
; 732  :         }
; 733  : 
; 734  :         _Head->_Parent->_Color = _Black; // root is always black

  001da	8b 45 fc	 mov	 eax, DWORD PTR __Head$1$[ebp]
  001dd	8b 40 04	 mov	 eax, DWORD PTR [eax+4]
  001e0	c6 40 0c 01	 mov	 BYTE PTR [eax+12], 1

; 735  :         return _Newnode;
; 736  :     }

  001e4	8b c7		 mov	 eax, edi
  001e6	5f		 pop	 edi
  001e7	5b		 pop	 ebx
  001e8	8b e5		 mov	 esp, ebp
  001ea	5d		 pop	 ebp
  001eb	c2 0c 00	 ret	 12			; 0000000cH
?_Insert_node@?$_Tree_val@U?$_Tree_simple_types@U?$pair@$$CBV?$basic_string@DU?$char_traits@D@std@@V?$allocator@D@2@@std@@V12@@std@@@std@@@std@@QAEPAU?$_Tree_node@U?$pair@$$CBV?$basic_string@DU?$char_traits@D@std@@V?$allocator@D@2@@std@@V12@@std@@PAX@2@U?$_Tree_id@PAU?$_Tree_node@U?$pair@$$CBV?$basic_string@DU?$char_traits@D@std@@V?$allocator@D@2@@std@@V12@@std@@PAX@std@@@2@QAU32@@Z ENDP ; std::_Tree_val<std::_Tree_simple_types<std::pair<std::basic_string<char,std::char_traits<char>,std::allocator<char> > const ,std::basic_string<char,std::char_traits<char>,std::allocator<char> > > > >::_Insert_node
_TEXT	ENDS
; Function compile flags: /Ogtp
; File C:\IAGOS\server\v18\Source\Source\_Common\worldmng.cpp
; File C:\IAGOS\server\v18\Source\Source\_Common\File.h
; File C:\IAGOS\server\v18\Source\Source\_Common\worldmng.cpp
; File C:\IAGOS\server\v18\Source\Source\_Common\File.h
; File C:\IAGOS\server\v18\Source\Source\_Common\worldmng.cpp
; File C:\IAGOS\server\v18\Source\Source\_Common\File.h
; File C:\IAGOS\server\v18\Source\Source\_Common\worldmng.cpp
; File C:\IAGOS\server\v18\Source\Source\_Common\File.h
; File C:\IAGOS\server\v18\Source\Source\_Common\worldmng.cpp
; File C:\IAGOS\server\v18\Source\Source\_Common\File.h
; File C:\IAGOS\server\v18\Source\Source\_Common\worldmng.cpp
; File C:\IAGOS\server\v18\Source\Source\_Common\File.h
; File C:\IAGOS\server\v18\Source\Source\_Common\worldmng.cpp
; File C:\IAGOS\server\v18\Source\Source\_Common\File.h
; File C:\IAGOS\server\v18\Source\Source\_Common\worldmng.cpp
; File C:\Program Files\Microsoft Visual Studio\2022\Professional\VC\Tools\MSVC\14.44.35207\include\utility
; File C:\IAGOS\server\v18\Source\Source\_Common\worldmng.cpp
; File C:\Program Files\Microsoft Visual Studio\2022\Professional\VC\Tools\MSVC\14.44.35207\include\xtree
; File C:\IAGOS\server\v18\Source\Source\_Common\worldmng.cpp
; File C:\Program Files\Microsoft Visual Studio\2022\Professional\VC\Tools\MSVC\14.44.35207\include\xtree
; File C:\IAGOS\server\v18\Source\Source\_Common\worldmng.cpp
; File C:\Program Files\Microsoft Visual Studio\2022\Professional\VC\Tools\MSVC\14.44.35207\include\xtree
; File C:\IAGOS\server\v18\Source\Source\_Common\worldmng.cpp
; File C:\IAGOS\server\v18\Source\Source\_Common\File.h
; File C:\IAGOS\server\v18\Source\Source\_Common\worldmng.cpp
;	COMDAT ?SetMapCheck@CWorldMng@@AAEHPBD@Z
_TEXT	SEGMENT
__Result$2 = -184					; size = 8
_szFileName$GSCopy$1$ = -180				; size = 4
_this$GSCopy$1$ = -176					; size = 4
_file$ = -172						; size = 8
_dwData$1$ = -164					; size = 4
_dwTotal$1$ = -160					; size = 4
_nSize$1$ = -156					; size = 4
tv471 = -156						; size = 4
tv481 = -156						; size = 4
$T3 = -152						; size = 48
_szOut$4 = -104						; size = 33
_szFileNameOut$5 = -68					; size = 33
_szIn$6 = -32						; size = 16
__$ArrayPad$ = -16					; size = 4
__$EHRec$ = -12						; size = 12
_szFileName$ = 8					; size = 4
?SetMapCheck@CWorldMng@@AAEHPBD@Z PROC			; CWorldMng::SetMapCheck, COMDAT
; _this$ = ecx

; 714  : {

  00000	55		 push	 ebp
  00001	8b ec		 mov	 ebp, esp
  00003	6a ff		 push	 -1
  00005	68 00 00 00 00	 push	 __ehhandler$?SetMapCheck@CWorldMng@@AAEHPBD@Z
  0000a	64 a1 00 00 00
	00		 mov	 eax, DWORD PTR fs:0
  00010	50		 push	 eax
  00011	81 ec ac 00 00
	00		 sub	 esp, 172		; 000000acH
  00017	a1 00 00 00 00	 mov	 eax, DWORD PTR ___security_cookie
  0001c	33 c5		 xor	 eax, ebp
  0001e	89 45 f0	 mov	 DWORD PTR __$ArrayPad$[ebp], eax
  00021	56		 push	 esi
  00022	57		 push	 edi
  00023	50		 push	 eax
  00024	8d 45 f4	 lea	 eax, DWORD PTR __$EHRec$[ebp]
  00027	64 a3 00 00 00
	00		 mov	 DWORD PTR fs:0, eax
  0002d	89 8d 50 ff ff
	ff		 mov	 DWORD PTR _this$GSCopy$1$[ebp], ecx
  00033	8b 45 08	 mov	 eax, DWORD PTR _szFileName$[ebp]
  00036	89 85 4c ff ff
	ff		 mov	 DWORD PTR _szFileName$GSCopy$1$[ebp], eax
; File C:\IAGOS\server\v18\Source\Source\_Common\File.h

; 15   : 	CFileIO() { fp = NULL; } 

  0003c	c7 85 54 ff ff
	ff 00 00 00 00	 mov	 DWORD PTR _file$[ebp], OFFSET ??_7CFileIO@@6B@
  00046	c7 85 58 ff ff
	ff 00 00 00 00	 mov	 DWORD PTR _file$[ebp+4], 0
; File C:\IAGOS\server\v18\Source\Source\_Common\worldmng.cpp

; 716  : 	if( file.Open( szFileName, "rb" ) )

  00050	68 00 00 00 00	 push	 OFFSET ??_C@_02JDPG@rb@
  00055	50		 push	 eax
  00056	8d 8d 54 ff ff
	ff		 lea	 ecx, DWORD PTR _file$[ebp]
  0005c	c7 45 fc 00 00
	00 00		 mov	 DWORD PTR __$EHRec$[ebp+8], 0
  00063	e8 00 00 00 00	 call	 ?Open@CFileIO@@UAEHPBDPAD@Z ; CFileIO::Open
  00068	85 c0		 test	 eax, eax
  0006a	0f 84 d5 01 00
	00		 je	 $LN5@SetMapChec
; File C:\IAGOS\server\v18\Source\Source\_Common\File.h

; 30   : 	int  Handle() { return fileno( fp ); }

  00070	ff b5 58 ff ff
	ff		 push	 DWORD PTR _file$[ebp+4]
  00076	e8 00 00 00 00	 call	 _fileno

; 26   : 	virtual long GetLength() { return _filelength( Handle() ); }

  0007b	50		 push	 eax
  0007c	e8 00 00 00 00	 call	 __filelength
; File C:\IAGOS\server\v18\Source\Source\_Common\worldmng.cpp

; 718  : 		size_t nSize = file.GetLength() / sizeof( DWORD );

  00081	8b f0		 mov	 esi, eax

; 719  : 		DWORD dwTotal = 0;

  00083	c7 85 60 ff ff
	ff 00 00 00 00	 mov	 DWORD PTR _dwTotal$1$[ebp], 0
  0008d	c1 ee 02	 shr	 esi, 2

; 720  : 		DWORD* dwData = new DWORD[nSize];

  00090	b9 04 00 00 00	 mov	 ecx, 4
  00095	8b c6		 mov	 eax, esi
  00097	89 b5 64 ff ff
	ff		 mov	 DWORD PTR _nSize$1$[ebp], esi
  0009d	f7 e1		 mul	 ecx
  0009f	b9 ff ff ff ff	 mov	 ecx, -1
  000a4	0f 42 c1	 cmovb	 eax, ecx
  000a7	50		 push	 eax
  000a8	e8 00 00 00 00	 call	 ??_U@YAPAXI@Z		; operator new[]
; File C:\IAGOS\server\v18\Source\Source\_Common\File.h

; 27   : 	virtual size_t Read( void *ptr, size_t size, size_t n = 1 )	{ return fread( ptr, size, n, fp ); }

  000ad	ff b5 58 ff ff
	ff		 push	 DWORD PTR _file$[ebp+4]
; File C:\IAGOS\server\v18\Source\Source\_Common\worldmng.cpp

; 720  : 		DWORD* dwData = new DWORD[nSize];

  000b3	8b f8		 mov	 edi, eax
; File C:\IAGOS\server\v18\Source\Source\_Common\File.h

; 27   : 	virtual size_t Read( void *ptr, size_t size, size_t n = 1 )	{ return fread( ptr, size, n, fp ); }

  000b5	56		 push	 esi
  000b6	6a 04		 push	 4
  000b8	57		 push	 edi
; File C:\IAGOS\server\v18\Source\Source\_Common\worldmng.cpp

; 720  : 		DWORD* dwData = new DWORD[nSize];

  000b9	89 bd 5c ff ff
	ff		 mov	 DWORD PTR _dwData$1$[ebp], edi
; File C:\IAGOS\server\v18\Source\Source\_Common\File.h

; 27   : 	virtual size_t Read( void *ptr, size_t size, size_t n = 1 )	{ return fread( ptr, size, n, fp ); }

  000bf	e8 00 00 00 00	 call	 _fread
  000c4	83 c4 1c	 add	 esp, 28			; 0000001cH
; File C:\IAGOS\server\v18\Source\Source\_Common\worldmng.cpp

; 722  : 		file.Close();

  000c7	8d 8d 54 ff ff
	ff		 lea	 ecx, DWORD PTR _file$[ebp]
  000cd	e8 00 00 00 00	 call	 ?Close@CFileIO@@UAEHXZ	; CFileIO::Close
; File C:\IAGOS\server\v18\Source\Source\_Common\File.h

; 30   : 	int  Handle() { return fileno( fp ); }

  000d2	33 c0		 xor	 eax, eax
; File C:\IAGOS\server\v18\Source\Source\_Common\worldmng.cpp

; 723  : 		for( size_t i=0; i<nSize; i++ )

  000d4	85 f6		 test	 esi, esi
  000d6	74 54		 je	 SHORT $LN54@SetMapChec
  000d8	83 fe 08	 cmp	 esi, 8
  000db	72 4f		 jb	 SHORT $LN54@SetMapChec

; 724  : 			dwTotal += dwData[i];

  000dd	83 e6 f8	 and	 esi, -8			; fffffff8H
  000e0	0f 57 c9	 xorps	 xmm1, xmm1
  000e3	0f 57 d2	 xorps	 xmm2, xmm2
  000e6	66 66 0f 1f 84
	00 00 00 00 00	 npad	 10
$LL4@SetMapChec:
  000f0	0f 10 04 87	 movups	 xmm0, XMMWORD PTR [edi+eax*4]
  000f4	66 0f fe c8	 paddd	 xmm1, xmm0
  000f8	0f 10 44 87 10	 movups	 xmm0, XMMWORD PTR [edi+eax*4+16]
  000fd	83 c0 08	 add	 eax, 8
  00100	66 0f fe d0	 paddd	 xmm2, xmm0
  00104	3b c6		 cmp	 eax, esi
  00106	72 e8		 jb	 SHORT $LL4@SetMapChec
; File C:\IAGOS\server\v18\Source\Source\_Common\File.h

; 30   : 	int  Handle() { return fileno( fp ); }

  00108	66 0f fe ca	 paddd	 xmm1, xmm2
  0010c	0f 28 c1	 movaps	 xmm0, xmm1
  0010f	66 0f 73 d8 08	 psrldq	 xmm0, 8
  00114	66 0f fe c8	 paddd	 xmm1, xmm0
  00118	0f 10 c1	 movups	 xmm0, xmm1
  0011b	66 0f 73 d8 04	 psrldq	 xmm0, 4
  00120	66 0f fe c8	 paddd	 xmm1, xmm0
  00124	66 0f 7e 8d 60
	ff ff ff	 movd	 DWORD PTR _dwTotal$1$[ebp], xmm1
$LN54@SetMapChec:
; File C:\IAGOS\server\v18\Source\Source\_Common\worldmng.cpp

; 723  : 		for( size_t i=0; i<nSize; i++ )

  0012c	8b 8d 64 ff ff
	ff		 mov	 ecx, DWORD PTR _nSize$1$[ebp]
  00132	33 d2		 xor	 edx, edx
  00134	33 f6		 xor	 esi, esi
  00136	3b c1		 cmp	 eax, ecx
  00138	73 54		 jae	 SHORT $LN58@SetMapChec
  0013a	2b c8		 sub	 ecx, eax
  0013c	83 f9 02	 cmp	 ecx, 2
  0013f	72 31		 jb	 SHORT $LN64@SetMapChec
  00141	8b 8d 64 ff ff
	ff		 mov	 ecx, DWORD PTR _nSize$1$[ebp]
  00147	8d 79 ff	 lea	 edi, DWORD PTR [ecx-1]
  0014a	89 bd 64 ff ff
	ff		 mov	 DWORD PTR tv481[ebp], edi
  00150	8b bd 5c ff ff
	ff		 mov	 edi, DWORD PTR _dwData$1$[ebp]
$LL61@SetMapChec:

; 724  : 			dwTotal += dwData[i];

  00156	03 14 87	 add	 edx, DWORD PTR [edi+eax*4]
  00159	03 74 87 04	 add	 esi, DWORD PTR [edi+eax*4+4]
  0015d	83 c0 02	 add	 eax, 2
  00160	3b 85 64 ff ff
	ff		 cmp	 eax, DWORD PTR tv481[ebp]
  00166	72 ee		 jb	 SHORT $LL61@SetMapChec
  00168	89 85 64 ff ff
	ff		 mov	 DWORD PTR tv471[ebp], eax
  0016e	3b c1		 cmp	 eax, ecx
  00170	73 0b		 jae	 SHORT $LN65@SetMapChec
$LN64@SetMapChec:
  00172	8b 8d 60 ff ff
	ff		 mov	 ecx, DWORD PTR _dwTotal$1$[ebp]
  00178	03 0c 87	 add	 ecx, DWORD PTR [edi+eax*4]
  0017b	eb 06		 jmp	 SHORT $LN60@SetMapChec
$LN65@SetMapChec:

; 723  : 		for( size_t i=0; i<nSize; i++ )

  0017d	8b 8d 60 ff ff
	ff		 mov	 ecx, DWORD PTR _dwTotal$1$[ebp]
$LN60@SetMapChec:
  00183	8d 04 16	 lea	 eax, DWORD PTR [esi+edx]
  00186	03 c8		 add	 ecx, eax
  00188	89 8d 60 ff ff
	ff		 mov	 DWORD PTR _dwTotal$1$[ebp], ecx
$LN58@SetMapChec:

; 725  : 		delete [] dwData;

  0018e	57		 push	 edi
  0018f	e8 00 00 00 00	 call	 ??_V@YAXPAX@Z		; operator delete[]

; 726  : 
; 727  : 		char szFileNameOut[33] = {0,};
; 728  : 		md5( szFileNameOut, szFileName );

  00194	ff b5 4c ff ff
	ff		 push	 DWORD PTR _szFileName$GSCopy$1$[ebp]
  0019a	0f 57 c0	 xorps	 xmm0, xmm0
  0019d	c6 45 dc 00	 mov	 BYTE PTR _szFileNameOut$5[ebp+32], 0
  001a1	8d 45 bc	 lea	 eax, DWORD PTR _szFileNameOut$5[ebp]
  001a4	50		 push	 eax
  001a5	0f 11 45 bc	 movups	 XMMWORD PTR _szFileNameOut$5[ebp], xmm0
  001a9	0f 11 45 cc	 movups	 XMMWORD PTR _szFileNameOut$5[ebp+16], xmm0
  001ad	e8 00 00 00 00	 call	 ?md5@@YAXPADPBD@Z	; md5

; 729  : 
; 730  : 		char szIn[16] = {0,}, szOut[33] = {0,};
; 731  : 		sprintf( szIn, "%u", dwTotal );

  001b2	ff b5 60 ff ff
	ff		 push	 DWORD PTR _dwTotal$1$[ebp]
  001b8	0f 57 c0	 xorps	 xmm0, xmm0
  001bb	c6 45 b8 00	 mov	 BYTE PTR _szOut$4[ebp+32], 0
  001bf	8d 45 e0	 lea	 eax, DWORD PTR _szIn$6[ebp]
  001c2	68 00 00 00 00	 push	 OFFSET ??_C@_02GMHACPFF@?$CFu@
  001c7	50		 push	 eax
  001c8	0f 11 45 e0	 movups	 XMMWORD PTR _szIn$6[ebp], xmm0
  001cc	0f 11 45 98	 movups	 XMMWORD PTR _szOut$4[ebp], xmm0
  001d0	0f 11 45 a8	 movups	 XMMWORD PTR _szOut$4[ebp+16], xmm0
  001d4	e8 00 00 00 00	 call	 _sprintf

; 732  : 		md5( szOut, szIn );

  001d9	8d 45 e0	 lea	 eax, DWORD PTR _szIn$6[ebp]
  001dc	50		 push	 eax
  001dd	8d 45 98	 lea	 eax, DWORD PTR _szOut$4[ebp]
  001e0	50		 push	 eax
  001e1	e8 00 00 00 00	 call	 ?md5@@YAXPADPBD@Z	; md5
  001e6	83 c4 20	 add	 esp, 32			; 00000020H
; File C:\Program Files\Microsoft Visual Studio\2022\Professional\VC\Tools\MSVC\14.44.35207\include\utility

; 274  :         : first(_STD forward<_Other1>(_Val1)), second(_STD forward<_Other2>(_Val2)) {

  001e9	8d 45 bc	 lea	 eax, DWORD PTR _szFileNameOut$5[ebp]
  001ec	8d 8d 68 ff ff
	ff		 lea	 ecx, DWORD PTR $T3[ebp]
  001f2	50		 push	 eax
  001f3	e8 00 00 00 00	 call	 ??0?$basic_string@DU?$char_traits@D@std@@V?$allocator@D@2@@std@@QAE@QBD@Z ; std::basic_string<char,std::char_traits<char>,std::allocator<char> >::basic_string<char,std::char_traits<char>,std::allocator<char> >
  001f8	8d 45 98	 lea	 eax, DWORD PTR _szOut$4[ebp]
  001fb	c6 45 fc 01	 mov	 BYTE PTR __$EHRec$[ebp+8], 1
  001ff	50		 push	 eax
  00200	8d 4d 80	 lea	 ecx, DWORD PTR $T3[ebp+24]
  00203	e8 00 00 00 00	 call	 ??0?$basic_string@DU?$char_traits@D@std@@V?$allocator@D@2@@std@@QAE@QBD@Z ; std::basic_string<char,std::char_traits<char>,std::allocator<char> >::basic_string<char,std::char_traits<char>,std::allocator<char> >
; File C:\IAGOS\server\v18\Source\Source\_Common\worldmng.cpp

; 735  : 		m_mapMapKey.insert( map<string, string>::value_type( szFileNameOut, szOut ) );

  00208	8b 8d 50 ff ff
	ff		 mov	 ecx, DWORD PTR _this$GSCopy$1$[ebp]
; File C:\Program Files\Microsoft Visual Studio\2022\Professional\VC\Tools\MSVC\14.44.35207\include\xtree

; 1246 :         const auto _Result = _Emplace(_STD move(_Val));

  0020e	8d 85 68 ff ff
	ff		 lea	 eax, DWORD PTR $T3[ebp]
  00214	50		 push	 eax
  00215	8d 85 48 ff ff
	ff		 lea	 eax, DWORD PTR __Result$2[ebp]
; File C:\IAGOS\server\v18\Source\Source\_Common\worldmng.cpp

; 735  : 		m_mapMapKey.insert( map<string, string>::value_type( szFileNameOut, szOut ) );

  0021b	c6 45 fc 02	 mov	 BYTE PTR __$EHRec$[ebp+8], 2
; File C:\Program Files\Microsoft Visual Studio\2022\Professional\VC\Tools\MSVC\14.44.35207\include\xtree

; 1246 :         const auto _Result = _Emplace(_STD move(_Val));

  0021f	50		 push	 eax
; File C:\IAGOS\server\v18\Source\Source\_Common\worldmng.cpp

; 735  : 		m_mapMapKey.insert( map<string, string>::value_type( szFileNameOut, szOut ) );

  00220	81 c1 3c e8 05
	00		 add	 ecx, 387132		; 0005e83cH
; File C:\Program Files\Microsoft Visual Studio\2022\Professional\VC\Tools\MSVC\14.44.35207\include\xtree

; 1246 :         const auto _Result = _Emplace(_STD move(_Val));

  00226	e8 00 00 00 00	 call	 ??$_Emplace@U?$pair@$$CBV?$basic_string@DU?$char_traits@D@std@@V?$allocator@D@2@@std@@V12@@std@@@?$_Tree@V?$_Tmap_traits@V?$basic_string@DU?$char_traits@D@std@@V?$allocator@D@2@@std@@V12@U?$less@V?$basic_string@DU?$char_traits@D@std@@V?$allocator@D@2@@std@@@2@V?$allocator@U?$pair@$$CBV?$basic_string@DU?$char_traits@D@std@@V?$allocator@D@2@@std@@V12@@std@@@2@$0A@@std@@@std@@IAE?AU?$pair@PAU?$_Tree_node@U?$pair@$$CBV?$basic_string@DU?$char_traits@D@std@@V?$allocator@D@2@@std@@V12@@std@@PAX@std@@_N@1@$$QAU?$pair@$$CBV?$basic_string@DU?$char_traits@D@std@@V?$allocator@D@2@@std@@V12@@1@@Z ; std::_Tree<std::_Tmap_traits<std::basic_string<char,std::char_traits<char>,std::allocator<char> >,std::basic_string<char,std::char_traits<char>,std::allocator<char> >,std::less<std::basic_string<char,std::char_traits<char>,std::allocator<char> > >,std::allocator<std::pair<std::basic_string<char,std::char_traits<char>,std::allocator<char> > const ,std::basic_string<char,std::char_traits<char>,std::allocator<char> > > >,0> >::_Emplace<std::pair<std::basic_string<char,std::char_traits<char>,std::allocator<char> > const ,std::basic_string<char,std::char_traits<char>,std::allocator<char> > > >
  0022b	8d 4d 80	 lea	 ecx, DWORD PTR $T3[ebp+24]
  0022e	e8 00 00 00 00	 call	 ??1?$basic_string@DU?$char_traits@D@std@@V?$allocator@D@2@@std@@QAE@XZ ; std::basic_string<char,std::char_traits<char>,std::allocator<char> >::~basic_string<char,std::char_traits<char>,std::allocator<char> >
  00233	8d 8d 68 ff ff
	ff		 lea	 ecx, DWORD PTR $T3[ebp]
  00239	e8 00 00 00 00	 call	 ??1?$basic_string@DU?$char_traits@D@std@@V?$allocator@D@2@@std@@QAE@XZ ; std::basic_string<char,std::char_traits<char>,std::allocator<char> >::~basic_string<char,std::char_traits<char>,std::allocator<char> >
  0023e	be 01 00 00 00	 mov	 esi, 1
  00243	eb 02		 jmp	 SHORT $LN9@SetMapChec
$LN5@SetMapChec:
; File C:\IAGOS\server\v18\Source\Source\_Common\worldmng.cpp

; 744  : 	return FALSE;

  00245	33 f6		 xor	 esi, esi
$LN9@SetMapChec:
; File C:\IAGOS\server\v18\Source\Source\_Common\File.h

; 17   : 	virtual ~CFileIO() { Close(); }

  00247	8d 8d 54 ff ff
	ff		 lea	 ecx, DWORD PTR _file$[ebp]
  0024d	c7 45 fc 04 00
	00 00		 mov	 DWORD PTR __$EHRec$[ebp+8], 4
  00254	c7 85 54 ff ff
	ff 00 00 00 00	 mov	 DWORD PTR _file$[ebp], OFFSET ??_7CFileIO@@6B@
  0025e	e8 00 00 00 00	 call	 ?Close@CFileIO@@UAEHXZ	; CFileIO::Close
; File C:\IAGOS\server\v18\Source\Source\_Common\worldmng.cpp

; 744  : 	return FALSE;

  00263	8b c6		 mov	 eax, esi

; 745  : }

  00265	8b 4d f4	 mov	 ecx, DWORD PTR __$EHRec$[ebp]
  00268	64 89 0d 00 00
	00 00		 mov	 DWORD PTR fs:0, ecx
  0026f	59		 pop	 ecx
  00270	5f		 pop	 edi
  00271	5e		 pop	 esi
  00272	8b 4d f0	 mov	 ecx, DWORD PTR __$ArrayPad$[ebp]
  00275	33 cd		 xor	 ecx, ebp
  00277	e8 00 00 00 00	 call	 @__security_check_cookie@4
  0027c	8b e5		 mov	 esp, ebp
  0027e	5d		 pop	 ebp
  0027f	c2 04 00	 ret	 4
_TEXT	ENDS
;	COMDAT text$x
text$x	SEGMENT
__unwindfunclet$?SetMapCheck@CWorldMng@@AAEHPBD@Z$0:
  00000	8d 8d 54 ff ff
	ff		 lea	 ecx, DWORD PTR _file$[ebp]
  00006	e9 00 00 00 00	 jmp	 ??1CFileIO@@UAE@XZ	; CFileIO::~CFileIO
__unwindfunclet$?SetMapCheck@CWorldMng@@AAEHPBD@Z$2:
  0000b	8d 8d 68 ff ff
	ff		 lea	 ecx, DWORD PTR $T3[ebp]
  00011	e9 00 00 00 00	 jmp	 ??1?$basic_string@DU?$char_traits@D@std@@V?$allocator@D@2@@std@@QAE@XZ ; std::basic_string<char,std::char_traits<char>,std::allocator<char> >::~basic_string<char,std::char_traits<char>,std::allocator<char> >
__unwindfunclet$?SetMapCheck@CWorldMng@@AAEHPBD@Z$1:
  00016	8d 8d 68 ff ff
	ff		 lea	 ecx, DWORD PTR $T3[ebp]
  0001c	e9 00 00 00 00	 jmp	 ??1?$pair@$$CBV?$basic_string@DU?$char_traits@D@std@@V?$allocator@D@2@@std@@V12@@std@@QAE@XZ
  00021	cc		 int	 3
  00022	cc		 int	 3
  00023	cc		 int	 3
  00024	cc		 int	 3
  00025	cc		 int	 3
__ehhandler$?SetMapCheck@CWorldMng@@AAEHPBD@Z:
  00026	90		 npad	 1
  00027	90		 npad	 1
  00028	8b 54 24 08	 mov	 edx, DWORD PTR [esp+8]
  0002c	8d 42 0c	 lea	 eax, DWORD PTR [edx+12]
  0002f	8b 8a 48 ff ff
	ff		 mov	 ecx, DWORD PTR [edx-184]
  00035	33 c8		 xor	 ecx, eax
  00037	e8 00 00 00 00	 call	 @__security_check_cookie@4
  0003c	8b 4a fc	 mov	 ecx, DWORD PTR [edx-4]
  0003f	33 c8		 xor	 ecx, eax
  00041	e8 00 00 00 00	 call	 @__security_check_cookie@4
  00046	b8 00 00 00 00	 mov	 eax, OFFSET __ehfuncinfo$?SetMapCheck@CWorldMng@@AAEHPBD@Z
  0004b	e9 00 00 00 00	 jmp	 ___CxxFrameHandler3
text$x	ENDS
?SetMapCheck@CWorldMng@@AAEHPBD@Z ENDP			; CWorldMng::SetMapCheck
; Function compile flags: /Ogtp
; File C:\IAGOS\server\v18\Source\Source\_Common\worldmng.cpp
;	COMDAT ?AddMapCheckInfo@CWorldMng@@QAEXPBD@Z
_TEXT	SEGMENT
_szFileName$ = 8					; size = 4
?AddMapCheckInfo@CWorldMng@@QAEXPBD@Z PROC		; CWorldMng::AddMapCheckInfo, COMDAT
; _this$ = ecx

; 748  : {

  00000	55		 push	 ebp
  00001	8b ec		 mov	 ebp, esp

; 752  : #endif // __WORLDSERVER
; 753  : #ifdef __CLIENT
; 754  : 	m_vecstrFileName.push_back( szFileName );
; 755  : #endif // __CLIENT
; 756  : #endif // __INTERNALSERVER
; 757  : }

  00003	5d		 pop	 ebp

; 749  : #ifndef __INTERNALSERVER
; 750  : #ifdef __WORLDSERVER
; 751  : 	SetMapCheck( szFileName );

  00004	e9 00 00 00 00	 jmp	 ?SetMapCheck@CWorldMng@@AAEHPBD@Z ; CWorldMng::SetMapCheck
?AddMapCheckInfo@CWorldMng@@QAEXPBD@Z ENDP		; CWorldMng::AddMapCheckInfo
_TEXT	ENDS
; Function compile flags: /Ogtp
; File C:\IAGOS\server\v18\Source\Source\_Common\worldmng.cpp
;	COMDAT ?LoadAllMoverDialog@CWorldMng@@QAEXXZ
_TEXT	SEGMENT
?LoadAllMoverDialog@CWorldMng@@QAEXXZ PROC		; CWorldMng::LoadAllMoverDialog, COMDAT
; _this$ = ecx

; 546  : {

  00000	56		 push	 esi

; 547  : #ifdef __WORLDSERVER
; 548  : 	CWorld* pWorld;
; 549  : 	pWorld = GetFirstActive();

  00001	8b 71 04	 mov	 esi, DWORD PTR [ecx+4]

; 550  : 	while( pWorld )

  00004	85 f6		 test	 esi, esi
  00006	74 11		 je	 SHORT $LN3@LoadAllMov
$LL2@LoadAllMov:

; 551  : 	{
; 552  : 		pWorld->LoadAllMoverDialog();

  00008	8b ce		 mov	 ecx, esi
  0000a	e8 00 00 00 00	 call	 ?LoadAllMoverDialog@CWorld@@QAEXXZ ; CWorld::LoadAllMoverDialog

; 553  : 		pWorld = pWorld->nextptr;

  0000f	8b b6 b4 30 08
	00		 mov	 esi, DWORD PTR [esi+536756]
  00015	85 f6		 test	 esi, esi
  00017	75 ef		 jne	 SHORT $LL2@LoadAllMov
$LN3@LoadAllMov:
  00019	5e		 pop	 esi

; 554  : 	}
; 555  : #endif //__WORLDSERVER
; 556  : }

  0001a	c3		 ret	 0
?LoadAllMoverDialog@CWorldMng@@QAEXXZ ENDP		; CWorldMng::LoadAllMoverDialog
_TEXT	ENDS
; Function compile flags: /Ogtp
; File C:\IAGOS\server\v18\Source\Source\_Common\worldmng.cpp
; File C:\Program Files\Microsoft Visual Studio\2022\Professional\VC\Tools\MSVC\14.44.35207\atlmfc\include\cstringt.h
; File C:\IAGOS\server\v18\Source\Source\_Common\worldmng.cpp
; File C:\IAGOS\server\v18\Source\Source\_Common\data.h
; File C:\IAGOS\server\v18\Source\Source\_Common\worldmng.cpp
; File C:\Program Files\Microsoft Visual Studio\2022\Professional\VC\Tools\MSVC\14.44.35207\atlmfc\include\atlsimpstr.h
; File C:\IAGOS\server\v18\Source\Source\_Common\worldmng.cpp
; File C:\IAGOS\server\v18\Source\Source\_Common\data.h
; File C:\IAGOS\server\v18\Source\Source\_Common\worldmng.cpp
; File C:\IAGOS\server\v18\Source\Source\_Common\WorldMng.h
; File C:\IAGOS\server\v18\Source\Source\_Common\worldmng.cpp
;	COMDAT ?LoadScript@CWorldMng@@QAEHPBD@Z
_TEXT	SEGMENT
$T2 = -3840						; size = 4
_scanner$ = -3836					; size = 3560
_world$3 = -276						; size = 260
__$ArrayPad$ = -16					; size = 4
__$EHRec$ = -12						; size = 12
_lpszFileName$ = 8					; size = 4
?LoadScript@CWorldMng@@QAEHPBD@Z PROC			; CWorldMng::LoadScript, COMDAT
; _this$ = ecx

; 303  : {

  00000	55		 push	 ebp
  00001	8b ec		 mov	 ebp, esp
  00003	6a ff		 push	 -1
  00005	68 00 00 00 00	 push	 __ehhandler$?LoadScript@CWorldMng@@QAEHPBD@Z
  0000a	64 a1 00 00 00
	00		 mov	 eax, DWORD PTR fs:0
  00010	50		 push	 eax
  00011	81 ec f4 0e 00
	00		 sub	 esp, 3828		; 00000ef4H
  00017	a1 00 00 00 00	 mov	 eax, DWORD PTR ___security_cookie
  0001c	33 c5		 xor	 eax, ebp
  0001e	89 45 f0	 mov	 DWORD PTR __$ArrayPad$[ebp], eax
  00021	53		 push	 ebx
  00022	56		 push	 esi
  00023	57		 push	 edi
  00024	50		 push	 eax
  00025	8d 45 f4	 lea	 eax, DWORD PTR __$EHRec$[ebp]
  00028	64 a3 00 00 00
	00		 mov	 DWORD PTR fs:0, eax
  0002e	8b f9		 mov	 edi, ecx
  00030	8b 75 08	 mov	 esi, DWORD PTR _lpszFileName$[ebp]

; 304  : 	CScript scanner;

  00033	8d 8d 04 f1 ff
	ff		 lea	 ecx, DWORD PTR _scanner$[ebp]
  00039	6a 00		 push	 0
  0003b	e8 00 00 00 00	 call	 ??0CScript@@QAE@H@Z	; CScript::CScript

; 305  : 	if( scanner.Load( lpszFileName ) == FALSE )

  00040	6a 00		 push	 0
  00042	6a 01		 push	 1
  00044	56		 push	 esi
  00045	8d 8d 04 f1 ff
	ff		 lea	 ecx, DWORD PTR _scanner$[ebp]
  0004b	c7 45 fc 00 00
	00 00		 mov	 DWORD PTR __$EHRec$[ebp+8], 0
  00052	e8 00 00 00 00	 call	 ?Load@CScript@@QAEHPBDHH@Z ; CScript::Load
  00057	85 c0		 test	 eax, eax
  00059	75 07		 jne	 SHORT $LN7@LoadScript
  0005b	33 f6		 xor	 esi, esi
  0005d	e9 07 02 00 00	 jmp	 $LN25@LoadScript
$LN7@LoadScript:

; 306  : 		return FALSE;
; 307  : 
; 308  : 	LPWORLD lpWorld;
; 309  : 	
; 310  : 	m_nSize		= 0;
; 311  : 	int nBrace	= 1;
; 312  : 	scanner.SetMark();

  00062	8d 8d 04 f1 ff
	ff		 lea	 ecx, DWORD PTR _scanner$[ebp]
  00068	c7 87 14 e8 05
	00 00 00 00 00	 mov	 DWORD PTR [edi+387092], 0
  00072	bb 01 00 00 00	 mov	 ebx, 1
  00077	e8 00 00 00 00	 call	 ?SetMark@CScript@@UAEXXZ ; CScript::SetMark

; 313  : 	int i	= scanner.GetNumber();	// folder or id

  0007c	6a 00		 push	 0
  0007e	8d 8d 04 f1 ff
	ff		 lea	 ecx, DWORD PTR _scanner$[ebp]
  00084	e8 00 00 00 00	 call	 ?GetNumber@CScanner@@QAEHH@Z ; CScanner::GetNumber
  00089	8b f0		 mov	 esi, eax
  0008b	0f 1f 44 00 00	 npad	 5
$LL2@LoadScript:

; 315  : 	{
; 316  : 		if( *scanner.token == '}' || scanner.tok == FINISHED )

  00090	8b 85 40 f1 ff
	ff		 mov	 eax, DWORD PTR _scanner$[ebp+60]
  00096	80 38 7d	 cmp	 BYTE PTR [eax], 125	; 0000007dH
  00099	74 09		 je	 SHORT $LN9@LoadScript
  0009b	83 bd 48 f9 ff
	ff 15		 cmp	 DWORD PTR _scanner$[ebp+2116], 21 ; 00000015H
  000a2	75 0f		 jne	 SHORT $LN12@LoadScript
$LN9@LoadScript:

; 317  : 		{
; 318  : 			nBrace--;

  000a4	4b		 dec	 ebx

; 319  : 			if( nBrace > 0 )

  000a5	85 db		 test	 ebx, ebx
  000a7	0f 8f 38 01 00
	00		 jg	 $LN14@LoadScript

; 320  : 			{
; 321  : 				scanner.SetMark();
; 322  : 				i	= scanner.GetNumber();	// folder or id
; 323  : 				if( i > m_nSize )	m_nSize	= i;
; 324  : 				continue;
; 325  : 			}
; 326  : 			if( nBrace == 0 )

  000ad	0f 84 62 01 00
	00		 je	 $LN79@LoadScript
$LN12@LoadScript:

; 327  : 				continue;
; 328  : 		}
; 329  : //		i	= _ttoi( scanner.token );
; 330  : 		scanner.GetToken();		// { or filename

  000b3	6a 00		 push	 0
  000b5	8d 8d 04 f1 ff
	ff		 lea	 ecx, DWORD PTR _scanner$[ebp]
  000bb	e8 00 00 00 00	 call	 ?GetToken@CScript@@UAEHH@Z ; CScript::GetToken
; File C:\Program Files\Microsoft Visual Studio\2022\Professional\VC\Tools\MSVC\14.44.35207\atlmfc\include\cstringt.h

; 184  : 		return _mbscmp( reinterpret_cast< const unsigned char* >( pszA ), reinterpret_cast< const unsigned char* >( pszB ) );

  000c0	68 00 00 00 00	 push	 OFFSET ??_C@_08GMCCAJLF@SetTitle@
  000c5	ff b5 24 f1 ff
	ff		 push	 DWORD PTR _scanner$[ebp+32]
  000cb	e8 00 00 00 00	 call	 __mbscmp
  000d0	83 c4 08	 add	 esp, 8

; 2490 : 		return(str1.Compare(psz2) == 0);

  000d3	85 c0		 test	 eax, eax
; File C:\IAGOS\server\v18\Source\Source\_Common\worldmng.cpp

; 332  : 		if( scanner.Token == "SetTitle" )

  000d5	0f 85 8c 00 00
	00		 jne	 $LN13@LoadScript
; File C:\IAGOS\server\v18\Source\Source\_Common\data.h

; 270  : 	if( dwIndex >= (DWORD)m_nMaxIndex )

  000db	3b b7 30 e8 05
	00		 cmp	 esi, DWORD PTR [edi+387120]
  000e1	73 72		 jae	 SHORT $LN15@LoadScript

; 271  : 		return NULL;
; 272  : 	return (T*) m_apOffset[ dwIndex ];

  000e3	8b 87 20 e8 05
	00		 mov	 eax, DWORD PTR [edi+387104]
  000e9	8b 34 b0	 mov	 esi, DWORD PTR [eax+esi*4]
; File C:\IAGOS\server\v18\Source\Source\_Common\worldmng.cpp

; 335  : 			if( pWorld != NULL )

  000ec	85 f6		 test	 esi, esi
  000ee	74 65		 je	 SHORT $LN15@LoadScript

; 336  : 			{
; 337  : 				scanner.GetToken(); // (

  000f0	6a 00		 push	 0
  000f2	8d 8d 04 f1 ff
	ff		 lea	 ecx, DWORD PTR _scanner$[ebp]
  000f8	e8 00 00 00 00	 call	 ?GetToken@CScript@@UAEHH@Z ; CScript::GetToken

; 338  : 				strcpy(	pWorld->m_szWorldName, prj.GetLangScript( scanner ) );				

  000fd	8d 85 04 f1 ff
	ff		 lea	 eax, DWORD PTR _scanner$[ebp]
  00103	b9 00 00 00 00	 mov	 ecx, OFFSET ?prj@@3VCProject@@A ; prj
  00108	50		 push	 eax
  00109	8d 85 00 f1 ff
	ff		 lea	 eax, DWORD PTR $T2[ebp]
  0010f	50		 push	 eax
  00110	e8 00 00 00 00	 call	 ?GetLangScript@CProject@@QAE?AV?$CStringT@DV?$StrTraitMFC@DV?$ChTraitsCRT@D@ATL@@@@@ATL@@AAVCScript@@@Z ; CProject::GetLangScript
  00115	8d 96 80 00 00
	00		 lea	 edx, DWORD PTR [esi+128]
  0011b	8b 08		 mov	 ecx, DWORD PTR [eax]
  0011d	0f 1f 00	 npad	 3
$LL21@LoadScript:
  00120	8a 01		 mov	 al, BYTE PTR [ecx]
  00122	8d 49 01	 lea	 ecx, DWORD PTR [ecx+1]
  00125	88 02		 mov	 BYTE PTR [edx], al
  00127	8d 52 01	 lea	 edx, DWORD PTR [edx+1]
  0012a	84 c0		 test	 al, al
  0012c	75 f2		 jne	 SHORT $LL21@LoadScript
; File C:\Program Files\Microsoft Visual Studio\2022\Professional\VC\Tools\MSVC\14.44.35207\atlmfc\include\atlsimpstr.h

; 804  : 		return( reinterpret_cast< CStringData* >( m_pszData )-1 );

  0012e	8b 95 00 f1 ff
	ff		 mov	 edx, DWORD PTR $T2[ebp]

; 92   : 		if( _InterlockedDecrement( &nRefs ) <= 0 )

  00134	83 c8 ff	 or	 eax, -1

; 804  : 		return( reinterpret_cast< CStringData* >( m_pszData )-1 );

  00137	83 c2 f0	 add	 edx, -16		; fffffff0H

; 92   : 		if( _InterlockedDecrement( &nRefs ) <= 0 )

  0013a	f0 0f c1 42 0c	 lock	  xadd	 DWORD PTR [edx+12], eax
  0013f	48		 dec	 eax
  00140	85 c0		 test	 eax, eax
  00142	0f 8f 9d 00 00
	00		 jg	 $LN14@LoadScript

; 93   : 		{
; 94   : 			pStringMgr->Free( this );

  00148	8b 0a		 mov	 ecx, DWORD PTR [edx]
  0014a	52		 push	 edx
  0014b	8b 01		 mov	 eax, DWORD PTR [ecx]
  0014d	ff 50 04	 call	 DWORD PTR [eax+4]
; File C:\IAGOS\server\v18\Source\Source\_Common\worldmng.cpp

; 339  : 			}

  00150	e9 90 00 00 00	 jmp	 $LN14@LoadScript
$LN15@LoadScript:

; 340  : 			else
; 341  : 			{
; 342  : 				Error( "CWorldMng::LoadScript -> Load WorldName" );

  00155	68 00 00 00 00	 push	 OFFSET ??_C@_0CI@LGJLMEMK@CWorldMng?3?3LoadScript?5?9?$DO?5Load?5W@
  0015a	e8 00 00 00 00	 call	 ?Error@@YAPBDPBDZZ	; Error
  0015f	83 c4 04	 add	 esp, 4

; 343  : 			}
; 344  : 		}

  00162	e9 7e 00 00 00	 jmp	 $LN14@LoadScript
$LN13@LoadScript:

; 345  : 		else
; 346  : 		{
; 347  : 			scanner.GoMark();

  00167	8d 8d 04 f1 ff
	ff		 lea	 ecx, DWORD PTR _scanner$[ebp]
  0016d	e8 00 00 00 00	 call	 ?GoMark@CScript@@UAEXXZ	; CScript::GoMark

; 348  : 			i	= scanner.GetNumber(); // id

  00172	6a 00		 push	 0
  00174	8d 8d 04 f1 ff
	ff		 lea	 ecx, DWORD PTR _scanner$[ebp]
  0017a	e8 00 00 00 00	 call	 ?GetNumber@CScanner@@QAEHH@Z ; CScanner::GetNumber
  0017f	8b f0		 mov	 esi, eax

; 349  : 			if( i > m_nSize )	m_nSize		= i;

  00181	3b b7 14 e8 05
	00		 cmp	 esi, DWORD PTR [edi+387092]
  00187	7e 06		 jle	 SHORT $LN17@LoadScript
  00189	89 b7 14 e8 05
	00		 mov	 DWORD PTR [edi+387092], esi
$LN17@LoadScript:

; 350  : 
; 351  : 
; 352  : 			WORLD world;
; 353  : 			::memset( &world, 0, sizeof(world) );

  0018f	68 00 01 00 00	 push	 256			; 00000100H
  00194	8d 85 ec fe ff
	ff		 lea	 eax, DWORD PTR _world$3[ebp]
  0019a	6a 00		 push	 0
  0019c	50		 push	 eax
  0019d	e8 00 00 00 00	 call	 _memset
  001a2	83 c4 0c	 add	 esp, 12			; 0000000cH

; 354  : 
; 355  : 			world.m_dwId = i;

  001a5	89 75 ec	 mov	 DWORD PTR _world$3[ebp+256], esi

; 356  : 			scanner.GetToken();		// fileName

  001a8	8d 8d 04 f1 ff
	ff		 lea	 ecx, DWORD PTR _scanner$[ebp]
  001ae	6a 00		 push	 0
  001b0	e8 00 00 00 00	 call	 ?GetToken@CScript@@UAEHH@Z ; CScript::GetToken

; 357  : 			strcpy( world.m_szFileName, scanner.token );

  001b5	8b 85 40 f1 ff
	ff		 mov	 eax, DWORD PTR _scanner$[ebp+60]
  001bb	8d 95 ec fe ff
	ff		 lea	 edx, DWORD PTR _world$3[ebp]
  001c1	2b d0		 sub	 edx, eax
$LL22@LoadScript:
  001c3	8a 08		 mov	 cl, BYTE PTR [eax]
  001c5	8d 40 01	 lea	 eax, DWORD PTR [eax+1]
  001c8	88 4c 10 ff	 mov	 BYTE PTR [eax+edx-1], cl
  001cc	84 c9		 test	 cl, cl
  001ce	75 f3		 jne	 SHORT $LL22@LoadScript

; 358  : 			TRACE( "Load World %s %d\n", world.m_szFileName, i );
; 359  : 			m_aWorld.SetAtGrow( i, &world );

  001d0	6a 00		 push	 0
  001d2	8d 85 ec fe ff
	ff		 lea	 eax, DWORD PTR _world$3[ebp]
  001d8	50		 push	 eax
  001d9	56		 push	 esi
  001da	8d 8f 18 e8 05
	00		 lea	 ecx, DWORD PTR [edi+387096]
  001e0	e8 00 00 00 00	 call	 ?SetAtGrow@?$CFixedArray@UtagWORLD@@@@QAEXHPAUtagWORLD@@H@Z ; CFixedArray<tagWORLD>::SetAtGrow
$LN14@LoadScript:

; 314  : 	while( nBrace )

  001e5	8d 8d 04 f1 ff
	ff		 lea	 ecx, DWORD PTR _scanner$[ebp]
  001eb	e8 00 00 00 00	 call	 ?SetMark@CScript@@UAEXXZ ; CScript::SetMark
  001f0	6a 00		 push	 0
  001f2	8d 8d 04 f1 ff
	ff		 lea	 ecx, DWORD PTR _scanner$[ebp]
  001f8	e8 00 00 00 00	 call	 ?GetNumber@CScanner@@QAEHH@Z ; CScanner::GetNumber
  001fd	8b f0		 mov	 esi, eax
  001ff	3b b7 14 e8 05
	00		 cmp	 esi, DWORD PTR [edi+387092]
  00205	7e 06		 jle	 SHORT $LN18@LoadScript
  00207	89 b7 14 e8 05
	00		 mov	 DWORD PTR [edi+387092], esi
$LN18@LoadScript:
  0020d	85 db		 test	 ebx, ebx
  0020f	0f 85 7b fe ff
	ff		 jne	 $LL2@LoadScript
$LN79@LoadScript:

; 360  : 		}
; 361  : 
; 362  : 		scanner.SetMark();
; 363  : 		i	= scanner.GetNumber();	// texture fileName
; 364  : 		if( i > m_nSize )	m_nSize		= i;
; 365  : 	}
; 366  : 	m_aWorld.Optimize();

  00215	8d 8f 18 e8 05
	00		 lea	 ecx, DWORD PTR [edi+387096]
  0021b	e8 00 00 00 00	 call	 ?Optimize@?$CFixedArray@UtagWORLD@@@@QAEXXZ ; CFixedArray<tagWORLD>::Optimize

; 367  : 	m_nSize++;

  00220	8b 87 14 e8 05
	00		 mov	 eax, DWORD PTR [edi+387092]

; 368  : 
; 369  : 	for( i = 0; i < m_nSize; i++ )

  00226	33 f6		 xor	 esi, esi
  00228	40		 inc	 eax
  00229	89 87 14 e8 05
	00		 mov	 DWORD PTR [edi+387092], eax
  0022f	85 c0		 test	 eax, eax
  00231	7e 31		 jle	 SHORT $LN5@LoadScript
$LL6@LoadScript:
; File C:\IAGOS\server\v18\Source\Source\_Common\data.h

; 270  : 	if( dwIndex >= (DWORD)m_nMaxIndex )

  00233	3b b7 30 e8 05
	00		 cmp	 esi, DWORD PTR [edi+387120]
  00239	73 20		 jae	 SHORT $LN4@LoadScript

; 271  : 		return NULL;
; 272  : 	return (T*) m_apOffset[ dwIndex ];

  0023b	8b 87 20 e8 05
	00		 mov	 eax, DWORD PTR [edi+387104]
  00241	8b 04 b0	 mov	 eax, DWORD PTR [eax+esi*4]
; File C:\IAGOS\server\v18\Source\Source\_Common\worldmng.cpp

; 372  : 		if( lpWorld && lpWorld->IsValid() )

  00244	85 c0		 test	 eax, eax
  00246	74 13		 je	 SHORT $LN4@LoadScript
; File C:\IAGOS\server\v18\Source\Source\_Common\WorldMng.h

; 13   : 	BOOL	IsValid()	{	return( m_szFileName[0] != '\0' );	}

  00248	80 38 00	 cmp	 BYTE PTR [eax], 0
; File C:\IAGOS\server\v18\Source\Source\_Common\worldmng.cpp

; 372  : 		if( lpWorld && lpWorld->IsValid() )

  0024b	74 0e		 je	 SHORT $LN4@LoadScript

; 373  : 		{
; 374  : 			LoadRevivalPos( lpWorld->m_dwId, lpWorld->m_szFileName );

  0024d	50		 push	 eax
  0024e	ff b0 00 01 00
	00		 push	 DWORD PTR [eax+256]
  00254	8b cf		 mov	 ecx, edi
  00256	e8 00 00 00 00	 call	 ?LoadRevivalPos@CWorldMng@@AAEXKPBD@Z ; CWorldMng::LoadRevivalPos
$LN4@LoadScript:

; 368  : 
; 369  : 	for( i = 0; i < m_nSize; i++ )

  0025b	46		 inc	 esi
  0025c	3b b7 14 e8 05
	00		 cmp	 esi, DWORD PTR [edi+387092]
  00262	7c cf		 jl	 SHORT $LL6@LoadScript
$LN5@LoadScript:

; 375  : 		}
; 376  : 	}
; 377  : 
; 378  : 	return TRUE;

  00264	be 01 00 00 00	 mov	 esi, 1
$LN25@LoadScript:
  00269	8d 8d 04 f1 ff
	ff		 lea	 ecx, DWORD PTR _scanner$[ebp]
  0026f	e8 00 00 00 00	 call	 ??1CScript@@UAE@XZ	; CScript::~CScript
  00274	8b c6		 mov	 eax, esi

; 379  : }

  00276	8b 4d f4	 mov	 ecx, DWORD PTR __$EHRec$[ebp]
  00279	64 89 0d 00 00
	00 00		 mov	 DWORD PTR fs:0, ecx
  00280	59		 pop	 ecx
  00281	5f		 pop	 edi
  00282	5e		 pop	 esi
  00283	5b		 pop	 ebx
  00284	8b 4d f0	 mov	 ecx, DWORD PTR __$ArrayPad$[ebp]
  00287	33 cd		 xor	 ecx, ebp
  00289	e8 00 00 00 00	 call	 @__security_check_cookie@4
  0028e	8b e5		 mov	 esp, ebp
  00290	5d		 pop	 ebp
  00291	c2 04 00	 ret	 4
_TEXT	ENDS
;	COMDAT text$x
text$x	SEGMENT
__unwindfunclet$?LoadScript@CWorldMng@@QAEHPBD@Z$0:
  00000	8d 8d 04 f1 ff
	ff		 lea	 ecx, DWORD PTR _scanner$[ebp]
  00006	e9 00 00 00 00	 jmp	 ??1CScript@@UAE@XZ	; CScript::~CScript
  0000b	cc		 int	 3
  0000c	cc		 int	 3
  0000d	cc		 int	 3
  0000e	cc		 int	 3
  0000f	cc		 int	 3
__ehhandler$?LoadScript@CWorldMng@@QAEHPBD@Z:
  00010	90		 npad	 1
  00011	90		 npad	 1
  00012	8b 54 24 08	 mov	 edx, DWORD PTR [esp+8]
  00016	8d 42 0c	 lea	 eax, DWORD PTR [edx+12]
  00019	8b 8a fc f0 ff
	ff		 mov	 ecx, DWORD PTR [edx-3844]
  0001f	33 c8		 xor	 ecx, eax
  00021	e8 00 00 00 00	 call	 @__security_check_cookie@4
  00026	8b 4a fc	 mov	 ecx, DWORD PTR [edx-4]
  00029	33 c8		 xor	 ecx, eax
  0002b	e8 00 00 00 00	 call	 @__security_check_cookie@4
  00030	b8 00 00 00 00	 mov	 eax, OFFSET __ehfuncinfo$?LoadScript@CWorldMng@@QAEHPBD@Z
  00035	e9 00 00 00 00	 jmp	 ___CxxFrameHandler3
text$x	ENDS
?LoadScript@CWorldMng@@QAEHPBD@Z ENDP			; CWorldMng::LoadScript
; Function compile flags: /Ogtp
; File C:\IAGOS\server\v18\Source\Source\_Common\worldmng.cpp
; File C:\Program Files\Microsoft Visual Studio\2022\Professional\VC\Tools\MSVC\14.44.35207\include\xtree
; File C:\IAGOS\server\v18\Source\Source\_Common\worldmng.cpp
; File C:\Program Files\Microsoft Visual Studio\2022\Professional\VC\Tools\MSVC\14.44.35207\include\xtree
; File C:\Program Files\Microsoft Visual Studio\2022\Professional\VC\Tools\MSVC\14.44.35207\include\xmemory
; File C:\IAGOS\server\v18\Source\Source\_Common\data.h
; File C:\Program Files\Microsoft Visual Studio\2022\Professional\VC\Tools\MSVC\14.44.35207\include\xmemory
; File C:\IAGOS\server\v18\Source\Source\_Common\data.h
; File C:\IAGOS\server\v18\Source\Source\_Common\worldmng.cpp
;	COMDAT ??1CWorldMng@@UAE@XZ
_TEXT	SEGMENT
__$EHRec$ = -12						; size = 12
??1CWorldMng@@UAE@XZ PROC				; CWorldMng::~CWorldMng, COMDAT
; _this$ = ecx

; 53   : {

  00000	55		 push	 ebp
  00001	8b ec		 mov	 ebp, esp
  00003	6a ff		 push	 -1
  00005	68 00 00 00 00	 push	 __ehhandler$??1CWorldMng@@UAE@XZ
  0000a	64 a1 00 00 00
	00		 mov	 eax, DWORD PTR fs:0
  00010	50		 push	 eax
  00011	56		 push	 esi
  00012	57		 push	 edi
  00013	a1 00 00 00 00	 mov	 eax, DWORD PTR ___security_cookie
  00018	33 c5		 xor	 eax, ebp
  0001a	50		 push	 eax
  0001b	8d 45 f4	 lea	 eax, DWORD PTR __$EHRec$[ebp]
  0001e	64 a3 00 00 00
	00		 mov	 DWORD PTR fs:0, eax
  00024	8b f9		 mov	 edi, ecx
  00026	c7 07 00 00 00
	00		 mov	 DWORD PTR [edi], OFFSET ??_7CWorldMng@@6B@

; 54   : 	Free();

  0002c	e8 00 00 00 00	 call	 ?Free@CWorldMng@@QAEXXZ	; CWorldMng::Free
; File C:\Program Files\Microsoft Visual Studio\2022\Professional\VC\Tools\MSVC\14.44.35207\include\xtree

; 777  :         _Erase_tree(_Al, _Myhead->_Parent);

  00031	8b 87 3c e8 05
	00		 mov	 eax, DWORD PTR [edi+387132]
; File C:\IAGOS\server\v18\Source\Source\_Common\worldmng.cpp

; 55   : }

  00037	8d b7 3c e8 05
	00		 lea	 esi, DWORD PTR [edi+387132]
; File C:\Program Files\Microsoft Visual Studio\2022\Professional\VC\Tools\MSVC\14.44.35207\include\xtree

; 777  :         _Erase_tree(_Al, _Myhead->_Parent);

  0003d	8b ce		 mov	 ecx, esi
  0003f	ff 70 04	 push	 DWORD PTR [eax+4]
  00042	56		 push	 esi
  00043	e8 00 00 00 00	 call	 ??$_Erase_tree@V?$allocator@U?$_Tree_node@U?$pair@$$CBV?$basic_string@DU?$char_traits@D@std@@V?$allocator@D@2@@std@@V12@@std@@PAX@std@@@std@@@?$_Tree_val@U?$_Tree_simple_types@U?$pair@$$CBV?$basic_string@DU?$char_traits@D@std@@V?$allocator@D@2@@std@@V12@@std@@@std@@@std@@QAEXAAV?$allocator@U?$_Tree_node@U?$pair@$$CBV?$basic_string@DU?$char_traits@D@std@@V?$allocator@D@2@@std@@V12@@std@@PAX@std@@@1@PAU?$_Tree_node@U?$pair@$$CBV?$basic_string@DU?$char_traits@D@std@@V?$allocator@D@2@@std@@V12@@std@@PAX@1@@Z ; std::_Tree_val<std::_Tree_simple_types<std::pair<std::basic_string<char,std::char_traits<char>,std::allocator<char> > const ,std::basic_string<char,std::char_traits<char>,std::allocator<char> > > > >::_Erase_tree<std::allocator<std::_Tree_node<std::pair<std::basic_string<char,std::char_traits<char>,std::allocator<char> > const ,std::basic_string<char,std::char_traits<char>,std::allocator<char> > >,void *> > >
; File C:\Program Files\Microsoft Visual Studio\2022\Professional\VC\Tools\MSVC\14.44.35207\include\xmemory

; 289  :         ::operator delete(_Ptr, _Bytes);

  00048	6a 40		 push	 64			; 00000040H
  0004a	ff 36		 push	 DWORD PTR [esi]
  0004c	e8 00 00 00 00	 call	 ??3@YAXPAXI@Z		; operator delete
; File C:\IAGOS\server\v18\Source\Source\_Common\data.h

; 239  : 	SAFE_DELETE_ARRAY( m_apOffset );

  00051	8b 87 20 e8 05
	00		 mov	 eax, DWORD PTR [edi+387104]
; File C:\Program Files\Microsoft Visual Studio\2022\Professional\VC\Tools\MSVC\14.44.35207\include\xmemory

; 289  :         ::operator delete(_Ptr, _Bytes);

  00057	83 c4 08	 add	 esp, 8
; File C:\IAGOS\server\v18\Source\Source\_Common\data.h

; 238  : {

  0005a	c7 87 18 e8 05
	00 00 00 00 00	 mov	 DWORD PTR [edi+387096], OFFSET ??_7?$CFixedArray@UtagWORLD@@@@6B@

; 239  : 	SAFE_DELETE_ARRAY( m_apOffset );

  00064	85 c0		 test	 eax, eax
  00066	74 13		 je	 SHORT $LN37@CWorldMng
  00068	50		 push	 eax
  00069	e8 00 00 00 00	 call	 ??_V@YAXPAX@Z		; operator delete[]
  0006e	83 c4 04	 add	 esp, 4
  00071	c7 87 20 e8 05
	00 00 00 00 00	 mov	 DWORD PTR [edi+387104], 0
$LN37@CWorldMng:

; 240  : 	SAFE_DELETE_ARRAY( m_pData ); 

  0007b	8b 87 1c e8 05
	00		 mov	 eax, DWORD PTR [edi+387100]
  00081	85 c0		 test	 eax, eax
  00083	74 13		 je	 SHORT $LN38@CWorldMng
  00085	50		 push	 eax
  00086	e8 00 00 00 00	 call	 ??_V@YAXPAX@Z		; operator delete[]
  0008b	83 c4 04	 add	 esp, 4
  0008e	c7 87 1c e8 05
	00 00 00 00 00	 mov	 DWORD PTR [edi+387100], 0
$LN38@CWorldMng:
; File C:\IAGOS\server\v18\Source\Source\_Common\worldmng.cpp

; 55   : }

  00098	8b 4d f4	 mov	 ecx, DWORD PTR __$EHRec$[ebp]
  0009b	64 89 0d 00 00
	00 00		 mov	 DWORD PTR fs:0, ecx
  000a2	59		 pop	 ecx
  000a3	5f		 pop	 edi
  000a4	5e		 pop	 esi
  000a5	8b e5		 mov	 esp, ebp
  000a7	5d		 pop	 ebp
  000a8	c3		 ret	 0
  000a9	cc		 int	 3
  000aa	cc		 int	 3
  000ab	cc		 int	 3
  000ac	cc		 int	 3
  000ad	cc		 int	 3
_TEXT	ENDS
;	COMDAT text$x
text$x	SEGMENT
__ehhandler$??1CWorldMng@@UAE@XZ:
  00000	90		 npad	 1
  00001	90		 npad	 1
  00002	8b 54 24 08	 mov	 edx, DWORD PTR [esp+8]
  00006	8d 42 0c	 lea	 eax, DWORD PTR [edx+12]
  00009	8b 4a f4	 mov	 ecx, DWORD PTR [edx-12]
  0000c	33 c8		 xor	 ecx, eax
  0000e	e8 00 00 00 00	 call	 @__security_check_cookie@4
  00013	b8 00 00 00 00	 mov	 eax, OFFSET __ehfuncinfo$??1CWorldMng@@UAE@XZ
  00018	e9 00 00 00 00	 jmp	 ___CxxFrameHandler3
text$x	ENDS
??1CWorldMng@@UAE@XZ ENDP				; CWorldMng::~CWorldMng
; Function compile flags: /Ogtp
; File C:\IAGOS\server\v18\Source\Source\_Common\worldmng.cpp
; File C:\IAGOS\server\v18\Source\Source\_Common\data.h
; File C:\IAGOS\server\v18\Source\Source\_Common\worldmng.cpp
; File C:\Program Files\Microsoft Visual Studio\2022\Professional\VC\Tools\MSVC\14.44.35207\include\xmemory
; File C:\IAGOS\server\v18\Source\Source\_Common\worldmng.cpp
; File C:\Program Files\Microsoft Visual Studio\2022\Professional\VC\Tools\MSVC\14.44.35207\include\xtree
; File C:\Program Files\Microsoft Visual Studio\2022\Professional\VC\Tools\MSVC\14.44.35207\include\xmemory
; File C:\Program Files\Microsoft Visual Studio\2022\Professional\VC\Tools\MSVC\14.44.35207\include\xtree
; File C:\IAGOS\server\v18\Source\Source\_Common\worldmng.cpp
;	COMDAT ??0CWorldMng@@QAE@XZ
_TEXT	SEGMENT
_this$ = -20						; size = 4
_this$ = -16						; size = 4
__$EHRec$ = -12						; size = 12
??0CWorldMng@@QAE@XZ PROC				; CWorldMng::CWorldMng, COMDAT
; _this$ = ecx

; 37   : {

  00000	55		 push	 ebp
  00001	8b ec		 mov	 ebp, esp
  00003	6a ff		 push	 -1
  00005	68 00 00 00 00	 push	 __ehhandler$??0CWorldMng@@QAE@XZ
  0000a	64 a1 00 00 00
	00		 mov	 eax, DWORD PTR fs:0
  00010	50		 push	 eax
  00011	83 ec 08	 sub	 esp, 8
  00014	56		 push	 esi
  00015	57		 push	 edi
  00016	a1 00 00 00 00	 mov	 eax, DWORD PTR ___security_cookie
  0001b	33 c5		 xor	 eax, ebp
  0001d	50		 push	 eax
  0001e	8d 45 f4	 lea	 eax, DWORD PTR __$EHRec$[ebp]
  00021	64 a3 00 00 00
	00		 mov	 DWORD PTR fs:0, eax
  00027	8b f9		 mov	 edi, ecx
  00029	89 7d f0	 mov	 DWORD PTR _this$[ebp], edi
  0002c	8d 4f 0c	 lea	 ecx, DWORD PTR [edi+12]
  0002f	c7 07 00 00 00
	00		 mov	 DWORD PTR [edi], OFFSET ??_7CWorldMng@@6B@
  00035	e8 00 00 00 00	 call	 ??0CRegionElemArray@@QAE@XZ ; CRegionElemArray::CRegionElemArray
  0003a	8d 8f 10 f4 02
	00		 lea	 ecx, DWORD PTR [edi+193552]
  00040	e8 00 00 00 00	 call	 ??0CRegionElemArray@@QAE@XZ ; CRegionElemArray::CRegionElemArray
; File C:\IAGOS\server\v18\Source\Source\_Common\data.h

; 260  : 	m_pData = new BYTE[ sizeof( T ) * nMaxNum ];

  00045	68 90 65 00 00	 push	 26000			; 00006590H

; 230  : {

  0004a	c7 87 18 e8 05
	00 00 00 00 00	 mov	 DWORD PTR [edi+387096], OFFSET ??_7?$CFixedArray@UtagWORLD@@@@6B@

; 231  : 	m_pData = NULL;

  00054	c7 87 1c e8 05
	00 00 00 00 00	 mov	 DWORD PTR [edi+387100], 0

; 232  : 	m_apOffset = NULL;

  0005e	c7 87 20 e8 05
	00 00 00 00 00	 mov	 DWORD PTR [edi+387104], 0

; 233  : 	m_nEndByte = 0;

  00068	c7 87 34 e8 05
	00 00 00 00 00	 mov	 DWORD PTR [edi+387124], 0

; 234  : 	m_nEndIndex = -1;

  00072	c7 87 38 e8 05
	00 ff ff ff ff	 mov	 DWORD PTR [edi+387128], -1

; 260  : 	m_pData = new BYTE[ sizeof( T ) * nMaxNum ];

  0007c	e8 00 00 00 00	 call	 ??_U@YAPAXI@Z		; operator new[]

; 261  : 	m_apOffset = new LPBYTE [ nMaxIndex ];

  00081	68 90 01 00 00	 push	 400			; 00000190H
  00086	89 87 1c e8 05
	00		 mov	 DWORD PTR [edi+387100], eax
  0008c	e8 00 00 00 00	 call	 ??_U@YAPAXI@Z		; operator new[]

; 262  : 	ZeroMemory( m_apOffset, sizeof( LPBYTE ) * nMaxIndex );

  00091	68 90 01 00 00	 push	 400			; 00000190H
  00096	6a 00		 push	 0
  00098	50		 push	 eax
  00099	89 87 20 e8 05
	00		 mov	 DWORD PTR [edi+387104], eax
  0009f	e8 00 00 00 00	 call	 _memset

; 263  : 	m_nMaxByte = sizeof( T ) * nMaxNum;

  000a4	c7 87 2c e8 05
	00 90 65 00 00	 mov	 DWORD PTR [edi+387116], 26000 ; 00006590H

; 264  : 	m_nMaxIndex = nMaxIndex;

  000ae	c7 87 30 e8 05
	00 64 00 00 00	 mov	 DWORD PTR [edi+387120], 100 ; 00000064H

; 265  : 	m_nCurOffset = 0;

  000b8	c7 87 24 e8 05
	00 00 00 00 00	 mov	 DWORD PTR [edi+387108], 0

; 266  : 	m_nCurNum = 0;

  000c2	c7 87 28 e8 05
	00 00 00 00 00	 mov	 DWORD PTR [edi+387112], 0
; File C:\IAGOS\server\v18\Source\Source\_Common\worldmng.cpp

; 37   : {

  000cc	8d b7 3c e8 05
	00		 lea	 esi, DWORD PTR [edi+387132]
  000d2	c7 45 fc 00 00
	00 00		 mov	 DWORD PTR __$EHRec$[ebp+8], 0
; File C:\Program Files\Microsoft Visual Studio\2022\Professional\VC\Tools\MSVC\14.44.35207\include\xmemory

; 136  :         return ::operator new(_Bytes);

  000d9	6a 40		 push	 64			; 00000040H
; File C:\IAGOS\server\v18\Source\Source\_Common\worldmng.cpp

; 37   : {

  000db	89 75 ec	 mov	 DWORD PTR _this$[ebp], esi
; File C:\Program Files\Microsoft Visual Studio\2022\Professional\VC\Tools\MSVC\14.44.35207\include\xtree

; 450  :     _Tree_val() noexcept : _Myhead(), _Mysize(0) {}

  000de	c7 06 00 00 00
	00		 mov	 DWORD PTR [esi], 0
  000e4	c7 46 04 00 00
	00 00		 mov	 DWORD PTR [esi+4], 0
; File C:\Program Files\Microsoft Visual Studio\2022\Professional\VC\Tools\MSVC\14.44.35207\include\xmemory

; 136  :         return ::operator new(_Bytes);

  000eb	e8 00 00 00 00	 call	 ??2@YAPAXI@Z		; operator new
  000f0	83 c4 18	 add	 esp, 24			; 00000018H
; File C:\Program Files\Microsoft Visual Studio\2022\Professional\VC\Tools\MSVC\14.44.35207\include\xtree

; 346  :         _Construct_in_place(_Pnode->_Left, _Pnode);

  000f3	89 00		 mov	 DWORD PTR [eax], eax

; 347  :         _Construct_in_place(_Pnode->_Parent, _Pnode);

  000f5	89 40 04	 mov	 DWORD PTR [eax+4], eax

; 348  :         _Construct_in_place(_Pnode->_Right, _Pnode);

  000f8	89 40 08	 mov	 DWORD PTR [eax+8], eax

; 349  :         _Pnode->_Color = _Black;

  000fb	66 c7 40 0c 01
	01		 mov	 WORD PTR [eax+12], 257	; 00000101H

; 1957 :         _Scary->_Myhead = _Node::_Buyheadnode(_Getal());

  00101	89 06		 mov	 DWORD PTR [esi], eax
; File C:\IAGOS\server\v18\Source\Source\_Common\worldmng.cpp

; 49   : }

  00103	8b c7		 mov	 eax, edi
  00105	c7 47 04 00 00
	00 00		 mov	 DWORD PTR [edi+4], 0
  0010c	c7 47 08 00 00
	00 00		 mov	 DWORD PTR [edi+8], 0
  00113	c7 87 14 e8 05
	00 00 00 00 00	 mov	 DWORD PTR [edi+387092], 0
  0011d	8b 4d f4	 mov	 ecx, DWORD PTR __$EHRec$[ebp]
  00120	64 89 0d 00 00
	00 00		 mov	 DWORD PTR fs:0, ecx
  00127	59		 pop	 ecx
  00128	5f		 pop	 edi
  00129	5e		 pop	 esi
  0012a	8b e5		 mov	 esp, ebp
  0012c	5d		 pop	 ebp
  0012d	c3		 ret	 0
_TEXT	ENDS
;	COMDAT text$x
text$x	SEGMENT
__unwindfunclet$??0CWorldMng@@QAE@XZ$0:
  00000	8b 4d f0	 mov	 ecx, DWORD PTR _this$[ebp]
  00003	81 c1 18 e8 05
	00		 add	 ecx, 387096		; 0005e818H
  00009	e9 00 00 00 00	 jmp	 ??1?$CFixedArray@UtagWORLD@@@@UAE@XZ ; CFixedArray<tagWORLD>::~CFixedArray<tagWORLD>
  0000e	cc		 int	 3
  0000f	cc		 int	 3
  00010	cc		 int	 3
  00011	cc		 int	 3
  00012	cc		 int	 3
__ehhandler$??0CWorldMng@@QAE@XZ:
  00013	90		 npad	 1
  00014	90		 npad	 1
  00015	8b 54 24 08	 mov	 edx, DWORD PTR [esp+8]
  00019	8d 42 0c	 lea	 eax, DWORD PTR [edx+12]
  0001c	8b 4a ec	 mov	 ecx, DWORD PTR [edx-20]
  0001f	33 c8		 xor	 ecx, eax
  00021	e8 00 00 00 00	 call	 @__security_check_cookie@4
  00026	b8 00 00 00 00	 mov	 eax, OFFSET __ehfuncinfo$??0CWorldMng@@QAE@XZ
  0002b	e9 00 00 00 00	 jmp	 ___CxxFrameHandler3
text$x	ENDS
??0CWorldMng@@QAE@XZ ENDP				; CWorldMng::CWorldMng
; Function compile flags: /Ogtp
; File C:\IAGOS\server\v18\Source\Source\_Common\data.h
;	COMDAT ??_G?$CFixedArray@UtagWORLD@@@@UAEPAXI@Z
_TEXT	SEGMENT
___flags$ = 8						; size = 4
??_G?$CFixedArray@UtagWORLD@@@@UAEPAXI@Z PROC		; CFixedArray<tagWORLD>::`scalar deleting destructor', COMDAT
; _this$ = ecx
  00000	55		 push	 ebp
  00001	8b ec		 mov	 ebp, esp

; 238  : {

  00003	56		 push	 esi
  00004	8b f1		 mov	 esi, ecx

; 239  : 	SAFE_DELETE_ARRAY( m_apOffset );

  00006	8b 46 08	 mov	 eax, DWORD PTR [esi+8]
  00009	c7 06 00 00 00
	00		 mov	 DWORD PTR [esi], OFFSET ??_7?$CFixedArray@UtagWORLD@@@@6B@
  0000f	85 c0		 test	 eax, eax
  00011	74 10		 je	 SHORT $LN6@scalar
  00013	50		 push	 eax
  00014	e8 00 00 00 00	 call	 ??_V@YAXPAX@Z		; operator delete[]
  00019	83 c4 04	 add	 esp, 4
  0001c	c7 46 08 00 00
	00 00		 mov	 DWORD PTR [esi+8], 0
$LN6@scalar:

; 240  : 	SAFE_DELETE_ARRAY( m_pData ); 

  00023	8b 46 04	 mov	 eax, DWORD PTR [esi+4]
  00026	85 c0		 test	 eax, eax
  00028	74 10		 je	 SHORT $LN7@scalar
  0002a	50		 push	 eax
  0002b	e8 00 00 00 00	 call	 ??_V@YAXPAX@Z		; operator delete[]
  00030	83 c4 04	 add	 esp, 4
  00033	c7 46 04 00 00
	00 00		 mov	 DWORD PTR [esi+4], 0
$LN7@scalar:
  0003a	f6 45 08 01	 test	 BYTE PTR ___flags$[ebp], 1
  0003e	74 0b		 je	 SHORT $LN10@scalar
  00040	6a 24		 push	 36			; 00000024H
  00042	56		 push	 esi
  00043	e8 00 00 00 00	 call	 ??3@YAXPAXI@Z		; operator delete
  00048	83 c4 08	 add	 esp, 8
$LN10@scalar:
  0004b	8b c6		 mov	 eax, esi
  0004d	5e		 pop	 esi
  0004e	5d		 pop	 ebp
  0004f	c2 04 00	 ret	 4
??_G?$CFixedArray@UtagWORLD@@@@UAEPAXI@Z ENDP		; CFixedArray<tagWORLD>::`scalar deleting destructor'
_TEXT	ENDS
; Function compile flags: /Ogtp
; File C:\IAGOS\server\v18\Source\Source\_Common\data.h
;	COMDAT ?Optimize@?$CFixedArray@UtagWORLD@@@@QAEXXZ
_TEXT	SEGMENT
_apOffset$1$ = -4					; size = 4
_pData$1$ = -4						; size = 4
?Optimize@?$CFixedArray@UtagWORLD@@@@QAEXXZ PROC	; CFixedArray<tagWORLD>::Optimize, COMDAT
; _this$ = ecx

; 280  : {

  00000	55		 push	 ebp
  00001	8b ec		 mov	 ebp, esp
  00003	51		 push	 ecx
  00004	53		 push	 ebx
  00005	56		 push	 esi
  00006	8b f1		 mov	 esi, ecx

; 281  : 	if( m_nMaxIndex >= m_nEndIndex )

  00008	8b 46 20	 mov	 eax, DWORD PTR [esi+32]
  0000b	8d 5e 20	 lea	 ebx, DWORD PTR [esi+32]
  0000e	57		 push	 edi
  0000f	39 46 18	 cmp	 DWORD PTR [esi+24], eax
  00012	7c 48		 jl	 SHORT $LN16@Optimize

; 282  : 	{
; 283  : 		m_nMaxIndex = m_nEndIndex + 1;

  00014	40		 inc	 eax

; 284  : 		LPBYTE* apOffset = new LPBYTE [ m_nMaxIndex ]; 

  00015	b9 04 00 00 00	 mov	 ecx, 4
  0001a	89 46 18	 mov	 DWORD PTR [esi+24], eax
  0001d	f7 e1		 mul	 ecx
  0001f	b9 ff ff ff ff	 mov	 ecx, -1
  00024	0f 42 c1	 cmovb	 eax, ecx
  00027	50		 push	 eax
  00028	e8 00 00 00 00	 call	 ??_U@YAPAXI@Z		; operator new[]

; 285  : 		memcpy( apOffset, m_apOffset, sizeof( LPBYTE ) * m_nMaxIndex ); 

  0002d	8b 4e 18	 mov	 ecx, DWORD PTR [esi+24]
  00030	c1 e1 02	 shl	 ecx, 2
  00033	51		 push	 ecx
  00034	ff 76 08	 push	 DWORD PTR [esi+8]
  00037	89 45 fc	 mov	 DWORD PTR _apOffset$1$[ebp], eax
  0003a	50		 push	 eax
  0003b	e8 00 00 00 00	 call	 _memcpy

; 286  : 		SAFE_DELETE_ARRAY( m_apOffset );

  00040	8b 46 08	 mov	 eax, DWORD PTR [esi+8]
  00043	83 c4 10	 add	 esp, 16			; 00000010H
  00046	85 c0		 test	 eax, eax
  00048	74 0c		 je	 SHORT $LN6@Optimize
  0004a	50		 push	 eax
  0004b	e8 00 00 00 00	 call	 ??_V@YAXPAX@Z		; operator delete[]
  00050	83 c4 04	 add	 esp, 4
  00053	8d 5e 20	 lea	 ebx, DWORD PTR [esi+32]
$LN6@Optimize:

; 287  : 		m_apOffset = apOffset;

  00056	8b 45 fc	 mov	 eax, DWORD PTR _apOffset$1$[ebp]
  00059	89 46 08	 mov	 DWORD PTR [esi+8], eax
$LN16@Optimize:

; 288  : 	}
; 289  : 	if( m_nMaxByte > m_nCurOffset )

  0005c	8b 46 0c	 mov	 eax, DWORD PTR [esi+12]
  0005f	39 46 14	 cmp	 DWORD PTR [esi+20], eax
  00062	7e 5b		 jle	 SHORT $LN7@Optimize

; 290  : 	{
; 291  : 		LPBYTE pData = new BYTE[ m_nCurOffset ]; 

  00064	50		 push	 eax
  00065	e8 00 00 00 00	 call	 ??_U@YAPAXI@Z		; operator new[]

; 292  : 		memcpy( pData, m_pData, m_nCurOffset ); 

  0006a	ff 76 0c	 push	 DWORD PTR [esi+12]
  0006d	89 45 fc	 mov	 DWORD PTR _pData$1$[ebp], eax
  00070	ff 76 04	 push	 DWORD PTR [esi+4]
  00073	50		 push	 eax
  00074	e8 00 00 00 00	 call	 _memcpy

; 293  : 		for( int i = 0; i <= m_nEndIndex; i++ )

  00079	33 c9		 xor	 ecx, ecx
  0007b	83 c4 10	 add	 esp, 16			; 00000010H
  0007e	39 4e 20	 cmp	 DWORD PTR [esi+32], ecx
  00081	7c 19		 jl	 SHORT $LN3@Optimize
$LL4@Optimize:

; 294  : 			if( m_apOffset[ i ] )

  00083	8b 46 08	 mov	 eax, DWORD PTR [esi+8]
  00086	8d 14 88	 lea	 edx, DWORD PTR [eax+ecx*4]
  00089	8b 02		 mov	 eax, DWORD PTR [edx]
  0008b	85 c0		 test	 eax, eax
  0008d	74 08		 je	 SHORT $LN2@Optimize

; 295  : 				m_apOffset[ i ] = ( m_apOffset[ i ] - m_pData ) + pData; 

  0008f	2b 46 04	 sub	 eax, DWORD PTR [esi+4]
  00092	03 45 fc	 add	 eax, DWORD PTR _pData$1$[ebp]
  00095	89 02		 mov	 DWORD PTR [edx], eax
$LN2@Optimize:

; 293  : 		for( int i = 0; i <= m_nEndIndex; i++ )

  00097	41		 inc	 ecx
  00098	3b 0b		 cmp	 ecx, DWORD PTR [ebx]
  0009a	7e e7		 jle	 SHORT $LL4@Optimize
$LN3@Optimize:

; 296  : 		SAFE_DELETE_ARRAY( m_pData );

  0009c	8b 46 04	 mov	 eax, DWORD PTR [esi+4]
  0009f	85 c0		 test	 eax, eax
  000a1	74 10		 je	 SHORT $LN9@Optimize
  000a3	50		 push	 eax
  000a4	e8 00 00 00 00	 call	 ??_V@YAXPAX@Z		; operator delete[]
  000a9	83 c4 04	 add	 esp, 4
  000ac	c7 46 04 00 00
	00 00		 mov	 DWORD PTR [esi+4], 0
$LN9@Optimize:

; 297  : 		m_pData = pData;

  000b3	8b 45 fc	 mov	 eax, DWORD PTR _pData$1$[ebp]
  000b6	89 46 04	 mov	 DWORD PTR [esi+4], eax

; 298  : 		m_nMaxByte = m_nCurOffset ;

  000b9	8b 46 0c	 mov	 eax, DWORD PTR [esi+12]
  000bc	89 46 14	 mov	 DWORD PTR [esi+20], eax
$LN7@Optimize:

; 299  : 	}
; 300  : }

  000bf	5f		 pop	 edi
  000c0	5e		 pop	 esi
  000c1	5b		 pop	 ebx
  000c2	8b e5		 mov	 esp, ebp
  000c4	5d		 pop	 ebp
  000c5	c3		 ret	 0
?Optimize@?$CFixedArray@UtagWORLD@@@@QAEXXZ ENDP	; CFixedArray<tagWORLD>::Optimize
_TEXT	ENDS
; Function compile flags: /Ogtp
; File C:\IAGOS\server\v18\Source\Source\_Common\data.h
;	COMDAT ?SetAtGrow@?$CFixedArray@UtagWORLD@@@@QAEXHPAUtagWORLD@@H@Z
_TEXT	SEGMENT
tv437 = -16						; size = 4
tv440 = -16						; size = 4
tv469 = -16						; size = 4
_pData2$1$ = -12					; size = 4
$T1 = -12						; size = 4
$T2 = -8						; size = 4
_apOffset$1$ = -4					; size = 4
$T3 = -4						; size = 4
_nIndex$ = 8						; size = 4
_pData$ = 12						; size = 4
_nSize$ = 16						; size = 4
?SetAtGrow@?$CFixedArray@UtagWORLD@@@@QAEXHPAUtagWORLD@@H@Z PROC ; CFixedArray<tagWORLD>::SetAtGrow, COMDAT
; _this$ = ecx

; 310  : {

  00000	55		 push	 ebp
  00001	8b ec		 mov	 ebp, esp
  00003	83 ec 10	 sub	 esp, 16			; 00000010H

; 311  : 	if( nIndex >= m_nMaxIndex )

  00006	8b 45 08	 mov	 eax, DWORD PTR _nIndex$[ebp]
  00009	53		 push	 ebx
  0000a	8b d9		 mov	 ebx, ecx
  0000c	56		 push	 esi
  0000d	57		 push	 edi
  0000e	8d 7b 20	 lea	 edi, DWORD PTR [ebx+32]
  00011	8d 73 08	 lea	 esi, DWORD PTR [ebx+8]
  00014	89 7d f4	 mov	 DWORD PTR $T1[ebp], edi
  00017	89 75 f8	 mov	 DWORD PTR $T2[ebp], esi
  0001a	3b 43 18	 cmp	 eax, DWORD PTR [ebx+24]
  0001d	7c 5f		 jl	 SHORT $LN25@SetAtGrow

; 312  : 	{
; 313  : 		LPBYTE* apOffset = new LPBYTE [ nIndex * 2 ]; // µÎąč Č®Ŕĺ 

  0001f	03 c0		 add	 eax, eax
  00021	b9 04 00 00 00	 mov	 ecx, 4
  00026	89 45 f0	 mov	 DWORD PTR tv440[ebp], eax
  00029	f7 e1		 mul	 ecx
  0002b	b9 ff ff ff ff	 mov	 ecx, -1
  00030	0f 42 c1	 cmovb	 eax, ecx
  00033	50		 push	 eax
  00034	e8 00 00 00 00	 call	 ??_U@YAPAXI@Z		; operator new[]

; 314  : 		ZeroMemory( apOffset, sizeof( LPBYTE ) * nIndex * 2 ); // ĂĘ±âČ­ 

  00039	8b 4d 08	 mov	 ecx, DWORD PTR _nIndex$[ebp]
  0003c	c1 e1 03	 shl	 ecx, 3
  0003f	51		 push	 ecx
  00040	6a 00		 push	 0
  00042	50		 push	 eax
  00043	89 45 fc	 mov	 DWORD PTR _apOffset$1$[ebp], eax
  00046	e8 00 00 00 00	 call	 _memset

; 315  : 		memcpy( apOffset, m_apOffset, sizeof( LPBYTE ) * ( m_nEndIndex + 1 ) ); // şą»ç 

  0004b	8b 0f		 mov	 ecx, DWORD PTR [edi]
  0004d	8d 0c 8d 04 00
	00 00		 lea	 ecx, DWORD PTR [ecx*4+4]
  00054	51		 push	 ecx
  00055	ff 36		 push	 DWORD PTR [esi]
  00057	ff 75 fc	 push	 DWORD PTR _apOffset$1$[ebp]
  0005a	e8 00 00 00 00	 call	 _memcpy

; 316  : 		SAFE_DELETE_ARRAY( m_apOffset );

  0005f	8b 06		 mov	 eax, DWORD PTR [esi]
  00061	83 c4 1c	 add	 esp, 28			; 0000001cH
  00064	85 c0		 test	 eax, eax
  00066	74 09		 je	 SHORT $LN6@SetAtGrow
  00068	50		 push	 eax
  00069	e8 00 00 00 00	 call	 ??_V@YAXPAX@Z		; operator delete[]
  0006e	83 c4 04	 add	 esp, 4
$LN6@SetAtGrow:

; 317  : 		m_apOffset = apOffset;

  00071	8b 45 fc	 mov	 eax, DWORD PTR _apOffset$1$[ebp]
  00074	89 06		 mov	 DWORD PTR [esi], eax

; 318  : 		m_nMaxIndex = nIndex * 2;

  00076	8b 45 f0	 mov	 eax, DWORD PTR tv440[ebp]
  00079	89 43 18	 mov	 DWORD PTR [ebx+24], eax
  0007c	eb 06		 jmp	 SHORT $LN21@SetAtGrow
$LN25@SetAtGrow:
  0007e	89 7d f4	 mov	 DWORD PTR $T1[ebp], edi
  00081	89 75 f8	 mov	 DWORD PTR $T2[ebp], esi
$LN21@SetAtGrow:

; 319  : 	}
; 320  : 	int nSizeTemp 
; 321  : 		= nSize ? nSize : sizeof( T );

  00084	8b 45 10	 mov	 eax, DWORD PTR _nSize$[ebp]

; 322  : 	if( m_nCurOffset + nSizeTemp > m_nMaxByte )

  00087	8d 53 0c	 lea	 edx, DWORD PTR [ebx+12]
  0008a	85 c0		 test	 eax, eax
  0008c	89 55 fc	 mov	 DWORD PTR $T3[ebp], edx
  0008f	b9 04 01 00 00	 mov	 ecx, 260		; 00000104H
  00094	0f 45 c8	 cmovne	 ecx, eax
  00097	8b 02		 mov	 eax, DWORD PTR [edx]
  00099	03 c1		 add	 eax, ecx
  0009b	3b 43 14	 cmp	 eax, DWORD PTR [ebx+20]
  0009e	7e 7a		 jle	 SHORT $LN26@SetAtGrow

; 323  : 	{
; 324  : 		m_nMaxByte = m_nCurOffset * 2 + nSizeTemp;

  000a0	8b 02		 mov	 eax, DWORD PTR [edx]
  000a2	8d 04 41	 lea	 eax, DWORD PTR [ecx+eax*2]

; 325  : 		LPBYTE pData2 = new BYTE[ m_nMaxByte ]; // µÎąč Č®Ŕĺ 

  000a5	50		 push	 eax
  000a6	89 43 14	 mov	 DWORD PTR [ebx+20], eax
  000a9	e8 00 00 00 00	 call	 ??_U@YAPAXI@Z		; operator new[]

; 326  : 		memcpy( pData2, m_pData, m_nCurOffset ); // şą»ç 

  000ae	ff 73 0c	 push	 DWORD PTR [ebx+12]
  000b1	89 45 f4	 mov	 DWORD PTR _pData2$1$[ebp], eax
  000b4	ff 73 04	 push	 DWORD PTR [ebx+4]
  000b7	50		 push	 eax
  000b8	e8 00 00 00 00	 call	 _memcpy

; 327  : 		for( int i = 0; i <= m_nEndIndex; i++ )

  000bd	33 c9		 xor	 ecx, ecx
  000bf	8d 43 0c	 lea	 eax, DWORD PTR [ebx+12]
  000c2	83 c4 10	 add	 esp, 16			; 00000010H
  000c5	89 45 fc	 mov	 DWORD PTR $T3[ebp], eax
  000c8	39 0f		 cmp	 DWORD PTR [edi], ecx
  000ca	7c 25		 jl	 SHORT $LN22@SetAtGrow
  000cc	0f 1f 40 00	 npad	 4
$LL4@SetAtGrow:

; 328  : 			if( m_apOffset[ i ] )

  000d0	8b 06		 mov	 eax, DWORD PTR [esi]
  000d2	8d 14 88	 lea	 edx, DWORD PTR [eax+ecx*4]
  000d5	8b 02		 mov	 eax, DWORD PTR [edx]
  000d7	85 c0		 test	 eax, eax
  000d9	74 08		 je	 SHORT $LN2@SetAtGrow

; 329  : 				m_apOffset[ i ] = ( m_apOffset[ i ] - m_pData ) + pData2; 

  000db	2b 43 04	 sub	 eax, DWORD PTR [ebx+4]
  000de	03 45 f4	 add	 eax, DWORD PTR _pData2$1$[ebp]
  000e1	89 02		 mov	 DWORD PTR [edx], eax
$LN2@SetAtGrow:

; 327  : 		for( int i = 0; i <= m_nEndIndex; i++ )

  000e3	41		 inc	 ecx
  000e4	3b 0f		 cmp	 ecx, DWORD PTR [edi]
  000e6	7e e8		 jle	 SHORT $LL4@SetAtGrow

; 318  : 		m_nMaxIndex = nIndex * 2;

  000e8	8d 43 0c	 lea	 eax, DWORD PTR [ebx+12]
  000eb	8d 73 08	 lea	 esi, DWORD PTR [ebx+8]
  000ee	89 45 fc	 mov	 DWORD PTR $T3[ebp], eax
$LN22@SetAtGrow:

; 330  : 		SAFE_DELETE_ARRAY( m_pData );

  000f1	8b 43 04	 mov	 eax, DWORD PTR [ebx+4]
  000f4	89 75 f8	 mov	 DWORD PTR $T2[ebp], esi
  000f7	85 c0		 test	 eax, eax
  000f9	74 10		 je	 SHORT $LN9@SetAtGrow
  000fb	50		 push	 eax
  000fc	e8 00 00 00 00	 call	 ??_V@YAXPAX@Z		; operator delete[]
  00101	83 c4 04	 add	 esp, 4
  00104	c7 43 04 00 00
	00 00		 mov	 DWORD PTR [ebx+4], 0
$LN9@SetAtGrow:

; 331  : 		m_pData = pData2;

  0010b	8b 45 f4	 mov	 eax, DWORD PTR _pData2$1$[ebp]
  0010e	8b 55 fc	 mov	 edx, DWORD PTR $T3[ebp]
  00111	89 43 04	 mov	 DWORD PTR [ebx+4], eax
  00114	8d 43 20	 lea	 eax, DWORD PTR [ebx+32]
  00117	89 45 f4	 mov	 DWORD PTR $T1[ebp], eax
$LN26@SetAtGrow:

; 332  : 	}
; 333  : 	// »çŔĚÁî ŔÚĂĽżˇ şŻµżŔĚ ľř´Â °ćżěŔÓ( T »çŔĚÁî°ˇ ŔŻÁöµÇ´Â °ćżě )
; 334  : 	if( nSize == 0 )

  0011a	8b 45 08	 mov	 eax, DWORD PTR _nIndex$[ebp]
  0011d	8b 4d 10	 mov	 ecx, DWORD PTR _nSize$[ebp]
  00120	8d 3c 85 00 00
	00 00		 lea	 edi, DWORD PTR [eax*4]
  00127	8b 06		 mov	 eax, DWORD PTR [esi]
  00129	89 7d f0	 mov	 DWORD PTR tv469[ebp], edi
  0012c	8b 04 07	 mov	 eax, DWORD PTR [edi+eax]
  0012f	85 c9		 test	 ecx, ecx
  00131	75 31		 jne	 SHORT $LN10@SetAtGrow

; 335  : 	{
; 336  : 		if( m_apOffset[ nIndex ] == NULL )

  00133	8b 75 0c	 mov	 esi, DWORD PTR _pData$[ebp]
  00136	b9 41 00 00 00	 mov	 ecx, 65			; 00000041H
  0013b	85 c0		 test	 eax, eax
  0013d	75 1f		 jne	 SHORT $LN12@SetAtGrow

; 337  : 		{
; 338  : 			memcpy( &m_pData[ m_nCurOffset ], pData, sizeof( T ) );

  0013f	8b 7b 04	 mov	 edi, DWORD PTR [ebx+4]
  00142	03 3a		 add	 edi, DWORD PTR [edx]

; 339  : 			m_apOffset[ nIndex ] = (LPBYTE) m_pData + m_nCurOffset;

  00144	8b 45 f8	 mov	 eax, DWORD PTR $T2[ebp]
  00147	f3 a5		 rep movsd
  00149	8b 4b 04	 mov	 ecx, DWORD PTR [ebx+4]
  0014c	8b 00		 mov	 eax, DWORD PTR [eax]
  0014e	8b 75 f0	 mov	 esi, DWORD PTR tv469[ebp]
  00151	03 0a		 add	 ecx, DWORD PTR [edx]
  00153	89 0c 06	 mov	 DWORD PTR [esi+eax], ecx

; 340  : 			m_nCurOffset += sizeof( T );

  00156	81 02 04 01 00
	00		 add	 DWORD PTR [edx], 260	; 00000104H

; 341  : 		}

  0015c	eb 47		 jmp	 SHORT $LN15@SetAtGrow
$LN12@SetAtGrow:

; 342  : 		else
; 343  : 		{
; 344  : 			memcpy( m_apOffset[ nIndex ], pData, sizeof( T ) );

  0015e	8b f8		 mov	 edi, eax
  00160	f3 a5		 rep movsd

; 345  : 		}
; 346  : 	}

  00162	eb 41		 jmp	 SHORT $LN15@SetAtGrow
$LN10@SetAtGrow:

; 347  : 	// °˘ ±¸Á¶ĂĽŔÇ »çŔĚÁî°ˇ şŻ°ćµĘ. ex) ˝şĆ®¸µŔÇ ±ćŔĚżˇ µű¶óĽ­.
; 348  : 	else
; 349  : 	{
; 350  : 		if( m_apOffset[ nIndex ] == NULL )

  00164	85 c0		 test	 eax, eax
  00166	75 26		 jne	 SHORT $LN14@SetAtGrow

; 351  : 		{
; 352  : 			memcpy( &m_pData[ m_nCurOffset ], pData, nSize );

  00168	8b 02		 mov	 eax, DWORD PTR [edx]
  0016a	03 43 04	 add	 eax, DWORD PTR [ebx+4]
  0016d	51		 push	 ecx
  0016e	ff 75 0c	 push	 DWORD PTR _pData$[ebp]
  00171	50		 push	 eax
  00172	e8 00 00 00 00	 call	 _memcpy

; 353  : 			m_apOffset[ nIndex ] = (LPBYTE) m_pData + m_nCurOffset;

  00177	8b 55 fc	 mov	 edx, DWORD PTR $T3[ebp]
  0017a	83 c4 0c	 add	 esp, 12			; 0000000cH
  0017d	8b 06		 mov	 eax, DWORD PTR [esi]
  0017f	8b 0a		 mov	 ecx, DWORD PTR [edx]
  00181	03 4b 04	 add	 ecx, DWORD PTR [ebx+4]
  00184	89 0c 07	 mov	 DWORD PTR [edi+eax], ecx

; 354  : 			m_nCurOffset += nSize;

  00187	8b 45 10	 mov	 eax, DWORD PTR _nSize$[ebp]
  0018a	01 02		 add	 DWORD PTR [edx], eax

; 355  : 		}

  0018c	eb 17		 jmp	 SHORT $LN15@SetAtGrow
$LN14@SetAtGrow:

; 356  : 		else
; 357  : 		{
; 358  : 			// »çŔĚÁî°ˇ şŻ°ćµÇ´Â ±¸Á¶żˇĽ­´Â ŔÎµ¦˝ş ł»żëŔ» ąŮ˛Ů¸é ľČµĘ.
; 359  : 			WriteLog( "%s, %d", __FILE__, __LINE__ );

  0018e	68 67 01 00 00	 push	 359			; 00000167H
  00193	68 00 00 00 00	 push	 OFFSET ??_C@_0DB@ILBMOCBP@C?3?2IAGOS?2server?2v18?2Source?2Sour@
  00198	68 00 00 00 00	 push	 OFFSET ??_C@_06OJLEAOEG@?$CFs?0?5?$CFd@
  0019d	e8 00 00 00 00	 call	 ?WriteLog@@YAXPBDZZ	; WriteLog
  001a2	83 c4 0c	 add	 esp, 12			; 0000000cH
$LN15@SetAtGrow:

; 360  : 		}
; 361  : 	}
; 362  : 	if( nIndex > m_nEndIndex )

  001a5	8b 45 f4	 mov	 eax, DWORD PTR $T1[ebp]
  001a8	8b 4d 08	 mov	 ecx, DWORD PTR _nIndex$[ebp]
  001ab	5f		 pop	 edi
  001ac	5e		 pop	 esi
  001ad	5b		 pop	 ebx
  001ae	3b 08		 cmp	 ecx, DWORD PTR [eax]
  001b0	7e 02		 jle	 SHORT $LN16@SetAtGrow

; 363  : 		m_nEndIndex = nIndex;

  001b2	89 08		 mov	 DWORD PTR [eax], ecx
$LN16@SetAtGrow:

; 364  : }

  001b4	8b e5		 mov	 esp, ebp
  001b6	5d		 pop	 ebp
  001b7	c2 0c 00	 ret	 12			; 0000000cH
?SetAtGrow@?$CFixedArray@UtagWORLD@@@@QAEXHPAUtagWORLD@@H@Z ENDP ; CFixedArray<tagWORLD>::SetAtGrow
_TEXT	ENDS
; Function compile flags: /Ogtp
; File C:\IAGOS\server\v18\Source\Source\_Common\data.h
;	COMDAT ??1?$CFixedArray@UtagWORLD@@@@UAE@XZ
_TEXT	SEGMENT
??1?$CFixedArray@UtagWORLD@@@@UAE@XZ PROC		; CFixedArray<tagWORLD>::~CFixedArray<tagWORLD>, COMDAT
; _this$ = ecx

; 238  : {

  00000	56		 push	 esi
  00001	8b f1		 mov	 esi, ecx

; 239  : 	SAFE_DELETE_ARRAY( m_apOffset );

  00003	8b 46 08	 mov	 eax, DWORD PTR [esi+8]
  00006	c7 06 00 00 00
	00		 mov	 DWORD PTR [esi], OFFSET ??_7?$CFixedArray@UtagWORLD@@@@6B@
  0000c	85 c0		 test	 eax, eax
  0000e	74 10		 je	 SHORT $LN2@CFixedArra
  00010	50		 push	 eax
  00011	e8 00 00 00 00	 call	 ??_V@YAXPAX@Z		; operator delete[]
  00016	83 c4 04	 add	 esp, 4
  00019	c7 46 08 00 00
	00 00		 mov	 DWORD PTR [esi+8], 0
$LN2@CFixedArra:

; 240  : 	SAFE_DELETE_ARRAY( m_pData ); 

  00020	8b 46 04	 mov	 eax, DWORD PTR [esi+4]
  00023	85 c0		 test	 eax, eax
  00025	74 10		 je	 SHORT $LN3@CFixedArra
  00027	50		 push	 eax
  00028	e8 00 00 00 00	 call	 ??_V@YAXPAX@Z		; operator delete[]
  0002d	83 c4 04	 add	 esp, 4
  00030	c7 46 04 00 00
	00 00		 mov	 DWORD PTR [esi+4], 0
$LN3@CFixedArra:

; 241  : }

  00037	5e		 pop	 esi
  00038	c3		 ret	 0
??1?$CFixedArray@UtagWORLD@@@@UAE@XZ ENDP		; CFixedArray<tagWORLD>::~CFixedArray<tagWORLD>
_TEXT	ENDS
; Function compile flags: /Ogtp
; File C:\IAGOS\server\v18\Source\Source\_Common\worldmng.cpp
; File C:\Program Files\Microsoft Visual Studio\2022\Professional\VC\Tools\MSVC\14.44.35207\atlmfc\include\atltypes.h
; File C:\IAGOS\server\v18\Source\Source\_Common\worldmng.cpp
; File C:\Program Files\Microsoft Visual Studio\2022\Professional\VC\Tools\MSVC\14.44.35207\atlmfc\include\atltypes.h
; File C:\IAGOS\server\v18\Source\Source\_Common\worldmng.cpp
; File C:\Program Files\Microsoft Visual Studio\2022\Professional\VC\Tools\MSVC\14.44.35207\atlmfc\include\atltypes.h
; File C:\IAGOS\server\v18\Source\Source\_Common\Region.h
; File C:\IAGOS\server\v18\Source\Source\_Common\worldmng.cpp
; File C:\Program Files\Microsoft Visual Studio\2022\Professional\VC\Tools\MSVC\14.44.35207\atlmfc\include\atltypes.h
; File C:\IAGOS\server\v18\Source\Source\_Common\worldmng.cpp
; File C:\IAGOS\server\v18\Source\Source\DX_SDK\d3dx9math.inl
; File C:\IAGOS\server\v18\Source\Source\_Common\worldmng.cpp
; File C:\IAGOS\server\v18\Source\Source\DX_SDK\d3dx9math.inl
; File C:\IAGOS\server\v18\Source\Source\_Common\worldmng.cpp
;	COMDAT ?GetNearRevivalPos@CWorldMng@@QAEPAUREGIONELEM@@KAAUD3DXVECTOR3@@@Z
_TEXT	SEGMENT
_point$ = -24						; size = 8
tv605 = -20						; size = 4
_nSize$1$ = -20						; size = 4
_ptr$1$ = -16						; size = 4
_this$1$ = -12						; size = 4
$T1 = -8						; size = 4
_i$1$ = -4						; size = 4
_dwWorldId$ = 8						; size = 4
_vPos$ = 12						; size = 4
?GetNearRevivalPos@CWorldMng@@QAEPAUREGIONELEM@@KAAUD3DXVECTOR3@@@Z PROC ; CWorldMng::GetNearRevivalPos, COMDAT
; _this$ = ecx

; 628  : {

  00000	55		 push	 ebp
  00001	8b ec		 mov	 ebp, esp
  00003	83 ec 18	 sub	 esp, 24			; 00000018H
  00006	53		 push	 ebx
  00007	8b d1		 mov	 edx, ecx
; File C:\Program Files\Microsoft Visual Studio\2022\Professional\VC\Tools\MSVC\14.44.35207\atlmfc\include\atltypes.h

; 405  : 	y = 0;

  00009	c7 45 ec 00 00
	00 00		 mov	 DWORD PTR _point$[ebp+4], 0
; File C:\IAGOS\server\v18\Source\Source\_Common\worldmng.cpp

; 628  : {

  00010	56		 push	 esi
  00011	57		 push	 edi

; 633  : 	for( int i = 0; i < nSize; i++ )

  00012	33 ff		 xor	 edi, edi
  00014	89 55 f4	 mov	 DWORD PTR _this$1$[ebp], edx
  00017	8b 82 10 f4 02
	00		 mov	 eax, DWORD PTR [edx+193552]
  0001d	c7 45 f0 00 00
	00 00		 mov	 DWORD PTR _ptr$1$[ebp], 0
; File C:\Program Files\Microsoft Visual Studio\2022\Professional\VC\Tools\MSVC\14.44.35207\atlmfc\include\atltypes.h

; 404  : 	x = 0;

  00024	c7 45 e8 00 00
	00 00		 mov	 DWORD PTR _point$[ebp], 0
; File C:\IAGOS\server\v18\Source\Source\_Common\worldmng.cpp

; 632  : 	int nSize	= m_aRevivalRgn.GetSize();

  0002b	89 45 ec	 mov	 DWORD PTR _nSize$1$[ebp], eax

; 633  : 	for( int i = 0; i < nSize; i++ )

  0002e	89 7d fc	 mov	 DWORD PTR _i$1$[ebp], edi
  00031	85 c0		 test	 eax, eax
  00033	0f 8e 87 00 00
	00		 jle	 $LN34@GetNearRev
; File C:\Program Files\Microsoft Visual Studio\2022\Professional\VC\Tools\MSVC\14.44.35207\atlmfc\include\atltypes.h

; 404  : 	x = 0;

  00039	8d b2 b8 f4 02
	00		 lea	 esi, DWORD PTR [edx+193720]
  0003f	90		 npad	 1
$LL4@GetNearRev:
; File C:\IAGOS\server\v18\Source\Source\_Common\Region.h

; 88   : 	if( nIndex >= 0 && nIndex < MAX_REGIONELEM )

  00040	81 ff ff 00 00
	00		 cmp	 edi, 255		; 000000ffH
  00046	77 1c		 ja	 SHORT $LN16@GetNearRev

; 89   : 		return &m_aRegionElem[nIndex];

  00048	8d 46 98	 lea	 eax, DWORD PTR [esi-104]
  0004b	8b de		 mov	 ebx, esi
  0004d	89 45 f8	 mov	 DWORD PTR $T1[ebp], eax
  00050	8d 96 4c 02 00
	00		 lea	 edx, DWORD PTR [esi+588]
  00056	8d 8e 20 02 00
	00		 lea	 ecx, DWORD PTR [esi+544]
  0005c	8d 86 1c 02 00
	00		 lea	 eax, DWORD PTR [esi+540]
  00062	eb 19		 jmp	 SHORT $LN15@GetNearRev
$LN16@GetNearRev:

; 90   : 	return NULL;

  00064	ba f0 02 00 00	 mov	 edx, 752		; 000002f0H
  00069	c7 45 f8 3c 00
	00 00		 mov	 DWORD PTR $T1[ebp], 60	; 0000003cH
  00070	bb a4 00 00 00	 mov	 ebx, 164		; 000000a4H
  00075	b8 c0 02 00 00	 mov	 eax, 704		; 000002c0H
  0007a	8d 4a d4	 lea	 ecx, DWORD PTR [edx-44]
$LN15@GetNearRev:
; File C:\IAGOS\server\v18\Source\Source\_Common\worldmng.cpp

; 636  : 		if( dwWorldId == pRgnElem->m_dwWorldId && pRgnElem->m_dwIndex == RI_REVIVAL && pRgnElem->m_bChaoKey == FALSE )

  0007d	8b 7d 08	 mov	 edi, DWORD PTR _dwWorldId$[ebp]
  00080	3b 38		 cmp	 edi, DWORD PTR [eax]
  00082	8b 7d fc	 mov	 edi, DWORD PTR _i$1$[ebp]
  00085	75 27		 jne	 SHORT $LN2@GetNearRev
  00087	83 39 0d	 cmp	 DWORD PTR [ecx], 13	; 0000000dH
  0008a	75 22		 jne	 SHORT $LN2@GetNearRev
  0008c	83 3a 00	 cmp	 DWORD PTR [edx], 0
  0008f	75 1d		 jne	 SHORT $LN2@GetNearRev

; 637  : 		{
; 638  : 			point.x	= (LONG)( vPos.x );

  00091	8b 45 0c	 mov	 eax, DWORD PTR _vPos$[ebp]
  00094	f3 0f 2c 08	 cvttss2si ecx, DWORD PTR [eax]

; 639  : 			point.y	= (LONG)( vPos.z );

  00098	f3 0f 2c 40 08	 cvttss2si eax, DWORD PTR [eax+8]
; File C:\Program Files\Microsoft Visual Studio\2022\Professional\VC\Tools\MSVC\14.44.35207\atlmfc\include\atltypes.h

; 652  : 	return ::PtInRect(this, point);

  0009d	50		 push	 eax
  0009e	51		 push	 ecx
  0009f	53		 push	 ebx
  000a0	ff 15 00 00 00
	00		 call	 DWORD PTR __imp__PtInRect@12
; File C:\IAGOS\server\v18\Source\Source\_Common\worldmng.cpp

; 640  : 			if( pRgnElem->m_rect.PtInRect( point ) )

  000a6	85 c0		 test	 eax, eax
  000a8	0f 85 b1 00 00
	00		 jne	 $LN31@GetNearRev
$LN2@GetNearRev:

; 633  : 	for( int i = 0; i < nSize; i++ )

  000ae	47		 inc	 edi
  000af	81 c6 f4 02 00
	00		 add	 esi, 756		; 000002f4H
  000b5	89 7d fc	 mov	 DWORD PTR _i$1$[ebp], edi
  000b8	3b 7d ec	 cmp	 edi, DWORD PTR _nSize$1$[ebp]
  000bb	7c 83		 jl	 SHORT $LL4@GetNearRev
  000bd	8b 55 f4	 mov	 edx, DWORD PTR _this$1$[ebp]
$LN34@GetNearRev:

; 642  : 		}
; 643  : 	}
; 644  : 
; 645  : 	nSize	= m_aRevivalPos.GetSize();

  000c0	8b 5a 0c	 mov	 ebx, DWORD PTR [edx+12]
  000c3	33 c9		 xor	 ecx, ecx

; 646  : 	long	d	= 2147483647L, tmp;	// 46340	// 21722

  000c5	bf ff ff ff 7f	 mov	 edi, 2147483647		; 7fffffffH

; 647  : 	for( int i = 0; i < nSize; i++ )

  000ca	85 db		 test	 ebx, ebx
  000cc	0f 8e 81 00 00
	00		 jle	 $LN6@GetNearRev
  000d2	8b 75 08	 mov	 esi, DWORD PTR _dwWorldId$[ebp]
; File C:\IAGOS\server\v18\Source\Source\DX_SDK\d3dx9math.inl

; 383  :     return D3DXVECTOR3(x - v.x, y - v.y, z - v.z);

  000d5	83 c2 10	 add	 edx, 16			; 00000010H
  000d8	0f 1f 84 00 00
	00 00 00	 npad	 8
$LL7@GetNearRev:
; File C:\IAGOS\server\v18\Source\Source\_Common\worldmng.cpp

; 650  : 		if( dwWorldId == pRgnElem->m_dwWorldId && pRgnElem->m_bChaoKey == FALSE )

  000e0	81 f9 ff 00 00
	00		 cmp	 ecx, 255		; 000000ffH
  000e6	c7 45 ec 00 00
	00 00		 mov	 DWORD PTR tv605[ebp], 0
  000ed	8b c2		 mov	 eax, edx
  000ef	0f 47 45 ec	 cmova	 eax, DWORD PTR tv605[ebp]
  000f3	3b b0 c0 02 00
	00		 cmp	 esi, DWORD PTR [eax+704]
  000f9	75 4d		 jne	 SHORT $LN5@GetNearRev
  000fb	83 b8 f0 02 00
	00 00		 cmp	 DWORD PTR [eax+752], 0
  00102	75 44		 jne	 SHORT $LN5@GetNearRev
; File C:\IAGOS\server\v18\Source\Source\DX_SDK\d3dx9math.inl

; 383  :     return D3DXVECTOR3(x - v.x, y - v.y, z - v.z);

  00104	8b 75 0c	 mov	 esi, DWORD PTR _vPos$[ebp]
  00107	f3 0f 10 0e	 movss	 xmm1, DWORD PTR [esi]
  0010b	f3 0f 10 56 04	 movss	 xmm2, DWORD PTR [esi+4]
  00110	f3 0f 5c 50 14	 subss	 xmm2, DWORD PTR [eax+20]
  00115	f3 0f 5c 48 10	 subss	 xmm1, DWORD PTR [eax+16]
  0011a	f3 0f 10 46 08	 movss	 xmm0, DWORD PTR [esi+8]
  0011f	f3 0f 5c 40 18	 subss	 xmm0, DWORD PTR [eax+24]

; 1698 :     return pV->x * pV->x + pV->y * pV->y + pV->z * pV->z;

  00124	f3 0f 59 d2	 mulss	 xmm2, xmm2

; 302  :     z = fz;

  00128	f3 0f 59 c9	 mulss	 xmm1, xmm1

; 1698 :     return pV->x * pV->x + pV->y * pV->y + pV->z * pV->z;

  0012c	f3 0f 59 c0	 mulss	 xmm0, xmm0
  00130	f3 0f 58 d1	 addss	 xmm2, xmm1
  00134	f3 0f 58 d0	 addss	 xmm2, xmm0
; File C:\IAGOS\server\v18\Source\Source\_Common\worldmng.cpp

; 653  : 			tmp		= (long)D3DXVec3LengthSq( &vd );

  00138	f3 0f 2c f2	 cvttss2si esi, xmm2

; 654  : 			if( tmp < d )

  0013c	3b f7		 cmp	 esi, edi
  0013e	7d 05		 jge	 SHORT $LN39@GetNearRev

; 655  : 			{
; 656  : 				ptr		= pRgnElem;

  00140	89 45 f0	 mov	 DWORD PTR _ptr$1$[ebp], eax

; 657  : 				d	= tmp;

  00143	8b fe		 mov	 edi, esi
$LN39@GetNearRev:

; 647  : 	for( int i = 0; i < nSize; i++ )

  00145	8b 75 08	 mov	 esi, DWORD PTR _dwWorldId$[ebp]
$LN5@GetNearRev:
  00148	41		 inc	 ecx
  00149	81 c2 f4 02 00
	00		 add	 edx, 756		; 000002f4H
  0014f	3b cb		 cmp	 ecx, ebx
  00151	7c 8d		 jl	 SHORT $LL7@GetNearRev
$LN6@GetNearRev:

; 658  : 			}
; 659  : 		}
; 660  : 	}
; 661  : 	return ptr;

  00153	8b 45 f0	 mov	 eax, DWORD PTR _ptr$1$[ebp]
  00156	5f		 pop	 edi

; 662  : }

  00157	5e		 pop	 esi
  00158	5b		 pop	 ebx
  00159	8b e5		 mov	 esp, ebp
  0015b	5d		 pop	 ebp
  0015c	c2 08 00	 ret	 8
$LN31@GetNearRev:

; 641  : 				return GetRevivalPos( dwWorldId, pRgnElem->m_szKey );

  0015f	ff 75 f8	 push	 DWORD PTR $T1[ebp]
  00162	8b 4d f4	 mov	 ecx, DWORD PTR _this$1$[ebp]
  00165	ff 75 08	 push	 DWORD PTR _dwWorldId$[ebp]
  00168	e8 00 00 00 00	 call	 ?GetRevivalPos@CWorldMng@@QAEPAUREGIONELEM@@KPBD@Z ; CWorldMng::GetRevivalPos
  0016d	5f		 pop	 edi

; 662  : }

  0016e	5e		 pop	 esi
  0016f	5b		 pop	 ebx
  00170	8b e5		 mov	 esp, ebp
  00172	5d		 pop	 ebp
  00173	c2 08 00	 ret	 8
?GetNearRevivalPos@CWorldMng@@QAEPAUREGIONELEM@@KAAUD3DXVECTOR3@@@Z ENDP ; CWorldMng::GetNearRevivalPos
_TEXT	ENDS
; Function compile flags: /Ogtp
; File C:\IAGOS\server\v18\Source\Source\_Common\worldmng.cpp
;	COMDAT ?GetRevivalPos@CWorldMng@@QAEPAUREGIONELEM@@KPBD@Z
_TEXT	SEGMENT
_nSize$1$ = -4						; size = 4
_dwWorldId$ = 8						; size = 4
_sKey$ = 12						; size = 4
?GetRevivalPos@CWorldMng@@QAEPAUREGIONELEM@@KPBD@Z PROC	; CWorldMng::GetRevivalPos, COMDAT
; _this$ = ecx

; 615  : {

  00000	55		 push	 ebp
  00001	8b ec		 mov	 ebp, esp
  00003	51		 push	 ecx
  00004	53		 push	 ebx

; 616  : 	int nSize	= m_aRevivalPos.GetSize();

  00005	8b 59 0c	 mov	 ebx, DWORD PTR [ecx+12]
  00008	56		 push	 esi
  00009	57		 push	 edi

; 617  : 	PRegionElem pRgnElem;
; 618  : 	for( int i = 0; i < nSize; i++ )

  0000a	33 ff		 xor	 edi, edi
  0000c	89 5d fc	 mov	 DWORD PTR _nSize$1$[ebp], ebx
  0000f	85 db		 test	 ebx, ebx
  00011	7e 6f		 jle	 SHORT $LN13@GetRevival

; 616  : 	int nSize	= m_aRevivalPos.GetSize();

  00013	8b 45 fc	 mov	 eax, DWORD PTR _nSize$1$[ebp]
  00016	8d 59 10	 lea	 ebx, DWORD PTR [ecx+16]
  00019	8b 4d 08	 mov	 ecx, DWORD PTR _dwWorldId$[ebp]
  0001c	0f 1f 40 00	 npad	 4
$LL4@GetRevival:

; 619  : 	{
; 620  : 		pRgnElem	= m_aRevivalPos.GetAt( i );
; 621  : 		if( dwWorldId == pRgnElem->m_dwWorldId && strcmp( sKey, pRgnElem->m_szKey ) == 0 && pRgnElem->m_bChaoKey == FALSE )

  00020	33 d2		 xor	 edx, edx
  00022	8b f3		 mov	 esi, ebx
  00024	81 ff ff 00 00
	00		 cmp	 edi, 255		; 000000ffH
  0002a	0f 47 f2	 cmova	 esi, edx
  0002d	3b 8e c0 02 00
	00		 cmp	 ecx, DWORD PTR [esi+704]
  00033	75 42		 jne	 SHORT $LN2@GetRevival
  00035	8b 4d 0c	 mov	 ecx, DWORD PTR _sKey$[ebp]
  00038	8d 46 3c	 lea	 eax, DWORD PTR [esi+60]
  0003b	0f 1f 44 00 00	 npad	 5
$LL16@GetRevival:
  00040	8a 11		 mov	 dl, BYTE PTR [ecx]
  00042	3a 10		 cmp	 dl, BYTE PTR [eax]
  00044	75 1a		 jne	 SHORT $LN17@GetRevival
  00046	84 d2		 test	 dl, dl
  00048	74 12		 je	 SHORT $LN18@GetRevival
  0004a	8a 51 01	 mov	 dl, BYTE PTR [ecx+1]
  0004d	3a 50 01	 cmp	 dl, BYTE PTR [eax+1]
  00050	75 0e		 jne	 SHORT $LN17@GetRevival
  00052	83 c1 02	 add	 ecx, 2
  00055	83 c0 02	 add	 eax, 2
  00058	84 d2		 test	 dl, dl
  0005a	75 e4		 jne	 SHORT $LL16@GetRevival
$LN18@GetRevival:
  0005c	33 c0		 xor	 eax, eax
  0005e	eb 05		 jmp	 SHORT $LN19@GetRevival
$LN17@GetRevival:
  00060	1b c0		 sbb	 eax, eax
  00062	83 c8 01	 or	 eax, 1
$LN19@GetRevival:
  00065	85 c0		 test	 eax, eax
  00067	75 08		 jne	 SHORT $LN21@GetRevival
  00069	39 86 f0 02 00
	00		 cmp	 DWORD PTR [esi+752], eax
  0006f	74 1c		 je	 SHORT $LN11@GetRevival
$LN21@GetRevival:

; 617  : 	PRegionElem pRgnElem;
; 618  : 	for( int i = 0; i < nSize; i++ )

  00071	8b 4d 08	 mov	 ecx, DWORD PTR _dwWorldId$[ebp]
  00074	8b 45 fc	 mov	 eax, DWORD PTR _nSize$1$[ebp]
$LN2@GetRevival:
  00077	47		 inc	 edi
  00078	81 c3 f4 02 00
	00		 add	 ebx, 756		; 000002f4H
  0007e	3b f8		 cmp	 edi, eax
  00080	7c 9e		 jl	 SHORT $LL4@GetRevival
$LN13@GetRevival:
  00082	5f		 pop	 edi

; 623  : 	}
; 624  : 	return NULL;	// not found
; 625  : }

  00083	5e		 pop	 esi
  00084	33 c0		 xor	 eax, eax
  00086	5b		 pop	 ebx
  00087	8b e5		 mov	 esp, ebp
  00089	5d		 pop	 ebp
  0008a	c2 08 00	 ret	 8
$LN11@GetRevival:
  0008d	5f		 pop	 edi

; 622  : 			return pRgnElem;

  0008e	8b c6		 mov	 eax, esi

; 623  : 	}
; 624  : 	return NULL;	// not found
; 625  : }

  00090	5e		 pop	 esi
  00091	5b		 pop	 ebx
  00092	8b e5		 mov	 esp, ebp
  00094	5d		 pop	 ebp
  00095	c2 08 00	 ret	 8
?GetRevivalPos@CWorldMng@@QAEPAUREGIONELEM@@KPBD@Z ENDP	; CWorldMng::GetRevivalPos
_TEXT	ENDS
; Function compile flags: /Ogtp
; File C:\IAGOS\server\v18\Source\Source\_Common\worldmng.cpp
; File C:\IAGOS\server\v18\Source\Source\DX_SDK\d3dx9math.inl
; File C:\IAGOS\server\v18\Source\Source\_Common\worldmng.cpp
; File C:\IAGOS\server\v18\Source\Source\DX_SDK\d3dx9math.inl
; File C:\IAGOS\server\v18\Source\Source\_Common\worldmng.cpp
;	COMDAT ?GetNearRevivalPosChao@CWorldMng@@QAEPAUREGIONELEM@@KAAUD3DXVECTOR3@@@Z
_TEXT	SEGMENT
$T1 = -12						; size = 4
tv453 = -8						; size = 4
_d$1$ = -4						; size = 4
_dwWorldId$ = 8						; size = 4
tv464 = 8						; size = 4
_vPos$ = 12						; size = 4
?GetNearRevivalPosChao@CWorldMng@@QAEPAUREGIONELEM@@KAAUD3DXVECTOR3@@@Z PROC ; CWorldMng::GetNearRevivalPosChao, COMDAT
; _this$ = ecx

; 576  : {

  00000	55		 push	 ebp
  00001	8b ec		 mov	 ebp, esp
  00003	83 ec 0c	 sub	 esp, 12			; 0000000cH
  00006	53		 push	 ebx
  00007	56		 push	 esi
  00008	57		 push	 edi

; 577  : 	RegionElem *pRgnElem, *ptr	= NULL;
; 578  : 	CPoint point;
; 579  : 	
; 580  : 	int nSize;
; 581  : 	
; 582  : 	nSize	= m_aRevivalPos.GetSize();

  00009	8b 79 0c	 mov	 edi, DWORD PTR [ecx+12]
  0000c	8d 71 10	 lea	 esi, DWORD PTR [ecx+16]
  0000f	33 db		 xor	 ebx, ebx

; 583  : 	long	d	= 2147483647L, tmp;	// 46340	// 21722

  00011	c7 45 fc ff ff
	ff 7f		 mov	 DWORD PTR _d$1$[ebp], 2147483647 ; 7fffffffH
  00018	33 d2		 xor	 edx, edx
  0001a	89 75 f4	 mov	 DWORD PTR $T1[ebp], esi

; 584  : 	for( int i = 0; i < nSize; i++ )

  0001d	85 ff		 test	 edi, edi
  0001f	0f 8e ca 00 00
	00		 jle	 $LN42@GetNearRev
; File C:\IAGOS\server\v18\Source\Source\DX_SDK\d3dx9math.inl

; 383  :     return D3DXVECTOR3(x - v.x, y - v.y, z - v.z);

  00025	8b ce		 mov	 ecx, esi
  00027	8b 75 08	 mov	 esi, DWORD PTR _dwWorldId$[ebp]
  0002a	66 0f 1f 44 00
	00		 npad	 6
$LL4@GetNearRev:
; File C:\IAGOS\server\v18\Source\Source\_Common\worldmng.cpp

; 587  : 		if( dwWorldId == pRgnElem->m_dwWorldId && pRgnElem->m_bChaoKey )

  00030	81 fa ff 00 00
	00		 cmp	 edx, 255		; 000000ffH
  00036	c7 45 f8 00 00
	00 00		 mov	 DWORD PTR tv453[ebp], 0
  0003d	8b c1		 mov	 eax, ecx
  0003f	0f 47 45 f8	 cmova	 eax, DWORD PTR tv453[ebp]
  00043	3b b0 c0 02 00
	00		 cmp	 esi, DWORD PTR [eax+704]
  00049	75 52		 jne	 SHORT $LN2@GetNearRev
  0004b	83 b8 f0 02 00
	00 00		 cmp	 DWORD PTR [eax+752], 0
  00052	74 49		 je	 SHORT $LN2@GetNearRev
; File C:\IAGOS\server\v18\Source\Source\DX_SDK\d3dx9math.inl

; 383  :     return D3DXVECTOR3(x - v.x, y - v.y, z - v.z);

  00054	8b 75 0c	 mov	 esi, DWORD PTR _vPos$[ebp]
  00057	f3 0f 10 16	 movss	 xmm2, DWORD PTR [esi]
  0005b	f3 0f 10 46 04	 movss	 xmm0, DWORD PTR [esi+4]
  00060	f3 0f 5c 50 10	 subss	 xmm2, DWORD PTR [eax+16]
  00065	f3 0f 5c 40 14	 subss	 xmm0, DWORD PTR [eax+20]
  0006a	f3 0f 10 4e 08	 movss	 xmm1, DWORD PTR [esi+8]
  0006f	f3 0f 5c 48 18	 subss	 xmm1, DWORD PTR [eax+24]

; 1698 :     return pV->x * pV->x + pV->y * pV->y + pV->z * pV->z;

  00074	f3 0f 59 d2	 mulss	 xmm2, xmm2

; 302  :     z = fz;

  00078	f3 0f 59 c0	 mulss	 xmm0, xmm0

; 1698 :     return pV->x * pV->x + pV->y * pV->y + pV->z * pV->z;

  0007c	f3 0f 59 c9	 mulss	 xmm1, xmm1
  00080	f3 0f 58 d0	 addss	 xmm2, xmm0
  00084	f3 0f 58 d1	 addss	 xmm2, xmm1
; File C:\IAGOS\server\v18\Source\Source\_Common\worldmng.cpp

; 590  : 			tmp		= (long)D3DXVec3LengthSq( &vd );

  00088	f3 0f 2c f2	 cvttss2si esi, xmm2

; 591  : 			if( tmp < d )

  0008c	3b 75 fc	 cmp	 esi, DWORD PTR _d$1$[ebp]
  0008f	8b 75 08	 mov	 esi, DWORD PTR _dwWorldId$[ebp]
  00092	7d 09		 jge	 SHORT $LN2@GetNearRev

; 592  : 			{
; 593  : 				ptr		= pRgnElem;

  00094	8b d8		 mov	 ebx, eax

; 594  : 				d	= tmp;

  00096	f3 0f 2c c2	 cvttss2si eax, xmm2
  0009a	89 45 fc	 mov	 DWORD PTR _d$1$[ebp], eax
$LN2@GetNearRev:

; 584  : 	for( int i = 0; i < nSize; i++ )

  0009d	42		 inc	 edx
  0009e	81 c1 f4 02 00
	00		 add	 ecx, 756		; 000002f4H
  000a4	3b d7		 cmp	 edx, edi
  000a6	7c 88		 jl	 SHORT $LL4@GetNearRev

; 595  : 			}
; 596  : 		}
; 597  : 	}
; 598  : 
; 599  : 	if( ptr == NULL )	// °°Ŕş Ľ­ąöżˇ ĂŁÁö¸¦ ¸řÇßŔ» °ćżě ´Ů¸ĄĽ­ąö°Ë»ö

  000a8	8b 75 f4	 mov	 esi, DWORD PTR $T1[ebp]
  000ab	85 db		 test	 ebx, ebx
  000ad	75 40		 jne	 SHORT $LN42@GetNearRev
  000af	8b 55 08	 mov	 edx, DWORD PTR _dwWorldId$[ebp]
  000b2	33 c9		 xor	 ecx, ecx
  000b4	0f 1f 40 00 0f
	1f 84 00 00 00
	00 00		 npad	 12
$LL7@GetNearRev:

; 602  : 		{
; 603  : 			pRgnElem	= m_aRevivalPos.GetAt( i );
; 604  : 			if( dwWorldId != pRgnElem->m_dwWorldId && pRgnElem->m_bChaoKey )

  000c0	81 f9 ff 00 00
	00		 cmp	 ecx, 255		; 000000ffH
  000c6	c7 45 08 00 00
	00 00		 mov	 DWORD PTR tv464[ebp], 0
  000cd	8b c6		 mov	 eax, esi
  000cf	0f 47 45 08	 cmova	 eax, DWORD PTR tv464[ebp]
  000d3	3b 90 c0 02 00
	00		 cmp	 edx, DWORD PTR [eax+704]
  000d9	74 09		 je	 SHORT $LN5@GetNearRev
  000db	83 b8 f0 02 00
	00 00		 cmp	 DWORD PTR [eax+752], 0
  000e2	75 0d		 jne	 SHORT $LN32@GetNearRev
$LN5@GetNearRev:

; 600  : 	{
; 601  : 		for( int i = 0; i < nSize; i++ )

  000e4	41		 inc	 ecx
  000e5	81 c6 f4 02 00
	00		 add	 esi, 756		; 000002f4H
  000eb	3b cf		 cmp	 ecx, edi
  000ed	7c d1		 jl	 SHORT $LL7@GetNearRev
$LN42@GetNearRev:

; 605  : 			{
; 606  : 				ptr		= pRgnElem;
; 607  : 				break;			// °Ĺ¸®°č»ęŔş ÇĘżäľřŔ˝
; 608  : 			}
; 609  : 		}
; 610  : 	}
; 611  : 	return ptr;
; 612  : }

  000ef	8b c3		 mov	 eax, ebx
$LN32@GetNearRev:
  000f1	5f		 pop	 edi
  000f2	5e		 pop	 esi
  000f3	5b		 pop	 ebx
  000f4	8b e5		 mov	 esp, ebp
  000f6	5d		 pop	 ebp
  000f7	c2 08 00	 ret	 8
?GetNearRevivalPosChao@CWorldMng@@QAEPAUREGIONELEM@@KAAUD3DXVECTOR3@@@Z ENDP ; CWorldMng::GetNearRevivalPosChao
_TEXT	ENDS
; Function compile flags: /Ogtp
; File C:\IAGOS\server\v18\Source\Source\_Common\worldmng.cpp
;	COMDAT ?GetRevivalPosChao@CWorldMng@@QAEPAUREGIONELEM@@KPBD@Z
_TEXT	SEGMENT
_nSize$1$ = -4						; size = 4
_dwWorldId$ = 8						; size = 4
_sKey$ = 12						; size = 4
?GetRevivalPosChao@CWorldMng@@QAEPAUREGIONELEM@@KPBD@Z PROC ; CWorldMng::GetRevivalPosChao, COMDAT
; _this$ = ecx

; 562  : {

  00000	55		 push	 ebp
  00001	8b ec		 mov	 ebp, esp
  00003	51		 push	 ecx
  00004	53		 push	 ebx

; 563  : 	int nSize	= m_aRevivalPos.GetSize();

  00005	8b 59 0c	 mov	 ebx, DWORD PTR [ecx+12]
  00008	56		 push	 esi
  00009	57		 push	 edi

; 564  : 	PRegionElem pRgnElem;
; 565  : 	for( int i = 0; i < nSize; i++ )

  0000a	33 ff		 xor	 edi, edi
  0000c	89 5d fc	 mov	 DWORD PTR _nSize$1$[ebp], ebx
  0000f	85 db		 test	 ebx, ebx
  00011	7e 6f		 jle	 SHORT $LN13@GetRevival

; 563  : 	int nSize	= m_aRevivalPos.GetSize();

  00013	8b 45 fc	 mov	 eax, DWORD PTR _nSize$1$[ebp]
  00016	8d 59 10	 lea	 ebx, DWORD PTR [ecx+16]
  00019	8b 4d 08	 mov	 ecx, DWORD PTR _dwWorldId$[ebp]
  0001c	0f 1f 40 00	 npad	 4
$LL4@GetRevival:

; 566  : 	{
; 567  : 		pRgnElem	= m_aRevivalPos.GetAt( i );
; 568  : 		if( dwWorldId == pRgnElem->m_dwWorldId && strcmp( sKey, pRgnElem->m_szKey ) == 0 && pRgnElem->m_bChaoKey )

  00020	33 d2		 xor	 edx, edx
  00022	8b f3		 mov	 esi, ebx
  00024	81 ff ff 00 00
	00		 cmp	 edi, 255		; 000000ffH
  0002a	0f 47 f2	 cmova	 esi, edx
  0002d	3b 8e c0 02 00
	00		 cmp	 ecx, DWORD PTR [esi+704]
  00033	75 42		 jne	 SHORT $LN2@GetRevival
  00035	8b 4d 0c	 mov	 ecx, DWORD PTR _sKey$[ebp]
  00038	8d 46 3c	 lea	 eax, DWORD PTR [esi+60]
  0003b	0f 1f 44 00 00	 npad	 5
$LL16@GetRevival:
  00040	8a 11		 mov	 dl, BYTE PTR [ecx]
  00042	3a 10		 cmp	 dl, BYTE PTR [eax]
  00044	75 1a		 jne	 SHORT $LN17@GetRevival
  00046	84 d2		 test	 dl, dl
  00048	74 12		 je	 SHORT $LN18@GetRevival
  0004a	8a 51 01	 mov	 dl, BYTE PTR [ecx+1]
  0004d	3a 50 01	 cmp	 dl, BYTE PTR [eax+1]
  00050	75 0e		 jne	 SHORT $LN17@GetRevival
  00052	83 c1 02	 add	 ecx, 2
  00055	83 c0 02	 add	 eax, 2
  00058	84 d2		 test	 dl, dl
  0005a	75 e4		 jne	 SHORT $LL16@GetRevival
$LN18@GetRevival:
  0005c	33 c0		 xor	 eax, eax
  0005e	eb 05		 jmp	 SHORT $LN19@GetRevival
$LN17@GetRevival:
  00060	1b c0		 sbb	 eax, eax
  00062	83 c8 01	 or	 eax, 1
$LN19@GetRevival:
  00065	85 c0		 test	 eax, eax
  00067	75 08		 jne	 SHORT $LN21@GetRevival
  00069	39 86 f0 02 00
	00		 cmp	 DWORD PTR [esi+752], eax
  0006f	75 1c		 jne	 SHORT $LN11@GetRevival
$LN21@GetRevival:

; 564  : 	PRegionElem pRgnElem;
; 565  : 	for( int i = 0; i < nSize; i++ )

  00071	8b 4d 08	 mov	 ecx, DWORD PTR _dwWorldId$[ebp]
  00074	8b 45 fc	 mov	 eax, DWORD PTR _nSize$1$[ebp]
$LN2@GetRevival:
  00077	47		 inc	 edi
  00078	81 c3 f4 02 00
	00		 add	 ebx, 756		; 000002f4H
  0007e	3b f8		 cmp	 edi, eax
  00080	7c 9e		 jl	 SHORT $LL4@GetRevival
$LN13@GetRevival:
  00082	5f		 pop	 edi

; 571  : 		}
; 572  : 	}
; 573  : 	return NULL;	// not found
; 574  : }

  00083	5e		 pop	 esi
  00084	33 c0		 xor	 eax, eax
  00086	5b		 pop	 ebx
  00087	8b e5		 mov	 esp, ebp
  00089	5d		 pop	 ebp
  0008a	c2 08 00	 ret	 8
$LN11@GetRevival:
  0008d	5f		 pop	 edi

; 569  : 		{
; 570  : 			return pRgnElem;

  0008e	8b c6		 mov	 eax, esi

; 571  : 		}
; 572  : 	}
; 573  : 	return NULL;	// not found
; 574  : }

  00090	5e		 pop	 esi
  00091	5b		 pop	 ebx
  00092	8b e5		 mov	 esp, ebp
  00094	5d		 pop	 ebp
  00095	c2 08 00	 ret	 8
?GetRevivalPosChao@CWorldMng@@QAEPAUREGIONELEM@@KPBD@Z ENDP ; CWorldMng::GetRevivalPosChao
_TEXT	ENDS
; Function compile flags: /Ogtp
; File C:\IAGOS\server\v18\Source\Source\_Common\worldmng.cpp
; File C:\Program Files\Microsoft Visual Studio\2022\Professional\VC\Tools\MSVC\14.44.35207\atlmfc\include\cstringt.h
; File C:\IAGOS\server\v18\Source\Source\_Common\worldmng.cpp
; File C:\Program Files\Microsoft Visual Studio\2022\Professional\VC\Tools\MSVC\14.44.35207\atlmfc\include\cstringt.h
; File C:\IAGOS\server\v18\Source\Source\_Common\worldmng.cpp
; File C:\Program Files\Microsoft Visual Studio\2022\Professional\VC\Tools\MSVC\14.44.35207\atlmfc\include\cstringt.h
; File C:\IAGOS\server\v18\Source\Source\_Common\worldmng.cpp
; File C:\Program Files\Microsoft Visual Studio\2022\Professional\VC\Tools\MSVC\14.44.35207\atlmfc\include\cstringt.h
; File C:\IAGOS\server\v18\Source\Source\_Common\worldmng.cpp
; File C:\Program Files\Microsoft Visual Studio\2022\Professional\VC\Tools\MSVC\14.44.35207\atlmfc\include\cstringt.h
; File C:\IAGOS\server\v18\Source\Source\_Common\worldmng.cpp
; File C:\Program Files\Microsoft Visual Studio\2022\Professional\VC\Tools\MSVC\14.44.35207\atlmfc\include\cstringt.h
; File C:\IAGOS\server\v18\Source\Source\_Common\worldmng.cpp
; File C:\Program Files\Microsoft Visual Studio\2022\Professional\VC\Tools\MSVC\14.44.35207\atlmfc\include\cstringt.h
; File C:\IAGOS\server\v18\Source\Source\_Common\worldmng.cpp
; File C:\Program Files\Microsoft Visual Studio\2022\Professional\VC\Tools\MSVC\14.44.35207\atlmfc\include\atlsimpstr.h
; File C:\IAGOS\server\v18\Source\Source\_Common\worldmng.cpp
; File C:\Program Files\Microsoft Visual Studio\2022\Professional\VC\Tools\MSVC\14.44.35207\atlmfc\include\atlsimpstr.h
; File C:\IAGOS\server\v18\Source\Source\_Common\worldmng.cpp
; File C:\Program Files\Microsoft Visual Studio\2022\Professional\VC\Tools\MSVC\14.44.35207\atlmfc\include\atlsimpstr.h
; File C:\IAGOS\server\v18\Source\Source\_Common\worldmng.cpp
; File C:\Program Files\Microsoft Visual Studio\2022\Professional\VC\Tools\MSVC\14.44.35207\atlmfc\include\afxstr.h
; File C:\Program Files\Microsoft Visual Studio\2022\Professional\VC\Tools\MSVC\14.44.35207\atlmfc\include\atlsimpstr.h
; File C:\IAGOS\server\v18\Source\Source\_Common\worldmng.cpp
; File C:\Program Files\Microsoft Visual Studio\2022\Professional\VC\Tools\MSVC\14.44.35207\atlmfc\include\afxstr.h
; File C:\Program Files\Microsoft Visual Studio\2022\Professional\VC\Tools\MSVC\14.44.35207\atlmfc\include\atlsimpstr.h
; File C:\IAGOS\server\v18\Source\Source\_Common\worldmng.cpp
; File C:\Program Files\Microsoft Visual Studio\2022\Professional\VC\Tools\MSVC\14.44.35207\atlmfc\include\atlsimpstr.h
; File C:\IAGOS\server\v18\Source\Source\_Common\worldmng.cpp
; File C:\Program Files\Microsoft Visual Studio\2022\Professional\VC\Tools\MSVC\14.44.35207\atlmfc\include\afxstr.h
; File C:\Program Files\Microsoft Visual Studio\2022\Professional\VC\Tools\MSVC\14.44.35207\atlmfc\include\atlsimpstr.h
; File C:\IAGOS\server\v18\Source\Source\_Common\worldmng.cpp
; File C:\IAGOS\server\v18\Source\Source\_Common\Region.h
; File C:\IAGOS\server\v18\Source\Source\_Common\worldmng.cpp
; File C:\IAGOS\server\v18\Source\Source\_Common\Region.h
; File C:\IAGOS\server\v18\Source\Source\_Common\worldmng.cpp
; File C:\Program Files\Microsoft Visual Studio\2022\Professional\VC\Tools\MSVC\14.44.35207\atlmfc\include\atlsimpstr.h
; File C:\IAGOS\server\v18\Source\Source\_Common\worldmng.cpp
;	COMDAT ?LoadRevivalPos@CWorldMng@@AAEXKPBD@Z
_TEXT	SEGMENT
_vPos$1$sroa$580$ = -3188				; size = 4
_vPos$1$sroa$590$ = -3184				; size = 4
tv913 = -3180						; size = 4
_dwIndex$1$ = -3180					; size = 4
_this$GSCopy$1$ = -3176					; size = 4
_string$3 = -3172					; size = 4
_string$4 = -3172					; size = 4
_string$5 = -3172					; size = 4
_vPos$1$sroa$579$ = -3172				; size = 4
_s$ = -3168						; size = 2136
_rgnElem$6 = -1032					; size = 756
_lpFileName$ = -276					; size = 260
__$ArrayPad$ = -16					; size = 4
__$EHRec$ = -12						; size = 12
_dwWorldId$ = 8						; size = 4
_lpszWorld$ = 12					; size = 4
?LoadRevivalPos@CWorldMng@@AAEXKPBD@Z PROC		; CWorldMng::LoadRevivalPos, COMDAT
; _this$ = ecx

; 382  : {

  00000	55		 push	 ebp
  00001	8b ec		 mov	 ebp, esp
  00003	6a ff		 push	 -1
  00005	68 00 00 00 00	 push	 __ehhandler$?LoadRevivalPos@CWorldMng@@AAEXKPBD@Z
  0000a	64 a1 00 00 00
	00		 mov	 eax, DWORD PTR fs:0
  00010	50		 push	 eax
  00011	81 ec 68 0c 00
	00		 sub	 esp, 3176		; 00000c68H
  00017	a1 00 00 00 00	 mov	 eax, DWORD PTR ___security_cookie
  0001c	33 c5		 xor	 eax, ebp
  0001e	89 45 f0	 mov	 DWORD PTR __$ArrayPad$[ebp], eax
  00021	56		 push	 esi
  00022	57		 push	 edi
  00023	50		 push	 eax
  00024	8d 45 f4	 lea	 eax, DWORD PTR __$EHRec$[ebp]
  00027	64 a3 00 00 00
	00		 mov	 DWORD PTR fs:0, eax
  0002d	89 8d 98 f3 ff
	ff		 mov	 DWORD PTR _this$GSCopy$1$[ebp], ecx
  00033	8b 45 0c	 mov	 eax, DWORD PTR _lpszWorld$[ebp]

; 383  : #ifdef __WORLDSERVER
; 384  : 	TCHAR lpFileName[MAX_PATH];
; 385  : 	sprintf( lpFileName, "%s%s\\%s.rgn", DIR_WORLD, lpszWorld, lpszWorld );

  00036	50		 push	 eax
  00037	50		 push	 eax
  00038	68 00 00 00 00	 push	 OFFSET ??_C@_06NGHBMAIH@World?2@
  0003d	8d 85 ec fe ff
	ff		 lea	 eax, DWORD PTR _lpFileName$[ebp]
  00043	68 00 00 00 00	 push	 OFFSET ??_C@_0M@BILJHLCN@?$CFs?$CFs?2?$CFs?4rgn@
  00048	50		 push	 eax
  00049	e8 00 00 00 00	 call	 _sprintf
  0004e	83 c4 14	 add	 esp, 20			; 00000014H

; 386  : 	CScanner s;

  00051	8d 8d a0 f3 ff
	ff		 lea	 ecx, DWORD PTR _s$[ebp]
  00057	6a 00		 push	 0
  00059	e8 00 00 00 00	 call	 ??0CScanner@@QAE@H@Z	; CScanner::CScanner

; 387  : 	if( s.Load( lpFileName ) == TRUE )

  0005e	6a 01		 push	 1
  00060	8d 85 ec fe ff
	ff		 lea	 eax, DWORD PTR _lpFileName$[ebp]
  00066	c7 45 fc 00 00
	00 00		 mov	 DWORD PTR __$EHRec$[ebp+8], 0
  0006d	50		 push	 eax
  0006e	8d 8d a0 f3 ff
	ff		 lea	 ecx, DWORD PTR _s$[ebp]
  00074	e8 00 00 00 00	 call	 ?Load@CScanner@@QAEHPBDH@Z ; CScanner::Load
  00079	83 f8 01	 cmp	 eax, 1
  0007c	0f 85 36 07 00
	00		 jne	 $LN279@LoadReviva

; 388  : 	{
; 389  : 		DWORD dwType, dwIndex;
; 390  : 		D3DXVECTOR3 vPos;
; 391  : 
; 392  : 		s.GetToken();

  00082	6a 00		 push	 0
  00084	8d 8d a0 f3 ff
	ff		 lea	 ecx, DWORD PTR _s$[ebp]
  0008a	e8 00 00 00 00	 call	 ?GetToken@CScanner@@UAEHH@Z ; CScanner::GetToken

; 393  : 		while( s.tok != FINISHED )

  0008f	83 bd e4 fb ff
	ff 15		 cmp	 DWORD PTR _s$[ebp+2116], 21 ; 00000015H
  00096	0f 84 1c 07 00
	00		 je	 $LN279@LoadReviva
  0009c	0f 1f 40 00	 npad	 4
$LL2@LoadReviva:
; File C:\Program Files\Microsoft Visual Studio\2022\Professional\VC\Tools\MSVC\14.44.35207\atlmfc\include\cstringt.h

; 184  : 		return _mbscmp( reinterpret_cast< const unsigned char* >( pszA ), reinterpret_cast< const unsigned char* >( pszB ) );

  000a0	68 00 00 00 00	 push	 OFFSET ??_C@_06JEJEKGIK@region@
  000a5	ff b5 c0 f3 ff
	ff		 push	 DWORD PTR _s$[ebp+32]
  000ab	e8 00 00 00 00	 call	 __mbscmp
  000b0	83 c4 08	 add	 esp, 8

; 2490 : 		return(str1.Compare(psz2) == 0);

  000b3	85 c0		 test	 eax, eax
; File C:\IAGOS\server\v18\Source\Source\_Common\worldmng.cpp

; 395  : 			if( s.Token == _T( "region" ) || s.Token == _T( "region2" ) || s.Token == _T( "region3" ) )

  000b5	0f 84 02 01 00
	00		 je	 $LN16@LoadReviva
; File C:\Program Files\Microsoft Visual Studio\2022\Professional\VC\Tools\MSVC\14.44.35207\atlmfc\include\cstringt.h

; 184  : 		return _mbscmp( reinterpret_cast< const unsigned char* >( pszA ), reinterpret_cast< const unsigned char* >( pszB ) );

  000bb	68 00 00 00 00	 push	 OFFSET ??_C@_07OAIJKKOJ@region2@
  000c0	ff b5 c0 f3 ff
	ff		 push	 DWORD PTR _s$[ebp+32]
  000c6	e8 00 00 00 00	 call	 __mbscmp
  000cb	83 c4 08	 add	 esp, 8

; 2490 : 		return(str1.Compare(psz2) == 0);

  000ce	85 c0		 test	 eax, eax
; File C:\IAGOS\server\v18\Source\Source\_Common\worldmng.cpp

; 395  : 			if( s.Token == _T( "region" ) || s.Token == _T( "region2" ) || s.Token == _T( "region3" ) )

  000d0	0f 84 e7 00 00
	00		 je	 $LN16@LoadReviva
; File C:\Program Files\Microsoft Visual Studio\2022\Professional\VC\Tools\MSVC\14.44.35207\atlmfc\include\cstringt.h

; 184  : 		return _mbscmp( reinterpret_cast< const unsigned char* >( pszA ), reinterpret_cast< const unsigned char* >( pszB ) );

  000d6	68 00 00 00 00	 push	 OFFSET ??_C@_07PJJCJLKI@region3@
  000db	ff b5 c0 f3 ff
	ff		 push	 DWORD PTR _s$[ebp+32]
  000e1	e8 00 00 00 00	 call	 __mbscmp
  000e6	83 c4 08	 add	 esp, 8

; 2490 : 		return(str1.Compare(psz2) == 0);

  000e9	85 c0		 test	 eax, eax
; File C:\IAGOS\server\v18\Source\Source\_Common\worldmng.cpp

; 395  : 			if( s.Token == _T( "region" ) || s.Token == _T( "region2" ) || s.Token == _T( "region3" ) )

  000eb	0f 84 cc 00 00
	00		 je	 $LN16@LoadReviva
; File C:\Program Files\Microsoft Visual Studio\2022\Professional\VC\Tools\MSVC\14.44.35207\atlmfc\include\cstringt.h

; 184  : 		return _mbscmp( reinterpret_cast< const unsigned char* >( pszA ), reinterpret_cast< const unsigned char* >( pszB ) );

  000f1	68 00 00 00 00	 push	 OFFSET ??_C@_07PABIOCAD@respawn@
  000f6	ff b5 c0 f3 ff
	ff		 push	 DWORD PTR _s$[ebp+32]
  000fc	e8 00 00 00 00	 call	 __mbscmp
  00101	83 c4 08	 add	 esp, 8

; 2490 : 		return(str1.Compare(psz2) == 0);

  00104	85 c0		 test	 eax, eax
; File C:\IAGOS\server\v18\Source\Source\_Common\worldmng.cpp

; 529  : 			else if( s.Token == _T( "respawn" ) )

  00106	0f 85 99 00 00
	00		 jne	 $LN231@LoadReviva

; 530  : 			{
; 531  : 				// type, index, x, y, z, cb, time, left, top, right, bottom
; 532  : 				s.GetNumber();	s.GetNumber();	s.GetFloat();	s.GetFloat();	s.GetFloat();	s.GetNumber();	s.GetNumber();

  0010c	50		 push	 eax
  0010d	8d 8d a0 f3 ff
	ff		 lea	 ecx, DWORD PTR _s$[ebp]
  00113	e8 00 00 00 00	 call	 ?GetNumber@CScanner@@QAEHH@Z ; CScanner::GetNumber
  00118	6a 00		 push	 0
  0011a	8d 8d a0 f3 ff
	ff		 lea	 ecx, DWORD PTR _s$[ebp]
  00120	e8 00 00 00 00	 call	 ?GetNumber@CScanner@@QAEHH@Z ; CScanner::GetNumber
  00125	6a 00		 push	 0
  00127	8d 8d a0 f3 ff
	ff		 lea	 ecx, DWORD PTR _s$[ebp]
  0012d	e8 00 00 00 00	 call	 ?GetFloat@CScanner@@QAEMH@Z ; CScanner::GetFloat
  00132	dd d8		 fstp	 ST(0)
  00134	8d 8d a0 f3 ff
	ff		 lea	 ecx, DWORD PTR _s$[ebp]
  0013a	6a 00		 push	 0
  0013c	e8 00 00 00 00	 call	 ?GetFloat@CScanner@@QAEMH@Z ; CScanner::GetFloat
  00141	dd d8		 fstp	 ST(0)
  00143	8d 8d a0 f3 ff
	ff		 lea	 ecx, DWORD PTR _s$[ebp]
  00149	6a 00		 push	 0
  0014b	e8 00 00 00 00	 call	 ?GetFloat@CScanner@@QAEMH@Z ; CScanner::GetFloat
  00150	6a 00		 push	 0
  00152	8d 8d a0 f3 ff
	ff		 lea	 ecx, DWORD PTR _s$[ebp]
  00158	dd d8		 fstp	 ST(0)
  0015a	e8 00 00 00 00	 call	 ?GetNumber@CScanner@@QAEHH@Z ; CScanner::GetNumber
  0015f	6a 00		 push	 0
  00161	8d 8d a0 f3 ff
	ff		 lea	 ecx, DWORD PTR _s$[ebp]
  00167	e8 00 00 00 00	 call	 ?GetNumber@CScanner@@QAEHH@Z ; CScanner::GetNumber

; 533  : 				s.GetNumber();	s.GetNumber();	s.GetNumber();	s.GetNumber();

  0016c	6a 00		 push	 0
  0016e	8d 8d a0 f3 ff
	ff		 lea	 ecx, DWORD PTR _s$[ebp]
  00174	e8 00 00 00 00	 call	 ?GetNumber@CScanner@@QAEHH@Z ; CScanner::GetNumber
  00179	6a 00		 push	 0
  0017b	8d 8d a0 f3 ff
	ff		 lea	 ecx, DWORD PTR _s$[ebp]
  00181	e8 00 00 00 00	 call	 ?GetNumber@CScanner@@QAEHH@Z ; CScanner::GetNumber
  00186	6a 00		 push	 0
  00188	8d 8d a0 f3 ff
	ff		 lea	 ecx, DWORD PTR _s$[ebp]
  0018e	e8 00 00 00 00	 call	 ?GetNumber@CScanner@@QAEHH@Z ; CScanner::GetNumber
  00193	6a 00		 push	 0
  00195	8d 8d a0 f3 ff
	ff		 lea	 ecx, DWORD PTR _s$[ebp]
  0019b	e8 00 00 00 00	 call	 ?GetNumber@CScanner@@QAEHH@Z ; CScanner::GetNumber

; 534  : 			}

  001a0	e9 f9 05 00 00	 jmp	 $LN31@LoadReviva
$LN231@LoadReviva:
; File C:\Program Files\Microsoft Visual Studio\2022\Professional\VC\Tools\MSVC\14.44.35207\atlmfc\include\cstringt.h

; 184  : 		return _mbscmp( reinterpret_cast< const unsigned char* >( pszA ), reinterpret_cast< const unsigned char* >( pszB ) );

  001a5	68 00 00 00 00	 push	 OFFSET ??_C@_07PJJCJLKI@region3@
  001aa	ff b5 c0 f3 ff
	ff		 push	 DWORD PTR _s$[ebp+32]
  001b0	e8 00 00 00 00	 call	 __mbscmp
  001b5	83 c4 08	 add	 esp, 8
  001b8	e9 e1 05 00 00	 jmp	 $LN31@LoadReviva
$LN16@LoadReviva:
  001bd	68 00 00 00 00	 push	 OFFSET ??_C@_07OAIJKKOJ@region2@
  001c2	ff b5 c0 f3 ff
	ff		 push	 DWORD PTR _s$[ebp+32]
  001c8	e8 00 00 00 00	 call	 __mbscmp

; 1452 : 		ATLENSURE( AtlIsValidString( psz ) );

  001cd	f7 d8		 neg	 eax

; 184  : 		return _mbscmp( reinterpret_cast< const unsigned char* >( pszA ), reinterpret_cast< const unsigned char* >( pszB ) );

  001cf	68 00 00 00 00	 push	 OFFSET ??_C@_07PJJCJLKI@region3@
  001d4	ff b5 c0 f3 ff
	ff		 push	 DWORD PTR _s$[ebp+32]

; 1452 : 		ATLENSURE( AtlIsValidString( psz ) );

  001da	1b f6		 sbb	 esi, esi
  001dc	46		 inc	 esi

; 184  : 		return _mbscmp( reinterpret_cast< const unsigned char* >( pszA ), reinterpret_cast< const unsigned char* >( pszB ) );

  001dd	e8 00 00 00 00	 call	 __mbscmp
  001e2	83 c4 10	 add	 esp, 16			; 00000010H
; File C:\IAGOS\server\v18\Source\Source\_Common\worldmng.cpp

; 406  : 				dwType	= s.GetNumber();

  001e5	8d 8d a0 f3 ff
	ff		 lea	 ecx, DWORD PTR _s$[ebp]
; File C:\Program Files\Microsoft Visual Studio\2022\Professional\VC\Tools\MSVC\14.44.35207\atlmfc\include\cstringt.h

; 184  : 		return _mbscmp( reinterpret_cast< const unsigned char* >( pszA ), reinterpret_cast< const unsigned char* >( pszB ) );

  001eb	8b f8		 mov	 edi, eax
; File C:\IAGOS\server\v18\Source\Source\_Common\worldmng.cpp

; 401  : 				if( s.Token == _T( "region3" ) )

  001ed	b8 01 00 00 00	 mov	 eax, 1
; File C:\Program Files\Microsoft Visual Studio\2022\Professional\VC\Tools\MSVC\14.44.35207\atlmfc\include\cstringt.h

; 2490 : 		return(str1.Compare(psz2) == 0);

  001f2	85 ff		 test	 edi, edi
; File C:\IAGOS\server\v18\Source\Source\_Common\worldmng.cpp

; 406  : 				dwType	= s.GetNumber();

  001f4	6a 00		 push	 0
  001f6	0f 44 f0	 cmove	 esi, eax
  001f9	e8 00 00 00 00	 call	 ?GetNumber@CScanner@@QAEHH@Z ; CScanner::GetNumber

; 407  : 				dwIndex	= s.GetNumber();

  001fe	6a 00		 push	 0
  00200	8d 8d a0 f3 ff
	ff		 lea	 ecx, DWORD PTR _s$[ebp]
  00206	e8 00 00 00 00	 call	 ?GetNumber@CScanner@@QAEHH@Z ; CScanner::GetNumber

; 408  : 				vPos.x	= s.GetFloat();

  0020b	6a 00		 push	 0
  0020d	8d 8d a0 f3 ff
	ff		 lea	 ecx, DWORD PTR _s$[ebp]
  00213	89 85 94 f3 ff
	ff		 mov	 DWORD PTR _dwIndex$1$[ebp], eax
  00219	e8 00 00 00 00	 call	 ?GetFloat@CScanner@@QAEMH@Z ; CScanner::GetFloat
  0021e	d9 9d 90 f3 ff
	ff		 fstp	 DWORD PTR _vPos$1$sroa$590$[ebp]

; 409  : 				vPos.y	= s.GetFloat();

  00224	6a 00		 push	 0
  00226	8d 8d a0 f3 ff
	ff		 lea	 ecx, DWORD PTR _s$[ebp]
  0022c	e8 00 00 00 00	 call	 ?GetFloat@CScanner@@QAEMH@Z ; CScanner::GetFloat
  00231	d9 9d 8c f3 ff
	ff		 fstp	 DWORD PTR _vPos$1$sroa$580$[ebp]

; 410  : 				vPos.z	= s.GetFloat();

  00237	6a 00		 push	 0
  00239	8d 8d a0 f3 ff
	ff		 lea	 ecx, DWORD PTR _s$[ebp]
  0023f	e8 00 00 00 00	 call	 ?GetFloat@CScanner@@QAEMH@Z ; CScanner::GetFloat

; 411  : 				
; 412  : 				REGIONELEM rgnElem, *pRgnElem	= &rgnElem;
; 413  : 				memset( &rgnElem, 0, sizeof(rgnElem) );

  00244	68 f4 02 00 00	 push	 756			; 000002f4H
  00249	8d 85 f8 fb ff
	ff		 lea	 eax, DWORD PTR _rgnElem$6[ebp]
  0024f	6a 00		 push	 0
  00251	50		 push	 eax
  00252	d9 9d 9c f3 ff
	ff		 fstp	 DWORD PTR _vPos$1$sroa$579$[ebp]
  00258	e8 00 00 00 00	 call	 _memset
  0025d	0f 28 05 00 00
	00 00		 movaps	 xmm0, XMMWORD PTR __xmm@ffffffffffffffffffffffffffffffff

; 425  : 				rgnElem.m_bChaoKey		= FALSE;
; 426  : 
; 427  : 				pRgnElem->m_dwWorldId	= dwWorldId;
; 428  : 				pRgnElem->m_dwAttribute	= s.GetNumber();

  00264	8d 8d a0 f3 ff
	ff		 lea	 ecx, DWORD PTR _s$[ebp]
  0026a	8b 45 08	 mov	 eax, DWORD PTR _dwWorldId$[ebp]
  0026d	83 c4 0c	 add	 esp, 12			; 0000000cH
  00270	0f 11 85 c0 fe
	ff ff		 movups	 XMMWORD PTR _rgnElem$6[ebp+712], xmm0
  00277	c7 85 e0 fe ff
	ff 00 00 00 00	 mov	 DWORD PTR _rgnElem$6[ebp+744], 0
  00281	0f 11 85 d0 fe
	ff ff		 movups	 XMMWORD PTR _rgnElem$6[ebp+728], xmm0
  00288	6a 00		 push	 0
  0028a	c7 85 e4 fe ff
	ff 00 00 00 00	 mov	 DWORD PTR _rgnElem$6[ebp+748], 0
  00294	c7 85 e8 fe ff
	ff 00 00 00 00	 mov	 DWORD PTR _rgnElem$6[ebp+752], 0
  0029e	89 85 b8 fe ff
	ff		 mov	 DWORD PTR _rgnElem$6[ebp+704], eax
  002a4	e8 00 00 00 00	 call	 ?GetNumber@CScanner@@QAEHH@Z ; CScanner::GetNumber

; 429  : 				pRgnElem->m_dwIdMusic	= s.GetNumber();

  002a9	6a 00		 push	 0
  002ab	8d 8d a0 f3 ff
	ff		 lea	 ecx, DWORD PTR _s$[ebp]
  002b1	89 85 98 fc ff
	ff		 mov	 DWORD PTR _rgnElem$6[ebp+160], eax
  002b7	e8 00 00 00 00	 call	 ?GetNumber@CScanner@@QAEHH@Z ; CScanner::GetNumber

; 430  : 				pRgnElem->m_bDirectMusic	= (bool)(s.GetNumber() == 1);

  002bc	6a 00		 push	 0
  002be	8d 8d a0 f3 ff
	ff		 lea	 ecx, DWORD PTR _s$[ebp]
  002c4	89 85 b4 fe ff
	ff		 mov	 DWORD PTR _rgnElem$6[ebp+700], eax
  002ca	e8 00 00 00 00	 call	 ?GetNumber@CScanner@@QAEHH@Z ; CScanner::GetNumber
  002cf	83 f8 01	 cmp	 eax, 1

; 431  : 				s.GetToken();	_tcscpy( pRgnElem->m_szScript, s.Token );

  002d2	8d 8d a0 f3 ff
	ff		 lea	 ecx, DWORD PTR _s$[ebp]
  002d8	6a 00		 push	 0
  002da	0f 94 85 ae fe
	ff ff		 sete	 BYTE PTR _rgnElem$6[ebp+694]
  002e1	e8 00 00 00 00	 call	 ?GetToken@CScanner@@UAEHH@Z ; CScanner::GetToken
; File C:\Program Files\Microsoft Visual Studio\2022\Professional\VC\Tools\MSVC\14.44.35207\atlmfc\include\atlsimpstr.h

; 381  : 		return( m_pszData );

  002e6	8b 8d c0 f3 ff
	ff		 mov	 ecx, DWORD PTR _s$[ebp+32]
; File C:\IAGOS\server\v18\Source\Source\_Common\worldmng.cpp

; 424  : 				rgnElem.m_bCheckGuild	= FALSE;

  002ec	8d 95 78 fc ff
	ff		 lea	 edx, DWORD PTR _rgnElem$6[ebp+128]
  002f2	2b d1		 sub	 edx, ecx
$LL36@LoadReviva:

; 431  : 				s.GetToken();	_tcscpy( pRgnElem->m_szScript, s.Token );

  002f4	8a 01		 mov	 al, BYTE PTR [ecx]
  002f6	8d 49 01	 lea	 ecx, DWORD PTR [ecx+1]
  002f9	88 44 11 ff	 mov	 BYTE PTR [ecx+edx-1], al
  002fd	84 c0		 test	 al, al
  002ff	75 f3		 jne	 SHORT $LL36@LoadReviva

; 432  : 				s.GetToken();	_tcscpy( pRgnElem->m_szSound, s.Token );

  00301	6a 00		 push	 0
  00303	8d 8d a0 f3 ff
	ff		 lea	 ecx, DWORD PTR _s$[ebp]
  00309	e8 00 00 00 00	 call	 ?GetToken@CScanner@@UAEHH@Z ; CScanner::GetToken
; File C:\Program Files\Microsoft Visual Studio\2022\Professional\VC\Tools\MSVC\14.44.35207\atlmfc\include\atlsimpstr.h

; 381  : 		return( m_pszData );

  0030e	8b 8d c0 f3 ff
	ff		 mov	 ecx, DWORD PTR _s$[ebp+32]
; File C:\IAGOS\server\v18\Source\Source\_Common\worldmng.cpp

; 432  : 				s.GetToken();	_tcscpy( pRgnElem->m_szSound, s.Token );

  00314	8d 95 58 fc ff
	ff		 lea	 edx, DWORD PTR _rgnElem$6[ebp+96]
  0031a	2b d1		 sub	 edx, ecx
  0031c	0f 1f 40 00	 npad	 4
$LL37@LoadReviva:
  00320	8a 01		 mov	 al, BYTE PTR [ecx]
  00322	8d 49 01	 lea	 ecx, DWORD PTR [ecx+1]
  00325	88 44 0a ff	 mov	 BYTE PTR [edx+ecx-1], al
  00329	84 c0		 test	 al, al
  0032b	75 f3		 jne	 SHORT $LL37@LoadReviva

; 433  : 				pRgnElem->m_dwIdTeleWorld	= s.GetNumber();

  0032d	6a 00		 push	 0
  0032f	8d 8d a0 f3 ff
	ff		 lea	 ecx, DWORD PTR _s$[ebp]
  00335	e8 00 00 00 00	 call	 ?GetNumber@CScanner@@QAEHH@Z ; CScanner::GetNumber

; 434  : 				pRgnElem->m_vPos		= vPos;

  0033a	f3 0f 10 85 90
	f3 ff ff	 movss	 xmm0, DWORD PTR _vPos$1$sroa$590$[ebp]

; 435  : 				pRgnElem->m_vTeleWorld.x		= s.GetFloat();

  00342	8d 8d a0 f3 ff
	ff		 lea	 ecx, DWORD PTR _s$[ebp]
  00348	f3 0f 11 85 08
	fc ff ff	 movss	 DWORD PTR _rgnElem$6[ebp+16], xmm0
  00350	f3 0f 10 85 8c
	f3 ff ff	 movss	 xmm0, DWORD PTR _vPos$1$sroa$580$[ebp]
  00358	f3 0f 11 85 0c
	fc ff ff	 movss	 DWORD PTR _rgnElem$6[ebp+20], xmm0
  00360	f3 0f 10 85 9c
	f3 ff ff	 movss	 xmm0, DWORD PTR _vPos$1$sroa$579$[ebp]
  00368	6a 00		 push	 0
  0036a	89 85 54 fc ff
	ff		 mov	 DWORD PTR _rgnElem$6[ebp+92], eax
  00370	f3 0f 11 85 10
	fc ff ff	 movss	 DWORD PTR _rgnElem$6[ebp+24], xmm0
  00378	e8 00 00 00 00	 call	 ?GetFloat@CScanner@@QAEMH@Z ; CScanner::GetFloat
  0037d	d9 9d fc fb ff
	ff		 fstp	 DWORD PTR _rgnElem$6[ebp+4]

; 436  : 				pRgnElem->m_vTeleWorld.y		= s.GetFloat();

  00383	6a 00		 push	 0
  00385	8d 8d a0 f3 ff
	ff		 lea	 ecx, DWORD PTR _s$[ebp]
  0038b	e8 00 00 00 00	 call	 ?GetFloat@CScanner@@QAEMH@Z ; CScanner::GetFloat
  00390	d9 9d 00 fc ff
	ff		 fstp	 DWORD PTR _rgnElem$6[ebp+8]

; 437  : 				pRgnElem->m_vTeleWorld.z		= s.GetFloat();

  00396	6a 00		 push	 0
  00398	8d 8d a0 f3 ff
	ff		 lea	 ecx, DWORD PTR _s$[ebp]
  0039e	e8 00 00 00 00	 call	 ?GetFloat@CScanner@@QAEMH@Z ; CScanner::GetFloat

; 438  : 				pRgnElem->m_rect.left	= (LONG)s.GetNumber();

  003a3	6a 00		 push	 0
  003a5	8d 8d a0 f3 ff
	ff		 lea	 ecx, DWORD PTR _s$[ebp]
  003ab	d9 9d 04 fc ff
	ff		 fstp	 DWORD PTR _rgnElem$6[ebp+12]
  003b1	e8 00 00 00 00	 call	 ?GetNumber@CScanner@@QAEHH@Z ; CScanner::GetNumber

; 439  : 				pRgnElem->m_rect.top		= (LONG)s.GetNumber();

  003b6	6a 00		 push	 0
  003b8	8d 8d a0 f3 ff
	ff		 lea	 ecx, DWORD PTR _s$[ebp]
  003be	89 85 9c fc ff
	ff		 mov	 DWORD PTR _rgnElem$6[ebp+164], eax
  003c4	e8 00 00 00 00	 call	 ?GetNumber@CScanner@@QAEHH@Z ; CScanner::GetNumber

; 440  : 				pRgnElem->m_rect.right	= (LONG)s.GetNumber();

  003c9	6a 00		 push	 0
  003cb	8d 8d a0 f3 ff
	ff		 lea	 ecx, DWORD PTR _s$[ebp]
  003d1	89 85 a0 fc ff
	ff		 mov	 DWORD PTR _rgnElem$6[ebp+168], eax
  003d7	e8 00 00 00 00	 call	 ?GetNumber@CScanner@@QAEHH@Z ; CScanner::GetNumber

; 441  : 				pRgnElem->m_rect.bottom	= (LONG)s.GetNumber();

  003dc	6a 00		 push	 0
  003de	8d 8d a0 f3 ff
	ff		 lea	 ecx, DWORD PTR _s$[ebp]
  003e4	89 85 a4 fc ff
	ff		 mov	 DWORD PTR _rgnElem$6[ebp+172], eax
  003ea	e8 00 00 00 00	 call	 ?GetNumber@CScanner@@QAEHH@Z ; CScanner::GetNumber

; 442  : 				s.GetToken();	_tcscpy( pRgnElem->m_szKey, s.Token );

  003ef	6a 00		 push	 0
  003f1	8d 8d a0 f3 ff
	ff		 lea	 ecx, DWORD PTR _s$[ebp]
  003f7	89 85 a8 fc ff
	ff		 mov	 DWORD PTR _rgnElem$6[ebp+176], eax
  003fd	e8 00 00 00 00	 call	 ?GetToken@CScanner@@UAEHH@Z ; CScanner::GetToken
; File C:\Program Files\Microsoft Visual Studio\2022\Professional\VC\Tools\MSVC\14.44.35207\atlmfc\include\atlsimpstr.h

; 381  : 		return( m_pszData );

  00402	8b 8d c0 f3 ff
	ff		 mov	 ecx, DWORD PTR _s$[ebp+32]
; File C:\IAGOS\server\v18\Source\Source\_Common\worldmng.cpp

; 433  : 				pRgnElem->m_dwIdTeleWorld	= s.GetNumber();

  00408	8d 95 34 fc ff
	ff		 lea	 edx, DWORD PTR _rgnElem$6[ebp+60]
  0040e	2b d1		 sub	 edx, ecx
$LL38@LoadReviva:

; 442  : 				s.GetToken();	_tcscpy( pRgnElem->m_szKey, s.Token );

  00410	8a 01		 mov	 al, BYTE PTR [ecx]
  00412	8d 49 01	 lea	 ecx, DWORD PTR [ecx+1]
  00415	88 44 0a ff	 mov	 BYTE PTR [edx+ecx-1], al
  00419	84 c0		 test	 al, al
  0041b	75 f3		 jne	 SHORT $LL38@LoadReviva

; 443  : 				pRgnElem->m_bTargetKey	= (bool)(s.GetNumber() == 1);

  0041d	6a 00		 push	 0
  0041f	8d 8d a0 f3 ff
	ff		 lea	 ecx, DWORD PTR _s$[ebp]
  00425	e8 00 00 00 00	 call	 ?GetNumber@CScanner@@QAEHH@Z ; CScanner::GetNumber
  0042a	83 f8 01	 cmp	 eax, 1
  0042d	0f 94 85 b0 fe
	ff ff		 sete	 BYTE PTR _rgnElem$6[ebp+696]

; 444  : 
; 445  : 				if( bNewFormat3 )

  00434	85 ff		 test	 edi, edi
  00436	0f 85 c6 00 00
	00		 jne	 $LN19@LoadReviva

; 446  : 				{
; 447  : 					pRgnElem->m_uItemId		= (u_long)s.GetNumber();

  0043c	57		 push	 edi
  0043d	8d 8d a0 f3 ff
	ff		 lea	 ecx, DWORD PTR _s$[ebp]
  00443	e8 00 00 00 00	 call	 ?GetNumber@CScanner@@QAEHH@Z ; CScanner::GetNumber

; 448  : 					pRgnElem->m_uiItemCount	= (UINT)s.GetNumber();

  00448	57		 push	 edi
  00449	8d 8d a0 f3 ff
	ff		 lea	 ecx, DWORD PTR _s$[ebp]
  0044f	89 85 c0 fe ff
	ff		 mov	 DWORD PTR _rgnElem$6[ebp+712], eax
  00455	e8 00 00 00 00	 call	 ?GetNumber@CScanner@@QAEHH@Z ; CScanner::GetNumber

; 449  : 					pRgnElem->m_uiMinLevel	= (UINT)s.GetNumber();

  0045a	57		 push	 edi
  0045b	8d 8d a0 f3 ff
	ff		 lea	 ecx, DWORD PTR _s$[ebp]
  00461	89 85 c4 fe ff
	ff		 mov	 DWORD PTR _rgnElem$6[ebp+716], eax
  00467	e8 00 00 00 00	 call	 ?GetNumber@CScanner@@QAEHH@Z ; CScanner::GetNumber

; 450  : 					pRgnElem->m_uiMaxLevel	= (UINT)s.GetNumber();

  0046c	57		 push	 edi
  0046d	8d 8d a0 f3 ff
	ff		 lea	 ecx, DWORD PTR _s$[ebp]
  00473	89 85 c8 fe ff
	ff		 mov	 DWORD PTR _rgnElem$6[ebp+720], eax
  00479	e8 00 00 00 00	 call	 ?GetNumber@CScanner@@QAEHH@Z ; CScanner::GetNumber

; 451  : 					pRgnElem->m_iQuest		= s.GetNumber();

  0047e	57		 push	 edi
  0047f	8d 8d a0 f3 ff
	ff		 lea	 ecx, DWORD PTR _s$[ebp]
  00485	89 85 cc fe ff
	ff		 mov	 DWORD PTR _rgnElem$6[ebp+724], eax
  0048b	e8 00 00 00 00	 call	 ?GetNumber@CScanner@@QAEHH@Z ; CScanner::GetNumber

; 452  : 					pRgnElem->m_iQuestFlag	= s.GetNumber();

  00490	57		 push	 edi
  00491	8d 8d a0 f3 ff
	ff		 lea	 ecx, DWORD PTR _s$[ebp]
  00497	89 85 d0 fe ff
	ff		 mov	 DWORD PTR _rgnElem$6[ebp+728], eax
  0049d	e8 00 00 00 00	 call	 ?GetNumber@CScanner@@QAEHH@Z ; CScanner::GetNumber

; 453  : 					pRgnElem->m_iJob		= s.GetNumber();

  004a2	57		 push	 edi
  004a3	8d 8d a0 f3 ff
	ff		 lea	 ecx, DWORD PTR _s$[ebp]
  004a9	89 85 d4 fe ff
	ff		 mov	 DWORD PTR _rgnElem$6[ebp+732], eax
  004af	e8 00 00 00 00	 call	 ?GetNumber@CScanner@@QAEHH@Z ; CScanner::GetNumber

; 454  : 					pRgnElem->m_iGender		= s.GetNumber();

  004b4	57		 push	 edi
  004b5	8d 8d a0 f3 ff
	ff		 lea	 ecx, DWORD PTR _s$[ebp]
  004bb	89 85 d8 fe ff
	ff		 mov	 DWORD PTR _rgnElem$6[ebp+736], eax
  004c1	e8 00 00 00 00	 call	 ?GetNumber@CScanner@@QAEHH@Z ; CScanner::GetNumber

; 455  : 					pRgnElem->m_bCheckParty	= (BOOL)s.GetNumber();

  004c6	57		 push	 edi
  004c7	8d 8d a0 f3 ff
	ff		 lea	 ecx, DWORD PTR _s$[ebp]
  004cd	89 85 dc fe ff
	ff		 mov	 DWORD PTR _rgnElem$6[ebp+740], eax
  004d3	e8 00 00 00 00	 call	 ?GetNumber@CScanner@@QAEHH@Z ; CScanner::GetNumber

; 456  : 					pRgnElem->m_bCheckGuild	= (BOOL)s.GetNumber();

  004d8	57		 push	 edi
  004d9	8d 8d a0 f3 ff
	ff		 lea	 ecx, DWORD PTR _s$[ebp]
  004df	89 85 e0 fe ff
	ff		 mov	 DWORD PTR _rgnElem$6[ebp+744], eax
  004e5	e8 00 00 00 00	 call	 ?GetNumber@CScanner@@QAEHH@Z ; CScanner::GetNumber

; 457  : 					pRgnElem->m_bChaoKey	= (BOOL)s.GetNumber();

  004ea	57		 push	 edi
  004eb	8d 8d a0 f3 ff
	ff		 lea	 ecx, DWORD PTR _s$[ebp]
  004f1	89 85 e4 fe ff
	ff		 mov	 DWORD PTR _rgnElem$6[ebp+748], eax
  004f7	e8 00 00 00 00	 call	 ?GetNumber@CScanner@@QAEHH@Z ; CScanner::GetNumber
  004fc	89 85 e8 fe ff
	ff		 mov	 DWORD PTR _rgnElem$6[ebp+752], eax
$LN19@LoadReviva:

; 458  : 				}
; 459  : 
; 460  : 				if( bNewFormat == FALSE )

  00502	8d 8d a0 f3 ff
	ff		 lea	 ecx, DWORD PTR _s$[ebp]
  00508	6a 00		 push	 0
  0050a	85 f6		 test	 esi, esi
  0050c	0f 85 a8 00 00
	00		 jne	 $LN20@LoadReviva

; 461  : 				{
; 462  : 					pRgnElem->m_cDescSize	= (char)( (LONG)s.GetNumber() );

  00512	e8 00 00 00 00	 call	 ?GetNumber@CScanner@@QAEHH@Z ; CScanner::GetNumber
  00517	88 85 ad fc ff
	ff		 mov	 BYTE PTR _rgnElem$6[ebp+181], al
  0051d	84 c0		 test	 al, al

; 463  : 					if( pRgnElem->m_cDescSize )

  0051f	0f 84 1c 02 00
	00		 je	 $LN309@LoadReviva

; 464  : 					{
; 465  : 						pRgnElem->m_cDescSize = 1;

  00525	c6 85 ad fc ff
	ff 01		 mov	 BYTE PTR _rgnElem$6[ebp+181], 1
; File C:\Program Files\Microsoft Visual Studio\2022\Professional\VC\Tools\MSVC\14.44.35207\atlmfc\include\afxstr.h

; 56   : 		return( AfxGetStringManager() );

  0052c	e8 00 00 00 00	 call	 ?AfxGetStringManager@@YGPAUIAtlStringMgr@ATL@@XZ ; AfxGetStringManager
  00531	8b c8		 mov	 ecx, eax
; File C:\Program Files\Microsoft Visual Studio\2022\Professional\VC\Tools\MSVC\14.44.35207\atlmfc\include\atlsimpstr.h

; 209  : 		ATLENSURE( pStringMgr != NULL );

  00533	85 c9		 test	 ecx, ecx
  00535	0f 84 a5 02 00
	00		 je	 $LN261@LoadReviva

; 210  : 		CStringData* pData = pStringMgr->GetNilString();

  0053b	8b 01		 mov	 eax, DWORD PTR [ecx]
  0053d	8b 40 0c	 mov	 eax, DWORD PTR [eax+12]
  00540	ff d0		 call	 eax

; 211  : 		Attach( pData );

  00542	8d 70 10	 lea	 esi, DWORD PTR [eax+16]
  00545	89 b5 9c f3 ff
	ff		 mov	 DWORD PTR _string$3[ebp], esi
; File C:\IAGOS\server\v18\Source\Source\_Common\worldmng.cpp

; 467  : 						s.GetToken(); // {

  0054b	6a 00		 push	 0
  0054d	8d 8d a0 f3 ff
	ff		 lea	 ecx, DWORD PTR _s$[ebp]
  00553	c6 45 fc 01	 mov	 BYTE PTR __$EHRec$[ebp+8], 1
  00557	e8 00 00 00 00	 call	 ?GetToken@CScanner@@UAEHH@Z ; CScanner::GetToken

; 468  : 						int nLang;
; 469  : 						nLang = s.GetNumber();

  0055c	6a 00		 push	 0
  0055e	8d 8d a0 f3 ff
	ff		 lea	 ecx, DWORD PTR _s$[ebp]
  00564	e8 00 00 00 00	 call	 ?GetNumber@CScanner@@QAEHH@Z ; CScanner::GetNumber
  00569	8b f8		 mov	 edi, eax
  0056b	0f 1f 44 00 00	 npad	 5
$LL6@LoadReviva:

; 470  : 						do
; 471  : 						{
; 472  : 							s.GetLastFull();

  00570	8d 8d a0 f3 ff
	ff		 lea	 ecx, DWORD PTR _s$[ebp]
  00576	e8 00 00 00 00	 call	 ?GetLastFull@CScanner@@QAEXXZ ; CScanner::GetLastFull

; 473  : 							if( nLang == ::GetLanguage() )

  0057b	e8 00 00 00 00	 call	 ?GetLanguage@@YAHXZ	; GetLanguage
  00580	3b f8		 cmp	 edi, eax
  00582	75 17		 jne	 SHORT $LN23@LoadReviva

; 474  : 								strcpy( pRgnElem->m_szDesc, s.m_mszToken );

  00584	33 c9		 xor	 ecx, ecx
$LL39@LoadReviva:
  00586	8a 84 0d e0 f3
	ff ff		 mov	 al, BYTE PTR _s$[ebp+ecx+64]
  0058d	8d 49 01	 lea	 ecx, DWORD PTR [ecx+1]
  00590	88 84 0d ad fc
	ff ff		 mov	 BYTE PTR _rgnElem$6[ebp+ecx+181], al
  00597	84 c0		 test	 al, al
  00599	75 eb		 jne	 SHORT $LL39@LoadReviva
$LN23@LoadReviva:

; 475  : 							nLang = s.GetNumber();

  0059b	6a 00		 push	 0
  0059d	8d 8d a0 f3 ff
	ff		 lea	 ecx, DWORD PTR _s$[ebp]
  005a3	e8 00 00 00 00	 call	 ?GetNumber@CScanner@@QAEHH@Z ; CScanner::GetNumber
  005a8	8b f8		 mov	 edi, eax

; 476  : 						} while( *s.token != '}' );

  005aa	8b 85 dc f3 ff
	ff		 mov	 eax, DWORD PTR _s$[ebp+60]
  005b0	80 38 7d	 cmp	 BYTE PTR [eax], 125	; 0000007dH
  005b3	75 bb		 jne	 SHORT $LL6@LoadReviva

; 477  : 					}
; 478  : 				}

  005b5	e9 6b 01 00 00	 jmp	 $LN313@LoadReviva
$LN20@LoadReviva:

; 479  : 				else
; 480  : 				{
; 481  : 					s.GetToken(); // title

  005ba	e8 00 00 00 00	 call	 ?GetToken@CScanner@@UAEHH@Z ; CScanner::GetToken

; 482  : 					if( s.GetNumber() )

  005bf	6a 00		 push	 0
  005c1	8d 8d a0 f3 ff
	ff		 lea	 ecx, DWORD PTR _s$[ebp]
  005c7	e8 00 00 00 00	 call	 ?GetNumber@CScanner@@QAEHH@Z ; CScanner::GetNumber
  005cc	85 c0		 test	 eax, eax
  005ce	0f 84 a7 00 00
	00		 je	 $LN308@LoadReviva
; File C:\Program Files\Microsoft Visual Studio\2022\Professional\VC\Tools\MSVC\14.44.35207\atlmfc\include\afxstr.h

; 56   : 		return( AfxGetStringManager() );

  005d4	e8 00 00 00 00	 call	 ?AfxGetStringManager@@YGPAUIAtlStringMgr@ATL@@XZ ; AfxGetStringManager
  005d9	8b c8		 mov	 ecx, eax
; File C:\Program Files\Microsoft Visual Studio\2022\Professional\VC\Tools\MSVC\14.44.35207\atlmfc\include\atlsimpstr.h

; 209  : 		ATLENSURE( pStringMgr != NULL );

  005db	85 c9		 test	 ecx, ecx
  005dd	0f 84 fd 01 00
	00		 je	 $LN261@LoadReviva

; 210  : 		CStringData* pData = pStringMgr->GetNilString();

  005e3	8b 01		 mov	 eax, DWORD PTR [ecx]
  005e5	8b 40 0c	 mov	 eax, DWORD PTR [eax+12]
  005e8	ff d0		 call	 eax

; 211  : 		Attach( pData );

  005ea	8d 70 10	 lea	 esi, DWORD PTR [eax+16]
  005ed	89 b5 9c f3 ff
	ff		 mov	 DWORD PTR _string$4[ebp], esi
; File C:\IAGOS\server\v18\Source\Source\_Common\worldmng.cpp

; 485  : 						s.GetToken(); // {

  005f3	6a 00		 push	 0
  005f5	8d 8d a0 f3 ff
	ff		 lea	 ecx, DWORD PTR _s$[ebp]
  005fb	c6 45 fc 02	 mov	 BYTE PTR __$EHRec$[ebp+8], 2
  005ff	e8 00 00 00 00	 call	 ?GetToken@CScanner@@UAEHH@Z ; CScanner::GetToken

; 486  : 						int nLang;
; 487  : 						nLang = s.GetNumber();

  00604	6a 00		 push	 0
  00606	8d 8d a0 f3 ff
	ff		 lea	 ecx, DWORD PTR _s$[ebp]
  0060c	e8 00 00 00 00	 call	 ?GetNumber@CScanner@@QAEHH@Z ; CScanner::GetNumber
  00611	8b f8		 mov	 edi, eax
$LL9@LoadReviva:

; 488  : 						do
; 489  : 						{
; 490  : 							s.GetLastFull();

  00613	8d 8d a0 f3 ff
	ff		 lea	 ecx, DWORD PTR _s$[ebp]
  00619	e8 00 00 00 00	 call	 ?GetLastFull@CScanner@@QAEXXZ ; CScanner::GetLastFull

; 491  : 							if( nLang == ::GetLanguage() )

  0061e	e8 00 00 00 00	 call	 ?GetLanguage@@YAHXZ	; GetLanguage
  00623	3b f8		 cmp	 edi, eax
  00625	75 1e		 jne	 SHORT $LN25@LoadReviva

; 492  : 								strcpy( pRgnElem->m_szDesc, s.m_mszToken );

  00627	33 c9		 xor	 ecx, ecx
  00629	0f 1f 80 00 00
	00 00		 npad	 7
$LL40@LoadReviva:
  00630	8a 84 0d e0 f3
	ff ff		 mov	 al, BYTE PTR _s$[ebp+ecx+64]
  00637	8d 49 01	 lea	 ecx, DWORD PTR [ecx+1]
  0063a	88 84 0d ad fc
	ff ff		 mov	 BYTE PTR _rgnElem$6[ebp+ecx+181], al
  00641	84 c0		 test	 al, al
  00643	75 eb		 jne	 SHORT $LL40@LoadReviva
$LN25@LoadReviva:

; 493  : 							nLang = s.GetNumber();

  00645	6a 00		 push	 0
  00647	8d 8d a0 f3 ff
	ff		 lea	 ecx, DWORD PTR _s$[ebp]
  0064d	e8 00 00 00 00	 call	 ?GetNumber@CScanner@@QAEHH@Z ; CScanner::GetNumber
  00652	8b f8		 mov	 edi, eax

; 494  : 						} while( *s.token != '}' );

  00654	8b 85 dc f3 ff
	ff		 mov	 eax, DWORD PTR _s$[ebp+60]
  0065a	80 38 7d	 cmp	 BYTE PTR [eax], 125	; 0000007dH
  0065d	75 b4		 jne	 SHORT $LL9@LoadReviva

; 495  : 					}

  0065f	c6 45 fc 00	 mov	 BYTE PTR __$EHRec$[ebp+8], 0
; File C:\Program Files\Microsoft Visual Studio\2022\Professional\VC\Tools\MSVC\14.44.35207\atlmfc\include\atlsimpstr.h

; 804  : 		return( reinterpret_cast< CStringData* >( m_pszData )-1 );

  00663	83 c6 f0	 add	 esi, -16		; fffffff0H

; 92   : 		if( _InterlockedDecrement( &nRefs ) <= 0 )

  00666	83 c8 ff	 or	 eax, -1
  00669	f0 0f c1 46 0c	 lock	  xadd	 DWORD PTR [esi+12], eax
  0066e	48		 dec	 eax
  0066f	85 c0		 test	 eax, eax
  00671	7f 08		 jg	 SHORT $LN308@LoadReviva

; 93   : 		{
; 94   : 			pStringMgr->Free( this );

  00673	8b 0e		 mov	 ecx, DWORD PTR [esi]
  00675	56		 push	 esi
  00676	8b 01		 mov	 eax, DWORD PTR [ecx]
  00678	ff 50 04	 call	 DWORD PTR [eax+4]
$LN308@LoadReviva:
; File C:\IAGOS\server\v18\Source\Source\_Common\worldmng.cpp

; 496  : 					s.GetToken(); // desc

  0067b	6a 00		 push	 0
  0067d	8d 8d a0 f3 ff
	ff		 lea	 ecx, DWORD PTR _s$[ebp]
  00683	e8 00 00 00 00	 call	 ?GetToken@CScanner@@UAEHH@Z ; CScanner::GetToken

; 497  : 					if( s.GetNumber() )

  00688	6a 00		 push	 0
  0068a	8d 8d a0 f3 ff
	ff		 lea	 ecx, DWORD PTR _s$[ebp]
  00690	e8 00 00 00 00	 call	 ?GetNumber@CScanner@@QAEHH@Z ; CScanner::GetNumber
  00695	85 c0		 test	 eax, eax
  00697	0f 84 a4 00 00
	00		 je	 $LN309@LoadReviva
; File C:\Program Files\Microsoft Visual Studio\2022\Professional\VC\Tools\MSVC\14.44.35207\atlmfc\include\afxstr.h

; 56   : 		return( AfxGetStringManager() );

  0069d	e8 00 00 00 00	 call	 ?AfxGetStringManager@@YGPAUIAtlStringMgr@ATL@@XZ ; AfxGetStringManager
  006a2	8b c8		 mov	 ecx, eax
; File C:\Program Files\Microsoft Visual Studio\2022\Professional\VC\Tools\MSVC\14.44.35207\atlmfc\include\atlsimpstr.h

; 209  : 		ATLENSURE( pStringMgr != NULL );

