; Listing generated by Microsoft (R) Optimizing Compiler Version 19.44.35225.0 

	TITLE	C:\IAGOS\server\v18\Source\Output\WorldServer\Release\WorldServer.obj
	.686P
	.XMM
	include listing.inc
	.model	flat

INCLUDELIB LIBCMT
INCLUDELIB OLDNAMES

PUBLIC	?g_szCoreAddr@@3PADA				; g_szCoreAddr
_BSS	SEGMENT
?g_szCoreAddr@@3PADA DB 010H DUP (?)			; g_szCoreAddr
_BSS	ENDS
CONST	SEGMENT
?piecewise_construct@std@@3Upiecewise_construct_t@1@B	ORG $+1 ; std::piecewise_construct
CONST	ENDS
PUBLIC	?__empty_global_delete@@YAXPAX@Z		; __empty_global_delete
PUBLIC	?__empty_global_delete@@YAXPAXI@Z		; __empty_global_delete
PUBLIC	_WinMain@16
PUBLIC	___local_stdio_printf_options
PUBLIC	__vsnprintf
PUBLIC	_sprintf
PUBLIC	?AtlThrowImpl@ATL@@YGXJ@Z			; ATL::AtlThrowImpl
PUBLIC	??1?$CSimpleStringT@D$0A@@ATL@@QAE@XZ		; ATL::CSimpleStringT<char,0>::~CSimpleStringT<char,0>
PUBLIC	?SetString@?$CSimpleStringT@D$0A@@ATL@@QAEXPBDH@Z ; ATL::CSimpleStringT<char,0>::SetString
PUBLIC	?ThrowMemoryException@?$CSimpleStringT@D$0A@@ATL@@KAXXZ ; ATL::CSimpleStringT<char,0>::ThrowMemoryException
PUBLIC	?Fork@?$CSimpleStringT@D$0A@@ATL@@AAEXH@Z	; ATL::CSimpleStringT<char,0>::Fork
PUBLIC	?PrepareWrite2@?$CSimpleStringT@D$0A@@ATL@@AAEXH@Z ; ATL::CSimpleStringT<char,0>::PrepareWrite2
PUBLIC	?Reallocate@?$CSimpleStringT@D$0A@@ATL@@AAEXH@Z	; ATL::CSimpleStringT<char,0>::Reallocate
PUBLIC	??1?$CStringT@DV?$StrTraitMFC@DV?$ChTraitsCRT@D@ATL@@@@@ATL@@QAE@XZ ; ATL::CStringT<char,StrTraitMFC<char,ATL::ChTraitsCRT<char> > >::~CStringT<char,StrTraitMFC<char,ATL::ChTraitsCRT<char> > >
PUBLIC	?LoadStringA@?$CStringT@DV?$StrTraitMFC@DV?$ChTraitsCRT@D@ATL@@@@@ATL@@QAEHI@Z ; ATL::CStringT<char,StrTraitMFC<char,ATL::ChTraitsCRT<char> > >::LoadStringA
PUBLIC	?SetLogInfo@@YAXW4LOGTYPE@@PBDZZ		; SetLogInfo
PUBLIC	?WndProc@@YGJPAUHWND__@@IIJ@Z			; WndProc
PUBLIC	?MyRegisterClass@@YAGPAUHINSTANCE__@@@Z		; MyRegisterClass
PUBLIC	?InitInstance@@YAHPAUHINSTANCE__@@H@Z		; InitInstance
PUBLIC	?Script@@YAHPBD@Z				; Script
PUBLIC	?ExitInstance@@YAXXZ				; ExitInstance
PUBLIC	?SetTitle@@YAXXZ				; SetTitle
PUBLIC	?InitLanguageFromResource@@YAXPAUHINSTANCE__@@@Z ; InitLanguageFromResource
PUBLIC	?OnPaint@@YAXAAPAUHDC__@@@Z			; OnPaint
PUBLIC	?EnableFloatException@@YAXXZ			; EnableFloatException
PUBLIC	?_OptionsStorage@?1??__local_stdio_printf_options@@9@4_KA ; `__local_stdio_printf_options'::`2'::_OptionsStorage
PUBLIC	??_C@_00CNPNBAHC@@				; `string'
PUBLIC	??_C@_0BC@FBAMFINP@?$CFY?1?$CFm?1?$CFd?5?$CFH?3?$CFM?3?$CFS@ ; `string'
PUBLIC	??_C@_02DKCKIIND@?$CFs@				; `string'
PUBLIC	??_C@_0P@DHBMMEOB@Masquerade?4prj@		; `string'
PUBLIC	??_C@_0CH@OPDHGCFB@OpenProject?5ERROR?5check?5Masquer@ ; `string'
PUBLIC	??_C@_0P@FFDMEKBF@ItemScript?4lua@		; `string'
PUBLIC	??_C@_0BN@ILLCLPI@WorldDialog?4DLL?5load?5failed?6@ ; `string'
PUBLIC	??_C@_0CO@GGANKMPJ@?$FLCRITICAL?$FN?5Missing?5File?5?9?$DO?5?$CFs?2W@ ; `string'
PUBLIC	??_C@_09PMEBBGDB@?$CFs?$CI?$CFd?$CJ?9?$CFs@	; `string'
PUBLIC	??_C@_0BH@CNNLHGLE@Fail?5to?5open?5file?5?9?5?$CFs@ ; `string'
PUBLIC	??_C@_0P@LOHDAGAN@ResourceFolder@		; `string'
PUBLIC	??_C@_0CK@KMMAOKAL@?$FLCRITICAL?$FN?5Missing?5Folder?5?9?$DO?5Re@ ; `string'
PUBLIC	??_C@_03CCEPDEKL@Key@				; `string'
PUBLIC	??_C@_04KDEOOPC@Core@				; `string'
PUBLIC	??_C@_02LFGCCOHG@DB@				; `string'
PUBLIC	??_C@_07FENCDID@Account@			; `string'
PUBLIC	??_C@_09JNKFAEDP@Heartbeat@			; `string'
PUBLIC	??_C@_02DCIIBFLB@18@				; `string'
PUBLIC	??_C@_02HPIPJOJD@PK@				; `string'
PUBLIC	??_C@_06EINAFBNC@PKCOST@			; `string'
PUBLIC	??_C@_05IIOKACPP@STEAL@				; `string'
PUBLIC	??_C@_09BBHEADKN@GUILDBANK@			; `string'
PUBLIC	??_C@_08BFLGJDDD@GUILDWAR@			; `string'
PUBLIC	??_C@_0BA@CKCJLIL@DROPITEM_REMOVE@		; `string'
PUBLIC	??_C@_06HFJMDKHO@SCHOOL@			; `string'
PUBLIC	??_C@_0M@ILPKKCFD@GUILDCOMBAT@			; `string'
PUBLIC	??_C@_06EEHOPLDM@WORMON@			; `string'
PUBLIC	??_C@_07PABIOCAD@respawn@			; `string'
PUBLIC	??_C@_09HBLOEAKE@RECOMMEND@			; `string'
PUBLIC	??_C@_0BA@PCMILOFB@GUILDCOMBAT1TO1@		; `string'
PUBLIC	??_C@_05PHEGGNLP@ARENA@				; `string'
PUBLIC	??_C@_0L@MDDCMNOB@SECRETROOM@			; `string'
PUBLIC	??_C@_0M@GBIKBMLG@RAINBOWRACE@			; `string'
EXTRN	__invalid_parameter_noinfo:PROC
EXTRN	__errno:PROC
EXTRN	__imp__SetCurrentDirectoryA@4:PROC
EXTRN	__imp__GetCurrentDirectoryA@8:PROC
EXTRN	__imp__OutputDebugStringA@4:PROC
EXTRN	__imp__LoadResource@8:PROC
EXTRN	__imp__LoadStringA@16:PROC
EXTRN	__imp__LockResource@4:PROC
EXTRN	__imp__SizeofResource@8:PROC
EXTRN	__imp__FindResourceW@12:PROC
EXTRN	__imp__TextOutA@20:PROC
EXTRN	__imp__GetMessageA@16:PROC
EXTRN	__imp__TranslateMessage@4:PROC
EXTRN	__imp__DispatchMessageA@4:PROC
EXTRN	__imp__DefWindowProcA@16:PROC
EXTRN	__imp__PostQuitMessage@4:PROC
EXTRN	__imp__RegisterClassExA@4:PROC
EXTRN	__imp__CreateWindowExA@48:PROC
EXTRN	__imp__DestroyWindow@4:PROC
EXTRN	__imp__ShowWindow@8:PROC
EXTRN	__imp__SetWindowPos@28:PROC
EXTRN	__imp__SetTimer@16:PROC
EXTRN	__imp__KillTimer@8:PROC
EXTRN	__imp__UpdateWindow@4:PROC
EXTRN	__imp__BeginPaint@8:PROC
EXTRN	__imp__EndPaint@8:PROC
EXTRN	__imp__InvalidateRect@12:PROC
EXTRN	__imp__SetWindowTextA@8:PROC
EXTRN	__imp__LoadCursorA@8:PROC
EXTRN	__imp__LoadIconA@8:PROC
EXTRN	__imp__WideCharToMultiByte@32:PROC
EXTRN	__mbscmp:PROC
EXTRN	___stdio_common_vsprintf:PROC
EXTRN	_atoi:PROC
EXTRN	__localtime64_s:PROC
EXTRN	_strftime:PROC
EXTRN	__time64:PROC
EXTRN	?AfxThrowMemoryException@@YGXXZ:PROC		; AfxThrowMemoryException
EXTRN	?AfxThrowOleException@@YGXJ@Z:PROC		; AfxThrowOleException
EXTRN	?AfxFindStringResourceHandle@@YGPAUHINSTANCE__@@I@Z:PROC ; AfxFindStringResourceHandle
EXTRN	?AfxGetStringManager@@YGPAUIAtlStringMgr@ATL@@XZ:PROC ; AfxGetStringManager
EXTRN	__controlfp:PROC
EXTRN	?AfxMessageBox@@YGHPBDII@Z:PROC			; AfxMessageBox
EXTRN	__imp__timeGetTime@0:PROC
EXTRN	??0CScanner@@QAE@H@Z:PROC			; CScanner::CScanner
EXTRN	??1CScanner@@UAE@XZ:PROC			; CScanner::~CScanner
EXTRN	?GetToken@CScanner@@UAEHH@Z:PROC		; CScanner::GetToken
EXTRN	?Load@CScanner@@QAEHPBDH@Z:PROC			; CScanner::Load
EXTRN	?GetNumber@CScanner@@QAEHH@Z:PROC		; CScanner::GetNumber
EXTRN	?xSRand@@YAXK@Z:PROC				; xSRand
EXTRN	?Error@@YAPBDPBDZZ:PROC				; Error
EXTRN	?SetLanguageInfo@@YAXHH@Z:PROC			; SetLanguageInfo
EXTRN	?GetLanguage@@YAHXZ:PROC			; GetLanguage
EXTRN	?DeleteDeviceObjects@CModelMng@@QAEJXZ:PROC	; CModelMng::DeleteDeviceObjects
EXTRN	?OpenProject@CProject@@QAEHPBD@Z:PROC		; CProject::OpenProject
EXTRN	?Destroy@CObject3DMng@@QAEXXZ:PROC		; CObject3DMng::Destroy
EXTRN	?SetState@CFlyffEvent@@QAEHHE@Z:PROC		; CFlyffEvent::SetState
EXTRN	?UninitializeNetLib@@YAXXZ:PROC			; UninitializeNetLib
EXTRN	?InitializeNetLib@@YAHXZ:PROC			; InitializeNetLib
EXTRN	?DeleteDPObject@CDPMng@@QAEHXZ:PROC		; CDPMng::DeleteDPObject
EXTRN	?Clear@CGuildMng@@QAEXXZ:PROC			; CGuildMng::Clear
EXTRN	?SendPing@CDPCoreClient@@QAEXXZ:PROC		; CDPCoreClient::SendPing
EXTRN	?SendPing@CDPDatabaseClient@@QAEXXZ:PROC	; CDPDatabaseClient::SendPing
EXTRN	?Clear@CPartyMng@@QAEXXZ:PROC			; CPartyMng::Clear
EXTRN	?Clear@CChattingMng@@QAEXXZ:PROC		; CChattingMng::Clear
EXTRN	?Clear@CHousingMng@@QAEXXZ:PROC			; CHousingMng::Clear
EXTRN	?GetInstance@CHousingMng@@SAPAV1@XZ:PROC	; CHousingMng::GetInstance
EXTRN	?Free@CWorldMng@@QAEXXZ:PROC			; CWorldMng::Free
EXTRN	?Init@CRunObject@@QAEHXZ:PROC			; CRunObject::Init
EXTRN	?Close@CRunObject@@QAEXXZ:PROC			; CRunObject::Close
EXTRN	?GetInstance@CRunObject@@SAPAV1@XZ:PROC		; CRunObject::GetInstance
EXTRN	?ToggleProfiling@CRunObject@@QAEXXZ:PROC	; CRunObject::ToggleProfiling
EXTRN	?Clear@CGuildWarMng@@QAEXXZ:PROC		; CGuildWarMng::Clear
EXTRN	?CompileItemScript@@YAHPBD@Z:PROC		; CompileItemScript
EXTRN	?Init@CWorldDialog@@QAEHXZ:PROC			; CWorldDialog::Init
EXTRN	?GetInstance@CWorldDialog@@SAAAV1@XZ:PROC	; CWorldDialog::GetInstance
EXTRN	?InitializeScriptLib@@YAHXZ:PROC		; InitializeScriptLib
EXTRN	?UninitializeScriptLib@@YAXXZ:PROC		; UninitializeScriptLib
EXTRN	?Instance@CSLord@@SAPAV1@XZ:PROC		; CSLord::Instance
EXTRN	?GetLangData@CLangMan@@QAEPAU_LANG_DATA@@K@Z:PROC ; CLangMan::GetLangData
EXTRN	?GetInstance@CLangMan@@SAPAV1@XZ:PROC		; CLangMan::GetInstance
EXTRN	@__security_check_cookie@4:PROC
EXTRN	___CxxFrameHandler3:PROC
EXTRN	_memcpy:PROC
EXTRN	_memmove:PROC
EXTRN	_memset:PROC
EXTRN	?g_codePage@@3GA:WORD				; g_codePage
EXTRN	?prj@@3VCProject@@A:BYTE			; prj
EXTRN	?g_Object3DMng@@3VCObject3DMng@@A:QWORD		; g_Object3DMng
EXTRN	?g_uIdofMulti@@3KA:DWORD			; g_uIdofMulti
EXTRN	?g_eLocal@@3VCFlyffEvent@@A:BYTE		; g_eLocal
EXTRN	?g_uKey@@3KA:DWORD				; g_uKey
EXTRN	?g_GuildMng@@3VCGuildMng@@A:BYTE		; g_GuildMng
EXTRN	?g_GuildWarMng@@3VCGuildWarMng@@A:BYTE		; g_GuildWarMng
EXTRN	?g_ChattingMng@@3VCChattingMng@@A:QWORD		; g_ChattingMng
EXTRN	?g_PartyMng@@3VCPartyMng@@A:BYTE		; g_PartyMng
EXTRN	?g_szDBAddr@@3PADA:BYTE				; g_szDBAddr
EXTRN	?g_sHeartbeat@@3PADA:BYTE			; g_sHeartbeat
EXTRN	?g_DPSrvr@@3VCDPSrvr@@A:BYTE			; g_DPSrvr
EXTRN	?g_DPCoreClient@@3VCDPCoreClient@@A:BYTE	; g_DPCoreClient
EXTRN	?g_dpDBClient@@3VCDPDatabaseClient@@A:BYTE	; g_dpDBClient
EXTRN	?g_WorldMng@@3VCWorldMng@@A:BYTE		; g_WorldMng
EXTRN	___security_cookie:DWORD
;	COMDAT ?_OptionsStorage@?1??__local_stdio_printf_options@@9@4_KA
_BSS	SEGMENT
?_OptionsStorage@?1??__local_stdio_printf_options@@9@4_KA DQ 01H DUP (?) ; `__local_stdio_printf_options'::`2'::_OptionsStorage
_BSS	ENDS
_BSS	SEGMENT
?g_szTitle@@3PADA DB 064H DUP (?)			; g_szTitle
?g_szWindowClass@@3PADA DB 064H DUP (?)			; g_szWindowClass
?g_hMainWnd@@3PAUHWND__@@A DD 01H DUP (?)		; g_hMainWnd
?g_szBuffer@@3PAY0BAA@DA DB 0700H DUP (?)		; g_szBuffer
_BSS	ENDS
;	COMDAT ??_C@_0M@GBIKBMLG@RAINBOWRACE@
CONST	SEGMENT
??_C@_0M@GBIKBMLG@RAINBOWRACE@ DB 'RAINBOWRACE', 00H	; `string'
CONST	ENDS
;	COMDAT ??_C@_0L@MDDCMNOB@SECRETROOM@
CONST	SEGMENT
??_C@_0L@MDDCMNOB@SECRETROOM@ DB 'SECRETROOM', 00H	; `string'
CONST	ENDS
;	COMDAT ??_C@_05PHEGGNLP@ARENA@
CONST	SEGMENT
??_C@_05PHEGGNLP@ARENA@ DB 'ARENA', 00H			; `string'
CONST	ENDS
;	COMDAT ??_C@_0BA@PCMILOFB@GUILDCOMBAT1TO1@
CONST	SEGMENT
??_C@_0BA@PCMILOFB@GUILDCOMBAT1TO1@ DB 'GUILDCOMBAT1TO1', 00H ; `string'
CONST	ENDS
;	COMDAT ??_C@_09HBLOEAKE@RECOMMEND@
CONST	SEGMENT
??_C@_09HBLOEAKE@RECOMMEND@ DB 'RECOMMEND', 00H		; `string'
CONST	ENDS
;	COMDAT ??_C@_07PABIOCAD@respawn@
CONST	SEGMENT
??_C@_07PABIOCAD@respawn@ DB 'respawn', 00H		; `string'
CONST	ENDS
;	COMDAT ??_C@_06EEHOPLDM@WORMON@
CONST	SEGMENT
??_C@_06EEHOPLDM@WORMON@ DB 'WORMON', 00H		; `string'
CONST	ENDS
;	COMDAT ??_C@_0M@ILPKKCFD@GUILDCOMBAT@
CONST	SEGMENT
??_C@_0M@ILPKKCFD@GUILDCOMBAT@ DB 'GUILDCOMBAT', 00H	; `string'
CONST	ENDS
;	COMDAT ??_C@_06HFJMDKHO@SCHOOL@
CONST	SEGMENT
??_C@_06HFJMDKHO@SCHOOL@ DB 'SCHOOL', 00H		; `string'
CONST	ENDS
;	COMDAT ??_C@_0BA@CKCJLIL@DROPITEM_REMOVE@
CONST	SEGMENT
??_C@_0BA@CKCJLIL@DROPITEM_REMOVE@ DB 'DROPITEM_REMOVE', 00H ; `string'
CONST	ENDS
;	COMDAT ??_C@_08BFLGJDDD@GUILDWAR@
CONST	SEGMENT
??_C@_08BFLGJDDD@GUILDWAR@ DB 'GUILDWAR', 00H		; `string'
CONST	ENDS
;	COMDAT ??_C@_09BBHEADKN@GUILDBANK@
CONST	SEGMENT
??_C@_09BBHEADKN@GUILDBANK@ DB 'GUILDBANK', 00H		; `string'
CONST	ENDS
;	COMDAT ??_C@_05IIOKACPP@STEAL@
CONST	SEGMENT
??_C@_05IIOKACPP@STEAL@ DB 'STEAL', 00H			; `string'
CONST	ENDS
;	COMDAT ??_C@_06EINAFBNC@PKCOST@
CONST	SEGMENT
??_C@_06EINAFBNC@PKCOST@ DB 'PKCOST', 00H		; `string'
CONST	ENDS
;	COMDAT ??_C@_02HPIPJOJD@PK@
CONST	SEGMENT
??_C@_02HPIPJOJD@PK@ DB 'PK', 00H			; `string'
CONST	ENDS
;	COMDAT ??_C@_02DCIIBFLB@18@
CONST	SEGMENT
??_C@_02DCIIBFLB@18@ DB '18', 00H			; `string'
CONST	ENDS
;	COMDAT ??_C@_09JNKFAEDP@Heartbeat@
CONST	SEGMENT
??_C@_09JNKFAEDP@Heartbeat@ DB 'Heartbeat', 00H		; `string'
CONST	ENDS
;	COMDAT ??_C@_07FENCDID@Account@
CONST	SEGMENT
??_C@_07FENCDID@Account@ DB 'Account', 00H		; `string'
CONST	ENDS
;	COMDAT ??_C@_02LFGCCOHG@DB@
CONST	SEGMENT
??_C@_02LFGCCOHG@DB@ DB 'DB', 00H			; `string'
CONST	ENDS
;	COMDAT ??_C@_04KDEOOPC@Core@
CONST	SEGMENT
??_C@_04KDEOOPC@Core@ DB 'Core', 00H			; `string'
CONST	ENDS
;	COMDAT ??_C@_03CCEPDEKL@Key@
CONST	SEGMENT
??_C@_03CCEPDEKL@Key@ DB 'Key', 00H			; `string'
CONST	ENDS
;	COMDAT ??_C@_0CK@KMMAOKAL@?$FLCRITICAL?$FN?5Missing?5Folder?5?9?$DO?5Re@
CONST	SEGMENT
??_C@_0CK@KMMAOKAL@?$FLCRITICAL?$FN?5Missing?5Folder?5?9?$DO?5Re@ DB '[CR'
	DB	'ITICAL] Missing Folder -> Resource, %s', 00H ; `string'
CONST	ENDS
;	COMDAT ??_C@_0P@LOHDAGAN@ResourceFolder@
CONST	SEGMENT
??_C@_0P@LOHDAGAN@ResourceFolder@ DB 'ResourceFolder', 00H ; `string'
CONST	ENDS
;	COMDAT ??_C@_0BH@CNNLHGLE@Fail?5to?5open?5file?5?9?5?$CFs@
CONST	SEGMENT
??_C@_0BH@CNNLHGLE@Fail?5to?5open?5file?5?9?5?$CFs@ DB 'Fail to open file'
	DB	' - %s', 00H					; `string'
CONST	ENDS
;	COMDAT ??_C@_09PMEBBGDB@?$CFs?$CI?$CFd?$CJ?9?$CFs@
CONST	SEGMENT
??_C@_09PMEBBGDB@?$CFs?$CI?$CFd?$CJ?9?$CFs@ DB '%s(%d)-%s', 00H ; `string'
CONST	ENDS
;	COMDAT ??_C@_0CO@GGANKMPJ@?$FLCRITICAL?$FN?5Missing?5File?5?9?$DO?5?$CFs?2W@
CONST	SEGMENT
??_C@_0CO@GGANKMPJ@?$FLCRITICAL?$FN?5Missing?5File?5?9?$DO?5?$CFs?2W@ DB '['
	DB	'CRITICAL] Missing File -> %s\WorldServer.ini', 00H ; `string'
CONST	ENDS
;	COMDAT ??_C@_0BN@ILLCLPI@WorldDialog?4DLL?5load?5failed?6@
CONST	SEGMENT
??_C@_0BN@ILLCLPI@WorldDialog?4DLL?5load?5failed?6@ DB 'WorldDialog.DLL l'
	DB	'oad failed', 0aH, 00H			; `string'
CONST	ENDS
;	COMDAT ??_C@_0P@FFDMEKBF@ItemScript?4lua@
CONST	SEGMENT
??_C@_0P@FFDMEKBF@ItemScript?4lua@ DB 'ItemScript.lua', 00H ; `string'
CONST	ENDS
;	COMDAT ??_C@_0CH@OPDHGCFB@OpenProject?5ERROR?5check?5Masquer@
CONST	SEGMENT
??_C@_0CH@OPDHGCFB@OpenProject?5ERROR?5check?5Masquer@ DB 'OpenProject ER'
	DB	'ROR check Masquerade.prj', 00H		; `string'
CONST	ENDS
;	COMDAT ??_C@_0P@DHBMMEOB@Masquerade?4prj@
CONST	SEGMENT
??_C@_0P@DHBMMEOB@Masquerade?4prj@ DB 'Masquerade.prj', 00H ; `string'
CONST	ENDS
;	COMDAT ??_C@_02DKCKIIND@?$CFs@
CONST	SEGMENT
??_C@_02DKCKIIND@?$CFs@ DB '%s', 00H			; `string'
CONST	ENDS
;	COMDAT ??_C@_0BC@FBAMFINP@?$CFY?1?$CFm?1?$CFd?5?$CFH?3?$CFM?3?$CFS@
CONST	SEGMENT
??_C@_0BC@FBAMFINP@?$CFY?1?$CFm?1?$CFd?5?$CFH?3?$CFM?3?$CFS@ DB '%Y/%m/%d'
	DB	' %H:%M:%S', 00H				; `string'
CONST	ENDS
_DATA	SEGMENT
?g_szINI@@3PADA DB '..\script\WorldServer.ini', 00H	; g_szINI
_DATA	ENDS
;	COMDAT ??_C@_00CNPNBAHC@@
CONST	SEGMENT
??_C@_00CNPNBAHC@@ DB 00H				; `string'
CONST	ENDS
;	COMDAT xdata$x
xdata$x	SEGMENT
__unwindtable$?Script@@YAHPBD@Z DD 0ffffffffH
	DD	FLAT:__unwindfunclet$?Script@@YAHPBD@Z$0
__ehfuncinfo$?Script@@YAHPBD@Z DD 019930522H
	DD	01H
	DD	FLAT:__unwindtable$?Script@@YAHPBD@Z
	DD	2 DUP(00H)
	DD	2 DUP(00H)
	DD	00H
	DD	01H
xdata$x	ENDS
;	COMDAT xdata$x
xdata$x	SEGMENT
__unwindtable$?InitInstance@@YAHPAUHINSTANCE__@@H@Z DD 0ffffffffH
	DD	00H
	DD	0ffffffffH
	DD	FLAT:__unwindfunclet$?InitInstance@@YAHPAUHINSTANCE__@@H@Z$3
__ehfuncinfo$?InitInstance@@YAHPAUHINSTANCE__@@H@Z DD 019930522H
	DD	02H
	DD	FLAT:__unwindtable$?InitInstance@@YAHPAUHINSTANCE__@@H@Z
	DD	2 DUP(00H)
	DD	2 DUP(00H)
	DD	00H
	DD	01H
xdata$x	ENDS
;	COMDAT xdata$x
xdata$x	SEGMENT
__unwindtable$?Format@CTime@ATL@@QBE?AV?$CStringT@DV?$StrTraitMFC@DV?$ChTraitsCRT@D@ATL@@@@@2@PBD@Z DD 0ffffffffH
	DD	FLAT:__unwindfunclet$?Format@CTime@ATL@@QBE?AV?$CStringT@DV?$StrTraitMFC@DV?$ChTraitsCRT@D@ATL@@@@@2@PBD@Z$1
	DD	0ffffffffH
	DD	FLAT:__unwindfunclet$?Format@CTime@ATL@@QBE?AV?$CStringT@DV?$StrTraitMFC@DV?$ChTraitsCRT@D@ATL@@@@@2@PBD@Z$2
__ehfuncinfo$?Format@CTime@ATL@@QBE?AV?$CStringT@DV?$StrTraitMFC@DV?$ChTraitsCRT@D@ATL@@@@@2@PBD@Z DD 019930522H
	DD	02H
	DD	FLAT:__unwindtable$?Format@CTime@ATL@@QBE?AV?$CStringT@DV?$StrTraitMFC@DV?$ChTraitsCRT@D@ATL@@@@@2@PBD@Z
	DD	2 DUP(00H)
	DD	2 DUP(00H)
	DD	00H
	DD	01H
xdata$x	ENDS
;	COMDAT xdata$x
xdata$x	SEGMENT
__unwindtable$??0?$CStringT@DV?$StrTraitMFC@DV?$ChTraitsCRT@D@ATL@@@@@ATL@@QAE@PBD@Z DD 0ffffffffH
	DD	FLAT:__unwindfunclet$??0?$CStringT@DV?$StrTraitMFC@DV?$ChTraitsCRT@D@ATL@@@@@ATL@@QAE@PBD@Z$0
__ehfuncinfo$??0?$CStringT@DV?$StrTraitMFC@DV?$ChTraitsCRT@D@ATL@@@@@ATL@@QAE@PBD@Z DD 019930522H
	DD	01H
	DD	FLAT:__unwindtable$??0?$CStringT@DV?$StrTraitMFC@DV?$ChTraitsCRT@D@ATL@@@@@ATL@@QAE@PBD@Z
	DD	2 DUP(00H)
	DD	2 DUP(00H)
	DD	00H
	DD	01H
xdata$x	ENDS
; Function compile flags: /Ogtp
; File C:\IAGOS\server\v18\Source\Source\WorldServer\WorldServer.cpp
;	COMDAT ?EnableFloatException@@YAXXZ
_TEXT	SEGMENT
?EnableFloatException@@YAXXZ PROC			; EnableFloatException, COMDAT

; 342  : 	int cw = _controlfp( 0, 0 );

  00000	6a 00		 push	 0
  00002	6a 00		 push	 0
  00004	e8 00 00 00 00	 call	 __controlfp

; 343  : 	cw &= ~(EM_OVERFLOW|EM_UNDERFLOW|EM_ZERODIVIDE|EM_DENORMAL);

  00009	25 f1 ff f7 ff	 and	 eax, -524303		; fff7fff1H

; 344  : 	_controlfp( cw, MCW_EM );

  0000e	68 1f 00 08 00	 push	 524319			; 0008001fH
  00013	50		 push	 eax
  00014	e8 00 00 00 00	 call	 __controlfp
  00019	83 c4 10	 add	 esp, 16			; 00000010H

; 345  : }

  0001c	c3		 ret	 0
?EnableFloatException@@YAXXZ ENDP			; EnableFloatException
_TEXT	ENDS
; Function compile flags: /Ogtp
; File C:\IAGOS\server\v18\Source\Source\WorldServer\WorldServer.cpp
;	COMDAT ?OnPaint@@YAXAAPAUHDC__@@@Z
_TEXT	SEGMENT
_hDC$ = 8						; size = 4
?OnPaint@@YAXAAPAUHDC__@@@Z PROC			; OnPaint, COMDAT

; 245  : {

  00000	55		 push	 ebp
  00001	8b ec		 mov	 ebp, esp
  00003	53		 push	 ebx

; 246  : 	int x, y;
; 247  : 	x = 0;

  00004	8b 5d 08	 mov	 ebx, DWORD PTR _hDC$[ebp]
  00007	56		 push	 esi
  00008	57		 push	 edi

; 248  : 	y = 0;

  00009	33 ff		 xor	 edi, edi
  0000b	be 00 00 00 00	 mov	 esi, OFFSET ?g_szBuffer@@3PAY0BAA@DA
$LL4@OnPaint:

; 251  : 	{
; 252  : 		TextOut( hDC, x, y, g_szBuffer[i], strlen( g_szBuffer[i] ) );

  00010	8b c6		 mov	 eax, esi
  00012	8d 50 01	 lea	 edx, DWORD PTR [eax+1]
$LL10@OnPaint:
  00015	8a 08		 mov	 cl, BYTE PTR [eax]
  00017	40		 inc	 eax
  00018	84 c9		 test	 cl, cl
  0001a	75 f9		 jne	 SHORT $LL10@OnPaint
  0001c	2b c2		 sub	 eax, edx
  0001e	50		 push	 eax
  0001f	56		 push	 esi
  00020	57		 push	 edi
  00021	6a 00		 push	 0
  00023	ff 33		 push	 DWORD PTR [ebx]
  00025	ff 15 00 00 00
	00		 call	 DWORD PTR __imp__TextOutA@20
  0002b	81 c6 00 01 00
	00		 add	 esi, 256		; 00000100H

; 253  : 		y += 20;

  00031	83 c7 14	 add	 edi, 20			; 00000014H
  00034	81 fe 00 07 00
	00		 cmp	 esi, OFFSET ?g_szBuffer@@3PAY0BAA@DA+1792
  0003a	7c d4		 jl	 SHORT $LL4@OnPaint

; 249  : 	
; 250  : 	for( int i=0; i<LOGTYPE_MAX; ++i )

  0003c	5f		 pop	 edi
  0003d	5e		 pop	 esi
  0003e	5b		 pop	 ebx

; 254  : 	}
; 255  : 
; 256  : #ifdef __NEW_PROFILE
; 257  : 	if( CProfileInfo::GetInstance()->IsToggleProfiling() )
; 258  : 	{
; 259  : 		TextOut( hDC, x, y, "Profiler : ON", 13 );
; 260  : 		y += 20;
; 261  : 	}
; 262  : 	/*
; 263  : 	for( i=0; i<CProfileInfo::GetInstance()->m_vecstrProfileInfo.size(); i++ )
; 264  : 	{
; 265  : 		TextOut( hDC, x, y, CProfileInfo::GetInstance()->m_vecstrProfileInfo[i].c_str(), CProfileInfo::GetInstance()->m_vecstrProfileInfo[i].length() );
; 266  : 		y += 20;
; 267  : 	}
; 268  : 	*/
; 269  : #endif // __NEW_PROFILE
; 270  : }

  0003f	5d		 pop	 ebp
  00040	c3		 ret	 0
?OnPaint@@YAXAAPAUHDC__@@@Z ENDP			; OnPaint
_TEXT	ENDS
; Function compile flags: /Ogtp
; File C:\IAGOS\server\v18\Source\Source\WorldServer\WorldServer.cpp
;	COMDAT ?InitLanguageFromResource@@YAXPAUHINSTANCE__@@@Z
_TEXT	SEGMENT
_szLang$ = -52						; size = 16
_szSubLang$ = -36					; size = 16
_szCodePage$ = -20					; size = 16
__$ArrayPad$ = -4					; size = 4
_hInstance$ = 8						; size = 4
?InitLanguageFromResource@@YAXPAUHINSTANCE__@@@Z PROC	; InitLanguageFromResource, COMDAT

; 141  : {

  00000	55		 push	 ebp
  00001	8b ec		 mov	 ebp, esp
  00003	83 ec 34	 sub	 esp, 52			; 00000034H
  00006	a1 00 00 00 00	 mov	 eax, DWORD PTR ___security_cookie
  0000b	33 c5		 xor	 eax, ebp
  0000d	89 45 fc	 mov	 DWORD PTR __$ArrayPad$[ebp], eax
  00010	56		 push	 esi

; 142  : 	char szLang[16], szSubLang[16];
; 143  : 	LoadString(hInstance, IDS_LANG, szLang, 16);	

  00011	8b 35 00 00 00
	00		 mov	 esi, DWORD PTR __imp__LoadStringA@16
  00017	8d 45 cc	 lea	 eax, DWORD PTR _szLang$[ebp]
  0001a	57		 push	 edi
  0001b	8b 7d 08	 mov	 edi, DWORD PTR _hInstance$[ebp]
  0001e	6a 10		 push	 16			; 00000010H
  00020	50		 push	 eax
  00021	6a 02		 push	 2
  00023	57		 push	 edi
  00024	ff d6		 call	 esi

; 144  : 	LoadString(hInstance, IDS_SUBLANG, szSubLang, 16);	

  00026	6a 10		 push	 16			; 00000010H
  00028	8d 45 dc	 lea	 eax, DWORD PTR _szSubLang$[ebp]
  0002b	50		 push	 eax
  0002c	6a 03		 push	 3
  0002e	57		 push	 edi
  0002f	ff d6		 call	 esi

; 145  : 	
; 146  : 	char szCodePage[16];
; 147  : 	LoadString(hInstance, IDS_CODEPAGE, szCodePage, 16);	

  00031	6a 10		 push	 16			; 00000010H
  00033	8d 45 ec	 lea	 eax, DWORD PTR _szCodePage$[ebp]
  00036	50		 push	 eax
  00037	6a 04		 push	 4
  00039	57		 push	 edi
  0003a	ff d6		 call	 esi

; 148  : 	g_codePage = atoi( szCodePage );

  0003c	8d 45 ec	 lea	 eax, DWORD PTR _szCodePage$[ebp]
  0003f	50		 push	 eax
  00040	e8 00 00 00 00	 call	 _atoi
  00045	66 a3 00 00 00
	00		 mov	 WORD PTR ?g_codePage@@3GA, ax ; g_codePage

; 149  : 
; 150  : 	::SetLanguageInfo( atoi( szLang ), atoi( szSubLang ) );

  0004b	8d 45 dc	 lea	 eax, DWORD PTR _szSubLang$[ebp]
  0004e	50		 push	 eax
  0004f	e8 00 00 00 00	 call	 _atoi
  00054	83 c4 08	 add	 esp, 8
  00057	50		 push	 eax
  00058	8d 45 cc	 lea	 eax, DWORD PTR _szLang$[ebp]
  0005b	50		 push	 eax
  0005c	e8 00 00 00 00	 call	 _atoi
  00061	83 c4 04	 add	 esp, 4
  00064	50		 push	 eax
  00065	e8 00 00 00 00	 call	 ?SetLanguageInfo@@YAXHH@Z ; SetLanguageInfo

; 151  : }

  0006a	8b 4d fc	 mov	 ecx, DWORD PTR __$ArrayPad$[ebp]
  0006d	83 c4 08	 add	 esp, 8
  00070	33 cd		 xor	 ecx, ebp
  00072	5f		 pop	 edi
  00073	5e		 pop	 esi
  00074	e8 00 00 00 00	 call	 @__security_check_cookie@4
  00079	8b e5		 mov	 esp, ebp
  0007b	5d		 pop	 ebp
  0007c	c3		 ret	 0
?InitLanguageFromResource@@YAXPAUHINSTANCE__@@@Z ENDP	; InitLanguageFromResource
_TEXT	ENDS
; Function compile flags: /Ogtp
; File C:\IAGOS\server\v18\Source\Source\WorldServer\WorldServer.cpp
;	COMDAT ?SetTitle@@YAXXZ
_TEXT	SEGMENT
_szTitle$ = -520					; size = 256
_szLang$ = -264						; size = 260
__$ArrayPad$ = -4					; size = 4
?SetTitle@@YAXXZ PROC					; SetTitle, COMDAT

; 503  : {

  00000	55		 push	 ebp
  00001	8b ec		 mov	 ebp, esp
  00003	81 ec 08 02 00
	00		 sub	 esp, 520		; 00000208H
  00009	a1 00 00 00 00	 mov	 eax, DWORD PTR ___security_cookie
  0000e	33 c5		 xor	 eax, ebp
  00010	89 45 fc	 mov	 DWORD PTR __$ArrayPad$[ebp], eax

; 504  : 	char szLang[MAX_PATH]	= { 0, };

  00013	68 04 01 00 00	 push	 260			; 00000104H
  00018	8d 85 f8 fe ff
	ff		 lea	 eax, DWORD PTR _szLang$[ebp]
  0001e	6a 00		 push	 0
  00020	50		 push	 eax
  00021	e8 00 00 00 00	 call	 _memset
  00026	83 c4 0c	 add	 esp, 12			; 0000000cH

; 505  : #ifdef __LANG_1013
; 506  : 	sprintf( szLang, CLangMan::GetInstance()->GetLangData( ::GetLanguage() )->szTitle );

  00029	e8 00 00 00 00	 call	 ?GetLanguage@@YAHXZ	; GetLanguage
  0002e	50		 push	 eax
  0002f	e8 00 00 00 00	 call	 ?GetInstance@CLangMan@@SAPAV1@XZ ; CLangMan::GetInstance
  00034	8b c8		 mov	 ecx, eax
  00036	e8 00 00 00 00	 call	 ?GetLangData@CLangMan@@QAEPAU_LANG_DATA@@K@Z ; CLangMan::GetLangData
  0003b	05 08 02 00 00	 add	 eax, 520		; 00000208H
  00040	50		 push	 eax
  00041	8d 85 f8 fe ff
	ff		 lea	 eax, DWORD PTR _szLang$[ebp]
  00047	50		 push	 eax
  00048	e8 00 00 00 00	 call	 _sprintf

; 507  : #else	// __LANG_1013
; 508  : 	switch( ::GetLanguage() )
; 509  : 	{
; 510  : 		case 0:	sprintf( szLang, "Korean" );	break;
; 511  : 		case 1:	sprintf( szLang, "English" );	break;
; 512  : 		case 2:	sprintf( szLang, "Japanese" );	break;
; 513  : 		case 3:	sprintf( szLang, "Chinese" );	break;
; 514  : 		case 4:	sprintf( szLang, "Thailand" );	break;
; 515  : 		case 5:	sprintf( szLang, "Taiwan" );	break;
; 516  : 		default:	break;
; 517  : 	}
; 518  : #endif	// __LANG_1013
; 519  : 
; 520  : 	char szTitle[256];
; 521  : 	sprintf( szTitle, "%s(%d)-%s", g_szTitle, g_uKey, szLang );

  0004d	8d 85 f8 fe ff
	ff		 lea	 eax, DWORD PTR _szLang$[ebp]
  00053	50		 push	 eax
  00054	ff 35 00 00 00
	00		 push	 DWORD PTR ?g_uKey@@3KA	; g_uKey
  0005a	8d 85 f8 fd ff
	ff		 lea	 eax, DWORD PTR _szTitle$[ebp]
  00060	68 00 00 00 00	 push	 OFFSET ?g_szTitle@@3PADA
  00065	68 00 00 00 00	 push	 OFFSET ??_C@_09PMEBBGDB@?$CFs?$CI?$CFd?$CJ?9?$CFs@
  0006a	50		 push	 eax
  0006b	e8 00 00 00 00	 call	 _sprintf
  00070	83 c4 1c	 add	 esp, 28			; 0000001cH

; 522  : 	SetWindowText( g_hMainWnd, szTitle );

  00073	8d 85 f8 fd ff
	ff		 lea	 eax, DWORD PTR _szTitle$[ebp]
  00079	50		 push	 eax
  0007a	ff 35 00 00 00
	00		 push	 DWORD PTR ?g_hMainWnd@@3PAUHWND__@@A
  00080	ff 15 00 00 00
	00		 call	 DWORD PTR __imp__SetWindowTextA@8

; 523  : }

  00086	8b 4d fc	 mov	 ecx, DWORD PTR __$ArrayPad$[ebp]
  00089	33 cd		 xor	 ecx, ebp
  0008b	e8 00 00 00 00	 call	 @__security_check_cookie@4
  00090	8b e5		 mov	 esp, ebp
  00092	5d		 pop	 ebp
  00093	c3		 ret	 0
?SetTitle@@YAXXZ ENDP					; SetTitle
_TEXT	ENDS
; Function compile flags: /Ogtp
; File C:\IAGOS\server\v18\Source\Source\WorldServer\WorldServer.cpp
;	COMDAT ?ExitInstance@@YAXXZ
_TEXT	SEGMENT
?ExitInstance@@YAXXZ PROC				; ExitInstance, COMDAT

; 431  : 	CRunObject::GetInstance()->Close();

  00000	e8 00 00 00 00	 call	 ?GetInstance@CRunObject@@SAPAV1@XZ ; CRunObject::GetInstance
  00005	8b c8		 mov	 ecx, eax
  00007	e8 00 00 00 00	 call	 ?Close@CRunObject@@QAEXXZ ; CRunObject::Close

; 432  : 	/*
; 433  : #ifdef __GIFTBOX0213
; 434  : 	CDPAccountClient::GetInstance()->DeleteDPObject();
; 435  : #endif	// __GIFTBOX0213
; 436  : 	*/
; 437  : 
; 438  : 	g_DPSrvr.DeleteDPObject();

  0000c	b9 00 00 00 00	 mov	 ecx, OFFSET ?g_DPSrvr@@3VCDPSrvr@@A ; g_DPSrvr
  00011	e8 00 00 00 00	 call	 ?DeleteDPObject@CDPMng@@QAEHXZ ; CDPMng::DeleteDPObject

; 439  : 	g_DPCoreClient.DeleteDPObject();

  00016	b9 00 00 00 00	 mov	 ecx, OFFSET ?g_DPCoreClient@@3VCDPCoreClient@@A ; g_DPCoreClient
  0001b	e8 00 00 00 00	 call	 ?DeleteDPObject@CDPMng@@QAEHXZ ; CDPMng::DeleteDPObject

; 440  : 	g_dpDBClient.DeleteDPObject();

  00020	b9 00 00 00 00	 mov	 ecx, OFFSET ?g_dpDBClient@@3VCDPDatabaseClient@@A ; g_dpDBClient
  00025	e8 00 00 00 00	 call	 ?DeleteDPObject@CDPMng@@QAEHXZ ; CDPMng::DeleteDPObject

; 441  : 
; 442  : 	g_WorldMng.Free();

  0002a	b9 00 00 00 00	 mov	 ecx, OFFSET ?g_WorldMng@@3VCWorldMng@@A ; g_WorldMng
  0002f	e8 00 00 00 00	 call	 ?Free@CWorldMng@@QAEXXZ	; CWorldMng::Free

; 443  : 
; 444  : #ifndef __VM_0820
; 445  : #ifndef __MEM_TRACE
; 446  : 	SAFE_DELETE( CUser::m_pPool );	
; 447  : 	SAFE_DELETE( CMover::m_pPool );		
; 448  : 	SAFE_DELETE( CActionMover::m_pPool );
; 449  : 	SAFE_DELETE( CAIMonster::m_pPool );	
; 450  : 	SAFE_DELETE( CItem::m_pPool );	
; 451  : #endif	// __MEM_TRACE
; 452  : #endif	// __VM_0820
; 453  : 
; 454  : 	g_PartyMng.Clear();

  00034	b9 00 00 00 00	 mov	 ecx, OFFSET ?g_PartyMng@@3VCPartyMng@@A ; g_PartyMng
  00039	e8 00 00 00 00	 call	 ?Clear@CPartyMng@@QAEXXZ ; CPartyMng::Clear

; 455  : #ifndef __VM_0820
; 456  : #ifndef __MEM_TRACE
; 457  : 	SAFE_DELETE( CParty::m_pPool );
; 458  : #endif	// __MEM_TRACE
; 459  : #endif	// __VM_0820
; 460  : 	g_ChattingMng.Clear();

  0003e	b9 00 00 00 00	 mov	 ecx, OFFSET ?g_ChattingMng@@3VCChattingMng@@A ; g_ChattingMng
  00043	e8 00 00 00 00	 call	 ?Clear@CChattingMng@@QAEXXZ ; CChattingMng::Clear

; 461  : #ifndef __VM_0820
; 462  : #ifndef __MEM_TRACE
; 463  : 	SAFE_DELETE( CChatting::m_pPool );
; 464  : #endif	// __MEM_TRACE
; 465  : #endif	// __VM_0820
; 466  : 	g_GuildWarMng.Clear();

  00048	b9 00 00 00 00	 mov	 ecx, OFFSET ?g_GuildWarMng@@3VCGuildWarMng@@A ; g_GuildWarMng
  0004d	e8 00 00 00 00	 call	 ?Clear@CGuildWarMng@@QAEXXZ ; CGuildWarMng::Clear

; 467  : 
; 468  : 	g_GuildMng.Clear();

  00052	b9 00 00 00 00	 mov	 ecx, OFFSET ?g_GuildMng@@3VCGuildMng@@A ; g_GuildMng
  00057	e8 00 00 00 00	 call	 ?Clear@CGuildMng@@QAEXXZ ; CGuildMng::Clear

; 469  : 
; 470  : #if __VER >= 13 // __HOUSING
; 471  : 	CHousingMng::GetInstance()->Clear();

  0005c	e8 00 00 00 00	 call	 ?GetInstance@CHousingMng@@SAPAV1@XZ ; CHousingMng::GetInstance
  00061	8b c8		 mov	 ecx, eax
  00063	e8 00 00 00 00	 call	 ?Clear@CHousingMng@@QAEXXZ ; CHousingMng::Clear

; 472  : #endif	// __HOUSING
; 473  : #ifndef __VM_0820
; 474  : #ifndef __MEM_TRACE
; 475  : 	SAFE_DELETE( CGuildMember::sm_pPool );
; 476  : 	SAFE_DELETE( CGuild::sm_pPool );
; 477  : 	SAFE_DELETE( CAIPet::m_pPool );
; 478  : 	SAFE_DELETE( CAIKrrr::m_pPool );
; 479  : 	SAFE_DELETE( CAIGuard::m_pPool );
; 480  : 	SAFE_DELETE( CAIClockWorks::m_pPool );
; 481  : 	SAFE_DELETE( CAIBigMuscle::m_pPool );
; 482  : 	SAFE_DELETE( CAIBear::m_pPool );
; 483  : #endif	// __MEM_TRACE
; 484  : #endif	// __VM_0820
; 485  : 	UninitializeNetLib();

  00068	e8 00 00 00 00	 call	 ?UninitializeNetLib@@YAXXZ ; UninitializeNetLib

; 486  : 	UninitializeScriptLib();

  0006d	e8 00 00 00 00	 call	 ?UninitializeScriptLib@@YAXXZ ; UninitializeScriptLib

; 487  : 
; 488  : #ifndef __VM_0820
; 489  : #ifndef __MEM_TRACE
; 490  : 	SAFE_DELETE( CAIPet::m_pPool );
; 491  : #endif	// __MEM_TRACE
; 492  : #endif	// __VM_0820
; 493  : 	g_Object3DMng.Destroy();

  00072	b9 00 00 00 00	 mov	 ecx, OFFSET ?g_Object3DMng@@3VCObject3DMng@@A ; g_Object3DMng
  00077	e8 00 00 00 00	 call	 ?Destroy@CObject3DMng@@QAEXXZ ; CObject3DMng::Destroy

; 494  : 	prj.m_modelMng.DeleteDeviceObjects();

  0007c	b9 68 00 00 00	 mov	 ecx, OFFSET ?prj@@3VCProject@@A+104
  00081	e8 00 00 00 00	 call	 ?DeleteDeviceObjects@CModelMng@@QAEJXZ ; CModelMng::DeleteDeviceObjects

; 495  : 
; 496  : #if __VER >= 12 // __LORD
; 497  : 	CSLord::Instance()->DestroyColleagues();

  00086	e8 00 00 00 00	 call	 ?Instance@CSLord@@SAPAV1@XZ ; CSLord::Instance
  0008b	8b c8		 mov	 ecx, eax
  0008d	8b 10		 mov	 edx, DWORD PTR [eax]
  0008f	ff 62 04	 jmp	 DWORD PTR [edx+4]
?ExitInstance@@YAXXZ ENDP				; ExitInstance
_TEXT	ENDS
; Function compile flags: /Ogtp
; File C:\IAGOS\server\v18\Source\Source\WorldServer\WorldServer.cpp
; File C:\Program Files\Microsoft Visual Studio\2022\Professional\VC\Tools\MSVC\14.44.35207\atlmfc\include\cstringt.h
; File C:\IAGOS\server\v18\Source\Source\WorldServer\WorldServer.cpp
; File C:\Program Files\Microsoft Visual Studio\2022\Professional\VC\Tools\MSVC\14.44.35207\atlmfc\include\cstringt.h
; File C:\IAGOS\server\v18\Source\Source\WorldServer\WorldServer.cpp
; File C:\Program Files\Microsoft Visual Studio\2022\Professional\VC\Tools\MSVC\14.44.35207\atlmfc\include\cstringt.h
; File C:\IAGOS\server\v18\Source\Source\WorldServer\WorldServer.cpp
; File C:\Program Files\Microsoft Visual Studio\2022\Professional\VC\Tools\MSVC\14.44.35207\atlmfc\include\atlsimpstr.h
; File C:\IAGOS\server\v18\Source\Source\WorldServer\WorldServer.cpp
; File C:\Program Files\Microsoft Visual Studio\2022\Professional\VC\Tools\MSVC\14.44.35207\atlmfc\include\cstringt.h
; File C:\IAGOS\server\v18\Source\Source\WorldServer\WorldServer.cpp
; File C:\Program Files\Microsoft Visual Studio\2022\Professional\VC\Tools\MSVC\14.44.35207\atlmfc\include\atlsimpstr.h
; File C:\IAGOS\server\v18\Source\Source\WorldServer\WorldServer.cpp
; File C:\Program Files\Microsoft Visual Studio\2022\Professional\VC\Tools\MSVC\14.44.35207\atlmfc\include\cstringt.h
; File C:\IAGOS\server\v18\Source\Source\WorldServer\WorldServer.cpp
; File C:\Program Files\Microsoft Visual Studio\2022\Professional\VC\Tools\MSVC\14.44.35207\atlmfc\include\cstringt.h
; File C:\IAGOS\server\v18\Source\Source\WorldServer\WorldServer.cpp
; File C:\Program Files\Microsoft Visual Studio\2022\Professional\VC\Tools\MSVC\14.44.35207\atlmfc\include\atlsimpstr.h
; File C:\IAGOS\server\v18\Source\Source\WorldServer\WorldServer.cpp
; File C:\Program Files\Microsoft Visual Studio\2022\Professional\VC\Tools\MSVC\14.44.35207\atlmfc\include\cstringt.h
; File C:\IAGOS\server\v18\Source\Source\WorldServer\WorldServer.cpp
; File C:\Program Files\Microsoft Visual Studio\2022\Professional\VC\Tools\MSVC\14.44.35207\atlmfc\include\cstringt.h
; File C:\IAGOS\server\v18\Source\Source\WorldServer\WorldServer.cpp
; File C:\Program Files\Microsoft Visual Studio\2022\Professional\VC\Tools\MSVC\14.44.35207\atlmfc\include\cstringt.h
; File C:\IAGOS\server\v18\Source\Source\WorldServer\WorldServer.cpp
; File C:\Program Files\Microsoft Visual Studio\2022\Professional\VC\Tools\MSVC\14.44.35207\atlmfc\include\cstringt.h
; File C:\IAGOS\server\v18\Source\Source\WorldServer\WorldServer.cpp
; File C:\Program Files\Microsoft Visual Studio\2022\Professional\VC\Tools\MSVC\14.44.35207\atlmfc\include\cstringt.h
; File C:\IAGOS\server\v18\Source\Source\WorldServer\WorldServer.cpp
; File C:\Program Files\Microsoft Visual Studio\2022\Professional\VC\Tools\MSVC\14.44.35207\atlmfc\include\cstringt.h
; File C:\IAGOS\server\v18\Source\Source\WorldServer\WorldServer.cpp
; File C:\Program Files\Microsoft Visual Studio\2022\Professional\VC\Tools\MSVC\14.44.35207\atlmfc\include\cstringt.h
; File C:\IAGOS\server\v18\Source\Source\WorldServer\WorldServer.cpp
; File C:\Program Files\Microsoft Visual Studio\2022\Professional\VC\Tools\MSVC\14.44.35207\atlmfc\include\cstringt.h
; File C:\IAGOS\server\v18\Source\Source\WorldServer\WorldServer.cpp
; File C:\Program Files\Microsoft Visual Studio\2022\Professional\VC\Tools\MSVC\14.44.35207\atlmfc\include\cstringt.h
; File C:\IAGOS\server\v18\Source\Source\WorldServer\WorldServer.cpp
; File C:\Program Files\Microsoft Visual Studio\2022\Professional\VC\Tools\MSVC\14.44.35207\atlmfc\include\cstringt.h
; File C:\IAGOS\server\v18\Source\Source\WorldServer\WorldServer.cpp
; File C:\Program Files\Microsoft Visual Studio\2022\Professional\VC\Tools\MSVC\14.44.35207\atlmfc\include\cstringt.h
; File C:\IAGOS\server\v18\Source\Source\WorldServer\WorldServer.cpp
; File C:\Program Files\Microsoft Visual Studio\2022\Professional\VC\Tools\MSVC\14.44.35207\atlmfc\include\cstringt.h
; File C:\IAGOS\server\v18\Source\Source\WorldServer\WorldServer.cpp
; File C:\Program Files\Microsoft Visual Studio\2022\Professional\VC\Tools\MSVC\14.44.35207\atlmfc\include\cstringt.h
; File C:\IAGOS\server\v18\Source\Source\WorldServer\WorldServer.cpp
; File C:\Program Files\Microsoft Visual Studio\2022\Professional\VC\Tools\MSVC\14.44.35207\atlmfc\include\cstringt.h
; File C:\IAGOS\server\v18\Source\Source\WorldServer\WorldServer.cpp
; File C:\Program Files\Microsoft Visual Studio\2022\Professional\VC\Tools\MSVC\14.44.35207\atlmfc\include\cstringt.h
; File C:\IAGOS\server\v18\Source\Source\WorldServer\WorldServer.cpp
; File C:\Program Files\Microsoft Visual Studio\2022\Professional\VC\Tools\MSVC\14.44.35207\atlmfc\include\cstringt.h
; File C:\IAGOS\server\v18\Source\Source\WorldServer\WorldServer.cpp
;	COMDAT ?Script@@YAHPBD@Z
_TEXT	SEGMENT
_s$ = -2152						; size = 2136
__$ArrayPad$ = -16					; size = 4
__$EHRec$ = -12						; size = 12
_lpszFileName$ = 8					; size = 4
?Script@@YAHPBD@Z PROC					; Script, COMDAT

; 526  : {

  00000	55		 push	 ebp
  00001	8b ec		 mov	 ebp, esp
  00003	6a ff		 push	 -1
  00005	68 00 00 00 00	 push	 __ehhandler$?Script@@YAHPBD@Z
  0000a	64 a1 00 00 00
	00		 mov	 eax, DWORD PTR fs:0
  00010	50		 push	 eax
  00011	81 ec 5c 08 00
	00		 sub	 esp, 2140		; 0000085cH
  00017	a1 00 00 00 00	 mov	 eax, DWORD PTR ___security_cookie
  0001c	33 c5		 xor	 eax, ebp
  0001e	89 45 f0	 mov	 DWORD PTR __$ArrayPad$[ebp], eax
  00021	56		 push	 esi
  00022	57		 push	 edi
  00023	50		 push	 eax
  00024	8d 45 f4	 lea	 eax, DWORD PTR __$EHRec$[ebp]
  00027	64 a3 00 00 00
	00		 mov	 DWORD PTR fs:0, eax
  0002d	8b 75 08	 mov	 esi, DWORD PTR _lpszFileName$[ebp]

; 527  : 	g_eLocal.SetState( EVE_RESPAWN, 1 );

  00030	b9 00 00 00 00	 mov	 ecx, OFFSET ?g_eLocal@@3VCFlyffEvent@@A ; g_eLocal
  00035	6a 01		 push	 1
  00037	6a 0a		 push	 10			; 0000000aH
  00039	e8 00 00 00 00	 call	 ?SetState@CFlyffEvent@@QAEHHE@Z ; CFlyffEvent::SetState

; 528  : 
; 529  : 	CScanner s;

  0003e	6a 00		 push	 0
  00040	8d 8d 98 f7 ff
	ff		 lea	 ecx, DWORD PTR _s$[ebp]
  00046	e8 00 00 00 00	 call	 ??0CScanner@@QAE@H@Z	; CScanner::CScanner

; 530  : 	if( s.Load( lpszFileName ) == FALSE)

  0004b	6a 01		 push	 1
  0004d	56		 push	 esi
  0004e	8d 8d 98 f7 ff
	ff		 lea	 ecx, DWORD PTR _s$[ebp]
  00054	c7 45 fc 00 00
	00 00		 mov	 DWORD PTR __$EHRec$[ebp+8], 0
  0005b	e8 00 00 00 00	 call	 ?Load@CScanner@@QAEHPBDH@Z ; CScanner::Load
  00060	85 c0		 test	 eax, eax
  00062	75 15		 jne	 SHORT $LN4@Script

; 531  : 	{
; 532  : 		Error("Fail to open file - %s", lpszFileName );

  00064	56		 push	 esi
  00065	68 00 00 00 00	 push	 OFFSET ??_C@_0BH@CNNLHGLE@Fail?5to?5open?5file?5?9?5?$CFs@

; 543  : 			{
; 544  : 				Error( "[CRITICAL] Missing Folder -> Resource, %s", s.Token );

  0006a	e8 00 00 00 00	 call	 ?Error@@YAPBDPBDZZ	; Error
  0006f	83 c4 08	 add	 esp, 8
  00072	33 f6		 xor	 esi, esi
  00074	e9 c4 03 00 00	 jmp	 $LN55@Script
$LN4@Script:

; 533  : 		return FALSE;
; 534  : 	}
; 535  : 
; 536  : 	s.GetToken();

  00079	6a 00		 push	 0
  0007b	8d 8d 98 f7 ff
	ff		 lea	 ecx, DWORD PTR _s$[ebp]
  00081	e8 00 00 00 00	 call	 ?GetToken@CScanner@@UAEHH@Z ; CScanner::GetToken

; 537  : 	while( s.tok != FINISHED )

  00086	83 7d dc 15	 cmp	 DWORD PTR _s$[ebp+2116], 21 ; 00000015H
  0008a	0f 84 a8 03 00
	00		 je	 $LN443@Script
  00090	8b 3d 00 00 00
	00		 mov	 edi, DWORD PTR __imp__SetCurrentDirectoryA@4
  00096	66 66 0f 1f 84
	00 00 00 00 00	 npad	 10
$LL2@Script:
; File C:\Program Files\Microsoft Visual Studio\2022\Professional\VC\Tools\MSVC\14.44.35207\atlmfc\include\cstringt.h

; 184  : 		return _mbscmp( reinterpret_cast< const unsigned char* >( pszA ), reinterpret_cast< const unsigned char* >( pszB ) );

  000a0	68 00 00 00 00	 push	 OFFSET ??_C@_0P@LOHDAGAN@ResourceFolder@
  000a5	ff b5 b8 f7 ff
	ff		 push	 DWORD PTR _s$[ebp+32]
  000ab	e8 00 00 00 00	 call	 __mbscmp
  000b0	83 c4 08	 add	 esp, 8

; 2490 : 		return(str1.Compare(psz2) == 0);

  000b3	85 c0		 test	 eax, eax
; File C:\IAGOS\server\v18\Source\Source\WorldServer\WorldServer.cpp

; 539  : 		if( s.Token == "ResourceFolder" )

  000b5	75 36		 jne	 SHORT $LN78@Script

; 540  : 		{
; 541  : 			s.GetToken();

  000b7	50		 push	 eax
  000b8	8d 8d 98 f7 ff
	ff		 lea	 ecx, DWORD PTR _s$[ebp]
  000be	e8 00 00 00 00	 call	 ?GetToken@CScanner@@UAEHH@Z ; CScanner::GetToken

; 542  : 			if( !SetCurrentDirectory( s.Token ) )

  000c3	ff b5 b8 f7 ff
	ff		 push	 DWORD PTR _s$[ebp+32]
  000c9	ff d7		 call	 edi
  000cb	85 c0		 test	 eax, eax
  000cd	0f 85 4e 03 00
	00		 jne	 $LN48@Script

; 543  : 			{
; 544  : 				Error( "[CRITICAL] Missing Folder -> Resource, %s", s.Token );

  000d3	ff b5 b8 f7 ff
	ff		 push	 DWORD PTR _s$[ebp+32]
  000d9	68 00 00 00 00	 push	 OFFSET ??_C@_0CK@KMMAOKAL@?$FLCRITICAL?$FN?5Missing?5Folder?5?9?$DO?5Re@
  000de	e8 00 00 00 00	 call	 ?Error@@YAPBDPBDZZ	; Error
  000e3	83 c4 08	 add	 esp, 8
  000e6	33 f6		 xor	 esi, esi
  000e8	e9 50 03 00 00	 jmp	 $LN55@Script
$LN78@Script:
; File C:\Program Files\Microsoft Visual Studio\2022\Professional\VC\Tools\MSVC\14.44.35207\atlmfc\include\cstringt.h

; 184  : 		return _mbscmp( reinterpret_cast< const unsigned char* >( pszA ), reinterpret_cast< const unsigned char* >( pszB ) );

  000ed	68 00 00 00 00	 push	 OFFSET ??_C@_03CCEPDEKL@Key@
  000f2	ff b5 b8 f7 ff
	ff		 push	 DWORD PTR _s$[ebp+32]
  000f8	e8 00 00 00 00	 call	 __mbscmp
  000fd	83 c4 08	 add	 esp, 8

; 2490 : 		return(str1.Compare(psz2) == 0);

  00100	85 c0		 test	 eax, eax
; File C:\IAGOS\server\v18\Source\Source\WorldServer\WorldServer.cpp

; 548  : 		else if( s.Token == "Key" )

  00102	75 2e		 jne	 SHORT $LN94@Script

; 549  : 		{
; 550  : 			g_uKey		 = (DWORD)s.GetNumber();

  00104	50		 push	 eax
  00105	8d 8d 98 f7 ff
	ff		 lea	 ecx, DWORD PTR _s$[ebp]
  0010b	e8 00 00 00 00	 call	 ?GetNumber@CScanner@@QAEHH@Z ; CScanner::GetNumber
  00110	8b f0		 mov	 esi, eax
  00112	b8 1f 85 eb 51	 mov	 eax, 1374389535		; 51eb851fH
  00117	f7 e6		 mul	 esi
  00119	89 35 00 00 00
	00		 mov	 DWORD PTR ?g_uKey@@3KA, esi ; g_uKey
  0011f	c1 ea 05	 shr	 edx, 5

; 551  : #ifdef __S8_SERVER_PORT
; 552  : 			g_uIdofMulti = g_uKey % 100;

  00122	6b ca 64	 imul	 ecx, edx, 100
  00125	2b f1		 sub	 esi, ecx
  00127	89 35 00 00 00
	00		 mov	 DWORD PTR ?g_uIdofMulti@@3KA, esi ; g_uIdofMulti

; 553  : #else // __S8_SERVER_PORT
; 554  : 			g_uIdofMulti = g_uKey / 100;
; 555  : #endif // __S8_SERVER_PORT
; 556  : 		}

  0012d	e9 ef 02 00 00	 jmp	 $LN48@Script
$LN94@Script:
; File C:\Program Files\Microsoft Visual Studio\2022\Professional\VC\Tools\MSVC\14.44.35207\atlmfc\include\cstringt.h

; 184  : 		return _mbscmp( reinterpret_cast< const unsigned char* >( pszA ), reinterpret_cast< const unsigned char* >( pszB ) );

  00132	68 00 00 00 00	 push	 OFFSET ??_C@_04KDEOOPC@Core@
  00137	ff b5 b8 f7 ff
	ff		 push	 DWORD PTR _s$[ebp+32]
  0013d	e8 00 00 00 00	 call	 __mbscmp
  00142	83 c4 08	 add	 esp, 8

; 2490 : 		return(str1.Compare(psz2) == 0);

  00145	85 c0		 test	 eax, eax
; File C:\IAGOS\server\v18\Source\Source\WorldServer\WorldServer.cpp

; 557  : 		else if( s.Token == "Core" )

  00147	75 2b		 jne	 SHORT $LN112@Script

; 559  : 			s.GetToken();

  00149	50		 push	 eax
  0014a	8d 8d 98 f7 ff
	ff		 lea	 ecx, DWORD PTR _s$[ebp]
  00150	e8 00 00 00 00	 call	 ?GetToken@CScanner@@UAEHH@Z ; CScanner::GetToken
; File C:\Program Files\Microsoft Visual Studio\2022\Professional\VC\Tools\MSVC\14.44.35207\atlmfc\include\atlsimpstr.h

; 381  : 		return( m_pszData );

  00155	8b 8d b8 f7 ff
	ff		 mov	 ecx, DWORD PTR _s$[ebp+32]
; File C:\IAGOS\server\v18\Source\Source\WorldServer\WorldServer.cpp

; 559  : 			s.GetToken();

  0015b	ba 00 00 00 00	 mov	 edx, OFFSET ?g_szCoreAddr@@3PADA ; g_szCoreAddr
  00160	2b d1		 sub	 edx, ecx
$LL50@Script:

; 560  : 			strcpy( g_szCoreAddr, s.Token );

  00162	8a 01		 mov	 al, BYTE PTR [ecx]
  00164	8d 49 01	 lea	 ecx, DWORD PTR [ecx+1]
  00167	88 44 0a ff	 mov	 BYTE PTR [edx+ecx-1], al
  0016b	84 c0		 test	 al, al
  0016d	75 f3		 jne	 SHORT $LL50@Script

; 561  : 		}

  0016f	e9 ad 02 00 00	 jmp	 $LN48@Script
$LN112@Script:
; File C:\Program Files\Microsoft Visual Studio\2022\Professional\VC\Tools\MSVC\14.44.35207\atlmfc\include\cstringt.h

; 184  : 		return _mbscmp( reinterpret_cast< const unsigned char* >( pszA ), reinterpret_cast< const unsigned char* >( pszB ) );

  00174	68 00 00 00 00	 push	 OFFSET ??_C@_02LFGCCOHG@DB@
  00179	ff b5 b8 f7 ff
	ff		 push	 DWORD PTR _s$[ebp+32]
  0017f	e8 00 00 00 00	 call	 __mbscmp
  00184	83 c4 08	 add	 esp, 8

; 2490 : 		return(str1.Compare(psz2) == 0);

  00187	85 c0		 test	 eax, eax
; File C:\IAGOS\server\v18\Source\Source\WorldServer\WorldServer.cpp

; 562  : 		else if( s.Token == "DB" )

  00189	75 2b		 jne	 SHORT $LN130@Script

; 564  : 			s.GetToken();

  0018b	50		 push	 eax
  0018c	8d 8d 98 f7 ff
	ff		 lea	 ecx, DWORD PTR _s$[ebp]
  00192	e8 00 00 00 00	 call	 ?GetToken@CScanner@@UAEHH@Z ; CScanner::GetToken
; File C:\Program Files\Microsoft Visual Studio\2022\Professional\VC\Tools\MSVC\14.44.35207\atlmfc\include\atlsimpstr.h

; 381  : 		return( m_pszData );

  00197	8b 8d b8 f7 ff
	ff		 mov	 ecx, DWORD PTR _s$[ebp+32]
; File C:\IAGOS\server\v18\Source\Source\WorldServer\WorldServer.cpp

; 564  : 			s.GetToken();

  0019d	ba 00 00 00 00	 mov	 edx, OFFSET ?g_szDBAddr@@3PADA ; g_szDBAddr
  001a2	2b d1		 sub	 edx, ecx
$LL51@Script:

; 565  : 			strcpy( g_szDBAddr, s.Token );

  001a4	8a 01		 mov	 al, BYTE PTR [ecx]
  001a6	8d 49 01	 lea	 ecx, DWORD PTR [ecx+1]
  001a9	88 44 0a ff	 mov	 BYTE PTR [edx+ecx-1], al
  001ad	84 c0		 test	 al, al
  001af	75 f3		 jne	 SHORT $LL51@Script

; 566  : 		}

  001b1	e9 6b 02 00 00	 jmp	 $LN48@Script
$LN130@Script:
; File C:\Program Files\Microsoft Visual Studio\2022\Professional\VC\Tools\MSVC\14.44.35207\atlmfc\include\cstringt.h

; 184  : 		return _mbscmp( reinterpret_cast< const unsigned char* >( pszA ), reinterpret_cast< const unsigned char* >( pszB ) );

  001b6	68 00 00 00 00	 push	 OFFSET ??_C@_07FENCDID@Account@
  001bb	ff b5 b8 f7 ff
	ff		 push	 DWORD PTR _s$[ebp+32]
  001c1	e8 00 00 00 00	 call	 __mbscmp
  001c6	83 c4 08	 add	 esp, 8

; 2490 : 		return(str1.Compare(psz2) == 0);

  001c9	85 c0		 test	 eax, eax
; File C:\IAGOS\server\v18\Source\Source\WorldServer\WorldServer.cpp

; 567  : 		else if( s.Token == "Account" )

  001cb	75 11		 jne	 SHORT $LN146@Script

; 568  : 		{
; 569  : 			s.GetToken();

  001cd	50		 push	 eax
  001ce	8d 8d 98 f7 ff
	ff		 lea	 ecx, DWORD PTR _s$[ebp]
  001d4	e8 00 00 00 00	 call	 ?GetToken@CScanner@@UAEHH@Z ; CScanner::GetToken

; 570  : 			/*
; 571  : 		#ifdef __GIFTBOX0213
; 572  : 			lstrcpy( s_szAccountAddr, s.Token );
; 573  : 		#endif	// __GIFTBOX0213
; 574  : 		*/
; 575  : 		}

  001d9	e9 43 02 00 00	 jmp	 $LN48@Script
$LN146@Script:
; File C:\Program Files\Microsoft Visual Studio\2022\Professional\VC\Tools\MSVC\14.44.35207\atlmfc\include\cstringt.h

; 184  : 		return _mbscmp( reinterpret_cast< const unsigned char* >( pszA ), reinterpret_cast< const unsigned char* >( pszB ) );

  001de	68 00 00 00 00	 push	 OFFSET ??_C@_09JNKFAEDP@Heartbeat@
  001e3	ff b5 b8 f7 ff
	ff		 push	 DWORD PTR _s$[ebp+32]
  001e9	e8 00 00 00 00	 call	 __mbscmp
  001ee	83 c4 08	 add	 esp, 8

; 2490 : 		return(str1.Compare(psz2) == 0);

  001f1	85 c0		 test	 eax, eax
; File C:\IAGOS\server\v18\Source\Source\WorldServer\WorldServer.cpp

; 576  : 		else if( s.Token == "Heartbeat" )

  001f3	75 2d		 jne	 SHORT $LN164@Script

; 578  : 			s.GetToken();

  001f5	50		 push	 eax
  001f6	8d 8d 98 f7 ff
	ff		 lea	 ecx, DWORD PTR _s$[ebp]
  001fc	e8 00 00 00 00	 call	 ?GetToken@CScanner@@UAEHH@Z ; CScanner::GetToken
; File C:\Program Files\Microsoft Visual Studio\2022\Professional\VC\Tools\MSVC\14.44.35207\atlmfc\include\atlsimpstr.h

; 381  : 		return( m_pszData );

  00201	8b 8d b8 f7 ff
	ff		 mov	 ecx, DWORD PTR _s$[ebp+32]
; File C:\IAGOS\server\v18\Source\Source\WorldServer\WorldServer.cpp

; 578  : 			s.GetToken();

  00207	ba 00 00 00 00	 mov	 edx, OFFSET ?g_sHeartbeat@@3PADA ; g_sHeartbeat
  0020c	2b d1		 sub	 edx, ecx
  0020e	66 90		 npad	 2
$LL52@Script:

; 579  : 			strcpy( g_sHeartbeat, s.Token );

  00210	8a 01		 mov	 al, BYTE PTR [ecx]
  00212	8d 49 01	 lea	 ecx, DWORD PTR [ecx+1]
  00215	88 44 0a ff	 mov	 BYTE PTR [edx+ecx-1], al
  00219	84 c0		 test	 al, al
  0021b	75 f3		 jne	 SHORT $LL52@Script

; 580  : 		}

  0021d	e9 ff 01 00 00	 jmp	 $LN48@Script
$LN164@Script:
; File C:\Program Files\Microsoft Visual Studio\2022\Professional\VC\Tools\MSVC\14.44.35207\atlmfc\include\cstringt.h

; 184  : 		return _mbscmp( reinterpret_cast< const unsigned char* >( pszA ), reinterpret_cast< const unsigned char* >( pszB ) );

  00222	68 00 00 00 00	 push	 OFFSET ??_C@_02DCIIBFLB@18@
  00227	ff b5 b8 f7 ff
	ff		 push	 DWORD PTR _s$[ebp+32]
  0022d	e8 00 00 00 00	 call	 __mbscmp
  00232	83 c4 08	 add	 esp, 8

; 2490 : 		return(str1.Compare(psz2) == 0);

  00235	85 c0		 test	 eax, eax
; File C:\IAGOS\server\v18\Source\Source\WorldServer\WorldServer.cpp

; 581  : 		else if( s.Token == "18" )

  00237	75 09		 jne	 SHORT $LN180@Script

; 582  : 		{
; 583  : 			g_eLocal.SetState( EVE_18, 1 );		// 18ĽĽ Ľ­ąö 

  00239	6a 01		 push	 1
  0023b	6a 01		 push	 1

; 584  : 		}

  0023d	e9 d5 01 00 00	 jmp	 $LN454@Script
$LN180@Script:
; File C:\Program Files\Microsoft Visual Studio\2022\Professional\VC\Tools\MSVC\14.44.35207\atlmfc\include\cstringt.h

; 184  : 		return _mbscmp( reinterpret_cast< const unsigned char* >( pszA ), reinterpret_cast< const unsigned char* >( pszB ) );

  00242	68 00 00 00 00	 push	 OFFSET ??_C@_02HPIPJOJD@PK@
  00247	ff b5 b8 f7 ff
	ff		 push	 DWORD PTR _s$[ebp+32]
  0024d	e8 00 00 00 00	 call	 __mbscmp
  00252	83 c4 08	 add	 esp, 8

; 2490 : 		return(str1.Compare(psz2) == 0);

  00255	85 c0		 test	 eax, eax
; File C:\IAGOS\server\v18\Source\Source\WorldServer\WorldServer.cpp

; 585  : 		else if( s.Token == "PK" )

  00257	75 09		 jne	 SHORT $LN196@Script

; 586  : 		{
; 587  : 			g_eLocal.SetState( EVE_PK, 1 );

  00259	6a 01		 push	 1
  0025b	6a 0b		 push	 11			; 0000000bH

; 588  : 		}

  0025d	e9 b5 01 00 00	 jmp	 $LN454@Script
$LN196@Script:
; File C:\Program Files\Microsoft Visual Studio\2022\Professional\VC\Tools\MSVC\14.44.35207\atlmfc\include\cstringt.h

; 184  : 		return _mbscmp( reinterpret_cast< const unsigned char* >( pszA ), reinterpret_cast< const unsigned char* >( pszB ) );

  00262	68 00 00 00 00	 push	 OFFSET ??_C@_06EINAFBNC@PKCOST@
  00267	ff b5 b8 f7 ff
	ff		 push	 DWORD PTR _s$[ebp+32]
  0026d	e8 00 00 00 00	 call	 __mbscmp
  00272	83 c4 08	 add	 esp, 8

; 2490 : 		return(str1.Compare(psz2) == 0);

  00275	85 c0		 test	 eax, eax
; File C:\IAGOS\server\v18\Source\Source\WorldServer\WorldServer.cpp

; 589  : 		else if( s.Token == "PKCOST" )

  00277	75 09		 jne	 SHORT $LN212@Script

; 590  : 		{
; 591  : 			g_eLocal.SetState( EVE_PKCOST, 1 );

  00279	6a 01		 push	 1
  0027b	6a 0c		 push	 12			; 0000000cH

; 592  : 		}

  0027d	e9 95 01 00 00	 jmp	 $LN454@Script
$LN212@Script:
; File C:\Program Files\Microsoft Visual Studio\2022\Professional\VC\Tools\MSVC\14.44.35207\atlmfc\include\cstringt.h

; 184  : 		return _mbscmp( reinterpret_cast< const unsigned char* >( pszA ), reinterpret_cast< const unsigned char* >( pszB ) );

  00282	68 00 00 00 00	 push	 OFFSET ??_C@_05IIOKACPP@STEAL@
  00287	ff b5 b8 f7 ff
	ff		 push	 DWORD PTR _s$[ebp+32]
  0028d	e8 00 00 00 00	 call	 __mbscmp
  00292	83 c4 08	 add	 esp, 8

; 2490 : 		return(str1.Compare(psz2) == 0);

  00295	85 c0		 test	 eax, eax
; File C:\IAGOS\server\v18\Source\Source\WorldServer\WorldServer.cpp

; 593  : 		else if( s.Token == "STEAL" )

  00297	75 09		 jne	 SHORT $LN228@Script

; 594  : 		{
; 595  : 			g_eLocal.SetState( EVE_STEAL, 1 );				

  00299	6a 01		 push	 1
  0029b	6a 0d		 push	 13			; 0000000dH

; 596  : 		}

  0029d	e9 75 01 00 00	 jmp	 $LN454@Script
$LN228@Script:
; File C:\Program Files\Microsoft Visual Studio\2022\Professional\VC\Tools\MSVC\14.44.35207\atlmfc\include\cstringt.h

; 184  : 		return _mbscmp( reinterpret_cast< const unsigned char* >( pszA ), reinterpret_cast< const unsigned char* >( pszB ) );

  002a2	68 00 00 00 00	 push	 OFFSET ??_C@_09BBHEADKN@GUILDBANK@
  002a7	ff b5 b8 f7 ff
	ff		 push	 DWORD PTR _s$[ebp+32]
  002ad	e8 00 00 00 00	 call	 __mbscmp
  002b2	83 c4 08	 add	 esp, 8

; 2490 : 		return(str1.Compare(psz2) == 0);

  002b5	85 c0		 test	 eax, eax
; File C:\IAGOS\server\v18\Source\Source\WorldServer\WorldServer.cpp

; 597  : 		else if (s.Token == "GUILDBANK")

  002b7	75 09		 jne	 SHORT $LN244@Script

; 598  : 		{
; 599  : 			g_eLocal.SetState( ENABLE_GUILD_INVENTORY, 1 );

  002b9	6a 01		 push	 1
  002bb	6a 02		 push	 2

; 600  : 		}

  002bd	e9 55 01 00 00	 jmp	 $LN454@Script
$LN244@Script:
; File C:\Program Files\Microsoft Visual Studio\2022\Professional\VC\Tools\MSVC\14.44.35207\atlmfc\include\cstringt.h

; 184  : 		return _mbscmp( reinterpret_cast< const unsigned char* >( pszA ), reinterpret_cast< const unsigned char* >( pszB ) );

  002c2	68 00 00 00 00	 push	 OFFSET ??_C@_08BFLGJDDD@GUILDWAR@
  002c7	ff b5 b8 f7 ff
	ff		 push	 DWORD PTR _s$[ebp+32]
  002cd	e8 00 00 00 00	 call	 __mbscmp
  002d2	83 c4 08	 add	 esp, 8

; 2490 : 		return(str1.Compare(psz2) == 0);

  002d5	85 c0		 test	 eax, eax
; File C:\IAGOS\server\v18\Source\Source\WorldServer\WorldServer.cpp

; 601  : 		else if( s.Token == "GUILDWAR" )

  002d7	75 09		 jne	 SHORT $LN260@Script

; 602  : 		{
; 603  : 			g_eLocal.SetState( EVE_GUILDWAR, 1 );

  002d9	6a 01		 push	 1
  002db	6a 03		 push	 3

; 604  : 		}

  002dd	e9 35 01 00 00	 jmp	 $LN454@Script
$LN260@Script:
; File C:\Program Files\Microsoft Visual Studio\2022\Professional\VC\Tools\MSVC\14.44.35207\atlmfc\include\cstringt.h

; 184  : 		return _mbscmp( reinterpret_cast< const unsigned char* >( pszA ), reinterpret_cast< const unsigned char* >( pszB ) );

  002e2	68 00 00 00 00	 push	 OFFSET ??_C@_0BA@CKCJLIL@DROPITEM_REMOVE@
  002e7	ff b5 b8 f7 ff
	ff		 push	 DWORD PTR _s$[ebp+32]
  002ed	e8 00 00 00 00	 call	 __mbscmp
  002f2	83 c4 08	 add	 esp, 8

; 2490 : 		return(str1.Compare(psz2) == 0);

  002f5	85 c0		 test	 eax, eax
; File C:\IAGOS\server\v18\Source\Source\WorldServer\WorldServer.cpp

; 605  : 		else if( s.Token == "DROPITEM_REMOVE" )

  002f7	75 09		 jne	 SHORT $LN276@Script

; 606  : 		{
; 607  : 			g_eLocal.SetState( EVE_DROPITEMREMOVE, 1 );

  002f9	6a 01		 push	 1
  002fb	6a 10		 push	 16			; 00000010H

; 608  : 		}			

  002fd	e9 15 01 00 00	 jmp	 $LN454@Script
$LN276@Script:
; File C:\Program Files\Microsoft Visual Studio\2022\Professional\VC\Tools\MSVC\14.44.35207\atlmfc\include\cstringt.h

; 184  : 		return _mbscmp( reinterpret_cast< const unsigned char* >( pszA ), reinterpret_cast< const unsigned char* >( pszB ) );

  00302	68 00 00 00 00	 push	 OFFSET ??_C@_06HFJMDKHO@SCHOOL@
  00307	ff b5 b8 f7 ff
	ff		 push	 DWORD PTR _s$[ebp+32]
  0030d	e8 00 00 00 00	 call	 __mbscmp
  00312	83 c4 08	 add	 esp, 8

; 2490 : 		return(str1.Compare(psz2) == 0);

  00315	85 c0		 test	 eax, eax
; File C:\IAGOS\server\v18\Source\Source\WorldServer\WorldServer.cpp

; 609  : 		else if( s.Token == "SCHOOL" )

  00317	0f 84 04 01 00
	00		 je	 $LN48@Script
; File C:\Program Files\Microsoft Visual Studio\2022\Professional\VC\Tools\MSVC\14.44.35207\atlmfc\include\cstringt.h

; 184  : 		return _mbscmp( reinterpret_cast< const unsigned char* >( pszA ), reinterpret_cast< const unsigned char* >( pszB ) );

  0031d	68 00 00 00 00	 push	 OFFSET ??_C@_0M@ILPKKCFD@GUILDCOMBAT@
  00322	ff b5 b8 f7 ff
	ff		 push	 DWORD PTR _s$[ebp+32]
  00328	e8 00 00 00 00	 call	 __mbscmp
  0032d	83 c4 08	 add	 esp, 8

; 2490 : 		return(str1.Compare(psz2) == 0);

  00330	85 c0		 test	 eax, eax
; File C:\IAGOS\server\v18\Source\Source\WorldServer\WorldServer.cpp

; 613  : 		else if( s.Token == "GUILDCOMBAT")

  00332	75 09		 jne	 SHORT $LN308@Script

; 614  : 		{
; 615  : 			g_eLocal.SetState( EVE_GUILDCOMBAT, 1 );

  00334	6a 01		 push	 1
  00336	6a 0f		 push	 15			; 0000000fH

; 616  : 		}

  00338	e9 da 00 00 00	 jmp	 $LN454@Script
$LN308@Script:
; File C:\Program Files\Microsoft Visual Studio\2022\Professional\VC\Tools\MSVC\14.44.35207\atlmfc\include\cstringt.h

; 184  : 		return _mbscmp( reinterpret_cast< const unsigned char* >( pszA ), reinterpret_cast< const unsigned char* >( pszB ) );

  0033d	68 00 00 00 00	 push	 OFFSET ??_C@_06EEHOPLDM@WORMON@
  00342	ff b5 b8 f7 ff
	ff		 push	 DWORD PTR _s$[ebp+32]
  00348	e8 00 00 00 00	 call	 __mbscmp
  0034d	83 c4 08	 add	 esp, 8

; 2490 : 		return(str1.Compare(psz2) == 0);

  00350	85 c0		 test	 eax, eax
; File C:\IAGOS\server\v18\Source\Source\WorldServer\WorldServer.cpp

; 617  : 		else if( s.Token == "WORMON" )

  00352	75 09		 jne	 SHORT $LN324@Script

; 618  : 		{
; 619  : 			g_eLocal.SetState( EVE_WORMON, 1 );

  00354	6a 01		 push	 1
  00356	6a 09		 push	 9

; 620  : 		}

  00358	e9 ba 00 00 00	 jmp	 $LN454@Script
$LN324@Script:
; File C:\Program Files\Microsoft Visual Studio\2022\Professional\VC\Tools\MSVC\14.44.35207\atlmfc\include\cstringt.h

; 184  : 		return _mbscmp( reinterpret_cast< const unsigned char* >( pszA ), reinterpret_cast< const unsigned char* >( pszB ) );

  0035d	68 00 00 00 00	 push	 OFFSET ??_C@_07PABIOCAD@respawn@
  00362	ff b5 b8 f7 ff
	ff		 push	 DWORD PTR _s$[ebp+32]
  00368	e8 00 00 00 00	 call	 __mbscmp
  0036d	83 c4 08	 add	 esp, 8

; 2490 : 		return(str1.Compare(psz2) == 0);

  00370	85 c0		 test	 eax, eax
; File C:\IAGOS\server\v18\Source\Source\WorldServer\WorldServer.cpp

; 621  : 		else if( s.Token == "respawn" )

  00372	75 14		 jne	 SHORT $LN340@Script

; 622  : 		{
; 623  : 			g_eLocal.SetState( EVE_RESPAWN, (BYTE)s.GetNumber() );

  00374	50		 push	 eax
  00375	8d 8d 98 f7 ff
	ff		 lea	 ecx, DWORD PTR _s$[ebp]
  0037b	e8 00 00 00 00	 call	 ?GetNumber@CScanner@@QAEHH@Z ; CScanner::GetNumber
  00380	50		 push	 eax
  00381	6a 0a		 push	 10			; 0000000aH

; 624  : 		}

  00383	e9 8f 00 00 00	 jmp	 $LN454@Script
$LN340@Script:
; File C:\Program Files\Microsoft Visual Studio\2022\Professional\VC\Tools\MSVC\14.44.35207\atlmfc\include\cstringt.h

; 184  : 		return _mbscmp( reinterpret_cast< const unsigned char* >( pszA ), reinterpret_cast< const unsigned char* >( pszB ) );

  00388	68 00 00 00 00	 push	 OFFSET ??_C@_09HBLOEAKE@RECOMMEND@
  0038d	ff b5 b8 f7 ff
	ff		 push	 DWORD PTR _s$[ebp+32]
  00393	e8 00 00 00 00	 call	 __mbscmp
  00398	83 c4 08	 add	 esp, 8

; 2490 : 		return(str1.Compare(psz2) == 0);

  0039b	85 c0		 test	 eax, eax
; File C:\IAGOS\server\v18\Source\Source\WorldServer\WorldServer.cpp

; 626  : 		else if( s.Token == "RECOMMEND" )

  0039d	75 06		 jne	 SHORT $LN356@Script

; 627  : 		{
; 628  : 			g_eLocal.SetState( EVE_RECOMMEND, 1 );

  0039f	6a 01		 push	 1
  003a1	6a 15		 push	 21			; 00000015H

; 629  : 		}

  003a3	eb 72		 jmp	 SHORT $LN454@Script
$LN356@Script:
; File C:\Program Files\Microsoft Visual Studio\2022\Professional\VC\Tools\MSVC\14.44.35207\atlmfc\include\cstringt.h

; 184  : 		return _mbscmp( reinterpret_cast< const unsigned char* >( pszA ), reinterpret_cast< const unsigned char* >( pszB ) );

  003a5	68 00 00 00 00	 push	 OFFSET ??_C@_0BA@PCMILOFB@GUILDCOMBAT1TO1@
  003aa	ff b5 b8 f7 ff
	ff		 push	 DWORD PTR _s$[ebp+32]
  003b0	e8 00 00 00 00	 call	 __mbscmp
  003b5	83 c4 08	 add	 esp, 8

; 2490 : 		return(str1.Compare(psz2) == 0);

  003b8	85 c0		 test	 eax, eax
; File C:\IAGOS\server\v18\Source\Source\WorldServer\WorldServer.cpp

; 633  : 		else if( s.Token == "GUILDCOMBAT1TO1" )

  003ba	75 06		 jne	 SHORT $LN372@Script

; 634  : 		{
; 635  : 			g_eLocal.SetState( EVE_GUILDCOMBAT1TO1, 1 );

  003bc	6a 01		 push	 1
  003be	6a 16		 push	 22			; 00000016H

; 636  : 		}

  003c0	eb 55		 jmp	 SHORT $LN454@Script
$LN372@Script:
; File C:\Program Files\Microsoft Visual Studio\2022\Professional\VC\Tools\MSVC\14.44.35207\atlmfc\include\cstringt.h

; 184  : 		return _mbscmp( reinterpret_cast< const unsigned char* >( pszA ), reinterpret_cast< const unsigned char* >( pszB ) );

  003c2	68 00 00 00 00	 push	 OFFSET ??_C@_05PHEGGNLP@ARENA@
  003c7	ff b5 b8 f7 ff
	ff		 push	 DWORD PTR _s$[ebp+32]
  003cd	e8 00 00 00 00	 call	 __mbscmp
  003d2	83 c4 08	 add	 esp, 8

; 2490 : 		return(str1.Compare(psz2) == 0);

  003d5	85 c0		 test	 eax, eax
; File C:\IAGOS\server\v18\Source\Source\WorldServer\WorldServer.cpp

; 640  : 		else if( s.Token == "ARENA" )

  003d7	75 06		 jne	 SHORT $LN388@Script

; 641  : 		{
; 642  : 			g_eLocal.SetState( EVE_ARENA, 1 );

  003d9	6a 01		 push	 1
  003db	6a 17		 push	 23			; 00000017H

; 643  : 		}

  003dd	eb 38		 jmp	 SHORT $LN454@Script
$LN388@Script:
; File C:\Program Files\Microsoft Visual Studio\2022\Professional\VC\Tools\MSVC\14.44.35207\atlmfc\include\cstringt.h

; 184  : 		return _mbscmp( reinterpret_cast< const unsigned char* >( pszA ), reinterpret_cast< const unsigned char* >( pszB ) );

  003df	68 00 00 00 00	 push	 OFFSET ??_C@_0L@MDDCMNOB@SECRETROOM@
  003e4	ff b5 b8 f7 ff
	ff		 push	 DWORD PTR _s$[ebp+32]
  003ea	e8 00 00 00 00	 call	 __mbscmp
  003ef	83 c4 08	 add	 esp, 8

; 2490 : 		return(str1.Compare(psz2) == 0);

  003f2	85 c0		 test	 eax, eax
; File C:\IAGOS\server\v18\Source\Source\WorldServer\WorldServer.cpp

; 647  : 		else if( s.Token == "SECRETROOM" )

  003f4	75 06		 jne	 SHORT $LN404@Script

; 648  : 		{
; 649  : 			g_eLocal.SetState( EVE_SECRETROOM, 1 );

  003f6	6a 01		 push	 1
  003f8	6a 18		 push	 24			; 00000018H

; 650  : 		}

  003fa	eb 1b		 jmp	 SHORT $LN454@Script
$LN404@Script:
; File C:\Program Files\Microsoft Visual Studio\2022\Professional\VC\Tools\MSVC\14.44.35207\atlmfc\include\cstringt.h

; 184  : 		return _mbscmp( reinterpret_cast< const unsigned char* >( pszA ), reinterpret_cast< const unsigned char* >( pszB ) );

  003fc	68 00 00 00 00	 push	 OFFSET ??_C@_0M@GBIKBMLG@RAINBOWRACE@
  00401	ff b5 b8 f7 ff
	ff		 push	 DWORD PTR _s$[ebp+32]
  00407	e8 00 00 00 00	 call	 __mbscmp
  0040c	83 c4 08	 add	 esp, 8

; 2490 : 		return(str1.Compare(psz2) == 0);

  0040f	85 c0		 test	 eax, eax
; File C:\IAGOS\server\v18\Source\Source\WorldServer\WorldServer.cpp

; 653  : 		else if( s.Token == "RAINBOWRACE" )

  00411	75 0e		 jne	 SHORT $LN48@Script

; 654  : 		{
; 655  : 			g_eLocal.SetState( EVE_RAINBOWRACE, 1 );

  00413	6a 01		 push	 1
  00415	6a 19		 push	 25			; 00000019H
$LN454@Script:

; 656  : 		}
; 657  : #endif // __RAINBOW_RACE
; 658  : 
; 659  : 		s.GetToken();

  00417	b9 00 00 00 00	 mov	 ecx, OFFSET ?g_eLocal@@3VCFlyffEvent@@A ; g_eLocal
  0041c	e8 00 00 00 00	 call	 ?SetState@CFlyffEvent@@QAEHHE@Z ; CFlyffEvent::SetState
$LN48@Script:
  00421	6a 00		 push	 0
  00423	8d 8d 98 f7 ff
	ff		 lea	 ecx, DWORD PTR _s$[ebp]
  00429	e8 00 00 00 00	 call	 ?GetToken@CScanner@@UAEHH@Z ; CScanner::GetToken
  0042e	83 7d dc 15	 cmp	 DWORD PTR _s$[ebp+2116], 21 ; 00000015H
  00432	0f 85 68 fc ff
	ff		 jne	 $LL2@Script
$LN443@Script:

; 660  : 	}
; 661  : 	return TRUE;

  00438	be 01 00 00 00	 mov	 esi, 1
$LN55@Script:
  0043d	8d 8d 98 f7 ff
	ff		 lea	 ecx, DWORD PTR _s$[ebp]
  00443	e8 00 00 00 00	 call	 ??1CScanner@@UAE@XZ	; CScanner::~CScanner
  00448	8b c6		 mov	 eax, esi

; 662  : }

  0044a	8b 4d f4	 mov	 ecx, DWORD PTR __$EHRec$[ebp]
  0044d	64 89 0d 00 00
	00 00		 mov	 DWORD PTR fs:0, ecx
  00454	59		 pop	 ecx
  00455	5f		 pop	 edi
  00456	5e		 pop	 esi
  00457	8b 4d f0	 mov	 ecx, DWORD PTR __$ArrayPad$[ebp]
  0045a	33 cd		 xor	 ecx, ebp
  0045c	e8 00 00 00 00	 call	 @__security_check_cookie@4
  00461	8b e5		 mov	 esp, ebp
  00463	5d		 pop	 ebp
  00464	c3		 ret	 0
_TEXT	ENDS
;	COMDAT text$x
text$x	SEGMENT
__unwindfunclet$?Script@@YAHPBD@Z$0:
  00000	8d 8d 98 f7 ff
	ff		 lea	 ecx, DWORD PTR _s$[ebp]
  00006	e9 00 00 00 00	 jmp	 ??1CScanner@@UAE@XZ	; CScanner::~CScanner
  0000b	cc		 int	 3
  0000c	cc		 int	 3
  0000d	cc		 int	 3
  0000e	cc		 int	 3
  0000f	cc		 int	 3
__ehhandler$?Script@@YAHPBD@Z:
  00010	90		 npad	 1
  00011	90		 npad	 1
  00012	8b 54 24 08	 mov	 edx, DWORD PTR [esp+8]
  00016	8d 42 0c	 lea	 eax, DWORD PTR [edx+12]
  00019	8b 8a 98 f7 ff
	ff		 mov	 ecx, DWORD PTR [edx-2152]
  0001f	33 c8		 xor	 ecx, eax
  00021	e8 00 00 00 00	 call	 @__security_check_cookie@4
  00026	8b 4a fc	 mov	 ecx, DWORD PTR [edx-4]
  00029	33 c8		 xor	 ecx, eax
  0002b	e8 00 00 00 00	 call	 @__security_check_cookie@4
  00030	b8 00 00 00 00	 mov	 eax, OFFSET __ehfuncinfo$?Script@@YAHPBD@Z
  00035	e9 00 00 00 00	 jmp	 ___CxxFrameHandler3
text$x	ENDS
?Script@@YAHPBD@Z ENDP					; Script
; Function compile flags: /Ogtp
; File C:\IAGOS\server\v18\Source\Source\WorldServer\WorldServer.cpp
; File C:\Program Files\Microsoft Visual Studio\2022\Professional\VC\Tools\MSVC\14.44.35207\atlmfc\include\atltime.h
; File C:\Program Files\Microsoft Visual Studio\2022\Professional\VC\Tools\MSVC\14.44.35207\atlmfc\include\afxstr.h
; File C:\Program Files\Microsoft Visual Studio\2022\Professional\VC\Tools\MSVC\14.44.35207\atlmfc\include\atlsimpstr.h
; File C:\Program Files\Microsoft Visual Studio\2022\Professional\VC\Tools\MSVC\14.44.35207\atlmfc\include\cstringt.h
; File C:\Program Files\Microsoft Visual Studio\2022\Professional\VC\Tools\MSVC\14.44.35207\atlmfc\include\atlsimpstr.h
; File C:\IAGOS\server\v18\Source\Source\WorldServer\WorldServer.cpp
; File C:\Program Files\Microsoft Visual Studio\2022\Professional\VC\Tools\MSVC\14.44.35207\atlmfc\include\cstringt.h
; File C:\IAGOS\server\v18\Source\Source\WorldServer\WorldServer.cpp
; File C:\Program Files\Microsoft Visual Studio\2022\Professional\VC\Tools\MSVC\14.44.35207\atlmfc\include\atlsimpstr.h
; File C:\IAGOS\server\v18\Source\Source\WorldServer\WorldServer.cpp
; File C:\Program Files\Microsoft Visual Studio\2022\Professional\VC\Tools\MSVC\14.44.35207\atlmfc\include\atltime.h
; File C:\Program Files\Microsoft Visual Studio\2022\Professional\VC\Tools\MSVC\14.44.35207\atlmfc\include\atlsimpstr.h
; File C:\IAGOS\server\v18\Source\Source\WorldServer\WorldServer.cpp
;	COMDAT ?InitInstance@@YAHPAUHINSTANCE__@@H@Z
_TEXT	SEGMENT
_time$ = -748						; size = 8
$T2 = -740						; size = 4
_ptmTemp$3 = -736					; size = 36
_szBuffer$4 = -700					; size = 300
_szDir$5 = -400						; size = 255
_szBuffer$6 = -144					; size = 128
__$ArrayPad$ = -16					; size = 4
__$EHRec$ = -12						; size = 12
_hInstance$ = 8						; size = 4
_nCmdShow$ = 12						; size = 4
?InitInstance@@YAHPAUHINSTANCE__@@H@Z PROC		; InitInstance, COMDAT

; 348  : {

  00000	55		 push	 ebp
  00001	8b ec		 mov	 ebp, esp
  00003	6a ff		 push	 -1
  00005	68 00 00 00 00	 push	 __ehhandler$?InitInstance@@YAHPAUHINSTANCE__@@H@Z
  0000a	64 a1 00 00 00
	00		 mov	 eax, DWORD PTR fs:0
  00010	50		 push	 eax
  00011	81 ec e0 02 00
	00		 sub	 esp, 736		; 000002e0H
  00017	a1 00 00 00 00	 mov	 eax, DWORD PTR ___security_cookie
  0001c	33 c5		 xor	 eax, ebp
  0001e	89 45 f0	 mov	 DWORD PTR __$ArrayPad$[ebp], eax
  00021	56		 push	 esi
  00022	57		 push	 edi
  00023	50		 push	 eax
  00024	8d 45 f4	 lea	 eax, DWORD PTR __$EHRec$[ebp]
  00027	64 a3 00 00 00
	00		 mov	 DWORD PTR fs:0, eax
  0002d	8b 45 08	 mov	 eax, DWORD PTR _hInstance$[ebp]

; 349  :     // Set up the highest resolution timer we can manage 
; 350  : //	TIMECAPS tc; 
; 351  : //	UINT nPeriod;
; 352  : //	if( TIMERR_NOERROR == timeGetDevCaps(&tc, sizeof(tc)) ) 
; 353  : //		nPeriod = tc.wPeriodMin;
; 354  : //	else
; 355  : //		nPeriod = 1;  
; 356  : //	timeBeginPeriod( nPeriod ); 
; 357  : 
; 358  : 	HWND hWnd;
; 359  : 	g_hMainWnd	= hWnd	= CreateWindow(g_szWindowClass, g_szTitle, WS_OVERLAPPEDWINDOW,

  00030	6a 00		 push	 0
  00032	50		 push	 eax
  00033	6a 00		 push	 0
  00035	6a 00		 push	 0
  00037	6a 00		 push	 0
  00039	68 00 00 00 80	 push	 -2147483648		; 80000000H
  0003e	6a 00		 push	 0
  00040	68 00 00 00 80	 push	 -2147483648		; 80000000H
  00045	68 00 00 cf 00	 push	 13565952		; 00cf0000H
  0004a	68 00 00 00 00	 push	 OFFSET ?g_szTitle@@3PADA
  0004f	68 00 00 00 00	 push	 OFFSET ?g_szWindowClass@@3PADA
  00054	6a 00		 push	 0
  00056	ff 15 00 00 00
	00		 call	 DWORD PTR __imp__CreateWindowExA@48

; 360  : 		CW_USEDEFAULT, 0, CW_USEDEFAULT, 0, NULL, NULL, hInstance, NULL);
; 361  : 
; 362  : 	int x = 480, y = 0;
; 363  : 	SetWindowPos( hWnd, NULL, x, y, 800, 416, SWP_SHOWWINDOW );

  0005c	6a 40		 push	 64			; 00000040H
  0005e	68 a0 01 00 00	 push	 416			; 000001a0H
  00063	68 20 03 00 00	 push	 800			; 00000320H
  00068	6a 00		 push	 0
  0006a	68 e0 01 00 00	 push	 480			; 000001e0H
  0006f	8b f8		 mov	 edi, eax
  00071	6a 00		 push	 0
  00073	57		 push	 edi
  00074	89 3d 00 00 00
	00		 mov	 DWORD PTR ?g_hMainWnd@@3PAUHWND__@@A, edi
  0007a	ff 15 00 00 00
	00		 call	 DWORD PTR __imp__SetWindowPos@28

; 364  : 
; 365  : 	if (!hWnd)

  00080	85 ff		 test	 edi, edi
  00082	0f 84 49 02 00
	00		 je	 $LN95@InitInstan

; 366  : 		return FALSE;
; 367  : 
; 368  : 	SetTimer( g_hMainWnd, 0, SEC( 60 ), NULL );	// 60

  00088	8b 35 00 00 00
	00		 mov	 esi, DWORD PTR __imp__SetTimer@16
  0008e	6a 00		 push	 0
  00090	68 60 ea 00 00	 push	 60000			; 0000ea60H
  00095	6a 00		 push	 0
  00097	ff 35 00 00 00
	00		 push	 DWORD PTR ?g_hMainWnd@@3PAUHWND__@@A
  0009d	ff d6		 call	 esi

; 369  : 	SetTimer( g_hMainWnd, 1, MIN( 60 ), NULL );	// 3600

  0009f	6a 00		 push	 0
  000a1	68 80 ee 36 00	 push	 3600000			; 0036ee80H
  000a6	6a 01		 push	 1
  000a8	ff 35 00 00 00
	00		 push	 DWORD PTR ?g_hMainWnd@@3PAUHWND__@@A
  000ae	ff d6		 call	 esi
; File C:\Program Files\Microsoft Visual Studio\2022\Professional\VC\Tools\MSVC\14.44.35207\atlmfc\include\atltime.h

; 377  : 	return( CTime( ::_time64( NULL ) ) );

  000b0	6a 00		 push	 0
  000b2	e8 00 00 00 00	 call	 __time64

; 420  : 	m_time( time )

  000b7	89 85 14 fd ff
	ff		 mov	 DWORD PTR _time$[ebp], eax

; 1069 : 	if (_localtime64_s(&ptmTemp, &m_time) != 0)

  000bd	8d 85 14 fd ff
	ff		 lea	 eax, DWORD PTR _time$[ebp]
  000c3	50		 push	 eax
  000c4	8d 85 20 fd ff
	ff		 lea	 eax, DWORD PTR _ptmTemp$3[ebp]

; 420  : 	m_time( time )

  000ca	89 95 18 fd ff
	ff		 mov	 DWORD PTR _time$[ebp+4], edx

; 1069 : 	if (_localtime64_s(&ptmTemp, &m_time) != 0)

  000d0	50		 push	 eax
  000d1	e8 00 00 00 00	 call	 __localtime64_s
  000d6	83 c4 0c	 add	 esp, 12			; 0000000cH
  000d9	85 c0		 test	 eax, eax
  000db	0f 85 0d 02 00
	00		 jne	 $LN103@InitInstan

; 1072 : 	}
; 1073 : 
; 1074 : 	if (!_tcsftime(szBuffer, maxTimeBufferSize, pFormat, &ptmTemp))

  000e1	8d 85 20 fd ff
	ff		 lea	 eax, DWORD PTR _ptmTemp$3[ebp]
  000e7	50		 push	 eax
  000e8	68 00 00 00 00	 push	 OFFSET ??_C@_0BC@FBAMFINP@?$CFY?1?$CFm?1?$CFd?5?$CFH?3?$CFM?3?$CFS@
  000ed	8d 85 70 ff ff
	ff		 lea	 eax, DWORD PTR _szBuffer$6[ebp]
  000f3	68 80 00 00 00	 push	 128			; 00000080H
  000f8	50		 push	 eax
  000f9	e8 00 00 00 00	 call	 _strftime
  000fe	83 c4 10	 add	 esp, 16			; 00000010H
  00101	85 c0		 test	 eax, eax
  00103	75 06		 jne	 SHORT $LN19@InitInstan

; 1075 : 	{
; 1076 : 		szBuffer[0] = '\0';

  00105	88 85 70 ff ff
	ff		 mov	 BYTE PTR _szBuffer$6[ebp], al
$LN19@InitInstan:
; File C:\Program Files\Microsoft Visual Studio\2022\Professional\VC\Tools\MSVC\14.44.35207\atlmfc\include\afxstr.h

; 56   : 		return( AfxGetStringManager() );

  0010b	e8 00 00 00 00	 call	 ?AfxGetStringManager@@YGPAUIAtlStringMgr@ATL@@XZ ; AfxGetStringManager
  00110	8b c8		 mov	 ecx, eax
; File C:\Program Files\Microsoft Visual Studio\2022\Professional\VC\Tools\MSVC\14.44.35207\atlmfc\include\atlsimpstr.h

; 209  : 		ATLENSURE( pStringMgr != NULL );

  00112	85 c9		 test	 ecx, ecx
  00114	0f 84 de 01 00
	00		 je	 $LN104@InitInstan

; 210  : 		CStringData* pData = pStringMgr->GetNilString();

  0011a	8b 01		 mov	 eax, DWORD PTR [ecx]
  0011c	ff 50 0c	 call	 DWORD PTR [eax+12]

; 211  : 		Attach( pData );

  0011f	83 c0 10	 add	 eax, 16			; 00000010H
  00122	89 85 1c fd ff
	ff		 mov	 DWORD PTR $T2[ebp], eax
; File C:\Program Files\Microsoft Visual Studio\2022\Professional\VC\Tools\MSVC\14.44.35207\atlmfc\include\cstringt.h

; 2712 : 		if( (pv != NULL) && IS_INTRESOURCE( pv ) )

  00128	8d 85 70 ff ff
	ff		 lea	 eax, DWORD PTR _szBuffer$6[ebp]

; 1052 : 		CThisSimpleString( StringTraits::GetDefaultManager() )

  0012e	c7 45 fc 01 00
	00 00		 mov	 DWORD PTR __$EHRec$[ebp+8], 1

; 2712 : 		if( (pv != NULL) && IS_INTRESOURCE( pv ) )

  00135	a9 00 00 ff ff	 test	 eax, -65536		; ffff0000H
  0013a	75 11		 jne	 SHORT $LN94@InitInstan

; 2713 : 		{
; 2714 : 			UINT nID = LOWORD( reinterpret_cast< DWORD_PTR >( pv ) );

  0013c	0f b7 c0	 movzx	 eax, ax

; 2715 : 			(nID);
; 2716 : #ifdef _ATL_USE_WINAPI_FAMILY_DESKTOP_APP
; 2717 : 			if( !LoadString( nID ) )

  0013f	8d 8d 1c fd ff
	ff		 lea	 ecx, DWORD PTR $T2[ebp]
  00145	50		 push	 eax
  00146	e8 00 00 00 00	 call	 ?LoadStringA@?$CStringT@DV?$StrTraitMFC@DV?$ChTraitsCRT@D@ATL@@@@@ATL@@QAEHI@Z ; ATL::CStringT<char,StrTraitMFC<char,ATL::ChTraitsCRT<char> > >::LoadStringA

; 1054 : 		if( !CheckImplicitLoad( pszSrc ) )

  0014b	eb 25		 jmp	 SHORT $LN56@InitInstan
$LN94@InitInstan:
; File C:\Program Files\Microsoft Visual Studio\2022\Professional\VC\Tools\MSVC\14.44.35207\atlmfc\include\atlsimpstr.h

; 730  : 		return( int( strlen( psz ) ) );

  0014d	8d 8d 70 ff ff
	ff		 lea	 ecx, DWORD PTR _szBuffer$6[ebp]
  00153	8d 51 01	 lea	 edx, DWORD PTR [ecx+1]
$LL99@InitInstan:
  00156	8a 01		 mov	 al, BYTE PTR [ecx]
  00158	41		 inc	 ecx
  00159	84 c0		 test	 al, al
  0015b	75 f9		 jne	 SHORT $LL99@InitInstan
  0015d	2b ca		 sub	 ecx, edx

; 606  : 		SetString( pszSrc, StringLength( pszSrc ) );

  0015f	8d 85 70 ff ff
	ff		 lea	 eax, DWORD PTR _szBuffer$6[ebp]
  00165	51		 push	 ecx
  00166	50		 push	 eax
  00167	8d 8d 1c fd ff
	ff		 lea	 ecx, DWORD PTR $T2[ebp]
  0016d	e8 00 00 00 00	 call	 ?SetString@?$CSimpleStringT@D$0A@@ATL@@QAEXPBDH@Z ; ATL::CSimpleStringT<char,0>::SetString
$LN56@InitInstan:
; File C:\IAGOS\server\v18\Source\Source\WorldServer\WorldServer.cpp

; 372  : 	SetLogInfo( LOGTYPE_TIME, "%s", time.Format( "%Y/%m/%d %H:%M:%S" ) );

  00172	8b b5 1c fd ff
	ff		 mov	 esi, DWORD PTR $T2[ebp]
  00178	56		 push	 esi
  00179	68 00 00 00 00	 push	 OFFSET ??_C@_02DKCKIIND@?$CFs@
  0017e	6a 00		 push	 0
; File C:\Program Files\Microsoft Visual Studio\2022\Professional\VC\Tools\MSVC\14.44.35207\atlmfc\include\cstringt.h

; 1058 : 	}

  00180	c7 45 fc ff ff
	ff ff		 mov	 DWORD PTR __$EHRec$[ebp+8], -1
; File C:\IAGOS\server\v18\Source\Source\WorldServer\WorldServer.cpp

; 372  : 	SetLogInfo( LOGTYPE_TIME, "%s", time.Format( "%Y/%m/%d %H:%M:%S" ) );

  00187	e8 00 00 00 00	 call	 ?SetLogInfo@@YAXW4LOGTYPE@@PBDZZ ; SetLogInfo
  0018c	83 c4 0c	 add	 esp, 12			; 0000000cH
; File C:\Program Files\Microsoft Visual Studio\2022\Professional\VC\Tools\MSVC\14.44.35207\atlmfc\include\atlsimpstr.h

; 804  : 		return( reinterpret_cast< CStringData* >( m_pszData )-1 );

  0018f	83 c6 f0	 add	 esi, -16		; fffffff0H

; 92   : 		if( _InterlockedDecrement( &nRefs ) <= 0 )

  00192	83 c8 ff	 or	 eax, -1
  00195	f0 0f c1 46 0c	 lock	  xadd	 DWORD PTR [esi+12], eax
  0019a	48		 dec	 eax
  0019b	85 c0		 test	 eax, eax
  0019d	7f 08		 jg	 SHORT $LN92@InitInstan

; 93   : 		{
; 94   : 			pStringMgr->Free( this );

  0019f	8b 0e		 mov	 ecx, DWORD PTR [esi]
  001a1	56		 push	 esi
  001a2	8b 01		 mov	 eax, DWORD PTR [ecx]
  001a4	ff 50 04	 call	 DWORD PTR [eax+4]
$LN92@InitInstan:
; File C:\IAGOS\server\v18\Source\Source\WorldServer\WorldServer.cpp

; 374  : 	ShowWindow(hWnd, nCmdShow);

  001a7	ff 75 0c	 push	 DWORD PTR _nCmdShow$[ebp]
  001aa	57		 push	 edi
  001ab	ff 15 00 00 00
	00		 call	 DWORD PTR __imp__ShowWindow@8

; 375  : 	UpdateWindow(hWnd);

  001b1	57		 push	 edi
  001b2	ff 15 00 00 00
	00		 call	 DWORD PTR __imp__UpdateWindow@4

; 376  : 
; 377  : #ifndef _DEBUG
; 378  : // 	#if defined(__MINIDUMP)
; 379  : // 		InitDumper( DUMP_LEVEL_0 );
; 380  : // 	#else
; 381  : // 		InitEH();
; 382  : // 	#endif // !__MINIDUMP
; 383  : #endif	// _DEBUG
; 384  : 
; 385  : 	EnableFloatException();

  001b8	e8 00 00 00 00	 call	 ?EnableFloatException@@YAXXZ ; EnableFloatException

; 386  : 
; 387  : 	if( InitializeNetLib() == FALSE )

  001bd	e8 00 00 00 00	 call	 ?InitializeNetLib@@YAHXZ ; InitializeNetLib
  001c2	85 c0		 test	 eax, eax
  001c4	0f 84 07 01 00
	00		 je	 $LN95@InitInstan

; 388  : 		return FALSE;
; 389  : 
; 390  : 	if( InitializeScriptLib() == FALSE )

  001ca	e8 00 00 00 00	 call	 ?InitializeScriptLib@@YAHXZ ; InitializeScriptLib
  001cf	85 c0		 test	 eax, eax
  001d1	0f 84 fa 00 00
	00		 je	 $LN95@InitInstan

; 391  : 		return FALSE;
; 392  : 
; 393  : 	xSRand( timeGetTime()  );	// ĽÓµµ¸¦ żäÇĎ´Â ·Ł´ýŔş xRandom()Ŕ» ľ˛µµ·Ď...

  001d7	ff 15 00 00 00
	00		 call	 DWORD PTR __imp__timeGetTime@0
  001dd	50		 push	 eax
  001de	e8 00 00 00 00	 call	 ?xSRand@@YAXK@Z		; xSRand

; 394  : 
; 395  : 	if( Script( g_szINI ) == TRUE )

  001e3	68 00 00 00 00	 push	 OFFSET ?g_szINI@@3PADA
  001e8	e8 00 00 00 00	 call	 ?Script@@YAHPBD@Z	; Script
  001ed	83 c4 08	 add	 esp, 8
  001f0	83 f8 01	 cmp	 eax, 1
  001f3	75 76		 jne	 SHORT $LN5@InitInstan

; 396  : 	{
; 397  : 		if( !prj.OpenProject( "Masquerade.prj" ) ) 

  001f5	68 00 00 00 00	 push	 OFFSET ??_C@_0P@DHBMMEOB@Masquerade?4prj@
  001fa	b9 00 00 00 00	 mov	 ecx, OFFSET ?prj@@3VCProject@@A ; prj
  001ff	e8 00 00 00 00	 call	 ?OpenProject@CProject@@QAEHPBD@Z ; CProject::OpenProject
  00204	85 c0		 test	 eax, eax
  00206	75 12		 jne	 SHORT $LN7@InitInstan

; 398  : 		{
; 399  : 			Error( "OpenProject ERROR check Masquerade.prj" );

  00208	68 00 00 00 00	 push	 OFFSET ??_C@_0CH@OPDHGCFB@OpenProject?5ERROR?5check?5Masquer@
  0020d	e8 00 00 00 00	 call	 ?Error@@YAPBDPBDZZ	; Error
  00212	83 c4 04	 add	 esp, 4

; 400  : 			return FALSE;

  00215	e9 b7 00 00 00	 jmp	 $LN95@InitInstan
$LN7@InitInstan:

; 401  : 		}
; 402  : 
; 403  : 		SetLogInfo( LOGTYPE_REDRAW, "" );

  0021a	68 00 00 00 00	 push	 OFFSET ??_C@_00CNPNBAHC@@
  0021f	6a 07		 push	 7
  00221	e8 00 00 00 00	 call	 ?SetLogInfo@@YAXW4LOGTYPE@@PBDZZ ; SetLogInfo

; 404  : 		SetTitle();

  00226	e8 00 00 00 00	 call	 ?SetTitle@@YAXXZ	; SetTitle

; 405  : 
; 406  : 		if( CompileItemScript( "ItemScript.lua" ) == FALSE )

  0022b	68 00 00 00 00	 push	 OFFSET ??_C@_0P@FFDMEKBF@ItemScript?4lua@
  00230	e8 00 00 00 00	 call	 ?CompileItemScript@@YAHPBD@Z ; CompileItemScript
  00235	83 c4 0c	 add	 esp, 12			; 0000000cH
  00238	85 c0		 test	 eax, eax
  0023a	0f 84 91 00 00
	00		 je	 $LN95@InitInstan

; 407  : 			return FALSE;
; 408  : 
; 409  : 	#if defined(__REMOVE_SCIRPT_060712)
; 410  : 		if( CWorldDialog::GetInstance().Init() == FALSE )

  00240	e8 00 00 00 00	 call	 ?GetInstance@CWorldDialog@@SAAAV1@XZ ; CWorldDialog::GetInstance
  00245	8b c8		 mov	 ecx, eax
  00247	e8 00 00 00 00	 call	 ?Init@CWorldDialog@@QAEHXZ ; CWorldDialog::Init
  0024c	85 c0		 test	 eax, eax
  0024e	75 0d		 jne	 SHORT $LN9@InitInstan

; 411  : 		{
; 412  : 			OutputDebugString( "WorldDialog.DLL load failed\n" );

  00250	68 00 00 00 00	 push	 OFFSET ??_C@_0BN@ILLCLPI@WorldDialog?4DLL?5load?5failed?6@
  00255	ff 15 00 00 00
	00		 call	 DWORD PTR __imp__OutputDebugStringA@4

; 413  : 			return FALSE;

  0025b	eb 74		 jmp	 SHORT $LN95@InitInstan
$LN9@InitInstan:

; 414  : 		}
; 415  : 	#endif
; 416  : 		return CRunObject::GetInstance()->Init();

  0025d	e8 00 00 00 00	 call	 ?GetInstance@CRunObject@@SAPAV1@XZ ; CRunObject::GetInstance
  00262	8b c8		 mov	 ecx, eax
  00264	e8 00 00 00 00	 call	 ?Init@CRunObject@@QAEHXZ ; CRunObject::Init
  00269	eb 68		 jmp	 SHORT $LN6@InitInstan
$LN5@InitInstan:

; 417  : 	}
; 418  : 	else
; 419  : 	{
; 420  : 		char szBuffer[300] = {0,};

  0026b	68 2c 01 00 00	 push	 300			; 0000012cH
  00270	8d 85 44 fd ff
	ff		 lea	 eax, DWORD PTR _szBuffer$4[ebp]
  00276	6a 00		 push	 0
  00278	50		 push	 eax
  00279	e8 00 00 00 00	 call	 _memset

; 421  : 		char szDir[255] = {0,};

  0027e	68 ff 00 00 00	 push	 255			; 000000ffH
  00283	8d 85 70 fe ff
	ff		 lea	 eax, DWORD PTR _szDir$5[ebp]
  00289	6a 00		 push	 0
  0028b	50		 push	 eax
  0028c	e8 00 00 00 00	 call	 _memset
  00291	83 c4 18	 add	 esp, 24			; 00000018H

; 422  : 		GetCurrentDirectory( 255, szDir );

  00294	8d 85 70 fe ff
	ff		 lea	 eax, DWORD PTR _szDir$5[ebp]
  0029a	50		 push	 eax
  0029b	68 ff 00 00 00	 push	 255			; 000000ffH
  002a0	ff 15 00 00 00
	00		 call	 DWORD PTR __imp__GetCurrentDirectoryA@8

; 423  : 		sprintf( szBuffer, "[CRITICAL] Missing File -> %s\\WorldServer.ini", szDir );

  002a6	8d 85 70 fe ff
	ff		 lea	 eax, DWORD PTR _szDir$5[ebp]
  002ac	50		 push	 eax
  002ad	8d 85 44 fd ff
	ff		 lea	 eax, DWORD PTR _szBuffer$4[ebp]
  002b3	68 00 00 00 00	 push	 OFFSET ??_C@_0CO@GGANKMPJ@?$FLCRITICAL?$FN?5Missing?5File?5?9?$DO?5?$CFs?2W@
  002b8	50		 push	 eax
  002b9	e8 00 00 00 00	 call	 _sprintf
  002be	83 c4 0c	 add	 esp, 12			; 0000000cH

; 424  : 		AfxMessageBox( szBuffer );

  002c1	8d 85 44 fd ff
	ff		 lea	 eax, DWORD PTR _szBuffer$4[ebp]
  002c7	6a 00		 push	 0
  002c9	6a 00		 push	 0
  002cb	50		 push	 eax
  002cc	e8 00 00 00 00	 call	 ?AfxMessageBox@@YGHPBDII@Z ; AfxMessageBox
$LN95@InitInstan:

; 427  : }

  002d1	33 c0		 xor	 eax, eax
$LN6@InitInstan:
  002d3	8b 4d f4	 mov	 ecx, DWORD PTR __$EHRec$[ebp]
  002d6	64 89 0d 00 00
	00 00		 mov	 DWORD PTR fs:0, ecx
  002dd	59		 pop	 ecx
  002de	5f		 pop	 edi
  002df	5e		 pop	 esi
  002e0	8b 4d f0	 mov	 ecx, DWORD PTR __$ArrayPad$[ebp]
  002e3	33 cd		 xor	 ecx, ebp
  002e5	e8 00 00 00 00	 call	 @__security_check_cookie@4
  002ea	8b e5		 mov	 esp, ebp
  002ec	5d		 pop	 ebp
  002ed	c3		 ret	 0
$LN103@InitInstan:
; File C:\Program Files\Microsoft Visual Studio\2022\Professional\VC\Tools\MSVC\14.44.35207\atlmfc\include\atltime.h

; 1071 : 		AtlThrow(E_INVALIDARG);

  002ee	68 57 00 07 80	 push	 -2147024809		; 80070057H
  002f3	e8 00 00 00 00	 call	 ?AtlThrowImpl@ATL@@YGXJ@Z ; ATL::AtlThrowImpl
$LN104@InitInstan:
; File C:\Program Files\Microsoft Visual Studio\2022\Professional\VC\Tools\MSVC\14.44.35207\atlmfc\include\atlsimpstr.h

; 209  : 		ATLENSURE( pStringMgr != NULL );

  002f8	68 05 40 00 80	 push	 -2147467259		; 80004005H
  002fd	e8 00 00 00 00	 call	 ?AtlThrowImpl@ATL@@YGXJ@Z ; ATL::AtlThrowImpl
$LN101@InitInstan:
  00302	cc		 int	 3
_TEXT	ENDS
;	COMDAT text$x
text$x	SEGMENT
__unwindfunclet$?InitInstance@@YAHPAUHINSTANCE__@@H@Z$3:
  00000	8d 8d 1c fd ff
	ff		 lea	 ecx, DWORD PTR $T2[ebp]
  00006	e9 00 00 00 00	 jmp	 ??1?$CSimpleStringT@D$0A@@ATL@@QAE@XZ ; ATL::CSimpleStringT<char,0>::~CSimpleStringT<char,0>
  0000b	cc		 int	 3
  0000c	cc		 int	 3
  0000d	cc		 int	 3
  0000e	cc		 int	 3
  0000f	cc		 int	 3
__ehhandler$?InitInstance@@YAHPAUHINSTANCE__@@H@Z:
  00010	90		 npad	 1
  00011	90		 npad	 1
  00012	8b 54 24 08	 mov	 edx, DWORD PTR [esp+8]
  00016	8d 42 0c	 lea	 eax, DWORD PTR [edx+12]
  00019	8b 8a 14 fd ff
	ff		 mov	 ecx, DWORD PTR [edx-748]
  0001f	33 c8		 xor	 ecx, eax
  00021	e8 00 00 00 00	 call	 @__security_check_cookie@4
  00026	8b 4a fc	 mov	 ecx, DWORD PTR [edx-4]
  00029	33 c8		 xor	 ecx, eax
  0002b	e8 00 00 00 00	 call	 @__security_check_cookie@4
  00030	b8 00 00 00 00	 mov	 eax, OFFSET __ehfuncinfo$?InitInstance@@YAHPAUHINSTANCE__@@H@Z
  00035	e9 00 00 00 00	 jmp	 ___CxxFrameHandler3
text$x	ENDS
?InitInstance@@YAHPAUHINSTANCE__@@H@Z ENDP		; InitInstance
; Function compile flags: /Ogtp
; File C:\IAGOS\server\v18\Source\Source\WorldServer\WorldServer.cpp
;	COMDAT ?MyRegisterClass@@YAGPAUHINSTANCE__@@@Z
_TEXT	SEGMENT
_wcex$ = -48						; size = 48
_hInstance$ = 8						; size = 4
?MyRegisterClass@@YAGPAUHINSTANCE__@@@Z PROC		; MyRegisterClass, COMDAT

; 207  : {

  00000	55		 push	 ebp
  00001	8b ec		 mov	 ebp, esp
  00003	83 ec 30	 sub	 esp, 48			; 00000030H

; 208  : 	WNDCLASSEX wcex;
; 209  : 
; 210  : 	wcex.cbSize = sizeof(WNDCLASSEX); 
; 211  : 
; 212  : 	wcex.style			= CS_HREDRAW | CS_VREDRAW;
; 213  : 	wcex.lpfnWndProc	= (WNDPROC)WndProc;
; 214  : 	wcex.cbClsExtra		= 0;
; 215  : 	wcex.cbWndExtra		= 0;
; 216  : 	wcex.hInstance		= hInstance;

  00006	8b 45 08	 mov	 eax, DWORD PTR _hInstance$[ebp]

; 217  : 	wcex.hIcon			= LoadIcon(hInstance, (LPCTSTR)IDI_WORLDSERVER);

  00009	6a 6b		 push	 107			; 0000006bH
  0000b	50		 push	 eax
  0000c	c7 45 d0 30 00
	00 00		 mov	 DWORD PTR _wcex$[ebp], 48 ; 00000030H
  00013	c7 45 d4 03 00
	00 00		 mov	 DWORD PTR _wcex$[ebp+4], 3
  0001a	c7 45 d8 00 00
	00 00		 mov	 DWORD PTR _wcex$[ebp+8], OFFSET ?WndProc@@YGJPAUHWND__@@IIJ@Z ; WndProc
  00021	c7 45 dc 00 00
	00 00		 mov	 DWORD PTR _wcex$[ebp+12], 0
  00028	c7 45 e0 00 00
	00 00		 mov	 DWORD PTR _wcex$[ebp+16], 0
  0002f	89 45 e4	 mov	 DWORD PTR _wcex$[ebp+20], eax
  00032	ff 15 00 00 00
	00		 call	 DWORD PTR __imp__LoadIconA@8

; 218  : 	wcex.hCursor		= LoadCursor(NULL, IDC_ARROW);

  00038	68 00 7f 00 00	 push	 32512			; 00007f00H
  0003d	6a 00		 push	 0
  0003f	89 45 e8	 mov	 DWORD PTR _wcex$[ebp+24], eax
  00042	ff 15 00 00 00
	00		 call	 DWORD PTR __imp__LoadCursorA@8

; 219  : 	wcex.hbrBackground	= (HBRUSH)(COLOR_WINDOW+1);
; 220  : 	wcex.lpszMenuName	= (LPCSTR)IDC_WORLDSERVER;
; 221  : 	wcex.lpszClassName	= g_szWindowClass;
; 222  : 	wcex.hIconSm		= LoadIcon(wcex.hInstance, (LPCTSTR)IDI_SMALL);

  00048	6a 6c		 push	 108			; 0000006cH
  0004a	ff 75 e4	 push	 DWORD PTR _wcex$[ebp+20]
  0004d	89 45 ec	 mov	 DWORD PTR _wcex$[ebp+28], eax
  00050	c7 45 f0 06 00
	00 00		 mov	 DWORD PTR _wcex$[ebp+32], 6
  00057	c7 45 f4 6d 00
	00 00		 mov	 DWORD PTR _wcex$[ebp+36], 109 ; 0000006dH
  0005e	c7 45 f8 00 00
	00 00		 mov	 DWORD PTR _wcex$[ebp+40], OFFSET ?g_szWindowClass@@3PADA
  00065	ff 15 00 00 00
	00		 call	 DWORD PTR __imp__LoadIconA@8
  0006b	89 45 fc	 mov	 DWORD PTR _wcex$[ebp+44], eax

; 223  : 
; 224  : 	return RegisterClassEx(&wcex);

  0006e	8d 45 d0	 lea	 eax, DWORD PTR _wcex$[ebp]
  00071	50		 push	 eax
  00072	ff 15 00 00 00
	00		 call	 DWORD PTR __imp__RegisterClassExA@4

; 225  : }

  00078	8b e5		 mov	 esp, ebp
  0007a	5d		 pop	 ebp
  0007b	c3		 ret	 0
?MyRegisterClass@@YAGPAUHINSTANCE__@@@Z ENDP		; MyRegisterClass
_TEXT	ENDS
; Function compile flags: /Ogtp
; File C:\IAGOS\server\v18\Source\Source\WorldServer\WorldServer.cpp
;	COMDAT ?WndProc@@YGJPAUHWND__@@IIJ@Z
_TEXT	SEGMENT
_hdc$ = -72						; size = 4
_ps$ = -68						; size = 64
__$ArrayPad$ = -4					; size = 4
_hWnd$ = 8						; size = 4
_message$ = 12						; size = 4
_wParam$ = 16						; size = 4
_lParam$ = 20						; size = 4
?WndProc@@YGJPAUHWND__@@IIJ@Z PROC			; WndProc, COMDAT

; 273  : {

  00000	55		 push	 ebp
  00001	8b ec		 mov	 ebp, esp
  00003	83 ec 48	 sub	 esp, 72			; 00000048H
  00006	a1 00 00 00 00	 mov	 eax, DWORD PTR ___security_cookie
  0000b	33 c5		 xor	 eax, ebp
  0000d	89 45 fc	 mov	 DWORD PTR __$ArrayPad$[ebp], eax

; 274  : 	int wmId, wmEvent;
; 275  : 	PAINTSTRUCT ps;
; 276  : 	HDC hdc;
; 277  : 
; 278  : 	switch (message) 

  00010	8b 4d 0c	 mov	 ecx, DWORD PTR _message$[ebp]
  00013	56		 push	 esi
  00014	8b 75 08	 mov	 esi, DWORD PTR _hWnd$[ebp]
  00017	81 f9 13 01 00
	00		 cmp	 ecx, 275		; 00000113H
  0001d	0f 87 fc 00 00
	00		 ja	 $LN20@WndProc
  00023	0f 84 c8 00 00
	00		 je	 $LN8@WndProc
  00029	8b c1		 mov	 eax, ecx
  0002b	83 e8 02	 sub	 eax, 2
  0002e	0f 84 88 00 00
	00		 je	 $LN17@WndProc
  00034	83 e8 0d	 sub	 eax, 13			; 0000000dH
  00037	74 4b		 je	 SHORT $LN14@WndProc
  00039	2d 02 01 00 00	 sub	 eax, 258		; 00000102H
  0003e	0f 85 e9 00 00
	00		 jne	 $LN18@WndProc

; 288  : 						break;
; 289  : 					case 1:
; 290  : 						// g_UserMng.OutputStatistics();
; 291  : 						break;
; 292  : 				}
; 293  : 				break;
; 294  : 			}
; 295  : 		case WM_COMMAND:
; 296  : 			wmId    = LOWORD(wParam);
; 297  : 			wmEvent = HIWORD(wParam); 
; 298  : 			switch (wmId)

  00044	8b 45 10	 mov	 eax, DWORD PTR _wParam$[ebp]
  00047	66 83 f8 69	 cmp	 ax, 105			; 00000069H
  0004b	74 1d		 je	 SHORT $LN12@WndProc

; 302  : 				   break;
; 303  : 				default:
; 304  : 				   return DefWindowProc(hWnd, message, wParam, lParam);

  0004d	ff 75 14	 push	 DWORD PTR _lParam$[ebp]
  00050	50		 push	 eax
  00051	51		 push	 ecx
  00052	56		 push	 esi
  00053	ff 15 00 00 00
	00		 call	 DWORD PTR __imp__DefWindowProcA@16
  00059	5e		 pop	 esi

; 337  : }

  0005a	8b 4d fc	 mov	 ecx, DWORD PTR __$ArrayPad$[ebp]
  0005d	33 cd		 xor	 ecx, ebp
  0005f	e8 00 00 00 00	 call	 @__security_check_cookie@4
  00064	8b e5		 mov	 esp, ebp
  00066	5d		 pop	 ebp
  00067	c2 10 00	 ret	 16			; 00000010H
$LN12@WndProc:

; 299  : 			{
; 300  : 				case IDM_EXIT:
; 301  : 				   DestroyWindow(hWnd);

  0006a	56		 push	 esi
  0006b	ff 15 00 00 00
	00		 call	 DWORD PTR __imp__DestroyWindow@4

; 335  :    }
; 336  :    return 0;

  00071	33 c0		 xor	 eax, eax
  00073	5e		 pop	 esi

; 337  : }

  00074	8b 4d fc	 mov	 ecx, DWORD PTR __$ArrayPad$[ebp]
  00077	33 cd		 xor	 ecx, ebp
  00079	e8 00 00 00 00	 call	 @__security_check_cookie@4
  0007e	8b e5		 mov	 esp, ebp
  00080	5d		 pop	 ebp
  00081	c2 10 00	 ret	 16			; 00000010H
$LN14@WndProc:

; 305  : 			}
; 306  : 			break;
; 307  : 		case WM_PAINT:
; 308  : 			hdc = BeginPaint( hWnd, &ps );

  00084	8d 45 bc	 lea	 eax, DWORD PTR _ps$[ebp]
  00087	50		 push	 eax
  00088	56		 push	 esi
  00089	ff 15 00 00 00
	00		 call	 DWORD PTR __imp__BeginPaint@8
  0008f	89 45 b8	 mov	 DWORD PTR _hdc$[ebp], eax

; 309  : 			OnPaint( hdc );

  00092	8d 45 b8	 lea	 eax, DWORD PTR _hdc$[ebp]
  00095	50		 push	 eax
  00096	e8 00 00 00 00	 call	 ?OnPaint@@YAXAAPAUHDC__@@@Z ; OnPaint
  0009b	83 c4 04	 add	 esp, 4

; 310  : 			EndPaint( hWnd, &ps );

  0009e	8d 45 bc	 lea	 eax, DWORD PTR _ps$[ebp]
  000a1	50		 push	 eax
  000a2	56		 push	 esi
  000a3	ff 15 00 00 00
	00		 call	 DWORD PTR __imp__EndPaint@8

; 335  :    }
; 336  :    return 0;

  000a9	33 c0		 xor	 eax, eax
  000ab	5e		 pop	 esi

; 337  : }

  000ac	8b 4d fc	 mov	 ecx, DWORD PTR __$ArrayPad$[ebp]
  000af	33 cd		 xor	 ecx, ebp
  000b1	e8 00 00 00 00	 call	 @__security_check_cookie@4
  000b6	8b e5		 mov	 esp, ebp
  000b8	5d		 pop	 ebp
  000b9	c2 10 00	 ret	 16			; 00000010H
$LN17@WndProc:

; 314  : #ifdef __MEM_TRACE
; 315  : #ifndef _DEBUG
; 316  : 			CMemTrace::Instance()->Print();
; 317  : #endif	// _DEBUG
; 318  : #endif	// __MEM_TRACE
; 319  : #ifdef __VM_0819
; 320  : 			CVMLog::Instance()->Log();
; 321  : #endif	// __VM_0819
; 322  : 			break;
; 323  : 		case WM_RBUTTONDOWN:
; 324  : #ifdef __NEW_PROFILE
; 325  : 			CProfileInfo::GetInstance()->SetToggleProfiling();
; 326  : #endif // __NEW_PROFILE
; 327  : 			break;
; 328  : 		case WM_DESTROY:
; 329  : 			KillTimer( g_hMainWnd, 0 );

  000bc	8b 35 00 00 00
	00		 mov	 esi, DWORD PTR __imp__KillTimer@8
  000c2	6a 00		 push	 0
  000c4	ff 35 00 00 00
	00		 push	 DWORD PTR ?g_hMainWnd@@3PAUHWND__@@A
  000ca	ff d6		 call	 esi

; 330  : 			KillTimer( g_hMainWnd, 1 );

  000cc	6a 01		 push	 1
  000ce	ff 35 00 00 00
	00		 push	 DWORD PTR ?g_hMainWnd@@3PAUHWND__@@A
  000d4	ff d6		 call	 esi

; 331  : 			PostQuitMessage(0);

  000d6	6a 00		 push	 0
  000d8	ff 15 00 00 00
	00		 call	 DWORD PTR __imp__PostQuitMessage@4

; 335  :    }
; 336  :    return 0;

  000de	33 c0		 xor	 eax, eax
  000e0	5e		 pop	 esi

; 337  : }

  000e1	8b 4d fc	 mov	 ecx, DWORD PTR __$ArrayPad$[ebp]
  000e4	33 cd		 xor	 ecx, ebp
  000e6	e8 00 00 00 00	 call	 @__security_check_cookie@4
  000eb	8b e5		 mov	 esp, ebp
  000ed	5d		 pop	 ebp
  000ee	c2 10 00	 ret	 16			; 00000010H
$LN8@WndProc:

; 279  : 	{
; 280  : 		case WM_TIMER:
; 281  : 			{
; 282  : 				WORD wTimerID	= wParam;
; 283  : 				switch( wTimerID )

  000f1	66 83 7d 10 00	 cmp	 WORD PTR _wParam$[ebp], 0
  000f6	75 60		 jne	 SHORT $LN2@WndProc

; 284  : 				{
; 285  : 					case 0:
; 286  : 						g_dpDBClient.SendPing();

  000f8	b9 00 00 00 00	 mov	 ecx, OFFSET ?g_dpDBClient@@3VCDPDatabaseClient@@A ; g_dpDBClient
  000fd	e8 00 00 00 00	 call	 ?SendPing@CDPDatabaseClient@@QAEXXZ ; CDPDatabaseClient::SendPing

; 287  : 						g_DPCoreClient.SendPing();

  00102	b9 00 00 00 00	 mov	 ecx, OFFSET ?g_DPCoreClient@@3VCDPCoreClient@@A ; g_DPCoreClient
  00107	e8 00 00 00 00	 call	 ?SendPing@CDPCoreClient@@QAEXXZ ; CDPCoreClient::SendPing

; 335  :    }
; 336  :    return 0;

  0010c	33 c0		 xor	 eax, eax
  0010e	5e		 pop	 esi

; 337  : }

  0010f	8b 4d fc	 mov	 ecx, DWORD PTR __$ArrayPad$[ebp]
  00112	33 cd		 xor	 ecx, ebp
  00114	e8 00 00 00 00	 call	 @__security_check_cookie@4
  00119	8b e5		 mov	 esp, ebp
  0011b	5d		 pop	 ebp
  0011c	c2 10 00	 ret	 16			; 00000010H
$LN20@WndProc:

; 274  : 	int wmId, wmEvent;
; 275  : 	PAINTSTRUCT ps;
; 276  : 	HDC hdc;
; 277  : 
; 278  : 	switch (message) 

  0011f	8b c1		 mov	 eax, ecx
  00121	2d 01 02 00 00	 sub	 eax, 513		; 00000201H
  00126	74 24		 je	 SHORT $LN15@WndProc
  00128	83 e8 03	 sub	 eax, 3
  0012b	74 2b		 je	 SHORT $LN2@WndProc
$LN18@WndProc:

; 332  : 			break;
; 333  : 		default:
; 334  : 			return DefWindowProc(hWnd, message, wParam, lParam);

  0012d	ff 75 14	 push	 DWORD PTR _lParam$[ebp]
  00130	ff 75 10	 push	 DWORD PTR _wParam$[ebp]
  00133	51		 push	 ecx
  00134	56		 push	 esi
  00135	ff 15 00 00 00
	00		 call	 DWORD PTR __imp__DefWindowProcA@16
  0013b	5e		 pop	 esi

; 337  : }

  0013c	8b 4d fc	 mov	 ecx, DWORD PTR __$ArrayPad$[ebp]
  0013f	33 cd		 xor	 ecx, ebp
  00141	e8 00 00 00 00	 call	 @__security_check_cookie@4
  00146	8b e5		 mov	 esp, ebp
  00148	5d		 pop	 ebp
  00149	c2 10 00	 ret	 16			; 00000010H
$LN15@WndProc:

; 311  : 			break;
; 312  : 		case WM_LBUTTONDOWN:
; 313  : 			CRunObject::GetInstance()->ToggleProfiling();

  0014c	e8 00 00 00 00	 call	 ?GetInstance@CRunObject@@SAPAV1@XZ ; CRunObject::GetInstance
  00151	8b c8		 mov	 ecx, eax
  00153	e8 00 00 00 00	 call	 ?ToggleProfiling@CRunObject@@QAEXXZ ; CRunObject::ToggleProfiling
$LN2@WndProc:

; 337  : }

  00158	8b 4d fc	 mov	 ecx, DWORD PTR __$ArrayPad$[ebp]
  0015b	33 c0		 xor	 eax, eax
  0015d	33 cd		 xor	 ecx, ebp
  0015f	5e		 pop	 esi
  00160	e8 00 00 00 00	 call	 @__security_check_cookie@4
  00165	8b e5		 mov	 esp, ebp
  00167	5d		 pop	 ebp
  00168	c2 10 00	 ret	 16			; 00000010H
?WndProc@@YGJPAUHWND__@@IIJ@Z ENDP			; WndProc
_TEXT	ENDS
; Function compile flags: /Ogtp
; File C:\IAGOS\server\v18\Source\Source\WorldServer\WorldServer.cpp
; File C:\Program Files (x86)\Windows Kits\10\Include\10.0.26100.0\ucrt\stdio.h
; File C:\IAGOS\server\v18\Source\Source\WorldServer\WorldServer.cpp
; File C:\Program Files (x86)\Windows Kits\10\Include\10.0.26100.0\ucrt\stdio.h
; File C:\IAGOS\server\v18\Source\Source\WorldServer\WorldServer.cpp
; File C:\Program Files (x86)\Windows Kits\10\Include\10.0.26100.0\ucrt\stdio.h
; File C:\IAGOS\server\v18\Source\Source\WorldServer\WorldServer.cpp
;	COMDAT ?SetLogInfo@@YAXW4LOGTYPE@@PBDZZ
_TEXT	SEGMENT
_type$ = 8						; size = 4
_lpszFormat$ = 12					; size = 4
?SetLogInfo@@YAXW4LOGTYPE@@PBDZZ PROC			; SetLogInfo, COMDAT

; 228  : {

  00000	55		 push	 ebp
  00001	8b ec		 mov	 ebp, esp

; 229  : 	if( type == LOGTYPE_REDRAW )

  00003	8b 45 08	 mov	 eax, DWORD PTR _type$[ebp]
  00006	83 f8 07	 cmp	 eax, 7
  00009	75 12		 jne	 SHORT $LN2@SetLogInfo

; 230  : 	{
; 231  : 		InvalidateRect( g_hMainWnd, NULL, TRUE );

  0000b	6a 01		 push	 1
  0000d	6a 00		 push	 0
  0000f	ff 35 00 00 00
	00		 push	 DWORD PTR ?g_hMainWnd@@3PAUHWND__@@A
  00015	ff 15 00 00 00
	00		 call	 DWORD PTR __imp__InvalidateRect@12

; 241  : }

  0001b	5d		 pop	 ebp
  0001c	c3		 ret	 0
$LN2@SetLogInfo:
; File C:\Program Files (x86)\Windows Kits\10\Include\10.0.26100.0\ucrt\stdio.h

; 1392 :         int const _Result = __stdio_common_vsprintf(

  0001d	8d 4d 10	 lea	 ecx, DWORD PTR _lpszFormat$[ebp+4]
; File C:\IAGOS\server\v18\Source\Source\WorldServer\WorldServer.cpp

; 238  : 	_vsntprintf( g_szBuffer[ type ], 255, lpszFormat, args );

  00020	c1 e0 08	 shl	 eax, 8
; File C:\Program Files (x86)\Windows Kits\10\Include\10.0.26100.0\ucrt\stdio.h

; 1392 :         int const _Result = __stdio_common_vsprintf(

  00023	51		 push	 ecx
  00024	6a 00		 push	 0
  00026	ff 75 0c	 push	 DWORD PTR _lpszFormat$[ebp]
; File C:\IAGOS\server\v18\Source\Source\WorldServer\WorldServer.cpp

; 238  : 	_vsntprintf( g_szBuffer[ type ], 255, lpszFormat, args );

  00029	05 00 00 00 00	 add	 eax, OFFSET ?g_szBuffer@@3PAY0BAA@DA
; File C:\Program Files (x86)\Windows Kits\10\Include\10.0.26100.0\ucrt\stdio.h

; 1392 :         int const _Result = __stdio_common_vsprintf(

  0002e	68 ff 00 00 00	 push	 255			; 000000ffH
  00033	50		 push	 eax
  00034	e8 00 00 00 00	 call	 ___local_stdio_printf_options
  00039	8b 08		 mov	 ecx, DWORD PTR [eax]
  0003b	ff 70 04	 push	 DWORD PTR [eax+4]
  0003e	83 c9 01	 or	 ecx, 1
  00041	51		 push	 ecx
  00042	e8 00 00 00 00	 call	 ___stdio_common_vsprintf
  00047	83 c4 1c	 add	 esp, 28			; 0000001cH
; File C:\IAGOS\server\v18\Source\Source\WorldServer\WorldServer.cpp

; 241  : }

  0004a	5d		 pop	 ebp
  0004b	c3		 ret	 0
?SetLogInfo@@YAXW4LOGTYPE@@PBDZZ ENDP			; SetLogInfo
_TEXT	ENDS
; Function compile flags: /Ogtp
; File C:\Program Files\Microsoft Visual Studio\2022\Professional\VC\Tools\MSVC\14.44.35207\atlmfc\include\cstringt.h
; File C:\Program Files\Microsoft Visual Studio\2022\Professional\VC\Tools\MSVC\14.44.35207\atlmfc\include\afxstr.h
; File C:\Program Files\Microsoft Visual Studio\2022\Professional\VC\Tools\MSVC\14.44.35207\atlmfc\include\cstringt.h
; File C:\Program Files\Microsoft Visual Studio\2022\Professional\VC\Tools\MSVC\14.44.35207\atlmfc\include\afxstr.h
; File C:\Program Files\Microsoft Visual Studio\2022\Professional\VC\Tools\MSVC\14.44.35207\atlmfc\include\cstringt.h
; File C:\Program Files\Microsoft Visual Studio\2022\Professional\VC\Tools\MSVC\14.44.35207\atlmfc\include\atlcore.h
; File C:\Program Files\Microsoft Visual Studio\2022\Professional\VC\Tools\MSVC\14.44.35207\atlmfc\include\cstringt.h
; File C:\Program Files\Microsoft Visual Studio\2022\Professional\VC\Tools\MSVC\14.44.35207\atlmfc\include\atlsimpstr.h
; File C:\Program Files\Microsoft Visual Studio\2022\Professional\VC\Tools\MSVC\14.44.35207\atlmfc\include\cstringt.h
; File C:\Program Files\Microsoft Visual Studio\2022\Professional\VC\Tools\MSVC\14.44.35207\atlmfc\include\atlsimpstr.h
; File C:\Program Files\Microsoft Visual Studio\2022\Professional\VC\Tools\MSVC\14.44.35207\atlmfc\include\cstringt.h
; File C:\Program Files\Microsoft Visual Studio\2022\Professional\VC\Tools\MSVC\14.44.35207\atlmfc\include\atlsimpstr.h
; File C:\Program Files\Microsoft Visual Studio\2022\Professional\VC\Tools\MSVC\14.44.35207\atlmfc\include\cstringt.h
; File C:\Program Files\Microsoft Visual Studio\2022\Professional\VC\Tools\MSVC\14.44.35207\atlmfc\include\atlsimpstr.h
; File C:\Program Files\Microsoft Visual Studio\2022\Professional\VC\Tools\MSVC\14.44.35207\atlmfc\include\cstringt.h
;	COMDAT ?LoadStringA@?$CStringT@DV?$StrTraitMFC@DV?$ChTraitsCRT@D@ATL@@@@@ATL@@QAEHI@Z
_TEXT	SEGMENT
_this$1$ = -4						; size = 4
_nID$ = 8						; size = 4
_hResource$1$ = 8					; size = 4
?LoadStringA@?$CStringT@DV?$StrTraitMFC@DV?$ChTraitsCRT@D@ATL@@@@@ATL@@QAEHI@Z PROC ; ATL::CStringT<char,StrTraitMFC<char,ATL::ChTraitsCRT<char> > >::LoadStringA, COMDAT
; _this$ = ecx

; 2340 : 	{

  00000	55		 push	 ebp
  00001	8b ec		 mov	 ebp, esp
  00003	51		 push	 ecx
  00004	53		 push	 ebx
  00005	57		 push	 edi
; File C:\Program Files\Microsoft Visual Studio\2022\Professional\VC\Tools\MSVC\14.44.35207\atlmfc\include\afxstr.h

; 51   : 		return( AfxFindStringResourceHandle( nID ) );

  00006	8b 7d 08	 mov	 edi, DWORD PTR _nID$[ebp]
  00009	57		 push	 edi
; File C:\Program Files\Microsoft Visual Studio\2022\Professional\VC\Tools\MSVC\14.44.35207\atlmfc\include\cstringt.h

; 2340 : 	{

  0000a	89 4d fc	 mov	 DWORD PTR _this$1$[ebp], ecx
; File C:\Program Files\Microsoft Visual Studio\2022\Professional\VC\Tools\MSVC\14.44.35207\atlmfc\include\afxstr.h

; 51   : 		return( AfxFindStringResourceHandle( nID ) );

  0000d	e8 00 00 00 00	 call	 ?AfxFindStringResourceHandle@@YGPAUHINSTANCE__@@I@Z ; AfxFindStringResourceHandle
; File C:\Program Files\Microsoft Visual Studio\2022\Professional\VC\Tools\MSVC\14.44.35207\atlmfc\include\cstringt.h

; 2341 : 		HINSTANCE hInstance = StringTraits::FindStringResourceInstance( nID );

  00012	8b d8		 mov	 ebx, eax

; 2342 : 		if( hInstance == NULL )

  00014	85 db		 test	 ebx, ebx
  00016	75 08		 jne	 SHORT $LN2@LoadString

; 2348 : 	}

  00018	5f		 pop	 edi
  00019	5b		 pop	 ebx
  0001a	8b e5		 mov	 esp, ebp
  0001c	5d		 pop	 ebp
  0001d	c2 04 00	 ret	 4
$LN2@LoadString:
; File C:\Program Files\Microsoft Visual Studio\2022\Professional\VC\Tools\MSVC\14.44.35207\atlmfc\include\atlcore.h

; 380  : 	hResource = ::FindResourceW(hInstance, MAKEINTRESOURCEW( (((id>>4)+1) & static_cast<WORD>(~0)) ), (LPWSTR) RT_STRING);

  00020	8b c7		 mov	 eax, edi
  00022	c1 e8 04	 shr	 eax, 4
  00025	56		 push	 esi
  00026	40		 inc	 eax
  00027	6a 06		 push	 6
  00029	0f b7 c0	 movzx	 eax, ax
  0002c	50		 push	 eax
  0002d	53		 push	 ebx
  0002e	ff 15 00 00 00
	00		 call	 DWORD PTR __imp__FindResourceW@12
  00034	89 45 08	 mov	 DWORD PTR _hResource$1$[ebp], eax

; 381  : 	if( hResource == NULL )

  00037	85 c0		 test	 eax, eax
  00039	0f 84 cc 00 00
	00		 je	 $LN51@LoadString

; 338  : 	hGlobal = ::LoadResource( hInstance, hResource );

  0003f	50		 push	 eax
  00040	53		 push	 ebx
  00041	ff 15 00 00 00
	00		 call	 DWORD PTR __imp__LoadResource@8

; 339  : 	if( hGlobal == NULL )

  00047	85 c0		 test	 eax, eax
  00049	75 04		 jne	 SHORT $LN15@LoadString

; 340  : 	{
; 341  : 		return( NULL );

  0004b	33 f6		 xor	 esi, esi
  0004d	eb 43		 jmp	 SHORT $LN18@LoadString
$LN15@LoadString:

; 342  : 	}
; 343  : 
; 344  : 	pImage = (const ATLSTRINGRESOURCEIMAGE*)::LockResource( hGlobal );

  0004f	50		 push	 eax
  00050	ff 15 00 00 00
	00		 call	 DWORD PTR __imp__LockResource@4
  00056	8b f0		 mov	 esi, eax

; 345  : 	if( pImage == NULL )

  00058	85 f6		 test	 esi, esi
  0005a	74 36		 je	 SHORT $LN18@LoadString
$LN16@LoadString:

; 346  : 	{
; 347  : 		return( NULL );
; 348  : 	}
; 349  : 
; 350  : 	nResourceSize = ::SizeofResource( hInstance, hResource );

  0005c	ff 75 08	 push	 DWORD PTR _hResource$1$[ebp]
  0005f	53		 push	 ebx
  00060	ff 15 00 00 00
	00		 call	 DWORD PTR __imp__SizeofResource@8

; 351  : 	pImageEnd = (const ATLSTRINGRESOURCEIMAGE*)(LPBYTE( pImage )+nResourceSize);

  00066	8d 0c 06	 lea	 ecx, DWORD PTR [esi+eax]

; 352  : 	iIndex = id&0x000f;

  00069	83 e7 0f	 and	 edi, 15			; 0000000fH

; 353  : 
; 354  : 	while( (iIndex > 0) && (pImage < pImageEnd) )

  0006c	76 14		 jbe	 SHORT $LN14@LoadString
  0006e	66 90		 npad	 2
$LL13@LoadString:
  00070	3b f1		 cmp	 esi, ecx
  00072	73 12		 jae	 SHORT $LN50@LoadString

; 355  : 	{
; 356  : 		pImage = (const ATLSTRINGRESOURCEIMAGE*)(LPBYTE( pImage )+(sizeof( ATLSTRINGRESOURCEIMAGE )+(pImage->nLength*sizeof( WCHAR ))));

  00074	0f b7 06	 movzx	 eax, WORD PTR [esi]
  00077	8d 34 46	 lea	 esi, DWORD PTR [esi+eax*2]
  0007a	83 c6 02	 add	 esi, 2

; 357  : 		iIndex--;

  0007d	83 ef 01	 sub	 edi, 1
  00080	75 ee		 jne	 SHORT $LL13@LoadString
$LN14@LoadString:

; 358  : 	}
; 359  : 	if( pImage >= pImageEnd )

  00082	3b f1		 cmp	 esi, ecx
  00084	72 04		 jb	 SHORT $LN17@LoadString
$LN50@LoadString:

; 360  : 	{
; 361  : 		return( NULL );

  00086	33 f6		 xor	 esi, esi
  00088	eb 08		 jmp	 SHORT $LN18@LoadString
$LN17@LoadString:

; 362  : 	}
; 363  : 	if( pImage->nLength == 0 )

  0008a	33 c0		 xor	 eax, eax
  0008c	66 39 06	 cmp	 WORD PTR [esi], ax
  0008f	0f 44 f0	 cmove	 esi, eax
$LN18@LoadString:
; File C:\Program Files\Microsoft Visual Studio\2022\Professional\VC\Tools\MSVC\14.44.35207\atlmfc\include\cstringt.h

; 2356 : 		if( pImage == NULL )

  00092	85 f6		 test	 esi, esi
  00094	74 75		 je	 SHORT $LN51@LoadString

; 2359 : 		}
; 2360 : 
; 2361 : 		int nLength = StringTraits::GetBaseTypeLength( pImage->achString, pImage->nLength );

  00096	0f b7 06	 movzx	 eax, WORD PTR [esi]
  00099	8d 4e 02	 lea	 ecx, DWORD PTR [esi+2]

; 350  : 		return ::WideCharToMultiByte( _AtlGetConversionACP(), 0, pszSource, nLength, NULL, 0, NULL, NULL );

  0009c	6a 00		 push	 0
  0009e	6a 00		 push	 0
  000a0	6a 00		 push	 0
  000a2	6a 00		 push	 0
  000a4	50		 push	 eax
  000a5	51		 push	 ecx
  000a6	6a 00		 push	 0
  000a8	6a 03		 push	 3
  000aa	ff 15 00 00 00
	00		 call	 DWORD PTR __imp__WideCharToMultiByte@32

; 2361 : 		int nLength = StringTraits::GetBaseTypeLength( pImage->achString, pImage->nLength );

  000b0	8b f8		 mov	 edi, eax
; File C:\Program Files\Microsoft Visual Studio\2022\Professional\VC\Tools\MSVC\14.44.35207\atlmfc\include\atlsimpstr.h

; 808  : 		if (nLength < 0)

  000b2	85 ff		 test	 edi, edi
  000b4	78 60		 js	 SHORT $LN38@LoadString

; 804  : 		return( reinterpret_cast< CStringData* >( m_pszData )-1 );

  000b6	8b 5d fc	 mov	 ebx, DWORD PTR _this$1$[ebp]

; 812  : 		int nShared = 1-pOldData->nRefs;  // nShared < 0 means true, >= 0 means false

  000b9	ba 01 00 00 00	 mov	 edx, 1

; 804  : 		return( reinterpret_cast< CStringData* >( m_pszData )-1 );

  000be	8b 0b		 mov	 ecx, DWORD PTR [ebx]

; 812  : 		int nShared = 1-pOldData->nRefs;  // nShared < 0 means true, >= 0 means false

  000c0	2b 51 fc	 sub	 edx, DWORD PTR [ecx-4]

; 813  : 		int nTooShort = pOldData->nAllocLength-nLength;  // nTooShort < 0 means true, >= 0 means false

  000c3	8b 49 f8	 mov	 ecx, DWORD PTR [ecx-8]
  000c6	2b cf		 sub	 ecx, edi

; 814  : 		if( (nShared|nTooShort) < 0 )  // If either sign bit is set (i.e. either is less than zero), we need to copy data

  000c8	0b d1		 or	 edx, ecx
  000ca	7d 08		 jge	 SHORT $LN26@LoadString

; 815  : 		{
; 816  : 			PrepareWrite2( nLength );

  000cc	57		 push	 edi
  000cd	8b cb		 mov	 ecx, ebx
  000cf	e8 00 00 00 00	 call	 ?PrepareWrite2@?$CSimpleStringT@D$0A@@ATL@@AAEXH@Z ; ATL::CSimpleStringT<char,0>::PrepareWrite2
$LN26@LoadString:
; File C:\Program Files\Microsoft Visual Studio\2022\Professional\VC\Tools\MSVC\14.44.35207\atlmfc\include\cstringt.h

; 2363 : 		StringTraits::ConvertToBaseType( pszBuffer, nLength, pImage->achString, pImage->nLength );

  000d4	0f b7 06	 movzx	 eax, WORD PTR [esi]

; 372  : 		::WideCharToMultiByte( _AtlGetConversionACP(), 0, pszSrc, nSrcLength, pszDest, nDestLength, NULL, NULL );

  000d7	6a 00		 push	 0
  000d9	6a 00		 push	 0
  000db	57		 push	 edi
  000dc	ff 33		 push	 DWORD PTR [ebx]
  000de	50		 push	 eax
  000df	8d 46 02	 lea	 eax, DWORD PTR [esi+2]
  000e2	50		 push	 eax
  000e3	6a 00		 push	 0
  000e5	6a 03		 push	 3
  000e7	ff 15 00 00 00
	00		 call	 DWORD PTR __imp__WideCharToMultiByte@32
; File C:\Program Files\Microsoft Visual Studio\2022\Professional\VC\Tools\MSVC\14.44.35207\atlmfc\include\atlsimpstr.h

; 875  : 		if( nLength < 0 || nLength > GetData()->nAllocLength)

  000ed	8b 03		 mov	 eax, DWORD PTR [ebx]
  000ef	3b 78 f8	 cmp	 edi, DWORD PTR [eax-8]
  000f2	7f 22		 jg	 SHORT $LN38@LoadString

; 877  : 
; 878  : 		GetData()->nDataLength = nLength;

  000f4	89 78 f4	 mov	 DWORD PTR [eax-12], edi

; 879  : 		m_pszData[nLength] = 0;

  000f7	8b 03		 mov	 eax, DWORD PTR [ebx]
; File C:\Program Files\Microsoft Visual Studio\2022\Professional\VC\Tools\MSVC\14.44.35207\atlmfc\include\cstringt.h

; 2347 : 		return( LoadString( hInstance, nID ) );

  000f9	5e		 pop	 esi
; File C:\Program Files\Microsoft Visual Studio\2022\Professional\VC\Tools\MSVC\14.44.35207\atlmfc\include\atlsimpstr.h

; 879  : 		m_pszData[nLength] = 0;

  000fa	c6 04 07 00	 mov	 BYTE PTR [edi+eax], 0
; File C:\Program Files\Microsoft Visual Studio\2022\Professional\VC\Tools\MSVC\14.44.35207\atlmfc\include\cstringt.h

; 2366 : 		return( TRUE );

  000fe	b8 01 00 00 00	 mov	 eax, 1
  00103	5f		 pop	 edi

; 2348 : 	}

  00104	5b		 pop	 ebx
  00105	8b e5		 mov	 esp, ebp
  00107	5d		 pop	 ebp
  00108	c2 04 00	 ret	 4
$LN51@LoadString:

; 2347 : 		return( LoadString( hInstance, nID ) );

  0010b	5e		 pop	 esi
  0010c	5f		 pop	 edi

; 2358 : 			return( FALSE );

  0010d	33 c0		 xor	 eax, eax

; 2348 : 	}

  0010f	5b		 pop	 ebx
  00110	8b e5		 mov	 esp, ebp
  00112	5d		 pop	 ebp
  00113	c2 04 00	 ret	 4
$LN38@LoadString:
; File C:\Program Files\Microsoft Visual Studio\2022\Professional\VC\Tools\MSVC\14.44.35207\atlmfc\include\atlsimpstr.h

; 876  : 			AtlThrow(E_INVALIDARG);

  00116	68 57 00 07 80	 push	 -2147024809		; 80070057H
  0011b	e8 00 00 00 00	 call	 ?AtlThrowImpl@ATL@@YGXJ@Z ; ATL::AtlThrowImpl
$LN63@LoadString:
  00120	cc		 int	 3
?LoadStringA@?$CStringT@DV?$StrTraitMFC@DV?$ChTraitsCRT@D@ATL@@@@@ATL@@QAEHI@Z ENDP ; ATL::CStringT<char,StrTraitMFC<char,ATL::ChTraitsCRT<char> > >::LoadStringA
_TEXT	ENDS
; Function compile flags: /Ogtp
; File C:\Program Files\Microsoft Visual Studio\2022\Professional\VC\Tools\MSVC\14.44.35207\atlmfc\include\cstringt.h
; File C:\Program Files\Microsoft Visual Studio\2022\Professional\VC\Tools\MSVC\14.44.35207\atlmfc\include\atlsimpstr.h
; File C:\Program Files\Microsoft Visual Studio\2022\Professional\VC\Tools\MSVC\14.44.35207\atlmfc\include\cstringt.h
;	COMDAT ??1?$CStringT@DV?$StrTraitMFC@DV?$ChTraitsCRT@D@ATL@@@@@ATL@@QAE@XZ
_TEXT	SEGMENT
??1?$CStringT@DV?$StrTraitMFC@DV?$ChTraitsCRT@D@ATL@@@@@ATL@@QAE@XZ PROC ; ATL::CStringT<char,StrTraitMFC<char,ATL::ChTraitsCRT<char> > >::~CStringT<char,StrTraitMFC<char,ATL::ChTraitsCRT<char> > >, COMDAT
; _this$ = ecx
; File C:\Program Files\Microsoft Visual Studio\2022\Professional\VC\Tools\MSVC\14.44.35207\atlmfc\include\atlsimpstr.h

; 804  : 		return( reinterpret_cast< CStringData* >( m_pszData )-1 );

  00000	8b 11		 mov	 edx, DWORD PTR [ecx]

; 92   : 		if( _InterlockedDecrement( &nRefs ) <= 0 )

  00002	83 c8 ff	 or	 eax, -1

; 804  : 		return( reinterpret_cast< CStringData* >( m_pszData )-1 );

  00005	83 ea 10	 sub	 edx, 16			; 00000010H

; 92   : 		if( _InterlockedDecrement( &nRefs ) <= 0 )

  00008	f0 0f c1 42 0c	 lock	  xadd	 DWORD PTR [edx+12], eax
  0000d	48		 dec	 eax
  0000e	85 c0		 test	 eax, eax
  00010	7f 08		 jg	 SHORT $LN8@CStringT

; 93   : 		{
; 94   : 			pStringMgr->Free( this );

  00012	8b 0a		 mov	 ecx, DWORD PTR [edx]
  00014	52		 push	 edx
  00015	8b 01		 mov	 eax, DWORD PTR [ecx]
  00017	ff 50 04	 call	 DWORD PTR [eax+4]
$LN8@CStringT:
; File C:\Program Files\Microsoft Visual Studio\2022\Professional\VC\Tools\MSVC\14.44.35207\atlmfc\include\cstringt.h

; 1303 : 	}

  0001a	c3		 ret	 0
??1?$CStringT@DV?$StrTraitMFC@DV?$ChTraitsCRT@D@ATL@@@@@ATL@@QAE@XZ ENDP ; ATL::CStringT<char,StrTraitMFC<char,ATL::ChTraitsCRT<char> > >::~CStringT<char,StrTraitMFC<char,ATL::ChTraitsCRT<char> > >
_TEXT	ENDS
; Function compile flags: /Ogtp
; File C:\Program Files\Microsoft Visual Studio\2022\Professional\VC\Tools\MSVC\14.44.35207\atlmfc\include\atlsimpstr.h
;	COMDAT ?Reallocate@?$CSimpleStringT@D$0A@@ATL@@AAEXH@Z
_TEXT	SEGMENT
_nLength$ = 8						; size = 4
?Reallocate@?$CSimpleStringT@D$0A@@ATL@@AAEXH@Z PROC	; ATL::CSimpleStringT<char,0>::Reallocate, COMDAT
; _this$ = ecx

; 853  : 	{

  00000	55		 push	 ebp
  00001	8b ec		 mov	 ebp, esp
  00003	56		 push	 esi

; 854  : 		CStringData* pOldData = GetData();
; 855  : 		ATLASSERT( pOldData->nAllocLength < nLength );
; 856  : 		IAtlStringMgr* pStringMgr = pOldData->pStringMgr;
; 857  : 		if ( pOldData->nAllocLength >= nLength || nLength <= 0)

  00004	8b 75 08	 mov	 esi, DWORD PTR _nLength$[ebp]
  00007	57		 push	 edi
  00008	8b f9		 mov	 edi, ecx

; 804  : 		return( reinterpret_cast< CStringData* >( m_pszData )-1 );

  0000a	8b 17		 mov	 edx, DWORD PTR [edi]
  0000c	83 ea 10	 sub	 edx, 16			; 00000010H

; 854  : 		CStringData* pOldData = GetData();
; 855  : 		ATLASSERT( pOldData->nAllocLength < nLength );
; 856  : 		IAtlStringMgr* pStringMgr = pOldData->pStringMgr;
; 857  : 		if ( pOldData->nAllocLength >= nLength || nLength <= 0)

  0000f	39 72 08	 cmp	 DWORD PTR [edx+8], esi
  00012	7d 1e		 jge	 SHORT $LN3@Reallocate
  00014	85 f6		 test	 esi, esi
  00016	7e 1a		 jle	 SHORT $LN3@Reallocate

; 860  : 			return;
; 861  : 		}
; 862  : 		CStringData* pNewData = pStringMgr->Reallocate( pOldData, nLength, sizeof( XCHAR ) );

  00018	8b 0a		 mov	 ecx, DWORD PTR [edx]
  0001a	6a 01		 push	 1
  0001c	56		 push	 esi
  0001d	52		 push	 edx
  0001e	8b 01		 mov	 eax, DWORD PTR [ecx]
  00020	ff 50 08	 call	 DWORD PTR [eax+8]

; 863  : 		if( pNewData == NULL )

  00023	85 c0		 test	 eax, eax
  00025	74 0b		 je	 SHORT $LN3@Reallocate

; 864  : 		{
; 865  : 			ThrowMemoryException();
; 866  : 		}
; 867  : 		Attach( pNewData );

  00027	83 c0 10	 add	 eax, 16			; 00000010H
  0002a	89 07		 mov	 DWORD PTR [edi], eax
  0002c	5f		 pop	 edi
  0002d	5e		 pop	 esi

; 868  : 	}

  0002e	5d		 pop	 ebp
  0002f	c2 04 00	 ret	 4
$LN3@Reallocate:

; 858  : 		{
; 859  : 			ThrowMemoryException();

  00032	e8 00 00 00 00	 call	 ?ThrowMemoryException@?$CSimpleStringT@D$0A@@ATL@@KAXXZ ; ATL::CSimpleStringT<char,0>::ThrowMemoryException
$LN12@Reallocate:
  00037	cc		 int	 3
?Reallocate@?$CSimpleStringT@D$0A@@ATL@@AAEXH@Z ENDP	; ATL::CSimpleStringT<char,0>::Reallocate
_TEXT	ENDS
; Function compile flags: /Ogtp
; File C:\Program Files\Microsoft Visual Studio\2022\Professional\VC\Tools\MSVC\14.44.35207\atlmfc\include\atlsimpstr.h
;	COMDAT ?PrepareWrite2@?$CSimpleStringT@D$0A@@ATL@@AAEXH@Z
_TEXT	SEGMENT
_nLength$ = 8						; size = 4
?PrepareWrite2@?$CSimpleStringT@D$0A@@ATL@@AAEXH@Z PROC	; ATL::CSimpleStringT<char,0>::PrepareWrite2, COMDAT
; _this$ = ecx

; 822  : 	{

  00000	55		 push	 ebp
  00001	8b ec		 mov	 ebp, esp
  00003	56		 push	 esi

; 823  : 		CStringData* pOldData = GetData();
; 824  : 		if( pOldData->nDataLength > nLength )

  00004	8b 75 08	 mov	 esi, DWORD PTR _nLength$[ebp]
  00007	57		 push	 edi
  00008	8b f9		 mov	 edi, ecx

; 804  : 		return( reinterpret_cast< CStringData* >( m_pszData )-1 );

  0000a	8b 0f		 mov	 ecx, DWORD PTR [edi]

; 823  : 		CStringData* pOldData = GetData();
; 824  : 		if( pOldData->nDataLength > nLength )

  0000c	39 71 f4	 cmp	 DWORD PTR [ecx-12], esi
  0000f	0f 4f 71 f4	 cmovg	 esi, DWORD PTR [ecx-12]

; 77   : 		return( nRefs > 1 );

  00013	83 79 fc 01	 cmp	 DWORD PTR [ecx-4], 1

; 825  : 		{
; 826  : 			nLength = pOldData->nDataLength;
; 827  : 		}
; 828  : 		if( pOldData->IsShared() )

  00017	7e 0e		 jle	 SHORT $LN3@PrepareWri

; 829  : 		{
; 830  : 			Fork( nLength );

  00019	56		 push	 esi
  0001a	8b cf		 mov	 ecx, edi
  0001c	e8 00 00 00 00	 call	 ?Fork@?$CSimpleStringT@D$0A@@ATL@@AAEXH@Z ; ATL::CSimpleStringT<char,0>::Fork
  00021	5f		 pop	 edi

; 850  : 		}
; 851  : 	}

  00022	5e		 pop	 esi
  00023	5d		 pop	 ebp
  00024	c2 04 00	 ret	 4
$LN3@PrepareWri:

; 831  : 		}
; 832  : 		else if( pOldData->nAllocLength < nLength )

  00027	8b 49 f8	 mov	 ecx, DWORD PTR [ecx-8]
  0002a	3b ce		 cmp	 ecx, esi
  0002c	7d 25		 jge	 SHORT $LN5@PrepareWri

; 833  : 		{
; 834  : 			// Grow exponentially, until we hit 1G, then by 1M thereafter.
; 835  : 			int nNewLength = pOldData->nAllocLength;
; 836  : 			if( nNewLength > 1024 * 1024 * 1024 )

  0002e	81 f9 00 00 00
	40		 cmp	 ecx, 1073741824		; 40000000H
  00034	7e 07		 jle	 SHORT $LN6@PrepareWri

; 837  : 			{
; 838  : 				nNewLength += 1024 * 1024;

  00036	b8 00 00 10 00	 mov	 eax, 1048576		; 00100000H

; 839  : 			}

  0003b	eb 07		 jmp	 SHORT $LN7@PrepareWri
$LN6@PrepareWri:

; 840  : 			else
; 841  : 			{
; 842  : 				// Exponential growth factor is 1.5.
; 843  : 				nNewLength = nNewLength + nNewLength / 2;

  0003d	8b c1		 mov	 eax, ecx
  0003f	99		 cdq
  00040	2b c2		 sub	 eax, edx
  00042	d1 f8		 sar	 eax, 1
$LN7@PrepareWri:

; 844  : 			}
; 845  : 			if( nNewLength < nLength )

  00044	03 c1		 add	 eax, ecx

; 846  : 			{
; 847  : 				nNewLength = nLength;
; 848  : 			}
; 849  : 			Reallocate( nNewLength );

  00046	8b cf		 mov	 ecx, edi
  00048	3b c6		 cmp	 eax, esi
  0004a	0f 4d f0	 cmovge	 esi, eax
  0004d	56		 push	 esi
  0004e	e8 00 00 00 00	 call	 ?Reallocate@?$CSimpleStringT@D$0A@@ATL@@AAEXH@Z ; ATL::CSimpleStringT<char,0>::Reallocate
$LN5@PrepareWri:

; 850  : 		}
; 851  : 	}

  00053	5f		 pop	 edi
  00054	5e		 pop	 esi
  00055	5d		 pop	 ebp
  00056	c2 04 00	 ret	 4
?PrepareWrite2@?$CSimpleStringT@D$0A@@ATL@@AAEXH@Z ENDP	; ATL::CSimpleStringT<char,0>::PrepareWrite2
_TEXT	ENDS
; Function compile flags: /Ogtp
; File C:\Program Files\Microsoft Visual Studio\2022\Professional\VC\Tools\MSVC\14.44.35207\atlmfc\include\atlsimpstr.h
; File C:\Program Files (x86)\Windows Kits\10\Include\10.0.26100.0\ucrt\corecrt_memcpy_s.h
; File C:\Program Files\Microsoft Visual Studio\2022\Professional\VC\Tools\MSVC\14.44.35207\atlmfc\include\atlsimpstr.h
;	COMDAT ?Fork@?$CSimpleStringT@D$0A@@ATL@@AAEXH@Z
_TEXT	SEGMENT
_this$1$ = -12						; size = 4
_nOldLength$1$ = -8					; size = 4
__Source$1$ = -4					; size = 4
_nLength$ = 8						; size = 4
_pNewData$1$ = 8					; size = 4
?Fork@?$CSimpleStringT@D$0A@@ATL@@AAEXH@Z PROC		; ATL::CSimpleStringT<char,0>::Fork, COMDAT
; _this$ = ecx

; 787  : 	{

  00000	55		 push	 ebp
  00001	8b ec		 mov	 ebp, esp
  00003	83 ec 0c	 sub	 esp, 12			; 0000000cH
  00006	8b c1		 mov	 eax, ecx
  00008	89 45 f4	 mov	 DWORD PTR _this$1$[ebp], eax
  0000b	53		 push	 ebx
  0000c	56		 push	 esi

; 804  : 		return( reinterpret_cast< CStringData* >( m_pszData )-1 );

  0000d	8b 00		 mov	 eax, DWORD PTR [eax]

; 790  : 		CStringData* pNewData = pOldData->pStringMgr->Clone()->Allocate( nLength, sizeof( XCHAR ) );

  0000f	8b 48 f0	 mov	 ecx, DWORD PTR [eax-16]

; 804  : 		return( reinterpret_cast< CStringData* >( m_pszData )-1 );

  00012	8d 58 f0	 lea	 ebx, DWORD PTR [eax-16]
  00015	89 45 fc	 mov	 DWORD PTR __Source$1$[ebp], eax

; 787  : 	{

  00018	57		 push	 edi

; 788  : 		CStringData* pOldData = GetData();
; 789  : 		int nOldLength = pOldData->nDataLength;

  00019	8b 7b 04	 mov	 edi, DWORD PTR [ebx+4]

; 790  : 		CStringData* pNewData = pOldData->pStringMgr->Clone()->Allocate( nLength, sizeof( XCHAR ) );

  0001c	8b 01		 mov	 eax, DWORD PTR [ecx]
  0001e	89 7d f8	 mov	 DWORD PTR _nOldLength$1$[ebp], edi
  00021	ff 50 10	 call	 DWORD PTR [eax+16]
  00024	8b 75 08	 mov	 esi, DWORD PTR _nLength$[ebp]
  00027	8b c8		 mov	 ecx, eax
  00029	6a 01		 push	 1
  0002b	56		 push	 esi
  0002c	8b 10		 mov	 edx, DWORD PTR [eax]
  0002e	ff 12		 call	 DWORD PTR [edx]
  00030	89 45 08	 mov	 DWORD PTR _pNewData$1$[ebp], eax

; 791  : 		if( pNewData == NULL )

  00033	85 c0		 test	 eax, eax
  00035	74 6c		 je	 SHORT $LN25@Fork

; 794  : 		}
; 795  : 		int nCharsToCopy = ((nOldLength < nLength) ? nOldLength : nLength)+1;  // Copy '\0'

  00037	3b fe		 cmp	 edi, esi
  00039	0f 4c f7	 cmovl	 esi, edi

; 796  : 		memcpy_s( PXSTR( pNewData->data() ), nCharsToCopy * sizeof( XCHAR ),

  0003c	8d 78 10	 lea	 edi, DWORD PTR [eax+16]
  0003f	83 c6 01	 add	 esi, 1
; File C:\Program Files (x86)\Windows Kits\10\Include\10.0.26100.0\ucrt\corecrt_memcpy_s.h

; 47   :         if (_SourceSize == 0)

  00042	74 33		 je	 SHORT $LN11@Fork

; 48   :         {
; 49   :             return 0;
; 50   :         }
; 51   : 
; 52   :         _CRT_MEMCPY_S_VALIDATE_RETURN_ERRCODE(_Destination != NULL, EINVAL);

  00044	85 ff		 test	 edi, edi
  00046	74 1f		 je	 SHORT $LN23@Fork

; 53   :         if (_Source == NULL || _DestinationSize < _SourceSize)

  00048	8b 45 fc	 mov	 eax, DWORD PTR __Source$1$[ebp]
  0004b	56		 push	 esi
  0004c	85 c0		 test	 eax, eax
  0004e	74 0c		 je	 SHORT $LN10@Fork

; 56   : 
; 57   :             _CRT_MEMCPY_S_VALIDATE_RETURN_ERRCODE(_Source != NULL,                 EINVAL);
; 58   :             _CRT_MEMCPY_S_VALIDATE_RETURN_ERRCODE(_DestinationSize >= _SourceSize, ERANGE);
; 59   : 
; 60   :             // Unreachable, but required to suppress /analyze warnings:
; 61   :             return EINVAL;
; 62   :         }
; 63   :         memcpy(_Destination, _Source, _SourceSize);

  00050	50		 push	 eax
  00051	57		 push	 edi
  00052	e8 00 00 00 00	 call	 _memcpy
  00057	83 c4 0c	 add	 esp, 12			; 0000000cH
  0005a	eb 1b		 jmp	 SHORT $LN11@Fork
$LN10@Fork:

; 54   :         {
; 55   :             memset(_Destination, 0, _DestinationSize);

  0005c	6a 00		 push	 0
  0005e	57		 push	 edi
  0005f	e8 00 00 00 00	 call	 _memset
  00064	83 c4 0c	 add	 esp, 12			; 0000000cH
$LN23@Fork:
; File C:\Program Files\Microsoft Visual Studio\2022\Professional\VC\Tools\MSVC\14.44.35207\atlmfc\include\atlsimpstr.h

; 798  : 		pNewData->nDataLength = nOldLength;

  00067	e8 00 00 00 00	 call	 __errno
  0006c	c7 00 16 00 00
	00		 mov	 DWORD PTR [eax], 22	; 00000016H
  00072	e8 00 00 00 00	 call	 __invalid_parameter_noinfo
$LN11@Fork:
  00077	8b 4d 08	 mov	 ecx, DWORD PTR _pNewData$1$[ebp]
  0007a	8b 45 f8	 mov	 eax, DWORD PTR _nOldLength$1$[ebp]
  0007d	89 41 04	 mov	 DWORD PTR [ecx+4], eax

; 92   : 		if( _InterlockedDecrement( &nRefs ) <= 0 )

  00080	83 c8 ff	 or	 eax, -1
  00083	f0 0f c1 43 0c	 lock	  xadd	 DWORD PTR [ebx+12], eax
  00088	48		 dec	 eax
  00089	85 c0		 test	 eax, eax
  0008b	7f 08		 jg	 SHORT $LN15@Fork

; 93   : 		{
; 94   : 			pStringMgr->Free( this );

  0008d	8b 0b		 mov	 ecx, DWORD PTR [ebx]
  0008f	53		 push	 ebx
  00090	8b 01		 mov	 eax, DWORD PTR [ecx]
  00092	ff 50 04	 call	 DWORD PTR [eax+4]
$LN15@Fork:

; 799  : 		pOldData->Release();
; 800  : 		Attach( pNewData );

  00095	8b 45 f4	 mov	 eax, DWORD PTR _this$1$[ebp]
  00098	89 38		 mov	 DWORD PTR [eax], edi

; 801  : 	}

  0009a	5f		 pop	 edi
  0009b	5e		 pop	 esi
  0009c	5b		 pop	 ebx
  0009d	8b e5		 mov	 esp, ebp
  0009f	5d		 pop	 ebp
  000a0	c2 04 00	 ret	 4
$LN25@Fork:

; 792  : 		{
; 793  : 			ThrowMemoryException();

  000a3	e8 00 00 00 00	 call	 ?ThrowMemoryException@?$CSimpleStringT@D$0A@@ATL@@KAXXZ ; ATL::CSimpleStringT<char,0>::ThrowMemoryException
$LN22@Fork:
  000a8	cc		 int	 3
?Fork@?$CSimpleStringT@D$0A@@ATL@@AAEXH@Z ENDP		; ATL::CSimpleStringT<char,0>::Fork
_TEXT	ENDS
; Function compile flags: /Ogtp
; File C:\Program Files\Microsoft Visual Studio\2022\Professional\VC\Tools\MSVC\14.44.35207\atlmfc\include\atlsimpstr.h
;	COMDAT ?ThrowMemoryException@?$CSimpleStringT@D$0A@@ATL@@KAXXZ
_TEXT	SEGMENT
?ThrowMemoryException@?$CSimpleStringT@D$0A@@ATL@@KAXXZ PROC ; ATL::CSimpleStringT<char,0>::ThrowMemoryException, COMDAT

; 777  : 		AtlThrow( E_OUTOFMEMORY );

  00000	68 0e 00 07 80	 push	 -2147024882		; 8007000eH
  00005	e8 00 00 00 00	 call	 ?AtlThrowImpl@ATL@@YGXJ@Z ; ATL::AtlThrowImpl
$LN3@ThrowMemor:
  0000a	cc		 int	 3
?ThrowMemoryException@?$CSimpleStringT@D$0A@@ATL@@KAXXZ ENDP ; ATL::CSimpleStringT<char,0>::ThrowMemoryException
_TEXT	ENDS
; Function compile flags: /Ogtp
; File C:\Program Files\Microsoft Visual Studio\2022\Professional\VC\Tools\MSVC\14.44.35207\atlmfc\include\atlsimpstr.h
; File C:\Program Files (x86)\Windows Kits\10\Include\10.0.26100.0\ucrt\corecrt_memcpy_s.h
; File C:\Program Files\Microsoft Visual Studio\2022\Professional\VC\Tools\MSVC\14.44.35207\atlmfc\include\atlsimpstr.h
; File C:\Program Files (x86)\Windows Kits\10\Include\10.0.26100.0\ucrt\corecrt_memcpy_s.h
; File C:\Program Files\Microsoft Visual Studio\2022\Professional\VC\Tools\MSVC\14.44.35207\atlmfc\include\atlsimpstr.h
;	COMDAT ?SetString@?$CSimpleStringT@D$0A@@ATL@@QAEXPBDH@Z
_TEXT	SEGMENT
_pszSrc$ = 8						; size = 4
_nOldLength$1$ = 8					; size = 4
_nLength$ = 12						; size = 4
_nOffset$1$ = 12					; size = 4
?SetString@?$CSimpleStringT@D$0A@@ATL@@QAEXPBDH@Z PROC	; ATL::CSimpleStringT<char,0>::SetString, COMDAT
; _this$ = ecx

; 611  : 	{

  00000	55		 push	 ebp
  00001	8b ec		 mov	 ebp, esp
  00003	56		 push	 esi

; 612  : 		if( nLength == 0 )

  00004	8b 75 0c	 mov	 esi, DWORD PTR _nLength$[ebp]
  00007	57		 push	 edi
  00008	8b f9		 mov	 edi, ecx
  0000a	85 f6		 test	 esi, esi
  0000c	75 58		 jne	 SHORT $LN2@SetString

; 804  : 		return( reinterpret_cast< CStringData* >( m_pszData )-1 );

  0000e	8b 07		 mov	 eax, DWORD PTR [edi]

; 443  : 		if( pOldData->nDataLength == 0 )

  00010	83 78 f4 00	 cmp	 DWORD PTR [eax-12], 0

; 804  : 		return( reinterpret_cast< CStringData* >( m_pszData )-1 );

  00014	8d 50 f0	 lea	 edx, DWORD PTR [eax-16]

; 442  : 		IAtlStringMgr* pStringMgr = pOldData->pStringMgr;

  00017	8b 32		 mov	 esi, DWORD PTR [edx]

; 443  : 		if( pOldData->nDataLength == 0 )

  00019	74 1f		 je	 SHORT $LN72@SetString

; 73   : 		return nRefs < 0;

  0001b	83 7a 0c 00	 cmp	 DWORD PTR [edx+12], 0
  0001f	8d 4a 0c	 lea	 ecx, DWORD PTR [edx+12]

; 448  : 		if( pOldData->IsLocked() )

  00022	7d 1c		 jge	 SHORT $LN10@SetString

; 875  : 		if( nLength < 0 || nLength > GetData()->nAllocLength)

  00024	83 78 f8 00	 cmp	 DWORD PTR [eax-8], 0
  00028	0f 8c 0b 01 00
	00		 jl	 $LN71@SetString

; 877  : 
; 878  : 		GetData()->nDataLength = nLength;

  0002e	c7 40 f4 00 00
	00 00		 mov	 DWORD PTR [eax-12], 0

; 879  : 		m_pszData[nLength] = 0;

  00035	8b 07		 mov	 eax, DWORD PTR [edi]
  00037	c6 00 00	 mov	 BYTE PTR [eax], 0
$LN72@SetString:
  0003a	5f		 pop	 edi

; 638  : 			else
; 639  : 			{
; 640  : 				memcpy_s( pszBuffer, GetAllocLength() * sizeof( XCHAR ), pszSrc, nLength * sizeof( XCHAR ));
; 641  : 			}
; 642  : 			ReleaseBufferSetLength( nLength );
; 643  : 		}
; 644  : 	}

  0003b	5e		 pop	 esi
  0003c	5d		 pop	 ebp
  0003d	c2 08 00	 ret	 8
$LN10@SetString:

; 92   : 		if( _InterlockedDecrement( &nRefs ) <= 0 )

  00040	83 c8 ff	 or	 eax, -1
  00043	f0 0f c1 01	 lock	  xadd	 DWORD PTR [ecx], eax
  00047	48		 dec	 eax
  00048	85 c0		 test	 eax, eax
  0004a	7f 08		 jg	 SHORT $LN27@SetString

; 93   : 		{
; 94   : 			pStringMgr->Free( this );

  0004c	8b 0a		 mov	 ecx, DWORD PTR [edx]
  0004e	52		 push	 edx
  0004f	8b 01		 mov	 eax, DWORD PTR [ecx]
  00051	ff 50 04	 call	 DWORD PTR [eax+4]
$LN27@SetString:

; 456  : 			CStringData* pNewData = pStringMgr->GetNilString();

  00054	8b 06		 mov	 eax, DWORD PTR [esi]
  00056	8b ce		 mov	 ecx, esi
  00058	ff 50 0c	 call	 DWORD PTR [eax+12]

; 457  : 			Attach( pNewData );

  0005b	83 c0 10	 add	 eax, 16			; 00000010H
  0005e	89 07		 mov	 DWORD PTR [edi], eax
  00060	5f		 pop	 edi

; 638  : 			else
; 639  : 			{
; 640  : 				memcpy_s( pszBuffer, GetAllocLength() * sizeof( XCHAR ), pszSrc, nLength * sizeof( XCHAR ));
; 641  : 			}
; 642  : 			ReleaseBufferSetLength( nLength );
; 643  : 		}
; 644  : 	}

  00061	5e		 pop	 esi
  00062	5d		 pop	 ebp
  00063	c2 08 00	 ret	 8
$LN2@SetString:
  00066	53		 push	 ebx

; 613  : 		{
; 614  : 			Empty();
; 615  : 		}
; 616  : 		else
; 617  : 		{
; 618  : 			// It is possible that pszSrc points to a location inside of our
; 619  : 			// buffer.  GetBuffer() might change m_pszData if (1) the buffer
; 620  : 			// is shared or (2) the buffer is too small to hold the new
; 621  : 			// string.  We detect this aliasing, and modify pszSrc to point
; 622  : 			// into the newly allocated buffer instead.
; 623  : 
; 624  : 			if(pszSrc == NULL)

  00067	8b 5d 08	 mov	 ebx, DWORD PTR _pszSrc$[ebp]
  0006a	85 db		 test	 ebx, ebx
  0006c	0f 84 c7 00 00
	00		 je	 $LN71@SetString

; 523  : 		return( GetData()->nDataLength );

  00072	8b 07		 mov	 eax, DWORD PTR [edi]

; 625  : 				AtlThrow(E_INVALIDARG);
; 626  : 
; 627  : 			UINT nOldLength = GetLength();
; 628  : 			UINT_PTR nOffset = pszSrc-GetString();

  00074	8b d3		 mov	 edx, ebx
  00076	2b d0		 sub	 edx, eax
  00078	89 55 0c	 mov	 DWORD PTR _nOffset$1$[ebp], edx
  0007b	8b 48 f4	 mov	 ecx, DWORD PTR [eax-12]
  0007e	89 4d 08	 mov	 DWORD PTR _nOldLength$1$[ebp], ecx

; 808  : 		if (nLength < 0)

  00081	85 f6		 test	 esi, esi
  00083	0f 88 b0 00 00
	00		 js	 $LN71@SetString

; 809  : 			AtlThrow(E_INVALIDARG);
; 810  : 
; 811  : 		CStringData* pOldData = GetData();
; 812  : 		int nShared = 1-pOldData->nRefs;  // nShared < 0 means true, >= 0 means false

  00089	b9 01 00 00 00	 mov	 ecx, 1
  0008e	2b 48 fc	 sub	 ecx, DWORD PTR [eax-4]

; 813  : 		int nTooShort = pOldData->nAllocLength-nLength;  // nTooShort < 0 means true, >= 0 means false

  00091	8b 40 f8	 mov	 eax, DWORD PTR [eax-8]
  00094	2b c6		 sub	 eax, esi

; 814  : 		if( (nShared|nTooShort) < 0 )  // If either sign bit is set (i.e. either is less than zero), we need to copy data

  00096	0b c8		 or	 ecx, eax
  00098	7d 0b		 jge	 SHORT $LN38@SetString

; 815  : 		{
; 816  : 			PrepareWrite2( nLength );

  0009a	56		 push	 esi
  0009b	8b cf		 mov	 ecx, edi
  0009d	e8 00 00 00 00	 call	 ?PrepareWrite2@?$CSimpleStringT@D$0A@@ATL@@AAEXH@Z ; ATL::CSimpleStringT<char,0>::PrepareWrite2
  000a2	8b 55 0c	 mov	 edx, DWORD PTR _nOffset$1$[ebp]
$LN38@SetString:

; 629  : 			// If 0 <= nOffset <= nOldLength, then pszSrc points into our
; 630  : 			// buffer
; 631  : 
; 632  : 			PXSTR pszBuffer = GetBuffer( nLength );

  000a5	8b 07		 mov	 eax, DWORD PTR [edi]
  000a7	8b 48 f8	 mov	 ecx, DWORD PTR [eax-8]

; 633  : 			if( nOffset <= nOldLength )

  000aa	3b 55 08	 cmp	 edx, DWORD PTR _nOldLength$1$[ebp]
  000ad	77 35		 ja	 SHORT $LN5@SetString

; 634  : 			{
; 635  : 				CopyCharsOverlapped( pszBuffer, GetAllocLength(),

  000af	03 d0		 add	 edx, eax
; File C:\Program Files (x86)\Windows Kits\10\Include\10.0.26100.0\ucrt\corecrt_memcpy_s.h

; 81   :         _CRT_MEMCPY_S_VALIDATE_RETURN_ERRCODE(_Destination != NULL,            EINVAL);

  000b1	85 c0		 test	 eax, eax
  000b3	75 0d		 jne	 SHORT $LN51@SetString
  000b5	e8 00 00 00 00	 call	 __errno
  000ba	c7 00 16 00 00
	00		 mov	 DWORD PTR [eax], 22	; 00000016H
  000c0	eb 5b		 jmp	 SHORT $LN97@SetString
$LN51@SetString:

; 82   :         _CRT_MEMCPY_S_VALIDATE_RETURN_ERRCODE(_Source != NULL,                 EINVAL);

  000c2	85 d2		 test	 edx, edx
  000c4	75 0d		 jne	 SHORT $LN52@SetString
  000c6	e8 00 00 00 00	 call	 __errno
  000cb	c7 00 16 00 00
	00		 mov	 DWORD PTR [eax], 22	; 00000016H
  000d1	eb 4a		 jmp	 SHORT $LN97@SetString
$LN52@SetString:

; 83   :         _CRT_MEMCPY_S_VALIDATE_RETURN_ERRCODE(_DestinationSize >= _SourceSize, ERANGE);

  000d3	3b ce		 cmp	 ecx, esi
  000d5	72 3b		 jb	 SHORT $LN98@SetString

; 84   : 
; 85   :         memmove(_Destination, _Source, _SourceSize);

  000d7	56		 push	 esi
  000d8	52		 push	 edx
  000d9	50		 push	 eax
  000da	e8 00 00 00 00	 call	 _memmove
  000df	83 c4 0c	 add	 esp, 12			; 0000000cH
; File C:\Program Files\Microsoft Visual Studio\2022\Professional\VC\Tools\MSVC\14.44.35207\atlmfc\include\atlsimpstr.h

; 637  : 			}

  000e2	eb 3e		 jmp	 SHORT $LN65@SetString
$LN5@SetString:
; File C:\Program Files (x86)\Windows Kits\10\Include\10.0.26100.0\ucrt\corecrt_memcpy_s.h

; 52   :         _CRT_MEMCPY_S_VALIDATE_RETURN_ERRCODE(_Destination != NULL, EINVAL);

  000e4	85 c0		 test	 eax, eax
  000e6	75 0d		 jne	 SHORT $LN61@SetString
  000e8	e8 00 00 00 00	 call	 __errno
  000ed	c7 00 16 00 00
	00		 mov	 DWORD PTR [eax], 22	; 00000016H
  000f3	eb 28		 jmp	 SHORT $LN97@SetString
$LN61@SetString:

; 53   :         if (_Source == NULL || _DestinationSize < _SourceSize)

  000f5	3b ce		 cmp	 ecx, esi
  000f7	72 0d		 jb	 SHORT $LN63@SetString

; 56   : 
; 57   :             _CRT_MEMCPY_S_VALIDATE_RETURN_ERRCODE(_Source != NULL,                 EINVAL);
; 58   :             _CRT_MEMCPY_S_VALIDATE_RETURN_ERRCODE(_DestinationSize >= _SourceSize, ERANGE);
; 59   : 
; 60   :             // Unreachable, but required to suppress /analyze warnings:
; 61   :             return EINVAL;
; 62   :         }
; 63   :         memcpy(_Destination, _Source, _SourceSize);

  000f9	56		 push	 esi
  000fa	53		 push	 ebx
  000fb	50		 push	 eax
  000fc	e8 00 00 00 00	 call	 _memcpy
  00101	83 c4 0c	 add	 esp, 12			; 0000000cH
  00104	eb 1c		 jmp	 SHORT $LN65@SetString
$LN63@SetString:

; 54   :         {
; 55   :             memset(_Destination, 0, _DestinationSize);

  00106	51		 push	 ecx
  00107	6a 00		 push	 0
  00109	50		 push	 eax
  0010a	e8 00 00 00 00	 call	 _memset
  0010f	83 c4 0c	 add	 esp, 12			; 0000000cH
$LN98@SetString:
; File C:\Program Files\Microsoft Visual Studio\2022\Professional\VC\Tools\MSVC\14.44.35207\atlmfc\include\atlsimpstr.h

; 875  : 		if( nLength < 0 || nLength > GetData()->nAllocLength)

  00112	e8 00 00 00 00	 call	 __errno
  00117	c7 00 22 00 00
	00		 mov	 DWORD PTR [eax], 34	; 00000022H
$LN97@SetString:
  0011d	e8 00 00 00 00	 call	 __invalid_parameter_noinfo
$LN65@SetString:
  00122	8b 07		 mov	 eax, DWORD PTR [edi]
  00124	5b		 pop	 ebx
  00125	3b 70 f8	 cmp	 esi, DWORD PTR [eax-8]
  00128	7f 0f		 jg	 SHORT $LN71@SetString

; 877  : 
; 878  : 		GetData()->nDataLength = nLength;

  0012a	89 70 f4	 mov	 DWORD PTR [eax-12], esi

; 879  : 		m_pszData[nLength] = 0;

  0012d	8b 07		 mov	 eax, DWORD PTR [edi]
  0012f	5f		 pop	 edi
  00130	c6 04 06 00	 mov	 BYTE PTR [esi+eax], 0

; 638  : 			else
; 639  : 			{
; 640  : 				memcpy_s( pszBuffer, GetAllocLength() * sizeof( XCHAR ), pszSrc, nLength * sizeof( XCHAR ));
; 641  : 			}
; 642  : 			ReleaseBufferSetLength( nLength );
; 643  : 		}
; 644  : 	}

  00134	5e		 pop	 esi
  00135	5d		 pop	 ebp
  00136	c2 08 00	 ret	 8
$LN71@SetString:

; 876  : 			AtlThrow(E_INVALIDARG);

  00139	68 57 00 07 80	 push	 -2147024809		; 80070057H
  0013e	e8 00 00 00 00	 call	 ?AtlThrowImpl@ATL@@YGXJ@Z ; ATL::AtlThrowImpl
$LN96@SetString:
  00143	cc		 int	 3
?SetString@?$CSimpleStringT@D$0A@@ATL@@QAEXPBDH@Z ENDP	; ATL::CSimpleStringT<char,0>::SetString
_TEXT	ENDS
; Function compile flags: /Ogtp
; File C:\Program Files\Microsoft Visual Studio\2022\Professional\VC\Tools\MSVC\14.44.35207\atlmfc\include\atlsimpstr.h
;	COMDAT ??1?$CSimpleStringT@D$0A@@ATL@@QAE@XZ
_TEXT	SEGMENT
??1?$CSimpleStringT@D$0A@@ATL@@QAE@XZ PROC		; ATL::CSimpleStringT<char,0>::~CSimpleStringT<char,0>, COMDAT
; _this$ = ecx

; 804  : 		return( reinterpret_cast< CStringData* >( m_pszData )-1 );

  00000	8b 11		 mov	 edx, DWORD PTR [ecx]

; 92   : 		if( _InterlockedDecrement( &nRefs ) <= 0 )

  00002	83 c8 ff	 or	 eax, -1

; 804  : 		return( reinterpret_cast< CStringData* >( m_pszData )-1 );

  00005	83 ea 10	 sub	 edx, 16			; 00000010H

; 92   : 		if( _InterlockedDecrement( &nRefs ) <= 0 )

  00008	f0 0f c1 42 0c	 lock	  xadd	 DWORD PTR [edx+12], eax
  0000d	48		 dec	 eax
  0000e	85 c0		 test	 eax, eax
  00010	7f 08		 jg	 SHORT $LN6@CSimpleStr

; 93   : 		{
; 94   : 			pStringMgr->Free( this );

  00012	8b 0a		 mov	 ecx, DWORD PTR [edx]
  00014	52		 push	 edx
  00015	8b 01		 mov	 eax, DWORD PTR [ecx]
  00017	ff 50 04	 call	 DWORD PTR [eax+4]
$LN6@CSimpleStr:

; 265  : 		CStringData* pData = GetData();
; 266  : 		pData->Release();
; 267  : 	}

  0001a	c3		 ret	 0
??1?$CSimpleStringT@D$0A@@ATL@@QAE@XZ ENDP		; ATL::CSimpleStringT<char,0>::~CSimpleStringT<char,0>
_TEXT	ENDS
; Function compile flags: /Ogtp
; File C:\Program Files\Microsoft Visual Studio\2022\Professional\VC\Tools\MSVC\14.44.35207\atlmfc\include\atlexcept.h
;	COMDAT ?AtlThrowImpl@ATL@@YGXJ@Z
_TEXT	SEGMENT
_hr$ = 8						; size = 4
?AtlThrowImpl@ATL@@YGXJ@Z PROC				; ATL::AtlThrowImpl, COMDAT

; 69   : {

  00000	55		 push	 ebp
  00001	8b ec		 mov	 ebp, esp

; 70   : 	ATLTRACE(atlTraceException, 0, _T("AtlThrow: hr = 0x%x\n"), hr );
; 71   : #ifdef _AFX
; 72   : 	if( hr == E_OUTOFMEMORY )

  00003	8b 45 08	 mov	 eax, DWORD PTR _hr$[ebp]
  00006	3d 0e 00 07 80	 cmp	 eax, -2147024882	; 8007000eH
  0000b	75 05		 jne	 SHORT $LN2@AtlThrowIm

; 73   : 	{
; 74   : 		AfxThrowMemoryException();

  0000d	e8 00 00 00 00	 call	 ?AfxThrowMemoryException@@YGXXZ ; AfxThrowMemoryException
$LN2@AtlThrowIm:

; 75   : 	}
; 76   : 	else
; 77   : 	{
; 78   : 		AfxThrowOleException( hr );

  00012	50		 push	 eax
  00013	e8 00 00 00 00	 call	 ?AfxThrowOleException@@YGXJ@Z ; AfxThrowOleException
$LN5@AtlThrowIm:
  00018	cc		 int	 3
?AtlThrowImpl@ATL@@YGXJ@Z ENDP				; ATL::AtlThrowImpl
_TEXT	ENDS
; Function compile flags: /Ogtp
; File C:\Program Files (x86)\Windows Kits\10\Include\10.0.26100.0\ucrt\stdio.h
;	COMDAT _sprintf
_TEXT	SEGMENT
__Buffer$ = 8						; size = 4
__Format$ = 12						; size = 4
_sprintf PROC						; COMDAT

; 1771 :     {

  00000	55		 push	 ebp
  00001	8b ec		 mov	 ebp, esp

; 1392 :         int const _Result = __stdio_common_vsprintf(

  00003	8d 45 10	 lea	 eax, DWORD PTR __Format$[ebp+4]
  00006	50		 push	 eax
  00007	6a 00		 push	 0
  00009	ff 75 0c	 push	 DWORD PTR __Format$[ebp]
  0000c	6a ff		 push	 -1
  0000e	ff 75 08	 push	 DWORD PTR __Buffer$[ebp]
  00011	e8 00 00 00 00	 call	 ___local_stdio_printf_options
  00016	8b 08		 mov	 ecx, DWORD PTR [eax]
  00018	ff 70 04	 push	 DWORD PTR [eax+4]
  0001b	83 c9 01	 or	 ecx, 1
  0001e	51		 push	 ecx
  0001f	e8 00 00 00 00	 call	 ___stdio_common_vsprintf

; 1393 :             _CRT_INTERNAL_LOCAL_PRINTF_OPTIONS | _CRT_INTERNAL_PRINTF_LEGACY_VSPRINTF_NULL_TERMINATION,
; 1394 :             _Buffer, _BufferCount, _Format, _Locale, _ArgList);
; 1395 : 
; 1396 :         return _Result < 0 ? -1 : _Result;

  00024	83 c9 ff	 or	 ecx, -1
  00027	83 c4 1c	 add	 esp, 28			; 0000001cH
  0002a	85 c0		 test	 eax, eax
  0002c	0f 48 c1	 cmovs	 eax, ecx

; 1772 :         int _Result;
; 1773 :         va_list _ArgList;
; 1774 :         __crt_va_start(_ArgList, _Format);
; 1775 : 
; 1776 :         _Result = _vsprintf_l(_Buffer, _Format, NULL, _ArgList);
; 1777 : 
; 1778 :         __crt_va_end(_ArgList);
; 1779 :         return _Result;
; 1780 :     }

  0002f	5d		 pop	 ebp
  00030	c3		 ret	 0
_sprintf ENDP
_TEXT	ENDS
; Function compile flags: /Ogtp
; File C:\Program Files (x86)\Windows Kits\10\Include\10.0.26100.0\ucrt\stdio.h
;	COMDAT __vsnprintf
_TEXT	SEGMENT
__Buffer$ = 8						; size = 4
__BufferCount$ = 12					; size = 4
__Format$ = 16						; size = 4
__ArgList$ = 20						; size = 4
__vsnprintf PROC					; COMDAT

; 1411 :     {

  00000	55		 push	 ebp
  00001	8b ec		 mov	 ebp, esp

; 1392 :         int const _Result = __stdio_common_vsprintf(

  00003	ff 75 14	 push	 DWORD PTR __ArgList$[ebp]
  00006	6a 00		 push	 0
  00008	ff 75 10	 push	 DWORD PTR __Format$[ebp]
  0000b	ff 75 0c	 push	 DWORD PTR __BufferCount$[ebp]
  0000e	ff 75 08	 push	 DWORD PTR __Buffer$[ebp]
  00011	e8 00 00 00 00	 call	 ___local_stdio_printf_options
  00016	8b 08		 mov	 ecx, DWORD PTR [eax]
  00018	ff 70 04	 push	 DWORD PTR [eax+4]
  0001b	83 c9 01	 or	 ecx, 1
  0001e	51		 push	 ecx
  0001f	e8 00 00 00 00	 call	 ___stdio_common_vsprintf

; 1393 :             _CRT_INTERNAL_LOCAL_PRINTF_OPTIONS | _CRT_INTERNAL_PRINTF_LEGACY_VSPRINTF_NULL_TERMINATION,
; 1394 :             _Buffer, _BufferCount, _Format, _Locale, _ArgList);
; 1395 : 
; 1396 :         return _Result < 0 ? -1 : _Result;

  00024	83 c9 ff	 or	 ecx, -1
  00027	83 c4 1c	 add	 esp, 28			; 0000001cH
  0002a	85 c0		 test	 eax, eax
  0002c	0f 48 c1	 cmovs	 eax, ecx

; 1412 :         return _vsnprintf_l(_Buffer, _BufferCount, _Format, NULL, _ArgList);
; 1413 :     }

  0002f	5d		 pop	 ebp
  00030	c3		 ret	 0
__vsnprintf ENDP
_TEXT	ENDS
; Function compile flags: /Ogtp
; File C:\Program Files (x86)\Windows Kits\10\Include\10.0.26100.0\ucrt\corecrt_stdio_config.h
;	COMDAT ___local_stdio_printf_options
_TEXT	SEGMENT
___local_stdio_printf_options PROC			; COMDAT

; 91   :         static unsigned __int64 _OptionsStorage;
; 92   :         return &_OptionsStorage;

  00000	b8 00 00 00 00	 mov	 eax, OFFSET ?_OptionsStorage@?1??__local_stdio_printf_options@@9@4_KA ; `__local_stdio_printf_options'::`2'::_OptionsStorage

; 93   :     }

  00005	c3		 ret	 0
___local_stdio_printf_options ENDP
_TEXT	ENDS
; Function compile flags: /Ogtp
; File C:\IAGOS\server\v18\Source\Source\WorldServer\WorldServer.cpp
;	COMDAT _WinMain@16
_TEXT	SEGMENT
_msg$ = -28						; size = 28
_hInstance$ = 8						; size = 4
_hPrevInstance$ = 12					; size = 4
_lpCmdLine$ = 16					; size = 4
_nCmdShow$ = 20						; size = 4
_WinMain@16 PROC					; COMDAT

; 160  : {

  00000	55		 push	 ebp
  00001	8b ec		 mov	 ebp, esp
  00003	83 ec 1c	 sub	 esp, 28			; 0000001cH
  00006	56		 push	 esi

; 161  : 	//////////////////////////////////////////////////////////////////////////
; 162  : 	//	BEGINTEST100111	FFL_DUMP
; 163  : // 	ffl_dump_unexception_filter::install( ffl_dump_level_heavy );
; 164  : 	//	ENDTEST100111	FFL_DUMP
; 165  : 	//////////////////////////////////////////////////////////////////////////
; 166  : 
; 167  : 
; 168  : // 	char szBuffer[256] = "rlawnsgudjuventus1970";
; 169  : // 	char szResult[256] = "";
; 170  : // 	//rlawnsgud juventus1970
; 171  : // 
; 172  : // 	md5( szResult, szBuffer );
; 173  : 
; 174  : 
; 175  : 
; 176  : 	//_CrtSetBreakAlloc( 628278 );	// memory leak Ĺ˝Áö
; 177  : 	// Initialize global strings
; 178  : 	LoadString(hInstance, IDS_APP_TITLE, g_szTitle, MAX_LOADSTRING);

  00007	8b 35 00 00 00
	00		 mov	 esi, DWORD PTR __imp__LoadStringA@16
  0000d	57		 push	 edi
  0000e	8b 7d 08	 mov	 edi, DWORD PTR _hInstance$[ebp]
  00011	6a 64		 push	 100			; 00000064H
  00013	68 00 00 00 00	 push	 OFFSET ?g_szTitle@@3PADA
  00018	6a 67		 push	 103			; 00000067H
  0001a	57		 push	 edi
  0001b	ff d6		 call	 esi

; 179  : 	LoadString(hInstance, IDC_WORLDSERVER, g_szWindowClass, MAX_LOADSTRING);

  0001d	6a 64		 push	 100			; 00000064H
  0001f	68 00 00 00 00	 push	 OFFSET ?g_szWindowClass@@3PADA
  00024	6a 6d		 push	 109			; 0000006dH
  00026	57		 push	 edi
  00027	ff d6		 call	 esi

; 180  : 	MyRegisterClass(hInstance);

  00029	57		 push	 edi
  0002a	e8 00 00 00 00	 call	 ?MyRegisterClass@@YAGPAUHINSTANCE__@@@Z ; MyRegisterClass

; 181  : 
; 182  : 	InitLanguageFromResource( hInstance );

  0002f	57		 push	 edi
  00030	e8 00 00 00 00	 call	 ?InitLanguageFromResource@@YAXPAUHINSTANCE__@@@Z ; InitLanguageFromResource
  00035	83 c4 08	 add	 esp, 8

; 183  : 	if( ::GetLanguage() != LANG_KOR )

  00038	e8 00 00 00 00	 call	 ?GetLanguage@@YAHXZ	; GetLanguage
  0003d	85 c0		 test	 eax, eax
  0003f	74 0e		 je	 SHORT $LN4@WinMain

; 184  : 		g_eLocal.SetState( EVE_18, 1 );

  00041	6a 01		 push	 1
  00043	6a 01		 push	 1
  00045	b9 00 00 00 00	 mov	 ecx, OFFSET ?g_eLocal@@3VCFlyffEvent@@A ; g_eLocal
  0004a	e8 00 00 00 00	 call	 ?SetState@CFlyffEvent@@QAEHHE@Z ; CFlyffEvent::SetState
$LN4@WinMain:

; 185  : 
; 186  : 	// Perform application initialization:
; 187  : 	if (!InitInstance (hInstance, nCmdShow))

  0004f	ff 75 14	 push	 DWORD PTR _nCmdShow$[ebp]
  00052	57		 push	 edi
  00053	e8 00 00 00 00	 call	 ?InitInstance@@YAHPAUHINSTANCE__@@H@Z ; InitInstance
  00058	83 c4 08	 add	 esp, 8
  0005b	85 c0		 test	 eax, eax
  0005d	75 0f		 jne	 SHORT $LN7@WinMain

; 188  : 	{
; 189  : 		ExitInstance();

  0005f	e8 00 00 00 00	 call	 ?ExitInstance@@YAXXZ	; ExitInstance
  00064	5f		 pop	 edi

; 190  : 		return FALSE;

  00065	33 c0		 xor	 eax, eax

; 204  : }

  00067	5e		 pop	 esi
  00068	8b e5		 mov	 esp, ebp
  0006a	5d		 pop	 ebp
  0006b	c2 10 00	 ret	 16			; 00000010H
$LN7@WinMain:

; 191  : 	}
; 192  : 
; 193  : 	MSG msg;
; 194  : 	// Main message loop:
; 195  : 	while (GetMessage(&msg, NULL, 0, 0)) 

  0006e	8b 35 00 00 00
	00		 mov	 esi, DWORD PTR __imp__GetMessageA@16
  00074	8d 45 e4	 lea	 eax, DWORD PTR _msg$[ebp]
  00077	6a 00		 push	 0
  00079	6a 00		 push	 0
  0007b	6a 00		 push	 0
  0007d	50		 push	 eax
  0007e	ff d6		 call	 esi
  00080	85 c0		 test	 eax, eax
  00082	74 2a		 je	 SHORT $LN3@WinMain
  00084	8b 3d 00 00 00
	00		 mov	 edi, DWORD PTR __imp__TranslateMessage@4
  0008a	53		 push	 ebx
  0008b	8b 1d 00 00 00
	00		 mov	 ebx, DWORD PTR __imp__DispatchMessageA@4
$LL2@WinMain:

; 196  : 	{
; 197  : 		TranslateMessage(&msg);

  00091	8d 45 e4	 lea	 eax, DWORD PTR _msg$[ebp]
  00094	50		 push	 eax
  00095	ff d7		 call	 edi

; 198  : 		DispatchMessage(&msg);

  00097	8d 45 e4	 lea	 eax, DWORD PTR _msg$[ebp]
  0009a	50		 push	 eax
  0009b	ff d3		 call	 ebx
  0009d	6a 00		 push	 0
  0009f	6a 00		 push	 0
  000a1	6a 00		 push	 0
  000a3	8d 45 e4	 lea	 eax, DWORD PTR _msg$[ebp]
  000a6	50		 push	 eax
  000a7	ff d6		 call	 esi
  000a9	85 c0		 test	 eax, eax
  000ab	75 e4		 jne	 SHORT $LL2@WinMain

; 191  : 	}
; 192  : 
; 193  : 	MSG msg;
; 194  : 	// Main message loop:
; 195  : 	while (GetMessage(&msg, NULL, 0, 0)) 

  000ad	5b		 pop	 ebx
$LN3@WinMain:

; 199  : 	}
; 200  : 
; 201  : 	ExitInstance();

  000ae	e8 00 00 00 00	 call	 ?ExitInstance@@YAXXZ	; ExitInstance

; 202  : 
; 203  : 	return msg.wParam;

  000b3	8b 45 ec	 mov	 eax, DWORD PTR _msg$[ebp+8]
  000b6	5f		 pop	 edi

; 204  : }

  000b7	5e		 pop	 esi
  000b8	8b e5		 mov	 esp, ebp
  000ba	5d		 pop	 ebp
  000bb	c2 10 00	 ret	 16			; 00000010H
_WinMain@16 ENDP
_TEXT	ENDS
; Function compile flags: /Ogtp
; File C:\IAGOS\server\v18\Source\Source\WorldServer\WorldServer.cpp
;	COMDAT ?__empty_global_delete@@YAXPAXI@Z
_TEXT	SEGMENT
___formal$ = 8						; size = 4
___formal$ = 12						; size = 4
?__empty_global_delete@@YAXPAXI@Z PROC			; __empty_global_delete, COMDAT

  00000	c2 00 00	 ret	 0
?__empty_global_delete@@YAXPAXI@Z ENDP			; __empty_global_delete
_TEXT	ENDS
; Function compile flags: /Ogtp
; File C:\IAGOS\server\v18\Source\Source\WorldServer\WorldServer.cpp
;	COMDAT ?__empty_global_delete@@YAXPAX@Z
_TEXT	SEGMENT
___formal$ = 8						; size = 4
?__empty_global_delete@@YAXPAX@Z PROC			; __empty_global_delete, COMDAT

  00000	c2 00 00	 ret	 0
?__empty_global_delete@@YAXPAX@Z ENDP			; __empty_global_delete
_TEXT	ENDS
END
