; Listing generated by Microsoft (R) Optimizing Compiler Version 19.44.35225.0 

	TITLE	C:\IAGOS\server\v18\Source\Output\WorldServer\Release\World.obj
	.686P
	.XMM
	include listing.inc
	.model	flat

INCLUDELIB LIBCMT
INCLUDELIB OLDNAMES

PUBLIC	?m_nWidthLinkMap@CLandscape@@2PAHA		; CLandscape::m_nWidthLinkMap
_BSS	SEGMENT
?m_nWidthLinkMap@CLandscape@@2PAHA DD 07H DUP (?)	; CLandscape::m_nWidthLinkMap
_BSS	ENDS
CONST	SEGMENT
?piecewise_construct@std@@3Upiecewise_construct_t@1@B	ORG $+1 ; std::piecewise_construct
CONST	ENDS
PUBLIC	??_H@YGXPAXIIP6EPAX0@Z@Z			; `vector constructor iterator'
PUBLIC	?__empty_global_delete@@YAXPAX@Z		; __empty_global_delete
PUBLIC	?__empty_global_delete@@YAXPAXI@Z		; __empty_global_delete
PUBLIC	??0exception@std@@QAE@ABV01@@Z			; std::exception::exception
PUBLIC	??1exception@std@@UAE@XZ			; std::exception::~exception
PUBLIC	?what@exception@std@@UBEPBDXZ			; std::exception::what
PUBLIC	??_Gexception@std@@UAEPAXI@Z			; std::exception::`scalar deleting destructor'
PUBLIC	??0bad_alloc@std@@QAE@ABV01@@Z			; std::bad_alloc::bad_alloc
PUBLIC	??_Gbad_alloc@std@@UAEPAXI@Z			; std::bad_alloc::`scalar deleting destructor'
PUBLIC	??0bad_array_new_length@std@@QAE@XZ		; std::bad_array_new_length::bad_array_new_length
PUBLIC	??1bad_array_new_length@std@@UAE@XZ		; std::bad_array_new_length::~bad_array_new_length
PUBLIC	??0bad_array_new_length@std@@QAE@ABV01@@Z	; std::bad_array_new_length::bad_array_new_length
PUBLIC	??_Gbad_array_new_length@std@@UAEPAXI@Z		; std::bad_array_new_length::`scalar deleting destructor'
PUBLIC	?_Throw_bad_array_new_length@std@@YAXXZ		; std::_Throw_bad_array_new_length
PUBLIC	??1?$basic_string@DU?$char_traits@D@std@@V?$allocator@D@2@@std@@QAE@XZ ; std::basic_string<char,std::char_traits<char>,std::allocator<char> >::~basic_string<char,std::char_traits<char>,std::allocator<char> >
PUBLIC	?_Throw_tree_length_error@std@@YAXXZ		; std::_Throw_tree_length_error
PUBLIC	??0D3DXVECTOR3@@QAE@XZ				; D3DXVECTOR3::D3DXVECTOR3
PUBLIC	?_Insert_node@?$_Tree_val@U?$_Tree_simple_types@U?$pair@$$CBKPAVCUser@@@std@@@std@@@std@@QAEPAU?$_Tree_node@U?$pair@$$CBKPAVCUser@@@std@@PAX@2@U?$_Tree_id@PAU?$_Tree_node@U?$pair@$$CBKPAVCUser@@@std@@PAX@std@@@2@QAU32@@Z ; std::_Tree_val<std::_Tree_simple_types<std::pair<unsigned long const ,CUser *> > >::_Insert_node
PUBLIC	??1?$CStack@K@@UAE@XZ				; CStack<unsigned long>::~CStack<unsigned long>
PUBLIC	??_G?$CStack@K@@UAEPAXI@Z			; CStack<unsigned long>::`scalar deleting destructor'
PUBLIC	??1?$vector@KV?$allocator@K@std@@@std@@QAE@XZ	; std::vector<unsigned long,std::allocator<unsigned long> >::~vector<unsigned long,std::allocator<unsigned long> >
PUBLIC	??1?$vector@UD3DXVECTOR3@@V?$allocator@UD3DXVECTOR3@@@std@@@std@@QAE@XZ ; std::vector<D3DXVECTOR3,std::allocator<D3DXVECTOR3> >::~vector<D3DXVECTOR3,std::allocator<D3DXVECTOR3> >
PUBLIC	??0REGIONELEM@@QAE@XZ				; REGIONELEM::REGIONELEM
PUBLIC	??0CRegionElemArray@@QAE@XZ			; CRegionElemArray::CRegionElemArray
PUBLIC	??0tagREPLACEOBJ@@QAE@XZ			; tagREPLACEOBJ::tagREPLACEOBJ
PUBLIC	??0TextureSet@@QAE@XZ				; TextureSet::TextureSet
PUBLIC	??1TextureSet@@QAE@XZ				; TextureSet::~TextureSet
PUBLIC	??0ENVIR_INFO@@QAE@XZ				; ENVIR_INFO::ENVIR_INFO
PUBLIC	??1ENVIR_INFO@@QAE@XZ				; ENVIR_INFO::~ENVIR_INFO
PUBLIC	??1?$vector@UENVIR_INFO@@V?$allocator@UENVIR_INFO@@@std@@@std@@QAE@XZ ; std::vector<ENVIR_INFO,std::allocator<ENVIR_INFO> >::~vector<ENVIR_INFO,std::allocator<ENVIR_INFO> >
PUBLIC	??0CWorld@@QAE@XZ				; CWorld::CWorld
PUBLIC	??1CWorld@@QAE@XZ				; CWorld::~CWorld
PUBLIC	??1?$vector@PAVCObj@@V?$allocator@PAVCObj@@@std@@@std@@QAE@XZ ; std::vector<CObj *,std::allocator<CObj *> >::~vector<CObj *,std::allocator<CObj *> >
PUBLIC	?Process@CWorld@@QAEXXZ				; CWorld::Process
PUBLIC	?ModifyView@CWorld@@QAEXPAVCCtrl@@@Z		; CWorld::ModifyView
PUBLIC	?PreremoveObj@CWorld@@QAEHK@Z			; CWorld::PreremoveObj
PUBLIC	?PregetObj@CWorld@@QAEPAVCObj@@K@Z		; CWorld::PregetObj
PUBLIC	?OnDie@CWorld@@QAEXPAVCMover@@0@Z		; CWorld::OnDie
PUBLIC	?_OnDie@CWorld@@QAEXXZ				; CWorld::_OnDie
PUBLIC	?FindMover@CWorld@@QAEPAVCMover@@PBD@Z		; CWorld::FindMover
PUBLIC	?AddItToView@CWorld@@AAEXPAVCCtrl@@@Z		; CWorld::AddItToView
PUBLIC	?_add@CWorld@@AAEXXZ				; CWorld::_add
PUBLIC	?_process@CWorld@@AAEXXZ			; CWorld::_process
PUBLIC	?_modifylink@CWorld@@AAEXXZ			; CWorld::_modifylink
PUBLIC	?_replace@CWorld@@AAEXXZ			; CWorld::_replace
PUBLIC	?_delete@CWorld@@AAEXXZ				; CWorld::_delete
PUBLIC	?CalcBound@CWorld@@QAEXXZ			; CWorld::CalcBound
PUBLIC	?VecInWorld@CWorld@@QAEHABUD3DXVECTOR3@@@Z	; CWorld::VecInWorld
PUBLIC	?Free@CWorld@@QAEXXZ				; CWorld::Free
PUBLIC	?LoadAllMoverDialog@CWorld@@QAEXXZ		; CWorld::LoadAllMoverDialog
PUBLIC	?AddObj@CWorld@@QAEHPAVCObj@@HH@Z		; CWorld::AddObj
PUBLIC	?RemoveObj@CWorld@@QAEXPAVCObj@@@Z		; CWorld::RemoveObj
PUBLIC	?DeleteObj@CWorld@@QAEXPAVCObj@@@Z		; CWorld::DeleteObj
PUBLIC	?DestroyObj@CWorld@@QAEXPAVCObj@@@Z		; CWorld::DestroyObj
PUBLIC	?DoNotAdd@CWorld@@QAEHPAVCObj@@@Z		; CWorld::DoNotAdd
PUBLIC	?AddObjArray@CWorld@@QAEHPAVCObj@@@Z		; CWorld::AddObjArray
PUBLIC	?RemoveObjArray@CWorld@@QAEXPAVCObj@@@Z		; CWorld::RemoveObjArray
PUBLIC	?InsertObjLink@CWorld@@QAEHPAVCObj@@@Z		; CWorld::InsertObjLink
PUBLIC	?RemoveObjLink@CWorld@@QAEHPAVCObj@@@Z		; CWorld::RemoveObjLink
PUBLIC	?RemoveObjLink2@CWorld@@QAEHPAVCObj@@@Z		; CWorld::RemoveObjLink2
PUBLIC	?GetObjInLinkMap@CWorld@@QAEPAVCObj@@ABUD3DXVECTOR3@@KHH@Z ; CWorld::GetObjInLinkMap
PUBLIC	?SetObjInLinkMap@CWorld@@QAEHABUD3DXVECTOR3@@KHPAVCObj@@H@Z ; CWorld::SetObjInLinkMap
PUBLIC	?GetLandHeight@CWorld@@QAEMMM@Z			; CWorld::GetLandHeight
PUBLIC	?GetLandHeight@CWorld@@QAEMABUD3DXVECTOR3@@@Z	; CWorld::GetLandHeight
PUBLIC	?GetLandTri@CWorld@@QAEXMMPAUD3DXVECTOR3@@@Z	; CWorld::GetLandTri
PUBLIC	?GetLandTri2@CWorld@@QAEHMMPAUD3DXVECTOR3@@@Z	; CWorld::GetLandTri2
PUBLIC	?GetLandTris@CWorld@@QAEHMMPAUD3DXVECTOR3@@@Z	; CWorld::GetLandTris
PUBLIC	?GetWaterHeight@CWorld@@QAEPAUWATERHEIGHT@@HH@Z	; CWorld::GetWaterHeight
PUBLIC	?GetHeightAttribute@CWorld@@QAEHMM@Z		; CWorld::GetHeightAttribute
PUBLIC	?SendDamageAround@CWorld@@QAEXPBUD3DXVECTOR3@@HPAVCMover@@HHM@Z ; CWorld::SendDamageAround
PUBLIC	?Expand@CWorld@@QAEXXZ				; CWorld::Expand
PUBLIC	??1?$_Alloc_construct_ptr@V?$allocator@U?$_Tree_node@U?$pair@$$CBKPAVCUser@@@std@@PAX@std@@@std@@@std@@QAE@XZ ; std::_Alloc_construct_ptr<std::allocator<std::_Tree_node<std::pair<unsigned long const ,CUser *>,void *> > >::~_Alloc_construct_ptr<std::allocator<std::_Tree_node<std::pair<unsigned long const ,CUser *>,void *> > >
PUBLIC	??$_Allocate_manually_vector_aligned@U_Default_allocate_traits@std@@@std@@YAPAXI@Z ; std::_Allocate_manually_vector_aligned<std::_Default_allocate_traits>
PUBLIC	??_7exception@std@@6B@				; std::exception::`vftable'
PUBLIC	??_C@_0BC@EOODALEL@Unknown?5exception@		; `string'
PUBLIC	??_7bad_alloc@std@@6B@				; std::bad_alloc::`vftable'
PUBLIC	??_7bad_array_new_length@std@@6B@		; std::bad_array_new_length::`vftable'
PUBLIC	??_C@_0BF@KINCDENJ@bad?5array?5new?5length@	; `string'
PUBLIC	??_R0?AVexception@std@@@8			; std::exception `RTTI Type Descriptor'
PUBLIC	__CT??_R0?AVexception@std@@@8??0exception@std@@QAE@ABV01@@Z12
PUBLIC	__TI3?AVbad_array_new_length@std@@
PUBLIC	__CTA3?AVbad_array_new_length@std@@
PUBLIC	??_R0?AVbad_array_new_length@std@@@8		; std::bad_array_new_length `RTTI Type Descriptor'
PUBLIC	__CT??_R0?AVbad_array_new_length@std@@@8??0bad_array_new_length@std@@QAE@ABV01@@Z12
PUBLIC	??_R0?AVbad_alloc@std@@@8			; std::bad_alloc `RTTI Type Descriptor'
PUBLIC	__CT??_R0?AVbad_alloc@std@@@8??0bad_alloc@std@@QAE@ABV01@@Z12
PUBLIC	??_C@_0BB@GCADKGJO@map?1set?5too?5long@		; `string'
PUBLIC	??_7?$CStack@K@@6B@				; CStack<unsigned long>::`vftable'
PUBLIC	??_C@_06OJLEAOEG@?$CFs?0?5?$CFd@		; `string'
PUBLIC	??_C@_0BM@HMFGHCP@?$CFs?5min?3?$CFd?0?5max?3?$CFd?0?5index?3?$CFd@ ; `string'
PUBLIC	??_C@_0BI@GDJNNIOA@GetCtrlProp?5range_error@	; `string'
PUBLIC	??_C@_0BI@BEIFNGEL@GetItemProp?5range_error@	; `string'
PUBLIC	??_C@_0BJ@GPNGCFMK@GetSkillProp?5range_error@	; `string'
PUBLIC	??_C@_0DB@ILBMOCBP@C?3?2IAGOS?2server?2v18?2Source?2Sour@ ; `string'
PUBLIC	??_R4exception@std@@6B@				; std::exception::`RTTI Complete Object Locator'
PUBLIC	??_R3exception@std@@8				; std::exception::`RTTI Class Hierarchy Descriptor'
PUBLIC	??_R2exception@std@@8				; std::exception::`RTTI Base Class Array'
PUBLIC	??_R1A@?0A@EA@exception@std@@8			; std::exception::`RTTI Base Class Descriptor at (0,-1,0,64)'
PUBLIC	??_R4bad_array_new_length@std@@6B@		; std::bad_array_new_length::`RTTI Complete Object Locator'
PUBLIC	??_R3bad_array_new_length@std@@8		; std::bad_array_new_length::`RTTI Class Hierarchy Descriptor'
PUBLIC	??_R2bad_array_new_length@std@@8		; std::bad_array_new_length::`RTTI Base Class Array'
PUBLIC	??_R1A@?0A@EA@bad_array_new_length@std@@8	; std::bad_array_new_length::`RTTI Base Class Descriptor at (0,-1,0,64)'
PUBLIC	??_R1A@?0A@EA@bad_alloc@std@@8			; std::bad_alloc::`RTTI Base Class Descriptor at (0,-1,0,64)'
PUBLIC	??_R3bad_alloc@std@@8				; std::bad_alloc::`RTTI Class Hierarchy Descriptor'
PUBLIC	??_R2bad_alloc@std@@8				; std::bad_alloc::`RTTI Base Class Array'
PUBLIC	??_R4bad_alloc@std@@6B@				; std::bad_alloc::`RTTI Complete Object Locator'
PUBLIC	??_R4?$CStack@K@@6B@				; CStack<unsigned long>::`RTTI Complete Object Locator'
PUBLIC	??_R0?AV?$CStack@K@@@8				; CStack<unsigned long> `RTTI Type Descriptor'
PUBLIC	??_R3?$CStack@K@@8				; CStack<unsigned long>::`RTTI Class Hierarchy Descriptor'
PUBLIC	??_R2?$CStack@K@@8				; CStack<unsigned long>::`RTTI Base Class Array'
PUBLIC	??_R1A@?0A@EA@?$CStack@K@@8			; CStack<unsigned long>::`RTTI Base Class Descriptor at (0,-1,0,64)'
PUBLIC	??_C@_0CI@KCJBBNGD@CWorld?3?3AddObj?5obj?8s?5world?5is?5N@ ; `string'
PUBLIC	??_C@_0CK@OMOEDGKP@CWorld?3?3AddObj?5world?5id?3?$CFd?5x?3?$CFf@ ; `string'
PUBLIC	??_C@_0BK@DCGJKBFJ@CWorld?3?3DeleteObj?5?3?5?$CFs?5?$CFd@ ; `string'
PUBLIC	??_C@_0CG@EDKIFBIC@CWorld?3?3DeleteObj?5?3?5type?$DN?$CFd?5idx@ ; `string'
PUBLIC	??_C@_0P@BHPKFHEI@MAX_DELETEOBJS@		; `string'
PUBLIC	??_C@_0CA@LOMLCCK@AddObjArray?5nIndex?5?$DN?50xffffffff@ ; `string'
PUBLIC	??_C@_0DD@JHPKICEK@RemoveObjArray?5?5pObj?9?$DOm_dwObjAr@ ; `string'
PUBLIC	??_C@_0DI@KBIGLDPE@RemoveObjArray?5m_apObject?$FLpObj?9@ ; `string'
PUBLIC	??_C@_0DB@CFEPIBL@ROL?1?1INVALID?5POS?1?1?$CFd?0?5?$CFd?0?5?$CFf?0?5?$CF@ ; `string'
PUBLIC	??_C@_0CO@PFFBKGBP@CWorld?3?3GetLandHeight?5?3?5?$CFd?5?$CFd?0?5@ ; `string'
PUBLIC	??_C@_0BI@FJJIKCGF@LINKMAP?5world?5different@	; `string'
PUBLIC	??_C@_0P@JGKCBPBI@ML?1?1?$CFs?1?1?$CFd?1?1?$CFd@ ; `string'
PUBLIC	??_C@_0BG@ECAHOHBD@ML?1?1BINGO?1?1?$CFd?1?1?$CFd?1?1?$CFd@ ; `string'
PUBLIC	??_C@_0CE@GAGEENAE@_replace?5world?5id?3?$CFd?5x?3?$CFf?5y?3?$CFf?5@ ; `string'
PUBLIC	??_C@_0DB@DMPELOAC@CWorld?3?3SendDamageAround?5?3?5D?3?$CFd@ ; `string'
PUBLIC	??_C@_0DN@ECMLCJLF@CWorld?3?3SendDamageAround?5?3?5?$CFs?4?5@ ; `string'
PUBLIC	??_C@_0DP@PNAKIIFP@CWorld?3?3SendDamageAround?5?3?5?$CFs?4?5@ ; `string'
PUBLIC	__real@00000000
PUBLIC	__real@3f800000
PUBLIC	__real@40800000
PUBLIC	__real@41000000
PUBLIC	__real@41800000
PUBLIC	__real@42000000
PUBLIC	__real@447a0000
PUBLIC	__real@44fa0000
PUBLIC	__real@453b8000
PUBLIC	__real@457a0000
EXTRN	??_L@YGXPAXIIP6EX0@Z1@Z:PROC			; `eh vector constructor iterator'
EXTRN	??_M@YGXPAXIIP6EX0@Z@Z:PROC			; `eh vector destructor iterator'
EXTRN	??2@YAPAXI@Z:PROC				; operator new
EXTRN	??3@YAXPAXI@Z:PROC				; operator delete
EXTRN	??_U@YAPAXI@Z:PROC				; operator new[]
EXTRN	??_V@YAXPAX@Z:PROC				; operator delete[]
EXTRN	___std_terminate:PROC
EXTRN	__invoke_watson:PROC
EXTRN	__mbscmp:PROC
EXTRN	??0CMapWordToPtr@@QAE@H@Z:PROC			; CMapWordToPtr::CMapWordToPtr
EXTRN	??1CMapWordToPtr@@UAE@XZ:PROC			; CMapWordToPtr::~CMapWordToPtr
EXTRN	__isnan:PROC
EXTRN	___std_exception_copy:PROC
EXTRN	___std_exception_destroy:PROC
EXTRN	??_Eexception@std@@UAEPAXI@Z:PROC		; std::exception::`vector deleting destructor'
EXTRN	??_Ebad_alloc@std@@UAEPAXI@Z:PROC		; std::bad_alloc::`vector deleting destructor'
EXTRN	??_Ebad_array_new_length@std@@UAEPAXI@Z:PROC	; std::bad_array_new_length::`vector deleting destructor'
EXTRN	?_Xlength_error@std@@YAXPBD@Z:PROC		; std::_Xlength_error
EXTRN	?WriteLog@@YAXPBDZZ:PROC			; WriteLog
EXTRN	?WriteError@@YAXPBDZZ:PROC			; WriteError
EXTRN	?Error@@YAPBDPBDZZ:PROC				; Error
EXTRN	?UpdateLocalMatrix@CObj@@QAEXXZ:PROC		; CObj::UpdateLocalMatrix
EXTRN	?InsNextNode@CObj@@QAEXPAV1@@Z:PROC		; CObj::InsNextNode
EXTRN	?DelNode@CObj@@QAEXXZ:PROC			; CObj::DelNode
EXTRN	?GetLinkType@CObj@@QAEKXZ:PROC			; CObj::GetLinkType
EXTRN	?SetPos@CObj@@QAEXABUD3DXVECTOR3@@@Z:PROC	; CObj::SetPos
EXTRN	?SetWorld@CObj@@QAEXPAVCWorld@@@Z:PROC		; CObj::SetWorld
EXTRN	?RemoveItFromView@CCtrl@@QAEXH@Z:PROC		; CCtrl::RemoveItFromView
EXTRN	??_E?$CStack@K@@UAEPAXI@Z:PROC			; CStack<unsigned long>::`vector deleting destructor'
EXTRN	?SendDamageForce@CActionMover@@QAEHKKHH@Z:PROC	; CActionMover::SendDamageForce
EXTRN	?HasPet@CMover@@QAEHXZ:PROC			; CMover::HasPet
EXTRN	?RemovePet@CMover@@QAEXXZ:PROC			; CMover::RemovePet
EXTRN	?LoadDialog@CMover@@QAEHXZ:PROC			; CMover::LoadDialog
EXTRN	?GetName@CMover@@QAEPBDH@Z:PROC			; CMover::GetName
EXTRN	??0CLayerdRespawner@@QAE@XZ:PROC		; CLayerdRespawner::CLayerdRespawner
EXTRN	??1CLayerdRespawner@@UAE@XZ:PROC		; CLayerdRespawner::~CLayerdRespawner
EXTRN	?Expand@CLayerdRespawner@@QAEXH@Z:PROC		; CLayerdRespawner::Expand
EXTRN	??0CLayeredLinkMap@@QAE@XZ:PROC			; CLayeredLinkMap::CLayeredLinkMap
EXTRN	??1CLayeredLinkMap@@UAE@XZ:PROC			; CLayeredLinkMap::~CLayeredLinkMap
EXTRN	?Release@CLayeredLinkMap@@QAEXXZ:PROC		; CLayeredLinkMap::Release
EXTRN	?GetLinkWidth@CLayeredLinkMap@@QAEHKHH@Z:PROC	; CLayeredLinkMap::GetLinkWidth
EXTRN	?GetObj@CLayeredLinkMap@@QAEPAPAVCObj@@KKH@Z:PROC ; CLayeredLinkMap::GetObj
EXTRN	?GetMaxLinkLevel@CLayeredLinkMap@@QAEHKH@Z:PROC	; CLayeredLinkMap::GetMaxLinkLevel
EXTRN	?InsertObjLink@CLayeredLinkMap@@QAEHPAVCObj@@@Z:PROC ; CLayeredLinkMap::InsertObjLink
EXTRN	?RemoveObjLink2@CLayeredLinkMap@@QAEHPAVCObj@@@Z:PROC ; CLayeredLinkMap::RemoveObjLink2
EXTRN	?RemoveObjLink@CLayeredLinkMap@@QAEHPAVCObj@@@Z:PROC ; CLayeredLinkMap::RemoveObjLink
EXTRN	?GetObjInLinkMap@CLayeredLinkMap@@QAEPAVCObj@@ABUD3DXVECTOR3@@KHH@Z:PROC ; CLayeredLinkMap::GetObjInLinkMap
EXTRN	?SetObjInLinkMap@CLayeredLinkMap@@QAEHABUD3DXVECTOR3@@KHPAVCObj@@H@Z:PROC ; CLayeredLinkMap::SetObjInLinkMap
EXTRN	?AddItToView@CLayeredLinkMap@@QAEXPAVCCtrl@@@Z:PROC ; CLayeredLinkMap::AddItToView
EXTRN	?ModifyView@CLayeredLinkMap@@QAEXPAVCCtrl@@@Z:PROC ; CLayeredLinkMap::ModifyView
EXTRN	?Process@CLayeredLinkMap@@QAEXPAVCWorld@@@Z:PROC ; CLayeredLinkMap::Process
EXTRN	?GetFullHeight@CWorld@@QAEMABUD3DXVECTOR3@@@Z:PROC ; CWorld::GetFullHeight
EXTRN	?CreateLayer@CWorld@@QAEHH@Z:PROC		; CWorld::CreateLayer
EXTRN	?GetTenderGuildIndexByUser@CGuildCombat1to1Mng@@QAEHPAVCUser@@@Z:PROC ; CGuildCombat1to1Mng::GetTenderGuildIndexByUser
EXTRN	?SetLost@CGuildCombat1to1@@QAEXPAVCUser@@@Z:PROC ; CGuildCombat1to1::SetLost
EXTRN	?GetExpanedLayer@CLayerProperty@@QAEHK@Z:PROC	; CLayerProperty::GetExpanedLayer
EXTRN	?GetInstance@CTicketProperty@@SAPAV1@XZ:PROC	; CTicketProperty::GetInstance
EXTRN	?GetPoint@CGuildCombat@@QAEXPAVCUser@@0@Z:PROC	; CGuildCombat::GetPoint
EXTRN	?OutWar@CGuildCombat@@QAEXPAVCUser@@0H@Z:PROC	; CGuildCombat::OutWar
EXTRN	?GetAllPaperingInfo@CHousing@@QAE?AV?$vector@KV?$allocator@K@std@@@std@@XZ:PROC ; CHousing::GetAllPaperingInfo
EXTRN	?GetInstance@CHousingMng@@SAPAV1@XZ:PROC	; CHousingMng::GetInstance
EXTRN	?GetHousing@CHousingMng@@QAEPAVCHousing@@K@Z:PROC ; CHousingMng::GetHousing
EXTRN	?GetInstance@CGuildHouseMng@@SAPAV1@XZ:PROC	; CGuildHouseMng::GetInstance
EXTRN	?IsGuildHouse@CGuildHouseMng@@QAEHK@Z:PROC	; CGuildHouseMng::IsGuildHouse
EXTRN	?CheckDestroyGuildHouse@CGuildHouseMng@@QAEXPAVCUser@@@Z:PROC ; CGuildHouseMng::CheckDestroyGuildHouse
EXTRN	?SetApplyDST@CGuildHouseMng@@QAEXPAVCUser@@@Z:PROC ; CGuildHouseMng::SetApplyDST
EXTRN	?ResetApplyDST@CGuildHouseMng@@QAEXPAVCUser@@@Z:PROC ; CGuildHouseMng::ResetApplyDST
EXTRN	?RemoveItFromView2@CUser@@QAEXH@Z:PROC		; CUser::RemoveItFromView2
EXTRN	?Notify@CUser@@QAEHXZ:PROC			; CUser::Notify
EXTRN	?AddAddObj@CUser@@QAEXPAVCCtrl@@@Z:PROC		; CUser::AddAddObj
EXTRN	?AddReplace@CUser@@QAEXKAAUD3DXVECTOR3@@@Z:PROC	; CUser::AddReplace
EXTRN	?AddEnvironment@CUser@@QAEXXZ:PROC		; CUser::AddEnvironment
EXTRN	?AddSMModeAll@CUser@@QAEXXZ:PROC		; CUser::AddSMModeAll
EXTRN	?AddHousingPaperingInfo@CUser@@QAEXKH@Z:PROC	; CUser::AddHousingPaperingInfo
EXTRN	?AddSetPos@CUserMng@@QAEXPAVCCtrl@@AAUD3DXVECTOR3@@@Z:PROC ; CUserMng::AddSetPos
EXTRN	?AddGuildCombatUserState@CUserMng@@QAEXPAVCMover@@@Z:PROC ; CUserMng::AddGuildCombatUserState
EXTRN	?CheckIdStack@CDPCoreClient@@QAEHXZ:PROC	; CDPCoreClient::CheckIdStack
EXTRN	?GetWorld@CWorldMng@@QAEPAVCWorld@@K@Z:PROC	; CWorldMng::GetWorld
EXTRN	?GetInstance@CNpcChecker@@SAPAV1@XZ:PROC	; CNpcChecker::GetInstance
EXTRN	?AddNpc@CNpcChecker@@QAEXPAVCObj@@@Z:PROC	; CNpcChecker::AddNpc
EXTRN	?RemoveNpc@CNpcChecker@@QAEXPAVCObj@@@Z:PROC	; CNpcChecker::RemoveNpc
EXTRN	@__security_check_cookie@4:PROC
EXTRN	__CxxThrowException@8:PROC
EXTRN	___CxxFrameHandler3:PROC
EXTRN	_memcpy:PROC
EXTRN	_memset:PROC
EXTRN	??_7type_info@@6B@:QWORD			; type_info::`vftable'
EXTRN	?prj@@3VCProject@@A:BYTE			; prj
EXTRN	?g_uIdofMulti@@3KA:DWORD			; g_uIdofMulti
EXTRN	?g_GuildCombat1to1Mng@@3VCGuildCombat1to1Mng@@A:BYTE ; g_GuildCombat1to1Mng
EXTRN	?g_DPCoreClient@@3VCDPCoreClient@@A:BYTE	; g_DPCoreClient
EXTRN	?g_UserMng@@3VCUserMng@@A:BYTE			; g_UserMng
EXTRN	?g_WorldMng@@3VCWorldMng@@A:BYTE		; g_WorldMng
EXTRN	?g_GuildCombatMng@@3VCGuildCombat@@A:BYTE	; g_GuildCombatMng
EXTRN	___security_cookie:DWORD
EXTRN	__fltused:DWORD
;	COMDAT __real@457a0000
CONST	SEGMENT
__real@457a0000 DD 0457a0000r			; 4000
CONST	ENDS
;	COMDAT __real@453b8000
CONST	SEGMENT
__real@453b8000 DD 0453b8000r			; 3000
CONST	ENDS
;	COMDAT __real@44fa0000
CONST	SEGMENT
__real@44fa0000 DD 044fa0000r			; 2000
CONST	ENDS
;	COMDAT __real@447a0000
CONST	SEGMENT
__real@447a0000 DD 0447a0000r			; 1000
CONST	ENDS
;	COMDAT __real@42000000
CONST	SEGMENT
__real@42000000 DD 042000000r			; 32
CONST	ENDS
;	COMDAT __real@41800000
CONST	SEGMENT
__real@41800000 DD 041800000r			; 16
CONST	ENDS
;	COMDAT __real@41000000
CONST	SEGMENT
__real@41000000 DD 041000000r			; 8
CONST	ENDS
;	COMDAT __real@40800000
CONST	SEGMENT
__real@40800000 DD 040800000r			; 4
CONST	ENDS
;	COMDAT __real@3f800000
CONST	SEGMENT
__real@3f800000 DD 03f800000r			; 1
CONST	ENDS
;	COMDAT __real@00000000
CONST	SEGMENT
__real@00000000 DD 000000000r			; 0
CONST	ENDS
;	COMDAT ??_C@_0DP@PNAKIIFP@CWorld?3?3SendDamageAround?5?3?5?$CFs?4?5@
CONST	SEGMENT
??_C@_0DP@PNAKIIFP@CWorld?3?3SendDamageAround?5?3?5?$CFs?4?5@ DB 'CWorld:'
	DB	':SendDamageAround : %s. ', 0beH, 0c6H, 0c0H, 0ccH, 0c5H, 0dbH
	DB	'(%d)', 0c0H, 0c7H, ' ', 0c7H, 0c1H, 0b7H, 0ceH, 0c6H, 0dbH, 0c6H
	DB	0bcH, 0b0H, 0a1H, ' ', 0beH, 0f7H, 0a4H, 0b2H, 0b4H, 0d9H, '.', 00H ; `string'
CONST	ENDS
;	COMDAT ??_C@_0DN@ECMLCJLF@CWorld?3?3SendDamageAround?5?3?5?$CFs?4?5@
CONST	SEGMENT
??_C@_0DN@ECMLCJLF@CWorld?3?3SendDamageAround?5?3?5?$CFs?4?5@ DB 'CWorld:'
	DB	':SendDamageAround : %s. ', 0bdH, 0baH, 0c5H, 0b3H, '(%d)', 0c0H
	DB	0c7H, ' ', 0c7H, 0c1H, 0b7H, 0ceH, 0c6H, 0dbH, 0c6H, 0bcH, 0b0H
	DB	0a1H, ' ', 0beH, 0f7H, 0a4H, 0b2H, 0b4H, 0d9H, '.', 00H ; `string'
CONST	ENDS
;	COMDAT ??_C@_0DB@DMPELOAC@CWorld?3?3SendDamageAround?5?3?5D?3?$CFd@
CONST	SEGMENT
??_C@_0DB@DMPELOAC@CWorld?3?3SendDamageAround?5?3?5D?3?$CFd@ DB 'CWorld::'
	DB	'SendDamageAround : D:%d,%d,%d A:%s %d %f', 00H ; `string'
CONST	ENDS
;	COMDAT ??_C@_0CE@GAGEENAE@_replace?5world?5id?3?$CFd?5x?3?$CFf?5y?3?$CFf?5@
CONST	SEGMENT
??_C@_0CE@GAGEENAE@_replace?5world?5id?3?$CFd?5x?3?$CFf?5y?3?$CFf?5@ DB '_'
	DB	'replace world id:%d x:%f y:%f z:%f', 00H	; `string'
CONST	ENDS
;	COMDAT ??_C@_0BG@ECAHOHBD@ML?1?1BINGO?1?1?$CFd?1?1?$CFd?1?1?$CFd@
CONST	SEGMENT
??_C@_0BG@ECAHOHBD@ML?1?1BINGO?1?1?$CFd?1?1?$CFd?1?1?$CFd@ DB 'ML//BINGO/'
	DB	'/%d//%d//%d', 00H				; `string'
CONST	ENDS
;	COMDAT ??_C@_0P@JGKCBPBI@ML?1?1?$CFs?1?1?$CFd?1?1?$CFd@
CONST	SEGMENT
??_C@_0P@JGKCBPBI@ML?1?1?$CFs?1?1?$CFd?1?1?$CFd@ DB 'ML//%s//%d//%d', 00H ; `string'
CONST	ENDS
;	COMDAT ??_C@_0BI@FJJIKCGF@LINKMAP?5world?5different@
CONST	SEGMENT
??_C@_0BI@FJJIKCGF@LINKMAP?5world?5different@ DB 'LINKMAP world different'
	DB	00H						; `string'
CONST	ENDS
;	COMDAT ??_C@_0CO@PFFBKGBP@CWorld?3?3GetLandHeight?5?3?5?$CFd?5?$CFd?0?5@
CONST	SEGMENT
??_C@_0CO@PFFBKGBP@CWorld?3?3GetLandHeight?5?3?5?$CFd?5?$CFd?0?5@ DB 'CWo'
	DB	'rld::GetLandHeight : %d %d,  %f %f,  %d %d', 00H ; `string'
CONST	ENDS
;	COMDAT ??_C@_0DB@CFEPIBL@ROL?1?1INVALID?5POS?1?1?$CFd?0?5?$CFd?0?5?$CFf?0?5?$CF@
CONST	SEGMENT
??_C@_0DB@CFEPIBL@ROL?1?1INVALID?5POS?1?1?$CFd?0?5?$CFd?0?5?$CFf?0?5?$CF@ DB 'R'
	DB	'OL//INVALID POS//%d, %d, %f, %f, %f, %f, %f, %f', 00H ; `string'
CONST	ENDS
;	COMDAT ??_C@_0DI@KBIGLDPE@RemoveObjArray?5m_apObject?$FLpObj?9@
CONST	SEGMENT
??_C@_0DI@KBIGLDPE@RemoveObjArray?5m_apObject?$FLpObj?9@ DB 'RemoveObjArr'
	DB	'ay m_apObject[pObj->m_dwObjAryIdx] != pObj ', 00H ; `string'
CONST	ENDS
;	COMDAT ??_C@_0DD@JHPKICEK@RemoveObjArray?5?5pObj?9?$DOm_dwObjAr@
CONST	SEGMENT
??_C@_0DD@JHPKICEK@RemoveObjArray?5?5pObj?9?$DOm_dwObjAr@ DB 'RemoveObjAr'
	DB	'ray  pObj->m_dwObjAryIdx == 0xffffffff ', 00H ; `string'
CONST	ENDS
;	COMDAT ??_C@_0CA@LOMLCCK@AddObjArray?5nIndex?5?$DN?50xffffffff@
CONST	SEGMENT
??_C@_0CA@LOMLCCK@AddObjArray?5nIndex?5?$DN?50xffffffff@ DB 'AddObjArray '
	DB	'nIndex = 0xffffffff', 00H			; `string'
CONST	ENDS
;	COMDAT ??_C@_0P@BHPKFHEI@MAX_DELETEOBJS@
CONST	SEGMENT
??_C@_0P@BHPKFHEI@MAX_DELETEOBJS@ DB 'MAX_DELETEOBJS', 00H ; `string'
CONST	ENDS
;	COMDAT ??_C@_0CG@EDKIFBIC@CWorld?3?3DeleteObj?5?3?5type?$DN?$CFd?5idx@
CONST	SEGMENT
??_C@_0CG@EDKIFBIC@CWorld?3?3DeleteObj?5?3?5type?$DN?$CFd?5idx@ DB 'CWorl'
	DB	'd::DeleteObj : type=%d idx=%d %d', 00H	; `string'
CONST	ENDS
;	COMDAT ??_C@_0BK@DCGJKBFJ@CWorld?3?3DeleteObj?5?3?5?$CFs?5?$CFd@
CONST	SEGMENT
??_C@_0BK@DCGJKBFJ@CWorld?3?3DeleteObj?5?3?5?$CFs?5?$CFd@ DB 'CWorld::Del'
	DB	'eteObj : %s %d', 00H			; `string'
CONST	ENDS
;	COMDAT ??_C@_0CK@OMOEDGKP@CWorld?3?3AddObj?5world?5id?3?$CFd?5x?3?$CFf@
CONST	SEGMENT
??_C@_0CK@OMOEDGKP@CWorld?3?3AddObj?5world?5id?3?$CFd?5x?3?$CFf@ DB 'CWor'
	DB	'ld::AddObj world id:%d x:%f y:%f z:%f', 00H	; `string'
CONST	ENDS
;	COMDAT ??_C@_0CI@KCJBBNGD@CWorld?3?3AddObj?5obj?8s?5world?5is?5N@
CONST	SEGMENT
??_C@_0CI@KCJBBNGD@CWorld?3?3AddObj?5obj?8s?5world?5is?5N@ DB 'CWorld::Ad'
	DB	'dObj obj''s world is NOT NULL.', 00H	; `string'
CONST	ENDS
;	COMDAT ??_R1A@?0A@EA@?$CStack@K@@8
rdata$r	SEGMENT
??_R1A@?0A@EA@?$CStack@K@@8 DD FLAT:??_R0?AV?$CStack@K@@@8 ; CStack<unsigned long>::`RTTI Base Class Descriptor at (0,-1,0,64)'
	DD	00H
	DD	00H
	DD	0ffffffffH
	DD	00H
	DD	040H
	DD	FLAT:??_R3?$CStack@K@@8
rdata$r	ENDS
;	COMDAT ??_R2?$CStack@K@@8
rdata$r	SEGMENT
??_R2?$CStack@K@@8 DD FLAT:??_R1A@?0A@EA@?$CStack@K@@8	; CStack<unsigned long>::`RTTI Base Class Array'
rdata$r	ENDS
;	COMDAT ??_R3?$CStack@K@@8
rdata$r	SEGMENT
??_R3?$CStack@K@@8 DD 00H				; CStack<unsigned long>::`RTTI Class Hierarchy Descriptor'
	DD	00H
	DD	01H
	DD	FLAT:??_R2?$CStack@K@@8
rdata$r	ENDS
;	COMDAT ??_R0?AV?$CStack@K@@@8
data$rs	SEGMENT
??_R0?AV?$CStack@K@@@8 DD FLAT:??_7type_info@@6B@	; CStack<unsigned long> `RTTI Type Descriptor'
	DD	00H
	DB	'.?AV?$CStack@K@@', 00H
data$rs	ENDS
;	COMDAT ??_R4?$CStack@K@@6B@
rdata$r	SEGMENT
??_R4?$CStack@K@@6B@ DD 00H				; CStack<unsigned long>::`RTTI Complete Object Locator'
	DD	00H
	DD	00H
	DD	FLAT:??_R0?AV?$CStack@K@@@8
	DD	FLAT:??_R3?$CStack@K@@8
rdata$r	ENDS
;	COMDAT ??_R4bad_alloc@std@@6B@
rdata$r	SEGMENT
??_R4bad_alloc@std@@6B@ DD 00H				; std::bad_alloc::`RTTI Complete Object Locator'
	DD	00H
	DD	00H
	DD	FLAT:??_R0?AVbad_alloc@std@@@8
	DD	FLAT:??_R3bad_alloc@std@@8
rdata$r	ENDS
;	COMDAT ??_R2bad_alloc@std@@8
rdata$r	SEGMENT
??_R2bad_alloc@std@@8 DD FLAT:??_R1A@?0A@EA@bad_alloc@std@@8 ; std::bad_alloc::`RTTI Base Class Array'
	DD	FLAT:??_R1A@?0A@EA@exception@std@@8
rdata$r	ENDS
;	COMDAT ??_R3bad_alloc@std@@8
rdata$r	SEGMENT
??_R3bad_alloc@std@@8 DD 00H				; std::bad_alloc::`RTTI Class Hierarchy Descriptor'
	DD	00H
	DD	02H
	DD	FLAT:??_R2bad_alloc@std@@8
rdata$r	ENDS
;	COMDAT ??_R1A@?0A@EA@bad_alloc@std@@8
rdata$r	SEGMENT
??_R1A@?0A@EA@bad_alloc@std@@8 DD FLAT:??_R0?AVbad_alloc@std@@@8 ; std::bad_alloc::`RTTI Base Class Descriptor at (0,-1,0,64)'
	DD	01H
	DD	00H
	DD	0ffffffffH
	DD	00H
	DD	040H
	DD	FLAT:??_R3bad_alloc@std@@8
rdata$r	ENDS
;	COMDAT ??_R1A@?0A@EA@bad_array_new_length@std@@8
rdata$r	SEGMENT
??_R1A@?0A@EA@bad_array_new_length@std@@8 DD FLAT:??_R0?AVbad_array_new_length@std@@@8 ; std::bad_array_new_length::`RTTI Base Class Descriptor at (0,-1,0,64)'
	DD	02H
	DD	00H
	DD	0ffffffffH
	DD	00H
	DD	040H
	DD	FLAT:??_R3bad_array_new_length@std@@8
rdata$r	ENDS
;	COMDAT ??_R2bad_array_new_length@std@@8
rdata$r	SEGMENT
??_R2bad_array_new_length@std@@8 DD FLAT:??_R1A@?0A@EA@bad_array_new_length@std@@8 ; std::bad_array_new_length::`RTTI Base Class Array'
	DD	FLAT:??_R1A@?0A@EA@bad_alloc@std@@8
	DD	FLAT:??_R1A@?0A@EA@exception@std@@8
rdata$r	ENDS
;	COMDAT ??_R3bad_array_new_length@std@@8
rdata$r	SEGMENT
??_R3bad_array_new_length@std@@8 DD 00H			; std::bad_array_new_length::`RTTI Class Hierarchy Descriptor'
	DD	00H
	DD	03H
	DD	FLAT:??_R2bad_array_new_length@std@@8
rdata$r	ENDS
;	COMDAT ??_R4bad_array_new_length@std@@6B@
rdata$r	SEGMENT
??_R4bad_array_new_length@std@@6B@ DD 00H		; std::bad_array_new_length::`RTTI Complete Object Locator'
	DD	00H
	DD	00H
	DD	FLAT:??_R0?AVbad_array_new_length@std@@@8
	DD	FLAT:??_R3bad_array_new_length@std@@8
rdata$r	ENDS
;	COMDAT ??_R1A@?0A@EA@exception@std@@8
rdata$r	SEGMENT
??_R1A@?0A@EA@exception@std@@8 DD FLAT:??_R0?AVexception@std@@@8 ; std::exception::`RTTI Base Class Descriptor at (0,-1,0,64)'
	DD	00H
	DD	00H
	DD	0ffffffffH
	DD	00H
	DD	040H
	DD	FLAT:??_R3exception@std@@8
rdata$r	ENDS
;	COMDAT ??_R2exception@std@@8
rdata$r	SEGMENT
??_R2exception@std@@8 DD FLAT:??_R1A@?0A@EA@exception@std@@8 ; std::exception::`RTTI Base Class Array'
rdata$r	ENDS
;	COMDAT ??_R3exception@std@@8
rdata$r	SEGMENT
??_R3exception@std@@8 DD 00H				; std::exception::`RTTI Class Hierarchy Descriptor'
	DD	00H
	DD	01H
	DD	FLAT:??_R2exception@std@@8
rdata$r	ENDS
;	COMDAT ??_R4exception@std@@6B@
rdata$r	SEGMENT
??_R4exception@std@@6B@ DD 00H				; std::exception::`RTTI Complete Object Locator'
	DD	00H
	DD	00H
	DD	FLAT:??_R0?AVexception@std@@@8
	DD	FLAT:??_R3exception@std@@8
rdata$r	ENDS
;	COMDAT ??_C@_0DB@ILBMOCBP@C?3?2IAGOS?2server?2v18?2Source?2Sour@
CONST	SEGMENT
??_C@_0DB@ILBMOCBP@C?3?2IAGOS?2server?2v18?2Source?2Sour@ DB 'C:\IAGOS\se'
	DB	'rver\v18\Source\Source\_Common\data.h', 00H	; `string'
CONST	ENDS
;	COMDAT ??_C@_0BJ@GPNGCFMK@GetSkillProp?5range_error@
CONST	SEGMENT
??_C@_0BJ@GPNGCFMK@GetSkillProp?5range_error@ DB 'GetSkillProp range_erro'
	DB	'r', 00H					; `string'
CONST	ENDS
;	COMDAT ??_C@_0BI@BEIFNGEL@GetItemProp?5range_error@
CONST	SEGMENT
??_C@_0BI@BEIFNGEL@GetItemProp?5range_error@ DB 'GetItemProp range_error', 00H ; `string'
CONST	ENDS
;	COMDAT ??_C@_0BI@GDJNNIOA@GetCtrlProp?5range_error@
CONST	SEGMENT
??_C@_0BI@GDJNNIOA@GetCtrlProp?5range_error@ DB 'GetCtrlProp range_error', 00H ; `string'
CONST	ENDS
;	COMDAT ??_C@_0BM@HMFGHCP@?$CFs?5min?3?$CFd?0?5max?3?$CFd?0?5index?3?$CFd@
CONST	SEGMENT
??_C@_0BM@HMFGHCP@?$CFs?5min?3?$CFd?0?5max?3?$CFd?0?5index?3?$CFd@ DB '%s'
	DB	' min:%d, max:%d, index:%d', 00H		; `string'
CONST	ENDS
;	COMDAT ??_C@_06OJLEAOEG@?$CFs?0?5?$CFd@
CONST	SEGMENT
??_C@_06OJLEAOEG@?$CFs?0?5?$CFd@ DB '%s, %d', 00H	; `string'
CONST	ENDS
;	COMDAT ??_7?$CStack@K@@6B@
CONST	SEGMENT
??_7?$CStack@K@@6B@ DD FLAT:??_R4?$CStack@K@@6B@	; CStack<unsigned long>::`vftable'
	DD	FLAT:??_E?$CStack@K@@UAEPAXI@Z
CONST	ENDS
;	COMDAT ??_C@_0BB@GCADKGJO@map?1set?5too?5long@
CONST	SEGMENT
??_C@_0BB@GCADKGJO@map?1set?5too?5long@ DB 'map/set too long', 00H ; `string'
CONST	ENDS
;	COMDAT __CT??_R0?AVbad_alloc@std@@@8??0bad_alloc@std@@QAE@ABV01@@Z12
xdata$x	SEGMENT
__CT??_R0?AVbad_alloc@std@@@8??0bad_alloc@std@@QAE@ABV01@@Z12 DD 010H
	DD	FLAT:??_R0?AVbad_alloc@std@@@8
	DD	00H
	DD	0ffffffffH
	ORG $+4
	DD	0cH
	DD	FLAT:??0bad_alloc@std@@QAE@ABV01@@Z
xdata$x	ENDS
;	COMDAT ??_R0?AVbad_alloc@std@@@8
data$r	SEGMENT
??_R0?AVbad_alloc@std@@@8 DD FLAT:??_7type_info@@6B@	; std::bad_alloc `RTTI Type Descriptor'
	DD	00H
	DB	'.?AVbad_alloc@std@@', 00H
data$r	ENDS
;	COMDAT __CT??_R0?AVbad_array_new_length@std@@@8??0bad_array_new_length@std@@QAE@ABV01@@Z12
xdata$x	SEGMENT
__CT??_R0?AVbad_array_new_length@std@@@8??0bad_array_new_length@std@@QAE@ABV01@@Z12 DD 00H
	DD	FLAT:??_R0?AVbad_array_new_length@std@@@8
	DD	00H
	DD	0ffffffffH
	ORG $+4
	DD	0cH
	DD	FLAT:??0bad_array_new_length@std@@QAE@ABV01@@Z
xdata$x	ENDS
;	COMDAT ??_R0?AVbad_array_new_length@std@@@8
data$r	SEGMENT
??_R0?AVbad_array_new_length@std@@@8 DD FLAT:??_7type_info@@6B@ ; std::bad_array_new_length `RTTI Type Descriptor'
	DD	00H
	DB	'.?AVbad_array_new_length@std@@', 00H
data$r	ENDS
;	COMDAT __CTA3?AVbad_array_new_length@std@@
xdata$x	SEGMENT
__CTA3?AVbad_array_new_length@std@@ DD 03H
	DD	FLAT:__CT??_R0?AVbad_array_new_length@std@@@8??0bad_array_new_length@std@@QAE@ABV01@@Z12
	DD	FLAT:__CT??_R0?AVbad_alloc@std@@@8??0bad_alloc@std@@QAE@ABV01@@Z12
	DD	FLAT:__CT??_R0?AVexception@std@@@8??0exception@std@@QAE@ABV01@@Z12
xdata$x	ENDS
;	COMDAT __TI3?AVbad_array_new_length@std@@
xdata$x	SEGMENT
__TI3?AVbad_array_new_length@std@@ DD 00H
	DD	FLAT:??1bad_array_new_length@std@@UAE@XZ
	DD	00H
	DD	FLAT:__CTA3?AVbad_array_new_length@std@@
xdata$x	ENDS
;	COMDAT __CT??_R0?AVexception@std@@@8??0exception@std@@QAE@ABV01@@Z12
xdata$x	SEGMENT
__CT??_R0?AVexception@std@@@8??0exception@std@@QAE@ABV01@@Z12 DD 00H
	DD	FLAT:??_R0?AVexception@std@@@8
	DD	00H
	DD	0ffffffffH
	ORG $+4
	DD	0cH
	DD	FLAT:??0exception@std@@QAE@ABV01@@Z
xdata$x	ENDS
;	COMDAT ??_R0?AVexception@std@@@8
data$r	SEGMENT
??_R0?AVexception@std@@@8 DD FLAT:??_7type_info@@6B@	; std::exception `RTTI Type Descriptor'
	DD	00H
	DB	'.?AVexception@std@@', 00H
data$r	ENDS
;	COMDAT ??_C@_0BF@KINCDENJ@bad?5array?5new?5length@
CONST	SEGMENT
??_C@_0BF@KINCDENJ@bad?5array?5new?5length@ DB 'bad array new length', 00H ; `string'
CONST	ENDS
;	COMDAT ??_7bad_array_new_length@std@@6B@
CONST	SEGMENT
??_7bad_array_new_length@std@@6B@ DD FLAT:??_R4bad_array_new_length@std@@6B@ ; std::bad_array_new_length::`vftable'
	DD	FLAT:??_Ebad_array_new_length@std@@UAEPAXI@Z
	DD	FLAT:?what@exception@std@@UBEPBDXZ
CONST	ENDS
;	COMDAT ??_7bad_alloc@std@@6B@
CONST	SEGMENT
??_7bad_alloc@std@@6B@ DD FLAT:??_R4bad_alloc@std@@6B@	; std::bad_alloc::`vftable'
	DD	FLAT:??_Ebad_alloc@std@@UAEPAXI@Z
	DD	FLAT:?what@exception@std@@UBEPBDXZ
CONST	ENDS
;	COMDAT ??_C@_0BC@EOODALEL@Unknown?5exception@
CONST	SEGMENT
??_C@_0BC@EOODALEL@Unknown?5exception@ DB 'Unknown exception', 00H ; `string'
CONST	ENDS
;	COMDAT ??_7exception@std@@6B@
CONST	SEGMENT
??_7exception@std@@6B@ DD FLAT:??_R4exception@std@@6B@	; std::exception::`vftable'
	DD	FLAT:??_Eexception@std@@UAEPAXI@Z
	DD	FLAT:?what@exception@std@@UBEPBDXZ
CONST	ENDS
;	COMDAT xdata$x
xdata$x	SEGMENT
__unwindtable$??$?0ABUpiecewise_construct_t@std@@V?$tuple@ABK@1@V?$tuple@$$V@1@@?$_Tree_temp_node@V?$allocator@U?$_Tree_node@U?$pair@$$CBKPAVCUser@@@std@@PAX@std@@@std@@@std@@QAE@AAV?$allocator@U?$_Tree_node@U?$pair@$$CBKPAVCUser@@@std@@PAX@std@@@1@PAU?$_Tree_node@U?$pair@$$CBKPAVCUser@@@std@@PAX@1@ABUpiecewise_construct_t@1@$$QAV?$tuple@ABK@1@$$QAV?$tuple@$$V@1@@Z DD 0ffffffffH
	DD	FLAT:__unwindfunclet$??$?0ABUpiecewise_construct_t@std@@V?$tuple@ABK@1@V?$tuple@$$V@1@@?$_Tree_temp_node@V?$allocator@U?$_Tree_node@U?$pair@$$CBKPAVCUser@@@std@@PAX@std@@@std@@@std@@QAE@AAV?$allocator@U?$_Tree_node@U?$pair@$$CBKPAVCUser@@@std@@PAX@std@@@1@PAU?$_Tree_node@U?$pair@$$CBKPAVCUser@@@std@@PAX@1@ABUpiecewise_construct_t@1@$$QAV?$tuple@ABK@1@$$QAV?$tuple@$$V@1@@Z$1
__ehfuncinfo$??$?0ABUpiecewise_construct_t@std@@V?$tuple@ABK@1@V?$tuple@$$V@1@@?$_Tree_temp_node@V?$allocator@U?$_Tree_node@U?$pair@$$CBKPAVCUser@@@std@@PAX@std@@@std@@@std@@QAE@AAV?$allocator@U?$_Tree_node@U?$pair@$$CBKPAVCUser@@@std@@PAX@std@@@1@PAU?$_Tree_node@U?$pair@$$CBKPAVCUser@@@std@@PAX@1@ABUpiecewise_construct_t@1@$$QAV?$tuple@ABK@1@$$QAV?$tuple@$$V@1@@Z DD 019930522H
	DD	01H
	DD	FLAT:__unwindtable$??$?0ABUpiecewise_construct_t@std@@V?$tuple@ABK@1@V?$tuple@$$V@1@@?$_Tree_temp_node@V?$allocator@U?$_Tree_node@U?$pair@$$CBKPAVCUser@@@std@@PAX@std@@@std@@@std@@QAE@AAV?$allocator@U?$_Tree_node@U?$pair@$$CBKPAVCUser@@@std@@PAX@std@@@1@PAU?$_Tree_node@U?$pair@$$CBKPAVCUser@@@std@@PAX@1@ABUpiecewise_construct_t@1@$$QAV?$tuple@ABK@1@$$QAV?$tuple@$$V@1@@Z
	DD	2 DUP(00H)
	DD	2 DUP(00H)
	DD	00H
	DD	01H
xdata$x	ENDS
;	COMDAT xdata$x
xdata$x	SEGMENT
__unwindtable$??0?$_Tree_temp_node_alloc@V?$allocator@U?$_Tree_node@U?$pair@$$CBKPAVCUser@@@std@@PAX@std@@@std@@@std@@QAE@AAV?$allocator@U?$_Tree_node@U?$pair@$$CBKPAVCUser@@@std@@PAX@std@@@1@@Z DD 0ffffffffH
	DD	FLAT:__unwindfunclet$??0?$_Tree_temp_node_alloc@V?$allocator@U?$_Tree_node@U?$pair@$$CBKPAVCUser@@@std@@PAX@std@@@std@@@std@@QAE@AAV?$allocator@U?$_Tree_node@U?$pair@$$CBKPAVCUser@@@std@@PAX@std@@@1@@Z$0
__ehfuncinfo$??0?$_Tree_temp_node_alloc@V?$allocator@U?$_Tree_node@U?$pair@$$CBKPAVCUser@@@std@@PAX@std@@@std@@@std@@QAE@AAV?$allocator@U?$_Tree_node@U?$pair@$$CBKPAVCUser@@@std@@PAX@std@@@1@@Z DD 019930522H
	DD	01H
	DD	FLAT:__unwindtable$??0?$_Tree_temp_node_alloc@V?$allocator@U?$_Tree_node@U?$pair@$$CBKPAVCUser@@@std@@PAX@std@@@std@@@std@@QAE@AAV?$allocator@U?$_Tree_node@U?$pair@$$CBKPAVCUser@@@std@@PAX@std@@@1@@Z
	DD	2 DUP(00H)
	DD	2 DUP(00H)
	DD	00H
	DD	01H
xdata$x	ENDS
;	COMDAT xdata$x
xdata$x	SEGMENT
__unwindtable$??$_Try_emplace@ABK$$V@?$map@KPAVCUser@@U?$less@K@std@@V?$allocator@U?$pair@$$CBKPAVCUser@@@std@@@3@@std@@AAE?AU?$pair@PAU?$_Tree_node@U?$pair@$$CBKPAVCUser@@@std@@PAX@std@@_N@1@ABK@Z DD 0ffffffffH
	DD	FLAT:__unwindfunclet$??$_Try_emplace@ABK$$V@?$map@KPAVCUser@@U?$less@K@std@@V?$allocator@U?$pair@$$CBKPAVCUser@@@std@@@3@@std@@AAE?AU?$pair@PAU?$_Tree_node@U?$pair@$$CBKPAVCUser@@@std@@PAX@std@@_N@1@ABK@Z$2
__ehfuncinfo$??$_Try_emplace@ABK$$V@?$map@KPAVCUser@@U?$less@K@std@@V?$allocator@U?$pair@$$CBKPAVCUser@@@std@@@3@@std@@AAE?AU?$pair@PAU?$_Tree_node@U?$pair@$$CBKPAVCUser@@@std@@PAX@std@@_N@1@ABK@Z DD 019930522H
	DD	01H
	DD	FLAT:__unwindtable$??$_Try_emplace@ABK$$V@?$map@KPAVCUser@@U?$less@K@std@@V?$allocator@U?$pair@$$CBKPAVCUser@@@std@@@3@@std@@AAE?AU?$pair@PAU?$_Tree_node@U?$pair@$$CBKPAVCUser@@@std@@PAX@std@@_N@1@ABK@Z
	DD	2 DUP(00H)
	DD	2 DUP(00H)
	DD	00H
	DD	01H
xdata$x	ENDS
;	COMDAT xdata$x
xdata$x	SEGMENT
__unwindtable$?_replace@CWorld@@AAEXXZ DD 0ffffffffH
	DD	FLAT:__unwindfunclet$?_replace@CWorld@@AAEXXZ$3
	DD	0ffffffffH
	DD	FLAT:__unwindfunclet$?_replace@CWorld@@AAEXXZ$0
__ehfuncinfo$?_replace@CWorld@@AAEXXZ DD 019930522H
	DD	02H
	DD	FLAT:__unwindtable$?_replace@CWorld@@AAEXXZ
	DD	2 DUP(00H)
	DD	2 DUP(00H)
	DD	00H
	DD	01H
xdata$x	ENDS
;	COMDAT xdata$x
xdata$x	SEGMENT
__unwindtable$??1CWorld@@QAE@XZ DD 0ffffffffH
	DD	FLAT:___std_terminate
__ehfuncinfo$??1CWorld@@QAE@XZ DD 019930522H
	DD	01H
	DD	FLAT:__unwindtable$??1CWorld@@QAE@XZ
	DD	2 DUP(00H)
	DD	2 DUP(00H)
	DD	00H
	DD	05H
xdata$x	ENDS
;	COMDAT xdata$x
xdata$x	SEGMENT
__ehfuncinfo$??0CWorld@@QAE@XZ DD 019930522H
	DD	0aH
	DD	FLAT:__unwindtable$??0CWorld@@QAE@XZ
	DD	2 DUP(00H)
	DD	2 DUP(00H)
	DD	00H
	DD	01H
__unwindtable$??0CWorld@@QAE@XZ DD 0ffffffffH
	DD	FLAT:__unwindfunclet$??0CWorld@@QAE@XZ$0
	DD	00H
	DD	FLAT:__unwindfunclet$??0CWorld@@QAE@XZ$1
	DD	01H
	DD	FLAT:__unwindfunclet$??0CWorld@@QAE@XZ$2
	DD	02H
	DD	FLAT:__unwindfunclet$??0CWorld@@QAE@XZ$3
	DD	03H
	DD	FLAT:__unwindfunclet$??0CWorld@@QAE@XZ$4
	DD	04H
	DD	FLAT:__unwindfunclet$??0CWorld@@QAE@XZ$5
	DD	05H
	DD	FLAT:__unwindfunclet$??0CWorld@@QAE@XZ$6
	DD	06H
	DD	FLAT:__unwindfunclet$??0CWorld@@QAE@XZ$7
	DD	07H
	DD	FLAT:__unwindfunclet$??0CWorld@@QAE@XZ$8
	DD	08H
	DD	FLAT:__unwindfunclet$??0CWorld@@QAE@XZ$13
xdata$x	ENDS
;	COMDAT xdata$x
xdata$x	SEGMENT
__ehfuncinfo$??1WORLD_ENVIR_INFO@@QAE@XZ DD 019930522H
	DD	00H
	DD	00H
	DD	2 DUP(00H)
	DD	2 DUP(00H)
	DD	00H
	DD	05H
xdata$x	ENDS
;	COMDAT xdata$x
xdata$x	SEGMENT
__unwindtable$??0WORLD_ENVIR_INFO@@QAE@XZ DD 0ffffffffH
	DD	FLAT:__unwindfunclet$??0WORLD_ENVIR_INFO@@QAE@XZ$0
__ehfuncinfo$??0WORLD_ENVIR_INFO@@QAE@XZ DD 019930522H
	DD	01H
	DD	FLAT:__unwindtable$??0WORLD_ENVIR_INFO@@QAE@XZ
	DD	2 DUP(00H)
	DD	2 DUP(00H)
	DD	00H
	DD	01H
xdata$x	ENDS
;	COMDAT xdata$x
xdata$x	SEGMENT
__unwindtable$?PCSetAt@CCtrl@@QAEXKPAV1@@Z DD 0ffffffffH
	DD	FLAT:__unwindfunclet$?PCSetAt@CCtrl@@QAEXKPAV1@@Z$2
__ehfuncinfo$?PCSetAt@CCtrl@@QAEXKPAV1@@Z DD 019930522H
	DD	01H
	DD	FLAT:__unwindtable$?PCSetAt@CCtrl@@QAEXKPAV1@@Z
	DD	2 DUP(00H)
	DD	2 DUP(00H)
	DD	00H
	DD	01H
xdata$x	ENDS
;	COMDAT xdata$x
xdata$x	SEGMENT
__unwindtable$??A?$map@KPAVCUser@@U?$less@K@std@@V?$allocator@U?$pair@$$CBKPAVCUser@@@std@@@3@@std@@QAEAAPAVCUser@@ABK@Z DD 0ffffffffH
	DD	FLAT:__unwindfunclet$??A?$map@KPAVCUser@@U?$less@K@std@@V?$allocator@U?$pair@$$CBKPAVCUser@@@std@@@3@@std@@QAEAAPAVCUser@@ABK@Z$2
__ehfuncinfo$??A?$map@KPAVCUser@@U?$less@K@std@@V?$allocator@U?$pair@$$CBKPAVCUser@@@std@@@3@@std@@QAEAAPAVCUser@@ABK@Z DD 019930522H
	DD	01H
	DD	FLAT:__unwindtable$??A?$map@KPAVCUser@@U?$less@K@std@@V?$allocator@U?$pair@$$CBKPAVCUser@@@std@@@3@@std@@QAEAAPAVCUser@@ABK@Z
	DD	2 DUP(00H)
	DD	2 DUP(00H)
	DD	00H
	DD	01H
xdata$x	ENDS
; Function compile flags: /Ogtp
; File C:\Program Files\Microsoft Visual Studio\2022\Professional\VC\Tools\MSVC\14.44.35207\include\xmemory
;	COMDAT ??$_Allocate_manually_vector_aligned@U_Default_allocate_traits@std@@@std@@YAPAXI@Z
_TEXT	SEGMENT
__Bytes$ = 8						; size = 4
??$_Allocate_manually_vector_aligned@U_Default_allocate_traits@std@@@std@@YAPAXI@Z PROC ; std::_Allocate_manually_vector_aligned<std::_Default_allocate_traits>, COMDAT

; 182  : __declspec(allocator) void* _Allocate_manually_vector_aligned(const size_t _Bytes) {

  00000	55		 push	 ebp
  00001	8b ec		 mov	 ebp, esp

; 183  :     // allocate _Bytes manually aligned to at least _Big_allocation_alignment
; 184  :     const size_t _Block_size = _Non_user_size + _Bytes;

  00003	8b 45 08	 mov	 eax, DWORD PTR __Bytes$[ebp]
  00006	8d 48 23	 lea	 ecx, DWORD PTR [eax+35]

; 185  :     if (_Block_size <= _Bytes) {

  00009	3b c8		 cmp	 ecx, eax
  0000b	0f 86 00 00 00
	00		 jbe	 ?_Throw_bad_array_new_length@std@@YAXXZ ; std::_Throw_bad_array_new_length

; 136  :         return ::operator new(_Bytes);

  00011	51		 push	 ecx
  00012	e8 00 00 00 00	 call	 ??2@YAPAXI@Z		; operator new

; 186  :         _Throw_bad_array_new_length(); // add overflow
; 187  :     }
; 188  : 
; 189  :     const uintptr_t _Ptr_container = reinterpret_cast<uintptr_t>(_Traits::_Allocate(_Block_size));

  00017	8b c8		 mov	 ecx, eax

; 136  :         return ::operator new(_Bytes);

  00019	83 c4 04	 add	 esp, 4

; 190  :     _STL_VERIFY(_Ptr_container != 0, "invalid argument"); // validate even in release since we're doing p[-1]

  0001c	85 c9		 test	 ecx, ecx
  0001e	74 0b		 je	 SHORT $LN9@Allocate_m

; 191  :     void* const _Ptr = reinterpret_cast<void*>((_Ptr_container + _Non_user_size) & ~(_Big_allocation_alignment - 1));

  00020	8d 41 23	 lea	 eax, DWORD PTR [ecx+35]
  00023	83 e0 e0	 and	 eax, -32		; ffffffe0H

; 192  :     static_cast<uintptr_t*>(_Ptr)[-1] = _Ptr_container;

  00026	89 48 fc	 mov	 DWORD PTR [eax-4], ecx

; 193  : 
; 194  : #ifdef _DEBUG
; 195  :     static_cast<uintptr_t*>(_Ptr)[-2] = _Big_allocation_sentinel;
; 196  : #endif // defined(_DEBUG)
; 197  :     return _Ptr;
; 198  : }

  00029	5d		 pop	 ebp
  0002a	c3		 ret	 0
$LN9@Allocate_m:

; 190  :     _STL_VERIFY(_Ptr_container != 0, "invalid argument"); // validate even in release since we're doing p[-1]

  0002b	6a 00		 push	 0
  0002d	6a 00		 push	 0
  0002f	6a 00		 push	 0
  00031	6a 00		 push	 0
  00033	6a 00		 push	 0
  00035	e8 00 00 00 00	 call	 __invoke_watson
$LN7@Allocate_m:
  0003a	cc		 int	 3
??$_Allocate_manually_vector_aligned@U_Default_allocate_traits@std@@@std@@YAPAXI@Z ENDP ; std::_Allocate_manually_vector_aligned<std::_Default_allocate_traits>
_TEXT	ENDS
; Function compile flags: /Ogtp
; File C:\Program Files\Microsoft Visual Studio\2022\Professional\VC\Tools\MSVC\14.44.35207\include\xmemory
;	COMDAT ??1?$_Alloc_construct_ptr@V?$allocator@U?$_Tree_node@U?$pair@$$CBKPAVCUser@@@std@@PAX@std@@@std@@@std@@QAE@XZ
_TEXT	SEGMENT
??1?$_Alloc_construct_ptr@V?$allocator@U?$_Tree_node@U?$pair@$$CBKPAVCUser@@@std@@PAX@std@@@std@@@std@@QAE@XZ PROC ; std::_Alloc_construct_ptr<std::allocator<std::_Tree_node<std::pair<unsigned long const ,CUser *>,void *> > >::~_Alloc_construct_ptr<std::allocator<std::_Tree_node<std::pair<unsigned long const ,CUser *>,void *> > >, COMDAT
; _this$ = ecx

; 1172 :         if (_Ptr) {

  00000	8b 41 04	 mov	 eax, DWORD PTR [ecx+4]
  00003	85 c0		 test	 eax, eax
  00005	74 0b		 je	 SHORT $LN10@Alloc_cons

; 289  :         ::operator delete(_Ptr, _Bytes);

  00007	6a 18		 push	 24			; 00000018H
  00009	50		 push	 eax
  0000a	e8 00 00 00 00	 call	 ??3@YAXPAXI@Z		; operator delete
  0000f	83 c4 08	 add	 esp, 8
$LN10@Alloc_cons:

; 1173 :             _Al.deallocate(_Ptr, 1);
; 1174 :         }
; 1175 :     }

  00012	c3		 ret	 0
??1?$_Alloc_construct_ptr@V?$allocator@U?$_Tree_node@U?$pair@$$CBKPAVCUser@@@std@@PAX@std@@@std@@@std@@QAE@XZ ENDP ; std::_Alloc_construct_ptr<std::allocator<std::_Tree_node<std::pair<unsigned long const ,CUser *>,void *> > >::~_Alloc_construct_ptr<std::allocator<std::_Tree_node<std::pair<unsigned long const ,CUser *>,void *> > >
_TEXT	ENDS
; Function compile flags: /Ogtp
; File C:\IAGOS\server\v18\Source\Source\_Common\World.cpp
; File C:\IAGOS\server\v18\Source\Source\_Common\World.h
; File C:\IAGOS\server\v18\Source\Source\_Common\World.cpp
; File C:\IAGOS\server\v18\Source\Source\_Common\ticket.h
; File C:\IAGOS\server\v18\Source\Source\_Common\World.cpp
;	COMDAT ?Expand@CWorld@@QAEXXZ
_TEXT	SEGMENT
?Expand@CWorld@@QAEXXZ PROC				; CWorld::Expand, COMDAT
; _this$ = ecx

; 1983 : {

  00000	53		 push	 ebx
  00001	56		 push	 esi
  00002	8b d9		 mov	 ebx, ecx
  00004	57		 push	 edi

; 1984 : 	m_respawner.Expand( nDefaultLayer );

  00005	6a 00		 push	 0
  00007	8d 8b b8 30 08
	00		 lea	 ecx, DWORD PTR [ebx+536760]
  0000d	e8 00 00 00 00	 call	 ?Expand@CLayerdRespawner@@QAEXH@Z ; CLayerdRespawner::Expand
; File C:\IAGOS\server\v18\Source\Source\_Common\World.h

; 411  : 	DWORD			GetID()	{ return m_dwWorldID; }

  00012	8b 33		 mov	 esi, DWORD PTR [ebx]
; File C:\IAGOS\server\v18\Source\Source\_Common\World.cpp

; 1986 : 	int nExpand	= CTicketProperty::GetInstance()->GetExpanedLayer( GetID() );

  00014	e8 00 00 00 00	 call	 ?GetInstance@CTicketProperty@@SAPAV1@XZ ; CTicketProperty::GetInstance
; File C:\IAGOS\server\v18\Source\Source\_Common\ticket.h

; 39   : 	int		GetExpanedLayer( DWORD dwWorldId )	{	return m_lp.GetExpanedLayer( dwWorldId );	}

  00019	56		 push	 esi
  0001a	8d 48 0c	 lea	 ecx, DWORD PTR [eax+12]
  0001d	e8 00 00 00 00	 call	 ?GetExpanedLayer@CLayerProperty@@QAEHK@Z ; CLayerProperty::GetExpanedLayer
; File C:\IAGOS\server\v18\Source\Source\_Common\World.cpp

; 1986 : 	int nExpand	= CTicketProperty::GetInstance()->GetExpanedLayer( GetID() );

  00022	8b f8		 mov	 edi, eax

; 1987 : 	for( int nLayer = -1, i = 0; i < nExpand; i++, nLayer-- )

  00024	83 ce ff	 or	 esi, -1
  00027	85 ff		 test	 edi, edi
  00029	7e 13		 jle	 SHORT $LN3@Expand
  0002b	0f 1f 44 00 00	 npad	 5
$LL4@Expand:

; 1988 : 		CreateLayer( nLayer );

  00030	56		 push	 esi
  00031	8b cb		 mov	 ecx, ebx
  00033	e8 00 00 00 00	 call	 ?CreateLayer@CWorld@@QAEHH@Z ; CWorld::CreateLayer
  00038	4e		 dec	 esi
  00039	83 ef 01	 sub	 edi, 1
  0003c	75 f2		 jne	 SHORT $LL4@Expand
$LN3@Expand:
  0003e	5f		 pop	 edi

; 1989 : #endif	// __AZRIA_1023
; 1990 : }

  0003f	5e		 pop	 esi
  00040	5b		 pop	 ebx
  00041	c3		 ret	 0
?Expand@CWorld@@QAEXXZ ENDP				; CWorld::Expand
_TEXT	ENDS
; Function compile flags: /Ogtp
; File C:\IAGOS\server\v18\Source\Source\_Common\World.cpp
; File C:\IAGOS\server\v18\Source\Source\_Common\Project.h
; File C:\IAGOS\server\v18\Source\Source\_Common\data.h
; File C:\IAGOS\server\v18\Source\Source\_Common\World.cpp
; File C:\IAGOS\server\v18\Source\Source\_Common\Project.h
; File C:\IAGOS\server\v18\Source\Source\_Common\World.cpp
; File C:\IAGOS\server\v18\Source\Source\_Common\Project.h
; File C:\IAGOS\server\v18\Source\Source\_Common\data.h
; File C:\IAGOS\server\v18\Source\Source\_Common\World.cpp
; File C:\IAGOS\server\v18\Source\Source\_Common\Obj.h
; File C:\IAGOS\server\v18\Source\Source\DX_SDK\d3dx9math.inl
; File C:\IAGOS\server\v18\Source\Source\_Common\Obj.h
; File C:\IAGOS\server\v18\Source\Source\DX_SDK\d3dx9math.inl
; File C:\IAGOS\server\v18\Source\Source\_Common\World.cpp
; File C:\IAGOS\server\v18\Source\Source\DX_SDK\d3dx9math.inl
; File C:\IAGOS\server\v18\Source\Source\_Common\World.cpp
; File C:\IAGOS\server\v18\Source\Source\_Common\Obj.h
; File C:\IAGOS\server\v18\Source\Source\_AIInterface\Action.h
; File C:\IAGOS\server\v18\Source\Source\_Common\Mover.h
; File C:\IAGOS\server\v18\Source\Source\_Common\World.cpp
; File C:\IAGOS\server\v18\Source\Source\_AIInterface\ActionMover.h
; File C:\IAGOS\server\v18\Source\Source\_Common\World.cpp
; File C:\IAGOS\server\v18\Source\Source\_Common\Mover.h
; File C:\IAGOS\server\v18\Source\Source\_Common\World.cpp
; File C:\IAGOS\server\v18\Source\Source\_Common\Obj.h
; File C:\IAGOS\server\v18\Source\Source\DX_SDK\d3dx9math.inl
; File C:\IAGOS\server\v18\Source\Source\_Common\Obj.h
; File C:\IAGOS\server\v18\Source\Source\DX_SDK\d3dx9math.inl
; File C:\IAGOS\server\v18\Source\Source\_Common\World.cpp
; File C:\IAGOS\server\v18\Source\Source\DX_SDK\d3dx9math.inl
; File C:\IAGOS\server\v18\Source\Source\_Common\World.cpp
; File C:\IAGOS\server\v18\Source\Source\_Common\Obj.h
; File C:\IAGOS\server\v18\Source\Source\_AIInterface\Action.h
; File C:\IAGOS\server\v18\Source\Source\_Common\Mover.h
; File C:\IAGOS\server\v18\Source\Source\_Common\World.cpp
; File C:\IAGOS\server\v18\Source\Source\_AIInterface\ActionMover.h
; File C:\IAGOS\server\v18\Source\Source\_Common\World.cpp
; File C:\IAGOS\server\v18\Source\Source\_Common\Project.h
; File C:\IAGOS\server\v18\Source\Source\_Common\World.cpp
;	COMDAT ?SendDamageAround@CWorld@@QAEXPBUD3DXVECTOR3@@HPAVCMover@@HHM@Z
_TEXT	SEGMENT
$T1 = -112						; size = 12
$T2 = -112						; size = 12
_vPos$ = -100						; size = 12
tv1510 = -88						; size = 8
tv1646 = -84						; size = 4
tv1659 = -84						; size = 4
tv1511 = -80						; size = 8
__nX$1$ = -76						; size = 4
__pObjs$1$ = -76					; size = 4
tv1633 = -76						; size = 4
tv1512 = -72						; size = 8
tv1664 = -68						; size = 4
tv1655 = -68						; size = 4
tv1666 = -64						; size = 4
tv1653 = -64						; size = 4
tv1661 = -60						; size = 4
tv1668 = -60						; size = 4
tv1670 = -56						; size = 4
__pObjs$1$ = -56					; size = 4
__nLinkX$1$ = -52					; size = 4
tv1702 = -52						; size = 4
__nX$1$ = -48						; size = 4
__nLinkZ$1$ = -48					; size = 4
$T3 = -48						; size = 4
__j$1$ = -44						; size = 4
tv1617 = -44						; size = 4
tv1677 = -44						; size = 4
tv1707 = -40						; size = 4
tv1706 = -40						; size = 4
__k$1$ = -36						; size = 4
__k$1$ = -36						; size = 4
tv1715 = -32						; size = 4
tv1718 = -32						; size = 4
tv1630 = -28						; size = 4
__j$1$ = -28						; size = 4
__nLinkZ$1$ = -24					; size = 4
$T4 = -24						; size = 4
__nLinkX$1$ = -20					; size = 4
__i$1$ = -20						; size = 4
__i$1$ = -16						; size = 4
__nMaxWidth$1$ = -16					; size = 4
__nMaxWidth$1$ = -12					; size = 4
_nRange$1$ = -8						; size = 4
_this$1$ = -4						; size = 4
_pvPos$ = 8						; size = 4
_pProp$1$ = 8						; size = 4
_nDmgType$ = 12						; size = 4
_pAttacker$ = 16					; size = 4
_nApplyType$ = 20					; size = 4
tv1657 = 20						; size = 4
_nAttackID$ = 24					; size = 4
_fRange$ = 28						; size = 4
?SendDamageAround@CWorld@@QAEXPBUD3DXVECTOR3@@HPAVCMover@@HHM@Z PROC ; CWorld::SendDamageAround, COMDAT
; _this$ = ecx

; 1790 : {

  00000	55		 push	 ebp
  00001	8b ec		 mov	 ebp, esp
  00003	83 ec 70	 sub	 esp, 112		; 00000070H

; 1791 : #ifdef __WORLDSERVER
; 1792 : 	int nRange	= 4;	// 4, 8, 16 ´ÜŔ§·Î łÖŔÚ.
; 1793 : 	float fDistSq;
; 1794 : 	CObj* pObj;
; 1795 : 	CMover *pTarget;
; 1796 : 	D3DXVECTOR3 vPos = *pvPos;

  00006	8b 55 08	 mov	 edx, DWORD PTR _pvPos$[ebp]

; 1797 : 	D3DXVECTOR3 vDist;
; 1798 : 
; 1799 : 	if( fRange <= 4.0f )

  00009	f3 0f 10 4d 1c	 movss	 xmm1, DWORD PTR _fRange$[ebp]
  0000e	53		 push	 ebx
  0000f	56		 push	 esi
  00010	f3 0f 7e 02	 movq	 xmm0, QWORD PTR [edx]
  00014	8b 42 08	 mov	 eax, DWORD PTR [edx+8]
  00017	66 0f d6 45 9c	 movq	 QWORD PTR _vPos$[ebp], xmm0
  0001c	f3 0f 10 05 00
	00 00 00	 movss	 xmm0, DWORD PTR __real@40800000
  00024	0f 2f c1	 comiss	 xmm0, xmm1
  00027	57		 push	 edi
  00028	89 4d fc	 mov	 DWORD PTR _this$1$[ebp], ecx
  0002b	89 45 a4	 mov	 DWORD PTR _vPos$[ebp+8], eax
  0002e	72 07		 jb	 SHORT $LN24@SendDamage

; 1800 : 		nRange = 4;

  00030	bf 04 00 00 00	 mov	 edi, 4
  00035	eb 40		 jmp	 SHORT $LN217@SendDamage
$LN24@SendDamage:

; 1801 : 	else if( fRange <= 8.0f )

  00037	f3 0f 10 05 00
	00 00 00	 movss	 xmm0, DWORD PTR __real@41000000
  0003f	0f 2f c1	 comiss	 xmm0, xmm1
  00042	72 07		 jb	 SHORT $LN26@SendDamage

; 1802 : 		nRange = 8;

  00044	bf 08 00 00 00	 mov	 edi, 8
  00049	eb 2c		 jmp	 SHORT $LN217@SendDamage
$LN26@SendDamage:

; 1803 : 	else if( fRange <= 16.0f )

  0004b	f3 0f 10 05 00
	00 00 00	 movss	 xmm0, DWORD PTR __real@41800000
  00053	0f 2f c1	 comiss	 xmm0, xmm1
  00056	72 07		 jb	 SHORT $LN28@SendDamage

; 1804 : 		nRange = 16;

  00058	bf 10 00 00 00	 mov	 edi, 16			; 00000010H
  0005d	eb 18		 jmp	 SHORT $LN217@SendDamage
$LN28@SendDamage:

; 1805 : 	else if( fRange <= 32.0f )

  0005f	f3 0f 10 05 00
	00 00 00	 movss	 xmm0, DWORD PTR __real@42000000
  00067	bf 40 00 00 00	 mov	 edi, 64			; 00000040H
  0006c	0f 2f c1	 comiss	 xmm0, xmm1
  0006f	b8 20 00 00 00	 mov	 eax, 32			; 00000020H
  00074	0f 43 f8	 cmovae	 edi, eax
$LN217@SendDamage:

; 1806 : 		nRange = 32;
; 1807 : 	else
; 1808 : 		nRange = 64;
; 1809 : 
; 1810 : 	if( fRange <= 0 )	// ąüŔ§°ˇ 0ŔĚ°ĹłŞ Ŕ˝ĽöŔĎĽö´Â ľř´Ů.

  00077	8b 75 18	 mov	 esi, DWORD PTR _nAttackID$[ebp]
  0007a	0f 57 c0	 xorps	 xmm0, xmm0
  0007d	0f 2f c1	 comiss	 xmm0, xmm1
  00080	8b 5d 10	 mov	 ebx, DWORD PTR _pAttacker$[ebp]
  00083	89 7d f8	 mov	 DWORD PTR _nRange$1$[ebp], edi
  00086	72 6f		 jb	 SHORT $LN32@SendDamage

; 1811 : 		Error( "CWorld::SendDamageAround : D:%d,%d,%d A:%s %d %f", pvPos->x, pvPos->y, pvPos->z, pAttacker->GetName(), nAttackID, fRange );

  00088	f3 0f 10 42 08	 movss	 xmm0, DWORD PTR [edx+8]
  0008d	83 ec 08	 sub	 esp, 8
  00090	0f 5a c0	 cvtps2pd xmm0, xmm0
  00093	8b cb		 mov	 ecx, ebx
  00095	f2 0f 11 45 a8	 movsd	 QWORD PTR tv1510[ebp], xmm0
  0009a	f3 0f 10 42 04	 movss	 xmm0, DWORD PTR [edx+4]
  0009f	0f 5a c0	 cvtps2pd xmm0, xmm0
  000a2	f2 0f 11 45 b0	 movsd	 QWORD PTR tv1511[ebp], xmm0
  000a7	f3 0f 10 02	 movss	 xmm0, DWORD PTR [edx]
  000ab	0f 5a c0	 cvtps2pd xmm0, xmm0
  000ae	f2 0f 11 45 b8	 movsd	 QWORD PTR tv1512[ebp], xmm0
  000b3	0f 5a c1	 cvtps2pd xmm0, xmm1
  000b6	f2 0f 11 04 24	 movsd	 QWORD PTR [esp], xmm0
  000bb	56		 push	 esi
  000bc	6a 00		 push	 0
  000be	e8 00 00 00 00	 call	 ?GetName@CMover@@QAEPBDH@Z ; CMover::GetName
  000c3	f2 0f 10 45 a8	 movsd	 xmm0, QWORD PTR tv1510[ebp]
  000c8	50		 push	 eax
  000c9	83 ec 18	 sub	 esp, 24			; 00000018H
  000cc	f2 0f 11 44 24
	10		 movsd	 QWORD PTR [esp+16], xmm0
  000d2	f2 0f 10 45 b0	 movsd	 xmm0, QWORD PTR tv1511[ebp]
  000d7	f2 0f 11 44 24
	08		 movsd	 QWORD PTR [esp+8], xmm0
  000dd	f2 0f 10 45 b8	 movsd	 xmm0, QWORD PTR tv1512[ebp]
  000e2	f2 0f 11 04 24	 movsd	 QWORD PTR [esp], xmm0
  000e7	68 00 00 00 00	 push	 OFFSET ??_C@_0DB@DMPELOAC@CWorld?3?3SendDamageAround?5?3?5D?3?$CFd@
  000ec	e8 00 00 00 00	 call	 ?Error@@YAPBDPBDZZ	; Error
  000f1	8b 4d fc	 mov	 ecx, DWORD PTR _this$1$[ebp]
  000f4	83 c4 2c	 add	 esp, 44			; 0000002cH
$LN32@SendDamage:

; 1812 : 
; 1813 : 	ItemProp* pProp;
; 1814 : 	if( nDmgType == AF_MAGICSKILL )

  000f7	83 7d 0c 20	 cmp	 DWORD PTR _nDmgType$[ebp], 32 ; 00000020H
  000fb	75 5b		 jne	 SHORT $LN124@SendDamage
; File C:\IAGOS\server\v18\Source\Source\_Common\Project.h

; 1395 : 	VERIFY_RANGE( nIndex, 0, m_aPropSkill.GetSize(), "GetSkillProp range_error", NULL );

  000fd	a1 64 02 00 00	 mov	 eax, DWORD PTR ?prj@@3VCProject@@A+612
  00102	85 f6		 test	 esi, esi
  00104	78 1b		 js	 SHORT $LN114@SendDamage
  00106	3b f0		 cmp	 esi, eax
  00108	7d 17		 jge	 SHORT $LN114@SendDamage
; File C:\IAGOS\server\v18\Source\Source\_Common\data.h

; 270  : 	if( dwIndex >= (DWORD)m_nMaxIndex )

  0010a	72 04		 jb	 SHORT $LN119@SendDamage

; 271  : 		return NULL;

  0010c	33 c0		 xor	 eax, eax
  0010e	eb 08		 jmp	 SHORT $LN218@SendDamage
$LN119@SendDamage:

; 272  : 	return (T*) m_apOffset[ dwIndex ];

  00110	a1 54 02 00 00	 mov	 eax, DWORD PTR ?prj@@3VCProject@@A+596
  00115	8b 04 b0	 mov	 eax, DWORD PTR [eax+esi*4]
$LN218@SendDamage:
; File C:\IAGOS\server\v18\Source\Source\_Common\World.cpp

; 1817 : 		if( pProp == NULL )

  00118	89 45 08	 mov	 DWORD PTR _pProp$1$[ebp], eax
  0011b	85 c0		 test	 eax, eax
  0011d	75 67		 jne	 SHORT $LN36@SendDamage
  0011f	eb 16		 jmp	 SHORT $LN170@SendDamage
$LN114@SendDamage:
; File C:\IAGOS\server\v18\Source\Source\_Common\Project.h

; 579  : 	LPCTSTR szErr = Error( _T( "%s min:%d, max:%d, index:%d" ), szMsg, nMin, nMax, nIndex ); 

  00121	56		 push	 esi
  00122	50		 push	 eax
  00123	6a 00		 push	 0
  00125	68 00 00 00 00	 push	 OFFSET ??_C@_0BJ@GPNGCFMK@GetSkillProp?5range_error@
  0012a	68 00 00 00 00	 push	 OFFSET ??_C@_0BM@HMFGHCP@?$CFs?5min?3?$CFd?0?5max?3?$CFd?0?5index?3?$CFd@
  0012f	e8 00 00 00 00	 call	 ?Error@@YAPBDPBDZZ	; Error
  00134	83 c4 14	 add	 esp, 20			; 00000014H
$LN170@SendDamage:
; File C:\IAGOS\server\v18\Source\Source\_Common\World.cpp

; 1819 : 			Error( "CWorld::SendDamageAround : %s. ˝şĹł(%d)ŔÇ ÇÁ·ÎĆŰĆĽ°ˇ ľ÷¤˛´Ů.", pAttacker->GetName(), nAttackID );

  00137	56		 push	 esi
  00138	6a 00		 push	 0
  0013a	8b cb		 mov	 ecx, ebx
  0013c	e8 00 00 00 00	 call	 ?GetName@CMover@@QAEPBDH@Z ; CMover::GetName
  00141	50		 push	 eax
  00142	68 00 00 00 00	 push	 OFFSET ??_C@_0DN@ECMLCJLF@CWorld?3?3SendDamageAround?5?3?5?$CFs?4?5@

; 1901 : 	}
; 1902 : 		
; 1903 : #endif // WORLDSERVER		
; 1904 : } // SendDamageAround()

  00147	e8 00 00 00 00	 call	 ?Error@@YAPBDPBDZZ	; Error
  0014c	83 c4 0c	 add	 esp, 12			; 0000000cH
  0014f	5f		 pop	 edi
  00150	5e		 pop	 esi
  00151	5b		 pop	 ebx
  00152	8b e5		 mov	 esp, ebp
  00154	5d		 pop	 ebp
  00155	c2 18 00	 ret	 24			; 00000018H
$LN124@SendDamage:
; File C:\IAGOS\server\v18\Source\Source\_Common\Project.h

; 1389 : 	VERIFY_RANGE_ASSERT( nIndex, 0, m_aPropItem.GetSize(), "GetItemProp range_error", NULL );

  00158	a1 40 02 00 00	 mov	 eax, DWORD PTR ?prj@@3VCProject@@A+576
  0015d	85 f6		 test	 esi, esi
  0015f	0f 88 02 06 00
	00		 js	 $LN126@SendDamage
  00165	3b f0		 cmp	 esi, eax
  00167	0f 8d fa 05 00
	00		 jge	 $LN126@SendDamage
; File C:\IAGOS\server\v18\Source\Source\_Common\data.h

; 270  : 	if( dwIndex >= (DWORD)m_nMaxIndex )

  0016d	72 04		 jb	 SHORT $LN131@SendDamage

; 271  : 		return NULL;

  0016f	33 c0		 xor	 eax, eax
  00171	eb 08		 jmp	 SHORT $LN220@SendDamage
$LN131@SendDamage:

; 272  : 	return (T*) m_apOffset[ dwIndex ];

  00173	a1 30 02 00 00	 mov	 eax, DWORD PTR ?prj@@3VCProject@@A+560
  00178	8b 04 b0	 mov	 eax, DWORD PTR [eax+esi*4]
$LN220@SendDamage:
; File C:\IAGOS\server\v18\Source\Source\_Common\World.cpp

; 1825 : 		if( pProp == NULL )

  0017b	89 45 08	 mov	 DWORD PTR _pProp$1$[ebp], eax
  0017e	85 c0		 test	 eax, eax
  00180	0f 84 f7 05 00
	00		 je	 $LN169@SendDamage
$LN36@SendDamage:

; 1828 : 			return;	// property not found
; 1829 : 		}
; 1830 : 	}
; 1831 : 	
; 1832 : 	BOOL	bDamage = FALSE;
; 1833 : 
; 1834 : 	if( nApplyType & OBJTYPE_PLAYER )	// Ŕűżë´ë»óŔĚ ÇĂ·ąŔĚľîŔÎ°ˇ 

  00186	8b 45 14	 mov	 eax, DWORD PTR _nApplyType$[ebp]
  00189	f3 0f 10 55 a4	 movss	 xmm2, DWORD PTR _vPos$[ebp+8]
  0018e	f3 0f 10 45 9c	 movss	 xmm0, DWORD PTR _vPos$[ebp]
  00193	a8 01		 test	 al, 1
  00195	0f 84 e0 02 00
	00		 je	 $LN3@SendDamage

; 1835 : 	{
; 1836 : 		FOR_LINKMAP( this, vPos, pObj, nRange, CObj::linkPlayer, pAttacker->GetLayer() )

  0019b	66 0f 6e 49 14	 movd	 xmm1, DWORD PTR [ecx+20]
  001a0	33 f6		 xor	 esi, esi
  001a2	0f 5b c9	 cvtdq2ps xmm1, xmm1
  001a5	83 c1 24	 add	 ecx, 36			; 00000024H
  001a8	89 75 f0	 mov	 DWORD PTR __i$1$[ebp], esi
  001ab	89 4d cc	 mov	 DWORD PTR tv1702[ebp], ecx
  001ae	ff b3 b8 01 00
	00		 push	 DWORD PTR [ebx+440]
  001b4	f3 0f 5e c1	 divss	 xmm0, xmm1
  001b8	6a 02		 push	 2
  001ba	f3 0f 2c c0	 cvttss2si eax, xmm0
  001be	0f 28 c2	 movaps	 xmm0, xmm2
  001c1	f3 0f 5e c1	 divss	 xmm0, xmm1
  001c5	89 45 ec	 mov	 DWORD PTR __nLinkX$1$[ebp], eax
  001c8	f3 0f 2c c0	 cvttss2si eax, xmm0
  001cc	89 45 e8	 mov	 DWORD PTR __nLinkZ$1$[ebp], eax
  001cf	e8 00 00 00 00	 call	 ?GetMaxLinkLevel@CLayeredLinkMap@@QAEHKH@Z ; CLayeredLinkMap::GetMaxLinkLevel
  001d4	85 c0		 test	 eax, eax
  001d6	0f 8e 92 02 00
	00		 jle	 $LN173@SendDamage
  001dc	8b 45 ec	 mov	 eax, DWORD PTR __nLinkX$1$[ebp]
  001df	8b c8		 mov	 ecx, eax
  001e1	2b cf		 sub	 ecx, edi
  001e3	89 4d c8	 mov	 DWORD PTR tv1670[ebp], ecx
  001e6	8b 4d e8	 mov	 ecx, DWORD PTR __nLinkZ$1$[ebp]
  001e9	8b d1		 mov	 edx, ecx
  001eb	2b d7		 sub	 edx, edi
  001ed	03 c7		 add	 eax, edi
  001ef	89 45 c0	 mov	 DWORD PTR tv1666[ebp], eax
  001f2	89 55 c4	 mov	 DWORD PTR tv1668[ebp], edx
  001f5	8d 04 39	 lea	 eax, DWORD PTR [ecx+edi]
  001f8	8b 7d cc	 mov	 edi, DWORD PTR tv1702[ebp]
  001fb	89 45 bc	 mov	 DWORD PTR tv1664[ebp], eax
  001fe	66 90		 npad	 2
$LL4@SendDamage:
  00200	ff b3 b8 01 00
	00		 push	 DWORD PTR [ebx+440]
  00206	8b cf		 mov	 ecx, edi
  00208	56		 push	 esi
  00209	6a 02		 push	 2
  0020b	e8 00 00 00 00	 call	 ?GetLinkWidth@CLayeredLinkMap@@QAEHKHH@Z ; CLayeredLinkMap::GetLinkWidth
  00210	ff b3 b8 01 00
	00		 push	 DWORD PTR [ebx+440]
  00216	8b cf		 mov	 ecx, edi
  00218	8b f0		 mov	 esi, eax
  0021a	ff 75 f0	 push	 DWORD PTR __i$1$[ebp]
  0021d	6a 02		 push	 2
  0021f	e8 00 00 00 00	 call	 ?GetObj@CLayeredLinkMap@@QAEPAPAVCObj@@KKH@Z ; CLayeredLinkMap::GetObj
  00224	8b 4d fc	 mov	 ecx, DWORD PTR _this$1$[ebp]
  00227	89 45 b4	 mov	 DWORD PTR __pObjs$1$[ebp], eax
  0022a	8b 41 04	 mov	 eax, DWORD PTR [ecx+4]
  0022d	8b d8		 mov	 ebx, eax
  0022f	c1 e0 07	 shl	 eax, 7
  00232	99		 cdq
  00233	0f af de	 imul	 ebx, esi
  00236	8b 49 08	 mov	 ecx, DWORD PTR [ecx+8]
  00239	0f af ce	 imul	 ecx, esi
  0023c	8b 75 fc	 mov	 esi, DWORD PTR _this$1$[ebp]
  0023f	f7 fb		 idiv	 ebx
  00241	8b 76 14	 mov	 esi, DWORD PTR [esi+20]
  00244	8b f8		 mov	 edi, eax
  00246	89 4d d4	 mov	 DWORD PTR tv1677[ebp], ecx
  00249	8b c6		 mov	 eax, esi
  0024b	89 5d f4	 mov	 DWORD PTR __nMaxWidth$1$[ebp], ebx
  0024e	0f af c7	 imul	 eax, edi
  00251	99		 cdq
  00252	2b c2		 sub	 eax, edx
  00254	8b c8		 mov	 ecx, eax
  00256	8b 45 ec	 mov	 eax, DWORD PTR __nLinkX$1$[ebp]
  00259	99		 cdq
  0025a	f7 ff		 idiv	 edi
  0025c	f3 0f 2c 45 9c	 cvttss2si eax, DWORD PTR _vPos$[ebp]
  00261	2b 55 ec	 sub	 edx, DWORD PTR __nLinkX$1$[ebp]
  00264	d1 f9		 sar	 ecx, 1
  00266	0f af d6	 imul	 edx, esi
  00269	03 d0		 add	 edx, eax
  0026b	33 c0		 xor	 eax, eax
  0026d	3b d1		 cmp	 edx, ecx
  0026f	0f 9f c0	 setg	 al
  00272	33 db		 xor	 ebx, ebx
  00274	89 45 d0	 mov	 DWORD PTR __nX$1$[ebp], eax
  00277	8b 45 e8	 mov	 eax, DWORD PTR __nLinkZ$1$[ebp]
  0027a	99		 cdq
  0027b	f7 ff		 idiv	 edi
  0027d	f3 0f 2c 45 a4	 cvttss2si eax, DWORD PTR _vPos$[ebp+8]
  00282	2b 55 e8	 sub	 edx, DWORD PTR __nLinkZ$1$[ebp]
  00285	0f af d6	 imul	 edx, esi
  00288	03 d0		 add	 edx, eax
  0028a	8b 45 c8	 mov	 eax, DWORD PTR tv1670[ebp]
  0028d	3b d1		 cmp	 edx, ecx
  0028f	99		 cdq
  00290	0f 9f c3	 setg	 bl
  00293	33 c9		 xor	 ecx, ecx
  00295	f7 ff		 idiv	 edi
  00297	48		 dec	 eax
  00298	03 45 d0	 add	 eax, DWORD PTR __nX$1$[ebp]
  0029b	0f 49 c8	 cmovns	 ecx, eax
  0029e	8b 45 c4	 mov	 eax, DWORD PTR tv1668[ebp]
  002a1	99		 cdq
  002a2	f7 ff		 idiv	 edi
  002a4	89 4d dc	 mov	 DWORD PTR __k$1$[ebp], ecx
  002a7	8d 4b ff	 lea	 ecx, DWORD PTR [ebx-1]
  002aa	03 c8		 add	 ecx, eax
  002ac	8b 45 c0	 mov	 eax, DWORD PTR tv1666[ebp]
  002af	99		 cdq
  002b0	f7 ff		 idiv	 edi
  002b2	8b 55 f4	 mov	 edx, DWORD PTR __nMaxWidth$1$[ebp]
  002b5	03 45 d0	 add	 eax, DWORD PTR __nX$1$[ebp]
  002b8	3b c2		 cmp	 eax, edx
  002ba	8d 72 ff	 lea	 esi, DWORD PTR [edx-1]
  002bd	0f 4c f0	 cmovl	 esi, eax
  002c0	8b 45 bc	 mov	 eax, DWORD PTR tv1664[ebp]
  002c3	99		 cdq
  002c4	f7 ff		 idiv	 edi
  002c6	8b 55 d4	 mov	 edx, DWORD PTR tv1677[ebp]
  002c9	03 c3		 add	 eax, ebx
  002cb	89 75 ac	 mov	 DWORD PTR tv1646[ebp], esi
  002ce	8d 5a ff	 lea	 ebx, DWORD PTR [edx-1]
  002d1	3b c2		 cmp	 eax, edx
  002d3	0f 4c d8	 cmovl	 ebx, eax
  002d6	33 d2		 xor	 edx, edx
  002d8	85 c9		 test	 ecx, ecx
  002da	89 5d d8	 mov	 DWORD PTR tv1706[ebp], ebx
  002dd	0f 49 d1	 cmovns	 edx, ecx
  002e0	89 55 d4	 mov	 DWORD PTR __j$1$[ebp], edx
  002e3	3b d3		 cmp	 edx, ebx
  002e5	0f 8f 5f 01 00
	00		 jg	 $LN2@SendDamage
  002eb	8b 4d f4	 mov	 ecx, DWORD PTR __nMaxWidth$1$[ebp]
  002ee	8b c2		 mov	 eax, edx
  002f0	8b 5d dc	 mov	 ebx, DWORD PTR __k$1$[ebp]
  002f3	8b 7d d8	 mov	 edi, DWORD PTR tv1706[ebp]
  002f6	0f af c1	 imul	 eax, ecx
  002f9	03 c3		 add	 eax, ebx
  002fb	89 45 d0	 mov	 DWORD PTR $T3[ebp], eax
  002fe	66 90		 npad	 2
$LL7@SendDamage:
  00300	3b de		 cmp	 ebx, esi
  00302	0f 8f 31 01 00
	00		 jg	 $LN5@SendDamage
  00308	8b 4d b4	 mov	 ecx, DWORD PTR __pObjs$1$[ebp]
  0030b	8b d6		 mov	 edx, esi
  0030d	2b d3		 sub	 edx, ebx
  0030f	42		 inc	 edx
  00310	89 55 e0	 mov	 DWORD PTR tv1718[ebp], edx
  00313	8d 0c 81	 lea	 ecx, DWORD PTR [ecx+eax*4]
  00316	89 4d e4	 mov	 DWORD PTR tv1630[ebp], ecx
  00319	0f 1f 80 00 00
	00 00		 npad	 7
$LL10@SendDamage:
  00320	8b 31		 mov	 esi, DWORD PTR [ecx]
  00322	bf e8 03 00 00	 mov	 edi, 1000		; 000003e8H
  00327	85 f6		 test	 esi, esi
  00329	0f 84 e6 00 00
	00		 je	 $LN8@SendDamage
  0032f	90		 npad	 1
$LL11@SendDamage:
  00330	8b c7		 mov	 eax, edi
  00332	4f		 dec	 edi
  00333	85 c0		 test	 eax, eax
  00335	0f 84 d4 00 00
	00		 je	 $LN171@SendDamage

; 1837 : 		{
; 1838 : 			if( pObj->GetType() == OT_MOVER )

  0033b	83 be 70 01 00
	00 05		 cmp	 DWORD PTR [esi+368], 5
  00342	0f 85 b9 00 00
	00		 jne	 $LN50@SendDamage
; File C:\IAGOS\server\v18\Source\Source\_Common\Obj.h

; 215  : 	D3DXVECTOR3		GetPos()	{ return m_vPos; }

  00348	f3 0f 7e 86 60
	01 00 00	 movq	 xmm0, QWORD PTR [esi+352]
  00350	8b 86 68 01 00
	00		 mov	 eax, DWORD PTR [esi+360]
  00356	66 0f d6 45 90	 movq	 QWORD PTR $T1[ebp], xmm0
; File C:\IAGOS\server\v18\Source\Source\DX_SDK\d3dx9math.inl

; 383  :     return D3DXVECTOR3(x - v.x, y - v.y, z - v.z);

  0035b	f3 0f 10 4d 90	 movss	 xmm1, DWORD PTR $T1[ebp]
  00360	f3 0f 10 55 94	 movss	 xmm2, DWORD PTR $T1[ebp+4]
  00365	f3 0f 5c 55 a0	 subss	 xmm2, DWORD PTR _vPos$[ebp+4]
  0036a	f3 0f 5c 4d 9c	 subss	 xmm1, DWORD PTR _vPos$[ebp]
; File C:\IAGOS\server\v18\Source\Source\_Common\Obj.h

; 215  : 	D3DXVECTOR3		GetPos()	{ return m_vPos; }

  0036f	89 45 98	 mov	 DWORD PTR $T1[ebp+8], eax
; File C:\IAGOS\server\v18\Source\Source\DX_SDK\d3dx9math.inl

; 383  :     return D3DXVECTOR3(x - v.x, y - v.y, z - v.z);

  00372	f3 0f 10 45 98	 movss	 xmm0, DWORD PTR $T1[ebp+8]
  00377	f3 0f 5c 45 a4	 subss	 xmm0, DWORD PTR _vPos$[ebp+8]

; 1698 :     return pV->x * pV->x + pV->y * pV->y + pV->z * pV->z;

  0037c	f3 0f 59 d2	 mulss	 xmm2, xmm2
; File C:\IAGOS\server\v18\Source\Source\_Common\World.cpp

; 1851 : 					vDist = pObj->GetPos() - vPos;		// this -> Ĺ¸°Ů±îÁöŔÇ ş¤ĹÍ

  00380	f3 0f 59 c9	 mulss	 xmm1, xmm1
; File C:\IAGOS\server\v18\Source\Source\DX_SDK\d3dx9math.inl

; 1698 :     return pV->x * pV->x + pV->y * pV->y + pV->z * pV->z;

  00384	f3 0f 59 c0	 mulss	 xmm0, xmm0
  00388	f3 0f 58 d1	 addss	 xmm2, xmm1
  0038c	f3 0f 58 d0	 addss	 xmm2, xmm0
; File C:\IAGOS\server\v18\Source\Source\_Common\World.cpp

; 1853 : 					if( fDistSq < fRange * fRange )		// Ĺ¸°Ů°úŔÇ °Ĺ¸®°ˇ fRangeąĚĹÍ ŔĚł»ŔÎ°ÍŔ» ´ë»óŔ¸·Î.

  00390	f3 0f 10 45 1c	 movss	 xmm0, DWORD PTR _fRange$[ebp]
  00395	f3 0f 59 c0	 mulss	 xmm0, xmm0
  00399	0f 2f c2	 comiss	 xmm0, xmm2
  0039c	76 63		 jbe	 SHORT $LN50@SendDamage

; 1854 : 					{
; 1855 : 						if( pObj != pAttacker )		// ľîĹÂÄż´Â °Ë»ö´ë»óżˇĽ­ Á¦żÜ.

  0039e	8b 5d 10	 mov	 ebx, DWORD PTR _pAttacker$[ebp]
  003a1	3b f3		 cmp	 esi, ebx
  003a3	74 5c		 je	 SHORT $LN50@SendDamage
; File C:\IAGOS\server\v18\Source\Source\_Common\Obj.h

; 180  : 	BOOL			IsDelete()	{ return (m_dwFlags & OBJ_FLAG_DELETE);  }

  003a5	f6 46 04 01	 test	 BYTE PTR [esi+4], 1

; 327  : 	return pObj && ( pObj->IsDelete() == FALSE ); 

  003a9	75 56		 jne	 SHORT $LN50@SendDamage
; File C:\IAGOS\server\v18\Source\Source\_AIInterface\Action.h

; 310  : 	BOOL			IsDie() { return (m_dwState & OBJSTA_DIE_ALL) ? TRUE : FALSE; }

  003ab	8b 96 38 02 00
	00		 mov	 edx, DWORD PTR [esi+568]
; File C:\IAGOS\server\v18\Source\Source\_Common\Mover.h

; 1251 : 	BOOL			IsLive() { return m_pActMover->IsDie() == FALSE || m_nHitPoint > 0; }		// && ¸¦  ||·Î ąŮ˛ĺŔ˝.  !=¸¦ >·Î ąŮ˛Ţ

  003b1	f7 42 04 00 00
	00 08		 test	 DWORD PTR [edx+4], 134217728 ; 08000000H
  003b8	74 09		 je	 SHORT $LN167@SendDamage
  003ba	83 be f8 05 00
	00 00		 cmp	 DWORD PTR [esi+1528], 0
  003c1	7e 3e		 jle	 SHORT $LN50@SendDamage
$LN167@SendDamage:
; File C:\IAGOS\server\v18\Source\Source\_Common\World.cpp

; 1860 : 								if( pProp->dwComboStyle == CT_FINISH )

  003c3	8b 45 08	 mov	 eax, DWORD PTR _pProp$1$[ebp]
  003c6	8b 4d 18	 mov	 ecx, DWORD PTR _nAttackID$[ebp]
  003c9	c1 e1 10	 shl	 ecx, 16			; 00000010H
  003cc	83 b8 18 02 00
	00 03		 cmp	 DWORD PTR [eax+536], 3
  003d3	75 15		 jne	 SHORT $LN49@SendDamage

; 1861 : 									pTarget->m_pActMover->SendDamageForce( nDmgType, pAttacker->GetId(), (nAttackID << 16) );

  003d5	6a 01		 push	 1
  003d7	51		 push	 ecx
  003d8	ff b3 bc 01 00
	00		 push	 DWORD PTR [ebx+444]
  003de	8b ca		 mov	 ecx, edx
  003e0	ff 75 0c	 push	 DWORD PTR _nDmgType$[ebp]
  003e3	e8 00 00 00 00	 call	 ?SendDamageForce@CActionMover@@QAEHKKHH@Z ; CActionMover::SendDamageForce
  003e8	eb 17		 jmp	 SHORT $LN50@SendDamage
$LN49@SendDamage:
; File C:\IAGOS\server\v18\Source\Source\_AIInterface\ActionMover.h

; 134  : 	int				SendDamage( DWORD dwAtkFlags, OBJID idSender, int nParam = 0, BOOL bTarget = TRUE, int nReflect = 0 )	{	return SendActMsg( OBJMSG_DAMAGE, dwAtkFlags, idSender, nParam, bTarget, nReflect );	}

  003ea	8b 02		 mov	 eax, DWORD PTR [edx]
  003ec	6a 00		 push	 0
  003ee	6a 01		 push	 1
  003f0	51		 push	 ecx
  003f1	ff b3 bc 01 00
	00		 push	 DWORD PTR [ebx+444]
  003f7	8b ca		 mov	 ecx, edx
  003f9	ff 75 0c	 push	 DWORD PTR _nDmgType$[ebp]
  003fc	6a 29		 push	 41			; 00000029H
  003fe	ff 50 04	 call	 DWORD PTR [eax+4]
$LN50@SendDamage:
; File C:\IAGOS\server\v18\Source\Source\_Common\World.cpp

; 1872 : 		END_LINKMAP

  00401	8b b6 80 01 00
	00		 mov	 esi, DWORD PTR [esi+384]
  00407	85 f6		 test	 esi, esi
  00409	0f 85 21 ff ff
	ff		 jne	 $LL11@SendDamage
$LN171@SendDamage:
  0040f	8b 4d e4	 mov	 ecx, DWORD PTR tv1630[ebp]
  00412	8b 55 e0	 mov	 edx, DWORD PTR tv1718[ebp]
$LN8@SendDamage:

; 1835 : 	{
; 1836 : 		FOR_LINKMAP( this, vPos, pObj, nRange, CObj::linkPlayer, pAttacker->GetLayer() )

  00415	83 c1 04	 add	 ecx, 4
  00418	83 ea 01	 sub	 edx, 1
  0041b	89 4d e4	 mov	 DWORD PTR tv1630[ebp], ecx
  0041e	89 55 e0	 mov	 DWORD PTR tv1718[ebp], edx
  00421	0f 85 f9 fe ff
	ff		 jne	 $LL10@SendDamage
  00427	8b 55 d4	 mov	 edx, DWORD PTR __j$1$[ebp]
  0042a	8b 45 d0	 mov	 eax, DWORD PTR $T3[ebp]
  0042d	8b 5d dc	 mov	 ebx, DWORD PTR __k$1$[ebp]
  00430	8b 75 ac	 mov	 esi, DWORD PTR tv1646[ebp]
  00433	8b 4d f4	 mov	 ecx, DWORD PTR __nMaxWidth$1$[ebp]
  00436	8b 7d d8	 mov	 edi, DWORD PTR tv1706[ebp]
$LN5@SendDamage:
  00439	42		 inc	 edx
  0043a	03 c1		 add	 eax, ecx
  0043c	89 55 d4	 mov	 DWORD PTR __j$1$[ebp], edx
  0043f	89 45 d0	 mov	 DWORD PTR $T3[ebp], eax
  00442	3b d7		 cmp	 edx, edi
  00444	0f 8e b6 fe ff
	ff		 jle	 $LL7@SendDamage
$LN2@SendDamage:
  0044a	8b 5d 10	 mov	 ebx, DWORD PTR _pAttacker$[ebp]
  0044d	8b 75 f0	 mov	 esi, DWORD PTR __i$1$[ebp]
  00450	8b 7d cc	 mov	 edi, DWORD PTR tv1702[ebp]
  00453	46		 inc	 esi
  00454	8b cf		 mov	 ecx, edi
  00456	89 75 f0	 mov	 DWORD PTR __i$1$[ebp], esi
  00459	ff b3 b8 01 00
	00		 push	 DWORD PTR [ebx+440]
  0045f	6a 02		 push	 2
  00461	e8 00 00 00 00	 call	 ?GetMaxLinkLevel@CLayeredLinkMap@@QAEHKH@Z ; CLayeredLinkMap::GetMaxLinkLevel
  00466	3b f0		 cmp	 esi, eax
  00468	0f 8c 92 fd ff
	ff		 jl	 $LL4@SendDamage
$LN173@SendDamage:

; 1873 : 	}
; 1874 : 
; 1875 : 	// Ŕűżë´ë»óŔĚ ¸ó˝şĹÍŔÎ°ˇ.
; 1876 : 	if( nApplyType & OBJTYPE_MONSTER )

  0046e	8b 45 14	 mov	 eax, DWORD PTR _nApplyType$[ebp]
  00471	f3 0f 10 45 9c	 movss	 xmm0, DWORD PTR _vPos$[ebp]
  00476	f3 0f 10 55 a4	 movss	 xmm2, DWORD PTR _vPos$[ebp+8]
$LN3@SendDamage:
  0047b	a8 02		 test	 al, 2
  0047d	0f 84 12 03 00
	00		 je	 $LN14@SendDamage

; 1877 : 	{
; 1878 : 		FOR_LINKMAP( this, vPos, pObj, nRange, CObj::linkDynamic, pAttacker->GetLayer() )

  00483	8b 4d fc	 mov	 ecx, DWORD PTR _this$1$[ebp]
  00486	33 ff		 xor	 edi, edi
  00488	ff b3 b8 01 00
	00		 push	 DWORD PTR [ebx+440]
  0048e	89 7d ec	 mov	 DWORD PTR __i$1$[ebp], edi
  00491	6a 01		 push	 1
  00493	66 0f 6e 49 14	 movd	 xmm1, DWORD PTR [ecx+20]
  00498	8d 71 24	 lea	 esi, DWORD PTR [ecx+36]
  0049b	0f 5b c9	 cvtdq2ps xmm1, xmm1
  0049e	8b ce		 mov	 ecx, esi
  004a0	f3 0f 5e c1	 divss	 xmm0, xmm1
  004a4	f3 0f 2c c0	 cvttss2si eax, xmm0
  004a8	0f 28 c2	 movaps	 xmm0, xmm2
  004ab	f3 0f 5e c1	 divss	 xmm0, xmm1
  004af	89 45 cc	 mov	 DWORD PTR __nLinkX$1$[ebp], eax
  004b2	f3 0f 2c c0	 cvttss2si eax, xmm0
  004b6	89 45 d0	 mov	 DWORD PTR __nLinkZ$1$[ebp], eax
  004b9	e8 00 00 00 00	 call	 ?GetMaxLinkLevel@CLayeredLinkMap@@QAEHKH@Z ; CLayeredLinkMap::GetMaxLinkLevel
  004be	85 c0		 test	 eax, eax
  004c0	0f 8e cf 02 00
	00		 jle	 $LN14@SendDamage
  004c6	8b 4d cc	 mov	 ecx, DWORD PTR __nLinkX$1$[ebp]
  004c9	8b d1		 mov	 edx, ecx
  004cb	8b 45 f8	 mov	 eax, DWORD PTR _nRange$1$[ebp]
  004ce	2b d0		 sub	 edx, eax
  004d0	89 55 ac	 mov	 DWORD PTR tv1659[ebp], edx
  004d3	03 c8		 add	 ecx, eax
  004d5	8b 55 d0	 mov	 edx, DWORD PTR __nLinkZ$1$[ebp]
  004d8	89 55 14	 mov	 DWORD PTR tv1657[ebp], edx
  004db	29 45 14	 sub	 DWORD PTR tv1657[ebp], eax
  004de	03 c2		 add	 eax, edx
  004e0	89 4d bc	 mov	 DWORD PTR tv1655[ebp], ecx
  004e3	89 45 c0	 mov	 DWORD PTR tv1653[ebp], eax
$LL15@SendDamage:
  004e6	ff b3 b8 01 00
	00		 push	 DWORD PTR [ebx+440]
  004ec	8b ce		 mov	 ecx, esi
  004ee	57		 push	 edi
  004ef	6a 01		 push	 1
  004f1	e8 00 00 00 00	 call	 ?GetLinkWidth@CLayeredLinkMap@@QAEHKHH@Z ; CLayeredLinkMap::GetLinkWidth
  004f6	ff b3 b8 01 00
	00		 push	 DWORD PTR [ebx+440]
  004fc	8b f0		 mov	 esi, eax
  004fe	57		 push	 edi
  004ff	8b 7d fc	 mov	 edi, DWORD PTR _this$1$[ebp]
  00502	6a 01		 push	 1
  00504	8d 4f 24	 lea	 ecx, DWORD PTR [edi+36]
  00507	e8 00 00 00 00	 call	 ?GetObj@CLayeredLinkMap@@QAEPAPAVCObj@@KKH@Z ; CLayeredLinkMap::GetObj
  0050c	89 45 c8	 mov	 DWORD PTR __pObjs$1$[ebp], eax
  0050f	8b 47 04	 mov	 eax, DWORD PTR [edi+4]
  00512	8b d8		 mov	 ebx, eax
  00514	c1 e0 07	 shl	 eax, 7
  00517	99		 cdq
  00518	0f af de	 imul	 ebx, esi
  0051b	8b 4f 08	 mov	 ecx, DWORD PTR [edi+8]
  0051e	0f af ce	 imul	 ecx, esi
  00521	8b 75 fc	 mov	 esi, DWORD PTR _this$1$[ebp]
  00524	f7 fb		 idiv	 ebx
  00526	8b 76 14	 mov	 esi, DWORD PTR [esi+20]
  00529	8b f8		 mov	 edi, eax
  0052b	89 4d c4	 mov	 DWORD PTR tv1661[ebp], ecx
  0052e	8b c6		 mov	 eax, esi
  00530	89 5d f0	 mov	 DWORD PTR __nMaxWidth$1$[ebp], ebx
  00533	0f af c7	 imul	 eax, edi
  00536	99		 cdq
  00537	2b c2		 sub	 eax, edx
  00539	8b c8		 mov	 ecx, eax
  0053b	8b 45 cc	 mov	 eax, DWORD PTR __nLinkX$1$[ebp]
  0053e	99		 cdq
  0053f	f7 ff		 idiv	 edi
  00541	f3 0f 2c 45 9c	 cvttss2si eax, DWORD PTR _vPos$[ebp]
  00546	2b 55 cc	 sub	 edx, DWORD PTR __nLinkX$1$[ebp]
  00549	d1 f9		 sar	 ecx, 1
  0054b	0f af d6	 imul	 edx, esi
  0054e	03 d0		 add	 edx, eax
  00550	33 c0		 xor	 eax, eax
  00552	3b d1		 cmp	 edx, ecx
  00554	0f 9f c0	 setg	 al
  00557	33 db		 xor	 ebx, ebx
  00559	89 45 b4	 mov	 DWORD PTR __nX$1$[ebp], eax
  0055c	8b 45 d0	 mov	 eax, DWORD PTR __nLinkZ$1$[ebp]
  0055f	99		 cdq
  00560	f7 ff		 idiv	 edi
  00562	f3 0f 2c 45 a4	 cvttss2si eax, DWORD PTR _vPos$[ebp+8]
  00567	2b 55 d0	 sub	 edx, DWORD PTR __nLinkZ$1$[ebp]
  0056a	0f af d6	 imul	 edx, esi
  0056d	03 d0		 add	 edx, eax
  0056f	8b 45 ac	 mov	 eax, DWORD PTR tv1659[ebp]
  00572	3b d1		 cmp	 edx, ecx
  00574	99		 cdq
  00575	0f 9f c3	 setg	 bl
  00578	33 c9		 xor	 ecx, ecx
  0057a	f7 ff		 idiv	 edi
  0057c	48		 dec	 eax
  0057d	03 45 b4	 add	 eax, DWORD PTR __nX$1$[ebp]
  00580	0f 49 c8	 cmovns	 ecx, eax
  00583	8b 45 14	 mov	 eax, DWORD PTR tv1657[ebp]
  00586	99		 cdq
  00587	f7 ff		 idiv	 edi
  00589	89 4d dc	 mov	 DWORD PTR __k$1$[ebp], ecx
  0058c	8d 4b ff	 lea	 ecx, DWORD PTR [ebx-1]
  0058f	03 c8		 add	 ecx, eax
  00591	8b 45 bc	 mov	 eax, DWORD PTR tv1655[ebp]
  00594	99		 cdq
  00595	f7 ff		 idiv	 edi
  00597	8b 55 f0	 mov	 edx, DWORD PTR __nMaxWidth$1$[ebp]
  0059a	03 45 b4	 add	 eax, DWORD PTR __nX$1$[ebp]
  0059d	3b c2		 cmp	 eax, edx
  0059f	8d 72 ff	 lea	 esi, DWORD PTR [edx-1]
  005a2	0f 4c f0	 cmovl	 esi, eax
  005a5	8b 45 c0	 mov	 eax, DWORD PTR tv1653[ebp]
  005a8	99		 cdq
  005a9	f7 ff		 idiv	 edi
  005ab	8b 55 c4	 mov	 edx, DWORD PTR tv1661[ebp]
  005ae	03 c3		 add	 eax, ebx
  005b0	89 75 b4	 mov	 DWORD PTR tv1633[ebp], esi
  005b3	8d 5a ff	 lea	 ebx, DWORD PTR [edx-1]
  005b6	3b c2		 cmp	 eax, edx
  005b8	0f 4c d8	 cmovl	 ebx, eax
  005bb	33 d2		 xor	 edx, edx
  005bd	85 c9		 test	 ecx, ecx
  005bf	89 5d e0	 mov	 DWORD PTR tv1715[ebp], ebx
  005c2	0f 49 d1	 cmovns	 edx, ecx
  005c5	89 55 e4	 mov	 DWORD PTR __j$1$[ebp], edx
  005c8	3b d3		 cmp	 edx, ebx
  005ca	0f 8f 67 01 00
	00		 jg	 $LN13@SendDamage
  005d0	8b 4d f0	 mov	 ecx, DWORD PTR __nMaxWidth$1$[ebp]
  005d3	8b c2		 mov	 eax, edx
  005d5	8b 5d dc	 mov	 ebx, DWORD PTR __k$1$[ebp]
  005d8	8b 7d e0	 mov	 edi, DWORD PTR tv1715[ebp]
  005db	0f af c1	 imul	 eax, ecx
  005de	03 c3		 add	 eax, ebx
  005e0	89 45 e8	 mov	 DWORD PTR $T4[ebp], eax
$LL18@SendDamage:
  005e3	3b de		 cmp	 ebx, esi
  005e5	0f 8f 3b 01 00
	00		 jg	 $LN16@SendDamage
  005eb	8b 4d c8	 mov	 ecx, DWORD PTR __pObjs$1$[ebp]
  005ee	8b d6		 mov	 edx, esi
  005f0	2b d3		 sub	 edx, ebx
  005f2	42		 inc	 edx
  005f3	89 55 d8	 mov	 DWORD PTR tv1707[ebp], edx
  005f6	8d 0c 81	 lea	 ecx, DWORD PTR [ecx+eax*4]
  005f9	89 4d d4	 mov	 DWORD PTR tv1617[ebp], ecx
  005fc	0f 1f 40 00	 npad	 4
$LL21@SendDamage:
  00600	8b 31		 mov	 esi, DWORD PTR [ecx]
  00602	bf e8 03 00 00	 mov	 edi, 1000		; 000003e8H
  00607	85 f6		 test	 esi, esi
  00609	0f 84 f3 00 00
	00		 je	 $LN19@SendDamage
  0060f	90		 npad	 1
$LL22@SendDamage:
  00610	8b c7		 mov	 eax, edi
  00612	4f		 dec	 edi
  00613	85 c0		 test	 eax, eax
  00615	0f 84 e1 00 00
	00		 je	 $LN172@SendDamage

; 1880 : 			if( pObj->GetType() == OT_MOVER && ((CMover *)pObj)->IsPeaceful() == FALSE )

  0061b	83 be 70 01 00
	00 05		 cmp	 DWORD PTR [esi+368], 5
  00622	0f 85 c6 00 00
	00		 jne	 $LN61@SendDamage
; File C:\IAGOS\server\v18\Source\Source\_Common\Mover.h

; 1120 : 	BOOL			IsPeaceful() { return m_dwBelligerence == BELLI_PEACEFUL; }

  00628	83 be 64 06 00
	00 01		 cmp	 DWORD PTR [esi+1636], 1
; File C:\IAGOS\server\v18\Source\Source\_Common\World.cpp

; 1880 : 			if( pObj->GetType() == OT_MOVER && ((CMover *)pObj)->IsPeaceful() == FALSE )

  0062f	0f 84 b9 00 00
	00		 je	 $LN61@SendDamage
; File C:\IAGOS\server\v18\Source\Source\_Common\Obj.h

; 215  : 	D3DXVECTOR3		GetPos()	{ return m_vPos; }

  00635	f3 0f 7e 86 60
	01 00 00	 movq	 xmm0, QWORD PTR [esi+352]
  0063d	8b 86 68 01 00
	00		 mov	 eax, DWORD PTR [esi+360]
  00643	66 0f d6 45 90	 movq	 QWORD PTR $T2[ebp], xmm0
; File C:\IAGOS\server\v18\Source\Source\DX_SDK\d3dx9math.inl

; 383  :     return D3DXVECTOR3(x - v.x, y - v.y, z - v.z);

  00648	f3 0f 10 4d 90	 movss	 xmm1, DWORD PTR $T2[ebp]
  0064d	f3 0f 10 55 94	 movss	 xmm2, DWORD PTR $T2[ebp+4]
  00652	f3 0f 5c 55 a0	 subss	 xmm2, DWORD PTR _vPos$[ebp+4]
  00657	f3 0f 5c 4d 9c	 subss	 xmm1, DWORD PTR _vPos$[ebp]
; File C:\IAGOS\server\v18\Source\Source\_Common\Obj.h

; 215  : 	D3DXVECTOR3		GetPos()	{ return m_vPos; }

  0065c	89 45 98	 mov	 DWORD PTR $T2[ebp+8], eax
; File C:\IAGOS\server\v18\Source\Source\DX_SDK\d3dx9math.inl

; 383  :     return D3DXVECTOR3(x - v.x, y - v.y, z - v.z);

  0065f	f3 0f 10 45 98	 movss	 xmm0, DWORD PTR $T2[ebp+8]
  00664	f3 0f 5c 45 a4	 subss	 xmm0, DWORD PTR _vPos$[ebp+8]

; 1698 :     return pV->x * pV->x + pV->y * pV->y + pV->z * pV->z;

  00669	f3 0f 59 d2	 mulss	 xmm2, xmm2
; File C:\IAGOS\server\v18\Source\Source\_Common\World.cpp

; 1882 : 				vDist = pObj->GetPos() - vPos;		// this -> Ĺ¸°Ů±îÁöŔÇ ş¤ĹÍ

  0066d	f3 0f 59 c9	 mulss	 xmm1, xmm1
; File C:\IAGOS\server\v18\Source\Source\DX_SDK\d3dx9math.inl

; 1698 :     return pV->x * pV->x + pV->y * pV->y + pV->z * pV->z;

  00671	f3 0f 59 c0	 mulss	 xmm0, xmm0
  00675	f3 0f 58 d1	 addss	 xmm2, xmm1
  00679	f3 0f 58 d0	 addss	 xmm2, xmm0
; File C:\IAGOS\server\v18\Source\Source\_Common\World.cpp

; 1884 : 				if( fDistSq < fRange * fRange )		// Ĺ¸°Ů°úŔÇ °Ĺ¸®°ˇ fRangeąĚĹÍ ŔĚł»ŔÎ°ÍŔ» ´ë»óŔ¸·Î.

  0067d	f3 0f 10 45 1c	 movss	 xmm0, DWORD PTR _fRange$[ebp]
  00682	f3 0f 59 c0	 mulss	 xmm0, xmm0
  00686	0f 2f c2	 comiss	 xmm0, xmm2
  00689	76 63		 jbe	 SHORT $LN61@SendDamage

; 1885 : 				{
; 1886 : 					if( pObj != pAttacker )		// °ř°ÝŔÚ´Â °Ë»ç´ë»óżˇĽ­ Á¦żÜ.

  0068b	8b 5d 10	 mov	 ebx, DWORD PTR _pAttacker$[ebp]
  0068e	3b f3		 cmp	 esi, ebx
  00690	74 5c		 je	 SHORT $LN61@SendDamage
; File C:\IAGOS\server\v18\Source\Source\_Common\Obj.h

; 180  : 	BOOL			IsDelete()	{ return (m_dwFlags & OBJ_FLAG_DELETE);  }

  00692	f6 46 04 01	 test	 BYTE PTR [esi+4], 1

; 327  : 	return pObj && ( pObj->IsDelete() == FALSE ); 

  00696	75 56		 jne	 SHORT $LN61@SendDamage
; File C:\IAGOS\server\v18\Source\Source\_AIInterface\Action.h

; 310  : 	BOOL			IsDie() { return (m_dwState & OBJSTA_DIE_ALL) ? TRUE : FALSE; }

  00698	8b 96 38 02 00
	00		 mov	 edx, DWORD PTR [esi+568]
; File C:\IAGOS\server\v18\Source\Source\_Common\Mover.h

; 1251 : 	BOOL			IsLive() { return m_pActMover->IsDie() == FALSE || m_nHitPoint > 0; }		// && ¸¦  ||·Î ąŮ˛ĺŔ˝.  !=¸¦ >·Î ąŮ˛Ţ

  0069e	f7 42 04 00 00
	00 08		 test	 DWORD PTR [edx+4], 134217728 ; 08000000H
  006a5	74 09		 je	 SHORT $LN165@SendDamage
  006a7	83 be f8 05 00
	00 00		 cmp	 DWORD PTR [esi+1528], 0
  006ae	7e 3e		 jle	 SHORT $LN61@SendDamage
$LN165@SendDamage:
; File C:\IAGOS\server\v18\Source\Source\_Common\World.cpp

; 1891 : 							if( pProp->dwComboStyle == CT_FINISH )

  006b0	8b 45 08	 mov	 eax, DWORD PTR _pProp$1$[ebp]
  006b3	8b 4d 18	 mov	 ecx, DWORD PTR _nAttackID$[ebp]
  006b6	c1 e1 10	 shl	 ecx, 16			; 00000010H
  006b9	83 b8 18 02 00
	00 03		 cmp	 DWORD PTR [eax+536], 3
  006c0	75 15		 jne	 SHORT $LN60@SendDamage

; 1892 : 								pTarget->m_pActMover->SendDamageForce( nDmgType, pAttacker->GetId(), (nAttackID << 16) );

  006c2	6a 01		 push	 1
  006c4	51		 push	 ecx
  006c5	ff b3 bc 01 00
	00		 push	 DWORD PTR [ebx+444]
  006cb	8b ca		 mov	 ecx, edx
  006cd	ff 75 0c	 push	 DWORD PTR _nDmgType$[ebp]
  006d0	e8 00 00 00 00	 call	 ?SendDamageForce@CActionMover@@QAEHKKHH@Z ; CActionMover::SendDamageForce
  006d5	eb 17		 jmp	 SHORT $LN61@SendDamage
$LN60@SendDamage:
; File C:\IAGOS\server\v18\Source\Source\_AIInterface\ActionMover.h

; 134  : 	int				SendDamage( DWORD dwAtkFlags, OBJID idSender, int nParam = 0, BOOL bTarget = TRUE, int nReflect = 0 )	{	return SendActMsg( OBJMSG_DAMAGE, dwAtkFlags, idSender, nParam, bTarget, nReflect );	}

  006d7	8b 02		 mov	 eax, DWORD PTR [edx]
  006d9	6a 00		 push	 0
  006db	6a 01		 push	 1
  006dd	51		 push	 ecx
  006de	ff b3 bc 01 00
	00		 push	 DWORD PTR [ebx+444]
  006e4	8b ca		 mov	 ecx, edx
  006e6	ff 75 0c	 push	 DWORD PTR _nDmgType$[ebp]
  006e9	6a 29		 push	 41			; 00000029H
  006eb	ff 50 04	 call	 DWORD PTR [eax+4]
$LN61@SendDamage:
; File C:\IAGOS\server\v18\Source\Source\_Common\World.cpp

; 1900 : 		END_LINKMAP

  006ee	8b b6 80 01 00
	00		 mov	 esi, DWORD PTR [esi+384]
  006f4	85 f6		 test	 esi, esi
  006f6	0f 85 14 ff ff
	ff		 jne	 $LL22@SendDamage
$LN172@SendDamage:
  006fc	8b 4d d4	 mov	 ecx, DWORD PTR tv1617[ebp]
  006ff	8b 55 d8	 mov	 edx, DWORD PTR tv1707[ebp]
$LN19@SendDamage:

; 1877 : 	{
; 1878 : 		FOR_LINKMAP( this, vPos, pObj, nRange, CObj::linkDynamic, pAttacker->GetLayer() )

  00702	83 c1 04	 add	 ecx, 4
  00705	83 ea 01	 sub	 edx, 1
  00708	89 4d d4	 mov	 DWORD PTR tv1617[ebp], ecx
  0070b	89 55 d8	 mov	 DWORD PTR tv1707[ebp], edx
  0070e	0f 85 ec fe ff
	ff		 jne	 $LL21@SendDamage
  00714	8b 55 e4	 mov	 edx, DWORD PTR __j$1$[ebp]
  00717	8b 45 e8	 mov	 eax, DWORD PTR $T4[ebp]
  0071a	8b 5d dc	 mov	 ebx, DWORD PTR __k$1$[ebp]
  0071d	8b 75 b4	 mov	 esi, DWORD PTR tv1633[ebp]
  00720	8b 4d f0	 mov	 ecx, DWORD PTR __nMaxWidth$1$[ebp]
  00723	8b 7d e0	 mov	 edi, DWORD PTR tv1715[ebp]
$LN16@SendDamage:
  00726	42		 inc	 edx
  00727	03 c1		 add	 eax, ecx
  00729	89 55 e4	 mov	 DWORD PTR __j$1$[ebp], edx
  0072c	89 45 e8	 mov	 DWORD PTR $T4[ebp], eax
  0072f	3b d7		 cmp	 edx, edi
  00731	0f 8e ac fe ff
	ff		 jle	 $LL18@SendDamage
$LN13@SendDamage:
  00737	8b 5d 10	 mov	 ebx, DWORD PTR _pAttacker$[ebp]
  0073a	8b 7d ec	 mov	 edi, DWORD PTR __i$1$[ebp]
  0073d	8b 75 fc	 mov	 esi, DWORD PTR _this$1$[ebp]
  00740	47		 inc	 edi
  00741	83 c6 24	 add	 esi, 36			; 00000024H
  00744	89 7d ec	 mov	 DWORD PTR __i$1$[ebp], edi
  00747	ff b3 b8 01 00
	00		 push	 DWORD PTR [ebx+440]
  0074d	8b ce		 mov	 ecx, esi
  0074f	6a 01		 push	 1
  00751	e8 00 00 00 00	 call	 ?GetMaxLinkLevel@CLayeredLinkMap@@QAEHKH@Z ; CLayeredLinkMap::GetMaxLinkLevel
  00756	3b f8		 cmp	 edi, eax
  00758	0f 8c 88 fd ff
	ff		 jl	 $LL15@SendDamage

; 1901 : 	}
; 1902 : 		
; 1903 : #endif // WORLDSERVER		
; 1904 : } // SendDamageAround()

  0075e	5f		 pop	 edi
  0075f	5e		 pop	 esi
  00760	5b		 pop	 ebx
  00761	8b e5		 mov	 esp, ebp
  00763	5d		 pop	 ebp
  00764	c2 18 00	 ret	 24			; 00000018H
$LN126@SendDamage:
; File C:\IAGOS\server\v18\Source\Source\_Common\Project.h

; 579  : 	LPCTSTR szErr = Error( _T( "%s min:%d, max:%d, index:%d" ), szMsg, nMin, nMax, nIndex ); 

  00767	56		 push	 esi
  00768	50		 push	 eax
  00769	6a 00		 push	 0
  0076b	68 00 00 00 00	 push	 OFFSET ??_C@_0BI@BEIFNGEL@GetItemProp?5range_error@
  00770	68 00 00 00 00	 push	 OFFSET ??_C@_0BM@HMFGHCP@?$CFs?5min?3?$CFd?0?5max?3?$CFd?0?5index?3?$CFd@
  00775	e8 00 00 00 00	 call	 ?Error@@YAPBDPBDZZ	; Error
  0077a	83 c4 14	 add	 esp, 20			; 00000014H
$LN169@SendDamage:
; File C:\IAGOS\server\v18\Source\Source\_Common\World.cpp

; 1827 : 			Error( "CWorld::SendDamageAround : %s. ľĆŔĚĹŰ(%d)ŔÇ ÇÁ·ÎĆŰĆĽ°ˇ ľ÷¤˛´Ů.", pAttacker->GetName(), nAttackID );

  0077d	56		 push	 esi
  0077e	6a 00		 push	 0
  00780	8b cb		 mov	 ecx, ebx
  00782	e8 00 00 00 00	 call	 ?GetName@CMover@@QAEPBDH@Z ; CMover::GetName
  00787	50		 push	 eax
  00788	68 00 00 00 00	 push	 OFFSET ??_C@_0DP@PNAKIIFP@CWorld?3?3SendDamageAround?5?3?5?$CFs?4?5@

; 1901 : 	}
; 1902 : 		
; 1903 : #endif // WORLDSERVER		
; 1904 : } // SendDamageAround()

  0078d	e8 00 00 00 00	 call	 ?Error@@YAPBDPBDZZ	; Error
  00792	83 c4 0c	 add	 esp, 12			; 0000000cH
$LN14@SendDamage:
  00795	5f		 pop	 edi
  00796	5e		 pop	 esi
  00797	5b		 pop	 ebx
  00798	8b e5		 mov	 esp, ebp
  0079a	5d		 pop	 ebp
  0079b	c2 18 00	 ret	 24			; 00000018H
?SendDamageAround@CWorld@@QAEXPBUD3DXVECTOR3@@HPAVCMover@@HHM@Z ENDP ; CWorld::SendDamageAround
_TEXT	ENDS
; Function compile flags: /Ogtp
; File C:\IAGOS\server\v18\Source\Source\_Common\World.cpp
; File C:\IAGOS\server\v18\Source\Source\_Common\World.h
; File C:\IAGOS\server\v18\Source\Source\_Common\World.cpp
; File C:\IAGOS\server\v18\Source\Source\_Common\World.h
; File C:\IAGOS\server\v18\Source\Source\_Common\World.cpp
;	COMDAT ?GetHeightAttribute@CWorld@@QAEHMM@Z
_TEXT	SEGMENT
_inv_mpu$1$ = -4					; size = 4
_x$ = 8							; size = 4
_z$ = 12						; size = 4
?GetHeightAttribute@CWorld@@QAEHMM@Z PROC		; CWorld::GetHeightAttribute, COMDAT
; _this$ = ecx

; 1741 : {

  00000	55		 push	 ebp
  00001	8b ec		 mov	 ebp, esp
  00003	51		 push	 ecx
; File C:\IAGOS\server\v18\Source\Source\_Common\World.h

; 732  : 	float inv_mpu = 1.0f / (float)m_iMPU;

  00004	f3 0f 10 0d 00
	00 00 00	 movss	 xmm1, DWORD PTR __real@3f800000
; File C:\IAGOS\server\v18\Source\Source\_Common\World.cpp

; 1741 : {

  0000c	56		 push	 esi
  0000d	8b f1		 mov	 esi, ecx
; File C:\IAGOS\server\v18\Source\Source\_Common\World.h

; 734  : 	if( _isnan( x ) )

  0000f	83 ec 08	 sub	 esp, 8
  00012	66 0f 6e 46 14	 movd	 xmm0, DWORD PTR [esi+20]

; 732  : 	float inv_mpu = 1.0f / (float)m_iMPU;

  00017	0f 5b c0	 cvtdq2ps xmm0, xmm0
  0001a	f3 0f 5e c8	 divss	 xmm1, xmm0
  0001e	f3 0f 10 45 08	 movss	 xmm0, DWORD PTR _x$[ebp]

; 734  : 	if( _isnan( x ) )

  00023	0f 5a c0	 cvtps2pd xmm0, xmm0
  00026	f3 0f 11 4d fc	 movss	 DWORD PTR _inv_mpu$1$[ebp], xmm1
  0002b	f2 0f 11 04 24	 movsd	 QWORD PTR [esp], xmm0
  00030	e8 00 00 00 00	 call	 __isnan
  00035	83 c4 08	 add	 esp, 8
  00038	85 c0		 test	 eax, eax
  0003a	0f 85 02 01 00
	00		 jne	 $LN16@GetHeightA

; 735  : 		return FALSE;
; 736  : 	if( x < 0.0f )

  00040	f3 0f 10 45 08	 movss	 xmm0, DWORD PTR _x$[ebp]
  00045	0f 57 c9	 xorps	 xmm1, xmm1
  00048	0f 2f c8	 comiss	 xmm1, xmm0
  0004b	0f 87 f1 00 00
	00		 ja	 $LN16@GetHeightA

; 737  : 		return FALSE;
; 738  : 	if( (x * inv_mpu) >= ( WORLD_WIDTH-1 ) )	

  00051	8b 46 0c	 mov	 eax, DWORD PTR [esi+12]
  00054	f3 0f 10 4d fc	 movss	 xmm1, DWORD PTR _inv_mpu$1$[ebp]
  00059	48		 dec	 eax
  0005a	f3 0f 59 c8	 mulss	 xmm1, xmm0
  0005e	66 0f 6e c0	 movd	 xmm0, eax
  00062	0f 5b c0	 cvtdq2ps xmm0, xmm0
  00065	0f 2f c8	 comiss	 xmm1, xmm0
  00068	0f 83 d4 00 00
	00		 jae	 $LN16@GetHeightA
  0006e	f3 0f 10 45 0c	 movss	 xmm0, DWORD PTR _z$[ebp]

; 739  : 	{
; 740  : 		return FALSE;
; 741  : 	}
; 742  : 
; 743  : 	if( _isnan( z ) )

  00073	83 ec 08	 sub	 esp, 8
  00076	0f 5a c0	 cvtps2pd xmm0, xmm0
  00079	f2 0f 11 04 24	 movsd	 QWORD PTR [esp], xmm0
  0007e	e8 00 00 00 00	 call	 __isnan
  00083	83 c4 08	 add	 esp, 8
  00086	85 c0		 test	 eax, eax
  00088	0f 85 b4 00 00
	00		 jne	 $LN16@GetHeightA

; 744  : 		return FALSE;
; 745  : 	if( z < 0.0f )

  0008e	f3 0f 10 55 0c	 movss	 xmm2, DWORD PTR _z$[ebp]
  00093	0f 57 c0	 xorps	 xmm0, xmm0
  00096	0f 2f c2	 comiss	 xmm0, xmm2
  00099	0f 87 a3 00 00
	00		 ja	 $LN16@GetHeightA

; 746  : 		return FALSE;
; 747  : 	if( (z * inv_mpu) >= ( WORLD_HEIGHT-1 ) )		

  0009f	8b 46 10	 mov	 eax, DWORD PTR [esi+16]
  000a2	f3 0f 10 4d fc	 movss	 xmm1, DWORD PTR _inv_mpu$1$[ebp]
  000a7	48		 dec	 eax
  000a8	f3 0f 59 ca	 mulss	 xmm1, xmm2
  000ac	66 0f 6e c0	 movd	 xmm0, eax
  000b0	0f 5b c0	 cvtdq2ps xmm0, xmm0
  000b3	0f 2f c8	 comiss	 xmm1, xmm0
  000b6	0f 83 86 00 00
	00		 jae	 $LN16@GetHeightA
; File C:\IAGOS\server\v18\Source\Source\_Common\World.cpp

; 1745 : 	float inv_mpu = 1.0f / (float)m_iMPU;

  000bc	66 0f 6e 46 14	 movd	 xmm0, DWORD PTR [esi+20]
  000c1	f3 0f 10 0d 00
	00 00 00	 movss	 xmm1, DWORD PTR __real@3f800000
  000c9	0f 5b c0	 cvtdq2ps xmm0, xmm0
  000cc	f3 0f 5e c8	 divss	 xmm1, xmm0

; 1746 : 
; 1747 : 	x *= inv_mpu; //x /= MPU;
; 1748 : 	z *= inv_mpu; //z /= MPU;

  000d0	0f 28 c1	 movaps	 xmm0, xmm1
  000d3	f3 0f 59 4d 08	 mulss	 xmm1, DWORD PTR _x$[ebp]
  000d8	f3 0f 59 c2	 mulss	 xmm0, xmm2

; 1749 : 
; 1750 : 	FLOAT fHeight = m_apHeightMap[ (int)x + (int)z * WORLD_WIDTH ]; //WORLD_WIDTH = MAP_SIZE * m_nLandWidth

  000dc	f3 0f 2c c1	 cvttss2si eax, xmm1
  000e0	f3 0f 2c c8	 cvttss2si ecx, xmm0
  000e4	0f af 4e 0c	 imul	 ecx, DWORD PTR [esi+12]
  000e8	03 c8		 add	 ecx, eax
  000ea	8b 46 1c	 mov	 eax, DWORD PTR [esi+28]
  000ed	f3 0f 10 04 88	 movss	 xmm0, DWORD PTR [eax+ecx*4]

; 1751 : 	if( fHeight >= HGT_NOWALK )

  000f2	0f 2f 05 00 00
	00 00		 comiss	 xmm0, DWORD PTR __real@447a0000
  000f9	72 3e		 jb	 SHORT $LN3@GetHeightA

; 1752 : 	{
; 1753 : 		if( fHeight >= HGT_DIE )

  000fb	0f 2f 05 00 00
	00 00		 comiss	 xmm0, DWORD PTR __real@457a0000
  00102	72 0c		 jb	 SHORT $LN4@GetHeightA

; 1754 : 			return HATTR_DIE;

  00104	b8 04 00 00 00	 mov	 eax, 4
  00109	5e		 pop	 esi

; 1762 : }

  0010a	8b e5		 mov	 esp, ebp
  0010c	5d		 pop	 ebp
  0010d	c2 08 00	 ret	 8
$LN4@GetHeightA:

; 1755 : 		if( fHeight >= HGT_NOMOVE )

  00110	0f 2f 05 00 00
	00 00		 comiss	 xmm0, DWORD PTR __real@453b8000
  00117	72 0c		 jb	 SHORT $LN5@GetHeightA

; 1756 : 			return HATTR_NOMOVE;

  00119	b8 03 00 00 00	 mov	 eax, 3
  0011e	5e		 pop	 esi

; 1762 : }

  0011f	8b e5		 mov	 esp, ebp
  00121	5d		 pop	 ebp
  00122	c2 08 00	 ret	 8
$LN5@GetHeightA:

; 1757 : 		if( fHeight >= HGT_NOFLY )

  00125	33 c0		 xor	 eax, eax
  00127	0f 2f 05 00 00
	00 00		 comiss	 xmm0, DWORD PTR __real@44fa0000
  0012e	5e		 pop	 esi
  0012f	0f 93 c0	 setae	 al
  00132	40		 inc	 eax

; 1762 : }

  00133	8b e5		 mov	 esp, ebp
  00135	5d		 pop	 ebp
  00136	c2 08 00	 ret	 8
$LN3@GetHeightA:

; 1758 : 			return HATTR_NOFLY;
; 1759 : 		return HATTR_NOWALK;
; 1760 : 	}
; 1761 : 	return HATTR_NONE;

  00139	33 c0		 xor	 eax, eax
  0013b	5e		 pop	 esi

; 1762 : }

  0013c	8b e5		 mov	 esp, ebp
  0013e	5d		 pop	 ebp
  0013f	c2 08 00	 ret	 8
$LN16@GetHeightA:

; 1742 : 	if( VecInWorld( x, z ) == FALSE )
; 1743 : 		return -1;

  00142	83 c8 ff	 or	 eax, -1
  00145	5e		 pop	 esi

; 1762 : }

  00146	8b e5		 mov	 esp, ebp
  00148	5d		 pop	 ebp
  00149	c2 08 00	 ret	 8
?GetHeightAttribute@CWorld@@QAEHMM@Z ENDP		; CWorld::GetHeightAttribute
_TEXT	ENDS
; Function compile flags: /Ogtp
; File C:\IAGOS\server\v18\Source\Source\_Common\World.cpp
; File C:\IAGOS\server\v18\Source\Source\_Common\World.h
; File C:\IAGOS\server\v18\Source\Source\_Common\World.cpp
; File C:\IAGOS\server\v18\Source\Source\_Common\World.h
; File C:\IAGOS\server\v18\Source\Source\_Common\World.cpp
;	COMDAT ?GetWaterHeight@CWorld@@QAEPAUWATERHEIGHT@@HH@Z
_TEXT	SEGMENT
_inv_mpu$1$ = -4					; size = 4
_x$ = 8							; size = 4
_z$ = 12						; size = 4
?GetWaterHeight@CWorld@@QAEPAUWATERHEIGHT@@HH@Z PROC	; CWorld::GetWaterHeight, COMDAT
; _this$ = ecx

; 1764 : {

  00000	55		 push	 ebp
  00001	8b ec		 mov	 ebp, esp
  00003	51		 push	 ecx
; File C:\IAGOS\server\v18\Source\Source\_Common\World.h

; 732  : 	float inv_mpu = 1.0f / (float)m_iMPU;

  00004	f3 0f 10 0d 00
	00 00 00	 movss	 xmm1, DWORD PTR __real@3f800000
; File C:\IAGOS\server\v18\Source\Source\_Common\World.cpp

; 1764 : {

  0000c	57		 push	 edi
  0000d	8b f9		 mov	 edi, ecx
  0000f	66 0f 6e 55 08	 movd	 xmm2, DWORD PTR _x$[ebp]

; 1765 : 	if( VecInWorld( (float)( x ), (float)( z ) ) == FALSE )

  00014	0f 5b d2	 cvtdq2ps xmm2, xmm2
; File C:\IAGOS\server\v18\Source\Source\_Common\World.h

; 734  : 	if( _isnan( x ) )

  00017	83 ec 08	 sub	 esp, 8
  0001a	66 0f 6e 47 14	 movd	 xmm0, DWORD PTR [edi+20]

; 732  : 	float inv_mpu = 1.0f / (float)m_iMPU;

  0001f	0f 5b c0	 cvtdq2ps xmm0, xmm0
  00022	f3 0f 5e c8	 divss	 xmm1, xmm0

; 734  : 	if( _isnan( x ) )

  00026	0f 5a c2	 cvtps2pd xmm0, xmm2
  00029	f3 0f 11 4d fc	 movss	 DWORD PTR _inv_mpu$1$[ebp], xmm1
  0002e	f2 0f 11 04 24	 movsd	 QWORD PTR [esp], xmm0
  00033	e8 00 00 00 00	 call	 __isnan
  00038	83 c4 08	 add	 esp, 8
  0003b	85 c0		 test	 eax, eax
  0003d	0f 85 b2 00 00
	00		 jne	 $LN12@GetWaterHe
  00043	66 0f 6e 45 08	 movd	 xmm0, DWORD PTR _x$[ebp]
  00048	0f 57 c9	 xorps	 xmm1, xmm1

; 735  : 		return FALSE;
; 736  : 	if( x < 0.0f )

  0004b	0f 5b c0	 cvtdq2ps xmm0, xmm0
  0004e	0f 2f c8	 comiss	 xmm1, xmm0
  00051	0f 87 9e 00 00
	00		 ja	 $LN12@GetWaterHe

; 737  : 		return FALSE;
; 738  : 	if( (x * inv_mpu) >= ( WORLD_WIDTH-1 ) )	

  00057	8b 47 0c	 mov	 eax, DWORD PTR [edi+12]
  0005a	f3 0f 10 4d fc	 movss	 xmm1, DWORD PTR _inv_mpu$1$[ebp]
  0005f	48		 dec	 eax
  00060	f3 0f 59 c8	 mulss	 xmm1, xmm0
  00064	66 0f 6e c0	 movd	 xmm0, eax
  00068	0f 5b c0	 cvtdq2ps xmm0, xmm0
  0006b	0f 2f c8	 comiss	 xmm1, xmm0
  0006e	0f 83 81 00 00
	00		 jae	 $LN12@GetWaterHe
  00074	66 0f 6e 45 0c	 movd	 xmm0, DWORD PTR _z$[ebp]

; 739  : 	{
; 740  : 		return FALSE;
; 741  : 	}
; 742  : 
; 743  : 	if( _isnan( z ) )

  00079	83 ec 08	 sub	 esp, 8
  0007c	0f 5b c0	 cvtdq2ps xmm0, xmm0
  0007f	0f 5a c0	 cvtps2pd xmm0, xmm0
  00082	f2 0f 11 04 24	 movsd	 QWORD PTR [esp], xmm0
  00087	e8 00 00 00 00	 call	 __isnan
  0008c	83 c4 08	 add	 esp, 8
  0008f	85 c0		 test	 eax, eax
  00091	75 62		 jne	 SHORT $LN12@GetWaterHe
  00093	66 0f 6e 45 0c	 movd	 xmm0, DWORD PTR _z$[ebp]
  00098	0f 57 c9	 xorps	 xmm1, xmm1

; 744  : 		return FALSE;
; 745  : 	if( z < 0.0f )

  0009b	0f 5b c0	 cvtdq2ps xmm0, xmm0
  0009e	0f 2f c8	 comiss	 xmm1, xmm0
  000a1	77 52		 ja	 SHORT $LN12@GetWaterHe

; 746  : 		return FALSE;
; 747  : 	if( (z * inv_mpu) >= ( WORLD_HEIGHT-1 ) )		

  000a3	8b 47 10	 mov	 eax, DWORD PTR [edi+16]
  000a6	f3 0f 10 4d fc	 movss	 xmm1, DWORD PTR _inv_mpu$1$[ebp]
  000ab	48		 dec	 eax
  000ac	f3 0f 59 c8	 mulss	 xmm1, xmm0
  000b0	66 0f 6e c0	 movd	 xmm0, eax
  000b4	0f 5b c0	 cvtdq2ps xmm0, xmm0
  000b7	0f 2f c8	 comiss	 xmm1, xmm0
  000ba	73 39		 jae	 SHORT $LN12@GetWaterHe
; File C:\IAGOS\server\v18\Source\Source\_Common\World.cpp

; 1769 : 	z /= m_iMPU;

  000bc	8b 45 0c	 mov	 eax, DWORD PTR _z$[ebp]
  000bf	99		 cdq
  000c0	f7 7f 14	 idiv	 DWORD PTR [edi+20]
  000c3	56		 push	 esi

; 1770 : 
; 1771 : 	int tx = x / PATCH_SIZE;
; 1772 : 	int tz = z / PATCH_SIZE;

  000c4	99		 cdq
  000c5	83 e2 07	 and	 edx, 7
  000c8	8d 34 02	 lea	 esi, DWORD PTR [edx+eax]
  000cb	8b 45 08	 mov	 eax, DWORD PTR _x$[ebp]
  000ce	99		 cdq
  000cf	f7 7f 14	 idiv	 DWORD PTR [edi+20]
  000d2	c1 fe 03	 sar	 esi, 3
  000d5	0f af 77 04	 imul	 esi, DWORD PTR [edi+4]
  000d9	99		 cdq
  000da	83 e2 07	 and	 edx, 7
  000dd	03 c2		 add	 eax, edx
  000df	c1 f8 03	 sar	 eax, 3
  000e2	c1 e6 04	 shl	 esi, 4

; 1773 : 
; 1774 : 	LPWATERHEIGHT lpWaterHeight = &m_apWaterHeight[ tx + tz * ( NUM_PATCHES_PER_SIDE * m_nLandWidth ) ];

  000e5	03 f0		 add	 esi, eax
  000e7	8b 47 20	 mov	 eax, DWORD PTR [edi+32]
  000ea	8d 04 70	 lea	 eax, DWORD PTR [eax+esi*2]

; 1775 : 	return lpWaterHeight;

  000ed	5e		 pop	 esi
  000ee	5f		 pop	 edi

; 1776 : }

  000ef	8b e5		 mov	 esp, ebp
  000f1	5d		 pop	 ebp
  000f2	c2 08 00	 ret	 8
$LN12@GetWaterHe:

; 1766 : 		return NULL;

  000f5	33 c0		 xor	 eax, eax
  000f7	5f		 pop	 edi

; 1776 : }

  000f8	8b e5		 mov	 esp, ebp
  000fa	5d		 pop	 ebp
  000fb	c2 08 00	 ret	 8
?GetWaterHeight@CWorld@@QAEPAUWATERHEIGHT@@HH@Z ENDP	; CWorld::GetWaterHeight
_TEXT	ENDS
; Function compile flags: /Ogtp
; File C:\IAGOS\server\v18\Source\Source\_Common\World.cpp
;	COMDAT ?GetLandTris@CWorld@@QAEHMMPAUD3DXVECTOR3@@@Z
_TEXT	SEGMENT
_this$1$ = -4						; size = 4
_x$ = 8							; size = 4
_z$ = 12						; size = 4
_pTris$ = 16						; size = 4
?GetLandTris@CWorld@@QAEHMMPAUD3DXVECTOR3@@@Z PROC	; CWorld::GetLandTris, COMDAT
; _this$ = ecx

; 1080 : {

  00000	55		 push	 ebp
  00001	8b ec		 mov	 ebp, esp
  00003	51		 push	 ecx

; 1081 : 	int offset=0;
; 1082 : 	if(GetLandTri2(x,			z,			pTris+offset)) offset+=6;

  00004	f3 0f 10 45 0c	 movss	 xmm0, DWORD PTR _z$[ebp]
  00009	53		 push	 ebx
  0000a	8b 5d 10	 mov	 ebx, DWORD PTR _pTris$[ebp]
  0000d	56		 push	 esi
  0000e	57		 push	 edi
  0000f	53		 push	 ebx
  00010	83 ec 08	 sub	 esp, 8
  00013	8b f1		 mov	 esi, ecx
  00015	89 75 fc	 mov	 DWORD PTR _this$1$[ebp], esi
  00018	f3 0f 11 44 24
	04		 movss	 DWORD PTR [esp+4], xmm0
  0001e	f3 0f 10 45 08	 movss	 xmm0, DWORD PTR _x$[ebp]
  00023	f3 0f 11 04 24	 movss	 DWORD PTR [esp], xmm0
  00028	e8 00 00 00 00	 call	 ?GetLandTri2@CWorld@@QAEHMMPAUD3DXVECTOR3@@@Z ; CWorld::GetLandTri2
  0002d	66 0f 6e 4e 14	 movd	 xmm1, DWORD PTR [esi+20]

; 1083 : 	if(GetLandTri2(x-m_iMPU,	z-m_iMPU,	pTris+offset)) offset+=6;

  00032	f7 d8		 neg	 eax
  00034	f3 0f 10 45 0c	 movss	 xmm0, DWORD PTR _z$[ebp]
  00039	8b ce		 mov	 ecx, esi
  0003b	1b ff		 sbb	 edi, edi
  0003d	83 e7 06	 and	 edi, 6
  00040	0f 5b c9	 cvtdq2ps xmm1, xmm1
  00043	8d 04 7f	 lea	 eax, DWORD PTR [edi+edi*2]
  00046	8d 04 83	 lea	 eax, DWORD PTR [ebx+eax*4]
  00049	50		 push	 eax
  0004a	f3 0f 5c c1	 subss	 xmm0, xmm1
  0004e	83 ec 08	 sub	 esp, 8
  00051	f3 0f 11 44 24
	04		 movss	 DWORD PTR [esp+4], xmm0
  00057	f3 0f 10 45 08	 movss	 xmm0, DWORD PTR _x$[ebp]
  0005c	f3 0f 5c c1	 subss	 xmm0, xmm1
  00060	f3 0f 11 04 24	 movss	 DWORD PTR [esp], xmm0
  00065	e8 00 00 00 00	 call	 ?GetLandTri2@CWorld@@QAEHMMPAUD3DXVECTOR3@@@Z ; CWorld::GetLandTri2

; 1084 : 	if(GetLandTri2(x,			z-m_iMPU,	pTris+offset)) offset+=6;

  0006a	8b 4d fc	 mov	 ecx, DWORD PTR _this$1$[ebp]
  0006d	8d 77 06	 lea	 esi, DWORD PTR [edi+6]
  00070	f3 0f 10 4d 0c	 movss	 xmm1, DWORD PTR _z$[ebp]
  00075	85 c0		 test	 eax, eax
  00077	0f 44 f7	 cmove	 esi, edi
  0007a	66 0f 6e 41 14	 movd	 xmm0, DWORD PTR [ecx+20]
  0007f	0f 5b c0	 cvtdq2ps xmm0, xmm0
  00082	8d 04 76	 lea	 eax, DWORD PTR [esi+esi*2]
  00085	8d 04 83	 lea	 eax, DWORD PTR [ebx+eax*4]
  00088	50		 push	 eax
  00089	83 ec 08	 sub	 esp, 8
  0008c	f3 0f 5c c8	 subss	 xmm1, xmm0
  00090	f3 0f 10 45 08	 movss	 xmm0, DWORD PTR _x$[ebp]
  00095	f3 0f 11 4c 24
	04		 movss	 DWORD PTR [esp+4], xmm1
  0009b	f3 0f 11 04 24	 movss	 DWORD PTR [esp], xmm0
  000a0	e8 00 00 00 00	 call	 ?GetLandTri2@CWorld@@QAEHMMPAUD3DXVECTOR3@@@Z ; CWorld::GetLandTri2

; 1085 : 	if(GetLandTri2(x+m_iMPU,	z-m_iMPU,	pTris+offset)) offset+=6;

  000a5	8b 4d 10	 mov	 ecx, DWORD PTR _pTris$[ebp]
  000a8	8d 5e 06	 lea	 ebx, DWORD PTR [esi+6]
  000ab	f3 0f 10 45 0c	 movss	 xmm0, DWORD PTR _z$[ebp]
  000b0	85 c0		 test	 eax, eax
  000b2	0f 44 de	 cmove	 ebx, esi
  000b5	8b 75 fc	 mov	 esi, DWORD PTR _this$1$[ebp]
  000b8	66 0f 6e 4e 14	 movd	 xmm1, DWORD PTR [esi+20]
  000bd	8d 04 5b	 lea	 eax, DWORD PTR [ebx+ebx*2]
  000c0	0f 5b c9	 cvtdq2ps xmm1, xmm1
  000c3	8d 04 81	 lea	 eax, DWORD PTR [ecx+eax*4]
  000c6	8b ce		 mov	 ecx, esi
  000c8	50		 push	 eax
  000c9	83 ec 08	 sub	 esp, 8
  000cc	f3 0f 5c c1	 subss	 xmm0, xmm1
  000d0	f3 0f 58 4d 08	 addss	 xmm1, DWORD PTR _x$[ebp]
  000d5	f3 0f 11 44 24
	04		 movss	 DWORD PTR [esp+4], xmm0
  000db	f3 0f 11 0c 24	 movss	 DWORD PTR [esp], xmm1
  000e0	e8 00 00 00 00	 call	 ?GetLandTri2@CWorld@@QAEHMMPAUD3DXVECTOR3@@@Z ; CWorld::GetLandTri2

; 1086 : 	if(GetLandTri2(x-m_iMPU,	z,			pTris+offset)) offset+=6;

  000e5	f3 0f 10 45 0c	 movss	 xmm0, DWORD PTR _z$[ebp]
  000ea	8d 7b 06	 lea	 edi, DWORD PTR [ebx+6]
  000ed	f3 0f 10 4d 08	 movss	 xmm1, DWORD PTR _x$[ebp]
  000f2	85 c0		 test	 eax, eax
  000f4	8b ce		 mov	 ecx, esi
  000f6	0f 44 fb	 cmove	 edi, ebx
  000f9	8b 5d 10	 mov	 ebx, DWORD PTR _pTris$[ebp]
  000fc	8d 04 7f	 lea	 eax, DWORD PTR [edi+edi*2]
  000ff	8d 04 83	 lea	 eax, DWORD PTR [ebx+eax*4]
  00102	50		 push	 eax
  00103	83 ec 08	 sub	 esp, 8
  00106	f3 0f 11 44 24
	04		 movss	 DWORD PTR [esp+4], xmm0
  0010c	66 0f 6e 46 14	 movd	 xmm0, DWORD PTR [esi+20]
  00111	0f 5b c0	 cvtdq2ps xmm0, xmm0
  00114	f3 0f 5c c8	 subss	 xmm1, xmm0
  00118	f3 0f 11 0c 24	 movss	 DWORD PTR [esp], xmm1
  0011d	e8 00 00 00 00	 call	 ?GetLandTri2@CWorld@@QAEHMMPAUD3DXVECTOR3@@@Z ; CWorld::GetLandTri2

; 1087 : 	if(GetLandTri2(x+m_iMPU,	z,			pTris+offset)) offset+=6;

  00122	f3 0f 10 45 0c	 movss	 xmm0, DWORD PTR _z$[ebp]
  00127	8d 77 06	 lea	 esi, DWORD PTR [edi+6]
  0012a	85 c0		 test	 eax, eax
  0012c	0f 44 f7	 cmove	 esi, edi
  0012f	8d 04 76	 lea	 eax, DWORD PTR [esi+esi*2]
  00132	8d 04 83	 lea	 eax, DWORD PTR [ebx+eax*4]
  00135	50		 push	 eax
  00136	8b 45 fc	 mov	 eax, DWORD PTR _this$1$[ebp]
  00139	83 ec 08	 sub	 esp, 8
  0013c	8b c8		 mov	 ecx, eax
  0013e	f3 0f 11 44 24
	04		 movss	 DWORD PTR [esp+4], xmm0
  00144	66 0f 6e 40 14	 movd	 xmm0, DWORD PTR [eax+20]
  00149	0f 5b c0	 cvtdq2ps xmm0, xmm0
  0014c	f3 0f 58 45 08	 addss	 xmm0, DWORD PTR _x$[ebp]
  00151	f3 0f 11 04 24	 movss	 DWORD PTR [esp], xmm0
  00156	e8 00 00 00 00	 call	 ?GetLandTri2@CWorld@@QAEHMMPAUD3DXVECTOR3@@@Z ; CWorld::GetLandTri2

; 1088 : 	if(GetLandTri2(x-m_iMPU,	z+m_iMPU,	pTris+offset)) offset+=6;

  0015b	8b 4d fc	 mov	 ecx, DWORD PTR _this$1$[ebp]
  0015e	8d 7e 06	 lea	 edi, DWORD PTR [esi+6]
  00161	85 c0		 test	 eax, eax
  00163	0f 44 fe	 cmove	 edi, esi
  00166	66 0f 6e 49 14	 movd	 xmm1, DWORD PTR [ecx+20]
  0016b	0f 5b c9	 cvtdq2ps xmm1, xmm1
  0016e	8d 04 7f	 lea	 eax, DWORD PTR [edi+edi*2]
  00171	8d 04 83	 lea	 eax, DWORD PTR [ebx+eax*4]
  00174	50		 push	 eax
  00175	83 ec 08	 sub	 esp, 8
  00178	0f 28 c1	 movaps	 xmm0, xmm1
  0017b	f3 0f 58 45 0c	 addss	 xmm0, DWORD PTR _z$[ebp]
  00180	f3 0f 11 44 24
	04		 movss	 DWORD PTR [esp+4], xmm0
  00186	f3 0f 10 45 08	 movss	 xmm0, DWORD PTR _x$[ebp]
  0018b	f3 0f 5c c1	 subss	 xmm0, xmm1
  0018f	f3 0f 11 04 24	 movss	 DWORD PTR [esp], xmm0
  00194	e8 00 00 00 00	 call	 ?GetLandTri2@CWorld@@QAEHMMPAUD3DXVECTOR3@@@Z ; CWorld::GetLandTri2

; 1089 : 	if(GetLandTri2(x,			z+m_iMPU,	pTris+offset)) offset+=6;

  00199	85 c0		 test	 eax, eax
  0019b	8d 77 06	 lea	 esi, DWORD PTR [edi+6]
  0019e	0f 44 f7	 cmove	 esi, edi
  001a1	8d 04 76	 lea	 eax, DWORD PTR [esi+esi*2]
  001a4	8d 04 83	 lea	 eax, DWORD PTR [ebx+eax*4]
  001a7	50		 push	 eax
  001a8	8b 45 fc	 mov	 eax, DWORD PTR _this$1$[ebp]
  001ab	83 ec 08	 sub	 esp, 8
  001ae	8b c8		 mov	 ecx, eax
  001b0	66 0f 6e 40 14	 movd	 xmm0, DWORD PTR [eax+20]
  001b5	0f 5b c0	 cvtdq2ps xmm0, xmm0
  001b8	f3 0f 58 45 0c	 addss	 xmm0, DWORD PTR _z$[ebp]
  001bd	f3 0f 11 44 24
	04		 movss	 DWORD PTR [esp+4], xmm0
  001c3	f3 0f 10 45 08	 movss	 xmm0, DWORD PTR _x$[ebp]
  001c8	f3 0f 11 04 24	 movss	 DWORD PTR [esp], xmm0
  001cd	e8 00 00 00 00	 call	 ?GetLandTri2@CWorld@@QAEHMMPAUD3DXVECTOR3@@@Z ; CWorld::GetLandTri2

; 1090 : 	if(GetLandTri2(x+m_iMPU,	z+m_iMPU,	pTris+offset)) offset+=6;

  001d2	8b 4d fc	 mov	 ecx, DWORD PTR _this$1$[ebp]
  001d5	8d 7e 06	 lea	 edi, DWORD PTR [esi+6]
  001d8	85 c0		 test	 eax, eax
  001da	0f 44 fe	 cmove	 edi, esi
  001dd	66 0f 6e 49 14	 movd	 xmm1, DWORD PTR [ecx+20]
  001e2	0f 5b c9	 cvtdq2ps xmm1, xmm1
  001e5	8d 04 7f	 lea	 eax, DWORD PTR [edi+edi*2]
  001e8	8d 04 83	 lea	 eax, DWORD PTR [ebx+eax*4]
  001eb	50		 push	 eax
  001ec	83 ec 08	 sub	 esp, 8
  001ef	0f 28 c1	 movaps	 xmm0, xmm1
  001f2	f3 0f 58 45 0c	 addss	 xmm0, DWORD PTR _z$[ebp]
  001f7	f3 0f 58 4d 08	 addss	 xmm1, DWORD PTR _x$[ebp]
  001fc	f3 0f 11 44 24
	04		 movss	 DWORD PTR [esp+4], xmm0
  00202	f3 0f 11 0c 24	 movss	 DWORD PTR [esp], xmm1
  00207	e8 00 00 00 00	 call	 ?GetLandTri2@CWorld@@QAEHMMPAUD3DXVECTOR3@@@Z ; CWorld::GetLandTri2

; 1091 : 	return offset;

  0020c	85 c0		 test	 eax, eax
  0020e	8d 4f 06	 lea	 ecx, DWORD PTR [edi+6]
  00211	0f 44 cf	 cmove	 ecx, edi
  00214	5f		 pop	 edi
  00215	5e		 pop	 esi
  00216	8b c1		 mov	 eax, ecx
  00218	5b		 pop	 ebx

; 1092 : }

  00219	8b e5		 mov	 esp, ebp
  0021b	5d		 pop	 ebp
  0021c	c2 0c 00	 ret	 12			; 0000000cH
?GetLandTris@CWorld@@QAEHMMPAUD3DXVECTOR3@@@Z ENDP	; CWorld::GetLandTris
_TEXT	ENDS
; Function compile flags: /Ogtp
; File C:\IAGOS\server\v18\Source\Source\_Common\World.cpp
; File C:\IAGOS\server\v18\Source\Source\_Common\World.h
; File C:\IAGOS\server\v18\Source\Source\_Common\World.cpp
; File C:\IAGOS\server\v18\Source\Source\_Common\World.h
; File C:\IAGOS\server\v18\Source\Source\_Common\World.cpp
; File C:\IAGOS\server\v18\Source\Source\DX_SDK\d3dx9math.inl
; File C:\IAGOS\server\v18\Source\Source\_Common\World.cpp
; File C:\IAGOS\server\v18\Source\Source\DX_SDK\d3dx9math.inl
; File C:\IAGOS\server\v18\Source\Source\_Common\World.cpp
; File C:\IAGOS\server\v18\Source\Source\DX_SDK\d3dx9math.inl
; File C:\IAGOS\server\v18\Source\Source\_Common\World.cpp
; File C:\IAGOS\server\v18\Source\Source\DX_SDK\d3dx9math.inl
; File C:\IAGOS\server\v18\Source\Source\_Common\World.cpp
; File C:\IAGOS\server\v18\Source\Source\DX_SDK\d3dx9math.inl
; File C:\IAGOS\server\v18\Source\Source\_Common\World.cpp
; File C:\IAGOS\server\v18\Source\Source\DX_SDK\d3dx9math.inl
; File C:\IAGOS\server\v18\Source\Source\_Common\World.cpp
; File C:\IAGOS\server\v18\Source\Source\DX_SDK\d3dx9math.inl
; File C:\IAGOS\server\v18\Source\Source\_Common\World.cpp
; File C:\IAGOS\server\v18\Source\Source\DX_SDK\d3dx9math.inl
; File C:\IAGOS\server\v18\Source\Source\_Common\World.cpp
; File C:\IAGOS\server\v18\Source\Source\DX_SDK\d3dx9math.inl
; File C:\IAGOS\server\v18\Source\Source\_Common\World.cpp
; File C:\IAGOS\server\v18\Source\Source\DX_SDK\d3dx9math.inl
; File C:\IAGOS\server\v18\Source\Source\_Common\World.cpp
; File C:\IAGOS\server\v18\Source\Source\DX_SDK\d3dx9math.inl
; File C:\IAGOS\server\v18\Source\Source\_Common\World.cpp
; File C:\IAGOS\server\v18\Source\Source\DX_SDK\d3dx9math.inl
; File C:\IAGOS\server\v18\Source\Source\_Common\World.cpp
; File C:\IAGOS\server\v18\Source\Source\DX_SDK\d3dx9math.inl
; File C:\IAGOS\server\v18\Source\Source\_Common\World.cpp
; File C:\IAGOS\server\v18\Source\Source\DX_SDK\d3dx9math.inl
; File C:\IAGOS\server\v18\Source\Source\_Common\World.cpp
; File C:\IAGOS\server\v18\Source\Source\DX_SDK\d3dx9math.inl
; File C:\IAGOS\server\v18\Source\Source\_Common\World.cpp
; File C:\IAGOS\server\v18\Source\Source\DX_SDK\d3dx9math.inl
; File C:\IAGOS\server\v18\Source\Source\_Common\World.cpp
; File C:\IAGOS\server\v18\Source\Source\DX_SDK\d3dx9math.inl
; File C:\IAGOS\server\v18\Source\Source\_Common\World.cpp
; File C:\IAGOS\server\v18\Source\Source\DX_SDK\d3dx9math.inl
; File C:\IAGOS\server\v18\Source\Source\_Common\World.cpp
; File C:\IAGOS\server\v18\Source\Source\DX_SDK\d3dx9math.inl
; File C:\IAGOS\server\v18\Source\Source\_Common\World.cpp
; File C:\IAGOS\server\v18\Source\Source\DX_SDK\d3dx9math.inl
; File C:\IAGOS\server\v18\Source\Source\_Common\World.cpp
; File C:\IAGOS\server\v18\Source\Source\DX_SDK\d3dx9math.inl
; File C:\IAGOS\server\v18\Source\Source\_Common\World.cpp
; File C:\IAGOS\server\v18\Source\Source\DX_SDK\d3dx9math.inl
; File C:\IAGOS\server\v18\Source\Source\_Common\World.cpp
; File C:\IAGOS\server\v18\Source\Source\DX_SDK\d3dx9math.inl
; File C:\IAGOS\server\v18\Source\Source\_Common\World.cpp
; File C:\IAGOS\server\v18\Source\Source\DX_SDK\d3dx9math.inl
; File C:\IAGOS\server\v18\Source\Source\_Common\World.cpp
; File C:\IAGOS\server\v18\Source\Source\DX_SDK\d3dx9math.inl
; File C:\IAGOS\server\v18\Source\Source\_Common\World.cpp
; File C:\IAGOS\server\v18\Source\Source\DX_SDK\d3dx9math.inl
; File C:\IAGOS\server\v18\Source\Source\_Common\World.cpp
; File C:\IAGOS\server\v18\Source\Source\DX_SDK\d3dx9math.inl
; File C:\IAGOS\server\v18\Source\Source\_Common\World.cpp
; File C:\IAGOS\server\v18\Source\Source\DX_SDK\d3dx9math.inl
; File C:\IAGOS\server\v18\Source\Source\_Common\World.cpp
; File C:\IAGOS\server\v18\Source\Source\DX_SDK\d3dx9math.inl
; File C:\IAGOS\server\v18\Source\Source\_Common\World.cpp
; File C:\IAGOS\server\v18\Source\Source\DX_SDK\d3dx9math.inl
; File C:\IAGOS\server\v18\Source\Source\_Common\World.cpp
; File C:\IAGOS\server\v18\Source\Source\DX_SDK\d3dx9math.inl
; File C:\IAGOS\server\v18\Source\Source\_Common\World.cpp
; File C:\IAGOS\server\v18\Source\Source\DX_SDK\d3dx9math.inl
; File C:\IAGOS\server\v18\Source\Source\_Common\World.cpp
; File C:\IAGOS\server\v18\Source\Source\DX_SDK\d3dx9math.inl
; File C:\IAGOS\server\v18\Source\Source\_Common\World.cpp
; File C:\IAGOS\server\v18\Source\Source\DX_SDK\d3dx9math.inl
; File C:\IAGOS\server\v18\Source\Source\_Common\World.cpp
; File C:\IAGOS\server\v18\Source\Source\DX_SDK\d3dx9math.inl
; File C:\IAGOS\server\v18\Source\Source\_Common\World.cpp
; File C:\IAGOS\server\v18\Source\Source\DX_SDK\d3dx9math.inl
; File C:\IAGOS\server\v18\Source\Source\_Common\World.cpp
;	COMDAT ?GetLandTri2@CWorld@@QAEHMMPAUD3DXVECTOR3@@@Z
_TEXT	SEGMENT
tv2930 = -8						; size = 4
_inv_mpu$1$ = -4					; size = 4
tv3022 = -4						; size = 4
_x$ = 8							; size = 4
tv3017 = 8						; size = 4
$T1 = 8							; size = 4
_z$ = 12						; size = 4
_gz$1$ = 12						; size = 4
_pTri$ = 16						; size = 4
$T2 = 16						; size = 4
?GetLandTri2@CWorld@@QAEHMMPAUD3DXVECTOR3@@@Z PROC	; CWorld::GetLandTri2, COMDAT
; _this$ = ecx

; 1094 : {

  00000	55		 push	 ebp
  00001	8b ec		 mov	 ebp, esp
  00003	83 ec 08	 sub	 esp, 8
; File C:\IAGOS\server\v18\Source\Source\_Common\World.h

; 732  : 	float inv_mpu = 1.0f / (float)m_iMPU;

  00006	f3 0f 10 0d 00
	00 00 00	 movss	 xmm1, DWORD PTR __real@3f800000
; File C:\IAGOS\server\v18\Source\Source\_Common\World.cpp

; 1094 : {

  0000e	56		 push	 esi
  0000f	57		 push	 edi
  00010	8b f9		 mov	 edi, ecx
  00012	8b 75 10	 mov	 esi, DWORD PTR _pTri$[ebp]
; File C:\IAGOS\server\v18\Source\Source\_Common\World.h

; 734  : 	if( _isnan( x ) )

  00015	83 ec 08	 sub	 esp, 8
  00018	66 0f 6e 47 14	 movd	 xmm0, DWORD PTR [edi+20]

; 732  : 	float inv_mpu = 1.0f / (float)m_iMPU;

  0001d	0f 5b c0	 cvtdq2ps xmm0, xmm0
  00020	f3 0f 5e c8	 divss	 xmm1, xmm0
  00024	f3 0f 10 45 08	 movss	 xmm0, DWORD PTR _x$[ebp]

; 734  : 	if( _isnan( x ) )

  00029	0f 5a c0	 cvtps2pd xmm0, xmm0
  0002c	f3 0f 11 4d fc	 movss	 DWORD PTR _inv_mpu$1$[ebp], xmm1
  00031	f2 0f 11 04 24	 movsd	 QWORD PTR [esp], xmm0
  00036	e8 00 00 00 00	 call	 __isnan
  0003b	83 c4 08	 add	 esp, 8
  0003e	85 c0		 test	 eax, eax
  00040	0f 85 30 07 00
	00		 jne	 $LN72@GetLandTri

; 735  : 		return FALSE;
; 736  : 	if( x < 0.0f )

  00046	f3 0f 10 45 08	 movss	 xmm0, DWORD PTR _x$[ebp]
  0004b	0f 57 c9	 xorps	 xmm1, xmm1
  0004e	0f 2f c8	 comiss	 xmm1, xmm0
  00051	0f 87 1f 07 00
	00		 ja	 $LN72@GetLandTri

; 737  : 		return FALSE;
; 738  : 	if( (x * inv_mpu) >= ( WORLD_WIDTH-1 ) )	

  00057	8b 47 0c	 mov	 eax, DWORD PTR [edi+12]
  0005a	f3 0f 10 4d fc	 movss	 xmm1, DWORD PTR _inv_mpu$1$[ebp]
  0005f	48		 dec	 eax
  00060	f3 0f 59 c8	 mulss	 xmm1, xmm0
  00064	66 0f 6e c0	 movd	 xmm0, eax
  00068	0f 5b c0	 cvtdq2ps xmm0, xmm0
  0006b	0f 2f c8	 comiss	 xmm1, xmm0
  0006e	0f 83 02 07 00
	00		 jae	 $LN72@GetLandTri
  00074	f3 0f 10 45 0c	 movss	 xmm0, DWORD PTR _z$[ebp]

; 739  : 	{
; 740  : 		return FALSE;
; 741  : 	}
; 742  : 
; 743  : 	if( _isnan( z ) )

  00079	83 ec 08	 sub	 esp, 8
  0007c	0f 5a c0	 cvtps2pd xmm0, xmm0
  0007f	f2 0f 11 04 24	 movsd	 QWORD PTR [esp], xmm0
  00084	e8 00 00 00 00	 call	 __isnan
  00089	83 c4 08	 add	 esp, 8
  0008c	85 c0		 test	 eax, eax
  0008e	0f 85 e2 06 00
	00		 jne	 $LN72@GetLandTri

; 744  : 		return FALSE;
; 745  : 	if( z < 0.0f )

  00094	f3 0f 10 4d 0c	 movss	 xmm1, DWORD PTR _z$[ebp]
  00099	0f 57 c0	 xorps	 xmm0, xmm0
  0009c	0f 2f c1	 comiss	 xmm0, xmm1
  0009f	0f 87 d1 06 00
	00		 ja	 $LN72@GetLandTri

; 746  : 		return FALSE;
; 747  : 	if( (z * inv_mpu) >= ( WORLD_HEIGHT-1 ) )		

  000a5	8b 47 10	 mov	 eax, DWORD PTR [edi+16]
  000a8	f3 0f 10 55 fc	 movss	 xmm2, DWORD PTR _inv_mpu$1$[ebp]
  000ad	48		 dec	 eax
  000ae	f3 0f 59 d1	 mulss	 xmm2, xmm1
  000b2	66 0f 6e c0	 movd	 xmm0, eax
  000b6	0f 5b c0	 cvtdq2ps xmm0, xmm0
  000b9	0f 2f d0	 comiss	 xmm2, xmm0
  000bc	0f 83 b4 06 00
	00		 jae	 $LN72@GetLandTri
; File C:\IAGOS\server\v18\Source\Source\_Common\World.cpp

; 1097 : 	x /= m_iMPU; 

  000c2	8b 4f 14	 mov	 ecx, DWORD PTR [edi+20]
  000c5	f3 0f 10 55 08	 movss	 xmm2, DWORD PTR _x$[ebp]
  000ca	53		 push	 ebx
  000cb	66 0f 6e c1	 movd	 xmm0, ecx
  000cf	0f 5b c0	 cvtdq2ps xmm0, xmm0
  000d2	f3 0f 5e d0	 divss	 xmm2, xmm0

; 1098 : 	z /= m_iMPU;

  000d6	f3 0f 5e c8	 divss	 xmm1, xmm0

; 1099 : 
; 1100 : #ifdef __WORLDSERVER
; 1101 : 	int gx = (int)x;

  000da	f3 0f 2c da	 cvttss2si ebx, xmm2

; 1102 : 	int gz = (int)z;

  000de	f3 0f 2c d1	 cvttss2si edx, xmm1
  000e2	66 0f 6e c3	 movd	 xmm0, ebx

; 1103 : 	float glx = x - gx;

  000e6	0f 5b c0	 cvtdq2ps xmm0, xmm0
  000e9	89 55 0c	 mov	 DWORD PTR _gz$1$[ebp], edx

; 1104 : 	float glz = z - gz;
; 1105 : 
; 1106 : 	if( (gx + gz) % 2 == 0 ) 

  000ec	8d 42 01	 lea	 eax, DWORD PTR [edx+1]
  000ef	89 45 08	 mov	 DWORD PTR tv3017[ebp], eax
  000f2	8d 43 01	 lea	 eax, DWORD PTR [ebx+1]
  000f5	89 45 fc	 mov	 DWORD PTR tv3022[ebp], eax
  000f8	8d 04 1a	 lea	 eax, DWORD PTR [edx+ebx]
  000fb	f3 0f 5c d0	 subss	 xmm2, xmm0
  000ff	a8 01		 test	 al, 1
  00101	66 0f 6e c2	 movd	 xmm0, edx
  00105	8b c2		 mov	 eax, edx
  00107	0f 5b c0	 cvtdq2ps xmm0, xmm0
  0010a	f3 0f 5c c8	 subss	 xmm1, xmm0
  0010e	0f 85 8a 02 00
	00		 jne	 $LN3@GetLandTri

; 1107 : 	{
; 1108 : 		if( glx > glz ) 

  00114	0f af c1	 imul	 eax, ecx
  00117	8b 4f 0c	 mov	 ecx, DWORD PTR [edi+12]
  0011a	0f af ca	 imul	 ecx, edx
  0011d	03 cb		 add	 ecx, ebx
  0011f	66 0f 6e e0	 movd	 xmm4, eax
  00123	8b 47 1c	 mov	 eax, DWORD PTR [edi+28]
  00126	0f 5b e4	 cvtdq2ps xmm4, xmm4
  00129	f3 0f 10 1c 88	 movss	 xmm3, DWORD PTR [eax+ecx*4]
  0012e	8b 47 14	 mov	 eax, DWORD PTR [edi+20]
  00131	0f af c3	 imul	 eax, ebx
  00134	66 0f 6e c0	 movd	 xmm0, eax
  00138	0f 5b c0	 cvtdq2ps xmm0, xmm0
  0013b	f3 0f 11 06	 movss	 DWORD PTR [esi], xmm0
  0013f	f3 0f 11 5e 04	 movss	 DWORD PTR [esi+4], xmm3
  00144	f3 0f 11 66 08	 movss	 DWORD PTR [esi+8], xmm4
  00149	8b 4f 0c	 mov	 ecx, DWORD PTR [edi+12]
  0014c	0f af 4d 08	 imul	 ecx, DWORD PTR tv3017[ebp]
  00150	8b 57 14	 mov	 edx, DWORD PTR [edi+20]
  00153	8b 47 1c	 mov	 eax, DWORD PTR [edi+28]
  00156	03 cb		 add	 ecx, ebx
  00158	0f 2f d1	 comiss	 xmm2, xmm1
  0015b	0f 86 09 01 00
	00		 jbe	 $LN5@GetLandTri
; File C:\IAGOS\server\v18\Source\Source\DX_SDK\d3dx9math.inl

; 301  :     y = fy;

  00161	f3 0f 10 4c 88
	04		 movss	 xmm1, DWORD PTR [eax+ecx*4+4]
; File C:\IAGOS\server\v18\Source\Source\_Common\World.cpp

; 1112 : 			pTri[1] = D3DXVECTOR3( (float)( (gx+1) * m_iMPU ), (float)( m_apHeightMap[(gx+1)+(gz+1)*WORLD_WIDTH] ), (float)( (gz+1)*m_iMPU ) );

  00167	8b c2		 mov	 eax, edx
  00169	0f af 55 08	 imul	 edx, DWORD PTR tv3017[ebp]
  0016d	8d 4b 01	 lea	 ecx, DWORD PTR [ebx+1]
  00170	0f af c1	 imul	 eax, ecx
  00173	66 0f 6e c0	 movd	 xmm0, eax
  00177	0f 5b c0	 cvtdq2ps xmm0, xmm0
  0017a	f3 0f 11 46 0c	 movss	 DWORD PTR [esi+12], xmm0
  0017f	f3 0f 11 4e 10	 movss	 DWORD PTR [esi+16], xmm1
  00184	66 0f 6e c2	 movd	 xmm0, edx
  00188	0f 5b c0	 cvtdq2ps xmm0, xmm0
  0018b	f3 0f 11 46 14	 movss	 DWORD PTR [esi+20], xmm0

; 1113 : 			pTri[2] = D3DXVECTOR3( (float)( (gx+1) * m_iMPU ), (float)( m_apHeightMap[(gx+1)+(gz  )*WORLD_WIDTH] ), (float)( (gz  )*m_iMPU ) );

  00190	8b 4f 0c	 mov	 ecx, DWORD PTR [edi+12]
  00193	0f af 4d 0c	 imul	 ecx, DWORD PTR _gz$1$[ebp]
; File C:\IAGOS\server\v18\Source\Source\DX_SDK\d3dx9math.inl

; 301  :     y = fy;

  00197	8b 47 1c	 mov	 eax, DWORD PTR [edi+28]
; File C:\IAGOS\server\v18\Source\Source\_Common\World.cpp

; 1113 : 			pTri[2] = D3DXVECTOR3( (float)( (gx+1) * m_iMPU ), (float)( m_apHeightMap[(gx+1)+(gz  )*WORLD_WIDTH] ), (float)( (gz  )*m_iMPU ) );

  0019a	8b 57 14	 mov	 edx, DWORD PTR [edi+20]
  0019d	03 cb		 add	 ecx, ebx
; File C:\IAGOS\server\v18\Source\Source\DX_SDK\d3dx9math.inl

; 301  :     y = fy;

  0019f	f3 0f 10 4c 88
	04		 movss	 xmm1, DWORD PTR [eax+ecx*4+4]
; File C:\IAGOS\server\v18\Source\Source\_Common\World.cpp

; 1113 : 			pTri[2] = D3DXVECTOR3( (float)( (gx+1) * m_iMPU ), (float)( m_apHeightMap[(gx+1)+(gz  )*WORLD_WIDTH] ), (float)( (gz  )*m_iMPU ) );

  001a5	8b c2		 mov	 eax, edx
  001a7	0f af 55 0c	 imul	 edx, DWORD PTR _gz$1$[ebp]
  001ab	8d 4b 01	 lea	 ecx, DWORD PTR [ebx+1]
  001ae	0f af c1	 imul	 eax, ecx
  001b1	66 0f 6e c0	 movd	 xmm0, eax
  001b5	0f 5b c0	 cvtdq2ps xmm0, xmm0
  001b8	f3 0f 11 46 18	 movss	 DWORD PTR [esi+24], xmm0
  001bd	f3 0f 11 4e 1c	 movss	 DWORD PTR [esi+28], xmm1
  001c2	66 0f 6e c2	 movd	 xmm0, edx
  001c6	0f 5b c0	 cvtdq2ps xmm0, xmm0
  001c9	f3 0f 11 46 20	 movss	 DWORD PTR [esi+32], xmm0

; 1115 : 			pTri[3] = D3DXVECTOR3( (float)( (gx  ) * m_iMPU ), (float)( m_apHeightMap[(gx  )+(gz  )*WORLD_WIDTH] ), (float)( (gz  )*m_iMPU ) );

  001ce	8b 4f 0c	 mov	 ecx, DWORD PTR [edi+12]
  001d1	0f af 4d 0c	 imul	 ecx, DWORD PTR _gz$1$[ebp]
; File C:\IAGOS\server\v18\Source\Source\DX_SDK\d3dx9math.inl

; 301  :     y = fy;

  001d5	8b 47 1c	 mov	 eax, DWORD PTR [edi+28]
; File C:\IAGOS\server\v18\Source\Source\_Common\World.cpp

; 1115 : 			pTri[3] = D3DXVECTOR3( (float)( (gx  ) * m_iMPU ), (float)( m_apHeightMap[(gx  )+(gz  )*WORLD_WIDTH] ), (float)( (gz  )*m_iMPU ) );

  001d8	8b 57 14	 mov	 edx, DWORD PTR [edi+20]
  001db	03 cb		 add	 ecx, ebx
; File C:\IAGOS\server\v18\Source\Source\DX_SDK\d3dx9math.inl

; 301  :     y = fy;

  001dd	f3 0f 10 0c 88	 movss	 xmm1, DWORD PTR [eax+ecx*4]
; File C:\IAGOS\server\v18\Source\Source\_Common\World.cpp

; 1115 : 			pTri[3] = D3DXVECTOR3( (float)( (gx  ) * m_iMPU ), (float)( m_apHeightMap[(gx  )+(gz  )*WORLD_WIDTH] ), (float)( (gz  )*m_iMPU ) );

  001e2	8b c2		 mov	 eax, edx
  001e4	0f af 55 0c	 imul	 edx, DWORD PTR _gz$1$[ebp]
  001e8	0f af c3	 imul	 eax, ebx
  001eb	66 0f 6e c0	 movd	 xmm0, eax
  001ef	0f 5b c0	 cvtdq2ps xmm0, xmm0
  001f2	f3 0f 11 46 24	 movss	 DWORD PTR [esi+36], xmm0
  001f7	66 0f 6e c2	 movd	 xmm0, edx
  001fb	f3 0f 11 4e 28	 movss	 DWORD PTR [esi+40], xmm1
  00200	0f 5b c0	 cvtdq2ps xmm0, xmm0
  00203	f3 0f 11 46 2c	 movss	 DWORD PTR [esi+44], xmm0

; 1116 : 			pTri[4] = D3DXVECTOR3( (float)( (gx  ) * m_iMPU ), (float)( m_apHeightMap[(gx  )+(gz+1)*WORLD_WIDTH] ), (float)( (gz+1)*m_iMPU ) );

  00208	8b 4f 0c	 mov	 ecx, DWORD PTR [edi+12]
  0020b	0f af 4d 08	 imul	 ecx, DWORD PTR tv3017[ebp]
; File C:\IAGOS\server\v18\Source\Source\DX_SDK\d3dx9math.inl

; 301  :     y = fy;

  0020f	8b 47 1c	 mov	 eax, DWORD PTR [edi+28]
; File C:\IAGOS\server\v18\Source\Source\_Common\World.cpp

; 1116 : 			pTri[4] = D3DXVECTOR3( (float)( (gx  ) * m_iMPU ), (float)( m_apHeightMap[(gx  )+(gz+1)*WORLD_WIDTH] ), (float)( (gz+1)*m_iMPU ) );

  00212	8b 57 14	 mov	 edx, DWORD PTR [edi+20]
  00215	03 cb		 add	 ecx, ebx
; File C:\IAGOS\server\v18\Source\Source\DX_SDK\d3dx9math.inl

; 301  :     y = fy;

  00217	f3 0f 10 0c 88	 movss	 xmm1, DWORD PTR [eax+ecx*4]
; File C:\IAGOS\server\v18\Source\Source\_Common\World.cpp

; 1116 : 			pTri[4] = D3DXVECTOR3( (float)( (gx  ) * m_iMPU ), (float)( m_apHeightMap[(gx  )+(gz+1)*WORLD_WIDTH] ), (float)( (gz+1)*m_iMPU ) );

  0021c	8b c2		 mov	 eax, edx
  0021e	0f af c3	 imul	 eax, ebx

; 1117 : 			pTri[5] = D3DXVECTOR3( (float)( (gx+1) * m_iMPU ), (float)( m_apHeightMap[(gx+1)+(gz+1)*WORLD_WIDTH] ), (float)( (gz+1)*m_iMPU ) );

  00221	8d 4e 3c	 lea	 ecx, DWORD PTR [esi+60]
  00224	89 4d 10	 mov	 DWORD PTR $T2[ebp], ecx
  00227	66 0f 6e c0	 movd	 xmm0, eax
  0022b	8b 45 08	 mov	 eax, DWORD PTR tv3017[ebp]
  0022e	0f af d0	 imul	 edx, eax
  00231	0f 5b c0	 cvtdq2ps xmm0, xmm0
  00234	f3 0f 11 46 30	 movss	 DWORD PTR [esi+48], xmm0
  00239	66 0f 6e c2	 movd	 xmm0, edx
  0023d	0f 5b c0	 cvtdq2ps xmm0, xmm0
  00240	f3 0f 11 4e 34	 movss	 DWORD PTR [esi+52], xmm1
  00245	f3 0f 11 46 38	 movss	 DWORD PTR [esi+56], xmm0
  0024a	8b 4f 0c	 mov	 ecx, DWORD PTR [edi+12]
  0024d	8b 57 14	 mov	 edx, DWORD PTR [edi+20]
  00250	0f af c8	 imul	 ecx, eax
  00253	0f af d0	 imul	 edx, eax
  00256	8b 47 1c	 mov	 eax, DWORD PTR [edi+28]
  00259	03 cb		 add	 ecx, ebx
  0025b	8d 0c 88	 lea	 ecx, DWORD PTR [eax+ecx*4]
  0025e	8b 47 14	 mov	 eax, DWORD PTR [edi+20]
  00261	0f af 45 fc	 imul	 eax, DWORD PTR tv3022[ebp]

; 1118 : 		}

  00265	e9 0c 01 00 00	 jmp	 $LN88@GetLandTri
$LN5@GetLandTri:
; File C:\IAGOS\server\v18\Source\Source\DX_SDK\d3dx9math.inl

; 301  :     y = fy;

  0026a	f3 0f 10 0c 88	 movss	 xmm1, DWORD PTR [eax+ecx*4]
; File C:\IAGOS\server\v18\Source\Source\_Common\World.cpp

; 1122 : 			pTri[1] = D3DXVECTOR3( (float)( (gx  )*m_iMPU ), (float)( m_apHeightMap[(gx  )+(gz+1)*WORLD_WIDTH] ), (float)( (gz+1)*m_iMPU ) );

  0026f	8b c2		 mov	 eax, edx
  00271	0f af c3	 imul	 eax, ebx
  00274	66 0f 6e c0	 movd	 xmm0, eax
  00278	8b 45 08	 mov	 eax, DWORD PTR tv3017[ebp]
  0027b	0f af c2	 imul	 eax, edx
  0027e	0f 5b c0	 cvtdq2ps xmm0, xmm0
  00281	f3 0f 11 46 0c	 movss	 DWORD PTR [esi+12], xmm0
  00286	f3 0f 11 4e 10	 movss	 DWORD PTR [esi+16], xmm1
  0028b	66 0f 6e c0	 movd	 xmm0, eax
  0028f	0f 5b c0	 cvtdq2ps xmm0, xmm0
  00292	f3 0f 11 46 14	 movss	 DWORD PTR [esi+20], xmm0

; 1123 : 			pTri[2] = D3DXVECTOR3( (float)( (gx+1)*m_iMPU ), (float)( m_apHeightMap[(gx+1)+(gz+1)*WORLD_WIDTH] ), (float)( (gz+1)*m_iMPU ) );

  00297	8b 4f 0c	 mov	 ecx, DWORD PTR [edi+12]
  0029a	0f af 4d 08	 imul	 ecx, DWORD PTR tv3017[ebp]
; File C:\IAGOS\server\v18\Source\Source\DX_SDK\d3dx9math.inl

; 301  :     y = fy;

  0029e	8b 47 1c	 mov	 eax, DWORD PTR [edi+28]
; File C:\IAGOS\server\v18\Source\Source\_Common\World.cpp

; 1123 : 			pTri[2] = D3DXVECTOR3( (float)( (gx+1)*m_iMPU ), (float)( m_apHeightMap[(gx+1)+(gz+1)*WORLD_WIDTH] ), (float)( (gz+1)*m_iMPU ) );

  002a1	8b 57 14	 mov	 edx, DWORD PTR [edi+20]
  002a4	03 cb		 add	 ecx, ebx
; File C:\IAGOS\server\v18\Source\Source\DX_SDK\d3dx9math.inl

; 301  :     y = fy;

  002a6	f3 0f 10 4c 88
	04		 movss	 xmm1, DWORD PTR [eax+ecx*4+4]
; File C:\IAGOS\server\v18\Source\Source\_Common\World.cpp

; 1123 : 			pTri[2] = D3DXVECTOR3( (float)( (gx+1)*m_iMPU ), (float)( m_apHeightMap[(gx+1)+(gz+1)*WORLD_WIDTH] ), (float)( (gz+1)*m_iMPU ) );

  002ac	8d 43 01	 lea	 eax, DWORD PTR [ebx+1]
  002af	0f af c2	 imul	 eax, edx
  002b2	66 0f 6e c0	 movd	 xmm0, eax
  002b6	8b 45 08	 mov	 eax, DWORD PTR tv3017[ebp]
  002b9	0f af c2	 imul	 eax, edx
  002bc	0f 5b c0	 cvtdq2ps xmm0, xmm0
  002bf	f3 0f 11 46 18	 movss	 DWORD PTR [esi+24], xmm0
  002c4	66 0f 6e c0	 movd	 xmm0, eax
  002c8	f3 0f 11 4e 1c	 movss	 DWORD PTR [esi+28], xmm1
  002cd	0f 5b c0	 cvtdq2ps xmm0, xmm0
  002d0	f3 0f 11 46 20	 movss	 DWORD PTR [esi+32], xmm0

; 1125 : 			pTri[3] = D3DXVECTOR3( (float)( (gx  )*m_iMPU ), (float)( m_apHeightMap[(gx  )+(gz  )*WORLD_WIDTH] ), (float)( (gz  )*m_iMPU ) );

  002d5	8b 4f 0c	 mov	 ecx, DWORD PTR [edi+12]
  002d8	0f af 4d 0c	 imul	 ecx, DWORD PTR _gz$1$[ebp]
; File C:\IAGOS\server\v18\Source\Source\DX_SDK\d3dx9math.inl

; 301  :     y = fy;

  002dc	8b 47 1c	 mov	 eax, DWORD PTR [edi+28]
; File C:\IAGOS\server\v18\Source\Source\_Common\World.cpp

; 1125 : 			pTri[3] = D3DXVECTOR3( (float)( (gx  )*m_iMPU ), (float)( m_apHeightMap[(gx  )+(gz  )*WORLD_WIDTH] ), (float)( (gz  )*m_iMPU ) );

  002df	8b 57 14	 mov	 edx, DWORD PTR [edi+20]
  002e2	03 cb		 add	 ecx, ebx
; File C:\IAGOS\server\v18\Source\Source\DX_SDK\d3dx9math.inl

; 301  :     y = fy;

  002e4	f3 0f 10 0c 88	 movss	 xmm1, DWORD PTR [eax+ecx*4]
; File C:\IAGOS\server\v18\Source\Source\_Common\World.cpp

; 1125 : 			pTri[3] = D3DXVECTOR3( (float)( (gx  )*m_iMPU ), (float)( m_apHeightMap[(gx  )+(gz  )*WORLD_WIDTH] ), (float)( (gz  )*m_iMPU ) );

  002e9	8b c2		 mov	 eax, edx
  002eb	0f af 55 0c	 imul	 edx, DWORD PTR _gz$1$[ebp]
  002ef	0f af c3	 imul	 eax, ebx
  002f2	66 0f 6e c0	 movd	 xmm0, eax
  002f6	0f 5b c0	 cvtdq2ps xmm0, xmm0
  002f9	f3 0f 11 46 24	 movss	 DWORD PTR [esi+36], xmm0
  002fe	f3 0f 11 4e 28	 movss	 DWORD PTR [esi+40], xmm1
  00303	66 0f 6e c2	 movd	 xmm0, edx
  00307	0f 5b c0	 cvtdq2ps xmm0, xmm0
  0030a	f3 0f 11 46 2c	 movss	 DWORD PTR [esi+44], xmm0

; 1126 : 			pTri[4] = D3DXVECTOR3( (float)( (gx+1)*m_iMPU ), (float)( m_apHeightMap[(gx+1)+(gz+1)*WORLD_WIDTH] ), (float)( (gz+1)*m_iMPU ) );

  0030f	8b 4f 0c	 mov	 ecx, DWORD PTR [edi+12]
  00312	0f af 4d 08	 imul	 ecx, DWORD PTR tv3017[ebp]
; File C:\IAGOS\server\v18\Source\Source\DX_SDK\d3dx9math.inl

; 301  :     y = fy;

  00316	8b 47 1c	 mov	 eax, DWORD PTR [edi+28]
; File C:\IAGOS\server\v18\Source\Source\_Common\World.cpp

; 1126 : 			pTri[4] = D3DXVECTOR3( (float)( (gx+1)*m_iMPU ), (float)( m_apHeightMap[(gx+1)+(gz+1)*WORLD_WIDTH] ), (float)( (gz+1)*m_iMPU ) );

  00319	8b 57 14	 mov	 edx, DWORD PTR [edi+20]
  0031c	03 cb		 add	 ecx, ebx
; File C:\IAGOS\server\v18\Source\Source\DX_SDK\d3dx9math.inl

; 301  :     y = fy;

  0031e	f3 0f 10 4c 88
	04		 movss	 xmm1, DWORD PTR [eax+ecx*4+4]
; File C:\IAGOS\server\v18\Source\Source\_Common\World.cpp

; 1126 : 			pTri[4] = D3DXVECTOR3( (float)( (gx+1)*m_iMPU ), (float)( m_apHeightMap[(gx+1)+(gz+1)*WORLD_WIDTH] ), (float)( (gz+1)*m_iMPU ) );

  00324	8d 43 01	 lea	 eax, DWORD PTR [ebx+1]
  00327	0f af c2	 imul	 eax, edx
  0032a	66 0f 6e c0	 movd	 xmm0, eax
  0032e	8b 45 08	 mov	 eax, DWORD PTR tv3017[ebp]
  00331	0f af c2	 imul	 eax, edx
  00334	0f 5b c0	 cvtdq2ps xmm0, xmm0
  00337	f3 0f 11 46 30	 movss	 DWORD PTR [esi+48], xmm0
  0033c	66 0f 6e c0	 movd	 xmm0, eax
  00340	0f 5b c0	 cvtdq2ps xmm0, xmm0
  00343	f3 0f 11 4e 34	 movss	 DWORD PTR [esi+52], xmm1
  00348	f3 0f 11 46 38	 movss	 DWORD PTR [esi+56], xmm0

; 1127 : 			pTri[5] = D3DXVECTOR3( (float)( (gx+1)*m_iMPU ), (float)( m_apHeightMap[(gx+1)+(gz  )*WORLD_WIDTH] ), (float)( (gz  )*m_iMPU ) );

  0034d	8b 4f 14	 mov	 ecx, DWORD PTR [edi+20]
  00350	0f af 4d 0c	 imul	 ecx, DWORD PTR _gz$1$[ebp]
  00354	8b 47 1c	 mov	 eax, DWORD PTR [edi+28]
  00357	89 4d 08	 mov	 DWORD PTR $T1[ebp], ecx
  0035a	8d 4e 3c	 lea	 ecx, DWORD PTR [esi+60]
  0035d	8b 55 08	 mov	 edx, DWORD PTR $T1[ebp]
  00360	89 4d 10	 mov	 DWORD PTR $T2[ebp], ecx
  00363	8b 4f 0c	 mov	 ecx, DWORD PTR [edi+12]
  00366	0f af 4d 0c	 imul	 ecx, DWORD PTR _gz$1$[ebp]
  0036a	03 cb		 add	 ecx, ebx
  0036c	8d 0c 88	 lea	 ecx, DWORD PTR [eax+ecx*4]
  0036f	8b 45 fc	 mov	 eax, DWORD PTR tv3022[ebp]
  00372	0f af 47 14	 imul	 eax, DWORD PTR [edi+20]
$LN88@GetLandTri:

; 1128 : 		}
; 1129 : 	}

  00376	f3 0f 10 49 04	 movss	 xmm1, DWORD PTR [ecx+4]
  0037b	8b de		 mov	 ebx, esi
  0037d	66 0f 6e c0	 movd	 xmm0, eax
  00381	b8 40 00 00 00	 mov	 eax, 64			; 00000040H
  00386	0f 5b c0	 cvtdq2ps xmm0, xmm0
  00389	f3 0f 11 46 3c	 movss	 DWORD PTR [esi+60], xmm0
  0038e	f3 0f 11 0c 03	 movss	 DWORD PTR [ebx+eax], xmm1
  00393	8b 45 10	 mov	 eax, DWORD PTR $T2[ebp]
  00396	83 c0 08	 add	 eax, 8
  00399	e9 c0 02 00 00	 jmp	 $LN89@GetLandTri
$LN3@GetLandTri:

; 1130 : 	else 
; 1131 : 	{
; 1132 : 		if( glx + glz < 1.0f )

  0039e	f3 0f 10 05 00
	00 00 00	 movss	 xmm0, DWORD PTR __real@3f800000
  003a6	f3 0f 58 ca	 addss	 xmm1, xmm2
  003aa	0f af c1	 imul	 eax, ecx
  003ad	66 0f 6e d8	 movd	 xmm3, eax
  003b1	8d 46 04	 lea	 eax, DWORD PTR [esi+4]
  003b4	8b 77 0c	 mov	 esi, DWORD PTR [edi+12]
  003b7	0f af f2	 imul	 esi, edx
  003ba	0f 5b db	 cvtdq2ps xmm3, xmm3
  003bd	8b d6		 mov	 edx, esi
  003bf	8b 77 1c	 mov	 esi, DWORD PTR [edi+28]
  003c2	03 d3		 add	 edx, ebx
  003c4	0f 2f c1	 comiss	 xmm0, xmm1
  003c7	0f 86 4d 01 00
	00		 jbe	 $LN7@GetLandTri
; File C:\IAGOS\server\v18\Source\Source\DX_SDK\d3dx9math.inl

; 301  :     y = fy;

  003cd	f3 0f 10 0c 96	 movss	 xmm1, DWORD PTR [esi+edx*4]
; File C:\IAGOS\server\v18\Source\Source\_Common\World.cpp

; 1135 : 			pTri[0] = D3DXVECTOR3( (float)( (gx  )*m_iMPU ), (float)( m_apHeightMap[(gx  )+(gz  )*WORLD_WIDTH] ), (float)( (gz  )*m_iMPU ) );

  003d2	8b 75 10	 mov	 esi, DWORD PTR _pTri$[ebp]
  003d5	0f af cb	 imul	 ecx, ebx
  003d8	66 0f 6e c1	 movd	 xmm0, ecx
  003dc	0f 5b c0	 cvtdq2ps xmm0, xmm0
  003df	f3 0f 11 06	 movss	 DWORD PTR [esi], xmm0
  003e3	f3 0f 11 08	 movss	 DWORD PTR [eax], xmm1
  003e7	f3 0f 11 5e 08	 movss	 DWORD PTR [esi+8], xmm3

; 1136 : 			pTri[1] = D3DXVECTOR3( (float)( (gx  )*m_iMPU ), (float)( m_apHeightMap[(gx  )+(gz+1)*WORLD_WIDTH] ), (float)( (gz+1)*m_iMPU ) );

  003ec	8b 4f 0c	 mov	 ecx, DWORD PTR [edi+12]
  003ef	0f af 4d 08	 imul	 ecx, DWORD PTR tv3017[ebp]
; File C:\IAGOS\server\v18\Source\Source\DX_SDK\d3dx9math.inl

; 301  :     y = fy;

  003f3	8b 47 1c	 mov	 eax, DWORD PTR [edi+28]
; File C:\IAGOS\server\v18\Source\Source\_Common\World.cpp

; 1136 : 			pTri[1] = D3DXVECTOR3( (float)( (gx  )*m_iMPU ), (float)( m_apHeightMap[(gx  )+(gz+1)*WORLD_WIDTH] ), (float)( (gz+1)*m_iMPU ) );

  003f6	8b 57 14	 mov	 edx, DWORD PTR [edi+20]
  003f9	03 cb		 add	 ecx, ebx
; File C:\IAGOS\server\v18\Source\Source\DX_SDK\d3dx9math.inl

; 301  :     y = fy;

  003fb	f3 0f 10 0c 88	 movss	 xmm1, DWORD PTR [eax+ecx*4]
; File C:\IAGOS\server\v18\Source\Source\_Common\World.cpp

; 1136 : 			pTri[1] = D3DXVECTOR3( (float)( (gx  )*m_iMPU ), (float)( m_apHeightMap[(gx  )+(gz+1)*WORLD_WIDTH] ), (float)( (gz+1)*m_iMPU ) );

  00400	8b c2		 mov	 eax, edx
  00402	0f af c3	 imul	 eax, ebx
  00405	66 0f 6e c0	 movd	 xmm0, eax
  00409	8b 45 08	 mov	 eax, DWORD PTR tv3017[ebp]
  0040c	0f af c2	 imul	 eax, edx
  0040f	0f 5b c0	 cvtdq2ps xmm0, xmm0
  00412	f3 0f 11 46 0c	 movss	 DWORD PTR [esi+12], xmm0
  00417	f3 0f 11 4e 10	 movss	 DWORD PTR [esi+16], xmm1
  0041c	66 0f 6e c0	 movd	 xmm0, eax
  00420	0f 5b c0	 cvtdq2ps xmm0, xmm0
  00423	f3 0f 11 46 14	 movss	 DWORD PTR [esi+20], xmm0

; 1137 : 			pTri[2] = D3DXVECTOR3( (float)( (gx+1)*m_iMPU ), (float)( m_apHeightMap[(gx+1)+(gz  )*WORLD_WIDTH] ), (float)( (gz  )*m_iMPU ) );

  00428	8b 4f 0c	 mov	 ecx, DWORD PTR [edi+12]
  0042b	0f af 4d 0c	 imul	 ecx, DWORD PTR _gz$1$[ebp]
; File C:\IAGOS\server\v18\Source\Source\DX_SDK\d3dx9math.inl

; 301  :     y = fy;

  0042f	8b 47 1c	 mov	 eax, DWORD PTR [edi+28]
; File C:\IAGOS\server\v18\Source\Source\_Common\World.cpp

; 1137 : 			pTri[2] = D3DXVECTOR3( (float)( (gx+1)*m_iMPU ), (float)( m_apHeightMap[(gx+1)+(gz  )*WORLD_WIDTH] ), (float)( (gz  )*m_iMPU ) );

  00432	8b 57 14	 mov	 edx, DWORD PTR [edi+20]
  00435	03 cb		 add	 ecx, ebx
; File C:\IAGOS\server\v18\Source\Source\DX_SDK\d3dx9math.inl

; 301  :     y = fy;

  00437	f3 0f 10 4c 88
	04		 movss	 xmm1, DWORD PTR [eax+ecx*4+4]
; File C:\IAGOS\server\v18\Source\Source\_Common\World.cpp

; 1137 : 			pTri[2] = D3DXVECTOR3( (float)( (gx+1)*m_iMPU ), (float)( m_apHeightMap[(gx+1)+(gz  )*WORLD_WIDTH] ), (float)( (gz  )*m_iMPU ) );

  0043d	8d 43 01	 lea	 eax, DWORD PTR [ebx+1]
  00440	0f af c2	 imul	 eax, edx
  00443	0f af 55 0c	 imul	 edx, DWORD PTR _gz$1$[ebp]
  00447	66 0f 6e c0	 movd	 xmm0, eax
  0044b	0f 5b c0	 cvtdq2ps xmm0, xmm0
  0044e	f3 0f 11 46 18	 movss	 DWORD PTR [esi+24], xmm0
  00453	f3 0f 11 4e 1c	 movss	 DWORD PTR [esi+28], xmm1
  00458	66 0f 6e c2	 movd	 xmm0, edx
  0045c	0f 5b c0	 cvtdq2ps xmm0, xmm0
  0045f	f3 0f 11 46 20	 movss	 DWORD PTR [esi+32], xmm0

; 1139 : 			pTri[3] = D3DXVECTOR3( (float)( (gx+1)*m_iMPU ), (float)( m_apHeightMap[(gx+1)+(gz  )*WORLD_WIDTH] ), (float)( (gz  )*m_iMPU ) );

  00464	8b 4f 0c	 mov	 ecx, DWORD PTR [edi+12]
  00467	0f af 4d 0c	 imul	 ecx, DWORD PTR _gz$1$[ebp]
; File C:\IAGOS\server\v18\Source\Source\DX_SDK\d3dx9math.inl

; 301  :     y = fy;

  0046b	8b 47 1c	 mov	 eax, DWORD PTR [edi+28]
; File C:\IAGOS\server\v18\Source\Source\_Common\World.cpp

; 1139 : 			pTri[3] = D3DXVECTOR3( (float)( (gx+1)*m_iMPU ), (float)( m_apHeightMap[(gx+1)+(gz  )*WORLD_WIDTH] ), (float)( (gz  )*m_iMPU ) );

  0046e	8b 57 14	 mov	 edx, DWORD PTR [edi+20]
  00471	03 cb		 add	 ecx, ebx
; File C:\IAGOS\server\v18\Source\Source\DX_SDK\d3dx9math.inl

; 301  :     y = fy;

  00473	f3 0f 10 4c 88
	04		 movss	 xmm1, DWORD PTR [eax+ecx*4+4]
; File C:\IAGOS\server\v18\Source\Source\_Common\World.cpp

; 1139 : 			pTri[3] = D3DXVECTOR3( (float)( (gx+1)*m_iMPU ), (float)( m_apHeightMap[(gx+1)+(gz  )*WORLD_WIDTH] ), (float)( (gz  )*m_iMPU ) );

  00479	8d 43 01	 lea	 eax, DWORD PTR [ebx+1]
  0047c	0f af c2	 imul	 eax, edx
  0047f	0f af 55 0c	 imul	 edx, DWORD PTR _gz$1$[ebp]
  00483	66 0f 6e c0	 movd	 xmm0, eax
  00487	0f 5b c0	 cvtdq2ps xmm0, xmm0
  0048a	f3 0f 11 46 24	 movss	 DWORD PTR [esi+36], xmm0
  0048f	f3 0f 11 4e 28	 movss	 DWORD PTR [esi+40], xmm1
  00494	66 0f 6e c2	 movd	 xmm0, edx
  00498	0f 5b c0	 cvtdq2ps xmm0, xmm0
  0049b	f3 0f 11 46 2c	 movss	 DWORD PTR [esi+44], xmm0

; 1140 : 			pTri[4] = D3DXVECTOR3( (float)( (gx  )*m_iMPU ), (float)( m_apHeightMap[(gx  )+(gz+1)*WORLD_WIDTH] ), (float)( (gz+1)*m_iMPU ) );

  004a0	8b 4f 0c	 mov	 ecx, DWORD PTR [edi+12]
  004a3	0f af 4d 08	 imul	 ecx, DWORD PTR tv3017[ebp]
; File C:\IAGOS\server\v18\Source\Source\DX_SDK\d3dx9math.inl

; 301  :     y = fy;

  004a7	8b 47 1c	 mov	 eax, DWORD PTR [edi+28]
; File C:\IAGOS\server\v18\Source\Source\_Common\World.cpp

; 1140 : 			pTri[4] = D3DXVECTOR3( (float)( (gx  )*m_iMPU ), (float)( m_apHeightMap[(gx  )+(gz+1)*WORLD_WIDTH] ), (float)( (gz+1)*m_iMPU ) );

  004aa	8b 57 14	 mov	 edx, DWORD PTR [edi+20]
  004ad	03 cb		 add	 ecx, ebx
; File C:\IAGOS\server\v18\Source\Source\DX_SDK\d3dx9math.inl

; 301  :     y = fy;

  004af	f3 0f 10 0c 88	 movss	 xmm1, DWORD PTR [eax+ecx*4]
; File C:\IAGOS\server\v18\Source\Source\_Common\World.cpp

; 1140 : 			pTri[4] = D3DXVECTOR3( (float)( (gx  )*m_iMPU ), (float)( m_apHeightMap[(gx  )+(gz+1)*WORLD_WIDTH] ), (float)( (gz+1)*m_iMPU ) );

  004b4	8b c2		 mov	 eax, edx
  004b6	0f af c3	 imul	 eax, ebx
  004b9	66 0f 6e c0	 movd	 xmm0, eax
  004bd	8b 45 08	 mov	 eax, DWORD PTR tv3017[ebp]
  004c0	0f af c2	 imul	 eax, edx
  004c3	0f 5b c0	 cvtdq2ps xmm0, xmm0
  004c6	f3 0f 11 46 30	 movss	 DWORD PTR [esi+48], xmm0
  004cb	66 0f 6e c0	 movd	 xmm0, eax
  004cf	0f 5b c0	 cvtdq2ps xmm0, xmm0
  004d2	f3 0f 11 4e 34	 movss	 DWORD PTR [esi+52], xmm1
  004d7	f3 0f 11 46 38	 movss	 DWORD PTR [esi+56], xmm0

; 1141 : 			pTri[5] = D3DXVECTOR3( (float)( (gx+1)*m_iMPU ), (float)( m_apHeightMap[(gx+1)+(gz+1)*WORLD_WIDTH] ), (float)( (gz+1)*m_iMPU ) );

  004dc	8b 4f 0c	 mov	 ecx, DWORD PTR [edi+12]
  004df	0f af 4d 08	 imul	 ecx, DWORD PTR tv3017[ebp]
; File C:\IAGOS\server\v18\Source\Source\DX_SDK\d3dx9math.inl

; 301  :     y = fy;

  004e3	8b 47 1c	 mov	 eax, DWORD PTR [edi+28]
; File C:\IAGOS\server\v18\Source\Source\_Common\World.cpp

; 1141 : 			pTri[5] = D3DXVECTOR3( (float)( (gx+1)*m_iMPU ), (float)( m_apHeightMap[(gx+1)+(gz+1)*WORLD_WIDTH] ), (float)( (gz+1)*m_iMPU ) );

  004e6	8b 57 14	 mov	 edx, DWORD PTR [edi+20]
  004e9	03 cb		 add	 ecx, ebx
; File C:\IAGOS\server\v18\Source\Source\DX_SDK\d3dx9math.inl

; 301  :     y = fy;

  004eb	f3 0f 10 4c 88
	04		 movss	 xmm1, DWORD PTR [eax+ecx*4+4]
; File C:\IAGOS\server\v18\Source\Source\_Common\World.cpp

; 1141 : 			pTri[5] = D3DXVECTOR3( (float)( (gx+1)*m_iMPU ), (float)( m_apHeightMap[(gx+1)+(gz+1)*WORLD_WIDTH] ), (float)( (gz+1)*m_iMPU ) );

  004f1	8d 43 01	 lea	 eax, DWORD PTR [ebx+1]
  004f4	0f af c2	 imul	 eax, edx
  004f7	66 0f 6e c0	 movd	 xmm0, eax
  004fb	8b 45 08	 mov	 eax, DWORD PTR tv3017[ebp]
  004fe	0f af c2	 imul	 eax, edx
  00501	0f 5b c0	 cvtdq2ps xmm0, xmm0
  00504	f3 0f 11 46 3c	 movss	 DWORD PTR [esi+60], xmm0
  00509	66 0f 6e c0	 movd	 xmm0, eax
  0050d	8d 46 44	 lea	 eax, DWORD PTR [esi+68]
  00510	f3 0f 11 4e 40	 movss	 DWORD PTR [esi+64], xmm1

; 1142 : 		}

  00515	e9 48 01 00 00	 jmp	 $LN90@GetLandTri
$LN7@GetLandTri:

; 1146 : 			pTri[0] = D3DXVECTOR3( (float)( (gx+1)*m_iMPU ), (float)( m_apHeightMap[(gx+1)+(gz  )*WORLD_WIDTH] ), (float)( (gz  )*m_iMPU ) );

  0051a	0f af 4d fc	 imul	 ecx, DWORD PTR tv3022[ebp]
; File C:\IAGOS\server\v18\Source\Source\DX_SDK\d3dx9math.inl

; 301  :     y = fy;

  0051e	f3 0f 10 4c 96
	04		 movss	 xmm1, DWORD PTR [esi+edx*4+4]
; File C:\IAGOS\server\v18\Source\Source\_Common\World.cpp

; 1146 : 			pTri[0] = D3DXVECTOR3( (float)( (gx+1)*m_iMPU ), (float)( m_apHeightMap[(gx+1)+(gz  )*WORLD_WIDTH] ), (float)( (gz  )*m_iMPU ) );

  00524	8b 75 10	 mov	 esi, DWORD PTR _pTri$[ebp]
  00527	66 0f 6e c1	 movd	 xmm0, ecx
  0052b	0f 5b c0	 cvtdq2ps xmm0, xmm0
  0052e	f3 0f 11 06	 movss	 DWORD PTR [esi], xmm0
  00532	f3 0f 11 08	 movss	 DWORD PTR [eax], xmm1
  00536	f3 0f 11 5e 08	 movss	 DWORD PTR [esi+8], xmm3

; 1147 : 			pTri[1] = D3DXVECTOR3( (float)( (gx  )*m_iMPU ), (float)( m_apHeightMap[(gx  )+(gz+1)*WORLD_WIDTH] ), (float)( (gz+1)*m_iMPU ) );

  0053b	8b 4f 0c	 mov	 ecx, DWORD PTR [edi+12]
  0053e	0f af 4d 08	 imul	 ecx, DWORD PTR tv3017[ebp]
; File C:\IAGOS\server\v18\Source\Source\DX_SDK\d3dx9math.inl

; 301  :     y = fy;

  00542	8b 47 1c	 mov	 eax, DWORD PTR [edi+28]
; File C:\IAGOS\server\v18\Source\Source\_Common\World.cpp

; 1147 : 			pTri[1] = D3DXVECTOR3( (float)( (gx  )*m_iMPU ), (float)( m_apHeightMap[(gx  )+(gz+1)*WORLD_WIDTH] ), (float)( (gz+1)*m_iMPU ) );

  00545	8b 57 14	 mov	 edx, DWORD PTR [edi+20]
  00548	03 cb		 add	 ecx, ebx
; File C:\IAGOS\server\v18\Source\Source\DX_SDK\d3dx9math.inl

; 301  :     y = fy;

  0054a	f3 0f 10 0c 88	 movss	 xmm1, DWORD PTR [eax+ecx*4]
; File C:\IAGOS\server\v18\Source\Source\_Common\World.cpp

; 1147 : 			pTri[1] = D3DXVECTOR3( (float)( (gx  )*m_iMPU ), (float)( m_apHeightMap[(gx  )+(gz+1)*WORLD_WIDTH] ), (float)( (gz+1)*m_iMPU ) );

  0054f	8b c2		 mov	 eax, edx
  00551	0f af c3	 imul	 eax, ebx
  00554	66 0f 6e c0	 movd	 xmm0, eax
  00558	8b 45 08	 mov	 eax, DWORD PTR tv3017[ebp]
  0055b	0f af c2	 imul	 eax, edx
  0055e	0f 5b c0	 cvtdq2ps xmm0, xmm0
  00561	f3 0f 11 46 0c	 movss	 DWORD PTR [esi+12], xmm0
  00566	f3 0f 11 4e 10	 movss	 DWORD PTR [esi+16], xmm1
  0056b	66 0f 6e c0	 movd	 xmm0, eax
  0056f	0f 5b c0	 cvtdq2ps xmm0, xmm0
  00572	f3 0f 11 46 14	 movss	 DWORD PTR [esi+20], xmm0

; 1148 : 			pTri[2] = D3DXVECTOR3( (float)( (gx+1)*m_iMPU ), (float)( m_apHeightMap[(gx+1)+(gz+1)*WORLD_WIDTH] ), (float)( (gz+1)*m_iMPU ) );

  00577	8b 4f 0c	 mov	 ecx, DWORD PTR [edi+12]
  0057a	0f af 4d 08	 imul	 ecx, DWORD PTR tv3017[ebp]
; File C:\IAGOS\server\v18\Source\Source\DX_SDK\d3dx9math.inl

; 301  :     y = fy;

  0057e	8b 47 1c	 mov	 eax, DWORD PTR [edi+28]
; File C:\IAGOS\server\v18\Source\Source\_Common\World.cpp

; 1148 : 			pTri[2] = D3DXVECTOR3( (float)( (gx+1)*m_iMPU ), (float)( m_apHeightMap[(gx+1)+(gz+1)*WORLD_WIDTH] ), (float)( (gz+1)*m_iMPU ) );

  00581	8b 57 14	 mov	 edx, DWORD PTR [edi+20]
  00584	03 cb		 add	 ecx, ebx
; File C:\IAGOS\server\v18\Source\Source\DX_SDK\d3dx9math.inl

; 301  :     y = fy;

  00586	f3 0f 10 4c 88
	04		 movss	 xmm1, DWORD PTR [eax+ecx*4+4]
; File C:\IAGOS\server\v18\Source\Source\_Common\World.cpp

; 1148 : 			pTri[2] = D3DXVECTOR3( (float)( (gx+1)*m_iMPU ), (float)( m_apHeightMap[(gx+1)+(gz+1)*WORLD_WIDTH] ), (float)( (gz+1)*m_iMPU ) );

  0058c	8d 43 01	 lea	 eax, DWORD PTR [ebx+1]
  0058f	0f af c2	 imul	 eax, edx
  00592	66 0f 6e c0	 movd	 xmm0, eax
  00596	8b 45 08	 mov	 eax, DWORD PTR tv3017[ebp]
  00599	0f af c2	 imul	 eax, edx
  0059c	0f 5b c0	 cvtdq2ps xmm0, xmm0
  0059f	f3 0f 11 46 18	 movss	 DWORD PTR [esi+24], xmm0
  005a4	f3 0f 11 4e 1c	 movss	 DWORD PTR [esi+28], xmm1
  005a9	66 0f 6e c0	 movd	 xmm0, eax
  005ad	0f 5b c0	 cvtdq2ps xmm0, xmm0
  005b0	f3 0f 11 46 20	 movss	 DWORD PTR [esi+32], xmm0

; 1150 : 			pTri[3] = D3DXVECTOR3( (float)( (gx  )*m_iMPU ), (float)( m_apHeightMap[(gx  )+(gz  )*WORLD_WIDTH] ), (float)( (gz  )*m_iMPU ) );

  005b5	8b 4f 0c	 mov	 ecx, DWORD PTR [edi+12]
  005b8	0f af 4d 0c	 imul	 ecx, DWORD PTR _gz$1$[ebp]
; File C:\IAGOS\server\v18\Source\Source\DX_SDK\d3dx9math.inl

; 301  :     y = fy;

  005bc	8b 47 1c	 mov	 eax, DWORD PTR [edi+28]
; File C:\IAGOS\server\v18\Source\Source\_Common\World.cpp

; 1150 : 			pTri[3] = D3DXVECTOR3( (float)( (gx  )*m_iMPU ), (float)( m_apHeightMap[(gx  )+(gz  )*WORLD_WIDTH] ), (float)( (gz  )*m_iMPU ) );

  005bf	8b 57 14	 mov	 edx, DWORD PTR [edi+20]
  005c2	03 cb		 add	 ecx, ebx
; File C:\IAGOS\server\v18\Source\Source\DX_SDK\d3dx9math.inl

; 301  :     y = fy;

  005c4	f3 0f 10 0c 88	 movss	 xmm1, DWORD PTR [eax+ecx*4]
; File C:\IAGOS\server\v18\Source\Source\_Common\World.cpp

; 1150 : 			pTri[3] = D3DXVECTOR3( (float)( (gx  )*m_iMPU ), (float)( m_apHeightMap[(gx  )+(gz  )*WORLD_WIDTH] ), (float)( (gz  )*m_iMPU ) );

  005c9	8b c2		 mov	 eax, edx
  005cb	0f af 55 0c	 imul	 edx, DWORD PTR _gz$1$[ebp]
  005cf	0f af c3	 imul	 eax, ebx
  005d2	66 0f 6e c0	 movd	 xmm0, eax
  005d6	0f 5b c0	 cvtdq2ps xmm0, xmm0
  005d9	f3 0f 11 46 24	 movss	 DWORD PTR [esi+36], xmm0
  005de	f3 0f 11 4e 28	 movss	 DWORD PTR [esi+40], xmm1
  005e3	66 0f 6e c2	 movd	 xmm0, edx
  005e7	0f 5b c0	 cvtdq2ps xmm0, xmm0
  005ea	f3 0f 11 46 2c	 movss	 DWORD PTR [esi+44], xmm0

; 1151 : 			pTri[4] = D3DXVECTOR3( (float)( (gx  )*m_iMPU ), (float)( m_apHeightMap[(gx  )+(gz+1)*WORLD_WIDTH] ), (float)( (gz+1)*m_iMPU ) );

  005ef	8b 4f 0c	 mov	 ecx, DWORD PTR [edi+12]
  005f2	0f af 4d 08	 imul	 ecx, DWORD PTR tv3017[ebp]
; File C:\IAGOS\server\v18\Source\Source\DX_SDK\d3dx9math.inl

; 301  :     y = fy;

  005f6	8b 47 1c	 mov	 eax, DWORD PTR [edi+28]
; File C:\IAGOS\server\v18\Source\Source\_Common\World.cpp

; 1151 : 			pTri[4] = D3DXVECTOR3( (float)( (gx  )*m_iMPU ), (float)( m_apHeightMap[(gx  )+(gz+1)*WORLD_WIDTH] ), (float)( (gz+1)*m_iMPU ) );

  005f9	8b 57 14	 mov	 edx, DWORD PTR [edi+20]
  005fc	03 cb		 add	 ecx, ebx
; File C:\IAGOS\server\v18\Source\Source\DX_SDK\d3dx9math.inl

; 301  :     y = fy;

  005fe	f3 0f 10 0c 88	 movss	 xmm1, DWORD PTR [eax+ecx*4]
; File C:\IAGOS\server\v18\Source\Source\_Common\World.cpp

; 1151 : 			pTri[4] = D3DXVECTOR3( (float)( (gx  )*m_iMPU ), (float)( m_apHeightMap[(gx  )+(gz+1)*WORLD_WIDTH] ), (float)( (gz+1)*m_iMPU ) );

  00603	8b c2		 mov	 eax, edx
  00605	0f af c3	 imul	 eax, ebx
  00608	66 0f 6e c0	 movd	 xmm0, eax
  0060c	8b 45 08	 mov	 eax, DWORD PTR tv3017[ebp]
  0060f	0f af c2	 imul	 eax, edx
  00612	0f 5b c0	 cvtdq2ps xmm0, xmm0
  00615	f3 0f 11 46 30	 movss	 DWORD PTR [esi+48], xmm0
  0061a	66 0f 6e c0	 movd	 xmm0, eax
  0061e	0f 5b c0	 cvtdq2ps xmm0, xmm0
  00621	f3 0f 11 4e 34	 movss	 DWORD PTR [esi+52], xmm1
  00626	f3 0f 11 46 38	 movss	 DWORD PTR [esi+56], xmm0

; 1152 : 			pTri[5] = D3DXVECTOR3( (float)( (gx+1)*m_iMPU ), (float)( m_apHeightMap[(gx+1)+(gz  )*WORLD_WIDTH] ), (float)( (gz  )*m_iMPU ) );

  0062b	8b 4f 0c	 mov	 ecx, DWORD PTR [edi+12]
  0062e	0f af 4d 0c	 imul	 ecx, DWORD PTR _gz$1$[ebp]
; File C:\IAGOS\server\v18\Source\Source\DX_SDK\d3dx9math.inl

; 301  :     y = fy;

  00632	8b 47 1c	 mov	 eax, DWORD PTR [edi+28]
; File C:\IAGOS\server\v18\Source\Source\_Common\World.cpp

; 1152 : 			pTri[5] = D3DXVECTOR3( (float)( (gx+1)*m_iMPU ), (float)( m_apHeightMap[(gx+1)+(gz  )*WORLD_WIDTH] ), (float)( (gz  )*m_iMPU ) );

  00635	8b 57 14	 mov	 edx, DWORD PTR [edi+20]
  00638	03 cb		 add	 ecx, ebx
; File C:\IAGOS\server\v18\Source\Source\DX_SDK\d3dx9math.inl

; 301  :     y = fy;

  0063a	f3 0f 10 4c 88
	04		 movss	 xmm1, DWORD PTR [eax+ecx*4+4]
; File C:\IAGOS\server\v18\Source\Source\_Common\World.cpp

; 1152 : 			pTri[5] = D3DXVECTOR3( (float)( (gx+1)*m_iMPU ), (float)( m_apHeightMap[(gx+1)+(gz  )*WORLD_WIDTH] ), (float)( (gz  )*m_iMPU ) );

  00640	8d 43 01	 lea	 eax, DWORD PTR [ebx+1]
  00643	0f af c2	 imul	 eax, edx
  00646	0f af 55 0c	 imul	 edx, DWORD PTR _gz$1$[ebp]
  0064a	66 0f 6e c0	 movd	 xmm0, eax
  0064e	8d 46 44	 lea	 eax, DWORD PTR [esi+68]
  00651	0f 5b c0	 cvtdq2ps xmm0, xmm0
  00654	f3 0f 11 46 3c	 movss	 DWORD PTR [esi+60], xmm0
  00659	f3 0f 11 4e 40	 movss	 DWORD PTR [esi+64], xmm1
$LN89@GetLandTri:

; 1153 : 		}
; 1154 : 	}
; 1155 : 	float y = pTri[0].y;

  0065e	66 0f 6e c2	 movd	 xmm0, edx
$LN90@GetLandTri:
  00662	0f 5b c0	 cvtdq2ps xmm0, xmm0
  00665	8d 4e 04	 lea	 ecx, DWORD PTR [esi+4]

; 1156 : 	if( y >= HGT_NOWALK )		// 1000ŔĚ»ó °ŞŔĚ¸é ±×ŔĚ»ó°ŞŔ» Ŕß¶óąö¸°´Ů.

  00668	5b		 pop	 ebx
  00669	f3 0f 11 00	 movss	 DWORD PTR [eax], xmm0
  0066d	f3 0f 10 11	 movss	 xmm2, DWORD PTR [ecx]
  00671	f3 0f 10 0d 00
	00 00 00	 movss	 xmm1, DWORD PTR __real@447a0000
  00679	0f 2f d1	 comiss	 xmm2, xmm1
  0067c	72 1e		 jb	 SHORT $LN9@GetLandTri

; 1157 : 	{
; 1158 : 		int n = (int)(y / HGT_NOWALK);

  0067e	0f 28 c2	 movaps	 xmm0, xmm2
  00681	f3 0f 5e c1	 divss	 xmm0, xmm1
  00685	f3 0f 2c c0	 cvttss2si eax, xmm0
  00689	66 0f 6e c0	 movd	 xmm0, eax

; 1159 : 		pTri[0].y -= (float)(HGT_NOWALK * n);

  0068d	0f 5b c0	 cvtdq2ps xmm0, xmm0
  00690	f3 0f 59 c1	 mulss	 xmm0, xmm1
  00694	f3 0f 5c d0	 subss	 xmm2, xmm0
  00698	f3 0f 11 11	 movss	 DWORD PTR [ecx], xmm2
$LN9@GetLandTri:

; 1160 : 	}
; 1161 : 	y = pTri[1].y;

  0069c	f3 0f 10 56 10	 movss	 xmm2, DWORD PTR [esi+16]

; 1162 : 	if( y >= HGT_NOWALK )		// 1000ŔĚ»ó °ŞŔĚ¸é ±×ŔĚ»ó°ŞŔ» Ŕß¶óąö¸°´Ů.

  006a1	0f 2f d1	 comiss	 xmm2, xmm1
  006a4	72 1f		 jb	 SHORT $LN10@GetLandTri

; 1163 : 	{
; 1164 : 		int n = (int)(y / HGT_NOWALK);

  006a6	0f 28 c2	 movaps	 xmm0, xmm2
  006a9	f3 0f 5e c1	 divss	 xmm0, xmm1
  006ad	f3 0f 2c c0	 cvttss2si eax, xmm0
  006b1	66 0f 6e c0	 movd	 xmm0, eax

; 1165 : 		pTri[1].y -= (float)(HGT_NOWALK * n);

  006b5	0f 5b c0	 cvtdq2ps xmm0, xmm0
  006b8	f3 0f 59 c1	 mulss	 xmm0, xmm1
  006bc	f3 0f 5c d0	 subss	 xmm2, xmm0
  006c0	f3 0f 11 56 10	 movss	 DWORD PTR [esi+16], xmm2
$LN10@GetLandTri:

; 1166 : 	}
; 1167 : 	y = pTri[2].y;

  006c5	f3 0f 10 56 1c	 movss	 xmm2, DWORD PTR [esi+28]

; 1168 : 	if( y >= HGT_NOWALK )		// 1000ŔĚ»ó °ŞŔĚ¸é ±×ŔĚ»ó°ŞŔ» Ŕß¶óąö¸°´Ů.

  006ca	0f 2f d1	 comiss	 xmm2, xmm1
  006cd	72 1f		 jb	 SHORT $LN11@GetLandTri

; 1169 : 	{
; 1170 : 		int n = (int)(y / HGT_NOWALK);

  006cf	0f 28 c2	 movaps	 xmm0, xmm2
  006d2	f3 0f 5e c1	 divss	 xmm0, xmm1
  006d6	f3 0f 2c c0	 cvttss2si eax, xmm0
  006da	66 0f 6e c0	 movd	 xmm0, eax

; 1171 : 		pTri[2].y -= (float)(HGT_NOWALK * n);

  006de	0f 5b c0	 cvtdq2ps xmm0, xmm0
  006e1	f3 0f 59 c1	 mulss	 xmm0, xmm1
  006e5	f3 0f 5c d0	 subss	 xmm2, xmm0
  006e9	f3 0f 11 56 1c	 movss	 DWORD PTR [esi+28], xmm2
$LN11@GetLandTri:

; 1172 : 	}
; 1173 : 	y = pTri[3].y;

  006ee	f3 0f 10 56 28	 movss	 xmm2, DWORD PTR [esi+40]

; 1174 : 	if( y >= HGT_NOWALK )		// 1000ŔĚ»ó °ŞŔĚ¸é ±×ŔĚ»ó°ŞŔ» Ŕß¶óąö¸°´Ů.

  006f3	0f 2f d1	 comiss	 xmm2, xmm1
  006f6	72 1f		 jb	 SHORT $LN12@GetLandTri

; 1175 : 	{
; 1176 : 		int n = (int)(y / HGT_NOWALK);

  006f8	0f 28 c2	 movaps	 xmm0, xmm2
  006fb	f3 0f 5e c1	 divss	 xmm0, xmm1
  006ff	f3 0f 2c c0	 cvttss2si eax, xmm0
  00703	66 0f 6e c0	 movd	 xmm0, eax

; 1177 : 		pTri[3].y -= (float)(HGT_NOWALK * n);

  00707	0f 5b c0	 cvtdq2ps xmm0, xmm0
  0070a	f3 0f 59 c1	 mulss	 xmm0, xmm1
  0070e	f3 0f 5c d0	 subss	 xmm2, xmm0
  00712	f3 0f 11 56 28	 movss	 DWORD PTR [esi+40], xmm2
$LN12@GetLandTri:

; 1178 : 	}
; 1179 : 	y = pTri[4].y;

  00717	f3 0f 10 56 34	 movss	 xmm2, DWORD PTR [esi+52]

; 1180 : 	if( y >= HGT_NOWALK )		// 1000ŔĚ»ó °ŞŔĚ¸é ±×ŔĚ»ó°ŞŔ» Ŕß¶óąö¸°´Ů.

  0071c	0f 2f d1	 comiss	 xmm2, xmm1
  0071f	72 1f		 jb	 SHORT $LN13@GetLandTri

; 1181 : 	{
; 1182 : 		int n = (int)(y / HGT_NOWALK);

  00721	0f 28 c2	 movaps	 xmm0, xmm2
  00724	f3 0f 5e c1	 divss	 xmm0, xmm1
  00728	f3 0f 2c c0	 cvttss2si eax, xmm0
  0072c	66 0f 6e c0	 movd	 xmm0, eax

; 1183 : 		pTri[4].y -= (float)(HGT_NOWALK * n);

  00730	0f 5b c0	 cvtdq2ps xmm0, xmm0
  00733	f3 0f 59 c1	 mulss	 xmm0, xmm1
  00737	f3 0f 5c d0	 subss	 xmm2, xmm0
  0073b	f3 0f 11 56 34	 movss	 DWORD PTR [esi+52], xmm2
$LN13@GetLandTri:

; 1184 : 	}
; 1185 : 	y = pTri[5].y;

  00740	f3 0f 10 56 40	 movss	 xmm2, DWORD PTR [esi+64]

; 1186 : 	if( y >= HGT_NOWALK )		// 1000ŔĚ»ó °ŞŔĚ¸é ±×ŔĚ»ó°ŞŔ» Ŕß¶óąö¸°´Ů.

  00745	0f 2f d1	 comiss	 xmm2, xmm1
  00748	72 1f		 jb	 SHORT $LN14@GetLandTri

; 1187 : 	{
; 1188 : 		int n = (int)(y / HGT_NOWALK);

  0074a	0f 28 c2	 movaps	 xmm0, xmm2
  0074d	f3 0f 5e c1	 divss	 xmm0, xmm1
  00751	f3 0f 2c c0	 cvttss2si eax, xmm0
  00755	66 0f 6e c0	 movd	 xmm0, eax

; 1189 : 		pTri[5].y -= (float)(HGT_NOWALK * n);

  00759	0f 5b c0	 cvtdq2ps xmm0, xmm0
  0075c	f3 0f 59 c1	 mulss	 xmm0, xmm1
  00760	f3 0f 5c d0	 subss	 xmm2, xmm0
  00764	f3 0f 11 56 40	 movss	 DWORD PTR [esi+64], xmm2
$LN14@GetLandTri:

; 1190 : 	}
; 1191 : 	
; 1192 : #else
; 1193 : 	int lx=(int)(x/MAP_SIZE);
; 1194 : 	int lz=(int)(z/MAP_SIZE);
; 1195 : 	DWORD gx=(int)x-lx*MAP_SIZE;
; 1196 : 	DWORD gz=(int)z-lz*MAP_SIZE;
; 1197 : 	float glx=x-(int)x;
; 1198 : 	float glz=z-(int)z;
; 1199 : 
; 1200 : 	CLandscape* pLand = m_apLand[ lx + lz * m_nLandWidth ];
; 1201 : 	if( pLand == NULL ) return FALSE;
; 1202 : 
; 1203 : 	if((gx+gz)%2==0) {
; 1204 : 		if(glx>glz) {
; 1205 : 			//0,3,1
; 1206 : 			pTri[0]=D3DXVECTOR3( (float)( (gx  +lx*MAP_SIZE)*m_iMPU ), (float)( pLand->GetHeight(gx  ,gz  ) ), (float)( (gz  +lz*MAP_SIZE)*m_iMPU ) );
; 1207 : 			pTri[1]=D3DXVECTOR3( (float)( (gx+1+lx*MAP_SIZE)*m_iMPU ), (float)( pLand->GetHeight(gx+1,gz+1) ), (float)( (gz+1+lz*MAP_SIZE)*m_iMPU ) );
; 1208 : 			pTri[2]=D3DXVECTOR3( (float)( (gx+1+lx*MAP_SIZE)*m_iMPU ), (float)( pLand->GetHeight(gx+1,gz  ) ), (float)( (gz  +lz*MAP_SIZE)*m_iMPU ) );
; 1209 : 
; 1210 : 			pTri[3]=D3DXVECTOR3( (float)( (gx  +lx*MAP_SIZE)*m_iMPU ), (float)( pLand->GetHeight(gx  ,gz  ) ), (float)( (gz  +lz*MAP_SIZE)*m_iMPU ) );
; 1211 : 			pTri[4]=D3DXVECTOR3( (float)( (gx  +lx*MAP_SIZE)*m_iMPU ), (float)( pLand->GetHeight(gx  ,gz+1) ), (float)( (gz+1+lz*MAP_SIZE)*m_iMPU ) );
; 1212 : 			pTri[5]=D3DXVECTOR3( (float)( (gx+1+lx*MAP_SIZE)*m_iMPU ), (float)( pLand->GetHeight(gx+1,gz+1) ), (float)( (gz+1+lz*MAP_SIZE)*m_iMPU ) );
; 1213 : 		}
; 1214 : 		else {
; 1215 : 			//0,2,3
; 1216 : 			pTri[0]=D3DXVECTOR3( (float)( (gx  +lx*MAP_SIZE)*m_iMPU ), (float)( pLand->GetHeight(gx  ,gz  ) ), (float)( (gz  +lz*MAP_SIZE)*m_iMPU ) );
; 1217 : 			pTri[1]=D3DXVECTOR3( (float)( (gx  +lx*MAP_SIZE)*m_iMPU ), (float)( pLand->GetHeight(gx  ,gz+1) ), (float)( (gz+1+lz*MAP_SIZE)*m_iMPU ) );
; 1218 : 			pTri[2]=D3DXVECTOR3( (float)( (gx+1+lx*MAP_SIZE)*m_iMPU ), (float)( pLand->GetHeight(gx+1,gz+1) ), (float)( (gz+1+lz*MAP_SIZE)*m_iMPU ) );
; 1219 : 
; 1220 : 			pTri[3]=D3DXVECTOR3( (float)( (gx  +lx*MAP_SIZE)*m_iMPU ), (float)( pLand->GetHeight(gx  ,gz  ) ), (float)( (gz  +lz*MAP_SIZE)*m_iMPU ) );
; 1221 : 			pTri[4]=D3DXVECTOR3( (float)( (gx+1+lx*MAP_SIZE)*m_iMPU ), (float)( pLand->GetHeight(gx+1,gz+1) ), (float)( (gz+1+lz*MAP_SIZE)*m_iMPU ) );
; 1222 : 			pTri[5]=D3DXVECTOR3( (float)( (gx+1+lx*MAP_SIZE)*m_iMPU ), (float)( pLand->GetHeight(gx+1,gz  ) ), (float)( (gz  +lz*MAP_SIZE)*m_iMPU ) );
; 1223 : 		}
; 1224 : 	}
; 1225 : 	else {
; 1226 : 		if(glx+glz<1.0f) {
; 1227 : 			//0,2,1
; 1228 : 			pTri[0]=D3DXVECTOR3( (float)( (gx  +lx*MAP_SIZE)*m_iMPU ), (float)( pLand->GetHeight(gx  ,gz  ) ), (float)( (gz  +lz*MAP_SIZE)*m_iMPU ) );
; 1229 : 			pTri[1]=D3DXVECTOR3( (float)( (gx  +lx*MAP_SIZE)*m_iMPU ), (float)( pLand->GetHeight(gx  ,gz+1) ), (float)( (gz+1+lz*MAP_SIZE)*m_iMPU ) );
; 1230 : 			pTri[2]=D3DXVECTOR3( (float)( (gx+1+lx*MAP_SIZE)*m_iMPU ), (float)( pLand->GetHeight(gx+1,gz  ) ), (float)( (gz  +lz*MAP_SIZE)*m_iMPU ) );
; 1231 : 
; 1232 : 			pTri[3]=D3DXVECTOR3( (float)( (gx+1+lx*MAP_SIZE)*m_iMPU ), (float)( pLand->GetHeight(gx+1,gz  ) ), (float)( (gz  +lz*MAP_SIZE)*m_iMPU ) );
; 1233 : 			pTri[4]=D3DXVECTOR3( (float)( (gx  +lx*MAP_SIZE)*m_iMPU ), (float)( pLand->GetHeight(gx  ,gz+1) ), (float)( (gz+1+lz*MAP_SIZE)*m_iMPU ) );
; 1234 : 			pTri[5]=D3DXVECTOR3( (float)( (gx+1+lx*MAP_SIZE)*m_iMPU ), (float)( pLand->GetHeight(gx+1,gz+1) ), (float)( (gz+1+lz*MAP_SIZE)*m_iMPU ) );
; 1235 : 		}
; 1236 : 		else {
; 1237 : 			//1,2,3
; 1238 : 			pTri[0]=D3DXVECTOR3( (float)( (gx+1+lx*MAP_SIZE)*m_iMPU ), (float)( pLand->GetHeight(gx+1,gz  ) ), (float)( (gz  +lz*MAP_SIZE)*m_iMPU ) );
; 1239 : 			pTri[1]=D3DXVECTOR3( (float)( (gx  +lx*MAP_SIZE)*m_iMPU ), (float)( pLand->GetHeight(gx  ,gz+1) ), (float)( (gz+1+lz*MAP_SIZE)*m_iMPU ) );
; 1240 : 			pTri[2]=D3DXVECTOR3( (float)( (gx+1+lx*MAP_SIZE)*m_iMPU ), (float)( pLand->GetHeight(gx+1,gz+1) ), (float)( (gz+1+lz*MAP_SIZE)*m_iMPU ) );
; 1241 : 
; 1242 : 			pTri[3]=D3DXVECTOR3( (float)( (gx  +lx*MAP_SIZE)*m_iMPU ), (float)( pLand->GetHeight(gx  ,gz  ) ), (float)( (gz  +lz*MAP_SIZE)*m_iMPU ) );
; 1243 : 			pTri[4]=D3DXVECTOR3( (float)( (gx  +lx*MAP_SIZE)*m_iMPU ), (float)( pLand->GetHeight(gx  ,gz+1) ), (float)( (gz+1+lz*MAP_SIZE)*m_iMPU ) );
; 1244 : 			pTri[5]=D3DXVECTOR3( (float)( (gx+1+lx*MAP_SIZE)*m_iMPU ), (float)( pLand->GetHeight(gx+1,gz  ) ), (float)( (gz  +lz*MAP_SIZE)*m_iMPU ) );
; 1245 : 		}
; 1246 : 	}
; 1247 : #endif
; 1248 : 	return TRUE;

  00769	5f		 pop	 edi
  0076a	b8 01 00 00 00	 mov	 eax, 1

; 1249 : }

  0076f	5e		 pop	 esi
  00770	8b e5		 mov	 esp, ebp
  00772	5d		 pop	 ebp
  00773	c2 0c 00	 ret	 12			; 0000000cH
$LN72@GetLandTri:
  00776	5f		 pop	 edi

; 1095 : 	if( VecInWorld( x, z ) == FALSE ) return FALSE;

  00777	33 c0		 xor	 eax, eax

; 1249 : }

  00779	5e		 pop	 esi
  0077a	8b e5		 mov	 esp, ebp
  0077c	5d		 pop	 ebp
  0077d	c2 0c 00	 ret	 12			; 0000000cH
?GetLandTri2@CWorld@@QAEHMMPAUD3DXVECTOR3@@@Z ENDP	; CWorld::GetLandTri2
_TEXT	ENDS
; Function compile flags: /Ogtp
; File C:\IAGOS\server\v18\Source\Source\_Common\World.cpp
; File C:\IAGOS\server\v18\Source\Source\_Common\World.h
; File C:\IAGOS\server\v18\Source\Source\_Common\World.cpp
; File C:\IAGOS\server\v18\Source\Source\_Common\World.h
; File C:\IAGOS\server\v18\Source\Source\_Common\World.cpp
; File C:\IAGOS\server\v18\Source\Source\DX_SDK\d3dx9math.inl
; File C:\IAGOS\server\v18\Source\Source\_Common\World.cpp
; File C:\IAGOS\server\v18\Source\Source\DX_SDK\d3dx9math.inl
; File C:\IAGOS\server\v18\Source\Source\_Common\World.cpp
; File C:\IAGOS\server\v18\Source\Source\DX_SDK\d3dx9math.inl
; File C:\IAGOS\server\v18\Source\Source\_Common\World.cpp
; File C:\IAGOS\server\v18\Source\Source\DX_SDK\d3dx9math.inl
; File C:\IAGOS\server\v18\Source\Source\_Common\World.cpp
; File C:\IAGOS\server\v18\Source\Source\DX_SDK\d3dx9math.inl
; File C:\IAGOS\server\v18\Source\Source\_Common\World.cpp
; File C:\IAGOS\server\v18\Source\Source\DX_SDK\d3dx9math.inl
; File C:\IAGOS\server\v18\Source\Source\_Common\World.cpp
; File C:\IAGOS\server\v18\Source\Source\DX_SDK\d3dx9math.inl
; File C:\IAGOS\server\v18\Source\Source\_Common\World.cpp
; File C:\IAGOS\server\v18\Source\Source\DX_SDK\d3dx9math.inl
; File C:\IAGOS\server\v18\Source\Source\_Common\World.cpp
;	COMDAT ?GetLandTri@CWorld@@QAEXMMPAUD3DXVECTOR3@@@Z
_TEXT	SEGMENT
_inv_mpu$1$ = -4					; size = 4
_x$ = 8							; size = 4
_gz$1$ = 8						; size = 4
$T1 = 8							; size = 4
_z$ = 12						; size = 4
$T2 = 12						; size = 4
tv1789 = 12						; size = 4
_pTri$ = 16						; size = 4
$T3 = 16						; size = 4
?GetLandTri@CWorld@@QAEXMMPAUD3DXVECTOR3@@@Z PROC	; CWorld::GetLandTri, COMDAT
; _this$ = ecx

; 1252 : {

  00000	55		 push	 ebp
  00001	8b ec		 mov	 ebp, esp
  00003	51		 push	 ecx
; File C:\IAGOS\server\v18\Source\Source\_Common\World.h

; 732  : 	float inv_mpu = 1.0f / (float)m_iMPU;

  00004	f3 0f 10 0d 00
	00 00 00	 movss	 xmm1, DWORD PTR __real@3f800000
; File C:\IAGOS\server\v18\Source\Source\_Common\World.cpp

; 1252 : {

  0000c	56		 push	 esi
  0000d	57		 push	 edi
  0000e	8b f9		 mov	 edi, ecx
; File C:\IAGOS\server\v18\Source\Source\_Common\World.h

; 734  : 	if( _isnan( x ) )

  00010	83 ec 08	 sub	 esp, 8
  00013	66 0f 6e 47 14	 movd	 xmm0, DWORD PTR [edi+20]

; 732  : 	float inv_mpu = 1.0f / (float)m_iMPU;

  00018	0f 5b c0	 cvtdq2ps xmm0, xmm0
  0001b	f3 0f 5e c8	 divss	 xmm1, xmm0
  0001f	f3 0f 10 45 08	 movss	 xmm0, DWORD PTR _x$[ebp]

; 734  : 	if( _isnan( x ) )

  00024	0f 5a c0	 cvtps2pd xmm0, xmm0
  00027	f3 0f 11 4d fc	 movss	 DWORD PTR _inv_mpu$1$[ebp], xmm1
  0002c	f2 0f 11 04 24	 movsd	 QWORD PTR [esp], xmm0
  00031	e8 00 00 00 00	 call	 __isnan
  00036	83 c4 08	 add	 esp, 8
  00039	85 c0		 test	 eax, eax
  0003b	0f 85 a6 03 00
	00		 jne	 $LN11@GetLandTri

; 735  : 		return FALSE;
; 736  : 	if( x < 0.0f )

  00041	f3 0f 10 45 08	 movss	 xmm0, DWORD PTR _x$[ebp]
  00046	0f 57 c9	 xorps	 xmm1, xmm1
  00049	0f 2f c8	 comiss	 xmm1, xmm0
  0004c	0f 87 95 03 00
	00		 ja	 $LN11@GetLandTri

; 737  : 		return FALSE;
; 738  : 	if( (x * inv_mpu) >= ( WORLD_WIDTH-1 ) )	

  00052	8b 47 0c	 mov	 eax, DWORD PTR [edi+12]
  00055	f3 0f 10 4d fc	 movss	 xmm1, DWORD PTR _inv_mpu$1$[ebp]
  0005a	48		 dec	 eax
  0005b	f3 0f 59 c8	 mulss	 xmm1, xmm0
  0005f	66 0f 6e c0	 movd	 xmm0, eax
  00063	0f 5b c0	 cvtdq2ps xmm0, xmm0
  00066	0f 2f c8	 comiss	 xmm1, xmm0
  00069	0f 83 78 03 00
	00		 jae	 $LN11@GetLandTri
  0006f	f3 0f 10 45 0c	 movss	 xmm0, DWORD PTR _z$[ebp]

; 739  : 	{
; 740  : 		return FALSE;
; 741  : 	}
; 742  : 
; 743  : 	if( _isnan( z ) )

  00074	83 ec 08	 sub	 esp, 8
  00077	0f 5a c0	 cvtps2pd xmm0, xmm0
  0007a	f2 0f 11 04 24	 movsd	 QWORD PTR [esp], xmm0
  0007f	e8 00 00 00 00	 call	 __isnan
  00084	83 c4 08	 add	 esp, 8
  00087	85 c0		 test	 eax, eax
  00089	0f 85 58 03 00
	00		 jne	 $LN11@GetLandTri

; 744  : 		return FALSE;
; 745  : 	if( z < 0.0f )

  0008f	f3 0f 10 55 0c	 movss	 xmm2, DWORD PTR _z$[ebp]
  00094	0f 57 c0	 xorps	 xmm0, xmm0
  00097	0f 2f c2	 comiss	 xmm0, xmm2
  0009a	0f 87 47 03 00
	00		 ja	 $LN11@GetLandTri

; 746  : 		return FALSE;
; 747  : 	if( (z * inv_mpu) >= ( WORLD_HEIGHT-1 ) )		

  000a0	8b 47 10	 mov	 eax, DWORD PTR [edi+16]
  000a3	f3 0f 10 4d fc	 movss	 xmm1, DWORD PTR _inv_mpu$1$[ebp]
  000a8	48		 dec	 eax
  000a9	f3 0f 59 ca	 mulss	 xmm1, xmm2
  000ad	66 0f 6e c0	 movd	 xmm0, eax
  000b1	0f 5b c0	 cvtdq2ps xmm0, xmm0
  000b4	0f 2f c8	 comiss	 xmm1, xmm0
  000b7	0f 83 2a 03 00
	00		 jae	 $LN11@GetLandTri
; File C:\IAGOS\server\v18\Source\Source\_Common\World.cpp

; 1255 : 	x /= m_iMPU;			//SMPU

  000bd	66 0f 6e 47 14	 movd	 xmm0, DWORD PTR [edi+20]
  000c2	f3 0f 10 4d 08	 movss	 xmm1, DWORD PTR _x$[ebp]
  000c7	0f 5b c0	 cvtdq2ps xmm0, xmm0
  000ca	53		 push	 ebx

; 1256 : 	z /= m_iMPU;
; 1257 : 
; 1258 : #ifdef __WORLDSERVER
; 1259 : 	int gx=(int)x;
; 1260 : 	int gz=(int)z;
; 1261 : 	float glx=x-gx;
; 1262 : 	float glz=z-gz;
; 1263 : 
; 1264 : 	if((gx+gz)%2==0) {

  000cb	8b 75 10	 mov	 esi, DWORD PTR _pTri$[ebp]
  000ce	f3 0f 5e c8	 divss	 xmm1, xmm0
  000d2	f3 0f 5e d0	 divss	 xmm2, xmm0
  000d6	f3 0f 2c d9	 cvttss2si ebx, xmm1
  000da	f3 0f 2c c2	 cvttss2si eax, xmm2
  000de	66 0f 6e c3	 movd	 xmm0, ebx
  000e2	0f 5b c0	 cvtdq2ps xmm0, xmm0
  000e5	8b c8		 mov	 ecx, eax
  000e7	89 45 08	 mov	 DWORD PTR _gz$1$[ebp], eax
  000ea	0f af 4f 14	 imul	 ecx, DWORD PTR [edi+20]
  000ee	f3 0f 5c c8	 subss	 xmm1, xmm0
  000f2	66 0f 6e c0	 movd	 xmm0, eax
  000f6	0f 5b c0	 cvtdq2ps xmm0, xmm0
  000f9	03 c3		 add	 eax, ebx
  000fb	a8 01		 test	 al, 1
  000fd	8b 47 1c	 mov	 eax, DWORD PTR [edi+28]
  00100	89 4d 0c	 mov	 DWORD PTR tv1789[ebp], ecx
  00103	8b 4f 0c	 mov	 ecx, DWORD PTR [edi+12]
  00106	f3 0f 5c d0	 subss	 xmm2, xmm0
  0010a	0f 85 15 01 00
	00		 jne	 $LN3@GetLandTri

; 1265 : 		if(glx>glz) {

  00110	0f af 4d 08	 imul	 ecx, DWORD PTR _gz$1$[ebp]
  00114	66 0f 6e 65 0c	 movd	 xmm4, DWORD PTR tv1789[ebp]
  00119	0f 5b e4	 cvtdq2ps xmm4, xmm4
  0011c	03 cb		 add	 ecx, ebx
  0011e	f3 0f 10 1c 88	 movss	 xmm3, DWORD PTR [eax+ecx*4]
  00123	8b c3		 mov	 eax, ebx
  00125	0f af 47 14	 imul	 eax, DWORD PTR [edi+20]
  00129	66 0f 6e c0	 movd	 xmm0, eax
  0012d	8b 45 08	 mov	 eax, DWORD PTR _gz$1$[ebp]
  00130	0f 5b c0	 cvtdq2ps xmm0, xmm0
  00133	40		 inc	 eax
  00134	f3 0f 11 06	 movss	 DWORD PTR [esi], xmm0
  00138	f3 0f 11 5e 04	 movss	 DWORD PTR [esi+4], xmm3
  0013d	f3 0f 11 66 08	 movss	 DWORD PTR [esi+8], xmm4
  00142	8b 4f 0c	 mov	 ecx, DWORD PTR [edi+12]
  00145	8b 57 14	 mov	 edx, DWORD PTR [edi+20]
  00148	0f af c8	 imul	 ecx, eax
  0014b	8b 47 1c	 mov	 eax, DWORD PTR [edi+28]
  0014e	03 cb		 add	 ecx, ebx
  00150	0f 2f ca	 comiss	 xmm1, xmm2
  00153	76 4c		 jbe	 SHORT $LN5@GetLandTri
; File C:\IAGOS\server\v18\Source\Source\DX_SDK\d3dx9math.inl

; 301  :     y = fy;

  00155	f3 0f 10 4c 88
	04		 movss	 xmm1, DWORD PTR [eax+ecx*4+4]
; File C:\IAGOS\server\v18\Source\Source\_Common\World.cpp

; 1268 : 			pTri[1]=D3DXVECTOR3( (float)( (gx+1)*m_iMPU ), (float)( m_apHeightMap[(gx+1)+(gz+1)*WORLD_WIDTH] ), (float)( (gz+1)*m_iMPU ) );

  0015b	8d 43 01	 lea	 eax, DWORD PTR [ebx+1]
  0015e	8b 4d 08	 mov	 ecx, DWORD PTR _gz$1$[ebp]
  00161	0f af c2	 imul	 eax, edx
  00164	66 0f 6e c0	 movd	 xmm0, eax
  00168	8d 41 01	 lea	 eax, DWORD PTR [ecx+1]
  0016b	0f af c2	 imul	 eax, edx
  0016e	0f 5b c0	 cvtdq2ps xmm0, xmm0
  00171	f3 0f 11 46 0c	 movss	 DWORD PTR [esi+12], xmm0
  00176	66 0f 6e c0	 movd	 xmm0, eax
  0017a	0f 5b c0	 cvtdq2ps xmm0, xmm0
  0017d	f3 0f 11 4e 10	 movss	 DWORD PTR [esi+16], xmm1
  00182	f3 0f 11 46 14	 movss	 DWORD PTR [esi+20], xmm0

; 1269 : 			pTri[2]=D3DXVECTOR3( (float)( (gx+1)*m_iMPU ), (float)( m_apHeightMap[(gx+1)+(gz  )*WORLD_WIDTH] ), (float)( (gz  )*m_iMPU ) );

  00187	8b 57 14	 mov	 edx, DWORD PTR [edi+20]
  0018a	8b c2		 mov	 eax, edx
  0018c	0f af c1	 imul	 eax, ecx
  0018f	8d 4e 18	 lea	 ecx, DWORD PTR [esi+24]
  00192	89 4d 10	 mov	 DWORD PTR $T3[ebp], ecx
  00195	8b 4f 0c	 mov	 ecx, DWORD PTR [edi+12]
  00198	0f af 4d 08	 imul	 ecx, DWORD PTR _gz$1$[ebp]
  0019c	89 45 0c	 mov	 DWORD PTR $T2[ebp], eax

; 1270 : 		}

  0019f	eb 49		 jmp	 SHORT $LN58@GetLandTri
$LN5@GetLandTri:
; File C:\IAGOS\server\v18\Source\Source\DX_SDK\d3dx9math.inl

; 301  :     y = fy;

  001a1	f3 0f 10 0c 88	 movss	 xmm1, DWORD PTR [eax+ecx*4]
; File C:\IAGOS\server\v18\Source\Source\_Common\World.cpp

; 1274 : 			pTri[1]=D3DXVECTOR3( (float)( (gx  )*m_iMPU ), (float)( m_apHeightMap[(gx  )+(gz+1)*WORLD_WIDTH] ), (float)( (gz+1)*m_iMPU ) );

  001a6	8b c2		 mov	 eax, edx
  001a8	0f af c3	 imul	 eax, ebx
  001ab	66 0f 6e c0	 movd	 xmm0, eax
  001af	8b 45 08	 mov	 eax, DWORD PTR _gz$1$[ebp]
  001b2	40		 inc	 eax
  001b3	0f af c2	 imul	 eax, edx
  001b6	0f 5b c0	 cvtdq2ps xmm0, xmm0
  001b9	f3 0f 11 46 0c	 movss	 DWORD PTR [esi+12], xmm0
  001be	66 0f 6e c0	 movd	 xmm0, eax

; 1275 : 			pTri[2]=D3DXVECTOR3( (float)( (gx+1)*m_iMPU ), (float)( m_apHeightMap[(gx+1)+(gz+1)*WORLD_WIDTH] ), (float)( (gz+1)*m_iMPU ) );

  001c2	8b 45 08	 mov	 eax, DWORD PTR _gz$1$[ebp]
  001c5	0f 5b c0	 cvtdq2ps xmm0, xmm0
  001c8	40		 inc	 eax
  001c9	f3 0f 11 4e 10	 movss	 DWORD PTR [esi+16], xmm1
  001ce	f3 0f 11 46 14	 movss	 DWORD PTR [esi+20], xmm0
  001d3	8b 57 14	 mov	 edx, DWORD PTR [edi+20]
  001d6	8b ca		 mov	 ecx, edx
  001d8	0f af c8	 imul	 ecx, eax
  001db	89 4d 0c	 mov	 DWORD PTR $T2[ebp], ecx
  001de	8d 4e 18	 lea	 ecx, DWORD PTR [esi+24]
  001e1	89 4d 10	 mov	 DWORD PTR $T3[ebp], ecx
  001e4	8b 4f 0c	 mov	 ecx, DWORD PTR [edi+12]
  001e7	0f af c8	 imul	 ecx, eax
$LN58@GetLandTri:

; 1276 : 		}
; 1277 : 	}

  001ea	8b 47 1c	 mov	 eax, DWORD PTR [edi+28]
  001ed	03 cb		 add	 ecx, ebx
  001ef	f3 0f 10 4c 88
	04		 movss	 xmm1, DWORD PTR [eax+ecx*4+4]
  001f5	8d 3c 88	 lea	 edi, DWORD PTR [eax+ecx*4]
  001f8	66 0f 6e 45 0c	 movd	 xmm0, DWORD PTR $T2[ebp]
  001fd	8d 46 18	 lea	 eax, DWORD PTR [esi+24]
  00200	89 45 08	 mov	 DWORD PTR $T1[ebp], eax
  00203	8d 4e 18	 lea	 ecx, DWORD PTR [esi+24]
  00206	8d 43 01	 lea	 eax, DWORD PTR [ebx+1]
  00209	bf 04 00 00 00	 mov	 edi, 4
  0020e	0f af c2	 imul	 eax, edx
  00211	ba 08 00 00 00	 mov	 edx, 8
  00216	03 55 10	 add	 edx, DWORD PTR $T3[ebp]
  00219	03 7d 08	 add	 edi, DWORD PTR $T1[ebp]
  0021c	66 0f 6e d0	 movd	 xmm2, eax
  00220	e9 2c 01 00 00	 jmp	 $LN59@GetLandTri
$LN3@GetLandTri:

; 1278 : 	else {
; 1279 : 		if(glx+glz<1.0f) {

  00225	0f af 4d 08	 imul	 ecx, DWORD PTR _gz$1$[ebp]
  00229	f3 0f 58 d1	 addss	 xmm2, xmm1
  0022d	f3 0f 10 05 00
	00 00 00	 movss	 xmm0, DWORD PTR __real@3f800000
  00235	66 0f 6e 5d 0c	 movd	 xmm3, DWORD PTR tv1789[ebp]
  0023a	0f 5b db	 cvtdq2ps xmm3, xmm3
  0023d	03 cb		 add	 ecx, ebx
  0023f	0f 2f c2	 comiss	 xmm0, xmm2
  00242	76 77		 jbe	 SHORT $LN7@GetLandTri
; File C:\IAGOS\server\v18\Source\Source\DX_SDK\d3dx9math.inl

; 301  :     y = fy;

  00244	f3 0f 10 0c 88	 movss	 xmm1, DWORD PTR [eax+ecx*4]
; File C:\IAGOS\server\v18\Source\Source\_Common\World.cpp

; 1281 : 			pTri[0]=D3DXVECTOR3( (float)( (gx  )*m_iMPU ), (float)( m_apHeightMap[(gx  )+(gz  )*WORLD_WIDTH] ), (float)( (gz  )*m_iMPU ) );

  00249	8b 47 14	 mov	 eax, DWORD PTR [edi+20]
  0024c	0f af c3	 imul	 eax, ebx
  0024f	66 0f 6e c0	 movd	 xmm0, eax

; 1282 : 			pTri[1]=D3DXVECTOR3( (float)( (gx  )*m_iMPU ), (float)( m_apHeightMap[(gx  )+(gz+1)*WORLD_WIDTH] ), (float)( (gz+1)*m_iMPU ) );

  00253	8b 45 08	 mov	 eax, DWORD PTR _gz$1$[ebp]
  00256	0f 5b c0	 cvtdq2ps xmm0, xmm0
  00259	40		 inc	 eax
  0025a	f3 0f 11 06	 movss	 DWORD PTR [esi], xmm0
  0025e	f3 0f 11 4e 04	 movss	 DWORD PTR [esi+4], xmm1
  00263	f3 0f 11 5e 08	 movss	 DWORD PTR [esi+8], xmm3
  00268	8b 4f 0c	 mov	 ecx, DWORD PTR [edi+12]
  0026b	8b 57 14	 mov	 edx, DWORD PTR [edi+20]
  0026e	0f af c8	 imul	 ecx, eax
; File C:\IAGOS\server\v18\Source\Source\DX_SDK\d3dx9math.inl

; 301  :     y = fy;

  00271	8b 47 1c	 mov	 eax, DWORD PTR [edi+28]
; File C:\IAGOS\server\v18\Source\Source\_Common\World.cpp

; 1282 : 			pTri[1]=D3DXVECTOR3( (float)( (gx  )*m_iMPU ), (float)( m_apHeightMap[(gx  )+(gz+1)*WORLD_WIDTH] ), (float)( (gz+1)*m_iMPU ) );

  00274	03 cb		 add	 ecx, ebx
; File C:\IAGOS\server\v18\Source\Source\DX_SDK\d3dx9math.inl

; 301  :     y = fy;

  00276	f3 0f 10 0c 88	 movss	 xmm1, DWORD PTR [eax+ecx*4]
; File C:\IAGOS\server\v18\Source\Source\_Common\World.cpp

; 1282 : 			pTri[1]=D3DXVECTOR3( (float)( (gx  )*m_iMPU ), (float)( m_apHeightMap[(gx  )+(gz+1)*WORLD_WIDTH] ), (float)( (gz+1)*m_iMPU ) );

  0027b	8b c2		 mov	 eax, edx
  0027d	8b 4d 08	 mov	 ecx, DWORD PTR _gz$1$[ebp]
  00280	0f af c3	 imul	 eax, ebx
  00283	66 0f 6e c0	 movd	 xmm0, eax
  00287	8d 41 01	 lea	 eax, DWORD PTR [ecx+1]
  0028a	0f af d0	 imul	 edx, eax
  0028d	0f 5b c0	 cvtdq2ps xmm0, xmm0
  00290	f3 0f 11 46 0c	 movss	 DWORD PTR [esi+12], xmm0
  00295	66 0f 6e c2	 movd	 xmm0, edx
  00299	0f 5b c0	 cvtdq2ps xmm0, xmm0
  0029c	f3 0f 11 4e 10	 movss	 DWORD PTR [esi+16], xmm1
  002a1	f3 0f 11 46 14	 movss	 DWORD PTR [esi+20], xmm0

; 1283 : 			pTri[2]=D3DXVECTOR3( (float)( (gx+1)*m_iMPU ), (float)( m_apHeightMap[(gx+1)+(gz  )*WORLD_WIDTH] ), (float)( (gz  )*m_iMPU ) );

  002a6	8b 57 14	 mov	 edx, DWORD PTR [edi+20]
  002a9	8b c2		 mov	 eax, edx
  002ab	0f af c1	 imul	 eax, ecx
  002ae	8b 4f 0c	 mov	 ecx, DWORD PTR [edi+12]
  002b1	0f af 4d 08	 imul	 ecx, DWORD PTR _gz$1$[ebp]
  002b5	66 0f 6e c0	 movd	 xmm0, eax

; 1284 : 		}

  002b9	eb 78		 jmp	 SHORT $LN60@GetLandTri
$LN7@GetLandTri:
; File C:\IAGOS\server\v18\Source\Source\DX_SDK\d3dx9math.inl

; 301  :     y = fy;

  002bb	f3 0f 10 4c 88
	04		 movss	 xmm1, DWORD PTR [eax+ecx*4+4]
; File C:\IAGOS\server\v18\Source\Source\_Common\World.cpp

; 1287 : 			pTri[0]=D3DXVECTOR3( (float)( (gx+1)*m_iMPU ), (float)( m_apHeightMap[(gx+1)+(gz  )*WORLD_WIDTH] ), (float)( (gz  )*m_iMPU ) );

  002c1	8d 43 01	 lea	 eax, DWORD PTR [ebx+1]
  002c4	0f af 47 14	 imul	 eax, DWORD PTR [edi+20]
  002c8	66 0f 6e c0	 movd	 xmm0, eax

; 1288 : 			pTri[1]=D3DXVECTOR3( (float)( (gx  )*m_iMPU ), (float)( m_apHeightMap[(gx  )+(gz+1)*WORLD_WIDTH] ), (float)( (gz+1)*m_iMPU ) );

  002cc	8b 45 08	 mov	 eax, DWORD PTR _gz$1$[ebp]
  002cf	0f 5b c0	 cvtdq2ps xmm0, xmm0
  002d2	40		 inc	 eax
  002d3	f3 0f 11 06	 movss	 DWORD PTR [esi], xmm0
  002d7	f3 0f 11 4e 04	 movss	 DWORD PTR [esi+4], xmm1
  002dc	f3 0f 11 5e 08	 movss	 DWORD PTR [esi+8], xmm3
  002e1	8b 4f 0c	 mov	 ecx, DWORD PTR [edi+12]
  002e4	8b 57 14	 mov	 edx, DWORD PTR [edi+20]
  002e7	0f af c8	 imul	 ecx, eax
; File C:\IAGOS\server\v18\Source\Source\DX_SDK\d3dx9math.inl

; 301  :     y = fy;

  002ea	8b 47 1c	 mov	 eax, DWORD PTR [edi+28]
; File C:\IAGOS\server\v18\Source\Source\_Common\World.cpp

; 1288 : 			pTri[1]=D3DXVECTOR3( (float)( (gx  )*m_iMPU ), (float)( m_apHeightMap[(gx  )+(gz+1)*WORLD_WIDTH] ), (float)( (gz+1)*m_iMPU ) );

  002ed	03 cb		 add	 ecx, ebx
; File C:\IAGOS\server\v18\Source\Source\DX_SDK\d3dx9math.inl

; 301  :     y = fy;

  002ef	f3 0f 10 0c 88	 movss	 xmm1, DWORD PTR [eax+ecx*4]
; File C:\IAGOS\server\v18\Source\Source\_Common\World.cpp

; 1288 : 			pTri[1]=D3DXVECTOR3( (float)( (gx  )*m_iMPU ), (float)( m_apHeightMap[(gx  )+(gz+1)*WORLD_WIDTH] ), (float)( (gz+1)*m_iMPU ) );

  002f4	8b c2		 mov	 eax, edx
  002f6	8b 4d 08	 mov	 ecx, DWORD PTR _gz$1$[ebp]
  002f9	0f af c3	 imul	 eax, ebx
  002fc	41		 inc	 ecx
  002fd	0f af d1	 imul	 edx, ecx
  00300	66 0f 6e c0	 movd	 xmm0, eax
  00304	0f 5b c0	 cvtdq2ps xmm0, xmm0
  00307	f3 0f 11 46 0c	 movss	 DWORD PTR [esi+12], xmm0
  0030c	66 0f 6e c2	 movd	 xmm0, edx
  00310	0f 5b c0	 cvtdq2ps xmm0, xmm0
  00313	f3 0f 11 4e 10	 movss	 DWORD PTR [esi+16], xmm1
  00318	f3 0f 11 46 14	 movss	 DWORD PTR [esi+20], xmm0

; 1289 : 			pTri[2]=D3DXVECTOR3( (float)( (gx+1)*m_iMPU ), (float)( m_apHeightMap[(gx+1)+(gz+1)*WORLD_WIDTH] ), (float)( (gz+1)*m_iMPU ) );

  0031d	8b 57 14	 mov	 edx, DWORD PTR [edi+20]
  00320	8b c2		 mov	 eax, edx
  00322	0f af c1	 imul	 eax, ecx
  00325	8b 4f 0c	 mov	 ecx, DWORD PTR [edi+12]
  00328	66 0f 6e c0	 movd	 xmm0, eax
  0032c	8b 45 08	 mov	 eax, DWORD PTR _gz$1$[ebp]
  0032f	40		 inc	 eax
  00330	0f af c8	 imul	 ecx, eax
$LN60@GetLandTri:

; 1290 : 		}
; 1291 : 	}
; 1292 : 
; 1293 : 	float y = pTri[0].y;

  00333	8b 47 1c	 mov	 eax, DWORD PTR [edi+28]
  00336	03 cb		 add	 ecx, ebx
  00338	f3 0f 10 4c 88
	04		 movss	 xmm1, DWORD PTR [eax+ecx*4+4]
  0033e	8d 43 01	 lea	 eax, DWORD PTR [ebx+1]
  00341	0f af d0	 imul	 edx, eax
  00344	8d 4e 18	 lea	 ecx, DWORD PTR [esi+24]
  00347	8d 79 04	 lea	 edi, DWORD PTR [ecx+4]
  0034a	66 0f 6e d2	 movd	 xmm2, edx
  0034e	8d 56 20	 lea	 edx, DWORD PTR [esi+32]
$LN59@GetLandTri:
  00351	0f 5b d2	 cvtdq2ps xmm2, xmm2

; 1294 : 	if( y >= HGT_NOWALK )		// 1000ŔĚ»ó °ŞŔĚ¸é ±×ŔĚ»ó°ŞŔ» Ŕß¶óąö¸°´Ů.

  00354	5b		 pop	 ebx
  00355	0f 5b c0	 cvtdq2ps xmm0, xmm0
  00358	f3 0f 11 11	 movss	 DWORD PTR [ecx], xmm2
  0035c	f3 0f 11 0f	 movss	 DWORD PTR [edi], xmm1
  00360	f3 0f 11 02	 movss	 DWORD PTR [edx], xmm0
  00364	f3 0f 10 56 04	 movss	 xmm2, DWORD PTR [esi+4]
  00369	f3 0f 10 0d 00
	00 00 00	 movss	 xmm1, DWORD PTR __real@447a0000
  00371	0f 2f d1	 comiss	 xmm2, xmm1
  00374	72 1f		 jb	 SHORT $LN9@GetLandTri

; 1295 : 	{
; 1296 : 		int n = (int)(y / HGT_NOWALK);

  00376	0f 28 c2	 movaps	 xmm0, xmm2
  00379	f3 0f 5e c1	 divss	 xmm0, xmm1
  0037d	f3 0f 2c c0	 cvttss2si eax, xmm0
  00381	66 0f 6e c0	 movd	 xmm0, eax

; 1297 : 		pTri[0].y -= (float)(HGT_NOWALK * n);

  00385	0f 5b c0	 cvtdq2ps xmm0, xmm0
  00388	f3 0f 59 c1	 mulss	 xmm0, xmm1
  0038c	f3 0f 5c d0	 subss	 xmm2, xmm0
  00390	f3 0f 11 56 04	 movss	 DWORD PTR [esi+4], xmm2
$LN9@GetLandTri:

; 1298 : 	}
; 1299 : 	y = pTri[1].y;

  00395	f3 0f 10 56 10	 movss	 xmm2, DWORD PTR [esi+16]

; 1300 : 	if( y >= HGT_NOWALK )		// 1000ŔĚ»ó °ŞŔĚ¸é ±×ŔĚ»ó°ŞŔ» Ŕß¶óąö¸°´Ů.

  0039a	0f 2f d1	 comiss	 xmm2, xmm1
  0039d	72 1f		 jb	 SHORT $LN10@GetLandTri

; 1301 : 	{
; 1302 : 		int n = (int)(y / HGT_NOWALK);

  0039f	0f 28 c2	 movaps	 xmm0, xmm2
  003a2	f3 0f 5e c1	 divss	 xmm0, xmm1
  003a6	f3 0f 2c c0	 cvttss2si eax, xmm0
  003aa	66 0f 6e c0	 movd	 xmm0, eax

; 1303 : 		pTri[1].y -= (float)(HGT_NOWALK * n);

  003ae	0f 5b c0	 cvtdq2ps xmm0, xmm0
  003b1	f3 0f 59 c1	 mulss	 xmm0, xmm1
  003b5	f3 0f 5c d0	 subss	 xmm2, xmm0
  003b9	f3 0f 11 56 10	 movss	 DWORD PTR [esi+16], xmm2
$LN10@GetLandTri:

; 1304 : 	}
; 1305 : 	y = pTri[2].y;

  003be	f3 0f 10 56 1c	 movss	 xmm2, DWORD PTR [esi+28]

; 1306 : 	if( y >= HGT_NOWALK )		// 1000ŔĚ»ó °ŞŔĚ¸é ±×ŔĚ»ó°ŞŔ» Ŕß¶óąö¸°´Ů.

  003c3	0f 2f d1	 comiss	 xmm2, xmm1
  003c6	72 1f		 jb	 SHORT $LN11@GetLandTri

; 1307 : 	{
; 1308 : 		int n = (int)(y / HGT_NOWALK);

  003c8	0f 28 c2	 movaps	 xmm0, xmm2
  003cb	f3 0f 5e c1	 divss	 xmm0, xmm1
  003cf	f3 0f 2c c0	 cvttss2si eax, xmm0
  003d3	66 0f 6e c0	 movd	 xmm0, eax

; 1309 : 		pTri[2].y -= (float)(HGT_NOWALK * n);

  003d7	0f 5b c0	 cvtdq2ps xmm0, xmm0
  003da	f3 0f 59 c1	 mulss	 xmm0, xmm1
  003de	f3 0f 5c d0	 subss	 xmm2, xmm0
  003e2	f3 0f 11 56 1c	 movss	 DWORD PTR [esi+28], xmm2
$LN11@GetLandTri:

; 1310 : 	}
; 1311 : 	
; 1312 : #else
; 1313 : 	int lx=(int)(x/MAP_SIZE);
; 1314 : 	int lz=(int)(z/MAP_SIZE);
; 1315 : 	DWORD gx=(int)x-lx*MAP_SIZE;
; 1316 : 	DWORD gz=(int)z-lz*MAP_SIZE;
; 1317 : 	float glx=x-(int)x;
; 1318 : 	float glz=z-(int)z;
; 1319 : 
; 1320 : 	CLandscape* pLand = m_apLand[ lx + lz * m_nLandWidth ];
; 1321 : 	if( pLand == NULL ) return;
; 1322 : 
; 1323 : 	if((gx+gz)%2==0) {
; 1324 : 		if(glx>glz) {
; 1325 : 			//0,3,1
; 1326 : 			pTri[0]=D3DXVECTOR3( (FLOAT)( (gx  +lx*MAP_SIZE)*m_iMPU ), (FLOAT)( pLand->GetHeight(gx  ,gz  ) ), (FLOAT)( (gz  +lz*MAP_SIZE)*m_iMPU) );
; 1327 : 			pTri[1]=D3DXVECTOR3( (FLOAT)( (gx+1+lx*MAP_SIZE)*m_iMPU ), (FLOAT)( pLand->GetHeight(gx+1,gz+1) ), (FLOAT)( (gz+1+lz*MAP_SIZE)*m_iMPU) );
; 1328 : 			pTri[2]=D3DXVECTOR3( (FLOAT)( (gx+1+lx*MAP_SIZE)*m_iMPU ), (FLOAT)( pLand->GetHeight(gx+1,gz  ) ), (FLOAT)( (gz  +lz*MAP_SIZE)*m_iMPU) );
; 1329 : 		}
; 1330 : 		else {
; 1331 : 			//0,2,3
; 1332 : 			pTri[0]=D3DXVECTOR3( (FLOAT)( (gx  +lx*MAP_SIZE)*m_iMPU ), (FLOAT)( pLand->GetHeight(gx  ,gz  ) ), (FLOAT)( (gz  +lz*MAP_SIZE)*m_iMPU) );
; 1333 : 			pTri[1]=D3DXVECTOR3( (FLOAT)( (gx  +lx*MAP_SIZE)*m_iMPU ), (FLOAT)( pLand->GetHeight(gx  ,gz+1) ), (FLOAT)( (gz+1+lz*MAP_SIZE)*m_iMPU) );
; 1334 : 			pTri[2]=D3DXVECTOR3( (FLOAT)( (gx+1+lx*MAP_SIZE)*m_iMPU ), (FLOAT)( pLand->GetHeight(gx+1,gz+1) ), (FLOAT)( (gz+1+lz*MAP_SIZE)*m_iMPU) );
; 1335 : 		}
; 1336 : 	}
; 1337 : 	else {
; 1338 : 		if(glx+glz<1.0f) {
; 1339 : 			//0,2,1
; 1340 : 			pTri[0]=D3DXVECTOR3( (FLOAT)( (gx  +lx*MAP_SIZE)*m_iMPU ), (FLOAT)( pLand->GetHeight(gx  ,gz  ) ), (FLOAT)( (gz  +lz*MAP_SIZE)*m_iMPU) );
; 1341 : 			pTri[1]=D3DXVECTOR3( (FLOAT)( (gx  +lx*MAP_SIZE)*m_iMPU ), (FLOAT)( pLand->GetHeight(gx  ,gz+1) ), (FLOAT)( (gz+1+lz*MAP_SIZE)*m_iMPU) );
; 1342 : 			pTri[2]=D3DXVECTOR3( (FLOAT)( (gx+1+lx*MAP_SIZE)*m_iMPU ), (FLOAT)( pLand->GetHeight(gx+1,gz  ) ), (FLOAT)( (gz  +lz*MAP_SIZE)*m_iMPU) );
; 1343 : 		}
; 1344 : 		else {
; 1345 : 			//1,2,3
; 1346 : 			pTri[0]=D3DXVECTOR3( (FLOAT)( (gx+1+lx*MAP_SIZE)*m_iMPU ), (FLOAT)( pLand->GetHeight(gx+1,gz  ) ), (FLOAT)( (gz  +lz*MAP_SIZE)*m_iMPU) );
; 1347 : 			pTri[1]=D3DXVECTOR3( (FLOAT)( (gx  +lx*MAP_SIZE)*m_iMPU ), (FLOAT)( pLand->GetHeight(gx  ,gz+1) ), (FLOAT)( (gz+1+lz*MAP_SIZE)*m_iMPU) );
; 1348 : 			pTri[2]=D3DXVECTOR3( (FLOAT)( (gx+1+lx*MAP_SIZE)*m_iMPU ), (FLOAT)( pLand->GetHeight(gx+1,gz+1) ), (FLOAT)( (gz+1+lz*MAP_SIZE)*m_iMPU) );
; 1349 : 		}
; 1350 : 	}
; 1351 : #endif
; 1352 : 
; 1353 : }

  003e7	5f		 pop	 edi
  003e8	5e		 pop	 esi
  003e9	8b e5		 mov	 esp, ebp
  003eb	5d		 pop	 ebp
  003ec	c2 0c 00	 ret	 12			; 0000000cH
?GetLandTri@CWorld@@QAEXMMPAUD3DXVECTOR3@@@Z ENDP	; CWorld::GetLandTri
_TEXT	ENDS
; Function compile flags: /Ogtp
; File C:\IAGOS\server\v18\Source\Source\_Common\World.cpp
;	COMDAT ?GetLandHeight@CWorld@@QAEMABUD3DXVECTOR3@@@Z
_TEXT	SEGMENT
_vPos$ = 8						; size = 4
?GetLandHeight@CWorld@@QAEMABUD3DXVECTOR3@@@Z PROC	; CWorld::GetLandHeight, COMDAT
; _this$ = ecx

; 1047 : {

  00000	55		 push	 ebp
  00001	8b ec		 mov	 ebp, esp

; 1048 : 	return GetLandHeight( vPos.x, vPos.z );

  00003	8b 45 08	 mov	 eax, DWORD PTR _vPos$[ebp]
  00006	83 ec 08	 sub	 esp, 8
  00009	f3 0f 10 40 08	 movss	 xmm0, DWORD PTR [eax+8]
  0000e	f3 0f 11 44 24
	04		 movss	 DWORD PTR [esp+4], xmm0
  00014	f3 0f 10 00	 movss	 xmm0, DWORD PTR [eax]
  00018	f3 0f 11 04 24	 movss	 DWORD PTR [esp], xmm0
  0001d	e8 00 00 00 00	 call	 ?GetLandHeight@CWorld@@QAEMMM@Z ; CWorld::GetLandHeight

; 1049 : }

  00022	5d		 pop	 ebp
  00023	c2 04 00	 ret	 4
?GetLandHeight@CWorld@@QAEMABUD3DXVECTOR3@@@Z ENDP	; CWorld::GetLandHeight
_TEXT	ENDS
; Function compile flags: /Ogtp
; File C:\IAGOS\server\v18\Source\Source\_Common\World.cpp
; File C:\IAGOS\server\v18\Source\Source\_Common\World.h
; File C:\IAGOS\server\v18\Source\Source\_Common\World.cpp
; File C:\IAGOS\server\v18\Source\Source\_Common\World.h
; File C:\IAGOS\server\v18\Source\Source\_Common\World.cpp
;	COMDAT ?GetLandHeight@CWorld@@QAEMMM@Z
_TEXT	SEGMENT
tv412 = -16						; size = 8
_y1$1$ = -8						; size = 4
_inv_mpu$1$ = -4					; size = 4
_y2$1$ = -4						; size = 4
_x$ = 8							; size = 4
tv466 = 8						; size = 4
_z$ = 12						; size = 4
_dz$1$ = 12						; size = 4
?GetLandHeight@CWorld@@QAEMMM@Z PROC			; CWorld::GetLandHeight, COMDAT
; _this$ = ecx

; 983  : {

  00000	55		 push	 ebp
  00001	8b ec		 mov	 ebp, esp
  00003	83 ec 10	 sub	 esp, 16			; 00000010H
; File C:\IAGOS\server\v18\Source\Source\_Common\World.h

; 732  : 	float inv_mpu = 1.0f / (float)m_iMPU;

  00006	f3 0f 10 0d 00
	00 00 00	 movss	 xmm1, DWORD PTR __real@3f800000
; File C:\IAGOS\server\v18\Source\Source\_Common\World.cpp

; 983  : {

  0000e	56		 push	 esi
  0000f	8b f1		 mov	 esi, ecx
; File C:\IAGOS\server\v18\Source\Source\_Common\World.h

; 734  : 	if( _isnan( x ) )

  00011	83 ec 08	 sub	 esp, 8
  00014	66 0f 6e 46 14	 movd	 xmm0, DWORD PTR [esi+20]

; 732  : 	float inv_mpu = 1.0f / (float)m_iMPU;

  00019	0f 5b c0	 cvtdq2ps xmm0, xmm0
  0001c	f3 0f 5e c8	 divss	 xmm1, xmm0
  00020	f3 0f 10 45 08	 movss	 xmm0, DWORD PTR _x$[ebp]

; 734  : 	if( _isnan( x ) )

  00025	0f 5a c0	 cvtps2pd xmm0, xmm0
  00028	f3 0f 11 4d fc	 movss	 DWORD PTR _inv_mpu$1$[ebp], xmm1
  0002d	f2 0f 11 45 f0	 movsd	 QWORD PTR tv412[ebp], xmm0
  00032	f2 0f 11 04 24	 movsd	 QWORD PTR [esp], xmm0
  00037	e8 00 00 00 00	 call	 __isnan
  0003c	83 c4 08	 add	 esp, 8
  0003f	85 c0		 test	 eax, eax
  00041	0f 85 1f 02 00
	00		 jne	 $LN17@GetLandHei

; 735  : 		return FALSE;
; 736  : 	if( x < 0.0f )

  00047	f3 0f 10 45 08	 movss	 xmm0, DWORD PTR _x$[ebp]
  0004c	0f 57 c9	 xorps	 xmm1, xmm1
  0004f	0f 2f c8	 comiss	 xmm1, xmm0
  00052	0f 87 0e 02 00
	00		 ja	 $LN17@GetLandHei

; 737  : 		return FALSE;
; 738  : 	if( (x * inv_mpu) >= ( WORLD_WIDTH-1 ) )	

  00058	8b 46 0c	 mov	 eax, DWORD PTR [esi+12]
  0005b	f3 0f 10 4d fc	 movss	 xmm1, DWORD PTR _inv_mpu$1$[ebp]
  00060	48		 dec	 eax
  00061	f3 0f 59 c8	 mulss	 xmm1, xmm0
  00065	66 0f 6e c0	 movd	 xmm0, eax
  00069	0f 5b c0	 cvtdq2ps xmm0, xmm0
  0006c	0f 2f c8	 comiss	 xmm1, xmm0
  0006f	0f 83 f1 01 00
	00		 jae	 $LN17@GetLandHei
  00075	f3 0f 10 45 0c	 movss	 xmm0, DWORD PTR _z$[ebp]

; 739  : 	{
; 740  : 		return FALSE;
; 741  : 	}
; 742  : 
; 743  : 	if( _isnan( z ) )

  0007a	83 ec 08	 sub	 esp, 8
  0007d	0f 5a c0	 cvtps2pd xmm0, xmm0
  00080	f2 0f 11 04 24	 movsd	 QWORD PTR [esp], xmm0
  00085	e8 00 00 00 00	 call	 __isnan
  0008a	83 c4 08	 add	 esp, 8
  0008d	85 c0		 test	 eax, eax
  0008f	0f 85 d1 01 00
	00		 jne	 $LN17@GetLandHei

; 744  : 		return FALSE;
; 745  : 	if( z < 0.0f )

  00095	f3 0f 10 5d 0c	 movss	 xmm3, DWORD PTR _z$[ebp]
  0009a	0f 57 c0	 xorps	 xmm0, xmm0
  0009d	0f 2f c3	 comiss	 xmm0, xmm3
  000a0	0f 87 c0 01 00
	00		 ja	 $LN17@GetLandHei

; 746  : 		return FALSE;
; 747  : 	if( (z * inv_mpu) >= ( WORLD_HEIGHT-1 ) )		

  000a6	8b 46 10	 mov	 eax, DWORD PTR [esi+16]
  000a9	f3 0f 10 4d fc	 movss	 xmm1, DWORD PTR _inv_mpu$1$[ebp]
  000ae	48		 dec	 eax
  000af	f3 0f 59 cb	 mulss	 xmm1, xmm3
  000b3	66 0f 6e c0	 movd	 xmm0, eax
  000b7	0f 5b c0	 cvtdq2ps xmm0, xmm0
  000ba	0f 2f c8	 comiss	 xmm1, xmm0
  000bd	0f 83 a3 01 00
	00		 jae	 $LN17@GetLandHei
; File C:\IAGOS\server\v18\Source\Source\_Common\World.cpp

; 990  : 	z /= m_iMPU;

  000c3	66 0f 6e 46 14	 movd	 xmm0, DWORD PTR [esi+20]
  000c8	0f 28 cb	 movaps	 xmm1, xmm3
  000cb	f3 0f 10 75 08	 movss	 xmm6, DWORD PTR _x$[ebp]
  000d0	0f 5b c0	 cvtdq2ps xmm0, xmm0

; 991  : #ifdef __WORLDSERVER
; 992  : 	int px, pz;
; 993  : 	FLOAT dx, dz;
; 994  : 	FLOAT dy1, dy2, dy3, dy4;
; 995  : 	px = (int)x;
; 996  : 	pz = (int)z;
; 997  : 	dx = x - px;
; 998  : 	dz=  z - pz;
; 999  : 
; 1000 : 	FLOAT y1 = m_apHeightMap[ px + pz * WORLD_WIDTH ];

  000d3	8b 56 0c	 mov	 edx, DWORD PTR [esi+12]
  000d6	8b ca		 mov	 ecx, edx
  000d8	8b 46 1c	 mov	 eax, DWORD PTR [esi+28]
  000db	53		 push	 ebx
  000dc	57		 push	 edi
  000dd	f3 0f 5e f0	 divss	 xmm6, xmm0
  000e1	f3 0f 5e c8	 divss	 xmm1, xmm0
  000e5	f3 0f 2c fe	 cvttss2si edi, xmm6
  000e9	f3 0f 2c d9	 cvttss2si ebx, xmm1
  000ed	66 0f 6e c7	 movd	 xmm0, edi
  000f1	0f af cb	 imul	 ecx, ebx
  000f4	0f 5b c0	 cvtdq2ps xmm0, xmm0
  000f7	03 cf		 add	 ecx, edi
  000f9	f3 0f 5c f0	 subss	 xmm6, xmm0
  000fd	66 0f 6e c3	 movd	 xmm0, ebx
  00101	0f 5b c0	 cvtdq2ps xmm0, xmm0
  00104	f3 0f 10 2c 88	 movss	 xmm5, DWORD PTR [eax+ecx*4]

; 1001 : 	FLOAT y2 = m_apHeightMap[ px + 1 + pz * WORLD_WIDTH ];

  00109	f3 0f 10 54 88
	04		 movss	 xmm2, DWORD PTR [eax+ecx*4+4]
  0010f	f3 0f 5c c8	 subss	 xmm1, xmm0

; 1002 : 
; 1003 : 	if( px + ( pz + 1 ) * WORLD_WIDTH >= WORLD_WIDTH * WORLD_HEIGHT )

  00113	8b 46 10	 mov	 eax, DWORD PTR [esi+16]
  00116	8d 4b 01	 lea	 ecx, DWORD PTR [ebx+1]
  00119	0f af ca	 imul	 ecx, edx
  0011c	0f af c2	 imul	 eax, edx
  0011f	f3 0f 11 75 08	 movss	 DWORD PTR _x$[ebp], xmm6
  00124	f3 0f 11 4d 0c	 movss	 DWORD PTR _dz$1$[ebp], xmm1
  00129	f3 0f 11 6d f8	 movss	 DWORD PTR _y1$1$[ebp], xmm5
  0012e	03 cf		 add	 ecx, edi
  00130	f3 0f 11 55 fc	 movss	 DWORD PTR _y2$1$[ebp], xmm2
  00135	3b c8		 cmp	 ecx, eax
  00137	7c 3a		 jl	 SHORT $LN3@GetLandHei

; 1004 : 		Error( "CWorld::GetLandHeight : %d %d,  %f %f,  %d %d", px, pz, _x, _z, m_nLandWidth, m_nLandHeight );

  00139	ff 76 08	 push	 DWORD PTR [esi+8]
  0013c	0f 5a c3	 cvtps2pd xmm0, xmm3
  0013f	ff 76 04	 push	 DWORD PTR [esi+4]
  00142	83 ec 10	 sub	 esp, 16			; 00000010H
  00145	f2 0f 11 44 24
	08		 movsd	 QWORD PTR [esp+8], xmm0
  0014b	f2 0f 10 45 f0	 movsd	 xmm0, QWORD PTR tv412[ebp]
  00150	f2 0f 11 04 24	 movsd	 QWORD PTR [esp], xmm0
  00155	53		 push	 ebx
  00156	57		 push	 edi
  00157	68 00 00 00 00	 push	 OFFSET ??_C@_0CO@PFFBKGBP@CWorld?3?3GetLandHeight?5?3?5?$CFd?5?$CFd?0?5@
  0015c	e8 00 00 00 00	 call	 ?Error@@YAPBDPBDZZ	; Error
  00161	f3 0f 10 55 fc	 movss	 xmm2, DWORD PTR _y2$1$[ebp]
  00166	83 c4 24	 add	 esp, 36			; 00000024H
  00169	f3 0f 10 6d f8	 movss	 xmm5, DWORD PTR _y1$1$[ebp]
  0016e	f3 0f 10 75 08	 movss	 xmm6, DWORD PTR _x$[ebp]
$LN3@GetLandHei:

; 1005 : 
; 1006 : 	FLOAT y3 = m_apHeightMap[ px + ( pz + 1 ) * WORLD_WIDTH ];

  00173	8b 4e 0c	 mov	 ecx, DWORD PTR [esi+12]
  00176	8d 43 01	 lea	 eax, DWORD PTR [ebx+1]

; 1007 : 	FLOAT y4 = m_apHeightMap[ px + 1 + ( pz + 1 ) * WORLD_WIDTH ];
; 1008 : 	if( y1 >= HGT_NOWALK )		// 1000ŔĚ»ó °ŞŔĚ¸é ±×ŔĚ»ó°ŞŔ» Ŕß¶óąö¸°´Ů.

  00179	f3 0f 10 0d 00
	00 00 00	 movss	 xmm1, DWORD PTR __real@447a0000
  00181	0f af c8	 imul	 ecx, eax
  00184	8b 46 1c	 mov	 eax, DWORD PTR [esi+28]
  00187	03 cf		 add	 ecx, edi
  00189	0f 2f e9	 comiss	 xmm5, xmm1
  0018c	5f		 pop	 edi
  0018d	5b		 pop	 ebx
  0018e	f3 0f 10 24 88	 movss	 xmm4, DWORD PTR [eax+ecx*4]
  00193	f3 0f 10 5c 88
	04		 movss	 xmm3, DWORD PTR [eax+ecx*4+4]
  00199	72 1a		 jb	 SHORT $LN4@GetLandHei

; 1009 : 	{
; 1010 : 		int n = (int)(y1 / HGT_NOWALK);

  0019b	0f 28 c5	 movaps	 xmm0, xmm5
  0019e	f3 0f 5e c1	 divss	 xmm0, xmm1
  001a2	f3 0f 2c c0	 cvttss2si eax, xmm0
  001a6	66 0f 6e c0	 movd	 xmm0, eax

; 1011 : 		y1 -= (float)(HGT_NOWALK * n);

  001aa	0f 5b c0	 cvtdq2ps xmm0, xmm0
  001ad	f3 0f 59 c1	 mulss	 xmm0, xmm1
  001b1	f3 0f 5c e8	 subss	 xmm5, xmm0
$LN4@GetLandHei:

; 1012 : 	}
; 1013 : 	if( y2 >= HGT_NOWALK )		// 1000ŔĚ»ó °ŞŔĚ¸é ±×ŔĚ»ó°ŞŔ» Ŕß¶óąö¸°´Ů.

  001b5	0f 2f d1	 comiss	 xmm2, xmm1
  001b8	72 1a		 jb	 SHORT $LN5@GetLandHei

; 1014 : 	{
; 1015 : 		int n = (int)(y2 / HGT_NOWALK);

  001ba	0f 28 c2	 movaps	 xmm0, xmm2
  001bd	f3 0f 5e c1	 divss	 xmm0, xmm1
  001c1	f3 0f 2c c0	 cvttss2si eax, xmm0
  001c5	66 0f 6e c0	 movd	 xmm0, eax

; 1016 : 		y2 -= (float)(HGT_NOWALK * n);

  001c9	0f 5b c0	 cvtdq2ps xmm0, xmm0
  001cc	f3 0f 59 c1	 mulss	 xmm0, xmm1
  001d0	f3 0f 5c d0	 subss	 xmm2, xmm0
$LN5@GetLandHei:

; 1017 : 	}
; 1018 : 	if( y3 >= HGT_NOWALK )		// 1000ŔĚ»ó °ŞŔĚ¸é ±×ŔĚ»ó°ŞŔ» Ŕß¶óąö¸°´Ů.

  001d4	0f 2f e1	 comiss	 xmm4, xmm1
  001d7	72 1a		 jb	 SHORT $LN6@GetLandHei

; 1019 : 	{
; 1020 : 		int n = (int)(y3 / HGT_NOWALK);

  001d9	0f 28 c4	 movaps	 xmm0, xmm4
  001dc	f3 0f 5e c1	 divss	 xmm0, xmm1
  001e0	f3 0f 2c c0	 cvttss2si eax, xmm0
  001e4	66 0f 6e c0	 movd	 xmm0, eax

; 1021 : 		y3 -= (float)(HGT_NOWALK * n);

  001e8	0f 5b c0	 cvtdq2ps xmm0, xmm0
  001eb	f3 0f 59 c1	 mulss	 xmm0, xmm1
  001ef	f3 0f 5c e0	 subss	 xmm4, xmm0
$LN6@GetLandHei:

; 1022 : 	}
; 1023 : 	if( y4 >= HGT_NOWALK )		// 1000ŔĚ»ó °ŞŔĚ¸é ±×ŔĚ»ó°ŞŔ» Ŕß¶óąö¸°´Ů.

  001f3	0f 2f d9	 comiss	 xmm3, xmm1
  001f6	72 1a		 jb	 SHORT $LN7@GetLandHei

; 1024 : 	{
; 1025 : 		int n = (int)(y4 / HGT_NOWALK);

  001f8	0f 28 c3	 movaps	 xmm0, xmm3
  001fb	f3 0f 5e c1	 divss	 xmm0, xmm1
  001ff	f3 0f 2c c0	 cvttss2si eax, xmm0
  00203	66 0f 6e c0	 movd	 xmm0, eax

; 1026 : 		y4 -= (float)(HGT_NOWALK * n);

  00207	0f 5b c0	 cvtdq2ps xmm0, xmm0
  0020a	f3 0f 59 c1	 mulss	 xmm0, xmm1
  0020e	f3 0f 5c d8	 subss	 xmm3, xmm0
$LN7@GetLandHei:

; 1027 : 	}
; 1028 : 	dy1 = y1 * ( 1 - dx ) * ( 1 - dz );

  00212	f3 0f 10 3d 00
	00 00 00	 movss	 xmm7, DWORD PTR __real@3f800000
  0021a	0f 28 cf	 movaps	 xmm1, xmm7

; 1029 : 	dy2 = y2 * dx * ( 1 - dz );

  0021d	f3 0f 59 d6	 mulss	 xmm2, xmm6
  00221	5e		 pop	 esi
  00222	f3 0f 5c 7d 0c	 subss	 xmm7, DWORD PTR _dz$1$[ebp]
  00227	f3 0f 5c ce	 subss	 xmm1, xmm6

; 1030 : 	dy3 = y3 * ( 1 - dx ) * dz;
; 1031 : 	dy4 = y4 * dx * dz;

  0022b	f3 0f 59 de	 mulss	 xmm3, xmm6
  0022f	f3 0f 59 5d 0c	 mulss	 xmm3, DWORD PTR _dz$1$[ebp]
  00234	0f 28 c1	 movaps	 xmm0, xmm1
  00237	f3 0f 59 d7	 mulss	 xmm2, xmm7
  0023b	f3 0f 59 c5	 mulss	 xmm0, xmm5
  0023f	f3 0f 59 cc	 mulss	 xmm1, xmm4
  00243	f3 0f 59 c7	 mulss	 xmm0, xmm7
  00247	f3 0f 59 4d 0c	 mulss	 xmm1, DWORD PTR _dz$1$[ebp]

; 1032 : 	return dy1 + dy2 + dy3 + dy4;	

  0024c	f3 0f 58 d0	 addss	 xmm2, xmm0
  00250	f3 0f 58 d1	 addss	 xmm2, xmm1
  00254	f3 0f 58 d3	 addss	 xmm2, xmm3
  00258	f3 0f 11 55 08	 movss	 DWORD PTR tv466[ebp], xmm2
  0025d	d9 45 08	 fld	 DWORD PTR tv466[ebp]

; 1033 : #else
; 1034 : 	float rX = x;
; 1035 : 	float rZ = z;
; 1036 : 	int mX = int( rX / MAP_SIZE );
; 1037 : 	int mZ = int( rZ / MAP_SIZE );
; 1038 : 	CLandscape* pLand = m_apLand[ mX + mZ * m_nLandWidth ];
; 1039 : 	if( pLand == NULL ) 
; 1040 : 		return 0;
; 1041 : 
; 1042 : 	return pLand->GetHeight( x - ( mX * MAP_SIZE ), z - ( mZ * MAP_SIZE ) );
; 1043 : #endif
; 1044 : }

  00260	8b e5		 mov	 esp, ebp
  00262	5d		 pop	 ebp
  00263	c2 08 00	 ret	 8
$LN17@GetLandHei:

; 984  : 	float _x = x, _z = z;
; 985  : 
; 986  : 	if( VecInWorld( x, z ) == FALSE )
; 987  : 		return 0;

  00266	d9 ee		 fldz
  00268	5e		 pop	 esi

; 1033 : #else
; 1034 : 	float rX = x;
; 1035 : 	float rZ = z;
; 1036 : 	int mX = int( rX / MAP_SIZE );
; 1037 : 	int mZ = int( rZ / MAP_SIZE );
; 1038 : 	CLandscape* pLand = m_apLand[ mX + mZ * m_nLandWidth ];
; 1039 : 	if( pLand == NULL ) 
; 1040 : 		return 0;
; 1041 : 
; 1042 : 	return pLand->GetHeight( x - ( mX * MAP_SIZE ), z - ( mZ * MAP_SIZE ) );
; 1043 : #endif
; 1044 : }

  00269	8b e5		 mov	 esp, ebp
  0026b	5d		 pop	 ebp
  0026c	c2 08 00	 ret	 8
?GetLandHeight@CWorld@@QAEMMM@Z ENDP			; CWorld::GetLandHeight
_TEXT	ENDS
; Function compile flags: /Ogtp
; File C:\IAGOS\server\v18\Source\Source\_Common\World.cpp
;	COMDAT ?SetObjInLinkMap@CWorld@@QAEHABUD3DXVECTOR3@@KHPAVCObj@@H@Z
_TEXT	SEGMENT
_vPos$ = 8						; size = 4
_dwLinkType$ = 12					; size = 4
_nLinkLevel$ = 16					; size = 4
_pObj$ = 20						; size = 4
_nLayer$ = 24						; size = 4
?SetObjInLinkMap@CWorld@@QAEHABUD3DXVECTOR3@@KHPAVCObj@@H@Z PROC ; CWorld::SetObjInLinkMap, COMDAT
; _this$ = ecx

; 724  : {

  00000	55		 push	 ebp
  00001	8b ec		 mov	 ebp, esp
  00003	56		 push	 esi

; 725  : 	if( VecInWorld( vPos ) == FALSE )

  00004	ff 75 08	 push	 DWORD PTR _vPos$[ebp]
  00007	8b f1		 mov	 esi, ecx
  00009	e8 00 00 00 00	 call	 ?VecInWorld@CWorld@@QAEHABUD3DXVECTOR3@@@Z ; CWorld::VecInWorld
  0000e	85 c0		 test	 eax, eax
  00010	75 05		 jne	 SHORT $LN2@SetObjInLi
  00012	5e		 pop	 esi

; 730  : 	#else	// __LAYER_1015
; 731  : 	return m_linkMap.SetObjInLinkMap( vPos, dwLinkType, nLinkLevel, pObj );
; 732  : 	#endif	// __LAYER_1015
; 733  : #else	// __WORLDSERVER
; 734  : 	FLOAT rX = vPos.x / MPU;
; 735  : 	FLOAT rZ = vPos.z / MPU;
; 736  : 	int mX	= int( rX / MAP_SIZE );
; 737  : 	int mZ	= int( rZ / MAP_SIZE );
; 738  : 	CLandscape* pLandscape	= m_apLand[mX + mZ * m_nLandWidth];
; 739  : 	if( NULL != pLandscape ) {
; 740  : 		pLandscape->SetObjInLinkMap( vPos, dwLinkType, nLinkLevel, pObj );	//m_aObjLinkMap[mX_ + mZ_ * MAP_SIZE]	= pObj;
; 741  : 	}
; 742  : 	/*
; 743  : 	else {
; 744  : 		char szMessage[260]	= { 0, };
; 745  : 		sprintf( szMessage, "SOILM error with landscape unloaded - g_pPlayer = %f, %f\t//pObj = %f, %f",
; 746  : 			g_pPlayer->GetPos().x, g_pPlayer->GetPos().z, vPos.x, vPos.z );
; 747  : 		DEBUGOUT2( szMessage );
; 748  : 	}
; 749  : 	*/
; 750  : #endif	// __WORLDSERVER
; 751  : 	return TRUE;
; 752  : } 

  00013	5d		 pop	 ebp
  00014	c2 14 00	 ret	 20			; 00000014H
$LN2@SetObjInLi:

; 726  : 		return FALSE;
; 727  : #ifdef __WORLDSERVER
; 728  : 	#ifdef __LAYER_1015
; 729  : 	return m_linkMap.SetObjInLinkMap( vPos, dwLinkType, nLinkLevel, pObj, nLayer );

  00017	ff 75 18	 push	 DWORD PTR _nLayer$[ebp]
  0001a	8d 4e 24	 lea	 ecx, DWORD PTR [esi+36]
  0001d	ff 75 14	 push	 DWORD PTR _pObj$[ebp]
  00020	ff 75 10	 push	 DWORD PTR _nLinkLevel$[ebp]
  00023	ff 75 0c	 push	 DWORD PTR _dwLinkType$[ebp]
  00026	ff 75 08	 push	 DWORD PTR _vPos$[ebp]
  00029	e8 00 00 00 00	 call	 ?SetObjInLinkMap@CLayeredLinkMap@@QAEHABUD3DXVECTOR3@@KHPAVCObj@@H@Z ; CLayeredLinkMap::SetObjInLinkMap
  0002e	5e		 pop	 esi

; 730  : 	#else	// __LAYER_1015
; 731  : 	return m_linkMap.SetObjInLinkMap( vPos, dwLinkType, nLinkLevel, pObj );
; 732  : 	#endif	// __LAYER_1015
; 733  : #else	// __WORLDSERVER
; 734  : 	FLOAT rX = vPos.x / MPU;
; 735  : 	FLOAT rZ = vPos.z / MPU;
; 736  : 	int mX	= int( rX / MAP_SIZE );
; 737  : 	int mZ	= int( rZ / MAP_SIZE );
; 738  : 	CLandscape* pLandscape	= m_apLand[mX + mZ * m_nLandWidth];
; 739  : 	if( NULL != pLandscape ) {
; 740  : 		pLandscape->SetObjInLinkMap( vPos, dwLinkType, nLinkLevel, pObj );	//m_aObjLinkMap[mX_ + mZ_ * MAP_SIZE]	= pObj;
; 741  : 	}
; 742  : 	/*
; 743  : 	else {
; 744  : 		char szMessage[260]	= { 0, };
; 745  : 		sprintf( szMessage, "SOILM error with landscape unloaded - g_pPlayer = %f, %f\t//pObj = %f, %f",
; 746  : 			g_pPlayer->GetPos().x, g_pPlayer->GetPos().z, vPos.x, vPos.z );
; 747  : 		DEBUGOUT2( szMessage );
; 748  : 	}
; 749  : 	*/
; 750  : #endif	// __WORLDSERVER
; 751  : 	return TRUE;
; 752  : } 

  0002f	5d		 pop	 ebp
  00030	c2 14 00	 ret	 20			; 00000014H
?SetObjInLinkMap@CWorld@@QAEHABUD3DXVECTOR3@@KHPAVCObj@@H@Z ENDP ; CWorld::SetObjInLinkMap
_TEXT	ENDS
; Function compile flags: /Ogtp
; File C:\IAGOS\server\v18\Source\Source\_Common\World.cpp
;	COMDAT ?GetObjInLinkMap@CWorld@@QAEPAVCObj@@ABUD3DXVECTOR3@@KHH@Z
_TEXT	SEGMENT
_vPos$ = 8						; size = 4
_dwLinkType$ = 12					; size = 4
_nLinkLevel$ = 16					; size = 4
_nLayer$ = 20						; size = 4
?GetObjInLinkMap@CWorld@@QAEPAVCObj@@ABUD3DXVECTOR3@@KHH@Z PROC ; CWorld::GetObjInLinkMap, COMDAT
; _this$ = ecx

; 689  : {

  00000	55		 push	 ebp
  00001	8b ec		 mov	 ebp, esp
  00003	56		 push	 esi

; 690  : 	if( VecInWorld( vPos ) == FALSE )

  00004	ff 75 08	 push	 DWORD PTR _vPos$[ebp]
  00007	8b f1		 mov	 esi, ecx
  00009	e8 00 00 00 00	 call	 ?VecInWorld@CWorld@@QAEHABUD3DXVECTOR3@@@Z ; CWorld::VecInWorld
  0000e	85 c0		 test	 eax, eax
  00010	75 05		 jne	 SHORT $LN2@GetObjInLi
  00012	5e		 pop	 esi

; 695  : 	#else	// __LAYER_1015
; 696  : 	return m_linkMap.GetObjInLinkMap( vPos, dwLinkType, nLinkLevel );
; 697  : 	#endif	// __LAYER_1015
; 698  : #else	// __WORLDSERVER
; 699  : 	FLOAT rX = vPos.x / MPU;
; 700  : 	FLOAT rZ = vPos.z / MPU;
; 701  : 	int	mX	= int( rX / MAP_SIZE );
; 702  : 	int	mZ	= int( rZ / MAP_SIZE );
; 703  : 	CLandscape* pLandscape	= m_apLand[mX + mZ * m_nLandWidth];
; 704  : 	if( NULL != pLandscape ) {
; 705  : 		return pLandscape->GetObjInLinkMap( vPos, dwLinkType, nLinkLevel );
; 706  : 	}
; 707  : 	/*
; 708  : 	else {
; 709  : 		char szMessage[260]	= { 0, };
; 710  : 		sprintf( szMessage, "GOILM error with landscape unloaded - g_pPlayer = %f, %f\t//pObj = %f, %f",
; 711  : 			g_pPlayer->GetPos().x, g_pPlayer->GetPos().z, vPos.x, vPos.z );
; 712  : 		DEBUGOUT2( szMessage );
; 713  : 	}
; 714  : 	*/
; 715  : 	return NULL;
; 716  : #endif	// __WORLDSERVER
; 717  : }

  00013	5d		 pop	 ebp
  00014	c2 10 00	 ret	 16			; 00000010H
$LN2@GetObjInLi:

; 691  : 		return NULL;
; 692  : #ifdef __WORLDSERVER
; 693  : 	#ifdef __LAYER_1015
; 694  : 	return m_linkMap.GetObjInLinkMap( vPos, dwLinkType, nLinkLevel, nLayer );

  00017	ff 75 14	 push	 DWORD PTR _nLayer$[ebp]
  0001a	8d 4e 24	 lea	 ecx, DWORD PTR [esi+36]
  0001d	ff 75 10	 push	 DWORD PTR _nLinkLevel$[ebp]
  00020	ff 75 0c	 push	 DWORD PTR _dwLinkType$[ebp]
  00023	ff 75 08	 push	 DWORD PTR _vPos$[ebp]
  00026	e8 00 00 00 00	 call	 ?GetObjInLinkMap@CLayeredLinkMap@@QAEPAVCObj@@ABUD3DXVECTOR3@@KHH@Z ; CLayeredLinkMap::GetObjInLinkMap
  0002b	5e		 pop	 esi

; 695  : 	#else	// __LAYER_1015
; 696  : 	return m_linkMap.GetObjInLinkMap( vPos, dwLinkType, nLinkLevel );
; 697  : 	#endif	// __LAYER_1015
; 698  : #else	// __WORLDSERVER
; 699  : 	FLOAT rX = vPos.x / MPU;
; 700  : 	FLOAT rZ = vPos.z / MPU;
; 701  : 	int	mX	= int( rX / MAP_SIZE );
; 702  : 	int	mZ	= int( rZ / MAP_SIZE );
; 703  : 	CLandscape* pLandscape	= m_apLand[mX + mZ * m_nLandWidth];
; 704  : 	if( NULL != pLandscape ) {
; 705  : 		return pLandscape->GetObjInLinkMap( vPos, dwLinkType, nLinkLevel );
; 706  : 	}
; 707  : 	/*
; 708  : 	else {
; 709  : 		char szMessage[260]	= { 0, };
; 710  : 		sprintf( szMessage, "GOILM error with landscape unloaded - g_pPlayer = %f, %f\t//pObj = %f, %f",
; 711  : 			g_pPlayer->GetPos().x, g_pPlayer->GetPos().z, vPos.x, vPos.z );
; 712  : 		DEBUGOUT2( szMessage );
; 713  : 	}
; 714  : 	*/
; 715  : 	return NULL;
; 716  : #endif	// __WORLDSERVER
; 717  : }

  0002c	5d		 pop	 ebp
  0002d	c2 10 00	 ret	 16			; 00000010H
?GetObjInLinkMap@CWorld@@QAEPAVCObj@@ABUD3DXVECTOR3@@KHH@Z ENDP ; CWorld::GetObjInLinkMap
_TEXT	ENDS
; Function compile flags: /Ogtp
; File C:\IAGOS\server\v18\Source\Source\_Common\World.cpp
;	COMDAT ?RemoveObjLink2@CWorld@@QAEHPAVCObj@@@Z
_TEXT	SEGMENT
_pObj$ = 8						; size = 4
?RemoveObjLink2@CWorld@@QAEHPAVCObj@@@Z PROC		; CWorld::RemoveObjLink2, COMDAT
; _this$ = ecx

; 643  : {

  00000	55		 push	 ebp
  00001	8b ec		 mov	 ebp, esp

; 644  : #ifdef __WORLDSERVER
; 645  : 	return m_linkMap.RemoveObjLink2( pObj );

  00003	83 c1 24	 add	 ecx, 36			; 00000024H

; 646  : #else
; 647  : 	return TRUE;
; 648  : #endif
; 649  : }

  00006	5d		 pop	 ebp

; 644  : #ifdef __WORLDSERVER
; 645  : 	return m_linkMap.RemoveObjLink2( pObj );

  00007	e9 00 00 00 00	 jmp	 ?RemoveObjLink2@CLayeredLinkMap@@QAEHPAVCObj@@@Z ; CLayeredLinkMap::RemoveObjLink2
?RemoveObjLink2@CWorld@@QAEHPAVCObj@@@Z ENDP		; CWorld::RemoveObjLink2
_TEXT	ENDS
; Function compile flags: /Ogtp
; File C:\IAGOS\server\v18\Source\Source\_Common\World.cpp
; File C:\IAGOS\server\v18\Source\Source\_Common\Obj.h
; File C:\IAGOS\server\v18\Source\Source\_Common\World.cpp
; File C:\IAGOS\server\v18\Source\Source\_Common\Obj.h
; File C:\IAGOS\server\v18\Source\Source\_Common\World.cpp
; File C:\IAGOS\server\v18\Source\Source\_Common\Obj.h
; File C:\IAGOS\server\v18\Source\Source\_Common\World.cpp
; File C:\IAGOS\server\v18\Source\Source\_Common\Obj.h
; File C:\IAGOS\server\v18\Source\Source\_Common\World.cpp
; File C:\IAGOS\server\v18\Source\Source\_Common\Obj.h
; File C:\IAGOS\server\v18\Source\Source\_Common\World.cpp
; File C:\IAGOS\server\v18\Source\Source\_Common\Obj.h
; File C:\IAGOS\server\v18\Source\Source\_Common\World.cpp
;	COMDAT ?RemoveObjLink@CWorld@@QAEHPAVCObj@@@Z
_TEXT	SEGMENT
$T1 = -48						; size = 12
$T2 = -36						; size = 12
$T3 = -24						; size = 12
_vPos$ = -12						; size = 12
_pObj$ = 8						; size = 4
?RemoveObjLink@CWorld@@QAEHPAVCObj@@@Z PROC		; CWorld::RemoveObjLink, COMDAT
; _this$ = ecx

; 652  : {

  00000	55		 push	 ebp
  00001	8b ec		 mov	 ebp, esp
  00003	83 ec 30	 sub	 esp, 48			; 00000030H
  00006	56		 push	 esi
; File C:\IAGOS\server\v18\Source\Source\_Common\Obj.h

; 238  : 	D3DXVECTOR3		GetLinkPos()							{	return m_vLink;	}

  00007	8b 75 08	 mov	 esi, DWORD PTR _pObj$[ebp]
; File C:\IAGOS\server\v18\Source\Source\_Common\World.cpp

; 652  : {

  0000a	57		 push	 edi
  0000b	8b f9		 mov	 edi, ecx
; File C:\IAGOS\server\v18\Source\Source\_Common\Obj.h

; 238  : 	D3DXVECTOR3		GetLinkPos()							{	return m_vLink;	}

  0000d	8b 86 b4 01 00
	00		 mov	 eax, DWORD PTR [esi+436]
  00013	f3 0f 7e 86 ac
	01 00 00	 movq	 xmm0, QWORD PTR [esi+428]
  0001b	89 45 fc	 mov	 DWORD PTR _vPos$[ebp+8], eax
; File C:\IAGOS\server\v18\Source\Source\_Common\World.cpp

; 654  : 	if( VecInWorld( vPos ) == FALSE )

  0001e	8d 45 f4	 lea	 eax, DWORD PTR _vPos$[ebp]
  00021	50		 push	 eax
; File C:\IAGOS\server\v18\Source\Source\_Common\Obj.h

; 238  : 	D3DXVECTOR3		GetLinkPos()							{	return m_vLink;	}

  00022	66 0f d6 45 f4	 movq	 QWORD PTR _vPos$[ebp], xmm0
; File C:\IAGOS\server\v18\Source\Source\_Common\World.cpp

; 654  : 	if( VecInWorld( vPos ) == FALSE )

  00027	e8 00 00 00 00	 call	 ?VecInWorld@CWorld@@QAEHABUD3DXVECTOR3@@@Z ; CWorld::VecInWorld
  0002c	85 c0		 test	 eax, eax
  0002e	0f 85 a5 00 00
	00		 jne	 $LN2@RemoveObjL
; File C:\IAGOS\server\v18\Source\Source\_Common\Obj.h

; 215  : 	D3DXVECTOR3		GetPos()	{ return m_vPos; }

  00034	f3 0f 7e 86 60
	01 00 00	 movq	 xmm0, QWORD PTR [esi+352]
; File C:\IAGOS\server\v18\Source\Source\_Common\World.cpp

; 656  : 		WriteError( "ROL//INVALID POS//%d, %d, %f, %f, %f, %f, %f, %f", 

  0003c	83 ec 30	 sub	 esp, 48			; 00000030H
; File C:\IAGOS\server\v18\Source\Source\_Common\Obj.h

; 215  : 	D3DXVECTOR3		GetPos()	{ return m_vPos; }

  0003f	66 0f d6 45 e8	 movq	 QWORD PTR $T3[ebp], xmm0
  00044	f3 0f 7e c0	 movq	 xmm0, xmm0
  00048	66 0f d6 45 dc	 movq	 QWORD PTR $T2[ebp], xmm0
  0004d	f3 0f 7e 86 60
	01 00 00	 movq	 xmm0, QWORD PTR [esi+352]
  00055	66 0f d6 45 d0	 movq	 QWORD PTR $T1[ebp], xmm0
  0005a	f3 0f 10 45 fc	 movss	 xmm0, DWORD PTR _vPos$[ebp+8]
; File C:\IAGOS\server\v18\Source\Source\_Common\World.cpp

; 656  : 		WriteError( "ROL//INVALID POS//%d, %d, %f, %f, %f, %f, %f, %f", 

  0005f	0f 5a c0	 cvtps2pd xmm0, xmm0
; File C:\IAGOS\server\v18\Source\Source\_Common\Obj.h

; 215  : 	D3DXVECTOR3		GetPos()	{ return m_vPos; }

  00062	8b 86 68 01 00
	00		 mov	 eax, DWORD PTR [esi+360]
  00068	89 45 f0	 mov	 DWORD PTR $T3[ebp+8], eax
; File C:\IAGOS\server\v18\Source\Source\_Common\World.cpp

; 656  : 		WriteError( "ROL//INVALID POS//%d, %d, %f, %f, %f, %f, %f, %f", 

  0006b	f2 0f 11 44 24
	28		 movsd	 QWORD PTR [esp+40], xmm0
  00071	f3 0f 10 45 f8	 movss	 xmm0, DWORD PTR _vPos$[ebp+4]
  00076	0f 5a c0	 cvtps2pd xmm0, xmm0
  00079	f2 0f 11 44 24
	20		 movsd	 QWORD PTR [esp+32], xmm0
  0007f	f3 0f 10 45 f4	 movss	 xmm0, DWORD PTR _vPos$[ebp]
  00084	0f 5a c0	 cvtps2pd xmm0, xmm0
  00087	f2 0f 11 44 24
	18		 movsd	 QWORD PTR [esp+24], xmm0
  0008d	f3 0f 10 45 f0	 movss	 xmm0, DWORD PTR $T3[ebp+8]
  00092	0f 5a c0	 cvtps2pd xmm0, xmm0
  00095	f2 0f 11 44 24
	10		 movsd	 QWORD PTR [esp+16], xmm0
  0009b	f3 0f 10 45 e0	 movss	 xmm0, DWORD PTR $T2[ebp+4]
  000a0	0f 5a c0	 cvtps2pd xmm0, xmm0
  000a3	f2 0f 11 44 24
	08		 movsd	 QWORD PTR [esp+8], xmm0
  000a9	f3 0f 10 45 d0	 movss	 xmm0, DWORD PTR $T1[ebp]
  000ae	0f 5a c0	 cvtps2pd xmm0, xmm0
  000b1	f2 0f 11 04 24	 movsd	 QWORD PTR [esp], xmm0
  000b6	ff b6 74 01 00
	00		 push	 DWORD PTR [esi+372]
  000bc	ff b6 70 01 00
	00		 push	 DWORD PTR [esi+368]
  000c2	68 00 00 00 00	 push	 OFFSET ??_C@_0DB@CFEPIBL@ROL?1?1INVALID?5POS?1?1?$CFd?0?5?$CFd?0?5?$CFf?0?5?$CF@
  000c7	e8 00 00 00 00	 call	 ?WriteError@@YAXPBDZZ	; WriteError
  000cc	83 c4 3c	 add	 esp, 60			; 0000003cH

; 657  : 			pObj->GetType(), pObj->GetIndex(), pObj->GetPos().x, pObj->GetPos().y, pObj->GetPos().z, vPos.x, vPos.y, vPos.z );
; 658  : 		return FALSE;

  000cf	33 c0		 xor	 eax, eax
  000d1	5f		 pop	 edi

; 662  : #else	// __WORLDSERVER
; 663  : 	FLOAT rX = vPos.x / MPU;	
; 664  : 	FLOAT rZ = vPos.z / MPU;	
; 665  : 	int   mX = int( rX / MAP_SIZE );
; 666  : 	int   mZ = int( rZ / MAP_SIZE );
; 667  : 
; 668  : 	CLandscape* pLandscape	= m_apLand[mX + mZ * m_nLandWidth];
; 669  : 	if( NULL != pLandscape ) {
; 670  : 		return pLandscape->RemoveObjLink( pObj );
; 671  : 	}
; 672  : 	/*
; 673  : 	else {
; 674  : 		char szMessage[260]	= { 0, };
; 675  : 		sprintf( szMessage, "ROL error with landscape unloaded - g_pPlayer = %f, %f\t//pObj = %f, %f",
; 676  : 			g_pPlayer->GetPos().x, g_pPlayer->GetPos().z, pObj->GetPos().x, pObj->GetPos().z );
; 677  : 		DEBUGOUT2( szMessage );
; 678  : 	}
; 679  : 	*/
; 680  : 	return FALSE;
; 681  : #endif	// __WORLDSERVER
; 682  : }

  000d2	5e		 pop	 esi
  000d3	8b e5		 mov	 esp, ebp
  000d5	5d		 pop	 ebp
  000d6	c2 04 00	 ret	 4
$LN2@RemoveObjL:

; 659  : 	}
; 660  : #ifdef __WORLDSERVER
; 661  : 	return m_linkMap.RemoveObjLink( pObj );

  000d9	56		 push	 esi
  000da	8d 4f 24	 lea	 ecx, DWORD PTR [edi+36]
  000dd	e8 00 00 00 00	 call	 ?RemoveObjLink@CLayeredLinkMap@@QAEHPAVCObj@@@Z ; CLayeredLinkMap::RemoveObjLink
  000e2	5f		 pop	 edi

; 662  : #else	// __WORLDSERVER
; 663  : 	FLOAT rX = vPos.x / MPU;	
; 664  : 	FLOAT rZ = vPos.z / MPU;	
; 665  : 	int   mX = int( rX / MAP_SIZE );
; 666  : 	int   mZ = int( rZ / MAP_SIZE );
; 667  : 
; 668  : 	CLandscape* pLandscape	= m_apLand[mX + mZ * m_nLandWidth];
; 669  : 	if( NULL != pLandscape ) {
; 670  : 		return pLandscape->RemoveObjLink( pObj );
; 671  : 	}
; 672  : 	/*
; 673  : 	else {
; 674  : 		char szMessage[260]	= { 0, };
; 675  : 		sprintf( szMessage, "ROL error with landscape unloaded - g_pPlayer = %f, %f\t//pObj = %f, %f",
; 676  : 			g_pPlayer->GetPos().x, g_pPlayer->GetPos().z, pObj->GetPos().x, pObj->GetPos().z );
; 677  : 		DEBUGOUT2( szMessage );
; 678  : 	}
; 679  : 	*/
; 680  : 	return FALSE;
; 681  : #endif	// __WORLDSERVER
; 682  : }

  000e3	5e		 pop	 esi
  000e4	8b e5		 mov	 esp, ebp
  000e6	5d		 pop	 ebp
  000e7	c2 04 00	 ret	 4
?RemoveObjLink@CWorld@@QAEHPAVCObj@@@Z ENDP		; CWorld::RemoveObjLink
_TEXT	ENDS
; Function compile flags: /Ogtp
; File C:\IAGOS\server\v18\Source\Source\_Common\World.cpp
; File C:\IAGOS\server\v18\Source\Source\_Common\Obj.h
; File C:\IAGOS\server\v18\Source\Source\_Common\World.cpp
; File C:\IAGOS\server\v18\Source\Source\_Common\Obj.h
; File C:\IAGOS\server\v18\Source\Source\_Common\World.cpp
; File C:\IAGOS\server\v18\Source\Source\_Common\Obj.h
; File C:\IAGOS\server\v18\Source\Source\_Common\World.cpp
;	COMDAT ?InsertObjLink@CWorld@@QAEHPAVCObj@@@Z
_TEXT	SEGMENT
_vPos$ = -12						; size = 12
_pObj$ = 8						; size = 4
?InsertObjLink@CWorld@@QAEHPAVCObj@@@Z PROC		; CWorld::InsertObjLink, COMDAT
; _this$ = ecx

; 611  : {

  00000	55		 push	 ebp
  00001	8b ec		 mov	 ebp, esp
  00003	83 ec 0c	 sub	 esp, 12			; 0000000cH
  00006	56		 push	 esi
; File C:\IAGOS\server\v18\Source\Source\_Common\Obj.h

; 238  : 	D3DXVECTOR3		GetLinkPos()							{	return m_vLink;	}

  00007	8b 75 08	 mov	 esi, DWORD PTR _pObj$[ebp]
; File C:\IAGOS\server\v18\Source\Source\_Common\World.cpp

; 611  : {

  0000a	57		 push	 edi
  0000b	8b f9		 mov	 edi, ecx
; File C:\IAGOS\server\v18\Source\Source\_Common\Obj.h

; 238  : 	D3DXVECTOR3		GetLinkPos()							{	return m_vLink;	}

  0000d	8b 86 b4 01 00
	00		 mov	 eax, DWORD PTR [esi+436]
  00013	f3 0f 7e 86 ac
	01 00 00	 movq	 xmm0, QWORD PTR [esi+428]
  0001b	89 45 fc	 mov	 DWORD PTR _vPos$[ebp+8], eax
; File C:\IAGOS\server\v18\Source\Source\_Common\World.cpp

; 613  : 	if( VecInWorld( vPos ) == FALSE )

  0001e	8d 45 f4	 lea	 eax, DWORD PTR _vPos$[ebp]
  00021	50		 push	 eax
; File C:\IAGOS\server\v18\Source\Source\_Common\Obj.h

; 238  : 	D3DXVECTOR3		GetLinkPos()							{	return m_vLink;	}

  00022	66 0f d6 45 f4	 movq	 QWORD PTR _vPos$[ebp], xmm0
; File C:\IAGOS\server\v18\Source\Source\_Common\World.cpp

; 613  : 	if( VecInWorld( vPos ) == FALSE )

  00027	e8 00 00 00 00	 call	 ?VecInWorld@CWorld@@QAEHABUD3DXVECTOR3@@@Z ; CWorld::VecInWorld
  0002c	85 c0		 test	 eax, eax
  0002e	75 08		 jne	 SHORT $LN2@InsertObjL

; 618  : #else	// __WORLDSERVER
; 619  : 	FLOAT rX	= vPos.x / MPU;	// - m_nWorldX;
; 620  : 	FLOAT rZ	= vPos.z / MPU;	// - m_nWorldY;
; 621  : 	int mX	= int( rX / MAP_SIZE );
; 622  : 	int mZ	= int( rZ / MAP_SIZE );
; 623  : 
; 624  : 	CLandscape* pLandscape	= m_apLand[mX + mZ * m_nLandWidth];
; 625  : 	if( NULL != pLandscape ) 
; 626  : 	{
; 627  : 		return pLandscape->InsertObjLink( pObj );
; 628  : 	}
; 629  : 	/*
; 630  : 	else 
; 631  : 	{
; 632  : 		char szMessage[260]	= { 0, };
; 633  : 		sprintf( szMessage, "IOL error with landscape unloaded - g_pPlayer = %f, %f\t//pObj = %f, %f",
; 634  : 			g_pPlayer->GetPos().x, g_pPlayer->GetPos().z, pObj->GetPos().x, pObj->GetPos().z );
; 635  : 		DEBUGOUT2( szMessage );
; 636  : 	}
; 637  : 	*/
; 638  : 	return FALSE;
; 639  : #endif	// __WORLDSERVER
; 640  : }

  00030	5f		 pop	 edi
  00031	5e		 pop	 esi
  00032	8b e5		 mov	 esp, ebp
  00034	5d		 pop	 ebp
  00035	c2 04 00	 ret	 4
$LN2@InsertObjL:

; 614  : 		return FALSE;
; 615  : 
; 616  : #ifdef __WORLDSERVER
; 617  : 	return m_linkMap.InsertObjLink( pObj );

  00038	56		 push	 esi
  00039	8d 4f 24	 lea	 ecx, DWORD PTR [edi+36]
  0003c	e8 00 00 00 00	 call	 ?InsertObjLink@CLayeredLinkMap@@QAEHPAVCObj@@@Z ; CLayeredLinkMap::InsertObjLink
  00041	5f		 pop	 edi

; 618  : #else	// __WORLDSERVER
; 619  : 	FLOAT rX	= vPos.x / MPU;	// - m_nWorldX;
; 620  : 	FLOAT rZ	= vPos.z / MPU;	// - m_nWorldY;
; 621  : 	int mX	= int( rX / MAP_SIZE );
; 622  : 	int mZ	= int( rZ / MAP_SIZE );
; 623  : 
; 624  : 	CLandscape* pLandscape	= m_apLand[mX + mZ * m_nLandWidth];
; 625  : 	if( NULL != pLandscape ) 
; 626  : 	{
; 627  : 		return pLandscape->InsertObjLink( pObj );
; 628  : 	}
; 629  : 	/*
; 630  : 	else 
; 631  : 	{
; 632  : 		char szMessage[260]	= { 0, };
; 633  : 		sprintf( szMessage, "IOL error with landscape unloaded - g_pPlayer = %f, %f\t//pObj = %f, %f",
; 634  : 			g_pPlayer->GetPos().x, g_pPlayer->GetPos().z, pObj->GetPos().x, pObj->GetPos().z );
; 635  : 		DEBUGOUT2( szMessage );
; 636  : 	}
; 637  : 	*/
; 638  : 	return FALSE;
; 639  : #endif	// __WORLDSERVER
; 640  : }

  00042	5e		 pop	 esi
  00043	8b e5		 mov	 esp, ebp
  00045	5d		 pop	 ebp
  00046	c2 04 00	 ret	 4
?InsertObjLink@CWorld@@QAEHPAVCObj@@@Z ENDP		; CWorld::InsertObjLink
_TEXT	ENDS
; Function compile flags: /Ogtp
; File C:\IAGOS\server\v18\Source\Source\_Common\World.cpp
; File C:\IAGOS\server\v18\Source\Source\_Common\data.h
; File C:\IAGOS\server\v18\Source\Source\_Common\World.cpp
; File C:\IAGOS\server\v18\Source\Source\_Common\data.h
; File C:\IAGOS\server\v18\Source\Source\_Common\World.cpp
; File C:\IAGOS\server\v18\Source\Source\_Common\data.h
; File C:\IAGOS\server\v18\Source\Source\_Common\World.cpp
;	COMDAT ?RemoveObjArray@CWorld@@QAEXPAVCObj@@@Z
_TEXT	SEGMENT
_pObj$ = 8						; size = 4
?RemoveObjArray@CWorld@@QAEXPAVCObj@@@Z PROC		; CWorld::RemoveObjArray, COMDAT
; _this$ = ecx

; 573  : {

  00000	55		 push	 ebp
  00001	8b ec		 mov	 ebp, esp
  00003	56		 push	 esi
  00004	57		 push	 edi

; 574  : #ifdef __WORLDSERVER
; 575  : 	if( pObj->m_dwObjAryIdx == 0xffffffff )

  00005	8b 7d 08	 mov	 edi, DWORD PTR _pObj$[ebp]
  00008	8b f1		 mov	 esi, ecx
  0000a	8b 8f 84 01 00
	00		 mov	 ecx, DWORD PTR [edi+388]
  00010	83 f9 ff	 cmp	 ecx, -1
  00013	75 13		 jne	 SHORT $LN2@RemoveObjA

; 576  : 	{
; 577  : 		WriteError( "RemoveObjArray  pObj->m_dwObjAryIdx == 0xffffffff " );

  00015	68 00 00 00 00	 push	 OFFSET ??_C@_0DD@JHPKICEK@RemoveObjArray?5?5pObj?9?$DOm_dwObjAr@
  0001a	e8 00 00 00 00	 call	 ?WriteError@@YAXPBDZZ	; WriteError
  0001f	83 c4 04	 add	 esp, 4
  00022	5f		 pop	 edi

; 591  : #else	// __WORLDSERVER
; 592  : 	CLandscape* pLandscape	= GetLandscape( pObj );
; 593  : 
; 594  : 	if( NULL != pLandscape ) 
; 595  : 	{
; 596  : 		pLandscape->RemoveObjArray( pObj );
; 597  : 	}
; 598  : 	/*
; 599  : 	else 
; 600  : 	{
; 601  : 		char szMessage[260]	= { 0, };
; 602  : 		sprintf( szMessage, "ROA error with landscape unloaded - g_pPlayer = %f, %f\t//pObj = %f, %f",
; 603  : 			g_pPlayer->GetPos().x, g_pPlayer->GetPos().z, pObj->GetPos().x, pObj->GetPos().z );
; 604  : 		DEBUGOUT2( szMessage );
; 605  : 	}
; 606  : 	*/
; 607  : #endif	// __WORLDSERVER
; 608  : }

  00023	5e		 pop	 esi
  00024	5d		 pop	 ebp
  00025	c2 04 00	 ret	 4
$LN2@RemoveObjA:

; 578  : 		return;
; 579  : 	}
; 580  : 
; 581  : 	if( m_apObject[pObj->m_dwObjAryIdx] == pObj )

  00028	39 7c 8e 44	 cmp	 DWORD PTR [esi+ecx*4+68], edi
  0002c	0f 85 c9 00 00
	00		 jne	 $LN3@RemoveObjA
; File C:\IAGOS\server\v18\Source\Source\_Common\data.h

; 50   : 	if( m_nTop >= m_nSize )

  00032	8b 96 ac 30 08
	00		 mov	 edx, DWORD PTR [esi+536748]
  00038	3b 96 a4 30 08
	00		 cmp	 edx, DWORD PTR [esi+536740]
  0003e	7c 2b		 jl	 SHORT $LN7@RemoveObjA

; 52   : 		WriteLog( "%s, %d", __FILE__, __LINE__ );

  00040	6a 34		 push	 52			; 00000034H
  00042	68 00 00 00 00	 push	 OFFSET ??_C@_0DB@ILBMOCBP@C?3?2IAGOS?2server?2v18?2Source?2Sour@
  00047	68 00 00 00 00	 push	 OFFSET ??_C@_06OJLEAOEG@?$CFs?0?5?$CFd@
  0004c	e8 00 00 00 00	 call	 ?WriteLog@@YAXPBDZZ	; WriteLog
; File C:\IAGOS\server\v18\Source\Source\_Common\World.cpp

; 584  : 		m_apObject[pObj->m_dwObjAryIdx]		= NULL;

  00051	8b 87 84 01 00
	00		 mov	 eax, DWORD PTR [edi+388]
; File C:\IAGOS\server\v18\Source\Source\_Common\data.h

; 52   : 		WriteLog( "%s, %d", __FILE__, __LINE__ );

  00057	83 c4 0c	 add	 esp, 12			; 0000000cH
; File C:\IAGOS\server\v18\Source\Source\_Common\World.cpp

; 584  : 		m_apObject[pObj->m_dwObjAryIdx]		= NULL;

  0005a	c7 44 86 44 00
	00 00 00	 mov	 DWORD PTR [esi+eax*4+68], 0

; 589  : 	}
; 590  : 	m_cbRunnableObject--;

  00062	ff 4e 18	 dec	 DWORD PTR [esi+24]
  00065	5f		 pop	 edi

; 591  : #else	// __WORLDSERVER
; 592  : 	CLandscape* pLandscape	= GetLandscape( pObj );
; 593  : 
; 594  : 	if( NULL != pLandscape ) 
; 595  : 	{
; 596  : 		pLandscape->RemoveObjArray( pObj );
; 597  : 	}
; 598  : 	/*
; 599  : 	else 
; 600  : 	{
; 601  : 		char szMessage[260]	= { 0, };
; 602  : 		sprintf( szMessage, "ROA error with landscape unloaded - g_pPlayer = %f, %f\t//pObj = %f, %f",
; 603  : 			g_pPlayer->GetPos().x, g_pPlayer->GetPos().z, pObj->GetPos().x, pObj->GetPos().z );
; 604  : 		DEBUGOUT2( szMessage );
; 605  : 	}
; 606  : 	*/
; 607  : #endif	// __WORLDSERVER
; 608  : }

  00066	5e		 pop	 esi
  00067	5d		 pop	 ebp
  00068	c2 04 00	 ret	 4
$LN7@RemoveObjA:
; File C:\IAGOS\server\v18\Source\Source\_Common\data.h

; 55   : 	m_pBlock[m_nTop++]	= data;

  0006b	8b 86 a0 30 08
	00		 mov	 eax, DWORD PTR [esi+536736]
  00071	89 0c 90	 mov	 DWORD PTR [eax+edx*4], ecx
  00074	ff 86 ac 30 08
	00		 inc	 DWORD PTR [esi+536748]

; 29   : 	BOOL	IsFull( void )	{ return ( m_nTop >= m_nSize ); }

  0007a	8b 8e a4 30 08
	00		 mov	 ecx, DWORD PTR [esi+536740]
  00080	39 8e ac 30 08
	00		 cmp	 DWORD PTR [esi+536748], ecx

; 57   : 	if( IsFull() && m_nGrowSize > 0 )

  00086	7c 5c		 jl	 SHORT $LN8@RemoveObjA
  00088	8b 86 a8 30 08
	00		 mov	 eax, DWORD PTR [esi+536744]
  0008e	85 c0		 test	 eax, eax
  00090	7e 52		 jle	 SHORT $LN8@RemoveObjA

; 60   : 		m_pBlock = new T[m_nSize + m_nGrowSize];

  00092	03 c1		 add	 eax, ecx
  00094	b9 04 00 00 00	 mov	 ecx, 4
  00099	f7 e1		 mul	 ecx
  0009b	b9 ff ff ff ff	 mov	 ecx, -1
  000a0	53		 push	 ebx

; 58   : 	{
; 59   : 		T* pOld	= m_pBlock;

  000a1	8b 9e a0 30 08
	00		 mov	 ebx, DWORD PTR [esi+536736]

; 60   : 		m_pBlock = new T[m_nSize + m_nGrowSize];

  000a7	0f 42 c1	 cmovb	 eax, ecx
  000aa	50		 push	 eax
  000ab	e8 00 00 00 00	 call	 ??_U@YAPAXI@Z		; operator new[]

; 61   : 		memcpy( m_pBlock, pOld, m_nTop * sizeof(T) );

  000b0	8b 8e ac 30 08
	00		 mov	 ecx, DWORD PTR [esi+536748]
  000b6	c1 e1 02	 shl	 ecx, 2
  000b9	51		 push	 ecx
  000ba	53		 push	 ebx
  000bb	50		 push	 eax
  000bc	89 86 a0 30 08
	00		 mov	 DWORD PTR [esi+536736], eax
  000c2	e8 00 00 00 00	 call	 _memcpy
  000c7	83 c4 10	 add	 esp, 16			; 00000010H

; 62   : 		SAFE_DELETE_ARRAY( pOld );

  000ca	85 db		 test	 ebx, ebx
  000cc	74 09		 je	 SHORT $LN9@RemoveObjA
  000ce	53		 push	 ebx
  000cf	e8 00 00 00 00	 call	 ??_V@YAXPAX@Z		; operator delete[]
  000d4	83 c4 04	 add	 esp, 4
$LN9@RemoveObjA:

; 63   : 		m_nSize		+= m_nGrowSize;

  000d7	8b 86 a8 30 08
	00		 mov	 eax, DWORD PTR [esi+536744]
  000dd	01 86 a4 30 08
	00		 add	 DWORD PTR [esi+536740], eax
  000e3	5b		 pop	 ebx
$LN8@RemoveObjA:
; File C:\IAGOS\server\v18\Source\Source\_Common\World.cpp

; 584  : 		m_apObject[pObj->m_dwObjAryIdx]		= NULL;

  000e4	8b 87 84 01 00
	00		 mov	 eax, DWORD PTR [edi+388]
  000ea	5f		 pop	 edi
  000eb	c7 44 86 44 00
	00 00 00	 mov	 DWORD PTR [esi+eax*4+68], 0

; 589  : 	}
; 590  : 	m_cbRunnableObject--;

  000f3	ff 4e 18	 dec	 DWORD PTR [esi+24]

; 591  : #else	// __WORLDSERVER
; 592  : 	CLandscape* pLandscape	= GetLandscape( pObj );
; 593  : 
; 594  : 	if( NULL != pLandscape ) 
; 595  : 	{
; 596  : 		pLandscape->RemoveObjArray( pObj );
; 597  : 	}
; 598  : 	/*
; 599  : 	else 
; 600  : 	{
; 601  : 		char szMessage[260]	= { 0, };
; 602  : 		sprintf( szMessage, "ROA error with landscape unloaded - g_pPlayer = %f, %f\t//pObj = %f, %f",
; 603  : 			g_pPlayer->GetPos().x, g_pPlayer->GetPos().z, pObj->GetPos().x, pObj->GetPos().z );
; 604  : 		DEBUGOUT2( szMessage );
; 605  : 	}
; 606  : 	*/
; 607  : #endif	// __WORLDSERVER
; 608  : }

  000f6	5e		 pop	 esi
  000f7	5d		 pop	 ebp
  000f8	c2 04 00	 ret	 4
$LN3@RemoveObjA:

; 585  : 	}
; 586  : 	else
; 587  : 	{
; 588  : 		WriteError( "RemoveObjArray m_apObject[pObj->m_dwObjAryIdx] != pObj " );

  000fb	68 00 00 00 00	 push	 OFFSET ??_C@_0DI@KBIGLDPE@RemoveObjArray?5m_apObject?$FLpObj?9@
  00100	e8 00 00 00 00	 call	 ?WriteError@@YAXPBDZZ	; WriteError
  00105	83 c4 04	 add	 esp, 4

; 589  : 	}
; 590  : 	m_cbRunnableObject--;

  00108	ff 4e 18	 dec	 DWORD PTR [esi+24]
  0010b	5f		 pop	 edi

; 591  : #else	// __WORLDSERVER
; 592  : 	CLandscape* pLandscape	= GetLandscape( pObj );
; 593  : 
; 594  : 	if( NULL != pLandscape ) 
; 595  : 	{
; 596  : 		pLandscape->RemoveObjArray( pObj );
; 597  : 	}
; 598  : 	/*
; 599  : 	else 
; 600  : 	{
; 601  : 		char szMessage[260]	= { 0, };
; 602  : 		sprintf( szMessage, "ROA error with landscape unloaded - g_pPlayer = %f, %f\t//pObj = %f, %f",
; 603  : 			g_pPlayer->GetPos().x, g_pPlayer->GetPos().z, pObj->GetPos().x, pObj->GetPos().z );
; 604  : 		DEBUGOUT2( szMessage );
; 605  : 	}
; 606  : 	*/
; 607  : #endif	// __WORLDSERVER
; 608  : }

  0010c	5e		 pop	 esi
  0010d	5d		 pop	 ebp
  0010e	c2 04 00	 ret	 4
?RemoveObjArray@CWorld@@QAEXPAVCObj@@@Z ENDP		; CWorld::RemoveObjArray
_TEXT	ENDS
; Function compile flags: /Ogtp
; File C:\IAGOS\server\v18\Source\Source\_Common\World.cpp
; File C:\IAGOS\server\v18\Source\Source\_Common\data.h
; File C:\IAGOS\server\v18\Source\Source\_Common\World.cpp
;	COMDAT ?AddObjArray@CWorld@@QAEHPAVCObj@@@Z
_TEXT	SEGMENT
_pObj$ = 8						; size = 4
?AddObjArray@CWorld@@QAEHPAVCObj@@@Z PROC		; CWorld::AddObjArray, COMDAT
; _this$ = ecx

; 530  : {

  00000	55		 push	 ebp
  00001	8b ec		 mov	 ebp, esp

; 531  : #ifdef __WORLDSERVER
; 532  : 	int nIndex;
; 533  : 	if( m_ObjStack.GetCount() > 0 )

  00003	83 b9 ac 30 08
	00 00		 cmp	 DWORD PTR [ecx+536748], 0
  0000a	7e 17		 jle	 SHORT $LN2@AddObjArra
; File C:\IAGOS\server\v18\Source\Source\_Common\data.h

; 74   : 	return m_pBlock[--m_nTop];

  0000c	ff 89 ac 30 08
	00		 dec	 DWORD PTR [ecx+536748]
  00012	8b 91 ac 30 08
	00		 mov	 edx, DWORD PTR [ecx+536748]
; File C:\IAGOS\server\v18\Source\Source\_Common\World.cpp

; 535  : 		nIndex	= m_ObjStack.Pop();

  00018	8b 81 a0 30 08
	00		 mov	 eax, DWORD PTR [ecx+536736]
  0001e	8b 14 90	 mov	 edx, DWORD PTR [eax+edx*4]

; 536  : 		ASSERT( !m_apObject[nIndex] );
; 537  : 	}

  00021	eb 09		 jmp	 SHORT $LN3@AddObjArra
$LN2@AddObjArra:

; 538  : 	else
; 539  : 	{
; 540  : 		nIndex	= m_dwObjNum++;

  00023	8b 51 40	 mov	 edx, DWORD PTR [ecx+64]
  00026	8d 42 01	 lea	 eax, DWORD PTR [edx+1]
  00029	89 41 40	 mov	 DWORD PTR [ecx+64], eax
$LN3@AddObjArra:

; 541  : 	}
; 542  : 
; 543  : 	if( nIndex == 0xffffffff )

  0002c	83 fa ff	 cmp	 edx, -1
  0002f	75 13		 jne	 SHORT $LN4@AddObjArra

; 544  : 	{
; 545  : 		WriteLog( "AddObjArray nIndex = 0xffffffff" );

  00031	68 00 00 00 00	 push	 OFFSET ??_C@_0CA@LOMLCCK@AddObjArray?5nIndex?5?$DN?50xffffffff@
  00036	e8 00 00 00 00	 call	 ?WriteLog@@YAXPBDZZ	; WriteLog
  0003b	83 c4 04	 add	 esp, 4

; 546  : 		return FALSE;

  0003e	33 c0		 xor	 eax, eax

; 570  : }

  00040	5d		 pop	 ebp
  00041	c2 04 00	 ret	 4
$LN4@AddObjArra:

; 547  : 	}
; 548  : 
; 549  : 	m_apObject[nIndex]	= (CCtrl*)pObj;

  00044	8b 45 08	 mov	 eax, DWORD PTR _pObj$[ebp]
  00047	89 44 91 44	 mov	 DWORD PTR [ecx+edx*4+68], eax

; 550  : 	pObj->m_dwObjAryIdx	= nIndex;

  0004b	89 90 84 01 00
	00		 mov	 DWORD PTR [eax+388], edx

; 551  : 
; 552  : 	m_cbRunnableObject++;
; 553  : #else	// __WORLDSERVER
; 554  : 	CLandscape* pLandscape	= GetLandscape( pObj );
; 555  : 	if( NULL != pLandscape ) 
; 556  : 	{
; 557  : 		pLandscape->AddObjArray( pObj );
; 558  : 	}
; 559  : 	/*
; 560  : 	else 
; 561  : 	{
; 562  : 		char szMessage[260]	= { 0, };
; 563  : 		sprintf( szMessage, "AOA error with landscape unloaded - g_pPlayer = %f, %f\t//pObj = %f, %f",
; 564  : 			g_pPlayer->GetPos().x, g_pPlayer->GetPos().z, pObj->GetPos().x, pObj->GetPos().z );
; 565  : 		DEBUGOUT2( szMessage );
; 566  : 	}
; 567  : 	*/
; 568  : #endif	// __WORLDSERVER
; 569  : 	return TRUE;

  00051	b8 01 00 00 00	 mov	 eax, 1
  00056	ff 41 18	 inc	 DWORD PTR [ecx+24]

; 570  : }

  00059	5d		 pop	 ebp
  0005a	c2 04 00	 ret	 4
?AddObjArray@CWorld@@QAEHPAVCObj@@@Z ENDP		; CWorld::AddObjArray
_TEXT	ENDS
; Function compile flags: /Ogtp
; File C:\IAGOS\server\v18\Source\Source\_Common\World.cpp
;	COMDAT ?DoNotAdd@CWorld@@QAEHPAVCObj@@@Z
_TEXT	SEGMENT
_pObj$ = 8						; size = 4
?DoNotAdd@CWorld@@QAEHPAVCObj@@@Z PROC			; CWorld::DoNotAdd, COMDAT
; _this$ = ecx

; 380  : {

  00000	55		 push	 ebp
  00001	8b ec		 mov	 ebp, esp
  00003	56		 push	 esi
  00004	57		 push	 edi
  00005	8b f9		 mov	 edi, ecx

; 381  : 
; 382  : 	for( int i = 0; i < m_cbAddObjs; i++ )

  00007	33 f6		 xor	 esi, esi
  00009	8b 97 58 b0 05
	00		 mov	 edx, DWORD PTR [edi+372824]
  0000f	85 d2		 test	 edx, edx
  00011	7e 19		 jle	 SHORT $LN3@DoNotAdd
  00013	8b 4d 08	 mov	 ecx, DWORD PTR _pObj$[ebp]
  00016	8d 87 5c b0 05
	00		 lea	 eax, DWORD PTR [edi+372828]
  0001c	0f 1f 40 00	 npad	 4
$LL4@DoNotAdd:

; 383  : 	{
; 384  : 		if( m_apAddObjs[i] == pObj )

  00020	39 08		 cmp	 DWORD PTR [eax], ecx
  00022	74 10		 je	 SHORT $LN8@DoNotAdd

; 381  : 
; 382  : 	for( int i = 0; i < m_cbAddObjs; i++ )

  00024	46		 inc	 esi
  00025	83 c0 04	 add	 eax, 4
  00028	3b f2		 cmp	 esi, edx
  0002a	7c f4		 jl	 SHORT $LL4@DoNotAdd
$LN3@DoNotAdd:
  0002c	5f		 pop	 edi

; 389  : 		}
; 390  : 	}
; 391  : 	return FALSE;

  0002d	33 c0		 xor	 eax, eax

; 392  : }

  0002f	5e		 pop	 esi
  00030	5d		 pop	 ebp
  00031	c2 04 00	 ret	 4
$LN8@DoNotAdd:

; 385  : 		{
; 386  : 			pObj->SetWorld( NULL );

  00034	6a 00		 push	 0
  00036	e8 00 00 00 00	 call	 ?SetWorld@CObj@@QAEXPAVCWorld@@@Z ; CObj::SetWorld

; 387  : 			m_apAddObjs[i]	= NULL;

  0003b	c7 84 b7 5c b0
	05 00 00 00 00
	00		 mov	 DWORD PTR [edi+esi*4+372828], 0

; 388  : 			return TRUE;

  00046	b8 01 00 00 00	 mov	 eax, 1
  0004b	5f		 pop	 edi

; 392  : }

  0004c	5e		 pop	 esi
  0004d	5d		 pop	 ebp
  0004e	c2 04 00	 ret	 4
?DoNotAdd@CWorld@@QAEHPAVCObj@@@Z ENDP			; CWorld::DoNotAdd
_TEXT	ENDS
; Function compile flags: /Ogtp
; File C:\IAGOS\server\v18\Source\Source\_Common\World.cpp
;	COMDAT ?DestroyObj@CWorld@@QAEXPAVCObj@@@Z
_TEXT	SEGMENT
_pObj$ = 8						; size = 4
?DestroyObj@CWorld@@QAEXPAVCObj@@@Z PROC		; CWorld::DestroyObj, COMDAT
; _this$ = ecx

; 1557 : {

  00000	55		 push	 ebp
  00001	8b ec		 mov	 ebp, esp
  00003	56		 push	 esi

; 1558 : 	RemoveObjArray( pObj );

  00004	8b 75 08	 mov	 esi, DWORD PTR _pObj$[ebp]
  00007	56		 push	 esi
  00008	e8 00 00 00 00	 call	 ?RemoveObjArray@CWorld@@QAEXPAVCObj@@@Z ; CWorld::RemoveObjArray

; 1559 : #ifdef __WORLDSERVER
; 1560 : 	CNpcChecker::GetInstance()->RemoveNpc( pObj );

  0000d	56		 push	 esi
  0000e	e8 00 00 00 00	 call	 ?GetInstance@CNpcChecker@@SAPAV1@XZ ; CNpcChecker::GetInstance
  00013	8b c8		 mov	 ecx, eax
  00015	e8 00 00 00 00	 call	 ?RemoveNpc@CNpcChecker@@QAEXPAVCObj@@@Z ; CNpcChecker::RemoveNpc

; 1561 : #endif	// __WORLDSERVER
; 1562 : 	SAFE_DELETE( pObj );

  0001a	85 f6		 test	 esi, esi
  0001c	74 08		 je	 SHORT $LN4@DestroyObj
  0001e	8b 06		 mov	 eax, DWORD PTR [esi]
  00020	8b ce		 mov	 ecx, esi
  00022	6a 01		 push	 1
  00024	ff 10		 call	 DWORD PTR [eax]
$LN4@DestroyObj:
  00026	5e		 pop	 esi

; 1563 : }

  00027	5d		 pop	 ebp
  00028	c2 04 00	 ret	 4
?DestroyObj@CWorld@@QAEXPAVCObj@@@Z ENDP		; CWorld::DestroyObj
_TEXT	ENDS
; Function compile flags: /Ogtp
; File C:\IAGOS\server\v18\Source\Source\_Common\World.cpp
; File C:\IAGOS\server\v18\Source\Source\_Common\Obj.h
; File C:\IAGOS\server\v18\Source\Source\_Common\World.cpp
; File C:\IAGOS\server\v18\Source\Source\_Common\Obj.h
; File C:\IAGOS\server\v18\Source\Source\_Common\World.cpp
; File C:\IAGOS\server\v18\Source\Source\_Common\Obj.h
; File C:\IAGOS\server\v18\Source\Source\_Common\World.cpp
;	COMDAT ?DeleteObj@CWorld@@QAEXPAVCObj@@@Z
_TEXT	SEGMENT
_pObj$ = 8						; size = 4
?DeleteObj@CWorld@@QAEXPAVCObj@@@Z PROC			; CWorld::DeleteObj, COMDAT
; _this$ = ecx

; 498  : {

  00000	55		 push	 ebp
  00001	8b ec		 mov	 ebp, esp
  00003	56		 push	 esi
  00004	57		 push	 edi
; File C:\IAGOS\server\v18\Source\Source\_Common\Obj.h

; 180  : 	BOOL			IsDelete()	{ return (m_dwFlags & OBJ_FLAG_DELETE);  }

  00005	8b 7d 08	 mov	 edi, DWORD PTR _pObj$[ebp]
; File C:\IAGOS\server\v18\Source\Source\_Common\World.cpp

; 498  : {

  00008	8b f1		 mov	 esi, ecx
; File C:\IAGOS\server\v18\Source\Source\_Common\Obj.h

; 180  : 	BOOL			IsDelete()	{ return (m_dwFlags & OBJ_FLAG_DELETE);  }

  0000a	8b 47 04	 mov	 eax, DWORD PTR [edi+4]
  0000d	a8 01		 test	 al, 1
; File C:\IAGOS\server\v18\Source\Source\_Common\World.cpp

; 499  : 	if( !pObj->IsDelete() )

  0000f	75 79		 jne	 SHORT $LN2@DeleteObj
; File C:\IAGOS\server\v18\Source\Source\_Common\Obj.h

; 273  : 		m_dwFlags |= dwValue;

  00011	83 c8 01	 or	 eax, 1
  00014	89 47 04	 mov	 DWORD PTR [edi+4], eax
; File C:\IAGOS\server\v18\Source\Source\_Common\World.cpp

; 503  : 		if( m_nDeleteObjs >= MAX_DELETEOBJS )

  00017	8b 8e 18 51 08
	00		 mov	 ecx, DWORD PTR [esi+545048]
  0001d	81 f9 00 10 00
	00		 cmp	 ecx, 4096		; 00001000H
  00023	7c 39		 jl	 SHORT $LN5@DeleteObj

; 504  : 		{
; 505  : 			if( pObj->GetType() == OT_MOVER )

  00025	8b 87 70 01 00
	00		 mov	 eax, DWORD PTR [edi+368]
  0002b	51		 push	 ecx
  0002c	83 f8 05	 cmp	 eax, 5
  0002f	75 19		 jne	 SHORT $LN4@DeleteObj

; 506  : 				Error( "CWorld::DeleteObj : %s %d", ((CMover *)pObj)->GetName(), m_nDeleteObjs );

  00031	6a 00		 push	 0
  00033	8b cf		 mov	 ecx, edi
  00035	e8 00 00 00 00	 call	 ?GetName@CMover@@QAEPBDH@Z ; CMover::GetName
  0003a	50		 push	 eax
  0003b	68 00 00 00 00	 push	 OFFSET ??_C@_0BK@DCGJKBFJ@CWorld?3?3DeleteObj?5?3?5?$CFs?5?$CFd@
  00040	e8 00 00 00 00	 call	 ?Error@@YAPBDPBDZZ	; Error
  00045	83 c4 0c	 add	 esp, 12			; 0000000cH
  00048	eb 14		 jmp	 SHORT $LN5@DeleteObj
$LN4@DeleteObj:

; 507  : 			else
; 508  : 				Error( "CWorld::DeleteObj : type=%d idx=%d %d", pObj->GetType(), pObj->GetIndex(), m_nDeleteObjs );

  0004a	ff b7 74 01 00
	00		 push	 DWORD PTR [edi+372]
  00050	50		 push	 eax
  00051	68 00 00 00 00	 push	 OFFSET ??_C@_0CG@EDKIFBIC@CWorld?3?3DeleteObj?5?3?5type?$DN?$CFd?5idx@
  00056	e8 00 00 00 00	 call	 ?Error@@YAPBDPBDZZ	; Error
  0005b	83 c4 10	 add	 esp, 16			; 00000010H
$LN5@DeleteObj:

; 509  : 		}
; 510  : 
; 511  : 		if( m_nDeleteObjs >= MAX_DELETEOBJS )

  0005e	81 be 18 51 08
	00 00 10 00 00	 cmp	 DWORD PTR [esi+545048], 4096 ; 00001000H
  00068	7c 0d		 jl	 SHORT $LN6@DeleteObj

; 512  : 			Error( "MAX_DELETEOBJS" );

  0006a	68 00 00 00 00	 push	 OFFSET ??_C@_0P@BHPKFHEI@MAX_DELETEOBJS@
  0006f	e8 00 00 00 00	 call	 ?Error@@YAPBDPBDZZ	; Error
  00074	83 c4 04	 add	 esp, 4
$LN6@DeleteObj:

; 513  : 		m_apDeleteObjs[ m_nDeleteObjs++ ] = pObj;

  00077	8b 86 18 51 08
	00		 mov	 eax, DWORD PTR [esi+545048]
  0007d	89 bc 86 1c 51
	08 00		 mov	 DWORD PTR [esi+eax*4+545052], edi
  00084	ff 86 18 51 08
	00		 inc	 DWORD PTR [esi+545048]
$LN2@DeleteObj:

; 514  : #else
; 515  : 
; 516  : #ifdef __BS_SAFE_WORLD_DELETE
; 517  : 		if(pObj->m_ppViewPtr)
; 518  : 		{
; 519  : 			*pObj->m_ppViewPtr = NULL;
; 520  : 			pObj->m_ppViewPtr = NULL;
; 521  : 		}
; 522  : #endif //__BS_SAFE_WORLD_DELETE
; 523  : 
; 524  : 		m_apDeleteObjs[ m_nDeleteObjs++ ] = pObj;
; 525  : #endif
; 526  : 	}
; 527  : }

  0008a	5f		 pop	 edi
  0008b	5e		 pop	 esi
  0008c	5d		 pop	 ebp
  0008d	c2 04 00	 ret	 4
?DeleteObj@CWorld@@QAEXPAVCObj@@@Z ENDP			; CWorld::DeleteObj
_TEXT	ENDS
; Function compile flags: /Ogtp
; File C:\IAGOS\server\v18\Source\Source\_Common\World.cpp
;	COMDAT ?RemoveObj@CWorld@@QAEXPAVCObj@@@Z
_TEXT	SEGMENT
_pObj$ = 8						; size = 4
?RemoveObj@CWorld@@QAEXPAVCObj@@@Z PROC			; CWorld::RemoveObj, COMDAT
; _this$ = ecx

; 488  : {

  00000	55		 push	 ebp
  00001	8b ec		 mov	 ebp, esp
  00003	56		 push	 esi

; 489  : 	if( pObj->GetWorld() == NULL ) 

  00004	8b 75 08	 mov	 esi, DWORD PTR _pObj$[ebp]
  00007	57		 push	 edi
  00008	8b f9		 mov	 edi, ecx
  0000a	83 be 6c 01 00
	00 00		 cmp	 DWORD PTR [esi+364], 0
  00011	74 19		 je	 SHORT $LN1@RemoveObj

; 490  : 		return;
; 491  : 	pObj->SetWorld( NULL );

  00013	6a 00		 push	 0
  00015	8b ce		 mov	 ecx, esi
  00017	e8 00 00 00 00	 call	 ?SetWorld@CObj@@QAEXPAVCWorld@@@Z ; CObj::SetWorld

; 492  : 	RemoveObjLink( pObj );

  0001c	56		 push	 esi
  0001d	8b cf		 mov	 ecx, edi
  0001f	e8 00 00 00 00	 call	 ?RemoveObjLink@CWorld@@QAEHPAVCObj@@@Z ; CWorld::RemoveObjLink

; 493  : 	RemoveObjArray( pObj );

  00024	56		 push	 esi
  00025	8b cf		 mov	 ecx, edi
  00027	e8 00 00 00 00	 call	 ?RemoveObjArray@CWorld@@QAEXPAVCObj@@@Z ; CWorld::RemoveObjArray
$LN1@RemoveObj:

; 494  : }

  0002c	5f		 pop	 edi
  0002d	5e		 pop	 esi
  0002e	5d		 pop	 ebp
  0002f	c2 04 00	 ret	 4
?RemoveObj@CWorld@@QAEXPAVCObj@@@Z ENDP			; CWorld::RemoveObj
_TEXT	ENDS
; Function compile flags: /Ogtp
; File C:\IAGOS\server\v18\Source\Source\_Common\World.cpp
; File C:\IAGOS\server\v18\Source\Source\_Common\Obj.h
; File C:\IAGOS\server\v18\Source\Source\_Common\World.cpp
; File C:\IAGOS\server\v18\Source\Source\_Common\Obj.h
; File C:\IAGOS\server\v18\Source\Source\_Common\World.cpp
; File C:\IAGOS\server\v18\Source\Source\_Common\Obj.h
; File C:\IAGOS\server\v18\Source\Source\_Common\World.cpp
; File C:\IAGOS\server\v18\Source\Source\_Common\commonCtrl.h
; File C:\IAGOS\server\v18\Source\Source\_Common\Project.h
; File C:\IAGOS\server\v18\Source\Source\_Common\data.h
; File C:\IAGOS\server\v18\Source\Source\_Common\World.cpp
; File C:\IAGOS\server\v18\Source\Source\_Common\Project.h
; File C:\IAGOS\server\v18\Source\Source\_Common\World.cpp
; File C:\IAGOS\server\v18\Source\Source\_Common\Obj.h
; File C:\IAGOS\server\v18\Source\Source\_Common\World.cpp
; File C:\IAGOS\server\v18\Source\Source\_Common\Obj.h
; File C:\IAGOS\server\v18\Source\Source\_Common\World.cpp
;	COMDAT ?AddObj@CWorld@@QAEHPAVCObj@@HH@Z
_TEXT	SEGMENT
_fHeight$1 = -20					; size = 4
_v$ = -16						; size = 12
__$ArrayPad$ = -4					; size = 4
_pObj$ = 8						; size = 4
_bAddItToGlobalId$ = 12					; size = 4
_nLayer$ = 16						; size = 4
?AddObj@CWorld@@QAEHPAVCObj@@HH@Z PROC			; CWorld::AddObj, COMDAT
; _this$ = ecx

; 400  : {

  00000	55		 push	 ebp
  00001	8b ec		 mov	 ebp, esp
  00003	83 ec 14	 sub	 esp, 20			; 00000014H
  00006	a1 00 00 00 00	 mov	 eax, DWORD PTR ___security_cookie
  0000b	33 c5		 xor	 eax, ebp
  0000d	89 45 fc	 mov	 DWORD PTR __$ArrayPad$[ebp], eax
  00010	56		 push	 esi
  00011	8b 75 08	 mov	 esi, DWORD PTR _pObj$[ebp]
  00014	57		 push	 edi
  00015	8b f9		 mov	 edi, ecx

; 401  : 	if( pObj->GetWorld() )

  00017	83 be 6c 01 00
	00 00		 cmp	 DWORD PTR [esi+364], 0
  0001e	74 21		 je	 SHORT $LN2@AddObj

; 402  : 	{
; 403  : 		WriteError("CWorld::AddObj obj's world is NOT NULL." );

  00020	68 00 00 00 00	 push	 OFFSET ??_C@_0CI@KCJBBNGD@CWorld?3?3AddObj?5obj?8s?5world?5is?5N@
  00025	e8 00 00 00 00	 call	 ?WriteError@@YAXPBDZZ	; WriteError
  0002a	83 c4 04	 add	 esp, 4

; 404  : 		return FALSE;

  0002d	33 c0		 xor	 eax, eax
  0002f	5f		 pop	 edi

; 451  : #else	// __WORLDSERVER
; 452  : 	InsertObjLink( pObj );
; 453  : 	AddObjArray( pObj );
; 454  : #endif	// __WORLDSERVER
; 455  : 
; 456  : #ifdef __CLIENT
; 457  : 	if( CMover::GetActiveMover() && CMover::GetActiveMover()->m_pActMover &&
; 458  : 		CMover::GetActiveMover()->m_pActMover->IsFly() )
; 459  : 	{
; 460  : 		if( pObj->GetType() == OT_MOVER )
; 461  : 		{
; 462  : 			if( ((CMover *)pObj)->GetId() == m_idObjFocusOld )
; 463  : 			{
; 464  : 				SetObjFocus( pObj );
; 465  : 			}
; 466  : 		}
; 467  : 	}
; 468  : 
; 469  : #ifdef __BS_EFFECT_LUA
; 470  : 	
; 471  : 	// »ýĽş˝ĂÁˇżˇĽ­ »ýĽş°ü·Ă Effect Ăł¸®( NPC only!! )
; 472  : 	if( OT_MOVER == pObj->GetType() )
; 473  : 	{
; 474  : 		CMover* pMover = static_cast< CMover* > ( pObj );
; 475  : 		
; 476  : 		if( pMover->IsNPC() )
; 477  : 			run_lua_sfx( OBJSTA_NONE, pMover->GetId(), pMover->GetNameO3D() );
; 478  : 	}
; 479  : 
; 480  : #endif //__BS_EFFECT_LUA
; 481  : 
; 482  : #endif //__CLIENT
; 483  : 
; 484  : 	return TRUE;
; 485  : }

  00030	5e		 pop	 esi
  00031	8b 4d fc	 mov	 ecx, DWORD PTR __$ArrayPad$[ebp]
  00034	33 cd		 xor	 ecx, ebp
  00036	e8 00 00 00 00	 call	 @__security_check_cookie@4
  0003b	8b e5		 mov	 esp, ebp
  0003d	5d		 pop	 ebp
  0003e	c2 0c 00	 ret	 12			; 0000000cH
$LN2@AddObj:
; File C:\IAGOS\server\v18\Source\Source\_Common\Obj.h

; 215  : 	D3DXVECTOR3		GetPos()	{ return m_vPos; }

  00041	8b 86 68 01 00
	00		 mov	 eax, DWORD PTR [esi+360]
  00047	f3 0f 7e 86 60
	01 00 00	 movq	 xmm0, QWORD PTR [esi+352]
  0004f	89 45 f8	 mov	 DWORD PTR _v$[ebp+8], eax
; File C:\IAGOS\server\v18\Source\Source\_Common\World.cpp

; 408  : 	if( VecInWorld( v ) == FALSE )

  00052	8d 45 f0	 lea	 eax, DWORD PTR _v$[ebp]
  00055	50		 push	 eax
; File C:\IAGOS\server\v18\Source\Source\_Common\Obj.h

; 215  : 	D3DXVECTOR3		GetPos()	{ return m_vPos; }

  00056	66 0f d6 45 f0	 movq	 QWORD PTR _v$[ebp], xmm0
; File C:\IAGOS\server\v18\Source\Source\_Common\World.cpp

; 408  : 	if( VecInWorld( v ) == FALSE )

  0005b	e8 00 00 00 00	 call	 ?VecInWorld@CWorld@@QAEHABUD3DXVECTOR3@@@Z ; CWorld::VecInWorld
  00060	85 c0		 test	 eax, eax
  00062	75 4f		 jne	 SHORT $LN3@AddObj

; 409  : 	{
; 410  : 		WriteError("CWorld::AddObj world id:%d x:%f y:%f z:%f", GetID(), v.x, v.y, v.z );

  00064	f3 0f 10 45 f8	 movss	 xmm0, DWORD PTR _v$[ebp+8]
  00069	83 ec 18	 sub	 esp, 24			; 00000018H
  0006c	0f 5a c0	 cvtps2pd xmm0, xmm0
  0006f	f2 0f 11 44 24
	10		 movsd	 QWORD PTR [esp+16], xmm0
  00075	f3 0f 10 45 f4	 movss	 xmm0, DWORD PTR _v$[ebp+4]
  0007a	0f 5a c0	 cvtps2pd xmm0, xmm0
  0007d	f2 0f 11 44 24
	08		 movsd	 QWORD PTR [esp+8], xmm0
  00083	f3 0f 10 45 f0	 movss	 xmm0, DWORD PTR _v$[ebp]
  00088	0f 5a c0	 cvtps2pd xmm0, xmm0
  0008b	f2 0f 11 04 24	 movsd	 QWORD PTR [esp], xmm0
  00090	ff 37		 push	 DWORD PTR [edi]
  00092	68 00 00 00 00	 push	 OFFSET ??_C@_0CK@OMOEDGKP@CWorld?3?3AddObj?5world?5id?3?$CFd?5x?3?$CFf@
  00097	e8 00 00 00 00	 call	 ?WriteError@@YAXPBDZZ	; WriteError
  0009c	83 c4 20	 add	 esp, 32			; 00000020H

; 411  : 		return FALSE;

  0009f	33 c0		 xor	 eax, eax
  000a1	5f		 pop	 edi

; 451  : #else	// __WORLDSERVER
; 452  : 	InsertObjLink( pObj );
; 453  : 	AddObjArray( pObj );
; 454  : #endif	// __WORLDSERVER
; 455  : 
; 456  : #ifdef __CLIENT
; 457  : 	if( CMover::GetActiveMover() && CMover::GetActiveMover()->m_pActMover &&
; 458  : 		CMover::GetActiveMover()->m_pActMover->IsFly() )
; 459  : 	{
; 460  : 		if( pObj->GetType() == OT_MOVER )
; 461  : 		{
; 462  : 			if( ((CMover *)pObj)->GetId() == m_idObjFocusOld )
; 463  : 			{
; 464  : 				SetObjFocus( pObj );
; 465  : 			}
; 466  : 		}
; 467  : 	}
; 468  : 
; 469  : #ifdef __BS_EFFECT_LUA
; 470  : 	
; 471  : 	// »ýĽş˝ĂÁˇżˇĽ­ »ýĽş°ü·Ă Effect Ăł¸®( NPC only!! )
; 472  : 	if( OT_MOVER == pObj->GetType() )
; 473  : 	{
; 474  : 		CMover* pMover = static_cast< CMover* > ( pObj );
; 475  : 		
; 476  : 		if( pMover->IsNPC() )
; 477  : 			run_lua_sfx( OBJSTA_NONE, pMover->GetId(), pMover->GetNameO3D() );
; 478  : 	}
; 479  : 
; 480  : #endif //__BS_EFFECT_LUA
; 481  : 
; 482  : #endif //__CLIENT
; 483  : 
; 484  : 	return TRUE;
; 485  : }

  000a2	5e		 pop	 esi
  000a3	8b 4d fc	 mov	 ecx, DWORD PTR __$ArrayPad$[ebp]
  000a6	33 cd		 xor	 ecx, ebp
  000a8	e8 00 00 00 00	 call	 @__security_check_cookie@4
  000ad	8b e5		 mov	 esp, ebp
  000af	5d		 pop	 ebp
  000b0	c2 0c 00	 ret	 12			; 0000000cH
$LN3@AddObj:
; File C:\IAGOS\server\v18\Source\Source\_Common\Obj.h

; 226  : 	BOOL			IsDynamicObj()			{ return m_dwType != OT_OBJ && m_dwType != OT_SFX; }

  000b3	8b 86 70 01 00
	00		 mov	 eax, DWORD PTR [esi+368]
  000b9	85 c0		 test	 eax, eax
  000bb	0f 84 8b 00 00
	00		 je	 $LN4@AddObj
  000c1	83 f8 03	 cmp	 eax, 3
  000c4	0f 84 82 00 00
	00		 je	 $LN4@AddObj
; File C:\IAGOS\server\v18\Source\Source\_Common\World.cpp

; 421  : 		FLOAT fHeight	= GetLandHeight( v );

  000ca	8d 45 f0	 lea	 eax, DWORD PTR _v$[ebp]
  000cd	8b cf		 mov	 ecx, edi
  000cf	50		 push	 eax
  000d0	e8 00 00 00 00	 call	 ?GetLandHeight@CWorld@@QAEMABUD3DXVECTOR3@@@Z ; CWorld::GetLandHeight
  000d5	d9 5d ec	 fstp	 DWORD PTR _fHeight$1[ebp]

; 422  : 		v.y		= ( v.y < fHeight ? fHeight : v.y );

  000d8	f3 0f 10 45 ec	 movss	 xmm0, DWORD PTR _fHeight$1[ebp]
  000dd	0f 2f 45 f4	 comiss	 xmm0, DWORD PTR _v$[ebp+4]
  000e1	76 05		 jbe	 SHORT $LN10@AddObj
  000e3	f3 0f 11 45 f4	 movss	 DWORD PTR _v$[ebp+4], xmm0
$LN10@AddObj:

; 423  : 		
; 424  : 		// żążÜ Ăł¸®...DoorÄÁĆ®·ŃŔş ¶Ążˇ ąŻÇôµÎ µĘ
; 425  : 		if( pObj->m_dwType == OT_CTRL )

  000e8	83 be 70 01 00
	00 02		 cmp	 DWORD PTR [esi+368], 2
  000ef	75 50		 jne	 SHORT $LN7@AddObj
; File C:\IAGOS\server\v18\Source\Source\_Common\commonCtrl.h

; 114  : 	CtrlProp*		GetProp() { return prj.GetCtrlProp( GetIndex() ); }

  000f1	8b 8e 74 01 00
	00		 mov	 ecx, DWORD PTR [esi+372]
; File C:\IAGOS\server\v18\Source\Source\_Common\Project.h

; 1383 : 	VERIFY_RANGE_ASSERT( nIndex, 0, m_aPropCtrl.GetSize(), "GetCtrlProp range_error", NULL );

  000f7	a1 f8 01 00 00	 mov	 eax, DWORD PTR ?prj@@3VCProject@@A+504
  000fc	85 c9		 test	 ecx, ecx
  000fe	78 2b		 js	 SHORT $LN25@AddObj
  00100	3b c8		 cmp	 ecx, eax
  00102	7d 27		 jge	 SHORT $LN25@AddObj
; File C:\IAGOS\server\v18\Source\Source\_Common\data.h

; 270  : 	if( dwIndex >= (DWORD)m_nMaxIndex )

  00104	72 04		 jb	 SHORT $LN30@AddObj

; 271  : 		return NULL;

  00106	33 c0		 xor	 eax, eax
  00108	eb 08		 jmp	 SHORT $LN29@AddObj
$LN30@AddObj:

; 272  : 	return (T*) m_apOffset[ dwIndex ];

  0010a	a1 e8 01 00 00	 mov	 eax, DWORD PTR ?prj@@3VCProject@@A+488
  0010f	8b 04 88	 mov	 eax, DWORD PTR [eax+ecx*4]
$LN29@AddObj:
; File C:\IAGOS\server\v18\Source\Source\_Common\World.cpp

; 429  : 			if( pProp )

  00112	85 c0		 test	 eax, eax
  00114	74 2b		 je	 SHORT $LN7@AddObj

; 430  : 			{
; 431  : 				if( pProp->dwCtrlKind1 == CK1_DOOR )

  00116	83 78 50 01	 cmp	 DWORD PTR [eax+80], 1
  0011a	75 25		 jne	 SHORT $LN7@AddObj

; 432  : 					v.y = pObj->GetPos().y;

  0011c	f3 0f 10 86 64
	01 00 00	 movss	 xmm0, DWORD PTR [esi+356]
  00124	f3 0f 11 45 f4	 movss	 DWORD PTR _v$[ebp+4], xmm0
  00129	eb 16		 jmp	 SHORT $LN7@AddObj
$LN25@AddObj:
; File C:\IAGOS\server\v18\Source\Source\_Common\Project.h

; 579  : 	LPCTSTR szErr = Error( _T( "%s min:%d, max:%d, index:%d" ), szMsg, nMin, nMax, nIndex ); 

  0012b	51		 push	 ecx
  0012c	50		 push	 eax
  0012d	6a 00		 push	 0
  0012f	68 00 00 00 00	 push	 OFFSET ??_C@_0BI@GDJNNIOA@GetCtrlProp?5range_error@
  00134	68 00 00 00 00	 push	 OFFSET ??_C@_0BM@HMFGHCP@?$CFs?5min?3?$CFd?0?5max?3?$CFd?0?5index?3?$CFd@
  00139	e8 00 00 00 00	 call	 ?Error@@YAPBDPBDZZ	; Error
  0013e	83 c4 14	 add	 esp, 20			; 00000014H
$LN7@AddObj:
; File C:\IAGOS\server\v18\Source\Source\_Common\World.cpp

; 436  : 		pObj->SetPos( v );

  00141	8d 45 f0	 lea	 eax, DWORD PTR _v$[ebp]
  00144	8b ce		 mov	 ecx, esi
  00146	50		 push	 eax
  00147	e8 00 00 00 00	 call	 ?SetPos@CObj@@QAEXABUD3DXVECTOR3@@@Z ; CObj::SetPos
$LN4@AddObj:

; 437  : 	}
; 438  : 	pObj->UpdateLocalMatrix();

  0014c	8b ce		 mov	 ecx, esi
  0014e	e8 00 00 00 00	 call	 ?UpdateLocalMatrix@CObj@@QAEXXZ ; CObj::UpdateLocalMatrix
; File C:\IAGOS\server\v18\Source\Source\_Common\Obj.h

; 246  : 	void	SetLayer( int nLayer )	{	m_nLayer	= nLayer;	}

  00153	8b 45 10	 mov	 eax, DWORD PTR _nLayer$[ebp]
; File C:\IAGOS\server\v18\Source\Source\_Common\World.cpp

; 442  : 	pObj->SetWorld( this );

  00156	8b ce		 mov	 ecx, esi
  00158	57		 push	 edi
; File C:\IAGOS\server\v18\Source\Source\_Common\Obj.h

; 246  : 	void	SetLayer( int nLayer )	{	m_nLayer	= nLayer;	}

  00159	89 86 b8 01 00
	00		 mov	 DWORD PTR [esi+440], eax
; File C:\IAGOS\server\v18\Source\Source\_Common\World.cpp

; 442  : 	pObj->SetWorld( this );

  0015f	e8 00 00 00 00	 call	 ?SetWorld@CObj@@QAEXPAVCWorld@@@Z ; CObj::SetWorld

; 443  : 
; 444  : 	if( pObj->m_pAIInterface ) 

  00164	8b 8e 88 01 00
	00		 mov	 ecx, DWORD PTR [esi+392]
  0016a	85 c9		 test	 ecx, ecx
  0016c	74 05		 je	 SHORT $LN8@AddObj

; 445  : 		pObj->m_pAIInterface->InitAI();

  0016e	8b 01		 mov	 eax, DWORD PTR [ecx]
  00170	ff 50 14	 call	 DWORD PTR [eax+20]
$LN8@AddObj:

; 446  : 
; 447  : #ifdef __WORLDSERVER
; 448  : 	ASSERT( m_cbAddObjs < MAX_ADDOBJS );
; 449  : 	m_bAddItToGlobalId[m_cbAddObjs]	= bAddItToGlobalId;

  00173	8b 8f 58 b0 05
	00		 mov	 ecx, DWORD PTR [edi+372824]
  00179	8b 45 0c	 mov	 eax, DWORD PTR _bAddItToGlobalId$[ebp]
  0017c	89 84 8f 5c f0
	06 00		 mov	 DWORD PTR [edi+ecx*4+454748], eax

; 450  : 	m_apAddObjs[m_cbAddObjs++]	= pObj;

  00183	8b 87 58 b0 05
	00		 mov	 eax, DWORD PTR [edi+372824]

; 451  : #else	// __WORLDSERVER
; 452  : 	InsertObjLink( pObj );
; 453  : 	AddObjArray( pObj );
; 454  : #endif	// __WORLDSERVER
; 455  : 
; 456  : #ifdef __CLIENT
; 457  : 	if( CMover::GetActiveMover() && CMover::GetActiveMover()->m_pActMover &&
; 458  : 		CMover::GetActiveMover()->m_pActMover->IsFly() )
; 459  : 	{
; 460  : 		if( pObj->GetType() == OT_MOVER )
; 461  : 		{
; 462  : 			if( ((CMover *)pObj)->GetId() == m_idObjFocusOld )
; 463  : 			{
; 464  : 				SetObjFocus( pObj );
; 465  : 			}
; 466  : 		}
; 467  : 	}
; 468  : 
; 469  : #ifdef __BS_EFFECT_LUA
; 470  : 	
; 471  : 	// »ýĽş˝ĂÁˇżˇĽ­ »ýĽş°ü·Ă Effect Ăł¸®( NPC only!! )
; 472  : 	if( OT_MOVER == pObj->GetType() )
; 473  : 	{
; 474  : 		CMover* pMover = static_cast< CMover* > ( pObj );
; 475  : 		
; 476  : 		if( pMover->IsNPC() )
; 477  : 			run_lua_sfx( OBJSTA_NONE, pMover->GetId(), pMover->GetNameO3D() );
; 478  : 	}
; 479  : 
; 480  : #endif //__BS_EFFECT_LUA
; 481  : 
; 482  : #endif //__CLIENT
; 483  : 
; 484  : 	return TRUE;
; 485  : }

  00189	8b 4d fc	 mov	 ecx, DWORD PTR __$ArrayPad$[ebp]
  0018c	33 cd		 xor	 ecx, ebp
  0018e	89 b4 87 5c b0
	05 00		 mov	 DWORD PTR [edi+eax*4+372828], esi
  00195	b8 01 00 00 00	 mov	 eax, 1
  0019a	ff 87 58 b0 05
	00		 inc	 DWORD PTR [edi+372824]
  001a0	5f		 pop	 edi
  001a1	5e		 pop	 esi
  001a2	e8 00 00 00 00	 call	 @__security_check_cookie@4
  001a7	8b e5		 mov	 esp, ebp
  001a9	5d		 pop	 ebp
  001aa	c2 0c 00	 ret	 12			; 0000000cH
?AddObj@CWorld@@QAEHPAVCObj@@HH@Z ENDP			; CWorld::AddObj
_TEXT	ENDS
; Function compile flags: /Ogtp
; File C:\IAGOS\server\v18\Source\Source\_Common\World.cpp
;	COMDAT ?LoadAllMoverDialog@CWorld@@QAEXXZ
_TEXT	SEGMENT
?LoadAllMoverDialog@CWorld@@QAEXXZ PROC			; CWorld::LoadAllMoverDialog, COMDAT
; _this$ = ecx

; 241  : {

  00000	53		 push	 ebx
  00001	8b d9		 mov	 ebx, ecx
  00003	56		 push	 esi

; 242  : #ifdef __WORLDSERVER
; 243  : 	for( DWORD i = 0; i < m_dwObjNum; i++ )

  00004	33 f6		 xor	 esi, esi
  00006	39 73 40	 cmp	 DWORD PTR [ebx+64], esi
  00009	76 23		 jbe	 SHORT $LN3@LoadAllMov
  0000b	57		 push	 edi
  0000c	8d 7b 44	 lea	 edi, DWORD PTR [ebx+68]
  0000f	90		 npad	 1
$LL4@LoadAllMov:

; 244  : 	{
; 245  : 		if( m_apObject[ i ] && m_apObject[ i ]->GetType() == OT_MOVER )

  00010	8b 0f		 mov	 ecx, DWORD PTR [edi]
  00012	85 c9		 test	 ecx, ecx
  00014	74 0e		 je	 SHORT $LN2@LoadAllMov
  00016	83 b9 70 01 00
	00 05		 cmp	 DWORD PTR [ecx+368], 5
  0001d	75 05		 jne	 SHORT $LN2@LoadAllMov

; 246  : 			((CMover*)m_apObject[ i ])->LoadDialog();

  0001f	e8 00 00 00 00	 call	 ?LoadDialog@CMover@@QAEHXZ ; CMover::LoadDialog
$LN2@LoadAllMov:

; 242  : #ifdef __WORLDSERVER
; 243  : 	for( DWORD i = 0; i < m_dwObjNum; i++ )

  00024	46		 inc	 esi
  00025	83 c7 04	 add	 edi, 4
  00028	3b 73 40	 cmp	 esi, DWORD PTR [ebx+64]
  0002b	72 e3		 jb	 SHORT $LL4@LoadAllMov
  0002d	5f		 pop	 edi
$LN3@LoadAllMov:
  0002e	5e		 pop	 esi

; 247  : 	}
; 248  : #endif
; 249  : }

  0002f	5b		 pop	 ebx
  00030	c3		 ret	 0
?LoadAllMoverDialog@CWorld@@QAEXXZ ENDP			; CWorld::LoadAllMoverDialog
_TEXT	ENDS
; Function compile flags: /Ogtp
; File C:\IAGOS\server\v18\Source\Source\_Common\World.cpp
; File C:\Program Files\Microsoft Visual Studio\2022\Professional\VC\Tools\MSVC\14.44.35207\include\vector
; File C:\IAGOS\server\v18\Source\Source\_Common\World.cpp
; File C:\Program Files\Microsoft Visual Studio\2022\Professional\VC\Tools\MSVC\14.44.35207\include\vector
; File C:\IAGOS\server\v18\Source\Source\_Common\World.cpp
;	COMDAT ?Free@CWorld@@QAEXXZ
_TEXT	SEGMENT
?Free@CWorld@@QAEXXZ PROC				; CWorld::Free, COMDAT
; _this$ = ecx

; 174  : {

  00000	53		 push	 ebx
  00001	56		 push	 esi
  00002	8b f1		 mov	 esi, ecx
  00004	57		 push	 edi

; 175  : #ifdef __WORLDSERVER
; 176  : 	CObj* pObjtmp;
; 177  : 	for( DWORD i = 0; i < m_dwObjNum; i++ )

  00005	33 ff		 xor	 edi, edi
  00007	39 7e 40	 cmp	 DWORD PTR [esi+64], edi
  0000a	76 19		 jbe	 SHORT $LN3@Free
  0000c	8d 5e 44	 lea	 ebx, DWORD PTR [esi+68]
  0000f	90		 npad	 1
$LL4@Free:

; 178  : 	{
; 179  : 		pObjtmp		= m_apObject[i];

  00010	8b 0b		 mov	 ecx, DWORD PTR [ebx]

; 180  : 		SAFE_DELETE( pObjtmp );

  00012	85 c9		 test	 ecx, ecx
  00014	74 06		 je	 SHORT $LN2@Free
  00016	8b 01		 mov	 eax, DWORD PTR [ecx]
  00018	6a 01		 push	 1
  0001a	ff 10		 call	 DWORD PTR [eax]
$LN2@Free:

; 175  : #ifdef __WORLDSERVER
; 176  : 	CObj* pObjtmp;
; 177  : 	for( DWORD i = 0; i < m_dwObjNum; i++ )

  0001c	47		 inc	 edi
  0001d	83 c3 04	 add	 ebx, 4
  00020	3b 7e 40	 cmp	 edi, DWORD PTR [esi+64]
  00023	72 eb		 jb	 SHORT $LL4@Free
$LN3@Free:
; File C:\Program Files\Microsoft Visual Studio\2022\Professional\VC\Tools\MSVC\14.44.35207\include\vector

; 1915 :         return static_cast<size_type>(_My_data._Mylast - _My_data._Myfirst);

  00025	8b 9e 48 00 05
	00		 mov	 ebx, DWORD PTR [esi+327752]
  0002b	33 ff		 xor	 edi, edi
  0002d	2b 9e 44 00 05
	00		 sub	 ebx, DWORD PTR [esi+327748]
  00033	c1 fb 02	 sar	 ebx, 2
; File C:\IAGOS\server\v18\Source\Source\_Common\World.cpp

; 184  : 	for( int i = 0; i < nBk; ++i )

  00036	85 db		 test	 ebx, ebx
  00038	7e 2b		 jle	 SHORT $LN6@Free
  0003a	66 0f 1f 44 00
	00		 npad	 6
$LL7@Free:

; 185  : 		SAFE_DELETE( m_vecBackground[i] );

  00040	8b 86 44 00 05
	00		 mov	 eax, DWORD PTR [esi+327748]
  00046	8b 0c b8	 mov	 ecx, DWORD PTR [eax+edi*4]
  00049	85 c9		 test	 ecx, ecx
  0004b	74 13		 je	 SHORT $LN5@Free
  0004d	8b 01		 mov	 eax, DWORD PTR [ecx]
  0004f	6a 01		 push	 1
  00051	ff 10		 call	 DWORD PTR [eax]
  00053	8b 86 44 00 05
	00		 mov	 eax, DWORD PTR [esi+327748]
  00059	c7 04 b8 00 00
	00 00		 mov	 DWORD PTR [eax+edi*4], 0
$LN5@Free:

; 184  : 	for( int i = 0; i < nBk; ++i )

  00060	47		 inc	 edi
  00061	3b fb		 cmp	 edi, ebx
  00063	7c db		 jl	 SHORT $LL7@Free
$LN6@Free:
; File C:\Program Files\Microsoft Visual Studio\2022\Professional\VC\Tools\MSVC\14.44.35207\include\vector

; 1812 :         if (_Myfirst == _Mylast) { // already empty, nothing to do

  00065	8b 86 44 00 05
	00		 mov	 eax, DWORD PTR [esi+327748]
  0006b	3b 86 48 00 05
	00		 cmp	 eax, DWORD PTR [esi+327752]
  00071	74 06		 je	 SHORT $LN29@Free

; 1813 :             // This is an optimization for debug mode: we can avoid taking the debug lock to invalidate iterators.
; 1814 :             // Note that when clearing an empty vector, this will preserve past-the-end iterators, which is allowed by
; 1815 :             // N4950 [sequence.reqmts]/54 "a.clear() [...] may invalidate the past-the-end iterator".
; 1816 :             return;
; 1817 :         }
; 1818 : 
; 1819 :         _My_data._Orphan_all();
; 1820 :         _Destroy_range(_Myfirst, _Mylast, _Getal());
; 1821 :         _ASAN_VECTOR_MODIFY(static_cast<difference_type>(_Myfirst - _Mylast)); // negative when destroying elements
; 1822 :         _Mylast = _Myfirst;

  00073	89 86 48 00 05
	00		 mov	 DWORD PTR [esi+327752], eax
$LN29@Free:
; File C:\IAGOS\server\v18\Source\Source\_Common\World.cpp

; 188  : 	m_linkMap.Release();

  00079	8d 4e 24	 lea	 ecx, DWORD PTR [esi+36]
  0007c	e8 00 00 00 00	 call	 ?Release@CLayeredLinkMap@@QAEXXZ ; CLayeredLinkMap::Release

; 189  : 	SAFE_DELETE_ARRAY( m_apHeightMap );

  00081	8b 46 1c	 mov	 eax, DWORD PTR [esi+28]
  00084	85 c0		 test	 eax, eax
  00086	74 10		 je	 SHORT $LN10@Free
  00088	50		 push	 eax
  00089	e8 00 00 00 00	 call	 ??_V@YAXPAX@Z		; operator delete[]
  0008e	83 c4 04	 add	 esp, 4
  00091	c7 46 1c 00 00
	00 00		 mov	 DWORD PTR [esi+28], 0
$LN10@Free:

; 190  : 	SAFE_DELETE_ARRAY( m_apWaterHeight );

  00098	8b 46 20	 mov	 eax, DWORD PTR [esi+32]
  0009b	85 c0		 test	 eax, eax
  0009d	74 10		 je	 SHORT $LN11@Free
  0009f	50		 push	 eax
  000a0	e8 00 00 00 00	 call	 ??_V@YAXPAX@Z		; operator delete[]
  000a5	83 c4 04	 add	 esp, 4
  000a8	c7 46 20 00 00
	00 00		 mov	 DWORD PTR [esi+32], 0
$LN11@Free:

; 191  : 
; 192  : //	CCtrlRegion* pCtrlRegion;
; 193  : //	while( !m_lspCtrlRegion.empty() )
; 194  : //	{
; 195  : //		pCtrlRegion	= m_lspCtrlRegion.front();
; 196  : //		m_lspCtrlRegion.pop_front();
; 197  : //		SAFE_DELETE( pCtrlRegion );
; 198  : //	}
; 199  : #else	// __WORLDSERVER
; 200  : 	// Light ĆÄ±« 
; 201  : 	POSITION pos 
; 202  : 		= m_mapLight.GetStartPosition();
; 203  : 	CLight* pLight;
; 204  : 	CString string;
; 205  : 	while( pos )
; 206  : 	{
; 207  : 		m_mapLight.GetNextAssoc( pos, string, (void*&)pLight );
; 208  : 		SAFE_DELETE( pLight );
; 209  : 	}
; 210  : 	m_mapLight.RemoveAll();
; 211  : 	if( m_apLand != NULL )
; 212  : 	{
; 213  : 		for( int i = 0; i < m_nLandWidth * m_nLandHeight; i++)
; 214  : 			SAFE_DELETE( m_apLand[ i ] );
; 215  : 		SAFE_DELETE_ARRAY( m_apLand );
; 216  : 	}
; 217  : 
; 218  : 	m_pObjFocus	= NULL;
; 219  : 	m_nDeleteObjs	= 0;
; 220  : 
; 221  : #if __VER >= 15 // __BS_CHANGING_ENVIR
; 222  : 	m_strCurContName = "";
; 223  : #endif 	
; 224  : 
; 225  : #ifdef __BS_EFFECT_LUA
; 226  : 	CSfxModelMng::Free( );
; 227  : #endif	//__BS_EFFECT_LUA
; 228  : 
; 229  : #endif	// __WORLDSERVER
; 230  : }

  000af	5f		 pop	 edi
  000b0	5e		 pop	 esi
  000b1	5b		 pop	 ebx
  000b2	c3		 ret	 0
?Free@CWorld@@QAEXXZ ENDP				; CWorld::Free
_TEXT	ENDS
; Function compile flags: /Ogtp
; File C:\IAGOS\server\v18\Source\Source\_Common\World.h
;	COMDAT ?VecInWorld@CWorld@@QAEHABUD3DXVECTOR3@@@Z
_TEXT	SEGMENT
_x$1$ = -8						; size = 4
_inv_mpu$1$ = -4					; size = 4
_vPos$ = 8						; size = 4
_z$1$ = 8						; size = 4
?VecInWorld@CWorld@@QAEHABUD3DXVECTOR3@@@Z PROC		; CWorld::VecInWorld, COMDAT
; _this$ = ecx

; 754  : {

  00000	55		 push	 ebp
  00001	8b ec		 mov	 ebp, esp
  00003	83 ec 08	 sub	 esp, 8
  00006	56		 push	 esi
  00007	57		 push	 edi

; 755  : 	if( _isnan( (double)vPos.y ) )

  00008	8b 7d 08	 mov	 edi, DWORD PTR _vPos$[ebp]
  0000b	83 ec 08	 sub	 esp, 8
  0000e	8b f1		 mov	 esi, ecx
  00010	f3 0f 10 47 04	 movss	 xmm0, DWORD PTR [edi+4]
  00015	0f 5a c0	 cvtps2pd xmm0, xmm0
  00018	f2 0f 11 04 24	 movsd	 QWORD PTR [esp], xmm0
  0001d	e8 00 00 00 00	 call	 __isnan
  00022	83 c4 08	 add	 esp, 8
  00025	85 c0		 test	 eax, eax
  00027	74 0a		 je	 SHORT $LN2@VecInWorld
$LN18@VecInWorld:
  00029	5f		 pop	 edi

; 759  : }

  0002a	33 c0		 xor	 eax, eax
  0002c	5e		 pop	 esi
  0002d	8b e5		 mov	 esp, ebp
  0002f	5d		 pop	 ebp
  00030	c2 04 00	 ret	 4
$LN2@VecInWorld:

; 756  : 		return FALSE;
; 757  : 
; 758  : 	return VecInWorld( vPos.x, vPos.z );

  00033	f3 0f 10 47 08	 movss	 xmm0, DWORD PTR [edi+8]

; 734  : 	if( _isnan( x ) )

  00038	83 ec 08	 sub	 esp, 8
  0003b	f3 0f 10 0d 00
	00 00 00	 movss	 xmm1, DWORD PTR __real@3f800000

; 756  : 		return FALSE;
; 757  : 
; 758  : 	return VecInWorld( vPos.x, vPos.z );

  00043	f3 0f 11 45 08	 movss	 DWORD PTR _z$1$[ebp], xmm0
  00048	66 0f 6e 46 14	 movd	 xmm0, DWORD PTR [esi+20]
  0004d	f3 0f 10 17	 movss	 xmm2, DWORD PTR [edi]

; 732  : 	float inv_mpu = 1.0f / (float)m_iMPU;

  00051	0f 5b c0	 cvtdq2ps xmm0, xmm0

; 756  : 		return FALSE;
; 757  : 
; 758  : 	return VecInWorld( vPos.x, vPos.z );

  00054	f3 0f 11 55 f8	 movss	 DWORD PTR _x$1$[ebp], xmm2

; 732  : 	float inv_mpu = 1.0f / (float)m_iMPU;

  00059	f3 0f 5e c8	 divss	 xmm1, xmm0

; 733  : 
; 734  : 	if( _isnan( x ) )

  0005d	0f 5a c2	 cvtps2pd xmm0, xmm2
  00060	f3 0f 11 4d fc	 movss	 DWORD PTR _inv_mpu$1$[ebp], xmm1
  00065	f2 0f 11 04 24	 movsd	 QWORD PTR [esp], xmm0
  0006a	e8 00 00 00 00	 call	 __isnan
  0006f	83 c4 08	 add	 esp, 8
  00072	85 c0		 test	 eax, eax
  00074	75 b3		 jne	 SHORT $LN18@VecInWorld

; 735  : 		return FALSE;
; 736  : 	if( x < 0.0f )

  00076	f3 0f 10 55 f8	 movss	 xmm2, DWORD PTR _x$1$[ebp]
  0007b	0f 57 c0	 xorps	 xmm0, xmm0
  0007e	0f 2f c2	 comiss	 xmm0, xmm2
  00081	77 a6		 ja	 SHORT $LN18@VecInWorld

; 737  : 		return FALSE;
; 738  : 	if( (x * inv_mpu) >= ( WORLD_WIDTH-1 ) )	

  00083	8b 46 0c	 mov	 eax, DWORD PTR [esi+12]
  00086	f3 0f 10 4d fc	 movss	 xmm1, DWORD PTR _inv_mpu$1$[ebp]
  0008b	48		 dec	 eax
  0008c	f3 0f 59 ca	 mulss	 xmm1, xmm2
  00090	66 0f 6e c0	 movd	 xmm0, eax
  00094	0f 5b c0	 cvtdq2ps xmm0, xmm0
  00097	0f 2f c8	 comiss	 xmm1, xmm0
  0009a	73 8d		 jae	 SHORT $LN18@VecInWorld
  0009c	f3 0f 10 45 08	 movss	 xmm0, DWORD PTR _z$1$[ebp]

; 739  : 	{
; 740  : 		return FALSE;
; 741  : 	}
; 742  : 
; 743  : 	if( _isnan( z ) )

  000a1	83 ec 08	 sub	 esp, 8
  000a4	0f 5a c0	 cvtps2pd xmm0, xmm0
  000a7	f2 0f 11 04 24	 movsd	 QWORD PTR [esp], xmm0
  000ac	e8 00 00 00 00	 call	 __isnan
  000b1	83 c4 08	 add	 esp, 8
  000b4	85 c0		 test	 eax, eax
  000b6	0f 85 6d ff ff
	ff		 jne	 $LN18@VecInWorld

; 744  : 		return FALSE;
; 745  : 	if( z < 0.0f )

