; Listing generated by Microsoft (R) Optimizing Compiler Version 19.44.35225.0 

	TITLE	C:\IAGOS\server\v18\Source\Output\WorldServer\Release\worldfile.obj
	.686P
	.XMM
	include listing.inc
	.model	flat

INCLUDELIB LIBCMT
INCLUDELIB OLDNAMES

PUBLIC	?DEFAULT_FNAME@@3PBDB				; DEFAULT_FNAME
PUBLIC	??_C@_07DLHCIBDH@default@			; `string'
CONST	SEGMENT
?piecewise_construct@std@@3Upiecewise_construct_t@1@B	ORG $+1 ; std::piecewise_construct
CONST	ENDS
;	COMDAT ??_C@_07DLHCIBDH@default@
CONST	SEGMENT
??_C@_07DLHCIBDH@default@ DB 'default', 00H		; `string'
CONST	ENDS
_DATA	SEGMENT
?DEFAULT_FNAME@@3PBDB DD FLAT:??_C@_07DLHCIBDH@default@	; DEFAULT_FNAME
_DATA	ENDS
PUBLIC	?__empty_global_delete@@YAXPAX@Z		; __empty_global_delete
PUBLIC	?__empty_global_delete@@YAXPAXI@Z		; __empty_global_delete
PUBLIC	___local_stdio_printf_options
PUBLIC	_sprintf
PUBLIC	?AfxCrtErrorCheck@@YAHH@Z			; AfxCrtErrorCheck
PUBLIC	?AtlThrowImpl@ATL@@YGXJ@Z			; ATL::AtlThrowImpl
PUBLIC	??1?$CSimpleStringT@D$0A@@ATL@@QAE@XZ		; ATL::CSimpleStringT<char,0>::~CSimpleStringT<char,0>
PUBLIC	?SetString@?$CSimpleStringT@D$0A@@ATL@@QAEXPBDH@Z ; ATL::CSimpleStringT<char,0>::SetString
PUBLIC	?ThrowMemoryException@?$CSimpleStringT@D$0A@@ATL@@KAXXZ ; ATL::CSimpleStringT<char,0>::ThrowMemoryException
PUBLIC	?Fork@?$CSimpleStringT@D$0A@@ATL@@AAEXH@Z	; ATL::CSimpleStringT<char,0>::Fork
PUBLIC	?PrepareWrite2@?$CSimpleStringT@D$0A@@ATL@@AAEXH@Z ; ATL::CSimpleStringT<char,0>::PrepareWrite2
PUBLIC	?Reallocate@?$CSimpleStringT@D$0A@@ATL@@AAEXH@Z	; ATL::CSimpleStringT<char,0>::Reallocate
PUBLIC	??1?$CStringT@DV?$StrTraitMFC@DV?$ChTraitsCRT@D@ATL@@@@@ATL@@QAE@XZ ; ATL::CStringT<char,StrTraitMFC<char,ATL::ChTraitsCRT<char> > >::~CStringT<char,StrTraitMFC<char,ATL::ChTraitsCRT<char> > >
PUBLIC	?Delete@?$CStringT@DV?$StrTraitMFC@DV?$ChTraitsCRT@D@ATL@@@@@ATL@@QAEHHH@Z ; ATL::CStringT<char,StrTraitMFC<char,ATL::ChTraitsCRT<char> > >::Delete
PUBLIC	?Replace@?$CStringT@DV?$StrTraitMFC@DV?$ChTraitsCRT@D@ATL@@@@@ATL@@QAEHPBD0@Z ; ATL::CStringT<char,StrTraitMFC<char,ATL::ChTraitsCRT<char> > >::Replace
PUBLIC	?Format@?$CStringT@DV?$StrTraitMFC@DV?$ChTraitsCRT@D@ATL@@@@@ATL@@QAAXPBDZZ ; ATL::CStringT<char,StrTraitMFC<char,ATL::ChTraitsCRT<char> > >::Format
PUBLIC	?FormatV@?$CStringT@DV?$StrTraitMFC@DV?$ChTraitsCRT@D@ATL@@@@@ATL@@QAEXPBDPAD@Z ; ATL::CStringT<char,StrTraitMFC<char,ATL::ChTraitsCRT<char> > >::FormatV
PUBLIC	?LoadStringA@?$CStringT@DV?$StrTraitMFC@DV?$ChTraitsCRT@D@ATL@@@@@ATL@@QAEHI@Z ; ATL::CStringT<char,StrTraitMFC<char,ATL::ChTraitsCRT<char> > >::LoadStringA
PUBLIC	??0exception@std@@QAE@ABV01@@Z			; std::exception::exception
PUBLIC	??1exception@std@@UAE@XZ			; std::exception::~exception
PUBLIC	?what@exception@std@@UBEPBDXZ			; std::exception::what
PUBLIC	??_Gexception@std@@UAEPAXI@Z			; std::exception::`scalar deleting destructor'
PUBLIC	??0bad_alloc@std@@QAE@ABV01@@Z			; std::bad_alloc::bad_alloc
PUBLIC	??_Gbad_alloc@std@@UAEPAXI@Z			; std::bad_alloc::`scalar deleting destructor'
PUBLIC	??0bad_array_new_length@std@@QAE@XZ		; std::bad_array_new_length::bad_array_new_length
PUBLIC	??1bad_array_new_length@std@@UAE@XZ		; std::bad_array_new_length::~bad_array_new_length
PUBLIC	??0bad_array_new_length@std@@QAE@ABV01@@Z	; std::bad_array_new_length::bad_array_new_length
PUBLIC	??_Gbad_array_new_length@std@@UAEPAXI@Z		; std::bad_array_new_length::`scalar deleting destructor'
PUBLIC	?_Throw_bad_array_new_length@std@@YAXXZ		; std::_Throw_bad_array_new_length
PUBLIC	?_Xlen_string@std@@YAXXZ			; std::_Xlen_string
PUBLIC	??4?$basic_string@DU?$char_traits@D@std@@V?$allocator@D@2@@std@@QAEAAV01@QBD@Z ; std::basic_string<char,std::char_traits<char>,std::allocator<char> >::operator=
PUBLIC	??0D3DXVECTOR3@@QAE@XZ				; D3DXVECTOR3::D3DXVECTOR3
PUBLIC	??1CFileIO@@UAE@XZ				; CFileIO::~CFileIO
PUBLIC	?Flush@CFileIO@@UAEHXZ				; CFileIO::Flush
PUBLIC	?GetC@CFileIO@@UAEDXZ				; CFileIO::GetC
PUBLIC	?GetW@CFileIO@@UAEGXZ				; CFileIO::GetW
PUBLIC	?GetDW@CFileIO@@UAEKXZ				; CFileIO::GetDW
PUBLIC	?Tell@CFileIO@@UAEJXZ				; CFileIO::Tell
PUBLIC	?Seek@CFileIO@@UAEHJH@Z				; CFileIO::Seek
PUBLIC	?GetLength@CFileIO@@UAEJXZ			; CFileIO::GetLength
PUBLIC	?Read@CFileIO@@UAEIPAXII@Z			; CFileIO::Read
PUBLIC	??_GCFileIO@@UAEPAXI@Z				; CFileIO::`scalar deleting destructor'
PUBLIC	??0REGIONELEM@@QAE@XZ				; REGIONELEM::REGIONELEM
PUBLIC	?_Xlength@?$vector@PAVCObj@@V?$allocator@PAVCObj@@@std@@@std@@CAXXZ ; std::vector<CObj *,std::allocator<CObj *> >::_Xlength
PUBLIC	?ReadWorld@CWorld@@QAEHABVCRect@@@Z		; CWorld::ReadWorld
PUBLIC	?DeleteLayerControls@CWorld@@QAEXH@Z		; CWorld::DeleteLayerControls
PUBLIC	?IsUsableDYO@CWorld@@QAEHPAVCObj@@@Z		; CWorld::IsUsableDYO
PUBLIC	?IsUsableDYO2@CWorld@@QAEHPAUtagCHARACTER@@@Z	; CWorld::IsUsableDYO2
PUBLIC	?OpenWorld@CWorld@@QAEHPBDH@Z			; CWorld::OpenWorld
PUBLIC	?OpenWorld@CWorld@@QAEHKH@Z			; CWorld::OpenWorld
PUBLIC	?HasNobody_Process@CWorld@@AAEHH@Z		; CWorld::HasNobody_Process
PUBLIC	?HasNoObj_Add@CWorld@@AAEHH@Z			; CWorld::HasNoObj_Add
PUBLIC	?HasNobody_Replace@CWorld@@AAEHH@Z		; CWorld::HasNobody_Replace
PUBLIC	?IsLayerPlayer@CWorld@@AAEHPAVCObj@@H@Z		; CWorld::IsLayerPlayer
PUBLIC	?HasNobody@CWorld@@QAEHH@Z			; CWorld::HasNobody
PUBLIC	?DriveOut@CWorld@@QAEXH@Z			; CWorld::DriveOut
PUBLIC	?LoadObject@CWorld@@QAEHH@Z			; CWorld::LoadObject
PUBLIC	?CreateLayer@CWorld@@QAEHH@Z			; CWorld::CreateLayer
PUBLIC	?ReleaseLayer@CWorld@@QAEHH@Z			; CWorld::ReleaseLayer
PUBLIC	?DestroyObj@CWorld@@QAEXH@Z			; CWorld::DestroyObj
PUBLIC	?ReadRegion@CWorld@@QAEHAAVCScript@@@Z		; CWorld::ReadRegion
PUBLIC	?ReadRespawn@CWorld@@QAEHAAVCScript@@@Z		; CWorld::ReadRespawn
PUBLIC	?LoadRegion@CWorld@@QAEHXZ			; CWorld::LoadRegion
PUBLIC	?LoadPatrol@CWorld@@QAEHXZ			; CWorld::LoadPatrol
PUBLIC	??$_Allocate_manually_vector_aligned@U_Default_allocate_traits@std@@@std@@YAPAXI@Z ; std::_Allocate_manually_vector_aligned<std::_Default_allocate_traits>
PUBLIC	?RegionDesc_SaveFormatToString@@YAXPA_W@Z	; RegionDesc_SaveFormatToString
PUBLIC	?RegionDesc_StringToSaveFormat@@YAXPA_W@Z	; RegionDesc_StringToSaveFormat
PUBLIC	??$_Emplace_reallocate@ABQAVCObj@@@?$vector@PAVCObj@@V?$allocator@PAVCObj@@@std@@@std@@AAEPAPAVCObj@@QAPAV2@ABQAV2@@Z ; std::vector<CObj *,std::allocator<CObj *> >::_Emplace_reallocate<CObj * const &>
PUBLIC	??$_Copy_memmove@PAPAVCObj@@PAPAV1@@std@@YAPAPAVCObj@@PAPAV1@00@Z ; std::_Copy_memmove<CObj * *,CObj * *>
PUBLIC	??$_Copy_memmove_tail@PAPAVCObj@@@std@@YAPAPAVCObj@@QBDQAPAV1@II@Z ; std::_Copy_memmove_tail<CObj * *>
PUBLIC	?_OptionsStorage@?1??__local_stdio_printf_options@@9@4_KA ; `__local_stdio_printf_options'::`2'::_OptionsStorage
PUBLIC	??_7exception@std@@6B@				; std::exception::`vftable'
PUBLIC	??_C@_0BC@EOODALEL@Unknown?5exception@		; `string'
PUBLIC	??_7bad_alloc@std@@6B@				; std::bad_alloc::`vftable'
PUBLIC	??_7bad_array_new_length@std@@6B@		; std::bad_array_new_length::`vftable'
PUBLIC	??_C@_0BF@KINCDENJ@bad?5array?5new?5length@	; `string'
PUBLIC	??_R0?AVexception@std@@@8			; std::exception `RTTI Type Descriptor'
PUBLIC	__CT??_R0?AVexception@std@@@8??0exception@std@@QAE@ABV01@@Z12
PUBLIC	__TI3?AVbad_array_new_length@std@@
PUBLIC	__CTA3?AVbad_array_new_length@std@@
PUBLIC	??_R0?AVbad_array_new_length@std@@@8		; std::bad_array_new_length `RTTI Type Descriptor'
PUBLIC	__CT??_R0?AVbad_array_new_length@std@@@8??0bad_array_new_length@std@@QAE@ABV01@@Z12
PUBLIC	??_R0?AVbad_alloc@std@@@8			; std::bad_alloc `RTTI Type Descriptor'
PUBLIC	__CT??_R0?AVbad_alloc@std@@@8??0bad_alloc@std@@QAE@ABV01@@Z12
PUBLIC	??_C@_0BA@JFNIOLAK@string?5too?5long@		; `string'
PUBLIC	??_7CFileIO@@6B@				; CFileIO::`vftable'
PUBLIC	??_C@_0BM@HMFGHCP@?$CFs?5min?3?$CFd?0?5max?3?$CFd?0?5index?3?$CFd@ ; `string'
PUBLIC	??_C@_0BJ@GKPOBPPI@GetMoverProp?5range_error@	; `string'
PUBLIC	??_C@_0BA@FOIKENOD@vector?5too?5long@		; `string'
PUBLIC	??_R4exception@std@@6B@				; std::exception::`RTTI Complete Object Locator'
PUBLIC	??_R3exception@std@@8				; std::exception::`RTTI Class Hierarchy Descriptor'
PUBLIC	??_R2exception@std@@8				; std::exception::`RTTI Base Class Array'
PUBLIC	??_R1A@?0A@EA@exception@std@@8			; std::exception::`RTTI Base Class Descriptor at (0,-1,0,64)'
PUBLIC	??_R4bad_array_new_length@std@@6B@		; std::bad_array_new_length::`RTTI Complete Object Locator'
PUBLIC	??_R3bad_array_new_length@std@@8		; std::bad_array_new_length::`RTTI Class Hierarchy Descriptor'
PUBLIC	??_R2bad_array_new_length@std@@8		; std::bad_array_new_length::`RTTI Base Class Array'
PUBLIC	??_R1A@?0A@EA@bad_array_new_length@std@@8	; std::bad_array_new_length::`RTTI Base Class Descriptor at (0,-1,0,64)'
PUBLIC	??_R1A@?0A@EA@bad_alloc@std@@8			; std::bad_alloc::`RTTI Base Class Descriptor at (0,-1,0,64)'
PUBLIC	??_R3bad_alloc@std@@8				; std::bad_alloc::`RTTI Class Hierarchy Descriptor'
PUBLIC	??_R2bad_alloc@std@@8				; std::bad_alloc::`RTTI Base Class Array'
PUBLIC	??_R4bad_alloc@std@@6B@				; std::bad_alloc::`RTTI Complete Object Locator'
PUBLIC	??_R4CFileIO@@6B@				; CFileIO::`RTTI Complete Object Locator'
PUBLIC	??_R0?AVCFileIO@@@8				; CFileIO `RTTI Type Descriptor'
PUBLIC	??_R3CFileIO@@8					; CFileIO::`RTTI Class Hierarchy Descriptor'
PUBLIC	??_R2CFileIO@@8					; CFileIO::`RTTI Base Class Array'
PUBLIC	??_R1A@?0A@EA@CFileIO@@8			; CFileIO::`RTTI Base Class Descriptor at (0,-1,0,64)'
PUBLIC	??_C@_01KICIPPFI@?2@				; `string'
PUBLIC	??_C@_04PBJIJNEF@?4wld@				; `string'
PUBLIC	??_C@_04IAGNFIBA@size@				; `string'
PUBLIC	??_C@_07LIABELBC@ambient@			; `string'
PUBLIC	??_C@_07CKHGFECF@revival@			; `string'
PUBLIC	??_C@_06BPDGOGCM@indoor@			; `string'
PUBLIC	??_C@_03HPMGHIMH@fly@				; `string'
PUBLIC	??_C@_03NCFPNHCE@bgm@				; `string'
PUBLIC	??_C@_06LJHLKHIE@pkmode@			; `string'
PUBLIC	??_C@_07KFBPAAO@diffuse@			; `string'
PUBLIC	??_C@_08IEJILPJD@lightDir@			; `string'
PUBLIC	??_C@_0L@IEOKJMIE@fogSetting@			; `string'
PUBLIC	??_C@_03BMLFCHKC@MPU@				; `string'
PUBLIC	??_C@_03BNEOMJOP@sky@				; `string'
PUBLIC	??_C@_05KMHBFKKJ@cloud@				; `string'
PUBLIC	??_C@_03OHFMDAD@sun@				; `string'
PUBLIC	??_C@_04IDMPJGHP@moon@				; `string'
PUBLIC	??_C@_0L@MLDBKMFO@use24light@			; `string'
PUBLIC	??_C@_08PEPEPPIG@?$CFs?$CFs?4pat@		; `string'
PUBLIC	??_C@_08JAIMAGBM@?$CFs?$CFs?4dyo@		; `string'
PUBLIC	??_C@_02JDPG@rb@				; `string'
PUBLIC	??_C@_07OAIJKKOJ@region2@			; `string'
PUBLIC	??_C@_07PJJCJLKI@region3@			; `string'
PUBLIC	??_C@_02PCIJFNDE@?$AN?6@			; `string'
PUBLIC	??_C@_02JOGGLHBA@?2n@				; `string'
PUBLIC	??_C@_08HEIJBNCJ@respawn2@			; `string'
PUBLIC	??_C@_08GNJCCMGI@respawn3@			; `string'
PUBLIC	??_C@_08CCNDLKKP@respawn4@			; `string'
PUBLIC	??_C@_08DLMIILOO@respawn5@			; `string'
PUBLIC	??_C@_08BAOFNICN@respawn6@			; `string'
PUBLIC	??_C@_08JPOOJGM@respawn7@			; `string'
PUBLIC	??_C@_0EA@DKDHDJBA@type?$DN?$CFd?0?5index?$DN?$CFd?0?5left?$DN?$CFd?0?5top@ ; `string'
PUBLIC	??_C@_08OKFNLBGE@?$CFs?$CFs?4rgn@		; `string'
PUBLIC	??_C@_06JEJEKGIK@region@			; `string'
PUBLIC	??_C@_07PABIOCAD@respawn@			; `string'
PUBLIC	??_C@_0BC@CNNIKIAG@?$CFs?$CFs?$CF02d?9?$CF02d?4lnd@ ; `string'
PUBLIC	??_C@_0L@HNBIHNDK@Npc_Reward@			; `string'
PUBLIC	??_C@_0N@ECDDLOKN@MaMa_PKNPC01@			; `string'
PUBLIC	??_C@_0O@JHMCKCLL@MaFl_GuildWar@		; `string'
PUBLIC	??_C@_0N@CFLHKDHL@MaFl_Donaris@			; `string'
PUBLIC	??_C@_0L@COKDNMAK@MaFl_Annie@			; `string'
PUBLIC	??_C@_09IJFDCBKI@MaFl_Amos@			; `string'
PUBLIC	??_C@_08BOCINMNN@MaFl_Ray@			; `string'
PUBLIC	??_C@_0BF@GIDCKINC@MaFl_SecretRoom_EAST@	; `string'
PUBLIC	??_C@_0BF@HKGPDCHN@MaDa_SecretRoom_WEST@	; `string'
PUBLIC	??_C@_0O@KLHPCLJ@MaFl_HairShop@			; `string'
PUBLIC	??_C@_0N@EABLOLBA@MaFl_FaceOff@			; `string'
PUBLIC	??_C@_0BC@FLMJHIEJ@MaFl_RainbowStart@		; `string'
PUBLIC	__real@3fe0000000000000
PUBLIC	__real@3fe6666666666666
PUBLIC	__xmm@ffffffffffffffffffffffffffffffff
EXTRN	??2@YAPAXI@Z:PROC				; operator new
EXTRN	??3@YAXPAXI@Z:PROC				; operator delete
EXTRN	??_U@YAPAXI@Z:PROC				; operator new[]
EXTRN	___std_terminate:PROC
EXTRN	__invalid_parameter_noinfo:PROC
EXTRN	__invoke_watson:PROC
EXTRN	__errno:PROC
EXTRN	_stricmp:PROC
EXTRN	__imp__OutputDebugStringA@4:PROC
EXTRN	__imp__LoadResource@8:PROC
EXTRN	__imp__LockResource@4:PROC
EXTRN	__imp__SizeofResource@8:PROC
EXTRN	__imp__FindResourceW@12:PROC
EXTRN	__imp__lstrlenA@4:PROC
EXTRN	__imp__WideCharToMultiByte@32:PROC
EXTRN	__mbscmp:PROC
EXTRN	__mbsstr:PROC
EXTRN	_getwc:PROC
EXTRN	_fflush:PROC
EXTRN	_fread:PROC
EXTRN	_fseek:PROC
EXTRN	_ftell:PROC
EXTRN	_getc:PROC
EXTRN	___stdio_common_vsprintf:PROC
EXTRN	___stdio_common_vsprintf_s:PROC
EXTRN	_fileno:PROC
EXTRN	_rand:PROC
EXTRN	__splitpath:PROC
EXTRN	?AfxThrowMemoryException@@YGXXZ:PROC		; AfxThrowMemoryException
EXTRN	?AfxThrowInvalidArgException@@YGXXZ:PROC	; AfxThrowInvalidArgException
EXTRN	?AfxThrowOleException@@YGXJ@Z:PROC		; AfxThrowOleException
EXTRN	?AfxFindStringResourceHandle@@YGPAUHINSTANCE__@@I@Z:PROC ; AfxFindStringResourceHandle
EXTRN	?AfxGetStringManager@@YGPAUIAtlStringMgr@ATL@@XZ:PROC ; AfxGetStringManager
EXTRN	___std_exception_copy:PROC
EXTRN	___std_exception_destroy:PROC
EXTRN	??_Eexception@std@@UAEPAXI@Z:PROC		; std::exception::`vector deleting destructor'
EXTRN	??_Ebad_alloc@std@@UAEPAXI@Z:PROC		; std::bad_alloc::`vector deleting destructor'
EXTRN	??_Ebad_array_new_length@std@@UAEPAXI@Z:PROC	; std::bad_array_new_length::`vector deleting destructor'
EXTRN	?_Xlength_error@std@@YAXPBD@Z:PROC		; std::_Xlength_error
EXTRN	__filelength:PROC
EXTRN	?Open@CFileIO@@UAEHPBDPAD@Z:PROC		; CFileIO::Open
EXTRN	?Close@CFileIO@@UAEHXZ:PROC			; CFileIO::Close
EXTRN	?Read@CFileIO@@UAEPAXXZ:PROC			; CFileIO::Read
EXTRN	??_ECFileIO@@UAEPAXI@Z:PROC			; CFileIO::`vector deleting destructor'
EXTRN	?GetNumber@CScanner@@QAEHH@Z:PROC		; CScanner::GetNumber
EXTRN	?GetFloat@CScanner@@QAEMH@Z:PROC		; CScanner::GetFloat
EXTRN	?GetHex@CScanner@@QAEKH@Z:PROC			; CScanner::GetHex
EXTRN	??0CScript@@QAE@H@Z:PROC			; CScript::CScript
EXTRN	??1CScript@@UAE@XZ:PROC				; CScript::~CScript
EXTRN	?Load@CScript@@QAEHPBDHH@Z:PROC			; CScript::Load
EXTRN	?GetToken@CScript@@UAEHH@Z:PROC			; CScript::GetToken
EXTRN	?Error@@YAPBDPBDZZ:PROC				; Error
EXTRN	?GetLanguage@@YAHXZ:PROC			; GetLanguage
EXTRN	?GetSubLanguage@@YAHXZ:PROC			; GetSubLanguage
EXTRN	?UpdateLocalMatrix@CObj@@QAEXXZ:PROC		; CObj::UpdateLocalMatrix
EXTRN	?Delete@CObj@@QAEXXZ:PROC			; CObj::Delete
EXTRN	?SetPos@CObj@@QAEXABUD3DXVECTOR3@@@Z:PROC	; CObj::SetPos
EXTRN	?SetAngle@CObj@@QAEXM@Z:PROC			; CObj::SetAngle
EXTRN	?SetWorld@CObj@@QAEXPAVCWorld@@@Z:PROC		; CObj::SetWorld
EXTRN	?GetCharacter@CMover@@QAEPAUtagCHARACTER@@XZ:PROC ; CMover::GetCharacter
EXTRN	?Replace@CMover@@QAEHKKAAUD3DXVECTOR3@@W4REPLACE_TYPE@@H@Z:PROC ; CMover::Replace
EXTRN	??0CRespawnInfo@@QAE@XZ:PROC			; CRespawnInfo::CRespawnInfo
EXTRN	??1CRespawnInfo@@UAE@XZ:PROC			; CRespawnInfo::~CRespawnInfo
EXTRN	?GenResPoint@CRespawnInfo@@QAEHPAVCWorld@@@Z:PROC ; CRespawnInfo::GenResPoint
EXTRN	?Add@CLayerdRespawner@@QAEHAAVCRespawnInfo@@H@Z:PROC ; CLayerdRespawner::Add
EXTRN	?Expand@CLayerdRespawner@@QAEXH@Z:PROC		; CLayerdRespawner::Expand
EXTRN	?Release@CLayerdRespawner@@QAEXH@Z:PROC		; CLayerdRespawner::Release
EXTRN	?Init@CLayeredLinkMap@@QAEXHHHHH@Z:PROC		; CLayeredLinkMap::Init
EXTRN	?CreateLinkMap@CLayeredLinkMap@@QAEHH@Z:PROC	; CLayeredLinkMap::CreateLinkMap
EXTRN	?DeleteLinkMap@CLayeredLinkMap@@QAEXH@Z:PROC	; CLayeredLinkMap::DeleteLinkMap
EXTRN	?Invalidate@CLayeredLinkMap@@QAEXHH@Z:PROC	; CLayeredLinkMap::Invalidate
EXTRN	?CalcBound@CWorld@@QAEXXZ:PROC			; CWorld::CalcBound
EXTRN	?AddObj@CWorld@@QAEHPAVCObj@@HH@Z:PROC		; CWorld::AddObj
EXTRN	?DestroyObj@CWorld@@QAEXPAVCObj@@@Z:PROC	; CWorld::DestroyObj
EXTRN	?InsertObjLink@CWorld@@QAEHPAVCObj@@@Z:PROC	; CWorld::InsertObjLink
EXTRN	?Expand@CWorld@@QAEXXZ:PROC			; CWorld::Expand
EXTRN	?GetInstance@CPatrolPath@@SAPAV1@XZ:PROC	; CPatrolPath::GetInstance
EXTRN	?LoadPatrol@CPatrolPath@@QAEHPBD@Z:PROC		; CPatrolPath::LoadPatrol
EXTRN	?ReadObj@@YAPAVCObj@@PAVCFileIO@@@Z:PROC	; ReadObj
EXTRN	?GetState@CFlyffEvent@@QAEEH@Z:PROC		; CFlyffEvent::GetState
EXTRN	?HasNobody_Replace@CWorldMng@@QAEHKH@Z:PROC	; CWorldMng::HasNobody_Replace
EXTRN	?AddMapCheckInfo@CWorldMng@@QAEXPBD@Z:PROC	; CWorldMng::AddMapCheckInfo
EXTRN	?GetInstance@CHousingMng@@SAPAV1@XZ:PROC	; CHousingMng::GetInstance
EXTRN	?GoOut@CHousingMng@@QAEXPAVCUser@@@Z:PROC	; CHousingMng::GoOut
EXTRN	?GetInstance@CGuildHouseMng@@SAPAV1@XZ:PROC	; CGuildHouseMng::GetInstance
EXTRN	?IsGuildHouse@CGuildHouseMng@@QAEHK@Z:PROC	; CGuildHouseMng::IsGuildHouse
EXTRN	?GetInstance@CInstanceDungeonHelper@@SAPAV1@XZ:PROC ; CInstanceDungeonHelper::GetInstance
EXTRN	?GoOut@CInstanceDungeonHelper@@QAEXPAVCUser@@@Z:PROC ; CInstanceDungeonHelper::GoOut
EXTRN	?GetType@CInstanceDungeonHelper@@AAEHK@Z:PROC	; CInstanceDungeonHelper::GetType
EXTRN	@__security_check_cookie@4:PROC
EXTRN	__CxxThrowException@8:PROC
EXTRN	___CxxFrameHandler3:PROC
EXTRN	__chkstk:PROC
EXTRN	_memcpy:PROC
EXTRN	_memmove:PROC
EXTRN	_memset:PROC
EXTRN	??_7type_info@@6B@:QWORD			; type_info::`vftable'
EXTRN	?OLD_MPU@@3HB:DWORD				; OLD_MPU
EXTRN	?g_MPU@@3HA:DWORD				; g_MPU
EXTRN	?prj@@3VCProject@@A:BYTE			; prj
EXTRN	?g_uIdofMulti@@3KA:DWORD			; g_uIdofMulti
EXTRN	?g_eLocal@@3VCFlyffEvent@@A:BYTE		; g_eLocal
EXTRN	?g_WorldMng@@3VCWorldMng@@A:BYTE		; g_WorldMng
EXTRN	___security_cookie:DWORD
EXTRN	__fltused:DWORD
;	COMDAT ?_OptionsStorage@?1??__local_stdio_printf_options@@9@4_KA
_BSS	SEGMENT
?_OptionsStorage@?1??__local_stdio_printf_options@@9@4_KA DQ 01H DUP (?) ; `__local_stdio_printf_options'::`2'::_OptionsStorage
_BSS	ENDS
;	COMDAT __xmm@ffffffffffffffffffffffffffffffff
CONST	SEGMENT
__xmm@ffffffffffffffffffffffffffffffff DB 0ffH, 0ffH, 0ffH, 0ffH, 0ffH, 0ffH
	DB	0ffH, 0ffH, 0ffH, 0ffH, 0ffH, 0ffH, 0ffH, 0ffH, 0ffH, 0ffH
CONST	ENDS
;	COMDAT __real@3fe6666666666666
CONST	SEGMENT
__real@3fe6666666666666 DQ 03fe6666666666666r	; 0.7
CONST	ENDS
;	COMDAT __real@3fe0000000000000
CONST	SEGMENT
__real@3fe0000000000000 DQ 03fe0000000000000r	; 0.5
CONST	ENDS
;	COMDAT ??_C@_0BC@FLMJHIEJ@MaFl_RainbowStart@
CONST	SEGMENT
??_C@_0BC@FLMJHIEJ@MaFl_RainbowStart@ DB 'MaFl_RainbowStart', 00H ; `string'
CONST	ENDS
;	COMDAT ??_C@_0N@EABLOLBA@MaFl_FaceOff@
CONST	SEGMENT
??_C@_0N@EABLOLBA@MaFl_FaceOff@ DB 'MaFl_FaceOff', 00H	; `string'
CONST	ENDS
;	COMDAT ??_C@_0O@KLHPCLJ@MaFl_HairShop@
CONST	SEGMENT
??_C@_0O@KLHPCLJ@MaFl_HairShop@ DB 'MaFl_HairShop', 00H	; `string'
CONST	ENDS
;	COMDAT ??_C@_0BF@HKGPDCHN@MaDa_SecretRoom_WEST@
CONST	SEGMENT
??_C@_0BF@HKGPDCHN@MaDa_SecretRoom_WEST@ DB 'MaDa_SecretRoom_WEST', 00H ; `string'
CONST	ENDS
;	COMDAT ??_C@_0BF@GIDCKINC@MaFl_SecretRoom_EAST@
CONST	SEGMENT
??_C@_0BF@GIDCKINC@MaFl_SecretRoom_EAST@ DB 'MaFl_SecretRoom_EAST', 00H ; `string'
CONST	ENDS
;	COMDAT ??_C@_08BOCINMNN@MaFl_Ray@
CONST	SEGMENT
??_C@_08BOCINMNN@MaFl_Ray@ DB 'MaFl_Ray', 00H		; `string'
CONST	ENDS
;	COMDAT ??_C@_09IJFDCBKI@MaFl_Amos@
CONST	SEGMENT
??_C@_09IJFDCBKI@MaFl_Amos@ DB 'MaFl_Amos', 00H		; `string'
CONST	ENDS
;	COMDAT ??_C@_0L@COKDNMAK@MaFl_Annie@
CONST	SEGMENT
??_C@_0L@COKDNMAK@MaFl_Annie@ DB 'MaFl_Annie', 00H	; `string'
CONST	ENDS
;	COMDAT ??_C@_0N@CFLHKDHL@MaFl_Donaris@
CONST	SEGMENT
??_C@_0N@CFLHKDHL@MaFl_Donaris@ DB 'MaFl_Donaris', 00H	; `string'
CONST	ENDS
;	COMDAT ??_C@_0O@JHMCKCLL@MaFl_GuildWar@
CONST	SEGMENT
??_C@_0O@JHMCKCLL@MaFl_GuildWar@ DB 'MaFl_GuildWar', 00H ; `string'
CONST	ENDS
;	COMDAT ??_C@_0N@ECDDLOKN@MaMa_PKNPC01@
CONST	SEGMENT
??_C@_0N@ECDDLOKN@MaMa_PKNPC01@ DB 'MaMa_PKNPC01', 00H	; `string'
CONST	ENDS
;	COMDAT ??_C@_0L@HNBIHNDK@Npc_Reward@
CONST	SEGMENT
??_C@_0L@HNBIHNDK@Npc_Reward@ DB 'Npc_Reward', 00H	; `string'
CONST	ENDS
;	COMDAT ??_C@_0BC@CNNIKIAG@?$CFs?$CFs?$CF02d?9?$CF02d?4lnd@
CONST	SEGMENT
??_C@_0BC@CNNIKIAG@?$CFs?$CFs?$CF02d?9?$CF02d?4lnd@ DB '%s%s%02d-%02d.lnd'
	DB	00H						; `string'
CONST	ENDS
;	COMDAT ??_C@_07PABIOCAD@respawn@
CONST	SEGMENT
??_C@_07PABIOCAD@respawn@ DB 'respawn', 00H		; `string'
CONST	ENDS
;	COMDAT ??_C@_06JEJEKGIK@region@
CONST	SEGMENT
??_C@_06JEJEKGIK@region@ DB 'region', 00H		; `string'
CONST	ENDS
;	COMDAT ??_C@_08OKFNLBGE@?$CFs?$CFs?4rgn@
CONST	SEGMENT
??_C@_08OKFNLBGE@?$CFs?$CFs?4rgn@ DB '%s%s.rgn', 00H	; `string'
CONST	ENDS
;	COMDAT ??_C@_0EA@DKDHDJBA@type?$DN?$CFd?0?5index?$DN?$CFd?0?5left?$DN?$CFd?0?5top@
CONST	SEGMENT
??_C@_0EA@DKDHDJBA@type?$DN?$CFd?0?5index?$DN?$CFd?0?5left?$DN?$CFd?0?5top@ DB 't'
	DB	'ype=%d, index=%d, left=%d, top=%d, right=%d, bottom=%d, num=%'
	DB	'd', 00H					; `string'
CONST	ENDS
;	COMDAT ??_C@_08JPOOJGM@respawn7@
CONST	SEGMENT
??_C@_08JPOOJGM@respawn7@ DB 'respawn7', 00H		; `string'
CONST	ENDS
;	COMDAT ??_C@_08BAOFNICN@respawn6@
CONST	SEGMENT
??_C@_08BAOFNICN@respawn6@ DB 'respawn6', 00H		; `string'
CONST	ENDS
;	COMDAT ??_C@_08DLMIILOO@respawn5@
CONST	SEGMENT
??_C@_08DLMIILOO@respawn5@ DB 'respawn5', 00H		; `string'
CONST	ENDS
;	COMDAT ??_C@_08CCNDLKKP@respawn4@
CONST	SEGMENT
??_C@_08CCNDLKKP@respawn4@ DB 'respawn4', 00H		; `string'
CONST	ENDS
;	COMDAT ??_C@_08GNJCCMGI@respawn3@
CONST	SEGMENT
??_C@_08GNJCCMGI@respawn3@ DB 'respawn3', 00H		; `string'
CONST	ENDS
;	COMDAT ??_C@_08HEIJBNCJ@respawn2@
CONST	SEGMENT
??_C@_08HEIJBNCJ@respawn2@ DB 'respawn2', 00H		; `string'
CONST	ENDS
;	COMDAT ??_C@_02JOGGLHBA@?2n@
CONST	SEGMENT
??_C@_02JOGGLHBA@?2n@ DB '\n', 00H			; `string'
CONST	ENDS
;	COMDAT ??_C@_02PCIJFNDE@?$AN?6@
CONST	SEGMENT
??_C@_02PCIJFNDE@?$AN?6@ DB 0dH, 0aH, 00H		; `string'
CONST	ENDS
;	COMDAT ??_C@_07PJJCJLKI@region3@
CONST	SEGMENT
??_C@_07PJJCJLKI@region3@ DB 'region3', 00H		; `string'
CONST	ENDS
;	COMDAT ??_C@_07OAIJKKOJ@region2@
CONST	SEGMENT
??_C@_07OAIJKKOJ@region2@ DB 'region2', 00H		; `string'
CONST	ENDS
;	COMDAT ??_C@_02JDPG@rb@
CONST	SEGMENT
??_C@_02JDPG@rb@ DB 'rb', 00H				; `string'
CONST	ENDS
;	COMDAT ??_C@_08JAIMAGBM@?$CFs?$CFs?4dyo@
CONST	SEGMENT
??_C@_08JAIMAGBM@?$CFs?$CFs?4dyo@ DB '%s%s.dyo', 00H	; `string'
CONST	ENDS
;	COMDAT ??_C@_08PEPEPPIG@?$CFs?$CFs?4pat@
CONST	SEGMENT
??_C@_08PEPEPPIG@?$CFs?$CFs?4pat@ DB '%s%s.pat', 00H	; `string'
CONST	ENDS
;	COMDAT ??_C@_0L@MLDBKMFO@use24light@
CONST	SEGMENT
??_C@_0L@MLDBKMFO@use24light@ DB 'use24light', 00H	; `string'
CONST	ENDS
;	COMDAT ??_C@_04IDMPJGHP@moon@
CONST	SEGMENT
??_C@_04IDMPJGHP@moon@ DB 'moon', 00H			; `string'
CONST	ENDS
;	COMDAT ??_C@_03OHFMDAD@sun@
CONST	SEGMENT
??_C@_03OHFMDAD@sun@ DB 'sun', 00H			; `string'
CONST	ENDS
;	COMDAT ??_C@_05KMHBFKKJ@cloud@
CONST	SEGMENT
??_C@_05KMHBFKKJ@cloud@ DB 'cloud', 00H			; `string'
CONST	ENDS
;	COMDAT ??_C@_03BNEOMJOP@sky@
CONST	SEGMENT
??_C@_03BNEOMJOP@sky@ DB 'sky', 00H			; `string'
CONST	ENDS
;	COMDAT ??_C@_03BMLFCHKC@MPU@
CONST	SEGMENT
??_C@_03BMLFCHKC@MPU@ DB 'MPU', 00H			; `string'
CONST	ENDS
;	COMDAT ??_C@_0L@IEOKJMIE@fogSetting@
CONST	SEGMENT
??_C@_0L@IEOKJMIE@fogSetting@ DB 'fogSetting', 00H	; `string'
CONST	ENDS
;	COMDAT ??_C@_08IEJILPJD@lightDir@
CONST	SEGMENT
??_C@_08IEJILPJD@lightDir@ DB 'lightDir', 00H		; `string'
CONST	ENDS
;	COMDAT ??_C@_07KFBPAAO@diffuse@
CONST	SEGMENT
??_C@_07KFBPAAO@diffuse@ DB 'diffuse', 00H		; `string'
CONST	ENDS
;	COMDAT ??_C@_06LJHLKHIE@pkmode@
CONST	SEGMENT
??_C@_06LJHLKHIE@pkmode@ DB 'pkmode', 00H		; `string'
CONST	ENDS
;	COMDAT ??_C@_03NCFPNHCE@bgm@
CONST	SEGMENT
??_C@_03NCFPNHCE@bgm@ DB 'bgm', 00H			; `string'
CONST	ENDS
;	COMDAT ??_C@_03HPMGHIMH@fly@
CONST	SEGMENT
??_C@_03HPMGHIMH@fly@ DB 'fly', 00H			; `string'
CONST	ENDS
;	COMDAT ??_C@_06BPDGOGCM@indoor@
CONST	SEGMENT
??_C@_06BPDGOGCM@indoor@ DB 'indoor', 00H		; `string'
CONST	ENDS
;	COMDAT ??_C@_07CKHGFECF@revival@
CONST	SEGMENT
??_C@_07CKHGFECF@revival@ DB 'revival', 00H		; `string'
CONST	ENDS
;	COMDAT ??_C@_07LIABELBC@ambient@
CONST	SEGMENT
??_C@_07LIABELBC@ambient@ DB 'ambient', 00H		; `string'
CONST	ENDS
;	COMDAT ??_C@_04IAGNFIBA@size@
CONST	SEGMENT
??_C@_04IAGNFIBA@size@ DB 'size', 00H			; `string'
CONST	ENDS
;	COMDAT ??_C@_04PBJIJNEF@?4wld@
CONST	SEGMENT
??_C@_04PBJIJNEF@?4wld@ DB '.wld', 00H			; `string'
CONST	ENDS
;	COMDAT ??_C@_01KICIPPFI@?2@
CONST	SEGMENT
??_C@_01KICIPPFI@?2@ DB '\', 00H			; `string'
CONST	ENDS
;	COMDAT ??_R1A@?0A@EA@CFileIO@@8
rdata$r	SEGMENT
??_R1A@?0A@EA@CFileIO@@8 DD FLAT:??_R0?AVCFileIO@@@8	; CFileIO::`RTTI Base Class Descriptor at (0,-1,0,64)'
	DD	00H
	DD	00H
	DD	0ffffffffH
	DD	00H
	DD	040H
	DD	FLAT:??_R3CFileIO@@8
rdata$r	ENDS
;	COMDAT ??_R2CFileIO@@8
rdata$r	SEGMENT
??_R2CFileIO@@8 DD FLAT:??_R1A@?0A@EA@CFileIO@@8	; CFileIO::`RTTI Base Class Array'
rdata$r	ENDS
;	COMDAT ??_R3CFileIO@@8
rdata$r	SEGMENT
??_R3CFileIO@@8 DD 00H					; CFileIO::`RTTI Class Hierarchy Descriptor'
	DD	00H
	DD	01H
	DD	FLAT:??_R2CFileIO@@8
rdata$r	ENDS
;	COMDAT ??_R0?AVCFileIO@@@8
data$rs	SEGMENT
??_R0?AVCFileIO@@@8 DD FLAT:??_7type_info@@6B@		; CFileIO `RTTI Type Descriptor'
	DD	00H
	DB	'.?AVCFileIO@@', 00H
data$rs	ENDS
;	COMDAT ??_R4CFileIO@@6B@
rdata$r	SEGMENT
??_R4CFileIO@@6B@ DD 00H				; CFileIO::`RTTI Complete Object Locator'
	DD	00H
	DD	00H
	DD	FLAT:??_R0?AVCFileIO@@@8
	DD	FLAT:??_R3CFileIO@@8
rdata$r	ENDS
;	COMDAT ??_R4bad_alloc@std@@6B@
rdata$r	SEGMENT
??_R4bad_alloc@std@@6B@ DD 00H				; std::bad_alloc::`RTTI Complete Object Locator'
	DD	00H
	DD	00H
	DD	FLAT:??_R0?AVbad_alloc@std@@@8
	DD	FLAT:??_R3bad_alloc@std@@8
rdata$r	ENDS
;	COMDAT ??_R2bad_alloc@std@@8
rdata$r	SEGMENT
??_R2bad_alloc@std@@8 DD FLAT:??_R1A@?0A@EA@bad_alloc@std@@8 ; std::bad_alloc::`RTTI Base Class Array'
	DD	FLAT:??_R1A@?0A@EA@exception@std@@8
rdata$r	ENDS
;	COMDAT ??_R3bad_alloc@std@@8
rdata$r	SEGMENT
??_R3bad_alloc@std@@8 DD 00H				; std::bad_alloc::`RTTI Class Hierarchy Descriptor'
	DD	00H
	DD	02H
	DD	FLAT:??_R2bad_alloc@std@@8
rdata$r	ENDS
;	COMDAT ??_R1A@?0A@EA@bad_alloc@std@@8
rdata$r	SEGMENT
??_R1A@?0A@EA@bad_alloc@std@@8 DD FLAT:??_R0?AVbad_alloc@std@@@8 ; std::bad_alloc::`RTTI Base Class Descriptor at (0,-1,0,64)'
	DD	01H
	DD	00H
	DD	0ffffffffH
	DD	00H
	DD	040H
	DD	FLAT:??_R3bad_alloc@std@@8
rdata$r	ENDS
;	COMDAT ??_R1A@?0A@EA@bad_array_new_length@std@@8
rdata$r	SEGMENT
??_R1A@?0A@EA@bad_array_new_length@std@@8 DD FLAT:??_R0?AVbad_array_new_length@std@@@8 ; std::bad_array_new_length::`RTTI Base Class Descriptor at (0,-1,0,64)'
	DD	02H
	DD	00H
	DD	0ffffffffH
	DD	00H
	DD	040H
	DD	FLAT:??_R3bad_array_new_length@std@@8
rdata$r	ENDS
;	COMDAT ??_R2bad_array_new_length@std@@8
rdata$r	SEGMENT
??_R2bad_array_new_length@std@@8 DD FLAT:??_R1A@?0A@EA@bad_array_new_length@std@@8 ; std::bad_array_new_length::`RTTI Base Class Array'
	DD	FLAT:??_R1A@?0A@EA@bad_alloc@std@@8
	DD	FLAT:??_R1A@?0A@EA@exception@std@@8
rdata$r	ENDS
;	COMDAT ??_R3bad_array_new_length@std@@8
rdata$r	SEGMENT
??_R3bad_array_new_length@std@@8 DD 00H			; std::bad_array_new_length::`RTTI Class Hierarchy Descriptor'
	DD	00H
	DD	03H
	DD	FLAT:??_R2bad_array_new_length@std@@8
rdata$r	ENDS
;	COMDAT ??_R4bad_array_new_length@std@@6B@
rdata$r	SEGMENT
??_R4bad_array_new_length@std@@6B@ DD 00H		; std::bad_array_new_length::`RTTI Complete Object Locator'
	DD	00H
	DD	00H
	DD	FLAT:??_R0?AVbad_array_new_length@std@@@8
	DD	FLAT:??_R3bad_array_new_length@std@@8
rdata$r	ENDS
;	COMDAT ??_R1A@?0A@EA@exception@std@@8
rdata$r	SEGMENT
??_R1A@?0A@EA@exception@std@@8 DD FLAT:??_R0?AVexception@std@@@8 ; std::exception::`RTTI Base Class Descriptor at (0,-1,0,64)'
	DD	00H
	DD	00H
	DD	0ffffffffH
	DD	00H
	DD	040H
	DD	FLAT:??_R3exception@std@@8
rdata$r	ENDS
;	COMDAT ??_R2exception@std@@8
rdata$r	SEGMENT
??_R2exception@std@@8 DD FLAT:??_R1A@?0A@EA@exception@std@@8 ; std::exception::`RTTI Base Class Array'
rdata$r	ENDS
;	COMDAT ??_R3exception@std@@8
rdata$r	SEGMENT
??_R3exception@std@@8 DD 00H				; std::exception::`RTTI Class Hierarchy Descriptor'
	DD	00H
	DD	01H
	DD	FLAT:??_R2exception@std@@8
rdata$r	ENDS
;	COMDAT ??_R4exception@std@@6B@
rdata$r	SEGMENT
??_R4exception@std@@6B@ DD 00H				; std::exception::`RTTI Complete Object Locator'
	DD	00H
	DD	00H
	DD	FLAT:??_R0?AVexception@std@@@8
	DD	FLAT:??_R3exception@std@@8
rdata$r	ENDS
;	COMDAT ??_C@_0BA@FOIKENOD@vector?5too?5long@
CONST	SEGMENT
??_C@_0BA@FOIKENOD@vector?5too?5long@ DB 'vector too long', 00H ; `string'
CONST	ENDS
;	COMDAT ??_C@_0BJ@GKPOBPPI@GetMoverProp?5range_error@
CONST	SEGMENT
??_C@_0BJ@GKPOBPPI@GetMoverProp?5range_error@ DB 'GetMoverProp range_erro'
	DB	'r', 00H					; `string'
CONST	ENDS
;	COMDAT ??_C@_0BM@HMFGHCP@?$CFs?5min?3?$CFd?0?5max?3?$CFd?0?5index?3?$CFd@
CONST	SEGMENT
??_C@_0BM@HMFGHCP@?$CFs?5min?3?$CFd?0?5max?3?$CFd?0?5index?3?$CFd@ DB '%s'
	DB	' min:%d, max:%d, index:%d', 00H		; `string'
CONST	ENDS
;	COMDAT ??_7CFileIO@@6B@
CONST	SEGMENT
??_7CFileIO@@6B@ DD FLAT:??_R4CFileIO@@6B@		; CFileIO::`vftable'
	DD	FLAT:??_ECFileIO@@UAEPAXI@Z
	DD	FLAT:?Open@CFileIO@@UAEHPBDPAD@Z
	DD	FLAT:?Close@CFileIO@@UAEHXZ
	DD	FLAT:?Flush@CFileIO@@UAEHXZ
	DD	FLAT:?GetC@CFileIO@@UAEDXZ
	DD	FLAT:?GetW@CFileIO@@UAEGXZ
	DD	FLAT:?GetDW@CFileIO@@UAEKXZ
	DD	FLAT:?Tell@CFileIO@@UAEJXZ
	DD	FLAT:?Seek@CFileIO@@UAEHJH@Z
	DD	FLAT:?GetLength@CFileIO@@UAEJXZ
	DD	FLAT:?Read@CFileIO@@UAEPAXXZ
	DD	FLAT:?Read@CFileIO@@UAEIPAXII@Z
CONST	ENDS
;	COMDAT ??_C@_0BA@JFNIOLAK@string?5too?5long@
CONST	SEGMENT
??_C@_0BA@JFNIOLAK@string?5too?5long@ DB 'string too long', 00H ; `string'
CONST	ENDS
;	COMDAT __CT??_R0?AVbad_alloc@std@@@8??0bad_alloc@std@@QAE@ABV01@@Z12
xdata$x	SEGMENT
__CT??_R0?AVbad_alloc@std@@@8??0bad_alloc@std@@QAE@ABV01@@Z12 DD 010H
	DD	FLAT:??_R0?AVbad_alloc@std@@@8
	DD	00H
	DD	0ffffffffH
	ORG $+4
	DD	0cH
	DD	FLAT:??0bad_alloc@std@@QAE@ABV01@@Z
xdata$x	ENDS
;	COMDAT ??_R0?AVbad_alloc@std@@@8
data$r	SEGMENT
??_R0?AVbad_alloc@std@@@8 DD FLAT:??_7type_info@@6B@	; std::bad_alloc `RTTI Type Descriptor'
	DD	00H
	DB	'.?AVbad_alloc@std@@', 00H
data$r	ENDS
;	COMDAT __CT??_R0?AVbad_array_new_length@std@@@8??0bad_array_new_length@std@@QAE@ABV01@@Z12
xdata$x	SEGMENT
__CT??_R0?AVbad_array_new_length@std@@@8??0bad_array_new_length@std@@QAE@ABV01@@Z12 DD 00H
	DD	FLAT:??_R0?AVbad_array_new_length@std@@@8
	DD	00H
	DD	0ffffffffH
	ORG $+4
	DD	0cH
	DD	FLAT:??0bad_array_new_length@std@@QAE@ABV01@@Z
xdata$x	ENDS
;	COMDAT ??_R0?AVbad_array_new_length@std@@@8
data$r	SEGMENT
??_R0?AVbad_array_new_length@std@@@8 DD FLAT:??_7type_info@@6B@ ; std::bad_array_new_length `RTTI Type Descriptor'
	DD	00H
	DB	'.?AVbad_array_new_length@std@@', 00H
data$r	ENDS
;	COMDAT __CTA3?AVbad_array_new_length@std@@
xdata$x	SEGMENT
__CTA3?AVbad_array_new_length@std@@ DD 03H
	DD	FLAT:__CT??_R0?AVbad_array_new_length@std@@@8??0bad_array_new_length@std@@QAE@ABV01@@Z12
	DD	FLAT:__CT??_R0?AVbad_alloc@std@@@8??0bad_alloc@std@@QAE@ABV01@@Z12
	DD	FLAT:__CT??_R0?AVexception@std@@@8??0exception@std@@QAE@ABV01@@Z12
xdata$x	ENDS
;	COMDAT __TI3?AVbad_array_new_length@std@@
xdata$x	SEGMENT
__TI3?AVbad_array_new_length@std@@ DD 00H
	DD	FLAT:??1bad_array_new_length@std@@UAE@XZ
	DD	00H
	DD	FLAT:__CTA3?AVbad_array_new_length@std@@
xdata$x	ENDS
;	COMDAT __CT??_R0?AVexception@std@@@8??0exception@std@@QAE@ABV01@@Z12
xdata$x	SEGMENT
__CT??_R0?AVexception@std@@@8??0exception@std@@QAE@ABV01@@Z12 DD 00H
	DD	FLAT:??_R0?AVexception@std@@@8
	DD	00H
	DD	0ffffffffH
	ORG $+4
	DD	0cH
	DD	FLAT:??0exception@std@@QAE@ABV01@@Z
xdata$x	ENDS
;	COMDAT ??_R0?AVexception@std@@@8
data$r	SEGMENT
??_R0?AVexception@std@@@8 DD FLAT:??_7type_info@@6B@	; std::exception `RTTI Type Descriptor'
	DD	00H
	DB	'.?AVexception@std@@', 00H
data$r	ENDS
;	COMDAT ??_C@_0BF@KINCDENJ@bad?5array?5new?5length@
CONST	SEGMENT
??_C@_0BF@KINCDENJ@bad?5array?5new?5length@ DB 'bad array new length', 00H ; `string'
CONST	ENDS
;	COMDAT ??_7bad_array_new_length@std@@6B@
CONST	SEGMENT
??_7bad_array_new_length@std@@6B@ DD FLAT:??_R4bad_array_new_length@std@@6B@ ; std::bad_array_new_length::`vftable'
	DD	FLAT:??_Ebad_array_new_length@std@@UAEPAXI@Z
	DD	FLAT:?what@exception@std@@UBEPBDXZ
CONST	ENDS
;	COMDAT ??_7bad_alloc@std@@6B@
CONST	SEGMENT
??_7bad_alloc@std@@6B@ DD FLAT:??_R4bad_alloc@std@@6B@	; std::bad_alloc::`vftable'
	DD	FLAT:??_Ebad_alloc@std@@UAEPAXI@Z
	DD	FLAT:?what@exception@std@@UBEPBDXZ
CONST	ENDS
;	COMDAT ??_C@_0BC@EOODALEL@Unknown?5exception@
CONST	SEGMENT
??_C@_0BC@EOODALEL@Unknown?5exception@ DB 'Unknown exception', 00H ; `string'
CONST	ENDS
;	COMDAT ??_7exception@std@@6B@
CONST	SEGMENT
??_7exception@std@@6B@ DD FLAT:??_R4exception@std@@6B@	; std::exception::`vftable'
	DD	FLAT:??_Eexception@std@@UAEPAXI@Z
	DD	FLAT:?what@exception@std@@UBEPBDXZ
CONST	ENDS
;	COMDAT xdata$x
xdata$x	SEGMENT
__unwindtable$?LoadPatrol@CWorld@@QAEHXZ DD 0ffffffffH
	DD	FLAT:__unwindfunclet$?LoadPatrol@CWorld@@QAEHXZ$2
	DD	0ffffffffH
	DD	FLAT:__unwindfunclet$?LoadPatrol@CWorld@@QAEHXZ$0
	DD	01H
	DD	FLAT:__unwindfunclet$?LoadPatrol@CWorld@@QAEHXZ$1
__ehfuncinfo$?LoadPatrol@CWorld@@QAEHXZ DD 019930522H
	DD	03H
	DD	FLAT:__unwindtable$?LoadPatrol@CWorld@@QAEHXZ
	DD	2 DUP(00H)
	DD	2 DUP(00H)
	DD	00H
	DD	01H
xdata$x	ENDS
;	COMDAT xdata$x
xdata$x	SEGMENT
__unwindtable$?LoadRegion@CWorld@@QAEHXZ DD 0ffffffffH
	DD	FLAT:__unwindfunclet$?LoadRegion@CWorld@@QAEHXZ$3
	DD	0ffffffffH
	DD	FLAT:__unwindfunclet$?LoadRegion@CWorld@@QAEHXZ$0
	DD	01H
	DD	FLAT:__unwindfunclet$?LoadRegion@CWorld@@QAEHXZ$1
	DD	02H
	DD	FLAT:__unwindfunclet$?LoadRegion@CWorld@@QAEHXZ$2
__ehfuncinfo$?LoadRegion@CWorld@@QAEHXZ DD 019930522H
	DD	04H
	DD	FLAT:__unwindtable$?LoadRegion@CWorld@@QAEHXZ
	DD	2 DUP(00H)
	DD	2 DUP(00H)
	DD	00H
	DD	01H
xdata$x	ENDS
;	COMDAT voltbl
voltbl	SEGMENT
_volmd	DW	0145H
	DW	016aH
voltbl	ENDS
;	COMDAT xdata$x
xdata$x	SEGMENT
__unwindtable$?ReadRespawn@CWorld@@QAEHAAVCScript@@@Z DD 0ffffffffH
	DD	FLAT:__unwindfunclet$?ReadRespawn@CWorld@@QAEHAAVCScript@@@Z$0
__ehfuncinfo$?ReadRespawn@CWorld@@QAEHAAVCScript@@@Z DD 019930522H
	DD	01H
	DD	FLAT:__unwindtable$?ReadRespawn@CWorld@@QAEHAAVCScript@@@Z
	DD	2 DUP(00H)
	DD	2 DUP(00H)
	DD	00H
	DD	01H
xdata$x	ENDS
;	COMDAT xdata$x
xdata$x	SEGMENT
__ehfuncinfo$?LoadObject@CWorld@@QAEHH@Z DD 019930522H
	DD	06H
	DD	FLAT:__unwindtable$?LoadObject@CWorld@@QAEHH@Z
	DD	2 DUP(00H)
	DD	2 DUP(00H)
	DD	00H
	DD	01H
__unwindtable$?LoadObject@CWorld@@QAEHH@Z DD 0ffffffffH
	DD	FLAT:__unwindfunclet$?LoadObject@CWorld@@QAEHH@Z$3
	DD	0ffffffffH
	DD	FLAT:__unwindfunclet$?LoadObject@CWorld@@QAEHH@Z$0
	DD	01H
	DD	FLAT:__unwindfunclet$?LoadObject@CWorld@@QAEHH@Z$1
	DD	02H
	DD	FLAT:__unwindfunclet$?LoadObject@CWorld@@QAEHH@Z$2
	DD	02H
	DD	00H
	DD	02H
	DD	FLAT:___std_terminate
xdata$x	ENDS
;	COMDAT xdata$x
xdata$x	SEGMENT
__unwindtable$?OpenWorld@CWorld@@QAEHPBDH@Z DD 0ffffffffH
	DD	FLAT:__unwindfunclet$?OpenWorld@CWorld@@QAEHPBDH@Z$0
__ehfuncinfo$?OpenWorld@CWorld@@QAEHPBDH@Z DD 019930522H
	DD	01H
	DD	FLAT:__unwindtable$?OpenWorld@CWorld@@QAEHPBDH@Z
	DD	2 DUP(00H)
	DD	2 DUP(00H)
	DD	00H
	DD	01H
xdata$x	ENDS
;	COMDAT xdata$x
xdata$x	SEGMENT
__ehfuncinfo$?ReadWorld@CWorld@@QAEHABVCRect@@@Z DD 019930522H
	DD	06H
	DD	FLAT:__unwindtable$?ReadWorld@CWorld@@QAEHABVCRect@@@Z
	DD	2 DUP(00H)
	DD	2 DUP(00H)
	DD	00H
	DD	01H
__unwindtable$?ReadWorld@CWorld@@QAEHABVCRect@@@Z DD 0ffffffffH
	DD	FLAT:__unwindfunclet$?ReadWorld@CWorld@@QAEHABVCRect@@@Z$0
	DD	00H
	DD	FLAT:__unwindfunclet$?ReadWorld@CWorld@@QAEHABVCRect@@@Z$5
	DD	00H
	DD	FLAT:__unwindfunclet$?ReadWorld@CWorld@@QAEHABVCRect@@@Z$1
	DD	02H
	DD	FLAT:__unwindfunclet$?ReadWorld@CWorld@@QAEHABVCRect@@@Z$2
	DD	03H
	DD	FLAT:__unwindfunclet$?ReadWorld@CWorld@@QAEHABVCRect@@@Z$3
	DD	03H
	DD	FLAT:___std_terminate
xdata$x	ENDS
;	COMDAT xdata$x
xdata$x	SEGMENT
__unwindtable$??_GCFileIO@@UAEPAXI@Z DD 0ffffffffH
	DD	FLAT:___std_terminate
__ehfuncinfo$??_GCFileIO@@UAEPAXI@Z DD 019930522H
	DD	01H
	DD	FLAT:__unwindtable$??_GCFileIO@@UAEPAXI@Z
	DD	2 DUP(00H)
	DD	2 DUP(00H)
	DD	00H
	DD	05H
xdata$x	ENDS
;	COMDAT xdata$x
xdata$x	SEGMENT
__ehfuncinfo$??1CFileIO@@UAE@XZ DD 019930522H
	DD	00H
	DD	00H
	DD	2 DUP(00H)
	DD	2 DUP(00H)
	DD	00H
	DD	05H
xdata$x	ENDS
;	COMDAT xdata$x
xdata$x	SEGMENT
__unwindtable$?FormatV@?$CStringT@DV?$StrTraitMFC@DV?$ChTraitsCRT@D@ATL@@@@@ATL@@QAEXPBDPAD@Z DD 0ffffffffH
	DD	FLAT:__unwindfunclet$?FormatV@?$CStringT@DV?$StrTraitMFC@DV?$ChTraitsCRT@D@ATL@@@@@ATL@@QAEXPBDPAD@Z$1
	DD	0ffffffffH
	DD	FLAT:__unwindfunclet$?FormatV@?$CStringT@DV?$StrTraitMFC@DV?$ChTraitsCRT@D@ATL@@@@@ATL@@QAEXPBDPAD@Z$0
__ehfuncinfo$?FormatV@?$CStringT@DV?$StrTraitMFC@DV?$ChTraitsCRT@D@ATL@@@@@ATL@@QAEXPBDPAD@Z DD 019930522H
	DD	02H
	DD	FLAT:__unwindtable$?FormatV@?$CStringT@DV?$StrTraitMFC@DV?$ChTraitsCRT@D@ATL@@@@@ATL@@QAEXPBDPAD@Z
	DD	2 DUP(00H)
	DD	2 DUP(00H)
	DD	00H
	DD	01H
xdata$x	ENDS
;	COMDAT xdata$x
xdata$x	SEGMENT
__unwindtable$??0?$CStringT@DV?$StrTraitMFC@DV?$ChTraitsCRT@D@ATL@@@@@ATL@@QAE@PBDPAUIAtlStringMgr@1@@Z DD 0ffffffffH
	DD	FLAT:__unwindfunclet$??0?$CStringT@DV?$StrTraitMFC@DV?$ChTraitsCRT@D@ATL@@@@@ATL@@QAE@PBDPAUIAtlStringMgr@1@@Z$0
__ehfuncinfo$??0?$CStringT@DV?$StrTraitMFC@DV?$ChTraitsCRT@D@ATL@@@@@ATL@@QAE@PBDPAUIAtlStringMgr@1@@Z DD 019930522H
	DD	01H
	DD	FLAT:__unwindtable$??0?$CStringT@DV?$StrTraitMFC@DV?$ChTraitsCRT@D@ATL@@@@@ATL@@QAE@PBDPAUIAtlStringMgr@1@@Z
	DD	2 DUP(00H)
	DD	2 DUP(00H)
	DD	00H
	DD	01H
xdata$x	ENDS
;	COMDAT xdata$x
xdata$x	SEGMENT
__unwindtable$??0?$CStringT@DV?$StrTraitMFC@DV?$ChTraitsCRT@D@ATL@@@@@ATL@@QAE@PBD@Z DD 0ffffffffH
	DD	FLAT:__unwindfunclet$??0?$CStringT@DV?$StrTraitMFC@DV?$ChTraitsCRT@D@ATL@@@@@ATL@@QAE@PBD@Z$0
__ehfuncinfo$??0?$CStringT@DV?$StrTraitMFC@DV?$ChTraitsCRT@D@ATL@@@@@ATL@@QAE@PBD@Z DD 019930522H
	DD	01H
	DD	FLAT:__unwindtable$??0?$CStringT@DV?$StrTraitMFC@DV?$ChTraitsCRT@D@ATL@@@@@ATL@@QAE@PBD@Z
	DD	2 DUP(00H)
	DD	2 DUP(00H)
	DD	00H
	DD	01H
xdata$x	ENDS
; Function compile flags: /Ogtp
; File C:\Program Files\Microsoft Visual Studio\2022\Professional\VC\Tools\MSVC\14.44.35207\include\xutility
;	COMDAT ??$_Copy_memmove_tail@PAPAVCObj@@@std@@YAPAPAVCObj@@QBDQAPAV1@II@Z
_TEXT	SEGMENT
__First_ch$ = 8						; size = 4
__Dest$ = 12						; size = 4
__Byte_count$ = 16					; size = 4
__Object_count$ = 20					; size = 4
??$_Copy_memmove_tail@PAPAVCObj@@@std@@YAPAPAVCObj@@QBDQAPAV1@II@Z PROC ; std::_Copy_memmove_tail<CObj * *>, COMDAT

; 4747 :     const char* const _First_ch, const _OutCtgIt _Dest, const size_t _Byte_count, const size_t _Object_count) {

  00000	55		 push	 ebp
  00001	8b ec		 mov	 ebp, esp
  00003	56		 push	 esi

; 4748 :     _STL_INTERNAL_CHECK(_Byte_count == _Object_count * sizeof(*_Dest));
; 4749 :     const auto _Dest_ptr = _STD _To_address(_Dest);
; 4750 :     const auto _Dest_ch  = const_cast<char*>(reinterpret_cast<const volatile char*>(_Dest_ptr));
; 4751 :     _CSTD memmove(_Dest_ch, _First_ch, _Byte_count);

  00004	8b 75 0c	 mov	 esi, DWORD PTR __Dest$[ebp]
  00007	57		 push	 edi
  00008	8b 7d 10	 mov	 edi, DWORD PTR __Byte_count$[ebp]
  0000b	57		 push	 edi
  0000c	ff 75 08	 push	 DWORD PTR __First_ch$[ebp]
  0000f	56		 push	 esi
  00010	e8 00 00 00 00	 call	 _memmove
  00015	83 c4 0c	 add	 esp, 12			; 0000000cH

; 4752 :     if constexpr (is_pointer_v<_OutCtgIt>) {
; 4753 :         (void) _Object_count;
; 4754 :         // CodeQL [SM02986] This cast is correct: we're bypassing pointer arithmetic for performance.
; 4755 :         return reinterpret_cast<_OutCtgIt>(_Dest_ch + _Byte_count);

  00018	8d 04 3e	 lea	 eax, DWORD PTR [esi+edi]
  0001b	5f		 pop	 edi
  0001c	5e		 pop	 esi

; 4756 :     } else {
; 4757 :         return _Dest + static_cast<_Iter_diff_t<_OutCtgIt>>(_Object_count);
; 4758 :     }
; 4759 : }

  0001d	5d		 pop	 ebp
  0001e	c3		 ret	 0
??$_Copy_memmove_tail@PAPAVCObj@@@std@@YAPAPAVCObj@@QBDQAPAV1@II@Z ENDP ; std::_Copy_memmove_tail<CObj * *>
_TEXT	ENDS
; Function compile flags: /Ogtp
; File C:\Program Files\Microsoft Visual Studio\2022\Professional\VC\Tools\MSVC\14.44.35207\include\xutility
;	COMDAT ??$_Copy_memmove@PAPAVCObj@@PAPAV1@@std@@YAPAPAVCObj@@PAPAV1@00@Z
_TEXT	SEGMENT
__First$ = 8						; size = 4
__Last$ = 12						; size = 4
__Dest$ = 16						; size = 4
??$_Copy_memmove@PAPAVCObj@@PAPAV1@@std@@YAPAPAVCObj@@PAPAV1@00@Z PROC ; std::_Copy_memmove<CObj * *,CObj * *>, COMDAT

; 4762 : _OutCtgIt _Copy_memmove(_CtgIt _First, _CtgIt _Last, _OutCtgIt _Dest) {

  00000	55		 push	 ebp
  00001	8b ec		 mov	 ebp, esp

; 4763 :     _STL_INTERNAL_CHECK(_First <= _Last);
; 4764 :     const auto _First_ptr    = _STD _To_address(_First);
; 4765 :     const auto _Last_ptr     = _STD _To_address(_Last);
; 4766 :     const auto _Object_count = static_cast<size_t>(_Last_ptr - _First_ptr);

  00003	8b 55 08	 mov	 edx, DWORD PTR __First$[ebp]
  00006	8b 4d 0c	 mov	 ecx, DWORD PTR __Last$[ebp]
  00009	2b ca		 sub	 ecx, edx
  0000b	8b c1		 mov	 eax, ecx
  0000d	c1 f8 02	 sar	 eax, 2

; 4767 :     const auto _First_ch     = const_cast<const char*>(reinterpret_cast<const volatile char*>(_First_ptr));
; 4768 :     const auto _Last_ch      = const_cast<const char*>(reinterpret_cast<const volatile char*>(_Last_ptr));
; 4769 :     const auto _Byte_count   = static_cast<size_t>(_Last_ch - _First_ch);
; 4770 :     return _STD _Copy_memmove_tail(_First_ch, _STD move(_Dest), _Byte_count, _Object_count);

  00010	50		 push	 eax
  00011	51		 push	 ecx
  00012	ff 75 10	 push	 DWORD PTR __Dest$[ebp]
  00015	52		 push	 edx
  00016	e8 00 00 00 00	 call	 ??$_Copy_memmove_tail@PAPAVCObj@@@std@@YAPAPAVCObj@@QBDQAPAV1@II@Z ; std::_Copy_memmove_tail<CObj * *>
  0001b	83 c4 10	 add	 esp, 16			; 00000010H

; 4771 : }

  0001e	5d		 pop	 ebp
  0001f	c3		 ret	 0
??$_Copy_memmove@PAPAVCObj@@PAPAV1@@std@@YAPAPAVCObj@@PAPAV1@00@Z ENDP ; std::_Copy_memmove<CObj * *,CObj * *>
_TEXT	ENDS
; Function compile flags: /Ogtp
; File C:\Program Files\Microsoft Visual Studio\2022\Professional\VC\Tools\MSVC\14.44.35207\include\vector
; File C:\Program Files\Microsoft Visual Studio\2022\Professional\VC\Tools\MSVC\14.44.35207\include\xmemory
; File C:\Program Files\Microsoft Visual Studio\2022\Professional\VC\Tools\MSVC\14.44.35207\include\vector
; File C:\Program Files\Microsoft Visual Studio\2022\Professional\VC\Tools\MSVC\14.44.35207\include\xmemory
; File C:\Program Files\Microsoft Visual Studio\2022\Professional\VC\Tools\MSVC\14.44.35207\include\vector
; File C:\Program Files\Microsoft Visual Studio\2022\Professional\VC\Tools\MSVC\14.44.35207\include\xmemory
; File C:\Program Files\Microsoft Visual Studio\2022\Professional\VC\Tools\MSVC\14.44.35207\include\vector
; File C:\Program Files\Microsoft Visual Studio\2022\Professional\VC\Tools\MSVC\14.44.35207\include\xmemory
; File C:\Program Files\Microsoft Visual Studio\2022\Professional\VC\Tools\MSVC\14.44.35207\include\vector
; File C:\Program Files\Microsoft Visual Studio\2022\Professional\VC\Tools\MSVC\14.44.35207\include\xmemory
; File C:\Program Files\Microsoft Visual Studio\2022\Professional\VC\Tools\MSVC\14.44.35207\include\vector
; File C:\Program Files\Microsoft Visual Studio\2022\Professional\VC\Tools\MSVC\14.44.35207\include\xmemory
; File C:\Program Files\Microsoft Visual Studio\2022\Professional\VC\Tools\MSVC\14.44.35207\include\vector
; File C:\Program Files\Microsoft Visual Studio\2022\Professional\VC\Tools\MSVC\14.44.35207\include\xmemory
; File C:\Program Files\Microsoft Visual Studio\2022\Professional\VC\Tools\MSVC\14.44.35207\include\vector
; File C:\Program Files\Microsoft Visual Studio\2022\Professional\VC\Tools\MSVC\14.44.35207\include\xmemory
; File C:\Program Files\Microsoft Visual Studio\2022\Professional\VC\Tools\MSVC\14.44.35207\include\vector
;	COMDAT ??$_Emplace_reallocate@ABQAVCObj@@@?$vector@PAVCObj@@V?$allocator@PAVCObj@@@std@@@std@@AAEPAPAVCObj@@QAPAV2@ABQAV2@@Z
_TEXT	SEGMENT
__Newsize$1$ = -12					; size = 4
tv652 = -8						; size = 4
tv650 = -4						; size = 4
__Whereptr$ = 8						; size = 4
_<_Val_0>$ = 12						; size = 4
??$_Emplace_reallocate@ABQAVCObj@@@?$vector@PAVCObj@@V?$allocator@PAVCObj@@@std@@@std@@AAEPAPAVCObj@@QAPAV2@ABQAV2@@Z PROC ; std::vector<CObj *,std::allocator<CObj *> >::_Emplace_reallocate<CObj * const &>, COMDAT
; _this$ = ecx

; 875  :     _CONSTEXPR20 pointer _Emplace_reallocate(const pointer _Whereptr, _Valty&&... _Val) {

  00000	55		 push	 ebp
  00001	8b ec		 mov	 ebp, esp
  00003	83 ec 0c	 sub	 esp, 12			; 0000000cH
  00006	53		 push	 ebx

; 876  :         // reallocate and insert by perfectly forwarding _Val at _Whereptr
; 877  :         _Alty& _Al        = _Getal();
; 878  :         auto& _My_data    = _Mypair._Myval2;
; 879  :         pointer& _Myfirst = _My_data._Myfirst;
; 880  :         pointer& _Mylast  = _My_data._Mylast;
; 881  : 
; 882  :         _STL_INTERNAL_CHECK(_Mylast == _My_data._Myend); // check that we have no unused capacity
; 883  : 
; 884  :         const auto _Whereoff = static_cast<size_type>(_Whereptr - _Myfirst);

  00007	8b 5d 08	 mov	 ebx, DWORD PTR __Whereptr$[ebp]
  0000a	56		 push	 esi
  0000b	8b f1		 mov	 esi, ecx
  0000d	57		 push	 edi
  0000e	8b 0e		 mov	 ecx, DWORD PTR [esi]
  00010	2b d9		 sub	 ebx, ecx

; 885  :         const auto _Oldsize  = static_cast<size_type>(_Mylast - _Myfirst);

  00012	8b 46 04	 mov	 eax, DWORD PTR [esi+4]
  00015	2b c1		 sub	 eax, ecx
  00017	c1 fb 02	 sar	 ebx, 2
  0001a	c1 f8 02	 sar	 eax, 2

; 886  : 
; 887  :         if (_Oldsize == max_size()) {

  0001d	3d ff ff ff 3f	 cmp	 eax, 1073741823		; 3fffffffH
  00022	0f 84 13 01 00
	00		 je	 $LN111@Emplace_re

; 1924 :         return static_cast<size_type>(_My_data._Myend - _My_data._Myfirst);

  00028	8b 56 08	 mov	 edx, DWORD PTR [esi+8]

; 889  :         }
; 890  : 
; 891  :         const size_type _Newsize = _Oldsize + 1;

  0002b	8d 78 01	 lea	 edi, DWORD PTR [eax+1]

; 1924 :         return static_cast<size_type>(_My_data._Myend - _My_data._Myfirst);

  0002e	2b d1		 sub	 edx, ecx

; 889  :         }
; 890  : 
; 891  :         const size_type _Newsize = _Oldsize + 1;

  00030	89 7d f4	 mov	 DWORD PTR __Newsize$1$[ebp], edi

; 1924 :         return static_cast<size_type>(_My_data._Myend - _My_data._Myfirst);

  00033	c1 fa 02	 sar	 edx, 2

; 2011 :         if (_Oldcapacity > _Max - _Oldcapacity / 2) {

  00036	b8 ff ff ff 3f	 mov	 eax, 1073741823		; 3fffffffH
  0003b	8b ca		 mov	 ecx, edx
  0003d	d1 e9		 shr	 ecx, 1
  0003f	2b c1		 sub	 eax, ecx
  00041	3b d0		 cmp	 edx, eax
  00043	76 14		 jbe	 SHORT $LN8@Emplace_re

; 2012 :             return _Max; // geometric growth would overflow

  00045	b8 fc ff ff ff	 mov	 eax, -4			; fffffffcH
  0004a	c7 45 f8 fc ff
	ff ff		 mov	 DWORD PTR tv652[ebp], -4 ; fffffffcH
; File C:\Program Files\Microsoft Visual Studio\2022\Professional\VC\Tools\MSVC\14.44.35207\include\xmemory

; 253  :             return _Allocate_manually_vector_aligned<_Traits>(_Bytes);

  00051	50		 push	 eax
  00052	e8 00 00 00 00	 call	 ??$_Allocate_manually_vector_aligned@U_Default_allocate_traits@std@@@std@@YAPAXI@Z ; std::_Allocate_manually_vector_aligned<std::_Default_allocate_traits>
  00057	eb 3d		 jmp	 SHORT $LN109@Emplace_re
$LN8@Emplace_re:
; File C:\Program Files\Microsoft Visual Studio\2022\Professional\VC\Tools\MSVC\14.44.35207\include\vector

; 2015 :         const size_type _Geometric = _Oldcapacity + _Oldcapacity / 2;

  00059	8d 04 11	 lea	 eax, DWORD PTR [ecx+edx]
; File C:\Program Files\Microsoft Visual Studio\2022\Professional\VC\Tools\MSVC\14.44.35207\include\xmemory

; 117  :         if (_Count > _Max_possible) {

  0005c	8b cf		 mov	 ecx, edi
  0005e	3b c7		 cmp	 eax, edi
  00060	0f 43 c8	 cmovae	 ecx, eax
  00063	81 f9 ff ff ff
	3f		 cmp	 ecx, 1073741823		; 3fffffffH
  00069	0f 87 d1 00 00
	00		 ja	 $LN112@Emplace_re

; 119  :         }
; 120  :     }
; 121  : 
; 122  :     return _Count * _Ty_size;

  0006f	8d 04 8d 00 00
	00 00		 lea	 eax, DWORD PTR [ecx*4]
  00076	89 45 f8	 mov	 DWORD PTR tv652[ebp], eax

; 227  :     if (_Bytes == 0) {

  00079	85 c0		 test	 eax, eax
  0007b	75 04		 jne	 SHORT $LN23@Emplace_re

; 228  :         return nullptr;

  0007d	33 ff		 xor	 edi, edi
  0007f	eb 1a		 jmp	 SHORT $LN22@Emplace_re
$LN23@Emplace_re:

; 229  :     }
; 230  : 
; 231  : #if _HAS_CXX20 // TRANSITION, GH-1532
; 232  :     if (_STD is_constant_evaluated()) {
; 233  :         return _Traits::_Allocate(_Bytes);
; 234  :     }
; 235  : #endif // _HAS_CXX20
; 236  : 
; 237  : #ifdef __cpp_aligned_new
; 238  :     if constexpr (_Align > __STDCPP_DEFAULT_NEW_ALIGNMENT__) {
; 239  :         size_t _Passed_align = _Align;
; 240  : #if defined(_M_IX86) || defined(_M_X64)
; 241  :         if (_Bytes >= _Big_allocation_threshold) {
; 242  :             // boost the alignment of big allocations to help autovectorization
; 243  :             _Passed_align = (_STD max)(_Align, _Big_allocation_alignment);
; 244  :         }
; 245  : #endif // defined(_M_IX86) || defined(_M_X64)
; 246  :         return _Traits::_Allocate_aligned(_Bytes, _Passed_align);
; 247  :     } else
; 248  : #endif // defined(__cpp_aligned_new)
; 249  :     {
; 250  : #if defined(_M_IX86) || defined(_M_X64)
; 251  :         if (_Bytes >= _Big_allocation_threshold) {

  00081	3d 00 10 00 00	 cmp	 eax, 4096		; 00001000H
  00086	72 08		 jb	 SHORT $LN24@Emplace_re

; 253  :             return _Allocate_manually_vector_aligned<_Traits>(_Bytes);

  00088	50		 push	 eax
  00089	e8 00 00 00 00	 call	 ??$_Allocate_manually_vector_aligned@U_Default_allocate_traits@std@@@std@@YAPAXI@Z ; std::_Allocate_manually_vector_aligned<std::_Default_allocate_traits>
  0008e	eb 06		 jmp	 SHORT $LN109@Emplace_re
$LN24@Emplace_re:

; 136  :         return ::operator new(_Bytes);

  00090	50		 push	 eax
  00091	e8 00 00 00 00	 call	 ??2@YAPAXI@Z		; operator new
$LN109@Emplace_re:
; File C:\Program Files\Microsoft Visual Studio\2022\Professional\VC\Tools\MSVC\14.44.35207\include\vector

; 900  :         _Alty_traits::construct(_Al, _STD _Unfancy(_Newvec + _Whereoff), _STD forward<_Valty>(_Val)...);

  00096	8b f8		 mov	 edi, eax
  00098	83 c4 04	 add	 esp, 4
$LN22@Emplace_re:
  0009b	8b 45 0c	 mov	 eax, DWORD PTR _<_Val_0>$[ebp]
  0009e	8d 0c 9f	 lea	 ecx, DWORD PTR [edi+ebx*4]

; 901  :         _Constructed_first = _Newvec + _Whereoff;
; 902  : 
; 903  :         if (_Whereptr == _Mylast) { // at back, provide strong guarantee

  000a1	8b 5d 08	 mov	 ebx, DWORD PTR __Whereptr$[ebp]
  000a4	89 4d fc	 mov	 DWORD PTR tv650[ebp], ecx
  000a7	8b 00		 mov	 eax, DWORD PTR [eax]
  000a9	89 01		 mov	 DWORD PTR [ecx], eax
  000ab	8b 46 04	 mov	 eax, DWORD PTR [esi+4]
  000ae	8b 0e		 mov	 ecx, DWORD PTR [esi]
  000b0	3b d8		 cmp	 ebx, eax
  000b2	75 07		 jne	 SHORT $LN3@Emplace_re

; 909  :         } else { // provide basic guarantee

  000b4	8b 5d fc	 mov	 ebx, DWORD PTR tv650[ebp]
; File C:\Program Files\Microsoft Visual Studio\2022\Professional\VC\Tools\MSVC\14.44.35207\include\xmemory

; 1992 :             _STD _Copy_memmove(_UFirst, _ULast, _STD _Unfancy(_Dest));

  000b7	8b d7		 mov	 edx, edi
; File C:\Program Files\Microsoft Visual Studio\2022\Professional\VC\Tools\MSVC\14.44.35207\include\vector

; 909  :         } else { // provide basic guarantee

  000b9	eb 16		 jmp	 SHORT $LN52@Emplace_re
$LN3@Emplace_re:
; File C:\Program Files\Microsoft Visual Studio\2022\Professional\VC\Tools\MSVC\14.44.35207\include\xmemory

; 1992 :             _STD _Copy_memmove(_UFirst, _ULast, _STD _Unfancy(_Dest));

  000bb	57		 push	 edi
  000bc	53		 push	 ebx
  000bd	51		 push	 ecx
  000be	e8 00 00 00 00	 call	 ??$_Copy_memmove@PAPAVCObj@@PAPAV1@@std@@YAPAPAVCObj@@PAPAV1@00@Z ; std::_Copy_memmove<CObj * *,CObj * *>
  000c3	8b 46 04	 mov	 eax, DWORD PTR [esi+4]
  000c6	8b cb		 mov	 ecx, ebx
; File C:\Program Files\Microsoft Visual Studio\2022\Professional\VC\Tools\MSVC\14.44.35207\include\vector

; 912  :             _STD _Uninitialized_move(_Whereptr, _Mylast, _Newvec + _Whereoff + 1, _Al);

  000c8	8b 5d fc	 mov	 ebx, DWORD PTR tv650[ebp]
; File C:\Program Files\Microsoft Visual Studio\2022\Professional\VC\Tools\MSVC\14.44.35207\include\xmemory

; 1992 :             _STD _Copy_memmove(_UFirst, _ULast, _STD _Unfancy(_Dest));

  000cb	83 c4 0c	 add	 esp, 12			; 0000000cH
; File C:\Program Files\Microsoft Visual Studio\2022\Professional\VC\Tools\MSVC\14.44.35207\include\vector

; 912  :             _STD _Uninitialized_move(_Whereptr, _Mylast, _Newvec + _Whereoff + 1, _Al);

  000ce	8d 53 04	 lea	 edx, DWORD PTR [ebx+4]
$LN52@Emplace_re:

; 913  :         }
; 914  : 
; 915  :         _Guard._New_begin = nullptr;

  000d1	52		 push	 edx
  000d2	50		 push	 eax
  000d3	51		 push	 ecx
  000d4	e8 00 00 00 00	 call	 ??$_Copy_memmove@PAPAVCObj@@PAPAV1@@std@@YAPAPAVCObj@@PAPAV1@00@Z ; std::_Copy_memmove<CObj * *,CObj * *>

; 2069 :         if (_Myfirst) { // destroy and deallocate old array

  000d9	8b 06		 mov	 eax, DWORD PTR [esi]

; 913  :         }
; 914  : 
; 915  :         _Guard._New_begin = nullptr;

  000db	83 c4 0c	 add	 esp, 12			; 0000000cH

; 2069 :         if (_Myfirst) { // destroy and deallocate old array

  000de	85 c0		 test	 eax, eax
  000e0	74 2c		 je	 SHORT $LN72@Emplace_re

; 2070 :             _STD _Destroy_range(_Myfirst, _Mylast, _Al);
; 2071 :             _ASAN_VECTOR_REMOVE;
; 2072 :             _Al.deallocate(_Myfirst, static_cast<size_type>(_Myend - _Myfirst));

  000e2	8b 4e 08	 mov	 ecx, DWORD PTR [esi+8]
  000e5	2b c8		 sub	 ecx, eax
; File C:\Program Files\Microsoft Visual Studio\2022\Professional\VC\Tools\MSVC\14.44.35207\include\xmemory

; 985  :         _STD _Deallocate<_New_alignof<_Ty>>(_Ptr, sizeof(_Ty) * _Count);

  000e7	83 e1 fc	 and	 ecx, -4			; fffffffcH

; 284  :         if (_Bytes >= _Big_allocation_threshold) {

  000ea	81 f9 00 10 00
	00		 cmp	 ecx, 4096		; 00001000H
  000f0	72 12		 jb	 SHORT $LN77@Emplace_re

; 205  :     const uintptr_t _Ptr_container   = _Ptr_user[-1];

  000f2	8b 50 fc	 mov	 edx, DWORD PTR [eax-4]
  000f5	83 c1 23	 add	 ecx, 35			; 00000023H

; 206  : 
; 207  :     // If the following asserts, it likely means that we are performing
; 208  :     // an aligned delete on memory coming from an unaligned allocation.
; 209  :     _STL_ASSERT(_Ptr_user[-2] == _Big_allocation_sentinel, "invalid argument");
; 210  : 
; 211  :     // Extra paranoia on aligned allocation/deallocation; ensure _Ptr_container is
; 212  :     // in range [_Min_back_shift, _Non_user_size]
; 213  : #ifdef _DEBUG
; 214  :     constexpr uintptr_t _Min_back_shift = 2 * sizeof(void*);
; 215  : #else // ^^^ defined(_DEBUG) / !defined(_DEBUG) vvv
; 216  :     constexpr uintptr_t _Min_back_shift = sizeof(void*);
; 217  : #endif // ^^^ !defined(_DEBUG) ^^^
; 218  :     const uintptr_t _Back_shift = reinterpret_cast<uintptr_t>(_Ptr) - _Ptr_container;

  000f8	2b c2		 sub	 eax, edx

; 219  :     _STL_VERIFY(_Back_shift >= _Min_back_shift && _Back_shift <= _Non_user_size, "invalid argument");

  000fa	83 c0 fc	 add	 eax, -4			; fffffffcH
  000fd	83 f8 1f	 cmp	 eax, 31			; 0000001fH
  00100	77 2a		 ja	 SHORT $LN76@Emplace_re

; 220  :     _Ptr = reinterpret_cast<void*>(_Ptr_container);

  00102	8b c2		 mov	 eax, edx
$LN77@Emplace_re:

; 289  :         ::operator delete(_Ptr, _Bytes);

  00104	51		 push	 ecx
  00105	50		 push	 eax
  00106	e8 00 00 00 00	 call	 ??3@YAXPAXI@Z		; operator delete
  0010b	83 c4 08	 add	 esp, 8
$LN72@Emplace_re:
; File C:\Program Files\Microsoft Visual Studio\2022\Professional\VC\Tools\MSVC\14.44.35207\include\vector

; 2076 :         _Mylast  = _Newvec + _Newsize;

  0010e	8b 45 f4	 mov	 eax, DWORD PTR __Newsize$1$[ebp]
  00111	89 3e		 mov	 DWORD PTR [esi], edi
  00113	8d 0c 87	 lea	 ecx, DWORD PTR [edi+eax*4]

; 916  :         _Change_array(_Newvec, _Newsize, _Newcapacity);
; 917  :         return _Newvec + _Whereoff;

  00116	8b c3		 mov	 eax, ebx

; 2076 :         _Mylast  = _Newvec + _Newsize;

  00118	89 4e 04	 mov	 DWORD PTR [esi+4], ecx

; 2077 :         _Myend   = _Newvec + _Newcapacity;

  0011b	8b 4d f8	 mov	 ecx, DWORD PTR tv652[ebp]
  0011e	03 cf		 add	 ecx, edi

; 918  :     }

  00120	5f		 pop	 edi

; 2077 :         _Myend   = _Newvec + _Newcapacity;

  00121	89 4e 08	 mov	 DWORD PTR [esi+8], ecx

; 918  :     }

  00124	5e		 pop	 esi
  00125	5b		 pop	 ebx
  00126	8b e5		 mov	 esp, ebp
  00128	5d		 pop	 ebp
  00129	c2 08 00	 ret	 8
$LN76@Emplace_re:
; File C:\Program Files\Microsoft Visual Studio\2022\Professional\VC\Tools\MSVC\14.44.35207\include\xmemory

; 219  :     _STL_VERIFY(_Back_shift >= _Min_back_shift && _Back_shift <= _Non_user_size, "invalid argument");

  0012c	6a 00		 push	 0
  0012e	6a 00		 push	 0
  00130	6a 00		 push	 0
  00132	6a 00		 push	 0
  00134	6a 00		 push	 0
  00136	e8 00 00 00 00	 call	 __invoke_watson
$LN111@Emplace_re:
; File C:\Program Files\Microsoft Visual Studio\2022\Professional\VC\Tools\MSVC\14.44.35207\include\vector

; 888  :             _Xlength();

  0013b	e8 00 00 00 00	 call	 ?_Xlength@?$vector@PAVCObj@@V?$allocator@PAVCObj@@@std@@@std@@CAXXZ ; std::vector<CObj *,std::allocator<CObj *> >::_Xlength
$LN112@Emplace_re:
; File C:\Program Files\Microsoft Visual Studio\2022\Professional\VC\Tools\MSVC\14.44.35207\include\xmemory

; 118  :             _Throw_bad_array_new_length(); // multiply overflow

  00140	e8 00 00 00 00	 call	 ?_Throw_bad_array_new_length@std@@YAXXZ ; std::_Throw_bad_array_new_length
$LN108@Emplace_re:
  00145	cc		 int	 3
??$_Emplace_reallocate@ABQAVCObj@@@?$vector@PAVCObj@@V?$allocator@PAVCObj@@@std@@@std@@AAEPAPAVCObj@@QAPAV2@ABQAV2@@Z ENDP ; std::vector<CObj *,std::allocator<CObj *> >::_Emplace_reallocate<CObj * const &>
_TEXT	ENDS
; Function compile flags: /Ogtp
; File C:\IAGOS\server\v18\Source\Source\_Common\worldfile.cpp
;	COMDAT ?RegionDesc_StringToSaveFormat@@YAXPA_W@Z
_TEXT	SEGMENT
_pwszDesc$ = 8						; size = 4
?RegionDesc_StringToSaveFormat@@YAXPA_W@Z PROC		; RegionDesc_StringToSaveFormat, COMDAT

; 400  : {

  00000	55		 push	 ebp
  00001	8b ec		 mov	 ebp, esp

; 401  : 	wchar_t* pwszSrc = pwszDesc;

  00003	8b 45 08	 mov	 eax, DWORD PTR _pwszDesc$[ebp]

; 402  : 	while( *pwszSrc )

  00006	0f b7 08	 movzx	 ecx, WORD PTR [eax]
  00009	66 85 c9	 test	 cx, cx
  0000c	74 27		 je	 SHORT $LN3@RegionDesc
  0000e	56		 push	 esi
  0000f	57		 push	 edi
  00010	8b d1		 mov	 edx, ecx
$LL2@RegionDesc:

; 403  : 	{
; 404  : 		if( *pwszSrc == '\r' && *(pwszSrc + 1 )== '\n')

  00012	66 83 fa 0d	 cmp	 dx, 13			; 0000000dH
  00016	75 0d		 jne	 SHORT $LN4@RegionDesc
  00018	66 83 78 02 0a	 cmp	 WORD PTR [eax+2], 10	; 0000000aH
  0001d	75 06		 jne	 SHORT $LN4@RegionDesc

; 405  : 		{
; 406  : 			*(pwszSrc + 0) = '\\';

  0001f	c7 00 5c 00 6e
	00		 mov	 DWORD PTR [eax], 7209052 ; 006e005cH
$LN4@RegionDesc:

; 402  : 	while( *pwszSrc )

  00025	0f b7 48 02	 movzx	 ecx, WORD PTR [eax+2]

; 407  : 			*(pwszSrc + 1) = 'n';
; 408  : 		}
; 409  : 		pwszSrc++;

  00029	83 c0 02	 add	 eax, 2
  0002c	8b d1		 mov	 edx, ecx
  0002e	66 85 c9	 test	 cx, cx
  00031	75 df		 jne	 SHORT $LL2@RegionDesc

; 402  : 	while( *pwszSrc )

  00033	5f		 pop	 edi
  00034	5e		 pop	 esi
$LN3@RegionDesc:

; 410  : 	}	
; 411  : }

  00035	5d		 pop	 ebp
  00036	c3		 ret	 0
?RegionDesc_StringToSaveFormat@@YAXPA_W@Z ENDP		; RegionDesc_StringToSaveFormat
_TEXT	ENDS
; Function compile flags: /Ogtp
; File C:\IAGOS\server\v18\Source\Source\_Common\worldfile.cpp
;	COMDAT ?RegionDesc_SaveFormatToString@@YAXPA_W@Z
_TEXT	SEGMENT
_pwszDesc$ = 8						; size = 4
?RegionDesc_SaveFormatToString@@YAXPA_W@Z PROC		; RegionDesc_SaveFormatToString, COMDAT

; 386  : {

  00000	55		 push	 ebp
  00001	8b ec		 mov	 ebp, esp

; 387  : 	wchar_t* pwszSrc = pwszDesc;

  00003	8b 45 08	 mov	 eax, DWORD PTR _pwszDesc$[ebp]

; 388  : 	while( *pwszSrc )

  00006	0f b7 08	 movzx	 ecx, WORD PTR [eax]
  00009	66 85 c9	 test	 cx, cx
  0000c	74 27		 je	 SHORT $LN3@RegionDesc
  0000e	56		 push	 esi
  0000f	57		 push	 edi
  00010	8b d1		 mov	 edx, ecx
$LL2@RegionDesc:

; 389  : 	{
; 390  : 		if( *pwszSrc == '\\' && *(pwszSrc + 1 )== 'n')

  00012	66 83 fa 5c	 cmp	 dx, 92			; 0000005cH
  00016	75 0d		 jne	 SHORT $LN4@RegionDesc
  00018	66 83 78 02 6e	 cmp	 WORD PTR [eax+2], 110	; 0000006eH
  0001d	75 06		 jne	 SHORT $LN4@RegionDesc

; 391  : 		{
; 392  : 			*(pwszSrc + 0) = '\r';

  0001f	c7 00 0d 00 0a
	00		 mov	 DWORD PTR [eax], 655373	; 000a000dH
$LN4@RegionDesc:

; 388  : 	while( *pwszSrc )

  00025	0f b7 48 02	 movzx	 ecx, WORD PTR [eax+2]

; 393  : 			*(pwszSrc + 1) = '\n';
; 394  : 		}
; 395  : 		pwszSrc++;

  00029	83 c0 02	 add	 eax, 2
  0002c	8b d1		 mov	 edx, ecx
  0002e	66 85 c9	 test	 cx, cx
  00031	75 df		 jne	 SHORT $LL2@RegionDesc

; 388  : 	while( *pwszSrc )

  00033	5f		 pop	 edi
  00034	5e		 pop	 esi
$LN3@RegionDesc:

; 396  : 	}
; 397  : }

  00035	5d		 pop	 ebp
  00036	c3		 ret	 0
?RegionDesc_SaveFormatToString@@YAXPA_W@Z ENDP		; RegionDesc_SaveFormatToString
_TEXT	ENDS
; Function compile flags: /Ogtp
; File C:\Program Files\Microsoft Visual Studio\2022\Professional\VC\Tools\MSVC\14.44.35207\include\xmemory
;	COMDAT ??$_Allocate_manually_vector_aligned@U_Default_allocate_traits@std@@@std@@YAPAXI@Z
_TEXT	SEGMENT
__Bytes$ = 8						; size = 4
??$_Allocate_manually_vector_aligned@U_Default_allocate_traits@std@@@std@@YAPAXI@Z PROC ; std::_Allocate_manually_vector_aligned<std::_Default_allocate_traits>, COMDAT

; 182  : __declspec(allocator) void* _Allocate_manually_vector_aligned(const size_t _Bytes) {

  00000	55		 push	 ebp
  00001	8b ec		 mov	 ebp, esp

; 183  :     // allocate _Bytes manually aligned to at least _Big_allocation_alignment
; 184  :     const size_t _Block_size = _Non_user_size + _Bytes;

  00003	8b 45 08	 mov	 eax, DWORD PTR __Bytes$[ebp]
  00006	8d 48 23	 lea	 ecx, DWORD PTR [eax+35]

; 185  :     if (_Block_size <= _Bytes) {

  00009	3b c8		 cmp	 ecx, eax
  0000b	0f 86 00 00 00
	00		 jbe	 ?_Throw_bad_array_new_length@std@@YAXXZ ; std::_Throw_bad_array_new_length

; 136  :         return ::operator new(_Bytes);

  00011	51		 push	 ecx
  00012	e8 00 00 00 00	 call	 ??2@YAPAXI@Z		; operator new

; 186  :         _Throw_bad_array_new_length(); // add overflow
; 187  :     }
; 188  : 
; 189  :     const uintptr_t _Ptr_container = reinterpret_cast<uintptr_t>(_Traits::_Allocate(_Block_size));

  00017	8b c8		 mov	 ecx, eax

; 136  :         return ::operator new(_Bytes);

  00019	83 c4 04	 add	 esp, 4

; 190  :     _STL_VERIFY(_Ptr_container != 0, "invalid argument"); // validate even in release since we're doing p[-1]

  0001c	85 c9		 test	 ecx, ecx
  0001e	74 0b		 je	 SHORT $LN9@Allocate_m

; 191  :     void* const _Ptr = reinterpret_cast<void*>((_Ptr_container + _Non_user_size) & ~(_Big_allocation_alignment - 1));

  00020	8d 41 23	 lea	 eax, DWORD PTR [ecx+35]
  00023	83 e0 e0	 and	 eax, -32		; ffffffe0H

; 192  :     static_cast<uintptr_t*>(_Ptr)[-1] = _Ptr_container;

  00026	89 48 fc	 mov	 DWORD PTR [eax-4], ecx

; 193  : 
; 194  : #ifdef _DEBUG
; 195  :     static_cast<uintptr_t*>(_Ptr)[-2] = _Big_allocation_sentinel;
; 196  : #endif // defined(_DEBUG)
; 197  :     return _Ptr;
; 198  : }

  00029	5d		 pop	 ebp
  0002a	c3		 ret	 0
$LN9@Allocate_m:

; 190  :     _STL_VERIFY(_Ptr_container != 0, "invalid argument"); // validate even in release since we're doing p[-1]

  0002b	6a 00		 push	 0
  0002d	6a 00		 push	 0
  0002f	6a 00		 push	 0
  00031	6a 00		 push	 0
  00033	6a 00		 push	 0
  00035	e8 00 00 00 00	 call	 __invoke_watson
$LN7@Allocate_m:
  0003a	cc		 int	 3
??$_Allocate_manually_vector_aligned@U_Default_allocate_traits@std@@@std@@YAPAXI@Z ENDP ; std::_Allocate_manually_vector_aligned<std::_Default_allocate_traits>
_TEXT	ENDS
; Function compile flags: /Ogtp
; File C:\IAGOS\server\v18\Source\Source\_Common\worldfile.cpp
; File C:\Program Files\Microsoft Visual Studio\2022\Professional\VC\Tools\MSVC\14.44.35207\atlmfc\include\afxstr.h
; File C:\Program Files\Microsoft Visual Studio\2022\Professional\VC\Tools\MSVC\14.44.35207\atlmfc\include\atlsimpstr.h
; File C:\Program Files\Microsoft Visual Studio\2022\Professional\VC\Tools\MSVC\14.44.35207\atlmfc\include\cstringt.h
; File C:\Program Files\Microsoft Visual Studio\2022\Professional\VC\Tools\MSVC\14.44.35207\atlmfc\include\atlsimpstr.h
; File C:\IAGOS\server\v18\Source\Source\_Common\worldfile.cpp
; File C:\Program Files\Microsoft Visual Studio\2022\Professional\VC\Tools\MSVC\14.44.35207\atlmfc\include\afxstr.h
; File C:\Program Files\Microsoft Visual Studio\2022\Professional\VC\Tools\MSVC\14.44.35207\atlmfc\include\atlsimpstr.h
; File C:\IAGOS\server\v18\Source\Source\_Common\worldfile.cpp
; File C:\Program Files\Microsoft Visual Studio\2022\Professional\VC\Tools\MSVC\14.44.35207\atlmfc\include\atlsimpstr.h
; File C:\IAGOS\server\v18\Source\Source\_Common\worldfile.cpp
; File C:\Program Files\Microsoft Visual Studio\2022\Professional\VC\Tools\MSVC\14.44.35207\atlmfc\include\atlsimpstr.h
; File C:\IAGOS\server\v18\Source\Source\_Common\worldfile.cpp
; File C:\Program Files\Microsoft Visual Studio\2022\Professional\VC\Tools\MSVC\14.44.35207\atlmfc\include\atlsimpstr.h
; File C:\IAGOS\server\v18\Source\Source\_Common\worldfile.cpp
; File C:\Program Files\Microsoft Visual Studio\2022\Professional\VC\Tools\MSVC\14.44.35207\atlmfc\include\atlsimpstr.h
; File C:\IAGOS\server\v18\Source\Source\_Common\worldfile.cpp
; File C:\Program Files\Microsoft Visual Studio\2022\Professional\VC\Tools\MSVC\14.44.35207\atlmfc\include\atlsimpstr.h
; File C:\IAGOS\server\v18\Source\Source\_Common\worldfile.cpp
;	COMDAT ?LoadPatrol@CWorld@@QAEHXZ
_TEXT	SEGMENT
_strLandTemp$ = -20					; size = 4
_strLandName$ = -16					; size = 4
__$EHRec$ = -12						; size = 12
?LoadPatrol@CWorld@@QAEHXZ PROC				; CWorld::LoadPatrol, COMDAT
; _this$ = ecx

; 273  : {

  00000	55		 push	 ebp
  00001	8b ec		 mov	 ebp, esp
  00003	6a ff		 push	 -1
  00005	68 00 00 00 00	 push	 __ehhandler$?LoadPatrol@CWorld@@QAEHXZ
  0000a	64 a1 00 00 00
	00		 mov	 eax, DWORD PTR fs:0
  00010	50		 push	 eax
  00011	83 ec 08	 sub	 esp, 8
  00014	53		 push	 ebx
  00015	56		 push	 esi
  00016	57		 push	 edi
  00017	a1 00 00 00 00	 mov	 eax, DWORD PTR ___security_cookie
  0001c	33 c5		 xor	 eax, ebp
  0001e	50		 push	 eax
  0001f	8d 45 f4	 lea	 eax, DWORD PTR __$EHRec$[ebp]
  00022	64 a3 00 00 00
	00		 mov	 DWORD PTR fs:0, eax
  00028	8b d9		 mov	 ebx, ecx

; 274  : 	CString strLandName = m_szFileName;

  0002a	8d b3 20 92 08
	00		 lea	 esi, DWORD PTR [ebx+561696]
; File C:\Program Files\Microsoft Visual Studio\2022\Professional\VC\Tools\MSVC\14.44.35207\atlmfc\include\afxstr.h

; 56   : 		return( AfxGetStringManager() );

  00030	e8 00 00 00 00	 call	 ?AfxGetStringManager@@YGPAUIAtlStringMgr@ATL@@XZ ; AfxGetStringManager
  00035	8b c8		 mov	 ecx, eax
; File C:\Program Files\Microsoft Visual Studio\2022\Professional\VC\Tools\MSVC\14.44.35207\atlmfc\include\atlsimpstr.h

; 209  : 		ATLENSURE( pStringMgr != NULL );

  00037	85 c9		 test	 ecx, ecx
  00039	0f 84 fd 00 00
	00		 je	 $LN77@LoadPatrol

; 210  : 		CStringData* pData = pStringMgr->GetNilString();

  0003f	8b 01		 mov	 eax, DWORD PTR [ecx]
  00041	ff 50 0c	 call	 DWORD PTR [eax+12]

; 211  : 		Attach( pData );

  00044	83 c0 10	 add	 eax, 16			; 00000010H
  00047	89 45 f0	 mov	 DWORD PTR _strLandName$[ebp], eax
; File C:\Program Files\Microsoft Visual Studio\2022\Professional\VC\Tools\MSVC\14.44.35207\atlmfc\include\cstringt.h

; 1052 : 		CThisSimpleString( StringTraits::GetDefaultManager() )

  0004a	c7 45 fc 00 00
	00 00		 mov	 DWORD PTR __$EHRec$[ebp+8], 0

; 2712 : 		if( (pv != NULL) && IS_INTRESOURCE( pv ) )

  00051	85 f6		 test	 esi, esi
  00053	74 26		 je	 SHORT $LN72@LoadPatrol
  00055	f7 c6 00 00 ff
	ff		 test	 esi, -65536		; ffff0000H
  0005b	75 0e		 jne	 SHORT $LN32@LoadPatrol

; 2713 : 		{
; 2714 : 			UINT nID = LOWORD( reinterpret_cast< DWORD_PTR >( pv ) );

  0005d	0f b7 c6	 movzx	 eax, si

; 2715 : 			(nID);
; 2716 : #ifdef _ATL_USE_WINAPI_FAMILY_DESKTOP_APP
; 2717 : 			if( !LoadString( nID ) )

  00060	8d 4d f0	 lea	 ecx, DWORD PTR _strLandName$[ebp]
  00063	50		 push	 eax
  00064	e8 00 00 00 00	 call	 ?LoadStringA@?$CStringT@DV?$StrTraitMFC@DV?$ChTraitsCRT@D@ATL@@@@@ATL@@QAEHI@Z ; ATL::CStringT<char,StrTraitMFC<char,ATL::ChTraitsCRT<char> > >::LoadStringA

; 1054 : 		if( !CheckImplicitLoad( pszSrc ) )

  00069	eb 1c		 jmp	 SHORT $LN6@LoadPatrol
$LN32@LoadPatrol:
; File C:\Program Files\Microsoft Visual Studio\2022\Professional\VC\Tools\MSVC\14.44.35207\atlmfc\include\atlsimpstr.h

; 730  : 		return( int( strlen( psz ) ) );

  0006b	8b c6		 mov	 eax, esi
  0006d	8d 50 01	 lea	 edx, DWORD PTR [eax+1]
$LL73@LoadPatrol:
  00070	8a 08		 mov	 cl, BYTE PTR [eax]
  00072	40		 inc	 eax
  00073	84 c9		 test	 cl, cl
  00075	75 f9		 jne	 SHORT $LL73@LoadPatrol
  00077	2b c2		 sub	 eax, edx
  00079	eb 02		 jmp	 SHORT $LN31@LoadPatrol
$LN72@LoadPatrol:

; 607  : 	}
; 608  : 	void SetString(
; 609  : 		_In_reads_opt_(nLength) PCXSTR pszSrc,
; 610  : 		_In_ int nLength)
; 611  : 	{
; 612  : 		if( nLength == 0 )
; 613  : 		{
; 614  : 			Empty();
; 615  : 		}
; 616  : 		else
; 617  : 		{
; 618  : 			// It is possible that pszSrc points to a location inside of our
; 619  : 			// buffer.  GetBuffer() might change m_pszData if (1) the buffer
; 620  : 			// is shared or (2) the buffer is too small to hold the new
; 621  : 			// string.  We detect this aliasing, and modify pszSrc to point
; 622  : 			// into the newly allocated buffer instead.
; 623  : 
; 624  : 			if(pszSrc == NULL)
; 625  : 				AtlThrow(E_INVALIDARG);
; 626  : 
; 627  : 			UINT nOldLength = GetLength();
; 628  : 			UINT_PTR nOffset = pszSrc-GetString();
; 629  : 			// If 0 <= nOffset <= nOldLength, then pszSrc points into our
; 630  : 			// buffer
; 631  : 
; 632  : 			PXSTR pszBuffer = GetBuffer( nLength );
; 633  : 			if( nOffset <= nOldLength )
; 634  : 			{
; 635  : 				CopyCharsOverlapped( pszBuffer, GetAllocLength(),
; 636  : 					pszBuffer+nOffset, nLength );
; 637  : 			}
; 638  : 			else
; 639  : 			{
; 640  : 				memcpy_s( pszBuffer, GetAllocLength() * sizeof( XCHAR ), pszSrc, nLength * sizeof( XCHAR ));
; 641  : 			}
; 642  : 			ReleaseBufferSetLength( nLength );
; 643  : 		}
; 644  : 	}
; 645  : 
; 646  : public:
; 647  : 	friend CSimpleStringT operator+(
; 648  : 		_In_ const CSimpleStringT& str1,
; 649  : 		_In_ const CSimpleStringT& str2)
; 650  : 	{
; 651  : 		CSimpleStringT s( str1.GetManager() );
; 652  : 
; 653  : 		Concatenate( s, str1, str1.GetLength(), str2, str2.GetLength() );
; 654  : 
; 655  : 		return( s );
; 656  : 	}
; 657  : 
; 658  : 	friend CSimpleStringT operator+(
; 659  : 		_In_ const CSimpleStringT& str1,
; 660  : 		_In_z_ PCXSTR psz2)
; 661  : 	{
; 662  : 		CSimpleStringT s( str1.GetManager() );
; 663  : 
; 664  : 		Concatenate( s, str1, str1.GetLength(), psz2, StringLength( psz2 ) );
; 665  : 
; 666  : 		return( s );
; 667  : 	}
; 668  : 
; 669  : 	friend CSimpleStringT operator+(
; 670  : 		_In_z_ PCXSTR psz1,
; 671  : 		_In_ const CSimpleStringT& str2)
; 672  : 	{
; 673  : 		CSimpleStringT s( str2.GetManager() );
; 674  : 
; 675  : 		Concatenate( s, psz1, StringLength( psz1 ), str2, str2.GetLength() );
; 676  : 
; 677  : 		return( s );
; 678  : 	}
; 679  : 
; 680  : 	_ATL_INSECURE_DEPRECATE("CSimpleStringT::CopyChars must be passed a buffer size")
; 681  : 	static void __cdecl CopyChars(
; 682  : 		_Out_writes_(nChars) XCHAR* pchDest,
; 683  : 		_In_reads_opt_(nChars) const XCHAR* pchSrc,
; 684  : 		_In_ int nChars) throw()
; 685  : 	{
; 686  : 		if (pchSrc != NULL)
; 687  : 		{
; 688  : 			#pragma warning (push)
; 689  : 			#pragma warning(disable : 4996)
; 690  : 			memcpy( pchDest, pchSrc, nChars*sizeof( XCHAR ) );
; 691  : 			#pragma warning (pop)
; 692  : 		}
; 693  : 	}
; 694  : 	static void __cdecl CopyChars(
; 695  : 		_Out_writes_to_(nDestLen,nChars) XCHAR* pchDest,
; 696  : 		_In_ size_t nDestLen,
; 697  : 		_In_reads_opt_(nChars) const XCHAR* pchSrc,
; 698  : 		_In_ int nChars) throw()
; 699  : 	{
; 700  : 		memcpy_s( pchDest, nDestLen*sizeof( XCHAR ),
; 701  : 			pchSrc, nChars*sizeof( XCHAR ) );
; 702  : 	}
; 703  : 
; 704  : 	_ATL_INSECURE_DEPRECATE("CSimpleStringT::CopyCharsOverlapped must be passed a buffer size")
; 705  : 	static void __cdecl CopyCharsOverlapped(
; 706  : 		_Out_writes_(nChars) XCHAR* pchDest,
; 707  : 		_In_reads_(nChars) const XCHAR* pchSrc,
; 708  : 		_In_ int nChars) throw()
; 709  : 	{
; 710  : 		#pragma warning (push)
; 711  : 		#pragma warning(disable : 4996)
; 712  : 		memmove( pchDest, pchSrc, nChars*sizeof( XCHAR ) );
; 713  : 		#pragma warning (pop)
; 714  : 	}
; 715  : 	static void __cdecl CopyCharsOverlapped(
; 716  : 		_Out_writes_to_(nDestLen, nDestLen) XCHAR* pchDest,
; 717  : 		_In_ size_t nDestLen,
; 718  : 		_In_reads_(nChars) const XCHAR* pchSrc,
; 719  : 		_In_ int nChars) throw()
; 720  : 	{
; 721  : 		memmove_s( pchDest, nDestLen*sizeof( XCHAR ),
; 722  : 			pchSrc, nChars*sizeof( XCHAR ) );
; 723  : 	}
; 724  : 	static int __cdecl StringLength(_In_opt_z_ const char* psz) throw()
; 725  : 	{
; 726  : 		if( psz == NULL )
; 727  : 		{
; 728  : 			return( 0 );

  0007b	33 c0		 xor	 eax, eax
$LN31@LoadPatrol:

; 606  : 		SetString( pszSrc, StringLength( pszSrc ) );

  0007d	50		 push	 eax
  0007e	56		 push	 esi
  0007f	8d 4d f0	 lea	 ecx, DWORD PTR _strLandName$[ebp]
  00082	e8 00 00 00 00	 call	 ?SetString@?$CSimpleStringT@D$0A@@ATL@@QAEXPBDH@Z ; ATL::CSimpleStringT<char,0>::SetString
$LN6@LoadPatrol:
; File C:\IAGOS\server\v18\Source\Source\_Common\worldfile.cpp

; 274  : 	CString strLandName = m_szFileName;

  00087	c7 45 fc 01 00
	00 00		 mov	 DWORD PTR __$EHRec$[ebp+8], 1
; File C:\Program Files\Microsoft Visual Studio\2022\Professional\VC\Tools\MSVC\14.44.35207\atlmfc\include\afxstr.h

; 56   : 		return( AfxGetStringManager() );

  0008e	e8 00 00 00 00	 call	 ?AfxGetStringManager@@YGPAUIAtlStringMgr@ATL@@XZ ; AfxGetStringManager
  00093	8b c8		 mov	 ecx, eax
; File C:\Program Files\Microsoft Visual Studio\2022\Professional\VC\Tools\MSVC\14.44.35207\atlmfc\include\atlsimpstr.h

; 209  : 		ATLENSURE( pStringMgr != NULL );

  00095	85 c9		 test	 ecx, ecx
  00097	0f 84 a9 00 00
	00		 je	 $LN78@LoadPatrol

; 210  : 		CStringData* pData = pStringMgr->GetNilString();

  0009d	8b 01		 mov	 eax, DWORD PTR [ecx]
  0009f	ff 50 0c	 call	 DWORD PTR [eax+12]

; 211  : 		Attach( pData );

  000a2	83 c0 10	 add	 eax, 16			; 00000010H
  000a5	89 45 ec	 mov	 DWORD PTR _strLandTemp$[ebp], eax
; File C:\IAGOS\server\v18\Source\Source\_Common\worldfile.cpp

; 276  : 	strLandName.Delete( strLandName.GetLength() - 4, 4 );

  000a8	8b 45 f0	 mov	 eax, DWORD PTR _strLandName$[ebp]
  000ab	8d 4d f0	 lea	 ecx, DWORD PTR _strLandName$[ebp]
  000ae	6a 04		 push	 4
  000b0	c6 45 fc 02	 mov	 BYTE PTR __$EHRec$[ebp+8], 2
  000b4	8b 40 f4	 mov	 eax, DWORD PTR [eax-12]
  000b7	83 e8 04	 sub	 eax, 4
  000ba	50		 push	 eax
  000bb	e8 00 00 00 00	 call	 ?Delete@?$CStringT@DV?$StrTraitMFC@DV?$ChTraitsCRT@D@ATL@@@@@ATL@@QAEHHH@Z ; ATL::CStringT<char,StrTraitMFC<char,ATL::ChTraitsCRT<char> > >::Delete

; 277  : 	strLandTemp.Format( "%s%s.pat", m_szFilePath, strLandName );

  000c0	8b 7d f0	 mov	 edi, DWORD PTR _strLandName$[ebp]
  000c3	8d 83 1c 91 08
	00		 lea	 eax, DWORD PTR [ebx+561436]
  000c9	57		 push	 edi
  000ca	50		 push	 eax
  000cb	8d 45 ec	 lea	 eax, DWORD PTR _strLandTemp$[ebp]
  000ce	68 00 00 00 00	 push	 OFFSET ??_C@_08PEPEPPIG@?$CFs?$CFs?4pat@
  000d3	50		 push	 eax
  000d4	e8 00 00 00 00	 call	 ?Format@?$CStringT@DV?$StrTraitMFC@DV?$ChTraitsCRT@D@ATL@@@@@ATL@@QAAXPBDZZ ; ATL::CStringT<char,StrTraitMFC<char,ATL::ChTraitsCRT<char> > >::Format

; 278  : 	return CPatrolPath::GetInstance()->LoadPatrol( strLandTemp );

  000d9	8b 75 ec	 mov	 esi, DWORD PTR _strLandTemp$[ebp]
  000dc	83 c4 10	 add	 esp, 16			; 00000010H
  000df	56		 push	 esi
  000e0	e8 00 00 00 00	 call	 ?GetInstance@CPatrolPath@@SAPAV1@XZ ; CPatrolPath::GetInstance
  000e5	8b c8		 mov	 ecx, eax
  000e7	e8 00 00 00 00	 call	 ?LoadPatrol@CPatrolPath@@QAEHPBD@Z ; CPatrolPath::LoadPatrol
; File C:\Program Files\Microsoft Visual Studio\2022\Professional\VC\Tools\MSVC\14.44.35207\atlmfc\include\atlsimpstr.h

; 804  : 		return( reinterpret_cast< CStringData* >( m_pszData )-1 );

  000ec	8d 56 f0	 lea	 edx, DWORD PTR [esi-16]
; File C:\IAGOS\server\v18\Source\Source\_Common\worldfile.cpp

; 278  : 	return CPatrolPath::GetInstance()->LoadPatrol( strLandTemp );

  000ef	c6 45 fc 01	 mov	 BYTE PTR __$EHRec$[ebp+8], 1
; File C:\Program Files\Microsoft Visual Studio\2022\Professional\VC\Tools\MSVC\14.44.35207\atlmfc\include\atlsimpstr.h

; 92   : 		if( _InterlockedDecrement( &nRefs ) <= 0 )

  000f3	83 ce ff	 or	 esi, -1
; File C:\IAGOS\server\v18\Source\Source\_Common\worldfile.cpp

; 278  : 	return CPatrolPath::GetInstance()->LoadPatrol( strLandTemp );

  000f6	8b d8		 mov	 ebx, eax
; File C:\Program Files\Microsoft Visual Studio\2022\Professional\VC\Tools\MSVC\14.44.35207\atlmfc\include\atlsimpstr.h

; 92   : 		if( _InterlockedDecrement( &nRefs ) <= 0 )

  000f8	8b ce		 mov	 ecx, esi
  000fa	f0 0f c1 4a 0c	 lock	  xadd	 DWORD PTR [edx+12], ecx
  000ff	49		 dec	 ecx
  00100	85 c9		 test	 ecx, ecx
  00102	7f 08		 jg	 SHORT $LN60@LoadPatrol

; 93   : 		{
; 94   : 			pStringMgr->Free( this );

  00104	8b 0a		 mov	 ecx, DWORD PTR [edx]
  00106	52		 push	 edx
  00107	8b 01		 mov	 eax, DWORD PTR [ecx]
  00109	ff 50 04	 call	 DWORD PTR [eax+4]
$LN60@LoadPatrol:
; File C:\IAGOS\server\v18\Source\Source\_Common\worldfile.cpp

; 278  : 	return CPatrolPath::GetInstance()->LoadPatrol( strLandTemp );

  0010c	c7 45 fc ff ff
	ff ff		 mov	 DWORD PTR __$EHRec$[ebp+8], -1
; File C:\Program Files\Microsoft Visual Studio\2022\Professional\VC\Tools\MSVC\14.44.35207\atlmfc\include\atlsimpstr.h

; 804  : 		return( reinterpret_cast< CStringData* >( m_pszData )-1 );

  00113	83 c7 f0	 add	 edi, -16		; fffffff0H

; 92   : 		if( _InterlockedDecrement( &nRefs ) <= 0 )

  00116	f0 0f c1 77 0c	 lock	  xadd	 DWORD PTR [edi+12], esi
  0011b	4e		 dec	 esi
  0011c	85 f6		 test	 esi, esi
  0011e	7f 08		 jg	 SHORT $LN69@LoadPatrol

; 93   : 		{
; 94   : 			pStringMgr->Free( this );

  00120	8b 0f		 mov	 ecx, DWORD PTR [edi]
  00122	57		 push	 edi
  00123	8b 01		 mov	 eax, DWORD PTR [ecx]
  00125	ff 50 04	 call	 DWORD PTR [eax+4]
$LN69@LoadPatrol:
; File C:\IAGOS\server\v18\Source\Source\_Common\worldfile.cpp

; 278  : 	return CPatrolPath::GetInstance()->LoadPatrol( strLandTemp );

  00128	8b c3		 mov	 eax, ebx

; 279  : }

  0012a	8b 4d f4	 mov	 ecx, DWORD PTR __$EHRec$[ebp]
  0012d	64 89 0d 00 00
	00 00		 mov	 DWORD PTR fs:0, ecx
  00134	59		 pop	 ecx
  00135	5f		 pop	 edi
  00136	5e		 pop	 esi
  00137	5b		 pop	 ebx
  00138	8b e5		 mov	 esp, ebp
  0013a	5d		 pop	 ebp
  0013b	c3		 ret	 0
$LN77@LoadPatrol:
; File C:\Program Files\Microsoft Visual Studio\2022\Professional\VC\Tools\MSVC\14.44.35207\atlmfc\include\atlsimpstr.h

; 209  : 		ATLENSURE( pStringMgr != NULL );

  0013c	68 05 40 00 80	 push	 -2147467259		; 80004005H
  00141	e8 00 00 00 00	 call	 ?AtlThrowImpl@ATL@@YGXJ@Z ; ATL::AtlThrowImpl
$LN78@LoadPatrol:
  00146	68 05 40 00 80	 push	 -2147467259		; 80004005H
  0014b	e8 00 00 00 00	 call	 ?AtlThrowImpl@ATL@@YGXJ@Z ; ATL::AtlThrowImpl
$LN75@LoadPatrol:
  00150	cc		 int	 3
_TEXT	ENDS
;	COMDAT text$x
text$x	SEGMENT
__unwindfunclet$?LoadPatrol@CWorld@@QAEHXZ$2:
  00000	8d 4d f0	 lea	 ecx, DWORD PTR _strLandName$[ebp]
  00003	e9 00 00 00 00	 jmp	 ??1?$CSimpleStringT@D$0A@@ATL@@QAE@XZ ; ATL::CSimpleStringT<char,0>::~CSimpleStringT<char,0>
__unwindfunclet$?LoadPatrol@CWorld@@QAEHXZ$0:
  00008	8d 4d f0	 lea	 ecx, DWORD PTR _strLandName$[ebp]
  0000b	e9 00 00 00 00	 jmp	 ??1?$CStringT@DV?$StrTraitMFC@DV?$ChTraitsCRT@D@ATL@@@@@ATL@@QAE@XZ ; ATL::CStringT<char,StrTraitMFC<char,ATL::ChTraitsCRT<char> > >::~CStringT<char,StrTraitMFC<char,ATL::ChTraitsCRT<char> > >
__unwindfunclet$?LoadPatrol@CWorld@@QAEHXZ$1:
  00010	8d 4d ec	 lea	 ecx, DWORD PTR _strLandTemp$[ebp]
  00013	e9 00 00 00 00	 jmp	 ??1?$CStringT@DV?$StrTraitMFC@DV?$ChTraitsCRT@D@ATL@@@@@ATL@@QAE@XZ ; ATL::CStringT<char,StrTraitMFC<char,ATL::ChTraitsCRT<char> > >::~CStringT<char,StrTraitMFC<char,ATL::ChTraitsCRT<char> > >
  00018	cc		 int	 3
  00019	cc		 int	 3
  0001a	cc		 int	 3
  0001b	cc		 int	 3
  0001c	cc		 int	 3
__ehhandler$?LoadPatrol@CWorld@@QAEHXZ:
  0001d	90		 npad	 1
  0001e	90		 npad	 1
  0001f	8b 54 24 08	 mov	 edx, DWORD PTR [esp+8]
  00023	8d 42 0c	 lea	 eax, DWORD PTR [edx+12]
  00026	8b 4a e8	 mov	 ecx, DWORD PTR [edx-24]
  00029	33 c8		 xor	 ecx, eax
  0002b	e8 00 00 00 00	 call	 @__security_check_cookie@4
  00030	b8 00 00 00 00	 mov	 eax, OFFSET __ehfuncinfo$?LoadPatrol@CWorld@@QAEHXZ
  00035	e9 00 00 00 00	 jmp	 ___CxxFrameHandler3
text$x	ENDS
?LoadPatrol@CWorld@@QAEHXZ ENDP				; CWorld::LoadPatrol
; Function compile flags: /Ogtp
; File C:\IAGOS\server\v18\Source\Source\_Common\worldfile.cpp
; File C:\Program Files\Microsoft Visual Studio\2022\Professional\VC\Tools\MSVC\14.44.35207\atlmfc\include\afxstr.h
; File C:\Program Files\Microsoft Visual Studio\2022\Professional\VC\Tools\MSVC\14.44.35207\atlmfc\include\atlsimpstr.h
; File C:\Program Files\Microsoft Visual Studio\2022\Professional\VC\Tools\MSVC\14.44.35207\atlmfc\include\cstringt.h
; File C:\Program Files\Microsoft Visual Studio\2022\Professional\VC\Tools\MSVC\14.44.35207\atlmfc\include\atlsimpstr.h
; File C:\IAGOS\server\v18\Source\Source\_Common\worldfile.cpp
; File C:\Program Files\Microsoft Visual Studio\2022\Professional\VC\Tools\MSVC\14.44.35207\atlmfc\include\afxstr.h
; File C:\Program Files\Microsoft Visual Studio\2022\Professional\VC\Tools\MSVC\14.44.35207\atlmfc\include\atlsimpstr.h
; File C:\IAGOS\server\v18\Source\Source\_Common\worldfile.cpp
; File C:\Program Files\Microsoft Visual Studio\2022\Professional\VC\Tools\MSVC\14.44.35207\atlmfc\include\cstringt.h
; File C:\IAGOS\server\v18\Source\Source\_Common\worldfile.cpp
; File C:\Program Files\Microsoft Visual Studio\2022\Professional\VC\Tools\MSVC\14.44.35207\atlmfc\include\cstringt.h
; File C:\IAGOS\server\v18\Source\Source\_Common\worldfile.cpp
; File C:\Program Files\Microsoft Visual Studio\2022\Professional\VC\Tools\MSVC\14.44.35207\atlmfc\include\cstringt.h
; File C:\IAGOS\server\v18\Source\Source\_Common\worldfile.cpp
; File C:\Program Files\Microsoft Visual Studio\2022\Professional\VC\Tools\MSVC\14.44.35207\atlmfc\include\cstringt.h
; File C:\IAGOS\server\v18\Source\Source\_Common\worldfile.cpp
; File C:\Program Files\Microsoft Visual Studio\2022\Professional\VC\Tools\MSVC\14.44.35207\atlmfc\include\cstringt.h
; File C:\IAGOS\server\v18\Source\Source\_Common\worldfile.cpp
; File C:\Program Files\Microsoft Visual Studio\2022\Professional\VC\Tools\MSVC\14.44.35207\atlmfc\include\cstringt.h
; File C:\IAGOS\server\v18\Source\Source\_Common\worldfile.cpp
; File C:\Program Files\Microsoft Visual Studio\2022\Professional\VC\Tools\MSVC\14.44.35207\atlmfc\include\cstringt.h
; File C:\IAGOS\server\v18\Source\Source\_Common\worldfile.cpp
; File C:\Program Files\Microsoft Visual Studio\2022\Professional\VC\Tools\MSVC\14.44.35207\atlmfc\include\cstringt.h
; File C:\IAGOS\server\v18\Source\Source\_Common\worldfile.cpp
; File C:\Program Files\Microsoft Visual Studio\2022\Professional\VC\Tools\MSVC\14.44.35207\atlmfc\include\cstringt.h
; File C:\IAGOS\server\v18\Source\Source\_Common\worldfile.cpp
; File C:\Program Files\Microsoft Visual Studio\2022\Professional\VC\Tools\MSVC\14.44.35207\atlmfc\include\cstringt.h
; File C:\IAGOS\server\v18\Source\Source\_Common\worldfile.cpp
; File C:\Program Files\Microsoft Visual Studio\2022\Professional\VC\Tools\MSVC\14.44.35207\atlmfc\include\atlsimpstr.h
; File C:\IAGOS\server\v18\Source\Source\_Common\worldfile.cpp
; File C:\Program Files\Microsoft Visual Studio\2022\Professional\VC\Tools\MSVC\14.44.35207\atlmfc\include\atlsimpstr.h
; File C:\IAGOS\server\v18\Source\Source\_Common\worldfile.cpp
; File C:\Program Files\Microsoft Visual Studio\2022\Professional\VC\Tools\MSVC\14.44.35207\atlmfc\include\atlsimpstr.h
; File C:\IAGOS\server\v18\Source\Source\_Common\worldfile.cpp
; File C:\Program Files\Microsoft Visual Studio\2022\Professional\VC\Tools\MSVC\14.44.35207\atlmfc\include\atlsimpstr.h
; File C:\IAGOS\server\v18\Source\Source\_Common\worldfile.cpp
;	COMDAT ?LoadRegion@CWorld@@QAEHXZ
_TEXT	SEGMENT
_strLandTemp$ = -3584					; size = 4
_strLandName$ = -3580					; size = 4
_s$ = -3576						; size = 3560
__$ArrayPad$ = -16					; size = 4
__$EHRec$ = -12						; size = 12
?LoadRegion@CWorld@@QAEHXZ PROC				; CWorld::LoadRegion, COMDAT
; _this$ = ecx

; 776  : {

  00000	55		 push	 ebp
  00001	8b ec		 mov	 ebp, esp
  00003	6a ff		 push	 -1
  00005	68 00 00 00 00	 push	 __ehhandler$?LoadRegion@CWorld@@QAEHXZ
  0000a	64 a1 00 00 00
	00		 mov	 eax, DWORD PTR fs:0
  00010	50		 push	 eax
  00011	81 ec f4 0d 00
	00		 sub	 esp, 3572		; 00000df4H
  00017	a1 00 00 00 00	 mov	 eax, DWORD PTR ___security_cookie
  0001c	33 c5		 xor	 eax, ebp
  0001e	89 45 f0	 mov	 DWORD PTR __$ArrayPad$[ebp], eax
  00021	53		 push	 ebx
  00022	56		 push	 esi
  00023	57		 push	 edi
  00024	50		 push	 eax
  00025	8d 45 f4	 lea	 eax, DWORD PTR __$EHRec$[ebp]
  00028	64 a3 00 00 00
	00		 mov	 DWORD PTR fs:0, eax
  0002e	8b d9		 mov	 ebx, ecx

; 778  : 	CString strLandName = m_szFileName;

  00030	8d b3 20 92 08
	00		 lea	 esi, DWORD PTR [ebx+561696]
; File C:\Program Files\Microsoft Visual Studio\2022\Professional\VC\Tools\MSVC\14.44.35207\atlmfc\include\afxstr.h

; 56   : 		return( AfxGetStringManager() );

  00036	e8 00 00 00 00	 call	 ?AfxGetStringManager@@YGPAUIAtlStringMgr@ATL@@XZ ; AfxGetStringManager
  0003b	8b c8		 mov	 ecx, eax
; File C:\Program Files\Microsoft Visual Studio\2022\Professional\VC\Tools\MSVC\14.44.35207\atlmfc\include\atlsimpstr.h

; 209  : 		ATLENSURE( pStringMgr != NULL );

  0003d	85 c9		 test	 ecx, ecx
  0003f	0f 84 ac 02 00
	00		 je	 $LN262@LoadRegion

; 210  : 		CStringData* pData = pStringMgr->GetNilString();

  00045	8b 01		 mov	 eax, DWORD PTR [ecx]
  00047	ff 50 0c	 call	 DWORD PTR [eax+12]

; 211  : 		Attach( pData );

  0004a	83 c0 10	 add	 eax, 16			; 00000010H
  0004d	89 85 04 f2 ff
	ff		 mov	 DWORD PTR _strLandName$[ebp], eax
; File C:\Program Files\Microsoft Visual Studio\2022\Professional\VC\Tools\MSVC\14.44.35207\atlmfc\include\cstringt.h

; 1052 : 		CThisSimpleString( StringTraits::GetDefaultManager() )

  00053	c7 45 fc 00 00
	00 00		 mov	 DWORD PTR __$EHRec$[ebp+8], 0

; 2712 : 		if( (pv != NULL) && IS_INTRESOURCE( pv ) )

  0005a	85 f6		 test	 esi, esi
  0005c	74 2d		 je	 SHORT $LN257@LoadRegion
  0005e	f7 c6 00 00 ff
	ff		 test	 esi, -65536		; ffff0000H
  00064	75 11		 jne	 SHORT $LN91@LoadRegion

; 2713 : 		{
; 2714 : 			UINT nID = LOWORD( reinterpret_cast< DWORD_PTR >( pv ) );

  00066	0f b7 c6	 movzx	 eax, si

; 2715 : 			(nID);
; 2716 : #ifdef _ATL_USE_WINAPI_FAMILY_DESKTOP_APP
; 2717 : 			if( !LoadString( nID ) )

  00069	8d 8d 04 f2 ff
	ff		 lea	 ecx, DWORD PTR _strLandName$[ebp]
  0006f	50		 push	 eax
  00070	e8 00 00 00 00	 call	 ?LoadStringA@?$CStringT@DV?$StrTraitMFC@DV?$ChTraitsCRT@D@ATL@@@@@ATL@@QAEHI@Z ; ATL::CStringT<char,StrTraitMFC<char,ATL::ChTraitsCRT<char> > >::LoadStringA

; 1054 : 		if( !CheckImplicitLoad( pszSrc ) )

  00075	eb 23		 jmp	 SHORT $LN65@LoadRegion
$LN91@LoadRegion:
; File C:\Program Files\Microsoft Visual Studio\2022\Professional\VC\Tools\MSVC\14.44.35207\atlmfc\include\atlsimpstr.h

; 730  : 		return( int( strlen( psz ) ) );

  00077	8b ce		 mov	 ecx, esi
  00079	8d 51 01	 lea	 edx, DWORD PTR [ecx+1]
  0007c	0f 1f 40 00	 npad	 4
$LL258@LoadRegion:
  00080	8a 01		 mov	 al, BYTE PTR [ecx]
  00082	41		 inc	 ecx
  00083	84 c0		 test	 al, al
  00085	75 f9		 jne	 SHORT $LL258@LoadRegion
  00087	2b ca		 sub	 ecx, edx
  00089	eb 02		 jmp	 SHORT $LN90@LoadRegion
$LN257@LoadRegion:

; 607  : 	}
; 608  : 	void SetString(
; 609  : 		_In_reads_opt_(nLength) PCXSTR pszSrc,
; 610  : 		_In_ int nLength)
; 611  : 	{
; 612  : 		if( nLength == 0 )
; 613  : 		{
; 614  : 			Empty();
; 615  : 		}
; 616  : 		else
; 617  : 		{
; 618  : 			// It is possible that pszSrc points to a location inside of our
; 619  : 			// buffer.  GetBuffer() might change m_pszData if (1) the buffer
; 620  : 			// is shared or (2) the buffer is too small to hold the new
; 621  : 			// string.  We detect this aliasing, and modify pszSrc to point
; 622  : 			// into the newly allocated buffer instead.
; 623  : 
; 624  : 			if(pszSrc == NULL)
; 625  : 				AtlThrow(E_INVALIDARG);
; 626  : 
; 627  : 			UINT nOldLength = GetLength();
; 628  : 			UINT_PTR nOffset = pszSrc-GetString();
; 629  : 			// If 0 <= nOffset <= nOldLength, then pszSrc points into our
; 630  : 			// buffer
; 631  : 
; 632  : 			PXSTR pszBuffer = GetBuffer( nLength );
; 633  : 			if( nOffset <= nOldLength )
; 634  : 			{
; 635  : 				CopyCharsOverlapped( pszBuffer, GetAllocLength(),
; 636  : 					pszBuffer+nOffset, nLength );
; 637  : 			}
; 638  : 			else
; 639  : 			{
; 640  : 				memcpy_s( pszBuffer, GetAllocLength() * sizeof( XCHAR ), pszSrc, nLength * sizeof( XCHAR ));
; 641  : 			}
; 642  : 			ReleaseBufferSetLength( nLength );
; 643  : 		}
; 644  : 	}
; 645  : 
; 646  : public:
; 647  : 	friend CSimpleStringT operator+(
; 648  : 		_In_ const CSimpleStringT& str1,
; 649  : 		_In_ const CSimpleStringT& str2)
; 650  : 	{
; 651  : 		CSimpleStringT s( str1.GetManager() );
; 652  : 
; 653  : 		Concatenate( s, str1, str1.GetLength(), str2, str2.GetLength() );
; 654  : 
; 655  : 		return( s );
; 656  : 	}
; 657  : 
; 658  : 	friend CSimpleStringT operator+(
; 659  : 		_In_ const CSimpleStringT& str1,
; 660  : 		_In_z_ PCXSTR psz2)
; 661  : 	{
; 662  : 		CSimpleStringT s( str1.GetManager() );
; 663  : 
; 664  : 		Concatenate( s, str1, str1.GetLength(), psz2, StringLength( psz2 ) );
; 665  : 
; 666  : 		return( s );
; 667  : 	}
; 668  : 
; 669  : 	friend CSimpleStringT operator+(
; 670  : 		_In_z_ PCXSTR psz1,
; 671  : 		_In_ const CSimpleStringT& str2)
; 672  : 	{
; 673  : 		CSimpleStringT s( str2.GetManager() );
; 674  : 
; 675  : 		Concatenate( s, psz1, StringLength( psz1 ), str2, str2.GetLength() );
; 676  : 
; 677  : 		return( s );
; 678  : 	}
; 679  : 
; 680  : 	_ATL_INSECURE_DEPRECATE("CSimpleStringT::CopyChars must be passed a buffer size")
; 681  : 	static void __cdecl CopyChars(
; 682  : 		_Out_writes_(nChars) XCHAR* pchDest,
; 683  : 		_In_reads_opt_(nChars) const XCHAR* pchSrc,
; 684  : 		_In_ int nChars) throw()
; 685  : 	{
; 686  : 		if (pchSrc != NULL)
; 687  : 		{
; 688  : 			#pragma warning (push)
; 689  : 			#pragma warning(disable : 4996)
; 690  : 			memcpy( pchDest, pchSrc, nChars*sizeof( XCHAR ) );
; 691  : 			#pragma warning (pop)
; 692  : 		}
; 693  : 	}
; 694  : 	static void __cdecl CopyChars(
; 695  : 		_Out_writes_to_(nDestLen,nChars) XCHAR* pchDest,
; 696  : 		_In_ size_t nDestLen,
; 697  : 		_In_reads_opt_(nChars) const XCHAR* pchSrc,
; 698  : 		_In_ int nChars) throw()
; 699  : 	{
; 700  : 		memcpy_s( pchDest, nDestLen*sizeof( XCHAR ),
; 701  : 			pchSrc, nChars*sizeof( XCHAR ) );
; 702  : 	}
; 703  : 
; 704  : 	_ATL_INSECURE_DEPRECATE("CSimpleStringT::CopyCharsOverlapped must be passed a buffer size")
; 705  : 	static void __cdecl CopyCharsOverlapped(
; 706  : 		_Out_writes_(nChars) XCHAR* pchDest,
; 707  : 		_In_reads_(nChars) const XCHAR* pchSrc,
; 708  : 		_In_ int nChars) throw()
; 709  : 	{
; 710  : 		#pragma warning (push)
; 711  : 		#pragma warning(disable : 4996)
; 712  : 		memmove( pchDest, pchSrc, nChars*sizeof( XCHAR ) );
; 713  : 		#pragma warning (pop)
; 714  : 	}
; 715  : 	static void __cdecl CopyCharsOverlapped(
; 716  : 		_Out_writes_to_(nDestLen, nDestLen) XCHAR* pchDest,
; 717  : 		_In_ size_t nDestLen,
; 718  : 		_In_reads_(nChars) const XCHAR* pchSrc,
; 719  : 		_In_ int nChars) throw()
; 720  : 	{
; 721  : 		memmove_s( pchDest, nDestLen*sizeof( XCHAR ),
; 722  : 			pchSrc, nChars*sizeof( XCHAR ) );
; 723  : 	}
; 724  : 	static int __cdecl StringLength(_In_opt_z_ const char* psz) throw()
; 725  : 	{
; 726  : 		if( psz == NULL )
; 727  : 		{
; 728  : 			return( 0 );

  0008b	33 c9		 xor	 ecx, ecx
$LN90@LoadRegion:

; 606  : 		SetString( pszSrc, StringLength( pszSrc ) );

  0008d	51		 push	 ecx
  0008e	56		 push	 esi
  0008f	8d 8d 04 f2 ff
	ff		 lea	 ecx, DWORD PTR _strLandName$[ebp]
  00095	e8 00 00 00 00	 call	 ?SetString@?$CSimpleStringT@D$0A@@ATL@@QAEXPBDH@Z ; ATL::CSimpleStringT<char,0>::SetString
$LN65@LoadRegion:
; File C:\IAGOS\server\v18\Source\Source\_Common\worldfile.cpp

; 778  : 	CString strLandName = m_szFileName;

  0009a	c7 45 fc 01 00
	00 00		 mov	 DWORD PTR __$EHRec$[ebp+8], 1
; File C:\Program Files\Microsoft Visual Studio\2022\Professional\VC\Tools\MSVC\14.44.35207\atlmfc\include\afxstr.h

; 56   : 		return( AfxGetStringManager() );

  000a1	e8 00 00 00 00	 call	 ?AfxGetStringManager@@YGPAUIAtlStringMgr@ATL@@XZ ; AfxGetStringManager
  000a6	8b c8		 mov	 ecx, eax
; File C:\Program Files\Microsoft Visual Studio\2022\Professional\VC\Tools\MSVC\14.44.35207\atlmfc\include\atlsimpstr.h

; 209  : 		ATLENSURE( pStringMgr != NULL );

  000a8	85 c9		 test	 ecx, ecx
  000aa	0f 84 4b 02 00
	00		 je	 $LN263@LoadRegion

; 210  : 		CStringData* pData = pStringMgr->GetNilString();

  000b0	8b 01		 mov	 eax, DWORD PTR [ecx]
  000b2	ff 50 0c	 call	 DWORD PTR [eax+12]

; 211  : 		Attach( pData );

  000b5	83 c0 10	 add	 eax, 16			; 00000010H
  000b8	89 85 00 f2 ff
	ff		 mov	 DWORD PTR _strLandTemp$[ebp], eax
; File C:\IAGOS\server\v18\Source\Source\_Common\worldfile.cpp

; 780  : 	strLandName.Delete( strLandName.GetLength() - 4, 4 );

  000be	8b 85 04 f2 ff
	ff		 mov	 eax, DWORD PTR _strLandName$[ebp]
  000c4	8d 8d 04 f2 ff
	ff		 lea	 ecx, DWORD PTR _strLandName$[ebp]
  000ca	6a 04		 push	 4
  000cc	c6 45 fc 02	 mov	 BYTE PTR __$EHRec$[ebp+8], 2
  000d0	8b 40 f4	 mov	 eax, DWORD PTR [eax-12]
  000d3	83 e8 04	 sub	 eax, 4
  000d6	50		 push	 eax
  000d7	e8 00 00 00 00	 call	 ?Delete@?$CStringT@DV?$StrTraitMFC@DV?$ChTraitsCRT@D@ATL@@@@@ATL@@QAEHHH@Z ; ATL::CStringT<char,StrTraitMFC<char,ATL::ChTraitsCRT<char> > >::Delete

; 781  : 	strLandTemp.Format( "%s%s.rgn", m_szFilePath, strLandName );

  000dc	8b b5 04 f2 ff
	ff		 mov	 esi, DWORD PTR _strLandName$[ebp]
  000e2	8d 83 1c 91 08
	00		 lea	 eax, DWORD PTR [ebx+561436]
  000e8	56		 push	 esi
  000e9	50		 push	 eax
  000ea	8d 85 00 f2 ff
	ff		 lea	 eax, DWORD PTR _strLandTemp$[ebp]
  000f0	68 00 00 00 00	 push	 OFFSET ??_C@_08OKFNLBGE@?$CFs?$CFs?4rgn@
  000f5	50		 push	 eax
  000f6	e8 00 00 00 00	 call	 ?Format@?$CStringT@DV?$StrTraitMFC@DV?$ChTraitsCRT@D@ATL@@@@@ATL@@QAAXPBDZZ ; ATL::CStringT<char,StrTraitMFC<char,ATL::ChTraitsCRT<char> > >::Format
  000fb	83 c4 10	 add	 esp, 16			; 00000010H

; 782  : 
; 783  : 	CScript s;

  000fe	8d 8d 08 f2 ff
	ff		 lea	 ecx, DWORD PTR _s$[ebp]
  00104	6a 00		 push	 0
  00106	e8 00 00 00 00	 call	 ??0CScript@@QAE@H@Z	; CScript::CScript

; 784  : 	if( s.Load( strLandTemp, FALSE ) )

  0010b	8b bd 00 f2 ff
	ff		 mov	 edi, DWORD PTR _strLandTemp$[ebp]
  00111	8d 8d 08 f2 ff
	ff		 lea	 ecx, DWORD PTR _s$[ebp]
  00117	6a 00		 push	 0
  00119	6a 00		 push	 0
  0011b	57		 push	 edi
  0011c	c6 45 fc 03	 mov	 BYTE PTR __$EHRec$[ebp+8], 3
  00120	e8 00 00 00 00	 call	 ?Load@CScript@@QAEHPBDHH@Z ; CScript::Load
  00125	85 c0		 test	 eax, eax
  00127	0f 84 5f 01 00
	00		 je	 $LN4@LoadRegion

; 785  : 	{
; 786  : 		D3DXVECTOR3 vPos;
; 787  : 		s.GetToken();

  0012d	6a 00		 push	 0
  0012f	8d 8d 08 f2 ff
	ff		 lea	 ecx, DWORD PTR _s$[ebp]
  00135	e8 00 00 00 00	 call	 ?GetToken@CScript@@UAEHH@Z ; CScript::GetToken

; 788  : 		while( s.tok != FINISHED )

  0013a	83 bd 4c fa ff
	ff 15		 cmp	 DWORD PTR _s$[ebp+2116], 21 ; 00000015H
  00141	0f 84 37 01 00
	00		 je	 $LN253@LoadRegion
  00147	66 0f 1f 84 00
	00 00 00 00	 npad	 9
$LL2@LoadRegion:
; File C:\Program Files\Microsoft Visual Studio\2022\Professional\VC\Tools\MSVC\14.44.35207\atlmfc\include\cstringt.h

; 184  : 		return _mbscmp( reinterpret_cast< const unsigned char* >( pszA ), reinterpret_cast< const unsigned char* >( pszB ) );

  00150	68 00 00 00 00	 push	 OFFSET ??_C@_06JEJEKGIK@region@
  00155	ff b5 28 f2 ff
	ff		 push	 DWORD PTR _s$[ebp+32]
  0015b	e8 00 00 00 00	 call	 __mbscmp
  00160	83 c4 08	 add	 esp, 8

; 2490 : 		return(str1.Compare(psz2) == 0);

  00163	85 c0		 test	 eax, eax
; File C:\IAGOS\server\v18\Source\Source\_Common\worldfile.cpp

; 790  : 			if( s.Token == _T( "region" ) || s.Token == _T( "region2" ) || s.Token == _T( "region3" ) )

  00165	0f 84 eb 00 00
	00		 je	 $LN7@LoadRegion
; File C:\Program Files\Microsoft Visual Studio\2022\Professional\VC\Tools\MSVC\14.44.35207\atlmfc\include\cstringt.h

; 184  : 		return _mbscmp( reinterpret_cast< const unsigned char* >( pszA ), reinterpret_cast< const unsigned char* >( pszB ) );

  0016b	68 00 00 00 00	 push	 OFFSET ??_C@_07OAIJKKOJ@region2@
  00170	ff b5 28 f2 ff
	ff		 push	 DWORD PTR _s$[ebp+32]
  00176	e8 00 00 00 00	 call	 __mbscmp
  0017b	83 c4 08	 add	 esp, 8

; 2490 : 		return(str1.Compare(psz2) == 0);

  0017e	85 c0		 test	 eax, eax
; File C:\IAGOS\server\v18\Source\Source\_Common\worldfile.cpp

; 790  : 			if( s.Token == _T( "region" ) || s.Token == _T( "region2" ) || s.Token == _T( "region3" ) )

  00180	0f 84 d0 00 00
	00		 je	 $LN7@LoadRegion
; File C:\Program Files\Microsoft Visual Studio\2022\Professional\VC\Tools\MSVC\14.44.35207\atlmfc\include\cstringt.h

; 184  : 		return _mbscmp( reinterpret_cast< const unsigned char* >( pszA ), reinterpret_cast< const unsigned char* >( pszB ) );

  00186	68 00 00 00 00	 push	 OFFSET ??_C@_07PJJCJLKI@region3@
  0018b	ff b5 28 f2 ff
	ff		 push	 DWORD PTR _s$[ebp+32]
  00191	e8 00 00 00 00	 call	 __mbscmp
  00196	83 c4 08	 add	 esp, 8

; 2490 : 		return(str1.Compare(psz2) == 0);

  00199	85 c0		 test	 eax, eax
; File C:\IAGOS\server\v18\Source\Source\_Common\worldfile.cpp

; 790  : 			if( s.Token == _T( "region" ) || s.Token == _T( "region2" ) || s.Token == _T( "region3" ) )

  0019b	0f 84 b5 00 00
	00		 je	 $LN7@LoadRegion
; File C:\Program Files\Microsoft Visual Studio\2022\Professional\VC\Tools\MSVC\14.44.35207\atlmfc\include\cstringt.h

; 184  : 		return _mbscmp( reinterpret_cast< const unsigned char* >( pszA ), reinterpret_cast< const unsigned char* >( pszB ) );

  001a1	68 00 00 00 00	 push	 OFFSET ??_C@_07PABIOCAD@respawn@
  001a6	ff b5 28 f2 ff
	ff		 push	 DWORD PTR _s$[ebp+32]
  001ac	e8 00 00 00 00	 call	 __mbscmp
  001b1	83 c4 08	 add	 esp, 8

; 2490 : 		return(str1.Compare(psz2) == 0);

  001b4	85 c0		 test	 eax, eax
; File C:\IAGOS\server\v18\Source\Source\_Common\worldfile.cpp

; 795  : 			if( s.Token == _T( "respawn" ) || s.Token == _T( "respawn2" ) || s.Token == _T( "respawn3" ) || s.Token == _T( "respawn4" ) || s.Token == _T( "respawn5" ) || s.Token == _T( "respawn6" ) || s.Token == _T( "respawn7" ))

  001b6	0f 84 8a 00 00
	00		 je	 $LN9@LoadRegion
; File C:\Program Files\Microsoft Visual Studio\2022\Professional\VC\Tools\MSVC\14.44.35207\atlmfc\include\cstringt.h

; 184  : 		return _mbscmp( reinterpret_cast< const unsigned char* >( pszA ), reinterpret_cast< const unsigned char* >( pszB ) );

  001bc	68 00 00 00 00	 push	 OFFSET ??_C@_08HEIJBNCJ@respawn2@
  001c1	ff b5 28 f2 ff
	ff		 push	 DWORD PTR _s$[ebp+32]
  001c7	e8 00 00 00 00	 call	 __mbscmp
  001cc	83 c4 08	 add	 esp, 8

; 2490 : 		return(str1.Compare(psz2) == 0);

  001cf	85 c0		 test	 eax, eax
; File C:\IAGOS\server\v18\Source\Source\_Common\worldfile.cpp

; 795  : 			if( s.Token == _T( "respawn" ) || s.Token == _T( "respawn2" ) || s.Token == _T( "respawn3" ) || s.Token == _T( "respawn4" ) || s.Token == _T( "respawn5" ) || s.Token == _T( "respawn6" ) || s.Token == _T( "respawn7" ))

  001d1	74 73		 je	 SHORT $LN9@LoadRegion
; File C:\Program Files\Microsoft Visual Studio\2022\Professional\VC\Tools\MSVC\14.44.35207\atlmfc\include\cstringt.h

; 184  : 		return _mbscmp( reinterpret_cast< const unsigned char* >( pszA ), reinterpret_cast< const unsigned char* >( pszB ) );

  001d3	68 00 00 00 00	 push	 OFFSET ??_C@_08GNJCCMGI@respawn3@
  001d8	ff b5 28 f2 ff
	ff		 push	 DWORD PTR _s$[ebp+32]
  001de	e8 00 00 00 00	 call	 __mbscmp
  001e3	83 c4 08	 add	 esp, 8

; 2490 : 		return(str1.Compare(psz2) == 0);

  001e6	85 c0		 test	 eax, eax
; File C:\IAGOS\server\v18\Source\Source\_Common\worldfile.cpp

; 795  : 			if( s.Token == _T( "respawn" ) || s.Token == _T( "respawn2" ) || s.Token == _T( "respawn3" ) || s.Token == _T( "respawn4" ) || s.Token == _T( "respawn5" ) || s.Token == _T( "respawn6" ) || s.Token == _T( "respawn7" ))

  001e8	74 5c		 je	 SHORT $LN9@LoadRegion
; File C:\Program Files\Microsoft Visual Studio\2022\Professional\VC\Tools\MSVC\14.44.35207\atlmfc\include\cstringt.h

; 184  : 		return _mbscmp( reinterpret_cast< const unsigned char* >( pszA ), reinterpret_cast< const unsigned char* >( pszB ) );

  001ea	68 00 00 00 00	 push	 OFFSET ??_C@_08CCNDLKKP@respawn4@
  001ef	ff b5 28 f2 ff
	ff		 push	 DWORD PTR _s$[ebp+32]
  001f5	e8 00 00 00 00	 call	 __mbscmp
  001fa	83 c4 08	 add	 esp, 8

; 2490 : 		return(str1.Compare(psz2) == 0);

  001fd	85 c0		 test	 eax, eax
; File C:\IAGOS\server\v18\Source\Source\_Common\worldfile.cpp

; 795  : 			if( s.Token == _T( "respawn" ) || s.Token == _T( "respawn2" ) || s.Token == _T( "respawn3" ) || s.Token == _T( "respawn4" ) || s.Token == _T( "respawn5" ) || s.Token == _T( "respawn6" ) || s.Token == _T( "respawn7" ))

  001ff	74 45		 je	 SHORT $LN9@LoadRegion
; File C:\Program Files\Microsoft Visual Studio\2022\Professional\VC\Tools\MSVC\14.44.35207\atlmfc\include\cstringt.h

; 184  : 		return _mbscmp( reinterpret_cast< const unsigned char* >( pszA ), reinterpret_cast< const unsigned char* >( pszB ) );

  00201	68 00 00 00 00	 push	 OFFSET ??_C@_08DLMIILOO@respawn5@
  00206	ff b5 28 f2 ff
	ff		 push	 DWORD PTR _s$[ebp+32]
  0020c	e8 00 00 00 00	 call	 __mbscmp
  00211	83 c4 08	 add	 esp, 8

; 2490 : 		return(str1.Compare(psz2) == 0);

  00214	85 c0		 test	 eax, eax
; File C:\IAGOS\server\v18\Source\Source\_Common\worldfile.cpp

; 795  : 			if( s.Token == _T( "respawn" ) || s.Token == _T( "respawn2" ) || s.Token == _T( "respawn3" ) || s.Token == _T( "respawn4" ) || s.Token == _T( "respawn5" ) || s.Token == _T( "respawn6" ) || s.Token == _T( "respawn7" ))

  00216	74 2e		 je	 SHORT $LN9@LoadRegion
; File C:\Program Files\Microsoft Visual Studio\2022\Professional\VC\Tools\MSVC\14.44.35207\atlmfc\include\cstringt.h

; 184  : 		return _mbscmp( reinterpret_cast< const unsigned char* >( pszA ), reinterpret_cast< const unsigned char* >( pszB ) );

  00218	68 00 00 00 00	 push	 OFFSET ??_C@_08BAOFNICN@respawn6@
  0021d	ff b5 28 f2 ff
	ff		 push	 DWORD PTR _s$[ebp+32]
  00223	e8 00 00 00 00	 call	 __mbscmp
  00228	83 c4 08	 add	 esp, 8

; 2490 : 		return(str1.Compare(psz2) == 0);

  0022b	85 c0		 test	 eax, eax
; File C:\IAGOS\server\v18\Source\Source\_Common\worldfile.cpp

; 795  : 			if( s.Token == _T( "respawn" ) || s.Token == _T( "respawn2" ) || s.Token == _T( "respawn3" ) || s.Token == _T( "respawn4" ) || s.Token == _T( "respawn5" ) || s.Token == _T( "respawn6" ) || s.Token == _T( "respawn7" ))

  0022d	74 17		 je	 SHORT $LN9@LoadRegion
; File C:\Program Files\Microsoft Visual Studio\2022\Professional\VC\Tools\MSVC\14.44.35207\atlmfc\include\cstringt.h

; 184  : 		return _mbscmp( reinterpret_cast< const unsigned char* >( pszA ), reinterpret_cast< const unsigned char* >( pszB ) );

  0022f	68 00 00 00 00	 push	 OFFSET ??_C@_08JPOOJGM@respawn7@
  00234	ff b5 28 f2 ff
	ff		 push	 DWORD PTR _s$[ebp+32]
  0023a	e8 00 00 00 00	 call	 __mbscmp
  0023f	83 c4 08	 add	 esp, 8

; 2490 : 		return(str1.Compare(psz2) == 0);

  00242	85 c0		 test	 eax, eax
; File C:\IAGOS\server\v18\Source\Source\_Common\worldfile.cpp

; 795  : 			if( s.Token == _T( "respawn" ) || s.Token == _T( "respawn2" ) || s.Token == _T( "respawn3" ) || s.Token == _T( "respawn4" ) || s.Token == _T( "respawn5" ) || s.Token == _T( "respawn6" ) || s.Token == _T( "respawn7" ))

  00244	75 1e		 jne	 SHORT $LN8@LoadRegion
$LN9@LoadRegion:

; 796  : 			{
; 797  : 				ReadRespawn( s );

  00246	8d 85 08 f2 ff
	ff		 lea	 eax, DWORD PTR _s$[ebp]
  0024c	8b cb		 mov	 ecx, ebx
  0024e	50		 push	 eax
  0024f	e8 00 00 00 00	 call	 ?ReadRespawn@CWorld@@QAEHAAVCScript@@@Z ; CWorld::ReadRespawn
  00254	eb 0e		 jmp	 SHORT $LN8@LoadRegion
$LN7@LoadRegion:

; 791  : 			{
; 792  : 				ReadRegion( s );

  00256	8d 85 08 f2 ff
	ff		 lea	 eax, DWORD PTR _s$[ebp]
  0025c	8b cb		 mov	 ecx, ebx
  0025e	50		 push	 eax
  0025f	e8 00 00 00 00	 call	 ?ReadRegion@CWorld@@QAEHAAVCScript@@@Z ; CWorld::ReadRegion
$LN8@LoadRegion:

; 798  : 			}
; 799  : 			s.GetToken();

  00264	6a 00		 push	 0
  00266	8d 8d 08 f2 ff
	ff		 lea	 ecx, DWORD PTR _s$[ebp]
  0026c	e8 00 00 00 00	 call	 ?GetToken@CScript@@UAEHH@Z ; CScript::GetToken
  00271	83 bd 4c fa ff
	ff 15		 cmp	 DWORD PTR _s$[ebp+2116], 21 ; 00000015H
  00278	0f 85 d2 fe ff
	ff		 jne	 $LL2@LoadRegion
$LN253@LoadRegion:

; 800  : 		}
; 801  : #ifdef __LAYER_1021
; 802  : 		Expand();

  0027e	8b cb		 mov	 ecx, ebx
  00280	e8 00 00 00 00	 call	 ?Expand@CWorld@@QAEXXZ	; CWorld::Expand
  00285	bb 01 00 00 00	 mov	 ebx, 1
  0028a	eb 02		 jmp	 SHORT $LN14@LoadRegion
$LN4@LoadRegion:

; 808  : 	return FALSE;

  0028c	33 db		 xor	 ebx, ebx
$LN14@LoadRegion:
  0028e	8d 8d 08 f2 ff
	ff		 lea	 ecx, DWORD PTR _s$[ebp]
  00294	e8 00 00 00 00	 call	 ??1CScript@@UAE@XZ	; CScript::~CScript
; File C:\Program Files\Microsoft Visual Studio\2022\Professional\VC\Tools\MSVC\14.44.35207\atlmfc\include\atlsimpstr.h

; 804  : 		return( reinterpret_cast< CStringData* >( m_pszData )-1 );

  00299	8d 57 f0	 lea	 edx, DWORD PTR [edi-16]
; File C:\IAGOS\server\v18\Source\Source\_Common\worldfile.cpp

; 808  : 	return FALSE;

  0029c	c6 45 fc 01	 mov	 BYTE PTR __$EHRec$[ebp+8], 1
; File C:\Program Files\Microsoft Visual Studio\2022\Professional\VC\Tools\MSVC\14.44.35207\atlmfc\include\atlsimpstr.h

; 92   : 		if( _InterlockedDecrement( &nRefs ) <= 0 )

  002a0	83 cf ff	 or	 edi, -1
  002a3	8b c7		 mov	 eax, edi
  002a5	f0 0f c1 42 0c	 lock	  xadd	 DWORD PTR [edx+12], eax
  002aa	48		 dec	 eax
  002ab	85 c0		 test	 eax, eax
  002ad	7f 08		 jg	 SHORT $LN118@LoadRegion

; 93   : 		{
; 94   : 			pStringMgr->Free( this );

  002af	8b 0a		 mov	 ecx, DWORD PTR [edx]
  002b1	52		 push	 edx
  002b2	8b 01		 mov	 eax, DWORD PTR [ecx]
  002b4	ff 50 04	 call	 DWORD PTR [eax+4]
$LN118@LoadRegion:
; File C:\IAGOS\server\v18\Source\Source\_Common\worldfile.cpp

; 808  : 	return FALSE;

  002b7	c7 45 fc ff ff
	ff ff		 mov	 DWORD PTR __$EHRec$[ebp+8], -1
; File C:\Program Files\Microsoft Visual Studio\2022\Professional\VC\Tools\MSVC\14.44.35207\atlmfc\include\atlsimpstr.h

; 804  : 		return( reinterpret_cast< CStringData* >( m_pszData )-1 );

  002be	83 c6 f0	 add	 esi, -16		; fffffff0H

; 92   : 		if( _InterlockedDecrement( &nRefs ) <= 0 )

  002c1	f0 0f c1 7e 0c	 lock	  xadd	 DWORD PTR [esi+12], edi
  002c6	4f		 dec	 edi
  002c7	85 ff		 test	 edi, edi
  002c9	7f 08		 jg	 SHORT $LN127@LoadRegion

; 93   : 		{
; 94   : 			pStringMgr->Free( this );

  002cb	8b 0e		 mov	 ecx, DWORD PTR [esi]
  002cd	56		 push	 esi
  002ce	8b 11		 mov	 edx, DWORD PTR [ecx]
  002d0	ff 52 04	 call	 DWORD PTR [edx+4]
$LN127@LoadRegion:
; File C:\IAGOS\server\v18\Source\Source\_Common\worldfile.cpp

; 808  : 	return FALSE;

  002d3	8b c3		 mov	 eax, ebx

; 809  : }

  002d5	8b 4d f4	 mov	 ecx, DWORD PTR __$EHRec$[ebp]
  002d8	64 89 0d 00 00
	00 00		 mov	 DWORD PTR fs:0, ecx
  002df	59		 pop	 ecx
  002e0	5f		 pop	 edi
  002e1	5e		 pop	 esi
  002e2	5b		 pop	 ebx
  002e3	8b 4d f0	 mov	 ecx, DWORD PTR __$ArrayPad$[ebp]
  002e6	33 cd		 xor	 ecx, ebp
  002e8	e8 00 00 00 00	 call	 @__security_check_cookie@4
  002ed	8b e5		 mov	 esp, ebp
  002ef	5d		 pop	 ebp
  002f0	c3		 ret	 0
$LN262@LoadRegion:
; File C:\Program Files\Microsoft Visual Studio\2022\Professional\VC\Tools\MSVC\14.44.35207\atlmfc\include\atlsimpstr.h

; 209  : 		ATLENSURE( pStringMgr != NULL );

  002f1	68 05 40 00 80	 push	 -2147467259		; 80004005H
  002f6	e8 00 00 00 00	 call	 ?AtlThrowImpl@ATL@@YGXJ@Z ; ATL::AtlThrowImpl
$LN263@LoadRegion:
  002fb	68 05 40 00 80	 push	 -2147467259		; 80004005H
  00300	e8 00 00 00 00	 call	 ?AtlThrowImpl@ATL@@YGXJ@Z ; ATL::AtlThrowImpl
$LN260@LoadRegion:
  00305	cc		 int	 3
_TEXT	ENDS
;	COMDAT text$x
text$x	SEGMENT
__unwindfunclet$?LoadRegion@CWorld@@QAEHXZ$3:
  00000	8d 8d 04 f2 ff
	ff		 lea	 ecx, DWORD PTR _strLandName$[ebp]
  00006	e9 00 00 00 00	 jmp	 ??1?$CSimpleStringT@D$0A@@ATL@@QAE@XZ ; ATL::CSimpleStringT<char,0>::~CSimpleStringT<char,0>
__unwindfunclet$?LoadRegion@CWorld@@QAEHXZ$0:
  0000b	8d 8d 04 f2 ff
	ff		 lea	 ecx, DWORD PTR _strLandName$[ebp]
  00011	e9 00 00 00 00	 jmp	 ??1?$CStringT@DV?$StrTraitMFC@DV?$ChTraitsCRT@D@ATL@@@@@ATL@@QAE@XZ ; ATL::CStringT<char,StrTraitMFC<char,ATL::ChTraitsCRT<char> > >::~CStringT<char,StrTraitMFC<char,ATL::ChTraitsCRT<char> > >
__unwindfunclet$?LoadRegion@CWorld@@QAEHXZ$1:
  00016	8d 8d 00 f2 ff
	ff		 lea	 ecx, DWORD PTR _strLandTemp$[ebp]
  0001c	e9 00 00 00 00	 jmp	 ??1?$CStringT@DV?$StrTraitMFC@DV?$ChTraitsCRT@D@ATL@@@@@ATL@@QAE@XZ ; ATL::CStringT<char,StrTraitMFC<char,ATL::ChTraitsCRT<char> > >::~CStringT<char,StrTraitMFC<char,ATL::ChTraitsCRT<char> > >
__unwindfunclet$?LoadRegion@CWorld@@QAEHXZ$2:
  00021	8d 8d 08 f2 ff
	ff		 lea	 ecx, DWORD PTR _s$[ebp]
  00027	e9 00 00 00 00	 jmp	 ??1CScript@@UAE@XZ	; CScript::~CScript
  0002c	cc		 int	 3
  0002d	cc		 int	 3
  0002e	cc		 int	 3
  0002f	cc		 int	 3
  00030	cc		 int	 3
__ehhandler$?LoadRegion@CWorld@@QAEHXZ:
  00031	90		 npad	 1
  00032	90		 npad	 1
  00033	8b 54 24 08	 mov	 edx, DWORD PTR [esp+8]
  00037	8d 42 0c	 lea	 eax, DWORD PTR [edx+12]
  0003a	8b 8a fc f1 ff
	ff		 mov	 ecx, DWORD PTR [edx-3588]
  00040	33 c8		 xor	 ecx, eax
  00042	e8 00 00 00 00	 call	 @__security_check_cookie@4
  00047	8b 4a fc	 mov	 ecx, DWORD PTR [edx-4]
  0004a	33 c8		 xor	 ecx, eax
  0004c	e8 00 00 00 00	 call	 @__security_check_cookie@4
  00051	b8 00 00 00 00	 mov	 eax, OFFSET __ehfuncinfo$?LoadRegion@CWorld@@QAEHXZ
  00056	e9 00 00 00 00	 jmp	 ___CxxFrameHandler3
text$x	ENDS
?LoadRegion@CWorld@@QAEHXZ ENDP				; CWorld::LoadRegion
; Function compile flags: /Ogtp
; File C:\IAGOS\server\v18\Source\Source\_Common\worldfile.cpp
; File C:\Program Files\Microsoft Visual Studio\2022\Professional\VC\Tools\MSVC\14.44.35207\atlmfc\include\cstringt.h
; File C:\IAGOS\server\v18\Source\Source\_Common\worldfile.cpp
; File C:\Program Files\Microsoft Visual Studio\2022\Professional\VC\Tools\MSVC\14.44.35207\atlmfc\include\cstringt.h
; File C:\IAGOS\server\v18\Source\Source\_Common\worldfile.cpp
; File C:\Program Files\Microsoft Visual Studio\2022\Professional\VC\Tools\MSVC\14.44.35207\atlmfc\include\cstringt.h
; File C:\IAGOS\server\v18\Source\Source\_Common\worldfile.cpp
; File C:\Program Files\Microsoft Visual Studio\2022\Professional\VC\Tools\MSVC\14.44.35207\atlmfc\include\cstringt.h
; File C:\IAGOS\server\v18\Source\Source\_Common\worldfile.cpp
; File C:\Program Files\Microsoft Visual Studio\2022\Professional\VC\Tools\MSVC\14.44.35207\atlmfc\include\cstringt.h
; File C:\IAGOS\server\v18\Source\Source\_Common\worldfile.cpp
; File C:\Program Files\Microsoft Visual Studio\2022\Professional\VC\Tools\MSVC\14.44.35207\atlmfc\include\cstringt.h
; File C:\IAGOS\server\v18\Source\Source\_Common\worldfile.cpp
; File C:\Program Files\Microsoft Visual Studio\2022\Professional\VC\Tools\MSVC\14.44.35207\atlmfc\include\cstringt.h
; File C:\IAGOS\server\v18\Source\Source\_Common\worldfile.cpp
; File C:\Program Files\Microsoft Visual Studio\2022\Professional\VC\Tools\MSVC\14.44.35207\atlmfc\include\cstringt.h
; File C:\IAGOS\server\v18\Source\Source\_Common\worldfile.cpp
; File C:\Program Files\Microsoft Visual Studio\2022\Professional\VC\Tools\MSVC\14.44.35207\atlmfc\include\cstringt.h
; File C:\IAGOS\server\v18\Source\Source\_Common\worldfile.cpp
; File C:\Program Files\Microsoft Visual Studio\2022\Professional\VC\Tools\MSVC\14.44.35207\atlmfc\include\cstringt.h
; File C:\IAGOS\server\v18\Source\Source\_Common\worldfile.cpp
; File C:\IAGOS\server\v18\Source\Source\_Common\Project.h
; File C:\IAGOS\server\v18\Source\Source\_Common\worldfile.cpp
; File C:\IAGOS\server\v18\Source\Source\_Common\Project.h
; File C:\IAGOS\server\v18\Source\Source\_Common\worldfile.cpp
;	COMDAT ?ReadRespawn@CWorld@@QAEHAAVCScript@@@Z
_TEXT	SEGMENT
_this$GSCopy$1$ = -1648					; size = 4
_nVersion$1$ = -1644					; size = 4
_vPos$ = -1640						; size = 12
_dwIndex$1$ = -1628					; size = 4
_nContrl$1$ = -1628					; size = 4
_ri$ = -1624						; size = 1352
_lpOutputString$2 = -272				; size = 256
__$ArrayPad$ = -16					; size = 4
__$EHRec$ = -12						; size = 12
_s$ = 8							; size = 4
?ReadRespawn@CWorld@@QAEHAAVCScript@@@Z PROC		; CWorld::ReadRespawn, COMDAT
; _this$ = ecx

; 556  : {

  00000	55		 push	 ebp
  00001	8b ec		 mov	 ebp, esp
  00003	6a ff		 push	 -1
  00005	68 00 00 00 00	 push	 __ehhandler$?ReadRespawn@CWorld@@QAEHAAVCScript@@@Z
  0000a	64 a1 00 00 00
	00		 mov	 eax, DWORD PTR fs:0
  00010	50		 push	 eax
  00011	81 ec 64 06 00
	00		 sub	 esp, 1636		; 00000664H
  00017	a1 00 00 00 00	 mov	 eax, DWORD PTR ___security_cookie
  0001c	33 c5		 xor	 eax, ebp
  0001e	89 45 f0	 mov	 DWORD PTR __$ArrayPad$[ebp], eax
  00021	53		 push	 ebx
  00022	56		 push	 esi
  00023	57		 push	 edi
  00024	50		 push	 eax
  00025	8d 45 f4	 lea	 eax, DWORD PTR __$EHRec$[ebp]
  00028	64 a3 00 00 00
	00		 mov	 DWORD PTR fs:0, eax
  0002e	89 8d 90 f9 ff
	ff		 mov	 DWORD PTR _this$GSCopy$1$[ebp], ecx
  00034	8b 7d 08	 mov	 edi, DWORD PTR _s$[ebp]
; File C:\Program Files\Microsoft Visual Studio\2022\Professional\VC\Tools\MSVC\14.44.35207\atlmfc\include\cstringt.h

; 184  : 		return _mbscmp( reinterpret_cast< const unsigned char* >( pszA ), reinterpret_cast< const unsigned char* >( pszB ) );

  00037	68 00 00 00 00	 push	 OFFSET ??_C@_08HEIJBNCJ@respawn2@
  0003c	ff 77 20	 push	 DWORD PTR [edi+32]
  0003f	e8 00 00 00 00	 call	 __mbscmp

; 1452 : 		ATLENSURE( AtlIsValidString( psz ) );

  00044	f7 d8		 neg	 eax

; 184  : 		return _mbscmp( reinterpret_cast< const unsigned char* >( pszA ), reinterpret_cast< const unsigned char* >( pszB ) );

  00046	68 00 00 00 00	 push	 OFFSET ??_C@_08GNJCCMGI@respawn3@
  0004b	ff 77 20	 push	 DWORD PTR [edi+32]

; 1452 : 		ATLENSURE( AtlIsValidString( psz ) );

  0004e	1b db		 sbb	 ebx, ebx
  00050	83 c3 02	 add	 ebx, 2

; 184  : 		return _mbscmp( reinterpret_cast< const unsigned char* >( pszA ), reinterpret_cast< const unsigned char* >( pszB ) );

  00053	e8 00 00 00 00	 call	 __mbscmp

; 2490 : 		return(str1.Compare(psz2) == 0);

  00058	85 c0		 test	 eax, eax
; File C:\IAGOS\server\v18\Source\Source\_Common\worldfile.cpp

; 560  : 	if( s.Token == _T( "respawn3" ) )

  0005a	b9 03 00 00 00	 mov	 ecx, 3
; File C:\Program Files\Microsoft Visual Studio\2022\Professional\VC\Tools\MSVC\14.44.35207\atlmfc\include\cstringt.h

; 184  : 		return _mbscmp( reinterpret_cast< const unsigned char* >( pszA ), reinterpret_cast< const unsigned char* >( pszB ) );

  0005f	68 00 00 00 00	 push	 OFFSET ??_C@_08CCNDLKKP@respawn4@
  00064	ff 77 20	 push	 DWORD PTR [edi+32]
; File C:\IAGOS\server\v18\Source\Source\_Common\worldfile.cpp

; 560  : 	if( s.Token == _T( "respawn3" ) )

  00067	0f 44 d9	 cmove	 ebx, ecx
; File C:\Program Files\Microsoft Visual Studio\2022\Professional\VC\Tools\MSVC\14.44.35207\atlmfc\include\cstringt.h

; 184  : 		return _mbscmp( reinterpret_cast< const unsigned char* >( pszA ), reinterpret_cast< const unsigned char* >( pszB ) );

  0006a	e8 00 00 00 00	 call	 __mbscmp

; 2490 : 		return(str1.Compare(psz2) == 0);

  0006f	85 c0		 test	 eax, eax
; File C:\IAGOS\server\v18\Source\Source\_Common\worldfile.cpp

; 564  : 	if( s.Token == _T( "respawn4" ) )

  00071	b9 04 00 00 00	 mov	 ecx, 4
; File C:\Program Files\Microsoft Visual Studio\2022\Professional\VC\Tools\MSVC\14.44.35207\atlmfc\include\cstringt.h

; 184  : 		return _mbscmp( reinterpret_cast< const unsigned char* >( pszA ), reinterpret_cast< const unsigned char* >( pszB ) );

  00076	68 00 00 00 00	 push	 OFFSET ??_C@_08DLMIILOO@respawn5@
  0007b	ff 77 20	 push	 DWORD PTR [edi+32]
; File C:\IAGOS\server\v18\Source\Source\_Common\worldfile.cpp

; 564  : 	if( s.Token == _T( "respawn4" ) )

  0007e	0f 44 d9	 cmove	 ebx, ecx
; File C:\Program Files\Microsoft Visual Studio\2022\Professional\VC\Tools\MSVC\14.44.35207\atlmfc\include\cstringt.h

; 184  : 		return _mbscmp( reinterpret_cast< const unsigned char* >( pszA ), reinterpret_cast< const unsigned char* >( pszB ) );

  00081	e8 00 00 00 00	 call	 __mbscmp

; 2490 : 		return(str1.Compare(psz2) == 0);

  00086	85 c0		 test	 eax, eax
; File C:\IAGOS\server\v18\Source\Source\_Common\worldfile.cpp

; 566  : 	if( s.Token == _T( "respawn5" ) )

  00088	b9 05 00 00 00	 mov	 ecx, 5
; File C:\Program Files\Microsoft Visual Studio\2022\Professional\VC\Tools\MSVC\14.44.35207\atlmfc\include\cstringt.h

; 184  : 		return _mbscmp( reinterpret_cast< const unsigned char* >( pszA ), reinterpret_cast< const unsigned char* >( pszB ) );

  0008d	68 00 00 00 00	 push	 OFFSET ??_C@_08BAOFNICN@respawn6@
  00092	ff 77 20	 push	 DWORD PTR [edi+32]
; File C:\IAGOS\server\v18\Source\Source\_Common\worldfile.cpp

; 566  : 	if( s.Token == _T( "respawn5" ) )

  00095	0f 44 d9	 cmove	 ebx, ecx
; File C:\Program Files\Microsoft Visual Studio\2022\Professional\VC\Tools\MSVC\14.44.35207\atlmfc\include\cstringt.h

; 184  : 		return _mbscmp( reinterpret_cast< const unsigned char* >( pszA ), reinterpret_cast< const unsigned char* >( pszB ) );

  00098	e8 00 00 00 00	 call	 __mbscmp

; 2490 : 		return(str1.Compare(psz2) == 0);

  0009d	85 c0		 test	 eax, eax
; File C:\IAGOS\server\v18\Source\Source\_Common\worldfile.cpp

; 568  : 	if( s.Token == _T( "respawn6" ) )

  0009f	b9 06 00 00 00	 mov	 ecx, 6
; File C:\Program Files\Microsoft Visual Studio\2022\Professional\VC\Tools\MSVC\14.44.35207\atlmfc\include\cstringt.h

; 184  : 		return _mbscmp( reinterpret_cast< const unsigned char* >( pszA ), reinterpret_cast< const unsigned char* >( pszB ) );

  000a4	68 00 00 00 00	 push	 OFFSET ??_C@_08JPOOJGM@respawn7@
  000a9	ff 77 20	 push	 DWORD PTR [edi+32]
; File C:\IAGOS\server\v18\Source\Source\_Common\worldfile.cpp

; 568  : 	if( s.Token == _T( "respawn6" ) )

  000ac	0f 44 d9	 cmove	 ebx, ecx
; File C:\Program Files\Microsoft Visual Studio\2022\Professional\VC\Tools\MSVC\14.44.35207\atlmfc\include\cstringt.h

; 184  : 		return _mbscmp( reinterpret_cast< const unsigned char* >( pszA ), reinterpret_cast< const unsigned char* >( pszB ) );

  000af	e8 00 00 00 00	 call	 __mbscmp
  000b4	83 c4 30	 add	 esp, 48			; 00000030H
; File C:\IAGOS\server\v18\Source\Source\_Common\worldfile.cpp

; 571  : 	if( s.Token == _T( "respawn7" ) )

  000b7	b9 07 00 00 00	 mov	 ecx, 7
; File C:\Program Files\Microsoft Visual Studio\2022\Professional\VC\Tools\MSVC\14.44.35207\atlmfc\include\cstringt.h

; 2490 : 		return(str1.Compare(psz2) == 0);

  000bc	85 c0		 test	 eax, eax
; File C:\IAGOS\server\v18\Source\Source\_Common\worldfile.cpp

; 571  : 	if( s.Token == _T( "respawn7" ) )

  000be	0f 44 d9	 cmove	 ebx, ecx

; 572  : 		nVersion = 7;
; 573  : #endif //__LEGEND
; 574  : 	
; 575  : 	
; 576  : 	CRespawnInfo ri,* pInfo = &ri;

  000c1	8d 8d a8 f9 ff
	ff		 lea	 ecx, DWORD PTR _ri$[ebp]
  000c7	89 9d 94 f9 ff
	ff		 mov	 DWORD PTR _nVersion$1$[ebp], ebx
  000cd	e8 00 00 00 00	 call	 ??0CRespawnInfo@@QAE@XZ	; CRespawnInfo::CRespawnInfo

; 577  : 	DWORD dwType;
; 578  : 	DWORD dwIndex;
; 579  : 	D3DXVECTOR3 vPos;
; 580  : 	dwType = s.GetNumber();

  000d2	6a 00		 push	 0
  000d4	8b cf		 mov	 ecx, edi
  000d6	c7 45 fc 00 00
	00 00		 mov	 DWORD PTR __$EHRec$[ebp+8], 0
  000dd	e8 00 00 00 00	 call	 ?GetNumber@CScanner@@QAEHH@Z ; CScanner::GetNumber

; 581  : 
; 582  : 	dwIndex = s.GetNumber();

  000e2	6a 00		 push	 0
  000e4	8b cf		 mov	 ecx, edi
  000e6	8b f0		 mov	 esi, eax
  000e8	e8 00 00 00 00	 call	 ?GetNumber@CScanner@@QAEHH@Z ; CScanner::GetNumber

; 583  : 	vPos.x = s.GetFloat();

  000ed	6a 00		 push	 0
  000ef	8b cf		 mov	 ecx, edi
  000f1	89 85 a4 f9 ff
	ff		 mov	 DWORD PTR _dwIndex$1$[ebp], eax
  000f7	e8 00 00 00 00	 call	 ?GetFloat@CScanner@@QAEMH@Z ; CScanner::GetFloat
  000fc	d9 9d 98 f9 ff
	ff		 fstp	 DWORD PTR _vPos$[ebp]

; 584  : 	vPos.y = s.GetFloat();

  00102	6a 00		 push	 0
  00104	8b cf		 mov	 ecx, edi
  00106	e8 00 00 00 00	 call	 ?GetFloat@CScanner@@QAEMH@Z ; CScanner::GetFloat
  0010b	d9 9d 9c f9 ff
	ff		 fstp	 DWORD PTR _vPos$[ebp+4]

; 585  : 	vPos.z = s.GetFloat();

  00111	6a 00		 push	 0
  00113	8b cf		 mov	 ecx, edi
  00115	e8 00 00 00 00	 call	 ?GetFloat@CScanner@@QAEMH@Z ; CScanner::GetFloat

; 586  : 	
; 587  : 	pInfo->m_dwIndex     = dwIndex;

  0011a	8b 85 a4 f9 ff
	ff		 mov	 eax, DWORD PTR _dwIndex$1$[ebp]

; 588  : 	pInfo->m_dwType	= dwType;
; 589  : 
; 590  : #ifdef __S1108_BACK_END_SYSTEM
; 591  : 	pInfo->m_nMaxcb		 = s.GetNumber();

  00120	8b cf		 mov	 ecx, edi
  00122	6a 00		 push	 0
  00124	d9 9d a0 f9 ff
	ff		 fstp	 DWORD PTR _vPos$[ebp+8]
  0012a	89 85 b0 f9 ff
	ff		 mov	 DWORD PTR _ri$[ebp+8], eax
  00130	89 b5 ac f9 ff
	ff		 mov	 DWORD PTR _ri$[ebp+4], esi
  00136	e8 00 00 00 00	 call	 ?GetNumber@CScanner@@QAEHH@Z ; CScanner::GetNumber
  0013b	89 85 b4 fb ff
	ff		 mov	 DWORD PTR _ri$[ebp+524], eax

; 592  : 	pInfo->m_cb          = 0;
; 593  : #else // __S1108_BACK_END_SYSTEM
; 594  : 	pInfo->m_cb          = (u_short)s.GetNumber();
; 595  : #endif // __S1108_BACK_END_SYSTEM
; 596  : 
; 597  : 	pInfo->m_uTime = (short)s.GetNumber();

  00141	8b cf		 mov	 ecx, edi
  00143	6a 00		 push	 0
  00145	c7 85 b4 f9 ff
	ff 00 00 00 00	 mov	 DWORD PTR _ri$[ebp+12], 0
  0014f	e8 00 00 00 00	 call	 ?GetNumber@CScanner@@QAEHH@Z ; CScanner::GetNumber

; 598  : 
; 599  : #ifdef __S1108_BACK_END_SYSTEM
; 600  : 	pInfo->m_nMaxAttackNum = (long)s.GetNumber();

  00154	6a 00		 push	 0
  00156	8b cf		 mov	 ecx, edi
  00158	66 89 85 d8 f9
	ff ff		 mov	 WORD PTR _ri$[ebp+48], ax
  0015f	e8 00 00 00 00	 call	 ?GetNumber@CScanner@@QAEHH@Z ; CScanner::GetNumber
  00164	89 85 b8 fb ff
	ff		 mov	 DWORD PTR _ri$[ebp+528], eax

; 601  : 	pInfo->m_nActiveAttackNum = 0;

  0016a	c7 85 b8 f9 ff
	ff 00 00 00 00	 mov	 DWORD PTR _ri$[ebp+16], 0

; 602  : #else // __S1108_BACK_END_SYSTEM
; 603  : 	pInfo->m_nActiveAttackNum = (long)s.GetNumber();
; 604  : #endif // __S1108_BACK_END_SYSTEM
; 605  : 
; 606  : 	pInfo->m_vPos	= D3DXVECTOR3( 0.0f, 0.0f, 0.0f );

  00174	c7 85 cc f9 ff
	ff 00 00 00 00	 mov	 DWORD PTR _ri$[ebp+36], 0

; 607  : 
; 608  : 	pInfo->m_fY = vPos.y;

  0017e	f3 0f 10 85 9c
	f9 ff ff	 movss	 xmm0, DWORD PTR _vPos$[ebp+4]
  00186	c7 85 d0 f9 ff
	ff 00 00 00 00	 mov	 DWORD PTR _ri$[ebp+40], 0
  00190	c7 85 d4 f9 ff
	ff 00 00 00 00	 mov	 DWORD PTR _ri$[ebp+44], 0
  0019a	f3 0f 11 85 00
	fa ff ff	 movss	 DWORD PTR _ri$[ebp+88], xmm0

; 609  : 	if( dwType == OT_MOVER )

  001a2	83 fe 05	 cmp	 esi, 5
  001a5	0f 85 f8 00 00
	00		 jne	 $LN216@ReadRespaw
; File C:\IAGOS\server\v18\Source\Source\_Common\Project.h

; 1406 : 	VERIFY_RANGE( nIndex, 0, m_nMoverPropSize, "GetMoverProp range_error", NULL );

  001ab	8b 85 a4 f9 ff
	ff		 mov	 eax, DWORD PTR _dwIndex$1$[ebp]
  001b1	8b 0d b4 01 00
	00		 mov	 ecx, DWORD PTR ?prj@@3VCProject@@A+436
  001b7	85 c0		 test	 eax, eax
  001b9	0f 88 ce 00 00
	00		 js	 $LN176@ReadRespaw
  001bf	3b c1		 cmp	 eax, ecx
  001c1	0f 8d c6 00 00
	00		 jge	 $LN176@ReadRespaw

; 1407 : 	return m_pPropMover + nIndex;

  001c7	69 f0 90 06 00
	00		 imul	 esi, eax, 1680
  001cd	03 35 b8 01 00
	00		 add	 esi, DWORD PTR ?prj@@3VCProject@@A+440
; File C:\IAGOS\server\v18\Source\Source\_Common\worldfile.cpp

; 613  : 		if( pMoverProp )

  001d3	0f 84 ca 00 00
	00		 je	 $LN216@ReadRespaw

; 614  : 		{
; 615  : 			// PKĽ­ąö°ˇ ľĆ´Ď¸é °ˇµĺ¸¦ skipÇŃ´Ů.
; 616  : 			if( ::GetLanguage() != LANG_KOR )	// ÇŃ±ąŔÇ °ćżě skipÇĎÁö ľĘ´Â´Ů.

  001d9	e8 00 00 00 00	 call	 ?GetLanguage@@YAHXZ	; GetLanguage
  001de	85 c0		 test	 eax, eax
  001e0	74 1d		 je	 SHORT $LN37@ReadRespaw

; 617  : 				if( pMoverProp->dwClass == RANK_GUARD && g_eLocal.GetState( EVE_PK ) == FALSE ) 

  001e2	83 be 94 00 00
	00 08		 cmp	 DWORD PTR [esi+148], 8
  001e9	75 14		 jne	 SHORT $LN37@ReadRespaw
  001eb	6a 0b		 push	 11			; 0000000bH
  001ed	b9 00 00 00 00	 mov	 ecx, OFFSET ?g_eLocal@@3VCFlyffEvent@@A ; g_eLocal
  001f2	e8 00 00 00 00	 call	 ?GetState@CFlyffEvent@@QAEEH@Z ; CFlyffEvent::GetState
  001f7	84 c0		 test	 al, al
  001f9	0f 84 c7 04 00
	00		 je	 $LN69@ReadRespaw
$LN37@ReadRespaw:

; 618  : 					return TRUE;
; 619  : 			
; 620  : 			if( pMoverProp->dwClass == RANK_MATERIAL )

  001ff	8b 86 94 00 00
	00		 mov	 eax, DWORD PTR [esi+148]
  00205	83 f8 06	 cmp	 eax, 6
  00208	0f 84 b8 04 00
	00		 je	 $LN69@ReadRespaw

; 621  : 				return TRUE;
; 622  : 
; 623  : 			if( pMoverProp->dwClass != RANK_BOSS )

  0020e	83 f8 04	 cmp	 eax, 4
  00211	74 53		 je	 SHORT $LN2@ReadRespaw

; 624  : 			{
; 625  : 				switch( pMoverProp->dwID )

  00213	8b 06		 mov	 eax, DWORD PTR [esi]
  00215	83 c0 ec	 add	 eax, -20		; ffffffecH
  00218	83 f8 4e	 cmp	 eax, 78			; 0000004eH
  0021b	77 27		 ja	 SHORT $LN49@ReadRespaw
  0021d	0f b6 80 00 00
	00 00		 movzx	 eax, BYTE PTR $LN213@ReadRespaw[eax]
  00224	ff 24 85 00 00
	00 00		 jmp	 DWORD PTR $LN214@ReadRespaw[eax*4]
$LN40@ReadRespaw:

; 626  : 				{
; 627  : 					case MI_AIBATT1:
; 628  : 					case MI_AIBATT2:
; 629  : 					case MI_AIBATT3:
; 630  : 					case MI_MUSHPANG1:
; 631  : 					case MI_MUSHPANG2:
; 632  : 					case MI_MUSHPANG3:
; 633  : 					case MI_BURUDENG1:
; 634  : 					case MI_BURUDENG2:
; 635  : 					case MI_BURUDENG3:
; 636  : 						pInfo->m_uTime	= (u_short)( pInfo->m_uTime	* 0.5 );

  0022b	0f b7 85 d8 f9
	ff ff		 movzx	 eax, WORD PTR _ri$[ebp+48]
  00232	66 0f 6e c0	 movd	 xmm0, eax
  00236	f3 0f e6 c0	 cvtdq2pd xmm0, xmm0
  0023a	f2 0f 59 05 00
	00 00 00	 mulsd	 xmm0, QWORD PTR __real@3fe0000000000000

; 637  : 						break;

  00242	eb 17		 jmp	 SHORT $LN219@ReadRespaw
$LN49@ReadRespaw:

; 638  : 					default:
; 639  : 						pInfo->m_uTime	= (u_short)( pInfo->m_uTime * 0.7 );

  00244	0f b7 85 d8 f9
	ff ff		 movzx	 eax, WORD PTR _ri$[ebp+48]
  0024b	66 0f 6e c0	 movd	 xmm0, eax
  0024f	f3 0f e6 c0	 cvtdq2pd xmm0, xmm0
  00253	f2 0f 59 05 00
	00 00 00	 mulsd	 xmm0, QWORD PTR __real@3fe6666666666666
$LN219@ReadRespaw:

; 640  : 						break;
; 641  : 				}						
; 642  : 			}
; 643  : 		if( pMoverProp->dwFlying )

  0025b	f2 0f 2c c0	 cvttsd2si eax, xmm0
  0025f	66 89 85 d8 f9
	ff ff		 mov	 WORD PTR _ri$[ebp+48], ax
$LN2@ReadRespaw:
  00266	83 be 10 01 00
	00 00		 cmp	 DWORD PTR [esi+272], 0
  0026d	8b b5 a0 f9 ff
	ff		 mov	 esi, DWORD PTR _vPos$[ebp+8]
  00273	74 34		 je	 SHORT $LN50@ReadRespaw

; 644  : 			pInfo->m_vPos	= vPos;

  00275	f3 0f 7e 85 98
	f9 ff ff	 movq	 xmm0, QWORD PTR _vPos$[ebp]
  0027d	66 0f d6 85 cc
	f9 ff ff	 movq	 QWORD PTR _ri$[ebp+36], xmm0
  00285	89 b5 d4 f9 ff
	ff		 mov	 DWORD PTR _ri$[ebp+44], esi
  0028b	eb 1c		 jmp	 SHORT $LN50@ReadRespaw
$LN176@ReadRespaw:
; File C:\IAGOS\server\v18\Source\Source\_Common\Project.h

; 579  : 	LPCTSTR szErr = Error( _T( "%s min:%d, max:%d, index:%d" ), szMsg, nMin, nMax, nIndex ); 

  0028d	50		 push	 eax
  0028e	51		 push	 ecx
  0028f	6a 00		 push	 0
  00291	68 00 00 00 00	 push	 OFFSET ??_C@_0BJ@GKPOBPPI@GetMoverProp?5range_error@
  00296	68 00 00 00 00	 push	 OFFSET ??_C@_0BM@HMFGHCP@?$CFs?5min?3?$CFd?0?5max?3?$CFd?0?5index?3?$CFd@
  0029b	e8 00 00 00 00	 call	 ?Error@@YAPBDPBDZZ	; Error
  002a0	83 c4 14	 add	 esp, 20			; 00000014H
$LN216@ReadRespaw:
; File C:\IAGOS\server\v18\Source\Source\_Common\worldfile.cpp

; 648  : 	pInfo->m_rect.left   = (LONG)s.GetNumber();

  002a3	8b b5 a0 f9 ff
	ff		 mov	 esi, DWORD PTR _vPos$[ebp+8]
$LN50@ReadRespaw:
  002a9	6a 00		 push	 0
  002ab	8b cf		 mov	 ecx, edi
  002ad	e8 00 00 00 00	 call	 ?GetNumber@CScanner@@QAEHH@Z ; CScanner::GetNumber

; 649  : 	pInfo->m_rect.top    = (LONG)s.GetNumber();

  002b2	6a 00		 push	 0
  002b4	8b cf		 mov	 ecx, edi
  002b6	89 85 bc f9 ff
	ff		 mov	 DWORD PTR _ri$[ebp+20], eax
  002bc	e8 00 00 00 00	 call	 ?GetNumber@CScanner@@QAEHH@Z ; CScanner::GetNumber

; 650  : 	pInfo->m_rect.right  = (LONG)s.GetNumber();

  002c1	6a 00		 push	 0
  002c3	8b cf		 mov	 ecx, edi
  002c5	89 85 c0 f9 ff
	ff		 mov	 DWORD PTR _ri$[ebp+24], eax
  002cb	e8 00 00 00 00	 call	 ?GetNumber@CScanner@@QAEHH@Z ; CScanner::GetNumber

; 651  : 	pInfo->m_rect.bottom = (LONG)s.GetNumber();

  002d0	6a 00		 push	 0
  002d2	8b cf		 mov	 ecx, edi
  002d4	89 85 c4 f9 ff
	ff		 mov	 DWORD PTR _ri$[ebp+28], eax
  002da	e8 00 00 00 00	 call	 ?GetNumber@CScanner@@QAEHH@Z ; CScanner::GetNumber
  002df	89 85 c8 f9 ff
	ff		 mov	 DWORD PTR _ri$[ebp+32], eax

; 652  : 	if( nVersion >= 2 )

  002e5	83 fb 02	 cmp	 ebx, 2
  002e8	7c 5a		 jl	 SHORT $LN51@ReadRespaw

; 653  : 	{
; 654  : 		pInfo->m_nDayMin = s.GetNumber();

  002ea	6a 00		 push	 0
  002ec	8b cf		 mov	 ecx, edi
  002ee	e8 00 00 00 00	 call	 ?GetNumber@CScanner@@QAEHH@Z ; CScanner::GetNumber

; 655  : 		pInfo->m_nDayMax = s.GetNumber();

  002f3	6a 00		 push	 0
  002f5	8b cf		 mov	 ecx, edi
  002f7	89 85 f0 f9 ff
	ff		 mov	 DWORD PTR _ri$[ebp+72], eax
  002fd	e8 00 00 00 00	 call	 ?GetNumber@CScanner@@QAEHH@Z ; CScanner::GetNumber

; 656  : 		pInfo->m_nHourMin = s.GetNumber();

  00302	6a 00		 push	 0
  00304	8b cf		 mov	 ecx, edi
  00306	89 85 f4 f9 ff
	ff		 mov	 DWORD PTR _ri$[ebp+76], eax
  0030c	e8 00 00 00 00	 call	 ?GetNumber@CScanner@@QAEHH@Z ; CScanner::GetNumber

; 657  : 		pInfo->m_nHourMax = s.GetNumber();

  00311	6a 00		 push	 0
  00313	8b cf		 mov	 ecx, edi
  00315	89 85 f8 f9 ff
	ff		 mov	 DWORD PTR _ri$[ebp+80], eax
  0031b	e8 00 00 00 00	 call	 ?GetNumber@CScanner@@QAEHH@Z ; CScanner::GetNumber

; 658  : 		pInfo->m_nItemMin = s.GetNumber();

  00320	6a 00		 push	 0
  00322	8b cf		 mov	 ecx, edi
  00324	89 85 fc f9 ff
	ff		 mov	 DWORD PTR _ri$[ebp+84], eax
  0032a	e8 00 00 00 00	 call	 ?GetNumber@CScanner@@QAEHH@Z ; CScanner::GetNumber

; 659  : 		pInfo->m_nItemMax = s.GetNumber();

  0032f	6a 00		 push	 0
  00331	8b cf		 mov	 ecx, edi
  00333	89 85 e8 f9 ff
	ff		 mov	 DWORD PTR _ri$[ebp+64], eax
  00339	e8 00 00 00 00	 call	 ?GetNumber@CScanner@@QAEHH@Z ; CScanner::GetNumber
  0033e	89 85 ec f9 ff
	ff		 mov	 DWORD PTR _ri$[ebp+68], eax
$LN51@ReadRespaw:

; 660  : 	}
; 661  : 
; 662  : 	if( nVersion >= 4 )

  00344	83 fb 04	 cmp	 ebx, 4
  00347	7c 4d		 jl	 SHORT $LN54@ReadRespaw

; 663  : 	{		
; 664  : 		pInfo->m_dwAiState = s.GetNumber();

  00349	6a 00		 push	 0
  0034b	8b cf		 mov	 ecx, edi
  0034d	e8 00 00 00 00	 call	 ?GetNumber@CScanner@@QAEHH@Z ; CScanner::GetNumber

; 665  : 		pInfo->m_fAngle    = s.GetFloat();	

  00352	6a 00		 push	 0
  00354	8b cf		 mov	 ecx, edi
  00356	89 85 c0 fb ff
	ff		 mov	 DWORD PTR _ri$[ebp+536], eax
  0035c	e8 00 00 00 00	 call	 ?GetFloat@CScanner@@QAEMH@Z ; CScanner::GetFloat

; 666  : 		
; 667  : 		if( pInfo->m_nMaxcb == 1 )

  00361	83 bd b4 fb ff
	ff 01		 cmp	 DWORD PTR _ri$[ebp+524], 1
  00368	d9 9d c4 fb ff
	ff		 fstp	 DWORD PTR _ri$[ebp+540]
  0036e	75 26		 jne	 SHORT $LN54@ReadRespaw

; 668  : 		{
; 669  : 			if( pInfo->m_dwAiState == 8 || pInfo->m_dwAiState == 9 )

  00370	8b 85 c0 fb ff
	ff		 mov	 eax, DWORD PTR _ri$[ebp+536]
  00376	83 f8 08	 cmp	 eax, 8
  00379	74 05		 je	 SHORT $LN55@ReadRespaw
  0037b	83 f8 09	 cmp	 eax, 9
  0037e	75 16		 jne	 SHORT $LN54@ReadRespaw
$LN55@ReadRespaw:

; 670  : 			{
; 671  : 				pInfo->m_vPos = vPos;

  00380	f3 0f 7e 85 98
	f9 ff ff	 movq	 xmm0, QWORD PTR _vPos$[ebp]
  00388	66 0f d6 85 cc
	f9 ff ff	 movq	 QWORD PTR _ri$[ebp+36], xmm0
  00390	89 b5 d4 f9 ff
	ff		 mov	 DWORD PTR _ri$[ebp+44], esi
$LN54@ReadRespaw:

; 672  : 			}
; 673  : 		}
; 674  : 	}
; 675  : 
; 676  : 	if( nVersion >= 5 )

  00396	83 fb 05	 cmp	 ebx, 5
  00399	7c 0f		 jl	 SHORT $LN56@ReadRespaw

; 677  : 	{		
; 678  : 		pInfo->m_dwPatrolIndex = s.GetNumber();

  0039b	6a 00		 push	 0
  0039d	8b cf		 mov	 ecx, edi
  0039f	e8 00 00 00 00	 call	 ?GetNumber@CScanner@@QAEHH@Z ; CScanner::GetNumber
  003a4	89 85 c8 fb ff
	ff		 mov	 DWORD PTR _ri$[ebp+544], eax
$LN56@ReadRespaw:

; 679  : 	}
; 680  : 	
; 681  : 	if( nVersion >= 6 )

  003aa	83 fb 06	 cmp	 ebx, 6
  003ad	7c 20		 jl	 SHORT $LN57@ReadRespaw

; 682  : 	{		
; 683  : 		pInfo->m_bPatrolCycle  = s.GetNumber();

  003af	6a 00		 push	 0
  003b1	8b cf		 mov	 ecx, edi
  003b3	e8 00 00 00 00	 call	 ?GetNumber@CScanner@@QAEHH@Z ; CScanner::GetNumber
  003b8	8a 95 cc fb ff
	ff		 mov	 dl, BYTE PTR _ri$[ebp+548]
  003be	8a ca		 mov	 cl, dl
  003c0	32 c8		 xor	 cl, al
  003c2	80 e1 01	 and	 cl, 1
  003c5	32 d1		 xor	 dl, cl
  003c7	88 95 cc fb ff
	ff		 mov	 BYTE PTR _ri$[ebp+548], dl
  003cd	eb 09		 jmp	 SHORT $LN212@ReadRespaw
$LN57@ReadRespaw:

; 684  : 	}
; 685  : 	
; 686  : 	if( nVersion >= 3 )

  003cf	83 fb 03	 cmp	 ebx, 3
  003d2	0f 8c 63 02 00
	00		 jl	 $LN65@ReadRespaw
$LN212@ReadRespaw:

; 687  : 	{	
; 688  : 		int nContrl = s.GetNumber();

  003d8	6a 00		 push	 0
  003da	8b cf		 mov	 ecx, edi
  003dc	e8 00 00 00 00	 call	 ?GetNumber@CScanner@@QAEHH@Z ; CScanner::GetNumber
  003e1	8b d8		 mov	 ebx, eax
  003e3	89 9d a4 f9 ff
	ff		 mov	 DWORD PTR _nContrl$1$[ebp], ebx

; 689  : 		if( nContrl )

  003e9	85 db		 test	 ebx, ebx
  003eb	0f 84 4a 02 00
	00		 je	 $LN65@ReadRespaw

; 690  : 		{
; 691  : 			pInfo->m_CtrlElem.m_dwSet = s.GetNumber(); 

  003f1	6a 00		 push	 0
  003f3	8b cf		 mov	 ecx, edi
  003f5	e8 00 00 00 00	 call	 ?GetNumber@CScanner@@QAEHH@Z ; CScanner::GetNumber

; 692  : 			pInfo->m_CtrlElem.m_dwSetItem = s.GetNumber();  

  003fa	6a 00		 push	 0
  003fc	8b cf		 mov	 ecx, edi
  003fe	89 85 04 fa ff
	ff		 mov	 DWORD PTR _ri$[ebp+92], eax
  00404	e8 00 00 00 00	 call	 ?GetNumber@CScanner@@QAEHH@Z ; CScanner::GetNumber
  00409	89 85 08 fa ff
	ff		 mov	 DWORD PTR _ri$[ebp+96], eax

; 693  : 			if( nContrl == 2 )

  0040f	83 fb 02	 cmp	 ebx, 2
  00412	75 11		 jne	 SHORT $LN60@ReadRespaw

; 694  : 			{
; 695  : 				pInfo->m_CtrlElem.m_dwSetItemCount = s.GetNumber();  

  00414	6a 00		 push	 0
  00416	8b cf		 mov	 ecx, edi
  00418	e8 00 00 00 00	 call	 ?GetNumber@CScanner@@QAEHH@Z ; CScanner::GetNumber
  0041d	89 85 a0 fb ff
	ff		 mov	 DWORD PTR _ri$[ebp+504], eax

; 696  : 			}

  00423	eb 0a		 jmp	 SHORT $LN61@ReadRespaw
$LN60@ReadRespaw:

; 697  : 			else
; 698  : 			{
; 699  : 				pInfo->m_CtrlElem.m_dwSetItemCount = 1;

  00425	c7 85 a0 fb ff
	ff 01 00 00 00	 mov	 DWORD PTR _ri$[ebp+504], 1
$LN61@ReadRespaw:

; 700  : 			}
; 701  : 			pInfo->m_CtrlElem.m_dwSetLevel = s.GetNumber();  

  0042f	6a 00		 push	 0
  00431	8b cf		 mov	 ecx, edi
  00433	e8 00 00 00 00	 call	 ?GetNumber@CScanner@@QAEHH@Z ; CScanner::GetNumber

; 702  : 			pInfo->m_CtrlElem.m_dwSetQuestNum = s.GetNumber();  

  00438	6a 00		 push	 0
  0043a	8b cf		 mov	 ecx, edi
  0043c	89 85 0c fa ff
	ff		 mov	 DWORD PTR _ri$[ebp+100], eax
  00442	e8 00 00 00 00	 call	 ?GetNumber@CScanner@@QAEHH@Z ; CScanner::GetNumber

; 703  : 			pInfo->m_CtrlElem.m_dwSetFlagNum = s.GetNumber();  

  00447	6a 00		 push	 0
  00449	8b cf		 mov	 ecx, edi
  0044b	89 85 10 fa ff
	ff		 mov	 DWORD PTR _ri$[ebp+104], eax
  00451	e8 00 00 00 00	 call	 ?GetNumber@CScanner@@QAEHH@Z ; CScanner::GetNumber
  00456	89 85 14 fa ff
	ff		 mov	 DWORD PTR _ri$[ebp+108], eax

; 704  : 			if( nContrl == 2 )

  0045c	83 fb 02	 cmp	 ebx, 2
  0045f	75 3c		 jne	 SHORT $LN62@ReadRespaw

; 705  : 			{
; 706  : 				pInfo->m_CtrlElem.m_dwSetQuestNum1 = s.GetNumber();  

  00461	6a 00		 push	 0
  00463	8b cf		 mov	 ecx, edi
  00465	e8 00 00 00 00	 call	 ?GetNumber@CScanner@@QAEHH@Z ; CScanner::GetNumber

; 707  : 				pInfo->m_CtrlElem.m_dwSetFlagNum1 = s.GetNumber();  

  0046a	6a 00		 push	 0
  0046c	8b cf		 mov	 ecx, edi
  0046e	89 85 90 fb ff
	ff		 mov	 DWORD PTR _ri$[ebp+488], eax
  00474	e8 00 00 00 00	 call	 ?GetNumber@CScanner@@QAEHH@Z ; CScanner::GetNumber

; 708  : 				pInfo->m_CtrlElem.m_dwSetQuestNum2 = s.GetNumber();  

  00479	6a 00		 push	 0
  0047b	8b cf		 mov	 ecx, edi
  0047d	89 85 94 fb ff
	ff		 mov	 DWORD PTR _ri$[ebp+492], eax
  00483	e8 00 00 00 00	 call	 ?GetNumber@CScanner@@QAEHH@Z ; CScanner::GetNumber

; 709  : 				pInfo->m_CtrlElem.m_dwSetFlagNum2 = s.GetNumber();  

  00488	6a 00		 push	 0
  0048a	8b cf		 mov	 ecx, edi
  0048c	89 85 98 fb ff
	ff		 mov	 DWORD PTR _ri$[ebp+496], eax
  00492	e8 00 00 00 00	 call	 ?GetNumber@CScanner@@QAEHH@Z ; CScanner::GetNumber
  00497	89 85 9c fb ff
	ff		 mov	 DWORD PTR _ri$[ebp+500], eax
$LN62@ReadRespaw:

; 710  : 			}
; 711  : 			pInfo->m_CtrlElem.m_dwSetGender = s.GetNumber();

  0049d	6a 00		 push	 0
  0049f	8b cf		 mov	 ecx, edi
  004a1	e8 00 00 00 00	 call	 ?GetNumber@CScanner@@QAEHH@Z ; CScanner::GetNumber

; 712  : 
; 713  : #if __VER >= 10 // __LEGEND
; 714  : 			int maxjob = 0;
; 715  : 			if(nVersion <= 6)
; 716  : 				maxjob = 16;
; 717  : 			else
; 718  : 				maxjob = 32;
; 719  : 
; 720  : 			for( int i = 0; i < maxjob; i++ )

  004a6	83 bd 94 f9 ff
	ff 06		 cmp	 DWORD PTR _nVersion$1$[ebp], 6
  004ad	bb 10 00 00 00	 mov	 ebx, 16			; 00000010H
  004b2	89 85 18 fa ff
	ff		 mov	 DWORD PTR _ri$[ebp+112], eax
  004b8	b8 20 00 00 00	 mov	 eax, 32			; 00000020H
  004bd	0f 4f d8	 cmovg	 ebx, eax
  004c0	33 f6		 xor	 esi, esi
$LL6@ReadRespaw:

; 721  : 				pInfo->m_CtrlElem.m_bSetJob[ i ] = s.GetNumber();

  004c2	6a 00		 push	 0
  004c4	8b cf		 mov	 ecx, edi
  004c6	e8 00 00 00 00	 call	 ?GetNumber@CScanner@@QAEHH@Z ; CScanner::GetNumber
  004cb	89 84 b5 1c fa
	ff ff		 mov	 DWORD PTR _ri$[ebp+esi*4+116], eax
  004d2	46		 inc	 esi
  004d3	3b f3		 cmp	 esi, ebx
  004d5	7c eb		 jl	 SHORT $LL6@ReadRespaw

; 722  : #else //__LEGEND
; 723  : 			for( int i = 0; i < MAX_JOB; i++ )
; 724  : 				pInfo->m_CtrlElem.m_bSetJob[ i ] = s.GetNumber();
; 725  : #endif //__LEGEND
; 726  : 
; 727  : 			pInfo->m_CtrlElem.m_dwSetEndu = s.GetNumber();  

  004d7	6a 00		 push	 0
  004d9	8b cf		 mov	 ecx, edi
  004db	e8 00 00 00 00	 call	 ?GetNumber@CScanner@@QAEHH@Z ; CScanner::GetNumber

; 728  : 			pInfo->m_CtrlElem.m_dwMinItemNum = s.GetNumber();  

  004e0	6a 00		 push	 0
  004e2	8b cf		 mov	 ecx, edi
  004e4	89 85 9c fa ff
	ff		 mov	 DWORD PTR _ri$[ebp+244], eax
  004ea	e8 00 00 00 00	 call	 ?GetNumber@CScanner@@QAEHH@Z ; CScanner::GetNumber

; 729  : 			pInfo->m_CtrlElem.m_dwMaxiItemNum = s.GetNumber();  

  004ef	6a 00		 push	 0
  004f1	8b cf		 mov	 ecx, edi
  004f3	89 85 a0 fa ff
	ff		 mov	 DWORD PTR _ri$[ebp+248], eax
  004f9	e8 00 00 00 00	 call	 ?GetNumber@CScanner@@QAEHH@Z ; CScanner::GetNumber
  004fe	89 85 a4 fa ff
	ff		 mov	 DWORD PTR _ri$[ebp+252], eax
  00504	33 f6		 xor	 esi, esi
$LL9@ReadRespaw:

; 730  : 			for( int i = 0; i < MAX_CTRLDROPITEM; i++ )
; 731  : 				pInfo->m_CtrlElem.m_dwInsideItemKind[ i ] = s.GetNumber();  

  00506	6a 00		 push	 0
  00508	8b cf		 mov	 ecx, edi
  0050a	e8 00 00 00 00	 call	 ?GetNumber@CScanner@@QAEHH@Z ; CScanner::GetNumber
  0050f	89 84 b5 a8 fa
	ff ff		 mov	 DWORD PTR _ri$[ebp+esi*4+256], eax
  00516	46		 inc	 esi
  00517	83 fe 04	 cmp	 esi, 4
  0051a	7c ea		 jl	 SHORT $LL9@ReadRespaw

; 732  : 			for( int i = 0; i < MAX_CTRLDROPITEM; i++ )

  0051c	33 f6		 xor	 esi, esi
  0051e	66 90		 npad	 2
$LL12@ReadRespaw:

; 733  : 				pInfo->m_CtrlElem.m_dwInsideItemPer[ i ] = s.GetNumber(); 

  00520	6a 00		 push	 0
  00522	8b cf		 mov	 ecx, edi
  00524	e8 00 00 00 00	 call	 ?GetNumber@CScanner@@QAEHH@Z ; CScanner::GetNumber
  00529	89 84 b5 b8 fa
	ff ff		 mov	 DWORD PTR _ri$[ebp+esi*4+272], eax
  00530	46		 inc	 esi
  00531	83 fe 04	 cmp	 esi, 4
  00534	7c ea		 jl	 SHORT $LL12@ReadRespaw

; 734  : 			for( int i = 0; i < MAX_CTRLDROPMOB; i++ )

  00536	33 f6		 xor	 esi, esi
  00538	0f 1f 84 00 00
	00 00 00	 npad	 8
$LL15@ReadRespaw:

; 735  : 				pInfo->m_CtrlElem.m_dwMonResKind[ i ] = s.GetNumber(); 

  00540	6a 00		 push	 0
  00542	8b cf		 mov	 ecx, edi
  00544	e8 00 00 00 00	 call	 ?GetNumber@CScanner@@QAEHH@Z ; CScanner::GetNumber
  00549	89 84 b5 c8 fa
	ff ff		 mov	 DWORD PTR _ri$[ebp+esi*4+288], eax
  00550	46		 inc	 esi
  00551	83 fe 03	 cmp	 esi, 3
  00554	7c ea		 jl	 SHORT $LL15@ReadRespaw

; 736  : 			for( int i = 0; i < MAX_CTRLDROPMOB; i++ )

  00556	33 f6		 xor	 esi, esi
  00558	0f 1f 84 00 00
	00 00 00	 npad	 8
$LL18@ReadRespaw:

; 737  : 				pInfo->m_CtrlElem.m_dwMonResNum[ i ] = s.GetNumber(); 

  00560	6a 00		 push	 0
  00562	8b cf		 mov	 ecx, edi
  00564	e8 00 00 00 00	 call	 ?GetNumber@CScanner@@QAEHH@Z ; CScanner::GetNumber
  00569	89 84 b5 d4 fa
	ff ff		 mov	 DWORD PTR _ri$[ebp+esi*4+300], eax
  00570	46		 inc	 esi
  00571	83 fe 03	 cmp	 esi, 3
  00574	7c ea		 jl	 SHORT $LL18@ReadRespaw

; 738  : 			for( int i = 0; i < MAX_CTRLDROPMOB; i++ )

  00576	33 f6		 xor	 esi, esi
  00578	0f 1f 84 00 00
	00 00 00	 npad	 8
$LL21@ReadRespaw:

; 739  : 				pInfo->m_CtrlElem.m_dwMonActAttack[ i ] = s.GetNumber();  

  00580	6a 00		 push	 0
  00582	8b cf		 mov	 ecx, edi
  00584	e8 00 00 00 00	 call	 ?GetNumber@CScanner@@QAEHH@Z ; CScanner::GetNumber
  00589	89 84 b5 e0 fa
	ff ff		 mov	 DWORD PTR _ri$[ebp+esi*4+312], eax
  00590	46		 inc	 esi
  00591	83 fe 03	 cmp	 esi, 3
  00594	7c ea		 jl	 SHORT $LL21@ReadRespaw

; 740  : 			pInfo->m_CtrlElem.m_dwTrapOperType = s.GetNumber();  

  00596	6a 00		 push	 0
  00598	8b cf		 mov	 ecx, edi
  0059a	e8 00 00 00 00	 call	 ?GetNumber@CScanner@@QAEHH@Z ; CScanner::GetNumber

; 741  : 			pInfo->m_CtrlElem.m_dwTrapRandomPer = s.GetNumber();  

  0059f	6a 00		 push	 0
  005a1	8b cf		 mov	 ecx, edi
  005a3	89 85 ec fa ff
	ff		 mov	 DWORD PTR _ri$[ebp+324], eax
  005a9	e8 00 00 00 00	 call	 ?GetNumber@CScanner@@QAEHH@Z ; CScanner::GetNumber

; 742  : 			pInfo->m_CtrlElem.m_dwTrapDelay = s.GetNumber();  

  005ae	6a 00		 push	 0
  005b0	8b cf		 mov	 ecx, edi
  005b2	89 85 f0 fa ff
	ff		 mov	 DWORD PTR _ri$[ebp+328], eax
  005b8	e8 00 00 00 00	 call	 ?GetNumber@CScanner@@QAEHH@Z ; CScanner::GetNumber
  005bd	89 85 f4 fa ff
	ff		 mov	 DWORD PTR _ri$[ebp+332], eax
  005c3	33 f6		 xor	 esi, esi
$LL24@ReadRespaw:

; 743  : 			for( int i = 0; i < MAX_TRAP; i++ )
; 744  : 				pInfo->m_CtrlElem.m_dwTrapKind[ i ] = s.GetNumber();  

  005c5	6a 00		 push	 0
  005c7	8b cf		 mov	 ecx, edi
  005c9	e8 00 00 00 00	 call	 ?GetNumber@CScanner@@QAEHH@Z ; CScanner::GetNumber
  005ce	89 84 b5 f8 fa
	ff ff		 mov	 DWORD PTR _ri$[ebp+esi*4+336], eax
  005d5	46		 inc	 esi
  005d6	83 fe 03	 cmp	 esi, 3
  005d9	7c ea		 jl	 SHORT $LL24@ReadRespaw

; 745  : 			for( int i = 0; i < MAX_TRAP; i++ )

  005db	33 f6		 xor	 esi, esi
  005dd	0f 1f 00	 npad	 3
$LL27@ReadRespaw:

; 746  : 				pInfo->m_CtrlElem.m_dwTrapLevel[ i ] = s.GetNumber(); 

  005e0	6a 00		 push	 0
  005e2	8b cf		 mov	 ecx, edi
  005e4	e8 00 00 00 00	 call	 ?GetNumber@CScanner@@QAEHH@Z ; CScanner::GetNumber
  005e9	89 84 b5 04 fb
	ff ff		 mov	 DWORD PTR _ri$[ebp+esi*4+348], eax
  005f0	46		 inc	 esi
  005f1	83 fe 03	 cmp	 esi, 3
  005f4	7c ea		 jl	 SHORT $LL27@ReadRespaw

; 747  : 			
; 748  : 			if( nContrl == 2 )

  005f6	83 bd a4 f9 ff
	ff 02		 cmp	 DWORD PTR _nContrl$1$[ebp], 2
  005fd	75 3c		 jne	 SHORT $LN65@ReadRespaw

; 749  : 			{
; 750  : 				pInfo->m_CtrlElem.m_dwTeleWorldId = s.GetNumber();  

  005ff	6a 00		 push	 0
  00601	8b cf		 mov	 ecx, edi
  00603	e8 00 00 00 00	 call	 ?GetNumber@CScanner@@QAEHH@Z ; CScanner::GetNumber

; 751  : 				pInfo->m_CtrlElem.m_dwTeleX = s.GetNumber();  

  00608	6a 00		 push	 0
  0060a	8b cf		 mov	 ecx, edi
  0060c	89 85 a4 fb ff
	ff		 mov	 DWORD PTR _ri$[ebp+508], eax
  00612	e8 00 00 00 00	 call	 ?GetNumber@CScanner@@QAEHH@Z ; CScanner::GetNumber

; 752  : 				pInfo->m_CtrlElem.m_dwTeleY = s.GetNumber();  

  00617	6a 00		 push	 0
  00619	8b cf		 mov	 ecx, edi
  0061b	89 85 a8 fb ff
	ff		 mov	 DWORD PTR _ri$[ebp+512], eax
  00621	e8 00 00 00 00	 call	 ?GetNumber@CScanner@@QAEHH@Z ; CScanner::GetNumber

; 753  : 				pInfo->m_CtrlElem.m_dwTeleZ = s.GetNumber();  

  00626	6a 00		 push	 0
  00628	8b cf		 mov	 ecx, edi
  0062a	89 85 ac fb ff
	ff		 mov	 DWORD PTR _ri$[ebp+516], eax
  00630	e8 00 00 00 00	 call	 ?GetNumber@CScanner@@QAEHH@Z ; CScanner::GetNumber
  00635	89 85 b0 fb ff
	ff		 mov	 DWORD PTR _ri$[ebp+520], eax
$LN65@ReadRespaw:

; 754  : 			}
; 755  : 		}
; 756  : 	}
; 757  : 
; 758  : #ifdef __WORLDSERVER
; 759  : #ifdef __RES0807
; 760  : 	if( FALSE == ri.GenResPoint( this ) )

  0063b	8b b5 90 f9 ff
	ff		 mov	 esi, DWORD PTR _this$GSCopy$1$[ebp]
  00641	8d 8d a8 f9 ff
	ff		 lea	 ecx, DWORD PTR _ri$[ebp]
  00647	56		 push	 esi
  00648	e8 00 00 00 00	 call	 ?GenResPoint@CRespawnInfo@@QAEHPAVCWorld@@@Z ; CRespawnInfo::GenResPoint
  0064d	85 c0		 test	 eax, eax
  0064f	75 61		 jne	 SHORT $LN66@ReadRespaw

; 761  : 	{
; 762  : 		char lpOutputString[256]	=	{ 0,};

  00651	68 00 01 00 00	 push	 256			; 00000100H
  00656	50		 push	 eax
  00657	8d 85 f0 fe ff
	ff		 lea	 eax, DWORD PTR _lpOutputString$2[ebp]
  0065d	50		 push	 eax
  0065e	e8 00 00 00 00	 call	 _memset

; 763  : 		sprintf( lpOutputString, "type=%d, index=%d, left=%d, top=%d, right=%d, bottom=%d, num=%d",

  00663	ff b5 b4 fb ff
	ff		 push	 DWORD PTR _ri$[ebp+524]
  00669	8d 85 f0 fe ff
	ff		 lea	 eax, DWORD PTR _lpOutputString$2[ebp]
  0066f	ff b5 c8 f9 ff
	ff		 push	 DWORD PTR _ri$[ebp+32]
  00675	ff b5 c4 f9 ff
	ff		 push	 DWORD PTR _ri$[ebp+28]
  0067b	ff b5 c0 f9 ff
	ff		 push	 DWORD PTR _ri$[ebp+24]
  00681	ff b5 bc f9 ff
	ff		 push	 DWORD PTR _ri$[ebp+20]
  00687	ff b5 b0 f9 ff
	ff		 push	 DWORD PTR _ri$[ebp+8]
  0068d	ff b5 ac f9 ff
	ff		 push	 DWORD PTR _ri$[ebp+4]
  00693	68 00 00 00 00	 push	 OFFSET ??_C@_0EA@DKDHDJBA@type?$DN?$CFd?0?5index?$DN?$CFd?0?5left?$DN?$CFd?0?5top@
  00698	50		 push	 eax
  00699	e8 00 00 00 00	 call	 _sprintf
  0069e	83 c4 30	 add	 esp, 48			; 00000030H

; 764  : 			ri.m_dwType, ri.m_dwIndex, ri.m_rect.left, ri.m_rect.top, ri.m_rect.right, ri.m_rect.bottom, ri.m_nMaxcb );
; 765  : 		OutputDebugString( lpOutputString );

  006a1	8d 85 f0 fe ff
	ff		 lea	 eax, DWORD PTR _lpOutputString$2[ebp]
  006a7	50		 push	 eax
  006a8	ff 15 00 00 00
	00		 call	 DWORD PTR __imp__OutputDebugStringA@4

; 766  : 		return FALSE;

  006ae	33 f6		 xor	 esi, esi
  006b0	eb 19		 jmp	 SHORT $LN71@ReadRespaw
$LN66@ReadRespaw:

; 767  : 	}
; 768  : #endif	// __RES0807
; 769  : 	m_respawner.Add( ri );

  006b2	6a 00		 push	 0
  006b4	8d 85 a8 f9 ff
	ff		 lea	 eax, DWORD PTR _ri$[ebp]
  006ba	50		 push	 eax
  006bb	8d 8e b8 30 08
	00		 lea	 ecx, DWORD PTR [esi+536760]
  006c1	e8 00 00 00 00	 call	 ?Add@CLayerdRespawner@@QAEHAAVCRespawnInfo@@H@Z ; CLayerdRespawner::Add
$LN69@ReadRespaw:

; 770  : #endif	// __WORLDSERVER
; 771  : 
; 772  : 	return TRUE;

  006c6	be 01 00 00 00	 mov	 esi, 1
$LN71@ReadRespaw:
  006cb	8d 8d a8 f9 ff
	ff		 lea	 ecx, DWORD PTR _ri$[ebp]
  006d1	e8 00 00 00 00	 call	 ??1CRespawnInfo@@UAE@XZ	; CRespawnInfo::~CRespawnInfo
  006d6	8b c6		 mov	 eax, esi

; 773  : }

  006d8	8b 4d f4	 mov	 ecx, DWORD PTR __$EHRec$[ebp]
  006db	64 89 0d 00 00
	00 00		 mov	 DWORD PTR fs:0, ecx
  006e2	59		 pop	 ecx
  006e3	5f		 pop	 edi
  006e4	5e		 pop	 esi
  006e5	5b		 pop	 ebx
  006e6	8b 4d f0	 mov	 ecx, DWORD PTR __$ArrayPad$[ebp]
  006e9	33 cd		 xor	 ecx, ebp
  006eb	e8 00 00 00 00	 call	 @__security_check_cookie@4
  006f0	8b e5		 mov	 esp, ebp
  006f2	5d		 pop	 ebp
  006f3	c2 04 00	 ret	 4
  006f6	66 90		 npad	 2
$LN214@ReadRespaw:
  006f8	00 00 00 00	 DD	 $LN40@ReadRespaw
  006fc	00 00 00 00	 DD	 $LN49@ReadRespaw
$LN213@ReadRespaw:
  00700	00		 DB	 0
  00701	00		 DB	 0
  00702	00		 DB	 0
  00703	01		 DB	 1
  00704	00		 DB	 0
  00705	00		 DB	 0
  00706	00		 DB	 0
  00707	01		 DB	 1
  00708	01		 DB	 1
  00709	01		 DB	 1
  0070a	01		 DB	 1
  0070b	01		 DB	 1
  0070c	01		 DB	 1
  0070d	01		 DB	 1
  0070e	01		 DB	 1
  0070f	01		 DB	 1
  00710	01		 DB	 1
  00711	01		 DB	 1
  00712	01		 DB	 1
  00713	01		 DB	 1
  00714	01		 DB	 1
  00715	01		 DB	 1
  00716	01		 DB	 1
  00717	01		 DB	 1
  00718	01		 DB	 1
  00719	01		 DB	 1
  0071a	01		 DB	 1
  0071b	01		 DB	 1
  0071c	01		 DB	 1
  0071d	01		 DB	 1
  0071e	01		 DB	 1
  0071f	01		 DB	 1
  00720	01		 DB	 1
  00721	01		 DB	 1
  00722	01		 DB	 1
  00723	01		 DB	 1
  00724	01		 DB	 1
  00725	01		 DB	 1
  00726	01		 DB	 1
  00727	01		 DB	 1
  00728	01		 DB	 1
  00729	01		 DB	 1
  0072a	01		 DB	 1
  0072b	01		 DB	 1
  0072c	01		 DB	 1
  0072d	01		 DB	 1
  0072e	01		 DB	 1
  0072f	01		 DB	 1
  00730	01		 DB	 1
  00731	01		 DB	 1
  00732	01		 DB	 1
  00733	01		 DB	 1
  00734	01		 DB	 1
  00735	01		 DB	 1
  00736	01		 DB	 1
  00737	01		 DB	 1
  00738	01		 DB	 1
  00739	01		 DB	 1
  0073a	01		 DB	 1
  0073b	01		 DB	 1
  0073c	01		 DB	 1
  0073d	01		 DB	 1
  0073e	01		 DB	 1
  0073f	01		 DB	 1
  00740	01		 DB	 1
  00741	01		 DB	 1
  00742	01		 DB	 1
  00743	01		 DB	 1
  00744	01		 DB	 1
  00745	01		 DB	 1
  00746	01		 DB	 1
  00747	01		 DB	 1
  00748	01		 DB	 1
  00749	01		 DB	 1
  0074a	01		 DB	 1
  0074b	01		 DB	 1
  0074c	00		 DB	 0
  0074d	00		 DB	 0
  0074e	00		 DB	 0
_TEXT	ENDS
;	COMDAT text$x
text$x	SEGMENT
__unwindfunclet$?ReadRespawn@CWorld@@QAEHAAVCScript@@@Z$0:
  00000	8d 8d a8 f9 ff
	ff		 lea	 ecx, DWORD PTR _ri$[ebp]
  00006	e9 00 00 00 00	 jmp	 ??1CRespawnInfo@@UAE@XZ	; CRespawnInfo::~CRespawnInfo
  0000b	cc		 int	 3
  0000c	cc		 int	 3
  0000d	cc		 int	 3
  0000e	cc		 int	 3
  0000f	cc		 int	 3
__ehhandler$?ReadRespawn@CWorld@@QAEHAAVCScript@@@Z:
  00010	90		 npad	 1
  00011	90		 npad	 1
  00012	8b 54 24 08	 mov	 edx, DWORD PTR [esp+8]
  00016	8d 42 0c	 lea	 eax, DWORD PTR [edx+12]
  00019	8b 8a 8c f9 ff
	ff		 mov	 ecx, DWORD PTR [edx-1652]
  0001f	33 c8		 xor	 ecx, eax
  00021	e8 00 00 00 00	 call	 @__security_check_cookie@4
  00026	8b 4a fc	 mov	 ecx, DWORD PTR [edx-4]
  00029	33 c8		 xor	 ecx, eax
  0002b	e8 00 00 00 00	 call	 @__security_check_cookie@4
  00030	b8 00 00 00 00	 mov	 eax, OFFSET __ehfuncinfo$?ReadRespawn@CWorld@@QAEHAAVCScript@@@Z
  00035	e9 00 00 00 00	 jmp	 ___CxxFrameHandler3
text$x	ENDS
?ReadRespawn@CWorld@@QAEHAAVCScript@@@Z ENDP		; CWorld::ReadRespawn
; Function compile flags: /Ogtp
; File C:\IAGOS\server\v18\Source\Source\_Common\worldfile.cpp
; File C:\Program Files\Microsoft Visual Studio\2022\Professional\VC\Tools\MSVC\14.44.35207\atlmfc\include\cstringt.h
; File C:\IAGOS\server\v18\Source\Source\_Common\worldfile.cpp
; File C:\Program Files\Microsoft Visual Studio\2022\Professional\VC\Tools\MSVC\14.44.35207\atlmfc\include\cstringt.h
; File C:\IAGOS\server\v18\Source\Source\_Common\worldfile.cpp
; File C:\Program Files\Microsoft Visual Studio\2022\Professional\VC\Tools\MSVC\14.44.35207\atlmfc\include\cstringt.h
; File C:\IAGOS\server\v18\Source\Source\_Common\worldfile.cpp
; File C:\Program Files\Microsoft Visual Studio\2022\Professional\VC\Tools\MSVC\14.44.35207\atlmfc\include\atlsimpstr.h
; File C:\IAGOS\server\v18\Source\Source\_Common\worldfile.cpp
; File C:\Program Files\Microsoft Visual Studio\2022\Professional\VC\Tools\MSVC\14.44.35207\atlmfc\include\atlsimpstr.h
; File C:\IAGOS\server\v18\Source\Source\_Common\worldfile.cpp
; File C:\Program Files\Microsoft Visual Studio\2022\Professional\VC\Tools\MSVC\14.44.35207\atlmfc\include\atlsimpstr.h
; File C:\IAGOS\server\v18\Source\Source\_Common\worldfile.cpp
; File C:\Program Files\Microsoft Visual Studio\2022\Professional\VC\Tools\MSVC\14.44.35207\atlmfc\include\atlsimpstr.h
; File C:\IAGOS\server\v18\Source\Source\_Common\worldfile.cpp
; File C:\IAGOS\server\v18\Source\Source\_Common\Region.h
; File C:\IAGOS\server\v18\Source\Source\_Common\worldfile.cpp
;	COMDAT ?ReadRegion@CWorld@@QAEHAAVCScript@@@Z
_TEXT	SEGMENT
_vPos$ = -784						; size = 12
_bNewFormat$2$ = -772					; size = 4
tv1105 = -768						; size = 4
_this$GSCopy$1$ = -764					; size = 4
_re$ = -760						; size = 756
__$ArrayPad$ = -4					; size = 4
_s$ = 8							; size = 4
?ReadRegion@CWorld@@QAEHAAVCScript@@@Z PROC		; CWorld::ReadRegion, COMDAT
; _this$ = ecx

; 414  : {

  00000	55		 push	 ebp
  00001	8b ec		 mov	 ebp, esp
  00003	81 ec 10 03 00
	00		 sub	 esp, 784		; 00000310H
  00009	a1 00 00 00 00	 mov	 eax, DWORD PTR ___security_cookie
  0000e	33 c5		 xor	 eax, ebp
  00010	89 45 fc	 mov	 DWORD PTR __$ArrayPad$[ebp], eax
  00013	53		 push	 ebx
  00014	56		 push	 esi
  00015	57		 push	 edi
  00016	8b 7d 08	 mov	 edi, DWORD PTR _s$[ebp]
; File C:\Program Files\Microsoft Visual Studio\2022\Professional\VC\Tools\MSVC\14.44.35207\atlmfc\include\cstringt.h

; 184  : 		return _mbscmp( reinterpret_cast< const unsigned char* >( pszA ), reinterpret_cast< const unsigned char* >( pszB ) );

  00019	68 00 00 00 00	 push	 OFFSET ??_C@_07OAIJKKOJ@region2@
; File C:\IAGOS\server\v18\Source\Source\_Common\worldfile.cpp

; 414  : {

  0001e	89 8d 04 fd ff
	ff		 mov	 DWORD PTR _this$GSCopy$1$[ebp], ecx
; File C:\Program Files\Microsoft Visual Studio\2022\Professional\VC\Tools\MSVC\14.44.35207\atlmfc\include\cstringt.h

; 184  : 		return _mbscmp( reinterpret_cast< const unsigned char* >( pszA ), reinterpret_cast< const unsigned char* >( pszB ) );

  00024	ff 77 20	 push	 DWORD PTR [edi+32]
  00027	e8 00 00 00 00	 call	 __mbscmp
  0002c	68 00 00 00 00	 push	 OFFSET ??_C@_07PJJCJLKI@region3@
  00031	ff 77 20	 push	 DWORD PTR [edi+32]
  00034	8b f0		 mov	 esi, eax
  00036	e8 00 00 00 00	 call	 __mbscmp
  0003b	8b c8		 mov	 ecx, eax
  0003d	83 c4 10	 add	 esp, 16			; 00000010H

; 1452 : 		ATLENSURE( AtlIsValidString( psz ) );

  00040	33 c0		 xor	 eax, eax

; 184  : 		return _mbscmp( reinterpret_cast< const unsigned char* >( pszA ), reinterpret_cast< const unsigned char* >( pszB ) );

  00042	89 8d 00 fd ff
	ff		 mov	 DWORD PTR tv1105[ebp], ecx

; 1452 : 		ATLENSURE( AtlIsValidString( psz ) );

  00048	85 f6		 test	 esi, esi
; File C:\IAGOS\server\v18\Source\Source\_Common\worldfile.cpp

; 419  : 	if( s.Token == _T( "region3" ) )

  0004a	ba 01 00 00 00	 mov	 edx, 1
; File C:\Program Files\Microsoft Visual Studio\2022\Professional\VC\Tools\MSVC\14.44.35207\atlmfc\include\cstringt.h

; 1452 : 		ATLENSURE( AtlIsValidString( psz ) );

  0004f	0f 94 c0	 sete	 al

; 2490 : 		return(str1.Compare(psz2) == 0);

  00052	85 c9		 test	 ecx, ecx
; File C:\IAGOS\server\v18\Source\Source\_Common\worldfile.cpp

; 424  : 	DWORD dwType = s.GetNumber();

  00054	6a 00		 push	 0
  00056	0f 44 c2	 cmove	 eax, edx
  00059	8b cf		 mov	 ecx, edi
  0005b	89 85 fc fc ff
	ff		 mov	 DWORD PTR _bNewFormat$2$[ebp], eax
  00061	e8 00 00 00 00	 call	 ?GetNumber@CScanner@@QAEHH@Z ; CScanner::GetNumber

; 425  : 	DWORD dwIndex = s.GetNumber();

  00066	6a 00		 push	 0
  00068	8b cf		 mov	 ecx, edi
  0006a	e8 00 00 00 00	 call	 ?GetNumber@CScanner@@QAEHH@Z ; CScanner::GetNumber

; 426  : 	D3DXVECTOR3 vPos;
; 427  : 	vPos.x = s.GetFloat();

  0006f	6a 00		 push	 0
  00071	8b cf		 mov	 ecx, edi
  00073	8b f0		 mov	 esi, eax
  00075	e8 00 00 00 00	 call	 ?GetFloat@CScanner@@QAEMH@Z ; CScanner::GetFloat
  0007a	d9 9d f0 fc ff
	ff		 fstp	 DWORD PTR _vPos$[ebp]

; 428  : 	vPos.y = s.GetFloat();

  00080	6a 00		 push	 0
  00082	8b cf		 mov	 ecx, edi
  00084	e8 00 00 00 00	 call	 ?GetFloat@CScanner@@QAEMH@Z ; CScanner::GetFloat
  00089	d9 9d f4 fc ff
	ff		 fstp	 DWORD PTR _vPos$[ebp+4]

; 429  : 	vPos.z = s.GetFloat();

  0008f	6a 00		 push	 0
  00091	8b cf		 mov	 ecx, edi
  00093	e8 00 00 00 00	 call	 ?GetFloat@CScanner@@QAEMH@Z ; CScanner::GetFloat

; 430  : 
; 431  : 	REGIONELEM re,* pRe = &re;
; 432  : 	ZeroMemory( &re, sizeof( re ) );

  00098	68 f4 02 00 00	 push	 756			; 000002f4H
  0009d	8d 85 08 fd ff
	ff		 lea	 eax, DWORD PTR _re$[ebp]
  000a3	6a 00		 push	 0
  000a5	50		 push	 eax
  000a6	d9 9d f8 fc ff
	ff		 fstp	 DWORD PTR _vPos$[ebp+8]
  000ac	e8 00 00 00 00	 call	 _memset

; 433  : 
; 434  : 	pRe->m_uItemId		= 0xffffffff;
; 435  : 	pRe->m_uiItemCount	= 0xffffffff;
; 436  : 	pRe->m_uiMinLevel	= 0xffffffff;
; 437  : 	pRe->m_uiMaxLevel	= 0xffffffff;
; 438  : 	pRe->m_iQuest		= 0xffffffff;

  000b1	0f 28 05 00 00
	00 00		 movaps	 xmm0, XMMWORD PTR __xmm@ffffffffffffffffffffffffffffffff
  000b8	83 c4 0c	 add	 esp, 12			; 0000000cH

; 439  : 	pRe->m_iQuestFlag	= 0xffffffff;
; 440  : 	pRe->m_iJob			= 0xffffffff;
; 441  : 	pRe->m_iGender		= 0xffffffff;
; 442  : 	pRe->m_bCheckParty	= FALSE;
; 443  : 	pRe->m_bCheckGuild	= FALSE;
; 444  : 	pRe->m_bChaoKey		= FALSE;
; 445  : 	pRe->m_dwAttribute	= s.GetNumber();

  000bb	8b cf		 mov	 ecx, edi
  000bd	c7 45 d0 ff ff
	ff ff		 mov	 DWORD PTR _re$[ebp+712], -1
  000c4	c7 45 d4 ff ff
	ff ff		 mov	 DWORD PTR _re$[ebp+716], -1
  000cb	c7 45 d8 ff ff
	ff ff		 mov	 DWORD PTR _re$[ebp+720], -1
  000d2	6a 00		 push	 0
  000d4	c7 45 dc ff ff
	ff ff		 mov	 DWORD PTR _re$[ebp+724], -1
  000db	0f 11 45 e0	 movups	 XMMWORD PTR _re$[ebp+728], xmm0
  000df	c7 45 f0 00 00
	00 00		 mov	 DWORD PTR _re$[ebp+744], 0
  000e6	c7 45 f4 00 00
	00 00		 mov	 DWORD PTR _re$[ebp+748], 0
  000ed	c7 45 f8 00 00
	00 00		 mov	 DWORD PTR _re$[ebp+752], 0
  000f4	e8 00 00 00 00	 call	 ?GetNumber@CScanner@@QAEHH@Z ; CScanner::GetNumber

; 446  : 	pRe->m_dwIdMusic = s.GetNumber();

  000f9	6a 00		 push	 0
  000fb	8b cf		 mov	 ecx, edi
  000fd	89 85 a8 fd ff
	ff		 mov	 DWORD PTR _re$[ebp+160], eax
  00103	e8 00 00 00 00	 call	 ?GetNumber@CScanner@@QAEHH@Z ; CScanner::GetNumber

; 447  : 	pRe->m_bDirectMusic = (bool)(s.GetNumber() == 1);

  00108	6a 00		 push	 0
  0010a	8b cf		 mov	 ecx, edi
  0010c	89 45 c4	 mov	 DWORD PTR _re$[ebp+700], eax
  0010f	e8 00 00 00 00	 call	 ?GetNumber@CScanner@@QAEHH@Z ; CScanner::GetNumber
  00114	83 f8 01	 cmp	 eax, 1

; 448  : 
; 449  : 	s.GetToken(); _tcscpy( pRe->m_szScript, s.token );

  00117	8b cf		 mov	 ecx, edi
  00119	8b 07		 mov	 eax, DWORD PTR [edi]
  0011b	6a 00		 push	 0
  0011d	0f 94 45 be	 sete	 BYTE PTR _re$[ebp+694]
  00121	ff 50 14	 call	 DWORD PTR [eax+20]
  00124	8b 4f 3c	 mov	 ecx, DWORD PTR [edi+60]
  00127	8d 95 88 fd ff
	ff		 lea	 edx, DWORD PTR _re$[ebp+128]
  0012d	2b d1		 sub	 edx, ecx
  0012f	90		 npad	 1
$LL18@ReadRegion:
  00130	8a 01		 mov	 al, BYTE PTR [ecx]
  00132	8d 49 01	 lea	 ecx, DWORD PTR [ecx+1]
  00135	88 44 0a ff	 mov	 BYTE PTR [edx+ecx-1], al
  00139	84 c0		 test	 al, al
  0013b	75 f3		 jne	 SHORT $LL18@ReadRegion

; 450  : 	s.GetToken(); _tcscpy( pRe->m_szSound, s.token );

  0013d	8b 07		 mov	 eax, DWORD PTR [edi]
  0013f	8b cf		 mov	 ecx, edi
  00141	6a 00		 push	 0
  00143	ff 50 14	 call	 DWORD PTR [eax+20]
  00146	8b 4f 3c	 mov	 ecx, DWORD PTR [edi+60]
  00149	8d 95 68 fd ff
	ff		 lea	 edx, DWORD PTR _re$[ebp+96]
  0014f	2b d1		 sub	 edx, ecx
$LL19@ReadRegion:
  00151	8a 01		 mov	 al, BYTE PTR [ecx]
  00153	8d 49 01	 lea	 ecx, DWORD PTR [ecx+1]
  00156	88 44 0a ff	 mov	 BYTE PTR [edx+ecx-1], al
  0015a	84 c0		 test	 al, al
  0015c	75 f3		 jne	 SHORT $LL19@ReadRegion

; 451  : 	pRe->m_dwIdTeleWorld = s.GetNumber();

  0015e	6a 00		 push	 0
  00160	8b cf		 mov	 ecx, edi
  00162	e8 00 00 00 00	 call	 ?GetNumber@CScanner@@QAEHH@Z ; CScanner::GetNumber

; 452  : 
; 453  : 	pRe->m_vPos        = vPos;

  00167	f3 0f 7e 85 f0
	fc ff ff	 movq	 xmm0, QWORD PTR _vPos$[ebp]

; 454  : 	pRe->m_vTeleWorld.x = s.GetFloat();

  0016f	8b cf		 mov	 ecx, edi
  00171	89 85 64 fd ff
	ff		 mov	 DWORD PTR _re$[ebp+92], eax
  00177	8b 85 f8 fc ff
	ff		 mov	 eax, DWORD PTR _vPos$[ebp+8]
  0017d	6a 00		 push	 0
  0017f	66 0f d6 85 18
	fd ff ff	 movq	 QWORD PTR _re$[ebp+16], xmm0
  00187	89 85 20 fd ff
	ff		 mov	 DWORD PTR _re$[ebp+24], eax
  0018d	e8 00 00 00 00	 call	 ?GetFloat@CScanner@@QAEMH@Z ; CScanner::GetFloat
  00192	d9 9d 0c fd ff
	ff		 fstp	 DWORD PTR _re$[ebp+4]

; 455  : 	pRe->m_vTeleWorld.y = s.GetFloat();

  00198	6a 00		 push	 0
  0019a	8b cf		 mov	 ecx, edi
  0019c	e8 00 00 00 00	 call	 ?GetFloat@CScanner@@QAEMH@Z ; CScanner::GetFloat
  001a1	d9 9d 10 fd ff
	ff		 fstp	 DWORD PTR _re$[ebp+8]

; 456  : 	pRe->m_vTeleWorld.z = s.GetFloat();

  001a7	6a 00		 push	 0
  001a9	8b cf		 mov	 ecx, edi
  001ab	e8 00 00 00 00	 call	 ?GetFloat@CScanner@@QAEMH@Z ; CScanner::GetFloat

; 457  : 	pRe->m_rect.left   = (LONG)s.GetNumber();

  001b0	6a 00		 push	 0
  001b2	8b cf		 mov	 ecx, edi
  001b4	d9 9d 14 fd ff
	ff		 fstp	 DWORD PTR _re$[ebp+12]
  001ba	e8 00 00 00 00	 call	 ?GetNumber@CScanner@@QAEHH@Z ; CScanner::GetNumber

; 458  : 	pRe->m_rect.top	   = (LONG)s.GetNumber();

  001bf	6a 00		 push	 0
  001c1	8b cf		 mov	 ecx, edi
  001c3	89 85 ac fd ff
	ff		 mov	 DWORD PTR _re$[ebp+164], eax
  001c9	e8 00 00 00 00	 call	 ?GetNumber@CScanner@@QAEHH@Z ; CScanner::GetNumber

; 459  : 	pRe->m_rect.right  = (LONG)s.GetNumber();

  001ce	6a 00		 push	 0
  001d0	8b cf		 mov	 ecx, edi
  001d2	89 85 b0 fd ff
	ff		 mov	 DWORD PTR _re$[ebp+168], eax
  001d8	e8 00 00 00 00	 call	 ?GetNumber@CScanner@@QAEHH@Z ; CScanner::GetNumber

; 460  : 	pRe->m_rect.bottom = (LONG)s.GetNumber();

  001dd	6a 00		 push	 0
  001df	8b cf		 mov	 ecx, edi
  001e1	89 85 b4 fd ff
	ff		 mov	 DWORD PTR _re$[ebp+172], eax
  001e7	e8 00 00 00 00	 call	 ?GetNumber@CScanner@@QAEHH@Z ; CScanner::GetNumber
  001ec	89 85 b8 fd ff
	ff		 mov	 DWORD PTR _re$[ebp+176], eax

; 461  : 	s.GetToken();

  001f2	8b cf		 mov	 ecx, edi
  001f4	8b 07		 mov	 eax, DWORD PTR [edi]
  001f6	6a 00		 push	 0
  001f8	ff 50 14	 call	 DWORD PTR [eax+20]
; File C:\Program Files\Microsoft Visual Studio\2022\Professional\VC\Tools\MSVC\14.44.35207\atlmfc\include\atlsimpstr.h

; 381  : 		return( m_pszData );

  001fb	8b 4f 20	 mov	 ecx, DWORD PTR [edi+32]
; File C:\IAGOS\server\v18\Source\Source\_Common\worldfile.cpp

; 462  : 	strcpy( pRe->m_szKey, s.Token );

  001fe	8d 95 44 fd ff
	ff		 lea	 edx, DWORD PTR _re$[ebp+60]
  00204	2b d1		 sub	 edx, ecx
$LL20@ReadRegion:
  00206	8a 01		 mov	 al, BYTE PTR [ecx]
  00208	8d 49 01	 lea	 ecx, DWORD PTR [ecx+1]
  0020b	88 44 0a ff	 mov	 BYTE PTR [edx+ecx-1], al
  0020f	84 c0		 test	 al, al
  00211	75 f3		 jne	 SHORT $LL20@ReadRegion

; 463  : 	pRe->m_bTargetKey  =  (bool)(s.GetNumber() == 1);

  00213	6a 00		 push	 0
  00215	8b cf		 mov	 ecx, edi
  00217	e8 00 00 00 00	 call	 ?GetNumber@CScanner@@QAEHH@Z ; CScanner::GetNumber
  0021c	83 f8 01	 cmp	 eax, 1
  0021f	0f 94 45 c0	 sete	 BYTE PTR _re$[ebp+696]

; 464  : 	if( bNewFormat3 )

  00223	83 bd 00 fd ff
	ff 00		 cmp	 DWORD PTR tv1105[ebp], 0
  0022a	0f 85 84 00 00
	00		 jne	 $LN6@ReadRegion

; 465  : 	{
; 466  : 		pRe->m_uItemId		= (u_long)s.GetNumber();

  00230	6a 00		 push	 0
  00232	8b cf		 mov	 ecx, edi
  00234	e8 00 00 00 00	 call	 ?GetNumber@CScanner@@QAEHH@Z ; CScanner::GetNumber

; 467  : 		pRe->m_uiItemCount	= (UINT)s.GetNumber();

  00239	6a 00		 push	 0
  0023b	8b cf		 mov	 ecx, edi
  0023d	89 45 d0	 mov	 DWORD PTR _re$[ebp+712], eax
  00240	e8 00 00 00 00	 call	 ?GetNumber@CScanner@@QAEHH@Z ; CScanner::GetNumber

; 468  : 		pRe->m_uiMinLevel	= (UINT)s.GetNumber();

  00245	6a 00		 push	 0
  00247	8b cf		 mov	 ecx, edi
  00249	89 45 d4	 mov	 DWORD PTR _re$[ebp+716], eax
  0024c	e8 00 00 00 00	 call	 ?GetNumber@CScanner@@QAEHH@Z ; CScanner::GetNumber

; 469  : 		pRe->m_uiMaxLevel	= (UINT)s.GetNumber();

  00251	6a 00		 push	 0
  00253	8b cf		 mov	 ecx, edi
  00255	89 45 d8	 mov	 DWORD PTR _re$[ebp+720], eax
  00258	e8 00 00 00 00	 call	 ?GetNumber@CScanner@@QAEHH@Z ; CScanner::GetNumber

; 470  : 		pRe->m_iQuest		= s.GetNumber();

  0025d	6a 00		 push	 0
  0025f	8b cf		 mov	 ecx, edi
  00261	89 45 dc	 mov	 DWORD PTR _re$[ebp+724], eax
  00264	e8 00 00 00 00	 call	 ?GetNumber@CScanner@@QAEHH@Z ; CScanner::GetNumber

; 471  : 		pRe->m_iQuestFlag	= s.GetNumber();

  00269	6a 00		 push	 0
  0026b	8b cf		 mov	 ecx, edi
  0026d	89 45 e0	 mov	 DWORD PTR _re$[ebp+728], eax
  00270	e8 00 00 00 00	 call	 ?GetNumber@CScanner@@QAEHH@Z ; CScanner::GetNumber

; 472  : 		pRe->m_iJob			= s.GetNumber();

  00275	6a 00		 push	 0
  00277	8b cf		 mov	 ecx, edi
  00279	89 45 e4	 mov	 DWORD PTR _re$[ebp+732], eax
  0027c	e8 00 00 00 00	 call	 ?GetNumber@CScanner@@QAEHH@Z ; CScanner::GetNumber

; 473  : 		pRe->m_iGender		= s.GetNumber();

  00281	6a 00		 push	 0
  00283	8b cf		 mov	 ecx, edi
  00285	89 45 e8	 mov	 DWORD PTR _re$[ebp+736], eax
  00288	e8 00 00 00 00	 call	 ?GetNumber@CScanner@@QAEHH@Z ; CScanner::GetNumber

; 474  : 		pRe->m_bCheckParty	= (BOOL)s.GetNumber();

  0028d	6a 00		 push	 0
  0028f	8b cf		 mov	 ecx, edi
  00291	89 45 ec	 mov	 DWORD PTR _re$[ebp+740], eax
  00294	e8 00 00 00 00	 call	 ?GetNumber@CScanner@@QAEHH@Z ; CScanner::GetNumber

; 475  : 		pRe->m_bCheckGuild	= (BOOL)s.GetNumber();

  00299	6a 00		 push	 0
  0029b	8b cf		 mov	 ecx, edi
  0029d	89 45 f0	 mov	 DWORD PTR _re$[ebp+744], eax
  002a0	e8 00 00 00 00	 call	 ?GetNumber@CScanner@@QAEHH@Z ; CScanner::GetNumber

; 476  : 		pRe->m_bChaoKey		= (BOOL)s.GetNumber();

  002a5	6a 00		 push	 0
  002a7	8b cf		 mov	 ecx, edi
  002a9	89 45 f4	 mov	 DWORD PTR _re$[ebp+748], eax
  002ac	e8 00 00 00 00	 call	 ?GetNumber@CScanner@@QAEHH@Z ; CScanner::GetNumber
  002b1	89 45 f8	 mov	 DWORD PTR _re$[ebp+752], eax
$LN6@ReadRegion:

; 477  : 	}
; 478  : 
; 479  : 	if( bNewFormat == FALSE )

  002b4	83 bd fc fc ff
	ff 00		 cmp	 DWORD PTR _bNewFormat$2$[ebp], 0
  002bb	8b cf		 mov	 ecx, edi
  002bd	6a 00		 push	 0
  002bf	75 61		 jne	 SHORT $LN7@ReadRegion

; 480  : 	{
; 481  : 		pRe->m_cDescSize = (char)( (LONG)s.GetNumber() );

  002c1	e8 00 00 00 00	 call	 ?GetNumber@CScanner@@QAEHH@Z ; CScanner::GetNumber
  002c6	88 85 bd fd ff
	ff		 mov	 BYTE PTR _re$[ebp+181], al

; 482  : 		if( pRe->m_cDescSize )

  002cc	84 c0		 test	 al, al
  002ce	0f 84 07 01 00
	00		 je	 $LN11@ReadRegion

; 483  : 		{
; 484  : 			pRe->m_cDescSize = 1;
; 485  : 			s.GetToken(); // {

  002d4	8b 07		 mov	 eax, DWORD PTR [edi]
  002d6	8b cf		 mov	 ecx, edi
  002d8	6a 00		 push	 0
  002da	c6 85 bd fd ff
	ff 01		 mov	 BYTE PTR _re$[ebp+181], 1
  002e1	ff 50 14	 call	 DWORD PTR [eax+20]

; 486  : 			s.GetToken();

  002e4	8b 07		 mov	 eax, DWORD PTR [edi]
  002e6	8b cf		 mov	 ecx, edi
  002e8	6a 00		 push	 0
  002ea	ff 50 14	 call	 DWORD PTR [eax+20]

; 487  : 
; 488  : 			s.Token.Replace( "\\n", "\r\n" );

  002ed	68 00 00 00 00	 push	 OFFSET ??_C@_02PCIJFNDE@?$AN?6@
  002f2	68 00 00 00 00	 push	 OFFSET ??_C@_02JOGGLHBA@?2n@
  002f7	8d 4f 20	 lea	 ecx, DWORD PTR [edi+32]
  002fa	e8 00 00 00 00	 call	 ?Replace@?$CStringT@DV?$StrTraitMFC@DV?$ChTraitsCRT@D@ATL@@@@@ATL@@QAEHPBD0@Z ; ATL::CStringT<char,StrTraitMFC<char,ATL::ChTraitsCRT<char> > >::Replace
; File C:\Program Files\Microsoft Visual Studio\2022\Professional\VC\Tools\MSVC\14.44.35207\atlmfc\include\atlsimpstr.h

; 381  : 		return( m_pszData );

  002ff	8b 4f 20	 mov	 ecx, DWORD PTR [edi+32]
; File C:\IAGOS\server\v18\Source\Source\_Common\worldfile.cpp

; 489  : 			strcpy( pRe->m_szDesc, s.Token );	

  00302	8d 95 be fd ff
	ff		 lea	 edx, DWORD PTR _re$[ebp+182]
  00308	2b d1		 sub	 edx, ecx
  0030a	66 0f 1f 44 00
	00		 npad	 6
$LL21@ReadRegion:
  00310	8a 01		 mov	 al, BYTE PTR [ecx]
  00312	8d 49 01	 lea	 ecx, DWORD PTR [ecx+1]
  00315	88 44 11 ff	 mov	 BYTE PTR [ecx+edx-1], al
  00319	84 c0		 test	 al, al
  0031b	75 f3		 jne	 SHORT $LL21@ReadRegion

; 490  : 
; 491  : 			s.GetToken();	// }
; 492  : 
; 493  : 		}
; 494  : 	}

  0031d	e9 b0 00 00 00	 jmp	 $LN108@ReadRegion
$LN7@ReadRegion:

; 495  : 	else
; 496  : 	{
; 497  : 		s.GetToken(); // get "title"

  00322	8b 07		 mov	 eax, DWORD PTR [edi]
  00324	ff 50 14	 call	 DWORD PTR [eax+20]

; 498  : 		BOOL bDesc = s.GetNumber();

  00327	6a 00		 push	 0
  00329	8b cf		 mov	 ecx, edi
  0032b	e8 00 00 00 00	 call	 ?GetNumber@CScanner@@QAEHH@Z ; CScanner::GetNumber

; 499  : 		if( bDesc )

  00330	85 c0		 test	 eax, eax
  00332	74 45		 je	 SHORT $LN10@ReadRegion

; 500  : 		{
; 501  : 			s.GetToken(); // {

  00334	8b 07		 mov	 eax, DWORD PTR [edi]
  00336	8b cf		 mov	 ecx, edi
  00338	6a 00		 push	 0
  0033a	ff 50 14	 call	 DWORD PTR [eax+20]

; 502  : 			s.GetToken();

  0033d	8b 07		 mov	 eax, DWORD PTR [edi]
  0033f	8b cf		 mov	 ecx, edi
  00341	6a 00		 push	 0
  00343	ff 50 14	 call	 DWORD PTR [eax+20]

; 503  : 
; 504  : 			s.Token.Replace( "\\n", "\r\n" );

  00346	68 00 00 00 00	 push	 OFFSET ??_C@_02PCIJFNDE@?$AN?6@
  0034b	68 00 00 00 00	 push	 OFFSET ??_C@_02JOGGLHBA@?2n@
  00350	8d 4f 20	 lea	 ecx, DWORD PTR [edi+32]
  00353	e8 00 00 00 00	 call	 ?Replace@?$CStringT@DV?$StrTraitMFC@DV?$ChTraitsCRT@D@ATL@@@@@ATL@@QAEHPBD0@Z ; ATL::CStringT<char,StrTraitMFC<char,ATL::ChTraitsCRT<char> > >::Replace
; File C:\Program Files\Microsoft Visual Studio\2022\Professional\VC\Tools\MSVC\14.44.35207\atlmfc\include\atlsimpstr.h

; 381  : 		return( m_pszData );

  00358	8b 4f 20	 mov	 ecx, DWORD PTR [edi+32]
; File C:\IAGOS\server\v18\Source\Source\_Common\worldfile.cpp

; 505  : 			strcpy( pRe->m_szTitle, s.Token );

  0035b	8d 95 be fe ff
	ff		 lea	 edx, DWORD PTR _re$[ebp+438]
  00361	2b d1		 sub	 edx, ecx
$LL22@ReadRegion:
  00363	8a 01		 mov	 al, BYTE PTR [ecx]
  00365	8d 49 01	 lea	 ecx, DWORD PTR [ecx+1]
  00368	88 44 11 ff	 mov	 BYTE PTR [ecx+edx-1], al
  0036c	84 c0		 test	 al, al
  0036e	75 f3		 jne	 SHORT $LL22@ReadRegion

; 506  : 
; 507  : 			s.GetToken();	// }

  00370	8b 07		 mov	 eax, DWORD PTR [edi]
  00372	8b cf		 mov	 ecx, edi
  00374	6a 00		 push	 0
  00376	ff 50 14	 call	 DWORD PTR [eax+20]
$LN10@ReadRegion:

; 508  : 		}
; 509  : 
; 510  : 		s.GetToken(); // get "desc"

  00379	8b 07		 mov	 eax, DWORD PTR [edi]
  0037b	8b cf		 mov	 ecx, edi
  0037d	6a 00		 push	 0
  0037f	ff 50 14	 call	 DWORD PTR [eax+20]

; 511  : 		bDesc = s.GetNumber();

  00382	6a 00		 push	 0
  00384	8b cf		 mov	 ecx, edi
  00386	e8 00 00 00 00	 call	 ?GetNumber@CScanner@@QAEHH@Z ; CScanner::GetNumber

; 512  : 		if( bDesc )

  0038b	85 c0		 test	 eax, eax
  0038d	74 4c		 je	 SHORT $LN11@ReadRegion

; 513  : 		{
; 514  : 			pRe->m_cDescSize = 1;
; 515  : 			s.GetToken(); // {

  0038f	8b 07		 mov	 eax, DWORD PTR [edi]
  00391	8b cf		 mov	 ecx, edi
  00393	6a 00		 push	 0
  00395	c6 85 bd fd ff
	ff 01		 mov	 BYTE PTR _re$[ebp+181], 1
  0039c	ff 50 14	 call	 DWORD PTR [eax+20]

; 516  : 			s.GetToken();

  0039f	8b 07		 mov	 eax, DWORD PTR [edi]
  003a1	8b cf		 mov	 ecx, edi
  003a3	6a 00		 push	 0
  003a5	ff 50 14	 call	 DWORD PTR [eax+20]

; 517  : 
; 518  : 			s.Token.Replace( "\\n", "\r\n" );

  003a8	68 00 00 00 00	 push	 OFFSET ??_C@_02PCIJFNDE@?$AN?6@
  003ad	68 00 00 00 00	 push	 OFFSET ??_C@_02JOGGLHBA@?2n@
  003b2	8d 4f 20	 lea	 ecx, DWORD PTR [edi+32]
  003b5	e8 00 00 00 00	 call	 ?Replace@?$CStringT@DV?$StrTraitMFC@DV?$ChTraitsCRT@D@ATL@@@@@ATL@@QAEHPBD0@Z ; ATL::CStringT<char,StrTraitMFC<char,ATL::ChTraitsCRT<char> > >::Replace
; File C:\Program Files\Microsoft Visual Studio\2022\Professional\VC\Tools\MSVC\14.44.35207\atlmfc\include\atlsimpstr.h

; 381  : 		return( m_pszData );

  003ba	8b 4f 20	 mov	 ecx, DWORD PTR [edi+32]
; File C:\IAGOS\server\v18\Source\Source\_Common\worldfile.cpp

; 519  : 			strcpy( pRe->m_szDesc, s.Token );

  003bd	8d 95 be fd ff
	ff		 lea	 edx, DWORD PTR _re$[ebp+182]
  003c3	2b d1		 sub	 edx, ecx
$LL23@ReadRegion:
  003c5	8a 01		 mov	 al, BYTE PTR [ecx]
  003c7	8d 49 01	 lea	 ecx, DWORD PTR [ecx+1]
  003ca	88 44 11 ff	 mov	 BYTE PTR [ecx+edx-1], al
  003ce	84 c0		 test	 al, al
  003d0	75 f3		 jne	 SHORT $LL23@ReadRegion
$LN108@ReadRegion:

; 520  : 
; 521  : 			s.GetToken(); // }
; 522  : 		}
; 523  : 	}
; 524  : 
; 525  : 	
; 526  : 	if( ::GetLanguage() == LANG_KOR )	//__JAPAN_PVP

  003d2	8b 07		 mov	 eax, DWORD PTR [edi]
  003d4	8b cf		 mov	 ecx, edi
  003d6	6a 00		 push	 0
  003d8	ff 50 14	 call	 DWORD PTR [eax+20]
$LN11@ReadRegion:
  003db	e8 00 00 00 00	 call	 ?GetLanguage@@YAHXZ	; GetLanguage
  003e0	85 c0		 test	 eax, eax
  003e2	75 07		 jne	 SHORT $LN12@ReadRegion

; 527  : 		pRe->m_dwAttribute &= ~RA_FIGHT;

  003e4	83 a5 a8 fd ff
	ff bf		 and	 DWORD PTR _re$[ebp+160], -65 ; ffffffbfH
$LN12@ReadRegion:

; 528  : 
; 529  : #if __VER <= 8
; 530  : 	// 8Â÷ ąöŔü ŔĚÇĎżˇĽ­´Â RA_PK¸¦ RA_PENALTY_PK·Î şŻ°ć
; 531  : 	if( pRe->m_dwAttribute & RA_PK )
; 532  : 	{
; 533  : 		pRe->m_dwAttribute	&= ~RA_PK;
; 534  : 		pRe->m_dwAttribute	|= RA_PENALTY_PK;
; 535  : 	}
; 536  : #endif	// __VER
; 537  : 
; 538  : 	switch( dwIndex )

  003eb	83 ee 0c	 sub	 esi, 12			; 0000000cH
  003ee	74 5f		 je	 SHORT $LN91@ReadRegion
  003f0	83 ee 01	 sub	 esi, 1
  003f3	74 5a		 je	 SHORT $LN91@ReadRegion
  003f5	83 ee 01	 sub	 esi, 1
  003f8	8d b5 08 fd ff
	ff		 lea	 esi, DWORD PTR _re$[ebp]
  003fe	74 25		 je	 SHORT $LN15@ReadRegion
; File C:\IAGOS\server\v18\Source\Source\_Common\Region.h

; 84   : 	memcpy( &m_aRegionElem[m_cbRegionElem++], lpRegionElem, sizeof(REGIONELEM) );

  00400	8b 85 04 fd ff
	ff		 mov	 eax, DWORD PTR _this$GSCopy$1$[ebp]
  00406	8b 90 28 93 08
	00		 mov	 edx, DWORD PTR [eax+561960]
  0040c	8d b8 2c 93 08
	00		 lea	 edi, DWORD PTR [eax+561964]
  00412	8d 4a 01	 lea	 ecx, DWORD PTR [edx+1]
  00415	89 88 28 93 08
	00		 mov	 DWORD PTR [eax+561960], ecx
  0041b	69 ca f4 02 00
	00		 imul	 ecx, edx, 756
  00421	03 f9		 add	 edi, ecx
  00423	eb 23		 jmp	 SHORT $LN109@ReadRegion
$LN15@ReadRegion:
  00425	8b 95 04 fd ff
	ff		 mov	 edx, DWORD PTR _this$GSCopy$1$[ebp]
  0042b	8b 8a 2c 87 0b
	00		 mov	 ecx, DWORD PTR [edx+755500]
  00431	8d ba 30 87 0b
	00		 lea	 edi, DWORD PTR [edx+755504]
  00437	8d 41 01	 lea	 eax, DWORD PTR [ecx+1]
  0043a	89 82 2c 87 0b
	00		 mov	 DWORD PTR [edx+755500], eax
  00440	69 c1 f4 02 00
	00		 imul	 eax, ecx, 756
  00446	03 f8		 add	 edi, eax
$LN109@ReadRegion:
; File C:\IAGOS\server\v18\Source\Source\_Common\worldfile.cpp

; 553  : }

  00448	b9 bd 00 00 00	 mov	 ecx, 189		; 000000bdH
  0044d	f3 a5		 rep movsd
$LN91@ReadRegion:
  0044f	8b 4d fc	 mov	 ecx, DWORD PTR __$ArrayPad$[ebp]
  00452	b8 01 00 00 00	 mov	 eax, 1
  00457	5f		 pop	 edi
  00458	5e		 pop	 esi
  00459	33 cd		 xor	 ecx, ebp
  0045b	5b		 pop	 ebx
  0045c	e8 00 00 00 00	 call	 @__security_check_cookie@4
  00461	8b e5		 mov	 esp, ebp
  00463	5d		 pop	 ebp
  00464	c2 04 00	 ret	 4
?ReadRegion@CWorld@@QAEHAAVCScript@@@Z ENDP		; CWorld::ReadRegion
_TEXT	ENDS
; Function compile flags: /Ogtp
; File C:\IAGOS\server\v18\Source\Source\_Common\worldfile.cpp
;	COMDAT ?DestroyObj@CWorld@@QAEXH@Z
_TEXT	SEGMENT
_nLayer$ = 8						; size = 4
?DestroyObj@CWorld@@QAEXH@Z PROC			; CWorld::DestroyObj, COMDAT
; _this$ = ecx

; 1315 : {

  00000	55		 push	 ebp
  00001	8b ec		 mov	 ebp, esp
  00003	53		 push	 ebx
  00004	8b d9		 mov	 ebx, ecx
  00006	56		 push	 esi

; 1316 : 	for( DWORD i = 0; i < m_dwObjNum; i++ )

  00007	33 f6		 xor	 esi, esi
  00009	39 73 40	 cmp	 DWORD PTR [ebx+64], esi
  0000c	76 27		 jbe	 SHORT $LN3@DestroyObj
  0000e	57		 push	 edi
  0000f	8d 7b 44	 lea	 edi, DWORD PTR [ebx+68]
$LL4@DestroyObj:

; 1317 : 	{
; 1318 : 		CObj* pObj	= m_apObject[i];

  00012	8b 07		 mov	 eax, DWORD PTR [edi]

; 1319 : 		if( pObj && pObj->GetLayer() == nLayer )

  00014	85 c0		 test	 eax, eax
  00016	74 13		 je	 SHORT $LN2@DestroyObj
  00018	8b 4d 08	 mov	 ecx, DWORD PTR _nLayer$[ebp]
  0001b	39 88 b8 01 00
	00		 cmp	 DWORD PTR [eax+440], ecx
  00021	75 08		 jne	 SHORT $LN2@DestroyObj

; 1320 : 			DestroyObj( pObj );

  00023	50		 push	 eax
  00024	8b cb		 mov	 ecx, ebx
  00026	e8 00 00 00 00	 call	 ?DestroyObj@CWorld@@QAEXPAVCObj@@@Z ; CWorld::DestroyObj
$LN2@DestroyObj:

; 1316 : 	for( DWORD i = 0; i < m_dwObjNum; i++ )

  0002b	46		 inc	 esi
  0002c	83 c7 04	 add	 edi, 4
  0002f	3b 73 40	 cmp	 esi, DWORD PTR [ebx+64]
  00032	72 de		 jb	 SHORT $LL4@DestroyObj
  00034	5f		 pop	 edi
$LN3@DestroyObj:
  00035	5e		 pop	 esi

; 1321 : 	}
; 1322 : }

  00036	5b		 pop	 ebx
  00037	5d		 pop	 ebp
  00038	c2 04 00	 ret	 4
?DestroyObj@CWorld@@QAEXH@Z ENDP			; CWorld::DestroyObj
_TEXT	ENDS
; Function compile flags: /Ogtp
; File C:\IAGOS\server\v18\Source\Source\_Common\worldfile.cpp
;	COMDAT ?ReleaseLayer@CWorld@@QAEHH@Z
_TEXT	SEGMENT
_nLayer$ = 8						; size = 4
?ReleaseLayer@CWorld@@QAEHH@Z PROC			; CWorld::ReleaseLayer, COMDAT
; _this$ = ecx

; 1307 : {

  00000	55		 push	 ebp
  00001	8b ec		 mov	 ebp, esp
  00003	56		 push	 esi

; 1308 : 	DestroyObj( nLayer );

  00004	8b 75 08	 mov	 esi, DWORD PTR _nLayer$[ebp]
  00007	57		 push	 edi
  00008	56		 push	 esi
  00009	8b f9		 mov	 edi, ecx
  0000b	e8 00 00 00 00	 call	 ?DestroyObj@CWorld@@QAEXH@Z ; CWorld::DestroyObj

; 1309 : 	m_linkMap.DeleteLinkMap( nLayer );

  00010	56		 push	 esi
  00011	8d 4f 24	 lea	 ecx, DWORD PTR [edi+36]
  00014	e8 00 00 00 00	 call	 ?DeleteLinkMap@CLayeredLinkMap@@QAEXH@Z ; CLayeredLinkMap::DeleteLinkMap

; 1310 : 	m_respawner.Release( nLayer );

  00019	56		 push	 esi
  0001a	8d 8f b8 30 08
	00		 lea	 ecx, DWORD PTR [edi+536760]
  00020	e8 00 00 00 00	 call	 ?Release@CLayerdRespawner@@QAEXH@Z ; CLayerdRespawner::Release

; 1311 : 	return TRUE;

  00025	5f		 pop	 edi
  00026	b8 01 00 00 00	 mov	 eax, 1
  0002b	5e		 pop	 esi

; 1312 : }

  0002c	5d		 pop	 ebp
  0002d	c2 04 00	 ret	 4
?ReleaseLayer@CWorld@@QAEHH@Z ENDP			; CWorld::ReleaseLayer
_TEXT	ENDS
; Function compile flags: /Ogtp
; File C:\IAGOS\server\v18\Source\Source\_Common\worldfile.cpp
;	COMDAT ?CreateLayer@CWorld@@QAEHH@Z
_TEXT	SEGMENT
_nLayer$ = 8						; size = 4
?CreateLayer@CWorld@@QAEHH@Z PROC			; CWorld::CreateLayer, COMDAT
; _this$ = ecx

; 1200 : {

  00000	55		 push	 ebp
  00001	8b ec		 mov	 ebp, esp
  00003	53		 push	 ebx
  00004	56		 push	 esi

; 1201 : //	ASSERT( IsExpandable() );
; 1202 : //	if( !IsExpandable() )
; 1203 : //		return FALSE;
; 1204 : 	ASSERT( nLayer != 0 );
; 1205 : 	if( nLayer == 0 )

  00005	8b 75 08	 mov	 esi, DWORD PTR _nLayer$[ebp]
  00008	57		 push	 edi
  00009	8b f9		 mov	 edi, ecx
  0000b	85 f6		 test	 esi, esi
  0000d	74 22		 je	 SHORT $LN6@CreateLaye

; 1206 : 		return FALSE;
; 1207 : 	if( !m_linkMap.CreateLinkMap( nLayer ) )

  0000f	56		 push	 esi
  00010	8d 4f 24	 lea	 ecx, DWORD PTR [edi+36]
  00013	e8 00 00 00 00	 call	 ?CreateLinkMap@CLayeredLinkMap@@QAEHH@Z ; CLayeredLinkMap::CreateLinkMap
  00018	85 c0		 test	 eax, eax
  0001a	74 15		 je	 SHORT $LN6@CreateLaye

; 1208 : 		return FALSE;
; 1209 : 	if( !LoadObject( nLayer ) )

  0001c	56		 push	 esi
  0001d	8b cf		 mov	 ecx, edi
  0001f	e8 00 00 00 00	 call	 ?LoadObject@CWorld@@QAEHH@Z ; CWorld::LoadObject
  00024	56		 push	 esi
  00025	85 c0		 test	 eax, eax
  00027	75 11		 jne	 SHORT $LN4@CreateLaye

; 1210 : 	{
; 1211 : 		m_linkMap.DeleteLinkMap( nLayer );

  00029	8d 4f 24	 lea	 ecx, DWORD PTR [edi+36]
  0002c	e8 00 00 00 00	 call	 ?DeleteLinkMap@CLayeredLinkMap@@QAEXH@Z ; CLayeredLinkMap::DeleteLinkMap
$LN6@CreateLaye:

; 1215 : 	return TRUE;
; 1216 : }

  00031	5f		 pop	 edi
  00032	5e		 pop	 esi
  00033	33 c0		 xor	 eax, eax
  00035	5b		 pop	 ebx
  00036	5d		 pop	 ebp
  00037	c2 04 00	 ret	 4
$LN4@CreateLaye:

; 1212 : 		return FALSE;
; 1213 : 	}
; 1214 : 	m_respawner.Expand( nLayer );

  0003a	8d 8f b8 30 08
	00		 lea	 ecx, DWORD PTR [edi+536760]
  00040	e8 00 00 00 00	 call	 ?Expand@CLayerdRespawner@@QAEXH@Z ; CLayerdRespawner::Expand
  00045	5f		 pop	 edi

; 1215 : 	return TRUE;
; 1216 : }

  00046	5e		 pop	 esi
  00047	b8 01 00 00 00	 mov	 eax, 1
  0004c	5b		 pop	 ebx
  0004d	5d		 pop	 ebp
  0004e	c2 04 00	 ret	 4
?CreateLayer@CWorld@@QAEHH@Z ENDP			; CWorld::CreateLayer
_TEXT	ENDS
; Function compile flags: /Ogtp
; File C:\IAGOS\server\v18\Source\Source\_Common\worldfile.cpp
; File C:\Program Files\Microsoft Visual Studio\2022\Professional\VC\Tools\MSVC\14.44.35207\atlmfc\include\afxstr.h
; File C:\Program Files\Microsoft Visual Studio\2022\Professional\VC\Tools\MSVC\14.44.35207\atlmfc\include\atlsimpstr.h
; File C:\Program Files\Microsoft Visual Studio\2022\Professional\VC\Tools\MSVC\14.44.35207\atlmfc\include\cstringt.h
; File C:\Program Files\Microsoft Visual Studio\2022\Professional\VC\Tools\MSVC\14.44.35207\atlmfc\include\atlsimpstr.h
; File C:\IAGOS\server\v18\Source\Source\_Common\worldfile.cpp
; File C:\Program Files\Microsoft Visual Studio\2022\Professional\VC\Tools\MSVC\14.44.35207\atlmfc\include\afxstr.h
; File C:\Program Files\Microsoft Visual Studio\2022\Professional\VC\Tools\MSVC\14.44.35207\atlmfc\include\atlsimpstr.h
; File C:\IAGOS\server\v18\Source\Source\_Common\worldfile.cpp
; File C:\IAGOS\server\v18\Source\Source\_Common\File.h
; File C:\IAGOS\server\v18\Source\Source\_Common\worldfile.cpp
; File C:\IAGOS\server\v18\Source\Source\_Common\Obj.h
; File C:\IAGOS\server\v18\Source\Source\_Common\worldfile.cpp
; File C:\IAGOS\server\v18\Source\Source\_Common\Obj.h
; File C:\IAGOS\server\v18\Source\Source\_Common\worldfile.cpp
; File C:\IAGOS\server\v18\Source\Source\_Common\File.h
; File C:\Program Files\Microsoft Visual Studio\2022\Professional\VC\Tools\MSVC\14.44.35207\atlmfc\include\atlsimpstr.h
; File C:\IAGOS\server\v18\Source\Source\_Common\worldfile.cpp
; File C:\Program Files\Microsoft Visual Studio\2022\Professional\VC\Tools\MSVC\14.44.35207\atlmfc\include\atlsimpstr.h
; File C:\IAGOS\server\v18\Source\Source\_Common\worldfile.cpp
; File C:\Program Files\Microsoft Visual Studio\2022\Professional\VC\Tools\MSVC\14.44.35207\atlmfc\include\atlsimpstr.h
; File C:\IAGOS\server\v18\Source\Source\_Common\worldfile.cpp
; File C:\Program Files\Microsoft Visual Studio\2022\Professional\VC\Tools\MSVC\14.44.35207\atlmfc\include\atlsimpstr.h
; File C:\IAGOS\server\v18\Source\Source\_Common\worldfile.cpp
;	COMDAT ?LoadObject@CWorld@@QAEHH@Z
_TEXT	SEGMENT
_this$GSCopy$1$ = -48					; size = 4
_strLandTemp$ = -44					; size = 4
_file$ = -40						; size = 8
_strLandName$ = -32					; size = 4
_vPos$2 = -28						; size = 12
__$ArrayPad$ = -16					; size = 4
__$EHRec$ = -12						; size = 12
_nLayer$ = 8						; size = 4
?LoadObject@CWorld@@QAEHH@Z PROC			; CWorld::LoadObject, COMDAT
; _this$ = ecx

; 301  : {

  00000	55		 push	 ebp
  00001	8b ec		 mov	 ebp, esp
  00003	6a ff		 push	 -1
  00005	68 00 00 00 00	 push	 __ehhandler$?LoadObject@CWorld@@QAEHH@Z
  0000a	64 a1 00 00 00
	00		 mov	 eax, DWORD PTR fs:0
  00010	50		 push	 eax
  00011	83 ec 24	 sub	 esp, 36			; 00000024H
  00014	a1 00 00 00 00	 mov	 eax, DWORD PTR ___security_cookie
  00019	33 c5		 xor	 eax, ebp
  0001b	89 45 f0	 mov	 DWORD PTR __$ArrayPad$[ebp], eax
  0001e	53		 push	 ebx
  0001f	56		 push	 esi
  00020	57		 push	 edi
  00021	50		 push	 eax
  00022	8d 45 f4	 lea	 eax, DWORD PTR __$EHRec$[ebp]
  00025	64 a3 00 00 00
	00		 mov	 DWORD PTR fs:0, eax
  0002b	8b d9		 mov	 ebx, ecx
  0002d	89 5d d0	 mov	 DWORD PTR _this$GSCopy$1$[ebp], ebx

; 302  : 	CString strLandName = m_szFileName;

  00030	8d b3 20 92 08
	00		 lea	 esi, DWORD PTR [ebx+561696]
; File C:\Program Files\Microsoft Visual Studio\2022\Professional\VC\Tools\MSVC\14.44.35207\atlmfc\include\afxstr.h

; 56   : 		return( AfxGetStringManager() );

  00036	e8 00 00 00 00	 call	 ?AfxGetStringManager@@YGPAUIAtlStringMgr@ATL@@XZ ; AfxGetStringManager
  0003b	8b c8		 mov	 ecx, eax
; File C:\Program Files\Microsoft Visual Studio\2022\Professional\VC\Tools\MSVC\14.44.35207\atlmfc\include\atlsimpstr.h

; 209  : 		ATLENSURE( pStringMgr != NULL );

  0003d	85 c9		 test	 ecx, ecx
  0003f	0f 84 2e 02 00
	00		 je	 $LN111@LoadObject

; 210  : 		CStringData* pData = pStringMgr->GetNilString();

  00045	8b 01		 mov	 eax, DWORD PTR [ecx]
  00047	ff 50 0c	 call	 DWORD PTR [eax+12]

; 211  : 		Attach( pData );

  0004a	83 c0 10	 add	 eax, 16			; 00000010H
  0004d	89 45 e0	 mov	 DWORD PTR _strLandName$[ebp], eax
; File C:\Program Files\Microsoft Visual Studio\2022\Professional\VC\Tools\MSVC\14.44.35207\atlmfc\include\cstringt.h

; 1052 : 		CThisSimpleString( StringTraits::GetDefaultManager() )

  00050	c7 45 fc 00 00
	00 00		 mov	 DWORD PTR __$EHRec$[ebp+8], 0

; 2712 : 		if( (pv != NULL) && IS_INTRESOURCE( pv ) )

  00057	85 f6		 test	 esi, esi
  00059	74 26		 je	 SHORT $LN106@LoadObject
  0005b	f7 c6 00 00 ff
	ff		 test	 esi, -65536		; ffff0000H
  00061	75 0e		 jne	 SHORT $LN46@LoadObject

; 2713 : 		{
; 2714 : 			UINT nID = LOWORD( reinterpret_cast< DWORD_PTR >( pv ) );

  00063	0f b7 c6	 movzx	 eax, si

; 2715 : 			(nID);
; 2716 : #ifdef _ATL_USE_WINAPI_FAMILY_DESKTOP_APP
; 2717 : 			if( !LoadString( nID ) )

  00066	8d 4d e0	 lea	 ecx, DWORD PTR _strLandName$[ebp]
  00069	50		 push	 eax
  0006a	e8 00 00 00 00	 call	 ?LoadStringA@?$CStringT@DV?$StrTraitMFC@DV?$ChTraitsCRT@D@ATL@@@@@ATL@@QAEHI@Z ; ATL::CStringT<char,StrTraitMFC<char,ATL::ChTraitsCRT<char> > >::LoadStringA

; 1054 : 		if( !CheckImplicitLoad( pszSrc ) )

  0006f	eb 1c		 jmp	 SHORT $LN20@LoadObject
$LN46@LoadObject:
; File C:\Program Files\Microsoft Visual Studio\2022\Professional\VC\Tools\MSVC\14.44.35207\atlmfc\include\atlsimpstr.h

; 730  : 		return( int( strlen( psz ) ) );

  00071	8b ce		 mov	 ecx, esi
  00073	8d 51 01	 lea	 edx, DWORD PTR [ecx+1]
$LL107@LoadObject:
  00076	8a 01		 mov	 al, BYTE PTR [ecx]
  00078	41		 inc	 ecx
  00079	84 c0		 test	 al, al
  0007b	75 f9		 jne	 SHORT $LL107@LoadObject
  0007d	2b ca		 sub	 ecx, edx
  0007f	eb 02		 jmp	 SHORT $LN45@LoadObject
$LN106@LoadObject:

; 607  : 	}
; 608  : 	void SetString(
; 609  : 		_In_reads_opt_(nLength) PCXSTR pszSrc,
; 610  : 		_In_ int nLength)
; 611  : 	{
; 612  : 		if( nLength == 0 )
; 613  : 		{
; 614  : 			Empty();
; 615  : 		}
; 616  : 		else
; 617  : 		{
; 618  : 			// It is possible that pszSrc points to a location inside of our
; 619  : 			// buffer.  GetBuffer() might change m_pszData if (1) the buffer
; 620  : 			// is shared or (2) the buffer is too small to hold the new
; 621  : 			// string.  We detect this aliasing, and modify pszSrc to point
; 622  : 			// into the newly allocated buffer instead.
; 623  : 
; 624  : 			if(pszSrc == NULL)
; 625  : 				AtlThrow(E_INVALIDARG);
; 626  : 
; 627  : 			UINT nOldLength = GetLength();
; 628  : 			UINT_PTR nOffset = pszSrc-GetString();
; 629  : 			// If 0 <= nOffset <= nOldLength, then pszSrc points into our
; 630  : 			// buffer
; 631  : 
; 632  : 			PXSTR pszBuffer = GetBuffer( nLength );
; 633  : 			if( nOffset <= nOldLength )
; 634  : 			{
; 635  : 				CopyCharsOverlapped( pszBuffer, GetAllocLength(),
; 636  : 					pszBuffer+nOffset, nLength );
; 637  : 			}
; 638  : 			else
; 639  : 			{
; 640  : 				memcpy_s( pszBuffer, GetAllocLength() * sizeof( XCHAR ), pszSrc, nLength * sizeof( XCHAR ));
; 641  : 			}
; 642  : 			ReleaseBufferSetLength( nLength );
; 643  : 		}
; 644  : 	}
; 645  : 
; 646  : public:
; 647  : 	friend CSimpleStringT operator+(
; 648  : 		_In_ const CSimpleStringT& str1,
; 649  : 		_In_ const CSimpleStringT& str2)
; 650  : 	{
; 651  : 		CSimpleStringT s( str1.GetManager() );
; 652  : 
; 653  : 		Concatenate( s, str1, str1.GetLength(), str2, str2.GetLength() );
; 654  : 
; 655  : 		return( s );
; 656  : 	}
; 657  : 
; 658  : 	friend CSimpleStringT operator+(
; 659  : 		_In_ const CSimpleStringT& str1,
; 660  : 		_In_z_ PCXSTR psz2)
; 661  : 	{
; 662  : 		CSimpleStringT s( str1.GetManager() );
; 663  : 
; 664  : 		Concatenate( s, str1, str1.GetLength(), psz2, StringLength( psz2 ) );
; 665  : 
; 666  : 		return( s );
; 667  : 	}
; 668  : 
; 669  : 	friend CSimpleStringT operator+(
; 670  : 		_In_z_ PCXSTR psz1,
; 671  : 		_In_ const CSimpleStringT& str2)
; 672  : 	{
; 673  : 		CSimpleStringT s( str2.GetManager() );
; 674  : 
; 675  : 		Concatenate( s, psz1, StringLength( psz1 ), str2, str2.GetLength() );
; 676  : 
; 677  : 		return( s );
; 678  : 	}
; 679  : 
; 680  : 	_ATL_INSECURE_DEPRECATE("CSimpleStringT::CopyChars must be passed a buffer size")
; 681  : 	static void __cdecl CopyChars(
; 682  : 		_Out_writes_(nChars) XCHAR* pchDest,
; 683  : 		_In_reads_opt_(nChars) const XCHAR* pchSrc,
; 684  : 		_In_ int nChars) throw()
; 685  : 	{
; 686  : 		if (pchSrc != NULL)
; 687  : 		{
; 688  : 			#pragma warning (push)
; 689  : 			#pragma warning(disable : 4996)
; 690  : 			memcpy( pchDest, pchSrc, nChars*sizeof( XCHAR ) );
; 691  : 			#pragma warning (pop)
; 692  : 		}
; 693  : 	}
; 694  : 	static void __cdecl CopyChars(
; 695  : 		_Out_writes_to_(nDestLen,nChars) XCHAR* pchDest,
; 696  : 		_In_ size_t nDestLen,
; 697  : 		_In_reads_opt_(nChars) const XCHAR* pchSrc,
; 698  : 		_In_ int nChars) throw()
; 699  : 	{
; 700  : 		memcpy_s( pchDest, nDestLen*sizeof( XCHAR ),
; 701  : 			pchSrc, nChars*sizeof( XCHAR ) );
; 702  : 	}
; 703  : 
; 704  : 	_ATL_INSECURE_DEPRECATE("CSimpleStringT::CopyCharsOverlapped must be passed a buffer size")
; 705  : 	static void __cdecl CopyCharsOverlapped(
; 706  : 		_Out_writes_(nChars) XCHAR* pchDest,
; 707  : 		_In_reads_(nChars) const XCHAR* pchSrc,
; 708  : 		_In_ int nChars) throw()
; 709  : 	{
; 710  : 		#pragma warning (push)
; 711  : 		#pragma warning(disable : 4996)
; 712  : 		memmove( pchDest, pchSrc, nChars*sizeof( XCHAR ) );
; 713  : 		#pragma warning (pop)
; 714  : 	}
; 715  : 	static void __cdecl CopyCharsOverlapped(
; 716  : 		_Out_writes_to_(nDestLen, nDestLen) XCHAR* pchDest,
; 717  : 		_In_ size_t nDestLen,
; 718  : 		_In_reads_(nChars) const XCHAR* pchSrc,
; 719  : 		_In_ int nChars) throw()
; 720  : 	{
; 721  : 		memmove_s( pchDest, nDestLen*sizeof( XCHAR ),
; 722  : 			pchSrc, nChars*sizeof( XCHAR ) );
; 723  : 	}
; 724  : 	static int __cdecl StringLength(_In_opt_z_ const char* psz) throw()
; 725  : 	{
; 726  : 		if( psz == NULL )
; 727  : 		{
; 728  : 			return( 0 );

  00081	33 c9		 xor	 ecx, ecx
$LN45@LoadObject:

; 606  : 		SetString( pszSrc, StringLength( pszSrc ) );

  00083	51		 push	 ecx
  00084	56		 push	 esi
  00085	8d 4d e0	 lea	 ecx, DWORD PTR _strLandName$[ebp]
  00088	e8 00 00 00 00	 call	 ?SetString@?$CSimpleStringT@D$0A@@ATL@@QAEXPBDH@Z ; ATL::CSimpleStringT<char,0>::SetString
$LN20@LoadObject:
; File C:\IAGOS\server\v18\Source\Source\_Common\worldfile.cpp

; 302  : 	CString strLandName = m_szFileName;

  0008d	c7 45 fc 01 00
	00 00		 mov	 DWORD PTR __$EHRec$[ebp+8], 1
; File C:\Program Files\Microsoft Visual Studio\2022\Professional\VC\Tools\MSVC\14.44.35207\atlmfc\include\afxstr.h

; 56   : 		return( AfxGetStringManager() );

  00094	e8 00 00 00 00	 call	 ?AfxGetStringManager@@YGPAUIAtlStringMgr@ATL@@XZ ; AfxGetStringManager
  00099	8b c8		 mov	 ecx, eax
; File C:\Program Files\Microsoft Visual Studio\2022\Professional\VC\Tools\MSVC\14.44.35207\atlmfc\include\atlsimpstr.h

; 209  : 		ATLENSURE( pStringMgr != NULL );

  0009b	85 c9		 test	 ecx, ecx
  0009d	0f 84 da 01 00
	00		 je	 $LN112@LoadObject

; 210  : 		CStringData* pData = pStringMgr->GetNilString();

  000a3	8b 01		 mov	 eax, DWORD PTR [ecx]
  000a5	ff 50 0c	 call	 DWORD PTR [eax+12]

; 211  : 		Attach( pData );

  000a8	83 c0 10	 add	 eax, 16			; 00000010H
  000ab	89 45 d4	 mov	 DWORD PTR _strLandTemp$[ebp], eax
; File C:\IAGOS\server\v18\Source\Source\_Common\worldfile.cpp

; 304  : 	strLandName.Delete( strLandName.GetLength() - 4, 4 );

  000ae	8b 45 e0	 mov	 eax, DWORD PTR _strLandName$[ebp]
  000b1	8d 4d e0	 lea	 ecx, DWORD PTR _strLandName$[ebp]
  000b4	6a 04		 push	 4
  000b6	c6 45 fc 02	 mov	 BYTE PTR __$EHRec$[ebp+8], 2
  000ba	8b 40 f4	 mov	 eax, DWORD PTR [eax-12]
  000bd	83 e8 04	 sub	 eax, 4
  000c0	50		 push	 eax
  000c1	e8 00 00 00 00	 call	 ?Delete@?$CStringT@DV?$StrTraitMFC@DV?$ChTraitsCRT@D@ATL@@@@@ATL@@QAEHHH@Z ; ATL::CStringT<char,StrTraitMFC<char,ATL::ChTraitsCRT<char> > >::Delete

; 305  : 	strLandTemp.Format( "%s%s.dyo", m_szFilePath, strLandName );

  000c6	8b 75 e0	 mov	 esi, DWORD PTR _strLandName$[ebp]
  000c9	8d 83 1c 91 08
	00		 lea	 eax, DWORD PTR [ebx+561436]
  000cf	56		 push	 esi
  000d0	50		 push	 eax
  000d1	8d 45 d4	 lea	 eax, DWORD PTR _strLandTemp$[ebp]
  000d4	68 00 00 00 00	 push	 OFFSET ??_C@_08JAIMAGBM@?$CFs?$CFs?4dyo@
  000d9	50		 push	 eax
  000da	e8 00 00 00 00	 call	 ?Format@?$CStringT@DV?$StrTraitMFC@DV?$ChTraitsCRT@D@ATL@@@@@ATL@@QAAXPBDZZ ; ATL::CStringT<char,StrTraitMFC<char,ATL::ChTraitsCRT<char> > >::Format
  000df	83 c4 10	 add	 esp, 16			; 00000010H
; File C:\IAGOS\server\v18\Source\Source\_Common\File.h

; 15   : 	CFileIO() { fp = NULL; } 

  000e2	c7 45 d8 00 00
	00 00		 mov	 DWORD PTR _file$[ebp], OFFSET ??_7CFileIO@@6B@
  000e9	c7 45 dc 00 00
	00 00		 mov	 DWORD PTR _file$[ebp+4], 0
; File C:\IAGOS\server\v18\Source\Source\_Common\worldfile.cpp

; 308  : 	if( file.Open( strLandTemp,"rb" ) == FALSE )

  000f0	8b 7d d4	 mov	 edi, DWORD PTR _strLandTemp$[ebp]
  000f3	8d 4d d8	 lea	 ecx, DWORD PTR _file$[ebp]
  000f6	68 00 00 00 00	 push	 OFFSET ??_C@_02JDPG@rb@
  000fb	57		 push	 edi
  000fc	c6 45 fc 03	 mov	 BYTE PTR __$EHRec$[ebp+8], 3
  00100	e8 00 00 00 00	 call	 ?Open@CFileIO@@UAEHPBDPAD@Z ; CFileIO::Open
  00105	85 c0		 test	 eax, eax
  00107	75 07		 jne	 SHORT $LN101@LoadObject
  00109	33 db		 xor	 ebx, ebx
  0010b	e9 f6 00 00 00	 jmp	 $LN16@LoadObject
$LN101@LoadObject:

; 309  : 		return FALSE;
; 310  : 
; 311  : 	while( 1 )
; 312  : 	{
; 313  : 		CObj* pObj = ::ReadObj( &file );

  00110	8d 45 d8	 lea	 eax, DWORD PTR _file$[ebp]
  00113	50		 push	 eax
  00114	e8 00 00 00 00	 call	 ?ReadObj@@YAPAVCObj@@PAVCFileIO@@@Z ; ReadObj
  00119	8b d8		 mov	 ebx, eax
  0011b	83 c4 04	 add	 esp, 4

; 314  : 		if( pObj == NULL )

  0011e	85 db		 test	 ebx, ebx
  00120	0f 84 db 00 00
	00		 je	 $LN102@LoadObject
  00126	8b 75 d0	 mov	 esi, DWORD PTR _this$GSCopy$1$[ebp]
  00129	0f 1f 80 00 00
	00 00		 npad	 7
$LL2@LoadObject:
; File C:\IAGOS\server\v18\Source\Source\_Common\Obj.h

; 215  : 	D3DXVECTOR3		GetPos()	{ return m_vPos; }

  00130	f3 0f 7e 83 60
	01 00 00	 movq	 xmm0, QWORD PTR [ebx+352]
; File C:\IAGOS\server\v18\Source\Source\_Common\worldfile.cpp

; 318  : 		pObj->SetPos( vPos );

  00138	8b cb		 mov	 ecx, ebx
; File C:\IAGOS\server\v18\Source\Source\_Common\Obj.h

; 215  : 	D3DXVECTOR3		GetPos()	{ return m_vPos; }

  0013a	66 0f d6 45 e4	 movq	 QWORD PTR _vPos$2[ebp], xmm0
  0013f	8b 83 68 01 00
	00		 mov	 eax, DWORD PTR [ebx+360]
  00145	89 45 ec	 mov	 DWORD PTR _vPos$2[ebp+8], eax
; File C:\IAGOS\server\v18\Source\Source\_Common\worldfile.cpp

; 318  : 		pObj->SetPos( vPos );

  00148	8d 45 e4	 lea	 eax, DWORD PTR _vPos$2[ebp]
  0014b	50		 push	 eax
  0014c	e8 00 00 00 00	 call	 ?SetPos@CObj@@QAEXABUD3DXVECTOR3@@@Z ; CObj::SetPos

; 319  : 		pObj->SetIndex( NULL, pObj->m_dwIndex );

  00151	8b 03		 mov	 eax, DWORD PTR [ebx]
  00153	8b cb		 mov	 ecx, ebx
  00155	6a 00		 push	 0
  00157	ff b3 74 01 00
	00		 push	 DWORD PTR [ebx+372]
  0015d	6a 00		 push	 0
  0015f	ff 50 2c	 call	 DWORD PTR [eax+44]

; 320  : 		if( pObj->GetType() == OT_MOVER )

  00162	83 bb 70 01 00
	00 05		 cmp	 DWORD PTR [ebx+368], 5
  00169	75 0d		 jne	 SHORT $LN6@LoadObject

; 321  : 			pObj->InitMotion( ((CMover *)pObj)->m_dwMotion );

  0016b	8b 03		 mov	 eax, DWORD PTR [ebx]
  0016d	8b cb		 mov	 ecx, ebx
  0016f	ff b3 d8 02 00
	00		 push	 DWORD PTR [ebx+728]
  00175	ff 50 08	 call	 DWORD PTR [eax+8]
$LN6@LoadObject:

; 322  : 		pObj->UpdateLocalMatrix();

  00178	8b cb		 mov	 ecx, ebx
  0017a	e8 00 00 00 00	 call	 ?UpdateLocalMatrix@CObj@@QAEXXZ ; CObj::UpdateLocalMatrix

; 323  : 		
; 324  : 		if( IsUsableDYO( pObj ) )

  0017f	53		 push	 ebx
  00180	8b ce		 mov	 ecx, esi
  00182	e8 00 00 00 00	 call	 ?IsUsableDYO@CWorld@@QAEHPAVCObj@@@Z ; CWorld::IsUsableDYO
  00187	85 c0		 test	 eax, eax
  00189	74 55		 je	 SHORT $LN7@LoadObject

; 325  : 		{
; 326  : 			ADDOBJ( pObj, TRUE, nLayer );

  0018b	ff 75 08	 push	 DWORD PTR _nLayer$[ebp]
  0018e	8b ce		 mov	 ecx, esi
  00190	6a 01		 push	 1
  00192	53		 push	 ebx
  00193	e8 00 00 00 00	 call	 ?AddObj@CWorld@@QAEHPAVCObj@@HH@Z ; CWorld::AddObj

; 327  : #if __VER >= 13 // __QUEST_HELPER
; 328  : 			if( pObj->GetType() == OT_MOVER && lstrlen( static_cast<CMover*>(pObj)->GetCharacter()->m_szKey ) )

  00198	83 bb 70 01 00
	00 05		 cmp	 DWORD PTR [ebx+368], 5
  0019f	75 47		 jne	 SHORT $LN11@LoadObject
  001a1	8b cb		 mov	 ecx, ebx
  001a3	e8 00 00 00 00	 call	 ?GetCharacter@CMover@@QAEPAUtagCHARACTER@@XZ ; CMover::GetCharacter
  001a8	50		 push	 eax
  001a9	ff 15 00 00 00
	00		 call	 DWORD PTR __imp__lstrlenA@4
  001af	85 c0		 test	 eax, eax
  001b1	74 35		 je	 SHORT $LN11@LoadObject

; 329  : 			{
; 330  : 				LPCHARACTER lpChar = static_cast<CMover*>(pObj)->GetCharacter();

  001b3	8b cb		 mov	 ecx, ebx
  001b5	e8 00 00 00 00	 call	 ?GetCharacter@CMover@@QAEPAUtagCHARACTER@@XZ ; CMover::GetCharacter

; 331  : 				lpChar->m_dwWorldId = GetID();

  001ba	8b 0e		 mov	 ecx, DWORD PTR [esi]
  001bc	89 88 04 07 00
	00		 mov	 DWORD PTR [eax+1796], ecx

; 332  : 				lpChar->m_vPos = pObj->GetPos();

  001c2	f3 0f 7e 83 60
	01 00 00	 movq	 xmm0, QWORD PTR [ebx+352]
  001ca	66 0f d6 80 08
	07 00 00	 movq	 QWORD PTR [eax+1800], xmm0
  001d2	8b 8b 68 01 00
	00		 mov	 ecx, DWORD PTR [ebx+360]
  001d8	89 88 10 07 00
	00		 mov	 DWORD PTR [eax+1808], ecx

; 339  : 			continue;
; 340  : 		}
; 341  : 	} 

  001de	eb 08		 jmp	 SHORT $LN11@LoadObject
$LN7@LoadObject:

; 333  : 			}
; 334  : #endif // __QUEST_HELPER
; 335  : 		}
; 336  : 		else
; 337  : 		{
; 338  : 			safe_delete( pObj );

  001e0	8b 03		 mov	 eax, DWORD PTR [ebx]
  001e2	8b cb		 mov	 ecx, ebx
  001e4	6a 01		 push	 1
  001e6	ff 10		 call	 DWORD PTR [eax]
$LN11@LoadObject:

; 309  : 		return FALSE;
; 310  : 
; 311  : 	while( 1 )
; 312  : 	{
; 313  : 		CObj* pObj = ::ReadObj( &file );

  001e8	8d 45 d8	 lea	 eax, DWORD PTR _file$[ebp]
  001eb	50		 push	 eax
  001ec	e8 00 00 00 00	 call	 ?ReadObj@@YAPAVCObj@@PAVCFileIO@@@Z ; ReadObj
  001f1	8b d8		 mov	 ebx, eax
  001f3	83 c4 04	 add	 esp, 4

; 314  : 		if( pObj == NULL )

  001f6	85 db		 test	 ebx, ebx
  001f8	0f 85 32 ff ff
	ff		 jne	 $LL2@LoadObject
  001fe	8b 75 e0	 mov	 esi, DWORD PTR _strLandName$[ebp]
$LN102@LoadObject:

; 380  : 	return TRUE;

  00201	bb 01 00 00 00	 mov	 ebx, 1
$LN16@LoadObject:
; File C:\IAGOS\server\v18\Source\Source\_Common\File.h

; 17   : 	virtual ~CFileIO() { Close(); }

  00206	8d 4d d8	 lea	 ecx, DWORD PTR _file$[ebp]
  00209	c6 45 fc 05	 mov	 BYTE PTR __$EHRec$[ebp+8], 5
  0020d	c7 45 d8 00 00
	00 00		 mov	 DWORD PTR _file$[ebp], OFFSET ??_7CFileIO@@6B@
  00214	e8 00 00 00 00	 call	 ?Close@CFileIO@@UAEHXZ	; CFileIO::Close
; File C:\Program Files\Microsoft Visual Studio\2022\Professional\VC\Tools\MSVC\14.44.35207\atlmfc\include\atlsimpstr.h

; 804  : 		return( reinterpret_cast< CStringData* >( m_pszData )-1 );

  00219	8d 57 f0	 lea	 edx, DWORD PTR [edi-16]
; File C:\IAGOS\server\v18\Source\Source\_Common\worldfile.cpp

; 380  : 	return TRUE;

  0021c	c6 45 fc 01	 mov	 BYTE PTR __$EHRec$[ebp+8], 1
; File C:\Program Files\Microsoft Visual Studio\2022\Professional\VC\Tools\MSVC\14.44.35207\atlmfc\include\atlsimpstr.h

; 92   : 		if( _InterlockedDecrement( &nRefs ) <= 0 )

  00220	83 cf ff	 or	 edi, -1
  00223	8b c7		 mov	 eax, edi
  00225	f0 0f c1 42 0c	 lock	  xadd	 DWORD PTR [edx+12], eax
  0022a	48		 dec	 eax
  0022b	85 c0		 test	 eax, eax
  0022d	7f 08		 jg	 SHORT $LN81@LoadObject

; 93   : 		{
; 94   : 			pStringMgr->Free( this );

  0022f	8b 0a		 mov	 ecx, DWORD PTR [edx]
  00231	52		 push	 edx
  00232	8b 01		 mov	 eax, DWORD PTR [ecx]
  00234	ff 50 04	 call	 DWORD PTR [eax+4]
$LN81@LoadObject:
; File C:\IAGOS\server\v18\Source\Source\_Common\worldfile.cpp

; 380  : 	return TRUE;

  00237	c7 45 fc ff ff
	ff ff		 mov	 DWORD PTR __$EHRec$[ebp+8], -1
; File C:\Program Files\Microsoft Visual Studio\2022\Professional\VC\Tools\MSVC\14.44.35207\atlmfc\include\atlsimpstr.h

; 804  : 		return( reinterpret_cast< CStringData* >( m_pszData )-1 );

  0023e	83 c6 f0	 add	 esi, -16		; fffffff0H

; 92   : 		if( _InterlockedDecrement( &nRefs ) <= 0 )

  00241	f0 0f c1 7e 0c	 lock	  xadd	 DWORD PTR [esi+12], edi
  00246	4f		 dec	 edi
  00247	85 ff		 test	 edi, edi
  00249	7f 08		 jg	 SHORT $LN90@LoadObject

; 93   : 		{
; 94   : 			pStringMgr->Free( this );

  0024b	8b 0e		 mov	 ecx, DWORD PTR [esi]
  0024d	56		 push	 esi
  0024e	8b 11		 mov	 edx, DWORD PTR [ecx]
  00250	ff 52 04	 call	 DWORD PTR [edx+4]
$LN90@LoadObject:
; File C:\IAGOS\server\v18\Source\Source\_Common\worldfile.cpp

; 380  : 	return TRUE;

  00253	8b c3		 mov	 eax, ebx

; 381  : }

  00255	8b 4d f4	 mov	 ecx, DWORD PTR __$EHRec$[ebp]
  00258	64 89 0d 00 00
	00 00		 mov	 DWORD PTR fs:0, ecx
  0025f	59		 pop	 ecx
  00260	5f		 pop	 edi
  00261	5e		 pop	 esi
  00262	5b		 pop	 ebx
  00263	8b 4d f0	 mov	 ecx, DWORD PTR __$ArrayPad$[ebp]
  00266	33 cd		 xor	 ecx, ebp
  00268	e8 00 00 00 00	 call	 @__security_check_cookie@4
  0026d	8b e5		 mov	 esp, ebp
  0026f	5d		 pop	 ebp
  00270	c2 04 00	 ret	 4
$LN111@LoadObject:
; File C:\Program Files\Microsoft Visual Studio\2022\Professional\VC\Tools\MSVC\14.44.35207\atlmfc\include\atlsimpstr.h

; 209  : 		ATLENSURE( pStringMgr != NULL );

  00273	68 05 40 00 80	 push	 -2147467259		; 80004005H
  00278	e8 00 00 00 00	 call	 ?AtlThrowImpl@ATL@@YGXJ@Z ; ATL::AtlThrowImpl
$LN112@LoadObject:
  0027d	68 05 40 00 80	 push	 -2147467259		; 80004005H
  00282	e8 00 00 00 00	 call	 ?AtlThrowImpl@ATL@@YGXJ@Z ; ATL::AtlThrowImpl
$LN109@LoadObject:
  00287	cc		 int	 3
_TEXT	ENDS
;	COMDAT text$x
text$x	SEGMENT
__unwindfunclet$?LoadObject@CWorld@@QAEHH@Z$3:
  00000	8d 4d e0	 lea	 ecx, DWORD PTR _strLandName$[ebp]
  00003	e9 00 00 00 00	 jmp	 ??1?$CSimpleStringT@D$0A@@ATL@@QAE@XZ ; ATL::CSimpleStringT<char,0>::~CSimpleStringT<char,0>
__unwindfunclet$?LoadObject@CWorld@@QAEHH@Z$0:
  00008	8d 4d e0	 lea	 ecx, DWORD PTR _strLandName$[ebp]
  0000b	e9 00 00 00 00	 jmp	 ??1?$CStringT@DV?$StrTraitMFC@DV?$ChTraitsCRT@D@ATL@@@@@ATL@@QAE@XZ ; ATL::CStringT<char,StrTraitMFC<char,ATL::ChTraitsCRT<char> > >::~CStringT<char,StrTraitMFC<char,ATL::ChTraitsCRT<char> > >
__unwindfunclet$?LoadObject@CWorld@@QAEHH@Z$1:
  00010	8d 4d d4	 lea	 ecx, DWORD PTR _strLandTemp$[ebp]
  00013	e9 00 00 00 00	 jmp	 ??1?$CStringT@DV?$StrTraitMFC@DV?$ChTraitsCRT@D@ATL@@@@@ATL@@QAE@XZ ; ATL::CStringT<char,StrTraitMFC<char,ATL::ChTraitsCRT<char> > >::~CStringT<char,StrTraitMFC<char,ATL::ChTraitsCRT<char> > >
__unwindfunclet$?LoadObject@CWorld@@QAEHH@Z$2:
  00018	8d 4d d8	 lea	 ecx, DWORD PTR _file$[ebp]
  0001b	e9 00 00 00 00	 jmp	 ??1CFileIO@@UAE@XZ	; CFileIO::~CFileIO
  00020	cc		 int	 3
  00021	cc		 int	 3
  00022	cc		 int	 3
  00023	cc		 int	 3
  00024	cc		 int	 3
__ehhandler$?LoadObject@CWorld@@QAEHH@Z:
  00025	90		 npad	 1
  00026	90		 npad	 1
  00027	8b 54 24 08	 mov	 edx, DWORD PTR [esp+8]
  0002b	8d 42 0c	 lea	 eax, DWORD PTR [edx+12]
  0002e	8b 4a cc	 mov	 ecx, DWORD PTR [edx-52]
  00031	33 c8		 xor	 ecx, eax
  00033	e8 00 00 00 00	 call	 @__security_check_cookie@4
  00038	8b 4a fc	 mov	 ecx, DWORD PTR [edx-4]
  0003b	33 c8		 xor	 ecx, eax
  0003d	e8 00 00 00 00	 call	 @__security_check_cookie@4
  00042	b8 00 00 00 00	 mov	 eax, OFFSET __ehfuncinfo$?LoadObject@CWorld@@QAEHH@Z
  00047	e9 00 00 00 00	 jmp	 ___CxxFrameHandler3
text$x	ENDS
?LoadObject@CWorld@@QAEHH@Z ENDP			; CWorld::LoadObject
; Function compile flags: /Ogtp
; File C:\IAGOS\server\v18\Source\Source\_Common\worldfile.cpp
; File C:\IAGOS\server\v18\Source\Source\_Common\InstanceDungeonBase.h
; File C:\IAGOS\server\v18\Source\Source\_Common\worldfile.cpp
; File C:\IAGOS\server\v18\Source\Source\_Common\World.h
; File C:\IAGOS\server\v18\Source\Source\_Common\worldfile.cpp
; File C:\IAGOS\server\v18\Source\Source\DX_SDK\d3dx9math.inl
; File C:\IAGOS\server\v18\Source\Source\_Common\worldfile.cpp
; File C:\IAGOS\server\v18\Source\Source\DX_SDK\d3dx9math.inl
; File C:\IAGOS\server\v18\Source\Source\_Common\worldfile.cpp
;	COMDAT ?DriveOut@CWorld@@QAEXH@Z
_TEXT	SEGMENT
tv252 = -24						; size = 4
tv249 = -20						; size = 4
$T1 = -16						; size = 12
__$ArrayPad$ = -4					; size = 4
_nLayer$ = 8						; size = 4
?DriveOut@CWorld@@QAEXH@Z PROC				; CWorld::DriveOut, COMDAT
; _this$ = ecx

; 1270 : {

  00000	55		 push	 ebp
  00001	8b ec		 mov	 ebp, esp
  00003	83 ec 18	 sub	 esp, 24			; 00000018H
  00006	a1 00 00 00 00	 mov	 eax, DWORD PTR ___security_cookie
  0000b	33 c5		 xor	 eax, ebp
  0000d	89 45 fc	 mov	 DWORD PTR __$ArrayPad$[ebp], eax
  00010	53		 push	 ebx
  00011	56		 push	 esi
  00012	8b f1		 mov	 esi, ecx

; 1271 : #ifdef __WORLDSERVER
; 1272 : 	for( DWORD i = 0; i < m_dwObjNum; i++ )

  00014	33 db		 xor	 ebx, ebx
  00016	39 5e 40	 cmp	 DWORD PTR [esi+64], ebx
  00019	0f 86 b9 00 00
	00		 jbe	 $LN3@DriveOut

; 1270 : {

  0001f	8d 46 44	 lea	 eax, DWORD PTR [esi+68]
  00022	89 45 ec	 mov	 DWORD PTR tv249[ebp], eax
  00025	57		 push	 edi
$LL4@DriveOut:

; 1273 : 	{
; 1274 : 		if( IsLayerPlayer( m_apObject[i], nLayer ) )

  00026	ff 75 08	 push	 DWORD PTR _nLayer$[ebp]
  00029	8b 38		 mov	 edi, DWORD PTR [eax]
  0002b	8b ce		 mov	 ecx, esi
  0002d	57		 push	 edi
  0002e	e8 00 00 00 00	 call	 ?IsLayerPlayer@CWorld@@AAEHPAVCObj@@H@Z ; CWorld::IsLayerPlayer
  00033	85 c0		 test	 eax, eax
  00035	0f 84 89 00 00
	00		 je	 $LN2@DriveOut

; 1275 : 		{
; 1276 : 			CUser* pUser	= static_cast<CUser*>( m_apObject[i] );
; 1277 : 			switch( GetID() )

  0003b	8b 06		 mov	 eax, DWORD PTR [esi]
  0003d	89 45 e8	 mov	 DWORD PTR tv252[ebp], eax
  00040	3d d1 00 00 00	 cmp	 eax, 209		; 000000d1H
  00045	74 70		 je	 SHORT $LN8@DriveOut

; 1284 : 					if( CInstanceDungeonHelper::GetInstance()->IsInstanceDungeon( GetID() ) )

  00047	e8 00 00 00 00	 call	 ?GetInstance@CInstanceDungeonHelper@@SAPAV1@XZ ; CInstanceDungeonHelper::GetInstance
; File C:\IAGOS\server\v18\Source\Source\_Common\InstanceDungeonBase.h

; 205  : 	BOOL	IsInstanceDungeon( DWORD dwWorldId )	{ return GetType( dwWorldId ) != NULL_ID; }

  0004c	ff 75 e8	 push	 DWORD PTR tv252[ebp]
  0004f	8b c8		 mov	 ecx, eax
  00051	e8 00 00 00 00	 call	 ?GetType@CInstanceDungeonHelper@@AAEHK@Z ; CInstanceDungeonHelper::GetType
  00056	83 f8 ff	 cmp	 eax, -1
; File C:\IAGOS\server\v18\Source\Source\_Common\worldfile.cpp

; 1284 : 					if( CInstanceDungeonHelper::GetInstance()->IsInstanceDungeon( GetID() ) )

  00059	74 0f		 je	 SHORT $LN10@DriveOut

; 1285 : 					{
; 1286 : 						CInstanceDungeonHelper::GetInstance()->GoOut( pUser );

  0005b	57		 push	 edi
  0005c	e8 00 00 00 00	 call	 ?GetInstance@CInstanceDungeonHelper@@SAPAV1@XZ ; CInstanceDungeonHelper::GetInstance
  00061	8b c8		 mov	 ecx, eax
  00063	e8 00 00 00 00	 call	 ?GoOut@CInstanceDungeonHelper@@QAEXPAVCUser@@@Z ; CInstanceDungeonHelper::GoOut

; 1287 : 						break;

  00068	eb 5a		 jmp	 SHORT $LN2@DriveOut
$LN10@DriveOut:

; 1288 : 					}
; 1289 : #endif // __INSTANCE_DUNGEON
; 1290 : #if __VER >= 15 // __GUILD_HOUSE
; 1291 : 					else if( GuildHouseMng->IsGuildHouse( GetID() ) )

  0006a	ff 36		 push	 DWORD PTR [esi]
  0006c	e8 00 00 00 00	 call	 ?GetInstance@CGuildHouseMng@@SAPAV1@XZ ; CGuildHouseMng::GetInstance
  00071	8b c8		 mov	 ecx, eax
  00073	e8 00 00 00 00	 call	 ?IsGuildHouse@CGuildHouseMng@@QAEHK@Z ; CGuildHouseMng::IsGuildHouse
  00078	6a 00		 push	 0
  0007a	85 c0		 test	 eax, eax
  0007c	74 0d		 je	 SHORT $LN12@DriveOut
; File C:\IAGOS\server\v18\Source\Source\_Common\World.h

; 615  : 	void	Invalidate( int nLayer, BOOL bInvalid = TRUE )	{	m_linkMap.Invalidate( nLayer, bInvalid );	}

  0007e	ff 75 08	 push	 DWORD PTR _nLayer$[ebp]
  00081	8d 4e 24	 lea	 ecx, DWORD PTR [esi+36]
  00084	e8 00 00 00 00	 call	 ?Invalidate@CLayeredLinkMap@@QAEXHH@Z ; CLayeredLinkMap::Invalidate
; File C:\IAGOS\server\v18\Source\Source\_Common\worldfile.cpp

; 1295 : 						break;

  00089	eb 39		 jmp	 SHORT $LN2@DriveOut
$LN12@DriveOut:

; 1298 : 					pUser->REPLACE( g_uIdofMulti, WI_WORLD_MADRIGAL, D3DXVECTOR3( 6983.0f, 0.0f, 3330.0f ), REPLACE_FORCE, nDefaultLayer );

  0008b	6a 01		 push	 1
  0008d	8d 45 f0	 lea	 eax, DWORD PTR $T1[ebp]
; File C:\IAGOS\server\v18\Source\Source\DX_SDK\d3dx9math.inl

; 300  :     x = fx;

  00090	c7 45 f0 00 38
	da 45		 mov	 DWORD PTR $T1[ebp], 1171929088 ; 45da3800H
; File C:\IAGOS\server\v18\Source\Source\_Common\worldfile.cpp

; 1298 : 					pUser->REPLACE( g_uIdofMulti, WI_WORLD_MADRIGAL, D3DXVECTOR3( 6983.0f, 0.0f, 3330.0f ), REPLACE_FORCE, nDefaultLayer );

  00097	50		 push	 eax
  00098	6a 01		 push	 1
  0009a	ff 35 00 00 00
	00		 push	 DWORD PTR ?g_uIdofMulti@@3KA ; g_uIdofMulti
  000a0	8b cf		 mov	 ecx, edi
; File C:\IAGOS\server\v18\Source\Source\DX_SDK\d3dx9math.inl

; 301  :     y = fy;

  000a2	c7 45 f4 00 00
	00 00		 mov	 DWORD PTR $T1[ebp+4], 0

; 302  :     z = fz;

  000a9	c7 45 f8 00 20
	50 45		 mov	 DWORD PTR $T1[ebp+8], 1162878976 ; 45502000H
; File C:\IAGOS\server\v18\Source\Source\_Common\worldfile.cpp

; 1298 : 					pUser->REPLACE( g_uIdofMulti, WI_WORLD_MADRIGAL, D3DXVECTOR3( 6983.0f, 0.0f, 3330.0f ), REPLACE_FORCE, nDefaultLayer );

  000b0	e8 00 00 00 00	 call	 ?Replace@CMover@@QAEHKKAAUD3DXVECTOR3@@W4REPLACE_TYPE@@H@Z ; CMover::Replace
  000b5	eb 0d		 jmp	 SHORT $LN2@DriveOut
$LN8@DriveOut:

; 1278 : 			{
; 1279 : #if __VER >= 13 // __HOUSING
; 1280 : 				case WI_WORLD_MINIROOM : CHousingMng::GetInstance()->GoOut( pUser ); break;

  000b7	57		 push	 edi
  000b8	e8 00 00 00 00	 call	 ?GetInstance@CHousingMng@@SAPAV1@XZ ; CHousingMng::GetInstance
  000bd	8b c8		 mov	 ecx, eax
  000bf	e8 00 00 00 00	 call	 ?GoOut@CHousingMng@@QAEXPAVCUser@@@Z ; CHousingMng::GoOut
$LN2@DriveOut:

; 1271 : #ifdef __WORLDSERVER
; 1272 : 	for( DWORD i = 0; i < m_dwObjNum; i++ )

  000c4	8b 45 ec	 mov	 eax, DWORD PTR tv249[ebp]
  000c7	43		 inc	 ebx
  000c8	83 c0 04	 add	 eax, 4
  000cb	89 45 ec	 mov	 DWORD PTR tv249[ebp], eax
  000ce	3b 5e 40	 cmp	 ebx, DWORD PTR [esi+64]
  000d1	0f 82 4f ff ff
	ff		 jb	 $LL4@DriveOut
  000d7	5f		 pop	 edi
$LN3@DriveOut:

; 1299 : 					break;
; 1300 : 			}
; 1301 : 		}
; 1302 : 	}
; 1303 : #endif	// __WORLDSERVER
; 1304 : }

  000d8	8b 4d fc	 mov	 ecx, DWORD PTR __$ArrayPad$[ebp]
  000db	5e		 pop	 esi
  000dc	33 cd		 xor	 ecx, ebp
  000de	5b		 pop	 ebx
  000df	e8 00 00 00 00	 call	 @__security_check_cookie@4
  000e4	8b e5		 mov	 esp, ebp
  000e6	5d		 pop	 ebp
  000e7	c2 04 00	 ret	 4
?DriveOut@CWorld@@QAEXH@Z ENDP				; CWorld::DriveOut
_TEXT	ENDS
; Function compile flags: /Ogtp
; File C:\IAGOS\server\v18\Source\Source\_Common\worldfile.cpp
;	COMDAT ?HasNobody@CWorld@@QAEHH@Z
_TEXT	SEGMENT
_nLayer$ = 8						; size = 4
?HasNobody@CWorld@@QAEHH@Z PROC				; CWorld::HasNobody, COMDAT
; _this$ = ecx

; 1220 : {

  00000	55		 push	 ebp
  00001	8b ec		 mov	 ebp, esp
  00003	56		 push	 esi
  00004	57		 push	 edi

; 1221 : 	if( !HasNobody_Process( nLayer ) )

  00005	8b 7d 08	 mov	 edi, DWORD PTR _nLayer$[ebp]
  00008	8b f1		 mov	 esi, ecx
  0000a	57		 push	 edi
  0000b	e8 00 00 00 00	 call	 ?HasNobody_Process@CWorld@@AAEHH@Z ; CWorld::HasNobody_Process
  00010	85 c0		 test	 eax, eax
  00012	74 20		 je	 SHORT $LN6@HasNobody

; 1222 : 		return FALSE;
; 1223 : 	if( !HasNoObj_Add( nLayer ) )

  00014	57		 push	 edi
  00015	8b ce		 mov	 ecx, esi
  00017	e8 00 00 00 00	 call	 ?HasNoObj_Add@CWorld@@AAEHH@Z ; CWorld::HasNoObj_Add
  0001c	85 c0		 test	 eax, eax
  0001e	74 14		 je	 SHORT $LN6@HasNobody

; 1224 : 		return FALSE;
; 1225 : 	if( !HasNobody_Replace( nLayer ) )

  00020	57		 push	 edi
  00021	8b ce		 mov	 ecx, esi
  00023	e8 00 00 00 00	 call	 ?HasNobody_Replace@CWorld@@AAEHH@Z ; CWorld::HasNobody_Replace
  00028	f7 d8		 neg	 eax
  0002a	5f		 pop	 edi
  0002b	1b c0		 sbb	 eax, eax
  0002d	f7 d8		 neg	 eax

; 1227 : 	return TRUE;
; 1228 : }

  0002f	5e		 pop	 esi
  00030	5d		 pop	 ebp
  00031	c2 04 00	 ret	 4
$LN6@HasNobody:
  00034	5f		 pop	 edi

; 1226 : 		return FALSE;

  00035	33 c0		 xor	 eax, eax

; 1227 : 	return TRUE;
; 1228 : }

  00037	5e		 pop	 esi
  00038	5d		 pop	 ebp
  00039	c2 04 00	 ret	 4
?HasNobody@CWorld@@QAEHH@Z ENDP				; CWorld::HasNobody
_TEXT	ENDS
; Function compile flags: /Ogtp
; File C:\IAGOS\server\v18\Source\Source\_Common\worldfile.cpp
;	COMDAT ?IsLayerPlayer@CWorld@@AAEHPAVCObj@@H@Z
_TEXT	SEGMENT
_pObj$ = 8						; size = 4
_nLayer$ = 12						; size = 4
?IsLayerPlayer@CWorld@@AAEHPAVCObj@@H@Z PROC		; CWorld::IsLayerPlayer, COMDAT
; _this$ = ecx

; 1265 : {

  00000	55		 push	 ebp
  00001	8b ec		 mov	 ebp, esp

; 1266 : 	return ( pObj && pObj->GetLayer() == nLayer && pObj->GetType() == OT_MOVER && static_cast<CMover*>( pObj )->IsPlayer() );

  00003	8b 4d 08	 mov	 ecx, DWORD PTR _pObj$[ebp]
  00006	85 c9		 test	 ecx, ecx
  00008	74 26		 je	 SHORT $LN3@IsLayerPla
  0000a	8b 81 b8 01 00
	00		 mov	 eax, DWORD PTR [ecx+440]
  00010	3b 45 0c	 cmp	 eax, DWORD PTR _nLayer$[ebp]
  00013	75 1b		 jne	 SHORT $LN3@IsLayerPla
  00015	83 b9 70 01 00
	00 05		 cmp	 DWORD PTR [ecx+368], 5
  0001c	75 12		 jne	 SHORT $LN3@IsLayerPla
  0001e	83 b9 30 02 00
	00 00		 cmp	 DWORD PTR [ecx+560], 0
  00025	74 09		 je	 SHORT $LN3@IsLayerPla
  00027	b8 01 00 00 00	 mov	 eax, 1

; 1267 : }

  0002c	5d		 pop	 ebp
  0002d	c2 08 00	 ret	 8
$LN3@IsLayerPla:

; 1266 : 	return ( pObj && pObj->GetLayer() == nLayer && pObj->GetType() == OT_MOVER && static_cast<CMover*>( pObj )->IsPlayer() );

  00030	33 c0		 xor	 eax, eax

; 1267 : }

  00032	5d		 pop	 ebp
  00033	c2 08 00	 ret	 8
?IsLayerPlayer@CWorld@@AAEHPAVCObj@@H@Z ENDP		; CWorld::IsLayerPlayer
_TEXT	ENDS
; Function compile flags: /Ogtp
; File C:\IAGOS\server\v18\Source\Source\_Common\worldfile.cpp
;	COMDAT ?HasNobody_Replace@CWorld@@AAEHH@Z
_TEXT	SEGMENT
_nLayer$ = 8						; size = 4
?HasNobody_Replace@CWorld@@AAEHH@Z PROC			; CWorld::HasNobody_Replace, COMDAT
; _this$ = ecx

; 1251 : {

  00000	55		 push	 ebp
  00001	8b ec		 mov	 ebp, esp

; 1252 : #if __VER >= 15 // __GUILD_HOUSE
; 1253 : 	return g_WorldMng.HasNobody_Replace( GetID(), nLayer );

  00003	ff 75 08	 push	 DWORD PTR _nLayer$[ebp]
  00006	ff 31		 push	 DWORD PTR [ecx]
  00008	b9 00 00 00 00	 mov	 ecx, OFFSET ?g_WorldMng@@3VCWorldMng@@A ; g_WorldMng
  0000d	e8 00 00 00 00	 call	 ?HasNobody_Replace@CWorldMng@@QAEHKH@Z ; CWorldMng::HasNobody_Replace

; 1254 : #else // __GUILD_HOUSE
; 1255 : 	for( int i = 0; i < m_cbReplaceObj; ++i )
; 1256 : 	{
; 1257 : 		if( m_aReplaceObj[i].nLayer == nLayer )
; 1258 : 			return FALSE;
; 1259 : 	}
; 1260 : #endif // __GUILD_HOUSE
; 1261 : 	return TRUE;
; 1262 : }

  00012	5d		 pop	 ebp
  00013	c2 04 00	 ret	 4
?HasNobody_Replace@CWorld@@AAEHH@Z ENDP			; CWorld::HasNobody_Replace
_TEXT	ENDS
; Function compile flags: /Ogtp
; File C:\IAGOS\server\v18\Source\Source\_Common\worldfile.cpp
;	COMDAT ?HasNoObj_Add@CWorld@@AAEHH@Z
_TEXT	SEGMENT
_nLayer$ = 8						; size = 4
?HasNoObj_Add@CWorld@@AAEHH@Z PROC			; CWorld::HasNoObj_Add, COMDAT
; _this$ = ecx

; 1241 : {

  00000	55		 push	 ebp
  00001	8b ec		 mov	 ebp, esp
  00003	56		 push	 esi

; 1242 : 	for( int i = 0; i < m_cbAddObjs; i++ )

  00004	8b b1 58 b0 05
	00		 mov	 esi, DWORD PTR [ecx+372824]
  0000a	33 c0		 xor	 eax, eax
  0000c	57		 push	 edi
  0000d	85 f6		 test	 esi, esi
  0000f	7e 25		 jle	 SHORT $LN10@HasNoObj_A
  00011	8b 7d 08	 mov	 edi, DWORD PTR _nLayer$[ebp]
  00014	81 c1 5c b0 05
	00		 add	 ecx, 372828		; 0005b05cH
  0001a	66 0f 1f 44 00
	00		 npad	 6
$LL4@HasNoObj_A:

; 1243 : 	{
; 1244 : 		if( m_apAddObjs[i] && m_apAddObjs[i]->GetLayer() == nLayer )

  00020	8b 11		 mov	 edx, DWORD PTR [ecx]
  00022	85 d2		 test	 edx, edx
  00024	74 08		 je	 SHORT $LN2@HasNoObj_A
  00026	39 ba b8 01 00
	00		 cmp	 DWORD PTR [edx+440], edi
  0002c	74 13		 je	 SHORT $LN8@HasNoObj_A
$LN2@HasNoObj_A:

; 1242 : 	for( int i = 0; i < m_cbAddObjs; i++ )

  0002e	40		 inc	 eax
  0002f	83 c1 04	 add	 ecx, 4
  00032	3b c6		 cmp	 eax, esi
  00034	7c ea		 jl	 SHORT $LL4@HasNoObj_A
$LN10@HasNoObj_A:
  00036	5f		 pop	 edi

; 1246 : 	}
; 1247 : 	return TRUE;

  00037	b8 01 00 00 00	 mov	 eax, 1

; 1248 : }

  0003c	5e		 pop	 esi
  0003d	5d		 pop	 ebp
  0003e	c2 04 00	 ret	 4
$LN8@HasNoObj_A:
  00041	5f		 pop	 edi

; 1245 : 			return FALSE;

  00042	33 c0		 xor	 eax, eax

; 1248 : }

  00044	5e		 pop	 esi
  00045	5d		 pop	 ebp
  00046	c2 04 00	 ret	 4
?HasNoObj_Add@CWorld@@AAEHH@Z ENDP			; CWorld::HasNoObj_Add
_TEXT	ENDS
; Function compile flags: /Ogtp
; File C:\IAGOS\server\v18\Source\Source\_Common\worldfile.cpp
;	COMDAT ?HasNobody_Process@CWorld@@AAEHH@Z
_TEXT	SEGMENT
_this$1$ = -4						; size = 4
_nLayer$ = 8						; size = 4
?HasNobody_Process@CWorld@@AAEHH@Z PROC			; CWorld::HasNobody_Process, COMDAT
; _this$ = ecx

; 1231 : {

  00000	55		 push	 ebp
  00001	8b ec		 mov	 ebp, esp
  00003	51		 push	 ecx
  00004	8b c1		 mov	 eax, ecx
  00006	53		 push	 ebx
  00007	56		 push	 esi

; 1232 : 	for( DWORD i = 0; i < m_dwObjNum; i++ )

  00008	33 f6		 xor	 esi, esi
  0000a	89 45 fc	 mov	 DWORD PTR _this$1$[ebp], eax
  0000d	8b 58 40	 mov	 ebx, DWORD PTR [eax+64]
  00010	57		 push	 edi
  00011	85 db		 test	 ebx, ebx
  00013	74 1e		 je	 SHORT $LN3@HasNobody_
  00015	8d 78 44	 lea	 edi, DWORD PTR [eax+68]
$LL4@HasNobody_:

; 1233 : 	{
; 1234 : 		if( IsLayerPlayer( m_apObject[i], nLayer ) )

  00018	ff 75 08	 push	 DWORD PTR _nLayer$[ebp]
  0001b	8b c8		 mov	 ecx, eax
  0001d	ff 37		 push	 DWORD PTR [edi]
  0001f	e8 00 00 00 00	 call	 ?IsLayerPlayer@CWorld@@AAEHPAVCObj@@H@Z ; CWorld::IsLayerPlayer
  00024	85 c0		 test	 eax, eax
  00026	75 19		 jne	 SHORT $LN8@HasNobody_

; 1232 : 	for( DWORD i = 0; i < m_dwObjNum; i++ )

  00028	8b 45 fc	 mov	 eax, DWORD PTR _this$1$[ebp]
  0002b	46		 inc	 esi
  0002c	83 c7 04	 add	 edi, 4
  0002f	3b f3		 cmp	 esi, ebx
  00031	72 e5		 jb	 SHORT $LL4@HasNobody_
$LN3@HasNobody_:
  00033	5f		 pop	 edi

; 1235 : 			return FALSE;
; 1236 : 	}
; 1237 : 	return TRUE;
; 1238 : }

  00034	5e		 pop	 esi
  00035	b8 01 00 00 00	 mov	 eax, 1
  0003a	5b		 pop	 ebx
  0003b	8b e5		 mov	 esp, ebp
  0003d	5d		 pop	 ebp
  0003e	c2 04 00	 ret	 4
$LN8@HasNobody_:
  00041	5f		 pop	 edi
  00042	5e		 pop	 esi
  00043	33 c0		 xor	 eax, eax
  00045	5b		 pop	 ebx
  00046	8b e5		 mov	 esp, ebp
  00048	5d		 pop	 ebp
  00049	c2 04 00	 ret	 4
?HasNobody_Process@CWorld@@AAEHH@Z ENDP			; CWorld::HasNobody_Process
_TEXT	ENDS
; Function compile flags: /Ogtp
; File C:\IAGOS\server\v18\Source\Source\_Common\worldfile.cpp
; File C:\IAGOS\server\v18\Source\Source\_Common\data.h
; File C:\IAGOS\server\v18\Source\Source\_Common\worldfile.cpp
; File C:\IAGOS\server\v18\Source\Source\_Common\data.h
; File C:\IAGOS\server\v18\Source\Source\_Common\worldfile.cpp
;	COMDAT ?OpenWorld@CWorld@@QAEHKH@Z
_TEXT	SEGMENT
_idWorld$ = 8						; size = 4
_bDir$ = 12						; size = 4
?OpenWorld@CWorld@@QAEHKH@Z PROC			; CWorld::OpenWorld, COMDAT
; _this$ = ecx

; 24   : {

  00000	55		 push	 ebp
  00001	8b ec		 mov	 ebp, esp
; File C:\IAGOS\server\v18\Source\Source\_Common\data.h

; 270  : 	if( dwIndex >= (DWORD)m_nMaxIndex )

  00003	8b 55 08	 mov	 edx, DWORD PTR _idWorld$[ebp]
  00006	3b 15 30 e8 05
	00		 cmp	 edx, DWORD PTR ?g_WorldMng@@3VCWorldMng@@A+387120
  0000c	72 0b		 jb	 SHORT $LN6@OpenWorld

; 271  : 		return NULL;

  0000e	33 c0		 xor	 eax, eax
; File C:\IAGOS\server\v18\Source\Source\_Common\worldfile.cpp

; 27   : 	return( OpenWorld( lpWorld->m_szFileName, bDir ) );

  00010	89 45 08	 mov	 DWORD PTR _idWorld$[ebp], eax

; 28   : }

  00013	5d		 pop	 ebp

; 27   : 	return( OpenWorld( lpWorld->m_szFileName, bDir ) );

  00014	e9 00 00 00 00	 jmp	 ?OpenWorld@CWorld@@QAEHPBDH@Z ; CWorld::OpenWorld
$LN6@OpenWorld:
; File C:\IAGOS\server\v18\Source\Source\_Common\data.h

; 272  : 	return (T*) m_apOffset[ dwIndex ];

  00019	a1 20 e8 05 00	 mov	 eax, DWORD PTR ?g_WorldMng@@3VCWorldMng@@A+387104
  0001e	8b 04 90	 mov	 eax, DWORD PTR [eax+edx*4]
; File C:\IAGOS\server\v18\Source\Source\_Common\worldfile.cpp

; 27   : 	return( OpenWorld( lpWorld->m_szFileName, bDir ) );

  00021	89 45 08	 mov	 DWORD PTR _idWorld$[ebp], eax

; 28   : }

  00024	5d		 pop	 ebp

; 27   : 	return( OpenWorld( lpWorld->m_szFileName, bDir ) );

  00025	e9 00 00 00 00	 jmp	 ?OpenWorld@CWorld@@QAEHPBDH@Z ; CWorld::OpenWorld
?OpenWorld@CWorld@@QAEHKH@Z ENDP			; CWorld::OpenWorld
_TEXT	ENDS
; Function compile flags: /Ogtp
; File C:\IAGOS\server\v18\Source\Source\_Common\worldfile.cpp
; File C:\Program Files\Microsoft Visual Studio\2022\Professional\VC\Tools\MSVC\14.44.35207\atlmfc\include\cstringt.h
; File C:\IAGOS\server\v18\Source\Source\_Common\worldfile.cpp
; File C:\Program Files\Microsoft Visual Studio\2022\Professional\VC\Tools\MSVC\14.44.35207\atlmfc\include\cstringt.h
; File C:\IAGOS\server\v18\Source\Source\_Common\worldfile.cpp
; File C:\Program Files\Microsoft Visual Studio\2022\Professional\VC\Tools\MSVC\14.44.35207\atlmfc\include\cstringt.h
; File C:\IAGOS\server\v18\Source\Source\_Common\worldfile.cpp
; File C:\Program Files\Microsoft Visual Studio\2022\Professional\VC\Tools\MSVC\14.44.35207\atlmfc\include\cstringt.h
; File C:\IAGOS\server\v18\Source\Source\_Common\worldfile.cpp
; File C:\Program Files\Microsoft Visual Studio\2022\Professional\VC\Tools\MSVC\14.44.35207\atlmfc\include\cstringt.h
; File C:\IAGOS\server\v18\Source\Source\_Common\worldfile.cpp
; File C:\Program Files\Microsoft Visual Studio\2022\Professional\VC\Tools\MSVC\14.44.35207\atlmfc\include\cstringt.h
; File C:\IAGOS\server\v18\Source\Source\_Common\worldfile.cpp
; File C:\Program Files\Microsoft Visual Studio\2022\Professional\VC\Tools\MSVC\14.44.35207\atlmfc\include\cstringt.h
; File C:\IAGOS\server\v18\Source\Source\_Common\worldfile.cpp
; File C:\Program Files\Microsoft Visual Studio\2022\Professional\VC\Tools\MSVC\14.44.35207\atlmfc\include\cstringt.h
; File C:\IAGOS\server\v18\Source\Source\_Common\worldfile.cpp
; File C:\Program Files\Microsoft Visual Studio\2022\Professional\VC\Tools\MSVC\14.44.35207\atlmfc\include\cstringt.h
; File C:\IAGOS\server\v18\Source\Source\_Common\worldfile.cpp
; File C:\Program Files\Microsoft Visual Studio\2022\Professional\VC\Tools\MSVC\14.44.35207\atlmfc\include\cstringt.h
; File C:\IAGOS\server\v18\Source\Source\_Common\worldfile.cpp
; File C:\Program Files\Microsoft Visual Studio\2022\Professional\VC\Tools\MSVC\14.44.35207\atlmfc\include\cstringt.h
; File C:\IAGOS\server\v18\Source\Source\_Common\worldfile.cpp
; File C:\Program Files\Microsoft Visual Studio\2022\Professional\VC\Tools\MSVC\14.44.35207\atlmfc\include\cstringt.h
; File C:\IAGOS\server\v18\Source\Source\_Common\worldfile.cpp
; File C:\Program Files\Microsoft Visual Studio\2022\Professional\VC\Tools\MSVC\14.44.35207\atlmfc\include\atlcore.h
; File C:\Program Files\Microsoft Visual Studio\2022\Professional\VC\Tools\MSVC\14.44.35207\atlmfc\include\cstringt.h
; File C:\IAGOS\server\v18\Source\Source\_Common\worldfile.cpp
; File C:\Program Files\Microsoft Visual Studio\2022\Professional\VC\Tools\MSVC\14.44.35207\atlmfc\include\cstringt.h
; File C:\IAGOS\server\v18\Source\Source\_Common\worldfile.cpp
; File C:\Program Files\Microsoft Visual Studio\2022\Professional\VC\Tools\MSVC\14.44.35207\atlmfc\include\atlcore.h
; File C:\Program Files\Microsoft Visual Studio\2022\Professional\VC\Tools\MSVC\14.44.35207\atlmfc\include\cstringt.h
; File C:\IAGOS\server\v18\Source\Source\_Common\worldfile.cpp
; File C:\Program Files\Microsoft Visual Studio\2022\Professional\VC\Tools\MSVC\14.44.35207\atlmfc\include\cstringt.h
; File C:\IAGOS\server\v18\Source\Source\_Common\worldfile.cpp
; File C:\Program Files\Microsoft Visual Studio\2022\Professional\VC\Tools\MSVC\14.44.35207\atlmfc\include\cstringt.h
; File C:\IAGOS\server\v18\Source\Source\_Common\worldfile.cpp
; File C:\Program Files\Microsoft Visual Studio\2022\Professional\VC\Tools\MSVC\14.44.35207\atlmfc\include\cstringt.h
; File C:\IAGOS\server\v18\Source\Source\_Common\worldfile.cpp
; File C:\Program Files\Microsoft Visual Studio\2022\Professional\VC\Tools\MSVC\14.44.35207\atlmfc\include\cstringt.h
; File C:\IAGOS\server\v18\Source\Source\_Common\worldfile.cpp
;	COMDAT ?OpenWorld@CWorld@@QAEHPBDH@Z
_TEXT	SEGMENT
tv1435 = -4620						; size = 4
tv1468 = -4616						; size = 4
_drive$ = -4612						; size = 3
_bLoaded_MPU$1$ = -4605					; size = 1
_script$ = -4604					; size = 3560
_ext$ = -1044						; size = 256
_dir$ = -788						; size = 256
_name$ = -532						; size = 256
_szPathName$ = -276					; size = 260
__$ArrayPad$ = -16					; size = 4
__$EHRec$ = -12						; size = 12
_lpszFileName$ = 8					; size = 4
_bDir$ = 12						; size = 4
?OpenWorld@CWorld@@QAEHPBDH@Z PROC			; CWorld::OpenWorld, COMDAT
; _this$ = ecx

; 33   : {

  00000	55		 push	 ebp
  00001	8b ec		 mov	 ebp, esp
  00003	6a ff		 push	 -1
  00005	68 00 00 00 00	 push	 __ehhandler$?OpenWorld@CWorld@@QAEHPBDH@Z
  0000a	64 a1 00 00 00
	00		 mov	 eax, DWORD PTR fs:0
  00010	50		 push	 eax
  00011	b8 00 12 00 00	 mov	 eax, 4608		; 00001200H
  00016	e8 00 00 00 00	 call	 __chkstk
  0001b	a1 00 00 00 00	 mov	 eax, DWORD PTR ___security_cookie
  00020	33 c5		 xor	 eax, ebp
  00022	89 45 f0	 mov	 DWORD PTR __$ArrayPad$[ebp], eax
  00025	53		 push	 ebx
  00026	56		 push	 esi
  00027	57		 push	 edi
  00028	50		 push	 eax
  00029	8d 45 f4	 lea	 eax, DWORD PTR __$EHRec$[ebp]
  0002c	64 a3 00 00 00
	00		 mov	 DWORD PTR fs:0, eax
  00032	8b d9		 mov	 ebx, ecx
  00034	8b 75 08	 mov	 esi, DWORD PTR _lpszFileName$[ebp]
  00037	8d bd ec fe ff
	ff		 lea	 edi, DWORD PTR _szPathName$[ebp]
  0003d	2b fe		 sub	 edi, esi

; 34   : 	TCHAR drive[_MAX_DRIVE], dir[_MAX_DIR], name[ _MAX_FNAME ], ext[_MAX_EXT];
; 35   : 	TCHAR szPathName[ _MAX_PATH ];
; 36   : 
; 37   : 	if( bDir == FALSE )

  0003f	83 7d 0c 00	 cmp	 DWORD PTR _bDir$[ebp], 0
  00043	75 12		 jne	 SHORT $LN11@OpenWorld
$LL52@OpenWorld:

; 38   : 	{
; 39   : 		strcpy( szPathName, lpszFileName );

  00045	8a 06		 mov	 al, BYTE PTR [esi]
  00047	8d 76 01	 lea	 esi, DWORD PTR [esi+1]
  0004a	88 44 37 ff	 mov	 BYTE PTR [edi+esi-1], al
  0004e	84 c0		 test	 al, al
  00050	75 f3		 jne	 SHORT $LL52@OpenWorld

; 40   : 	}

  00052	e9 a2 00 00 00	 jmp	 $LN12@OpenWorld
$LN11@OpenWorld:

; 41   : 	else
; 42   : 	{
; 43   : 		_splitpath( lpszFileName, drive, dir, name, ext );

  00057	8d 85 ec fb ff
	ff		 lea	 eax, DWORD PTR _ext$[ebp]
  0005d	50		 push	 eax
  0005e	8d 85 ec fd ff
	ff		 lea	 eax, DWORD PTR _name$[ebp]
  00064	50		 push	 eax
  00065	8d 85 ec fc ff
	ff		 lea	 eax, DWORD PTR _dir$[ebp]
  0006b	50		 push	 eax
  0006c	8d 85 fc ed ff
	ff		 lea	 eax, DWORD PTR _drive$[ebp]
  00072	50		 push	 eax
  00073	56		 push	 esi
  00074	e8 00 00 00 00	 call	 __splitpath
  00079	83 c4 14	 add	 esp, 20			; 00000014H
  0007c	0f 1f 40 00	 npad	 4
$LL53@OpenWorld:

; 44   : 		strcpy( szPathName, lpszFileName );

  00080	8a 06		 mov	 al, BYTE PTR [esi]
  00082	8d 76 01	 lea	 esi, DWORD PTR [esi+1]
  00085	88 44 37 ff	 mov	 BYTE PTR [edi+esi-1], al
  00089	84 c0		 test	 al, al
  0008b	75 f3		 jne	 SHORT $LL53@OpenWorld

; 45   : 		strcat( szPathName, "\\" );

  0008d	8d bd ec fe ff
	ff		 lea	 edi, DWORD PTR _szPathName$[ebp]
  00093	4f		 dec	 edi
$LL431@OpenWorld:
  00094	8a 47 01	 mov	 al, BYTE PTR [edi+1]
  00097	8d 7f 01	 lea	 edi, DWORD PTR [edi+1]
  0009a	84 c0		 test	 al, al
  0009c	75 f6		 jne	 SHORT $LL431@OpenWorld
  0009e	66 a1 00 00 00
	00		 mov	 ax, WORD PTR ??_C@_01KICIPPFI@?2@

; 46   : 		strcat( szPathName, name );

  000a4	8d 95 ec fd ff
	ff		 lea	 edx, DWORD PTR _name$[ebp]
  000aa	66 89 07	 mov	 WORD PTR [edi], ax
  000ad	8b f2		 mov	 esi, edx
  000af	90		 npad	 1
$LL432@OpenWorld:
  000b0	8a 02		 mov	 al, BYTE PTR [edx]
  000b2	42		 inc	 edx
  000b3	84 c0		 test	 al, al
  000b5	75 f9		 jne	 SHORT $LL432@OpenWorld
  000b7	8d bd ec fe ff
	ff		 lea	 edi, DWORD PTR _szPathName$[ebp]
  000bd	2b d6		 sub	 edx, esi
  000bf	4f		 dec	 edi
$LL433@OpenWorld:
  000c0	8a 47 01	 mov	 al, BYTE PTR [edi+1]
  000c3	47		 inc	 edi
  000c4	84 c0		 test	 al, al
  000c6	75 f8		 jne	 SHORT $LL433@OpenWorld
  000c8	8b ca		 mov	 ecx, edx
  000ca	c1 e9 02	 shr	 ecx, 2
  000cd	f3 a5		 rep movsd
  000cf	8b ca		 mov	 ecx, edx
  000d1	83 e1 03	 and	 ecx, 3
  000d4	f3 a4		 rep movsb

; 47   : 		strcat( szPathName, ".wld" );

  000d6	8d 8d ec fe ff
	ff		 lea	 ecx, DWORD PTR _szPathName$[ebp]
  000dc	49		 dec	 ecx
  000dd	0f 1f 00	 npad	 3
$LL434@OpenWorld:
  000e0	8a 41 01	 mov	 al, BYTE PTR [ecx+1]
  000e3	8d 49 01	 lea	 ecx, DWORD PTR [ecx+1]
  000e6	84 c0		 test	 al, al
  000e8	75 f6		 jne	 SHORT $LL434@OpenWorld
  000ea	a1 00 00 00 00	 mov	 eax, DWORD PTR ??_C@_04PBJIJNEF@?4wld@
  000ef	89 01		 mov	 DWORD PTR [ecx], eax
  000f1	a0 04 00 00 00	 mov	 al, BYTE PTR ??_C@_04PBJIJNEF@?4wld@+4
  000f6	88 41 04	 mov	 BYTE PTR [ecx+4], al
$LN12@OpenWorld:

; 48   : 	}
; 49   : 
; 50   : 	CScript script;	

  000f9	6a 00		 push	 0
  000fb	8d 8d 04 ee ff
	ff		 lea	 ecx, DWORD PTR _script$[ebp]
  00101	e8 00 00 00 00	 call	 ??0CScript@@QAE@H@Z	; CScript::CScript

; 51   : 	if( script.Load( szPathName ) == FALSE )

  00106	6a 00		 push	 0
  00108	6a 01		 push	 1
  0010a	8d 85 ec fe ff
	ff		 lea	 eax, DWORD PTR _szPathName$[ebp]
  00110	c7 45 fc 00 00
	00 00		 mov	 DWORD PTR __$EHRec$[ebp+8], 0
  00117	50		 push	 eax
  00118	8d 8d 04 ee ff
	ff		 lea	 ecx, DWORD PTR _script$[ebp]
  0011e	e8 00 00 00 00	 call	 ?Load@CScript@@QAEHPBDHH@Z ; CScript::Load
  00123	85 c0		 test	 eax, eax
  00125	75 07		 jne	 SHORT $LN13@OpenWorld
  00127	33 f6		 xor	 esi, esi
  00129	e9 74 05 00 00	 jmp	 $LN59@OpenWorld
$LN13@OpenWorld:

; 52   : 		return FALSE;
; 53   : 
; 54   : 	bool bLoaded_MPU = false;

  0012e	32 c0		 xor	 al, al
  00130	88 85 03 ee ff
	ff		 mov	 BYTE PTR _bLoaded_MPU$1$[ebp], al
  00136	66 66 0f 1f 84
	00 00 00 00 00	 npad	 10
$LL4@OpenWorld:

; 55   : 
; 56   : 	do 
; 57   : 	{
; 58   : 		script.GetToken();

  00140	6a 00		 push	 0
  00142	8d 8d 04 ee ff
	ff		 lea	 ecx, DWORD PTR _script$[ebp]
  00148	e8 00 00 00 00	 call	 ?GetToken@CScript@@UAEHH@Z ; CScript::GetToken
; File C:\Program Files\Microsoft Visual Studio\2022\Professional\VC\Tools\MSVC\14.44.35207\atlmfc\include\cstringt.h

; 184  : 		return _mbscmp( reinterpret_cast< const unsigned char* >( pszA ), reinterpret_cast< const unsigned char* >( pszB ) );

  0014d	68 00 00 00 00	 push	 OFFSET ??_C@_04IAGNFIBA@size@
  00152	ff b5 24 ee ff
	ff		 push	 DWORD PTR _script$[ebp+32]
  00158	e8 00 00 00 00	 call	 __mbscmp
  0015d	83 c4 08	 add	 esp, 8

; 2490 : 		return(str1.Compare(psz2) == 0);

  00160	85 c0		 test	 eax, eax
; File C:\IAGOS\server\v18\Source\Source\_Common\worldfile.cpp

; 59   : 		if( script.Token == _T( "size" ) )

  00162	75 38		 jne	 SHORT $LN82@OpenWorld

; 60   : 		{
; 61   : 			m_nLandWidth = script.GetNumber();

  00164	50		 push	 eax
  00165	8d 8d 04 ee ff
	ff		 lea	 ecx, DWORD PTR _script$[ebp]
  0016b	e8 00 00 00 00	 call	 ?GetNumber@CScanner@@QAEHH@Z ; CScanner::GetNumber

; 62   : 			script.GetToken();

  00170	6a 00		 push	 0
  00172	8d 8d 04 ee ff
	ff		 lea	 ecx, DWORD PTR _script$[ebp]
  00178	89 43 04	 mov	 DWORD PTR [ebx+4], eax
  0017b	e8 00 00 00 00	 call	 ?GetToken@CScript@@UAEHH@Z ; CScript::GetToken

; 63   : 			m_nLandHeight = script.GetNumber();

  00180	6a 00		 push	 0
  00182	8d 8d 04 ee ff
	ff		 lea	 ecx, DWORD PTR _script$[ebp]
  00188	e8 00 00 00 00	 call	 ?GetNumber@CScanner@@QAEHH@Z ; CScanner::GetNumber

; 64   : 			CalcBound();

  0018d	8b cb		 mov	 ecx, ebx
  0018f	89 43 08	 mov	 DWORD PTR [ebx+8], eax
  00192	e8 00 00 00 00	 call	 ?CalcBound@CWorld@@QAEXXZ ; CWorld::CalcBound

; 65   : 		}

  00197	e9 84 03 00 00	 jmp	 $LN2@OpenWorld
$LN82@OpenWorld:
; File C:\Program Files\Microsoft Visual Studio\2022\Professional\VC\Tools\MSVC\14.44.35207\atlmfc\include\cstringt.h

; 184  : 		return _mbscmp( reinterpret_cast< const unsigned char* >( pszA ), reinterpret_cast< const unsigned char* >( pszB ) );

  0019c	68 00 00 00 00	 push	 OFFSET ??_C@_07LIABELBC@ambient@
  001a1	ff b5 24 ee ff
	ff		 push	 DWORD PTR _script$[ebp+32]
  001a7	e8 00 00 00 00	 call	 __mbscmp
  001ac	83 c4 08	 add	 esp, 8

; 2490 : 		return(str1.Compare(psz2) == 0);

  001af	85 c0		 test	 eax, eax
; File C:\IAGOS\server\v18\Source\Source\_Common\worldfile.cpp

; 67   : 		if( script.Token == _T( "ambient" ) )

  001b1	0f 84 69 03 00
	00		 je	 $LN2@OpenWorld
; File C:\Program Files\Microsoft Visual Studio\2022\Professional\VC\Tools\MSVC\14.44.35207\atlmfc\include\cstringt.h

; 184  : 		return _mbscmp( reinterpret_cast< const unsigned char* >( pszA ), reinterpret_cast< const unsigned char* >( pszB ) );

  001b7	68 00 00 00 00	 push	 OFFSET ??_C@_07CKHGFECF@revival@
  001bc	ff b5 24 ee ff
	ff		 push	 DWORD PTR _script$[ebp+32]
  001c2	e8 00 00 00 00	 call	 __mbscmp
  001c7	83 c4 08	 add	 esp, 8

; 2490 : 		return(str1.Compare(psz2) == 0);

  001ca	85 c0		 test	 eax, eax
; File C:\IAGOS\server\v18\Source\Source\_Common\worldfile.cpp

; 74   : 		if( script.Token == _T( "revival" ) )

  001cc	75 47		 jne	 SHORT $LN114@OpenWorld

; 75   : 		{
; 76   : 			m_dwIdWorldRevival = script.GetNumber();

  001ce	50		 push	 eax
  001cf	8d 8d 04 ee ff
	ff		 lea	 ecx, DWORD PTR _script$[ebp]
  001d5	e8 00 00 00 00	 call	 ?GetNumber@CScanner@@QAEHH@Z ; CScanner::GetNumber

; 77   : 			script.GetToken();

  001da	6a 00		 push	 0
  001dc	8d 8d 04 ee ff
	ff		 lea	 ecx, DWORD PTR _script$[ebp]
  001e2	89 83 00 93 08
	00		 mov	 DWORD PTR [ebx+561920], eax
  001e8	e8 00 00 00 00	 call	 ?GetToken@CScript@@UAEHH@Z ; CScript::GetToken

; 78   : 			strcpy( m_szKeyRevival, script.token );

  001ed	8b 8d 40 ee ff
	ff		 mov	 ecx, DWORD PTR _script$[ebp+60]
  001f3	8b d3		 mov	 edx, ebx
  001f5	2b d1		 sub	 edx, ecx
  001f7	66 0f 1f 84 00
	00 00 00 00	 npad	 9
$LL54@OpenWorld:
  00200	8a 01		 mov	 al, BYTE PTR [ecx]
  00202	8d 49 01	 lea	 ecx, DWORD PTR [ecx+1]
  00205	88 84 0a df 92
	08 00		 mov	 BYTE PTR [edx+ecx+561887], al
  0020c	84 c0		 test	 al, al
  0020e	75 f0		 jne	 SHORT $LL54@OpenWorld

; 79   : 		}

  00210	e9 0b 03 00 00	 jmp	 $LN2@OpenWorld
$LN114@OpenWorld:
; File C:\Program Files\Microsoft Visual Studio\2022\Professional\VC\Tools\MSVC\14.44.35207\atlmfc\include\cstringt.h

; 184  : 		return _mbscmp( reinterpret_cast< const unsigned char* >( pszA ), reinterpret_cast< const unsigned char* >( pszB ) );

  00215	68 00 00 00 00	 push	 OFFSET ??_C@_06BPDGOGCM@indoor@
  0021a	ff b5 24 ee ff
	ff		 push	 DWORD PTR _script$[ebp+32]
  00220	e8 00 00 00 00	 call	 __mbscmp
  00225	83 c4 08	 add	 esp, 8

; 2490 : 		return(str1.Compare(psz2) == 0);

  00228	85 c0		 test	 eax, eax
; File C:\IAGOS\server\v18\Source\Source\_Common\worldfile.cpp

; 81   : 		if( script.Token == _T( "indoor" ) )

  0022a	75 17		 jne	 SHORT $LN130@OpenWorld

; 82   : 		{
; 83   : 			m_bIsIndoor = script.GetNumber();

  0022c	50		 push	 eax
  0022d	8d 8d 04 ee ff
	ff		 lea	 ecx, DWORD PTR _script$[ebp]
  00233	e8 00 00 00 00	 call	 ?GetNumber@CScanner@@QAEHH@Z ; CScanner::GetNumber
  00238	89 83 08 93 08
	00		 mov	 DWORD PTR [ebx+561928], eax

; 84   : 		#if defined( __CLIENT ) 
; 85   : 			m_bViewSkybox = m_bViewWeather = !m_bIsIndoor;
; 86   : 		#endif //__CLIENT
; 87   : 		}

  0023e	e9 dd 02 00 00	 jmp	 $LN2@OpenWorld
$LN130@OpenWorld:
; File C:\Program Files\Microsoft Visual Studio\2022\Professional\VC\Tools\MSVC\14.44.35207\atlmfc\include\cstringt.h

; 184  : 		return _mbscmp( reinterpret_cast< const unsigned char* >( pszA ), reinterpret_cast< const unsigned char* >( pszB ) );

  00243	68 00 00 00 00	 push	 OFFSET ??_C@_03HPMGHIMH@fly@
  00248	ff b5 24 ee ff
	ff		 push	 DWORD PTR _script$[ebp+32]
  0024e	e8 00 00 00 00	 call	 __mbscmp
  00253	83 c4 08	 add	 esp, 8

; 2490 : 		return(str1.Compare(psz2) == 0);

  00256	85 c0		 test	 eax, eax
; File C:\IAGOS\server\v18\Source\Source\_Common\worldfile.cpp

; 89   : 		if( script.Token == _T( "fly" ) )

  00258	75 17		 jne	 SHORT $LN146@OpenWorld

; 90   : 		{
; 91   : 			m_bFly = script.GetNumber();

  0025a	50		 push	 eax
  0025b	8d 8d 04 ee ff
	ff		 lea	 ecx, DWORD PTR _script$[ebp]
  00261	e8 00 00 00 00	 call	 ?GetNumber@CScanner@@QAEHH@Z ; CScanner::GetNumber
  00266	89 83 04 93 08
	00		 mov	 DWORD PTR [ebx+561924], eax

; 92   : 		}

  0026c	e9 af 02 00 00	 jmp	 $LN2@OpenWorld
$LN146@OpenWorld:
; File C:\Program Files\Microsoft Visual Studio\2022\Professional\VC\Tools\MSVC\14.44.35207\atlmfc\include\cstringt.h

; 184  : 		return _mbscmp( reinterpret_cast< const unsigned char* >( pszA ), reinterpret_cast< const unsigned char* >( pszB ) );

  00271	68 00 00 00 00	 push	 OFFSET ??_C@_03NCFPNHCE@bgm@
  00276	ff b5 24 ee ff
	ff		 push	 DWORD PTR _script$[ebp+32]
  0027c	e8 00 00 00 00	 call	 __mbscmp
  00281	83 c4 08	 add	 esp, 8

; 2490 : 		return(str1.Compare(psz2) == 0);

  00284	85 c0		 test	 eax, eax
; File C:\IAGOS\server\v18\Source\Source\_Common\worldfile.cpp

; 94   : 		if( script.Token == _T( "bgm" ) )

  00286	75 17		 jne	 SHORT $LN162@OpenWorld

; 95   : 		{
; 96   : 			m_dwIdMusic = script.GetNumber();

  00288	50		 push	 eax
  00289	8d 8d 04 ee ff
	ff		 lea	 ecx, DWORD PTR _script$[ebp]
  0028f	e8 00 00 00 00	 call	 ?GetNumber@CScanner@@QAEHH@Z ; CScanner::GetNumber
  00294	89 83 1c 93 08
	00		 mov	 DWORD PTR [ebx+561948], eax

; 97   : 		}

  0029a	e9 81 02 00 00	 jmp	 $LN2@OpenWorld
$LN162@OpenWorld:
; File C:\Program Files\Microsoft Visual Studio\2022\Professional\VC\Tools\MSVC\14.44.35207\atlmfc\include\cstringt.h

; 184  : 		return _mbscmp( reinterpret_cast< const unsigned char* >( pszA ), reinterpret_cast< const unsigned char* >( pszB ) );

  0029f	68 00 00 00 00	 push	 OFFSET ??_C@_06LJHLKHIE@pkmode@
  002a4	ff b5 24 ee ff
	ff		 push	 DWORD PTR _script$[ebp+32]
  002aa	e8 00 00 00 00	 call	 __mbscmp
  002af	83 c4 08	 add	 esp, 8

; 2490 : 		return(str1.Compare(psz2) == 0);

  002b2	85 c0		 test	 eax, eax
; File C:\IAGOS\server\v18\Source\Source\_Common\worldfile.cpp

; 99   : 		if( script.Token == _T( "pkmode" ) )

  002b4	75 17		 jne	 SHORT $LN178@OpenWorld

; 100  : 		{
; 101  : 			m_nPKMode = script.GetNumber();

  002b6	50		 push	 eax
  002b7	8d 8d 04 ee ff
	ff		 lea	 ecx, DWORD PTR _script$[ebp]
  002bd	e8 00 00 00 00	 call	 ?GetNumber@CScanner@@QAEHH@Z ; CScanner::GetNumber
  002c2	89 83 20 93 08
	00		 mov	 DWORD PTR [ebx+561952], eax

; 102  : #if __VER <= 8
; 103  : 			// 8Â÷ ąöŔü ŔĚÇĎżˇĽ­´Â RA_PK¸¦ RA_PENALTY_PK·Î şŻ°ć
; 104  : 			if( m_nPKMode & RA_PK )
; 105  : 			{
; 106  : 				m_nPKMode	&= ~RA_PK;
; 107  : 				m_nPKMode	|= RA_PENALTY_PK;
; 108  : 			}
; 109  : #endif	// __VER
; 110  : 
; 111  : 		}

  002c8	e9 53 02 00 00	 jmp	 $LN2@OpenWorld
$LN178@OpenWorld:
; File C:\Program Files\Microsoft Visual Studio\2022\Professional\VC\Tools\MSVC\14.44.35207\atlmfc\include\cstringt.h

; 184  : 		return _mbscmp( reinterpret_cast< const unsigned char* >( pszA ), reinterpret_cast< const unsigned char* >( pszB ) );

  002cd	68 00 00 00 00	 push	 OFFSET ??_C@_07KFBPAAO@diffuse@
  002d2	ff b5 24 ee ff
	ff		 push	 DWORD PTR _script$[ebp+32]
  002d8	e8 00 00 00 00	 call	 __mbscmp
  002dd	83 c4 08	 add	 esp, 8

; 2490 : 		return(str1.Compare(psz2) == 0);

  002e0	85 c0		 test	 eax, eax
; File C:\IAGOS\server\v18\Source\Source\_Common\worldfile.cpp

; 113  : 		if( script.Token == _T( "diffuse" ) )

  002e2	75 17		 jne	 SHORT $LN194@OpenWorld

; 114  : 		{
; 115  : 			m_dwDiffuse = script.GetHex();

  002e4	50		 push	 eax
  002e5	8d 8d 04 ee ff
	ff		 lea	 ecx, DWORD PTR _script$[ebp]
  002eb	e8 00 00 00 00	 call	 ?GetHex@CScanner@@QAEKH@Z ; CScanner::GetHex
  002f0	89 83 0c 93 08
	00		 mov	 DWORD PTR [ebx+561932], eax

; 116  : 		}

  002f6	e9 25 02 00 00	 jmp	 $LN2@OpenWorld
$LN194@OpenWorld:
; File C:\Program Files\Microsoft Visual Studio\2022\Professional\VC\Tools\MSVC\14.44.35207\atlmfc\include\cstringt.h

; 184  : 		return _mbscmp( reinterpret_cast< const unsigned char* >( pszA ), reinterpret_cast< const unsigned char* >( pszB ) );

  002fb	68 00 00 00 00	 push	 OFFSET ??_C@_08IEJILPJD@lightDir@
  00300	ff b5 24 ee ff
	ff		 push	 DWORD PTR _script$[ebp+32]
  00306	e8 00 00 00 00	 call	 __mbscmp
  0030b	83 c4 08	 add	 esp, 8

; 2490 : 		return(str1.Compare(psz2) == 0);

  0030e	85 c0		 test	 eax, eax
; File C:\IAGOS\server\v18\Source\Source\_Common\worldfile.cpp

; 118  : 		if( script.Token == _T( "lightDir" ) )

  00310	75 3d		 jne	 SHORT $LN210@OpenWorld

; 119  : 		{
; 120  : 			m_v3LightDir.x = script.GetFloat();

  00312	50		 push	 eax
  00313	8d 8d 04 ee ff
	ff		 lea	 ecx, DWORD PTR _script$[ebp]
  00319	e8 00 00 00 00	 call	 ?GetFloat@CScanner@@QAEMH@Z ; CScanner::GetFloat
  0031e	d9 9b 10 93 08
	00		 fstp	 DWORD PTR [ebx+561936]

; 121  : 			m_v3LightDir.y = script.GetFloat();

  00324	6a 00		 push	 0
  00326	8d 8d 04 ee ff
	ff		 lea	 ecx, DWORD PTR _script$[ebp]
  0032c	e8 00 00 00 00	 call	 ?GetFloat@CScanner@@QAEMH@Z ; CScanner::GetFloat
  00331	d9 9b 14 93 08
	00		 fstp	 DWORD PTR [ebx+561940]

; 122  : 			m_v3LightDir.z = script.GetFloat();

  00337	6a 00		 push	 0
  00339	8d 8d 04 ee ff
	ff		 lea	 ecx, DWORD PTR _script$[ebp]
  0033f	e8 00 00 00 00	 call	 ?GetFloat@CScanner@@QAEMH@Z ; CScanner::GetFloat
  00344	d9 9b 18 93 08
	00		 fstp	 DWORD PTR [ebx+561944]

; 123  : 		}

  0034a	e9 d1 01 00 00	 jmp	 $LN2@OpenWorld
$LN210@OpenWorld:
; File C:\Program Files\Microsoft Visual Studio\2022\Professional\VC\Tools\MSVC\14.44.35207\atlmfc\include\cstringt.h

; 184  : 		return _mbscmp( reinterpret_cast< const unsigned char* >( pszA ), reinterpret_cast< const unsigned char* >( pszB ) );

  0034f	68 00 00 00 00	 push	 OFFSET ??_C@_0L@IEOKJMIE@fogSetting@
  00354	ff b5 24 ee ff
	ff		 push	 DWORD PTR _script$[ebp+32]
  0035a	e8 00 00 00 00	 call	 __mbscmp
  0035f	83 c4 08	 add	 esp, 8

; 2490 : 		return(str1.Compare(psz2) == 0);

  00362	85 c0		 test	 eax, eax
; File C:\IAGOS\server\v18\Source\Source\_Common\worldfile.cpp

; 125  : 		if( script.Token == _T( "fogSetting" ) )

  00364	0f 84 b6 01 00
	00		 je	 $LN2@OpenWorld
; File C:\Program Files\Microsoft Visual Studio\2022\Professional\VC\Tools\MSVC\14.44.35207\atlmfc\include\cstringt.h

; 184  : 		return _mbscmp( reinterpret_cast< const unsigned char* >( pszA ), reinterpret_cast< const unsigned char* >( pszB ) );

  0036a	68 00 00 00 00	 push	 OFFSET ??_C@_03BMLFCHKC@MPU@
  0036f	ff b5 24 ee ff
	ff		 push	 DWORD PTR _script$[ebp+32]
  00375	e8 00 00 00 00	 call	 __mbscmp
  0037a	83 c4 08	 add	 esp, 8

; 2490 : 		return(str1.Compare(psz2) == 0);

  0037d	85 c0		 test	 eax, eax
; File C:\IAGOS\server\v18\Source\Source\_Common\worldfile.cpp

; 139  : 		if( script.Token == __T("MPU") )

  0037f	75 1d		 jne	 SHORT $LN274@OpenWorld

; 140  : 		{
; 141  : 			bLoaded_MPU = true;
; 142  : 			g_MPU = script.GetNumber( );

  00381	50		 push	 eax
  00382	8d 8d 04 ee ff
	ff		 lea	 ecx, DWORD PTR _script$[ebp]
  00388	c6 85 03 ee ff
	ff 01		 mov	 BYTE PTR _bLoaded_MPU$1$[ebp], 1
  0038f	e8 00 00 00 00	 call	 ?GetNumber@CScanner@@QAEHH@Z ; CScanner::GetNumber
  00394	a3 00 00 00 00	 mov	 DWORD PTR ?g_MPU@@3HA, eax ; g_MPU

; 143  : 		}

  00399	e9 82 01 00 00	 jmp	 $LN2@OpenWorld
$LN274@OpenWorld:
; File C:\Program Files\Microsoft Visual Studio\2022\Professional\VC\Tools\MSVC\14.44.35207\atlmfc\include\cstringt.h

; 184  : 		return _mbscmp( reinterpret_cast< const unsigned char* >( pszA ), reinterpret_cast< const unsigned char* >( pszB ) );

  0039e	68 00 00 00 00	 push	 OFFSET ??_C@_03BNEOMJOP@sky@
  003a3	ff b5 24 ee ff
	ff		 push	 DWORD PTR _script$[ebp+32]
  003a9	e8 00 00 00 00	 call	 __mbscmp
  003ae	83 c4 08	 add	 esp, 8

; 2490 : 		return(str1.Compare(psz2) == 0);

  003b1	85 c0		 test	 eax, eax
; File C:\IAGOS\server\v18\Source\Source\_Common\worldfile.cpp

; 148  : 		if( script.Token == __T( "sky" ) )

  003b3	75 5a		 jne	 SHORT $LN290@OpenWorld

; 149  : 		{
; 150  : 			for( int i=0; i<3; ++i)

  003b5	33 ff		 xor	 edi, edi
  003b7	8d b3 64 7f 0e
	00		 lea	 esi, DWORD PTR [ebx+950116]
  003bd	0f 1f 00	 npad	 3
$LL7@OpenWorld:

; 151  : 			{
; 152  : 				script.GetToken();

  003c0	6a 00		 push	 0
  003c2	8d 8d 04 ee ff
	ff		 lea	 ecx, DWORD PTR _script$[ebp]
  003c8	e8 00 00 00 00	 call	 ?GetToken@CScript@@UAEHH@Z ; CScript::GetToken

; 153  : 				if( DEFAULT_FNAME != script.Token )

  003cd	a1 00 00 00 00	 mov	 eax, DWORD PTR ?DEFAULT_FNAME@@3PBDB ; DEFAULT_FNAME
; File C:\Program Files\Microsoft Visual Studio\2022\Professional\VC\Tools\MSVC\14.44.35207\atlmfc\include\atlcore.h

; 94   : 	return (psz != NULL);

  003d2	85 c0		 test	 eax, eax
; File C:\Program Files\Microsoft Visual Studio\2022\Professional\VC\Tools\MSVC\14.44.35207\atlmfc\include\cstringt.h

; 1452 : 		ATLENSURE( AtlIsValidString( psz ) );

  003d4	0f 84 f3 02 00
	00		 je	 $LN409@OpenWorld

; 184  : 		return _mbscmp( reinterpret_cast< const unsigned char* >( pszA ), reinterpret_cast< const unsigned char* >( pszB ) );

  003da	50		 push	 eax
  003db	ff b5 24 ee ff
	ff		 push	 DWORD PTR _script$[ebp+32]
  003e1	e8 00 00 00 00	 call	 __mbscmp
  003e6	83 c4 08	 add	 esp, 8

; 2578 : 		return( str2.Compare( psz1 ) != 0 );

  003e9	85 c0		 test	 eax, eax
; File C:\IAGOS\server\v18\Source\Source\_Common\worldfile.cpp

; 153  : 				if( DEFAULT_FNAME != script.Token )

  003eb	74 14		 je	 SHORT $LN5@OpenWorld

; 154  : 				{
; 155  : 					m_kWorldEnvir._kSky[i]._bUse = TRUE;
; 156  : 					m_kWorldEnvir._kSky[i]._strFileName = script.token;

  003ed	ff b5 40 ee ff
	ff		 push	 DWORD PTR _script$[ebp+60]
  003f3	8b ce		 mov	 ecx, esi
  003f5	c7 46 fc 01 00
	00 00		 mov	 DWORD PTR [esi-4], 1
  003fc	e8 00 00 00 00	 call	 ??4?$basic_string@DU?$char_traits@D@std@@V?$allocator@D@2@@std@@QAEAAV01@QBD@Z ; std::basic_string<char,std::char_traits<char>,std::allocator<char> >::operator=
$LN5@OpenWorld:

; 149  : 		{
; 150  : 			for( int i=0; i<3; ++i)

  00401	47		 inc	 edi
  00402	83 c6 20	 add	 esi, 32			; 00000020H
  00405	83 ff 03	 cmp	 edi, 3
  00408	7c b6		 jl	 SHORT $LL7@OpenWorld

; 157  : 				}
; 158  : 			}
; 159  : 			
; 160  : 		}

  0040a	e9 11 01 00 00	 jmp	 $LN2@OpenWorld
$LN290@OpenWorld:
; File C:\Program Files\Microsoft Visual Studio\2022\Professional\VC\Tools\MSVC\14.44.35207\atlmfc\include\cstringt.h

; 184  : 		return _mbscmp( reinterpret_cast< const unsigned char* >( pszA ), reinterpret_cast< const unsigned char* >( pszB ) );

  0040f	68 00 00 00 00	 push	 OFFSET ??_C@_05KMHBFKKJ@cloud@
  00414	ff b5 24 ee ff
	ff		 push	 DWORD PTR _script$[ebp+32]
  0041a	e8 00 00 00 00	 call	 __mbscmp
  0041f	83 c4 08	 add	 esp, 8

; 2490 : 		return(str1.Compare(psz2) == 0);

  00422	85 c0		 test	 eax, eax
; File C:\IAGOS\server\v18\Source\Source\_Common\worldfile.cpp

; 162  : 		if( script.Token == __T( "cloud" ) )

  00424	75 59		 jne	 SHORT $LN306@OpenWorld

; 163  : 		{
; 164  : 			for( int i=0; i<3; ++i)

  00426	33 ff		 xor	 edi, edi
  00428	8d b3 c4 7f 0e
	00		 lea	 esi, DWORD PTR [ebx+950212]
  0042e	66 90		 npad	 2
$LL10@OpenWorld:

; 165  : 			{
; 166  : 				script.GetToken();

  00430	6a 00		 push	 0
  00432	8d 8d 04 ee ff
	ff		 lea	 ecx, DWORD PTR _script$[ebp]
  00438	e8 00 00 00 00	 call	 ?GetToken@CScript@@UAEHH@Z ; CScript::GetToken

; 167  : 				if( DEFAULT_FNAME != script.Token )

  0043d	a1 00 00 00 00	 mov	 eax, DWORD PTR ?DEFAULT_FNAME@@3PBDB ; DEFAULT_FNAME
; File C:\Program Files\Microsoft Visual Studio\2022\Professional\VC\Tools\MSVC\14.44.35207\atlmfc\include\atlcore.h

; 94   : 	return (psz != NULL);

  00442	85 c0		 test	 eax, eax
; File C:\Program Files\Microsoft Visual Studio\2022\Professional\VC\Tools\MSVC\14.44.35207\atlmfc\include\cstringt.h

; 1452 : 		ATLENSURE( AtlIsValidString( psz ) );

  00444	0f 84 83 02 00
	00		 je	 $LN409@OpenWorld

; 184  : 		return _mbscmp( reinterpret_cast< const unsigned char* >( pszA ), reinterpret_cast< const unsigned char* >( pszB ) );

  0044a	50		 push	 eax
  0044b	ff b5 24 ee ff
	ff		 push	 DWORD PTR _script$[ebp+32]
  00451	e8 00 00 00 00	 call	 __mbscmp
  00456	83 c4 08	 add	 esp, 8

; 2578 : 		return( str2.Compare( psz1 ) != 0 );

  00459	85 c0		 test	 eax, eax
; File C:\IAGOS\server\v18\Source\Source\_Common\worldfile.cpp

; 167  : 				if( DEFAULT_FNAME != script.Token )

  0045b	74 14		 je	 SHORT $LN8@OpenWorld

; 168  : 				{
; 169  : 					m_kWorldEnvir._kCloud[i]._bUse = TRUE;
; 170  : 					m_kWorldEnvir._kCloud[i]._strFileName = script.token;

  0045d	ff b5 40 ee ff
	ff		 push	 DWORD PTR _script$[ebp+60]
  00463	8b ce		 mov	 ecx, esi
  00465	c7 46 fc 01 00
	00 00		 mov	 DWORD PTR [esi-4], 1
  0046c	e8 00 00 00 00	 call	 ??4?$basic_string@DU?$char_traits@D@std@@V?$allocator@D@2@@std@@QAEAAV01@QBD@Z ; std::basic_string<char,std::char_traits<char>,std::allocator<char> >::operator=
$LN8@OpenWorld:

; 163  : 		{
; 164  : 			for( int i=0; i<3; ++i)

  00471	47		 inc	 edi
  00472	83 c6 20	 add	 esi, 32			; 00000020H
  00475	83 ff 03	 cmp	 edi, 3
  00478	7c b6		 jl	 SHORT $LL10@OpenWorld

; 171  : 				}
; 172  : 			}
; 173  : 		}

  0047a	e9 a1 00 00 00	 jmp	 $LN2@OpenWorld
$LN306@OpenWorld:
; File C:\Program Files\Microsoft Visual Studio\2022\Professional\VC\Tools\MSVC\14.44.35207\atlmfc\include\cstringt.h

; 184  : 		return _mbscmp( reinterpret_cast< const unsigned char* >( pszA ), reinterpret_cast< const unsigned char* >( pszB ) );

  0047f	68 00 00 00 00	 push	 OFFSET ??_C@_03OHFMDAD@sun@
  00484	ff b5 24 ee ff
	ff		 push	 DWORD PTR _script$[ebp+32]
  0048a	e8 00 00 00 00	 call	 __mbscmp
  0048f	83 c4 08	 add	 esp, 8

; 2490 : 		return(str1.Compare(psz2) == 0);

  00492	85 c0		 test	 eax, eax
; File C:\IAGOS\server\v18\Source\Source\_Common\worldfile.cpp

; 175  : 		if( script.Token  == __T( "sun" ) )

  00494	74 17		 je	 SHORT $LN440@OpenWorld
; File C:\Program Files\Microsoft Visual Studio\2022\Professional\VC\Tools\MSVC\14.44.35207\atlmfc\include\cstringt.h

; 184  : 		return _mbscmp( reinterpret_cast< const unsigned char* >( pszA ), reinterpret_cast< const unsigned char* >( pszB ) );

  00496	68 00 00 00 00	 push	 OFFSET ??_C@_04IDMPJGHP@moon@
  0049b	ff b5 24 ee ff
	ff		 push	 DWORD PTR _script$[ebp+32]
  004a1	e8 00 00 00 00	 call	 __mbscmp
  004a6	83 c4 08	 add	 esp, 8

; 2490 : 		return(str1.Compare(psz2) == 0);

  004a9	85 c0		 test	 eax, eax
; File C:\IAGOS\server\v18\Source\Source\_Common\worldfile.cpp

; 185  : 		if( script.Token == __T( "moon" ) )

  004ab	75 4a		 jne	 SHORT $LN370@OpenWorld
$LN440@OpenWorld:

; 198  : 		}
; 199  : #ifdef __BS_CHANGEABLE_WORLD_SEACLOUD
; 200  : 		else
; 201  : 		if( script.Token == __T( "seacloud" ) )
; 202  : 		{
; 203  : 			script.GetToken( );
; 204  : 			if( DEFAULT_FNAME != script.Token )
; 205  : 			{
; 206  : 				m_kSeaCloud._bUse = TRUE;
; 207  : 				m_kSeaCloud._strFileName = script.token;
; 208  : 			}
; 209  : 		}
; 210  : #endif //__BS_CHANGEABLE_WORLD_SEACLOUD
; 211  : 
; 212  : #endif
; 213  : 	} while( script.tok != FINISHED );

  004ad	6a 00		 push	 0
  004af	8d 8d 04 ee ff
	ff		 lea	 ecx, DWORD PTR _script$[ebp]
  004b5	e8 00 00 00 00	 call	 ?GetToken@CScript@@UAEHH@Z ; CScript::GetToken
  004ba	a1 00 00 00 00	 mov	 eax, DWORD PTR ?DEFAULT_FNAME@@3PBDB ; DEFAULT_FNAME
  004bf	85 c0		 test	 eax, eax
  004c1	0f 84 06 02 00
	00		 je	 $LN409@OpenWorld
  004c7	50		 push	 eax
  004c8	ff b5 24 ee ff
	ff		 push	 DWORD PTR _script$[ebp+32]
  004ce	e8 00 00 00 00	 call	 __mbscmp
  004d3	83 c4 08	 add	 esp, 8
  004d6	85 c0		 test	 eax, eax
  004d8	74 46		 je	 SHORT $LN2@OpenWorld
  004da	ff b5 40 ee ff
	ff		 push	 DWORD PTR _script$[ebp+60]
  004e0	8d 8b 24 80 0e
	00		 lea	 ecx, DWORD PTR [ebx+950308]
  004e6	c7 83 20 80 0e
	00 01 00 00 00	 mov	 DWORD PTR [ebx+950304], 1
  004f0	e8 00 00 00 00	 call	 ??4?$basic_string@DU?$char_traits@D@std@@V?$allocator@D@2@@std@@QAEAAV01@QBD@Z ; std::basic_string<char,std::char_traits<char>,std::allocator<char> >::operator=
  004f5	eb 29		 jmp	 SHORT $LN2@OpenWorld
$LN370@OpenWorld:
; File C:\Program Files\Microsoft Visual Studio\2022\Professional\VC\Tools\MSVC\14.44.35207\atlmfc\include\cstringt.h

; 184  : 		return _mbscmp( reinterpret_cast< const unsigned char* >( pszA ), reinterpret_cast< const unsigned char* >( pszB ) );

  004f7	68 00 00 00 00	 push	 OFFSET ??_C@_0L@MLDBKMFO@use24light@
  004fc	ff b5 24 ee ff
	ff		 push	 DWORD PTR _script$[ebp+32]
  00502	e8 00 00 00 00	 call	 __mbscmp
  00507	83 c4 08	 add	 esp, 8

; 2490 : 		return(str1.Compare(psz2) == 0);

  0050a	85 c0		 test	 eax, eax
; File C:\IAGOS\server\v18\Source\Source\_Common\worldfile.cpp

; 195  : 		if( script.Token == __T( "use24light" ) )

  0050c	75 12		 jne	 SHORT $LN2@OpenWorld

; 196  : 		{
; 197  : 			m_bUsing24Light = script.GetNumber( );

  0050e	50		 push	 eax
  0050f	8d 8d 04 ee ff
	ff		 lea	 ecx, DWORD PTR _script$[ebp]
  00515	e8 00 00 00 00	 call	 ?GetNumber@CScanner@@QAEHH@Z ; CScanner::GetNumber
  0051a	89 83 a8 7d 0e
	00		 mov	 DWORD PTR [ebx+949672], eax
$LN2@OpenWorld:

; 198  : 		}
; 199  : #ifdef __BS_CHANGEABLE_WORLD_SEACLOUD
; 200  : 		else
; 201  : 		if( script.Token == __T( "seacloud" ) )
; 202  : 		{
; 203  : 			script.GetToken( );
; 204  : 			if( DEFAULT_FNAME != script.Token )
; 205  : 			{
; 206  : 				m_kSeaCloud._bUse = TRUE;
; 207  : 				m_kSeaCloud._strFileName = script.token;
; 208  : 			}
; 209  : 		}
; 210  : #endif //__BS_CHANGEABLE_WORLD_SEACLOUD
; 211  : 
; 212  : #endif
; 213  : 	} while( script.tok != FINISHED );

  00520	83 bd 48 f6 ff
	ff 15		 cmp	 DWORD PTR _script$[ebp+2116], 21 ; 00000015H
  00527	0f 85 13 fc ff
	ff		 jne	 $LL4@OpenWorld

; 214  : 
; 215  : 	if( !bLoaded_MPU )

  0052d	80 bd 03 ee ff
	ff 00		 cmp	 BYTE PTR _bLoaded_MPU$1$[ebp], 0
  00534	75 0a		 jne	 SHORT $LN49@OpenWorld

; 216  : 		g_MPU = OLD_MPU;

  00536	a1 00 00 00 00	 mov	 eax, DWORD PTR ?OLD_MPU@@3HB ; OLD_MPU
  0053b	a3 00 00 00 00	 mov	 DWORD PTR ?g_MPU@@3HA, eax ; g_MPU
$LN49@OpenWorld:

; 217  : 
; 218  : #ifdef __CLIENT
; 219  : 	m_nVisibilityLand	= (int)( m_fFarPlane / ( MAP_SIZE * MPU ) );
; 220  : #endif
; 221  : 
; 222  : #if __VER >= 15 // __DYNAMIC_MPU					// gmpbigsun:ż©±âĽ­ ĂÖĂĘ MPU¸¦ şŻ°ć, ŔĚ°÷żˇĽ­ MPU°ŞŔ» OLD_MPU·Î ĽłÁ¤ÇĎ¸é 4·Î °íÁ¤µÇľî żąŔü°ú °°Ŕ˝.
; 223  : 	m_iMPU = g_MPU;						// __DYNAMIC_MPU°ˇ ĽłÁ¤µČ °ćżě ".wld"ĆÄŔĎżˇĽ­ ŔĐŔş MPU°ŞŔ» »çżëÇŃ´Ů.!!!!!!!!!!!!!!!!!!!!!!!!

  00540	a1 00 00 00 00	 mov	 eax, DWORD PTR ?g_MPU@@3HA ; g_MPU
  00545	89 43 14	 mov	 DWORD PTR [ebx+20], eax

; 224  : #else
; 225  : 	m_iMPU = OLD_MPU;
; 226  : #endif
; 227  : 
; 228  : 	// ĆÄŔĎ¸í ş¸°ü 
; 229  : 	_splitpath( szPathName, drive, dir, name, ext );

  00548	8d 85 ec fb ff
	ff		 lea	 eax, DWORD PTR _ext$[ebp]
  0054e	50		 push	 eax
  0054f	8d 85 ec fd ff
	ff		 lea	 eax, DWORD PTR _name$[ebp]
  00555	50		 push	 eax
  00556	8d 85 ec fc ff
	ff		 lea	 eax, DWORD PTR _dir$[ebp]
  0055c	50		 push	 eax
  0055d	8d 85 fc ed ff
	ff		 lea	 eax, DWORD PTR _drive$[ebp]
  00563	50		 push	 eax
  00564	8d 85 ec fe ff
	ff		 lea	 eax, DWORD PTR _szPathName$[ebp]
  0056a	50		 push	 eax
  0056b	e8 00 00 00 00	 call	 __splitpath

; 230  : 	strcpy( m_szFilePath, dir );

  00570	8d 8d ec fc ff
	ff		 lea	 ecx, DWORD PTR _dir$[ebp]
  00576	8b d3		 mov	 edx, ebx
  00578	8b c1		 mov	 eax, ecx
  0057a	83 c4 14	 add	 esp, 20			; 00000014H
  0057d	2b d0		 sub	 edx, eax
  0057f	90		 npad	 1
$LL55@OpenWorld:
  00580	8a 01		 mov	 al, BYTE PTR [ecx]
  00582	8d 49 01	 lea	 ecx, DWORD PTR [ecx+1]
  00585	88 84 0a 1b 91
	08 00		 mov	 BYTE PTR [edx+ecx+561435], al
  0058c	84 c0		 test	 al, al
  0058e	75 f0		 jne	 SHORT $LL55@OpenWorld

; 231  : 	strcpy( m_szFileName, name );

  00590	8d 8d ec fd ff
	ff		 lea	 ecx, DWORD PTR _name$[ebp]
  00596	8d 93 20 92 08
	00		 lea	 edx, DWORD PTR [ebx+561696]
  0059c	8b c1		 mov	 eax, ecx
  0059e	8b f2		 mov	 esi, edx
  005a0	2b f0		 sub	 esi, eax
$LL56@OpenWorld:
  005a2	8a 01		 mov	 al, BYTE PTR [ecx]
  005a4	8d 49 01	 lea	 ecx, DWORD PTR [ecx+1]
  005a7	88 44 0e ff	 mov	 BYTE PTR [esi+ecx-1], al
  005ab	84 c0		 test	 al, al
  005ad	75 f3		 jne	 SHORT $LL56@OpenWorld

; 232  : 	strcat( m_szFileName, ext );

  005af	8d b5 ec fb ff
	ff		 lea	 esi, DWORD PTR _ext$[ebp]
  005b5	8b ce		 mov	 ecx, esi
  005b7	89 8d f8 ed ff
	ff		 mov	 DWORD PTR tv1468[ebp], ecx
  005bd	0f 1f 00	 npad	 3
$LL435@OpenWorld:
  005c0	8a 06		 mov	 al, BYTE PTR [esi]
  005c2	46		 inc	 esi
  005c3	84 c0		 test	 al, al
  005c5	75 f9		 jne	 SHORT $LL435@OpenWorld
  005c7	2b f1		 sub	 esi, ecx
  005c9	8d 7a ff	 lea	 edi, DWORD PTR [edx-1]
  005cc	0f 1f 40 00	 npad	 4
$LL436@OpenWorld:
  005d0	8a 47 01	 mov	 al, BYTE PTR [edi+1]
  005d3	47		 inc	 edi
  005d4	84 c0		 test	 al, al
  005d6	75 f8		 jne	 SHORT $LL436@OpenWorld
  005d8	8b ce		 mov	 ecx, esi
  005da	89 b5 f4 ed ff
	ff		 mov	 DWORD PTR tv1435[ebp], esi
  005e0	8b b5 f8 ed ff
	ff		 mov	 esi, DWORD PTR tv1468[ebp]
  005e6	c1 e9 02	 shr	 ecx, 2
  005e9	f3 a5		 rep movsd
  005eb	8b 8d f4 ed ff
	ff		 mov	 ecx, DWORD PTR tv1435[ebp]
  005f1	83 e1 03	 and	 ecx, 3
  005f4	f3 a4		 rep movsb
  005f6	66 66 0f 1f 84
	00 00 00 00 00	 npad	 10
$LL57@OpenWorld:

; 233  : 
; 234  : #ifdef __WORLDSERVER
; 235  : 	_tcscpy( m_lpszWorld, m_szFileName );

  00600	8a 02		 mov	 al, BYTE PTR [edx]
  00602	8d 52 01	 lea	 edx, DWORD PTR [edx+1]
  00605	88 82 3b 9e ff
	ff		 mov	 BYTE PTR [edx-25029], al
  0060b	84 c0		 test	 al, al
  0060d	75 f1		 jne	 SHORT $LL57@OpenWorld

; 236  : 
; 237  : 	int nView = 1;								// ˝Ăľß 1 = 64ąĚĹÍ 
; 238  : 	if( m_dwWorldID == WI_WORLD_GUILDWAR )	// ±ćµĺ´ëŔü ¸ĘŔş ˝Ăľß 2ąč 
; 239  : 		nView = 2;
; 240  : 
; 241  : #if __VER >= 15 // __GUILD_HOUSE
; 242  : 	nView = nView + ( OLD_MPU - m_iMPU );
; 243  : #endif
; 244  : 
; 245  : 	m_linkMap.Init( m_nLandWidth, m_nLandHeight, nView, TRUE, m_iMPU );

  0060f	8b 4b 14	 mov	 ecx, DWORD PTR [ebx+20]
  00612	33 c0		 xor	 eax, eax
  00614	81 3b ca 00 00
	00		 cmp	 DWORD PTR [ebx], 202	; 000000caH
  0061a	51		 push	 ecx
  0061b	0f 94 c0	 sete	 al
  0061e	40		 inc	 eax
  0061f	2b c1		 sub	 eax, ecx
  00621	8d 4b 24	 lea	 ecx, DWORD PTR [ebx+36]
  00624	03 05 00 00 00
	00		 add	 eax, DWORD PTR ?OLD_MPU@@3HB ; OLD_MPU
  0062a	6a 01		 push	 1
  0062c	50		 push	 eax
  0062d	ff 73 08	 push	 DWORD PTR [ebx+8]
  00630	ff 73 04	 push	 DWORD PTR [ebx+4]
  00633	e8 00 00 00 00	 call	 ?Init@CLayeredLinkMap@@QAEXHHHHH@Z ; CLayeredLinkMap::Init

; 246  : 	m_apHeightMap = new float[ WORLD_WIDTH * WORLD_HEIGHT ];

  00638	8b 43 10	 mov	 eax, DWORD PTR [ebx+16]
  0063b	b9 04 00 00 00	 mov	 ecx, 4
  00640	0f af 43 0c	 imul	 eax, DWORD PTR [ebx+12]
  00644	be ff ff ff ff	 mov	 esi, -1
  00649	f7 e1		 mul	 ecx
  0064b	0f 42 c6	 cmovb	 eax, esi
  0064e	50		 push	 eax
  0064f	e8 00 00 00 00	 call	 ??_U@YAPAXI@Z		; operator new[]

; 247  : 	memset( m_apHeightMap, 0, sizeof( float ) * WORLD_WIDTH * WORLD_HEIGHT );

  00654	8b 4b 10	 mov	 ecx, DWORD PTR [ebx+16]
  00657	0f af 4b 0c	 imul	 ecx, DWORD PTR [ebx+12]
  0065b	89 43 1c	 mov	 DWORD PTR [ebx+28], eax
  0065e	c1 e1 02	 shl	 ecx, 2
  00661	51		 push	 ecx
  00662	6a 00		 push	 0
  00664	50		 push	 eax
  00665	e8 00 00 00 00	 call	 _memset

; 248  : 	m_apWaterHeight = new WATERHEIGHT[ NUM_PATCHES_PER_SIDE * m_nLandWidth * NUM_PATCHES_PER_SIDE * m_nLandHeight ];

  0066a	8b 43 08	 mov	 eax, DWORD PTR [ebx+8]
  0066d	b9 02 00 00 00	 mov	 ecx, 2
  00672	0f af 43 04	 imul	 eax, DWORD PTR [ebx+4]
  00676	c1 e0 08	 shl	 eax, 8
  00679	f7 e1		 mul	 ecx
  0067b	0f 42 c6	 cmovb	 eax, esi
  0067e	50		 push	 eax
  0067f	e8 00 00 00 00	 call	 ??_U@YAPAXI@Z		; operator new[]

; 249  : 	memset( m_apWaterHeight, 0, sizeof( WATERHEIGHT) * NUM_PATCHES_PER_SIDE * m_nLandWidth * NUM_PATCHES_PER_SIDE * m_nLandHeight );

  00684	8b 4b 08	 mov	 ecx, DWORD PTR [ebx+8]
  00687	0f af 4b 04	 imul	 ecx, DWORD PTR [ebx+4]
  0068b	89 43 20	 mov	 DWORD PTR [ebx+32], eax
  0068e	c1 e1 09	 shl	 ecx, 9
  00691	51		 push	 ecx
  00692	6a 00		 push	 0
  00694	50		 push	 eax
  00695	e8 00 00 00 00	 call	 _memset
  0069a	83 c4 20	 add	 esp, 32			; 00000020H

; 250  : #else	// __WORLDSERVER
; 251  : 	m_apLand = new CLandscape * [ m_nLandWidth * m_nLandHeight ];
; 252  : 	memset( m_apLand, 0, sizeof( CLandscape*) * m_nLandWidth * m_nLandHeight );
; 253  : 	LoadRegion();
; 254  : 
; 255  : #if __VER >= 15 // __BS_CHANGING_ENVIR
; 256  : 	InitWorldEnvir( szPathName );
; 257  : 	InitContinent( szPathName );
; 258  : #else
; 259  : 	InitWorldEnvir( );
; 260  : #endif 
; 261  : 
; 262  : 	
; 263  : 
; 264  : #endif	// __WORLDSERVER
; 265  : 
; 266  : 	return TRUE;

  0069d	be 01 00 00 00	 mov	 esi, 1
$LN59@OpenWorld:
  006a2	8d 8d 04 ee ff
	ff		 lea	 ecx, DWORD PTR _script$[ebp]
  006a8	e8 00 00 00 00	 call	 ??1CScript@@UAE@XZ	; CScript::~CScript
  006ad	8b c6		 mov	 eax, esi

; 267  : }

  006af	8b 4d f4	 mov	 ecx, DWORD PTR __$EHRec$[ebp]
  006b2	64 89 0d 00 00
	00 00		 mov	 DWORD PTR fs:0, ecx
  006b9	59		 pop	 ecx
  006ba	5f		 pop	 edi
  006bb	5e		 pop	 esi
  006bc	5b		 pop	 ebx
  006bd	8b 4d f0	 mov	 ecx, DWORD PTR __$ArrayPad$[ebp]
  006c0	33 cd		 xor	 ecx, ebp
  006c2	e8 00 00 00 00	 call	 @__security_check_cookie@4
  006c7	8b e5		 mov	 esp, ebp
  006c9	5d		 pop	 ebp
  006ca	c2 08 00	 ret	 8
$LN409@OpenWorld:
; File C:\Program Files\Microsoft Visual Studio\2022\Professional\VC\Tools\MSVC\14.44.35207\atlmfc\include\cstringt.h

; 1452 : 		ATLENSURE( AtlIsValidString( psz ) );

  006cd	68 05 40 00 80	 push	 -2147467259		; 80004005H
  006d2	e8 00 00 00 00	 call	 ?AtlThrowImpl@ATL@@YGXJ@Z ; ATL::AtlThrowImpl
$LN439@OpenWorld:
  006d7	cc		 int	 3
_TEXT	ENDS
;	COMDAT text$x
text$x	SEGMENT
__unwindfunclet$?OpenWorld@CWorld@@QAEHPBDH@Z$0:
  00000	8d 8d 04 ee ff
	ff		 lea	 ecx, DWORD PTR _script$[ebp]
  00006	e9 00 00 00 00	 jmp	 ??1CScript@@UAE@XZ	; CScript::~CScript
  0000b	cc		 int	 3
  0000c	cc		 int	 3
  0000d	cc		 int	 3
  0000e	cc		 int	 3
  0000f	cc		 int	 3
__ehhandler$?OpenWorld@CWorld@@QAEHPBDH@Z:
  00010	90		 npad	 1
  00011	90		 npad	 1
  00012	8b 54 24 08	 mov	 edx, DWORD PTR [esp+8]
  00016	8d 42 0c	 lea	 eax, DWORD PTR [edx+12]
  00019	8b 8a f0 ed ff
	ff		 mov	 ecx, DWORD PTR [edx-4624]
  0001f	33 c8		 xor	 ecx, eax
  00021	e8 00 00 00 00	 call	 @__security_check_cookie@4
  00026	8b 4a fc	 mov	 ecx, DWORD PTR [edx-4]
  00029	33 c8		 xor	 ecx, eax
  0002b	e8 00 00 00 00	 call	 @__security_check_cookie@4
  00030	b8 00 00 00 00	 mov	 eax, OFFSET __ehfuncinfo$?OpenWorld@CWorld@@QAEHPBDH@Z
  00035	e9 00 00 00 00	 jmp	 ___CxxFrameHandler3
text$x	ENDS
?OpenWorld@CWorld@@QAEHPBDH@Z ENDP			; CWorld::OpenWorld
; Function compile flags: /Ogtp
; File C:\IAGOS\server\v18\Source\Source\_Common\worldfile.cpp
; File C:\Program Files\Microsoft Visual Studio\2022\Professional\VC\Tools\MSVC\14.44.35207\include\vector
; File C:\IAGOS\server\v18\Source\Source\_Common\worldfile.cpp
; File C:\Program Files\Microsoft Visual Studio\2022\Professional\VC\Tools\MSVC\14.44.35207\include\vector
; File C:\IAGOS\server\v18\Source\Source\_Common\worldfile.cpp
; File C:\Program Files\Microsoft Visual Studio\2022\Professional\VC\Tools\MSVC\14.44.35207\include\vector
; File C:\IAGOS\server\v18\Source\Source\_Common\worldfile.cpp
; File C:\Program Files\Microsoft Visual Studio\2022\Professional\VC\Tools\MSVC\14.44.35207\include\vector
; File C:\IAGOS\server\v18\Source\Source\_Common\worldfile.cpp
; File C:\Program Files\Microsoft Visual Studio\2022\Professional\VC\Tools\MSVC\14.44.35207\include\vector
; File C:\IAGOS\server\v18\Source\Source\_Common\worldfile.cpp
; File C:\Program Files\Microsoft Visual Studio\2022\Professional\VC\Tools\MSVC\14.44.35207\include\vector
; File C:\IAGOS\server\v18\Source\Source\_Common\worldfile.cpp
;	COMDAT ?IsUsableDYO2@CWorld@@QAEHPAUtagCHARACTER@@@Z
_TEXT	SEGMENT
_pCharacter$ = 8					; size = 4
?IsUsableDYO2@CWorld@@QAEHPAUtagCHARACTER@@@Z PROC	; CWorld::IsUsableDYO2, COMDAT
; _this$ = ecx

; 1182 : {

  00000	55		 push	 ebp
  00001	8b ec		 mov	 ebp, esp
  00003	57		 push	 edi
; File C:\Program Files\Microsoft Visual Studio\2022\Professional\VC\Tools\MSVC\14.44.35207\include\vector

; 1909 :         auto& _My_data = _Mypair._Myval2;

  00004	8b 7d 08	 mov	 edi, DWORD PTR _pCharacter$[ebp]

; 1910 :         return _My_data._Myfirst == _My_data._Mylast;

  00007	8b 8f f4 06 00
	00		 mov	 ecx, DWORD PTR [edi+1780]
  0000d	8b 87 f8 06 00
	00		 mov	 eax, DWORD PTR [edi+1784]
  00013	3b c8		 cmp	 ecx, eax
; File C:\IAGOS\server\v18\Source\Source\_Common\worldfile.cpp

; 1183 : 	if( pCharacter->m_vecdwLanguage.empty() )

  00015	75 0b		 jne	 SHORT $LN5@IsUsableDY

; 1184 : 		return pCharacter->bOutput;

  00017	8b 87 00 07 00
	00		 mov	 eax, DWORD PTR [edi+1792]
  0001d	5f		 pop	 edi

; 1194 : }

  0001e	5d		 pop	 ebp
  0001f	c2 04 00	 ret	 4
$LN5@IsUsableDY:
; File C:\Program Files\Microsoft Visual Studio\2022\Professional\VC\Tools\MSVC\14.44.35207\include\vector

; 1915 :         return static_cast<size_type>(_My_data._Mylast - _My_data._Myfirst);

  00022	2b c1		 sub	 eax, ecx
  00024	53		 push	 ebx
  00025	c1 f8 02	 sar	 eax, 2
; File C:\IAGOS\server\v18\Source\Source\_Common\worldfile.cpp

; 1186 : 	for( DWORD i=0; i<pCharacter->m_vecdwLanguage.size(); i++ )

  00028	33 db		 xor	 ebx, ebx
  0002a	56		 push	 esi
  0002b	85 c0		 test	 eax, eax
  0002d	74 46		 je	 SHORT $LN23@IsUsableDY
  0002f	90		 npad	 1
$LL4@IsUsableDY:
; File C:\Program Files\Microsoft Visual Studio\2022\Professional\VC\Tools\MSVC\14.44.35207\include\vector

; 1934 :         return _My_data._Myfirst[_Pos];

  00030	8d 04 9d 00 00
	00 00		 lea	 eax, DWORD PTR [ebx*4]
; File C:\IAGOS\server\v18\Source\Source\_Common\worldfile.cpp

; 1189 : 			&& LOWORD(pCharacter->m_vecdwLanguage[i]) == ::GetSubLanguage() )

  00037	0f b7 74 08 02	 movzx	 esi, WORD PTR [eax+ecx+2]
  0003c	e8 00 00 00 00	 call	 ?GetLanguage@@YAHXZ	; GetLanguage
  00041	3b f0		 cmp	 esi, eax
  00043	75 1a		 jne	 SHORT $LN2@IsUsableDY
; File C:\Program Files\Microsoft Visual Studio\2022\Professional\VC\Tools\MSVC\14.44.35207\include\vector

; 1934 :         return _My_data._Myfirst[_Pos];

  00045	8b 87 f4 06 00
	00		 mov	 eax, DWORD PTR [edi+1780]
  0004b	8d 0c 9d 00 00
	00 00		 lea	 ecx, DWORD PTR [ebx*4]
; File C:\IAGOS\server\v18\Source\Source\_Common\worldfile.cpp

; 1189 : 			&& LOWORD(pCharacter->m_vecdwLanguage[i]) == ::GetSubLanguage() )

  00052	0f b7 34 08	 movzx	 esi, WORD PTR [eax+ecx]
  00056	e8 00 00 00 00	 call	 ?GetSubLanguage@@YAHXZ	; GetSubLanguage
  0005b	3b f0		 cmp	 esi, eax
  0005d	74 28		 je	 SHORT $LN21@IsUsableDY
$LN2@IsUsableDY:
; File C:\Program Files\Microsoft Visual Studio\2022\Professional\VC\Tools\MSVC\14.44.35207\include\vector

; 1915 :         return static_cast<size_type>(_My_data._Mylast - _My_data._Myfirst);

  0005f	8b 87 f8 06 00
	00		 mov	 eax, DWORD PTR [edi+1784]
; File C:\IAGOS\server\v18\Source\Source\_Common\worldfile.cpp

; 1186 : 	for( DWORD i=0; i<pCharacter->m_vecdwLanguage.size(); i++ )

  00065	43		 inc	 ebx
; File C:\Program Files\Microsoft Visual Studio\2022\Professional\VC\Tools\MSVC\14.44.35207\include\vector

; 1915 :         return static_cast<size_type>(_My_data._Mylast - _My_data._Myfirst);

  00066	8b 8f f4 06 00
	00		 mov	 ecx, DWORD PTR [edi+1780]
  0006c	2b c1		 sub	 eax, ecx
  0006e	c1 f8 02	 sar	 eax, 2
; File C:\IAGOS\server\v18\Source\Source\_Common\worldfile.cpp

; 1186 : 	for( DWORD i=0; i<pCharacter->m_vecdwLanguage.size(); i++ )

  00071	3b d8		 cmp	 ebx, eax
  00073	72 bb		 jb	 SHORT $LL4@IsUsableDY
$LN23@IsUsableDY:

; 1191 : 	}
; 1192 : 
; 1193 : 	return !(pCharacter->bOutput);

  00075	33 c0		 xor	 eax, eax
  00077	39 87 00 07 00
	00		 cmp	 DWORD PTR [edi+1792], eax
  0007d	5e		 pop	 esi
  0007e	5b		 pop	 ebx
  0007f	0f 94 c0	 sete	 al
  00082	5f		 pop	 edi

; 1194 : }

  00083	5d		 pop	 ebp
  00084	c2 04 00	 ret	 4
$LN21@IsUsableDY:

; 1190 : 			return pCharacter->bOutput;

  00087	8b 87 00 07 00
	00		 mov	 eax, DWORD PTR [edi+1792]
  0008d	5e		 pop	 esi
  0008e	5b		 pop	 ebx
  0008f	5f		 pop	 edi

; 1194 : }

  00090	5d		 pop	 ebp
  00091	c2 04 00	 ret	 4
?IsUsableDYO2@CWorld@@QAEHPAUtagCHARACTER@@@Z ENDP	; CWorld::IsUsableDYO2
_TEXT	ENDS
; Function compile flags: /Ogtp
; File C:\IAGOS\server\v18\Source\Source\_Common\worldfile.cpp
;	COMDAT ?IsUsableDYO@CWorld@@QAEHPAVCObj@@@Z
_TEXT	SEGMENT
_pObj$ = 8						; size = 4
?IsUsableDYO@CWorld@@QAEHPAVCObj@@@Z PROC		; CWorld::IsUsableDYO, COMDAT
; _this$ = ecx

; 1110 : {

  00000	55		 push	 ebp
  00001	8b ec		 mov	 ebp, esp
  00003	56		 push	 esi
  00004	57		 push	 edi
  00005	8b f9		 mov	 edi, ecx

; 1111 : 	if( pObj->GetType() == OT_MOVER )

  00007	8b 4d 08	 mov	 ecx, DWORD PTR _pObj$[ebp]
  0000a	83 b9 70 01 00
	00 05		 cmp	 DWORD PTR [ecx+368], 5
  00011	0f 85 81 01 00
	00		 jne	 $LN3@IsUsableDY

; 1112 : 	{
; 1113 : 		LPCHARACTER pCharacter	= ( (CMover*)pObj )->GetCharacter();

  00017	e8 00 00 00 00	 call	 ?GetCharacter@CMover@@QAEPAUtagCHARACTER@@XZ ; CMover::GetCharacter
  0001c	8b f0		 mov	 esi, eax

; 1114 : 		if( pCharacter )

  0001e	85 f6		 test	 esi, esi
  00020	0f 84 72 01 00
	00		 je	 $LN3@IsUsableDY

; 1115 : 		{
; 1116 : 			// pk
; 1117 : 			if( stricmp( pCharacter->m_szKey, "Npc_Reward" ) == 0
; 1118 : 				|| stricmp( pCharacter->m_szKey, "MaMa_PKNPC01" ) == 0 )

  00026	68 00 00 00 00	 push	 OFFSET ??_C@_0L@HNBIHNDK@Npc_Reward@
  0002b	56		 push	 esi
  0002c	e8 00 00 00 00	 call	 _stricmp
  00031	83 c4 08	 add	 esp, 8
  00034	85 c0		 test	 eax, eax
  00036	74 12		 je	 SHORT $LN5@IsUsableDY
  00038	68 00 00 00 00	 push	 OFFSET ??_C@_0N@ECDDLOKN@MaMa_PKNPC01@
  0003d	56		 push	 esi
  0003e	e8 00 00 00 00	 call	 _stricmp
  00043	83 c4 08	 add	 esp, 8
  00046	85 c0		 test	 eax, eax
  00048	75 14		 jne	 SHORT $LN6@IsUsableDY
$LN5@IsUsableDY:

; 1119 : 			{
; 1120 : 				if( g_eLocal.GetState( EVE_PK ) == FALSE )

  0004a	6a 0b		 push	 11			; 0000000bH
  0004c	b9 00 00 00 00	 mov	 ecx, OFFSET ?g_eLocal@@3VCFlyffEvent@@A ; g_eLocal
  00051	e8 00 00 00 00	 call	 ?GetState@CFlyffEvent@@QAEEH@Z ; CFlyffEvent::GetState
  00056	84 c0		 test	 al, al
  00058	0f 84 32 01 00
	00		 je	 $LN21@IsUsableDY
$LN6@IsUsableDY:

; 1121 : 					return FALSE;
; 1122 : 			}
; 1123 : 			// ±ćµĺ ´ëŔü
; 1124 : 			if( stricmp( pCharacter->m_szKey, "MaFl_GuildWar" ) == 0
; 1125 : 					|| stricmp( pCharacter->m_szKey, "MaFl_Donaris" ) == 0 )

  0005e	68 00 00 00 00	 push	 OFFSET ??_C@_0O@JHMCKCLL@MaFl_GuildWar@
  00063	56		 push	 esi
  00064	e8 00 00 00 00	 call	 _stricmp
  00069	83 c4 08	 add	 esp, 8
  0006c	85 c0		 test	 eax, eax
  0006e	74 12		 je	 SHORT $LN8@IsUsableDY
  00070	68 00 00 00 00	 push	 OFFSET ??_C@_0N@CFLHKDHL@MaFl_Donaris@
  00075	56		 push	 esi
  00076	e8 00 00 00 00	 call	 _stricmp
  0007b	83 c4 08	 add	 esp, 8
  0007e	85 c0		 test	 eax, eax
  00080	75 14		 jne	 SHORT $LN9@IsUsableDY
$LN8@IsUsableDY:

; 1126 : 			{
; 1127 : 				if( g_eLocal.GetState( EVE_GUILDCOMBAT ) == FALSE )

  00082	6a 0f		 push	 15			; 0000000fH
  00084	b9 00 00 00 00	 mov	 ecx, OFFSET ?g_eLocal@@3VCFlyffEvent@@A ; g_eLocal
  00089	e8 00 00 00 00	 call	 ?GetState@CFlyffEvent@@QAEEH@Z ; CFlyffEvent::GetState
  0008e	84 c0		 test	 al, al
  00090	0f 84 fa 00 00
	00		 je	 $LN21@IsUsableDY
$LN9@IsUsableDY:

; 1128 : 					return FALSE;
; 1129 : 			}
; 1130 : #if __VER >= 11 // __GUILD_COMBAT_1TO1
; 1131 :  			if( stricmp( pCharacter->m_szKey, "MaFl_Annie" ) == 0
; 1132 :  					|| stricmp( pCharacter->m_szKey, "MaFl_Amos" ) == 0 )

  00096	68 00 00 00 00	 push	 OFFSET ??_C@_0L@COKDNMAK@MaFl_Annie@
  0009b	56		 push	 esi
  0009c	e8 00 00 00 00	 call	 _stricmp
  000a1	83 c4 08	 add	 esp, 8
  000a4	85 c0		 test	 eax, eax
  000a6	74 12		 je	 SHORT $LN11@IsUsableDY
  000a8	68 00 00 00 00	 push	 OFFSET ??_C@_09IJFDCBKI@MaFl_Amos@
  000ad	56		 push	 esi
  000ae	e8 00 00 00 00	 call	 _stricmp
  000b3	83 c4 08	 add	 esp, 8
  000b6	85 c0		 test	 eax, eax
  000b8	75 14		 jne	 SHORT $LN12@IsUsableDY
$LN11@IsUsableDY:

; 1133 :  			{
; 1134 :  				if( g_eLocal.GetState( EVE_GUILDCOMBAT1TO1 ) == FALSE )

  000ba	6a 16		 push	 22			; 00000016H
  000bc	b9 00 00 00 00	 mov	 ecx, OFFSET ?g_eLocal@@3VCFlyffEvent@@A ; g_eLocal
  000c1	e8 00 00 00 00	 call	 ?GetState@CFlyffEvent@@QAEEH@Z ; CFlyffEvent::GetState
  000c6	84 c0		 test	 al, al
  000c8	0f 84 c2 00 00
	00		 je	 $LN21@IsUsableDY
$LN12@IsUsableDY:

; 1135 :  					return FALSE;
; 1136 :  			}
; 1137 : #endif // __GUILD_COMBAT_1TO1
; 1138 : 
; 1139 : #ifdef __JEFF_11_4
; 1140 : 			if( stricmp( pCharacter->m_szKey, "MaFl_Ray" ) == 0 )

  000ce	68 00 00 00 00	 push	 OFFSET ??_C@_08BOCINMNN@MaFl_Ray@
  000d3	56		 push	 esi
  000d4	e8 00 00 00 00	 call	 _stricmp
  000d9	83 c4 08	 add	 esp, 8
  000dc	85 c0		 test	 eax, eax
  000de	75 14		 jne	 SHORT $LN14@IsUsableDY

; 1141 :  			{
; 1142 :  				if( g_eLocal.GetState( EVE_ARENA ) == FALSE )

  000e0	6a 17		 push	 23			; 00000017H
  000e2	b9 00 00 00 00	 mov	 ecx, OFFSET ?g_eLocal@@3VCFlyffEvent@@A ; g_eLocal
  000e7	e8 00 00 00 00	 call	 ?GetState@CFlyffEvent@@QAEEH@Z ; CFlyffEvent::GetState
  000ec	84 c0		 test	 al, al
  000ee	0f 84 9c 00 00
	00		 je	 $LN21@IsUsableDY
$LN14@IsUsableDY:

; 1143 :  					return FALSE;
; 1144 :  			}
; 1145 : #endif // __JEFF_11_4
; 1146 : 
; 1147 : 			if( stricmp( pCharacter->m_szKey, "MaFl_SecretRoom_EAST" ) == 0
; 1148 : 				|| stricmp( pCharacter->m_szKey, "MaDa_SecretRoom_WEST" ) == 0 )

  000f4	68 00 00 00 00	 push	 OFFSET ??_C@_0BF@GIDCKINC@MaFl_SecretRoom_EAST@
  000f9	56		 push	 esi
  000fa	e8 00 00 00 00	 call	 _stricmp
  000ff	83 c4 08	 add	 esp, 8
  00102	85 c0		 test	 eax, eax
  00104	74 12		 je	 SHORT $LN16@IsUsableDY
  00106	68 00 00 00 00	 push	 OFFSET ??_C@_0BF@HKGPDCHN@MaDa_SecretRoom_WEST@
  0010b	56		 push	 esi
  0010c	e8 00 00 00 00	 call	 _stricmp
  00111	83 c4 08	 add	 esp, 8
  00114	85 c0		 test	 eax, eax
  00116	75 10		 jne	 SHORT $LN17@IsUsableDY
$LN16@IsUsableDY:

; 1149 : 			{
; 1150 : 				if( g_eLocal.GetState( EVE_SECRETROOM ) == FALSE )

  00118	6a 18		 push	 24			; 00000018H
  0011a	b9 00 00 00 00	 mov	 ecx, OFFSET ?g_eLocal@@3VCFlyffEvent@@A ; g_eLocal
  0011f	e8 00 00 00 00	 call	 ?GetState@CFlyffEvent@@QAEEH@Z ; CFlyffEvent::GetState
  00124	84 c0		 test	 al, al
  00126	74 68		 je	 SHORT $LN21@IsUsableDY
$LN17@IsUsableDY:

; 1151 : 					return FALSE;
; 1152 : 			}
; 1153 : 
; 1154 : 			// don't load designer & artist in taiwan & japan
; 1155 : 			// ŔĎş», ´ë¸¸żˇĽ­ Á¦żÜ
; 1156 : 			if( ::GetLanguage() == LANG_TWN || ::GetLanguage() == LANG_HK )// || ::GetLanguage() == LANG_JAP )

  00128	e8 00 00 00 00	 call	 ?GetLanguage@@YAHXZ	; GetLanguage
  0012d	83 f8 05	 cmp	 eax, 5
  00130	74 0a		 je	 SHORT $LN19@IsUsableDY
  00132	e8 00 00 00 00	 call	 ?GetLanguage@@YAHXZ	; GetLanguage
  00137	83 f8 09	 cmp	 eax, 9
  0013a	75 24		 jne	 SHORT $LN20@IsUsableDY
$LN19@IsUsableDY:

; 1157 : 			{
; 1158 : 				if( stricmp( pCharacter->m_szKey, "MaFl_HairShop" ) == 0
; 1159 : 					|| stricmp( pCharacter->m_szKey, "MaFl_FaceOff" ) == 0 )

  0013c	68 00 00 00 00	 push	 OFFSET ??_C@_0O@KLHPCLJ@MaFl_HairShop@
  00141	56		 push	 esi
  00142	e8 00 00 00 00	 call	 _stricmp
  00147	83 c4 08	 add	 esp, 8
  0014a	85 c0		 test	 eax, eax
  0014c	74 42		 je	 SHORT $LN21@IsUsableDY
  0014e	68 00 00 00 00	 push	 OFFSET ??_C@_0N@EABLOLBA@MaFl_FaceOff@
  00153	56		 push	 esi
  00154	e8 00 00 00 00	 call	 _stricmp
  00159	83 c4 08	 add	 esp, 8
  0015c	85 c0		 test	 eax, eax
  0015e	74 30		 je	 SHORT $LN21@IsUsableDY
$LN20@IsUsableDY:

; 1161 : 			}
; 1162 : 
; 1163 : 			// 13Â÷ ·ąŔÎş¸żě ·ąŔĚ˝ş - ÁřÇŕ Ă¤łÎżˇĽ­¸¸ ÇĄ˝ĂÇĎ°Ô...
; 1164 : 			if( stricmp( pCharacter->m_szKey, "MaFl_RainbowStart" ) == 0 )

  00160	68 00 00 00 00	 push	 OFFSET ??_C@_0BC@FLMJHIEJ@MaFl_RainbowStart@
  00165	56		 push	 esi
  00166	e8 00 00 00 00	 call	 _stricmp
  0016b	83 c4 08	 add	 esp, 8
  0016e	85 c0		 test	 eax, eax
  00170	75 10		 jne	 SHORT $LN23@IsUsableDY

; 1165 : 			{
; 1166 : 				if( g_eLocal.GetState( EVE_RAINBOWRACE ) == FALSE )

  00172	6a 19		 push	 25			; 00000019H
  00174	b9 00 00 00 00	 mov	 ecx, OFFSET ?g_eLocal@@3VCFlyffEvent@@A ; g_eLocal
  00179	e8 00 00 00 00	 call	 ?GetState@CFlyffEvent@@QAEEH@Z ; CFlyffEvent::GetState
  0017e	84 c0		 test	 al, al
  00180	74 0e		 je	 SHORT $LN21@IsUsableDY
$LN23@IsUsableDY:

; 1167 : 					return FALSE;
; 1168 : 			}
; 1169 : 
; 1170 : #ifdef __CHIPI_DYO
; 1171 : 			return IsUsableDYO2( pCharacter );

  00182	56		 push	 esi
  00183	8b cf		 mov	 ecx, edi
  00185	e8 00 00 00 00	 call	 ?IsUsableDYO2@CWorld@@QAEHPAUtagCHARACTER@@@Z ; CWorld::IsUsableDYO2
  0018a	5f		 pop	 edi

; 1177 : }

  0018b	5e		 pop	 esi
  0018c	5d		 pop	 ebp
  0018d	c2 04 00	 ret	 4
$LN21@IsUsableDY:
  00190	5f		 pop	 edi

; 1160 : 					return FALSE;

  00191	33 c0		 xor	 eax, eax

; 1177 : }

  00193	5e		 pop	 esi
  00194	5d		 pop	 ebp
  00195	c2 04 00	 ret	 4
$LN3@IsUsableDY:
  00198	5f		 pop	 edi

; 1172 : #endif // __CHIPI_DYO
; 1173 : 
; 1174 : 		}
; 1175 : 	}
; 1176 : 	return TRUE;

  00199	b8 01 00 00 00	 mov	 eax, 1

; 1177 : }

  0019e	5e		 pop	 esi
  0019f	5d		 pop	 ebp
  001a0	c2 04 00	 ret	 4
?IsUsableDYO@CWorld@@QAEHPAVCObj@@@Z ENDP		; CWorld::IsUsableDYO
_TEXT	ENDS
; Function compile flags: /Ogtp
; File C:\IAGOS\server\v18\Source\Source\_Common\worldfile.cpp
;	COMDAT ?DeleteLayerControls@CWorld@@QAEXH@Z
_TEXT	SEGMENT
_nLayer$ = 8						; size = 4
?DeleteLayerControls@CWorld@@QAEXH@Z PROC		; CWorld::DeleteLayerControls, COMDAT
; _this$ = ecx

; 283  : {

  00000	55		 push	 ebp
  00001	8b ec		 mov	 ebp, esp
  00003	53		 push	 ebx
  00004	8b d9		 mov	 ebx, ecx
  00006	56		 push	 esi

; 284  : 	CObj* pObj;
; 285  : 	for( DWORD i = 0; i < m_dwObjNum; i++ )

  00007	33 f6		 xor	 esi, esi
  00009	39 73 40	 cmp	 DWORD PTR [ebx+64], esi
  0000c	76 2d		 jbe	 SHORT $LN3@DeleteLaye
  0000e	57		 push	 edi
  0000f	8d 7b 44	 lea	 edi, DWORD PTR [ebx+68]
$LL4@DeleteLaye:

; 286  : 	{
; 287  : 		pObj	= m_apObject[i];

  00012	8b 0f		 mov	 ecx, DWORD PTR [edi]

; 288  : 		if( pObj && pObj->GetType() == OT_CTRL && pObj->GetLayer() == nLayer )

  00014	85 c9		 test	 ecx, ecx
  00016	74 19		 je	 SHORT $LN2@DeleteLaye
  00018	83 b9 70 01 00
	00 02		 cmp	 DWORD PTR [ecx+368], 2
  0001f	75 10		 jne	 SHORT $LN2@DeleteLaye
  00021	8b 45 08	 mov	 eax, DWORD PTR _nLayer$[ebp]
  00024	39 81 b8 01 00
	00		 cmp	 DWORD PTR [ecx+440], eax
  0002a	75 05		 jne	 SHORT $LN2@DeleteLaye

; 289  : 			pObj->Delete();

  0002c	e8 00 00 00 00	 call	 ?Delete@CObj@@QAEXXZ	; CObj::Delete
$LN2@DeleteLaye:

; 284  : 	CObj* pObj;
; 285  : 	for( DWORD i = 0; i < m_dwObjNum; i++ )

  00031	46		 inc	 esi
  00032	83 c7 04	 add	 edi, 4
  00035	3b 73 40	 cmp	 esi, DWORD PTR [ebx+64]
  00038	72 d8		 jb	 SHORT $LL4@DeleteLaye
  0003a	5f		 pop	 edi
$LN3@DeleteLaye:
  0003b	5e		 pop	 esi

; 290  : 	}
; 291  : }

  0003c	5b		 pop	 ebx
  0003d	5d		 pop	 ebp
  0003e	c2 04 00	 ret	 4
?DeleteLayerControls@CWorld@@QAEXH@Z ENDP		; CWorld::DeleteLayerControls
_TEXT	ENDS
; Function compile flags: /Ogtp
; File C:\IAGOS\server\v18\Source\Source\_Common\worldfile.cpp
; File C:\Program Files\Microsoft Visual Studio\2022\Professional\VC\Tools\MSVC\14.44.35207\atlmfc\include\afxstr.h
; File C:\Program Files\Microsoft Visual Studio\2022\Professional\VC\Tools\MSVC\14.44.35207\atlmfc\include\atlsimpstr.h
; File C:\IAGOS\server\v18\Source\Source\_Common\worldfile.cpp
; File C:\Program Files\Microsoft Visual Studio\2022\Professional\VC\Tools\MSVC\14.44.35207\atlmfc\include\afxstr.h
; File C:\Program Files\Microsoft Visual Studio\2022\Professional\VC\Tools\MSVC\14.44.35207\atlmfc\include\atlsimpstr.h
; File C:\Program Files\Microsoft Visual Studio\2022\Professional\VC\Tools\MSVC\14.44.35207\atlmfc\include\cstringt.h
; File C:\Program Files\Microsoft Visual Studio\2022\Professional\VC\Tools\MSVC\14.44.35207\atlmfc\include\atlsimpstr.h
; File C:\IAGOS\server\v18\Source\Source\_Common\worldfile.cpp
; File C:\Program Files\Microsoft Visual Studio\2022\Professional\VC\Tools\MSVC\14.44.35207\atlmfc\include\afxstr.h
; File C:\Program Files\Microsoft Visual Studio\2022\Professional\VC\Tools\MSVC\14.44.35207\atlmfc\include\atlsimpstr.h
; File C:\IAGOS\server\v18\Source\Source\_Common\worldfile.cpp
; File C:\IAGOS\server\v18\Source\Source\_Common\File.h
; File C:\IAGOS\server\v18\Source\Source\_Common\worldfile.cpp
; File C:\IAGOS\server\v18\Source\Source\_Common\File.h
; File C:\IAGOS\server\v18\Source\Source\_Common\worldfile.cpp
; File C:\IAGOS\server\v18\Source\Source\_Common\File.h
; File C:\IAGOS\server\v18\Source\Source\_Common\worldfile.cpp
; File C:\IAGOS\server\v18\Source\Source\_Common\File.h
; File C:\IAGOS\server\v18\Source\Source\_Common\worldfile.cpp
; File C:\IAGOS\server\v18\Source\Source\_Common\File.h
; File C:\IAGOS\server\v18\Source\Source\_Common\worldfile.cpp
; File C:\IAGOS\server\v18\Source\Source\_Common\File.h
; File C:\IAGOS\server\v18\Source\Source\_Common\worldfile.cpp
; File C:\IAGOS\server\v18\Source\Source\_Common\File.h
; File C:\IAGOS\server\v18\Source\Source\_Common\worldfile.cpp
; File C:\IAGOS\server\v18\Source\Source\_Common\File.h
; File C:\IAGOS\server\v18\Source\Source\_Common\worldfile.cpp
; File C:\IAGOS\server\v18\Source\Source\_Common\File.h
; File C:\IAGOS\server\v18\Source\Source\_Common\worldfile.cpp
; File C:\IAGOS\server\v18\Source\Source\_Common\File.h
; File C:\IAGOS\server\v18\Source\Source\_Common\worldfile.cpp
; File C:\Program Files\Microsoft Visual Studio\2022\Professional\VC\Tools\MSVC\14.44.35207\include\vector
; File C:\IAGOS\server\v18\Source\Source\_Common\worldfile.cpp
; File C:\Program Files\Microsoft Visual Studio\2022\Professional\VC\Tools\MSVC\14.44.35207\include\vector
; File C:\IAGOS\server\v18\Source\Source\_Common\worldfile.cpp
; File C:\Program Files\Microsoft Visual Studio\2022\Professional\VC\Tools\MSVC\14.44.35207\include\vector
; File C:\IAGOS\server\v18\Source\Source\_Common\worldfile.cpp
; File C:\IAGOS\server\v18\Source\Source\_Common\File.h
; File C:\IAGOS\server\v18\Source\Source\_Common\worldfile.cpp
; File C:\IAGOS\server\v18\Source\Source\_Common\File.h
; File C:\IAGOS\server\v18\Source\Source\_Common\worldfile.cpp
; File C:\Program Files\Microsoft Visual Studio\2022\Professional\VC\Tools\MSVC\14.44.35207\atlmfc\include\atlsimpstr.h
; File C:\IAGOS\server\v18\Source\Source\_Common\worldfile.cpp
; File C:\Program Files\Microsoft Visual Studio\2022\Professional\VC\Tools\MSVC\14.44.35207\atlmfc\include\atlsimpstr.h
; File C:\IAGOS\server\v18\Source\Source\_Common\worldfile.cpp
; File C:\Program Files\Microsoft Visual Studio\2022\Professional\VC\Tools\MSVC\14.44.35207\atlmfc\include\atlsimpstr.h
; File C:\IAGOS\server\v18\Source\Source\_Common\worldfile.cpp
; File C:\Program Files\Microsoft Visual Studio\2022\Professional\VC\Tools\MSVC\14.44.35207\atlmfc\include\atlsimpstr.h
; File C:\IAGOS\server\v18\Source\Source\_Common\worldfile.cpp
; File C:\Program Files\Microsoft Visual Studio\2022\Professional\VC\Tools\MSVC\14.44.35207\atlmfc\include\atlsimpstr.h
; File C:\IAGOS\server\v18\Source\Source\_Common\worldfile.cpp
;	COMDAT ?ReadWorld@CWorld@@QAEHABVCRect@@@Z
_TEXT	SEGMENT
_yLand$ = -67432					; size = 4
_xLand$ = -67428					; size = 4
_strFileName$ = -67424					; size = 4
_pData$1$ = -67420					; size = 4
_dwObjNum$ = -67416					; size = 4
_dwVersion$2 = -67412					; size = 4
tv1762 = -67408						; size = 4
_this$GSCopy$1$ = -67404				; size = 4
_strLandTemp$ = -67400					; size = 4
_y$1$ = -67396						; size = 4
tv1759 = -67392						; size = 4
tv1779 = -67392						; size = 4
_dw$1$ = -67392						; size = 4
_x$1$ = -67388						; size = 4
_f$3 = -67384						; size = 8
_strLandName$ = -67376					; size = 4
tv1752 = -67372						; size = 4
_nLayer$4 = -67365					; size = 1
_pBkgnd$ = -67364					; size = 4
tv1751 = -67364						; size = 4
tv1757 = -67364						; size = 4
_vPos$ = -67360						; size = 12
_aHeightMap$ = -67348					; size = 66564
_aWaterHeight$ = -784					; size = 512
_aLocation$ = -272					; size = 256
__$ArrayPad$ = -16					; size = 4
__$EHRec$ = -12						; size = 12
_rcLandscape$ = 8					; size = 4
?ReadWorld@CWorld@@QAEHABVCRect@@@Z PROC		; CWorld::ReadWorld, COMDAT
; _this$ = ecx

; 814  : {

  00000	55		 push	 ebp
  00001	8b ec		 mov	 ebp, esp
  00003	6a ff		 push	 -1
  00005	68 00 00 00 00	 push	 __ehhandler$?ReadWorld@CWorld@@QAEHABVCRect@@@Z
  0000a	64 a1 00 00 00
	00		 mov	 eax, DWORD PTR fs:0
  00010	50		 push	 eax
  00011	b8 5c 07 01 00	 mov	 eax, 67420		; 0001075cH
  00016	e8 00 00 00 00	 call	 __chkstk
  0001b	a1 00 00 00 00	 mov	 eax, DWORD PTR ___security_cookie
  00020	33 c5		 xor	 eax, ebp
  00022	89 45 f0	 mov	 DWORD PTR __$ArrayPad$[ebp], eax
  00025	53		 push	 ebx
  00026	56		 push	 esi
  00027	57		 push	 edi
  00028	50		 push	 eax
  00029	8d 45 f4	 lea	 eax, DWORD PTR __$EHRec$[ebp]
  0002c	64 a3 00 00 00
	00		 mov	 DWORD PTR fs:0, eax
  00032	8b f9		 mov	 edi, ecx
  00034	89 bd b4 f8 fe
	ff		 mov	 DWORD PTR _this$GSCopy$1$[ebp], edi
; File C:\Program Files\Microsoft Visual Studio\2022\Professional\VC\Tools\MSVC\14.44.35207\atlmfc\include\afxstr.h

; 56   : 		return( AfxGetStringManager() );

  0003a	e8 00 00 00 00	 call	 ?AfxGetStringManager@@YGPAUIAtlStringMgr@ATL@@XZ ; AfxGetStringManager
  0003f	8b c8		 mov	 ecx, eax
; File C:\Program Files\Microsoft Visual Studio\2022\Professional\VC\Tools\MSVC\14.44.35207\atlmfc\include\atlsimpstr.h

; 209  : 		ATLENSURE( pStringMgr != NULL );

  00041	85 c9		 test	 ecx, ecx
  00043	0f 84 50 07 00
	00		 je	 $LN227@ReadWorld

; 210  : 		CStringData* pData = pStringMgr->GetNilString();

  00049	8b 01		 mov	 eax, DWORD PTR [ecx]
  0004b	ff 50 0c	 call	 DWORD PTR [eax+12]
  0004e	8b d8		 mov	 ebx, eax
  00050	89 9d a4 f8 fe
	ff		 mov	 DWORD PTR _pData$1$[ebp], ebx

; 211  : 		Attach( pData );

  00056	8d 43 10	 lea	 eax, DWORD PTR [ebx+16]
  00059	89 85 a0 f8 fe
	ff		 mov	 DWORD PTR _strFileName$[ebp], eax
; File C:\IAGOS\server\v18\Source\Source\_Common\worldfile.cpp

; 815  : 	CString strFileName;

  0005f	c7 45 fc 00 00
	00 00		 mov	 DWORD PTR __$EHRec$[ebp+8], 0

; 816  : 	CString strLandName = m_szFileName;

  00066	8d b7 20 92 08
	00		 lea	 esi, DWORD PTR [edi+561696]
; File C:\Program Files\Microsoft Visual Studio\2022\Professional\VC\Tools\MSVC\14.44.35207\atlmfc\include\afxstr.h

; 56   : 		return( AfxGetStringManager() );

  0006c	e8 00 00 00 00	 call	 ?AfxGetStringManager@@YGPAUIAtlStringMgr@ATL@@XZ ; AfxGetStringManager
  00071	8b c8		 mov	 ecx, eax
; File C:\Program Files\Microsoft Visual Studio\2022\Professional\VC\Tools\MSVC\14.44.35207\atlmfc\include\atlsimpstr.h

; 209  : 		ATLENSURE( pStringMgr != NULL );

  00073	85 c9		 test	 ecx, ecx
  00075	0f 84 28 07 00
	00		 je	 $LN228@ReadWorld

; 210  : 		CStringData* pData = pStringMgr->GetNilString();

  0007b	8b 01		 mov	 eax, DWORD PTR [ecx]
  0007d	ff 50 0c	 call	 DWORD PTR [eax+12]

; 211  : 		Attach( pData );

  00080	83 c0 10	 add	 eax, 16			; 00000010H
  00083	89 85 d0 f8 fe
	ff		 mov	 DWORD PTR _strLandName$[ebp], eax
; File C:\Program Files\Microsoft Visual Studio\2022\Professional\VC\Tools\MSVC\14.44.35207\atlmfc\include\cstringt.h

; 1052 : 		CThisSimpleString( StringTraits::GetDefaultManager() )

  00089	c6 45 fc 01	 mov	 BYTE PTR __$EHRec$[ebp+8], 1

; 2712 : 		if( (pv != NULL) && IS_INTRESOURCE( pv ) )

  0008d	85 f6		 test	 esi, esi
  0008f	74 2a		 je	 SHORT $LN217@ReadWorld
  00091	f7 c6 00 00 ff
	ff		 test	 esi, -65536		; ffff0000H
  00097	75 11		 jne	 SHORT $LN158@ReadWorld

; 2713 : 		{
; 2714 : 			UINT nID = LOWORD( reinterpret_cast< DWORD_PTR >( pv ) );

  00099	0f b7 c6	 movzx	 eax, si

; 2715 : 			(nID);
; 2716 : #ifdef _ATL_USE_WINAPI_FAMILY_DESKTOP_APP
; 2717 : 			if( !LoadString( nID ) )

  0009c	8d 8d d0 f8 fe
	ff		 lea	 ecx, DWORD PTR _strLandName$[ebp]
  000a2	50		 push	 eax
  000a3	e8 00 00 00 00	 call	 ?LoadStringA@?$CStringT@DV?$StrTraitMFC@DV?$ChTraitsCRT@D@ATL@@@@@ATL@@QAEHI@Z ; ATL::CStringT<char,StrTraitMFC<char,ATL::ChTraitsCRT<char> > >::LoadStringA

; 1054 : 		if( !CheckImplicitLoad( pszSrc ) )

  000a8	eb 20		 jmp	 SHORT $LN132@ReadWorld
$LN158@ReadWorld:
; File C:\Program Files\Microsoft Visual Studio\2022\Professional\VC\Tools\MSVC\14.44.35207\atlmfc\include\atlsimpstr.h

; 730  : 		return( int( strlen( psz ) ) );

  000aa	8b ce		 mov	 ecx, esi
  000ac	8d 51 01	 lea	 edx, DWORD PTR [ecx+1]
  000af	90		 npad	 1
$LL219@ReadWorld:
  000b0	8a 01		 mov	 al, BYTE PTR [ecx]
  000b2	41		 inc	 ecx
  000b3	84 c0		 test	 al, al
  000b5	75 f9		 jne	 SHORT $LL219@ReadWorld
  000b7	2b ca		 sub	 ecx, edx
  000b9	eb 02		 jmp	 SHORT $LN157@ReadWorld
$LN217@ReadWorld:

; 607  : 	}
; 608  : 	void SetString(
; 609  : 		_In_reads_opt_(nLength) PCXSTR pszSrc,
; 610  : 		_In_ int nLength)
; 611  : 	{
; 612  : 		if( nLength == 0 )
; 613  : 		{
; 614  : 			Empty();
; 615  : 		}
; 616  : 		else
; 617  : 		{
; 618  : 			// It is possible that pszSrc points to a location inside of our
; 619  : 			// buffer.  GetBuffer() might change m_pszData if (1) the buffer
; 620  : 			// is shared or (2) the buffer is too small to hold the new
; 621  : 			// string.  We detect this aliasing, and modify pszSrc to point
; 622  : 			// into the newly allocated buffer instead.
; 623  : 
; 624  : 			if(pszSrc == NULL)
; 625  : 				AtlThrow(E_INVALIDARG);
; 626  : 
; 627  : 			UINT nOldLength = GetLength();
; 628  : 			UINT_PTR nOffset = pszSrc-GetString();
; 629  : 			// If 0 <= nOffset <= nOldLength, then pszSrc points into our
; 630  : 			// buffer
; 631  : 
; 632  : 			PXSTR pszBuffer = GetBuffer( nLength );
; 633  : 			if( nOffset <= nOldLength )
; 634  : 			{
; 635  : 				CopyCharsOverlapped( pszBuffer, GetAllocLength(),
; 636  : 					pszBuffer+nOffset, nLength );
; 637  : 			}
; 638  : 			else
; 639  : 			{
; 640  : 				memcpy_s( pszBuffer, GetAllocLength() * sizeof( XCHAR ), pszSrc, nLength * sizeof( XCHAR ));
; 641  : 			}
; 642  : 			ReleaseBufferSetLength( nLength );
; 643  : 		}
; 644  : 	}
; 645  : 
; 646  : public:
; 647  : 	friend CSimpleStringT operator+(
; 648  : 		_In_ const CSimpleStringT& str1,
; 649  : 		_In_ const CSimpleStringT& str2)
; 650  : 	{
; 651  : 		CSimpleStringT s( str1.GetManager() );
; 652  : 
; 653  : 		Concatenate( s, str1, str1.GetLength(), str2, str2.GetLength() );
; 654  : 
; 655  : 		return( s );
; 656  : 	}
; 657  : 
; 658  : 	friend CSimpleStringT operator+(
; 659  : 		_In_ const CSimpleStringT& str1,
; 660  : 		_In_z_ PCXSTR psz2)
; 661  : 	{
; 662  : 		CSimpleStringT s( str1.GetManager() );
; 663  : 
; 664  : 		Concatenate( s, str1, str1.GetLength(), psz2, StringLength( psz2 ) );
; 665  : 
; 666  : 		return( s );
; 667  : 	}
; 668  : 
; 669  : 	friend CSimpleStringT operator+(
; 670  : 		_In_z_ PCXSTR psz1,
; 671  : 		_In_ const CSimpleStringT& str2)
; 672  : 	{
; 673  : 		CSimpleStringT s( str2.GetManager() );
; 674  : 
; 675  : 		Concatenate( s, psz1, StringLength( psz1 ), str2, str2.GetLength() );
; 676  : 
; 677  : 		return( s );
; 678  : 	}
; 679  : 
; 680  : 	_ATL_INSECURE_DEPRECATE("CSimpleStringT::CopyChars must be passed a buffer size")
; 681  : 	static void __cdecl CopyChars(
; 682  : 		_Out_writes_(nChars) XCHAR* pchDest,
; 683  : 		_In_reads_opt_(nChars) const XCHAR* pchSrc,
; 684  : 		_In_ int nChars) throw()
; 685  : 	{
; 686  : 		if (pchSrc != NULL)
; 687  : 		{
; 688  : 			#pragma warning (push)
; 689  : 			#pragma warning(disable : 4996)
; 690  : 			memcpy( pchDest, pchSrc, nChars*sizeof( XCHAR ) );
; 691  : 			#pragma warning (pop)
; 692  : 		}
; 693  : 	}
; 694  : 	static void __cdecl CopyChars(
; 695  : 		_Out_writes_to_(nDestLen,nChars) XCHAR* pchDest,
; 696  : 		_In_ size_t nDestLen,
; 697  : 		_In_reads_opt_(nChars) const XCHAR* pchSrc,
; 698  : 		_In_ int nChars) throw()
; 699  : 	{
; 700  : 		memcpy_s( pchDest, nDestLen*sizeof( XCHAR ),
; 701  : 			pchSrc, nChars*sizeof( XCHAR ) );
; 702  : 	}
; 703  : 
; 704  : 	_ATL_INSECURE_DEPRECATE("CSimpleStringT::CopyCharsOverlapped must be passed a buffer size")
; 705  : 	static void __cdecl CopyCharsOverlapped(
; 706  : 		_Out_writes_(nChars) XCHAR* pchDest,
; 707  : 		_In_reads_(nChars) const XCHAR* pchSrc,
; 708  : 		_In_ int nChars) throw()
; 709  : 	{
; 710  : 		#pragma warning (push)
; 711  : 		#pragma warning(disable : 4996)
; 712  : 		memmove( pchDest, pchSrc, nChars*sizeof( XCHAR ) );
; 713  : 		#pragma warning (pop)
; 714  : 	}
; 715  : 	static void __cdecl CopyCharsOverlapped(
; 716  : 		_Out_writes_to_(nDestLen, nDestLen) XCHAR* pchDest,
; 717  : 		_In_ size_t nDestLen,
; 718  : 		_In_reads_(nChars) const XCHAR* pchSrc,
; 719  : 		_In_ int nChars) throw()
; 720  : 	{
; 721  : 		memmove_s( pchDest, nDestLen*sizeof( XCHAR ),
; 722  : 			pchSrc, nChars*sizeof( XCHAR ) );
; 723  : 	}
; 724  : 	static int __cdecl StringLength(_In_opt_z_ const char* psz) throw()
; 725  : 	{
; 726  : 		if( psz == NULL )
; 727  : 		{
; 728  : 			return( 0 );

  000bb	33 c9		 xor	 ecx, ecx
$LN157@ReadWorld:

; 606  : 		SetString( pszSrc, StringLength( pszSrc ) );

  000bd	51		 push	 ecx
  000be	56		 push	 esi
  000bf	8d 8d d0 f8 fe
	ff		 lea	 ecx, DWORD PTR _strLandName$[ebp]
  000c5	e8 00 00 00 00	 call	 ?SetString@?$CSimpleStringT@D$0A@@ATL@@QAEXPBDH@Z ; ATL::CSimpleStringT<char,0>::SetString
$LN132@ReadWorld:
; File C:\IAGOS\server\v18\Source\Source\_Common\worldfile.cpp

; 816  : 	CString strLandName = m_szFileName;

  000ca	c6 45 fc 02	 mov	 BYTE PTR __$EHRec$[ebp+8], 2
; File C:\Program Files\Microsoft Visual Studio\2022\Professional\VC\Tools\MSVC\14.44.35207\atlmfc\include\afxstr.h

; 56   : 		return( AfxGetStringManager() );

  000ce	e8 00 00 00 00	 call	 ?AfxGetStringManager@@YGPAUIAtlStringMgr@ATL@@XZ ; AfxGetStringManager
  000d3	8b c8		 mov	 ecx, eax
; File C:\Program Files\Microsoft Visual Studio\2022\Professional\VC\Tools\MSVC\14.44.35207\atlmfc\include\atlsimpstr.h

; 209  : 		ATLENSURE( pStringMgr != NULL );

  000d5	85 c9		 test	 ecx, ecx
  000d7	0f 84 d0 06 00
	00		 je	 $LN229@ReadWorld

; 210  : 		CStringData* pData = pStringMgr->GetNilString();

  000dd	8b 01		 mov	 eax, DWORD PTR [ecx]
  000df	ff 50 0c	 call	 DWORD PTR [eax+12]

; 211  : 		Attach( pData );

  000e2	8d 70 10	 lea	 esi, DWORD PTR [eax+16]
  000e5	89 b5 b8 f8 fe
	ff		 mov	 DWORD PTR _strLandTemp$[ebp], esi
; File C:\IAGOS\server\v18\Source\Source\_Common\worldfile.cpp

; 818  : 	strLandName.Delete( strLandName.GetLength() - 4, 4 );

  000eb	8b 85 d0 f8 fe
	ff		 mov	 eax, DWORD PTR _strLandName$[ebp]
  000f1	8d 8d d0 f8 fe
	ff		 lea	 ecx, DWORD PTR _strLandName$[ebp]
  000f7	6a 04		 push	 4
  000f9	c6 45 fc 03	 mov	 BYTE PTR __$EHRec$[ebp+8], 3
  000fd	8b 40 f4	 mov	 eax, DWORD PTR [eax-12]
  00100	83 e8 04	 sub	 eax, 4
  00103	50		 push	 eax
  00104	e8 00 00 00 00	 call	 ?Delete@?$CStringT@DV?$StrTraitMFC@DV?$ChTraitsCRT@D@ATL@@@@@ATL@@QAEHHH@Z ; ATL::CStringT<char,StrTraitMFC<char,ATL::ChTraitsCRT<char> > >::Delete

; 819  : 	FLOAT aHeightMap[ ( MAP_SIZE + 1 ) * ( MAP_SIZE + 1 ) ];
; 820  : 	WATERHEIGHT aWaterHeight[ NUM_PATCHES_PER_SIDE * NUM_PATCHES_PER_SIDE ];
; 821  : 	BYTE aLocation[ NUM_PATCHES_PER_SIDE * NUM_PATCHES_PER_SIDE ];
; 822  : 	int xLand, yLand;
; 823  : 	D3DXVECTOR3	vPos;
; 824  : 
; 825  : 	CObj* pBkgnd;
; 826  : 	DWORD dwObjNum;
; 827  : 	
; 828  : 	for( int y = 0; y < m_nLandHeight; y++ )

  00109	33 c9		 xor	 ecx, ecx
  0010b	39 4f 08	 cmp	 DWORD PTR [edi+8], ecx
  0010e	8b bd d0 f8 fe
	ff		 mov	 edi, DWORD PTR _strLandName$[ebp]
  00114	89 8d bc f8 fe
	ff		 mov	 DWORD PTR _y$1$[ebp], ecx
  0011a	0f 8e 04 06 00
	00		 jle	 $LN3@ReadWorld
  00120	8b 9d b4 f8 fe
	ff		 mov	 ebx, DWORD PTR _this$GSCopy$1$[ebp]
  00126	66 66 0f 1f 84
	00 00 00 00 00	 npad	 10
$LL4@ReadWorld:

; 830  : 		for( int x = 0; x < m_nLandWidth; x++ )

  00130	33 c0		 xor	 eax, eax
  00132	89 85 c4 f8 fe
	ff		 mov	 DWORD PTR _x$1$[ebp], eax
  00138	39 43 04	 cmp	 DWORD PTR [ebx+4], eax
  0013b	0f 8e cd 05 00
	00		 jle	 $LN2@ReadWorld
  00141	8d 93 1c 91 08
	00		 lea	 edx, DWORD PTR [ebx+561436]
  00147	89 85 d4 f8 fe
	ff		 mov	 DWORD PTR tv1752[ebp], eax
  0014d	0f 1f 00	 npad	 3
$LL7@ReadWorld:

; 831  : 		{
; 832  : 			strLandTemp.Format( "%s%s%02d-%02d.lnd", m_szFilePath, strLandName, x , y );

  00150	51		 push	 ecx
  00151	50		 push	 eax
  00152	57		 push	 edi
  00153	52		 push	 edx
  00154	8d 85 b8 f8 fe
	ff		 lea	 eax, DWORD PTR _strLandTemp$[ebp]
  0015a	68 00 00 00 00	 push	 OFFSET ??_C@_0BC@CNNIKIAG@?$CFs?$CFs?$CF02d?9?$CF02d?4lnd@
  0015f	50		 push	 eax
  00160	e8 00 00 00 00	 call	 ?Format@?$CStringT@DV?$StrTraitMFC@DV?$ChTraitsCRT@D@ATL@@@@@ATL@@QAAXPBDZZ ; ATL::CStringT<char,StrTraitMFC<char,ATL::ChTraitsCRT<char> > >::Format
  00165	83 c4 18	 add	 esp, 24			; 00000018H
; File C:\IAGOS\server\v18\Source\Source\_Common\File.h

; 15   : 	CFileIO() { fp = NULL; } 

  00168	c7 85 c8 f8 fe
	ff 00 00 00 00	 mov	 DWORD PTR _f$3[ebp], OFFSET ??_7CFileIO@@6B@
  00172	c7 85 cc f8 fe
	ff 00 00 00 00	 mov	 DWORD PTR _f$3[ebp+4], 0
; File C:\IAGOS\server\v18\Source\Source\_Common\worldfile.cpp

; 835  : 			if( f.Open( strLandTemp, "rb" ) )

  0017c	8b b5 b8 f8 fe
	ff		 mov	 esi, DWORD PTR _strLandTemp$[ebp]
  00182	8d 8d c8 f8 fe
	ff		 lea	 ecx, DWORD PTR _f$3[ebp]
  00188	68 00 00 00 00	 push	 OFFSET ??_C@_02JDPG@rb@
  0018d	56		 push	 esi
  0018e	c6 45 fc 04	 mov	 BYTE PTR __$EHRec$[ebp+8], 4
  00192	e8 00 00 00 00	 call	 ?Open@CFileIO@@UAEHPBDPAD@Z ; CFileIO::Open
  00197	85 c0		 test	 eax, eax
  00199	0f 84 13 05 00
	00		 je	 $LN24@ReadWorld
; File C:\IAGOS\server\v18\Source\Source\_Common\File.h

; 27   : 	virtual size_t Read( void *ptr, size_t size, size_t n = 1 )	{ return fread( ptr, size, n, fp ); }

  0019f	ff b5 cc f8 fe
	ff		 push	 DWORD PTR _f$3[ebp+4]
  001a5	8d 85 ac f8 fe
	ff		 lea	 eax, DWORD PTR _dwVersion$2[ebp]
  001ab	6a 01		 push	 1
  001ad	6a 04		 push	 4
  001af	50		 push	 eax
  001b0	e8 00 00 00 00	 call	 _fread
  001b5	83 c4 10	 add	 esp, 16			; 00000010H
; File C:\IAGOS\server\v18\Source\Source\_Common\worldfile.cpp

; 839  : 				if( dwVersion >= 1 )

  001b8	83 bd ac f8 fe
	ff 01		 cmp	 DWORD PTR _dwVersion$2[ebp], 1
  001bf	72 2f		 jb	 SHORT $LN27@ReadWorld
; File C:\IAGOS\server\v18\Source\Source\_Common\File.h

; 27   : 	virtual size_t Read( void *ptr, size_t size, size_t n = 1 )	{ return fread( ptr, size, n, fp ); }

  001c1	ff b5 cc f8 fe
	ff		 push	 DWORD PTR _f$3[ebp+4]
  001c7	8d 85 9c f8 fe
	ff		 lea	 eax, DWORD PTR _xLand$[ebp]
  001cd	6a 01		 push	 1
  001cf	6a 04		 push	 4
  001d1	50		 push	 eax
  001d2	e8 00 00 00 00	 call	 _fread
  001d7	ff b5 cc f8 fe
	ff		 push	 DWORD PTR _f$3[ebp+4]
  001dd	8d 85 98 f8 fe
	ff		 lea	 eax, DWORD PTR _yLand$[ebp]
  001e3	6a 01		 push	 1
  001e5	6a 04		 push	 4
  001e7	50		 push	 eax
  001e8	e8 00 00 00 00	 call	 _fread
  001ed	83 c4 20	 add	 esp, 32			; 00000020H
$LN27@ReadWorld:
  001f0	ff b5 cc f8 fe
	ff		 push	 DWORD PTR _f$3[ebp+4]
  001f6	8d 85 ec f8 fe
	ff		 lea	 eax, DWORD PTR _aHeightMap$[ebp]
  001fc	68 01 41 00 00	 push	 16641			; 00004101H
  00201	6a 04		 push	 4
  00203	50		 push	 eax
  00204	e8 00 00 00 00	 call	 _fread
  00209	8b 9d bc f8 fe
	ff		 mov	 ebx, DWORD PTR _y$1$[ebp]
  0020f	8d 85 f0 f8 fe
	ff		 lea	 eax, DWORD PTR _aHeightMap$[ebp+4]
  00215	83 c4 10	 add	 esp, 16			; 00000010H
  00218	89 85 b0 f8 fe
	ff		 mov	 DWORD PTR tv1762[ebp], eax
  0021e	c1 e3 07	 shl	 ebx, 7
  00221	c7 85 c0 f8 fe
	ff 80 00 00 00	 mov	 DWORD PTR tv1779[ebp], 128 ; 00000080H
  0022b	0f 1f 44 00 00	 npad	 5
$LL10@ReadWorld:
  00230	8b bd b4 f8 fe
	ff		 mov	 edi, DWORD PTR _this$GSCopy$1$[ebp]
; File C:\IAGOS\server\v18\Source\Source\_Common\worldfile.cpp

; 848  : 					for( int x2 = 0; x2 < MAP_SIZE; x2++ )

  00236	33 f6		 xor	 esi, esi
  00238	89 85 dc f8 fe
	ff		 mov	 DWORD PTR tv1751[ebp], eax
  0023e	66 90		 npad	 2
$LL13@ReadWorld:

; 849  : 					{
; 850  : 						m_apHeightMap[ ( ( ( y * MAP_SIZE ) + y2 ) * WORLD_WIDTH ) + ( ( x * MAP_SIZE ) + x2 ) ]

  00240	8b 40 fc	 mov	 eax, DWORD PTR [eax-4]
  00243	8b 57 0c	 mov	 edx, DWORD PTR [edi+12]
  00246	8b 4f 1c	 mov	 ecx, DWORD PTR [edi+28]
  00249	0f af d3	 imul	 edx, ebx
  0024c	03 95 d4 f8 fe
	ff		 add	 edx, DWORD PTR tv1752[ebp]
  00252	03 d6		 add	 edx, esi
  00254	89 04 91	 mov	 DWORD PTR [ecx+edx*4], eax
  00257	8b 57 0c	 mov	 edx, DWORD PTR [edi+12]
  0025a	8b 4f 1c	 mov	 ecx, DWORD PTR [edi+28]
  0025d	0f af d3	 imul	 edx, ebx
  00260	8b 85 dc f8 fe
	ff		 mov	 eax, DWORD PTR tv1751[ebp]
  00266	03 95 d4 f8 fe
	ff		 add	 edx, DWORD PTR tv1752[ebp]
  0026c	8b 00		 mov	 eax, DWORD PTR [eax]
  0026e	03 d6		 add	 edx, esi
  00270	89 44 91 04	 mov	 DWORD PTR [ecx+edx*4+4], eax
  00274	8b 57 0c	 mov	 edx, DWORD PTR [edi+12]
  00277	8b 4f 1c	 mov	 ecx, DWORD PTR [edi+28]
  0027a	8b 85 dc f8 fe
	ff		 mov	 eax, DWORD PTR tv1751[ebp]
  00280	0f af d3	 imul	 edx, ebx
  00283	8b 40 04	 mov	 eax, DWORD PTR [eax+4]
  00286	03 95 d4 f8 fe
	ff		 add	 edx, DWORD PTR tv1752[ebp]
  0028c	03 d6		 add	 edx, esi
  0028e	89 44 91 08	 mov	 DWORD PTR [ecx+edx*4+8], eax
  00292	8b 57 0c	 mov	 edx, DWORD PTR [edi+12]
  00295	8b 4f 1c	 mov	 ecx, DWORD PTR [edi+28]
  00298	8b 85 dc f8 fe
	ff		 mov	 eax, DWORD PTR tv1751[ebp]
  0029e	0f af d3	 imul	 edx, ebx
  002a1	8b 40 08	 mov	 eax, DWORD PTR [eax+8]
  002a4	03 95 d4 f8 fe
	ff		 add	 edx, DWORD PTR tv1752[ebp]
  002aa	03 d6		 add	 edx, esi
  002ac	89 44 91 0c	 mov	 DWORD PTR [ecx+edx*4+12], eax
  002b0	8b 57 0c	 mov	 edx, DWORD PTR [edi+12]
  002b3	8b 4f 1c	 mov	 ecx, DWORD PTR [edi+28]
  002b6	8b 85 dc f8 fe
	ff		 mov	 eax, DWORD PTR tv1751[ebp]
  002bc	0f af d3	 imul	 edx, ebx
  002bf	8b 40 0c	 mov	 eax, DWORD PTR [eax+12]
  002c2	03 95 d4 f8 fe
	ff		 add	 edx, DWORD PTR tv1752[ebp]
  002c8	03 d6		 add	 edx, esi
  002ca	89 44 91 10	 mov	 DWORD PTR [ecx+edx*4+16], eax
  002ce	8b 57 0c	 mov	 edx, DWORD PTR [edi+12]
  002d1	8b 4f 1c	 mov	 ecx, DWORD PTR [edi+28]
  002d4	8b 85 dc f8 fe
	ff		 mov	 eax, DWORD PTR tv1751[ebp]
  002da	0f af d3	 imul	 edx, ebx
  002dd	8b 40 10	 mov	 eax, DWORD PTR [eax+16]
  002e0	03 95 d4 f8 fe
	ff		 add	 edx, DWORD PTR tv1752[ebp]
  002e6	03 d6		 add	 edx, esi
  002e8	89 44 91 14	 mov	 DWORD PTR [ecx+edx*4+20], eax
  002ec	8b 57 0c	 mov	 edx, DWORD PTR [edi+12]
  002ef	8b 4f 1c	 mov	 ecx, DWORD PTR [edi+28]
  002f2	8b 85 dc f8 fe
	ff		 mov	 eax, DWORD PTR tv1751[ebp]
  002f8	0f af d3	 imul	 edx, ebx
  002fb	8b 40 14	 mov	 eax, DWORD PTR [eax+20]
  002fe	03 95 d4 f8 fe
	ff		 add	 edx, DWORD PTR tv1752[ebp]
  00304	03 d6		 add	 edx, esi
  00306	89 44 91 18	 mov	 DWORD PTR [ecx+edx*4+24], eax
  0030a	8b 57 0c	 mov	 edx, DWORD PTR [edi+12]
  0030d	8b 85 dc f8 fe
	ff		 mov	 eax, DWORD PTR tv1751[ebp]
  00313	8b 4f 1c	 mov	 ecx, DWORD PTR [edi+28]
  00316	0f af d3	 imul	 edx, ebx
  00319	8b 40 18	 mov	 eax, DWORD PTR [eax+24]
  0031c	03 95 d4 f8 fe
	ff		 add	 edx, DWORD PTR tv1752[ebp]
  00322	03 d6		 add	 edx, esi
  00324	83 c6 08	 add	 esi, 8
  00327	89 44 91 1c	 mov	 DWORD PTR [ecx+edx*4+28], eax
  0032b	8b 85 dc f8 fe
	ff		 mov	 eax, DWORD PTR tv1751[ebp]
  00331	83 c0 20	 add	 eax, 32			; 00000020H
  00334	89 85 dc f8 fe
	ff		 mov	 DWORD PTR tv1751[ebp], eax
  0033a	81 fe 80 00 00
	00		 cmp	 esi, 128		; 00000080H
  00340	0f 8c fa fe ff
	ff		 jl	 $LL13@ReadWorld

; 840  : 				{
; 841  : 					f.Read( &xLand, sizeof( xLand ) );
; 842  : 					f.Read( &yLand, sizeof( yLand ) );
; 843  : 				}
; 844  : 				f.Read( (void*)aHeightMap, sizeof(FLOAT), ( MAP_SIZE + 1 ) * ( MAP_SIZE + 1 ) );
; 845  : 
; 846  : 				for( int y2 = 0; y2 < MAP_SIZE; y2++ )

  00346	8b 85 b0 f8 fe
	ff		 mov	 eax, DWORD PTR tv1762[ebp]
  0034c	43		 inc	 ebx
  0034d	05 04 02 00 00	 add	 eax, 516		; 00000204H
  00352	83 ad c0 f8 fe
	ff 01		 sub	 DWORD PTR tv1779[ebp], 1
  00359	89 85 b0 f8 fe
	ff		 mov	 DWORD PTR tv1762[ebp], eax
  0035f	0f 85 cb fe ff
	ff		 jne	 $LL10@ReadWorld
; File C:\IAGOS\server\v18\Source\Source\_Common\File.h

; 27   : 	virtual size_t Read( void *ptr, size_t size, size_t n = 1 )	{ return fread( ptr, size, n, fp ); }

  00365	ff b5 cc f8 fe
	ff		 push	 DWORD PTR _f$3[ebp+4]
  0036b	8d 85 f0 fc ff
	ff		 lea	 eax, DWORD PTR _aWaterHeight$[ebp]
  00371	68 00 01 00 00	 push	 256			; 00000100H
  00376	6a 02		 push	 2
  00378	50		 push	 eax
  00379	e8 00 00 00 00	 call	 _fread
  0037e	8b 85 bc f8 fe
	ff		 mov	 eax, DWORD PTR _y$1$[ebp]
  00384	8d b5 f2 fc ff
	ff		 lea	 esi, DWORD PTR _aWaterHeight$[ebp+2]
  0038a	83 c4 10	 add	 esp, 16			; 00000010H
  0038d	c7 85 c0 f8 fe
	ff 10 00 00 00	 mov	 DWORD PTR tv1759[ebp], 16 ; 00000010H
  00397	c1 e0 04	 shl	 eax, 4
  0039a	89 85 dc f8 fe
	ff		 mov	 DWORD PTR tv1757[ebp], eax
$LL16@ReadWorld:
; File C:\IAGOS\server\v18\Source\Source\_Common\worldfile.cpp

; 858  : 					for( int x2 = 0; x2 < NUM_PATCHES_PER_SIDE; x2++ )

  003a0	33 db		 xor	 ebx, ebx
$LL19@ReadWorld:

; 859  : 					{
; 860  : 						m_apWaterHeight[ ( ( ( y * NUM_PATCHES_PER_SIDE ) + y2 ) * ( NUM_PATCHES_PER_SIDE * m_nLandWidth ) ) + ( ( x * NUM_PATCHES_PER_SIDE ) + x2 ) ]

  003a2	8b 57 04	 mov	 edx, DWORD PTR [edi+4]
  003a5	8b 4f 20	 mov	 ecx, DWORD PTR [edi+32]
  003a8	0f af d0	 imul	 edx, eax
  003ab	0f b7 46 fe	 movzx	 eax, WORD PTR [esi-2]
  003af	03 95 c4 f8 fe
	ff		 add	 edx, DWORD PTR _x$1$[ebp]
  003b5	c1 e2 04	 shl	 edx, 4
  003b8	03 d3		 add	 edx, ebx
  003ba	66 89 04 51	 mov	 WORD PTR [ecx+edx*2], ax
  003be	8b 57 04	 mov	 edx, DWORD PTR [edi+4]
  003c1	0f af 95 dc f8
	fe ff		 imul	 edx, DWORD PTR tv1757[ebp]
  003c8	8b 4f 20	 mov	 ecx, DWORD PTR [edi+32]
  003cb	0f b7 06	 movzx	 eax, WORD PTR [esi]
  003ce	03 95 c4 f8 fe
	ff		 add	 edx, DWORD PTR _x$1$[ebp]
  003d4	c1 e2 04	 shl	 edx, 4
  003d7	03 d3		 add	 edx, ebx
  003d9	66 89 44 51 02	 mov	 WORD PTR [ecx+edx*2+2], ax
  003de	8b 57 04	 mov	 edx, DWORD PTR [edi+4]
  003e1	0f af 95 dc f8
	fe ff		 imul	 edx, DWORD PTR tv1757[ebp]
  003e8	8b 4f 20	 mov	 ecx, DWORD PTR [edi+32]
  003eb	0f b7 46 02	 movzx	 eax, WORD PTR [esi+2]
  003ef	03 95 c4 f8 fe
	ff		 add	 edx, DWORD PTR _x$1$[ebp]
  003f5	c1 e2 04	 shl	 edx, 4
  003f8	03 d3		 add	 edx, ebx
  003fa	66 89 44 51 04	 mov	 WORD PTR [ecx+edx*2+4], ax
  003ff	8b 57 04	 mov	 edx, DWORD PTR [edi+4]
  00402	0f af 95 dc f8
	fe ff		 imul	 edx, DWORD PTR tv1757[ebp]
  00409	8b 4f 20	 mov	 ecx, DWORD PTR [edi+32]
  0040c	0f b7 46 04	 movzx	 eax, WORD PTR [esi+4]
  00410	83 c6 08	 add	 esi, 8
  00413	03 95 c4 f8 fe
	ff		 add	 edx, DWORD PTR _x$1$[ebp]
  00419	c1 e2 04	 shl	 edx, 4
  0041c	03 d3		 add	 edx, ebx
  0041e	83 c3 04	 add	 ebx, 4
  00421	66 89 44 51 06	 mov	 WORD PTR [ecx+edx*2+6], ax
  00426	8b 85 dc f8 fe
	ff		 mov	 eax, DWORD PTR tv1757[ebp]
  0042c	83 fb 10	 cmp	 ebx, 16			; 00000010H
  0042f	0f 8c 6d ff ff
	ff		 jl	 $LL19@ReadWorld

; 851  : 							= aHeightMap[ ( y2 * ( MAP_SIZE + 1 ) ) + x2 ];
; 852  : 					}
; 853  : 				}
; 854  : 				
; 855  : 				f.Read( (void*)aWaterHeight, sizeof( WATERHEIGHT ), NUM_PATCHES_PER_SIDE * NUM_PATCHES_PER_SIDE );
; 856  : 				for( int y2 = 0; y2 < NUM_PATCHES_PER_SIDE; y2++ )

  00435	40		 inc	 eax
  00436	83 ad c0 f8 fe
	ff 01		 sub	 DWORD PTR tv1759[ebp], 1
  0043d	89 85 dc f8 fe
	ff		 mov	 DWORD PTR tv1757[ebp], eax
  00443	0f 85 57 ff ff
	ff		 jne	 $LL16@ReadWorld

; 861  : 							= aWaterHeight[ ( y2 * ( NUM_PATCHES_PER_SIDE ) ) + x2 ];
; 862  : 					}
; 863  : 				}
; 864  : 				if( dwVersion >= 2 )

  00449	83 bd ac f8 fe
	ff 02		 cmp	 DWORD PTR _dwVersion$2[ebp], 2
  00450	8b b5 b8 f8 fe
	ff		 mov	 esi, DWORD PTR _strLandTemp$[ebp]
  00456	8b bd d0 f8 fe
	ff		 mov	 edi, DWORD PTR _strLandName$[ebp]
  0045c	72 1c		 jb	 SHORT $LN28@ReadWorld
; File C:\IAGOS\server\v18\Source\Source\_Common\File.h

; 27   : 	virtual size_t Read( void *ptr, size_t size, size_t n = 1 )	{ return fread( ptr, size, n, fp ); }

  0045e	ff b5 cc f8 fe
	ff		 push	 DWORD PTR _f$3[ebp+4]
  00464	8d 85 f0 fe ff
	ff		 lea	 eax, DWORD PTR _aLocation$[ebp]
  0046a	68 00 01 00 00	 push	 256			; 00000100H
  0046f	6a 01		 push	 1
  00471	50		 push	 eax
  00472	e8 00 00 00 00	 call	 _fread
  00477	83 c4 10	 add	 esp, 16			; 00000010H
$LN28@ReadWorld:
  0047a	ff b5 cc f8 fe
	ff		 push	 DWORD PTR _f$3[ebp+4]
  00480	8d 85 db f8 fe
	ff		 lea	 eax, DWORD PTR _nLayer$4[ebp]
  00486	6a 01		 push	 1
  00488	6a 01		 push	 1
  0048a	50		 push	 eax
  0048b	e8 00 00 00 00	 call	 _fread
; File C:\IAGOS\server\v18\Source\Source\_Common\worldfile.cpp

; 871  : 				for( BYTE u = 0; u < nLayer; u++ ) {

  00490	32 db		 xor	 bl, bl
; File C:\IAGOS\server\v18\Source\Source\_Common\File.h

; 27   : 	virtual size_t Read( void *ptr, size_t size, size_t n = 1 )	{ return fread( ptr, size, n, fp ); }

  00492	83 c4 10	 add	 esp, 16			; 00000010H
; File C:\IAGOS\server\v18\Source\Source\_Common\worldfile.cpp

; 871  : 				for( BYTE u = 0; u < nLayer; u++ ) {

  00495	38 9d db f8 fe
	ff		 cmp	 BYTE PTR _nLayer$4[ebp], bl
  0049b	76 43		 jbe	 SHORT $LN21@ReadWorld
  0049d	0f 1f 00	 npad	 3
$LL22@ReadWorld:
; File C:\IAGOS\server\v18\Source\Source\_Common\File.h

; 25   : 	virtual int  Seek( long offset, int whence ) { return fseek( fp, offset, whence ); }

  004a0	6a 01		 push	 1
  004a2	6a 02		 push	 2
  004a4	ff b5 cc f8 fe
	ff		 push	 DWORD PTR _f$3[ebp+4]
  004aa	e8 00 00 00 00	 call	 _fseek
  004af	6a 01		 push	 1
  004b1	68 00 04 00 00	 push	 1024			; 00000400H
  004b6	ff b5 cc f8 fe
	ff		 push	 DWORD PTR _f$3[ebp+4]
  004bc	e8 00 00 00 00	 call	 _fseek
  004c1	6a 01		 push	 1
  004c3	68 00 00 01 00	 push	 65536			; 00010000H
  004c8	ff b5 cc f8 fe
	ff		 push	 DWORD PTR _f$3[ebp+4]
  004ce	e8 00 00 00 00	 call	 _fseek
; File C:\IAGOS\server\v18\Source\Source\_Common\worldfile.cpp

; 871  : 				for( BYTE u = 0; u < nLayer; u++ ) {

  004d3	fe c3		 inc	 bl
; File C:\IAGOS\server\v18\Source\Source\_Common\File.h

; 25   : 	virtual int  Seek( long offset, int whence ) { return fseek( fp, offset, whence ); }

  004d5	83 c4 24	 add	 esp, 36			; 00000024H
; File C:\IAGOS\server\v18\Source\Source\_Common\worldfile.cpp

; 871  : 				for( BYTE u = 0; u < nLayer; u++ ) {

  004d8	3a 9d db f8 fe
	ff		 cmp	 bl, BYTE PTR _nLayer$4[ebp]
  004de	72 c0		 jb	 SHORT $LL22@ReadWorld
$LN21@ReadWorld:
; File C:\IAGOS\server\v18\Source\Source\_Common\File.h

; 27   : 	virtual size_t Read( void *ptr, size_t size, size_t n = 1 )	{ return fread( ptr, size, n, fp ); }

  004e0	ff b5 cc f8 fe
	ff		 push	 DWORD PTR _f$3[ebp+4]
  004e6	8d 85 a8 f8 fe
	ff		 lea	 eax, DWORD PTR _dwObjNum$[ebp]
  004ec	6a 01		 push	 1
  004ee	6a 04		 push	 4
  004f0	50		 push	 eax
  004f1	e8 00 00 00 00	 call	 _fread
; File C:\IAGOS\server\v18\Source\Source\_Common\worldfile.cpp

; 879  : 				for( DWORD dw =  0; dw < dwObjNum; dw++ )

  004f6	8b 9d b4 f8 fe
	ff		 mov	 ebx, DWORD PTR _this$GSCopy$1$[ebp]
; File C:\IAGOS\server\v18\Source\Source\_Common\File.h

; 27   : 	virtual size_t Read( void *ptr, size_t size, size_t n = 1 )	{ return fread( ptr, size, n, fp ); }

  004fc	83 c4 10	 add	 esp, 16			; 00000010H
; File C:\IAGOS\server\v18\Source\Source\_Common\worldfile.cpp

; 879  : 				for( DWORD dw =  0; dw < dwObjNum; dw++ )

  004ff	83 bd a8 f8 fe
	ff 00		 cmp	 DWORD PTR _dwObjNum$[ebp], 0
  00506	c7 85 c0 f8 fe
	ff 00 00 00 00	 mov	 DWORD PTR _dw$1$[ebp], 0
  00510	0f 86 9c 01 00
	00		 jbe	 $LN24@ReadWorld
  00516	8b bd c0 f8 fe
	ff		 mov	 edi, DWORD PTR _dw$1$[ebp]
  0051c	8b b5 bc f8 fe
	ff		 mov	 esi, DWORD PTR _y$1$[ebp]
$LL25@ReadWorld:

; 880  : 				{
; 881  : 					pBkgnd	= ReadObj( &f );

  00522	8d 85 c8 f8 fe
	ff		 lea	 eax, DWORD PTR _f$3[ebp]
  00528	50		 push	 eax
  00529	e8 00 00 00 00	 call	 ?ReadObj@@YAPAVCObj@@PAVCFileIO@@@Z ; ReadObj

; 882  : 					vPos	= pBkgnd->GetPos();
; 883  : 
; 884  : 				//	vPos.x	+= x * LANDREALSCALE;
; 885  : 				//	vPos.z	+= y * LANDREALSCALE;
; 886  : 
; 887  : 					vPos.x	+= x * MAP_SIZE * m_iMPU;

  0052e	8b 4b 14	 mov	 ecx, DWORD PTR [ebx+20]
  00531	8b d0		 mov	 edx, eax
  00533	83 c4 04	 add	 esp, 4
  00536	89 95 dc f8 fe
	ff		 mov	 DWORD PTR _pBkgnd$[ebp], edx
  0053c	f3 0f 7e 82 60
	01 00 00	 movq	 xmm0, QWORD PTR [edx+352]
  00544	66 0f d6 85 e0
	f8 fe ff	 movq	 QWORD PTR _vPos$[ebp], xmm0
  0054c	8b 82 68 01 00
	00		 mov	 eax, DWORD PTR [edx+360]
  00552	89 85 e8 f8 fe
	ff		 mov	 DWORD PTR _vPos$[ebp+8], eax
  00558	8b c1		 mov	 eax, ecx
  0055a	0f af 85 c4 f8
	fe ff		 imul	 eax, DWORD PTR _x$1$[ebp]

; 888  : 					vPos.z	+= y * MAP_SIZE * m_iMPU;

  00561	0f af ce	 imul	 ecx, esi
  00564	c1 e0 07	 shl	 eax, 7
  00567	c1 e1 07	 shl	 ecx, 7
  0056a	66 0f 6e c0	 movd	 xmm0, eax

; 889  : 
; 890  : 					pBkgnd->SetPos( vPos );

  0056e	8d 85 e0 f8 fe
	ff		 lea	 eax, DWORD PTR _vPos$[ebp]
  00574	0f 5b c0	 cvtdq2ps xmm0, xmm0
  00577	50		 push	 eax
  00578	f3 0f 58 85 e0
	f8 fe ff	 addss	 xmm0, DWORD PTR _vPos$[ebp]
  00580	f3 0f 11 85 e0
	f8 fe ff	 movss	 DWORD PTR _vPos$[ebp], xmm0
  00588	66 0f 6e c1	 movd	 xmm0, ecx
  0058c	8b ca		 mov	 ecx, edx
  0058e	0f 5b c0	 cvtdq2ps xmm0, xmm0
  00591	f3 0f 58 85 e8
	f8 fe ff	 addss	 xmm0, DWORD PTR _vPos$[ebp+8]
  00599	f3 0f 11 85 e8
	f8 fe ff	 movss	 DWORD PTR _vPos$[ebp+8], xmm0
  005a1	e8 00 00 00 00	 call	 ?SetPos@CObj@@QAEXABUD3DXVECTOR3@@@Z ; CObj::SetPos

; 891  : 
; 892  : 					if( pBkgnd->m_dwIndex <= 10 )

  005a6	8b 8d dc f8 fe
	ff		 mov	 ecx, DWORD PTR _pBkgnd$[ebp]
  005ac	83 b9 74 01 00
	00 0a		 cmp	 DWORD PTR [ecx+372], 10	; 0000000aH
  005b3	77 2b		 ja	 SHORT $LN29@ReadWorld

; 893  : 						pBkgnd->SetAngle( (float)( rand() % 360 ) );

  005b5	e8 00 00 00 00	 call	 _rand
  005ba	b9 68 01 00 00	 mov	 ecx, 360		; 00000168H
  005bf	99		 cdq
  005c0	f7 f9		 idiv	 ecx
  005c2	51		 push	 ecx
  005c3	8b 8d dc f8 fe
	ff		 mov	 ecx, DWORD PTR _pBkgnd$[ebp]
  005c9	66 0f 6e c2	 movd	 xmm0, edx
  005cd	0f 5b c0	 cvtdq2ps xmm0, xmm0
  005d0	f3 0f 11 04 24	 movss	 DWORD PTR [esp], xmm0
  005d5	e8 00 00 00 00	 call	 ?SetAngle@CObj@@QAEXM@Z	; CObj::SetAngle
  005da	8b 8d dc f8 fe
	ff		 mov	 ecx, DWORD PTR _pBkgnd$[ebp]
$LN29@ReadWorld:

; 894  : 
; 895  : 					pBkgnd->SetIndex( D3DDEVICE, pBkgnd->m_dwIndex );

  005e0	8b 01		 mov	 eax, DWORD PTR [ecx]
  005e2	6a 00		 push	 0
  005e4	ff b1 74 01 00
	00		 push	 DWORD PTR [ecx+372]
  005ea	6a 00		 push	 0
  005ec	ff 50 2c	 call	 DWORD PTR [eax+44]

; 896  : 
; 897  : 					if( pBkgnd->GetType() != OT_OBJ )

  005ef	8b 8d dc f8 fe
	ff		 mov	 ecx, DWORD PTR _pBkgnd$[ebp]
  005f5	83 b9 70 01 00
	00 00		 cmp	 DWORD PTR [ecx+368], 0
  005fc	0f 85 8d 00 00
	00		 jne	 $LN225@ReadWorld

; 898  : 					{
; 899  : 						SAFE_DELETE( pBkgnd );
; 900  : 						continue;
; 901  : 					}
; 902  : 					
; 903  : 					if( ::GetLanguage() == LANG_JAP && pBkgnd->m_dwIndex == 360 )

  00602	e8 00 00 00 00	 call	 ?GetLanguage@@YAHXZ	; GetLanguage
  00607	8b 8d dc f8 fe
	ff		 mov	 ecx, DWORD PTR _pBkgnd$[ebp]
  0060d	83 f8 02	 cmp	 eax, 2
  00610	75 0c		 jne	 SHORT $LN218@ReadWorld
  00612	81 b9 74 01 00
	00 68 01 00 00	 cmp	 DWORD PTR [ecx+372], 360 ; 00000168H
  0061c	74 71		 je	 SHORT $LN225@ReadWorld
$LN218@ReadWorld:

; 904  : 					{
; 905  : 						SAFE_DELETE( pBkgnd );
; 906  : 					}
; 907  : 					else
; 908  : 					{
; 909  : 						if( pBkgnd->m_pModel && TRUE == pBkgnd->m_pModel->IsHaveCollObj() )

  0061e	8b 91 78 01 00
	00		 mov	 edx, DWORD PTR [ecx+376]
  00624	85 d2		 test	 edx, edx
  00626	74 6b		 je	 SHORT $LN207@ReadWorld
  00628	8b 02		 mov	 eax, DWORD PTR [edx]
  0062a	8b ca		 mov	 ecx, edx
  0062c	ff 50 48	 call	 DWORD PTR [eax+72]
  0062f	8b 8d dc f8 fe
	ff		 mov	 ecx, DWORD PTR _pBkgnd$[ebp]
  00635	83 f8 01	 cmp	 eax, 1
  00638	75 59		 jne	 SHORT $LN207@ReadWorld

; 910  : 						{
; 911  : //							pBkgnd->InitMotion( pBkgnd->m_dwMotion );
; 912  : /*
; 913  : #ifdef __YAIMONSTER_EX
; 914  : 							if( pBkgnd->GetType() == OT_MOVER )
; 915  : 							{
; 916  : 								CRespawnInfo *pInfo = NULL;	
; 917  : 								((CMover*)pBkgnd)->m_resp
; 918  : 								pInfo = &((CMover*)pBkgnd)-> m_respawnInfo;
; 919  : 								
; 920  : 								if( pInfo->m_cb == 1 )
; 921  : 									((CMover*)pBkgnd)->AddAngle(pInfo->m_fAngle);
; 922  : 							}
; 923  : #endif //__YAIMONSTER_EX
; 924  : */							
; 925  : 							pBkgnd->SetWorld( this );

  0063a	53		 push	 ebx
  0063b	e8 00 00 00 00	 call	 ?SetWorld@CObj@@QAEXPAVCWorld@@@Z ; CObj::SetWorld

; 926  : 							InsertObjLink( pBkgnd );

  00640	ff b5 dc f8 fe
	ff		 push	 DWORD PTR _pBkgnd$[ebp]
  00646	8b cb		 mov	 ecx, ebx
  00648	e8 00 00 00 00	 call	 ?InsertObjLink@CWorld@@QAEHPAVCObj@@@Z ; CWorld::InsertObjLink
; File C:\Program Files\Microsoft Visual Studio\2022\Professional\VC\Tools\MSVC\14.44.35207\include\vector

; 844  :         if (_Mylast != _My_data._Myend) {

  0064d	8b 93 48 00 05
	00		 mov	 edx, DWORD PTR [ebx+327752]
; File C:\IAGOS\server\v18\Source\Source\_Common\worldfile.cpp

; 927  : 							m_vecBackground.push_back( pBkgnd );

  00653	8d 8b 44 00 05
	00		 lea	 ecx, DWORD PTR [ebx+327748]
; File C:\Program Files\Microsoft Visual Studio\2022\Professional\VC\Tools\MSVC\14.44.35207\include\vector

; 844  :         if (_Mylast != _My_data._Myend) {

  00659	3b 51 08	 cmp	 edx, DWORD PTR [ecx+8]
  0065c	74 15		 je	 SHORT $LN69@ReadWorld

; 860  :             _STD _Construct_in_place(*_Mylast, _STD forward<_Valty>(_Val)...);

  0065e	8b 85 dc f8 fe
	ff		 mov	 eax, DWORD PTR _pBkgnd$[ebp]
  00664	89 02		 mov	 DWORD PTR [edx], eax

; 861  :         } else {
; 862  :             _ASAN_VECTOR_EXTEND_GUARD(static_cast<size_type>(_Mylast - _My_data._Myfirst) + 1);
; 863  :             _Alty_traits::construct(_Getal(), _Unfancy(_Mylast), _STD forward<_Valty>(_Val)...);
; 864  :             _ASAN_VECTOR_RELEASE_GUARD;
; 865  :         }
; 866  : 
; 867  :         _Orphan_range(_Mylast, _Mylast);
; 868  :         _Ty& _Result = *_Mylast;
; 869  :         ++_Mylast;

  00666	83 41 04 04	 add	 DWORD PTR [ecx+4], 4
; File C:\IAGOS\server\v18\Source\Source\_Common\worldfile.cpp

; 928  : 							pBkgnd->UpdateLocalMatrix();

  0066a	8b c8		 mov	 ecx, eax
  0066c	e8 00 00 00 00	 call	 ?UpdateLocalMatrix@CObj@@QAEXXZ ; CObj::UpdateLocalMatrix

; 929  : 						}

  00671	eb 26		 jmp	 SHORT $LN23@ReadWorld
$LN69@ReadWorld:
; File C:\Program Files\Microsoft Visual Studio\2022\Professional\VC\Tools\MSVC\14.44.35207\include\vector

; 848  :         return *_Emplace_reallocate(_Mylast, _STD forward<_Valty>(_Val)...);

  00673	8d 85 dc f8 fe
	ff		 lea	 eax, DWORD PTR _pBkgnd$[ebp]
  00679	50		 push	 eax
  0067a	52		 push	 edx
  0067b	e8 00 00 00 00	 call	 ??$_Emplace_reallocate@ABQAVCObj@@@?$vector@PAVCObj@@V?$allocator@PAVCObj@@@std@@@std@@AAEPAPAVCObj@@QAPAV2@ABQAV2@@Z ; std::vector<CObj *,std::allocator<CObj *> >::_Emplace_reallocate<CObj * const &>
  00680	8b 85 dc f8 fe
	ff		 mov	 eax, DWORD PTR _pBkgnd$[ebp]
; File C:\IAGOS\server\v18\Source\Source\_Common\worldfile.cpp

; 928  : 							pBkgnd->UpdateLocalMatrix();

  00686	8b c8		 mov	 ecx, eax
  00688	e8 00 00 00 00	 call	 ?UpdateLocalMatrix@CObj@@QAEXXZ ; CObj::UpdateLocalMatrix

; 929  : 						}

  0068d	eb 0a		 jmp	 SHORT $LN23@ReadWorld
$LN225@ReadWorld:

; 879  : 				for( DWORD dw =  0; dw < dwObjNum; dw++ )

  0068f	85 c9		 test	 ecx, ecx
  00691	74 06		 je	 SHORT $LN23@ReadWorld
$LN207@ReadWorld:
  00693	8b 01		 mov	 eax, DWORD PTR [ecx]
  00695	6a 01		 push	 1
  00697	ff 10		 call	 DWORD PTR [eax]
$LN23@ReadWorld:
  00699	47		 inc	 edi
  0069a	3b bd a8 f8 fe
	ff		 cmp	 edi, DWORD PTR _dwObjNum$[ebp]
  006a0	0f 82 7c fe ff
	ff		 jb	 $LL25@ReadWorld
  006a6	8b b5 b8 f8 fe
	ff		 mov	 esi, DWORD PTR _strLandTemp$[ebp]
  006ac	8b bd d0 f8 fe
	ff		 mov	 edi, DWORD PTR _strLandName$[ebp]
$LN24@ReadWorld:

; 930  : 						else
; 931  : 						{
; 932  : 							SAFE_DELETE( pBkgnd );
; 933  : 						}
; 934  : 					}
; 935  : 				}
; 936  : 			}
; 937  : 			f.Close();

  006b2	8d 8d c8 f8 fe
	ff		 lea	 ecx, DWORD PTR _f$3[ebp]
  006b8	e8 00 00 00 00	 call	 ?Close@CFileIO@@UAEHXZ	; CFileIO::Close

; 938  : 
; 939  : #ifdef __MAP_SECURITY
; 940  : 			g_WorldMng.AddMapCheckInfo( strLandTemp );

  006bd	56		 push	 esi
  006be	b9 00 00 00 00	 mov	 ecx, OFFSET ?g_WorldMng@@3VCWorldMng@@A ; g_WorldMng
  006c3	e8 00 00 00 00	 call	 ?AddMapCheckInfo@CWorldMng@@QAEXPBD@Z ; CWorldMng::AddMapCheckInfo
; File C:\IAGOS\server\v18\Source\Source\_Common\File.h

; 17   : 	virtual ~CFileIO() { Close(); }

  006c8	8d 8d c8 f8 fe
	ff		 lea	 ecx, DWORD PTR _f$3[ebp]
  006ce	c6 45 fc 05	 mov	 BYTE PTR __$EHRec$[ebp+8], 5
  006d2	c7 85 c8 f8 fe
	ff 00 00 00 00	 mov	 DWORD PTR _f$3[ebp], OFFSET ??_7CFileIO@@6B@
  006dc	e8 00 00 00 00	 call	 ?Close@CFileIO@@UAEHXZ	; CFileIO::Close
; File C:\IAGOS\server\v18\Source\Source\_Common\worldfile.cpp

; 830  : 		for( int x = 0; x < m_nLandWidth; x++ )

  006e1	8b 85 c4 f8 fe
	ff		 mov	 eax, DWORD PTR _x$1$[ebp]
  006e7	8d 93 1c 91 08
	00		 lea	 edx, DWORD PTR [ebx+561436]
  006ed	83 ad d4 f8 fe
	ff 80		 sub	 DWORD PTR tv1752[ebp], -128 ; ffffff80H
  006f4	40		 inc	 eax
  006f5	8b 8d bc f8 fe
	ff		 mov	 ecx, DWORD PTR _y$1$[ebp]
; File C:\IAGOS\server\v18\Source\Source\_Common\File.h

; 17   : 	virtual ~CFileIO() { Close(); }

  006fb	c6 45 fc 03	 mov	 BYTE PTR __$EHRec$[ebp+8], 3
; File C:\IAGOS\server\v18\Source\Source\_Common\worldfile.cpp

; 830  : 		for( int x = 0; x < m_nLandWidth; x++ )

  006ff	89 85 c4 f8 fe
	ff		 mov	 DWORD PTR _x$1$[ebp], eax
  00705	3b 43 04	 cmp	 eax, DWORD PTR [ebx+4]
  00708	0f 8c 42 fa ff
	ff		 jl	 $LL7@ReadWorld
$LN2@ReadWorld:

; 819  : 	FLOAT aHeightMap[ ( MAP_SIZE + 1 ) * ( MAP_SIZE + 1 ) ];
; 820  : 	WATERHEIGHT aWaterHeight[ NUM_PATCHES_PER_SIDE * NUM_PATCHES_PER_SIDE ];
; 821  : 	BYTE aLocation[ NUM_PATCHES_PER_SIDE * NUM_PATCHES_PER_SIDE ];
; 822  : 	int xLand, yLand;
; 823  : 	D3DXVECTOR3	vPos;
; 824  : 
; 825  : 	CObj* pBkgnd;
; 826  : 	DWORD dwObjNum;
; 827  : 	
; 828  : 	for( int y = 0; y < m_nLandHeight; y++ )

  0070e	41		 inc	 ecx
  0070f	89 8d bc f8 fe
	ff		 mov	 DWORD PTR _y$1$[ebp], ecx
  00715	3b 4b 08	 cmp	 ecx, DWORD PTR [ebx+8]
  00718	0f 8c 12 fa ff
	ff		 jl	 $LL4@ReadWorld
  0071e	8b 9d a4 f8 fe
	ff		 mov	 ebx, DWORD PTR _pData$1$[ebp]
$LN3@ReadWorld:
; File C:\Program Files\Microsoft Visual Studio\2022\Professional\VC\Tools\MSVC\14.44.35207\atlmfc\include\atlsimpstr.h

; 804  : 		return( reinterpret_cast< CStringData* >( m_pszData )-1 );

  00724	8d 56 f0	 lea	 edx, DWORD PTR [esi-16]
; File C:\IAGOS\server\v18\Source\Source\_Common\worldfile.cpp

; 944  : 	return TRUE;

  00727	c6 45 fc 02	 mov	 BYTE PTR __$EHRec$[ebp+8], 2
; File C:\Program Files\Microsoft Visual Studio\2022\Professional\VC\Tools\MSVC\14.44.35207\atlmfc\include\atlsimpstr.h

; 92   : 		if( _InterlockedDecrement( &nRefs ) <= 0 )

  0072b	83 ce ff	 or	 esi, -1
  0072e	8b c6		 mov	 eax, esi
  00730	f0 0f c1 42 0c	 lock	  xadd	 DWORD PTR [edx+12], eax
  00735	48		 dec	 eax
  00736	85 c0		 test	 eax, eax
  00738	7f 08		 jg	 SHORT $LN96@ReadWorld

; 93   : 		{
; 94   : 			pStringMgr->Free( this );

  0073a	8b 0a		 mov	 ecx, DWORD PTR [edx]
  0073c	52		 push	 edx
  0073d	8b 01		 mov	 eax, DWORD PTR [ecx]
  0073f	ff 50 04	 call	 DWORD PTR [eax+4]
$LN96@ReadWorld:
; File C:\IAGOS\server\v18\Source\Source\_Common\worldfile.cpp

; 944  : 	return TRUE;

  00742	c6 45 fc 00	 mov	 BYTE PTR __$EHRec$[ebp+8], 0
; File C:\Program Files\Microsoft Visual Studio\2022\Professional\VC\Tools\MSVC\14.44.35207\atlmfc\include\atlsimpstr.h

; 804  : 		return( reinterpret_cast< CStringData* >( m_pszData )-1 );

  00746	83 c7 f0	 add	 edi, -16		; fffffff0H

; 92   : 		if( _InterlockedDecrement( &nRefs ) <= 0 )

  00749	8b c6		 mov	 eax, esi
  0074b	f0 0f c1 47 0c	 lock	  xadd	 DWORD PTR [edi+12], eax
  00750	48		 dec	 eax
  00751	85 c0		 test	 eax, eax
  00753	7f 08		 jg	 SHORT $LN105@ReadWorld

; 93   : 		{
; 94   : 			pStringMgr->Free( this );

  00755	8b 0f		 mov	 ecx, DWORD PTR [edi]
  00757	57		 push	 edi
  00758	8b 01		 mov	 eax, DWORD PTR [ecx]
  0075a	ff 50 04	 call	 DWORD PTR [eax+4]
$LN105@ReadWorld:
; File C:\IAGOS\server\v18\Source\Source\_Common\worldfile.cpp

; 944  : 	return TRUE;

  0075d	c7 45 fc ff ff
	ff ff		 mov	 DWORD PTR __$EHRec$[ebp+8], -1
; File C:\Program Files\Microsoft Visual Studio\2022\Professional\VC\Tools\MSVC\14.44.35207\atlmfc\include\atlsimpstr.h

; 92   : 		if( _InterlockedDecrement( &nRefs ) <= 0 )

  00764	f0 0f c1 73 0c	 lock	  xadd	 DWORD PTR [ebx+12], esi
  00769	4e		 dec	 esi
  0076a	85 f6		 test	 esi, esi
  0076c	7f 08		 jg	 SHORT $LN114@ReadWorld

; 93   : 		{
; 94   : 			pStringMgr->Free( this );

  0076e	8b 0b		 mov	 ecx, DWORD PTR [ebx]
  00770	53		 push	 ebx
  00771	8b 01		 mov	 eax, DWORD PTR [ecx]
  00773	ff 50 04	 call	 DWORD PTR [eax+4]
$LN114@ReadWorld:
; File C:\IAGOS\server\v18\Source\Source\_Common\worldfile.cpp

; 944  : 	return TRUE;

  00776	b8 01 00 00 00	 mov	 eax, 1

; 945  : }

  0077b	8b 4d f4	 mov	 ecx, DWORD PTR __$EHRec$[ebp]
  0077e	64 89 0d 00 00
	00 00		 mov	 DWORD PTR fs:0, ecx
  00785	59		 pop	 ecx
  00786	5f		 pop	 edi
  00787	5e		 pop	 esi
  00788	5b		 pop	 ebx
  00789	8b 4d f0	 mov	 ecx, DWORD PTR __$ArrayPad$[ebp]
  0078c	33 cd		 xor	 ecx, ebp
  0078e	e8 00 00 00 00	 call	 @__security_check_cookie@4
  00793	8b e5		 mov	 esp, ebp
  00795	5d		 pop	 ebp
  00796	c2 04 00	 ret	 4
$LN227@ReadWorld:
; File C:\Program Files\Microsoft Visual Studio\2022\Professional\VC\Tools\MSVC\14.44.35207\atlmfc\include\atlsimpstr.h

; 209  : 		ATLENSURE( pStringMgr != NULL );

  00799	68 05 40 00 80	 push	 -2147467259		; 80004005H
  0079e	e8 00 00 00 00	 call	 ?AtlThrowImpl@ATL@@YGXJ@Z ; ATL::AtlThrowImpl
$LN228@ReadWorld:
  007a3	68 05 40 00 80	 push	 -2147467259		; 80004005H
  007a8	e8 00 00 00 00	 call	 ?AtlThrowImpl@ATL@@YGXJ@Z ; ATL::AtlThrowImpl
$LN229@ReadWorld:
  007ad	68 05 40 00 80	 push	 -2147467259		; 80004005H
  007b2	e8 00 00 00 00	 call	 ?AtlThrowImpl@ATL@@YGXJ@Z ; ATL::AtlThrowImpl
$LN224@ReadWorld:
  007b7	cc		 int	 3
_TEXT	ENDS
;	COMDAT text$x
text$x	SEGMENT
__unwindfunclet$?ReadWorld@CWorld@@QAEHABVCRect@@@Z$0:
  00000	8d 8d a0 f8 fe
	ff		 lea	 ecx, DWORD PTR _strFileName$[ebp]
  00006	e9 00 00 00 00	 jmp	 ??1?$CStringT@DV?$StrTraitMFC@DV?$ChTraitsCRT@D@ATL@@@@@ATL@@QAE@XZ ; ATL::CStringT<char,StrTraitMFC<char,ATL::ChTraitsCRT<char> > >::~CStringT<char,StrTraitMFC<char,ATL::ChTraitsCRT<char> > >
__unwindfunclet$?ReadWorld@CWorld@@QAEHABVCRect@@@Z$5:
  0000b	8d 8d d0 f8 fe
	ff		 lea	 ecx, DWORD PTR _strLandName$[ebp]
  00011	e9 00 00 00 00	 jmp	 ??1?$CSimpleStringT@D$0A@@ATL@@QAE@XZ ; ATL::CSimpleStringT<char,0>::~CSimpleStringT<char,0>
__unwindfunclet$?ReadWorld@CWorld@@QAEHABVCRect@@@Z$1:
  00016	8d 8d d0 f8 fe
	ff		 lea	 ecx, DWORD PTR _strLandName$[ebp]
  0001c	e9 00 00 00 00	 jmp	 ??1?$CStringT@DV?$StrTraitMFC@DV?$ChTraitsCRT@D@ATL@@@@@ATL@@QAE@XZ ; ATL::CStringT<char,StrTraitMFC<char,ATL::ChTraitsCRT<char> > >::~CStringT<char,StrTraitMFC<char,ATL::ChTraitsCRT<char> > >
__unwindfunclet$?ReadWorld@CWorld@@QAEHABVCRect@@@Z$2:
  00021	8d 8d b8 f8 fe
	ff		 lea	 ecx, DWORD PTR _strLandTemp$[ebp]
  00027	e9 00 00 00 00	 jmp	 ??1?$CStringT@DV?$StrTraitMFC@DV?$ChTraitsCRT@D@ATL@@@@@ATL@@QAE@XZ ; ATL::CStringT<char,StrTraitMFC<char,ATL::ChTraitsCRT<char> > >::~CStringT<char,StrTraitMFC<char,ATL::ChTraitsCRT<char> > >
__unwindfunclet$?ReadWorld@CWorld@@QAEHABVCRect@@@Z$3:
  0002c	8d 8d c8 f8 fe
	ff		 lea	 ecx, DWORD PTR _f$3[ebp]
  00032	e9 00 00 00 00	 jmp	 ??1CFileIO@@UAE@XZ	; CFileIO::~CFileIO
  00037	cc		 int	 3
  00038	cc		 int	 3
  00039	cc		 int	 3
  0003a	cc		 int	 3
  0003b	cc		 int	 3
__ehhandler$?ReadWorld@CWorld@@QAEHABVCRect@@@Z:
  0003c	90		 npad	 1
  0003d	90		 npad	 1
  0003e	8b 54 24 08	 mov	 edx, DWORD PTR [esp+8]
  00042	8d 42 0c	 lea	 eax, DWORD PTR [edx+12]
  00045	8b 8a 94 f8 fe
	ff		 mov	 ecx, DWORD PTR [edx-67436]
  0004b	33 c8		 xor	 ecx, eax
  0004d	e8 00 00 00 00	 call	 @__security_check_cookie@4
  00052	8b 4a fc	 mov	 ecx, DWORD PTR [edx-4]
  00055	33 c8		 xor	 ecx, eax
  00057	e8 00 00 00 00	 call	 @__security_check_cookie@4
  0005c	b8 00 00 00 00	 mov	 eax, OFFSET __ehfuncinfo$?ReadWorld@CWorld@@QAEHABVCRect@@@Z
  00061	e9 00 00 00 00	 jmp	 ___CxxFrameHandler3
text$x	ENDS
?ReadWorld@CWorld@@QAEHABVCRect@@@Z ENDP		; CWorld::ReadWorld
; Function compile flags: /Ogtp
; File C:\Program Files\Microsoft Visual Studio\2022\Professional\VC\Tools\MSVC\14.44.35207\include\vector
;	COMDAT ?_Xlength@?$vector@PAVCObj@@V?$allocator@PAVCObj@@@std@@@std@@CAXXZ
_TEXT	SEGMENT
?_Xlength@?$vector@PAVCObj@@V?$allocator@PAVCObj@@@std@@@std@@CAXXZ PROC ; std::vector<CObj *,std::allocator<CObj *> >::_Xlength, COMDAT

; 2184 :         _Xlength_error("vector too long");

  00000	68 00 00 00 00	 push	 OFFSET ??_C@_0BA@FOIKENOD@vector?5too?5long@
  00005	e8 00 00 00 00	 call	 ?_Xlength_error@std@@YAXPBD@Z ; std::_Xlength_error
$LN3@Xlength:
  0000a	cc		 int	 3
?_Xlength@?$vector@PAVCObj@@V?$allocator@PAVCObj@@@std@@@std@@CAXXZ ENDP ; std::vector<CObj *,std::allocator<CObj *> >::_Xlength
_TEXT	ENDS
; Function compile flags: /Ogtp
; File C:\Program Files\Microsoft Visual Studio\2022\Professional\VC\Tools\MSVC\14.44.35207\atlmfc\include\atltypes.h
;	COMDAT ??0REGIONELEM@@QAE@XZ
_TEXT	SEGMENT
??0REGIONELEM@@QAE@XZ PROC				; REGIONELEM::REGIONELEM, COMDAT
; _this$ = ecx

; 532  : 	left = 0;

  00000	c7 81 a4 00 00
	00 00 00 00 00	 mov	 DWORD PTR [ecx+164], 0
  0000a	8b c1		 mov	 eax, ecx

; 533  : 	top = 0;

  0000c	c7 81 a8 00 00
	00 00 00 00 00	 mov	 DWORD PTR [ecx+168], 0

; 534  : 	right = 0;

  00016	c7 81 ac 00 00
	00 00 00 00 00	 mov	 DWORD PTR [ecx+172], 0

; 535  : 	bottom = 0;

  00020	c7 81 b0 00 00
	00 00 00 00 00	 mov	 DWORD PTR [ecx+176], 0
  0002a	c3		 ret	 0
??0REGIONELEM@@QAE@XZ ENDP				; REGIONELEM::REGIONELEM
_TEXT	ENDS
; Function compile flags: /Ogtp
; File C:\IAGOS\server\v18\Source\Source\_Common\File.h
;	COMDAT ??_GCFileIO@@UAEPAXI@Z
_TEXT	SEGMENT
__$EHRec$ = -12						; size = 12
___flags$ = 8						; size = 4
??_GCFileIO@@UAEPAXI@Z PROC				; CFileIO::`scalar deleting destructor', COMDAT
; _this$ = ecx
  00000	55		 push	 ebp
  00001	8b ec		 mov	 ebp, esp
  00003	6a ff		 push	 -1
  00005	68 00 00 00 00	 push	 __ehhandler$??_GCFileIO@@UAEPAXI@Z
  0000a	64 a1 00 00 00
	00		 mov	 eax, DWORD PTR fs:0
  00010	50		 push	 eax
  00011	56		 push	 esi
  00012	a1 00 00 00 00	 mov	 eax, DWORD PTR ___security_cookie
  00017	33 c5		 xor	 eax, ebp
  00019	50		 push	 eax
  0001a	8d 45 f4	 lea	 eax, DWORD PTR __$EHRec$[ebp]
  0001d	64 a3 00 00 00
	00		 mov	 DWORD PTR fs:0, eax
  00023	8b f1		 mov	 esi, ecx

; 17   : 	virtual ~CFileIO() { Close(); }

  00025	c7 45 fc 00 00
	00 00		 mov	 DWORD PTR __$EHRec$[ebp+8], 0
  0002c	c7 06 00 00 00
	00		 mov	 DWORD PTR [esi], OFFSET ??_7CFileIO@@6B@
  00032	e8 00 00 00 00	 call	 ?Close@CFileIO@@UAEHXZ	; CFileIO::Close
  00037	f6 45 08 01	 test	 BYTE PTR ___flags$[ebp], 1
  0003b	74 0b		 je	 SHORT $LN10@scalar
  0003d	6a 08		 push	 8
  0003f	56		 push	 esi
  00040	e8 00 00 00 00	 call	 ??3@YAXPAXI@Z		; operator delete
  00045	83 c4 08	 add	 esp, 8
$LN10@scalar:
  00048	8b c6		 mov	 eax, esi
  0004a	8b 4d f4	 mov	 ecx, DWORD PTR __$EHRec$[ebp]
  0004d	64 89 0d 00 00
	00 00		 mov	 DWORD PTR fs:0, ecx
  00054	59		 pop	 ecx
  00055	5e		 pop	 esi
  00056	8b e5		 mov	 esp, ebp
  00058	5d		 pop	 ebp
  00059	c2 04 00	 ret	 4
  0005c	cc		 int	 3
  0005d	cc		 int	 3
  0005e	cc		 int	 3
  0005f	cc		 int	 3
  00060	cc		 int	 3
_TEXT	ENDS
;	COMDAT text$x
text$x	SEGMENT
__ehhandler$??_GCFileIO@@UAEPAXI@Z:
  00000	90		 npad	 1
  00001	90		 npad	 1
  00002	8b 54 24 08	 mov	 edx, DWORD PTR [esp+8]
  00006	8d 42 0c	 lea	 eax, DWORD PTR [edx+12]
  00009	8b 4a f8	 mov	 ecx, DWORD PTR [edx-8]
  0000c	33 c8		 xor	 ecx, eax
  0000e	e8 00 00 00 00	 call	 @__security_check_cookie@4
  00013	b8 00 00 00 00	 mov	 eax, OFFSET __ehfuncinfo$??_GCFileIO@@UAEPAXI@Z
  00018	e9 00 00 00 00	 jmp	 ___CxxFrameHandler3
text$x	ENDS
??_GCFileIO@@UAEPAXI@Z ENDP				; CFileIO::`scalar deleting destructor'
; Function compile flags: /Ogtp
; File C:\IAGOS\server\v18\Source\Source\_Common\File.h
;	COMDAT ?Read@CFileIO@@UAEIPAXII@Z
_TEXT	SEGMENT
_ptr$ = 8						; size = 4
_size$ = 12						; size = 4
_n$ = 16						; size = 4
?Read@CFileIO@@UAEIPAXII@Z PROC				; CFileIO::Read, COMDAT
; _this$ = ecx

; 27   : 	virtual size_t Read( void *ptr, size_t size, size_t n = 1 )	{ return fread( ptr, size, n, fp ); }

  00000	55		 push	 ebp
  00001	8b ec		 mov	 ebp, esp
  00003	ff 71 04	 push	 DWORD PTR [ecx+4]
  00006	ff 75 10	 push	 DWORD PTR _n$[ebp]
  00009	ff 75 0c	 push	 DWORD PTR _size$[ebp]
  0000c	ff 75 08	 push	 DWORD PTR _ptr$[ebp]
  0000f	e8 00 00 00 00	 call	 _fread
  00014	83 c4 10	 add	 esp, 16			; 00000010H
  00017	5d		 pop	 ebp
  00018	c2 0c 00	 ret	 12			; 0000000cH
?Read@CFileIO@@UAEIPAXII@Z ENDP				; CFileIO::Read
_TEXT	ENDS
; Function compile flags: /Ogtp
; File C:\IAGOS\server\v18\Source\Source\_Common\File.h
;	COMDAT ?GetLength@CFileIO@@UAEJXZ
_TEXT	SEGMENT
?GetLength@CFileIO@@UAEJXZ PROC				; CFileIO::GetLength, COMDAT
; _this$ = ecx

; 30   : 	int  Handle() { return fileno( fp ); }

  00000	ff 71 04	 push	 DWORD PTR [ecx+4]
  00003	e8 00 00 00 00	 call	 _fileno

; 26   : 	virtual long GetLength() { return _filelength( Handle() ); }

  00008	50		 push	 eax
  00009	e8 00 00 00 00	 call	 __filelength
  0000e	83 c4 08	 add	 esp, 8
  00011	c3		 ret	 0
?GetLength@CFileIO@@UAEJXZ ENDP				; CFileIO::GetLength
_TEXT	ENDS
; Function compile flags: /Ogtp
; File C:\IAGOS\server\v18\Source\Source\_Common\File.h
;	COMDAT ?Seek@CFileIO@@UAEHJH@Z
_TEXT	SEGMENT
_offset$ = 8						; size = 4
_whence$ = 12						; size = 4
?Seek@CFileIO@@UAEHJH@Z PROC				; CFileIO::Seek, COMDAT
; _this$ = ecx

; 25   : 	virtual int  Seek( long offset, int whence ) { return fseek( fp, offset, whence ); }

  00000	55		 push	 ebp
  00001	8b ec		 mov	 ebp, esp
  00003	ff 75 0c	 push	 DWORD PTR _whence$[ebp]
  00006	ff 75 08	 push	 DWORD PTR _offset$[ebp]
  00009	ff 71 04	 push	 DWORD PTR [ecx+4]
  0000c	e8 00 00 00 00	 call	 _fseek
  00011	83 c4 0c	 add	 esp, 12			; 0000000cH
  00014	5d		 pop	 ebp
  00015	c2 08 00	 ret	 8
?Seek@CFileIO@@UAEHJH@Z ENDP				; CFileIO::Seek
_TEXT	ENDS
; Function compile flags: /Ogtp
; File C:\IAGOS\server\v18\Source\Source\_Common\File.h
;	COMDAT ?Tell@CFileIO@@UAEJXZ
_TEXT	SEGMENT
?Tell@CFileIO@@UAEJXZ PROC				; CFileIO::Tell, COMDAT
; _this$ = ecx

; 24   : 	virtual long Tell()   { return ftell(fp); }

  00000	ff 71 04	 push	 DWORD PTR [ecx+4]
  00003	e8 00 00 00 00	 call	 _ftell
  00008	83 c4 04	 add	 esp, 4
  0000b	c3		 ret	 0
?Tell@CFileIO@@UAEJXZ ENDP				; CFileIO::Tell
_TEXT	ENDS
; Function compile flags: /Ogtp
; File C:\IAGOS\server\v18\Source\Source\_Common\File.h
;	COMDAT ?GetDW@CFileIO@@UAEKXZ
_TEXT	SEGMENT
_dw$ = -4						; size = 4
?GetDW@CFileIO@@UAEKXZ PROC				; CFileIO::GetDW, COMDAT
; _this$ = ecx

; 23   : 	virtual DWORD GetDW() { DWORD dw; fread( &dw, sizeof( dw ), 1, fp ); return dw; }

  00000	55		 push	 ebp
  00001	8b ec		 mov	 ebp, esp
  00003	51		 push	 ecx
  00004	ff 71 04	 push	 DWORD PTR [ecx+4]
  00007	8d 45 fc	 lea	 eax, DWORD PTR _dw$[ebp]
  0000a	6a 01		 push	 1
  0000c	6a 04		 push	 4
  0000e	50		 push	 eax
  0000f	e8 00 00 00 00	 call	 _fread
  00014	8b 45 fc	 mov	 eax, DWORD PTR _dw$[ebp]
  00017	83 c4 10	 add	 esp, 16			; 00000010H
  0001a	8b e5		 mov	 esp, ebp
  0001c	5d		 pop	 ebp
  0001d	c3		 ret	 0
?GetDW@CFileIO@@UAEKXZ ENDP				; CFileIO::GetDW
_TEXT	ENDS
; Function compile flags: /Ogtp
; File C:\IAGOS\server\v18\Source\Source\_Common\File.h
;	COMDAT ?GetW@CFileIO@@UAEGXZ
_TEXT	SEGMENT
?GetW@CFileIO@@UAEGXZ PROC				; CFileIO::GetW, COMDAT
; _this$ = ecx

; 22   : 	virtual WORD  GetW()  { return getwc( fp ); } 

  00000	ff 71 04	 push	 DWORD PTR [ecx+4]
  00003	e8 00 00 00 00	 call	 _getwc
  00008	83 c4 04	 add	 esp, 4
  0000b	c3		 ret	 0
?GetW@CFileIO@@UAEGXZ ENDP				; CFileIO::GetW
_TEXT	ENDS
; Function compile flags: /Ogtp
; File C:\IAGOS\server\v18\Source\Source\_Common\File.h
;	COMDAT ?GetC@CFileIO@@UAEDXZ
_TEXT	SEGMENT
?GetC@CFileIO@@UAEDXZ PROC				; CFileIO::GetC, COMDAT
; _this$ = ecx

; 21   : 	virtual char  GetC()  { return (char)getc( fp ); }

  00000	ff 71 04	 push	 DWORD PTR [ecx+4]
  00003	e8 00 00 00 00	 call	 _getc
  00008	83 c4 04	 add	 esp, 4
  0000b	c3		 ret	 0
?GetC@CFileIO@@UAEDXZ ENDP				; CFileIO::GetC
_TEXT	ENDS
; Function compile flags: /Ogtp
; File C:\IAGOS\server\v18\Source\Source\_Common\File.h
;	COMDAT ?Flush@CFileIO@@UAEHXZ
_TEXT	SEGMENT
?Flush@CFileIO@@UAEHXZ PROC				; CFileIO::Flush, COMDAT
; _this$ = ecx

; 20   : 	virtual int	 Flush()  { return fflush( fp ); }

  00000	ff 71 04	 push	 DWORD PTR [ecx+4]
  00003	e8 00 00 00 00	 call	 _fflush
  00008	83 c4 04	 add	 esp, 4
  0000b	c3		 ret	 0
?Flush@CFileIO@@UAEHXZ ENDP				; CFileIO::Flush
_TEXT	ENDS
; Function compile flags: /Ogtp
; File C:\IAGOS\server\v18\Source\Source\_Common\File.h
;	COMDAT ??1CFileIO@@UAE@XZ
_TEXT	SEGMENT
__$EHRec$ = -12						; size = 12
??1CFileIO@@UAE@XZ PROC					; CFileIO::~CFileIO, COMDAT
; _this$ = ecx

; 17   : 	virtual ~CFileIO() { Close(); }

  00000	55		 push	 ebp
  00001	8b ec		 mov	 ebp, esp
  00003	6a ff		 push	 -1
  00005	68 00 00 00 00	 push	 __ehhandler$??1CFileIO@@UAE@XZ
  0000a	64 a1 00 00 00
	00		 mov	 eax, DWORD PTR fs:0
  00010	50		 push	 eax
  00011	a1 00 00 00 00	 mov	 eax, DWORD PTR ___security_cookie
  00016	33 c5		 xor	 eax, ebp
  00018	50		 push	 eax
  00019	8d 45 f4	 lea	 eax, DWORD PTR __$EHRec$[ebp]
  0001c	64 a3 00 00 00
	00		 mov	 DWORD PTR fs:0, eax
  00022	c7 01 00 00 00
	00		 mov	 DWORD PTR [ecx], OFFSET ??_7CFileIO@@6B@
  00028	e8 00 00 00 00	 call	 ?Close@CFileIO@@UAEHXZ	; CFileIO::Close
  0002d	8b 4d f4	 mov	 ecx, DWORD PTR __$EHRec$[ebp]
  00030	64 89 0d 00 00
	00 00		 mov	 DWORD PTR fs:0, ecx
  00037	59		 pop	 ecx
  00038	8b e5		 mov	 esp, ebp
  0003a	5d		 pop	 ebp
  0003b	c3		 ret	 0
  0003c	cc		 int	 3
  0003d	cc		 int	 3
  0003e	cc		 int	 3
  0003f	cc		 int	 3
  00040	cc		 int	 3
_TEXT	ENDS
;	COMDAT text$x
text$x	SEGMENT
__ehhandler$??1CFileIO@@UAE@XZ:
  00000	90		 npad	 1
  00001	90		 npad	 1
  00002	8b 54 24 08	 mov	 edx, DWORD PTR [esp+8]
  00006	8d 42 0c	 lea	 eax, DWORD PTR [edx+12]
  00009	8b 4a fc	 mov	 ecx, DWORD PTR [edx-4]
  0000c	33 c8		 xor	 ecx, eax
  0000e	e8 00 00 00 00	 call	 @__security_check_cookie@4
  00013	b8 00 00 00 00	 mov	 eax, OFFSET __ehfuncinfo$??1CFileIO@@UAE@XZ
  00018	e9 00 00 00 00	 jmp	 ___CxxFrameHandler3
text$x	ENDS
??1CFileIO@@UAE@XZ ENDP					; CFileIO::~CFileIO
; Function compile flags: /Ogtp
; File C:\IAGOS\server\v18\Source\Source\DX_SDK\d3dx9math.h
;	COMDAT ??0D3DXVECTOR3@@QAE@XZ
_TEXT	SEGMENT
??0D3DXVECTOR3@@QAE@XZ PROC				; D3DXVECTOR3::D3DXVECTOR3, COMDAT
; _this$ = ecx

; 165  :     D3DXVECTOR3() {};

  00000	8b c1		 mov	 eax, ecx
  00002	c3		 ret	 0
??0D3DXVECTOR3@@QAE@XZ ENDP				; D3DXVECTOR3::D3DXVECTOR3
_TEXT	ENDS
; Function compile flags: /Ogtp
; File C:\Program Files\Microsoft Visual Studio\2022\Professional\VC\Tools\MSVC\14.44.35207\include\xstring
; File C:\Program Files\Microsoft Visual Studio\2022\Professional\VC\Tools\MSVC\14.44.35207\include\__msvc_string_view.hpp
; File C:\Program Files\Microsoft Visual Studio\2022\Professional\VC\Tools\MSVC\14.44.35207\include\xstring
; File C:\Program Files\Microsoft Visual Studio\2022\Professional\VC\Tools\MSVC\14.44.35207\include\__msvc_string_view.hpp
; File C:\Program Files\Microsoft Visual Studio\2022\Professional\VC\Tools\MSVC\14.44.35207\include\xstring
; File C:\Program Files\Microsoft Visual Studio\2022\Professional\VC\Tools\MSVC\14.44.35207\include\__msvc_string_view.hpp
; File C:\Program Files\Microsoft Visual Studio\2022\Professional\VC\Tools\MSVC\14.44.35207\include\xstring
; File C:\Program Files\Microsoft Visual Studio\2022\Professional\VC\Tools\MSVC\14.44.35207\include\__msvc_string_view.hpp
; File C:\Program Files\Microsoft Visual Studio\2022\Professional\VC\Tools\MSVC\14.44.35207\include\xstring
; File C:\Program Files\Microsoft Visual Studio\2022\Professional\VC\Tools\MSVC\14.44.35207\include\__msvc_string_view.hpp
; File C:\Program Files\Microsoft Visual Studio\2022\Professional\VC\Tools\MSVC\14.44.35207\include\xstring
; File C:\Program Files\Microsoft Visual Studio\2022\Professional\VC\Tools\MSVC\14.44.35207\include\xmemory
; File C:\Program Files\Microsoft Visual Studio\2022\Professional\VC\Tools\MSVC\14.44.35207\include\xstring
; File C:\Program Files\Microsoft Visual Studio\2022\Professional\VC\Tools\MSVC\14.44.35207\include\xmemory
; File C:\Program Files\Microsoft Visual Studio\2022\Professional\VC\Tools\MSVC\14.44.35207\include\xstring
; File C:\Program Files\Microsoft Visual Studio\2022\Professional\VC\Tools\MSVC\14.44.35207\include\xmemory
; File C:\Program Files\Microsoft Visual Studio\2022\Professional\VC\Tools\MSVC\14.44.35207\include\xstring
; File C:\Program Files\Microsoft Visual Studio\2022\Professional\VC\Tools\MSVC\14.44.35207\include\__msvc_string_view.hpp
; File C:\Program Files\Microsoft Visual Studio\2022\Professional\VC\Tools\MSVC\14.44.35207\include\xstring
; File C:\Program Files\Microsoft Visual Studio\2022\Professional\VC\Tools\MSVC\14.44.35207\include\__msvc_string_view.hpp
; File C:\Program Files\Microsoft Visual Studio\2022\Professional\VC\Tools\MSVC\14.44.35207\include\xstring
; File C:\Program Files\Microsoft Visual Studio\2022\Professional\VC\Tools\MSVC\14.44.35207\include\__msvc_string_view.hpp
; File C:\Program Files\Microsoft Visual Studio\2022\Professional\VC\Tools\MSVC\14.44.35207\include\xstring
; File C:\Program Files\Microsoft Visual Studio\2022\Professional\VC\Tools\MSVC\14.44.35207\include\__msvc_string_view.hpp
; File C:\Program Files\Microsoft Visual Studio\2022\Professional\VC\Tools\MSVC\14.44.35207\include\xstring
; File C:\Program Files\Microsoft Visual Studio\2022\Professional\VC\Tools\MSVC\14.44.35207\include\xmemory
; File C:\Program Files\Microsoft Visual Studio\2022\Professional\VC\Tools\MSVC\14.44.35207\include\xstring
; File C:\Program Files\Microsoft Visual Studio\2022\Professional\VC\Tools\MSVC\14.44.35207\include\xmemory
; File C:\Program Files\Microsoft Visual Studio\2022\Professional\VC\Tools\MSVC\14.44.35207\include\xstring
;	COMDAT ??4?$basic_string@DU?$char_traits@D@std@@V?$allocator@D@2@@std@@QAEAAV01@QBD@Z
_TEXT	SEGMENT
__Old$1$ = -8						; size = 4
$T1 = -4						; size = 4
__Ptr$ = 8						; size = 4
??4?$basic_string@DU?$char_traits@D@std@@V?$allocator@D@2@@std@@QAEAAV01@QBD@Z PROC ; std::basic_string<char,std::char_traits<char>,std::allocator<char> >::operator=, COMDAT
; _this$ = ecx

; 1445 :     _CONSTEXPR20 basic_string& operator=(_In_z_ const _Elem* const _Ptr) {

  00000	55		 push	 ebp
  00001	8b ec		 mov	 ebp, esp
; File C:\Program Files\Microsoft Visual Studio\2022\Professional\VC\Tools\MSVC\14.44.35207\include\__msvc_string_view.hpp

; 459  :         return _CSTD strlen(reinterpret_cast<const char*>(_First));

  00003	8b 55 08	 mov	 edx, DWORD PTR __Ptr$[ebp]
; File C:\Program Files\Microsoft Visual Studio\2022\Professional\VC\Tools\MSVC\14.44.35207\include\xstring

; 1445 :     _CONSTEXPR20 basic_string& operator=(_In_z_ const _Elem* const _Ptr) {

  00006	83 ec 08	 sub	 esp, 8
  00009	53		 push	 ebx
  0000a	56		 push	 esi
; File C:\Program Files\Microsoft Visual Studio\2022\Professional\VC\Tools\MSVC\14.44.35207\include\__msvc_string_view.hpp

; 459  :         return _CSTD strlen(reinterpret_cast<const char*>(_First));

  0000b	8b f2		 mov	 esi, edx
; File C:\Program Files\Microsoft Visual Studio\2022\Professional\VC\Tools\MSVC\14.44.35207\include\xstring

; 1445 :     _CONSTEXPR20 basic_string& operator=(_In_z_ const _Elem* const _Ptr) {

  0000d	57		 push	 edi
  0000e	8b f9		 mov	 edi, ecx
; File C:\Program Files\Microsoft Visual Studio\2022\Professional\VC\Tools\MSVC\14.44.35207\include\__msvc_string_view.hpp

; 459  :         return _CSTD strlen(reinterpret_cast<const char*>(_First));

  00010	8d 4e 01	 lea	 ecx, DWORD PTR [esi+1]
$LL76@operator:
  00013	8a 06		 mov	 al, BYTE PTR [esi]
  00015	46		 inc	 esi
  00016	84 c0		 test	 al, al
  00018	75 f9		 jne	 SHORT $LL76@operator
  0001a	2b f1		 sub	 esi, ecx
; File C:\Program Files\Microsoft Visual Studio\2022\Professional\VC\Tools\MSVC\14.44.35207\include\xstring

; 1618 :         if (_Count <= _Mypair._Myval2._Myres) {

  0001c	8b 4f 14	 mov	 ecx, DWORD PTR [edi+20]
  0001f	89 4d f8	 mov	 DWORD PTR __Old$1$[ebp], ecx
  00022	3b f1		 cmp	 esi, ecx
  00024	77 26		 ja	 SHORT $LN9@operator

; 435  :         value_type* _Result = _Bx._Buf;

  00026	8b df		 mov	 ebx, edi

; 453  :         return _Myres > _Small_string_capacity;

  00028	83 f9 0f	 cmp	 ecx, 15			; 0000000fH

; 436  :         if (_Large_mode_engaged()) {

  0002b	76 02		 jbe	 SHORT $LN12@operator

; 437  :             _Result = _Unfancy(_Bx._Ptr);

  0002d	8b 1f		 mov	 ebx, DWORD PTR [edi]
$LN12@operator:
; File C:\Program Files\Microsoft Visual Studio\2022\Professional\VC\Tools\MSVC\14.44.35207\include\__msvc_string_view.hpp

; 174  :         _CSTD memmove(_First1, _First2, _Count * sizeof(_Elem));

  0002f	56		 push	 esi
  00030	52		 push	 edx
  00031	53		 push	 ebx
; File C:\Program Files\Microsoft Visual Studio\2022\Professional\VC\Tools\MSVC\14.44.35207\include\xstring

; 1621 :             _Mypair._Myval2._Mysize = _Count;

  00032	89 77 10	 mov	 DWORD PTR [edi+16], esi
; File C:\Program Files\Microsoft Visual Studio\2022\Professional\VC\Tools\MSVC\14.44.35207\include\__msvc_string_view.hpp

; 174  :         _CSTD memmove(_First1, _First2, _Count * sizeof(_Elem));

  00035	e8 00 00 00 00	 call	 _memmove
  0003a	83 c4 0c	 add	 esp, 12			; 0000000cH
; File C:\Program Files\Microsoft Visual Studio\2022\Professional\VC\Tools\MSVC\14.44.35207\include\xstring

; 1623 :             _Traits::assign(_Old_ptr[_Count], _Elem());

  0003d	c6 04 33 00	 mov	 BYTE PTR [ebx+esi], 0

; 1446 :         return assign(_Ptr);

  00041	8b c7		 mov	 eax, edi

; 1447 :     }

  00043	5f		 pop	 edi
  00044	5e		 pop	 esi
  00045	5b		 pop	 ebx
  00046	8b e5		 mov	 esp, ebp
  00048	5d		 pop	 ebp
  00049	c2 04 00	 ret	 4
$LN9@operator:

; 2998 :         if (_New_size > max_size()) {

  0004c	81 fe ff ff ff
	7f		 cmp	 esi, 2147483647		; 7fffffffH
  00052	0f 87 d1 00 00
	00		 ja	 $LN91@operator

; 2978 :         const size_type _Masked = _Requested | _Alloc_mask;

  00058	8b de		 mov	 ebx, esi
  0005a	83 cb 0f	 or	 ebx, 15			; 0000000fH
  0005d	81 fb ff ff ff
	7f		 cmp	 ebx, 2147483647		; 7fffffffH

; 2979 :         if (_Masked > _Max) { // the mask overflows, settle for max_size()

  00063	76 12		 jbe	 SHORT $LN30@operator

; 2980 :             return _Max;

  00065	b8 00 00 00 80	 mov	 eax, -2147483648	; 80000000H
  0006a	bb ff ff ff 7f	 mov	 ebx, 2147483647		; 7fffffffH
; File C:\Program Files\Microsoft Visual Studio\2022\Professional\VC\Tools\MSVC\14.44.35207\include\xmemory

; 253  :             return _Allocate_manually_vector_aligned<_Traits>(_Bytes);

  0006f	50		 push	 eax
  00070	e8 00 00 00 00	 call	 ??$_Allocate_manually_vector_aligned@U_Default_allocate_traits@std@@@std@@YAPAXI@Z ; std::_Allocate_manually_vector_aligned<std::_Default_allocate_traits>
  00075	eb 45		 jmp	 SHORT $LN89@operator
$LN30@operator:
; File C:\Program Files\Microsoft Visual Studio\2022\Professional\VC\Tools\MSVC\14.44.35207\include\xstring

; 2983 :         if (_Old > _Max - _Old / 2) { // similarly, geometric overflows

  00077	8b d1		 mov	 edx, ecx
  00079	b8 ff ff ff 7f	 mov	 eax, 2147483647		; 7fffffffH
  0007e	d1 ea		 shr	 edx, 1
  00080	2b c2		 sub	 eax, edx
  00082	3b c8		 cmp	 ecx, eax
  00084	76 12		 jbe	 SHORT $LN31@operator

; 2984 :             return _Max;

  00086	b8 00 00 00 80	 mov	 eax, -2147483648	; 80000000H
  0008b	bb ff ff ff 7f	 mov	 ebx, 2147483647		; 7fffffffH
; File C:\Program Files\Microsoft Visual Studio\2022\Professional\VC\Tools\MSVC\14.44.35207\include\xmemory

; 253  :             return _Allocate_manually_vector_aligned<_Traits>(_Bytes);

  00090	50		 push	 eax
  00091	e8 00 00 00 00	 call	 ??$_Allocate_manually_vector_aligned@U_Default_allocate_traits@std@@@std@@YAPAXI@Z ; std::_Allocate_manually_vector_aligned<std::_Default_allocate_traits>
  00096	eb 24		 jmp	 SHORT $LN89@operator
$LN31@operator:
; File C:\Program Files\Microsoft Visual Studio\2022\Professional\VC\Tools\MSVC\14.44.35207\include\xstring

; 2987 :         return (_STD max)(_Masked, _Old + _Old / 2);

  00098	8d 04 0a	 lea	 eax, DWORD PTR [edx+ecx]
  0009b	3b d8		 cmp	 ebx, eax
  0009d	0f 42 d8	 cmovb	 ebx, eax

; 825  :         ++_Capacity; // Take null terminator into consideration

  000a0	8d 43 01	 lea	 eax, DWORD PTR [ebx+1]
; File C:\Program Files\Microsoft Visual Studio\2022\Professional\VC\Tools\MSVC\14.44.35207\include\xmemory

; 227  :     if (_Bytes == 0) {

  000a3	85 c0		 test	 eax, eax
  000a5	74 18		 je	 SHORT $LN88@operator
$LN44@operator:

; 228  :         return nullptr;
; 229  :     }
; 230  : 
; 231  : #if _HAS_CXX20 // TRANSITION, GH-1532
; 232  :     if (_STD is_constant_evaluated()) {
; 233  :         return _Traits::_Allocate(_Bytes);
; 234  :     }
; 235  : #endif // _HAS_CXX20
; 236  : 
; 237  : #ifdef __cpp_aligned_new
; 238  :     if constexpr (_Align > __STDCPP_DEFAULT_NEW_ALIGNMENT__) {
; 239  :         size_t _Passed_align = _Align;
; 240  : #if defined(_M_IX86) || defined(_M_X64)
; 241  :         if (_Bytes >= _Big_allocation_threshold) {
; 242  :             // boost the alignment of big allocations to help autovectorization
; 243  :             _Passed_align = (_STD max)(_Align, _Big_allocation_alignment);
; 244  :         }
; 245  : #endif // defined(_M_IX86) || defined(_M_X64)
; 246  :         return _Traits::_Allocate_aligned(_Bytes, _Passed_align);
; 247  :     } else
; 248  : #endif // defined(__cpp_aligned_new)
; 249  :     {
; 250  : #if defined(_M_IX86) || defined(_M_X64)
; 251  :         if (_Bytes >= _Big_allocation_threshold) {

  000a7	3d 00 10 00 00	 cmp	 eax, 4096		; 00001000H
  000ac	72 08		 jb	 SHORT $LN45@operator

; 253  :             return _Allocate_manually_vector_aligned<_Traits>(_Bytes);

  000ae	50		 push	 eax
  000af	e8 00 00 00 00	 call	 ??$_Allocate_manually_vector_aligned@U_Default_allocate_traits@std@@@std@@YAPAXI@Z ; std::_Allocate_manually_vector_aligned<std::_Default_allocate_traits>
  000b4	eb 06		 jmp	 SHORT $LN89@operator
$LN45@operator:

; 136  :         return ::operator new(_Bytes);

  000b6	50		 push	 eax
  000b7	e8 00 00 00 00	 call	 ??2@YAPAXI@Z		; operator new
$LN89@operator:
; File C:\Program Files\Microsoft Visual Studio\2022\Professional\VC\Tools\MSVC\14.44.35207\include\xstring

; 3009 :         _Mypair._Myval2._Mysize = _New_size;

  000bc	83 c4 04	 add	 esp, 4
$LN88@operator:
; File C:\Program Files\Microsoft Visual Studio\2022\Professional\VC\Tools\MSVC\14.44.35207\include\__msvc_string_view.hpp

; 121  :         _CSTD memcpy(_First1, _First2, _Count * sizeof(_Elem));

  000bf	56		 push	 esi
  000c0	ff 75 08	 push	 DWORD PTR __Ptr$[ebp]
; File C:\Program Files\Microsoft Visual Studio\2022\Professional\VC\Tools\MSVC\14.44.35207\include\xstring

; 3009 :         _Mypair._Myval2._Mysize = _New_size;

  000c3	89 45 fc	 mov	 DWORD PTR $T1[ebp], eax
; File C:\Program Files\Microsoft Visual Studio\2022\Professional\VC\Tools\MSVC\14.44.35207\include\__msvc_string_view.hpp

; 121  :         _CSTD memcpy(_First1, _First2, _Count * sizeof(_Elem));

  000c6	50		 push	 eax
; File C:\Program Files\Microsoft Visual Studio\2022\Professional\VC\Tools\MSVC\14.44.35207\include\xstring

; 3009 :         _Mypair._Myval2._Mysize = _New_size;

  000c7	89 77 10	 mov	 DWORD PTR [edi+16], esi

; 3010 :         _Mypair._Myval2._Myres  = _New_capacity;

  000ca	89 5f 14	 mov	 DWORD PTR [edi+20], ebx
; File C:\Program Files\Microsoft Visual Studio\2022\Professional\VC\Tools\MSVC\14.44.35207\include\__msvc_string_view.hpp

; 121  :         _CSTD memcpy(_First1, _First2, _Count * sizeof(_Elem));

  000cd	e8 00 00 00 00	 call	 _memcpy
; File C:\Program Files\Microsoft Visual Studio\2022\Professional\VC\Tools\MSVC\14.44.35207\include\xstring

; 1632 :                 _Traits::assign(_New_ptr[_Count], _Elem());

  000d2	8b 5d fc	 mov	 ebx, DWORD PTR $T1[ebp]
; File C:\Program Files\Microsoft Visual Studio\2022\Professional\VC\Tools\MSVC\14.44.35207\include\__msvc_string_view.hpp

; 121  :         _CSTD memcpy(_First1, _First2, _Count * sizeof(_Elem));

  000d5	83 c4 0c	 add	 esp, 12			; 0000000cH
; File C:\Program Files\Microsoft Visual Studio\2022\Professional\VC\Tools\MSVC\14.44.35207\include\xstring

; 3012 :         if (_Old_capacity > _Small_string_capacity) {

  000d8	8b 45 f8	 mov	 eax, DWORD PTR __Old$1$[ebp]

; 1632 :                 _Traits::assign(_New_ptr[_Count], _Elem());

  000db	c6 04 33 00	 mov	 BYTE PTR [ebx+esi], 0

; 3012 :         if (_Old_capacity > _Small_string_capacity) {

  000df	83 f8 0f	 cmp	 eax, 15			; 0000000fH
  000e2	76 29		 jbe	 SHORT $LN23@operator

; 852  :         _Al.deallocate(_Old_ptr, _Capacity + 1); // +1 for null terminator

  000e4	8d 48 01	 lea	 ecx, DWORD PTR [eax+1]
; File C:\Program Files\Microsoft Visual Studio\2022\Professional\VC\Tools\MSVC\14.44.35207\include\xmemory

; 985  :         _STD _Deallocate<_New_alignof<_Ty>>(_Ptr, sizeof(_Ty) * _Count);

  000e7	8b 07		 mov	 eax, DWORD PTR [edi]

; 284  :         if (_Bytes >= _Big_allocation_threshold) {

  000e9	81 f9 00 10 00
	00		 cmp	 ecx, 4096		; 00001000H
  000ef	72 12		 jb	 SHORT $LN67@operator

; 205  :     const uintptr_t _Ptr_container   = _Ptr_user[-1];

  000f1	8b 50 fc	 mov	 edx, DWORD PTR [eax-4]
  000f4	83 c1 23	 add	 ecx, 35			; 00000023H

; 206  : 
; 207  :     // If the following asserts, it likely means that we are performing
; 208  :     // an aligned delete on memory coming from an unaligned allocation.
; 209  :     _STL_ASSERT(_Ptr_user[-2] == _Big_allocation_sentinel, "invalid argument");
; 210  : 
; 211  :     // Extra paranoia on aligned allocation/deallocation; ensure _Ptr_container is
; 212  :     // in range [_Min_back_shift, _Non_user_size]
; 213  : #ifdef _DEBUG
; 214  :     constexpr uintptr_t _Min_back_shift = 2 * sizeof(void*);
; 215  : #else // ^^^ defined(_DEBUG) / !defined(_DEBUG) vvv
; 216  :     constexpr uintptr_t _Min_back_shift = sizeof(void*);
; 217  : #endif // ^^^ !defined(_DEBUG) ^^^
; 218  :     const uintptr_t _Back_shift = reinterpret_cast<uintptr_t>(_Ptr) - _Ptr_container;

  000f7	2b c2		 sub	 eax, edx

; 219  :     _STL_VERIFY(_Back_shift >= _Min_back_shift && _Back_shift <= _Non_user_size, "invalid argument");

  000f9	83 c0 fc	 add	 eax, -4			; fffffffcH
  000fc	83 f8 1f	 cmp	 eax, 31			; 0000001fH
  000ff	77 19		 ja	 SHORT $LN66@operator

; 220  :     _Ptr = reinterpret_cast<void*>(_Ptr_container);

  00101	8b c2		 mov	 eax, edx
$LN67@operator:

; 289  :         ::operator delete(_Ptr, _Bytes);

  00103	51		 push	 ecx
  00104	50		 push	 eax
  00105	e8 00 00 00 00	 call	 ??3@YAXPAXI@Z		; operator delete
  0010a	83 c4 08	 add	 esp, 8
$LN23@operator:
; File C:\Program Files\Microsoft Visual Studio\2022\Professional\VC\Tools\MSVC\14.44.35207\include\xstring

; 1628 :         return _Reallocate_for(

  0010d	89 1f		 mov	 DWORD PTR [edi], ebx

; 1446 :         return assign(_Ptr);

  0010f	8b c7		 mov	 eax, edi

; 1447 :     }

  00111	5f		 pop	 edi
  00112	5e		 pop	 esi
  00113	5b		 pop	 ebx
  00114	8b e5		 mov	 esp, ebp
  00116	5d		 pop	 ebp
  00117	c2 04 00	 ret	 4
$LN66@operator:
; File C:\Program Files\Microsoft Visual Studio\2022\Professional\VC\Tools\MSVC\14.44.35207\include\xmemory

; 219  :     _STL_VERIFY(_Back_shift >= _Min_back_shift && _Back_shift <= _Non_user_size, "invalid argument");

  0011a	6a 00		 push	 0
  0011c	6a 00		 push	 0
  0011e	6a 00		 push	 0
  00120	6a 00		 push	 0
  00122	6a 00		 push	 0
  00124	e8 00 00 00 00	 call	 __invoke_watson
$LN91@operator:
; File C:\Program Files\Microsoft Visual Studio\2022\Professional\VC\Tools\MSVC\14.44.35207\include\xstring

; 2999 :             _Xlen_string(); // result too long

  00129	e8 00 00 00 00	 call	 ?_Xlen_string@std@@YAXXZ ; std::_Xlen_string
$LN87@operator:
  0012e	cc		 int	 3
??4?$basic_string@DU?$char_traits@D@std@@V?$allocator@D@2@@std@@QAEAAV01@QBD@Z ENDP ; std::basic_string<char,std::char_traits<char>,std::allocator<char> >::operator=
_TEXT	ENDS
; Function compile flags: /Ogtp
; File C:\Program Files\Microsoft Visual Studio\2022\Professional\VC\Tools\MSVC\14.44.35207\include\xstring
;	COMDAT ?_Xlen_string@std@@YAXXZ
_TEXT	SEGMENT
?_Xlen_string@std@@YAXXZ PROC				; std::_Xlen_string, COMDAT

; 531  :     _Xlength_error("string too long");

  00000	68 00 00 00 00	 push	 OFFSET ??_C@_0BA@JFNIOLAK@string?5too?5long@
  00005	e8 00 00 00 00	 call	 ?_Xlength_error@std@@YAXPBD@Z ; std::_Xlength_error
$LN3@Xlen_strin:
  0000a	cc		 int	 3
?_Xlen_string@std@@YAXXZ ENDP				; std::_Xlen_string
_TEXT	ENDS
; Function compile flags: /Ogtp
; File C:\Program Files\Microsoft Visual Studio\2022\Professional\VC\Tools\MSVC\14.44.35207\include\xmemory
;	COMDAT ?_Throw_bad_array_new_length@std@@YAXXZ
_TEXT	SEGMENT
$T1 = -12						; size = 12
?_Throw_bad_array_new_length@std@@YAXXZ PROC		; std::_Throw_bad_array_new_length, COMDAT

; 107  : [[noreturn]] inline void _Throw_bad_array_new_length() {

  00000	55		 push	 ebp
  00001	8b ec		 mov	 ebp, esp
  00003	83 ec 0c	 sub	 esp, 12			; 0000000cH

; 108  :     _THROW(bad_array_new_length{});

  00006	8d 4d f4	 lea	 ecx, DWORD PTR $T1[ebp]
  00009	e8 00 00 00 00	 call	 ??0bad_array_new_length@std@@QAE@XZ ; std::bad_array_new_length::bad_array_new_length
  0000e	68 00 00 00 00	 push	 OFFSET __TI3?AVbad_array_new_length@std@@
  00013	8d 45 f4	 lea	 eax, DWORD PTR $T1[ebp]
  00016	50		 push	 eax
  00017	e8 00 00 00 00	 call	 __CxxThrowException@8
$LN3@Throw_bad_:
  0001c	cc		 int	 3
?_Throw_bad_array_new_length@std@@YAXXZ ENDP		; std::_Throw_bad_array_new_length
_TEXT	ENDS
; Function compile flags: /Ogtp
; File C:\Program Files\Microsoft Visual Studio\2022\Professional\VC\Tools\MSVC\14.44.35207\include\vcruntime_exception.h
;	COMDAT ??_Gbad_array_new_length@std@@UAEPAXI@Z
_TEXT	SEGMENT
___flags$ = 8						; size = 4
??_Gbad_array_new_length@std@@UAEPAXI@Z PROC		; std::bad_array_new_length::`scalar deleting destructor', COMDAT
; _this$ = ecx
  00000	55		 push	 ebp
  00001	8b ec		 mov	 ebp, esp

; 90   :     {

  00003	56		 push	 esi
  00004	8b f1		 mov	 esi, ecx

; 91   :         __std_exception_destroy(&_Data);

  00006	8d 46 04	 lea	 eax, DWORD PTR [esi+4]
  00009	c7 06 00 00 00
	00		 mov	 DWORD PTR [esi], OFFSET ??_7exception@std@@6B@
  0000f	50		 push	 eax
  00010	e8 00 00 00 00	 call	 ___std_exception_destroy
  00015	83 c4 04	 add	 esp, 4
  00018	f6 45 08 01	 test	 BYTE PTR ___flags$[ebp], 1
  0001c	74 0b		 je	 SHORT $LN18@scalar
  0001e	6a 0c		 push	 12			; 0000000cH
  00020	56		 push	 esi
  00021	e8 00 00 00 00	 call	 ??3@YAXPAXI@Z		; operator delete
  00026	83 c4 08	 add	 esp, 8
$LN18@scalar:
  00029	8b c6		 mov	 eax, esi
  0002b	5e		 pop	 esi
  0002c	5d		 pop	 ebp
  0002d	c2 04 00	 ret	 4
??_Gbad_array_new_length@std@@UAEPAXI@Z ENDP		; std::bad_array_new_length::`scalar deleting destructor'
_TEXT	ENDS
; Function compile flags: /Ogtp
; File C:\Program Files\Microsoft Visual Studio\2022\Professional\VC\Tools\MSVC\14.44.35207\include\vcruntime_exception.h
;	COMDAT ??0bad_array_new_length@std@@QAE@ABV01@@Z
_TEXT	SEGMENT
___that$ = 8						; size = 4
??0bad_array_new_length@std@@QAE@ABV01@@Z PROC		; std::bad_array_new_length::bad_array_new_length, COMDAT
; _this$ = ecx
  00000	55		 push	 ebp
  00001	8b ec		 mov	 ebp, esp

; 73   :     {

  00003	56		 push	 esi
  00004	8b f1		 mov	 esi, ecx
  00006	0f 57 c0	 xorps	 xmm0, xmm0

; 72   :         : _Data()

  00009	8d 46 04	 lea	 eax, DWORD PTR [esi+4]

; 74   :         __std_exception_copy(&_Other._Data, &_Data);

  0000c	50		 push	 eax
  0000d	c7 06 00 00 00
	00		 mov	 DWORD PTR [esi], OFFSET ??_7exception@std@@6B@
  00013	66 0f d6 00	 movq	 QWORD PTR [eax], xmm0
  00017	8b 45 08	 mov	 eax, DWORD PTR ___that$[ebp]
  0001a	83 c0 04	 add	 eax, 4
  0001d	50		 push	 eax
  0001e	e8 00 00 00 00	 call	 ___std_exception_copy
  00023	83 c4 08	 add	 esp, 8
  00026	c7 06 00 00 00
	00		 mov	 DWORD PTR [esi], OFFSET ??_7bad_array_new_length@std@@6B@
  0002c	8b c6		 mov	 eax, esi
  0002e	5e		 pop	 esi
  0002f	5d		 pop	 ebp
  00030	c2 04 00	 ret	 4
??0bad_array_new_length@std@@QAE@ABV01@@Z ENDP		; std::bad_array_new_length::bad_array_new_length
_TEXT	ENDS
; Function compile flags: /Ogtp
; File C:\Program Files\Microsoft Visual Studio\2022\Professional\VC\Tools\MSVC\14.44.35207\include\vcruntime_exception.h
;	COMDAT ??1bad_array_new_length@std@@UAE@XZ
_TEXT	SEGMENT
??1bad_array_new_length@std@@UAE@XZ PROC		; std::bad_array_new_length::~bad_array_new_length, COMDAT
; _this$ = ecx

; 91   :         __std_exception_destroy(&_Data);

  00000	8d 41 04	 lea	 eax, DWORD PTR [ecx+4]
  00003	c7 01 00 00 00
	00		 mov	 DWORD PTR [ecx], OFFSET ??_7exception@std@@6B@
  00009	50		 push	 eax
  0000a	e8 00 00 00 00	 call	 ___std_exception_destroy
  0000f	59		 pop	 ecx
  00010	c3		 ret	 0
??1bad_array_new_length@std@@UAE@XZ ENDP		; std::bad_array_new_length::~bad_array_new_length
_TEXT	ENDS
; Function compile flags: /Ogtp
; File C:\Program Files\Microsoft Visual Studio\2022\Professional\VC\Tools\MSVC\14.44.35207\include\vcruntime_exception.h
;	COMDAT ??0bad_array_new_length@std@@QAE@XZ
_TEXT	SEGMENT
??0bad_array_new_length@std@@QAE@XZ PROC		; std::bad_array_new_length::bad_array_new_length, COMDAT
; _this$ = ecx

; 144  :     {

  00000	0f 57 c0	 xorps	 xmm0, xmm0

; 145  :     }

  00003	8b c1		 mov	 eax, ecx

; 66   :         : _Data()

  00005	66 0f d6 41 04	 movq	 QWORD PTR [ecx+4], xmm0

; 67   :     {
; 68   :         _Data._What = _Message;

  0000a	c7 41 04 00 00
	00 00		 mov	 DWORD PTR [ecx+4], OFFSET ??_C@_0BF@KINCDENJ@bad?5array?5new?5length@

; 144  :     {

  00011	c7 01 00 00 00
	00		 mov	 DWORD PTR [ecx], OFFSET ??_7bad_array_new_length@std@@6B@

; 145  :     }

  00017	c3		 ret	 0
??0bad_array_new_length@std@@QAE@XZ ENDP		; std::bad_array_new_length::bad_array_new_length
_TEXT	ENDS
; Function compile flags: /Ogtp
; File C:\Program Files\Microsoft Visual Studio\2022\Professional\VC\Tools\MSVC\14.44.35207\include\vcruntime_exception.h
;	COMDAT ??_Gbad_alloc@std@@UAEPAXI@Z
_TEXT	SEGMENT
___flags$ = 8						; size = 4
??_Gbad_alloc@std@@UAEPAXI@Z PROC			; std::bad_alloc::`scalar deleting destructor', COMDAT
; _this$ = ecx
  00000	55		 push	 ebp
  00001	8b ec		 mov	 ebp, esp

; 90   :     {

  00003	56		 push	 esi
  00004	8b f1		 mov	 esi, ecx

; 91   :         __std_exception_destroy(&_Data);

  00006	8d 46 04	 lea	 eax, DWORD PTR [esi+4]
  00009	c7 06 00 00 00
	00		 mov	 DWORD PTR [esi], OFFSET ??_7exception@std@@6B@
  0000f	50		 push	 eax
  00010	e8 00 00 00 00	 call	 ___std_exception_destroy
  00015	83 c4 04	 add	 esp, 4
  00018	f6 45 08 01	 test	 BYTE PTR ___flags$[ebp], 1
  0001c	74 0b		 je	 SHORT $LN13@scalar
  0001e	6a 0c		 push	 12			; 0000000cH
  00020	56		 push	 esi
  00021	e8 00 00 00 00	 call	 ??3@YAXPAXI@Z		; operator delete
  00026	83 c4 08	 add	 esp, 8
$LN13@scalar:
  00029	8b c6		 mov	 eax, esi
  0002b	5e		 pop	 esi
  0002c	5d		 pop	 ebp
  0002d	c2 04 00	 ret	 4
??_Gbad_alloc@std@@UAEPAXI@Z ENDP			; std::bad_alloc::`scalar deleting destructor'
_TEXT	ENDS
; Function compile flags: /Ogtp
; File C:\Program Files\Microsoft Visual Studio\2022\Professional\VC\Tools\MSVC\14.44.35207\include\vcruntime_exception.h
;	COMDAT ??0bad_alloc@std@@QAE@ABV01@@Z
_TEXT	SEGMENT
___that$ = 8						; size = 4
??0bad_alloc@std@@QAE@ABV01@@Z PROC			; std::bad_alloc::bad_alloc, COMDAT
; _this$ = ecx
  00000	55		 push	 ebp
  00001	8b ec		 mov	 ebp, esp

; 73   :     {

  00003	56		 push	 esi
  00004	8b f1		 mov	 esi, ecx
  00006	0f 57 c0	 xorps	 xmm0, xmm0

; 72   :         : _Data()

  00009	8d 46 04	 lea	 eax, DWORD PTR [esi+4]

; 74   :         __std_exception_copy(&_Other._Data, &_Data);

  0000c	50		 push	 eax
  0000d	c7 06 00 00 00
	00		 mov	 DWORD PTR [esi], OFFSET ??_7exception@std@@6B@
  00013	66 0f d6 00	 movq	 QWORD PTR [eax], xmm0
  00017	8b 45 08	 mov	 eax, DWORD PTR ___that$[ebp]
  0001a	83 c0 04	 add	 eax, 4
  0001d	50		 push	 eax
  0001e	e8 00 00 00 00	 call	 ___std_exception_copy
  00023	83 c4 08	 add	 esp, 8
  00026	c7 06 00 00 00
	00		 mov	 DWORD PTR [esi], OFFSET ??_7bad_alloc@std@@6B@
  0002c	8b c6		 mov	 eax, esi
  0002e	5e		 pop	 esi
  0002f	5d		 pop	 ebp
  00030	c2 04 00	 ret	 4
??0bad_alloc@std@@QAE@ABV01@@Z ENDP			; std::bad_alloc::bad_alloc
_TEXT	ENDS
; Function compile flags: /Ogtp
; File C:\Program Files\Microsoft Visual Studio\2022\Professional\VC\Tools\MSVC\14.44.35207\include\vcruntime_exception.h
;	COMDAT ??_Gexception@std@@UAEPAXI@Z
_TEXT	SEGMENT
___flags$ = 8						; size = 4
??_Gexception@std@@UAEPAXI@Z PROC			; std::exception::`scalar deleting destructor', COMDAT
; _this$ = ecx
  00000	55		 push	 ebp
  00001	8b ec		 mov	 ebp, esp

; 90   :     {

  00003	56		 push	 esi
  00004	8b f1		 mov	 esi, ecx

; 91   :         __std_exception_destroy(&_Data);

  00006	8d 46 04	 lea	 eax, DWORD PTR [esi+4]
  00009	c7 06 00 00 00
	00		 mov	 DWORD PTR [esi], OFFSET ??_7exception@std@@6B@
  0000f	50		 push	 eax
  00010	e8 00 00 00 00	 call	 ___std_exception_destroy
  00015	83 c4 04	 add	 esp, 4
  00018	f6 45 08 01	 test	 BYTE PTR ___flags$[ebp], 1
  0001c	74 0b		 je	 SHORT $LN8@scalar
  0001e	6a 0c		 push	 12			; 0000000cH
  00020	56		 push	 esi
  00021	e8 00 00 00 00	 call	 ??3@YAXPAXI@Z		; operator delete
  00026	83 c4 08	 add	 esp, 8
$LN8@scalar:
  00029	8b c6		 mov	 eax, esi
  0002b	5e		 pop	 esi
  0002c	5d		 pop	 ebp
  0002d	c2 04 00	 ret	 4
??_Gexception@std@@UAEPAXI@Z ENDP			; std::exception::`scalar deleting destructor'
_TEXT	ENDS
; Function compile flags: /Ogtp
; File C:\Program Files\Microsoft Visual Studio\2022\Professional\VC\Tools\MSVC\14.44.35207\include\vcruntime_exception.h
;	COMDAT ?what@exception@std@@UBEPBDXZ
_TEXT	SEGMENT
?what@exception@std@@UBEPBDXZ PROC			; std::exception::what, COMDAT
; _this$ = ecx

; 96   :         return _Data._What ? _Data._What : "Unknown exception";

  00000	8b 49 04	 mov	 ecx, DWORD PTR [ecx+4]
  00003	b8 00 00 00 00	 mov	 eax, OFFSET ??_C@_0BC@EOODALEL@Unknown?5exception@
  00008	85 c9		 test	 ecx, ecx
  0000a	0f 45 c1	 cmovne	 eax, ecx

; 97   :     }

  0000d	c3		 ret	 0
?what@exception@std@@UBEPBDXZ ENDP			; std::exception::what
_TEXT	ENDS
; Function compile flags: /Ogtp
; File C:\Program Files\Microsoft Visual Studio\2022\Professional\VC\Tools\MSVC\14.44.35207\include\vcruntime_exception.h
;	COMDAT ??1exception@std@@UAE@XZ
_TEXT	SEGMENT
??1exception@std@@UAE@XZ PROC				; std::exception::~exception, COMDAT
; _this$ = ecx

; 91   :         __std_exception_destroy(&_Data);

  00000	8d 41 04	 lea	 eax, DWORD PTR [ecx+4]
  00003	c7 01 00 00 00
	00		 mov	 DWORD PTR [ecx], OFFSET ??_7exception@std@@6B@
  00009	50		 push	 eax
  0000a	e8 00 00 00 00	 call	 ___std_exception_destroy
  0000f	59		 pop	 ecx

; 92   :     }

  00010	c3		 ret	 0
??1exception@std@@UAE@XZ ENDP				; std::exception::~exception
_TEXT	ENDS
; Function compile flags: /Ogtp
; File C:\Program Files\Microsoft Visual Studio\2022\Professional\VC\Tools\MSVC\14.44.35207\include\vcruntime_exception.h
;	COMDAT ??0exception@std@@QAE@ABV01@@Z
_TEXT	SEGMENT
__Other$ = 8						; size = 4
??0exception@std@@QAE@ABV01@@Z PROC			; std::exception::exception, COMDAT
; _this$ = ecx

; 73   :     {

  00000	55		 push	 ebp
  00001	8b ec		 mov	 ebp, esp
  00003	56		 push	 esi
  00004	8b f1		 mov	 esi, ecx
  00006	0f 57 c0	 xorps	 xmm0, xmm0
  00009	8d 46 04	 lea	 eax, DWORD PTR [esi+4]

; 74   :         __std_exception_copy(&_Other._Data, &_Data);

  0000c	50		 push	 eax
  0000d	c7 06 00 00 00
	00		 mov	 DWORD PTR [esi], OFFSET ??_7exception@std@@6B@
  00013	66 0f d6 00	 movq	 QWORD PTR [eax], xmm0
  00017	8b 45 08	 mov	 eax, DWORD PTR __Other$[ebp]
  0001a	83 c0 04	 add	 eax, 4
  0001d	50		 push	 eax
  0001e	e8 00 00 00 00	 call	 ___std_exception_copy
  00023	83 c4 08	 add	 esp, 8

; 75   :     }

  00026	8b c6		 mov	 eax, esi
  00028	5e		 pop	 esi
  00029	5d		 pop	 ebp
  0002a	c2 04 00	 ret	 4
??0exception@std@@QAE@ABV01@@Z ENDP			; std::exception::exception
_TEXT	ENDS
; Function compile flags: /Ogtp
; File C:\Program Files\Microsoft Visual Studio\2022\Professional\VC\Tools\MSVC\14.44.35207\atlmfc\include\cstringt.h
; File C:\Program Files\Microsoft Visual Studio\2022\Professional\VC\Tools\MSVC\14.44.35207\atlmfc\include\afxstr.h
; File C:\Program Files\Microsoft Visual Studio\2022\Professional\VC\Tools\MSVC\14.44.35207\atlmfc\include\cstringt.h
; File C:\Program Files\Microsoft Visual Studio\2022\Professional\VC\Tools\MSVC\14.44.35207\atlmfc\include\afxstr.h
; File C:\Program Files\Microsoft Visual Studio\2022\Professional\VC\Tools\MSVC\14.44.35207\atlmfc\include\cstringt.h
; File C:\Program Files\Microsoft Visual Studio\2022\Professional\VC\Tools\MSVC\14.44.35207\atlmfc\include\atlcore.h
; File C:\Program Files\Microsoft Visual Studio\2022\Professional\VC\Tools\MSVC\14.44.35207\atlmfc\include\cstringt.h
; File C:\Program Files\Microsoft Visual Studio\2022\Professional\VC\Tools\MSVC\14.44.35207\atlmfc\include\atlsimpstr.h
; File C:\Program Files\Microsoft Visual Studio\2022\Professional\VC\Tools\MSVC\14.44.35207\atlmfc\include\cstringt.h
; File C:\Program Files\Microsoft Visual Studio\2022\Professional\VC\Tools\MSVC\14.44.35207\atlmfc\include\atlsimpstr.h
; File C:\Program Files\Microsoft Visual Studio\2022\Professional\VC\Tools\MSVC\14.44.35207\atlmfc\include\cstringt.h
; File C:\Program Files\Microsoft Visual Studio\2022\Professional\VC\Tools\MSVC\14.44.35207\atlmfc\include\atlsimpstr.h
; File C:\Program Files\Microsoft Visual Studio\2022\Professional\VC\Tools\MSVC\14.44.35207\atlmfc\include\cstringt.h
; File C:\Program Files\Microsoft Visual Studio\2022\Professional\VC\Tools\MSVC\14.44.35207\atlmfc\include\atlsimpstr.h
; File C:\Program Files\Microsoft Visual Studio\2022\Professional\VC\Tools\MSVC\14.44.35207\atlmfc\include\cstringt.h
;	COMDAT ?LoadStringA@?$CStringT@DV?$StrTraitMFC@DV?$ChTraitsCRT@D@ATL@@@@@ATL@@QAEHI@Z
_TEXT	SEGMENT
_this$1$ = -4						; size = 4
_nID$ = 8						; size = 4
_hResource$1$ = 8					; size = 4
?LoadStringA@?$CStringT@DV?$StrTraitMFC@DV?$ChTraitsCRT@D@ATL@@@@@ATL@@QAEHI@Z PROC ; ATL::CStringT<char,StrTraitMFC<char,ATL::ChTraitsCRT<char> > >::LoadStringA, COMDAT
; _this$ = ecx

; 2340 : 	{

  00000	55		 push	 ebp
  00001	8b ec		 mov	 ebp, esp
  00003	51		 push	 ecx
  00004	53		 push	 ebx
  00005	57		 push	 edi
; File C:\Program Files\Microsoft Visual Studio\2022\Professional\VC\Tools\MSVC\14.44.35207\atlmfc\include\afxstr.h

; 51   : 		return( AfxFindStringResourceHandle( nID ) );

  00006	8b 7d 08	 mov	 edi, DWORD PTR _nID$[ebp]
  00009	57		 push	 edi
; File C:\Program Files\Microsoft Visual Studio\2022\Professional\VC\Tools\MSVC\14.44.35207\atlmfc\include\cstringt.h

; 2340 : 	{

  0000a	89 4d fc	 mov	 DWORD PTR _this$1$[ebp], ecx
; File C:\Program Files\Microsoft Visual Studio\2022\Professional\VC\Tools\MSVC\14.44.35207\atlmfc\include\afxstr.h

; 51   : 		return( AfxFindStringResourceHandle( nID ) );

  0000d	e8 00 00 00 00	 call	 ?AfxFindStringResourceHandle@@YGPAUHINSTANCE__@@I@Z ; AfxFindStringResourceHandle
; File C:\Program Files\Microsoft Visual Studio\2022\Professional\VC\Tools\MSVC\14.44.35207\atlmfc\include\cstringt.h

; 2341 : 		HINSTANCE hInstance = StringTraits::FindStringResourceInstance( nID );

  00012	8b d8		 mov	 ebx, eax

; 2342 : 		if( hInstance == NULL )

  00014	85 db		 test	 ebx, ebx
  00016	75 08		 jne	 SHORT $LN2@LoadString

; 2348 : 	}

  00018	5f		 pop	 edi
  00019	5b		 pop	 ebx
  0001a	8b e5		 mov	 esp, ebp
  0001c	5d		 pop	 ebp
  0001d	c2 04 00	 ret	 4
$LN2@LoadString:
; File C:\Program Files\Microsoft Visual Studio\2022\Professional\VC\Tools\MSVC\14.44.35207\atlmfc\include\atlcore.h

; 380  : 	hResource = ::FindResourceW(hInstance, MAKEINTRESOURCEW( (((id>>4)+1) & static_cast<WORD>(~0)) ), (LPWSTR) RT_STRING);

  00020	8b c7		 mov	 eax, edi
  00022	c1 e8 04	 shr	 eax, 4
  00025	56		 push	 esi
  00026	40		 inc	 eax
  00027	6a 06		 push	 6
  00029	0f b7 c0	 movzx	 eax, ax
  0002c	50		 push	 eax
  0002d	53		 push	 ebx
  0002e	ff 15 00 00 00
	00		 call	 DWORD PTR __imp__FindResourceW@12
  00034	89 45 08	 mov	 DWORD PTR _hResource$1$[ebp], eax

; 381  : 	if( hResource == NULL )

  00037	85 c0		 test	 eax, eax
  00039	0f 84 cc 00 00
	00		 je	 $LN51@LoadString

; 338  : 	hGlobal = ::LoadResource( hInstance, hResource );

  0003f	50		 push	 eax
  00040	53		 push	 ebx
  00041	ff 15 00 00 00
	00		 call	 DWORD PTR __imp__LoadResource@8

; 339  : 	if( hGlobal == NULL )

  00047	85 c0		 test	 eax, eax
  00049	75 04		 jne	 SHORT $LN15@LoadString

; 340  : 	{
; 341  : 		return( NULL );

  0004b	33 f6		 xor	 esi, esi
  0004d	eb 43		 jmp	 SHORT $LN18@LoadString
$LN15@LoadString:

; 342  : 	}
; 343  : 
; 344  : 	pImage = (const ATLSTRINGRESOURCEIMAGE*)::LockResource( hGlobal );

  0004f	50		 push	 eax
  00050	ff 15 00 00 00
	00		 call	 DWORD PTR __imp__LockResource@4
  00056	8b f0		 mov	 esi, eax

; 345  : 	if( pImage == NULL )

  00058	85 f6		 test	 esi, esi
  0005a	74 36		 je	 SHORT $LN18@LoadString
$LN16@LoadString:

; 346  : 	{
; 347  : 		return( NULL );
; 348  : 	}
; 349  : 
; 350  : 	nResourceSize = ::SizeofResource( hInstance, hResource );

  0005c	ff 75 08	 push	 DWORD PTR _hResource$1$[ebp]
  0005f	53		 push	 ebx
  00060	ff 15 00 00 00
	00		 call	 DWORD PTR __imp__SizeofResource@8

; 351  : 	pImageEnd = (const ATLSTRINGRESOURCEIMAGE*)(LPBYTE( pImage )+nResourceSize);

  00066	8d 0c 06	 lea	 ecx, DWORD PTR [esi+eax]

; 352  : 	iIndex = id&0x000f;

  00069	83 e7 0f	 and	 edi, 15			; 0000000fH

; 353  : 
; 354  : 	while( (iIndex > 0) && (pImage < pImageEnd) )

  0006c	76 14		 jbe	 SHORT $LN14@LoadString
  0006e	66 90		 npad	 2
$LL13@LoadString:
  00070	3b f1		 cmp	 esi, ecx
  00072	73 12		 jae	 SHORT $LN50@LoadString

; 355  : 	{
; 356  : 		pImage = (const ATLSTRINGRESOURCEIMAGE*)(LPBYTE( pImage )+(sizeof( ATLSTRINGRESOURCEIMAGE )+(pImage->nLength*sizeof( WCHAR ))));

  00074	0f b7 06	 movzx	 eax, WORD PTR [esi]
  00077	8d 34 46	 lea	 esi, DWORD PTR [esi+eax*2]
  0007a	83 c6 02	 add	 esi, 2

; 357  : 		iIndex--;

  0007d	83 ef 01	 sub	 edi, 1
  00080	75 ee		 jne	 SHORT $LL13@LoadString
$LN14@LoadString:

; 358  : 	}
; 359  : 	if( pImage >= pImageEnd )

  00082	3b f1		 cmp	 esi, ecx
  00084	72 04		 jb	 SHORT $LN17@LoadString
$LN50@LoadString:

; 360  : 	{
; 361  : 		return( NULL );

  00086	33 f6		 xor	 esi, esi
  00088	eb 08		 jmp	 SHORT $LN18@LoadString
$LN17@LoadString:

; 362  : 	}
; 363  : 	if( pImage->nLength == 0 )

  0008a	33 c0		 xor	 eax, eax
  0008c	66 39 06	 cmp	 WORD PTR [esi], ax
  0008f	0f 44 f0	 cmove	 esi, eax
$LN18@LoadString:
; File C:\Program Files\Microsoft Visual Studio\2022\Professional\VC\Tools\MSVC\14.44.35207\atlmfc\include\cstringt.h

; 2356 : 		if( pImage == NULL )

  00092	85 f6		 test	 esi, esi
  00094	74 75		 je	 SHORT $LN51@LoadString

; 2359 : 		}
; 2360 : 
; 2361 : 		int nLength = StringTraits::GetBaseTypeLength( pImage->achString, pImage->nLength );

  00096	0f b7 06	 movzx	 eax, WORD PTR [esi]
  00099	8d 4e 02	 lea	 ecx, DWORD PTR [esi+2]

; 350  : 		return ::WideCharToMultiByte( _AtlGetConversionACP(), 0, pszSource, nLength, NULL, 0, NULL, NULL );

  0009c	6a 00		 push	 0
  0009e	6a 00		 push	 0
  000a0	6a 00		 push	 0
  000a2	6a 00		 push	 0
  000a4	50		 push	 eax
  000a5	51		 push	 ecx
  000a6	6a 00		 push	 0
  000a8	6a 03		 push	 3
  000aa	ff 15 00 00 00
	00		 call	 DWORD PTR __imp__WideCharToMultiByte@32

; 2361 : 		int nLength = StringTraits::GetBaseTypeLength( pImage->achString, pImage->nLength );

  000b0	8b f8		 mov	 edi, eax
; File C:\Program Files\Microsoft Visual Studio\2022\Professional\VC\Tools\MSVC\14.44.35207\atlmfc\include\atlsimpstr.h

; 808  : 		if (nLength < 0)

  000b2	85 ff		 test	 edi, edi
  000b4	78 60		 js	 SHORT $LN38@LoadString

; 804  : 		return( reinterpret_cast< CStringData* >( m_pszData )-1 );

  000b6	8b 5d fc	 mov	 ebx, DWORD PTR _this$1$[ebp]

; 812  : 		int nShared = 1-pOldData->nRefs;  // nShared < 0 means true, >= 0 means false

  000b9	ba 01 00 00 00	 mov	 edx, 1

; 804  : 		return( reinterpret_cast< CStringData* >( m_pszData )-1 );

  000be	8b 0b		 mov	 ecx, DWORD PTR [ebx]

; 812  : 		int nShared = 1-pOldData->nRefs;  // nShared < 0 means true, >= 0 means false

  000c0	2b 51 fc	 sub	 edx, DWORD PTR [ecx-4]

; 813  : 		int nTooShort = pOldData->nAllocLength-nLength;  // nTooShort < 0 means true, >= 0 means false

  000c3	8b 49 f8	 mov	 ecx, DWORD PTR [ecx-8]
  000c6	2b cf		 sub	 ecx, edi

; 814  : 		if( (nShared|nTooShort) < 0 )  // If either sign bit is set (i.e. either is less than zero), we need to copy data

  000c8	0b d1		 or	 edx, ecx
  000ca	7d 08		 jge	 SHORT $LN26@LoadString

; 815  : 		{
; 816  : 			PrepareWrite2( nLength );

  000cc	57		 push	 edi
  000cd	8b cb		 mov	 ecx, ebx
  000cf	e8 00 00 00 00	 call	 ?PrepareWrite2@?$CSimpleStringT@D$0A@@ATL@@AAEXH@Z ; ATL::CSimpleStringT<char,0>::PrepareWrite2
$LN26@LoadString:
; File C:\Program Files\Microsoft Visual Studio\2022\Professional\VC\Tools\MSVC\14.44.35207\atlmfc\include\cstringt.h

; 2363 : 		StringTraits::ConvertToBaseType( pszBuffer, nLength, pImage->achString, pImage->nLength );

  000d4	0f b7 06	 movzx	 eax, WORD PTR [esi]

; 372  : 		::WideCharToMultiByte( _AtlGetConversionACP(), 0, pszSrc, nSrcLength, pszDest, nDestLength, NULL, NULL );

  000d7	6a 00		 push	 0
  000d9	6a 00		 push	 0
  000db	57		 push	 edi
  000dc	ff 33		 push	 DWORD PTR [ebx]
  000de	50		 push	 eax
  000df	8d 46 02	 lea	 eax, DWORD PTR [esi+2]
  000e2	50		 push	 eax
  000e3	6a 00		 push	 0
  000e5	6a 03		 push	 3
  000e7	ff 15 00 00 00
	00		 call	 DWORD PTR __imp__WideCharToMultiByte@32
; File C:\Program Files\Microsoft Visual Studio\2022\Professional\VC\Tools\MSVC\14.44.35207\atlmfc\include\atlsimpstr.h

; 875  : 		if( nLength < 0 || nLength > GetData()->nAllocLength)

  000ed	8b 03		 mov	 eax, DWORD PTR [ebx]
  000ef	3b 78 f8	 cmp	 edi, DWORD PTR [eax-8]
  000f2	7f 22		 jg	 SHORT $LN38@LoadString

; 877  : 
; 878  : 		GetData()->nDataLength = nLength;

  000f4	89 78 f4	 mov	 DWORD PTR [eax-12], edi

; 879  : 		m_pszData[nLength] = 0;

  000f7	8b 03		 mov	 eax, DWORD PTR [ebx]
; File C:\Program Files\Microsoft Visual Studio\2022\Professional\VC\Tools\MSVC\14.44.35207\atlmfc\include\cstringt.h

; 2347 : 		return( LoadString( hInstance, nID ) );

  000f9	5e		 pop	 esi
; File C:\Program Files\Microsoft Visual Studio\2022\Professional\VC\Tools\MSVC\14.44.35207\atlmfc\include\atlsimpstr.h

; 879  : 		m_pszData[nLength] = 0;

  000fa	c6 04 07 00	 mov	 BYTE PTR [edi+eax], 0
; File C:\Program Files\Microsoft Visual Studio\2022\Professional\VC\Tools\MSVC\14.44.35207\atlmfc\include\cstringt.h

; 2366 : 		return( TRUE );

  000fe	b8 01 00 00 00	 mov	 eax, 1
  00103	5f		 pop	 edi

; 2348 : 	}

  00104	5b		 pop	 ebx
  00105	8b e5		 mov	 esp, ebp
  00107	5d		 pop	 ebp
  00108	c2 04 00	 ret	 4
$LN51@LoadString:

; 2347 : 		return( LoadString( hInstance, nID ) );

  0010b	5e		 pop	 esi
  0010c	5f		 pop	 edi

; 2358 : 			return( FALSE );

  0010d	33 c0		 xor	 eax, eax

; 2348 : 	}

  0010f	5b		 pop	 ebx
  00110	8b e5		 mov	 esp, ebp
  00112	5d		 pop	 ebp
  00113	c2 04 00	 ret	 4
$LN38@LoadString:
; File C:\Program Files\Microsoft Visual Studio\2022\Professional\VC\Tools\MSVC\14.44.35207\atlmfc\include\atlsimpstr.h

; 876  : 			AtlThrow(E_INVALIDARG);

  00116	68 57 00 07 80	 push	 -2147024809		; 80070057H
  0011b	e8 00 00 00 00	 call	 ?AtlThrowImpl@ATL@@YGXJ@Z ; ATL::AtlThrowImpl
$LN63@LoadString:
  00120	cc		 int	 3
?LoadStringA@?$CStringT@DV?$StrTraitMFC@DV?$ChTraitsCRT@D@ATL@@@@@ATL@@QAEHI@Z ENDP ; ATL::CStringT<char,StrTraitMFC<char,ATL::ChTraitsCRT<char> > >::LoadStringA
_TEXT	ENDS
; Function compile flags: /Ogtp
; File C:\Program Files\Microsoft Visual Studio\2022\Professional\VC\Tools\MSVC\14.44.35207\atlmfc\include\cstringt.h
; File C:\Program Files (x86)\Windows Kits\10\Include\10.0.26100.0\ucrt\stdio.h
; File C:\Program Files\Microsoft Visual Studio\2022\Professional\VC\Tools\MSVC\14.44.35207\atlmfc\include\cstringt.h
; File C:\Program Files\Microsoft Visual Studio\2022\Professional\VC\Tools\MSVC\14.44.35207\atlmfc\include\atlsimpstr.h
; File C:\Program Files\Microsoft Visual Studio\2022\Professional\VC\Tools\MSVC\14.44.35207\atlmfc\include\cstringt.h
; File C:\Program Files\Microsoft Visual Studio\2022\Professional\VC\Tools\MSVC\14.44.35207\atlmfc\include\afxstr.h
; File C:\Program Files\Microsoft Visual Studio\2022\Professional\VC\Tools\MSVC\14.44.35207\atlmfc\include\cstringt.h
; File C:\Program Files\Microsoft Visual Studio\2022\Professional\VC\Tools\MSVC\14.44.35207\atlmfc\include\atlsimpstr.h
; File C:\Program Files\Microsoft Visual Studio\2022\Professional\VC\Tools\MSVC\14.44.35207\atlmfc\include\cstringt.h
; File C:\Program Files\Microsoft Visual Studio\2022\Professional\VC\Tools\MSVC\14.44.35207\atlmfc\include\atlsimpstr.h
; File C:\Program Files\Microsoft Visual Studio\2022\Professional\VC\Tools\MSVC\14.44.35207\atlmfc\include\cstringt.h
; File C:\Program Files\Microsoft Visual Studio\2022\Professional\VC\Tools\MSVC\14.44.35207\atlmfc\include\atlsimpstr.h
; File C:\Program Files (x86)\Windows Kits\10\Include\10.0.26100.0\ucrt\stdio.h
; File C:\Program Files\Microsoft Visual Studio\2022\Professional\VC\Tools\MSVC\14.44.35207\atlmfc\include\cstringt.h
; File C:\Program Files (x86)\Windows Kits\10\Include\10.0.26100.0\ucrt\stdio.h
; File C:\Program Files\Microsoft Visual Studio\2022\Professional\VC\Tools\MSVC\14.44.35207\atlmfc\include\atlsimpstr.h
; File C:\Program Files (x86)\Windows Kits\10\Include\10.0.26100.0\ucrt\stdio.h
; File C:\Program Files\Microsoft Visual Studio\2022\Professional\VC\Tools\MSVC\14.44.35207\atlmfc\include\atlsimpstr.h
; File C:\Program Files\Microsoft Visual Studio\2022\Professional\VC\Tools\MSVC\14.44.35207\atlmfc\include\cstringt.h
; File C:\Program Files\Microsoft Visual Studio\2022\Professional\VC\Tools\MSVC\14.44.35207\atlmfc\include\atlsimpstr.h
; File C:\Program Files\Microsoft Visual Studio\2022\Professional\VC\Tools\MSVC\14.44.35207\atlmfc\include\cstringt.h
; File C:\Program Files\Microsoft Visual Studio\2022\Professional\VC\Tools\MSVC\14.44.35207\atlmfc\include\atlsimpstr.h
; File C:\Program Files\Microsoft Visual Studio\2022\Professional\VC\Tools\MSVC\14.44.35207\atlmfc\include\cstringt.h
;	COMDAT ?FormatV@?$CStringT@DV?$StrTraitMFC@DV?$ChTraitsCRT@D@ATL@@@@@ATL@@QAEXPBDPAD@Z
_TEXT	SEGMENT
tv456 = -16						; size = 4
__$EHRec$ = -12						; size = 12
_pszFormat$ = 8						; size = 4
_temp$ = 8						; size = 4
_args$ = 12						; size = 4
?FormatV@?$CStringT@DV?$StrTraitMFC@DV?$ChTraitsCRT@D@ATL@@@@@ATL@@QAEXPBDPAD@Z PROC ; ATL::CStringT<char,StrTraitMFC<char,ATL::ChTraitsCRT<char> > >::FormatV, COMDAT
; _this$ = ecx

; 2225 : 	{

  00000	55		 push	 ebp
  00001	8b ec		 mov	 ebp, esp
  00003	6a ff		 push	 -1
  00005	68 00 00 00 00	 push	 __ehhandler$?FormatV@?$CStringT@DV?$StrTraitMFC@DV?$ChTraitsCRT@D@ATL@@@@@ATL@@QAEXPBDPAD@Z
  0000a	64 a1 00 00 00
	00		 mov	 eax, DWORD PTR fs:0
  00010	50		 push	 eax
  00011	51		 push	 ecx
  00012	53		 push	 ebx
  00013	56		 push	 esi
  00014	57		 push	 edi
  00015	a1 00 00 00 00	 mov	 eax, DWORD PTR ___security_cookie
  0001a	33 c5		 xor	 eax, ebp
  0001c	50		 push	 eax
  0001d	8d 45 f4	 lea	 eax, DWORD PTR __$EHRec$[ebp]
  00020	64 a3 00 00 00
	00		 mov	 DWORD PTR fs:0, eax
  00026	8b d9		 mov	 ebx, ecx

; 2226 : 		ATLASSERT( AtlIsValidString( pszFormat ) );
; 2227 : 		if(pszFormat == NULL)

  00028	8b 75 08	 mov	 esi, DWORD PTR _pszFormat$[ebp]
  0002b	85 f6		 test	 esi, esi
  0002d	0f 84 2e 01 00
	00		 je	 $LN70@FormatV
; File C:\Program Files (x86)\Windows Kits\10\Include\10.0.26100.0\ucrt\stdio.h

; 1652 :         int const _Result = __stdio_common_vsprintf(

  00033	e8 00 00 00 00	 call	 ___local_stdio_printf_options
  00038	ff 75 0c	 push	 DWORD PTR _args$[ebp]
  0003b	89 45 f0	 mov	 DWORD PTR tv456[ebp], eax
  0003e	6a 00		 push	 0
  00040	8b 08		 mov	 ecx, DWORD PTR [eax]
  00042	56		 push	 esi
  00043	6a 00		 push	 0
  00045	6a 00		 push	 0
  00047	ff 70 04	 push	 DWORD PTR [eax+4]
  0004a	83 c9 02	 or	 ecx, 2
  0004d	51		 push	 ecx
  0004e	e8 00 00 00 00	 call	 ___stdio_common_vsprintf
  00053	8b f8		 mov	 edi, eax
  00055	83 c4 1c	 add	 esp, 28			; 0000001cH

; 1653 :             _CRT_INTERNAL_LOCAL_PRINTF_OPTIONS | _CRT_INTERNAL_PRINTF_STANDARD_SNPRINTF_BEHAVIOR,
; 1654 :             NULL, 0, _Format, _Locale, _ArgList);
; 1655 : 
; 1656 :         return _Result < 0 ? -1 : _Result;

  00058	83 c8 ff	 or	 eax, -1
  0005b	85 ff		 test	 edi, edi
  0005d	0f 48 f8	 cmovs	 edi, eax
; File C:\Program Files\Microsoft Visual Studio\2022\Professional\VC\Tools\MSVC\14.44.35207\atlmfc\include\cstringt.h

; 2232 : 		if (nLength < 0)

  00060	85 ff		 test	 edi, edi
  00062	0f 88 ef 00 00
	00		 js	 $LN87@FormatV
; File C:\Program Files\Microsoft Visual Studio\2022\Professional\VC\Tools\MSVC\14.44.35207\atlmfc\include\atlsimpstr.h

; 527  : 		IAtlStringMgr* pStringMgr = GetData()->pStringMgr;

  00068	8b 03		 mov	 eax, DWORD PTR [ebx]
  0006a	8b 48 f0	 mov	 ecx, DWORD PTR [eax-16]

; 528  : 		return pStringMgr ? pStringMgr->Clone() : NULL;

  0006d	85 c9		 test	 ecx, ecx
  0006f	74 0b		 je	 SHORT $LN13@FormatV
  00071	8b 01		 mov	 eax, DWORD PTR [ecx]
  00073	ff 50 10	 call	 DWORD PTR [eax+16]
  00076	8b c8		 mov	 ecx, eax
; File C:\Program Files\Microsoft Visual Studio\2022\Professional\VC\Tools\MSVC\14.44.35207\atlmfc\include\cstringt.h

; 1442 : 		if(pStringMgr) { return pStringMgr; }

  00078	85 c9		 test	 ecx, ecx
  0007a	75 16		 jne	 SHORT $LN28@FormatV
$LN13@FormatV:
; File C:\Program Files\Microsoft Visual Studio\2022\Professional\VC\Tools\MSVC\14.44.35207\atlmfc\include\afxstr.h

; 56   : 		return( AfxGetStringManager() );

  0007c	e8 00 00 00 00	 call	 ?AfxGetStringManager@@YGPAUIAtlStringMgr@ATL@@XZ ; AfxGetStringManager
; File C:\Program Files\Microsoft Visual Studio\2022\Professional\VC\Tools\MSVC\14.44.35207\atlmfc\include\cstringt.h

; 1445 : 		return pStringMgr->Clone();

  00081	8b c8		 mov	 ecx, eax
  00083	8b 10		 mov	 edx, DWORD PTR [eax]
  00085	ff 52 10	 call	 DWORD PTR [edx+16]
  00088	8b c8		 mov	 ecx, eax
; File C:\Program Files\Microsoft Visual Studio\2022\Professional\VC\Tools\MSVC\14.44.35207\atlmfc\include\atlsimpstr.h

; 209  : 		ATLENSURE( pStringMgr != NULL );

  0008a	85 c9		 test	 ecx, ecx
  0008c	0f 84 c5 00 00
	00		 je	 $LN87@FormatV
$LN28@FormatV:

; 210  : 		CStringData* pData = pStringMgr->GetNilString();

  00092	8b 01		 mov	 eax, DWORD PTR [ecx]
  00094	ff 50 0c	 call	 DWORD PTR [eax+12]

; 211  : 		Attach( pData );

  00097	83 c0 10	 add	 eax, 16			; 00000010H
  0009a	89 45 08	 mov	 DWORD PTR _temp$[ebp], eax
; File C:\Program Files\Microsoft Visual Studio\2022\Professional\VC\Tools\MSVC\14.44.35207\atlmfc\include\cstringt.h

; 1063 : 		CThisSimpleString( pStringMgr )

  0009d	c7 45 fc 00 00
	00 00		 mov	 DWORD PTR __$EHRec$[ebp+8], 0

; 2712 : 		if( (pv != NULL) && IS_INTRESOURCE( pv ) )

  000a4	f7 c6 00 00 ff
	ff		 test	 esi, -65536		; ffff0000H
  000aa	75 0e		 jne	 SHORT $LN86@FormatV

; 2713 : 		{
; 2714 : 			UINT nID = LOWORD( reinterpret_cast< DWORD_PTR >( pv ) );

  000ac	0f b7 c6	 movzx	 eax, si

; 2715 : 			(nID);
; 2716 : #ifdef _ATL_USE_WINAPI_FAMILY_DESKTOP_APP
; 2717 : 			if( !LoadString( nID ) )

  000af	8d 4d 08	 lea	 ecx, DWORD PTR _temp$[ebp]
  000b2	50		 push	 eax
  000b3	e8 00 00 00 00	 call	 ?LoadStringA@?$CStringT@DV?$StrTraitMFC@DV?$ChTraitsCRT@D@ATL@@@@@ATL@@QAEHI@Z ; ATL::CStringT<char,StrTraitMFC<char,ATL::ChTraitsCRT<char> > >::LoadStringA

; 1065 : 		if( !CheckImplicitLoad( pszSrc ) )

  000b8	eb 19		 jmp	 SHORT $LN24@FormatV
$LN86@FormatV:
; File C:\Program Files\Microsoft Visual Studio\2022\Professional\VC\Tools\MSVC\14.44.35207\atlmfc\include\atlsimpstr.h

; 730  : 		return( int( strlen( psz ) ) );

  000ba	8b ce		 mov	 ecx, esi
  000bc	8d 51 01	 lea	 edx, DWORD PTR [ecx+1]
  000bf	90		 npad	 1
$LL89@FormatV:
  000c0	8a 01		 mov	 al, BYTE PTR [ecx]
  000c2	41		 inc	 ecx
  000c3	84 c0		 test	 al, al
  000c5	75 f9		 jne	 SHORT $LL89@FormatV
  000c7	2b ca		 sub	 ecx, edx

; 606  : 		SetString( pszSrc, StringLength( pszSrc ) );

  000c9	51		 push	 ecx
  000ca	56		 push	 esi
  000cb	8d 4d 08	 lea	 ecx, DWORD PTR _temp$[ebp]
  000ce	e8 00 00 00 00	 call	 ?SetString@?$CSimpleStringT@D$0A@@ATL@@QAEXPBDH@Z ; ATL::CSimpleStringT<char,0>::SetString
$LN24@FormatV:

; 804  : 		return( reinterpret_cast< CStringData* >( m_pszData )-1 );

  000d3	8b 03		 mov	 eax, DWORD PTR [ebx]

; 812  : 		int nShared = 1-pOldData->nRefs;  // nShared < 0 means true, >= 0 means false

  000d5	b9 01 00 00 00	 mov	 ecx, 1
; File C:\Program Files\Microsoft Visual Studio\2022\Professional\VC\Tools\MSVC\14.44.35207\atlmfc\include\cstringt.h

; 2235 : 		CStringT temp(pszFormat, this->GetManager());

  000da	c7 45 fc 01 00
	00 00		 mov	 DWORD PTR __$EHRec$[ebp+8], 1
; File C:\Program Files\Microsoft Visual Studio\2022\Professional\VC\Tools\MSVC\14.44.35207\atlmfc\include\atlsimpstr.h

; 812  : 		int nShared = 1-pOldData->nRefs;  // nShared < 0 means true, >= 0 means false

  000e1	2b 48 fc	 sub	 ecx, DWORD PTR [eax-4]

; 813  : 		int nTooShort = pOldData->nAllocLength-nLength;  // nTooShort < 0 means true, >= 0 means false

  000e4	8b 40 f8	 mov	 eax, DWORD PTR [eax-8]
  000e7	2b c7		 sub	 eax, edi

; 814  : 		if( (nShared|nTooShort) < 0 )  // If either sign bit is set (i.e. either is less than zero), we need to copy data

  000e9	0b c8		 or	 ecx, eax
  000eb	7d 08		 jge	 SHORT $LN55@FormatV

; 815  : 		{
; 816  : 			PrepareWrite2( nLength );

  000ed	57		 push	 edi
  000ee	8b cb		 mov	 ecx, ebx
  000f0	e8 00 00 00 00	 call	 ?PrepareWrite2@?$CSimpleStringT@D$0A@@ATL@@AAEXH@Z ; ATL::CSimpleStringT<char,0>::PrepareWrite2
$LN55@FormatV:
; File C:\Program Files (x86)\Windows Kits\10\Include\10.0.26100.0\ucrt\stdio.h

; 1491 :         int const _Result = __stdio_common_vsprintf_s(

  000f5	ff 75 0c	 push	 DWORD PTR _args$[ebp]
  000f8	8b 75 08	 mov	 esi, DWORD PTR _temp$[ebp]
; File C:\Program Files\Microsoft Visual Studio\2022\Professional\VC\Tools\MSVC\14.44.35207\atlmfc\include\cstringt.h

; 2237 : 		StringTraits::Format( pszBuffer, nLength+1, temp, args );

  000fb	8d 47 01	 lea	 eax, DWORD PTR [edi+1]
; File C:\Program Files (x86)\Windows Kits\10\Include\10.0.26100.0\ucrt\stdio.h

; 1491 :         int const _Result = __stdio_common_vsprintf_s(

  000fe	6a 00		 push	 0
  00100	56		 push	 esi
  00101	50		 push	 eax
  00102	8b 45 f0	 mov	 eax, DWORD PTR tv456[ebp]
  00105	ff 33		 push	 DWORD PTR [ebx]
  00107	ff 70 04	 push	 DWORD PTR [eax+4]
  0010a	ff 30		 push	 DWORD PTR [eax]
  0010c	e8 00 00 00 00	 call	 ___stdio_common_vsprintf_s
; File C:\Program Files\Microsoft Visual Studio\2022\Professional\VC\Tools\MSVC\14.44.35207\atlmfc\include\atlsimpstr.h

; 875  : 		if( nLength < 0 || nLength > GetData()->nAllocLength)

  00111	8b 03		 mov	 eax, DWORD PTR [ebx]
; File C:\Program Files (x86)\Windows Kits\10\Include\10.0.26100.0\ucrt\stdio.h

; 1491 :         int const _Result = __stdio_common_vsprintf_s(

  00113	83 c4 1c	 add	 esp, 28			; 0000001cH
; File C:\Program Files\Microsoft Visual Studio\2022\Professional\VC\Tools\MSVC\14.44.35207\atlmfc\include\atlsimpstr.h

; 875  : 		if( nLength < 0 || nLength > GetData()->nAllocLength)

  00116	3b 78 f8	 cmp	 edi, DWORD PTR [eax-8]
  00119	7f 46		 jg	 SHORT $LN70@FormatV

; 876  : 			AtlThrow(E_INVALIDARG);
; 877  : 
; 878  : 		GetData()->nDataLength = nLength;

  0011b	89 78 f4	 mov	 DWORD PTR [eax-12], edi

; 804  : 		return( reinterpret_cast< CStringData* >( m_pszData )-1 );

  0011e	83 c6 f0	 add	 esi, -16		; fffffff0H

; 879  : 		m_pszData[nLength] = 0;

  00121	8b 03		 mov	 eax, DWORD PTR [ebx]
; File C:\Program Files\Microsoft Visual Studio\2022\Professional\VC\Tools\MSVC\14.44.35207\atlmfc\include\cstringt.h

; 2239 : 	}

  00123	c7 45 fc ff ff
	ff ff		 mov	 DWORD PTR __$EHRec$[ebp+8], -1
; File C:\Program Files\Microsoft Visual Studio\2022\Professional\VC\Tools\MSVC\14.44.35207\atlmfc\include\atlsimpstr.h

; 879  : 		m_pszData[nLength] = 0;

  0012a	c6 04 07 00	 mov	 BYTE PTR [edi+eax], 0

; 92   : 		if( _InterlockedDecrement( &nRefs ) <= 0 )

  0012e	83 c8 ff	 or	 eax, -1
  00131	f0 0f c1 46 0c	 lock	  xadd	 DWORD PTR [esi+12], eax
  00136	48		 dec	 eax
  00137	85 c0		 test	 eax, eax
  00139	7f 08		 jg	 SHORT $LN84@FormatV

; 93   : 		{
; 94   : 			pStringMgr->Free( this );

  0013b	8b 0e		 mov	 ecx, DWORD PTR [esi]
  0013d	56		 push	 esi
  0013e	8b 01		 mov	 eax, DWORD PTR [ecx]
  00140	ff 50 04	 call	 DWORD PTR [eax+4]
$LN84@FormatV:
; File C:\Program Files\Microsoft Visual Studio\2022\Professional\VC\Tools\MSVC\14.44.35207\atlmfc\include\cstringt.h

; 2239 : 	}

  00143	8b 4d f4	 mov	 ecx, DWORD PTR __$EHRec$[ebp]
  00146	64 89 0d 00 00
	00 00		 mov	 DWORD PTR fs:0, ecx
  0014d	59		 pop	 ecx
  0014e	5f		 pop	 edi
  0014f	5e		 pop	 esi
  00150	5b		 pop	 ebx
  00151	8b e5		 mov	 esp, ebp
  00153	5d		 pop	 ebp
  00154	c2 08 00	 ret	 8
$LN87@FormatV:
; File C:\Program Files\Microsoft Visual Studio\2022\Professional\VC\Tools\MSVC\14.44.35207\atlmfc\include\atlsimpstr.h

; 209  : 		ATLENSURE( pStringMgr != NULL );

  00157	68 05 40 00 80	 push	 -2147467259		; 80004005H
  0015c	e8 00 00 00 00	 call	 ?AtlThrowImpl@ATL@@YGXJ@Z ; ATL::AtlThrowImpl
$LN70@FormatV:
; File C:\Program Files\Microsoft Visual Studio\2022\Professional\VC\Tools\MSVC\14.44.35207\atlmfc\include\cstringt.h

; 2239 : 	}

  00161	68 57 00 07 80	 push	 -2147024809		; 80070057H
  00166	e8 00 00 00 00	 call	 ?AtlThrowImpl@ATL@@YGXJ@Z ; ATL::AtlThrowImpl
$LN91@FormatV:
  0016b	cc		 int	 3
_TEXT	ENDS
;	COMDAT text$x
text$x	SEGMENT
__unwindfunclet$?FormatV@?$CStringT@DV?$StrTraitMFC@DV?$ChTraitsCRT@D@ATL@@@@@ATL@@QAEXPBDPAD@Z$1:
  00000	8d 4d 08	 lea	 ecx, DWORD PTR _temp$[ebp]
  00003	e9 00 00 00 00	 jmp	 ??1?$CSimpleStringT@D$0A@@ATL@@QAE@XZ ; ATL::CSimpleStringT<char,0>::~CSimpleStringT<char,0>
__unwindfunclet$?FormatV@?$CStringT@DV?$StrTraitMFC@DV?$ChTraitsCRT@D@ATL@@@@@ATL@@QAEXPBDPAD@Z$0:
  00008	8d 4d 08	 lea	 ecx, DWORD PTR _temp$[ebp]
  0000b	e9 00 00 00 00	 jmp	 ??1?$CStringT@DV?$StrTraitMFC@DV?$ChTraitsCRT@D@ATL@@@@@ATL@@QAE@XZ ; ATL::CStringT<char,StrTraitMFC<char,ATL::ChTraitsCRT<char> > >::~CStringT<char,StrTraitMFC<char,ATL::ChTraitsCRT<char> > >
  00010	cc		 int	 3
  00011	cc		 int	 3
  00012	cc		 int	 3
  00013	cc		 int	 3
  00014	cc		 int	 3
__ehhandler$?FormatV@?$CStringT@DV?$StrTraitMFC@DV?$ChTraitsCRT@D@ATL@@@@@ATL@@QAEXPBDPAD@Z:
  00015	90		 npad	 1
  00016	90		 npad	 1
  00017	8b 54 24 08	 mov	 edx, DWORD PTR [esp+8]
  0001b	8d 42 0c	 lea	 eax, DWORD PTR [edx+12]
  0001e	8b 4a ec	 mov	 ecx, DWORD PTR [edx-20]
  00021	33 c8		 xor	 ecx, eax
  00023	e8 00 00 00 00	 call	 @__security_check_cookie@4
  00028	b8 00 00 00 00	 mov	 eax, OFFSET __ehfuncinfo$?FormatV@?$CStringT@DV?$StrTraitMFC@DV?$ChTraitsCRT@D@ATL@@@@@ATL@@QAEXPBDPAD@Z
  0002d	e9 00 00 00 00	 jmp	 ___CxxFrameHandler3
text$x	ENDS
?FormatV@?$CStringT@DV?$StrTraitMFC@DV?$ChTraitsCRT@D@ATL@@@@@ATL@@QAEXPBDPAD@Z ENDP ; ATL::CStringT<char,StrTraitMFC<char,ATL::ChTraitsCRT<char> > >::FormatV
; Function compile flags: /Ogtp
; File C:\Program Files\Microsoft Visual Studio\2022\Professional\VC\Tools\MSVC\14.44.35207\atlmfc\include\cstringt.h
;	COMDAT ?Format@?$CStringT@DV?$StrTraitMFC@DV?$ChTraitsCRT@D@ATL@@@@@ATL@@QAAXPBDZZ
_TEXT	SEGMENT
_this$ = 8						; size = 4
_pszFormat$ = 12					; size = 4
?Format@?$CStringT@DV?$StrTraitMFC@DV?$ChTraitsCRT@D@ATL@@@@@ATL@@QAAXPBDZZ PROC ; ATL::CStringT<char,StrTraitMFC<char,ATL::ChTraitsCRT<char> > >::Format, COMDAT

; 2745 : {

  00000	55		 push	 ebp
  00001	8b ec		 mov	 ebp, esp

; 2746 : 	ATLASSERT( AtlIsValidString( pszFormat ) );
; 2747 : 
; 2748 : 	va_list argList;
; 2749 : 	va_start( argList, pszFormat );
; 2750 : 	FormatV( pszFormat, argList );

  00003	8b 4d 08	 mov	 ecx, DWORD PTR _this$[ebp]
  00006	8d 45 10	 lea	 eax, DWORD PTR _pszFormat$[ebp+4]
  00009	50		 push	 eax
  0000a	ff 75 0c	 push	 DWORD PTR _pszFormat$[ebp]
  0000d	e8 00 00 00 00	 call	 ?FormatV@?$CStringT@DV?$StrTraitMFC@DV?$ChTraitsCRT@D@ATL@@@@@ATL@@QAEXPBDPAD@Z ; ATL::CStringT<char,StrTraitMFC<char,ATL::ChTraitsCRT<char> > >::FormatV

; 2751 : 	va_end( argList );
; 2752 : }

  00012	5d		 pop	 ebp
  00013	c3		 ret	 0
?Format@?$CStringT@DV?$StrTraitMFC@DV?$ChTraitsCRT@D@ATL@@@@@ATL@@QAAXPBDZZ ENDP ; ATL::CStringT<char,StrTraitMFC<char,ATL::ChTraitsCRT<char> > >::Format
_TEXT	ENDS
; Function compile flags: /Ogtp
; File C:\Program Files\Microsoft Visual Studio\2022\Professional\VC\Tools\MSVC\14.44.35207\atlmfc\include\cstringt.h
; File C:\Program Files\Microsoft Visual Studio\2022\Professional\VC\Tools\MSVC\14.44.35207\atlmfc\include\atlsimpstr.h
; File C:\Program Files\Microsoft Visual Studio\2022\Professional\VC\Tools\MSVC\14.44.35207\atlmfc\include\cstringt.h
; File C:\Program Files\Microsoft Visual Studio\2022\Professional\VC\Tools\MSVC\14.44.35207\atlmfc\include\atlsimpstr.h
; File C:\Program Files\Microsoft Visual Studio\2022\Professional\VC\Tools\MSVC\14.44.35207\atlmfc\include\cstringt.h
; File C:\Program Files\Microsoft Visual Studio\2022\Professional\VC\Tools\MSVC\14.44.35207\atlmfc\include\atlsimpstr.h
; File C:\Program Files\Microsoft Visual Studio\2022\Professional\VC\Tools\MSVC\14.44.35207\atlmfc\include\cstringt.h
; File C:\Program Files (x86)\Windows Kits\10\Include\10.0.26100.0\ucrt\corecrt_memcpy_s.h
; File C:\Program Files\Microsoft Visual Studio\2022\Professional\VC\Tools\MSVC\14.44.35207\atlmfc\include\atlchecked.h
; File C:\Program Files (x86)\Windows Kits\10\Include\10.0.26100.0\ucrt\corecrt_memcpy_s.h
; File C:\Program Files\Microsoft Visual Studio\2022\Professional\VC\Tools\MSVC\14.44.35207\atlmfc\include\atlchecked.h
; File C:\Program Files (x86)\Windows Kits\10\Include\10.0.26100.0\ucrt\corecrt_memcpy_s.h
; File C:\Program Files\Microsoft Visual Studio\2022\Professional\VC\Tools\MSVC\14.44.35207\atlmfc\include\atlchecked.h
; File C:\Program Files\Microsoft Visual Studio\2022\Professional\VC\Tools\MSVC\14.44.35207\atlmfc\include\cstringt.h
; File C:\Program Files\Microsoft Visual Studio\2022\Professional\VC\Tools\MSVC\14.44.35207\atlmfc\include\atlsimpstr.h
; File C:\Program Files\Microsoft Visual Studio\2022\Professional\VC\Tools\MSVC\14.44.35207\atlmfc\include\cstringt.h
; File C:\Program Files\Microsoft Visual Studio\2022\Professional\VC\Tools\MSVC\14.44.35207\atlmfc\include\atlsimpstr.h
; File C:\Program Files\Microsoft Visual Studio\2022\Professional\VC\Tools\MSVC\14.44.35207\atlmfc\include\cstringt.h
; File C:\Program Files\Microsoft Visual Studio\2022\Professional\VC\Tools\MSVC\14.44.35207\atlmfc\include\atlsimpstr.h
; File C:\Program Files\Microsoft Visual Studio\2022\Professional\VC\Tools\MSVC\14.44.35207\atlmfc\include\cstringt.h
;	COMDAT ?Replace@?$CStringT@DV?$StrTraitMFC@DV?$ChTraitsCRT@D@ATL@@@@@ATL@@QAEHPBD0@Z
_TEXT	SEGMENT
_pszEnd$1$ = -32					; size = 4
__S1$1$ = -28						; size = 4
_pszBuffer$1$ = -24					; size = 4
$T1 = -20						; size = 4
_nNewLength$1$ = -16					; size = 4
$T2 = -16						; size = 4
_pszEnd$1$ = -12					; size = 4
_nOldLength$1$ = -12					; size = 4
_nCount$1$ = -8						; size = 4
_this$1$ = -4						; size = 4
_pszOld$ = 8						; size = 4
_pszNew$ = 12						; size = 4
?Replace@?$CStringT@DV?$StrTraitMFC@DV?$ChTraitsCRT@D@ATL@@@@@ATL@@QAEHPBD0@Z PROC ; ATL::CStringT<char,StrTraitMFC<char,ATL::ChTraitsCRT<char> > >::Replace, COMDAT
; _this$ = ecx

; 1609 : 	{

  00000	55		 push	 ebp
  00001	8b ec		 mov	 ebp, esp
  00003	83 ec 20	 sub	 esp, 32			; 00000020H
  00006	56		 push	 esi
  00007	8b f1		 mov	 esi, ecx

; 495  : 		return (psz != NULL) ? int( strlen( psz ) ) : 0;

  00009	8b 4d 08	 mov	 ecx, DWORD PTR _pszOld$[ebp]

; 1609 : 	{

  0000c	89 75 fc	 mov	 DWORD PTR _this$1$[ebp], esi
  0000f	57		 push	 edi

; 495  : 		return (psz != NULL) ? int( strlen( psz ) ) : 0;

  00010	85 c9		 test	 ecx, ecx
  00012	0f 84 3c 02 00
	00		 je	 $LN98@Replace
  00018	8b f9		 mov	 edi, ecx
  0001a	8d 57 01	 lea	 edx, DWORD PTR [edi+1]
  0001d	0f 1f 00	 npad	 3
$LL100@Replace:
  00020	8a 07		 mov	 al, BYTE PTR [edi]
  00022	47		 inc	 edi
  00023	84 c0		 test	 al, al
  00025	75 f9		 jne	 SHORT $LL100@Replace
  00027	2b fa		 sub	 edi, edx
  00029	89 7d ec	 mov	 DWORD PTR $T1[ebp], edi

; 1610 : 		// can't have empty or NULL lpszOld
; 1611 : 
; 1612 : 		// nSourceLen is in XCHARs
; 1613 : 		int nSourceLen = StringTraits::SafeStringLen( pszOld );
; 1614 : 		if( nSourceLen == 0 )

  0002c	0f 84 22 02 00
	00		 je	 $LN98@Replace
  00032	53		 push	 ebx

; 495  : 		return (psz != NULL) ? int( strlen( psz ) ) : 0;

  00033	8b 5d 0c	 mov	 ebx, DWORD PTR _pszNew$[ebp]
  00036	85 db		 test	 ebx, ebx
  00038	74 14		 je	 SHORT $LN19@Replace
  0003a	8d 4b 01	 lea	 ecx, DWORD PTR [ebx+1]
  0003d	0f 1f 00	 npad	 3
$LL101@Replace:
  00040	8a 03		 mov	 al, BYTE PTR [ebx]
  00042	43		 inc	 ebx
  00043	84 c0		 test	 al, al
  00045	75 f9		 jne	 SHORT $LL101@Replace
  00047	2b d9		 sub	 ebx, ecx
  00049	8b 4d 08	 mov	 ecx, DWORD PTR _pszOld$[ebp]
  0004c	eb 02		 jmp	 SHORT $LN135@Replace
$LN19@Replace:
  0004e	33 db		 xor	 ebx, ebx
$LN135@Replace:

; 1616 : 		// nReplacementLen is in XCHARs
; 1617 : 		int nReplacementLen = StringTraits::SafeStringLen( pszNew );
; 1618 : 
; 1619 : 		// loop once to figure out the size of the result string
; 1620 : 		int nCount = 0;
; 1621 : 		{
; 1622 : 			PCXSTR pszStart = this->GetString();

  00050	8b 36		 mov	 esi, DWORD PTR [esi]
  00052	89 5d f0	 mov	 DWORD PTR $T2[ebp], ebx
  00055	c7 45 f8 00 00
	00 00		 mov	 DWORD PTR _nCount$1$[ebp], 0

; 1623 : 			PCXSTR pszEnd = pszStart + this->GetLength();

  0005c	8b 46 f4	 mov	 eax, DWORD PTR [esi-12]
  0005f	03 c6		 add	 eax, esi
  00061	89 45 f4	 mov	 DWORD PTR _pszEnd$1$[ebp], eax

; 1624 : 			while( pszStart < pszEnd )

  00064	3b f0		 cmp	 esi, eax
  00066	0f 83 db 01 00
	00		 jae	 $LN105@Replace
  0006c	8b d8		 mov	 ebx, eax
  0006e	eb 03		 jmp	 SHORT $LN2@Replace
$LL104@Replace:
  00070	8b 4d 08	 mov	 ecx, DWORD PTR _pszOld$[ebp]
$LN2@Replace:

; 212  : 		return reinterpret_cast< LPCSTR >( _mbsstr( reinterpret_cast< const unsigned char* >( pszBlock ),

  00073	51		 push	 ecx
  00074	56		 push	 esi
  00075	e8 00 00 00 00	 call	 __mbsstr
  0007a	83 c4 08	 add	 esp, 8

; 1625 : 			{
; 1626 : 				PCXSTR pszTarget;
; 1627 : 				while( (pszTarget = StringTraits::StringFindString( pszStart, pszOld ) ) != NULL)

  0007d	85 c0		 test	 eax, eax
  0007f	74 1d		 je	 SHORT $LN5@Replace
  00081	8b 5d f8	 mov	 ebx, DWORD PTR _nCount$1$[ebp]
$LL4@Replace:

; 212  : 		return reinterpret_cast< LPCSTR >( _mbsstr( reinterpret_cast< const unsigned char* >( pszBlock ),

  00084	ff 75 08	 push	 DWORD PTR _pszOld$[ebp]

; 1628 : 				{
; 1629 : 					nCount++;
; 1630 : 					pszStart = pszTarget+nSourceLen;

  00087	8d 34 07	 lea	 esi, DWORD PTR [edi+eax]
  0008a	43		 inc	 ebx

; 212  : 		return reinterpret_cast< LPCSTR >( _mbsstr( reinterpret_cast< const unsigned char* >( pszBlock ),

  0008b	56		 push	 esi
  0008c	e8 00 00 00 00	 call	 __mbsstr
  00091	83 c4 08	 add	 esp, 8

; 1625 : 			{
; 1626 : 				PCXSTR pszTarget;
; 1627 : 				while( (pszTarget = StringTraits::StringFindString( pszStart, pszOld ) ) != NULL)

  00094	85 c0		 test	 eax, eax
  00096	75 ec		 jne	 SHORT $LL4@Replace
  00098	89 5d f8	 mov	 DWORD PTR _nCount$1$[ebp], ebx
  0009b	8b 5d f4	 mov	 ebx, DWORD PTR _pszEnd$1$[ebp]
$LN5@Replace:

; 495  : 		return (psz != NULL) ? int( strlen( psz ) ) : 0;

  0009e	85 f6		 test	 esi, esi
  000a0	74 10		 je	 SHORT $LN29@Replace
  000a2	8b c6		 mov	 eax, esi
  000a4	8d 50 01	 lea	 edx, DWORD PTR [eax+1]
$LL102@Replace:
  000a7	8a 08		 mov	 cl, BYTE PTR [eax]
  000a9	40		 inc	 eax
  000aa	84 c9		 test	 cl, cl
  000ac	75 f9		 jne	 SHORT $LL102@Replace
  000ae	2b c2		 sub	 eax, edx
  000b0	eb 02		 jmp	 SHORT $LN30@Replace
$LN29@Replace:
  000b2	33 c0		 xor	 eax, eax
$LN30@Replace:

; 1631 : 				}
; 1632 : 				pszStart += StringTraits::SafeStringLen( pszStart )+1;

  000b4	46		 inc	 esi
  000b5	03 f0		 add	 esi, eax
  000b7	3b f3		 cmp	 esi, ebx
  000b9	72 b5		 jb	 SHORT $LL104@Replace

; 1633 : 			}
; 1634 : 		}
; 1635 : 
; 1636 : 		// if any changes were made, make them
; 1637 : 		if( nCount > 0 )

  000bb	8b 4d f8	 mov	 ecx, DWORD PTR _nCount$1$[ebp]
  000be	8b 5d f0	 mov	 ebx, DWORD PTR $T2[ebp]
  000c1	85 c9		 test	 ecx, ecx
  000c3	0f 8e 80 01 00
	00		 jle	 $LN76@Replace
; File C:\Program Files\Microsoft Visual Studio\2022\Professional\VC\Tools\MSVC\14.44.35207\atlmfc\include\atlsimpstr.h

; 523  : 		return( GetData()->nDataLength );

  000c9	8b 45 fc	 mov	 eax, DWORD PTR _this$1$[ebp]
; File C:\Program Files\Microsoft Visual Studio\2022\Professional\VC\Tools\MSVC\14.44.35207\atlmfc\include\cstringt.h

; 1642 : 			int nNewLength = nOldLength+(nReplacementLen-nSourceLen)*nCount;

  000cc	8b d3		 mov	 edx, ebx
  000ce	2b d7		 sub	 edx, edi
  000d0	0f af d1	 imul	 edx, ecx
; File C:\Program Files\Microsoft Visual Studio\2022\Professional\VC\Tools\MSVC\14.44.35207\atlmfc\include\atlsimpstr.h

; 523  : 		return( GetData()->nDataLength );

  000d3	8b 00		 mov	 eax, DWORD PTR [eax]
; File C:\Program Files\Microsoft Visual Studio\2022\Professional\VC\Tools\MSVC\14.44.35207\atlmfc\include\cstringt.h

; 1641 : 			int nOldLength = this->GetLength();

  000d5	8b 70 f4	 mov	 esi, DWORD PTR [eax-12]

; 1642 : 			int nNewLength = nOldLength+(nReplacementLen-nSourceLen)*nCount;

  000d8	03 d6		 add	 edx, esi
  000da	89 55 f0	 mov	 DWORD PTR _nNewLength$1$[ebp], edx

; 1644 : 			PXSTR pszBuffer = this->GetBuffer( __max( nNewLength, nOldLength ) );

  000dd	8b d6		 mov	 edx, esi
  000df	39 75 f0	 cmp	 DWORD PTR _nNewLength$1$[ebp], esi
  000e2	89 75 f4	 mov	 DWORD PTR _nOldLength$1$[ebp], esi
  000e5	0f 4f 55 f0	 cmovg	 edx, DWORD PTR _nNewLength$1$[ebp]
; File C:\Program Files\Microsoft Visual Studio\2022\Professional\VC\Tools\MSVC\14.44.35207\atlmfc\include\atlsimpstr.h

; 808  : 		if (nLength < 0)

  000e9	85 d2		 test	 edx, edx
  000eb	0f 88 6d 01 00
	00		 js	 $LN75@Replace

; 809  : 			AtlThrow(E_INVALIDARG);
; 810  : 
; 811  : 		CStringData* pOldData = GetData();
; 812  : 		int nShared = 1-pOldData->nRefs;  // nShared < 0 means true, >= 0 means false

  000f1	b9 01 00 00 00	 mov	 ecx, 1
  000f6	2b 48 fc	 sub	 ecx, DWORD PTR [eax-4]

; 813  : 		int nTooShort = pOldData->nAllocLength-nLength;  // nTooShort < 0 means true, >= 0 means false

  000f9	8b 40 f8	 mov	 eax, DWORD PTR [eax-8]
  000fc	2b c2		 sub	 eax, edx

; 814  : 		if( (nShared|nTooShort) < 0 )  // If either sign bit is set (i.e. either is less than zero), we need to copy data

  000fe	0b c8		 or	 ecx, eax
  00100	7d 09		 jge	 SHORT $LN39@Replace

; 815  : 		{
; 816  : 			PrepareWrite2( nLength );

  00102	8b 4d fc	 mov	 ecx, DWORD PTR _this$1$[ebp]
  00105	52		 push	 edx
  00106	e8 00 00 00 00	 call	 ?PrepareWrite2@?$CSimpleStringT@D$0A@@ATL@@AAEXH@Z ; ATL::CSimpleStringT<char,0>::PrepareWrite2
$LN39@Replace:
; File C:\Program Files\Microsoft Visual Studio\2022\Professional\VC\Tools\MSVC\14.44.35207\atlmfc\include\cstringt.h

; 1644 : 			PXSTR pszBuffer = this->GetBuffer( __max( nNewLength, nOldLength ) );

  0010b	8b 55 fc	 mov	 edx, DWORD PTR _this$1$[ebp]
  0010e	8b 02		 mov	 eax, DWORD PTR [edx]

; 1645 : 
; 1646 : 			PXSTR pszStart = pszBuffer;

  00110	8b f8		 mov	 edi, eax
  00112	89 45 e8	 mov	 DWORD PTR _pszBuffer$1$[ebp], eax

; 1647 : 			PXSTR pszEnd = pszStart+nOldLength;

  00115	8d 0c 30	 lea	 ecx, DWORD PTR [eax+esi]
  00118	89 4d e0	 mov	 DWORD PTR _pszEnd$1$[ebp], ecx

; 1648 : 
; 1649 : 			// loop again to actually do the work
; 1650 : 			while( pszStart < pszEnd )

  0011b	3b c1		 cmp	 eax, ecx
  0011d	0f 83 ff 00 00
	00		 jae	 $LN7@Replace
$LL6@Replace:

; 212  : 		return reinterpret_cast< LPCSTR >( _mbsstr( reinterpret_cast< const unsigned char* >( pszBlock ),

  00123	ff 75 08	 push	 DWORD PTR _pszOld$[ebp]
  00126	57		 push	 edi
  00127	e8 00 00 00 00	 call	 __mbsstr

; 1651 : 			{
; 1652 : 				PXSTR pszTarget;
; 1653 : 				while( (pszTarget = StringTraits::StringFindString( pszStart, pszOld ) ) != NULL )

  0012c	8b f0		 mov	 esi, eax

; 212  : 		return reinterpret_cast< LPCSTR >( _mbsstr( reinterpret_cast< const unsigned char* >( pszBlock ),

  0012e	83 c4 08	 add	 esp, 8

; 1651 : 			{
; 1652 : 				PXSTR pszTarget;
; 1653 : 				while( (pszTarget = StringTraits::StringFindString( pszStart, pszOld ) ) != NULL )

  00131	85 f6		 test	 esi, esi
  00133	0f 84 c4 00 00
	00		 je	 $LN9@Replace
  00139	0f 1f 80 00 00
	00 00		 npad	 7
$LL8@Replace:

; 1654 : 				{
; 1655 : 					int nBalance = nOldLength-int(pszTarget-pszBuffer+nSourceLen);

  00140	8b 7d e8	 mov	 edi, DWORD PTR _pszBuffer$1$[ebp]

; 1656 : 					Checked::memmove_s( pszTarget+nReplacementLen, nBalance*sizeof( XCHAR ),

  00143	8d 0c 33	 lea	 ecx, DWORD PTR [ebx+esi]
  00146	8b 45 ec	 mov	 eax, DWORD PTR $T1[ebp]
  00149	2b f8		 sub	 edi, eax
  0014b	2b fe		 sub	 edi, esi
  0014d	89 4d e4	 mov	 DWORD PTR __S1$1$[ebp], ecx
  00150	8d 04 30	 lea	 eax, DWORD PTR [eax+esi]
  00153	03 7d f4	 add	 edi, DWORD PTR _nOldLength$1$[ebp]
; File C:\Program Files (x86)\Windows Kits\10\Include\10.0.26100.0\ucrt\corecrt_memcpy_s.h

; 76   :         if (_SourceSize == 0)

  00156	74 2a		 je	 SHORT $LN136@Replace

; 77   :         {
; 78   :             return 0;
; 79   :         }
; 80   : 
; 81   :         _CRT_MEMCPY_S_VALIDATE_RETURN_ERRCODE(_Destination != NULL,            EINVAL);

  00158	85 c9		 test	 ecx, ecx
  0015a	75 17		 jne	 SHORT $LN53@Replace
$LN137@Replace:
; File C:\Program Files\Microsoft Visual Studio\2022\Professional\VC\Tools\MSVC\14.44.35207\atlmfc\include\atlchecked.h

; 91   : 	ATLMFC_CRT_ERRORCHECK(::memmove_s(_S1, _S1max, _S2, _N));

  0015c	e8 00 00 00 00	 call	 __errno
  00161	c7 00 16 00 00
	00		 mov	 DWORD PTR [eax], 22	; 00000016H
  00167	e8 00 00 00 00	 call	 __invalid_parameter_noinfo
  0016c	b8 16 00 00 00	 mov	 eax, 22			; 00000016H
  00171	eb 11		 jmp	 SHORT $LN51@Replace
$LN53@Replace:
; File C:\Program Files (x86)\Windows Kits\10\Include\10.0.26100.0\ucrt\corecrt_memcpy_s.h

; 82   :         _CRT_MEMCPY_S_VALIDATE_RETURN_ERRCODE(_Source != NULL,                 EINVAL);

  00173	85 c0		 test	 eax, eax
  00175	74 e5		 je	 SHORT $LN137@Replace

; 83   :         _CRT_MEMCPY_S_VALIDATE_RETURN_ERRCODE(_DestinationSize >= _SourceSize, ERANGE);
; 84   : 
; 85   :         memmove(_Destination, _Source, _SourceSize);

  00177	57		 push	 edi
  00178	50		 push	 eax
  00179	51		 push	 ecx
  0017a	e8 00 00 00 00	 call	 _memmove
  0017f	83 c4 0c	 add	 esp, 12			; 0000000cH
$LN136@Replace:
; File C:\Program Files\Microsoft Visual Studio\2022\Professional\VC\Tools\MSVC\14.44.35207\atlmfc\include\atlchecked.h

; 91   : 	ATLMFC_CRT_ERRORCHECK(::memmove_s(_S1, _S1max, _S2, _N));

  00182	33 c0		 xor	 eax, eax
$LN51@Replace:
  00184	50		 push	 eax
  00185	e8 00 00 00 00	 call	 ?AfxCrtErrorCheck@@YAHH@Z ; AfxCrtErrorCheck
  0018a	83 c4 04	 add	 esp, 4
; File C:\Program Files (x86)\Windows Kits\10\Include\10.0.26100.0\ucrt\corecrt_memcpy_s.h

; 47   :         if (_SourceSize == 0)

  0018d	85 db		 test	 ebx, ebx
  0018f	75 04		 jne	 SHORT $LN60@Replace

; 48   :         {
; 49   :             return 0;

  00191	33 c0		 xor	 eax, eax
  00193	eb 3a		 jmp	 SHORT $LN59@Replace
$LN60@Replace:

; 50   :         }
; 51   : 
; 52   :         _CRT_MEMCPY_S_VALIDATE_RETURN_ERRCODE(_Destination != NULL, EINVAL);

  00195	85 f6		 test	 esi, esi
  00197	74 21		 je	 SHORT $LN138@Replace

; 53   :         if (_Source == NULL || _DestinationSize < _SourceSize)

  00199	8b 45 0c	 mov	 eax, DWORD PTR _pszNew$[ebp]
  0019c	53		 push	 ebx
  0019d	85 c0		 test	 eax, eax
  0019f	74 0e		 je	 SHORT $LN63@Replace

; 56   : 
; 57   :             _CRT_MEMCPY_S_VALIDATE_RETURN_ERRCODE(_Source != NULL,                 EINVAL);
; 58   :             _CRT_MEMCPY_S_VALIDATE_RETURN_ERRCODE(_DestinationSize >= _SourceSize, ERANGE);
; 59   : 
; 60   :             // Unreachable, but required to suppress /analyze warnings:
; 61   :             return EINVAL;
; 62   :         }
; 63   :         memcpy(_Destination, _Source, _SourceSize);

  001a1	50		 push	 eax
  001a2	56		 push	 esi
  001a3	e8 00 00 00 00	 call	 _memcpy
  001a8	83 c4 0c	 add	 esp, 12			; 0000000cH

; 64   :         return 0;

  001ab	33 c0		 xor	 eax, eax
  001ad	eb 20		 jmp	 SHORT $LN59@Replace
$LN63@Replace:

; 54   :         {
; 55   :             memset(_Destination, 0, _DestinationSize);

  001af	6a 00		 push	 0
  001b1	56		 push	 esi
  001b2	e8 00 00 00 00	 call	 _memset
  001b7	83 c4 0c	 add	 esp, 12			; 0000000cH
$LN138@Replace:
; File C:\Program Files\Microsoft Visual Studio\2022\Professional\VC\Tools\MSVC\14.44.35207\atlmfc\include\atlchecked.h

; 73   : 	ATLMFC_CRT_ERRORCHECK(::memcpy_s(_S1, _S1max, _S2, _N));

  001ba	e8 00 00 00 00	 call	 __errno
  001bf	c7 00 16 00 00
	00		 mov	 DWORD PTR [eax], 22	; 00000016H
  001c5	e8 00 00 00 00	 call	 __invalid_parameter_noinfo
  001ca	b8 16 00 00 00	 mov	 eax, 22			; 00000016H
$LN59@Replace:
  001cf	50		 push	 eax
  001d0	e8 00 00 00 00	 call	 ?AfxCrtErrorCheck@@YAHH@Z ; AfxCrtErrorCheck
; File C:\Program Files\Microsoft Visual Studio\2022\Professional\VC\Tools\MSVC\14.44.35207\atlmfc\include\cstringt.h

; 212  : 		return reinterpret_cast< LPCSTR >( _mbsstr( reinterpret_cast< const unsigned char* >( pszBlock ),

  001d5	ff 75 08	 push	 DWORD PTR _pszOld$[ebp]

; 1657 : 						pszTarget+nSourceLen, nBalance*sizeof( XCHAR ) );
; 1658 : 					Checked::memcpy_s( pszTarget, nReplacementLen*sizeof( XCHAR ),
; 1659 : 						pszNew, nReplacementLen*sizeof( XCHAR ) );
; 1660 : 					pszStart = pszTarget+nReplacementLen;
; 1661 : 					pszTarget[nReplacementLen+nBalance] = 0;

  001d8	8d 04 3b	 lea	 eax, DWORD PTR [ebx+edi]

; 212  : 		return reinterpret_cast< LPCSTR >( _mbsstr( reinterpret_cast< const unsigned char* >( pszBlock ),

  001db	8b 7d e4	 mov	 edi, DWORD PTR __S1$1$[ebp]

; 1657 : 						pszTarget+nSourceLen, nBalance*sizeof( XCHAR ) );
; 1658 : 					Checked::memcpy_s( pszTarget, nReplacementLen*sizeof( XCHAR ),
; 1659 : 						pszNew, nReplacementLen*sizeof( XCHAR ) );
; 1660 : 					pszStart = pszTarget+nReplacementLen;
; 1661 : 					pszTarget[nReplacementLen+nBalance] = 0;

  001de	c6 04 30 00	 mov	 BYTE PTR [eax+esi], 0

; 1662 : 					nOldLength += (nReplacementLen-nSourceLen);

  001e2	8b c3		 mov	 eax, ebx
  001e4	2b 45 ec	 sub	 eax, DWORD PTR $T1[ebp]
  001e7	01 45 f4	 add	 DWORD PTR _nOldLength$1$[ebp], eax

; 212  : 		return reinterpret_cast< LPCSTR >( _mbsstr( reinterpret_cast< const unsigned char* >( pszBlock ),

  001ea	57		 push	 edi
  001eb	e8 00 00 00 00	 call	 __mbsstr

; 1651 : 			{
; 1652 : 				PXSTR pszTarget;
; 1653 : 				while( (pszTarget = StringTraits::StringFindString( pszStart, pszOld ) ) != NULL )

  001f0	8b f0		 mov	 esi, eax

; 212  : 		return reinterpret_cast< LPCSTR >( _mbsstr( reinterpret_cast< const unsigned char* >( pszBlock ),

  001f2	83 c4 0c	 add	 esp, 12			; 0000000cH

; 1651 : 			{
; 1652 : 				PXSTR pszTarget;
; 1653 : 				while( (pszTarget = StringTraits::StringFindString( pszStart, pszOld ) ) != NULL )

  001f5	85 f6		 test	 esi, esi
  001f7	0f 85 43 ff ff
	ff		 jne	 $LL8@Replace
$LN9@Replace:

; 495  : 		return (psz != NULL) ? int( strlen( psz ) ) : 0;

  001fd	85 ff		 test	 edi, edi
  001ff	74 10		 je	 SHORT $LN69@Replace
  00201	8b cf		 mov	 ecx, edi
  00203	8d 51 01	 lea	 edx, DWORD PTR [ecx+1]
$LL103@Replace:
  00206	8a 01		 mov	 al, BYTE PTR [ecx]
  00208	41		 inc	 ecx
  00209	84 c0		 test	 al, al
  0020b	75 f9		 jne	 SHORT $LL103@Replace
  0020d	2b ca		 sub	 ecx, edx
  0020f	eb 02		 jmp	 SHORT $LN70@Replace
$LN69@Replace:
  00211	33 c9		 xor	 ecx, ecx
$LN70@Replace:

; 1663 : 				}
; 1664 : 				pszStart += StringTraits::SafeStringLen( pszStart )+1;

  00213	47		 inc	 edi
  00214	03 f9		 add	 edi, ecx
  00216	3b 7d e0	 cmp	 edi, DWORD PTR _pszEnd$1$[ebp]
  00219	0f 82 04 ff ff
	ff		 jb	 $LL6@Replace
  0021f	8b 55 fc	 mov	 edx, DWORD PTR _this$1$[ebp]
$LN7@Replace:
; File C:\Program Files\Microsoft Visual Studio\2022\Professional\VC\Tools\MSVC\14.44.35207\atlmfc\include\atlsimpstr.h

; 875  : 		if( nLength < 0 || nLength > GetData()->nAllocLength)

  00222	8b 4d f0	 mov	 ecx, DWORD PTR _nNewLength$1$[ebp]
  00225	85 c9		 test	 ecx, ecx
  00227	78 35		 js	 SHORT $LN75@Replace
  00229	8b 02		 mov	 eax, DWORD PTR [edx]
  0022b	3b 48 f8	 cmp	 ecx, DWORD PTR [eax-8]
  0022e	7f 2e		 jg	 SHORT $LN75@Replace

; 877  : 
; 878  : 		GetData()->nDataLength = nLength;

  00230	89 48 f4	 mov	 DWORD PTR [eax-12], ecx

; 879  : 		m_pszData[nLength] = 0;

  00233	8b 02		 mov	 eax, DWORD PTR [edx]
; File C:\Program Files\Microsoft Visual Studio\2022\Professional\VC\Tools\MSVC\14.44.35207\atlmfc\include\cstringt.h

; 1670 : 		return( nCount );

  00235	5b		 pop	 ebx
  00236	5f		 pop	 edi

; 1671 : 	}

  00237	5e		 pop	 esi
; File C:\Program Files\Microsoft Visual Studio\2022\Professional\VC\Tools\MSVC\14.44.35207\atlmfc\include\atlsimpstr.h

; 879  : 		m_pszData[nLength] = 0;

  00238	c6 04 01 00	 mov	 BYTE PTR [ecx+eax], 0
  0023c	8b 4d f8	 mov	 ecx, DWORD PTR _nCount$1$[ebp]
; File C:\Program Files\Microsoft Visual Studio\2022\Professional\VC\Tools\MSVC\14.44.35207\atlmfc\include\cstringt.h

; 1670 : 		return( nCount );

  0023f	8b c1		 mov	 eax, ecx

; 1671 : 	}

  00241	8b e5		 mov	 esp, ebp
  00243	5d		 pop	 ebp
  00244	c2 08 00	 ret	 8
$LN105@Replace:

; 1624 : 			while( pszStart < pszEnd )

  00247	33 c9		 xor	 ecx, ecx
$LN76@Replace:

; 1670 : 		return( nCount );

  00249	5b		 pop	 ebx
  0024a	5f		 pop	 edi
  0024b	8b c1		 mov	 eax, ecx

; 1671 : 	}

  0024d	5e		 pop	 esi
  0024e	8b e5		 mov	 esp, ebp
  00250	5d		 pop	 ebp
  00251	c2 08 00	 ret	 8
$LN98@Replace:
  00254	5f		 pop	 edi

; 1615 : 			return( 0 );

  00255	33 c0		 xor	 eax, eax

; 1671 : 	}

  00257	5e		 pop	 esi
  00258	8b e5		 mov	 esp, ebp
  0025a	5d		 pop	 ebp
  0025b	c2 08 00	 ret	 8
$LN75@Replace:
; File C:\Program Files\Microsoft Visual Studio\2022\Professional\VC\Tools\MSVC\14.44.35207\atlmfc\include\atlsimpstr.h

; 876  : 			AtlThrow(E_INVALIDARG);

  0025e	68 57 00 07 80	 push	 -2147024809		; 80070057H
  00263	e8 00 00 00 00	 call	 ?AtlThrowImpl@ATL@@YGXJ@Z ; ATL::AtlThrowImpl
$LN134@Replace:
  00268	cc		 int	 3
?Replace@?$CStringT@DV?$StrTraitMFC@DV?$ChTraitsCRT@D@ATL@@@@@ATL@@QAEHPBD0@Z ENDP ; ATL::CStringT<char,StrTraitMFC<char,ATL::ChTraitsCRT<char> > >::Replace
_TEXT	ENDS
; Function compile flags: /Ogtp
; File C:\Program Files\Microsoft Visual Studio\2022\Professional\VC\Tools\MSVC\14.44.35207\atlmfc\include\cstringt.h
; File C:\Program Files\Microsoft Visual Studio\2022\Professional\VC\Tools\MSVC\14.44.35207\atlmfc\include\atlsimpstr.h
; File C:\Program Files\Microsoft Visual Studio\2022\Professional\VC\Tools\MSVC\14.44.35207\atlmfc\include\cstringt.h
; File C:\Program Files\Microsoft Visual Studio\2022\Professional\VC\Tools\MSVC\14.44.35207\atlmfc\include\atlsimpstr.h
; File C:\Program Files\Microsoft Visual Studio\2022\Professional\VC\Tools\MSVC\14.44.35207\atlmfc\include\cstringt.h
; File C:\Program Files\Microsoft Visual Studio\2022\Professional\VC\Tools\MSVC\14.44.35207\atlmfc\include\atlsimpstr.h
; File C:\Program Files\Microsoft Visual Studio\2022\Professional\VC\Tools\MSVC\14.44.35207\atlmfc\include\cstringt.h
; File C:\Program Files\Microsoft Visual Studio\2022\Professional\VC\Tools\MSVC\14.44.35207\atlmfc\include\atlalloc.h
; File C:\Program Files\Microsoft Visual Studio\2022\Professional\VC\Tools\MSVC\14.44.35207\atlmfc\include\cstringt.h
; File C:\Program Files\Microsoft Visual Studio\2022\Professional\VC\Tools\MSVC\14.44.35207\atlmfc\include\atlsimpstr.h
; File C:\Program Files\Microsoft Visual Studio\2022\Professional\VC\Tools\MSVC\14.44.35207\atlmfc\include\cstringt.h
; File C:\Program Files\Microsoft Visual Studio\2022\Professional\VC\Tools\MSVC\14.44.35207\atlmfc\include\atlsimpstr.h
; File C:\Program Files\Microsoft Visual Studio\2022\Professional\VC\Tools\MSVC\14.44.35207\atlmfc\include\cstringt.h
; File C:\Program Files (x86)\Windows Kits\10\Include\10.0.26100.0\ucrt\corecrt_memcpy_s.h
; File C:\Program Files\Microsoft Visual Studio\2022\Professional\VC\Tools\MSVC\14.44.35207\atlmfc\include\atlchecked.h
; File C:\Program Files (x86)\Windows Kits\10\Include\10.0.26100.0\ucrt\corecrt_memcpy_s.h
; File C:\Program Files\Microsoft Visual Studio\2022\Professional\VC\Tools\MSVC\14.44.35207\atlmfc\include\atlchecked.h
; File C:\Program Files\Microsoft Visual Studio\2022\Professional\VC\Tools\MSVC\14.44.35207\atlmfc\include\atlsimpstr.h
; File C:\Program Files\Microsoft Visual Studio\2022\Professional\VC\Tools\MSVC\14.44.35207\atlmfc\include\cstringt.h
; File C:\Program Files\Microsoft Visual Studio\2022\Professional\VC\Tools\MSVC\14.44.35207\atlmfc\include\atlsimpstr.h
; File C:\Program Files\Microsoft Visual Studio\2022\Professional\VC\Tools\MSVC\14.44.35207\atlmfc\include\atlalloc.h
; File C:\Program Files\Microsoft Visual Studio\2022\Professional\VC\Tools\MSVC\14.44.35207\atlmfc\include\cstringt.h
;	COMDAT ?Delete@?$CStringT@DV?$StrTraitMFC@DV?$ChTraitsCRT@D@ATL@@@@@ATL@@QAEHHH@Z
_TEXT	SEGMENT
_this$1$ = -4						; size = 4
_iIndex$ = 8						; size = 4
tv371 = 8						; size = 4
_nCount$ = 12						; size = 4
?Delete@?$CStringT@DV?$StrTraitMFC@DV?$ChTraitsCRT@D@ATL@@@@@ATL@@QAEHHH@Z PROC ; ATL::CStringT<char,StrTraitMFC<char,ATL::ChTraitsCRT<char> > >::Delete, COMDAT
; _this$ = ecx

; 1482 : 	{

  00000	55		 push	 ebp
  00001	8b ec		 mov	 ebp, esp
  00003	51		 push	 ecx

; 1486 : 		if( nCount < 0 )

  00004	8b 45 08	 mov	 eax, DWORD PTR _iIndex$[ebp]
  00007	53		 push	 ebx
  00008	33 db		 xor	 ebx, ebx
  0000a	89 4d fc	 mov	 DWORD PTR _this$1$[ebp], ecx
  0000d	85 c0		 test	 eax, eax
  0000f	56		 push	 esi
  00010	0f 49 d8	 cmovns	 ebx, eax
; File C:\Program Files\Microsoft Visual Studio\2022\Professional\VC\Tools\MSVC\14.44.35207\atlmfc\include\atlsimpstr.h

; 523  : 		return( GetData()->nDataLength );

  00013	33 f6		 xor	 esi, esi
  00015	8b 45 0c	 mov	 eax, DWORD PTR _nCount$[ebp]
  00018	85 c0		 test	 eax, eax
; File C:\Program Files\Microsoft Visual Studio\2022\Professional\VC\Tools\MSVC\14.44.35207\atlmfc\include\cstringt.h

; 1482 : 	{

  0001a	57		 push	 edi
; File C:\Program Files\Microsoft Visual Studio\2022\Professional\VC\Tools\MSVC\14.44.35207\atlmfc\include\atlsimpstr.h

; 523  : 		return( GetData()->nDataLength );

  0001b	0f 49 f0	 cmovns	 esi, eax
; File C:\Program Files\Microsoft Visual Studio\2022\Professional\VC\Tools\MSVC\14.44.35207\atlmfc\include\cstringt.h

; 1486 : 		if( nCount < 0 )

  0001e	89 5d 08	 mov	 DWORD PTR tv371[ebp], ebx
; File C:\Program Files\Microsoft Visual Studio\2022\Professional\VC\Tools\MSVC\14.44.35207\atlmfc\include\atlsimpstr.h

; 523  : 		return( GetData()->nDataLength );

  00021	8b 01		 mov	 eax, DWORD PTR [ecx]
; File C:\Program Files\Microsoft Visual Studio\2022\Professional\VC\Tools\MSVC\14.44.35207\atlmfc\include\cstringt.h

; 1489 : 		int nLength = this->GetLength();

  00023	8b 50 f4	 mov	 edx, DWORD PTR [eax-12]
; File C:\Program Files\Microsoft Visual Studio\2022\Professional\VC\Tools\MSVC\14.44.35207\atlmfc\include\atlalloc.h

; 89   : 	if(::ATL::AtlLimits<T>::_Max-tLeft < tRight)

  00026	b8 ff ff ff 7f	 mov	 eax, 2147483647		; 7fffffffH
  0002b	2b c6		 sub	 eax, esi
  0002d	3b c3		 cmp	 eax, ebx
  0002f	0f 8c 9f 00 00
	00		 jl	 $LN67@Delete

; 90   : 	{
; 91   : 		return HRESULT_FROM_WIN32(ERROR_ARITHMETIC_OVERFLOW);
; 92   : 	}
; 93   : 	*ptResult= tLeft + tRight;

  00035	8d 04 1e	 lea	 eax, DWORD PTR [esi+ebx]
; File C:\Program Files\Microsoft Visual Studio\2022\Professional\VC\Tools\MSVC\14.44.35207\atlmfc\include\cstringt.h

; 1490 : 		if( (::ATL::AtlAddThrow(nCount, iIndex)) > nLength )

  00038	3b c2		 cmp	 eax, edx
  0003a	7e 08		 jle	 SHORT $LN52@Delete

; 1491 : 		{
; 1492 : 			nCount = nLength-iIndex;

  0003c	8b f2		 mov	 esi, edx
  0003e	2b f3		 sub	 esi, ebx
  00040	8b fe		 mov	 edi, esi
  00042	eb 04		 jmp	 SHORT $LN4@Delete
$LN52@Delete:
  00044	8b fa		 mov	 edi, edx
  00046	2b fb		 sub	 edi, ebx
$LN4@Delete:

; 1493 : 		}
; 1494 : 		if( nCount > 0 )

  00048	85 f6		 test	 esi, esi
  0004a	7e 70		 jle	 SHORT $LN42@Delete
; File C:\Program Files\Microsoft Visual Studio\2022\Professional\VC\Tools\MSVC\14.44.35207\atlmfc\include\atlsimpstr.h

; 77   : 		return( nRefs > 1 );

  0004c	8b 01		 mov	 eax, DWORD PTR [ecx]
; File C:\Program Files\Microsoft Visual Studio\2022\Professional\VC\Tools\MSVC\14.44.35207\atlmfc\include\cstringt.h

; 1497 : 			int nXCHARsToCopy = nLength-(iIndex+nCount)+1;

  0004e	2b fe		 sub	 edi, esi
  00050	8b da		 mov	 ebx, edx
  00052	47		 inc	 edi
  00053	2b de		 sub	 ebx, esi
; File C:\Program Files\Microsoft Visual Studio\2022\Professional\VC\Tools\MSVC\14.44.35207\atlmfc\include\atlsimpstr.h

; 77   : 		return( nRefs > 1 );

  00055	83 78 fc 01	 cmp	 DWORD PTR [eax-4], 1

; 503  : 		if( pData->IsShared() )

  00059	7e 09		 jle	 SHORT $LN23@Delete

; 504  : 		{
; 505  : 			Fork( pData->nDataLength );

  0005b	52		 push	 edx
  0005c	e8 00 00 00 00	 call	 ?Fork@?$CSimpleStringT@D$0A@@ATL@@AAEXH@Z ; ATL::CSimpleStringT<char,0>::Fork
  00061	8b 4d fc	 mov	 ecx, DWORD PTR _this$1$[ebp]
$LN23@Delete:
; File C:\Program Files\Microsoft Visual Studio\2022\Professional\VC\Tools\MSVC\14.44.35207\atlmfc\include\cstringt.h

; 1499 : 			Checked::memmove_s( pszBuffer+iIndex, nXCHARsToCopy*sizeof( XCHAR ),

  00064	8b 01		 mov	 eax, DWORD PTR [ecx]
  00066	03 45 08	 add	 eax, DWORD PTR tv371[ebp]
  00069	8d 0c 30	 lea	 ecx, DWORD PTR [eax+esi]
; File C:\Program Files (x86)\Windows Kits\10\Include\10.0.26100.0\ucrt\corecrt_memcpy_s.h

; 76   :         if (_SourceSize == 0)

  0006c	85 ff		 test	 edi, edi
  0006e	74 2a		 je	 SHORT $LN64@Delete

; 77   :         {
; 78   :             return 0;
; 79   :         }
; 80   : 
; 81   :         _CRT_MEMCPY_S_VALIDATE_RETURN_ERRCODE(_Destination != NULL,            EINVAL);

  00070	85 c0		 test	 eax, eax
  00072	75 17		 jne	 SHORT $LN33@Delete
$LN65@Delete:
; File C:\Program Files\Microsoft Visual Studio\2022\Professional\VC\Tools\MSVC\14.44.35207\atlmfc\include\atlchecked.h

; 91   : 	ATLMFC_CRT_ERRORCHECK(::memmove_s(_S1, _S1max, _S2, _N));

  00074	e8 00 00 00 00	 call	 __errno
  00079	c7 00 16 00 00
	00		 mov	 DWORD PTR [eax], 22	; 00000016H
  0007f	e8 00 00 00 00	 call	 __invalid_parameter_noinfo
  00084	b8 16 00 00 00	 mov	 eax, 22			; 00000016H
  00089	eb 11		 jmp	 SHORT $LN31@Delete
$LN33@Delete:
; File C:\Program Files (x86)\Windows Kits\10\Include\10.0.26100.0\ucrt\corecrt_memcpy_s.h

; 82   :         _CRT_MEMCPY_S_VALIDATE_RETURN_ERRCODE(_Source != NULL,                 EINVAL);

  0008b	85 c9		 test	 ecx, ecx
  0008d	74 e5		 je	 SHORT $LN65@Delete

; 83   :         _CRT_MEMCPY_S_VALIDATE_RETURN_ERRCODE(_DestinationSize >= _SourceSize, ERANGE);
; 84   : 
; 85   :         memmove(_Destination, _Source, _SourceSize);

  0008f	57		 push	 edi
  00090	51		 push	 ecx
  00091	50		 push	 eax
  00092	e8 00 00 00 00	 call	 _memmove
  00097	83 c4 0c	 add	 esp, 12			; 0000000cH
$LN64@Delete:
; File C:\Program Files\Microsoft Visual Studio\2022\Professional\VC\Tools\MSVC\14.44.35207\atlmfc\include\atlchecked.h

; 91   : 	ATLMFC_CRT_ERRORCHECK(::memmove_s(_S1, _S1max, _S2, _N));

  0009a	33 c0		 xor	 eax, eax
$LN31@Delete:
  0009c	50		 push	 eax
  0009d	e8 00 00 00 00	 call	 ?AfxCrtErrorCheck@@YAHH@Z ; AfxCrtErrorCheck
  000a2	83 c4 04	 add	 esp, 4
; File C:\Program Files\Microsoft Visual Studio\2022\Professional\VC\Tools\MSVC\14.44.35207\atlmfc\include\atlsimpstr.h

; 875  : 		if( nLength < 0 || nLength > GetData()->nAllocLength)

  000a5	85 db		 test	 ebx, ebx
  000a7	78 21		 js	 SHORT $LN41@Delete
  000a9	8b 4d fc	 mov	 ecx, DWORD PTR _this$1$[ebp]
  000ac	8b 01		 mov	 eax, DWORD PTR [ecx]
  000ae	3b 58 f8	 cmp	 ebx, DWORD PTR [eax-8]
  000b1	7f 17		 jg	 SHORT $LN41@Delete

; 877  : 
; 878  : 		GetData()->nDataLength = nLength;

  000b3	89 58 f4	 mov	 DWORD PTR [eax-12], ebx

; 879  : 		m_pszData[nLength] = 0;

  000b6	8b 01		 mov	 eax, DWORD PTR [ecx]
  000b8	c6 04 03 00	 mov	 BYTE PTR [ebx+eax], 0
$LN42@Delete:
; File C:\Program Files\Microsoft Visual Studio\2022\Professional\VC\Tools\MSVC\14.44.35207\atlmfc\include\cstringt.h

; 1504 : 		return( this->GetLength() );

  000bc	8b 01		 mov	 eax, DWORD PTR [ecx]
  000be	5f		 pop	 edi
  000bf	5e		 pop	 esi
  000c0	5b		 pop	 ebx
  000c1	8b 40 f4	 mov	 eax, DWORD PTR [eax-12]

; 1505 : 	}

  000c4	8b e5		 mov	 esp, ebp
  000c6	5d		 pop	 ebp
  000c7	c2 08 00	 ret	 8
$LN41@Delete:
; File C:\Program Files\Microsoft Visual Studio\2022\Professional\VC\Tools\MSVC\14.44.35207\atlmfc\include\atlsimpstr.h

; 876  : 			AtlThrow(E_INVALIDARG);

  000ca	68 57 00 07 80	 push	 -2147024809		; 80070057H
  000cf	e8 00 00 00 00	 call	 ?AtlThrowImpl@ATL@@YGXJ@Z ; ATL::AtlThrowImpl
$LN67@Delete:
; File C:\Program Files\Microsoft Visual Studio\2022\Professional\VC\Tools\MSVC\14.44.35207\atlmfc\include\atlalloc.h

; 203  : 		AtlThrow(hr);

  000d4	68 16 02 07 80	 push	 -2147024362		; 80070216H
  000d9	e8 00 00 00 00	 call	 ?AtlThrowImpl@ATL@@YGXJ@Z ; ATL::AtlThrowImpl
$LN63@Delete:
  000de	cc		 int	 3
?Delete@?$CStringT@DV?$StrTraitMFC@DV?$ChTraitsCRT@D@ATL@@@@@ATL@@QAEHHH@Z ENDP ; ATL::CStringT<char,StrTraitMFC<char,ATL::ChTraitsCRT<char> > >::Delete
_TEXT	ENDS
; Function compile flags: /Ogtp
; File C:\Program Files\Microsoft Visual Studio\2022\Professional\VC\Tools\MSVC\14.44.35207\atlmfc\include\cstringt.h
; File C:\Program Files\Microsoft Visual Studio\2022\Professional\VC\Tools\MSVC\14.44.35207\atlmfc\include\atlsimpstr.h
; File C:\Program Files\Microsoft Visual Studio\2022\Professional\VC\Tools\MSVC\14.44.35207\atlmfc\include\cstringt.h
;	COMDAT ??1?$CStringT@DV?$StrTraitMFC@DV?$ChTraitsCRT@D@ATL@@@@@ATL@@QAE@XZ
_TEXT	SEGMENT
??1?$CStringT@DV?$StrTraitMFC@DV?$ChTraitsCRT@D@ATL@@@@@ATL@@QAE@XZ PROC ; ATL::CStringT<char,StrTraitMFC<char,ATL::ChTraitsCRT<char> > >::~CStringT<char,StrTraitMFC<char,ATL::ChTraitsCRT<char> > >, COMDAT
; _this$ = ecx
; File C:\Program Files\Microsoft Visual Studio\2022\Professional\VC\Tools\MSVC\14.44.35207\atlmfc\include\atlsimpstr.h

; 804  : 		return( reinterpret_cast< CStringData* >( m_pszData )-1 );

  00000	8b 11		 mov	 edx, DWORD PTR [ecx]

; 92   : 		if( _InterlockedDecrement( &nRefs ) <= 0 )

  00002	83 c8 ff	 or	 eax, -1

; 804  : 		return( reinterpret_cast< CStringData* >( m_pszData )-1 );

  00005	83 ea 10	 sub	 edx, 16			; 00000010H

; 92   : 		if( _InterlockedDecrement( &nRefs ) <= 0 )

  00008	f0 0f c1 42 0c	 lock	  xadd	 DWORD PTR [edx+12], eax
  0000d	48		 dec	 eax
  0000e	85 c0		 test	 eax, eax
  00010	7f 08		 jg	 SHORT $LN8@CStringT

; 93   : 		{
; 94   : 			pStringMgr->Free( this );

  00012	8b 0a		 mov	 ecx, DWORD PTR [edx]
  00014	52		 push	 edx
  00015	8b 01		 mov	 eax, DWORD PTR [ecx]
  00017	ff 50 04	 call	 DWORD PTR [eax+4]
$LN8@CStringT:
; File C:\Program Files\Microsoft Visual Studio\2022\Professional\VC\Tools\MSVC\14.44.35207\atlmfc\include\cstringt.h

; 1303 : 	}

  0001a	c3		 ret	 0
??1?$CStringT@DV?$StrTraitMFC@DV?$ChTraitsCRT@D@ATL@@@@@ATL@@QAE@XZ ENDP ; ATL::CStringT<char,StrTraitMFC<char,ATL::ChTraitsCRT<char> > >::~CStringT<char,StrTraitMFC<char,ATL::ChTraitsCRT<char> > >
_TEXT	ENDS
; Function compile flags: /Ogtp
; File C:\Program Files\Microsoft Visual Studio\2022\Professional\VC\Tools\MSVC\14.44.35207\atlmfc\include\atlsimpstr.h
;	COMDAT ?Reallocate@?$CSimpleStringT@D$0A@@ATL@@AAEXH@Z
_TEXT	SEGMENT
_nLength$ = 8						; size = 4
?Reallocate@?$CSimpleStringT@D$0A@@ATL@@AAEXH@Z PROC	; ATL::CSimpleStringT<char,0>::Reallocate, COMDAT
; _this$ = ecx

; 853  : 	{

  00000	55		 push	 ebp
  00001	8b ec		 mov	 ebp, esp
  00003	56		 push	 esi

; 854  : 		CStringData* pOldData = GetData();
; 855  : 		ATLASSERT( pOldData->nAllocLength < nLength );
; 856  : 		IAtlStringMgr* pStringMgr = pOldData->pStringMgr;
; 857  : 		if ( pOldData->nAllocLength >= nLength || nLength <= 0)

  00004	8b 75 08	 mov	 esi, DWORD PTR _nLength$[ebp]
  00007	57		 push	 edi
  00008	8b f9		 mov	 edi, ecx

; 804  : 		return( reinterpret_cast< CStringData* >( m_pszData )-1 );

  0000a	8b 17		 mov	 edx, DWORD PTR [edi]
  0000c	83 ea 10	 sub	 edx, 16			; 00000010H

; 854  : 		CStringData* pOldData = GetData();
; 855  : 		ATLASSERT( pOldData->nAllocLength < nLength );
; 856  : 		IAtlStringMgr* pStringMgr = pOldData->pStringMgr;
; 857  : 		if ( pOldData->nAllocLength >= nLength || nLength <= 0)

  0000f	39 72 08	 cmp	 DWORD PTR [edx+8], esi
  00012	7d 1e		 jge	 SHORT $LN3@Reallocate
  00014	85 f6		 test	 esi, esi
  00016	7e 1a		 jle	 SHORT $LN3@Reallocate

; 860  : 			return;
; 861  : 		}
; 862  : 		CStringData* pNewData = pStringMgr->Reallocate( pOldData, nLength, sizeof( XCHAR ) );

  00018	8b 0a		 mov	 ecx, DWORD PTR [edx]
  0001a	6a 01		 push	 1
  0001c	56		 push	 esi
  0001d	52		 push	 edx
  0001e	8b 01		 mov	 eax, DWORD PTR [ecx]
  00020	ff 50 08	 call	 DWORD PTR [eax+8]

; 863  : 		if( pNewData == NULL )

  00023	85 c0		 test	 eax, eax
  00025	74 0b		 je	 SHORT $LN3@Reallocate

; 864  : 		{
; 865  : 			ThrowMemoryException();
; 866  : 		}
; 867  : 		Attach( pNewData );

  00027	83 c0 10	 add	 eax, 16			; 00000010H
  0002a	89 07		 mov	 DWORD PTR [edi], eax
  0002c	5f		 pop	 edi
  0002d	5e		 pop	 esi

; 868  : 	}

  0002e	5d		 pop	 ebp
  0002f	c2 04 00	 ret	 4
$LN3@Reallocate:

; 858  : 		{
; 859  : 			ThrowMemoryException();

  00032	e8 00 00 00 00	 call	 ?ThrowMemoryException@?$CSimpleStringT@D$0A@@ATL@@KAXXZ ; ATL::CSimpleStringT<char,0>::ThrowMemoryException
$LN12@Reallocate:
  00037	cc		 int	 3
?Reallocate@?$CSimpleStringT@D$0A@@ATL@@AAEXH@Z ENDP	; ATL::CSimpleStringT<char,0>::Reallocate
_TEXT	ENDS
; Function compile flags: /Ogtp
; File C:\Program Files\Microsoft Visual Studio\2022\Professional\VC\Tools\MSVC\14.44.35207\atlmfc\include\atlsimpstr.h
;	COMDAT ?PrepareWrite2@?$CSimpleStringT@D$0A@@ATL@@AAEXH@Z
_TEXT	SEGMENT
_nLength$ = 8						; size = 4
?PrepareWrite2@?$CSimpleStringT@D$0A@@ATL@@AAEXH@Z PROC	; ATL::CSimpleStringT<char,0>::PrepareWrite2, COMDAT
; _this$ = ecx

; 822  : 	{

  00000	55		 push	 ebp
  00001	8b ec		 mov	 ebp, esp
  00003	56		 push	 esi

; 823  : 		CStringData* pOldData = GetData();
; 824  : 		if( pOldData->nDataLength > nLength )

  00004	8b 75 08	 mov	 esi, DWORD PTR _nLength$[ebp]
  00007	57		 push	 edi
  00008	8b f9		 mov	 edi, ecx

; 804  : 		return( reinterpret_cast< CStringData* >( m_pszData )-1 );

  0000a	8b 0f		 mov	 ecx, DWORD PTR [edi]

; 823  : 		CStringData* pOldData = GetData();
; 824  : 		if( pOldData->nDataLength > nLength )

  0000c	39 71 f4	 cmp	 DWORD PTR [ecx-12], esi
  0000f	0f 4f 71 f4	 cmovg	 esi, DWORD PTR [ecx-12]

; 77   : 		return( nRefs > 1 );

  00013	83 79 fc 01	 cmp	 DWORD PTR [ecx-4], 1

; 825  : 		{
; 826  : 			nLength = pOldData->nDataLength;
; 827  : 		}
; 828  : 		if( pOldData->IsShared() )

  00017	7e 0e		 jle	 SHORT $LN3@PrepareWri

; 829  : 		{
; 830  : 			Fork( nLength );

  00019	56		 push	 esi
  0001a	8b cf		 mov	 ecx, edi
  0001c	e8 00 00 00 00	 call	 ?Fork@?$CSimpleStringT@D$0A@@ATL@@AAEXH@Z ; ATL::CSimpleStringT<char,0>::Fork
  00021	5f		 pop	 edi

; 850  : 		}
; 851  : 	}

  00022	5e		 pop	 esi
  00023	5d		 pop	 ebp
  00024	c2 04 00	 ret	 4
$LN3@PrepareWri:

; 831  : 		}
; 832  : 		else if( pOldData->nAllocLength < nLength )

  00027	8b 49 f8	 mov	 ecx, DWORD PTR [ecx-8]
  0002a	3b ce		 cmp	 ecx, esi
  0002c	7d 25		 jge	 SHORT $LN5@PrepareWri

; 833  : 		{
; 834  : 			// Grow exponentially, until we hit 1G, then by 1M thereafter.
; 835  : 			int nNewLength = pOldData->nAllocLength;
; 836  : 			if( nNewLength > 1024 * 1024 * 1024 )

  0002e	81 f9 00 00 00
	40		 cmp	 ecx, 1073741824		; 40000000H
  00034	7e 07		 jle	 SHORT $LN6@PrepareWri

; 837  : 			{
; 838  : 				nNewLength += 1024 * 1024;

  00036	b8 00 00 10 00	 mov	 eax, 1048576		; 00100000H

; 839  : 			}

  0003b	eb 07		 jmp	 SHORT $LN7@PrepareWri
$LN6@PrepareWri:

; 840  : 			else
; 841  : 			{
; 842  : 				// Exponential growth factor is 1.5.
; 843  : 				nNewLength = nNewLength + nNewLength / 2;

  0003d	8b c1		 mov	 eax, ecx
  0003f	99		 cdq
  00040	2b c2		 sub	 eax, edx
  00042	d1 f8		 sar	 eax, 1
$LN7@PrepareWri:

; 844  : 			}
; 845  : 			if( nNewLength < nLength )

  00044	03 c1		 add	 eax, ecx

; 846  : 			{
; 847  : 				nNewLength = nLength;
; 848  : 			}
; 849  : 			Reallocate( nNewLength );

  00046	8b cf		 mov	 ecx, edi
  00048	3b c6		 cmp	 eax, esi
  0004a	0f 4d f0	 cmovge	 esi, eax
  0004d	56		 push	 esi
  0004e	e8 00 00 00 00	 call	 ?Reallocate@?$CSimpleStringT@D$0A@@ATL@@AAEXH@Z ; ATL::CSimpleStringT<char,0>::Reallocate
$LN5@PrepareWri:

; 850  : 		}
; 851  : 	}

  00053	5f		 pop	 edi
  00054	5e		 pop	 esi
  00055	5d		 pop	 ebp
  00056	c2 04 00	 ret	 4
?PrepareWrite2@?$CSimpleStringT@D$0A@@ATL@@AAEXH@Z ENDP	; ATL::CSimpleStringT<char,0>::PrepareWrite2
_TEXT	ENDS
; Function compile flags: /Ogtp
; File C:\Program Files\Microsoft Visual Studio\2022\Professional\VC\Tools\MSVC\14.44.35207\atlmfc\include\atlsimpstr.h
; File C:\Program Files (x86)\Windows Kits\10\Include\10.0.26100.0\ucrt\corecrt_memcpy_s.h
; File C:\Program Files\Microsoft Visual Studio\2022\Professional\VC\Tools\MSVC\14.44.35207\atlmfc\include\atlsimpstr.h
;	COMDAT ?Fork@?$CSimpleStringT@D$0A@@ATL@@AAEXH@Z
_TEXT	SEGMENT
_this$1$ = -12						; size = 4
_nOldLength$1$ = -8					; size = 4
__Source$1$ = -4					; size = 4
_nLength$ = 8						; size = 4
_pNewData$1$ = 8					; size = 4
?Fork@?$CSimpleStringT@D$0A@@ATL@@AAEXH@Z PROC		; ATL::CSimpleStringT<char,0>::Fork, COMDAT
; _this$ = ecx

; 787  : 	{

  00000	55		 push	 ebp
  00001	8b ec		 mov	 ebp, esp
  00003	83 ec 0c	 sub	 esp, 12			; 0000000cH
  00006	8b c1		 mov	 eax, ecx
  00008	89 45 f4	 mov	 DWORD PTR _this$1$[ebp], eax
  0000b	53		 push	 ebx
  0000c	56		 push	 esi

; 804  : 		return( reinterpret_cast< CStringData* >( m_pszData )-1 );

  0000d	8b 00		 mov	 eax, DWORD PTR [eax]

; 790  : 		CStringData* pNewData = pOldData->pStringMgr->Clone()->Allocate( nLength, sizeof( XCHAR ) );

  0000f	8b 48 f0	 mov	 ecx, DWORD PTR [eax-16]

; 804  : 		return( reinterpret_cast< CStringData* >( m_pszData )-1 );

  00012	8d 58 f0	 lea	 ebx, DWORD PTR [eax-16]
  00015	89 45 fc	 mov	 DWORD PTR __Source$1$[ebp], eax

; 787  : 	{

  00018	57		 push	 edi

; 788  : 		CStringData* pOldData = GetData();
; 789  : 		int nOldLength = pOldData->nDataLength;

  00019	8b 7b 04	 mov	 edi, DWORD PTR [ebx+4]

; 790  : 		CStringData* pNewData = pOldData->pStringMgr->Clone()->Allocate( nLength, sizeof( XCHAR ) );

  0001c	8b 01		 mov	 eax, DWORD PTR [ecx]
  0001e	89 7d f8	 mov	 DWORD PTR _nOldLength$1$[ebp], edi
  00021	ff 50 10	 call	 DWORD PTR [eax+16]
  00024	8b 75 08	 mov	 esi, DWORD PTR _nLength$[ebp]
  00027	8b c8		 mov	 ecx, eax
  00029	6a 01		 push	 1
  0002b	56		 push	 esi
  0002c	8b 10		 mov	 edx, DWORD PTR [eax]
  0002e	ff 12		 call	 DWORD PTR [edx]
  00030	89 45 08	 mov	 DWORD PTR _pNewData$1$[ebp], eax

; 791  : 		if( pNewData == NULL )

  00033	85 c0		 test	 eax, eax
  00035	74 6c		 je	 SHORT $LN25@Fork

; 794  : 		}
; 795  : 		int nCharsToCopy = ((nOldLength < nLength) ? nOldLength : nLength)+1;  // Copy '\0'

  00037	3b fe		 cmp	 edi, esi
  00039	0f 4c f7	 cmovl	 esi, edi

; 796  : 		memcpy_s( PXSTR( pNewData->data() ), nCharsToCopy * sizeof( XCHAR ),

  0003c	8d 78 10	 lea	 edi, DWORD PTR [eax+16]
  0003f	83 c6 01	 add	 esi, 1
; File C:\Program Files (x86)\Windows Kits\10\Include\10.0.26100.0\ucrt\corecrt_memcpy_s.h

; 47   :         if (_SourceSize == 0)

  00042	74 33		 je	 SHORT $LN11@Fork

; 48   :         {
; 49   :             return 0;
; 50   :         }
; 51   : 
; 52   :         _CRT_MEMCPY_S_VALIDATE_RETURN_ERRCODE(_Destination != NULL, EINVAL);

  00044	85 ff		 test	 edi, edi
  00046	74 1f		 je	 SHORT $LN23@Fork

; 53   :         if (_Source == NULL || _DestinationSize < _SourceSize)

  00048	8b 45 fc	 mov	 eax, DWORD PTR __Source$1$[ebp]
  0004b	56		 push	 esi
  0004c	85 c0		 test	 eax, eax
  0004e	74 0c		 je	 SHORT $LN10@Fork

; 56   : 
; 57   :             _CRT_MEMCPY_S_VALIDATE_RETURN_ERRCODE(_Source != NULL,                 EINVAL);
; 58   :             _CRT_MEMCPY_S_VALIDATE_RETURN_ERRCODE(_DestinationSize >= _SourceSize, ERANGE);
; 59   : 
; 60   :             // Unreachable, but required to suppress /analyze warnings:
; 61   :             return EINVAL;
; 62   :         }
; 63   :         memcpy(_Destination, _Source, _SourceSize);

  00050	50		 push	 eax
  00051	57		 push	 edi
  00052	e8 00 00 00 00	 call	 _memcpy
  00057	83 c4 0c	 add	 esp, 12			; 0000000cH
  0005a	eb 1b		 jmp	 SHORT $LN11@Fork
$LN10@Fork:

; 54   :         {
; 55   :             memset(_Destination, 0, _DestinationSize);

  0005c	6a 00		 push	 0
  0005e	57		 push	 edi
  0005f	e8 00 00 00 00	 call	 _memset
  00064	83 c4 0c	 add	 esp, 12			; 0000000cH
$LN23@Fork:
; File C:\Program Files\Microsoft Visual Studio\2022\Professional\VC\Tools\MSVC\14.44.35207\atlmfc\include\atlsimpstr.h

; 798  : 		pNewData->nDataLength = nOldLength;

  00067	e8 00 00 00 00	 call	 __errno
  0006c	c7 00 16 00 00
	00		 mov	 DWORD PTR [eax], 22	; 00000016H
  00072	e8 00 00 00 00	 call	 __invalid_parameter_noinfo
$LN11@Fork:
  00077	8b 4d 08	 mov	 ecx, DWORD PTR _pNewData$1$[ebp]
  0007a	8b 45 f8	 mov	 eax, DWORD PTR _nOldLength$1$[ebp]
  0007d	89 41 04	 mov	 DWORD PTR [ecx+4], eax

; 92   : 		if( _InterlockedDecrement( &nRefs ) <= 0 )

  00080	83 c8 ff	 or	 eax, -1
  00083	f0 0f c1 43 0c	 lock	  xadd	 DWORD PTR [ebx+12], eax
  00088	48		 dec	 eax
  00089	85 c0		 test	 eax, eax
  0008b	7f 08		 jg	 SHORT $LN15@Fork

; 93   : 		{
; 94   : 			pStringMgr->Free( this );

  0008d	8b 0b		 mov	 ecx, DWORD PTR [ebx]
  0008f	53		 push	 ebx
  00090	8b 01		 mov	 eax, DWORD PTR [ecx]
  00092	ff 50 04	 call	 DWORD PTR [eax+4]
$LN15@Fork:

; 799  : 		pOldData->Release();
; 800  : 		Attach( pNewData );

  00095	8b 45 f4	 mov	 eax, DWORD PTR _this$1$[ebp]
  00098	89 38		 mov	 DWORD PTR [eax], edi

; 801  : 	}

  0009a	5f		 pop	 edi
  0009b	5e		 pop	 esi
  0009c	5b		 pop	 ebx
  0009d	8b e5		 mov	 esp, ebp
  0009f	5d		 pop	 ebp
  000a0	c2 04 00	 ret	 4
$LN25@Fork:

; 792  : 		{
; 793  : 			ThrowMemoryException();

  000a3	e8 00 00 00 00	 call	 ?ThrowMemoryException@?$CSimpleStringT@D$0A@@ATL@@KAXXZ ; ATL::CSimpleStringT<char,0>::ThrowMemoryException
$LN22@Fork:
  000a8	cc		 int	 3
?Fork@?$CSimpleStringT@D$0A@@ATL@@AAEXH@Z ENDP		; ATL::CSimpleStringT<char,0>::Fork
_TEXT	ENDS
; Function compile flags: /Ogtp
; File C:\Program Files\Microsoft Visual Studio\2022\Professional\VC\Tools\MSVC\14.44.35207\atlmfc\include\atlsimpstr.h
;	COMDAT ?ThrowMemoryException@?$CSimpleStringT@D$0A@@ATL@@KAXXZ
_TEXT	SEGMENT
?ThrowMemoryException@?$CSimpleStringT@D$0A@@ATL@@KAXXZ PROC ; ATL::CSimpleStringT<char,0>::ThrowMemoryException, COMDAT

; 777  : 		AtlThrow( E_OUTOFMEMORY );

  00000	68 0e 00 07 80	 push	 -2147024882		; 8007000eH
  00005	e8 00 00 00 00	 call	 ?AtlThrowImpl@ATL@@YGXJ@Z ; ATL::AtlThrowImpl
$LN3@ThrowMemor:
  0000a	cc		 int	 3
?ThrowMemoryException@?$CSimpleStringT@D$0A@@ATL@@KAXXZ ENDP ; ATL::CSimpleStringT<char,0>::ThrowMemoryException
_TEXT	ENDS
; Function compile flags: /Ogtp
; File C:\Program Files\Microsoft Visual Studio\2022\Professional\VC\Tools\MSVC\14.44.35207\atlmfc\include\atlsimpstr.h
; File C:\Program Files (x86)\Windows Kits\10\Include\10.0.26100.0\ucrt\corecrt_memcpy_s.h
; File C:\Program Files\Microsoft Visual Studio\2022\Professional\VC\Tools\MSVC\14.44.35207\atlmfc\include\atlsimpstr.h
; File C:\Program Files (x86)\Windows Kits\10\Include\10.0.26100.0\ucrt\corecrt_memcpy_s.h
; File C:\Program Files\Microsoft Visual Studio\2022\Professional\VC\Tools\MSVC\14.44.35207\atlmfc\include\atlsimpstr.h
;	COMDAT ?SetString@?$CSimpleStringT@D$0A@@ATL@@QAEXPBDH@Z
_TEXT	SEGMENT
_pszSrc$ = 8						; size = 4
_nOldLength$1$ = 8					; size = 4
_nLength$ = 12						; size = 4
_nOffset$1$ = 12					; size = 4
?SetString@?$CSimpleStringT@D$0A@@ATL@@QAEXPBDH@Z PROC	; ATL::CSimpleStringT<char,0>::SetString, COMDAT
; _this$ = ecx

; 611  : 	{

  00000	55		 push	 ebp
  00001	8b ec		 mov	 ebp, esp
  00003	56		 push	 esi

; 612  : 		if( nLength == 0 )

  00004	8b 75 0c	 mov	 esi, DWORD PTR _nLength$[ebp]
  00007	57		 push	 edi
  00008	8b f9		 mov	 edi, ecx
  0000a	85 f6		 test	 esi, esi
  0000c	75 58		 jne	 SHORT $LN2@SetString

; 804  : 		return( reinterpret_cast< CStringData* >( m_pszData )-1 );

  0000e	8b 07		 mov	 eax, DWORD PTR [edi]

; 443  : 		if( pOldData->nDataLength == 0 )

  00010	83 78 f4 00	 cmp	 DWORD PTR [eax-12], 0

; 804  : 		return( reinterpret_cast< CStringData* >( m_pszData )-1 );

  00014	8d 50 f0	 lea	 edx, DWORD PTR [eax-16]

; 442  : 		IAtlStringMgr* pStringMgr = pOldData->pStringMgr;

  00017	8b 32		 mov	 esi, DWORD PTR [edx]

; 443  : 		if( pOldData->nDataLength == 0 )

  00019	74 1f		 je	 SHORT $LN72@SetString

; 73   : 		return nRefs < 0;

  0001b	83 7a 0c 00	 cmp	 DWORD PTR [edx+12], 0
  0001f	8d 4a 0c	 lea	 ecx, DWORD PTR [edx+12]

; 448  : 		if( pOldData->IsLocked() )

  00022	7d 1c		 jge	 SHORT $LN10@SetString

; 875  : 		if( nLength < 0 || nLength > GetData()->nAllocLength)

  00024	83 78 f8 00	 cmp	 DWORD PTR [eax-8], 0
  00028	0f 8c 0b 01 00
	00		 jl	 $LN71@SetString

; 877  : 
; 878  : 		GetData()->nDataLength = nLength;

  0002e	c7 40 f4 00 00
	00 00		 mov	 DWORD PTR [eax-12], 0

; 879  : 		m_pszData[nLength] = 0;

  00035	8b 07		 mov	 eax, DWORD PTR [edi]
  00037	c6 00 00	 mov	 BYTE PTR [eax], 0
$LN72@SetString:
  0003a	5f		 pop	 edi

; 638  : 			else
; 639  : 			{
; 640  : 				memcpy_s( pszBuffer, GetAllocLength() * sizeof( XCHAR ), pszSrc, nLength * sizeof( XCHAR ));
; 641  : 			}
; 642  : 			ReleaseBufferSetLength( nLength );
; 643  : 		}
; 644  : 	}

  0003b	5e		 pop	 esi
  0003c	5d		 pop	 ebp
  0003d	c2 08 00	 ret	 8
$LN10@SetString:

; 92   : 		if( _InterlockedDecrement( &nRefs ) <= 0 )

  00040	83 c8 ff	 or	 eax, -1
  00043	f0 0f c1 01	 lock	  xadd	 DWORD PTR [ecx], eax
  00047	48		 dec	 eax
  00048	85 c0		 test	 eax, eax
  0004a	7f 08		 jg	 SHORT $LN27@SetString

; 93   : 		{
; 94   : 			pStringMgr->Free( this );

  0004c	8b 0a		 mov	 ecx, DWORD PTR [edx]
  0004e	52		 push	 edx
  0004f	8b 01		 mov	 eax, DWORD PTR [ecx]
  00051	ff 50 04	 call	 DWORD PTR [eax+4]
$LN27@SetString:

; 456  : 			CStringData* pNewData = pStringMgr->GetNilString();

  00054	8b 06		 mov	 eax, DWORD PTR [esi]
  00056	8b ce		 mov	 ecx, esi
  00058	ff 50 0c	 call	 DWORD PTR [eax+12]

; 457  : 			Attach( pNewData );

  0005b	83 c0 10	 add	 eax, 16			; 00000010H
  0005e	89 07		 mov	 DWORD PTR [edi], eax
  00060	5f		 pop	 edi

; 638  : 			else
; 639  : 			{
; 640  : 				memcpy_s( pszBuffer, GetAllocLength() * sizeof( XCHAR ), pszSrc, nLength * sizeof( XCHAR ));
; 641  : 			}
; 642  : 			ReleaseBufferSetLength( nLength );
; 643  : 		}
; 644  : 	}

  00061	5e		 pop	 esi
  00062	5d		 pop	 ebp
  00063	c2 08 00	 ret	 8
$LN2@SetString:
  00066	53		 push	 ebx

; 613  : 		{
; 614  : 			Empty();
; 615  : 		}
; 616  : 		else
; 617  : 		{
; 618  : 			// It is possible that pszSrc points to a location inside of our
; 619  : 			// buffer.  GetBuffer() might change m_pszData if (1) the buffer
; 620  : 			// is shared or (2) the buffer is too small to hold the new
; 621  : 			// string.  We detect this aliasing, and modify pszSrc to point
; 622  : 			// into the newly allocated buffer instead.
; 623  : 
; 624  : 			if(pszSrc == NULL)

  00067	8b 5d 08	 mov	 ebx, DWORD PTR _pszSrc$[ebp]
  0006a	85 db		 test	 ebx, ebx
  0006c	0f 84 c7 00 00
	00		 je	 $LN71@SetString

; 523  : 		return( GetData()->nDataLength );

  00072	8b 07		 mov	 eax, DWORD PTR [edi]

; 625  : 				AtlThrow(E_INVALIDARG);
; 626  : 
; 627  : 			UINT nOldLength = GetLength();
; 628  : 			UINT_PTR nOffset = pszSrc-GetString();

  00074	8b d3		 mov	 edx, ebx
  00076	2b d0		 sub	 edx, eax
  00078	89 55 0c	 mov	 DWORD PTR _nOffset$1$[ebp], edx
  0007b	8b 48 f4	 mov	 ecx, DWORD PTR [eax-12]
  0007e	89 4d 08	 mov	 DWORD PTR _nOldLength$1$[ebp], ecx

; 808  : 		if (nLength < 0)

  00081	85 f6		 test	 esi, esi
  00083	0f 88 b0 00 00
	00		 js	 $LN71@SetString

; 809  : 			AtlThrow(E_INVALIDARG);
; 810  : 
; 811  : 		CStringData* pOldData = GetData();
; 812  : 		int nShared = 1-pOldData->nRefs;  // nShared < 0 means true, >= 0 means false

  00089	b9 01 00 00 00	 mov	 ecx, 1
  0008e	2b 48 fc	 sub	 ecx, DWORD PTR [eax-4]

; 813  : 		int nTooShort = pOldData->nAllocLength-nLength;  // nTooShort < 0 means true, >= 0 means false

  00091	8b 40 f8	 mov	 eax, DWORD PTR [eax-8]
  00094	2b c6		 sub	 eax, esi

; 814  : 		if( (nShared|nTooShort) < 0 )  // If either sign bit is set (i.e. either is less than zero), we need to copy data

  00096	0b c8		 or	 ecx, eax
  00098	7d 0b		 jge	 SHORT $LN38@SetString

; 815  : 		{
; 816  : 			PrepareWrite2( nLength );

  0009a	56		 push	 esi
  0009b	8b cf		 mov	 ecx, edi
  0009d	e8 00 00 00 00	 call	 ?PrepareWrite2@?$CSimpleStringT@D$0A@@ATL@@AAEXH@Z ; ATL::CSimpleStringT<char,0>::PrepareWrite2
  000a2	8b 55 0c	 mov	 edx, DWORD PTR _nOffset$1$[ebp]
$LN38@SetString:

; 629  : 			// If 0 <= nOffset <= nOldLength, then pszSrc points into our
; 630  : 			// buffer
; 631  : 
; 632  : 			PXSTR pszBuffer = GetBuffer( nLength );

  000a5	8b 07		 mov	 eax, DWORD PTR [edi]
  000a7	8b 48 f8	 mov	 ecx, DWORD PTR [eax-8]

; 633  : 			if( nOffset <= nOldLength )

  000aa	3b 55 08	 cmp	 edx, DWORD PTR _nOldLength$1$[ebp]
  000ad	77 35		 ja	 SHORT $LN5@SetString

; 634  : 			{
; 635  : 				CopyCharsOverlapped( pszBuffer, GetAllocLength(),

  000af	03 d0		 add	 edx, eax
; File C:\Program Files (x86)\Windows Kits\10\Include\10.0.26100.0\ucrt\corecrt_memcpy_s.h

; 81   :         _CRT_MEMCPY_S_VALIDATE_RETURN_ERRCODE(_Destination != NULL,            EINVAL);

  000b1	85 c0		 test	 eax, eax
  000b3	75 0d		 jne	 SHORT $LN51@SetString
  000b5	e8 00 00 00 00	 call	 __errno
  000ba	c7 00 16 00 00
	00		 mov	 DWORD PTR [eax], 22	; 00000016H
  000c0	eb 5b		 jmp	 SHORT $LN97@SetString
$LN51@SetString:

; 82   :         _CRT_MEMCPY_S_VALIDATE_RETURN_ERRCODE(_Source != NULL,                 EINVAL);

  000c2	85 d2		 test	 edx, edx
  000c4	75 0d		 jne	 SHORT $LN52@SetString
  000c6	e8 00 00 00 00	 call	 __errno
  000cb	c7 00 16 00 00
	00		 mov	 DWORD PTR [eax], 22	; 00000016H
  000d1	eb 4a		 jmp	 SHORT $LN97@SetString
$LN52@SetString:

; 83   :         _CRT_MEMCPY_S_VALIDATE_RETURN_ERRCODE(_DestinationSize >= _SourceSize, ERANGE);

  000d3	3b ce		 cmp	 ecx, esi
  000d5	72 3b		 jb	 SHORT $LN98@SetString

; 84   : 
; 85   :         memmove(_Destination, _Source, _SourceSize);

  000d7	56		 push	 esi
  000d8	52		 push	 edx
  000d9	50		 push	 eax
  000da	e8 00 00 00 00	 call	 _memmove
  000df	83 c4 0c	 add	 esp, 12			; 0000000cH
; File C:\Program Files\Microsoft Visual Studio\2022\Professional\VC\Tools\MSVC\14.44.35207\atlmfc\include\atlsimpstr.h

; 637  : 			}

  000e2	eb 3e		 jmp	 SHORT $LN65@SetString
$LN5@SetString:
; File C:\Program Files (x86)\Windows Kits\10\Include\10.0.26100.0\ucrt\corecrt_memcpy_s.h

; 52   :         _CRT_MEMCPY_S_VALIDATE_RETURN_ERRCODE(_Destination != NULL, EINVAL);

  000e4	85 c0		 test	 eax, eax
  000e6	75 0d		 jne	 SHORT $LN61@SetString
  000e8	e8 00 00 00 00	 call	 __errno
  000ed	c7 00 16 00 00
	00		 mov	 DWORD PTR [eax], 22	; 00000016H
  000f3	eb 28		 jmp	 SHORT $LN97@SetString
$LN61@SetString:

; 53   :         if (_Source == NULL || _DestinationSize < _SourceSize)

  000f5	3b ce		 cmp	 ecx, esi
  000f7	72 0d		 jb	 SHORT $LN63@SetString

; 56   : 
; 57   :             _CRT_MEMCPY_S_VALIDATE_RETURN_ERRCODE(_Source != NULL,                 EINVAL);
; 58   :             _CRT_MEMCPY_S_VALIDATE_RETURN_ERRCODE(_DestinationSize >= _SourceSize, ERANGE);
; 59   : 
; 60   :             // Unreachable, but required to suppress /analyze warnings:
; 61   :             return EINVAL;
; 62   :         }
; 63   :         memcpy(_Destination, _Source, _SourceSize);

  000f9	56		 push	 esi
  000fa	53		 push	 ebx
  000fb	50		 push	 eax
  000fc	e8 00 00 00 00	 call	 _memcpy
  00101	83 c4 0c	 add	 esp, 12			; 0000000cH
  00104	eb 1c		 jmp	 SHORT $LN65@SetString
$LN63@SetString:

; 54   :         {
; 55   :             memset(_Destination, 0, _DestinationSize);

  00106	51		 push	 ecx
  00107	6a 00		 push	 0
  00109	50		 push	 eax
  0010a	e8 00 00 00 00	 call	 _memset
  0010f	83 c4 0c	 add	 esp, 12			; 0000000cH
$LN98@SetString:
; File C:\Program Files\Microsoft Visual Studio\2022\Professional\VC\Tools\MSVC\14.44.35207\atlmfc\include\atlsimpstr.h

; 875  : 		if( nLength < 0 || nLength > GetData()->nAllocLength)

  00112	e8 00 00 00 00	 call	 __errno
  00117	c7 00 22 00 00
	00		 mov	 DWORD PTR [eax], 34	; 00000022H
$LN97@SetString:
  0011d	e8 00 00 00 00	 call	 __invalid_parameter_noinfo
$LN65@SetString:
  00122	8b 07		 mov	 eax, DWORD PTR [edi]
  00124	5b		 pop	 ebx
  00125	3b 70 f8	 cmp	 esi, DWORD PTR [eax-8]
  00128	7f 0f		 jg	 SHORT $LN71@SetString

; 877  : 
; 878  : 		GetData()->nDataLength = nLength;

  0012a	89 70 f4	 mov	 DWORD PTR [eax-12], esi

; 879  : 		m_pszData[nLength] = 0;

  0012d	8b 07		 mov	 eax, DWORD PTR [edi]
  0012f	5f		 pop	 edi
  00130	c6 04 06 00	 mov	 BYTE PTR [esi+eax], 0

; 638  : 			else
; 639  : 			{
; 640  : 				memcpy_s( pszBuffer, GetAllocLength() * sizeof( XCHAR ), pszSrc, nLength * sizeof( XCHAR ));
; 641  : 			}
; 642  : 			ReleaseBufferSetLength( nLength );
; 643  : 		}
; 644  : 	}

  00134	5e		 pop	 esi
  00135	5d		 pop	 ebp
  00136	c2 08 00	 ret	 8
$LN71@SetString:

; 876  : 			AtlThrow(E_INVALIDARG);

  00139	68 57 00 07 80	 push	 -2147024809		; 80070057H
  0013e	e8 00 00 00 00	 call	 ?AtlThrowImpl@ATL@@YGXJ@Z ; ATL::AtlThrowImpl
$LN96@SetString:
  00143	cc		 int	 3
?SetString@?$CSimpleStringT@D$0A@@ATL@@QAEXPBDH@Z ENDP	; ATL::CSimpleStringT<char,0>::SetString
_TEXT	ENDS
; Function compile flags: /Ogtp
; File C:\Program Files\Microsoft Visual Studio\2022\Professional\VC\Tools\MSVC\14.44.35207\atlmfc\include\atlsimpstr.h
;	COMDAT ??1?$CSimpleStringT@D$0A@@ATL@@QAE@XZ
_TEXT	SEGMENT
??1?$CSimpleStringT@D$0A@@ATL@@QAE@XZ PROC		; ATL::CSimpleStringT<char,0>::~CSimpleStringT<char,0>, COMDAT
; _this$ = ecx

; 804  : 		return( reinterpret_cast< CStringData* >( m_pszData )-1 );

  00000	8b 11		 mov	 edx, DWORD PTR [ecx]

; 92   : 		if( _InterlockedDecrement( &nRefs ) <= 0 )

  00002	83 c8 ff	 or	 eax, -1

; 804  : 		return( reinterpret_cast< CStringData* >( m_pszData )-1 );

  00005	83 ea 10	 sub	 edx, 16			; 00000010H

; 92   : 		if( _InterlockedDecrement( &nRefs ) <= 0 )

  00008	f0 0f c1 42 0c	 lock	  xadd	 DWORD PTR [edx+12], eax
  0000d	48		 dec	 eax
  0000e	85 c0		 test	 eax, eax
  00010	7f 08		 jg	 SHORT $LN6@CSimpleStr

; 93   : 		{
; 94   : 			pStringMgr->Free( this );

  00012	8b 0a		 mov	 ecx, DWORD PTR [edx]
  00014	52		 push	 edx
  00015	8b 01		 mov	 eax, DWORD PTR [ecx]
  00017	ff 50 04	 call	 DWORD PTR [eax+4]
$LN6@CSimpleStr:

; 265  : 		CStringData* pData = GetData();
; 266  : 		pData->Release();
; 267  : 	}

  0001a	c3		 ret	 0
??1?$CSimpleStringT@D$0A@@ATL@@QAE@XZ ENDP		; ATL::CSimpleStringT<char,0>::~CSimpleStringT<char,0>
_TEXT	ENDS
; Function compile flags: /Ogtp
; File C:\Program Files\Microsoft Visual Studio\2022\Professional\VC\Tools\MSVC\14.44.35207\atlmfc\include\atlexcept.h
;	COMDAT ?AtlThrowImpl@ATL@@YGXJ@Z
_TEXT	SEGMENT
_hr$ = 8						; size = 4
?AtlThrowImpl@ATL@@YGXJ@Z PROC				; ATL::AtlThrowImpl, COMDAT

; 69   : {

  00000	55		 push	 ebp
  00001	8b ec		 mov	 ebp, esp

; 70   : 	ATLTRACE(atlTraceException, 0, _T("AtlThrow: hr = 0x%x\n"), hr );
; 71   : #ifdef _AFX
; 72   : 	if( hr == E_OUTOFMEMORY )

  00003	8b 45 08	 mov	 eax, DWORD PTR _hr$[ebp]
  00006	3d 0e 00 07 80	 cmp	 eax, -2147024882	; 8007000eH
  0000b	75 05		 jne	 SHORT $LN2@AtlThrowIm

; 73   : 	{
; 74   : 		AfxThrowMemoryException();

  0000d	e8 00 00 00 00	 call	 ?AfxThrowMemoryException@@YGXXZ ; AfxThrowMemoryException
$LN2@AtlThrowIm:

; 75   : 	}
; 76   : 	else
; 77   : 	{
; 78   : 		AfxThrowOleException( hr );

  00012	50		 push	 eax
  00013	e8 00 00 00 00	 call	 ?AfxThrowOleException@@YGXJ@Z ; AfxThrowOleException
$LN5@AtlThrowIm:
  00018	cc		 int	 3
?AtlThrowImpl@ATL@@YGXJ@Z ENDP				; ATL::AtlThrowImpl
_TEXT	ENDS
; Function compile flags: /Ogtp
; File C:\Program Files\Microsoft Visual Studio\2022\Professional\VC\Tools\MSVC\14.44.35207\atlmfc\include\afx.h
;	COMDAT ?AfxCrtErrorCheck@@YAHH@Z
_TEXT	SEGMENT
_error$ = 8						; size = 4
?AfxCrtErrorCheck@@YAHH@Z PROC				; AfxCrtErrorCheck, COMDAT

; 510  : {

  00000	55		 push	 ebp
  00001	8b ec		 mov	 ebp, esp

; 511  : 	switch(error)

  00003	8b 4d 08	 mov	 ecx, DWORD PTR _error$[ebp]
  00006	83 f9 50	 cmp	 ecx, 80			; 00000050H
  00009	77 17		 ja	 SHORT $LN9@AfxCrtErro
  0000b	0f b6 81 00 00
	00 00		 movzx	 eax, BYTE PTR $LN11@AfxCrtErro[ecx]
  00012	ff 24 85 00 00
	00 00		 jmp	 DWORD PTR $LN12@AfxCrtErro[eax*4]
$LN4@AfxCrtErro:

; 512  : 	{
; 513  : 	case ENOMEM:
; 514  : 		AfxThrowMemoryException();

  00019	e9 00 00 00 00	 jmp	 ?AfxThrowMemoryException@@YGXXZ ; AfxThrowMemoryException
$LN7@AfxCrtErro:

; 525  : 		break;
; 526  : 	}
; 527  : 	return error;

  0001e	8b c1		 mov	 eax, ecx

; 528  : }

  00020	5d		 pop	 ebp
  00021	c3		 ret	 0
$LN9@AfxCrtErro:

; 515  : 		break;
; 516  : 	case EINVAL:
; 517  : 	case ERANGE:
; 518  : 		AfxThrowInvalidArgException();
; 519  : 		break;
; 520  : 	case STRUNCATE:
; 521  : 	case 0:
; 522  : 		break;
; 523  : 	default:
; 524  : 		AfxThrowInvalidArgException();

  00022	e9 00 00 00 00	 jmp	 ?AfxThrowInvalidArgException@@YGXXZ ; AfxThrowInvalidArgException
  00027	90		 npad	 1
$LN12@AfxCrtErro:

; 528  : }

  00028	00 00 00 00	 DD	 $LN7@AfxCrtErro
  0002c	00 00 00 00	 DD	 $LN4@AfxCrtErro
  00030	00 00 00 00	 DD	 $LN9@AfxCrtErro
  00034	00 00 00 00	 DD	 $LN9@AfxCrtErro
$LN11@AfxCrtErro:
  00038	00		 DB	 0
  00039	03		 DB	 3
  0003a	03		 DB	 3
  0003b	03		 DB	 3
  0003c	03		 DB	 3
  0003d	03		 DB	 3
  0003e	03		 DB	 3
  0003f	03		 DB	 3
  00040	03		 DB	 3
  00041	03		 DB	 3
  00042	03		 DB	 3
  00043	03		 DB	 3
  00044	01		 DB	 1
  00045	03		 DB	 3
  00046	03		 DB	 3
  00047	03		 DB	 3
  00048	03		 DB	 3
  00049	03		 DB	 3
  0004a	03		 DB	 3
  0004b	03		 DB	 3
  0004c	03		 DB	 3
  0004d	03		 DB	 3
  0004e	02		 DB	 2
  0004f	03		 DB	 3
  00050	03		 DB	 3
  00051	03		 DB	 3
  00052	03		 DB	 3
  00053	03		 DB	 3
  00054	03		 DB	 3
  00055	03		 DB	 3
  00056	03		 DB	 3
  00057	03		 DB	 3
  00058	03		 DB	 3
  00059	03		 DB	 3
  0005a	02		 DB	 2
  0005b	03		 DB	 3
  0005c	03		 DB	 3
  0005d	03		 DB	 3
  0005e	03		 DB	 3
  0005f	03		 DB	 3
  00060	03		 DB	 3
  00061	03		 DB	 3
  00062	03		 DB	 3
  00063	03		 DB	 3
  00064	03		 DB	 3
  00065	03		 DB	 3
  00066	03		 DB	 3
  00067	03		 DB	 3
  00068	03		 DB	 3
  00069	03		 DB	 3
  0006a	03		 DB	 3
  0006b	03		 DB	 3
  0006c	03		 DB	 3
  0006d	03		 DB	 3
  0006e	03		 DB	 3
  0006f	03		 DB	 3
  00070	03		 DB	 3
  00071	03		 DB	 3
  00072	03		 DB	 3
  00073	03		 DB	 3
  00074	03		 DB	 3
  00075	03		 DB	 3
  00076	03		 DB	 3
  00077	03		 DB	 3
  00078	03		 DB	 3
  00079	03		 DB	 3
  0007a	03		 DB	 3
  0007b	03		 DB	 3
  0007c	03		 DB	 3
  0007d	03		 DB	 3
  0007e	03		 DB	 3
  0007f	03		 DB	 3
  00080	03		 DB	 3
  00081	03		 DB	 3
  00082	03		 DB	 3
  00083	03		 DB	 3
  00084	03		 DB	 3
  00085	03		 DB	 3
  00086	03		 DB	 3
  00087	03		 DB	 3
  00088	00		 DB	 0
?AfxCrtErrorCheck@@YAHH@Z ENDP				; AfxCrtErrorCheck
_TEXT	ENDS
; Function compile flags: /Ogtp
; File C:\Program Files (x86)\Windows Kits\10\Include\10.0.26100.0\ucrt\stdio.h
;	COMDAT _sprintf
_TEXT	SEGMENT
__Buffer$ = 8						; size = 4
__Format$ = 12						; size = 4
_sprintf PROC						; COMDAT

; 1771 :     {

  00000	55		 push	 ebp
  00001	8b ec		 mov	 ebp, esp

; 1392 :         int const _Result = __stdio_common_vsprintf(

  00003	8d 45 10	 lea	 eax, DWORD PTR __Format$[ebp+4]
  00006	50		 push	 eax
  00007	6a 00		 push	 0
  00009	ff 75 0c	 push	 DWORD PTR __Format$[ebp]
  0000c	6a ff		 push	 -1
  0000e	ff 75 08	 push	 DWORD PTR __Buffer$[ebp]
  00011	e8 00 00 00 00	 call	 ___local_stdio_printf_options
  00016	8b 08		 mov	 ecx, DWORD PTR [eax]
  00018	ff 70 04	 push	 DWORD PTR [eax+4]
  0001b	83 c9 01	 or	 ecx, 1
  0001e	51		 push	 ecx
  0001f	e8 00 00 00 00	 call	 ___stdio_common_vsprintf

; 1393 :             _CRT_INTERNAL_LOCAL_PRINTF_OPTIONS | _CRT_INTERNAL_PRINTF_LEGACY_VSPRINTF_NULL_TERMINATION,
; 1394 :             _Buffer, _BufferCount, _Format, _Locale, _ArgList);
; 1395 : 
; 1396 :         return _Result < 0 ? -1 : _Result;

  00024	83 c9 ff	 or	 ecx, -1
  00027	83 c4 1c	 add	 esp, 28			; 0000001cH
  0002a	85 c0		 test	 eax, eax
  0002c	0f 48 c1	 cmovs	 eax, ecx

; 1772 :         int _Result;
; 1773 :         va_list _ArgList;
; 1774 :         __crt_va_start(_ArgList, _Format);
; 1775 : 
; 1776 :         _Result = _vsprintf_l(_Buffer, _Format, NULL, _ArgList);
; 1777 : 
; 1778 :         __crt_va_end(_ArgList);
; 1779 :         return _Result;
; 1780 :     }

  0002f	5d		 pop	 ebp
  00030	c3		 ret	 0
_sprintf ENDP
_TEXT	ENDS
; Function compile flags: /Ogtp
; File C:\Program Files (x86)\Windows Kits\10\Include\10.0.26100.0\ucrt\corecrt_stdio_config.h
;	COMDAT ___local_stdio_printf_options
_TEXT	SEGMENT
___local_stdio_printf_options PROC			; COMDAT

; 91   :         static unsigned __int64 _OptionsStorage;
; 92   :         return &_OptionsStorage;

  00000	b8 00 00 00 00	 mov	 eax, OFFSET ?_OptionsStorage@?1??__local_stdio_printf_options@@9@4_KA ; `__local_stdio_printf_options'::`2'::_OptionsStorage

; 93   :     }

  00005	c3		 ret	 0
___local_stdio_printf_options ENDP
_TEXT	ENDS
; Function compile flags: /Ogtp
; File C:\IAGOS\server\v18\Source\Source\_Common\worldfile.cpp
;	COMDAT ?__empty_global_delete@@YAXPAXI@Z
_TEXT	SEGMENT
___formal$ = 8						; size = 4
___formal$ = 12						; size = 4
?__empty_global_delete@@YAXPAXI@Z PROC			; __empty_global_delete, COMDAT

  00000	c2 00 00	 ret	 0
?__empty_global_delete@@YAXPAXI@Z ENDP			; __empty_global_delete
_TEXT	ENDS
; Function compile flags: /Ogtp
; File C:\IAGOS\server\v18\Source\Source\_Common\worldfile.cpp
;	COMDAT ?__empty_global_delete@@YAXPAX@Z
_TEXT	SEGMENT
___formal$ = 8						; size = 4
?__empty_global_delete@@YAXPAX@Z PROC			; __empty_global_delete, COMDAT

  00000	c2 00 00	 ret	 0
?__empty_global_delete@@YAXPAX@Z ENDP			; __empty_global_delete
_TEXT	ENDS
END
