; Listing generated by Microsoft (R) Optimizing Compiler Version 19.44.35225.0 

	TITLE	C:\IAGOS\server\v18\Source\Output\WorldServer\Release\WScript.obj
	.686P
	.XMM
	include listing.inc
	.model	flat

INCLUDELIB LIBCMT
INCLUDELIB OLDNAMES

PUBLIC	?__empty_global_delete@@YAXPAX@Z		; __empty_global_delete
PUBLIC	?__empty_global_delete@@YAXPAXI@Z		; __empty_global_delete
PUBLIC	?GetVM@@YAPAUlua_State@@XZ			; GetVM
PUBLIC	?InitializeScriptLib@@YAHXZ			; InitializeScriptLib
PUBLIC	?UninitializeScriptLib@@YAXXZ			; UninitializeScriptLib
_BSS	SEGMENT
?g_VM@@3PAUlua_State@@A DD 01H DUP (?)			; g_VM
_BSS	ENDS
; Function compile flags: /Ogtp
; File C:\IAGOS\server\v18\Source\Source\WorldServer\WScript.cpp
;	COMDAT ?UninitializeScriptLib@@YAXXZ
_TEXT	SEGMENT
?UninitializeScriptLib@@YAXXZ PROC			; UninitializeScriptLib, COMDAT

; 26   : #if !defined(__LUASCRIPT060908)
; 27   : 	return;
; 28   : #else
; 29   : 	if( g_VM )
; 30   : 		lua_close(g_VM);
; 31   : #endif
; 32   : }

  00000	c2 00 00	 ret	 0
?UninitializeScriptLib@@YAXXZ ENDP			; UninitializeScriptLib
_TEXT	ENDS
; Function compile flags: /Ogtp
; File C:\IAGOS\server\v18\Source\Source\WorldServer\WScript.cpp
;	COMDAT ?InitializeScriptLib@@YAHXZ
_TEXT	SEGMENT
?InitializeScriptLib@@YAHXZ PROC			; InitializeScriptLib, COMDAT

; 14   : #if !defined(__LUASCRIPT060908)
; 15   : 	return TRUE;

  00000	b8 01 00 00 00	 mov	 eax, 1

; 16   : #else
; 17   : 	g_VM = lua_open();
; 18   : 	luaL_openlibs(g_VM);
; 19   : 
; 20   : 	return TRUE;
; 21   : #endif
; 22   : }

  00005	c3		 ret	 0
?InitializeScriptLib@@YAHXZ ENDP			; InitializeScriptLib
_TEXT	ENDS
; Function compile flags: /Ogtp
; File C:\IAGOS\server\v18\Source\Source\WorldServer\WScript.cpp
;	COMDAT ?GetVM@@YAPAUlua_State@@XZ
_TEXT	SEGMENT
?GetVM@@YAPAUlua_State@@XZ PROC				; GetVM, COMDAT

; 9    : 	return g_VM;

  00000	a1 00 00 00 00	 mov	 eax, DWORD PTR ?g_VM@@3PAUlua_State@@A

; 10   : }

  00005	c3		 ret	 0
?GetVM@@YAPAUlua_State@@XZ ENDP				; GetVM
_TEXT	ENDS
; Function compile flags: /Ogtp
; File C:\IAGOS\server\v18\Source\Source\WorldServer\WScript.cpp
;	COMDAT ?__empty_global_delete@@YAXPAXI@Z
_TEXT	SEGMENT
___formal$ = 8						; size = 4
___formal$ = 12						; size = 4
?__empty_global_delete@@YAXPAXI@Z PROC			; __empty_global_delete, COMDAT

  00000	c2 00 00	 ret	 0
?__empty_global_delete@@YAXPAXI@Z ENDP			; __empty_global_delete
_TEXT	ENDS
; Function compile flags: /Ogtp
; File C:\IAGOS\server\v18\Source\Source\WorldServer\WScript.cpp
;	COMDAT ?__empty_global_delete@@YAXPAX@Z
_TEXT	SEGMENT
___formal$ = 8						; size = 4
?__empty_global_delete@@YAXPAX@Z PROC			; __empty_global_delete, COMDAT

  00000	c2 00 00	 ret	 0
?__empty_global_delete@@YAXPAX@Z ENDP			; __empty_global_delete
_TEXT	ENDS
END
