; Listing generated by Microsoft (R) Optimizing Compiler Version 19.44.35225.0 

	TITLE	C:\IAGOS\server\v18\Source\Output\WorldServer\Release\xUtil.obj
	.686P
	.XMM
	include listing.inc
	.model	flat

INCLUDELIB LIBCMT
INCLUDELIB OLDNAMES

PUBLIC	?g_szWorkDir@@3PADA				; g_szWorkDir
PUBLIC	?g_szExeDir@@3PADA				; g_szExeDir
PUBLIC	?g_llFreq@@3T_LARGE_INTEGER@@A			; g_llFreq
PUBLIC	?g_nMaxTri@@3HA					; g_nMaxTri
PUBLIC	?g_next@@3KA					; g_next
PUBLIC	?g_osVersion@@3W4OSTYPE@@A			; g_osVersion
_BSS	SEGMENT
?g_szWorkDir@@3PADA DB 0100H DUP (?)			; g_szWorkDir
?g_szExeDir@@3PADA DB 0100H DUP (?)			; g_szExeDir
?g_llFreq@@3T_LARGE_INTEGER@@A DQ 01H DUP (?)		; g_llFreq
?g_nMaxTri@@3HA DD 01H DUP (?)				; g_nMaxTri
?g_next@@3KA DD	01H DUP (?)				; g_next
?g_osVersion@@3W4OSTYPE@@A DD 01H DUP (?)		; g_osVersion
_BSS	ENDS
PUBLIC	?__empty_global_delete@@YAXPAX@Z		; __empty_global_delete
PUBLIC	?__empty_global_delete@@YAXPAXI@Z		; __empty_global_delete
PUBLIC	___local_stdio_printf_options
PUBLIC	__vsnprintf
PUBLIC	_sprintf
PUBLIC	?AtlThrowImpl@ATL@@YGXJ@Z			; ATL::AtlThrowImpl
PUBLIC	?ThrowMemoryException@?$CSimpleStringT@D$0A@@ATL@@KAXXZ ; ATL::CSimpleStringT<char,0>::ThrowMemoryException
PUBLIC	?Fork@?$CSimpleStringT@D$0A@@ATL@@AAEXH@Z	; ATL::CSimpleStringT<char,0>::Fork
PUBLIC	?PrepareWrite2@?$CSimpleStringT@D$0A@@ATL@@AAEXH@Z ; ATL::CSimpleStringT<char,0>::PrepareWrite2
PUBLIC	?Reallocate@?$CSimpleStringT@D$0A@@ATL@@AAEXH@Z	; ATL::CSimpleStringT<char,0>::Reallocate
PUBLIC	??1?$CStringT@DV?$StrTraitMFC@DV?$ChTraitsCRT@D@ATL@@@@@ATL@@QAE@XZ ; ATL::CStringT<char,StrTraitMFC<char,ATL::ChTraitsCRT<char> > >::~CStringT<char,StrTraitMFC<char,ATL::ChTraitsCRT<char> > >
PUBLIC	?xRandom@@YAKKK@Z				; xRandom
PUBLIC	?xRandomF@@YAMM@Z				; xRandomF
PUBLIC	?xSRand@@YAXK@Z					; xSRand
PUBLIC	?GetFileName@@YAXPBDPAD@Z			; GetFileName
PUBLIC	?GetFileTitle@@YAXPBDPAD@Z			; GetFileTitle
PUBLIC	?GetFileExt@@YAXPBDPAD@Z			; GetFileExt
PUBLIC	?GetFilePath@@YAXPBDPAD@Z			; GetFilePath
PUBLIC	?Error@@YAPBDPBDZZ				; Error
PUBLIC	?GetNumberFormatEx@@YA?AV?$CStringT@DV?$StrTraitMFC@DV?$ChTraitsCRT@D@ATL@@@@@ATL@@PBD@Z ; GetNumberFormatEx
PUBLIC	?MakeEven@@YAXAAJ@Z				; MakeEven
PUBLIC	?StringFind@@YAHPBDH@Z				; StringFind
PUBLIC	?StringTrimRight@@YAXPAD@Z			; StringTrimRight
PUBLIC	?SetLanguageInfo@@YAXHH@Z			; SetLanguageInfo
PUBLIC	?GetLanguage@@YAHXZ				; GetLanguage
PUBLIC	?GetSubLanguage@@YAHXZ				; GetSubLanguage
PUBLIC	?SetUse2ndPassWord@@YAXH@Z			; SetUse2ndPassWord
PUBLIC	?IsUse2ndPassWord@@YAHXZ			; IsUse2ndPassWord
PUBLIC	?_OptionsStorage@?1??__local_stdio_printf_options@@9@4_KA ; `__local_stdio_printf_options'::`2'::_OptionsStorage
PUBLIC	??_C@_00CNPNBAHC@@				; `string'
PUBLIC	??_C@_0CC@DAGMFPKN@?$CFd?1?$CF2d?1?$CF2d?5?5?5?$CF02d?3?$CF02d?3?$CF02d?5?5?5?$CF@ ; `string'
PUBLIC	??_C@_0N@INFALIMF@?4?4?2error?4txt@		; `string'
PUBLIC	__real@46fffe00
EXTRN	__invalid_parameter_noinfo:PROC
EXTRN	__errno:PROC
EXTRN	_strchr:PROC
EXTRN	_strncpy:PROC
EXTRN	__imp__GetLocalTime@4:PROC
EXTRN	__imp__lstrcpyA@8:PROC
EXTRN	__imp__lstrlenA@4:PROC
EXTRN	__mbsinc:PROC
EXTRN	__ismbcspace:PROC
EXTRN	___stdio_common_vsprintf:PROC
EXTRN	_rand:PROC
EXTRN	?AfxThrowMemoryException@@YGXXZ:PROC		; AfxThrowMemoryException
EXTRN	?AfxThrowInvalidArgException@@YGXXZ:PROC	; AfxThrowInvalidArgException
EXTRN	?AfxThrowOleException@@YGXJ@Z:PROC		; AfxThrowOleException
EXTRN	?AfxGetStringManager@@YGPAUIAtlStringMgr@ATL@@XZ:PROC ; AfxGetStringManager
EXTRN	?DEBUGOUT2@@YAXPBD0@Z:PROC			; DEBUGOUT2
EXTRN	@__security_check_cookie@4:PROC
EXTRN	___CxxFrameHandler3:PROC
EXTRN	__chkstk:PROC
EXTRN	_memcpy:PROC
EXTRN	_memmove:PROC
EXTRN	_memset:PROC
EXTRN	___security_cookie:DWORD
EXTRN	__fltused:DWORD
;	COMDAT ?_OptionsStorage@?1??__local_stdio_printf_options@@9@4_KA
_BSS	SEGMENT
?_OptionsStorage@?1??__local_stdio_printf_options@@9@4_KA DQ 01H DUP (?) ; `__local_stdio_printf_options'::`2'::_OptionsStorage
_BSS	ENDS
_BSS	SEGMENT
?g_nSubLanguage@@3HA DD 01H DUP (?)			; g_nSubLanguage
?g_b2ndPassWord@@3HA DD 01H DUP (?)			; g_b2ndPassWord
_BSS	ENDS
;	COMDAT __real@46fffe00
CONST	SEGMENT
__real@46fffe00 DD 046fffe00r			; 32767
CONST	ENDS
;	COMDAT ??_C@_0N@INFALIMF@?4?4?2error?4txt@
CONST	SEGMENT
??_C@_0N@INFALIMF@?4?4?2error?4txt@ DB '..\error.txt', 00H ; `string'
CONST	ENDS
;	COMDAT ??_C@_0CC@DAGMFPKN@?$CFd?1?$CF2d?1?$CF2d?5?5?5?$CF02d?3?$CF02d?3?$CF02d?5?5?5?$CF@
CONST	SEGMENT
??_C@_0CC@DAGMFPKN@?$CFd?1?$CF2d?1?$CF2d?5?5?5?$CF02d?3?$CF02d?3?$CF02d?5?5?5?$CF@ DB '%'
	DB	'd/%2d/%2d   %02d:%02d:%02d   %s', 0aH, 00H	; `string'
CONST	ENDS
_DATA	SEGMENT
?g_nLanguage@@3HA DD 0ffffffffH				; g_nLanguage
_DATA	ENDS
;	COMDAT ??_C@_00CNPNBAHC@@
CONST	SEGMENT
??_C@_00CNPNBAHC@@ DB 00H				; `string'
CONST	ENDS
;	COMDAT xdata$x
xdata$x	SEGMENT
__unwindtable$?GetNumberFormatEx@@YA?AV?$CStringT@DV?$StrTraitMFC@DV?$ChTraitsCRT@D@ATL@@@@@ATL@@PBD@Z DD 0ffffffffH
	DD	FLAT:__unwindfunclet$?GetNumberFormatEx@@YA?AV?$CStringT@DV?$StrTraitMFC@DV?$ChTraitsCRT@D@ATL@@@@@ATL@@PBD@Z$0
__ehfuncinfo$?GetNumberFormatEx@@YA?AV?$CStringT@DV?$StrTraitMFC@DV?$ChTraitsCRT@D@ATL@@@@@ATL@@PBD@Z DD 019930522H
	DD	01H
	DD	FLAT:__unwindtable$?GetNumberFormatEx@@YA?AV?$CStringT@DV?$StrTraitMFC@DV?$ChTraitsCRT@D@ATL@@@@@ATL@@PBD@Z
	DD	2 DUP(00H)
	DD	2 DUP(00H)
	DD	00H
	DD	01H
xdata$x	ENDS
; Function compile flags: /Ogtp
; File C:\IAGOS\server\v18\Source\Source\_Common\xUtil.cpp
;	COMDAT ?IsUse2ndPassWord@@YAHXZ
_TEXT	SEGMENT
?IsUse2ndPassWord@@YAHXZ PROC				; IsUse2ndPassWord, COMDAT

; 445  : 	return g_b2ndPassWord;

  00000	a1 00 00 00 00	 mov	 eax, DWORD PTR ?g_b2ndPassWord@@3HA

; 446  : }

  00005	c3		 ret	 0
?IsUse2ndPassWord@@YAHXZ ENDP				; IsUse2ndPassWord
_TEXT	ENDS
; Function compile flags: /Ogtp
; File C:\IAGOS\server\v18\Source\Source\_Common\xUtil.cpp
;	COMDAT ?SetUse2ndPassWord@@YAXH@Z
_TEXT	SEGMENT
_bUse$ = 8						; size = 4
?SetUse2ndPassWord@@YAXH@Z PROC				; SetUse2ndPassWord, COMDAT

; 439  : {

  00000	55		 push	 ebp
  00001	8b ec		 mov	 ebp, esp

; 440  : 	g_b2ndPassWord = bUse;

  00003	8b 45 08	 mov	 eax, DWORD PTR _bUse$[ebp]
  00006	a3 00 00 00 00	 mov	 DWORD PTR ?g_b2ndPassWord@@3HA, eax

; 441  : }

  0000b	5d		 pop	 ebp
  0000c	c3		 ret	 0
?SetUse2ndPassWord@@YAXH@Z ENDP				; SetUse2ndPassWord
_TEXT	ENDS
; Function compile flags: /Ogtp
; File C:\IAGOS\server\v18\Source\Source\_Common\xUtil.cpp
;	COMDAT ?GetSubLanguage@@YAHXZ
_TEXT	SEGMENT
?GetSubLanguage@@YAHXZ PROC				; GetSubLanguage, COMDAT

; 434  : 	return g_nSubLanguage;

  00000	a1 00 00 00 00	 mov	 eax, DWORD PTR ?g_nSubLanguage@@3HA

; 435  : }

  00005	c3		 ret	 0
?GetSubLanguage@@YAHXZ ENDP				; GetSubLanguage
_TEXT	ENDS
; Function compile flags: /Ogtp
; File C:\IAGOS\server\v18\Source\Source\_Common\xUtil.cpp
;	COMDAT ?GetLanguage@@YAHXZ
_TEXT	SEGMENT
?GetLanguage@@YAHXZ PROC				; GetLanguage, COMDAT

; 428  : 	ASSERT( g_nLanguage >= 0 );
; 429  : 	return g_nLanguage;

  00000	a1 00 00 00 00	 mov	 eax, DWORD PTR ?g_nLanguage@@3HA

; 430  : }

  00005	c3		 ret	 0
?GetLanguage@@YAHXZ ENDP				; GetLanguage
_TEXT	ENDS
; Function compile flags: /Ogtp
; File C:\IAGOS\server\v18\Source\Source\_Common\xUtil.cpp
;	COMDAT ?SetLanguageInfo@@YAXHH@Z
_TEXT	SEGMENT
_nLanguage$ = 8						; size = 4
_nSubLanguage$ = 12					; size = 4
?SetLanguageInfo@@YAXHH@Z PROC				; SetLanguageInfo, COMDAT

; 421  : {

  00000	55		 push	 ebp
  00001	8b ec		 mov	 ebp, esp

; 422  : 	g_nLanguage = nLanguage;

  00003	8b 45 08	 mov	 eax, DWORD PTR _nLanguage$[ebp]
  00006	a3 00 00 00 00	 mov	 DWORD PTR ?g_nLanguage@@3HA, eax

; 423  : 	g_nSubLanguage = nSubLanguage;

  0000b	8b 45 0c	 mov	 eax, DWORD PTR _nSubLanguage$[ebp]
  0000e	a3 00 00 00 00	 mov	 DWORD PTR ?g_nSubLanguage@@3HA, eax

; 424  : }

  00013	5d		 pop	 ebp
  00014	c3		 ret	 0
?SetLanguageInfo@@YAXHH@Z ENDP				; SetLanguageInfo
_TEXT	ENDS
; Function compile flags: /Ogtp
; File C:\IAGOS\server\v18\Source\Source\_Common\xUtil.cpp
; File C:\Program Files (x86)\Windows Kits\10\Include\10.0.26100.0\ucrt\tchar.h
; File C:\IAGOS\server\v18\Source\Source\_Common\xUtil.cpp
; File C:\Program Files (x86)\Windows Kits\10\Include\10.0.26100.0\ucrt\tchar.h
; File C:\IAGOS\server\v18\Source\Source\_Common\xUtil.cpp
;	COMDAT ?StringTrimRight@@YAXPAD@Z
_TEXT	SEGMENT
_szString$ = 8						; size = 4
?StringTrimRight@@YAXPAD@Z PROC				; StringTrimRight, COMDAT

; 372  : {

  00000	55		 push	 ebp
  00001	8b ec		 mov	 ebp, esp
  00003	56		 push	 esi
  00004	57		 push	 edi

; 373  : 	// find beginning of trailing spaces by starting at beginning (DBCS aware)
; 374  : 	LPTSTR lpsz = szString;

  00005	8b 7d 08	 mov	 edi, DWORD PTR _szString$[ebp]

; 375  : 	LPTSTR lpszLast = NULL;

  00008	33 f6		 xor	 esi, esi

; 377  : 	while (*lpsz != '\0')

  0000a	8a 07		 mov	 al, BYTE PTR [edi]
  0000c	84 c0		 test	 al, al
  0000e	74 34		 je	 SHORT $LN7@StringTrim
$LL2@StringTrim:

; 378  : 	{
; 379  : 		if (_istspace(*lpsz))

  00010	0f be c0	 movsx	 eax, al
  00013	50		 push	 eax
  00014	e8 00 00 00 00	 call	 __ismbcspace
  00019	83 c4 04	 add	 esp, 4
  0001c	85 c0		 test	 eax, eax
  0001e	74 0b		 je	 SHORT $LN4@StringTrim

; 380  : 		{
; 381  : 			if (lpszLast == NULL)
; 382  : 				lpszLast = lpsz;
; 383  : 		}

  00020	85 f6		 test	 esi, esi
  00022	8b c7		 mov	 eax, edi
  00024	0f 45 c6	 cmovne	 eax, esi
  00027	8b f0		 mov	 esi, eax
  00029	eb 02		 jmp	 SHORT $LN5@StringTrim
$LN4@StringTrim:

; 384  : 		else
; 385  : 			lpszLast = NULL;

  0002b	33 f6		 xor	 esi, esi
$LN5@StringTrim:
; File C:\Program Files (x86)\Windows Kits\10\Include\10.0.26100.0\ucrt\tchar.h

; 1833 : _Check_return_ __inline _PC _tcsinc(_In_z_ _CPC _s1) {return (_PC)_mbsinc((_CPUC)_s1);}

  0002d	57		 push	 edi
  0002e	e8 00 00 00 00	 call	 __mbsinc
; File C:\IAGOS\server\v18\Source\Source\_Common\xUtil.cpp

; 386  : 		lpsz = _tcsinc(lpsz);

  00033	8b f8		 mov	 edi, eax
; File C:\Program Files (x86)\Windows Kits\10\Include\10.0.26100.0\ucrt\tchar.h

; 1833 : _Check_return_ __inline _PC _tcsinc(_In_z_ _CPC _s1) {return (_PC)_mbsinc((_CPUC)_s1);}

  00035	83 c4 04	 add	 esp, 4
; File C:\IAGOS\server\v18\Source\Source\_Common\xUtil.cpp

; 377  : 	while (*lpsz != '\0')

  00038	8a 07		 mov	 al, BYTE PTR [edi]
  0003a	84 c0		 test	 al, al
  0003c	75 d2		 jne	 SHORT $LL2@StringTrim

; 387  : 	}
; 388  : 
; 389  : 	if (lpszLast != NULL)

  0003e	85 f6		 test	 esi, esi
  00040	74 02		 je	 SHORT $LN7@StringTrim

; 390  : 	{
; 391  : 		// truncate at trailing space start
; 392  : 		*lpszLast = '\0';

  00042	88 06		 mov	 BYTE PTR [esi], al
$LN7@StringTrim:
  00044	5f		 pop	 edi

; 393  : 	}
; 394  : }

  00045	5e		 pop	 esi
  00046	5d		 pop	 ebp
  00047	c3		 ret	 0
?StringTrimRight@@YAXPAD@Z ENDP				; StringTrimRight
_TEXT	ENDS
; Function compile flags: /Ogtp
; File C:\IAGOS\server\v18\Source\Source\_Common\xUtil.cpp
;	COMDAT ?StringFind@@YAHPBDH@Z
_TEXT	SEGMENT
_string$ = 8						; size = 4
_c$ = 12						; size = 4
?StringFind@@YAHPBDH@Z PROC				; StringFind, COMDAT

; 366  : {

  00000	55		 push	 ebp
  00001	8b ec		 mov	 ebp, esp

; 367  : 	char* pdest;
; 368  : 	return ( pdest = (char*)strchr( string, c ) ) ? pdest - string : -1;

  00003	ff 75 0c	 push	 DWORD PTR _c$[ebp]
  00006	ff 75 08	 push	 DWORD PTR _string$[ebp]
  00009	e8 00 00 00 00	 call	 _strchr
  0000e	8b c8		 mov	 ecx, eax
  00010	83 c4 08	 add	 esp, 8
  00013	8b d1		 mov	 edx, ecx
  00015	83 c8 ff	 or	 eax, -1
  00018	2b 55 08	 sub	 edx, DWORD PTR _string$[ebp]
  0001b	85 c9		 test	 ecx, ecx
  0001d	0f 45 c2	 cmovne	 eax, edx

; 369  : }

  00020	5d		 pop	 ebp
  00021	c3		 ret	 0
?StringFind@@YAHPBDH@Z ENDP				; StringFind
_TEXT	ENDS
; Function compile flags: /Ogtp
; File C:\IAGOS\server\v18\Source\Source\_Common\xUtil.cpp
;	COMDAT ?MakeEven@@YAXAAJ@Z
_TEXT	SEGMENT
_x$ = 8							; size = 4
?MakeEven@@YAXAAJ@Z PROC				; MakeEven, COMDAT

; 413  : {

  00000	55		 push	 ebp
  00001	8b ec		 mov	 ebp, esp

; 414  : 	x ++;

  00003	8b 4d 08	 mov	 ecx, DWORD PTR _x$[ebp]
  00006	8b 01		 mov	 eax, DWORD PTR [ecx]
  00008	40		 inc	 eax

; 415  : 	x &= (~0x01);

  00009	83 e0 fe	 and	 eax, -2			; fffffffeH
  0000c	89 01		 mov	 DWORD PTR [ecx], eax

; 416  : }

  0000e	5d		 pop	 ebp
  0000f	c3		 ret	 0
?MakeEven@@YAXAAJ@Z ENDP				; MakeEven
_TEXT	ENDS
; Function compile flags: /Ogtp
; File C:\IAGOS\server\v18\Source\Source\_Common\xUtil.cpp
; File C:\Program Files\Microsoft Visual Studio\2022\Professional\VC\Tools\MSVC\14.44.35207\atlmfc\include\afxstr.h
; File C:\Program Files\Microsoft Visual Studio\2022\Professional\VC\Tools\MSVC\14.44.35207\atlmfc\include\atlsimpstr.h
; File C:\IAGOS\server\v18\Source\Source\_Common\xUtil.cpp
; File C:\Program Files\Microsoft Visual Studio\2022\Professional\VC\Tools\MSVC\14.44.35207\atlmfc\include\atlsimpstr.h
; File C:\IAGOS\server\v18\Source\Source\_Common\xUtil.cpp
; File C:\Program Files\Microsoft Visual Studio\2022\Professional\VC\Tools\MSVC\14.44.35207\atlmfc\include\cstringt.h
; File C:\Program Files\Microsoft Visual Studio\2022\Professional\VC\Tools\MSVC\14.44.35207\atlmfc\include\atlsimpstr.h
; File C:\IAGOS\server\v18\Source\Source\_Common\xUtil.cpp
; File C:\Program Files\Microsoft Visual Studio\2022\Professional\VC\Tools\MSVC\14.44.35207\atlmfc\include\atlsimpstr.h
; File C:\Program Files\Microsoft Visual Studio\2022\Professional\VC\Tools\MSVC\14.44.35207\atlmfc\include\cstringt.h
; File C:\Program Files\Microsoft Visual Studio\2022\Professional\VC\Tools\MSVC\14.44.35207\atlmfc\include\atlsimpstr.h
; File C:\Program Files\Microsoft Visual Studio\2022\Professional\VC\Tools\MSVC\14.44.35207\atlmfc\include\cstringt.h
; File C:\Program Files (x86)\Windows Kits\10\Include\10.0.26100.0\ucrt\corecrt_memcpy_s.h
; File C:\Program Files\Microsoft Visual Studio\2022\Professional\VC\Tools\MSVC\14.44.35207\atlmfc\include\cstringt.h
; File C:\Program Files\Microsoft Visual Studio\2022\Professional\VC\Tools\MSVC\14.44.35207\atlmfc\include\atlsimpstr.h
; File C:\IAGOS\server\v18\Source\Source\_Common\xUtil.cpp
; File C:\Program Files\Microsoft Visual Studio\2022\Professional\VC\Tools\MSVC\14.44.35207\atlmfc\include\atlsimpstr.h
; File C:\IAGOS\server\v18\Source\Source\_Common\xUtil.cpp
; File C:\Program Files\Microsoft Visual Studio\2022\Professional\VC\Tools\MSVC\14.44.35207\atlmfc\include\atlsimpstr.h
; File C:\Program Files\Microsoft Visual Studio\2022\Professional\VC\Tools\MSVC\14.44.35207\atlmfc\include\cstringt.h
; File C:\Program Files\Microsoft Visual Studio\2022\Professional\VC\Tools\MSVC\14.44.35207\atlmfc\include\atlsimpstr.h
; File C:\Program Files\Microsoft Visual Studio\2022\Professional\VC\Tools\MSVC\14.44.35207\atlmfc\include\cstringt.h
; File C:\Program Files\Microsoft Visual Studio\2022\Professional\VC\Tools\MSVC\14.44.35207\atlmfc\include\atlsimpstr.h
; File C:\Program Files\Microsoft Visual Studio\2022\Professional\VC\Tools\MSVC\14.44.35207\atlmfc\include\cstringt.h
; File C:\Program Files (x86)\Windows Kits\10\Include\10.0.26100.0\ucrt\corecrt_memcpy_s.h
; File C:\Program Files\Microsoft Visual Studio\2022\Professional\VC\Tools\MSVC\14.44.35207\atlmfc\include\cstringt.h
; File C:\Program Files\Microsoft Visual Studio\2022\Professional\VC\Tools\MSVC\14.44.35207\atlmfc\include\atlsimpstr.h
; File C:\IAGOS\server\v18\Source\Source\_Common\xUtil.cpp
; File C:\Program Files\Microsoft Visual Studio\2022\Professional\VC\Tools\MSVC\14.44.35207\atlmfc\include\atlsimpstr.h
; File C:\Program Files\Microsoft Visual Studio\2022\Professional\VC\Tools\MSVC\14.44.35207\atlmfc\include\afx.h
; File C:\Program Files\Microsoft Visual Studio\2022\Professional\VC\Tools\MSVC\14.44.35207\atlmfc\include\atlsimpstr.h
; File C:\IAGOS\server\v18\Source\Source\_Common\xUtil.cpp
;	COMDAT ?GetNumberFormatEx@@YA?AV?$CStringT@DV?$StrTraitMFC@DV?$ChTraitsCRT@D@ATL@@@@@ATL@@PBD@Z
_TEXT	SEGMENT
__S2$1$ = -28						; size = 4
__S2$1$ = -28						; size = 4
tv712 = -28						; size = 4
tv713 = -28						; size = 4
$T2 = -24						; size = 4
tv698 = -20						; size = 4
_ch$1$ = -13						; size = 1
__$EHRec$ = -12						; size = 12
___$ReturnUdt$ = 8					; size = 4
_szNumber$ = 12						; size = 4
?GetNumberFormatEx@@YA?AV?$CStringT@DV?$StrTraitMFC@DV?$ChTraitsCRT@D@ATL@@@@@ATL@@PBD@Z PROC ; GetNumberFormatEx, COMDAT

; 397  : {

  00000	55		 push	 ebp
  00001	8b ec		 mov	 ebp, esp
  00003	6a ff		 push	 -1
  00005	68 00 00 00 00	 push	 __ehhandler$?GetNumberFormatEx@@YA?AV?$CStringT@DV?$StrTraitMFC@DV?$ChTraitsCRT@D@ATL@@@@@ATL@@PBD@Z
  0000a	64 a1 00 00 00
	00		 mov	 eax, DWORD PTR fs:0
  00010	50		 push	 eax
  00011	83 ec 10	 sub	 esp, 16			; 00000010H
  00014	53		 push	 ebx
  00015	56		 push	 esi
  00016	57		 push	 edi
  00017	a1 00 00 00 00	 mov	 eax, DWORD PTR ___security_cookie
  0001c	33 c5		 xor	 eax, ebp
  0001e	50		 push	 eax
  0001f	8d 45 f4	 lea	 eax, DWORD PTR __$EHRec$[ebp]
  00022	64 a3 00 00 00
	00		 mov	 DWORD PTR fs:0, eax
  00028	c7 45 fc 00 00
	00 00		 mov	 DWORD PTR __$EHRec$[ebp+8], 0
  0002f	c7 45 e8 00 00
	00 00		 mov	 DWORD PTR $T2[ebp], 0
; File C:\Program Files\Microsoft Visual Studio\2022\Professional\VC\Tools\MSVC\14.44.35207\atlmfc\include\afxstr.h

; 56   : 		return( AfxGetStringManager() );

  00036	e8 00 00 00 00	 call	 ?AfxGetStringManager@@YGPAUIAtlStringMgr@ATL@@XZ ; AfxGetStringManager
  0003b	8b c8		 mov	 ecx, eax
; File C:\Program Files\Microsoft Visual Studio\2022\Professional\VC\Tools\MSVC\14.44.35207\atlmfc\include\atlsimpstr.h

; 209  : 		ATLENSURE( pStringMgr != NULL );

  0003d	85 c9		 test	 ecx, ecx
  0003f	0f 84 6a 01 00
	00		 je	 $LN152@GetNumberF

; 210  : 		CStringData* pData = pStringMgr->GetNilString();

  00045	8b 01		 mov	 eax, DWORD PTR [ecx]
  00047	ff 50 0c	 call	 DWORD PTR [eax+12]

; 211  : 		Attach( pData );

  0004a	8b 75 08	 mov	 esi, DWORD PTR ___$ReturnUdt$[ebp]
  0004d	83 c0 10	 add	 eax, 16			; 00000010H
  00050	89 06		 mov	 DWORD PTR [esi], eax
; File C:\IAGOS\server\v18\Source\Source\_Common\xUtil.cpp

; 409  : 	return str;

  00052	8b 7d 0c	 mov	 edi, DWORD PTR _szNumber$[ebp]
  00055	57		 push	 edi
  00056	c7 45 fc 00 00
	00 00		 mov	 DWORD PTR __$EHRec$[ebp+8], 0
  0005d	c7 45 e8 01 00
	00 00		 mov	 DWORD PTR $T2[ebp], 1
  00064	ff 15 00 00 00
	00		 call	 DWORD PTR __imp__lstrlenA@4
  0006a	8d 58 ff	 lea	 ebx, DWORD PTR [eax-1]
  0006d	85 db		 test	 ebx, ebx
  0006f	0f 88 26 01 00
	00		 js	 $LN3@GetNumberF
; File C:\Program Files\Microsoft Visual Studio\2022\Professional\VC\Tools\MSVC\14.44.35207\atlmfc\include\atlsimpstr.h

; 210  : 		CStringData* pData = pStringMgr->GetNilString();

  00075	c7 45 ec 01 00
	00 00		 mov	 DWORD PTR tv698[ebp], 1
  0007c	0f 1f 40 00	 npad	 4
$LL4@GetNumberF:
; File C:\IAGOS\server\v18\Source\Source\_Common\xUtil.cpp

; 405  : 		str.Insert(0, szNumber[i]);

  00080	8a 04 1f	 mov	 al, BYTE PTR [edi+ebx]
; File C:\Program Files\Microsoft Visual Studio\2022\Professional\VC\Tools\MSVC\14.44.35207\atlmfc\include\cstringt.h

; 1519 : 		int nNewLength = this->GetLength()+1;

  00083	33 ff		 xor	 edi, edi
; File C:\Program Files\Microsoft Visual Studio\2022\Professional\VC\Tools\MSVC\14.44.35207\atlmfc\include\atlsimpstr.h

; 523  : 		return( GetData()->nDataLength );

  00085	8b 16		 mov	 edx, DWORD PTR [esi]
; File C:\IAGOS\server\v18\Source\Source\_Common\xUtil.cpp

; 405  : 		str.Insert(0, szNumber[i]);

  00087	88 45 f3	 mov	 BYTE PTR _ch$1$[ebp], al
; File C:\Program Files\Microsoft Visual Studio\2022\Professional\VC\Tools\MSVC\14.44.35207\atlmfc\include\atlsimpstr.h

; 523  : 		return( GetData()->nDataLength );

  0008a	8b 42 f4	 mov	 eax, DWORD PTR [edx-12]
; File C:\Program Files\Microsoft Visual Studio\2022\Professional\VC\Tools\MSVC\14.44.35207\atlmfc\include\cstringt.h

; 1519 : 		int nNewLength = this->GetLength()+1;

  0008d	85 c0		 test	 eax, eax
  0008f	8b c8		 mov	 ecx, eax
  00091	0f 49 cf	 cmovns	 ecx, edi
  00094	89 4d e4	 mov	 DWORD PTR tv712[ebp], ecx
  00097	8d 78 01	 lea	 edi, DWORD PTR [eax+1]
; File C:\Program Files\Microsoft Visual Studio\2022\Professional\VC\Tools\MSVC\14.44.35207\atlmfc\include\atlsimpstr.h

; 808  : 		if (nLength < 0)

  0009a	85 ff		 test	 edi, edi
  0009c	0f 88 2c 01 00
	00		 js	 $LN137@GetNumberF

; 810  : 
; 811  : 		CStringData* pOldData = GetData();
; 812  : 		int nShared = 1-pOldData->nRefs;  // nShared < 0 means true, >= 0 means false
; 813  : 		int nTooShort = pOldData->nAllocLength-nLength;  // nTooShort < 0 means true, >= 0 means false

  000a2	8b 42 f8	 mov	 eax, DWORD PTR [edx-8]
  000a5	b9 01 00 00 00	 mov	 ecx, 1
  000aa	2b 4a fc	 sub	 ecx, DWORD PTR [edx-4]
  000ad	2b c7		 sub	 eax, edi

; 814  : 		if( (nShared|nTooShort) < 0 )  // If either sign bit is set (i.e. either is less than zero), we need to copy data

  000af	0b c8		 or	 ecx, eax
  000b1	7d 08		 jge	 SHORT $LN44@GetNumberF

; 815  : 		{
; 816  : 			PrepareWrite2( nLength );

  000b3	57		 push	 edi
  000b4	8b ce		 mov	 ecx, esi
  000b6	e8 00 00 00 00	 call	 ?PrepareWrite2@?$CSimpleStringT@D$0A@@ATL@@AAEXH@Z ; ATL::CSimpleStringT<char,0>::PrepareWrite2
$LN44@GetNumberF:
; File C:\Program Files\Microsoft Visual Studio\2022\Professional\VC\Tools\MSVC\14.44.35207\atlmfc\include\cstringt.h

; 1524 : 		Checked::memmove_s( pszBuffer+iIndex+1, (nNewLength-iIndex)*sizeof( XCHAR ),

  000bb	8b 4d e4	 mov	 ecx, DWORD PTR tv712[ebp]
  000be	8b d7		 mov	 edx, edi
  000c0	8b 06		 mov	 eax, DWORD PTR [esi]
  000c2	2b d1		 sub	 edx, ecx
  000c4	8d 04 01	 lea	 eax, DWORD PTR [ecx+eax]
  000c7	89 45 e4	 mov	 DWORD PTR __S2$1$[ebp], eax
  000ca	8d 48 01	 lea	 ecx, DWORD PTR [eax+1]
; File C:\Program Files (x86)\Windows Kits\10\Include\10.0.26100.0\ucrt\corecrt_memcpy_s.h

; 76   :         if (_SourceSize == 0)

  000cd	74 1e		 je	 SHORT $LN64@GetNumberF

; 77   :         {
; 78   :             return 0;
; 79   :         }
; 80   : 
; 81   :         _CRT_MEMCPY_S_VALIDATE_RETURN_ERRCODE(_Destination != NULL,            EINVAL);

  000cf	85 c9		 test	 ecx, ecx
  000d1	0f 84 e2 00 00
	00		 je	 $LN147@GetNumberF

; 82   :         _CRT_MEMCPY_S_VALIDATE_RETURN_ERRCODE(_Source != NULL,                 EINVAL);

  000d7	85 c0		 test	 eax, eax
  000d9	0f 84 da 00 00
	00		 je	 $LN147@GetNumberF

; 83   :         _CRT_MEMCPY_S_VALIDATE_RETURN_ERRCODE(_DestinationSize >= _SourceSize, ERANGE);
; 84   : 
; 85   :         memmove(_Destination, _Source, _SourceSize);

  000df	52		 push	 edx
  000e0	50		 push	 eax
  000e1	51		 push	 ecx
  000e2	e8 00 00 00 00	 call	 _memmove
  000e7	8b 45 e4	 mov	 eax, DWORD PTR __S2$1$[ebp]
  000ea	83 c4 0c	 add	 esp, 12			; 0000000cH
$LN64@GetNumberF:
; File C:\Program Files\Microsoft Visual Studio\2022\Professional\VC\Tools\MSVC\14.44.35207\atlmfc\include\cstringt.h

; 1526 : 		pszBuffer[iIndex] = ch;

  000ed	8a 4d f3	 mov	 cl, BYTE PTR _ch$1$[ebp]
  000f0	88 08		 mov	 BYTE PTR [eax], cl
; File C:\Program Files\Microsoft Visual Studio\2022\Professional\VC\Tools\MSVC\14.44.35207\atlmfc\include\atlsimpstr.h

; 875  : 		if( nLength < 0 || nLength > GetData()->nAllocLength)

  000f2	8b 06		 mov	 eax, DWORD PTR [esi]
  000f4	3b 78 f8	 cmp	 edi, DWORD PTR [eax-8]
  000f7	0f 8f d1 00 00
	00		 jg	 $LN137@GetNumberF

; 876  : 			AtlThrow(E_INVALIDARG);
; 877  : 
; 878  : 		GetData()->nDataLength = nLength;

  000fd	89 78 f4	 mov	 DWORD PTR [eax-12], edi
; File C:\IAGOS\server\v18\Source\Source\_Common\xUtil.cpp

; 406  : 		if( ((nLength-i) % 3) == 0 && i != 0 )

  00100	b9 03 00 00 00	 mov	 ecx, 3
; File C:\Program Files\Microsoft Visual Studio\2022\Professional\VC\Tools\MSVC\14.44.35207\atlmfc\include\atlsimpstr.h

; 879  : 		m_pszData[nLength] = 0;

  00105	8b 06		 mov	 eax, DWORD PTR [esi]
  00107	c6 04 07 00	 mov	 BYTE PTR [edi+eax], 0
; File C:\IAGOS\server\v18\Source\Source\_Common\xUtil.cpp

; 406  : 		if( ((nLength-i) % 3) == 0 && i != 0 )

  0010b	8b 45 ec	 mov	 eax, DWORD PTR tv698[ebp]
  0010e	99		 cdq
  0010f	f7 f9		 idiv	 ecx
  00111	85 d2		 test	 edx, edx
  00113	75 76		 jne	 SHORT $LN2@GetNumberF
  00115	85 db		 test	 ebx, ebx
  00117	74 72		 je	 SHORT $LN2@GetNumberF
; File C:\Program Files\Microsoft Visual Studio\2022\Professional\VC\Tools\MSVC\14.44.35207\atlmfc\include\atlsimpstr.h

; 523  : 		return( GetData()->nDataLength );

  00119	8b 16		 mov	 edx, DWORD PTR [esi]
; File C:\Program Files\Microsoft Visual Studio\2022\Professional\VC\Tools\MSVC\14.44.35207\atlmfc\include\cstringt.h

; 1519 : 		int nNewLength = this->GetLength()+1;

  0011b	33 ff		 xor	 edi, edi
; File C:\Program Files\Microsoft Visual Studio\2022\Professional\VC\Tools\MSVC\14.44.35207\atlmfc\include\atlsimpstr.h

; 523  : 		return( GetData()->nDataLength );

  0011d	8b 42 f4	 mov	 eax, DWORD PTR [edx-12]
; File C:\Program Files\Microsoft Visual Studio\2022\Professional\VC\Tools\MSVC\14.44.35207\atlmfc\include\cstringt.h

; 1519 : 		int nNewLength = this->GetLength()+1;

  00120	85 c0		 test	 eax, eax
  00122	8b c8		 mov	 ecx, eax
  00124	0f 49 cf	 cmovns	 ecx, edi
  00127	89 4d e4	 mov	 DWORD PTR tv713[ebp], ecx
  0012a	8d 78 01	 lea	 edi, DWORD PTR [eax+1]
; File C:\Program Files\Microsoft Visual Studio\2022\Professional\VC\Tools\MSVC\14.44.35207\atlmfc\include\atlsimpstr.h

; 808  : 		if (nLength < 0)

  0012d	85 ff		 test	 edi, edi
  0012f	0f 88 99 00 00
	00		 js	 $LN137@GetNumberF

; 810  : 
; 811  : 		CStringData* pOldData = GetData();
; 812  : 		int nShared = 1-pOldData->nRefs;  // nShared < 0 means true, >= 0 means false
; 813  : 		int nTooShort = pOldData->nAllocLength-nLength;  // nTooShort < 0 means true, >= 0 means false

  00135	8b 42 f8	 mov	 eax, DWORD PTR [edx-8]
  00138	b9 01 00 00 00	 mov	 ecx, 1
  0013d	2b 4a fc	 sub	 ecx, DWORD PTR [edx-4]
  00140	2b c7		 sub	 eax, edi

; 814  : 		if( (nShared|nTooShort) < 0 )  // If either sign bit is set (i.e. either is less than zero), we need to copy data

  00142	0b c8		 or	 ecx, eax
  00144	7d 08		 jge	 SHORT $LN100@GetNumberF

; 815  : 		{
; 816  : 			PrepareWrite2( nLength );

  00146	57		 push	 edi
  00147	8b ce		 mov	 ecx, esi
  00149	e8 00 00 00 00	 call	 ?PrepareWrite2@?$CSimpleStringT@D$0A@@ATL@@AAEXH@Z ; ATL::CSimpleStringT<char,0>::PrepareWrite2
$LN100@GetNumberF:
; File C:\Program Files\Microsoft Visual Studio\2022\Professional\VC\Tools\MSVC\14.44.35207\atlmfc\include\cstringt.h

; 1524 : 		Checked::memmove_s( pszBuffer+iIndex+1, (nNewLength-iIndex)*sizeof( XCHAR ),

  0014e	8b 4d e4	 mov	 ecx, DWORD PTR tv713[ebp]
  00151	8b d7		 mov	 edx, edi
  00153	8b 06		 mov	 eax, DWORD PTR [esi]
  00155	2b d1		 sub	 edx, ecx
  00157	8d 04 01	 lea	 eax, DWORD PTR [ecx+eax]
  0015a	89 45 e4	 mov	 DWORD PTR __S2$1$[ebp], eax
  0015d	8d 48 01	 lea	 ecx, DWORD PTR [eax+1]
; File C:\Program Files (x86)\Windows Kits\10\Include\10.0.26100.0\ucrt\corecrt_memcpy_s.h

; 76   :         if (_SourceSize == 0)

  00160	74 16		 je	 SHORT $LN120@GetNumberF

; 77   :         {
; 78   :             return 0;
; 79   :         }
; 80   : 
; 81   :         _CRT_MEMCPY_S_VALIDATE_RETURN_ERRCODE(_Destination != NULL,            EINVAL);

  00162	85 c9		 test	 ecx, ecx
  00164	74 53		 je	 SHORT $LN147@GetNumberF

; 82   :         _CRT_MEMCPY_S_VALIDATE_RETURN_ERRCODE(_Source != NULL,                 EINVAL);

  00166	85 c0		 test	 eax, eax
  00168	74 4f		 je	 SHORT $LN147@GetNumberF

; 83   :         _CRT_MEMCPY_S_VALIDATE_RETURN_ERRCODE(_DestinationSize >= _SourceSize, ERANGE);
; 84   : 
; 85   :         memmove(_Destination, _Source, _SourceSize);

  0016a	52		 push	 edx
  0016b	50		 push	 eax
  0016c	51		 push	 ecx
  0016d	e8 00 00 00 00	 call	 _memmove
  00172	8b 45 e4	 mov	 eax, DWORD PTR __S2$1$[ebp]
  00175	83 c4 0c	 add	 esp, 12			; 0000000cH
$LN120@GetNumberF:
; File C:\Program Files\Microsoft Visual Studio\2022\Professional\VC\Tools\MSVC\14.44.35207\atlmfc\include\cstringt.h

; 1526 : 		pszBuffer[iIndex] = ch;

  00178	c6 00 2c	 mov	 BYTE PTR [eax], 44	; 0000002cH
; File C:\Program Files\Microsoft Visual Studio\2022\Professional\VC\Tools\MSVC\14.44.35207\atlmfc\include\atlsimpstr.h

; 875  : 		if( nLength < 0 || nLength > GetData()->nAllocLength)

  0017b	8b 06		 mov	 eax, DWORD PTR [esi]
  0017d	3b 78 f8	 cmp	 edi, DWORD PTR [eax-8]
  00180	7f 4c		 jg	 SHORT $LN137@GetNumberF

; 876  : 			AtlThrow(E_INVALIDARG);
; 877  : 
; 878  : 		GetData()->nDataLength = nLength;

  00182	89 78 f4	 mov	 DWORD PTR [eax-12], edi

; 879  : 		m_pszData[nLength] = 0;

  00185	8b 06		 mov	 eax, DWORD PTR [esi]
  00187	c6 04 07 00	 mov	 BYTE PTR [edi+eax], 0
$LN2@GetNumberF:
; File C:\IAGOS\server\v18\Source\Source\_Common\xUtil.cpp

; 403  : 	for( int i=nLength-1; i>=0; --i)

  0018b	ff 45 ec	 inc	 DWORD PTR tv698[ebp]
  0018e	83 eb 01	 sub	 ebx, 1
  00191	78 08		 js	 SHORT $LN3@GetNumberF
  00193	8b 7d 0c	 mov	 edi, DWORD PTR _szNumber$[ebp]
  00196	e9 e5 fe ff ff	 jmp	 $LL4@GetNumberF
$LN3@GetNumberF:

; 409  : 	return str;

  0019b	8b c6		 mov	 eax, esi

; 410  : }

  0019d	8b 4d f4	 mov	 ecx, DWORD PTR __$EHRec$[ebp]
  001a0	64 89 0d 00 00
	00 00		 mov	 DWORD PTR fs:0, ecx
  001a7	59		 pop	 ecx
  001a8	5f		 pop	 edi
  001a9	5e		 pop	 esi
  001aa	5b		 pop	 ebx
  001ab	8b e5		 mov	 esp, ebp
  001ad	5d		 pop	 ebp
  001ae	c3		 ret	 0
$LN152@GetNumberF:
; File C:\Program Files\Microsoft Visual Studio\2022\Professional\VC\Tools\MSVC\14.44.35207\atlmfc\include\atlsimpstr.h

; 209  : 		ATLENSURE( pStringMgr != NULL );

  001af	68 05 40 00 80	 push	 -2147467259		; 80004005H
  001b4	e8 00 00 00 00	 call	 ?AtlThrowImpl@ATL@@YGXJ@Z ; ATL::AtlThrowImpl
$LN147@GetNumberF:
; File C:\Program Files\Microsoft Visual Studio\2022\Professional\VC\Tools\MSVC\14.44.35207\atlmfc\include\afx.h

; 518  : 		AfxThrowInvalidArgException();

  001b9	e8 00 00 00 00	 call	 __errno
  001be	c7 00 16 00 00
	00		 mov	 DWORD PTR [eax], 22	; 00000016H
  001c4	e8 00 00 00 00	 call	 __invalid_parameter_noinfo
  001c9	e8 00 00 00 00	 call	 ?AfxThrowInvalidArgException@@YGXXZ ; AfxThrowInvalidArgException
$LN137@GetNumberF:
; File C:\Program Files\Microsoft Visual Studio\2022\Professional\VC\Tools\MSVC\14.44.35207\atlmfc\include\atlsimpstr.h

; 809  : 			AtlThrow(E_INVALIDARG);

  001ce	68 57 00 07 80	 push	 -2147024809		; 80070057H
  001d3	e8 00 00 00 00	 call	 ?AtlThrowImpl@ATL@@YGXJ@Z ; ATL::AtlThrowImpl
$LN150@GetNumberF:
  001d8	cc		 int	 3
_TEXT	ENDS
;	COMDAT text$x
text$x	SEGMENT
__unwindfunclet$?GetNumberFormatEx@@YA?AV?$CStringT@DV?$StrTraitMFC@DV?$ChTraitsCRT@D@ATL@@@@@ATL@@PBD@Z$0:
  00000	8b 45 e8	 mov	 eax, DWORD PTR $T2[ebp]
  00003	83 e0 01	 and	 eax, 1
  00006	0f 84 0c 00 00
	00		 je	 $LN8@GetNumberF
  0000c	83 65 e8 fe	 and	 DWORD PTR $T2[ebp], -2	; fffffffeH
  00010	8b 4d 08	 mov	 ecx, DWORD PTR ___$ReturnUdt$[ebp]
  00013	e9 00 00 00 00	 jmp	 ??1?$CStringT@DV?$StrTraitMFC@DV?$ChTraitsCRT@D@ATL@@@@@ATL@@QAE@XZ ; ATL::CStringT<char,StrTraitMFC<char,ATL::ChTraitsCRT<char> > >::~CStringT<char,StrTraitMFC<char,ATL::ChTraitsCRT<char> > >
$LN8@GetNumberF:
  00018	c3		 ret	 0
  00019	cc		 int	 3
  0001a	cc		 int	 3
  0001b	cc		 int	 3
  0001c	cc		 int	 3
  0001d	cc		 int	 3
__ehhandler$?GetNumberFormatEx@@YA?AV?$CStringT@DV?$StrTraitMFC@DV?$ChTraitsCRT@D@ATL@@@@@ATL@@PBD@Z:
  0001e	90		 npad	 1
  0001f	90		 npad	 1
  00020	8b 54 24 08	 mov	 edx, DWORD PTR [esp+8]
  00024	8d 42 0c	 lea	 eax, DWORD PTR [edx+12]
  00027	8b 4a e0	 mov	 ecx, DWORD PTR [edx-32]
  0002a	33 c8		 xor	 ecx, eax
  0002c	e8 00 00 00 00	 call	 @__security_check_cookie@4
  00031	b8 00 00 00 00	 mov	 eax, OFFSET __ehfuncinfo$?GetNumberFormatEx@@YA?AV?$CStringT@DV?$StrTraitMFC@DV?$ChTraitsCRT@D@ATL@@@@@ATL@@PBD@Z
  00036	e9 00 00 00 00	 jmp	 ___CxxFrameHandler3
text$x	ENDS
?GetNumberFormatEx@@YA?AV?$CStringT@DV?$StrTraitMFC@DV?$ChTraitsCRT@D@ATL@@@@@ATL@@PBD@Z ENDP ; GetNumberFormatEx
; Function compile flags: /Ogtp
; File C:\IAGOS\server\v18\Source\Source\_Common\xUtil.cpp
; File C:\Program Files (x86)\Windows Kits\10\Include\10.0.26100.0\ucrt\stdio.h
; File C:\IAGOS\server\v18\Source\Source\_Common\xUtil.cpp
;	COMDAT ?Error@@YAPBDPBDZZ
_TEXT	SEGMENT
_time$1 = -16404					; size = 16
_szStr$2 = -16388					; size = 8192
_szBuff$ = -8196					; size = 8192
__$ArrayPad$ = -4					; size = 4
_strFormat$ = 8						; size = 4
?Error@@YAPBDPBDZZ PROC					; Error, COMDAT

; 99   : {

  00000	55		 push	 ebp
  00001	8b ec		 mov	 ebp, esp
  00003	b8 14 40 00 00	 mov	 eax, 16404		; 00004014H
  00008	e8 00 00 00 00	 call	 __chkstk
  0000d	a1 00 00 00 00	 mov	 eax, DWORD PTR ___security_cookie
  00012	33 c5		 xor	 eax, ebp
  00014	89 45 fc	 mov	 DWORD PTR __$ArrayPad$[ebp], eax
; File C:\Program Files (x86)\Windows Kits\10\Include\10.0.26100.0\ucrt\stdio.h

; 1392 :         int const _Result = __stdio_common_vsprintf(

  00017	8d 45 0c	 lea	 eax, DWORD PTR _strFormat$[ebp+4]
  0001a	50		 push	 eax
  0001b	6a 00		 push	 0
  0001d	ff 75 08	 push	 DWORD PTR _strFormat$[ebp]
  00020	8d 85 fc df ff
	ff		 lea	 eax, DWORD PTR _szBuff$[ebp]
  00026	68 ff 1f 00 00	 push	 8191			; 00001fffH
  0002b	50		 push	 eax
  0002c	e8 00 00 00 00	 call	 ___local_stdio_printf_options
  00031	8b 08		 mov	 ecx, DWORD PTR [eax]
  00033	ff 70 04	 push	 DWORD PTR [eax+4]
  00036	83 c9 01	 or	 ecx, 1
  00039	51		 push	 ecx
  0003a	e8 00 00 00 00	 call	 ___stdio_common_vsprintf

; 1393 :             _CRT_INTERNAL_LOCAL_PRINTF_OPTIONS | _CRT_INTERNAL_PRINTF_LEGACY_VSPRINTF_NULL_TERMINATION,
; 1394 :             _Buffer, _BufferCount, _Format, _Locale, _ArgList);
; 1395 : 
; 1396 :         return _Result < 0 ? -1 : _Result;

  0003f	83 c9 ff	 or	 ecx, -1
  00042	83 c4 1c	 add	 esp, 28			; 0000001cH
  00045	85 c0		 test	 eax, eax
  00047	0f 48 c1	 cmovs	 eax, ecx
; File C:\IAGOS\server\v18\Source\Source\_Common\xUtil.cpp

; 106  : 	if( n > 0 )

  0004a	85 c0		 test	 eax, eax
  0004c	7e 69		 jle	 SHORT $LN8@Error

; 107  : 	{
; 108  : #if defined(_DEBUG) && defined(__XUZHU)
; 109  : 		if( g_bShowMsgBox && MessageBox( NULL, szBuff, "오류", MB_OKCANCEL) == IDCANCEL )
; 110  : 			g_bShowMsgBox	= FALSE;		
; 111  : #endif
; 112  : 		char szStr[8192];
; 113  : 		SYSTEMTIME time;
; 114  : 		GetLocalTime( &time );

  0004e	8d 85 ec bf ff
	ff		 lea	 eax, DWORD PTR _time$1[ebp]
  00054	50		 push	 eax
  00055	ff 15 00 00 00
	00		 call	 DWORD PTR __imp__GetLocalTime@4

; 115  : 		sprintf( szStr, "%d/%2d/%2d   %02d:%02d:%02d   %s\n", 

  0005b	8d 85 fc df ff
	ff		 lea	 eax, DWORD PTR _szBuff$[ebp]
  00061	50		 push	 eax
  00062	0f b7 85 f8 bf
	ff ff		 movzx	 eax, WORD PTR _time$1[ebp+12]
  00069	50		 push	 eax
  0006a	0f b7 85 f6 bf
	ff ff		 movzx	 eax, WORD PTR _time$1[ebp+10]
  00071	50		 push	 eax
  00072	0f b7 85 f4 bf
	ff ff		 movzx	 eax, WORD PTR _time$1[ebp+8]
  00079	50		 push	 eax
  0007a	0f b7 85 f2 bf
	ff ff		 movzx	 eax, WORD PTR _time$1[ebp+6]
  00081	50		 push	 eax
  00082	0f b7 85 ee bf
	ff ff		 movzx	 eax, WORD PTR _time$1[ebp+2]
  00089	50		 push	 eax
  0008a	0f b7 85 ec bf
	ff ff		 movzx	 eax, WORD PTR _time$1[ebp]
  00091	50		 push	 eax
  00092	8d 85 fc bf ff
	ff		 lea	 eax, DWORD PTR _szStr$2[ebp]
  00098	68 00 00 00 00	 push	 OFFSET ??_C@_0CC@DAGMFPKN@?$CFd?1?$CF2d?1?$CF2d?5?5?5?$CF02d?3?$CF02d?3?$CF02d?5?5?5?$CF@
  0009d	50		 push	 eax
  0009e	e8 00 00 00 00	 call	 _sprintf

; 116  : 			time.wYear, time.wMonth, time.wDay,
; 117  : 			time.wHour, time.wMinute, time.wSecond, 
; 118  : 			szBuff );		
; 119  : 		
; 120  : 		DEBUGOUT2( szStr );	

  000a3	8d 85 fc bf ff
	ff		 lea	 eax, DWORD PTR _szStr$2[ebp]
  000a9	68 00 00 00 00	 push	 OFFSET ??_C@_0N@INFALIMF@?4?4?2error?4txt@
  000ae	50		 push	 eax
  000af	e8 00 00 00 00	 call	 ?DEBUGOUT2@@YAXPBD0@Z	; DEBUGOUT2
  000b4	83 c4 2c	 add	 esp, 44			; 0000002cH
$LN8@Error:

; 121  : 	}
; 122  : 
; 123  : 	return "";
; 124  : }

  000b7	8b 4d fc	 mov	 ecx, DWORD PTR __$ArrayPad$[ebp]
  000ba	b8 00 00 00 00	 mov	 eax, OFFSET ??_C@_00CNPNBAHC@@
  000bf	33 cd		 xor	 ecx, ebp
  000c1	e8 00 00 00 00	 call	 @__security_check_cookie@4
  000c6	8b e5		 mov	 esp, ebp
  000c8	5d		 pop	 ebp
  000c9	c3		 ret	 0
?Error@@YAPBDPBDZZ ENDP					; Error
_TEXT	ENDS
; Function compile flags: /Ogtp
; File C:\IAGOS\server\v18\Source\Source\_Common\xUtil.cpp
;	COMDAT ?GetFilePath@@YAXPBDPAD@Z
_TEXT	SEGMENT
_szSrc$ = 8						; size = 4
_szFilePath$ = 12					; size = 4
?GetFilePath@@YAXPBDPAD@Z PROC				; GetFilePath, COMDAT

; 267  : {

  00000	55		 push	 ebp
  00001	8b ec		 mov	 ebp, esp

; 268  : 	int len	= strlen( szSrc );	

  00003	8b 4d 08	 mov	 ecx, DWORD PTR _szSrc$[ebp]
  00006	56		 push	 esi
  00007	8b f1		 mov	 esi, ecx
  00009	57		 push	 edi
  0000a	8d 56 01	 lea	 edx, DWORD PTR [esi+1]
  0000d	0f 1f 00	 npad	 3
$LL12@GetFilePat:
  00010	8a 06		 mov	 al, BYTE PTR [esi]
  00012	46		 inc	 esi
  00013	84 c0		 test	 al, al
  00015	75 f9		 jne	 SHORT $LL12@GetFilePat

; 269  : 
; 270  : 	for( int i = len-1; i >= 0; i -- )
; 271  : 	{
; 272  : 		if( szSrc[i] == '\\' )
; 273  : 			break;
; 274  : 	}
; 275  : 	strncpy( szFilePath, szSrc, len );		

  00017	8b 7d 0c	 mov	 edi, DWORD PTR _szFilePath$[ebp]
  0001a	2b f2		 sub	 esi, edx
  0001c	56		 push	 esi
  0001d	51		 push	 ecx
  0001e	57		 push	 edi
  0001f	e8 00 00 00 00	 call	 _strncpy
  00024	83 c4 0c	 add	 esp, 12			; 0000000cH

; 276  : 	szFilePath[len] = '\0';

  00027	c6 04 3e 00	 mov	 BYTE PTR [esi+edi], 0
  0002b	5f		 pop	 edi
  0002c	5e		 pop	 esi

; 277  : }

  0002d	5d		 pop	 ebp
  0002e	c3		 ret	 0
?GetFilePath@@YAXPBDPAD@Z ENDP				; GetFilePath
_TEXT	ENDS
; Function compile flags: /Ogtp
; File C:\IAGOS\server\v18\Source\Source\_Common\xUtil.cpp
;	COMDAT ?GetFileExt@@YAXPBDPAD@Z
_TEXT	SEGMENT
_szSrc$ = 8						; size = 4
_szFileExt$ = 12					; size = 4
?GetFileExt@@YAXPBDPAD@Z PROC				; GetFileExt, COMDAT

; 234  : {

  00000	55		 push	 ebp
  00001	8b ec		 mov	 ebp, esp

; 235  : 	int		len, i;
; 236  : 	len	= strlen( szSrc );		// 풀네임 길이 읽음

  00003	8b 55 08	 mov	 edx, DWORD PTR _szSrc$[ebp]
  00006	8b c2		 mov	 eax, edx
  00008	56		 push	 esi
  00009	8d 70 01	 lea	 esi, DWORD PTR [eax+1]
  0000c	0f 1f 40 00	 npad	 4
$LL11@GetFileExt:
  00010	8a 08		 mov	 cl, BYTE PTR [eax]
  00012	40		 inc	 eax
  00013	84 c9		 test	 cl, cl
  00015	75 f9		 jne	 SHORT $LL11@GetFileExt
  00017	2b c6		 sub	 eax, esi
  00019	5e		 pop	 esi

; 237  : 	i	= len;
; 238  : 	while( i-- )

  0001a	74 21		 je	 SHORT $LN8@GetFileExt
  0001c	0f 1f 40 00	 npad	 4
$LL2@GetFileExt:
  00020	48		 dec	 eax

; 239  : 	{	// 스트링 뒤에서 부터 훑으며 .이 나오는곳을 찾는다.
; 240  : 		if( szSrc[i] == '.' )

  00021	80 3c 10 2e	 cmp	 BYTE PTR [eax+edx], 46	; 0000002eH
  00025	8d 0c 10	 lea	 ecx, DWORD PTR [eax+edx]
  00028	74 06		 je	 SHORT $LN7@GetFileExt

; 237  : 	i	= len;
; 238  : 	while( i-- )

  0002a	85 c0		 test	 eax, eax
  0002c	75 f2		 jne	 SHORT $LL2@GetFileExt

; 243  : 			break;
; 244  : 		}
; 245  : 	}
; 246  : }

  0002e	5d		 pop	 ebp
  0002f	c3		 ret	 0
$LN7@GetFileExt:

; 241  : 		{
; 242  : 			lstrcpy( szFileExt, szSrc + i + 1 );	// .가 나온 다음 칸부터 확장자로 씀

  00030	8d 41 01	 lea	 eax, DWORD PTR [ecx+1]
  00033	50		 push	 eax
  00034	ff 75 0c	 push	 DWORD PTR _szFileExt$[ebp]
  00037	ff 15 00 00 00
	00		 call	 DWORD PTR __imp__lstrcpyA@8
$LN8@GetFileExt:

; 243  : 			break;
; 244  : 		}
; 245  : 	}
; 246  : }

  0003d	5d		 pop	 ebp
  0003e	c3		 ret	 0
?GetFileExt@@YAXPBDPAD@Z ENDP				; GetFileExt
_TEXT	ENDS
; Function compile flags: /Ogtp
; File C:\IAGOS\server\v18\Source\Source\_Common\xUtil.cpp
;	COMDAT ?GetFileTitle@@YAXPBDPAD@Z
_TEXT	SEGMENT
_szSrc$ = 8						; size = 4
_szFileTitle$ = 12					; size = 4
?GetFileTitle@@YAXPBDPAD@Z PROC				; GetFileTitle, COMDAT

; 195  : {

  00000	55		 push	 ebp
  00001	8b ec		 mov	 ebp, esp
  00003	56		 push	 esi
  00004	8b 75 0c	 mov	 esi, DWORD PTR _szFileTitle$[ebp]

; 196  : 	int		len, i;
; 197  : 	GetFileName( szSrc, szFileTitle );		// 패스 분리

  00007	56		 push	 esi
  00008	ff 75 08	 push	 DWORD PTR _szSrc$[ebp]
  0000b	e8 00 00 00 00	 call	 ?GetFileName@@YAXPBDPAD@Z ; GetFileName

; 198  : 
; 199  : 	// 파일명 추출.
; 200  : 	len	= strlen( szFileTitle );	// 풀네임 길이 읽음

  00010	8b ce		 mov	 ecx, esi
  00012	83 c4 08	 add	 esp, 8
  00015	8d 51 01	 lea	 edx, DWORD PTR [ecx+1]
$LL12@GetFileTit:
  00018	8a 01		 mov	 al, BYTE PTR [ecx]
  0001a	41		 inc	 ecx
  0001b	84 c0		 test	 al, al
  0001d	75 f9		 jne	 SHORT $LL12@GetFileTit
  0001f	2b ca		 sub	 ecx, edx

; 201  : 	for( i = 0; i < len; i ++ )

  00021	33 c0		 xor	 eax, eax
  00023	85 c9		 test	 ecx, ecx
  00025	7e 12		 jle	 SHORT $LN14@GetFileTit
$LL4@GetFileTit:

; 202  : 	{
; 203  : 		if( szFileTitle[i] == '.' )

  00027	80 3c 06 2e	 cmp	 BYTE PTR [esi+eax], 46	; 0000002eH
  0002b	74 05		 je	 SHORT $LN13@GetFileTit

; 201  : 	for( i = 0; i < len; i ++ )

  0002d	40		 inc	 eax
  0002e	3b c1		 cmp	 eax, ecx
  00030	7c f5		 jl	 SHORT $LL4@GetFileTit
$LN13@GetFileTit:

; 207  : }

  00032	c6 04 30 00	 mov	 BYTE PTR [eax+esi], 0
  00036	5e		 pop	 esi
  00037	5d		 pop	 ebp
  00038	c3		 ret	 0
$LN14@GetFileTit:

; 204  : 			break;
; 205  : 	}
; 206  : 	szFileTitle[i]	= '\0';

  00039	88 04 30	 mov	 BYTE PTR [eax+esi], al
  0003c	5e		 pop	 esi

; 207  : }

  0003d	5d		 pop	 ebp
  0003e	c3		 ret	 0
?GetFileTitle@@YAXPBDPAD@Z ENDP				; GetFileTitle
_TEXT	ENDS
; Function compile flags: /Ogtp
; File C:\IAGOS\server\v18\Source\Source\_Common\xUtil.cpp
;	COMDAT ?GetFileName@@YAXPBDPAD@Z
_TEXT	SEGMENT
_szSrc$ = 8						; size = 4
_szFileName$ = 12					; size = 4
?GetFileName@@YAXPBDPAD@Z PROC				; GetFileName, COMDAT

; 154  : {

  00000	55		 push	 ebp
  00001	8b ec		 mov	 ebp, esp

; 155  : 	int	len, i;
; 156  : 	// 파일명만 추출.
; 157  : 	i	= len	= strlen( szSrc );		// 풀네임 길이 읽음

  00003	8b 55 08	 mov	 edx, DWORD PTR _szSrc$[ebp]
  00006	8b c2		 mov	 eax, edx
  00008	56		 push	 esi
  00009	8d 70 01	 lea	 esi, DWORD PTR [eax+1]
  0000c	0f 1f 40 00	 npad	 4
$LL12@GetFileNam:
  00010	8a 08		 mov	 cl, BYTE PTR [eax]
  00012	40		 inc	 eax
  00013	84 c9		 test	 cl, cl
  00015	75 f9		 jne	 SHORT $LL12@GetFileNam
  00017	2b c6		 sub	 eax, esi
  00019	5e		 pop	 esi

; 158  : 	while( i-- )

  0001a	74 2b		 je	 SHORT $LN9@GetFileNam
  0001c	0f 1f 40 00	 npad	 4
$LL2@GetFileNam:
  00020	48		 dec	 eax

; 159  : 	{	// 스트링 뒤에서 부터 훑으며 \가 나오는곳을 찾는다.
; 160  : 		if( szSrc[i] == '\\' )

  00021	80 3c 10 5c	 cmp	 BYTE PTR [eax+edx], 92	; 0000005cH
  00025	8d 0c 10	 lea	 ecx, DWORD PTR [eax+edx]
  00028	74 10		 je	 SHORT $LN8@GetFileNam

; 163  : 			break;
; 164  : 		}
; 165  : 		if( i == 0 )		// 끝까지 검색했는데도 \가 나오지 않았으면 그대로 씀

  0002a	85 c0		 test	 eax, eax
  0002c	75 f2		 jne	 SHORT $LL2@GetFileNam

; 166  : 			lstrcpy( szFileName, szSrc );

  0002e	52		 push	 edx

; 167  : 	}
; 168  : }

  0002f	ff 75 0c	 push	 DWORD PTR _szFileName$[ebp]
  00032	ff 15 00 00 00
	00		 call	 DWORD PTR __imp__lstrcpyA@8
  00038	5d		 pop	 ebp
  00039	c3		 ret	 0
$LN8@GetFileNam:

; 161  : 		{
; 162  : 			lstrcpy( szFileName, szSrc + i + 1 );	// \가 나온 다음 칸부터 파일명으로 씀

  0003a	8d 41 01	 lea	 eax, DWORD PTR [ecx+1]
  0003d	50		 push	 eax

; 167  : 	}
; 168  : }

  0003e	ff 75 0c	 push	 DWORD PTR _szFileName$[ebp]
  00041	ff 15 00 00 00
	00		 call	 DWORD PTR __imp__lstrcpyA@8
$LN9@GetFileNam:
  00047	5d		 pop	 ebp
  00048	c3		 ret	 0
?GetFileName@@YAXPBDPAD@Z ENDP				; GetFileName
_TEXT	ENDS
; Function compile flags: /Ogtp
; File C:\IAGOS\server\v18\Source\Source\_Common\xUtil.cpp
;	COMDAT ?xSRand@@YAXK@Z
_TEXT	SEGMENT
_seed$ = 8						; size = 4
?xSRand@@YAXK@Z PROC					; xSRand, COMDAT

; 60   : {

  00000	55		 push	 ebp
  00001	8b ec		 mov	 ebp, esp

; 61   :    g_next = seed;

  00003	8b 45 08	 mov	 eax, DWORD PTR _seed$[ebp]
  00006	a3 00 00 00 00	 mov	 DWORD PTR ?g_next@@3KA, eax ; g_next

; 62   : }

  0000b	5d		 pop	 ebp
  0000c	c3		 ret	 0
?xSRand@@YAXK@Z ENDP					; xSRand
_TEXT	ENDS
; Function compile flags: /Ogtp
; File C:\IAGOS\server\v18\Source\Source\_Common\xUtil.cpp
;	COMDAT ?xRandomF@@YAMM@Z
_TEXT	SEGMENT
_num$ = 8						; size = 4
tv69 = 8						; size = 4
?xRandomF@@YAMM@Z PROC					; xRandomF, COMDAT

; 55   : {

  00000	55		 push	 ebp
  00001	8b ec		 mov	 ebp, esp

; 56   : 	return ((float)rand() / (float)RAND_MAX) * (float)num;

  00003	e8 00 00 00 00	 call	 _rand
  00008	66 0f 6e c0	 movd	 xmm0, eax
  0000c	0f 5b c0	 cvtdq2ps xmm0, xmm0
  0000f	f3 0f 5e 05 00
	00 00 00	 divss	 xmm0, DWORD PTR __real@46fffe00
  00017	f3 0f 59 45 08	 mulss	 xmm0, DWORD PTR _num$[ebp]
  0001c	f3 0f 11 45 08	 movss	 DWORD PTR tv69[ebp], xmm0
  00021	d9 45 08	 fld	 DWORD PTR tv69[ebp]

; 57   : }

  00024	5d		 pop	 ebp
  00025	c3		 ret	 0
?xRandomF@@YAMM@Z ENDP					; xRandomF
_TEXT	ENDS
; Function compile flags: /Ogtp
; File C:\IAGOS\server\v18\Source\Source\_Common\xUtil.cpp
; File C:\IAGOS\server\v18\Source\Source\_Common\xUtil.h
; File C:\IAGOS\server\v18\Source\Source\_Common\xUtil.cpp
; File C:\IAGOS\server\v18\Source\Source\_Common\xUtil.h
; File C:\IAGOS\server\v18\Source\Source\_Common\xUtil.cpp
;	COMDAT ?xRandom@@YAKKK@Z
_TEXT	SEGMENT
_min$ = 8						; size = 4
_max$ = 12						; size = 4
?xRandom@@YAKKK@Z PROC					; xRandom, COMDAT

; 46   : {

  00000	55		 push	 ebp
  00001	8b ec		 mov	 ebp, esp

; 47   : 	if( max > min )

  00003	8b 4d 08	 mov	 ecx, DWORD PTR _min$[ebp]
  00006	56		 push	 esi
  00007	8b 75 0c	 mov	 esi, DWORD PTR _max$[ebp]
  0000a	3b f1		 cmp	 esi, ecx
  0000c	76 20		 jbe	 SHORT $LN2@xRandom
; File C:\IAGOS\server\v18\Source\Source\_Common\xUtil.h

; 16   : 	g_next = g_next * 1103515245 + 12345;// + nRandomSeed[ i++ ];

  0000e	69 05 00 00 00
	00 6d 4e c6 41	 imul	 eax, DWORD PTR ?g_next@@3KA, 1103515245 ; g_next
; File C:\IAGOS\server\v18\Source\Source\_Common\xUtil.cpp

; 48   : 		return min + xRandom( max - min );

  00018	2b f1		 sub	 esi, ecx
  0001a	33 d2		 xor	 edx, edx
; File C:\IAGOS\server\v18\Source\Source\_Common\xUtil.h

; 16   : 	g_next = g_next * 1103515245 + 12345;// + nRandomSeed[ i++ ];

  0001c	05 39 30 00 00	 add	 eax, 12345		; 00003039H
  00021	a3 00 00 00 00	 mov	 DWORD PTR ?g_next@@3KA, eax ; g_next
; File C:\IAGOS\server\v18\Source\Source\_Common\xUtil.cpp

; 48   : 		return min + xRandom( max - min );

  00026	f7 f6		 div	 esi
  00028	5e		 pop	 esi
  00029	8d 04 11	 lea	 eax, DWORD PTR [ecx+edx]

; 51   : }

  0002c	5d		 pop	 ebp
  0002d	c3		 ret	 0
$LN2@xRandom:

; 49   : 	else
; 50   : 		return min;

  0002e	8b c1		 mov	 eax, ecx
  00030	5e		 pop	 esi

; 51   : }

  00031	5d		 pop	 ebp
  00032	c3		 ret	 0
?xRandom@@YAKKK@Z ENDP					; xRandom
_TEXT	ENDS
; Function compile flags: /Ogtp
; File C:\Program Files\Microsoft Visual Studio\2022\Professional\VC\Tools\MSVC\14.44.35207\atlmfc\include\cstringt.h
; File C:\Program Files\Microsoft Visual Studio\2022\Professional\VC\Tools\MSVC\14.44.35207\atlmfc\include\atlsimpstr.h
; File C:\Program Files\Microsoft Visual Studio\2022\Professional\VC\Tools\MSVC\14.44.35207\atlmfc\include\cstringt.h
;	COMDAT ??1?$CStringT@DV?$StrTraitMFC@DV?$ChTraitsCRT@D@ATL@@@@@ATL@@QAE@XZ
_TEXT	SEGMENT
??1?$CStringT@DV?$StrTraitMFC@DV?$ChTraitsCRT@D@ATL@@@@@ATL@@QAE@XZ PROC ; ATL::CStringT<char,StrTraitMFC<char,ATL::ChTraitsCRT<char> > >::~CStringT<char,StrTraitMFC<char,ATL::ChTraitsCRT<char> > >, COMDAT
; _this$ = ecx
; File C:\Program Files\Microsoft Visual Studio\2022\Professional\VC\Tools\MSVC\14.44.35207\atlmfc\include\atlsimpstr.h

; 804  : 		return( reinterpret_cast< CStringData* >( m_pszData )-1 );

  00000	8b 11		 mov	 edx, DWORD PTR [ecx]

; 92   : 		if( _InterlockedDecrement( &nRefs ) <= 0 )

  00002	83 c8 ff	 or	 eax, -1

; 804  : 		return( reinterpret_cast< CStringData* >( m_pszData )-1 );

  00005	83 ea 10	 sub	 edx, 16			; 00000010H

; 92   : 		if( _InterlockedDecrement( &nRefs ) <= 0 )

  00008	f0 0f c1 42 0c	 lock	  xadd	 DWORD PTR [edx+12], eax
  0000d	48		 dec	 eax
  0000e	85 c0		 test	 eax, eax
  00010	7f 08		 jg	 SHORT $LN8@CStringT

; 93   : 		{
; 94   : 			pStringMgr->Free( this );

  00012	8b 0a		 mov	 ecx, DWORD PTR [edx]
  00014	52		 push	 edx
  00015	8b 01		 mov	 eax, DWORD PTR [ecx]
  00017	ff 50 04	 call	 DWORD PTR [eax+4]
$LN8@CStringT:
; File C:\Program Files\Microsoft Visual Studio\2022\Professional\VC\Tools\MSVC\14.44.35207\atlmfc\include\cstringt.h

; 1303 : 	}

  0001a	c3		 ret	 0
??1?$CStringT@DV?$StrTraitMFC@DV?$ChTraitsCRT@D@ATL@@@@@ATL@@QAE@XZ ENDP ; ATL::CStringT<char,StrTraitMFC<char,ATL::ChTraitsCRT<char> > >::~CStringT<char,StrTraitMFC<char,ATL::ChTraitsCRT<char> > >
_TEXT	ENDS
; Function compile flags: /Ogtp
; File C:\Program Files\Microsoft Visual Studio\2022\Professional\VC\Tools\MSVC\14.44.35207\atlmfc\include\atlsimpstr.h
;	COMDAT ?Reallocate@?$CSimpleStringT@D$0A@@ATL@@AAEXH@Z
_TEXT	SEGMENT
_nLength$ = 8						; size = 4
?Reallocate@?$CSimpleStringT@D$0A@@ATL@@AAEXH@Z PROC	; ATL::CSimpleStringT<char,0>::Reallocate, COMDAT
; _this$ = ecx

; 853  : 	{

  00000	55		 push	 ebp
  00001	8b ec		 mov	 ebp, esp
  00003	56		 push	 esi

; 854  : 		CStringData* pOldData = GetData();
; 855  : 		ATLASSERT( pOldData->nAllocLength < nLength );
; 856  : 		IAtlStringMgr* pStringMgr = pOldData->pStringMgr;
; 857  : 		if ( pOldData->nAllocLength >= nLength || nLength <= 0)

  00004	8b 75 08	 mov	 esi, DWORD PTR _nLength$[ebp]
  00007	57		 push	 edi
  00008	8b f9		 mov	 edi, ecx

; 804  : 		return( reinterpret_cast< CStringData* >( m_pszData )-1 );

  0000a	8b 17		 mov	 edx, DWORD PTR [edi]
  0000c	83 ea 10	 sub	 edx, 16			; 00000010H

; 854  : 		CStringData* pOldData = GetData();
; 855  : 		ATLASSERT( pOldData->nAllocLength < nLength );
; 856  : 		IAtlStringMgr* pStringMgr = pOldData->pStringMgr;
; 857  : 		if ( pOldData->nAllocLength >= nLength || nLength <= 0)

  0000f	39 72 08	 cmp	 DWORD PTR [edx+8], esi
  00012	7d 1e		 jge	 SHORT $LN3@Reallocate
  00014	85 f6		 test	 esi, esi
  00016	7e 1a		 jle	 SHORT $LN3@Reallocate

; 860  : 			return;
; 861  : 		}
; 862  : 		CStringData* pNewData = pStringMgr->Reallocate( pOldData, nLength, sizeof( XCHAR ) );

  00018	8b 0a		 mov	 ecx, DWORD PTR [edx]
  0001a	6a 01		 push	 1
  0001c	56		 push	 esi
  0001d	52		 push	 edx
  0001e	8b 01		 mov	 eax, DWORD PTR [ecx]
  00020	ff 50 08	 call	 DWORD PTR [eax+8]

; 863  : 		if( pNewData == NULL )

  00023	85 c0		 test	 eax, eax
  00025	74 0b		 je	 SHORT $LN3@Reallocate

; 864  : 		{
; 865  : 			ThrowMemoryException();
; 866  : 		}
; 867  : 		Attach( pNewData );

  00027	83 c0 10	 add	 eax, 16			; 00000010H
  0002a	89 07		 mov	 DWORD PTR [edi], eax
  0002c	5f		 pop	 edi
  0002d	5e		 pop	 esi

; 868  : 	}

  0002e	5d		 pop	 ebp
  0002f	c2 04 00	 ret	 4
$LN3@Reallocate:

; 858  : 		{
; 859  : 			ThrowMemoryException();

  00032	e8 00 00 00 00	 call	 ?ThrowMemoryException@?$CSimpleStringT@D$0A@@ATL@@KAXXZ ; ATL::CSimpleStringT<char,0>::ThrowMemoryException
$LN12@Reallocate:
  00037	cc		 int	 3
?Reallocate@?$CSimpleStringT@D$0A@@ATL@@AAEXH@Z ENDP	; ATL::CSimpleStringT<char,0>::Reallocate
_TEXT	ENDS
; Function compile flags: /Ogtp
; File C:\Program Files\Microsoft Visual Studio\2022\Professional\VC\Tools\MSVC\14.44.35207\atlmfc\include\atlsimpstr.h
;	COMDAT ?PrepareWrite2@?$CSimpleStringT@D$0A@@ATL@@AAEXH@Z
_TEXT	SEGMENT
_nLength$ = 8						; size = 4
?PrepareWrite2@?$CSimpleStringT@D$0A@@ATL@@AAEXH@Z PROC	; ATL::CSimpleStringT<char,0>::PrepareWrite2, COMDAT
; _this$ = ecx

; 822  : 	{

  00000	55		 push	 ebp
  00001	8b ec		 mov	 ebp, esp
  00003	56		 push	 esi

; 823  : 		CStringData* pOldData = GetData();
; 824  : 		if( pOldData->nDataLength > nLength )

  00004	8b 75 08	 mov	 esi, DWORD PTR _nLength$[ebp]
  00007	57		 push	 edi
  00008	8b f9		 mov	 edi, ecx

; 804  : 		return( reinterpret_cast< CStringData* >( m_pszData )-1 );

  0000a	8b 0f		 mov	 ecx, DWORD PTR [edi]

; 823  : 		CStringData* pOldData = GetData();
; 824  : 		if( pOldData->nDataLength > nLength )

  0000c	39 71 f4	 cmp	 DWORD PTR [ecx-12], esi
  0000f	0f 4f 71 f4	 cmovg	 esi, DWORD PTR [ecx-12]

; 77   : 		return( nRefs > 1 );

  00013	83 79 fc 01	 cmp	 DWORD PTR [ecx-4], 1

; 825  : 		{
; 826  : 			nLength = pOldData->nDataLength;
; 827  : 		}
; 828  : 		if( pOldData->IsShared() )

  00017	7e 0e		 jle	 SHORT $LN3@PrepareWri

; 829  : 		{
; 830  : 			Fork( nLength );

  00019	56		 push	 esi
  0001a	8b cf		 mov	 ecx, edi
  0001c	e8 00 00 00 00	 call	 ?Fork@?$CSimpleStringT@D$0A@@ATL@@AAEXH@Z ; ATL::CSimpleStringT<char,0>::Fork
  00021	5f		 pop	 edi

; 850  : 		}
; 851  : 	}

  00022	5e		 pop	 esi
  00023	5d		 pop	 ebp
  00024	c2 04 00	 ret	 4
$LN3@PrepareWri:

; 831  : 		}
; 832  : 		else if( pOldData->nAllocLength < nLength )

  00027	8b 49 f8	 mov	 ecx, DWORD PTR [ecx-8]
  0002a	3b ce		 cmp	 ecx, esi
  0002c	7d 25		 jge	 SHORT $LN5@PrepareWri

; 833  : 		{
; 834  : 			// Grow exponentially, until we hit 1G, then by 1M thereafter.
; 835  : 			int nNewLength = pOldData->nAllocLength;
; 836  : 			if( nNewLength > 1024 * 1024 * 1024 )

  0002e	81 f9 00 00 00
	40		 cmp	 ecx, 1073741824		; 40000000H
  00034	7e 07		 jle	 SHORT $LN6@PrepareWri

; 837  : 			{
; 838  : 				nNewLength += 1024 * 1024;

  00036	b8 00 00 10 00	 mov	 eax, 1048576		; 00100000H

; 839  : 			}

  0003b	eb 07		 jmp	 SHORT $LN7@PrepareWri
$LN6@PrepareWri:

; 840  : 			else
; 841  : 			{
; 842  : 				// Exponential growth factor is 1.5.
; 843  : 				nNewLength = nNewLength + nNewLength / 2;

  0003d	8b c1		 mov	 eax, ecx
  0003f	99		 cdq
  00040	2b c2		 sub	 eax, edx
  00042	d1 f8		 sar	 eax, 1
$LN7@PrepareWri:

; 844  : 			}
; 845  : 			if( nNewLength < nLength )

  00044	03 c1		 add	 eax, ecx

; 846  : 			{
; 847  : 				nNewLength = nLength;
; 848  : 			}
; 849  : 			Reallocate( nNewLength );

  00046	8b cf		 mov	 ecx, edi
  00048	3b c6		 cmp	 eax, esi
  0004a	0f 4d f0	 cmovge	 esi, eax
  0004d	56		 push	 esi
  0004e	e8 00 00 00 00	 call	 ?Reallocate@?$CSimpleStringT@D$0A@@ATL@@AAEXH@Z ; ATL::CSimpleStringT<char,0>::Reallocate
$LN5@PrepareWri:

; 850  : 		}
; 851  : 	}

  00053	5f		 pop	 edi
  00054	5e		 pop	 esi
  00055	5d		 pop	 ebp
  00056	c2 04 00	 ret	 4
?PrepareWrite2@?$CSimpleStringT@D$0A@@ATL@@AAEXH@Z ENDP	; ATL::CSimpleStringT<char,0>::PrepareWrite2
_TEXT	ENDS
; Function compile flags: /Ogtp
; File C:\Program Files\Microsoft Visual Studio\2022\Professional\VC\Tools\MSVC\14.44.35207\atlmfc\include\atlsimpstr.h
; File C:\Program Files (x86)\Windows Kits\10\Include\10.0.26100.0\ucrt\corecrt_memcpy_s.h
; File C:\Program Files\Microsoft Visual Studio\2022\Professional\VC\Tools\MSVC\14.44.35207\atlmfc\include\atlsimpstr.h
;	COMDAT ?Fork@?$CSimpleStringT@D$0A@@ATL@@AAEXH@Z
_TEXT	SEGMENT
_this$1$ = -12						; size = 4
_nOldLength$1$ = -8					; size = 4
__Source$1$ = -4					; size = 4
_nLength$ = 8						; size = 4
_pNewData$1$ = 8					; size = 4
?Fork@?$CSimpleStringT@D$0A@@ATL@@AAEXH@Z PROC		; ATL::CSimpleStringT<char,0>::Fork, COMDAT
; _this$ = ecx

; 787  : 	{

  00000	55		 push	 ebp
  00001	8b ec		 mov	 ebp, esp
  00003	83 ec 0c	 sub	 esp, 12			; 0000000cH
  00006	8b c1		 mov	 eax, ecx
  00008	89 45 f4	 mov	 DWORD PTR _this$1$[ebp], eax
  0000b	53		 push	 ebx
  0000c	56		 push	 esi

; 804  : 		return( reinterpret_cast< CStringData* >( m_pszData )-1 );

  0000d	8b 00		 mov	 eax, DWORD PTR [eax]

; 790  : 		CStringData* pNewData = pOldData->pStringMgr->Clone()->Allocate( nLength, sizeof( XCHAR ) );

  0000f	8b 48 f0	 mov	 ecx, DWORD PTR [eax-16]

; 804  : 		return( reinterpret_cast< CStringData* >( m_pszData )-1 );

  00012	8d 58 f0	 lea	 ebx, DWORD PTR [eax-16]
  00015	89 45 fc	 mov	 DWORD PTR __Source$1$[ebp], eax

; 787  : 	{

  00018	57		 push	 edi

; 788  : 		CStringData* pOldData = GetData();
; 789  : 		int nOldLength = pOldData->nDataLength;

  00019	8b 7b 04	 mov	 edi, DWORD PTR [ebx+4]

; 790  : 		CStringData* pNewData = pOldData->pStringMgr->Clone()->Allocate( nLength, sizeof( XCHAR ) );

  0001c	8b 01		 mov	 eax, DWORD PTR [ecx]
  0001e	89 7d f8	 mov	 DWORD PTR _nOldLength$1$[ebp], edi
  00021	ff 50 10	 call	 DWORD PTR [eax+16]
  00024	8b 75 08	 mov	 esi, DWORD PTR _nLength$[ebp]
  00027	8b c8		 mov	 ecx, eax
  00029	6a 01		 push	 1
  0002b	56		 push	 esi
  0002c	8b 10		 mov	 edx, DWORD PTR [eax]
  0002e	ff 12		 call	 DWORD PTR [edx]
  00030	89 45 08	 mov	 DWORD PTR _pNewData$1$[ebp], eax

; 791  : 		if( pNewData == NULL )

  00033	85 c0		 test	 eax, eax
  00035	74 6c		 je	 SHORT $LN25@Fork

; 794  : 		}
; 795  : 		int nCharsToCopy = ((nOldLength < nLength) ? nOldLength : nLength)+1;  // Copy '\0'

  00037	3b fe		 cmp	 edi, esi
  00039	0f 4c f7	 cmovl	 esi, edi

; 796  : 		memcpy_s( PXSTR( pNewData->data() ), nCharsToCopy * sizeof( XCHAR ),

  0003c	8d 78 10	 lea	 edi, DWORD PTR [eax+16]
  0003f	83 c6 01	 add	 esi, 1
; File C:\Program Files (x86)\Windows Kits\10\Include\10.0.26100.0\ucrt\corecrt_memcpy_s.h

; 47   :         if (_SourceSize == 0)

  00042	74 33		 je	 SHORT $LN11@Fork

; 48   :         {
; 49   :             return 0;
; 50   :         }
; 51   : 
; 52   :         _CRT_MEMCPY_S_VALIDATE_RETURN_ERRCODE(_Destination != NULL, EINVAL);

  00044	85 ff		 test	 edi, edi
  00046	74 1f		 je	 SHORT $LN23@Fork

; 53   :         if (_Source == NULL || _DestinationSize < _SourceSize)

  00048	8b 45 fc	 mov	 eax, DWORD PTR __Source$1$[ebp]
  0004b	56		 push	 esi
  0004c	85 c0		 test	 eax, eax
  0004e	74 0c		 je	 SHORT $LN10@Fork

; 56   : 
; 57   :             _CRT_MEMCPY_S_VALIDATE_RETURN_ERRCODE(_Source != NULL,                 EINVAL);
; 58   :             _CRT_MEMCPY_S_VALIDATE_RETURN_ERRCODE(_DestinationSize >= _SourceSize, ERANGE);
; 59   : 
; 60   :             // Unreachable, but required to suppress /analyze warnings:
; 61   :             return EINVAL;
; 62   :         }
; 63   :         memcpy(_Destination, _Source, _SourceSize);

  00050	50		 push	 eax
  00051	57		 push	 edi
  00052	e8 00 00 00 00	 call	 _memcpy
  00057	83 c4 0c	 add	 esp, 12			; 0000000cH
  0005a	eb 1b		 jmp	 SHORT $LN11@Fork
$LN10@Fork:

; 54   :         {
; 55   :             memset(_Destination, 0, _DestinationSize);

  0005c	6a 00		 push	 0
  0005e	57		 push	 edi
  0005f	e8 00 00 00 00	 call	 _memset
  00064	83 c4 0c	 add	 esp, 12			; 0000000cH
$LN23@Fork:
; File C:\Program Files\Microsoft Visual Studio\2022\Professional\VC\Tools\MSVC\14.44.35207\atlmfc\include\atlsimpstr.h

; 798  : 		pNewData->nDataLength = nOldLength;

  00067	e8 00 00 00 00	 call	 __errno
  0006c	c7 00 16 00 00
	00		 mov	 DWORD PTR [eax], 22	; 00000016H
  00072	e8 00 00 00 00	 call	 __invalid_parameter_noinfo
$LN11@Fork:
  00077	8b 4d 08	 mov	 ecx, DWORD PTR _pNewData$1$[ebp]
  0007a	8b 45 f8	 mov	 eax, DWORD PTR _nOldLength$1$[ebp]
  0007d	89 41 04	 mov	 DWORD PTR [ecx+4], eax

; 92   : 		if( _InterlockedDecrement( &nRefs ) <= 0 )

  00080	83 c8 ff	 or	 eax, -1
  00083	f0 0f c1 43 0c	 lock	  xadd	 DWORD PTR [ebx+12], eax
  00088	48		 dec	 eax
  00089	85 c0		 test	 eax, eax
  0008b	7f 08		 jg	 SHORT $LN15@Fork

; 93   : 		{
; 94   : 			pStringMgr->Free( this );

  0008d	8b 0b		 mov	 ecx, DWORD PTR [ebx]
  0008f	53		 push	 ebx
  00090	8b 01		 mov	 eax, DWORD PTR [ecx]
  00092	ff 50 04	 call	 DWORD PTR [eax+4]
$LN15@Fork:

; 799  : 		pOldData->Release();
; 800  : 		Attach( pNewData );

  00095	8b 45 f4	 mov	 eax, DWORD PTR _this$1$[ebp]
  00098	89 38		 mov	 DWORD PTR [eax], edi

; 801  : 	}

  0009a	5f		 pop	 edi
  0009b	5e		 pop	 esi
  0009c	5b		 pop	 ebx
  0009d	8b e5		 mov	 esp, ebp
  0009f	5d		 pop	 ebp
  000a0	c2 04 00	 ret	 4
$LN25@Fork:

; 792  : 		{
; 793  : 			ThrowMemoryException();

  000a3	e8 00 00 00 00	 call	 ?ThrowMemoryException@?$CSimpleStringT@D$0A@@ATL@@KAXXZ ; ATL::CSimpleStringT<char,0>::ThrowMemoryException
$LN22@Fork:
  000a8	cc		 int	 3
?Fork@?$CSimpleStringT@D$0A@@ATL@@AAEXH@Z ENDP		; ATL::CSimpleStringT<char,0>::Fork
_TEXT	ENDS
; Function compile flags: /Ogtp
; File C:\Program Files\Microsoft Visual Studio\2022\Professional\VC\Tools\MSVC\14.44.35207\atlmfc\include\atlsimpstr.h
;	COMDAT ?ThrowMemoryException@?$CSimpleStringT@D$0A@@ATL@@KAXXZ
_TEXT	SEGMENT
?ThrowMemoryException@?$CSimpleStringT@D$0A@@ATL@@KAXXZ PROC ; ATL::CSimpleStringT<char,0>::ThrowMemoryException, COMDAT

; 777  : 		AtlThrow( E_OUTOFMEMORY );

  00000	68 0e 00 07 80	 push	 -2147024882		; 8007000eH
  00005	e8 00 00 00 00	 call	 ?AtlThrowImpl@ATL@@YGXJ@Z ; ATL::AtlThrowImpl
$LN3@ThrowMemor:
  0000a	cc		 int	 3
?ThrowMemoryException@?$CSimpleStringT@D$0A@@ATL@@KAXXZ ENDP ; ATL::CSimpleStringT<char,0>::ThrowMemoryException
_TEXT	ENDS
; Function compile flags: /Ogtp
; File C:\Program Files\Microsoft Visual Studio\2022\Professional\VC\Tools\MSVC\14.44.35207\atlmfc\include\atlexcept.h
;	COMDAT ?AtlThrowImpl@ATL@@YGXJ@Z
_TEXT	SEGMENT
_hr$ = 8						; size = 4
?AtlThrowImpl@ATL@@YGXJ@Z PROC				; ATL::AtlThrowImpl, COMDAT

; 69   : {

  00000	55		 push	 ebp
  00001	8b ec		 mov	 ebp, esp

; 70   : 	ATLTRACE(atlTraceException, 0, _T("AtlThrow: hr = 0x%x\n"), hr );
; 71   : #ifdef _AFX
; 72   : 	if( hr == E_OUTOFMEMORY )

  00003	8b 45 08	 mov	 eax, DWORD PTR _hr$[ebp]
  00006	3d 0e 00 07 80	 cmp	 eax, -2147024882	; 8007000eH
  0000b	75 05		 jne	 SHORT $LN2@AtlThrowIm

; 73   : 	{
; 74   : 		AfxThrowMemoryException();

  0000d	e8 00 00 00 00	 call	 ?AfxThrowMemoryException@@YGXXZ ; AfxThrowMemoryException
$LN2@AtlThrowIm:

; 75   : 	}
; 76   : 	else
; 77   : 	{
; 78   : 		AfxThrowOleException( hr );

  00012	50		 push	 eax
  00013	e8 00 00 00 00	 call	 ?AfxThrowOleException@@YGXJ@Z ; AfxThrowOleException
$LN5@AtlThrowIm:
  00018	cc		 int	 3
?AtlThrowImpl@ATL@@YGXJ@Z ENDP				; ATL::AtlThrowImpl
_TEXT	ENDS
; Function compile flags: /Ogtp
; File C:\Program Files (x86)\Windows Kits\10\Include\10.0.26100.0\ucrt\stdio.h
;	COMDAT _sprintf
_TEXT	SEGMENT
__Buffer$ = 8						; size = 4
__Format$ = 12						; size = 4
_sprintf PROC						; COMDAT

; 1771 :     {

  00000	55		 push	 ebp
  00001	8b ec		 mov	 ebp, esp

; 1392 :         int const _Result = __stdio_common_vsprintf(

  00003	8d 45 10	 lea	 eax, DWORD PTR __Format$[ebp+4]
  00006	50		 push	 eax
  00007	6a 00		 push	 0
  00009	ff 75 0c	 push	 DWORD PTR __Format$[ebp]
  0000c	6a ff		 push	 -1
  0000e	ff 75 08	 push	 DWORD PTR __Buffer$[ebp]
  00011	e8 00 00 00 00	 call	 ___local_stdio_printf_options
  00016	8b 08		 mov	 ecx, DWORD PTR [eax]
  00018	ff 70 04	 push	 DWORD PTR [eax+4]
  0001b	83 c9 01	 or	 ecx, 1
  0001e	51		 push	 ecx
  0001f	e8 00 00 00 00	 call	 ___stdio_common_vsprintf

; 1393 :             _CRT_INTERNAL_LOCAL_PRINTF_OPTIONS | _CRT_INTERNAL_PRINTF_LEGACY_VSPRINTF_NULL_TERMINATION,
; 1394 :             _Buffer, _BufferCount, _Format, _Locale, _ArgList);
; 1395 : 
; 1396 :         return _Result < 0 ? -1 : _Result;

  00024	83 c9 ff	 or	 ecx, -1
  00027	83 c4 1c	 add	 esp, 28			; 0000001cH
  0002a	85 c0		 test	 eax, eax
  0002c	0f 48 c1	 cmovs	 eax, ecx

; 1772 :         int _Result;
; 1773 :         va_list _ArgList;
; 1774 :         __crt_va_start(_ArgList, _Format);
; 1775 : 
; 1776 :         _Result = _vsprintf_l(_Buffer, _Format, NULL, _ArgList);
; 1777 : 
; 1778 :         __crt_va_end(_ArgList);
; 1779 :         return _Result;
; 1780 :     }

  0002f	5d		 pop	 ebp
  00030	c3		 ret	 0
_sprintf ENDP
_TEXT	ENDS
; Function compile flags: /Ogtp
; File C:\Program Files (x86)\Windows Kits\10\Include\10.0.26100.0\ucrt\stdio.h
;	COMDAT __vsnprintf
_TEXT	SEGMENT
__Buffer$ = 8						; size = 4
__BufferCount$ = 12					; size = 4
__Format$ = 16						; size = 4
__ArgList$ = 20						; size = 4
__vsnprintf PROC					; COMDAT

; 1411 :     {

  00000	55		 push	 ebp
  00001	8b ec		 mov	 ebp, esp

; 1392 :         int const _Result = __stdio_common_vsprintf(

  00003	ff 75 14	 push	 DWORD PTR __ArgList$[ebp]
  00006	6a 00		 push	 0
  00008	ff 75 10	 push	 DWORD PTR __Format$[ebp]
  0000b	ff 75 0c	 push	 DWORD PTR __BufferCount$[ebp]
  0000e	ff 75 08	 push	 DWORD PTR __Buffer$[ebp]
  00011	e8 00 00 00 00	 call	 ___local_stdio_printf_options
  00016	8b 08		 mov	 ecx, DWORD PTR [eax]
  00018	ff 70 04	 push	 DWORD PTR [eax+4]
  0001b	83 c9 01	 or	 ecx, 1
  0001e	51		 push	 ecx
  0001f	e8 00 00 00 00	 call	 ___stdio_common_vsprintf

; 1393 :             _CRT_INTERNAL_LOCAL_PRINTF_OPTIONS | _CRT_INTERNAL_PRINTF_LEGACY_VSPRINTF_NULL_TERMINATION,
; 1394 :             _Buffer, _BufferCount, _Format, _Locale, _ArgList);
; 1395 : 
; 1396 :         return _Result < 0 ? -1 : _Result;

  00024	83 c9 ff	 or	 ecx, -1
  00027	83 c4 1c	 add	 esp, 28			; 0000001cH
  0002a	85 c0		 test	 eax, eax
  0002c	0f 48 c1	 cmovs	 eax, ecx

; 1412 :         return _vsnprintf_l(_Buffer, _BufferCount, _Format, NULL, _ArgList);
; 1413 :     }

  0002f	5d		 pop	 ebp
  00030	c3		 ret	 0
__vsnprintf ENDP
_TEXT	ENDS
; Function compile flags: /Ogtp
; File C:\Program Files (x86)\Windows Kits\10\Include\10.0.26100.0\ucrt\corecrt_stdio_config.h
;	COMDAT ___local_stdio_printf_options
_TEXT	SEGMENT
___local_stdio_printf_options PROC			; COMDAT

; 91   :         static unsigned __int64 _OptionsStorage;
; 92   :         return &_OptionsStorage;

  00000	b8 00 00 00 00	 mov	 eax, OFFSET ?_OptionsStorage@?1??__local_stdio_printf_options@@9@4_KA ; `__local_stdio_printf_options'::`2'::_OptionsStorage

; 93   :     }

  00005	c3		 ret	 0
___local_stdio_printf_options ENDP
_TEXT	ENDS
; Function compile flags: /Ogtp
; File C:\IAGOS\server\v18\Source\Source\_Common\xUtil.cpp
;	COMDAT ?__empty_global_delete@@YAXPAXI@Z
_TEXT	SEGMENT
___formal$ = 8						; size = 4
___formal$ = 12						; size = 4
?__empty_global_delete@@YAXPAXI@Z PROC			; __empty_global_delete, COMDAT

  00000	c2 00 00	 ret	 0
?__empty_global_delete@@YAXPAXI@Z ENDP			; __empty_global_delete
_TEXT	ENDS
; Function compile flags: /Ogtp
; File C:\IAGOS\server\v18\Source\Source\_Common\xUtil.cpp
;	COMDAT ?__empty_global_delete@@YAXPAX@Z
_TEXT	SEGMENT
___formal$ = 8						; size = 4
?__empty_global_delete@@YAXPAX@Z PROC			; __empty_global_delete, COMDAT

  00000	c2 00 00	 ret	 0
?__empty_global_delete@@YAXPAX@Z ENDP			; __empty_global_delete
_TEXT	ENDS
END
