; Listing generated by Microsoft (R) Optimizing Compiler Version 19.44.35225.0 

	TITLE	C:\IAGOS\server\v18\Source\Output\WorldServer\Release\xutil3d.obj
	.686P
	.XMM
	include listing.inc
	.model	flat

INCLUDELIB LIBCMT
INCLUDELIB OLDNAMES

PUBLIC	?__empty_global_delete@@YAXPAX@Z		; __empty_global_delete
PUBLIC	?__empty_global_delete@@YAXPAXI@Z		; __empty_global_delete
PUBLIC	??0D3DXVECTOR3@@QAE@XZ				; D3DXVECTOR3::D3DXVECTOR3
PUBLIC	?QuaternionRotationToYPW@@YAXABUD3DXQUATERNION@@AAUD3DXVECTOR3@@@Z ; QuaternionRotationToYPW
PUBLIC	?SetBB@@YAXPAUD3DXVECTOR3@@ABU1@1@Z		; SetBB
PUBLIC	?IsTouchAABB@@YAHABUD3DXVECTOR3@@000@Z		; IsTouchAABB
PUBLIC	?IsTouchAABB_Line@@YAHABUD3DXVECTOR3@@000PAU1@@Z ; IsTouchAABB_Line
PUBLIC	?IsTouchOBB_Line@@YAHABUD3DXVECTOR3@@0ABUD3DXMATRIX@@00PAU1@@Z ; IsTouchOBB_Line
PUBLIC	?IsTouchRayTri@@YAHPBUD3DXVECTOR3@@0000PAM@Z	; IsTouchRayTri
PUBLIC	?CalcSlideVec@@YAXPAUD3DXVECTOR3@@ABU1@1@Z	; CalcSlideVec
PUBLIC	??0Segment3@@QAE@ABUD3DXVECTOR3@@0@Z		; Segment3::Segment3
PUBLIC	?UpdateMartix@BBOX@@QAEXABUD3DXVECTOR3@@0ABUD3DXMATRIX@@11@Z ; BBOX::UpdateMartix
PUBLIC	?IntrSegment3Box3_Test@@YA_NABVSegment3@@ABVBBOX@@@Z ; IntrSegment3Box3_Test
PUBLIC	__real@00000000
PUBLIC	__real@38d1b717
PUBLIC	__real@3f000000
PUBLIC	__real@3f800000
PUBLIC	__xmm@7fffffff7fffffff7fffffff7fffffff
PUBLIC	__xmm@7fffffffffffffff7fffffffffffffff
PUBLIC	__xmm@80000000800000008000000080000000
EXTRN	_D3DXVec3Normalize@8:PROC
EXTRN	_D3DXVec3TransformCoord@12:PROC
EXTRN	_D3DXMatrixInverse@12:PROC
EXTRN	@__security_check_cookie@4:PROC
EXTRN	__CIatan2:PROC
EXTRN	__libm_sse2_asin_precise:PROC
EXTRN	__libm_sse2_sqrt_precise:PROC
EXTRN	___security_cookie:DWORD
EXTRN	__fltused:DWORD
;	COMDAT __xmm@80000000800000008000000080000000
CONST	SEGMENT
__xmm@80000000800000008000000080000000 DB 00H, 00H, 00H, 080H, 00H, 00H, 00H
	DB	080H, 00H, 00H, 00H, 080H, 00H, 00H, 00H, 080H
CONST	ENDS
;	COMDAT __xmm@7fffffffffffffff7fffffffffffffff
CONST	SEGMENT
__xmm@7fffffffffffffff7fffffffffffffff DB 0ffH, 0ffH, 0ffH, 0ffH, 0ffH, 0ffH
	DB	0ffH, 07fH, 0ffH, 0ffH, 0ffH, 0ffH, 0ffH, 0ffH, 0ffH, 07fH
CONST	ENDS
;	COMDAT __xmm@7fffffff7fffffff7fffffff7fffffff
CONST	SEGMENT
__xmm@7fffffff7fffffff7fffffff7fffffff DB 0ffH, 0ffH, 0ffH, 07fH, 0ffH, 0ffH
	DB	0ffH, 07fH, 0ffH, 0ffH, 0ffH, 07fH, 0ffH, 0ffH, 0ffH, 07fH
CONST	ENDS
;	COMDAT __real@3f800000
CONST	SEGMENT
__real@3f800000 DD 03f800000r			; 1
CONST	ENDS
;	COMDAT __real@3f000000
CONST	SEGMENT
__real@3f000000 DD 03f000000r			; 0.5
CONST	ENDS
;	COMDAT __real@38d1b717
CONST	SEGMENT
__real@38d1b717 DD 038d1b717r			; 0.0001
CONST	ENDS
;	COMDAT __real@00000000
CONST	SEGMENT
__real@00000000 DD 000000000r			; 0
CONST	ENDS
; Function compile flags: /Ogtp
; File C:\IAGOS\server\v18\Source\Source\_Common\xutil3d.cpp
;	COMDAT ?CalcOutCode@@YAHABUD3DXVECTOR3@@00@Z
_TEXT	SEGMENT
_vMin$ = 8						; size = 4
_vMax$ = 12						; size = 4
_v$ = 16						; size = 4
?CalcOutCode@@YAHABUD3DXVECTOR3@@00@Z PROC		; CalcOutCode, COMDAT

; 96   : {

  00000	55		 push	 ebp
  00001	8b ec		 mov	 ebp, esp

; 97   : 	int nOutCode = 0;
; 98   : 
; 99   : 	if( v.x > vMax.x ) {

  00003	8b 55 10	 mov	 edx, DWORD PTR _v$[ebp]
  00006	33 c0		 xor	 eax, eax
  00008	8b 4d 08	 mov	 ecx, DWORD PTR _vMin$[ebp]
  0000b	56		 push	 esi
  0000c	8b 75 0c	 mov	 esi, DWORD PTR _vMax$[ebp]
  0000f	f3 0f 10 0a	 movss	 xmm1, DWORD PTR [edx]
  00013	0f 2f 0e	 comiss	 xmm1, DWORD PTR [esi]
  00016	76 07		 jbe	 SHORT $LN2@CalcOutCod

; 100  : 		nOutCode |= CLIP_RIGHT;

  00018	b8 01 00 00 00	 mov	 eax, 1
  0001d	eb 11		 jmp	 SHORT $LN4@CalcOutCod
$LN2@CalcOutCod:

; 101  : 	} else if( v.x < vMin.x ) {

  0001f	f3 0f 10 01	 movss	 xmm0, DWORD PTR [ecx]
  00023	0f 2f c1	 comiss	 xmm0, xmm1
  00026	57		 push	 edi
  00027	bf 02 00 00 00	 mov	 edi, 2
  0002c	0f 47 c7	 cmova	 eax, edi
  0002f	5f		 pop	 edi
$LN4@CalcOutCod:

; 102  : 		nOutCode |= CLIP_LEFT;
; 103  : 	}
; 104  : 	if( v.y > vMax.y ) {

  00030	f3 0f 10 4a 04	 movss	 xmm1, DWORD PTR [edx+4]
  00035	0f 2f 4e 04	 comiss	 xmm1, DWORD PTR [esi+4]
  00039	76 05		 jbe	 SHORT $LN5@CalcOutCod

; 105  : 		nOutCode |= CLIP_TOP;

  0003b	83 c8 04	 or	 eax, 4
  0003e	eb 0d		 jmp	 SHORT $LN7@CalcOutCod
$LN5@CalcOutCod:

; 106  : 	} else if( v.y < vMin.y ) {

  00040	f3 0f 10 41 04	 movss	 xmm0, DWORD PTR [ecx+4]
  00045	0f 2f c1	 comiss	 xmm0, xmm1
  00048	76 03		 jbe	 SHORT $LN7@CalcOutCod

; 107  : 		nOutCode |= CLIP_BOTTOM;

  0004a	83 c8 08	 or	 eax, 8
$LN7@CalcOutCod:

; 108  : 	}
; 109  : 	if( v.z > vMax.z ) {

  0004d	f3 0f 10 4a 08	 movss	 xmm1, DWORD PTR [edx+8]
  00052	0f 2f 4e 08	 comiss	 xmm1, DWORD PTR [esi+8]
  00056	5e		 pop	 esi
  00057	76 05		 jbe	 SHORT $LN8@CalcOutCod

; 110  : 		nOutCode |= CLIP_BACK;

  00059	83 c8 20	 or	 eax, 32			; 00000020H

; 113  : 	}
; 114  : 
; 115  : 	return nOutCode;
; 116  : }

  0005c	5d		 pop	 ebp
  0005d	c3		 ret	 0
$LN8@CalcOutCod:

; 111  : 	} else if( v.z < vMin.z ) {

  0005e	f3 0f 10 41 08	 movss	 xmm0, DWORD PTR [ecx+8]
  00063	0f 2f c1	 comiss	 xmm0, xmm1
  00066	76 03		 jbe	 SHORT $LN10@CalcOutCod

; 112  : 		nOutCode |= CLIP_FRONT;

  00068	83 c8 10	 or	 eax, 16			; 00000010H
$LN10@CalcOutCod:

; 113  : 	}
; 114  : 
; 115  : 	return nOutCode;
; 116  : }

  0006b	5d		 pop	 ebp
  0006c	c3		 ret	 0
?CalcOutCode@@YAHABUD3DXVECTOR3@@00@Z ENDP		; CalcOutCode
_TEXT	ENDS
; Function compile flags: /Ogtp
; File C:\IAGOS\server\v18\Source\Source\_Common\xutil3d.cpp
; File C:\IAGOS\server\v18\Source\Source\DX_SDK\d3dx9math.inl
; File C:\IAGOS\server\v18\Source\Source\_Common\xutil3d.cpp
; File C:\IAGOS\server\v18\Source\Source\DX_SDK\d3dx9math.inl
; File C:\IAGOS\server\v18\Source\Source\_Common\xutil3d.cpp
; File C:\IAGOS\server\v18\Source\Source\DX_SDK\d3dx9math.inl
; File C:\IAGOS\server\v18\Source\Source\_Common\xutil3d.cpp
; File C:\IAGOS\server\v18\Source\Source\DX_SDK\d3dx9math.inl
; File C:\IAGOS\server\v18\Source\Source\_Common\xutil3d.cpp
; File C:\IAGOS\server\v18\Source\Source\DX_SDK\d3dx9math.inl
; File C:\IAGOS\server\v18\Source\Source\_Common\xutil3d.cpp
; File C:\IAGOS\server\v18\Source\Source\DX_SDK\d3dx9math.inl
; File C:\IAGOS\server\v18\Source\Source\_Common\xutil3d.cpp
; File C:\IAGOS\server\v18\Source\Source\DX_SDK\d3dx9math.inl
; File C:\IAGOS\server\v18\Source\Source\_Common\xutil3d.cpp
; File C:\IAGOS\server\v18\Source\Source\DX_SDK\d3dx9math.inl
; File C:\IAGOS\server\v18\Source\Source\_Common\xutil3d.cpp
; File C:\IAGOS\server\v18\Source\Source\DX_SDK\d3dx9math.inl
; File C:\IAGOS\server\v18\Source\Source\_Common\xutil3d.cpp
; File C:\IAGOS\server\v18\Source\Source\DX_SDK\d3dx9math.inl
; File C:\IAGOS\server\v18\Source\Source\_Common\xutil3d.cpp
; File C:\IAGOS\server\v18\Source\Source\DX_SDK\d3dx9math.inl
; File C:\IAGOS\server\v18\Source\Source\_Common\xutil3d.cpp
; File C:\IAGOS\server\v18\Source\Source\DX_SDK\d3dx9math.inl
; File C:\IAGOS\server\v18\Source\Source\_Common\xutil3d.cpp
; File C:\IAGOS\server\v18\Source\Source\DX_SDK\d3dx9math.inl
; File C:\IAGOS\server\v18\Source\Source\_Common\xutil3d.cpp
; File C:\IAGOS\server\v18\Source\Source\DX_SDK\d3dx9math.inl
; File C:\IAGOS\server\v18\Source\Source\_Common\xutil3d.cpp
; File C:\IAGOS\server\v18\Source\Source\DX_SDK\d3dx9math.inl
; File C:\IAGOS\server\v18\Source\Source\_Common\xutil3d.cpp
; File C:\IAGOS\server\v18\Source\Source\DX_SDK\d3dx9math.inl
; File C:\IAGOS\server\v18\Source\Source\_Common\xutil3d.cpp
; File C:\IAGOS\server\v18\Source\Source\DX_SDK\d3dx9math.inl
; File C:\IAGOS\server\v18\Source\Source\_Common\xutil3d.cpp
; File C:\IAGOS\server\v18\Source\Source\DX_SDK\d3dx9math.inl
; File C:\IAGOS\server\v18\Source\Source\_Common\xutil3d.cpp
; File C:\IAGOS\server\v18\Source\Source\DX_SDK\d3dx9math.inl
; File C:\IAGOS\server\v18\Source\Source\_Common\xutil3d.cpp
;	COMDAT ?IntrSegment3Box3_Test@@YA_NABVSegment3@@ABVBBOX@@@Z
_TEXT	SEGMENT
_afAWdU$ = -32						; size = 12
tv1149 = -20						; size = 8
_kDiff$$sroa$411$1$ = -16				; size = 4
tv1147 = -12						; size = 8
_kDiff$$sroa$395$1$ = -8				; size = 4
_kDiff$$sroa$404$1$ = -4				; size = 4
_rkSegment$ = 8						; size = 4
_rkBox$ = 12						; size = 4
?IntrSegment3Box3_Test@@YA_NABVSegment3@@ABVBBOX@@@Z PROC ; IntrSegment3Box3_Test, COMDAT

; 334  : {

  00000	55		 push	 ebp
  00001	8b ec		 mov	 ebp, esp
  00003	83 ec 20	 sub	 esp, 32			; 00000020H
  00006	8b 45 08	 mov	 eax, DWORD PTR _rkSegment$[ebp]
  00009	33 c9		 xor	 ecx, ecx
  0000b	56		 push	 esi
  0000c	57		 push	 edi
  0000d	8b 7d 0c	 mov	 edi, DWORD PTR _rkBox$[ebp]
; File C:\IAGOS\server\v18\Source\Source\DX_SDK\d3dx9math.inl

; 383  :     return D3DXVECTOR3(x - v.x, y - v.y, z - v.z);

  00010	f3 0f 10 00	 movss	 xmm0, DWORD PTR [eax]
  00014	f3 0f 10 50 04	 movss	 xmm2, DWORD PTR [eax+4]
  00019	f3 0f 10 78 0c	 movss	 xmm7, DWORD PTR [eax+12]
  0001e	f3 0f 5c 07	 subss	 xmm0, DWORD PTR [edi]
  00022	f3 0f 5c 57 04	 subss	 xmm2, DWORD PTR [edi+4]
  00027	f3 0f 10 70 14	 movss	 xmm6, DWORD PTR [eax+20]
; File C:\IAGOS\server\v18\Source\Source\_Common\xutil3d.cpp

; 334  : {

  0002c	8d 77 0c	 lea	 esi, DWORD PTR [edi+12]
  0002f	8d 57 20	 lea	 edx, DWORD PTR [edi+32]
; File C:\IAGOS\server\v18\Source\Source\DX_SDK\d3dx9math.inl

; 383  :     return D3DXVECTOR3(x - v.x, y - v.y, z - v.z);

  00032	f3 0f 11 45 f8	 movss	 DWORD PTR _kDiff$$sroa$395$1$[ebp], xmm0
  00037	f3 0f 10 40 08	 movss	 xmm0, DWORD PTR [eax+8]
  0003c	f3 0f 5c 47 08	 subss	 xmm0, DWORD PTR [edi+8]
  00041	f3 0f 11 55 f0	 movss	 DWORD PTR _kDiff$$sroa$411$1$[ebp], xmm2
  00046	f3 0f 11 45 fc	 movss	 DWORD PTR _kDiff$$sroa$404$1$[ebp], xmm0
  0004b	0f 1f 44 00 00	 npad	 5
$LL4@IntrSegmen:

; 1709 :     return pV1->x * pV2->x + pV1->y * pV2->y + pV1->z * pV2->z;

  00050	f3 0f 10 40 10	 movss	 xmm0, DWORD PTR [eax+16]
  00055	0f 28 ef	 movaps	 xmm5, xmm7
  00058	f3 0f 59 42 fc	 mulss	 xmm0, DWORD PTR [edx-4]
  0005d	f3 0f 59 6a f8	 mulss	 xmm5, DWORD PTR [edx-8]
  00062	f3 0f 59 52 fc	 mulss	 xmm2, DWORD PTR [edx-4]
  00067	f3 0f 58 e8	 addss	 xmm5, xmm0
  0006b	f3 0f 10 0e	 movss	 xmm1, DWORD PTR [esi]
  0006f	0f 28 c6	 movaps	 xmm0, xmm6
; File C:\IAGOS\server\v18\Source\Source\_Common\xutil3d.cpp

; 342  : 		afADdU[i] = fabs( D3DXVec3Dot(&kDiff, &rkBox.Axis[i]) );

  00072	f3 0f 10 1d 00
	00 00 00	 movss	 xmm3, DWORD PTR __xmm@7fffffff7fffffff7fffffff7fffffff
; File C:\IAGOS\server\v18\Source\Source\DX_SDK\d3dx9math.inl

; 1709 :     return pV1->x * pV2->x + pV1->y * pV2->y + pV1->z * pV2->z;

  0007a	f3 0f 59 02	 mulss	 xmm0, DWORD PTR [edx]
; File C:\IAGOS\server\v18\Source\Source\_Common\xutil3d.cpp

; 345  : 		fRhs = fabs(rkBox.Extent[i]) + rkSegment.Extent*afAWdU[i];

  0007e	0f 5a c9	 cvtps2pd xmm1, xmm1
; File C:\IAGOS\server\v18\Source\Source\DX_SDK\d3dx9math.inl

; 1709 :     return pV1->x * pV2->x + pV1->y * pV2->y + pV1->z * pV2->z;

  00081	f3 0f 58 e8	 addss	 xmm5, xmm0
  00085	f3 0f 10 45 f8	 movss	 xmm0, DWORD PTR _kDiff$$sroa$395$1$[ebp]
  0008a	f3 0f 59 42 f8	 mulss	 xmm0, DWORD PTR [edx-8]
; File C:\IAGOS\server\v18\Source\Source\_Common\xutil3d.cpp

; 345  : 		fRhs = fabs(rkBox.Extent[i]) + rkSegment.Extent*afAWdU[i];

  0008f	0f 54 0d 00 00
	00 00		 andps	 xmm1, QWORD PTR __xmm@7fffffffffffffff7fffffffffffffff
  00096	0f 54 2d 00 00
	00 00		 andps	 xmm5, DWORD PTR __xmm@7fffffff7fffffff7fffffff7fffffff
; File C:\IAGOS\server\v18\Source\Source\DX_SDK\d3dx9math.inl

; 1709 :     return pV1->x * pV2->x + pV1->y * pV2->y + pV1->z * pV2->z;

  0009d	f3 0f 58 d0	 addss	 xmm2, xmm0
  000a1	f3 0f 10 45 fc	 movss	 xmm0, DWORD PTR _kDiff$$sroa$404$1$[ebp]
  000a6	f3 0f 59 02	 mulss	 xmm0, DWORD PTR [edx]
; File C:\IAGOS\server\v18\Source\Source\_Common\xutil3d.cpp

; 341  : 		afAWdU[i] = fabs( D3DXVec3Dot(&rkSegment.Direction, &rkBox.Axis[i]) );

  000aa	f3 0f 11 6c 0d
	e0		 movss	 DWORD PTR _afAWdU$[ebp+ecx], xmm5
; File C:\IAGOS\server\v18\Source\Source\DX_SDK\d3dx9math.inl

; 1709 :     return pV1->x * pV2->x + pV1->y * pV2->y + pV1->z * pV2->z;

  000b0	f3 0f 58 d0	 addss	 xmm2, xmm0
; File C:\IAGOS\server\v18\Source\Source\_Common\xutil3d.cpp

; 345  : 		fRhs = fabs(rkBox.Extent[i]) + rkSegment.Extent*afAWdU[i];

  000b4	f3 0f 10 40 18	 movss	 xmm0, DWORD PTR [eax+24]
  000b9	f3 0f 59 c5	 mulss	 xmm0, xmm5
  000bd	0f 5a c0	 cvtps2pd xmm0, xmm0
  000c0	0f 54 d3	 andps	 xmm2, xmm3
  000c3	f2 0f 58 c8	 addsd	 xmm1, xmm0
  000c7	66 0f 5a c1	 cvtpd2ps xmm0, xmm1

; 346  : #else
; 347  : 		fRhs = rkBox.Extent[i] + rkSegment.Extent*afAWdU[i];
; 348  : #endif //__BS_BBOX_ABS_EXTENT
; 349  : 		
; 350  : 		if (afADdU[i] > fRhs)

  000cb	0f 2f d0	 comiss	 xmm2, xmm0
  000ce	0f 87 69 01 00
	00		 ja	 $LN32@IntrSegmen

; 335  :     float afAWdU[3], afADdU[3], afAWxDdU[3], fRhs;
; 336  : 
; 337  :     D3DXVECTOR3 kDiff = rkSegment.Origin - rkBox.Center;
; 338  : 
; 339  : 	for( int i=0; i<3; ++i )

  000d4	f3 0f 10 55 f0	 movss	 xmm2, DWORD PTR _kDiff$$sroa$411$1$[ebp]
  000d9	83 c1 04	 add	 ecx, 4
  000dc	83 c2 0c	 add	 edx, 12			; 0000000cH
  000df	83 c6 04	 add	 esi, 4
  000e2	83 f9 0c	 cmp	 ecx, 12			; 0000000cH
  000e5	0f 8c 65 ff ff
	ff		 jl	 $LL4@IntrSegmen
; File C:\IAGOS\server\v18\Source\Source\DX_SDK\d3dx9math.inl

; 1722 :     v.x = pV1->y * pV2->z - pV1->z * pV2->y;

  000eb	f3 0f 10 68 10	 movss	 xmm5, DWORD PTR [eax+16]
  000f0	0f 28 c6	 movaps	 xmm0, xmm6
  000f3	f3 0f 59 6d fc	 mulss	 xmm5, DWORD PTR _kDiff$$sroa$404$1$[ebp]

; 1723 :     v.y = pV1->z * pV2->x - pV1->x * pV2->z;

  000f8	f3 0f 59 75 f8	 mulss	 xmm6, DWORD PTR _kDiff$$sroa$395$1$[ebp]
  000fd	f3 0f 59 c2	 mulss	 xmm0, xmm2
  00101	f3 0f 10 4f 14	 movss	 xmm1, DWORD PTR [edi+20]
  00106	f3 0f 10 67 10	 movss	 xmm4, DWORD PTR [edi+16]

; 1722 :     v.x = pV1->y * pV2->z - pV1->z * pV2->y;

  0010b	f3 0f 5c e8	 subss	 xmm5, xmm0

; 1723 :     v.y = pV1->z * pV2->x - pV1->x * pV2->z;

  0010f	0f 28 c7	 movaps	 xmm0, xmm7
  00112	f3 0f 59 45 fc	 mulss	 xmm0, DWORD PTR _kDiff$$sroa$404$1$[ebp]

; 1724 :     v.z = pV1->x * pV2->y - pV1->y * pV2->x;

  00117	f3 0f 59 fa	 mulss	 xmm7, xmm2
  0011b	f3 0f 5c f0	 subss	 xmm6, xmm0
  0011f	f3 0f 10 40 10	 movss	 xmm0, DWORD PTR [eax+16]
  00124	f3 0f 59 45 f8	 mulss	 xmm0, DWORD PTR _kDiff$$sroa$395$1$[ebp]
; File C:\IAGOS\server\v18\Source\Source\_Common\xutil3d.cpp

; 362  : 	fRhs = fabs(rkBox.Extent[1])*afAWdU[2] + fabs(rkBox.Extent[2])*afAWdU[1];

  00129	0f 5a c9	 cvtps2pd xmm1, xmm1
; File C:\IAGOS\server\v18\Source\Source\DX_SDK\d3dx9math.inl

; 1724 :     v.z = pV1->x * pV2->y - pV1->y * pV2->x;

  0012c	f3 0f 5c f8	 subss	 xmm7, xmm0

; 1709 :     return pV1->x * pV2->x + pV1->y * pV2->y + pV1->z * pV2->z;

  00130	0f 28 d6	 movaps	 xmm2, xmm6
; File C:\IAGOS\server\v18\Source\Source\_Common\xutil3d.cpp

; 362  : 	fRhs = fabs(rkBox.Extent[1])*afAWdU[2] + fabs(rkBox.Extent[2])*afAWdU[1];

  00133	f2 0f 10 05 00
	00 00 00	 movsd	 xmm0, QWORD PTR __xmm@7fffffffffffffff7fffffffffffffff
; File C:\IAGOS\server\v18\Source\Source\DX_SDK\d3dx9math.inl

; 1709 :     return pV1->x * pV2->x + pV1->y * pV2->y + pV1->z * pV2->z;

  0013b	f3 0f 59 57 1c	 mulss	 xmm2, DWORD PTR [edi+28]
; File C:\IAGOS\server\v18\Source\Source\_Common\xutil3d.cpp

; 362  : 	fRhs = fabs(rkBox.Extent[1])*afAWdU[2] + fabs(rkBox.Extent[2])*afAWdU[1];

  00140	0f 54 c8	 andps	 xmm1, xmm0
  00143	0f 5a e4	 cvtps2pd xmm4, xmm4
  00146	f2 0f 11 4d f4	 movsd	 QWORD PTR tv1147[ebp], xmm1
  0014b	f3 0f 10 4d e8	 movss	 xmm1, DWORD PTR _afAWdU$[ebp+8]
  00150	0f 54 e0	 andps	 xmm4, xmm0
; File C:\IAGOS\server\v18\Source\Source\DX_SDK\d3dx9math.inl

; 1709 :     return pV1->x * pV2->x + pV1->y * pV2->y + pV1->z * pV2->z;

  00153	0f 28 c5	 movaps	 xmm0, xmm5
; File C:\IAGOS\server\v18\Source\Source\_Common\xutil3d.cpp

; 362  : 	fRhs = fabs(rkBox.Extent[1])*afAWdU[2] + fabs(rkBox.Extent[2])*afAWdU[1];

  00156	f2 0f 11 65 ec	 movsd	 QWORD PTR tv1149[ebp], xmm4
; File C:\IAGOS\server\v18\Source\Source\DX_SDK\d3dx9math.inl

; 1709 :     return pV1->x * pV2->x + pV1->y * pV2->y + pV1->z * pV2->z;

  0015b	f3 0f 59 47 18	 mulss	 xmm0, DWORD PTR [edi+24]
; File C:\IAGOS\server\v18\Source\Source\_Common\xutil3d.cpp

; 362  : 	fRhs = fabs(rkBox.Extent[1])*afAWdU[2] + fabs(rkBox.Extent[2])*afAWdU[1];

  00160	0f 5a c9	 cvtps2pd xmm1, xmm1
; File C:\IAGOS\server\v18\Source\Source\DX_SDK\d3dx9math.inl

; 1709 :     return pV1->x * pV2->x + pV1->y * pV2->y + pV1->z * pV2->z;

  00163	f3 0f 58 d0	 addss	 xmm2, xmm0
  00167	0f 28 c7	 movaps	 xmm0, xmm7
  0016a	f3 0f 59 47 20	 mulss	 xmm0, DWORD PTR [edi+32]
; File C:\IAGOS\server\v18\Source\Source\_Common\xutil3d.cpp

; 362  : 	fRhs = fabs(rkBox.Extent[1])*afAWdU[2] + fabs(rkBox.Extent[2])*afAWdU[1];

  0016f	f2 0f 59 cc	 mulsd	 xmm1, xmm4
; File C:\IAGOS\server\v18\Source\Source\DX_SDK\d3dx9math.inl

; 1709 :     return pV1->x * pV2->x + pV1->y * pV2->y + pV1->z * pV2->z;

  00173	f3 0f 58 d0	 addss	 xmm2, xmm0
  00177	f3 0f 10 45 e4	 movss	 xmm0, DWORD PTR _afAWdU$[ebp+4]
; File C:\IAGOS\server\v18\Source\Source\_Common\xutil3d.cpp

; 362  : 	fRhs = fabs(rkBox.Extent[1])*afAWdU[2] + fabs(rkBox.Extent[2])*afAWdU[1];

  0017c	0f 5a c0	 cvtps2pd xmm0, xmm0
  0017f	0f 54 d3	 andps	 xmm2, xmm3
  00182	f2 0f 59 45 f4	 mulsd	 xmm0, QWORD PTR tv1147[ebp]
  00187	f2 0f 58 c8	 addsd	 xmm1, xmm0
  0018b	66 0f 5a c1	 cvtpd2ps xmm0, xmm1

; 363  : #else
; 364  : 	fRhs = rkBox.Extent[1]*afAWdU[2] + rkBox.Extent[2]*afAWdU[1];
; 365  : #endif //__BS_BBOX_ABS_EXTENT
; 366  : 
; 367  :     if (afAWxDdU[0] > fRhs)

  0018f	0f 2f d0	 comiss	 xmm2, xmm0
  00192	0f 87 a5 00 00
	00		 ja	 $LN32@IntrSegmen
  00198	f3 0f 10 67 0c	 movss	 xmm4, DWORD PTR [edi+12]
; File C:\IAGOS\server\v18\Source\Source\DX_SDK\d3dx9math.inl

; 1709 :     return pV1->x * pV2->x + pV1->y * pV2->y + pV1->z * pV2->z;

  0019d	0f 28 c5	 movaps	 xmm0, xmm5
  001a0	f3 0f 59 47 24	 mulss	 xmm0, DWORD PTR [edi+36]
  001a5	0f 28 d6	 movaps	 xmm2, xmm6
  001a8	f3 0f 59 57 28	 mulss	 xmm2, DWORD PTR [edi+40]
  001ad	f3 0f 10 5d e0	 movss	 xmm3, DWORD PTR _afAWdU$[ebp]
; File C:\IAGOS\server\v18\Source\Source\_Common\xutil3d.cpp

; 375  : 	fRhs = fabs(rkBox.Extent[0])*afAWdU[2] + fabs(rkBox.Extent[2])*afAWdU[0];

  001b2	0f 5a e4	 cvtps2pd xmm4, xmm4
; File C:\IAGOS\server\v18\Source\Source\DX_SDK\d3dx9math.inl

; 1709 :     return pV1->x * pV2->x + pV1->y * pV2->y + pV1->z * pV2->z;

  001b5	f3 0f 58 d0	 addss	 xmm2, xmm0
  001b9	0f 28 c7	 movaps	 xmm0, xmm7
  001bc	f3 0f 59 47 2c	 mulss	 xmm0, DWORD PTR [edi+44]
; File C:\IAGOS\server\v18\Source\Source\_Common\xutil3d.cpp

; 375  : 	fRhs = fabs(rkBox.Extent[0])*afAWdU[2] + fabs(rkBox.Extent[2])*afAWdU[0];

  001c1	0f 54 25 00 00
	00 00		 andps	 xmm4, QWORD PTR __xmm@7fffffffffffffff7fffffffffffffff
  001c8	0f 5a db	 cvtps2pd xmm3, xmm3
; File C:\IAGOS\server\v18\Source\Source\DX_SDK\d3dx9math.inl

; 1709 :     return pV1->x * pV2->x + pV1->y * pV2->y + pV1->z * pV2->z;

  001cb	f3 0f 58 d0	 addss	 xmm2, xmm0
; File C:\IAGOS\server\v18\Source\Source\_Common\xutil3d.cpp

; 375  : 	fRhs = fabs(rkBox.Extent[0])*afAWdU[2] + fabs(rkBox.Extent[2])*afAWdU[0];

  001cf	0f 28 cc	 movaps	 xmm1, xmm4
  001d2	f3 0f 10 45 e8	 movss	 xmm0, DWORD PTR _afAWdU$[ebp+8]
  001d7	0f 5a c0	 cvtps2pd xmm0, xmm0
  001da	0f 54 15 00 00
	00 00		 andps	 xmm2, DWORD PTR __xmm@7fffffff7fffffff7fffffff7fffffff
  001e1	f2 0f 59 c8	 mulsd	 xmm1, xmm0
  001e5	0f 28 c3	 movaps	 xmm0, xmm3
  001e8	f2 0f 59 45 f4	 mulsd	 xmm0, QWORD PTR tv1147[ebp]
  001ed	f2 0f 58 c8	 addsd	 xmm1, xmm0
  001f1	66 0f 5a c1	 cvtpd2ps xmm0, xmm1

; 376  : #else
; 377  : 	fRhs = rkBox.Extent[0]*afAWdU[2] + rkBox.Extent[2]*afAWdU[0];
; 378  : #endif //__BS_BBOX_ABS_EXTENT
; 379  : 
; 380  :     if (afAWxDdU[1] > fRhs)

  001f5	0f 2f d0	 comiss	 xmm2, xmm0
  001f8	77 43		 ja	 SHORT $LN32@IntrSegmen
  001fa	f3 0f 10 45 e4	 movss	 xmm0, DWORD PTR _afAWdU$[ebp+4]
; File C:\IAGOS\server\v18\Source\Source\DX_SDK\d3dx9math.inl

; 1709 :     return pV1->x * pV2->x + pV1->y * pV2->y + pV1->z * pV2->z;

  001ff	f3 0f 59 77 34	 mulss	 xmm6, DWORD PTR [edi+52]
  00204	f3 0f 59 6f 30	 mulss	 xmm5, DWORD PTR [edi+48]
; File C:\IAGOS\server\v18\Source\Source\_Common\xutil3d.cpp

; 388  : 	fRhs = fabs(rkBox.Extent[0])*afAWdU[1] + fabs(rkBox.Extent[1])*afAWdU[0];

  00209	f2 0f 59 5d ec	 mulsd	 xmm3, QWORD PTR tv1149[ebp]
; File C:\IAGOS\server\v18\Source\Source\DX_SDK\d3dx9math.inl

; 1709 :     return pV1->x * pV2->x + pV1->y * pV2->y + pV1->z * pV2->z;

  0020e	f3 0f 59 7f 38	 mulss	 xmm7, DWORD PTR [edi+56]
  00213	f3 0f 58 f5	 addss	 xmm6, xmm5
  00217	5f		 pop	 edi
; File C:\IAGOS\server\v18\Source\Source\_Common\xutil3d.cpp

; 388  : 	fRhs = fabs(rkBox.Extent[0])*afAWdU[1] + fabs(rkBox.Extent[1])*afAWdU[0];

  00218	0f 5a c0	 cvtps2pd xmm0, xmm0

; 396  :     }
; 397  : 
; 398  :     return true;
; 399  : }

  0021b	5e		 pop	 esi
; File C:\IAGOS\server\v18\Source\Source\DX_SDK\d3dx9math.inl

; 1709 :     return pV1->x * pV2->x + pV1->y * pV2->y + pV1->z * pV2->z;

  0021c	f3 0f 58 f7	 addss	 xmm6, xmm7
; File C:\IAGOS\server\v18\Source\Source\_Common\xutil3d.cpp

; 388  : 	fRhs = fabs(rkBox.Extent[0])*afAWdU[1] + fabs(rkBox.Extent[1])*afAWdU[0];

  00220	f2 0f 59 e0	 mulsd	 xmm4, xmm0
  00224	0f 54 35 00 00
	00 00		 andps	 xmm6, DWORD PTR __xmm@7fffffff7fffffff7fffffff7fffffff
  0022b	f2 0f 58 dc	 addsd	 xmm3, xmm4
  0022f	66 0f 5a c3	 cvtpd2ps xmm0, xmm3

; 389  : #else
; 390  : 	fRhs = rkBox.Extent[0]*afAWdU[1] + rkBox.Extent[1]*afAWdU[0];
; 391  : #endif //__BS_BBOX_ABS_EXTENT
; 392  : 
; 393  :     if (afAWxDdU[2] > fRhs)

  00233	0f 2f f0	 comiss	 xmm6, xmm0
  00236	0f 96 c0	 setbe	 al

; 396  :     }
; 397  : 
; 398  :     return true;
; 399  : }

  00239	8b e5		 mov	 esp, ebp
  0023b	5d		 pop	 ebp
  0023c	c3		 ret	 0
$LN32@IntrSegmen:
  0023d	5f		 pop	 edi

; 394  :     {
; 395  :         return false;

  0023e	32 c0		 xor	 al, al

; 396  :     }
; 397  : 
; 398  :     return true;
; 399  : }

  00240	5e		 pop	 esi
  00241	8b e5		 mov	 esp, ebp
  00243	5d		 pop	 ebp
  00244	c3		 ret	 0
?IntrSegment3Box3_Test@@YA_NABVSegment3@@ABVBBOX@@@Z ENDP ; IntrSegment3Box3_Test
_TEXT	ENDS
; Function compile flags: /Ogtp
; File C:\IAGOS\server\v18\Source\Source\_Common\xutil3d.cpp
; File C:\IAGOS\server\v18\Source\Source\DX_SDK\d3dx9math.inl
; File C:\IAGOS\server\v18\Source\Source\_Common\xutil3d.cpp
; File C:\IAGOS\server\v18\Source\Source\DX_SDK\d3dx9math.inl
; File C:\IAGOS\server\v18\Source\Source\_Common\xutil3d.cpp
; File C:\IAGOS\server\v18\Source\Source\DX_SDK\d3dx9math.inl
; File C:\IAGOS\server\v18\Source\Source\_Common\xutil3d.cpp
; File C:\IAGOS\server\v18\Source\Source\DX_SDK\d3dx9math.inl
; File C:\IAGOS\server\v18\Source\Source\_Common\xutil3d.cpp
; File C:\IAGOS\server\v18\Source\Source\DX_SDK\d3dx9math.inl
; File C:\IAGOS\server\v18\Source\Source\_Common\xutil3d.cpp
; File C:\IAGOS\server\v18\Source\Source\DX_SDK\d3dx9math.inl
; File C:\IAGOS\server\v18\Source\Source\_Common\xutil3d.cpp
; File C:\IAGOS\server\v18\Source\Source\DX_SDK\d3dx9math.inl
; File C:\IAGOS\server\v18\Source\Source\_Common\xutil3d.cpp
; File C:\IAGOS\server\v18\Source\Source\DX_SDK\d3dx9math.inl
; File C:\IAGOS\server\v18\Source\Source\_Common\xutil3d.cpp
; File C:\IAGOS\server\v18\Source\Source\DX_SDK\d3dx9math.inl
; File C:\IAGOS\server\v18\Source\Source\_Common\xutil3d.cpp
;	COMDAT ?UpdateMartix@BBOX@@QAEXABUD3DXVECTOR3@@0ABUD3DXMATRIX@@11@Z
_TEXT	SEGMENT
_vMin$ = 8						; size = 4
_vMax$ = 12						; size = 4
_matScale$ = 16						; size = 4
_matRotation$ = 20					; size = 4
_matWorld$ = 24						; size = 4
?UpdateMartix@BBOX@@QAEXABUD3DXVECTOR3@@0ABUD3DXMATRIX@@11@Z PROC ; BBOX::UpdateMartix, COMDAT
; _this$ = ecx

; 307  : {

  00000	55		 push	 ebp
  00001	8b ec		 mov	 ebp, esp
; File C:\IAGOS\server\v18\Source\Source\DX_SDK\d3dx9math.inl

; 302  :     z = fz;

  00003	f3 0f 10 1d 00
	00 00 00	 movss	 xmm3, DWORD PTR __real@3f000000
; File C:\IAGOS\server\v18\Source\Source\_Common\xutil3d.cpp

; 307  : {

  0000b	53		 push	 ebx
  0000c	56		 push	 esi
; File C:\IAGOS\server\v18\Source\Source\DX_SDK\d3dx9math.inl

; 377  :     return D3DXVECTOR3(x + v.x, y + v.y, z + v.z);

  0000d	8b 75 0c	 mov	 esi, DWORD PTR _vMax$[ebp]
; File C:\IAGOS\server\v18\Source\Source\_Common\xutil3d.cpp

; 307  : {

  00010	8b d9		 mov	 ebx, ecx
  00012	57		 push	 edi
; File C:\IAGOS\server\v18\Source\Source\DX_SDK\d3dx9math.inl

; 377  :     return D3DXVECTOR3(x + v.x, y + v.y, z + v.z);

  00013	8b 7d 08	 mov	 edi, DWORD PTR _vMin$[ebp]
; File C:\IAGOS\server\v18\Source\Source\_Common\xutil3d.cpp

; 310  : 	D3DXVec3TransformCoord( &Center, &Center, &matWorld );

  00016	ff 75 18	 push	 DWORD PTR _matWorld$[ebp]
; File C:\IAGOS\server\v18\Source\Source\DX_SDK\d3dx9math.inl

; 377  :     return D3DXVECTOR3(x + v.x, y + v.y, z + v.z);

  00019	f3 0f 10 56 04	 movss	 xmm2, DWORD PTR [esi+4]
  0001e	f3 0f 10 4e 08	 movss	 xmm1, DWORD PTR [esi+8]
  00023	f3 0f 10 07	 movss	 xmm0, DWORD PTR [edi]
  00027	f3 0f 58 06	 addss	 xmm0, DWORD PTR [esi]
  0002b	f3 0f 58 57 04	 addss	 xmm2, DWORD PTR [edi+4]
  00030	f3 0f 58 4f 08	 addss	 xmm1, DWORD PTR [edi+8]
; File C:\IAGOS\server\v18\Source\Source\_Common\xutil3d.cpp

; 310  : 	D3DXVec3TransformCoord( &Center, &Center, &matWorld );

  00035	53		 push	 ebx
  00036	53		 push	 ebx
; File C:\IAGOS\server\v18\Source\Source\DX_SDK\d3dx9math.inl

; 302  :     z = fz;

  00037	f3 0f 59 c3	 mulss	 xmm0, xmm3

; 300  :     x = fx;

  0003b	f3 0f 59 d3	 mulss	 xmm2, xmm3

; 301  :     y = fy;

  0003f	f3 0f 59 cb	 mulss	 xmm1, xmm3
; File C:\IAGOS\server\v18\Source\Source\_Common\xutil3d.cpp

; 309  : 	Center = ( vMin + vMax ) * 0.5f;

  00043	f3 0f 11 03	 movss	 DWORD PTR [ebx], xmm0
  00047	f3 0f 11 53 04	 movss	 DWORD PTR [ebx+4], xmm2
  0004c	f3 0f 11 4b 08	 movss	 DWORD PTR [ebx+8], xmm1

; 310  : 	D3DXVec3TransformCoord( &Center, &Center, &matWorld );

  00051	e8 00 00 00 00	 call	 _D3DXVec3TransformCoord@12
; File C:\IAGOS\server\v18\Source\Source\DX_SDK\d3dx9math.inl

; 383  :     return D3DXVECTOR3(x - v.x, y - v.y, z - v.z);

  00056	f3 0f 10 06	 movss	 xmm0, DWORD PTR [esi]
  0005a	f3 0f 5c 07	 subss	 xmm0, DWORD PTR [edi]
  0005e	f3 0f 10 4e 04	 movss	 xmm1, DWORD PTR [esi+4]
  00063	f3 0f 5c 4f 04	 subss	 xmm1, DWORD PTR [edi+4]
  00068	f3 0f 10 56 08	 movss	 xmm2, DWORD PTR [esi+8]
  0006d	f3 0f 5c 57 08	 subss	 xmm2, DWORD PTR [edi+8]

; 302  :     z = fz;

  00072	f3 0f 10 1d 00
	00 00 00	 movss	 xmm3, DWORD PTR __real@3f000000
; File C:\IAGOS\server\v18\Source\Source\_Common\xutil3d.cpp

; 315  : 	Extent[0] = vExtent.x * matScale._11;

  0007a	8b 45 10	 mov	 eax, DWORD PTR _matScale$[ebp]

; 318  : 	
; 319  : 	//axis
; 320  : 	Axis[0].x = matRotation._11;

  0007d	8b 4d 14	 mov	 ecx, DWORD PTR _matRotation$[ebp]
; File C:\IAGOS\server\v18\Source\Source\DX_SDK\d3dx9math.inl

; 302  :     z = fz;

  00080	f3 0f 59 c3	 mulss	 xmm0, xmm3
; File C:\IAGOS\server\v18\Source\Source\_Common\xutil3d.cpp

; 330  : 	Axis[2].z = matRotation._33;

  00084	5f		 pop	 edi
; File C:\IAGOS\server\v18\Source\Source\DX_SDK\d3dx9math.inl

; 300  :     x = fx;

  00085	f3 0f 59 cb	 mulss	 xmm1, xmm3
; File C:\IAGOS\server\v18\Source\Source\_Common\xutil3d.cpp

; 330  : 	Axis[2].z = matRotation._33;

  00089	5e		 pop	 esi
  0008a	f3 0f 59 00	 mulss	 xmm0, DWORD PTR [eax]
; File C:\IAGOS\server\v18\Source\Source\DX_SDK\d3dx9math.inl

; 301  :     y = fy;

  0008e	f3 0f 59 d3	 mulss	 xmm2, xmm3
; File C:\IAGOS\server\v18\Source\Source\_Common\xutil3d.cpp

; 315  : 	Extent[0] = vExtent.x * matScale._11;

  00092	f3 0f 11 43 0c	 movss	 DWORD PTR [ebx+12], xmm0

; 316  : 	Extent[1] = vExtent.y * matScale._22;

  00097	f3 0f 59 48 14	 mulss	 xmm1, DWORD PTR [eax+20]
  0009c	f3 0f 11 4b 10	 movss	 DWORD PTR [ebx+16], xmm1

; 317  : 	Extent[2] = vExtent.z * matScale._33;

  000a1	f3 0f 59 50 28	 mulss	 xmm2, DWORD PTR [eax+40]
  000a6	f3 0f 11 53 14	 movss	 DWORD PTR [ebx+20], xmm2

; 318  : 	
; 319  : 	//axis
; 320  : 	Axis[0].x = matRotation._11;

  000ab	8b 01		 mov	 eax, DWORD PTR [ecx]
  000ad	89 43 18	 mov	 DWORD PTR [ebx+24], eax

; 321  : 	Axis[0].y = matRotation._12;

  000b0	8b 41 04	 mov	 eax, DWORD PTR [ecx+4]
  000b3	89 43 1c	 mov	 DWORD PTR [ebx+28], eax

; 322  : 	Axis[0].z = matRotation._13;

  000b6	8b 41 08	 mov	 eax, DWORD PTR [ecx+8]
  000b9	89 43 20	 mov	 DWORD PTR [ebx+32], eax

; 323  : 
; 324  : 	Axis[1].x = matRotation._21;

  000bc	8b 41 10	 mov	 eax, DWORD PTR [ecx+16]
  000bf	89 43 24	 mov	 DWORD PTR [ebx+36], eax

; 325  : 	Axis[1].y = matRotation._22;

  000c2	8b 41 14	 mov	 eax, DWORD PTR [ecx+20]
  000c5	89 43 28	 mov	 DWORD PTR [ebx+40], eax

; 326  : 	Axis[1].z = matRotation._23;

  000c8	8b 41 18	 mov	 eax, DWORD PTR [ecx+24]
  000cb	89 43 2c	 mov	 DWORD PTR [ebx+44], eax

; 327  : 
; 328  : 	Axis[2].x = matRotation._31;

  000ce	8b 41 20	 mov	 eax, DWORD PTR [ecx+32]
  000d1	89 43 30	 mov	 DWORD PTR [ebx+48], eax

; 329  : 	Axis[2].y = matRotation._32;

  000d4	8b 41 24	 mov	 eax, DWORD PTR [ecx+36]
  000d7	89 43 34	 mov	 DWORD PTR [ebx+52], eax

; 330  : 	Axis[2].z = matRotation._33;

  000da	8b 41 28	 mov	 eax, DWORD PTR [ecx+40]
  000dd	89 43 38	 mov	 DWORD PTR [ebx+56], eax
  000e0	5b		 pop	 ebx

; 331  : }

  000e1	5d		 pop	 ebp
  000e2	c2 14 00	 ret	 20			; 00000014H
?UpdateMartix@BBOX@@QAEXABUD3DXVECTOR3@@0ABUD3DXMATRIX@@11@Z ENDP ; BBOX::UpdateMartix
_TEXT	ENDS
; Function compile flags: /Ogtp
; File C:\IAGOS\server\v18\Source\Source\_Common\xutil3d.cpp
; File C:\IAGOS\server\v18\Source\Source\DX_SDK\d3dx9math.inl
; File C:\IAGOS\server\v18\Source\Source\_Common\xutil3d.cpp
; File C:\IAGOS\server\v18\Source\Source\DX_SDK\d3dx9math.inl
; File C:\IAGOS\server\v18\Source\Source\_Common\xutil3d.cpp
; File C:\IAGOS\server\v18\Source\Source\DX_SDK\d3dx9math.inl
; File C:\IAGOS\server\v18\Source\Source\_Common\xutil3d.cpp
; File C:\IAGOS\server\v18\Source\Source\DX_SDK\d3dx9math.inl
; File C:\IAGOS\server\v18\Source\Source\_Common\xutil3d.cpp
; File C:\IAGOS\server\v18\Source\Source\DX_SDK\d3dx9math.inl
; File C:\IAGOS\server\v18\Source\Source\_Common\xutil3d.cpp
; File C:\IAGOS\server\v18\Source\Source\DX_SDK\d3dx9math.inl
; File C:\IAGOS\server\v18\Source\Source\_Common\xutil3d.cpp
; File C:\IAGOS\server\v18\Source\Source\DX_SDK\d3dx9math.inl
; File C:\Program Files (x86)\Windows Kits\10\Include\10.0.26100.0\ucrt\corecrt_math.h
; File C:\IAGOS\server\v18\Source\Source\_Common\xutil3d.cpp
;	COMDAT ??0Segment3@@QAE@ABUD3DXVECTOR3@@0@Z
_TEXT	SEGMENT
_v1$ = 8						; size = 4
_v2$ = 12						; size = 4
??0Segment3@@QAE@ABUD3DXVECTOR3@@0@Z PROC		; Segment3::Segment3, COMDAT
; _this$ = ecx

; 297  : {

  00000	55		 push	 ebp
  00001	8b ec		 mov	 ebp, esp
  00003	83 e4 f8	 and	 esp, -8			; fffffff8H
; File C:\IAGOS\server\v18\Source\Source\DX_SDK\d3dx9math.inl

; 377  :     return D3DXVECTOR3(x + v.x, y + v.y, z + v.z);

  00006	8b 55 08	 mov	 edx, DWORD PTR _v1$[ebp]
  00009	8b 45 0c	 mov	 eax, DWORD PTR _v2$[ebp]

; 302  :     z = fz;

  0000c	f3 0f 10 1d 00
	00 00 00	 movss	 xmm3, DWORD PTR __real@3f000000
; File C:\IAGOS\server\v18\Source\Source\_Common\xutil3d.cpp

; 297  : {

  00014	56		 push	 esi
; File C:\IAGOS\server\v18\Source\Source\DX_SDK\d3dx9math.inl

; 377  :     return D3DXVECTOR3(x + v.x, y + v.y, z + v.z);

  00015	f3 0f 10 02	 movss	 xmm0, DWORD PTR [edx]
  00019	f3 0f 58 00	 addss	 xmm0, DWORD PTR [eax]
  0001d	f3 0f 10 50 04	 movss	 xmm2, DWORD PTR [eax+4]
  00022	f3 0f 58 52 04	 addss	 xmm2, DWORD PTR [edx+4]
  00027	f3 0f 10 48 08	 movss	 xmm1, DWORD PTR [eax+8]
  0002c	f3 0f 58 4a 08	 addss	 xmm1, DWORD PTR [edx+8]

; 302  :     z = fz;

  00031	f3 0f 59 c3	 mulss	 xmm0, xmm3
; File C:\IAGOS\server\v18\Source\Source\_Common\xutil3d.cpp

; 297  : {

  00035	57		 push	 edi
; File C:\IAGOS\server\v18\Source\Source\DX_SDK\d3dx9math.inl

; 300  :     x = fx;

  00036	f3 0f 59 d3	 mulss	 xmm2, xmm3
; File C:\IAGOS\server\v18\Source\Source\_Common\xutil3d.cpp

; 297  : {

  0003a	8b f9		 mov	 edi, ecx

; 299  : 	Direction = v2-v1;

  0003c	8d 77 0c	 lea	 esi, DWORD PTR [edi+12]
; File C:\IAGOS\server\v18\Source\Source\DX_SDK\d3dx9math.inl

; 301  :     y = fy;

  0003f	f3 0f 59 cb	 mulss	 xmm1, xmm3
; File C:\IAGOS\server\v18\Source\Source\_Common\xutil3d.cpp

; 298  : 	Origin = (v1 + v2) * 0.5f;

  00043	f3 0f 11 07	 movss	 DWORD PTR [edi], xmm0
  00047	f3 0f 11 57 04	 movss	 DWORD PTR [edi+4], xmm2
  0004c	f3 0f 11 4f 08	 movss	 DWORD PTR [edi+8], xmm1
; File C:\IAGOS\server\v18\Source\Source\DX_SDK\d3dx9math.inl

; 383  :     return D3DXVECTOR3(x - v.x, y - v.y, z - v.z);

  00051	f3 0f 10 00	 movss	 xmm0, DWORD PTR [eax]
  00055	f3 0f 5c 02	 subss	 xmm0, DWORD PTR [edx]
  00059	f3 0f 10 50 04	 movss	 xmm2, DWORD PTR [eax+4]
  0005e	f3 0f 5c 52 04	 subss	 xmm2, DWORD PTR [edx+4]
  00063	f3 0f 10 48 08	 movss	 xmm1, DWORD PTR [eax+8]
  00068	f3 0f 5c 4a 08	 subss	 xmm1, DWORD PTR [edx+8]
; File C:\IAGOS\server\v18\Source\Source\_Common\xutil3d.cpp

; 299  : 	Direction = v2-v1;

  0006d	f3 0f 11 06	 movss	 DWORD PTR [esi], xmm0
  00071	f3 0f 11 56 04	 movss	 DWORD PTR [esi+4], xmm2
; File C:\IAGOS\server\v18\Source\Source\DX_SDK\d3dx9math.inl

; 1684 :     return sqrtf(pV->x * pV->x + pV->y * pV->y + pV->z * pV->z);

  00076	f3 0f 59 d2	 mulss	 xmm2, xmm2
; File C:\IAGOS\server\v18\Source\Source\_Common\xutil3d.cpp

; 299  : 	Direction = v2-v1;

  0007a	f3 0f 11 4e 08	 movss	 DWORD PTR [esi+8], xmm1
; File C:\IAGOS\server\v18\Source\Source\DX_SDK\d3dx9math.inl

; 1684 :     return sqrtf(pV->x * pV->x + pV->y * pV->y + pV->z * pV->z);

  0007f	f3 0f 10 06	 movss	 xmm0, DWORD PTR [esi]
  00083	f3 0f 59 c0	 mulss	 xmm0, xmm0
  00087	f3 0f 59 c9	 mulss	 xmm1, xmm1
  0008b	f3 0f 58 d0	 addss	 xmm2, xmm0
  0008f	f3 0f 58 d1	 addss	 xmm2, xmm1
  00093	0f 57 c9	 xorps	 xmm1, xmm1
; File C:\Program Files (x86)\Windows Kits\10\Include\10.0.26100.0\ucrt\corecrt_math.h

; 799  :             return (float)sqrt(_X);

  00096	0f 5a c2	 cvtps2pd xmm0, xmm2
  00099	66 0f 2e c8	 ucomisd xmm1, xmm0
  0009d	77 06		 ja	 SHORT $LN19@Segment3
  0009f	f2 0f 51 c0	 sqrtsd	 xmm0, xmm0
  000a3	eb 05		 jmp	 SHORT $LN20@Segment3
$LN19@Segment3:
  000a5	e8 00 00 00 00	 call	 __libm_sse2_sqrt_precise
$LN20@Segment3:
  000aa	f2 0f 5a c0	 cvtsd2ss xmm0, xmm0
; File C:\IAGOS\server\v18\Source\Source\_Common\xutil3d.cpp

; 301  : 	D3DXVec3Normalize( &Direction, &Direction );

  000ae	56		 push	 esi
  000af	56		 push	 esi
  000b0	f3 0f 59 05 00
	00 00 00	 mulss	 xmm0, DWORD PTR __real@3f000000
  000b8	f3 0f 11 47 18	 movss	 DWORD PTR [edi+24], xmm0
  000bd	e8 00 00 00 00	 call	 _D3DXVec3Normalize@8

; 302  : } 

  000c2	8b c7		 mov	 eax, edi
  000c4	5f		 pop	 edi
  000c5	5e		 pop	 esi
  000c6	8b e5		 mov	 esp, ebp
  000c8	5d		 pop	 ebp
  000c9	c2 08 00	 ret	 8
??0Segment3@@QAE@ABUD3DXVECTOR3@@0@Z ENDP		; Segment3::Segment3
_TEXT	ENDS
; Function compile flags: /Ogtp
; File C:\IAGOS\server\v18\Source\Source\_Common\xutil3d.cpp
; File C:\IAGOS\server\v18\Source\Source\DX_SDK\d3dx9math.inl
; File C:\IAGOS\server\v18\Source\Source\_Common\xutil3d.cpp
; File C:\IAGOS\server\v18\Source\Source\DX_SDK\d3dx9math.inl
; File C:\IAGOS\server\v18\Source\Source\_Common\xutil3d.cpp
; File C:\IAGOS\server\v18\Source\Source\DX_SDK\d3dx9math.inl
; File C:\IAGOS\server\v18\Source\Source\_Common\xutil3d.cpp
; File C:\IAGOS\server\v18\Source\Source\DX_SDK\d3dx9math.inl
; File C:\IAGOS\server\v18\Source\Source\_Common\xutil3d.cpp
; File C:\IAGOS\server\v18\Source\Source\DX_SDK\d3dx9math.inl
; File C:\IAGOS\server\v18\Source\Source\_Common\xutil3d.cpp
;	COMDAT ?CalcSlideVec@@YAXPAUD3DXVECTOR3@@ABU1@1@Z
_TEXT	SEGMENT
_pOut$ = 8						; size = 4
_vDir$ = 12						; size = 4
_vN$ = 16						; size = 4
?CalcSlideVec@@YAXPAUD3DXVECTOR3@@ABU1@1@Z PROC		; CalcSlideVec, COMDAT

; 287  : {

  00000	55		 push	 ebp
  00001	8b ec		 mov	 ebp, esp

; 289  : 	vInvN.x = -vN.x;	vInvN.y = -vN.y;	vInvN.z = -vN.z;	// łë¸»Ŕ» µÚÁýŔ˝.

  00003	8b 45 10	 mov	 eax, DWORD PTR _vN$[ebp]
  00006	f3 0f 10 05 00
	00 00 00	 movss	 xmm0, DWORD PTR __xmm@80000000800000008000000080000000
  0000e	f3 0f 10 28	 movss	 xmm5, DWORD PTR [eax]
  00012	f3 0f 10 70 04	 movss	 xmm6, DWORD PTR [eax+4]
  00017	0f 57 e8	 xorps	 xmm5, xmm0
  0001a	f3 0f 10 78 08	 movss	 xmm7, DWORD PTR [eax+8]
  0001f	0f 57 f0	 xorps	 xmm6, xmm0
; File C:\IAGOS\server\v18\Source\Source\DX_SDK\d3dx9math.inl

; 1709 :     return pV1->x * pV2->x + pV1->y * pV2->y + pV1->z * pV2->z;

  00022	8b 45 0c	 mov	 eax, DWORD PTR _vDir$[ebp]
; File C:\IAGOS\server\v18\Source\Source\_Common\xutil3d.cpp

; 289  : 	vInvN.x = -vN.x;	vInvN.y = -vN.y;	vInvN.z = -vN.z;	// łë¸»Ŕ» µÚÁýŔ˝.

  00025	0f 57 f8	 xorps	 xmm7, xmm0
; File C:\IAGOS\server\v18\Source\Source\DX_SDK\d3dx9math.inl

; 1709 :     return pV1->x * pV2->x + pV1->y * pV2->y + pV1->z * pV2->z;

  00028	f3 0f 10 58 04	 movss	 xmm3, DWORD PTR [eax+4]
  0002d	f3 0f 10 08	 movss	 xmm1, DWORD PTR [eax]
  00031	0f 28 d3	 movaps	 xmm2, xmm3
  00034	f3 0f 10 60 08	 movss	 xmm4, DWORD PTR [eax+8]
  00039	0f 28 c1	 movaps	 xmm0, xmm1
; File C:\IAGOS\server\v18\Source\Source\_Common\xutil3d.cpp

; 291  : 	*pOut = vDir - (vInvN * b);		// slide vector

  0003c	8b 45 08	 mov	 eax, DWORD PTR _pOut$[ebp]
; File C:\IAGOS\server\v18\Source\Source\DX_SDK\d3dx9math.inl

; 1709 :     return pV1->x * pV2->x + pV1->y * pV2->y + pV1->z * pV2->z;

  0003f	f3 0f 59 c5	 mulss	 xmm0, xmm5
  00043	f3 0f 59 d6	 mulss	 xmm2, xmm6
  00047	f3 0f 58 d0	 addss	 xmm2, xmm0
  0004b	0f 28 c4	 movaps	 xmm0, xmm4
  0004e	f3 0f 59 c7	 mulss	 xmm0, xmm7
  00052	f3 0f 58 d0	 addss	 xmm2, xmm0
; File C:\IAGOS\server\v18\Source\Source\_Common\xutil3d.cpp

; 290  : 	FLOAT	b = D3DXVec3Dot( &vDir, &vInvN );		// (V dot -N)	Á÷°˘»ď°˘ÇüŔÇ ąŘşŻŔÇ ±ćŔĚ.

  00056	0f 28 c2	 movaps	 xmm0, xmm2
; File C:\IAGOS\server\v18\Source\Source\DX_SDK\d3dx9math.inl

; 300  :     x = fx;

  00059	f3 0f 59 f2	 mulss	 xmm6, xmm2
; File C:\IAGOS\server\v18\Source\Source\_Common\xutil3d.cpp

; 290  : 	FLOAT	b = D3DXVec3Dot( &vDir, &vInvN );		// (V dot -N)	Á÷°˘»ď°˘ÇüŔÇ ąŘşŻŔÇ ±ćŔĚ.

  0005d	f3 0f 59 c5	 mulss	 xmm0, xmm5
; File C:\IAGOS\server\v18\Source\Source\DX_SDK\d3dx9math.inl

; 301  :     y = fy;

  00061	f3 0f 59 fa	 mulss	 xmm7, xmm2

; 383  :     return D3DXVECTOR3(x - v.x, y - v.y, z - v.z);

  00065	f3 0f 5c de	 subss	 xmm3, xmm6
  00069	f3 0f 5c c8	 subss	 xmm1, xmm0
  0006d	f3 0f 5c e7	 subss	 xmm4, xmm7
; File C:\IAGOS\server\v18\Source\Source\_Common\xutil3d.cpp

; 291  : 	*pOut = vDir - (vInvN * b);		// slide vector

  00071	f3 0f 11 08	 movss	 DWORD PTR [eax], xmm1
  00075	f3 0f 11 58 04	 movss	 DWORD PTR [eax+4], xmm3
  0007a	f3 0f 11 60 08	 movss	 DWORD PTR [eax+8], xmm4

; 292  : }

  0007f	5d		 pop	 ebp
  00080	c3		 ret	 0
?CalcSlideVec@@YAXPAUD3DXVECTOR3@@ABU1@1@Z ENDP		; CalcSlideVec
_TEXT	ENDS
; Function compile flags: /Ogtp
; File C:\IAGOS\server\v18\Source\Source\_Common\xutil3d.cpp
; File C:\IAGOS\server\v18\Source\Source\DX_SDK\d3dx9math.inl
; File C:\IAGOS\server\v18\Source\Source\_Common\xutil3d.cpp
; File C:\IAGOS\server\v18\Source\Source\DX_SDK\d3dx9math.inl
; File C:\IAGOS\server\v18\Source\Source\_Common\xutil3d.cpp
; File C:\IAGOS\server\v18\Source\Source\DX_SDK\d3dx9math.inl
; File C:\IAGOS\server\v18\Source\Source\_Common\xutil3d.cpp
; File C:\IAGOS\server\v18\Source\Source\DX_SDK\d3dx9math.inl
; File C:\IAGOS\server\v18\Source\Source\_Common\xutil3d.cpp
; File C:\IAGOS\server\v18\Source\Source\DX_SDK\d3dx9math.inl
; File C:\IAGOS\server\v18\Source\Source\_Common\xutil3d.cpp
; File C:\IAGOS\server\v18\Source\Source\DX_SDK\d3dx9math.inl
; File C:\IAGOS\server\v18\Source\Source\_Common\xutil3d.cpp
; File C:\IAGOS\server\v18\Source\Source\DX_SDK\d3dx9math.inl
; File C:\IAGOS\server\v18\Source\Source\_Common\xutil3d.cpp
; File C:\IAGOS\server\v18\Source\Source\DX_SDK\d3dx9math.inl
; File C:\IAGOS\server\v18\Source\Source\_Common\xutil3d.cpp
;	COMDAT ?IsTouchRayTri@@YAHPBUD3DXVECTOR3@@0000PAM@Z
_TEXT	SEGMENT
tv940 = -12						; size = 4
tv919 = -8						; size = 4
tv934 = -4						; size = 4
_v0$ = 8						; size = 4
tv938 = 8						; size = 4
_v1$ = 12						; size = 4
tv936 = 12						; size = 4
_v2$ = 16						; size = 4
tv920 = 16						; size = 4
_vOrig$ = 20						; size = 4
_vDir$ = 24						; size = 4
tv926 = 24						; size = 4
_pfDist$ = 28						; size = 4
?IsTouchRayTri@@YAHPBUD3DXVECTOR3@@0000PAM@Z PROC	; IsTouchRayTri, COMDAT

; 233  : {

  00000	55		 push	 ebp
  00001	8b ec		 mov	 ebp, esp
  00003	83 ec 0c	 sub	 esp, 12			; 0000000cH
; File C:\IAGOS\server\v18\Source\Source\DX_SDK\d3dx9math.inl

; 383  :     return D3DXVECTOR3(x - v.x, y - v.y, z - v.z);

  00006	8b 45 0c	 mov	 eax, DWORD PTR _v1$[ebp]
  00009	8b 55 08	 mov	 edx, DWORD PTR _v0$[ebp]

; 1722 :     v.x = pV1->y * pV2->z - pV1->z * pV2->y;

  0000c	8b 4d 18	 mov	 ecx, DWORD PTR _vDir$[ebp]

; 383  :     return D3DXVECTOR3(x - v.x, y - v.y, z - v.z);

  0000f	f3 0f 10 10	 movss	 xmm2, DWORD PTR [eax]
  00013	f3 0f 10 58 04	 movss	 xmm3, DWORD PTR [eax+4]
  00018	f3 0f 10 60 08	 movss	 xmm4, DWORD PTR [eax+8]
  0001d	8b 45 10	 mov	 eax, DWORD PTR _v2$[ebp]
  00020	f3 0f 5c 12	 subss	 xmm2, DWORD PTR [edx]
  00024	f3 0f 5c 5a 04	 subss	 xmm3, DWORD PTR [edx+4]
  00029	f3 0f 5c 62 08	 subss	 xmm4, DWORD PTR [edx+8]
  0002e	f3 0f 10 40 08	 movss	 xmm0, DWORD PTR [eax+8]
  00033	f3 0f 5c 42 08	 subss	 xmm0, DWORD PTR [edx+8]
  00038	f3 0f 10 48 04	 movss	 xmm1, DWORD PTR [eax+4]
  0003d	f3 0f 5c 4a 04	 subss	 xmm1, DWORD PTR [edx+4]
  00042	f3 0f 10 30	 movss	 xmm6, DWORD PTR [eax]
  00046	f3 0f 5c 32	 subss	 xmm6, DWORD PTR [edx]

; 1722 :     v.x = pV1->y * pV2->z - pV1->z * pV2->y;

  0004a	0f 28 e8	 movaps	 xmm5, xmm0

; 383  :     return D3DXVECTOR3(x - v.x, y - v.y, z - v.z);

  0004d	f3 0f 11 45 10	 movss	 DWORD PTR tv920[ebp], xmm0

; 1722 :     v.x = pV1->y * pV2->z - pV1->z * pV2->y;

  00052	f3 0f 59 69 04	 mulss	 xmm5, DWORD PTR [ecx+4]
  00057	0f 28 c1	 movaps	 xmm0, xmm1

; 383  :     return D3DXVECTOR3(x - v.x, y - v.y, z - v.z);

  0005a	f3 0f 11 4d f8	 movss	 DWORD PTR tv919[ebp], xmm1

; 1722 :     v.x = pV1->y * pV2->z - pV1->z * pV2->y;

  0005f	f3 0f 59 41 08	 mulss	 xmm0, DWORD PTR [ecx+8]

; 1723 :     v.y = pV1->z * pV2->x - pV1->x * pV2->z;

  00064	0f 28 fe	 movaps	 xmm7, xmm6
  00067	f3 0f 59 79 08	 mulss	 xmm7, DWORD PTR [ecx+8]

; 1724 :     v.z = pV1->x * pV2->y - pV1->y * pV2->x;

  0006c	f3 0f 59 09	 mulss	 xmm1, DWORD PTR [ecx]
  00070	f3 0f 5c e8	 subss	 xmm5, xmm0
  00074	f3 0f 10 45 10	 movss	 xmm0, DWORD PTR tv920[ebp]
  00079	f3 0f 59 01	 mulss	 xmm0, DWORD PTR [ecx]

; 383  :     return D3DXVECTOR3(x - v.x, y - v.y, z - v.z);

  0007d	f3 0f 11 75 f4	 movss	 DWORD PTR tv940[ebp], xmm6
  00082	f3 0f 11 55 fc	 movss	 DWORD PTR tv934[ebp], xmm2

; 1723 :     v.y = pV1->z * pV2->x - pV1->x * pV2->z;

  00087	f3 0f 5c f8	 subss	 xmm7, xmm0

; 383  :     return D3DXVECTOR3(x - v.x, y - v.y, z - v.z);

  0008b	f3 0f 11 5d 0c	 movss	 DWORD PTR tv936[ebp], xmm3

; 1724 :     v.z = pV1->x * pV2->y - pV1->y * pV2->x;

  00090	0f 28 c6	 movaps	 xmm0, xmm6

; 383  :     return D3DXVECTOR3(x - v.x, y - v.y, z - v.z);

  00093	f3 0f 11 65 08	 movss	 DWORD PTR tv938[ebp], xmm4

; 1724 :     v.z = pV1->x * pV2->y - pV1->y * pV2->x;

  00098	f3 0f 59 41 04	 mulss	 xmm0, DWORD PTR [ecx+4]

; 1725 : 
; 1726 :     *pOut = v;

  0009d	0f 28 f7	 movaps	 xmm6, xmm7
  000a0	f3 0f 5c c8	 subss	 xmm1, xmm0
  000a4	f3 0f 59 f3	 mulss	 xmm6, xmm3

; 1709 :     return pV1->x * pV2->x + pV1->y * pV2->y + pV1->z * pV2->z;

  000a8	0f 28 c5	 movaps	 xmm0, xmm5
  000ab	f3 0f 59 c2	 mulss	 xmm0, xmm2

; 1724 :     v.z = pV1->x * pV2->y - pV1->y * pV2->x;

  000af	f3 0f 11 4d 18	 movss	 DWORD PTR tv926[ebp], xmm1

; 1709 :     return pV1->x * pV2->x + pV1->y * pV2->y + pV1->z * pV2->z;

  000b4	f3 0f 58 f0	 addss	 xmm6, xmm0
  000b8	0f 28 c1	 movaps	 xmm0, xmm1
  000bb	f3 0f 59 c4	 mulss	 xmm0, xmm4
  000bf	f3 0f 58 f0	 addss	 xmm6, xmm0
; File C:\IAGOS\server\v18\Source\Source\_Common\xutil3d.cpp

; 247  :     if( det > 0 )

  000c3	0f 2f 35 00 00
	00 00		 comiss	 xmm6, DWORD PTR __real@00000000
  000ca	0f 86 fa 00 00
	00		 jbe	 $LN2@IsTouchRay
; File C:\IAGOS\server\v18\Source\Source\DX_SDK\d3dx9math.inl

; 383  :     return D3DXVECTOR3(x - v.x, y - v.y, z - v.z);

  000d0	8b 45 14	 mov	 eax, DWORD PTR _vOrig$[ebp]
; File C:\IAGOS\server\v18\Source\Source\_Common\xutil3d.cpp

; 252  :     if( det < 0.0001f )

  000d3	f3 0f 10 05 00
	00 00 00	 movss	 xmm0, DWORD PTR __real@38d1b717
  000db	0f 2f c6	 comiss	 xmm0, xmm6
; File C:\IAGOS\server\v18\Source\Source\DX_SDK\d3dx9math.inl

; 383  :     return D3DXVECTOR3(x - v.x, y - v.y, z - v.z);

  000de	f3 0f 10 10	 movss	 xmm2, DWORD PTR [eax]
  000e2	f3 0f 10 60 04	 movss	 xmm4, DWORD PTR [eax+4]
  000e7	f3 0f 10 48 08	 movss	 xmm1, DWORD PTR [eax+8]
  000ec	f3 0f 5c 12	 subss	 xmm2, DWORD PTR [edx]
  000f0	f3 0f 5c 62 04	 subss	 xmm4, DWORD PTR [edx+4]
  000f5	f3 0f 5c 4a 08	 subss	 xmm1, DWORD PTR [edx+8]
; File C:\IAGOS\server\v18\Source\Source\_Common\xutil3d.cpp

; 252  :     if( det < 0.0001f )

  000fa	0f 87 ca 00 00
	00		 ja	 $LN2@IsTouchRay
; File C:\IAGOS\server\v18\Source\Source\DX_SDK\d3dx9math.inl

; 1709 :     return pV1->x * pV2->x + pV1->y * pV2->y + pV1->z * pV2->z;

  00100	0f 28 c2	 movaps	 xmm0, xmm2
  00103	0f 28 dc	 movaps	 xmm3, xmm4
  00106	f3 0f 59 df	 mulss	 xmm3, xmm7
  0010a	0f 57 ff	 xorps	 xmm7, xmm7
  0010d	f3 0f 59 c5	 mulss	 xmm0, xmm5
  00111	f3 0f 58 d8	 addss	 xmm3, xmm0
  00115	0f 28 c1	 movaps	 xmm0, xmm1
  00118	f3 0f 59 45 18	 mulss	 xmm0, DWORD PTR tv926[ebp]
  0011d	f3 0f 58 d8	 addss	 xmm3, xmm0
; File C:\IAGOS\server\v18\Source\Source\_Common\xutil3d.cpp

; 257  :     if( u < 0.0f || u > det )

  00121	0f 2f fb	 comiss	 xmm7, xmm3
  00124	0f 87 a0 00 00
	00		 ja	 $LN2@IsTouchRay
  0012a	0f 2f de	 comiss	 xmm3, xmm6
  0012d	0f 87 97 00 00
	00		 ja	 $LN2@IsTouchRay
; File C:\IAGOS\server\v18\Source\Source\DX_SDK\d3dx9math.inl

; 1722 :     v.x = pV1->y * pV2->z - pV1->z * pV2->y;

  00133	0f 28 ec	 movaps	 xmm5, xmm4
  00136	0f 28 c1	 movaps	 xmm0, xmm1
  00139	f3 0f 59 45 0c	 mulss	 xmm0, DWORD PTR tv936[ebp]
  0013e	f3 0f 59 6d 08	 mulss	 xmm5, DWORD PTR tv938[ebp]
  00143	f3 0f 59 4d fc	 mulss	 xmm1, DWORD PTR tv934[ebp]

; 1724 :     v.z = pV1->x * pV2->y - pV1->y * pV2->x;

  00148	f3 0f 59 65 fc	 mulss	 xmm4, DWORD PTR tv934[ebp]
  0014d	f3 0f 5c e8	 subss	 xmm5, xmm0
  00151	0f 28 c2	 movaps	 xmm0, xmm2
  00154	f3 0f 59 55 0c	 mulss	 xmm2, DWORD PTR tv936[ebp]
  00159	f3 0f 59 45 08	 mulss	 xmm0, DWORD PTR tv938[ebp]
  0015e	f3 0f 5c d4	 subss	 xmm2, xmm4

; 1709 :     return pV1->x * pV2->x + pV1->y * pV2->y + pV1->z * pV2->z;

  00162	0f 28 e5	 movaps	 xmm4, xmm5
  00165	f3 0f 59 21	 mulss	 xmm4, DWORD PTR [ecx]

; 1723 :     v.y = pV1->z * pV2->x - pV1->x * pV2->z;

  00169	f3 0f 5c c8	 subss	 xmm1, xmm0

; 1709 :     return pV1->x * pV2->x + pV1->y * pV2->y + pV1->z * pV2->z;

  0016d	0f 28 c1	 movaps	 xmm0, xmm1
  00170	f3 0f 59 41 04	 mulss	 xmm0, DWORD PTR [ecx+4]
  00175	f3 0f 58 e0	 addss	 xmm4, xmm0
  00179	0f 28 c2	 movaps	 xmm0, xmm2
  0017c	f3 0f 59 41 08	 mulss	 xmm0, DWORD PTR [ecx+8]
  00181	f3 0f 58 e0	 addss	 xmm4, xmm0
; File C:\IAGOS\server\v18\Source\Source\_Common\xutil3d.cpp

; 266  :     if( v < 0.0f || u + v > det )

  00185	0f 2f fc	 comiss	 xmm7, xmm4
  00188	77 40		 ja	 SHORT $LN2@IsTouchRay
  0018a	f3 0f 58 e3	 addss	 xmm4, xmm3
  0018e	0f 2f e6	 comiss	 xmm4, xmm6
  00191	77 37		 ja	 SHORT $LN2@IsTouchRay

; 271  : 	FLOAT fInvDet = 1.0f / det;

  00193	f3 0f 10 05 00
	00 00 00	 movss	 xmm0, DWORD PTR __real@3f800000
; File C:\IAGOS\server\v18\Source\Source\DX_SDK\d3dx9math.inl

; 1709 :     return pV1->x * pV2->x + pV1->y * pV2->y + pV1->z * pV2->z;

  0019b	f3 0f 59 4d f8	 mulss	 xmm1, DWORD PTR tv919[ebp]
; File C:\IAGOS\server\v18\Source\Source\_Common\xutil3d.cpp

; 273  : 	*pfDist = t;

  001a0	8b 45 1c	 mov	 eax, DWORD PTR _pfDist$[ebp]
; File C:\IAGOS\server\v18\Source\Source\DX_SDK\d3dx9math.inl

; 1709 :     return pV1->x * pV2->x + pV1->y * pV2->y + pV1->z * pV2->z;

  001a3	f3 0f 59 6d f4	 mulss	 xmm5, DWORD PTR tv940[ebp]
  001a8	f3 0f 59 55 10	 mulss	 xmm2, DWORD PTR tv920[ebp]
; File C:\IAGOS\server\v18\Source\Source\_Common\xutil3d.cpp

; 271  : 	FLOAT fInvDet = 1.0f / det;

  001ad	f3 0f 5e c6	 divss	 xmm0, xmm6
; File C:\IAGOS\server\v18\Source\Source\DX_SDK\d3dx9math.inl

; 1709 :     return pV1->x * pV2->x + pV1->y * pV2->y + pV1->z * pV2->z;

  001b1	f3 0f 58 cd	 addss	 xmm1, xmm5
  001b5	f3 0f 58 ca	 addss	 xmm1, xmm2
; File C:\IAGOS\server\v18\Source\Source\_Common\xutil3d.cpp

; 272  : 	t *= fInvDet;

  001b9	f3 0f 59 c8	 mulss	 xmm1, xmm0

; 273  : 	*pfDist = t;

  001bd	f3 0f 11 08	 movss	 DWORD PTR [eax], xmm1

; 274  : //	u *= fInvDet;
; 275  : //	v *= fInvDet;
; 276  : 
; 277  : //	*pvIntersect = vOrig + t * vDir;
; 278  :     return TRUE;

  001c1	b8 01 00 00 00	 mov	 eax, 1

; 279  : }

  001c6	8b e5		 mov	 esp, ebp
  001c8	5d		 pop	 ebp
  001c9	c3		 ret	 0
$LN2@IsTouchRay:

; 248  :         tvec = *vOrig - *v0;
; 249  :     else
; 250  : 		return FALSE;	// ¸éŔĚ ąÝ´ë´Ů.

  001ca	33 c0		 xor	 eax, eax

; 279  : }

  001cc	8b e5		 mov	 esp, ebp
  001ce	5d		 pop	 ebp
  001cf	c3		 ret	 0
?IsTouchRayTri@@YAHPBUD3DXVECTOR3@@0000PAM@Z ENDP	; IsTouchRayTri
_TEXT	ENDS
; Function compile flags: /Ogtp
; File C:\IAGOS\server\v18\Source\Source\_Common\xutil3d.cpp
;	COMDAT ?IsTouchOBB_Line@@YAHABUD3DXVECTOR3@@0ABUD3DXMATRIX@@00PAU1@@Z
_TEXT	SEGMENT
_m$GSCopy$1$ = -96					; size = 4
_mInv$ = -92						; size = 64
_rv1$ = -28						; size = 12
_rv2$ = -16						; size = 12
__$ArrayPad$ = -4					; size = 4
_vMin$ = 8						; size = 4
_vMax$ = 12						; size = 4
_m$ = 16						; size = 4
_v1$ = 20						; size = 4
_v2$ = 24						; size = 4
_pvIntersect$ = 28					; size = 4
?IsTouchOBB_Line@@YAHABUD3DXVECTOR3@@0ABUD3DXMATRIX@@00PAU1@@Z PROC ; IsTouchOBB_Line, COMDAT

; 213  : {

  00000	55		 push	 ebp
  00001	8b ec		 mov	 ebp, esp
  00003	83 ec 60	 sub	 esp, 96			; 00000060H
  00006	a1 00 00 00 00	 mov	 eax, DWORD PTR ___security_cookie
  0000b	33 c5		 xor	 eax, ebp
  0000d	89 45 fc	 mov	 DWORD PTR __$ArrayPad$[ebp], eax
  00010	8b 45 10	 mov	 eax, DWORD PTR _m$[ebp]
  00013	53		 push	 ebx
  00014	8b 5d 1c	 mov	 ebx, DWORD PTR _pvIntersect$[ebp]
  00017	56		 push	 esi
  00018	8b 75 14	 mov	 esi, DWORD PTR _v1$[ebp]
  0001b	57		 push	 edi
  0001c	8b 7d 18	 mov	 edi, DWORD PTR _v2$[ebp]

; 214  : 
; 215  : 	D3DXMATRIX	mInv;
; 216  : 	D3DXMatrixInverse( &mInv, NULL, &m );	// AABBŔÇ Č¸Ŕü ¸ĹĆ®¸Ż˝şŔÎ mŔ» żŞČ¸Ŕü ˝ĂĹ°±â Ŕ§ÇŘ żŞÇŕ·ÄŔ» ¸¸µç´Ů.

  0001f	50		 push	 eax
  00020	89 45 a0	 mov	 DWORD PTR _m$GSCopy$1$[ebp], eax
  00023	8d 45 a4	 lea	 eax, DWORD PTR _mInv$[ebp]
  00026	6a 00		 push	 0
  00028	50		 push	 eax
  00029	e8 00 00 00 00	 call	 _D3DXMatrixInverse@12

; 217  : 
; 218  : 	D3DXVECTOR3	rv1, rv2;
; 219  : 	D3DXVec3TransformCoord( &rv1, &v1, &mInv );		// Ľ±ŔÇ ľç łˇÁˇŔ» żŞČ¸Ŕü ˝ĂĹ˛´Ů.

  0002e	8d 45 a4	 lea	 eax, DWORD PTR _mInv$[ebp]
  00031	50		 push	 eax
  00032	56		 push	 esi
  00033	8d 45 e4	 lea	 eax, DWORD PTR _rv1$[ebp]
  00036	50		 push	 eax
  00037	e8 00 00 00 00	 call	 _D3DXVec3TransformCoord@12

; 220  : 	D3DXVec3TransformCoord( &rv2, &v2, &mInv );

  0003c	8d 45 a4	 lea	 eax, DWORD PTR _mInv$[ebp]
  0003f	50		 push	 eax
  00040	57		 push	 edi
  00041	8d 45 f0	 lea	 eax, DWORD PTR _rv2$[ebp]
  00044	50		 push	 eax
  00045	e8 00 00 00 00	 call	 _D3DXVec3TransformCoord@12

; 221  : 
; 222  : 	BOOL bResult = IsTouchAABB_Line( vMin, vMax, rv1, rv2, pvIntersect );	// AABB - Line ±łÂ÷¸¦ Ĺ×˝şĆ®

  0004a	53		 push	 ebx
  0004b	8d 45 f0	 lea	 eax, DWORD PTR _rv2$[ebp]
  0004e	50		 push	 eax
  0004f	8d 45 e4	 lea	 eax, DWORD PTR _rv1$[ebp]
  00052	50		 push	 eax
  00053	ff 75 0c	 push	 DWORD PTR _vMax$[ebp]
  00056	ff 75 08	 push	 DWORD PTR _vMin$[ebp]
  00059	e8 00 00 00 00	 call	 ?IsTouchAABB_Line@@YAHABUD3DXVECTOR3@@000PAU1@@Z ; IsTouchAABB_Line
  0005e	8b f0		 mov	 esi, eax
  00060	83 c4 14	 add	 esp, 20			; 00000014H

; 223  : 	if( bResult) 

  00063	85 f6		 test	 esi, esi
  00065	74 0c		 je	 SHORT $LN2@IsTouchOBB

; 224  : 		D3DXVec3TransformCoord( pvIntersect, pvIntersect, &m );

  00067	ff 75 a0	 push	 DWORD PTR _m$GSCopy$1$[ebp]
  0006a	53		 push	 ebx
  0006b	53		 push	 ebx
  0006c	e8 00 00 00 00	 call	 _D3DXVec3TransformCoord@12

; 225  : 
; 226  : 	return bResult;

  00071	8b c6		 mov	 eax, esi
$LN2@IsTouchOBB:

; 227  : }

  00073	8b 4d fc	 mov	 ecx, DWORD PTR __$ArrayPad$[ebp]
  00076	5f		 pop	 edi
  00077	5e		 pop	 esi
  00078	33 cd		 xor	 ecx, ebp
  0007a	5b		 pop	 ebx
  0007b	e8 00 00 00 00	 call	 @__security_check_cookie@4
  00080	8b e5		 mov	 esp, ebp
  00082	5d		 pop	 ebp
  00083	c3		 ret	 0
?IsTouchOBB_Line@@YAHABUD3DXVECTOR3@@0ABUD3DXMATRIX@@00PAU1@@Z ENDP ; IsTouchOBB_Line
_TEXT	ENDS
; Function compile flags: /Ogtp
; File C:\IAGOS\server\v18\Source\Source\_Common\xutil3d.cpp
;	COMDAT ?IsTouchAABB_Line@@YAHABUD3DXVECTOR3@@000PAU1@@Z
_TEXT	SEGMENT
_vMin$ = 8						; size = 4
_vMax$ = 12						; size = 4
_v1$ = 16						; size = 4
_v2$ = 20						; size = 4
_pvIntersect$ = 24					; size = 4
?IsTouchAABB_Line@@YAHABUD3DXVECTOR3@@000PAU1@@Z PROC	; IsTouchAABB_Line, COMDAT

; 130  : {

  00000	55		 push	 ebp
  00001	8b ec		 mov	 ebp, esp
  00003	53		 push	 ebx
  00004	56		 push	 esi
  00005	8b 75 08	 mov	 esi, DWORD PTR _vMin$[ebp]
  00008	57		 push	 edi

; 131  : 	int nOutCode1, nOutCode2;
; 132  : 
; 133  : 	nOutCode1 = CalcOutCode( vMin, vMax, v1 );

  00009	ff 75 10	 push	 DWORD PTR _v1$[ebp]
  0000c	8b 7d 0c	 mov	 edi, DWORD PTR _vMax$[ebp]
  0000f	57		 push	 edi
  00010	56		 push	 esi
  00011	e8 00 00 00 00	 call	 ?CalcOutCode@@YAHABUD3DXVECTOR3@@00@Z ; CalcOutCode
  00016	8b d8		 mov	 ebx, eax
  00018	83 c4 0c	 add	 esp, 12			; 0000000cH

; 134  : 	if( nOutCode1 == 0 ) {

  0001b	85 db		 test	 ebx, ebx
  0001d	75 1e		 jne	 SHORT $LN2@IsTouchAAB

; 135  : 		// point inside bounding box
; 136  : 		*pvIntersect = v1;

  0001f	8b 45 10	 mov	 eax, DWORD PTR _v1$[ebp]
$LN38@IsTouchAAB:

; 197  : 			return TRUE;
; 198  : 		}
; 199  : 	}
; 200  : 
; 201  : 	// nothing found
; 202  : 	return FALSE;
; 203  : }

  00022	8b 4d 18	 mov	 ecx, DWORD PTR _pvIntersect$[ebp]
  00025	f3 0f 7e 00	 movq	 xmm0, QWORD PTR [eax]
  00029	66 0f d6 01	 movq	 QWORD PTR [ecx], xmm0
  0002d	8b 40 08	 mov	 eax, DWORD PTR [eax+8]
  00030	89 41 08	 mov	 DWORD PTR [ecx+8], eax
$LN18@IsTouchAAB:
  00033	5f		 pop	 edi
  00034	5e		 pop	 esi
  00035	b8 01 00 00 00	 mov	 eax, 1
  0003a	5b		 pop	 ebx
  0003b	5d		 pop	 ebp
  0003c	c3		 ret	 0
$LN2@IsTouchAAB:

; 137  : 		return TRUE;
; 138  : 	}
; 139  : 
; 140  : 	nOutCode2 = CalcOutCode( vMin, vMax, v2 );

  0003d	ff 75 14	 push	 DWORD PTR _v2$[ebp]
  00040	57		 push	 edi
  00041	56		 push	 esi
  00042	e8 00 00 00 00	 call	 ?CalcOutCode@@YAHABUD3DXVECTOR3@@00@Z ; CalcOutCode
  00047	83 c4 0c	 add	 esp, 12			; 0000000cH

; 141  : 	if( nOutCode2 == 0 ) {

  0004a	85 c0		 test	 eax, eax
  0004c	75 05		 jne	 SHORT $LN3@IsTouchAAB

; 142  : 		// point inside bounding box
; 143  : 		*pvIntersect = v2;

  0004e	8b 45 14	 mov	 eax, DWORD PTR _v2$[ebp]

; 144  : 		return TRUE;

  00051	eb cf		 jmp	 SHORT $LN38@IsTouchAAB
$LN3@IsTouchAAB:

; 145  : 	}
; 146  : 
; 147  : 	if( (nOutCode1 & nOutCode2) > 0 ) {

  00053	85 c3		 test	 eax, ebx
  00055	0f 8f 88 01 00
	00		 jg	 $LN16@IsTouchAAB

; 148  : 		// both points on same side of box
; 149  : 		return FALSE;
; 150  : 	}
; 151  : 
; 152  : 	// check intersections
; 153  : 	if( nOutCode1 & (CLIP_RIGHT | CLIP_LEFT) ) {

  0005b	8b 4d 10	 mov	 ecx, DWORD PTR _v1$[ebp]
  0005e	8b 55 14	 mov	 edx, DWORD PTR _v2$[ebp]
  00061	f6 c3 03	 test	 bl, 3
  00064	74 7b		 je	 SHORT $LN8@IsTouchAAB

; 154  : 		if( nOutCode1 & CLIP_RIGHT ) {

  00066	f6 c3 01	 test	 bl, 1

; 155  : 			pvIntersect->x = vMax.x;
; 156  : 		} else {
; 157  : 			pvIntersect->x = vMin.x;
; 158  : 		}
; 159  : 		float x1 = v2.x - v1.x;

  00069	8b c7		 mov	 eax, edi
  0006b	0f 44 c6	 cmove	 eax, esi
  0006e	f3 0f 10 10	 movss	 xmm2, DWORD PTR [eax]
  00072	8b 45 18	 mov	 eax, DWORD PTR _pvIntersect$[ebp]
  00075	f3 0f 11 10	 movss	 DWORD PTR [eax], xmm2

; 160  : 		float x2 = pvIntersect->x - v1.x;
; 161  : 		pvIntersect->y = v1.y + x2 * (v2.y - v1.y) / x1;

  00079	f3 0f 10 62 04	 movss	 xmm4, DWORD PTR [edx+4]
  0007e	f3 0f 5c 61 04	 subss	 xmm4, DWORD PTR [ecx+4]
  00083	f3 0f 5c 11	 subss	 xmm2, DWORD PTR [ecx]
  00087	f3 0f 10 0a	 movss	 xmm1, DWORD PTR [edx]
  0008b	f3 0f 5c 09	 subss	 xmm1, DWORD PTR [ecx]
  0008f	f3 0f 59 e2	 mulss	 xmm4, xmm2
  00093	f3 0f 5e e1	 divss	 xmm4, xmm1
  00097	f3 0f 58 61 04	 addss	 xmm4, DWORD PTR [ecx+4]
  0009c	f3 0f 11 60 04	 movss	 DWORD PTR [eax+4], xmm4

; 162  : 		pvIntersect->z = v1.z + x2 * (v2.z - v1.z) / x1;

  000a1	f3 0f 10 5a 08	 movss	 xmm3, DWORD PTR [edx+8]
  000a6	f3 0f 5c 59 08	 subss	 xmm3, DWORD PTR [ecx+8]
  000ab	f3 0f 59 da	 mulss	 xmm3, xmm2
  000af	f3 0f 5e d9	 divss	 xmm3, xmm1
  000b3	f3 0f 58 59 08	 addss	 xmm3, DWORD PTR [ecx+8]
  000b8	f3 0f 11 58 08	 movss	 DWORD PTR [eax+8], xmm3

; 163  : 
; 164  : 		if( pvIntersect->y <= vMax.y && pvIntersect->y >= vMin.y && pvIntersect->z <= vMax.z && pvIntersect->z >= vMin.z ) {

  000bd	f3 0f 10 47 04	 movss	 xmm0, DWORD PTR [edi+4]
  000c2	0f 2f c4	 comiss	 xmm0, xmm4
  000c5	72 1a		 jb	 SHORT $LN8@IsTouchAAB
  000c7	0f 2f 66 04	 comiss	 xmm4, DWORD PTR [esi+4]
  000cb	72 14		 jb	 SHORT $LN8@IsTouchAAB
  000cd	f3 0f 10 47 08	 movss	 xmm0, DWORD PTR [edi+8]
  000d2	0f 2f c3	 comiss	 xmm0, xmm3
  000d5	72 0a		 jb	 SHORT $LN8@IsTouchAAB
  000d7	0f 2f 5e 08	 comiss	 xmm3, DWORD PTR [esi+8]
  000db	0f 83 52 ff ff
	ff		 jae	 $LN18@IsTouchAAB
$LN8@IsTouchAAB:

; 165  : 			return TRUE;
; 166  : 		}
; 167  : 	}
; 168  : 
; 169  : 	if( nOutCode1 & (CLIP_TOP | CLIP_BOTTOM) ) {

  000e1	f6 c3 0c	 test	 bl, 12			; 0000000cH
  000e4	74 7a		 je	 SHORT $LN12@IsTouchAAB

; 170  : 		if( nOutCode1 & CLIP_TOP ) {

  000e6	f6 c3 04	 test	 bl, 4

; 171  : 			pvIntersect->y = vMax.y;
; 172  : 		} else {
; 173  : 			pvIntersect->y = vMin.y;
; 174  : 		}
; 175  : 		float y1 = v2.y - v1.y;

  000e9	8b c7		 mov	 eax, edi
  000eb	0f 44 c6	 cmove	 eax, esi
  000ee	f3 0f 10 50 04	 movss	 xmm2, DWORD PTR [eax+4]
  000f3	8b 45 18	 mov	 eax, DWORD PTR _pvIntersect$[ebp]
  000f6	f3 0f 11 50 04	 movss	 DWORD PTR [eax+4], xmm2

; 176  : 		float y2 = pvIntersect->y - v1.y;
; 177  : 		pvIntersect->x = v1.x + y2 * (v2.x - v1.x) / y1;

  000fb	f3 0f 10 22	 movss	 xmm4, DWORD PTR [edx]
  000ff	f3 0f 5c 21	 subss	 xmm4, DWORD PTR [ecx]
  00103	f3 0f 5c 51 04	 subss	 xmm2, DWORD PTR [ecx+4]
  00108	f3 0f 10 4a 04	 movss	 xmm1, DWORD PTR [edx+4]
  0010d	f3 0f 5c 49 04	 subss	 xmm1, DWORD PTR [ecx+4]
  00112	f3 0f 59 e2	 mulss	 xmm4, xmm2
  00116	f3 0f 5e e1	 divss	 xmm4, xmm1
  0011a	f3 0f 58 21	 addss	 xmm4, DWORD PTR [ecx]
  0011e	f3 0f 11 20	 movss	 DWORD PTR [eax], xmm4

; 178  : 		pvIntersect->z = v1.z + y2 * (v2.z - v1.z) / y1;

  00122	f3 0f 10 5a 08	 movss	 xmm3, DWORD PTR [edx+8]
  00127	f3 0f 5c 59 08	 subss	 xmm3, DWORD PTR [ecx+8]
  0012c	f3 0f 59 da	 mulss	 xmm3, xmm2
  00130	f3 0f 5e d9	 divss	 xmm3, xmm1
  00134	f3 0f 58 59 08	 addss	 xmm3, DWORD PTR [ecx+8]
  00139	f3 0f 11 58 08	 movss	 DWORD PTR [eax+8], xmm3

; 179  : 
; 180  : 		if( pvIntersect->x <= vMax.x && pvIntersect->x >= vMin.x && pvIntersect->z <= vMax.z && pvIntersect->z >= vMin.z ) {

  0013e	f3 0f 10 07	 movss	 xmm0, DWORD PTR [edi]
  00142	0f 2f c4	 comiss	 xmm0, xmm4
  00145	72 19		 jb	 SHORT $LN12@IsTouchAAB
  00147	0f 2f 26	 comiss	 xmm4, DWORD PTR [esi]
  0014a	72 14		 jb	 SHORT $LN12@IsTouchAAB
  0014c	f3 0f 10 47 08	 movss	 xmm0, DWORD PTR [edi+8]
  00151	0f 2f c3	 comiss	 xmm0, xmm3
  00154	72 0a		 jb	 SHORT $LN12@IsTouchAAB
  00156	0f 2f 5e 08	 comiss	 xmm3, DWORD PTR [esi+8]
  0015a	0f 83 d3 fe ff
	ff		 jae	 $LN18@IsTouchAAB
$LN12@IsTouchAAB:

; 181  : 			return TRUE;
; 182  : 		}
; 183  : 	}
; 184  : 
; 185  : 	if( nOutCode1 & (CLIP_FRONT | CLIP_BACK) ) {

  00160	f6 c3 30	 test	 bl, 48			; 00000030H
  00163	74 7e		 je	 SHORT $LN16@IsTouchAAB

; 186  : 		if( nOutCode1 & CLIP_BACK ) {

  00165	f6 c3 20	 test	 bl, 32			; 00000020H

; 187  : 			pvIntersect->z = vMax.z;
; 188  : 		} else {
; 189  : 			pvIntersect->z = vMin.z;
; 190  : 		}
; 191  : 		float z1 = v2.z - v1.z;

  00168	8b c7		 mov	 eax, edi
  0016a	0f 44 c6	 cmove	 eax, esi
  0016d	f3 0f 10 50 08	 movss	 xmm2, DWORD PTR [eax+8]
  00172	8b 45 18	 mov	 eax, DWORD PTR _pvIntersect$[ebp]
  00175	f3 0f 11 50 08	 movss	 DWORD PTR [eax+8], xmm2

; 192  : 		float z2 = pvIntersect->z - v1.z;
; 193  : 		pvIntersect->x = v1.x + z2 * (v2.x - v1.x) / z1;

  0017a	f3 0f 10 22	 movss	 xmm4, DWORD PTR [edx]
  0017e	f3 0f 5c 21	 subss	 xmm4, DWORD PTR [ecx]
  00182	f3 0f 5c 51 08	 subss	 xmm2, DWORD PTR [ecx+8]
  00187	f3 0f 10 4a 08	 movss	 xmm1, DWORD PTR [edx+8]
  0018c	f3 0f 5c 49 08	 subss	 xmm1, DWORD PTR [ecx+8]
  00191	f3 0f 59 e2	 mulss	 xmm4, xmm2
  00195	f3 0f 5e e1	 divss	 xmm4, xmm1
  00199	f3 0f 58 21	 addss	 xmm4, DWORD PTR [ecx]
  0019d	f3 0f 11 20	 movss	 DWORD PTR [eax], xmm4

; 194  : 		pvIntersect->y = v1.y + z2 * (v2.y - v1.y) / z1;

  001a1	f3 0f 10 5a 04	 movss	 xmm3, DWORD PTR [edx+4]
  001a6	f3 0f 5c 59 04	 subss	 xmm3, DWORD PTR [ecx+4]
  001ab	f3 0f 59 da	 mulss	 xmm3, xmm2
  001af	f3 0f 5e d9	 divss	 xmm3, xmm1
  001b3	f3 0f 58 59 04	 addss	 xmm3, DWORD PTR [ecx+4]
  001b8	f3 0f 11 58 04	 movss	 DWORD PTR [eax+4], xmm3

; 195  : 
; 196  : 		if( pvIntersect->x <= vMax.x && pvIntersect->x >= vMin.x && pvIntersect->y <= vMax.y && pvIntersect->y >= vMin.y ) {

  001bd	f3 0f 10 07	 movss	 xmm0, DWORD PTR [edi]
  001c1	0f 2f c4	 comiss	 xmm0, xmm4
  001c4	72 1d		 jb	 SHORT $LN16@IsTouchAAB
  001c6	0f 2f 26	 comiss	 xmm4, DWORD PTR [esi]
  001c9	72 18		 jb	 SHORT $LN16@IsTouchAAB
  001cb	f3 0f 10 47 04	 movss	 xmm0, DWORD PTR [edi+4]
  001d0	0f 2f c3	 comiss	 xmm0, xmm3
  001d3	72 0e		 jb	 SHORT $LN16@IsTouchAAB
  001d5	33 c0		 xor	 eax, eax
  001d7	0f 2f 5e 04	 comiss	 xmm3, DWORD PTR [esi+4]
  001db	5f		 pop	 edi

; 197  : 			return TRUE;
; 198  : 		}
; 199  : 	}
; 200  : 
; 201  : 	// nothing found
; 202  : 	return FALSE;
; 203  : }

  001dc	5e		 pop	 esi
  001dd	5b		 pop	 ebx
  001de	0f 93 c0	 setae	 al
  001e1	5d		 pop	 ebp
  001e2	c3		 ret	 0
$LN16@IsTouchAAB:
  001e3	5f		 pop	 edi
  001e4	5e		 pop	 esi
  001e5	33 c0		 xor	 eax, eax
  001e7	5b		 pop	 ebx
  001e8	5d		 pop	 ebp
  001e9	c3		 ret	 0
?IsTouchAABB_Line@@YAHABUD3DXVECTOR3@@000PAU1@@Z ENDP	; IsTouchAABB_Line
_TEXT	ENDS
; Function compile flags: /Ogtp
; File C:\IAGOS\server\v18\Source\Source\_Common\xutil3d.cpp
;	COMDAT ?IsTouchAABB@@YAHABUD3DXVECTOR3@@000@Z
_TEXT	SEGMENT
_vMin1$ = 8						; size = 4
_vMax1$ = 12						; size = 4
_vMin2$ = 16						; size = 4
_vMax2$ = 20						; size = 4
?IsTouchAABB@@YAHABUD3DXVECTOR3@@000@Z PROC		; IsTouchAABB, COMDAT

; 67   : {

  00000	55		 push	 ebp
  00001	8b ec		 mov	 ebp, esp

; 68   : 	if( vMin2.x > vMax1.x )		return 0;		// v2°ˇ xĂŕ żŔ¸ĄÂĘŔ¸·Î ąţľîłµ´Ů.

  00003	8b 45 10	 mov	 eax, DWORD PTR _vMin2$[ebp]
  00006	8b 4d 0c	 mov	 ecx, DWORD PTR _vMax1$[ebp]
  00009	56		 push	 esi
  0000a	f3 0f 10 00	 movss	 xmm0, DWORD PTR [eax]
  0000e	0f 2f 01	 comiss	 xmm0, DWORD PTR [ecx]
  00011	77 41		 ja	 SHORT $LN9@IsTouchAAB

; 69   : 	if( vMax2.x < vMin1.x )		return 0;		// v2°ˇ xĂŕ żŢÂĘŔ¸·Î ąţľîłµ´Ů.

  00013	8b 55 08	 mov	 edx, DWORD PTR _vMin1$[ebp]
  00016	8b 75 14	 mov	 esi, DWORD PTR _vMax2$[ebp]
  00019	f3 0f 10 02	 movss	 xmm0, DWORD PTR [edx]
  0001d	0f 2f 06	 comiss	 xmm0, DWORD PTR [esi]
  00020	77 32		 ja	 SHORT $LN9@IsTouchAAB

; 70   : 	if( vMin2.z > vMax1.z )		return 0;		// v2°ˇ zĂŕ ľŐŔ¸·Î ąţľîłµ´Ů.

  00022	f3 0f 10 40 08	 movss	 xmm0, DWORD PTR [eax+8]
  00027	0f 2f 41 08	 comiss	 xmm0, DWORD PTR [ecx+8]
  0002b	77 27		 ja	 SHORT $LN9@IsTouchAAB

; 71   : 	if( vMax2.z < vMin1.z )		return 0;		// v2°ˇ zĂŕ µÚ·ÎŔ¸·Î ąţľîłµ´Ů.

  0002d	f3 0f 10 42 08	 movss	 xmm0, DWORD PTR [edx+8]
  00032	0f 2f 46 08	 comiss	 xmm0, DWORD PTR [esi+8]
  00036	77 1c		 ja	 SHORT $LN9@IsTouchAAB

; 72   : 	if( vMin2.y > vMax1.y )		return 0;		// v2°ˇ yĂŕ Ŕ§·Î ąţľîłµ´Ů.

  00038	f3 0f 10 40 04	 movss	 xmm0, DWORD PTR [eax+4]
  0003d	0f 2f 41 04	 comiss	 xmm0, DWORD PTR [ecx+4]
  00041	77 11		 ja	 SHORT $LN9@IsTouchAAB

; 73   : 	if( vMax2.y < vMin1.y )		return 0;		// v2°ˇ yĂŕ ľĆ·ˇ·Î ąţľîłµ´Ů.

  00043	f3 0f 10 42 04	 movss	 xmm0, DWORD PTR [edx+4]
  00048	33 c0		 xor	 eax, eax
  0004a	0f 2f 46 04	 comiss	 xmm0, DWORD PTR [esi+4]
  0004e	5e		 pop	 esi
  0004f	0f 96 c0	 setbe	 al

; 74   : 
; 75   : 	return 1;
; 76   : }

  00052	5d		 pop	 ebp
  00053	c3		 ret	 0
$LN9@IsTouchAAB:

; 73   : 	if( vMax2.y < vMin1.y )		return 0;		// v2°ˇ yĂŕ ľĆ·ˇ·Î ąţľîłµ´Ů.

  00054	33 c0		 xor	 eax, eax
  00056	5e		 pop	 esi

; 74   : 
; 75   : 	return 1;
; 76   : }

  00057	5d		 pop	 ebp
  00058	c3		 ret	 0
?IsTouchAABB@@YAHABUD3DXVECTOR3@@000@Z ENDP		; IsTouchAABB
_TEXT	ENDS
; Function compile flags: /Ogtp
; File C:\IAGOS\server\v18\Source\Source\_Common\xutil3d.cpp
;	COMDAT ?SetBB@@YAXPAUD3DXVECTOR3@@ABU1@1@Z
_TEXT	SEGMENT
_pBBVList$ = 8						; size = 4
_vMin$ = 12						; size = 4
_vMax$ = 16						; size = 4
?SetBB@@YAXPAUD3DXVECTOR3@@ABU1@1@Z PROC		; SetBB, COMDAT

; 27   : {

  00000	55		 push	 ebp
  00001	8b ec		 mov	 ebp, esp

; 28   : 	pBBVList[0].x = vMin.x;

  00003	8b 55 0c	 mov	 edx, DWORD PTR _vMin$[ebp]

; 29   : 	pBBVList[0].y = vMax.y;

  00006	8b 4d 10	 mov	 ecx, DWORD PTR _vMax$[ebp]
  00009	56		 push	 esi
  0000a	8b 75 08	 mov	 esi, DWORD PTR _pBBVList$[ebp]
  0000d	8b 02		 mov	 eax, DWORD PTR [edx]
  0000f	89 06		 mov	 DWORD PTR [esi], eax
  00011	8b 41 04	 mov	 eax, DWORD PTR [ecx+4]
  00014	89 46 04	 mov	 DWORD PTR [esi+4], eax

; 30   : 	pBBVList[0].z = vMin.z;

  00017	8b 42 08	 mov	 eax, DWORD PTR [edx+8]
  0001a	89 46 08	 mov	 DWORD PTR [esi+8], eax

; 31   : 
; 32   : 	pBBVList[1].x = vMax.x;

  0001d	8b 01		 mov	 eax, DWORD PTR [ecx]
  0001f	89 46 0c	 mov	 DWORD PTR [esi+12], eax

; 33   : 	pBBVList[1].y = vMax.y;

  00022	8b 41 04	 mov	 eax, DWORD PTR [ecx+4]
  00025	89 46 10	 mov	 DWORD PTR [esi+16], eax

; 34   : 	pBBVList[1].z = vMin.z;

  00028	8b 42 08	 mov	 eax, DWORD PTR [edx+8]
  0002b	89 46 14	 mov	 DWORD PTR [esi+20], eax

; 35   : 
; 36   : 	pBBVList[2].x = vMax.x;

  0002e	8b 01		 mov	 eax, DWORD PTR [ecx]
  00030	89 46 18	 mov	 DWORD PTR [esi+24], eax

; 37   : 	pBBVList[2].y = vMax.y;

  00033	8b 41 04	 mov	 eax, DWORD PTR [ecx+4]
  00036	89 46 1c	 mov	 DWORD PTR [esi+28], eax

; 38   : 	pBBVList[2].z = vMax.z;

  00039	8b 41 08	 mov	 eax, DWORD PTR [ecx+8]
  0003c	89 46 20	 mov	 DWORD PTR [esi+32], eax

; 39   : 
; 40   : 	pBBVList[3].x = vMin.x;

  0003f	8b 02		 mov	 eax, DWORD PTR [edx]
  00041	89 46 24	 mov	 DWORD PTR [esi+36], eax

; 41   : 	pBBVList[3].y = vMax.y;

  00044	8b 41 04	 mov	 eax, DWORD PTR [ecx+4]
  00047	89 46 28	 mov	 DWORD PTR [esi+40], eax

; 42   : 	pBBVList[3].z = vMax.z;

  0004a	8b 41 08	 mov	 eax, DWORD PTR [ecx+8]
  0004d	89 46 2c	 mov	 DWORD PTR [esi+44], eax

; 43   : 
; 44   : 	pBBVList[4].x = vMin.x;

  00050	8b 02		 mov	 eax, DWORD PTR [edx]
  00052	89 46 30	 mov	 DWORD PTR [esi+48], eax

; 45   : 	pBBVList[4].y = vMin.y;

  00055	8b 42 04	 mov	 eax, DWORD PTR [edx+4]
  00058	89 46 34	 mov	 DWORD PTR [esi+52], eax

; 46   : 	pBBVList[4].z = vMin.z;

  0005b	8b 42 08	 mov	 eax, DWORD PTR [edx+8]
  0005e	89 46 38	 mov	 DWORD PTR [esi+56], eax

; 47   : 
; 48   : 	pBBVList[5].x = vMax.x;

  00061	8b 01		 mov	 eax, DWORD PTR [ecx]
  00063	89 46 3c	 mov	 DWORD PTR [esi+60], eax

; 49   : 	pBBVList[5].y = vMin.y;

  00066	8b 42 04	 mov	 eax, DWORD PTR [edx+4]
  00069	89 46 40	 mov	 DWORD PTR [esi+64], eax

; 50   : 	pBBVList[5].z = vMin.z;

  0006c	8b 42 08	 mov	 eax, DWORD PTR [edx+8]
  0006f	89 46 44	 mov	 DWORD PTR [esi+68], eax

; 51   : 
; 52   : 	pBBVList[6].x = vMax.x;

  00072	8b 01		 mov	 eax, DWORD PTR [ecx]
  00074	89 46 48	 mov	 DWORD PTR [esi+72], eax

; 53   : 	pBBVList[6].y = vMin.y;

  00077	8b 42 04	 mov	 eax, DWORD PTR [edx+4]
  0007a	89 46 4c	 mov	 DWORD PTR [esi+76], eax

; 54   : 	pBBVList[6].z = vMax.z;

  0007d	8b 41 08	 mov	 eax, DWORD PTR [ecx+8]
  00080	89 46 50	 mov	 DWORD PTR [esi+80], eax

; 55   : 
; 56   : 	pBBVList[7].x = vMin.x;

  00083	8b 02		 mov	 eax, DWORD PTR [edx]
  00085	89 46 54	 mov	 DWORD PTR [esi+84], eax

; 57   : 	pBBVList[7].y = vMin.y;

  00088	8b 42 04	 mov	 eax, DWORD PTR [edx+4]
  0008b	89 46 58	 mov	 DWORD PTR [esi+88], eax

; 58   : 	pBBVList[7].z = vMax.z;

  0008e	8b 41 08	 mov	 eax, DWORD PTR [ecx+8]
  00091	89 46 5c	 mov	 DWORD PTR [esi+92], eax
  00094	5e		 pop	 esi

; 59   : }

  00095	5d		 pop	 ebp
  00096	c3		 ret	 0
?SetBB@@YAXPAUD3DXVECTOR3@@ABU1@1@Z ENDP		; SetBB
_TEXT	ENDS
; Function compile flags: /Ogtp
; File C:\IAGOS\server\v18\Source\Source\_Common\xutil3d.cpp
; File C:\Program Files (x86)\Windows Kits\10\Include\10.0.26100.0\ucrt\corecrt_math.h
; File C:\IAGOS\server\v18\Source\Source\_Common\xutil3d.cpp
; File C:\Program Files (x86)\Windows Kits\10\Include\10.0.26100.0\ucrt\corecrt_math.h
; File C:\IAGOS\server\v18\Source\Source\_Common\xutil3d.cpp
; File C:\Program Files (x86)\Windows Kits\10\Include\10.0.26100.0\ucrt\corecrt_math.h
; File C:\IAGOS\server\v18\Source\Source\_Common\xutil3d.cpp
; File C:\Program Files (x86)\Windows Kits\10\Include\10.0.26100.0\ucrt\corecrt_math.h
; File C:\IAGOS\server\v18\Source\Source\_Common\xutil3d.cpp
; File C:\Program Files (x86)\Windows Kits\10\Include\10.0.26100.0\ucrt\corecrt_math.h
; File C:\IAGOS\server\v18\Source\Source\_Common\xutil3d.cpp
; File C:\Program Files (x86)\Windows Kits\10\Include\10.0.26100.0\ucrt\corecrt_math.h
; File C:\IAGOS\server\v18\Source\Source\_Common\xutil3d.cpp
; File C:\Program Files (x86)\Windows Kits\10\Include\10.0.26100.0\ucrt\corecrt_math.h
; File C:\IAGOS\server\v18\Source\Source\_Common\xutil3d.cpp
; File C:\Program Files (x86)\Windows Kits\10\Include\10.0.26100.0\ucrt\corecrt_math.h
; File C:\IAGOS\server\v18\Source\Source\_Common\xutil3d.cpp
;	COMDAT ?QuaternionRotationToYPW@@YAXABUD3DXQUATERNION@@AAUD3DXVECTOR3@@@Z
_TEXT	SEGMENT
tv334 = -28						; size = 8
tv337 = -28						; size = 8
tv310 = -24						; size = 4
tv345 = -20						; size = 8
tv348 = -20						; size = 8
tv299 = -16						; size = 4
_sqw$1$ = -12						; size = 4
_sqz$1$ = -8						; size = 4
_sqx$1$ = -4						; size = 4
_qRot$ = 8						; size = 4
_sqy$1$ = 8						; size = 4
_vYPW$ = 12						; size = 4
?QuaternionRotationToYPW@@YAXABUD3DXQUATERNION@@AAUD3DXVECTOR3@@@Z PROC ; QuaternionRotationToYPW, COMDAT

; 8    : {

  00000	55		 push	 ebp
  00001	8b ec		 mov	 ebp, esp
  00003	83 ec 1c	 sub	 esp, 28			; 0000001cH

; 9    : 	FLOAT pitch, yaw, roll;
; 10   : 	FLOAT sqw = qRot.w*qRot.w;

  00006	8b 45 08	 mov	 eax, DWORD PTR _qRot$[ebp]
  00009	56		 push	 esi
  0000a	f3 0f 10 60 0c	 movss	 xmm4, DWORD PTR [eax+12]

; 11   : 	FLOAT sqx = qRot.x*qRot.x;

  0000f	f3 0f 10 28	 movss	 xmm5, DWORD PTR [eax]
  00013	0f 28 c4	 movaps	 xmm0, xmm4

; 12   : 	FLOAT sqy = qRot.y*qRot.y;

  00016	f3 0f 10 50 04	 movss	 xmm2, DWORD PTR [eax+4]

; 13   : 	FLOAT sqz = qRot.z*qRot.z;

  0001b	f3 0f 10 48 08	 movss	 xmm1, DWORD PTR [eax+8]
  00020	f3 0f 59 c4	 mulss	 xmm0, xmm4

; 16   : 	yaw   = atan2f(2.0f * (qRot.x*qRot.z + qRot.w*qRot.y),(-sqx - sqy + sqz + sqw)); 

  00024	0f 28 d9	 movaps	 xmm3, xmm1
  00027	f3 0f 59 dd	 mulss	 xmm3, xmm5
  0002b	f3 0f 11 45 f4	 movss	 DWORD PTR _sqw$1$[ebp], xmm0
  00030	0f 28 c5	 movaps	 xmm0, xmm5
  00033	f3 0f 59 c5	 mulss	 xmm0, xmm5
  00037	f3 0f 11 45 fc	 movss	 DWORD PTR _sqx$1$[ebp], xmm0
  0003c	0f 28 c2	 movaps	 xmm0, xmm2
  0003f	f3 0f 59 c2	 mulss	 xmm0, xmm2
  00043	f3 0f 11 45 08	 movss	 DWORD PTR _sqy$1$[ebp], xmm0
  00048	0f 28 c1	 movaps	 xmm0, xmm1
  0004b	f3 0f 59 c1	 mulss	 xmm0, xmm1
  0004f	f3 0f 11 45 f8	 movss	 DWORD PTR _sqz$1$[ebp], xmm0
  00054	0f 28 c2	 movaps	 xmm0, xmm2
  00057	f3 0f 59 c4	 mulss	 xmm0, xmm4
  0005b	f3 0f 58 d8	 addss	 xmm3, xmm0

; 17   : 	roll  = atan2f(2.0f * (qRot.x*qRot.y + qRot.w*qRot.z),(-sqx + sqy - sqz + sqw));

  0005f	0f 28 c1	 movaps	 xmm0, xmm1
  00062	f3 0f 59 ca	 mulss	 xmm1, xmm2
  00066	f3 0f 59 c4	 mulss	 xmm0, xmm4
  0006a	f3 0f 11 5d f0	 movss	 DWORD PTR tv299[ebp], xmm3
  0006f	0f 28 da	 movaps	 xmm3, xmm2
  00072	f3 0f 59 dd	 mulss	 xmm3, xmm5
  00076	f3 0f 59 ec	 mulss	 xmm5, xmm4
  0007a	f3 0f 58 d8	 addss	 xmm3, xmm0
  0007e	f3 0f 5c e9	 subss	 xmm5, xmm1
  00082	f3 0f 11 5d e8	 movss	 DWORD PTR tv310[ebp], xmm3
  00087	f3 0f 58 ed	 addss	 xmm5, xmm5
; File C:\Program Files (x86)\Windows Kits\10\Include\10.0.26100.0\ucrt\corecrt_math.h

; 663  :             return (float)asin(_X);

  0008b	0f 5a c5	 cvtps2pd xmm0, xmm5
  0008e	e8 00 00 00 00	 call	 __libm_sse2_asin_precise
; File C:\IAGOS\server\v18\Source\Source\_Common\xutil3d.cpp

; 19   : 	vYPW.x = pitch;

  00093	8b 75 0c	 mov	 esi, DWORD PTR _vYPW$[ebp]
; File C:\Program Files (x86)\Windows Kits\10\Include\10.0.26100.0\ucrt\corecrt_math.h

; 663  :             return (float)asin(_X);

  00096	f2 0f 5a c0	 cvtsd2ss xmm0, xmm0
; File C:\IAGOS\server\v18\Source\Source\_Common\xutil3d.cpp

; 19   : 	vYPW.x = pitch;

  0009a	f3 0f 11 06	 movss	 DWORD PTR [esi], xmm0
  0009e	f3 0f 10 45 f0	 movss	 xmm0, DWORD PTR tv299[ebp]
  000a3	f3 0f 58 c0	 addss	 xmm0, xmm0
; File C:\Program Files (x86)\Windows Kits\10\Include\10.0.26100.0\ucrt\corecrt_math.h

; 668  :             return (float)atan2(_Y, _X);

  000a7	0f 5a c0	 cvtps2pd xmm0, xmm0
  000aa	f2 0f 11 45 ec	 movsd	 QWORD PTR tv348[ebp], xmm0
; File C:\IAGOS\server\v18\Source\Source\_Common\xutil3d.cpp

; 16   : 	yaw   = atan2f(2.0f * (qRot.x*qRot.z + qRot.w*qRot.y),(-sqx - sqy + sqz + sqw)); 

  000af	f3 0f 10 45 fc	 movss	 xmm0, DWORD PTR _sqx$1$[ebp]
  000b4	0f 57 05 00 00
	00 00		 xorps	 xmm0, DWORD PTR __xmm@80000000800000008000000080000000
  000bb	f3 0f 5c 45 08	 subss	 xmm0, DWORD PTR _sqy$1$[ebp]
; File C:\Program Files (x86)\Windows Kits\10\Include\10.0.26100.0\ucrt\corecrt_math.h

; 668  :             return (float)atan2(_Y, _X);

  000c0	dd 45 ec	 fld	 QWORD PTR tv348[ebp]
; File C:\IAGOS\server\v18\Source\Source\_Common\xutil3d.cpp

; 16   : 	yaw   = atan2f(2.0f * (qRot.x*qRot.z + qRot.w*qRot.y),(-sqx - sqy + sqz + sqw)); 

  000c3	f3 0f 58 45 f8	 addss	 xmm0, DWORD PTR _sqz$1$[ebp]
  000c8	f3 0f 58 45 f4	 addss	 xmm0, DWORD PTR _sqw$1$[ebp]
; File C:\Program Files (x86)\Windows Kits\10\Include\10.0.26100.0\ucrt\corecrt_math.h

; 668  :             return (float)atan2(_Y, _X);

  000cd	f3 0f 5a c0	 cvtss2sd xmm0, xmm0
  000d1	f2 0f 11 45 ec	 movsd	 QWORD PTR tv345[ebp], xmm0
  000d6	dd 45 ec	 fld	 QWORD PTR tv345[ebp]
  000d9	e8 00 00 00 00	 call	 __CIatan2
; File C:\IAGOS\server\v18\Source\Source\_Common\xutil3d.cpp

; 17   : 	roll  = atan2f(2.0f * (qRot.x*qRot.y + qRot.w*qRot.z),(-sqx + sqy - sqz + sqw));

  000de	f3 0f 10 45 e8	 movss	 xmm0, DWORD PTR tv310[ebp]
  000e3	f3 0f 58 c0	 addss	 xmm0, xmm0

; 20   : 	vYPW.y = yaw;

  000e7	d9 5e 04	 fstp	 DWORD PTR [esi+4]
; File C:\Program Files (x86)\Windows Kits\10\Include\10.0.26100.0\ucrt\corecrt_math.h

; 668  :             return (float)atan2(_Y, _X);

  000ea	0f 5a c0	 cvtps2pd xmm0, xmm0
  000ed	f2 0f 11 45 e4	 movsd	 QWORD PTR tv337[ebp], xmm0
; File C:\IAGOS\server\v18\Source\Source\_Common\xutil3d.cpp

; 17   : 	roll  = atan2f(2.0f * (qRot.x*qRot.y + qRot.w*qRot.z),(-sqx + sqy - sqz + sqw));

  000f2	f3 0f 10 45 08	 movss	 xmm0, DWORD PTR _sqy$1$[ebp]
  000f7	f3 0f 5c 45 fc	 subss	 xmm0, DWORD PTR _sqx$1$[ebp]
; File C:\Program Files (x86)\Windows Kits\10\Include\10.0.26100.0\ucrt\corecrt_math.h

; 668  :             return (float)atan2(_Y, _X);

  000fc	dd 45 e4	 fld	 QWORD PTR tv337[ebp]
; File C:\IAGOS\server\v18\Source\Source\_Common\xutil3d.cpp

; 17   : 	roll  = atan2f(2.0f * (qRot.x*qRot.y + qRot.w*qRot.z),(-sqx + sqy - sqz + sqw));

  000ff	f3 0f 5c 45 f8	 subss	 xmm0, DWORD PTR _sqz$1$[ebp]
  00104	f3 0f 58 45 f4	 addss	 xmm0, DWORD PTR _sqw$1$[ebp]
; File C:\Program Files (x86)\Windows Kits\10\Include\10.0.26100.0\ucrt\corecrt_math.h

; 668  :             return (float)atan2(_Y, _X);

  00109	0f 5a c0	 cvtps2pd xmm0, xmm0
  0010c	f2 0f 11 45 e4	 movsd	 QWORD PTR tv334[ebp], xmm0
  00111	dd 45 e4	 fld	 QWORD PTR tv334[ebp]
  00114	e8 00 00 00 00	 call	 __CIatan2
; File C:\IAGOS\server\v18\Source\Source\_Common\xutil3d.cpp

; 21   : 	vYPW.z = roll;

  00119	d9 5e 08	 fstp	 DWORD PTR [esi+8]
  0011c	5e		 pop	 esi

; 22   : }

  0011d	8b e5		 mov	 esp, ebp
  0011f	5d		 pop	 ebp
  00120	c3		 ret	 0
?QuaternionRotationToYPW@@YAXABUD3DXQUATERNION@@AAUD3DXVECTOR3@@@Z ENDP ; QuaternionRotationToYPW
_TEXT	ENDS
; Function compile flags: /Ogtp
; File C:\IAGOS\server\v18\Source\Source\DX_SDK\d3dx9math.h
;	COMDAT ??0D3DXVECTOR3@@QAE@XZ
_TEXT	SEGMENT
??0D3DXVECTOR3@@QAE@XZ PROC				; D3DXVECTOR3::D3DXVECTOR3, COMDAT
; _this$ = ecx

; 165  :     D3DXVECTOR3() {};

  00000	8b c1		 mov	 eax, ecx
  00002	c3		 ret	 0
??0D3DXVECTOR3@@QAE@XZ ENDP				; D3DXVECTOR3::D3DXVECTOR3
_TEXT	ENDS
; Function compile flags: /Ogtp
; File C:\IAGOS\server\v18\Source\Source\_Common\xutil3d.cpp
;	COMDAT ?__empty_global_delete@@YAXPAXI@Z
_TEXT	SEGMENT
___formal$ = 8						; size = 4
___formal$ = 12						; size = 4
?__empty_global_delete@@YAXPAXI@Z PROC			; __empty_global_delete, COMDAT

  00000	c2 00 00	 ret	 0
?__empty_global_delete@@YAXPAXI@Z ENDP			; __empty_global_delete
_TEXT	ENDS
; Function compile flags: /Ogtp
; File C:\IAGOS\server\v18\Source\Source\_Common\xutil3d.cpp
;	COMDAT ?__empty_global_delete@@YAXPAX@Z
_TEXT	SEGMENT
___formal$ = 8						; size = 4
?__empty_global_delete@@YAXPAX@Z PROC			; __empty_global_delete, COMDAT

  00000	c2 00 00	 ret	 0
?__empty_global_delete@@YAXPAX@Z ENDP			; __empty_global_delete
_TEXT	ENDS
END
