; Listing generated by Microsoft (R) Optimizing Compiler Version 19.44.35225.0 

	TITLE	C:\IAGOS\server\v18\Source\Output\DatabaseServer\Release\ar.obj
	.686P
	.XMM
	include listing.inc
	.model	flat

INCLUDELIB LIBCMT
INCLUDELIB OLDNAMES

PUBLIC	?__empty_global_delete@@YAXPAX@Z		; __empty_global_delete
PUBLIC	?__empty_global_delete@@YAXPAXI@Z		; __empty_global_delete
PUBLIC	??0exception@std@@QAE@ABV01@@Z			; std::exception::exception
PUBLIC	??1exception@std@@UAE@XZ			; std::exception::~exception
PUBLIC	?what@exception@std@@UBEPBDXZ			; std::exception::what
PUBLIC	??_Gexception@std@@UAEPAXI@Z			; std::exception::`scalar deleting destructor'
PUBLIC	??0bad_alloc@std@@QAE@ABV01@@Z			; std::bad_alloc::bad_alloc
PUBLIC	??_Gbad_alloc@std@@UAEPAXI@Z			; std::bad_alloc::`scalar deleting destructor'
PUBLIC	??0bad_array_new_length@std@@QAE@XZ		; std::bad_array_new_length::bad_array_new_length
PUBLIC	??1bad_array_new_length@std@@UAE@XZ		; std::bad_array_new_length::~bad_array_new_length
PUBLIC	??0bad_array_new_length@std@@QAE@ABV01@@Z	; std::bad_array_new_length::bad_array_new_length
PUBLIC	??_Gbad_array_new_length@std@@UAEPAXI@Z		; std::bad_array_new_length::`scalar deleting destructor'
PUBLIC	?_Throw_bad_array_new_length@std@@YAXXZ		; std::_Throw_bad_array_new_length
PUBLIC	?_Xlen_string@std@@YAXXZ			; std::_Xlen_string
PUBLIC	??0CAr@@QAE@PAXI@Z				; CAr::CAr
PUBLIC	??1CAr@@QAE@XZ					; CAr::~CAr
PUBLIC	?Read@CAr@@QAEXPAXI@Z				; CAr::Read
PUBLIC	?Write@CAr@@QAEXPBXI@Z				; CAr::Write
PUBLIC	?CheckBuf@CAr@@QAEXI@Z				; CAr::CheckBuf
PUBLIC	?Reserve@CAr@@QAEXI@Z				; CAr::Reserve
PUBLIC	?Flush@CAr@@QAEXXZ				; CAr::Flush
PUBLIC	?ReelIn@CAr@@QAEXI@Z				; CAr::ReelIn
PUBLIC	?WriteStringStd@CAr@@QAEXABV?$basic_string@DU?$char_traits@D@std@@V?$allocator@D@2@@std@@@Z ; CAr::WriteStringStd
PUBLIC	?WriteStringStd@CAr@@QAEX$$QAV?$basic_string@DU?$char_traits@D@std@@V?$allocator@D@2@@std@@@Z ; CAr::WriteStringStd
PUBLIC	?ReadStringStd@CAr@@QAEXAAV?$basic_string@DU?$char_traits@D@std@@V?$allocator@D@2@@std@@@Z ; CAr::ReadStringStd
PUBLIC	?WriteString@CAr@@QAEXPBD@Z			; CAr::WriteString
PUBLIC	?ReadString@CAr@@QAEPADPAD@Z			; CAr::ReadString
PUBLIC	?ReadString@CAr@@QAEPADPADH@Z			; CAr::ReadString
PUBLIC	?GetBuffer@CAr@@QAEPAEPAH@Z			; CAr::GetBuffer
PUBLIC	??$_Allocate_manually_vector_aligned@U_Default_allocate_traits@std@@@std@@YAPAXI@Z ; std::_Allocate_manually_vector_aligned<std::_Default_allocate_traits>
PUBLIC	??$?6H@CAr@@QAEAAV0@ABH@Z			; CAr::operator<<<int>
PUBLIC	??$?5H@CAr@@QAEAAV0@AAH@Z			; CAr::operator>><int>
PUBLIC	??$_Reallocate_grow_by@V<lambda_c1b8c41cb4019640539cfd828748c4d4>@@ID@?$basic_string@DU?$char_traits@D@std@@V?$allocator@D@2@@std@@AAEAAV01@IV<lambda_c1b8c41cb4019640539cfd828748c4d4>@@ID@Z ; std::basic_string<char,std::char_traits<char>,std::allocator<char> >::_Reallocate_grow_by<<lambda_c1b8c41cb4019640539cfd828748c4d4>,unsigned int,char>
PUBLIC	??_7exception@std@@6B@				; std::exception::`vftable'
PUBLIC	??_C@_0BC@EOODALEL@Unknown?5exception@		; `string'
PUBLIC	??_7bad_alloc@std@@6B@				; std::bad_alloc::`vftable'
PUBLIC	??_7bad_array_new_length@std@@6B@		; std::bad_array_new_length::`vftable'
PUBLIC	??_C@_0BF@KINCDENJ@bad?5array?5new?5length@	; `string'
PUBLIC	??_R0?AVexception@std@@@8			; std::exception `RTTI Type Descriptor'
PUBLIC	__CT??_R0?AVexception@std@@@8??0exception@std@@QAE@ABV01@@Z12
PUBLIC	__TI3?AVbad_array_new_length@std@@
PUBLIC	__CTA3?AVbad_array_new_length@std@@
PUBLIC	??_R0?AVbad_array_new_length@std@@@8		; std::bad_array_new_length `RTTI Type Descriptor'
PUBLIC	__CT??_R0?AVbad_array_new_length@std@@@8??0bad_array_new_length@std@@QAE@ABV01@@Z12
PUBLIC	??_R0?AVbad_alloc@std@@@8			; std::bad_alloc `RTTI Type Descriptor'
PUBLIC	__CT??_R0?AVbad_alloc@std@@@8??0bad_alloc@std@@QAE@ABV01@@Z12
PUBLIC	??_C@_0BA@JFNIOLAK@string?5too?5long@		; `string'
PUBLIC	?m_pHeapMng@CAr@@2PAVCHeapMng@@A		; CAr::m_pHeapMng
PUBLIC	??_R4exception@std@@6B@				; std::exception::`RTTI Complete Object Locator'
PUBLIC	??_R3exception@std@@8				; std::exception::`RTTI Class Hierarchy Descriptor'
PUBLIC	??_R2exception@std@@8				; std::exception::`RTTI Base Class Array'
PUBLIC	??_R1A@?0A@EA@exception@std@@8			; std::exception::`RTTI Base Class Descriptor at (0,-1,0,64)'
PUBLIC	??_R4bad_array_new_length@std@@6B@		; std::bad_array_new_length::`RTTI Complete Object Locator'
PUBLIC	??_R3bad_array_new_length@std@@8		; std::bad_array_new_length::`RTTI Class Hierarchy Descriptor'
PUBLIC	??_R2bad_array_new_length@std@@8		; std::bad_array_new_length::`RTTI Base Class Array'
PUBLIC	??_R1A@?0A@EA@bad_array_new_length@std@@8	; std::bad_array_new_length::`RTTI Base Class Descriptor at (0,-1,0,64)'
PUBLIC	??_R1A@?0A@EA@bad_alloc@std@@8			; std::bad_alloc::`RTTI Base Class Descriptor at (0,-1,0,64)'
PUBLIC	??_R3bad_alloc@std@@8				; std::bad_alloc::`RTTI Class Hierarchy Descriptor'
PUBLIC	??_R2bad_alloc@std@@8				; std::bad_alloc::`RTTI Base Class Array'
PUBLIC	??_R4bad_alloc@std@@6B@				; std::bad_alloc::`RTTI Complete Object Locator'
EXTRN	??2@YAPAXI@Z:PROC				; operator new
EXTRN	??3@YAXPAXI@Z:PROC				; operator delete
EXTRN	__invoke_watson:PROC
EXTRN	?_Xlength_error@std@@YAXPBD@Z:PROC		; std::_Xlength_error
EXTRN	___std_exception_copy:PROC
EXTRN	___std_exception_destroy:PROC
EXTRN	??_Eexception@std@@UAEPAXI@Z:PROC		; std::exception::`vector deleting destructor'
EXTRN	??_Ebad_alloc@std@@UAEPAXI@Z:PROC		; std::bad_alloc::`vector deleting destructor'
EXTRN	??_Ebad_array_new_length@std@@UAEPAXI@Z:PROC	; std::bad_array_new_length::`vector deleting destructor'
EXTRN	?Malloc@CHeapMng@@QAEPAXI@Z:PROC		; CHeapMng::Malloc
EXTRN	??0CHeapMng@@QAE@XZ:PROC			; CHeapMng::CHeapMng
EXTRN	?Free@CHeapMng@@QAEXPAX@Z:PROC			; CHeapMng::Free
EXTRN	?Realloc@CHeapMng@@QAEPAXPAXI@Z:PROC		; CHeapMng::Realloc
EXTRN	@__security_check_cookie@4:PROC
EXTRN	__CxxThrowException@8:PROC
EXTRN	___CxxFrameHandler3:PROC
EXTRN	_memcpy:PROC
EXTRN	_memset:PROC
EXTRN	??_7type_info@@6B@:QWORD			; type_info::`vftable'
EXTRN	___security_cookie:DWORD
_BSS	SEGMENT
?m_pHeapMng@CAr@@2PAVCHeapMng@@A DD 01H DUP (?)		; CAr::m_pHeapMng
_BSS	ENDS
CRT$XCU	SEGMENT
??m_pHeapMng$initializer$@CAr@@2P6AXXZA@@3P6AXXZA DD FLAT:??__E?m_pHeapMng@CAr@@2PAVCHeapMng@@A@@YAXXZ ; ??m_pHeapMng$initializer$@CAr@@2P6AXXZA@@3P6AXXZA
CRT$XCU	ENDS
;	COMDAT ??_R4bad_alloc@std@@6B@
rdata$r	SEGMENT
??_R4bad_alloc@std@@6B@ DD 00H				; std::bad_alloc::`RTTI Complete Object Locator'
	DD	00H
	DD	00H
	DD	FLAT:??_R0?AVbad_alloc@std@@@8
	DD	FLAT:??_R3bad_alloc@std@@8
rdata$r	ENDS
;	COMDAT ??_R2bad_alloc@std@@8
rdata$r	SEGMENT
??_R2bad_alloc@std@@8 DD FLAT:??_R1A@?0A@EA@bad_alloc@std@@8 ; std::bad_alloc::`RTTI Base Class Array'
	DD	FLAT:??_R1A@?0A@EA@exception@std@@8
rdata$r	ENDS
;	COMDAT ??_R3bad_alloc@std@@8
rdata$r	SEGMENT
??_R3bad_alloc@std@@8 DD 00H				; std::bad_alloc::`RTTI Class Hierarchy Descriptor'
	DD	00H
	DD	02H
	DD	FLAT:??_R2bad_alloc@std@@8
rdata$r	ENDS
;	COMDAT ??_R1A@?0A@EA@bad_alloc@std@@8
rdata$r	SEGMENT
??_R1A@?0A@EA@bad_alloc@std@@8 DD FLAT:??_R0?AVbad_alloc@std@@@8 ; std::bad_alloc::`RTTI Base Class Descriptor at (0,-1,0,64)'
	DD	01H
	DD	00H
	DD	0ffffffffH
	DD	00H
	DD	040H
	DD	FLAT:??_R3bad_alloc@std@@8
rdata$r	ENDS
;	COMDAT ??_R1A@?0A@EA@bad_array_new_length@std@@8
rdata$r	SEGMENT
??_R1A@?0A@EA@bad_array_new_length@std@@8 DD FLAT:??_R0?AVbad_array_new_length@std@@@8 ; std::bad_array_new_length::`RTTI Base Class Descriptor at (0,-1,0,64)'
	DD	02H
	DD	00H
	DD	0ffffffffH
	DD	00H
	DD	040H
	DD	FLAT:??_R3bad_array_new_length@std@@8
rdata$r	ENDS
;	COMDAT ??_R2bad_array_new_length@std@@8
rdata$r	SEGMENT
??_R2bad_array_new_length@std@@8 DD FLAT:??_R1A@?0A@EA@bad_array_new_length@std@@8 ; std::bad_array_new_length::`RTTI Base Class Array'
	DD	FLAT:??_R1A@?0A@EA@bad_alloc@std@@8
	DD	FLAT:??_R1A@?0A@EA@exception@std@@8
rdata$r	ENDS
;	COMDAT ??_R3bad_array_new_length@std@@8
rdata$r	SEGMENT
??_R3bad_array_new_length@std@@8 DD 00H			; std::bad_array_new_length::`RTTI Class Hierarchy Descriptor'
	DD	00H
	DD	03H
	DD	FLAT:??_R2bad_array_new_length@std@@8
rdata$r	ENDS
;	COMDAT ??_R4bad_array_new_length@std@@6B@
rdata$r	SEGMENT
??_R4bad_array_new_length@std@@6B@ DD 00H		; std::bad_array_new_length::`RTTI Complete Object Locator'
	DD	00H
	DD	00H
	DD	FLAT:??_R0?AVbad_array_new_length@std@@@8
	DD	FLAT:??_R3bad_array_new_length@std@@8
rdata$r	ENDS
;	COMDAT ??_R1A@?0A@EA@exception@std@@8
rdata$r	SEGMENT
??_R1A@?0A@EA@exception@std@@8 DD FLAT:??_R0?AVexception@std@@@8 ; std::exception::`RTTI Base Class Descriptor at (0,-1,0,64)'
	DD	00H
	DD	00H
	DD	0ffffffffH
	DD	00H
	DD	040H
	DD	FLAT:??_R3exception@std@@8
rdata$r	ENDS
;	COMDAT ??_R2exception@std@@8
rdata$r	SEGMENT
??_R2exception@std@@8 DD FLAT:??_R1A@?0A@EA@exception@std@@8 ; std::exception::`RTTI Base Class Array'
rdata$r	ENDS
;	COMDAT ??_R3exception@std@@8
rdata$r	SEGMENT
??_R3exception@std@@8 DD 00H				; std::exception::`RTTI Class Hierarchy Descriptor'
	DD	00H
	DD	01H
	DD	FLAT:??_R2exception@std@@8
rdata$r	ENDS
;	COMDAT ??_R4exception@std@@6B@
rdata$r	SEGMENT
??_R4exception@std@@6B@ DD 00H				; std::exception::`RTTI Complete Object Locator'
	DD	00H
	DD	00H
	DD	FLAT:??_R0?AVexception@std@@@8
	DD	FLAT:??_R3exception@std@@8
rdata$r	ENDS
;	COMDAT ??_C@_0BA@JFNIOLAK@string?5too?5long@
CONST	SEGMENT
??_C@_0BA@JFNIOLAK@string?5too?5long@ DB 'string too long', 00H ; `string'
CONST	ENDS
;	COMDAT __CT??_R0?AVbad_alloc@std@@@8??0bad_alloc@std@@QAE@ABV01@@Z12
xdata$x	SEGMENT
__CT??_R0?AVbad_alloc@std@@@8??0bad_alloc@std@@QAE@ABV01@@Z12 DD 010H
	DD	FLAT:??_R0?AVbad_alloc@std@@@8
	DD	00H
	DD	0ffffffffH
	ORG $+4
	DD	0cH
	DD	FLAT:??0bad_alloc@std@@QAE@ABV01@@Z
xdata$x	ENDS
;	COMDAT ??_R0?AVbad_alloc@std@@@8
data$r	SEGMENT
??_R0?AVbad_alloc@std@@@8 DD FLAT:??_7type_info@@6B@	; std::bad_alloc `RTTI Type Descriptor'
	DD	00H
	DB	'.?AVbad_alloc@std@@', 00H
data$r	ENDS
;	COMDAT __CT??_R0?AVbad_array_new_length@std@@@8??0bad_array_new_length@std@@QAE@ABV01@@Z12
xdata$x	SEGMENT
__CT??_R0?AVbad_array_new_length@std@@@8??0bad_array_new_length@std@@QAE@ABV01@@Z12 DD 00H
	DD	FLAT:??_R0?AVbad_array_new_length@std@@@8
	DD	00H
	DD	0ffffffffH
	ORG $+4
	DD	0cH
	DD	FLAT:??0bad_array_new_length@std@@QAE@ABV01@@Z
xdata$x	ENDS
;	COMDAT ??_R0?AVbad_array_new_length@std@@@8
data$r	SEGMENT
??_R0?AVbad_array_new_length@std@@@8 DD FLAT:??_7type_info@@6B@ ; std::bad_array_new_length `RTTI Type Descriptor'
	DD	00H
	DB	'.?AVbad_array_new_length@std@@', 00H
data$r	ENDS
;	COMDAT __CTA3?AVbad_array_new_length@std@@
xdata$x	SEGMENT
__CTA3?AVbad_array_new_length@std@@ DD 03H
	DD	FLAT:__CT??_R0?AVbad_array_new_length@std@@@8??0bad_array_new_length@std@@QAE@ABV01@@Z12
	DD	FLAT:__CT??_R0?AVbad_alloc@std@@@8??0bad_alloc@std@@QAE@ABV01@@Z12
	DD	FLAT:__CT??_R0?AVexception@std@@@8??0exception@std@@QAE@ABV01@@Z12
xdata$x	ENDS
;	COMDAT __TI3?AVbad_array_new_length@std@@
xdata$x	SEGMENT
__TI3?AVbad_array_new_length@std@@ DD 00H
	DD	FLAT:??1bad_array_new_length@std@@UAE@XZ
	DD	00H
	DD	FLAT:__CTA3?AVbad_array_new_length@std@@
xdata$x	ENDS
;	COMDAT __CT??_R0?AVexception@std@@@8??0exception@std@@QAE@ABV01@@Z12
xdata$x	SEGMENT
__CT??_R0?AVexception@std@@@8??0exception@std@@QAE@ABV01@@Z12 DD 00H
	DD	FLAT:??_R0?AVexception@std@@@8
	DD	00H
	DD	0ffffffffH
	ORG $+4
	DD	0cH
	DD	FLAT:??0exception@std@@QAE@ABV01@@Z
xdata$x	ENDS
;	COMDAT ??_R0?AVexception@std@@@8
data$r	SEGMENT
??_R0?AVexception@std@@@8 DD FLAT:??_7type_info@@6B@	; std::exception `RTTI Type Descriptor'
	DD	00H
	DB	'.?AVexception@std@@', 00H
data$r	ENDS
;	COMDAT ??_C@_0BF@KINCDENJ@bad?5array?5new?5length@
CONST	SEGMENT
??_C@_0BF@KINCDENJ@bad?5array?5new?5length@ DB 'bad array new length', 00H ; `string'
CONST	ENDS
;	COMDAT ??_7bad_array_new_length@std@@6B@
CONST	SEGMENT
??_7bad_array_new_length@std@@6B@ DD FLAT:??_R4bad_array_new_length@std@@6B@ ; std::bad_array_new_length::`vftable'
	DD	FLAT:??_Ebad_array_new_length@std@@UAEPAXI@Z
	DD	FLAT:?what@exception@std@@UBEPBDXZ
CONST	ENDS
;	COMDAT ??_7bad_alloc@std@@6B@
CONST	SEGMENT
??_7bad_alloc@std@@6B@ DD FLAT:??_R4bad_alloc@std@@6B@	; std::bad_alloc::`vftable'
	DD	FLAT:??_Ebad_alloc@std@@UAEPAXI@Z
	DD	FLAT:?what@exception@std@@UBEPBDXZ
CONST	ENDS
;	COMDAT ??_C@_0BC@EOODALEL@Unknown?5exception@
CONST	SEGMENT
??_C@_0BC@EOODALEL@Unknown?5exception@ DB 'Unknown exception', 00H ; `string'
CONST	ENDS
;	COMDAT ??_7exception@std@@6B@
CONST	SEGMENT
??_7exception@std@@6B@ DD FLAT:??_R4exception@std@@6B@	; std::exception::`vftable'
	DD	FLAT:??_Eexception@std@@UAEPAXI@Z
	DD	FLAT:?what@exception@std@@UBEPBDXZ
CONST	ENDS
;	COMDAT xdata$x
xdata$x	SEGMENT
__unwindtable$??__E?m_pHeapMng@CAr@@2PAVCHeapMng@@A@@YAXXZ DD 0ffffffffH
	DD	FLAT:__unwindfunclet$??__E?m_pHeapMng@CAr@@2PAVCHeapMng@@A@@YAXXZ$0
__ehfuncinfo$??__E?m_pHeapMng@CAr@@2PAVCHeapMng@@A@@YAXXZ DD 019930522H
	DD	01H
	DD	FLAT:__unwindtable$??__E?m_pHeapMng@CAr@@2PAVCHeapMng@@A@@YAXXZ
	DD	2 DUP(00H)
	DD	2 DUP(00H)
	DD	00H
	DD	01H
xdata$x	ENDS
;	COMDAT xdata$x
xdata$x	SEGMENT
__ehfuncinfo$??1CAr@@QAE@XZ DD 019930522H
	DD	00H
	DD	00H
	DD	2 DUP(00H)
	DD	2 DUP(00H)
	DD	00H
	DD	05H
xdata$x	ENDS
; Function compile flags: /Ogtp
; File C:\Program Files\Microsoft Visual Studio\2022\Professional\VC\Tools\MSVC\14.44.35207\include\xstring
; File C:\Program Files\Microsoft Visual Studio\2022\Professional\VC\Tools\MSVC\14.44.35207\include\xmemory
; File C:\Program Files\Microsoft Visual Studio\2022\Professional\VC\Tools\MSVC\14.44.35207\include\xstring
; File C:\Program Files\Microsoft Visual Studio\2022\Professional\VC\Tools\MSVC\14.44.35207\include\xmemory
; File C:\Program Files\Microsoft Visual Studio\2022\Professional\VC\Tools\MSVC\14.44.35207\include\xstring
; File C:\Program Files\Microsoft Visual Studio\2022\Professional\VC\Tools\MSVC\14.44.35207\include\xmemory
; File C:\Program Files\Microsoft Visual Studio\2022\Professional\VC\Tools\MSVC\14.44.35207\include\xstring
; File C:\Program Files\Microsoft Visual Studio\2022\Professional\VC\Tools\MSVC\14.44.35207\include\__msvc_string_view.hpp
; File C:\Program Files\Microsoft Visual Studio\2022\Professional\VC\Tools\MSVC\14.44.35207\include\xstring
; File C:\Program Files\Microsoft Visual Studio\2022\Professional\VC\Tools\MSVC\14.44.35207\include\__msvc_string_view.hpp
; File C:\Program Files\Microsoft Visual Studio\2022\Professional\VC\Tools\MSVC\14.44.35207\include\xstring
; File C:\Program Files\Microsoft Visual Studio\2022\Professional\VC\Tools\MSVC\14.44.35207\include\xmemory
; File C:\Program Files\Microsoft Visual Studio\2022\Professional\VC\Tools\MSVC\14.44.35207\include\xstring
; File C:\Program Files\Microsoft Visual Studio\2022\Professional\VC\Tools\MSVC\14.44.35207\include\__msvc_string_view.hpp
; File C:\Program Files\Microsoft Visual Studio\2022\Professional\VC\Tools\MSVC\14.44.35207\include\xstring
; File C:\Program Files\Microsoft Visual Studio\2022\Professional\VC\Tools\MSVC\14.44.35207\include\__msvc_string_view.hpp
; File C:\Program Files\Microsoft Visual Studio\2022\Professional\VC\Tools\MSVC\14.44.35207\include\xstring
; File C:\Program Files\Microsoft Visual Studio\2022\Professional\VC\Tools\MSVC\14.44.35207\include\xmemory
; File C:\Program Files\Microsoft Visual Studio\2022\Professional\VC\Tools\MSVC\14.44.35207\include\xstring
;	COMDAT ??$_Reallocate_grow_by@V<lambda_c1b8c41cb4019640539cfd828748c4d4>@@ID@?$basic_string@DU?$char_traits@D@std@@V?$allocator@D@2@@std@@AAEAAV01@IV<lambda_c1b8c41cb4019640539cfd828748c4d4>@@ID@Z
_TEXT	SEGMENT
__New_size$1$ = -8					; size = 4
tv455 = -8						; size = 4
__Old_size$1$ = -4					; size = 4
tv443 = -4						; size = 4
__Size_increase$ = 8					; size = 4
__Old$1$ = 8						; size = 4
__Fn$ = 12						; size = 1
_<_Args_0>$ = 16					; size = 4
_<_Args_1>$ = 20					; size = 1
tv446 = 20						; size = 4
??$_Reallocate_grow_by@V<lambda_c1b8c41cb4019640539cfd828748c4d4>@@ID@?$basic_string@DU?$char_traits@D@std@@V?$allocator@D@2@@std@@AAEAAV01@IV<lambda_c1b8c41cb4019640539cfd828748c4d4>@@ID@Z PROC ; std::basic_string<char,std::char_traits<char>,std::allocator<char> >::_Reallocate_grow_by<<lambda_c1b8c41cb4019640539cfd828748c4d4>,unsigned int,char>, COMDAT
; _this$ = ecx

; 3024 :     _CONSTEXPR20 basic_string& _Reallocate_grow_by(const size_type _Size_increase, _Fty _Fn, _ArgTys... _Args) {

  00000	55		 push	 ebp
  00001	8b ec		 mov	 ebp, esp
  00003	83 ec 08	 sub	 esp, 8
  00006	53		 push	 ebx
  00007	56		 push	 esi

; 3025 :         // reallocate to increase size by _Size_increase elements, new buffer prepared by
; 3026 :         // _Fn(_New_ptr, _Old_ptr, _Old_size, _Args...)
; 3027 :         auto& _My_data            = _Mypair._Myval2;
; 3028 :         const size_type _Old_size = _My_data._Mysize;
; 3029 :         if (max_size() - _Old_size < _Size_increase) {

  00008	8b 75 08	 mov	 esi, DWORD PTR __Size_increase$[ebp]
  0000b	57		 push	 edi
  0000c	8b f9		 mov	 edi, ecx
  0000e	b9 ff ff ff 7f	 mov	 ecx, 2147483647		; 7fffffffH
  00013	8b c1		 mov	 eax, ecx
  00015	8b 57 10	 mov	 edx, DWORD PTR [edi+16]
  00018	2b c2		 sub	 eax, edx
  0001a	89 55 fc	 mov	 DWORD PTR __Old_size$1$[ebp], edx
  0001d	3b c6		 cmp	 eax, esi
  0001f	0f 82 12 01 00
	00		 jb	 $LN74@Reallocate

; 3034 :         const size_type _Old_capacity = _My_data._Myres;

  00025	8b 5f 14	 mov	 ebx, DWORD PTR [edi+20]
  00028	8d 04 32	 lea	 eax, DWORD PTR [edx+esi]

; 2978 :         const size_type _Masked = _Requested | _Alloc_mask;

  0002b	8b f0		 mov	 esi, eax

; 3031 :         }
; 3032 : 
; 3033 :         const size_type _New_size     = _Old_size + _Size_increase;

  0002d	89 45 f8	 mov	 DWORD PTR __New_size$1$[ebp], eax

; 2978 :         const size_type _Masked = _Requested | _Alloc_mask;

  00030	83 ce 0f	 or	 esi, 15			; 0000000fH

; 3034 :         const size_type _Old_capacity = _My_data._Myres;

  00033	89 5d 08	 mov	 DWORD PTR __Old$1$[ebp], ebx

; 2978 :         const size_type _Masked = _Requested | _Alloc_mask;

  00036	3b f1		 cmp	 esi, ecx

; 2979 :         if (_Masked > _Max) { // the mask overflows, settle for max_size()

  00038	76 0f		 jbe	 SHORT $LN10@Reallocate

; 2980 :             return _Max;

  0003a	b8 00 00 00 80	 mov	 eax, -2147483648	; 80000000H
  0003f	8b f1		 mov	 esi, ecx
; File C:\Program Files\Microsoft Visual Studio\2022\Professional\VC\Tools\MSVC\14.44.35207\include\xmemory

; 253  :             return _Allocate_manually_vector_aligned<_Traits>(_Bytes);

  00041	50		 push	 eax
  00042	e8 00 00 00 00	 call	 ??$_Allocate_manually_vector_aligned@U_Default_allocate_traits@std@@@std@@YAPAXI@Z ; std::_Allocate_manually_vector_aligned<std::_Default_allocate_traits>
  00047	eb 43		 jmp	 SHORT $LN72@Reallocate
$LN10@Reallocate:
; File C:\Program Files\Microsoft Visual Studio\2022\Professional\VC\Tools\MSVC\14.44.35207\include\xstring

; 2983 :         if (_Old > _Max - _Old / 2) { // similarly, geometric overflows

  00049	8b c3		 mov	 eax, ebx
  0004b	d1 e8		 shr	 eax, 1
  0004d	2b c8		 sub	 ecx, eax
  0004f	3b d9		 cmp	 ebx, ecx
  00051	76 12		 jbe	 SHORT $LN11@Reallocate

; 2984 :             return _Max;

  00053	b8 00 00 00 80	 mov	 eax, -2147483648	; 80000000H
  00058	be ff ff ff 7f	 mov	 esi, 2147483647		; 7fffffffH
; File C:\Program Files\Microsoft Visual Studio\2022\Professional\VC\Tools\MSVC\14.44.35207\include\xmemory

; 253  :             return _Allocate_manually_vector_aligned<_Traits>(_Bytes);

  0005d	50		 push	 eax
  0005e	e8 00 00 00 00	 call	 ??$_Allocate_manually_vector_aligned@U_Default_allocate_traits@std@@@std@@YAPAXI@Z ; std::_Allocate_manually_vector_aligned<std::_Default_allocate_traits>
  00063	eb 27		 jmp	 SHORT $LN72@Reallocate
$LN11@Reallocate:
; File C:\Program Files\Microsoft Visual Studio\2022\Professional\VC\Tools\MSVC\14.44.35207\include\xstring

; 2987 :         return (_STD max)(_Masked, _Old + _Old / 2);

  00065	03 c3		 add	 eax, ebx
  00067	3b f0		 cmp	 esi, eax
  00069	0f 42 f0	 cmovb	 esi, eax

; 825  :         ++_Capacity; // Take null terminator into consideration

  0006c	8d 46 01	 lea	 eax, DWORD PTR [esi+1]
; File C:\Program Files\Microsoft Visual Studio\2022\Professional\VC\Tools\MSVC\14.44.35207\include\xmemory

; 227  :     if (_Bytes == 0) {

  0006f	85 c0		 test	 eax, eax
  00071	75 04		 jne	 SHORT $LN24@Reallocate

; 228  :         return nullptr;

  00073	33 db		 xor	 ebx, ebx
  00075	eb 1d		 jmp	 SHORT $LN23@Reallocate
$LN24@Reallocate:

; 229  :     }
; 230  : 
; 231  : #if _HAS_CXX20 // TRANSITION, GH-1532
; 232  :     if (_STD is_constant_evaluated()) {
; 233  :         return _Traits::_Allocate(_Bytes);
; 234  :     }
; 235  : #endif // _HAS_CXX20
; 236  : 
; 237  : #ifdef __cpp_aligned_new
; 238  :     if constexpr (_Align > __STDCPP_DEFAULT_NEW_ALIGNMENT__) {
; 239  :         size_t _Passed_align = _Align;
; 240  : #if defined(_M_IX86) || defined(_M_X64)
; 241  :         if (_Bytes >= _Big_allocation_threshold) {
; 242  :             // boost the alignment of big allocations to help autovectorization
; 243  :             _Passed_align = (_STD max)(_Align, _Big_allocation_alignment);
; 244  :         }
; 245  : #endif // defined(_M_IX86) || defined(_M_X64)
; 246  :         return _Traits::_Allocate_aligned(_Bytes, _Passed_align);
; 247  :     } else
; 248  : #endif // defined(__cpp_aligned_new)
; 249  :     {
; 250  : #if defined(_M_IX86) || defined(_M_X64)
; 251  :         if (_Bytes >= _Big_allocation_threshold) {

  00077	3d 00 10 00 00	 cmp	 eax, 4096		; 00001000H
  0007c	72 08		 jb	 SHORT $LN25@Reallocate

; 253  :             return _Allocate_manually_vector_aligned<_Traits>(_Bytes);

  0007e	50		 push	 eax
  0007f	e8 00 00 00 00	 call	 ??$_Allocate_manually_vector_aligned@U_Default_allocate_traits@std@@@std@@YAPAXI@Z ; std::_Allocate_manually_vector_aligned<std::_Default_allocate_traits>
  00084	eb 06		 jmp	 SHORT $LN72@Reallocate
$LN25@Reallocate:

; 136  :         return ::operator new(_Bytes);

  00086	50		 push	 eax
  00087	e8 00 00 00 00	 call	 ??2@YAPAXI@Z		; operator new
$LN72@Reallocate:
; File C:\Program Files\Microsoft Visual Studio\2022\Professional\VC\Tools\MSVC\14.44.35207\include\xstring

; 3041 :         _My_data._Mysize      = _New_size;

  0008c	8b 55 fc	 mov	 edx, DWORD PTR __Old_size$1$[ebp]
  0008f	8b d8		 mov	 ebx, eax
  00091	83 c4 04	 add	 esp, 4
$LN23@Reallocate:
  00094	8b 45 f8	 mov	 eax, DWORD PTR __New_size$1$[ebp]
  00097	89 47 10	 mov	 DWORD PTR [edi+16], eax

; 3042 :         _My_data._Myres       = _New_capacity;
; 3043 :         _Elem* const _Raw_new = _Unfancy(_New_ptr);

  0009a	0f be 45 14	 movsx	 eax, BYTE PTR _<_Args_1>$[ebp]
  0009e	89 45 14	 mov	 DWORD PTR tv446[ebp], eax
  000a1	8b 45 10	 mov	 eax, DWORD PTR _<_Args_0>$[ebp]
  000a4	89 77 14	 mov	 DWORD PTR [edi+20], esi
  000a7	8d 34 13	 lea	 esi, DWORD PTR [ebx+edx]
  000aa	03 c6		 add	 eax, esi
  000ac	89 75 f8	 mov	 DWORD PTR tv455[ebp], esi

; 3044 :         if (_Old_capacity > _Small_string_capacity) {

  000af	83 7d 08 0f	 cmp	 DWORD PTR __Old$1$[ebp], 15 ; 0000000fH
  000b3	89 45 fc	 mov	 DWORD PTR tv443[ebp], eax
  000b6	52		 push	 edx
  000b7	76 55		 jbe	 SHORT $LN3@Reallocate

; 3045 :             const pointer _Old_ptr = _My_data._Bx._Ptr;

  000b9	8b 37		 mov	 esi, DWORD PTR [edi]
; File C:\Program Files\Microsoft Visual Studio\2022\Professional\VC\Tools\MSVC\14.44.35207\include\__msvc_string_view.hpp

; 121  :         _CSTD memcpy(_First1, _First2, _Count * sizeof(_Elem));

  000bb	56		 push	 esi
  000bc	53		 push	 ebx
  000bd	e8 00 00 00 00	 call	 _memcpy

; 493  :         return static_cast<_Elem*>(_CSTD memset(_First, _Ch, _Count));

  000c2	ff 75 10	 push	 DWORD PTR _<_Args_0>$[ebp]
  000c5	ff 75 14	 push	 DWORD PTR tv446[ebp]
  000c8	ff 75 f8	 push	 DWORD PTR tv455[ebp]
  000cb	e8 00 00 00 00	 call	 _memset
; File C:\Program Files\Microsoft Visual Studio\2022\Professional\VC\Tools\MSVC\14.44.35207\include\xstring

; 1555 :                 _Traits::assign(_New_ptr[_Old_size + _Count], _Elem());

  000d0	8b 45 fc	 mov	 eax, DWORD PTR tv443[ebp]
; File C:\Program Files\Microsoft Visual Studio\2022\Professional\VC\Tools\MSVC\14.44.35207\include\__msvc_string_view.hpp

; 493  :         return static_cast<_Elem*>(_CSTD memset(_First, _Ch, _Count));

  000d3	83 c4 18	 add	 esp, 24			; 00000018H
; File C:\Program Files\Microsoft Visual Studio\2022\Professional\VC\Tools\MSVC\14.44.35207\include\xstring

; 852  :         _Al.deallocate(_Old_ptr, _Capacity + 1); // +1 for null terminator

  000d6	8b 4d 08	 mov	 ecx, DWORD PTR __Old$1$[ebp]
  000d9	41		 inc	 ecx

; 1555 :                 _Traits::assign(_New_ptr[_Old_size + _Count], _Elem());

  000da	c6 00 00	 mov	 BYTE PTR [eax], 0
; File C:\Program Files\Microsoft Visual Studio\2022\Professional\VC\Tools\MSVC\14.44.35207\include\xmemory

; 284  :         if (_Bytes >= _Big_allocation_threshold) {

  000dd	81 f9 00 10 00
	00		 cmp	 ecx, 4096		; 00001000H
  000e3	72 12		 jb	 SHORT $LN50@Reallocate

; 205  :     const uintptr_t _Ptr_container   = _Ptr_user[-1];

  000e5	8b 56 fc	 mov	 edx, DWORD PTR [esi-4]
  000e8	83 c1 23	 add	 ecx, 35			; 00000023H

; 206  : 
; 207  :     // If the following asserts, it likely means that we are performing
; 208  :     // an aligned delete on memory coming from an unaligned allocation.
; 209  :     _STL_ASSERT(_Ptr_user[-2] == _Big_allocation_sentinel, "invalid argument");
; 210  : 
; 211  :     // Extra paranoia on aligned allocation/deallocation; ensure _Ptr_container is
; 212  :     // in range [_Min_back_shift, _Non_user_size]
; 213  : #ifdef _DEBUG
; 214  :     constexpr uintptr_t _Min_back_shift = 2 * sizeof(void*);
; 215  : #else // ^^^ defined(_DEBUG) / !defined(_DEBUG) vvv
; 216  :     constexpr uintptr_t _Min_back_shift = sizeof(void*);
; 217  : #endif // ^^^ !defined(_DEBUG) ^^^
; 218  :     const uintptr_t _Back_shift = reinterpret_cast<uintptr_t>(_Ptr) - _Ptr_container;

  000eb	2b f2		 sub	 esi, edx

; 219  :     _STL_VERIFY(_Back_shift >= _Min_back_shift && _Back_shift <= _Non_user_size, "invalid argument");

  000ed	8d 46 fc	 lea	 eax, DWORD PTR [esi-4]
  000f0	83 f8 1f	 cmp	 eax, 31			; 0000001fH
  000f3	77 47		 ja	 SHORT $LN49@Reallocate

; 220  :     _Ptr = reinterpret_cast<void*>(_Ptr_container);

  000f5	8b f2		 mov	 esi, edx
$LN50@Reallocate:

; 289  :         ::operator delete(_Ptr, _Bytes);

  000f7	51		 push	 ecx
  000f8	56		 push	 esi
  000f9	e8 00 00 00 00	 call	 ??3@YAXPAXI@Z		; operator delete
  000fe	83 c4 08	 add	 esp, 8
; File C:\Program Files\Microsoft Visual Studio\2022\Professional\VC\Tools\MSVC\14.44.35207\include\xstring

; 3055 :         return *this;

  00101	89 1f		 mov	 DWORD PTR [edi], ebx
  00103	8b c7		 mov	 eax, edi

; 3056 :     }

  00105	5f		 pop	 edi
  00106	5e		 pop	 esi
  00107	5b		 pop	 ebx
  00108	8b e5		 mov	 esp, ebp
  0010a	5d		 pop	 ebp
  0010b	c2 10 00	 ret	 16			; 00000010H
$LN3@Reallocate:
; File C:\Program Files\Microsoft Visual Studio\2022\Professional\VC\Tools\MSVC\14.44.35207\include\__msvc_string_view.hpp

; 121  :         _CSTD memcpy(_First1, _First2, _Count * sizeof(_Elem));

  0010e	57		 push	 edi
  0010f	53		 push	 ebx
  00110	e8 00 00 00 00	 call	 _memcpy

; 493  :         return static_cast<_Elem*>(_CSTD memset(_First, _Ch, _Count));

  00115	ff 75 10	 push	 DWORD PTR _<_Args_0>$[ebp]
  00118	ff 75 14	 push	 DWORD PTR tv446[ebp]
  0011b	56		 push	 esi
  0011c	e8 00 00 00 00	 call	 _memset
; File C:\Program Files\Microsoft Visual Studio\2022\Professional\VC\Tools\MSVC\14.44.35207\include\xstring

; 1555 :                 _Traits::assign(_New_ptr[_Old_size + _Count], _Elem());

  00121	8b 45 fc	 mov	 eax, DWORD PTR tv443[ebp]
; File C:\Program Files\Microsoft Visual Studio\2022\Professional\VC\Tools\MSVC\14.44.35207\include\__msvc_string_view.hpp

; 493  :         return static_cast<_Elem*>(_CSTD memset(_First, _Ch, _Count));

  00124	83 c4 18	 add	 esp, 24			; 00000018H
; File C:\Program Files\Microsoft Visual Studio\2022\Professional\VC\Tools\MSVC\14.44.35207\include\xstring

; 1555 :                 _Traits::assign(_New_ptr[_Old_size + _Count], _Elem());

  00127	c6 00 00	 mov	 BYTE PTR [eax], 0

; 3055 :         return *this;

  0012a	8b c7		 mov	 eax, edi
  0012c	89 1f		 mov	 DWORD PTR [edi], ebx

; 3056 :     }

  0012e	5f		 pop	 edi
  0012f	5e		 pop	 esi
  00130	5b		 pop	 ebx
  00131	8b e5		 mov	 esp, ebp
  00133	5d		 pop	 ebp
  00134	c2 10 00	 ret	 16			; 00000010H
$LN74@Reallocate:

; 3030 :             _Xlen_string(); // result too long

  00137	e8 00 00 00 00	 call	 ?_Xlen_string@std@@YAXXZ ; std::_Xlen_string
$LN49@Reallocate:
; File C:\Program Files\Microsoft Visual Studio\2022\Professional\VC\Tools\MSVC\14.44.35207\include\xmemory

; 219  :     _STL_VERIFY(_Back_shift >= _Min_back_shift && _Back_shift <= _Non_user_size, "invalid argument");

  0013c	6a 00		 push	 0
  0013e	6a 00		 push	 0
  00140	6a 00		 push	 0
  00142	6a 00		 push	 0
  00144	6a 00		 push	 0
  00146	e8 00 00 00 00	 call	 __invoke_watson
$LN71@Reallocate:
  0014b	cc		 int	 3
??$_Reallocate_grow_by@V<lambda_c1b8c41cb4019640539cfd828748c4d4>@@ID@?$basic_string@DU?$char_traits@D@std@@V?$allocator@D@2@@std@@AAEAAV01@IV<lambda_c1b8c41cb4019640539cfd828748c4d4>@@ID@Z ENDP ; std::basic_string<char,std::char_traits<char>,std::allocator<char> >::_Reallocate_grow_by<<lambda_c1b8c41cb4019640539cfd828748c4d4>,unsigned int,char>
_TEXT	ENDS
; Function compile flags: /Ogtp
; File C:\IAGOS\server\v18\Source\Source\_Network\Misc\Include\Ar.h
;	COMDAT ??$?5H@CAr@@QAEAAV0@AAH@Z
_TEXT	SEGMENT
_t$ = 8							; size = 4
??$?5H@CAr@@QAEAAV0@AAH@Z PROC				; CAr::operator>><int>, COMDAT
; _this$ = ecx

; 302  : {

  00000	55		 push	 ebp
  00001	8b ec		 mov	 ebp, esp
  00003	8b d1		 mov	 edx, ecx

; 303  : 	if (m_lpBufCur + sizeof(T) <= m_lpBufMax)

  00005	8b 4a 08	 mov	 ecx, DWORD PTR [edx+8]
  00008	8d 41 04	 lea	 eax, DWORD PTR [ecx+4]
  0000b	3b 42 0c	 cmp	 eax, DWORD PTR [edx+12]
  0000e	8b 45 08	 mov	 eax, DWORD PTR _t$[ebp]
  00011	77 0e		 ja	 SHORT $LN2@operator

; 304  : 	{
; 305  : 		t = *(UNALIGNED T*)m_lpBufCur;

  00013	8b 09		 mov	 ecx, DWORD PTR [ecx]
  00015	89 08		 mov	 DWORD PTR [eax], ecx

; 312  : 	}
; 313  : 	return *this;
; 314  : }

  00017	8b c2		 mov	 eax, edx
  00019	83 42 08 04	 add	 DWORD PTR [edx+8], 4
  0001d	5d		 pop	 ebp
  0001e	c2 04 00	 ret	 4
$LN2@operator:

; 306  : 		m_lpBufCur += sizeof(T);
; 307  : 	}
; 308  : 	else
; 309  : 	{
; 310  : 		t = T();

  00021	c7 00 00 00 00
	00		 mov	 DWORD PTR [eax], 0

; 311  : 		m_lpBufCur = m_lpBufMax;

  00027	8b 42 0c	 mov	 eax, DWORD PTR [edx+12]
  0002a	89 42 08	 mov	 DWORD PTR [edx+8], eax

; 312  : 	}
; 313  : 	return *this;
; 314  : }

  0002d	8b c2		 mov	 eax, edx
  0002f	5d		 pop	 ebp
  00030	c2 04 00	 ret	 4
??$?5H@CAr@@QAEAAV0@AAH@Z ENDP				; CAr::operator>><int>
_TEXT	ENDS
; Function compile flags: /Ogtp
; File C:\IAGOS\server\v18\Source\Source\_Network\Misc\Include\Ar.h
;	COMDAT ??$?6H@CAr@@QAEAAV0@ABH@Z
_TEXT	SEGMENT
_t$ = 8							; size = 4
??$?6H@CAr@@QAEAAV0@ABH@Z PROC				; CAr::operator<<<int>, COMDAT
; _this$ = ecx

; 255  : {

  00000	55		 push	 ebp
  00001	8b ec		 mov	 ebp, esp
  00003	56		 push	 esi

; 256  : 	CheckBuf(sizeof(T));

  00004	6a 04		 push	 4
  00006	8b f1		 mov	 esi, ecx
  00008	e8 00 00 00 00	 call	 ?CheckBuf@CAr@@QAEXI@Z	; CAr::CheckBuf

; 257  : 	*(UNALIGNED T*)m_lpBufCur = t;

  0000d	8b 56 08	 mov	 edx, DWORD PTR [esi+8]
  00010	8b 45 08	 mov	 eax, DWORD PTR _t$[ebp]
  00013	8b 00		 mov	 eax, DWORD PTR [eax]
  00015	89 02		 mov	 DWORD PTR [edx], eax

; 258  : 	m_lpBufCur += sizeof(T);
; 259  : 	return *this;

  00017	8b c6		 mov	 eax, esi
  00019	83 46 08 04	 add	 DWORD PTR [esi+8], 4
  0001d	5e		 pop	 esi

; 260  : }

  0001e	5d		 pop	 ebp
  0001f	c2 04 00	 ret	 4
??$?6H@CAr@@QAEAAV0@ABH@Z ENDP				; CAr::operator<<<int>
_TEXT	ENDS
; Function compile flags: /Ogtp
; File C:\IAGOS\server\v18\Source\Source\_network\misc\src\ar.cpp
;	COMDAT ??__E?m_pHeapMng@CAr@@2PAVCHeapMng@@A@@YAXXZ
text$di	SEGMENT
$T2 = -16						; size = 4
__$EHRec$ = -12						; size = 12
??__E?m_pHeapMng@CAr@@2PAVCHeapMng@@A@@YAXXZ PROC	; `dynamic initializer for 'CAr::m_pHeapMng'', COMDAT

; 13   : CHeapMng*	CAr::m_pHeapMng		= new CHeapMng;

  00000	55		 push	 ebp
  00001	8b ec		 mov	 ebp, esp
  00003	6a ff		 push	 -1
  00005	68 00 00 00 00	 push	 __ehhandler$??__E?m_pHeapMng@CAr@@2PAVCHeapMng@@A@@YAXXZ
  0000a	64 a1 00 00 00
	00		 mov	 eax, DWORD PTR fs:0
  00010	50		 push	 eax
  00011	51		 push	 ecx
  00012	a1 00 00 00 00	 mov	 eax, DWORD PTR ___security_cookie
  00017	33 c5		 xor	 eax, ebp
  00019	50		 push	 eax
  0001a	8d 45 f4	 lea	 eax, DWORD PTR __$EHRec$[ebp]
  0001d	64 a3 00 00 00
	00		 mov	 DWORD PTR fs:0, eax
  00023	6a 08		 push	 8
  00025	e8 00 00 00 00	 call	 ??2@YAPAXI@Z		; operator new
  0002a	83 c4 04	 add	 esp, 4
  0002d	89 45 f0	 mov	 DWORD PTR $T2[ebp], eax
  00030	c7 45 fc 00 00
	00 00		 mov	 DWORD PTR __$EHRec$[ebp+8], 0
  00037	85 c0		 test	 eax, eax
  00039	74 1b		 je	 SHORT $LN3@m_pHeapMng
  0003b	8b c8		 mov	 ecx, eax
  0003d	e8 00 00 00 00	 call	 ??0CHeapMng@@QAE@XZ	; CHeapMng::CHeapMng
  00042	a3 00 00 00 00	 mov	 DWORD PTR ?m_pHeapMng@CAr@@2PAVCHeapMng@@A, eax ; CAr::m_pHeapMng
  00047	8b 4d f4	 mov	 ecx, DWORD PTR __$EHRec$[ebp]
  0004a	64 89 0d 00 00
	00 00		 mov	 DWORD PTR fs:0, ecx
  00051	59		 pop	 ecx
  00052	8b e5		 mov	 esp, ebp
  00054	5d		 pop	 ebp
  00055	c3		 ret	 0
$LN3@m_pHeapMng:
  00056	c7 05 00 00 00
	00 00 00 00 00	 mov	 DWORD PTR ?m_pHeapMng@CAr@@2PAVCHeapMng@@A, 0 ; CAr::m_pHeapMng
  00060	8b 4d f4	 mov	 ecx, DWORD PTR __$EHRec$[ebp]
  00063	64 89 0d 00 00
	00 00		 mov	 DWORD PTR fs:0, ecx
  0006a	59		 pop	 ecx
  0006b	8b e5		 mov	 esp, ebp
  0006d	5d		 pop	 ebp
  0006e	c3		 ret	 0
text$di	ENDS
;	COMDAT text$x
text$x	SEGMENT
__unwindfunclet$??__E?m_pHeapMng@CAr@@2PAVCHeapMng@@A@@YAXXZ$0:
  00000	6a 08		 push	 8
  00002	8b 45 f0	 mov	 eax, DWORD PTR $T2[ebp]
  00005	50		 push	 eax
  00006	e8 00 00 00 00	 call	 ??3@YAXPAXI@Z		; operator delete
  0000b	83 c4 08	 add	 esp, 8
  0000e	c3		 ret	 0
  0000f	cc		 int	 3
  00010	cc		 int	 3
  00011	cc		 int	 3
  00012	cc		 int	 3
  00013	cc		 int	 3
__ehhandler$??__E?m_pHeapMng@CAr@@2PAVCHeapMng@@A@@YAXXZ:
  00014	90		 npad	 1
  00015	90		 npad	 1
  00016	8b 54 24 08	 mov	 edx, DWORD PTR [esp+8]
  0001a	8d 42 0c	 lea	 eax, DWORD PTR [edx+12]
  0001d	8b 4a f8	 mov	 ecx, DWORD PTR [edx-8]
  00020	33 c8		 xor	 ecx, eax
  00022	e8 00 00 00 00	 call	 @__security_check_cookie@4
  00027	b8 00 00 00 00	 mov	 eax, OFFSET __ehfuncinfo$??__E?m_pHeapMng@CAr@@2PAVCHeapMng@@A@@YAXXZ
  0002c	e9 00 00 00 00	 jmp	 ___CxxFrameHandler3
text$x	ENDS
??__E?m_pHeapMng@CAr@@2PAVCHeapMng@@A@@YAXXZ ENDP	; `dynamic initializer for 'CAr::m_pHeapMng''
; Function compile flags: /Ogtp
; File C:\Program Files\Microsoft Visual Studio\2022\Professional\VC\Tools\MSVC\14.44.35207\include\xmemory
;	COMDAT ??$_Allocate_manually_vector_aligned@U_Default_allocate_traits@std@@@std@@YAPAXI@Z
_TEXT	SEGMENT
__Bytes$ = 8						; size = 4
??$_Allocate_manually_vector_aligned@U_Default_allocate_traits@std@@@std@@YAPAXI@Z PROC ; std::_Allocate_manually_vector_aligned<std::_Default_allocate_traits>, COMDAT

; 182  : __declspec(allocator) void* _Allocate_manually_vector_aligned(const size_t _Bytes) {

  00000	55		 push	 ebp
  00001	8b ec		 mov	 ebp, esp

; 183  :     // allocate _Bytes manually aligned to at least _Big_allocation_alignment
; 184  :     const size_t _Block_size = _Non_user_size + _Bytes;

  00003	8b 45 08	 mov	 eax, DWORD PTR __Bytes$[ebp]
  00006	8d 48 23	 lea	 ecx, DWORD PTR [eax+35]

; 185  :     if (_Block_size <= _Bytes) {

  00009	3b c8		 cmp	 ecx, eax
  0000b	0f 86 00 00 00
	00		 jbe	 ?_Throw_bad_array_new_length@std@@YAXXZ ; std::_Throw_bad_array_new_length

; 136  :         return ::operator new(_Bytes);

  00011	51		 push	 ecx
  00012	e8 00 00 00 00	 call	 ??2@YAPAXI@Z		; operator new

; 186  :         _Throw_bad_array_new_length(); // add overflow
; 187  :     }
; 188  : 
; 189  :     const uintptr_t _Ptr_container = reinterpret_cast<uintptr_t>(_Traits::_Allocate(_Block_size));

  00017	8b c8		 mov	 ecx, eax

; 136  :         return ::operator new(_Bytes);

  00019	83 c4 04	 add	 esp, 4

; 190  :     _STL_VERIFY(_Ptr_container != 0, "invalid argument"); // validate even in release since we're doing p[-1]

  0001c	85 c9		 test	 ecx, ecx
  0001e	74 0b		 je	 SHORT $LN9@Allocate_m

; 191  :     void* const _Ptr = reinterpret_cast<void*>((_Ptr_container + _Non_user_size) & ~(_Big_allocation_alignment - 1));

  00020	8d 41 23	 lea	 eax, DWORD PTR [ecx+35]
  00023	83 e0 e0	 and	 eax, -32		; ffffffe0H

; 192  :     static_cast<uintptr_t*>(_Ptr)[-1] = _Ptr_container;

  00026	89 48 fc	 mov	 DWORD PTR [eax-4], ecx

; 193  : 
; 194  : #ifdef _DEBUG
; 195  :     static_cast<uintptr_t*>(_Ptr)[-2] = _Big_allocation_sentinel;
; 196  : #endif // defined(_DEBUG)
; 197  :     return _Ptr;
; 198  : }

  00029	5d		 pop	 ebp
  0002a	c3		 ret	 0
$LN9@Allocate_m:

; 190  :     _STL_VERIFY(_Ptr_container != 0, "invalid argument"); // validate even in release since we're doing p[-1]

  0002b	6a 00		 push	 0
  0002d	6a 00		 push	 0
  0002f	6a 00		 push	 0
  00031	6a 00		 push	 0
  00033	6a 00		 push	 0
  00035	e8 00 00 00 00	 call	 __invoke_watson
$LN7@Allocate_m:
  0003a	cc		 int	 3
??$_Allocate_manually_vector_aligned@U_Default_allocate_traits@std@@@std@@YAPAXI@Z ENDP ; std::_Allocate_manually_vector_aligned<std::_Default_allocate_traits>
_TEXT	ENDS
; Function compile flags: /Ogtp
; File C:\IAGOS\server\v18\Source\Source\_network\misc\src\ar.cpp
;	COMDAT ?GetBuffer@CAr@@QAEPAEPAH@Z
_TEXT	SEGMENT
_pnBufSize$ = 8						; size = 4
?GetBuffer@CAr@@QAEPAEPAH@Z PROC			; CAr::GetBuffer, COMDAT
; _this$ = ecx

; 194  : {

  00000	55		 push	 ebp
  00001	8b ec		 mov	 ebp, esp

; 195  : 	ASSERT( IsStoring() );
; 196  : 	ASSERT( pnBufSize );
; 197  : 
; 198  : 	*pnBufSize	= m_lpBufCur - m_lpBufStart;

  00003	8b 45 08	 mov	 eax, DWORD PTR _pnBufSize$[ebp]
  00006	8b 51 08	 mov	 edx, DWORD PTR [ecx+8]
  00009	2b 51 10	 sub	 edx, DWORD PTR [ecx+16]
  0000c	89 10		 mov	 DWORD PTR [eax], edx

; 199  : 	return m_lpBufStart;

  0000e	8b 41 10	 mov	 eax, DWORD PTR [ecx+16]

; 200  : }

  00011	5d		 pop	 ebp
  00012	c2 04 00	 ret	 4
?GetBuffer@CAr@@QAEPAEPAH@Z ENDP			; CAr::GetBuffer
_TEXT	ENDS
; Function compile flags: /Ogtp
; File C:\IAGOS\server\v18\Source\Source\_network\misc\src\ar.cpp
;	COMDAT ?ReadString@CAr@@QAEPADPADH@Z
_TEXT	SEGMENT
_lpsz$ = 8						; size = 4
_nLen$ = 8						; size = 4
_nBufSize$ = 12						; size = 4
?ReadString@CAr@@QAEPADPADH@Z PROC			; CAr::ReadString, COMDAT
; _this$ = ecx

; 110  : {

  00000	55		 push	 ebp
  00001	8b ec		 mov	 ebp, esp
  00003	53		 push	 ebx
  00004	56		 push	 esi
  00005	57		 push	 edi
  00006	8b 7d 08	 mov	 edi, DWORD PTR _lpsz$[ebp]

; 111  : 	int nLen;
; 112  : 	*this >> nLen;

  00009	8d 45 08	 lea	 eax, DWORD PTR _nLen$[ebp]
  0000c	50		 push	 eax
  0000d	8b d9		 mov	 ebx, ecx
  0000f	e8 00 00 00 00	 call	 ??$?5H@CAr@@QAEAAV0@AAH@Z ; CAr::operator>><int>

; 113  : 
; 114  : 	int nReadable	= nBufSize - 1;

  00014	8b 4d 0c	 mov	 ecx, DWORD PTR _nBufSize$[ebp]

; 115  : 	if( nLen > nReadable || nLen < 0 )

  00017	8b 75 08	 mov	 esi, DWORD PTR _nLen$[ebp]
  0001a	8d 41 ff	 lea	 eax, DWORD PTR [ecx-1]
  0001d	3b f0		 cmp	 esi, eax
  0001f	7f 2f		 jg	 SHORT $LN7@ReadString
  00021	85 f6		 test	 esi, esi
  00023	78 2b		 js	 SHORT $LN7@ReadString

; 119  : 		return lpsz;
; 120  : 	}
; 121  : 	else
; 122  : 	{
; 123  : 		Read( lpsz, sizeof(TCHAR) * nLen );

  00025	56		 push	 esi
  00026	57		 push	 edi
  00027	8b cb		 mov	 ecx, ebx
  00029	e8 00 00 00 00	 call	 ?Read@CAr@@QAEXPAXI@Z	; CAr::Read
  0002e	33 c9		 xor	 ecx, ecx

; 124  : #if defined(__CLIENT) || defined(__DBSERVER)
; 125  : 		for( int i=0;i<nLen;i++ )

  00030	85 f6		 test	 esi, esi
  00032	7e 0f		 jle	 SHORT $LN3@ReadString
$LL12@ReadString:

; 126  : #ifdef __CLIENT
; 127  : 			if( lpsz[i] == '\x60' )
; 128  : 				lpsz[i] = '\x27';
; 129  : #else // __CLIENT
; 130  : #ifdef __DBSERVER
; 131  : 			if( lpsz[i] == '\x27' )

  00034	80 3c 0f 27	 cmp	 BYTE PTR [edi+ecx], 39	; 00000027H
  00038	75 04		 jne	 SHORT $LN13@ReadString

; 132  : 				lpsz[i] = '\x60';

  0003a	c6 04 0f 60	 mov	 BYTE PTR [edi+ecx], 96	; 00000060H
$LN13@ReadString:

; 124  : #if defined(__CLIENT) || defined(__DBSERVER)
; 125  : 		for( int i=0;i<nLen;i++ )

  0003e	41		 inc	 ecx
  0003f	3b ce		 cmp	 ecx, esi
  00041	7c f1		 jl	 SHORT $LL12@ReadString
$LN3@ReadString:

; 133  : #endif // __DBSERVER
; 134  : #endif // __CLIENT
; 135  : #endif // defined(__CLIENT) || defined(__DBSERVER)
; 136  : 
; 137  : 		lpsz[nLen] = '\0';

  00043	c6 04 3e 00	 mov	 BYTE PTR [esi+edi], 0

; 138  : 		return lpsz;
; 139  : 	}
; 140  : }

  00047	8b c7		 mov	 eax, edi
  00049	5f		 pop	 edi
  0004a	5e		 pop	 esi
  0004b	5b		 pop	 ebx
  0004c	5d		 pop	 ebp
  0004d	c2 08 00	 ret	 8
$LN7@ReadString:

; 116  : 	{
; 117  : 		memset( (void*)lpsz, 0, nBufSize );

  00050	51		 push	 ecx
  00051	6a 00		 push	 0
  00053	57		 push	 edi
  00054	e8 00 00 00 00	 call	 _memset

; 118  : 		m_lpBufCur	= m_lpBufMax;

  00059	8b 43 0c	 mov	 eax, DWORD PTR [ebx+12]
  0005c	83 c4 0c	 add	 esp, 12			; 0000000cH
  0005f	89 43 08	 mov	 DWORD PTR [ebx+8], eax

; 138  : 		return lpsz;
; 139  : 	}
; 140  : }

  00062	8b c7		 mov	 eax, edi
  00064	5f		 pop	 edi
  00065	5e		 pop	 esi
  00066	5b		 pop	 ebx
  00067	5d		 pop	 ebp
  00068	c2 08 00	 ret	 8
?ReadString@CAr@@QAEPADPADH@Z ENDP			; CAr::ReadString
_TEXT	ENDS
; Function compile flags: /Ogtp
; File C:\IAGOS\server\v18\Source\Source\_network\misc\src\ar.cpp
;	COMDAT ?ReadString@CAr@@QAEPADPAD@Z
_TEXT	SEGMENT
_lpsz$ = 8						; size = 4
_nLen$ = 8						; size = 4
?ReadString@CAr@@QAEPADPAD@Z PROC			; CAr::ReadString, COMDAT
; _this$ = ecx

; 89   : {

  00000	55		 push	 ebp
  00001	8b ec		 mov	 ebp, esp
  00003	53		 push	 ebx
  00004	56		 push	 esi
  00005	57		 push	 edi
  00006	8b 7d 08	 mov	 edi, DWORD PTR _lpsz$[ebp]

; 90   : 	int nLen;
; 91   : 	*this >> nLen;

  00009	8d 45 08	 lea	 eax, DWORD PTR _nLen$[ebp]
  0000c	50		 push	 eax
  0000d	8b f1		 mov	 esi, ecx
  0000f	e8 00 00 00 00	 call	 ??$?5H@CAr@@QAEAAV0@AAH@Z ; CAr::operator>><int>

; 92   : 	Read( lpsz, sizeof(TCHAR) * nLen );

  00014	8b 5d 08	 mov	 ebx, DWORD PTR _nLen$[ebp]
  00017	8b ce		 mov	 ecx, esi
  00019	53		 push	 ebx
  0001a	57		 push	 edi
  0001b	e8 00 00 00 00	 call	 ?Read@CAr@@QAEXPAXI@Z	; CAr::Read
  00020	33 c9		 xor	 ecx, ecx

; 93   : #if defined(__CLIENT) || defined(__DBSERVER)
; 94   : 	for( int i=0;i<nLen;i++ )

  00022	85 db		 test	 ebx, ebx
  00024	7e 1c		 jle	 SHORT $LN14@ReadString
$LL9@ReadString:

; 95   : #ifdef __CLIENT
; 96   : 		if( lpsz[i] == '\x60' )
; 97   : 			lpsz[i] = '\x27';
; 98   : #else // __CLIENT
; 99   : #ifdef __DBSERVER
; 100  : 		if( lpsz[i] == '\x27' )

  00026	80 3c 0f 27	 cmp	 BYTE PTR [edi+ecx], 39	; 00000027H
  0002a	75 04		 jne	 SHORT $LN10@ReadString

; 101  : 			lpsz[i] = '\x60';

  0002c	c6 04 0f 60	 mov	 BYTE PTR [edi+ecx], 96	; 00000060H
$LN10@ReadString:

; 93   : #if defined(__CLIENT) || defined(__DBSERVER)
; 94   : 	for( int i=0;i<nLen;i++ )

  00030	41		 inc	 ecx
  00031	3b cb		 cmp	 ecx, ebx
  00033	7c f1		 jl	 SHORT $LL9@ReadString

; 102  : #endif // __DBSERVER
; 103  : #endif // __CLIENT
; 104  : #endif // defined(__CLIENT) || defined(__DBSERVER)
; 105  : 	lpsz[nLen] = '\0';

  00035	c6 04 3b 00	 mov	 BYTE PTR [ebx+edi], 0

; 106  : 	return lpsz;
; 107  : }

  00039	8b c7		 mov	 eax, edi
  0003b	5f		 pop	 edi
  0003c	5e		 pop	 esi
  0003d	5b		 pop	 ebx
  0003e	5d		 pop	 ebp
  0003f	c2 04 00	 ret	 4
$LN14@ReadString:

; 102  : #endif // __DBSERVER
; 103  : #endif // __CLIENT
; 104  : #endif // defined(__CLIENT) || defined(__DBSERVER)
; 105  : 	lpsz[nLen] = '\0';

  00042	88 0c 3b	 mov	 BYTE PTR [ebx+edi], cl

; 106  : 	return lpsz;
; 107  : }

  00045	8b c7		 mov	 eax, edi
  00047	5f		 pop	 edi
  00048	5e		 pop	 esi
  00049	5b		 pop	 ebx
  0004a	5d		 pop	 ebp
  0004b	c2 04 00	 ret	 4
?ReadString@CAr@@QAEPADPAD@Z ENDP			; CAr::ReadString
_TEXT	ENDS
; Function compile flags: /Ogtp
; File C:\IAGOS\server\v18\Source\Source\_network\misc\src\ar.cpp
;	COMDAT ?WriteString@CAr@@QAEXPBD@Z
_TEXT	SEGMENT
_nLen$ = -4						; size = 4
_lpsz$ = 8						; size = 4
?WriteString@CAr@@QAEXPBD@Z PROC			; CAr::WriteString, COMDAT
; _this$ = ecx

; 82   : {

  00000	55		 push	 ebp
  00001	8b ec		 mov	 ebp, esp
  00003	51		 push	 ecx
  00004	53		 push	 ebx
  00005	56		 push	 esi

; 83   : 	int nLen	= _tcslen( lpsz );

  00006	8b 75 08	 mov	 esi, DWORD PTR _lpsz$[ebp]
  00009	8b d9		 mov	 ebx, ecx
  0000b	8d 4e 01	 lea	 ecx, DWORD PTR [esi+1]
  0000e	66 90		 npad	 2
$LL3@WriteStrin:
  00010	8a 06		 mov	 al, BYTE PTR [esi]
  00012	46		 inc	 esi
  00013	84 c0		 test	 al, al
  00015	75 f9		 jne	 SHORT $LL3@WriteStrin
  00017	2b f1		 sub	 esi, ecx

; 84   : 	*this << nLen;

  00019	8d 45 fc	 lea	 eax, DWORD PTR _nLen$[ebp]
  0001c	50		 push	 eax
  0001d	8b cb		 mov	 ecx, ebx
  0001f	89 75 fc	 mov	 DWORD PTR _nLen$[ebp], esi
  00022	e8 00 00 00 00	 call	 ??$?6H@CAr@@QAEAAV0@ABH@Z ; CAr::operator<<<int>

; 85   : 	Write( lpsz, sizeof(TCHAR) * nLen );

  00027	56		 push	 esi
  00028	ff 75 08	 push	 DWORD PTR _lpsz$[ebp]
  0002b	8b cb		 mov	 ecx, ebx
  0002d	e8 00 00 00 00	 call	 ?Write@CAr@@QAEXPBXI@Z	; CAr::Write
  00032	5e		 pop	 esi
  00033	5b		 pop	 ebx

; 86   : }

  00034	8b e5		 mov	 esp, ebp
  00036	5d		 pop	 ebp
  00037	c2 04 00	 ret	 4
?WriteString@CAr@@QAEXPBD@Z ENDP			; CAr::WriteString
_TEXT	ENDS
; Function compile flags: /Ogtp
; File C:\IAGOS\server\v18\Source\Source\_network\misc\src\ar.cpp
; File C:\Program Files\Microsoft Visual Studio\2022\Professional\VC\Tools\MSVC\14.44.35207\include\xstring
; File C:\Program Files\Microsoft Visual Studio\2022\Professional\VC\Tools\MSVC\14.44.35207\include\__msvc_string_view.hpp
; File C:\Program Files\Microsoft Visual Studio\2022\Professional\VC\Tools\MSVC\14.44.35207\include\xstring
; File C:\Program Files\Microsoft Visual Studio\2022\Professional\VC\Tools\MSVC\14.44.35207\include\__msvc_string_view.hpp
; File C:\Program Files\Microsoft Visual Studio\2022\Professional\VC\Tools\MSVC\14.44.35207\include\xstring
; File C:\IAGOS\server\v18\Source\Source\_network\misc\src\ar.cpp
;	COMDAT ?ReadStringStd@CAr@@QAEXAAV?$basic_string@DU?$char_traits@D@std@@V?$allocator@D@2@@std@@@Z
_TEXT	SEGMENT
_this$1$ = -8						; size = 4
_nLen$ = -4						; size = 4
_str$ = 8						; size = 4
$T1 = 8							; size = 1
?ReadStringStd@CAr@@QAEXAAV?$basic_string@DU?$char_traits@D@std@@V?$allocator@D@2@@std@@@Z PROC ; CAr::ReadStringStd, COMDAT
; _this$ = ecx

; 251  : {

  00000	55		 push	 ebp
  00001	8b ec		 mov	 ebp, esp
  00003	83 ec 08	 sub	 esp, 8
  00006	53		 push	 ebx
  00007	57		 push	 edi

; 252  : 	int nLen;
; 253  : 	*this >> nLen;

  00008	8d 45 fc	 lea	 eax, DWORD PTR _nLen$[ebp]
  0000b	8b d9		 mov	 ebx, ecx
  0000d	50		 push	 eax
  0000e	89 5d f8	 mov	 DWORD PTR _this$1$[ebp], ebx
  00011	e8 00 00 00 00	 call	 ??$?5H@CAr@@QAEAAV0@AAH@Z ; CAr::operator>><int>
; File C:\Program Files\Microsoft Visual Studio\2022\Professional\VC\Tools\MSVC\14.44.35207\include\xstring

; 2388 :         const size_type _Old_size = size();

  00016	8b 7d 08	 mov	 edi, DWORD PTR _str$[ebp]

; 2389 :         if (_New_size <= _Old_size) {

  00019	8b 4d fc	 mov	 ecx, DWORD PTR _nLen$[ebp]
  0001c	8b 57 10	 mov	 edx, DWORD PTR [edi+16]
  0001f	3b ca		 cmp	 ecx, edx
  00021	77 13		 ja	 SHORT $LN4@ReadString

; 3076 :         _Mypair._Myval2._Mysize = _New_size;

  00023	89 4f 10	 mov	 DWORD PTR [edi+16], ecx

; 435  :         value_type* _Result = _Bx._Buf;

  00026	8b c7		 mov	 eax, edi

; 453  :         return _Myres > _Small_string_capacity;

  00028	83 7f 14 0f	 cmp	 DWORD PTR [edi+20], 15	; 0000000fH

; 436  :         if (_Large_mode_engaged()) {

  0002c	76 02		 jbe	 SHORT $LN43@ReadString

; 437  :             _Result = _Unfancy(_Bx._Ptr);

  0002e	8b 07		 mov	 eax, DWORD PTR [edi]
$LN43@ReadString:

; 3077 :         _Traits::assign(_Mypair._Myval2._Myptr()[_New_size], _Elem());

  00030	c6 04 08 00	 mov	 BYTE PTR [eax+ecx], 0

; 2391 :         } else {

  00034	eb 4a		 jmp	 SHORT $LN17@ReadString
$LN4@ReadString:
  00036	56		 push	 esi

; 1540 :         if (_Count <= _Mypair._Myval2._Myres - _Old_size) {

  00037	8b 77 14	 mov	 esi, DWORD PTR [edi+20]

; 2392 :             append(_New_size - _Old_size, _Ch);

  0003a	8b d9		 mov	 ebx, ecx

; 1540 :         if (_Count <= _Mypair._Myval2._Myres - _Old_size) {

  0003c	8b c6		 mov	 eax, esi

; 2392 :             append(_New_size - _Old_size, _Ch);

  0003e	2b da		 sub	 ebx, edx

; 1540 :         if (_Count <= _Mypair._Myval2._Myres - _Old_size) {

  00040	2b c2		 sub	 eax, edx
  00042	3b d8		 cmp	 ebx, eax
  00044	77 21		 ja	 SHORT $LN18@ReadString

; 1541 :             _ASAN_STRING_MODIFY(*this, _Old_size, _Old_size + _Count);
; 1542 :             _Mypair._Myval2._Mysize = _Old_size + _Count;

  00046	89 4f 10	 mov	 DWORD PTR [edi+16], ecx

; 435  :         value_type* _Result = _Bx._Buf;

  00049	8b c7		 mov	 eax, edi

; 453  :         return _Myres > _Small_string_capacity;

  0004b	83 fe 0f	 cmp	 esi, 15			; 0000000fH

; 436  :         if (_Large_mode_engaged()) {

  0004e	76 02		 jbe	 SHORT $LN42@ReadString

; 437  :             _Result = _Unfancy(_Bx._Ptr);

  00050	8b 07		 mov	 eax, DWORD PTR [edi]
$LN42@ReadString:
; File C:\Program Files\Microsoft Visual Studio\2022\Professional\VC\Tools\MSVC\14.44.35207\include\__msvc_string_view.hpp

; 493  :         return static_cast<_Elem*>(_CSTD memset(_First, _Ch, _Count));

  00052	53		 push	 ebx
; File C:\Program Files\Microsoft Visual Studio\2022\Professional\VC\Tools\MSVC\14.44.35207\include\xstring

; 1544 :             _Traits::assign(_Old_ptr + _Old_size, _Count, _Ch);

  00053	8d 34 10	 lea	 esi, DWORD PTR [eax+edx]
; File C:\Program Files\Microsoft Visual Studio\2022\Professional\VC\Tools\MSVC\14.44.35207\include\__msvc_string_view.hpp

; 493  :         return static_cast<_Elem*>(_CSTD memset(_First, _Ch, _Count));

  00056	6a 00		 push	 0
  00058	56		 push	 esi
  00059	e8 00 00 00 00	 call	 _memset
  0005e	83 c4 0c	 add	 esp, 12			; 0000000cH
; File C:\Program Files\Microsoft Visual Studio\2022\Professional\VC\Tools\MSVC\14.44.35207\include\xstring

; 1545 :             _Traits::assign(_Old_ptr[_Old_size + _Count], _Elem());

  00061	c6 04 1e 00	 mov	 BYTE PTR [esi+ebx], 0

; 1546 :             return *this;

  00065	eb 12		 jmp	 SHORT $LN50@ReadString
$LN18@ReadString:

; 1547 :         }
; 1548 : 
; 1549 :         return _Reallocate_grow_by(

  00067	6a 00		 push	 0
  00069	53		 push	 ebx
  0006a	c6 45 08 00	 mov	 BYTE PTR $T1[ebp], 0
  0006e	8b cf		 mov	 ecx, edi
  00070	ff 75 08	 push	 DWORD PTR $T1[ebp]
  00073	53		 push	 ebx
  00074	e8 00 00 00 00	 call	 ??$_Reallocate_grow_by@V<lambda_c1b8c41cb4019640539cfd828748c4d4>@@ID@?$basic_string@DU?$char_traits@D@std@@V?$allocator@D@2@@std@@AAEAAV01@IV<lambda_c1b8c41cb4019640539cfd828748c4d4>@@ID@Z ; std::basic_string<char,std::char_traits<char>,std::allocator<char> >::_Reallocate_grow_by<<lambda_c1b8c41cb4019640539cfd828748c4d4>,unsigned int,char>
$LN50@ReadString:
  00079	8b 5d f8	 mov	 ebx, DWORD PTR _this$1$[ebp]
  0007c	8b 4d fc	 mov	 ecx, DWORD PTR _nLen$[ebp]
  0007f	5e		 pop	 esi
$LN17@ReadString:

; 453  :         return _Myres > _Small_string_capacity;

  00080	83 7f 14 0f	 cmp	 DWORD PTR [edi+20], 15	; 0000000fH

; 436  :         if (_Large_mode_engaged()) {

  00084	76 02		 jbe	 SHORT $LN34@ReadString

; 437  :             _Result = _Unfancy(_Bx._Ptr);

  00086	8b 3f		 mov	 edi, DWORD PTR [edi]
$LN34@ReadString:
; File C:\IAGOS\server\v18\Source\Source\_network\misc\src\ar.cpp

; 255  : 	Read(&str[0], sizeof(char) * nLen);

  00088	51		 push	 ecx
  00089	57		 push	 edi
  0008a	8b cb		 mov	 ecx, ebx
  0008c	e8 00 00 00 00	 call	 ?Read@CAr@@QAEXPAXI@Z	; CAr::Read
  00091	5f		 pop	 edi
  00092	5b		 pop	 ebx

; 256  : }

  00093	8b e5		 mov	 esp, ebp
  00095	5d		 pop	 ebp
  00096	c2 04 00	 ret	 4
?ReadStringStd@CAr@@QAEXAAV?$basic_string@DU?$char_traits@D@std@@V?$allocator@D@2@@std@@@Z ENDP ; CAr::ReadStringStd
_TEXT	ENDS
; Function compile flags: /Ogtp
; File C:\IAGOS\server\v18\Source\Source\_network\misc\src\ar.cpp
; File C:\Program Files\Microsoft Visual Studio\2022\Professional\VC\Tools\MSVC\14.44.35207\include\xstring
; File C:\IAGOS\server\v18\Source\Source\_network\misc\src\ar.cpp
;	COMDAT ?WriteStringStd@CAr@@QAEX$$QAV?$basic_string@DU?$char_traits@D@std@@V?$allocator@D@2@@std@@@Z
_TEXT	SEGMENT
_str$ = 8						; size = 4
_nLen$ = 8						; size = 4
?WriteStringStd@CAr@@QAEX$$QAV?$basic_string@DU?$char_traits@D@std@@V?$allocator@D@2@@std@@@Z PROC ; CAr::WriteStringStd, COMDAT
; _this$ = ecx

; 235  : {

  00000	55		 push	 ebp
  00001	8b ec		 mov	 ebp, esp
  00003	53		 push	 ebx
  00004	56		 push	 esi

; 236  : 	int nLen = str.length();

  00005	8b 75 08	 mov	 esi, DWORD PTR _str$[ebp]

; 237  : 	*this << nLen;

  00008	8d 45 08	 lea	 eax, DWORD PTR _nLen$[ebp]
  0000b	57		 push	 edi
  0000c	50		 push	 eax
  0000d	8b f9		 mov	 edi, ecx
  0000f	8b 5e 10	 mov	 ebx, DWORD PTR [esi+16]
  00012	89 5d 08	 mov	 DWORD PTR _nLen$[ebp], ebx
  00015	e8 00 00 00 00	 call	 ??$?6H@CAr@@QAEAAV0@ABH@Z ; CAr::operator<<<int>
; File C:\Program Files\Microsoft Visual Studio\2022\Professional\VC\Tools\MSVC\14.44.35207\include\xstring

; 453  :         return _Myres > _Small_string_capacity;

  0001a	83 7e 14 0f	 cmp	 DWORD PTR [esi+20], 15	; 0000000fH

; 436  :         if (_Large_mode_engaged()) {

  0001e	76 02		 jbe	 SHORT $LN7@WriteStrin

; 437  :             _Result = _Unfancy(_Bx._Ptr);

  00020	8b 36		 mov	 esi, DWORD PTR [esi]
$LN7@WriteStrin:
; File C:\IAGOS\server\v18\Source\Source\_network\misc\src\ar.cpp

; 238  : 	Write(&str[0], sizeof(char) * nLen);

  00022	53		 push	 ebx
  00023	56		 push	 esi
  00024	8b cf		 mov	 ecx, edi
  00026	e8 00 00 00 00	 call	 ?Write@CAr@@QAEXPBXI@Z	; CAr::Write
  0002b	5f		 pop	 edi
  0002c	5e		 pop	 esi
  0002d	5b		 pop	 ebx

; 239  : }

  0002e	5d		 pop	 ebp
  0002f	c2 04 00	 ret	 4
?WriteStringStd@CAr@@QAEX$$QAV?$basic_string@DU?$char_traits@D@std@@V?$allocator@D@2@@std@@@Z ENDP ; CAr::WriteStringStd
_TEXT	ENDS
; Function compile flags: /Ogtp
; File C:\IAGOS\server\v18\Source\Source\_network\misc\src\ar.cpp
; File C:\Program Files\Microsoft Visual Studio\2022\Professional\VC\Tools\MSVC\14.44.35207\include\xstring
; File C:\IAGOS\server\v18\Source\Source\_network\misc\src\ar.cpp
;	COMDAT ?WriteStringStd@CAr@@QAEXABV?$basic_string@DU?$char_traits@D@std@@V?$allocator@D@2@@std@@@Z
_TEXT	SEGMENT
_str$ = 8						; size = 4
_nLen$ = 8						; size = 4
?WriteStringStd@CAr@@QAEXABV?$basic_string@DU?$char_traits@D@std@@V?$allocator@D@2@@std@@@Z PROC ; CAr::WriteStringStd, COMDAT
; _this$ = ecx

; 229  : {

  00000	55		 push	 ebp
  00001	8b ec		 mov	 ebp, esp
  00003	53		 push	 ebx
  00004	56		 push	 esi

; 230  : 	int nLen = str.length();

  00005	8b 75 08	 mov	 esi, DWORD PTR _str$[ebp]

; 231  : 	*this << nLen;

  00008	8d 45 08	 lea	 eax, DWORD PTR _nLen$[ebp]
  0000b	57		 push	 edi
  0000c	50		 push	 eax
  0000d	8b f9		 mov	 edi, ecx
  0000f	8b 5e 10	 mov	 ebx, DWORD PTR [esi+16]
  00012	89 5d 08	 mov	 DWORD PTR _nLen$[ebp], ebx
  00015	e8 00 00 00 00	 call	 ??$?6H@CAr@@QAEAAV0@ABH@Z ; CAr::operator<<<int>
; File C:\Program Files\Microsoft Visual Studio\2022\Professional\VC\Tools\MSVC\14.44.35207\include\xstring

; 453  :         return _Myres > _Small_string_capacity;

  0001a	83 7e 14 0f	 cmp	 DWORD PTR [esi+20], 15	; 0000000fH

; 445  :         if (_Large_mode_engaged()) {

  0001e	76 02		 jbe	 SHORT $LN7@WriteStrin

; 446  :             _Result = _Unfancy(_Bx._Ptr);

  00020	8b 36		 mov	 esi, DWORD PTR [esi]
$LN7@WriteStrin:
; File C:\IAGOS\server\v18\Source\Source\_network\misc\src\ar.cpp

; 232  : 	Write(&str[0], sizeof(char) * nLen);

  00022	53		 push	 ebx
  00023	56		 push	 esi
  00024	8b cf		 mov	 ecx, edi
  00026	e8 00 00 00 00	 call	 ?Write@CAr@@QAEXPBXI@Z	; CAr::Write
  0002b	5f		 pop	 edi
  0002c	5e		 pop	 esi
  0002d	5b		 pop	 ebx

; 233  : }

  0002e	5d		 pop	 ebp
  0002f	c2 04 00	 ret	 4
?WriteStringStd@CAr@@QAEXABV?$basic_string@DU?$char_traits@D@std@@V?$allocator@D@2@@std@@@Z ENDP ; CAr::WriteStringStd
_TEXT	ENDS
; Function compile flags: /Ogtp
; File C:\IAGOS\server\v18\Source\Source\_network\misc\src\ar.cpp
;	COMDAT ?ReelIn@CAr@@QAEXI@Z
_TEXT	SEGMENT
_uOffset$ = 8						; size = 4
?ReelIn@CAr@@QAEXI@Z PROC				; CAr::ReelIn, COMDAT
; _this$ = ecx

; 209  : {

  00000	55		 push	 ebp
  00001	8b ec		 mov	 ebp, esp
  00003	56		 push	 esi
  00004	57		 push	 edi
  00005	8b f9		 mov	 edi, ecx

; 210  : 	ASSERT( IsStoring() );
; 211  : 	ASSERT( m_lpBufStart + uOffset <= m_lpBufCur );
; 212  : #if 1
; 213  : 	if( m_nBufSize > nGrowSize )

  00007	81 7f 04 00 40
	00 00		 cmp	 DWORD PTR [edi+4], 16384 ; 00004000H
  0000e	76 23		 jbe	 SHORT $LN5@ReelIn

; 214  : 	{
; 215  : #ifdef __VM_0819
; 216  : 		CAr::m_pHeapMng->Free( m_lpBufStart, m_nBufSize );
; 217  : #else	// __VM_0819
; 218  : 		CAr::m_pHeapMng->Free( m_lpBufStart );

  00010	ff 77 10	 push	 DWORD PTR [edi+16]
  00013	8b 0d 00 00 00
	00		 mov	 ecx, DWORD PTR ?m_pHeapMng@CAr@@2PAVCHeapMng@@A ; CAr::m_pHeapMng
  00019	e8 00 00 00 00	 call	 ?Free@CHeapMng@@QAEXPAX@Z ; CHeapMng::Free

; 219  : #endif	// __VM_0819
; 220  : 		m_lpBufStart	= m_lpBuf;

  0001e	8d 47 14	 lea	 eax, DWORD PTR [edi+20]

; 221  : 		m_nBufSize	= nGrowSize;

  00021	c7 47 04 00 40
	00 00		 mov	 DWORD PTR [edi+4], 16384 ; 00004000H
  00028	89 47 10	 mov	 DWORD PTR [edi+16], eax

; 222  : 		m_lpBufMax	= m_lpBufStart + m_nBufSize;

  0002b	05 00 40 00 00	 add	 eax, 16384		; 00004000H
  00030	89 47 0c	 mov	 DWORD PTR [edi+12], eax
$LN5@ReelIn:

; 223  : 	}
; 224  : #endif	// 1
; 225  : 	m_lpBufCur	= m_lpBufStart + uOffset;

  00033	8b 47 10	 mov	 eax, DWORD PTR [edi+16]
  00036	03 45 08	 add	 eax, DWORD PTR _uOffset$[ebp]
  00039	89 47 08	 mov	 DWORD PTR [edi+8], eax
  0003c	5f		 pop	 edi
  0003d	5e		 pop	 esi

; 226  : }

  0003e	5d		 pop	 ebp
  0003f	c2 04 00	 ret	 4
?ReelIn@CAr@@QAEXI@Z ENDP				; CAr::ReelIn
_TEXT	ENDS
; Function compile flags: /Ogtp
; File C:\IAGOS\server\v18\Source\Source\_network\misc\src\ar.cpp
;	COMDAT ?Flush@CAr@@QAEXXZ
_TEXT	SEGMENT
?Flush@CAr@@QAEXXZ PROC					; CAr::Flush, COMDAT
; _this$ = ecx

; 204  : 	ASSERT( IsStoring() );
; 205  : 	m_lpBufCur	= m_lpBufStart;

  00000	8b 41 10	 mov	 eax, DWORD PTR [ecx+16]
  00003	89 41 08	 mov	 DWORD PTR [ecx+8], eax

; 206  : }

  00006	c3		 ret	 0
?Flush@CAr@@QAEXXZ ENDP					; CAr::Flush
_TEXT	ENDS
; Function compile flags: /Ogtp
; File C:\IAGOS\server\v18\Source\Source\_network\misc\src\ar.cpp
;	COMDAT ?Reserve@CAr@@QAEXI@Z
_TEXT	SEGMENT
_nSize$ = 8						; size = 4
?Reserve@CAr@@QAEXI@Z PROC				; CAr::Reserve, COMDAT
; _this$ = ecx

; 143  : {

  00000	55		 push	 ebp
  00001	8b ec		 mov	 ebp, esp
  00003	56		 push	 esi

; 144  : 	ASSERT( IsStoring() );
; 145  : 	ASSERT( m_lpBufCur == m_lpBufStart );
; 146  : 	if( nSize <= nGrowSize )

  00004	8b 75 08	 mov	 esi, DWORD PTR _nSize$[ebp]
  00007	57		 push	 edi
  00008	8b f9		 mov	 edi, ecx
  0000a	81 fe 00 40 00
	00		 cmp	 esi, 16384		; 00004000H
  00010	76 1a		 jbe	 SHORT $LN1@Reserve

; 147  : 		return;
; 148  : //	LPBYTE lpBuf	= (LPBYTE) heapAlloc( nSize );
; 149  : 	LPBYTE lpBuf	= (LPBYTE)CAr::m_pHeapMng->Malloc( nSize );

  00012	8b 0d 00 00 00
	00		 mov	 ecx, DWORD PTR ?m_pHeapMng@CAr@@2PAVCHeapMng@@A ; CAr::m_pHeapMng
  00018	56		 push	 esi
  00019	e8 00 00 00 00	 call	 ?Malloc@CHeapMng@@QAEPAXI@Z ; CHeapMng::Malloc

; 150  : 	m_lpBufStart	= lpBuf;

  0001e	89 47 10	 mov	 DWORD PTR [edi+16], eax

; 151  : 
; 152  : 	ASSERT( m_lpBufStart );
; 153  : 	m_nBufSize	= nSize;
; 154  : 	m_lpBufCur	= m_lpBufStart;

  00021	89 47 08	 mov	 DWORD PTR [edi+8], eax

; 155  : 	m_lpBufMax	= m_lpBufStart + m_nBufSize;

  00024	03 c6		 add	 eax, esi
  00026	89 77 04	 mov	 DWORD PTR [edi+4], esi
  00029	89 47 0c	 mov	 DWORD PTR [edi+12], eax
$LN1@Reserve:

; 156  : }

  0002c	5f		 pop	 edi
  0002d	5e		 pop	 esi
  0002e	5d		 pop	 ebp
  0002f	c2 04 00	 ret	 4
?Reserve@CAr@@QAEXI@Z ENDP				; CAr::Reserve
_TEXT	ENDS
; Function compile flags: /Ogtp
; File C:\IAGOS\server\v18\Source\Source\_network\misc\src\ar.cpp
;	COMDAT ?CheckBuf@CAr@@QAEXI@Z
_TEXT	SEGMENT
_nSize$ = 8						; size = 4
_nExtension$1$ = 8					; size = 4
?CheckBuf@CAr@@QAEXI@Z PROC				; CAr::CheckBuf, COMDAT
; _this$ = ecx

; 159  : {

  00000	55		 push	 ebp
  00001	8b ec		 mov	 ebp, esp

; 160  : 	if( m_lpBufCur + nSize > m_lpBufMax )

  00003	8b 45 08	 mov	 eax, DWORD PTR _nSize$[ebp]
  00006	53		 push	 ebx
  00007	56		 push	 esi
  00008	8b f1		 mov	 esi, ecx
  0000a	8b 5e 08	 mov	 ebx, DWORD PTR [esi+8]
  0000d	03 c3		 add	 eax, ebx
  0000f	3b 46 0c	 cmp	 eax, DWORD PTR [esi+12]
  00012	76 58		 jbe	 SHORT $LN2@CheckBuf

; 161  : 	{
; 162  : 		u_int uOffset	= m_lpBufCur - m_lpBufStart;
; 163  : 
; 164  : //		u_int nExtension	= nGrowSize * ( nSize / nGrowSize + 1 );
; 165  : 		u_int nExtension	= m_nBufSize * 2;

  00014	8b 46 04	 mov	 eax, DWORD PTR [esi+4]
  00017	8b 56 10	 mov	 edx, DWORD PTR [esi+16]
  0001a	2b da		 sub	 ebx, edx
  0001c	57		 push	 edi
  0001d	8d 0c 00	 lea	 ecx, DWORD PTR [eax+eax]
  00020	89 4d 08	 mov	 DWORD PTR _nExtension$1$[ebp], ecx
  00023	03 c8		 add	 ecx, eax

; 166  : 		
; 167  : 		if( m_nBufSize > nGrowSize )

  00025	51		 push	 ecx
  00026	8b 0d 00 00 00
	00		 mov	 ecx, DWORD PTR ?m_pHeapMng@CAr@@2PAVCHeapMng@@A ; CAr::m_pHeapMng
  0002c	3d 00 40 00 00	 cmp	 eax, 16384		; 00004000H
  00031	76 0a		 jbe	 SHORT $LN3@CheckBuf

; 168  : 		{
; 169  : #ifdef __VM_0819
; 170  : 			m_lpBufStart	= (LPBYTE)CAr::m_pHeapMng->Realloc( m_lpBufStart, m_nBufSize + nExtension, m_nBufSize );
; 171  : #else	// __VM_0819
; 172  : 			m_lpBufStart	= (LPBYTE)CAr::m_pHeapMng->Realloc( m_lpBufStart, m_nBufSize + nExtension );

  00033	52		 push	 edx
  00034	e8 00 00 00 00	 call	 ?Realloc@CHeapMng@@QAEPAXPAXI@Z ; CHeapMng::Realloc
  00039	8b f8		 mov	 edi, eax

; 173  : #endif	// __VM_0819
; 174  : 
; 175  : // 			//	BEGINTEST
; 176  : // 			Error( "m_nBufSize : %d, Realloc Size : %d", m_nBufSize, m_nBufSize + nExtension );
; 177  : 		}

  0003b	eb 16		 jmp	 SHORT $LN4@CheckBuf
$LN3@CheckBuf:

; 178  : 		else
; 179  : 		{
; 180  : 			LPBYTE lpBuf	= (LPBYTE)CAr::m_pHeapMng->Malloc( m_nBufSize + nExtension );

  0003d	e8 00 00 00 00	 call	 ?Malloc@CHeapMng@@QAEPAXI@Z ; CHeapMng::Malloc

; 181  : 			memcpy( lpBuf, m_lpBufStart, m_nBufSize );

  00042	ff 76 04	 push	 DWORD PTR [esi+4]
  00045	8b f8		 mov	 edi, eax
  00047	ff 76 10	 push	 DWORD PTR [esi+16]
  0004a	57		 push	 edi
  0004b	e8 00 00 00 00	 call	 _memcpy
  00050	83 c4 0c	 add	 esp, 12			; 0000000cH
$LN4@CheckBuf:

; 182  : 			m_lpBufStart	= lpBuf;
; 183  : 		}
; 184  : 
; 185  : 		ASSERT( m_lpBufStart );
; 186  : 
; 187  : 		m_nBufSize	+= nExtension;

  00053	8b 45 08	 mov	 eax, DWORD PTR _nExtension$1$[ebp]
  00056	89 7e 10	 mov	 DWORD PTR [esi+16], edi
  00059	01 46 04	 add	 DWORD PTR [esi+4], eax

; 188  : 		m_lpBufCur	= m_lpBufStart + uOffset;

  0005c	8d 04 1f	 lea	 eax, DWORD PTR [edi+ebx]
  0005f	8b 4e 04	 mov	 ecx, DWORD PTR [esi+4]
  00062	89 46 08	 mov	 DWORD PTR [esi+8], eax

; 189  : 		m_lpBufMax	= m_lpBufStart + m_nBufSize;

  00065	8d 04 39	 lea	 eax, DWORD PTR [ecx+edi]
  00068	89 46 0c	 mov	 DWORD PTR [esi+12], eax
  0006b	5f		 pop	 edi
$LN2@CheckBuf:

; 190  : 	}
; 191  : }

  0006c	5e		 pop	 esi
  0006d	5b		 pop	 ebx
  0006e	5d		 pop	 ebp
  0006f	c2 04 00	 ret	 4
?CheckBuf@CAr@@QAEXI@Z ENDP				; CAr::CheckBuf
_TEXT	ENDS
; Function compile flags: /Ogtp
; File C:\IAGOS\server\v18\Source\Source\_network\misc\src\ar.cpp
;	COMDAT ?Write@CAr@@QAEXPBXI@Z
_TEXT	SEGMENT
_lpBuf$ = 8						; size = 4
_nSize$ = 12						; size = 4
?Write@CAr@@QAEXPBXI@Z PROC				; CAr::Write, COMDAT
; _this$ = ecx

; 67   : {

  00000	55		 push	 ebp
  00001	8b ec		 mov	 ebp, esp
  00003	56		 push	 esi

; 68   : 	if( nSize == 0 )

  00004	8b 75 0c	 mov	 esi, DWORD PTR _nSize$[ebp]
  00007	57		 push	 edi
  00008	8b f9		 mov	 edi, ecx
  0000a	85 f6		 test	 esi, esi
  0000c	74 18		 je	 SHORT $LN1@Write

; 69   : 		return;
; 70   : 	
; 71   : 	ASSERT( IsStoring() );
; 72   : 	ASSERT( lpBuf );
; 73   : 	
; 74   : 	CheckBuf( nSize );

  0000e	56		 push	 esi
  0000f	e8 00 00 00 00	 call	 ?CheckBuf@CAr@@QAEXI@Z	; CAr::CheckBuf

; 75   : 
; 76   : 	memcpy( m_lpBufCur, lpBuf, nSize );

  00014	56		 push	 esi
  00015	ff 75 08	 push	 DWORD PTR _lpBuf$[ebp]
  00018	ff 77 08	 push	 DWORD PTR [edi+8]
  0001b	e8 00 00 00 00	 call	 _memcpy
  00020	83 c4 0c	 add	 esp, 12			; 0000000cH

; 77   : 	m_lpBufCur	+= nSize;

  00023	01 77 08	 add	 DWORD PTR [edi+8], esi
$LN1@Write:

; 78   : }

  00026	5f		 pop	 edi
  00027	5e		 pop	 esi
  00028	5d		 pop	 ebp
  00029	c2 08 00	 ret	 8
?Write@CAr@@QAEXPBXI@Z ENDP				; CAr::Write
_TEXT	ENDS
; Function compile flags: /Ogtp
; File C:\IAGOS\server\v18\Source\Source\_network\misc\src\ar.cpp
;	COMDAT ?Read@CAr@@QAEXPAXI@Z
_TEXT	SEGMENT
_lpBuf$ = 8						; size = 4
_nSize$ = 12						; size = 4
?Read@CAr@@QAEXPAXI@Z PROC				; CAr::Read, COMDAT
; _this$ = ecx

; 47   : {

  00000	55		 push	 ebp
  00001	8b ec		 mov	 ebp, esp
  00003	56		 push	 esi
  00004	57		 push	 edi

; 48   : 	if( nSize == 0 )

  00005	8b 7d 0c	 mov	 edi, DWORD PTR _nSize$[ebp]
  00008	8b f1		 mov	 esi, ecx
  0000a	85 ff		 test	 edi, edi
  0000c	74 34		 je	 SHORT $LN4@Read

; 49   : 		return;
; 50   : 
; 51   : 	ASSERT( IsLoading() );
; 52   : 	ASSERT( lpBuf );
; 53   : 
; 54   : 	if( m_lpBufCur + nSize <= m_lpBufMax )

  0000e	8b 4e 08	 mov	 ecx, DWORD PTR [esi+8]
  00011	57		 push	 edi
  00012	8d 04 39	 lea	 eax, DWORD PTR [ecx+edi]
  00015	3b 46 0c	 cmp	 eax, DWORD PTR [esi+12]
  00018	77 15		 ja	 SHORT $LN3@Read

; 55   : 	{
; 56   : 		memcpy( lpBuf, m_lpBufCur, nSize );

  0001a	51		 push	 ecx
  0001b	ff 75 08	 push	 DWORD PTR _lpBuf$[ebp]
  0001e	e8 00 00 00 00	 call	 _memcpy
  00023	83 c4 0c	 add	 esp, 12			; 0000000cH

; 57   : 		m_lpBufCur	+= nSize;

  00026	01 7e 08	 add	 DWORD PTR [esi+8], edi
  00029	5f		 pop	 edi

; 63   : 	}
; 64   : }

  0002a	5e		 pop	 esi
  0002b	5d		 pop	 ebp
  0002c	c2 08 00	 ret	 8
$LN3@Read:

; 58   : 	}
; 59   : 	else	// overflow
; 60   : 	{
; 61   : 		memset( lpBuf, 0, nSize );

  0002f	6a 00		 push	 0
  00031	ff 75 08	 push	 DWORD PTR _lpBuf$[ebp]
  00034	e8 00 00 00 00	 call	 _memset

; 62   : 		m_lpBufCur	= m_lpBufMax;

  00039	8b 46 0c	 mov	 eax, DWORD PTR [esi+12]
  0003c	83 c4 0c	 add	 esp, 12			; 0000000cH
  0003f	89 46 08	 mov	 DWORD PTR [esi+8], eax
$LN4@Read:

; 63   : 	}
; 64   : }

  00042	5f		 pop	 edi
  00043	5e		 pop	 esi
  00044	5d		 pop	 ebp
  00045	c2 08 00	 ret	 8
?Read@CAr@@QAEXPAXI@Z ENDP				; CAr::Read
_TEXT	ENDS
; Function compile flags: /Ogtp
; File C:\IAGOS\server\v18\Source\Source\_network\misc\src\ar.cpp
; File C:\IAGOS\server\v18\Source\Source\_Network\Misc\Include\Ar.h
; File C:\IAGOS\server\v18\Source\Source\_network\misc\src\ar.cpp
;	COMDAT ??1CAr@@QAE@XZ
_TEXT	SEGMENT
__$EHRec$ = -12						; size = 12
??1CAr@@QAE@XZ PROC					; CAr::~CAr, COMDAT
; _this$ = ecx

; 35   : {

  00000	55		 push	 ebp
  00001	8b ec		 mov	 ebp, esp
  00003	6a ff		 push	 -1
  00005	68 00 00 00 00	 push	 __ehhandler$??1CAr@@QAE@XZ
  0000a	64 a1 00 00 00
	00		 mov	 eax, DWORD PTR fs:0
  00010	50		 push	 eax
  00011	a1 00 00 00 00	 mov	 eax, DWORD PTR ___security_cookie
  00016	33 c5		 xor	 eax, ebp
  00018	50		 push	 eax
  00019	8d 45 f4	 lea	 eax, DWORD PTR __$EHRec$[ebp]
  0001c	64 a3 00 00 00
	00		 mov	 DWORD PTR fs:0, eax
; File C:\IAGOS\server\v18\Source\Source\_Network\Misc\Include\Ar.h

; 146  : 	return (m_nMode & CAr::load) == 0;

  00022	f6 01 01	 test	 BYTE PTR [ecx], 1
; File C:\IAGOS\server\v18\Source\Source\_network\misc\src\ar.cpp

; 36   : 	if( IsStoring() && ( m_nBufSize > nGrowSize ) )

  00025	75 17		 jne	 SHORT $LN2@CAr
  00027	81 79 04 00 40
	00 00		 cmp	 DWORD PTR [ecx+4], 16384 ; 00004000H
  0002e	76 0e		 jbe	 SHORT $LN2@CAr

; 37   : 	{
; 38   : #ifdef __VM_0819
; 39   : 		CAr::m_pHeapMng->Free( m_lpBufStart, m_nBufSize );
; 40   : #else	// __VM_0819
; 41   : 		CAr::m_pHeapMng->Free( m_lpBufStart );

  00030	ff 71 10	 push	 DWORD PTR [ecx+16]
  00033	8b 0d 00 00 00
	00		 mov	 ecx, DWORD PTR ?m_pHeapMng@CAr@@2PAVCHeapMng@@A ; CAr::m_pHeapMng
  00039	e8 00 00 00 00	 call	 ?Free@CHeapMng@@QAEXPAX@Z ; CHeapMng::Free
$LN2@CAr:

; 42   : #endif	// __VM_0819
; 43   : 	}
; 44   : }

  0003e	8b 4d f4	 mov	 ecx, DWORD PTR __$EHRec$[ebp]
  00041	64 89 0d 00 00
	00 00		 mov	 DWORD PTR fs:0, ecx
  00048	59		 pop	 ecx
  00049	8b e5		 mov	 esp, ebp
  0004b	5d		 pop	 ebp
  0004c	c3		 ret	 0
  0004d	cc		 int	 3
  0004e	cc		 int	 3
  0004f	cc		 int	 3
  00050	cc		 int	 3
  00051	cc		 int	 3
_TEXT	ENDS
;	COMDAT text$x
text$x	SEGMENT
__ehhandler$??1CAr@@QAE@XZ:
  00000	90		 npad	 1
  00001	90		 npad	 1
  00002	8b 54 24 08	 mov	 edx, DWORD PTR [esp+8]
  00006	8d 42 0c	 lea	 eax, DWORD PTR [edx+12]
  00009	8b 4a fc	 mov	 ecx, DWORD PTR [edx-4]
  0000c	33 c8		 xor	 ecx, eax
  0000e	e8 00 00 00 00	 call	 @__security_check_cookie@4
  00013	b8 00 00 00 00	 mov	 eax, OFFSET __ehfuncinfo$??1CAr@@QAE@XZ
  00018	e9 00 00 00 00	 jmp	 ___CxxFrameHandler3
text$x	ENDS
??1CAr@@QAE@XZ ENDP					; CAr::~CAr
; Function compile flags: /Ogtp
; File C:\IAGOS\server\v18\Source\Source\_network\misc\src\ar.cpp
;	COMDAT ??0CAr@@QAE@PAXI@Z
_TEXT	SEGMENT
_lpBuf$ = 8						; size = 4
_nBufSize$ = 12						; size = 4
??0CAr@@QAE@PAXI@Z PROC					; CAr::CAr, COMDAT
; _this$ = ecx

; 17   : {

  00000	55		 push	 ebp
  00001	8b ec		 mov	 ebp, esp

; 18   : 	if( lpBuf )

  00003	8b 55 08	 mov	 edx, DWORD PTR _lpBuf$[ebp]
  00006	53		 push	 ebx
  00007	85 d2		 test	 edx, edx
  00009	74 07		 je	 SHORT $LN2@CAr

; 19   : 	{
; 20   : 		m_nMode		= load;
; 21   : 		m_lpBufStart	= (LPBYTE)lpBuf;
; 22   : 		m_nBufSize	= nBufSize;

  0000b	8b 45 0c	 mov	 eax, DWORD PTR _nBufSize$[ebp]
  0000e	b3 01		 mov	 bl, 1

; 23   : 	}

  00010	eb 0a		 jmp	 SHORT $LN3@CAr
$LN2@CAr:

; 24   : 	else
; 25   : 	{
; 26   : 		m_nMode		= store;
; 27   : 		m_lpBufStart	= m_lpBuf;
; 28   : 		m_nBufSize	= nGrowSize;

  00012	b8 00 40 00 00	 mov	 eax, 16384		; 00004000H
  00017	8d 51 14	 lea	 edx, DWORD PTR [ecx+20]
  0001a	32 db		 xor	 bl, bl
$LN3@CAr:

; 29   : 	}
; 30   : 	m_lpBufMax	= m_lpBufStart + m_nBufSize;

  0001c	88 19		 mov	 BYTE PTR [ecx], bl
  0001e	89 51 10	 mov	 DWORD PTR [ecx+16], edx
  00021	89 41 04	 mov	 DWORD PTR [ecx+4], eax
  00024	03 c2		 add	 eax, edx
  00026	89 41 0c	 mov	 DWORD PTR [ecx+12], eax

; 31   : 	m_lpBufCur	= m_lpBufStart;
; 32   : }

  00029	8b c1		 mov	 eax, ecx
  0002b	89 51 08	 mov	 DWORD PTR [ecx+8], edx
  0002e	5b		 pop	 ebx
  0002f	5d		 pop	 ebp
  00030	c2 08 00	 ret	 8
??0CAr@@QAE@PAXI@Z ENDP					; CAr::CAr
_TEXT	ENDS
; Function compile flags: /Ogtp
; File C:\Program Files\Microsoft Visual Studio\2022\Professional\VC\Tools\MSVC\14.44.35207\include\xstring
;	COMDAT ?_Xlen_string@std@@YAXXZ
_TEXT	SEGMENT
?_Xlen_string@std@@YAXXZ PROC				; std::_Xlen_string, COMDAT

; 531  :     _Xlength_error("string too long");

  00000	68 00 00 00 00	 push	 OFFSET ??_C@_0BA@JFNIOLAK@string?5too?5long@
  00005	e8 00 00 00 00	 call	 ?_Xlength_error@std@@YAXPBD@Z ; std::_Xlength_error
$LN3@Xlen_strin:
  0000a	cc		 int	 3
?_Xlen_string@std@@YAXXZ ENDP				; std::_Xlen_string
_TEXT	ENDS
; Function compile flags: /Ogtp
; File C:\Program Files\Microsoft Visual Studio\2022\Professional\VC\Tools\MSVC\14.44.35207\include\xmemory
;	COMDAT ?_Throw_bad_array_new_length@std@@YAXXZ
_TEXT	SEGMENT
$T1 = -12						; size = 12
?_Throw_bad_array_new_length@std@@YAXXZ PROC		; std::_Throw_bad_array_new_length, COMDAT

; 107  : [[noreturn]] inline void _Throw_bad_array_new_length() {

  00000	55		 push	 ebp
  00001	8b ec		 mov	 ebp, esp
  00003	83 ec 0c	 sub	 esp, 12			; 0000000cH

; 108  :     _THROW(bad_array_new_length{});

  00006	8d 4d f4	 lea	 ecx, DWORD PTR $T1[ebp]
  00009	e8 00 00 00 00	 call	 ??0bad_array_new_length@std@@QAE@XZ ; std::bad_array_new_length::bad_array_new_length
  0000e	68 00 00 00 00	 push	 OFFSET __TI3?AVbad_array_new_length@std@@
  00013	8d 45 f4	 lea	 eax, DWORD PTR $T1[ebp]
  00016	50		 push	 eax
  00017	e8 00 00 00 00	 call	 __CxxThrowException@8
$LN3@Throw_bad_:
  0001c	cc		 int	 3
?_Throw_bad_array_new_length@std@@YAXXZ ENDP		; std::_Throw_bad_array_new_length
_TEXT	ENDS
; Function compile flags: /Ogtp
; File C:\Program Files\Microsoft Visual Studio\2022\Professional\VC\Tools\MSVC\14.44.35207\include\vcruntime_exception.h
;	COMDAT ??_Gbad_array_new_length@std@@UAEPAXI@Z
_TEXT	SEGMENT
___flags$ = 8						; size = 4
??_Gbad_array_new_length@std@@UAEPAXI@Z PROC		; std::bad_array_new_length::`scalar deleting destructor', COMDAT
; _this$ = ecx
  00000	55		 push	 ebp
  00001	8b ec		 mov	 ebp, esp

; 90   :     {

  00003	56		 push	 esi
  00004	8b f1		 mov	 esi, ecx

; 91   :         __std_exception_destroy(&_Data);

  00006	8d 46 04	 lea	 eax, DWORD PTR [esi+4]
  00009	c7 06 00 00 00
	00		 mov	 DWORD PTR [esi], OFFSET ??_7exception@std@@6B@
  0000f	50		 push	 eax
  00010	e8 00 00 00 00	 call	 ___std_exception_destroy
  00015	83 c4 04	 add	 esp, 4
  00018	f6 45 08 01	 test	 BYTE PTR ___flags$[ebp], 1
  0001c	74 0b		 je	 SHORT $LN18@scalar
  0001e	6a 0c		 push	 12			; 0000000cH
  00020	56		 push	 esi
  00021	e8 00 00 00 00	 call	 ??3@YAXPAXI@Z		; operator delete
  00026	83 c4 08	 add	 esp, 8
$LN18@scalar:
  00029	8b c6		 mov	 eax, esi
  0002b	5e		 pop	 esi
  0002c	5d		 pop	 ebp
  0002d	c2 04 00	 ret	 4
??_Gbad_array_new_length@std@@UAEPAXI@Z ENDP		; std::bad_array_new_length::`scalar deleting destructor'
_TEXT	ENDS
; Function compile flags: /Ogtp
; File C:\Program Files\Microsoft Visual Studio\2022\Professional\VC\Tools\MSVC\14.44.35207\include\vcruntime_exception.h
;	COMDAT ??0bad_array_new_length@std@@QAE@ABV01@@Z
_TEXT	SEGMENT
___that$ = 8						; size = 4
??0bad_array_new_length@std@@QAE@ABV01@@Z PROC		; std::bad_array_new_length::bad_array_new_length, COMDAT
; _this$ = ecx
  00000	55		 push	 ebp
  00001	8b ec		 mov	 ebp, esp

; 73   :     {

  00003	56		 push	 esi
  00004	8b f1		 mov	 esi, ecx
  00006	0f 57 c0	 xorps	 xmm0, xmm0

; 72   :         : _Data()

  00009	8d 46 04	 lea	 eax, DWORD PTR [esi+4]

; 74   :         __std_exception_copy(&_Other._Data, &_Data);

  0000c	50		 push	 eax
  0000d	c7 06 00 00 00
	00		 mov	 DWORD PTR [esi], OFFSET ??_7exception@std@@6B@
  00013	66 0f d6 00	 movq	 QWORD PTR [eax], xmm0
  00017	8b 45 08	 mov	 eax, DWORD PTR ___that$[ebp]
  0001a	83 c0 04	 add	 eax, 4
  0001d	50		 push	 eax
  0001e	e8 00 00 00 00	 call	 ___std_exception_copy
  00023	83 c4 08	 add	 esp, 8
  00026	c7 06 00 00 00
	00		 mov	 DWORD PTR [esi], OFFSET ??_7bad_array_new_length@std@@6B@
  0002c	8b c6		 mov	 eax, esi
  0002e	5e		 pop	 esi
  0002f	5d		 pop	 ebp
  00030	c2 04 00	 ret	 4
??0bad_array_new_length@std@@QAE@ABV01@@Z ENDP		; std::bad_array_new_length::bad_array_new_length
_TEXT	ENDS
; Function compile flags: /Ogtp
; File C:\Program Files\Microsoft Visual Studio\2022\Professional\VC\Tools\MSVC\14.44.35207\include\vcruntime_exception.h
;	COMDAT ??1bad_array_new_length@std@@UAE@XZ
_TEXT	SEGMENT
??1bad_array_new_length@std@@UAE@XZ PROC		; std::bad_array_new_length::~bad_array_new_length, COMDAT
; _this$ = ecx

; 91   :         __std_exception_destroy(&_Data);

  00000	8d 41 04	 lea	 eax, DWORD PTR [ecx+4]
  00003	c7 01 00 00 00
	00		 mov	 DWORD PTR [ecx], OFFSET ??_7exception@std@@6B@
  00009	50		 push	 eax
  0000a	e8 00 00 00 00	 call	 ___std_exception_destroy
  0000f	59		 pop	 ecx
  00010	c3		 ret	 0
??1bad_array_new_length@std@@UAE@XZ ENDP		; std::bad_array_new_length::~bad_array_new_length
_TEXT	ENDS
; Function compile flags: /Ogtp
; File C:\Program Files\Microsoft Visual Studio\2022\Professional\VC\Tools\MSVC\14.44.35207\include\vcruntime_exception.h
;	COMDAT ??0bad_array_new_length@std@@QAE@XZ
_TEXT	SEGMENT
??0bad_array_new_length@std@@QAE@XZ PROC		; std::bad_array_new_length::bad_array_new_length, COMDAT
; _this$ = ecx

; 144  :     {

  00000	0f 57 c0	 xorps	 xmm0, xmm0

; 145  :     }

  00003	8b c1		 mov	 eax, ecx

; 66   :         : _Data()

  00005	66 0f d6 41 04	 movq	 QWORD PTR [ecx+4], xmm0

; 67   :     {
; 68   :         _Data._What = _Message;

  0000a	c7 41 04 00 00
	00 00		 mov	 DWORD PTR [ecx+4], OFFSET ??_C@_0BF@KINCDENJ@bad?5array?5new?5length@

; 144  :     {

  00011	c7 01 00 00 00
	00		 mov	 DWORD PTR [ecx], OFFSET ??_7bad_array_new_length@std@@6B@

; 145  :     }

  00017	c3		 ret	 0
??0bad_array_new_length@std@@QAE@XZ ENDP		; std::bad_array_new_length::bad_array_new_length
_TEXT	ENDS
; Function compile flags: /Ogtp
; File C:\Program Files\Microsoft Visual Studio\2022\Professional\VC\Tools\MSVC\14.44.35207\include\vcruntime_exception.h
;	COMDAT ??_Gbad_alloc@std@@UAEPAXI@Z
_TEXT	SEGMENT
___flags$ = 8						; size = 4
??_Gbad_alloc@std@@UAEPAXI@Z PROC			; std::bad_alloc::`scalar deleting destructor', COMDAT
; _this$ = ecx
  00000	55		 push	 ebp
  00001	8b ec		 mov	 ebp, esp

; 90   :     {

  00003	56		 push	 esi
  00004	8b f1		 mov	 esi, ecx

; 91   :         __std_exception_destroy(&_Data);

  00006	8d 46 04	 lea	 eax, DWORD PTR [esi+4]
  00009	c7 06 00 00 00
	00		 mov	 DWORD PTR [esi], OFFSET ??_7exception@std@@6B@
  0000f	50		 push	 eax
  00010	e8 00 00 00 00	 call	 ___std_exception_destroy
  00015	83 c4 04	 add	 esp, 4
  00018	f6 45 08 01	 test	 BYTE PTR ___flags$[ebp], 1
  0001c	74 0b		 je	 SHORT $LN13@scalar
  0001e	6a 0c		 push	 12			; 0000000cH
  00020	56		 push	 esi
  00021	e8 00 00 00 00	 call	 ??3@YAXPAXI@Z		; operator delete
  00026	83 c4 08	 add	 esp, 8
$LN13@scalar:
  00029	8b c6		 mov	 eax, esi
  0002b	5e		 pop	 esi
  0002c	5d		 pop	 ebp
  0002d	c2 04 00	 ret	 4
??_Gbad_alloc@std@@UAEPAXI@Z ENDP			; std::bad_alloc::`scalar deleting destructor'
_TEXT	ENDS
; Function compile flags: /Ogtp
; File C:\Program Files\Microsoft Visual Studio\2022\Professional\VC\Tools\MSVC\14.44.35207\include\vcruntime_exception.h
;	COMDAT ??0bad_alloc@std@@QAE@ABV01@@Z
_TEXT	SEGMENT
___that$ = 8						; size = 4
??0bad_alloc@std@@QAE@ABV01@@Z PROC			; std::bad_alloc::bad_alloc, COMDAT
; _this$ = ecx
  00000	55		 push	 ebp
  00001	8b ec		 mov	 ebp, esp

; 73   :     {

  00003	56		 push	 esi
  00004	8b f1		 mov	 esi, ecx
  00006	0f 57 c0	 xorps	 xmm0, xmm0

; 72   :         : _Data()

  00009	8d 46 04	 lea	 eax, DWORD PTR [esi+4]

; 74   :         __std_exception_copy(&_Other._Data, &_Data);

  0000c	50		 push	 eax
  0000d	c7 06 00 00 00
	00		 mov	 DWORD PTR [esi], OFFSET ??_7exception@std@@6B@
  00013	66 0f d6 00	 movq	 QWORD PTR [eax], xmm0
  00017	8b 45 08	 mov	 eax, DWORD PTR ___that$[ebp]
  0001a	83 c0 04	 add	 eax, 4
  0001d	50		 push	 eax
  0001e	e8 00 00 00 00	 call	 ___std_exception_copy
  00023	83 c4 08	 add	 esp, 8
  00026	c7 06 00 00 00
	00		 mov	 DWORD PTR [esi], OFFSET ??_7bad_alloc@std@@6B@
  0002c	8b c6		 mov	 eax, esi
  0002e	5e		 pop	 esi
  0002f	5d		 pop	 ebp
  00030	c2 04 00	 ret	 4
??0bad_alloc@std@@QAE@ABV01@@Z ENDP			; std::bad_alloc::bad_alloc
_TEXT	ENDS
; Function compile flags: /Ogtp
; File C:\Program Files\Microsoft Visual Studio\2022\Professional\VC\Tools\MSVC\14.44.35207\include\vcruntime_exception.h
;	COMDAT ??_Gexception@std@@UAEPAXI@Z
_TEXT	SEGMENT
___flags$ = 8						; size = 4
??_Gexception@std@@UAEPAXI@Z PROC			; std::exception::`scalar deleting destructor', COMDAT
; _this$ = ecx
  00000	55		 push	 ebp
  00001	8b ec		 mov	 ebp, esp

; 90   :     {

  00003	56		 push	 esi
  00004	8b f1		 mov	 esi, ecx

; 91   :         __std_exception_destroy(&_Data);

  00006	8d 46 04	 lea	 eax, DWORD PTR [esi+4]
  00009	c7 06 00 00 00
	00		 mov	 DWORD PTR [esi], OFFSET ??_7exception@std@@6B@
  0000f	50		 push	 eax
  00010	e8 00 00 00 00	 call	 ___std_exception_destroy
  00015	83 c4 04	 add	 esp, 4
  00018	f6 45 08 01	 test	 BYTE PTR ___flags$[ebp], 1
  0001c	74 0b		 je	 SHORT $LN8@scalar
  0001e	6a 0c		 push	 12			; 0000000cH
  00020	56		 push	 esi
  00021	e8 00 00 00 00	 call	 ??3@YAXPAXI@Z		; operator delete
  00026	83 c4 08	 add	 esp, 8
$LN8@scalar:
  00029	8b c6		 mov	 eax, esi
  0002b	5e		 pop	 esi
  0002c	5d		 pop	 ebp
  0002d	c2 04 00	 ret	 4
??_Gexception@std@@UAEPAXI@Z ENDP			; std::exception::`scalar deleting destructor'
_TEXT	ENDS
; Function compile flags: /Ogtp
; File C:\Program Files\Microsoft Visual Studio\2022\Professional\VC\Tools\MSVC\14.44.35207\include\vcruntime_exception.h
;	COMDAT ?what@exception@std@@UBEPBDXZ
_TEXT	SEGMENT
?what@exception@std@@UBEPBDXZ PROC			; std::exception::what, COMDAT
; _this$ = ecx

; 96   :         return _Data._What ? _Data._What : "Unknown exception";

  00000	8b 49 04	 mov	 ecx, DWORD PTR [ecx+4]
  00003	b8 00 00 00 00	 mov	 eax, OFFSET ??_C@_0BC@EOODALEL@Unknown?5exception@
  00008	85 c9		 test	 ecx, ecx
  0000a	0f 45 c1	 cmovne	 eax, ecx

; 97   :     }

  0000d	c3		 ret	 0
?what@exception@std@@UBEPBDXZ ENDP			; std::exception::what
_TEXT	ENDS
; Function compile flags: /Ogtp
; File C:\Program Files\Microsoft Visual Studio\2022\Professional\VC\Tools\MSVC\14.44.35207\include\vcruntime_exception.h
;	COMDAT ??1exception@std@@UAE@XZ
_TEXT	SEGMENT
??1exception@std@@UAE@XZ PROC				; std::exception::~exception, COMDAT
; _this$ = ecx

; 91   :         __std_exception_destroy(&_Data);

  00000	8d 41 04	 lea	 eax, DWORD PTR [ecx+4]
  00003	c7 01 00 00 00
	00		 mov	 DWORD PTR [ecx], OFFSET ??_7exception@std@@6B@
  00009	50		 push	 eax
  0000a	e8 00 00 00 00	 call	 ___std_exception_destroy
  0000f	59		 pop	 ecx

; 92   :     }

  00010	c3		 ret	 0
??1exception@std@@UAE@XZ ENDP				; std::exception::~exception
_TEXT	ENDS
; Function compile flags: /Ogtp
; File C:\Program Files\Microsoft Visual Studio\2022\Professional\VC\Tools\MSVC\14.44.35207\include\vcruntime_exception.h
;	COMDAT ??0exception@std@@QAE@ABV01@@Z
_TEXT	SEGMENT
__Other$ = 8						; size = 4
??0exception@std@@QAE@ABV01@@Z PROC			; std::exception::exception, COMDAT
; _this$ = ecx

; 73   :     {

  00000	55		 push	 ebp
  00001	8b ec		 mov	 ebp, esp
  00003	56		 push	 esi
  00004	8b f1		 mov	 esi, ecx
  00006	0f 57 c0	 xorps	 xmm0, xmm0
  00009	8d 46 04	 lea	 eax, DWORD PTR [esi+4]

; 74   :         __std_exception_copy(&_Other._Data, &_Data);

  0000c	50		 push	 eax
  0000d	c7 06 00 00 00
	00		 mov	 DWORD PTR [esi], OFFSET ??_7exception@std@@6B@
  00013	66 0f d6 00	 movq	 QWORD PTR [eax], xmm0
  00017	8b 45 08	 mov	 eax, DWORD PTR __Other$[ebp]
  0001a	83 c0 04	 add	 eax, 4
  0001d	50		 push	 eax
  0001e	e8 00 00 00 00	 call	 ___std_exception_copy
  00023	83 c4 08	 add	 esp, 8

; 75   :     }

  00026	8b c6		 mov	 eax, esi
  00028	5e		 pop	 esi
  00029	5d		 pop	 ebp
  0002a	c2 04 00	 ret	 4
??0exception@std@@QAE@ABV01@@Z ENDP			; std::exception::exception
_TEXT	ENDS
; Function compile flags: /Ogtp
; File C:\IAGOS\server\v18\Source\Source\_network\misc\src\ar.cpp
;	COMDAT ?__empty_global_delete@@YAXPAXI@Z
_TEXT	SEGMENT
___formal$ = 8						; size = 4
___formal$ = 12						; size = 4
?__empty_global_delete@@YAXPAXI@Z PROC			; __empty_global_delete, COMDAT

  00000	c2 00 00	 ret	 0
?__empty_global_delete@@YAXPAXI@Z ENDP			; __empty_global_delete
_TEXT	ENDS
; Function compile flags: /Ogtp
; File C:\IAGOS\server\v18\Source\Source\_network\misc\src\ar.cpp
;	COMDAT ?__empty_global_delete@@YAXPAX@Z
_TEXT	SEGMENT
___formal$ = 8						; size = 4
?__empty_global_delete@@YAXPAX@Z PROC			; __empty_global_delete, COMDAT

  00000	c2 00 00	 ret	 0
?__empty_global_delete@@YAXPAX@Z ENDP			; __empty_global_delete
_TEXT	ENDS
END
