; Listing generated by Microsoft (R) Optimizing Compiler Version 19.44.35225.0 

	TITLE	C:\IAGOS\server\v18\Source\Output\DatabaseServer\Release\buffer.obj
	.686P
	.XMM
	include listing.inc
	.model	flat

INCLUDELIB LIBCMT
INCLUDELIB OLDNAMES

PUBLIC	?__empty_global_delete@@YAXPAX@Z		; __empty_global_delete
PUBLIC	?__empty_global_delete@@YAXPAXI@Z		; __empty_global_delete
PUBLIC	??0exception@std@@QAE@ABV01@@Z			; std::exception::exception
PUBLIC	??1exception@std@@UAE@XZ			; std::exception::~exception
PUBLIC	?what@exception@std@@UBEPBDXZ			; std::exception::what
PUBLIC	??_Gexception@std@@UAEPAXI@Z			; std::exception::`scalar deleting destructor'
PUBLIC	??0bad_alloc@std@@QAE@ABV01@@Z			; std::bad_alloc::bad_alloc
PUBLIC	??_Gbad_alloc@std@@UAEPAXI@Z			; std::bad_alloc::`scalar deleting destructor'
PUBLIC	??0bad_array_new_length@std@@QAE@XZ		; std::bad_array_new_length::bad_array_new_length
PUBLIC	??1bad_array_new_length@std@@UAE@XZ		; std::bad_array_new_length::~bad_array_new_length
PUBLIC	??0bad_array_new_length@std@@QAE@ABV01@@Z	; std::bad_array_new_length::bad_array_new_length
PUBLIC	??_Gbad_array_new_length@std@@UAEPAXI@Z		; std::bad_array_new_length::`scalar deleting destructor'
PUBLIC	?_Throw_bad_array_new_length@std@@YAXXZ		; std::_Throw_bad_array_new_length
PUBLIC	??1CMclCritSec@@UAE@XZ				; CMclCritSec::~CMclCritSec
PUBLIC	??_GCMclCritSec@@UAEPAXI@Z			; CMclCritSec::`scalar deleting destructor'
PUBLIC	??1?$list@PAXV?$allocator@PAX@std@@@std@@QAE@XZ	; std::list<void *,std::allocator<void *> >::~list<void *,std::allocator<void *> >
PUBLIC	?push_back@?$list@PAXV?$allocator@PAX@std@@@std@@QAEXABQAX@Z ; std::list<void *,std::allocator<void *> >::push_back
PUBLIC	??0CBuffer@@QAE@K@Z				; CBuffer::CBuffer
PUBLIC	??1CBuffer@@UAE@XZ				; CBuffer::~CBuffer
PUBLIC	?GetPacketSize@CBuffer@@UAEKPAE@Z		; CBuffer::GetPacketSize
PUBLIC	?SetHeader@CBuffer@@UAEXK@Z			; CBuffer::SetHeader
PUBLIC	??3CBuffer@@SAXPAX@Z				; CBuffer::operator delete
PUBLIC	??_GCBuffer@@UAEPAXI@Z				; CBuffer::`scalar deleting destructor'
PUBLIC	?Create@?$MemPooler@VCBuffer@@@@IAEXXZ		; MemPooler<CBuffer>::Create
PUBLIC	?GetPacketSize@CBuffer2@@UAEKPAE@Z		; CBuffer2::GetPacketSize
PUBLIC	?SetHeader@CBuffer2@@UAEXK@Z			; CBuffer2::SetHeader
PUBLIC	??3CBuffer2@@SAXPAX@Z				; CBuffer2::operator delete
PUBLIC	??_GCBuffer2@@UAEPAXI@Z				; CBuffer2::`scalar deleting destructor'
PUBLIC	?Create@?$MemPooler@VCBuffer2@@@@IAEXXZ		; MemPooler<CBuffer2>::Create
PUBLIC	??0CBufferQueue@@QAE@XZ				; CBufferQueue::CBufferQueue
PUBLIC	??1CBufferQueue@@UAE@XZ				; CBufferQueue::~CBufferQueue
PUBLIC	?AddTail@CBufferQueue@@QAEXPAVCBuffer@@@Z	; CBufferQueue::AddTail
PUBLIC	?Clear@CBufferQueue@@QAEXH@Z			; CBufferQueue::Clear
PUBLIC	?AddData@CBufferQueue@@QAEXPAEKW4BUFFER_TYPE@@@Z ; CBufferQueue::AddData
PUBLIC	?GetData@CBufferQueue@@QAEXPAU_WSABUF@@PAK@Z	; CBufferQueue::GetData
PUBLIC	?RemoveData@CBufferQueue@@QAEXK@Z		; CBufferQueue::RemoveData
PUBLIC	??_GCBufferQueue@@UAEPAXI@Z			; CBufferQueue::`scalar deleting destructor'
PUBLIC	?CreateBuffer@CBufferFactory@@QAEPAVCBuffer@@W4BUFFER_TYPE@@K@Z ; CBufferFactory::CreateBuffer
PUBLIC	?GetInstance@CBufferFactory@@SAAAV1@XZ		; CBufferFactory::GetInstance
PUBLIC	??0CBufferFactory@@AAE@XZ			; CBufferFactory::CBufferFactory
PUBLIC	??1?$_Alloc_construct_ptr@V?$allocator@U?$_List_node@PAXPAX@std@@@std@@@std@@QAE@XZ ; std::_Alloc_construct_ptr<std::allocator<std::_List_node<void *,void *> > >::~_Alloc_construct_ptr<std::allocator<std::_List_node<void *,void *> > >
PUBLIC	??$_Allocate_manually_vector_aligned@U_Default_allocate_traits@std@@@std@@YAPAXI@Z ; std::_Allocate_manually_vector_aligned<std::_Default_allocate_traits>
PUBLIC	??_7exception@std@@6B@				; std::exception::`vftable'
PUBLIC	??_C@_0BC@EOODALEL@Unknown?5exception@		; `string'
PUBLIC	??_7bad_alloc@std@@6B@				; std::bad_alloc::`vftable'
PUBLIC	??_7bad_array_new_length@std@@6B@		; std::bad_array_new_length::`vftable'
PUBLIC	??_C@_0BF@KINCDENJ@bad?5array?5new?5length@	; `string'
PUBLIC	??_R0?AVexception@std@@@8			; std::exception `RTTI Type Descriptor'
PUBLIC	__CT??_R0?AVexception@std@@@8??0exception@std@@QAE@ABV01@@Z12
PUBLIC	__TI3?AVbad_array_new_length@std@@
PUBLIC	__CTA3?AVbad_array_new_length@std@@
PUBLIC	??_R0?AVbad_array_new_length@std@@@8		; std::bad_array_new_length `RTTI Type Descriptor'
PUBLIC	__CT??_R0?AVbad_array_new_length@std@@@8??0bad_array_new_length@std@@QAE@ABV01@@Z12
PUBLIC	??_R0?AVbad_alloc@std@@@8			; std::bad_alloc `RTTI Type Descriptor'
PUBLIC	__CT??_R0?AVbad_alloc@std@@@8??0bad_alloc@std@@QAE@ABV01@@Z12
PUBLIC	??_7CMclCritSec@@6B@				; CMclCritSec::`vftable'
PUBLIC	?m_pHeapMng@CBuffer@@2PAVCHeapMng@@A		; CBuffer::m_pHeapMng
PUBLIC	?m_pPool@CBuffer@@2PAV?$MemPooler@VCBuffer@@@@A	; CBuffer::m_pPool
PUBLIC	??_7CBuffer@@6B@				; CBuffer::`vftable'
PUBLIC	?m_pPool2@CBuffer2@@2PAV?$MemPooler@VCBuffer2@@@@A ; CBuffer2::m_pPool2
PUBLIC	??_7CBuffer2@@6B@				; CBuffer2::`vftable'
PUBLIC	??_7CBufferQueue@@6B@				; CBufferQueue::`vftable'
PUBLIC	??_C@_09PKKCPLIP@bad?5alloc@			; `string'
PUBLIC	??_C@_0O@NKNMEGII@list?5too?5long@		; `string'
PUBLIC	??_R4exception@std@@6B@				; std::exception::`RTTI Complete Object Locator'
PUBLIC	??_R3exception@std@@8				; std::exception::`RTTI Class Hierarchy Descriptor'
PUBLIC	??_R2exception@std@@8				; std::exception::`RTTI Base Class Array'
PUBLIC	??_R1A@?0A@EA@exception@std@@8			; std::exception::`RTTI Base Class Descriptor at (0,-1,0,64)'
PUBLIC	??_R4bad_array_new_length@std@@6B@		; std::bad_array_new_length::`RTTI Complete Object Locator'
PUBLIC	??_R3bad_array_new_length@std@@8		; std::bad_array_new_length::`RTTI Class Hierarchy Descriptor'
PUBLIC	??_R2bad_array_new_length@std@@8		; std::bad_array_new_length::`RTTI Base Class Array'
PUBLIC	??_R1A@?0A@EA@bad_array_new_length@std@@8	; std::bad_array_new_length::`RTTI Base Class Descriptor at (0,-1,0,64)'
PUBLIC	??_R1A@?0A@EA@bad_alloc@std@@8			; std::bad_alloc::`RTTI Base Class Descriptor at (0,-1,0,64)'
PUBLIC	??_R3bad_alloc@std@@8				; std::bad_alloc::`RTTI Class Hierarchy Descriptor'
PUBLIC	??_R2bad_alloc@std@@8				; std::bad_alloc::`RTTI Base Class Array'
PUBLIC	??_R4bad_alloc@std@@6B@				; std::bad_alloc::`RTTI Complete Object Locator'
PUBLIC	??_R4CMclCritSec@@6B@				; CMclCritSec::`RTTI Complete Object Locator'
PUBLIC	??_R0?AVCMclCritSec@@@8				; CMclCritSec `RTTI Type Descriptor'
PUBLIC	??_R3CMclCritSec@@8				; CMclCritSec::`RTTI Class Hierarchy Descriptor'
PUBLIC	??_R2CMclCritSec@@8				; CMclCritSec::`RTTI Base Class Array'
PUBLIC	??_R1A@?0A@EA@CMclCritSec@@8			; CMclCritSec::`RTTI Base Class Descriptor at (0,-1,0,64)'
PUBLIC	??_R4CBuffer2@@6B@				; CBuffer2::`RTTI Complete Object Locator'
PUBLIC	??_R0?AVCBuffer2@@@8				; CBuffer2 `RTTI Type Descriptor'
PUBLIC	??_R3CBuffer2@@8				; CBuffer2::`RTTI Class Hierarchy Descriptor'
PUBLIC	??_R2CBuffer2@@8				; CBuffer2::`RTTI Base Class Array'
PUBLIC	??_R1A@?0A@EA@CBuffer2@@8			; CBuffer2::`RTTI Base Class Descriptor at (0,-1,0,64)'
PUBLIC	??_R1A@?0A@EA@CBuffer@@8			; CBuffer::`RTTI Base Class Descriptor at (0,-1,0,64)'
PUBLIC	??_R0?AVCBuffer@@@8				; CBuffer `RTTI Type Descriptor'
PUBLIC	??_R3CBuffer@@8					; CBuffer::`RTTI Class Hierarchy Descriptor'
PUBLIC	??_R2CBuffer@@8					; CBuffer::`RTTI Base Class Array'
PUBLIC	??_R4CBuffer@@6B@				; CBuffer::`RTTI Complete Object Locator'
PUBLIC	??_R4CBufferQueue@@6B@				; CBufferQueue::`RTTI Complete Object Locator'
PUBLIC	??_R0?AVCBufferQueue@@@8			; CBufferQueue `RTTI Type Descriptor'
PUBLIC	??_R3CBufferQueue@@8				; CBufferQueue::`RTTI Class Hierarchy Descriptor'
PUBLIC	??_R2CBufferQueue@@8				; CBufferQueue::`RTTI Base Class Array'
PUBLIC	??_R1A@?0A@EA@CBufferQueue@@8			; CBufferQueue::`RTTI Base Class Descriptor at (0,-1,0,64)'
EXTRN	??2@YAPAXI@Z:PROC				; operator new
EXTRN	??3@YAXPAXI@Z:PROC				; operator delete
EXTRN	?__global_delete@@YAXPAXI@Z:PROC		; __global_delete
EXTRN	__invoke_watson:PROC
EXTRN	__imp__InitializeCriticalSection@4:PROC
EXTRN	__imp__EnterCriticalSection@4:PROC
EXTRN	__imp__LeaveCriticalSection@4:PROC
EXTRN	__imp__InitializeCriticalSectionAndSpinCount@8:PROC
EXTRN	__imp__DeleteCriticalSection@4:PROC
EXTRN	__imp__VirtualAlloc@16:PROC
EXTRN	__imp__htons@4:PROC
EXTRN	__imp__ntohs@4:PROC
EXTRN	?_Xlength_error@std@@YAXPBD@Z:PROC		; std::_Xlength_error
EXTRN	___std_exception_copy:PROC
EXTRN	___std_exception_destroy:PROC
EXTRN	??_Eexception@std@@UAEPAXI@Z:PROC		; std::exception::`vector deleting destructor'
EXTRN	??_Ebad_alloc@std@@UAEPAXI@Z:PROC		; std::bad_alloc::`vector deleting destructor'
EXTRN	??_Ebad_array_new_length@std@@UAEPAXI@Z:PROC	; std::bad_array_new_length::`vector deleting destructor'
EXTRN	??_ECMclCritSec@@UAEPAXI@Z:PROC			; CMclCritSec::`vector deleting destructor'
EXTRN	?Error@@YAPBDPBDZZ:PROC				; Error
EXTRN	?Malloc@CHeapMng@@QAEPAXI@Z:PROC		; CHeapMng::Malloc
EXTRN	??0CHeapMng@@QAE@XZ:PROC			; CHeapMng::CHeapMng
EXTRN	?Free@CHeapMng@@QAEXPAX@Z:PROC			; CHeapMng::Free
EXTRN	??_ECBuffer@@UAEPAXI@Z:PROC			; CBuffer::`vector deleting destructor'
EXTRN	??_ECBuffer2@@UAEPAXI@Z:PROC			; CBuffer2::`vector deleting destructor'
EXTRN	??_ECBufferQueue@@UAEPAXI@Z:PROC		; CBufferQueue::`vector deleting destructor'
EXTRN	@__security_check_cookie@4:PROC
EXTRN	__CxxThrowException@8:PROC
EXTRN	___CxxFrameHandler3:PROC
EXTRN	_memcpy:PROC
EXTRN	_memset:PROC
EXTRN	??_7type_info@@6B@:QWORD			; type_info::`vftable'
EXTRN	___security_cookie:DWORD
EXTRN	__tls_array:DWORD
EXTRN	__tls_index:DWORD
_BSS	SEGMENT
?m_pHeapMng@CBuffer@@2PAVCHeapMng@@A DD 01H DUP (?)	; CBuffer::m_pHeapMng
?m_pPool@CBuffer@@2PAV?$MemPooler@VCBuffer@@@@A DD 01H DUP (?) ; CBuffer::m_pPool
?m_pPool2@CBuffer2@@2PAV?$MemPooler@VCBuffer2@@@@A DD 01H DUP (?) ; CBuffer2::m_pPool2
_BSS	ENDS
;	COMDAT ?g_factory@?1??GetInstance@CBufferFactory@@SAAAV2@XZ@4V2@A
_BSS	SEGMENT
?g_factory@?1??GetInstance@CBufferFactory@@SAAAV2@XZ@4V2@A DB 01H DUP (?) ; `CBufferFactory::GetInstance'::`2'::g_factory
_BSS	ENDS
CRT$XCU	SEGMENT
??m_pPool2$initializer$@CBuffer2@@2P6AXXZA@@3P6AXXZA DD FLAT:??__E?m_pPool2@CBuffer2@@2PAV?$MemPooler@VCBuffer2@@@@A@@YAXXZ ; ??m_pPool2$initializer$@CBuffer2@@2P6AXXZA@@3P6AXXZA
CRT$XCU	ENDS
;	COMDAT ??_R1A@?0A@EA@CBufferQueue@@8
rdata$r	SEGMENT
??_R1A@?0A@EA@CBufferQueue@@8 DD FLAT:??_R0?AVCBufferQueue@@@8 ; CBufferQueue::`RTTI Base Class Descriptor at (0,-1,0,64)'
	DD	00H
	DD	00H
	DD	0ffffffffH
	DD	00H
	DD	040H
	DD	FLAT:??_R3CBufferQueue@@8
rdata$r	ENDS
;	COMDAT ??_R2CBufferQueue@@8
rdata$r	SEGMENT
??_R2CBufferQueue@@8 DD FLAT:??_R1A@?0A@EA@CBufferQueue@@8 ; CBufferQueue::`RTTI Base Class Array'
rdata$r	ENDS
;	COMDAT ??_R3CBufferQueue@@8
rdata$r	SEGMENT
??_R3CBufferQueue@@8 DD 00H				; CBufferQueue::`RTTI Class Hierarchy Descriptor'
	DD	00H
	DD	01H
	DD	FLAT:??_R2CBufferQueue@@8
rdata$r	ENDS
;	COMDAT ??_R0?AVCBufferQueue@@@8
data$rs	SEGMENT
??_R0?AVCBufferQueue@@@8 DD FLAT:??_7type_info@@6B@	; CBufferQueue `RTTI Type Descriptor'
	DD	00H
	DB	'.?AVCBufferQueue@@', 00H
data$rs	ENDS
;	COMDAT ??_R4CBufferQueue@@6B@
rdata$r	SEGMENT
??_R4CBufferQueue@@6B@ DD 00H				; CBufferQueue::`RTTI Complete Object Locator'
	DD	00H
	DD	00H
	DD	FLAT:??_R0?AVCBufferQueue@@@8
	DD	FLAT:??_R3CBufferQueue@@8
rdata$r	ENDS
;	COMDAT ??_R4CBuffer@@6B@
rdata$r	SEGMENT
??_R4CBuffer@@6B@ DD 00H				; CBuffer::`RTTI Complete Object Locator'
	DD	00H
	DD	00H
	DD	FLAT:??_R0?AVCBuffer@@@8
	DD	FLAT:??_R3CBuffer@@8
rdata$r	ENDS
;	COMDAT ??_R2CBuffer@@8
rdata$r	SEGMENT
??_R2CBuffer@@8 DD FLAT:??_R1A@?0A@EA@CBuffer@@8	; CBuffer::`RTTI Base Class Array'
rdata$r	ENDS
;	COMDAT ??_R3CBuffer@@8
rdata$r	SEGMENT
??_R3CBuffer@@8 DD 00H					; CBuffer::`RTTI Class Hierarchy Descriptor'
	DD	00H
	DD	01H
	DD	FLAT:??_R2CBuffer@@8
rdata$r	ENDS
;	COMDAT ??_R0?AVCBuffer@@@8
data$rs	SEGMENT
??_R0?AVCBuffer@@@8 DD FLAT:??_7type_info@@6B@		; CBuffer `RTTI Type Descriptor'
	DD	00H
	DB	'.?AVCBuffer@@', 00H
data$rs	ENDS
;	COMDAT ??_R1A@?0A@EA@CBuffer@@8
rdata$r	SEGMENT
??_R1A@?0A@EA@CBuffer@@8 DD FLAT:??_R0?AVCBuffer@@@8	; CBuffer::`RTTI Base Class Descriptor at (0,-1,0,64)'
	DD	00H
	DD	00H
	DD	0ffffffffH
	DD	00H
	DD	040H
	DD	FLAT:??_R3CBuffer@@8
rdata$r	ENDS
;	COMDAT ??_R1A@?0A@EA@CBuffer2@@8
rdata$r	SEGMENT
??_R1A@?0A@EA@CBuffer2@@8 DD FLAT:??_R0?AVCBuffer2@@@8	; CBuffer2::`RTTI Base Class Descriptor at (0,-1,0,64)'
	DD	01H
	DD	00H
	DD	0ffffffffH
	DD	00H
	DD	040H
	DD	FLAT:??_R3CBuffer2@@8
rdata$r	ENDS
;	COMDAT ??_R2CBuffer2@@8
rdata$r	SEGMENT
??_R2CBuffer2@@8 DD FLAT:??_R1A@?0A@EA@CBuffer2@@8	; CBuffer2::`RTTI Base Class Array'
	DD	FLAT:??_R1A@?0A@EA@CBuffer@@8
rdata$r	ENDS
;	COMDAT ??_R3CBuffer2@@8
rdata$r	SEGMENT
??_R3CBuffer2@@8 DD 00H					; CBuffer2::`RTTI Class Hierarchy Descriptor'
	DD	00H
	DD	02H
	DD	FLAT:??_R2CBuffer2@@8
rdata$r	ENDS
;	COMDAT ??_R0?AVCBuffer2@@@8
data$rs	SEGMENT
??_R0?AVCBuffer2@@@8 DD FLAT:??_7type_info@@6B@		; CBuffer2 `RTTI Type Descriptor'
	DD	00H
	DB	'.?AVCBuffer2@@', 00H
data$rs	ENDS
;	COMDAT ??_R4CBuffer2@@6B@
rdata$r	SEGMENT
??_R4CBuffer2@@6B@ DD 00H				; CBuffer2::`RTTI Complete Object Locator'
	DD	00H
	DD	00H
	DD	FLAT:??_R0?AVCBuffer2@@@8
	DD	FLAT:??_R3CBuffer2@@8
rdata$r	ENDS
;	COMDAT ??_R1A@?0A@EA@CMclCritSec@@8
rdata$r	SEGMENT
??_R1A@?0A@EA@CMclCritSec@@8 DD FLAT:??_R0?AVCMclCritSec@@@8 ; CMclCritSec::`RTTI Base Class Descriptor at (0,-1,0,64)'
	DD	00H
	DD	00H
	DD	0ffffffffH
	DD	00H
	DD	040H
	DD	FLAT:??_R3CMclCritSec@@8
rdata$r	ENDS
;	COMDAT ??_R2CMclCritSec@@8
rdata$r	SEGMENT
??_R2CMclCritSec@@8 DD FLAT:??_R1A@?0A@EA@CMclCritSec@@8 ; CMclCritSec::`RTTI Base Class Array'
rdata$r	ENDS
;	COMDAT ??_R3CMclCritSec@@8
rdata$r	SEGMENT
??_R3CMclCritSec@@8 DD 00H				; CMclCritSec::`RTTI Class Hierarchy Descriptor'
	DD	00H
	DD	01H
	DD	FLAT:??_R2CMclCritSec@@8
rdata$r	ENDS
;	COMDAT ??_R0?AVCMclCritSec@@@8
data$rs	SEGMENT
??_R0?AVCMclCritSec@@@8 DD FLAT:??_7type_info@@6B@	; CMclCritSec `RTTI Type Descriptor'
	DD	00H
	DB	'.?AVCMclCritSec@@', 00H
data$rs	ENDS
;	COMDAT ??_R4CMclCritSec@@6B@
rdata$r	SEGMENT
??_R4CMclCritSec@@6B@ DD 00H				; CMclCritSec::`RTTI Complete Object Locator'
	DD	00H
	DD	00H
	DD	FLAT:??_R0?AVCMclCritSec@@@8
	DD	FLAT:??_R3CMclCritSec@@8
rdata$r	ENDS
;	COMDAT ??_R4bad_alloc@std@@6B@
rdata$r	SEGMENT
??_R4bad_alloc@std@@6B@ DD 00H				; std::bad_alloc::`RTTI Complete Object Locator'
	DD	00H
	DD	00H
	DD	FLAT:??_R0?AVbad_alloc@std@@@8
	DD	FLAT:??_R3bad_alloc@std@@8
rdata$r	ENDS
;	COMDAT ??_R2bad_alloc@std@@8
rdata$r	SEGMENT
??_R2bad_alloc@std@@8 DD FLAT:??_R1A@?0A@EA@bad_alloc@std@@8 ; std::bad_alloc::`RTTI Base Class Array'
	DD	FLAT:??_R1A@?0A@EA@exception@std@@8
rdata$r	ENDS
;	COMDAT ??_R3bad_alloc@std@@8
rdata$r	SEGMENT
??_R3bad_alloc@std@@8 DD 00H				; std::bad_alloc::`RTTI Class Hierarchy Descriptor'
	DD	00H
	DD	02H
	DD	FLAT:??_R2bad_alloc@std@@8
rdata$r	ENDS
;	COMDAT ??_R1A@?0A@EA@bad_alloc@std@@8
rdata$r	SEGMENT
??_R1A@?0A@EA@bad_alloc@std@@8 DD FLAT:??_R0?AVbad_alloc@std@@@8 ; std::bad_alloc::`RTTI Base Class Descriptor at (0,-1,0,64)'
	DD	01H
	DD	00H
	DD	0ffffffffH
	DD	00H
	DD	040H
	DD	FLAT:??_R3bad_alloc@std@@8
rdata$r	ENDS
;	COMDAT ??_R1A@?0A@EA@bad_array_new_length@std@@8
rdata$r	SEGMENT
??_R1A@?0A@EA@bad_array_new_length@std@@8 DD FLAT:??_R0?AVbad_array_new_length@std@@@8 ; std::bad_array_new_length::`RTTI Base Class Descriptor at (0,-1,0,64)'
	DD	02H
	DD	00H
	DD	0ffffffffH
	DD	00H
	DD	040H
	DD	FLAT:??_R3bad_array_new_length@std@@8
rdata$r	ENDS
;	COMDAT ??_R2bad_array_new_length@std@@8
rdata$r	SEGMENT
??_R2bad_array_new_length@std@@8 DD FLAT:??_R1A@?0A@EA@bad_array_new_length@std@@8 ; std::bad_array_new_length::`RTTI Base Class Array'
	DD	FLAT:??_R1A@?0A@EA@bad_alloc@std@@8
	DD	FLAT:??_R1A@?0A@EA@exception@std@@8
rdata$r	ENDS
;	COMDAT ??_R3bad_array_new_length@std@@8
rdata$r	SEGMENT
??_R3bad_array_new_length@std@@8 DD 00H			; std::bad_array_new_length::`RTTI Class Hierarchy Descriptor'
	DD	00H
	DD	03H
	DD	FLAT:??_R2bad_array_new_length@std@@8
rdata$r	ENDS
;	COMDAT ??_R4bad_array_new_length@std@@6B@
rdata$r	SEGMENT
??_R4bad_array_new_length@std@@6B@ DD 00H		; std::bad_array_new_length::`RTTI Complete Object Locator'
	DD	00H
	DD	00H
	DD	FLAT:??_R0?AVbad_array_new_length@std@@@8
	DD	FLAT:??_R3bad_array_new_length@std@@8
rdata$r	ENDS
;	COMDAT ??_R1A@?0A@EA@exception@std@@8
rdata$r	SEGMENT
??_R1A@?0A@EA@exception@std@@8 DD FLAT:??_R0?AVexception@std@@@8 ; std::exception::`RTTI Base Class Descriptor at (0,-1,0,64)'
	DD	00H
	DD	00H
	DD	0ffffffffH
	DD	00H
	DD	040H
	DD	FLAT:??_R3exception@std@@8
rdata$r	ENDS
;	COMDAT ??_R2exception@std@@8
rdata$r	SEGMENT
??_R2exception@std@@8 DD FLAT:??_R1A@?0A@EA@exception@std@@8 ; std::exception::`RTTI Base Class Array'
rdata$r	ENDS
;	COMDAT ??_R3exception@std@@8
rdata$r	SEGMENT
??_R3exception@std@@8 DD 00H				; std::exception::`RTTI Class Hierarchy Descriptor'
	DD	00H
	DD	01H
	DD	FLAT:??_R2exception@std@@8
rdata$r	ENDS
;	COMDAT ??_R4exception@std@@6B@
rdata$r	SEGMENT
??_R4exception@std@@6B@ DD 00H				; std::exception::`RTTI Complete Object Locator'
	DD	00H
	DD	00H
	DD	FLAT:??_R0?AVexception@std@@@8
	DD	FLAT:??_R3exception@std@@8
rdata$r	ENDS
;	COMDAT ??_C@_0O@NKNMEGII@list?5too?5long@
CONST	SEGMENT
??_C@_0O@NKNMEGII@list?5too?5long@ DB 'list too long', 00H ; `string'
CONST	ENDS
;	COMDAT ??_C@_09PKKCPLIP@bad?5alloc@
CONST	SEGMENT
??_C@_09PKKCPLIP@bad?5alloc@ DB 'bad alloc', 00H	; `string'
CONST	ENDS
;	COMDAT ??_7CBufferQueue@@6B@
CONST	SEGMENT
??_7CBufferQueue@@6B@ DD FLAT:??_R4CBufferQueue@@6B@	; CBufferQueue::`vftable'
	DD	FLAT:??_ECBufferQueue@@UAEPAXI@Z
CONST	ENDS
;	COMDAT ??_7CBuffer2@@6B@
CONST	SEGMENT
??_7CBuffer2@@6B@ DD FLAT:??_R4CBuffer2@@6B@		; CBuffer2::`vftable'
	DD	FLAT:??_ECBuffer2@@UAEPAXI@Z
	DD	FLAT:?GetPacketSize@CBuffer2@@UAEKPAE@Z
	DD	FLAT:?SetHeader@CBuffer2@@UAEXK@Z
CONST	ENDS
;	COMDAT ??_7CBuffer@@6B@
CONST	SEGMENT
??_7CBuffer@@6B@ DD FLAT:??_R4CBuffer@@6B@		; CBuffer::`vftable'
	DD	FLAT:??_ECBuffer@@UAEPAXI@Z
	DD	FLAT:?GetPacketSize@CBuffer@@UAEKPAE@Z
	DD	FLAT:?SetHeader@CBuffer@@UAEXK@Z
CONST	ENDS
;	COMDAT ??_7CMclCritSec@@6B@
CONST	SEGMENT
??_7CMclCritSec@@6B@ DD FLAT:??_R4CMclCritSec@@6B@	; CMclCritSec::`vftable'
	DD	FLAT:??_ECMclCritSec@@UAEPAXI@Z
CONST	ENDS
;	COMDAT __CT??_R0?AVbad_alloc@std@@@8??0bad_alloc@std@@QAE@ABV01@@Z12
xdata$x	SEGMENT
__CT??_R0?AVbad_alloc@std@@@8??0bad_alloc@std@@QAE@ABV01@@Z12 DD 010H
	DD	FLAT:??_R0?AVbad_alloc@std@@@8
	DD	00H
	DD	0ffffffffH
	ORG $+4
	DD	0cH
	DD	FLAT:??0bad_alloc@std@@QAE@ABV01@@Z
xdata$x	ENDS
;	COMDAT ??_R0?AVbad_alloc@std@@@8
data$r	SEGMENT
??_R0?AVbad_alloc@std@@@8 DD FLAT:??_7type_info@@6B@	; std::bad_alloc `RTTI Type Descriptor'
	DD	00H
	DB	'.?AVbad_alloc@std@@', 00H
data$r	ENDS
;	COMDAT __CT??_R0?AVbad_array_new_length@std@@@8??0bad_array_new_length@std@@QAE@ABV01@@Z12
xdata$x	SEGMENT
__CT??_R0?AVbad_array_new_length@std@@@8??0bad_array_new_length@std@@QAE@ABV01@@Z12 DD 00H
	DD	FLAT:??_R0?AVbad_array_new_length@std@@@8
	DD	00H
	DD	0ffffffffH
	ORG $+4
	DD	0cH
	DD	FLAT:??0bad_array_new_length@std@@QAE@ABV01@@Z
xdata$x	ENDS
;	COMDAT ??_R0?AVbad_array_new_length@std@@@8
data$r	SEGMENT
??_R0?AVbad_array_new_length@std@@@8 DD FLAT:??_7type_info@@6B@ ; std::bad_array_new_length `RTTI Type Descriptor'
	DD	00H
	DB	'.?AVbad_array_new_length@std@@', 00H
data$r	ENDS
;	COMDAT __CTA3?AVbad_array_new_length@std@@
xdata$x	SEGMENT
__CTA3?AVbad_array_new_length@std@@ DD 03H
	DD	FLAT:__CT??_R0?AVbad_array_new_length@std@@@8??0bad_array_new_length@std@@QAE@ABV01@@Z12
	DD	FLAT:__CT??_R0?AVbad_alloc@std@@@8??0bad_alloc@std@@QAE@ABV01@@Z12
	DD	FLAT:__CT??_R0?AVexception@std@@@8??0exception@std@@QAE@ABV01@@Z12
xdata$x	ENDS
;	COMDAT __TI3?AVbad_array_new_length@std@@
xdata$x	SEGMENT
__TI3?AVbad_array_new_length@std@@ DD 00H
	DD	FLAT:??1bad_array_new_length@std@@UAE@XZ
	DD	00H
	DD	FLAT:__CTA3?AVbad_array_new_length@std@@
xdata$x	ENDS
;	COMDAT __CT??_R0?AVexception@std@@@8??0exception@std@@QAE@ABV01@@Z12
xdata$x	SEGMENT
__CT??_R0?AVexception@std@@@8??0exception@std@@QAE@ABV01@@Z12 DD 00H
	DD	FLAT:??_R0?AVexception@std@@@8
	DD	00H
	DD	0ffffffffH
	ORG $+4
	DD	0cH
	DD	FLAT:??0exception@std@@QAE@ABV01@@Z
xdata$x	ENDS
;	COMDAT ??_R0?AVexception@std@@@8
data$r	SEGMENT
??_R0?AVexception@std@@@8 DD FLAT:??_7type_info@@6B@	; std::exception `RTTI Type Descriptor'
	DD	00H
	DB	'.?AVexception@std@@', 00H
data$r	ENDS
;	COMDAT ??_C@_0BF@KINCDENJ@bad?5array?5new?5length@
CONST	SEGMENT
??_C@_0BF@KINCDENJ@bad?5array?5new?5length@ DB 'bad array new length', 00H ; `string'
CONST	ENDS
;	COMDAT ??_7bad_array_new_length@std@@6B@
CONST	SEGMENT
??_7bad_array_new_length@std@@6B@ DD FLAT:??_R4bad_array_new_length@std@@6B@ ; std::bad_array_new_length::`vftable'
	DD	FLAT:??_Ebad_array_new_length@std@@UAEPAXI@Z
	DD	FLAT:?what@exception@std@@UBEPBDXZ
CONST	ENDS
;	COMDAT ??_7bad_alloc@std@@6B@
CONST	SEGMENT
??_7bad_alloc@std@@6B@ DD FLAT:??_R4bad_alloc@std@@6B@	; std::bad_alloc::`vftable'
	DD	FLAT:??_Ebad_alloc@std@@UAEPAXI@Z
	DD	FLAT:?what@exception@std@@UBEPBDXZ
CONST	ENDS
;	COMDAT ??_C@_0BC@EOODALEL@Unknown?5exception@
CONST	SEGMENT
??_C@_0BC@EOODALEL@Unknown?5exception@ DB 'Unknown exception', 00H ; `string'
CONST	ENDS
;	COMDAT ??_7exception@std@@6B@
CONST	SEGMENT
??_7exception@std@@6B@ DD FLAT:??_R4exception@std@@6B@	; std::exception::`vftable'
	DD	FLAT:??_Eexception@std@@UAEPAXI@Z
	DD	FLAT:?what@exception@std@@UBEPBDXZ
CONST	ENDS
;	COMDAT xdata$x
xdata$x	SEGMENT
__unwindtable$??__E?m_pHeapMng@CBuffer@@2PAVCHeapMng@@A@@YAXXZ DD 0ffffffffH
	DD	FLAT:__unwindfunclet$??__E?m_pHeapMng@CBuffer@@2PAVCHeapMng@@A@@YAXXZ$0
__ehfuncinfo$??__E?m_pHeapMng@CBuffer@@2PAVCHeapMng@@A@@YAXXZ DD 019930522H
	DD	01H
	DD	FLAT:__unwindtable$??__E?m_pHeapMng@CBuffer@@2PAVCHeapMng@@A@@YAXXZ
	DD	2 DUP(00H)
	DD	2 DUP(00H)
	DD	00H
	DD	01H
xdata$x	ENDS
;	COMDAT xdata$x
xdata$x	SEGMENT
__unwindtable$??__E?m_pPool@CBuffer@@2PAV?$MemPooler@VCBuffer@@@@A@@YAXXZ DD 0ffffffffH
	DD	FLAT:__unwindfunclet$??__E?m_pPool@CBuffer@@2PAV?$MemPooler@VCBuffer@@@@A@@YAXXZ$0
	DD	00H
	DD	FLAT:__unwindfunclet$??__E?m_pPool@CBuffer@@2PAV?$MemPooler@VCBuffer@@@@A@@YAXXZ$1
__ehfuncinfo$??__E?m_pPool@CBuffer@@2PAV?$MemPooler@VCBuffer@@@@A@@YAXXZ DD 019930522H
	DD	02H
	DD	FLAT:__unwindtable$??__E?m_pPool@CBuffer@@2PAV?$MemPooler@VCBuffer@@@@A@@YAXXZ
	DD	2 DUP(00H)
	DD	2 DUP(00H)
	DD	00H
	DD	01H
xdata$x	ENDS
;	COMDAT xdata$x
xdata$x	SEGMENT
__unwindtable$??__E?m_pPool2@CBuffer2@@2PAV?$MemPooler@VCBuffer2@@@@A@@YAXXZ DD 0ffffffffH
	DD	FLAT:__unwindfunclet$??__E?m_pPool2@CBuffer2@@2PAV?$MemPooler@VCBuffer2@@@@A@@YAXXZ$0
	DD	00H
	DD	FLAT:__unwindfunclet$??__E?m_pPool2@CBuffer2@@2PAV?$MemPooler@VCBuffer2@@@@A@@YAXXZ$1
__ehfuncinfo$??__E?m_pPool2@CBuffer2@@2PAV?$MemPooler@VCBuffer2@@@@A@@YAXXZ DD 019930522H
	DD	02H
	DD	FLAT:__unwindtable$??__E?m_pPool2@CBuffer2@@2PAV?$MemPooler@VCBuffer2@@@@A@@YAXXZ
	DD	2 DUP(00H)
	DD	2 DUP(00H)
	DD	00H
	DD	01H
xdata$x	ENDS
;	COMDAT xdata$x
xdata$x	SEGMENT
__unwindtable$??$?0ABQAX@?$_List_node_emplace_op2@V?$allocator@U?$_List_node@PAXPAX@std@@@std@@@std@@QAE@AAV?$allocator@U?$_List_node@PAXPAX@std@@@1@ABQAX@Z DD 0ffffffffH
	DD	FLAT:__unwindfunclet$??$?0ABQAX@?$_List_node_emplace_op2@V?$allocator@U?$_List_node@PAXPAX@std@@@std@@@std@@QAE@AAV?$allocator@U?$_List_node@PAXPAX@std@@@1@ABQAX@Z$0
__ehfuncinfo$??$?0ABQAX@?$_List_node_emplace_op2@V?$allocator@U?$_List_node@PAXPAX@std@@@std@@@std@@QAE@AAV?$allocator@U?$_List_node@PAXPAX@std@@@1@ABQAX@Z DD 019930522H
	DD	01H
	DD	FLAT:__unwindtable$??$?0ABQAX@?$_List_node_emplace_op2@V?$allocator@U?$_List_node@PAXPAX@std@@@std@@@std@@QAE@AAV?$allocator@U?$_List_node@PAXPAX@std@@@1@ABQAX@Z
	DD	2 DUP(00H)
	DD	2 DUP(00H)
	DD	00H
	DD	01H
xdata$x	ENDS
;	COMDAT xdata$x
xdata$x	SEGMENT
__unwindtable$??$_Emplace@ABQAX@?$list@PAXV?$allocator@PAX@std@@@std@@QAEPAU?$_List_node@PAXPAX@1@QAU21@ABQAX@Z DD 0ffffffffH
	DD	FLAT:__unwindfunclet$??$_Emplace@ABQAX@?$list@PAXV?$allocator@PAX@std@@@std@@QAEPAU?$_List_node@PAXPAX@1@QAU21@ABQAX@Z$1
__ehfuncinfo$??$_Emplace@ABQAX@?$list@PAXV?$allocator@PAX@std@@@std@@QAEPAU?$_List_node@PAXPAX@1@QAU21@ABQAX@Z DD 019930522H
	DD	01H
	DD	FLAT:__unwindtable$??$_Emplace@ABQAX@?$list@PAXV?$allocator@PAX@std@@@std@@QAEPAU?$_List_node@PAXPAX@1@QAU21@ABQAX@Z
	DD	2 DUP(00H)
	DD	2 DUP(00H)
	DD	00H
	DD	01H
xdata$x	ENDS
;	COMDAT xdata$x
xdata$x	SEGMENT
__unwindtable$?CreateBuffer@CBufferFactory@@QAEPAVCBuffer@@W4BUFFER_TYPE@@K@Z DD 0ffffffffH
	DD	FLAT:__unwindfunclet$?CreateBuffer@CBufferFactory@@QAEPAVCBuffer@@W4BUFFER_TYPE@@K@Z$0
	DD	0ffffffffH
	DD	FLAT:__unwindfunclet$?CreateBuffer@CBufferFactory@@QAEPAVCBuffer@@W4BUFFER_TYPE@@K@Z$1
__ehfuncinfo$?CreateBuffer@CBufferFactory@@QAEPAVCBuffer@@W4BUFFER_TYPE@@K@Z DD 019930522H
	DD	02H
	DD	FLAT:__unwindtable$?CreateBuffer@CBufferFactory@@QAEPAVCBuffer@@W4BUFFER_TYPE@@K@Z
	DD	2 DUP(00H)
	DD	2 DUP(00H)
	DD	00H
	DD	01H
xdata$x	ENDS
;	COMDAT xdata$x
xdata$x	SEGMENT
__unwindtable$??0?$MemPooler@VCBuffer2@@@@QAE@H@Z DD 0ffffffffH
	DD	FLAT:__unwindfunclet$??0?$MemPooler@VCBuffer2@@@@QAE@H@Z$0
__ehfuncinfo$??0?$MemPooler@VCBuffer2@@@@QAE@H@Z DD 019930522H
	DD	01H
	DD	FLAT:__unwindtable$??0?$MemPooler@VCBuffer2@@@@QAE@H@Z
	DD	2 DUP(00H)
	DD	2 DUP(00H)
	DD	00H
	DD	01H
xdata$x	ENDS
;	COMDAT xdata$x
xdata$x	SEGMENT
__unwindtable$??0?$MemPooler@VCBuffer@@@@QAE@H@Z DD 0ffffffffH
	DD	FLAT:__unwindfunclet$??0?$MemPooler@VCBuffer@@@@QAE@H@Z$0
__ehfuncinfo$??0?$MemPooler@VCBuffer@@@@QAE@H@Z DD 019930522H
	DD	01H
	DD	FLAT:__unwindtable$??0?$MemPooler@VCBuffer@@@@QAE@H@Z
	DD	2 DUP(00H)
	DD	2 DUP(00H)
	DD	00H
	DD	01H
xdata$x	ENDS
;	COMDAT xdata$x
xdata$x	SEGMENT
__ehfuncinfo$??1CBuffer@@UAE@XZ DD 019930522H
	DD	00H
	DD	00H
	DD	2 DUP(00H)
	DD	2 DUP(00H)
	DD	00H
	DD	05H
xdata$x	ENDS
;	COMDAT xdata$x
xdata$x	SEGMENT
__unwindtable$?push_back@?$list@PAXV?$allocator@PAX@std@@@std@@QAEXABQAX@Z DD 0ffffffffH
	DD	FLAT:__unwindfunclet$?push_back@?$list@PAXV?$allocator@PAX@std@@@std@@QAEXABQAX@Z$1
__ehfuncinfo$?push_back@?$list@PAXV?$allocator@PAX@std@@@std@@QAEXABQAX@Z DD 019930522H
	DD	01H
	DD	FLAT:__unwindtable$?push_back@?$list@PAXV?$allocator@PAX@std@@@std@@QAEXABQAX@Z
	DD	2 DUP(00H)
	DD	2 DUP(00H)
	DD	00H
	DD	01H
xdata$x	ENDS
CRT$XCU	SEGMENT
??m_pPool$initializer$@CBuffer@@2P6AXXZA@@3P6AXXZA DD FLAT:??__E?m_pPool@CBuffer@@2PAV?$MemPooler@VCBuffer@@@@A@@YAXXZ ; ??m_pPool$initializer$@CBuffer@@2P6AXXZA@@3P6AXXZA
CRT$XCU	ENDS
CRT$XCU	SEGMENT
??m_pHeapMng$initializer$@CBuffer@@2P6AXXZA@@3P6AXXZA DD FLAT:??__E?m_pHeapMng@CBuffer@@2PAVCHeapMng@@A@@YAXXZ ; ??m_pHeapMng$initializer$@CBuffer@@2P6AXXZA@@3P6AXXZA
CRT$XCU	ENDS
; Function compile flags: /Ogtp
; File C:\IAGOS\server\v18\Source\Source\_network\net\src\buffer.cpp
;	COMDAT ??__E?m_pHeapMng@CBuffer@@2PAVCHeapMng@@A@@YAXXZ
text$di	SEGMENT
$T2 = -16						; size = 4
__$EHRec$ = -12						; size = 12
??__E?m_pHeapMng@CBuffer@@2PAVCHeapMng@@A@@YAXXZ PROC	; `dynamic initializer for 'CBuffer::m_pHeapMng'', COMDAT

; 34   : CHeapMng*	CBuffer::m_pHeapMng		= new CHeapMng;

  00000	55		 push	 ebp
  00001	8b ec		 mov	 ebp, esp
  00003	6a ff		 push	 -1
  00005	68 00 00 00 00	 push	 __ehhandler$??__E?m_pHeapMng@CBuffer@@2PAVCHeapMng@@A@@YAXXZ
  0000a	64 a1 00 00 00
	00		 mov	 eax, DWORD PTR fs:0
  00010	50		 push	 eax
  00011	51		 push	 ecx
  00012	a1 00 00 00 00	 mov	 eax, DWORD PTR ___security_cookie
  00017	33 c5		 xor	 eax, ebp
  00019	50		 push	 eax
  0001a	8d 45 f4	 lea	 eax, DWORD PTR __$EHRec$[ebp]
  0001d	64 a3 00 00 00
	00		 mov	 DWORD PTR fs:0, eax
  00023	6a 08		 push	 8
  00025	e8 00 00 00 00	 call	 ??2@YAPAXI@Z		; operator new
  0002a	83 c4 04	 add	 esp, 4
  0002d	89 45 f0	 mov	 DWORD PTR $T2[ebp], eax
  00030	c7 45 fc 00 00
	00 00		 mov	 DWORD PTR __$EHRec$[ebp+8], 0
  00037	85 c0		 test	 eax, eax
  00039	74 1b		 je	 SHORT $LN3@m_pHeapMng
  0003b	8b c8		 mov	 ecx, eax
  0003d	e8 00 00 00 00	 call	 ??0CHeapMng@@QAE@XZ	; CHeapMng::CHeapMng
  00042	a3 00 00 00 00	 mov	 DWORD PTR ?m_pHeapMng@CBuffer@@2PAVCHeapMng@@A, eax ; CBuffer::m_pHeapMng
  00047	8b 4d f4	 mov	 ecx, DWORD PTR __$EHRec$[ebp]
  0004a	64 89 0d 00 00
	00 00		 mov	 DWORD PTR fs:0, ecx
  00051	59		 pop	 ecx
  00052	8b e5		 mov	 esp, ebp
  00054	5d		 pop	 ebp
  00055	c3		 ret	 0
$LN3@m_pHeapMng:
  00056	c7 05 00 00 00
	00 00 00 00 00	 mov	 DWORD PTR ?m_pHeapMng@CBuffer@@2PAVCHeapMng@@A, 0 ; CBuffer::m_pHeapMng
  00060	8b 4d f4	 mov	 ecx, DWORD PTR __$EHRec$[ebp]
  00063	64 89 0d 00 00
	00 00		 mov	 DWORD PTR fs:0, ecx
  0006a	59		 pop	 ecx
  0006b	8b e5		 mov	 esp, ebp
  0006d	5d		 pop	 ebp
  0006e	c3		 ret	 0
text$di	ENDS
;	COMDAT text$x
text$x	SEGMENT
__unwindfunclet$??__E?m_pHeapMng@CBuffer@@2PAVCHeapMng@@A@@YAXXZ$0:
  00000	6a 08		 push	 8
  00002	8b 45 f0	 mov	 eax, DWORD PTR $T2[ebp]
  00005	50		 push	 eax
  00006	e8 00 00 00 00	 call	 ??3@YAXPAXI@Z		; operator delete
  0000b	83 c4 08	 add	 esp, 8
  0000e	c3		 ret	 0
  0000f	cc		 int	 3
  00010	cc		 int	 3
  00011	cc		 int	 3
  00012	cc		 int	 3
  00013	cc		 int	 3
__ehhandler$??__E?m_pHeapMng@CBuffer@@2PAVCHeapMng@@A@@YAXXZ:
  00014	90		 npad	 1
  00015	90		 npad	 1
  00016	8b 54 24 08	 mov	 edx, DWORD PTR [esp+8]
  0001a	8d 42 0c	 lea	 eax, DWORD PTR [edx+12]
  0001d	8b 4a f8	 mov	 ecx, DWORD PTR [edx-8]
  00020	33 c8		 xor	 ecx, eax
  00022	e8 00 00 00 00	 call	 @__security_check_cookie@4
  00027	b8 00 00 00 00	 mov	 eax, OFFSET __ehfuncinfo$??__E?m_pHeapMng@CBuffer@@2PAVCHeapMng@@A@@YAXXZ
  0002c	e9 00 00 00 00	 jmp	 ___CxxFrameHandler3
text$x	ENDS
??__E?m_pHeapMng@CBuffer@@2PAVCHeapMng@@A@@YAXXZ ENDP	; `dynamic initializer for 'CBuffer::m_pHeapMng''
; Function compile flags: /Ogtp
; File C:\IAGOS\server\v18\Source\Source\_network\net\src\buffer.cpp
; File C:\IAGOS\server\v18\Source\Source\_Network\Misc\Include\mempooler.h
; File C:\Program Files\Microsoft Visual Studio\2022\Professional\VC\Tools\MSVC\14.44.35207\include\xmemory
; File C:\Program Files\Microsoft Visual Studio\2022\Professional\VC\Tools\MSVC\14.44.35207\include\list
; File C:\Program Files\Microsoft Visual Studio\2022\Professional\VC\Tools\MSVC\14.44.35207\include\xmemory
; File C:\Program Files\Microsoft Visual Studio\2022\Professional\VC\Tools\MSVC\14.44.35207\include\list
; File C:\IAGOS\server\v18\Source\Source\_Network\Misc\Include\mempooler.h
; File C:\IAGOS\server\v18\Source\Source\_network\net\src\buffer.cpp
;	COMDAT ??__E?m_pPool@CBuffer@@2PAV?$MemPooler@VCBuffer@@@@A@@YAXXZ
text$di	SEGMENT
$T2 = -16						; size = 4
__$EHRec$ = -12						; size = 12
??__E?m_pPool@CBuffer@@2PAV?$MemPooler@VCBuffer@@@@A@@YAXXZ PROC ; `dynamic initializer for 'CBuffer::m_pPool'', COMDAT

; 26   : MemPooler<CBuffer>*	CBuffer::m_pPool	= new MemPooler<CBuffer>(512);

  00000	55		 push	 ebp
  00001	8b ec		 mov	 ebp, esp
  00003	6a ff		 push	 -1
  00005	68 00 00 00 00	 push	 __ehhandler$??__E?m_pPool@CBuffer@@2PAV?$MemPooler@VCBuffer@@@@A@@YAXXZ
  0000a	64 a1 00 00 00
	00		 mov	 eax, DWORD PTR fs:0
  00010	50		 push	 eax
  00011	51		 push	 ecx
  00012	56		 push	 esi
  00013	a1 00 00 00 00	 mov	 eax, DWORD PTR ___security_cookie
  00018	33 c5		 xor	 eax, ebp
  0001a	50		 push	 eax
  0001b	8d 45 f4	 lea	 eax, DWORD PTR __$EHRec$[ebp]
  0001e	64 a3 00 00 00
	00		 mov	 DWORD PTR fs:0, eax
  00024	68 94 00 00 00	 push	 148			; 00000094H
  00029	e8 00 00 00 00	 call	 ??2@YAPAXI@Z		; operator new
  0002e	8b f0		 mov	 esi, eax
  00030	83 c4 04	 add	 esp, 4
  00033	89 75 f0	 mov	 DWORD PTR $T2[ebp], esi
  00036	c7 45 fc 00 00
	00 00		 mov	 DWORD PTR __$EHRec$[ebp+8], 0
  0003d	85 f6		 test	 esi, esi
  0003f	74 6b		 je	 SHORT $LN3@m_pPool
; File C:\IAGOS\server\v18\Source\Source\_Network\Misc\Include\mempooler.h

; 36   : 													m_pFreeList( NULL ),

  00041	c7 06 00 00 00
	00		 mov	 DWORD PTR [esi], 0
; File C:\Program Files\Microsoft Visual Studio\2022\Professional\VC\Tools\MSVC\14.44.35207\include\xmemory

; 136  :         return ::operator new(_Bytes);

  00047	6a 0c		 push	 12			; 0000000cH
; File C:\Program Files\Microsoft Visual Studio\2022\Professional\VC\Tools\MSVC\14.44.35207\include\list

; 353  :     _List_val() noexcept : _Myhead(), _Mysize(0) {} // initialize data

  00049	c7 46 04 00 00
	00 00		 mov	 DWORD PTR [esi+4], 0
  00050	c7 46 08 00 00
	00 00		 mov	 DWORD PTR [esi+8], 0
; File C:\Program Files\Microsoft Visual Studio\2022\Professional\VC\Tools\MSVC\14.44.35207\include\xmemory

; 136  :         return ::operator new(_Bytes);

  00057	e8 00 00 00 00	 call	 ??2@YAPAXI@Z		; operator new
  0005c	83 c4 04	 add	 esp, 4
; File C:\Program Files\Microsoft Visual Studio\2022\Professional\VC\Tools\MSVC\14.44.35207\include\list

; 1852 :         _Construct_in_place(_Newhead->_Next, _Newhead);

  0005f	89 00		 mov	 DWORD PTR [eax], eax

; 1853 :         _Construct_in_place(_Newhead->_Prev, _Newhead);

  00061	89 40 04	 mov	 DWORD PTR [eax+4], eax

; 1854 :         _Mypair._Myval2._Myhead = _Newhead;

  00064	89 46 04	 mov	 DWORD PTR [esi+4], eax
; File C:\IAGOS\server\v18\Source\Source\_Network\Misc\Include\mempooler.h

; 48   : 			InitializeCriticalSectionAndSpinCount( &m_cs, 2000 );

  00067	68 d0 07 00 00	 push	 2000			; 000007d0H
  0006c	8d 46 18	 lea	 eax, DWORD PTR [esi+24]
  0006f	c6 45 fc 01	 mov	 BYTE PTR __$EHRec$[ebp+8], 1
  00073	50		 push	 eax
  00074	c7 46 0c 00 02
	00 00		 mov	 DWORD PTR [esi+12], 512	; 00000200H
  0007b	c7 46 14 00 00
	00 00		 mov	 DWORD PTR [esi+20], 0
  00082	c7 46 10 2c 20
	00 00		 mov	 DWORD PTR [esi+16], 8236 ; 0000202cH
  00089	ff 15 00 00 00
	00		 call	 DWORD PTR __imp__InitializeCriticalSectionAndSpinCount@8

; 49   : 			Create();

  0008f	8b ce		 mov	 ecx, esi
  00091	e8 00 00 00 00	 call	 ?Create@?$MemPooler@VCBuffer@@@@IAEXXZ ; MemPooler<CBuffer>::Create
; File C:\IAGOS\server\v18\Source\Source\_network\net\src\buffer.cpp

; 26   : MemPooler<CBuffer>*	CBuffer::m_pPool	= new MemPooler<CBuffer>(512);

  00096	89 35 00 00 00
	00		 mov	 DWORD PTR ?m_pPool@CBuffer@@2PAV?$MemPooler@VCBuffer@@@@A, esi ; CBuffer::m_pPool
  0009c	8b 4d f4	 mov	 ecx, DWORD PTR __$EHRec$[ebp]
  0009f	64 89 0d 00 00
	00 00		 mov	 DWORD PTR fs:0, ecx
  000a6	59		 pop	 ecx
  000a7	5e		 pop	 esi
  000a8	8b e5		 mov	 esp, ebp
  000aa	5d		 pop	 ebp
  000ab	c3		 ret	 0
$LN3@m_pPool:
  000ac	c7 05 00 00 00
	00 00 00 00 00	 mov	 DWORD PTR ?m_pPool@CBuffer@@2PAV?$MemPooler@VCBuffer@@@@A, 0 ; CBuffer::m_pPool
  000b6	8b 4d f4	 mov	 ecx, DWORD PTR __$EHRec$[ebp]
  000b9	64 89 0d 00 00
	00 00		 mov	 DWORD PTR fs:0, ecx
  000c0	59		 pop	 ecx
  000c1	5e		 pop	 esi
  000c2	8b e5		 mov	 esp, ebp
  000c4	5d		 pop	 ebp
  000c5	c3		 ret	 0
text$di	ENDS
;	COMDAT text$x
text$x	SEGMENT
__unwindfunclet$??__E?m_pPool@CBuffer@@2PAV?$MemPooler@VCBuffer@@@@A@@YAXXZ$0:
  00000	68 94 00 00 00	 push	 148			; 00000094H
  00005	8b 45 f0	 mov	 eax, DWORD PTR $T2[ebp]
  00008	50		 push	 eax
  00009	e8 00 00 00 00	 call	 ??3@YAXPAXI@Z		; operator delete
  0000e	83 c4 08	 add	 esp, 8
  00011	c3		 ret	 0
__unwindfunclet$??__E?m_pPool@CBuffer@@2PAV?$MemPooler@VCBuffer@@@@A@@YAXXZ$1:
  00012	8b 4d f0	 mov	 ecx, DWORD PTR $T2[ebp]
  00015	83 c1 04	 add	 ecx, 4
  00018	e9 00 00 00 00	 jmp	 ??1?$list@PAXV?$allocator@PAX@std@@@std@@QAE@XZ ; std::list<void *,std::allocator<void *> >::~list<void *,std::allocator<void *> >
  0001d	cc		 int	 3
  0001e	cc		 int	 3
  0001f	cc		 int	 3
  00020	cc		 int	 3
  00021	cc		 int	 3
__ehhandler$??__E?m_pPool@CBuffer@@2PAV?$MemPooler@VCBuffer@@@@A@@YAXXZ:
  00022	90		 npad	 1
  00023	90		 npad	 1
  00024	8b 54 24 08	 mov	 edx, DWORD PTR [esp+8]
  00028	8d 42 0c	 lea	 eax, DWORD PTR [edx+12]
  0002b	8b 4a f4	 mov	 ecx, DWORD PTR [edx-12]
  0002e	33 c8		 xor	 ecx, eax
  00030	e8 00 00 00 00	 call	 @__security_check_cookie@4
  00035	b8 00 00 00 00	 mov	 eax, OFFSET __ehfuncinfo$??__E?m_pPool@CBuffer@@2PAV?$MemPooler@VCBuffer@@@@A@@YAXXZ
  0003a	e9 00 00 00 00	 jmp	 ___CxxFrameHandler3
text$x	ENDS
??__E?m_pPool@CBuffer@@2PAV?$MemPooler@VCBuffer@@@@A@@YAXXZ ENDP ; `dynamic initializer for 'CBuffer::m_pPool''
; Function compile flags: /Ogtp
; File C:\IAGOS\server\v18\Source\Source\_network\net\src\buffer.cpp
; File C:\IAGOS\server\v18\Source\Source\_Network\Misc\Include\mempooler.h
; File C:\Program Files\Microsoft Visual Studio\2022\Professional\VC\Tools\MSVC\14.44.35207\include\xmemory
; File C:\Program Files\Microsoft Visual Studio\2022\Professional\VC\Tools\MSVC\14.44.35207\include\list
; File C:\Program Files\Microsoft Visual Studio\2022\Professional\VC\Tools\MSVC\14.44.35207\include\xmemory
; File C:\Program Files\Microsoft Visual Studio\2022\Professional\VC\Tools\MSVC\14.44.35207\include\list
; File C:\IAGOS\server\v18\Source\Source\_Network\Misc\Include\mempooler.h
; File C:\IAGOS\server\v18\Source\Source\_network\net\src\buffer.cpp
;	COMDAT ??__E?m_pPool2@CBuffer2@@2PAV?$MemPooler@VCBuffer2@@@@A@@YAXXZ
text$di	SEGMENT
$T2 = -16						; size = 4
__$EHRec$ = -12						; size = 12
??__E?m_pPool2@CBuffer2@@2PAV?$MemPooler@VCBuffer2@@@@A@@YAXXZ PROC ; `dynamic initializer for 'CBuffer2::m_pPool2'', COMDAT

; 25   : MemPooler<CBuffer2>*	CBuffer2::m_pPool2	= new MemPooler<CBuffer2>(512);

  00000	55		 push	 ebp
  00001	8b ec		 mov	 ebp, esp
  00003	6a ff		 push	 -1
  00005	68 00 00 00 00	 push	 __ehhandler$??__E?m_pPool2@CBuffer2@@2PAV?$MemPooler@VCBuffer2@@@@A@@YAXXZ
  0000a	64 a1 00 00 00
	00		 mov	 eax, DWORD PTR fs:0
  00010	50		 push	 eax
  00011	51		 push	 ecx
  00012	56		 push	 esi
  00013	a1 00 00 00 00	 mov	 eax, DWORD PTR ___security_cookie
  00018	33 c5		 xor	 eax, ebp
  0001a	50		 push	 eax
  0001b	8d 45 f4	 lea	 eax, DWORD PTR __$EHRec$[ebp]
  0001e	64 a3 00 00 00
	00		 mov	 DWORD PTR fs:0, eax
  00024	68 94 00 00 00	 push	 148			; 00000094H
  00029	e8 00 00 00 00	 call	 ??2@YAPAXI@Z		; operator new
  0002e	8b f0		 mov	 esi, eax
  00030	83 c4 04	 add	 esp, 4
  00033	89 75 f0	 mov	 DWORD PTR $T2[ebp], esi
  00036	c7 45 fc 00 00
	00 00		 mov	 DWORD PTR __$EHRec$[ebp+8], 0
  0003d	85 f6		 test	 esi, esi
  0003f	74 6b		 je	 SHORT $LN3@m_pPool2
; File C:\IAGOS\server\v18\Source\Source\_Network\Misc\Include\mempooler.h

; 36   : 													m_pFreeList( NULL ),

  00041	c7 06 00 00 00
	00		 mov	 DWORD PTR [esi], 0
; File C:\Program Files\Microsoft Visual Studio\2022\Professional\VC\Tools\MSVC\14.44.35207\include\xmemory

; 136  :         return ::operator new(_Bytes);

  00047	6a 0c		 push	 12			; 0000000cH
; File C:\Program Files\Microsoft Visual Studio\2022\Professional\VC\Tools\MSVC\14.44.35207\include\list

; 353  :     _List_val() noexcept : _Myhead(), _Mysize(0) {} // initialize data

  00049	c7 46 04 00 00
	00 00		 mov	 DWORD PTR [esi+4], 0
  00050	c7 46 08 00 00
	00 00		 mov	 DWORD PTR [esi+8], 0
; File C:\Program Files\Microsoft Visual Studio\2022\Professional\VC\Tools\MSVC\14.44.35207\include\xmemory

; 136  :         return ::operator new(_Bytes);

  00057	e8 00 00 00 00	 call	 ??2@YAPAXI@Z		; operator new
  0005c	83 c4 04	 add	 esp, 4
; File C:\Program Files\Microsoft Visual Studio\2022\Professional\VC\Tools\MSVC\14.44.35207\include\list

; 1852 :         _Construct_in_place(_Newhead->_Next, _Newhead);

  0005f	89 00		 mov	 DWORD PTR [eax], eax

; 1853 :         _Construct_in_place(_Newhead->_Prev, _Newhead);

  00061	89 40 04	 mov	 DWORD PTR [eax+4], eax

; 1854 :         _Mypair._Myval2._Myhead = _Newhead;

  00064	89 46 04	 mov	 DWORD PTR [esi+4], eax
; File C:\IAGOS\server\v18\Source\Source\_Network\Misc\Include\mempooler.h

; 48   : 			InitializeCriticalSectionAndSpinCount( &m_cs, 2000 );

  00067	68 d0 07 00 00	 push	 2000			; 000007d0H
  0006c	8d 46 18	 lea	 eax, DWORD PTR [esi+24]
  0006f	c6 45 fc 01	 mov	 BYTE PTR __$EHRec$[ebp+8], 1
  00073	50		 push	 eax
  00074	c7 46 0c 00 02
	00 00		 mov	 DWORD PTR [esi+12], 512	; 00000200H
  0007b	c7 46 14 00 00
	00 00		 mov	 DWORD PTR [esi+20], 0
  00082	c7 46 10 2c 20
	00 00		 mov	 DWORD PTR [esi+16], 8236 ; 0000202cH
  00089	ff 15 00 00 00
	00		 call	 DWORD PTR __imp__InitializeCriticalSectionAndSpinCount@8

; 49   : 			Create();

  0008f	8b ce		 mov	 ecx, esi
  00091	e8 00 00 00 00	 call	 ?Create@?$MemPooler@VCBuffer2@@@@IAEXXZ ; MemPooler<CBuffer2>::Create
; File C:\IAGOS\server\v18\Source\Source\_network\net\src\buffer.cpp

; 25   : MemPooler<CBuffer2>*	CBuffer2::m_pPool2	= new MemPooler<CBuffer2>(512);

  00096	89 35 00 00 00
	00		 mov	 DWORD PTR ?m_pPool2@CBuffer2@@2PAV?$MemPooler@VCBuffer2@@@@A, esi ; CBuffer2::m_pPool2
  0009c	8b 4d f4	 mov	 ecx, DWORD PTR __$EHRec$[ebp]
  0009f	64 89 0d 00 00
	00 00		 mov	 DWORD PTR fs:0, ecx
  000a6	59		 pop	 ecx
  000a7	5e		 pop	 esi
  000a8	8b e5		 mov	 esp, ebp
  000aa	5d		 pop	 ebp
  000ab	c3		 ret	 0
$LN3@m_pPool2:
  000ac	c7 05 00 00 00
	00 00 00 00 00	 mov	 DWORD PTR ?m_pPool2@CBuffer2@@2PAV?$MemPooler@VCBuffer2@@@@A, 0 ; CBuffer2::m_pPool2
  000b6	8b 4d f4	 mov	 ecx, DWORD PTR __$EHRec$[ebp]
  000b9	64 89 0d 00 00
	00 00		 mov	 DWORD PTR fs:0, ecx
  000c0	59		 pop	 ecx
  000c1	5e		 pop	 esi
  000c2	8b e5		 mov	 esp, ebp
  000c4	5d		 pop	 ebp
  000c5	c3		 ret	 0
text$di	ENDS
;	COMDAT text$x
text$x	SEGMENT
__unwindfunclet$??__E?m_pPool2@CBuffer2@@2PAV?$MemPooler@VCBuffer2@@@@A@@YAXXZ$0:
  00000	68 94 00 00 00	 push	 148			; 00000094H
  00005	8b 45 f0	 mov	 eax, DWORD PTR $T2[ebp]
  00008	50		 push	 eax
  00009	e8 00 00 00 00	 call	 ??3@YAXPAXI@Z		; operator delete
  0000e	83 c4 08	 add	 esp, 8
  00011	c3		 ret	 0
__unwindfunclet$??__E?m_pPool2@CBuffer2@@2PAV?$MemPooler@VCBuffer2@@@@A@@YAXXZ$1:
  00012	8b 4d f0	 mov	 ecx, DWORD PTR $T2[ebp]
  00015	83 c1 04	 add	 ecx, 4
  00018	e9 00 00 00 00	 jmp	 ??1?$list@PAXV?$allocator@PAX@std@@@std@@QAE@XZ ; std::list<void *,std::allocator<void *> >::~list<void *,std::allocator<void *> >
  0001d	cc		 int	 3
  0001e	cc		 int	 3
  0001f	cc		 int	 3
  00020	cc		 int	 3
  00021	cc		 int	 3
__ehhandler$??__E?m_pPool2@CBuffer2@@2PAV?$MemPooler@VCBuffer2@@@@A@@YAXXZ:
  00022	90		 npad	 1
  00023	90		 npad	 1
  00024	8b 54 24 08	 mov	 edx, DWORD PTR [esp+8]
  00028	8d 42 0c	 lea	 eax, DWORD PTR [edx+12]
  0002b	8b 4a f4	 mov	 ecx, DWORD PTR [edx-12]
  0002e	33 c8		 xor	 ecx, eax
  00030	e8 00 00 00 00	 call	 @__security_check_cookie@4
  00035	b8 00 00 00 00	 mov	 eax, OFFSET __ehfuncinfo$??__E?m_pPool2@CBuffer2@@2PAV?$MemPooler@VCBuffer2@@@@A@@YAXXZ
  0003a	e9 00 00 00 00	 jmp	 ___CxxFrameHandler3
text$x	ENDS
??__E?m_pPool2@CBuffer2@@2PAV?$MemPooler@VCBuffer2@@@@A@@YAXXZ ENDP ; `dynamic initializer for 'CBuffer2::m_pPool2''
; Function compile flags: /Ogtp
; File C:\Program Files\Microsoft Visual Studio\2022\Professional\VC\Tools\MSVC\14.44.35207\include\xmemory
;	COMDAT ??$_Allocate_manually_vector_aligned@U_Default_allocate_traits@std@@@std@@YAPAXI@Z
_TEXT	SEGMENT
__Bytes$ = 8						; size = 4
??$_Allocate_manually_vector_aligned@U_Default_allocate_traits@std@@@std@@YAPAXI@Z PROC ; std::_Allocate_manually_vector_aligned<std::_Default_allocate_traits>, COMDAT

; 182  : __declspec(allocator) void* _Allocate_manually_vector_aligned(const size_t _Bytes) {

  00000	55		 push	 ebp
  00001	8b ec		 mov	 ebp, esp

; 183  :     // allocate _Bytes manually aligned to at least _Big_allocation_alignment
; 184  :     const size_t _Block_size = _Non_user_size + _Bytes;

  00003	8b 45 08	 mov	 eax, DWORD PTR __Bytes$[ebp]
  00006	8d 48 23	 lea	 ecx, DWORD PTR [eax+35]

; 185  :     if (_Block_size <= _Bytes) {

  00009	3b c8		 cmp	 ecx, eax
  0000b	0f 86 00 00 00
	00		 jbe	 ?_Throw_bad_array_new_length@std@@YAXXZ ; std::_Throw_bad_array_new_length

; 136  :         return ::operator new(_Bytes);

  00011	51		 push	 ecx
  00012	e8 00 00 00 00	 call	 ??2@YAPAXI@Z		; operator new

; 186  :         _Throw_bad_array_new_length(); // add overflow
; 187  :     }
; 188  : 
; 189  :     const uintptr_t _Ptr_container = reinterpret_cast<uintptr_t>(_Traits::_Allocate(_Block_size));

  00017	8b c8		 mov	 ecx, eax

; 136  :         return ::operator new(_Bytes);

  00019	83 c4 04	 add	 esp, 4

; 190  :     _STL_VERIFY(_Ptr_container != 0, "invalid argument"); // validate even in release since we're doing p[-1]

  0001c	85 c9		 test	 ecx, ecx
  0001e	74 0b		 je	 SHORT $LN9@Allocate_m

; 191  :     void* const _Ptr = reinterpret_cast<void*>((_Ptr_container + _Non_user_size) & ~(_Big_allocation_alignment - 1));

  00020	8d 41 23	 lea	 eax, DWORD PTR [ecx+35]
  00023	83 e0 e0	 and	 eax, -32		; ffffffe0H

; 192  :     static_cast<uintptr_t*>(_Ptr)[-1] = _Ptr_container;

  00026	89 48 fc	 mov	 DWORD PTR [eax-4], ecx

; 193  : 
; 194  : #ifdef _DEBUG
; 195  :     static_cast<uintptr_t*>(_Ptr)[-2] = _Big_allocation_sentinel;
; 196  : #endif // defined(_DEBUG)
; 197  :     return _Ptr;
; 198  : }

  00029	5d		 pop	 ebp
  0002a	c3		 ret	 0
$LN9@Allocate_m:

; 190  :     _STL_VERIFY(_Ptr_container != 0, "invalid argument"); // validate even in release since we're doing p[-1]

  0002b	6a 00		 push	 0
  0002d	6a 00		 push	 0
  0002f	6a 00		 push	 0
  00031	6a 00		 push	 0
  00033	6a 00		 push	 0
  00035	e8 00 00 00 00	 call	 __invoke_watson
$LN7@Allocate_m:
  0003a	cc		 int	 3
??$_Allocate_manually_vector_aligned@U_Default_allocate_traits@std@@@std@@YAPAXI@Z ENDP ; std::_Allocate_manually_vector_aligned<std::_Default_allocate_traits>
_TEXT	ENDS
; Function compile flags: /Ogtp
; File C:\Program Files\Microsoft Visual Studio\2022\Professional\VC\Tools\MSVC\14.44.35207\include\xmemory
;	COMDAT ??1?$_Alloc_construct_ptr@V?$allocator@U?$_List_node@PAXPAX@std@@@std@@@std@@QAE@XZ
_TEXT	SEGMENT
??1?$_Alloc_construct_ptr@V?$allocator@U?$_List_node@PAXPAX@std@@@std@@@std@@QAE@XZ PROC ; std::_Alloc_construct_ptr<std::allocator<std::_List_node<void *,void *> > >::~_Alloc_construct_ptr<std::allocator<std::_List_node<void *,void *> > >, COMDAT
; _this$ = ecx

; 1172 :         if (_Ptr) {

  00000	8b 41 04	 mov	 eax, DWORD PTR [ecx+4]
  00003	85 c0		 test	 eax, eax
  00005	74 0b		 je	 SHORT $LN10@Alloc_cons

; 289  :         ::operator delete(_Ptr, _Bytes);

  00007	6a 0c		 push	 12			; 0000000cH
  00009	50		 push	 eax
  0000a	e8 00 00 00 00	 call	 ??3@YAXPAXI@Z		; operator delete
  0000f	83 c4 08	 add	 esp, 8
$LN10@Alloc_cons:

; 1173 :             _Al.deallocate(_Ptr, 1);
; 1174 :         }
; 1175 :     }

  00012	c3		 ret	 0
??1?$_Alloc_construct_ptr@V?$allocator@U?$_List_node@PAXPAX@std@@@std@@@std@@QAE@XZ ENDP ; std::_Alloc_construct_ptr<std::allocator<std::_List_node<void *,void *> > >::~_Alloc_construct_ptr<std::allocator<std::_List_node<void *,void *> > >
_TEXT	ENDS
; Function compile flags: /Ogtp
; File C:\IAGOS\server\v18\Source\Source\_network\net\src\buffer.cpp
;	COMDAT ??0CBufferFactory@@AAE@XZ
_TEXT	SEGMENT
??0CBufferFactory@@AAE@XZ PROC				; CBufferFactory::CBufferFactory, COMDAT
; _this$ = ecx

; 271  : }

  00000	8b c1		 mov	 eax, ecx
  00002	c3		 ret	 0
??0CBufferFactory@@AAE@XZ ENDP				; CBufferFactory::CBufferFactory
_TEXT	ENDS
; Function compile flags: /Ogtp
; File C:\IAGOS\server\v18\Source\Source\_network\net\src\buffer.cpp
;	COMDAT ?GetInstance@CBufferFactory@@SAAAV1@XZ
_TEXT	SEGMENT
?GetInstance@CBufferFactory@@SAAAV1@XZ PROC		; CBufferFactory::GetInstance, COMDAT

; 275  : 	static CBufferFactory g_factory;
; 276  : 	return g_factory;

  00000	b8 00 00 00 00	 mov	 eax, OFFSET ?g_factory@?1??GetInstance@CBufferFactory@@SAAAV2@XZ@4V2@A

; 277  : }

  00005	c3		 ret	 0
?GetInstance@CBufferFactory@@SAAAV1@XZ ENDP		; CBufferFactory::GetInstance
_TEXT	ENDS
; Function compile flags: /Ogtp
; File C:\IAGOS\server\v18\Source\Source\_network\net\src\buffer.cpp
; File C:\IAGOS\server\v18\Source\Source\_Network\Net\Include\buffer.h
; File C:\IAGOS\server\v18\Source\Source\_Network\Misc\Include\mempooler.h
; File C:\IAGOS\server\v18\Source\Source\_network\net\src\buffer.cpp
; File C:\IAGOS\server\v18\Source\Source\_Network\Net\Include\buffer.h
; File C:\IAGOS\server\v18\Source\Source\_network\net\src\buffer.cpp
; File C:\IAGOS\server\v18\Source\Source\_Network\Net\Include\buffer.h
; File C:\IAGOS\server\v18\Source\Source\_network\net\src\buffer.cpp
; File C:\IAGOS\server\v18\Source\Source\_Network\Net\Include\buffer.h
; File C:\IAGOS\server\v18\Source\Source\_Network\Misc\Include\mempooler.h
; File C:\IAGOS\server\v18\Source\Source\_network\net\src\buffer.cpp
;	COMDAT ?CreateBuffer@CBufferFactory@@QAEPAVCBuffer@@W4BUFFER_TYPE@@K@Z
_TEXT	SEGMENT
__$EHRec$ = -12						; size = 12
_type$ = 8						; size = 4
$T2 = 8							; size = 4
$T3 = 8							; size = 4
_uBufSize$ = 12						; size = 4
?CreateBuffer@CBufferFactory@@QAEPAVCBuffer@@W4BUFFER_TYPE@@K@Z PROC ; CBufferFactory::CreateBuffer, COMDAT
; _this$ = ecx

; 280  : {

  00000	55		 push	 ebp
  00001	8b ec		 mov	 ebp, esp
  00003	6a ff		 push	 -1
  00005	68 00 00 00 00	 push	 __ehhandler$?CreateBuffer@CBufferFactory@@QAEPAVCBuffer@@W4BUFFER_TYPE@@K@Z
  0000a	64 a1 00 00 00
	00		 mov	 eax, DWORD PTR fs:0
  00010	50		 push	 eax
  00011	56		 push	 esi
  00012	57		 push	 edi
  00013	a1 00 00 00 00	 mov	 eax, DWORD PTR ___security_cookie
  00018	33 c5		 xor	 eax, ebp
  0001a	50		 push	 eax
  0001b	8d 45 f4	 lea	 eax, DWORD PTR __$EHRec$[ebp]
  0001e	64 a3 00 00 00
	00		 mov	 DWORD PTR fs:0, eax

; 281  : 	CBuffer* pBuffer = NULL;
; 282  : 	switch( type )

  00024	8b 45 08	 mov	 eax, DWORD PTR _type$[ebp]
  00027	83 e8 00	 sub	 eax, 0
  0002a	0f 84 8c 00 00
	00		 je	 $LN4@CreateBuff
  00030	83 e8 01	 sub	 eax, 1
  00033	0f 85 dd 00 00
	00		 jne	 $LN8@CreateBuff
; File C:\IAGOS\server\v18\Source\Source\_Network\Net\Include\buffer.h

; 157  : 	void*	operator new( size_t nSize )	{	return CBuffer2::m_pPool2->Alloc();	}

  00039	8b 35 00 00 00
	00		 mov	 esi, DWORD PTR ?m_pPool2@CBuffer2@@2PAV?$MemPooler@VCBuffer2@@@@A ; CBuffer2::m_pPool2
; File C:\IAGOS\server\v18\Source\Source\_Network\Misc\Include\mempooler.h

; 64   : 			EnterCriticalSection( &m_cs );

  0003f	8d 7e 18	 lea	 edi, DWORD PTR [esi+24]
  00042	57		 push	 edi
  00043	ff 15 00 00 00
	00		 call	 DWORD PTR __imp__EnterCriticalSection@4

; 65   : 
; 66   : 			if( !m_pFreeList )

  00049	83 3e 00	 cmp	 DWORD PTR [esi], 0
  0004c	75 07		 jne	 SHORT $LN22@CreateBuff

; 67   : 				Create();

  0004e	8b ce		 mov	 ecx, esi
  00050	e8 00 00 00 00	 call	 ?Create@?$MemPooler@VCBuffer2@@@@IAEXXZ ; MemPooler<CBuffer2>::Create
$LN22@CreateBuff:

; 68   : 
; 69   : 			pNode	= m_pFreeList;

  00055	8b 0e		 mov	 ecx, DWORD PTR [esi]

; 70   : 			m_pFreeList		= m_pFreeList->pNext;
; 71   : 			m_nAllocCount++;
; 72   : 			lpMem	= reinterpret_cast<T*>( pNode + 1 );
; 73   : 
; 74   : 			LeaveCriticalSection( &m_cs );

  00057	57		 push	 edi
  00058	8b 01		 mov	 eax, DWORD PTR [ecx]
  0005a	ff 46 14	 inc	 DWORD PTR [esi+20]
  0005d	89 06		 mov	 DWORD PTR [esi], eax
  0005f	8d 71 04	 lea	 esi, DWORD PTR [ecx+4]
  00062	ff 15 00 00 00
	00		 call	 DWORD PTR __imp__LeaveCriticalSection@4
; File C:\IAGOS\server\v18\Source\Source\_network\net\src\buffer.cpp

; 288  : 		pBuffer = new CBuffer2( uBufSize );

  00068	89 75 08	 mov	 DWORD PTR $T3[ebp], esi
  0006b	c7 45 fc 01 00
	00 00		 mov	 DWORD PTR __$EHRec$[ebp+8], 1
  00072	85 f6		 test	 esi, esi
  00074	74 2f		 je	 SHORT $LN10@CreateBuff
; File C:\IAGOS\server\v18\Source\Source\_Network\Net\Include\buffer.h

; 131  : 	CBuffer2( u_long uBufSize ) : CBuffer( uBufSize ) 

  00076	ff 75 0c	 push	 DWORD PTR _uBufSize$[ebp]
  00079	8b ce		 mov	 ecx, esi
  0007b	e8 00 00 00 00	 call	 ??0CBuffer@@QAE@K@Z	; CBuffer::CBuffer

; 132  : 	{

  00080	c7 06 00 00 00
	00		 mov	 DWORD PTR [esi], OFFSET ??_7CBuffer2@@6B@
; File C:\IAGOS\server\v18\Source\Source\_network\net\src\buffer.cpp

; 294  : 	return pBuffer;

  00086	8b c6		 mov	 eax, esi
; File C:\IAGOS\server\v18\Source\Source\_Network\Net\Include\buffer.h

; 133  : 		m_dwHeaderSize = 2;

  00088	c7 86 24 20 00
	00 02 00 00 00	 mov	 DWORD PTR [esi+8228], 2
; File C:\IAGOS\server\v18\Source\Source\_network\net\src\buffer.cpp

; 295  : }

  00092	8b 4d f4	 mov	 ecx, DWORD PTR __$EHRec$[ebp]
  00095	64 89 0d 00 00
	00 00		 mov	 DWORD PTR fs:0, ecx
  0009c	59		 pop	 ecx
  0009d	5f		 pop	 edi
  0009e	5e		 pop	 esi
  0009f	8b e5		 mov	 esp, ebp
  000a1	5d		 pop	 ebp
  000a2	c2 08 00	 ret	 8
$LN10@CreateBuff:

; 288  : 		pBuffer = new CBuffer2( uBufSize );

  000a5	33 f6		 xor	 esi, esi

; 294  : 	return pBuffer;

  000a7	8b c6		 mov	 eax, esi

; 295  : }

  000a9	8b 4d f4	 mov	 ecx, DWORD PTR __$EHRec$[ebp]
  000ac	64 89 0d 00 00
	00 00		 mov	 DWORD PTR fs:0, ecx
  000b3	59		 pop	 ecx
  000b4	5f		 pop	 edi
  000b5	5e		 pop	 esi
  000b6	8b e5		 mov	 esp, ebp
  000b8	5d		 pop	 ebp
  000b9	c2 08 00	 ret	 8
$LN4@CreateBuff:
; File C:\IAGOS\server\v18\Source\Source\_Network\Net\Include\buffer.h

; 88   : 	void*	operator new( size_t nSize )	{	return CBuffer::m_pPool->Alloc();	}

  000bc	8b 35 00 00 00
	00		 mov	 esi, DWORD PTR ?m_pPool@CBuffer@@2PAV?$MemPooler@VCBuffer@@@@A ; CBuffer::m_pPool
; File C:\IAGOS\server\v18\Source\Source\_Network\Misc\Include\mempooler.h

; 64   : 			EnterCriticalSection( &m_cs );

  000c2	8d 7e 18	 lea	 edi, DWORD PTR [esi+24]
  000c5	57		 push	 edi
  000c6	ff 15 00 00 00
	00		 call	 DWORD PTR __imp__EnterCriticalSection@4

; 65   : 
; 66   : 			if( !m_pFreeList )

  000cc	83 3e 00	 cmp	 DWORD PTR [esi], 0
  000cf	75 07		 jne	 SHORT $LN17@CreateBuff

; 67   : 				Create();

  000d1	8b ce		 mov	 ecx, esi
  000d3	e8 00 00 00 00	 call	 ?Create@?$MemPooler@VCBuffer@@@@IAEXXZ ; MemPooler<CBuffer>::Create
$LN17@CreateBuff:

; 68   : 
; 69   : 			pNode	= m_pFreeList;

  000d8	8b 0e		 mov	 ecx, DWORD PTR [esi]

; 70   : 			m_pFreeList		= m_pFreeList->pNext;
; 71   : 			m_nAllocCount++;
; 72   : 			lpMem	= reinterpret_cast<T*>( pNode + 1 );
; 73   : 
; 74   : 			LeaveCriticalSection( &m_cs );

  000da	57		 push	 edi
  000db	8b 01		 mov	 eax, DWORD PTR [ecx]
  000dd	ff 46 14	 inc	 DWORD PTR [esi+20]
  000e0	89 06		 mov	 DWORD PTR [esi], eax
  000e2	8d 71 04	 lea	 esi, DWORD PTR [ecx+4]
  000e5	ff 15 00 00 00
	00		 call	 DWORD PTR __imp__LeaveCriticalSection@4
; File C:\IAGOS\server\v18\Source\Source\_network\net\src\buffer.cpp

; 285  : 		pBuffer = new CBuffer( uBufSize );

  000eb	89 75 08	 mov	 DWORD PTR $T2[ebp], esi
  000ee	c7 45 fc 00 00
	00 00		 mov	 DWORD PTR __$EHRec$[ebp+8], 0
  000f5	85 f6		 test	 esi, esi
  000f7	74 1d		 je	 SHORT $LN8@CreateBuff
  000f9	ff 75 0c	 push	 DWORD PTR _uBufSize$[ebp]
  000fc	8b ce		 mov	 ecx, esi
  000fe	e8 00 00 00 00	 call	 ??0CBuffer@@QAE@K@Z	; CBuffer::CBuffer

; 295  : }

  00103	8b 4d f4	 mov	 ecx, DWORD PTR __$EHRec$[ebp]
  00106	64 89 0d 00 00
	00 00		 mov	 DWORD PTR fs:0, ecx
  0010d	59		 pop	 ecx
  0010e	5f		 pop	 edi
  0010f	5e		 pop	 esi
  00110	8b e5		 mov	 esp, ebp
  00112	5d		 pop	 ebp
  00113	c2 08 00	 ret	 8
$LN8@CreateBuff:
  00116	33 c0		 xor	 eax, eax
  00118	8b 4d f4	 mov	 ecx, DWORD PTR __$EHRec$[ebp]
  0011b	64 89 0d 00 00
	00 00		 mov	 DWORD PTR fs:0, ecx
  00122	59		 pop	 ecx
  00123	5f		 pop	 edi
  00124	5e		 pop	 esi
  00125	8b e5		 mov	 esp, ebp
  00127	5d		 pop	 ebp
  00128	c2 08 00	 ret	 8
_TEXT	ENDS
;	COMDAT text$x
text$x	SEGMENT
__unwindfunclet$?CreateBuffer@CBufferFactory@@QAEPAVCBuffer@@W4BUFFER_TYPE@@K@Z$1:
  00000	8b 45 08	 mov	 eax, DWORD PTR $T3[ebp]
  00003	50		 push	 eax
  00004	e8 00 00 00 00	 call	 ??3CBuffer2@@SAXPAX@Z	; CBuffer2::operator delete
  00009	59		 pop	 ecx
  0000a	c3		 ret	 0
__unwindfunclet$?CreateBuffer@CBufferFactory@@QAEPAVCBuffer@@W4BUFFER_TYPE@@K@Z$0:
  0000b	8b 45 08	 mov	 eax, DWORD PTR $T2[ebp]
  0000e	50		 push	 eax
  0000f	e8 00 00 00 00	 call	 ??3CBuffer@@SAXPAX@Z	; CBuffer::operator delete
  00014	59		 pop	 ecx
  00015	c3		 ret	 0
  00016	cc		 int	 3
  00017	cc		 int	 3
  00018	cc		 int	 3
  00019	cc		 int	 3
  0001a	cc		 int	 3
__ehhandler$?CreateBuffer@CBufferFactory@@QAEPAVCBuffer@@W4BUFFER_TYPE@@K@Z:
  0001b	90		 npad	 1
  0001c	90		 npad	 1
  0001d	8b 54 24 08	 mov	 edx, DWORD PTR [esp+8]
  00021	8d 42 0c	 lea	 eax, DWORD PTR [edx+12]
  00024	8b 4a f4	 mov	 ecx, DWORD PTR [edx-12]
  00027	33 c8		 xor	 ecx, eax
  00029	e8 00 00 00 00	 call	 @__security_check_cookie@4
  0002e	b8 00 00 00 00	 mov	 eax, OFFSET __ehfuncinfo$?CreateBuffer@CBufferFactory@@QAEPAVCBuffer@@W4BUFFER_TYPE@@K@Z
  00033	e9 00 00 00 00	 jmp	 ___CxxFrameHandler3
text$x	ENDS
?CreateBuffer@CBufferFactory@@QAEPAVCBuffer@@W4BUFFER_TYPE@@K@Z ENDP ; CBufferFactory::CreateBuffer
; Function compile flags: /Ogtp
;	COMDAT ??_GCBufferQueue@@UAEPAXI@Z
_TEXT	SEGMENT
___flags$ = 8						; size = 4
??_GCBufferQueue@@UAEPAXI@Z PROC			; CBufferQueue::`scalar deleting destructor', COMDAT
; _this$ = ecx
  00000	55		 push	 ebp
  00001	8b ec		 mov	 ebp, esp
  00003	56		 push	 esi
  00004	8b f1		 mov	 esi, ecx
  00006	e8 00 00 00 00	 call	 ??1CBufferQueue@@UAE@XZ	; CBufferQueue::~CBufferQueue
  0000b	f6 45 08 01	 test	 BYTE PTR ___flags$[ebp], 1
  0000f	74 0b		 je	 SHORT $LN5@scalar
  00011	6a 2c		 push	 44			; 0000002cH
  00013	56		 push	 esi
  00014	e8 00 00 00 00	 call	 ??3@YAXPAXI@Z		; operator delete
  00019	83 c4 08	 add	 esp, 8
$LN5@scalar:
  0001c	8b c6		 mov	 eax, esi
  0001e	5e		 pop	 esi
  0001f	5d		 pop	 ebp
  00020	c2 04 00	 ret	 4
??_GCBufferQueue@@UAEPAXI@Z ENDP			; CBufferQueue::`scalar deleting destructor'
_TEXT	ENDS
; Function compile flags: /Ogtp
; File C:\IAGOS\server\v18\Source\Source\_network\net\src\buffer.cpp
; File C:\IAGOS\server\v18\Source\Source\_Network\Net\Include\buffer.h
; File C:\IAGOS\server\v18\Source\Source\_network\net\src\buffer.cpp
; File C:\IAGOS\server\v18\Source\Source\_Network\Net\Include\buffer.h
; File C:\IAGOS\server\v18\Source\Source\_network\net\src\buffer.cpp
;	COMDAT ?RemoveData@CBufferQueue@@QAEXK@Z
_TEXT	SEGMENT
_uDataSize$ = 8						; size = 4
?RemoveData@CBufferQueue@@QAEXK@Z PROC			; CBufferQueue::RemoveData, COMDAT
; _this$ = ecx

; 219  : {

  00000	55		 push	 ebp
  00001	8b ec		 mov	 ebp, esp
  00003	53		 push	 ebx

; 220  : 	CBuffer* pBuffer;
; 221  : 	
; 222  : //	CMclAutoLock	Lock( m_cs );
; 223  : 	u_long uRemnant;
; 224  : 
; 225  : 	INIT_LOOP;
; 226  : 	while( uDataSize > 0 )

  00004	8b 5d 08	 mov	 ebx, DWORD PTR _uDataSize$[ebp]
  00007	56		 push	 esi
  00008	8b f1		 mov	 esi, ecx
  0000a	85 db		 test	 ebx, ebx
  0000c	74 71		 je	 SHORT $LN20@RemoveData
  0000e	57		 push	 edi
  0000f	90		 npad	 1
$LL2@RemoveData:

; 227  : 	{
; 228  : 		VERIFY_LOOP( __FILE__, __LINE__ );
; 229  : 
; 230  : 		pBuffer	= GetHead();

  00010	8b 4e 04	 mov	 ecx, DWORD PTR [esi+4]

; 231  : //		ASSERT( pBuffer );
; 232  : 		if( NULL == pBuffer )

  00013	85 c9		 test	 ecx, ecx
  00015	74 67		 je	 SHORT $LN30@RemoveData
; File C:\IAGOS\server\v18\Source\Source\_Network\Net\Include\buffer.h

; 121  : 	return (int)( m_pTail - m_pHead );	

  00017	8b b9 18 20 00
	00		 mov	 edi, DWORD PTR [ecx+8216]
  0001d	8b 81 14 20 00
	00		 mov	 eax, DWORD PTR [ecx+8212]
  00023	2b f8		 sub	 edi, eax
; File C:\IAGOS\server\v18\Source\Source\_network\net\src\buffer.cpp

; 236  : 		if( uRemnant > uDataSize )

  00025	3b fb		 cmp	 edi, ebx
  00027	77 4d		 ja	 SHORT $LN23@RemoveData
; File C:\IAGOS\server\v18\Source\Source\_Network\Net\Include\buffer.h

; 222  : 	{	return( m_uCount == 0 );	}

  00029	8b 56 0c	 mov	 edx, DWORD PTR [esi+12]
  0002c	85 d2		 test	 edx, edx

; 240  : 	if( !IsEmpty() )

  0002e	74 2f		 je	 SHORT $LN13@RemoveData

; 241  : 	{
; 242  : 		if( m_pTail == m_pHead )

  00030	39 4e 08	 cmp	 DWORD PTR [esi+8], ecx
  00033	75 07		 jne	 SHORT $LN14@RemoveData

; 243  : 			m_pTail	= NULL;

  00035	c7 46 08 00 00
	00 00		 mov	 DWORD PTR [esi+8], 0
$LN14@RemoveData:

; 244  : 		if( m_pHead->pNext )

  0003c	8b 81 1c 20 00
	00		 mov	 eax, DWORD PTR [ecx+8220]
  00042	85 c0		 test	 eax, eax
  00044	74 0d		 je	 SHORT $LN15@RemoveData

; 245  : 			m_pHead->pNext->pPrevious	= NULL;

  00046	c7 80 20 20 00
	00 00 00 00 00	 mov	 DWORD PTR [eax+8224], 0
  00050	8b 56 0c	 mov	 edx, DWORD PTR [esi+12]
$LN15@RemoveData:

; 246  : 		m_pHead		= m_pHead->pNext;

  00053	8b 46 04	 mov	 eax, DWORD PTR [esi+4]
  00056	8b 80 1c 20 00
	00		 mov	 eax, DWORD PTR [eax+8220]
  0005c	89 46 04	 mov	 DWORD PTR [esi+4], eax
$LN13@RemoveData:

; 247  : 	}
; 248  : 	m_uCount--;

  0005f	8d 42 ff	 lea	 eax, DWORD PTR [edx-1]
  00062	89 46 0c	 mov	 DWORD PTR [esi+12], eax
; File C:\IAGOS\server\v18\Source\Source\_network\net\src\buffer.cpp

; 245  : 			safe_delete( pBuffer );

  00065	8b 01		 mov	 eax, DWORD PTR [ecx]
  00067	6a 01		 push	 1
  00069	ff 10		 call	 DWORD PTR [eax]

; 246  : 			uDataSize	-= uRemnant;

  0006b	2b df		 sub	 ebx, edi
  0006d	75 a1		 jne	 SHORT $LL2@RemoveData

; 247  : 		}
; 248  : 	}
; 249  : }

  0006f	5f		 pop	 edi
  00070	5e		 pop	 esi
  00071	5b		 pop	 ebx
  00072	5d		 pop	 ebp
  00073	c2 04 00	 ret	 4
$LN23@RemoveData:

; 237  : 		{
; 238  : 			pBuffer->m_pHead	+= uDataSize;

  00076	03 c3		 add	 eax, ebx
  00078	89 81 14 20 00
	00		 mov	 DWORD PTR [ecx+8212], eax
$LN30@RemoveData:
  0007e	5f		 pop	 edi
$LN20@RemoveData:
  0007f	5e		 pop	 esi

; 247  : 		}
; 248  : 	}
; 249  : }

  00080	5b		 pop	 ebx
  00081	5d		 pop	 ebp
  00082	c2 04 00	 ret	 4
?RemoveData@CBufferQueue@@QAEXK@Z ENDP			; CBufferQueue::RemoveData
_TEXT	ENDS
; Function compile flags: /Ogtp
; File C:\IAGOS\server\v18\Source\Source\_network\net\src\buffer.cpp
; File C:\IAGOS\server\v18\Source\Source\_Network\Net\Include\buffer.h
; File C:\IAGOS\server\v18\Source\Source\_network\net\src\buffer.cpp
;	COMDAT ?GetData@CBufferQueue@@QAEXPAU_WSABUF@@PAK@Z
_TEXT	SEGMENT
_lpBuffers$ = 8						; size = 4
_lpdwBufferCount$ = 12					; size = 4
?GetData@CBufferQueue@@QAEXPAU_WSABUF@@PAK@Z PROC	; CBufferQueue::GetData, COMDAT
; _this$ = ecx

; 252  : {

  00000	55		 push	 ebp
  00001	8b ec		 mov	 ebp, esp

; 253  : 	CBuffer* pBuffer;
; 254  : 	int	i	= 0;
; 255  : //	*lpdwBufferCount	= 0;
; 256  : //	CMclAutoLock	Lock( m_cs );	
; 257  : 	pBuffer	= GetHead();

  00003	8b 51 04	 mov	 edx, DWORD PTR [ecx+4]
  00006	33 c0		 xor	 eax, eax
  00008	56		 push	 esi
  00009	8b 75 08	 mov	 esi, DWORD PTR _lpBuffers$[ebp]

; 258  : 
; 259  : 	while( pBuffer && i < MAX_WSABUF )

  0000c	85 d2		 test	 edx, edx
  0000e	74 2b		 je	 SHORT $LN11@GetData
$LL2@GetData:
  00010	3d 80 00 00 00	 cmp	 eax, 128		; 00000080H
  00015	7d 24		 jge	 SHORT $LN11@GetData
; File C:\IAGOS\server\v18\Source\Source\_Network\Net\Include\buffer.h

; 115  : 	*pnBufSize	= (int)( m_pTail - m_pHead );	

  00017	8b 8a 18 20 00
	00		 mov	 ecx, DWORD PTR [edx+8216]
  0001d	2b 8a 14 20 00
	00		 sub	 ecx, DWORD PTR [edx+8212]
  00023	89 0c c6	 mov	 DWORD PTR [esi+eax*8], ecx
; File C:\IAGOS\server\v18\Source\Source\_network\net\src\buffer.cpp

; 261  : 		lpBuffers[i].buf	= (char*)pBuffer->GetReadableBuffer( (int*)&lpBuffers[i].len );

  00026	8b 8a 14 20 00
	00		 mov	 ecx, DWORD PTR [edx+8212]
  0002c	89 4c c6 04	 mov	 DWORD PTR [esi+eax*8+4], ecx

; 262  : 		i++;

  00030	40		 inc	 eax

; 263  : 		pBuffer	= pBuffer->pNext;

  00031	8b 92 1c 20 00
	00		 mov	 edx, DWORD PTR [edx+8220]
  00037	85 d2		 test	 edx, edx
  00039	75 d5		 jne	 SHORT $LL2@GetData
$LN11@GetData:

; 264  : 	}
; 265  : 	*lpdwBufferCount	= i;
; 266  : }

  0003b	8b 4d 0c	 mov	 ecx, DWORD PTR _lpdwBufferCount$[ebp]
  0003e	5e		 pop	 esi
  0003f	89 01		 mov	 DWORD PTR [ecx], eax
  00041	5d		 pop	 ebp
  00042	c2 08 00	 ret	 8
?GetData@CBufferQueue@@QAEXPAU_WSABUF@@PAK@Z ENDP	; CBufferQueue::GetData
_TEXT	ENDS
; Function compile flags: /Ogtp
; File C:\IAGOS\server\v18\Source\Source\_network\net\src\buffer.cpp
; File C:\IAGOS\server\v18\Source\Source\_Network\Net\Include\buffer.h
; File C:\IAGOS\server\v18\Source\Source\_network\net\src\buffer.cpp
; File C:\IAGOS\server\v18\Source\Source\_Network\Mcl\Include\CMclCritSec.h
; File C:\IAGOS\server\v18\Source\Source\_network\net\src\buffer.cpp
; File C:\IAGOS\server\v18\Source\Source\_Network\Mcl\Include\CMclCritSec.h
; File C:\IAGOS\server\v18\Source\Source\_Network\Net\Include\buffer.h
; File C:\IAGOS\server\v18\Source\Source\_Network\Mcl\Include\CMclCritSec.h
; File C:\IAGOS\server\v18\Source\Source\_Network\Net\Include\buffer.h
; File C:\IAGOS\server\v18\Source\Source\_Network\Mcl\Include\CMclCritSec.h
; File C:\IAGOS\server\v18\Source\Source\_network\net\src\buffer.cpp
; File C:\IAGOS\server\v18\Source\Source\_Network\Net\Include\buffer.h
; File C:\IAGOS\server\v18\Source\Source\_network\net\src\buffer.cpp
; File C:\IAGOS\server\v18\Source\Source\_Network\Net\Include\buffer.h
; File C:\IAGOS\server\v18\Source\Source\_network\net\src\buffer.cpp
; File C:\IAGOS\server\v18\Source\Source\_Network\Net\Include\buffer.h
; File C:\IAGOS\server\v18\Source\Source\_network\net\src\buffer.cpp
; File C:\IAGOS\server\v18\Source\Source\_Network\Mcl\Include\CMclCritSec.h
; File C:\IAGOS\server\v18\Source\Source\_network\net\src\buffer.cpp
; File C:\IAGOS\server\v18\Source\Source\_Network\Mcl\Include\CMclCritSec.h
; File C:\IAGOS\server\v18\Source\Source\_Network\Net\Include\buffer.h
; File C:\IAGOS\server\v18\Source\Source\_Network\Mcl\Include\CMclCritSec.h
; File C:\IAGOS\server\v18\Source\Source\_Network\Net\Include\buffer.h
; File C:\IAGOS\server\v18\Source\Source\_Network\Mcl\Include\CMclCritSec.h
; File C:\IAGOS\server\v18\Source\Source\_network\net\src\buffer.cpp
;	COMDAT ?AddData@CBufferQueue@@QAEXPAEKW4BUFFER_TYPE@@@Z
_TEXT	SEGMENT
_cb$4$ = -8						; size = 4
_uRemnant$1$ = -4					; size = 4
_lpData$ = 8						; size = 4
_uDataSize$ = 12					; size = 4
_type$ = 16						; size = 4
?AddData@CBufferQueue@@QAEXPAEKW4BUFFER_TYPE@@@Z PROC	; CBufferQueue::AddData, COMDAT
; _this$ = ecx

; 117  : {

  00000	55		 push	 ebp
  00001	8b ec		 mov	 ebp, esp
  00003	83 ec 08	 sub	 esp, 8
  00006	53		 push	 ebx
  00007	56		 push	 esi
  00008	8b f1		 mov	 esi, ecx
  0000a	57		 push	 edi

; 118  : //	CMclAutoLock	Lock( m_cs );
; 119  : 	u_long	uRemnant	= uDataSize;
; 120  : 	CBuffer* pBuffer	= GetTail();

  0000b	8b 5e 08	 mov	 ebx, DWORD PTR [esi+8]

; 121  : 	LPBYTE ptr;
; 122  : 	int cb;
; 123  : 
; 124  : 	if( pBuffer )

  0000e	85 db		 test	 ebx, ebx
  00010	74 34		 je	 SHORT $LN4@AddData
; File C:\IAGOS\server\v18\Source\Source\_Network\Net\Include\buffer.h

; 110  : 	return (int)( m_lpBufMax - m_pTail );	

  00012	8b 83 10 20 00
	00		 mov	 eax, DWORD PTR [ebx+8208]
  00018	2b 83 18 20 00
	00		 sub	 eax, DWORD PTR [ebx+8216]
; File C:\IAGOS\server\v18\Source\Source\_network\net\src\buffer.cpp

; 130  : 		if( cb < (int)( pBuffer->GetHeaderLength() ) )

  0001e	3b 83 24 20 00
	00		 cmp	 eax, DWORD PTR [ebx+8228]
  00024	7d 76		 jge	 SHORT $LN20@AddData

; 131  : #endif	// __CRC
; 132  : 		{
; 133  : 			pBuffer	= CBufferFactory::GetInstance().CreateBuffer( type );

  00026	68 00 20 00 00	 push	 8192			; 00002000H
  0002b	ff 75 10	 push	 DWORD PTR _type$[ebp]
  0002e	e8 00 00 00 00	 call	 ?GetInstance@CBufferFactory@@SAAAV1@XZ ; CBufferFactory::GetInstance
  00033	8b c8		 mov	 ecx, eax
  00035	e8 00 00 00 00	 call	 ?CreateBuffer@CBufferFactory@@QAEPAVCBuffer@@W4BUFFER_TYPE@@K@Z ; CBufferFactory::CreateBuffer
  0003a	8b d8		 mov	 ebx, eax

; 134  : 			AddTail( pBuffer );

  0003c	8b ce		 mov	 ecx, esi
  0003e	53		 push	 ebx
  0003f	e8 00 00 00 00	 call	 ?AddTail@CBufferQueue@@QAEXPAVCBuffer@@@Z ; CBufferQueue::AddTail

; 135  : 		}
; 136  : 	}

  00044	eb 56		 jmp	 SHORT $LN20@AddData
$LN4@AddData:

; 139  : 		pBuffer	= CBufferFactory::GetInstance().CreateBuffer( type );

  00046	68 00 20 00 00	 push	 8192			; 00002000H
  0004b	ff 75 10	 push	 DWORD PTR _type$[ebp]
  0004e	e8 00 00 00 00	 call	 ?GetInstance@CBufferFactory@@SAAAV1@XZ ; CBufferFactory::GetInstance
  00053	8b c8		 mov	 ecx, eax
  00055	e8 00 00 00 00	 call	 ?CreateBuffer@CBufferFactory@@QAEPAVCBuffer@@W4BUFFER_TYPE@@K@Z ; CBufferFactory::CreateBuffer
; File C:\IAGOS\server\v18\Source\Source\_Network\Mcl\Include\CMclCritSec.h

; 33   : 		::EnterCriticalSection( &m_CritSec );

  0005a	8d 7e 14	 lea	 edi, DWORD PTR [esi+20]
; File C:\IAGOS\server\v18\Source\Source\_network\net\src\buffer.cpp

; 139  : 		pBuffer	= CBufferFactory::GetInstance().CreateBuffer( type );

  0005d	8b d8		 mov	 ebx, eax
; File C:\IAGOS\server\v18\Source\Source\_Network\Mcl\Include\CMclCritSec.h

; 33   : 		::EnterCriticalSection( &m_CritSec );

  0005f	57		 push	 edi
  00060	ff 15 00 00 00
	00		 call	 DWORD PTR __imp__EnterCriticalSection@4
; File C:\IAGOS\server\v18\Source\Source\_Network\Net\Include\buffer.h

; 227  : 	if( !m_pHead )

  00066	83 7e 04 00	 cmp	 DWORD PTR [esi+4], 0
  0006a	75 03		 jne	 SHORT $LN12@AddData

; 228  : 		m_pHead		= pBuffer;

  0006c	89 5e 04	 mov	 DWORD PTR [esi+4], ebx
$LN12@AddData:

; 229  : 	if( m_pTail )

  0006f	8b 46 08	 mov	 eax, DWORD PTR [esi+8]
  00072	85 c0		 test	 eax, eax
  00074	74 06		 je	 SHORT $LN13@AddData

; 230  : 		m_pTail->pNext	= pBuffer;

  00076	89 98 1c 20 00
	00		 mov	 DWORD PTR [eax+8220], ebx
$LN13@AddData:

; 231  : 	pBuffer->pPrevious	= m_pTail;

  0007c	8b 46 08	 mov	 eax, DWORD PTR [esi+8]
  0007f	89 83 20 20 00
	00		 mov	 DWORD PTR [ebx+8224], eax

; 232  : 	pBuffer->pNext	= NULL;

  00085	c7 83 1c 20 00
	00 00 00 00 00	 mov	 DWORD PTR [ebx+8220], 0

; 234  : 	m_uCount++;

  0008f	ff 46 0c	 inc	 DWORD PTR [esi+12]
; File C:\IAGOS\server\v18\Source\Source\_Network\Mcl\Include\CMclCritSec.h

; 39   : 		::LeaveCriticalSection( &m_CritSec );

  00092	57		 push	 edi
; File C:\IAGOS\server\v18\Source\Source\_Network\Net\Include\buffer.h

; 233  : 	m_pTail		= pBuffer;

  00093	89 5e 08	 mov	 DWORD PTR [esi+8], ebx
; File C:\IAGOS\server\v18\Source\Source\_Network\Mcl\Include\CMclCritSec.h

; 39   : 		::LeaveCriticalSection( &m_CritSec );

  00096	ff 15 00 00 00
	00		 call	 DWORD PTR __imp__LeaveCriticalSection@4
$LN20@AddData:
; File C:\IAGOS\server\v18\Source\Source\_network\net\src\buffer.cpp

; 189  : 	pBuffer->SetHeader( uDataSize );	

  0009c	8b 03		 mov	 eax, DWORD PTR [ebx]
  0009e	8b cb		 mov	 ecx, ebx
; File C:\IAGOS\server\v18\Source\Source\_Network\Net\Include\buffer.h

; 104  : 	*pnBufSize	= (int)( m_lpBufMax - m_pTail );	

  000a0	8b bb 10 20 00
	00		 mov	 edi, DWORD PTR [ebx+8208]
; File C:\IAGOS\server\v18\Source\Source\_network\net\src\buffer.cpp

; 189  : 	pBuffer->SetHeader( uDataSize );	

  000a6	ff 75 0c	 push	 DWORD PTR _uDataSize$[ebp]
; File C:\IAGOS\server\v18\Source\Source\_Network\Net\Include\buffer.h

; 104  : 	*pnBufSize	= (int)( m_lpBufMax - m_pTail );	

  000a9	2b bb 18 20 00
	00		 sub	 edi, DWORD PTR [ebx+8216]
; File C:\IAGOS\server\v18\Source\Source\_network\net\src\buffer.cpp

; 189  : 	pBuffer->SetHeader( uDataSize );	

  000af	ff 50 08	 call	 DWORD PTR [eax+8]

; 190  : 	cb -= pBuffer->GetHeaderLength();

  000b2	2b bb 24 20 00
	00		 sub	 edi, DWORD PTR [ebx+8228]

; 191  : 
; 192  : 	if( cb >= (int)( uRemnant ) )

  000b8	3b 7d 0c	 cmp	 edi, DWORD PTR _uDataSize$[ebp]
  000bb	0f 4d 7d 0c	 cmovge	 edi, DWORD PTR _uDataSize$[ebp]

; 193  : 		cb = uRemnant;
; 194  : 
; 195  : 	memcpy( pBuffer->m_pTail, lpData, cb );

  000bf	57		 push	 edi
  000c0	ff 75 08	 push	 DWORD PTR _lpData$[ebp]
  000c3	ff b3 18 20 00
	00		 push	 DWORD PTR [ebx+8216]
  000c9	e8 00 00 00 00	 call	 _memcpy

; 196  : 	pBuffer->m_pTail +=  cb;
; 197  : 
; 198  : #endif	// __CRC
; 199  : 
; 200  : 	uRemnant	-= cb;

  000ce	8b 45 0c	 mov	 eax, DWORD PTR _uDataSize$[ebp]
  000d1	83 c4 0c	 add	 esp, 12			; 0000000cH
  000d4	01 bb 18 20 00
	00		 add	 DWORD PTR [ebx+8216], edi
  000da	2b c7		 sub	 eax, edi
  000dc	89 45 fc	 mov	 DWORD PTR _uRemnant$1$[ebp], eax

; 201  : 
; 202  : 	INIT_LOOP;
; 203  : 	while( uRemnant > 0 )

  000df	0f 84 a9 00 00
	00		 je	 $LN3@AddData
  000e5	66 66 66 0f 1f
	84 00 00 00 00
	00		 npad	 11
$LL2@AddData:

; 204  : 	{
; 205  : 		VERIFY_LOOP( __FILE__, __LINE__ );
; 206  : 
; 207  : 		pBuffer	= CBufferFactory::GetInstance().CreateBuffer( type );

  000f0	68 00 20 00 00	 push	 8192			; 00002000H
  000f5	ff 75 10	 push	 DWORD PTR _type$[ebp]
  000f8	e8 00 00 00 00	 call	 ?GetInstance@CBufferFactory@@SAAAV1@XZ ; CBufferFactory::GetInstance
  000fd	8b c8		 mov	 ecx, eax
  000ff	e8 00 00 00 00	 call	 ?CreateBuffer@CBufferFactory@@QAEPAVCBuffer@@W4BUFFER_TYPE@@K@Z ; CBufferFactory::CreateBuffer

; 209  : 		cb	= ( cb < (int)( uRemnant ) ? cb: uRemnant );

  00104	8b 55 fc	 mov	 edx, DWORD PTR _uRemnant$1$[ebp]
  00107	8b d8		 mov	 ebx, eax
  00109	8b c2		 mov	 eax, edx
; File C:\IAGOS\server\v18\Source\Source\_Network\Net\Include\buffer.h

; 104  : 	*pnBufSize	= (int)( m_lpBufMax - m_pTail );	

  0010b	8b bb 18 20 00
	00		 mov	 edi, DWORD PTR [ebx+8216]
  00111	8b 8b 10 20 00
	00		 mov	 ecx, DWORD PTR [ebx+8208]
  00117	2b cf		 sub	 ecx, edi
; File C:\IAGOS\server\v18\Source\Source\_network\net\src\buffer.cpp

; 209  : 		cb	= ( cb < (int)( uRemnant ) ? cb: uRemnant );

  00119	3b ca		 cmp	 ecx, edx
  0011b	0f 4c c1	 cmovl	 eax, ecx

; 210  : 		
; 211  : 		memcpy( (void*)ptr, &lpData[uDataSize - uRemnant], cb );

  0011e	50		 push	 eax
  0011f	89 45 f8	 mov	 DWORD PTR _cb$4$[ebp], eax
  00122	8b 45 08	 mov	 eax, DWORD PTR _lpData$[ebp]
  00125	2b c2		 sub	 eax, edx
  00127	03 45 0c	 add	 eax, DWORD PTR _uDataSize$[ebp]
  0012a	50		 push	 eax
  0012b	57		 push	 edi
  0012c	e8 00 00 00 00	 call	 _memcpy

; 212  : 		pBuffer->m_pTail	= ptr + cb;

  00131	8b 45 f8	 mov	 eax, DWORD PTR _cb$4$[ebp]
  00134	83 c4 0c	 add	 esp, 12			; 0000000cH
  00137	03 c7		 add	 eax, edi
; File C:\IAGOS\server\v18\Source\Source\_Network\Mcl\Include\CMclCritSec.h

; 33   : 		::EnterCriticalSection( &m_CritSec );

  00139	8d 7e 14	 lea	 edi, DWORD PTR [esi+20]
; File C:\IAGOS\server\v18\Source\Source\_network\net\src\buffer.cpp

; 212  : 		pBuffer->m_pTail	= ptr + cb;

  0013c	89 83 18 20 00
	00		 mov	 DWORD PTR [ebx+8216], eax
; File C:\IAGOS\server\v18\Source\Source\_Network\Mcl\Include\CMclCritSec.h

; 33   : 		::EnterCriticalSection( &m_CritSec );

  00142	57		 push	 edi
  00143	ff 15 00 00 00
	00		 call	 DWORD PTR __imp__EnterCriticalSection@4
; File C:\IAGOS\server\v18\Source\Source\_Network\Net\Include\buffer.h

; 227  : 	if( !m_pHead )

  00149	83 7e 04 00	 cmp	 DWORD PTR [esi+4], 0
  0014d	75 03		 jne	 SHORT $LN31@AddData

; 228  : 		m_pHead		= pBuffer;

  0014f	89 5e 04	 mov	 DWORD PTR [esi+4], ebx
$LN31@AddData:

; 229  : 	if( m_pTail )

  00152	8b 46 08	 mov	 eax, DWORD PTR [esi+8]
  00155	85 c0		 test	 eax, eax
  00157	74 06		 je	 SHORT $LN32@AddData

; 230  : 		m_pTail->pNext	= pBuffer;

  00159	89 98 1c 20 00
	00		 mov	 DWORD PTR [eax+8220], ebx
$LN32@AddData:

; 231  : 	pBuffer->pPrevious	= m_pTail;

  0015f	8b 46 08	 mov	 eax, DWORD PTR [esi+8]
  00162	89 83 20 20 00
	00		 mov	 DWORD PTR [ebx+8224], eax

; 232  : 	pBuffer->pNext	= NULL;

  00168	c7 83 1c 20 00
	00 00 00 00 00	 mov	 DWORD PTR [ebx+8220], 0

; 234  : 	m_uCount++;

  00172	ff 46 0c	 inc	 DWORD PTR [esi+12]
; File C:\IAGOS\server\v18\Source\Source\_Network\Mcl\Include\CMclCritSec.h

; 39   : 		::LeaveCriticalSection( &m_CritSec );

  00175	57		 push	 edi
; File C:\IAGOS\server\v18\Source\Source\_Network\Net\Include\buffer.h

; 233  : 	m_pTail		= pBuffer;

  00176	89 5e 08	 mov	 DWORD PTR [esi+8], ebx
; File C:\IAGOS\server\v18\Source\Source\_Network\Mcl\Include\CMclCritSec.h

; 39   : 		::LeaveCriticalSection( &m_CritSec );

  00179	ff 15 00 00 00
	00		 call	 DWORD PTR __imp__LeaveCriticalSection@4
; File C:\IAGOS\server\v18\Source\Source\_network\net\src\buffer.cpp

; 214  : 		uRemnant	-= cb;

  0017f	8b 45 fc	 mov	 eax, DWORD PTR _uRemnant$1$[ebp]
  00182	2b 45 f8	 sub	 eax, DWORD PTR _cb$4$[ebp]
  00185	89 45 fc	 mov	 DWORD PTR _uRemnant$1$[ebp], eax
  00188	0f 85 62 ff ff
	ff		 jne	 $LL2@AddData
$LN3@AddData:
  0018e	5f		 pop	 edi

; 215  : 	}
; 216  : }

  0018f	5e		 pop	 esi
  00190	5b		 pop	 ebx
  00191	8b e5		 mov	 esp, ebp
  00193	5d		 pop	 ebp
  00194	c2 0c 00	 ret	 12			; 0000000cH
?AddData@CBufferQueue@@QAEXPAEKW4BUFFER_TYPE@@@Z ENDP	; CBufferQueue::AddData
_TEXT	ENDS
; Function compile flags: /Ogtp
; File C:\IAGOS\server\v18\Source\Source\_network\net\src\buffer.cpp
; File C:\IAGOS\server\v18\Source\Source\_Network\Mcl\Include\CMclCritSec.h
; File C:\IAGOS\server\v18\Source\Source\_network\net\src\buffer.cpp
; File C:\IAGOS\server\v18\Source\Source\_Network\Mcl\Include\CMclCritSec.h
; File C:\IAGOS\server\v18\Source\Source\_network\net\src\buffer.cpp
; File C:\IAGOS\server\v18\Source\Source\_Network\Mcl\Include\CMclCritSec.h
; File C:\IAGOS\server\v18\Source\Source\_network\net\src\buffer.cpp
;	COMDAT ?Clear@CBufferQueue@@QAEXH@Z
_TEXT	SEGMENT
_bDelete$ = 8						; size = 4
?Clear@CBufferQueue@@QAEXH@Z PROC			; CBufferQueue::Clear, COMDAT
; _this$ = ecx

; 95   : {

  00000	55		 push	 ebp
  00001	8b ec		 mov	 ebp, esp
  00003	53		 push	 ebx
  00004	57		 push	 edi
  00005	8b f9		 mov	 edi, ecx
; File C:\IAGOS\server\v18\Source\Source\_Network\Mcl\Include\CMclCritSec.h

; 33   : 		::EnterCriticalSection( &m_CritSec );

  00007	8d 5f 14	 lea	 ebx, DWORD PTR [edi+20]
  0000a	53		 push	 ebx
  0000b	ff 15 00 00 00
	00		 call	 DWORD PTR __imp__EnterCriticalSection@4
; File C:\IAGOS\server\v18\Source\Source\_network\net\src\buffer.cpp

; 98   : 	if( bDelete )

  00011	83 7d 08 00	 cmp	 DWORD PTR _bDelete$[ebp], 0
  00015	74 1c		 je	 SHORT $LN3@Clear

; 99   : 	{
; 100  : 		CBuffer* pBuffer	= GetHead(), *ptrtmp;

  00017	8b 4f 04	 mov	 ecx, DWORD PTR [edi+4]

; 101  : 
; 102  : 		INIT_LOOP;
; 103  : 		while( pBuffer )

  0001a	85 c9		 test	 ecx, ecx
  0001c	74 15		 je	 SHORT $LN3@Clear
  0001e	56		 push	 esi
  0001f	90		 npad	 1
$LL2@Clear:

; 104  : 		{
; 105  : 			VERIFY_LOOP( __FILE__, __LINE__ );
; 106  : 
; 107  : 			ptrtmp	= pBuffer->pNext;
; 108  : 			SAFE_DELETE( pBuffer );

  00020	8b 01		 mov	 eax, DWORD PTR [ecx]
  00022	8b b1 1c 20 00
	00		 mov	 esi, DWORD PTR [ecx+8220]
  00028	6a 01		 push	 1
  0002a	ff 10		 call	 DWORD PTR [eax]

; 109  : 			pBuffer	= ptrtmp;

  0002c	8b ce		 mov	 ecx, esi
  0002e	85 f6		 test	 esi, esi
  00030	75 ee		 jne	 SHORT $LL2@Clear

; 101  : 
; 102  : 		INIT_LOOP;
; 103  : 		while( pBuffer )

  00032	5e		 pop	 esi
$LN3@Clear:
; File C:\IAGOS\server\v18\Source\Source\_Network\Mcl\Include\CMclCritSec.h

; 39   : 		::LeaveCriticalSection( &m_CritSec );

  00033	53		 push	 ebx
; File C:\IAGOS\server\v18\Source\Source\_network\net\src\buffer.cpp

; 112  : 	m_uCount	= 0;

  00034	c7 47 0c 00 00
	00 00		 mov	 DWORD PTR [edi+12], 0

; 113  : 	m_pHead	= m_pTail	= NULL;

  0003b	c7 47 08 00 00
	00 00		 mov	 DWORD PTR [edi+8], 0
  00042	c7 47 04 00 00
	00 00		 mov	 DWORD PTR [edi+4], 0
; File C:\IAGOS\server\v18\Source\Source\_Network\Mcl\Include\CMclCritSec.h

; 39   : 		::LeaveCriticalSection( &m_CritSec );

  00049	ff 15 00 00 00
	00		 call	 DWORD PTR __imp__LeaveCriticalSection@4
  0004f	5f		 pop	 edi
  00050	5b		 pop	 ebx
; File C:\IAGOS\server\v18\Source\Source\_network\net\src\buffer.cpp

; 114  : }

  00051	5d		 pop	 ebp
  00052	c2 04 00	 ret	 4
?Clear@CBufferQueue@@QAEXH@Z ENDP			; CBufferQueue::Clear
_TEXT	ENDS
; Function compile flags: /Ogtp
; File C:\IAGOS\server\v18\Source\Source\_Network\Net\Include\buffer.h
; File C:\IAGOS\server\v18\Source\Source\_Network\Mcl\Include\CMclCritSec.h
; File C:\IAGOS\server\v18\Source\Source\_Network\Net\Include\buffer.h
; File C:\IAGOS\server\v18\Source\Source\_Network\Mcl\Include\CMclCritSec.h
; File C:\IAGOS\server\v18\Source\Source\_Network\Net\Include\buffer.h
; File C:\IAGOS\server\v18\Source\Source\_Network\Mcl\Include\CMclCritSec.h
; File C:\IAGOS\server\v18\Source\Source\_Network\Net\Include\buffer.h
;	COMDAT ?AddTail@CBufferQueue@@QAEXPAVCBuffer@@@Z
_TEXT	SEGMENT
_pBuffer$ = 8						; size = 4
?AddTail@CBufferQueue@@QAEXPAVCBuffer@@@Z PROC		; CBufferQueue::AddTail, COMDAT
; _this$ = ecx

; 224  : {	

  00000	55		 push	 ebp
  00001	8b ec		 mov	 ebp, esp
  00003	56		 push	 esi
  00004	8b f1		 mov	 esi, ecx
  00006	57		 push	 edi
; File C:\IAGOS\server\v18\Source\Source\_Network\Mcl\Include\CMclCritSec.h

; 33   : 		::EnterCriticalSection( &m_CritSec );

  00007	8d 7e 14	 lea	 edi, DWORD PTR [esi+20]
  0000a	57		 push	 edi
  0000b	ff 15 00 00 00
	00		 call	 DWORD PTR __imp__EnterCriticalSection@4
; File C:\IAGOS\server\v18\Source\Source\_Network\Net\Include\buffer.h

; 227  : 	if( !m_pHead )

  00011	83 7e 04 00	 cmp	 DWORD PTR [esi+4], 0
  00015	8b 4d 08	 mov	 ecx, DWORD PTR _pBuffer$[ebp]
  00018	75 03		 jne	 SHORT $LN2@AddTail

; 228  : 		m_pHead		= pBuffer;

  0001a	89 4e 04	 mov	 DWORD PTR [esi+4], ecx
$LN2@AddTail:

; 229  : 	if( m_pTail )

  0001d	8b 46 08	 mov	 eax, DWORD PTR [esi+8]
  00020	85 c0		 test	 eax, eax
  00022	74 06		 je	 SHORT $LN3@AddTail

; 230  : 		m_pTail->pNext	= pBuffer;

  00024	89 88 1c 20 00
	00		 mov	 DWORD PTR [eax+8220], ecx
$LN3@AddTail:

; 231  : 	pBuffer->pPrevious	= m_pTail;

  0002a	8b 46 08	 mov	 eax, DWORD PTR [esi+8]
  0002d	89 81 20 20 00
	00		 mov	 DWORD PTR [ecx+8224], eax

; 232  : 	pBuffer->pNext	= NULL;

  00033	c7 81 1c 20 00
	00 00 00 00 00	 mov	 DWORD PTR [ecx+8220], 0

; 234  : 	m_uCount++;

  0003d	ff 46 0c	 inc	 DWORD PTR [esi+12]
; File C:\IAGOS\server\v18\Source\Source\_Network\Mcl\Include\CMclCritSec.h

; 39   : 		::LeaveCriticalSection( &m_CritSec );

  00040	57		 push	 edi
; File C:\IAGOS\server\v18\Source\Source\_Network\Net\Include\buffer.h

; 233  : 	m_pTail		= pBuffer;

  00041	89 4e 08	 mov	 DWORD PTR [esi+8], ecx
; File C:\IAGOS\server\v18\Source\Source\_Network\Mcl\Include\CMclCritSec.h

; 39   : 		::LeaveCriticalSection( &m_CritSec );

  00044	ff 15 00 00 00
	00		 call	 DWORD PTR __imp__LeaveCriticalSection@4
  0004a	5f		 pop	 edi
  0004b	5e		 pop	 esi
; File C:\IAGOS\server\v18\Source\Source\_Network\Net\Include\buffer.h

; 235  : }

  0004c	5d		 pop	 ebp
  0004d	c2 04 00	 ret	 4
?AddTail@CBufferQueue@@QAEXPAVCBuffer@@@Z ENDP		; CBufferQueue::AddTail
_TEXT	ENDS
; Function compile flags: /Ogtp
; File C:\IAGOS\server\v18\Source\Source\_network\net\src\buffer.cpp
; File C:\IAGOS\server\v18\Source\Source\_Network\Mcl\Include\CMclCritSec.h
; File C:\IAGOS\server\v18\Source\Source\_network\net\src\buffer.cpp
;	COMDAT ??1CBufferQueue@@UAE@XZ
_TEXT	SEGMENT
??1CBufferQueue@@UAE@XZ PROC				; CBufferQueue::~CBufferQueue, COMDAT
; _this$ = ecx

; 90   : {

  00000	56		 push	 esi
  00001	8b f1		 mov	 esi, ecx

; 91   : 	Clear( TRUE );	// 2004/01/19

  00003	6a 01		 push	 1
  00005	c7 06 00 00 00
	00		 mov	 DWORD PTR [esi], OFFSET ??_7CBufferQueue@@6B@
  0000b	e8 00 00 00 00	 call	 ?Clear@CBufferQueue@@QAEXH@Z ; CBufferQueue::Clear
; File C:\IAGOS\server\v18\Source\Source\_Network\Mcl\Include\CMclCritSec.h

; 27   : 		::DeleteCriticalSection( &m_CritSec );

  00010	8d 46 14	 lea	 eax, DWORD PTR [esi+20]
  00013	c7 46 10 00 00
	00 00		 mov	 DWORD PTR [esi+16], OFFSET ??_7CMclCritSec@@6B@
  0001a	50		 push	 eax
  0001b	ff 15 00 00 00
	00		 call	 DWORD PTR __imp__DeleteCriticalSection@4
  00021	5e		 pop	 esi
; File C:\IAGOS\server\v18\Source\Source\_network\net\src\buffer.cpp

; 92   : }

  00022	c3		 ret	 0
??1CBufferQueue@@UAE@XZ ENDP				; CBufferQueue::~CBufferQueue
_TEXT	ENDS
; Function compile flags: /Ogtp
; File C:\IAGOS\server\v18\Source\Source\_network\net\src\buffer.cpp
; File C:\IAGOS\server\v18\Source\Source\_Network\Mcl\Include\CMclCritSec.h
; File C:\IAGOS\server\v18\Source\Source\_network\net\src\buffer.cpp
; File C:\IAGOS\server\v18\Source\Source\_Network\Mcl\Include\CMclCritSec.h
; File C:\IAGOS\server\v18\Source\Source\_network\net\src\buffer.cpp
;	COMDAT ??0CBufferQueue@@QAE@XZ
_TEXT	SEGMENT
_this$ = -4						; size = 4
??0CBufferQueue@@QAE@XZ PROC				; CBufferQueue::CBufferQueue, COMDAT
; _this$ = ecx

; 72   : {

  00000	55		 push	 ebp
  00001	8b ec		 mov	 ebp, esp
  00003	51		 push	 ecx
  00004	56		 push	 esi
  00005	8b f1		 mov	 esi, ecx
  00007	89 75 fc	 mov	 DWORD PTR _this$[ebp], esi
; File C:\IAGOS\server\v18\Source\Source\_Network\Mcl\Include\CMclCritSec.h

; 21   : 		::InitializeCriticalSection( &m_CritSec );

  0000a	8d 46 14	 lea	 eax, DWORD PTR [esi+20]
; File C:\IAGOS\server\v18\Source\Source\_network\net\src\buffer.cpp

; 72   : {

  0000d	c7 06 00 00 00
	00		 mov	 DWORD PTR [esi], OFFSET ??_7CBufferQueue@@6B@
; File C:\IAGOS\server\v18\Source\Source\_Network\Mcl\Include\CMclCritSec.h

; 21   : 		::InitializeCriticalSection( &m_CritSec );

  00013	50		 push	 eax
  00014	c7 46 10 00 00
	00 00		 mov	 DWORD PTR [esi+16], OFFSET ??_7CMclCritSec@@6B@
  0001b	ff 15 00 00 00
	00		 call	 DWORD PTR __imp__InitializeCriticalSection@4
; File C:\IAGOS\server\v18\Source\Source\_network\net\src\buffer.cpp

; 73   : 	m_uCount	= 0;

  00021	c7 46 0c 00 00
	00 00		 mov	 DWORD PTR [esi+12], 0

; 74   : 	m_pHead		= m_pTail	= NULL;
; 75   : #ifdef __CRC
; 76   : 	m_pcrc	= NULL;
; 77   : 	m_dwWriteHeaderSize		= HEADERSIZE5;
; 78   : #endif	// __CRC
; 79   : 
; 80   : #ifdef __PROTOCOL0910
; 81   : 	m_pdwProtocolId		= NULL;
; 82   : #endif	// __PROTOCOL0910
; 83   : 
; 84   : #ifdef __PACKET_REPLAY_W
; 85   : 	m_nPacket	= 0;
; 86   : #endif	// __PACKET_REPLAY_W
; 87   : }

  00028	8b c6		 mov	 eax, esi
  0002a	c7 46 08 00 00
	00 00		 mov	 DWORD PTR [esi+8], 0
  00031	c7 46 04 00 00
	00 00		 mov	 DWORD PTR [esi+4], 0
  00038	5e		 pop	 esi
  00039	8b e5		 mov	 esp, ebp
  0003b	5d		 pop	 ebp
  0003c	c3		 ret	 0
??0CBufferQueue@@QAE@XZ ENDP				; CBufferQueue::CBufferQueue
_TEXT	ENDS
; Function compile flags: /Ogtp
; File C:\IAGOS\server\v18\Source\Source\_Network\Misc\Include\mempooler.h
;	COMDAT ?Create@?$MemPooler@VCBuffer2@@@@IAEXXZ
_TEXT	SEGMENT
_pMemBlock$ = -4					; size = 4
?Create@?$MemPooler@VCBuffer2@@@@IAEXXZ PROC		; MemPooler<CBuffer2>::Create, COMDAT
; _this$ = ecx

; 120  : 		{

  00000	55		 push	 ebp
  00001	8b ec		 mov	 ebp, esp
  00003	51		 push	 ecx
  00004	56		 push	 esi
  00005	8b f1		 mov	 esi, ecx

; 121  : #ifdef __VERIFY_MEMPOOL
; 122  : 			return;
; 123  : #endif
; 124  : #ifdef __VM_0819
; 125  : 			Log( "Create" );
; 126  : #endif	// __VM_0819
; 127  : 			const int AllocationSize	= m_nListBlockSize * m_nNumOfBlock;
; 128  : 			void* pMemBlock		= VirtualAlloc( NULL, AllocationSize, MEM_RESERVE | MEM_COMMIT, PAGE_READWRITE );

  00007	6a 04		 push	 4
  00009	68 00 30 00 00	 push	 12288			; 00003000H
  0000e	8b 46 0c	 mov	 eax, DWORD PTR [esi+12]
  00011	0f af 46 10	 imul	 eax, DWORD PTR [esi+16]
  00015	50		 push	 eax
  00016	6a 00		 push	 0
  00018	ff 15 00 00 00
	00		 call	 DWORD PTR __imp__VirtualAlloc@16
  0001e	89 45 fc	 mov	 DWORD PTR _pMemBlock$[ebp], eax
  00021	85 c0		 test	 eax, eax

; 129  : 			ASSERT( pMemBlock );
; 130  : 			if( !pMemBlock )

  00023	75 0d		 jne	 SHORT $LN5@Create

; 131  : 				Error( "bad alloc" );

  00025	68 00 00 00 00	 push	 OFFSET ??_C@_09PKKCPLIP@bad?5alloc@
  0002a	e8 00 00 00 00	 call	 ?Error@@YAPBDPBDZZ	; Error
  0002f	83 c4 04	 add	 esp, 4
$LN5@Create:

; 132  : 			m_ListOfMemBlockPtr.push_back( pMemBlock );

  00032	8d 45 fc	 lea	 eax, DWORD PTR _pMemBlock$[ebp]
  00035	50		 push	 eax
  00036	8d 4e 04	 lea	 ecx, DWORD PTR [esi+4]
  00039	e8 00 00 00 00	 call	 ?push_back@?$list@PAXV?$allocator@PAX@std@@@std@@QAEXABQAX@Z ; std::list<void *,std::allocator<void *> >::push_back

; 133  : 			BlockNode* pNode	= reinterpret_cast<BlockNode*>(pMemBlock);
; 134  : 			pNode	= reinterpret_cast<BlockNode*>( ( reinterpret_cast<DWORD>( pNode ) ) + ( m_nNumOfBlock - 1 ) * ( m_nListBlockSize ) );	// set pNode to last

  0003e	8b 56 0c	 mov	 edx, DWORD PTR [esi+12]
  00041	8b 46 10	 mov	 eax, DWORD PTR [esi+16]
  00044	4a		 dec	 edx
  00045	0f af c2	 imul	 eax, edx
  00048	03 45 fc	 add	 eax, DWORD PTR _pMemBlock$[ebp]

; 135  : 			for( int i = m_nNumOfBlock - 1; i >= 0; i-- )

  0004b	85 d2		 test	 edx, edx
  0004d	78 0f		 js	 SHORT $LN3@Create
  0004f	90		 npad	 1
$LL4@Create:

; 136  : 			{
; 137  : 				pNode->pNext	= m_pFreeList;

  00050	8b 0e		 mov	 ecx, DWORD PTR [esi]
  00052	89 08		 mov	 DWORD PTR [eax], ecx

; 138  : 				m_pFreeList	= pNode;

  00054	89 06		 mov	 DWORD PTR [esi], eax

; 139  : 				pNode	= reinterpret_cast<BlockNode*>( ( reinterpret_cast<DWORD>( pNode ) ) - m_nListBlockSize );	// set pNode to previous

  00056	2b 46 10	 sub	 eax, DWORD PTR [esi+16]
  00059	83 ea 01	 sub	 edx, 1
  0005c	79 f2		 jns	 SHORT $LL4@Create
$LN3@Create:
  0005e	5e		 pop	 esi

; 140  : 			}
; 141  : 		}

  0005f	8b e5		 mov	 esp, ebp
  00061	5d		 pop	 ebp
  00062	c3		 ret	 0
?Create@?$MemPooler@VCBuffer2@@@@IAEXXZ ENDP		; MemPooler<CBuffer2>::Create
_TEXT	ENDS
; Function compile flags: /Ogtp
; File C:\IAGOS\server\v18\Source\Source\_Network\Net\Include\buffer.h
; File C:\IAGOS\server\v18\Source\Source\_Network\Misc\Include\mempooler.h
;	COMDAT ??_GCBuffer2@@UAEPAXI@Z
_TEXT	SEGMENT
___flags$ = 8						; size = 4
??_GCBuffer2@@UAEPAXI@Z PROC				; CBuffer2::`scalar deleting destructor', COMDAT
; _this$ = ecx
  00000	55		 push	 ebp
  00001	8b ec		 mov	 ebp, esp
  00003	56		 push	 esi
  00004	8b f1		 mov	 esi, ecx
  00006	e8 00 00 00 00	 call	 ??1CBuffer@@UAE@XZ	; CBuffer::~CBuffer
  0000b	8b 45 08	 mov	 eax, DWORD PTR ___flags$[ebp]
  0000e	a8 01		 test	 al, 1
  00010	74 56		 je	 SHORT $LN19@scalar
  00012	a8 04		 test	 al, 4
  00014	75 44		 jne	 SHORT $LN3@scalar
  00016	53		 push	 ebx
  00017	57		 push	 edi
; File C:\IAGOS\server\v18\Source\Source\_Network\Net\Include\buffer.h

; 159  : 	void	operator delete( void* lpMem )	{	CBuffer2::m_pPool2->Free( (CBuffer2*)lpMem );	}

  00018	8b 3d 00 00 00
	00		 mov	 edi, DWORD PTR ?m_pPool2@CBuffer2@@2PAV?$MemPooler@VCBuffer2@@@@A ; CBuffer2::m_pPool2
; File C:\IAGOS\server\v18\Source\Source\_Network\Misc\Include\mempooler.h

; 88   : 			EnterCriticalSection( &m_cs );

  0001e	8d 5f 18	 lea	 ebx, DWORD PTR [edi+24]
  00021	53		 push	 ebx
  00022	ff 15 00 00 00
	00		 call	 DWORD PTR __imp__EnterCriticalSection@4

; 89   : 
; 90   : 			pNode	= ( reinterpret_cast<BlockNode*>( lpMem ) ) - 1;
; 91   : 			if( m_nAllocCount > 0 )

  00028	83 7f 14 00	 cmp	 DWORD PTR [edi+20], 0
  0002c	8d 4e fc	 lea	 ecx, DWORD PTR [esi-4]
  0002f	7e 09		 jle	 SHORT $LN17@scalar

; 92   : 			{
; 93   : 				pNode->pNext	= m_pFreeList;

  00031	8b 07		 mov	 eax, DWORD PTR [edi]
  00033	89 01		 mov	 DWORD PTR [ecx], eax

; 94   : 				m_pFreeList		= pNode;
; 95   : 				m_nAllocCount--;

  00035	ff 4f 14	 dec	 DWORD PTR [edi+20]
  00038	89 0f		 mov	 DWORD PTR [edi], ecx
$LN17@scalar:

; 96   : 			}
; 97   : 
; 98   : 			//	mulcom	BEGIN100422	¸Ţ¸đ¸®Ç® ĂĘ±âČ­
; 99   : 			::memset( lpMem, 0, sizeof(T) );

  0003a	68 28 20 00 00	 push	 8232			; 00002028H
  0003f	6a 00		 push	 0
  00041	56		 push	 esi
  00042	e8 00 00 00 00	 call	 _memset
  00047	83 c4 0c	 add	 esp, 12			; 0000000cH

; 100  : 			//	mulcom	END100422	¸Ţ¸đ¸®Ç® ĂĘ±âČ­
; 101  : 
; 102  : 			LeaveCriticalSection( &m_cs );

  0004a	53		 push	 ebx
  0004b	ff 15 00 00 00
	00		 call	 DWORD PTR __imp__LeaveCriticalSection@4
  00051	5f		 pop	 edi
  00052	5b		 pop	 ebx
  00053	8b c6		 mov	 eax, esi
  00055	5e		 pop	 esi
  00056	5d		 pop	 ebp
  00057	c2 04 00	 ret	 4
$LN3@scalar:
  0005a	68 28 20 00 00	 push	 8232			; 00002028H
  0005f	56		 push	 esi
  00060	e8 00 00 00 00	 call	 ?__global_delete@@YAXPAXI@Z ; __global_delete
  00065	83 c4 08	 add	 esp, 8
$LN19@scalar:
  00068	8b c6		 mov	 eax, esi
  0006a	5e		 pop	 esi
  0006b	5d		 pop	 ebp
  0006c	c2 04 00	 ret	 4
??_GCBuffer2@@UAEPAXI@Z ENDP				; CBuffer2::`scalar deleting destructor'
_TEXT	ENDS
; Function compile flags: /Ogtp
; File C:\IAGOS\server\v18\Source\Source\_Network\Net\Include\buffer.h
; File C:\IAGOS\server\v18\Source\Source\_Network\Misc\Include\mempooler.h
; File C:\IAGOS\server\v18\Source\Source\_Network\Net\Include\buffer.h
;	COMDAT ??3CBuffer2@@SAXPAX@Z
_TEXT	SEGMENT
_lpMem$ = 8						; size = 4
??3CBuffer2@@SAXPAX@Z PROC				; CBuffer2::operator delete, COMDAT

; 159  : 	void	operator delete( void* lpMem )	{	CBuffer2::m_pPool2->Free( (CBuffer2*)lpMem );	}

  00000	55		 push	 ebp
  00001	8b ec		 mov	 ebp, esp
  00003	56		 push	 esi
  00004	8b 35 00 00 00
	00		 mov	 esi, DWORD PTR ?m_pPool2@CBuffer2@@2PAV?$MemPooler@VCBuffer2@@@@A ; CBuffer2::m_pPool2
  0000a	57		 push	 edi
; File C:\IAGOS\server\v18\Source\Source\_Network\Misc\Include\mempooler.h

; 88   : 			EnterCriticalSection( &m_cs );

  0000b	8d 7e 18	 lea	 edi, DWORD PTR [esi+24]
  0000e	57		 push	 edi
  0000f	ff 15 00 00 00
	00		 call	 DWORD PTR __imp__EnterCriticalSection@4

; 89   : 
; 90   : 			pNode	= ( reinterpret_cast<BlockNode*>( lpMem ) ) - 1;
; 91   : 			if( m_nAllocCount > 0 )

  00015	83 7e 14 00	 cmp	 DWORD PTR [esi+20], 0
  00019	8b 4d 08	 mov	 ecx, DWORD PTR _lpMem$[ebp]
  0001c	8d 51 fc	 lea	 edx, DWORD PTR [ecx-4]
  0001f	7e 09		 jle	 SHORT $LN5@operator

; 92   : 			{
; 93   : 				pNode->pNext	= m_pFreeList;

  00021	8b 06		 mov	 eax, DWORD PTR [esi]
  00023	89 02		 mov	 DWORD PTR [edx], eax

; 94   : 				m_pFreeList		= pNode;
; 95   : 				m_nAllocCount--;

  00025	ff 4e 14	 dec	 DWORD PTR [esi+20]
  00028	89 16		 mov	 DWORD PTR [esi], edx
$LN5@operator:

; 96   : 			}
; 97   : 
; 98   : 			//	mulcom	BEGIN100422	¸Ţ¸đ¸®Ç® ĂĘ±âČ­
; 99   : 			::memset( lpMem, 0, sizeof(T) );

  0002a	68 28 20 00 00	 push	 8232			; 00002028H
  0002f	6a 00		 push	 0
  00031	51		 push	 ecx
  00032	e8 00 00 00 00	 call	 _memset
  00037	83 c4 0c	 add	 esp, 12			; 0000000cH

; 100  : 			//	mulcom	END100422	¸Ţ¸đ¸®Ç® ĂĘ±âČ­
; 101  : 
; 102  : 			LeaveCriticalSection( &m_cs );

  0003a	57		 push	 edi
  0003b	ff 15 00 00 00
	00		 call	 DWORD PTR __imp__LeaveCriticalSection@4
  00041	5f		 pop	 edi
  00042	5e		 pop	 esi
; File C:\IAGOS\server\v18\Source\Source\_Network\Net\Include\buffer.h

; 159  : 	void	operator delete( void* lpMem )	{	CBuffer2::m_pPool2->Free( (CBuffer2*)lpMem );	}

  00043	5d		 pop	 ebp
  00044	c3		 ret	 0
??3CBuffer2@@SAXPAX@Z ENDP				; CBuffer2::operator delete
_TEXT	ENDS
; Function compile flags: /Ogtp
; File C:\IAGOS\server\v18\Source\Source\_Network\Net\Include\buffer.h
;	COMDAT ?SetHeader@CBuffer2@@UAEXK@Z
_TEXT	SEGMENT
_uDataSize$ = 8						; size = 4
?SetHeader@CBuffer2@@UAEXK@Z PROC			; CBuffer2::SetHeader, COMDAT
; _this$ = ecx

; 147  : 	{

  00000	55		 push	 ebp
  00001	8b ec		 mov	 ebp, esp

; 148  : //		*(UNALIGNED WORD*)m_pTail	= (WORD)(uDataSize + 2);
; 149  : //		m_pTail += sizeof(WORD);
; 150  : 		*(UNALIGNED WORD*)m_pTail	= htons( (WORD)(uDataSize + 2) );

  00003	8b 45 08	 mov	 eax, DWORD PTR _uDataSize$[ebp]
  00006	56		 push	 esi
  00007	57		 push	 edi
  00008	8b f9		 mov	 edi, ecx
  0000a	83 c0 02	 add	 eax, 2
  0000d	50		 push	 eax
  0000e	8b b7 18 20 00
	00		 mov	 esi, DWORD PTR [edi+8216]
  00014	ff 15 00 00 00
	00		 call	 DWORD PTR __imp__htons@4
  0001a	66 89 06	 mov	 WORD PTR [esi], ax

; 151  : 		m_pTail += sizeof(WORD);

  0001d	83 87 18 20 00
	00 02		 add	 DWORD PTR [edi+8216], 2
  00024	5f		 pop	 edi
  00025	5e		 pop	 esi

; 152  : 	}

  00026	5d		 pop	 ebp
  00027	c2 04 00	 ret	 4
?SetHeader@CBuffer2@@UAEXK@Z ENDP			; CBuffer2::SetHeader
_TEXT	ENDS
; Function compile flags: /Ogtp
; File C:\IAGOS\server\v18\Source\Source\_Network\Net\Include\buffer.h
;	COMDAT ?GetPacketSize@CBuffer2@@UAEKPAE@Z
_TEXT	SEGMENT
_ptr$ = 8						; size = 4
?GetPacketSize@CBuffer2@@UAEKPAE@Z PROC			; CBuffer2::GetPacketSize, COMDAT
; _this$ = ecx

; 137  : 	{

  00000	55		 push	 ebp
  00001	8b ec		 mov	 ebp, esp

; 138  : //		DWORD dwSize = *(WORD *)ptr;
; 139  : //		dwSize -= 2;
; 140  : //		return dwSize;
; 141  : 		DWORD dwSize = ntohs( *(WORD *)ptr );

  00003	8b 45 08	 mov	 eax, DWORD PTR _ptr$[ebp]
  00006	0f b7 00	 movzx	 eax, WORD PTR [eax]
  00009	50		 push	 eax
  0000a	ff 15 00 00 00
	00		 call	 DWORD PTR __imp__ntohs@4
  00010	0f b7 c0	 movzx	 eax, ax

; 142  : 		dwSize -= 2;

  00013	83 e8 02	 sub	 eax, 2

; 143  : 		return dwSize;
; 144  : 	}

  00016	5d		 pop	 ebp
  00017	c2 04 00	 ret	 4
?GetPacketSize@CBuffer2@@UAEKPAE@Z ENDP			; CBuffer2::GetPacketSize
_TEXT	ENDS
; Function compile flags: /Ogtp
; File C:\IAGOS\server\v18\Source\Source\_Network\Misc\Include\mempooler.h
;	COMDAT ?Create@?$MemPooler@VCBuffer@@@@IAEXXZ
_TEXT	SEGMENT
_pMemBlock$ = -4					; size = 4
?Create@?$MemPooler@VCBuffer@@@@IAEXXZ PROC		; MemPooler<CBuffer>::Create, COMDAT
; _this$ = ecx

; 120  : 		{

  00000	55		 push	 ebp
  00001	8b ec		 mov	 ebp, esp
  00003	51		 push	 ecx
  00004	56		 push	 esi
  00005	8b f1		 mov	 esi, ecx

; 121  : #ifdef __VERIFY_MEMPOOL
; 122  : 			return;
; 123  : #endif
; 124  : #ifdef __VM_0819
; 125  : 			Log( "Create" );
; 126  : #endif	// __VM_0819
; 127  : 			const int AllocationSize	= m_nListBlockSize * m_nNumOfBlock;
; 128  : 			void* pMemBlock		= VirtualAlloc( NULL, AllocationSize, MEM_RESERVE | MEM_COMMIT, PAGE_READWRITE );

  00007	6a 04		 push	 4
  00009	68 00 30 00 00	 push	 12288			; 00003000H
  0000e	8b 46 0c	 mov	 eax, DWORD PTR [esi+12]
  00011	0f af 46 10	 imul	 eax, DWORD PTR [esi+16]
  00015	50		 push	 eax
  00016	6a 00		 push	 0
  00018	ff 15 00 00 00
	00		 call	 DWORD PTR __imp__VirtualAlloc@16
  0001e	89 45 fc	 mov	 DWORD PTR _pMemBlock$[ebp], eax
  00021	85 c0		 test	 eax, eax

; 129  : 			ASSERT( pMemBlock );
; 130  : 			if( !pMemBlock )

  00023	75 0d		 jne	 SHORT $LN5@Create

; 131  : 				Error( "bad alloc" );

  00025	68 00 00 00 00	 push	 OFFSET ??_C@_09PKKCPLIP@bad?5alloc@
  0002a	e8 00 00 00 00	 call	 ?Error@@YAPBDPBDZZ	; Error
  0002f	83 c4 04	 add	 esp, 4
$LN5@Create:

; 132  : 			m_ListOfMemBlockPtr.push_back( pMemBlock );

  00032	8d 45 fc	 lea	 eax, DWORD PTR _pMemBlock$[ebp]
  00035	50		 push	 eax
  00036	8d 4e 04	 lea	 ecx, DWORD PTR [esi+4]
  00039	e8 00 00 00 00	 call	 ?push_back@?$list@PAXV?$allocator@PAX@std@@@std@@QAEXABQAX@Z ; std::list<void *,std::allocator<void *> >::push_back

; 133  : 			BlockNode* pNode	= reinterpret_cast<BlockNode*>(pMemBlock);
; 134  : 			pNode	= reinterpret_cast<BlockNode*>( ( reinterpret_cast<DWORD>( pNode ) ) + ( m_nNumOfBlock - 1 ) * ( m_nListBlockSize ) );	// set pNode to last

  0003e	8b 56 0c	 mov	 edx, DWORD PTR [esi+12]
  00041	8b 46 10	 mov	 eax, DWORD PTR [esi+16]
  00044	4a		 dec	 edx
  00045	0f af c2	 imul	 eax, edx
  00048	03 45 fc	 add	 eax, DWORD PTR _pMemBlock$[ebp]

; 135  : 			for( int i = m_nNumOfBlock - 1; i >= 0; i-- )

  0004b	85 d2		 test	 edx, edx
  0004d	78 0f		 js	 SHORT $LN3@Create
  0004f	90		 npad	 1
$LL4@Create:

; 136  : 			{
; 137  : 				pNode->pNext	= m_pFreeList;

  00050	8b 0e		 mov	 ecx, DWORD PTR [esi]
  00052	89 08		 mov	 DWORD PTR [eax], ecx

; 138  : 				m_pFreeList	= pNode;

  00054	89 06		 mov	 DWORD PTR [esi], eax

; 139  : 				pNode	= reinterpret_cast<BlockNode*>( ( reinterpret_cast<DWORD>( pNode ) ) - m_nListBlockSize );	// set pNode to previous

  00056	2b 46 10	 sub	 eax, DWORD PTR [esi+16]
  00059	83 ea 01	 sub	 edx, 1
  0005c	79 f2		 jns	 SHORT $LL4@Create
$LN3@Create:
  0005e	5e		 pop	 esi

; 140  : 			}
; 141  : 		}

  0005f	8b e5		 mov	 esp, ebp
  00061	5d		 pop	 ebp
  00062	c3		 ret	 0
?Create@?$MemPooler@VCBuffer@@@@IAEXXZ ENDP		; MemPooler<CBuffer>::Create
_TEXT	ENDS
; Function compile flags: /Ogtp
; File C:\IAGOS\server\v18\Source\Source\_Network\Net\Include\buffer.h
; File C:\IAGOS\server\v18\Source\Source\_Network\Misc\Include\mempooler.h
;	COMDAT ??_GCBuffer@@UAEPAXI@Z
_TEXT	SEGMENT
___flags$ = 8						; size = 4
??_GCBuffer@@UAEPAXI@Z PROC				; CBuffer::`scalar deleting destructor', COMDAT
; _this$ = ecx
  00000	55		 push	 ebp
  00001	8b ec		 mov	 ebp, esp
  00003	56		 push	 esi
  00004	8b f1		 mov	 esi, ecx
  00006	e8 00 00 00 00	 call	 ??1CBuffer@@UAE@XZ	; CBuffer::~CBuffer
  0000b	8b 45 08	 mov	 eax, DWORD PTR ___flags$[ebp]
  0000e	a8 01		 test	 al, 1
  00010	74 56		 je	 SHORT $LN14@scalar
  00012	a8 04		 test	 al, 4
  00014	75 44		 jne	 SHORT $LN3@scalar
  00016	53		 push	 ebx
  00017	57		 push	 edi
; File C:\IAGOS\server\v18\Source\Source\_Network\Net\Include\buffer.h

; 90   : 	void	operator delete( void* lpMem )	{	CBuffer::m_pPool->Free( (CBuffer*)lpMem );	}

  00018	8b 3d 00 00 00
	00		 mov	 edi, DWORD PTR ?m_pPool@CBuffer@@2PAV?$MemPooler@VCBuffer@@@@A ; CBuffer::m_pPool
; File C:\IAGOS\server\v18\Source\Source\_Network\Misc\Include\mempooler.h

; 88   : 			EnterCriticalSection( &m_cs );

  0001e	8d 5f 18	 lea	 ebx, DWORD PTR [edi+24]
  00021	53		 push	 ebx
  00022	ff 15 00 00 00
	00		 call	 DWORD PTR __imp__EnterCriticalSection@4

; 89   : 
; 90   : 			pNode	= ( reinterpret_cast<BlockNode*>( lpMem ) ) - 1;
; 91   : 			if( m_nAllocCount > 0 )

  00028	83 7f 14 00	 cmp	 DWORD PTR [edi+20], 0
  0002c	8d 4e fc	 lea	 ecx, DWORD PTR [esi-4]
  0002f	7e 09		 jle	 SHORT $LN12@scalar

; 92   : 			{
; 93   : 				pNode->pNext	= m_pFreeList;

  00031	8b 07		 mov	 eax, DWORD PTR [edi]
  00033	89 01		 mov	 DWORD PTR [ecx], eax

; 94   : 				m_pFreeList		= pNode;
; 95   : 				m_nAllocCount--;

  00035	ff 4f 14	 dec	 DWORD PTR [edi+20]
  00038	89 0f		 mov	 DWORD PTR [edi], ecx
$LN12@scalar:

; 96   : 			}
; 97   : 
; 98   : 			//	mulcom	BEGIN100422	¸Ţ¸đ¸®Ç® ĂĘ±âČ­
; 99   : 			::memset( lpMem, 0, sizeof(T) );

  0003a	68 28 20 00 00	 push	 8232			; 00002028H
  0003f	6a 00		 push	 0
  00041	56		 push	 esi
  00042	e8 00 00 00 00	 call	 _memset
  00047	83 c4 0c	 add	 esp, 12			; 0000000cH

; 100  : 			//	mulcom	END100422	¸Ţ¸đ¸®Ç® ĂĘ±âČ­
; 101  : 
; 102  : 			LeaveCriticalSection( &m_cs );

  0004a	53		 push	 ebx
  0004b	ff 15 00 00 00
	00		 call	 DWORD PTR __imp__LeaveCriticalSection@4
  00051	5f		 pop	 edi
  00052	5b		 pop	 ebx
  00053	8b c6		 mov	 eax, esi
  00055	5e		 pop	 esi
  00056	5d		 pop	 ebp
  00057	c2 04 00	 ret	 4
$LN3@scalar:
  0005a	68 28 20 00 00	 push	 8232			; 00002028H
  0005f	56		 push	 esi
  00060	e8 00 00 00 00	 call	 ?__global_delete@@YAXPAXI@Z ; __global_delete
  00065	83 c4 08	 add	 esp, 8
$LN14@scalar:
  00068	8b c6		 mov	 eax, esi
  0006a	5e		 pop	 esi
  0006b	5d		 pop	 ebp
  0006c	c2 04 00	 ret	 4
??_GCBuffer@@UAEPAXI@Z ENDP				; CBuffer::`scalar deleting destructor'
_TEXT	ENDS
; Function compile flags: /Ogtp
; File C:\IAGOS\server\v18\Source\Source\_Network\Net\Include\buffer.h
; File C:\IAGOS\server\v18\Source\Source\_Network\Misc\Include\mempooler.h
; File C:\IAGOS\server\v18\Source\Source\_Network\Net\Include\buffer.h
;	COMDAT ??3CBuffer@@SAXPAX@Z
_TEXT	SEGMENT
_lpMem$ = 8						; size = 4
??3CBuffer@@SAXPAX@Z PROC				; CBuffer::operator delete, COMDAT

; 90   : 	void	operator delete( void* lpMem )	{	CBuffer::m_pPool->Free( (CBuffer*)lpMem );	}

  00000	55		 push	 ebp
  00001	8b ec		 mov	 ebp, esp
  00003	56		 push	 esi
  00004	8b 35 00 00 00
	00		 mov	 esi, DWORD PTR ?m_pPool@CBuffer@@2PAV?$MemPooler@VCBuffer@@@@A ; CBuffer::m_pPool
  0000a	57		 push	 edi
; File C:\IAGOS\server\v18\Source\Source\_Network\Misc\Include\mempooler.h

; 88   : 			EnterCriticalSection( &m_cs );

  0000b	8d 7e 18	 lea	 edi, DWORD PTR [esi+24]
  0000e	57		 push	 edi
  0000f	ff 15 00 00 00
	00		 call	 DWORD PTR __imp__EnterCriticalSection@4

; 89   : 
; 90   : 			pNode	= ( reinterpret_cast<BlockNode*>( lpMem ) ) - 1;
; 91   : 			if( m_nAllocCount > 0 )

  00015	83 7e 14 00	 cmp	 DWORD PTR [esi+20], 0
  00019	8b 4d 08	 mov	 ecx, DWORD PTR _lpMem$[ebp]
  0001c	8d 51 fc	 lea	 edx, DWORD PTR [ecx-4]
  0001f	7e 09		 jle	 SHORT $LN5@operator

; 92   : 			{
; 93   : 				pNode->pNext	= m_pFreeList;

  00021	8b 06		 mov	 eax, DWORD PTR [esi]
  00023	89 02		 mov	 DWORD PTR [edx], eax

; 94   : 				m_pFreeList		= pNode;
; 95   : 				m_nAllocCount--;

  00025	ff 4e 14	 dec	 DWORD PTR [esi+20]
  00028	89 16		 mov	 DWORD PTR [esi], edx
$LN5@operator:

; 96   : 			}
; 97   : 
; 98   : 			//	mulcom	BEGIN100422	¸Ţ¸đ¸®Ç® ĂĘ±âČ­
; 99   : 			::memset( lpMem, 0, sizeof(T) );

  0002a	68 28 20 00 00	 push	 8232			; 00002028H
  0002f	6a 00		 push	 0
  00031	51		 push	 ecx
  00032	e8 00 00 00 00	 call	 _memset
  00037	83 c4 0c	 add	 esp, 12			; 0000000cH

; 100  : 			//	mulcom	END100422	¸Ţ¸đ¸®Ç® ĂĘ±âČ­
; 101  : 
; 102  : 			LeaveCriticalSection( &m_cs );

  0003a	57		 push	 edi
  0003b	ff 15 00 00 00
	00		 call	 DWORD PTR __imp__LeaveCriticalSection@4
  00041	5f		 pop	 edi
  00042	5e		 pop	 esi
; File C:\IAGOS\server\v18\Source\Source\_Network\Net\Include\buffer.h

; 90   : 	void	operator delete( void* lpMem )	{	CBuffer::m_pPool->Free( (CBuffer*)lpMem );	}

  00043	5d		 pop	 ebp
  00044	c3		 ret	 0
??3CBuffer@@SAXPAX@Z ENDP				; CBuffer::operator delete
_TEXT	ENDS
; Function compile flags: /Ogtp
; File C:\IAGOS\server\v18\Source\Source\_Network\Net\Include\buffer.h
;	COMDAT ?SetHeader@CBuffer@@UAEXK@Z
_TEXT	SEGMENT
_uDataSize$ = 8						; size = 4
?SetHeader@CBuffer@@UAEXK@Z PROC			; CBuffer::SetHeader, COMDAT
; _this$ = ecx

; 75   : 	{

  00000	55		 push	 ebp
  00001	8b ec		 mov	 ebp, esp

; 76   : 		*m_pTail					= HEADERMARK;

  00003	8b 81 18 20 00
	00		 mov	 eax, DWORD PTR [ecx+8216]
  00009	c6 00 5e	 mov	 BYTE PTR [eax], 94	; 0000005eH

; 77   : 		m_pTail++;

  0000c	ff 81 18 20 00
	00		 inc	 DWORD PTR [ecx+8216]
  00012	8b 91 18 20 00
	00		 mov	 edx, DWORD PTR [ecx+8216]

; 78   : 
; 79   : 		*(UNALIGNED DWORD*)m_pTail	= (DWORD)uDataSize;

  00018	8b 45 08	 mov	 eax, DWORD PTR _uDataSize$[ebp]
  0001b	89 02		 mov	 DWORD PTR [edx], eax

; 80   : 		m_pTail += sizeof(DWORD);

  0001d	83 81 18 20 00
	00 04		 add	 DWORD PTR [ecx+8216], 4

; 81   : 	}

  00024	5d		 pop	 ebp
  00025	c2 04 00	 ret	 4
?SetHeader@CBuffer@@UAEXK@Z ENDP			; CBuffer::SetHeader
_TEXT	ENDS
; Function compile flags: /Ogtp
; File C:\IAGOS\server\v18\Source\Source\_Network\Net\Include\buffer.h
;	COMDAT ?GetPacketSize@CBuffer@@UAEKPAE@Z
_TEXT	SEGMENT
_ptr$ = 8						; size = 4
?GetPacketSize@CBuffer@@UAEKPAE@Z PROC			; CBuffer::GetPacketSize, COMDAT
; _this$ = ecx

; 70   : 	{

  00000	55		 push	 ebp
  00001	8b ec		 mov	 ebp, esp

; 71   : 		return *(UNALIGNED LPDWORD)(ptr + 1);

  00003	8b 45 08	 mov	 eax, DWORD PTR _ptr$[ebp]
  00006	8b 40 01	 mov	 eax, DWORD PTR [eax+1]

; 72   : 	}

  00009	5d		 pop	 ebp
  0000a	c2 04 00	 ret	 4
?GetPacketSize@CBuffer@@UAEKPAE@Z ENDP			; CBuffer::GetPacketSize
_TEXT	ENDS
; Function compile flags: /Ogtp
; File C:\IAGOS\server\v18\Source\Source\_network\net\src\buffer.cpp
;	COMDAT ??1CBuffer@@UAE@XZ
_TEXT	SEGMENT
__$EHRec$ = -12						; size = 12
??1CBuffer@@UAE@XZ PROC					; CBuffer::~CBuffer, COMDAT
; _this$ = ecx

; 56   : {

  00000	55		 push	 ebp
  00001	8b ec		 mov	 ebp, esp
  00003	6a ff		 push	 -1
  00005	68 00 00 00 00	 push	 __ehhandler$??1CBuffer@@UAE@XZ
  0000a	64 a1 00 00 00
	00		 mov	 eax, DWORD PTR fs:0
  00010	50		 push	 eax
  00011	a1 00 00 00 00	 mov	 eax, DWORD PTR ___security_cookie
  00016	33 c5		 xor	 eax, ebp
  00018	50		 push	 eax
  00019	8d 45 f4	 lea	 eax, DWORD PTR __$EHRec$[ebp]
  0001c	64 a3 00 00 00
	00		 mov	 DWORD PTR fs:0, eax

; 57   : 	if( m_lpBufMax - m_lpBufStart > MAX_BUFFER )

  00022	8b 81 10 20 00
	00		 mov	 eax, DWORD PTR [ecx+8208]
  00028	8b 91 0c 20 00
	00		 mov	 edx, DWORD PTR [ecx+8204]
  0002e	2b c2		 sub	 eax, edx
  00030	c7 01 00 00 00
	00		 mov	 DWORD PTR [ecx], OFFSET ??_7CBuffer@@6B@
  00036	3d 00 20 00 00	 cmp	 eax, 8192		; 00002000H
  0003b	7e 0c		 jle	 SHORT $LN2@CBuffer

; 58   : 	{
; 59   : #ifdef __SO1014
; 60   : 		if( m_lpBufStart )
; 61   : #endif	// __SO1014
; 62   : #ifdef __VM_0819
; 63   : 			CBuffer::m_pHeapMng->Free( m_lpBufStart, GetSize() );
; 64   : #else	// __VM_0819
; 65   : 			CBuffer::m_pHeapMng->Free( m_lpBufStart );

  0003d	8b 0d 00 00 00
	00		 mov	 ecx, DWORD PTR ?m_pHeapMng@CBuffer@@2PAVCHeapMng@@A ; CBuffer::m_pHeapMng
  00043	52		 push	 edx
  00044	e8 00 00 00 00	 call	 ?Free@CHeapMng@@QAEXPAX@Z ; CHeapMng::Free
$LN2@CBuffer:

; 66   : #endif	// __VM_0819
; 67   : 	}
; 68   : }

  00049	8b 4d f4	 mov	 ecx, DWORD PTR __$EHRec$[ebp]
  0004c	64 89 0d 00 00
	00 00		 mov	 DWORD PTR fs:0, ecx
  00053	59		 pop	 ecx
  00054	8b e5		 mov	 esp, ebp
  00056	5d		 pop	 ebp
  00057	c3		 ret	 0
  00058	cc		 int	 3
  00059	cc		 int	 3
  0005a	cc		 int	 3
  0005b	cc		 int	 3
  0005c	cc		 int	 3
_TEXT	ENDS
;	COMDAT text$x
text$x	SEGMENT
__ehhandler$??1CBuffer@@UAE@XZ:
  00000	90		 npad	 1
  00001	90		 npad	 1
  00002	8b 54 24 08	 mov	 edx, DWORD PTR [esp+8]
  00006	8d 42 0c	 lea	 eax, DWORD PTR [edx+12]
  00009	8b 4a fc	 mov	 ecx, DWORD PTR [edx-4]
  0000c	33 c8		 xor	 ecx, eax
  0000e	e8 00 00 00 00	 call	 @__security_check_cookie@4
  00013	b8 00 00 00 00	 mov	 eax, OFFSET __ehfuncinfo$??1CBuffer@@UAE@XZ
  00018	e9 00 00 00 00	 jmp	 ___CxxFrameHandler3
text$x	ENDS
??1CBuffer@@UAE@XZ ENDP					; CBuffer::~CBuffer
; Function compile flags: /Ogtp
; File C:\IAGOS\server\v18\Source\Source\_network\net\src\buffer.cpp
;	COMDAT ??0CBuffer@@QAE@K@Z
_TEXT	SEGMENT
_uBufSize$ = 8						; size = 4
??0CBuffer@@QAE@K@Z PROC				; CBuffer::CBuffer, COMDAT
; _this$ = ecx

; 38   : {

  00000	55		 push	 ebp
  00001	8b ec		 mov	 ebp, esp
  00003	56		 push	 esi
  00004	8b f1		 mov	 esi, ecx
  00006	57		 push	 edi

; 39   : 	if( uBufSize > MAX_BUFFER ) {

  00007	8b 7d 08	 mov	 edi, DWORD PTR _uBufSize$[ebp]
  0000a	c7 06 00 00 00
	00		 mov	 DWORD PTR [esi], OFFSET ??_7CBuffer@@6B@
  00010	81 ff 00 20 00
	00		 cmp	 edi, 8192		; 00002000H
  00016	76 0e		 jbe	 SHORT $LN2@CBuffer

; 40   : 		m_lpBufStart	= (LPBYTE)CBuffer::m_pHeapMng->Malloc( uBufSize );

  00018	8b 0d 00 00 00
	00		 mov	 ecx, DWORD PTR ?m_pHeapMng@CBuffer@@2PAVCHeapMng@@A ; CBuffer::m_pHeapMng
  0001e	57		 push	 edi
  0001f	e8 00 00 00 00	 call	 ?Malloc@CHeapMng@@QAEPAXI@Z ; CHeapMng::Malloc

; 41   : //		ASSERT( m_lpBufStart );
; 42   : 	}

  00024	eb 08		 jmp	 SHORT $LN3@CBuffer
$LN2@CBuffer:

; 43   : 	else {
; 44   : 		m_lpBufStart	= m_lpBuf;
; 45   : 		uBufSize	= MAX_BUFFER;

  00026	bf 00 20 00 00	 mov	 edi, 8192		; 00002000H
  0002b	8d 46 0c	 lea	 eax, DWORD PTR [esi+12]
$LN3@CBuffer:

; 46   : 	}
; 47   : 	m_pHead		= m_pTail	= m_lpBufStart;

  0002e	89 86 0c 20 00
	00		 mov	 DWORD PTR [esi+8204], eax
  00034	89 86 18 20 00
	00		 mov	 DWORD PTR [esi+8216], eax
  0003a	89 86 14 20 00
	00		 mov	 DWORD PTR [esi+8212], eax

; 48   : 	m_lpBufMax	= m_lpBufStart + uBufSize;

  00040	03 c7		 add	 eax, edi
  00042	89 86 10 20 00
	00		 mov	 DWORD PTR [esi+8208], eax

; 49   : 	cb	= 0;
; 50   : 	dpid	= DPID_UNKNOWN;
; 51   : 	pPrevious	= pNext		= NULL;
; 52   : 	m_dwHeaderSize = sizeof(DWORD) + 1;
; 53   : }

  00048	8b c6		 mov	 eax, esi
  0004a	5f		 pop	 edi
  0004b	c7 46 08 00 00
	00 00		 mov	 DWORD PTR [esi+8], 0
  00052	c7 46 04 ff ff
	ff ff		 mov	 DWORD PTR [esi+4], -1
  00059	c7 86 1c 20 00
	00 00 00 00 00	 mov	 DWORD PTR [esi+8220], 0
  00063	c7 86 20 20 00
	00 00 00 00 00	 mov	 DWORD PTR [esi+8224], 0
  0006d	c7 86 24 20 00
	00 05 00 00 00	 mov	 DWORD PTR [esi+8228], 5
  00077	5e		 pop	 esi
  00078	5d		 pop	 ebp
  00079	c2 04 00	 ret	 4
??0CBuffer@@QAE@K@Z ENDP				; CBuffer::CBuffer
_TEXT	ENDS
; Function compile flags: /Ogtp
; File C:\Program Files\Microsoft Visual Studio\2022\Professional\VC\Tools\MSVC\14.44.35207\include\list
; File C:\Program Files\Microsoft Visual Studio\2022\Professional\VC\Tools\MSVC\14.44.35207\include\xmemory
; File C:\Program Files\Microsoft Visual Studio\2022\Professional\VC\Tools\MSVC\14.44.35207\include\list
; File C:\Program Files\Microsoft Visual Studio\2022\Professional\VC\Tools\MSVC\14.44.35207\include\xmemory
; File C:\Program Files\Microsoft Visual Studio\2022\Professional\VC\Tools\MSVC\14.44.35207\include\list
; File C:\Program Files\Microsoft Visual Studio\2022\Professional\VC\Tools\MSVC\14.44.35207\include\xmemory
; File C:\Program Files\Microsoft Visual Studio\2022\Professional\VC\Tools\MSVC\14.44.35207\include\list
;	COMDAT ?push_back@?$list@PAXV?$allocator@PAX@std@@@std@@QAEXABQAX@Z
_TEXT	SEGMENT
__Op$2 = -20						; size = 8
__$EHRec$ = -12						; size = 12
__Val$ = 8						; size = 4
?push_back@?$list@PAXV?$allocator@PAX@std@@@std@@QAEXABQAX@Z PROC ; std::list<void *,std::allocator<void *> >::push_back, COMDAT
; _this$ = ecx

; 1273 :     void push_back(const _Ty& _Val) {

  00000	55		 push	 ebp
  00001	8b ec		 mov	 ebp, esp
  00003	6a ff		 push	 -1
  00005	68 00 00 00 00	 push	 __ehhandler$?push_back@?$list@PAXV?$allocator@PAX@std@@@std@@QAEXABQAX@Z
  0000a	64 a1 00 00 00
	00		 mov	 eax, DWORD PTR fs:0
  00010	50		 push	 eax
  00011	83 ec 08	 sub	 esp, 8
  00014	56		 push	 esi
  00015	57		 push	 edi
  00016	a1 00 00 00 00	 mov	 eax, DWORD PTR ___security_cookie
  0001b	33 c5		 xor	 eax, ebp
  0001d	50		 push	 eax
  0001e	8d 45 f4	 lea	 eax, DWORD PTR __$EHRec$[ebp]
  00021	64 a3 00 00 00
	00		 mov	 DWORD PTR fs:0, eax
  00027	8b f1		 mov	 esi, ecx

; 1030 :         if (_Mysize == max_size()) {

  00029	81 7e 04 55 55
	55 15		 cmp	 DWORD PTR [esi+4], 357913941 ; 15555555H

; 1274 :         _Emplace(_Mypair._Myval2._Myhead, _Val);

  00030	8b 3e		 mov	 edi, DWORD PTR [esi]

; 1030 :         if (_Mysize == max_size()) {

  00032	74 46		 je	 SHORT $LN61@push_back
; File C:\Program Files\Microsoft Visual Studio\2022\Professional\VC\Tools\MSVC\14.44.35207\include\xmemory

; 1160 :     _CONSTEXPR20 explicit _Alloc_construct_ptr(_Alloc& _Al_) : _Al(_Al_), _Ptr(nullptr) {}

  00034	89 75 ec	 mov	 DWORD PTR __Op$2[ebp], esi

; 136  :         return ::operator new(_Bytes);

  00037	6a 0c		 push	 12			; 0000000cH
; File C:\Program Files\Microsoft Visual Studio\2022\Professional\VC\Tools\MSVC\14.44.35207\include\list

; 593  :     explicit _List_node_emplace_op2(_Alnode& _Al_, _Valtys&&... _Vals) : _Alloc_construct_ptr<_Alnode>(_Al_) {

  00039	c7 45 fc 00 00
	00 00		 mov	 DWORD PTR __$EHRec$[ebp+8], 0
; File C:\Program Files\Microsoft Visual Studio\2022\Professional\VC\Tools\MSVC\14.44.35207\include\xmemory

; 1167 :         _Ptr = nullptr; // if allocate throws, prevents double-free

  00040	c7 45 f0 00 00
	00 00		 mov	 DWORD PTR __Op$2[ebp+4], 0

; 136  :         return ::operator new(_Bytes);

  00047	e8 00 00 00 00	 call	 ??2@YAPAXI@Z		; operator new
; File C:\Program Files\Microsoft Visual Studio\2022\Professional\VC\Tools\MSVC\14.44.35207\include\list

; 595  :         _Alnode_traits::construct(this->_Al, _STD addressof(this->_Ptr->_Myval), _STD forward<_Valtys>(_Vals)...);

  0004c	8b 4d 08	 mov	 ecx, DWORD PTR __Val$[ebp]
; File C:\Program Files\Microsoft Visual Studio\2022\Professional\VC\Tools\MSVC\14.44.35207\include\xmemory

; 136  :         return ::operator new(_Bytes);

  0004f	83 c4 04	 add	 esp, 4
; File C:\Program Files\Microsoft Visual Studio\2022\Professional\VC\Tools\MSVC\14.44.35207\include\list

; 595  :         _Alnode_traits::construct(this->_Al, _STD addressof(this->_Ptr->_Myval), _STD forward<_Valtys>(_Vals)...);

  00052	8b 09		 mov	 ecx, DWORD PTR [ecx]
  00054	89 48 08	 mov	 DWORD PTR [eax+8], ecx

; 1035 :         ++_Mysize;

  00057	ff 46 04	 inc	 DWORD PTR [esi+4]

; 608  :         const pointer _Insert_after = _Insert_before->_Prev;

  0005a	8b 4f 04	 mov	 ecx, DWORD PTR [edi+4]

; 609  :         _Construct_in_place(this->_Ptr->_Next, _Insert_before);

  0005d	89 38		 mov	 DWORD PTR [eax], edi

; 610  :         _Construct_in_place(this->_Ptr->_Prev, _Insert_after);

  0005f	89 48 04	 mov	 DWORD PTR [eax+4], ecx

; 611  :         const auto _Result    = this->_Ptr;
; 612  :         this->_Ptr            = pointer{};
; 613  :         _Insert_before->_Prev = _Result;

  00062	89 47 04	 mov	 DWORD PTR [edi+4], eax

; 614  :         _Insert_after->_Next  = _Result;

  00065	89 01		 mov	 DWORD PTR [ecx], eax

; 1275 :     }

  00067	8b 4d f4	 mov	 ecx, DWORD PTR __$EHRec$[ebp]
  0006a	64 89 0d 00 00
	00 00		 mov	 DWORD PTR fs:0, ecx
  00071	59		 pop	 ecx
  00072	5f		 pop	 edi
  00073	5e		 pop	 esi
  00074	8b e5		 mov	 esp, ebp
  00076	5d		 pop	 ebp
  00077	c2 04 00	 ret	 4
$LN61@push_back:

; 1031 :             _Xlength_error("list too long");

  0007a	68 00 00 00 00	 push	 OFFSET ??_C@_0O@NKNMEGII@list?5too?5long@
  0007f	e8 00 00 00 00	 call	 ?_Xlength_error@std@@YAXPBD@Z ; std::_Xlength_error
$LN59@push_back:
  00084	cc		 int	 3
_TEXT	ENDS
;	COMDAT text$x
text$x	SEGMENT
__unwindfunclet$?push_back@?$list@PAXV?$allocator@PAX@std@@@std@@QAEXABQAX@Z$1:
  00000	8d 4d ec	 lea	 ecx, DWORD PTR __Op$2[ebp]
  00003	e9 00 00 00 00	 jmp	 ??1?$_Alloc_construct_ptr@V?$allocator@U?$_List_node@PAXPAX@std@@@std@@@std@@QAE@XZ ; std::_Alloc_construct_ptr<std::allocator<std::_List_node<void *,void *> > >::~_Alloc_construct_ptr<std::allocator<std::_List_node<void *,void *> > >
  00008	cc		 int	 3
  00009	cc		 int	 3
  0000a	cc		 int	 3
  0000b	cc		 int	 3
  0000c	cc		 int	 3
__ehhandler$?push_back@?$list@PAXV?$allocator@PAX@std@@@std@@QAEXABQAX@Z:
  0000d	90		 npad	 1
  0000e	90		 npad	 1
  0000f	8b 54 24 08	 mov	 edx, DWORD PTR [esp+8]
  00013	8d 42 0c	 lea	 eax, DWORD PTR [edx+12]
  00016	8b 4a ec	 mov	 ecx, DWORD PTR [edx-20]
  00019	33 c8		 xor	 ecx, eax
  0001b	e8 00 00 00 00	 call	 @__security_check_cookie@4
  00020	b8 00 00 00 00	 mov	 eax, OFFSET __ehfuncinfo$?push_back@?$list@PAXV?$allocator@PAX@std@@@std@@QAEXABQAX@Z
  00025	e9 00 00 00 00	 jmp	 ___CxxFrameHandler3
text$x	ENDS
?push_back@?$list@PAXV?$allocator@PAX@std@@@std@@QAEXABQAX@Z ENDP ; std::list<void *,std::allocator<void *> >::push_back
; Function compile flags: /Ogtp
; File C:\Program Files\Microsoft Visual Studio\2022\Professional\VC\Tools\MSVC\14.44.35207\include\list
; File C:\Program Files\Microsoft Visual Studio\2022\Professional\VC\Tools\MSVC\14.44.35207\include\xmemory
; File C:\Program Files\Microsoft Visual Studio\2022\Professional\VC\Tools\MSVC\14.44.35207\include\list
; File C:\Program Files\Microsoft Visual Studio\2022\Professional\VC\Tools\MSVC\14.44.35207\include\xmemory
; File C:\Program Files\Microsoft Visual Studio\2022\Professional\VC\Tools\MSVC\14.44.35207\include\list
;	COMDAT ??1?$list@PAXV?$allocator@PAX@std@@@std@@QAE@XZ
_TEXT	SEGMENT
??1?$list@PAXV?$allocator@PAX@std@@@std@@QAE@XZ PROC	; std::list<void *,std::allocator<void *> >::~list<void *,std::allocator<void *> >, COMDAT
; _this$ = ecx

; 1060 :     ~list() noexcept {

  00000	57		 push	 edi
  00001	8b f9		 mov	 edi, ecx

; 1518 :         _Node::_Free_non_head(_Al, _My_data._Myhead);

  00003	8b 17		 mov	 edx, DWORD PTR [edi]

; 324  :         _Head->_Prev->_Next = nullptr;

  00005	8b 42 04	 mov	 eax, DWORD PTR [edx+4]
  00008	c7 00 00 00 00
	00		 mov	 DWORD PTR [eax], 0

; 325  : 
; 326  :         auto _Pnode = _Head->_Next;

  0000e	8b 02		 mov	 eax, DWORD PTR [edx]

; 327  :         for (_Nodeptr _Pnext; _Pnode; _Pnode = _Pnext) {

  00010	85 c0		 test	 eax, eax
  00012	74 15		 je	 SHORT $LN57@list
  00014	56		 push	 esi
$LL10@list:

; 328  :             _Pnext = _Pnode->_Next;

  00015	8b 30		 mov	 esi, DWORD PTR [eax]
; File C:\Program Files\Microsoft Visual Studio\2022\Professional\VC\Tools\MSVC\14.44.35207\include\xmemory

; 289  :         ::operator delete(_Ptr, _Bytes);

  00017	6a 0c		 push	 12			; 0000000cH
  00019	50		 push	 eax
  0001a	e8 00 00 00 00	 call	 ??3@YAXPAXI@Z		; operator delete
  0001f	83 c4 08	 add	 esp, 8
; File C:\Program Files\Microsoft Visual Studio\2022\Professional\VC\Tools\MSVC\14.44.35207\include\list

; 327  :         for (_Nodeptr _Pnext; _Pnode; _Pnode = _Pnext) {

  00022	8b c6		 mov	 eax, esi
  00024	85 f6		 test	 esi, esi
  00026	75 ed		 jne	 SHORT $LL10@list
  00028	5e		 pop	 esi
$LN57@list:
; File C:\Program Files\Microsoft Visual Studio\2022\Professional\VC\Tools\MSVC\14.44.35207\include\xmemory

; 289  :         ::operator delete(_Ptr, _Bytes);

  00029	6a 0c		 push	 12			; 0000000cH
  0002b	ff 37		 push	 DWORD PTR [edi]
  0002d	e8 00 00 00 00	 call	 ??3@YAXPAXI@Z		; operator delete
  00032	83 c4 08	 add	 esp, 8
  00035	5f		 pop	 edi
; File C:\Program Files\Microsoft Visual Studio\2022\Professional\VC\Tools\MSVC\14.44.35207\include\list

; 1066 :     }

  00036	c3		 ret	 0
??1?$list@PAXV?$allocator@PAX@std@@@std@@QAE@XZ ENDP	; std::list<void *,std::allocator<void *> >::~list<void *,std::allocator<void *> >
_TEXT	ENDS
; Function compile flags: /Ogtp
; File C:\IAGOS\server\v18\Source\Source\_Network\Mcl\Include\CMclCritSec.h
;	COMDAT ??_GCMclCritSec@@UAEPAXI@Z
_TEXT	SEGMENT
___flags$ = 8						; size = 4
??_GCMclCritSec@@UAEPAXI@Z PROC				; CMclCritSec::`scalar deleting destructor', COMDAT
; _this$ = ecx
  00000	55		 push	 ebp
  00001	8b ec		 mov	 ebp, esp

; 26   : 	{

  00003	56		 push	 esi
  00004	8b f1		 mov	 esi, ecx

; 27   : 		::DeleteCriticalSection( &m_CritSec );

  00006	8d 46 04	 lea	 eax, DWORD PTR [esi+4]
  00009	c7 06 00 00 00
	00		 mov	 DWORD PTR [esi], OFFSET ??_7CMclCritSec@@6B@
  0000f	50		 push	 eax
  00010	ff 15 00 00 00
	00		 call	 DWORD PTR __imp__DeleteCriticalSection@4
  00016	f6 45 08 01	 test	 BYTE PTR ___flags$[ebp], 1
  0001a	74 0b		 je	 SHORT $LN8@scalar
  0001c	6a 1c		 push	 28			; 0000001cH
  0001e	56		 push	 esi
  0001f	e8 00 00 00 00	 call	 ??3@YAXPAXI@Z		; operator delete
  00024	83 c4 08	 add	 esp, 8
$LN8@scalar:
  00027	8b c6		 mov	 eax, esi
  00029	5e		 pop	 esi
  0002a	5d		 pop	 ebp
  0002b	c2 04 00	 ret	 4
??_GCMclCritSec@@UAEPAXI@Z ENDP				; CMclCritSec::`scalar deleting destructor'
_TEXT	ENDS
; Function compile flags: /Ogtp
; File C:\IAGOS\server\v18\Source\Source\_Network\Mcl\Include\CMclCritSec.h
;	COMDAT ??1CMclCritSec@@UAE@XZ
_TEXT	SEGMENT
??1CMclCritSec@@UAE@XZ PROC				; CMclCritSec::~CMclCritSec, COMDAT
; _this$ = ecx

; 27   : 		::DeleteCriticalSection( &m_CritSec );

  00000	8d 41 04	 lea	 eax, DWORD PTR [ecx+4]
  00003	c7 01 00 00 00
	00		 mov	 DWORD PTR [ecx], OFFSET ??_7CMclCritSec@@6B@
  00009	50		 push	 eax
  0000a	ff 15 00 00 00
	00		 call	 DWORD PTR __imp__DeleteCriticalSection@4

; 28   : 	}

  00010	c3		 ret	 0
??1CMclCritSec@@UAE@XZ ENDP				; CMclCritSec::~CMclCritSec
_TEXT	ENDS
; Function compile flags: /Ogtp
; File C:\Program Files\Microsoft Visual Studio\2022\Professional\VC\Tools\MSVC\14.44.35207\include\xmemory
;	COMDAT ?_Throw_bad_array_new_length@std@@YAXXZ
_TEXT	SEGMENT
$T1 = -12						; size = 12
?_Throw_bad_array_new_length@std@@YAXXZ PROC		; std::_Throw_bad_array_new_length, COMDAT

; 107  : [[noreturn]] inline void _Throw_bad_array_new_length() {

  00000	55		 push	 ebp
  00001	8b ec		 mov	 ebp, esp
  00003	83 ec 0c	 sub	 esp, 12			; 0000000cH

; 108  :     _THROW(bad_array_new_length{});

  00006	8d 4d f4	 lea	 ecx, DWORD PTR $T1[ebp]
  00009	e8 00 00 00 00	 call	 ??0bad_array_new_length@std@@QAE@XZ ; std::bad_array_new_length::bad_array_new_length
  0000e	68 00 00 00 00	 push	 OFFSET __TI3?AVbad_array_new_length@std@@
  00013	8d 45 f4	 lea	 eax, DWORD PTR $T1[ebp]
  00016	50		 push	 eax
  00017	e8 00 00 00 00	 call	 __CxxThrowException@8
$LN3@Throw_bad_:
  0001c	cc		 int	 3
?_Throw_bad_array_new_length@std@@YAXXZ ENDP		; std::_Throw_bad_array_new_length
_TEXT	ENDS
; Function compile flags: /Ogtp
; File C:\Program Files\Microsoft Visual Studio\2022\Professional\VC\Tools\MSVC\14.44.35207\include\vcruntime_exception.h
;	COMDAT ??_Gbad_array_new_length@std@@UAEPAXI@Z
_TEXT	SEGMENT
___flags$ = 8						; size = 4
??_Gbad_array_new_length@std@@UAEPAXI@Z PROC		; std::bad_array_new_length::`scalar deleting destructor', COMDAT
; _this$ = ecx
  00000	55		 push	 ebp
  00001	8b ec		 mov	 ebp, esp

; 90   :     {

  00003	56		 push	 esi
  00004	8b f1		 mov	 esi, ecx

; 91   :         __std_exception_destroy(&_Data);

  00006	8d 46 04	 lea	 eax, DWORD PTR [esi+4]
  00009	c7 06 00 00 00
	00		 mov	 DWORD PTR [esi], OFFSET ??_7exception@std@@6B@
  0000f	50		 push	 eax
  00010	e8 00 00 00 00	 call	 ___std_exception_destroy
  00015	83 c4 04	 add	 esp, 4
  00018	f6 45 08 01	 test	 BYTE PTR ___flags$[ebp], 1
  0001c	74 0b		 je	 SHORT $LN18@scalar
  0001e	6a 0c		 push	 12			; 0000000cH
  00020	56		 push	 esi
  00021	e8 00 00 00 00	 call	 ??3@YAXPAXI@Z		; operator delete
  00026	83 c4 08	 add	 esp, 8
$LN18@scalar:
  00029	8b c6		 mov	 eax, esi
  0002b	5e		 pop	 esi
  0002c	5d		 pop	 ebp
  0002d	c2 04 00	 ret	 4
??_Gbad_array_new_length@std@@UAEPAXI@Z ENDP		; std::bad_array_new_length::`scalar deleting destructor'
_TEXT	ENDS
; Function compile flags: /Ogtp
; File C:\Program Files\Microsoft Visual Studio\2022\Professional\VC\Tools\MSVC\14.44.35207\include\vcruntime_exception.h
;	COMDAT ??0bad_array_new_length@std@@QAE@ABV01@@Z
_TEXT	SEGMENT
___that$ = 8						; size = 4
??0bad_array_new_length@std@@QAE@ABV01@@Z PROC		; std::bad_array_new_length::bad_array_new_length, COMDAT
; _this$ = ecx
  00000	55		 push	 ebp
  00001	8b ec		 mov	 ebp, esp

; 73   :     {

  00003	56		 push	 esi
  00004	8b f1		 mov	 esi, ecx
  00006	0f 57 c0	 xorps	 xmm0, xmm0

; 72   :         : _Data()

  00009	8d 46 04	 lea	 eax, DWORD PTR [esi+4]

; 74   :         __std_exception_copy(&_Other._Data, &_Data);

  0000c	50		 push	 eax
  0000d	c7 06 00 00 00
	00		 mov	 DWORD PTR [esi], OFFSET ??_7exception@std@@6B@
  00013	66 0f d6 00	 movq	 QWORD PTR [eax], xmm0
  00017	8b 45 08	 mov	 eax, DWORD PTR ___that$[ebp]
  0001a	83 c0 04	 add	 eax, 4
  0001d	50		 push	 eax
  0001e	e8 00 00 00 00	 call	 ___std_exception_copy
  00023	83 c4 08	 add	 esp, 8
  00026	c7 06 00 00 00
	00		 mov	 DWORD PTR [esi], OFFSET ??_7bad_array_new_length@std@@6B@
  0002c	8b c6		 mov	 eax, esi
  0002e	5e		 pop	 esi
  0002f	5d		 pop	 ebp
  00030	c2 04 00	 ret	 4
??0bad_array_new_length@std@@QAE@ABV01@@Z ENDP		; std::bad_array_new_length::bad_array_new_length
_TEXT	ENDS
; Function compile flags: /Ogtp
; File C:\Program Files\Microsoft Visual Studio\2022\Professional\VC\Tools\MSVC\14.44.35207\include\vcruntime_exception.h
;	COMDAT ??1bad_array_new_length@std@@UAE@XZ
_TEXT	SEGMENT
??1bad_array_new_length@std@@UAE@XZ PROC		; std::bad_array_new_length::~bad_array_new_length, COMDAT
; _this$ = ecx

; 91   :         __std_exception_destroy(&_Data);

  00000	8d 41 04	 lea	 eax, DWORD PTR [ecx+4]
  00003	c7 01 00 00 00
	00		 mov	 DWORD PTR [ecx], OFFSET ??_7exception@std@@6B@
  00009	50		 push	 eax
  0000a	e8 00 00 00 00	 call	 ___std_exception_destroy
  0000f	59		 pop	 ecx
  00010	c3		 ret	 0
??1bad_array_new_length@std@@UAE@XZ ENDP		; std::bad_array_new_length::~bad_array_new_length
_TEXT	ENDS
; Function compile flags: /Ogtp
; File C:\Program Files\Microsoft Visual Studio\2022\Professional\VC\Tools\MSVC\14.44.35207\include\vcruntime_exception.h
;	COMDAT ??0bad_array_new_length@std@@QAE@XZ
_TEXT	SEGMENT
??0bad_array_new_length@std@@QAE@XZ PROC		; std::bad_array_new_length::bad_array_new_length, COMDAT
; _this$ = ecx

; 144  :     {

  00000	0f 57 c0	 xorps	 xmm0, xmm0

; 145  :     }

  00003	8b c1		 mov	 eax, ecx

; 66   :         : _Data()

  00005	66 0f d6 41 04	 movq	 QWORD PTR [ecx+4], xmm0

; 67   :     {
; 68   :         _Data._What = _Message;

  0000a	c7 41 04 00 00
	00 00		 mov	 DWORD PTR [ecx+4], OFFSET ??_C@_0BF@KINCDENJ@bad?5array?5new?5length@

; 144  :     {

  00011	c7 01 00 00 00
	00		 mov	 DWORD PTR [ecx], OFFSET ??_7bad_array_new_length@std@@6B@

; 145  :     }

  00017	c3		 ret	 0
??0bad_array_new_length@std@@QAE@XZ ENDP		; std::bad_array_new_length::bad_array_new_length
_TEXT	ENDS
; Function compile flags: /Ogtp
; File C:\Program Files\Microsoft Visual Studio\2022\Professional\VC\Tools\MSVC\14.44.35207\include\vcruntime_exception.h
;	COMDAT ??_Gbad_alloc@std@@UAEPAXI@Z
_TEXT	SEGMENT
___flags$ = 8						; size = 4
??_Gbad_alloc@std@@UAEPAXI@Z PROC			; std::bad_alloc::`scalar deleting destructor', COMDAT
; _this$ = ecx
  00000	55		 push	 ebp
  00001	8b ec		 mov	 ebp, esp

; 90   :     {

  00003	56		 push	 esi
  00004	8b f1		 mov	 esi, ecx

; 91   :         __std_exception_destroy(&_Data);

  00006	8d 46 04	 lea	 eax, DWORD PTR [esi+4]
  00009	c7 06 00 00 00
	00		 mov	 DWORD PTR [esi], OFFSET ??_7exception@std@@6B@
  0000f	50		 push	 eax
  00010	e8 00 00 00 00	 call	 ___std_exception_destroy
  00015	83 c4 04	 add	 esp, 4
  00018	f6 45 08 01	 test	 BYTE PTR ___flags$[ebp], 1
  0001c	74 0b		 je	 SHORT $LN13@scalar
  0001e	6a 0c		 push	 12			; 0000000cH
  00020	56		 push	 esi
  00021	e8 00 00 00 00	 call	 ??3@YAXPAXI@Z		; operator delete
  00026	83 c4 08	 add	 esp, 8
$LN13@scalar:
  00029	8b c6		 mov	 eax, esi
  0002b	5e		 pop	 esi
  0002c	5d		 pop	 ebp
  0002d	c2 04 00	 ret	 4
??_Gbad_alloc@std@@UAEPAXI@Z ENDP			; std::bad_alloc::`scalar deleting destructor'
_TEXT	ENDS
; Function compile flags: /Ogtp
; File C:\Program Files\Microsoft Visual Studio\2022\Professional\VC\Tools\MSVC\14.44.35207\include\vcruntime_exception.h
;	COMDAT ??0bad_alloc@std@@QAE@ABV01@@Z
_TEXT	SEGMENT
___that$ = 8						; size = 4
??0bad_alloc@std@@QAE@ABV01@@Z PROC			; std::bad_alloc::bad_alloc, COMDAT
; _this$ = ecx
  00000	55		 push	 ebp
  00001	8b ec		 mov	 ebp, esp

; 73   :     {

  00003	56		 push	 esi
  00004	8b f1		 mov	 esi, ecx
  00006	0f 57 c0	 xorps	 xmm0, xmm0

; 72   :         : _Data()

  00009	8d 46 04	 lea	 eax, DWORD PTR [esi+4]

; 74   :         __std_exception_copy(&_Other._Data, &_Data);

  0000c	50		 push	 eax
  0000d	c7 06 00 00 00
	00		 mov	 DWORD PTR [esi], OFFSET ??_7exception@std@@6B@
  00013	66 0f d6 00	 movq	 QWORD PTR [eax], xmm0
  00017	8b 45 08	 mov	 eax, DWORD PTR ___that$[ebp]
  0001a	83 c0 04	 add	 eax, 4
  0001d	50		 push	 eax
  0001e	e8 00 00 00 00	 call	 ___std_exception_copy
  00023	83 c4 08	 add	 esp, 8
  00026	c7 06 00 00 00
	00		 mov	 DWORD PTR [esi], OFFSET ??_7bad_alloc@std@@6B@
  0002c	8b c6		 mov	 eax, esi
  0002e	5e		 pop	 esi
  0002f	5d		 pop	 ebp
  00030	c2 04 00	 ret	 4
??0bad_alloc@std@@QAE@ABV01@@Z ENDP			; std::bad_alloc::bad_alloc
_TEXT	ENDS
; Function compile flags: /Ogtp
; File C:\Program Files\Microsoft Visual Studio\2022\Professional\VC\Tools\MSVC\14.44.35207\include\vcruntime_exception.h
;	COMDAT ??_Gexception@std@@UAEPAXI@Z
_TEXT	SEGMENT
___flags$ = 8						; size = 4
??_Gexception@std@@UAEPAXI@Z PROC			; std::exception::`scalar deleting destructor', COMDAT
; _this$ = ecx
  00000	55		 push	 ebp
  00001	8b ec		 mov	 ebp, esp

; 90   :     {

  00003	56		 push	 esi
  00004	8b f1		 mov	 esi, ecx

; 91   :         __std_exception_destroy(&_Data);

  00006	8d 46 04	 lea	 eax, DWORD PTR [esi+4]
  00009	c7 06 00 00 00
	00		 mov	 DWORD PTR [esi], OFFSET ??_7exception@std@@6B@
  0000f	50		 push	 eax
  00010	e8 00 00 00 00	 call	 ___std_exception_destroy
  00015	83 c4 04	 add	 esp, 4
  00018	f6 45 08 01	 test	 BYTE PTR ___flags$[ebp], 1
  0001c	74 0b		 je	 SHORT $LN8@scalar
  0001e	6a 0c		 push	 12			; 0000000cH
  00020	56		 push	 esi
  00021	e8 00 00 00 00	 call	 ??3@YAXPAXI@Z		; operator delete
  00026	83 c4 08	 add	 esp, 8
$LN8@scalar:
  00029	8b c6		 mov	 eax, esi
  0002b	5e		 pop	 esi
  0002c	5d		 pop	 ebp
  0002d	c2 04 00	 ret	 4
??_Gexception@std@@UAEPAXI@Z ENDP			; std::exception::`scalar deleting destructor'
_TEXT	ENDS
; Function compile flags: /Ogtp
; File C:\Program Files\Microsoft Visual Studio\2022\Professional\VC\Tools\MSVC\14.44.35207\include\vcruntime_exception.h
;	COMDAT ?what@exception@std@@UBEPBDXZ
_TEXT	SEGMENT
?what@exception@std@@UBEPBDXZ PROC			; std::exception::what, COMDAT
; _this$ = ecx

; 96   :         return _Data._What ? _Data._What : "Unknown exception";

  00000	8b 49 04	 mov	 ecx, DWORD PTR [ecx+4]
  00003	b8 00 00 00 00	 mov	 eax, OFFSET ??_C@_0BC@EOODALEL@Unknown?5exception@
  00008	85 c9		 test	 ecx, ecx
  0000a	0f 45 c1	 cmovne	 eax, ecx

; 97   :     }

  0000d	c3		 ret	 0
?what@exception@std@@UBEPBDXZ ENDP			; std::exception::what
_TEXT	ENDS
; Function compile flags: /Ogtp
; File C:\Program Files\Microsoft Visual Studio\2022\Professional\VC\Tools\MSVC\14.44.35207\include\vcruntime_exception.h
;	COMDAT ??1exception@std@@UAE@XZ
_TEXT	SEGMENT
??1exception@std@@UAE@XZ PROC				; std::exception::~exception, COMDAT
; _this$ = ecx

; 91   :         __std_exception_destroy(&_Data);

  00000	8d 41 04	 lea	 eax, DWORD PTR [ecx+4]
  00003	c7 01 00 00 00
	00		 mov	 DWORD PTR [ecx], OFFSET ??_7exception@std@@6B@
  00009	50		 push	 eax
  0000a	e8 00 00 00 00	 call	 ___std_exception_destroy
  0000f	59		 pop	 ecx

; 92   :     }

  00010	c3		 ret	 0
??1exception@std@@UAE@XZ ENDP				; std::exception::~exception
_TEXT	ENDS
; Function compile flags: /Ogtp
; File C:\Program Files\Microsoft Visual Studio\2022\Professional\VC\Tools\MSVC\14.44.35207\include\vcruntime_exception.h
;	COMDAT ??0exception@std@@QAE@ABV01@@Z
_TEXT	SEGMENT
__Other$ = 8						; size = 4
??0exception@std@@QAE@ABV01@@Z PROC			; std::exception::exception, COMDAT
; _this$ = ecx

; 73   :     {

  00000	55		 push	 ebp
  00001	8b ec		 mov	 ebp, esp
  00003	56		 push	 esi
  00004	8b f1		 mov	 esi, ecx
  00006	0f 57 c0	 xorps	 xmm0, xmm0
  00009	8d 46 04	 lea	 eax, DWORD PTR [esi+4]

; 74   :         __std_exception_copy(&_Other._Data, &_Data);

  0000c	50		 push	 eax
  0000d	c7 06 00 00 00
	00		 mov	 DWORD PTR [esi], OFFSET ??_7exception@std@@6B@
  00013	66 0f d6 00	 movq	 QWORD PTR [eax], xmm0
  00017	8b 45 08	 mov	 eax, DWORD PTR __Other$[ebp]
  0001a	83 c0 04	 add	 eax, 4
  0001d	50		 push	 eax
  0001e	e8 00 00 00 00	 call	 ___std_exception_copy
  00023	83 c4 08	 add	 esp, 8

; 75   :     }

  00026	8b c6		 mov	 eax, esi
  00028	5e		 pop	 esi
  00029	5d		 pop	 ebp
  0002a	c2 04 00	 ret	 4
??0exception@std@@QAE@ABV01@@Z ENDP			; std::exception::exception
_TEXT	ENDS
; Function compile flags: /Ogtp
; File C:\IAGOS\server\v18\Source\Source\_network\net\src\buffer.cpp
;	COMDAT ?__empty_global_delete@@YAXPAXI@Z
_TEXT	SEGMENT
___formal$ = 8						; size = 4
___formal$ = 12						; size = 4
?__empty_global_delete@@YAXPAXI@Z PROC			; __empty_global_delete, COMDAT

  00000	c2 00 00	 ret	 0
?__empty_global_delete@@YAXPAXI@Z ENDP			; __empty_global_delete
_TEXT	ENDS
; Function compile flags: /Ogtp
; File C:\IAGOS\server\v18\Source\Source\_network\net\src\buffer.cpp
;	COMDAT ?__empty_global_delete@@YAXPAX@Z
_TEXT	SEGMENT
___formal$ = 8						; size = 4
?__empty_global_delete@@YAXPAX@Z PROC			; __empty_global_delete, COMDAT

  00000	c2 00 00	 ret	 0
?__empty_global_delete@@YAXPAX@Z ENDP			; __empty_global_delete
_TEXT	ENDS
END
