; Listing generated by Microsoft (R) Optimizing Compiler Version 19.44.35225.0 

	TITLE	C:\IAGOS\server\v18\Source\Output\DatabaseServer\Release\CampusDBCtrl.obj
	.686P
	.XMM
	include listing.inc
	.model	flat

INCLUDELIB LIBCMT
INCLUDELIB OLDNAMES

PUBLIC	?__empty_global_delete@@YAXPAX@Z		; __empty_global_delete
PUBLIC	?__empty_global_delete@@YAXPAXI@Z		; __empty_global_delete
PUBLIC	___local_stdio_printf_options
PUBLIC	_sprintf
PUBLIC	??1?$vector@KV?$allocator@K@std@@@std@@QAE@XZ	; std::vector<unsigned long,std::allocator<unsigned long> >::~vector<unsigned long,std::allocator<unsigned long> >
PUBLIC	?OnTimer@CDbController@@UAEXXZ			; CDbController::OnTimer
PUBLIC	?erase@?$_Tree@V?$_Tmap_traits@KKU?$less@K@std@@V?$allocator@U?$pair@$$CBKK@std@@@2@$0A@@std@@@std@@QAEIABK@Z ; std::_Tree<std::_Tmap_traits<unsigned long,unsigned long,std::less<unsigned long>,std::allocator<std::pair<unsigned long const ,unsigned long> >,0> >::erase
PUBLIC	?_Lrotate@?$_Tree_val@U?$_Tree_simple_types@U?$pair@$$CBKK@std@@@std@@@std@@QAEXPAU?$_Tree_node@U?$pair@$$CBKK@std@@PAX@2@@Z ; std::_Tree_val<std::_Tree_simple_types<std::pair<unsigned long const ,unsigned long> > >::_Lrotate
PUBLIC	?_Rrotate@?$_Tree_val@U?$_Tree_simple_types@U?$pair@$$CBKK@std@@@std@@@std@@QAEXPAU?$_Tree_node@U?$pair@$$CBKK@std@@PAX@2@@Z ; std::_Tree_val<std::_Tree_simple_types<std::pair<unsigned long const ,unsigned long> > >::_Rrotate
PUBLIC	?_Extract@?$_Tree_val@U?$_Tree_simple_types@U?$pair@$$CBKK@std@@@std@@@std@@QAEPAU?$_Tree_node@U?$pair@$$CBKK@std@@PAX@2@V?$_Tree_unchecked_const_iterator@V?$_Tree_val@U?$_Tree_simple_types@U?$pair@$$CBKK@std@@@std@@@std@@U_Iterator_base0@2@@2@@Z ; std::_Tree_val<std::_Tree_simple_types<std::pair<unsigned long const ,unsigned long> > >::_Extract
PUBLIC	??E?$_Tree_unchecked_const_iterator@V?$_Tree_val@U?$_Tree_simple_types@U?$pair@$$CBKK@std@@@std@@@std@@U_Iterator_base0@2@@std@@QAEAAV01@XZ ; std::_Tree_unchecked_const_iterator<std::_Tree_val<std::_Tree_simple_types<std::pair<unsigned long const ,unsigned long> > >,std::_Iterator_base0>::operator++
PUBLIC	??0CCampusDBCtrl@@QAE@XZ			; CCampusDBCtrl::CCampusDBCtrl
PUBLIC	??1CCampusDBCtrl@@UAE@XZ			; CCampusDBCtrl::~CCampusDBCtrl
PUBLIC	?Handler@CCampusDBCtrl@@UAEXPAUtagDB_OVERLAPPED_PLUS@@K@Z ; CCampusDBCtrl::Handler
PUBLIC	?CreateLogQuery@CCampusDBCtrl@@AAEXXZ		; CCampusDBCtrl::CreateLogQuery
PUBLIC	?AddCampusMember@CCampusDBCtrl@@AAEXAAVCAr@@@Z	; CCampusDBCtrl::AddCampusMember
PUBLIC	?RemoveCampusMember@CCampusDBCtrl@@AAEXAAVCAr@@@Z ; CCampusDBCtrl::RemoveCampusMember
PUBLIC	?UpdateCampusPoint@CCampusDBCtrl@@AAEXAAVCAr@@@Z ; CCampusDBCtrl::UpdateCampusPoint
PUBLIC	?LoadAllCampus@CCampusDBCtrl@@AAEXXZ		; CCampusDBCtrl::LoadAllCampus
PUBLIC	?SendAllCampus@CCampusDBCtrl@@AAEXK@Z		; CCampusDBCtrl::SendAllCampus
PUBLIC	?InsertCampus@CCampusDBCtrl@@AAEXK@Z		; CCampusDBCtrl::InsertCampus
PUBLIC	?DeleteCampus@CCampusDBCtrl@@AAEXK@Z		; CCampusDBCtrl::DeleteCampus
PUBLIC	?InsertCampusMember@CCampusDBCtrl@@AAEXKKH@Z	; CCampusDBCtrl::InsertCampusMember
PUBLIC	?DeleteCampusMember@CCampusDBCtrl@@AAEXKH@Z	; CCampusDBCtrl::DeleteCampusMember
PUBLIC	?UpdateCampusPoint@CCampusDBCtrl@@AAEHKH@Z	; CCampusDBCtrl::UpdateCampusPoint
PUBLIC	?UpdateCampusId@CCampusDBCtrl@@AAEXKK@Z		; CCampusDBCtrl::UpdateCampusId
PUBLIC	?LogUpdateCampusMember@CCampusDBCtrl@@AAEXKKKD@Z ; CCampusDBCtrl::LogUpdateCampusMember
PUBLIC	?LogUpdateCampusPoint@CCampusDBCtrl@@AAEXKHHD@Z	; CCampusDBCtrl::LogUpdateCampusPoint
PUBLIC	??_GCCampusDBCtrl@@UAEPAXI@Z			; CCampusDBCtrl::`scalar deleting destructor'
PUBLIC	??0CCampusHelper@@QAE@XZ			; CCampusHelper::CCampusHelper
PUBLIC	??1CCampusHelper@@QAE@XZ			; CCampusHelper::~CCampusHelper
PUBLIC	?GetInstance@CCampusHelper@@SAPAV1@XZ		; CCampusHelper::GetInstance
PUBLIC	?GetMaxPupilNum@CCampusHelper@@QAEHH@Z		; CCampusHelper::GetMaxPupilNum
PUBLIC	??$?5H@CAr@@QAEAAV0@AAH@Z			; CAr::operator>><int>
PUBLIC	??$?5K@CAr@@QAEAAV0@AAK@Z			; CAr::operator>><unsigned long>
PUBLIC	??$?5D@CAr@@QAEAAV0@AAD@Z			; CAr::operator>><char>
PUBLIC	??$_Erase_tree@V?$allocator@U?$_Tree_node@U?$pair@$$CBKK@std@@PAX@std@@@std@@@?$_Tree_val@U?$_Tree_simple_types@U?$pair@$$CBKK@std@@@std@@@std@@QAEXAAV?$allocator@U?$_Tree_node@U?$pair@$$CBKK@std@@PAX@std@@@1@PAU?$_Tree_node@U?$pair@$$CBKK@std@@PAX@1@@Z ; std::_Tree_val<std::_Tree_simple_types<std::pair<unsigned long const ,unsigned long> > >::_Erase_tree<std::allocator<std::_Tree_node<std::pair<unsigned long const ,unsigned long>,void *> > >
PUBLIC	?_OptionsStorage@?1??__local_stdio_printf_options@@9@4_KA ; `__local_stdio_printf_options'::`2'::_OptionsStorage
PUBLIC	??_C@_00CNPNBAHC@@				; `string'
PUBLIC	??_C@_09GBAEEKDE@?$CFs?0?5?$CFd?7?$CFs@		; `string'
PUBLIC	??_7CCampusDBCtrl@@6B@				; CCampusDBCtrl::`vftable'
PUBLIC	??_C@_0CP@EFPIHLLF@Can?8t?5connect?5db?3?5CCampusDBCtrl@ ; `string'
PUBLIC	??_C@_0CG@EPNBNDFJ@usp_Campus_Load?5?$EAserverindex?5?$DN?5@ ; `string'
PUBLIC	??_C@_0EC@CBKPOIDK@C?3?2IAGOS?2server?2v18?2Source?2Sour@ ; `string'
PUBLIC	??_C@_08FHGJFCBK@idCampus@			; `string'
PUBLIC	??_C@_0CM@CLANIGHK@usp_CampusMember_Load?5?$EAserverin@ ; `string'
PUBLIC	??_C@_0L@FONFFEJF@m_idPlayer@			; `string'
PUBLIC	??_C@_09FLNBFAEP@nMemberLv@			; `string'
PUBLIC	??_C@_0DE@GGIDIIN@LoadAllCampus?$CI?$CJ?3?5Player?8s?5campu@ ; `string'
PUBLIC	??_C@_0BM@IEAKIJNC@AddPlayerId2CampusId?$CI?$CJ?5fail@ ; `string'
PUBLIC	??_C@_0BC@EFJAFBJB@AddMember?5failed?$CB@	; `string'
PUBLIC	??_C@_0CA@DNIPPDFD@new?5campus?5failed?$CB?5campus?5exist@ ; `string'
PUBLIC	??_C@_0BI@BMKKJLKC@RemoveCampusMember?5fail@	; `string'
PUBLIC	??_C@_0DI@HDOGOKEB@usp_Campus_Insert?5?$EAidCampus?5?$DN?5?$CF@ ; `string'
PUBLIC	??_C@_0DI@GMELEMJP@usp_Campus_Delete?5?$EAidCampus?5?$DN?5?$CF@ ; `string'
PUBLIC	??_C@_0GF@JMBGFEDG@usp_CampusMember_Insert?5?$EAidCamp@ ; `string'
PUBLIC	??_C@_0FG@OBOHOBGA@usp_CampusMember_Delete?5?5?$EAserve@ ; `string'
PUBLIC	??_C@_02MIPIAIAA@U5@				; `string'
PUBLIC	??_C@_0P@HAGDFNOH@m_nCampusPoint@		; `string'
PUBLIC	??_C@_02ODNFFLMD@U6@				; `string'
PUBLIC	??_C@_0HI@KDLLPGLE@usp_CampusLog_Insert?5?5?$EAm_idMast@ ; `string'
PUBLIC	??_C@_0HN@EDLOELGN@usp_CampusPointLog_Insert?5?5?$EAm_i@ ; `string'
PUBLIC	??_C@_0DB@KNEAGAGD@CCampusHelper?5?9?5m_CampusDBCtrl?4@ ; `string'
PUBLIC	??_R4CCampusDBCtrl@@6B@				; CCampusDBCtrl::`RTTI Complete Object Locator'
PUBLIC	??_R0?AVCCampusDBCtrl@@@8			; CCampusDBCtrl `RTTI Type Descriptor'
PUBLIC	??_R3CCampusDBCtrl@@8				; CCampusDBCtrl::`RTTI Class Hierarchy Descriptor'
PUBLIC	??_R2CCampusDBCtrl@@8				; CCampusDBCtrl::`RTTI Base Class Array'
PUBLIC	??_R1A@?0A@EA@CCampusDBCtrl@@8			; CCampusDBCtrl::`RTTI Base Class Descriptor at (0,-1,0,64)'
PUBLIC	??_R1A@?0A@EA@CDbController@@8			; CDbController::`RTTI Base Class Descriptor at (0,-1,0,64)'
PUBLIC	??_R0?AVCDbController@@@8			; CDbController `RTTI Type Descriptor'
PUBLIC	??_R3CDbController@@8				; CDbController::`RTTI Class Hierarchy Descriptor'
PUBLIC	??_R2CDbController@@8				; CDbController::`RTTI Base Class Array'
EXTRN	??2@YAPAXI@Z:PROC				; operator new
EXTRN	??3@YAXPAXI@Z:PROC				; operator delete
EXTRN	_atexit:PROC
EXTRN	__Init_thread_header:PROC
EXTRN	__Init_thread_abort:PROC
EXTRN	__Init_thread_footer:PROC
EXTRN	__invoke_watson:PROC
EXTRN	___stdio_common_vsprintf:PROC
EXTRN	?AfxMessageBox@@YGHPBDII@Z:PROC			; AfxMessageBox
EXTRN	?Error@@YAPBDPBDZZ:PROC				; Error
EXTRN	?WriteLog@@YAXPBDZZ:PROC			; WriteLog
EXTRN	??0CQuery@@QAE@XZ:PROC				; CQuery::CQuery
EXTRN	??1CQuery@@QAE@XZ:PROC				; CQuery::~CQuery
EXTRN	?Connect@CQuery@@QAEHHPAD0PBD@Z:PROC		; CQuery::Connect
EXTRN	?Exec@CQuery@@QAEHPBD@Z:PROC			; CQuery::Exec
EXTRN	?Fetch@CQuery@@QAEHXZ:PROC			; CQuery::Fetch
EXTRN	?GetInt@CQuery@@QAEHPAD@Z:PROC			; CQuery::GetInt
EXTRN	??0CAr@@QAE@PAXI@Z:PROC				; CAr::CAr
EXTRN	??1CAr@@QAE@XZ:PROC				; CAr::~CAr
EXTRN	?GetInstance@CDbManager@@SAAAV1@XZ:PROC		; CDbManager::GetInstance
EXTRN	?DBQryCharacter@CDbManager@@QAEXPAD0KH00HKKMMM0KKKKKMKMHHHKKH0HHHHH_J1000KHMMMHHHHH0DKHHH1HKKH0000000000000H000KHH00K00000KMMMHKK1J00KHHHHHHK0@Z:PROC ; CDbManager::DBQryCharacter
EXTRN	??0CDbController@@QAE@XZ:PROC			; CDbController::CDbController
EXTRN	??1CDbController@@UAE@XZ:PROC			; CDbController::~CDbController
EXTRN	?CreateDbHandler@CDbController@@QAEHK@Z:PROC	; CDbController::CreateDbHandler
EXTRN	?CloseDbHandler@CDbController@@QAEXXZ:PROC	; CDbController::CloseDbHandler
EXTRN	??0CCampusMember@@QAE@XZ:PROC			; CCampusMember::CCampusMember
EXTRN	??1CCampusMember@@QAE@XZ:PROC			; CCampusMember::~CCampusMember
EXTRN	??0CCampus@@QAE@XZ:PROC				; CCampus::CCampus
EXTRN	??1CCampus@@QAE@XZ:PROC				; CCampus::~CCampus
EXTRN	?GetPupilNum@CCampus@@QAEHXZ:PROC		; CCampus::GetPupilNum
EXTRN	?GetAllMemberPlayerId@CCampus@@QAE?AV?$vector@KV?$allocator@K@std@@@std@@XZ:PROC ; CCampus::GetAllMemberPlayerId
EXTRN	?IsMember@CCampus@@QAEHK@Z:PROC			; CCampus::IsMember
EXTRN	?AddMember@CCampus@@QAEHPAVCCampusMember@@@Z:PROC ; CCampus::AddMember
EXTRN	?RemoveMember@CCampus@@QAEHK@Z:PROC		; CCampus::RemoveMember
EXTRN	??0CCampusMng@@QAE@XZ:PROC			; CCampusMng::CCampusMng
EXTRN	??1CCampusMng@@QAE@XZ:PROC			; CCampusMng::~CCampusMng
EXTRN	?Clear@CCampusMng@@QAEXXZ:PROC			; CCampusMng::Clear
EXTRN	?AddCampus@CCampusMng@@QAEKPAVCCampus@@@Z:PROC	; CCampusMng::AddCampus
EXTRN	?RemoveCampus@CCampusMng@@QAEHK@Z:PROC		; CCampusMng::RemoveCampus
EXTRN	?GetCampus@CCampusMng@@QAEPAVCCampus@@K@Z:PROC	; CCampusMng::GetCampus
EXTRN	?AddPlayerId2CampusId@CCampusMng@@QAE_NKK@Z:PROC ; CCampusMng::AddPlayerId2CampusId
EXTRN	?GetCampusIdByPlayerId@CCampusMng@@QAEKK@Z:PROC	; CCampusMng::GetCampusIdByPlayerId
EXTRN	??_ECCampusDBCtrl@@UAEPAXI@Z:PROC		; CCampusDBCtrl::`vector deleting destructor'
EXTRN	?GetInstance@CDPTrans@@SAPAV1@XZ:PROC		; CDPTrans::GetInstance
EXTRN	?SendAllCampus@CDPTrans@@QAEXK@Z:PROC		; CDPTrans::SendAllCampus
EXTRN	?SendAddCampusMember@CDPTrans@@QAEXKKK@Z:PROC	; CDPTrans::SendAddCampusMember
EXTRN	?SendRemoveCampusMember@CDPTrans@@QAEXKK@Z:PROC	; CDPTrans::SendRemoveCampusMember
EXTRN	?SendUpdateCampusPoint@CDPTrans@@QAEXKH@Z:PROC	; CDPTrans::SendUpdateCampusPoint
EXTRN	@__security_check_cookie@4:PROC
EXTRN	___CxxFrameHandler3:PROC
EXTRN	__chkstk:PROC
EXTRN	_memset:PROC
EXTRN	__Init_thread_epoch:DWORD
EXTRN	??_7type_info@@6B@:QWORD			; type_info::`vftable'
EXTRN	?g_DbManager@@3AAVCDbManager@@A:DWORD		; g_DbManager
EXTRN	?DSN_NAME_LOG@@3PADA:BYTE			; DSN_NAME_LOG
EXTRN	?DB_ADMIN_ID_LOG@@3PADA:BYTE			; DB_ADMIN_ID_LOG
EXTRN	?g_appInfo@@3UAppInfo@@A:QWORD			; g_appInfo
EXTRN	___security_cookie:DWORD
EXTRN	__fltused:DWORD
EXTRN	__tls_array:DWORD
EXTRN	__tls_index:DWORD
;	COMDAT ?_OptionsStorage@?1??__local_stdio_printf_options@@9@4_KA
_BSS	SEGMENT
?_OptionsStorage@?1??__local_stdio_printf_options@@9@4_KA DQ 01H DUP (?) ; `__local_stdio_printf_options'::`2'::_OptionsStorage
_BSS	ENDS
;	COMDAT ?sCH@?1??GetInstance@CCampusHelper@@SAPAV2@XZ@4V2@A
_BSS	SEGMENT
?sCH@?1??GetInstance@CCampusHelper@@SAPAV2@XZ@4V2@A DB 01cH DUP (?) ; `CCampusHelper::GetInstance'::`2'::sCH
_BSS	ENDS
;	COMDAT ?$TSS0@?1??GetInstance@CCampusHelper@@SAPAV2@XZ@4HA
_BSS	SEGMENT
?$TSS0@?1??GetInstance@CCampusHelper@@SAPAV2@XZ@4HA DD 01H DUP (?) ; `CCampusHelper::GetInstance'::`2'::$TSS0
_BSS	ENDS
;	COMDAT ??_R2CDbController@@8
rdata$r	SEGMENT
??_R2CDbController@@8 DD FLAT:??_R1A@?0A@EA@CDbController@@8 ; CDbController::`RTTI Base Class Array'
rdata$r	ENDS
;	COMDAT ??_R3CDbController@@8
rdata$r	SEGMENT
??_R3CDbController@@8 DD 00H				; CDbController::`RTTI Class Hierarchy Descriptor'
	DD	00H
	DD	01H
	DD	FLAT:??_R2CDbController@@8
rdata$r	ENDS
;	COMDAT ??_R0?AVCDbController@@@8
data$rs	SEGMENT
??_R0?AVCDbController@@@8 DD FLAT:??_7type_info@@6B@	; CDbController `RTTI Type Descriptor'
	DD	00H
	DB	'.?AVCDbController@@', 00H
data$rs	ENDS
;	COMDAT ??_R1A@?0A@EA@CDbController@@8
rdata$r	SEGMENT
??_R1A@?0A@EA@CDbController@@8 DD FLAT:??_R0?AVCDbController@@@8 ; CDbController::`RTTI Base Class Descriptor at (0,-1,0,64)'
	DD	00H
	DD	00H
	DD	0ffffffffH
	DD	00H
	DD	040H
	DD	FLAT:??_R3CDbController@@8
rdata$r	ENDS
;	COMDAT ??_R1A@?0A@EA@CCampusDBCtrl@@8
rdata$r	SEGMENT
??_R1A@?0A@EA@CCampusDBCtrl@@8 DD FLAT:??_R0?AVCCampusDBCtrl@@@8 ; CCampusDBCtrl::`RTTI Base Class Descriptor at (0,-1,0,64)'
	DD	01H
	DD	00H
	DD	0ffffffffH
	DD	00H
	DD	040H
	DD	FLAT:??_R3CCampusDBCtrl@@8
rdata$r	ENDS
;	COMDAT ??_R2CCampusDBCtrl@@8
rdata$r	SEGMENT
??_R2CCampusDBCtrl@@8 DD FLAT:??_R1A@?0A@EA@CCampusDBCtrl@@8 ; CCampusDBCtrl::`RTTI Base Class Array'
	DD	FLAT:??_R1A@?0A@EA@CDbController@@8
rdata$r	ENDS
;	COMDAT ??_R3CCampusDBCtrl@@8
rdata$r	SEGMENT
??_R3CCampusDBCtrl@@8 DD 00H				; CCampusDBCtrl::`RTTI Class Hierarchy Descriptor'
	DD	00H
	DD	02H
	DD	FLAT:??_R2CCampusDBCtrl@@8
rdata$r	ENDS
;	COMDAT ??_R0?AVCCampusDBCtrl@@@8
data$rs	SEGMENT
??_R0?AVCCampusDBCtrl@@@8 DD FLAT:??_7type_info@@6B@	; CCampusDBCtrl `RTTI Type Descriptor'
	DD	00H
	DB	'.?AVCCampusDBCtrl@@', 00H
data$rs	ENDS
;	COMDAT ??_R4CCampusDBCtrl@@6B@
rdata$r	SEGMENT
??_R4CCampusDBCtrl@@6B@ DD 00H				; CCampusDBCtrl::`RTTI Complete Object Locator'
	DD	00H
	DD	00H
	DD	FLAT:??_R0?AVCCampusDBCtrl@@@8
	DD	FLAT:??_R3CCampusDBCtrl@@8
rdata$r	ENDS
;	COMDAT ??_C@_0DB@KNEAGAGD@CCampusHelper?5?9?5m_CampusDBCtrl?4@
CONST	SEGMENT
??_C@_0DB@KNEAGAGD@CCampusHelper?5?9?5m_CampusDBCtrl?4@ DB 'CCampusHelper'
	DB	' - m_CampusDBCtrl.CreateDbHandler()', 00H	; `string'
CONST	ENDS
;	COMDAT ??_C@_0HN@EDLOELGN@usp_CampusPointLog_Insert?5?5?$EAm_i@
CONST	SEGMENT
??_C@_0HN@EDLOELGN@usp_CampusPointLog_Insert?5?5?$EAm_i@ DB 'usp_CampusPo'
	DB	'intLog_Insert  @m_idPlayer = ''%07d'', @serverindex = ''%02d'''
	DB	', @chState = ''%c'', @nPrevPoint = %0d, @nCurrPoint = %d', 00H ; `string'
CONST	ENDS
;	COMDAT ??_C@_0HI@KDLLPGLE@usp_CampusLog_Insert?5?5?$EAm_idMast@
CONST	SEGMENT
??_C@_0HI@KDLLPGLE@usp_CampusLog_Insert?5?5?$EAm_idMast@ DB 'usp_CampusLo'
	DB	'g_Insert  @m_idMaster = ''%07d'', @serverindex = ''%02d'', @i'
	DB	'dCampus = %d, @m_idPupil = ''%07d'', @chState = ''%c''', 00H ; `string'
CONST	ENDS
;	COMDAT ??_C@_02ODNFFLMD@U6@
CONST	SEGMENT
??_C@_02ODNFFLMD@U6@ DB 'U6', 00H			; `string'
CONST	ENDS
;	COMDAT ??_C@_0P@HAGDFNOH@m_nCampusPoint@
CONST	SEGMENT
??_C@_0P@HAGDFNOH@m_nCampusPoint@ DB 'm_nCampusPoint', 00H ; `string'
CONST	ENDS
;	COMDAT ??_C@_02MIPIAIAA@U5@
CONST	SEGMENT
??_C@_02MIPIAIAA@U5@ DB 'U5', 00H			; `string'
CONST	ENDS
;	COMDAT ??_C@_0FG@OBOHOBGA@usp_CampusMember_Delete?5?5?$EAserve@
CONST	SEGMENT
??_C@_0FG@OBOHOBGA@usp_CampusMember_Delete?5?5?$EAserve@ DB 'usp_CampusMe'
	DB	'mber_Delete  @serverindex = ''%02d'', @m_idPlayer = ''%07d'','
	DB	' @nMemberLv = %d', 00H			; `string'
CONST	ENDS
;	COMDAT ??_C@_0GF@JMBGFEDG@usp_CampusMember_Insert?5?$EAidCamp@
CONST	SEGMENT
??_C@_0GF@JMBGFEDG@usp_CampusMember_Insert?5?$EAidCamp@ DB 'usp_CampusMem'
	DB	'ber_Insert @idCampus = %d, @serverindex = ''%02d'', @m_idPlay'
	DB	'er = ''%07d'', @nMemberLv = %d', 00H	; `string'
CONST	ENDS
;	COMDAT ??_C@_0DI@GMELEMJP@usp_Campus_Delete?5?$EAidCampus?5?$DN?5?$CF@
CONST	SEGMENT
??_C@_0DI@GMELEMJP@usp_Campus_Delete?5?$EAidCampus?5?$DN?5?$CF@ DB 'usp_C'
	DB	'ampus_Delete @idCampus = %d, @serverindex = ''%02d''', 00H ; `string'
CONST	ENDS
;	COMDAT ??_C@_0DI@HDOGOKEB@usp_Campus_Insert?5?$EAidCampus?5?$DN?5?$CF@
CONST	SEGMENT
??_C@_0DI@HDOGOKEB@usp_Campus_Insert?5?$EAidCampus?5?$DN?5?$CF@ DB 'usp_C'
	DB	'ampus_Insert @idCampus = %d, @serverindex = ''%02d''', 00H ; `string'
CONST	ENDS
;	COMDAT ??_C@_0BI@BMKKJLKC@RemoveCampusMember?5fail@
CONST	SEGMENT
??_C@_0BI@BMKKJLKC@RemoveCampusMember?5fail@ DB 'RemoveCampusMember fail', 00H ; `string'
CONST	ENDS
;	COMDAT ??_C@_0CA@DNIPPDFD@new?5campus?5failed?$CB?5campus?5exist@
CONST	SEGMENT
??_C@_0CA@DNIPPDFD@new?5campus?5failed?$CB?5campus?5exist@ DB 'new campus'
	DB	' failed! campus exist', 00H			; `string'
CONST	ENDS
;	COMDAT ??_C@_0BC@EFJAFBJB@AddMember?5failed?$CB@
CONST	SEGMENT
??_C@_0BC@EFJAFBJB@AddMember?5failed?$CB@ DB 'AddMember failed!', 00H ; `string'
CONST	ENDS
;	COMDAT ??_C@_0BM@IEAKIJNC@AddPlayerId2CampusId?$CI?$CJ?5fail@
CONST	SEGMENT
??_C@_0BM@IEAKIJNC@AddPlayerId2CampusId?$CI?$CJ?5fail@ DB 'AddPlayerId2Ca'
	DB	'mpusId() fail', 00H				; `string'
CONST	ENDS
;	COMDAT ??_C@_0DE@GGIDIIN@LoadAllCampus?$CI?$CJ?3?5Player?8s?5campu@
CONST	SEGMENT
??_C@_0DE@GGIDIIN@LoadAllCampus?$CI?$CJ?3?5Player?8s?5campu@ DB 'LoadAllC'
	DB	'ampus(): Player''s campus not found - %d, %d', 00H ; `string'
CONST	ENDS
;	COMDAT ??_C@_09FLNBFAEP@nMemberLv@
CONST	SEGMENT
??_C@_09FLNBFAEP@nMemberLv@ DB 'nMemberLv', 00H		; `string'
CONST	ENDS
;	COMDAT ??_C@_0L@FONFFEJF@m_idPlayer@
CONST	SEGMENT
??_C@_0L@FONFFEJF@m_idPlayer@ DB 'm_idPlayer', 00H	; `string'
CONST	ENDS
;	COMDAT ??_C@_0CM@CLANIGHK@usp_CampusMember_Load?5?$EAserverin@
CONST	SEGMENT
??_C@_0CM@CLANIGHK@usp_CampusMember_Load?5?$EAserverin@ DB 'usp_CampusMem'
	DB	'ber_Load @serverindex = ''%02d''', 00H	; `string'
CONST	ENDS
;	COMDAT ??_C@_08FHGJFCBK@idCampus@
CONST	SEGMENT
??_C@_08FHGJFCBK@idCampus@ DB 'idCampus', 00H		; `string'
CONST	ENDS
;	COMDAT ??_C@_0EC@CBKPOIDK@C?3?2IAGOS?2server?2v18?2Source?2Sour@
CONST	SEGMENT
??_C@_0EC@CBKPOIDK@C?3?2IAGOS?2server?2v18?2Source?2Sour@ DB 'C:\IAGOS\se'
	DB	'rver\v18\Source\Source\DatabaseServer\CampusDBCtrl.cpp', 00H ; `string'
CONST	ENDS
;	COMDAT ??_C@_0CG@EPNBNDFJ@usp_Campus_Load?5?$EAserverindex?5?$DN?5@
CONST	SEGMENT
??_C@_0CG@EPNBNDFJ@usp_Campus_Load?5?$EAserverindex?5?$DN?5@ DB 'usp_Camp'
	DB	'us_Load @serverindex = ''%02d''', 00H	; `string'
CONST	ENDS
;	COMDAT ??_C@_0CP@EFPIHLLF@Can?8t?5connect?5db?3?5CCampusDBCtrl@
CONST	SEGMENT
??_C@_0CP@EFPIHLLF@Can?8t?5connect?5db?3?5CCampusDBCtrl@ DB 'Can''t conne'
	DB	'ct db: CCampusDBCtrl.CreateLogQuery', 00H	; `string'
CONST	ENDS
;	COMDAT ??_7CCampusDBCtrl@@6B@
CONST	SEGMENT
??_7CCampusDBCtrl@@6B@ DD FLAT:??_R4CCampusDBCtrl@@6B@	; CCampusDBCtrl::`vftable'
	DD	FLAT:??_ECCampusDBCtrl@@UAEPAXI@Z
	DD	FLAT:?Handler@CCampusDBCtrl@@UAEXPAUtagDB_OVERLAPPED_PLUS@@K@Z
	DD	FLAT:?OnTimer@CDbController@@UAEXXZ
CONST	ENDS
;	COMDAT ??_C@_09GBAEEKDE@?$CFs?0?5?$CFd?7?$CFs@
CONST	SEGMENT
??_C@_09GBAEEKDE@?$CFs?0?5?$CFd?7?$CFs@ DB '%s, %d', 09H, '%s', 00H ; `string'
CONST	ENDS
;	COMDAT ??_C@_00CNPNBAHC@@
CONST	SEGMENT
??_C@_00CNPNBAHC@@ DB 00H				; `string'
CONST	ENDS
;	COMDAT xdata$x
xdata$x	SEGMENT
__unwindtable$?GetInstance@CCampusHelper@@SAPAV1@XZ DD 0ffffffffH
	DD	FLAT:__unwindfunclet$?GetInstance@CCampusHelper@@SAPAV1@XZ$0
__ehfuncinfo$?GetInstance@CCampusHelper@@SAPAV1@XZ DD 019930522H
	DD	01H
	DD	FLAT:__unwindtable$?GetInstance@CCampusHelper@@SAPAV1@XZ
	DD	2 DUP(00H)
	DD	2 DUP(00H)
	DD	00H
	DD	01H
xdata$x	ENDS
;	COMDAT xdata$x
xdata$x	SEGMENT
__ehfuncinfo$??1CCampusHelper@@QAE@XZ DD 019930522H
	DD	00H
	DD	00H
	DD	2 DUP(00H)
	DD	2 DUP(00H)
	DD	00H
	DD	05H
xdata$x	ENDS
;	COMDAT xdata$x
xdata$x	SEGMENT
__unwindtable$??0CCampusHelper@@QAE@XZ DD 0ffffffffH
	DD	FLAT:__unwindfunclet$??0CCampusHelper@@QAE@XZ$0
	DD	00H
	DD	FLAT:__unwindfunclet$??0CCampusHelper@@QAE@XZ$1
__ehfuncinfo$??0CCampusHelper@@QAE@XZ DD 019930522H
	DD	02H
	DD	FLAT:__unwindtable$??0CCampusHelper@@QAE@XZ
	DD	2 DUP(00H)
	DD	2 DUP(00H)
	DD	00H
	DD	01H
xdata$x	ENDS
;	COMDAT xdata$x
xdata$x	SEGMENT
__unwindtable$?LoadAllCampus@CCampusDBCtrl@@AAEXXZ DD 0ffffffffH
	DD	FLAT:__unwindfunclet$?LoadAllCampus@CCampusDBCtrl@@AAEXXZ$0
	DD	0ffffffffH
	DD	FLAT:__unwindfunclet$?LoadAllCampus@CCampusDBCtrl@@AAEXXZ$1
__ehfuncinfo$?LoadAllCampus@CCampusDBCtrl@@AAEXXZ DD 019930522H
	DD	02H
	DD	FLAT:__unwindtable$?LoadAllCampus@CCampusDBCtrl@@AAEXXZ
	DD	2 DUP(00H)
	DD	2 DUP(00H)
	DD	00H
	DD	01H
xdata$x	ENDS
;	COMDAT xdata$x
xdata$x	SEGMENT
__unwindtable$?RemoveCampusMember@CCampusDBCtrl@@AAEXAAVCAr@@@Z DD 0ffffffffH
	DD	FLAT:__unwindfunclet$?RemoveCampusMember@CCampusDBCtrl@@AAEXAAVCAr@@@Z$0
__ehfuncinfo$?RemoveCampusMember@CCampusDBCtrl@@AAEXAAVCAr@@@Z DD 019930522H
	DD	01H
	DD	FLAT:__unwindtable$?RemoveCampusMember@CCampusDBCtrl@@AAEXAAVCAr@@@Z
	DD	2 DUP(00H)
	DD	2 DUP(00H)
	DD	00H
	DD	01H
xdata$x	ENDS
;	COMDAT xdata$x
xdata$x	SEGMENT
__unwindtable$?AddCampusMember@CCampusDBCtrl@@AAEXAAVCAr@@@Z DD 0ffffffffH
	DD	FLAT:__unwindfunclet$?AddCampusMember@CCampusDBCtrl@@AAEXAAVCAr@@@Z$0
	DD	0ffffffffH
	DD	FLAT:__unwindfunclet$?AddCampusMember@CCampusDBCtrl@@AAEXAAVCAr@@@Z$1
	DD	0ffffffffH
	DD	FLAT:__unwindfunclet$?AddCampusMember@CCampusDBCtrl@@AAEXAAVCAr@@@Z$2
	DD	0ffffffffH
	DD	FLAT:__unwindfunclet$?AddCampusMember@CCampusDBCtrl@@AAEXAAVCAr@@@Z$3
__ehfuncinfo$?AddCampusMember@CCampusDBCtrl@@AAEXAAVCAr@@@Z DD 019930522H
	DD	04H
	DD	FLAT:__unwindtable$?AddCampusMember@CCampusDBCtrl@@AAEXAAVCAr@@@Z
	DD	2 DUP(00H)
	DD	2 DUP(00H)
	DD	00H
	DD	01H
xdata$x	ENDS
;	COMDAT xdata$x
xdata$x	SEGMENT
__unwindtable$?CreateLogQuery@CCampusDBCtrl@@AAEXXZ DD 0ffffffffH
	DD	FLAT:__unwindfunclet$?CreateLogQuery@CCampusDBCtrl@@AAEXXZ$0
__ehfuncinfo$?CreateLogQuery@CCampusDBCtrl@@AAEXXZ DD 019930522H
	DD	01H
	DD	FLAT:__unwindtable$?CreateLogQuery@CCampusDBCtrl@@AAEXXZ
	DD	2 DUP(00H)
	DD	2 DUP(00H)
	DD	00H
	DD	01H
xdata$x	ENDS
;	COMDAT xdata$x
xdata$x	SEGMENT
__unwindtable$?Handler@CCampusDBCtrl@@UAEXPAUtagDB_OVERLAPPED_PLUS@@K@Z DD 0ffffffffH
	DD	FLAT:__unwindfunclet$?Handler@CCampusDBCtrl@@UAEXPAUtagDB_OVERLAPPED_PLUS@@K@Z$0
__ehfuncinfo$?Handler@CCampusDBCtrl@@UAEXPAUtagDB_OVERLAPPED_PLUS@@K@Z DD 019930522H
	DD	01H
	DD	FLAT:__unwindtable$?Handler@CCampusDBCtrl@@UAEXPAUtagDB_OVERLAPPED_PLUS@@K@Z
	DD	2 DUP(00H)
	DD	2 DUP(00H)
	DD	00H
	DD	01H
xdata$x	ENDS
; Function compile flags: /Ogtp
; File C:\Program Files\Microsoft Visual Studio\2022\Professional\VC\Tools\MSVC\14.44.35207\include\xtree
; File C:\Program Files\Microsoft Visual Studio\2022\Professional\VC\Tools\MSVC\14.44.35207\include\utility
; File C:\Program Files\Microsoft Visual Studio\2022\Professional\VC\Tools\MSVC\14.44.35207\include\xmemory
; File C:\Program Files\Microsoft Visual Studio\2022\Professional\VC\Tools\MSVC\14.44.35207\include\xtree
;	COMDAT ??$_Erase_tree@V?$allocator@U?$_Tree_node@U?$pair@$$CBKK@std@@PAX@std@@@std@@@?$_Tree_val@U?$_Tree_simple_types@U?$pair@$$CBKK@std@@@std@@@std@@QAEXAAV?$allocator@U?$_Tree_node@U?$pair@$$CBKK@std@@PAX@std@@@1@PAU?$_Tree_node@U?$pair@$$CBKK@std@@PAX@1@@Z
_TEXT	SEGMENT
__Al$ = 8						; size = 4
__Rootnode$ = 12					; size = 4
??$_Erase_tree@V?$allocator@U?$_Tree_node@U?$pair@$$CBKK@std@@PAX@std@@@std@@@?$_Tree_val@U?$_Tree_simple_types@U?$pair@$$CBKK@std@@@std@@@std@@QAEXAAV?$allocator@U?$_Tree_node@U?$pair@$$CBKK@std@@PAX@std@@@1@PAU?$_Tree_node@U?$pair@$$CBKK@std@@PAX@1@@Z PROC ; std::_Tree_val<std::_Tree_simple_types<std::pair<unsigned long const ,unsigned long> > >::_Erase_tree<std::allocator<std::_Tree_node<std::pair<unsigned long const ,unsigned long>,void *> > >, COMDAT
; _this$ = ecx

; 767  :     void _Erase_tree(_Alnode& _Al, _Nodeptr _Rootnode) noexcept {

  00000	55		 push	 ebp
  00001	8b ec		 mov	 ebp, esp
  00003	53		 push	 ebx
  00004	56		 push	 esi

; 768  :         while (!_Rootnode->_Isnil) { // free subtrees, then node

  00005	8b 75 0c	 mov	 esi, DWORD PTR __Rootnode$[ebp]
  00008	8b d9		 mov	 ebx, ecx
  0000a	80 7e 0d 00	 cmp	 BYTE PTR [esi+13], 0
  0000e	75 25		 jne	 SHORT $LN34@Erase_tree
  00010	57		 push	 edi
  00011	8b 7d 08	 mov	 edi, DWORD PTR __Al$[ebp]
$LL2@Erase_tree:

; 769  :             _Erase_tree(_Al, _Rootnode->_Right);

  00014	ff 76 08	 push	 DWORD PTR [esi+8]
  00017	8b cb		 mov	 ecx, ebx
  00019	57		 push	 edi
  0001a	e8 00 00 00 00	 call	 ??$_Erase_tree@V?$allocator@U?$_Tree_node@U?$pair@$$CBKK@std@@PAX@std@@@std@@@?$_Tree_val@U?$_Tree_simple_types@U?$pair@$$CBKK@std@@@std@@@std@@QAEXAAV?$allocator@U?$_Tree_node@U?$pair@$$CBKK@std@@PAX@std@@@1@PAU?$_Tree_node@U?$pair@$$CBKK@std@@PAX@1@@Z ; std::_Tree_val<std::_Tree_simple_types<std::pair<unsigned long const ,unsigned long> > >::_Erase_tree<std::allocator<std::_Tree_node<std::pair<unsigned long const ,unsigned long>,void *> > >
; File C:\Program Files\Microsoft Visual Studio\2022\Professional\VC\Tools\MSVC\14.44.35207\include\utility

; 773  :     _Ty _Old_val = static_cast<_Ty&&>(_Val);

  0001f	8b c6		 mov	 eax, esi

; 774  :     _Val         = static_cast<_Other&&>(_New_val);

  00021	8b 36		 mov	 esi, DWORD PTR [esi]
; File C:\Program Files\Microsoft Visual Studio\2022\Professional\VC\Tools\MSVC\14.44.35207\include\xmemory

; 289  :         ::operator delete(_Ptr, _Bytes);

  00023	6a 18		 push	 24			; 00000018H
  00025	50		 push	 eax
  00026	e8 00 00 00 00	 call	 ??3@YAXPAXI@Z		; operator delete
  0002b	83 c4 08	 add	 esp, 8
; File C:\Program Files\Microsoft Visual Studio\2022\Professional\VC\Tools\MSVC\14.44.35207\include\xtree

; 768  :         while (!_Rootnode->_Isnil) { // free subtrees, then node

  0002e	80 7e 0d 00	 cmp	 BYTE PTR [esi+13], 0
  00032	74 e0		 je	 SHORT $LL2@Erase_tree
  00034	5f		 pop	 edi
$LN34@Erase_tree:
  00035	5e		 pop	 esi

; 770  :             _Alnode::value_type::_Freenode(_Al, _STD exchange(_Rootnode, _Rootnode->_Left));
; 771  :         }
; 772  :     }

  00036	5b		 pop	 ebx
  00037	5d		 pop	 ebp
  00038	c2 08 00	 ret	 8
??$_Erase_tree@V?$allocator@U?$_Tree_node@U?$pair@$$CBKK@std@@PAX@std@@@std@@@?$_Tree_val@U?$_Tree_simple_types@U?$pair@$$CBKK@std@@@std@@@std@@QAEXAAV?$allocator@U?$_Tree_node@U?$pair@$$CBKK@std@@PAX@std@@@1@PAU?$_Tree_node@U?$pair@$$CBKK@std@@PAX@1@@Z ENDP ; std::_Tree_val<std::_Tree_simple_types<std::pair<unsigned long const ,unsigned long> > >::_Erase_tree<std::allocator<std::_Tree_node<std::pair<unsigned long const ,unsigned long>,void *> > >
_TEXT	ENDS
; Function compile flags: /Ogtp
;	COMDAT ??__FsCH@?1??GetInstance@CCampusHelper@@SAPAV1@XZ@YAXXZ
text$yd	SEGMENT
??__FsCH@?1??GetInstance@CCampusHelper@@SAPAV1@XZ@YAXXZ PROC ; `CCampusHelper::GetInstance'::`2'::`dynamic atexit destructor for 'sCH'', COMDAT
  00000	b9 00 00 00 00	 mov	 ecx, OFFSET ?sCH@?1??GetInstance@CCampusHelper@@SAPAV2@XZ@4V2@A
  00005	e9 00 00 00 00	 jmp	 ??1CCampusHelper@@QAE@XZ ; CCampusHelper::~CCampusHelper
??__FsCH@?1??GetInstance@CCampusHelper@@SAPAV1@XZ@YAXXZ ENDP ; `CCampusHelper::GetInstance'::`2'::`dynamic atexit destructor for 'sCH''
text$yd	ENDS
; Function compile flags: /Ogtp
; File C:\IAGOS\server\v18\Source\Source\_Network\Misc\Include\Ar.h
;	COMDAT ??$?5D@CAr@@QAEAAV0@AAD@Z
_TEXT	SEGMENT
_t$ = 8							; size = 4
??$?5D@CAr@@QAEAAV0@AAD@Z PROC				; CAr::operator>><char>, COMDAT
; _this$ = ecx

; 302  : {

  00000	55		 push	 ebp
  00001	8b ec		 mov	 ebp, esp
  00003	8b d1		 mov	 edx, ecx

; 303  : 	if (m_lpBufCur + sizeof(T) <= m_lpBufMax)

  00005	8b 4a 08	 mov	 ecx, DWORD PTR [edx+8]
  00008	8d 41 01	 lea	 eax, DWORD PTR [ecx+1]
  0000b	3b 42 0c	 cmp	 eax, DWORD PTR [edx+12]
  0000e	8b 45 08	 mov	 eax, DWORD PTR _t$[ebp]
  00011	77 0d		 ja	 SHORT $LN2@operator

; 304  : 	{
; 305  : 		t = *(UNALIGNED T*)m_lpBufCur;

  00013	8a 09		 mov	 cl, BYTE PTR [ecx]
  00015	88 08		 mov	 BYTE PTR [eax], cl

; 312  : 	}
; 313  : 	return *this;
; 314  : }

  00017	8b c2		 mov	 eax, edx
  00019	ff 42 08	 inc	 DWORD PTR [edx+8]
  0001c	5d		 pop	 ebp
  0001d	c2 04 00	 ret	 4
$LN2@operator:

; 306  : 		m_lpBufCur += sizeof(T);
; 307  : 	}
; 308  : 	else
; 309  : 	{
; 310  : 		t = T();

  00020	c6 00 00	 mov	 BYTE PTR [eax], 0

; 311  : 		m_lpBufCur = m_lpBufMax;

  00023	8b 42 0c	 mov	 eax, DWORD PTR [edx+12]
  00026	89 42 08	 mov	 DWORD PTR [edx+8], eax

; 312  : 	}
; 313  : 	return *this;
; 314  : }

  00029	8b c2		 mov	 eax, edx
  0002b	5d		 pop	 ebp
  0002c	c2 04 00	 ret	 4
??$?5D@CAr@@QAEAAV0@AAD@Z ENDP				; CAr::operator>><char>
_TEXT	ENDS
; Function compile flags: /Ogtp
; File C:\IAGOS\server\v18\Source\Source\_Network\Misc\Include\Ar.h
;	COMDAT ??$?5K@CAr@@QAEAAV0@AAK@Z
_TEXT	SEGMENT
_t$ = 8							; size = 4
??$?5K@CAr@@QAEAAV0@AAK@Z PROC				; CAr::operator>><unsigned long>, COMDAT
; _this$ = ecx

; 302  : {

  00000	55		 push	 ebp
  00001	8b ec		 mov	 ebp, esp
  00003	8b d1		 mov	 edx, ecx

; 303  : 	if (m_lpBufCur + sizeof(T) <= m_lpBufMax)

  00005	8b 4a 08	 mov	 ecx, DWORD PTR [edx+8]
  00008	8d 41 04	 lea	 eax, DWORD PTR [ecx+4]
  0000b	3b 42 0c	 cmp	 eax, DWORD PTR [edx+12]
  0000e	8b 45 08	 mov	 eax, DWORD PTR _t$[ebp]
  00011	77 0e		 ja	 SHORT $LN2@operator

; 304  : 	{
; 305  : 		t = *(UNALIGNED T*)m_lpBufCur;

  00013	8b 09		 mov	 ecx, DWORD PTR [ecx]
  00015	89 08		 mov	 DWORD PTR [eax], ecx

; 312  : 	}
; 313  : 	return *this;
; 314  : }

  00017	8b c2		 mov	 eax, edx
  00019	83 42 08 04	 add	 DWORD PTR [edx+8], 4
  0001d	5d		 pop	 ebp
  0001e	c2 04 00	 ret	 4
$LN2@operator:

; 306  : 		m_lpBufCur += sizeof(T);
; 307  : 	}
; 308  : 	else
; 309  : 	{
; 310  : 		t = T();

  00021	c7 00 00 00 00
	00		 mov	 DWORD PTR [eax], 0

; 311  : 		m_lpBufCur = m_lpBufMax;

  00027	8b 42 0c	 mov	 eax, DWORD PTR [edx+12]
  0002a	89 42 08	 mov	 DWORD PTR [edx+8], eax

; 312  : 	}
; 313  : 	return *this;
; 314  : }

  0002d	8b c2		 mov	 eax, edx
  0002f	5d		 pop	 ebp
  00030	c2 04 00	 ret	 4
??$?5K@CAr@@QAEAAV0@AAK@Z ENDP				; CAr::operator>><unsigned long>
_TEXT	ENDS
; Function compile flags: /Ogtp
; File C:\IAGOS\server\v18\Source\Source\_Network\Misc\Include\Ar.h
;	COMDAT ??$?5H@CAr@@QAEAAV0@AAH@Z
_TEXT	SEGMENT
_t$ = 8							; size = 4
??$?5H@CAr@@QAEAAV0@AAH@Z PROC				; CAr::operator>><int>, COMDAT
; _this$ = ecx

; 302  : {

  00000	55		 push	 ebp
  00001	8b ec		 mov	 ebp, esp
  00003	8b d1		 mov	 edx, ecx

; 303  : 	if (m_lpBufCur + sizeof(T) <= m_lpBufMax)

  00005	8b 4a 08	 mov	 ecx, DWORD PTR [edx+8]
  00008	8d 41 04	 lea	 eax, DWORD PTR [ecx+4]
  0000b	3b 42 0c	 cmp	 eax, DWORD PTR [edx+12]
  0000e	8b 45 08	 mov	 eax, DWORD PTR _t$[ebp]
  00011	77 0e		 ja	 SHORT $LN2@operator

; 304  : 	{
; 305  : 		t = *(UNALIGNED T*)m_lpBufCur;

  00013	8b 09		 mov	 ecx, DWORD PTR [ecx]
  00015	89 08		 mov	 DWORD PTR [eax], ecx

; 312  : 	}
; 313  : 	return *this;
; 314  : }

  00017	8b c2		 mov	 eax, edx
  00019	83 42 08 04	 add	 DWORD PTR [edx+8], 4
  0001d	5d		 pop	 ebp
  0001e	c2 04 00	 ret	 4
$LN2@operator:

; 306  : 		m_lpBufCur += sizeof(T);
; 307  : 	}
; 308  : 	else
; 309  : 	{
; 310  : 		t = T();

  00021	c7 00 00 00 00
	00		 mov	 DWORD PTR [eax], 0

; 311  : 		m_lpBufCur = m_lpBufMax;

  00027	8b 42 0c	 mov	 eax, DWORD PTR [edx+12]
  0002a	89 42 08	 mov	 DWORD PTR [edx+8], eax

; 312  : 	}
; 313  : 	return *this;
; 314  : }

  0002d	8b c2		 mov	 eax, edx
  0002f	5d		 pop	 ebp
  00030	c2 04 00	 ret	 4
??$?5H@CAr@@QAEAAV0@AAH@Z ENDP				; CAr::operator>><int>
_TEXT	ENDS
; Function compile flags: /Ogtp
; File C:\IAGOS\server\v18\Source\Source\DatabaseServer\CampusDBCtrl.cpp
;	COMDAT ?GetMaxPupilNum@CCampusHelper@@QAEHH@Z
_TEXT	SEGMENT
_nCampusPoint$ = 8					; size = 4
?GetMaxPupilNum@CCampusHelper@@QAEHH@Z PROC		; CCampusHelper::GetMaxPupilNum, COMDAT
; _this$ = ecx

; 390  : {

  00000	55		 push	 ebp
  00001	8b ec		 mov	 ebp, esp
  00003	8b 4d 08	 mov	 ecx, DWORD PTR _nCampusPoint$[ebp]

; 391  : 	if( nCampusPoint >= 0 && nCampusPoint < MIN_LV2_POINT )

  00006	85 c9		 test	 ecx, ecx
  00008	78 1d		 js	 SHORT $LN6@GetMaxPupi
  0000a	83 f9 29	 cmp	 ecx, 41			; 00000029H
  0000d	7d 09		 jge	 SHORT $LN9@GetMaxPupi

; 392  : 		return 1;

  0000f	b8 01 00 00 00	 mov	 eax, 1

; 399  : }

  00014	5d		 pop	 ebp
  00015	c2 04 00	 ret	 4
$LN9@GetMaxPupi:

; 393  : 	else if( nCampusPoint >= MIN_LV2_POINT && nCampusPoint < MIN_LV3_POINT )

  00018	33 c0		 xor	 eax, eax
  0001a	83 f9 65	 cmp	 ecx, 101		; 00000065H
  0001d	0f 9d c0	 setge	 al
  00020	83 c0 02	 add	 eax, 2

; 399  : }

  00023	5d		 pop	 ebp
  00024	c2 04 00	 ret	 4
$LN6@GetMaxPupi:

; 394  : 		return 2;
; 395  : 	else if( nCampusPoint >= MIN_LV3_POINT )
; 396  : 		return 3;
; 397  : 	
; 398  : 	return 0;

  00027	33 c0		 xor	 eax, eax

; 399  : }

  00029	5d		 pop	 ebp
  0002a	c2 04 00	 ret	 4
?GetMaxPupilNum@CCampusHelper@@QAEHH@Z ENDP		; CCampusHelper::GetMaxPupilNum
_TEXT	ENDS
; Function compile flags: /Ogtp
; File C:\IAGOS\server\v18\Source\Source\DatabaseServer\CampusDBCtrl.cpp
;	COMDAT ?GetInstance@CCampusHelper@@SAPAV1@XZ
_TEXT	SEGMENT
__$EHRec$ = -12						; size = 12
?GetInstance@CCampusHelper@@SAPAV1@XZ PROC		; CCampusHelper::GetInstance, COMDAT

; 384  : {

  00000	55		 push	 ebp
  00001	8b ec		 mov	 ebp, esp
  00003	6a ff		 push	 -1
  00005	68 00 00 00 00	 push	 __ehhandler$?GetInstance@CCampusHelper@@SAPAV1@XZ
  0000a	64 a1 00 00 00
	00		 mov	 eax, DWORD PTR fs:0
  00010	50		 push	 eax
  00011	a1 00 00 00 00	 mov	 eax, DWORD PTR ___security_cookie
  00016	33 c5		 xor	 eax, ebp
  00018	50		 push	 eax
  00019	8d 45 f4	 lea	 eax, DWORD PTR __$EHRec$[ebp]
  0001c	64 a3 00 00 00
	00		 mov	 DWORD PTR fs:0, eax

; 385  : 	static CCampusHelper sCH;

  00022	64 a1 00 00 00
	00		 mov	 eax, DWORD PTR fs:__tls_array
  00028	8b 0d 00 00 00
	00		 mov	 ecx, DWORD PTR __tls_index
  0002e	8b 0c 88	 mov	 ecx, DWORD PTR [eax+ecx*4]
  00031	a1 00 00 00 00	 mov	 eax, DWORD PTR ?$TSS0@?1??GetInstance@CCampusHelper@@SAPAV2@XZ@4HA
  00036	3b 81 00 00 00
	00		 cmp	 eax, DWORD PTR __Init_thread_epoch[ecx]
  0003c	7f 14		 jg	 SHORT $LN9@GetInstanc
$LN5@GetInstanc:

; 386  : 	return & sCH;
; 387  : }

  0003e	b8 00 00 00 00	 mov	 eax, OFFSET ?sCH@?1??GetInstance@CCampusHelper@@SAPAV2@XZ@4V2@A
  00043	8b 4d f4	 mov	 ecx, DWORD PTR __$EHRec$[ebp]
  00046	64 89 0d 00 00
	00 00		 mov	 DWORD PTR fs:0, ecx
  0004d	59		 pop	 ecx
  0004e	8b e5		 mov	 esp, ebp
  00050	5d		 pop	 ebp
  00051	c3		 ret	 0
$LN9@GetInstanc:

; 385  : 	static CCampusHelper sCH;

  00052	68 00 00 00 00	 push	 OFFSET ?$TSS0@?1??GetInstance@CCampusHelper@@SAPAV2@XZ@4HA
  00057	e8 00 00 00 00	 call	 __Init_thread_header
  0005c	83 c4 04	 add	 esp, 4
  0005f	83 3d 00 00 00
	00 ff		 cmp	 DWORD PTR ?$TSS0@?1??GetInstance@CCampusHelper@@SAPAV2@XZ@4HA, -1
  00066	75 d6		 jne	 SHORT $LN5@GetInstanc
  00068	b9 00 00 00 00	 mov	 ecx, OFFSET ?sCH@?1??GetInstance@CCampusHelper@@SAPAV2@XZ@4V2@A
  0006d	c7 45 fc 00 00
	00 00		 mov	 DWORD PTR __$EHRec$[ebp+8], 0
  00074	e8 00 00 00 00	 call	 ??0CCampusHelper@@QAE@XZ ; CCampusHelper::CCampusHelper
  00079	68 00 00 00 00	 push	 OFFSET ??__FsCH@?1??GetInstance@CCampusHelper@@SAPAV1@XZ@YAXXZ ; `CCampusHelper::GetInstance'::`2'::`dynamic atexit destructor for 'sCH''
  0007e	e8 00 00 00 00	 call	 _atexit
  00083	68 00 00 00 00	 push	 OFFSET ?$TSS0@?1??GetInstance@CCampusHelper@@SAPAV2@XZ@4HA
  00088	e8 00 00 00 00	 call	 __Init_thread_footer
  0008d	83 c4 08	 add	 esp, 8
  00090	eb ac		 jmp	 SHORT $LN5@GetInstanc
_TEXT	ENDS
;	COMDAT text$x
text$x	SEGMENT
__unwindfunclet$?GetInstance@CCampusHelper@@SAPAV1@XZ$0:
  00000	68 00 00 00 00	 push	 OFFSET ?$TSS0@?1??GetInstance@CCampusHelper@@SAPAV2@XZ@4HA
  00005	e8 00 00 00 00	 call	 __Init_thread_abort
  0000a	59		 pop	 ecx
  0000b	c3		 ret	 0
  0000c	cc		 int	 3
  0000d	cc		 int	 3
  0000e	cc		 int	 3
  0000f	cc		 int	 3
  00010	cc		 int	 3
__ehhandler$?GetInstance@CCampusHelper@@SAPAV1@XZ:
  00011	90		 npad	 1
  00012	90		 npad	 1
  00013	8b 54 24 08	 mov	 edx, DWORD PTR [esp+8]
  00017	8d 42 0c	 lea	 eax, DWORD PTR [edx+12]
  0001a	8b 4a fc	 mov	 ecx, DWORD PTR [edx-4]
  0001d	33 c8		 xor	 ecx, eax
  0001f	e8 00 00 00 00	 call	 @__security_check_cookie@4
  00024	b8 00 00 00 00	 mov	 eax, OFFSET __ehfuncinfo$?GetInstance@CCampusHelper@@SAPAV1@XZ
  00029	e9 00 00 00 00	 jmp	 ___CxxFrameHandler3
text$x	ENDS
?GetInstance@CCampusHelper@@SAPAV1@XZ ENDP		; CCampusHelper::GetInstance
; Function compile flags: /Ogtp
; File C:\IAGOS\server\v18\Source\Source\DatabaseServer\CampusDBCtrl.cpp
;	COMDAT ??1CCampusHelper@@QAE@XZ
_TEXT	SEGMENT
__$EHRec$ = -12						; size = 12
??1CCampusHelper@@QAE@XZ PROC				; CCampusHelper::~CCampusHelper, COMDAT
; _this$ = ecx

; 378  : {

  00000	55		 push	 ebp
  00001	8b ec		 mov	 ebp, esp
  00003	6a ff		 push	 -1
  00005	68 00 00 00 00	 push	 __ehhandler$??1CCampusHelper@@QAE@XZ
  0000a	64 a1 00 00 00
	00		 mov	 eax, DWORD PTR fs:0
  00010	50		 push	 eax
  00011	56		 push	 esi
  00012	57		 push	 edi
  00013	a1 00 00 00 00	 mov	 eax, DWORD PTR ___security_cookie
  00018	33 c5		 xor	 eax, ebp
  0001a	50		 push	 eax
  0001b	8d 45 f4	 lea	 eax, DWORD PTR __$EHRec$[ebp]
  0001e	64 a3 00 00 00
	00		 mov	 DWORD PTR fs:0, eax
  00024	8b f1		 mov	 esi, ecx

; 379  : 	SAFE_DELETE( m_pCampusMng );

  00026	8b 7e 18	 mov	 edi, DWORD PTR [esi+24]
  00029	85 ff		 test	 edi, edi
  0002b	74 19		 je	 SHORT $LN2@CCampusHel
  0002d	8b cf		 mov	 ecx, edi
  0002f	e8 00 00 00 00	 call	 ??1CCampusMng@@QAE@XZ	; CCampusMng::~CCampusMng
  00034	6a 14		 push	 20			; 00000014H
  00036	57		 push	 edi
  00037	e8 00 00 00 00	 call	 ??3@YAXPAXI@Z		; operator delete
  0003c	83 c4 08	 add	 esp, 8
  0003f	c7 46 18 00 00
	00 00		 mov	 DWORD PTR [esi+24], 0
$LN2@CCampusHel:

; 380  : 	m_CampusDBCtrl.CloseDbHandler();

  00046	8b ce		 mov	 ecx, esi
  00048	e8 00 00 00 00	 call	 ?CloseDbHandler@CDbController@@QAEXXZ ; CDbController::CloseDbHandler

; 381  : }

  0004d	8b ce		 mov	 ecx, esi
  0004f	e8 00 00 00 00	 call	 ??1CCampusDBCtrl@@UAE@XZ ; CCampusDBCtrl::~CCampusDBCtrl
  00054	8b 4d f4	 mov	 ecx, DWORD PTR __$EHRec$[ebp]
  00057	64 89 0d 00 00
	00 00		 mov	 DWORD PTR fs:0, ecx
  0005e	59		 pop	 ecx
  0005f	5f		 pop	 edi
  00060	5e		 pop	 esi
  00061	8b e5		 mov	 esp, ebp
  00063	5d		 pop	 ebp
  00064	c3		 ret	 0
  00065	cc		 int	 3
  00066	cc		 int	 3
  00067	cc		 int	 3
  00068	cc		 int	 3
  00069	cc		 int	 3
_TEXT	ENDS
;	COMDAT text$x
text$x	SEGMENT
__ehhandler$??1CCampusHelper@@QAE@XZ:
  00000	90		 npad	 1
  00001	90		 npad	 1
  00002	8b 54 24 08	 mov	 edx, DWORD PTR [esp+8]
  00006	8d 42 0c	 lea	 eax, DWORD PTR [edx+12]
  00009	8b 4a f4	 mov	 ecx, DWORD PTR [edx-12]
  0000c	33 c8		 xor	 ecx, eax
  0000e	e8 00 00 00 00	 call	 @__security_check_cookie@4
  00013	b8 00 00 00 00	 mov	 eax, OFFSET __ehfuncinfo$??1CCampusHelper@@QAE@XZ
  00018	e9 00 00 00 00	 jmp	 ___CxxFrameHandler3
text$x	ENDS
??1CCampusHelper@@QAE@XZ ENDP				; CCampusHelper::~CCampusHelper
; Function compile flags: /Ogtp
; File C:\IAGOS\server\v18\Source\Source\DatabaseServer\CampusDBCtrl.cpp
;	COMDAT ??0CCampusHelper@@QAE@XZ
_TEXT	SEGMENT
$T2 = -20						; size = 4
_this$ = -16						; size = 4
__$EHRec$ = -12						; size = 12
??0CCampusHelper@@QAE@XZ PROC				; CCampusHelper::CCampusHelper, COMDAT
; _this$ = ecx

; 371  : {

  00000	55		 push	 ebp
  00001	8b ec		 mov	 ebp, esp
  00003	6a ff		 push	 -1
  00005	68 00 00 00 00	 push	 __ehhandler$??0CCampusHelper@@QAE@XZ
  0000a	64 a1 00 00 00
	00		 mov	 eax, DWORD PTR fs:0
  00010	50		 push	 eax
  00011	83 ec 08	 sub	 esp, 8
  00014	56		 push	 esi
  00015	a1 00 00 00 00	 mov	 eax, DWORD PTR ___security_cookie
  0001a	33 c5		 xor	 eax, ebp
  0001c	50		 push	 eax
  0001d	8d 45 f4	 lea	 eax, DWORD PTR __$EHRec$[ebp]
  00020	64 a3 00 00 00
	00		 mov	 DWORD PTR fs:0, eax
  00026	8b f1		 mov	 esi, ecx
  00028	89 75 f0	 mov	 DWORD PTR _this$[ebp], esi
  0002b	e8 00 00 00 00	 call	 ??0CCampusDBCtrl@@QAE@XZ ; CCampusDBCtrl::CCampusDBCtrl

; 372  : 	m_pCampusMng = new CCampusMng;

  00030	6a 14		 push	 20			; 00000014H
  00032	c7 45 fc 00 00
	00 00		 mov	 DWORD PTR __$EHRec$[ebp+8], 0
  00039	e8 00 00 00 00	 call	 ??2@YAPAXI@Z		; operator new
  0003e	83 c4 04	 add	 esp, 4
  00041	89 45 ec	 mov	 DWORD PTR $T2[ebp], eax
  00044	c6 45 fc 01	 mov	 BYTE PTR __$EHRec$[ebp+8], 1
  00048	85 c0		 test	 eax, eax
  0004a	74 09		 je	 SHORT $LN4@CCampusHel
  0004c	8b c8		 mov	 ecx, eax
  0004e	e8 00 00 00 00	 call	 ??0CCampusMng@@QAE@XZ	; CCampusMng::CCampusMng
  00053	eb 02		 jmp	 SHORT $LN5@CCampusHel
$LN4@CCampusHel:
  00055	33 c0		 xor	 eax, eax
$LN5@CCampusHel:

; 373  : 	if( !m_CampusDBCtrl.CreateDbHandler() )

  00057	6a ff		 push	 -1
  00059	8b ce		 mov	 ecx, esi
  0005b	c6 45 fc 00	 mov	 BYTE PTR __$EHRec$[ebp+8], 0
  0005f	89 46 18	 mov	 DWORD PTR [esi+24], eax
  00062	e8 00 00 00 00	 call	 ?CreateDbHandler@CDbController@@QAEHK@Z ; CDbController::CreateDbHandler
  00067	85 c0		 test	 eax, eax
  00069	75 0d		 jne	 SHORT $LN8@CCampusHel

; 374  : 		Error( "CCampusHelper - m_CampusDBCtrl.CreateDbHandler()" );

  0006b	68 00 00 00 00	 push	 OFFSET ??_C@_0DB@KNEAGAGD@CCampusHelper?5?9?5m_CampusDBCtrl?4@
  00070	e8 00 00 00 00	 call	 ?Error@@YAPBDPBDZZ	; Error
  00075	83 c4 04	 add	 esp, 4
$LN8@CCampusHel:

; 375  : }

  00078	8b c6		 mov	 eax, esi
  0007a	8b 4d f4	 mov	 ecx, DWORD PTR __$EHRec$[ebp]
  0007d	64 89 0d 00 00
	00 00		 mov	 DWORD PTR fs:0, ecx
  00084	59		 pop	 ecx
  00085	5e		 pop	 esi
  00086	8b e5		 mov	 esp, ebp
  00088	5d		 pop	 ebp
  00089	c3		 ret	 0
_TEXT	ENDS
;	COMDAT text$x
text$x	SEGMENT
__unwindfunclet$??0CCampusHelper@@QAE@XZ$0:
  00000	8b 4d f0	 mov	 ecx, DWORD PTR _this$[ebp]
  00003	e9 00 00 00 00	 jmp	 ??1CCampusDBCtrl@@UAE@XZ ; CCampusDBCtrl::~CCampusDBCtrl
__unwindfunclet$??0CCampusHelper@@QAE@XZ$1:
  00008	6a 14		 push	 20			; 00000014H
  0000a	8b 45 ec	 mov	 eax, DWORD PTR $T2[ebp]
  0000d	50		 push	 eax
  0000e	e8 00 00 00 00	 call	 ??3@YAXPAXI@Z		; operator delete
  00013	83 c4 08	 add	 esp, 8
  00016	c3		 ret	 0
  00017	cc		 int	 3
  00018	cc		 int	 3
  00019	cc		 int	 3
  0001a	cc		 int	 3
  0001b	cc		 int	 3
__ehhandler$??0CCampusHelper@@QAE@XZ:
  0001c	90		 npad	 1
  0001d	90		 npad	 1
  0001e	8b 54 24 08	 mov	 edx, DWORD PTR [esp+8]
  00022	8d 42 0c	 lea	 eax, DWORD PTR [edx+12]
  00025	8b 4a f0	 mov	 ecx, DWORD PTR [edx-16]
  00028	33 c8		 xor	 ecx, eax
  0002a	e8 00 00 00 00	 call	 @__security_check_cookie@4
  0002f	b8 00 00 00 00	 mov	 eax, OFFSET __ehfuncinfo$??0CCampusHelper@@QAE@XZ
  00034	e9 00 00 00 00	 jmp	 ___CxxFrameHandler3
text$x	ENDS
??0CCampusHelper@@QAE@XZ ENDP				; CCampusHelper::CCampusHelper
; Function compile flags: /Ogtp
;	COMDAT ??_GCCampusDBCtrl@@UAEPAXI@Z
_TEXT	SEGMENT
___flags$ = 8						; size = 4
??_GCCampusDBCtrl@@UAEPAXI@Z PROC			; CCampusDBCtrl::`scalar deleting destructor', COMDAT
; _this$ = ecx
  00000	55		 push	 ebp
  00001	8b ec		 mov	 ebp, esp
  00003	56		 push	 esi
  00004	8b f1		 mov	 esi, ecx
  00006	e8 00 00 00 00	 call	 ??1CCampusDBCtrl@@UAE@XZ ; CCampusDBCtrl::~CCampusDBCtrl
  0000b	f6 45 08 01	 test	 BYTE PTR ___flags$[ebp], 1
  0000f	74 0b		 je	 SHORT $LN5@scalar
  00011	6a 18		 push	 24			; 00000018H
  00013	56		 push	 esi
  00014	e8 00 00 00 00	 call	 ??3@YAXPAXI@Z		; operator delete
  00019	83 c4 08	 add	 esp, 8
$LN5@scalar:
  0001c	8b c6		 mov	 eax, esi
  0001e	5e		 pop	 esi
  0001f	5d		 pop	 ebp
  00020	c2 04 00	 ret	 4
??_GCCampusDBCtrl@@UAEPAXI@Z ENDP			; CCampusDBCtrl::`scalar deleting destructor'
_TEXT	ENDS
; Function compile flags: /Ogtp
; File C:\IAGOS\server\v18\Source\Source\DatabaseServer\CampusDBCtrl.cpp
;	COMDAT ?LogUpdateCampusPoint@CCampusDBCtrl@@AAEXKHHD@Z
_TEXT	SEGMENT
_szQuery$ = -40964					; size = 40960
__$ArrayPad$ = -4					; size = 4
_idPlayer$ = 8						; size = 4
_nPrevPoint$ = 12					; size = 4
_nCurrPoint$ = 16					; size = 4
_chState$ = 20						; size = 1
?LogUpdateCampusPoint@CCampusDBCtrl@@AAEXKHHD@Z PROC	; CCampusDBCtrl::LogUpdateCampusPoint, COMDAT
; _this$ = ecx

; 357  : {

  00000	55		 push	 ebp
  00001	8b ec		 mov	 ebp, esp
  00003	b8 04 a0 00 00	 mov	 eax, 40964		; 0000a004H
  00008	e8 00 00 00 00	 call	 __chkstk
  0000d	a1 00 00 00 00	 mov	 eax, DWORD PTR ___security_cookie
  00012	33 c5		 xor	 eax, ebp
  00014	89 45 fc	 mov	 DWORD PTR __$ArrayPad$[ebp], eax
  00017	56		 push	 esi

; 358  : 	char szQuery[QUERY_SIZE] = {0, };

  00018	68 00 a0 00 00	 push	 40960			; 0000a000H
  0001d	8d 85 fc 5f ff
	ff		 lea	 eax, DWORD PTR _szQuery$[ebp]
  00023	8b f1		 mov	 esi, ecx
  00025	6a 00		 push	 0
  00027	50		 push	 eax
  00028	e8 00 00 00 00	 call	 _memset

; 359  : 
; 360  : 	sprintf( szQuery, "usp_CampusPointLog_Insert  @m_idPlayer = '%07d', @serverindex = '%02d', @chState = '%c', @nPrevPoint = %0d, @nCurrPoint = %d", 

  0002d	ff 75 10	 push	 DWORD PTR _nCurrPoint$[ebp]
  00030	0f be 45 14	 movsx	 eax, BYTE PTR _chState$[ebp]
  00034	ff 75 0c	 push	 DWORD PTR _nPrevPoint$[ebp]
  00037	50		 push	 eax
  00038	ff 35 00 00 00
	00		 push	 DWORD PTR ?g_appInfo@@3UAppInfo@@A
  0003e	8d 85 fc 5f ff
	ff		 lea	 eax, DWORD PTR _szQuery$[ebp]
  00044	ff 75 08	 push	 DWORD PTR _idPlayer$[ebp]
  00047	68 00 00 00 00	 push	 OFFSET ??_C@_0HN@EDLOELGN@usp_CampusPointLog_Insert?5?5?$EAm_i@
  0004c	50		 push	 eax
  0004d	e8 00 00 00 00	 call	 _sprintf

; 361  : 		idPlayer, g_appInfo.dwSys, chState, nPrevPoint, nCurrPoint );
; 362  : 	if( m_pLogQuery->Exec( szQuery ) == FALSE )

  00052	8b 4e 14	 mov	 ecx, DWORD PTR [esi+20]
  00055	8d 85 fc 5f ff
	ff		 lea	 eax, DWORD PTR _szQuery$[ebp]
  0005b	83 c4 28	 add	 esp, 40			; 00000028H
  0005e	50		 push	 eax
  0005f	e8 00 00 00 00	 call	 ?Exec@CQuery@@QAEHPBD@Z	; CQuery::Exec
  00064	5e		 pop	 esi
  00065	85 c0		 test	 eax, eax
  00067	75 1e		 jne	 SHORT $LN2@LogUpdateC

; 363  : 	{ WriteLog( "%s, %d\t%s", __FILE__, __LINE__, szQuery ); return; }

  00069	8d 85 fc 5f ff
	ff		 lea	 eax, DWORD PTR _szQuery$[ebp]
  0006f	50		 push	 eax
  00070	68 6b 01 00 00	 push	 363			; 0000016bH
  00075	68 00 00 00 00	 push	 OFFSET ??_C@_0EC@CBKPOIDK@C?3?2IAGOS?2server?2v18?2Source?2Sour@
  0007a	68 00 00 00 00	 push	 OFFSET ??_C@_09GBAEEKDE@?$CFs?0?5?$CFd?7?$CFs@
  0007f	e8 00 00 00 00	 call	 ?WriteLog@@YAXPBDZZ	; WriteLog
  00084	83 c4 10	 add	 esp, 16			; 00000010H
$LN2@LogUpdateC:

; 364  : }

  00087	8b 4d fc	 mov	 ecx, DWORD PTR __$ArrayPad$[ebp]
  0008a	33 cd		 xor	 ecx, ebp
  0008c	e8 00 00 00 00	 call	 @__security_check_cookie@4
  00091	8b e5		 mov	 esp, ebp
  00093	5d		 pop	 ebp
  00094	c2 10 00	 ret	 16			; 00000010H
?LogUpdateCampusPoint@CCampusDBCtrl@@AAEXKHHD@Z ENDP	; CCampusDBCtrl::LogUpdateCampusPoint
_TEXT	ENDS
; Function compile flags: /Ogtp
; File C:\IAGOS\server\v18\Source\Source\DatabaseServer\CampusDBCtrl.cpp
;	COMDAT ?LogUpdateCampusMember@CCampusDBCtrl@@AAEXKKKD@Z
_TEXT	SEGMENT
_szQuery$ = -40964					; size = 40960
__$ArrayPad$ = -4					; size = 4
_idCampus$ = 8						; size = 4
_idMaster$ = 12						; size = 4
_idPupil$ = 16						; size = 4
_chState$ = 20						; size = 1
?LogUpdateCampusMember@CCampusDBCtrl@@AAEXKKKD@Z PROC	; CCampusDBCtrl::LogUpdateCampusMember, COMDAT
; _this$ = ecx

; 347  : {

  00000	55		 push	 ebp
  00001	8b ec		 mov	 ebp, esp
  00003	b8 04 a0 00 00	 mov	 eax, 40964		; 0000a004H
  00008	e8 00 00 00 00	 call	 __chkstk
  0000d	a1 00 00 00 00	 mov	 eax, DWORD PTR ___security_cookie
  00012	33 c5		 xor	 eax, ebp
  00014	89 45 fc	 mov	 DWORD PTR __$ArrayPad$[ebp], eax
  00017	56		 push	 esi

; 348  : 	char szQuery[QUERY_SIZE] = {0, };

  00018	68 00 a0 00 00	 push	 40960			; 0000a000H
  0001d	8d 85 fc 5f ff
	ff		 lea	 eax, DWORD PTR _szQuery$[ebp]
  00023	8b f1		 mov	 esi, ecx
  00025	6a 00		 push	 0
  00027	50		 push	 eax
  00028	e8 00 00 00 00	 call	 _memset

; 349  : 
; 350  : 	sprintf( szQuery, "usp_CampusLog_Insert  @m_idMaster = '%07d', @serverindex = '%02d', @idCampus = %d, @m_idPupil = '%07d', @chState = '%c'", 

  0002d	0f be 45 14	 movsx	 eax, BYTE PTR _chState$[ebp]
  00031	50		 push	 eax
  00032	ff 75 10	 push	 DWORD PTR _idPupil$[ebp]
  00035	8d 85 fc 5f ff
	ff		 lea	 eax, DWORD PTR _szQuery$[ebp]
  0003b	ff 75 08	 push	 DWORD PTR _idCampus$[ebp]
  0003e	ff 35 00 00 00
	00		 push	 DWORD PTR ?g_appInfo@@3UAppInfo@@A
  00044	ff 75 0c	 push	 DWORD PTR _idMaster$[ebp]
  00047	68 00 00 00 00	 push	 OFFSET ??_C@_0HI@KDLLPGLE@usp_CampusLog_Insert?5?5?$EAm_idMast@
  0004c	50		 push	 eax
  0004d	e8 00 00 00 00	 call	 _sprintf

; 351  : 		idMaster, g_appInfo.dwSys, idCampus, idPupil, chState );
; 352  : 	if( m_pLogQuery->Exec( szQuery ) == FALSE )

  00052	8b 4e 14	 mov	 ecx, DWORD PTR [esi+20]
  00055	8d 85 fc 5f ff
	ff		 lea	 eax, DWORD PTR _szQuery$[ebp]
  0005b	83 c4 28	 add	 esp, 40			; 00000028H
  0005e	50		 push	 eax
  0005f	e8 00 00 00 00	 call	 ?Exec@CQuery@@QAEHPBD@Z	; CQuery::Exec
  00064	5e		 pop	 esi
  00065	85 c0		 test	 eax, eax
  00067	75 1e		 jne	 SHORT $LN2@LogUpdateC

; 353  : 	{ WriteLog( "%s, %d\t%s", __FILE__, __LINE__, szQuery ); return; }

  00069	8d 85 fc 5f ff
	ff		 lea	 eax, DWORD PTR _szQuery$[ebp]
  0006f	50		 push	 eax
  00070	68 61 01 00 00	 push	 353			; 00000161H
  00075	68 00 00 00 00	 push	 OFFSET ??_C@_0EC@CBKPOIDK@C?3?2IAGOS?2server?2v18?2Source?2Sour@
  0007a	68 00 00 00 00	 push	 OFFSET ??_C@_09GBAEEKDE@?$CFs?0?5?$CFd?7?$CFs@
  0007f	e8 00 00 00 00	 call	 ?WriteLog@@YAXPBDZZ	; WriteLog
  00084	83 c4 10	 add	 esp, 16			; 00000010H
$LN2@LogUpdateC:

; 354  : }

  00087	8b 4d fc	 mov	 ecx, DWORD PTR __$ArrayPad$[ebp]
  0008a	33 cd		 xor	 ecx, ebp
  0008c	e8 00 00 00 00	 call	 @__security_check_cookie@4
  00091	8b e5		 mov	 esp, ebp
  00093	5d		 pop	 ebp
  00094	c2 10 00	 ret	 16			; 00000010H
?LogUpdateCampusMember@CCampusDBCtrl@@AAEXKKKD@Z ENDP	; CCampusDBCtrl::LogUpdateCampusMember
_TEXT	ENDS
; Function compile flags: /Ogtp
; File C:\IAGOS\server\v18\Source\Source\DatabaseServer\CampusDBCtrl.cpp
;	COMDAT ?UpdateCampusId@CCampusDBCtrl@@AAEXKK@Z
_TEXT	SEGMENT
_szQuery$ = -40964					; size = 40960
__$ArrayPad$ = -4					; size = 4
_idPlayer$ = 8						; size = 4
_idCampus$ = 12						; size = 4
?UpdateCampusId@CCampusDBCtrl@@AAEXKK@Z PROC		; CCampusDBCtrl::UpdateCampusId, COMDAT
; _this$ = ecx

; 337  : {

  00000	55		 push	 ebp
  00001	8b ec		 mov	 ebp, esp
  00003	b8 04 a0 00 00	 mov	 eax, 40964		; 0000a004H
  00008	e8 00 00 00 00	 call	 __chkstk
  0000d	a1 00 00 00 00	 mov	 eax, DWORD PTR ___security_cookie
  00012	33 c5		 xor	 eax, ebp
  00014	89 45 fc	 mov	 DWORD PTR __$ArrayPad$[ebp], eax
  00017	56		 push	 esi

; 338  : 	CQuery* pQuery = GetQueryObject();

  00018	8b 71 0c	 mov	 esi, DWORD PTR [ecx+12]

; 339  : 	char szQuery[QUERY_SIZE] = {0, };

  0001b	8d 85 fc 5f ff
	ff		 lea	 eax, DWORD PTR _szQuery$[ebp]
  00021	68 00 a0 00 00	 push	 40960			; 0000a000H
  00026	6a 00		 push	 0
  00028	50		 push	 eax
  00029	e8 00 00 00 00	 call	 _memset
  0002e	83 c4 0c	 add	 esp, 12			; 0000000cH

; 340  : 	
; 341  : 	g_DbManager.DBQryCharacter( szQuery, "U6", idPlayer, g_appInfo.dwSys, '\0', "", idCampus );

  00031	6a 00		 push	 0
  00033	6a 00		 push	 0
  00035	6a 00		 push	 0
  00037	6a 00		 push	 0
  00039	6a ff		 push	 -1
  0003b	6a 00		 push	 0
  0003d	6a 00		 push	 0
  0003f	6a 00		 push	 0
  00041	6a 00		 push	 0
  00043	6a 00		 push	 0
  00045	6a 00		 push	 0
  00047	6a 00		 push	 0
  00049	6a 00		 push	 0
  0004b	6a 00		 push	 0
  0004d	6a 00		 push	 0
  0004f	6a 00		 push	 0
  00051	6a 00		 push	 0
  00053	83 ec 0c	 sub	 esp, 12			; 0000000cH
  00056	c7 44 24 08 00
	00 00 00	 mov	 DWORD PTR [esp+8], 0
  0005e	c7 44 24 04 00
	00 00 00	 mov	 DWORD PTR [esp+4], 0
  00066	c7 04 24 00 00
	00 00		 mov	 DWORD PTR [esp], 0
  0006d	6a 00		 push	 0
  0006f	6a 00		 push	 0
  00071	6a 00		 push	 0
  00073	6a 00		 push	 0
  00075	6a 00		 push	 0
  00077	6a 00		 push	 0
  00079	6a 00		 push	 0
  0007b	6a 00		 push	 0
  0007d	6a 00		 push	 0
  0007f	6a 00		 push	 0
  00081	6a 00		 push	 0
  00083	6a 00		 push	 0
  00085	6a 00		 push	 0
  00087	6a 00		 push	 0
  00089	6a 00		 push	 0
  0008b	6a 00		 push	 0
  0008d	6a 00		 push	 0
  0008f	6a 00		 push	 0
  00091	6a 00		 push	 0
  00093	6a 00		 push	 0
  00095	6a 00		 push	 0
  00097	6a 00		 push	 0
  00099	6a 00		 push	 0
  0009b	6a 00		 push	 0
  0009d	6a 00		 push	 0
  0009f	6a 00		 push	 0
  000a1	6a 00		 push	 0
  000a3	6a 00		 push	 0
  000a5	6a 00		 push	 0
  000a7	6a 00		 push	 0
  000a9	6a 00		 push	 0
  000ab	6a 00		 push	 0
  000ad	6a 00		 push	 0
  000af	6a 00		 push	 0
  000b1	6a 00		 push	 0
  000b3	6a 00		 push	 0
  000b5	6a 00		 push	 0
  000b7	6a 00		 push	 0
  000b9	6a 00		 push	 0
  000bb	6a 46		 push	 70			; 00000046H
  000bd	6a 00		 push	 0
  000bf	6a 00		 push	 0
  000c1	6a 00		 push	 0
  000c3	6a 00		 push	 0
  000c5	6a 00		 push	 0
  000c7	6a 00		 push	 0
  000c9	83 ec 0c	 sub	 esp, 12			; 0000000cH
  000cc	c7 44 24 08 00
	00 00 00	 mov	 DWORD PTR [esp+8], 0
  000d4	c7 44 24 04 00
	00 00 00	 mov	 DWORD PTR [esp+4], 0
  000dc	c7 04 24 00 00
	00 00		 mov	 DWORD PTR [esp], 0
  000e3	6a 00		 push	 0
  000e5	6a 00		 push	 0
  000e7	6a 00		 push	 0
  000e9	6a 00		 push	 0
  000eb	6a 00		 push	 0
  000ed	6a 00		 push	 0
  000ef	6a 00		 push	 0
  000f1	6a 00		 push	 0
  000f3	6a 00		 push	 0
  000f5	6a 00		 push	 0
  000f7	6a 00		 push	 0
  000f9	6a 00		 push	 0
  000fb	6a 00		 push	 0
  000fd	6a 00		 push	 0
  000ff	6a 00		 push	 0
  00101	6a 00		 push	 0
  00103	6a 00		 push	 0
  00105	6a 00		 push	 0
  00107	6a 00		 push	 0
  00109	6a 00		 push	 0
  0010b	6a 00		 push	 0
  0010d	51		 push	 ecx
  0010e	c7 04 24 00 00
	00 00		 mov	 DWORD PTR [esp], 0
  00115	8d 85 fc 5f ff
	ff		 lea	 eax, DWORD PTR _szQuery$[ebp]
  0011b	6a 00		 push	 0
  0011d	51		 push	 ecx
  0011e	c7 04 24 00 00
	00 00		 mov	 DWORD PTR [esp], 0
  00125	6a 00		 push	 0
  00127	6a 00		 push	 0
  00129	6a 00		 push	 0
  0012b	6a 00		 push	 0
  0012d	6a 00		 push	 0
  0012f	6a 00		 push	 0
  00131	83 ec 0c	 sub	 esp, 12			; 0000000cH
  00134	8b 0d 00 00 00
	00		 mov	 ecx, DWORD PTR ?g_DbManager@@3AAVCDbManager@@A ; g_DbManager
  0013a	c7 44 24 08 00
	00 00 00	 mov	 DWORD PTR [esp+8], 0
  00142	c7 44 24 04 00
	00 00 00	 mov	 DWORD PTR [esp+4], 0
  0014a	c7 04 24 00 00
	00 00		 mov	 DWORD PTR [esp], 0
  00151	6a 00		 push	 0
  00153	6a 00		 push	 0
  00155	ff 75 0c	 push	 DWORD PTR _idCampus$[ebp]
  00158	68 00 00 00 00	 push	 OFFSET ??_C@_00CNPNBAHC@@
  0015d	6a 00		 push	 0
  0015f	ff 35 00 00 00
	00		 push	 DWORD PTR ?g_appInfo@@3UAppInfo@@A
  00165	ff 75 08	 push	 DWORD PTR _idPlayer$[ebp]
  00168	68 00 00 00 00	 push	 OFFSET ??_C@_02ODNFFLMD@U6@
  0016d	50		 push	 eax
  0016e	e8 00 00 00 00	 call	 ?DBQryCharacter@CDbManager@@QAEXPAD0KH00HKKMMM0KKKKKMKMHHHKKH0HHHHH_J1000KHMMMHHHHH0DKHHH1HKKH0000000000000H000KHH00K00000KMMMHKK1J00KHHHHHHK0@Z ; CDbManager::DBQryCharacter

; 342  : 	if( pQuery->Exec( szQuery ) == FALSE )

  00173	8d 85 fc 5f ff
	ff		 lea	 eax, DWORD PTR _szQuery$[ebp]
  00179	8b ce		 mov	 ecx, esi
  0017b	50		 push	 eax
  0017c	e8 00 00 00 00	 call	 ?Exec@CQuery@@QAEHPBD@Z	; CQuery::Exec
  00181	5e		 pop	 esi
  00182	85 c0		 test	 eax, eax
  00184	75 1e		 jne	 SHORT $LN2@UpdateCamp

; 343  : 	{ WriteLog( "%s, %d\t%s", __FILE__, __LINE__, szQuery ); return; }

  00186	8d 85 fc 5f ff
	ff		 lea	 eax, DWORD PTR _szQuery$[ebp]
  0018c	50		 push	 eax
  0018d	68 57 01 00 00	 push	 343			; 00000157H
  00192	68 00 00 00 00	 push	 OFFSET ??_C@_0EC@CBKPOIDK@C?3?2IAGOS?2server?2v18?2Source?2Sour@
  00197	68 00 00 00 00	 push	 OFFSET ??_C@_09GBAEEKDE@?$CFs?0?5?$CFd?7?$CFs@
  0019c	e8 00 00 00 00	 call	 ?WriteLog@@YAXPBDZZ	; WriteLog
  001a1	83 c4 10	 add	 esp, 16			; 00000010H
$LN2@UpdateCamp:

; 344  : }

  001a4	8b 4d fc	 mov	 ecx, DWORD PTR __$ArrayPad$[ebp]
  001a7	33 cd		 xor	 ecx, ebp
  001a9	e8 00 00 00 00	 call	 @__security_check_cookie@4
  001ae	8b e5		 mov	 esp, ebp
  001b0	5d		 pop	 ebp
  001b1	c2 08 00	 ret	 8
?UpdateCampusId@CCampusDBCtrl@@AAEXKK@Z ENDP		; CCampusDBCtrl::UpdateCampusId
_TEXT	ENDS
; Function compile flags: /Ogtp
; File C:\IAGOS\server\v18\Source\Source\DatabaseServer\CampusDBCtrl.cpp
;	COMDAT ?UpdateCampusPoint@CCampusDBCtrl@@AAEHKH@Z
_TEXT	SEGMENT
_szQuery$ = -40964					; size = 40960
__$ArrayPad$ = -4					; size = 4
_idPlayer$ = 8						; size = 4
_nCampusPoint$ = 12					; size = 4
?UpdateCampusPoint@CCampusDBCtrl@@AAEHKH@Z PROC		; CCampusDBCtrl::UpdateCampusPoint, COMDAT
; _this$ = ecx

; 321  : {

  00000	55		 push	 ebp
  00001	8b ec		 mov	 ebp, esp
  00003	b8 04 a0 00 00	 mov	 eax, 40964		; 0000a004H
  00008	e8 00 00 00 00	 call	 __chkstk
  0000d	a1 00 00 00 00	 mov	 eax, DWORD PTR ___security_cookie
  00012	33 c5		 xor	 eax, ebp
  00014	89 45 fc	 mov	 DWORD PTR __$ArrayPad$[ebp], eax
  00017	57		 push	 edi

; 322  : 	CQuery* pQuery = GetQueryObject();

  00018	8b 79 0c	 mov	 edi, DWORD PTR [ecx+12]

; 323  : 	char szQuery[QUERY_SIZE] = {0, };

  0001b	8d 85 fc 5f ff
	ff		 lea	 eax, DWORD PTR _szQuery$[ebp]
  00021	68 00 a0 00 00	 push	 40960			; 0000a000H
  00026	6a 00		 push	 0
  00028	50		 push	 eax
  00029	e8 00 00 00 00	 call	 _memset
  0002e	83 c4 0c	 add	 esp, 12			; 0000000cH

; 324  : 	
; 325  : 	g_DbManager.DBQryCharacter( szQuery, "U5", idPlayer, g_appInfo.dwSys, '\0', "", nCampusPoint );

  00031	6a 00		 push	 0
  00033	6a 00		 push	 0
  00035	6a 00		 push	 0
  00037	6a 00		 push	 0
  00039	6a ff		 push	 -1
  0003b	6a 00		 push	 0
  0003d	6a 00		 push	 0
  0003f	6a 00		 push	 0
  00041	6a 00		 push	 0
  00043	6a 00		 push	 0
  00045	6a 00		 push	 0
  00047	6a 00		 push	 0
  00049	6a 00		 push	 0
  0004b	6a 00		 push	 0
  0004d	6a 00		 push	 0
  0004f	6a 00		 push	 0
  00051	6a 00		 push	 0
  00053	83 ec 0c	 sub	 esp, 12			; 0000000cH
  00056	c7 44 24 08 00
	00 00 00	 mov	 DWORD PTR [esp+8], 0
  0005e	c7 44 24 04 00
	00 00 00	 mov	 DWORD PTR [esp+4], 0
  00066	c7 04 24 00 00
	00 00		 mov	 DWORD PTR [esp], 0
  0006d	6a 00		 push	 0
  0006f	6a 00		 push	 0
  00071	6a 00		 push	 0
  00073	6a 00		 push	 0
  00075	6a 00		 push	 0
  00077	6a 00		 push	 0
  00079	6a 00		 push	 0
  0007b	6a 00		 push	 0
  0007d	6a 00		 push	 0
  0007f	6a 00		 push	 0
  00081	6a 00		 push	 0
  00083	6a 00		 push	 0
  00085	6a 00		 push	 0
  00087	6a 00		 push	 0
  00089	6a 00		 push	 0
  0008b	6a 00		 push	 0
  0008d	6a 00		 push	 0
  0008f	6a 00		 push	 0
  00091	6a 00		 push	 0
  00093	6a 00		 push	 0
  00095	6a 00		 push	 0
  00097	6a 00		 push	 0
  00099	6a 00		 push	 0
  0009b	6a 00		 push	 0
  0009d	6a 00		 push	 0
  0009f	6a 00		 push	 0
  000a1	6a 00		 push	 0
  000a3	6a 00		 push	 0
  000a5	6a 00		 push	 0
  000a7	6a 00		 push	 0
  000a9	6a 00		 push	 0
  000ab	6a 00		 push	 0
  000ad	6a 00		 push	 0
  000af	6a 00		 push	 0
  000b1	6a 00		 push	 0
  000b3	6a 00		 push	 0
  000b5	6a 00		 push	 0
  000b7	6a 00		 push	 0
  000b9	6a 00		 push	 0
  000bb	6a 46		 push	 70			; 00000046H
  000bd	6a 00		 push	 0
  000bf	6a 00		 push	 0
  000c1	6a 00		 push	 0
  000c3	6a 00		 push	 0
  000c5	6a 00		 push	 0
  000c7	6a 00		 push	 0
  000c9	83 ec 0c	 sub	 esp, 12			; 0000000cH
  000cc	c7 44 24 08 00
	00 00 00	 mov	 DWORD PTR [esp+8], 0
  000d4	c7 44 24 04 00
	00 00 00	 mov	 DWORD PTR [esp+4], 0
  000dc	c7 04 24 00 00
	00 00		 mov	 DWORD PTR [esp], 0
  000e3	6a 00		 push	 0
  000e5	6a 00		 push	 0
  000e7	6a 00		 push	 0
  000e9	6a 00		 push	 0
  000eb	6a 00		 push	 0
  000ed	6a 00		 push	 0
  000ef	6a 00		 push	 0
  000f1	6a 00		 push	 0
  000f3	6a 00		 push	 0
  000f5	6a 00		 push	 0
  000f7	6a 00		 push	 0
  000f9	6a 00		 push	 0
  000fb	6a 00		 push	 0
  000fd	6a 00		 push	 0
  000ff	6a 00		 push	 0
  00101	6a 00		 push	 0
  00103	6a 00		 push	 0
  00105	6a 00		 push	 0
  00107	6a 00		 push	 0
  00109	6a 00		 push	 0
  0010b	6a 00		 push	 0
  0010d	51		 push	 ecx
  0010e	c7 04 24 00 00
	00 00		 mov	 DWORD PTR [esp], 0
  00115	8d 85 fc 5f ff
	ff		 lea	 eax, DWORD PTR _szQuery$[ebp]
  0011b	6a 00		 push	 0
  0011d	51		 push	 ecx
  0011e	c7 04 24 00 00
	00 00		 mov	 DWORD PTR [esp], 0
  00125	6a 00		 push	 0
  00127	6a 00		 push	 0
  00129	6a 00		 push	 0
  0012b	6a 00		 push	 0
  0012d	6a 00		 push	 0
  0012f	6a 00		 push	 0
  00131	83 ec 0c	 sub	 esp, 12			; 0000000cH
  00134	8b 0d 00 00 00
	00		 mov	 ecx, DWORD PTR ?g_DbManager@@3AAVCDbManager@@A ; g_DbManager
  0013a	c7 44 24 08 00
	00 00 00	 mov	 DWORD PTR [esp+8], 0
  00142	c7 44 24 04 00
	00 00 00	 mov	 DWORD PTR [esp+4], 0
  0014a	c7 04 24 00 00
	00 00		 mov	 DWORD PTR [esp], 0
  00151	6a 00		 push	 0
  00153	6a 00		 push	 0
  00155	ff 75 0c	 push	 DWORD PTR _nCampusPoint$[ebp]
  00158	68 00 00 00 00	 push	 OFFSET ??_C@_00CNPNBAHC@@
  0015d	6a 00		 push	 0
  0015f	ff 35 00 00 00
	00		 push	 DWORD PTR ?g_appInfo@@3UAppInfo@@A
  00165	ff 75 08	 push	 DWORD PTR _idPlayer$[ebp]
  00168	68 00 00 00 00	 push	 OFFSET ??_C@_02MIPIAIAA@U5@
  0016d	50		 push	 eax
  0016e	e8 00 00 00 00	 call	 ?DBQryCharacter@CDbManager@@QAEXPAD0KH00HKKMMM0KKKKKMKMHHHKKH0HHHHH_J1000KHMMMHHHHH0DKHHH1HKKH0000000000000H000KHH00K00000KMMMHKK1J00KHHHHHHK0@Z ; CDbManager::DBQryCharacter

; 326  : 	if( pQuery->Exec( szQuery ) == FALSE )

  00173	8d 85 fc 5f ff
	ff		 lea	 eax, DWORD PTR _szQuery$[ebp]
  00179	8b cf		 mov	 ecx, edi
  0017b	50		 push	 eax
  0017c	e8 00 00 00 00	 call	 ?Exec@CQuery@@QAEHPBD@Z	; CQuery::Exec
  00181	85 c0		 test	 eax, eax
  00183	75 34		 jne	 SHORT $LN2@UpdateCamp

; 327  : 	{ WriteLog( "%s, %d\t%s", __FILE__, __LINE__, szQuery ); return INT_MAX; }

  00185	8d 85 fc 5f ff
	ff		 lea	 eax, DWORD PTR _szQuery$[ebp]
  0018b	50		 push	 eax
  0018c	68 47 01 00 00	 push	 327			; 00000147H
  00191	68 00 00 00 00	 push	 OFFSET ??_C@_0EC@CBKPOIDK@C?3?2IAGOS?2server?2v18?2Source?2Sour@
  00196	68 00 00 00 00	 push	 OFFSET ??_C@_09GBAEEKDE@?$CFs?0?5?$CFd?7?$CFs@
  0019b	e8 00 00 00 00	 call	 ?WriteLog@@YAXPBDZZ	; WriteLog
  001a0	83 c4 10	 add	 esp, 16			; 00000010H
  001a3	b8 ff ff ff 7f	 mov	 eax, 2147483647		; 7fffffffH
  001a8	5f		 pop	 edi

; 332  : 	
; 333  : 	return nTotalPoint;
; 334  : }

  001a9	8b 4d fc	 mov	 ecx, DWORD PTR __$ArrayPad$[ebp]
  001ac	33 cd		 xor	 ecx, ebp
  001ae	e8 00 00 00 00	 call	 @__security_check_cookie@4
  001b3	8b e5		 mov	 esp, ebp
  001b5	5d		 pop	 ebp
  001b6	c2 08 00	 ret	 8
$LN2@UpdateCamp:
  001b9	56		 push	 esi

; 328  : 
; 329  : 	int nTotalPoint = INT_MAX;
; 330  : 	if( pQuery->Fetch() )

  001ba	8b cf		 mov	 ecx, edi
  001bc	be ff ff ff 7f	 mov	 esi, 2147483647		; 7fffffffH
  001c1	e8 00 00 00 00	 call	 ?Fetch@CQuery@@QAEHXZ	; CQuery::Fetch
  001c6	85 c0		 test	 eax, eax
  001c8	74 0e		 je	 SHORT $LN3@UpdateCamp

; 331  : 		nTotalPoint = pQuery->GetInt( "m_nCampusPoint" );

  001ca	68 00 00 00 00	 push	 OFFSET ??_C@_0P@HAGDFNOH@m_nCampusPoint@
  001cf	8b cf		 mov	 ecx, edi
  001d1	e8 00 00 00 00	 call	 ?GetInt@CQuery@@QAEHPAD@Z ; CQuery::GetInt
  001d6	8b f0		 mov	 esi, eax
$LN3@UpdateCamp:

; 332  : 	
; 333  : 	return nTotalPoint;
; 334  : }

  001d8	8b 4d fc	 mov	 ecx, DWORD PTR __$ArrayPad$[ebp]
  001db	8b c6		 mov	 eax, esi
  001dd	5e		 pop	 esi
  001de	33 cd		 xor	 ecx, ebp
  001e0	5f		 pop	 edi
  001e1	e8 00 00 00 00	 call	 @__security_check_cookie@4
  001e6	8b e5		 mov	 esp, ebp
  001e8	5d		 pop	 ebp
  001e9	c2 08 00	 ret	 8
?UpdateCampusPoint@CCampusDBCtrl@@AAEHKH@Z ENDP		; CCampusDBCtrl::UpdateCampusPoint
_TEXT	ENDS
; Function compile flags: /Ogtp
; File C:\IAGOS\server\v18\Source\Source\DatabaseServer\CampusDBCtrl.cpp
;	COMDAT ?DeleteCampusMember@CCampusDBCtrl@@AAEXKH@Z
_TEXT	SEGMENT
_szQuery$ = -40964					; size = 40960
__$ArrayPad$ = -4					; size = 4
_idPlayer$ = 8						; size = 4
_nMemberLv$ = 12					; size = 4
?DeleteCampusMember@CCampusDBCtrl@@AAEXKH@Z PROC	; CCampusDBCtrl::DeleteCampusMember, COMDAT
; _this$ = ecx

; 310  : {

  00000	55		 push	 ebp
  00001	8b ec		 mov	 ebp, esp
  00003	b8 04 a0 00 00	 mov	 eax, 40964		; 0000a004H
  00008	e8 00 00 00 00	 call	 __chkstk
  0000d	a1 00 00 00 00	 mov	 eax, DWORD PTR ___security_cookie
  00012	33 c5		 xor	 eax, ebp
  00014	89 45 fc	 mov	 DWORD PTR __$ArrayPad$[ebp], eax
  00017	56		 push	 esi

; 311  : 	CQuery* pQuery = GetQueryObject();

  00018	8b 71 0c	 mov	 esi, DWORD PTR [ecx+12]

; 312  : 	char szQuery[QUERY_SIZE] = {0, };

  0001b	8d 85 fc 5f ff
	ff		 lea	 eax, DWORD PTR _szQuery$[ebp]
  00021	68 00 a0 00 00	 push	 40960			; 0000a000H
  00026	6a 00		 push	 0
  00028	50		 push	 eax
  00029	e8 00 00 00 00	 call	 _memset

; 313  : 	
; 314  : 	sprintf( szQuery, "usp_CampusMember_Delete  @serverindex = '%02d', @m_idPlayer = '%07d', @nMemberLv = %d", 

  0002e	ff 75 0c	 push	 DWORD PTR _nMemberLv$[ebp]
  00031	8d 85 fc 5f ff
	ff		 lea	 eax, DWORD PTR _szQuery$[ebp]
  00037	ff 75 08	 push	 DWORD PTR _idPlayer$[ebp]
  0003a	ff 35 00 00 00
	00		 push	 DWORD PTR ?g_appInfo@@3UAppInfo@@A
  00040	68 00 00 00 00	 push	 OFFSET ??_C@_0FG@OBOHOBGA@usp_CampusMember_Delete?5?5?$EAserve@
  00045	50		 push	 eax
  00046	e8 00 00 00 00	 call	 _sprintf
  0004b	83 c4 20	 add	 esp, 32			; 00000020H

; 315  : 		g_appInfo.dwSys, idPlayer, nMemberLv );
; 316  : 	if( pQuery->Exec( szQuery ) == FALSE )

  0004e	8d 85 fc 5f ff
	ff		 lea	 eax, DWORD PTR _szQuery$[ebp]
  00054	8b ce		 mov	 ecx, esi
  00056	50		 push	 eax
  00057	e8 00 00 00 00	 call	 ?Exec@CQuery@@QAEHPBD@Z	; CQuery::Exec
  0005c	5e		 pop	 esi
  0005d	85 c0		 test	 eax, eax
  0005f	75 1e		 jne	 SHORT $LN2@DeleteCamp

; 317  : 	{ WriteLog( "%s, %d\t%s", __FILE__, __LINE__, szQuery ); return; }

  00061	8d 85 fc 5f ff
	ff		 lea	 eax, DWORD PTR _szQuery$[ebp]
  00067	50		 push	 eax
  00068	68 3d 01 00 00	 push	 317			; 0000013dH
  0006d	68 00 00 00 00	 push	 OFFSET ??_C@_0EC@CBKPOIDK@C?3?2IAGOS?2server?2v18?2Source?2Sour@
  00072	68 00 00 00 00	 push	 OFFSET ??_C@_09GBAEEKDE@?$CFs?0?5?$CFd?7?$CFs@
  00077	e8 00 00 00 00	 call	 ?WriteLog@@YAXPBDZZ	; WriteLog
  0007c	83 c4 10	 add	 esp, 16			; 00000010H
$LN2@DeleteCamp:

; 318  : }

  0007f	8b 4d fc	 mov	 ecx, DWORD PTR __$ArrayPad$[ebp]
  00082	33 cd		 xor	 ecx, ebp
  00084	e8 00 00 00 00	 call	 @__security_check_cookie@4
  00089	8b e5		 mov	 esp, ebp
  0008b	5d		 pop	 ebp
  0008c	c2 08 00	 ret	 8
?DeleteCampusMember@CCampusDBCtrl@@AAEXKH@Z ENDP	; CCampusDBCtrl::DeleteCampusMember
_TEXT	ENDS
; Function compile flags: /Ogtp
; File C:\IAGOS\server\v18\Source\Source\DatabaseServer\CampusDBCtrl.cpp
;	COMDAT ?InsertCampusMember@CCampusDBCtrl@@AAEXKKH@Z
_TEXT	SEGMENT
_szQuery$ = -40964					; size = 40960
__$ArrayPad$ = -4					; size = 4
_idCampus$ = 8						; size = 4
_idPlayer$ = 12						; size = 4
_nMemberLv$ = 16					; size = 4
?InsertCampusMember@CCampusDBCtrl@@AAEXKKH@Z PROC	; CCampusDBCtrl::InsertCampusMember, COMDAT
; _this$ = ecx

; 299  : {

  00000	55		 push	 ebp
  00001	8b ec		 mov	 ebp, esp
  00003	b8 04 a0 00 00	 mov	 eax, 40964		; 0000a004H
  00008	e8 00 00 00 00	 call	 __chkstk
  0000d	a1 00 00 00 00	 mov	 eax, DWORD PTR ___security_cookie
  00012	33 c5		 xor	 eax, ebp
  00014	89 45 fc	 mov	 DWORD PTR __$ArrayPad$[ebp], eax
  00017	56		 push	 esi

; 300  : 	CQuery* pQuery = GetQueryObject();

  00018	8b 71 0c	 mov	 esi, DWORD PTR [ecx+12]

; 301  : 	char szQuery[QUERY_SIZE] = {0, };

  0001b	8d 85 fc 5f ff
	ff		 lea	 eax, DWORD PTR _szQuery$[ebp]
  00021	68 00 a0 00 00	 push	 40960			; 0000a000H
  00026	6a 00		 push	 0
  00028	50		 push	 eax
  00029	e8 00 00 00 00	 call	 _memset

; 302  : 	
; 303  : 	sprintf( szQuery, "usp_CampusMember_Insert @idCampus = %d, @serverindex = '%02d', @m_idPlayer = '%07d', @nMemberLv = %d", 

  0002e	ff 75 10	 push	 DWORD PTR _nMemberLv$[ebp]
  00031	8d 85 fc 5f ff
	ff		 lea	 eax, DWORD PTR _szQuery$[ebp]
  00037	ff 75 0c	 push	 DWORD PTR _idPlayer$[ebp]
  0003a	ff 35 00 00 00
	00		 push	 DWORD PTR ?g_appInfo@@3UAppInfo@@A
  00040	ff 75 08	 push	 DWORD PTR _idCampus$[ebp]
  00043	68 00 00 00 00	 push	 OFFSET ??_C@_0GF@JMBGFEDG@usp_CampusMember_Insert?5?$EAidCamp@
  00048	50		 push	 eax
  00049	e8 00 00 00 00	 call	 _sprintf
  0004e	83 c4 24	 add	 esp, 36			; 00000024H

; 304  : 		idCampus, g_appInfo.dwSys, idPlayer, nMemberLv );
; 305  : 	if( pQuery->Exec( szQuery ) == FALSE )

  00051	8d 85 fc 5f ff
	ff		 lea	 eax, DWORD PTR _szQuery$[ebp]
  00057	8b ce		 mov	 ecx, esi
  00059	50		 push	 eax
  0005a	e8 00 00 00 00	 call	 ?Exec@CQuery@@QAEHPBD@Z	; CQuery::Exec
  0005f	5e		 pop	 esi
  00060	85 c0		 test	 eax, eax
  00062	75 1e		 jne	 SHORT $LN2@InsertCamp

; 306  : 	{ WriteLog( "%s, %d\t%s", __FILE__, __LINE__, szQuery ); return; }

  00064	8d 85 fc 5f ff
	ff		 lea	 eax, DWORD PTR _szQuery$[ebp]
  0006a	50		 push	 eax
  0006b	68 32 01 00 00	 push	 306			; 00000132H
  00070	68 00 00 00 00	 push	 OFFSET ??_C@_0EC@CBKPOIDK@C?3?2IAGOS?2server?2v18?2Source?2Sour@
  00075	68 00 00 00 00	 push	 OFFSET ??_C@_09GBAEEKDE@?$CFs?0?5?$CFd?7?$CFs@
  0007a	e8 00 00 00 00	 call	 ?WriteLog@@YAXPBDZZ	; WriteLog
  0007f	83 c4 10	 add	 esp, 16			; 00000010H
$LN2@InsertCamp:

; 307  : }

  00082	8b 4d fc	 mov	 ecx, DWORD PTR __$ArrayPad$[ebp]
  00085	33 cd		 xor	 ecx, ebp
  00087	e8 00 00 00 00	 call	 @__security_check_cookie@4
  0008c	8b e5		 mov	 esp, ebp
  0008e	5d		 pop	 ebp
  0008f	c2 0c 00	 ret	 12			; 0000000cH
?InsertCampusMember@CCampusDBCtrl@@AAEXKKH@Z ENDP	; CCampusDBCtrl::InsertCampusMember
_TEXT	ENDS
; Function compile flags: /Ogtp
; File C:\IAGOS\server\v18\Source\Source\DatabaseServer\CampusDBCtrl.cpp
;	COMDAT ?DeleteCampus@CCampusDBCtrl@@AAEXK@Z
_TEXT	SEGMENT
_szQuery$ = -40964					; size = 40960
__$ArrayPad$ = -4					; size = 4
_idCampus$ = 8						; size = 4
?DeleteCampus@CCampusDBCtrl@@AAEXK@Z PROC		; CCampusDBCtrl::DeleteCampus, COMDAT
; _this$ = ecx

; 289  : {

  00000	55		 push	 ebp
  00001	8b ec		 mov	 ebp, esp
  00003	b8 04 a0 00 00	 mov	 eax, 40964		; 0000a004H
  00008	e8 00 00 00 00	 call	 __chkstk
  0000d	a1 00 00 00 00	 mov	 eax, DWORD PTR ___security_cookie
  00012	33 c5		 xor	 eax, ebp
  00014	89 45 fc	 mov	 DWORD PTR __$ArrayPad$[ebp], eax
  00017	56		 push	 esi

; 290  : 	CQuery* pQuery = GetQueryObject();

  00018	8b 71 0c	 mov	 esi, DWORD PTR [ecx+12]

; 291  : 	char szQuery[QUERY_SIZE] = {0, };

  0001b	8d 85 fc 5f ff
	ff		 lea	 eax, DWORD PTR _szQuery$[ebp]
  00021	68 00 a0 00 00	 push	 40960			; 0000a000H
  00026	6a 00		 push	 0
  00028	50		 push	 eax
  00029	e8 00 00 00 00	 call	 _memset

; 292  : 	
; 293  : 	sprintf( szQuery, "usp_Campus_Delete @idCampus = %d, @serverindex = '%02d'", idCampus, g_appInfo.dwSys );

  0002e	ff 35 00 00 00
	00		 push	 DWORD PTR ?g_appInfo@@3UAppInfo@@A
  00034	8d 85 fc 5f ff
	ff		 lea	 eax, DWORD PTR _szQuery$[ebp]
  0003a	ff 75 08	 push	 DWORD PTR _idCampus$[ebp]
  0003d	68 00 00 00 00	 push	 OFFSET ??_C@_0DI@GMELEMJP@usp_Campus_Delete?5?$EAidCampus?5?$DN?5?$CF@
  00042	50		 push	 eax
  00043	e8 00 00 00 00	 call	 _sprintf
  00048	83 c4 1c	 add	 esp, 28			; 0000001cH

; 294  : 	if( pQuery->Exec( szQuery ) == FALSE )

  0004b	8d 85 fc 5f ff
	ff		 lea	 eax, DWORD PTR _szQuery$[ebp]
  00051	8b ce		 mov	 ecx, esi
  00053	50		 push	 eax
  00054	e8 00 00 00 00	 call	 ?Exec@CQuery@@QAEHPBD@Z	; CQuery::Exec
  00059	5e		 pop	 esi
  0005a	85 c0		 test	 eax, eax
  0005c	75 1e		 jne	 SHORT $LN2@DeleteCamp

; 295  : 	{ WriteLog( "%s, %d\t%s", __FILE__, __LINE__, szQuery ); return; }

  0005e	8d 85 fc 5f ff
	ff		 lea	 eax, DWORD PTR _szQuery$[ebp]
  00064	50		 push	 eax
  00065	68 27 01 00 00	 push	 295			; 00000127H
  0006a	68 00 00 00 00	 push	 OFFSET ??_C@_0EC@CBKPOIDK@C?3?2IAGOS?2server?2v18?2Source?2Sour@
  0006f	68 00 00 00 00	 push	 OFFSET ??_C@_09GBAEEKDE@?$CFs?0?5?$CFd?7?$CFs@
  00074	e8 00 00 00 00	 call	 ?WriteLog@@YAXPBDZZ	; WriteLog
  00079	83 c4 10	 add	 esp, 16			; 00000010H
$LN2@DeleteCamp:

; 296  : }

  0007c	8b 4d fc	 mov	 ecx, DWORD PTR __$ArrayPad$[ebp]
  0007f	33 cd		 xor	 ecx, ebp
  00081	e8 00 00 00 00	 call	 @__security_check_cookie@4
  00086	8b e5		 mov	 esp, ebp
  00088	5d		 pop	 ebp
  00089	c2 04 00	 ret	 4
?DeleteCampus@CCampusDBCtrl@@AAEXK@Z ENDP		; CCampusDBCtrl::DeleteCampus
_TEXT	ENDS
; Function compile flags: /Ogtp
; File C:\IAGOS\server\v18\Source\Source\DatabaseServer\CampusDBCtrl.cpp
;	COMDAT ?InsertCampus@CCampusDBCtrl@@AAEXK@Z
_TEXT	SEGMENT
_szQuery$ = -40964					; size = 40960
__$ArrayPad$ = -4					; size = 4
_idCampus$ = 8						; size = 4
?InsertCampus@CCampusDBCtrl@@AAEXK@Z PROC		; CCampusDBCtrl::InsertCampus, COMDAT
; _this$ = ecx

; 279  : {

  00000	55		 push	 ebp
  00001	8b ec		 mov	 ebp, esp
  00003	b8 04 a0 00 00	 mov	 eax, 40964		; 0000a004H
  00008	e8 00 00 00 00	 call	 __chkstk
  0000d	a1 00 00 00 00	 mov	 eax, DWORD PTR ___security_cookie
  00012	33 c5		 xor	 eax, ebp
  00014	89 45 fc	 mov	 DWORD PTR __$ArrayPad$[ebp], eax
  00017	56		 push	 esi

; 280  : 	CQuery* pQuery = GetQueryObject();

  00018	8b 71 0c	 mov	 esi, DWORD PTR [ecx+12]

; 281  : 	char szQuery[QUERY_SIZE] = {0, };

  0001b	8d 85 fc 5f ff
	ff		 lea	 eax, DWORD PTR _szQuery$[ebp]
  00021	68 00 a0 00 00	 push	 40960			; 0000a000H
  00026	6a 00		 push	 0
  00028	50		 push	 eax
  00029	e8 00 00 00 00	 call	 _memset

; 282  : 	
; 283  : 	sprintf( szQuery, "usp_Campus_Insert @idCampus = %d, @serverindex = '%02d'", idCampus, g_appInfo.dwSys );

  0002e	ff 35 00 00 00
	00		 push	 DWORD PTR ?g_appInfo@@3UAppInfo@@A
  00034	8d 85 fc 5f ff
	ff		 lea	 eax, DWORD PTR _szQuery$[ebp]
  0003a	ff 75 08	 push	 DWORD PTR _idCampus$[ebp]
  0003d	68 00 00 00 00	 push	 OFFSET ??_C@_0DI@HDOGOKEB@usp_Campus_Insert?5?$EAidCampus?5?$DN?5?$CF@
  00042	50		 push	 eax
  00043	e8 00 00 00 00	 call	 _sprintf
  00048	83 c4 1c	 add	 esp, 28			; 0000001cH

; 284  : 	if( pQuery->Exec( szQuery ) == FALSE )

  0004b	8d 85 fc 5f ff
	ff		 lea	 eax, DWORD PTR _szQuery$[ebp]
  00051	8b ce		 mov	 ecx, esi
  00053	50		 push	 eax
  00054	e8 00 00 00 00	 call	 ?Exec@CQuery@@QAEHPBD@Z	; CQuery::Exec
  00059	5e		 pop	 esi
  0005a	85 c0		 test	 eax, eax
  0005c	75 1e		 jne	 SHORT $LN2@InsertCamp

; 285  : 	{ WriteLog( "%s, %d\t%s", __FILE__, __LINE__, szQuery ); return; }

  0005e	8d 85 fc 5f ff
	ff		 lea	 eax, DWORD PTR _szQuery$[ebp]
  00064	50		 push	 eax
  00065	68 1d 01 00 00	 push	 285			; 0000011dH
  0006a	68 00 00 00 00	 push	 OFFSET ??_C@_0EC@CBKPOIDK@C?3?2IAGOS?2server?2v18?2Source?2Sour@
  0006f	68 00 00 00 00	 push	 OFFSET ??_C@_09GBAEEKDE@?$CFs?0?5?$CFd?7?$CFs@
  00074	e8 00 00 00 00	 call	 ?WriteLog@@YAXPBDZZ	; WriteLog
  00079	83 c4 10	 add	 esp, 16			; 00000010H
$LN2@InsertCamp:

; 286  : }

  0007c	8b 4d fc	 mov	 ecx, DWORD PTR __$ArrayPad$[ebp]
  0007f	33 cd		 xor	 ecx, ebp
  00081	e8 00 00 00 00	 call	 @__security_check_cookie@4
  00086	8b e5		 mov	 esp, ebp
  00088	5d		 pop	 ebp
  00089	c2 04 00	 ret	 4
?InsertCampus@CCampusDBCtrl@@AAEXK@Z ENDP		; CCampusDBCtrl::InsertCampus
_TEXT	ENDS
; Function compile flags: /Ogtp
; File C:\IAGOS\server\v18\Source\Source\DatabaseServer\CampusDBCtrl.cpp
; File C:\Program Files\Microsoft Visual Studio\2022\Professional\VC\Tools\MSVC\14.44.35207\include\xtree
; File C:\IAGOS\server\v18\Source\Source\DatabaseServer\CampusDBCtrl.cpp
;	COMDAT ?SendAllCampus@CCampusDBCtrl@@AAEXK@Z
_TEXT	SEGMENT
_dpId$ = 8						; size = 4
?SendAllCampus@CCampusDBCtrl@@AAEXK@Z PROC		; CCampusDBCtrl::SendAllCampus, COMDAT
; _this$ = ecx

; 273  : {

  00000	55		 push	 ebp
  00001	8b ec		 mov	 ebp, esp

; 274  : 	if( !CCampusHelper::GetInstance()->IsEmpty() )

  00003	e8 00 00 00 00	 call	 ?GetInstance@CCampusHelper@@SAPAV1@XZ ; CCampusHelper::GetInstance
; File C:\Program Files\Microsoft Visual Studio\2022\Professional\VC\Tools\MSVC\14.44.35207\include\xtree

; 1218 :         return _Get_scary()->_Mysize == 0;

  00008	8b 40 18	 mov	 eax, DWORD PTR [eax+24]
  0000b	83 78 08 00	 cmp	 DWORD PTR [eax+8], 0
; File C:\IAGOS\server\v18\Source\Source\DatabaseServer\CampusDBCtrl.cpp

; 274  : 	if( !CCampusHelper::GetInstance()->IsEmpty() )

  0000f	74 0f		 je	 SHORT $LN2@SendAllCam

; 275  : 		CDPTrans::GetInstance()->SendAllCampus( dpId );

  00011	ff 75 08	 push	 DWORD PTR _dpId$[ebp]
  00014	e8 00 00 00 00	 call	 ?GetInstance@CDPTrans@@SAPAV1@XZ ; CDPTrans::GetInstance
  00019	8b c8		 mov	 ecx, eax
  0001b	e8 00 00 00 00	 call	 ?SendAllCampus@CDPTrans@@QAEXK@Z ; CDPTrans::SendAllCampus
$LN2@SendAllCam:

; 276  : }

  00020	5d		 pop	 ebp
  00021	c2 04 00	 ret	 4
?SendAllCampus@CCampusDBCtrl@@AAEXK@Z ENDP		; CCampusDBCtrl::SendAllCampus
_TEXT	ENDS
; Function compile flags: /Ogtp
; File C:\IAGOS\server\v18\Source\Source\DatabaseServer\CampusDBCtrl.cpp
; File C:\IAGOS\server\v18\Source\Source\_Common\Campus.h
; File C:\IAGOS\server\v18\Source\Source\DatabaseServer\CampusDBCtrl.cpp
; File C:\IAGOS\server\v18\Source\Source\DatabaseServer\CampusDBCtrl.h
; File C:\IAGOS\server\v18\Source\Source\DatabaseServer\CampusDBCtrl.cpp
; File C:\IAGOS\server\v18\Source\Source\DatabaseServer\CampusDBCtrl.h
; File C:\IAGOS\server\v18\Source\Source\DatabaseServer\CampusDBCtrl.cpp
; File C:\IAGOS\server\v18\Source\Source\_Common\Campus.h
; File C:\IAGOS\server\v18\Source\Source\DatabaseServer\CampusDBCtrl.cpp
; File C:\IAGOS\server\v18\Source\Source\_Common\Campus.h
; File C:\IAGOS\server\v18\Source\Source\DatabaseServer\CampusDBCtrl.cpp
; File C:\IAGOS\server\v18\Source\Source\DatabaseServer\CampusDBCtrl.h
; File C:\IAGOS\server\v18\Source\Source\DatabaseServer\CampusDBCtrl.cpp
; File C:\IAGOS\server\v18\Source\Source\DatabaseServer\CampusDBCtrl.h
; File C:\IAGOS\server\v18\Source\Source\DatabaseServer\CampusDBCtrl.cpp
;	COMDAT ?LoadAllCampus@CCampusDBCtrl@@AAEXXZ
_TEXT	SEGMENT
$T2 = -40984						; size = 4
$T3 = -40980						; size = 4
_idCampus$1$ = -40980					; size = 4
_szQuery$ = -40976					; size = 40960
__$ArrayPad$ = -16					; size = 4
__$EHRec$ = -12						; size = 12
?LoadAllCampus@CCampusDBCtrl@@AAEXXZ PROC		; CCampusDBCtrl::LoadAllCampus, COMDAT
; _this$ = ecx

; 72   : {

  00000	55		 push	 ebp
  00001	8b ec		 mov	 ebp, esp
  00003	6a ff		 push	 -1
  00005	68 00 00 00 00	 push	 __ehhandler$?LoadAllCampus@CCampusDBCtrl@@AAEXXZ
  0000a	64 a1 00 00 00
	00		 mov	 eax, DWORD PTR fs:0
  00010	50		 push	 eax
  00011	b8 0c a0 00 00	 mov	 eax, 40972		; 0000a00cH
  00016	e8 00 00 00 00	 call	 __chkstk
  0001b	a1 00 00 00 00	 mov	 eax, DWORD PTR ___security_cookie
  00020	33 c5		 xor	 eax, ebp
  00022	89 45 f0	 mov	 DWORD PTR __$ArrayPad$[ebp], eax
  00025	53		 push	 ebx
  00026	56		 push	 esi
  00027	57		 push	 edi
  00028	50		 push	 eax
  00029	8d 45 f4	 lea	 eax, DWORD PTR __$EHRec$[ebp]
  0002c	64 a3 00 00 00
	00		 mov	 DWORD PTR fs:0, eax

; 73   : 	CQuery* pQuery = GetQueryObject();

  00032	8b 79 0c	 mov	 edi, DWORD PTR [ecx+12]

; 74   : 	char szQuery[QUERY_SIZE] = {0, };

  00035	8d 85 f0 5f ff
	ff		 lea	 eax, DWORD PTR _szQuery$[ebp]
  0003b	68 00 a0 00 00	 push	 40960			; 0000a000H
  00040	6a 00		 push	 0
  00042	50		 push	 eax
  00043	e8 00 00 00 00	 call	 _memset

; 75   : 	
; 76   : 	sprintf( szQuery, "usp_Campus_Load @serverindex = '%02d'", g_appInfo.dwSys );

  00048	ff 35 00 00 00
	00		 push	 DWORD PTR ?g_appInfo@@3UAppInfo@@A
  0004e	8d 85 f0 5f ff
	ff		 lea	 eax, DWORD PTR _szQuery$[ebp]
  00054	68 00 00 00 00	 push	 OFFSET ??_C@_0CG@EPNBNDFJ@usp_Campus_Load?5?$EAserverindex?5?$DN?5@
  00059	50		 push	 eax
  0005a	e8 00 00 00 00	 call	 _sprintf
  0005f	83 c4 18	 add	 esp, 24			; 00000018H

; 77   : 	if( pQuery->Exec( szQuery ) == FALSE )

  00062	8d 85 f0 5f ff
	ff		 lea	 eax, DWORD PTR _szQuery$[ebp]
  00068	8b cf		 mov	 ecx, edi
  0006a	50		 push	 eax
  0006b	e8 00 00 00 00	 call	 ?Exec@CQuery@@QAEHPBD@Z	; CQuery::Exec
  00070	85 c0		 test	 eax, eax
  00072	75 20		 jne	 SHORT $LN39@LoadAllCam

; 78   : 	{ WriteLog( "%s, %d\t%s", __FILE__, __LINE__, szQuery ); return; }

  00074	8d 85 f0 5f ff
	ff		 lea	 eax, DWORD PTR _szQuery$[ebp]
  0007a	50		 push	 eax
  0007b	6a 4e		 push	 78			; 0000004eH
$LN47@LoadAllCam:

; 113  : 			SAFE_DELETE( pMember );
; 114  : 		}
; 115  : 	}
; 116  : }

  0007d	68 00 00 00 00	 push	 OFFSET ??_C@_0EC@CBKPOIDK@C?3?2IAGOS?2server?2v18?2Source?2Sour@
  00082	68 00 00 00 00	 push	 OFFSET ??_C@_09GBAEEKDE@?$CFs?0?5?$CFd?7?$CFs@
  00087	e8 00 00 00 00	 call	 ?WriteLog@@YAXPBDZZ	; WriteLog
  0008c	83 c4 10	 add	 esp, 16			; 00000010H
  0008f	e9 91 01 00 00	 jmp	 $LN5@LoadAllCam
$LN39@LoadAllCam:

; 80   : 	while( pQuery->Fetch() )

  00094	8b cf		 mov	 ecx, edi
  00096	e8 00 00 00 00	 call	 ?Fetch@CQuery@@QAEHXZ	; CQuery::Fetch
  0009b	85 c0		 test	 eax, eax
  0009d	74 57		 je	 SHORT $LN3@LoadAllCam
  0009f	90		 npad	 1
$LL2@LoadAllCam:

; 81   : 	{
; 82   : 		CCampus* pCampus = new CCampus;

  000a0	6a 10		 push	 16			; 00000010H
  000a2	e8 00 00 00 00	 call	 ??2@YAPAXI@Z		; operator new
  000a7	83 c4 04	 add	 esp, 4
  000aa	89 85 ec 5f ff
	ff		 mov	 DWORD PTR $T3[ebp], eax
  000b0	c7 45 fc 00 00
	00 00		 mov	 DWORD PTR __$EHRec$[ebp+8], 0
  000b7	85 c0		 test	 eax, eax
  000b9	74 0b		 je	 SHORT $LN13@LoadAllCam
  000bb	8b c8		 mov	 ecx, eax
  000bd	e8 00 00 00 00	 call	 ??0CCampus@@QAE@XZ	; CCampus::CCampus
  000c2	8b f0		 mov	 esi, eax
  000c4	eb 02		 jmp	 SHORT $LN14@LoadAllCam
$LN13@LoadAllCam:
  000c6	33 f6		 xor	 esi, esi
$LN14@LoadAllCam:

; 83   : 		pCampus->SetCampusId( pQuery->GetInt( "idCampus" ) );

  000c8	68 00 00 00 00	 push	 OFFSET ??_C@_08FHGJFCBK@idCampus@
  000cd	8b cf		 mov	 ecx, edi
  000cf	c7 45 fc ff ff
	ff ff		 mov	 DWORD PTR __$EHRec$[ebp+8], -1
  000d6	e8 00 00 00 00	 call	 ?GetInt@CQuery@@QAEHPAD@Z ; CQuery::GetInt
; File C:\IAGOS\server\v18\Source\Source\_Common\Campus.h

; 51   : 	void	SetCampusId( u_long idCampus )	{	m_idCampus = idCampus;	}

  000db	89 06		 mov	 DWORD PTR [esi], eax
; File C:\IAGOS\server\v18\Source\Source\DatabaseServer\CampusDBCtrl.cpp

; 84   : 		CCampusHelper::GetInstance()->AddCampus( pCampus );

  000dd	e8 00 00 00 00	 call	 ?GetInstance@CCampusHelper@@SAPAV1@XZ ; CCampusHelper::GetInstance
; File C:\IAGOS\server\v18\Source\Source\DatabaseServer\CampusDBCtrl.h

; 75   : 	u_long	AddCampus( CCampus* pCampus )	{	return m_pCampusMng->AddCampus( pCampus );	}

  000e2	56		 push	 esi
  000e3	8b 48 18	 mov	 ecx, DWORD PTR [eax+24]
  000e6	e8 00 00 00 00	 call	 ?AddCampus@CCampusMng@@QAEKPAVCCampus@@@Z ; CCampusMng::AddCampus
; File C:\IAGOS\server\v18\Source\Source\DatabaseServer\CampusDBCtrl.cpp

; 80   : 	while( pQuery->Fetch() )

  000eb	8b cf		 mov	 ecx, edi
  000ed	e8 00 00 00 00	 call	 ?Fetch@CQuery@@QAEHXZ	; CQuery::Fetch
  000f2	85 c0		 test	 eax, eax
  000f4	75 aa		 jne	 SHORT $LL2@LoadAllCam
$LN3@LoadAllCam:

; 85   : 	}
; 86   : 	
; 87   : 	sprintf( szQuery, "usp_CampusMember_Load @serverindex = '%02d'", g_appInfo.dwSys );

  000f6	ff 35 00 00 00
	00		 push	 DWORD PTR ?g_appInfo@@3UAppInfo@@A
  000fc	8d 85 f0 5f ff
	ff		 lea	 eax, DWORD PTR _szQuery$[ebp]
  00102	68 00 00 00 00	 push	 OFFSET ??_C@_0CM@CLANIGHK@usp_CampusMember_Load?5?$EAserverin@
  00107	50		 push	 eax
  00108	e8 00 00 00 00	 call	 _sprintf
  0010d	83 c4 0c	 add	 esp, 12			; 0000000cH

; 88   : 	if( pQuery->Exec( szQuery ) == FALSE )

  00110	8d 85 f0 5f ff
	ff		 lea	 eax, DWORD PTR _szQuery$[ebp]
  00116	8b cf		 mov	 ecx, edi
  00118	50		 push	 eax
  00119	e8 00 00 00 00	 call	 ?Exec@CQuery@@QAEHPBD@Z	; CQuery::Exec
  0011e	85 c0		 test	 eax, eax
  00120	75 1b		 jne	 SHORT $LN40@LoadAllCam

; 89   : 	{
; 90   : 		CCampusHelper::GetInstance()->Clear();

  00122	e8 00 00 00 00	 call	 ?GetInstance@CCampusHelper@@SAPAV1@XZ ; CCampusHelper::GetInstance
; File C:\IAGOS\server\v18\Source\Source\DatabaseServer\CampusDBCtrl.h

; 81   : 	void	Clear()	{	m_pCampusMng->Clear();	}

  00127	8b 48 18	 mov	 ecx, DWORD PTR [eax+24]
  0012a	e8 00 00 00 00	 call	 ?Clear@CCampusMng@@QAEXXZ ; CCampusMng::Clear
; File C:\IAGOS\server\v18\Source\Source\DatabaseServer\CampusDBCtrl.cpp

; 91   : 		WriteLog( "%s, %d\t%s", __FILE__, __LINE__, szQuery );

  0012f	8d 85 f0 5f ff
	ff		 lea	 eax, DWORD PTR _szQuery$[ebp]
  00135	50		 push	 eax
  00136	6a 5b		 push	 91			; 0000005bH

; 92   : 		return;

  00138	e9 40 ff ff ff	 jmp	 $LN47@LoadAllCam
$LN40@LoadAllCam:

; 93   : 	}
; 94   : 	
; 95   : 	u_long idCampus;
; 96   : 	while( pQuery->Fetch() )

  0013d	8b cf		 mov	 ecx, edi
  0013f	e8 00 00 00 00	 call	 ?Fetch@CQuery@@QAEHXZ	; CQuery::Fetch
  00144	85 c0		 test	 eax, eax
  00146	0f 84 d9 00 00
	00		 je	 $LN5@LoadAllCam
  0014c	0f 1f 40 00	 npad	 4
$LL4@LoadAllCam:

; 97   : 	{
; 98   : 		CCampusMember* pMember = new CCampusMember;

  00150	6a 08		 push	 8
  00152	e8 00 00 00 00	 call	 ??2@YAPAXI@Z		; operator new
  00157	83 c4 04	 add	 esp, 4
  0015a	89 85 e8 5f ff
	ff		 mov	 DWORD PTR $T2[ebp], eax
  00160	c7 45 fc 01 00
	00 00		 mov	 DWORD PTR __$EHRec$[ebp+8], 1
  00167	85 c0		 test	 eax, eax
  00169	74 0b		 je	 SHORT $LN15@LoadAllCam
  0016b	8b c8		 mov	 ecx, eax
  0016d	e8 00 00 00 00	 call	 ??0CCampusMember@@QAE@XZ ; CCampusMember::CCampusMember
  00172	8b f0		 mov	 esi, eax
  00174	eb 02		 jmp	 SHORT $LN16@LoadAllCam
$LN15@LoadAllCam:
  00176	33 f6		 xor	 esi, esi
$LN16@LoadAllCam:

; 99   : 		pMember->SetPlayerId( pQuery->GetInt( "m_idPlayer" ) );

  00178	68 00 00 00 00	 push	 OFFSET ??_C@_0L@FONFFEJF@m_idPlayer@
  0017d	8b cf		 mov	 ecx, edi
  0017f	c7 45 fc ff ff
	ff ff		 mov	 DWORD PTR __$EHRec$[ebp+8], -1
  00186	e8 00 00 00 00	 call	 ?GetInt@CQuery@@QAEHPAD@Z ; CQuery::GetInt

; 100  : 		pMember->SetLevel( pQuery->GetInt( "nMemberLv" ) );

  0018b	68 00 00 00 00	 push	 OFFSET ??_C@_09FLNBFAEP@nMemberLv@
  00190	8b cf		 mov	 ecx, edi
; File C:\IAGOS\server\v18\Source\Source\_Common\Campus.h

; 30   : 	void	SetPlayerId( u_long idPlayer )	{	m_idPlayer = idPlayer;	}

  00192	89 06		 mov	 DWORD PTR [esi], eax
; File C:\IAGOS\server\v18\Source\Source\DatabaseServer\CampusDBCtrl.cpp

; 100  : 		pMember->SetLevel( pQuery->GetInt( "nMemberLv" ) );

  00194	e8 00 00 00 00	 call	 ?GetInt@CQuery@@QAEHPAD@Z ; CQuery::GetInt

; 101  : 		idCampus = pQuery->GetInt( "idCampus" );

  00199	68 00 00 00 00	 push	 OFFSET ??_C@_08FHGJFCBK@idCampus@
  0019e	8b cf		 mov	 ecx, edi
; File C:\IAGOS\server\v18\Source\Source\_Common\Campus.h

; 33   : 	void	SetLevel( int nLevel )	{	m_nMemberLv = nLevel;	}

  001a0	89 46 04	 mov	 DWORD PTR [esi+4], eax
; File C:\IAGOS\server\v18\Source\Source\DatabaseServer\CampusDBCtrl.cpp

; 101  : 		idCampus = pQuery->GetInt( "idCampus" );

  001a3	e8 00 00 00 00	 call	 ?GetInt@CQuery@@QAEHPAD@Z ; CQuery::GetInt
  001a8	8b d8		 mov	 ebx, eax
  001aa	89 9d ec 5f ff
	ff		 mov	 DWORD PTR _idCampus$1$[ebp], ebx

; 102  : 		CCampus* pCampus = CCampusHelper::GetInstance()->GetCampus( idCampus );

  001b0	e8 00 00 00 00	 call	 ?GetInstance@CCampusHelper@@SAPAV1@XZ ; CCampusHelper::GetInstance
; File C:\IAGOS\server\v18\Source\Source\DatabaseServer\CampusDBCtrl.h

; 79   : 	CCampus*	GetCampus( u_long idCampus )	{	return m_pCampusMng->GetCampus( idCampus );	}

  001b5	53		 push	 ebx
  001b6	8b 48 18	 mov	 ecx, DWORD PTR [eax+24]
  001b9	e8 00 00 00 00	 call	 ?GetCampus@CCampusMng@@QAEPAVCCampus@@K@Z ; CCampusMng::GetCampus
; File C:\IAGOS\server\v18\Source\Source\DatabaseServer\CampusDBCtrl.cpp

; 102  : 		CCampus* pCampus = CCampusHelper::GetInstance()->GetCampus( idCampus );

  001be	8b d8		 mov	 ebx, eax

; 103  : 		if( pCampus )

  001c0	85 db		 test	 ebx, ebx
  001c2	74 2b		 je	 SHORT $LN8@LoadAllCam

; 104  : 		{
; 105  : 			pCampus->AddMember( pMember );

  001c4	56		 push	 esi
  001c5	8b cb		 mov	 ecx, ebx
  001c7	e8 00 00 00 00	 call	 ?AddMember@CCampus@@QAEHPAVCCampusMember@@@Z ; CCampus::AddMember

; 106  : 			if( pMember->GetLevel() == CAMPUS_MASTER )

  001cc	83 7e 04 01	 cmp	 DWORD PTR [esi+4], 1
  001d0	75 05		 jne	 SHORT $LN10@LoadAllCam

; 107  : 				pCampus->SetMaster( pMember->GetPlayerId() );

  001d2	8b 06		 mov	 eax, DWORD PTR [esi]
  001d4	89 43 04	 mov	 DWORD PTR [ebx+4], eax
$LN10@LoadAllCam:

; 108  : 			CCampusHelper::GetInstance()->AddPlayerId2CampusId( pMember->GetPlayerId(), idCampus );

  001d7	8b 36		 mov	 esi, DWORD PTR [esi]
  001d9	e8 00 00 00 00	 call	 ?GetInstance@CCampusHelper@@SAPAV1@XZ ; CCampusHelper::GetInstance
; File C:\IAGOS\server\v18\Source\Source\DatabaseServer\CampusDBCtrl.h

; 82   : 	bool	AddPlayerId2CampusId( u_long idPlayer, u_long idCampus )	{	return m_pCampusMng->AddPlayerId2CampusId( idPlayer, idCampus );	}

  001de	ff b5 ec 5f ff
	ff		 push	 DWORD PTR _idCampus$1$[ebp]
  001e4	56		 push	 esi
  001e5	8b 48 18	 mov	 ecx, DWORD PTR [eax+24]
  001e8	e8 00 00 00 00	 call	 ?AddPlayerId2CampusId@CCampusMng@@QAE_NKK@Z ; CCampusMng::AddPlayerId2CampusId
; File C:\IAGOS\server\v18\Source\Source\DatabaseServer\CampusDBCtrl.cpp

; 109  : 		}

  001ed	eb 27		 jmp	 SHORT $LN36@LoadAllCam
$LN8@LoadAllCam:

; 110  : 		else
; 111  : 		{
; 112  : 			WriteLog( "LoadAllCampus(): Player's campus not found - %d, %d", pMember->GetPlayerId(), idCampus );

  001ef	ff b5 ec 5f ff
	ff		 push	 DWORD PTR _idCampus$1$[ebp]
  001f5	ff 36		 push	 DWORD PTR [esi]
  001f7	68 00 00 00 00	 push	 OFFSET ??_C@_0DE@GGIDIIN@LoadAllCampus?$CI?$CJ?3?5Player?8s?5campu@
  001fc	e8 00 00 00 00	 call	 ?WriteLog@@YAXPBDZZ	; WriteLog
  00201	83 c4 0c	 add	 esp, 12			; 0000000cH
  00204	8b ce		 mov	 ecx, esi
  00206	e8 00 00 00 00	 call	 ??1CCampusMember@@QAE@XZ ; CCampusMember::~CCampusMember
  0020b	6a 08		 push	 8
  0020d	56		 push	 esi
  0020e	e8 00 00 00 00	 call	 ??3@YAXPAXI@Z		; operator delete
  00213	83 c4 08	 add	 esp, 8
$LN36@LoadAllCam:

; 93   : 	}
; 94   : 	
; 95   : 	u_long idCampus;
; 96   : 	while( pQuery->Fetch() )

  00216	8b cf		 mov	 ecx, edi
  00218	e8 00 00 00 00	 call	 ?Fetch@CQuery@@QAEHXZ	; CQuery::Fetch
  0021d	85 c0		 test	 eax, eax
  0021f	0f 85 2b ff ff
	ff		 jne	 $LL4@LoadAllCam
$LN5@LoadAllCam:

; 113  : 			SAFE_DELETE( pMember );
; 114  : 		}
; 115  : 	}
; 116  : }

  00225	8b 4d f4	 mov	 ecx, DWORD PTR __$EHRec$[ebp]
  00228	64 89 0d 00 00
	00 00		 mov	 DWORD PTR fs:0, ecx
  0022f	59		 pop	 ecx
  00230	5f		 pop	 edi
  00231	5e		 pop	 esi
  00232	5b		 pop	 ebx
  00233	8b 4d f0	 mov	 ecx, DWORD PTR __$ArrayPad$[ebp]
  00236	33 cd		 xor	 ecx, ebp
  00238	e8 00 00 00 00	 call	 @__security_check_cookie@4
  0023d	8b e5		 mov	 esp, ebp
  0023f	5d		 pop	 ebp
  00240	c3		 ret	 0
_TEXT	ENDS
;	COMDAT text$x
text$x	SEGMENT
__unwindfunclet$?LoadAllCampus@CCampusDBCtrl@@AAEXXZ$0:
  00000	6a 10		 push	 16			; 00000010H
  00002	8b 85 ec 5f ff
	ff		 mov	 eax, DWORD PTR $T3[ebp]
  00008	50		 push	 eax
  00009	e8 00 00 00 00	 call	 ??3@YAXPAXI@Z		; operator delete
  0000e	83 c4 08	 add	 esp, 8
  00011	c3		 ret	 0
__unwindfunclet$?LoadAllCampus@CCampusDBCtrl@@AAEXXZ$1:
  00012	6a 08		 push	 8
  00014	8b 85 e8 5f ff
	ff		 mov	 eax, DWORD PTR $T2[ebp]
  0001a	50		 push	 eax
  0001b	e8 00 00 00 00	 call	 ??3@YAXPAXI@Z		; operator delete
  00020	83 c4 08	 add	 esp, 8
  00023	c3		 ret	 0
  00024	cc		 int	 3
  00025	cc		 int	 3
  00026	cc		 int	 3
  00027	cc		 int	 3
  00028	cc		 int	 3
__ehhandler$?LoadAllCampus@CCampusDBCtrl@@AAEXXZ:
  00029	90		 npad	 1
  0002a	90		 npad	 1
  0002b	8b 54 24 08	 mov	 edx, DWORD PTR [esp+8]
  0002f	8d 42 0c	 lea	 eax, DWORD PTR [edx+12]
  00032	8b 8a e4 5f ff
	ff		 mov	 ecx, DWORD PTR [edx-40988]
  00038	33 c8		 xor	 ecx, eax
  0003a	e8 00 00 00 00	 call	 @__security_check_cookie@4
  0003f	8b 4a fc	 mov	 ecx, DWORD PTR [edx-4]
  00042	33 c8		 xor	 ecx, eax
  00044	e8 00 00 00 00	 call	 @__security_check_cookie@4
  00049	b8 00 00 00 00	 mov	 eax, OFFSET __ehfuncinfo$?LoadAllCampus@CCampusDBCtrl@@AAEXXZ
  0004e	e9 00 00 00 00	 jmp	 ___CxxFrameHandler3
text$x	ENDS
?LoadAllCampus@CCampusDBCtrl@@AAEXXZ ENDP		; CCampusDBCtrl::LoadAllCampus
; Function compile flags: /Ogtp
; File C:\IAGOS\server\v18\Source\Source\DatabaseServer\CampusDBCtrl.cpp
;	COMDAT ?UpdateCampusPoint@CCampusDBCtrl@@AAEXAAVCAr@@@Z
_TEXT	SEGMENT
_this$1$ = -20						; size = 4
_chState$ = -16						; size = 1
_bAdd$ = -12						; size = 4
_idPlayer$ = -8						; size = 4
_nCampusPoint$ = -4					; size = 4
_ar$ = 8						; size = 4
?UpdateCampusPoint@CCampusDBCtrl@@AAEXAAVCAr@@@Z PROC	; CCampusDBCtrl::UpdateCampusPoint, COMDAT
; _this$ = ecx

; 249  : {

  00000	55		 push	 ebp
  00001	8b ec		 mov	 ebp, esp
  00003	83 ec 14	 sub	 esp, 20			; 00000014H
  00006	53		 push	 ebx
  00007	56		 push	 esi
  00008	57		 push	 edi

; 250  : 	u_long idPlayer;
; 251  : 	int nCampusPoint;
; 252  : 	BOOL bAdd;
; 253  : 	char chState;
; 254  : 	ar >> idPlayer >> nCampusPoint >> bAdd >> chState;

  00009	8d 45 f0	 lea	 eax, DWORD PTR _chState$[ebp]
  0000c	8b d9		 mov	 ebx, ecx
  0000e	8b 4d 08	 mov	 ecx, DWORD PTR _ar$[ebp]
  00011	50		 push	 eax
  00012	8d 45 f4	 lea	 eax, DWORD PTR _bAdd$[ebp]
  00015	89 5d ec	 mov	 DWORD PTR _this$1$[ebp], ebx
  00018	50		 push	 eax
  00019	8d 45 fc	 lea	 eax, DWORD PTR _nCampusPoint$[ebp]
  0001c	50		 push	 eax
  0001d	8d 45 f8	 lea	 eax, DWORD PTR _idPlayer$[ebp]
  00020	50		 push	 eax
  00021	e8 00 00 00 00	 call	 ??$?5K@CAr@@QAEAAV0@AAK@Z ; CAr::operator>><unsigned long>
  00026	8b c8		 mov	 ecx, eax
  00028	e8 00 00 00 00	 call	 ??$?5H@CAr@@QAEAAV0@AAH@Z ; CAr::operator>><int>
  0002d	8b c8		 mov	 ecx, eax
  0002f	e8 00 00 00 00	 call	 ??$?5H@CAr@@QAEAAV0@AAH@Z ; CAr::operator>><int>
  00034	8b c8		 mov	 ecx, eax
  00036	e8 00 00 00 00	 call	 ??$?5D@CAr@@QAEAAV0@AAD@Z ; CAr::operator>><char>

; 255  : 	
; 256  : 	int nPrevPoint, nCurrPoint;
; 257  : 	nPrevPoint = nCurrPoint = 0;
; 258  : 	if( bAdd )

  0003b	83 7d f4 00	 cmp	 DWORD PTR _bAdd$[ebp], 0
  0003f	8b cb		 mov	 ecx, ebx
  00041	8b 75 fc	 mov	 esi, DWORD PTR _nCampusPoint$[ebp]
  00044	8b 7d f8	 mov	 edi, DWORD PTR _idPlayer$[ebp]
  00047	74 0d		 je	 SHORT $LN2@UpdateCamp

; 259  : 	{
; 260  : 		nCurrPoint = UpdateCampusPoint( idPlayer, nCampusPoint );

  00049	56		 push	 esi
  0004a	57		 push	 edi
  0004b	e8 00 00 00 00	 call	 ?UpdateCampusPoint@CCampusDBCtrl@@AAEHKH@Z ; CCampusDBCtrl::UpdateCampusPoint
  00050	8b d8		 mov	 ebx, eax

; 261  : 		nPrevPoint = nCurrPoint - nCampusPoint;

  00052	2b c6		 sub	 eax, esi

; 262  : 	}

  00054	eb 10		 jmp	 SHORT $LN3@UpdateCamp
$LN2@UpdateCamp:

; 263  : 	else
; 264  : 	{
; 265  : 		nCurrPoint = UpdateCampusPoint( idPlayer, -(nCampusPoint) );

  00056	8b c6		 mov	 eax, esi
  00058	f7 d8		 neg	 eax
  0005a	50		 push	 eax
  0005b	57		 push	 edi
  0005c	e8 00 00 00 00	 call	 ?UpdateCampusPoint@CCampusDBCtrl@@AAEHKH@Z ; CCampusDBCtrl::UpdateCampusPoint
  00061	8b d8		 mov	 ebx, eax

; 266  : 		nPrevPoint = nCurrPoint + nCampusPoint;

  00063	8d 04 33	 lea	 eax, DWORD PTR [ebx+esi]
$LN3@UpdateCamp:

; 267  : 	}
; 268  : 	LogUpdateCampusPoint( idPlayer, nPrevPoint, nCurrPoint, chState );

  00066	ff 75 f0	 push	 DWORD PTR _chState$[ebp]
  00069	8b 4d ec	 mov	 ecx, DWORD PTR _this$1$[ebp]
  0006c	53		 push	 ebx
  0006d	50		 push	 eax
  0006e	57		 push	 edi
  0006f	e8 00 00 00 00	 call	 ?LogUpdateCampusPoint@CCampusDBCtrl@@AAEXKHHD@Z ; CCampusDBCtrl::LogUpdateCampusPoint

; 269  : 	CDPTrans::GetInstance()->SendUpdateCampusPoint( idPlayer, nCurrPoint );

  00074	53		 push	 ebx
  00075	57		 push	 edi
  00076	e8 00 00 00 00	 call	 ?GetInstance@CDPTrans@@SAPAV1@XZ ; CDPTrans::GetInstance
  0007b	8b c8		 mov	 ecx, eax
  0007d	e8 00 00 00 00	 call	 ?SendUpdateCampusPoint@CDPTrans@@QAEXKH@Z ; CDPTrans::SendUpdateCampusPoint
  00082	5f		 pop	 edi
  00083	5e		 pop	 esi
  00084	5b		 pop	 ebx

; 270  : }

  00085	8b e5		 mov	 esp, ebp
  00087	5d		 pop	 ebp
  00088	c2 04 00	 ret	 4
?UpdateCampusPoint@CCampusDBCtrl@@AAEXAAVCAr@@@Z ENDP	; CCampusDBCtrl::UpdateCampusPoint
_TEXT	ENDS
; Function compile flags: /Ogtp
; File C:\IAGOS\server\v18\Source\Source\DatabaseServer\CampusDBCtrl.cpp
; File C:\IAGOS\server\v18\Source\Source\DatabaseServer\CampusDBCtrl.h
; File C:\IAGOS\server\v18\Source\Source\DatabaseServer\CampusDBCtrl.cpp
; File C:\IAGOS\server\v18\Source\Source\_Common\Campus.h
; File C:\IAGOS\server\v18\Source\Source\DatabaseServer\CampusDBCtrl.cpp
; File C:\Program Files\Microsoft Visual Studio\2022\Professional\VC\Tools\MSVC\14.44.35207\include\vector
; File C:\IAGOS\server\v18\Source\Source\DatabaseServer\CampusDBCtrl.cpp
; File C:\Program Files\Microsoft Visual Studio\2022\Professional\VC\Tools\MSVC\14.44.35207\include\vector
; File C:\IAGOS\server\v18\Source\Source\DatabaseServer\CampusDBCtrl.cpp
; File C:\IAGOS\server\v18\Source\Source\DatabaseServer\CampusDBCtrl.h
; File C:\IAGOS\server\v18\Source\Source\_Common\Campus.h
; File C:\IAGOS\server\v18\Source\Source\DatabaseServer\CampusDBCtrl.cpp
; File C:\Program Files\Microsoft Visual Studio\2022\Professional\VC\Tools\MSVC\14.44.35207\include\vector
; File C:\IAGOS\server\v18\Source\Source\DatabaseServer\CampusDBCtrl.cpp
; File C:\IAGOS\server\v18\Source\Source\DatabaseServer\CampusDBCtrl.h
; File C:\IAGOS\server\v18\Source\Source\DatabaseServer\CampusDBCtrl.cpp
; File C:\Program Files\Microsoft Visual Studio\2022\Professional\VC\Tools\MSVC\14.44.35207\include\vector
; File C:\IAGOS\server\v18\Source\Source\DatabaseServer\CampusDBCtrl.cpp
; File C:\Program Files\Microsoft Visual Studio\2022\Professional\VC\Tools\MSVC\14.44.35207\include\vector
; File C:\Program Files\Microsoft Visual Studio\2022\Professional\VC\Tools\MSVC\14.44.35207\include\xmemory
; File C:\Program Files\Microsoft Visual Studio\2022\Professional\VC\Tools\MSVC\14.44.35207\include\vector
; File C:\Program Files\Microsoft Visual Studio\2022\Professional\VC\Tools\MSVC\14.44.35207\include\xmemory
; File C:\IAGOS\server\v18\Source\Source\DatabaseServer\CampusDBCtrl.cpp
; File C:\IAGOS\server\v18\Source\Source\_Common\Campus.h
; File C:\IAGOS\server\v18\Source\Source\DatabaseServer\CampusDBCtrl.h
; File C:\IAGOS\server\v18\Source\Source\_Common\Campus.h
; File C:\IAGOS\server\v18\Source\Source\DatabaseServer\CampusDBCtrl.cpp
; File C:\IAGOS\server\v18\Source\Source\_Common\Campus.h
; File C:\IAGOS\server\v18\Source\Source\DatabaseServer\CampusDBCtrl.h
; File C:\IAGOS\server\v18\Source\Source\_Common\Campus.h
; File C:\IAGOS\server\v18\Source\Source\DatabaseServer\CampusDBCtrl.cpp
; File C:\IAGOS\server\v18\Source\Source\DatabaseServer\CampusDBCtrl.h
; File C:\IAGOS\server\v18\Source\Source\DatabaseServer\CampusDBCtrl.cpp
; File C:\Program Files\Microsoft Visual Studio\2022\Professional\VC\Tools\MSVC\14.44.35207\include\xmemory
; File C:\IAGOS\server\v18\Source\Source\DatabaseServer\CampusDBCtrl.cpp
;	COMDAT ?RemoveCampusMember@CCampusDBCtrl@@AAEXAAVCAr@@@Z
_TEXT	SEGMENT
_vecMember$2 = -32					; size = 12
_idPlayer$ = -20					; size = 4
_idPlayer$ = -20					; size = 4
_idPlayer$ = -20					; size = 4
_idCampus$ = -16					; size = 4
__$EHRec$ = -12						; size = 12
_ar$ = 8						; size = 4
_idPlayer$ = 8						; size = 4
_pCampus$1$ = 8						; size = 4
?RemoveCampusMember@CCampusDBCtrl@@AAEXAAVCAr@@@Z PROC	; CCampusDBCtrl::RemoveCampusMember, COMDAT
; _this$ = ecx

; 204  : {

  00000	55		 push	 ebp
  00001	8b ec		 mov	 ebp, esp
  00003	6a ff		 push	 -1
  00005	68 00 00 00 00	 push	 __ehhandler$?RemoveCampusMember@CCampusDBCtrl@@AAEXAAVCAr@@@Z
  0000a	64 a1 00 00 00
	00		 mov	 eax, DWORD PTR fs:0
  00010	50		 push	 eax
  00011	83 ec 14	 sub	 esp, 20			; 00000014H
  00014	53		 push	 ebx
  00015	56		 push	 esi
  00016	57		 push	 edi
  00017	a1 00 00 00 00	 mov	 eax, DWORD PTR ___security_cookie
  0001c	33 c5		 xor	 eax, ebp
  0001e	50		 push	 eax
  0001f	8d 45 f4	 lea	 eax, DWORD PTR __$EHRec$[ebp]
  00022	64 a3 00 00 00
	00		 mov	 DWORD PTR fs:0, eax
  00028	8b d9		 mov	 ebx, ecx

; 205  : 	u_long idCampus, idPlayer;
; 206  : 	ar >> idCampus >> idPlayer;

  0002a	8b 4d 08	 mov	 ecx, DWORD PTR _ar$[ebp]
  0002d	8d 45 ec	 lea	 eax, DWORD PTR _idPlayer$[ebp]
  00030	50		 push	 eax
  00031	8d 45 f0	 lea	 eax, DWORD PTR _idCampus$[ebp]
  00034	50		 push	 eax
  00035	e8 00 00 00 00	 call	 ??$?5K@CAr@@QAEAAV0@AAK@Z ; CAr::operator>><unsigned long>
  0003a	8b c8		 mov	 ecx, eax
  0003c	e8 00 00 00 00	 call	 ??$?5K@CAr@@QAEAAV0@AAK@Z ; CAr::operator>><unsigned long>

; 208  : 	CCampus* pCampus = CCampusHelper::GetInstance()->GetCampus( idCampus );

  00041	e8 00 00 00 00	 call	 ?GetInstance@CCampusHelper@@SAPAV1@XZ ; CCampusHelper::GetInstance
; File C:\IAGOS\server\v18\Source\Source\DatabaseServer\CampusDBCtrl.h

; 79   : 	CCampus*	GetCampus( u_long idCampus )	{	return m_pCampusMng->GetCampus( idCampus );	}

  00046	8b 75 f0	 mov	 esi, DWORD PTR _idCampus$[ebp]
  00049	56		 push	 esi
  0004a	8b 48 18	 mov	 ecx, DWORD PTR [eax+24]
  0004d	e8 00 00 00 00	 call	 ?GetCampus@CCampusMng@@QAEPAVCCampus@@K@Z ; CCampusMng::GetCampus
; File C:\IAGOS\server\v18\Source\Source\DatabaseServer\CampusDBCtrl.cpp

; 208  : 	CCampus* pCampus = CCampusHelper::GetInstance()->GetCampus( idCampus );

  00052	89 45 08	 mov	 DWORD PTR _pCampus$1$[ebp], eax

; 209  : 	if( pCampus && pCampus->IsMember( idPlayer ) )

  00055	85 c0		 test	 eax, eax
  00057	0f 84 b6 01 00
	00		 je	 $LN5@RemoveCamp
  0005d	8b 7d ec	 mov	 edi, DWORD PTR _idPlayer$[ebp]
  00060	8b c8		 mov	 ecx, eax
  00062	57		 push	 edi
  00063	e8 00 00 00 00	 call	 ?IsMember@CCampus@@QAEHK@Z ; CCampus::IsMember
  00068	85 c0		 test	 eax, eax
  0006a	0f 84 a3 01 00
	00		 je	 $LN5@RemoveCamp
; File C:\IAGOS\server\v18\Source\Source\_Common\Campus.h

; 54   : 	BOOL	IsMaster( u_long idPlayer )		{	return ( idPlayer == m_idMaster );	}

  00070	8b 45 08	 mov	 eax, DWORD PTR _pCampus$1$[ebp]
  00073	3b 78 04	 cmp	 edi, DWORD PTR [eax+4]
; File C:\IAGOS\server\v18\Source\Source\DatabaseServer\CampusDBCtrl.cpp

; 211  : 		if( pCampus->IsMaster( idPlayer ) )

  00076	0f 85 e5 00 00
	00		 jne	 $LN7@RemoveCamp

; 213  : 			vector<u_long> vecMember = pCampus->GetAllMemberPlayerId();

  0007c	8d 4d e0	 lea	 ecx, DWORD PTR _vecMember$2[ebp]
  0007f	51		 push	 ecx
  00080	8b c8		 mov	 ecx, eax
  00082	e8 00 00 00 00	 call	 ?GetAllMemberPlayerId@CCampus@@QAE?AV?$vector@KV?$allocator@K@std@@@std@@XZ ; CCampus::GetAllMemberPlayerId
; File C:\Program Files\Microsoft Visual Studio\2022\Professional\VC\Tools\MSVC\14.44.35207\include\vector

; 46   :     _CONSTEXPR20 _Vector_const_iterator(_Tptr _Parg, const _Container_base* _Pvector) noexcept : _Ptr(_Parg) {

  00087	8b 75 e0	 mov	 esi, DWORD PTR _vecMember$2[ebp]
; File C:\IAGOS\server\v18\Source\Source\DatabaseServer\CampusDBCtrl.cpp

; 213  : 			vector<u_long> vecMember = pCampus->GetAllMemberPlayerId();

  0008a	c7 45 fc 00 00
	00 00		 mov	 DWORD PTR __$EHRec$[ebp+8], 0
; File C:\Program Files\Microsoft Visual Studio\2022\Professional\VC\Tools\MSVC\14.44.35207\include\vector

; 46   :     _CONSTEXPR20 _Vector_const_iterator(_Tptr _Parg, const _Container_base* _Pvector) noexcept : _Ptr(_Parg) {

  00091	3b 75 e4	 cmp	 esi, DWORD PTR _vecMember$2[ebp+4]
; File C:\IAGOS\server\v18\Source\Source\DatabaseServer\CampusDBCtrl.cpp

; 214  : 			for( vector<u_long>::iterator it = vecMember.begin(); it != vecMember.end(); ++it )

  00094	74 4e		 je	 SHORT $LN3@RemoveCamp
$LL4@RemoveCamp:

; 215  : 			{
; 216  : 				CCampusHelper::GetInstance()->RemovePlayerId2CampusId( *it );

  00096	8b 3e		 mov	 edi, DWORD PTR [esi]
  00098	e8 00 00 00 00	 call	 ?GetInstance@CCampusHelper@@SAPAV1@XZ ; CCampusHelper::GetInstance
; File C:\IAGOS\server\v18\Source\Source\DatabaseServer\CampusDBCtrl.h

; 83   : 	void	RemovePlayerId2CampusId( u_long idPlayer )	{	m_pCampusMng->RemovePlayerId2CampusId( idPlayer );	}

  0009d	89 7d 08	 mov	 DWORD PTR _idPlayer$[ebp], edi
  000a0	8b 48 18	 mov	 ecx, DWORD PTR [eax+24]
; File C:\IAGOS\server\v18\Source\Source\_Common\Campus.h

; 102  : 	void	RemovePlayerId2CampusId( u_long idPlayer )	{	m_mapPid2Cid.erase( idPlayer );	}

  000a3	8d 45 08	 lea	 eax, DWORD PTR _idPlayer$[ebp]
  000a6	50		 push	 eax
  000a7	83 c1 0c	 add	 ecx, 12			; 0000000cH
  000aa	e8 00 00 00 00	 call	 ?erase@?$_Tree@V?$_Tmap_traits@KKU?$less@K@std@@V?$allocator@U?$pair@$$CBKK@std@@@2@$0A@@std@@@std@@QAEIABK@Z ; std::_Tree<std::_Tmap_traits<unsigned long,unsigned long,std::less<unsigned long>,std::allocator<std::pair<unsigned long const ,unsigned long> >,0> >::erase
; File C:\IAGOS\server\v18\Source\Source\DatabaseServer\CampusDBCtrl.cpp

; 217  : 				UpdateCampusId( *it, 0 );

  000af	6a 00		 push	 0
  000b1	ff 36		 push	 DWORD PTR [esi]
  000b3	8b cb		 mov	 ecx, ebx
  000b5	e8 00 00 00 00	 call	 ?UpdateCampusId@CCampusDBCtrl@@AAEXKK@Z ; CCampusDBCtrl::UpdateCampusId

; 218  : 				if( *it != idPlayer )

  000ba	8b 06		 mov	 eax, DWORD PTR [esi]
  000bc	8b 7d ec	 mov	 edi, DWORD PTR _idPlayer$[ebp]
  000bf	3b c7		 cmp	 eax, edi
  000c1	74 19		 je	 SHORT $LN2@RemoveCamp

; 219  : 				{
; 220  : 					DeleteCampusMember( *it, CAMPUS_PUPIL );

  000c3	6a 02		 push	 2
  000c5	50		 push	 eax
  000c6	8b cb		 mov	 ecx, ebx
  000c8	e8 00 00 00 00	 call	 ?DeleteCampusMember@CCampusDBCtrl@@AAEXKH@Z ; CCampusDBCtrl::DeleteCampusMember

; 221  : 					LogUpdateCampusMember( idCampus, idPlayer, *it, 'F' );

  000cd	6a 46		 push	 70			; 00000046H
  000cf	ff 36		 push	 DWORD PTR [esi]
  000d1	8b cb		 mov	 ecx, ebx
  000d3	57		 push	 edi
  000d4	ff 75 f0	 push	 DWORD PTR _idCampus$[ebp]
  000d7	e8 00 00 00 00	 call	 ?LogUpdateCampusMember@CCampusDBCtrl@@AAEXKKKD@Z ; CCampusDBCtrl::LogUpdateCampusMember
$LN2@RemoveCamp:
; File C:\Program Files\Microsoft Visual Studio\2022\Professional\VC\Tools\MSVC\14.44.35207\include\vector

; 82   :         ++_Ptr;

  000dc	83 c6 04	 add	 esi, 4

; 176  :         return !(*this == _Right);

  000df	3b 75 e4	 cmp	 esi, DWORD PTR _vecMember$2[ebp+4]
; File C:\IAGOS\server\v18\Source\Source\DatabaseServer\CampusDBCtrl.cpp

; 214  : 			for( vector<u_long>::iterator it = vecMember.begin(); it != vecMember.end(); ++it )

  000e2	75 b2		 jne	 SHORT $LL4@RemoveCamp
$LN3@RemoveCamp:

; 222  : 				}
; 223  : 			}
; 224  : 			CCampusHelper::GetInstance()->RemoveCampus( idCampus );

  000e4	e8 00 00 00 00	 call	 ?GetInstance@CCampusHelper@@SAPAV1@XZ ; CCampusHelper::GetInstance
; File C:\IAGOS\server\v18\Source\Source\DatabaseServer\CampusDBCtrl.h

; 76   : 	BOOL	RemoveCampus( u_long idCampus )	{	return m_pCampusMng->RemoveCampus( idCampus );	}

  000e9	8b 75 f0	 mov	 esi, DWORD PTR _idCampus$[ebp]
  000ec	56		 push	 esi
  000ed	8b 48 18	 mov	 ecx, DWORD PTR [eax+24]
  000f0	e8 00 00 00 00	 call	 ?RemoveCampus@CCampusMng@@QAEHK@Z ; CCampusMng::RemoveCampus
; File C:\IAGOS\server\v18\Source\Source\DatabaseServer\CampusDBCtrl.cpp

; 225  : 			DeleteCampus( idCampus );

  000f5	56		 push	 esi
  000f6	8b cb		 mov	 ecx, ebx
  000f8	e8 00 00 00 00	 call	 ?DeleteCampus@CCampusDBCtrl@@AAEXK@Z ; CCampusDBCtrl::DeleteCampus
; File C:\Program Files\Microsoft Visual Studio\2022\Professional\VC\Tools\MSVC\14.44.35207\include\vector

; 2090 :         if (_Myfirst) { // destroy and deallocate old array

  000fd	8b 55 e0	 mov	 edx, DWORD PTR _vecMember$2[ebp]
; File C:\IAGOS\server\v18\Source\Source\DatabaseServer\CampusDBCtrl.cpp

; 226  : 		}

  00100	c7 45 fc ff ff
	ff ff		 mov	 DWORD PTR __$EHRec$[ebp+8], -1
; File C:\Program Files\Microsoft Visual Studio\2022\Professional\VC\Tools\MSVC\14.44.35207\include\vector

; 2090 :         if (_Myfirst) { // destroy and deallocate old array

  00107	85 d2		 test	 edx, edx
  00109	0f 84 e2 00 00
	00		 je	 $LN10@RemoveCamp

; 2093 :             _Al.deallocate(_Myfirst, static_cast<size_type>(_Myend - _Myfirst));

  0010f	8b 4d e8	 mov	 ecx, DWORD PTR _vecMember$2[ebp+8]
; File C:\Program Files\Microsoft Visual Studio\2022\Professional\VC\Tools\MSVC\14.44.35207\include\xmemory

; 985  :         _STD _Deallocate<_New_alignof<_Ty>>(_Ptr, sizeof(_Ty) * _Count);

  00112	8b c2		 mov	 eax, edx
; File C:\Program Files\Microsoft Visual Studio\2022\Professional\VC\Tools\MSVC\14.44.35207\include\vector

; 2093 :             _Al.deallocate(_Myfirst, static_cast<size_type>(_Myend - _Myfirst));

  00114	2b ca		 sub	 ecx, edx
; File C:\Program Files\Microsoft Visual Studio\2022\Professional\VC\Tools\MSVC\14.44.35207\include\xmemory

; 985  :         _STD _Deallocate<_New_alignof<_Ty>>(_Ptr, sizeof(_Ty) * _Count);

  00116	83 e1 fc	 and	 ecx, -4			; fffffffcH

; 284  :         if (_Bytes >= _Big_allocation_threshold) {

  00119	81 f9 00 10 00
	00		 cmp	 ecx, 4096		; 00001000H
  0011f	72 14		 jb	 SHORT $LN59@RemoveCamp

; 205  :     const uintptr_t _Ptr_container   = _Ptr_user[-1];

  00121	8b 50 fc	 mov	 edx, DWORD PTR [eax-4]
  00124	83 c1 23	 add	 ecx, 35			; 00000023H
  00127	2b c2		 sub	 eax, edx

; 219  :     _STL_VERIFY(_Back_shift >= _Min_back_shift && _Back_shift <= _Non_user_size, "invalid argument");

  00129	83 c0 fc	 add	 eax, -4			; fffffffcH
  0012c	83 f8 1f	 cmp	 eax, 31			; 0000001fH
  0012f	0f 87 ff 00 00
	00		 ja	 $LN98@RemoveCamp
$LN59@RemoveCamp:

; 289  :         ::operator delete(_Ptr, _Bytes);

  00135	51		 push	 ecx
  00136	52		 push	 edx
  00137	e8 00 00 00 00	 call	 ??3@YAXPAXI@Z		; operator delete
  0013c	83 c4 08	 add	 esp, 8
; File C:\IAGOS\server\v18\Source\Source\DatabaseServer\CampusDBCtrl.cpp

; 242  : 		CDPTrans::GetInstance()->SendRemoveCampusMember( idCampus, idPlayer );

  0013f	57		 push	 edi
  00140	56		 push	 esi
  00141	e8 00 00 00 00	 call	 ?GetInstance@CDPTrans@@SAPAV1@XZ ; CDPTrans::GetInstance
  00146	8b c8		 mov	 ecx, eax
  00148	e8 00 00 00 00	 call	 ?SendRemoveCampusMember@CDPTrans@@QAEXKK@Z ; CDPTrans::SendRemoveCampusMember

; 246  : }

  0014d	8b 4d f4	 mov	 ecx, DWORD PTR __$EHRec$[ebp]
  00150	64 89 0d 00 00
	00 00		 mov	 DWORD PTR fs:0, ecx
  00157	59		 pop	 ecx
  00158	5f		 pop	 edi
  00159	5e		 pop	 esi
  0015a	5b		 pop	 ebx
  0015b	8b e5		 mov	 esp, ebp
  0015d	5d		 pop	 ebp
  0015e	c2 04 00	 ret	 4
$LN7@RemoveCamp:

; 227  : 		else
; 228  : 		{
; 229  : 			CCampusHelper::GetInstance()->RemovePlayerId2CampusId( idPlayer );

  00161	e8 00 00 00 00	 call	 ?GetInstance@CCampusHelper@@SAPAV1@XZ ; CCampusHelper::GetInstance
; File C:\IAGOS\server\v18\Source\Source\_Common\Campus.h

; 102  : 	void	RemovePlayerId2CampusId( u_long idPlayer )	{	m_mapPid2Cid.erase( idPlayer );	}

  00166	8d 4d ec	 lea	 ecx, DWORD PTR _idPlayer$[ebp]
; File C:\IAGOS\server\v18\Source\Source\DatabaseServer\CampusDBCtrl.h

; 83   : 	void	RemovePlayerId2CampusId( u_long idPlayer )	{	m_pCampusMng->RemovePlayerId2CampusId( idPlayer );	}

  00169	89 7d ec	 mov	 DWORD PTR _idPlayer$[ebp], edi
; File C:\IAGOS\server\v18\Source\Source\_Common\Campus.h

; 102  : 	void	RemovePlayerId2CampusId( u_long idPlayer )	{	m_mapPid2Cid.erase( idPlayer );	}

  0016c	51		 push	 ecx
  0016d	8b 48 18	 mov	 ecx, DWORD PTR [eax+24]
  00170	83 c1 0c	 add	 ecx, 12			; 0000000cH
  00173	e8 00 00 00 00	 call	 ?erase@?$_Tree@V?$_Tmap_traits@KKU?$less@K@std@@V?$allocator@U?$pair@$$CBKK@std@@@2@$0A@@std@@@std@@QAEIABK@Z ; std::_Tree<std::_Tmap_traits<unsigned long,unsigned long,std::less<unsigned long>,std::allocator<std::pair<unsigned long const ,unsigned long> >,0> >::erase
; File C:\IAGOS\server\v18\Source\Source\DatabaseServer\CampusDBCtrl.cpp

; 230  : 			pCampus->RemoveMember( idPlayer );

  00178	8b 4d 08	 mov	 ecx, DWORD PTR _pCampus$1$[ebp]
  0017b	57		 push	 edi
  0017c	e8 00 00 00 00	 call	 ?RemoveMember@CCampus@@QAEHK@Z ; CCampus::RemoveMember

; 231  : 			UpdateCampusId( idPlayer, 0 );

  00181	6a 00		 push	 0
  00183	57		 push	 edi
  00184	8b cb		 mov	 ecx, ebx
  00186	e8 00 00 00 00	 call	 ?UpdateCampusId@CCampusDBCtrl@@AAEXKK@Z ; CCampusDBCtrl::UpdateCampusId

; 232  : 			DeleteCampusMember( idPlayer, CAMPUS_PUPIL );

  0018b	6a 02		 push	 2
  0018d	57		 push	 edi
  0018e	8b cb		 mov	 ecx, ebx
  00190	e8 00 00 00 00	 call	 ?DeleteCampusMember@CCampusDBCtrl@@AAEXKH@Z ; CCampusDBCtrl::DeleteCampusMember

; 233  : 			LogUpdateCampusMember( idCampus, pCampus->GetMaster(), idPlayer, 'F' );

  00195	8b 45 08	 mov	 eax, DWORD PTR _pCampus$1$[ebp]
  00198	8b cb		 mov	 ecx, ebx
  0019a	6a 46		 push	 70			; 00000046H
  0019c	57		 push	 edi
  0019d	ff 70 04	 push	 DWORD PTR [eax+4]
  001a0	56		 push	 esi
  001a1	e8 00 00 00 00	 call	 ?LogUpdateCampusMember@CCampusDBCtrl@@AAEXKKKD@Z ; CCampusDBCtrl::LogUpdateCampusMember

; 234  : 			if( pCampus->GetMemberSize() < 2 )

  001a6	8b 45 08	 mov	 eax, DWORD PTR _pCampus$1$[ebp]
  001a9	83 78 0c 02	 cmp	 DWORD PTR [eax+12], 2
  001ad	7d 42		 jge	 SHORT $LN10@RemoveCamp

; 235  : 			{
; 236  : 				CCampusHelper::GetInstance()->RemovePlayerId2CampusId( pCampus->GetMaster() );

  001af	8b 70 04	 mov	 esi, DWORD PTR [eax+4]
  001b2	e8 00 00 00 00	 call	 ?GetInstance@CCampusHelper@@SAPAV1@XZ ; CCampusHelper::GetInstance
; File C:\IAGOS\server\v18\Source\Source\_Common\Campus.h

; 102  : 	void	RemovePlayerId2CampusId( u_long idPlayer )	{	m_mapPid2Cid.erase( idPlayer );	}

  001b7	8d 4d ec	 lea	 ecx, DWORD PTR _idPlayer$[ebp]
; File C:\IAGOS\server\v18\Source\Source\DatabaseServer\CampusDBCtrl.h

; 83   : 	void	RemovePlayerId2CampusId( u_long idPlayer )	{	m_pCampusMng->RemovePlayerId2CampusId( idPlayer );	}

  001ba	89 75 ec	 mov	 DWORD PTR _idPlayer$[ebp], esi
; File C:\IAGOS\server\v18\Source\Source\_Common\Campus.h

; 102  : 	void	RemovePlayerId2CampusId( u_long idPlayer )	{	m_mapPid2Cid.erase( idPlayer );	}

  001bd	51		 push	 ecx
  001be	8b 48 18	 mov	 ecx, DWORD PTR [eax+24]
  001c1	83 c1 0c	 add	 ecx, 12			; 0000000cH
  001c4	e8 00 00 00 00	 call	 ?erase@?$_Tree@V?$_Tmap_traits@KKU?$less@K@std@@V?$allocator@U?$pair@$$CBKK@std@@@2@$0A@@std@@@std@@QAEIABK@Z ; std::_Tree<std::_Tmap_traits<unsigned long,unsigned long,std::less<unsigned long>,std::allocator<std::pair<unsigned long const ,unsigned long> >,0> >::erase
; File C:\IAGOS\server\v18\Source\Source\DatabaseServer\CampusDBCtrl.cpp

; 237  : 				UpdateCampusId( pCampus->GetMaster(), 0 );

  001c9	8b 45 08	 mov	 eax, DWORD PTR _pCampus$1$[ebp]
  001cc	8b cb		 mov	 ecx, ebx
  001ce	6a 00		 push	 0
  001d0	ff 70 04	 push	 DWORD PTR [eax+4]
  001d3	e8 00 00 00 00	 call	 ?UpdateCampusId@CCampusDBCtrl@@AAEXKK@Z ; CCampusDBCtrl::UpdateCampusId

; 238  : 				CCampusHelper::GetInstance()->RemoveCampus( idCampus );

  001d8	e8 00 00 00 00	 call	 ?GetInstance@CCampusHelper@@SAPAV1@XZ ; CCampusHelper::GetInstance
; File C:\IAGOS\server\v18\Source\Source\DatabaseServer\CampusDBCtrl.h

; 76   : 	BOOL	RemoveCampus( u_long idCampus )	{	return m_pCampusMng->RemoveCampus( idCampus );	}

  001dd	8b 75 f0	 mov	 esi, DWORD PTR _idCampus$[ebp]
  001e0	56		 push	 esi
  001e1	8b 48 18	 mov	 ecx, DWORD PTR [eax+24]
  001e4	e8 00 00 00 00	 call	 ?RemoveCampus@CCampusMng@@QAEHK@Z ; CCampusMng::RemoveCampus
; File C:\IAGOS\server\v18\Source\Source\DatabaseServer\CampusDBCtrl.cpp

; 239  : 				DeleteCampus( idCampus );

  001e9	56		 push	 esi
  001ea	8b cb		 mov	 ecx, ebx
  001ec	e8 00 00 00 00	 call	 ?DeleteCampus@CCampusDBCtrl@@AAEXK@Z ; CCampusDBCtrl::DeleteCampus
$LN10@RemoveCamp:

; 242  : 		CDPTrans::GetInstance()->SendRemoveCampusMember( idCampus, idPlayer );

  001f1	57		 push	 edi
  001f2	56		 push	 esi
  001f3	e8 00 00 00 00	 call	 ?GetInstance@CDPTrans@@SAPAV1@XZ ; CDPTrans::GetInstance
  001f8	8b c8		 mov	 ecx, eax
  001fa	e8 00 00 00 00	 call	 ?SendRemoveCampusMember@CDPTrans@@QAEXKK@Z ; CDPTrans::SendRemoveCampusMember

; 246  : }

  001ff	8b 4d f4	 mov	 ecx, DWORD PTR __$EHRec$[ebp]
  00202	64 89 0d 00 00
	00 00		 mov	 DWORD PTR fs:0, ecx
  00209	59		 pop	 ecx
  0020a	5f		 pop	 edi
  0020b	5e		 pop	 esi
  0020c	5b		 pop	 ebx
  0020d	8b e5		 mov	 esp, ebp
  0020f	5d		 pop	 ebp
  00210	c2 04 00	 ret	 4
$LN5@RemoveCamp:

; 243  : 	}
; 244  : 	else
; 245  : 		Error( "RemoveCampusMember fail" );

  00213	68 00 00 00 00	 push	 OFFSET ??_C@_0BI@BMKKJLKC@RemoveCampusMember?5fail@
  00218	e8 00 00 00 00	 call	 ?Error@@YAPBDPBDZZ	; Error
  0021d	83 c4 04	 add	 esp, 4

; 246  : }

  00220	8b 4d f4	 mov	 ecx, DWORD PTR __$EHRec$[ebp]
  00223	64 89 0d 00 00
	00 00		 mov	 DWORD PTR fs:0, ecx
  0022a	59		 pop	 ecx
  0022b	5f		 pop	 edi
  0022c	5e		 pop	 esi
  0022d	5b		 pop	 ebx
  0022e	8b e5		 mov	 esp, ebp
  00230	5d		 pop	 ebp
  00231	c2 04 00	 ret	 4
$LN98@RemoveCamp:
; File C:\Program Files\Microsoft Visual Studio\2022\Professional\VC\Tools\MSVC\14.44.35207\include\xmemory

; 219  :     _STL_VERIFY(_Back_shift >= _Min_back_shift && _Back_shift <= _Non_user_size, "invalid argument");

  00234	6a 00		 push	 0
  00236	6a 00		 push	 0
  00238	6a 00		 push	 0
  0023a	6a 00		 push	 0
  0023c	6a 00		 push	 0
  0023e	e8 00 00 00 00	 call	 __invoke_watson
$LN96@RemoveCamp:
  00243	cc		 int	 3
_TEXT	ENDS
;	COMDAT text$x
text$x	SEGMENT
__unwindfunclet$?RemoveCampusMember@CCampusDBCtrl@@AAEXAAVCAr@@@Z$0:
  00000	8d 4d e0	 lea	 ecx, DWORD PTR _vecMember$2[ebp]
  00003	e9 00 00 00 00	 jmp	 ??1?$vector@KV?$allocator@K@std@@@std@@QAE@XZ ; std::vector<unsigned long,std::allocator<unsigned long> >::~vector<unsigned long,std::allocator<unsigned long> >
  00008	cc		 int	 3
  00009	cc		 int	 3
  0000a	cc		 int	 3
  0000b	cc		 int	 3
  0000c	cc		 int	 3
__ehhandler$?RemoveCampusMember@CCampusDBCtrl@@AAEXAAVCAr@@@Z:
  0000d	90		 npad	 1
  0000e	90		 npad	 1
  0000f	8b 54 24 08	 mov	 edx, DWORD PTR [esp+8]
  00013	8d 42 0c	 lea	 eax, DWORD PTR [edx+12]
  00016	8b 4a dc	 mov	 ecx, DWORD PTR [edx-36]
  00019	33 c8		 xor	 ecx, eax
  0001b	e8 00 00 00 00	 call	 @__security_check_cookie@4
  00020	b8 00 00 00 00	 mov	 eax, OFFSET __ehfuncinfo$?RemoveCampusMember@CCampusDBCtrl@@AAEXAAVCAr@@@Z
  00025	e9 00 00 00 00	 jmp	 ___CxxFrameHandler3
text$x	ENDS
?RemoveCampusMember@CCampusDBCtrl@@AAEXAAVCAr@@@Z ENDP	; CCampusDBCtrl::RemoveCampusMember
; Function compile flags: /Ogtp
; File C:\IAGOS\server\v18\Source\Source\DatabaseServer\CampusDBCtrl.cpp
; File C:\IAGOS\server\v18\Source\Source\DatabaseServer\CampusDBCtrl.h
; File C:\IAGOS\server\v18\Source\Source\DatabaseServer\CampusDBCtrl.cpp
; File C:\IAGOS\server\v18\Source\Source\DatabaseServer\CampusDBCtrl.h
; File C:\IAGOS\server\v18\Source\Source\DatabaseServer\CampusDBCtrl.cpp
; File C:\IAGOS\server\v18\Source\Source\DatabaseServer\CampusDBCtrl.h
; File C:\IAGOS\server\v18\Source\Source\DatabaseServer\CampusDBCtrl.cpp
; File C:\IAGOS\server\v18\Source\Source\DatabaseServer\CampusDBCtrl.h
; File C:\IAGOS\server\v18\Source\Source\DatabaseServer\CampusDBCtrl.cpp
; File C:\IAGOS\server\v18\Source\Source\DatabaseServer\CampusDBCtrl.h
; File C:\IAGOS\server\v18\Source\Source\DatabaseServer\CampusDBCtrl.cpp
; File C:\IAGOS\server\v18\Source\Source\DatabaseServer\CampusDBCtrl.h
; File C:\IAGOS\server\v18\Source\Source\DatabaseServer\CampusDBCtrl.cpp
; File C:\IAGOS\server\v18\Source\Source\DatabaseServer\CampusDBCtrl.h
; File C:\IAGOS\server\v18\Source\Source\DatabaseServer\CampusDBCtrl.cpp
; File C:\IAGOS\server\v18\Source\Source\DatabaseServer\CampusDBCtrl.h
; File C:\IAGOS\server\v18\Source\Source\DatabaseServer\CampusDBCtrl.cpp
; File C:\IAGOS\server\v18\Source\Source\DatabaseServer\CampusDBCtrl.h
; File C:\IAGOS\server\v18\Source\Source\DatabaseServer\CampusDBCtrl.cpp
;	COMDAT ?AddCampusMember@CCampusDBCtrl@@AAEXAAVCAr@@@Z
_TEXT	SEGMENT
_nPupilPoint$ = -32					; size = 4
$T2 = -32						; size = 4
_nMasterPoint$ = -28					; size = 4
_idPupil$ = -24						; size = 4
$T3 = -24						; size = 4
_this$1$ = -20						; size = 4
_idMaster$ = -16					; size = 4
__$EHRec$ = -12						; size = 12
_ar$ = 8						; size = 4
$T4 = 8							; size = 4
$T5 = 8							; size = 4
$T6 = 8							; size = 4
$T7 = 8							; size = 4
?AddCampusMember@CCampusDBCtrl@@AAEXAAVCAr@@@Z PROC	; CCampusDBCtrl::AddCampusMember, COMDAT
; _this$ = ecx

; 119  : {

  00000	55		 push	 ebp
  00001	8b ec		 mov	 ebp, esp
  00003	6a ff		 push	 -1
  00005	68 00 00 00 00	 push	 __ehhandler$?AddCampusMember@CCampusDBCtrl@@AAEXAAVCAr@@@Z
  0000a	64 a1 00 00 00
	00		 mov	 eax, DWORD PTR fs:0
  00010	50		 push	 eax
  00011	83 ec 14	 sub	 esp, 20			; 00000014H
  00014	53		 push	 ebx
  00015	56		 push	 esi
  00016	57		 push	 edi
  00017	a1 00 00 00 00	 mov	 eax, DWORD PTR ___security_cookie
  0001c	33 c5		 xor	 eax, ebp
  0001e	50		 push	 eax
  0001f	8d 45 f4	 lea	 eax, DWORD PTR __$EHRec$[ebp]
  00022	64 a3 00 00 00
	00		 mov	 DWORD PTR fs:0, eax
  00028	89 4d ec	 mov	 DWORD PTR _this$1$[ebp], ecx

; 120  : 	u_long idMaster, idPupil;
; 121  : 	int nMasterPoint, nPupilPoint;
; 122  : 	ar >> idMaster >> nMasterPoint >> idPupil >> nPupilPoint;

  0002b	8b 4d 08	 mov	 ecx, DWORD PTR _ar$[ebp]
  0002e	8d 45 e0	 lea	 eax, DWORD PTR _nPupilPoint$[ebp]
  00031	50		 push	 eax
  00032	8d 45 e8	 lea	 eax, DWORD PTR _idPupil$[ebp]
  00035	50		 push	 eax
  00036	8d 45 e4	 lea	 eax, DWORD PTR _nMasterPoint$[ebp]
  00039	50		 push	 eax
  0003a	8d 45 f0	 lea	 eax, DWORD PTR _idMaster$[ebp]
  0003d	50		 push	 eax
  0003e	e8 00 00 00 00	 call	 ??$?5K@CAr@@QAEAAV0@AAK@Z ; CAr::operator>><unsigned long>
  00043	8b c8		 mov	 ecx, eax
  00045	e8 00 00 00 00	 call	 ??$?5H@CAr@@QAEAAV0@AAH@Z ; CAr::operator>><int>
  0004a	8b c8		 mov	 ecx, eax
  0004c	e8 00 00 00 00	 call	 ??$?5K@CAr@@QAEAAV0@AAK@Z ; CAr::operator>><unsigned long>
  00051	8b c8		 mov	 ecx, eax
  00053	e8 00 00 00 00	 call	 ??$?5H@CAr@@QAEAAV0@AAH@Z ; CAr::operator>><int>

; 125  : 		|| CCampusHelper::GetInstance()->GetCampus( CCampusHelper::GetInstance()->GetCampusIdByPlayerId( idPupil ) ) )

  00058	83 7d e4 00	 cmp	 DWORD PTR _nMasterPoint$[ebp], 0
  0005c	0f 8c 0f 03 00
	00		 jl	 $LN66@AddCampusM
  00062	83 7d e0 00	 cmp	 DWORD PTR _nPupilPoint$[ebp], 0
  00066	0f 8c 05 03 00
	00		 jl	 $LN66@AddCampusM
  0006c	e8 00 00 00 00	 call	 ?GetInstance@CCampusHelper@@SAPAV1@XZ ; CCampusHelper::GetInstance
; File C:\IAGOS\server\v18\Source\Source\DatabaseServer\CampusDBCtrl.h

; 84   : 	u_long	GetCampusIdByPlayerId( u_long idPlayer )	{	return m_pCampusMng->GetCampusIdByPlayerId( idPlayer );	}

  00071	8b 5d e8	 mov	 ebx, DWORD PTR _idPupil$[ebp]
  00074	53		 push	 ebx
  00075	8b 48 18	 mov	 ecx, DWORD PTR [eax+24]
  00078	e8 00 00 00 00	 call	 ?GetCampusIdByPlayerId@CCampusMng@@QAEKK@Z ; CCampusMng::GetCampusIdByPlayerId
  0007d	8b f0		 mov	 esi, eax
; File C:\IAGOS\server\v18\Source\Source\DatabaseServer\CampusDBCtrl.cpp

; 125  : 		|| CCampusHelper::GetInstance()->GetCampus( CCampusHelper::GetInstance()->GetCampusIdByPlayerId( idPupil ) ) )

  0007f	e8 00 00 00 00	 call	 ?GetInstance@CCampusHelper@@SAPAV1@XZ ; CCampusHelper::GetInstance
; File C:\IAGOS\server\v18\Source\Source\DatabaseServer\CampusDBCtrl.h

; 79   : 	CCampus*	GetCampus( u_long idCampus )	{	return m_pCampusMng->GetCampus( idCampus );	}

  00084	56		 push	 esi
  00085	8b 48 18	 mov	 ecx, DWORD PTR [eax+24]
  00088	e8 00 00 00 00	 call	 ?GetCampus@CCampusMng@@QAEPAVCCampus@@K@Z ; CCampusMng::GetCampus
; File C:\IAGOS\server\v18\Source\Source\DatabaseServer\CampusDBCtrl.cpp

; 125  : 		|| CCampusHelper::GetInstance()->GetCampus( CCampusHelper::GetInstance()->GetCampusIdByPlayerId( idPupil ) ) )

  0008d	85 c0		 test	 eax, eax
  0008f	0f 85 dc 02 00
	00		 jne	 $LN66@AddCampusM

; 128  : 	CCampus* pCampus = CCampusHelper::GetInstance()->GetCampus( CCampusHelper::GetInstance()->GetCampusIdByPlayerId( idMaster ) );

  00095	e8 00 00 00 00	 call	 ?GetInstance@CCampusHelper@@SAPAV1@XZ ; CCampusHelper::GetInstance
; File C:\IAGOS\server\v18\Source\Source\DatabaseServer\CampusDBCtrl.h

; 84   : 	u_long	GetCampusIdByPlayerId( u_long idPlayer )	{	return m_pCampusMng->GetCampusIdByPlayerId( idPlayer );	}

  0009a	8b 55 f0	 mov	 edx, DWORD PTR _idMaster$[ebp]
  0009d	52		 push	 edx
  0009e	8b 48 18	 mov	 ecx, DWORD PTR [eax+24]
  000a1	e8 00 00 00 00	 call	 ?GetCampusIdByPlayerId@CCampusMng@@QAEKK@Z ; CCampusMng::GetCampusIdByPlayerId
  000a6	8b f0		 mov	 esi, eax
; File C:\IAGOS\server\v18\Source\Source\DatabaseServer\CampusDBCtrl.cpp

; 128  : 	CCampus* pCampus = CCampusHelper::GetInstance()->GetCampus( CCampusHelper::GetInstance()->GetCampusIdByPlayerId( idMaster ) );

  000a8	e8 00 00 00 00	 call	 ?GetInstance@CCampusHelper@@SAPAV1@XZ ; CCampusHelper::GetInstance
; File C:\IAGOS\server\v18\Source\Source\DatabaseServer\CampusDBCtrl.h

; 79   : 	CCampus*	GetCampus( u_long idCampus )	{	return m_pCampusMng->GetCampus( idCampus );	}

  000ad	56		 push	 esi
  000ae	8b 48 18	 mov	 ecx, DWORD PTR [eax+24]
  000b1	e8 00 00 00 00	 call	 ?GetCampus@CCampusMng@@QAEPAVCCampus@@K@Z ; CCampusMng::GetCampus
; File C:\IAGOS\server\v18\Source\Source\DatabaseServer\CampusDBCtrl.cpp

; 128  : 	CCampus* pCampus = CCampusHelper::GetInstance()->GetCampus( CCampusHelper::GetInstance()->GetCampusIdByPlayerId( idMaster ) );

  000b6	8b f8		 mov	 edi, eax

; 129  : 	if( pCampus )

  000b8	85 ff		 test	 edi, edi
  000ba	0f 84 ba 00 00
	00		 je	 $LN4@AddCampusM

; 130  : 	{
; 131  : 		if( pCampus->GetPupilNum() >= CCampusHelper::GetInstance()->GetMaxPupilNum( nMasterPoint ) )

  000c0	ff 75 e4	 push	 DWORD PTR _nMasterPoint$[ebp]
  000c3	e8 00 00 00 00	 call	 ?GetInstance@CCampusHelper@@SAPAV1@XZ ; CCampusHelper::GetInstance
  000c8	8b c8		 mov	 ecx, eax
  000ca	e8 00 00 00 00	 call	 ?GetMaxPupilNum@CCampusHelper@@QAEHH@Z ; CCampusHelper::GetMaxPupilNum
  000cf	8b cf		 mov	 ecx, edi
  000d1	8b f0		 mov	 esi, eax
  000d3	e8 00 00 00 00	 call	 ?GetPupilNum@CCampus@@QAEHXZ ; CCampus::GetPupilNum
  000d8	3b c6		 cmp	 eax, esi
  000da	0f 8d 91 02 00
	00		 jge	 $LN66@AddCampusM

; 132  : 			return;
; 133  : 
; 134  : 		CCampusMember* pCM = new CCampusMember;

  000e0	6a 08		 push	 8
  000e2	e8 00 00 00 00	 call	 ??2@YAPAXI@Z		; operator new
  000e7	83 c4 04	 add	 esp, 4
  000ea	89 45 08	 mov	 DWORD PTR $T4[ebp], eax
  000ed	c7 45 fc 00 00
	00 00		 mov	 DWORD PTR __$EHRec$[ebp+8], 0
  000f4	85 c0		 test	 eax, eax
  000f6	74 0b		 je	 SHORT $LN21@AddCampusM
  000f8	8b c8		 mov	 ecx, eax
  000fa	e8 00 00 00 00	 call	 ??0CCampusMember@@QAE@XZ ; CCampusMember::CCampusMember
  000ff	8b d8		 mov	 ebx, eax
  00101	eb 02		 jmp	 SHORT $LN22@AddCampusM
$LN21@AddCampusM:
  00103	33 db		 xor	 ebx, ebx
$LN22@AddCampusM:

; 135  : 		pCM->SetLevel( CAMPUS_PUPIL );
; 136  : 		pCM->SetPlayerId( idPupil );

  00105	8b 45 e8	 mov	 eax, DWORD PTR _idPupil$[ebp]

; 137  : 		if( pCampus->AddMember( pCM )  )

  00108	8b cf		 mov	 ecx, edi
  0010a	53		 push	 ebx
  0010b	c7 45 fc ff ff
	ff ff		 mov	 DWORD PTR __$EHRec$[ebp+8], -1
  00112	c7 43 04 02 00
	00 00		 mov	 DWORD PTR [ebx+4], 2
  00119	89 03		 mov	 DWORD PTR [ebx], eax
  0011b	e8 00 00 00 00	 call	 ?AddMember@CCampus@@QAEHPAVCCampusMember@@@Z ; CCampus::AddMember
  00120	85 c0		 test	 eax, eax
  00122	74 47		 je	 SHORT $LN7@AddCampusM

; 139  : 			if( CCampusHelper::GetInstance()->AddPlayerId2CampusId( idPupil, pCampus->GetCampusId() ) )

  00124	8b 37		 mov	 esi, DWORD PTR [edi]
  00126	e8 00 00 00 00	 call	 ?GetInstance@CCampusHelper@@SAPAV1@XZ ; CCampusHelper::GetInstance
; File C:\IAGOS\server\v18\Source\Source\DatabaseServer\CampusDBCtrl.h

; 82   : 	bool	AddPlayerId2CampusId( u_long idPlayer, u_long idCampus )	{	return m_pCampusMng->AddPlayerId2CampusId( idPlayer, idCampus );	}

  0012b	56		 push	 esi
  0012c	ff 75 e8	 push	 DWORD PTR _idPupil$[ebp]
  0012f	8b 48 18	 mov	 ecx, DWORD PTR [eax+24]
  00132	e8 00 00 00 00	 call	 ?AddPlayerId2CampusId@CCampusMng@@QAE_NKK@Z ; CCampusMng::AddPlayerId2CampusId
; File C:\IAGOS\server\v18\Source\Source\DatabaseServer\CampusDBCtrl.cpp

; 139  : 			if( CCampusHelper::GetInstance()->AddPlayerId2CampusId( idPupil, pCampus->GetCampusId() ) )

  00137	84 c0		 test	 al, al
  00139	74 1a		 je	 SHORT $LN9@AddCampusM

; 140  : 			{
; 141  : 				UpdateCampusId( idPupil, pCampus->GetCampusId() );

  0013b	ff 37		 push	 DWORD PTR [edi]
  0013d	8b 5d e8	 mov	 ebx, DWORD PTR _idPupil$[ebp]
  00140	8b 75 ec	 mov	 esi, DWORD PTR _this$1$[ebp]
  00143	8b ce		 mov	 ecx, esi
  00145	53		 push	 ebx
  00146	e8 00 00 00 00	 call	 ?UpdateCampusId@CCampusDBCtrl@@AAEXKK@Z ; CCampusDBCtrl::UpdateCampusId

; 142  : 				InsertCampusMember( pCampus->GetCampusId(), idPupil, CAMPUS_PUPIL );

  0014b	6a 02		 push	 2
  0014d	53		 push	 ebx
  0014e	ff 37		 push	 DWORD PTR [edi]

; 148  : 				SAFE_DELETE( pCM );
; 149  : 				return;
; 150  : 			}
; 151  : 		}
; 152  : 		else
; 153  : 		{
; 154  : 			SAFE_DELETE( pCM );
; 155  : 			return;
; 156  : 		}
; 157  : 	}

  00150	e9 68 01 00 00	 jmp	 $LN88@AddCampusM
$LN9@AddCampusM:

; 143  : 			}
; 144  : 			else
; 145  : 			{
; 146  : 				Error( "AddPlayerId2CampusId() fail" );

  00155	68 00 00 00 00	 push	 OFFSET ??_C@_0BM@IEAKIJNC@AddPlayerId2CampusId?$CI?$CJ?5fail@
  0015a	e8 00 00 00 00	 call	 ?Error@@YAPBDPBDZZ	; Error
  0015f	83 c4 04	 add	 esp, 4

; 147  : 				pCampus->RemoveMember( pCM->GetPlayerId() );

  00162	8b cf		 mov	 ecx, edi
  00164	ff 33		 push	 DWORD PTR [ebx]
  00166	e8 00 00 00 00	 call	 ?RemoveMember@CCampus@@QAEHK@Z ; CCampus::RemoveMember
$LN7@AddCampusM:

; 201  : }

  0016b	8b cb		 mov	 ecx, ebx
  0016d	e8 00 00 00 00	 call	 ??1CCampusMember@@QAE@XZ ; CCampusMember::~CCampusMember
  00172	6a 08		 push	 8
  00174	53		 push	 ebx
  00175	e9 ef 01 00 00	 jmp	 $LN89@AddCampusM
$LN4@AddCampusM:

; 158  : 	else
; 159  : 	{
; 160  : 		pCampus = new CCampus;

  0017a	6a 10		 push	 16			; 00000010H
  0017c	e8 00 00 00 00	 call	 ??2@YAPAXI@Z		; operator new
  00181	83 c4 04	 add	 esp, 4
  00184	89 45 08	 mov	 DWORD PTR $T5[ebp], eax
  00187	c7 45 fc 01 00
	00 00		 mov	 DWORD PTR __$EHRec$[ebp+8], 1
  0018e	85 c0		 test	 eax, eax
  00190	74 0b		 je	 SHORT $LN27@AddCampusM
  00192	8b c8		 mov	 ecx, eax
  00194	e8 00 00 00 00	 call	 ??0CCampus@@QAE@XZ	; CCampus::CCampus
  00199	8b f8		 mov	 edi, eax
  0019b	eb 02		 jmp	 SHORT $LN28@AddCampusM
$LN27@AddCampusM:
  0019d	33 ff		 xor	 edi, edi
$LN28@AddCampusM:

; 161  : 		pCampus->SetMaster( idMaster );

  0019f	8b 45 f0	 mov	 eax, DWORD PTR _idMaster$[ebp]
  001a2	c7 45 fc ff ff
	ff ff		 mov	 DWORD PTR __$EHRec$[ebp+8], -1
  001a9	89 47 04	 mov	 DWORD PTR [edi+4], eax

; 162  : 		u_long idCampus = CCampusHelper::GetInstance()->AddCampus( pCampus );

  001ac	e8 00 00 00 00	 call	 ?GetInstance@CCampusHelper@@SAPAV1@XZ ; CCampusHelper::GetInstance
; File C:\IAGOS\server\v18\Source\Source\DatabaseServer\CampusDBCtrl.h

; 75   : 	u_long	AddCampus( CCampus* pCampus )	{	return m_pCampusMng->AddCampus( pCampus );	}

  001b1	57		 push	 edi
  001b2	8b 48 18	 mov	 ecx, DWORD PTR [eax+24]
  001b5	e8 00 00 00 00	 call	 ?AddCampus@CCampusMng@@QAEKPAVCCampus@@@Z ; CCampusMng::AddCampus
; File C:\IAGOS\server\v18\Source\Source\DatabaseServer\CampusDBCtrl.cpp

; 162  : 		u_long idCampus = CCampusHelper::GetInstance()->AddCampus( pCampus );

  001ba	8b f0		 mov	 esi, eax

; 163  : 		if( idCampus > 0 )

  001bc	85 f6		 test	 esi, esi
  001be	0f 84 8e 01 00
	00		 je	 $LN13@AddCampusM

; 164  : 		{
; 165  : 			CCampusMember* pMaster = new CCampusMember;

  001c4	6a 08		 push	 8
  001c6	e8 00 00 00 00	 call	 ??2@YAPAXI@Z		; operator new
  001cb	83 c4 04	 add	 esp, 4
  001ce	89 45 08	 mov	 DWORD PTR $T6[ebp], eax
  001d1	c7 45 fc 02 00
	00 00		 mov	 DWORD PTR __$EHRec$[ebp+8], 2
  001d8	85 c0		 test	 eax, eax
  001da	74 0c		 je	 SHORT $LN29@AddCampusM
  001dc	8b c8		 mov	 ecx, eax
  001de	e8 00 00 00 00	 call	 ??0CCampusMember@@QAE@XZ ; CCampusMember::CCampusMember
  001e3	89 45 08	 mov	 DWORD PTR $T7[ebp], eax
  001e6	eb 07		 jmp	 SHORT $LN30@AddCampusM
$LN29@AddCampusM:
  001e8	c7 45 08 00 00
	00 00		 mov	 DWORD PTR $T7[ebp], 0
$LN30@AddCampusM:

; 166  : 			CCampusMember* pPupil = new CCampusMember;

  001ef	6a 08		 push	 8
  001f1	c7 45 fc ff ff
	ff ff		 mov	 DWORD PTR __$EHRec$[ebp+8], -1
  001f8	e8 00 00 00 00	 call	 ??2@YAPAXI@Z		; operator new
  001fd	83 c4 04	 add	 esp, 4
  00200	89 45 e0	 mov	 DWORD PTR $T2[ebp], eax
  00203	c7 45 fc 03 00
	00 00		 mov	 DWORD PTR __$EHRec$[ebp+8], 3
  0020a	85 c0		 test	 eax, eax
  0020c	74 09		 je	 SHORT $LN31@AddCampusM
  0020e	8b c8		 mov	 ecx, eax
  00210	e8 00 00 00 00	 call	 ??0CCampusMember@@QAE@XZ ; CCampusMember::CCampusMember
  00215	eb 02		 jmp	 SHORT $LN90@AddCampusM
$LN31@AddCampusM:
  00217	33 c0		 xor	 eax, eax
$LN90@AddCampusM:

; 167  : 
; 168  : 			pMaster->SetLevel( CAMPUS_MASTER );

  00219	8b 4d 08	 mov	 ecx, DWORD PTR $T7[ebp]

; 169  : 			pMaster->SetPlayerId( idMaster );

  0021c	8b 55 f0	 mov	 edx, DWORD PTR _idMaster$[ebp]

; 175  : 				&& CCampusHelper::GetInstance()->AddPlayerId2CampusId( idPupil, idCampus ) )

  0021f	51		 push	 ecx
  00220	89 45 e8	 mov	 DWORD PTR $T3[ebp], eax
  00223	c7 41 04 01 00
	00 00		 mov	 DWORD PTR [ecx+4], 1
  0022a	89 11		 mov	 DWORD PTR [ecx], edx
  0022c	8b cf		 mov	 ecx, edi
  0022e	c7 45 fc ff ff
	ff ff		 mov	 DWORD PTR __$EHRec$[ebp+8], -1
  00235	c7 40 04 02 00
	00 00		 mov	 DWORD PTR [eax+4], 2
  0023c	89 18		 mov	 DWORD PTR [eax], ebx
  0023e	e8 00 00 00 00	 call	 ?AddMember@CCampus@@QAEHPAVCCampusMember@@@Z ; CCampus::AddMember
  00243	85 c0		 test	 eax, eax
  00245	0f 84 ae 00 00
	00		 je	 $LN15@AddCampusM
  0024b	ff 75 e8	 push	 DWORD PTR $T3[ebp]
  0024e	8b cf		 mov	 ecx, edi
  00250	e8 00 00 00 00	 call	 ?AddMember@CCampus@@QAEHPAVCCampusMember@@@Z ; CCampus::AddMember
  00255	85 c0		 test	 eax, eax
  00257	0f 84 9c 00 00
	00		 je	 $LN15@AddCampusM
  0025d	e8 00 00 00 00	 call	 ?GetInstance@CCampusHelper@@SAPAV1@XZ ; CCampusHelper::GetInstance
; File C:\IAGOS\server\v18\Source\Source\DatabaseServer\CampusDBCtrl.h

; 82   : 	bool	AddPlayerId2CampusId( u_long idPlayer, u_long idCampus )	{	return m_pCampusMng->AddPlayerId2CampusId( idPlayer, idCampus );	}

  00262	56		 push	 esi
  00263	ff 75 f0	 push	 DWORD PTR _idMaster$[ebp]
  00266	8b 48 18	 mov	 ecx, DWORD PTR [eax+24]
  00269	e8 00 00 00 00	 call	 ?AddPlayerId2CampusId@CCampusMng@@QAE_NKK@Z ; CCampusMng::AddPlayerId2CampusId
; File C:\IAGOS\server\v18\Source\Source\DatabaseServer\CampusDBCtrl.cpp

; 175  : 				&& CCampusHelper::GetInstance()->AddPlayerId2CampusId( idPupil, idCampus ) )

  0026e	84 c0		 test	 al, al
  00270	0f 84 83 00 00
	00		 je	 $LN15@AddCampusM
  00276	e8 00 00 00 00	 call	 ?GetInstance@CCampusHelper@@SAPAV1@XZ ; CCampusHelper::GetInstance
; File C:\IAGOS\server\v18\Source\Source\DatabaseServer\CampusDBCtrl.h

; 82   : 	bool	AddPlayerId2CampusId( u_long idPlayer, u_long idCampus )	{	return m_pCampusMng->AddPlayerId2CampusId( idPlayer, idCampus );	}

  0027b	56		 push	 esi
  0027c	53		 push	 ebx
  0027d	8b 48 18	 mov	 ecx, DWORD PTR [eax+24]
  00280	e8 00 00 00 00	 call	 ?AddPlayerId2CampusId@CCampusMng@@QAE_NKK@Z ; CCampusMng::AddPlayerId2CampusId
; File C:\IAGOS\server\v18\Source\Source\DatabaseServer\CampusDBCtrl.cpp

; 175  : 				&& CCampusHelper::GetInstance()->AddPlayerId2CampusId( idPupil, idCampus ) )

  00285	84 c0		 test	 al, al
  00287	74 70		 je	 SHORT $LN15@AddCampusM

; 176  : 			{
; 177  : 				UpdateCampusId( idMaster, idCampus );

  00289	8b 4d ec	 mov	 ecx, DWORD PTR _this$1$[ebp]
  0028c	56		 push	 esi
  0028d	ff 75 f0	 push	 DWORD PTR _idMaster$[ebp]
  00290	e8 00 00 00 00	 call	 ?UpdateCampusId@CCampusDBCtrl@@AAEXKK@Z ; CCampusDBCtrl::UpdateCampusId

; 178  : 				UpdateCampusId( idPupil, idCampus );

  00295	8b 4d ec	 mov	 ecx, DWORD PTR _this$1$[ebp]
  00298	56		 push	 esi
  00299	53		 push	 ebx
  0029a	e8 00 00 00 00	 call	 ?UpdateCampusId@CCampusDBCtrl@@AAEXKK@Z ; CCampusDBCtrl::UpdateCampusId

; 179  : 				InsertCampus( idCampus );

  0029f	8b 4d ec	 mov	 ecx, DWORD PTR _this$1$[ebp]
  002a2	56		 push	 esi
  002a3	e8 00 00 00 00	 call	 ?InsertCampus@CCampusDBCtrl@@AAEXK@Z ; CCampusDBCtrl::InsertCampus

; 180  : 				InsertCampusMember( idCampus, idMaster, CAMPUS_MASTER );

  002a8	8b 4d ec	 mov	 ecx, DWORD PTR _this$1$[ebp]
  002ab	6a 01		 push	 1
  002ad	ff 75 f0	 push	 DWORD PTR _idMaster$[ebp]
  002b0	56		 push	 esi
  002b1	e8 00 00 00 00	 call	 ?InsertCampusMember@CCampusDBCtrl@@AAEXKKH@Z ; CCampusDBCtrl::InsertCampusMember

; 181  : 				InsertCampusMember( idCampus, idPupil, CAMPUS_PUPIL );

  002b6	6a 02		 push	 2
  002b8	53		 push	 ebx
  002b9	56		 push	 esi
  002ba	8b 75 ec	 mov	 esi, DWORD PTR _this$1$[ebp]
$LN88@AddCampusM:

; 195  : 			SAFE_DELETE( pCampus );
; 196  : 			return;
; 197  : 		}
; 198  : 	}
; 199  : 	LogUpdateCampusMember( pCampus->GetCampusId(), idMaster, idPupil, 'T' );

  002bd	8b ce		 mov	 ecx, esi
  002bf	e8 00 00 00 00	 call	 ?InsertCampusMember@CCampusDBCtrl@@AAEXKKH@Z ; CCampusDBCtrl::InsertCampusMember
  002c4	6a 54		 push	 84			; 00000054H
  002c6	53		 push	 ebx
  002c7	ff 75 f0	 push	 DWORD PTR _idMaster$[ebp]
  002ca	8b ce		 mov	 ecx, esi
  002cc	ff 37		 push	 DWORD PTR [edi]
  002ce	e8 00 00 00 00	 call	 ?LogUpdateCampusMember@CCampusDBCtrl@@AAEXKKKD@Z ; CCampusDBCtrl::LogUpdateCampusMember

; 200  : 	CDPTrans::GetInstance()->SendAddCampusMember( pCampus->GetCampusId(), idMaster, idPupil );

  002d3	53		 push	 ebx
  002d4	ff 75 f0	 push	 DWORD PTR _idMaster$[ebp]
  002d7	ff 37		 push	 DWORD PTR [edi]
  002d9	e8 00 00 00 00	 call	 ?GetInstance@CDPTrans@@SAPAV1@XZ ; CDPTrans::GetInstance
  002de	8b c8		 mov	 ecx, eax
  002e0	e8 00 00 00 00	 call	 ?SendAddCampusMember@CDPTrans@@QAEXKKK@Z ; CDPTrans::SendAddCampusMember

; 201  : }

  002e5	8b 4d f4	 mov	 ecx, DWORD PTR __$EHRec$[ebp]
  002e8	64 89 0d 00 00
	00 00		 mov	 DWORD PTR fs:0, ecx
  002ef	59		 pop	 ecx
  002f0	5f		 pop	 edi
  002f1	5e		 pop	 esi
  002f2	5b		 pop	 ebx
  002f3	8b e5		 mov	 esp, ebp
  002f5	5d		 pop	 ebp
  002f6	c2 04 00	 ret	 4
$LN15@AddCampusM:

; 182  : 			}
; 183  : 			else
; 184  : 			{
; 185  : 				Error( "AddMember failed!" );

  002f9	68 00 00 00 00	 push	 OFFSET ??_C@_0BC@EFJAFBJB@AddMember?5failed?$CB@
  002fe	e8 00 00 00 00	 call	 ?Error@@YAPBDPBDZZ	; Error
  00303	8b 7d 08	 mov	 edi, DWORD PTR $T7[ebp]
  00306	83 c4 04	 add	 esp, 4
  00309	8b cf		 mov	 ecx, edi
  0030b	e8 00 00 00 00	 call	 ??1CCampusMember@@QAE@XZ ; CCampusMember::~CCampusMember
  00310	6a 08		 push	 8
  00312	57		 push	 edi
  00313	e8 00 00 00 00	 call	 ??3@YAXPAXI@Z		; operator delete
  00318	8b 5d e8	 mov	 ebx, DWORD PTR $T3[ebp]
  0031b	83 c4 08	 add	 esp, 8
  0031e	8b cb		 mov	 ecx, ebx
  00320	e8 00 00 00 00	 call	 ??1CCampusMember@@QAE@XZ ; CCampusMember::~CCampusMember
  00325	6a 08		 push	 8
  00327	53		 push	 ebx
  00328	e8 00 00 00 00	 call	 ??3@YAXPAXI@Z		; operator delete
  0032d	83 c4 08	 add	 esp, 8

; 186  : 				SAFE_DELETE( pMaster );
; 187  : 				SAFE_DELETE( pPupil );
; 188  : 				CCampusHelper::GetInstance()->RemoveCampus( idCampus );

  00330	e8 00 00 00 00	 call	 ?GetInstance@CCampusHelper@@SAPAV1@XZ ; CCampusHelper::GetInstance
; File C:\IAGOS\server\v18\Source\Source\DatabaseServer\CampusDBCtrl.h

; 76   : 	BOOL	RemoveCampus( u_long idCampus )	{	return m_pCampusMng->RemoveCampus( idCampus );	}

  00335	56		 push	 esi
  00336	8b 48 18	 mov	 ecx, DWORD PTR [eax+24]
  00339	e8 00 00 00 00	 call	 ?RemoveCampus@CCampusMng@@QAEHK@Z ; CCampusMng::RemoveCampus
; File C:\IAGOS\server\v18\Source\Source\DatabaseServer\CampusDBCtrl.cpp

; 201  : }

  0033e	8b 4d f4	 mov	 ecx, DWORD PTR __$EHRec$[ebp]
  00341	64 89 0d 00 00
	00 00		 mov	 DWORD PTR fs:0, ecx
  00348	59		 pop	 ecx
  00349	5f		 pop	 edi
  0034a	5e		 pop	 esi
  0034b	5b		 pop	 ebx
  0034c	8b e5		 mov	 esp, ebp
  0034e	5d		 pop	 ebp
  0034f	c2 04 00	 ret	 4
$LN13@AddCampusM:

; 189  : 				return;
; 190  : 			}
; 191  : 		}
; 192  : 		else
; 193  : 		{
; 194  : 			Error( "new campus failed! campus exist" );

  00352	68 00 00 00 00	 push	 OFFSET ??_C@_0CA@DNIPPDFD@new?5campus?5failed?$CB?5campus?5exist@
  00357	e8 00 00 00 00	 call	 ?Error@@YAPBDPBDZZ	; Error
  0035c	83 c4 04	 add	 esp, 4
  0035f	8b cf		 mov	 ecx, edi
  00361	e8 00 00 00 00	 call	 ??1CCampus@@QAE@XZ	; CCampus::~CCampus
  00366	6a 10		 push	 16			; 00000010H
  00368	57		 push	 edi
$LN89@AddCampusM:

; 201  : }

  00369	e8 00 00 00 00	 call	 ??3@YAXPAXI@Z		; operator delete
  0036e	83 c4 08	 add	 esp, 8
$LN66@AddCampusM:
  00371	8b 4d f4	 mov	 ecx, DWORD PTR __$EHRec$[ebp]
  00374	64 89 0d 00 00
	00 00		 mov	 DWORD PTR fs:0, ecx
  0037b	59		 pop	 ecx
  0037c	5f		 pop	 edi
  0037d	5e		 pop	 esi
  0037e	5b		 pop	 ebx
  0037f	8b e5		 mov	 esp, ebp
  00381	5d		 pop	 ebp
  00382	c2 04 00	 ret	 4
_TEXT	ENDS
;	COMDAT text$x
text$x	SEGMENT
__unwindfunclet$?AddCampusMember@CCampusDBCtrl@@AAEXAAVCAr@@@Z$0:
  00000	6a 08		 push	 8
  00002	8b 45 08	 mov	 eax, DWORD PTR $T4[ebp]
  00005	50		 push	 eax
  00006	e8 00 00 00 00	 call	 ??3@YAXPAXI@Z		; operator delete
  0000b	83 c4 08	 add	 esp, 8
  0000e	c3		 ret	 0
__unwindfunclet$?AddCampusMember@CCampusDBCtrl@@AAEXAAVCAr@@@Z$1:
  0000f	6a 10		 push	 16			; 00000010H
  00011	8b 45 08	 mov	 eax, DWORD PTR $T5[ebp]
  00014	50		 push	 eax
  00015	e8 00 00 00 00	 call	 ??3@YAXPAXI@Z		; operator delete
  0001a	83 c4 08	 add	 esp, 8
  0001d	c3		 ret	 0
__unwindfunclet$?AddCampusMember@CCampusDBCtrl@@AAEXAAVCAr@@@Z$2:
  0001e	6a 08		 push	 8
  00020	8b 45 08	 mov	 eax, DWORD PTR $T6[ebp]
  00023	50		 push	 eax
  00024	e8 00 00 00 00	 call	 ??3@YAXPAXI@Z		; operator delete
  00029	83 c4 08	 add	 esp, 8
  0002c	c3		 ret	 0
__unwindfunclet$?AddCampusMember@CCampusDBCtrl@@AAEXAAVCAr@@@Z$3:
  0002d	6a 08		 push	 8
  0002f	8b 45 e0	 mov	 eax, DWORD PTR $T2[ebp]
  00032	50		 push	 eax
  00033	e8 00 00 00 00	 call	 ??3@YAXPAXI@Z		; operator delete
  00038	83 c4 08	 add	 esp, 8
  0003b	c3		 ret	 0
  0003c	cc		 int	 3
  0003d	cc		 int	 3
  0003e	cc		 int	 3
  0003f	cc		 int	 3
  00040	cc		 int	 3
__ehhandler$?AddCampusMember@CCampusDBCtrl@@AAEXAAVCAr@@@Z:
  00041	90		 npad	 1
  00042	90		 npad	 1
  00043	8b 54 24 08	 mov	 edx, DWORD PTR [esp+8]
  00047	8d 42 0c	 lea	 eax, DWORD PTR [edx+12]
  0004a	8b 4a dc	 mov	 ecx, DWORD PTR [edx-36]
  0004d	33 c8		 xor	 ecx, eax
  0004f	e8 00 00 00 00	 call	 @__security_check_cookie@4
  00054	b8 00 00 00 00	 mov	 eax, OFFSET __ehfuncinfo$?AddCampusMember@CCampusDBCtrl@@AAEXAAVCAr@@@Z
  00059	e9 00 00 00 00	 jmp	 ___CxxFrameHandler3
text$x	ENDS
?AddCampusMember@CCampusDBCtrl@@AAEXAAVCAr@@@Z ENDP	; CCampusDBCtrl::AddCampusMember
; Function compile flags: /Ogtp
; File C:\IAGOS\server\v18\Source\Source\DatabaseServer\CampusDBCtrl.cpp
;	COMDAT ?CreateLogQuery@CCampusDBCtrl@@AAEXXZ
_TEXT	SEGMENT
$T2 = -16						; size = 4
__$EHRec$ = -12						; size = 12
?CreateLogQuery@CCampusDBCtrl@@AAEXXZ PROC		; CCampusDBCtrl::CreateLogQuery, COMDAT
; _this$ = ecx

; 59   : {

  00000	55		 push	 ebp
  00001	8b ec		 mov	 ebp, esp
  00003	6a ff		 push	 -1
  00005	68 00 00 00 00	 push	 __ehhandler$?CreateLogQuery@CCampusDBCtrl@@AAEXXZ
  0000a	64 a1 00 00 00
	00		 mov	 eax, DWORD PTR fs:0
  00010	50		 push	 eax
  00011	51		 push	 ecx
  00012	56		 push	 esi
  00013	57		 push	 edi
  00014	a1 00 00 00 00	 mov	 eax, DWORD PTR ___security_cookie
  00019	33 c5		 xor	 eax, ebp
  0001b	50		 push	 eax
  0001c	8d 45 f4	 lea	 eax, DWORD PTR __$EHRec$[ebp]
  0001f	64 a3 00 00 00
	00		 mov	 DWORD PTR fs:0, eax
  00025	8b f9		 mov	 edi, ecx

; 60   : 	m_pLogQuery = new CQuery;

  00027	68 10 3d 00 00	 push	 15632			; 00003d10H
  0002c	e8 00 00 00 00	 call	 ??2@YAPAXI@Z		; operator new
  00031	83 c4 04	 add	 esp, 4
  00034	89 45 f0	 mov	 DWORD PTR $T2[ebp], eax
  00037	c7 45 fc 00 00
	00 00		 mov	 DWORD PTR __$EHRec$[ebp+8], 0
  0003e	85 c0		 test	 eax, eax
  00040	74 09		 je	 SHORT $LN5@CreateLogQ
  00042	8b c8		 mov	 ecx, eax
  00044	e8 00 00 00 00	 call	 ??0CQuery@@QAE@XZ	; CQuery::CQuery
  00049	eb 02		 jmp	 SHORT $LN6@CreateLogQ
$LN5@CreateLogQ:
  0004b	33 c0		 xor	 eax, eax
$LN6@CreateLogQ:
  0004d	c7 45 fc ff ff
	ff ff		 mov	 DWORD PTR __$EHRec$[ebp+8], -1
  00054	89 47 14	 mov	 DWORD PTR [edi+20], eax

; 61   : 
; 62   : 	const char* pass	= CDbManager::GetInstance().DB_ADMIN_PASS_LOG;

  00057	e8 00 00 00 00	 call	 ?GetInstance@CDbManager@@SAAAV1@XZ ; CDbManager::GetInstance

; 63   : 	if( FALSE == m_pLogQuery->Connect( 3, DSN_NAME_LOG, DB_ADMIN_ID_LOG, pass ) )

  0005c	8b 4f 14	 mov	 ecx, DWORD PTR [edi+20]
  0005f	05 98 03 00 00	 add	 eax, 920		; 00000398H
  00064	50		 push	 eax
  00065	68 00 00 00 00	 push	 OFFSET ?DB_ADMIN_ID_LOG@@3PADA ; DB_ADMIN_ID_LOG
  0006a	68 00 00 00 00	 push	 OFFSET ?DSN_NAME_LOG@@3PADA ; DSN_NAME_LOG
  0006f	6a 03		 push	 3
  00071	e8 00 00 00 00	 call	 ?Connect@CQuery@@QAEHHPAD0PBD@Z ; CQuery::Connect
  00076	85 c0		 test	 eax, eax
  00078	75 2f		 jne	 SHORT $LN3@CreateLogQ

; 64   : 	{
; 65   : 		::AfxMessageBox( "Can't connect db: CCampusDBCtrl.CreateLogQuery" );

  0007a	50		 push	 eax
  0007b	50		 push	 eax
  0007c	68 00 00 00 00	 push	 OFFSET ??_C@_0CP@EFPIHLLF@Can?8t?5connect?5db?3?5CCampusDBCtrl@
  00081	e8 00 00 00 00	 call	 ?AfxMessageBox@@YGHPBDII@Z ; AfxMessageBox

; 66   : 		SAFE_DELETE( m_pLogQuery );

  00086	8b 77 14	 mov	 esi, DWORD PTR [edi+20]
  00089	85 f6		 test	 esi, esi
  0008b	74 1c		 je	 SHORT $LN3@CreateLogQ
  0008d	8b ce		 mov	 ecx, esi
  0008f	e8 00 00 00 00	 call	 ??1CQuery@@QAE@XZ	; CQuery::~CQuery
  00094	68 10 3d 00 00	 push	 15632			; 00003d10H
  00099	56		 push	 esi
  0009a	e8 00 00 00 00	 call	 ??3@YAXPAXI@Z		; operator delete
  0009f	83 c4 08	 add	 esp, 8
  000a2	c7 47 14 00 00
	00 00		 mov	 DWORD PTR [edi+20], 0
$LN3@CreateLogQ:

; 67   : 		ASSERT( 0 );
; 68   : 	}
; 69   : }

  000a9	8b 4d f4	 mov	 ecx, DWORD PTR __$EHRec$[ebp]
  000ac	64 89 0d 00 00
	00 00		 mov	 DWORD PTR fs:0, ecx
  000b3	59		 pop	 ecx
  000b4	5f		 pop	 edi
  000b5	5e		 pop	 esi
  000b6	8b e5		 mov	 esp, ebp
  000b8	5d		 pop	 ebp
  000b9	c3		 ret	 0
_TEXT	ENDS
;	COMDAT text$x
text$x	SEGMENT
__unwindfunclet$?CreateLogQuery@CCampusDBCtrl@@AAEXXZ$0:
  00000	68 10 3d 00 00	 push	 15632			; 00003d10H
  00005	8b 45 f0	 mov	 eax, DWORD PTR $T2[ebp]
  00008	50		 push	 eax
  00009	e8 00 00 00 00	 call	 ??3@YAXPAXI@Z		; operator delete
  0000e	83 c4 08	 add	 esp, 8
  00011	c3		 ret	 0
  00012	cc		 int	 3
  00013	cc		 int	 3
  00014	cc		 int	 3
  00015	cc		 int	 3
  00016	cc		 int	 3
__ehhandler$?CreateLogQuery@CCampusDBCtrl@@AAEXXZ:
  00017	90		 npad	 1
  00018	90		 npad	 1
  00019	8b 54 24 08	 mov	 edx, DWORD PTR [esp+8]
  0001d	8d 42 0c	 lea	 eax, DWORD PTR [edx+12]
  00020	8b 4a f0	 mov	 ecx, DWORD PTR [edx-16]
  00023	33 c8		 xor	 ecx, eax
  00025	e8 00 00 00 00	 call	 @__security_check_cookie@4
  0002a	b8 00 00 00 00	 mov	 eax, OFFSET __ehfuncinfo$?CreateLogQuery@CCampusDBCtrl@@AAEXXZ
  0002f	e9 00 00 00 00	 jmp	 ___CxxFrameHandler3
text$x	ENDS
?CreateLogQuery@CCampusDBCtrl@@AAEXXZ ENDP		; CCampusDBCtrl::CreateLogQuery
; Function compile flags: /Ogtp
; File C:\IAGOS\server\v18\Source\Source\DatabaseServer\CampusDBCtrl.cpp
;	COMDAT ?Handler@CCampusDBCtrl@@UAEXPAUtagDB_OVERLAPPED_PLUS@@K@Z
_TEXT	SEGMENT
_ar$ = -16420						; size = 16404
__$ArrayPad$ = -16					; size = 4
__$EHRec$ = -12						; size = 12
_pov$ = 8						; size = 4
_dwCompletionKey$ = 12					; size = 4
?Handler@CCampusDBCtrl@@UAEXPAUtagDB_OVERLAPPED_PLUS@@K@Z PROC ; CCampusDBCtrl::Handler, COMDAT
; _this$ = ecx

; 30   : {

  00000	55		 push	 ebp
  00001	8b ec		 mov	 ebp, esp
  00003	6a ff		 push	 -1
  00005	68 00 00 00 00	 push	 __ehhandler$?Handler@CCampusDBCtrl@@UAEXPAUtagDB_OVERLAPPED_PLUS@@K@Z
  0000a	64 a1 00 00 00
	00		 mov	 eax, DWORD PTR fs:0
  00010	50		 push	 eax
  00011	b8 18 40 00 00	 mov	 eax, 16408		; 00004018H
  00016	e8 00 00 00 00	 call	 __chkstk
  0001b	a1 00 00 00 00	 mov	 eax, DWORD PTR ___security_cookie
  00020	33 c5		 xor	 eax, ebp
  00022	89 45 f0	 mov	 DWORD PTR __$ArrayPad$[ebp], eax
  00025	56		 push	 esi
  00026	57		 push	 edi
  00027	50		 push	 eax
  00028	8d 45 f4	 lea	 eax, DWORD PTR __$EHRec$[ebp]
  0002b	64 a3 00 00 00
	00		 mov	 DWORD PTR fs:0, eax
  00031	8b f9		 mov	 edi, ecx
  00033	8b 75 08	 mov	 esi, DWORD PTR _pov$[ebp]

; 31   : 	CAr ar( pov->lpBuf, pov->uBufSize );

  00036	8d 8d dc bf ff
	ff		 lea	 ecx, DWORD PTR _ar$[ebp]
  0003c	ff 76 1c	 push	 DWORD PTR [esi+28]
  0003f	ff 76 18	 push	 DWORD PTR [esi+24]
  00042	e8 00 00 00 00	 call	 ??0CAr@@QAE@PAXI@Z	; CAr::CAr

; 32   : 	
; 33   : 	switch( pov->nQueryMode )

  00047	8b 46 14	 mov	 eax, DWORD PTR [esi+20]
  0004a	c7 45 fc 00 00
	00 00		 mov	 DWORD PTR __$EHRec$[ebp+8], 0
  00051	83 f8 04	 cmp	 eax, 4
  00054	77 51		 ja	 SHORT $LN2@Handler
  00056	ff 24 85 00 00
	00 00		 jmp	 DWORD PTR $LN11@Handler[eax*4]
$LN4@Handler:

; 34   : 	{
; 35   : 	case CAMPUS_LOAD:
; 36   : 		CreateLogQuery();

  0005d	8b cf		 mov	 ecx, edi
  0005f	e8 00 00 00 00	 call	 ?CreateLogQuery@CCampusDBCtrl@@AAEXXZ ; CCampusDBCtrl::CreateLogQuery

; 37   : 		LoadAllCampus();

  00064	8b cf		 mov	 ecx, edi
  00066	e8 00 00 00 00	 call	 ?LoadAllCampus@CCampusDBCtrl@@AAEXXZ ; CCampusDBCtrl::LoadAllCampus

; 38   : 		break;

  0006b	eb 3a		 jmp	 SHORT $LN2@Handler
$LN5@Handler:

; 39   : 
; 40   : 	case CAMPUS_SEND:
; 41   : 		SendAllCampus( dwCompletionKey );

  0006d	ff 75 0c	 push	 DWORD PTR _dwCompletionKey$[ebp]
  00070	8b cf		 mov	 ecx, edi
  00072	e8 00 00 00 00	 call	 ?SendAllCampus@CCampusDBCtrl@@AAEXK@Z ; CCampusDBCtrl::SendAllCampus

; 42   : 		break;

  00077	eb 2e		 jmp	 SHORT $LN2@Handler
$LN6@Handler:

; 43   : 
; 44   : 	case CAMPUS_ADD_MEMBER:
; 45   : 		AddCampusMember( ar );

  00079	8d 85 dc bf ff
	ff		 lea	 eax, DWORD PTR _ar$[ebp]
  0007f	8b cf		 mov	 ecx, edi
  00081	50		 push	 eax
  00082	e8 00 00 00 00	 call	 ?AddCampusMember@CCampusDBCtrl@@AAEXAAVCAr@@@Z ; CCampusDBCtrl::AddCampusMember

; 46   : 		break;

  00087	eb 1e		 jmp	 SHORT $LN2@Handler
$LN7@Handler:

; 47   : 
; 48   : 	case CAMPUS_REMOVE_MEMBER:
; 49   : 		RemoveCampusMember( ar );

  00089	8d 85 dc bf ff
	ff		 lea	 eax, DWORD PTR _ar$[ebp]
  0008f	8b cf		 mov	 ecx, edi
  00091	50		 push	 eax
  00092	e8 00 00 00 00	 call	 ?RemoveCampusMember@CCampusDBCtrl@@AAEXAAVCAr@@@Z ; CCampusDBCtrl::RemoveCampusMember

; 50   : 		break;

  00097	eb 0e		 jmp	 SHORT $LN2@Handler
$LN8@Handler:

; 51   : 
; 52   : 	case CAMPUS_UPDATE_POINT:
; 53   : 		UpdateCampusPoint( ar );

  00099	8d 85 dc bf ff
	ff		 lea	 eax, DWORD PTR _ar$[ebp]
  0009f	8b cf		 mov	 ecx, edi
  000a1	50		 push	 eax
  000a2	e8 00 00 00 00	 call	 ?UpdateCampusPoint@CCampusDBCtrl@@AAEXAAVCAr@@@Z ; CCampusDBCtrl::UpdateCampusPoint
$LN2@Handler:

; 54   : 		break;
; 55   : 	}
; 56   : }

  000a7	8d 8d dc bf ff
	ff		 lea	 ecx, DWORD PTR _ar$[ebp]
  000ad	e8 00 00 00 00	 call	 ??1CAr@@QAE@XZ		; CAr::~CAr
  000b2	8b 4d f4	 mov	 ecx, DWORD PTR __$EHRec$[ebp]
  000b5	64 89 0d 00 00
	00 00		 mov	 DWORD PTR fs:0, ecx
  000bc	59		 pop	 ecx
  000bd	5f		 pop	 edi
  000be	5e		 pop	 esi
  000bf	8b 4d f0	 mov	 ecx, DWORD PTR __$ArrayPad$[ebp]
  000c2	33 cd		 xor	 ecx, ebp
  000c4	e8 00 00 00 00	 call	 @__security_check_cookie@4
  000c9	8b e5		 mov	 esp, ebp
  000cb	5d		 pop	 ebp
  000cc	c2 08 00	 ret	 8
  000cf	90		 npad	 1
$LN11@Handler:
  000d0	00 00 00 00	 DD	 $LN4@Handler
  000d4	00 00 00 00	 DD	 $LN5@Handler
  000d8	00 00 00 00	 DD	 $LN6@Handler
  000dc	00 00 00 00	 DD	 $LN7@Handler
  000e0	00 00 00 00	 DD	 $LN8@Handler
_TEXT	ENDS
;	COMDAT text$x
text$x	SEGMENT
__unwindfunclet$?Handler@CCampusDBCtrl@@UAEXPAUtagDB_OVERLAPPED_PLUS@@K@Z$0:
  00000	8d 8d dc bf ff
	ff		 lea	 ecx, DWORD PTR _ar$[ebp]
  00006	e9 00 00 00 00	 jmp	 ??1CAr@@QAE@XZ		; CAr::~CAr
  0000b	cc		 int	 3
  0000c	cc		 int	 3
  0000d	cc		 int	 3
  0000e	cc		 int	 3
  0000f	cc		 int	 3
__ehhandler$?Handler@CCampusDBCtrl@@UAEXPAUtagDB_OVERLAPPED_PLUS@@K@Z:
  00010	90		 npad	 1
  00011	90		 npad	 1
  00012	8b 54 24 08	 mov	 edx, DWORD PTR [esp+8]
  00016	8d 42 0c	 lea	 eax, DWORD PTR [edx+12]
  00019	8b 8a dc bf ff
	ff		 mov	 ecx, DWORD PTR [edx-16420]
  0001f	33 c8		 xor	 ecx, eax
  00021	e8 00 00 00 00	 call	 @__security_check_cookie@4
  00026	8b 4a fc	 mov	 ecx, DWORD PTR [edx-4]
  00029	33 c8		 xor	 ecx, eax
  0002b	e8 00 00 00 00	 call	 @__security_check_cookie@4
  00030	b8 00 00 00 00	 mov	 eax, OFFSET __ehfuncinfo$?Handler@CCampusDBCtrl@@UAEXPAUtagDB_OVERLAPPED_PLUS@@K@Z
  00035	e9 00 00 00 00	 jmp	 ___CxxFrameHandler3
text$x	ENDS
?Handler@CCampusDBCtrl@@UAEXPAUtagDB_OVERLAPPED_PLUS@@K@Z ENDP ; CCampusDBCtrl::Handler
; Function compile flags: /Ogtp
; File C:\IAGOS\server\v18\Source\Source\DatabaseServer\CampusDBCtrl.cpp
;	COMDAT ??1CCampusDBCtrl@@UAE@XZ
_TEXT	SEGMENT
??1CCampusDBCtrl@@UAE@XZ PROC				; CCampusDBCtrl::~CCampusDBCtrl, COMDAT
; _this$ = ecx

; 25   : {

  00000	56		 push	 esi
  00001	8b f1		 mov	 esi, ecx
  00003	57		 push	 edi

; 26   : 	SAFE_DELETE( m_pLogQuery );

  00004	8b 7e 14	 mov	 edi, DWORD PTR [esi+20]
  00007	c7 06 00 00 00
	00		 mov	 DWORD PTR [esi], OFFSET ??_7CCampusDBCtrl@@6B@
  0000d	85 ff		 test	 edi, edi
  0000f	74 1c		 je	 SHORT $LN2@CCampusDBC
  00011	8b cf		 mov	 ecx, edi
  00013	e8 00 00 00 00	 call	 ??1CQuery@@QAE@XZ	; CQuery::~CQuery
  00018	68 10 3d 00 00	 push	 15632			; 00003d10H
  0001d	57		 push	 edi
  0001e	e8 00 00 00 00	 call	 ??3@YAXPAXI@Z		; operator delete
  00023	83 c4 08	 add	 esp, 8
  00026	c7 46 14 00 00
	00 00		 mov	 DWORD PTR [esi+20], 0
$LN2@CCampusDBC:

; 27   : }

  0002d	5f		 pop	 edi
  0002e	8b ce		 mov	 ecx, esi
  00030	5e		 pop	 esi
  00031	e9 00 00 00 00	 jmp	 ??1CDbController@@UAE@XZ ; CDbController::~CDbController
??1CCampusDBCtrl@@UAE@XZ ENDP				; CCampusDBCtrl::~CCampusDBCtrl
_TEXT	ENDS
; Function compile flags: /Ogtp
; File C:\IAGOS\server\v18\Source\Source\DatabaseServer\CampusDBCtrl.cpp
;	COMDAT ??0CCampusDBCtrl@@QAE@XZ
_TEXT	SEGMENT
_this$ = -4						; size = 4
??0CCampusDBCtrl@@QAE@XZ PROC				; CCampusDBCtrl::CCampusDBCtrl, COMDAT
; _this$ = ecx

; 20   : {

  00000	55		 push	 ebp
  00001	8b ec		 mov	 ebp, esp
  00003	51		 push	 ecx
  00004	56		 push	 esi
  00005	8b f1		 mov	 esi, ecx
  00007	89 75 fc	 mov	 DWORD PTR _this$[ebp], esi
  0000a	e8 00 00 00 00	 call	 ??0CDbController@@QAE@XZ ; CDbController::CDbController
  0000f	c7 06 00 00 00
	00		 mov	 DWORD PTR [esi], OFFSET ??_7CCampusDBCtrl@@6B@

; 21   : 
; 22   : }

  00015	8b c6		 mov	 eax, esi
  00017	c7 46 14 00 00
	00 00		 mov	 DWORD PTR [esi+20], 0
  0001e	5e		 pop	 esi
  0001f	8b e5		 mov	 esp, ebp
  00021	5d		 pop	 ebp
  00022	c3		 ret	 0
??0CCampusDBCtrl@@QAE@XZ ENDP				; CCampusDBCtrl::CCampusDBCtrl
_TEXT	ENDS
; Function compile flags: /Ogtp
; File C:\Program Files\Microsoft Visual Studio\2022\Professional\VC\Tools\MSVC\14.44.35207\include\xtree
;	COMDAT ??E?$_Tree_unchecked_const_iterator@V?$_Tree_val@U?$_Tree_simple_types@U?$pair@$$CBKK@std@@@std@@@std@@U_Iterator_base0@2@@std@@QAEAAV01@XZ
_TEXT	SEGMENT
??E?$_Tree_unchecked_const_iterator@V?$_Tree_val@U?$_Tree_simple_types@U?$pair@$$CBKK@std@@@std@@@std@@U_Iterator_base0@2@@std@@QAEAAV01@XZ PROC ; std::_Tree_unchecked_const_iterator<std::_Tree_val<std::_Tree_simple_types<std::pair<unsigned long const ,unsigned long> > >,std::_Iterator_base0>::operator++, COMDAT
; _this$ = ecx

; 49   :     _Tree_unchecked_const_iterator& operator++() noexcept {

  00000	56		 push	 esi
  00001	8b f1		 mov	 esi, ecx
  00003	57		 push	 edi

; 50   :         if (_Ptr->_Right->_Isnil) { // climb looking for right subtree

  00004	8b 16		 mov	 edx, DWORD PTR [esi]
  00006	8b 7a 08	 mov	 edi, DWORD PTR [edx+8]
  00009	80 7f 0d 00	 cmp	 BYTE PTR [edi+13], 0
  0000d	74 22		 je	 SHORT $LN4@operator

; 51   :             _Nodeptr _Pnode;
; 52   :             while (!(_Pnode = _Ptr->_Parent)->_Isnil && _Ptr == _Pnode->_Right) {

  0000f	8b 42 04	 mov	 eax, DWORD PTR [edx+4]
  00012	80 78 0d 00	 cmp	 BYTE PTR [eax+13], 0
  00016	75 12		 jne	 SHORT $LN21@operator
$LL2@operator:
  00018	3b 50 08	 cmp	 edx, DWORD PTR [eax+8]
  0001b	75 0d		 jne	 SHORT $LN21@operator

; 53   :                 _Ptr = _Pnode; // ==> parent while right subtree

  0001d	89 06		 mov	 DWORD PTR [esi], eax
  0001f	8b d0		 mov	 edx, eax
  00021	8b 40 04	 mov	 eax, DWORD PTR [eax+4]
  00024	80 78 0d 00	 cmp	 BYTE PTR [eax+13], 0
  00028	74 ee		 je	 SHORT $LL2@operator
$LN21@operator:

; 54   :             }
; 55   : 
; 56   :             _Ptr = _Pnode; // ==> parent (head if end())
; 57   :         } else {
; 58   :             _Ptr = _Mytree::_Min(_Ptr->_Right); // ==> smallest of right subtree
; 59   :         }
; 60   : 
; 61   :         return *this;

  0002a	89 06		 mov	 DWORD PTR [esi], eax

; 62   :     }

  0002c	8b c6		 mov	 eax, esi
  0002e	5f		 pop	 edi
  0002f	5e		 pop	 esi
  00030	c3		 ret	 0
$LN4@operator:

; 476  :         while (!_Pnode->_Left->_Isnil) {

  00031	8b 0f		 mov	 ecx, DWORD PTR [edi]
  00033	80 79 0d 00	 cmp	 BYTE PTR [ecx+13], 0
  00037	75 13		 jne	 SHORT $LN10@operator
  00039	0f 1f 80 00 00
	00 00		 npad	 7
$LL9@operator:
  00040	8b 01		 mov	 eax, DWORD PTR [ecx]

; 477  :             _Pnode = _Pnode->_Left;

  00042	8b f9		 mov	 edi, ecx
  00044	8b c8		 mov	 ecx, eax
  00046	80 78 0d 00	 cmp	 BYTE PTR [eax+13], 0
  0004a	74 f4		 je	 SHORT $LL9@operator
$LN10@operator:

; 54   :             }
; 55   : 
; 56   :             _Ptr = _Pnode; // ==> parent (head if end())
; 57   :         } else {
; 58   :             _Ptr = _Mytree::_Min(_Ptr->_Right); // ==> smallest of right subtree
; 59   :         }
; 60   : 
; 61   :         return *this;

  0004c	89 3e		 mov	 DWORD PTR [esi], edi

; 62   :     }

  0004e	8b c6		 mov	 eax, esi
  00050	5f		 pop	 edi
  00051	5e		 pop	 esi
  00052	c3		 ret	 0
??E?$_Tree_unchecked_const_iterator@V?$_Tree_val@U?$_Tree_simple_types@U?$pair@$$CBKK@std@@@std@@@std@@U_Iterator_base0@2@@std@@QAEAAV01@XZ ENDP ; std::_Tree_unchecked_const_iterator<std::_Tree_val<std::_Tree_simple_types<std::pair<unsigned long const ,unsigned long> > >,std::_Iterator_base0>::operator++
_TEXT	ENDS
; Function compile flags: /Ogtp
; File C:\Program Files\Microsoft Visual Studio\2022\Professional\VC\Tools\MSVC\14.44.35207\include\xtree
; File C:\Program Files\Microsoft Visual Studio\2022\Professional\VC\Tools\MSVC\14.44.35207\include\utility
; File C:\Program Files\Microsoft Visual Studio\2022\Professional\VC\Tools\MSVC\14.44.35207\include\xtree
;	COMDAT ?_Extract@?$_Tree_val@U?$_Tree_simple_types@U?$pair@$$CBKK@std@@@std@@@std@@QAEPAU?$_Tree_node@U?$pair@$$CBKK@std@@PAX@2@V?$_Tree_unchecked_const_iterator@V?$_Tree_val@U?$_Tree_simple_types@U?$pair@$$CBKK@std@@@std@@@std@@U_Iterator_base0@2@@2@@Z
_TEXT	SEGMENT
tv1039 = -16						; size = 4
tv1073 = -12						; size = 4
tv1093 = -12						; size = 4
$T1 = -12						; size = 4
__Erasednode$1$ = -8					; size = 4
_this$1$ = -4						; size = 4
__Where$ = 8						; size = 4
?_Extract@?$_Tree_val@U?$_Tree_simple_types@U?$pair@$$CBKK@std@@@std@@@std@@QAEPAU?$_Tree_node@U?$pair@$$CBKK@std@@PAX@2@V?$_Tree_unchecked_const_iterator@V?$_Tree_val@U?$_Tree_simple_types@U?$pair@$$CBKK@std@@@std@@@std@@U_Iterator_base0@2@@2@@Z PROC ; std::_Tree_val<std::_Tree_simple_types<std::pair<unsigned long const ,unsigned long> > >::_Extract, COMDAT
; _this$ = ecx

; 527  :     _Nodeptr _Extract(_Unchecked_const_iterator _Where) noexcept {

  00000	55		 push	 ebp
  00001	8b ec		 mov	 ebp, esp
  00003	83 ec 10	 sub	 esp, 16			; 00000010H

; 528  :         _Nodeptr _Erasednode = _Where._Ptr; // node to erase

  00006	8b 45 08	 mov	 eax, DWORD PTR __Where$[ebp]
  00009	53		 push	 ebx
  0000a	56		 push	 esi
  0000b	8b d9		 mov	 ebx, ecx
  0000d	89 45 f8	 mov	 DWORD PTR __Erasednode$1$[ebp], eax
  00010	57		 push	 edi

; 529  :         ++_Where; // save successor iterator for return

  00011	8d 4d 08	 lea	 ecx, DWORD PTR __Where$[ebp]
  00014	89 5d fc	 mov	 DWORD PTR _this$1$[ebp], ebx
  00017	e8 00 00 00 00	 call	 ??E?$_Tree_unchecked_const_iterator@V?$_Tree_val@U?$_Tree_simple_types@U?$pair@$$CBKK@std@@@std@@@std@@U_Iterator_base0@2@@std@@QAEAAV01@XZ ; std::_Tree_unchecked_const_iterator<std::_Tree_val<std::_Tree_simple_types<std::pair<unsigned long const ,unsigned long> > >,std::_Iterator_base0>::operator++

; 530  : 
; 531  :         _Nodeptr _Fixnode; // the node to recolor as needed
; 532  :         _Nodeptr _Fixnodeparent; // parent of _Fixnode (which may be nil)
; 533  :         _Nodeptr _Pnode = _Erasednode;
; 534  : 
; 535  :         if (_Pnode->_Left->_Isnil) {

  0001c	8b 4d f8	 mov	 ecx, DWORD PTR __Erasednode$1$[ebp]
  0001f	8b 01		 mov	 eax, DWORD PTR [ecx]
  00021	8b 79 08	 mov	 edi, DWORD PTR [ecx+8]
  00024	80 78 0d 00	 cmp	 BYTE PTR [eax+13], 0
  00028	75 18		 jne	 SHORT $LN94@Extract

; 536  :             _Fixnode = _Pnode->_Right; // stitch up right subtree
; 537  :         } else if (_Pnode->_Right->_Isnil) {

  0002a	80 7f 0d 00	 cmp	 BYTE PTR [edi+13], 0
  0002e	74 04		 je	 SHORT $LN7@Extract

; 538  :             _Fixnode = _Pnode->_Left; // stitch up left subtree

  00030	8b f8		 mov	 edi, eax

; 539  :         } else { // two subtrees, must lift successor node to replace erased

  00032	eb 0e		 jmp	 SHORT $LN94@Extract
$LN7@Extract:

; 540  :             _Pnode   = _Where._Ptr; // _Pnode is successor node

  00034	8b 55 08	 mov	 edx, DWORD PTR __Where$[ebp]

; 541  :             _Fixnode = _Pnode->_Right; // _Fixnode is only subtree

  00037	8b 7a 08	 mov	 edi, DWORD PTR [edx+8]
  0003a	3b d1		 cmp	 edx, ecx

; 542  :         }
; 543  : 
; 544  :         if (_Pnode == _Erasednode) { // at most one subtree, relink it

  0003c	0f 85 91 00 00
	00		 jne	 $LN9@Extract
$LN94@Extract:

; 545  :             _Fixnodeparent = _Erasednode->_Parent;
; 546  :             if (!_Fixnode->_Isnil) {

  00042	80 7f 0d 00	 cmp	 BYTE PTR [edi+13], 0
  00046	8b 71 04	 mov	 esi, DWORD PTR [ecx+4]
  00049	75 03		 jne	 SHORT $LN11@Extract

; 547  :                 _Fixnode->_Parent = _Fixnodeparent; // link up

  0004b	89 77 04	 mov	 DWORD PTR [edi+4], esi
$LN11@Extract:

; 548  :             }
; 549  : 
; 550  :             if (_Myhead->_Parent == _Erasednode) {

  0004e	8b 03		 mov	 eax, DWORD PTR [ebx]
  00050	39 48 04	 cmp	 DWORD PTR [eax+4], ecx
  00053	75 05		 jne	 SHORT $LN12@Extract

; 551  :                 _Myhead->_Parent = _Fixnode; // link down from root

  00055	89 78 04	 mov	 DWORD PTR [eax+4], edi
  00058	eb 0b		 jmp	 SHORT $LN15@Extract
$LN12@Extract:

; 552  :             } else if (_Fixnodeparent->_Left == _Erasednode) {

  0005a	39 0e		 cmp	 DWORD PTR [esi], ecx
  0005c	75 04		 jne	 SHORT $LN14@Extract

; 553  :                 _Fixnodeparent->_Left = _Fixnode; // link down to left

  0005e	89 3e		 mov	 DWORD PTR [esi], edi

; 554  :             } else {

  00060	eb 03		 jmp	 SHORT $LN15@Extract
$LN14@Extract:

; 555  :                 _Fixnodeparent->_Right = _Fixnode; // link down to right

  00062	89 7e 08	 mov	 DWORD PTR [esi+8], edi
$LN15@Extract:

; 556  :             }
; 557  : 
; 558  :             if (_Myhead->_Left == _Erasednode) {

  00065	8b 03		 mov	 eax, DWORD PTR [ebx]
  00067	39 08		 cmp	 DWORD PTR [eax], ecx
  00069	75 28		 jne	 SHORT $LN16@Extract

; 559  :                 _Myhead->_Left = _Fixnode->_Isnil ? _Fixnodeparent // smallest is parent of erased node

  0006b	80 7f 0d 00	 cmp	 BYTE PTR [edi+13], 0
  0006f	74 04		 je	 SHORT $LN42@Extract
  00071	8b d6		 mov	 edx, esi
  00073	eb 1c		 jmp	 SHORT $LN43@Extract
$LN42@Extract:

; 476  :         while (!_Pnode->_Left->_Isnil) {

  00075	8b 0f		 mov	 ecx, DWORD PTR [edi]

; 559  :                 _Myhead->_Left = _Fixnode->_Isnil ? _Fixnodeparent // smallest is parent of erased node

  00077	8b d7		 mov	 edx, edi

; 476  :         while (!_Pnode->_Left->_Isnil) {

  00079	80 79 0d 00	 cmp	 BYTE PTR [ecx+13], 0
  0007d	75 0f		 jne	 SHORT $LN49@Extract
  0007f	90		 npad	 1
$LL48@Extract:
  00080	8b 01		 mov	 eax, DWORD PTR [ecx]

; 477  :             _Pnode = _Pnode->_Left;

  00082	8b d1		 mov	 edx, ecx
  00084	8b c8		 mov	 ecx, eax
  00086	80 78 0d 00	 cmp	 BYTE PTR [eax+13], 0
  0008a	74 f4		 je	 SHORT $LL48@Extract
  0008c	8b 03		 mov	 eax, DWORD PTR [ebx]
$LN49@Extract:
  0008e	8b 4d f8	 mov	 ecx, DWORD PTR __Erasednode$1$[ebp]
$LN43@Extract:

; 559  :                 _Myhead->_Left = _Fixnode->_Isnil ? _Fixnodeparent // smallest is parent of erased node

  00091	89 10		 mov	 DWORD PTR [eax], edx
$LN16@Extract:

; 560  :                                                   : _Min(_Fixnode); // smallest in relinked subtree
; 561  :             }
; 562  : 
; 563  :             if (_Myhead->_Right == _Erasednode) {

  00093	8b 13		 mov	 edx, DWORD PTR [ebx]
  00095	39 4a 08	 cmp	 DWORD PTR [edx+8], ecx
  00098	75 34		 jne	 SHORT $LN17@Extract

; 564  :                 _Myhead->_Right = _Fixnode->_Isnil ? _Fixnodeparent // largest is parent of erased node

  0009a	80 7f 0d 00	 cmp	 BYTE PTR [edi+13], 0
  0009e	74 0d		 je	 SHORT $LN44@Extract

; 565  :                                                    : _Max(_Fixnode); // largest in relinked subtree
; 566  :             }
; 567  :         } else { // erased has two subtrees, _Pnode is successor to erased

  000a0	8b 45 f8	 mov	 eax, DWORD PTR __Erasednode$1$[ebp]
  000a3	8b ce		 mov	 ecx, esi
  000a5	89 4a 08	 mov	 DWORD PTR [edx+8], ecx
  000a8	e9 94 00 00 00	 jmp	 $LN58@Extract
$LN44@Extract:

; 468  :         while (!_Pnode->_Right->_Isnil) {

  000ad	8b 47 08	 mov	 eax, DWORD PTR [edi+8]

; 564  :                 _Myhead->_Right = _Fixnode->_Isnil ? _Fixnodeparent // largest is parent of erased node

  000b0	8b cf		 mov	 ecx, edi

; 468  :         while (!_Pnode->_Right->_Isnil) {

  000b2	80 78 0d 00	 cmp	 BYTE PTR [eax+13], 0
  000b6	75 13		 jne	 SHORT $LN54@Extract
  000b8	0f 1f 84 00 00
	00 00 00	 npad	 8
$LL53@Extract:

; 469  :             _Pnode = _Pnode->_Right;

  000c0	8b c8		 mov	 ecx, eax
  000c2	8b 41 08	 mov	 eax, DWORD PTR [ecx+8]
  000c5	80 78 0d 00	 cmp	 BYTE PTR [eax+13], 0
  000c9	74 f5		 je	 SHORT $LL53@Extract
$LN54@Extract:

; 564  :                 _Myhead->_Right = _Fixnode->_Isnil ? _Fixnodeparent // largest is parent of erased node

  000cb	89 4a 08	 mov	 DWORD PTR [edx+8], ecx
$LN17@Extract:

; 565  :                                                    : _Max(_Fixnode); // largest in relinked subtree
; 566  :             }
; 567  :         } else { // erased has two subtrees, _Pnode is successor to erased

  000ce	8b 45 f8	 mov	 eax, DWORD PTR __Erasednode$1$[ebp]
  000d1	eb 6e		 jmp	 SHORT $LN58@Extract
$LN9@Extract:

; 568  :             _Erasednode->_Left->_Parent = _Pnode; // link left up

  000d3	89 50 04	 mov	 DWORD PTR [eax+4], edx

; 569  :             _Pnode->_Left               = _Erasednode->_Left; // link successor down

  000d6	8b 01		 mov	 eax, DWORD PTR [ecx]
  000d8	89 02		 mov	 DWORD PTR [edx], eax

; 570  : 
; 571  :             if (_Pnode == _Erasednode->_Right) {

  000da	8d 42 04	 lea	 eax, DWORD PTR [edx+4]
  000dd	89 45 f4	 mov	 DWORD PTR $T1[ebp], eax
  000e0	3b 51 08	 cmp	 edx, DWORD PTR [ecx+8]
  000e3	75 04		 jne	 SHORT $LN18@Extract

; 572  :                 _Fixnodeparent = _Pnode; // successor is next to erased

  000e5	8b f2		 mov	 esi, edx

; 573  :             } else { // successor further down, link in place of erased

  000e7	eb 1f		 jmp	 SHORT $LN19@Extract
$LN18@Extract:

; 574  :                 _Fixnodeparent = _Pnode->_Parent; // parent is successor's
; 575  :                 if (!_Fixnode->_Isnil) {

  000e9	80 7f 0d 00	 cmp	 BYTE PTR [edi+13], 0
  000ed	8b 30		 mov	 esi, DWORD PTR [eax]
  000ef	75 03		 jne	 SHORT $LN20@Extract

; 576  :                     _Fixnode->_Parent = _Fixnodeparent; // link fix up

  000f1	89 77 04	 mov	 DWORD PTR [edi+4], esi
$LN20@Extract:

; 577  :                 }
; 578  : 
; 579  :                 _Fixnodeparent->_Left        = _Fixnode; // link fix down

  000f4	89 3e		 mov	 DWORD PTR [esi], edi

; 580  :                 _Pnode->_Right               = _Erasednode->_Right; // link next down

  000f6	8b 41 08	 mov	 eax, DWORD PTR [ecx+8]
  000f9	89 42 08	 mov	 DWORD PTR [edx+8], eax

; 581  :                 _Erasednode->_Right->_Parent = _Pnode; // right up

  000fc	8b 41 08	 mov	 eax, DWORD PTR [ecx+8]
  000ff	89 50 04	 mov	 DWORD PTR [eax+4], edx
  00102	8d 42 04	 lea	 eax, DWORD PTR [edx+4]
  00105	89 45 f4	 mov	 DWORD PTR $T1[ebp], eax
$LN19@Extract:

; 582  :             }
; 583  : 
; 584  :             if (_Myhead->_Parent == _Erasednode) {

  00108	8b 03		 mov	 eax, DWORD PTR [ebx]
  0010a	39 48 04	 cmp	 DWORD PTR [eax+4], ecx
  0010d	75 05		 jne	 SHORT $LN21@Extract

; 585  :                 _Myhead->_Parent = _Pnode; // link down from root

  0010f	89 50 04	 mov	 DWORD PTR [eax+4], edx
  00112	eb 0e		 jmp	 SHORT $LN141@Extract
$LN21@Extract:

; 586  :             } else if (_Erasednode->_Parent->_Left == _Erasednode) {

  00114	8b 41 04	 mov	 eax, DWORD PTR [ecx+4]
  00117	39 08		 cmp	 DWORD PTR [eax], ecx
  00119	75 04		 jne	 SHORT $LN23@Extract

; 587  :                 _Erasednode->_Parent->_Left = _Pnode; // link down to left

  0011b	89 10		 mov	 DWORD PTR [eax], edx

; 588  :             } else {

  0011d	eb 03		 jmp	 SHORT $LN141@Extract
$LN23@Extract:

; 589  :                 _Erasednode->_Parent->_Right = _Pnode; // link down to right

  0011f	89 50 08	 mov	 DWORD PTR [eax+8], edx
$LN141@Extract:

; 590  :             }
; 591  : 
; 592  :             _Pnode->_Parent = _Erasednode->_Parent; // link successor up

  00122	b8 04 00 00 00	 mov	 eax, 4
  00127	8b 04 08	 mov	 eax, DWORD PTR [eax+ecx]
  0012a	8b 4d f4	 mov	 ecx, DWORD PTR $T1[ebp]
  0012d	89 01		 mov	 DWORD PTR [ecx], eax
; File C:\Program Files\Microsoft Visual Studio\2022\Professional\VC\Tools\MSVC\14.44.35207\include\utility

; 140  :     _Left    = _STD move(_Right);

  0012f	8b 45 f8	 mov	 eax, DWORD PTR __Erasednode$1$[ebp]
  00132	8a 4a 0c	 mov	 cl, BYTE PTR [edx+12]
  00135	8a 40 0c	 mov	 al, BYTE PTR [eax+12]
  00138	88 42 0c	 mov	 BYTE PTR [edx+12], al

; 141  :     _Right   = _STD move(_Tmp);

  0013b	8b 45 f8	 mov	 eax, DWORD PTR __Erasednode$1$[ebp]
  0013e	88 48 0c	 mov	 BYTE PTR [eax+12], cl
$LN58@Extract:
; File C:\Program Files\Microsoft Visual Studio\2022\Professional\VC\Tools\MSVC\14.44.35207\include\xtree

; 596  :         if (_Erasednode->_Color == _Black) { // erasing black link, must recolor/rebalance tree

  00141	80 78 0c 01	 cmp	 BYTE PTR [eax+12], 1
  00145	0f 85 ba 01 00
	00		 jne	 $LN25@Extract

; 597  :             for (; _Fixnode != _Myhead->_Parent && _Fixnode->_Color == _Black; _Fixnodeparent = _Fixnode->_Parent) {

  0014b	8b 03		 mov	 eax, DWORD PTR [ebx]
  0014d	3b 78 04	 cmp	 edi, DWORD PTR [eax+4]
  00150	0f 84 a8 01 00
	00		 je	 $LN3@Extract
  00156	80 7f 0c 01	 cmp	 BYTE PTR [edi+12], 1
  0015a	89 75 f4	 mov	 DWORD PTR tv1093[ebp], esi
  0015d	0f 85 9b 01 00
	00		 jne	 $LN3@Extract
$LL4@Extract:

; 598  :                 if (_Fixnode == _Fixnodeparent->_Left) { // fixup left subtree

  00163	8b 0e		 mov	 ecx, DWORD PTR [esi]
  00165	3b f9		 cmp	 edi, ecx
  00167	0f 85 be 00 00
	00		 jne	 $LN26@Extract

; 599  :                     _Pnode = _Fixnodeparent->_Right;

  0016d	8b 4e 08	 mov	 ecx, DWORD PTR [esi+8]

; 600  :                     if (_Pnode->_Color == _Red) { // rotate red up from right subtree

  00170	80 79 0c 00	 cmp	 BYTE PTR [ecx+12], 0
  00174	75 54		 jne	 SHORT $LN95@Extract

; 601  :                         _Pnode->_Color         = _Black;

  00176	c6 41 0c 01	 mov	 BYTE PTR [ecx+12], 1

; 484  :         _Nodeptr _Pnode    = _Wherenode->_Right;

  0017a	8b 4e 08	 mov	 ecx, DWORD PTR [esi+8]

; 602  :                         _Fixnodeparent->_Color = _Red;

  0017d	c6 46 0c 00	 mov	 BYTE PTR [esi+12], 0

; 485  :         _Wherenode->_Right = _Pnode->_Left;

  00181	8b 01		 mov	 eax, DWORD PTR [ecx]
  00183	89 46 08	 mov	 DWORD PTR [esi+8], eax

; 486  : 
; 487  :         if (!_Pnode->_Left->_Isnil) {

  00186	8b 01		 mov	 eax, DWORD PTR [ecx]
  00188	80 78 0d 00	 cmp	 BYTE PTR [eax+13], 0
  0018c	75 03		 jne	 SHORT $LN61@Extract

; 488  :             _Pnode->_Left->_Parent = _Wherenode;

  0018e	89 70 04	 mov	 DWORD PTR [eax+4], esi
$LN61@Extract:

; 489  :         }
; 490  : 
; 491  :         _Pnode->_Parent = _Wherenode->_Parent;

  00191	8b 46 04	 mov	 eax, DWORD PTR [esi+4]
  00194	8d 56 04	 lea	 edx, DWORD PTR [esi+4]
  00197	89 41 04	 mov	 DWORD PTR [ecx+4], eax

; 492  : 
; 493  :         if (_Wherenode == _Myhead->_Parent) {

  0019a	8b 03		 mov	 eax, DWORD PTR [ebx]
  0019c	3b 70 04	 cmp	 esi, DWORD PTR [eax+4]
  0019f	75 0c		 jne	 SHORT $LN62@Extract

; 494  :             _Myhead->_Parent = _Pnode;

  001a1	89 48 04	 mov	 DWORD PTR [eax+4], ecx

; 499  :         }
; 500  : 
; 501  :         _Pnode->_Left       = _Wherenode;

  001a4	89 31		 mov	 DWORD PTR [ecx], esi

; 502  :         _Wherenode->_Parent = _Pnode;

  001a6	89 0a		 mov	 DWORD PTR [edx], ecx

; 603  :                         _Lrotate(_Fixnodeparent);
; 604  :                         _Pnode = _Fixnodeparent->_Right;

  001a8	8b 4e 08	 mov	 ecx, DWORD PTR [esi+8]
  001ab	eb 20		 jmp	 SHORT $LN87@Extract
$LN62@Extract:

; 495  :         } else if (_Wherenode == _Wherenode->_Parent->_Left) {

  001ad	8b 02		 mov	 eax, DWORD PTR [edx]
  001af	3b 30		 cmp	 esi, DWORD PTR [eax]
  001b1	75 0b		 jne	 SHORT $LN64@Extract

; 496  :             _Wherenode->_Parent->_Left = _Pnode;

  001b3	89 08		 mov	 DWORD PTR [eax], ecx

; 499  :         }
; 500  : 
; 501  :         _Pnode->_Left       = _Wherenode;

  001b5	89 31		 mov	 DWORD PTR [ecx], esi

; 502  :         _Wherenode->_Parent = _Pnode;

  001b7	89 0a		 mov	 DWORD PTR [edx], ecx

; 603  :                         _Lrotate(_Fixnodeparent);
; 604  :                         _Pnode = _Fixnodeparent->_Right;

  001b9	8b 4e 08	 mov	 ecx, DWORD PTR [esi+8]
  001bc	eb 0f		 jmp	 SHORT $LN87@Extract
$LN64@Extract:

; 498  :             _Wherenode->_Parent->_Right = _Pnode;

  001be	89 48 08	 mov	 DWORD PTR [eax+8], ecx

; 499  :         }
; 500  : 
; 501  :         _Pnode->_Left       = _Wherenode;

  001c1	89 31		 mov	 DWORD PTR [ecx], esi

; 502  :         _Wherenode->_Parent = _Pnode;

  001c3	89 0a		 mov	 DWORD PTR [edx], ecx

; 603  :                         _Lrotate(_Fixnodeparent);
; 604  :                         _Pnode = _Fixnodeparent->_Right;

  001c5	8b 4e 08	 mov	 ecx, DWORD PTR [esi+8]
  001c8	eb 03		 jmp	 SHORT $LN87@Extract
$LN95@Extract:
  001ca	8d 56 04	 lea	 edx, DWORD PTR [esi+4]
$LN87@Extract:

; 605  :                     }
; 606  : 
; 607  :                     if (_Pnode->_Isnil) {

  001cd	80 79 0d 00	 cmp	 BYTE PTR [ecx+13], 0
  001d1	0f 85 d0 00 00
	00		 jne	 $LN2@Extract

; 608  :                         _Fixnode = _Fixnodeparent; // shouldn't happen
; 609  :                     } else if (_Pnode->_Left->_Color == _Black
; 610  :                                && _Pnode->_Right->_Color == _Black) { // redden right subtree with black children

  001d7	8b 01		 mov	 eax, DWORD PTR [ecx]
  001d9	80 78 0c 01	 cmp	 BYTE PTR [eax+12], 1
  001dd	75 0d		 jne	 SHORT $LN97@Extract
  001df	8b 41 08	 mov	 eax, DWORD PTR [ecx+8]
  001e2	80 78 0c 01	 cmp	 BYTE PTR [eax+12], 1
  001e6	0f 84 b4 00 00
	00		 je	 $LN142@Extract
$LN97@Extract:

; 611  :                         _Pnode->_Color = _Red;
; 612  :                         _Fixnode       = _Fixnodeparent;
; 613  :                     } else { // must rearrange right subtree
; 614  :                         if (_Pnode->_Right->_Color == _Black) { // rotate red up from left sub-subtree

  001ec	8b 41 08	 mov	 eax, DWORD PTR [ecx+8]
  001ef	8b 5d fc	 mov	 ebx, DWORD PTR _this$1$[ebp]
  001f2	80 78 0c 01	 cmp	 BYTE PTR [eax+12], 1
  001f6	75 15		 jne	 SHORT $LN33@Extract

; 615  :                             _Pnode->_Left->_Color = _Black;

  001f8	8b 01		 mov	 eax, DWORD PTR [ecx]

; 616  :                             _Pnode->_Color        = _Red;
; 617  :                             _Rrotate(_Pnode);

  001fa	51		 push	 ecx
  001fb	c6 40 0c 01	 mov	 BYTE PTR [eax+12], 1
  001ff	c6 41 0c 00	 mov	 BYTE PTR [ecx+12], 0
  00203	8b cb		 mov	 ecx, ebx
  00205	e8 00 00 00 00	 call	 ?_Rrotate@?$_Tree_val@U?$_Tree_simple_types@U?$pair@$$CBKK@std@@@std@@@std@@QAEXPAU?$_Tree_node@U?$pair@$$CBKK@std@@PAX@2@@Z ; std::_Tree_val<std::_Tree_simple_types<std::pair<unsigned long const ,unsigned long> > >::_Rrotate

; 618  :                             _Pnode = _Fixnodeparent->_Right;

  0020a	8b 4e 08	 mov	 ecx, DWORD PTR [esi+8]
$LN33@Extract:

; 619  :                         }
; 620  : 
; 621  :                         _Pnode->_Color         = _Fixnodeparent->_Color;

  0020d	8a 46 0c	 mov	 al, BYTE PTR [esi+12]
  00210	88 41 0c	 mov	 BYTE PTR [ecx+12], al

; 622  :                         _Fixnodeparent->_Color = _Black;

  00213	c6 46 0c 01	 mov	 BYTE PTR [esi+12], 1

; 623  :                         _Pnode->_Right->_Color = _Black;

  00217	8b 41 08	 mov	 eax, DWORD PTR [ecx+8]

; 624  :                         _Lrotate(_Fixnodeparent);

  0021a	8b cb		 mov	 ecx, ebx
  0021c	56		 push	 esi
  0021d	c6 40 0c 01	 mov	 BYTE PTR [eax+12], 1
  00221	e8 00 00 00 00	 call	 ?_Lrotate@?$_Tree_val@U?$_Tree_simple_types@U?$pair@$$CBKK@std@@@std@@@std@@QAEXPAU?$_Tree_node@U?$pair@$$CBKK@std@@PAX@2@@Z ; std::_Tree_val<std::_Tree_simple_types<std::pair<unsigned long const ,unsigned long> > >::_Lrotate

; 625  :                         break; // tree now recolored/rebalanced

  00226	e9 d3 00 00 00	 jmp	 $LN3@Extract
$LN26@Extract:

; 626  :                     }
; 627  :                 } else { // fixup right subtree
; 628  :                     _Pnode = _Fixnodeparent->_Left;
; 629  :                     if (_Pnode->_Color == _Red) { // rotate red up from left subtree

  0022b	80 79 0c 00	 cmp	 BYTE PTR [ecx+12], 0
  0022f	75 55		 jne	 SHORT $LN96@Extract

; 630  :                         _Pnode->_Color         = _Black;

  00231	c6 41 0c 01	 mov	 BYTE PTR [ecx+12], 1

; 506  :         _Nodeptr _Pnode   = _Wherenode->_Left;

  00235	8b 0e		 mov	 ecx, DWORD PTR [esi]

; 631  :                         _Fixnodeparent->_Color = _Red;

  00237	c6 46 0c 00	 mov	 BYTE PTR [esi+12], 0

; 507  :         _Wherenode->_Left = _Pnode->_Right;

  0023b	8b 41 08	 mov	 eax, DWORD PTR [ecx+8]
  0023e	89 06		 mov	 DWORD PTR [esi], eax

; 508  : 
; 509  :         if (!_Pnode->_Right->_Isnil) {

  00240	8b 41 08	 mov	 eax, DWORD PTR [ecx+8]
  00243	80 78 0d 00	 cmp	 BYTE PTR [eax+13], 0
  00247	75 03		 jne	 SHORT $LN69@Extract

; 510  :             _Pnode->_Right->_Parent = _Wherenode;

  00249	89 70 04	 mov	 DWORD PTR [eax+4], esi
$LN69@Extract:

; 511  :         }
; 512  : 
; 513  :         _Pnode->_Parent = _Wherenode->_Parent;

  0024c	8b 46 04	 mov	 eax, DWORD PTR [esi+4]
  0024f	8d 56 04	 lea	 edx, DWORD PTR [esi+4]
  00252	89 41 04	 mov	 DWORD PTR [ecx+4], eax

; 514  : 
; 515  :         if (_Wherenode == _Myhead->_Parent) {

  00255	8b 03		 mov	 eax, DWORD PTR [ebx]
  00257	3b 70 04	 cmp	 esi, DWORD PTR [eax+4]
  0025a	75 0c		 jne	 SHORT $LN70@Extract

; 516  :             _Myhead->_Parent = _Pnode;

  0025c	89 48 04	 mov	 DWORD PTR [eax+4], ecx

; 521  :         }
; 522  : 
; 523  :         _Pnode->_Right      = _Wherenode;

  0025f	89 71 08	 mov	 DWORD PTR [ecx+8], esi

; 524  :         _Wherenode->_Parent = _Pnode;

  00262	89 0a		 mov	 DWORD PTR [edx], ecx

; 632  :                         _Rrotate(_Fixnodeparent);
; 633  :                         _Pnode = _Fixnodeparent->_Left;

  00264	8b 0e		 mov	 ecx, DWORD PTR [esi]
  00266	eb 21		 jmp	 SHORT $LN86@Extract
$LN70@Extract:

; 517  :         } else if (_Wherenode == _Wherenode->_Parent->_Right) {

  00268	8b 02		 mov	 eax, DWORD PTR [edx]
  0026a	3b 70 08	 cmp	 esi, DWORD PTR [eax+8]
  0026d	75 0c		 jne	 SHORT $LN72@Extract

; 518  :             _Wherenode->_Parent->_Right = _Pnode;

  0026f	89 48 08	 mov	 DWORD PTR [eax+8], ecx

; 521  :         }
; 522  : 
; 523  :         _Pnode->_Right      = _Wherenode;

  00272	89 71 08	 mov	 DWORD PTR [ecx+8], esi

; 524  :         _Wherenode->_Parent = _Pnode;

  00275	89 0a		 mov	 DWORD PTR [edx], ecx

; 632  :                         _Rrotate(_Fixnodeparent);
; 633  :                         _Pnode = _Fixnodeparent->_Left;

  00277	8b 0e		 mov	 ecx, DWORD PTR [esi]
  00279	eb 0e		 jmp	 SHORT $LN86@Extract
$LN72@Extract:

; 520  :             _Wherenode->_Parent->_Left = _Pnode;

  0027b	89 08		 mov	 DWORD PTR [eax], ecx

; 521  :         }
; 522  : 
; 523  :         _Pnode->_Right      = _Wherenode;

  0027d	89 71 08	 mov	 DWORD PTR [ecx+8], esi

; 524  :         _Wherenode->_Parent = _Pnode;

  00280	89 0a		 mov	 DWORD PTR [edx], ecx

; 632  :                         _Rrotate(_Fixnodeparent);
; 633  :                         _Pnode = _Fixnodeparent->_Left;

  00282	8b 0e		 mov	 ecx, DWORD PTR [esi]
  00284	eb 03		 jmp	 SHORT $LN86@Extract
$LN96@Extract:
  00286	8d 56 04	 lea	 edx, DWORD PTR [esi+4]
$LN86@Extract:

; 634  :                     }
; 635  : 
; 636  :                     if (_Pnode->_Isnil) {

  00289	80 79 0d 00	 cmp	 BYTE PTR [ecx+13], 0
  0028d	75 18		 jne	 SHORT $LN2@Extract

; 637  :                         _Fixnode = _Fixnodeparent; // shouldn't happen
; 638  :                     } else if (_Pnode->_Right->_Color == _Black
; 639  :                                && _Pnode->_Left->_Color == _Black) { // redden left subtree with black children

  0028f	8b 59 08	 mov	 ebx, DWORD PTR [ecx+8]
  00292	80 7b 0c 01	 cmp	 BYTE PTR [ebx+12], 1
  00296	75 2c		 jne	 SHORT $LN98@Extract
  00298	8b 01		 mov	 eax, DWORD PTR [ecx]
  0029a	80 78 0c 01	 cmp	 BYTE PTR [eax+12], 1
  0029e	75 24		 jne	 SHORT $LN98@Extract
$LN142@Extract:

; 597  :             for (; _Fixnode != _Myhead->_Parent && _Fixnode->_Color == _Black; _Fixnodeparent = _Fixnode->_Parent) {

  002a0	8b 5d fc	 mov	 ebx, DWORD PTR _this$1$[ebp]
  002a3	c6 41 0c 00	 mov	 BYTE PTR [ecx+12], 0
$LN2@Extract:
  002a7	8b 03		 mov	 eax, DWORD PTR [ebx]
  002a9	8b 4d f4	 mov	 ecx, DWORD PTR tv1093[ebp]
  002ac	8b f9		 mov	 edi, ecx
  002ae	8b 32		 mov	 esi, DWORD PTR [edx]
  002b0	3b 48 04	 cmp	 ecx, DWORD PTR [eax+4]
  002b3	74 49		 je	 SHORT $LN3@Extract
  002b5	80 7f 0c 01	 cmp	 BYTE PTR [edi+12], 1
  002b9	89 75 f4	 mov	 DWORD PTR tv1093[ebp], esi
  002bc	0f 84 a1 fe ff
	ff		 je	 $LL4@Extract
  002c2	eb 3a		 jmp	 SHORT $LN3@Extract
$LN98@Extract:

; 640  :                         _Pnode->_Color = _Red;
; 641  :                         _Fixnode       = _Fixnodeparent;
; 642  :                     } else { // must rearrange left subtree
; 643  :                         if (_Pnode->_Left->_Color == _Black) { // rotate red up from right sub-subtree

  002c4	8b 01		 mov	 eax, DWORD PTR [ecx]
  002c6	80 78 0c 01	 cmp	 BYTE PTR [eax+12], 1
  002ca	75 17		 jne	 SHORT $LN101@Extract

; 644  :                             _Pnode->_Right->_Color = _Black;

  002cc	c6 43 0c 01	 mov	 BYTE PTR [ebx+12], 1

; 645  :                             _Pnode->_Color         = _Red;
; 646  :                             _Lrotate(_Pnode);

  002d0	8b 5d fc	 mov	 ebx, DWORD PTR _this$1$[ebp]
  002d3	c6 41 0c 00	 mov	 BYTE PTR [ecx+12], 0
  002d7	51		 push	 ecx
  002d8	8b cb		 mov	 ecx, ebx
  002da	e8 00 00 00 00	 call	 ?_Lrotate@?$_Tree_val@U?$_Tree_simple_types@U?$pair@$$CBKK@std@@@std@@@std@@QAEXPAU?$_Tree_node@U?$pair@$$CBKK@std@@PAX@2@@Z ; std::_Tree_val<std::_Tree_simple_types<std::pair<unsigned long const ,unsigned long> > >::_Lrotate

; 647  :                             _Pnode = _Fixnodeparent->_Left;

  002df	8b 0e		 mov	 ecx, DWORD PTR [esi]
  002e1	eb 03		 jmp	 SHORT $LN39@Extract
$LN101@Extract:

; 640  :                         _Pnode->_Color = _Red;
; 641  :                         _Fixnode       = _Fixnodeparent;
; 642  :                     } else { // must rearrange left subtree
; 643  :                         if (_Pnode->_Left->_Color == _Black) { // rotate red up from right sub-subtree

  002e3	8b 5d fc	 mov	 ebx, DWORD PTR _this$1$[ebp]
$LN39@Extract:

; 648  :                         }
; 649  : 
; 650  :                         _Pnode->_Color         = _Fixnodeparent->_Color;

  002e6	8a 46 0c	 mov	 al, BYTE PTR [esi+12]
  002e9	88 41 0c	 mov	 BYTE PTR [ecx+12], al

; 651  :                         _Fixnodeparent->_Color = _Black;

  002ec	c6 46 0c 01	 mov	 BYTE PTR [esi+12], 1

; 652  :                         _Pnode->_Left->_Color  = _Black;

  002f0	8b 01		 mov	 eax, DWORD PTR [ecx]

; 653  :                         _Rrotate(_Fixnodeparent);

  002f2	8b cb		 mov	 ecx, ebx
  002f4	56		 push	 esi
  002f5	c6 40 0c 01	 mov	 BYTE PTR [eax+12], 1
  002f9	e8 00 00 00 00	 call	 ?_Rrotate@?$_Tree_val@U?$_Tree_simple_types@U?$pair@$$CBKK@std@@@std@@@std@@QAEXPAU?$_Tree_node@U?$pair@$$CBKK@std@@PAX@2@@Z ; std::_Tree_val<std::_Tree_simple_types<std::pair<unsigned long const ,unsigned long> > >::_Rrotate
$LN3@Extract:

; 654  :                         break; // tree now recolored/rebalanced
; 655  :                     }
; 656  :                 }
; 657  :             }
; 658  : 
; 659  :             _Fixnode->_Color = _Black; // stopping node is black

  002fe	8b 45 f8	 mov	 eax, DWORD PTR __Erasednode$1$[ebp]
  00301	c6 47 0c 01	 mov	 BYTE PTR [edi+12], 1
$LN25@Extract:

; 660  :         }
; 661  : 
; 662  :         if (0 < _Mysize) {

  00305	8b 4b 04	 mov	 ecx, DWORD PTR [ebx+4]
  00308	85 c9		 test	 ecx, ecx
  0030a	74 04		 je	 SHORT $LN40@Extract

; 663  :             --_Mysize;

  0030c	49		 dec	 ecx
  0030d	89 4b 04	 mov	 DWORD PTR [ebx+4], ecx
$LN40@Extract:

; 664  :         }
; 665  : 
; 666  :         return _Erasednode;
; 667  :     }

  00310	5f		 pop	 edi
  00311	5e		 pop	 esi
  00312	5b		 pop	 ebx
  00313	8b e5		 mov	 esp, ebp
  00315	5d		 pop	 ebp
  00316	c2 04 00	 ret	 4
?_Extract@?$_Tree_val@U?$_Tree_simple_types@U?$pair@$$CBKK@std@@@std@@@std@@QAEPAU?$_Tree_node@U?$pair@$$CBKK@std@@PAX@2@V?$_Tree_unchecked_const_iterator@V?$_Tree_val@U?$_Tree_simple_types@U?$pair@$$CBKK@std@@@std@@@std@@U_Iterator_base0@2@@2@@Z ENDP ; std::_Tree_val<std::_Tree_simple_types<std::pair<unsigned long const ,unsigned long> > >::_Extract
_TEXT	ENDS
; Function compile flags: /Ogtp
; File C:\Program Files\Microsoft Visual Studio\2022\Professional\VC\Tools\MSVC\14.44.35207\include\xtree
;	COMDAT ?_Rrotate@?$_Tree_val@U?$_Tree_simple_types@U?$pair@$$CBKK@std@@@std@@@std@@QAEXPAU?$_Tree_node@U?$pair@$$CBKK@std@@PAX@2@@Z
_TEXT	SEGMENT
__Wherenode$ = 8					; size = 4
?_Rrotate@?$_Tree_val@U?$_Tree_simple_types@U?$pair@$$CBKK@std@@@std@@@std@@QAEXPAU?$_Tree_node@U?$pair@$$CBKK@std@@PAX@2@@Z PROC ; std::_Tree_val<std::_Tree_simple_types<std::pair<unsigned long const ,unsigned long> > >::_Rrotate, COMDAT
; _this$ = ecx

; 505  :     void _Rrotate(_Nodeptr _Wherenode) noexcept { // promote left node to root of subtree

  00000	55		 push	 ebp
  00001	8b ec		 mov	 ebp, esp

; 506  :         _Nodeptr _Pnode   = _Wherenode->_Left;

  00003	8b 55 08	 mov	 edx, DWORD PTR __Wherenode$[ebp]
  00006	56		 push	 esi
  00007	8b 32		 mov	 esi, DWORD PTR [edx]

; 507  :         _Wherenode->_Left = _Pnode->_Right;

  00009	8b 46 08	 mov	 eax, DWORD PTR [esi+8]
  0000c	89 02		 mov	 DWORD PTR [edx], eax

; 508  : 
; 509  :         if (!_Pnode->_Right->_Isnil) {

  0000e	8b 46 08	 mov	 eax, DWORD PTR [esi+8]
  00011	80 78 0d 00	 cmp	 BYTE PTR [eax+13], 0
  00015	75 03		 jne	 SHORT $LN2@Rrotate

; 510  :             _Pnode->_Right->_Parent = _Wherenode;

  00017	89 50 04	 mov	 DWORD PTR [eax+4], edx
$LN2@Rrotate:

; 511  :         }
; 512  : 
; 513  :         _Pnode->_Parent = _Wherenode->_Parent;

  0001a	8b 42 04	 mov	 eax, DWORD PTR [edx+4]
  0001d	89 46 04	 mov	 DWORD PTR [esi+4], eax

; 514  : 
; 515  :         if (_Wherenode == _Myhead->_Parent) {

  00020	8b 01		 mov	 eax, DWORD PTR [ecx]
  00022	3b 50 04	 cmp	 edx, DWORD PTR [eax+4]
  00025	75 0e		 jne	 SHORT $LN3@Rrotate

; 516  :             _Myhead->_Parent = _Pnode;

  00027	89 70 04	 mov	 DWORD PTR [eax+4], esi

; 521  :         }
; 522  : 
; 523  :         _Pnode->_Right      = _Wherenode;
; 524  :         _Wherenode->_Parent = _Pnode;
; 525  :     }

  0002a	89 56 08	 mov	 DWORD PTR [esi+8], edx
  0002d	89 72 04	 mov	 DWORD PTR [edx+4], esi
  00030	5e		 pop	 esi
  00031	5d		 pop	 ebp
  00032	c2 04 00	 ret	 4
$LN3@Rrotate:

; 517  :         } else if (_Wherenode == _Wherenode->_Parent->_Right) {

  00035	8b 42 04	 mov	 eax, DWORD PTR [edx+4]
  00038	3b 50 08	 cmp	 edx, DWORD PTR [eax+8]
  0003b	75 0e		 jne	 SHORT $LN5@Rrotate

; 518  :             _Wherenode->_Parent->_Right = _Pnode;

  0003d	89 70 08	 mov	 DWORD PTR [eax+8], esi

; 521  :         }
; 522  : 
; 523  :         _Pnode->_Right      = _Wherenode;
; 524  :         _Wherenode->_Parent = _Pnode;
; 525  :     }

  00040	89 56 08	 mov	 DWORD PTR [esi+8], edx
  00043	89 72 04	 mov	 DWORD PTR [edx+4], esi
  00046	5e		 pop	 esi
  00047	5d		 pop	 ebp
  00048	c2 04 00	 ret	 4
$LN5@Rrotate:

; 519  :         } else {
; 520  :             _Wherenode->_Parent->_Left = _Pnode;

  0004b	89 30		 mov	 DWORD PTR [eax], esi

; 521  :         }
; 522  : 
; 523  :         _Pnode->_Right      = _Wherenode;
; 524  :         _Wherenode->_Parent = _Pnode;
; 525  :     }

  0004d	89 56 08	 mov	 DWORD PTR [esi+8], edx
  00050	89 72 04	 mov	 DWORD PTR [edx+4], esi
  00053	5e		 pop	 esi
  00054	5d		 pop	 ebp
  00055	c2 04 00	 ret	 4
?_Rrotate@?$_Tree_val@U?$_Tree_simple_types@U?$pair@$$CBKK@std@@@std@@@std@@QAEXPAU?$_Tree_node@U?$pair@$$CBKK@std@@PAX@2@@Z ENDP ; std::_Tree_val<std::_Tree_simple_types<std::pair<unsigned long const ,unsigned long> > >::_Rrotate
_TEXT	ENDS
; Function compile flags: /Ogtp
; File C:\Program Files\Microsoft Visual Studio\2022\Professional\VC\Tools\MSVC\14.44.35207\include\xtree
;	COMDAT ?_Lrotate@?$_Tree_val@U?$_Tree_simple_types@U?$pair@$$CBKK@std@@@std@@@std@@QAEXPAU?$_Tree_node@U?$pair@$$CBKK@std@@PAX@2@@Z
_TEXT	SEGMENT
__Wherenode$ = 8					; size = 4
?_Lrotate@?$_Tree_val@U?$_Tree_simple_types@U?$pair@$$CBKK@std@@@std@@@std@@QAEXPAU?$_Tree_node@U?$pair@$$CBKK@std@@PAX@2@@Z PROC ; std::_Tree_val<std::_Tree_simple_types<std::pair<unsigned long const ,unsigned long> > >::_Lrotate, COMDAT
; _this$ = ecx

; 483  :     void _Lrotate(_Nodeptr _Wherenode) noexcept { // promote right node to root of subtree

  00000	55		 push	 ebp
  00001	8b ec		 mov	 ebp, esp

; 484  :         _Nodeptr _Pnode    = _Wherenode->_Right;

  00003	8b 55 08	 mov	 edx, DWORD PTR __Wherenode$[ebp]
  00006	56		 push	 esi
  00007	8b 72 08	 mov	 esi, DWORD PTR [edx+8]

; 485  :         _Wherenode->_Right = _Pnode->_Left;

  0000a	8b 06		 mov	 eax, DWORD PTR [esi]
  0000c	89 42 08	 mov	 DWORD PTR [edx+8], eax

; 486  : 
; 487  :         if (!_Pnode->_Left->_Isnil) {

  0000f	8b 06		 mov	 eax, DWORD PTR [esi]
  00011	80 78 0d 00	 cmp	 BYTE PTR [eax+13], 0
  00015	75 03		 jne	 SHORT $LN2@Lrotate

; 488  :             _Pnode->_Left->_Parent = _Wherenode;

  00017	89 50 04	 mov	 DWORD PTR [eax+4], edx
$LN2@Lrotate:

; 489  :         }
; 490  : 
; 491  :         _Pnode->_Parent = _Wherenode->_Parent;

  0001a	8b 42 04	 mov	 eax, DWORD PTR [edx+4]
  0001d	89 46 04	 mov	 DWORD PTR [esi+4], eax

; 492  : 
; 493  :         if (_Wherenode == _Myhead->_Parent) {

  00020	8b 01		 mov	 eax, DWORD PTR [ecx]
  00022	3b 50 04	 cmp	 edx, DWORD PTR [eax+4]
  00025	75 0d		 jne	 SHORT $LN3@Lrotate

; 494  :             _Myhead->_Parent = _Pnode;

  00027	89 70 04	 mov	 DWORD PTR [eax+4], esi

; 499  :         }
; 500  : 
; 501  :         _Pnode->_Left       = _Wherenode;
; 502  :         _Wherenode->_Parent = _Pnode;
; 503  :     }

  0002a	89 16		 mov	 DWORD PTR [esi], edx
  0002c	89 72 04	 mov	 DWORD PTR [edx+4], esi
  0002f	5e		 pop	 esi
  00030	5d		 pop	 ebp
  00031	c2 04 00	 ret	 4
$LN3@Lrotate:

; 495  :         } else if (_Wherenode == _Wherenode->_Parent->_Left) {

  00034	8b 42 04	 mov	 eax, DWORD PTR [edx+4]
  00037	3b 10		 cmp	 edx, DWORD PTR [eax]
  00039	75 0c		 jne	 SHORT $LN5@Lrotate

; 496  :             _Wherenode->_Parent->_Left = _Pnode;

  0003b	89 30		 mov	 DWORD PTR [eax], esi

; 499  :         }
; 500  : 
; 501  :         _Pnode->_Left       = _Wherenode;
; 502  :         _Wherenode->_Parent = _Pnode;
; 503  :     }

  0003d	89 16		 mov	 DWORD PTR [esi], edx
  0003f	89 72 04	 mov	 DWORD PTR [edx+4], esi
  00042	5e		 pop	 esi
  00043	5d		 pop	 ebp
  00044	c2 04 00	 ret	 4
$LN5@Lrotate:

; 497  :         } else {
; 498  :             _Wherenode->_Parent->_Right = _Pnode;

  00047	89 70 08	 mov	 DWORD PTR [eax+8], esi

; 499  :         }
; 500  : 
; 501  :         _Pnode->_Left       = _Wherenode;
; 502  :         _Wherenode->_Parent = _Pnode;
; 503  :     }

  0004a	89 16		 mov	 DWORD PTR [esi], edx
  0004c	89 72 04	 mov	 DWORD PTR [edx+4], esi
  0004f	5e		 pop	 esi
  00050	5d		 pop	 ebp
  00051	c2 04 00	 ret	 4
?_Lrotate@?$_Tree_val@U?$_Tree_simple_types@U?$pair@$$CBKK@std@@@std@@@std@@QAEXPAU?$_Tree_node@U?$pair@$$CBKK@std@@PAX@2@@Z ENDP ; std::_Tree_val<std::_Tree_simple_types<std::pair<unsigned long const ,unsigned long> > >::_Lrotate
_TEXT	ENDS
; Function compile flags: /Ogtp
; File C:\Program Files\Microsoft Visual Studio\2022\Professional\VC\Tools\MSVC\14.44.35207\include\xtree
; File C:\Program Files\Microsoft Visual Studio\2022\Professional\VC\Tools\MSVC\14.44.35207\include\type_traits
; File C:\Program Files\Microsoft Visual Studio\2022\Professional\VC\Tools\MSVC\14.44.35207\include\xtree
; File C:\Program Files\Microsoft Visual Studio\2022\Professional\VC\Tools\MSVC\14.44.35207\include\type_traits
; File C:\Program Files\Microsoft Visual Studio\2022\Professional\VC\Tools\MSVC\14.44.35207\include\xtree
; File C:\Program Files\Microsoft Visual Studio\2022\Professional\VC\Tools\MSVC\14.44.35207\include\type_traits
; File C:\Program Files\Microsoft Visual Studio\2022\Professional\VC\Tools\MSVC\14.44.35207\include\xtree
; File C:\Program Files\Microsoft Visual Studio\2022\Professional\VC\Tools\MSVC\14.44.35207\include\xutility
; File C:\Program Files\Microsoft Visual Studio\2022\Professional\VC\Tools\MSVC\14.44.35207\include\xtree
; File C:\Program Files\Microsoft Visual Studio\2022\Professional\VC\Tools\MSVC\14.44.35207\include\xutility
; File C:\Program Files\Microsoft Visual Studio\2022\Professional\VC\Tools\MSVC\14.44.35207\include\xtree
; File C:\Program Files\Microsoft Visual Studio\2022\Professional\VC\Tools\MSVC\14.44.35207\include\xutility
; File C:\Program Files\Microsoft Visual Studio\2022\Professional\VC\Tools\MSVC\14.44.35207\include\xtree
; File C:\Program Files\Microsoft Visual Studio\2022\Professional\VC\Tools\MSVC\14.44.35207\include\xutility
; File C:\Program Files\Microsoft Visual Studio\2022\Professional\VC\Tools\MSVC\14.44.35207\include\xtree
; File C:\Program Files\Microsoft Visual Studio\2022\Professional\VC\Tools\MSVC\14.44.35207\include\utility
; File C:\Program Files\Microsoft Visual Studio\2022\Professional\VC\Tools\MSVC\14.44.35207\include\xmemory
; File C:\Program Files\Microsoft Visual Studio\2022\Professional\VC\Tools\MSVC\14.44.35207\include\xtree
; File C:\Program Files\Microsoft Visual Studio\2022\Professional\VC\Tools\MSVC\14.44.35207\include\xmemory
; File C:\Program Files\Microsoft Visual Studio\2022\Professional\VC\Tools\MSVC\14.44.35207\include\xtree
; File C:\Program Files\Microsoft Visual Studio\2022\Professional\VC\Tools\MSVC\14.44.35207\include\xmemory
; File C:\Program Files\Microsoft Visual Studio\2022\Professional\VC\Tools\MSVC\14.44.35207\include\xtree
;	COMDAT ?erase@?$_Tree@V?$_Tmap_traits@KKU?$less@K@std@@V?$allocator@U?$pair@$$CBKK@std@@@2@$0A@@std@@@std@@QAEIABK@Z
_TEXT	SEGMENT
__First$ = -16						; size = 4
__Rootnode$1$ = -16					; size = 4
__Head$1$ = -12						; size = 4
_this$1$ = -8						; size = 4
tv820 = -1						; size = 1
__Keyval$ = 8						; size = 4
__Off$1$ = 8						; size = 4
?erase@?$_Tree@V?$_Tmap_traits@KKU?$less@K@std@@V?$allocator@U?$pair@$$CBKK@std@@@2@$0A@@std@@@std@@QAEIABK@Z PROC ; std::_Tree<std::_Tmap_traits<unsigned long,unsigned long,std::less<unsigned long>,std::allocator<std::pair<unsigned long const ,unsigned long> >,0> >::erase, COMDAT
; _this$ = ecx

; 1357 :     size_type erase(const key_type& _Keyval) noexcept(noexcept(_Eqrange(_Keyval))) /* strengthened */ {

  00000	55		 push	 ebp
  00001	8b ec		 mov	 ebp, esp
  00003	83 ec 10	 sub	 esp, 16			; 00000010H
  00006	8b c1		 mov	 eax, ecx
  00008	53		 push	 ebx
  00009	56		 push	 esi
  0000a	57		 push	 edi

; 1709 :         _Nodeptr _Pnode   = _Scary->_Myhead->_Parent;

  0000b	8b 38		 mov	 edi, DWORD PTR [eax]

; 1710 :         _Nodeptr _Lonode  = _Scary->_Myhead; // end() if search fails

  0000d	8b f7		 mov	 esi, edi

; 1357 :     size_type erase(const key_type& _Keyval) noexcept(noexcept(_Eqrange(_Keyval))) /* strengthened */ {

  0000f	89 45 f8	 mov	 DWORD PTR _this$1$[ebp], eax

; 1709 :         _Nodeptr _Pnode   = _Scary->_Myhead->_Parent;

  00012	89 7d f4	 mov	 DWORD PTR __Head$1$[ebp], edi
  00015	8b 5f 04	 mov	 ebx, DWORD PTR [edi+4]
  00018	8b c3		 mov	 eax, ebx
  0001a	89 5d f0	 mov	 DWORD PTR __Rootnode$1$[ebp], ebx

; 1711 :         _Nodeptr _Hinode  = _Scary->_Myhead; // end() if search fails
; 1712 : 
; 1713 :         while (!_Pnode->_Isnil) {

  0001d	8a 48 0d	 mov	 cl, BYTE PTR [eax+13]
  00020	88 4d ff	 mov	 BYTE PTR tv820[ebp], cl
  00023	84 c9		 test	 cl, cl
  00025	75 2a		 jne	 SHORT $LN6@erase
; File C:\Program Files\Microsoft Visual Studio\2022\Professional\VC\Tools\MSVC\14.44.35207\include\type_traits

; 2380 :         return _Left < _Right;

  00027	8b 55 08	 mov	 edx, DWORD PTR __Keyval$[ebp]
  0002a	8b 12		 mov	 edx, DWORD PTR [edx]
  0002c	0f 1f 40 00	 npad	 4
$LL5@erase:
  00030	8b 48 10	 mov	 ecx, DWORD PTR [eax+16]
  00033	3b ca		 cmp	 ecx, edx
; File C:\Program Files\Microsoft Visual Studio\2022\Professional\VC\Tools\MSVC\14.44.35207\include\xtree

; 1715 :             if (_DEBUG_LT_PRED(_Comp, _Nodekey, _Keyval)) {

  00035	73 05		 jae	 SHORT $LN9@erase

; 1716 :                 _Pnode = _Pnode->_Right; // descend right subtree

  00037	8b 40 08	 mov	 eax, DWORD PTR [eax+8]

; 1717 :             } else { // _Pnode not less than _Keyval, remember it

  0003a	eb 0f		 jmp	 SHORT $LN10@erase
$LN9@erase:

; 1718 :                 if (_Hinode->_Isnil && _DEBUG_LT_PRED(_Comp, _Keyval, _Nodekey)) {

  0003c	80 7f 0d 00	 cmp	 BYTE PTR [edi+13], 0
  00040	74 05		 je	 SHORT $LN11@erase
; File C:\Program Files\Microsoft Visual Studio\2022\Professional\VC\Tools\MSVC\14.44.35207\include\type_traits

; 2380 :         return _Left < _Right;

  00042	3b d1		 cmp	 edx, ecx
; File C:\Program Files\Microsoft Visual Studio\2022\Professional\VC\Tools\MSVC\14.44.35207\include\xtree

; 1718 :                 if (_Hinode->_Isnil && _DEBUG_LT_PRED(_Comp, _Keyval, _Nodekey)) {

  00044	0f 42 f8	 cmovb	 edi, eax
$LN11@erase:

; 1719 :                     _Hinode = _Pnode; // _Pnode greater, remember it
; 1720 :                 }
; 1721 : 
; 1722 :                 _Lonode = _Pnode;

  00047	8b f0		 mov	 esi, eax

; 1723 :                 _Pnode  = _Pnode->_Left; // descend left subtree

  00049	8b 00		 mov	 eax, DWORD PTR [eax]
$LN10@erase:

; 1711 :         _Nodeptr _Hinode  = _Scary->_Myhead; // end() if search fails
; 1712 : 
; 1713 :         while (!_Pnode->_Isnil) {

  0004b	80 78 0d 00	 cmp	 BYTE PTR [eax+13], 0
  0004f	74 df		 je	 SHORT $LL5@erase
$LN6@erase:

; 1724 :             }
; 1725 :         }
; 1726 : 
; 1727 :         _Pnode = _Hinode->_Isnil ? _Scary->_Myhead->_Parent : _Hinode->_Left; // continue scan for upper bound

  00051	80 7f 0d 00	 cmp	 BYTE PTR [edi+13], 0
  00055	8b c3		 mov	 eax, ebx
  00057	75 02		 jne	 SHORT $LN16@erase
  00059	8b 07		 mov	 eax, DWORD PTR [edi]
$LN16@erase:

; 1728 :         while (!_Pnode->_Isnil) {

  0005b	80 78 0d 00	 cmp	 BYTE PTR [eax+13], 0
  0005f	75 19		 jne	 SHORT $LN8@erase
; File C:\Program Files\Microsoft Visual Studio\2022\Professional\VC\Tools\MSVC\14.44.35207\include\type_traits

; 2380 :         return _Left < _Right;

  00061	8b 4d 08	 mov	 ecx, DWORD PTR __Keyval$[ebp]
  00064	8b 09		 mov	 ecx, DWORD PTR [ecx]
$LL7@erase:
  00066	3b 48 10	 cmp	 ecx, DWORD PTR [eax+16]
; File C:\Program Files\Microsoft Visual Studio\2022\Professional\VC\Tools\MSVC\14.44.35207\include\xtree

; 1729 :             if (_DEBUG_LT_PRED(_Getcomp(), _Keyval, _Traits::_Kfn(_Pnode->_Myval))) {

  00069	73 06		 jae	 SHORT $LN12@erase

; 1730 :                 // _Pnode greater than _Keyval, remember it
; 1731 :                 _Hinode = _Pnode;

  0006b	8b f8		 mov	 edi, eax

; 1732 :                 _Pnode  = _Pnode->_Left; // descend left subtree

  0006d	8b 00		 mov	 eax, DWORD PTR [eax]

; 1733 :             } else {

  0006f	eb 03		 jmp	 SHORT $LN13@erase
$LN12@erase:

; 1734 :                 _Pnode = _Pnode->_Right; // descend right subtree

  00071	8b 40 08	 mov	 eax, DWORD PTR [eax+8]
$LN13@erase:

; 1728 :         while (!_Pnode->_Isnil) {

  00074	80 78 0d 00	 cmp	 BYTE PTR [eax+13], 0
  00078	74 ec		 je	 SHORT $LL7@erase
$LN8@erase:
; File C:\Program Files\Microsoft Visual Studio\2022\Professional\VC\Tools\MSVC\14.44.35207\include\xutility

; 1667 :         _Iter_diff_t<_InIt> _Off = 0;

  0007a	33 c9		 xor	 ecx, ecx
  0007c	8b c6		 mov	 eax, esi
  0007e	89 4d 08	 mov	 DWORD PTR __Off$1$[ebp], ecx
; File C:\Program Files\Microsoft Visual Studio\2022\Professional\VC\Tools\MSVC\14.44.35207\include\xtree

; 101  :         return !(*this == _Right);

  00081	3b f7		 cmp	 esi, edi
; File C:\Program Files\Microsoft Visual Studio\2022\Professional\VC\Tools\MSVC\14.44.35207\include\xutility

; 1668 :         for (; _UFirst != _ULast; ++_UFirst) {

  00083	74 54		 je	 SHORT $LN41@erase
  00085	33 db		 xor	 ebx, ebx
$LL42@erase:
; File C:\Program Files\Microsoft Visual Studio\2022\Professional\VC\Tools\MSVC\14.44.35207\include\xtree

; 50   :         if (_Ptr->_Right->_Isnil) { // climb looking for right subtree

  00087	8b 48 08	 mov	 ecx, DWORD PTR [eax+8]
; File C:\Program Files\Microsoft Visual Studio\2022\Professional\VC\Tools\MSVC\14.44.35207\include\xutility

; 1669 :             ++_Off;

  0008a	43		 inc	 ebx
; File C:\Program Files\Microsoft Visual Studio\2022\Professional\VC\Tools\MSVC\14.44.35207\include\xtree

; 50   :         if (_Ptr->_Right->_Isnil) { // climb looking for right subtree

  0008b	80 79 0d 00	 cmp	 BYTE PTR [ecx+13], 0
  0008f	74 23		 je	 SHORT $LN47@erase

; 51   :             _Nodeptr _Pnode;
; 52   :             while (!(_Pnode = _Ptr->_Parent)->_Isnil && _Ptr == _Pnode->_Right) {

  00091	8b 48 04	 mov	 ecx, DWORD PTR [eax+4]
  00094	80 79 0d 00	 cmp	 BYTE PTR [ecx+13], 0
  00098	75 16		 jne	 SHORT $LN182@erase
  0009a	66 0f 1f 44 00
	00		 npad	 6
$LL45@erase:
  000a0	3b 41 08	 cmp	 eax, DWORD PTR [ecx+8]
  000a3	75 0b		 jne	 SHORT $LN182@erase

; 53   :                 _Ptr = _Pnode; // ==> parent while right subtree

  000a5	8b c1		 mov	 eax, ecx
  000a7	8b 49 04	 mov	 ecx, DWORD PTR [ecx+4]
  000aa	80 79 0d 00	 cmp	 BYTE PTR [ecx+13], 0
  000ae	74 f0		 je	 SHORT $LL45@erase
$LN182@erase:

; 54   :             }
; 55   : 
; 56   :             _Ptr = _Pnode; // ==> parent (head if end())

  000b0	8b c1		 mov	 eax, ecx

; 57   :         } else {

  000b2	eb 18		 jmp	 SHORT $LN53@erase
$LN47@erase:

; 58   :             _Ptr = _Mytree::_Min(_Ptr->_Right); // ==> smallest of right subtree

  000b4	8b c1		 mov	 eax, ecx

; 476  :         while (!_Pnode->_Left->_Isnil) {

  000b6	8b 10		 mov	 edx, DWORD PTR [eax]
  000b8	80 7a 0d 00	 cmp	 BYTE PTR [edx+13], 0
  000bc	75 0e		 jne	 SHORT $LN53@erase
  000be	66 90		 npad	 2
$LL52@erase:
  000c0	8b 0a		 mov	 ecx, DWORD PTR [edx]

; 477  :             _Pnode = _Pnode->_Left;

  000c2	8b c2		 mov	 eax, edx
  000c4	8b d1		 mov	 edx, ecx
  000c6	80 79 0d 00	 cmp	 BYTE PTR [ecx+13], 0
  000ca	74 f4		 je	 SHORT $LL52@erase
$LN53@erase:

; 101  :         return !(*this == _Right);

  000cc	3b c7		 cmp	 eax, edi
; File C:\Program Files\Microsoft Visual Studio\2022\Professional\VC\Tools\MSVC\14.44.35207\include\xutility

; 1668 :         for (; _UFirst != _ULast; ++_UFirst) {

  000ce	75 b7		 jne	 SHORT $LL42@erase
  000d0	89 5d 08	 mov	 DWORD PTR __Off$1$[ebp], ebx
  000d3	8b 5d f0	 mov	 ebx, DWORD PTR __Rootnode$1$[ebp]
  000d6	8b 4d 08	 mov	 ecx, DWORD PTR __Off$1$[ebp]
$LN41@erase:
; File C:\Program Files\Microsoft Visual Studio\2022\Professional\VC\Tools\MSVC\14.44.35207\include\xtree

; 96   :         return _Ptr == _Right._Ptr;

  000d9	8b 45 f4	 mov	 eax, DWORD PTR __Head$1$[ebp]

; 1329 :         _Erase_unchecked(_First, _Last);

  000dc	89 75 f0	 mov	 DWORD PTR __First$[ebp], esi

; 96   :         return _Ptr == _Right._Ptr;

  000df	3b 30		 cmp	 esi, DWORD PTR [eax]

; 1311 :         if (_First == _Begin && _Last._Ptr->_Isnil) {

  000e1	75 51		 jne	 SHORT $LN157@erase
  000e3	80 7f 0d 00	 cmp	 BYTE PTR [edi+13], 0
  000e7	74 4b		 je	 SHORT $LN157@erase

; 768  :         while (!_Rootnode->_Isnil) { // free subtrees, then node

  000e9	80 7d ff 00	 cmp	 BYTE PTR tv820[ebp], 0
  000ed	75 27		 jne	 SHORT $LN165@erase
  000ef	90		 npad	 1
$LL84@erase:

; 769  :             _Erase_tree(_Al, _Rootnode->_Right);

  000f0	ff 73 08	 push	 DWORD PTR [ebx+8]
  000f3	8b 45 f8	 mov	 eax, DWORD PTR _this$1$[ebp]
  000f6	8b c8		 mov	 ecx, eax
  000f8	50		 push	 eax
  000f9	e8 00 00 00 00	 call	 ??$_Erase_tree@V?$allocator@U?$_Tree_node@U?$pair@$$CBKK@std@@PAX@std@@@std@@@?$_Tree_val@U?$_Tree_simple_types@U?$pair@$$CBKK@std@@@std@@@std@@QAEXAAV?$allocator@U?$_Tree_node@U?$pair@$$CBKK@std@@PAX@std@@@1@PAU?$_Tree_node@U?$pair@$$CBKK@std@@PAX@1@@Z ; std::_Tree_val<std::_Tree_simple_types<std::pair<unsigned long const ,unsigned long> > >::_Erase_tree<std::allocator<std::_Tree_node<std::pair<unsigned long const ,unsigned long>,void *> > >
; File C:\Program Files\Microsoft Visual Studio\2022\Professional\VC\Tools\MSVC\14.44.35207\include\utility

; 773  :     _Ty _Old_val = static_cast<_Ty&&>(_Val);

  000fe	8b c3		 mov	 eax, ebx

; 774  :     _Val         = static_cast<_Other&&>(_New_val);

  00100	8b 1b		 mov	 ebx, DWORD PTR [ebx]
; File C:\Program Files\Microsoft Visual Studio\2022\Professional\VC\Tools\MSVC\14.44.35207\include\xmemory

; 289  :         ::operator delete(_Ptr, _Bytes);

  00102	6a 18		 push	 24			; 00000018H
  00104	50		 push	 eax
  00105	e8 00 00 00 00	 call	 ??3@YAXPAXI@Z		; operator delete
  0010a	83 c4 08	 add	 esp, 8
; File C:\Program Files\Microsoft Visual Studio\2022\Professional\VC\Tools\MSVC\14.44.35207\include\xtree

; 768  :         while (!_Rootnode->_Isnil) { // free subtrees, then node

  0010d	80 7b 0d 00	 cmp	 BYTE PTR [ebx+13], 0
  00111	74 dd		 je	 SHORT $LL84@erase
  00113	8b 45 f4	 mov	 eax, DWORD PTR __Head$1$[ebp]
$LN165@erase:

; 1378 :         _Scary->_Mysize = 0;

  00116	8b 5d f8	 mov	 ebx, DWORD PTR _this$1$[ebp]
  00119	5f		 pop	 edi

; 1360 : 
; 1361 : #if _HAS_CXX23
; 1362 :     template <class _Kx>
; 1363 :         requires _Is_transparent_v<key_compare> && (!is_convertible_v<_Kx, const_iterator>)
; 1364 :               && (!is_convertible_v<_Kx, iterator>)
; 1365 :     size_type erase(_Kx&& _Keyval) noexcept(noexcept(_Eqrange(_Keyval))) /* strengthened */ {
; 1366 :         return _Erase(_Eqrange(_Keyval));
; 1367 :     }
; 1368 : #endif // _HAS_CXX23
; 1369 : 
; 1370 :     void clear() noexcept {
; 1371 :         const auto _Scary = _Get_scary();
; 1372 :         _Scary->_Orphan_ptr(nullptr);
; 1373 :         auto _Head = _Scary->_Myhead;
; 1374 :         _Scary->_Erase_tree(_Getal(), _Head->_Parent);
; 1375 :         _Head->_Parent  = _Head;

  0011a	89 40 04	 mov	 DWORD PTR [eax+4], eax

; 1376 :         _Head->_Left    = _Head;

  0011d	89 00		 mov	 DWORD PTR [eax], eax

; 1377 :         _Head->_Right   = _Head;

  0011f	89 40 08	 mov	 DWORD PTR [eax+8], eax

; 1358 :         return _Erase(_Eqrange(_Keyval));

  00122	8b 45 08	 mov	 eax, DWORD PTR __Off$1$[ebp]

; 1359 :     }

  00125	5e		 pop	 esi

; 1378 :         _Scary->_Mysize = 0;

  00126	c7 43 04 00 00
	00 00		 mov	 DWORD PTR [ebx+4], 0

; 1359 :     }

  0012d	5b		 pop	 ebx
  0012e	8b e5		 mov	 esp, ebp
  00130	5d		 pop	 ebp
  00131	c2 04 00	 ret	 4
$LN157@erase:

; 101  :         return !(*this == _Right);

  00134	3b f7		 cmp	 esi, edi

; 1318 :         while (_First != _Last) {

  00136	74 36		 je	 SHORT $LN181@erase
  00138	8b 5d f8	 mov	 ebx, DWORD PTR _this$1$[ebp]
  0013b	0f 1f 44 00 00	 npad	 5
$LL63@erase:

; 66   :         ++*this;

  00140	8d 4d f0	 lea	 ecx, DWORD PTR __First$[ebp]
  00143	e8 00 00 00 00	 call	 ??E?$_Tree_unchecked_const_iterator@V?$_Tree_val@U?$_Tree_simple_types@U?$pair@$$CBKK@std@@@std@@@std@@U_Iterator_base0@2@@std@@QAEAAV01@XZ ; std::_Tree_unchecked_const_iterator<std::_Tree_val<std::_Tree_simple_types<std::pair<unsigned long const ,unsigned long> > >,std::_Iterator_base0>::operator++

; 1303 :         _Nodeptr _Erasednode = _Scary->_Extract(_Where); // node to erase

  00148	56		 push	 esi
  00149	8b cb		 mov	 ecx, ebx
  0014b	e8 00 00 00 00	 call	 ?_Extract@?$_Tree_val@U?$_Tree_simple_types@U?$pair@$$CBKK@std@@@std@@@std@@QAEPAU?$_Tree_node@U?$pair@$$CBKK@std@@PAX@2@V?$_Tree_unchecked_const_iterator@V?$_Tree_val@U?$_Tree_simple_types@U?$pair@$$CBKK@std@@@std@@@std@@U_Iterator_base0@2@@2@@Z ; std::_Tree_val<std::_Tree_simple_types<std::pair<unsigned long const ,unsigned long> > >::_Extract
; File C:\Program Files\Microsoft Visual Studio\2022\Professional\VC\Tools\MSVC\14.44.35207\include\xmemory

; 289  :         ::operator delete(_Ptr, _Bytes);

  00150	6a 18		 push	 24			; 00000018H
  00152	50		 push	 eax
  00153	e8 00 00 00 00	 call	 ??3@YAXPAXI@Z		; operator delete
; File C:\Program Files\Microsoft Visual Studio\2022\Professional\VC\Tools\MSVC\14.44.35207\include\xtree

; 101  :         return !(*this == _Right);

  00158	8b 75 f0	 mov	 esi, DWORD PTR __First$[ebp]
; File C:\Program Files\Microsoft Visual Studio\2022\Professional\VC\Tools\MSVC\14.44.35207\include\xmemory

; 289  :         ::operator delete(_Ptr, _Bytes);

  0015b	83 c4 08	 add	 esp, 8
; File C:\Program Files\Microsoft Visual Studio\2022\Professional\VC\Tools\MSVC\14.44.35207\include\xtree

; 101  :         return !(*this == _Right);

  0015e	3b f7		 cmp	 esi, edi

; 1318 :         while (_First != _Last) {

  00160	75 de		 jne	 SHORT $LL63@erase

; 1359 :     }

  00162	8b 45 08	 mov	 eax, DWORD PTR __Off$1$[ebp]
  00165	5f		 pop	 edi
  00166	5e		 pop	 esi
  00167	5b		 pop	 ebx
  00168	8b e5		 mov	 esp, ebp
  0016a	5d		 pop	 ebp
  0016b	c2 04 00	 ret	 4
$LN181@erase:
  0016e	5f		 pop	 edi
  0016f	5e		 pop	 esi
  00170	8b c1		 mov	 eax, ecx
  00172	5b		 pop	 ebx
  00173	8b e5		 mov	 esp, ebp
  00175	5d		 pop	 ebp
  00176	c2 04 00	 ret	 4
?erase@?$_Tree@V?$_Tmap_traits@KKU?$less@K@std@@V?$allocator@U?$pair@$$CBKK@std@@@2@$0A@@std@@@std@@QAEIABK@Z ENDP ; std::_Tree<std::_Tmap_traits<unsigned long,unsigned long,std::less<unsigned long>,std::allocator<std::pair<unsigned long const ,unsigned long> >,0> >::erase
_TEXT	ENDS
; Function compile flags: /Ogtp
; File C:\IAGOS\server\v18\Source\Source\DatabaseServer\dbcontroller.h
;	COMDAT ?OnTimer@CDbController@@UAEXXZ
_TEXT	SEGMENT
?OnTimer@CDbController@@UAEXXZ PROC			; CDbController::OnTimer, COMDAT
; _this$ = ecx

; 26   : 	virtual void	OnTimer()	{}

  00000	c2 00 00	 ret	 0
?OnTimer@CDbController@@UAEXXZ ENDP			; CDbController::OnTimer
_TEXT	ENDS
; Function compile flags: /Ogtp
; File C:\Program Files\Microsoft Visual Studio\2022\Professional\VC\Tools\MSVC\14.44.35207\include\vector
; File C:\Program Files\Microsoft Visual Studio\2022\Professional\VC\Tools\MSVC\14.44.35207\include\xmemory
; File C:\Program Files\Microsoft Visual Studio\2022\Professional\VC\Tools\MSVC\14.44.35207\include\vector
; File C:\Program Files\Microsoft Visual Studio\2022\Professional\VC\Tools\MSVC\14.44.35207\include\xmemory
; File C:\Program Files\Microsoft Visual Studio\2022\Professional\VC\Tools\MSVC\14.44.35207\include\vector
; File C:\Program Files\Microsoft Visual Studio\2022\Professional\VC\Tools\MSVC\14.44.35207\include\xmemory
; File C:\Program Files\Microsoft Visual Studio\2022\Professional\VC\Tools\MSVC\14.44.35207\include\vector
;	COMDAT ??1?$vector@KV?$allocator@K@std@@@std@@QAE@XZ
_TEXT	SEGMENT
??1?$vector@KV?$allocator@K@std@@@std@@QAE@XZ PROC	; std::vector<unsigned long,std::allocator<unsigned long> >::~vector<unsigned long,std::allocator<unsigned long> >, COMDAT
; _this$ = ecx

; 829  :     _CONSTEXPR20 ~vector() noexcept {

  00000	56		 push	 esi
  00001	8b f1		 mov	 esi, ecx

; 2090 :         if (_Myfirst) { // destroy and deallocate old array

  00003	8b 06		 mov	 eax, DWORD PTR [esi]
  00005	85 c0		 test	 eax, eax
  00007	74 40		 je	 SHORT $LN5@vector

; 2091 :             _STD _Destroy_range(_Myfirst, _Mylast, _Al);
; 2092 :             _ASAN_VECTOR_REMOVE;
; 2093 :             _Al.deallocate(_Myfirst, static_cast<size_type>(_Myend - _Myfirst));

  00009	8b 4e 08	 mov	 ecx, DWORD PTR [esi+8]
  0000c	2b c8		 sub	 ecx, eax
; File C:\Program Files\Microsoft Visual Studio\2022\Professional\VC\Tools\MSVC\14.44.35207\include\xmemory

; 985  :         _STD _Deallocate<_New_alignof<_Ty>>(_Ptr, sizeof(_Ty) * _Count);

  0000e	83 e1 fc	 and	 ecx, -4			; fffffffcH

; 284  :         if (_Bytes >= _Big_allocation_threshold) {

  00011	81 f9 00 10 00
	00		 cmp	 ecx, 4096		; 00001000H
  00017	72 12		 jb	 SHORT $LN18@vector

; 205  :     const uintptr_t _Ptr_container   = _Ptr_user[-1];

  00019	8b 50 fc	 mov	 edx, DWORD PTR [eax-4]
  0001c	83 c1 23	 add	 ecx, 35			; 00000023H

; 206  : 
; 207  :     // If the following asserts, it likely means that we are performing
; 208  :     // an aligned delete on memory coming from an unaligned allocation.
; 209  :     _STL_ASSERT(_Ptr_user[-2] == _Big_allocation_sentinel, "invalid argument");
; 210  : 
; 211  :     // Extra paranoia on aligned allocation/deallocation; ensure _Ptr_container is
; 212  :     // in range [_Min_back_shift, _Non_user_size]
; 213  : #ifdef _DEBUG
; 214  :     constexpr uintptr_t _Min_back_shift = 2 * sizeof(void*);
; 215  : #else // ^^^ defined(_DEBUG) / !defined(_DEBUG) vvv
; 216  :     constexpr uintptr_t _Min_back_shift = sizeof(void*);
; 217  : #endif // ^^^ !defined(_DEBUG) ^^^
; 218  :     const uintptr_t _Back_shift = reinterpret_cast<uintptr_t>(_Ptr) - _Ptr_container;

  0001f	2b c2		 sub	 eax, edx

; 219  :     _STL_VERIFY(_Back_shift >= _Min_back_shift && _Back_shift <= _Non_user_size, "invalid argument");

  00021	83 c0 fc	 add	 eax, -4			; fffffffcH
  00024	83 f8 1f	 cmp	 eax, 31			; 0000001fH
  00027	77 22		 ja	 SHORT $LN17@vector

; 220  :     _Ptr = reinterpret_cast<void*>(_Ptr_container);

  00029	8b c2		 mov	 eax, edx
$LN18@vector:

; 289  :         ::operator delete(_Ptr, _Bytes);

  0002b	51		 push	 ecx
  0002c	50		 push	 eax
  0002d	e8 00 00 00 00	 call	 ??3@YAXPAXI@Z		; operator delete
; File C:\Program Files\Microsoft Visual Studio\2022\Professional\VC\Tools\MSVC\14.44.35207\include\vector

; 2095 :             _Myfirst = nullptr;

  00032	c7 06 00 00 00
	00		 mov	 DWORD PTR [esi], 0
; File C:\Program Files\Microsoft Visual Studio\2022\Professional\VC\Tools\MSVC\14.44.35207\include\xmemory

; 289  :         ::operator delete(_Ptr, _Bytes);

  00038	83 c4 08	 add	 esp, 8
; File C:\Program Files\Microsoft Visual Studio\2022\Professional\VC\Tools\MSVC\14.44.35207\include\vector

; 2096 :             _Mylast  = nullptr;

  0003b	c7 46 04 00 00
	00 00		 mov	 DWORD PTR [esi+4], 0

; 2097 :             _Myend   = nullptr;

  00042	c7 46 08 00 00
	00 00		 mov	 DWORD PTR [esi+8], 0
$LN5@vector:
  00049	5e		 pop	 esi

; 835  :     }

  0004a	c3		 ret	 0
$LN17@vector:
; File C:\Program Files\Microsoft Visual Studio\2022\Professional\VC\Tools\MSVC\14.44.35207\include\xmemory

; 219  :     _STL_VERIFY(_Back_shift >= _Min_back_shift && _Back_shift <= _Non_user_size, "invalid argument");

  0004b	6a 00		 push	 0
  0004d	6a 00		 push	 0
  0004f	6a 00		 push	 0
  00051	6a 00		 push	 0
  00053	6a 00		 push	 0
  00055	e8 00 00 00 00	 call	 __invoke_watson
$LN26@vector:
  0005a	cc		 int	 3
??1?$vector@KV?$allocator@K@std@@@std@@QAE@XZ ENDP	; std::vector<unsigned long,std::allocator<unsigned long> >::~vector<unsigned long,std::allocator<unsigned long> >
_TEXT	ENDS
; Function compile flags: /Ogtp
; File C:\Program Files (x86)\Windows Kits\10\Include\10.0.26100.0\ucrt\stdio.h
;	COMDAT _sprintf
_TEXT	SEGMENT
__Buffer$ = 8						; size = 4
__Format$ = 12						; size = 4
_sprintf PROC						; COMDAT

; 1771 :     {

  00000	55		 push	 ebp
  00001	8b ec		 mov	 ebp, esp

; 1392 :         int const _Result = __stdio_common_vsprintf(

  00003	8d 45 10	 lea	 eax, DWORD PTR __Format$[ebp+4]
  00006	50		 push	 eax
  00007	6a 00		 push	 0
  00009	ff 75 0c	 push	 DWORD PTR __Format$[ebp]
  0000c	6a ff		 push	 -1
  0000e	ff 75 08	 push	 DWORD PTR __Buffer$[ebp]
  00011	e8 00 00 00 00	 call	 ___local_stdio_printf_options
  00016	8b 08		 mov	 ecx, DWORD PTR [eax]
  00018	ff 70 04	 push	 DWORD PTR [eax+4]
  0001b	83 c9 01	 or	 ecx, 1
  0001e	51		 push	 ecx
  0001f	e8 00 00 00 00	 call	 ___stdio_common_vsprintf

; 1393 :             _CRT_INTERNAL_LOCAL_PRINTF_OPTIONS | _CRT_INTERNAL_PRINTF_LEGACY_VSPRINTF_NULL_TERMINATION,
; 1394 :             _Buffer, _BufferCount, _Format, _Locale, _ArgList);
; 1395 : 
; 1396 :         return _Result < 0 ? -1 : _Result;

  00024	83 c9 ff	 or	 ecx, -1
  00027	83 c4 1c	 add	 esp, 28			; 0000001cH
  0002a	85 c0		 test	 eax, eax
  0002c	0f 48 c1	 cmovs	 eax, ecx

; 1772 :         int _Result;
; 1773 :         va_list _ArgList;
; 1774 :         __crt_va_start(_ArgList, _Format);
; 1775 : 
; 1776 :         _Result = _vsprintf_l(_Buffer, _Format, NULL, _ArgList);
; 1777 : 
; 1778 :         __crt_va_end(_ArgList);
; 1779 :         return _Result;
; 1780 :     }

  0002f	5d		 pop	 ebp
  00030	c3		 ret	 0
_sprintf ENDP
_TEXT	ENDS
; Function compile flags: /Ogtp
; File C:\Program Files (x86)\Windows Kits\10\Include\10.0.26100.0\ucrt\corecrt_stdio_config.h
;	COMDAT ___local_stdio_printf_options
_TEXT	SEGMENT
___local_stdio_printf_options PROC			; COMDAT

; 91   :         static unsigned __int64 _OptionsStorage;
; 92   :         return &_OptionsStorage;

  00000	b8 00 00 00 00	 mov	 eax, OFFSET ?_OptionsStorage@?1??__local_stdio_printf_options@@9@4_KA ; `__local_stdio_printf_options'::`2'::_OptionsStorage

; 93   :     }

  00005	c3		 ret	 0
___local_stdio_printf_options ENDP
_TEXT	ENDS
; Function compile flags: /Ogtp
; File C:\IAGOS\server\v18\Source\Source\DatabaseServer\CampusDBCtrl.cpp
;	COMDAT ?__empty_global_delete@@YAXPAXI@Z
_TEXT	SEGMENT
___formal$ = 8						; size = 4
___formal$ = 12						; size = 4
?__empty_global_delete@@YAXPAXI@Z PROC			; __empty_global_delete, COMDAT

  00000	c2 00 00	 ret	 0
?__empty_global_delete@@YAXPAXI@Z ENDP			; __empty_global_delete
_TEXT	ENDS
; Function compile flags: /Ogtp
; File C:\IAGOS\server\v18\Source\Source\DatabaseServer\CampusDBCtrl.cpp
;	COMDAT ?__empty_global_delete@@YAXPAX@Z
_TEXT	SEGMENT
___formal$ = 8						; size = 4
?__empty_global_delete@@YAXPAX@Z PROC			; __empty_global_delete, COMDAT

  00000	c2 00 00	 ret	 0
?__empty_global_delete@@YAXPAX@Z ENDP			; __empty_global_delete
_TEXT	ENDS
END
