; Listing generated by Microsoft (R) Optimizing Compiler Version 19.44.35225.0 

	TITLE	C:\IAGOS\server\v18\Source\Output\DatabaseServer\Release\clientsock.obj
	.686P
	.XMM
	include listing.inc
	.model	flat

INCLUDELIB LIBCMT
INCLUDELIB OLDNAMES

PUBLIC	??_C@_0O@NKNMEGII@list?5too?5long@		; `string'
PUBLIC	??_R4exception@std@@6B@				; std::exception::`RTTI Complete Object Locator'
PUBLIC	??_R3exception@std@@8				; std::exception::`RTTI Class Hierarchy Descriptor'
PUBLIC	??_R2exception@std@@8				; std::exception::`RTTI Base Class Array'
PUBLIC	??_R1A@?0A@EA@exception@std@@8			; std::exception::`RTTI Base Class Descriptor at (0,-1,0,64)'
PUBLIC	??_R4bad_array_new_length@std@@6B@		; std::bad_array_new_length::`RTTI Complete Object Locator'
PUBLIC	??_R3bad_array_new_length@std@@8		; std::bad_array_new_length::`RTTI Class Hierarchy Descriptor'
PUBLIC	??_R2bad_array_new_length@std@@8		; std::bad_array_new_length::`RTTI Base Class Array'
PUBLIC	??_R1A@?0A@EA@bad_array_new_length@std@@8	; std::bad_array_new_length::`RTTI Base Class Descriptor at (0,-1,0,64)'
PUBLIC	??_R1A@?0A@EA@bad_alloc@std@@8			; std::bad_alloc::`RTTI Base Class Descriptor at (0,-1,0,64)'
PUBLIC	??_R3bad_alloc@std@@8				; std::bad_alloc::`RTTI Class Hierarchy Descriptor'
PUBLIC	??_R2bad_alloc@std@@8				; std::bad_alloc::`RTTI Base Class Array'
PUBLIC	??_R4bad_alloc@std@@6B@				; std::bad_alloc::`RTTI Complete Object Locator'
PUBLIC	??0exception@std@@QAE@ABV01@@Z			; std::exception::exception
PUBLIC	?what@exception@std@@UBEPBDXZ			; std::exception::what
PUBLIC	??_7exception@std@@6B@				; std::exception::`vftable'
PUBLIC	??_Gexception@std@@UAEPAXI@Z			; std::exception::`scalar deleting destructor'
PUBLIC	??_C@_0BC@EOODALEL@Unknown?5exception@		; `string'
PUBLIC	??0bad_alloc@std@@QAE@ABV01@@Z			; std::bad_alloc::bad_alloc
PUBLIC	??_7bad_alloc@std@@6B@				; std::bad_alloc::`vftable'
PUBLIC	??_Gbad_alloc@std@@UAEPAXI@Z			; std::bad_alloc::`scalar deleting destructor'
PUBLIC	??1bad_array_new_length@std@@UAE@XZ		; std::bad_array_new_length::~bad_array_new_length
PUBLIC	??0bad_array_new_length@std@@QAE@ABV01@@Z	; std::bad_array_new_length::bad_array_new_length
PUBLIC	??_7bad_array_new_length@std@@6B@		; std::bad_array_new_length::`vftable'
PUBLIC	??_Gbad_array_new_length@std@@UAEPAXI@Z		; std::bad_array_new_length::`scalar deleting destructor'
PUBLIC	??_C@_0BF@KINCDENJ@bad?5array?5new?5length@	; `string'
PUBLIC	??_R0?AVexception@std@@@8			; std::exception `RTTI Type Descriptor'
PUBLIC	__CT??_R0?AVexception@std@@@8??0exception@std@@QAE@ABV01@@Z12
PUBLIC	__TI3?AVbad_array_new_length@std@@
PUBLIC	__CTA3?AVbad_array_new_length@std@@
PUBLIC	??_R0?AVbad_array_new_length@std@@@8		; std::bad_array_new_length `RTTI Type Descriptor'
PUBLIC	__CT??_R0?AVbad_array_new_length@std@@@8??0bad_array_new_length@std@@QAE@ABV01@@Z12
PUBLIC	??_R0?AVbad_alloc@std@@@8			; std::bad_alloc `RTTI Type Descriptor'
PUBLIC	__CT??_R0?AVbad_alloc@std@@@8??0bad_alloc@std@@QAE@ABV01@@Z12
PUBLIC	??_C@_09PKKCPLIP@bad?5alloc@			; `string'
EXTRN	??_Eexception@std@@UAEPAXI@Z:PROC		; std::exception::`vector deleting destructor'
EXTRN	??_Ebad_alloc@std@@UAEPAXI@Z:PROC		; std::bad_alloc::`vector deleting destructor'
EXTRN	??_Ebad_array_new_length@std@@UAEPAXI@Z:PROC	; std::bad_array_new_length::`vector deleting destructor'
EXTRN	??_7type_info@@6B@:QWORD			; type_info::`vftable'
;	COMDAT ??_C@_09PKKCPLIP@bad?5alloc@
CONST	SEGMENT
??_C@_09PKKCPLIP@bad?5alloc@ DB 'bad alloc', 00H	; `string'
CONST	ENDS
;	COMDAT __CT??_R0?AVbad_alloc@std@@@8??0bad_alloc@std@@QAE@ABV01@@Z12
xdata$x	SEGMENT
__CT??_R0?AVbad_alloc@std@@@8??0bad_alloc@std@@QAE@ABV01@@Z12 DD 010H
	DD	FLAT:??_R0?AVbad_alloc@std@@@8
	DD	00H
	DD	0ffffffffH
	ORG $+4
	DD	0cH
	DD	FLAT:??0bad_alloc@std@@QAE@ABV01@@Z
xdata$x	ENDS
;	COMDAT ??_R0?AVbad_alloc@std@@@8
data$r	SEGMENT
??_R0?AVbad_alloc@std@@@8 DD FLAT:??_7type_info@@6B@	; std::bad_alloc `RTTI Type Descriptor'
	DD	00H
	DB	'.?AVbad_alloc@std@@', 00H
data$r	ENDS
;	COMDAT __CT??_R0?AVbad_array_new_length@std@@@8??0bad_array_new_length@std@@QAE@ABV01@@Z12
xdata$x	SEGMENT
__CT??_R0?AVbad_array_new_length@std@@@8??0bad_array_new_length@std@@QAE@ABV01@@Z12 DD 00H
	DD	FLAT:??_R0?AVbad_array_new_length@std@@@8
	DD	00H
	DD	0ffffffffH
	ORG $+4
	DD	0cH
	DD	FLAT:??0bad_array_new_length@std@@QAE@ABV01@@Z
xdata$x	ENDS
;	COMDAT ??_R0?AVbad_array_new_length@std@@@8
data$r	SEGMENT
??_R0?AVbad_array_new_length@std@@@8 DD FLAT:??_7type_info@@6B@ ; std::bad_array_new_length `RTTI Type Descriptor'
	DD	00H
	DB	'.?AVbad_array_new_length@std@@', 00H
data$r	ENDS
;	COMDAT __CTA3?AVbad_array_new_length@std@@
xdata$x	SEGMENT
__CTA3?AVbad_array_new_length@std@@ DD 03H
	DD	FLAT:__CT??_R0?AVbad_array_new_length@std@@@8??0bad_array_new_length@std@@QAE@ABV01@@Z12
	DD	FLAT:__CT??_R0?AVbad_alloc@std@@@8??0bad_alloc@std@@QAE@ABV01@@Z12
	DD	FLAT:__CT??_R0?AVexception@std@@@8??0exception@std@@QAE@ABV01@@Z12
xdata$x	ENDS
;	COMDAT __TI3?AVbad_array_new_length@std@@
xdata$x	SEGMENT
__TI3?AVbad_array_new_length@std@@ DD 00H
	DD	FLAT:??1bad_array_new_length@std@@UAE@XZ
	DD	00H
	DD	FLAT:__CTA3?AVbad_array_new_length@std@@
xdata$x	ENDS
;	COMDAT __CT??_R0?AVexception@std@@@8??0exception@std@@QAE@ABV01@@Z12
xdata$x	SEGMENT
__CT??_R0?AVexception@std@@@8??0exception@std@@QAE@ABV01@@Z12 DD 00H
	DD	FLAT:??_R0?AVexception@std@@@8
	DD	00H
	DD	0ffffffffH
	ORG $+4
	DD	0cH
	DD	FLAT:??0exception@std@@QAE@ABV01@@Z
xdata$x	ENDS
;	COMDAT ??_R0?AVexception@std@@@8
data$r	SEGMENT
??_R0?AVexception@std@@@8 DD FLAT:??_7type_info@@6B@	; std::exception `RTTI Type Descriptor'
	DD	00H
	DB	'.?AVexception@std@@', 00H
data$r	ENDS
;	COMDAT ??_C@_0BF@KINCDENJ@bad?5array?5new?5length@
CONST	SEGMENT
??_C@_0BF@KINCDENJ@bad?5array?5new?5length@ DB 'bad array new length', 00H ; `string'
CONST	ENDS
;	COMDAT ??_7bad_array_new_length@std@@6B@
CONST	SEGMENT
??_7bad_array_new_length@std@@6B@ DD FLAT:??_R4bad_array_new_length@std@@6B@ ; std::bad_array_new_length::`vftable'
	DD	FLAT:??_Ebad_array_new_length@std@@UAEPAXI@Z
	DD	FLAT:?what@exception@std@@UBEPBDXZ
CONST	ENDS
;	COMDAT ??_7bad_alloc@std@@6B@
CONST	SEGMENT
??_7bad_alloc@std@@6B@ DD FLAT:??_R4bad_alloc@std@@6B@	; std::bad_alloc::`vftable'
	DD	FLAT:??_Ebad_alloc@std@@UAEPAXI@Z
	DD	FLAT:?what@exception@std@@UBEPBDXZ
CONST	ENDS
;	COMDAT ??_C@_0BC@EOODALEL@Unknown?5exception@
CONST	SEGMENT
??_C@_0BC@EOODALEL@Unknown?5exception@ DB 'Unknown exception', 00H ; `string'
CONST	ENDS
;	COMDAT ??_7exception@std@@6B@
CONST	SEGMENT
??_7exception@std@@6B@ DD FLAT:??_R4exception@std@@6B@	; std::exception::`vftable'
	DD	FLAT:??_Eexception@std@@UAEPAXI@Z
	DD	FLAT:?what@exception@std@@UBEPBDXZ
CONST	ENDS
;	COMDAT ??_R4bad_alloc@std@@6B@
rdata$r	SEGMENT
??_R4bad_alloc@std@@6B@ DD 00H				; std::bad_alloc::`RTTI Complete Object Locator'
	DD	00H
	DD	00H
	DD	FLAT:??_R0?AVbad_alloc@std@@@8
	DD	FLAT:??_R3bad_alloc@std@@8
rdata$r	ENDS
;	COMDAT ??_R2bad_alloc@std@@8
rdata$r	SEGMENT
??_R2bad_alloc@std@@8 DD FLAT:??_R1A@?0A@EA@bad_alloc@std@@8 ; std::bad_alloc::`RTTI Base Class Array'
	DD	FLAT:??_R1A@?0A@EA@exception@std@@8
rdata$r	ENDS
;	COMDAT ??_R3bad_alloc@std@@8
rdata$r	SEGMENT
??_R3bad_alloc@std@@8 DD 00H				; std::bad_alloc::`RTTI Class Hierarchy Descriptor'
	DD	00H
	DD	02H
	DD	FLAT:??_R2bad_alloc@std@@8
rdata$r	ENDS
;	COMDAT ??_R1A@?0A@EA@bad_alloc@std@@8
rdata$r	SEGMENT
??_R1A@?0A@EA@bad_alloc@std@@8 DD FLAT:??_R0?AVbad_alloc@std@@@8 ; std::bad_alloc::`RTTI Base Class Descriptor at (0,-1,0,64)'
	DD	01H
	DD	00H
	DD	0ffffffffH
	DD	00H
	DD	040H
	DD	FLAT:??_R3bad_alloc@std@@8
rdata$r	ENDS
;	COMDAT ??_R1A@?0A@EA@bad_array_new_length@std@@8
rdata$r	SEGMENT
??_R1A@?0A@EA@bad_array_new_length@std@@8 DD FLAT:??_R0?AVbad_array_new_length@std@@@8 ; std::bad_array_new_length::`RTTI Base Class Descriptor at (0,-1,0,64)'
	DD	02H
	DD	00H
	DD	0ffffffffH
	DD	00H
	DD	040H
	DD	FLAT:??_R3bad_array_new_length@std@@8
rdata$r	ENDS
;	COMDAT ??_R2bad_array_new_length@std@@8
rdata$r	SEGMENT
??_R2bad_array_new_length@std@@8 DD FLAT:??_R1A@?0A@EA@bad_array_new_length@std@@8 ; std::bad_array_new_length::`RTTI Base Class Array'
	DD	FLAT:??_R1A@?0A@EA@bad_alloc@std@@8
	DD	FLAT:??_R1A@?0A@EA@exception@std@@8
rdata$r	ENDS
;	COMDAT ??_R3bad_array_new_length@std@@8
rdata$r	SEGMENT
??_R3bad_array_new_length@std@@8 DD 00H			; std::bad_array_new_length::`RTTI Class Hierarchy Descriptor'
	DD	00H
	DD	03H
	DD	FLAT:??_R2bad_array_new_length@std@@8
rdata$r	ENDS
;	COMDAT ??_R4bad_array_new_length@std@@6B@
rdata$r	SEGMENT
??_R4bad_array_new_length@std@@6B@ DD 00H		; std::bad_array_new_length::`RTTI Complete Object Locator'
	DD	00H
	DD	00H
	DD	FLAT:??_R0?AVbad_array_new_length@std@@@8
	DD	FLAT:??_R3bad_array_new_length@std@@8
rdata$r	ENDS
;	COMDAT ??_R1A@?0A@EA@exception@std@@8
rdata$r	SEGMENT
??_R1A@?0A@EA@exception@std@@8 DD FLAT:??_R0?AVexception@std@@@8 ; std::exception::`RTTI Base Class Descriptor at (0,-1,0,64)'
	DD	00H
	DD	00H
	DD	0ffffffffH
	DD	00H
	DD	040H
	DD	FLAT:??_R3exception@std@@8
rdata$r	ENDS
;	COMDAT ??_R2exception@std@@8
rdata$r	SEGMENT
??_R2exception@std@@8 DD FLAT:??_R1A@?0A@EA@exception@std@@8 ; std::exception::`RTTI Base Class Array'
rdata$r	ENDS
;	COMDAT ??_R3exception@std@@8
rdata$r	SEGMENT
??_R3exception@std@@8 DD 00H				; std::exception::`RTTI Class Hierarchy Descriptor'
	DD	00H
	DD	01H
	DD	FLAT:??_R2exception@std@@8
rdata$r	ENDS
;	COMDAT ??_R4exception@std@@6B@
rdata$r	SEGMENT
??_R4exception@std@@6B@ DD 00H				; std::exception::`RTTI Complete Object Locator'
	DD	00H
	DD	00H
	DD	FLAT:??_R0?AVexception@std@@@8
	DD	FLAT:??_R3exception@std@@8
rdata$r	ENDS
;	COMDAT ??_C@_0O@NKNMEGII@list?5too?5long@
CONST	SEGMENT
??_C@_0O@NKNMEGII@list?5too?5long@ DB 'list too long', 00H ; `string'
CONST	ENDS
PUBLIC	?__empty_global_delete@@YAXPAX@Z		; __empty_global_delete
PUBLIC	?__empty_global_delete@@YAXPAXI@Z		; __empty_global_delete
PUBLIC	___local_stdio_printf_options
PUBLIC	_sprintf
PUBLIC	??1exception@std@@UAE@XZ			; std::exception::~exception
PUBLIC	??0bad_array_new_length@std@@QAE@XZ		; std::bad_array_new_length::bad_array_new_length
PUBLIC	?_Throw_bad_array_new_length@std@@YAXXZ		; std::_Throw_bad_array_new_length
PUBLIC	??1CMclCritSec@@UAE@XZ				; CMclCritSec::~CMclCritSec
PUBLIC	??_GCMclCritSec@@UAEPAXI@Z			; CMclCritSec::`scalar deleting destructor'
PUBLIC	??1CMclAutoLock@@QAE@XZ				; CMclAutoLock::~CMclAutoLock
PUBLIC	?Get@CSock@@UAEPAV1@I@Z				; CSock::Get
PUBLIC	??1?$list@PAXV?$allocator@PAX@std@@@std@@QAE@XZ	; std::list<void *,std::allocator<void *> >::~list<void *,std::allocator<void *> >
PUBLIC	??0CClientSock@@QAE@W4BUFFER_TYPE@@@Z		; CClientSock::CClientSock
PUBLIC	??1CClientSock@@UAE@XZ				; CClientSock::~CClientSock
PUBLIC	?CreateBuffer@CClientSock@@QAEPAVCBuffer@@XZ	; CClientSock::CreateBuffer
PUBLIC	?Connect@CClientSock@@QAEHPADG@Z		; CClientSock::Connect
PUBLIC	?Recv@CClientSock@@QAEHXZ			; CClientSock::Recv
PUBLIC	?SendRemnant@CClientSock@@QAEHK@Z		; CClientSock::SendRemnant
PUBLIC	?Fetch@CClientSock@@QAEPAVCBuffer@@K@Z		; CClientSock::Fetch
PUBLIC	?Close@CClientSock@@UAEXXZ			; CClientSock::Close
PUBLIC	?CloseConnection@CClientSock@@UAEHI@Z		; CClientSock::CloseConnection
PUBLIC	?Shutdown@CClientSock@@UAEHI@Z			; CClientSock::Shutdown
PUBLIC	?Send@CClientSock@@UAEXPADKK@Z			; CClientSock::Send
PUBLIC	?GetPeerAddr@CClientSock@@UAEJKPAXPAK@Z		; CClientSock::GetPeerAddr
PUBLIC	?GetPeerAddr@CClientSock@@UAEKK@Z		; CClientSock::GetPeerAddr
PUBLIC	??_GCClientSock@@UAEPAXI@Z			; CClientSock::`scalar deleting destructor'
PUBLIC	??1?$_Alloc_construct_ptr@V?$allocator@U?$_List_node@PAXPAX@std@@@std@@@std@@QAE@XZ ; std::_Alloc_construct_ptr<std::allocator<std::_List_node<void *,void *> > >::~_Alloc_construct_ptr<std::allocator<std::_List_node<void *,void *> > >
PUBLIC	??$_Allocate_manually_vector_aligned@U_Default_allocate_traits@std@@@std@@YAPAXI@Z ; std::_Allocate_manually_vector_aligned<std::_Default_allocate_traits>
PUBLIC	?_OptionsStorage@?1??__local_stdio_printf_options@@9@4_KA ; `__local_stdio_printf_options'::`2'::_OptionsStorage
PUBLIC	??_7CMclCritSec@@6B@				; CMclCritSec::`vftable'
PUBLIC	?m_pPool@CClientSock@@2PAV?$MemPooler@VCClientSock@@@@A ; CClientSock::m_pPool
PUBLIC	??_7CClientSock@@6B@				; CClientSock::`vftable'
PUBLIC	??_R4CMclCritSec@@6B@				; CMclCritSec::`RTTI Complete Object Locator'
PUBLIC	??_R0?AVCMclCritSec@@@8				; CMclCritSec `RTTI Type Descriptor'
PUBLIC	??_R3CMclCritSec@@8				; CMclCritSec::`RTTI Class Hierarchy Descriptor'
PUBLIC	??_R2CMclCritSec@@8				; CMclCritSec::`RTTI Base Class Array'
PUBLIC	??_R1A@?0A@EA@CMclCritSec@@8			; CMclCritSec::`RTTI Base Class Descriptor at (0,-1,0,64)'
PUBLIC	??_C@_0CI@ODKLMECE@CClientSocket?4Fetch?3?5ip?5?$DN?5?$CFs?0?5s@ ; `string'
PUBLIC	??_C@_0M@PCENNPGA@?$CFd?4?$CFd?4?$CFd?4?$CFd@	; `string'
PUBLIC	??_R4CClientSock@@6B@				; CClientSock::`RTTI Complete Object Locator'
PUBLIC	??_R0?AVCClientSock@@@8				; CClientSock `RTTI Type Descriptor'
PUBLIC	??_R3CClientSock@@8				; CClientSock::`RTTI Class Hierarchy Descriptor'
PUBLIC	??_R2CClientSock@@8				; CClientSock::`RTTI Base Class Array'
PUBLIC	??_R1A@?0A@EA@CClientSock@@8			; CClientSock::`RTTI Base Class Descriptor at (0,-1,0,64)'
PUBLIC	??_R1A@?0A@EA@CSock@@8				; CSock::`RTTI Base Class Descriptor at (0,-1,0,64)'
PUBLIC	??_R0?AVCSock@@@8				; CSock `RTTI Type Descriptor'
PUBLIC	??_R3CSock@@8					; CSock::`RTTI Class Hierarchy Descriptor'
PUBLIC	??_R2CSock@@8					; CSock::`RTTI Base Class Array'
EXTRN	??2@YAPAXI@Z:PROC				; operator new
EXTRN	??3@YAXPAXI@Z:PROC				; operator delete
EXTRN	?__global_delete@@YAXPAXI@Z:PROC		; __global_delete
EXTRN	__invoke_watson:PROC
EXTRN	__imp__InitializeCriticalSection@4:PROC
EXTRN	__imp__EnterCriticalSection@4:PROC
EXTRN	__imp__LeaveCriticalSection@4:PROC
EXTRN	__imp__InitializeCriticalSectionAndSpinCount@8:PROC
EXTRN	__imp__DeleteCriticalSection@4:PROC
EXTRN	__imp__VirtualAlloc@16:PROC
EXTRN	___stdio_common_vsprintf:PROC
EXTRN	__imp__closesocket@4:PROC
EXTRN	__imp__connect@12:PROC
EXTRN	__imp__getpeername@12:PROC
EXTRN	__imp__htons@4:PROC
EXTRN	__imp__inet_addr@4:PROC
EXTRN	__imp__shutdown@8:PROC
EXTRN	__imp__gethostbyname@4:PROC
EXTRN	__imp__WSASetLastError@4:PROC
EXTRN	__imp__WSAGetLastError@0:PROC
EXTRN	__imp__WSARecv@28:PROC
EXTRN	__imp__WSASend@28:PROC
EXTRN	?_Xlength_error@std@@YAXPBD@Z:PROC		; std::_Xlength_error
EXTRN	___std_exception_copy:PROC
EXTRN	___std_exception_destroy:PROC
EXTRN	??_ECMclCritSec@@UAEPAXI@Z:PROC			; CMclCritSec::`vector deleting destructor'
EXTRN	?Error@@YAPBDPBDZZ:PROC				; Error
EXTRN	??0CSock@@QAE@XZ:PROC				; CSock::CSock
EXTRN	??1CSock@@UAE@XZ:PROC				; CSock::~CSock
EXTRN	?Create@CSock@@UAEHGH@Z:PROC			; CSock::Create
EXTRN	?Attach@CSock@@UAEXI@Z:PROC			; CSock::Attach
EXTRN	?Detach@CSock@@UAEXXZ:PROC			; CSock::Detach
EXTRN	?GetHostAddr@CSock@@UAEJPAXPAK@Z:PROC		; CSock::GetHostAddr
EXTRN	??0CBufferQueue@@QAE@XZ:PROC			; CBufferQueue::CBufferQueue
EXTRN	??1CBufferQueue@@UAE@XZ:PROC			; CBufferQueue::~CBufferQueue
EXTRN	?AddData@CBufferQueue@@QAEXPAEKW4BUFFER_TYPE@@@Z:PROC ; CBufferQueue::AddData
EXTRN	?GetData@CBufferQueue@@QAEXPAU_WSABUF@@PAK@Z:PROC ; CBufferQueue::GetData
EXTRN	?RemoveData@CBufferQueue@@QAEXK@Z:PROC		; CBufferQueue::RemoveData
EXTRN	?CreateBuffer@CBufferFactory@@QAEPAVCBuffer@@W4BUFFER_TYPE@@K@Z:PROC ; CBufferFactory::CreateBuffer
EXTRN	?GetInstance@CBufferFactory@@SAAAV1@XZ:PROC	; CBufferFactory::GetInstance
EXTRN	??_ECClientSock@@UAEPAXI@Z:PROC			; CClientSock::`vector deleting destructor'
EXTRN	@__security_check_cookie@4:PROC
EXTRN	__CxxThrowException@8:PROC
EXTRN	___CxxFrameHandler3:PROC
EXTRN	_memcpy:PROC
EXTRN	_memset:PROC
EXTRN	___security_cookie:DWORD
;	COMDAT ?_OptionsStorage@?1??__local_stdio_printf_options@@9@4_KA
_BSS	SEGMENT
?_OptionsStorage@?1??__local_stdio_printf_options@@9@4_KA DQ 01H DUP (?) ; `__local_stdio_printf_options'::`2'::_OptionsStorage
_BSS	ENDS
_BSS	SEGMENT
?m_pPool@CClientSock@@2PAV?$MemPooler@VCClientSock@@@@A DD 01H DUP (?) ; CClientSock::m_pPool
_BSS	ENDS
CRT$XCU	SEGMENT
??m_pPool$initializer$@CClientSock@@2P6AXXZA@@3P6AXXZA DD FLAT:??__E?m_pPool@CClientSock@@2PAV?$MemPooler@VCClientSock@@@@A@@YAXXZ ; ??m_pPool$initializer$@CClientSock@@2P6AXXZA@@3P6AXXZA
CRT$XCU	ENDS
;	COMDAT ??_R2CSock@@8
rdata$r	SEGMENT
??_R2CSock@@8 DD FLAT:??_R1A@?0A@EA@CSock@@8		; CSock::`RTTI Base Class Array'
rdata$r	ENDS
;	COMDAT ??_R3CSock@@8
rdata$r	SEGMENT
??_R3CSock@@8 DD 00H					; CSock::`RTTI Class Hierarchy Descriptor'
	DD	00H
	DD	01H
	DD	FLAT:??_R2CSock@@8
rdata$r	ENDS
;	COMDAT ??_R0?AVCSock@@@8
data$rs	SEGMENT
??_R0?AVCSock@@@8 DD FLAT:??_7type_info@@6B@		; CSock `RTTI Type Descriptor'
	DD	00H
	DB	'.?AVCSock@@', 00H
data$rs	ENDS
;	COMDAT ??_R1A@?0A@EA@CSock@@8
rdata$r	SEGMENT
??_R1A@?0A@EA@CSock@@8 DD FLAT:??_R0?AVCSock@@@8	; CSock::`RTTI Base Class Descriptor at (0,-1,0,64)'
	DD	00H
	DD	00H
	DD	0ffffffffH
	DD	00H
	DD	040H
	DD	FLAT:??_R3CSock@@8
rdata$r	ENDS
;	COMDAT ??_R1A@?0A@EA@CClientSock@@8
rdata$r	SEGMENT
??_R1A@?0A@EA@CClientSock@@8 DD FLAT:??_R0?AVCClientSock@@@8 ; CClientSock::`RTTI Base Class Descriptor at (0,-1,0,64)'
	DD	01H
	DD	00H
	DD	0ffffffffH
	DD	00H
	DD	040H
	DD	FLAT:??_R3CClientSock@@8
rdata$r	ENDS
;	COMDAT ??_R2CClientSock@@8
rdata$r	SEGMENT
??_R2CClientSock@@8 DD FLAT:??_R1A@?0A@EA@CClientSock@@8 ; CClientSock::`RTTI Base Class Array'
	DD	FLAT:??_R1A@?0A@EA@CSock@@8
rdata$r	ENDS
;	COMDAT ??_R3CClientSock@@8
rdata$r	SEGMENT
??_R3CClientSock@@8 DD 00H				; CClientSock::`RTTI Class Hierarchy Descriptor'
	DD	00H
	DD	02H
	DD	FLAT:??_R2CClientSock@@8
rdata$r	ENDS
;	COMDAT ??_R0?AVCClientSock@@@8
data$rs	SEGMENT
??_R0?AVCClientSock@@@8 DD FLAT:??_7type_info@@6B@	; CClientSock `RTTI Type Descriptor'
	DD	00H
	DB	'.?AVCClientSock@@', 00H
data$rs	ENDS
;	COMDAT ??_R4CClientSock@@6B@
rdata$r	SEGMENT
??_R4CClientSock@@6B@ DD 00H				; CClientSock::`RTTI Complete Object Locator'
	DD	00H
	DD	00H
	DD	FLAT:??_R0?AVCClientSock@@@8
	DD	FLAT:??_R3CClientSock@@8
rdata$r	ENDS
;	COMDAT ??_C@_0M@PCENNPGA@?$CFd?4?$CFd?4?$CFd?4?$CFd@
CONST	SEGMENT
??_C@_0M@PCENNPGA@?$CFd?4?$CFd?4?$CFd?4?$CFd@ DB '%d.%d.%d.%d', 00H ; `string'
CONST	ENDS
;	COMDAT ??_C@_0CI@ODKLMECE@CClientSocket?4Fetch?3?5ip?5?$DN?5?$CFs?0?5s@
CONST	SEGMENT
??_C@_0CI@ODKLMECE@CClientSocket?4Fetch?3?5ip?5?$DN?5?$CFs?0?5s@ DB 'CCli'
	DB	'entSocket.Fetch: ip = %s, size = %d', 00H	; `string'
CONST	ENDS
;	COMDAT ??_R1A@?0A@EA@CMclCritSec@@8
rdata$r	SEGMENT
??_R1A@?0A@EA@CMclCritSec@@8 DD FLAT:??_R0?AVCMclCritSec@@@8 ; CMclCritSec::`RTTI Base Class Descriptor at (0,-1,0,64)'
	DD	00H
	DD	00H
	DD	0ffffffffH
	DD	00H
	DD	040H
	DD	FLAT:??_R3CMclCritSec@@8
rdata$r	ENDS
;	COMDAT ??_R2CMclCritSec@@8
rdata$r	SEGMENT
??_R2CMclCritSec@@8 DD FLAT:??_R1A@?0A@EA@CMclCritSec@@8 ; CMclCritSec::`RTTI Base Class Array'
rdata$r	ENDS
;	COMDAT ??_R3CMclCritSec@@8
rdata$r	SEGMENT
??_R3CMclCritSec@@8 DD 00H				; CMclCritSec::`RTTI Class Hierarchy Descriptor'
	DD	00H
	DD	01H
	DD	FLAT:??_R2CMclCritSec@@8
rdata$r	ENDS
;	COMDAT ??_R0?AVCMclCritSec@@@8
data$rs	SEGMENT
??_R0?AVCMclCritSec@@@8 DD FLAT:??_7type_info@@6B@	; CMclCritSec `RTTI Type Descriptor'
	DD	00H
	DB	'.?AVCMclCritSec@@', 00H
data$rs	ENDS
;	COMDAT ??_R4CMclCritSec@@6B@
rdata$r	SEGMENT
??_R4CMclCritSec@@6B@ DD 00H				; CMclCritSec::`RTTI Complete Object Locator'
	DD	00H
	DD	00H
	DD	FLAT:??_R0?AVCMclCritSec@@@8
	DD	FLAT:??_R3CMclCritSec@@8
rdata$r	ENDS
;	COMDAT ??_7CClientSock@@6B@
CONST	SEGMENT
??_7CClientSock@@6B@ DD FLAT:??_R4CClientSock@@6B@	; CClientSock::`vftable'
	DD	FLAT:??_ECClientSock@@UAEPAXI@Z
	DD	FLAT:?Create@CSock@@UAEHGH@Z
	DD	FLAT:?Attach@CSock@@UAEXI@Z
	DD	FLAT:?Detach@CSock@@UAEXXZ
	DD	FLAT:?GetHostAddr@CSock@@UAEJPAXPAK@Z
	DD	FLAT:?GetPeerAddr@CClientSock@@UAEKK@Z
	DD	FLAT:?GetPeerAddr@CClientSock@@UAEJKPAXPAK@Z
	DD	FLAT:?Close@CClientSock@@UAEXXZ
	DD	FLAT:?CloseConnection@CClientSock@@UAEHI@Z
	DD	FLAT:?Shutdown@CClientSock@@UAEHI@Z
	DD	FLAT:?Send@CClientSock@@UAEXPADKK@Z
	DD	FLAT:?Get@CSock@@UAEPAV1@I@Z
CONST	ENDS
;	COMDAT ??_7CMclCritSec@@6B@
CONST	SEGMENT
??_7CMclCritSec@@6B@ DD FLAT:??_R4CMclCritSec@@6B@	; CMclCritSec::`vftable'
	DD	FLAT:??_ECMclCritSec@@UAEPAXI@Z
CONST	ENDS
;	COMDAT xdata$x
xdata$x	SEGMENT
__unwindtable$??__E?m_pPool@CClientSock@@2PAV?$MemPooler@VCClientSock@@@@A@@YAXXZ DD 0ffffffffH
	DD	FLAT:__unwindfunclet$??__E?m_pPool@CClientSock@@2PAV?$MemPooler@VCClientSock@@@@A@@YAXXZ$0
	DD	00H
	DD	FLAT:__unwindfunclet$??__E?m_pPool@CClientSock@@2PAV?$MemPooler@VCClientSock@@@@A@@YAXXZ$1
	DD	01H
	DD	FLAT:__unwindfunclet$??__E?m_pPool@CClientSock@@2PAV?$MemPooler@VCClientSock@@@@A@@YAXXZ$3
__ehfuncinfo$??__E?m_pPool@CClientSock@@2PAV?$MemPooler@VCClientSock@@@@A@@YAXXZ DD 019930522H
	DD	03H
	DD	FLAT:__unwindtable$??__E?m_pPool@CClientSock@@2PAV?$MemPooler@VCClientSock@@@@A@@YAXXZ
	DD	2 DUP(00H)
	DD	2 DUP(00H)
	DD	00H
	DD	01H
xdata$x	ENDS
;	COMDAT xdata$x
xdata$x	SEGMENT
__unwindtable$??$?0ABQAX@?$_List_node_emplace_op2@V?$allocator@U?$_List_node@PAXPAX@std@@@std@@@std@@QAE@AAV?$allocator@U?$_List_node@PAXPAX@std@@@1@ABQAX@Z DD 0ffffffffH
	DD	FLAT:__unwindfunclet$??$?0ABQAX@?$_List_node_emplace_op2@V?$allocator@U?$_List_node@PAXPAX@std@@@std@@@std@@QAE@AAV?$allocator@U?$_List_node@PAXPAX@std@@@1@ABQAX@Z$0
__ehfuncinfo$??$?0ABQAX@?$_List_node_emplace_op2@V?$allocator@U?$_List_node@PAXPAX@std@@@std@@@std@@QAE@AAV?$allocator@U?$_List_node@PAXPAX@std@@@1@ABQAX@Z DD 019930522H
	DD	01H
	DD	FLAT:__unwindtable$??$?0ABQAX@?$_List_node_emplace_op2@V?$allocator@U?$_List_node@PAXPAX@std@@@std@@@std@@QAE@AAV?$allocator@U?$_List_node@PAXPAX@std@@@1@ABQAX@Z
	DD	2 DUP(00H)
	DD	2 DUP(00H)
	DD	00H
	DD	01H
xdata$x	ENDS
;	COMDAT xdata$x
xdata$x	SEGMENT
__unwindtable$??$_Emplace@ABQAX@?$list@PAXV?$allocator@PAX@std@@@std@@QAEPAU?$_List_node@PAXPAX@1@QAU21@ABQAX@Z DD 0ffffffffH
	DD	FLAT:__unwindfunclet$??$_Emplace@ABQAX@?$list@PAXV?$allocator@PAX@std@@@std@@QAEPAU?$_List_node@PAXPAX@1@QAU21@ABQAX@Z$1
__ehfuncinfo$??$_Emplace@ABQAX@?$list@PAXV?$allocator@PAX@std@@@std@@QAEPAU?$_List_node@PAXPAX@1@QAU21@ABQAX@Z DD 019930522H
	DD	01H
	DD	FLAT:__unwindtable$??$_Emplace@ABQAX@?$list@PAXV?$allocator@PAX@std@@@std@@QAEPAU?$_List_node@PAXPAX@1@QAU21@ABQAX@Z
	DD	2 DUP(00H)
	DD	2 DUP(00H)
	DD	00H
	DD	01H
xdata$x	ENDS
;	COMDAT xdata$x
xdata$x	SEGMENT
__unwindtable$?Create@?$MemPooler@VCClientSock@@@@IAEXXZ DD 0ffffffffH
	DD	FLAT:__unwindfunclet$?Create@?$MemPooler@VCClientSock@@@@IAEXXZ$1
__ehfuncinfo$?Create@?$MemPooler@VCClientSock@@@@IAEXXZ DD 019930522H
	DD	01H
	DD	FLAT:__unwindtable$?Create@?$MemPooler@VCClientSock@@@@IAEXXZ
	DD	2 DUP(00H)
	DD	2 DUP(00H)
	DD	00H
	DD	01H
xdata$x	ENDS
;	COMDAT xdata$x
xdata$x	SEGMENT
__unwindtable$??0?$MemPooler@VCClientSock@@@@QAE@H@Z DD 0ffffffffH
	DD	FLAT:__unwindfunclet$??0?$MemPooler@VCClientSock@@@@QAE@H@Z$0
	DD	00H
	DD	FLAT:__unwindfunclet$??0?$MemPooler@VCClientSock@@@@QAE@H@Z$2
__ehfuncinfo$??0?$MemPooler@VCClientSock@@@@QAE@H@Z DD 019930522H
	DD	02H
	DD	FLAT:__unwindtable$??0?$MemPooler@VCClientSock@@@@QAE@H@Z
	DD	2 DUP(00H)
	DD	2 DUP(00H)
	DD	00H
	DD	01H
xdata$x	ENDS
;	COMDAT xdata$x
xdata$x	SEGMENT
__unwindtable$?Send@CClientSock@@UAEXPADKK@Z DD 0ffffffffH
	DD	FLAT:__unwindfunclet$?Send@CClientSock@@UAEXPADKK@Z$0
	DD	00H
	DD	FLAT:__unwindfunclet$?Send@CClientSock@@UAEXPADKK@Z$1
__ehfuncinfo$?Send@CClientSock@@UAEXPADKK@Z DD 019930522H
	DD	02H
	DD	FLAT:__unwindtable$?Send@CClientSock@@UAEXPADKK@Z
	DD	2 DUP(00H)
	DD	2 DUP(00H)
	DD	00H
	DD	01H
xdata$x	ENDS
;	COMDAT xdata$x
xdata$x	SEGMENT
__unwindtable$?SendRemnant@CClientSock@@QAEHK@Z DD 0ffffffffH
	DD	FLAT:__unwindfunclet$?SendRemnant@CClientSock@@QAEHK@Z$0
__ehfuncinfo$?SendRemnant@CClientSock@@QAEHK@Z DD 019930522H
	DD	01H
	DD	FLAT:__unwindtable$?SendRemnant@CClientSock@@QAEHK@Z
	DD	2 DUP(00H)
	DD	2 DUP(00H)
	DD	00H
	DD	01H
xdata$x	ENDS
;	COMDAT xdata$x
xdata$x	SEGMENT
__unwindtable$??0CClientSock@@QAE@W4BUFFER_TYPE@@@Z DD 0ffffffffH
	DD	FLAT:__unwindfunclet$??0CClientSock@@QAE@W4BUFFER_TYPE@@@Z$0
	DD	00H
	DD	FLAT:__unwindfunclet$??0CClientSock@@QAE@W4BUFFER_TYPE@@@Z$1
	DD	01H
	DD	FLAT:__unwindfunclet$??0CClientSock@@QAE@W4BUFFER_TYPE@@@Z$2
__ehfuncinfo$??0CClientSock@@QAE@W4BUFFER_TYPE@@@Z DD 019930522H
	DD	03H
	DD	FLAT:__unwindtable$??0CClientSock@@QAE@W4BUFFER_TYPE@@@Z
	DD	2 DUP(00H)
	DD	2 DUP(00H)
	DD	00H
	DD	01H
xdata$x	ENDS
;	COMDAT xdata$x
xdata$x	SEGMENT
__unwindtable$?push_back@?$list@PAXV?$allocator@PAX@std@@@std@@QAEXABQAX@Z DD 0ffffffffH
	DD	FLAT:__unwindfunclet$?push_back@?$list@PAXV?$allocator@PAX@std@@@std@@QAEXABQAX@Z$1
__ehfuncinfo$?push_back@?$list@PAXV?$allocator@PAX@std@@@std@@QAEXABQAX@Z DD 019930522H
	DD	01H
	DD	FLAT:__unwindtable$?push_back@?$list@PAXV?$allocator@PAX@std@@@std@@QAEXABQAX@Z
	DD	2 DUP(00H)
	DD	2 DUP(00H)
	DD	00H
	DD	01H
xdata$x	ENDS
; Function compile flags: /Ogtp
; File C:\IAGOS\server\v18\Source\Source\_network\net\src\clientsock.cpp
; File C:\IAGOS\server\v18\Source\Source\_Network\Misc\Include\mempooler.h
; File C:\Program Files\Microsoft Visual Studio\2022\Professional\VC\Tools\MSVC\14.44.35207\include\xmemory
; File C:\Program Files\Microsoft Visual Studio\2022\Professional\VC\Tools\MSVC\14.44.35207\include\list
; File C:\Program Files\Microsoft Visual Studio\2022\Professional\VC\Tools\MSVC\14.44.35207\include\xmemory
; File C:\Program Files\Microsoft Visual Studio\2022\Professional\VC\Tools\MSVC\14.44.35207\include\list
; File C:\IAGOS\server\v18\Source\Source\_Network\Misc\Include\mempooler.h
; File C:\Program Files\Microsoft Visual Studio\2022\Professional\VC\Tools\MSVC\14.44.35207\include\list
; File C:\Program Files\Microsoft Visual Studio\2022\Professional\VC\Tools\MSVC\14.44.35207\include\xmemory
; File C:\Program Files\Microsoft Visual Studio\2022\Professional\VC\Tools\MSVC\14.44.35207\include\list
; File C:\Program Files\Microsoft Visual Studio\2022\Professional\VC\Tools\MSVC\14.44.35207\include\xmemory
; File C:\Program Files\Microsoft Visual Studio\2022\Professional\VC\Tools\MSVC\14.44.35207\include\list
; File C:\Program Files\Microsoft Visual Studio\2022\Professional\VC\Tools\MSVC\14.44.35207\include\xmemory
; File C:\Program Files\Microsoft Visual Studio\2022\Professional\VC\Tools\MSVC\14.44.35207\include\list
; File C:\IAGOS\server\v18\Source\Source\_Network\Misc\Include\mempooler.h
; File C:\IAGOS\server\v18\Source\Source\_network\net\src\clientsock.cpp
; File C:\Program Files\Microsoft Visual Studio\2022\Professional\VC\Tools\MSVC\14.44.35207\include\list
; File C:\IAGOS\server\v18\Source\Source\_network\net\src\clientsock.cpp
;	COMDAT ??__E?m_pPool@CClientSock@@2PAV?$MemPooler@VCClientSock@@@@A@@YAXXZ
text$di	SEGMENT
__Op$2 = -28						; size = 8
$T3 = -20						; size = 4
_pMemBlock$1$ = -16					; size = 4
__$EHRec$ = -12						; size = 12
??__E?m_pPool@CClientSock@@2PAV?$MemPooler@VCClientSock@@@@A@@YAXXZ PROC ; `dynamic initializer for 'CClientSock::m_pPool'', COMDAT

; 32   : 	MemPooler<CClientSock>*	CClientSock::m_pPool	= new MemPooler<CClientSock>( 4 );

  00000	55		 push	 ebp
  00001	8b ec		 mov	 ebp, esp
  00003	6a ff		 push	 -1
  00005	68 00 00 00 00	 push	 __ehhandler$??__E?m_pPool@CClientSock@@2PAV?$MemPooler@VCClientSock@@@@A@@YAXXZ
  0000a	64 a1 00 00 00
	00		 mov	 eax, DWORD PTR fs:0
  00010	50		 push	 eax
  00011	83 ec 10	 sub	 esp, 16			; 00000010H
  00014	53		 push	 ebx
  00015	56		 push	 esi
  00016	57		 push	 edi
  00017	a1 00 00 00 00	 mov	 eax, DWORD PTR ___security_cookie
  0001c	33 c5		 xor	 eax, ebp
  0001e	50		 push	 eax
  0001f	8d 45 f4	 lea	 eax, DWORD PTR __$EHRec$[ebp]
  00022	64 a3 00 00 00
	00		 mov	 DWORD PTR fs:0, eax
  00028	68 94 00 00 00	 push	 148			; 00000094H
  0002d	e8 00 00 00 00	 call	 ??2@YAPAXI@Z		; operator new
  00032	8b f0		 mov	 esi, eax
  00034	83 c4 04	 add	 esp, 4
  00037	89 75 ec	 mov	 DWORD PTR $T3[ebp], esi
  0003a	c7 45 fc 00 00
	00 00		 mov	 DWORD PTR __$EHRec$[ebp+8], 0
  00041	85 f6		 test	 esi, esi
  00043	0f 84 d7 00 00
	00		 je	 $LN3@m_pPool
; File C:\IAGOS\server\v18\Source\Source\_Network\Misc\Include\mempooler.h

; 36   : 													m_pFreeList( NULL ),

  00049	c7 06 00 00 00
	00		 mov	 DWORD PTR [esi], 0

; 37   : 													m_nAllocCount( 0 )
; 38   : #endif	// __VM_0819
; 39   : 		{

  0004f	8d 7e 04	 lea	 edi, DWORD PTR [esi+4]
; File C:\Program Files\Microsoft Visual Studio\2022\Professional\VC\Tools\MSVC\14.44.35207\include\xmemory

; 136  :         return ::operator new(_Bytes);

  00052	6a 0c		 push	 12			; 0000000cH
; File C:\Program Files\Microsoft Visual Studio\2022\Professional\VC\Tools\MSVC\14.44.35207\include\list

; 353  :     _List_val() noexcept : _Myhead(), _Mysize(0) {} // initialize data

  00054	c7 07 00 00 00
	00		 mov	 DWORD PTR [edi], 0
  0005a	c7 47 04 00 00
	00 00		 mov	 DWORD PTR [edi+4], 0
; File C:\Program Files\Microsoft Visual Studio\2022\Professional\VC\Tools\MSVC\14.44.35207\include\xmemory

; 136  :         return ::operator new(_Bytes);

  00061	e8 00 00 00 00	 call	 ??2@YAPAXI@Z		; operator new
  00066	83 c4 04	 add	 esp, 4
; File C:\Program Files\Microsoft Visual Studio\2022\Professional\VC\Tools\MSVC\14.44.35207\include\list

; 1852 :         _Construct_in_place(_Newhead->_Next, _Newhead);

  00069	89 00		 mov	 DWORD PTR [eax], eax

; 1853 :         _Construct_in_place(_Newhead->_Prev, _Newhead);

  0006b	89 40 04	 mov	 DWORD PTR [eax+4], eax

; 1854 :         _Mypair._Myval2._Myhead = _Newhead;

  0006e	89 07		 mov	 DWORD PTR [edi], eax
; File C:\IAGOS\server\v18\Source\Source\_Network\Misc\Include\mempooler.h

; 48   : 			InitializeCriticalSectionAndSpinCount( &m_cs, 2000 );

  00070	68 d0 07 00 00	 push	 2000			; 000007d0H
  00075	8d 46 18	 lea	 eax, DWORD PTR [esi+24]
  00078	c6 45 fc 01	 mov	 BYTE PTR __$EHRec$[ebp+8], 1
  0007c	50		 push	 eax
  0007d	c7 46 0c 04 00
	00 00		 mov	 DWORD PTR [esi+12], 4
  00084	c7 46 14 00 00
	00 00		 mov	 DWORD PTR [esi+20], 0
  0008b	c7 46 10 98 04
	00 00		 mov	 DWORD PTR [esi+16], 1176 ; 00000498H
  00092	ff 15 00 00 00
	00		 call	 DWORD PTR __imp__InitializeCriticalSectionAndSpinCount@8

; 127  : 			const int AllocationSize	= m_nListBlockSize * m_nNumOfBlock;

  00098	8b 46 10	 mov	 eax, DWORD PTR [esi+16]
  0009b	0f af 46 0c	 imul	 eax, DWORD PTR [esi+12]

; 128  : 			void* pMemBlock		= VirtualAlloc( NULL, AllocationSize, MEM_RESERVE | MEM_COMMIT, PAGE_READWRITE );

  0009f	6a 04		 push	 4
  000a1	68 00 30 00 00	 push	 12288			; 00003000H
  000a6	50		 push	 eax
  000a7	6a 00		 push	 0
  000a9	ff 15 00 00 00
	00		 call	 DWORD PTR __imp__VirtualAlloc@16
  000af	89 45 f0	 mov	 DWORD PTR _pMemBlock$1$[ebp], eax
  000b2	85 c0		 test	 eax, eax

; 129  : 			ASSERT( pMemBlock );
; 130  : 			if( !pMemBlock )

  000b4	75 0d		 jne	 SHORT $LN38@m_pPool

; 131  : 				Error( "bad alloc" );

  000b6	68 00 00 00 00	 push	 OFFSET ??_C@_09PKKCPLIP@bad?5alloc@
  000bb	e8 00 00 00 00	 call	 ?Error@@YAPBDPBDZZ	; Error
  000c0	83 c4 04	 add	 esp, 4
$LN38@m_pPool:
; File C:\Program Files\Microsoft Visual Studio\2022\Professional\VC\Tools\MSVC\14.44.35207\include\list

; 1030 :         if (_Mysize == max_size()) {

  000c3	81 7f 04 55 55
	55 15		 cmp	 DWORD PTR [edi+4], 357913941 ; 15555555H

; 1274 :         _Emplace(_Mypair._Myval2._Myhead, _Val);

  000ca	8b 1f		 mov	 ebx, DWORD PTR [edi]

; 1030 :         if (_Mysize == max_size()) {

  000cc	74 6c		 je	 SHORT $LN106@m_pPool
; File C:\Program Files\Microsoft Visual Studio\2022\Professional\VC\Tools\MSVC\14.44.35207\include\xmemory

; 1160 :     _CONSTEXPR20 explicit _Alloc_construct_ptr(_Alloc& _Al_) : _Al(_Al_), _Ptr(nullptr) {}

  000ce	89 7d e4	 mov	 DWORD PTR __Op$2[ebp], edi

; 136  :         return ::operator new(_Bytes);

  000d1	6a 0c		 push	 12			; 0000000cH
; File C:\Program Files\Microsoft Visual Studio\2022\Professional\VC\Tools\MSVC\14.44.35207\include\list

; 593  :     explicit _List_node_emplace_op2(_Alnode& _Al_, _Valtys&&... _Vals) : _Alloc_construct_ptr<_Alnode>(_Al_) {

  000d3	c6 45 fc 02	 mov	 BYTE PTR __$EHRec$[ebp+8], 2
; File C:\Program Files\Microsoft Visual Studio\2022\Professional\VC\Tools\MSVC\14.44.35207\include\xmemory

; 1167 :         _Ptr = nullptr; // if allocate throws, prevents double-free

  000d7	c7 45 e8 00 00
	00 00		 mov	 DWORD PTR __Op$2[ebp+4], 0

; 136  :         return ::operator new(_Bytes);

  000de	e8 00 00 00 00	 call	 ??2@YAPAXI@Z		; operator new
; File C:\Program Files\Microsoft Visual Studio\2022\Professional\VC\Tools\MSVC\14.44.35207\include\list

; 595  :         _Alnode_traits::construct(this->_Al, _STD addressof(this->_Ptr->_Myval), _STD forward<_Valtys>(_Vals)...);

  000e3	8b 4d f0	 mov	 ecx, DWORD PTR _pMemBlock$1$[ebp]
; File C:\Program Files\Microsoft Visual Studio\2022\Professional\VC\Tools\MSVC\14.44.35207\include\xmemory

; 136  :         return ::operator new(_Bytes);

  000e6	83 c4 04	 add	 esp, 4
; File C:\Program Files\Microsoft Visual Studio\2022\Professional\VC\Tools\MSVC\14.44.35207\include\list

; 595  :         _Alnode_traits::construct(this->_Al, _STD addressof(this->_Ptr->_Myval), _STD forward<_Valtys>(_Vals)...);

  000e9	89 48 08	 mov	 DWORD PTR [eax+8], ecx

; 1035 :         ++_Mysize;

  000ec	ff 47 04	 inc	 DWORD PTR [edi+4]

; 608  :         const pointer _Insert_after = _Insert_before->_Prev;

  000ef	8b 4b 04	 mov	 ecx, DWORD PTR [ebx+4]

; 609  :         _Construct_in_place(this->_Ptr->_Next, _Insert_before);

  000f2	89 18		 mov	 DWORD PTR [eax], ebx

; 610  :         _Construct_in_place(this->_Ptr->_Prev, _Insert_after);

  000f4	89 48 04	 mov	 DWORD PTR [eax+4], ecx

; 611  :         const auto _Result    = this->_Ptr;
; 612  :         this->_Ptr            = pointer{};
; 613  :         _Insert_before->_Prev = _Result;

  000f7	89 43 04	 mov	 DWORD PTR [ebx+4], eax

; 614  :         _Insert_after->_Next  = _Result;

  000fa	89 01		 mov	 DWORD PTR [ecx], eax
; File C:\IAGOS\server\v18\Source\Source\_Network\Misc\Include\mempooler.h

; 134  : 			pNode	= reinterpret_cast<BlockNode*>( ( reinterpret_cast<DWORD>( pNode ) ) + ( m_nNumOfBlock - 1 ) * ( m_nListBlockSize ) );	// set pNode to last

  000fc	8b 56 0c	 mov	 edx, DWORD PTR [esi+12]
  000ff	8b 4e 10	 mov	 ecx, DWORD PTR [esi+16]
  00102	4a		 dec	 edx
  00103	0f af ca	 imul	 ecx, edx
  00106	03 4d f0	 add	 ecx, DWORD PTR _pMemBlock$1$[ebp]

; 135  : 			for( int i = m_nNumOfBlock - 1; i >= 0; i-- )

  00109	85 d2		 test	 edx, edx
  0010b	78 15		 js	 SHORT $LN4@m_pPool
  0010d	0f 1f 00	 npad	 3
$LL37@m_pPool:

; 136  : 			{
; 137  : 				pNode->pNext	= m_pFreeList;

  00110	8b 06		 mov	 eax, DWORD PTR [esi]
  00112	89 01		 mov	 DWORD PTR [ecx], eax

; 138  : 				m_pFreeList	= pNode;

  00114	89 0e		 mov	 DWORD PTR [esi], ecx

; 139  : 				pNode	= reinterpret_cast<BlockNode*>( ( reinterpret_cast<DWORD>( pNode ) ) - m_nListBlockSize );	// set pNode to previous

  00116	2b 4e 10	 sub	 ecx, DWORD PTR [esi+16]
  00119	83 ea 01	 sub	 edx, 1
  0011c	79 f2		 jns	 SHORT $LL37@m_pPool
; File C:\IAGOS\server\v18\Source\Source\_network\net\src\clientsock.cpp

; 32   : 	MemPooler<CClientSock>*	CClientSock::m_pPool	= new MemPooler<CClientSock>( 4 );

  0011e	eb 02		 jmp	 SHORT $LN4@m_pPool
$LN3@m_pPool:
  00120	33 f6		 xor	 esi, esi
$LN4@m_pPool:
  00122	89 35 00 00 00
	00		 mov	 DWORD PTR ?m_pPool@CClientSock@@2PAV?$MemPooler@VCClientSock@@@@A, esi ; CClientSock::m_pPool
  00128	8b 4d f4	 mov	 ecx, DWORD PTR __$EHRec$[ebp]
  0012b	64 89 0d 00 00
	00 00		 mov	 DWORD PTR fs:0, ecx
  00132	59		 pop	 ecx
  00133	5f		 pop	 edi
  00134	5e		 pop	 esi
  00135	5b		 pop	 ebx
  00136	8b e5		 mov	 esp, ebp
  00138	5d		 pop	 ebp
  00139	c3		 ret	 0
$LN106@m_pPool:
; File C:\Program Files\Microsoft Visual Studio\2022\Professional\VC\Tools\MSVC\14.44.35207\include\list

; 1031 :             _Xlength_error("list too long");

  0013a	68 00 00 00 00	 push	 OFFSET ??_C@_0O@NKNMEGII@list?5too?5long@
  0013f	e8 00 00 00 00	 call	 ?_Xlength_error@std@@YAXPBD@Z ; std::_Xlength_error
$LN104@m_pPool:
  00144	cc		 int	 3
text$di	ENDS
;	COMDAT text$x
text$x	SEGMENT
__unwindfunclet$??__E?m_pPool@CClientSock@@2PAV?$MemPooler@VCClientSock@@@@A@@YAXXZ$0:
  00000	68 94 00 00 00	 push	 148			; 00000094H
  00005	8b 45 ec	 mov	 eax, DWORD PTR $T3[ebp]
  00008	50		 push	 eax
  00009	e8 00 00 00 00	 call	 ??3@YAXPAXI@Z		; operator delete
  0000e	83 c4 08	 add	 esp, 8
  00011	c3		 ret	 0
__unwindfunclet$??__E?m_pPool@CClientSock@@2PAV?$MemPooler@VCClientSock@@@@A@@YAXXZ$1:
  00012	8b 4d ec	 mov	 ecx, DWORD PTR $T3[ebp]
  00015	83 c1 04	 add	 ecx, 4
  00018	e9 00 00 00 00	 jmp	 ??1?$list@PAXV?$allocator@PAX@std@@@std@@QAE@XZ ; std::list<void *,std::allocator<void *> >::~list<void *,std::allocator<void *> >
__unwindfunclet$??__E?m_pPool@CClientSock@@2PAV?$MemPooler@VCClientSock@@@@A@@YAXXZ$3:
  0001d	8d 4d e4	 lea	 ecx, DWORD PTR __Op$2[ebp]
  00020	e9 00 00 00 00	 jmp	 ??1?$_Alloc_construct_ptr@V?$allocator@U?$_List_node@PAXPAX@std@@@std@@@std@@QAE@XZ ; std::_Alloc_construct_ptr<std::allocator<std::_List_node<void *,void *> > >::~_Alloc_construct_ptr<std::allocator<std::_List_node<void *,void *> > >
  00025	cc		 int	 3
  00026	cc		 int	 3
  00027	cc		 int	 3
  00028	cc		 int	 3
  00029	cc		 int	 3
__ehhandler$??__E?m_pPool@CClientSock@@2PAV?$MemPooler@VCClientSock@@@@A@@YAXXZ:
  0002a	90		 npad	 1
  0002b	90		 npad	 1
  0002c	8b 54 24 08	 mov	 edx, DWORD PTR [esp+8]
  00030	8d 42 0c	 lea	 eax, DWORD PTR [edx+12]
  00033	8b 4a e0	 mov	 ecx, DWORD PTR [edx-32]
  00036	33 c8		 xor	 ecx, eax
  00038	e8 00 00 00 00	 call	 @__security_check_cookie@4
  0003d	b8 00 00 00 00	 mov	 eax, OFFSET __ehfuncinfo$??__E?m_pPool@CClientSock@@2PAV?$MemPooler@VCClientSock@@@@A@@YAXXZ
  00042	e9 00 00 00 00	 jmp	 ___CxxFrameHandler3
text$x	ENDS
??__E?m_pPool@CClientSock@@2PAV?$MemPooler@VCClientSock@@@@A@@YAXXZ ENDP ; `dynamic initializer for 'CClientSock::m_pPool''
; Function compile flags: /Ogtp
; File C:\Program Files\Microsoft Visual Studio\2022\Professional\VC\Tools\MSVC\14.44.35207\include\xmemory
;	COMDAT ??$_Allocate_manually_vector_aligned@U_Default_allocate_traits@std@@@std@@YAPAXI@Z
_TEXT	SEGMENT
__Bytes$ = 8						; size = 4
??$_Allocate_manually_vector_aligned@U_Default_allocate_traits@std@@@std@@YAPAXI@Z PROC ; std::_Allocate_manually_vector_aligned<std::_Default_allocate_traits>, COMDAT

; 182  : __declspec(allocator) void* _Allocate_manually_vector_aligned(const size_t _Bytes) {

  00000	55		 push	 ebp
  00001	8b ec		 mov	 ebp, esp

; 183  :     // allocate _Bytes manually aligned to at least _Big_allocation_alignment
; 184  :     const size_t _Block_size = _Non_user_size + _Bytes;

  00003	8b 45 08	 mov	 eax, DWORD PTR __Bytes$[ebp]
  00006	8d 48 23	 lea	 ecx, DWORD PTR [eax+35]

; 185  :     if (_Block_size <= _Bytes) {

  00009	3b c8		 cmp	 ecx, eax
  0000b	0f 86 00 00 00
	00		 jbe	 ?_Throw_bad_array_new_length@std@@YAXXZ ; std::_Throw_bad_array_new_length

; 136  :         return ::operator new(_Bytes);

  00011	51		 push	 ecx
  00012	e8 00 00 00 00	 call	 ??2@YAPAXI@Z		; operator new

; 186  :         _Throw_bad_array_new_length(); // add overflow
; 187  :     }
; 188  : 
; 189  :     const uintptr_t _Ptr_container = reinterpret_cast<uintptr_t>(_Traits::_Allocate(_Block_size));

  00017	8b c8		 mov	 ecx, eax

; 136  :         return ::operator new(_Bytes);

  00019	83 c4 04	 add	 esp, 4

; 190  :     _STL_VERIFY(_Ptr_container != 0, "invalid argument"); // validate even in release since we're doing p[-1]

  0001c	85 c9		 test	 ecx, ecx
  0001e	74 0b		 je	 SHORT $LN9@Allocate_m

; 191  :     void* const _Ptr = reinterpret_cast<void*>((_Ptr_container + _Non_user_size) & ~(_Big_allocation_alignment - 1));

  00020	8d 41 23	 lea	 eax, DWORD PTR [ecx+35]
  00023	83 e0 e0	 and	 eax, -32		; ffffffe0H

; 192  :     static_cast<uintptr_t*>(_Ptr)[-1] = _Ptr_container;

  00026	89 48 fc	 mov	 DWORD PTR [eax-4], ecx

; 193  : 
; 194  : #ifdef _DEBUG
; 195  :     static_cast<uintptr_t*>(_Ptr)[-2] = _Big_allocation_sentinel;
; 196  : #endif // defined(_DEBUG)
; 197  :     return _Ptr;
; 198  : }

  00029	5d		 pop	 ebp
  0002a	c3		 ret	 0
$LN9@Allocate_m:

; 190  :     _STL_VERIFY(_Ptr_container != 0, "invalid argument"); // validate even in release since we're doing p[-1]

  0002b	6a 00		 push	 0
  0002d	6a 00		 push	 0
  0002f	6a 00		 push	 0
  00031	6a 00		 push	 0
  00033	6a 00		 push	 0
  00035	e8 00 00 00 00	 call	 __invoke_watson
$LN7@Allocate_m:
  0003a	cc		 int	 3
??$_Allocate_manually_vector_aligned@U_Default_allocate_traits@std@@@std@@YAPAXI@Z ENDP ; std::_Allocate_manually_vector_aligned<std::_Default_allocate_traits>
_TEXT	ENDS
; Function compile flags: /Ogtp
; File C:\Program Files\Microsoft Visual Studio\2022\Professional\VC\Tools\MSVC\14.44.35207\include\xmemory
;	COMDAT ??1?$_Alloc_construct_ptr@V?$allocator@U?$_List_node@PAXPAX@std@@@std@@@std@@QAE@XZ
_TEXT	SEGMENT
??1?$_Alloc_construct_ptr@V?$allocator@U?$_List_node@PAXPAX@std@@@std@@@std@@QAE@XZ PROC ; std::_Alloc_construct_ptr<std::allocator<std::_List_node<void *,void *> > >::~_Alloc_construct_ptr<std::allocator<std::_List_node<void *,void *> > >, COMDAT
; _this$ = ecx

; 1172 :         if (_Ptr) {

  00000	8b 41 04	 mov	 eax, DWORD PTR [ecx+4]
  00003	85 c0		 test	 eax, eax
  00005	74 0b		 je	 SHORT $LN10@Alloc_cons

; 289  :         ::operator delete(_Ptr, _Bytes);

  00007	6a 0c		 push	 12			; 0000000cH
  00009	50		 push	 eax
  0000a	e8 00 00 00 00	 call	 ??3@YAXPAXI@Z		; operator delete
  0000f	83 c4 08	 add	 esp, 8
$LN10@Alloc_cons:

; 1173 :             _Al.deallocate(_Ptr, 1);
; 1174 :         }
; 1175 :     }

  00012	c3		 ret	 0
??1?$_Alloc_construct_ptr@V?$allocator@U?$_List_node@PAXPAX@std@@@std@@@std@@QAE@XZ ENDP ; std::_Alloc_construct_ptr<std::allocator<std::_List_node<void *,void *> > >::~_Alloc_construct_ptr<std::allocator<std::_List_node<void *,void *> > >
_TEXT	ENDS
; Function compile flags: /Ogtp
; File C:\IAGOS\server\v18\Source\Source\_Network\Net\Include\clientsock.h
; File C:\IAGOS\server\v18\Source\Source\_Network\Misc\Include\mempooler.h
;	COMDAT ??_GCClientSock@@UAEPAXI@Z
_TEXT	SEGMENT
___flags$ = 8						; size = 4
??_GCClientSock@@UAEPAXI@Z PROC				; CClientSock::`scalar deleting destructor', COMDAT
; _this$ = ecx
  00000	55		 push	 ebp
  00001	8b ec		 mov	 ebp, esp
  00003	56		 push	 esi
  00004	8b f1		 mov	 esi, ecx
  00006	e8 00 00 00 00	 call	 ??1CClientSock@@UAE@XZ	; CClientSock::~CClientSock
  0000b	8b 45 08	 mov	 eax, DWORD PTR ___flags$[ebp]
  0000e	a8 01		 test	 al, 1
  00010	74 56		 je	 SHORT $LN14@scalar
  00012	a8 04		 test	 al, 4
  00014	75 44		 jne	 SHORT $LN3@scalar
  00016	53		 push	 ebx
  00017	57		 push	 edi
; File C:\IAGOS\server\v18\Source\Source\_Network\Net\Include\clientsock.h

; 102  : 	void	operator delete( void* lpMem )	{	CClientSock::m_pPool->Free( (CClientSock*)lpMem );	}

  00018	8b 3d 00 00 00
	00		 mov	 edi, DWORD PTR ?m_pPool@CClientSock@@2PAV?$MemPooler@VCClientSock@@@@A ; CClientSock::m_pPool
; File C:\IAGOS\server\v18\Source\Source\_Network\Misc\Include\mempooler.h

; 88   : 			EnterCriticalSection( &m_cs );

  0001e	8d 5f 18	 lea	 ebx, DWORD PTR [edi+24]
  00021	53		 push	 ebx
  00022	ff 15 00 00 00
	00		 call	 DWORD PTR __imp__EnterCriticalSection@4

; 89   : 
; 90   : 			pNode	= ( reinterpret_cast<BlockNode*>( lpMem ) ) - 1;
; 91   : 			if( m_nAllocCount > 0 )

  00028	83 7f 14 00	 cmp	 DWORD PTR [edi+20], 0
  0002c	8d 4e fc	 lea	 ecx, DWORD PTR [esi-4]
  0002f	7e 09		 jle	 SHORT $LN12@scalar

; 92   : 			{
; 93   : 				pNode->pNext	= m_pFreeList;

  00031	8b 07		 mov	 eax, DWORD PTR [edi]
  00033	89 01		 mov	 DWORD PTR [ecx], eax

; 94   : 				m_pFreeList		= pNode;
; 95   : 				m_nAllocCount--;

  00035	ff 4f 14	 dec	 DWORD PTR [edi+20]
  00038	89 0f		 mov	 DWORD PTR [edi], ecx
$LN12@scalar:

; 96   : 			}
; 97   : 
; 98   : 			//	mulcom	BEGIN100422	¸Ţ¸đ¸®Ç® ĂĘ±âČ­
; 99   : 			::memset( lpMem, 0, sizeof(T) );

  0003a	68 94 04 00 00	 push	 1172			; 00000494H
  0003f	6a 00		 push	 0
  00041	56		 push	 esi
  00042	e8 00 00 00 00	 call	 _memset
  00047	83 c4 0c	 add	 esp, 12			; 0000000cH

; 100  : 			//	mulcom	END100422	¸Ţ¸đ¸®Ç® ĂĘ±âČ­
; 101  : 
; 102  : 			LeaveCriticalSection( &m_cs );

  0004a	53		 push	 ebx
  0004b	ff 15 00 00 00
	00		 call	 DWORD PTR __imp__LeaveCriticalSection@4
  00051	5f		 pop	 edi
  00052	5b		 pop	 ebx
  00053	8b c6		 mov	 eax, esi
  00055	5e		 pop	 esi
  00056	5d		 pop	 ebp
  00057	c2 04 00	 ret	 4
$LN3@scalar:
  0005a	68 94 04 00 00	 push	 1172			; 00000494H
  0005f	56		 push	 esi
  00060	e8 00 00 00 00	 call	 ?__global_delete@@YAXPAXI@Z ; __global_delete
  00065	83 c4 08	 add	 esp, 8
$LN14@scalar:
  00068	8b c6		 mov	 eax, esi
  0006a	5e		 pop	 esi
  0006b	5d		 pop	 ebp
  0006c	c2 04 00	 ret	 4
??_GCClientSock@@UAEPAXI@Z ENDP				; CClientSock::`scalar deleting destructor'
_TEXT	ENDS
; Function compile flags: /Ogtp
; File C:\IAGOS\server\v18\Source\Source\_Network\Net\Include\clientsock.h
;	COMDAT ?GetPeerAddr@CClientSock@@UAEKK@Z
_TEXT	SEGMENT
_dpid$ = 8						; size = 4
?GetPeerAddr@CClientSock@@UAEKK@Z PROC			; CClientSock::GetPeerAddr, COMDAT
; _this$ = ecx

; 80   : 	virtual	DWORD	GetPeerAddr( DPID dpid ) { return m_dwAddr; }

  00000	8b 81 90 04 00
	00		 mov	 eax, DWORD PTR [ecx+1168]
  00006	c2 04 00	 ret	 4
?GetPeerAddr@CClientSock@@UAEKK@Z ENDP			; CClientSock::GetPeerAddr
_TEXT	ENDS
; Function compile flags: /Ogtp
; File C:\IAGOS\server\v18\Source\Source\_network\net\src\clientsock.cpp
;	COMDAT ?GetPeerAddr@CClientSock@@UAEJKPAXPAK@Z
_TEXT	SEGMENT
_namelen$ = -24						; size = 4
_sin$ = -20						; size = 16
__$ArrayPad$ = -4					; size = 4
_dpidPlayer$ = 8					; size = 4
_lpAddr$ = 12						; size = 4
_lpdwSize$ = 16						; size = 4
?GetPeerAddr@CClientSock@@UAEJKPAXPAK@Z PROC		; CClientSock::GetPeerAddr, COMDAT
; _this$ = ecx

; 483  : {

  00000	55		 push	 ebp
  00001	8b ec		 mov	 ebp, esp
  00003	83 ec 18	 sub	 esp, 24			; 00000018H
  00006	a1 00 00 00 00	 mov	 eax, DWORD PTR ___security_cookie
  0000b	33 c5		 xor	 eax, ebp
  0000d	89 45 fc	 mov	 DWORD PTR __$ArrayPad$[ebp], eax
  00010	56		 push	 esi
  00011	8b 75 0c	 mov	 esi, DWORD PTR _lpAddr$[ebp]

; 484  : 	ASSERT( lpAddr );
; 485  : 
; 486  : 	SOCKADDR_IN sin;
; 487  : 	ZeroMemory( &sin, sizeof( SOCKADDR_IN) );
; 488  : 
; 489  : 	int namelen	= sizeof(sin);
; 490  : 	if( getpeername( m_hSocket, (SOCKADDR *)&sin, &namelen ) == SOCKET_ERROR )

  00014	8d 45 e8	 lea	 eax, DWORD PTR _namelen$[ebp]
  00017	50		 push	 eax
  00018	8d 45 ec	 lea	 eax, DWORD PTR _sin$[ebp]
  0001b	c7 45 e8 10 00
	00 00		 mov	 DWORD PTR _namelen$[ebp], 16 ; 00000010H
  00022	50		 push	 eax
  00023	ff 71 04	 push	 DWORD PTR [ecx+4]
  00026	0f 57 c0	 xorps	 xmm0, xmm0
  00029	0f 11 45 ec	 movups	 XMMWORD PTR _sin$[ebp], xmm0
  0002d	ff 15 00 00 00
	00		 call	 DWORD PTR __imp__getpeername@12
  00033	83 f8 ff	 cmp	 eax, -1
  00036	75 16		 jne	 SHORT $LN2@GetPeerAdd

; 491  : 		return DPERR_GENERIC;

  00038	b8 05 40 00 80	 mov	 eax, -2147467259	; 80004005H
  0003d	5e		 pop	 esi

; 494  : 																	, sin.sin_addr.s_host
; 495  : 																	, sin.sin_addr.s_lh
; 496  : 																	, sin.sin_addr.s_impno );
; 497  : 	return DP_OK;
; 498  : }

  0003e	8b 4d fc	 mov	 ecx, DWORD PTR __$ArrayPad$[ebp]
  00041	33 cd		 xor	 ecx, ebp
  00043	e8 00 00 00 00	 call	 @__security_check_cookie@4
  00048	8b e5		 mov	 esp, ebp
  0004a	5d		 pop	 ebp
  0004b	c2 0c 00	 ret	 12			; 0000000cH
$LN2@GetPeerAdd:

; 492  : 
; 493  : 	sprintf( (char *)lpAddr, "%d.%d.%d.%d", sin.sin_addr.s_net

  0004e	0f b6 45 f3	 movzx	 eax, BYTE PTR _sin$[ebp+7]
  00052	50		 push	 eax
  00053	0f b6 45 f2	 movzx	 eax, BYTE PTR _sin$[ebp+6]
  00057	50		 push	 eax
  00058	0f b6 45 f1	 movzx	 eax, BYTE PTR _sin$[ebp+5]
  0005c	50		 push	 eax
  0005d	0f b6 45 f0	 movzx	 eax, BYTE PTR _sin$[ebp+4]
  00061	50		 push	 eax
  00062	68 00 00 00 00	 push	 OFFSET ??_C@_0M@PCENNPGA@?$CFd?4?$CFd?4?$CFd?4?$CFd@
  00067	56		 push	 esi
  00068	e8 00 00 00 00	 call	 _sprintf

; 494  : 																	, sin.sin_addr.s_host
; 495  : 																	, sin.sin_addr.s_lh
; 496  : 																	, sin.sin_addr.s_impno );
; 497  : 	return DP_OK;
; 498  : }

  0006d	8b 4d fc	 mov	 ecx, DWORD PTR __$ArrayPad$[ebp]
  00070	83 c4 18	 add	 esp, 24			; 00000018H
  00073	33 cd		 xor	 ecx, ebp
  00075	33 c0		 xor	 eax, eax
  00077	5e		 pop	 esi
  00078	e8 00 00 00 00	 call	 @__security_check_cookie@4
  0007d	8b e5		 mov	 esp, ebp
  0007f	5d		 pop	 ebp
  00080	c2 0c 00	 ret	 12			; 0000000cH
?GetPeerAddr@CClientSock@@UAEJKPAXPAK@Z ENDP		; CClientSock::GetPeerAddr
_TEXT	ENDS
; Function compile flags: /Ogtp
; File C:\IAGOS\server\v18\Source\Source\_network\net\src\clientsock.cpp
; File C:\IAGOS\server\v18\Source\Source\_Network\Mcl\Include\CMclCritSec.h
; File C:\IAGOS\server\v18\Source\Source\_Network\Mcl\Include\CMclAutoLock.h
; File C:\IAGOS\server\v18\Source\Source\_Network\Mcl\Include\CMclCritSec.h
; File C:\IAGOS\server\v18\Source\Source\_network\net\src\clientsock.cpp
; File C:\IAGOS\server\v18\Source\Source\_Network\Mcl\Include\CMclAutoLock.h
; File C:\IAGOS\server\v18\Source\Source\_Network\Mcl\Include\CMclCritSec.h
; File C:\IAGOS\server\v18\Source\Source\_Network\Net\Include\buffer.h
; File C:\IAGOS\server\v18\Source\Source\_network\net\src\clientsock.cpp
; File C:\IAGOS\server\v18\Source\Source\_Network\Mcl\Include\CMclCritSec.h
; File C:\IAGOS\server\v18\Source\Source\_network\net\src\clientsock.cpp
;	COMDAT ?Send@CClientSock@@UAEXPADKK@Z
_TEXT	SEGMENT
_dwBytes$ = -36						; size = 4
_Lock$ = -32						; size = 4
_Lock1$ = -28						; size = 4
tv225 = -24						; size = 4
_dwBufferCount$ = -20					; size = 4
tv226 = -16						; size = 4
__$EHRec$ = -12						; size = 12
_lpData$ = 8						; size = 4
_dwDataSize$ = 12					; size = 4
_dpidTo$ = 16						; size = 4
?Send@CClientSock@@UAEXPADKK@Z PROC			; CClientSock::Send, COMDAT
; _this$ = ecx

; 169  : {

  00000	55		 push	 ebp
  00001	8b ec		 mov	 ebp, esp
  00003	6a ff		 push	 -1
  00005	68 00 00 00 00	 push	 __ehhandler$?Send@CClientSock@@UAEXPADKK@Z
  0000a	64 a1 00 00 00
	00		 mov	 eax, DWORD PTR fs:0
  00010	50		 push	 eax
  00011	83 ec 18	 sub	 esp, 24			; 00000018H
  00014	56		 push	 esi
  00015	57		 push	 edi
  00016	a1 00 00 00 00	 mov	 eax, DWORD PTR ___security_cookie
  0001b	33 c5		 xor	 eax, ebp
  0001d	50		 push	 eax
  0001e	8d 45 f4	 lea	 eax, DWORD PTR __$EHRec$[ebp]
  00021	64 a3 00 00 00
	00		 mov	 DWORD PTR fs:0, eax
  00027	8b f9		 mov	 edi, ecx

; 170  : //	ASSERT( m_hSocket != INVALID_SOCKET );
; 171  : 	if( m_hSocket == INVALID_SOCKET )

  00029	83 7f 04 ff	 cmp	 DWORD PTR [edi+4], -1
  0002d	0f 84 c5 00 00
	00		 je	 $LN32@Send

; 172  : 		return;
; 173  : 
; 174  : 	DWORD dwBufferCount, dwBytes;
; 175  : 	CMclAutoLock	Lock1( m_AccessLock );

  00033	8d 47 40	 lea	 eax, DWORD PTR [edi+64]
; File C:\IAGOS\server\v18\Source\Source\_Network\Mcl\Include\CMclCritSec.h

; 33   : 		::EnterCriticalSection( &m_CritSec );

  00036	8d 70 04	 lea	 esi, DWORD PTR [eax+4]
; File C:\IAGOS\server\v18\Source\Source\_Network\Mcl\Include\CMclAutoLock.h

; 21   : 		m_pcCritSec = &rCMclCritSec;

  00039	89 45 e4	 mov	 DWORD PTR _Lock1$[ebp], eax
; File C:\IAGOS\server\v18\Source\Source\_Network\Mcl\Include\CMclCritSec.h

; 33   : 		::EnterCriticalSection( &m_CritSec );

  0003c	56		 push	 esi
  0003d	89 75 f0	 mov	 DWORD PTR tv226[ebp], esi
  00040	ff 15 00 00 00
	00		 call	 DWORD PTR __imp__EnterCriticalSection@4
; File C:\IAGOS\server\v18\Source\Source\_network\net\src\clientsock.cpp

; 176  : 	if( m_bDoNotWrite )

  00046	83 7f 3c 00	 cmp	 DWORD PTR [edi+60], 0
  0004a	c7 45 fc 00 00
	00 00		 mov	 DWORD PTR __$EHRec$[ebp+8], 0
  00051	0f 85 9a 00 00
	00		 jne	 $LN27@Send

; 177  : 		return;
; 178  : 	CMclAutoLock	Lock( m_lspSendBuffer.m_cs );

  00057	8d 47 70	 lea	 eax, DWORD PTR [edi+112]
; File C:\IAGOS\server\v18\Source\Source\_Network\Mcl\Include\CMclAutoLock.h

; 21   : 		m_pcCritSec = &rCMclCritSec;

  0005a	89 45 e0	 mov	 DWORD PTR _Lock$[ebp], eax
; File C:\IAGOS\server\v18\Source\Source\_Network\Mcl\Include\CMclCritSec.h

; 33   : 		::EnterCriticalSection( &m_CritSec );

  0005d	83 c0 04	 add	 eax, 4
  00060	50		 push	 eax
  00061	89 45 e8	 mov	 DWORD PTR tv225[ebp], eax
  00064	ff 15 00 00 00
	00		 call	 DWORD PTR __imp__EnterCriticalSection@4
; File C:\IAGOS\server\v18\Source\Source\_Network\Net\Include\buffer.h

; 222  : 	{	return( m_uCount == 0 );	}

  0006a	83 7f 6c 00	 cmp	 DWORD PTR [edi+108], 0
  0006e	8b 8f 8c 04 00
	00		 mov	 ecx, DWORD PTR [edi+1164]
; File C:\IAGOS\server\v18\Source\Source\_network\net\src\clientsock.cpp

; 180  : 	if( m_lspSendBuffer.IsEmpty() )

  00074	51		 push	 ecx
  00075	ff 75 0c	 push	 DWORD PTR _dwDataSize$[ebp]
  00078	c6 45 fc 01	 mov	 BYTE PTR __$EHRec$[ebp+8], 1
  0007c	8d 4f 60	 lea	 ecx, DWORD PTR [edi+96]
  0007f	ff 75 08	 push	 DWORD PTR _lpData$[ebp]
  00082	75 5a		 jne	 SHORT $LN4@Send

; 181  : 	{
; 182  : 		m_lspSendBuffer.AddData( (LPBYTE)lpData, dwDataSize, m_nBufferType );

  00084	e8 00 00 00 00	 call	 ?AddData@CBufferQueue@@QAEXPAEKW4BUFFER_TYPE@@@Z ; CBufferQueue::AddData

; 183  : 		m_lspSendBuffer.GetData( m_lpBuffers, &dwBufferCount );

  00089	8d 45 ec	 lea	 eax, DWORD PTR _dwBufferCount$[ebp]
  0008c	50		 push	 eax
  0008d	8d b7 8c 00 00
	00		 lea	 esi, DWORD PTR [edi+140]
  00093	56		 push	 esi
  00094	8d 4f 60	 lea	 ecx, DWORD PTR [edi+96]
  00097	e8 00 00 00 00	 call	 ?GetData@CBufferQueue@@QAEXPAU_WSABUF@@PAK@Z ; CBufferQueue::GetData

; 184  : 
; 185  : 		memset( (void*)&m_ovSend, 0, sizeof(WSAOVERLAPPED) );
; 186  : 		int err;
; 187  : 		m_nReference++;
; 188  : 		if( WSASend( GetHandle(), m_lpBuffers, dwBufferCount, &dwBytes, 0, &m_ovSend, NULL ) != 0 && ( err = WSAGetLastError() ) != WSA_IO_PENDING )

  0009c	6a 00		 push	 0
  0009e	8d 4f 28	 lea	 ecx, DWORD PTR [edi+40]
  000a1	0f 57 c0	 xorps	 xmm0, xmm0
  000a4	51		 push	 ecx
  000a5	6a 00		 push	 0
  000a7	8d 45 dc	 lea	 eax, DWORD PTR _dwBytes$[ebp]
  000aa	50		 push	 eax
  000ab	ff 75 ec	 push	 DWORD PTR _dwBufferCount$[ebp]
  000ae	0f 11 01	 movups	 XMMWORD PTR [ecx], xmm0
  000b1	c7 41 10 00 00
	00 00		 mov	 DWORD PTR [ecx+16], 0
  000b8	ff 47 5c	 inc	 DWORD PTR [edi+92]
  000bb	56		 push	 esi
  000bc	ff 77 04	 push	 DWORD PTR [edi+4]
  000bf	ff 15 00 00 00
	00		 call	 DWORD PTR __imp__WSASend@28
  000c5	85 c0		 test	 eax, eax
  000c7	74 1c		 je	 SHORT $LN37@Send
  000c9	ff 15 00 00 00
	00		 call	 DWORD PTR __imp__WSAGetLastError@0
  000cf	8b 75 f0	 mov	 esi, DWORD PTR tv226[ebp]
  000d2	3d e5 03 00 00	 cmp	 eax, 997		; 000003e5H
  000d7	74 0f		 je	 SHORT $LN5@Send

; 189  : 		{
; 190  : 			int nReference	= --m_nReference;

  000d9	ff 4f 5c	 dec	 DWORD PTR [edi+92]

; 191  : #ifdef __INFO_SOCKLIB0516
; 192  : 			m_dwDbgInfo	= err; // * 1000 + 6 * 100 + nReference * 10;
; 193  : #endif	// __INFO_SOCKLIB0516
; 194  : 		}
; 195  : 		
; 196  : 	}

  000dc	eb 0a		 jmp	 SHORT $LN5@Send
$LN4@Send:

; 197  : 	else
; 198  : 	{
; 199  : 		m_lspSendBuffer.AddData( (LPBYTE)lpData, dwDataSize, m_nBufferType );

  000de	e8 00 00 00 00	 call	 ?AddData@CBufferQueue@@QAEXPAEKW4BUFFER_TYPE@@@Z ; CBufferQueue::AddData
  000e3	eb 03		 jmp	 SHORT $LN5@Send
$LN37@Send:

; 184  : 
; 185  : 		memset( (void*)&m_ovSend, 0, sizeof(WSAOVERLAPPED) );
; 186  : 		int err;
; 187  : 		m_nReference++;
; 188  : 		if( WSASend( GetHandle(), m_lpBuffers, dwBufferCount, &dwBytes, 0, &m_ovSend, NULL ) != 0 && ( err = WSAGetLastError() ) != WSA_IO_PENDING )

  000e5	8b 75 f0	 mov	 esi, DWORD PTR tv226[ebp]
$LN5@Send:
; File C:\IAGOS\server\v18\Source\Source\_Network\Mcl\Include\CMclCritSec.h

; 39   : 		::LeaveCriticalSection( &m_CritSec );

  000e8	ff 75 e8	 push	 DWORD PTR tv225[ebp]
  000eb	ff 15 00 00 00
	00		 call	 DWORD PTR __imp__LeaveCriticalSection@4
$LN27@Send:
  000f1	56		 push	 esi
  000f2	ff 15 00 00 00
	00		 call	 DWORD PTR __imp__LeaveCriticalSection@4
$LN32@Send:
; File C:\IAGOS\server\v18\Source\Source\_network\net\src\clientsock.cpp

; 201  : }

  000f8	8b 4d f4	 mov	 ecx, DWORD PTR __$EHRec$[ebp]
  000fb	64 89 0d 00 00
	00 00		 mov	 DWORD PTR fs:0, ecx
  00102	59		 pop	 ecx
  00103	5f		 pop	 edi
  00104	5e		 pop	 esi
  00105	8b e5		 mov	 esp, ebp
  00107	5d		 pop	 ebp
  00108	c2 0c 00	 ret	 12			; 0000000cH
_TEXT	ENDS
;	COMDAT text$x
text$x	SEGMENT
__unwindfunclet$?Send@CClientSock@@UAEXPADKK@Z$0:
  00000	8d 4d e4	 lea	 ecx, DWORD PTR _Lock1$[ebp]
  00003	e9 00 00 00 00	 jmp	 ??1CMclAutoLock@@QAE@XZ	; CMclAutoLock::~CMclAutoLock
__unwindfunclet$?Send@CClientSock@@UAEXPADKK@Z$1:
  00008	8d 4d e0	 lea	 ecx, DWORD PTR _Lock$[ebp]
  0000b	e9 00 00 00 00	 jmp	 ??1CMclAutoLock@@QAE@XZ	; CMclAutoLock::~CMclAutoLock
  00010	cc		 int	 3
  00011	cc		 int	 3
  00012	cc		 int	 3
  00013	cc		 int	 3
  00014	cc		 int	 3
__ehhandler$?Send@CClientSock@@UAEXPADKK@Z:
  00015	90		 npad	 1
  00016	90		 npad	 1
  00017	8b 54 24 08	 mov	 edx, DWORD PTR [esp+8]
  0001b	8d 42 0c	 lea	 eax, DWORD PTR [edx+12]
  0001e	8b 4a dc	 mov	 ecx, DWORD PTR [edx-36]
  00021	33 c8		 xor	 ecx, eax
  00023	e8 00 00 00 00	 call	 @__security_check_cookie@4
  00028	b8 00 00 00 00	 mov	 eax, OFFSET __ehfuncinfo$?Send@CClientSock@@UAEXPADKK@Z
  0002d	e9 00 00 00 00	 jmp	 ___CxxFrameHandler3
text$x	ENDS
?Send@CClientSock@@UAEXPADKK@Z ENDP			; CClientSock::Send
; Function compile flags: /Ogtp
; File C:\IAGOS\server\v18\Source\Source\_network\net\src\clientsock.cpp
;	COMDAT ?Shutdown@CClientSock@@UAEHI@Z
_TEXT	SEGMENT
_hSocket$ = 8						; size = 4
?Shutdown@CClientSock@@UAEHI@Z PROC			; CClientSock::Shutdown, COMDAT
; _this$ = ecx

; 114  : 	return FALSE;

  00000	33 c0		 xor	 eax, eax

; 115  : }

  00002	c2 04 00	 ret	 4
?Shutdown@CClientSock@@UAEHI@Z ENDP			; CClientSock::Shutdown
_TEXT	ENDS
; Function compile flags: /Ogtp
; File C:\IAGOS\server\v18\Source\Source\_network\net\src\clientsock.cpp
;	COMDAT ?CloseConnection@CClientSock@@UAEHI@Z
_TEXT	SEGMENT
_hSocket$ = 8						; size = 4
?CloseConnection@CClientSock@@UAEHI@Z PROC		; CClientSock::CloseConnection, COMDAT
; _this$ = ecx

; 107  : 	ASSERT( hSocket == m_hSocket );
; 108  : 	Close();

  00000	8b 01		 mov	 eax, DWORD PTR [ecx]
  00002	ff 50 1c	 call	 DWORD PTR [eax+28]

; 109  : 	return( TRUE );

  00005	b8 01 00 00 00	 mov	 eax, 1

; 110  : }

  0000a	c2 04 00	 ret	 4
?CloseConnection@CClientSock@@UAEHI@Z ENDP		; CClientSock::CloseConnection
_TEXT	ENDS
; Function compile flags: /Ogtp
; File C:\IAGOS\server\v18\Source\Source\_network\net\src\clientsock.cpp
;	COMDAT ?Close@CClientSock@@UAEXXZ
_TEXT	SEGMENT
?Close@CClientSock@@UAEXXZ PROC				; CClientSock::Close, COMDAT
; _this$ = ecx

; 100  : {

  00000	56		 push	 esi
  00001	8b f1		 mov	 esi, ecx

; 101  : 	CLOSE_SOCKET( m_hSocket );

  00003	8b 46 04	 mov	 eax, DWORD PTR [esi+4]
  00006	83 f8 ff	 cmp	 eax, -1
  00009	74 19		 je	 SHORT $LN2@Close
  0000b	6a 02		 push	 2
  0000d	50		 push	 eax
  0000e	ff 15 00 00 00
	00		 call	 DWORD PTR __imp__shutdown@8
  00014	ff 76 04	 push	 DWORD PTR [esi+4]
  00017	ff 15 00 00 00
	00		 call	 DWORD PTR __imp__closesocket@4
  0001d	c7 46 04 ff ff
	ff ff		 mov	 DWORD PTR [esi+4], -1
$LN2@Close:

; 102  : 	SAFE_DELETE( m_pRecvBuffer );

  00024	8b 4e 10	 mov	 ecx, DWORD PTR [esi+16]
  00027	85 c9		 test	 ecx, ecx
  00029	74 0d		 je	 SHORT $LN3@Close
  0002b	8b 01		 mov	 eax, DWORD PTR [ecx]
  0002d	6a 01		 push	 1
  0002f	ff 10		 call	 DWORD PTR [eax]
  00031	c7 46 10 00 00
	00 00		 mov	 DWORD PTR [esi+16], 0
$LN3@Close:

; 103  : }

  00038	5e		 pop	 esi
  00039	c3		 ret	 0
?Close@CClientSock@@UAEXXZ ENDP				; CClientSock::Close
_TEXT	ENDS
; Function compile flags: /Ogtp
; File C:\IAGOS\server\v18\Source\Source\_network\net\src\clientsock.cpp
; File C:\IAGOS\server\v18\Source\Source\_Network\Net\Include\buffer.h
; File C:\IAGOS\server\v18\Source\Source\_network\net\src\clientsock.cpp
; File C:\IAGOS\server\v18\Source\Source\_Network\Net\Include\buffer.h
; File C:\IAGOS\server\v18\Source\Source\_network\net\src\clientsock.cpp
;	COMDAT ?Fetch@CClientSock@@QAEPAVCBuffer@@K@Z
_TEXT	SEGMENT
_pOld$1$ = -28						; size = 4
_ptr$1$ = -24						; size = 4
_lpAddr$1 = -20						; size = 16
__$ArrayPad$ = -4					; size = 4
_dwBytes$ = 8						; size = 4
?Fetch@CClientSock@@QAEPAVCBuffer@@K@Z PROC		; CClientSock::Fetch, COMDAT
; _this$ = ecx

; 252  : {

  00000	55		 push	 ebp
  00001	8b ec		 mov	 ebp, esp
  00003	83 ec 1c	 sub	 esp, 28			; 0000001cH
  00006	a1 00 00 00 00	 mov	 eax, DWORD PTR ___security_cookie
  0000b	33 c5		 xor	 eax, ebp
  0000d	89 45 fc	 mov	 DWORD PTR __$ArrayPad$[ebp], eax

; 253  : #ifdef __INFO_SOCKLIB0102
; 254  : 	if( m_dwReadHeaderSize == HEADERSIZE13 )
; 255  : 	{
; 256  : 		m_dwReadBytes	+= dwBytes;
; 257  : 		m_dwReadPacks++;
; 258  : 		time_t t	= time( NULL );
; 259  : 		if( t != m_tRead )
; 260  : 		{
; 261  : 			if( m_dwReadBytes > MAX_READ_BYTES_A_SEC )
; 262  : 			{
; 263  : 				OutputDebugString( "MAX_READ_BYTES_A_SEC" );
; 264  : 				return NULL;
; 265  : 			}
; 266  : 			if( m_dwReadPacks > MAX_READ_PACKS_A_SEC )
; 267  : 			{
; 268  : 				OutputDebugString( "MAX_READ_PACK_A_SEC" );
; 269  : 				return NULL;
; 270  : 			}
; 271  : 			char lpOutputString[100];
; 272  : 			sprintf( lpOutputString, "%d(bytes), %d(packets)", m_dwReadBytes, m_dwReadPacks );
; 273  : 			OutputDebugString( lpOutputString );
; 274  : 
; 275  : 			m_dwReadBytes	= m_dwReadPacks	= 0;
; 276  : 			m_tRead		= t;
; 277  : 		}
; 278  : 	}
; 279  : #endif	// __INFO_SOCKLIB0102
; 280  : 
; 281  : #ifdef __SO1014
; 282  : 	if( m_hSocket == INVALID_SOCKET )
; 283  : 	{
; 284  : 		WriteError( "FETCH//0" );
; 285  : 		WSASetLastError( ERROR_BAD_NET_NAME );
; 286  : 		return NULL;
; 287  : 	}
; 288  : /*
; 289  : 	if( m_dwReadHeaderSize == HEADERSIZE13 )
; 290  : 	{
; 291  : 		if( dwBytes > MAX_BUFFER )	//
; 292  : 		{
; 293  : 			WriteError( "FETCH//200//%d", dwBytes );
; 294  : 			WSASetLastError( ERROR_BAD_NET_NAME );
; 295  : 			return NULL;
; 296  : 		}
; 297  : 	}
; 298  : */
; 299  : #endif	// __SO1014
; 300  : 
; 301  : 	m_pRecvBuffer->m_pTail	+=	dwBytes;

  00010	8b 45 08	 mov	 eax, DWORD PTR _dwBytes$[ebp]
  00013	53		 push	 ebx
  00014	8b d9		 mov	 ebx, ecx
  00016	56		 push	 esi
  00017	57		 push	 edi

; 302  : 
; 303  : //	ASSERT( m_pRecvBuffer->m_pTail <= m_pRecvBuffer->m_lpBufMax );
; 304  : //#ifdef __SO1014
; 305  : //	if( m_pRecvBuffer->m_pTail > m_pRecvBuffer->m_lpBufMax )
; 306  : //	{
; 307  : //		WriteError( "FETCH//1" );
; 308  : //		WSASetLastError( ERROR_BAD_NET_NAME );
; 309  : //		return NULL;
; 310  : //	}
; 311  : //#endif	// __SO1014
; 312  : 	
; 313  : 	int nRemnant;
; 314  : 	LPBYTE ptr	= m_pRecvBuffer->GetReadableBuffer( &nRemnant );
; 315  : 
; 316  : 	CBuffer* pOld	= NULL;

  00018	33 f6		 xor	 esi, esi
  0001a	8b 4b 10	 mov	 ecx, DWORD PTR [ebx+16]
  0001d	01 81 18 20 00
	00		 add	 DWORD PTR [ecx+8216], eax
  00023	8b 4b 10	 mov	 ecx, DWORD PTR [ebx+16]
; File C:\IAGOS\server\v18\Source\Source\_Network\Net\Include\buffer.h

; 115  : 	*pnBufSize	= (int)( m_pTail - m_pHead );	

  00026	8b 91 14 20 00
	00		 mov	 edx, DWORD PTR [ecx+8212]
  0002c	8b b9 18 20 00
	00		 mov	 edi, DWORD PTR [ecx+8216]
  00032	2b fa		 sub	 edi, edx
  00034	89 55 e8	 mov	 DWORD PTR _ptr$1$[ebp], edx
; File C:\IAGOS\server\v18\Source\Source\_network\net\src\clientsock.cpp

; 331  : 		if( nRemnant < (int)( m_pRecvBuffer->GetHeaderLength() ) )

  00037	3b b9 24 20 00
	00		 cmp	 edi, DWORD PTR [ecx+8228]
  0003d	7c 30		 jl	 SHORT $LN20@Fetch
  0003f	90		 npad	 1
$LL2@Fetch:

; 356  : 			}
; 357  : 			return pOld;
; 358  : 		}
; 359  : 		else
; 360  : 		{
; 361  : #ifdef __CRC
; 362  : 			if( m_dwReadHeaderSize == HEADERSIZE13 )
; 363  : 			{
; 364  : 				int nOffset	= sizeof(char);
; 365  : #ifdef __PACKET_REPLAY_R
; 366  : 				int nPacket	= *(UNALIGNED int*)( ptr + nOffset );
; 367  : 				nOffset	+= sizeof(int);
; 368  : 				if( nPacket != m_nPacket + 1 )
; 369  : 				{
; 370  : 					char lpAddr[16]		= { 0,};
; 371  : 					GetPeerAddr( DPID_UNKNOWN, lpAddr, NULL );
; 372  : 					Error( "CClientSock.Fetch: replay: %s", lpAddr );
; 373  : 					WSASetLastError( ERROR_BAD_NET_NAME );
; 374  : 					return NULL;
; 375  : 				}
; 376  : 				//m_nPacket++;
; 377  : #endif	// __PACKET_REPLAY_R
; 378  : 				dwCrc	= *(UNALIGNED LPDWORD)( ptr + nOffset );
; 379  : 				nOffset	+= sizeof(DWORD);
; 380  : 				dwDataSize	= *(UNALIGNED LPDWORD)( ptr + nOffset );
; 381  : 				nOffset	+= sizeof(DWORD);
; 382  : 				m_crcRead.Restart();
; 383  : 				m_crcRead.Update( (const byte*)( &dwDataSize ), sizeof(DWORD) );
; 384  : 				m_crcRead.Final( digest );
; 385  : #ifdef __PACKET_REPLAY_R
; 386  : 				if( ~( *(UNALIGNED LPDWORD)digest ^ ( m_dwProtocolId + nPacket ) ) != dwCrc )
; 387  : #else	// __PACKET_REPLAY_R
; 388  : 				if( ~( *(UNALIGNED LPDWORD)digest ^ m_dwProtocolId ) != dwCrc )
; 389  : #endif	// __PACKET_REPLAY_R
; 390  : 				{
; 391  : 					WSASetLastError( ERROR_BAD_NET_NAME );
; 392  : 					return NULL;
; 393  : 				}
; 394  : 				dwCrc	= *(UNALIGNED LPDWORD)( ptr + nOffset );
; 395  : 				nOffset	+= sizeof(DWORD);
; 396  : 				uPacketSize		= m_dwReadHeaderSize + dwDataSize;
; 397  : #ifdef __SO1014
; 398  : 				if( dwDataSize > MAX_BUFFER )	// if( uPacketSize > MAX_BUFFER )	// kang: 2008/08/14
; 399  : 				{
; 400  : 					char lpAddr[16]		= { 0,};
; 401  : 					GetPeerAddr( DPID_UNKNOWN, lpAddr, NULL );
; 402  : 					Error( "CClientSocket.Fetch: ip = %s, size = %d", lpAddr, dwDataSize );
; 403  : 					WSASetLastError( ERROR_BAD_NET_NAME );
; 404  : 					return NULL;
; 405  : 				}
; 406  : #endif	// __SO1014
; 407  : 			}
; 408  : 			else
; 409  : 			{
; 410  : 				uPacketSize	= m_dwReadHeaderSize + *(UNALIGNED LPDWORD)&ptr[1];
; 411  : 			}
; 412  : #else	// __CRC
; 413  : 			uPacketSize	= m_pRecvBuffer->GetHeaderLength() + m_pRecvBuffer->GetPacketSize( ptr );

  00040	8b 01		 mov	 eax, DWORD PTR [ecx]
  00042	52		 push	 edx
  00043	ff 50 04	 call	 DWORD PTR [eax+4]
  00046	8b 4b 10	 mov	 ecx, DWORD PTR [ebx+16]
  00049	8b b1 24 20 00
	00		 mov	 esi, DWORD PTR [ecx+8228]
  0004f	03 f0		 add	 esi, eax

; 414  : #endif	// __CRC
; 415  : 			if( nRemnant < (int)( uPacketSize ) )

  00051	3b fe		 cmp	 edi, esi
  00053	7c 72		 jl	 SHORT $LN21@Fetch

; 444  : 			}
; 445  : 			else	// completion
; 446  : 			{
; 447  : #ifdef __CRC
; 448  : 				if( m_dwReadHeaderSize == HEADERSIZE13 )
; 449  : 				{
; 450  : 					m_crcRead.Restart();
; 451  : 					m_crcRead.Update( (const byte*)( ptr + m_dwReadHeaderSize ), dwDataSize );
; 452  : 					m_crcRead.Final( digest );
; 453  : #ifdef __PACKET_REPLAY_R
; 454  : 					if( ~( *(UNALIGNED LPDWORD)digest ^ ( m_dwProtocolId + m_nPacket + 1 ) ) != dwCrc )
; 455  : #else	// __PACKET_REPLAY_R
; 456  : 					if( ~( *(UNALIGNED LPDWORD)digest ^ m_dwProtocolId ) != dwCrc )
; 457  : #endif	// __PACKET_REPLAY_R
; 458  : 					{
; 459  : 						char lpAddr[16]		= { 0,};
; 460  : 						GetPeerAddr( DPID_UNKNOWN, lpAddr, NULL );
; 461  : 						Error( "CClientSock.Fetch: replay: %s", lpAddr );
; 462  : 						WSASetLastError( ERROR_BAD_NET_NAME );
; 463  : 						return NULL;
; 464  : 					}
; 465  : 				}
; 466  : #endif	// __CRC
; 467  : #ifdef __PACKET_REPLAY_R
; 468  : 				m_nPacket++;
; 469  : #endif // __PACKET_REPLAY_R
; 470  : 				m_pRecvBuffer->cb++;

  00055	ff 41 08	 inc	 DWORD PTR [ecx+8]

; 471  : 				nRemnant	-= ( uPacketSize );

  00058	2b fe		 sub	 edi, esi
  0005a	8b 4b 10	 mov	 ecx, DWORD PTR [ebx+16]

; 472  : 				ptr		+= ( uPacketSize );

  0005d	8b 55 e8	 mov	 edx, DWORD PTR _ptr$1$[ebp]
  00060	03 d6		 add	 edx, esi
  00062	89 55 e8	 mov	 DWORD PTR _ptr$1$[ebp], edx
  00065	3b b9 24 20 00
	00		 cmp	 edi, DWORD PTR [ecx+8228]
  0006b	7d d3		 jge	 SHORT $LL2@Fetch

; 331  : 		if( nRemnant < (int)( m_pRecvBuffer->GetHeaderLength() ) )

  0006d	33 f6		 xor	 esi, esi
$LN20@Fetch:

; 332  : #endif	// __CRC
; 333  : 		{
; 334  : 			if( m_pRecvBuffer->cb > 0 ) {

  0006f	83 79 08 00	 cmp	 DWORD PTR [ecx+8], 0
  00073	76 3d		 jbe	 SHORT $LN6@Fetch

; 335  : 				pOld	= m_pRecvBuffer;
; 336  : 				pOld->m_pTail	-= nRemnant;	// remove remnant from old buffer

  00075	29 b9 18 20 00
	00		 sub	 DWORD PTR [ecx+8216], edi
  0007b	8b f1		 mov	 esi, ecx

; 337  : 				m_pRecvBuffer	= CBufferFactory::GetInstance().CreateBuffer( m_nBufferType );

  0007d	68 00 20 00 00	 push	 8192			; 00002000H
  00082	ff b3 8c 04 00
	00		 push	 DWORD PTR [ebx+1164]
  00088	e8 00 00 00 00	 call	 ?GetInstance@CBufferFactory@@SAAAV1@XZ ; CBufferFactory::GetInstance
  0008d	8b c8		 mov	 ecx, eax
  0008f	e8 00 00 00 00	 call	 ?CreateBuffer@CBufferFactory@@QAEPAVCBuffer@@W4BUFFER_TYPE@@K@Z ; CBufferFactory::CreateBuffer

; 338  : //				ASSERT( m_pRecvBuffer->m_pTail + nRemnant <= m_pRecvBuffer->m_lpBufMax ); 
; 339  : #ifdef __SO1014
; 340  : //				if( m_pRecvBuffer->m_pTail + nRemnant > m_pRecvBuffer->m_lpBufMax )
; 341  : //				{
; 342  : //					WriteError( "FETCH//2" );
; 343  : //					WSASetLastError( ERROR_BAD_NET_NAME );
; 344  : //					return NULL;
; 345  : //				}
; 346  : 				if( !m_pRecvBuffer->m_lpBufStart )
; 347  : 				{
; 348  : 					WriteError( "FETCH//2" );
; 349  : 					WSASetLastError( ERROR_BAD_NET_NAME );
; 350  : 					return NULL;
; 351  : 				}
; 352  : #endif	// __SO1014
; 353  : 				memcpy( m_pRecvBuffer->m_pTail, ptr, nRemnant );

  00094	57		 push	 edi
  00095	ff 75 e8	 push	 DWORD PTR _ptr$1$[ebp]
  00098	89 43 10	 mov	 DWORD PTR [ebx+16], eax
  0009b	ff b0 18 20 00
	00		 push	 DWORD PTR [eax+8216]
  000a1	e8 00 00 00 00	 call	 _memcpy

; 354  : 
; 355  : 				m_pRecvBuffer->m_pTail	+=	nRemnant;

  000a6	8b 43 10	 mov	 eax, DWORD PTR [ebx+16]
  000a9	83 c4 0c	 add	 esp, 12			; 0000000cH
  000ac	01 b8 18 20 00
	00		 add	 DWORD PTR [eax+8216], edi
$LN6@Fetch:

; 473  : 			}
; 474  : 		}
; 475  : 	}
; 476  : 
; 477  : 
; 478  : 
; 479  : 	return NULL;
; 480  : }

  000b2	5f		 pop	 edi
  000b3	8b c6		 mov	 eax, esi
  000b5	5e		 pop	 esi
  000b6	5b		 pop	 ebx
  000b7	8b 4d fc	 mov	 ecx, DWORD PTR __$ArrayPad$[ebp]
  000ba	33 cd		 xor	 ecx, ebp
  000bc	e8 00 00 00 00	 call	 @__security_check_cookie@4
  000c1	8b e5		 mov	 esp, ebp
  000c3	5d		 pop	 ebp
  000c4	c2 04 00	 ret	 4
$LN21@Fetch:
; File C:\IAGOS\server\v18\Source\Source\_Network\Net\Include\buffer.h

; 99   : 	return (int)( m_lpBufMax - m_lpBufStart );	

  000c7	8b 81 10 20 00
	00		 mov	 eax, DWORD PTR [ecx+8208]
  000cd	2b 81 0c 20 00
	00		 sub	 eax, DWORD PTR [ecx+8204]
; File C:\IAGOS\server\v18\Source\Source\_network\net\src\clientsock.cpp

; 417  : 				if( (int)( uPacketSize ) > m_pRecvBuffer->GetSize() || m_pRecvBuffer->cb > 0 )

  000d3	3b f0		 cmp	 esi, eax
  000d5	7f 0a		 jg	 SHORT $LN10@Fetch
  000d7	83 79 08 00	 cmp	 DWORD PTR [ecx+8], 0
  000db	0f 86 92 00 00
	00		 jbe	 $LN24@Fetch
$LN10@Fetch:

; 418  : 				{
; 419  : 					pOld	= m_pRecvBuffer;
; 420  : 					m_pRecvBuffer	= CBufferFactory::GetInstance().CreateBuffer( m_nBufferType, uPacketSize ); 

  000e1	56		 push	 esi
  000e2	ff b3 8c 04 00
	00		 push	 DWORD PTR [ebx+1164]
  000e8	89 4d e4	 mov	 DWORD PTR _pOld$1$[ebp], ecx
  000eb	e8 00 00 00 00	 call	 ?GetInstance@CBufferFactory@@SAAAV1@XZ ; CBufferFactory::GetInstance
  000f0	8b c8		 mov	 ecx, eax
  000f2	e8 00 00 00 00	 call	 ?CreateBuffer@CBufferFactory@@QAEPAVCBuffer@@W4BUFFER_TYPE@@K@Z ; CBufferFactory::CreateBuffer
  000f7	89 43 10	 mov	 DWORD PTR [ebx+16], eax

; 421  : 					if( !m_pRecvBuffer->m_lpBufStart )

  000fa	83 b8 0c 20 00
	00 00		 cmp	 DWORD PTR [eax+8204], 0
  00101	75 45		 jne	 SHORT $LN11@Fetch

; 422  : 					{
; 423  : 						char lpAddr[16]		= { 0,};
; 424  : 						GetPeerAddr( DPID_UNKNOWN, lpAddr, NULL );

  00103	8b 03		 mov	 eax, DWORD PTR [ebx]
  00105	8d 4d ec	 lea	 ecx, DWORD PTR _lpAddr$1[ebp]
  00108	6a 00		 push	 0
  0010a	51		 push	 ecx
  0010b	0f 57 c0	 xorps	 xmm0, xmm0
  0010e	8b cb		 mov	 ecx, ebx
  00110	6a ff		 push	 -1
  00112	0f 11 45 ec	 movups	 XMMWORD PTR _lpAddr$1[ebp], xmm0
  00116	ff 50 18	 call	 DWORD PTR [eax+24]

; 425  : 						Error( "CClientSocket.Fetch: ip = %s, size = %d", lpAddr, uPacketSize );

  00119	56		 push	 esi
  0011a	8d 45 ec	 lea	 eax, DWORD PTR _lpAddr$1[ebp]
  0011d	50		 push	 eax
  0011e	68 00 00 00 00	 push	 OFFSET ??_C@_0CI@ODKLMECE@CClientSocket?4Fetch?3?5ip?5?$DN?5?$CFs?0?5s@
  00123	e8 00 00 00 00	 call	 ?Error@@YAPBDPBDZZ	; Error
  00128	83 c4 0c	 add	 esp, 12			; 0000000cH

; 426  : 						WSASetLastError( ERROR_BAD_NET_NAME );

  0012b	6a 43		 push	 67			; 00000043H
  0012d	ff 15 00 00 00
	00		 call	 DWORD PTR __imp__WSASetLastError@4

; 473  : 			}
; 474  : 		}
; 475  : 	}
; 476  : 
; 477  : 
; 478  : 
; 479  : 	return NULL;
; 480  : }

  00133	8b 4d fc	 mov	 ecx, DWORD PTR __$ArrayPad$[ebp]
  00136	33 c0		 xor	 eax, eax
  00138	5f		 pop	 edi
  00139	5e		 pop	 esi
  0013a	33 cd		 xor	 ecx, ebp
  0013c	5b		 pop	 ebx
  0013d	e8 00 00 00 00	 call	 @__security_check_cookie@4
  00142	8b e5		 mov	 esp, ebp
  00144	5d		 pop	 ebp
  00145	c2 04 00	 ret	 4
$LN11@Fetch:

; 427  : 						return NULL;
; 428  : 					}
; 429  : 				}
; 430  : 				if( pOld )

  00148	8b 75 e4	 mov	 esi, DWORD PTR _pOld$1$[ebp]
  0014b	85 f6		 test	 esi, esi
  0014d	0f 84 5f ff ff
	ff		 je	 $LN6@Fetch

; 431  : 				{
; 432  : #ifdef __SO1014
; 433  : 					if( !m_pRecvBuffer->m_lpBufStart )
; 434  : 					{
; 435  : 						WriteError( "FETCH//3" );
; 436  : 						WSASetLastError( ERROR_BAD_NET_NAME );
; 437  : 						return NULL;
; 438  : 					}
; 439  : #endif	// __SO1014
; 440  : 					memcpy( m_pRecvBuffer->m_pTail, ptr, nRemnant );

  00153	57		 push	 edi
  00154	ff 75 e8	 push	 DWORD PTR _ptr$1$[ebp]
  00157	ff b0 18 20 00
	00		 push	 DWORD PTR [eax+8216]
  0015d	e8 00 00 00 00	 call	 _memcpy

; 441  : 					m_pRecvBuffer->m_pTail	+=	nRemnant;

  00162	8b 4b 10	 mov	 ecx, DWORD PTR [ebx+16]
  00165	83 c4 0c	 add	 esp, 12			; 0000000cH
  00168	01 b9 18 20 00
	00		 add	 DWORD PTR [ecx+8216], edi
  0016e	e9 3f ff ff ff	 jmp	 $LN6@Fetch
$LN24@Fetch:

; 417  : 				if( (int)( uPacketSize ) > m_pRecvBuffer->GetSize() || m_pRecvBuffer->cb > 0 )

  00173	33 f6		 xor	 esi, esi

; 442  : 				}
; 443  : 				return pOld;

  00175	e9 38 ff ff ff	 jmp	 $LN6@Fetch
?Fetch@CClientSock@@QAEPAVCBuffer@@K@Z ENDP		; CClientSock::Fetch
_TEXT	ENDS
; Function compile flags: /Ogtp
; File C:\IAGOS\server\v18\Source\Source\_network\net\src\clientsock.cpp
; File C:\IAGOS\server\v18\Source\Source\_Network\Mcl\Include\CMclAutoLock.h
; File C:\IAGOS\server\v18\Source\Source\_Network\Mcl\Include\CMclCritSec.h
; File C:\IAGOS\server\v18\Source\Source\_network\net\src\clientsock.cpp
; File C:\IAGOS\server\v18\Source\Source\_Network\Net\Include\buffer.h
; File C:\IAGOS\server\v18\Source\Source\_network\net\src\clientsock.cpp
; File C:\IAGOS\server\v18\Source\Source\_Network\Mcl\Include\CMclCritSec.h
; File C:\IAGOS\server\v18\Source\Source\_network\net\src\clientsock.cpp
;	COMDAT ?SendRemnant@CClientSock@@QAEHK@Z
_TEXT	SEGMENT
_Lock$ = -24						; size = 4
tv224 = -20						; size = 4
_dwBufferCount$ = -16					; size = 4
__$EHRec$ = -12						; size = 12
_dwBytes$ = 8						; size = 4
?SendRemnant@CClientSock@@QAEHK@Z PROC			; CClientSock::SendRemnant, COMDAT
; _this$ = ecx

; 224  : {

  00000	55		 push	 ebp
  00001	8b ec		 mov	 ebp, esp
  00003	6a ff		 push	 -1
  00005	68 00 00 00 00	 push	 __ehhandler$?SendRemnant@CClientSock@@QAEHK@Z
  0000a	64 a1 00 00 00
	00		 mov	 eax, DWORD PTR fs:0
  00010	50		 push	 eax
  00011	83 ec 0c	 sub	 esp, 12			; 0000000cH
  00014	56		 push	 esi
  00015	57		 push	 edi
  00016	a1 00 00 00 00	 mov	 eax, DWORD PTR ___security_cookie
  0001b	33 c5		 xor	 eax, ebp
  0001d	50		 push	 eax
  0001e	8d 45 f4	 lea	 eax, DWORD PTR __$EHRec$[ebp]
  00021	64 a3 00 00 00
	00		 mov	 DWORD PTR fs:0, eax
  00027	8b f9		 mov	 edi, ecx

; 225  : 	ASSERT( m_hSocket != INVALID_SOCKET );
; 226  : 	DWORD dwBufferCount;
; 227  : 	
; 228  : 	CMclAutoLock	Lock( m_lspSendBuffer.m_cs );

  00029	8d 47 70	 lea	 eax, DWORD PTR [edi+112]
; File C:\IAGOS\server\v18\Source\Source\_Network\Mcl\Include\CMclAutoLock.h

; 21   : 		m_pcCritSec = &rCMclCritSec;

  0002c	89 45 e8	 mov	 DWORD PTR _Lock$[ebp], eax
; File C:\IAGOS\server\v18\Source\Source\_Network\Mcl\Include\CMclCritSec.h

; 33   : 		::EnterCriticalSection( &m_CritSec );

  0002f	83 c0 04	 add	 eax, 4
  00032	50		 push	 eax
  00033	89 45 ec	 mov	 DWORD PTR tv224[ebp], eax
  00036	ff 15 00 00 00
	00		 call	 DWORD PTR __imp__EnterCriticalSection@4
; File C:\IAGOS\server\v18\Source\Source\_network\net\src\clientsock.cpp

; 230  : 	m_lspSendBuffer.RemoveData( dwBytes );

  0003c	ff 75 08	 push	 DWORD PTR _dwBytes$[ebp]
  0003f	8d 4f 60	 lea	 ecx, DWORD PTR [edi+96]
  00042	c7 45 fc 00 00
	00 00		 mov	 DWORD PTR __$EHRec$[ebp+8], 0
  00049	e8 00 00 00 00	 call	 ?RemoveData@CBufferQueue@@QAEXK@Z ; CBufferQueue::RemoveData
; File C:\IAGOS\server\v18\Source\Source\_Network\Net\Include\buffer.h

; 222  : 	{	return( m_uCount == 0 );	}

  0004e	83 7f 6c 00	 cmp	 DWORD PTR [edi+108], 0
; File C:\IAGOS\server\v18\Source\Source\_network\net\src\clientsock.cpp

; 232  : 	if( m_lspSendBuffer.IsEmpty() )

  00052	75 0c		 jne	 SHORT $LN2@SendRemnan

; 233  : 	{
; 234  : 		if( !m_bDoNotWrite )

  00054	8b 77 3c	 mov	 esi, DWORD PTR [edi+60]
  00057	85 f6		 test	 esi, esi
  00059	75 54		 jne	 SHORT $LN8@SendRemnan

; 235  : 			m_nReference--;

  0005b	ff 4f 5c	 dec	 DWORD PTR [edi+92]
  0005e	eb 4f		 jmp	 SHORT $LN8@SendRemnan
$LN2@SendRemnan:

; 236  : 		return m_bDoNotWrite;
; 237  : 	}
; 238  : 
; 239  : 	m_lspSendBuffer.GetData( m_lpBuffers, &dwBufferCount );

  00060	8d 45 f0	 lea	 eax, DWORD PTR _dwBufferCount$[ebp]
  00063	50		 push	 eax
  00064	8d b7 8c 00 00
	00		 lea	 esi, DWORD PTR [edi+140]
  0006a	56		 push	 esi
  0006b	8d 4f 60	 lea	 ecx, DWORD PTR [edi+96]
  0006e	e8 00 00 00 00	 call	 ?GetData@CBufferQueue@@QAEXPAU_WSABUF@@PAK@Z ; CBufferQueue::GetData

; 240  : 
; 241  : 	memset( (void*)&m_ovSend, 0, sizeof(WSAOVERLAPPED) );
; 242  : 	int err;
; 243  : 	if( WSASend( GetHandle(), m_lpBuffers, dwBufferCount, &dwBytes, 0, &m_ovSend, NULL ) != 0 && ( err = WSAGetLastError() ) != WSA_IO_PENDING )

  00073	6a 00		 push	 0
  00075	8d 47 28	 lea	 eax, DWORD PTR [edi+40]
  00078	0f 57 c0	 xorps	 xmm0, xmm0
  0007b	50		 push	 eax
  0007c	0f 11 00	 movups	 XMMWORD PTR [eax], xmm0
  0007f	6a 00		 push	 0
  00081	c7 40 10 00 00
	00 00		 mov	 DWORD PTR [eax+16], 0
  00088	8d 45 08	 lea	 eax, DWORD PTR _dwBytes$[ebp]
  0008b	50		 push	 eax
  0008c	ff 75 f0	 push	 DWORD PTR _dwBufferCount$[ebp]
  0008f	56		 push	 esi
  00090	ff 77 04	 push	 DWORD PTR [edi+4]
  00093	ff 15 00 00 00
	00		 call	 DWORD PTR __imp__WSASend@28
  00099	85 c0		 test	 eax, eax
  0009b	74 10		 je	 SHORT $LN4@SendRemnan
  0009d	ff 15 00 00 00
	00		 call	 DWORD PTR __imp__WSAGetLastError@0
  000a3	8b f0		 mov	 esi, eax
  000a5	81 fe e5 03 00
	00		 cmp	 esi, 997		; 000003e5H
  000ab	75 02		 jne	 SHORT $LN8@SendRemnan
$LN4@SendRemnan:

; 248  : 	return 0;

  000ad	33 f6		 xor	 esi, esi
$LN8@SendRemnan:
; File C:\IAGOS\server\v18\Source\Source\_Network\Mcl\Include\CMclCritSec.h

; 39   : 		::LeaveCriticalSection( &m_CritSec );

  000af	ff 75 ec	 push	 DWORD PTR tv224[ebp]
  000b2	ff 15 00 00 00
	00		 call	 DWORD PTR __imp__LeaveCriticalSection@4
; File C:\IAGOS\server\v18\Source\Source\_network\net\src\clientsock.cpp

; 248  : 	return 0;

  000b8	8b c6		 mov	 eax, esi

; 249  : }

  000ba	8b 4d f4	 mov	 ecx, DWORD PTR __$EHRec$[ebp]
  000bd	64 89 0d 00 00
	00 00		 mov	 DWORD PTR fs:0, ecx
  000c4	59		 pop	 ecx
  000c5	5f		 pop	 edi
  000c6	5e		 pop	 esi
  000c7	8b e5		 mov	 esp, ebp
  000c9	5d		 pop	 ebp
  000ca	c2 04 00	 ret	 4
_TEXT	ENDS
;	COMDAT text$x
text$x	SEGMENT
__unwindfunclet$?SendRemnant@CClientSock@@QAEHK@Z$0:
  00000	8d 4d e8	 lea	 ecx, DWORD PTR _Lock$[ebp]
  00003	e9 00 00 00 00	 jmp	 ??1CMclAutoLock@@QAE@XZ	; CMclAutoLock::~CMclAutoLock
  00008	cc		 int	 3
  00009	cc		 int	 3
  0000a	cc		 int	 3
  0000b	cc		 int	 3
  0000c	cc		 int	 3
__ehhandler$?SendRemnant@CClientSock@@QAEHK@Z:
  0000d	90		 npad	 1
  0000e	90		 npad	 1
  0000f	8b 54 24 08	 mov	 edx, DWORD PTR [esp+8]
  00013	8d 42 0c	 lea	 eax, DWORD PTR [edx+12]
  00016	8b 4a e8	 mov	 ecx, DWORD PTR [edx-24]
  00019	33 c8		 xor	 ecx, eax
  0001b	e8 00 00 00 00	 call	 @__security_check_cookie@4
  00020	b8 00 00 00 00	 mov	 eax, OFFSET __ehfuncinfo$?SendRemnant@CClientSock@@QAEHK@Z
  00025	e9 00 00 00 00	 jmp	 ___CxxFrameHandler3
text$x	ENDS
?SendRemnant@CClientSock@@QAEHK@Z ENDP			; CClientSock::SendRemnant
; Function compile flags: /Ogtp
; File C:\IAGOS\server\v18\Source\Source\_network\net\src\clientsock.cpp
; File C:\IAGOS\server\v18\Source\Source\_Network\Net\Include\buffer.h
; File C:\IAGOS\server\v18\Source\Source\_network\net\src\clientsock.cpp
;	COMDAT ?Recv@CClientSock@@QAEHXZ
_TEXT	SEGMENT
_buffer$ = -16						; size = 8
_dwBytesRecvd$ = -8					; size = 4
_dwFlags$ = -4						; size = 4
?Recv@CClientSock@@QAEHXZ PROC				; CClientSock::Recv, COMDAT
; _this$ = ecx

; 204  : {

  00000	55		 push	 ebp
  00001	8b ec		 mov	 ebp, esp
  00003	83 ec 10	 sub	 esp, 16			; 00000010H

; 209  : 	buffer.buf	= (char*)m_pRecvBuffer->GetWritableBuffer( (int*)&buffer.len );

  00006	8b 51 10	 mov	 edx, DWORD PTR [ecx+16]
  00009	0f 57 c0	 xorps	 xmm0, xmm0
  0000c	c7 45 f8 00 00
	00 00		 mov	 DWORD PTR _dwBytesRecvd$[ebp], 0
  00013	c7 45 fc 00 00
	00 00		 mov	 DWORD PTR _dwFlags$[ebp], 0

; 212  : 
; 213  : 	int err;
; 214  : 	if( WSARecv( GetHandle(), &buffer, (DWORD)1, &dwBytesRecvd, &dwFlags, &m_ovRecv, NULL ) != 0 && ( err = WSAGetLastError() ) != WSA_IO_PENDING )

  0001a	6a 00		 push	 0
; File C:\IAGOS\server\v18\Source\Source\_Network\Net\Include\buffer.h

; 104  : 	*pnBufSize	= (int)( m_lpBufMax - m_pTail );	

  0001c	8b 82 10 20 00
	00		 mov	 eax, DWORD PTR [edx+8208]
  00022	2b 82 18 20 00
	00		 sub	 eax, DWORD PTR [edx+8216]
  00028	89 45 f0	 mov	 DWORD PTR _buffer$[ebp], eax
; File C:\IAGOS\server\v18\Source\Source\_network\net\src\clientsock.cpp

; 209  : 	buffer.buf	= (char*)m_pRecvBuffer->GetWritableBuffer( (int*)&buffer.len );

  0002b	8b 82 18 20 00
	00		 mov	 eax, DWORD PTR [edx+8216]
  00031	89 45 f4	 mov	 DWORD PTR _buffer$[ebp+4], eax

; 210  : 
; 211  : 	memset( &m_ovRecv, 0, sizeof(WSAOVERLAPPED) );

  00034	8d 41 14	 lea	 eax, DWORD PTR [ecx+20]

; 212  : 
; 213  : 	int err;
; 214  : 	if( WSARecv( GetHandle(), &buffer, (DWORD)1, &dwBytesRecvd, &dwFlags, &m_ovRecv, NULL ) != 0 && ( err = WSAGetLastError() ) != WSA_IO_PENDING )

  00037	50		 push	 eax
  00038	0f 11 00	 movups	 XMMWORD PTR [eax], xmm0
  0003b	c7 40 10 00 00
	00 00		 mov	 DWORD PTR [eax+16], 0
  00042	8d 45 fc	 lea	 eax, DWORD PTR _dwFlags$[ebp]
  00045	50		 push	 eax
  00046	8d 45 f8	 lea	 eax, DWORD PTR _dwBytesRecvd$[ebp]
  00049	50		 push	 eax
  0004a	6a 01		 push	 1
  0004c	8d 45 f0	 lea	 eax, DWORD PTR _buffer$[ebp]
  0004f	50		 push	 eax
  00050	ff 71 04	 push	 DWORD PTR [ecx+4]
  00053	ff 15 00 00 00
	00		 call	 DWORD PTR __imp__WSARecv@28
  00059	85 c0		 test	 eax, eax
  0005b	74 16		 je	 SHORT $LN2@Recv
  0005d	ff 15 00 00 00
	00		 call	 DWORD PTR __imp__WSAGetLastError@0
  00063	33 c9		 xor	 ecx, ecx
  00065	3d e5 03 00 00	 cmp	 eax, 997		; 000003e5H
  0006a	0f 45 c8	 cmovne	 ecx, eax

; 215  : 	{
; 216  : //		TRACE( "I/o error, close socket %d, %x //REF:%d\n", GetHandle(), this, m_l-1 );
; 217  : 		return err;

  0006d	8b c1		 mov	 eax, ecx

; 221  : }

  0006f	8b e5		 mov	 esp, ebp
  00071	5d		 pop	 ebp
  00072	c3		 ret	 0
$LN2@Recv:

; 218  : 	}
; 219  : 
; 220  : 	return 0;

  00073	33 c0		 xor	 eax, eax

; 221  : }

  00075	8b e5		 mov	 esp, ebp
  00077	5d		 pop	 ebp
  00078	c3		 ret	 0
?Recv@CClientSock@@QAEHXZ ENDP				; CClientSock::Recv
_TEXT	ENDS
; Function compile flags: /Ogtp
; File C:\IAGOS\server\v18\Source\Source\_network\net\src\clientsock.cpp
;	COMDAT ?Connect@CClientSock@@QAEHPADG@Z
_TEXT	SEGMENT
_sin$ = -20						; size = 16
__$ArrayPad$ = -4					; size = 4
_lpAddr$ = 8						; size = 4
_uPort$ = 12						; size = 2
?Connect@CClientSock@@QAEHPADG@Z PROC			; CClientSock::Connect, COMDAT
; _this$ = ecx

; 125  : {

  00000	55		 push	 ebp
  00001	8b ec		 mov	 ebp, esp
  00003	83 ec 14	 sub	 esp, 20			; 00000014H
  00006	a1 00 00 00 00	 mov	 eax, DWORD PTR ___security_cookie
  0000b	33 c5		 xor	 eax, ebp
  0000d	89 45 fc	 mov	 DWORD PTR __$ArrayPad$[ebp], eax
  00010	56		 push	 esi
  00011	8b 75 08	 mov	 esi, DWORD PTR _lpAddr$[ebp]
  00014	57		 push	 edi
  00015	8b f9		 mov	 edi, ecx

; 126  : 	if( m_hSocket == INVALID_SOCKET )

  00017	83 7f 04 ff	 cmp	 DWORD PTR [edi+4], -1
  0001b	0f 84 84 00 00
	00		 je	 $LN7@Connect

; 127  : 	{
; 128  : 		TRACE( "Creation needed\n" );
; 129  : 		return FALSE;
; 130  : 	}
; 131  : 
; 132  : 	SOCKADDR_IN sin;
; 133  : 	memset( &sin, 0, sizeof(sin) );
; 134  : 	sin.sin_family		= AF_INET;

  00021	0f 57 c0	 xorps	 xmm0, xmm0
  00024	b8 02 00 00 00	 mov	 eax, 2
  00029	0f 11 45 ec	 movups	 XMMWORD PTR _sin$[ebp], xmm0

; 135  : 	sin.sin_addr.s_addr	= inet_addr( lpAddr );

  0002d	56		 push	 esi
  0002e	66 89 45 ec	 mov	 WORD PTR _sin$[ebp], ax
  00032	ff 15 00 00 00
	00		 call	 DWORD PTR __imp__inet_addr@4
  00038	89 45 f0	 mov	 DWORD PTR _sin$[ebp+4], eax
  0003b	83 f8 ff	 cmp	 eax, -1

; 136  : 	if( sin.sin_addr.s_addr == INADDR_NONE )

  0003e	75 15		 jne	 SHORT $LN5@Connect

; 137  : 	{
; 138  : 		LPHOSTENT lphost;
; 139  : 		lphost	= gethostbyname( lpAddr );

  00040	56		 push	 esi
  00041	ff 15 00 00 00
	00		 call	 DWORD PTR __imp__gethostbyname@4

; 140  : 		if( lphost )

  00047	85 c0		 test	 eax, eax
  00049	74 4f		 je	 SHORT $LN4@Connect

; 141  : 			sin.sin_addr.s_addr		= ((LPIN_ADDR)lphost->h_addr)->s_addr;

  0004b	8b 40 0c	 mov	 eax, DWORD PTR [eax+12]
  0004e	8b 00		 mov	 eax, DWORD PTR [eax]
  00050	8b 00		 mov	 eax, DWORD PTR [eax]
  00052	89 45 f0	 mov	 DWORD PTR _sin$[ebp+4], eax
$LN5@Connect:

; 148  : 			return FALSE;
; 149  : 		}
; 150  : 	}
; 151  : 	sin.sin_port = htons( uPort );

  00055	ff 75 0c	 push	 DWORD PTR _uPort$[ebp]
  00058	ff 15 00 00 00
	00		 call	 DWORD PTR __imp__htons@4
  0005e	66 89 45 ee	 mov	 WORD PTR _sin$[ebp+2], ax

; 152  : 
; 153  : 	if( connect( m_hSocket, (LPSOCKADDR) &sin, sizeof(sin) ) == SOCKET_ERROR )

  00062	8d 45 ec	 lea	 eax, DWORD PTR _sin$[ebp]
  00065	6a 10		 push	 16			; 00000010H
  00067	50		 push	 eax
  00068	ff 77 04	 push	 DWORD PTR [edi+4]
  0006b	ff 15 00 00 00
	00		 call	 DWORD PTR __imp__connect@12
  00071	83 f8 ff	 cmp	 eax, -1
  00074	75 0d		 jne	 SHORT $LN6@Connect

; 154  : 	{
; 155  : 		int	err;
; 156  : 		if( ( err = WSAGetLastError() ) == WSAEWOULDBLOCK )		// ??

  00076	ff 15 00 00 00
	00		 call	 DWORD PTR __imp__WSAGetLastError@0
  0007c	3d 33 27 00 00	 cmp	 eax, 10035		; 00002733H
  00081	75 22		 jne	 SHORT $LN7@Connect
$LN6@Connect:
  00083	5f		 pop	 edi

; 157  : 			return TRUE;
; 158  : 		#ifdef __INFO_SOCKLIB0516
; 159  : 			m_dwDbgInfo = err;
; 160  : 		#endif
; 161  : 
; 162  : 		TRACE( "Can't connect with error %d: ip(%s)n", err, lpAddr );
; 163  : 		return FALSE;
; 164  : 	}
; 165  : 	return TRUE;

  00084	b8 01 00 00 00	 mov	 eax, 1

; 166  : }

  00089	5e		 pop	 esi
  0008a	8b 4d fc	 mov	 ecx, DWORD PTR __$ArrayPad$[ebp]
  0008d	33 cd		 xor	 ecx, ebp
  0008f	e8 00 00 00 00	 call	 @__security_check_cookie@4
  00094	8b e5		 mov	 esp, ebp
  00096	5d		 pop	 ebp
  00097	c2 08 00	 ret	 8
$LN4@Connect:

; 142  : 		else
; 143  : 		{
; 144  : 			#ifdef __INFO_SOCKLIB0516
; 145  : 				m_dwDbgInfo = WSAEINVAL;
; 146  : 			#endif
; 147  : 			WSASetLastError( WSAEINVAL );

  0009a	68 26 27 00 00	 push	 10022			; 00002726H
  0009f	ff 15 00 00 00
	00		 call	 DWORD PTR __imp__WSASetLastError@4
$LN7@Connect:

; 166  : }

  000a5	8b 4d fc	 mov	 ecx, DWORD PTR __$ArrayPad$[ebp]
  000a8	33 c0		 xor	 eax, eax
  000aa	5f		 pop	 edi
  000ab	33 cd		 xor	 ecx, ebp
  000ad	5e		 pop	 esi
  000ae	e8 00 00 00 00	 call	 @__security_check_cookie@4
  000b3	8b e5		 mov	 esp, ebp
  000b5	5d		 pop	 ebp
  000b6	c2 08 00	 ret	 8
?Connect@CClientSock@@QAEHPADG@Z ENDP			; CClientSock::Connect
_TEXT	ENDS
; Function compile flags: /Ogtp
; File C:\IAGOS\server\v18\Source\Source\_network\net\src\clientsock.cpp
;	COMDAT ?CreateBuffer@CClientSock@@QAEPAVCBuffer@@XZ
_TEXT	SEGMENT
?CreateBuffer@CClientSock@@QAEPAVCBuffer@@XZ PROC	; CClientSock::CreateBuffer, COMDAT
; _this$ = ecx

; 502  : 	return CBufferFactory::GetInstance().CreateBuffer( m_nBufferType );

  00000	68 00 20 00 00	 push	 8192			; 00002000H
  00005	ff b1 8c 04 00
	00		 push	 DWORD PTR [ecx+1164]
  0000b	e8 00 00 00 00	 call	 ?GetInstance@CBufferFactory@@SAAAV1@XZ ; CBufferFactory::GetInstance
  00010	8b c8		 mov	 ecx, eax
  00012	e8 00 00 00 00	 call	 ?CreateBuffer@CBufferFactory@@QAEPAVCBuffer@@W4BUFFER_TYPE@@K@Z ; CBufferFactory::CreateBuffer

; 503  : }

  00017	c3		 ret	 0
?CreateBuffer@CClientSock@@QAEPAVCBuffer@@XZ ENDP	; CClientSock::CreateBuffer
_TEXT	ENDS
; Function compile flags: /Ogtp
; File C:\IAGOS\server\v18\Source\Source\_network\net\src\clientsock.cpp
; File C:\IAGOS\server\v18\Source\Source\_Network\Mcl\Include\CMclCritSec.h
; File C:\IAGOS\server\v18\Source\Source\_network\net\src\clientsock.cpp
;	COMDAT ??1CClientSock@@UAE@XZ
_TEXT	SEGMENT
??1CClientSock@@UAE@XZ PROC				; CClientSock::~CClientSock, COMDAT
; _this$ = ecx

; 95   : {

  00000	56		 push	 esi
  00001	8b f1		 mov	 esi, ecx
  00003	c7 06 00 00 00
	00		 mov	 DWORD PTR [esi], OFFSET ??_7CClientSock@@6B@

; 96   : 	Close();

  00009	e8 00 00 00 00	 call	 ?Close@CClientSock@@UAEXXZ ; CClientSock::Close

; 97   : }

  0000e	8d 4e 60	 lea	 ecx, DWORD PTR [esi+96]
  00011	e8 00 00 00 00	 call	 ??1CBufferQueue@@UAE@XZ	; CBufferQueue::~CBufferQueue
; File C:\IAGOS\server\v18\Source\Source\_Network\Mcl\Include\CMclCritSec.h

; 27   : 		::DeleteCriticalSection( &m_CritSec );

  00016	8d 46 44	 lea	 eax, DWORD PTR [esi+68]
  00019	c7 46 40 00 00
	00 00		 mov	 DWORD PTR [esi+64], OFFSET ??_7CMclCritSec@@6B@
  00020	50		 push	 eax
  00021	ff 15 00 00 00
	00		 call	 DWORD PTR __imp__DeleteCriticalSection@4
; File C:\IAGOS\server\v18\Source\Source\_network\net\src\clientsock.cpp

; 97   : }

  00027	8b ce		 mov	 ecx, esi
  00029	5e		 pop	 esi
  0002a	e9 00 00 00 00	 jmp	 ??1CSock@@UAE@XZ	; CSock::~CSock
??1CClientSock@@UAE@XZ ENDP				; CClientSock::~CClientSock
_TEXT	ENDS
; Function compile flags: /Ogtp
; File C:\IAGOS\server\v18\Source\Source\_network\net\src\clientsock.cpp
; File C:\IAGOS\server\v18\Source\Source\_Network\Mcl\Include\CMclCritSec.h
; File C:\IAGOS\server\v18\Source\Source\_network\net\src\clientsock.cpp
; File C:\IAGOS\server\v18\Source\Source\_Network\Mcl\Include\CMclCritSec.h
; File C:\IAGOS\server\v18\Source\Source\_network\net\src\clientsock.cpp
; File C:\IAGOS\server\v18\Source\Source\_Network\Mcl\Include\CMclCritSec.h
; File C:\IAGOS\server\v18\Source\Source\_network\net\src\clientsock.cpp
;	COMDAT ??0CClientSock@@QAE@W4BUFFER_TYPE@@@Z
_TEXT	SEGMENT
_this$ = -16						; size = 4
__$EHRec$ = -12						; size = 12
_type$ = 8						; size = 4
??0CClientSock@@QAE@W4BUFFER_TYPE@@@Z PROC		; CClientSock::CClientSock, COMDAT
; _this$ = ecx

; 50   : {

  00000	55		 push	 ebp
  00001	8b ec		 mov	 ebp, esp
  00003	6a ff		 push	 -1
  00005	68 00 00 00 00	 push	 __ehhandler$??0CClientSock@@QAE@W4BUFFER_TYPE@@@Z
  0000a	64 a1 00 00 00
	00		 mov	 eax, DWORD PTR fs:0
  00010	50		 push	 eax
  00011	51		 push	 ecx
  00012	56		 push	 esi
  00013	57		 push	 edi
  00014	a1 00 00 00 00	 mov	 eax, DWORD PTR ___security_cookie
  00019	33 c5		 xor	 eax, ebp
  0001b	50		 push	 eax
  0001c	8d 45 f4	 lea	 eax, DWORD PTR __$EHRec$[ebp]
  0001f	64 a3 00 00 00
	00		 mov	 DWORD PTR fs:0, eax
  00025	8b f9		 mov	 edi, ecx
  00027	89 7d f0	 mov	 DWORD PTR _this$[ebp], edi
  0002a	e8 00 00 00 00	 call	 ??0CSock@@QAE@XZ	; CSock::CSock
; File C:\IAGOS\server\v18\Source\Source\_Network\Mcl\Include\CMclCritSec.h

; 21   : 		::InitializeCriticalSection( &m_CritSec );

  0002f	8d 47 44	 lea	 eax, DWORD PTR [edi+68]
; File C:\IAGOS\server\v18\Source\Source\_network\net\src\clientsock.cpp

; 50   : {

  00032	c7 07 00 00 00
	00		 mov	 DWORD PTR [edi], OFFSET ??_7CClientSock@@6B@
; File C:\IAGOS\server\v18\Source\Source\_Network\Mcl\Include\CMclCritSec.h

; 21   : 		::InitializeCriticalSection( &m_CritSec );

  00038	50		 push	 eax
; File C:\IAGOS\server\v18\Source\Source\_network\net\src\clientsock.cpp

; 50   : {

  00039	c7 45 fc 00 00
	00 00		 mov	 DWORD PTR __$EHRec$[ebp+8], 0
; File C:\IAGOS\server\v18\Source\Source\_Network\Mcl\Include\CMclCritSec.h

; 20   :     {

  00040	c7 47 40 00 00
	00 00		 mov	 DWORD PTR [edi+64], OFFSET ??_7CMclCritSec@@6B@

; 21   : 		::InitializeCriticalSection( &m_CritSec );

  00047	ff 15 00 00 00
	00		 call	 DWORD PTR __imp__InitializeCriticalSection@4
; File C:\IAGOS\server\v18\Source\Source\_network\net\src\clientsock.cpp

; 50   : {

  0004d	8d 4f 60	 lea	 ecx, DWORD PTR [edi+96]
  00050	c6 45 fc 01	 mov	 BYTE PTR __$EHRec$[ebp+8], 1
  00054	e8 00 00 00 00	 call	 ??0CBufferQueue@@QAE@XZ	; CBufferQueue::CBufferQueue

; 51   : #ifdef __CRC
; 52   : 	m_pRecvBuffer	= CBufferFactory::GetInstance().CreateBuffer( BUFFER_TYPE_5BYTE );
; 53   : 	if( CSock::crcRead & dwcrc )
; 54   : 		m_dwReadHeaderSize	= HEADERSIZE13;
; 55   : 	else
; 56   : 		m_dwReadHeaderSize	= HEADERSIZE5;
; 57   : 
; 58   : #ifdef __PROTOCOL0910
; 59   : 	m_dwProtocolId	= 0;
; 60   : #endif	// __PROTOCOL0910
; 61   : 	
; 62   : 	if( CSock::crcWrite & dwcrc )
; 63   : #ifdef __PROTOCOL0910
; 64   : 		m_lspSendBuffer.crc( &m_crcWrite, &m_dwProtocolId );
; 65   : #else	// __PROTOCOL0910
; 66   : 		m_lspSendBuffer.crc( &m_crcWrite );
; 67   : #endif	// __PROTOCOL0910
; 68   : 	m_nBufferType = BUFFER_TYPE_5BYTE;
; 69   : #else	// __CRC
; 70   : //	m_l	= 0;
; 71   : 	m_pRecvBuffer	= CBufferFactory::GetInstance().CreateBuffer( type );

  00059	8b 75 08	 mov	 esi, DWORD PTR _type$[ebp]
  0005c	68 00 20 00 00	 push	 8192			; 00002000H
  00061	56		 push	 esi
  00062	c6 45 fc 02	 mov	 BYTE PTR __$EHRec$[ebp+8], 2
  00066	e8 00 00 00 00	 call	 ?GetInstance@CBufferFactory@@SAAAV1@XZ ; CBufferFactory::GetInstance
  0006b	8b c8		 mov	 ecx, eax
  0006d	e8 00 00 00 00	 call	 ?CreateBuffer@CBufferFactory@@QAEPAVCBuffer@@W4BUFFER_TYPE@@K@Z ; CBufferFactory::CreateBuffer
  00072	89 47 10	 mov	 DWORD PTR [edi+16], eax

; 72   : 	m_nBufferType = type;
; 73   : #endif	// __CRC
; 74   : 
; 75   : #ifdef __PACKET_REPLAY_R
; 76   : 	m_nPacket	= 0;
; 77   : #endif	// __PACKET_REPLAY_R
; 78   : 
; 79   : 	m_dwAddr	= 0;
; 80   : 
; 81   : 	m_bDoNotWrite	= FALSE;
; 82   : 	m_nReference	= 0;
; 83   : #ifdef __INFO_SOCKLIB0516
; 84   : 	m_dwDbgInfo		= 0;
; 85   : #endif	// __INFO_SOCKLIB0516
; 86   : 
; 87   : #ifdef __INFO_SOCKLIB0102
; 88   : 	m_dwReadBytes	= 0;
; 89   : 	m_dwReadPacks	= 0;
; 90   : 	m_tRead	= time( NULL );
; 91   : #endif	// __INFO_SOCKLIB0102
; 92   : }

  00075	8b c7		 mov	 eax, edi
  00077	89 b7 8c 04 00
	00		 mov	 DWORD PTR [edi+1164], esi
  0007d	c7 87 90 04 00
	00 00 00 00 00	 mov	 DWORD PTR [edi+1168], 0
  00087	c7 47 3c 00 00
	00 00		 mov	 DWORD PTR [edi+60], 0
  0008e	c7 47 5c 00 00
	00 00		 mov	 DWORD PTR [edi+92], 0
  00095	8b 4d f4	 mov	 ecx, DWORD PTR __$EHRec$[ebp]
  00098	64 89 0d 00 00
	00 00		 mov	 DWORD PTR fs:0, ecx
  0009f	59		 pop	 ecx
  000a0	5f		 pop	 edi
  000a1	5e		 pop	 esi
  000a2	8b e5		 mov	 esp, ebp
  000a4	5d		 pop	 ebp
  000a5	c2 04 00	 ret	 4
_TEXT	ENDS
;	COMDAT text$x
text$x	SEGMENT
__unwindfunclet$??0CClientSock@@QAE@W4BUFFER_TYPE@@@Z$0:
  00000	8b 4d f0	 mov	 ecx, DWORD PTR _this$[ebp]
  00003	e9 00 00 00 00	 jmp	 ??1CSock@@UAE@XZ	; CSock::~CSock
__unwindfunclet$??0CClientSock@@QAE@W4BUFFER_TYPE@@@Z$1:
  00008	8b 4d f0	 mov	 ecx, DWORD PTR _this$[ebp]
  0000b	83 c1 40	 add	 ecx, 64			; 00000040H
  0000e	e9 00 00 00 00	 jmp	 ??1CMclCritSec@@UAE@XZ	; CMclCritSec::~CMclCritSec
__unwindfunclet$??0CClientSock@@QAE@W4BUFFER_TYPE@@@Z$2:
  00013	8b 4d f0	 mov	 ecx, DWORD PTR _this$[ebp]
  00016	83 c1 60	 add	 ecx, 96			; 00000060H
  00019	e9 00 00 00 00	 jmp	 ??1CBufferQueue@@UAE@XZ	; CBufferQueue::~CBufferQueue
  0001e	cc		 int	 3
  0001f	cc		 int	 3
  00020	cc		 int	 3
  00021	cc		 int	 3
  00022	cc		 int	 3
__ehhandler$??0CClientSock@@QAE@W4BUFFER_TYPE@@@Z:
  00023	90		 npad	 1
  00024	90		 npad	 1
  00025	8b 54 24 08	 mov	 edx, DWORD PTR [esp+8]
  00029	8d 42 0c	 lea	 eax, DWORD PTR [edx+12]
  0002c	8b 4a f0	 mov	 ecx, DWORD PTR [edx-16]
  0002f	33 c8		 xor	 ecx, eax
  00031	e8 00 00 00 00	 call	 @__security_check_cookie@4
  00036	b8 00 00 00 00	 mov	 eax, OFFSET __ehfuncinfo$??0CClientSock@@QAE@W4BUFFER_TYPE@@@Z
  0003b	e9 00 00 00 00	 jmp	 ___CxxFrameHandler3
text$x	ENDS
??0CClientSock@@QAE@W4BUFFER_TYPE@@@Z ENDP		; CClientSock::CClientSock
; Function compile flags: /Ogtp
; File C:\Program Files\Microsoft Visual Studio\2022\Professional\VC\Tools\MSVC\14.44.35207\include\list
; File C:\Program Files\Microsoft Visual Studio\2022\Professional\VC\Tools\MSVC\14.44.35207\include\xmemory
; File C:\Program Files\Microsoft Visual Studio\2022\Professional\VC\Tools\MSVC\14.44.35207\include\list
; File C:\Program Files\Microsoft Visual Studio\2022\Professional\VC\Tools\MSVC\14.44.35207\include\xmemory
; File C:\Program Files\Microsoft Visual Studio\2022\Professional\VC\Tools\MSVC\14.44.35207\include\list
;	COMDAT ??1?$list@PAXV?$allocator@PAX@std@@@std@@QAE@XZ
_TEXT	SEGMENT
??1?$list@PAXV?$allocator@PAX@std@@@std@@QAE@XZ PROC	; std::list<void *,std::allocator<void *> >::~list<void *,std::allocator<void *> >, COMDAT
; _this$ = ecx

; 1060 :     ~list() noexcept {

  00000	57		 push	 edi
  00001	8b f9		 mov	 edi, ecx

; 1518 :         _Node::_Free_non_head(_Al, _My_data._Myhead);

  00003	8b 17		 mov	 edx, DWORD PTR [edi]

; 324  :         _Head->_Prev->_Next = nullptr;

  00005	8b 42 04	 mov	 eax, DWORD PTR [edx+4]
  00008	c7 00 00 00 00
	00		 mov	 DWORD PTR [eax], 0

; 325  : 
; 326  :         auto _Pnode = _Head->_Next;

  0000e	8b 02		 mov	 eax, DWORD PTR [edx]

; 327  :         for (_Nodeptr _Pnext; _Pnode; _Pnode = _Pnext) {

  00010	85 c0		 test	 eax, eax
  00012	74 15		 je	 SHORT $LN57@list
  00014	56		 push	 esi
$LL10@list:

; 328  :             _Pnext = _Pnode->_Next;

  00015	8b 30		 mov	 esi, DWORD PTR [eax]
; File C:\Program Files\Microsoft Visual Studio\2022\Professional\VC\Tools\MSVC\14.44.35207\include\xmemory

; 289  :         ::operator delete(_Ptr, _Bytes);

  00017	6a 0c		 push	 12			; 0000000cH
  00019	50		 push	 eax
  0001a	e8 00 00 00 00	 call	 ??3@YAXPAXI@Z		; operator delete
  0001f	83 c4 08	 add	 esp, 8
; File C:\Program Files\Microsoft Visual Studio\2022\Professional\VC\Tools\MSVC\14.44.35207\include\list

; 327  :         for (_Nodeptr _Pnext; _Pnode; _Pnode = _Pnext) {

  00022	8b c6		 mov	 eax, esi
  00024	85 f6		 test	 esi, esi
  00026	75 ed		 jne	 SHORT $LL10@list
  00028	5e		 pop	 esi
$LN57@list:
; File C:\Program Files\Microsoft Visual Studio\2022\Professional\VC\Tools\MSVC\14.44.35207\include\xmemory

; 289  :         ::operator delete(_Ptr, _Bytes);

  00029	6a 0c		 push	 12			; 0000000cH
  0002b	ff 37		 push	 DWORD PTR [edi]
  0002d	e8 00 00 00 00	 call	 ??3@YAXPAXI@Z		; operator delete
  00032	83 c4 08	 add	 esp, 8
  00035	5f		 pop	 edi
; File C:\Program Files\Microsoft Visual Studio\2022\Professional\VC\Tools\MSVC\14.44.35207\include\list

; 1066 :     }

  00036	c3		 ret	 0
??1?$list@PAXV?$allocator@PAX@std@@@std@@QAE@XZ ENDP	; std::list<void *,std::allocator<void *> >::~list<void *,std::allocator<void *> >
_TEXT	ENDS
; Function compile flags: /Ogtp
; File C:\IAGOS\server\v18\Source\Source\_Network\Net\Include\sock.h
;	COMDAT ?Get@CSock@@UAEPAV1@I@Z
_TEXT	SEGMENT
_hSocket$ = 8						; size = 4
?Get@CSock@@UAEPAV1@I@Z PROC				; CSock::Get, COMDAT
; _this$ = ecx

; 51   : inline CSock* CSock::Get( SOCKET hSocket )	{	return( m_hSocket == hSocket ? this : NULL );	}

  00000	55		 push	 ebp
  00001	8b ec		 mov	 ebp, esp
  00003	8b 51 04	 mov	 edx, DWORD PTR [ecx+4]
  00006	33 c0		 xor	 eax, eax
  00008	3b 55 08	 cmp	 edx, DWORD PTR _hSocket$[ebp]
  0000b	0f 44 c1	 cmove	 eax, ecx
  0000e	5d		 pop	 ebp
  0000f	c2 04 00	 ret	 4
?Get@CSock@@UAEPAV1@I@Z ENDP				; CSock::Get
_TEXT	ENDS
; Function compile flags: /Ogtp
; File C:\IAGOS\server\v18\Source\Source\_Network\Mcl\Include\CMclAutoLock.h
; File C:\IAGOS\server\v18\Source\Source\_Network\Mcl\Include\CMclCritSec.h
; File C:\IAGOS\server\v18\Source\Source\_Network\Mcl\Include\CMclAutoLock.h
;	COMDAT ??1CMclAutoLock@@QAE@XZ
_TEXT	SEGMENT
??1CMclAutoLock@@QAE@XZ PROC				; CMclAutoLock::~CMclAutoLock, COMDAT
; _this$ = ecx
; File C:\IAGOS\server\v18\Source\Source\_Network\Mcl\Include\CMclCritSec.h

; 39   : 		::LeaveCriticalSection( &m_CritSec );

  00000	8b 01		 mov	 eax, DWORD PTR [ecx]
  00002	83 c0 04	 add	 eax, 4
  00005	50		 push	 eax
  00006	ff 15 00 00 00
	00		 call	 DWORD PTR __imp__LeaveCriticalSection@4
; File C:\IAGOS\server\v18\Source\Source\_Network\Mcl\Include\CMclAutoLock.h

; 29   : 	}

  0000c	c3		 ret	 0
??1CMclAutoLock@@QAE@XZ ENDP				; CMclAutoLock::~CMclAutoLock
_TEXT	ENDS
; Function compile flags: /Ogtp
; File C:\IAGOS\server\v18\Source\Source\_Network\Mcl\Include\CMclCritSec.h
;	COMDAT ??_GCMclCritSec@@UAEPAXI@Z
_TEXT	SEGMENT
___flags$ = 8						; size = 4
??_GCMclCritSec@@UAEPAXI@Z PROC				; CMclCritSec::`scalar deleting destructor', COMDAT
; _this$ = ecx
  00000	55		 push	 ebp
  00001	8b ec		 mov	 ebp, esp

; 26   : 	{

  00003	56		 push	 esi
  00004	8b f1		 mov	 esi, ecx

; 27   : 		::DeleteCriticalSection( &m_CritSec );

  00006	8d 46 04	 lea	 eax, DWORD PTR [esi+4]
  00009	c7 06 00 00 00
	00		 mov	 DWORD PTR [esi], OFFSET ??_7CMclCritSec@@6B@
  0000f	50		 push	 eax
  00010	ff 15 00 00 00
	00		 call	 DWORD PTR __imp__DeleteCriticalSection@4
  00016	f6 45 08 01	 test	 BYTE PTR ___flags$[ebp], 1
  0001a	74 0b		 je	 SHORT $LN8@scalar
  0001c	6a 1c		 push	 28			; 0000001cH
  0001e	56		 push	 esi
  0001f	e8 00 00 00 00	 call	 ??3@YAXPAXI@Z		; operator delete
  00024	83 c4 08	 add	 esp, 8
$LN8@scalar:
  00027	8b c6		 mov	 eax, esi
  00029	5e		 pop	 esi
  0002a	5d		 pop	 ebp
  0002b	c2 04 00	 ret	 4
??_GCMclCritSec@@UAEPAXI@Z ENDP				; CMclCritSec::`scalar deleting destructor'
_TEXT	ENDS
; Function compile flags: /Ogtp
; File C:\IAGOS\server\v18\Source\Source\_Network\Mcl\Include\CMclCritSec.h
;	COMDAT ??1CMclCritSec@@UAE@XZ
_TEXT	SEGMENT
??1CMclCritSec@@UAE@XZ PROC				; CMclCritSec::~CMclCritSec, COMDAT
; _this$ = ecx

; 27   : 		::DeleteCriticalSection( &m_CritSec );

  00000	8d 41 04	 lea	 eax, DWORD PTR [ecx+4]
  00003	c7 01 00 00 00
	00		 mov	 DWORD PTR [ecx], OFFSET ??_7CMclCritSec@@6B@
  00009	50		 push	 eax
  0000a	ff 15 00 00 00
	00		 call	 DWORD PTR __imp__DeleteCriticalSection@4

; 28   : 	}

  00010	c3		 ret	 0
??1CMclCritSec@@UAE@XZ ENDP				; CMclCritSec::~CMclCritSec
_TEXT	ENDS
; Function compile flags: /Ogtp
; File C:\Program Files\Microsoft Visual Studio\2022\Professional\VC\Tools\MSVC\14.44.35207\include\xmemory
;	COMDAT ?_Throw_bad_array_new_length@std@@YAXXZ
_TEXT	SEGMENT
$T1 = -12						; size = 12
?_Throw_bad_array_new_length@std@@YAXXZ PROC		; std::_Throw_bad_array_new_length, COMDAT

; 107  : [[noreturn]] inline void _Throw_bad_array_new_length() {

  00000	55		 push	 ebp
  00001	8b ec		 mov	 ebp, esp
  00003	83 ec 0c	 sub	 esp, 12			; 0000000cH

; 108  :     _THROW(bad_array_new_length{});

  00006	8d 4d f4	 lea	 ecx, DWORD PTR $T1[ebp]
  00009	e8 00 00 00 00	 call	 ??0bad_array_new_length@std@@QAE@XZ ; std::bad_array_new_length::bad_array_new_length
  0000e	68 00 00 00 00	 push	 OFFSET __TI3?AVbad_array_new_length@std@@
  00013	8d 45 f4	 lea	 eax, DWORD PTR $T1[ebp]
  00016	50		 push	 eax
  00017	e8 00 00 00 00	 call	 __CxxThrowException@8
$LN3@Throw_bad_:
  0001c	cc		 int	 3
?_Throw_bad_array_new_length@std@@YAXXZ ENDP		; std::_Throw_bad_array_new_length
_TEXT	ENDS
; Function compile flags: /Ogtp
; File C:\Program Files\Microsoft Visual Studio\2022\Professional\VC\Tools\MSVC\14.44.35207\include\vcruntime_exception.h
;	COMDAT ??_Gbad_array_new_length@std@@UAEPAXI@Z
_TEXT	SEGMENT
___flags$ = 8						; size = 4
??_Gbad_array_new_length@std@@UAEPAXI@Z PROC		; std::bad_array_new_length::`scalar deleting destructor', COMDAT
; _this$ = ecx
  00000	55		 push	 ebp
  00001	8b ec		 mov	 ebp, esp

; 90   :     {

  00003	56		 push	 esi
  00004	8b f1		 mov	 esi, ecx

; 91   :         __std_exception_destroy(&_Data);

  00006	8d 46 04	 lea	 eax, DWORD PTR [esi+4]
  00009	c7 06 00 00 00
	00		 mov	 DWORD PTR [esi], OFFSET ??_7exception@std@@6B@
  0000f	50		 push	 eax
  00010	e8 00 00 00 00	 call	 ___std_exception_destroy
  00015	83 c4 04	 add	 esp, 4
  00018	f6 45 08 01	 test	 BYTE PTR ___flags$[ebp], 1
  0001c	74 0b		 je	 SHORT $LN18@scalar
  0001e	6a 0c		 push	 12			; 0000000cH
  00020	56		 push	 esi
  00021	e8 00 00 00 00	 call	 ??3@YAXPAXI@Z		; operator delete
  00026	83 c4 08	 add	 esp, 8
$LN18@scalar:
  00029	8b c6		 mov	 eax, esi
  0002b	5e		 pop	 esi
  0002c	5d		 pop	 ebp
  0002d	c2 04 00	 ret	 4
??_Gbad_array_new_length@std@@UAEPAXI@Z ENDP		; std::bad_array_new_length::`scalar deleting destructor'
_TEXT	ENDS
; Function compile flags: /Ogtp
; File C:\Program Files\Microsoft Visual Studio\2022\Professional\VC\Tools\MSVC\14.44.35207\include\vcruntime_exception.h
;	COMDAT ??0bad_array_new_length@std@@QAE@ABV01@@Z
_TEXT	SEGMENT
___that$ = 8						; size = 4
??0bad_array_new_length@std@@QAE@ABV01@@Z PROC		; std::bad_array_new_length::bad_array_new_length, COMDAT
; _this$ = ecx
  00000	55		 push	 ebp
  00001	8b ec		 mov	 ebp, esp

; 73   :     {

  00003	56		 push	 esi
  00004	8b f1		 mov	 esi, ecx
  00006	0f 57 c0	 xorps	 xmm0, xmm0

; 72   :         : _Data()

  00009	8d 46 04	 lea	 eax, DWORD PTR [esi+4]

; 74   :         __std_exception_copy(&_Other._Data, &_Data);

  0000c	50		 push	 eax
  0000d	c7 06 00 00 00
	00		 mov	 DWORD PTR [esi], OFFSET ??_7exception@std@@6B@
  00013	66 0f d6 00	 movq	 QWORD PTR [eax], xmm0
  00017	8b 45 08	 mov	 eax, DWORD PTR ___that$[ebp]
  0001a	83 c0 04	 add	 eax, 4
  0001d	50		 push	 eax
  0001e	e8 00 00 00 00	 call	 ___std_exception_copy
  00023	83 c4 08	 add	 esp, 8
  00026	c7 06 00 00 00
	00		 mov	 DWORD PTR [esi], OFFSET ??_7bad_array_new_length@std@@6B@
  0002c	8b c6		 mov	 eax, esi
  0002e	5e		 pop	 esi
  0002f	5d		 pop	 ebp
  00030	c2 04 00	 ret	 4
??0bad_array_new_length@std@@QAE@ABV01@@Z ENDP		; std::bad_array_new_length::bad_array_new_length
_TEXT	ENDS
; Function compile flags: /Ogtp
; File C:\Program Files\Microsoft Visual Studio\2022\Professional\VC\Tools\MSVC\14.44.35207\include\vcruntime_exception.h
;	COMDAT ??1bad_array_new_length@std@@UAE@XZ
_TEXT	SEGMENT
??1bad_array_new_length@std@@UAE@XZ PROC		; std::bad_array_new_length::~bad_array_new_length, COMDAT
; _this$ = ecx

; 91   :         __std_exception_destroy(&_Data);

  00000	8d 41 04	 lea	 eax, DWORD PTR [ecx+4]
  00003	c7 01 00 00 00
	00		 mov	 DWORD PTR [ecx], OFFSET ??_7exception@std@@6B@
  00009	50		 push	 eax
  0000a	e8 00 00 00 00	 call	 ___std_exception_destroy
  0000f	59		 pop	 ecx
  00010	c3		 ret	 0
??1bad_array_new_length@std@@UAE@XZ ENDP		; std::bad_array_new_length::~bad_array_new_length
_TEXT	ENDS
; Function compile flags: /Ogtp
; File C:\Program Files\Microsoft Visual Studio\2022\Professional\VC\Tools\MSVC\14.44.35207\include\vcruntime_exception.h
;	COMDAT ??0bad_array_new_length@std@@QAE@XZ
_TEXT	SEGMENT
??0bad_array_new_length@std@@QAE@XZ PROC		; std::bad_array_new_length::bad_array_new_length, COMDAT
; _this$ = ecx

; 144  :     {

  00000	0f 57 c0	 xorps	 xmm0, xmm0

; 145  :     }

  00003	8b c1		 mov	 eax, ecx

; 66   :         : _Data()

  00005	66 0f d6 41 04	 movq	 QWORD PTR [ecx+4], xmm0

; 67   :     {
; 68   :         _Data._What = _Message;

  0000a	c7 41 04 00 00
	00 00		 mov	 DWORD PTR [ecx+4], OFFSET ??_C@_0BF@KINCDENJ@bad?5array?5new?5length@

; 144  :     {

  00011	c7 01 00 00 00
	00		 mov	 DWORD PTR [ecx], OFFSET ??_7bad_array_new_length@std@@6B@

; 145  :     }

  00017	c3		 ret	 0
??0bad_array_new_length@std@@QAE@XZ ENDP		; std::bad_array_new_length::bad_array_new_length
_TEXT	ENDS
; Function compile flags: /Ogtp
; File C:\Program Files\Microsoft Visual Studio\2022\Professional\VC\Tools\MSVC\14.44.35207\include\vcruntime_exception.h
;	COMDAT ??_Gbad_alloc@std@@UAEPAXI@Z
_TEXT	SEGMENT
___flags$ = 8						; size = 4
??_Gbad_alloc@std@@UAEPAXI@Z PROC			; std::bad_alloc::`scalar deleting destructor', COMDAT
; _this$ = ecx
  00000	55		 push	 ebp
  00001	8b ec		 mov	 ebp, esp

; 90   :     {

  00003	56		 push	 esi
  00004	8b f1		 mov	 esi, ecx

; 91   :         __std_exception_destroy(&_Data);

  00006	8d 46 04	 lea	 eax, DWORD PTR [esi+4]
  00009	c7 06 00 00 00
	00		 mov	 DWORD PTR [esi], OFFSET ??_7exception@std@@6B@
  0000f	50		 push	 eax
  00010	e8 00 00 00 00	 call	 ___std_exception_destroy
  00015	83 c4 04	 add	 esp, 4
  00018	f6 45 08 01	 test	 BYTE PTR ___flags$[ebp], 1
  0001c	74 0b		 je	 SHORT $LN13@scalar
  0001e	6a 0c		 push	 12			; 0000000cH
  00020	56		 push	 esi
  00021	e8 00 00 00 00	 call	 ??3@YAXPAXI@Z		; operator delete
  00026	83 c4 08	 add	 esp, 8
$LN13@scalar:
  00029	8b c6		 mov	 eax, esi
  0002b	5e		 pop	 esi
  0002c	5d		 pop	 ebp
  0002d	c2 04 00	 ret	 4
??_Gbad_alloc@std@@UAEPAXI@Z ENDP			; std::bad_alloc::`scalar deleting destructor'
_TEXT	ENDS
; Function compile flags: /Ogtp
; File C:\Program Files\Microsoft Visual Studio\2022\Professional\VC\Tools\MSVC\14.44.35207\include\vcruntime_exception.h
;	COMDAT ??0bad_alloc@std@@QAE@ABV01@@Z
_TEXT	SEGMENT
___that$ = 8						; size = 4
??0bad_alloc@std@@QAE@ABV01@@Z PROC			; std::bad_alloc::bad_alloc, COMDAT
; _this$ = ecx
  00000	55		 push	 ebp
  00001	8b ec		 mov	 ebp, esp

; 73   :     {

  00003	56		 push	 esi
  00004	8b f1		 mov	 esi, ecx
  00006	0f 57 c0	 xorps	 xmm0, xmm0

; 72   :         : _Data()

  00009	8d 46 04	 lea	 eax, DWORD PTR [esi+4]

; 74   :         __std_exception_copy(&_Other._Data, &_Data);

  0000c	50		 push	 eax
  0000d	c7 06 00 00 00
	00		 mov	 DWORD PTR [esi], OFFSET ??_7exception@std@@6B@
  00013	66 0f d6 00	 movq	 QWORD PTR [eax], xmm0
  00017	8b 45 08	 mov	 eax, DWORD PTR ___that$[ebp]
  0001a	83 c0 04	 add	 eax, 4
  0001d	50		 push	 eax
  0001e	e8 00 00 00 00	 call	 ___std_exception_copy
  00023	83 c4 08	 add	 esp, 8
  00026	c7 06 00 00 00
	00		 mov	 DWORD PTR [esi], OFFSET ??_7bad_alloc@std@@6B@
  0002c	8b c6		 mov	 eax, esi
  0002e	5e		 pop	 esi
  0002f	5d		 pop	 ebp
  00030	c2 04 00	 ret	 4
??0bad_alloc@std@@QAE@ABV01@@Z ENDP			; std::bad_alloc::bad_alloc
_TEXT	ENDS
; Function compile flags: /Ogtp
; File C:\Program Files\Microsoft Visual Studio\2022\Professional\VC\Tools\MSVC\14.44.35207\include\vcruntime_exception.h
;	COMDAT ??_Gexception@std@@UAEPAXI@Z
_TEXT	SEGMENT
___flags$ = 8						; size = 4
??_Gexception@std@@UAEPAXI@Z PROC			; std::exception::`scalar deleting destructor', COMDAT
; _this$ = ecx
  00000	55		 push	 ebp
  00001	8b ec		 mov	 ebp, esp

; 90   :     {

  00003	56		 push	 esi
  00004	8b f1		 mov	 esi, ecx

; 91   :         __std_exception_destroy(&_Data);

  00006	8d 46 04	 lea	 eax, DWORD PTR [esi+4]
  00009	c7 06 00 00 00
	00		 mov	 DWORD PTR [esi], OFFSET ??_7exception@std@@6B@
  0000f	50		 push	 eax
  00010	e8 00 00 00 00	 call	 ___std_exception_destroy
  00015	83 c4 04	 add	 esp, 4
  00018	f6 45 08 01	 test	 BYTE PTR ___flags$[ebp], 1
  0001c	74 0b		 je	 SHORT $LN8@scalar
  0001e	6a 0c		 push	 12			; 0000000cH
  00020	56		 push	 esi
  00021	e8 00 00 00 00	 call	 ??3@YAXPAXI@Z		; operator delete
  00026	83 c4 08	 add	 esp, 8
$LN8@scalar:
  00029	8b c6		 mov	 eax, esi
  0002b	5e		 pop	 esi
  0002c	5d		 pop	 ebp
  0002d	c2 04 00	 ret	 4
??_Gexception@std@@UAEPAXI@Z ENDP			; std::exception::`scalar deleting destructor'
_TEXT	ENDS
; Function compile flags: /Ogtp
; File C:\Program Files\Microsoft Visual Studio\2022\Professional\VC\Tools\MSVC\14.44.35207\include\vcruntime_exception.h
;	COMDAT ?what@exception@std@@UBEPBDXZ
_TEXT	SEGMENT
?what@exception@std@@UBEPBDXZ PROC			; std::exception::what, COMDAT
; _this$ = ecx

; 96   :         return _Data._What ? _Data._What : "Unknown exception";

  00000	8b 49 04	 mov	 ecx, DWORD PTR [ecx+4]
  00003	b8 00 00 00 00	 mov	 eax, OFFSET ??_C@_0BC@EOODALEL@Unknown?5exception@
  00008	85 c9		 test	 ecx, ecx
  0000a	0f 45 c1	 cmovne	 eax, ecx

; 97   :     }

  0000d	c3		 ret	 0
?what@exception@std@@UBEPBDXZ ENDP			; std::exception::what
_TEXT	ENDS
; Function compile flags: /Ogtp
; File C:\Program Files\Microsoft Visual Studio\2022\Professional\VC\Tools\MSVC\14.44.35207\include\vcruntime_exception.h
;	COMDAT ??1exception@std@@UAE@XZ
_TEXT	SEGMENT
??1exception@std@@UAE@XZ PROC				; std::exception::~exception, COMDAT
; _this$ = ecx

; 91   :         __std_exception_destroy(&_Data);

  00000	8d 41 04	 lea	 eax, DWORD PTR [ecx+4]
  00003	c7 01 00 00 00
	00		 mov	 DWORD PTR [ecx], OFFSET ??_7exception@std@@6B@
  00009	50		 push	 eax
  0000a	e8 00 00 00 00	 call	 ___std_exception_destroy
  0000f	59		 pop	 ecx

; 92   :     }

  00010	c3		 ret	 0
??1exception@std@@UAE@XZ ENDP				; std::exception::~exception
_TEXT	ENDS
; Function compile flags: /Ogtp
; File C:\Program Files\Microsoft Visual Studio\2022\Professional\VC\Tools\MSVC\14.44.35207\include\vcruntime_exception.h
;	COMDAT ??0exception@std@@QAE@ABV01@@Z
_TEXT	SEGMENT
__Other$ = 8						; size = 4
??0exception@std@@QAE@ABV01@@Z PROC			; std::exception::exception, COMDAT
; _this$ = ecx

; 73   :     {

  00000	55		 push	 ebp
  00001	8b ec		 mov	 ebp, esp
  00003	56		 push	 esi
  00004	8b f1		 mov	 esi, ecx
  00006	0f 57 c0	 xorps	 xmm0, xmm0
  00009	8d 46 04	 lea	 eax, DWORD PTR [esi+4]

; 74   :         __std_exception_copy(&_Other._Data, &_Data);

  0000c	50		 push	 eax
  0000d	c7 06 00 00 00
	00		 mov	 DWORD PTR [esi], OFFSET ??_7exception@std@@6B@
  00013	66 0f d6 00	 movq	 QWORD PTR [eax], xmm0
  00017	8b 45 08	 mov	 eax, DWORD PTR __Other$[ebp]
  0001a	83 c0 04	 add	 eax, 4
  0001d	50		 push	 eax
  0001e	e8 00 00 00 00	 call	 ___std_exception_copy
  00023	83 c4 08	 add	 esp, 8

; 75   :     }

  00026	8b c6		 mov	 eax, esi
  00028	5e		 pop	 esi
  00029	5d		 pop	 ebp
  0002a	c2 04 00	 ret	 4
??0exception@std@@QAE@ABV01@@Z ENDP			; std::exception::exception
_TEXT	ENDS
; Function compile flags: /Ogtp
; File C:\Program Files (x86)\Windows Kits\10\Include\10.0.26100.0\ucrt\stdio.h
;	COMDAT _sprintf
_TEXT	SEGMENT
__Buffer$ = 8						; size = 4
__Format$ = 12						; size = 4
_sprintf PROC						; COMDAT

; 1771 :     {

  00000	55		 push	 ebp
  00001	8b ec		 mov	 ebp, esp

; 1392 :         int const _Result = __stdio_common_vsprintf(

  00003	8d 45 10	 lea	 eax, DWORD PTR __Format$[ebp+4]
  00006	50		 push	 eax
  00007	6a 00		 push	 0
  00009	ff 75 0c	 push	 DWORD PTR __Format$[ebp]
  0000c	6a ff		 push	 -1
  0000e	ff 75 08	 push	 DWORD PTR __Buffer$[ebp]
  00011	e8 00 00 00 00	 call	 ___local_stdio_printf_options
  00016	8b 08		 mov	 ecx, DWORD PTR [eax]
  00018	ff 70 04	 push	 DWORD PTR [eax+4]
  0001b	83 c9 01	 or	 ecx, 1
  0001e	51		 push	 ecx
  0001f	e8 00 00 00 00	 call	 ___stdio_common_vsprintf

; 1393 :             _CRT_INTERNAL_LOCAL_PRINTF_OPTIONS | _CRT_INTERNAL_PRINTF_LEGACY_VSPRINTF_NULL_TERMINATION,
; 1394 :             _Buffer, _BufferCount, _Format, _Locale, _ArgList);
; 1395 : 
; 1396 :         return _Result < 0 ? -1 : _Result;

  00024	83 c9 ff	 or	 ecx, -1
  00027	83 c4 1c	 add	 esp, 28			; 0000001cH
  0002a	85 c0		 test	 eax, eax
  0002c	0f 48 c1	 cmovs	 eax, ecx

; 1772 :         int _Result;
; 1773 :         va_list _ArgList;
; 1774 :         __crt_va_start(_ArgList, _Format);
; 1775 : 
; 1776 :         _Result = _vsprintf_l(_Buffer, _Format, NULL, _ArgList);
; 1777 : 
; 1778 :         __crt_va_end(_ArgList);
; 1779 :         return _Result;
; 1780 :     }

  0002f	5d		 pop	 ebp
  00030	c3		 ret	 0
_sprintf ENDP
_TEXT	ENDS
; Function compile flags: /Ogtp
; File C:\Program Files (x86)\Windows Kits\10\Include\10.0.26100.0\ucrt\corecrt_stdio_config.h
;	COMDAT ___local_stdio_printf_options
_TEXT	SEGMENT
___local_stdio_printf_options PROC			; COMDAT

; 91   :         static unsigned __int64 _OptionsStorage;
; 92   :         return &_OptionsStorage;

  00000	b8 00 00 00 00	 mov	 eax, OFFSET ?_OptionsStorage@?1??__local_stdio_printf_options@@9@4_KA ; `__local_stdio_printf_options'::`2'::_OptionsStorage

; 93   :     }

  00005	c3		 ret	 0
___local_stdio_printf_options ENDP
_TEXT	ENDS
; Function compile flags: /Ogtp
; File C:\IAGOS\server\v18\Source\Source\_network\net\src\clientsock.cpp
;	COMDAT ?__empty_global_delete@@YAXPAXI@Z
_TEXT	SEGMENT
___formal$ = 8						; size = 4
___formal$ = 12						; size = 4
?__empty_global_delete@@YAXPAXI@Z PROC			; __empty_global_delete, COMDAT

  00000	c2 00 00	 ret	 0
?__empty_global_delete@@YAXPAXI@Z ENDP			; __empty_global_delete
_TEXT	ENDS
; Function compile flags: /Ogtp
; File C:\IAGOS\server\v18\Source\Source\_network\net\src\clientsock.cpp
;	COMDAT ?__empty_global_delete@@YAXPAX@Z
_TEXT	SEGMENT
___formal$ = 8						; size = 4
?__empty_global_delete@@YAXPAX@Z PROC			; __empty_global_delete, COMDAT

  00000	c2 00 00	 ret	 0
?__empty_global_delete@@YAXPAX@Z ENDP			; __empty_global_delete
_TEXT	ENDS
END
