; Listing generated by Microsoft (R) Optimizing Compiler Version 19.44.35225.0 

	TITLE	C:\IAGOS\server\v18\Source\Output\DatabaseServer\Release\clientsocke.obj
	.686P
	.XMM
	include listing.inc
	.model	flat

INCLUDELIB LIBCMT
INCLUDELIB OLDNAMES

PUBLIC	??_C@_0O@NKNMEGII@list?5too?5long@		; `string'
PUBLIC	??_R4exception@std@@6B@				; std::exception::`RTTI Complete Object Locator'
PUBLIC	??_R3exception@std@@8				; std::exception::`RTTI Class Hierarchy Descriptor'
PUBLIC	??_R2exception@std@@8				; std::exception::`RTTI Base Class Array'
PUBLIC	??_R1A@?0A@EA@exception@std@@8			; std::exception::`RTTI Base Class Descriptor at (0,-1,0,64)'
PUBLIC	??_R4bad_array_new_length@std@@6B@		; std::bad_array_new_length::`RTTI Complete Object Locator'
PUBLIC	??_R3bad_array_new_length@std@@8		; std::bad_array_new_length::`RTTI Class Hierarchy Descriptor'
PUBLIC	??_R2bad_array_new_length@std@@8		; std::bad_array_new_length::`RTTI Base Class Array'
PUBLIC	??_R1A@?0A@EA@bad_array_new_length@std@@8	; std::bad_array_new_length::`RTTI Base Class Descriptor at (0,-1,0,64)'
PUBLIC	??_R1A@?0A@EA@bad_alloc@std@@8			; std::bad_alloc::`RTTI Base Class Descriptor at (0,-1,0,64)'
PUBLIC	??_R3bad_alloc@std@@8				; std::bad_alloc::`RTTI Class Hierarchy Descriptor'
PUBLIC	??_R2bad_alloc@std@@8				; std::bad_alloc::`RTTI Base Class Array'
PUBLIC	??_R4bad_alloc@std@@6B@				; std::bad_alloc::`RTTI Complete Object Locator'
PUBLIC	??0exception@std@@QAE@ABV01@@Z			; std::exception::exception
PUBLIC	?what@exception@std@@UBEPBDXZ			; std::exception::what
PUBLIC	??_7exception@std@@6B@				; std::exception::`vftable'
PUBLIC	??_Gexception@std@@UAEPAXI@Z			; std::exception::`scalar deleting destructor'
PUBLIC	??_C@_0BC@EOODALEL@Unknown?5exception@		; `string'
PUBLIC	??0bad_alloc@std@@QAE@ABV01@@Z			; std::bad_alloc::bad_alloc
PUBLIC	??_7bad_alloc@std@@6B@				; std::bad_alloc::`vftable'
PUBLIC	??_Gbad_alloc@std@@UAEPAXI@Z			; std::bad_alloc::`scalar deleting destructor'
PUBLIC	??1bad_array_new_length@std@@UAE@XZ		; std::bad_array_new_length::~bad_array_new_length
PUBLIC	??0bad_array_new_length@std@@QAE@ABV01@@Z	; std::bad_array_new_length::bad_array_new_length
PUBLIC	??_7bad_array_new_length@std@@6B@		; std::bad_array_new_length::`vftable'
PUBLIC	??_Gbad_array_new_length@std@@UAEPAXI@Z		; std::bad_array_new_length::`scalar deleting destructor'
PUBLIC	??_C@_0BF@KINCDENJ@bad?5array?5new?5length@	; `string'
PUBLIC	??_R0?AVexception@std@@@8			; std::exception `RTTI Type Descriptor'
PUBLIC	__CT??_R0?AVexception@std@@@8??0exception@std@@QAE@ABV01@@Z12
PUBLIC	__TI3?AVbad_array_new_length@std@@
PUBLIC	__CTA3?AVbad_array_new_length@std@@
PUBLIC	??_R0?AVbad_array_new_length@std@@@8		; std::bad_array_new_length `RTTI Type Descriptor'
PUBLIC	__CT??_R0?AVbad_array_new_length@std@@@8??0bad_array_new_length@std@@QAE@ABV01@@Z12
PUBLIC	??_R0?AVbad_alloc@std@@@8			; std::bad_alloc `RTTI Type Descriptor'
PUBLIC	__CT??_R0?AVbad_alloc@std@@@8??0bad_alloc@std@@QAE@ABV01@@Z12
PUBLIC	??_C@_09PKKCPLIP@bad?5alloc@			; `string'
EXTRN	??_Eexception@std@@UAEPAXI@Z:PROC		; std::exception::`vector deleting destructor'
EXTRN	??_Ebad_alloc@std@@UAEPAXI@Z:PROC		; std::bad_alloc::`vector deleting destructor'
EXTRN	??_Ebad_array_new_length@std@@UAEPAXI@Z:PROC	; std::bad_array_new_length::`vector deleting destructor'
EXTRN	??_7type_info@@6B@:QWORD			; type_info::`vftable'
;	COMDAT ??_C@_09PKKCPLIP@bad?5alloc@
CONST	SEGMENT
??_C@_09PKKCPLIP@bad?5alloc@ DB 'bad alloc', 00H	; `string'
CONST	ENDS
;	COMDAT __CT??_R0?AVbad_alloc@std@@@8??0bad_alloc@std@@QAE@ABV01@@Z12
xdata$x	SEGMENT
__CT??_R0?AVbad_alloc@std@@@8??0bad_alloc@std@@QAE@ABV01@@Z12 DD 010H
	DD	FLAT:??_R0?AVbad_alloc@std@@@8
	DD	00H
	DD	0ffffffffH
	ORG $+4
	DD	0cH
	DD	FLAT:??0bad_alloc@std@@QAE@ABV01@@Z
xdata$x	ENDS
;	COMDAT ??_R0?AVbad_alloc@std@@@8
data$r	SEGMENT
??_R0?AVbad_alloc@std@@@8 DD FLAT:??_7type_info@@6B@	; std::bad_alloc `RTTI Type Descriptor'
	DD	00H
	DB	'.?AVbad_alloc@std@@', 00H
data$r	ENDS
;	COMDAT __CT??_R0?AVbad_array_new_length@std@@@8??0bad_array_new_length@std@@QAE@ABV01@@Z12
xdata$x	SEGMENT
__CT??_R0?AVbad_array_new_length@std@@@8??0bad_array_new_length@std@@QAE@ABV01@@Z12 DD 00H
	DD	FLAT:??_R0?AVbad_array_new_length@std@@@8
	DD	00H
	DD	0ffffffffH
	ORG $+4
	DD	0cH
	DD	FLAT:??0bad_array_new_length@std@@QAE@ABV01@@Z
xdata$x	ENDS
;	COMDAT ??_R0?AVbad_array_new_length@std@@@8
data$r	SEGMENT
??_R0?AVbad_array_new_length@std@@@8 DD FLAT:??_7type_info@@6B@ ; std::bad_array_new_length `RTTI Type Descriptor'
	DD	00H
	DB	'.?AVbad_array_new_length@std@@', 00H
data$r	ENDS
;	COMDAT __CTA3?AVbad_array_new_length@std@@
xdata$x	SEGMENT
__CTA3?AVbad_array_new_length@std@@ DD 03H
	DD	FLAT:__CT??_R0?AVbad_array_new_length@std@@@8??0bad_array_new_length@std@@QAE@ABV01@@Z12
	DD	FLAT:__CT??_R0?AVbad_alloc@std@@@8??0bad_alloc@std@@QAE@ABV01@@Z12
	DD	FLAT:__CT??_R0?AVexception@std@@@8??0exception@std@@QAE@ABV01@@Z12
xdata$x	ENDS
;	COMDAT __TI3?AVbad_array_new_length@std@@
xdata$x	SEGMENT
__TI3?AVbad_array_new_length@std@@ DD 00H
	DD	FLAT:??1bad_array_new_length@std@@UAE@XZ
	DD	00H
	DD	FLAT:__CTA3?AVbad_array_new_length@std@@
xdata$x	ENDS
;	COMDAT __CT??_R0?AVexception@std@@@8??0exception@std@@QAE@ABV01@@Z12
xdata$x	SEGMENT
__CT??_R0?AVexception@std@@@8??0exception@std@@QAE@ABV01@@Z12 DD 00H
	DD	FLAT:??_R0?AVexception@std@@@8
	DD	00H
	DD	0ffffffffH
	ORG $+4
	DD	0cH
	DD	FLAT:??0exception@std@@QAE@ABV01@@Z
xdata$x	ENDS
;	COMDAT ??_R0?AVexception@std@@@8
data$r	SEGMENT
??_R0?AVexception@std@@@8 DD FLAT:??_7type_info@@6B@	; std::exception `RTTI Type Descriptor'
	DD	00H
	DB	'.?AVexception@std@@', 00H
data$r	ENDS
;	COMDAT ??_C@_0BF@KINCDENJ@bad?5array?5new?5length@
CONST	SEGMENT
??_C@_0BF@KINCDENJ@bad?5array?5new?5length@ DB 'bad array new length', 00H ; `string'
CONST	ENDS
;	COMDAT ??_7bad_array_new_length@std@@6B@
CONST	SEGMENT
??_7bad_array_new_length@std@@6B@ DD FLAT:??_R4bad_array_new_length@std@@6B@ ; std::bad_array_new_length::`vftable'
	DD	FLAT:??_Ebad_array_new_length@std@@UAEPAXI@Z
	DD	FLAT:?what@exception@std@@UBEPBDXZ
CONST	ENDS
;	COMDAT ??_7bad_alloc@std@@6B@
CONST	SEGMENT
??_7bad_alloc@std@@6B@ DD FLAT:??_R4bad_alloc@std@@6B@	; std::bad_alloc::`vftable'
	DD	FLAT:??_Ebad_alloc@std@@UAEPAXI@Z
	DD	FLAT:?what@exception@std@@UBEPBDXZ
CONST	ENDS
;	COMDAT ??_C@_0BC@EOODALEL@Unknown?5exception@
CONST	SEGMENT
??_C@_0BC@EOODALEL@Unknown?5exception@ DB 'Unknown exception', 00H ; `string'
CONST	ENDS
;	COMDAT ??_7exception@std@@6B@
CONST	SEGMENT
??_7exception@std@@6B@ DD FLAT:??_R4exception@std@@6B@	; std::exception::`vftable'
	DD	FLAT:??_Eexception@std@@UAEPAXI@Z
	DD	FLAT:?what@exception@std@@UBEPBDXZ
CONST	ENDS
;	COMDAT ??_R4bad_alloc@std@@6B@
rdata$r	SEGMENT
??_R4bad_alloc@std@@6B@ DD 00H				; std::bad_alloc::`RTTI Complete Object Locator'
	DD	00H
	DD	00H
	DD	FLAT:??_R0?AVbad_alloc@std@@@8
	DD	FLAT:??_R3bad_alloc@std@@8
rdata$r	ENDS
;	COMDAT ??_R2bad_alloc@std@@8
rdata$r	SEGMENT
??_R2bad_alloc@std@@8 DD FLAT:??_R1A@?0A@EA@bad_alloc@std@@8 ; std::bad_alloc::`RTTI Base Class Array'
	DD	FLAT:??_R1A@?0A@EA@exception@std@@8
rdata$r	ENDS
;	COMDAT ??_R3bad_alloc@std@@8
rdata$r	SEGMENT
??_R3bad_alloc@std@@8 DD 00H				; std::bad_alloc::`RTTI Class Hierarchy Descriptor'
	DD	00H
	DD	02H
	DD	FLAT:??_R2bad_alloc@std@@8
rdata$r	ENDS
;	COMDAT ??_R1A@?0A@EA@bad_alloc@std@@8
rdata$r	SEGMENT
??_R1A@?0A@EA@bad_alloc@std@@8 DD FLAT:??_R0?AVbad_alloc@std@@@8 ; std::bad_alloc::`RTTI Base Class Descriptor at (0,-1,0,64)'
	DD	01H
	DD	00H
	DD	0ffffffffH
	DD	00H
	DD	040H
	DD	FLAT:??_R3bad_alloc@std@@8
rdata$r	ENDS
;	COMDAT ??_R1A@?0A@EA@bad_array_new_length@std@@8
rdata$r	SEGMENT
??_R1A@?0A@EA@bad_array_new_length@std@@8 DD FLAT:??_R0?AVbad_array_new_length@std@@@8 ; std::bad_array_new_length::`RTTI Base Class Descriptor at (0,-1,0,64)'
	DD	02H
	DD	00H
	DD	0ffffffffH
	DD	00H
	DD	040H
	DD	FLAT:??_R3bad_array_new_length@std@@8
rdata$r	ENDS
;	COMDAT ??_R2bad_array_new_length@std@@8
rdata$r	SEGMENT
??_R2bad_array_new_length@std@@8 DD FLAT:??_R1A@?0A@EA@bad_array_new_length@std@@8 ; std::bad_array_new_length::`RTTI Base Class Array'
	DD	FLAT:??_R1A@?0A@EA@bad_alloc@std@@8
	DD	FLAT:??_R1A@?0A@EA@exception@std@@8
rdata$r	ENDS
;	COMDAT ??_R3bad_array_new_length@std@@8
rdata$r	SEGMENT
??_R3bad_array_new_length@std@@8 DD 00H			; std::bad_array_new_length::`RTTI Class Hierarchy Descriptor'
	DD	00H
	DD	03H
	DD	FLAT:??_R2bad_array_new_length@std@@8
rdata$r	ENDS
;	COMDAT ??_R4bad_array_new_length@std@@6B@
rdata$r	SEGMENT
??_R4bad_array_new_length@std@@6B@ DD 00H		; std::bad_array_new_length::`RTTI Complete Object Locator'
	DD	00H
	DD	00H
	DD	FLAT:??_R0?AVbad_array_new_length@std@@@8
	DD	FLAT:??_R3bad_array_new_length@std@@8
rdata$r	ENDS
;	COMDAT ??_R1A@?0A@EA@exception@std@@8
rdata$r	SEGMENT
??_R1A@?0A@EA@exception@std@@8 DD FLAT:??_R0?AVexception@std@@@8 ; std::exception::`RTTI Base Class Descriptor at (0,-1,0,64)'
	DD	00H
	DD	00H
	DD	0ffffffffH
	DD	00H
	DD	040H
	DD	FLAT:??_R3exception@std@@8
rdata$r	ENDS
;	COMDAT ??_R2exception@std@@8
rdata$r	SEGMENT
??_R2exception@std@@8 DD FLAT:??_R1A@?0A@EA@exception@std@@8 ; std::exception::`RTTI Base Class Array'
rdata$r	ENDS
;	COMDAT ??_R3exception@std@@8
rdata$r	SEGMENT
??_R3exception@std@@8 DD 00H				; std::exception::`RTTI Class Hierarchy Descriptor'
	DD	00H
	DD	01H
	DD	FLAT:??_R2exception@std@@8
rdata$r	ENDS
;	COMDAT ??_R4exception@std@@6B@
rdata$r	SEGMENT
??_R4exception@std@@6B@ DD 00H				; std::exception::`RTTI Complete Object Locator'
	DD	00H
	DD	00H
	DD	FLAT:??_R0?AVexception@std@@@8
	DD	FLAT:??_R3exception@std@@8
rdata$r	ENDS
;	COMDAT ??_C@_0O@NKNMEGII@list?5too?5long@
CONST	SEGMENT
??_C@_0O@NKNMEGII@list?5too?5long@ DB 'list too long', 00H ; `string'
CONST	ENDS
PUBLIC	?__empty_global_delete@@YAXPAX@Z		; __empty_global_delete
PUBLIC	?__empty_global_delete@@YAXPAXI@Z		; __empty_global_delete
PUBLIC	___local_stdio_printf_options
PUBLIC	_sprintf
PUBLIC	??1exception@std@@UAE@XZ			; std::exception::~exception
PUBLIC	??0bad_array_new_length@std@@QAE@XZ		; std::bad_array_new_length::bad_array_new_length
PUBLIC	?_Throw_bad_array_new_length@std@@YAXXZ		; std::_Throw_bad_array_new_length
PUBLIC	??1CMclAutoLock@@QAE@XZ				; CMclAutoLock::~CMclAutoLock
PUBLIC	?GetPeerAddr@CSock@@UAEKK@Z			; CSock::GetPeerAddr
PUBLIC	?Get@CSock@@UAEPAV1@I@Z				; CSock::Get
PUBLIC	??1?$list@PAXV?$allocator@PAX@std@@@std@@QAE@XZ	; std::list<void *,std::allocator<void *> >::~list<void *,std::allocator<void *> >
PUBLIC	??0CClientSockE@@QAE@W4BUFFER_TYPE@@@Z		; CClientSockE::CClientSockE
PUBLIC	??1CClientSockE@@UAE@XZ				; CClientSockE::~CClientSockE
PUBLIC	?CreateBuffer@CClientSockE@@QAEPAVCBuffer@@XZ	; CClientSockE::CreateBuffer
PUBLIC	?Connect@CClientSockE@@QAEHPADG@Z		; CClientSockE::Connect
PUBLIC	?Recv@CClientSockE@@QAEHXZ			; CClientSockE::Recv
PUBLIC	?SendRemnant@CClientSockE@@QAEHK@Z		; CClientSockE::SendRemnant
PUBLIC	?Fetch@CClientSockE@@QAEPAVCBuffer@@K@Z		; CClientSockE::Fetch
PUBLIC	?Create@CClientSockE@@UAEHGH@Z			; CClientSockE::Create
PUBLIC	?Attach@CClientSockE@@UAEXI@Z			; CClientSockE::Attach
PUBLIC	?Close@CClientSockE@@UAEXXZ			; CClientSockE::Close
PUBLIC	?CloseConnection@CClientSockE@@UAEHI@Z		; CClientSockE::CloseConnection
PUBLIC	?Shutdown@CClientSockE@@UAEHI@Z			; CClientSockE::Shutdown
PUBLIC	?Send@CClientSockE@@UAEXPADKK@Z			; CClientSockE::Send
PUBLIC	?GetPeerAddr@CClientSockE@@UAEJKPAXPAK@Z	; CClientSockE::GetPeerAddr
PUBLIC	??_GCClientSockE@@UAEPAXI@Z			; CClientSockE::`scalar deleting destructor'
PUBLIC	??1?$_Alloc_construct_ptr@V?$allocator@U?$_List_node@PAXPAX@std@@@std@@@std@@QAE@XZ ; std::_Alloc_construct_ptr<std::allocator<std::_List_node<void *,void *> > >::~_Alloc_construct_ptr<std::allocator<std::_List_node<void *,void *> > >
PUBLIC	??$_Allocate_manually_vector_aligned@U_Default_allocate_traits@std@@@std@@YAPAXI@Z ; std::_Allocate_manually_vector_aligned<std::_Default_allocate_traits>
PUBLIC	?_OptionsStorage@?1??__local_stdio_printf_options@@9@4_KA ; `__local_stdio_printf_options'::`2'::_OptionsStorage
PUBLIC	?m_pPool@CClientSockE@@2PAV?$MemPooler@VCClientSockE@@@@A ; CClientSockE::m_pPool
PUBLIC	??_7CClientSockE@@6B@				; CClientSockE::`vftable'
PUBLIC	??_C@_0M@PCENNPGA@?$CFd?4?$CFd?4?$CFd?4?$CFd@	; `string'
PUBLIC	??_R4CClientSockE@@6B@				; CClientSockE::`RTTI Complete Object Locator'
PUBLIC	??_R0?AVCClientSockE@@@8			; CClientSockE `RTTI Type Descriptor'
PUBLIC	??_R3CClientSockE@@8				; CClientSockE::`RTTI Class Hierarchy Descriptor'
PUBLIC	??_R2CClientSockE@@8				; CClientSockE::`RTTI Base Class Array'
PUBLIC	??_R1A@?0A@EA@CClientSockE@@8			; CClientSockE::`RTTI Base Class Descriptor at (0,-1,0,64)'
PUBLIC	??_R1A@?0A@EA@CSock@@8				; CSock::`RTTI Base Class Descriptor at (0,-1,0,64)'
PUBLIC	??_R0?AVCSock@@@8				; CSock `RTTI Type Descriptor'
PUBLIC	??_R3CSock@@8					; CSock::`RTTI Class Hierarchy Descriptor'
PUBLIC	??_R2CSock@@8					; CSock::`RTTI Base Class Array'
EXTRN	??2@YAPAXI@Z:PROC				; operator new
EXTRN	??3@YAXPAXI@Z:PROC				; operator delete
EXTRN	?__global_delete@@YAXPAXI@Z:PROC		; __global_delete
EXTRN	__invoke_watson:PROC
EXTRN	__imp__EnterCriticalSection@4:PROC
EXTRN	__imp__LeaveCriticalSection@4:PROC
EXTRN	__imp__InitializeCriticalSectionAndSpinCount@8:PROC
EXTRN	__imp__VirtualAlloc@16:PROC
EXTRN	___stdio_common_vsprintf:PROC
EXTRN	__imp__closesocket@4:PROC
EXTRN	__imp__connect@12:PROC
EXTRN	__imp__getpeername@12:PROC
EXTRN	__imp__htons@4:PROC
EXTRN	__imp__inet_addr@4:PROC
EXTRN	__imp__shutdown@8:PROC
EXTRN	__imp__gethostbyname@4:PROC
EXTRN	__imp__WSASetLastError@4:PROC
EXTRN	__imp__WSAGetLastError@0:PROC
EXTRN	__imp__WSACloseEvent@4:PROC
EXTRN	__imp__WSACreateEvent@0:PROC
EXTRN	__imp__WSARecv@28:PROC
EXTRN	__imp__WSASend@28:PROC
EXTRN	?_Xlength_error@std@@YAXPBD@Z:PROC		; std::_Xlength_error
EXTRN	___std_exception_copy:PROC
EXTRN	___std_exception_destroy:PROC
EXTRN	?Error@@YAPBDPBDZZ:PROC				; Error
EXTRN	??0CSock@@QAE@XZ:PROC				; CSock::CSock
EXTRN	??1CSock@@UAE@XZ:PROC				; CSock::~CSock
EXTRN	?Clear@CSock@@QAEXXZ:PROC			; CSock::Clear
EXTRN	?Create@CSock@@UAEHGH@Z:PROC			; CSock::Create
EXTRN	?Attach@CSock@@UAEXI@Z:PROC			; CSock::Attach
EXTRN	?Detach@CSock@@UAEXXZ:PROC			; CSock::Detach
EXTRN	?GetHostAddr@CSock@@UAEJPAXPAK@Z:PROC		; CSock::GetHostAddr
EXTRN	??0CBufferQueue@@QAE@XZ:PROC			; CBufferQueue::CBufferQueue
EXTRN	??1CBufferQueue@@UAE@XZ:PROC			; CBufferQueue::~CBufferQueue
EXTRN	?AddData@CBufferQueue@@QAEXPAEKW4BUFFER_TYPE@@@Z:PROC ; CBufferQueue::AddData
EXTRN	?GetData@CBufferQueue@@QAEXPAU_WSABUF@@PAK@Z:PROC ; CBufferQueue::GetData
EXTRN	?RemoveData@CBufferQueue@@QAEXK@Z:PROC		; CBufferQueue::RemoveData
EXTRN	?CreateBuffer@CBufferFactory@@QAEPAVCBuffer@@W4BUFFER_TYPE@@K@Z:PROC ; CBufferFactory::CreateBuffer
EXTRN	?GetInstance@CBufferFactory@@SAAAV1@XZ:PROC	; CBufferFactory::GetInstance
EXTRN	??_ECClientSockE@@UAEPAXI@Z:PROC		; CClientSockE::`vector deleting destructor'
EXTRN	@__security_check_cookie@4:PROC
EXTRN	__CxxThrowException@8:PROC
EXTRN	___CxxFrameHandler3:PROC
EXTRN	_memcpy:PROC
EXTRN	_memset:PROC
EXTRN	___security_cookie:DWORD
;	COMDAT ?_OptionsStorage@?1??__local_stdio_printf_options@@9@4_KA
_BSS	SEGMENT
?_OptionsStorage@?1??__local_stdio_printf_options@@9@4_KA DQ 01H DUP (?) ; `__local_stdio_printf_options'::`2'::_OptionsStorage
_BSS	ENDS
_BSS	SEGMENT
?m_pPool@CClientSockE@@2PAV?$MemPooler@VCClientSockE@@@@A DD 01H DUP (?) ; CClientSockE::m_pPool
_BSS	ENDS
CRT$XCU	SEGMENT
??m_pPool$initializer$@CClientSockE@@2P6AXXZA@@3P6AXXZA DD FLAT:??__E?m_pPool@CClientSockE@@2PAV?$MemPooler@VCClientSockE@@@@A@@YAXXZ ; ??m_pPool$initializer$@CClientSockE@@2P6AXXZA@@3P6AXXZA
CRT$XCU	ENDS
;	COMDAT ??_R2CSock@@8
rdata$r	SEGMENT
??_R2CSock@@8 DD FLAT:??_R1A@?0A@EA@CSock@@8		; CSock::`RTTI Base Class Array'
rdata$r	ENDS
;	COMDAT ??_R3CSock@@8
rdata$r	SEGMENT
??_R3CSock@@8 DD 00H					; CSock::`RTTI Class Hierarchy Descriptor'
	DD	00H
	DD	01H
	DD	FLAT:??_R2CSock@@8
rdata$r	ENDS
;	COMDAT ??_R0?AVCSock@@@8
data$rs	SEGMENT
??_R0?AVCSock@@@8 DD FLAT:??_7type_info@@6B@		; CSock `RTTI Type Descriptor'
	DD	00H
	DB	'.?AVCSock@@', 00H
data$rs	ENDS
;	COMDAT ??_R1A@?0A@EA@CSock@@8
rdata$r	SEGMENT
??_R1A@?0A@EA@CSock@@8 DD FLAT:??_R0?AVCSock@@@8	; CSock::`RTTI Base Class Descriptor at (0,-1,0,64)'
	DD	00H
	DD	00H
	DD	0ffffffffH
	DD	00H
	DD	040H
	DD	FLAT:??_R3CSock@@8
rdata$r	ENDS
;	COMDAT ??_R1A@?0A@EA@CClientSockE@@8
rdata$r	SEGMENT
??_R1A@?0A@EA@CClientSockE@@8 DD FLAT:??_R0?AVCClientSockE@@@8 ; CClientSockE::`RTTI Base Class Descriptor at (0,-1,0,64)'
	DD	01H
	DD	00H
	DD	0ffffffffH
	DD	00H
	DD	040H
	DD	FLAT:??_R3CClientSockE@@8
rdata$r	ENDS
;	COMDAT ??_R2CClientSockE@@8
rdata$r	SEGMENT
??_R2CClientSockE@@8 DD FLAT:??_R1A@?0A@EA@CClientSockE@@8 ; CClientSockE::`RTTI Base Class Array'
	DD	FLAT:??_R1A@?0A@EA@CSock@@8
rdata$r	ENDS
;	COMDAT ??_R3CClientSockE@@8
rdata$r	SEGMENT
??_R3CClientSockE@@8 DD 00H				; CClientSockE::`RTTI Class Hierarchy Descriptor'
	DD	00H
	DD	02H
	DD	FLAT:??_R2CClientSockE@@8
rdata$r	ENDS
;	COMDAT ??_R0?AVCClientSockE@@@8
data$rs	SEGMENT
??_R0?AVCClientSockE@@@8 DD FLAT:??_7type_info@@6B@	; CClientSockE `RTTI Type Descriptor'
	DD	00H
	DB	'.?AVCClientSockE@@', 00H
data$rs	ENDS
;	COMDAT ??_R4CClientSockE@@6B@
rdata$r	SEGMENT
??_R4CClientSockE@@6B@ DD 00H				; CClientSockE::`RTTI Complete Object Locator'
	DD	00H
	DD	00H
	DD	FLAT:??_R0?AVCClientSockE@@@8
	DD	FLAT:??_R3CClientSockE@@8
rdata$r	ENDS
;	COMDAT ??_C@_0M@PCENNPGA@?$CFd?4?$CFd?4?$CFd?4?$CFd@
CONST	SEGMENT
??_C@_0M@PCENNPGA@?$CFd?4?$CFd?4?$CFd?4?$CFd@ DB '%d.%d.%d.%d', 00H ; `string'
CONST	ENDS
;	COMDAT ??_7CClientSockE@@6B@
CONST	SEGMENT
??_7CClientSockE@@6B@ DD FLAT:??_R4CClientSockE@@6B@	; CClientSockE::`vftable'
	DD	FLAT:??_ECClientSockE@@UAEPAXI@Z
	DD	FLAT:?Create@CClientSockE@@UAEHGH@Z
	DD	FLAT:?Attach@CClientSockE@@UAEXI@Z
	DD	FLAT:?Detach@CSock@@UAEXXZ
	DD	FLAT:?GetHostAddr@CSock@@UAEJPAXPAK@Z
	DD	FLAT:?GetPeerAddr@CSock@@UAEKK@Z
	DD	FLAT:?GetPeerAddr@CClientSockE@@UAEJKPAXPAK@Z
	DD	FLAT:?Close@CClientSockE@@UAEXXZ
	DD	FLAT:?CloseConnection@CClientSockE@@UAEHI@Z
	DD	FLAT:?Shutdown@CClientSockE@@UAEHI@Z
	DD	FLAT:?Send@CClientSockE@@UAEXPADKK@Z
	DD	FLAT:?Get@CSock@@UAEPAV1@I@Z
CONST	ENDS
;	COMDAT xdata$x
xdata$x	SEGMENT
__unwindtable$??__E?m_pPool@CClientSockE@@2PAV?$MemPooler@VCClientSockE@@@@A@@YAXXZ DD 0ffffffffH
	DD	FLAT:__unwindfunclet$??__E?m_pPool@CClientSockE@@2PAV?$MemPooler@VCClientSockE@@@@A@@YAXXZ$0
	DD	00H
	DD	FLAT:__unwindfunclet$??__E?m_pPool@CClientSockE@@2PAV?$MemPooler@VCClientSockE@@@@A@@YAXXZ$1
	DD	01H
	DD	FLAT:__unwindfunclet$??__E?m_pPool@CClientSockE@@2PAV?$MemPooler@VCClientSockE@@@@A@@YAXXZ$3
__ehfuncinfo$??__E?m_pPool@CClientSockE@@2PAV?$MemPooler@VCClientSockE@@@@A@@YAXXZ DD 019930522H
	DD	03H
	DD	FLAT:__unwindtable$??__E?m_pPool@CClientSockE@@2PAV?$MemPooler@VCClientSockE@@@@A@@YAXXZ
	DD	2 DUP(00H)
	DD	2 DUP(00H)
	DD	00H
	DD	01H
xdata$x	ENDS
;	COMDAT xdata$x
xdata$x	SEGMENT
__unwindtable$??$?0ABQAX@?$_List_node_emplace_op2@V?$allocator@U?$_List_node@PAXPAX@std@@@std@@@std@@QAE@AAV?$allocator@U?$_List_node@PAXPAX@std@@@1@ABQAX@Z DD 0ffffffffH
	DD	FLAT:__unwindfunclet$??$?0ABQAX@?$_List_node_emplace_op2@V?$allocator@U?$_List_node@PAXPAX@std@@@std@@@std@@QAE@AAV?$allocator@U?$_List_node@PAXPAX@std@@@1@ABQAX@Z$0
__ehfuncinfo$??$?0ABQAX@?$_List_node_emplace_op2@V?$allocator@U?$_List_node@PAXPAX@std@@@std@@@std@@QAE@AAV?$allocator@U?$_List_node@PAXPAX@std@@@1@ABQAX@Z DD 019930522H
	DD	01H
	DD	FLAT:__unwindtable$??$?0ABQAX@?$_List_node_emplace_op2@V?$allocator@U?$_List_node@PAXPAX@std@@@std@@@std@@QAE@AAV?$allocator@U?$_List_node@PAXPAX@std@@@1@ABQAX@Z
	DD	2 DUP(00H)
	DD	2 DUP(00H)
	DD	00H
	DD	01H
xdata$x	ENDS
;	COMDAT xdata$x
xdata$x	SEGMENT
__unwindtable$??$_Emplace@ABQAX@?$list@PAXV?$allocator@PAX@std@@@std@@QAEPAU?$_List_node@PAXPAX@1@QAU21@ABQAX@Z DD 0ffffffffH
	DD	FLAT:__unwindfunclet$??$_Emplace@ABQAX@?$list@PAXV?$allocator@PAX@std@@@std@@QAEPAU?$_List_node@PAXPAX@1@QAU21@ABQAX@Z$1
__ehfuncinfo$??$_Emplace@ABQAX@?$list@PAXV?$allocator@PAX@std@@@std@@QAEPAU?$_List_node@PAXPAX@1@QAU21@ABQAX@Z DD 019930522H
	DD	01H
	DD	FLAT:__unwindtable$??$_Emplace@ABQAX@?$list@PAXV?$allocator@PAX@std@@@std@@QAEPAU?$_List_node@PAXPAX@1@QAU21@ABQAX@Z
	DD	2 DUP(00H)
	DD	2 DUP(00H)
	DD	00H
	DD	01H
xdata$x	ENDS
;	COMDAT xdata$x
xdata$x	SEGMENT
__unwindtable$?Create@?$MemPooler@VCClientSockE@@@@IAEXXZ DD 0ffffffffH
	DD	FLAT:__unwindfunclet$?Create@?$MemPooler@VCClientSockE@@@@IAEXXZ$1
__ehfuncinfo$?Create@?$MemPooler@VCClientSockE@@@@IAEXXZ DD 019930522H
	DD	01H
	DD	FLAT:__unwindtable$?Create@?$MemPooler@VCClientSockE@@@@IAEXXZ
	DD	2 DUP(00H)
	DD	2 DUP(00H)
	DD	00H
	DD	01H
xdata$x	ENDS
;	COMDAT xdata$x
xdata$x	SEGMENT
__unwindtable$??0?$MemPooler@VCClientSockE@@@@QAE@H@Z DD 0ffffffffH
	DD	FLAT:__unwindfunclet$??0?$MemPooler@VCClientSockE@@@@QAE@H@Z$0
	DD	00H
	DD	FLAT:__unwindfunclet$??0?$MemPooler@VCClientSockE@@@@QAE@H@Z$2
__ehfuncinfo$??0?$MemPooler@VCClientSockE@@@@QAE@H@Z DD 019930522H
	DD	02H
	DD	FLAT:__unwindtable$??0?$MemPooler@VCClientSockE@@@@QAE@H@Z
	DD	2 DUP(00H)
	DD	2 DUP(00H)
	DD	00H
	DD	01H
xdata$x	ENDS
;	COMDAT xdata$x
xdata$x	SEGMENT
__unwindtable$?Send@CClientSockE@@UAEXPADKK@Z DD 0ffffffffH
	DD	FLAT:__unwindfunclet$?Send@CClientSockE@@UAEXPADKK@Z$0
__ehfuncinfo$?Send@CClientSockE@@UAEXPADKK@Z DD 019930522H
	DD	01H
	DD	FLAT:__unwindtable$?Send@CClientSockE@@UAEXPADKK@Z
	DD	2 DUP(00H)
	DD	2 DUP(00H)
	DD	00H
	DD	01H
xdata$x	ENDS
;	COMDAT xdata$x
xdata$x	SEGMENT
__unwindtable$?SendRemnant@CClientSockE@@QAEHK@Z DD 0ffffffffH
	DD	FLAT:__unwindfunclet$?SendRemnant@CClientSockE@@QAEHK@Z$0
__ehfuncinfo$?SendRemnant@CClientSockE@@QAEHK@Z DD 019930522H
	DD	01H
	DD	FLAT:__unwindtable$?SendRemnant@CClientSockE@@QAEHK@Z
	DD	2 DUP(00H)
	DD	2 DUP(00H)
	DD	00H
	DD	01H
xdata$x	ENDS
;	COMDAT voltbl
voltbl	SEGMENT
_volmd	DB	066H
voltbl	ENDS
;	COMDAT xdata$x
xdata$x	SEGMENT
__unwindtable$??0CClientSockE@@QAE@W4BUFFER_TYPE@@@Z DD 0ffffffffH
	DD	FLAT:__unwindfunclet$??0CClientSockE@@QAE@W4BUFFER_TYPE@@@Z$0
	DD	00H
	DD	FLAT:__unwindfunclet$??0CClientSockE@@QAE@W4BUFFER_TYPE@@@Z$1
__ehfuncinfo$??0CClientSockE@@QAE@W4BUFFER_TYPE@@@Z DD 019930522H
	DD	02H
	DD	FLAT:__unwindtable$??0CClientSockE@@QAE@W4BUFFER_TYPE@@@Z
	DD	2 DUP(00H)
	DD	2 DUP(00H)
	DD	00H
	DD	01H
xdata$x	ENDS
;	COMDAT xdata$x
xdata$x	SEGMENT
__unwindtable$?push_back@?$list@PAXV?$allocator@PAX@std@@@std@@QAEXABQAX@Z DD 0ffffffffH
	DD	FLAT:__unwindfunclet$?push_back@?$list@PAXV?$allocator@PAX@std@@@std@@QAEXABQAX@Z$1
__ehfuncinfo$?push_back@?$list@PAXV?$allocator@PAX@std@@@std@@QAEXABQAX@Z DD 019930522H
	DD	01H
	DD	FLAT:__unwindtable$?push_back@?$list@PAXV?$allocator@PAX@std@@@std@@QAEXABQAX@Z
	DD	2 DUP(00H)
	DD	2 DUP(00H)
	DD	00H
	DD	01H
xdata$x	ENDS
; Function compile flags: /Ogtp
; File C:\IAGOS\server\v18\Source\Source\_network\net\src\clientsocke.cpp
; File C:\IAGOS\server\v18\Source\Source\_Network\Misc\Include\mempooler.h
; File C:\Program Files\Microsoft Visual Studio\2022\Professional\VC\Tools\MSVC\14.44.35207\include\xmemory
; File C:\Program Files\Microsoft Visual Studio\2022\Professional\VC\Tools\MSVC\14.44.35207\include\list
; File C:\Program Files\Microsoft Visual Studio\2022\Professional\VC\Tools\MSVC\14.44.35207\include\xmemory
; File C:\Program Files\Microsoft Visual Studio\2022\Professional\VC\Tools\MSVC\14.44.35207\include\list
; File C:\IAGOS\server\v18\Source\Source\_Network\Misc\Include\mempooler.h
; File C:\Program Files\Microsoft Visual Studio\2022\Professional\VC\Tools\MSVC\14.44.35207\include\list
; File C:\Program Files\Microsoft Visual Studio\2022\Professional\VC\Tools\MSVC\14.44.35207\include\xmemory
; File C:\Program Files\Microsoft Visual Studio\2022\Professional\VC\Tools\MSVC\14.44.35207\include\list
; File C:\Program Files\Microsoft Visual Studio\2022\Professional\VC\Tools\MSVC\14.44.35207\include\xmemory
; File C:\Program Files\Microsoft Visual Studio\2022\Professional\VC\Tools\MSVC\14.44.35207\include\list
; File C:\Program Files\Microsoft Visual Studio\2022\Professional\VC\Tools\MSVC\14.44.35207\include\xmemory
; File C:\Program Files\Microsoft Visual Studio\2022\Professional\VC\Tools\MSVC\14.44.35207\include\list
; File C:\IAGOS\server\v18\Source\Source\_Network\Misc\Include\mempooler.h
; File C:\IAGOS\server\v18\Source\Source\_network\net\src\clientsocke.cpp
; File C:\Program Files\Microsoft Visual Studio\2022\Professional\VC\Tools\MSVC\14.44.35207\include\list
; File C:\IAGOS\server\v18\Source\Source\_network\net\src\clientsocke.cpp
;	COMDAT ??__E?m_pPool@CClientSockE@@2PAV?$MemPooler@VCClientSockE@@@@A@@YAXXZ
text$di	SEGMENT
__Op$2 = -28						; size = 8
$T3 = -20						; size = 4
_pMemBlock$1$ = -16					; size = 4
__$EHRec$ = -12						; size = 12
??__E?m_pPool@CClientSockE@@2PAV?$MemPooler@VCClientSockE@@@@A@@YAXXZ PROC ; `dynamic initializer for 'CClientSockE::m_pPool'', COMDAT

; 16   : 	MemPooler<CClientSockE>*	CClientSockE::m_pPool	= new MemPooler<CClientSockE>( 4 );

  00000	55		 push	 ebp
  00001	8b ec		 mov	 ebp, esp
  00003	6a ff		 push	 -1
  00005	68 00 00 00 00	 push	 __ehhandler$??__E?m_pPool@CClientSockE@@2PAV?$MemPooler@VCClientSockE@@@@A@@YAXXZ
  0000a	64 a1 00 00 00
	00		 mov	 eax, DWORD PTR fs:0
  00010	50		 push	 eax
  00011	83 ec 10	 sub	 esp, 16			; 00000010H
  00014	53		 push	 ebx
  00015	56		 push	 esi
  00016	57		 push	 edi
  00017	a1 00 00 00 00	 mov	 eax, DWORD PTR ___security_cookie
  0001c	33 c5		 xor	 eax, ebp
  0001e	50		 push	 eax
  0001f	8d 45 f4	 lea	 eax, DWORD PTR __$EHRec$[ebp]
  00022	64 a3 00 00 00
	00		 mov	 DWORD PTR fs:0, eax
  00028	68 94 00 00 00	 push	 148			; 00000094H
  0002d	e8 00 00 00 00	 call	 ??2@YAPAXI@Z		; operator new
  00032	8b f0		 mov	 esi, eax
  00034	83 c4 04	 add	 esp, 4
  00037	89 75 ec	 mov	 DWORD PTR $T3[ebp], esi
  0003a	c7 45 fc 00 00
	00 00		 mov	 DWORD PTR __$EHRec$[ebp+8], 0
  00041	85 f6		 test	 esi, esi
  00043	0f 84 d7 00 00
	00		 je	 $LN3@m_pPool
; File C:\IAGOS\server\v18\Source\Source\_Network\Misc\Include\mempooler.h

; 36   : 													m_pFreeList( NULL ),

  00049	c7 06 00 00 00
	00		 mov	 DWORD PTR [esi], 0

; 37   : 													m_nAllocCount( 0 )
; 38   : #endif	// __VM_0819
; 39   : 		{

  0004f	8d 7e 04	 lea	 edi, DWORD PTR [esi+4]
; File C:\Program Files\Microsoft Visual Studio\2022\Professional\VC\Tools\MSVC\14.44.35207\include\xmemory

; 136  :         return ::operator new(_Bytes);

  00052	6a 0c		 push	 12			; 0000000cH
; File C:\Program Files\Microsoft Visual Studio\2022\Professional\VC\Tools\MSVC\14.44.35207\include\list

; 353  :     _List_val() noexcept : _Myhead(), _Mysize(0) {} // initialize data

  00054	c7 07 00 00 00
	00		 mov	 DWORD PTR [edi], 0
  0005a	c7 47 04 00 00
	00 00		 mov	 DWORD PTR [edi+4], 0
; File C:\Program Files\Microsoft Visual Studio\2022\Professional\VC\Tools\MSVC\14.44.35207\include\xmemory

; 136  :         return ::operator new(_Bytes);

  00061	e8 00 00 00 00	 call	 ??2@YAPAXI@Z		; operator new
  00066	83 c4 04	 add	 esp, 4
; File C:\Program Files\Microsoft Visual Studio\2022\Professional\VC\Tools\MSVC\14.44.35207\include\list

; 1852 :         _Construct_in_place(_Newhead->_Next, _Newhead);

  00069	89 00		 mov	 DWORD PTR [eax], eax

; 1853 :         _Construct_in_place(_Newhead->_Prev, _Newhead);

  0006b	89 40 04	 mov	 DWORD PTR [eax+4], eax

; 1854 :         _Mypair._Myval2._Myhead = _Newhead;

  0006e	89 07		 mov	 DWORD PTR [edi], eax
; File C:\IAGOS\server\v18\Source\Source\_Network\Misc\Include\mempooler.h

; 48   : 			InitializeCriticalSectionAndSpinCount( &m_cs, 2000 );

  00070	68 d0 07 00 00	 push	 2000			; 000007d0H
  00075	8d 46 18	 lea	 eax, DWORD PTR [esi+24]
  00078	c6 45 fc 01	 mov	 BYTE PTR __$EHRec$[ebp+8], 1
  0007c	50		 push	 eax
  0007d	c7 46 0c 04 00
	00 00		 mov	 DWORD PTR [esi+12], 4
  00084	c7 46 14 00 00
	00 00		 mov	 DWORD PTR [esi+20], 0
  0008b	c7 46 10 80 04
	00 00		 mov	 DWORD PTR [esi+16], 1152 ; 00000480H
  00092	ff 15 00 00 00
	00		 call	 DWORD PTR __imp__InitializeCriticalSectionAndSpinCount@8

; 127  : 			const int AllocationSize	= m_nListBlockSize * m_nNumOfBlock;

  00098	8b 46 10	 mov	 eax, DWORD PTR [esi+16]
  0009b	0f af 46 0c	 imul	 eax, DWORD PTR [esi+12]

; 128  : 			void* pMemBlock		= VirtualAlloc( NULL, AllocationSize, MEM_RESERVE | MEM_COMMIT, PAGE_READWRITE );

  0009f	6a 04		 push	 4
  000a1	68 00 30 00 00	 push	 12288			; 00003000H
  000a6	50		 push	 eax
  000a7	6a 00		 push	 0
  000a9	ff 15 00 00 00
	00		 call	 DWORD PTR __imp__VirtualAlloc@16
  000af	89 45 f0	 mov	 DWORD PTR _pMemBlock$1$[ebp], eax
  000b2	85 c0		 test	 eax, eax

; 129  : 			ASSERT( pMemBlock );
; 130  : 			if( !pMemBlock )

  000b4	75 0d		 jne	 SHORT $LN38@m_pPool

; 131  : 				Error( "bad alloc" );

  000b6	68 00 00 00 00	 push	 OFFSET ??_C@_09PKKCPLIP@bad?5alloc@
  000bb	e8 00 00 00 00	 call	 ?Error@@YAPBDPBDZZ	; Error
  000c0	83 c4 04	 add	 esp, 4
$LN38@m_pPool:
; File C:\Program Files\Microsoft Visual Studio\2022\Professional\VC\Tools\MSVC\14.44.35207\include\list

; 1030 :         if (_Mysize == max_size()) {

  000c3	81 7f 04 55 55
	55 15		 cmp	 DWORD PTR [edi+4], 357913941 ; 15555555H

; 1274 :         _Emplace(_Mypair._Myval2._Myhead, _Val);

  000ca	8b 1f		 mov	 ebx, DWORD PTR [edi]

; 1030 :         if (_Mysize == max_size()) {

  000cc	74 6c		 je	 SHORT $LN106@m_pPool
; File C:\Program Files\Microsoft Visual Studio\2022\Professional\VC\Tools\MSVC\14.44.35207\include\xmemory

; 1160 :     _CONSTEXPR20 explicit _Alloc_construct_ptr(_Alloc& _Al_) : _Al(_Al_), _Ptr(nullptr) {}

  000ce	89 7d e4	 mov	 DWORD PTR __Op$2[ebp], edi

; 136  :         return ::operator new(_Bytes);

  000d1	6a 0c		 push	 12			; 0000000cH
; File C:\Program Files\Microsoft Visual Studio\2022\Professional\VC\Tools\MSVC\14.44.35207\include\list

; 593  :     explicit _List_node_emplace_op2(_Alnode& _Al_, _Valtys&&... _Vals) : _Alloc_construct_ptr<_Alnode>(_Al_) {

  000d3	c6 45 fc 02	 mov	 BYTE PTR __$EHRec$[ebp+8], 2
; File C:\Program Files\Microsoft Visual Studio\2022\Professional\VC\Tools\MSVC\14.44.35207\include\xmemory

; 1167 :         _Ptr = nullptr; // if allocate throws, prevents double-free

  000d7	c7 45 e8 00 00
	00 00		 mov	 DWORD PTR __Op$2[ebp+4], 0

; 136  :         return ::operator new(_Bytes);

  000de	e8 00 00 00 00	 call	 ??2@YAPAXI@Z		; operator new
; File C:\Program Files\Microsoft Visual Studio\2022\Professional\VC\Tools\MSVC\14.44.35207\include\list

; 595  :         _Alnode_traits::construct(this->_Al, _STD addressof(this->_Ptr->_Myval), _STD forward<_Valtys>(_Vals)...);

  000e3	8b 4d f0	 mov	 ecx, DWORD PTR _pMemBlock$1$[ebp]
; File C:\Program Files\Microsoft Visual Studio\2022\Professional\VC\Tools\MSVC\14.44.35207\include\xmemory

; 136  :         return ::operator new(_Bytes);

  000e6	83 c4 04	 add	 esp, 4
; File C:\Program Files\Microsoft Visual Studio\2022\Professional\VC\Tools\MSVC\14.44.35207\include\list

; 595  :         _Alnode_traits::construct(this->_Al, _STD addressof(this->_Ptr->_Myval), _STD forward<_Valtys>(_Vals)...);

  000e9	89 48 08	 mov	 DWORD PTR [eax+8], ecx

; 1035 :         ++_Mysize;

  000ec	ff 47 04	 inc	 DWORD PTR [edi+4]

; 608  :         const pointer _Insert_after = _Insert_before->_Prev;

  000ef	8b 4b 04	 mov	 ecx, DWORD PTR [ebx+4]

; 609  :         _Construct_in_place(this->_Ptr->_Next, _Insert_before);

  000f2	89 18		 mov	 DWORD PTR [eax], ebx

; 610  :         _Construct_in_place(this->_Ptr->_Prev, _Insert_after);

  000f4	89 48 04	 mov	 DWORD PTR [eax+4], ecx

; 611  :         const auto _Result    = this->_Ptr;
; 612  :         this->_Ptr            = pointer{};
; 613  :         _Insert_before->_Prev = _Result;

  000f7	89 43 04	 mov	 DWORD PTR [ebx+4], eax

; 614  :         _Insert_after->_Next  = _Result;

  000fa	89 01		 mov	 DWORD PTR [ecx], eax
; File C:\IAGOS\server\v18\Source\Source\_Network\Misc\Include\mempooler.h

; 134  : 			pNode	= reinterpret_cast<BlockNode*>( ( reinterpret_cast<DWORD>( pNode ) ) + ( m_nNumOfBlock - 1 ) * ( m_nListBlockSize ) );	// set pNode to last

  000fc	8b 56 0c	 mov	 edx, DWORD PTR [esi+12]
  000ff	8b 4e 10	 mov	 ecx, DWORD PTR [esi+16]
  00102	4a		 dec	 edx
  00103	0f af ca	 imul	 ecx, edx
  00106	03 4d f0	 add	 ecx, DWORD PTR _pMemBlock$1$[ebp]

; 135  : 			for( int i = m_nNumOfBlock - 1; i >= 0; i-- )

  00109	85 d2		 test	 edx, edx
  0010b	78 15		 js	 SHORT $LN4@m_pPool
  0010d	0f 1f 00	 npad	 3
$LL37@m_pPool:

; 136  : 			{
; 137  : 				pNode->pNext	= m_pFreeList;

  00110	8b 06		 mov	 eax, DWORD PTR [esi]
  00112	89 01		 mov	 DWORD PTR [ecx], eax

; 138  : 				m_pFreeList	= pNode;

  00114	89 0e		 mov	 DWORD PTR [esi], ecx

; 139  : 				pNode	= reinterpret_cast<BlockNode*>( ( reinterpret_cast<DWORD>( pNode ) ) - m_nListBlockSize );	// set pNode to previous

  00116	2b 4e 10	 sub	 ecx, DWORD PTR [esi+16]
  00119	83 ea 01	 sub	 edx, 1
  0011c	79 f2		 jns	 SHORT $LL37@m_pPool
; File C:\IAGOS\server\v18\Source\Source\_network\net\src\clientsocke.cpp

; 16   : 	MemPooler<CClientSockE>*	CClientSockE::m_pPool	= new MemPooler<CClientSockE>( 4 );

  0011e	eb 02		 jmp	 SHORT $LN4@m_pPool
$LN3@m_pPool:
  00120	33 f6		 xor	 esi, esi
$LN4@m_pPool:
  00122	89 35 00 00 00
	00		 mov	 DWORD PTR ?m_pPool@CClientSockE@@2PAV?$MemPooler@VCClientSockE@@@@A, esi ; CClientSockE::m_pPool
  00128	8b 4d f4	 mov	 ecx, DWORD PTR __$EHRec$[ebp]
  0012b	64 89 0d 00 00
	00 00		 mov	 DWORD PTR fs:0, ecx
  00132	59		 pop	 ecx
  00133	5f		 pop	 edi
  00134	5e		 pop	 esi
  00135	5b		 pop	 ebx
  00136	8b e5		 mov	 esp, ebp
  00138	5d		 pop	 ebp
  00139	c3		 ret	 0
$LN106@m_pPool:
; File C:\Program Files\Microsoft Visual Studio\2022\Professional\VC\Tools\MSVC\14.44.35207\include\list

; 1031 :             _Xlength_error("list too long");

  0013a	68 00 00 00 00	 push	 OFFSET ??_C@_0O@NKNMEGII@list?5too?5long@
  0013f	e8 00 00 00 00	 call	 ?_Xlength_error@std@@YAXPBD@Z ; std::_Xlength_error
$LN104@m_pPool:
  00144	cc		 int	 3
text$di	ENDS
;	COMDAT text$x
text$x	SEGMENT
__unwindfunclet$??__E?m_pPool@CClientSockE@@2PAV?$MemPooler@VCClientSockE@@@@A@@YAXXZ$0:
  00000	68 94 00 00 00	 push	 148			; 00000094H
  00005	8b 45 ec	 mov	 eax, DWORD PTR $T3[ebp]
  00008	50		 push	 eax
  00009	e8 00 00 00 00	 call	 ??3@YAXPAXI@Z		; operator delete
  0000e	83 c4 08	 add	 esp, 8
  00011	c3		 ret	 0
__unwindfunclet$??__E?m_pPool@CClientSockE@@2PAV?$MemPooler@VCClientSockE@@@@A@@YAXXZ$1:
  00012	8b 4d ec	 mov	 ecx, DWORD PTR $T3[ebp]
  00015	83 c1 04	 add	 ecx, 4
  00018	e9 00 00 00 00	 jmp	 ??1?$list@PAXV?$allocator@PAX@std@@@std@@QAE@XZ ; std::list<void *,std::allocator<void *> >::~list<void *,std::allocator<void *> >
__unwindfunclet$??__E?m_pPool@CClientSockE@@2PAV?$MemPooler@VCClientSockE@@@@A@@YAXXZ$3:
  0001d	8d 4d e4	 lea	 ecx, DWORD PTR __Op$2[ebp]
  00020	e9 00 00 00 00	 jmp	 ??1?$_Alloc_construct_ptr@V?$allocator@U?$_List_node@PAXPAX@std@@@std@@@std@@QAE@XZ ; std::_Alloc_construct_ptr<std::allocator<std::_List_node<void *,void *> > >::~_Alloc_construct_ptr<std::allocator<std::_List_node<void *,void *> > >
  00025	cc		 int	 3
  00026	cc		 int	 3
  00027	cc		 int	 3
  00028	cc		 int	 3
  00029	cc		 int	 3
__ehhandler$??__E?m_pPool@CClientSockE@@2PAV?$MemPooler@VCClientSockE@@@@A@@YAXXZ:
  0002a	90		 npad	 1
  0002b	90		 npad	 1
  0002c	8b 54 24 08	 mov	 edx, DWORD PTR [esp+8]
  00030	8d 42 0c	 lea	 eax, DWORD PTR [edx+12]
  00033	8b 4a e0	 mov	 ecx, DWORD PTR [edx-32]
  00036	33 c8		 xor	 ecx, eax
  00038	e8 00 00 00 00	 call	 @__security_check_cookie@4
  0003d	b8 00 00 00 00	 mov	 eax, OFFSET __ehfuncinfo$??__E?m_pPool@CClientSockE@@2PAV?$MemPooler@VCClientSockE@@@@A@@YAXXZ
  00042	e9 00 00 00 00	 jmp	 ___CxxFrameHandler3
text$x	ENDS
??__E?m_pPool@CClientSockE@@2PAV?$MemPooler@VCClientSockE@@@@A@@YAXXZ ENDP ; `dynamic initializer for 'CClientSockE::m_pPool''
; Function compile flags: /Ogtp
; File C:\Program Files\Microsoft Visual Studio\2022\Professional\VC\Tools\MSVC\14.44.35207\include\xmemory
;	COMDAT ??$_Allocate_manually_vector_aligned@U_Default_allocate_traits@std@@@std@@YAPAXI@Z
_TEXT	SEGMENT
__Bytes$ = 8						; size = 4
??$_Allocate_manually_vector_aligned@U_Default_allocate_traits@std@@@std@@YAPAXI@Z PROC ; std::_Allocate_manually_vector_aligned<std::_Default_allocate_traits>, COMDAT

; 182  : __declspec(allocator) void* _Allocate_manually_vector_aligned(const size_t _Bytes) {

  00000	55		 push	 ebp
  00001	8b ec		 mov	 ebp, esp

; 183  :     // allocate _Bytes manually aligned to at least _Big_allocation_alignment
; 184  :     const size_t _Block_size = _Non_user_size + _Bytes;

  00003	8b 45 08	 mov	 eax, DWORD PTR __Bytes$[ebp]
  00006	8d 48 23	 lea	 ecx, DWORD PTR [eax+35]

; 185  :     if (_Block_size <= _Bytes) {

  00009	3b c8		 cmp	 ecx, eax
  0000b	0f 86 00 00 00
	00		 jbe	 ?_Throw_bad_array_new_length@std@@YAXXZ ; std::_Throw_bad_array_new_length

; 136  :         return ::operator new(_Bytes);

  00011	51		 push	 ecx
  00012	e8 00 00 00 00	 call	 ??2@YAPAXI@Z		; operator new

; 186  :         _Throw_bad_array_new_length(); // add overflow
; 187  :     }
; 188  : 
; 189  :     const uintptr_t _Ptr_container = reinterpret_cast<uintptr_t>(_Traits::_Allocate(_Block_size));

  00017	8b c8		 mov	 ecx, eax

; 136  :         return ::operator new(_Bytes);

  00019	83 c4 04	 add	 esp, 4

; 190  :     _STL_VERIFY(_Ptr_container != 0, "invalid argument"); // validate even in release since we're doing p[-1]

  0001c	85 c9		 test	 ecx, ecx
  0001e	74 0b		 je	 SHORT $LN9@Allocate_m

; 191  :     void* const _Ptr = reinterpret_cast<void*>((_Ptr_container + _Non_user_size) & ~(_Big_allocation_alignment - 1));

  00020	8d 41 23	 lea	 eax, DWORD PTR [ecx+35]
  00023	83 e0 e0	 and	 eax, -32		; ffffffe0H

; 192  :     static_cast<uintptr_t*>(_Ptr)[-1] = _Ptr_container;

  00026	89 48 fc	 mov	 DWORD PTR [eax-4], ecx

; 193  : 
; 194  : #ifdef _DEBUG
; 195  :     static_cast<uintptr_t*>(_Ptr)[-2] = _Big_allocation_sentinel;
; 196  : #endif // defined(_DEBUG)
; 197  :     return _Ptr;
; 198  : }

  00029	5d		 pop	 ebp
  0002a	c3		 ret	 0
$LN9@Allocate_m:

; 190  :     _STL_VERIFY(_Ptr_container != 0, "invalid argument"); // validate even in release since we're doing p[-1]

  0002b	6a 00		 push	 0
  0002d	6a 00		 push	 0
  0002f	6a 00		 push	 0
  00031	6a 00		 push	 0
  00033	6a 00		 push	 0
  00035	e8 00 00 00 00	 call	 __invoke_watson
$LN7@Allocate_m:
  0003a	cc		 int	 3
??$_Allocate_manually_vector_aligned@U_Default_allocate_traits@std@@@std@@YAPAXI@Z ENDP ; std::_Allocate_manually_vector_aligned<std::_Default_allocate_traits>
_TEXT	ENDS
; Function compile flags: /Ogtp
; File C:\Program Files\Microsoft Visual Studio\2022\Professional\VC\Tools\MSVC\14.44.35207\include\xmemory
;	COMDAT ??1?$_Alloc_construct_ptr@V?$allocator@U?$_List_node@PAXPAX@std@@@std@@@std@@QAE@XZ
_TEXT	SEGMENT
??1?$_Alloc_construct_ptr@V?$allocator@U?$_List_node@PAXPAX@std@@@std@@@std@@QAE@XZ PROC ; std::_Alloc_construct_ptr<std::allocator<std::_List_node<void *,void *> > >::~_Alloc_construct_ptr<std::allocator<std::_List_node<void *,void *> > >, COMDAT
; _this$ = ecx

; 1172 :         if (_Ptr) {

  00000	8b 41 04	 mov	 eax, DWORD PTR [ecx+4]
  00003	85 c0		 test	 eax, eax
  00005	74 0b		 je	 SHORT $LN10@Alloc_cons

; 289  :         ::operator delete(_Ptr, _Bytes);

  00007	6a 0c		 push	 12			; 0000000cH
  00009	50		 push	 eax
  0000a	e8 00 00 00 00	 call	 ??3@YAXPAXI@Z		; operator delete
  0000f	83 c4 08	 add	 esp, 8
$LN10@Alloc_cons:

; 1173 :             _Al.deallocate(_Ptr, 1);
; 1174 :         }
; 1175 :     }

  00012	c3		 ret	 0
??1?$_Alloc_construct_ptr@V?$allocator@U?$_List_node@PAXPAX@std@@@std@@@std@@QAE@XZ ENDP ; std::_Alloc_construct_ptr<std::allocator<std::_List_node<void *,void *> > >::~_Alloc_construct_ptr<std::allocator<std::_List_node<void *,void *> > >
_TEXT	ENDS
; Function compile flags: /Ogtp
; File C:\IAGOS\server\v18\Source\Source\_Network\Net\Include\clientsocke.h
; File C:\IAGOS\server\v18\Source\Source\_Network\Misc\Include\mempooler.h
;	COMDAT ??_GCClientSockE@@UAEPAXI@Z
_TEXT	SEGMENT
___flags$ = 8						; size = 4
??_GCClientSockE@@UAEPAXI@Z PROC			; CClientSockE::`scalar deleting destructor', COMDAT
; _this$ = ecx
  00000	55		 push	 ebp
  00001	8b ec		 mov	 ebp, esp
  00003	56		 push	 esi
  00004	8b f1		 mov	 esi, ecx
  00006	e8 00 00 00 00	 call	 ??1CClientSockE@@UAE@XZ	; CClientSockE::~CClientSockE
  0000b	8b 45 08	 mov	 eax, DWORD PTR ___flags$[ebp]
  0000e	a8 01		 test	 al, 1
  00010	74 56		 je	 SHORT $LN14@scalar
  00012	a8 04		 test	 al, 4
  00014	75 44		 jne	 SHORT $LN3@scalar
  00016	53		 push	 ebx
  00017	57		 push	 edi
; File C:\IAGOS\server\v18\Source\Source\_Network\Net\Include\clientsocke.h

; 84   : 	void	operator delete( void* lpMem )	{	CClientSockE::m_pPool->Free( (CClientSockE*)lpMem );	}

  00018	8b 3d 00 00 00
	00		 mov	 edi, DWORD PTR ?m_pPool@CClientSockE@@2PAV?$MemPooler@VCClientSockE@@@@A ; CClientSockE::m_pPool
; File C:\IAGOS\server\v18\Source\Source\_Network\Misc\Include\mempooler.h

; 88   : 			EnterCriticalSection( &m_cs );

  0001e	8d 5f 18	 lea	 ebx, DWORD PTR [edi+24]
  00021	53		 push	 ebx
  00022	ff 15 00 00 00
	00		 call	 DWORD PTR __imp__EnterCriticalSection@4

; 89   : 
; 90   : 			pNode	= ( reinterpret_cast<BlockNode*>( lpMem ) ) - 1;
; 91   : 			if( m_nAllocCount > 0 )

  00028	83 7f 14 00	 cmp	 DWORD PTR [edi+20], 0
  0002c	8d 4e fc	 lea	 ecx, DWORD PTR [esi-4]
  0002f	7e 09		 jle	 SHORT $LN12@scalar

; 92   : 			{
; 93   : 				pNode->pNext	= m_pFreeList;

  00031	8b 07		 mov	 eax, DWORD PTR [edi]
  00033	89 01		 mov	 DWORD PTR [ecx], eax

; 94   : 				m_pFreeList		= pNode;
; 95   : 				m_nAllocCount--;

  00035	ff 4f 14	 dec	 DWORD PTR [edi+20]
  00038	89 0f		 mov	 DWORD PTR [edi], ecx
$LN12@scalar:

; 96   : 			}
; 97   : 
; 98   : 			//	mulcom	BEGIN100422	¸Ţ¸đ¸®Ç® ĂĘ±âČ­
; 99   : 			::memset( lpMem, 0, sizeof(T) );

  0003a	68 7c 04 00 00	 push	 1148			; 0000047cH
  0003f	6a 00		 push	 0
  00041	56		 push	 esi
  00042	e8 00 00 00 00	 call	 _memset
  00047	83 c4 0c	 add	 esp, 12			; 0000000cH

; 100  : 			//	mulcom	END100422	¸Ţ¸đ¸®Ç® ĂĘ±âČ­
; 101  : 
; 102  : 			LeaveCriticalSection( &m_cs );

  0004a	53		 push	 ebx
  0004b	ff 15 00 00 00
	00		 call	 DWORD PTR __imp__LeaveCriticalSection@4
  00051	5f		 pop	 edi
  00052	5b		 pop	 ebx
  00053	8b c6		 mov	 eax, esi
  00055	5e		 pop	 esi
  00056	5d		 pop	 ebp
  00057	c2 04 00	 ret	 4
$LN3@scalar:
  0005a	68 7c 04 00 00	 push	 1148			; 0000047cH
  0005f	56		 push	 esi
  00060	e8 00 00 00 00	 call	 ?__global_delete@@YAXPAXI@Z ; __global_delete
  00065	83 c4 08	 add	 esp, 8
$LN14@scalar:
  00068	8b c6		 mov	 eax, esi
  0006a	5e		 pop	 esi
  0006b	5d		 pop	 ebp
  0006c	c2 04 00	 ret	 4
??_GCClientSockE@@UAEPAXI@Z ENDP			; CClientSockE::`scalar deleting destructor'
_TEXT	ENDS
; Function compile flags: /Ogtp
; File C:\IAGOS\server\v18\Source\Source\_network\net\src\clientsocke.cpp
;	COMDAT ?GetPeerAddr@CClientSockE@@UAEJKPAXPAK@Z
_TEXT	SEGMENT
_namelen$ = -24						; size = 4
_sin$ = -20						; size = 16
__$ArrayPad$ = -4					; size = 4
_dpidPlayer$ = 8					; size = 4
_lpAddr$ = 12						; size = 4
_lpdwSize$ = 16						; size = 4
?GetPeerAddr@CClientSockE@@UAEJKPAXPAK@Z PROC		; CClientSockE::GetPeerAddr, COMDAT
; _this$ = ecx

; 367  : {

  00000	55		 push	 ebp
  00001	8b ec		 mov	 ebp, esp
  00003	83 ec 18	 sub	 esp, 24			; 00000018H
  00006	a1 00 00 00 00	 mov	 eax, DWORD PTR ___security_cookie
  0000b	33 c5		 xor	 eax, ebp
  0000d	89 45 fc	 mov	 DWORD PTR __$ArrayPad$[ebp], eax
  00010	56		 push	 esi
  00011	8b 75 0c	 mov	 esi, DWORD PTR _lpAddr$[ebp]

; 368  : 	ASSERT( lpAddr );
; 369  : 
; 370  : 	SOCKADDR_IN sin;
; 371  : 	ZeroMemory( &sin, sizeof( SOCKADDR_IN) );
; 372  : 
; 373  : 	int namelen	= sizeof(sin);
; 374  : 	if( getpeername( m_hSocket, (SOCKADDR *)&sin, &namelen ) == SOCKET_ERROR )

  00014	8d 45 e8	 lea	 eax, DWORD PTR _namelen$[ebp]
  00017	50		 push	 eax
  00018	8d 45 ec	 lea	 eax, DWORD PTR _sin$[ebp]
  0001b	c7 45 e8 10 00
	00 00		 mov	 DWORD PTR _namelen$[ebp], 16 ; 00000010H
  00022	50		 push	 eax
  00023	ff 71 04	 push	 DWORD PTR [ecx+4]
  00026	0f 57 c0	 xorps	 xmm0, xmm0
  00029	0f 11 45 ec	 movups	 XMMWORD PTR _sin$[ebp], xmm0
  0002d	ff 15 00 00 00
	00		 call	 DWORD PTR __imp__getpeername@12
  00033	83 f8 ff	 cmp	 eax, -1
  00036	75 16		 jne	 SHORT $LN2@GetPeerAdd

; 375  : 		return DPERR_GENERIC;

  00038	b8 05 40 00 80	 mov	 eax, -2147467259	; 80004005H
  0003d	5e		 pop	 esi

; 378  : 																	, sin.sin_addr.s_host
; 379  : 																	, sin.sin_addr.s_lh
; 380  : 																	, sin.sin_addr.s_impno );
; 381  : 	return DP_OK;
; 382  : }

  0003e	8b 4d fc	 mov	 ecx, DWORD PTR __$ArrayPad$[ebp]
  00041	33 cd		 xor	 ecx, ebp
  00043	e8 00 00 00 00	 call	 @__security_check_cookie@4
  00048	8b e5		 mov	 esp, ebp
  0004a	5d		 pop	 ebp
  0004b	c2 0c 00	 ret	 12			; 0000000cH
$LN2@GetPeerAdd:

; 376  : 
; 377  : 	sprintf( (char *)lpAddr, "%d.%d.%d.%d", sin.sin_addr.s_net

  0004e	0f b6 45 f3	 movzx	 eax, BYTE PTR _sin$[ebp+7]
  00052	50		 push	 eax
  00053	0f b6 45 f2	 movzx	 eax, BYTE PTR _sin$[ebp+6]
  00057	50		 push	 eax
  00058	0f b6 45 f1	 movzx	 eax, BYTE PTR _sin$[ebp+5]
  0005c	50		 push	 eax
  0005d	0f b6 45 f0	 movzx	 eax, BYTE PTR _sin$[ebp+4]
  00061	50		 push	 eax
  00062	68 00 00 00 00	 push	 OFFSET ??_C@_0M@PCENNPGA@?$CFd?4?$CFd?4?$CFd?4?$CFd@
  00067	56		 push	 esi
  00068	e8 00 00 00 00	 call	 _sprintf

; 378  : 																	, sin.sin_addr.s_host
; 379  : 																	, sin.sin_addr.s_lh
; 380  : 																	, sin.sin_addr.s_impno );
; 381  : 	return DP_OK;
; 382  : }

  0006d	8b 4d fc	 mov	 ecx, DWORD PTR __$ArrayPad$[ebp]
  00070	83 c4 18	 add	 esp, 24			; 00000018H
  00073	33 cd		 xor	 ecx, ebp
  00075	33 c0		 xor	 eax, eax
  00077	5e		 pop	 esi
  00078	e8 00 00 00 00	 call	 @__security_check_cookie@4
  0007d	8b e5		 mov	 esp, ebp
  0007f	5d		 pop	 ebp
  00080	c2 0c 00	 ret	 12			; 0000000cH
?GetPeerAddr@CClientSockE@@UAEJKPAXPAK@Z ENDP		; CClientSockE::GetPeerAddr
_TEXT	ENDS
; Function compile flags: /Ogtp
; File C:\IAGOS\server\v18\Source\Source\_network\net\src\clientsocke.cpp
; File C:\IAGOS\server\v18\Source\Source\_Network\Mcl\Include\CMclCritSec.h
; File C:\IAGOS\server\v18\Source\Source\_Network\Mcl\Include\CMclAutoLock.h
; File C:\IAGOS\server\v18\Source\Source\_Network\Mcl\Include\CMclCritSec.h
; File C:\IAGOS\server\v18\Source\Source\_Network\Net\Include\buffer.h
; File C:\IAGOS\server\v18\Source\Source\_network\net\src\clientsocke.cpp
; File C:\IAGOS\server\v18\Source\Source\_Network\Mcl\Include\CMclCritSec.h
; File C:\IAGOS\server\v18\Source\Source\_network\net\src\clientsocke.cpp
;	COMDAT ?Send@CClientSockE@@UAEXPADKK@Z
_TEXT	SEGMENT
_dwBytes$ = -24						; size = 4
_Lock$ = -20						; size = 4
_dwBufferCount$ = -16					; size = 4
__$EHRec$ = -12						; size = 12
_lpData$ = 8						; size = 4
_dwDataSize$ = 12					; size = 4
_dpidTo$ = 16						; size = 4
?Send@CClientSockE@@UAEXPADKK@Z PROC			; CClientSockE::Send, COMDAT
; _this$ = ecx

; 165  : {

  00000	55		 push	 ebp
  00001	8b ec		 mov	 ebp, esp
  00003	6a ff		 push	 -1
  00005	68 00 00 00 00	 push	 __ehhandler$?Send@CClientSockE@@UAEXPADKK@Z
  0000a	64 a1 00 00 00
	00		 mov	 eax, DWORD PTR fs:0
  00010	50		 push	 eax
  00011	83 ec 0c	 sub	 esp, 12			; 0000000cH
  00014	53		 push	 ebx
  00015	56		 push	 esi
  00016	57		 push	 edi
  00017	a1 00 00 00 00	 mov	 eax, DWORD PTR ___security_cookie
  0001c	33 c5		 xor	 eax, ebp
  0001e	50		 push	 eax
  0001f	8d 45 f4	 lea	 eax, DWORD PTR __$EHRec$[ebp]
  00022	64 a3 00 00 00
	00		 mov	 DWORD PTR fs:0, eax
  00028	8b f9		 mov	 edi, ecx

; 166  : 	ASSERT( m_hSocket != INVALID_SOCKET );
; 167  : 	DWORD dwBufferCount, dwBytes;
; 168  : 
; 169  : 	CMclAutoLock	Lock( m_lspSendBuffer.m_cs );

  0002a	8d 47 5c	 lea	 eax, DWORD PTR [edi+92]
; File C:\IAGOS\server\v18\Source\Source\_Network\Mcl\Include\CMclCritSec.h

; 33   : 		::EnterCriticalSection( &m_CritSec );

  0002d	8d 58 04	 lea	 ebx, DWORD PTR [eax+4]
; File C:\IAGOS\server\v18\Source\Source\_Network\Mcl\Include\CMclAutoLock.h

; 21   : 		m_pcCritSec = &rCMclCritSec;

  00030	89 45 ec	 mov	 DWORD PTR _Lock$[ebp], eax
; File C:\IAGOS\server\v18\Source\Source\_Network\Mcl\Include\CMclCritSec.h

; 33   : 		::EnterCriticalSection( &m_CritSec );

  00033	53		 push	 ebx
  00034	ff 15 00 00 00
	00		 call	 DWORD PTR __imp__EnterCriticalSection@4
; File C:\IAGOS\server\v18\Source\Source\_Network\Net\Include\buffer.h

; 222  : 	{	return( m_uCount == 0 );	}

  0003a	83 7f 58 00	 cmp	 DWORD PTR [edi+88], 0
  0003e	8b 8f 78 04 00
	00		 mov	 ecx, DWORD PTR [edi+1144]
; File C:\IAGOS\server\v18\Source\Source\_network\net\src\clientsocke.cpp

; 171  : 	if( m_lspSendBuffer.IsEmpty() )

  00044	51		 push	 ecx
  00045	ff 75 0c	 push	 DWORD PTR _dwDataSize$[ebp]
  00048	c7 45 fc 00 00
	00 00		 mov	 DWORD PTR __$EHRec$[ebp+8], 0
  0004f	8d 4f 4c	 lea	 ecx, DWORD PTR [edi+76]
  00052	ff 75 08	 push	 DWORD PTR _lpData$[ebp]
  00055	75 6f		 jne	 SHORT $LN2@Send

; 172  : 	{
; 173  : 		m_lspSendBuffer.AddData( (LPBYTE)lpData, dwDataSize, m_nBufferType );

  00057	e8 00 00 00 00	 call	 ?AddData@CBufferQueue@@QAEXPAEKW4BUFFER_TYPE@@@Z ; CBufferQueue::AddData

; 174  : 		m_lspSendBuffer.GetData( m_lpBuffers, &dwBufferCount );

  0005c	8d 45 f0	 lea	 eax, DWORD PTR _dwBufferCount$[ebp]
  0005f	50		 push	 eax
  00060	8d 77 78	 lea	 esi, DWORD PTR [edi+120]
  00063	56		 push	 esi
  00064	8d 4f 4c	 lea	 ecx, DWORD PTR [edi+76]
  00067	e8 00 00 00 00	 call	 ?GetData@CBufferQueue@@QAEXPAU_WSABUF@@PAK@Z ; CBufferQueue::GetData

; 175  : 
; 176  : 		int err;
; 177  : 		memset( (void*)&m_ovSend, 0, sizeof(WSAOVERLAPPED) );

  0006c	c7 47 28 00 00
	00 00		 mov	 DWORD PTR [edi+40], 0
  00073	8d 4f 28	 lea	 ecx, DWORD PTR [edi+40]
  00076	c7 47 2c 00 00
	00 00		 mov	 DWORD PTR [edi+44], 0
  0007d	c7 47 30 00 00
	00 00		 mov	 DWORD PTR [edi+48], 0
  00084	c7 47 34 00 00
	00 00		 mov	 DWORD PTR [edi+52], 0

; 178  : 		m_ovSend.hEvent		= m_hSend;

  0008b	8b 47 40	 mov	 eax, DWORD PTR [edi+64]
  0008e	89 47 38	 mov	 DWORD PTR [edi+56], eax

; 179  : 		InterlockedIncrement( &m_l );

  00091	8d 47 48	 lea	 eax, DWORD PTR [edi+72]
  00094	f0 ff 00	 lock	  inc	 DWORD PTR [eax]

; 180  : 		if( WSASend( GetHandle(), m_lpBuffers, dwBufferCount, &dwBytes, 0, &m_ovSend, NULL ) != 0 && ( err = WSAGetLastError() ) != WSA_IO_PENDING )

  00097	6a 00		 push	 0
  00099	51		 push	 ecx
  0009a	6a 00		 push	 0
  0009c	8d 45 e8	 lea	 eax, DWORD PTR _dwBytes$[ebp]
  0009f	50		 push	 eax
  000a0	ff 75 f0	 push	 DWORD PTR _dwBufferCount$[ebp]
  000a3	56		 push	 esi
  000a4	ff 77 04	 push	 DWORD PTR [edi+4]
  000a7	ff 15 00 00 00
	00		 call	 DWORD PTR __imp__WSASend@28
  000ad	85 c0		 test	 eax, eax
  000af	74 1a		 je	 SHORT $LN3@Send
  000b1	ff 15 00 00 00
	00		 call	 DWORD PTR __imp__WSAGetLastError@0
  000b7	3d e5 03 00 00	 cmp	 eax, 997		; 000003e5H
  000bc	74 0d		 je	 SHORT $LN3@Send

; 181  : 		{
; 182  : 			InterlockedDecrement( &m_l );

  000be	8d 47 48	 lea	 eax, DWORD PTR [edi+72]
  000c1	f0 ff 08	 lock	  dec	 DWORD PTR [eax]

; 183  : //			ASSERT( 0 );
; 184  : 		}
; 185  : 	}

  000c4	eb 05		 jmp	 SHORT $LN3@Send
$LN2@Send:

; 186  : 	else
; 187  : 	{
; 188  : 		m_lspSendBuffer.AddData( (LPBYTE)lpData, dwDataSize, m_nBufferType );

  000c6	e8 00 00 00 00	 call	 ?AddData@CBufferQueue@@QAEXPAEKW4BUFFER_TYPE@@@Z ; CBufferQueue::AddData
$LN3@Send:
; File C:\IAGOS\server\v18\Source\Source\_Network\Mcl\Include\CMclCritSec.h

; 39   : 		::LeaveCriticalSection( &m_CritSec );

  000cb	53		 push	 ebx
  000cc	ff 15 00 00 00
	00		 call	 DWORD PTR __imp__LeaveCriticalSection@4
; File C:\IAGOS\server\v18\Source\Source\_network\net\src\clientsocke.cpp

; 190  : }

  000d2	8b 4d f4	 mov	 ecx, DWORD PTR __$EHRec$[ebp]
  000d5	64 89 0d 00 00
	00 00		 mov	 DWORD PTR fs:0, ecx
  000dc	59		 pop	 ecx
  000dd	5f		 pop	 edi
  000de	5e		 pop	 esi
  000df	5b		 pop	 ebx
  000e0	8b e5		 mov	 esp, ebp
  000e2	5d		 pop	 ebp
  000e3	c2 0c 00	 ret	 12			; 0000000cH
_TEXT	ENDS
;	COMDAT text$x
text$x	SEGMENT
__unwindfunclet$?Send@CClientSockE@@UAEXPADKK@Z$0:
  00000	8d 4d ec	 lea	 ecx, DWORD PTR _Lock$[ebp]
  00003	e9 00 00 00 00	 jmp	 ??1CMclAutoLock@@QAE@XZ	; CMclAutoLock::~CMclAutoLock
  00008	cc		 int	 3
  00009	cc		 int	 3
  0000a	cc		 int	 3
  0000b	cc		 int	 3
  0000c	cc		 int	 3
__ehhandler$?Send@CClientSockE@@UAEXPADKK@Z:
  0000d	90		 npad	 1
  0000e	90		 npad	 1
  0000f	8b 54 24 08	 mov	 edx, DWORD PTR [esp+8]
  00013	8d 42 0c	 lea	 eax, DWORD PTR [edx+12]
  00016	8b 4a e4	 mov	 ecx, DWORD PTR [edx-28]
  00019	33 c8		 xor	 ecx, eax
  0001b	e8 00 00 00 00	 call	 @__security_check_cookie@4
  00020	b8 00 00 00 00	 mov	 eax, OFFSET __ehfuncinfo$?Send@CClientSockE@@UAEXPADKK@Z
  00025	e9 00 00 00 00	 jmp	 ___CxxFrameHandler3
text$x	ENDS
?Send@CClientSockE@@UAEXPADKK@Z ENDP			; CClientSockE::Send
; Function compile flags: /Ogtp
; File C:\IAGOS\server\v18\Source\Source\_network\net\src\clientsocke.cpp
;	COMDAT ?Shutdown@CClientSockE@@UAEHI@Z
_TEXT	SEGMENT
_hSocket$ = 8						; size = 4
?Shutdown@CClientSockE@@UAEHI@Z PROC			; CClientSockE::Shutdown, COMDAT
; _this$ = ecx

; 86   : 	return FALSE;

  00000	33 c0		 xor	 eax, eax

; 87   : }

  00002	c2 04 00	 ret	 4
?Shutdown@CClientSockE@@UAEHI@Z ENDP			; CClientSockE::Shutdown
_TEXT	ENDS
; Function compile flags: /Ogtp
; File C:\IAGOS\server\v18\Source\Source\_network\net\src\clientsocke.cpp
;	COMDAT ?CloseConnection@CClientSockE@@UAEHI@Z
_TEXT	SEGMENT
_hSocket$ = 8						; size = 4
?CloseConnection@CClientSockE@@UAEHI@Z PROC		; CClientSockE::CloseConnection, COMDAT
; _this$ = ecx

; 79   : 	ASSERT( hSocket == m_hSocket );
; 80   : 	Close();

  00000	8b 01		 mov	 eax, DWORD PTR [ecx]
  00002	ff 50 1c	 call	 DWORD PTR [eax+28]

; 81   : 	return( TRUE );

  00005	b8 01 00 00 00	 mov	 eax, 1

; 82   : }

  0000a	c2 04 00	 ret	 4
?CloseConnection@CClientSockE@@UAEHI@Z ENDP		; CClientSockE::CloseConnection
_TEXT	ENDS
; Function compile flags: /Ogtp
; File C:\IAGOS\server\v18\Source\Source\_network\net\src\clientsocke.cpp
;	COMDAT ?Close@CClientSockE@@UAEXXZ
_TEXT	SEGMENT
?Close@CClientSockE@@UAEXXZ PROC			; CClientSockE::Close, COMDAT
; _this$ = ecx

; 71   : {

  00000	56		 push	 esi
  00001	8b f1		 mov	 esi, ecx

; 72   : 	CLOSE_SOCKET( m_hSocket );

  00003	8b 46 04	 mov	 eax, DWORD PTR [esi+4]
  00006	83 f8 ff	 cmp	 eax, -1
  00009	74 19		 je	 SHORT $LN2@Close
  0000b	6a 02		 push	 2
  0000d	50		 push	 eax
  0000e	ff 15 00 00 00
	00		 call	 DWORD PTR __imp__shutdown@8
  00014	ff 76 04	 push	 DWORD PTR [esi+4]
  00017	ff 15 00 00 00
	00		 call	 DWORD PTR __imp__closesocket@4
  0001d	c7 46 04 ff ff
	ff ff		 mov	 DWORD PTR [esi+4], -1
$LN2@Close:

; 73   : 	CLOSE_WSAEVENT( m_hRecv );

  00024	8b 46 3c	 mov	 eax, DWORD PTR [esi+60]
  00027	85 c0		 test	 eax, eax
  00029	74 0e		 je	 SHORT $LN3@Close
  0002b	50		 push	 eax
  0002c	ff 15 00 00 00
	00		 call	 DWORD PTR __imp__WSACloseEvent@4
  00032	c7 46 3c 00 00
	00 00		 mov	 DWORD PTR [esi+60], 0
$LN3@Close:

; 74   : 	CLOSE_WSAEVENT( m_hSend );

  00039	8b 46 40	 mov	 eax, DWORD PTR [esi+64]
  0003c	85 c0		 test	 eax, eax
  0003e	74 0e		 je	 SHORT $LN4@Close
  00040	50		 push	 eax
  00041	ff 15 00 00 00
	00		 call	 DWORD PTR __imp__WSACloseEvent@4
  00047	c7 46 40 00 00
	00 00		 mov	 DWORD PTR [esi+64], 0
$LN4@Close:

; 75   : }

  0004e	5e		 pop	 esi
  0004f	c3		 ret	 0
?Close@CClientSockE@@UAEXXZ ENDP			; CClientSockE::Close
_TEXT	ENDS
; Function compile flags: /Ogtp
; File C:\IAGOS\server\v18\Source\Source\_network\net\src\clientsocke.cpp
;	COMDAT ?Attach@CClientSockE@@UAEXI@Z
_TEXT	SEGMENT
_hSocket$ = 8						; size = 4
?Attach@CClientSockE@@UAEXI@Z PROC			; CClientSockE::Attach, COMDAT
; _this$ = ecx

; 107  : {

  00000	55		 push	 ebp
  00001	8b ec		 mov	 ebp, esp
  00003	56		 push	 esi
  00004	8b f1		 mov	 esi, ecx

; 108  : 	Clear();

  00006	e8 00 00 00 00	 call	 ?Clear@CSock@@QAEXXZ	; CSock::Clear

; 109  : 
; 110  : 	if( m_hRecv == WSA_INVALID_EVENT )

  0000b	83 7e 3c 00	 cmp	 DWORD PTR [esi+60], 0
  0000f	75 09		 jne	 SHORT $LN2@Attach

; 111  : 		m_hRecv		= WSACreateEvent();

  00011	ff 15 00 00 00
	00		 call	 DWORD PTR __imp__WSACreateEvent@0
  00017	89 46 3c	 mov	 DWORD PTR [esi+60], eax
$LN2@Attach:

; 112  : 	if( m_hSend == WSA_INVALID_EVENT )

  0001a	83 7e 40 00	 cmp	 DWORD PTR [esi+64], 0
  0001e	75 09		 jne	 SHORT $LN3@Attach

; 113  : 		m_hSend		= WSACreateEvent();

  00020	ff 15 00 00 00
	00		 call	 DWORD PTR __imp__WSACreateEvent@0
  00026	89 46 40	 mov	 DWORD PTR [esi+64], eax
$LN3@Attach:

; 114  : 
; 115  : 	CSock::Attach( hSocket );

  00029	ff 75 08	 push	 DWORD PTR _hSocket$[ebp]
  0002c	8b ce		 mov	 ecx, esi
  0002e	e8 00 00 00 00	 call	 ?Attach@CSock@@UAEXI@Z	; CSock::Attach
  00033	5e		 pop	 esi

; 116  : }

  00034	5d		 pop	 ebp
  00035	c2 04 00	 ret	 4
?Attach@CClientSockE@@UAEXI@Z ENDP			; CClientSockE::Attach
_TEXT	ENDS
; Function compile flags: /Ogtp
; File C:\IAGOS\server\v18\Source\Source\_network\net\src\clientsocke.cpp
;	COMDAT ?Create@CClientSockE@@UAEHGH@Z
_TEXT	SEGMENT
_uPort$ = 8						; size = 2
_type$ = 12						; size = 4
?Create@CClientSockE@@UAEHGH@Z PROC			; CClientSockE::Create, COMDAT
; _this$ = ecx

; 97   : {

  00000	55		 push	 ebp
  00001	8b ec		 mov	 ebp, esp
  00003	56		 push	 esi
  00004	8b f1		 mov	 esi, ecx

; 98   : 	if( m_hRecv == WSA_INVALID_EVENT )

  00006	83 7e 3c 00	 cmp	 DWORD PTR [esi+60], 0
  0000a	75 09		 jne	 SHORT $LN2@Create

; 99   : 		m_hRecv		= WSACreateEvent();

  0000c	ff 15 00 00 00
	00		 call	 DWORD PTR __imp__WSACreateEvent@0
  00012	89 46 3c	 mov	 DWORD PTR [esi+60], eax
$LN2@Create:

; 100  : 	if( m_hSend == WSA_INVALID_EVENT )

  00015	83 7e 40 00	 cmp	 DWORD PTR [esi+64], 0
  00019	75 09		 jne	 SHORT $LN3@Create

; 101  : 		m_hSend		= WSACreateEvent();

  0001b	ff 15 00 00 00
	00		 call	 DWORD PTR __imp__WSACreateEvent@0
  00021	89 46 40	 mov	 DWORD PTR [esi+64], eax
$LN3@Create:

; 102  : 	
; 103  : 	return CSock::Create( uPort, type );

  00024	ff 75 0c	 push	 DWORD PTR _type$[ebp]
  00027	8b ce		 mov	 ecx, esi
  00029	ff 75 08	 push	 DWORD PTR _uPort$[ebp]
  0002c	e8 00 00 00 00	 call	 ?Create@CSock@@UAEHGH@Z	; CSock::Create
  00031	5e		 pop	 esi

; 104  : }

  00032	5d		 pop	 ebp
  00033	c2 08 00	 ret	 8
?Create@CClientSockE@@UAEHGH@Z ENDP			; CClientSockE::Create
_TEXT	ENDS
; Function compile flags: /Ogtp
; File C:\IAGOS\server\v18\Source\Source\_network\net\src\clientsocke.cpp
; File C:\IAGOS\server\v18\Source\Source\_Network\Net\Include\buffer.h
; File C:\IAGOS\server\v18\Source\Source\_network\net\src\clientsocke.cpp
; File C:\IAGOS\server\v18\Source\Source\_Network\Net\Include\buffer.h
; File C:\IAGOS\server\v18\Source\Source\_network\net\src\clientsocke.cpp
;	COMDAT ?Fetch@CClientSockE@@QAEPAVCBuffer@@K@Z
_TEXT	SEGMENT
$T1 = -8						; size = 4
_this$1$ = -4						; size = 4
_dwBytes$ = 8						; size = 4
_ptr$1$ = 8						; size = 4
?Fetch@CClientSockE@@QAEPAVCBuffer@@K@Z PROC		; CClientSockE::Fetch, COMDAT
; _this$ = ecx

; 241  : {

  00000	55		 push	 ebp
  00001	8b ec		 mov	 ebp, esp
  00003	83 ec 08	 sub	 esp, 8

; 242  : 	m_pRecvBuffer->m_pTail	+=	dwBytes;

  00006	8b 45 08	 mov	 eax, DWORD PTR _dwBytes$[ebp]
  00009	53		 push	 ebx
  0000a	8b d9		 mov	 ebx, ecx
  0000c	56		 push	 esi
  0000d	57		 push	 edi

; 243  : 	ASSERT( m_pRecvBuffer->m_pTail <= m_pRecvBuffer->m_lpBufMax );
; 244  : 	
; 245  : 	int nRemnant;
; 246  : 	LPBYTE ptr	= m_pRecvBuffer->GetReadableBuffer( &nRemnant );
; 247  : 
; 248  : 	CBuffer* pOld	= NULL;

  0000e	33 ff		 xor	 edi, edi
  00010	89 5d fc	 mov	 DWORD PTR _this$1$[ebp], ebx
  00013	8b 53 10	 mov	 edx, DWORD PTR [ebx+16]
  00016	01 82 18 20 00
	00		 add	 DWORD PTR [edx+8216], eax
  0001c	8b 4b 10	 mov	 ecx, DWORD PTR [ebx+16]
; File C:\IAGOS\server\v18\Source\Source\_Network\Net\Include\buffer.h

; 115  : 	*pnBufSize	= (int)( m_pTail - m_pHead );	

  0001f	8b 91 14 20 00
	00		 mov	 edx, DWORD PTR [ecx+8212]
  00025	8b b1 18 20 00
	00		 mov	 esi, DWORD PTR [ecx+8216]
  0002b	2b f2		 sub	 esi, edx
  0002d	89 55 08	 mov	 DWORD PTR _ptr$1$[ebp], edx
; File C:\IAGOS\server\v18\Source\Source\_network\net\src\clientsocke.cpp

; 261  : 		if( nRemnant < (int)( m_pRecvBuffer->GetHeaderLength() ) )

  00030	3b b1 24 20 00
	00		 cmp	 esi, DWORD PTR [ecx+8228]
  00036	7c 32		 jl	 SHORT $LN20@Fetch
$LL2@Fetch:

; 274  : 		}
; 275  : 		else
; 276  : 		{
; 277  : #ifdef __CRC
; 278  : 			if( m_dwReadHeaderSize == HEADERSIZE13 )
; 279  : 			{
; 280  : 				dwCrc	= *(UNALIGNED LPDWORD)( ptr + sizeof(char) );
; 281  : 				dwDataSize	= *(UNALIGNED LPDWORD)( ptr + sizeof(char) + sizeof(DWORD) );
; 282  : 				m_crcRead.Restart();
; 283  : 				m_crcRead.Update( (const byte*)( &dwDataSize ), sizeof(DWORD) );
; 284  : 				m_crcRead.Final( digest );
; 285  : #ifdef __PROTOCOL0910
; 286  : #ifdef __PROTOCOL1021
; 287  : 				if( ~( *(UNALIGNED LPDWORD)digest ^ m_dwProtocolId ) != dwCrc )
; 288  : #else	// __PROTOCOL1021
; 289  : 				if( ( *(UNALIGNED LPDWORD)digest ^ m_dwProtocolId ) != dwCrc )
; 290  : #endif	// __PROTOCOL1021
; 291  : #else	// __PROTOCOL0910
; 292  : 				if( *(UNALIGNED LPDWORD)digest != dwCrc )
; 293  : #endif	// __PROTOCOL0910
; 294  : 				{
; 295  : 					WSASetLastError( ERROR_BAD_NET_NAME );
; 296  : 					return NULL;
; 297  : 				}
; 298  : 				dwCrc	= *(UNALIGNED LPDWORD)( ptr + sizeof(char) + sizeof(DWORD) + sizeof(DWORD) );
; 299  : 				uPacketSize		= m_dwReadHeaderSize + dwDataSize;
; 300  : 			}
; 301  : 			else
; 302  : 			{
; 303  : 				uPacketSize	= m_dwReadHeaderSize + *(UNALIGNED LPDWORD)&ptr[1];
; 304  : 			}
; 305  : #else	// __CRC
; 306  : 			uPacketSize	= m_pRecvBuffer->GetHeaderLength() + m_pRecvBuffer->GetPacketSize( ptr );

  00038	8b 01		 mov	 eax, DWORD PTR [ecx]
  0003a	52		 push	 edx
  0003b	ff 50 04	 call	 DWORD PTR [eax+4]
  0003e	8b 5b 10	 mov	 ebx, DWORD PTR [ebx+16]
  00041	8b bb 24 20 00
	00		 mov	 edi, DWORD PTR [ebx+8228]
  00047	03 f8		 add	 edi, eax

; 307  : #endif	// __CRC
; 308  : 			if( nRemnant < (int)( uPacketSize ) )

  00049	3b f7		 cmp	 esi, edi
  0004b	7c 6b		 jl	 SHORT $LN21@Fetch

; 329  : 				}
; 330  : 
; 331  : 				return pOld;
; 332  : 			}
; 333  : 			else	// completion
; 334  : 			{
; 335  : #ifdef __CRC
; 336  : 				if( m_dwReadHeaderSize == HEADERSIZE13 )
; 337  : 				{
; 338  : 					m_crcRead.Restart();
; 339  : 					m_crcRead.Update( (const byte*)( ptr + m_dwReadHeaderSize ), dwDataSize );
; 340  : 					m_crcRead.Final( digest );
; 341  : #ifdef __PROTOCOL0910
; 342  : #ifdef __PROTOCOL1021
; 343  : 					if( ~( *(UNALIGNED LPDWORD)digest ^ m_dwProtocolId ) != dwCrc )
; 344  : #else	// __PROTOCOL1021
; 345  : 					if( ( *(UNALIGNED LPDWORD)digest ^ m_dwProtocolId ) != dwCrc )
; 346  : #endif	// __PROTOCOL1021
; 347  : #else	// __PROTOCOL0910
; 348  : 					if( *(UNALIGNED LPDWORD)digest != dwCrc )
; 349  : #endif	// __PROTOCOL0910
; 350  : 					{
; 351  : 						WSASetLastError( ERROR_BAD_NET_NAME );
; 352  : 						return NULL;
; 353  : 					}
; 354  : 				}
; 355  : #endif	// __CRC
; 356  : 				m_pRecvBuffer->cb++;

  0004d	ff 43 08	 inc	 DWORD PTR [ebx+8]

; 357  : 				nRemnant	-= ( uPacketSize );

  00050	2b f7		 sub	 esi, edi
  00052	8b 5d fc	 mov	 ebx, DWORD PTR _this$1$[ebp]

; 358  : 				ptr		+= ( uPacketSize );

  00055	8b 55 08	 mov	 edx, DWORD PTR _ptr$1$[ebp]
  00058	03 d7		 add	 edx, edi
  0005a	89 55 08	 mov	 DWORD PTR _ptr$1$[ebp], edx
  0005d	8b 4b 10	 mov	 ecx, DWORD PTR [ebx+16]
  00060	3b b1 24 20 00
	00		 cmp	 esi, DWORD PTR [ecx+8228]
  00066	7d d0		 jge	 SHORT $LL2@Fetch

; 261  : 		if( nRemnant < (int)( m_pRecvBuffer->GetHeaderLength() ) )

  00068	33 ff		 xor	 edi, edi
$LN20@Fetch:

; 262  : #endif	// __CRC
; 263  : 		{
; 264  : 			if( m_pRecvBuffer->cb > 0 ) {

  0006a	83 79 08 00	 cmp	 DWORD PTR [ecx+8], 0
  0006e	76 3d		 jbe	 SHORT $LN6@Fetch

; 265  : 				pOld	= m_pRecvBuffer;
; 266  : 				pOld->m_pTail	-= nRemnant;	// remove remnant from old buffer

  00070	29 b1 18 20 00
	00		 sub	 DWORD PTR [ecx+8216], esi
  00076	8b f9		 mov	 edi, ecx

; 267  : 				m_pRecvBuffer	= CBufferFactory::GetInstance().CreateBuffer( m_nBufferType );

  00078	68 00 20 00 00	 push	 8192			; 00002000H
  0007d	ff b3 78 04 00
	00		 push	 DWORD PTR [ebx+1144]
  00083	e8 00 00 00 00	 call	 ?GetInstance@CBufferFactory@@SAAAV1@XZ ; CBufferFactory::GetInstance
  00088	8b c8		 mov	 ecx, eax
  0008a	e8 00 00 00 00	 call	 ?CreateBuffer@CBufferFactory@@QAEPAVCBuffer@@W4BUFFER_TYPE@@K@Z ; CBufferFactory::CreateBuffer

; 268  : 				ASSERT( m_pRecvBuffer->m_pTail + nRemnant <= m_pRecvBuffer->m_lpBufMax ); 
; 269  : 				memcpy( m_pRecvBuffer->m_pTail, ptr, nRemnant );

  0008f	56		 push	 esi
  00090	ff 75 08	 push	 DWORD PTR _ptr$1$[ebp]
  00093	89 43 10	 mov	 DWORD PTR [ebx+16], eax
  00096	ff b0 18 20 00
	00		 push	 DWORD PTR [eax+8216]
  0009c	e8 00 00 00 00	 call	 _memcpy

; 270  : 
; 271  : 				m_pRecvBuffer->m_pTail	+=	nRemnant;

  000a1	8b 43 10	 mov	 eax, DWORD PTR [ebx+16]
  000a4	83 c4 0c	 add	 esp, 12			; 0000000cH
  000a7	01 b0 18 20 00
	00		 add	 DWORD PTR [eax+8216], esi
$LN6@Fetch:

; 272  : 			}
; 273  : 			return pOld;

  000ad	8b c7		 mov	 eax, edi
$LN1@Fetch:
  000af	5f		 pop	 edi

; 359  : 			}
; 360  : 		}
; 361  : 	}
; 362  : 
; 363  : 	return NULL;
; 364  : }

  000b0	5e		 pop	 esi
  000b1	5b		 pop	 ebx
  000b2	8b e5		 mov	 esp, ebp
  000b4	5d		 pop	 ebp
  000b5	c2 04 00	 ret	 4
$LN21@Fetch:
; File C:\IAGOS\server\v18\Source\Source\_Network\Net\Include\buffer.h

; 99   : 	return (int)( m_lpBufMax - m_lpBufStart );	

  000b8	8b 83 10 20 00
	00		 mov	 eax, DWORD PTR [ebx+8208]
  000be	2b 83 0c 20 00
	00		 sub	 eax, DWORD PTR [ebx+8204]
; File C:\IAGOS\server\v18\Source\Source\_network\net\src\clientsocke.cpp

; 310  : 				if( (int)( uPacketSize ) > m_pRecvBuffer->GetSize() )

  000c4	3b f8		 cmp	 edi, eax
  000c6	7f 0b		 jg	 SHORT $LN32@Fetch

; 311  : 				{
; 312  : 					pOld	= m_pRecvBuffer;
; 313  : 					m_pRecvBuffer	= CBufferFactory::GetInstance().CreateBuffer( m_nBufferType, uPacketSize );
; 314  : 				}
; 315  : 				else
; 316  : 				{
; 317  : 					if( m_pRecvBuffer->cb > 0 )

  000c8	83 7b 08 00	 cmp	 DWORD PTR [ebx+8], 0
  000cc	76 55		 jbe	 SHORT $LN24@Fetch

; 318  : 					{
; 319  : 						pOld	= m_pRecvBuffer;
; 320  : 						m_pRecvBuffer	= CBufferFactory::GetInstance().CreateBuffer( m_nBufferType );

  000ce	bf 00 20 00 00	 mov	 edi, 8192		; 00002000H
$LN32@Fetch:

; 321  : 					}
; 322  : 				}
; 323  : 
; 324  : 				if( pOld )

  000d3	8b 45 fc	 mov	 eax, DWORD PTR _this$1$[ebp]
  000d6	8b 80 78 04 00
	00		 mov	 eax, DWORD PTR [eax+1144]
  000dc	89 45 f8	 mov	 DWORD PTR $T1[ebp], eax
  000df	e8 00 00 00 00	 call	 ?GetInstance@CBufferFactory@@SAAAV1@XZ ; CBufferFactory::GetInstance
  000e4	57		 push	 edi
  000e5	ff 75 f8	 push	 DWORD PTR $T1[ebp]
  000e8	8b c8		 mov	 ecx, eax
  000ea	e8 00 00 00 00	 call	 ?CreateBuffer@CBufferFactory@@QAEPAVCBuffer@@W4BUFFER_TYPE@@K@Z ; CBufferFactory::CreateBuffer
  000ef	8b 7d fc	 mov	 edi, DWORD PTR _this$1$[ebp]
  000f2	8b c8		 mov	 ecx, eax
  000f4	8b c3		 mov	 eax, ebx
  000f6	89 4f 10	 mov	 DWORD PTR [edi+16], ecx
  000f9	85 db		 test	 ebx, ebx
  000fb	74 b2		 je	 SHORT $LN1@Fetch

; 325  : 				{
; 326  : 					ASSERT( m_pRecvBuffer->m_pTail + nRemnant <= m_pRecvBuffer->m_lpBufMax );
; 327  : 					memcpy( m_pRecvBuffer->m_pTail, ptr, nRemnant );

  000fd	56		 push	 esi
  000fe	ff 75 08	 push	 DWORD PTR _ptr$1$[ebp]
  00101	ff b1 18 20 00
	00		 push	 DWORD PTR [ecx+8216]
  00107	e8 00 00 00 00	 call	 _memcpy

; 328  : 					m_pRecvBuffer->m_pTail	+=	nRemnant;

  0010c	8b 47 10	 mov	 eax, DWORD PTR [edi+16]
  0010f	83 c4 0c	 add	 esp, 12			; 0000000cH
  00112	01 b0 18 20 00
	00		 add	 DWORD PTR [eax+8216], esi
  00118	8b c3		 mov	 eax, ebx
  0011a	5f		 pop	 edi

; 359  : 			}
; 360  : 		}
; 361  : 	}
; 362  : 
; 363  : 	return NULL;
; 364  : }

  0011b	5e		 pop	 esi
  0011c	5b		 pop	 ebx
  0011d	8b e5		 mov	 esp, ebp
  0011f	5d		 pop	 ebp
  00120	c2 04 00	 ret	 4
$LN24@Fetch:
  00123	5f		 pop	 edi
  00124	5e		 pop	 esi
  00125	33 c0		 xor	 eax, eax
  00127	5b		 pop	 ebx
  00128	8b e5		 mov	 esp, ebp
  0012a	5d		 pop	 ebp
  0012b	c2 04 00	 ret	 4
?Fetch@CClientSockE@@QAEPAVCBuffer@@K@Z ENDP		; CClientSockE::Fetch
_TEXT	ENDS
; Function compile flags: /Ogtp
; File C:\IAGOS\server\v18\Source\Source\_network\net\src\clientsocke.cpp
; File C:\IAGOS\server\v18\Source\Source\_Network\Mcl\Include\CMclCritSec.h
; File C:\IAGOS\server\v18\Source\Source\_Network\Mcl\Include\CMclAutoLock.h
; File C:\IAGOS\server\v18\Source\Source\_Network\Mcl\Include\CMclCritSec.h
; File C:\IAGOS\server\v18\Source\Source\_network\net\src\clientsocke.cpp
; File C:\IAGOS\server\v18\Source\Source\_Network\Net\Include\buffer.h
; File C:\IAGOS\server\v18\Source\Source\_network\net\src\clientsocke.cpp
; File C:\IAGOS\server\v18\Source\Source\_Network\Mcl\Include\CMclCritSec.h
; File C:\IAGOS\server\v18\Source\Source\_network\net\src\clientsocke.cpp
;	COMDAT ?SendRemnant@CClientSockE@@QAEHK@Z
_TEXT	SEGMENT
_Lock$ = -20						; size = 4
_dwBufferCount$ = -16					; size = 4
__$EHRec$ = -12						; size = 12
_dwBytes$ = 8						; size = 4
?SendRemnant@CClientSockE@@QAEHK@Z PROC			; CClientSockE::SendRemnant, COMDAT
; _this$ = ecx

; 214  : {

  00000	55		 push	 ebp
  00001	8b ec		 mov	 ebp, esp
  00003	6a ff		 push	 -1
  00005	68 00 00 00 00	 push	 __ehhandler$?SendRemnant@CClientSockE@@QAEHK@Z
  0000a	64 a1 00 00 00
	00		 mov	 eax, DWORD PTR fs:0
  00010	50		 push	 eax
  00011	83 ec 08	 sub	 esp, 8
  00014	53		 push	 ebx
  00015	56		 push	 esi
  00016	57		 push	 edi
  00017	a1 00 00 00 00	 mov	 eax, DWORD PTR ___security_cookie
  0001c	33 c5		 xor	 eax, ebp
  0001e	50		 push	 eax
  0001f	8d 45 f4	 lea	 eax, DWORD PTR __$EHRec$[ebp]
  00022	64 a3 00 00 00
	00		 mov	 DWORD PTR fs:0, eax
  00028	8b f9		 mov	 edi, ecx

; 215  : 	ASSERT( m_hSocket != INVALID_SOCKET );
; 216  : 	DWORD dwBufferCount;
; 217  : 	
; 218  : 	CMclAutoLock	Lock( m_lspSendBuffer.m_cs );

  0002a	8d 47 5c	 lea	 eax, DWORD PTR [edi+92]
; File C:\IAGOS\server\v18\Source\Source\_Network\Mcl\Include\CMclCritSec.h

; 33   : 		::EnterCriticalSection( &m_CritSec );

  0002d	8d 58 04	 lea	 ebx, DWORD PTR [eax+4]
; File C:\IAGOS\server\v18\Source\Source\_Network\Mcl\Include\CMclAutoLock.h

; 21   : 		m_pcCritSec = &rCMclCritSec;

  00030	89 45 ec	 mov	 DWORD PTR _Lock$[ebp], eax
; File C:\IAGOS\server\v18\Source\Source\_Network\Mcl\Include\CMclCritSec.h

; 33   : 		::EnterCriticalSection( &m_CritSec );

  00033	53		 push	 ebx
  00034	ff 15 00 00 00
	00		 call	 DWORD PTR __imp__EnterCriticalSection@4
; File C:\IAGOS\server\v18\Source\Source\_network\net\src\clientsocke.cpp

; 220  : 	m_lspSendBuffer.RemoveData( dwBytes );

  0003a	ff 75 08	 push	 DWORD PTR _dwBytes$[ebp]
  0003d	8d 4f 4c	 lea	 ecx, DWORD PTR [edi+76]
  00040	c7 45 fc 00 00
	00 00		 mov	 DWORD PTR __$EHRec$[ebp+8], 0
  00047	e8 00 00 00 00	 call	 ?RemoveData@CBufferQueue@@QAEXK@Z ; CBufferQueue::RemoveData
; File C:\IAGOS\server\v18\Source\Source\_Network\Net\Include\buffer.h

; 222  : 	{	return( m_uCount == 0 );	}

  0004c	83 7f 58 00	 cmp	 DWORD PTR [edi+88], 0
; File C:\IAGOS\server\v18\Source\Source\_network\net\src\clientsocke.cpp

; 221  : 	if( m_lspSendBuffer.IsEmpty() )

  00050	75 04		 jne	 SHORT $LN2@SendRemnan
  00052	33 f6		 xor	 esi, esi
  00054	eb 5f		 jmp	 SHORT $LN6@SendRemnan
$LN2@SendRemnan:

; 222  : 	{
; 223  : 		InterlockedDecrement( &m_l );
; 224  : 		return 0;
; 225  : 	}
; 226  : 	m_lspSendBuffer.GetData( m_lpBuffers, &dwBufferCount );

  00056	8d 45 f0	 lea	 eax, DWORD PTR _dwBufferCount$[ebp]
  00059	50		 push	 eax
  0005a	8d 77 78	 lea	 esi, DWORD PTR [edi+120]
  0005d	56		 push	 esi
  0005e	8d 4f 4c	 lea	 ecx, DWORD PTR [edi+76]
  00061	e8 00 00 00 00	 call	 ?GetData@CBufferQueue@@QAEXPAU_WSABUF@@PAK@Z ; CBufferQueue::GetData

; 227  : 
; 228  : 	int err;
; 229  : 	memset( (void*)&m_ovSend, 0, sizeof(WSAOVERLAPPED) );

  00066	c7 47 28 00 00
	00 00		 mov	 DWORD PTR [edi+40], 0
  0006d	c7 47 2c 00 00
	00 00		 mov	 DWORD PTR [edi+44], 0
  00074	c7 47 30 00 00
	00 00		 mov	 DWORD PTR [edi+48], 0
  0007b	c7 47 34 00 00
	00 00		 mov	 DWORD PTR [edi+52], 0

; 230  : 	m_ovSend.hEvent		= m_hSend;

  00082	8b 47 40	 mov	 eax, DWORD PTR [edi+64]

; 231  : 	if( WSASend( GetHandle(), m_lpBuffers, dwBufferCount, &dwBytes, 0, &m_ovSend, NULL ) != 0 && ( err = WSAGetLastError() ) != WSA_IO_PENDING )

  00085	6a 00		 push	 0
  00087	89 47 38	 mov	 DWORD PTR [edi+56], eax
  0008a	8d 47 28	 lea	 eax, DWORD PTR [edi+40]
  0008d	50		 push	 eax
  0008e	6a 00		 push	 0
  00090	8d 45 08	 lea	 eax, DWORD PTR _dwBytes$[ebp]
  00093	50		 push	 eax
  00094	ff 75 f0	 push	 DWORD PTR _dwBufferCount$[ebp]
  00097	56		 push	 esi
  00098	ff 77 04	 push	 DWORD PTR [edi+4]
  0009b	ff 15 00 00 00
	00		 call	 DWORD PTR __imp__WSASend@28
  000a1	85 c0		 test	 eax, eax
  000a3	74 16		 je	 SHORT $LN3@SendRemnan
  000a5	ff 15 00 00 00
	00		 call	 DWORD PTR __imp__WSAGetLastError@0
  000ab	8b f0		 mov	 esi, eax
  000ad	81 fe e5 03 00
	00		 cmp	 esi, 997		; 000003e5H
  000b3	74 06		 je	 SHORT $LN3@SendRemnan
$LN6@SendRemnan:
  000b5	f0 ff 4f 48	 lock	  dec	 DWORD PTR [edi+72]
  000b9	eb 02		 jmp	 SHORT $LN7@SendRemnan
$LN3@SendRemnan:

; 237  : 	return 0;

  000bb	33 f6		 xor	 esi, esi
$LN7@SendRemnan:
; File C:\IAGOS\server\v18\Source\Source\_Network\Mcl\Include\CMclCritSec.h

; 39   : 		::LeaveCriticalSection( &m_CritSec );

  000bd	53		 push	 ebx
  000be	ff 15 00 00 00
	00		 call	 DWORD PTR __imp__LeaveCriticalSection@4
; File C:\IAGOS\server\v18\Source\Source\_network\net\src\clientsocke.cpp

; 237  : 	return 0;

  000c4	8b c6		 mov	 eax, esi

; 238  : }

  000c6	8b 4d f4	 mov	 ecx, DWORD PTR __$EHRec$[ebp]
  000c9	64 89 0d 00 00
	00 00		 mov	 DWORD PTR fs:0, ecx
  000d0	59		 pop	 ecx
  000d1	5f		 pop	 edi
  000d2	5e		 pop	 esi
  000d3	5b		 pop	 ebx
  000d4	8b e5		 mov	 esp, ebp
  000d6	5d		 pop	 ebp
  000d7	c2 04 00	 ret	 4
_TEXT	ENDS
;	COMDAT text$x
text$x	SEGMENT
__unwindfunclet$?SendRemnant@CClientSockE@@QAEHK@Z$0:
  00000	8d 4d ec	 lea	 ecx, DWORD PTR _Lock$[ebp]
  00003	e9 00 00 00 00	 jmp	 ??1CMclAutoLock@@QAE@XZ	; CMclAutoLock::~CMclAutoLock
  00008	cc		 int	 3
  00009	cc		 int	 3
  0000a	cc		 int	 3
  0000b	cc		 int	 3
  0000c	cc		 int	 3
__ehhandler$?SendRemnant@CClientSockE@@QAEHK@Z:
  0000d	90		 npad	 1
  0000e	90		 npad	 1
  0000f	8b 54 24 08	 mov	 edx, DWORD PTR [esp+8]
  00013	8d 42 0c	 lea	 eax, DWORD PTR [edx+12]
  00016	8b 4a e8	 mov	 ecx, DWORD PTR [edx-24]
  00019	33 c8		 xor	 ecx, eax
  0001b	e8 00 00 00 00	 call	 @__security_check_cookie@4
  00020	b8 00 00 00 00	 mov	 eax, OFFSET __ehfuncinfo$?SendRemnant@CClientSockE@@QAEHK@Z
  00025	e9 00 00 00 00	 jmp	 ___CxxFrameHandler3
text$x	ENDS
?SendRemnant@CClientSockE@@QAEHK@Z ENDP			; CClientSockE::SendRemnant
; Function compile flags: /Ogtp
; File C:\IAGOS\server\v18\Source\Source\_network\net\src\clientsocke.cpp
; File C:\IAGOS\server\v18\Source\Source\_Network\Net\Include\buffer.h
; File C:\IAGOS\server\v18\Source\Source\_network\net\src\clientsocke.cpp
;	COMDAT ?Recv@CClientSockE@@QAEHXZ
_TEXT	SEGMENT
_buffer$ = -16						; size = 8
_dwBytesRecvd$ = -8					; size = 4
_dwFlags$ = -4						; size = 4
?Recv@CClientSockE@@QAEHXZ PROC				; CClientSockE::Recv, COMDAT
; _this$ = ecx

; 193  : {

  00000	55		 push	 ebp
  00001	8b ec		 mov	 ebp, esp
  00003	83 ec 10	 sub	 esp, 16			; 00000010H
  00006	56		 push	 esi
  00007	8b f1		 mov	 esi, ecx

; 194  : 	ASSERT( m_hSocket != INVALID_SOCKET );
; 195  : 	DWORD dwBytesRecvd, dwFlags	= 0;

  00009	c7 45 fc 00 00
	00 00		 mov	 DWORD PTR _dwFlags$[ebp], 0

; 202  : 
; 203  : 	int err;
; 204  : 	if( WSARecv( GetHandle(), &buffer, (DWORD)1, &dwBytesRecvd, &dwFlags, &m_ovRecv, NULL ) != 0 && ( err = WSAGetLastError() ) != WSA_IO_PENDING )

  00010	6a 00		 push	 0
  00012	8b 56 10	 mov	 edx, DWORD PTR [esi+16]
; File C:\IAGOS\server\v18\Source\Source\_Network\Net\Include\buffer.h

; 104  : 	*pnBufSize	= (int)( m_lpBufMax - m_pTail );	

  00015	8b 82 10 20 00
	00		 mov	 eax, DWORD PTR [edx+8208]
  0001b	2b 82 18 20 00
	00		 sub	 eax, DWORD PTR [edx+8216]
  00021	89 45 f0	 mov	 DWORD PTR _buffer$[ebp], eax
; File C:\IAGOS\server\v18\Source\Source\_network\net\src\clientsocke.cpp

; 198  : 	buffer.buf	= (char*)m_pRecvBuffer->GetWritableBuffer( (int*)&buffer.len );

  00024	8b 82 18 20 00
	00		 mov	 eax, DWORD PTR [edx+8216]
  0002a	89 45 f4	 mov	 DWORD PTR _buffer$[ebp+4], eax

; 199  : 
; 200  : 	memset( (void*)&m_ovRecv, 0, sizeof(WSAOVERLAPPED) );

  0002d	c7 46 14 00 00
	00 00		 mov	 DWORD PTR [esi+20], 0
  00034	c7 46 18 00 00
	00 00		 mov	 DWORD PTR [esi+24], 0
  0003b	c7 46 1c 00 00
	00 00		 mov	 DWORD PTR [esi+28], 0
  00042	c7 46 20 00 00
	00 00		 mov	 DWORD PTR [esi+32], 0

; 201  : 	m_ovRecv.hEvent		= m_hRecv;

  00049	8b 46 3c	 mov	 eax, DWORD PTR [esi+60]
  0004c	89 46 24	 mov	 DWORD PTR [esi+36], eax
  0004f	8d 46 14	 lea	 eax, DWORD PTR [esi+20]

; 202  : 
; 203  : 	int err;
; 204  : 	if( WSARecv( GetHandle(), &buffer, (DWORD)1, &dwBytesRecvd, &dwFlags, &m_ovRecv, NULL ) != 0 && ( err = WSAGetLastError() ) != WSA_IO_PENDING )

  00052	50		 push	 eax
  00053	8d 45 fc	 lea	 eax, DWORD PTR _dwFlags$[ebp]
  00056	50		 push	 eax
  00057	8d 45 f8	 lea	 eax, DWORD PTR _dwBytesRecvd$[ebp]
  0005a	50		 push	 eax
  0005b	6a 01		 push	 1
  0005d	8d 45 f0	 lea	 eax, DWORD PTR _buffer$[ebp]
  00060	50		 push	 eax
  00061	ff 76 04	 push	 DWORD PTR [esi+4]
  00064	ff 15 00 00 00
	00		 call	 DWORD PTR __imp__WSARecv@28
  0006a	85 c0		 test	 eax, eax
  0006c	74 16		 je	 SHORT $LN2@Recv
  0006e	ff 15 00 00 00
	00		 call	 DWORD PTR __imp__WSAGetLastError@0
  00074	3d e5 03 00 00	 cmp	 eax, 997		; 000003e5H
  00079	74 09		 je	 SHORT $LN2@Recv

; 205  : 	{
; 206  : 		TRACE( "I/o error, close socket %d, %x //REF:%d\n", GetHandle(), this, m_l-1 );
; 207  : 		InterlockedDecrement( &m_l );

  0007b	f0 ff 4e 48	 lock	  dec	 DWORD PTR [esi+72]
  0007f	5e		 pop	 esi

; 211  : }

  00080	8b e5		 mov	 esp, ebp
  00082	5d		 pop	 ebp
  00083	c3		 ret	 0
$LN2@Recv:

; 208  : 		return err;
; 209  : 	}
; 210  : 	return 0;

  00084	33 c0		 xor	 eax, eax
  00086	5e		 pop	 esi

; 211  : }

  00087	8b e5		 mov	 esp, ebp
  00089	5d		 pop	 ebp
  0008a	c3		 ret	 0
?Recv@CClientSockE@@QAEHXZ ENDP				; CClientSockE::Recv
_TEXT	ENDS
; Function compile flags: /Ogtp
; File C:\IAGOS\server\v18\Source\Source\_network\net\src\clientsocke.cpp
;	COMDAT ?Connect@CClientSockE@@QAEHPADG@Z
_TEXT	SEGMENT
_sin$ = -20						; size = 16
__$ArrayPad$ = -4					; size = 4
_lpAddr$ = 8						; size = 4
_uPort$ = 12						; size = 2
?Connect@CClientSockE@@QAEHPADG@Z PROC			; CClientSockE::Connect, COMDAT
; _this$ = ecx

; 119  : {

  00000	55		 push	 ebp
  00001	8b ec		 mov	 ebp, esp
  00003	83 ec 14	 sub	 esp, 20			; 00000014H
  00006	a1 00 00 00 00	 mov	 eax, DWORD PTR ___security_cookie
  0000b	33 c5		 xor	 eax, ebp
  0000d	89 45 fc	 mov	 DWORD PTR __$ArrayPad$[ebp], eax
  00010	56		 push	 esi
  00011	8b 75 08	 mov	 esi, DWORD PTR _lpAddr$[ebp]
  00014	57		 push	 edi
  00015	8b f9		 mov	 edi, ecx

; 120  : 	if( m_hSocket == INVALID_SOCKET )

  00017	83 7f 04 ff	 cmp	 DWORD PTR [edi+4], -1
  0001b	0f 84 84 00 00
	00		 je	 $LN7@Connect

; 121  : 	{
; 122  : 		TRACE( "Creation needed\n" );
; 123  : 		return FALSE;
; 124  : 	}
; 125  : 
; 126  : 	SOCKADDR_IN sin;
; 127  : 	memset( &sin, 0, sizeof(sin) );
; 128  : 	sin.sin_family	= AF_INET;

  00021	0f 57 c0	 xorps	 xmm0, xmm0
  00024	b8 02 00 00 00	 mov	 eax, 2
  00029	0f 11 45 ec	 movups	 XMMWORD PTR _sin$[ebp], xmm0

; 129  : 	sin.sin_addr.s_addr		= inet_addr( lpAddr );

  0002d	56		 push	 esi
  0002e	66 89 45 ec	 mov	 WORD PTR _sin$[ebp], ax
  00032	ff 15 00 00 00
	00		 call	 DWORD PTR __imp__inet_addr@4
  00038	89 45 f0	 mov	 DWORD PTR _sin$[ebp+4], eax
  0003b	83 f8 ff	 cmp	 eax, -1

; 130  : 
; 131  : 	if( sin.sin_addr.s_addr == INADDR_NONE )

  0003e	75 15		 jne	 SHORT $LN5@Connect

; 132  : 	{
; 133  : 		LPHOSTENT lphost;
; 134  : 		lphost	= gethostbyname( lpAddr );

  00040	56		 push	 esi
  00041	ff 15 00 00 00
	00		 call	 DWORD PTR __imp__gethostbyname@4

; 135  : 		if( lphost )

  00047	85 c0		 test	 eax, eax
  00049	74 4f		 je	 SHORT $LN4@Connect

; 136  : 			sin.sin_addr.s_addr		= ((LPIN_ADDR)lphost->h_addr)->s_addr;

  0004b	8b 40 0c	 mov	 eax, DWORD PTR [eax+12]
  0004e	8b 00		 mov	 eax, DWORD PTR [eax]
  00050	8b 00		 mov	 eax, DWORD PTR [eax]
  00052	89 45 f0	 mov	 DWORD PTR _sin$[ebp+4], eax
$LN5@Connect:

; 144  : 			return FALSE;
; 145  : 		}
; 146  : 	}
; 147  : 
; 148  : 	sin.sin_port = htons( uPort );

  00055	ff 75 0c	 push	 DWORD PTR _uPort$[ebp]
  00058	ff 15 00 00 00
	00		 call	 DWORD PTR __imp__htons@4
  0005e	66 89 45 ee	 mov	 WORD PTR _sin$[ebp+2], ax

; 149  : 
; 150  : 	if( connect( m_hSocket, (LPSOCKADDR) &sin, sizeof(sin) ) == SOCKET_ERROR )

  00062	8d 45 ec	 lea	 eax, DWORD PTR _sin$[ebp]
  00065	6a 10		 push	 16			; 00000010H
  00067	50		 push	 eax
  00068	ff 77 04	 push	 DWORD PTR [edi+4]
  0006b	ff 15 00 00 00
	00		 call	 DWORD PTR __imp__connect@12
  00071	83 f8 ff	 cmp	 eax, -1
  00074	75 0d		 jne	 SHORT $LN6@Connect

; 151  : 	{
; 152  : 		int	err;
; 153  : 		if( ( err = WSAGetLastError() ) == WSAEWOULDBLOCK )

  00076	ff 15 00 00 00
	00		 call	 DWORD PTR __imp__WSAGetLastError@0
  0007c	3d 33 27 00 00	 cmp	 eax, 10035		; 00002733H
  00081	75 22		 jne	 SHORT $LN7@Connect
$LN6@Connect:
  00083	5f		 pop	 edi

; 154  : 			return TRUE;
; 155  : 		#ifdef __INFO_SOCKLIB0516
; 156  : 			m_dwDbgInfo = err;
; 157  : 		#endif
; 158  : 		TRACE( "Can't connect with error %d\n", err );
; 159  : 		return FALSE;
; 160  : 	}
; 161  : 	return TRUE;

  00084	b8 01 00 00 00	 mov	 eax, 1

; 162  : }

  00089	5e		 pop	 esi
  0008a	8b 4d fc	 mov	 ecx, DWORD PTR __$ArrayPad$[ebp]
  0008d	33 cd		 xor	 ecx, ebp
  0008f	e8 00 00 00 00	 call	 @__security_check_cookie@4
  00094	8b e5		 mov	 esp, ebp
  00096	5d		 pop	 ebp
  00097	c2 08 00	 ret	 8
$LN4@Connect:

; 137  : 		else
; 138  : 		{
; 139  : 			#ifdef __INFO_SOCKLIB0516
; 140  : 				m_dwDbgInfo = WSAEINVAL;
; 141  : 			#endif
; 142  : 
; 143  : 			WSASetLastError( WSAEINVAL );

  0009a	68 26 27 00 00	 push	 10022			; 00002726H
  0009f	ff 15 00 00 00
	00		 call	 DWORD PTR __imp__WSASetLastError@4
$LN7@Connect:

; 162  : }

  000a5	8b 4d fc	 mov	 ecx, DWORD PTR __$ArrayPad$[ebp]
  000a8	33 c0		 xor	 eax, eax
  000aa	5f		 pop	 edi
  000ab	33 cd		 xor	 ecx, ebp
  000ad	5e		 pop	 esi
  000ae	e8 00 00 00 00	 call	 @__security_check_cookie@4
  000b3	8b e5		 mov	 esp, ebp
  000b5	5d		 pop	 ebp
  000b6	c2 08 00	 ret	 8
?Connect@CClientSockE@@QAEHPADG@Z ENDP			; CClientSockE::Connect
_TEXT	ENDS
; Function compile flags: /Ogtp
; File C:\IAGOS\server\v18\Source\Source\_network\net\src\clientsocke.cpp
;	COMDAT ?CreateBuffer@CClientSockE@@QAEPAVCBuffer@@XZ
_TEXT	SEGMENT
?CreateBuffer@CClientSockE@@QAEPAVCBuffer@@XZ PROC	; CClientSockE::CreateBuffer, COMDAT
; _this$ = ecx

; 386  : 	return CBufferFactory::GetInstance().CreateBuffer( m_nBufferType );

  00000	68 00 20 00 00	 push	 8192			; 00002000H
  00005	ff b1 78 04 00
	00		 push	 DWORD PTR [ecx+1144]
  0000b	e8 00 00 00 00	 call	 ?GetInstance@CBufferFactory@@SAAAV1@XZ ; CBufferFactory::GetInstance
  00010	8b c8		 mov	 ecx, eax
  00012	e8 00 00 00 00	 call	 ?CreateBuffer@CBufferFactory@@QAEPAVCBuffer@@W4BUFFER_TYPE@@K@Z ; CBufferFactory::CreateBuffer

; 387  : }

  00017	c3		 ret	 0
?CreateBuffer@CClientSockE@@QAEPAVCBuffer@@XZ ENDP	; CClientSockE::CreateBuffer
_TEXT	ENDS
; Function compile flags: /Ogtp
; File C:\IAGOS\server\v18\Source\Source\_network\net\src\clientsocke.cpp
;	COMDAT ??1CClientSockE@@UAE@XZ
_TEXT	SEGMENT
??1CClientSockE@@UAE@XZ PROC				; CClientSockE::~CClientSockE, COMDAT
; _this$ = ecx

; 66   : {

  00000	56		 push	 esi
  00001	8b f1		 mov	 esi, ecx
  00003	c7 06 00 00 00
	00		 mov	 DWORD PTR [esi], OFFSET ??_7CClientSockE@@6B@

; 67   : 	Close();

  00009	e8 00 00 00 00	 call	 ?Close@CClientSockE@@UAEXXZ ; CClientSockE::Close

; 68   : }

  0000e	8d 4e 4c	 lea	 ecx, DWORD PTR [esi+76]
  00011	e8 00 00 00 00	 call	 ??1CBufferQueue@@UAE@XZ	; CBufferQueue::~CBufferQueue
  00016	8b ce		 mov	 ecx, esi
  00018	5e		 pop	 esi
  00019	e9 00 00 00 00	 jmp	 ??1CSock@@UAE@XZ	; CSock::~CSock
??1CClientSockE@@UAE@XZ ENDP				; CClientSockE::~CClientSockE
_TEXT	ENDS
; Function compile flags: /Ogtp
; File C:\IAGOS\server\v18\Source\Source\_network\net\src\clientsocke.cpp
;	COMDAT ??0CClientSockE@@QAE@W4BUFFER_TYPE@@@Z
_TEXT	SEGMENT
_this$ = -16						; size = 4
__$EHRec$ = -12						; size = 12
_type$ = 8						; size = 4
??0CClientSockE@@QAE@W4BUFFER_TYPE@@@Z PROC		; CClientSockE::CClientSockE, COMDAT
; _this$ = ecx

; 27   : {

  00000	55		 push	 ebp
  00001	8b ec		 mov	 ebp, esp
  00003	6a ff		 push	 -1
  00005	68 00 00 00 00	 push	 __ehhandler$??0CClientSockE@@QAE@W4BUFFER_TYPE@@@Z
  0000a	64 a1 00 00 00
	00		 mov	 eax, DWORD PTR fs:0
  00010	50		 push	 eax
  00011	51		 push	 ecx
  00012	56		 push	 esi
  00013	57		 push	 edi
  00014	a1 00 00 00 00	 mov	 eax, DWORD PTR ___security_cookie
  00019	33 c5		 xor	 eax, ebp
  0001b	50		 push	 eax
  0001c	8d 45 f4	 lea	 eax, DWORD PTR __$EHRec$[ebp]
  0001f	64 a3 00 00 00
	00		 mov	 DWORD PTR fs:0, eax
  00025	8b f9		 mov	 edi, ecx
  00027	89 7d f0	 mov	 DWORD PTR _this$[ebp], edi
  0002a	e8 00 00 00 00	 call	 ??0CSock@@QAE@XZ	; CSock::CSock
  0002f	8d 4f 4c	 lea	 ecx, DWORD PTR [edi+76]
  00032	c7 45 fc 00 00
	00 00		 mov	 DWORD PTR __$EHRec$[ebp+8], 0
  00039	c7 07 00 00 00
	00		 mov	 DWORD PTR [edi], OFFSET ??_7CClientSockE@@6B@
  0003f	e8 00 00 00 00	 call	 ??0CBufferQueue@@QAE@XZ	; CBufferQueue::CBufferQueue

; 28   : #ifdef __CRC
; 29   : 	m_hRecv		= m_hSend	= WSA_INVALID_EVENT;
; 30   : 	m_hWorker	= (HANDLE)NULL;
; 31   : 	m_l	= 0;
; 32   : 	m_pRecvBuffer	= CBufferFactory::GetInstance().CreateBuffer( BUFFER_TYPE_5BYTE );
; 33   : 
; 34   : 	if( CSock::crcRead & dwcrc )
; 35   : 		m_dwReadHeaderSize	= HEADERSIZE13;
; 36   : 	else
; 37   : 		m_dwReadHeaderSize	= HEADERSIZE5;
; 38   : 
; 39   : #ifdef __PROTOCOL0910
; 40   : 	m_dwProtocolId	= 0;
; 41   : #endif	// __PROTOCOL0910
; 42   : 
; 43   : 	if( CSock::crcWrite & dwcrc )
; 44   : #ifdef __PROTOCOL0910
; 45   : 		m_lspSendBuffer.crc( &m_crcWrite, &m_dwProtocolId );
; 46   : #else	// __PROTOCOL0910
; 47   : 		m_lspSendBuffer.crc( &m_crcWrite );
; 48   : #endif	// __PROTOCOL0910
; 49   : 
; 50   : #else	// __CRC
; 51   : 	m_hRecv		= m_hSend	= WSA_INVALID_EVENT;
; 52   : 	m_hWorker	= (HANDLE)NULL;
; 53   : 	m_l	= 0;
; 54   : 	m_pRecvBuffer	= CBufferFactory::GetInstance().CreateBuffer( type );

  00044	8b 75 08	 mov	 esi, DWORD PTR _type$[ebp]
  00047	68 00 20 00 00	 push	 8192			; 00002000H
  0004c	c7 47 40 00 00
	00 00		 mov	 DWORD PTR [edi+64], 0
  00053	c7 47 3c 00 00
	00 00		 mov	 DWORD PTR [edi+60], 0
  0005a	c7 47 44 00 00
	00 00		 mov	 DWORD PTR [edi+68], 0
  00061	56		 push	 esi
  00062	c6 45 fc 01	 mov	 BYTE PTR __$EHRec$[ebp+8], 1
  00066	c7 47 48 00 00
	00 00		 mov	 DWORD PTR [edi+72], 0
  0006d	e8 00 00 00 00	 call	 ?GetInstance@CBufferFactory@@SAAAV1@XZ ; CBufferFactory::GetInstance
  00072	8b c8		 mov	 ecx, eax
  00074	e8 00 00 00 00	 call	 ?CreateBuffer@CBufferFactory@@QAEPAVCBuffer@@W4BUFFER_TYPE@@K@Z ; CBufferFactory::CreateBuffer
  00079	89 47 10	 mov	 DWORD PTR [edi+16], eax

; 55   : 
; 56   : 	m_nBufferType = type;
; 57   : 
; 58   : #endif	// __CRC
; 59   : 
; 60   : #ifdef __INFO_SOCKLIB0516
; 61   : 	m_dwDbgInfo		= 0;
; 62   : #endif	// __INFO_SOCKLIB0516
; 63   : }

  0007c	8b c7		 mov	 eax, edi
  0007e	89 b7 78 04 00
	00		 mov	 DWORD PTR [edi+1144], esi
  00084	8b 4d f4	 mov	 ecx, DWORD PTR __$EHRec$[ebp]
  00087	64 89 0d 00 00
	00 00		 mov	 DWORD PTR fs:0, ecx
  0008e	59		 pop	 ecx
  0008f	5f		 pop	 edi
  00090	5e		 pop	 esi
  00091	8b e5		 mov	 esp, ebp
  00093	5d		 pop	 ebp
  00094	c2 04 00	 ret	 4
_TEXT	ENDS
;	COMDAT text$x
text$x	SEGMENT
__unwindfunclet$??0CClientSockE@@QAE@W4BUFFER_TYPE@@@Z$0:
  00000	8b 4d f0	 mov	 ecx, DWORD PTR _this$[ebp]
  00003	e9 00 00 00 00	 jmp	 ??1CSock@@UAE@XZ	; CSock::~CSock
__unwindfunclet$??0CClientSockE@@QAE@W4BUFFER_TYPE@@@Z$1:
  00008	8b 4d f0	 mov	 ecx, DWORD PTR _this$[ebp]
  0000b	83 c1 4c	 add	 ecx, 76			; 0000004cH
  0000e	e9 00 00 00 00	 jmp	 ??1CBufferQueue@@UAE@XZ	; CBufferQueue::~CBufferQueue
  00013	cc		 int	 3
  00014	cc		 int	 3
  00015	cc		 int	 3
  00016	cc		 int	 3
  00017	cc		 int	 3
__ehhandler$??0CClientSockE@@QAE@W4BUFFER_TYPE@@@Z:
  00018	90		 npad	 1
  00019	90		 npad	 1
  0001a	8b 54 24 08	 mov	 edx, DWORD PTR [esp+8]
  0001e	8d 42 0c	 lea	 eax, DWORD PTR [edx+12]
  00021	8b 4a f0	 mov	 ecx, DWORD PTR [edx-16]
  00024	33 c8		 xor	 ecx, eax
  00026	e8 00 00 00 00	 call	 @__security_check_cookie@4
  0002b	b8 00 00 00 00	 mov	 eax, OFFSET __ehfuncinfo$??0CClientSockE@@QAE@W4BUFFER_TYPE@@@Z
  00030	e9 00 00 00 00	 jmp	 ___CxxFrameHandler3
text$x	ENDS
??0CClientSockE@@QAE@W4BUFFER_TYPE@@@Z ENDP		; CClientSockE::CClientSockE
; Function compile flags: /Ogtp
; File C:\Program Files\Microsoft Visual Studio\2022\Professional\VC\Tools\MSVC\14.44.35207\include\list
; File C:\Program Files\Microsoft Visual Studio\2022\Professional\VC\Tools\MSVC\14.44.35207\include\xmemory
; File C:\Program Files\Microsoft Visual Studio\2022\Professional\VC\Tools\MSVC\14.44.35207\include\list
; File C:\Program Files\Microsoft Visual Studio\2022\Professional\VC\Tools\MSVC\14.44.35207\include\xmemory
; File C:\Program Files\Microsoft Visual Studio\2022\Professional\VC\Tools\MSVC\14.44.35207\include\list
;	COMDAT ??1?$list@PAXV?$allocator@PAX@std@@@std@@QAE@XZ
_TEXT	SEGMENT
??1?$list@PAXV?$allocator@PAX@std@@@std@@QAE@XZ PROC	; std::list<void *,std::allocator<void *> >::~list<void *,std::allocator<void *> >, COMDAT
; _this$ = ecx

; 1060 :     ~list() noexcept {

  00000	57		 push	 edi
  00001	8b f9		 mov	 edi, ecx

; 1518 :         _Node::_Free_non_head(_Al, _My_data._Myhead);

  00003	8b 17		 mov	 edx, DWORD PTR [edi]

; 324  :         _Head->_Prev->_Next = nullptr;

  00005	8b 42 04	 mov	 eax, DWORD PTR [edx+4]
  00008	c7 00 00 00 00
	00		 mov	 DWORD PTR [eax], 0

; 325  : 
; 326  :         auto _Pnode = _Head->_Next;

  0000e	8b 02		 mov	 eax, DWORD PTR [edx]

; 327  :         for (_Nodeptr _Pnext; _Pnode; _Pnode = _Pnext) {

  00010	85 c0		 test	 eax, eax
  00012	74 15		 je	 SHORT $LN57@list
  00014	56		 push	 esi
$LL10@list:

; 328  :             _Pnext = _Pnode->_Next;

  00015	8b 30		 mov	 esi, DWORD PTR [eax]
; File C:\Program Files\Microsoft Visual Studio\2022\Professional\VC\Tools\MSVC\14.44.35207\include\xmemory

; 289  :         ::operator delete(_Ptr, _Bytes);

  00017	6a 0c		 push	 12			; 0000000cH
  00019	50		 push	 eax
  0001a	e8 00 00 00 00	 call	 ??3@YAXPAXI@Z		; operator delete
  0001f	83 c4 08	 add	 esp, 8
; File C:\Program Files\Microsoft Visual Studio\2022\Professional\VC\Tools\MSVC\14.44.35207\include\list

; 327  :         for (_Nodeptr _Pnext; _Pnode; _Pnode = _Pnext) {

  00022	8b c6		 mov	 eax, esi
  00024	85 f6		 test	 esi, esi
  00026	75 ed		 jne	 SHORT $LL10@list
  00028	5e		 pop	 esi
$LN57@list:
; File C:\Program Files\Microsoft Visual Studio\2022\Professional\VC\Tools\MSVC\14.44.35207\include\xmemory

; 289  :         ::operator delete(_Ptr, _Bytes);

  00029	6a 0c		 push	 12			; 0000000cH
  0002b	ff 37		 push	 DWORD PTR [edi]
  0002d	e8 00 00 00 00	 call	 ??3@YAXPAXI@Z		; operator delete
  00032	83 c4 08	 add	 esp, 8
  00035	5f		 pop	 edi
; File C:\Program Files\Microsoft Visual Studio\2022\Professional\VC\Tools\MSVC\14.44.35207\include\list

; 1066 :     }

  00036	c3		 ret	 0
??1?$list@PAXV?$allocator@PAX@std@@@std@@QAE@XZ ENDP	; std::list<void *,std::allocator<void *> >::~list<void *,std::allocator<void *> >
_TEXT	ENDS
; Function compile flags: /Ogtp
; File C:\IAGOS\server\v18\Source\Source\_Network\Net\Include\sock.h
;	COMDAT ?Get@CSock@@UAEPAV1@I@Z
_TEXT	SEGMENT
_hSocket$ = 8						; size = 4
?Get@CSock@@UAEPAV1@I@Z PROC				; CSock::Get, COMDAT
; _this$ = ecx

; 51   : inline CSock* CSock::Get( SOCKET hSocket )	{	return( m_hSocket == hSocket ? this : NULL );	}

  00000	55		 push	 ebp
  00001	8b ec		 mov	 ebp, esp
  00003	8b 51 04	 mov	 edx, DWORD PTR [ecx+4]
  00006	33 c0		 xor	 eax, eax
  00008	3b 55 08	 cmp	 edx, DWORD PTR _hSocket$[ebp]
  0000b	0f 44 c1	 cmove	 eax, ecx
  0000e	5d		 pop	 ebp
  0000f	c2 04 00	 ret	 4
?Get@CSock@@UAEPAV1@I@Z ENDP				; CSock::Get
_TEXT	ENDS
; Function compile flags: /Ogtp
; File C:\IAGOS\server\v18\Source\Source\_Network\Net\Include\sock.h
;	COMDAT ?GetPeerAddr@CSock@@UAEKK@Z
_TEXT	SEGMENT
_dpid$ = 8						; size = 4
?GetPeerAddr@CSock@@UAEKK@Z PROC			; CSock::GetPeerAddr, COMDAT
; _this$ = ecx

; 37   : 	virtual	DWORD	GetPeerAddr( DPID dpid ) { return 0; }

  00000	33 c0		 xor	 eax, eax
  00002	c2 04 00	 ret	 4
?GetPeerAddr@CSock@@UAEKK@Z ENDP			; CSock::GetPeerAddr
_TEXT	ENDS
; Function compile flags: /Ogtp
; File C:\IAGOS\server\v18\Source\Source\_Network\Mcl\Include\CMclAutoLock.h
; File C:\IAGOS\server\v18\Source\Source\_Network\Mcl\Include\CMclCritSec.h
; File C:\IAGOS\server\v18\Source\Source\_Network\Mcl\Include\CMclAutoLock.h
;	COMDAT ??1CMclAutoLock@@QAE@XZ
_TEXT	SEGMENT
??1CMclAutoLock@@QAE@XZ PROC				; CMclAutoLock::~CMclAutoLock, COMDAT
; _this$ = ecx
; File C:\IAGOS\server\v18\Source\Source\_Network\Mcl\Include\CMclCritSec.h

; 39   : 		::LeaveCriticalSection( &m_CritSec );

  00000	8b 01		 mov	 eax, DWORD PTR [ecx]
  00002	83 c0 04	 add	 eax, 4
  00005	50		 push	 eax
  00006	ff 15 00 00 00
	00		 call	 DWORD PTR __imp__LeaveCriticalSection@4
; File C:\IAGOS\server\v18\Source\Source\_Network\Mcl\Include\CMclAutoLock.h

; 29   : 	}

  0000c	c3		 ret	 0
??1CMclAutoLock@@QAE@XZ ENDP				; CMclAutoLock::~CMclAutoLock
_TEXT	ENDS
; Function compile flags: /Ogtp
; File C:\Program Files\Microsoft Visual Studio\2022\Professional\VC\Tools\MSVC\14.44.35207\include\xmemory
;	COMDAT ?_Throw_bad_array_new_length@std@@YAXXZ
_TEXT	SEGMENT
$T1 = -12						; size = 12
?_Throw_bad_array_new_length@std@@YAXXZ PROC		; std::_Throw_bad_array_new_length, COMDAT

; 107  : [[noreturn]] inline void _Throw_bad_array_new_length() {

  00000	55		 push	 ebp
  00001	8b ec		 mov	 ebp, esp
  00003	83 ec 0c	 sub	 esp, 12			; 0000000cH

; 108  :     _THROW(bad_array_new_length{});

  00006	8d 4d f4	 lea	 ecx, DWORD PTR $T1[ebp]
  00009	e8 00 00 00 00	 call	 ??0bad_array_new_length@std@@QAE@XZ ; std::bad_array_new_length::bad_array_new_length
  0000e	68 00 00 00 00	 push	 OFFSET __TI3?AVbad_array_new_length@std@@
  00013	8d 45 f4	 lea	 eax, DWORD PTR $T1[ebp]
  00016	50		 push	 eax
  00017	e8 00 00 00 00	 call	 __CxxThrowException@8
$LN3@Throw_bad_:
  0001c	cc		 int	 3
?_Throw_bad_array_new_length@std@@YAXXZ ENDP		; std::_Throw_bad_array_new_length
_TEXT	ENDS
; Function compile flags: /Ogtp
; File C:\Program Files\Microsoft Visual Studio\2022\Professional\VC\Tools\MSVC\14.44.35207\include\vcruntime_exception.h
;	COMDAT ??_Gbad_array_new_length@std@@UAEPAXI@Z
_TEXT	SEGMENT
___flags$ = 8						; size = 4
??_Gbad_array_new_length@std@@UAEPAXI@Z PROC		; std::bad_array_new_length::`scalar deleting destructor', COMDAT
; _this$ = ecx
  00000	55		 push	 ebp
  00001	8b ec		 mov	 ebp, esp

; 90   :     {

  00003	56		 push	 esi
  00004	8b f1		 mov	 esi, ecx

; 91   :         __std_exception_destroy(&_Data);

  00006	8d 46 04	 lea	 eax, DWORD PTR [esi+4]
  00009	c7 06 00 00 00
	00		 mov	 DWORD PTR [esi], OFFSET ??_7exception@std@@6B@
  0000f	50		 push	 eax
  00010	e8 00 00 00 00	 call	 ___std_exception_destroy
  00015	83 c4 04	 add	 esp, 4
  00018	f6 45 08 01	 test	 BYTE PTR ___flags$[ebp], 1
  0001c	74 0b		 je	 SHORT $LN18@scalar
  0001e	6a 0c		 push	 12			; 0000000cH
  00020	56		 push	 esi
  00021	e8 00 00 00 00	 call	 ??3@YAXPAXI@Z		; operator delete
  00026	83 c4 08	 add	 esp, 8
$LN18@scalar:
  00029	8b c6		 mov	 eax, esi
  0002b	5e		 pop	 esi
  0002c	5d		 pop	 ebp
  0002d	c2 04 00	 ret	 4
??_Gbad_array_new_length@std@@UAEPAXI@Z ENDP		; std::bad_array_new_length::`scalar deleting destructor'
_TEXT	ENDS
; Function compile flags: /Ogtp
; File C:\Program Files\Microsoft Visual Studio\2022\Professional\VC\Tools\MSVC\14.44.35207\include\vcruntime_exception.h
;	COMDAT ??0bad_array_new_length@std@@QAE@ABV01@@Z
_TEXT	SEGMENT
___that$ = 8						; size = 4
??0bad_array_new_length@std@@QAE@ABV01@@Z PROC		; std::bad_array_new_length::bad_array_new_length, COMDAT
; _this$ = ecx
  00000	55		 push	 ebp
  00001	8b ec		 mov	 ebp, esp

; 73   :     {

  00003	56		 push	 esi
  00004	8b f1		 mov	 esi, ecx
  00006	0f 57 c0	 xorps	 xmm0, xmm0

; 72   :         : _Data()

  00009	8d 46 04	 lea	 eax, DWORD PTR [esi+4]

; 74   :         __std_exception_copy(&_Other._Data, &_Data);

  0000c	50		 push	 eax
  0000d	c7 06 00 00 00
	00		 mov	 DWORD PTR [esi], OFFSET ??_7exception@std@@6B@
  00013	66 0f d6 00	 movq	 QWORD PTR [eax], xmm0
  00017	8b 45 08	 mov	 eax, DWORD PTR ___that$[ebp]
  0001a	83 c0 04	 add	 eax, 4
  0001d	50		 push	 eax
  0001e	e8 00 00 00 00	 call	 ___std_exception_copy
  00023	83 c4 08	 add	 esp, 8
  00026	c7 06 00 00 00
	00		 mov	 DWORD PTR [esi], OFFSET ??_7bad_array_new_length@std@@6B@
  0002c	8b c6		 mov	 eax, esi
  0002e	5e		 pop	 esi
  0002f	5d		 pop	 ebp
  00030	c2 04 00	 ret	 4
??0bad_array_new_length@std@@QAE@ABV01@@Z ENDP		; std::bad_array_new_length::bad_array_new_length
_TEXT	ENDS
; Function compile flags: /Ogtp
; File C:\Program Files\Microsoft Visual Studio\2022\Professional\VC\Tools\MSVC\14.44.35207\include\vcruntime_exception.h
;	COMDAT ??1bad_array_new_length@std@@UAE@XZ
_TEXT	SEGMENT
??1bad_array_new_length@std@@UAE@XZ PROC		; std::bad_array_new_length::~bad_array_new_length, COMDAT
; _this$ = ecx

; 91   :         __std_exception_destroy(&_Data);

  00000	8d 41 04	 lea	 eax, DWORD PTR [ecx+4]
  00003	c7 01 00 00 00
	00		 mov	 DWORD PTR [ecx], OFFSET ??_7exception@std@@6B@
  00009	50		 push	 eax
  0000a	e8 00 00 00 00	 call	 ___std_exception_destroy
  0000f	59		 pop	 ecx
  00010	c3		 ret	 0
??1bad_array_new_length@std@@UAE@XZ ENDP		; std::bad_array_new_length::~bad_array_new_length
_TEXT	ENDS
; Function compile flags: /Ogtp
; File C:\Program Files\Microsoft Visual Studio\2022\Professional\VC\Tools\MSVC\14.44.35207\include\vcruntime_exception.h
;	COMDAT ??0bad_array_new_length@std@@QAE@XZ
_TEXT	SEGMENT
??0bad_array_new_length@std@@QAE@XZ PROC		; std::bad_array_new_length::bad_array_new_length, COMDAT
; _this$ = ecx

; 144  :     {

  00000	0f 57 c0	 xorps	 xmm0, xmm0

; 145  :     }

  00003	8b c1		 mov	 eax, ecx

; 66   :         : _Data()

  00005	66 0f d6 41 04	 movq	 QWORD PTR [ecx+4], xmm0

; 67   :     {
; 68   :         _Data._What = _Message;

  0000a	c7 41 04 00 00
	00 00		 mov	 DWORD PTR [ecx+4], OFFSET ??_C@_0BF@KINCDENJ@bad?5array?5new?5length@

; 144  :     {

  00011	c7 01 00 00 00
	00		 mov	 DWORD PTR [ecx], OFFSET ??_7bad_array_new_length@std@@6B@

; 145  :     }

  00017	c3		 ret	 0
??0bad_array_new_length@std@@QAE@XZ ENDP		; std::bad_array_new_length::bad_array_new_length
_TEXT	ENDS
; Function compile flags: /Ogtp
; File C:\Program Files\Microsoft Visual Studio\2022\Professional\VC\Tools\MSVC\14.44.35207\include\vcruntime_exception.h
;	COMDAT ??_Gbad_alloc@std@@UAEPAXI@Z
_TEXT	SEGMENT
___flags$ = 8						; size = 4
??_Gbad_alloc@std@@UAEPAXI@Z PROC			; std::bad_alloc::`scalar deleting destructor', COMDAT
; _this$ = ecx
  00000	55		 push	 ebp
  00001	8b ec		 mov	 ebp, esp

; 90   :     {

  00003	56		 push	 esi
  00004	8b f1		 mov	 esi, ecx

; 91   :         __std_exception_destroy(&_Data);

  00006	8d 46 04	 lea	 eax, DWORD PTR [esi+4]
  00009	c7 06 00 00 00
	00		 mov	 DWORD PTR [esi], OFFSET ??_7exception@std@@6B@
  0000f	50		 push	 eax
  00010	e8 00 00 00 00	 call	 ___std_exception_destroy
  00015	83 c4 04	 add	 esp, 4
  00018	f6 45 08 01	 test	 BYTE PTR ___flags$[ebp], 1
  0001c	74 0b		 je	 SHORT $LN13@scalar
  0001e	6a 0c		 push	 12			; 0000000cH
  00020	56		 push	 esi
  00021	e8 00 00 00 00	 call	 ??3@YAXPAXI@Z		; operator delete
  00026	83 c4 08	 add	 esp, 8
$LN13@scalar:
  00029	8b c6		 mov	 eax, esi
  0002b	5e		 pop	 esi
  0002c	5d		 pop	 ebp
  0002d	c2 04 00	 ret	 4
??_Gbad_alloc@std@@UAEPAXI@Z ENDP			; std::bad_alloc::`scalar deleting destructor'
_TEXT	ENDS
; Function compile flags: /Ogtp
; File C:\Program Files\Microsoft Visual Studio\2022\Professional\VC\Tools\MSVC\14.44.35207\include\vcruntime_exception.h
;	COMDAT ??0bad_alloc@std@@QAE@ABV01@@Z
_TEXT	SEGMENT
___that$ = 8						; size = 4
??0bad_alloc@std@@QAE@ABV01@@Z PROC			; std::bad_alloc::bad_alloc, COMDAT
; _this$ = ecx
  00000	55		 push	 ebp
  00001	8b ec		 mov	 ebp, esp

; 73   :     {

  00003	56		 push	 esi
  00004	8b f1		 mov	 esi, ecx
  00006	0f 57 c0	 xorps	 xmm0, xmm0

; 72   :         : _Data()

  00009	8d 46 04	 lea	 eax, DWORD PTR [esi+4]

; 74   :         __std_exception_copy(&_Other._Data, &_Data);

  0000c	50		 push	 eax
  0000d	c7 06 00 00 00
	00		 mov	 DWORD PTR [esi], OFFSET ??_7exception@std@@6B@
  00013	66 0f d6 00	 movq	 QWORD PTR [eax], xmm0
  00017	8b 45 08	 mov	 eax, DWORD PTR ___that$[ebp]
  0001a	83 c0 04	 add	 eax, 4
  0001d	50		 push	 eax
  0001e	e8 00 00 00 00	 call	 ___std_exception_copy
  00023	83 c4 08	 add	 esp, 8
  00026	c7 06 00 00 00
	00		 mov	 DWORD PTR [esi], OFFSET ??_7bad_alloc@std@@6B@
  0002c	8b c6		 mov	 eax, esi
  0002e	5e		 pop	 esi
  0002f	5d		 pop	 ebp
  00030	c2 04 00	 ret	 4
??0bad_alloc@std@@QAE@ABV01@@Z ENDP			; std::bad_alloc::bad_alloc
_TEXT	ENDS
; Function compile flags: /Ogtp
; File C:\Program Files\Microsoft Visual Studio\2022\Professional\VC\Tools\MSVC\14.44.35207\include\vcruntime_exception.h
;	COMDAT ??_Gexception@std@@UAEPAXI@Z
_TEXT	SEGMENT
___flags$ = 8						; size = 4
??_Gexception@std@@UAEPAXI@Z PROC			; std::exception::`scalar deleting destructor', COMDAT
; _this$ = ecx
  00000	55		 push	 ebp
  00001	8b ec		 mov	 ebp, esp

; 90   :     {

  00003	56		 push	 esi
  00004	8b f1		 mov	 esi, ecx

; 91   :         __std_exception_destroy(&_Data);

  00006	8d 46 04	 lea	 eax, DWORD PTR [esi+4]
  00009	c7 06 00 00 00
	00		 mov	 DWORD PTR [esi], OFFSET ??_7exception@std@@6B@
  0000f	50		 push	 eax
  00010	e8 00 00 00 00	 call	 ___std_exception_destroy
  00015	83 c4 04	 add	 esp, 4
  00018	f6 45 08 01	 test	 BYTE PTR ___flags$[ebp], 1
  0001c	74 0b		 je	 SHORT $LN8@scalar
  0001e	6a 0c		 push	 12			; 0000000cH
  00020	56		 push	 esi
  00021	e8 00 00 00 00	 call	 ??3@YAXPAXI@Z		; operator delete
  00026	83 c4 08	 add	 esp, 8
$LN8@scalar:
  00029	8b c6		 mov	 eax, esi
  0002b	5e		 pop	 esi
  0002c	5d		 pop	 ebp
  0002d	c2 04 00	 ret	 4
??_Gexception@std@@UAEPAXI@Z ENDP			; std::exception::`scalar deleting destructor'
_TEXT	ENDS
; Function compile flags: /Ogtp
; File C:\Program Files\Microsoft Visual Studio\2022\Professional\VC\Tools\MSVC\14.44.35207\include\vcruntime_exception.h
;	COMDAT ?what@exception@std@@UBEPBDXZ
_TEXT	SEGMENT
?what@exception@std@@UBEPBDXZ PROC			; std::exception::what, COMDAT
; _this$ = ecx

; 96   :         return _Data._What ? _Data._What : "Unknown exception";

  00000	8b 49 04	 mov	 ecx, DWORD PTR [ecx+4]
  00003	b8 00 00 00 00	 mov	 eax, OFFSET ??_C@_0BC@EOODALEL@Unknown?5exception@
  00008	85 c9		 test	 ecx, ecx
  0000a	0f 45 c1	 cmovne	 eax, ecx

; 97   :     }

  0000d	c3		 ret	 0
?what@exception@std@@UBEPBDXZ ENDP			; std::exception::what
_TEXT	ENDS
; Function compile flags: /Ogtp
; File C:\Program Files\Microsoft Visual Studio\2022\Professional\VC\Tools\MSVC\14.44.35207\include\vcruntime_exception.h
;	COMDAT ??1exception@std@@UAE@XZ
_TEXT	SEGMENT
??1exception@std@@UAE@XZ PROC				; std::exception::~exception, COMDAT
; _this$ = ecx

; 91   :         __std_exception_destroy(&_Data);

  00000	8d 41 04	 lea	 eax, DWORD PTR [ecx+4]
  00003	c7 01 00 00 00
	00		 mov	 DWORD PTR [ecx], OFFSET ??_7exception@std@@6B@
  00009	50		 push	 eax
  0000a	e8 00 00 00 00	 call	 ___std_exception_destroy
  0000f	59		 pop	 ecx

; 92   :     }

  00010	c3		 ret	 0
??1exception@std@@UAE@XZ ENDP				; std::exception::~exception
_TEXT	ENDS
; Function compile flags: /Ogtp
; File C:\Program Files\Microsoft Visual Studio\2022\Professional\VC\Tools\MSVC\14.44.35207\include\vcruntime_exception.h
;	COMDAT ??0exception@std@@QAE@ABV01@@Z
_TEXT	SEGMENT
__Other$ = 8						; size = 4
??0exception@std@@QAE@ABV01@@Z PROC			; std::exception::exception, COMDAT
; _this$ = ecx

; 73   :     {

  00000	55		 push	 ebp
  00001	8b ec		 mov	 ebp, esp
  00003	56		 push	 esi
  00004	8b f1		 mov	 esi, ecx
  00006	0f 57 c0	 xorps	 xmm0, xmm0
  00009	8d 46 04	 lea	 eax, DWORD PTR [esi+4]

; 74   :         __std_exception_copy(&_Other._Data, &_Data);

  0000c	50		 push	 eax
  0000d	c7 06 00 00 00
	00		 mov	 DWORD PTR [esi], OFFSET ??_7exception@std@@6B@
  00013	66 0f d6 00	 movq	 QWORD PTR [eax], xmm0
  00017	8b 45 08	 mov	 eax, DWORD PTR __Other$[ebp]
  0001a	83 c0 04	 add	 eax, 4
  0001d	50		 push	 eax
  0001e	e8 00 00 00 00	 call	 ___std_exception_copy
  00023	83 c4 08	 add	 esp, 8

; 75   :     }

  00026	8b c6		 mov	 eax, esi
  00028	5e		 pop	 esi
  00029	5d		 pop	 ebp
  0002a	c2 04 00	 ret	 4
??0exception@std@@QAE@ABV01@@Z ENDP			; std::exception::exception
_TEXT	ENDS
; Function compile flags: /Ogtp
; File C:\Program Files (x86)\Windows Kits\10\Include\10.0.26100.0\ucrt\stdio.h
;	COMDAT _sprintf
_TEXT	SEGMENT
__Buffer$ = 8						; size = 4
__Format$ = 12						; size = 4
_sprintf PROC						; COMDAT

; 1771 :     {

  00000	55		 push	 ebp
  00001	8b ec		 mov	 ebp, esp

; 1392 :         int const _Result = __stdio_common_vsprintf(

  00003	8d 45 10	 lea	 eax, DWORD PTR __Format$[ebp+4]
  00006	50		 push	 eax
  00007	6a 00		 push	 0
  00009	ff 75 0c	 push	 DWORD PTR __Format$[ebp]
  0000c	6a ff		 push	 -1
  0000e	ff 75 08	 push	 DWORD PTR __Buffer$[ebp]
  00011	e8 00 00 00 00	 call	 ___local_stdio_printf_options
  00016	8b 08		 mov	 ecx, DWORD PTR [eax]
  00018	ff 70 04	 push	 DWORD PTR [eax+4]
  0001b	83 c9 01	 or	 ecx, 1
  0001e	51		 push	 ecx
  0001f	e8 00 00 00 00	 call	 ___stdio_common_vsprintf

; 1393 :             _CRT_INTERNAL_LOCAL_PRINTF_OPTIONS | _CRT_INTERNAL_PRINTF_LEGACY_VSPRINTF_NULL_TERMINATION,
; 1394 :             _Buffer, _BufferCount, _Format, _Locale, _ArgList);
; 1395 : 
; 1396 :         return _Result < 0 ? -1 : _Result;

  00024	83 c9 ff	 or	 ecx, -1
  00027	83 c4 1c	 add	 esp, 28			; 0000001cH
  0002a	85 c0		 test	 eax, eax
  0002c	0f 48 c1	 cmovs	 eax, ecx

; 1772 :         int _Result;
; 1773 :         va_list _ArgList;
; 1774 :         __crt_va_start(_ArgList, _Format);
; 1775 : 
; 1776 :         _Result = _vsprintf_l(_Buffer, _Format, NULL, _ArgList);
; 1777 : 
; 1778 :         __crt_va_end(_ArgList);
; 1779 :         return _Result;
; 1780 :     }

  0002f	5d		 pop	 ebp
  00030	c3		 ret	 0
_sprintf ENDP
_TEXT	ENDS
; Function compile flags: /Ogtp
; File C:\Program Files (x86)\Windows Kits\10\Include\10.0.26100.0\ucrt\corecrt_stdio_config.h
;	COMDAT ___local_stdio_printf_options
_TEXT	SEGMENT
___local_stdio_printf_options PROC			; COMDAT

; 91   :         static unsigned __int64 _OptionsStorage;
; 92   :         return &_OptionsStorage;

  00000	b8 00 00 00 00	 mov	 eax, OFFSET ?_OptionsStorage@?1??__local_stdio_printf_options@@9@4_KA ; `__local_stdio_printf_options'::`2'::_OptionsStorage

; 93   :     }

  00005	c3		 ret	 0
___local_stdio_printf_options ENDP
_TEXT	ENDS
; Function compile flags: /Ogtp
; File C:\IAGOS\server\v18\Source\Source\_network\net\src\clientsocke.cpp
;	COMDAT ?__empty_global_delete@@YAXPAXI@Z
_TEXT	SEGMENT
___formal$ = 8						; size = 4
___formal$ = 12						; size = 4
?__empty_global_delete@@YAXPAXI@Z PROC			; __empty_global_delete, COMDAT

  00000	c2 00 00	 ret	 0
?__empty_global_delete@@YAXPAXI@Z ENDP			; __empty_global_delete
_TEXT	ENDS
; Function compile flags: /Ogtp
; File C:\IAGOS\server\v18\Source\Source\_network\net\src\clientsocke.cpp
;	COMDAT ?__empty_global_delete@@YAXPAX@Z
_TEXT	SEGMENT
___formal$ = 8						; size = 4
?__empty_global_delete@@YAXPAX@Z PROC			; __empty_global_delete, COMDAT

  00000	c2 00 00	 ret	 0
?__empty_global_delete@@YAXPAX@Z ENDP			; __empty_global_delete
_TEXT	ENDS
END
