; Listing generated by Microsoft (R) Optimizing Compiler Version 19.44.35225.0 

	TITLE	C:\IAGOS\server\v18\Source\Output\DatabaseServer\Release\couplehelper.obj
	.686P
	.XMM
	include listing.inc
	.model	flat

INCLUDELIB LIBCMT
INCLUDELIB OLDNAMES

PUBLIC	?__empty_global_delete@@YAXPAX@Z		; __empty_global_delete
PUBLIC	?__empty_global_delete@@YAXPAXI@Z		; __empty_global_delete
PUBLIC	___local_stdio_printf_options
PUBLIC	_sprintf
PUBLIC	??0exception@std@@QAE@ABV01@@Z			; std::exception::exception
PUBLIC	??1exception@std@@UAE@XZ			; std::exception::~exception
PUBLIC	?what@exception@std@@UBEPBDXZ			; std::exception::what
PUBLIC	??_Gexception@std@@UAEPAXI@Z			; std::exception::`scalar deleting destructor'
PUBLIC	??0bad_alloc@std@@QAE@ABV01@@Z			; std::bad_alloc::bad_alloc
PUBLIC	??_Gbad_alloc@std@@UAEPAXI@Z			; std::bad_alloc::`scalar deleting destructor'
PUBLIC	??0bad_array_new_length@std@@QAE@XZ		; std::bad_array_new_length::bad_array_new_length
PUBLIC	??1bad_array_new_length@std@@UAE@XZ		; std::bad_array_new_length::~bad_array_new_length
PUBLIC	??0bad_array_new_length@std@@QAE@ABV01@@Z	; std::bad_array_new_length::bad_array_new_length
PUBLIC	??_Gbad_array_new_length@std@@UAEPAXI@Z		; std::bad_array_new_length::`scalar deleting destructor'
PUBLIC	?_Throw_bad_array_new_length@std@@YAXXZ		; std::_Throw_bad_array_new_length
PUBLIC	?_Throw_tree_length_error@std@@YAXXZ		; std::_Throw_tree_length_error
PUBLIC	??1CMclAutoLock@@QAE@XZ				; CMclAutoLock::~CMclAutoLock
PUBLIC	??$_Allocate_manually_vector_aligned@U_Default_allocate_traits@std@@@std@@YAPAXI@Z ; std::_Allocate_manually_vector_aligned<std::_Default_allocate_traits>
PUBLIC	??0CCoupleController@@QAE@PAVCCoupleHelper@@@Z	; CCoupleController::CCoupleController
PUBLIC	??1CCoupleController@@UAE@XZ			; CCoupleController::~CCoupleController
PUBLIC	?Restore@CCoupleController@@QAEHXZ		; CCoupleController::Restore
PUBLIC	?Propose@CCoupleController@@QAEHKJ@Z		; CCoupleController::Propose
PUBLIC	?DeletePropose@CCoupleController@@QAEHJ@Z	; CCoupleController::DeletePropose
PUBLIC	?Couple@CCoupleController@@QAEHKK@Z		; CCoupleController::Couple
PUBLIC	?Decouple@CCoupleController@@QAEHK@Z		; CCoupleController::Decouple
PUBLIC	?AddExperience@CCoupleController@@QAEHKH@Z	; CCoupleController::AddExperience
PUBLIC	?Handler@CCoupleController@@UAEXPAUtagDB_OVERLAPPED_PLUS@@K@Z ; CCoupleController::Handler
PUBLIC	?OnTimer@CCoupleController@@UAEXXZ		; CCoupleController::OnTimer
PUBLIC	??_GCCoupleController@@UAEPAXI@Z		; CCoupleController::`scalar deleting destructor'
PUBLIC	??0CCoupleHelper@@AAE@XZ			; CCoupleHelper::CCoupleHelper
PUBLIC	??1CCoupleHelper@@UAE@XZ			; CCoupleHelper::~CCoupleHelper
PUBLIC	?Instance@CCoupleHelper@@SAPAV1@XZ		; CCoupleHelper::Instance
PUBLIC	?Clear@CCoupleHelper@@QAEXXZ			; CCoupleHelper::Clear
PUBLIC	?Serialize@CCoupleHelper@@QAEXAAVCAr@@@Z	; CCoupleHelper::Serialize
PUBLIC	?Initialize@CCoupleHelper@@QAEHXZ		; CCoupleHelper::Initialize
PUBLIC	?Handler@CCoupleHelper@@QAEXPAUtagDB_OVERLAPPED_PLUS@@K@Z ; CCoupleHelper::Handler
PUBLIC	?OnTimer@CCoupleHelper@@QAEXXZ			; CCoupleHelper::OnTimer
PUBLIC	?OnTransfer@CCoupleHelper@@QAEXK@Z		; CCoupleHelper::OnTransfer
PUBLIC	?OnPropose@CCoupleHelper@@QAEXAAVCAr@@K@Z	; CCoupleHelper::OnPropose
PUBLIC	?OnCouple@CCoupleHelper@@QAEXAAVCAr@@@Z		; CCoupleHelper::OnCouple
PUBLIC	?OnDecouple@CCoupleHelper@@QAEXAAVCAr@@@Z	; CCoupleHelper::OnDecouple
PUBLIC	?OnClearPropose@CCoupleHelper@@QAEXXZ		; CCoupleHelper::OnClearPropose
PUBLIC	?OnAddExperience@CCoupleHelper@@QAEXAAVCAr@@@Z	; CCoupleHelper::OnAddExperience
PUBLIC	?PostItem@CCoupleHelper@@QAEXPAVCCouple@@@Z	; CCoupleHelper::PostItem
PUBLIC	?PostItem@CCoupleHelper@@QAEXKABU_COUPLE_ITEM@@H@Z ; CCoupleHelper::PostItem
PUBLIC	?SetPropose@CCoupleHelper@@QAEHKJ@Z		; CCoupleHelper::SetPropose
PUBLIC	?GetPropose@CCoupleHelper@@QAEJK@Z		; CCoupleHelper::GetPropose
PUBLIC	?AddPropose@CCoupleHelper@@QAE_NKJ@Z		; CCoupleHelper::AddPropose
PUBLIC	?GetGender@CCoupleHelper@@AAEXPAVCCouple@@AAH1@Z ; CCoupleHelper::GetGender
PUBLIC	??1?$_Tree@V?$_Tmap_traits@KJU?$less@K@std@@V?$allocator@U?$pair@$$CBKJ@std@@@2@$0A@@std@@@std@@QAE@XZ ; std::_Tree<std::_Tmap_traits<unsigned long,long,std::less<unsigned long>,std::allocator<std::pair<unsigned long const ,long> >,0> >::~_Tree<std::_Tmap_traits<unsigned long,long,std::less<unsigned long>,std::allocator<std::pair<unsigned long const ,long> >,0> >
PUBLIC	?_Lrotate@?$_Tree_val@U?$_Tree_simple_types@U?$pair@$$CBKJ@std@@@std@@@std@@QAEXPAU?$_Tree_node@U?$pair@$$CBKJ@std@@PAX@2@@Z ; std::_Tree_val<std::_Tree_simple_types<std::pair<unsigned long const ,long> > >::_Lrotate
PUBLIC	?_Rrotate@?$_Tree_val@U?$_Tree_simple_types@U?$pair@$$CBKJ@std@@@std@@@std@@QAEXPAU?$_Tree_node@U?$pair@$$CBKJ@std@@PAX@2@@Z ; std::_Tree_val<std::_Tree_simple_types<std::pair<unsigned long const ,long> > >::_Rrotate
PUBLIC	?_Extract@?$_Tree_val@U?$_Tree_simple_types@U?$pair@$$CBKJ@std@@@std@@@std@@QAEPAU?$_Tree_node@U?$pair@$$CBKJ@std@@PAX@2@V?$_Tree_unchecked_const_iterator@V?$_Tree_val@U?$_Tree_simple_types@U?$pair@$$CBKJ@std@@@std@@@std@@U_Iterator_base0@2@@2@@Z ; std::_Tree_val<std::_Tree_simple_types<std::pair<unsigned long const ,long> > >::_Extract
PUBLIC	?_Insert_node@?$_Tree_val@U?$_Tree_simple_types@U?$pair@$$CBKJ@std@@@std@@@std@@QAEPAU?$_Tree_node@U?$pair@$$CBKJ@std@@PAX@2@U?$_Tree_id@PAU?$_Tree_node@U?$pair@$$CBKJ@std@@PAX@std@@@2@QAU32@@Z ; std::_Tree_val<std::_Tree_simple_types<std::pair<unsigned long const ,long> > >::_Insert_node
PUBLIC	??_GCCoupleHelper@@UAEPAXI@Z			; CCoupleHelper::`scalar deleting destructor'
PUBLIC	??E?$_Tree_unchecked_const_iterator@V?$_Tree_val@U?$_Tree_simple_types@U?$pair@$$CBKJ@std@@@std@@@std@@U_Iterator_base0@2@@std@@QAEAAV01@XZ ; std::_Tree_unchecked_const_iterator<std::_Tree_val<std::_Tree_simple_types<std::pair<unsigned long const ,long> > >,std::_Iterator_base0>::operator++
PUBLIC	??$?5H@CAr@@QAEAAV0@AAH@Z			; CAr::operator>><int>
PUBLIC	??$?5K@CAr@@QAEAAV0@AAK@Z			; CAr::operator>><unsigned long>
PUBLIC	??$_Erase_tree@V?$allocator@U?$_Tree_node@U?$pair@$$CBKJ@std@@PAX@std@@@std@@@?$_Tree_val@U?$_Tree_simple_types@U?$pair@$$CBKJ@std@@@std@@@std@@QAEXAAV?$allocator@U?$_Tree_node@U?$pair@$$CBKJ@std@@PAX@std@@@1@PAU?$_Tree_node@U?$pair@$$CBKJ@std@@PAX@1@@Z ; std::_Tree_val<std::_Tree_simple_types<std::pair<unsigned long const ,long> > >::_Erase_tree<std::allocator<std::_Tree_node<std::pair<unsigned long const ,long>,void *> > >
PUBLIC	??$_Find_lower_bound@K@?$_Tree@V?$_Tmap_traits@KJU?$less@K@std@@V?$allocator@U?$pair@$$CBKJ@std@@@2@$0A@@std@@@std@@IBE?AU?$_Tree_find_result@PAU?$_Tree_node@U?$pair@$$CBKJ@std@@PAX@std@@@1@ABK@Z ; std::_Tree<std::_Tmap_traits<unsigned long,long,std::less<unsigned long>,std::allocator<std::pair<unsigned long const ,long> >,0> >::_Find_lower_bound<unsigned long>
PUBLIC	??1?$_Alloc_construct_ptr@V?$allocator@U?$_Tree_node@U?$pair@$$CBKJ@std@@PAX@std@@@std@@@std@@QAE@XZ ; std::_Alloc_construct_ptr<std::allocator<std::_Tree_node<std::pair<unsigned long const ,long>,void *> > >::~_Alloc_construct_ptr<std::allocator<std::_Tree_node<std::pair<unsigned long const ,long>,void *> > >
PUBLIC	?_OptionsStorage@?1??__local_stdio_printf_options@@9@4_KA ; `__local_stdio_printf_options'::`2'::_OptionsStorage
PUBLIC	??_C@_00CNPNBAHC@@				; `string'
PUBLIC	??_7exception@std@@6B@				; std::exception::`vftable'
PUBLIC	??_C@_0BC@EOODALEL@Unknown?5exception@		; `string'
PUBLIC	??_7bad_alloc@std@@6B@				; std::bad_alloc::`vftable'
PUBLIC	??_7bad_array_new_length@std@@6B@		; std::bad_array_new_length::`vftable'
PUBLIC	??_C@_0BF@KINCDENJ@bad?5array?5new?5length@	; `string'
PUBLIC	??_R0?AVexception@std@@@8			; std::exception `RTTI Type Descriptor'
PUBLIC	__CT??_R0?AVexception@std@@@8??0exception@std@@QAE@ABV01@@Z12
PUBLIC	__TI3?AVbad_array_new_length@std@@
PUBLIC	__CTA3?AVbad_array_new_length@std@@
PUBLIC	??_R0?AVbad_array_new_length@std@@@8		; std::bad_array_new_length `RTTI Type Descriptor'
PUBLIC	__CT??_R0?AVbad_array_new_length@std@@@8??0bad_array_new_length@std@@QAE@ABV01@@Z12
PUBLIC	??_R0?AVbad_alloc@std@@@8			; std::bad_alloc `RTTI Type Descriptor'
PUBLIC	__CT??_R0?AVbad_alloc@std@@@8??0bad_alloc@std@@QAE@ABV01@@Z12
PUBLIC	??_C@_0BB@GCADKGJO@map?1set?5too?5long@		; `string'
PUBLIC	??_R4exception@std@@6B@				; std::exception::`RTTI Complete Object Locator'
PUBLIC	??_R3exception@std@@8				; std::exception::`RTTI Class Hierarchy Descriptor'
PUBLIC	??_R2exception@std@@8				; std::exception::`RTTI Base Class Array'
PUBLIC	??_R1A@?0A@EA@exception@std@@8			; std::exception::`RTTI Base Class Descriptor at (0,-1,0,64)'
PUBLIC	??_R4bad_array_new_length@std@@6B@		; std::bad_array_new_length::`RTTI Complete Object Locator'
PUBLIC	??_R3bad_array_new_length@std@@8		; std::bad_array_new_length::`RTTI Class Hierarchy Descriptor'
PUBLIC	??_R2bad_array_new_length@std@@8		; std::bad_array_new_length::`RTTI Base Class Array'
PUBLIC	??_R1A@?0A@EA@bad_array_new_length@std@@8	; std::bad_array_new_length::`RTTI Base Class Descriptor at (0,-1,0,64)'
PUBLIC	??_R1A@?0A@EA@bad_alloc@std@@8			; std::bad_alloc::`RTTI Base Class Descriptor at (0,-1,0,64)'
PUBLIC	??_R3bad_alloc@std@@8				; std::bad_alloc::`RTTI Class Hierarchy Descriptor'
PUBLIC	??_R2bad_alloc@std@@8				; std::bad_alloc::`RTTI Base Class Array'
PUBLIC	??_R4bad_alloc@std@@6B@				; std::bad_alloc::`RTTI Complete Object Locator'
PUBLIC	??_7CCoupleController@@6B@			; CCoupleController::`vftable'
PUBLIC	??_7CCoupleHelper@@6B@				; CCoupleHelper::`vftable'
PUBLIC	??_C@_0BE@LAHMMJCP@uspRestoreCouple?5?$CFd@	; `string'
PUBLIC	??_C@_0CC@GMJLNCFC@couldn?8t?5execute?5uspRestoreCoup@ ; `string'
PUBLIC	??_C@_0M@ODFMJGEL@nExperience@			; `string'
PUBLIC	??_C@_07LLHBANFB@idFirst@			; `string'
PUBLIC	??_C@_08JJMLNGN@idSecond@			; `string'
PUBLIC	??_C@_0BF@EEKILEKJ@uspRestorePropose?5?$CFd@	; `string'
PUBLIC	??_C@_0CD@MBONKOPP@couldn?8t?5execute?5uspRestoreProp@ ; `string'
PUBLIC	??_C@_0L@LMOLFJKD@idProposer@			; `string'
PUBLIC	??_C@_08LHGALILC@tPropose@			; `string'
PUBLIC	??_C@_0BJ@HLENHNMF@uspAddPropose?5?$CFd?0?5?$CFd?0?5?$CFd@ ; `string'
PUBLIC	??_C@_0BP@OOKEDFAC@couldn?8t?5execute?5uspAddPropose@ ; `string'
PUBLIC	??_C@_0BI@JKNBOMDJ@uspDeletePropose?5?$CFd?0?5?$CFd@ ; `string'
PUBLIC	??_C@_0CC@OACJEGKC@couldn?8t?5execute?5uspDeletePropo@ ; `string'
PUBLIC	??_C@_0BI@MMJOPPGN@uspAddCouple?5?$CFd?0?5?$CFd?0?5?$CFd@ ; `string'
PUBLIC	??_C@_0BO@EKHMKIGO@couldn?8t?5execute?5uspAddCouple@ ; `string'
PUBLIC	??_C@_0BH@CFAHFKMO@uspDeleteCouple?5?$CFd?0?5?$CFd@ ; `string'
PUBLIC	??_C@_0CB@BMIHDKGG@couldn?8t?5execute?5uspDeleteCoupl@ ; `string'
PUBLIC	??_C@_0CC@HOAMCAAD@uspAddCoupleExperience?5?$CFd?0?5?$CFd?0?5@ ; `string'
PUBLIC	??_C@_0CI@CNMDKKBC@couldn?8t?5execute?5uspAddCoupleEx@ ; `string'
PUBLIC	??_C@_0CL@FHEKPCEP@?6T?3?5CCoupleHelper?4OnAddExperien@ ; `string'
PUBLIC	??_C@_0BL@NAJDJCKD@?6T?3?5CCoupleHelper?4OnTimer?6@ ; `string'
PUBLIC	??_C@_0CF@OCNFFHFP@?6T?3?5CCoupleHelper?4OnPropose?3?5?$CFd@ ; `string'
PUBLIC	??_C@_0CE@DPENKOBI@?6T?3?5CCoupleHelper?4OnCouple?3?5?$CFd?0@ ; `string'
PUBLIC	??_C@_0CC@POOPMPNO@?6T?3?5CCoupleHelper?4OnDecouple?3?5?$CF@ ; `string'
PUBLIC	??_R4CCoupleHelper@@6B@				; CCoupleHelper::`RTTI Complete Object Locator'
PUBLIC	??_R0?AVCCoupleHelper@@@8			; CCoupleHelper `RTTI Type Descriptor'
PUBLIC	??_R3CCoupleHelper@@8				; CCoupleHelper::`RTTI Class Hierarchy Descriptor'
PUBLIC	??_R2CCoupleHelper@@8				; CCoupleHelper::`RTTI Base Class Array'
PUBLIC	??_R1A@?0A@EA@CCoupleHelper@@8			; CCoupleHelper::`RTTI Base Class Descriptor at (0,-1,0,64)'
PUBLIC	??_R4CCoupleController@@6B@			; CCoupleController::`RTTI Complete Object Locator'
PUBLIC	??_R0?AVCCoupleController@@@8			; CCoupleController `RTTI Type Descriptor'
PUBLIC	??_R3CCoupleController@@8			; CCoupleController::`RTTI Class Hierarchy Descriptor'
PUBLIC	??_R2CCoupleController@@8			; CCoupleController::`RTTI Base Class Array'
PUBLIC	??_R1A@?0A@EA@CCoupleController@@8		; CCoupleController::`RTTI Base Class Descriptor at (0,-1,0,64)'
PUBLIC	??_R1A@?0A@EA@CDbController@@8			; CDbController::`RTTI Base Class Descriptor at (0,-1,0,64)'
PUBLIC	??_R0?AVCDbController@@@8			; CDbController `RTTI Type Descriptor'
PUBLIC	??_R3CDbController@@8				; CDbController::`RTTI Class Hierarchy Descriptor'
PUBLIC	??_R2CDbController@@8				; CDbController::`RTTI Base Class Array'
EXTRN	??2@YAPAXI@Z:PROC				; operator new
EXTRN	??3@YAXPAXI@Z:PROC				; operator delete
EXTRN	_atexit:PROC
EXTRN	__Init_thread_header:PROC
EXTRN	__Init_thread_abort:PROC
EXTRN	__Init_thread_footer:PROC
EXTRN	__invoke_watson:PROC
EXTRN	__imp__EnterCriticalSection@4:PROC
EXTRN	__imp__LeaveCriticalSection@4:PROC
EXTRN	___stdio_common_vsprintf:PROC
EXTRN	__time32:PROC
EXTRN	?_Xlength_error@std@@YAXPBD@Z:PROC		; std::_Xlength_error
EXTRN	___std_exception_copy:PROC
EXTRN	___std_exception_destroy:PROC
EXTRN	??_Eexception@std@@UAEPAXI@Z:PROC		; std::exception::`vector deleting destructor'
EXTRN	??_Ebad_alloc@std@@UAEPAXI@Z:PROC		; std::bad_alloc::`vector deleting destructor'
EXTRN	??_Ebad_array_new_length@std@@UAEPAXI@Z:PROC	; std::bad_array_new_length::`vector deleting destructor'
EXTRN	?Error@@YAPBDPBDZZ:PROC				; Error
EXTRN	??1CQuery@@QAE@XZ:PROC				; CQuery::~CQuery
EXTRN	?Execute@CQuery@@QAAHPBDZZ:PROC			; CQuery::Execute
EXTRN	?Fetch@CQuery@@QAEHXZ:PROC			; CQuery::Fetch
EXTRN	?Clear@CQuery@@QAEXXZ:PROC			; CQuery::Clear
EXTRN	?GetInt@CQuery@@QAEHPAD@Z:PROC			; CQuery::GetInt
EXTRN	??0CAr@@QAE@PAXI@Z:PROC				; CAr::CAr
EXTRN	??1CAr@@QAE@XZ:PROC				; CAr::~CAr
EXTRN	??0CItemElem@@QAE@XZ:PROC			; CItemElem::CItemElem
EXTRN	??0CDbController@@QAE@XZ:PROC			; CDbController::CDbController
EXTRN	??1CDbController@@UAE@XZ:PROC			; CDbController::~CDbController
EXTRN	?CreateDbHandler@CDbController@@QAEHK@Z:PROC	; CDbController::CreateDbHandler
EXTRN	?CloseDbHandler@CDbController@@QAEXXZ:PROC	; CDbController::CloseDbHandler
EXTRN	?CreateQuery@CDbController@@QAEPAVCQuery@@XZ:PROC ; CDbController::CreateQuery
EXTRN	?Post@post@@YAXKPAVCMail@@PAVCQuery@@@Z:PROC	; post::Post
EXTRN	??0CCouple@@QAE@KK@Z:PROC			; CCouple::CCouple
EXTRN	?AddExperience@CCouple@@QAEHH@Z:PROC		; CCouple::AddExperience
EXTRN	?GetLevel@CCouple@@QAEHH@Z:PROC			; CCouple::GetLevel
EXTRN	?Instance@CCoupleProperty@@SAPAV1@XZ:PROC	; CCoupleProperty::Instance
EXTRN	?GetItems@CCoupleProperty@@QAEAAV?$vector@U_COUPLE_ITEM@@V?$allocator@U_COUPLE_ITEM@@@std@@@std@@H@Z:PROC ; CCoupleProperty::GetItems
EXTRN	?Initialize@CCoupleProperty@@QAEHXZ:PROC	; CCoupleProperty::Initialize
EXTRN	??0CCoupleMgr@@QAE@XZ:PROC			; CCoupleMgr::CCoupleMgr
EXTRN	?Couple@CCoupleMgr@@QAEXKK@Z:PROC		; CCoupleMgr::Couple
EXTRN	?Couple@CCoupleMgr@@QAEXPAVCCouple@@@Z:PROC	; CCoupleMgr::Couple
EXTRN	?Decouple@CCoupleMgr@@QAEHK@Z:PROC		; CCoupleMgr::Decouple
EXTRN	?GetCouple@CCoupleMgr@@QAEPAVCCouple@@K@Z:PROC	; CCoupleMgr::GetCouple
EXTRN	?Serialize@CCoupleMgr@@QAEXAAVCAr@@@Z:PROC	; CCoupleMgr::Serialize
EXTRN	??_ECCoupleController@@UAEPAXI@Z:PROC		; CCoupleController::`vector deleting destructor'
EXTRN	??_ECCoupleHelper@@UAEPAXI@Z:PROC		; CCoupleHelper::`vector deleting destructor'
EXTRN	?OutputDebugStringA@election@@YAXPBDZZ:PROC	; election::OutputDebugStringA
EXTRN	?GetInstance@CPlayerDataCenter@@SAPAV1@XZ:PROC	; CPlayerDataCenter::GetInstance
EXTRN	?GetPlayerData@CPlayerDataCenter@@QAEPAU_PlayerData@@K@Z:PROC ; CPlayerDataCenter::GetPlayerData
EXTRN	?GetInstance@CDPTrans@@SAPAV1@XZ:PROC		; CDPTrans::GetInstance
EXTRN	?SendCouple@CDPTrans@@QAEXPAVCCoupleMgr@@K@Z:PROC ; CDPTrans::SendCouple
EXTRN	?SendProposeResult@CDPTrans@@QAEXKKHJK@Z:PROC	; CDPTrans::SendProposeResult
EXTRN	?SendCoupleResult@CDPTrans@@QAEXKKH@Z:PROC	; CDPTrans::SendCoupleResult
EXTRN	?SendDecoupleResult@CDPTrans@@QAEXKH@Z:PROC	; CDPTrans::SendDecoupleResult
EXTRN	?SendAddCoupleExperience@CDPTrans@@QAEXKH@Z:PROC ; CDPTrans::SendAddCoupleExperience
EXTRN	??0CMail@@QAE@XZ:PROC				; CMail::CMail
EXTRN	@__security_check_cookie@4:PROC
EXTRN	__CxxThrowException@8:PROC
EXTRN	___CxxFrameHandler3:PROC
EXTRN	__chkstk:PROC
EXTRN	__Init_thread_epoch:DWORD
EXTRN	??_7type_info@@6B@:QWORD			; type_info::`vftable'
EXTRN	?g_next@@3KA:DWORD				; g_next
EXTRN	?prj@@3VCProject@@A:BYTE			; prj
EXTRN	?g_appInfo@@3UAppInfo@@A:QWORD			; g_appInfo
EXTRN	___security_cookie:DWORD
EXTRN	__tls_array:DWORD
EXTRN	__tls_index:DWORD
;	COMDAT ?_OptionsStorage@?1??__local_stdio_printf_options@@9@4_KA
_BSS	SEGMENT
?_OptionsStorage@?1??__local_stdio_printf_options@@9@4_KA DQ 01H DUP (?) ; `__local_stdio_printf_options'::`2'::_OptionsStorage
_BSS	ENDS
;	COMDAT ?sCoupleHelper@?1??Instance@CCoupleHelper@@SAPAV2@XZ@4V2@A
_BSS	SEGMENT
?sCoupleHelper@?1??Instance@CCoupleHelper@@SAPAV2@XZ@4V2@A DB 014H DUP (?) ; `CCoupleHelper::Instance'::`2'::sCoupleHelper
_BSS	ENDS
;	COMDAT ?$TSS0@?1??Instance@CCoupleHelper@@SAPAV2@XZ@4HA
_BSS	SEGMENT
?$TSS0@?1??Instance@CCoupleHelper@@SAPAV2@XZ@4HA DD 01H DUP (?) ; `CCoupleHelper::Instance'::`2'::$TSS0
_BSS	ENDS
;	COMDAT ??_R2CDbController@@8
rdata$r	SEGMENT
??_R2CDbController@@8 DD FLAT:??_R1A@?0A@EA@CDbController@@8 ; CDbController::`RTTI Base Class Array'
rdata$r	ENDS
;	COMDAT ??_R3CDbController@@8
rdata$r	SEGMENT
??_R3CDbController@@8 DD 00H				; CDbController::`RTTI Class Hierarchy Descriptor'
	DD	00H
	DD	01H
	DD	FLAT:??_R2CDbController@@8
rdata$r	ENDS
;	COMDAT ??_R0?AVCDbController@@@8
data$rs	SEGMENT
??_R0?AVCDbController@@@8 DD FLAT:??_7type_info@@6B@	; CDbController `RTTI Type Descriptor'
	DD	00H
	DB	'.?AVCDbController@@', 00H
data$rs	ENDS
;	COMDAT ??_R1A@?0A@EA@CDbController@@8
rdata$r	SEGMENT
??_R1A@?0A@EA@CDbController@@8 DD FLAT:??_R0?AVCDbController@@@8 ; CDbController::`RTTI Base Class Descriptor at (0,-1,0,64)'
	DD	00H
	DD	00H
	DD	0ffffffffH
	DD	00H
	DD	040H
	DD	FLAT:??_R3CDbController@@8
rdata$r	ENDS
;	COMDAT ??_R1A@?0A@EA@CCoupleController@@8
rdata$r	SEGMENT
??_R1A@?0A@EA@CCoupleController@@8 DD FLAT:??_R0?AVCCoupleController@@@8 ; CCoupleController::`RTTI Base Class Descriptor at (0,-1,0,64)'
	DD	01H
	DD	00H
	DD	0ffffffffH
	DD	00H
	DD	040H
	DD	FLAT:??_R3CCoupleController@@8
rdata$r	ENDS
;	COMDAT ??_R2CCoupleController@@8
rdata$r	SEGMENT
??_R2CCoupleController@@8 DD FLAT:??_R1A@?0A@EA@CCoupleController@@8 ; CCoupleController::`RTTI Base Class Array'
	DD	FLAT:??_R1A@?0A@EA@CDbController@@8
rdata$r	ENDS
;	COMDAT ??_R3CCoupleController@@8
rdata$r	SEGMENT
??_R3CCoupleController@@8 DD 00H			; CCoupleController::`RTTI Class Hierarchy Descriptor'
	DD	00H
	DD	02H
	DD	FLAT:??_R2CCoupleController@@8
rdata$r	ENDS
;	COMDAT ??_R0?AVCCoupleController@@@8
data$rs	SEGMENT
??_R0?AVCCoupleController@@@8 DD FLAT:??_7type_info@@6B@ ; CCoupleController `RTTI Type Descriptor'
	DD	00H
	DB	'.?AVCCoupleController@@', 00H
data$rs	ENDS
;	COMDAT ??_R4CCoupleController@@6B@
rdata$r	SEGMENT
??_R4CCoupleController@@6B@ DD 00H			; CCoupleController::`RTTI Complete Object Locator'
	DD	00H
	DD	00H
	DD	FLAT:??_R0?AVCCoupleController@@@8
	DD	FLAT:??_R3CCoupleController@@8
rdata$r	ENDS
;	COMDAT ??_R1A@?0A@EA@CCoupleHelper@@8
rdata$r	SEGMENT
??_R1A@?0A@EA@CCoupleHelper@@8 DD FLAT:??_R0?AVCCoupleHelper@@@8 ; CCoupleHelper::`RTTI Base Class Descriptor at (0,-1,0,64)'
	DD	00H
	DD	00H
	DD	0ffffffffH
	DD	00H
	DD	040H
	DD	FLAT:??_R3CCoupleHelper@@8
rdata$r	ENDS
;	COMDAT ??_R2CCoupleHelper@@8
rdata$r	SEGMENT
??_R2CCoupleHelper@@8 DD FLAT:??_R1A@?0A@EA@CCoupleHelper@@8 ; CCoupleHelper::`RTTI Base Class Array'
rdata$r	ENDS
;	COMDAT ??_R3CCoupleHelper@@8
rdata$r	SEGMENT
??_R3CCoupleHelper@@8 DD 00H				; CCoupleHelper::`RTTI Class Hierarchy Descriptor'
	DD	00H
	DD	01H
	DD	FLAT:??_R2CCoupleHelper@@8
rdata$r	ENDS
;	COMDAT ??_R0?AVCCoupleHelper@@@8
data$rs	SEGMENT
??_R0?AVCCoupleHelper@@@8 DD FLAT:??_7type_info@@6B@	; CCoupleHelper `RTTI Type Descriptor'
	DD	00H
	DB	'.?AVCCoupleHelper@@', 00H
data$rs	ENDS
;	COMDAT ??_R4CCoupleHelper@@6B@
rdata$r	SEGMENT
??_R4CCoupleHelper@@6B@ DD 00H				; CCoupleHelper::`RTTI Complete Object Locator'
	DD	00H
	DD	00H
	DD	FLAT:??_R0?AVCCoupleHelper@@@8
	DD	FLAT:??_R3CCoupleHelper@@8
rdata$r	ENDS
;	COMDAT ??_C@_0CC@POOPMPNO@?6T?3?5CCoupleHelper?4OnDecouple?3?5?$CF@
CONST	SEGMENT
??_C@_0CC@POOPMPNO@?6T?3?5CCoupleHelper?4OnDecouple?3?5?$CF@ DB 0aH, 'T: '
	DB	'CCoupleHelper.OnDecouple: %d', 0aH, 00H	; `string'
CONST	ENDS
;	COMDAT ??_C@_0CE@DPENKOBI@?6T?3?5CCoupleHelper?4OnCouple?3?5?$CFd?0@
CONST	SEGMENT
??_C@_0CE@DPENKOBI@?6T?3?5CCoupleHelper?4OnCouple?3?5?$CFd?0@ DB 0aH, 'T:'
	DB	' CCoupleHelper.OnCouple: %d, %d', 0aH, 00H	; `string'
CONST	ENDS
;	COMDAT ??_C@_0CF@OCNFFHFP@?6T?3?5CCoupleHelper?4OnPropose?3?5?$CFd@
CONST	SEGMENT
??_C@_0CF@OCNFFHFP@?6T?3?5CCoupleHelper?4OnPropose?3?5?$CFd@ DB 0aH, 'T: '
	DB	'CCoupleHelper.OnPropose: %d, %d', 0aH, 00H	; `string'
CONST	ENDS
;	COMDAT ??_C@_0BL@NAJDJCKD@?6T?3?5CCoupleHelper?4OnTimer?6@
CONST	SEGMENT
??_C@_0BL@NAJDJCKD@?6T?3?5CCoupleHelper?4OnTimer?6@ DB 0aH, 'T: CCoupleHe'
	DB	'lper.OnTimer', 0aH, 00H			; `string'
CONST	ENDS
;	COMDAT ??_C@_0CL@FHEKPCEP@?6T?3?5CCoupleHelper?4OnAddExperien@
CONST	SEGMENT
??_C@_0CL@FHEKPCEP@?6T?3?5CCoupleHelper?4OnAddExperien@ DB 0aH, 'T: CCoup'
	DB	'leHelper.OnAddExperience: %d, %d', 0aH, 00H	; `string'
CONST	ENDS
;	COMDAT ??_C@_0CI@CNMDKKBC@couldn?8t?5execute?5uspAddCoupleEx@
CONST	SEGMENT
??_C@_0CI@CNMDKKBC@couldn?8t?5execute?5uspAddCoupleEx@ DB 'couldn''t exec'
	DB	'ute uspAddCoupleExperience', 00H		; `string'
CONST	ENDS
;	COMDAT ??_C@_0CC@HOAMCAAD@uspAddCoupleExperience?5?$CFd?0?5?$CFd?0?5@
CONST	SEGMENT
??_C@_0CC@HOAMCAAD@uspAddCoupleExperience?5?$CFd?0?5?$CFd?0?5@ DB 'uspAdd'
	DB	'CoupleExperience %d, %d, %d', 00H		; `string'
CONST	ENDS
;	COMDAT ??_C@_0CB@BMIHDKGG@couldn?8t?5execute?5uspDeleteCoupl@
CONST	SEGMENT
??_C@_0CB@BMIHDKGG@couldn?8t?5execute?5uspDeleteCoupl@ DB 'couldn''t exec'
	DB	'ute uspDeleteCouple', 00H			; `string'
CONST	ENDS
;	COMDAT ??_C@_0BH@CFAHFKMO@uspDeleteCouple?5?$CFd?0?5?$CFd@
CONST	SEGMENT
??_C@_0BH@CFAHFKMO@uspDeleteCouple?5?$CFd?0?5?$CFd@ DB 'uspDeleteCouple %'
	DB	'd, %d', 00H					; `string'
CONST	ENDS
;	COMDAT ??_C@_0BO@EKHMKIGO@couldn?8t?5execute?5uspAddCouple@
CONST	SEGMENT
??_C@_0BO@EKHMKIGO@couldn?8t?5execute?5uspAddCouple@ DB 'couldn''t execut'
	DB	'e uspAddCouple', 00H			; `string'
CONST	ENDS
;	COMDAT ??_C@_0BI@MMJOPPGN@uspAddCouple?5?$CFd?0?5?$CFd?0?5?$CFd@
CONST	SEGMENT
??_C@_0BI@MMJOPPGN@uspAddCouple?5?$CFd?0?5?$CFd?0?5?$CFd@ DB 'uspAddCoupl'
	DB	'e %d, %d, %d', 00H				; `string'
CONST	ENDS
;	COMDAT ??_C@_0CC@OACJEGKC@couldn?8t?5execute?5uspDeletePropo@
CONST	SEGMENT
??_C@_0CC@OACJEGKC@couldn?8t?5execute?5uspDeletePropo@ DB 'couldn''t exec'
	DB	'ute uspDeletePropose', 00H			; `string'
CONST	ENDS
;	COMDAT ??_C@_0BI@JKNBOMDJ@uspDeletePropose?5?$CFd?0?5?$CFd@
CONST	SEGMENT
??_C@_0BI@JKNBOMDJ@uspDeletePropose?5?$CFd?0?5?$CFd@ DB 'uspDeletePropose'
	DB	' %d, %d', 00H				; `string'
CONST	ENDS
;	COMDAT ??_C@_0BP@OOKEDFAC@couldn?8t?5execute?5uspAddPropose@
CONST	SEGMENT
??_C@_0BP@OOKEDFAC@couldn?8t?5execute?5uspAddPropose@ DB 'couldn''t execu'
	DB	'te uspAddPropose', 00H			; `string'
CONST	ENDS
;	COMDAT ??_C@_0BJ@HLENHNMF@uspAddPropose?5?$CFd?0?5?$CFd?0?5?$CFd@
CONST	SEGMENT
??_C@_0BJ@HLENHNMF@uspAddPropose?5?$CFd?0?5?$CFd?0?5?$CFd@ DB 'uspAddProp'
	DB	'ose %d, %d, %d', 00H			; `string'
CONST	ENDS
;	COMDAT ??_C@_08LHGALILC@tPropose@
CONST	SEGMENT
??_C@_08LHGALILC@tPropose@ DB 'tPropose', 00H		; `string'
CONST	ENDS
;	COMDAT ??_C@_0L@LMOLFJKD@idProposer@
CONST	SEGMENT
??_C@_0L@LMOLFJKD@idProposer@ DB 'idProposer', 00H	; `string'
CONST	ENDS
;	COMDAT ??_C@_0CD@MBONKOPP@couldn?8t?5execute?5uspRestoreProp@
CONST	SEGMENT
??_C@_0CD@MBONKOPP@couldn?8t?5execute?5uspRestoreProp@ DB 'couldn''t exec'
	DB	'ute uspRestorePropose', 00H			; `string'
CONST	ENDS
;	COMDAT ??_C@_0BF@EEKILEKJ@uspRestorePropose?5?$CFd@
CONST	SEGMENT
??_C@_0BF@EEKILEKJ@uspRestorePropose?5?$CFd@ DB 'uspRestorePropose %d', 00H ; `string'
CONST	ENDS
;	COMDAT ??_C@_08JJMLNGN@idSecond@
CONST	SEGMENT
??_C@_08JJMLNGN@idSecond@ DB 'idSecond', 00H		; `string'
CONST	ENDS
;	COMDAT ??_C@_07LLHBANFB@idFirst@
CONST	SEGMENT
??_C@_07LLHBANFB@idFirst@ DB 'idFirst', 00H		; `string'
CONST	ENDS
;	COMDAT ??_C@_0M@ODFMJGEL@nExperience@
CONST	SEGMENT
??_C@_0M@ODFMJGEL@nExperience@ DB 'nExperience', 00H	; `string'
CONST	ENDS
;	COMDAT ??_C@_0CC@GMJLNCFC@couldn?8t?5execute?5uspRestoreCoup@
CONST	SEGMENT
??_C@_0CC@GMJLNCFC@couldn?8t?5execute?5uspRestoreCoup@ DB 'couldn''t exec'
	DB	'ute uspRestoreCouple', 00H			; `string'
CONST	ENDS
;	COMDAT ??_C@_0BE@LAHMMJCP@uspRestoreCouple?5?$CFd@
CONST	SEGMENT
??_C@_0BE@LAHMMJCP@uspRestoreCouple?5?$CFd@ DB 'uspRestoreCouple %d', 00H ; `string'
CONST	ENDS
;	COMDAT ??_7CCoupleHelper@@6B@
CONST	SEGMENT
??_7CCoupleHelper@@6B@ DD FLAT:??_R4CCoupleHelper@@6B@	; CCoupleHelper::`vftable'
	DD	FLAT:??_ECCoupleHelper@@UAEPAXI@Z
CONST	ENDS
;	COMDAT ??_7CCoupleController@@6B@
CONST	SEGMENT
??_7CCoupleController@@6B@ DD FLAT:??_R4CCoupleController@@6B@ ; CCoupleController::`vftable'
	DD	FLAT:??_ECCoupleController@@UAEPAXI@Z
	DD	FLAT:?Handler@CCoupleController@@UAEXPAUtagDB_OVERLAPPED_PLUS@@K@Z
	DD	FLAT:?OnTimer@CCoupleController@@UAEXXZ
CONST	ENDS
;	COMDAT ??_R4bad_alloc@std@@6B@
rdata$r	SEGMENT
??_R4bad_alloc@std@@6B@ DD 00H				; std::bad_alloc::`RTTI Complete Object Locator'
	DD	00H
	DD	00H
	DD	FLAT:??_R0?AVbad_alloc@std@@@8
	DD	FLAT:??_R3bad_alloc@std@@8
rdata$r	ENDS
;	COMDAT ??_R2bad_alloc@std@@8
rdata$r	SEGMENT
??_R2bad_alloc@std@@8 DD FLAT:??_R1A@?0A@EA@bad_alloc@std@@8 ; std::bad_alloc::`RTTI Base Class Array'
	DD	FLAT:??_R1A@?0A@EA@exception@std@@8
rdata$r	ENDS
;	COMDAT ??_R3bad_alloc@std@@8
rdata$r	SEGMENT
??_R3bad_alloc@std@@8 DD 00H				; std::bad_alloc::`RTTI Class Hierarchy Descriptor'
	DD	00H
	DD	02H
	DD	FLAT:??_R2bad_alloc@std@@8
rdata$r	ENDS
;	COMDAT ??_R1A@?0A@EA@bad_alloc@std@@8
rdata$r	SEGMENT
??_R1A@?0A@EA@bad_alloc@std@@8 DD FLAT:??_R0?AVbad_alloc@std@@@8 ; std::bad_alloc::`RTTI Base Class Descriptor at (0,-1,0,64)'
	DD	01H
	DD	00H
	DD	0ffffffffH
	DD	00H
	DD	040H
	DD	FLAT:??_R3bad_alloc@std@@8
rdata$r	ENDS
;	COMDAT ??_R1A@?0A@EA@bad_array_new_length@std@@8
rdata$r	SEGMENT
??_R1A@?0A@EA@bad_array_new_length@std@@8 DD FLAT:??_R0?AVbad_array_new_length@std@@@8 ; std::bad_array_new_length::`RTTI Base Class Descriptor at (0,-1,0,64)'
	DD	02H
	DD	00H
	DD	0ffffffffH
	DD	00H
	DD	040H
	DD	FLAT:??_R3bad_array_new_length@std@@8
rdata$r	ENDS
;	COMDAT ??_R2bad_array_new_length@std@@8
rdata$r	SEGMENT
??_R2bad_array_new_length@std@@8 DD FLAT:??_R1A@?0A@EA@bad_array_new_length@std@@8 ; std::bad_array_new_length::`RTTI Base Class Array'
	DD	FLAT:??_R1A@?0A@EA@bad_alloc@std@@8
	DD	FLAT:??_R1A@?0A@EA@exception@std@@8
rdata$r	ENDS
;	COMDAT ??_R3bad_array_new_length@std@@8
rdata$r	SEGMENT
??_R3bad_array_new_length@std@@8 DD 00H			; std::bad_array_new_length::`RTTI Class Hierarchy Descriptor'
	DD	00H
	DD	03H
	DD	FLAT:??_R2bad_array_new_length@std@@8
rdata$r	ENDS
;	COMDAT ??_R4bad_array_new_length@std@@6B@
rdata$r	SEGMENT
??_R4bad_array_new_length@std@@6B@ DD 00H		; std::bad_array_new_length::`RTTI Complete Object Locator'
	DD	00H
	DD	00H
	DD	FLAT:??_R0?AVbad_array_new_length@std@@@8
	DD	FLAT:??_R3bad_array_new_length@std@@8
rdata$r	ENDS
;	COMDAT ??_R1A@?0A@EA@exception@std@@8
rdata$r	SEGMENT
??_R1A@?0A@EA@exception@std@@8 DD FLAT:??_R0?AVexception@std@@@8 ; std::exception::`RTTI Base Class Descriptor at (0,-1,0,64)'
	DD	00H
	DD	00H
	DD	0ffffffffH
	DD	00H
	DD	040H
	DD	FLAT:??_R3exception@std@@8
rdata$r	ENDS
;	COMDAT ??_R2exception@std@@8
rdata$r	SEGMENT
??_R2exception@std@@8 DD FLAT:??_R1A@?0A@EA@exception@std@@8 ; std::exception::`RTTI Base Class Array'
rdata$r	ENDS
;	COMDAT ??_R3exception@std@@8
rdata$r	SEGMENT
??_R3exception@std@@8 DD 00H				; std::exception::`RTTI Class Hierarchy Descriptor'
	DD	00H
	DD	01H
	DD	FLAT:??_R2exception@std@@8
rdata$r	ENDS
;	COMDAT ??_R4exception@std@@6B@
rdata$r	SEGMENT
??_R4exception@std@@6B@ DD 00H				; std::exception::`RTTI Complete Object Locator'
	DD	00H
	DD	00H
	DD	FLAT:??_R0?AVexception@std@@@8
	DD	FLAT:??_R3exception@std@@8
rdata$r	ENDS
;	COMDAT ??_C@_0BB@GCADKGJO@map?1set?5too?5long@
CONST	SEGMENT
??_C@_0BB@GCADKGJO@map?1set?5too?5long@ DB 'map/set too long', 00H ; `string'
CONST	ENDS
;	COMDAT __CT??_R0?AVbad_alloc@std@@@8??0bad_alloc@std@@QAE@ABV01@@Z12
xdata$x	SEGMENT
__CT??_R0?AVbad_alloc@std@@@8??0bad_alloc@std@@QAE@ABV01@@Z12 DD 010H
	DD	FLAT:??_R0?AVbad_alloc@std@@@8
	DD	00H
	DD	0ffffffffH
	ORG $+4
	DD	0cH
	DD	FLAT:??0bad_alloc@std@@QAE@ABV01@@Z
xdata$x	ENDS
;	COMDAT ??_R0?AVbad_alloc@std@@@8
data$r	SEGMENT
??_R0?AVbad_alloc@std@@@8 DD FLAT:??_7type_info@@6B@	; std::bad_alloc `RTTI Type Descriptor'
	DD	00H
	DB	'.?AVbad_alloc@std@@', 00H
data$r	ENDS
;	COMDAT __CT??_R0?AVbad_array_new_length@std@@@8??0bad_array_new_length@std@@QAE@ABV01@@Z12
xdata$x	SEGMENT
__CT??_R0?AVbad_array_new_length@std@@@8??0bad_array_new_length@std@@QAE@ABV01@@Z12 DD 00H
	DD	FLAT:??_R0?AVbad_array_new_length@std@@@8
	DD	00H
	DD	0ffffffffH
	ORG $+4
	DD	0cH
	DD	FLAT:??0bad_array_new_length@std@@QAE@ABV01@@Z
xdata$x	ENDS
;	COMDAT ??_R0?AVbad_array_new_length@std@@@8
data$r	SEGMENT
??_R0?AVbad_array_new_length@std@@@8 DD FLAT:??_7type_info@@6B@ ; std::bad_array_new_length `RTTI Type Descriptor'
	DD	00H
	DB	'.?AVbad_array_new_length@std@@', 00H
data$r	ENDS
;	COMDAT __CTA3?AVbad_array_new_length@std@@
xdata$x	SEGMENT
__CTA3?AVbad_array_new_length@std@@ DD 03H
	DD	FLAT:__CT??_R0?AVbad_array_new_length@std@@@8??0bad_array_new_length@std@@QAE@ABV01@@Z12
	DD	FLAT:__CT??_R0?AVbad_alloc@std@@@8??0bad_alloc@std@@QAE@ABV01@@Z12
	DD	FLAT:__CT??_R0?AVexception@std@@@8??0exception@std@@QAE@ABV01@@Z12
xdata$x	ENDS
;	COMDAT __TI3?AVbad_array_new_length@std@@
xdata$x	SEGMENT
__TI3?AVbad_array_new_length@std@@ DD 00H
	DD	FLAT:??1bad_array_new_length@std@@UAE@XZ
	DD	00H
	DD	FLAT:__CTA3?AVbad_array_new_length@std@@
xdata$x	ENDS
;	COMDAT __CT??_R0?AVexception@std@@@8??0exception@std@@QAE@ABV01@@Z12
xdata$x	SEGMENT
__CT??_R0?AVexception@std@@@8??0exception@std@@QAE@ABV01@@Z12 DD 00H
	DD	FLAT:??_R0?AVexception@std@@@8
	DD	00H
	DD	0ffffffffH
	ORG $+4
	DD	0cH
	DD	FLAT:??0exception@std@@QAE@ABV01@@Z
xdata$x	ENDS
;	COMDAT ??_R0?AVexception@std@@@8
data$r	SEGMENT
??_R0?AVexception@std@@@8 DD FLAT:??_7type_info@@6B@	; std::exception `RTTI Type Descriptor'
	DD	00H
	DB	'.?AVexception@std@@', 00H
data$r	ENDS
;	COMDAT ??_C@_0BF@KINCDENJ@bad?5array?5new?5length@
CONST	SEGMENT
??_C@_0BF@KINCDENJ@bad?5array?5new?5length@ DB 'bad array new length', 00H ; `string'
CONST	ENDS
;	COMDAT ??_7bad_array_new_length@std@@6B@
CONST	SEGMENT
??_7bad_array_new_length@std@@6B@ DD FLAT:??_R4bad_array_new_length@std@@6B@ ; std::bad_array_new_length::`vftable'
	DD	FLAT:??_Ebad_array_new_length@std@@UAEPAXI@Z
	DD	FLAT:?what@exception@std@@UBEPBDXZ
CONST	ENDS
;	COMDAT ??_7bad_alloc@std@@6B@
CONST	SEGMENT
??_7bad_alloc@std@@6B@ DD FLAT:??_R4bad_alloc@std@@6B@	; std::bad_alloc::`vftable'
	DD	FLAT:??_Ebad_alloc@std@@UAEPAXI@Z
	DD	FLAT:?what@exception@std@@UBEPBDXZ
CONST	ENDS
;	COMDAT ??_C@_0BC@EOODALEL@Unknown?5exception@
CONST	SEGMENT
??_C@_0BC@EOODALEL@Unknown?5exception@ DB 'Unknown exception', 00H ; `string'
CONST	ENDS
;	COMDAT ??_7exception@std@@6B@
CONST	SEGMENT
??_7exception@std@@6B@ DD FLAT:??_R4exception@std@@6B@	; std::exception::`vftable'
	DD	FLAT:??_Eexception@std@@UAEPAXI@Z
	DD	FLAT:?what@exception@std@@UBEPBDXZ
CONST	ENDS
;	COMDAT ??_C@_00CNPNBAHC@@
CONST	SEGMENT
??_C@_00CNPNBAHC@@ DB 00H				; `string'
CONST	ENDS
;	COMDAT xdata$x
xdata$x	SEGMENT
__unwindtable$??$?0U?$pair@$$CBKJ@std@@@?$_Tree_temp_node@V?$allocator@U?$_Tree_node@U?$pair@$$CBKJ@std@@PAX@std@@@std@@@std@@QAE@AAV?$allocator@U?$_Tree_node@U?$pair@$$CBKJ@std@@PAX@std@@@1@PAU?$_Tree_node@U?$pair@$$CBKJ@std@@PAX@1@$$QAU?$pair@$$CBKJ@1@@Z DD 0ffffffffH
	DD	FLAT:__unwindfunclet$??$?0U?$pair@$$CBKJ@std@@@?$_Tree_temp_node@V?$allocator@U?$_Tree_node@U?$pair@$$CBKJ@std@@PAX@std@@@std@@@std@@QAE@AAV?$allocator@U?$_Tree_node@U?$pair@$$CBKJ@std@@PAX@std@@@1@PAU?$_Tree_node@U?$pair@$$CBKJ@std@@PAX@1@$$QAU?$pair@$$CBKJ@1@@Z$1
__ehfuncinfo$??$?0U?$pair@$$CBKJ@std@@@?$_Tree_temp_node@V?$allocator@U?$_Tree_node@U?$pair@$$CBKJ@std@@PAX@std@@@std@@@std@@QAE@AAV?$allocator@U?$_Tree_node@U?$pair@$$CBKJ@std@@PAX@std@@@1@PAU?$_Tree_node@U?$pair@$$CBKJ@std@@PAX@1@$$QAU?$pair@$$CBKJ@1@@Z DD 019930522H
	DD	01H
	DD	FLAT:__unwindtable$??$?0U?$pair@$$CBKJ@std@@@?$_Tree_temp_node@V?$allocator@U?$_Tree_node@U?$pair@$$CBKJ@std@@PAX@std@@@std@@@std@@QAE@AAV?$allocator@U?$_Tree_node@U?$pair@$$CBKJ@std@@PAX@std@@@1@PAU?$_Tree_node@U?$pair@$$CBKJ@std@@PAX@1@$$QAU?$pair@$$CBKJ@1@@Z
	DD	2 DUP(00H)
	DD	2 DUP(00H)
	DD	00H
	DD	01H
xdata$x	ENDS
;	COMDAT xdata$x
xdata$x	SEGMENT
__unwindtable$??0?$_Tree_temp_node_alloc@V?$allocator@U?$_Tree_node@U?$pair@$$CBKJ@std@@PAX@std@@@std@@@std@@QAE@AAV?$allocator@U?$_Tree_node@U?$pair@$$CBKJ@std@@PAX@std@@@1@@Z DD 0ffffffffH
	DD	FLAT:__unwindfunclet$??0?$_Tree_temp_node_alloc@V?$allocator@U?$_Tree_node@U?$pair@$$CBKJ@std@@PAX@std@@@std@@@std@@QAE@AAV?$allocator@U?$_Tree_node@U?$pair@$$CBKJ@std@@PAX@std@@@1@@Z$0
__ehfuncinfo$??0?$_Tree_temp_node_alloc@V?$allocator@U?$_Tree_node@U?$pair@$$CBKJ@std@@PAX@std@@@std@@@std@@QAE@AAV?$allocator@U?$_Tree_node@U?$pair@$$CBKJ@std@@PAX@std@@@1@@Z DD 019930522H
	DD	01H
	DD	FLAT:__unwindtable$??0?$_Tree_temp_node_alloc@V?$allocator@U?$_Tree_node@U?$pair@$$CBKJ@std@@PAX@std@@@std@@@std@@QAE@AAV?$allocator@U?$_Tree_node@U?$pair@$$CBKJ@std@@PAX@std@@@1@@Z
	DD	2 DUP(00H)
	DD	2 DUP(00H)
	DD	00H
	DD	01H
xdata$x	ENDS
;	COMDAT xdata$x
xdata$x	SEGMENT
__unwindtable$??$_Emplace@U?$pair@$$CBKJ@std@@@?$_Tree@V?$_Tmap_traits@KJU?$less@K@std@@V?$allocator@U?$pair@$$CBKJ@std@@@2@$0A@@std@@@std@@IAE?AU?$pair@PAU?$_Tree_node@U?$pair@$$CBKJ@std@@PAX@std@@_N@1@$$QAU?$pair@$$CBKJ@1@@Z DD 0ffffffffH
	DD	FLAT:__unwindfunclet$??$_Emplace@U?$pair@$$CBKJ@std@@@?$_Tree@V?$_Tmap_traits@KJU?$less@K@std@@V?$allocator@U?$pair@$$CBKJ@std@@@2@$0A@@std@@@std@@IAE?AU?$pair@PAU?$_Tree_node@U?$pair@$$CBKJ@std@@PAX@std@@_N@1@$$QAU?$pair@$$CBKJ@1@@Z$2
__ehfuncinfo$??$_Emplace@U?$pair@$$CBKJ@std@@@?$_Tree@V?$_Tmap_traits@KJU?$less@K@std@@V?$allocator@U?$pair@$$CBKJ@std@@@2@$0A@@std@@@std@@IAE?AU?$pair@PAU?$_Tree_node@U?$pair@$$CBKJ@std@@PAX@std@@_N@1@$$QAU?$pair@$$CBKJ@1@@Z DD 019930522H
	DD	01H
	DD	FLAT:__unwindtable$??$_Emplace@U?$pair@$$CBKJ@std@@@?$_Tree@V?$_Tmap_traits@KJU?$less@K@std@@V?$allocator@U?$pair@$$CBKJ@std@@@2@$0A@@std@@@std@@IAE?AU?$pair@PAU?$_Tree_node@U?$pair@$$CBKJ@std@@PAX@std@@_N@1@$$QAU?$pair@$$CBKJ@1@@Z
	DD	2 DUP(00H)
	DD	2 DUP(00H)
	DD	00H
	DD	01H
xdata$x	ENDS
;	COMDAT xdata$x
xdata$x	SEGMENT
__unwindtable$??$insert@$0A@$0A@@?$_Tree@V?$_Tmap_traits@KJU?$less@K@std@@V?$allocator@U?$pair@$$CBKJ@std@@@2@$0A@@std@@@std@@QAE?AU?$pair@V?$_Tree_iterator@V?$_Tree_val@U?$_Tree_simple_types@U?$pair@$$CBKJ@std@@@std@@@std@@@std@@_N@1@$$QAU?$pair@$$CBKJ@1@@Z DD 0ffffffffH
	DD	FLAT:__unwindfunclet$??$insert@$0A@$0A@@?$_Tree@V?$_Tmap_traits@KJU?$less@K@std@@V?$allocator@U?$pair@$$CBKJ@std@@@2@$0A@@std@@@std@@QAE?AU?$pair@V?$_Tree_iterator@V?$_Tree_val@U?$_Tree_simple_types@U?$pair@$$CBKJ@std@@@std@@@std@@@std@@_N@1@$$QAU?$pair@$$CBKJ@1@@Z$2
__ehfuncinfo$??$insert@$0A@$0A@@?$_Tree@V?$_Tmap_traits@KJU?$less@K@std@@V?$allocator@U?$pair@$$CBKJ@std@@@2@$0A@@std@@@std@@QAE?AU?$pair@V?$_Tree_iterator@V?$_Tree_val@U?$_Tree_simple_types@U?$pair@$$CBKJ@std@@@std@@@std@@@std@@_N@1@$$QAU?$pair@$$CBKJ@1@@Z DD 019930522H
	DD	01H
	DD	FLAT:__unwindtable$??$insert@$0A@$0A@@?$_Tree@V?$_Tmap_traits@KJU?$less@K@std@@V?$allocator@U?$pair@$$CBKJ@std@@@2@$0A@@std@@@std@@QAE?AU?$pair@V?$_Tree_iterator@V?$_Tree_val@U?$_Tree_simple_types@U?$pair@$$CBKJ@std@@@std@@@std@@@std@@_N@1@$$QAU?$pair@$$CBKJ@1@@Z
	DD	2 DUP(00H)
	DD	2 DUP(00H)
	DD	00H
	DD	01H
xdata$x	ENDS
;	COMDAT xdata$x
xdata$x	SEGMENT
__unwindtable$?GetGender@CCoupleHelper@@AAEXPAVCCouple@@AAH1@Z DD 0ffffffffH
	DD	FLAT:__unwindfunclet$?GetGender@CCoupleHelper@@AAEXPAVCCouple@@AAH1@Z$0
__ehfuncinfo$?GetGender@CCoupleHelper@@AAEXPAVCCouple@@AAH1@Z DD 019930522H
	DD	01H
	DD	FLAT:__unwindtable$?GetGender@CCoupleHelper@@AAEXPAVCCouple@@AAH1@Z
	DD	2 DUP(00H)
	DD	2 DUP(00H)
	DD	00H
	DD	01H
xdata$x	ENDS
;	COMDAT xdata$x
xdata$x	SEGMENT
__unwindtable$?AddPropose@CCoupleHelper@@QAE_NKJ@Z DD 0ffffffffH
	DD	FLAT:__unwindfunclet$?AddPropose@CCoupleHelper@@QAE_NKJ@Z$2
__ehfuncinfo$?AddPropose@CCoupleHelper@@QAE_NKJ@Z DD 019930522H
	DD	01H
	DD	FLAT:__unwindtable$?AddPropose@CCoupleHelper@@QAE_NKJ@Z
	DD	2 DUP(00H)
	DD	2 DUP(00H)
	DD	00H
	DD	01H
xdata$x	ENDS
;	COMDAT xdata$x
xdata$x	SEGMENT
__unwindtable$?PostItem@CCoupleHelper@@QAEXKABU_COUPLE_ITEM@@H@Z DD 0ffffffffH
	DD	FLAT:__unwindfunclet$?PostItem@CCoupleHelper@@QAEXKABU_COUPLE_ITEM@@H@Z$0
	DD	0ffffffffH
	DD	FLAT:__unwindfunclet$?PostItem@CCoupleHelper@@QAEXKABU_COUPLE_ITEM@@H@Z$1
__ehfuncinfo$?PostItem@CCoupleHelper@@QAEXKABU_COUPLE_ITEM@@H@Z DD 019930522H
	DD	02H
	DD	FLAT:__unwindtable$?PostItem@CCoupleHelper@@QAEXKABU_COUPLE_ITEM@@H@Z
	DD	2 DUP(00H)
	DD	2 DUP(00H)
	DD	00H
	DD	01H
xdata$x	ENDS
;	COMDAT xdata$x
xdata$x	SEGMENT
__unwindtable$?Handler@CCoupleHelper@@QAEXPAUtagDB_OVERLAPPED_PLUS@@K@Z DD 0ffffffffH
	DD	FLAT:__unwindfunclet$?Handler@CCoupleHelper@@QAEXPAUtagDB_OVERLAPPED_PLUS@@K@Z$0
__ehfuncinfo$?Handler@CCoupleHelper@@QAEXPAUtagDB_OVERLAPPED_PLUS@@K@Z DD 019930522H
	DD	01H
	DD	FLAT:__unwindtable$?Handler@CCoupleHelper@@QAEXPAUtagDB_OVERLAPPED_PLUS@@K@Z
	DD	2 DUP(00H)
	DD	2 DUP(00H)
	DD	00H
	DD	01H
xdata$x	ENDS
;	COMDAT xdata$x
xdata$x	SEGMENT
__unwindtable$?Initialize@CCoupleHelper@@QAEHXZ DD 0ffffffffH
	DD	FLAT:__unwindfunclet$?Initialize@CCoupleHelper@@QAEHXZ$0
	DD	0ffffffffH
	DD	FLAT:__unwindfunclet$?Initialize@CCoupleHelper@@QAEHXZ$1
__ehfuncinfo$?Initialize@CCoupleHelper@@QAEHXZ DD 019930522H
	DD	02H
	DD	FLAT:__unwindtable$?Initialize@CCoupleHelper@@QAEHXZ
	DD	2 DUP(00H)
	DD	2 DUP(00H)
	DD	00H
	DD	01H
xdata$x	ENDS
;	COMDAT xdata$x
xdata$x	SEGMENT
__unwindtable$?Instance@CCoupleHelper@@SAPAV1@XZ DD 0ffffffffH
	DD	FLAT:__unwindfunclet$?Instance@CCoupleHelper@@SAPAV1@XZ$0
__ehfuncinfo$?Instance@CCoupleHelper@@SAPAV1@XZ DD 019930522H
	DD	01H
	DD	FLAT:__unwindtable$?Instance@CCoupleHelper@@SAPAV1@XZ
	DD	2 DUP(00H)
	DD	2 DUP(00H)
	DD	00H
	DD	01H
xdata$x	ENDS
;	COMDAT xdata$x
xdata$x	SEGMENT
__ehfuncinfo$??1CCoupleHelper@@UAE@XZ DD 019930522H
	DD	00H
	DD	00H
	DD	2 DUP(00H)
	DD	2 DUP(00H)
	DD	00H
	DD	05H
xdata$x	ENDS
;	COMDAT xdata$x
xdata$x	SEGMENT
__unwindtable$?Restore@CCoupleController@@QAEHXZ DD 0ffffffffH
	DD	FLAT:__unwindfunclet$?Restore@CCoupleController@@QAEHXZ$0
	DD	0ffffffffH
	DD	FLAT:__unwindfunclet$?Restore@CCoupleController@@QAEHXZ$3
__ehfuncinfo$?Restore@CCoupleController@@QAEHXZ DD 019930522H
	DD	02H
	DD	FLAT:__unwindtable$?Restore@CCoupleController@@QAEHXZ
	DD	2 DUP(00H)
	DD	2 DUP(00H)
	DD	00H
	DD	01H
xdata$x	ENDS
; Function compile flags: /Ogtp
; File C:\Program Files\Microsoft Visual Studio\2022\Professional\VC\Tools\MSVC\14.44.35207\include\xmemory
;	COMDAT ??1?$_Alloc_construct_ptr@V?$allocator@U?$_Tree_node@U?$pair@$$CBKJ@std@@PAX@std@@@std@@@std@@QAE@XZ
_TEXT	SEGMENT
??1?$_Alloc_construct_ptr@V?$allocator@U?$_Tree_node@U?$pair@$$CBKJ@std@@PAX@std@@@std@@@std@@QAE@XZ PROC ; std::_Alloc_construct_ptr<std::allocator<std::_Tree_node<std::pair<unsigned long const ,long>,void *> > >::~_Alloc_construct_ptr<std::allocator<std::_Tree_node<std::pair<unsigned long const ,long>,void *> > >, COMDAT
; _this$ = ecx

; 1172 :         if (_Ptr) {

  00000	8b 41 04	 mov	 eax, DWORD PTR [ecx+4]
  00003	85 c0		 test	 eax, eax
  00005	74 0b		 je	 SHORT $LN10@Alloc_cons

; 289  :         ::operator delete(_Ptr, _Bytes);

  00007	6a 18		 push	 24			; 00000018H
  00009	50		 push	 eax
  0000a	e8 00 00 00 00	 call	 ??3@YAXPAXI@Z		; operator delete
  0000f	83 c4 08	 add	 esp, 8
$LN10@Alloc_cons:

; 1173 :             _Al.deallocate(_Ptr, 1);
; 1174 :         }
; 1175 :     }

  00012	c3		 ret	 0
??1?$_Alloc_construct_ptr@V?$allocator@U?$_Tree_node@U?$pair@$$CBKJ@std@@PAX@std@@@std@@@std@@QAE@XZ ENDP ; std::_Alloc_construct_ptr<std::allocator<std::_Tree_node<std::pair<unsigned long const ,long>,void *> > >::~_Alloc_construct_ptr<std::allocator<std::_Tree_node<std::pair<unsigned long const ,long>,void *> > >
_TEXT	ENDS
; Function compile flags: /Ogtp
; File C:\Program Files\Microsoft Visual Studio\2022\Professional\VC\Tools\MSVC\14.44.35207\include\xtree
; File C:\Program Files\Microsoft Visual Studio\2022\Professional\VC\Tools\MSVC\14.44.35207\include\type_traits
; File C:\Program Files\Microsoft Visual Studio\2022\Professional\VC\Tools\MSVC\14.44.35207\include\xtree
; File C:\Program Files\Microsoft Visual Studio\2022\Professional\VC\Tools\MSVC\14.44.35207\include\type_traits
; File C:\Program Files\Microsoft Visual Studio\2022\Professional\VC\Tools\MSVC\14.44.35207\include\xtree
;	COMDAT ??$_Find_lower_bound@K@?$_Tree@V?$_Tmap_traits@KJU?$less@K@std@@V?$allocator@U?$pair@$$CBKJ@std@@@2@$0A@@std@@@std@@IBE?AU?$_Tree_find_result@PAU?$_Tree_node@U?$pair@$$CBKJ@std@@PAX@std@@@1@ABK@Z
_TEXT	SEGMENT
___$ReturnUdt$ = 8					; size = 4
__Keyval$ = 12						; size = 4
??$_Find_lower_bound@K@?$_Tree@V?$_Tmap_traits@KJU?$less@K@std@@V?$allocator@U?$pair@$$CBKJ@std@@@2@$0A@@std@@@std@@IBE?AU?$_Tree_find_result@PAU?$_Tree_node@U?$pair@$$CBKJ@std@@PAX@std@@@1@ABK@Z PROC ; std::_Tree<std::_Tmap_traits<unsigned long,long,std::less<unsigned long>,std::allocator<std::pair<unsigned long const ,long> >,0> >::_Find_lower_bound<unsigned long>, COMDAT
; _this$ = ecx

; 1628 :     _Tree_find_result<_Nodeptr> _Find_lower_bound(const _Keyty& _Keyval) const {

  00000	55		 push	 ebp
  00001	8b ec		 mov	 ebp, esp

; 1629 :         const auto _Scary = _Get_scary();
; 1630 :         _Tree_find_result<_Nodeptr> _Result{{_Scary->_Myhead->_Parent, _Tree_child::_Right}, _Scary->_Myhead};

  00003	8b 09		 mov	 ecx, DWORD PTR [ecx]
  00005	8b 55 08	 mov	 edx, DWORD PTR ___$ReturnUdt$[ebp]
  00008	8b 41 04	 mov	 eax, DWORD PTR [ecx+4]
  0000b	89 02		 mov	 DWORD PTR [edx], eax
  0000d	c7 42 04 00 00
	00 00		 mov	 DWORD PTR [edx+4], 0
  00014	89 4a 08	 mov	 DWORD PTR [edx+8], ecx

; 1631 :         _Nodeptr _Trynode = _Result._Location._Parent;
; 1632 :         while (!_Trynode->_Isnil) {

  00017	80 78 0d 00	 cmp	 BYTE PTR [eax+13], 0
  0001b	75 28		 jne	 SHORT $LN13@Find_lower
; File C:\Program Files\Microsoft Visual Studio\2022\Professional\VC\Tools\MSVC\14.44.35207\include\type_traits

; 2380 :         return _Left < _Right;

  0001d	8b 4d 0c	 mov	 ecx, DWORD PTR __Keyval$[ebp]
  00020	56		 push	 esi
  00021	8b 31		 mov	 esi, DWORD PTR [ecx]
$LL2@Find_lower:
; File C:\Program Files\Microsoft Visual Studio\2022\Professional\VC\Tools\MSVC\14.44.35207\include\xtree

; 1633 :             _Result._Location._Parent = _Trynode;

  00023	89 02		 mov	 DWORD PTR [edx], eax
; File C:\Program Files\Microsoft Visual Studio\2022\Professional\VC\Tools\MSVC\14.44.35207\include\type_traits

; 2380 :         return _Left < _Right;

  00025	39 70 10	 cmp	 DWORD PTR [eax+16], esi
; File C:\Program Files\Microsoft Visual Studio\2022\Professional\VC\Tools\MSVC\14.44.35207\include\xtree

; 1634 :             if (_DEBUG_LT_PRED(_Getcomp(), _Traits::_Kfn(_Trynode->_Myval), _Keyval)) {

  00028	73 07		 jae	 SHORT $LN4@Find_lower

; 1635 :                 _Result._Location._Child = _Tree_child::_Right;
; 1636 :                 _Trynode                 = _Trynode->_Right;

  0002a	8b 40 08	 mov	 eax, DWORD PTR [eax+8]
  0002d	33 c9		 xor	 ecx, ecx

; 1637 :             } else {

  0002f	eb 0a		 jmp	 SHORT $LN5@Find_lower
$LN4@Find_lower:

; 1638 :                 _Result._Location._Child = _Tree_child::_Left;
; 1639 :                 _Result._Bound           = _Trynode;

  00031	89 42 08	 mov	 DWORD PTR [edx+8], eax

; 1640 :                 _Trynode                 = _Trynode->_Left;

  00034	b9 01 00 00 00	 mov	 ecx, 1
  00039	8b 00		 mov	 eax, DWORD PTR [eax]
$LN5@Find_lower:

; 1631 :         _Nodeptr _Trynode = _Result._Location._Parent;
; 1632 :         while (!_Trynode->_Isnil) {

  0003b	89 4a 04	 mov	 DWORD PTR [edx+4], ecx
  0003e	80 78 0d 00	 cmp	 BYTE PTR [eax+13], 0
  00042	74 df		 je	 SHORT $LL2@Find_lower
  00044	5e		 pop	 esi
$LN13@Find_lower:

; 1641 :             }
; 1642 :         }
; 1643 : 
; 1644 :         return _Result;
; 1645 :     }

  00045	8b c2		 mov	 eax, edx
  00047	5d		 pop	 ebp
  00048	c2 08 00	 ret	 8
??$_Find_lower_bound@K@?$_Tree@V?$_Tmap_traits@KJU?$less@K@std@@V?$allocator@U?$pair@$$CBKJ@std@@@2@$0A@@std@@@std@@IBE?AU?$_Tree_find_result@PAU?$_Tree_node@U?$pair@$$CBKJ@std@@PAX@std@@@1@ABK@Z ENDP ; std::_Tree<std::_Tmap_traits<unsigned long,long,std::less<unsigned long>,std::allocator<std::pair<unsigned long const ,long> >,0> >::_Find_lower_bound<unsigned long>
_TEXT	ENDS
; Function compile flags: /Ogtp
; File C:\Program Files\Microsoft Visual Studio\2022\Professional\VC\Tools\MSVC\14.44.35207\include\xtree
; File C:\Program Files\Microsoft Visual Studio\2022\Professional\VC\Tools\MSVC\14.44.35207\include\utility
; File C:\Program Files\Microsoft Visual Studio\2022\Professional\VC\Tools\MSVC\14.44.35207\include\xmemory
; File C:\Program Files\Microsoft Visual Studio\2022\Professional\VC\Tools\MSVC\14.44.35207\include\xtree
;	COMDAT ??$_Erase_tree@V?$allocator@U?$_Tree_node@U?$pair@$$CBKJ@std@@PAX@std@@@std@@@?$_Tree_val@U?$_Tree_simple_types@U?$pair@$$CBKJ@std@@@std@@@std@@QAEXAAV?$allocator@U?$_Tree_node@U?$pair@$$CBKJ@std@@PAX@std@@@1@PAU?$_Tree_node@U?$pair@$$CBKJ@std@@PAX@1@@Z
_TEXT	SEGMENT
__Al$ = 8						; size = 4
__Rootnode$ = 12					; size = 4
??$_Erase_tree@V?$allocator@U?$_Tree_node@U?$pair@$$CBKJ@std@@PAX@std@@@std@@@?$_Tree_val@U?$_Tree_simple_types@U?$pair@$$CBKJ@std@@@std@@@std@@QAEXAAV?$allocator@U?$_Tree_node@U?$pair@$$CBKJ@std@@PAX@std@@@1@PAU?$_Tree_node@U?$pair@$$CBKJ@std@@PAX@1@@Z PROC ; std::_Tree_val<std::_Tree_simple_types<std::pair<unsigned long const ,long> > >::_Erase_tree<std::allocator<std::_Tree_node<std::pair<unsigned long const ,long>,void *> > >, COMDAT
; _this$ = ecx

; 767  :     void _Erase_tree(_Alnode& _Al, _Nodeptr _Rootnode) noexcept {

  00000	55		 push	 ebp
  00001	8b ec		 mov	 ebp, esp
  00003	53		 push	 ebx
  00004	56		 push	 esi

; 768  :         while (!_Rootnode->_Isnil) { // free subtrees, then node

  00005	8b 75 0c	 mov	 esi, DWORD PTR __Rootnode$[ebp]
  00008	8b d9		 mov	 ebx, ecx
  0000a	80 7e 0d 00	 cmp	 BYTE PTR [esi+13], 0
  0000e	75 25		 jne	 SHORT $LN34@Erase_tree
  00010	57		 push	 edi
  00011	8b 7d 08	 mov	 edi, DWORD PTR __Al$[ebp]
$LL2@Erase_tree:

; 769  :             _Erase_tree(_Al, _Rootnode->_Right);

  00014	ff 76 08	 push	 DWORD PTR [esi+8]
  00017	8b cb		 mov	 ecx, ebx
  00019	57		 push	 edi
  0001a	e8 00 00 00 00	 call	 ??$_Erase_tree@V?$allocator@U?$_Tree_node@U?$pair@$$CBKJ@std@@PAX@std@@@std@@@?$_Tree_val@U?$_Tree_simple_types@U?$pair@$$CBKJ@std@@@std@@@std@@QAEXAAV?$allocator@U?$_Tree_node@U?$pair@$$CBKJ@std@@PAX@std@@@1@PAU?$_Tree_node@U?$pair@$$CBKJ@std@@PAX@1@@Z ; std::_Tree_val<std::_Tree_simple_types<std::pair<unsigned long const ,long> > >::_Erase_tree<std::allocator<std::_Tree_node<std::pair<unsigned long const ,long>,void *> > >
; File C:\Program Files\Microsoft Visual Studio\2022\Professional\VC\Tools\MSVC\14.44.35207\include\utility

; 773  :     _Ty _Old_val = static_cast<_Ty&&>(_Val);

  0001f	8b c6		 mov	 eax, esi

; 774  :     _Val         = static_cast<_Other&&>(_New_val);

  00021	8b 36		 mov	 esi, DWORD PTR [esi]
; File C:\Program Files\Microsoft Visual Studio\2022\Professional\VC\Tools\MSVC\14.44.35207\include\xmemory

; 289  :         ::operator delete(_Ptr, _Bytes);

  00023	6a 18		 push	 24			; 00000018H
  00025	50		 push	 eax
  00026	e8 00 00 00 00	 call	 ??3@YAXPAXI@Z		; operator delete
  0002b	83 c4 08	 add	 esp, 8
; File C:\Program Files\Microsoft Visual Studio\2022\Professional\VC\Tools\MSVC\14.44.35207\include\xtree

; 768  :         while (!_Rootnode->_Isnil) { // free subtrees, then node

  0002e	80 7e 0d 00	 cmp	 BYTE PTR [esi+13], 0
  00032	74 e0		 je	 SHORT $LL2@Erase_tree
  00034	5f		 pop	 edi
$LN34@Erase_tree:
  00035	5e		 pop	 esi

; 770  :             _Alnode::value_type::_Freenode(_Al, _STD exchange(_Rootnode, _Rootnode->_Left));
; 771  :         }
; 772  :     }

  00036	5b		 pop	 ebx
  00037	5d		 pop	 ebp
  00038	c2 08 00	 ret	 8
??$_Erase_tree@V?$allocator@U?$_Tree_node@U?$pair@$$CBKJ@std@@PAX@std@@@std@@@?$_Tree_val@U?$_Tree_simple_types@U?$pair@$$CBKJ@std@@@std@@@std@@QAEXAAV?$allocator@U?$_Tree_node@U?$pair@$$CBKJ@std@@PAX@std@@@1@PAU?$_Tree_node@U?$pair@$$CBKJ@std@@PAX@1@@Z ENDP ; std::_Tree_val<std::_Tree_simple_types<std::pair<unsigned long const ,long> > >::_Erase_tree<std::allocator<std::_Tree_node<std::pair<unsigned long const ,long>,void *> > >
_TEXT	ENDS
; Function compile flags: /Ogtp
;	COMDAT ??__FsCoupleHelper@?1??Instance@CCoupleHelper@@SAPAV1@XZ@YAXXZ
text$yd	SEGMENT
??__FsCoupleHelper@?1??Instance@CCoupleHelper@@SAPAV1@XZ@YAXXZ PROC ; `CCoupleHelper::Instance'::`2'::`dynamic atexit destructor for 'sCoupleHelper'', COMDAT
  00000	b9 00 00 00 00	 mov	 ecx, OFFSET ?sCoupleHelper@?1??Instance@CCoupleHelper@@SAPAV2@XZ@4V2@A
  00005	e9 00 00 00 00	 jmp	 ??1CCoupleHelper@@UAE@XZ ; CCoupleHelper::~CCoupleHelper
??__FsCoupleHelper@?1??Instance@CCoupleHelper@@SAPAV1@XZ@YAXXZ ENDP ; `CCoupleHelper::Instance'::`2'::`dynamic atexit destructor for 'sCoupleHelper''
text$yd	ENDS
; Function compile flags: /Ogtp
; File C:\IAGOS\server\v18\Source\Source\_Network\Misc\Include\Ar.h
;	COMDAT ??$?5K@CAr@@QAEAAV0@AAK@Z
_TEXT	SEGMENT
_t$ = 8							; size = 4
??$?5K@CAr@@QAEAAV0@AAK@Z PROC				; CAr::operator>><unsigned long>, COMDAT
; _this$ = ecx

; 302  : {

  00000	55		 push	 ebp
  00001	8b ec		 mov	 ebp, esp
  00003	8b d1		 mov	 edx, ecx

; 303  : 	if (m_lpBufCur + sizeof(T) <= m_lpBufMax)

  00005	8b 4a 08	 mov	 ecx, DWORD PTR [edx+8]
  00008	8d 41 04	 lea	 eax, DWORD PTR [ecx+4]
  0000b	3b 42 0c	 cmp	 eax, DWORD PTR [edx+12]
  0000e	8b 45 08	 mov	 eax, DWORD PTR _t$[ebp]
  00011	77 0e		 ja	 SHORT $LN2@operator

; 304  : 	{
; 305  : 		t = *(UNALIGNED T*)m_lpBufCur;

  00013	8b 09		 mov	 ecx, DWORD PTR [ecx]
  00015	89 08		 mov	 DWORD PTR [eax], ecx

; 312  : 	}
; 313  : 	return *this;
; 314  : }

  00017	8b c2		 mov	 eax, edx
  00019	83 42 08 04	 add	 DWORD PTR [edx+8], 4
  0001d	5d		 pop	 ebp
  0001e	c2 04 00	 ret	 4
$LN2@operator:

; 306  : 		m_lpBufCur += sizeof(T);
; 307  : 	}
; 308  : 	else
; 309  : 	{
; 310  : 		t = T();

  00021	c7 00 00 00 00
	00		 mov	 DWORD PTR [eax], 0

; 311  : 		m_lpBufCur = m_lpBufMax;

  00027	8b 42 0c	 mov	 eax, DWORD PTR [edx+12]
  0002a	89 42 08	 mov	 DWORD PTR [edx+8], eax

; 312  : 	}
; 313  : 	return *this;
; 314  : }

  0002d	8b c2		 mov	 eax, edx
  0002f	5d		 pop	 ebp
  00030	c2 04 00	 ret	 4
??$?5K@CAr@@QAEAAV0@AAK@Z ENDP				; CAr::operator>><unsigned long>
_TEXT	ENDS
; Function compile flags: /Ogtp
; File C:\IAGOS\server\v18\Source\Source\_Network\Misc\Include\Ar.h
;	COMDAT ??$?5H@CAr@@QAEAAV0@AAH@Z
_TEXT	SEGMENT
_t$ = 8							; size = 4
??$?5H@CAr@@QAEAAV0@AAH@Z PROC				; CAr::operator>><int>, COMDAT
; _this$ = ecx

; 302  : {

  00000	55		 push	 ebp
  00001	8b ec		 mov	 ebp, esp
  00003	8b d1		 mov	 edx, ecx

; 303  : 	if (m_lpBufCur + sizeof(T) <= m_lpBufMax)

  00005	8b 4a 08	 mov	 ecx, DWORD PTR [edx+8]
  00008	8d 41 04	 lea	 eax, DWORD PTR [ecx+4]
  0000b	3b 42 0c	 cmp	 eax, DWORD PTR [edx+12]
  0000e	8b 45 08	 mov	 eax, DWORD PTR _t$[ebp]
  00011	77 0e		 ja	 SHORT $LN2@operator

; 304  : 	{
; 305  : 		t = *(UNALIGNED T*)m_lpBufCur;

  00013	8b 09		 mov	 ecx, DWORD PTR [ecx]
  00015	89 08		 mov	 DWORD PTR [eax], ecx

; 312  : 	}
; 313  : 	return *this;
; 314  : }

  00017	8b c2		 mov	 eax, edx
  00019	83 42 08 04	 add	 DWORD PTR [edx+8], 4
  0001d	5d		 pop	 ebp
  0001e	c2 04 00	 ret	 4
$LN2@operator:

; 306  : 		m_lpBufCur += sizeof(T);
; 307  : 	}
; 308  : 	else
; 309  : 	{
; 310  : 		t = T();

  00021	c7 00 00 00 00
	00		 mov	 DWORD PTR [eax], 0

; 311  : 		m_lpBufCur = m_lpBufMax;

  00027	8b 42 0c	 mov	 eax, DWORD PTR [edx+12]
  0002a	89 42 08	 mov	 DWORD PTR [edx+8], eax

; 312  : 	}
; 313  : 	return *this;
; 314  : }

  0002d	8b c2		 mov	 eax, edx
  0002f	5d		 pop	 ebp
  00030	c2 04 00	 ret	 4
??$?5H@CAr@@QAEAAV0@AAH@Z ENDP				; CAr::operator>><int>
_TEXT	ENDS
; Function compile flags: /Ogtp
; File C:\Program Files\Microsoft Visual Studio\2022\Professional\VC\Tools\MSVC\14.44.35207\include\xtree
;	COMDAT ??E?$_Tree_unchecked_const_iterator@V?$_Tree_val@U?$_Tree_simple_types@U?$pair@$$CBKJ@std@@@std@@@std@@U_Iterator_base0@2@@std@@QAEAAV01@XZ
_TEXT	SEGMENT
??E?$_Tree_unchecked_const_iterator@V?$_Tree_val@U?$_Tree_simple_types@U?$pair@$$CBKJ@std@@@std@@@std@@U_Iterator_base0@2@@std@@QAEAAV01@XZ PROC ; std::_Tree_unchecked_const_iterator<std::_Tree_val<std::_Tree_simple_types<std::pair<unsigned long const ,long> > >,std::_Iterator_base0>::operator++, COMDAT
; _this$ = ecx

; 49   :     _Tree_unchecked_const_iterator& operator++() noexcept {

  00000	56		 push	 esi
  00001	8b f1		 mov	 esi, ecx
  00003	57		 push	 edi

; 50   :         if (_Ptr->_Right->_Isnil) { // climb looking for right subtree

  00004	8b 16		 mov	 edx, DWORD PTR [esi]
  00006	8b 7a 08	 mov	 edi, DWORD PTR [edx+8]
  00009	80 7f 0d 00	 cmp	 BYTE PTR [edi+13], 0
  0000d	74 22		 je	 SHORT $LN4@operator

; 51   :             _Nodeptr _Pnode;
; 52   :             while (!(_Pnode = _Ptr->_Parent)->_Isnil && _Ptr == _Pnode->_Right) {

  0000f	8b 42 04	 mov	 eax, DWORD PTR [edx+4]
  00012	80 78 0d 00	 cmp	 BYTE PTR [eax+13], 0
  00016	75 12		 jne	 SHORT $LN21@operator
$LL2@operator:
  00018	3b 50 08	 cmp	 edx, DWORD PTR [eax+8]
  0001b	75 0d		 jne	 SHORT $LN21@operator

; 53   :                 _Ptr = _Pnode; // ==> parent while right subtree

  0001d	89 06		 mov	 DWORD PTR [esi], eax
  0001f	8b d0		 mov	 edx, eax
  00021	8b 40 04	 mov	 eax, DWORD PTR [eax+4]
  00024	80 78 0d 00	 cmp	 BYTE PTR [eax+13], 0
  00028	74 ee		 je	 SHORT $LL2@operator
$LN21@operator:

; 54   :             }
; 55   : 
; 56   :             _Ptr = _Pnode; // ==> parent (head if end())
; 57   :         } else {
; 58   :             _Ptr = _Mytree::_Min(_Ptr->_Right); // ==> smallest of right subtree
; 59   :         }
; 60   : 
; 61   :         return *this;

  0002a	89 06		 mov	 DWORD PTR [esi], eax

; 62   :     }

  0002c	8b c6		 mov	 eax, esi
  0002e	5f		 pop	 edi
  0002f	5e		 pop	 esi
  00030	c3		 ret	 0
$LN4@operator:

; 476  :         while (!_Pnode->_Left->_Isnil) {

  00031	8b 0f		 mov	 ecx, DWORD PTR [edi]
  00033	80 79 0d 00	 cmp	 BYTE PTR [ecx+13], 0
  00037	75 13		 jne	 SHORT $LN10@operator
  00039	0f 1f 80 00 00
	00 00		 npad	 7
$LL9@operator:
  00040	8b 01		 mov	 eax, DWORD PTR [ecx]

; 477  :             _Pnode = _Pnode->_Left;

  00042	8b f9		 mov	 edi, ecx
  00044	8b c8		 mov	 ecx, eax
  00046	80 78 0d 00	 cmp	 BYTE PTR [eax+13], 0
  0004a	74 f4		 je	 SHORT $LL9@operator
$LN10@operator:

; 54   :             }
; 55   : 
; 56   :             _Ptr = _Pnode; // ==> parent (head if end())
; 57   :         } else {
; 58   :             _Ptr = _Mytree::_Min(_Ptr->_Right); // ==> smallest of right subtree
; 59   :         }
; 60   : 
; 61   :         return *this;

  0004c	89 3e		 mov	 DWORD PTR [esi], edi

; 62   :     }

  0004e	8b c6		 mov	 eax, esi
  00050	5f		 pop	 edi
  00051	5e		 pop	 esi
  00052	c3		 ret	 0
??E?$_Tree_unchecked_const_iterator@V?$_Tree_val@U?$_Tree_simple_types@U?$pair@$$CBKJ@std@@@std@@@std@@U_Iterator_base0@2@@std@@QAEAAV01@XZ ENDP ; std::_Tree_unchecked_const_iterator<std::_Tree_val<std::_Tree_simple_types<std::pair<unsigned long const ,long> > >,std::_Iterator_base0>::operator++
_TEXT	ENDS
; Function compile flags: /Ogtp
;	COMDAT ??_GCCoupleHelper@@UAEPAXI@Z
_TEXT	SEGMENT
___flags$ = 8						; size = 4
??_GCCoupleHelper@@UAEPAXI@Z PROC			; CCoupleHelper::`scalar deleting destructor', COMDAT
; _this$ = ecx
  00000	55		 push	 ebp
  00001	8b ec		 mov	 ebp, esp
  00003	56		 push	 esi
  00004	8b f1		 mov	 esi, ecx
  00006	e8 00 00 00 00	 call	 ??1CCoupleHelper@@UAE@XZ ; CCoupleHelper::~CCoupleHelper
  0000b	f6 45 08 01	 test	 BYTE PTR ___flags$[ebp], 1
  0000f	74 0b		 je	 SHORT $LN5@scalar
  00011	6a 14		 push	 20			; 00000014H
  00013	56		 push	 esi
  00014	e8 00 00 00 00	 call	 ??3@YAXPAXI@Z		; operator delete
  00019	83 c4 08	 add	 esp, 8
$LN5@scalar:
  0001c	8b c6		 mov	 eax, esi
  0001e	5e		 pop	 esi
  0001f	5d		 pop	 ebp
  00020	c2 04 00	 ret	 4
??_GCCoupleHelper@@UAEPAXI@Z ENDP			; CCoupleHelper::`scalar deleting destructor'
_TEXT	ENDS
; Function compile flags: /Ogtp
; File C:\Program Files\Microsoft Visual Studio\2022\Professional\VC\Tools\MSVC\14.44.35207\include\xtree
;	COMDAT ?_Insert_node@?$_Tree_val@U?$_Tree_simple_types@U?$pair@$$CBKJ@std@@@std@@@std@@QAEPAU?$_Tree_node@U?$pair@$$CBKJ@std@@PAX@2@U?$_Tree_id@PAU?$_Tree_node@U?$pair@$$CBKJ@std@@PAX@std@@@2@QAU32@@Z
_TEXT	SEGMENT
__Head$1$ = -4						; size = 4
__Loc$ = 8						; size = 8
__Newnode$ = 16						; size = 4
?_Insert_node@?$_Tree_val@U?$_Tree_simple_types@U?$pair@$$CBKJ@std@@@std@@@std@@QAEPAU?$_Tree_node@U?$pair@$$CBKJ@std@@PAX@2@U?$_Tree_id@PAU?$_Tree_node@U?$pair@$$CBKJ@std@@PAX@std@@@2@QAU32@@Z PROC ; std::_Tree_val<std::_Tree_simple_types<std::pair<unsigned long const ,long> > >::_Insert_node, COMDAT
; _this$ = ecx

; 669  :     _Nodeptr _Insert_node(const _Tree_id<_Nodeptr> _Loc, const _Nodeptr _Newnode) noexcept {

  00000	55		 push	 ebp
  00001	8b ec		 mov	 ebp, esp
  00003	51		 push	 ecx

; 670  :         ++_Mysize;
; 671  :         const auto _Head  = _Myhead;
; 672  :         _Newnode->_Parent = _Loc._Parent;

  00004	8b 55 08	 mov	 edx, DWORD PTR __Loc$[ebp]
  00007	53		 push	 ebx
  00008	8b d9		 mov	 ebx, ecx
  0000a	57		 push	 edi
  0000b	8b 7d 10	 mov	 edi, DWORD PTR __Newnode$[ebp]
  0000e	8b 03		 mov	 eax, DWORD PTR [ebx]
  00010	ff 43 04	 inc	 DWORD PTR [ebx+4]
  00013	89 45 fc	 mov	 DWORD PTR __Head$1$[ebp], eax
  00016	89 57 04	 mov	 DWORD PTR [edi+4], edx

; 673  :         if (_Loc._Parent == _Head) { // first node in tree, just set head values

  00019	3b d0		 cmp	 edx, eax
  0001b	75 16		 jne	 SHORT $LN5@Insert_nod

; 674  :             _Head->_Left     = _Newnode;

  0001d	89 38		 mov	 DWORD PTR [eax], edi

; 675  :             _Head->_Parent   = _Newnode;

  0001f	89 78 04	 mov	 DWORD PTR [eax+4], edi

; 676  :             _Head->_Right    = _Newnode;

  00022	89 78 08	 mov	 DWORD PTR [eax+8], edi

; 735  :         return _Newnode;
; 736  :     }

  00025	8b c7		 mov	 eax, edi
  00027	c6 47 0c 01	 mov	 BYTE PTR [edi+12], 1
  0002b	5f		 pop	 edi
  0002c	5b		 pop	 ebx
  0002d	8b e5		 mov	 esp, ebp
  0002f	5d		 pop	 ebp
  00030	c2 0c 00	 ret	 12			; 0000000cH
$LN5@Insert_nod:

; 677  :             _Newnode->_Color = _Black; // the root is black
; 678  :             return _Newnode;
; 679  :         }
; 680  : 
; 681  :         _STL_INTERNAL_CHECK(_Loc._Child != _Tree_child::_Unused);
; 682  :         if (_Loc._Child == _Tree_child::_Right) { // add to right of _Loc._Parent

  00033	83 7d 0c 00	 cmp	 DWORD PTR __Loc$[ebp+4], 0
  00037	75 0d		 jne	 SHORT $LN6@Insert_nod

; 683  :             _STL_INTERNAL_CHECK(_Loc._Parent->_Right->_Isnil);
; 684  :             _Loc._Parent->_Right = _Newnode;

  00039	89 7a 08	 mov	 DWORD PTR [edx+8], edi

; 685  :             if (_Loc._Parent == _Head->_Right) { // remember rightmost node

  0003c	3b 50 08	 cmp	 edx, DWORD PTR [eax+8]
  0003f	75 0d		 jne	 SHORT $LN9@Insert_nod

; 686  :                 _Head->_Right = _Newnode;

  00041	89 78 08	 mov	 DWORD PTR [eax+8], edi

; 687  :             }
; 688  :         } else { // add to left of _Loc._Parent

  00044	eb 08		 jmp	 SHORT $LN9@Insert_nod
$LN6@Insert_nod:

; 689  :             _STL_INTERNAL_CHECK(_Loc._Parent->_Left->_Isnil);
; 690  :             _Loc._Parent->_Left = _Newnode;

  00046	89 3a		 mov	 DWORD PTR [edx], edi

; 691  :             if (_Loc._Parent == _Head->_Left) { // remember leftmost node

  00048	3b 10		 cmp	 edx, DWORD PTR [eax]
  0004a	75 02		 jne	 SHORT $LN9@Insert_nod

; 692  :                 _Head->_Left = _Newnode;

  0004c	89 38		 mov	 DWORD PTR [eax], edi
$LN9@Insert_nod:

; 693  :             }
; 694  :         }
; 695  : 
; 696  :         for (_Nodeptr _Pnode = _Newnode; _Pnode->_Parent->_Color == _Red;) {

  0004e	8b 4f 04	 mov	 ecx, DWORD PTR [edi+4]
  00051	8b c7		 mov	 eax, edi
  00053	80 79 0c 00	 cmp	 BYTE PTR [ecx+12], 0
  00057	0f 85 7d 01 00
	00		 jne	 $LN3@Insert_nod
  0005d	56		 push	 esi
  0005e	66 90		 npad	 2
$LL4@Insert_nod:

; 697  :             if (_Pnode->_Parent == _Pnode->_Parent->_Parent->_Left) { // fixup red-red in left subtree

  00060	8b 50 04	 mov	 edx, DWORD PTR [eax+4]
  00063	8b 72 04	 mov	 esi, DWORD PTR [edx+4]
  00066	8b 0e		 mov	 ecx, DWORD PTR [esi]
  00068	3b d1		 cmp	 edx, ecx
  0006a	0f 85 aa 00 00
	00		 jne	 $LN10@Insert_nod

; 698  :                 const auto _Parent_sibling = _Pnode->_Parent->_Parent->_Right;

  00070	8b 4e 08	 mov	 ecx, DWORD PTR [esi+8]

; 699  :                 if (_Parent_sibling->_Color == _Red) { // parent's sibling has two red children, blacken both

  00073	80 79 0c 00	 cmp	 BYTE PTR [ecx+12], 0
  00077	0f 84 a3 00 00
	00		 je	 $LN82@Insert_nod

; 700  :                     _Pnode->_Parent->_Color          = _Black;
; 701  :                     _Parent_sibling->_Color          = _Black;
; 702  :                     _Pnode->_Parent->_Parent->_Color = _Red;
; 703  :                     _Pnode                           = _Pnode->_Parent->_Parent;
; 704  :                 } else { // parent's sibling has red and black children
; 705  :                     if (_Pnode == _Pnode->_Parent->_Right) { // rotate right child to left

  0007d	8b 72 08	 mov	 esi, DWORD PTR [edx+8]
  00080	3b c6		 cmp	 eax, esi
  00082	75 37		 jne	 SHORT $LN57@Insert_nod

; 485  :         _Wherenode->_Right = _Pnode->_Left;

  00084	8b 0e		 mov	 ecx, DWORD PTR [esi]

; 706  :                         _Pnode = _Pnode->_Parent;

  00086	8b c2		 mov	 eax, edx

; 485  :         _Wherenode->_Right = _Pnode->_Left;

  00088	89 4a 08	 mov	 DWORD PTR [edx+8], ecx

; 486  : 
; 487  :         if (!_Pnode->_Left->_Isnil) {

  0008b	8b 0e		 mov	 ecx, DWORD PTR [esi]
  0008d	80 79 0d 00	 cmp	 BYTE PTR [ecx+13], 0
  00091	75 03		 jne	 SHORT $LN21@Insert_nod

; 488  :             _Pnode->_Left->_Parent = _Wherenode;

  00093	89 41 04	 mov	 DWORD PTR [ecx+4], eax
$LN21@Insert_nod:

; 489  :         }
; 490  : 
; 491  :         _Pnode->_Parent = _Wherenode->_Parent;

  00096	8b 4a 04	 mov	 ecx, DWORD PTR [edx+4]
  00099	89 4e 04	 mov	 DWORD PTR [esi+4], ecx

; 492  : 
; 493  :         if (_Wherenode == _Myhead->_Parent) {

  0009c	8b 0b		 mov	 ecx, DWORD PTR [ebx]
  0009e	3b 41 04	 cmp	 eax, DWORD PTR [ecx+4]
  000a1	75 05		 jne	 SHORT $LN22@Insert_nod

; 494  :             _Myhead->_Parent = _Pnode;

  000a3	89 71 04	 mov	 DWORD PTR [ecx+4], esi
  000a6	eb 0e		 jmp	 SHORT $LN25@Insert_nod
$LN22@Insert_nod:

; 495  :         } else if (_Wherenode == _Wherenode->_Parent->_Left) {

  000a8	8b 4a 04	 mov	 ecx, DWORD PTR [edx+4]
  000ab	3b 01		 cmp	 eax, DWORD PTR [ecx]
  000ad	75 04		 jne	 SHORT $LN24@Insert_nod

; 496  :             _Wherenode->_Parent->_Left = _Pnode;

  000af	89 31		 mov	 DWORD PTR [ecx], esi

; 497  :         } else {

  000b1	eb 03		 jmp	 SHORT $LN25@Insert_nod
$LN24@Insert_nod:

; 498  :             _Wherenode->_Parent->_Right = _Pnode;

  000b3	89 71 08	 mov	 DWORD PTR [ecx+8], esi
$LN25@Insert_nod:

; 499  :         }
; 500  : 
; 501  :         _Pnode->_Left       = _Wherenode;

  000b6	89 06		 mov	 DWORD PTR [esi], eax

; 502  :         _Wherenode->_Parent = _Pnode;

  000b8	89 70 04	 mov	 DWORD PTR [eax+4], esi
$LN57@Insert_nod:

; 707  :                         _Lrotate(_Pnode);
; 708  :                     }
; 709  : 
; 710  :                     _Pnode->_Parent->_Color          = _Black; // propagate red up

  000bb	8b 48 04	 mov	 ecx, DWORD PTR [eax+4]
  000be	c6 41 0c 01	 mov	 BYTE PTR [ecx+12], 1

; 711  :                     _Pnode->_Parent->_Parent->_Color = _Red;

  000c2	8b 48 04	 mov	 ecx, DWORD PTR [eax+4]
  000c5	8b 49 04	 mov	 ecx, DWORD PTR [ecx+4]
  000c8	c6 41 0c 00	 mov	 BYTE PTR [ecx+12], 0

; 712  :                     _Rrotate(_Pnode->_Parent->_Parent);

  000cc	8b 48 04	 mov	 ecx, DWORD PTR [eax+4]
  000cf	8b 51 04	 mov	 edx, DWORD PTR [ecx+4]

; 506  :         _Nodeptr _Pnode   = _Wherenode->_Left;

  000d2	8b 32		 mov	 esi, DWORD PTR [edx]

; 507  :         _Wherenode->_Left = _Pnode->_Right;

  000d4	8b 4e 08	 mov	 ecx, DWORD PTR [esi+8]
  000d7	89 0a		 mov	 DWORD PTR [edx], ecx

; 508  : 
; 509  :         if (!_Pnode->_Right->_Isnil) {

  000d9	8b 4e 08	 mov	 ecx, DWORD PTR [esi+8]
  000dc	80 79 0d 00	 cmp	 BYTE PTR [ecx+13], 0
  000e0	75 03		 jne	 SHORT $LN29@Insert_nod

; 510  :             _Pnode->_Right->_Parent = _Wherenode;

  000e2	89 51 04	 mov	 DWORD PTR [ecx+4], edx
$LN29@Insert_nod:

; 511  :         }
; 512  : 
; 513  :         _Pnode->_Parent = _Wherenode->_Parent;

  000e5	8b 4a 04	 mov	 ecx, DWORD PTR [edx+4]
  000e8	89 4e 04	 mov	 DWORD PTR [esi+4], ecx

; 514  : 
; 515  :         if (_Wherenode == _Myhead->_Parent) {

  000eb	8b 0b		 mov	 ecx, DWORD PTR [ebx]
  000ed	3b 51 04	 cmp	 edx, DWORD PTR [ecx+4]
  000f0	75 0b		 jne	 SHORT $LN30@Insert_nod

; 516  :             _Myhead->_Parent = _Pnode;

  000f2	89 71 04	 mov	 DWORD PTR [ecx+4], esi

; 521  :         }
; 522  : 
; 523  :         _Pnode->_Right      = _Wherenode;

  000f5	89 56 08	 mov	 DWORD PTR [esi+8], edx

; 713  :                 }
; 714  :             } else { // fixup red-red in right subtree

  000f8	e9 cc 00 00 00	 jmp	 $LN81@Insert_nod
$LN30@Insert_nod:

; 517  :         } else if (_Wherenode == _Wherenode->_Parent->_Right) {

  000fd	8b 4a 04	 mov	 ecx, DWORD PTR [edx+4]
  00100	3b 51 08	 cmp	 edx, DWORD PTR [ecx+8]
  00103	75 0b		 jne	 SHORT $LN32@Insert_nod

; 518  :             _Wherenode->_Parent->_Right = _Pnode;

  00105	89 71 08	 mov	 DWORD PTR [ecx+8], esi

; 521  :         }
; 522  : 
; 523  :         _Pnode->_Right      = _Wherenode;

  00108	89 56 08	 mov	 DWORD PTR [esi+8], edx

; 713  :                 }
; 714  :             } else { // fixup red-red in right subtree

  0010b	e9 b9 00 00 00	 jmp	 $LN81@Insert_nod
$LN32@Insert_nod:

; 520  :             _Wherenode->_Parent->_Left = _Pnode;

  00110	89 31		 mov	 DWORD PTR [ecx], esi

; 521  :         }
; 522  : 
; 523  :         _Pnode->_Right      = _Wherenode;

  00112	89 56 08	 mov	 DWORD PTR [esi+8], edx

; 713  :                 }
; 714  :             } else { // fixup red-red in right subtree

  00115	e9 af 00 00 00	 jmp	 $LN81@Insert_nod
$LN10@Insert_nod:

; 715  :                 const auto _Parent_sibling = _Pnode->_Parent->_Parent->_Left;
; 716  :                 if (_Parent_sibling->_Color == _Red) { // parent's sibling has two red children, blacken both

  0011a	80 79 0c 00	 cmp	 BYTE PTR [ecx+12], 0
  0011e	75 1d		 jne	 SHORT $LN15@Insert_nod
$LN82@Insert_nod:

; 693  :             }
; 694  :         }
; 695  : 
; 696  :         for (_Nodeptr _Pnode = _Newnode; _Pnode->_Parent->_Color == _Red;) {

  00120	c6 42 0c 01	 mov	 BYTE PTR [edx+12], 1
  00124	c6 41 0c 01	 mov	 BYTE PTR [ecx+12], 1
  00128	8b 48 04	 mov	 ecx, DWORD PTR [eax+4]
  0012b	8b 49 04	 mov	 ecx, DWORD PTR [ecx+4]
  0012e	c6 41 0c 00	 mov	 BYTE PTR [ecx+12], 0
  00132	8b 48 04	 mov	 ecx, DWORD PTR [eax+4]
  00135	8b 41 04	 mov	 eax, DWORD PTR [ecx+4]
  00138	e9 8f 00 00 00	 jmp	 $LN2@Insert_nod
$LN15@Insert_nod:

; 717  :                     _Pnode->_Parent->_Color          = _Black;
; 718  :                     _Parent_sibling->_Color          = _Black;
; 719  :                     _Pnode->_Parent->_Parent->_Color = _Red;
; 720  :                     _Pnode                           = _Pnode->_Parent->_Parent;
; 721  :                 } else { // parent's sibling has red and black children
; 722  :                     if (_Pnode == _Pnode->_Parent->_Left) { // rotate left child to right

  0013d	8b 32		 mov	 esi, DWORD PTR [edx]
  0013f	3b c6		 cmp	 eax, esi
  00141	75 3a		 jne	 SHORT $LN42@Insert_nod

; 507  :         _Wherenode->_Left = _Pnode->_Right;

  00143	8b 4e 08	 mov	 ecx, DWORD PTR [esi+8]

; 723  :                         _Pnode = _Pnode->_Parent;

  00146	8b c2		 mov	 eax, edx

; 507  :         _Wherenode->_Left = _Pnode->_Right;

  00148	89 08		 mov	 DWORD PTR [eax], ecx

; 508  : 
; 509  :         if (!_Pnode->_Right->_Isnil) {

  0014a	8b 4e 08	 mov	 ecx, DWORD PTR [esi+8]
  0014d	80 79 0d 00	 cmp	 BYTE PTR [ecx+13], 0
  00151	75 03		 jne	 SHORT $LN37@Insert_nod

; 510  :             _Pnode->_Right->_Parent = _Wherenode;

  00153	89 41 04	 mov	 DWORD PTR [ecx+4], eax
$LN37@Insert_nod:

; 511  :         }
; 512  : 
; 513  :         _Pnode->_Parent = _Wherenode->_Parent;

  00156	8b 4a 04	 mov	 ecx, DWORD PTR [edx+4]
  00159	89 4e 04	 mov	 DWORD PTR [esi+4], ecx

; 514  : 
; 515  :         if (_Wherenode == _Myhead->_Parent) {

  0015c	8b 0b		 mov	 ecx, DWORD PTR [ebx]
  0015e	3b 41 04	 cmp	 eax, DWORD PTR [ecx+4]
  00161	75 05		 jne	 SHORT $LN38@Insert_nod

; 516  :             _Myhead->_Parent = _Pnode;

  00163	89 71 04	 mov	 DWORD PTR [ecx+4], esi
  00166	eb 0f		 jmp	 SHORT $LN41@Insert_nod
$LN38@Insert_nod:

; 517  :         } else if (_Wherenode == _Wherenode->_Parent->_Right) {

  00168	8b 4a 04	 mov	 ecx, DWORD PTR [edx+4]
  0016b	3b 41 08	 cmp	 eax, DWORD PTR [ecx+8]
  0016e	75 05		 jne	 SHORT $LN40@Insert_nod

; 518  :             _Wherenode->_Parent->_Right = _Pnode;

  00170	89 71 08	 mov	 DWORD PTR [ecx+8], esi

; 519  :         } else {

  00173	eb 02		 jmp	 SHORT $LN41@Insert_nod
$LN40@Insert_nod:

; 520  :             _Wherenode->_Parent->_Left = _Pnode;

  00175	89 31		 mov	 DWORD PTR [ecx], esi
$LN41@Insert_nod:

; 521  :         }
; 522  : 
; 523  :         _Pnode->_Right      = _Wherenode;

  00177	89 46 08	 mov	 DWORD PTR [esi+8], eax

; 524  :         _Wherenode->_Parent = _Pnode;

  0017a	89 70 04	 mov	 DWORD PTR [eax+4], esi
$LN42@Insert_nod:

; 724  :                         _Rrotate(_Pnode);
; 725  :                     }
; 726  : 
; 727  :                     _Pnode->_Parent->_Color          = _Black; // propagate red up

  0017d	8b 48 04	 mov	 ecx, DWORD PTR [eax+4]
  00180	c6 41 0c 01	 mov	 BYTE PTR [ecx+12], 1

; 728  :                     _Pnode->_Parent->_Parent->_Color = _Red;

  00184	8b 48 04	 mov	 ecx, DWORD PTR [eax+4]
  00187	8b 49 04	 mov	 ecx, DWORD PTR [ecx+4]
  0018a	c6 41 0c 00	 mov	 BYTE PTR [ecx+12], 0

; 729  :                     _Lrotate(_Pnode->_Parent->_Parent);

  0018e	8b 48 04	 mov	 ecx, DWORD PTR [eax+4]
  00191	8b 51 04	 mov	 edx, DWORD PTR [ecx+4]

; 484  :         _Nodeptr _Pnode    = _Wherenode->_Right;

  00194	8b 72 08	 mov	 esi, DWORD PTR [edx+8]

; 485  :         _Wherenode->_Right = _Pnode->_Left;

  00197	8b 0e		 mov	 ecx, DWORD PTR [esi]
  00199	89 4a 08	 mov	 DWORD PTR [edx+8], ecx

; 486  : 
; 487  :         if (!_Pnode->_Left->_Isnil) {

  0019c	8b 0e		 mov	 ecx, DWORD PTR [esi]
  0019e	80 79 0d 00	 cmp	 BYTE PTR [ecx+13], 0
  001a2	75 03		 jne	 SHORT $LN45@Insert_nod

; 488  :             _Pnode->_Left->_Parent = _Wherenode;

  001a4	89 51 04	 mov	 DWORD PTR [ecx+4], edx
$LN45@Insert_nod:

; 489  :         }
; 490  : 
; 491  :         _Pnode->_Parent = _Wherenode->_Parent;

  001a7	8b 4a 04	 mov	 ecx, DWORD PTR [edx+4]
  001aa	89 4e 04	 mov	 DWORD PTR [esi+4], ecx

; 492  : 
; 493  :         if (_Wherenode == _Myhead->_Parent) {

  001ad	8b 0b		 mov	 ecx, DWORD PTR [ebx]
  001af	3b 51 04	 cmp	 edx, DWORD PTR [ecx+4]
  001b2	75 05		 jne	 SHORT $LN46@Insert_nod

; 494  :             _Myhead->_Parent = _Pnode;

  001b4	89 71 04	 mov	 DWORD PTR [ecx+4], esi
  001b7	eb 0e		 jmp	 SHORT $LN49@Insert_nod
$LN46@Insert_nod:

; 495  :         } else if (_Wherenode == _Wherenode->_Parent->_Left) {

  001b9	8b 4a 04	 mov	 ecx, DWORD PTR [edx+4]
  001bc	3b 11		 cmp	 edx, DWORD PTR [ecx]
  001be	75 04		 jne	 SHORT $LN48@Insert_nod

; 496  :             _Wherenode->_Parent->_Left = _Pnode;

  001c0	89 31		 mov	 DWORD PTR [ecx], esi

; 497  :         } else {

  001c2	eb 03		 jmp	 SHORT $LN49@Insert_nod
$LN48@Insert_nod:

; 498  :             _Wherenode->_Parent->_Right = _Pnode;

  001c4	89 71 08	 mov	 DWORD PTR [ecx+8], esi
$LN49@Insert_nod:

; 499  :         }
; 500  : 
; 501  :         _Pnode->_Left       = _Wherenode;

  001c7	89 16		 mov	 DWORD PTR [esi], edx
$LN81@Insert_nod:

; 693  :             }
; 694  :         }
; 695  : 
; 696  :         for (_Nodeptr _Pnode = _Newnode; _Pnode->_Parent->_Color == _Red;) {

  001c9	89 72 04	 mov	 DWORD PTR [edx+4], esi
$LN2@Insert_nod:
  001cc	8b 48 04	 mov	 ecx, DWORD PTR [eax+4]
  001cf	80 79 0c 00	 cmp	 BYTE PTR [ecx+12], 0
  001d3	0f 84 87 fe ff
	ff		 je	 $LL4@Insert_nod
  001d9	5e		 pop	 esi
$LN3@Insert_nod:

; 730  :                 }
; 731  :             }
; 732  :         }
; 733  : 
; 734  :         _Head->_Parent->_Color = _Black; // root is always black

  001da	8b 45 fc	 mov	 eax, DWORD PTR __Head$1$[ebp]
  001dd	8b 40 04	 mov	 eax, DWORD PTR [eax+4]
  001e0	c6 40 0c 01	 mov	 BYTE PTR [eax+12], 1

; 735  :         return _Newnode;
; 736  :     }

  001e4	8b c7		 mov	 eax, edi
  001e6	5f		 pop	 edi
  001e7	5b		 pop	 ebx
  001e8	8b e5		 mov	 esp, ebp
  001ea	5d		 pop	 ebp
  001eb	c2 0c 00	 ret	 12			; 0000000cH
?_Insert_node@?$_Tree_val@U?$_Tree_simple_types@U?$pair@$$CBKJ@std@@@std@@@std@@QAEPAU?$_Tree_node@U?$pair@$$CBKJ@std@@PAX@2@U?$_Tree_id@PAU?$_Tree_node@U?$pair@$$CBKJ@std@@PAX@std@@@2@QAU32@@Z ENDP ; std::_Tree_val<std::_Tree_simple_types<std::pair<unsigned long const ,long> > >::_Insert_node
_TEXT	ENDS
; Function compile flags: /Ogtp
; File C:\Program Files\Microsoft Visual Studio\2022\Professional\VC\Tools\MSVC\14.44.35207\include\xtree
; File C:\Program Files\Microsoft Visual Studio\2022\Professional\VC\Tools\MSVC\14.44.35207\include\utility
; File C:\Program Files\Microsoft Visual Studio\2022\Professional\VC\Tools\MSVC\14.44.35207\include\xtree
;	COMDAT ?_Extract@?$_Tree_val@U?$_Tree_simple_types@U?$pair@$$CBKJ@std@@@std@@@std@@QAEPAU?$_Tree_node@U?$pair@$$CBKJ@std@@PAX@2@V?$_Tree_unchecked_const_iterator@V?$_Tree_val@U?$_Tree_simple_types@U?$pair@$$CBKJ@std@@@std@@@std@@U_Iterator_base0@2@@2@@Z
_TEXT	SEGMENT
tv1039 = -16						; size = 4
tv1073 = -12						; size = 4
tv1093 = -12						; size = 4
$T1 = -12						; size = 4
__Erasednode$1$ = -8					; size = 4
_this$1$ = -4						; size = 4
__Where$ = 8						; size = 4
?_Extract@?$_Tree_val@U?$_Tree_simple_types@U?$pair@$$CBKJ@std@@@std@@@std@@QAEPAU?$_Tree_node@U?$pair@$$CBKJ@std@@PAX@2@V?$_Tree_unchecked_const_iterator@V?$_Tree_val@U?$_Tree_simple_types@U?$pair@$$CBKJ@std@@@std@@@std@@U_Iterator_base0@2@@2@@Z PROC ; std::_Tree_val<std::_Tree_simple_types<std::pair<unsigned long const ,long> > >::_Extract, COMDAT
; _this$ = ecx

; 527  :     _Nodeptr _Extract(_Unchecked_const_iterator _Where) noexcept {

  00000	55		 push	 ebp
  00001	8b ec		 mov	 ebp, esp
  00003	83 ec 10	 sub	 esp, 16			; 00000010H

; 528  :         _Nodeptr _Erasednode = _Where._Ptr; // node to erase

  00006	8b 45 08	 mov	 eax, DWORD PTR __Where$[ebp]
  00009	53		 push	 ebx
  0000a	56		 push	 esi
  0000b	8b d9		 mov	 ebx, ecx
  0000d	89 45 f8	 mov	 DWORD PTR __Erasednode$1$[ebp], eax
  00010	57		 push	 edi

; 529  :         ++_Where; // save successor iterator for return

  00011	8d 4d 08	 lea	 ecx, DWORD PTR __Where$[ebp]
  00014	89 5d fc	 mov	 DWORD PTR _this$1$[ebp], ebx
  00017	e8 00 00 00 00	 call	 ??E?$_Tree_unchecked_const_iterator@V?$_Tree_val@U?$_Tree_simple_types@U?$pair@$$CBKJ@std@@@std@@@std@@U_Iterator_base0@2@@std@@QAEAAV01@XZ ; std::_Tree_unchecked_const_iterator<std::_Tree_val<std::_Tree_simple_types<std::pair<unsigned long const ,long> > >,std::_Iterator_base0>::operator++

; 530  : 
; 531  :         _Nodeptr _Fixnode; // the node to recolor as needed
; 532  :         _Nodeptr _Fixnodeparent; // parent of _Fixnode (which may be nil)
; 533  :         _Nodeptr _Pnode = _Erasednode;
; 534  : 
; 535  :         if (_Pnode->_Left->_Isnil) {

  0001c	8b 4d f8	 mov	 ecx, DWORD PTR __Erasednode$1$[ebp]
  0001f	8b 01		 mov	 eax, DWORD PTR [ecx]
  00021	8b 79 08	 mov	 edi, DWORD PTR [ecx+8]
  00024	80 78 0d 00	 cmp	 BYTE PTR [eax+13], 0
  00028	75 18		 jne	 SHORT $LN94@Extract

; 536  :             _Fixnode = _Pnode->_Right; // stitch up right subtree
; 537  :         } else if (_Pnode->_Right->_Isnil) {

  0002a	80 7f 0d 00	 cmp	 BYTE PTR [edi+13], 0
  0002e	74 04		 je	 SHORT $LN7@Extract

; 538  :             _Fixnode = _Pnode->_Left; // stitch up left subtree

  00030	8b f8		 mov	 edi, eax

; 539  :         } else { // two subtrees, must lift successor node to replace erased

  00032	eb 0e		 jmp	 SHORT $LN94@Extract
$LN7@Extract:

; 540  :             _Pnode   = _Where._Ptr; // _Pnode is successor node

  00034	8b 55 08	 mov	 edx, DWORD PTR __Where$[ebp]

; 541  :             _Fixnode = _Pnode->_Right; // _Fixnode is only subtree

  00037	8b 7a 08	 mov	 edi, DWORD PTR [edx+8]
  0003a	3b d1		 cmp	 edx, ecx

; 542  :         }
; 543  : 
; 544  :         if (_Pnode == _Erasednode) { // at most one subtree, relink it

  0003c	0f 85 91 00 00
	00		 jne	 $LN9@Extract
$LN94@Extract:

; 545  :             _Fixnodeparent = _Erasednode->_Parent;
; 546  :             if (!_Fixnode->_Isnil) {

  00042	80 7f 0d 00	 cmp	 BYTE PTR [edi+13], 0
  00046	8b 71 04	 mov	 esi, DWORD PTR [ecx+4]
  00049	75 03		 jne	 SHORT $LN11@Extract

; 547  :                 _Fixnode->_Parent = _Fixnodeparent; // link up

  0004b	89 77 04	 mov	 DWORD PTR [edi+4], esi
$LN11@Extract:

; 548  :             }
; 549  : 
; 550  :             if (_Myhead->_Parent == _Erasednode) {

  0004e	8b 03		 mov	 eax, DWORD PTR [ebx]
  00050	39 48 04	 cmp	 DWORD PTR [eax+4], ecx
  00053	75 05		 jne	 SHORT $LN12@Extract

; 551  :                 _Myhead->_Parent = _Fixnode; // link down from root

  00055	89 78 04	 mov	 DWORD PTR [eax+4], edi
  00058	eb 0b		 jmp	 SHORT $LN15@Extract
$LN12@Extract:

; 552  :             } else if (_Fixnodeparent->_Left == _Erasednode) {

  0005a	39 0e		 cmp	 DWORD PTR [esi], ecx
  0005c	75 04		 jne	 SHORT $LN14@Extract

; 553  :                 _Fixnodeparent->_Left = _Fixnode; // link down to left

  0005e	89 3e		 mov	 DWORD PTR [esi], edi

; 554  :             } else {

  00060	eb 03		 jmp	 SHORT $LN15@Extract
$LN14@Extract:

; 555  :                 _Fixnodeparent->_Right = _Fixnode; // link down to right

  00062	89 7e 08	 mov	 DWORD PTR [esi+8], edi
$LN15@Extract:

; 556  :             }
; 557  : 
; 558  :             if (_Myhead->_Left == _Erasednode) {

  00065	8b 03		 mov	 eax, DWORD PTR [ebx]
  00067	39 08		 cmp	 DWORD PTR [eax], ecx
  00069	75 28		 jne	 SHORT $LN16@Extract

; 559  :                 _Myhead->_Left = _Fixnode->_Isnil ? _Fixnodeparent // smallest is parent of erased node

  0006b	80 7f 0d 00	 cmp	 BYTE PTR [edi+13], 0
  0006f	74 04		 je	 SHORT $LN42@Extract
  00071	8b d6		 mov	 edx, esi
  00073	eb 1c		 jmp	 SHORT $LN43@Extract
$LN42@Extract:

; 476  :         while (!_Pnode->_Left->_Isnil) {

  00075	8b 0f		 mov	 ecx, DWORD PTR [edi]

; 559  :                 _Myhead->_Left = _Fixnode->_Isnil ? _Fixnodeparent // smallest is parent of erased node

  00077	8b d7		 mov	 edx, edi

; 476  :         while (!_Pnode->_Left->_Isnil) {

  00079	80 79 0d 00	 cmp	 BYTE PTR [ecx+13], 0
  0007d	75 0f		 jne	 SHORT $LN49@Extract
  0007f	90		 npad	 1
$LL48@Extract:
  00080	8b 01		 mov	 eax, DWORD PTR [ecx]

; 477  :             _Pnode = _Pnode->_Left;

  00082	8b d1		 mov	 edx, ecx
  00084	8b c8		 mov	 ecx, eax
  00086	80 78 0d 00	 cmp	 BYTE PTR [eax+13], 0
  0008a	74 f4		 je	 SHORT $LL48@Extract
  0008c	8b 03		 mov	 eax, DWORD PTR [ebx]
$LN49@Extract:
  0008e	8b 4d f8	 mov	 ecx, DWORD PTR __Erasednode$1$[ebp]
$LN43@Extract:

; 559  :                 _Myhead->_Left = _Fixnode->_Isnil ? _Fixnodeparent // smallest is parent of erased node

  00091	89 10		 mov	 DWORD PTR [eax], edx
$LN16@Extract:

; 560  :                                                   : _Min(_Fixnode); // smallest in relinked subtree
; 561  :             }
; 562  : 
; 563  :             if (_Myhead->_Right == _Erasednode) {

  00093	8b 13		 mov	 edx, DWORD PTR [ebx]
  00095	39 4a 08	 cmp	 DWORD PTR [edx+8], ecx
  00098	75 34		 jne	 SHORT $LN17@Extract

; 564  :                 _Myhead->_Right = _Fixnode->_Isnil ? _Fixnodeparent // largest is parent of erased node

  0009a	80 7f 0d 00	 cmp	 BYTE PTR [edi+13], 0
  0009e	74 0d		 je	 SHORT $LN44@Extract

; 565  :                                                    : _Max(_Fixnode); // largest in relinked subtree
; 566  :             }
; 567  :         } else { // erased has two subtrees, _Pnode is successor to erased

  000a0	8b 45 f8	 mov	 eax, DWORD PTR __Erasednode$1$[ebp]
  000a3	8b ce		 mov	 ecx, esi
  000a5	89 4a 08	 mov	 DWORD PTR [edx+8], ecx
  000a8	e9 94 00 00 00	 jmp	 $LN58@Extract
$LN44@Extract:

; 468  :         while (!_Pnode->_Right->_Isnil) {

  000ad	8b 47 08	 mov	 eax, DWORD PTR [edi+8]

; 564  :                 _Myhead->_Right = _Fixnode->_Isnil ? _Fixnodeparent // largest is parent of erased node

  000b0	8b cf		 mov	 ecx, edi

; 468  :         while (!_Pnode->_Right->_Isnil) {

  000b2	80 78 0d 00	 cmp	 BYTE PTR [eax+13], 0
  000b6	75 13		 jne	 SHORT $LN54@Extract
  000b8	0f 1f 84 00 00
	00 00 00	 npad	 8
$LL53@Extract:

; 469  :             _Pnode = _Pnode->_Right;

  000c0	8b c8		 mov	 ecx, eax
  000c2	8b 41 08	 mov	 eax, DWORD PTR [ecx+8]
  000c5	80 78 0d 00	 cmp	 BYTE PTR [eax+13], 0
  000c9	74 f5		 je	 SHORT $LL53@Extract
$LN54@Extract:

; 564  :                 _Myhead->_Right = _Fixnode->_Isnil ? _Fixnodeparent // largest is parent of erased node

  000cb	89 4a 08	 mov	 DWORD PTR [edx+8], ecx
$LN17@Extract:

; 565  :                                                    : _Max(_Fixnode); // largest in relinked subtree
; 566  :             }
; 567  :         } else { // erased has two subtrees, _Pnode is successor to erased

  000ce	8b 45 f8	 mov	 eax, DWORD PTR __Erasednode$1$[ebp]
  000d1	eb 6e		 jmp	 SHORT $LN58@Extract
$LN9@Extract:

; 568  :             _Erasednode->_Left->_Parent = _Pnode; // link left up

  000d3	89 50 04	 mov	 DWORD PTR [eax+4], edx

; 569  :             _Pnode->_Left               = _Erasednode->_Left; // link successor down

  000d6	8b 01		 mov	 eax, DWORD PTR [ecx]
  000d8	89 02		 mov	 DWORD PTR [edx], eax

; 570  : 
; 571  :             if (_Pnode == _Erasednode->_Right) {

  000da	8d 42 04	 lea	 eax, DWORD PTR [edx+4]
  000dd	89 45 f4	 mov	 DWORD PTR $T1[ebp], eax
  000e0	3b 51 08	 cmp	 edx, DWORD PTR [ecx+8]
  000e3	75 04		 jne	 SHORT $LN18@Extract

; 572  :                 _Fixnodeparent = _Pnode; // successor is next to erased

  000e5	8b f2		 mov	 esi, edx

; 573  :             } else { // successor further down, link in place of erased

  000e7	eb 1f		 jmp	 SHORT $LN19@Extract
$LN18@Extract:

; 574  :                 _Fixnodeparent = _Pnode->_Parent; // parent is successor's
; 575  :                 if (!_Fixnode->_Isnil) {

  000e9	80 7f 0d 00	 cmp	 BYTE PTR [edi+13], 0
  000ed	8b 30		 mov	 esi, DWORD PTR [eax]
  000ef	75 03		 jne	 SHORT $LN20@Extract

; 576  :                     _Fixnode->_Parent = _Fixnodeparent; // link fix up

  000f1	89 77 04	 mov	 DWORD PTR [edi+4], esi
$LN20@Extract:

; 577  :                 }
; 578  : 
; 579  :                 _Fixnodeparent->_Left        = _Fixnode; // link fix down

  000f4	89 3e		 mov	 DWORD PTR [esi], edi

; 580  :                 _Pnode->_Right               = _Erasednode->_Right; // link next down

  000f6	8b 41 08	 mov	 eax, DWORD PTR [ecx+8]
  000f9	89 42 08	 mov	 DWORD PTR [edx+8], eax

; 581  :                 _Erasednode->_Right->_Parent = _Pnode; // right up

  000fc	8b 41 08	 mov	 eax, DWORD PTR [ecx+8]
  000ff	89 50 04	 mov	 DWORD PTR [eax+4], edx
  00102	8d 42 04	 lea	 eax, DWORD PTR [edx+4]
  00105	89 45 f4	 mov	 DWORD PTR $T1[ebp], eax
$LN19@Extract:

; 582  :             }
; 583  : 
; 584  :             if (_Myhead->_Parent == _Erasednode) {

  00108	8b 03		 mov	 eax, DWORD PTR [ebx]
  0010a	39 48 04	 cmp	 DWORD PTR [eax+4], ecx
  0010d	75 05		 jne	 SHORT $LN21@Extract

; 585  :                 _Myhead->_Parent = _Pnode; // link down from root

  0010f	89 50 04	 mov	 DWORD PTR [eax+4], edx
  00112	eb 0e		 jmp	 SHORT $LN141@Extract
$LN21@Extract:

; 586  :             } else if (_Erasednode->_Parent->_Left == _Erasednode) {

  00114	8b 41 04	 mov	 eax, DWORD PTR [ecx+4]
  00117	39 08		 cmp	 DWORD PTR [eax], ecx
  00119	75 04		 jne	 SHORT $LN23@Extract

; 587  :                 _Erasednode->_Parent->_Left = _Pnode; // link down to left

  0011b	89 10		 mov	 DWORD PTR [eax], edx

; 588  :             } else {

  0011d	eb 03		 jmp	 SHORT $LN141@Extract
$LN23@Extract:

; 589  :                 _Erasednode->_Parent->_Right = _Pnode; // link down to right

  0011f	89 50 08	 mov	 DWORD PTR [eax+8], edx
$LN141@Extract:

; 590  :             }
; 591  : 
; 592  :             _Pnode->_Parent = _Erasednode->_Parent; // link successor up

  00122	b8 04 00 00 00	 mov	 eax, 4
  00127	8b 04 08	 mov	 eax, DWORD PTR [eax+ecx]
  0012a	8b 4d f4	 mov	 ecx, DWORD PTR $T1[ebp]
  0012d	89 01		 mov	 DWORD PTR [ecx], eax
; File C:\Program Files\Microsoft Visual Studio\2022\Professional\VC\Tools\MSVC\14.44.35207\include\utility

; 140  :     _Left    = _STD move(_Right);

  0012f	8b 45 f8	 mov	 eax, DWORD PTR __Erasednode$1$[ebp]
  00132	8a 4a 0c	 mov	 cl, BYTE PTR [edx+12]
  00135	8a 40 0c	 mov	 al, BYTE PTR [eax+12]
  00138	88 42 0c	 mov	 BYTE PTR [edx+12], al

; 141  :     _Right   = _STD move(_Tmp);

  0013b	8b 45 f8	 mov	 eax, DWORD PTR __Erasednode$1$[ebp]
  0013e	88 48 0c	 mov	 BYTE PTR [eax+12], cl
$LN58@Extract:
; File C:\Program Files\Microsoft Visual Studio\2022\Professional\VC\Tools\MSVC\14.44.35207\include\xtree

; 596  :         if (_Erasednode->_Color == _Black) { // erasing black link, must recolor/rebalance tree

  00141	80 78 0c 01	 cmp	 BYTE PTR [eax+12], 1
  00145	0f 85 ba 01 00
	00		 jne	 $LN25@Extract

; 597  :             for (; _Fixnode != _Myhead->_Parent && _Fixnode->_Color == _Black; _Fixnodeparent = _Fixnode->_Parent) {

  0014b	8b 03		 mov	 eax, DWORD PTR [ebx]
  0014d	3b 78 04	 cmp	 edi, DWORD PTR [eax+4]
  00150	0f 84 a8 01 00
	00		 je	 $LN3@Extract
  00156	80 7f 0c 01	 cmp	 BYTE PTR [edi+12], 1
  0015a	89 75 f4	 mov	 DWORD PTR tv1093[ebp], esi
  0015d	0f 85 9b 01 00
	00		 jne	 $LN3@Extract
$LL4@Extract:

; 598  :                 if (_Fixnode == _Fixnodeparent->_Left) { // fixup left subtree

  00163	8b 0e		 mov	 ecx, DWORD PTR [esi]
  00165	3b f9		 cmp	 edi, ecx
  00167	0f 85 be 00 00
	00		 jne	 $LN26@Extract

; 599  :                     _Pnode = _Fixnodeparent->_Right;

  0016d	8b 4e 08	 mov	 ecx, DWORD PTR [esi+8]

; 600  :                     if (_Pnode->_Color == _Red) { // rotate red up from right subtree

  00170	80 79 0c 00	 cmp	 BYTE PTR [ecx+12], 0
  00174	75 54		 jne	 SHORT $LN95@Extract

; 601  :                         _Pnode->_Color         = _Black;

  00176	c6 41 0c 01	 mov	 BYTE PTR [ecx+12], 1

; 484  :         _Nodeptr _Pnode    = _Wherenode->_Right;

  0017a	8b 4e 08	 mov	 ecx, DWORD PTR [esi+8]

; 602  :                         _Fixnodeparent->_Color = _Red;

  0017d	c6 46 0c 00	 mov	 BYTE PTR [esi+12], 0

; 485  :         _Wherenode->_Right = _Pnode->_Left;

  00181	8b 01		 mov	 eax, DWORD PTR [ecx]
  00183	89 46 08	 mov	 DWORD PTR [esi+8], eax

; 486  : 
; 487  :         if (!_Pnode->_Left->_Isnil) {

  00186	8b 01		 mov	 eax, DWORD PTR [ecx]
  00188	80 78 0d 00	 cmp	 BYTE PTR [eax+13], 0
  0018c	75 03		 jne	 SHORT $LN61@Extract

; 488  :             _Pnode->_Left->_Parent = _Wherenode;

  0018e	89 70 04	 mov	 DWORD PTR [eax+4], esi
$LN61@Extract:

; 489  :         }
; 490  : 
; 491  :         _Pnode->_Parent = _Wherenode->_Parent;

  00191	8b 46 04	 mov	 eax, DWORD PTR [esi+4]
  00194	8d 56 04	 lea	 edx, DWORD PTR [esi+4]
  00197	89 41 04	 mov	 DWORD PTR [ecx+4], eax

; 492  : 
; 493  :         if (_Wherenode == _Myhead->_Parent) {

  0019a	8b 03		 mov	 eax, DWORD PTR [ebx]
  0019c	3b 70 04	 cmp	 esi, DWORD PTR [eax+4]
  0019f	75 0c		 jne	 SHORT $LN62@Extract

; 494  :             _Myhead->_Parent = _Pnode;

  001a1	89 48 04	 mov	 DWORD PTR [eax+4], ecx

; 499  :         }
; 500  : 
; 501  :         _Pnode->_Left       = _Wherenode;

  001a4	89 31		 mov	 DWORD PTR [ecx], esi

; 502  :         _Wherenode->_Parent = _Pnode;

  001a6	89 0a		 mov	 DWORD PTR [edx], ecx

; 603  :                         _Lrotate(_Fixnodeparent);
; 604  :                         _Pnode = _Fixnodeparent->_Right;

  001a8	8b 4e 08	 mov	 ecx, DWORD PTR [esi+8]
  001ab	eb 20		 jmp	 SHORT $LN87@Extract
$LN62@Extract:

; 495  :         } else if (_Wherenode == _Wherenode->_Parent->_Left) {

  001ad	8b 02		 mov	 eax, DWORD PTR [edx]
  001af	3b 30		 cmp	 esi, DWORD PTR [eax]
  001b1	75 0b		 jne	 SHORT $LN64@Extract

; 496  :             _Wherenode->_Parent->_Left = _Pnode;

  001b3	89 08		 mov	 DWORD PTR [eax], ecx

; 499  :         }
; 500  : 
; 501  :         _Pnode->_Left       = _Wherenode;

  001b5	89 31		 mov	 DWORD PTR [ecx], esi

; 502  :         _Wherenode->_Parent = _Pnode;

  001b7	89 0a		 mov	 DWORD PTR [edx], ecx

; 603  :                         _Lrotate(_Fixnodeparent);
; 604  :                         _Pnode = _Fixnodeparent->_Right;

  001b9	8b 4e 08	 mov	 ecx, DWORD PTR [esi+8]
  001bc	eb 0f		 jmp	 SHORT $LN87@Extract
$LN64@Extract:

; 498  :             _Wherenode->_Parent->_Right = _Pnode;

  001be	89 48 08	 mov	 DWORD PTR [eax+8], ecx

; 499  :         }
; 500  : 
; 501  :         _Pnode->_Left       = _Wherenode;

  001c1	89 31		 mov	 DWORD PTR [ecx], esi

; 502  :         _Wherenode->_Parent = _Pnode;

  001c3	89 0a		 mov	 DWORD PTR [edx], ecx

; 603  :                         _Lrotate(_Fixnodeparent);
; 604  :                         _Pnode = _Fixnodeparent->_Right;

  001c5	8b 4e 08	 mov	 ecx, DWORD PTR [esi+8]
  001c8	eb 03		 jmp	 SHORT $LN87@Extract
$LN95@Extract:
  001ca	8d 56 04	 lea	 edx, DWORD PTR [esi+4]
$LN87@Extract:

; 605  :                     }
; 606  : 
; 607  :                     if (_Pnode->_Isnil) {

  001cd	80 79 0d 00	 cmp	 BYTE PTR [ecx+13], 0
  001d1	0f 85 d0 00 00
	00		 jne	 $LN2@Extract

; 608  :                         _Fixnode = _Fixnodeparent; // shouldn't happen
; 609  :                     } else if (_Pnode->_Left->_Color == _Black
; 610  :                                && _Pnode->_Right->_Color == _Black) { // redden right subtree with black children

  001d7	8b 01		 mov	 eax, DWORD PTR [ecx]
  001d9	80 78 0c 01	 cmp	 BYTE PTR [eax+12], 1
  001dd	75 0d		 jne	 SHORT $LN97@Extract
  001df	8b 41 08	 mov	 eax, DWORD PTR [ecx+8]
  001e2	80 78 0c 01	 cmp	 BYTE PTR [eax+12], 1
  001e6	0f 84 b4 00 00
	00		 je	 $LN142@Extract
$LN97@Extract:

; 611  :                         _Pnode->_Color = _Red;
; 612  :                         _Fixnode       = _Fixnodeparent;
; 613  :                     } else { // must rearrange right subtree
; 614  :                         if (_Pnode->_Right->_Color == _Black) { // rotate red up from left sub-subtree

  001ec	8b 41 08	 mov	 eax, DWORD PTR [ecx+8]
  001ef	8b 5d fc	 mov	 ebx, DWORD PTR _this$1$[ebp]
  001f2	80 78 0c 01	 cmp	 BYTE PTR [eax+12], 1
  001f6	75 15		 jne	 SHORT $LN33@Extract

; 615  :                             _Pnode->_Left->_Color = _Black;

  001f8	8b 01		 mov	 eax, DWORD PTR [ecx]

; 616  :                             _Pnode->_Color        = _Red;
; 617  :                             _Rrotate(_Pnode);

  001fa	51		 push	 ecx
  001fb	c6 40 0c 01	 mov	 BYTE PTR [eax+12], 1
  001ff	c6 41 0c 00	 mov	 BYTE PTR [ecx+12], 0
  00203	8b cb		 mov	 ecx, ebx
  00205	e8 00 00 00 00	 call	 ?_Rrotate@?$_Tree_val@U?$_Tree_simple_types@U?$pair@$$CBKJ@std@@@std@@@std@@QAEXPAU?$_Tree_node@U?$pair@$$CBKJ@std@@PAX@2@@Z ; std::_Tree_val<std::_Tree_simple_types<std::pair<unsigned long const ,long> > >::_Rrotate

; 618  :                             _Pnode = _Fixnodeparent->_Right;

  0020a	8b 4e 08	 mov	 ecx, DWORD PTR [esi+8]
$LN33@Extract:

; 619  :                         }
; 620  : 
; 621  :                         _Pnode->_Color         = _Fixnodeparent->_Color;

  0020d	8a 46 0c	 mov	 al, BYTE PTR [esi+12]
  00210	88 41 0c	 mov	 BYTE PTR [ecx+12], al

; 622  :                         _Fixnodeparent->_Color = _Black;

  00213	c6 46 0c 01	 mov	 BYTE PTR [esi+12], 1

; 623  :                         _Pnode->_Right->_Color = _Black;

  00217	8b 41 08	 mov	 eax, DWORD PTR [ecx+8]

; 624  :                         _Lrotate(_Fixnodeparent);

  0021a	8b cb		 mov	 ecx, ebx
  0021c	56		 push	 esi
  0021d	c6 40 0c 01	 mov	 BYTE PTR [eax+12], 1
  00221	e8 00 00 00 00	 call	 ?_Lrotate@?$_Tree_val@U?$_Tree_simple_types@U?$pair@$$CBKJ@std@@@std@@@std@@QAEXPAU?$_Tree_node@U?$pair@$$CBKJ@std@@PAX@2@@Z ; std::_Tree_val<std::_Tree_simple_types<std::pair<unsigned long const ,long> > >::_Lrotate

; 625  :                         break; // tree now recolored/rebalanced

  00226	e9 d3 00 00 00	 jmp	 $LN3@Extract
$LN26@Extract:

; 626  :                     }
; 627  :                 } else { // fixup right subtree
; 628  :                     _Pnode = _Fixnodeparent->_Left;
; 629  :                     if (_Pnode->_Color == _Red) { // rotate red up from left subtree

  0022b	80 79 0c 00	 cmp	 BYTE PTR [ecx+12], 0
  0022f	75 55		 jne	 SHORT $LN96@Extract

; 630  :                         _Pnode->_Color         = _Black;

  00231	c6 41 0c 01	 mov	 BYTE PTR [ecx+12], 1

; 506  :         _Nodeptr _Pnode   = _Wherenode->_Left;

  00235	8b 0e		 mov	 ecx, DWORD PTR [esi]

; 631  :                         _Fixnodeparent->_Color = _Red;

  00237	c6 46 0c 00	 mov	 BYTE PTR [esi+12], 0

; 507  :         _Wherenode->_Left = _Pnode->_Right;

  0023b	8b 41 08	 mov	 eax, DWORD PTR [ecx+8]
  0023e	89 06		 mov	 DWORD PTR [esi], eax

; 508  : 
; 509  :         if (!_Pnode->_Right->_Isnil) {

  00240	8b 41 08	 mov	 eax, DWORD PTR [ecx+8]
  00243	80 78 0d 00	 cmp	 BYTE PTR [eax+13], 0
  00247	75 03		 jne	 SHORT $LN69@Extract

; 510  :             _Pnode->_Right->_Parent = _Wherenode;

  00249	89 70 04	 mov	 DWORD PTR [eax+4], esi
$LN69@Extract:

; 511  :         }
; 512  : 
; 513  :         _Pnode->_Parent = _Wherenode->_Parent;

  0024c	8b 46 04	 mov	 eax, DWORD PTR [esi+4]
  0024f	8d 56 04	 lea	 edx, DWORD PTR [esi+4]
  00252	89 41 04	 mov	 DWORD PTR [ecx+4], eax

; 514  : 
; 515  :         if (_Wherenode == _Myhead->_Parent) {

  00255	8b 03		 mov	 eax, DWORD PTR [ebx]
  00257	3b 70 04	 cmp	 esi, DWORD PTR [eax+4]
  0025a	75 0c		 jne	 SHORT $LN70@Extract

; 516  :             _Myhead->_Parent = _Pnode;

  0025c	89 48 04	 mov	 DWORD PTR [eax+4], ecx

; 521  :         }
; 522  : 
; 523  :         _Pnode->_Right      = _Wherenode;

  0025f	89 71 08	 mov	 DWORD PTR [ecx+8], esi

; 524  :         _Wherenode->_Parent = _Pnode;

  00262	89 0a		 mov	 DWORD PTR [edx], ecx

; 632  :                         _Rrotate(_Fixnodeparent);
; 633  :                         _Pnode = _Fixnodeparent->_Left;

  00264	8b 0e		 mov	 ecx, DWORD PTR [esi]
  00266	eb 21		 jmp	 SHORT $LN86@Extract
$LN70@Extract:

; 517  :         } else if (_Wherenode == _Wherenode->_Parent->_Right) {

  00268	8b 02		 mov	 eax, DWORD PTR [edx]
  0026a	3b 70 08	 cmp	 esi, DWORD PTR [eax+8]
  0026d	75 0c		 jne	 SHORT $LN72@Extract

; 518  :             _Wherenode->_Parent->_Right = _Pnode;

  0026f	89 48 08	 mov	 DWORD PTR [eax+8], ecx

; 521  :         }
; 522  : 
; 523  :         _Pnode->_Right      = _Wherenode;

  00272	89 71 08	 mov	 DWORD PTR [ecx+8], esi

; 524  :         _Wherenode->_Parent = _Pnode;

  00275	89 0a		 mov	 DWORD PTR [edx], ecx

; 632  :                         _Rrotate(_Fixnodeparent);
; 633  :                         _Pnode = _Fixnodeparent->_Left;

  00277	8b 0e		 mov	 ecx, DWORD PTR [esi]
  00279	eb 0e		 jmp	 SHORT $LN86@Extract
$LN72@Extract:

; 520  :             _Wherenode->_Parent->_Left = _Pnode;

  0027b	89 08		 mov	 DWORD PTR [eax], ecx

; 521  :         }
; 522  : 
; 523  :         _Pnode->_Right      = _Wherenode;

  0027d	89 71 08	 mov	 DWORD PTR [ecx+8], esi

; 524  :         _Wherenode->_Parent = _Pnode;

  00280	89 0a		 mov	 DWORD PTR [edx], ecx

; 632  :                         _Rrotate(_Fixnodeparent);
; 633  :                         _Pnode = _Fixnodeparent->_Left;

  00282	8b 0e		 mov	 ecx, DWORD PTR [esi]
  00284	eb 03		 jmp	 SHORT $LN86@Extract
$LN96@Extract:
  00286	8d 56 04	 lea	 edx, DWORD PTR [esi+4]
$LN86@Extract:

; 634  :                     }
; 635  : 
; 636  :                     if (_Pnode->_Isnil) {

  00289	80 79 0d 00	 cmp	 BYTE PTR [ecx+13], 0
  0028d	75 18		 jne	 SHORT $LN2@Extract

; 637  :                         _Fixnode = _Fixnodeparent; // shouldn't happen
; 638  :                     } else if (_Pnode->_Right->_Color == _Black
; 639  :                                && _Pnode->_Left->_Color == _Black) { // redden left subtree with black children

  0028f	8b 59 08	 mov	 ebx, DWORD PTR [ecx+8]
  00292	80 7b 0c 01	 cmp	 BYTE PTR [ebx+12], 1
  00296	75 2c		 jne	 SHORT $LN98@Extract
  00298	8b 01		 mov	 eax, DWORD PTR [ecx]
  0029a	80 78 0c 01	 cmp	 BYTE PTR [eax+12], 1
  0029e	75 24		 jne	 SHORT $LN98@Extract
$LN142@Extract:

; 597  :             for (; _Fixnode != _Myhead->_Parent && _Fixnode->_Color == _Black; _Fixnodeparent = _Fixnode->_Parent) {

  002a0	8b 5d fc	 mov	 ebx, DWORD PTR _this$1$[ebp]
  002a3	c6 41 0c 00	 mov	 BYTE PTR [ecx+12], 0
$LN2@Extract:
  002a7	8b 03		 mov	 eax, DWORD PTR [ebx]
  002a9	8b 4d f4	 mov	 ecx, DWORD PTR tv1093[ebp]
  002ac	8b f9		 mov	 edi, ecx
  002ae	8b 32		 mov	 esi, DWORD PTR [edx]
  002b0	3b 48 04	 cmp	 ecx, DWORD PTR [eax+4]
  002b3	74 49		 je	 SHORT $LN3@Extract
  002b5	80 7f 0c 01	 cmp	 BYTE PTR [edi+12], 1
  002b9	89 75 f4	 mov	 DWORD PTR tv1093[ebp], esi
  002bc	0f 84 a1 fe ff
	ff		 je	 $LL4@Extract
  002c2	eb 3a		 jmp	 SHORT $LN3@Extract
$LN98@Extract:

; 640  :                         _Pnode->_Color = _Red;
; 641  :                         _Fixnode       = _Fixnodeparent;
; 642  :                     } else { // must rearrange left subtree
; 643  :                         if (_Pnode->_Left->_Color == _Black) { // rotate red up from right sub-subtree

  002c4	8b 01		 mov	 eax, DWORD PTR [ecx]
  002c6	80 78 0c 01	 cmp	 BYTE PTR [eax+12], 1
  002ca	75 17		 jne	 SHORT $LN101@Extract

; 644  :                             _Pnode->_Right->_Color = _Black;

  002cc	c6 43 0c 01	 mov	 BYTE PTR [ebx+12], 1

; 645  :                             _Pnode->_Color         = _Red;
; 646  :                             _Lrotate(_Pnode);

  002d0	8b 5d fc	 mov	 ebx, DWORD PTR _this$1$[ebp]
  002d3	c6 41 0c 00	 mov	 BYTE PTR [ecx+12], 0
  002d7	51		 push	 ecx
  002d8	8b cb		 mov	 ecx, ebx
  002da	e8 00 00 00 00	 call	 ?_Lrotate@?$_Tree_val@U?$_Tree_simple_types@U?$pair@$$CBKJ@std@@@std@@@std@@QAEXPAU?$_Tree_node@U?$pair@$$CBKJ@std@@PAX@2@@Z ; std::_Tree_val<std::_Tree_simple_types<std::pair<unsigned long const ,long> > >::_Lrotate

; 647  :                             _Pnode = _Fixnodeparent->_Left;

  002df	8b 0e		 mov	 ecx, DWORD PTR [esi]
  002e1	eb 03		 jmp	 SHORT $LN39@Extract
$LN101@Extract:

; 640  :                         _Pnode->_Color = _Red;
; 641  :                         _Fixnode       = _Fixnodeparent;
; 642  :                     } else { // must rearrange left subtree
; 643  :                         if (_Pnode->_Left->_Color == _Black) { // rotate red up from right sub-subtree

  002e3	8b 5d fc	 mov	 ebx, DWORD PTR _this$1$[ebp]
$LN39@Extract:

; 648  :                         }
; 649  : 
; 650  :                         _Pnode->_Color         = _Fixnodeparent->_Color;

  002e6	8a 46 0c	 mov	 al, BYTE PTR [esi+12]
  002e9	88 41 0c	 mov	 BYTE PTR [ecx+12], al

; 651  :                         _Fixnodeparent->_Color = _Black;

  002ec	c6 46 0c 01	 mov	 BYTE PTR [esi+12], 1

; 652  :                         _Pnode->_Left->_Color  = _Black;

  002f0	8b 01		 mov	 eax, DWORD PTR [ecx]

; 653  :                         _Rrotate(_Fixnodeparent);

  002f2	8b cb		 mov	 ecx, ebx
  002f4	56		 push	 esi
  002f5	c6 40 0c 01	 mov	 BYTE PTR [eax+12], 1
  002f9	e8 00 00 00 00	 call	 ?_Rrotate@?$_Tree_val@U?$_Tree_simple_types@U?$pair@$$CBKJ@std@@@std@@@std@@QAEXPAU?$_Tree_node@U?$pair@$$CBKJ@std@@PAX@2@@Z ; std::_Tree_val<std::_Tree_simple_types<std::pair<unsigned long const ,long> > >::_Rrotate
$LN3@Extract:

; 654  :                         break; // tree now recolored/rebalanced
; 655  :                     }
; 656  :                 }
; 657  :             }
; 658  : 
; 659  :             _Fixnode->_Color = _Black; // stopping node is black

  002fe	8b 45 f8	 mov	 eax, DWORD PTR __Erasednode$1$[ebp]
  00301	c6 47 0c 01	 mov	 BYTE PTR [edi+12], 1
$LN25@Extract:

; 660  :         }
; 661  : 
; 662  :         if (0 < _Mysize) {

  00305	8b 4b 04	 mov	 ecx, DWORD PTR [ebx+4]
  00308	85 c9		 test	 ecx, ecx
  0030a	74 04		 je	 SHORT $LN40@Extract

; 663  :             --_Mysize;

  0030c	49		 dec	 ecx
  0030d	89 4b 04	 mov	 DWORD PTR [ebx+4], ecx
$LN40@Extract:

; 664  :         }
; 665  : 
; 666  :         return _Erasednode;
; 667  :     }

  00310	5f		 pop	 edi
  00311	5e		 pop	 esi
  00312	5b		 pop	 ebx
  00313	8b e5		 mov	 esp, ebp
  00315	5d		 pop	 ebp
  00316	c2 04 00	 ret	 4
?_Extract@?$_Tree_val@U?$_Tree_simple_types@U?$pair@$$CBKJ@std@@@std@@@std@@QAEPAU?$_Tree_node@U?$pair@$$CBKJ@std@@PAX@2@V?$_Tree_unchecked_const_iterator@V?$_Tree_val@U?$_Tree_simple_types@U?$pair@$$CBKJ@std@@@std@@@std@@U_Iterator_base0@2@@2@@Z ENDP ; std::_Tree_val<std::_Tree_simple_types<std::pair<unsigned long const ,long> > >::_Extract
_TEXT	ENDS
; Function compile flags: /Ogtp
; File C:\Program Files\Microsoft Visual Studio\2022\Professional\VC\Tools\MSVC\14.44.35207\include\xtree
;	COMDAT ?_Rrotate@?$_Tree_val@U?$_Tree_simple_types@U?$pair@$$CBKJ@std@@@std@@@std@@QAEXPAU?$_Tree_node@U?$pair@$$CBKJ@std@@PAX@2@@Z
_TEXT	SEGMENT
__Wherenode$ = 8					; size = 4
?_Rrotate@?$_Tree_val@U?$_Tree_simple_types@U?$pair@$$CBKJ@std@@@std@@@std@@QAEXPAU?$_Tree_node@U?$pair@$$CBKJ@std@@PAX@2@@Z PROC ; std::_Tree_val<std::_Tree_simple_types<std::pair<unsigned long const ,long> > >::_Rrotate, COMDAT
; _this$ = ecx

; 505  :     void _Rrotate(_Nodeptr _Wherenode) noexcept { // promote left node to root of subtree

  00000	55		 push	 ebp
  00001	8b ec		 mov	 ebp, esp

; 506  :         _Nodeptr _Pnode   = _Wherenode->_Left;

  00003	8b 55 08	 mov	 edx, DWORD PTR __Wherenode$[ebp]
  00006	56		 push	 esi
  00007	8b 32		 mov	 esi, DWORD PTR [edx]

; 507  :         _Wherenode->_Left = _Pnode->_Right;

  00009	8b 46 08	 mov	 eax, DWORD PTR [esi+8]
  0000c	89 02		 mov	 DWORD PTR [edx], eax

; 508  : 
; 509  :         if (!_Pnode->_Right->_Isnil) {

  0000e	8b 46 08	 mov	 eax, DWORD PTR [esi+8]
  00011	80 78 0d 00	 cmp	 BYTE PTR [eax+13], 0
  00015	75 03		 jne	 SHORT $LN2@Rrotate

; 510  :             _Pnode->_Right->_Parent = _Wherenode;

  00017	89 50 04	 mov	 DWORD PTR [eax+4], edx
$LN2@Rrotate:

; 511  :         }
; 512  : 
; 513  :         _Pnode->_Parent = _Wherenode->_Parent;

  0001a	8b 42 04	 mov	 eax, DWORD PTR [edx+4]
  0001d	89 46 04	 mov	 DWORD PTR [esi+4], eax

; 514  : 
; 515  :         if (_Wherenode == _Myhead->_Parent) {

  00020	8b 01		 mov	 eax, DWORD PTR [ecx]
  00022	3b 50 04	 cmp	 edx, DWORD PTR [eax+4]
  00025	75 0e		 jne	 SHORT $LN3@Rrotate

; 516  :             _Myhead->_Parent = _Pnode;

  00027	89 70 04	 mov	 DWORD PTR [eax+4], esi

; 521  :         }
; 522  : 
; 523  :         _Pnode->_Right      = _Wherenode;
; 524  :         _Wherenode->_Parent = _Pnode;
; 525  :     }

  0002a	89 56 08	 mov	 DWORD PTR [esi+8], edx
  0002d	89 72 04	 mov	 DWORD PTR [edx+4], esi
  00030	5e		 pop	 esi
  00031	5d		 pop	 ebp
  00032	c2 04 00	 ret	 4
$LN3@Rrotate:

; 517  :         } else if (_Wherenode == _Wherenode->_Parent->_Right) {

  00035	8b 42 04	 mov	 eax, DWORD PTR [edx+4]
  00038	3b 50 08	 cmp	 edx, DWORD PTR [eax+8]
  0003b	75 0e		 jne	 SHORT $LN5@Rrotate

; 518  :             _Wherenode->_Parent->_Right = _Pnode;

  0003d	89 70 08	 mov	 DWORD PTR [eax+8], esi

; 521  :         }
; 522  : 
; 523  :         _Pnode->_Right      = _Wherenode;
; 524  :         _Wherenode->_Parent = _Pnode;
; 525  :     }

  00040	89 56 08	 mov	 DWORD PTR [esi+8], edx
  00043	89 72 04	 mov	 DWORD PTR [edx+4], esi
  00046	5e		 pop	 esi
  00047	5d		 pop	 ebp
  00048	c2 04 00	 ret	 4
$LN5@Rrotate:

; 519  :         } else {
; 520  :             _Wherenode->_Parent->_Left = _Pnode;

  0004b	89 30		 mov	 DWORD PTR [eax], esi

; 521  :         }
; 522  : 
; 523  :         _Pnode->_Right      = _Wherenode;
; 524  :         _Wherenode->_Parent = _Pnode;
; 525  :     }

  0004d	89 56 08	 mov	 DWORD PTR [esi+8], edx
  00050	89 72 04	 mov	 DWORD PTR [edx+4], esi
  00053	5e		 pop	 esi
  00054	5d		 pop	 ebp
  00055	c2 04 00	 ret	 4
?_Rrotate@?$_Tree_val@U?$_Tree_simple_types@U?$pair@$$CBKJ@std@@@std@@@std@@QAEXPAU?$_Tree_node@U?$pair@$$CBKJ@std@@PAX@2@@Z ENDP ; std::_Tree_val<std::_Tree_simple_types<std::pair<unsigned long const ,long> > >::_Rrotate
_TEXT	ENDS
; Function compile flags: /Ogtp
; File C:\Program Files\Microsoft Visual Studio\2022\Professional\VC\Tools\MSVC\14.44.35207\include\xtree
;	COMDAT ?_Lrotate@?$_Tree_val@U?$_Tree_simple_types@U?$pair@$$CBKJ@std@@@std@@@std@@QAEXPAU?$_Tree_node@U?$pair@$$CBKJ@std@@PAX@2@@Z
_TEXT	SEGMENT
__Wherenode$ = 8					; size = 4
?_Lrotate@?$_Tree_val@U?$_Tree_simple_types@U?$pair@$$CBKJ@std@@@std@@@std@@QAEXPAU?$_Tree_node@U?$pair@$$CBKJ@std@@PAX@2@@Z PROC ; std::_Tree_val<std::_Tree_simple_types<std::pair<unsigned long const ,long> > >::_Lrotate, COMDAT
; _this$ = ecx

; 483  :     void _Lrotate(_Nodeptr _Wherenode) noexcept { // promote right node to root of subtree

  00000	55		 push	 ebp
  00001	8b ec		 mov	 ebp, esp

; 484  :         _Nodeptr _Pnode    = _Wherenode->_Right;

  00003	8b 55 08	 mov	 edx, DWORD PTR __Wherenode$[ebp]
  00006	56		 push	 esi
  00007	8b 72 08	 mov	 esi, DWORD PTR [edx+8]

; 485  :         _Wherenode->_Right = _Pnode->_Left;

  0000a	8b 06		 mov	 eax, DWORD PTR [esi]
  0000c	89 42 08	 mov	 DWORD PTR [edx+8], eax

; 486  : 
; 487  :         if (!_Pnode->_Left->_Isnil) {

  0000f	8b 06		 mov	 eax, DWORD PTR [esi]
  00011	80 78 0d 00	 cmp	 BYTE PTR [eax+13], 0
  00015	75 03		 jne	 SHORT $LN2@Lrotate

; 488  :             _Pnode->_Left->_Parent = _Wherenode;

  00017	89 50 04	 mov	 DWORD PTR [eax+4], edx
$LN2@Lrotate:

; 489  :         }
; 490  : 
; 491  :         _Pnode->_Parent = _Wherenode->_Parent;

  0001a	8b 42 04	 mov	 eax, DWORD PTR [edx+4]
  0001d	89 46 04	 mov	 DWORD PTR [esi+4], eax

; 492  : 
; 493  :         if (_Wherenode == _Myhead->_Parent) {

  00020	8b 01		 mov	 eax, DWORD PTR [ecx]
  00022	3b 50 04	 cmp	 edx, DWORD PTR [eax+4]
  00025	75 0d		 jne	 SHORT $LN3@Lrotate

; 494  :             _Myhead->_Parent = _Pnode;

  00027	89 70 04	 mov	 DWORD PTR [eax+4], esi

; 499  :         }
; 500  : 
; 501  :         _Pnode->_Left       = _Wherenode;
; 502  :         _Wherenode->_Parent = _Pnode;
; 503  :     }

  0002a	89 16		 mov	 DWORD PTR [esi], edx
  0002c	89 72 04	 mov	 DWORD PTR [edx+4], esi
  0002f	5e		 pop	 esi
  00030	5d		 pop	 ebp
  00031	c2 04 00	 ret	 4
$LN3@Lrotate:

; 495  :         } else if (_Wherenode == _Wherenode->_Parent->_Left) {

  00034	8b 42 04	 mov	 eax, DWORD PTR [edx+4]
  00037	3b 10		 cmp	 edx, DWORD PTR [eax]
  00039	75 0c		 jne	 SHORT $LN5@Lrotate

; 496  :             _Wherenode->_Parent->_Left = _Pnode;

  0003b	89 30		 mov	 DWORD PTR [eax], esi

; 499  :         }
; 500  : 
; 501  :         _Pnode->_Left       = _Wherenode;
; 502  :         _Wherenode->_Parent = _Pnode;
; 503  :     }

  0003d	89 16		 mov	 DWORD PTR [esi], edx
  0003f	89 72 04	 mov	 DWORD PTR [edx+4], esi
  00042	5e		 pop	 esi
  00043	5d		 pop	 ebp
  00044	c2 04 00	 ret	 4
$LN5@Lrotate:

; 497  :         } else {
; 498  :             _Wherenode->_Parent->_Right = _Pnode;

  00047	89 70 08	 mov	 DWORD PTR [eax+8], esi

; 499  :         }
; 500  : 
; 501  :         _Pnode->_Left       = _Wherenode;
; 502  :         _Wherenode->_Parent = _Pnode;
; 503  :     }

  0004a	89 16		 mov	 DWORD PTR [esi], edx
  0004c	89 72 04	 mov	 DWORD PTR [edx+4], esi
  0004f	5e		 pop	 esi
  00050	5d		 pop	 ebp
  00051	c2 04 00	 ret	 4
?_Lrotate@?$_Tree_val@U?$_Tree_simple_types@U?$pair@$$CBKJ@std@@@std@@@std@@QAEXPAU?$_Tree_node@U?$pair@$$CBKJ@std@@PAX@2@@Z ENDP ; std::_Tree_val<std::_Tree_simple_types<std::pair<unsigned long const ,long> > >::_Lrotate
_TEXT	ENDS
; Function compile flags: /Ogtp
; File C:\Program Files\Microsoft Visual Studio\2022\Professional\VC\Tools\MSVC\14.44.35207\include\xtree
; File C:\Program Files\Microsoft Visual Studio\2022\Professional\VC\Tools\MSVC\14.44.35207\include\utility
; File C:\Program Files\Microsoft Visual Studio\2022\Professional\VC\Tools\MSVC\14.44.35207\include\xmemory
; File C:\Program Files\Microsoft Visual Studio\2022\Professional\VC\Tools\MSVC\14.44.35207\include\xtree
; File C:\Program Files\Microsoft Visual Studio\2022\Professional\VC\Tools\MSVC\14.44.35207\include\xmemory
; File C:\Program Files\Microsoft Visual Studio\2022\Professional\VC\Tools\MSVC\14.44.35207\include\xtree
;	COMDAT ??1?$_Tree@V?$_Tmap_traits@KJU?$less@K@std@@V?$allocator@U?$pair@$$CBKJ@std@@@2@$0A@@std@@@std@@QAE@XZ
_TEXT	SEGMENT
??1?$_Tree@V?$_Tmap_traits@KJU?$less@K@std@@V?$allocator@U?$pair@$$CBKJ@std@@@2@$0A@@std@@@std@@QAE@XZ PROC ; std::_Tree<std::_Tmap_traits<unsigned long,long,std::less<unsigned long>,std::allocator<std::pair<unsigned long const ,long> >,0> >::~_Tree<std::_Tmap_traits<unsigned long,long,std::less<unsigned long>,std::allocator<std::pair<unsigned long const ,long> >,0> >, COMDAT
; _this$ = ecx

; 1095 :     ~_Tree() noexcept {

  00000	56		 push	 esi
  00001	57		 push	 edi
  00002	8b f9		 mov	 edi, ecx

; 777  :         _Erase_tree(_Al, _Myhead->_Parent);

  00004	8b 37		 mov	 esi, DWORD PTR [edi]
  00006	8b 76 04	 mov	 esi, DWORD PTR [esi+4]

; 768  :         while (!_Rootnode->_Isnil) { // free subtrees, then node

  00009	80 7e 0d 00	 cmp	 BYTE PTR [esi+13], 0
  0000d	75 21		 jne	 SHORT $LN61@Tree
  0000f	90		 npad	 1
$LL8@Tree:

; 769  :             _Erase_tree(_Al, _Rootnode->_Right);

  00010	ff 76 08	 push	 DWORD PTR [esi+8]
  00013	8b cf		 mov	 ecx, edi
  00015	57		 push	 edi
  00016	e8 00 00 00 00	 call	 ??$_Erase_tree@V?$allocator@U?$_Tree_node@U?$pair@$$CBKJ@std@@PAX@std@@@std@@@?$_Tree_val@U?$_Tree_simple_types@U?$pair@$$CBKJ@std@@@std@@@std@@QAEXAAV?$allocator@U?$_Tree_node@U?$pair@$$CBKJ@std@@PAX@std@@@1@PAU?$_Tree_node@U?$pair@$$CBKJ@std@@PAX@1@@Z ; std::_Tree_val<std::_Tree_simple_types<std::pair<unsigned long const ,long> > >::_Erase_tree<std::allocator<std::_Tree_node<std::pair<unsigned long const ,long>,void *> > >
; File C:\Program Files\Microsoft Visual Studio\2022\Professional\VC\Tools\MSVC\14.44.35207\include\utility

; 773  :     _Ty _Old_val = static_cast<_Ty&&>(_Val);

  0001b	8b c6		 mov	 eax, esi

; 774  :     _Val         = static_cast<_Other&&>(_New_val);

  0001d	8b 36		 mov	 esi, DWORD PTR [esi]
; File C:\Program Files\Microsoft Visual Studio\2022\Professional\VC\Tools\MSVC\14.44.35207\include\xmemory

; 289  :         ::operator delete(_Ptr, _Bytes);

  0001f	6a 18		 push	 24			; 00000018H
  00021	50		 push	 eax
  00022	e8 00 00 00 00	 call	 ??3@YAXPAXI@Z		; operator delete
  00027	83 c4 08	 add	 esp, 8
; File C:\Program Files\Microsoft Visual Studio\2022\Professional\VC\Tools\MSVC\14.44.35207\include\xtree

; 768  :         while (!_Rootnode->_Isnil) { // free subtrees, then node

  0002a	80 7e 0d 00	 cmp	 BYTE PTR [esi+13], 0
  0002e	74 e0		 je	 SHORT $LL8@Tree
$LN61@Tree:
; File C:\Program Files\Microsoft Visual Studio\2022\Professional\VC\Tools\MSVC\14.44.35207\include\xmemory

; 289  :         ::operator delete(_Ptr, _Bytes);

  00030	6a 18		 push	 24			; 00000018H
  00032	ff 37		 push	 DWORD PTR [edi]
  00034	e8 00 00 00 00	 call	 ??3@YAXPAXI@Z		; operator delete
  00039	83 c4 08	 add	 esp, 8
  0003c	5f		 pop	 edi
  0003d	5e		 pop	 esi
; File C:\Program Files\Microsoft Visual Studio\2022\Professional\VC\Tools\MSVC\14.44.35207\include\xtree

; 1102 :     }

  0003e	c3		 ret	 0
??1?$_Tree@V?$_Tmap_traits@KJU?$less@K@std@@V?$allocator@U?$pair@$$CBKJ@std@@@2@$0A@@std@@@std@@QAE@XZ ENDP ; std::_Tree<std::_Tmap_traits<unsigned long,long,std::less<unsigned long>,std::allocator<std::pair<unsigned long const ,long> >,0> >::~_Tree<std::_Tmap_traits<unsigned long,long,std::less<unsigned long>,std::allocator<std::pair<unsigned long const ,long> >,0> >
_TEXT	ENDS
; Function compile flags: /Ogtp
; File C:\IAGOS\server\v18\Source\Source\DatabaseServer\couplehelper.cpp
; File C:\IAGOS\server\v18\Source\Source\_Network\Mcl\Include\CMclAutoLock.h
; File C:\IAGOS\server\v18\Source\Source\_Network\Mcl\Include\CMclCritSec.h
; File C:\IAGOS\server\v18\Source\Source\DatabaseServer\couplehelper.cpp
; File C:\IAGOS\server\v18\Source\Source\_Network\Mcl\Include\CMclCritSec.h
; File C:\IAGOS\server\v18\Source\Source\DatabaseServer\couplehelper.cpp
;	COMDAT ?GetGender@CCoupleHelper@@AAEXPAVCCouple@@AAH1@Z
_TEXT	SEGMENT
_Lock$ = -16						; size = 4
__$EHRec$ = -12						; size = 12
_pCouple$ = 8						; size = 4
_nGenderFirst$ = 12					; size = 4
_nGenderSecond$ = 16					; size = 4
?GetGender@CCoupleHelper@@AAEXPAVCCouple@@AAH1@Z PROC	; CCoupleHelper::GetGender, COMDAT
; _this$ = ecx

; 232  : {

  00000	55		 push	 ebp
  00001	8b ec		 mov	 ebp, esp
  00003	6a ff		 push	 -1
  00005	68 00 00 00 00	 push	 __ehhandler$?GetGender@CCoupleHelper@@AAEXPAVCCouple@@AAH1@Z
  0000a	64 a1 00 00 00
	00		 mov	 eax, DWORD PTR fs:0
  00010	50		 push	 eax
  00011	51		 push	 ecx
  00012	56		 push	 esi
  00013	57		 push	 edi
  00014	a1 00 00 00 00	 mov	 eax, DWORD PTR ___security_cookie
  00019	33 c5		 xor	 eax, ebp
  0001b	50		 push	 eax
  0001c	8d 45 f4	 lea	 eax, DWORD PTR __$EHRec$[ebp]
  0001f	64 a3 00 00 00
	00		 mov	 DWORD PTR fs:0, eax

; 233  : 	CMclAutoLock	Lock( CPlayerDataCenter::GetInstance()->m_Access );

  00025	e8 00 00 00 00	 call	 ?GetInstance@CPlayerDataCenter@@SAPAV1@XZ ; CPlayerDataCenter::GetInstance
  0002a	83 c0 14	 add	 eax, 20			; 00000014H
; File C:\IAGOS\server\v18\Source\Source\_Network\Mcl\Include\CMclAutoLock.h

; 21   : 		m_pcCritSec = &rCMclCritSec;

  0002d	89 45 f0	 mov	 DWORD PTR _Lock$[ebp], eax
; File C:\IAGOS\server\v18\Source\Source\_Network\Mcl\Include\CMclCritSec.h

; 33   : 		::EnterCriticalSection( &m_CritSec );

  00030	8d 70 04	 lea	 esi, DWORD PTR [eax+4]
  00033	56		 push	 esi
  00034	ff 15 00 00 00
	00		 call	 DWORD PTR __imp__EnterCriticalSection@4
; File C:\IAGOS\server\v18\Source\Source\DatabaseServer\couplehelper.cpp

; 234  : 	PlayerData* pData	= CPlayerDataCenter::GetInstance()->GetPlayerData( pCouple->GetFirst() );

  0003a	8b 7d 08	 mov	 edi, DWORD PTR _pCouple$[ebp]
  0003d	c7 45 fc 00 00
	00 00		 mov	 DWORD PTR __$EHRec$[ebp+8], 0
  00044	ff 77 0c	 push	 DWORD PTR [edi+12]
  00047	e8 00 00 00 00	 call	 ?GetInstance@CPlayerDataCenter@@SAPAV1@XZ ; CPlayerDataCenter::GetInstance
  0004c	8b c8		 mov	 ecx, eax
  0004e	e8 00 00 00 00	 call	 ?GetPlayerData@CPlayerDataCenter@@QAEPAU_PlayerData@@K@Z ; CPlayerDataCenter::GetPlayerData

; 235  : 	if( pData )

  00053	85 c0		 test	 eax, eax
  00055	74 09		 je	 SHORT $LN2@GetGender

; 236  : 		nGenderFirst	= pData->data.nSex;

  00057	0f b6 48 08	 movzx	 ecx, BYTE PTR [eax+8]
  0005b	8b 45 0c	 mov	 eax, DWORD PTR _nGenderFirst$[ebp]
  0005e	89 08		 mov	 DWORD PTR [eax], ecx
$LN2@GetGender:

; 237  : 	pData	= CPlayerDataCenter::GetInstance()->GetPlayerData( pCouple->GetSecond() );

  00060	ff 77 10	 push	 DWORD PTR [edi+16]
  00063	e8 00 00 00 00	 call	 ?GetInstance@CPlayerDataCenter@@SAPAV1@XZ ; CPlayerDataCenter::GetInstance
  00068	8b c8		 mov	 ecx, eax
  0006a	e8 00 00 00 00	 call	 ?GetPlayerData@CPlayerDataCenter@@QAEPAU_PlayerData@@K@Z ; CPlayerDataCenter::GetPlayerData

; 238  : 	if( pData )

  0006f	85 c0		 test	 eax, eax
  00071	74 09		 je	 SHORT $LN3@GetGender

; 239  : 		nGenderSecond	= pData->data.nSex;

  00073	0f b6 48 08	 movzx	 ecx, BYTE PTR [eax+8]
  00077	8b 45 10	 mov	 eax, DWORD PTR _nGenderSecond$[ebp]
  0007a	89 08		 mov	 DWORD PTR [eax], ecx
$LN3@GetGender:
; File C:\IAGOS\server\v18\Source\Source\_Network\Mcl\Include\CMclCritSec.h

; 39   : 		::LeaveCriticalSection( &m_CritSec );

  0007c	56		 push	 esi
  0007d	ff 15 00 00 00
	00		 call	 DWORD PTR __imp__LeaveCriticalSection@4
; File C:\IAGOS\server\v18\Source\Source\DatabaseServer\couplehelper.cpp

; 240  : }

  00083	8b 4d f4	 mov	 ecx, DWORD PTR __$EHRec$[ebp]
  00086	64 89 0d 00 00
	00 00		 mov	 DWORD PTR fs:0, ecx
  0008d	59		 pop	 ecx
  0008e	5f		 pop	 edi
  0008f	5e		 pop	 esi
  00090	8b e5		 mov	 esp, ebp
  00092	5d		 pop	 ebp
  00093	c2 0c 00	 ret	 12			; 0000000cH
_TEXT	ENDS
;	COMDAT text$x
text$x	SEGMENT
__unwindfunclet$?GetGender@CCoupleHelper@@AAEXPAVCCouple@@AAH1@Z$0:
  00000	8d 4d f0	 lea	 ecx, DWORD PTR _Lock$[ebp]
  00003	e9 00 00 00 00	 jmp	 ??1CMclAutoLock@@QAE@XZ	; CMclAutoLock::~CMclAutoLock
  00008	cc		 int	 3
  00009	cc		 int	 3
  0000a	cc		 int	 3
  0000b	cc		 int	 3
  0000c	cc		 int	 3
__ehhandler$?GetGender@CCoupleHelper@@AAEXPAVCCouple@@AAH1@Z:
  0000d	90		 npad	 1
  0000e	90		 npad	 1
  0000f	8b 54 24 08	 mov	 edx, DWORD PTR [esp+8]
  00013	8d 42 0c	 lea	 eax, DWORD PTR [edx+12]
  00016	8b 4a f0	 mov	 ecx, DWORD PTR [edx-16]
  00019	33 c8		 xor	 ecx, eax
  0001b	e8 00 00 00 00	 call	 @__security_check_cookie@4
  00020	b8 00 00 00 00	 mov	 eax, OFFSET __ehfuncinfo$?GetGender@CCoupleHelper@@AAEXPAVCCouple@@AAH1@Z
  00025	e9 00 00 00 00	 jmp	 ___CxxFrameHandler3
text$x	ENDS
?GetGender@CCoupleHelper@@AAEXPAVCCouple@@AAH1@Z ENDP	; CCoupleHelper::GetGender
; Function compile flags: /Ogtp
; File C:\IAGOS\server\v18\Source\Source\DatabaseServer\couplehelper.h
; File C:\Program Files\Microsoft Visual Studio\2022\Professional\VC\Tools\MSVC\14.44.35207\include\utility
; File C:\IAGOS\server\v18\Source\Source\DatabaseServer\couplehelper.h
; File C:\Program Files\Microsoft Visual Studio\2022\Professional\VC\Tools\MSVC\14.44.35207\include\utility
; File C:\Program Files\Microsoft Visual Studio\2022\Professional\VC\Tools\MSVC\14.44.35207\include\xtree
; File C:\Program Files\Microsoft Visual Studio\2022\Professional\VC\Tools\MSVC\14.44.35207\include\utility
; File C:\Program Files\Microsoft Visual Studio\2022\Professional\VC\Tools\MSVC\14.44.35207\include\xtree
; File C:\Program Files\Microsoft Visual Studio\2022\Professional\VC\Tools\MSVC\14.44.35207\include\utility
; File C:\Program Files\Microsoft Visual Studio\2022\Professional\VC\Tools\MSVC\14.44.35207\include\xtree
; File C:\Program Files\Microsoft Visual Studio\2022\Professional\VC\Tools\MSVC\14.44.35207\include\type_traits
; File C:\Program Files\Microsoft Visual Studio\2022\Professional\VC\Tools\MSVC\14.44.35207\include\xtree
; File C:\Program Files\Microsoft Visual Studio\2022\Professional\VC\Tools\MSVC\14.44.35207\include\utility
; File C:\IAGOS\server\v18\Source\Source\DatabaseServer\couplehelper.h
; File C:\Program Files\Microsoft Visual Studio\2022\Professional\VC\Tools\MSVC\14.44.35207\include\xtree
; File C:\Program Files\Microsoft Visual Studio\2022\Professional\VC\Tools\MSVC\14.44.35207\include\xmemory
; File C:\Program Files\Microsoft Visual Studio\2022\Professional\VC\Tools\MSVC\14.44.35207\include\xtree
; File C:\Program Files\Microsoft Visual Studio\2022\Professional\VC\Tools\MSVC\14.44.35207\include\xmemory
; File C:\Program Files\Microsoft Visual Studio\2022\Professional\VC\Tools\MSVC\14.44.35207\include\xtree
; File C:\Program Files\Microsoft Visual Studio\2022\Professional\VC\Tools\MSVC\14.44.35207\include\xmemory
; File C:\Program Files\Microsoft Visual Studio\2022\Professional\VC\Tools\MSVC\14.44.35207\include\xtree
; File C:\Program Files\Microsoft Visual Studio\2022\Professional\VC\Tools\MSVC\14.44.35207\include\utility
; File C:\IAGOS\server\v18\Source\Source\DatabaseServer\couplehelper.h
; File C:\Program Files\Microsoft Visual Studio\2022\Professional\VC\Tools\MSVC\14.44.35207\include\xtree
; File C:\IAGOS\server\v18\Source\Source\DatabaseServer\couplehelper.h
;	COMDAT ?AddPropose@CCoupleHelper@@QAE_NKJ@Z
_TEXT	SEGMENT
$T3 = -44						; size = 12
__Loc$4 = -32						; size = 12
$T5 = -20						; size = 8
$T6 = -20						; size = 8
__$EHRec$ = -12						; size = 12
_idPlayer$ = 8						; size = 4
_t$ = 12						; size = 4
?AddPropose@CCoupleHelper@@QAE_NKJ@Z PROC		; CCoupleHelper::AddPropose, COMDAT
; _this$ = ecx

; 59   : 	bool	AddPropose( u_long idPlayer, time_t t )	{	return m_mapProposes.insert( MUT::value_type( idPlayer, t ) ).second;	}

  00000	55		 push	 ebp
  00001	8b ec		 mov	 ebp, esp
  00003	6a ff		 push	 -1
  00005	68 00 00 00 00	 push	 __ehhandler$?AddPropose@CCoupleHelper@@QAE_NKJ@Z
  0000a	64 a1 00 00 00
	00		 mov	 eax, DWORD PTR fs:0
  00010	50		 push	 eax
  00011	83 ec 20	 sub	 esp, 32			; 00000020H
  00014	53		 push	 ebx
  00015	56		 push	 esi
  00016	57		 push	 edi
  00017	a1 00 00 00 00	 mov	 eax, DWORD PTR ___security_cookie
  0001c	33 c5		 xor	 eax, ebp
  0001e	50		 push	 eax
  0001f	8d 45 f4	 lea	 eax, DWORD PTR __$EHRec$[ebp]
  00022	64 a3 00 00 00
	00		 mov	 DWORD PTR fs:0, eax
; File C:\Program Files\Microsoft Visual Studio\2022\Professional\VC\Tools\MSVC\14.44.35207\include\utility

; 274  :         : first(_STD forward<_Other1>(_Val1)), second(_STD forward<_Other2>(_Val2)) {

  00028	8b 45 0c	 mov	 eax, DWORD PTR _t$[ebp]
; File C:\IAGOS\server\v18\Source\Source\DatabaseServer\couplehelper.h

; 59   : 	bool	AddPropose( u_long idPlayer, time_t t )	{	return m_mapProposes.insert( MUT::value_type( idPlayer, t ) ).second;	}

  0002b	8d 79 0c	 lea	 edi, DWORD PTR [ecx+12]
; File C:\Program Files\Microsoft Visual Studio\2022\Professional\VC\Tools\MSVC\14.44.35207\include\utility

; 274  :         : first(_STD forward<_Other1>(_Val1)), second(_STD forward<_Other2>(_Val2)) {

  0002e	8b 5d 08	 mov	 ebx, DWORD PTR _idPlayer$[ebp]
; File C:\Program Files\Microsoft Visual Studio\2022\Professional\VC\Tools\MSVC\14.44.35207\include\xtree

; 1017 :             _Loc                = _Find_lower_bound(_Keyval);

  00031	8b cf		 mov	 ecx, edi
; File C:\Program Files\Microsoft Visual Studio\2022\Professional\VC\Tools\MSVC\14.44.35207\include\utility

; 274  :         : first(_STD forward<_Other1>(_Val1)), second(_STD forward<_Other2>(_Val2)) {

  00033	89 45 f0	 mov	 DWORD PTR $T5[ebp+4], eax
; File C:\Program Files\Microsoft Visual Studio\2022\Professional\VC\Tools\MSVC\14.44.35207\include\xtree

; 1017 :             _Loc                = _Find_lower_bound(_Keyval);

  00036	8d 45 ec	 lea	 eax, DWORD PTR $T5[ebp]
  00039	50		 push	 eax
  0003a	8d 45 d4	 lea	 eax, DWORD PTR $T3[ebp]
; File C:\Program Files\Microsoft Visual Studio\2022\Professional\VC\Tools\MSVC\14.44.35207\include\utility

; 274  :         : first(_STD forward<_Other1>(_Val1)), second(_STD forward<_Other2>(_Val2)) {

  0003d	89 5d ec	 mov	 DWORD PTR $T5[ebp], ebx
; File C:\Program Files\Microsoft Visual Studio\2022\Professional\VC\Tools\MSVC\14.44.35207\include\xtree

; 1017 :             _Loc                = _Find_lower_bound(_Keyval);

  00040	50		 push	 eax
  00041	e8 00 00 00 00	 call	 ??$_Find_lower_bound@K@?$_Tree@V?$_Tmap_traits@KJU?$less@K@std@@V?$allocator@U?$pair@$$CBKJ@std@@@2@$0A@@std@@@std@@IBE?AU?$_Tree_find_result@PAU?$_Tree_node@U?$pair@$$CBKJ@std@@PAX@std@@@1@ABK@Z ; std::_Tree<std::_Tmap_traits<unsigned long,long,std::less<unsigned long>,std::allocator<std::pair<unsigned long const ,long> >,0> >::_Find_lower_bound<unsigned long>
  00046	f3 0f 7e 00	 movq	 xmm0, QWORD PTR [eax]
  0004a	8b 40 08	 mov	 eax, DWORD PTR [eax+8]
  0004d	66 0f d6 45 e0	 movq	 QWORD PTR __Loc$4[ebp], xmm0

; 1624 :         return !_Bound->_Isnil && !_DEBUG_LT_PRED(_Getcomp(), _Keyval, _Traits::_Kfn(_Bound->_Myval));

  00052	80 78 0d 00	 cmp	 BYTE PTR [eax+13], 0
  00056	75 1b		 jne	 SHORT $LN9@AddPropose
; File C:\Program Files\Microsoft Visual Studio\2022\Professional\VC\Tools\MSVC\14.44.35207\include\type_traits

; 2380 :         return _Left < _Right;

  00058	3b 58 10	 cmp	 ebx, DWORD PTR [eax+16]
; File C:\Program Files\Microsoft Visual Studio\2022\Professional\VC\Tools\MSVC\14.44.35207\include\xtree

; 1624 :         return !_Bound->_Isnil && !_DEBUG_LT_PRED(_Getcomp(), _Keyval, _Traits::_Kfn(_Bound->_Myval));

  0005b	72 16		 jb	 SHORT $LN9@AddPropose
; File C:\Program Files\Microsoft Visual Studio\2022\Professional\VC\Tools\MSVC\14.44.35207\include\utility

; 274  :         : first(_STD forward<_Other1>(_Val1)), second(_STD forward<_Other2>(_Val2)) {

  0005d	32 c0		 xor	 al, al
; File C:\IAGOS\server\v18\Source\Source\DatabaseServer\couplehelper.h

; 59   : 	bool	AddPropose( u_long idPlayer, time_t t )	{	return m_mapProposes.insert( MUT::value_type( idPlayer, t ) ).second;	}

  0005f	8b 4d f4	 mov	 ecx, DWORD PTR __$EHRec$[ebp]
  00062	64 89 0d 00 00
	00 00		 mov	 DWORD PTR fs:0, ecx
  00069	59		 pop	 ecx
  0006a	5f		 pop	 edi
  0006b	5e		 pop	 esi
  0006c	5b		 pop	 ebx
  0006d	8b e5		 mov	 esp, ebp
  0006f	5d		 pop	 ebp
  00070	c2 08 00	 ret	 8
$LN9@AddPropose:
; File C:\Program Files\Microsoft Visual Studio\2022\Professional\VC\Tools\MSVC\14.44.35207\include\xtree

; 1648 :         if (max_size() == _Get_scary()->_Mysize) {

  00073	81 7f 04 aa aa
	aa 0a		 cmp	 DWORD PTR [edi+4], 178956970 ; 0aaaaaaaH
  0007a	74 58		 je	 SHORT $LN109@AddPropose

; 1023 :             _Inserted = _Tree_temp_node<_Alnode>(_Getal(), _Scary->_Myhead, _STD forward<_Valtys>(_Vals)...)._Release();

  0007c	8b 37		 mov	 esi, DWORD PTR [edi]
; File C:\Program Files\Microsoft Visual Studio\2022\Professional\VC\Tools\MSVC\14.44.35207\include\xmemory

; 1160 :     _CONSTEXPR20 explicit _Alloc_construct_ptr(_Alloc& _Al_) : _Al(_Al_), _Ptr(nullptr) {}

  0007e	89 7d ec	 mov	 DWORD PTR $T6[ebp], edi

; 136  :         return ::operator new(_Bytes);

  00081	6a 18		 push	 24			; 00000018H
; File C:\Program Files\Microsoft Visual Studio\2022\Professional\VC\Tools\MSVC\14.44.35207\include\xtree

; 808  :     explicit _Tree_temp_node_alloc(_Alnode& _Al_) : _Alloc_construct_ptr<_Alnode>(_Al_) {

  00083	c7 45 fc 00 00
	00 00		 mov	 DWORD PTR __$EHRec$[ebp+8], 0
; File C:\Program Files\Microsoft Visual Studio\2022\Professional\VC\Tools\MSVC\14.44.35207\include\xmemory

; 1167 :         _Ptr = nullptr; // if allocate throws, prevents double-free

  0008a	c7 45 f0 00 00
	00 00		 mov	 DWORD PTR $T6[ebp+4], 0

; 136  :         return ::operator new(_Bytes);

  00091	e8 00 00 00 00	 call	 ??2@YAPAXI@Z		; operator new
; File C:\Program Files\Microsoft Visual Studio\2022\Professional\VC\Tools\MSVC\14.44.35207\include\xtree

; 830  :         _Alnode_traits::construct(this->_Al, _STD addressof(this->_Ptr->_Myval), _STD forward<_Valtys>(_Vals)...);

  00096	8b 4d 0c	 mov	 ecx, DWORD PTR _t$[ebp]
; File C:\Program Files\Microsoft Visual Studio\2022\Professional\VC\Tools\MSVC\14.44.35207\include\xmemory

; 136  :         return ::operator new(_Bytes);

  00099	83 c4 04	 add	 esp, 4
; File C:\Program Files\Microsoft Visual Studio\2022\Professional\VC\Tools\MSVC\14.44.35207\include\xtree

; 830  :         _Alnode_traits::construct(this->_Al, _STD addressof(this->_Ptr->_Myval), _STD forward<_Valtys>(_Vals)...);

  0009c	89 58 10	 mov	 DWORD PTR [eax+16], ebx
  0009f	89 48 14	 mov	 DWORD PTR [eax+20], ecx

; 1042 :         return {_Scary->_Insert_node(_Loc._Location, _Inserted), true};

  000a2	8b cf		 mov	 ecx, edi
  000a4	50		 push	 eax
  000a5	ff 75 e4	 push	 DWORD PTR __Loc$4[ebp+4]

; 831  :         _Construct_in_place(this->_Ptr->_Left, _Myhead);

  000a8	89 30		 mov	 DWORD PTR [eax], esi

; 1042 :         return {_Scary->_Insert_node(_Loc._Location, _Inserted), true};

  000aa	ff 75 e0	 push	 DWORD PTR __Loc$4[ebp]

; 832  :         _Construct_in_place(this->_Ptr->_Parent, _Myhead);

  000ad	89 70 04	 mov	 DWORD PTR [eax+4], esi

; 833  :         _Construct_in_place(this->_Ptr->_Right, _Myhead);

  000b0	89 70 08	 mov	 DWORD PTR [eax+8], esi

; 834  :         this->_Ptr->_Color = _Red;

  000b3	66 c7 40 0c 00
	00		 mov	 WORD PTR [eax+12], 0

; 1042 :         return {_Scary->_Insert_node(_Loc._Location, _Inserted), true};

  000b9	e8 00 00 00 00	 call	 ?_Insert_node@?$_Tree_val@U?$_Tree_simple_types@U?$pair@$$CBKJ@std@@@std@@@std@@QAEPAU?$_Tree_node@U?$pair@$$CBKJ@std@@PAX@2@U?$_Tree_id@PAU?$_Tree_node@U?$pair@$$CBKJ@std@@PAX@std@@@2@QAU32@@Z ; std::_Tree_val<std::_Tree_simple_types<std::pair<unsigned long const ,long> > >::_Insert_node
; File C:\Program Files\Microsoft Visual Studio\2022\Professional\VC\Tools\MSVC\14.44.35207\include\utility

; 274  :         : first(_STD forward<_Other1>(_Val1)), second(_STD forward<_Other2>(_Val2)) {

  000be	b0 01		 mov	 al, 1
; File C:\IAGOS\server\v18\Source\Source\DatabaseServer\couplehelper.h

; 59   : 	bool	AddPropose( u_long idPlayer, time_t t )	{	return m_mapProposes.insert( MUT::value_type( idPlayer, t ) ).second;	}

  000c0	8b 4d f4	 mov	 ecx, DWORD PTR __$EHRec$[ebp]
  000c3	64 89 0d 00 00
	00 00		 mov	 DWORD PTR fs:0, ecx
  000ca	59		 pop	 ecx
  000cb	5f		 pop	 edi
  000cc	5e		 pop	 esi
  000cd	5b		 pop	 ebx
  000ce	8b e5		 mov	 esp, ebp
  000d0	5d		 pop	 ebp
  000d1	c2 08 00	 ret	 8
$LN109@AddPropose:
; File C:\Program Files\Microsoft Visual Studio\2022\Professional\VC\Tools\MSVC\14.44.35207\include\xtree

; 1649 :             _Throw_tree_length_error();

  000d4	e8 00 00 00 00	 call	 ?_Throw_tree_length_error@std@@YAXXZ ; std::_Throw_tree_length_error
$LN107@AddPropose:
  000d9	cc		 int	 3
_TEXT	ENDS
;	COMDAT text$x
text$x	SEGMENT
__unwindfunclet$?AddPropose@CCoupleHelper@@QAE_NKJ@Z$2:
  00000	8d 4d ec	 lea	 ecx, DWORD PTR $T6[ebp]
  00003	e9 00 00 00 00	 jmp	 ??1?$_Alloc_construct_ptr@V?$allocator@U?$_Tree_node@U?$pair@$$CBKJ@std@@PAX@std@@@std@@@std@@QAE@XZ ; std::_Alloc_construct_ptr<std::allocator<std::_Tree_node<std::pair<unsigned long const ,long>,void *> > >::~_Alloc_construct_ptr<std::allocator<std::_Tree_node<std::pair<unsigned long const ,long>,void *> > >
  00008	cc		 int	 3
  00009	cc		 int	 3
  0000a	cc		 int	 3
  0000b	cc		 int	 3
  0000c	cc		 int	 3
__ehhandler$?AddPropose@CCoupleHelper@@QAE_NKJ@Z:
  0000d	90		 npad	 1
  0000e	90		 npad	 1
  0000f	8b 54 24 08	 mov	 edx, DWORD PTR [esp+8]
  00013	8d 42 0c	 lea	 eax, DWORD PTR [edx+12]
  00016	8b 4a d0	 mov	 ecx, DWORD PTR [edx-48]
  00019	33 c8		 xor	 ecx, eax
  0001b	e8 00 00 00 00	 call	 @__security_check_cookie@4
  00020	b8 00 00 00 00	 mov	 eax, OFFSET __ehfuncinfo$?AddPropose@CCoupleHelper@@QAE_NKJ@Z
  00025	e9 00 00 00 00	 jmp	 ___CxxFrameHandler3
text$x	ENDS
?AddPropose@CCoupleHelper@@QAE_NKJ@Z ENDP		; CCoupleHelper::AddPropose
; Function compile flags: /Ogtp
; File C:\IAGOS\server\v18\Source\Source\DatabaseServer\couplehelper.cpp
; File C:\Program Files\Microsoft Visual Studio\2022\Professional\VC\Tools\MSVC\14.44.35207\include\xtree
; File C:\IAGOS\server\v18\Source\Source\DatabaseServer\couplehelper.cpp
; File C:\Program Files\Microsoft Visual Studio\2022\Professional\VC\Tools\MSVC\14.44.35207\include\xtree
; File C:\Program Files\Microsoft Visual Studio\2022\Professional\VC\Tools\MSVC\14.44.35207\include\type_traits
; File C:\Program Files\Microsoft Visual Studio\2022\Professional\VC\Tools\MSVC\14.44.35207\include\xtree
; File C:\IAGOS\server\v18\Source\Source\DatabaseServer\couplehelper.cpp
;	COMDAT ?GetPropose@CCoupleHelper@@QAEJK@Z
_TEXT	SEGMENT
__Loc$1 = -12						; size = 12
_idPlayer$ = 8						; size = 4
?GetPropose@CCoupleHelper@@QAEJK@Z PROC			; CCoupleHelper::GetPropose, COMDAT
; _this$ = ecx

; 346  : {

  00000	55		 push	 ebp
  00001	8b ec		 mov	 ebp, esp
  00003	83 ec 0c	 sub	 esp, 12			; 0000000cH
  00006	56		 push	 esi
; File C:\Program Files\Microsoft Visual Studio\2022\Professional\VC\Tools\MSVC\14.44.35207\include\xtree

; 1384 :         const _Tree_find_result<_Nodeptr> _Loc = _Find_lower_bound(_Keyval);

  00007	8d 45 08	 lea	 eax, DWORD PTR _idPlayer$[ebp]
  0000a	50		 push	 eax
; File C:\IAGOS\server\v18\Source\Source\DatabaseServer\couplehelper.cpp

; 347  : 	MUT::iterator i = m_mapProposes.find( idPlayer );

  0000b	8d 71 0c	 lea	 esi, DWORD PTR [ecx+12]
; File C:\Program Files\Microsoft Visual Studio\2022\Professional\VC\Tools\MSVC\14.44.35207\include\xtree

; 1384 :         const _Tree_find_result<_Nodeptr> _Loc = _Find_lower_bound(_Keyval);

  0000e	8d 45 f4	 lea	 eax, DWORD PTR __Loc$1[ebp]
  00011	8b ce		 mov	 ecx, esi
  00013	50		 push	 eax
  00014	e8 00 00 00 00	 call	 ??$_Find_lower_bound@K@?$_Tree@V?$_Tmap_traits@KJU?$less@K@std@@V?$allocator@U?$pair@$$CBKJ@std@@@2@$0A@@std@@@std@@IBE?AU?$_Tree_find_result@PAU?$_Tree_node@U?$pair@$$CBKJ@std@@PAX@std@@@1@ABK@Z ; std::_Tree<std::_Tmap_traits<unsigned long,long,std::less<unsigned long>,std::allocator<std::pair<unsigned long const ,long> >,0> >::_Find_lower_bound<unsigned long>

; 1624 :         return !_Bound->_Isnil && !_DEBUG_LT_PRED(_Getcomp(), _Keyval, _Traits::_Kfn(_Bound->_Myval));

  00019	8b 45 fc	 mov	 eax, DWORD PTR __Loc$1[ebp+8]
  0001c	80 78 0d 00	 cmp	 BYTE PTR [eax+13], 0
  00020	75 16		 jne	 SHORT $LN2@GetPropose
; File C:\Program Files\Microsoft Visual Studio\2022\Professional\VC\Tools\MSVC\14.44.35207\include\type_traits

; 2380 :         return _Left < _Right;

  00022	8b 4d 08	 mov	 ecx, DWORD PTR _idPlayer$[ebp]
  00025	3b 48 10	 cmp	 ecx, DWORD PTR [eax+16]
; File C:\Program Files\Microsoft Visual Studio\2022\Professional\VC\Tools\MSVC\14.44.35207\include\xtree

; 1624 :         return !_Bound->_Isnil && !_DEBUG_LT_PRED(_Getcomp(), _Keyval, _Traits::_Kfn(_Bound->_Myval));

  00028	72 0e		 jb	 SHORT $LN2@GetPropose

; 37   :     _Tree_unchecked_const_iterator(_Nodeptr _Pnode, const _Mytree* _Plist) noexcept : _Ptr(_Pnode) {

  0002a	3b 06		 cmp	 eax, DWORD PTR [esi]
; File C:\IAGOS\server\v18\Source\Source\DatabaseServer\couplehelper.cpp

; 348  : 	if( i != m_mapProposes.end() )

  0002c	74 0a		 je	 SHORT $LN2@GetPropose

; 349  : 		return i->second;

  0002e	8b 40 14	 mov	 eax, DWORD PTR [eax+20]
  00031	5e		 pop	 esi

; 351  : }

  00032	8b e5		 mov	 esp, ebp
  00034	5d		 pop	 ebp
  00035	c2 04 00	 ret	 4
$LN2@GetPropose:

; 350  : 	return 0;

  00038	33 c0		 xor	 eax, eax
  0003a	5e		 pop	 esi

; 351  : }

  0003b	8b e5		 mov	 esp, ebp
  0003d	5d		 pop	 ebp
  0003e	c2 04 00	 ret	 4
?GetPropose@CCoupleHelper@@QAEJK@Z ENDP			; CCoupleHelper::GetPropose
_TEXT	ENDS
; Function compile flags: /Ogtp
; File C:\IAGOS\server\v18\Source\Source\DatabaseServer\couplehelper.cpp
;	COMDAT ?SetPropose@CCoupleHelper@@QAEHKJ@Z
_TEXT	SEGMENT
_idPlayer$ = 8						; size = 4
_t$ = 12						; size = 4
?SetPropose@CCoupleHelper@@QAEHKJ@Z PROC		; CCoupleHelper::SetPropose, COMDAT
; _this$ = ecx

; 354  : {

  00000	55		 push	 ebp
  00001	8b ec		 mov	 ebp, esp
  00003	56		 push	 esi

; 355  : 	if( !m_pController->Propose( idPlayer, t ) )

  00004	ff 75 0c	 push	 DWORD PTR _t$[ebp]
  00007	8b f1		 mov	 esi, ecx
  00009	ff 75 08	 push	 DWORD PTR _idPlayer$[ebp]
  0000c	8b 4e 08	 mov	 ecx, DWORD PTR [esi+8]
  0000f	e8 00 00 00 00	 call	 ?Propose@CCoupleController@@QAEHKJ@Z ; CCoupleController::Propose
  00014	85 c0		 test	 eax, eax
  00016	75 05		 jne	 SHORT $LN2@SetPropose
  00018	5e		 pop	 esi

; 359  : }

  00019	5d		 pop	 ebp
  0001a	c2 08 00	 ret	 8
$LN2@SetPropose:

; 356  : 		return FALSE;
; 357  : 	AddPropose( idPlayer, t );

  0001d	ff 75 0c	 push	 DWORD PTR _t$[ebp]
  00020	8b ce		 mov	 ecx, esi
  00022	ff 75 08	 push	 DWORD PTR _idPlayer$[ebp]
  00025	e8 00 00 00 00	 call	 ?AddPropose@CCoupleHelper@@QAE_NKJ@Z ; CCoupleHelper::AddPropose

; 358  : 	return TRUE;

  0002a	b8 01 00 00 00	 mov	 eax, 1
  0002f	5e		 pop	 esi

; 359  : }

  00030	5d		 pop	 ebp
  00031	c2 08 00	 ret	 8
?SetPropose@CCoupleHelper@@QAEHKJ@Z ENDP		; CCoupleHelper::SetPropose
_TEXT	ENDS
; Function compile flags: /Ogtp
; File C:\IAGOS\server\v18\Source\Source\DatabaseServer\couplehelper.cpp
; File C:\Program Files (x86)\Windows Kits\10\Include\10.0.26100.0\ucrt\time.h
; File C:\IAGOS\server\v18\Source\Source\DatabaseServer\couplehelper.cpp
; File C:\Program Files (x86)\Windows Kits\10\Include\10.0.26100.0\ucrt\time.h
; File C:\IAGOS\server\v18\Source\Source\DatabaseServer\couplehelper.cpp
; File C:\IAGOS\server\v18\Source\Source\_Common\Data.h
; File C:\IAGOS\server\v18\Source\Source\DatabaseServer\Project.h
; File C:\IAGOS\server\v18\Source\Source\DatabaseServer\couplehelper.cpp
; File C:\IAGOS\server\v18\Source\Source\_Common\Data.h
; File C:\IAGOS\server\v18\Source\Source\DatabaseServer\Project.h
; File C:\IAGOS\server\v18\Source\Source\DatabaseServer\couplehelper.cpp
; File C:\Program Files (x86)\Windows Kits\10\Include\10.0.26100.0\ucrt\time.h
; File C:\IAGOS\server\v18\Source\Source\DatabaseServer\couplehelper.cpp
; File C:\Program Files (x86)\Windows Kits\10\Include\10.0.26100.0\ucrt\time.h
; File C:\IAGOS\server\v18\Source\Source\DatabaseServer\couplehelper.cpp
; File C:\IAGOS\server\v18\Source\Source\_Common\xutil.h
; File C:\IAGOS\server\v18\Source\Source\DatabaseServer\couplehelper.cpp
;	COMDAT ?PostItem@CCoupleHelper@@QAEXKABU_COUPLE_ITEM@@H@Z
_TEXT	SEGMENT
$T2 = -16						; size = 4
__$EHRec$ = -12						; size = 12
_idPlayer$ = 8						; size = 4
_ci$ = 12						; size = 4
_nLevel$ = 16						; size = 4
$T3 = 16						; size = 4
?PostItem@CCoupleHelper@@QAEXKABU_COUPLE_ITEM@@H@Z PROC	; CCoupleHelper::PostItem, COMDAT
; _this$ = ecx

; 243  : {

  00000	55		 push	 ebp
  00001	8b ec		 mov	 ebp, esp
  00003	6a ff		 push	 -1
  00005	68 00 00 00 00	 push	 __ehhandler$?PostItem@CCoupleHelper@@QAEXKABU_COUPLE_ITEM@@H@Z
  0000a	64 a1 00 00 00
	00		 mov	 eax, DWORD PTR fs:0
  00010	50		 push	 eax
  00011	51		 push	 ecx
  00012	53		 push	 ebx
  00013	56		 push	 esi
  00014	57		 push	 edi
  00015	a1 00 00 00 00	 mov	 eax, DWORD PTR ___security_cookie
  0001a	33 c5		 xor	 eax, ebp
  0001c	50		 push	 eax
  0001d	8d 45 f4	 lea	 eax, DWORD PTR __$EHRec$[ebp]
  00020	64 a3 00 00 00
	00		 mov	 DWORD PTR fs:0, eax
  00026	8b d9		 mov	 ebx, ecx

; 244  : 	CMail* pMail	= new CMail;

  00028	68 40 01 00 00	 push	 320			; 00000140H
  0002d	e8 00 00 00 00	 call	 ??2@YAPAXI@Z		; operator new
  00032	83 c4 04	 add	 esp, 4
  00035	89 45 f0	 mov	 DWORD PTR $T2[ebp], eax
  00038	c7 45 fc 00 00
	00 00		 mov	 DWORD PTR __$EHRec$[ebp+8], 0
  0003f	85 c0		 test	 eax, eax
  00041	74 0b		 je	 SHORT $LN4@PostItem
  00043	8b c8		 mov	 ecx, eax
  00045	e8 00 00 00 00	 call	 ??0CMail@@QAE@XZ	; CMail::CMail
  0004a	8b f0		 mov	 esi, eax
  0004c	eb 02		 jmp	 SHORT $LN5@PostItem
$LN4@PostItem:
  0004e	33 f6		 xor	 esi, esi
$LN5@PostItem:
; File C:\Program Files (x86)\Windows Kits\10\Include\10.0.26100.0\ucrt\time.h

; 428  :             return _time32(_Time);

  00050	6a 00		 push	 0
; File C:\IAGOS\server\v18\Source\Source\DatabaseServer\couplehelper.cpp

; 244  : 	CMail* pMail	= new CMail;

  00052	c7 45 fc ff ff
	ff ff		 mov	 DWORD PTR __$EHRec$[ebp+8], -1
; File C:\Program Files (x86)\Windows Kits\10\Include\10.0.26100.0\ucrt\time.h

; 428  :             return _time32(_Time);

  00059	e8 00 00 00 00	 call	 __time32
  0005e	83 c4 04	 add	 esp, 4
; File C:\IAGOS\server\v18\Source\Source\DatabaseServer\couplehelper.cpp

; 245  : 	pMail->m_tmCreate	= ::time_null();

  00061	89 46 14	 mov	 DWORD PTR [esi+20], eax

; 246  : 	pMail->m_idSender	= 0;	//

  00064	c7 46 08 00 00
	00 00		 mov	 DWORD PTR [esi+8], 0
; File C:\IAGOS\server\v18\Source\Source\_Common\Data.h

; 270  : 	if( dwIndex >= (DWORD)m_nMaxIndex )

  0006b	81 3d 78 00 00
	00 fc 0f 00 00	 cmp	 DWORD PTR ?prj@@3VCProject@@A+120, 4092 ; 00000ffcH
  00075	76 14		 jbe	 SHORT $LN38@PostItem

; 271  : 		return NULL;
; 272  : 	return (T*) m_apOffset[ dwIndex ];

  00077	a1 68 00 00 00	 mov	 eax, DWORD PTR ?prj@@3VCProject@@A+104
  0007c	8b 80 f0 3f 00
	00		 mov	 eax, DWORD PTR [eax+16368]
; File C:\IAGOS\server\v18\Source\Source\DatabaseServer\Project.h

; 184  : 		if( m_colorText.GetAt( dwIndex ) == NULL )

  00082	85 c0		 test	 eax, eax
  00084	74 05		 je	 SHORT $LN38@PostItem

; 186  : 		return m_colorText.GetAt( dwIndex )->lpszData; 

  00086	8b 40 04	 mov	 eax, DWORD PTR [eax+4]
  00089	eb 05		 jmp	 SHORT $LN14@PostItem
$LN38@PostItem:

; 185  : 			return "";

  0008b	b8 00 00 00 00	 mov	 eax, OFFSET ??_C@_00CNPNBAHC@@
$LN14@PostItem:
; File C:\IAGOS\server\v18\Source\Source\DatabaseServer\couplehelper.cpp

; 247  : 	sprintf( pMail->m_szTitle, prj.GetText( TID_GAME_COUPLE_ITEM_MAIL_TITLE ) );

  00090	50		 push	 eax
  00091	8d 46 19	 lea	 eax, DWORD PTR [esi+25]
  00094	50		 push	 eax
  00095	e8 00 00 00 00	 call	 _sprintf
  0009a	83 c4 08	 add	 esp, 8
; File C:\IAGOS\server\v18\Source\Source\_Common\Data.h

; 270  : 	if( dwIndex >= (DWORD)m_nMaxIndex )

  0009d	81 3d 78 00 00
	00 fd 0f 00 00	 cmp	 DWORD PTR ?prj@@3VCProject@@A+120, 4093 ; 00000ffdH
  000a7	76 14		 jbe	 SHORT $LN39@PostItem

; 271  : 		return NULL;
; 272  : 	return (T*) m_apOffset[ dwIndex ];

  000a9	a1 68 00 00 00	 mov	 eax, DWORD PTR ?prj@@3VCProject@@A+104
  000ae	8b 80 f4 3f 00
	00		 mov	 eax, DWORD PTR [eax+16372]
; File C:\IAGOS\server\v18\Source\Source\DatabaseServer\Project.h

; 184  : 		if( m_colorText.GetAt( dwIndex ) == NULL )

  000b4	85 c0		 test	 eax, eax
  000b6	74 05		 je	 SHORT $LN39@PostItem

; 186  : 		return m_colorText.GetAt( dwIndex )->lpszData; 

  000b8	8b 40 04	 mov	 eax, DWORD PTR [eax+4]
  000bb	eb 05		 jmp	 SHORT $LN23@PostItem
$LN39@PostItem:

; 185  : 			return "";

  000bd	b8 00 00 00 00	 mov	 eax, OFFSET ??_C@_00CNPNBAHC@@
$LN23@PostItem:
; File C:\IAGOS\server\v18\Source\Source\DatabaseServer\couplehelper.cpp

; 248  : 	sprintf( pMail->m_szText, prj.GetText( TID_GAME_COUPLE_ITEM_MAIL_TEXT ), nLevel );

  000c2	ff 75 10	 push	 DWORD PTR _nLevel$[ebp]
  000c5	50		 push	 eax
  000c6	8d 46 39	 lea	 eax, DWORD PTR [esi+57]
  000c9	50		 push	 eax
  000ca	e8 00 00 00 00	 call	 _sprintf

; 249  : 	pMail->m_pItemElem	= new CItemElem;

  000cf	68 98 00 00 00	 push	 152			; 00000098H
  000d4	e8 00 00 00 00	 call	 ??2@YAPAXI@Z		; operator new
  000d9	83 c4 10	 add	 esp, 16			; 00000010H
  000dc	89 45 10	 mov	 DWORD PTR $T3[ebp], eax
  000df	c7 45 fc 01 00
	00 00		 mov	 DWORD PTR __$EHRec$[ebp+8], 1
  000e6	85 c0		 test	 eax, eax
  000e8	74 0b		 je	 SHORT $LN6@PostItem
  000ea	8b c8		 mov	 ecx, eax
  000ec	e8 00 00 00 00	 call	 ??0CItemElem@@QAE@XZ	; CItemElem::CItemElem
  000f1	8b c8		 mov	 ecx, eax
  000f3	eb 02		 jmp	 SHORT $LN7@PostItem
$LN6@PostItem:
  000f5	33 c9		 xor	 ecx, ecx
$LN7@PostItem:

; 250  : 	pMail->m_pItemElem->m_dwItemId	= ci.nItem;

  000f7	8b 7d 0c	 mov	 edi, DWORD PTR _ci$[ebp]
  000fa	89 4e 0c	 mov	 DWORD PTR [esi+12], ecx
  000fd	c7 45 fc ff ff
	ff ff		 mov	 DWORD PTR __$EHRec$[ebp+8], -1
  00104	8b 07		 mov	 eax, DWORD PTR [edi]
  00106	89 41 08	 mov	 DWORD PTR [ecx+8], eax

; 251  : 	pMail->m_pItemElem->m_nItemNum	= ci.nNum;

  00109	8b 4e 0c	 mov	 ecx, DWORD PTR [esi+12]
  0010c	66 8b 47 10	 mov	 ax, WORD PTR [edi+16]
  00110	66 89 41 66	 mov	 WORD PTR [ecx+102], ax

; 252  : 	pMail->m_pItemElem->m_dwKeepTime	=	0;

  00114	8b 46 0c	 mov	 eax, DWORD PTR [esi+12]
  00117	c7 80 80 00 00
	00 00 00 00 00	 mov	 DWORD PTR [eax+128], 0

; 253  : 	if( ci.nLife > 0 )

  00121	83 7f 0c 00	 cmp	 DWORD PTR [edi+12], 0
  00125	7e 1f		 jle	 SHORT $LN2@PostItem
; File C:\Program Files (x86)\Windows Kits\10\Include\10.0.26100.0\ucrt\time.h

; 428  :             return _time32(_Time);

  00127	6a 00		 push	 0
  00129	e8 00 00 00 00	 call	 __time32
; File C:\IAGOS\server\v18\Source\Source\DatabaseServer\couplehelper.cpp

; 254  : 		pMail->m_pItemElem->m_dwKeepTime	= ::time_null() + ci.nLife * 60;	// ci.nLife(´ÜŔ§: şĐ)

  0012e	8b 57 0c	 mov	 edx, DWORD PTR [edi+12]
; File C:\Program Files (x86)\Windows Kits\10\Include\10.0.26100.0\ucrt\time.h

; 428  :             return _time32(_Time);

  00131	83 c4 04	 add	 esp, 4
; File C:\IAGOS\server\v18\Source\Source\DatabaseServer\couplehelper.cpp

; 254  : 		pMail->m_pItemElem->m_dwKeepTime	= ::time_null() + ci.nLife * 60;	// ci.nLife(´ÜŔ§: şĐ)

  00134	c1 e2 04	 shl	 edx, 4
  00137	2b 57 0c	 sub	 edx, DWORD PTR [edi+12]
  0013a	8d 0c 90	 lea	 ecx, DWORD PTR [eax+edx*4]
  0013d	8b 46 0c	 mov	 eax, DWORD PTR [esi+12]
  00140	89 88 80 00 00
	00		 mov	 DWORD PTR [eax+128], ecx
$LN2@PostItem:

; 255  : 	pMail->m_pItemElem->m_byFlag	= static_cast<BYTE>( ci.nFlags );

  00146	8b 4e 0c	 mov	 ecx, DWORD PTR [esi+12]
  00149	8a 47 08	 mov	 al, BYTE PTR [edi+8]
  0014c	88 41 65	 mov	 BYTE PTR [ecx+101], al
; File C:\IAGOS\server\v18\Source\Source\_Common\xutil.h

; 16   : 	g_next = g_next * 1103515245 + 12345;// + nRandomSeed[ i++ ];

  0014f	69 0d 00 00 00
	00 6d 4e c6 41	 imul	 ecx, DWORD PTR ?g_next@@3KA, 1103515245 ; g_next
  00159	81 c1 39 30 00
	00		 add	 ecx, 12345		; 00003039H
  0015f	89 0d 00 00 00
	00		 mov	 DWORD PTR ?g_next@@3KA, ecx ; g_next
; File C:\IAGOS\server\v18\Source\Source\DatabaseServer\couplehelper.cpp

; 256  : 	pMail->m_pItemElem->SetSerialNumber( xRand() );

  00165	8b 46 0c	 mov	 eax, DWORD PTR [esi+12]
  00168	89 48 30	 mov	 DWORD PTR [eax+48], ecx

; 257  : 	post::Post( idPlayer, pMail, m_pController->GetQueryObject() );

  0016b	8b 43 08	 mov	 eax, DWORD PTR [ebx+8]
  0016e	ff 70 0c	 push	 DWORD PTR [eax+12]
  00171	56		 push	 esi
  00172	ff 75 08	 push	 DWORD PTR _idPlayer$[ebp]
  00175	e8 00 00 00 00	 call	 ?Post@post@@YAXKPAVCMail@@PAVCQuery@@@Z ; post::Post
  0017a	83 c4 0c	 add	 esp, 12			; 0000000cH

; 258  : }

  0017d	8b 4d f4	 mov	 ecx, DWORD PTR __$EHRec$[ebp]
  00180	64 89 0d 00 00
	00 00		 mov	 DWORD PTR fs:0, ecx
  00187	59		 pop	 ecx
  00188	5f		 pop	 edi
  00189	5e		 pop	 esi
  0018a	5b		 pop	 ebx
  0018b	8b e5		 mov	 esp, ebp
  0018d	5d		 pop	 ebp
  0018e	c2 0c 00	 ret	 12			; 0000000cH
_TEXT	ENDS
;	COMDAT text$x
text$x	SEGMENT
__unwindfunclet$?PostItem@CCoupleHelper@@QAEXKABU_COUPLE_ITEM@@H@Z$0:
  00000	68 40 01 00 00	 push	 320			; 00000140H
  00005	8b 45 f0	 mov	 eax, DWORD PTR $T2[ebp]
  00008	50		 push	 eax
  00009	e8 00 00 00 00	 call	 ??3@YAXPAXI@Z		; operator delete
  0000e	83 c4 08	 add	 esp, 8
  00011	c3		 ret	 0
__unwindfunclet$?PostItem@CCoupleHelper@@QAEXKABU_COUPLE_ITEM@@H@Z$1:
  00012	68 98 00 00 00	 push	 152			; 00000098H
  00017	8b 45 10	 mov	 eax, DWORD PTR $T3[ebp]
  0001a	50		 push	 eax
  0001b	e8 00 00 00 00	 call	 ??3@YAXPAXI@Z		; operator delete
  00020	83 c4 08	 add	 esp, 8
  00023	c3		 ret	 0
  00024	cc		 int	 3
  00025	cc		 int	 3
  00026	cc		 int	 3
  00027	cc		 int	 3
  00028	cc		 int	 3
__ehhandler$?PostItem@CCoupleHelper@@QAEXKABU_COUPLE_ITEM@@H@Z:
  00029	90		 npad	 1
  0002a	90		 npad	 1
  0002b	8b 54 24 08	 mov	 edx, DWORD PTR [esp+8]
  0002f	8d 42 0c	 lea	 eax, DWORD PTR [edx+12]
  00032	8b 4a ec	 mov	 ecx, DWORD PTR [edx-20]
  00035	33 c8		 xor	 ecx, eax
  00037	e8 00 00 00 00	 call	 @__security_check_cookie@4
  0003c	b8 00 00 00 00	 mov	 eax, OFFSET __ehfuncinfo$?PostItem@CCoupleHelper@@QAEXKABU_COUPLE_ITEM@@H@Z
  00041	e9 00 00 00 00	 jmp	 ___CxxFrameHandler3
text$x	ENDS
?PostItem@CCoupleHelper@@QAEXKABU_COUPLE_ITEM@@H@Z ENDP	; CCoupleHelper::PostItem
; Function compile flags: /Ogtp
; File C:\IAGOS\server\v18\Source\Source\DatabaseServer\couplehelper.cpp
; File C:\Program Files\Microsoft Visual Studio\2022\Professional\VC\Tools\MSVC\14.44.35207\include\vector
; File C:\IAGOS\server\v18\Source\Source\DatabaseServer\couplehelper.cpp
; File C:\Program Files\Microsoft Visual Studio\2022\Professional\VC\Tools\MSVC\14.44.35207\include\vector
; File C:\IAGOS\server\v18\Source\Source\DatabaseServer\couplehelper.cpp
; File C:\Program Files\Microsoft Visual Studio\2022\Professional\VC\Tools\MSVC\14.44.35207\include\vector
; File C:\IAGOS\server\v18\Source\Source\DatabaseServer\couplehelper.cpp
; File C:\Program Files\Microsoft Visual Studio\2022\Professional\VC\Tools\MSVC\14.44.35207\include\vector
; File C:\IAGOS\server\v18\Source\Source\DatabaseServer\couplehelper.cpp
; File C:\IAGOS\server\v18\Source\Source\_Common\couple.h
; File C:\IAGOS\server\v18\Source\Source\DatabaseServer\couplehelper.cpp
; File C:\IAGOS\server\v18\Source\Source\_Common\couple.h
; File C:\IAGOS\server\v18\Source\Source\DatabaseServer\couplehelper.cpp
; File C:\Program Files\Microsoft Visual Studio\2022\Professional\VC\Tools\MSVC\14.44.35207\include\vector
; File C:\IAGOS\server\v18\Source\Source\DatabaseServer\couplehelper.cpp
; File C:\Program Files\Microsoft Visual Studio\2022\Professional\VC\Tools\MSVC\14.44.35207\include\vector
; File C:\IAGOS\server\v18\Source\Source\DatabaseServer\couplehelper.cpp
; File C:\Program Files\Microsoft Visual Studio\2022\Professional\VC\Tools\MSVC\14.44.35207\include\vector
; File C:\IAGOS\server\v18\Source\Source\DatabaseServer\couplehelper.cpp
;	COMDAT ?PostItem@CCoupleHelper@@QAEXPAVCCouple@@@Z
_TEXT	SEGMENT
_vItems$1$ = -20					; size = 4
_i$1$ = -16						; size = 4
_this$1$ = -12						; size = 4
_nGenderSecond$ = -8					; size = 4
_nGenderFirst$ = -4					; size = 4
_pCouple$ = 8						; size = 4
tv366 = 8						; size = 4
?PostItem@CCoupleHelper@@QAEXPAVCCouple@@@Z PROC	; CCoupleHelper::PostItem, COMDAT
; _this$ = ecx

; 214  : {

  00000	55		 push	 ebp
  00001	8b ec		 mov	 ebp, esp
  00003	83 ec 14	 sub	 esp, 20			; 00000014H
  00006	53		 push	 ebx
  00007	56		 push	 esi
  00008	57		 push	 edi

; 215  : 	VCI& vItems	= CCoupleProperty::Instance()->GetItems( pCouple->GetLevel() );

  00009	8b 7d 08	 mov	 edi, DWORD PTR _pCouple$[ebp]
  0000c	8b f1		 mov	 esi, ecx
  0000e	6a 00		 push	 0
  00010	8b cf		 mov	 ecx, edi
  00012	89 75 f4	 mov	 DWORD PTR _this$1$[ebp], esi
  00015	e8 00 00 00 00	 call	 ?GetLevel@CCouple@@QAEHH@Z ; CCouple::GetLevel
  0001a	50		 push	 eax
  0001b	e8 00 00 00 00	 call	 ?Instance@CCoupleProperty@@SAPAV1@XZ ; CCoupleProperty::Instance
  00020	8b c8		 mov	 ecx, eax
  00022	e8 00 00 00 00	 call	 ?GetItems@CCoupleProperty@@QAEAAV?$vector@U_COUPLE_ITEM@@V?$allocator@U_COUPLE_ITEM@@@std@@@std@@H@Z ; CCoupleProperty::GetItems
  00027	8b d8		 mov	 ebx, eax
  00029	89 5d ec	 mov	 DWORD PTR _vItems$1$[ebp], ebx
; File C:\Program Files\Microsoft Visual Studio\2022\Professional\VC\Tools\MSVC\14.44.35207\include\vector

; 1910 :         return _My_data._Myfirst == _My_data._Mylast;

  0002c	8b 0b		 mov	 ecx, DWORD PTR [ebx]
  0002e	3b 4b 04	 cmp	 ecx, DWORD PTR [ebx+4]
; File C:\IAGOS\server\v18\Source\Source\DatabaseServer\couplehelper.cpp

; 216  : 	if( vItems.empty() )

  00031	0f 84 d6 00 00
	00		 je	 $LN3@PostItem

; 217  : 		return;
; 218  : 	int nGenderFirst, nGenderSecond;
; 219  : 	nGenderFirst	= nGenderSecond	= SEX_SEXLESS;
; 220  : 	GetGender( pCouple, nGenderFirst, nGenderSecond );

  00037	8d 45 f8	 lea	 eax, DWORD PTR _nGenderSecond$[ebp]
  0003a	c7 45 f8 02 00
	00 00		 mov	 DWORD PTR _nGenderSecond$[ebp], 2
  00041	50		 push	 eax
  00042	8d 45 fc	 lea	 eax, DWORD PTR _nGenderFirst$[ebp]
  00045	c7 45 fc 02 00
	00 00		 mov	 DWORD PTR _nGenderFirst$[ebp], 2
  0004c	50		 push	 eax
  0004d	57		 push	 edi
  0004e	8b ce		 mov	 ecx, esi
  00050	e8 00 00 00 00	 call	 ?GetGender@CCoupleHelper@@AAEXPAVCCouple@@AAH1@Z ; CCoupleHelper::GetGender
; File C:\Program Files\Microsoft Visual Studio\2022\Professional\VC\Tools\MSVC\14.44.35207\include\vector

; 1915 :         return static_cast<size_type>(_My_data._Mylast - _My_data._Myfirst);

  00055	8b 4b 04	 mov	 ecx, DWORD PTR [ebx+4]
  00058	b8 67 66 66 66	 mov	 eax, 1717986919		; 66666667H
  0005d	8b 33		 mov	 esi, DWORD PTR [ebx]
  0005f	2b ce		 sub	 ecx, esi
  00061	f7 e9		 imul	 ecx
; File C:\IAGOS\server\v18\Source\Source\DatabaseServer\couplehelper.cpp

; 222  : 	for( DWORD i = 0; i < vItems.size(); i++ )

  00063	c7 45 f0 00 00
	00 00		 mov	 DWORD PTR _i$1$[ebp], 0
; File C:\Program Files\Microsoft Visual Studio\2022\Professional\VC\Tools\MSVC\14.44.35207\include\vector

; 1915 :         return static_cast<size_type>(_My_data._Mylast - _My_data._Myfirst);

  0006a	c1 fa 03	 sar	 edx, 3
  0006d	8b c2		 mov	 eax, edx
  0006f	c1 e8 1f	 shr	 eax, 31			; 0000001fH
  00072	03 c2		 add	 eax, edx
; File C:\IAGOS\server\v18\Source\Source\DatabaseServer\couplehelper.cpp

; 222  : 	for( DWORD i = 0; i < vItems.size(); i++ )

  00074	0f 84 93 00 00
	00		 je	 $LN3@PostItem
; File C:\Program Files\Microsoft Visual Studio\2022\Professional\VC\Tools\MSVC\14.44.35207\include\vector

; 1914 :         auto& _My_data = _Mypair._Myval2;

  0007a	33 c9		 xor	 ecx, ecx
  0007c	89 4d 08	 mov	 DWORD PTR tv366[ebp], ecx
  0007f	90		 npad	 1
$LL4@PostItem:
; File C:\IAGOS\server\v18\Source\Source\DatabaseServer\couplehelper.cpp

; 224  : 		if( vItems[i].nSex == SEX_SEXLESS || vItems[i].nSex == nGenderFirst )

  00080	8b 44 31 04	 mov	 eax, DWORD PTR [ecx+esi+4]
  00084	8d 1c 31	 lea	 ebx, DWORD PTR [ecx+esi]
  00087	83 f8 02	 cmp	 eax, 2
  0008a	74 05		 je	 SHORT $LN7@PostItem
  0008c	3b 45 fc	 cmp	 eax, DWORD PTR _nGenderFirst$[ebp]
  0008f	75 1a		 jne	 SHORT $LN6@PostItem
$LN7@PostItem:
; File C:\IAGOS\server\v18\Source\Source\_Common\couple.h

; 28   : 	u_long	GetFirst()	{	return m_idFirst;	}

  00091	8b 77 0c	 mov	 esi, DWORD PTR [edi+12]
; File C:\IAGOS\server\v18\Source\Source\DatabaseServer\couplehelper.cpp

; 225  : 			PostItem( pCouple->GetFirst(), vItems[i], pCouple->GetLevel() );

  00094	8b cf		 mov	 ecx, edi
  00096	6a 00		 push	 0
  00098	e8 00 00 00 00	 call	 ?GetLevel@CCouple@@QAEHH@Z ; CCouple::GetLevel
  0009d	8b 4d f4	 mov	 ecx, DWORD PTR _this$1$[ebp]
  000a0	50		 push	 eax
  000a1	53		 push	 ebx
  000a2	56		 push	 esi
  000a3	e8 00 00 00 00	 call	 ?PostItem@CCoupleHelper@@QAEXKABU_COUPLE_ITEM@@H@Z ; CCoupleHelper::PostItem
  000a8	8b 4d 08	 mov	 ecx, DWORD PTR tv366[ebp]
$LN6@PostItem:

; 226  : 		if( vItems[i].nSex == SEX_SEXLESS || vItems[i].nSex == nGenderSecond )

  000ab	8b 45 ec	 mov	 eax, DWORD PTR _vItems$1$[ebp]
  000ae	8b 18		 mov	 ebx, DWORD PTR [eax]
  000b0	8b 44 0b 04	 mov	 eax, DWORD PTR [ebx+ecx+4]
  000b4	03 d9		 add	 ebx, ecx
  000b6	83 f8 02	 cmp	 eax, 2
  000b9	74 05		 je	 SHORT $LN9@PostItem
  000bb	3b 45 f8	 cmp	 eax, DWORD PTR _nGenderSecond$[ebp]
  000be	75 1a		 jne	 SHORT $LN2@PostItem
$LN9@PostItem:
; File C:\IAGOS\server\v18\Source\Source\_Common\couple.h

; 29   : 	u_long	GetSecond()		{	return m_idSecond;	}

  000c0	8b 77 10	 mov	 esi, DWORD PTR [edi+16]
; File C:\IAGOS\server\v18\Source\Source\DatabaseServer\couplehelper.cpp

; 227  : 			PostItem( pCouple->GetSecond(), vItems[i], pCouple->GetLevel() );

  000c3	8b cf		 mov	 ecx, edi
  000c5	6a 00		 push	 0
  000c7	e8 00 00 00 00	 call	 ?GetLevel@CCouple@@QAEHH@Z ; CCouple::GetLevel
  000cc	8b 4d f4	 mov	 ecx, DWORD PTR _this$1$[ebp]
  000cf	50		 push	 eax
  000d0	53		 push	 ebx
  000d1	56		 push	 esi
  000d2	e8 00 00 00 00	 call	 ?PostItem@CCoupleHelper@@QAEXKABU_COUPLE_ITEM@@H@Z ; CCoupleHelper::PostItem
  000d7	8b 4d 08	 mov	 ecx, DWORD PTR tv366[ebp]
$LN2@PostItem:
; File C:\Program Files\Microsoft Visual Studio\2022\Professional\VC\Tools\MSVC\14.44.35207\include\vector

; 1915 :         return static_cast<size_type>(_My_data._Mylast - _My_data._Myfirst);

  000da	8b 45 ec	 mov	 eax, DWORD PTR _vItems$1$[ebp]
; File C:\IAGOS\server\v18\Source\Source\DatabaseServer\couplehelper.cpp

; 222  : 	for( DWORD i = 0; i < vItems.size(); i++ )

  000dd	83 c1 14	 add	 ecx, 20			; 00000014H
  000e0	8b 5d f0	 mov	 ebx, DWORD PTR _i$1$[ebp]
  000e3	89 4d 08	 mov	 DWORD PTR tv366[ebp], ecx
  000e6	43		 inc	 ebx
  000e7	89 5d f0	 mov	 DWORD PTR _i$1$[ebp], ebx
; File C:\Program Files\Microsoft Visual Studio\2022\Professional\VC\Tools\MSVC\14.44.35207\include\vector

; 1915 :         return static_cast<size_type>(_My_data._Mylast - _My_data._Myfirst);

  000ea	8b 48 04	 mov	 ecx, DWORD PTR [eax+4]
  000ed	8b 30		 mov	 esi, DWORD PTR [eax]
  000ef	2b ce		 sub	 ecx, esi
  000f1	b8 67 66 66 66	 mov	 eax, 1717986919		; 66666667H
  000f6	f7 e9		 imul	 ecx
; File C:\IAGOS\server\v18\Source\Source\DatabaseServer\couplehelper.cpp

; 222  : 	for( DWORD i = 0; i < vItems.size(); i++ )

  000f8	8b 4d 08	 mov	 ecx, DWORD PTR tv366[ebp]
; File C:\Program Files\Microsoft Visual Studio\2022\Professional\VC\Tools\MSVC\14.44.35207\include\vector

; 1915 :         return static_cast<size_type>(_My_data._Mylast - _My_data._Myfirst);

  000fb	c1 fa 03	 sar	 edx, 3
  000fe	8b c2		 mov	 eax, edx
  00100	c1 e8 1f	 shr	 eax, 31			; 0000001fH
  00103	03 c2		 add	 eax, edx
; File C:\IAGOS\server\v18\Source\Source\DatabaseServer\couplehelper.cpp

; 222  : 	for( DWORD i = 0; i < vItems.size(); i++ )

  00105	3b d8		 cmp	 ebx, eax
  00107	0f 82 73 ff ff
	ff		 jb	 $LL4@PostItem
$LN3@PostItem:
  0010d	5f		 pop	 edi

; 228  : 	}
; 229  : }

  0010e	5e		 pop	 esi
  0010f	5b		 pop	 ebx
  00110	8b e5		 mov	 esp, ebp
  00112	5d		 pop	 ebp
  00113	c2 04 00	 ret	 4
?PostItem@CCoupleHelper@@QAEXPAVCCouple@@@Z ENDP	; CCoupleHelper::PostItem
_TEXT	ENDS
; Function compile flags: /Ogtp
; File C:\IAGOS\server\v18\Source\Source\DatabaseServer\couplehelper.cpp
;	COMDAT ?OnAddExperience@CCoupleHelper@@QAEXAAVCAr@@@Z
_TEXT	SEGMENT
_idPlayer$ = -8						; size = 4
_nExperience$ = -4					; size = 4
_ar$ = 8						; size = 4
_pCouple$1$ = 8						; size = 4
?OnAddExperience@CCoupleHelper@@QAEXAAVCAr@@@Z PROC	; CCoupleHelper::OnAddExperience, COMDAT
; _this$ = ecx

; 195  : {

  00000	55		 push	 ebp
  00001	8b ec		 mov	 ebp, esp
  00003	83 ec 08	 sub	 esp, 8
  00006	53		 push	 ebx
  00007	56		 push	 esi
  00008	57		 push	 edi

; 196  : 	u_long idPlayer;
; 197  : 	int nExperience;
; 198  : 	ar >> idPlayer >> nExperience;

  00009	8d 45 fc	 lea	 eax, DWORD PTR _nExperience$[ebp]
  0000c	8b d9		 mov	 ebx, ecx
  0000e	8b 4d 08	 mov	 ecx, DWORD PTR _ar$[ebp]
  00011	50		 push	 eax
  00012	8d 45 f8	 lea	 eax, DWORD PTR _idPlayer$[ebp]
  00015	50		 push	 eax
  00016	e8 00 00 00 00	 call	 ??$?5K@CAr@@QAEAAV0@AAK@Z ; CAr::operator>><unsigned long>
  0001b	8b c8		 mov	 ecx, eax
  0001d	e8 00 00 00 00	 call	 ??$?5H@CAr@@QAEAAV0@AAH@Z ; CAr::operator>><int>

; 199  : 	election::OutputDebugString( "\nT: CCoupleHelper.OnAddExperience: %d, %d\n", idPlayer, nExperience );

  00022	8b 75 fc	 mov	 esi, DWORD PTR _nExperience$[ebp]
  00025	8b 7d f8	 mov	 edi, DWORD PTR _idPlayer$[ebp]
  00028	56		 push	 esi
  00029	57		 push	 edi
  0002a	68 00 00 00 00	 push	 OFFSET ??_C@_0CL@FHEKPCEP@?6T?3?5CCoupleHelper?4OnAddExperien@
  0002f	e8 00 00 00 00	 call	 ?OutputDebugStringA@election@@YAXPBDZZ ; election::OutputDebugStringA

; 200  : 	CCouple* pCouple	= m_pMgr->GetCouple( idPlayer );

  00034	8b 4b 04	 mov	 ecx, DWORD PTR [ebx+4]
  00037	83 c4 0c	 add	 esp, 12			; 0000000cH
  0003a	57		 push	 edi
  0003b	e8 00 00 00 00	 call	 ?GetCouple@CCoupleMgr@@QAEPAVCCouple@@K@Z ; CCoupleMgr::GetCouple
  00040	89 45 08	 mov	 DWORD PTR _pCouple$1$[ebp], eax

; 201  : 	if( pCouple )

  00043	85 c0		 test	 eax, eax
  00045	74 33		 je	 SHORT $LN3@OnAddExper

; 202  : 	{
; 203  : 		if( m_pController->AddExperience( idPlayer, nExperience ) )

  00047	8b 4b 08	 mov	 ecx, DWORD PTR [ebx+8]
  0004a	56		 push	 esi
  0004b	57		 push	 edi
  0004c	e8 00 00 00 00	 call	 ?AddExperience@CCoupleController@@QAEHKH@Z ; CCoupleController::AddExperience
  00051	85 c0		 test	 eax, eax
  00053	74 25		 je	 SHORT $LN3@OnAddExper

; 204  : 		{
; 205  : 			BOOL bLevelup	= pCouple->AddExperience( nExperience );

  00055	8b 4d 08	 mov	 ecx, DWORD PTR _pCouple$1$[ebp]
  00058	56		 push	 esi
  00059	e8 00 00 00 00	 call	 ?AddExperience@CCouple@@QAEHH@Z ; CCouple::AddExperience

; 206  : 			if( bLevelup )

  0005e	85 c0		 test	 eax, eax
  00060	74 0a		 je	 SHORT $LN4@OnAddExper

; 207  : 				PostItem( pCouple );

  00062	ff 75 08	 push	 DWORD PTR _pCouple$1$[ebp]
  00065	8b cb		 mov	 ecx, ebx
  00067	e8 00 00 00 00	 call	 ?PostItem@CCoupleHelper@@QAEXPAVCCouple@@@Z ; CCoupleHelper::PostItem
$LN4@OnAddExper:

; 208  : 			CDPTrans::GetInstance()->SendAddCoupleExperience( idPlayer, nExperience );

  0006c	56		 push	 esi
  0006d	57		 push	 edi
  0006e	e8 00 00 00 00	 call	 ?GetInstance@CDPTrans@@SAPAV1@XZ ; CDPTrans::GetInstance
  00073	8b c8		 mov	 ecx, eax
  00075	e8 00 00 00 00	 call	 ?SendAddCoupleExperience@CDPTrans@@QAEXKH@Z ; CDPTrans::SendAddCoupleExperience
$LN3@OnAddExper:

; 209  : 		}
; 210  : 	}
; 211  : }

  0007a	5f		 pop	 edi
  0007b	5e		 pop	 esi
  0007c	5b		 pop	 ebx
  0007d	8b e5		 mov	 esp, ebp
  0007f	5d		 pop	 ebp
  00080	c2 04 00	 ret	 4
?OnAddExperience@CCoupleHelper@@QAEXAAVCAr@@@Z ENDP	; CCoupleHelper::OnAddExperience
_TEXT	ENDS
; Function compile flags: /Ogtp
; File C:\IAGOS\server\v18\Source\Source\DatabaseServer\couplehelper.cpp
; File C:\Program Files\Microsoft Visual Studio\2022\Professional\VC\Tools\MSVC\14.44.35207\include\xtree
; File C:\Program Files\Microsoft Visual Studio\2022\Professional\VC\Tools\MSVC\14.44.35207\include\utility
; File C:\Program Files\Microsoft Visual Studio\2022\Professional\VC\Tools\MSVC\14.44.35207\include\xmemory
; File C:\Program Files\Microsoft Visual Studio\2022\Professional\VC\Tools\MSVC\14.44.35207\include\xtree
; File C:\IAGOS\server\v18\Source\Source\DatabaseServer\couplehelper.cpp
;	COMDAT ?OnClearPropose@CCoupleHelper@@QAEXXZ
_TEXT	SEGMENT
?OnClearPropose@CCoupleHelper@@QAEXXZ PROC		; CCoupleHelper::OnClearPropose, COMDAT
; _this$ = ecx

; 282  : {

  00000	53		 push	 ebx
  00001	8b d9		 mov	 ebx, ecx

; 283  : 	if( m_pController->DeletePropose( INT_MAX ) )

  00003	68 ff ff ff 7f	 push	 2147483647		; 7fffffffH
  00008	8b 4b 08	 mov	 ecx, DWORD PTR [ebx+8]
  0000b	e8 00 00 00 00	 call	 ?DeletePropose@CCoupleController@@QAEHJ@Z ; CCoupleController::DeletePropose
  00010	85 c0		 test	 eax, eax
  00012	74 41		 je	 SHORT $LN5@OnClearPro

; 284  : 		m_mapProposes.clear();

  00014	83 c3 0c	 add	 ebx, 12			; 0000000cH
  00017	56		 push	 esi
  00018	57		 push	 edi
; File C:\Program Files\Microsoft Visual Studio\2022\Professional\VC\Tools\MSVC\14.44.35207\include\xtree

; 1373 :         auto _Head = _Scary->_Myhead;

  00019	8b 3b		 mov	 edi, DWORD PTR [ebx]

; 1374 :         _Scary->_Erase_tree(_Getal(), _Head->_Parent);

  0001b	8b 77 04	 mov	 esi, DWORD PTR [edi+4]

; 768  :         while (!_Rootnode->_Isnil) { // free subtrees, then node

  0001e	80 7e 0d 00	 cmp	 BYTE PTR [esi+13], 0
  00022	75 20		 jne	 SHORT $LN42@OnClearPro
$LL8@OnClearPro:

; 769  :             _Erase_tree(_Al, _Rootnode->_Right);

  00024	ff 76 08	 push	 DWORD PTR [esi+8]
  00027	8b cb		 mov	 ecx, ebx
  00029	53		 push	 ebx
  0002a	e8 00 00 00 00	 call	 ??$_Erase_tree@V?$allocator@U?$_Tree_node@U?$pair@$$CBKJ@std@@PAX@std@@@std@@@?$_Tree_val@U?$_Tree_simple_types@U?$pair@$$CBKJ@std@@@std@@@std@@QAEXAAV?$allocator@U?$_Tree_node@U?$pair@$$CBKJ@std@@PAX@std@@@1@PAU?$_Tree_node@U?$pair@$$CBKJ@std@@PAX@1@@Z ; std::_Tree_val<std::_Tree_simple_types<std::pair<unsigned long const ,long> > >::_Erase_tree<std::allocator<std::_Tree_node<std::pair<unsigned long const ,long>,void *> > >
; File C:\Program Files\Microsoft Visual Studio\2022\Professional\VC\Tools\MSVC\14.44.35207\include\utility

; 773  :     _Ty _Old_val = static_cast<_Ty&&>(_Val);

  0002f	8b c6		 mov	 eax, esi

; 774  :     _Val         = static_cast<_Other&&>(_New_val);

  00031	8b 36		 mov	 esi, DWORD PTR [esi]
; File C:\Program Files\Microsoft Visual Studio\2022\Professional\VC\Tools\MSVC\14.44.35207\include\xmemory

; 289  :         ::operator delete(_Ptr, _Bytes);

  00033	6a 18		 push	 24			; 00000018H
  00035	50		 push	 eax
  00036	e8 00 00 00 00	 call	 ??3@YAXPAXI@Z		; operator delete
  0003b	83 c4 08	 add	 esp, 8
; File C:\Program Files\Microsoft Visual Studio\2022\Professional\VC\Tools\MSVC\14.44.35207\include\xtree

; 768  :         while (!_Rootnode->_Isnil) { // free subtrees, then node

  0003e	80 7e 0d 00	 cmp	 BYTE PTR [esi+13], 0
  00042	74 e0		 je	 SHORT $LL8@OnClearPro
$LN42@OnClearPro:

; 1375 :         _Head->_Parent  = _Head;

  00044	89 7f 04	 mov	 DWORD PTR [edi+4], edi

; 1376 :         _Head->_Left    = _Head;

  00047	89 3f		 mov	 DWORD PTR [edi], edi

; 1377 :         _Head->_Right   = _Head;

  00049	89 7f 08	 mov	 DWORD PTR [edi+8], edi

; 1378 :         _Scary->_Mysize = 0;

  0004c	5f		 pop	 edi
  0004d	c7 43 04 00 00
	00 00		 mov	 DWORD PTR [ebx+4], 0
  00054	5e		 pop	 esi
$LN5@OnClearPro:
  00055	5b		 pop	 ebx
; File C:\IAGOS\server\v18\Source\Source\DatabaseServer\couplehelper.cpp

; 285  : }

  00056	c3		 ret	 0
?OnClearPropose@CCoupleHelper@@QAEXXZ ENDP		; CCoupleHelper::OnClearPropose
_TEXT	ENDS
; Function compile flags: /Ogtp
; File C:\IAGOS\server\v18\Source\Source\DatabaseServer\couplehelper.cpp
;	COMDAT ?OnDecouple@CCoupleHelper@@QAEXAAVCAr@@@Z
_TEXT	SEGMENT
_idPlayer$ = -4						; size = 4
_ar$ = 8						; size = 4
?OnDecouple@CCoupleHelper@@QAEXAAVCAr@@@Z PROC		; CCoupleHelper::OnDecouple, COMDAT
; _this$ = ecx

; 328  : {

  00000	55		 push	 ebp
  00001	8b ec		 mov	 ebp, esp
  00003	51		 push	 ecx
  00004	53		 push	 ebx
  00005	56		 push	 esi
  00006	57		 push	 edi

; 329  : 	int nResult		= 0;
; 330  : 	u_long idPlayer;
; 331  : 	ar >> idPlayer;

  00007	8d 45 fc	 lea	 eax, DWORD PTR _idPlayer$[ebp]
  0000a	8b d9		 mov	 ebx, ecx
  0000c	8b 4d 08	 mov	 ecx, DWORD PTR _ar$[ebp]
  0000f	33 f6		 xor	 esi, esi
  00011	50		 push	 eax
  00012	e8 00 00 00 00	 call	 ??$?5K@CAr@@QAEAAV0@AAK@Z ; CAr::operator>><unsigned long>

; 332  : 
; 333  : 	election::OutputDebugString( "\nT: CCoupleHelper.OnDecouple: %d\n", idPlayer );

  00017	8b 7d fc	 mov	 edi, DWORD PTR _idPlayer$[ebp]
  0001a	57		 push	 edi
  0001b	68 00 00 00 00	 push	 OFFSET ??_C@_0CC@POOPMPNO@?6T?3?5CCoupleHelper?4OnDecouple?3?5?$CF@
  00020	e8 00 00 00 00	 call	 ?OutputDebugStringA@election@@YAXPBDZZ ; election::OutputDebugStringA

; 334  : 
; 335  : 	CCouple* pCouple	= m_pMgr->GetCouple( idPlayer );

  00025	8b 4b 04	 mov	 ecx, DWORD PTR [ebx+4]
  00028	83 c4 08	 add	 esp, 8
  0002b	57		 push	 edi
  0002c	e8 00 00 00 00	 call	 ?GetCouple@CCoupleMgr@@QAEPAVCCouple@@K@Z ; CCoupleMgr::GetCouple

; 336  : 	if( !pCouple )

  00031	85 c0		 test	 eax, eax
  00033	75 07		 jne	 SHORT $LN7@OnDecouple

; 337  : 		nResult		= TID_GAME_COUPLE_E05;

  00035	be ce 0f 00 00	 mov	 esi, 4046		; 00000fceH
  0003a	eb 27		 jmp	 SHORT $LN4@OnDecouple
$LN7@OnDecouple:

; 338  : 	if( nResult == 0 && !m_pController->Decouple( idPlayer ) )

  0003c	8b 4b 08	 mov	 ecx, DWORD PTR [ebx+8]
  0003f	57		 push	 edi
  00040	e8 00 00 00 00	 call	 ?Decouple@CCoupleController@@QAEHK@Z ; CCoupleController::Decouple
  00045	85 c0		 test	 eax, eax
  00047	75 07		 jne	 SHORT $LN6@OnDecouple

; 339  : 		nResult		= TID_GAME_COUPLE_E10;	// µĄŔĚĹÍşŁŔĚ˝ş żŔ·ůŔÔ´Ď´Ů.

  00049	be d5 0f 00 00	 mov	 esi, 4053		; 00000fd5H
  0004e	eb 13		 jmp	 SHORT $LN4@OnDecouple
$LN6@OnDecouple:

; 340  : 	if( nResult == 0 && !m_pMgr->Decouple( idPlayer ) )

  00050	8b 4b 04	 mov	 ecx, DWORD PTR [ebx+4]
  00053	57		 push	 edi
  00054	e8 00 00 00 00	 call	 ?Decouple@CCoupleMgr@@QAEHK@Z ; CCoupleMgr::Decouple
  00059	85 c0		 test	 eax, eax
  0005b	b9 d6 0f 00 00	 mov	 ecx, 4054		; 00000fd6H
  00060	0f 44 f1	 cmove	 esi, ecx
$LN4@OnDecouple:

; 341  : 		nResult		= TID_GAME_COUPLE_E11;
; 342  : 	CDPTrans::GetInstance()->SendDecoupleResult( idPlayer, nResult );

  00063	56		 push	 esi
  00064	57		 push	 edi
  00065	e8 00 00 00 00	 call	 ?GetInstance@CDPTrans@@SAPAV1@XZ ; CDPTrans::GetInstance
  0006a	8b c8		 mov	 ecx, eax
  0006c	e8 00 00 00 00	 call	 ?SendDecoupleResult@CDPTrans@@QAEXKH@Z ; CDPTrans::SendDecoupleResult
  00071	5f		 pop	 edi
  00072	5e		 pop	 esi
  00073	5b		 pop	 ebx

; 343  : }

  00074	8b e5		 mov	 esp, ebp
  00076	5d		 pop	 ebp
  00077	c2 04 00	 ret	 4
?OnDecouple@CCoupleHelper@@QAEXAAVCAr@@@Z ENDP		; CCoupleHelper::OnDecouple
_TEXT	ENDS
; Function compile flags: /Ogtp
; File C:\IAGOS\server\v18\Source\Source\DatabaseServer\couplehelper.cpp
;	COMDAT ?OnCouple@CCoupleHelper@@QAEXAAVCAr@@@Z
_TEXT	SEGMENT
_idProposer$ = -12					; size = 4
_idTarget$ = -8						; size = 4
_this$1$ = -4						; size = 4
_ar$ = 8						; size = 4
?OnCouple@CCoupleHelper@@QAEXAAVCAr@@@Z PROC		; CCoupleHelper::OnCouple, COMDAT
; _this$ = ecx

; 311  : {

  00000	55		 push	 ebp
  00001	8b ec		 mov	 ebp, esp
  00003	83 ec 0c	 sub	 esp, 12			; 0000000cH
  00006	53		 push	 ebx
  00007	56		 push	 esi
  00008	57		 push	 edi

; 312  : 	int nResult	= 0;
; 313  : 	u_long idProposer, idTarget;
; 314  : 	ar >> idProposer >> idTarget;

  00009	8d 45 f8	 lea	 eax, DWORD PTR _idTarget$[ebp]
  0000c	89 4d fc	 mov	 DWORD PTR _this$1$[ebp], ecx
  0000f	8b 4d 08	 mov	 ecx, DWORD PTR _ar$[ebp]
  00012	33 f6		 xor	 esi, esi
  00014	50		 push	 eax
  00015	8d 45 f4	 lea	 eax, DWORD PTR _idProposer$[ebp]
  00018	50		 push	 eax
  00019	e8 00 00 00 00	 call	 ??$?5K@CAr@@QAEAAV0@AAK@Z ; CAr::operator>><unsigned long>
  0001e	8b c8		 mov	 ecx, eax
  00020	e8 00 00 00 00	 call	 ??$?5K@CAr@@QAEAAV0@AAK@Z ; CAr::operator>><unsigned long>

; 315  : 	election::OutputDebugString( "\nT: CCoupleHelper.OnCouple: %d, %d\n", idProposer, idTarget );

  00025	8b 7d f8	 mov	 edi, DWORD PTR _idTarget$[ebp]
  00028	8b 5d f4	 mov	 ebx, DWORD PTR _idProposer$[ebp]
  0002b	57		 push	 edi
  0002c	53		 push	 ebx
  0002d	68 00 00 00 00	 push	 OFFSET ??_C@_0CE@DPENKOBI@?6T?3?5CCoupleHelper?4OnCouple?3?5?$CFd?0@
  00032	e8 00 00 00 00	 call	 ?OutputDebugStringA@election@@YAXPBDZZ ; election::OutputDebugStringA

; 316  : 	if( m_pMgr->GetCouple( idProposer ) )

  00037	8b 4d fc	 mov	 ecx, DWORD PTR _this$1$[ebp]
  0003a	83 c4 0c	 add	 esp, 12			; 0000000cH
  0003d	8b 49 04	 mov	 ecx, DWORD PTR [ecx+4]
  00040	53		 push	 ebx
  00041	e8 00 00 00 00	 call	 ?GetCouple@CCoupleMgr@@QAEPAVCCouple@@K@Z ; CCoupleMgr::GetCouple
  00046	85 c0		 test	 eax, eax
  00048	74 07		 je	 SHORT $LN9@OnCouple

; 317  : 		nResult		= TID_GAME_COUPLE_E06;	// ÄżÇĂŔĚ ľĆ´Ń Äł¸ŻĹÍ¸¸ °ˇ´ÉÇŐ´Ď´Ů.

  0004a	be d4 0f 00 00	 mov	 esi, 4052		; 00000fd4H
  0004f	eb 3c		 jmp	 SHORT $LN5@OnCouple
$LN9@OnCouple:

; 318  : 	if( nResult == 0 && m_pMgr->GetCouple( idTarget ) )

  00051	8b 45 fc	 mov	 eax, DWORD PTR _this$1$[ebp]
  00054	57		 push	 edi
  00055	8b 48 04	 mov	 ecx, DWORD PTR [eax+4]
  00058	e8 00 00 00 00	 call	 ?GetCouple@CCoupleMgr@@QAEPAVCCouple@@K@Z ; CCoupleMgr::GetCouple
  0005d	85 c0		 test	 eax, eax
  0005f	74 07		 je	 SHORT $LN8@OnCouple

; 319  : 		nResult		= TID_GAME_COUPLE_E01;	// ´ë»óŔĚ şÎŔűÇŐ ÇŐ´Ď´Ů. ÄżÇĂŔĚ ľĆ´Ń ŔĚĽş Äł¸ŻĹÍżˇ°Ô¸¸ °ˇ´ÉÇŐ´Ď´Ů.

  00061	be ca 0f 00 00	 mov	 esi, 4042		; 00000fcaH
  00066	eb 25		 jmp	 SHORT $LN5@OnCouple
$LN8@OnCouple:

; 320  : 	if( nResult == 0 && !m_pController->Couple( idProposer, idTarget ) )

  00068	8b 45 fc	 mov	 eax, DWORD PTR _this$1$[ebp]
  0006b	57		 push	 edi
  0006c	53		 push	 ebx
  0006d	8b 48 08	 mov	 ecx, DWORD PTR [eax+8]
  00070	e8 00 00 00 00	 call	 ?Couple@CCoupleController@@QAEHKK@Z ; CCoupleController::Couple
  00075	85 c0		 test	 eax, eax
  00077	75 07		 jne	 SHORT $LN7@OnCouple

; 321  : 		nResult		= TID_GAME_COUPLE_E10;	// µĄŔĚĹÍşŁŔĚ˝ş żŔ·ůŔÔ´Ď´Ů.

  00079	be d5 0f 00 00	 mov	 esi, 4053		; 00000fd5H
  0007e	eb 0d		 jmp	 SHORT $LN5@OnCouple
$LN7@OnCouple:

; 322  : 	if( nResult == 0 )
; 323  : 		m_pMgr->Couple( idProposer, idTarget );

  00080	8b 45 fc	 mov	 eax, DWORD PTR _this$1$[ebp]
  00083	57		 push	 edi
  00084	53		 push	 ebx
  00085	8b 48 04	 mov	 ecx, DWORD PTR [eax+4]
  00088	e8 00 00 00 00	 call	 ?Couple@CCoupleMgr@@QAEXKK@Z ; CCoupleMgr::Couple
$LN5@OnCouple:

; 324  : 	CDPTrans::GetInstance()->SendCoupleResult( idProposer, idTarget, nResult );

  0008d	56		 push	 esi
  0008e	57		 push	 edi
  0008f	53		 push	 ebx
  00090	e8 00 00 00 00	 call	 ?GetInstance@CDPTrans@@SAPAV1@XZ ; CDPTrans::GetInstance
  00095	8b c8		 mov	 ecx, eax
  00097	e8 00 00 00 00	 call	 ?SendCoupleResult@CDPTrans@@QAEXKKH@Z ; CDPTrans::SendCoupleResult
  0009c	5f		 pop	 edi
  0009d	5e		 pop	 esi
  0009e	5b		 pop	 ebx

; 325  : }

  0009f	8b e5		 mov	 esp, ebp
  000a1	5d		 pop	 ebp
  000a2	c2 04 00	 ret	 4
?OnCouple@CCoupleHelper@@QAEXAAVCAr@@@Z ENDP		; CCoupleHelper::OnCouple
_TEXT	ENDS
; Function compile flags: /Ogtp
; File C:\IAGOS\server\v18\Source\Source\DatabaseServer\couplehelper.cpp
; File C:\Program Files (x86)\Windows Kits\10\Include\10.0.26100.0\ucrt\time.h
; File C:\IAGOS\server\v18\Source\Source\DatabaseServer\couplehelper.cpp
; File C:\Program Files (x86)\Windows Kits\10\Include\10.0.26100.0\ucrt\time.h
; File C:\IAGOS\server\v18\Source\Source\DatabaseServer\couplehelper.cpp
; File C:\Program Files (x86)\Windows Kits\10\Include\10.0.26100.0\ucrt\time.h
; File C:\IAGOS\server\v18\Source\Source\DatabaseServer\couplehelper.cpp
; File C:\Program Files (x86)\Windows Kits\10\Include\10.0.26100.0\ucrt\time.h
; File C:\IAGOS\server\v18\Source\Source\DatabaseServer\couplehelper.cpp
; File C:\Program Files (x86)\Windows Kits\10\Include\10.0.26100.0\ucrt\time.h
; File C:\IAGOS\server\v18\Source\Source\DatabaseServer\couplehelper.cpp
;	COMDAT ?OnPropose@CCoupleHelper@@QAEXAAVCAr@@K@Z
_TEXT	SEGMENT
_idProposer$ = -12					; size = 4
_idTarget$ = -8						; size = 4
_this$1$ = -4						; size = 4
_ar$ = 8						; size = 4
_dpid$ = 12						; size = 4
?OnPropose@CCoupleHelper@@QAEXAAVCAr@@K@Z PROC		; CCoupleHelper::OnPropose, COMDAT
; _this$ = ecx

; 288  : {

  00000	55		 push	 ebp
  00001	8b ec		 mov	 ebp, esp
  00003	83 ec 0c	 sub	 esp, 12			; 0000000cH
  00006	53		 push	 ebx
  00007	56		 push	 esi
  00008	57		 push	 edi

; 289  : 	int nResult		= 0;
; 290  : 	u_long idProposer, idTarget;
; 291  : 	ar >> idProposer >> idTarget;

  00009	8d 45 f8	 lea	 eax, DWORD PTR _idTarget$[ebp]
  0000c	8b f1		 mov	 esi, ecx
  0000e	8b 4d 08	 mov	 ecx, DWORD PTR _ar$[ebp]
  00011	33 ff		 xor	 edi, edi
  00013	50		 push	 eax
  00014	8d 45 f4	 lea	 eax, DWORD PTR _idProposer$[ebp]
  00017	89 75 fc	 mov	 DWORD PTR _this$1$[ebp], esi
  0001a	50		 push	 eax
  0001b	e8 00 00 00 00	 call	 ??$?5K@CAr@@QAEAAV0@AAK@Z ; CAr::operator>><unsigned long>
  00020	8b c8		 mov	 ecx, eax
  00022	e8 00 00 00 00	 call	 ??$?5K@CAr@@QAEAAV0@AAK@Z ; CAr::operator>><unsigned long>

; 292  : 	election::OutputDebugString( "\nT: CCoupleHelper.OnPropose: %d, %d\n", idProposer, idTarget );

  00027	ff 75 f8	 push	 DWORD PTR _idTarget$[ebp]
  0002a	8b 5d f4	 mov	 ebx, DWORD PTR _idProposer$[ebp]
  0002d	53		 push	 ebx
  0002e	68 00 00 00 00	 push	 OFFSET ??_C@_0CF@OCNFFHFP@?6T?3?5CCoupleHelper?4OnPropose?3?5?$CFd@
  00033	e8 00 00 00 00	 call	 ?OutputDebugStringA@election@@YAXPBDZZ ; election::OutputDebugStringA
  00038	83 c4 0c	 add	 esp, 12			; 0000000cH

; 293  : 	time_t t	= GetPropose( idProposer );

  0003b	8b ce		 mov	 ecx, esi
  0003d	53		 push	 ebx
  0003e	e8 00 00 00 00	 call	 ?GetPropose@CCoupleHelper@@QAEJK@Z ; CCoupleHelper::GetPropose
  00043	8b f0		 mov	 esi, eax

; 294  : 	if( t > 0 )

  00045	85 f6		 test	 esi, esi
  00047	7e 18		 jle	 SHORT $LN12@OnPropose
; File C:\Program Files (x86)\Windows Kits\10\Include\10.0.26100.0\ucrt\time.h

; 428  :             return _time32(_Time);

  00049	6a 00		 push	 0
; File C:\IAGOS\server\v18\Source\Source\DatabaseServer\couplehelper.cpp

; 296  : 		nResult		= -1;

  0004b	83 cf ff	 or	 edi, -1
; File C:\Program Files (x86)\Windows Kits\10\Include\10.0.26100.0\ucrt\time.h

; 428  :             return _time32(_Time);

  0004e	e8 00 00 00 00	 call	 __time32
; File C:\IAGOS\server\v18\Source\Source\DatabaseServer\couplehelper.cpp

; 297  : 		t	-= time( NULL );

  00053	2b f0		 sub	 esi, eax
; File C:\Program Files (x86)\Windows Kits\10\Include\10.0.26100.0\ucrt\time.h

; 428  :             return _time32(_Time);

  00055	83 c4 04	 add	 esp, 4
; File C:\IAGOS\server\v18\Source\Source\DatabaseServer\couplehelper.cpp

; 298  : 		if( t <= 0 )

  00058	85 f6		 test	 esi, esi
  0005a	7f 58		 jg	 SHORT $LN6@OnPropose

; 299  : 			t	= 1;

  0005c	8d 77 02	 lea	 esi, DWORD PTR [edi+2]

; 300  : 	}
; 301  : 	if( nResult == 0 && m_pMgr->GetCouple( idProposer ) )

  0005f	eb 53		 jmp	 SHORT $LN6@OnPropose
$LN12@OnPropose:
  00061	8b 4d fc	 mov	 ecx, DWORD PTR _this$1$[ebp]
  00064	53		 push	 ebx
  00065	8b 49 04	 mov	 ecx, DWORD PTR [ecx+4]
  00068	e8 00 00 00 00	 call	 ?GetCouple@CCoupleMgr@@QAEPAVCCouple@@K@Z ; CCoupleMgr::GetCouple
  0006d	85 c0		 test	 eax, eax
  0006f	74 07		 je	 SHORT $LN13@OnPropose

; 302  : 		nResult		= TID_GAME_COUPLE_E06;	// ÄżÇĂŔĚ ľĆ´Ń Äł¸ŻĹÍ¸¸ °ˇ´ÉÇŐ´Ď´Ů.

  00071	bf d4 0f 00 00	 mov	 edi, 4052		; 00000fd4H

; 303  : 	if( nResult == 0 && m_pMgr->GetCouple( idTarget ) )

  00076	eb 3c		 jmp	 SHORT $LN6@OnPropose
$LN13@OnPropose:
  00078	8b 45 fc	 mov	 eax, DWORD PTR _this$1$[ebp]
  0007b	ff 75 f8	 push	 DWORD PTR _idTarget$[ebp]
  0007e	8b 48 04	 mov	 ecx, DWORD PTR [eax+4]
  00081	e8 00 00 00 00	 call	 ?GetCouple@CCoupleMgr@@QAEPAVCCouple@@K@Z ; CCoupleMgr::GetCouple
  00086	85 c0		 test	 eax, eax
  00088	74 07		 je	 SHORT $LN14@OnPropose

; 304  : 		nResult		= TID_GAME_COUPLE_E01;	// ´ë»óŔĚ şÎŔűÇŐ ÇŐ´Ď´Ů. ÄżÇĂŔĚ ľĆ´Ń ŔĚĽş Äł¸ŻĹÍżˇ°Ô¸¸ °ˇ´ÉÇŐ´Ď´Ů.

  0008a	bf ca 0f 00 00	 mov	 edi, 4042		; 00000fcaH

; 305  : 	if( nResult == 0 && !SetPropose( idProposer, time( NULL ) + 86400 ) )

  0008f	eb 23		 jmp	 SHORT $LN6@OnPropose
$LN14@OnPropose:
; File C:\Program Files (x86)\Windows Kits\10\Include\10.0.26100.0\ucrt\time.h

; 428  :             return _time32(_Time);

  00091	6a 00		 push	 0
  00093	e8 00 00 00 00	 call	 __time32
; File C:\IAGOS\server\v18\Source\Source\DatabaseServer\couplehelper.cpp

; 305  : 	if( nResult == 0 && !SetPropose( idProposer, time( NULL ) + 86400 ) )

  00098	8b 4d fc	 mov	 ecx, DWORD PTR _this$1$[ebp]
; File C:\Program Files (x86)\Windows Kits\10\Include\10.0.26100.0\ucrt\time.h

; 428  :             return _time32(_Time);

  0009b	83 c4 04	 add	 esp, 4
; File C:\IAGOS\server\v18\Source\Source\DatabaseServer\couplehelper.cpp

; 305  : 	if( nResult == 0 && !SetPropose( idProposer, time( NULL ) + 86400 ) )

  0009e	05 80 51 01 00	 add	 eax, 86400		; 00015180H
  000a3	50		 push	 eax
  000a4	53		 push	 ebx
  000a5	e8 00 00 00 00	 call	 ?SetPropose@CCoupleHelper@@QAEHKJ@Z ; CCoupleHelper::SetPropose
  000aa	85 c0		 test	 eax, eax
  000ac	b9 d5 0f 00 00	 mov	 ecx, 4053		; 00000fd5H
  000b1	0f 44 f9	 cmove	 edi, ecx
$LN6@OnPropose:

; 306  : 		nResult		= TID_GAME_COUPLE_E10;	// µĄŔĚĹÍşŁŔĚ˝ş żŔ·ůŔÔ´Ď´Ů.
; 307  : 	CDPTrans::GetInstance()->SendProposeResult( idProposer, idTarget, nResult, t, dpid );

  000b4	ff 75 0c	 push	 DWORD PTR _dpid$[ebp]
  000b7	56		 push	 esi
  000b8	57		 push	 edi
  000b9	ff 75 f8	 push	 DWORD PTR _idTarget$[ebp]
  000bc	53		 push	 ebx
  000bd	e8 00 00 00 00	 call	 ?GetInstance@CDPTrans@@SAPAV1@XZ ; CDPTrans::GetInstance
  000c2	8b c8		 mov	 ecx, eax
  000c4	e8 00 00 00 00	 call	 ?SendProposeResult@CDPTrans@@QAEXKKHJK@Z ; CDPTrans::SendProposeResult
  000c9	5f		 pop	 edi
  000ca	5e		 pop	 esi
  000cb	5b		 pop	 ebx

; 308  : }

  000cc	8b e5		 mov	 esp, ebp
  000ce	5d		 pop	 ebp
  000cf	c2 08 00	 ret	 8
?OnPropose@CCoupleHelper@@QAEXAAVCAr@@K@Z ENDP		; CCoupleHelper::OnPropose
_TEXT	ENDS
; Function compile flags: /Ogtp
; File C:\IAGOS\server\v18\Source\Source\DatabaseServer\couplehelper.cpp
;	COMDAT ?OnTransfer@CCoupleHelper@@QAEXK@Z
_TEXT	SEGMENT
_dpid$ = 8						; size = 4
?OnTransfer@CCoupleHelper@@QAEXK@Z PROC			; CCoupleHelper::OnTransfer, COMDAT
; _this$ = ecx

; 276  : {

  00000	55		 push	 ebp
  00001	8b ec		 mov	 ebp, esp

; 277  : 	ASSERT( m_pMgr );
; 278  : 	CDPTrans::GetInstance()->SendCouple( m_pMgr, dpid );

  00003	ff 75 08	 push	 DWORD PTR _dpid$[ebp]
  00006	ff 71 04	 push	 DWORD PTR [ecx+4]
  00009	e8 00 00 00 00	 call	 ?GetInstance@CDPTrans@@SAPAV1@XZ ; CDPTrans::GetInstance
  0000e	8b c8		 mov	 ecx, eax
  00010	e8 00 00 00 00	 call	 ?SendCouple@CDPTrans@@QAEXPAVCCoupleMgr@@K@Z ; CDPTrans::SendCouple

; 279  : }

  00015	5d		 pop	 ebp
  00016	c2 04 00	 ret	 4
?OnTransfer@CCoupleHelper@@QAEXK@Z ENDP			; CCoupleHelper::OnTransfer
_TEXT	ENDS
; Function compile flags: /Ogtp
; File C:\IAGOS\server\v18\Source\Source\DatabaseServer\couplehelper.cpp
; File C:\Program Files (x86)\Windows Kits\10\Include\10.0.26100.0\ucrt\time.h
; File C:\Program Files\Microsoft Visual Studio\2022\Professional\VC\Tools\MSVC\14.44.35207\include\xtree
; File C:\Program Files (x86)\Windows Kits\10\Include\10.0.26100.0\ucrt\time.h
; File C:\IAGOS\server\v18\Source\Source\DatabaseServer\couplehelper.cpp
; File C:\Program Files\Microsoft Visual Studio\2022\Professional\VC\Tools\MSVC\14.44.35207\include\xtree
; File C:\IAGOS\server\v18\Source\Source\DatabaseServer\couplehelper.cpp
; File C:\Program Files\Microsoft Visual Studio\2022\Professional\VC\Tools\MSVC\14.44.35207\include\xtree
; File C:\Program Files\Microsoft Visual Studio\2022\Professional\VC\Tools\MSVC\14.44.35207\include\xmemory
; File C:\Program Files\Microsoft Visual Studio\2022\Professional\VC\Tools\MSVC\14.44.35207\include\xtree
; File C:\IAGOS\server\v18\Source\Source\DatabaseServer\couplehelper.cpp
;	COMDAT ?OnTimer@CCoupleHelper@@QAEXXZ
_TEXT	SEGMENT
_this$1$ = -8						; size = 4
_i$1 = -4						; size = 4
?OnTimer@CCoupleHelper@@QAEXXZ PROC			; CCoupleHelper::OnTimer, COMDAT
; _this$ = ecx

; 262  : {

  00000	55		 push	 ebp
  00001	8b ec		 mov	 ebp, esp
  00003	83 ec 08	 sub	 esp, 8
  00006	53		 push	 ebx
  00007	56		 push	 esi
  00008	57		 push	 edi
  00009	8b f1		 mov	 esi, ecx

; 263  : 	election::OutputDebugString( "\nT: CCoupleHelper.OnTimer\n" );

  0000b	68 00 00 00 00	 push	 OFFSET ??_C@_0BL@NAJDJCKD@?6T?3?5CCoupleHelper?4OnTimer?6@
  00010	89 75 f8	 mov	 DWORD PTR _this$1$[ebp], esi
  00013	e8 00 00 00 00	 call	 ?OutputDebugStringA@election@@YAXPBDZZ ; election::OutputDebugStringA
; File C:\Program Files (x86)\Windows Kits\10\Include\10.0.26100.0\ucrt\time.h

; 428  :             return _time32(_Time);

  00018	6a 00		 push	 0
  0001a	e8 00 00 00 00	 call	 __time32
; File C:\Program Files\Microsoft Visual Studio\2022\Professional\VC\Tools\MSVC\14.44.35207\include\xtree

; 1142 :         return iterator(_Scary->_Myhead->_Left, _Scary);

  0001f	8b 4e 0c	 mov	 ecx, DWORD PTR [esi+12]
  00022	8d 7e 0c	 lea	 edi, DWORD PTR [esi+12]
; File C:\Program Files (x86)\Windows Kits\10\Include\10.0.26100.0\ucrt\time.h

; 428  :             return _time32(_Time);

  00025	83 c4 08	 add	 esp, 8
; File C:\IAGOS\server\v18\Source\Source\DatabaseServer\couplehelper.cpp

; 264  : 	time_t t	= time( NULL );

  00028	8b d8		 mov	 ebx, eax
; File C:\Program Files\Microsoft Visual Studio\2022\Professional\VC\Tools\MSVC\14.44.35207\include\xtree

; 37   :     _Tree_unchecked_const_iterator(_Nodeptr _Pnode, const _Mytree* _Plist) noexcept : _Ptr(_Pnode) {

  0002a	8b 31		 mov	 esi, DWORD PTR [ecx]
  0002c	89 75 fc	 mov	 DWORD PTR _i$1[ebp], esi

; 237  :         return !(*this == _Right);

  0002f	3b f1		 cmp	 esi, ecx
; File C:\IAGOS\server\v18\Source\Source\DatabaseServer\couplehelper.cpp

; 265  : 	for( MUT::iterator i = m_mapProposes.begin(); i != m_mapProposes.end(); )

  00031	74 27		 je	 SHORT $LN112@OnTimer
$LL4@OnTimer:

; 266  : 	{
; 267  : 		if( t > i->second )

  00033	8d 4d fc	 lea	 ecx, DWORD PTR _i$1[ebp]
  00036	e8 00 00 00 00	 call	 ??E?$_Tree_unchecked_const_iterator@V?$_Tree_val@U?$_Tree_simple_types@U?$pair@$$CBKJ@std@@@std@@@std@@U_Iterator_base0@2@@std@@QAEAAV01@XZ ; std::_Tree_unchecked_const_iterator<std::_Tree_val<std::_Tree_simple_types<std::pair<unsigned long const ,long> > >,std::_Iterator_base0>::operator++
  0003b	3b 5e 14	 cmp	 ebx, DWORD PTR [esi+20]
  0003e	7e 13		 jle	 SHORT $LN2@OnTimer
; File C:\Program Files\Microsoft Visual Studio\2022\Professional\VC\Tools\MSVC\14.44.35207\include\xtree

; 1303 :         _Nodeptr _Erasednode = _Scary->_Extract(_Where); // node to erase

  00040	56		 push	 esi
  00041	8b cf		 mov	 ecx, edi
  00043	e8 00 00 00 00	 call	 ?_Extract@?$_Tree_val@U?$_Tree_simple_types@U?$pair@$$CBKJ@std@@@std@@@std@@QAEPAU?$_Tree_node@U?$pair@$$CBKJ@std@@PAX@2@V?$_Tree_unchecked_const_iterator@V?$_Tree_val@U?$_Tree_simple_types@U?$pair@$$CBKJ@std@@@std@@@std@@U_Iterator_base0@2@@2@@Z ; std::_Tree_val<std::_Tree_simple_types<std::pair<unsigned long const ,long> > >::_Extract
; File C:\Program Files\Microsoft Visual Studio\2022\Professional\VC\Tools\MSVC\14.44.35207\include\xmemory

; 289  :         ::operator delete(_Ptr, _Bytes);

  00048	6a 18		 push	 24			; 00000018H
  0004a	50		 push	 eax
  0004b	e8 00 00 00 00	 call	 ??3@YAXPAXI@Z		; operator delete
  00050	83 c4 08	 add	 esp, 8
$LN2@OnTimer:
; File C:\Program Files\Microsoft Visual Studio\2022\Professional\VC\Tools\MSVC\14.44.35207\include\xtree

; 237  :         return !(*this == _Right);

  00053	8b 75 fc	 mov	 esi, DWORD PTR _i$1[ebp]
  00056	3b 37		 cmp	 esi, DWORD PTR [edi]
; File C:\IAGOS\server\v18\Source\Source\DatabaseServer\couplehelper.cpp

; 265  : 	for( MUT::iterator i = m_mapProposes.begin(); i != m_mapProposes.end(); )

  00058	75 d9		 jne	 SHORT $LL4@OnTimer
$LN112@OnTimer:

; 268  : 			m_mapProposes.erase( i++ );
; 269  : 		else
; 270  : 			++i;
; 271  : 	}
; 272  : 	m_pController->DeletePropose( t );

  0005a	8b 4d f8	 mov	 ecx, DWORD PTR _this$1$[ebp]
  0005d	53		 push	 ebx
  0005e	8b 49 08	 mov	 ecx, DWORD PTR [ecx+8]
  00061	e8 00 00 00 00	 call	 ?DeletePropose@CCoupleController@@QAEHJ@Z ; CCoupleController::DeletePropose
  00066	5f		 pop	 edi
  00067	5e		 pop	 esi
  00068	5b		 pop	 ebx

; 273  : }

  00069	8b e5		 mov	 esp, ebp
  0006b	5d		 pop	 ebp
  0006c	c3		 ret	 0
?OnTimer@CCoupleHelper@@QAEXXZ ENDP			; CCoupleHelper::OnTimer
_TEXT	ENDS
; Function compile flags: /Ogtp
; File C:\IAGOS\server\v18\Source\Source\DatabaseServer\couplehelper.cpp
;	COMDAT ?Handler@CCoupleHelper@@QAEXPAUtagDB_OVERLAPPED_PLUS@@K@Z
_TEXT	SEGMENT
_ar$ = -16420						; size = 16404
__$ArrayPad$ = -16					; size = 4
__$EHRec$ = -12						; size = 12
_pov$ = 8						; size = 4
_dwCompletionKey$ = 12					; size = 4
?Handler@CCoupleHelper@@QAEXPAUtagDB_OVERLAPPED_PLUS@@K@Z PROC ; CCoupleHelper::Handler, COMDAT
; _this$ = ecx

; 164  : {

  00000	55		 push	 ebp
  00001	8b ec		 mov	 ebp, esp
  00003	6a ff		 push	 -1
  00005	68 00 00 00 00	 push	 __ehhandler$?Handler@CCoupleHelper@@QAEXPAUtagDB_OVERLAPPED_PLUS@@K@Z
  0000a	64 a1 00 00 00
	00		 mov	 eax, DWORD PTR fs:0
  00010	50		 push	 eax
  00011	b8 18 40 00 00	 mov	 eax, 16408		; 00004018H
  00016	e8 00 00 00 00	 call	 __chkstk
  0001b	a1 00 00 00 00	 mov	 eax, DWORD PTR ___security_cookie
  00020	33 c5		 xor	 eax, ebp
  00022	89 45 f0	 mov	 DWORD PTR __$ArrayPad$[ebp], eax
  00025	56		 push	 esi
  00026	57		 push	 edi
  00027	50		 push	 eax
  00028	8d 45 f4	 lea	 eax, DWORD PTR __$EHRec$[ebp]
  0002b	64 a3 00 00 00
	00		 mov	 DWORD PTR fs:0, eax
  00031	8b f9		 mov	 edi, ecx
  00033	8b 75 08	 mov	 esi, DWORD PTR _pov$[ebp]

; 165  : 	CAr ar( pov->lpBuf, pov->uBufSize );

  00036	8d 8d dc bf ff
	ff		 lea	 ecx, DWORD PTR _ar$[ebp]
  0003c	ff 76 1c	 push	 DWORD PTR [esi+28]
  0003f	ff 76 18	 push	 DWORD PTR [esi+24]
  00042	e8 00 00 00 00	 call	 ??0CAr@@QAE@PAXI@Z	; CAr::CAr

; 166  : 	switch( pov->nQueryMode )

  00047	8b 46 14	 mov	 eax, DWORD PTR [esi+20]
  0004a	c7 45 fc 00 00
	00 00		 mov	 DWORD PTR __$EHRec$[ebp+8], 0
  00051	83 f8 05	 cmp	 eax, 5
  00054	77 5d		 ja	 SHORT $LN10@Handler
  00056	ff 24 85 00 00
	00 00		 jmp	 DWORD PTR $LN13@Handler[eax*4]
$LN4@Handler:

; 167  : 	{
; 168  : 		case eTransfer:
; 169  : 			OnTransfer( dwCompletionKey );

  0005d	ff 75 0c	 push	 DWORD PTR _dwCompletionKey$[ebp]
  00060	8b cf		 mov	 ecx, edi
  00062	e8 00 00 00 00	 call	 ?OnTransfer@CCoupleHelper@@QAEXK@Z ; CCoupleHelper::OnTransfer

; 170  : 			break;

  00067	eb 4a		 jmp	 SHORT $LN10@Handler
$LN5@Handler:

; 171  : 		case ePropose:
; 172  : 			OnPropose( ar, dwCompletionKey );

  00069	ff 75 0c	 push	 DWORD PTR _dwCompletionKey$[ebp]
  0006c	8d 85 dc bf ff
	ff		 lea	 eax, DWORD PTR _ar$[ebp]
  00072	8b cf		 mov	 ecx, edi
  00074	50		 push	 eax
  00075	e8 00 00 00 00	 call	 ?OnPropose@CCoupleHelper@@QAEXAAVCAr@@K@Z ; CCoupleHelper::OnPropose

; 173  : 			break;

  0007a	eb 37		 jmp	 SHORT $LN10@Handler
$LN6@Handler:

; 174  : 		case eCouple:
; 175  : 			OnCouple( ar );

  0007c	8d 85 dc bf ff
	ff		 lea	 eax, DWORD PTR _ar$[ebp]
  00082	8b cf		 mov	 ecx, edi
  00084	50		 push	 eax
  00085	e8 00 00 00 00	 call	 ?OnCouple@CCoupleHelper@@QAEXAAVCAr@@@Z ; CCoupleHelper::OnCouple

; 176  : 			break;

  0008a	eb 27		 jmp	 SHORT $LN10@Handler
$LN7@Handler:

; 177  : 		case eDecouple:
; 178  : 			OnDecouple( ar );

  0008c	8d 85 dc bf ff
	ff		 lea	 eax, DWORD PTR _ar$[ebp]
  00092	8b cf		 mov	 ecx, edi
  00094	50		 push	 eax
  00095	e8 00 00 00 00	 call	 ?OnDecouple@CCoupleHelper@@QAEXAAVCAr@@@Z ; CCoupleHelper::OnDecouple

; 179  : 			break;

  0009a	eb 17		 jmp	 SHORT $LN10@Handler
$LN8@Handler:

; 180  : 		case eClearPropose:
; 181  : 			OnClearPropose();

  0009c	8b cf		 mov	 ecx, edi
  0009e	e8 00 00 00 00	 call	 ?OnClearPropose@CCoupleHelper@@QAEXXZ ; CCoupleHelper::OnClearPropose

; 182  : 			break;

  000a3	eb 0e		 jmp	 SHORT $LN10@Handler
$LN9@Handler:

; 183  : #if __VER >= 13 // __COUPLE_1202
; 184  : 		case eAddExperience:
; 185  : 			OnAddExperience( ar );

  000a5	8d 85 dc bf ff
	ff		 lea	 eax, DWORD PTR _ar$[ebp]
  000ab	8b cf		 mov	 ecx, edi
  000ad	50		 push	 eax
  000ae	e8 00 00 00 00	 call	 ?OnAddExperience@CCoupleHelper@@QAEXAAVCAr@@@Z ; CCoupleHelper::OnAddExperience
$LN10@Handler:

; 186  : 			break;
; 187  : #endif	// __COUPLE_1202
; 188  : 		default:
; 189  : 			break;
; 190  : 	}
; 191  : }

  000b3	8d 8d dc bf ff
	ff		 lea	 ecx, DWORD PTR _ar$[ebp]
  000b9	e8 00 00 00 00	 call	 ??1CAr@@QAE@XZ		; CAr::~CAr
  000be	8b 4d f4	 mov	 ecx, DWORD PTR __$EHRec$[ebp]
  000c1	64 89 0d 00 00
	00 00		 mov	 DWORD PTR fs:0, ecx
  000c8	59		 pop	 ecx
  000c9	5f		 pop	 edi
  000ca	5e		 pop	 esi
  000cb	8b 4d f0	 mov	 ecx, DWORD PTR __$ArrayPad$[ebp]
  000ce	33 cd		 xor	 ecx, ebp
  000d0	e8 00 00 00 00	 call	 @__security_check_cookie@4
  000d5	8b e5		 mov	 esp, ebp
  000d7	5d		 pop	 ebp
  000d8	c2 08 00	 ret	 8
  000db	90		 npad	 1
$LN13@Handler:
  000dc	00 00 00 00	 DD	 $LN4@Handler
  000e0	00 00 00 00	 DD	 $LN5@Handler
  000e4	00 00 00 00	 DD	 $LN6@Handler
  000e8	00 00 00 00	 DD	 $LN7@Handler
  000ec	00 00 00 00	 DD	 $LN8@Handler
  000f0	00 00 00 00	 DD	 $LN9@Handler
_TEXT	ENDS
;	COMDAT text$x
text$x	SEGMENT
__unwindfunclet$?Handler@CCoupleHelper@@QAEXPAUtagDB_OVERLAPPED_PLUS@@K@Z$0:
  00000	8d 8d dc bf ff
	ff		 lea	 ecx, DWORD PTR _ar$[ebp]
  00006	e9 00 00 00 00	 jmp	 ??1CAr@@QAE@XZ		; CAr::~CAr
  0000b	cc		 int	 3
  0000c	cc		 int	 3
  0000d	cc		 int	 3
  0000e	cc		 int	 3
  0000f	cc		 int	 3
__ehhandler$?Handler@CCoupleHelper@@QAEXPAUtagDB_OVERLAPPED_PLUS@@K@Z:
  00010	90		 npad	 1
  00011	90		 npad	 1
  00012	8b 54 24 08	 mov	 edx, DWORD PTR [esp+8]
  00016	8d 42 0c	 lea	 eax, DWORD PTR [edx+12]
  00019	8b 8a dc bf ff
	ff		 mov	 ecx, DWORD PTR [edx-16420]
  0001f	33 c8		 xor	 ecx, eax
  00021	e8 00 00 00 00	 call	 @__security_check_cookie@4
  00026	8b 4a fc	 mov	 ecx, DWORD PTR [edx-4]
  00029	33 c8		 xor	 ecx, eax
  0002b	e8 00 00 00 00	 call	 @__security_check_cookie@4
  00030	b8 00 00 00 00	 mov	 eax, OFFSET __ehfuncinfo$?Handler@CCoupleHelper@@QAEXPAUtagDB_OVERLAPPED_PLUS@@K@Z
  00035	e9 00 00 00 00	 jmp	 ___CxxFrameHandler3
text$x	ENDS
?Handler@CCoupleHelper@@QAEXPAUtagDB_OVERLAPPED_PLUS@@K@Z ENDP ; CCoupleHelper::Handler
; Function compile flags: /Ogtp
; File C:\IAGOS\server\v18\Source\Source\DatabaseServer\couplehelper.cpp
;	COMDAT ?Initialize@CCoupleHelper@@QAEHXZ
_TEXT	SEGMENT
$T2 = -16						; size = 4
$T3 = -16						; size = 4
__$EHRec$ = -12						; size = 12
?Initialize@CCoupleHelper@@QAEHXZ PROC			; CCoupleHelper::Initialize, COMDAT
; _this$ = ecx

; 154  : {

  00000	55		 push	 ebp
  00001	8b ec		 mov	 ebp, esp
  00003	6a ff		 push	 -1
  00005	68 00 00 00 00	 push	 __ehhandler$?Initialize@CCoupleHelper@@QAEHXZ
  0000a	64 a1 00 00 00
	00		 mov	 eax, DWORD PTR fs:0
  00010	50		 push	 eax
  00011	51		 push	 ecx
  00012	56		 push	 esi
  00013	a1 00 00 00 00	 mov	 eax, DWORD PTR ___security_cookie
  00018	33 c5		 xor	 eax, ebp
  0001a	50		 push	 eax
  0001b	8d 45 f4	 lea	 eax, DWORD PTR __$EHRec$[ebp]
  0001e	64 a3 00 00 00
	00		 mov	 DWORD PTR fs:0, eax
  00024	8b f1		 mov	 esi, ecx

; 155  : 	m_pController	= new CCoupleController( this );

  00026	6a 18		 push	 24			; 00000018H
  00028	e8 00 00 00 00	 call	 ??2@YAPAXI@Z		; operator new
  0002d	83 c4 04	 add	 esp, 4
  00030	89 45 f0	 mov	 DWORD PTR $T2[ebp], eax
  00033	c7 45 fc 00 00
	00 00		 mov	 DWORD PTR __$EHRec$[ebp+8], 0
  0003a	85 c0		 test	 eax, eax
  0003c	74 0a		 je	 SHORT $LN4@Initialize
  0003e	56		 push	 esi
  0003f	8b c8		 mov	 ecx, eax
  00041	e8 00 00 00 00	 call	 ??0CCoupleController@@QAE@PAVCCoupleHelper@@@Z ; CCoupleController::CCoupleController
  00046	eb 02		 jmp	 SHORT $LN5@Initialize
$LN4@Initialize:
  00048	33 c0		 xor	 eax, eax
$LN5@Initialize:

; 156  : 	m_pController->CreateDbHandler( MIN( 1 ) );

  0004a	68 60 ea 00 00	 push	 60000			; 0000ea60H
  0004f	8b c8		 mov	 ecx, eax
  00051	c7 45 fc ff ff
	ff ff		 mov	 DWORD PTR __$EHRec$[ebp+8], -1
  00058	89 46 08	 mov	 DWORD PTR [esi+8], eax
  0005b	e8 00 00 00 00	 call	 ?CreateDbHandler@CDbController@@QAEHK@Z ; CDbController::CreateDbHandler

; 157  : 	m_pMgr	= new CCoupleMgr;

  00060	6a 18		 push	 24			; 00000018H
  00062	e8 00 00 00 00	 call	 ??2@YAPAXI@Z		; operator new
  00067	83 c4 04	 add	 esp, 4
  0006a	89 45 f0	 mov	 DWORD PTR $T3[ebp], eax
  0006d	c7 45 fc 01 00
	00 00		 mov	 DWORD PTR __$EHRec$[ebp+8], 1
  00074	85 c0		 test	 eax, eax
  00076	74 09		 je	 SHORT $LN6@Initialize
  00078	8b c8		 mov	 ecx, eax
  0007a	e8 00 00 00 00	 call	 ??0CCoupleMgr@@QAE@XZ	; CCoupleMgr::CCoupleMgr
  0007f	eb 02		 jmp	 SHORT $LN7@Initialize
$LN6@Initialize:
  00081	33 c0		 xor	 eax, eax
$LN7@Initialize:
  00083	c7 45 fc ff ff
	ff ff		 mov	 DWORD PTR __$EHRec$[ebp+8], -1
  0008a	89 46 04	 mov	 DWORD PTR [esi+4], eax

; 158  : 	if( CCoupleProperty::Instance()->Initialize() )

  0008d	e8 00 00 00 00	 call	 ?Instance@CCoupleProperty@@SAPAV1@XZ ; CCoupleProperty::Instance
  00092	8b c8		 mov	 ecx, eax
  00094	e8 00 00 00 00	 call	 ?Initialize@CCoupleProperty@@QAEHXZ ; CCoupleProperty::Initialize
  00099	85 c0		 test	 eax, eax
  0009b	74 18		 je	 SHORT $LN2@Initialize

; 159  : 		return m_pController->Restore();

  0009d	8b 4e 08	 mov	 ecx, DWORD PTR [esi+8]
  000a0	e8 00 00 00 00	 call	 ?Restore@CCoupleController@@QAEHXZ ; CCoupleController::Restore

; 161  : }

  000a5	8b 4d f4	 mov	 ecx, DWORD PTR __$EHRec$[ebp]
  000a8	64 89 0d 00 00
	00 00		 mov	 DWORD PTR fs:0, ecx
  000af	59		 pop	 ecx
  000b0	5e		 pop	 esi
  000b1	8b e5		 mov	 esp, ebp
  000b3	5d		 pop	 ebp
  000b4	c3		 ret	 0
$LN2@Initialize:

; 160  : 	return FALSE;

  000b5	33 c0		 xor	 eax, eax

; 161  : }

  000b7	8b 4d f4	 mov	 ecx, DWORD PTR __$EHRec$[ebp]
  000ba	64 89 0d 00 00
	00 00		 mov	 DWORD PTR fs:0, ecx
  000c1	59		 pop	 ecx
  000c2	5e		 pop	 esi
  000c3	8b e5		 mov	 esp, ebp
  000c5	5d		 pop	 ebp
  000c6	c3		 ret	 0
_TEXT	ENDS
;	COMDAT text$x
text$x	SEGMENT
__unwindfunclet$?Initialize@CCoupleHelper@@QAEHXZ$0:
  00000	6a 18		 push	 24			; 00000018H
  00002	8b 45 f0	 mov	 eax, DWORD PTR $T2[ebp]
  00005	50		 push	 eax
  00006	e8 00 00 00 00	 call	 ??3@YAXPAXI@Z		; operator delete
  0000b	83 c4 08	 add	 esp, 8
  0000e	c3		 ret	 0
__unwindfunclet$?Initialize@CCoupleHelper@@QAEHXZ$1:
  0000f	6a 18		 push	 24			; 00000018H
  00011	8b 45 f0	 mov	 eax, DWORD PTR $T3[ebp]
  00014	50		 push	 eax
  00015	e8 00 00 00 00	 call	 ??3@YAXPAXI@Z		; operator delete
  0001a	83 c4 08	 add	 esp, 8
  0001d	c3		 ret	 0
  0001e	cc		 int	 3
  0001f	cc		 int	 3
  00020	cc		 int	 3
  00021	cc		 int	 3
  00022	cc		 int	 3
__ehhandler$?Initialize@CCoupleHelper@@QAEHXZ:
  00023	90		 npad	 1
  00024	90		 npad	 1
  00025	8b 54 24 08	 mov	 edx, DWORD PTR [esp+8]
  00029	8d 42 0c	 lea	 eax, DWORD PTR [edx+12]
  0002c	8b 4a f4	 mov	 ecx, DWORD PTR [edx-12]
  0002f	33 c8		 xor	 ecx, eax
  00031	e8 00 00 00 00	 call	 @__security_check_cookie@4
  00036	b8 00 00 00 00	 mov	 eax, OFFSET __ehfuncinfo$?Initialize@CCoupleHelper@@QAEHXZ
  0003b	e9 00 00 00 00	 jmp	 ___CxxFrameHandler3
text$x	ENDS
?Initialize@CCoupleHelper@@QAEHXZ ENDP			; CCoupleHelper::Initialize
; Function compile flags: /Ogtp
; File C:\IAGOS\server\v18\Source\Source\DatabaseServer\couplehelper.cpp
;	COMDAT ?Serialize@CCoupleHelper@@QAEXAAVCAr@@@Z
_TEXT	SEGMENT
_ar$ = 8						; size = 4
?Serialize@CCoupleHelper@@QAEXAAVCAr@@@Z PROC		; CCoupleHelper::Serialize, COMDAT
; _this$ = ecx

; 148  : {

  00000	55		 push	 ebp
  00001	8b ec		 mov	 ebp, esp

; 149  : 	ASSERT( m_pMgr );
; 150  : 	m_pMgr->Serialize( ar );

  00003	8b 49 04	 mov	 ecx, DWORD PTR [ecx+4]

; 151  : }

  00006	5d		 pop	 ebp

; 149  : 	ASSERT( m_pMgr );
; 150  : 	m_pMgr->Serialize( ar );

  00007	e9 00 00 00 00	 jmp	 ?Serialize@CCoupleMgr@@QAEXAAVCAr@@@Z ; CCoupleMgr::Serialize
?Serialize@CCoupleHelper@@QAEXAAVCAr@@@Z ENDP		; CCoupleHelper::Serialize
_TEXT	ENDS
; Function compile flags: /Ogtp
; File C:\IAGOS\server\v18\Source\Source\DatabaseServer\couplehelper.cpp
;	COMDAT ?Clear@CCoupleHelper@@QAEXXZ
_TEXT	SEGMENT
?Clear@CCoupleHelper@@QAEXXZ PROC			; CCoupleHelper::Clear, COMDAT
; _this$ = ecx

; 140  : {

  00000	56		 push	 esi
  00001	8b f1		 mov	 esi, ecx

; 141  : 	if( m_pController )

  00003	8b 4e 08	 mov	 ecx, DWORD PTR [esi+8]
  00006	85 c9		 test	 ecx, ecx
  00008	74 05		 je	 SHORT $LN2@Clear

; 142  : 		m_pController->CloseDbHandler();

  0000a	e8 00 00 00 00	 call	 ?CloseDbHandler@CDbController@@QAEXXZ ; CDbController::CloseDbHandler
$LN2@Clear:

; 143  : 	SAFE_DELETE( m_pController );

  0000f	8b 4e 08	 mov	 ecx, DWORD PTR [esi+8]
  00012	85 c9		 test	 ecx, ecx
  00014	74 0d		 je	 SHORT $LN3@Clear
  00016	8b 01		 mov	 eax, DWORD PTR [ecx]
  00018	6a 01		 push	 1
  0001a	ff 10		 call	 DWORD PTR [eax]
  0001c	c7 46 08 00 00
	00 00		 mov	 DWORD PTR [esi+8], 0
$LN3@Clear:

; 144  : 	SAFE_DELETE( m_pMgr );

  00023	8b 4e 04	 mov	 ecx, DWORD PTR [esi+4]
  00026	85 c9		 test	 ecx, ecx
  00028	74 0d		 je	 SHORT $LN4@Clear
  0002a	8b 01		 mov	 eax, DWORD PTR [ecx]
  0002c	6a 01		 push	 1
  0002e	ff 10		 call	 DWORD PTR [eax]
  00030	c7 46 04 00 00
	00 00		 mov	 DWORD PTR [esi+4], 0
$LN4@Clear:

; 145  : }

  00037	5e		 pop	 esi
  00038	c3		 ret	 0
?Clear@CCoupleHelper@@QAEXXZ ENDP			; CCoupleHelper::Clear
_TEXT	ENDS
; Function compile flags: /Ogtp
; File C:\IAGOS\server\v18\Source\Source\DatabaseServer\couplehelper.cpp
;	COMDAT ?Instance@CCoupleHelper@@SAPAV1@XZ
_TEXT	SEGMENT
__$EHRec$ = -12						; size = 12
?Instance@CCoupleHelper@@SAPAV1@XZ PROC			; CCoupleHelper::Instance, COMDAT

; 134  : {

  00000	55		 push	 ebp
  00001	8b ec		 mov	 ebp, esp
  00003	6a ff		 push	 -1
  00005	68 00 00 00 00	 push	 __ehhandler$?Instance@CCoupleHelper@@SAPAV1@XZ
  0000a	64 a1 00 00 00
	00		 mov	 eax, DWORD PTR fs:0
  00010	50		 push	 eax
  00011	a1 00 00 00 00	 mov	 eax, DWORD PTR ___security_cookie
  00016	33 c5		 xor	 eax, ebp
  00018	50		 push	 eax
  00019	8d 45 f4	 lea	 eax, DWORD PTR __$EHRec$[ebp]
  0001c	64 a3 00 00 00
	00		 mov	 DWORD PTR fs:0, eax

; 135  : 	static CCoupleHelper sCoupleHelper;

  00022	64 a1 00 00 00
	00		 mov	 eax, DWORD PTR fs:__tls_array
  00028	8b 0d 00 00 00
	00		 mov	 ecx, DWORD PTR __tls_index
  0002e	8b 0c 88	 mov	 ecx, DWORD PTR [eax+ecx*4]
  00031	a1 00 00 00 00	 mov	 eax, DWORD PTR ?$TSS0@?1??Instance@CCoupleHelper@@SAPAV2@XZ@4HA
  00036	3b 81 00 00 00
	00		 cmp	 eax, DWORD PTR __Init_thread_epoch[ecx]
  0003c	7f 14		 jg	 SHORT $LN9@Instance
$LN5@Instance:

; 136  : 	return &sCoupleHelper;
; 137  : }

  0003e	b8 00 00 00 00	 mov	 eax, OFFSET ?sCoupleHelper@?1??Instance@CCoupleHelper@@SAPAV2@XZ@4V2@A
  00043	8b 4d f4	 mov	 ecx, DWORD PTR __$EHRec$[ebp]
  00046	64 89 0d 00 00
	00 00		 mov	 DWORD PTR fs:0, ecx
  0004d	59		 pop	 ecx
  0004e	8b e5		 mov	 esp, ebp
  00050	5d		 pop	 ebp
  00051	c3		 ret	 0
$LN9@Instance:

; 135  : 	static CCoupleHelper sCoupleHelper;

  00052	68 00 00 00 00	 push	 OFFSET ?$TSS0@?1??Instance@CCoupleHelper@@SAPAV2@XZ@4HA
  00057	e8 00 00 00 00	 call	 __Init_thread_header
  0005c	83 c4 04	 add	 esp, 4
  0005f	83 3d 00 00 00
	00 ff		 cmp	 DWORD PTR ?$TSS0@?1??Instance@CCoupleHelper@@SAPAV2@XZ@4HA, -1
  00066	75 d6		 jne	 SHORT $LN5@Instance
  00068	b9 00 00 00 00	 mov	 ecx, OFFSET ?sCoupleHelper@?1??Instance@CCoupleHelper@@SAPAV2@XZ@4V2@A
  0006d	c7 45 fc 00 00
	00 00		 mov	 DWORD PTR __$EHRec$[ebp+8], 0
  00074	e8 00 00 00 00	 call	 ??0CCoupleHelper@@AAE@XZ ; CCoupleHelper::CCoupleHelper
  00079	68 00 00 00 00	 push	 OFFSET ??__FsCoupleHelper@?1??Instance@CCoupleHelper@@SAPAV1@XZ@YAXXZ ; `CCoupleHelper::Instance'::`2'::`dynamic atexit destructor for 'sCoupleHelper''
  0007e	e8 00 00 00 00	 call	 _atexit
  00083	68 00 00 00 00	 push	 OFFSET ?$TSS0@?1??Instance@CCoupleHelper@@SAPAV2@XZ@4HA
  00088	e8 00 00 00 00	 call	 __Init_thread_footer
  0008d	83 c4 08	 add	 esp, 8
  00090	eb ac		 jmp	 SHORT $LN5@Instance
_TEXT	ENDS
;	COMDAT text$x
text$x	SEGMENT
__unwindfunclet$?Instance@CCoupleHelper@@SAPAV1@XZ$0:
  00000	68 00 00 00 00	 push	 OFFSET ?$TSS0@?1??Instance@CCoupleHelper@@SAPAV2@XZ@4HA
  00005	e8 00 00 00 00	 call	 __Init_thread_abort
  0000a	59		 pop	 ecx
  0000b	c3		 ret	 0
  0000c	cc		 int	 3
  0000d	cc		 int	 3
  0000e	cc		 int	 3
  0000f	cc		 int	 3
  00010	cc		 int	 3
__ehhandler$?Instance@CCoupleHelper@@SAPAV1@XZ:
  00011	90		 npad	 1
  00012	90		 npad	 1
  00013	8b 54 24 08	 mov	 edx, DWORD PTR [esp+8]
  00017	8d 42 0c	 lea	 eax, DWORD PTR [edx+12]
  0001a	8b 4a fc	 mov	 ecx, DWORD PTR [edx-4]
  0001d	33 c8		 xor	 ecx, eax
  0001f	e8 00 00 00 00	 call	 @__security_check_cookie@4
  00024	b8 00 00 00 00	 mov	 eax, OFFSET __ehfuncinfo$?Instance@CCoupleHelper@@SAPAV1@XZ
  00029	e9 00 00 00 00	 jmp	 ___CxxFrameHandler3
text$x	ENDS
?Instance@CCoupleHelper@@SAPAV1@XZ ENDP			; CCoupleHelper::Instance
; Function compile flags: /Ogtp
; File C:\IAGOS\server\v18\Source\Source\DatabaseServer\couplehelper.cpp
;	COMDAT ??1CCoupleHelper@@UAE@XZ
_TEXT	SEGMENT
__$EHRec$ = -12						; size = 12
??1CCoupleHelper@@UAE@XZ PROC				; CCoupleHelper::~CCoupleHelper, COMDAT
; _this$ = ecx

; 129  : {

  00000	55		 push	 ebp
  00001	8b ec		 mov	 ebp, esp
  00003	6a ff		 push	 -1
  00005	68 00 00 00 00	 push	 __ehhandler$??1CCoupleHelper@@UAE@XZ
  0000a	64 a1 00 00 00
	00		 mov	 eax, DWORD PTR fs:0
  00010	50		 push	 eax
  00011	56		 push	 esi
  00012	a1 00 00 00 00	 mov	 eax, DWORD PTR ___security_cookie
  00017	33 c5		 xor	 eax, ebp
  00019	50		 push	 eax
  0001a	8d 45 f4	 lea	 eax, DWORD PTR __$EHRec$[ebp]
  0001d	64 a3 00 00 00
	00		 mov	 DWORD PTR fs:0, eax
  00023	8b f1		 mov	 esi, ecx
  00025	c7 06 00 00 00
	00		 mov	 DWORD PTR [esi], OFFSET ??_7CCoupleHelper@@6B@

; 130  : 	Clear();

  0002b	e8 00 00 00 00	 call	 ?Clear@CCoupleHelper@@QAEXXZ ; CCoupleHelper::Clear

; 131  : }

  00030	8d 4e 0c	 lea	 ecx, DWORD PTR [esi+12]
  00033	e8 00 00 00 00	 call	 ??1?$_Tree@V?$_Tmap_traits@KJU?$less@K@std@@V?$allocator@U?$pair@$$CBKJ@std@@@2@$0A@@std@@@std@@QAE@XZ ; std::_Tree<std::_Tmap_traits<unsigned long,long,std::less<unsigned long>,std::allocator<std::pair<unsigned long const ,long> >,0> >::~_Tree<std::_Tmap_traits<unsigned long,long,std::less<unsigned long>,std::allocator<std::pair<unsigned long const ,long> >,0> >
  00038	8b 4d f4	 mov	 ecx, DWORD PTR __$EHRec$[ebp]
  0003b	64 89 0d 00 00
	00 00		 mov	 DWORD PTR fs:0, ecx
  00042	59		 pop	 ecx
  00043	5e		 pop	 esi
  00044	8b e5		 mov	 esp, ebp
  00046	5d		 pop	 ebp
  00047	c3		 ret	 0
  00048	cc		 int	 3
  00049	cc		 int	 3
  0004a	cc		 int	 3
  0004b	cc		 int	 3
  0004c	cc		 int	 3
_TEXT	ENDS
;	COMDAT text$x
text$x	SEGMENT
__ehhandler$??1CCoupleHelper@@UAE@XZ:
  00000	90		 npad	 1
  00001	90		 npad	 1
  00002	8b 54 24 08	 mov	 edx, DWORD PTR [esp+8]
  00006	8d 42 0c	 lea	 eax, DWORD PTR [edx+12]
  00009	8b 4a f8	 mov	 ecx, DWORD PTR [edx-8]
  0000c	33 c8		 xor	 ecx, eax
  0000e	e8 00 00 00 00	 call	 @__security_check_cookie@4
  00013	b8 00 00 00 00	 mov	 eax, OFFSET __ehfuncinfo$??1CCoupleHelper@@UAE@XZ
  00018	e9 00 00 00 00	 jmp	 ___CxxFrameHandler3
text$x	ENDS
??1CCoupleHelper@@UAE@XZ ENDP				; CCoupleHelper::~CCoupleHelper
; Function compile flags: /Ogtp
; File C:\IAGOS\server\v18\Source\Source\DatabaseServer\couplehelper.cpp
; File C:\Program Files\Microsoft Visual Studio\2022\Professional\VC\Tools\MSVC\14.44.35207\include\xmemory
; File C:\IAGOS\server\v18\Source\Source\DatabaseServer\couplehelper.cpp
; File C:\Program Files\Microsoft Visual Studio\2022\Professional\VC\Tools\MSVC\14.44.35207\include\xtree
; File C:\Program Files\Microsoft Visual Studio\2022\Professional\VC\Tools\MSVC\14.44.35207\include\xmemory
; File C:\Program Files\Microsoft Visual Studio\2022\Professional\VC\Tools\MSVC\14.44.35207\include\xtree
; File C:\IAGOS\server\v18\Source\Source\DatabaseServer\couplehelper.cpp
;	COMDAT ??0CCoupleHelper@@AAE@XZ
_TEXT	SEGMENT
_this$ = -4						; size = 4
_this$ = -4						; size = 4
??0CCoupleHelper@@AAE@XZ PROC				; CCoupleHelper::CCoupleHelper, COMDAT
; _this$ = ecx

; 125  : {

  00000	55		 push	 ebp
  00001	8b ec		 mov	 ebp, esp
  00003	51		 push	 ecx
  00004	56		 push	 esi
  00005	57		 push	 edi
  00006	8b f9		 mov	 edi, ecx
  00008	8d 77 0c	 lea	 esi, DWORD PTR [edi+12]
  0000b	89 7d fc	 mov	 DWORD PTR _this$[ebp], edi
; File C:\Program Files\Microsoft Visual Studio\2022\Professional\VC\Tools\MSVC\14.44.35207\include\xmemory

; 136  :         return ::operator new(_Bytes);

  0000e	6a 18		 push	 24			; 00000018H
; File C:\IAGOS\server\v18\Source\Source\DatabaseServer\couplehelper.cpp

; 125  : {

  00010	89 75 fc	 mov	 DWORD PTR _this$[ebp], esi
  00013	c7 07 00 00 00
	00		 mov	 DWORD PTR [edi], OFFSET ??_7CCoupleHelper@@6B@
; File C:\Program Files\Microsoft Visual Studio\2022\Professional\VC\Tools\MSVC\14.44.35207\include\xtree

; 450  :     _Tree_val() noexcept : _Myhead(), _Mysize(0) {}

  00019	c7 06 00 00 00
	00		 mov	 DWORD PTR [esi], 0
  0001f	c7 46 04 00 00
	00 00		 mov	 DWORD PTR [esi+4], 0
; File C:\Program Files\Microsoft Visual Studio\2022\Professional\VC\Tools\MSVC\14.44.35207\include\xmemory

; 136  :         return ::operator new(_Bytes);

  00026	e8 00 00 00 00	 call	 ??2@YAPAXI@Z		; operator new
  0002b	83 c4 04	 add	 esp, 4
; File C:\Program Files\Microsoft Visual Studio\2022\Professional\VC\Tools\MSVC\14.44.35207\include\xtree

; 346  :         _Construct_in_place(_Pnode->_Left, _Pnode);

  0002e	89 00		 mov	 DWORD PTR [eax], eax

; 347  :         _Construct_in_place(_Pnode->_Parent, _Pnode);

  00030	89 40 04	 mov	 DWORD PTR [eax+4], eax

; 348  :         _Construct_in_place(_Pnode->_Right, _Pnode);

  00033	89 40 08	 mov	 DWORD PTR [eax+8], eax

; 349  :         _Pnode->_Color = _Black;

  00036	66 c7 40 0c 01
	01		 mov	 WORD PTR [eax+12], 257	; 00000101H

; 1957 :         _Scary->_Myhead = _Node::_Buyheadnode(_Getal());

  0003c	89 06		 mov	 DWORD PTR [esi], eax
; File C:\IAGOS\server\v18\Source\Source\DatabaseServer\couplehelper.cpp

; 126  : }

  0003e	8b c7		 mov	 eax, edi
  00040	5f		 pop	 edi
  00041	5e		 pop	 esi
  00042	8b e5		 mov	 esp, ebp
  00044	5d		 pop	 ebp
  00045	c3		 ret	 0
??0CCoupleHelper@@AAE@XZ ENDP				; CCoupleHelper::CCoupleHelper
_TEXT	ENDS
; Function compile flags: /Ogtp
;	COMDAT ??_GCCoupleController@@UAEPAXI@Z
_TEXT	SEGMENT
___flags$ = 8						; size = 4
??_GCCoupleController@@UAEPAXI@Z PROC			; CCoupleController::`scalar deleting destructor', COMDAT
; _this$ = ecx
  00000	55		 push	 ebp
  00001	8b ec		 mov	 ebp, esp
  00003	56		 push	 esi
  00004	8b f1		 mov	 esi, ecx
  00006	e8 00 00 00 00	 call	 ??1CCoupleController@@UAE@XZ ; CCoupleController::~CCoupleController
  0000b	f6 45 08 01	 test	 BYTE PTR ___flags$[ebp], 1
  0000f	74 0b		 je	 SHORT $LN5@scalar
  00011	6a 18		 push	 24			; 00000018H
  00013	56		 push	 esi
  00014	e8 00 00 00 00	 call	 ??3@YAXPAXI@Z		; operator delete
  00019	83 c4 08	 add	 esp, 8
$LN5@scalar:
  0001c	8b c6		 mov	 eax, esi
  0001e	5e		 pop	 esi
  0001f	5d		 pop	 ebp
  00020	c2 04 00	 ret	 4
??_GCCoupleController@@UAEPAXI@Z ENDP			; CCoupleController::`scalar deleting destructor'
_TEXT	ENDS
; Function compile flags: /Ogtp
; File C:\IAGOS\server\v18\Source\Source\DatabaseServer\couplehelper.cpp
;	COMDAT ?OnTimer@CCoupleController@@UAEXXZ
_TEXT	SEGMENT
?OnTimer@CCoupleController@@UAEXXZ PROC			; CCoupleController::OnTimer, COMDAT
; _this$ = ecx

; 120  : 	m_pHelper->OnTimer();

  00000	8b 49 14	 mov	 ecx, DWORD PTR [ecx+20]
  00003	e9 00 00 00 00	 jmp	 ?OnTimer@CCoupleHelper@@QAEXXZ ; CCoupleHelper::OnTimer
?OnTimer@CCoupleController@@UAEXXZ ENDP			; CCoupleController::OnTimer
_TEXT	ENDS
; Function compile flags: /Ogtp
; File C:\IAGOS\server\v18\Source\Source\DatabaseServer\couplehelper.cpp
;	COMDAT ?Handler@CCoupleController@@UAEXPAUtagDB_OVERLAPPED_PLUS@@K@Z
_TEXT	SEGMENT
_pov$ = 8						; size = 4
_dwCompletionKey$ = 12					; size = 4
?Handler@CCoupleController@@UAEXPAUtagDB_OVERLAPPED_PLUS@@K@Z PROC ; CCoupleController::Handler, COMDAT
; _this$ = ecx

; 114  : {

  00000	55		 push	 ebp
  00001	8b ec		 mov	 ebp, esp

; 115  : 	m_pHelper->Handler( pov, dwCompletionKey );

  00003	8b 49 14	 mov	 ecx, DWORD PTR [ecx+20]

; 116  : }

  00006	5d		 pop	 ebp

; 115  : 	m_pHelper->Handler( pov, dwCompletionKey );

  00007	e9 00 00 00 00	 jmp	 ?Handler@CCoupleHelper@@QAEXPAUtagDB_OVERLAPPED_PLUS@@K@Z ; CCoupleHelper::Handler
?Handler@CCoupleController@@UAEXPAUtagDB_OVERLAPPED_PLUS@@K@Z ENDP ; CCoupleController::Handler
_TEXT	ENDS
; Function compile flags: /Ogtp
; File C:\IAGOS\server\v18\Source\Source\DatabaseServer\couplehelper.cpp
;	COMDAT ?AddExperience@CCoupleController@@QAEHKH@Z
_TEXT	SEGMENT
_idPlayer$ = 8						; size = 4
_nExperience$ = 12					; size = 4
?AddExperience@CCoupleController@@QAEHKH@Z PROC		; CCoupleController::AddExperience, COMDAT
; _this$ = ecx

; 103  : {

  00000	55		 push	 ebp
  00001	8b ec		 mov	 ebp, esp

; 104  : 	if( !GetQueryObject()->Execute( "uspAddCoupleExperience %d, %d, %d", g_appInfo.dwSys, idPlayer, nExperience ) )

  00003	ff 75 0c	 push	 DWORD PTR _nExperience$[ebp]
  00006	ff 75 08	 push	 DWORD PTR _idPlayer$[ebp]
  00009	ff 35 00 00 00
	00		 push	 DWORD PTR ?g_appInfo@@3UAppInfo@@A
  0000f	68 00 00 00 00	 push	 OFFSET ??_C@_0CC@HOAMCAAD@uspAddCoupleExperience?5?$CFd?0?5?$CFd?0?5@
  00014	ff 71 0c	 push	 DWORD PTR [ecx+12]
  00017	e8 00 00 00 00	 call	 ?Execute@CQuery@@QAAHPBDZZ ; CQuery::Execute
  0001c	83 c4 14	 add	 esp, 20			; 00000014H
  0001f	85 c0		 test	 eax, eax
  00021	75 13		 jne	 SHORT $LN2@AddExperie

; 105  : 	{
; 106  : 		Error( "couldn't execute uspAddCoupleExperience" );

  00023	68 00 00 00 00	 push	 OFFSET ??_C@_0CI@CNMDKKBC@couldn?8t?5execute?5uspAddCoupleEx@
  00028	e8 00 00 00 00	 call	 ?Error@@YAPBDPBDZZ	; Error
  0002d	83 c4 04	 add	 esp, 4

; 107  : 		return FALSE;

  00030	33 c0		 xor	 eax, eax

; 110  : }

  00032	5d		 pop	 ebp
  00033	c2 08 00	 ret	 8
$LN2@AddExperie:

; 108  : 	}
; 109  : 	return TRUE;

  00036	b8 01 00 00 00	 mov	 eax, 1

; 110  : }

  0003b	5d		 pop	 ebp
  0003c	c2 08 00	 ret	 8
?AddExperience@CCoupleController@@QAEHKH@Z ENDP		; CCoupleController::AddExperience
_TEXT	ENDS
; Function compile flags: /Ogtp
; File C:\IAGOS\server\v18\Source\Source\DatabaseServer\couplehelper.cpp
;	COMDAT ?Decouple@CCoupleController@@QAEHK@Z
_TEXT	SEGMENT
_idPlayer$ = 8						; size = 4
?Decouple@CCoupleController@@QAEHK@Z PROC		; CCoupleController::Decouple, COMDAT
; _this$ = ecx

; 92   : {

  00000	55		 push	 ebp
  00001	8b ec		 mov	 ebp, esp

; 93   : 	if( !GetQueryObject()->Execute( "uspDeleteCouple %d, %d", g_appInfo.dwSys, idPlayer ) )

  00003	ff 75 08	 push	 DWORD PTR _idPlayer$[ebp]
  00006	ff 35 00 00 00
	00		 push	 DWORD PTR ?g_appInfo@@3UAppInfo@@A
  0000c	68 00 00 00 00	 push	 OFFSET ??_C@_0BH@CFAHFKMO@uspDeleteCouple?5?$CFd?0?5?$CFd@
  00011	ff 71 0c	 push	 DWORD PTR [ecx+12]
  00014	e8 00 00 00 00	 call	 ?Execute@CQuery@@QAAHPBDZZ ; CQuery::Execute
  00019	83 c4 10	 add	 esp, 16			; 00000010H
  0001c	85 c0		 test	 eax, eax
  0001e	75 13		 jne	 SHORT $LN2@Decouple

; 94   : 	{
; 95   : 		Error( "couldn't execute uspDeleteCouple" );

  00020	68 00 00 00 00	 push	 OFFSET ??_C@_0CB@BMIHDKGG@couldn?8t?5execute?5uspDeleteCoupl@
  00025	e8 00 00 00 00	 call	 ?Error@@YAPBDPBDZZ	; Error
  0002a	83 c4 04	 add	 esp, 4

; 96   : 		return FALSE;

  0002d	33 c0		 xor	 eax, eax

; 99   : }

  0002f	5d		 pop	 ebp
  00030	c2 04 00	 ret	 4
$LN2@Decouple:

; 97   : 	}
; 98   : 	return TRUE;

  00033	b8 01 00 00 00	 mov	 eax, 1

; 99   : }

  00038	5d		 pop	 ebp
  00039	c2 04 00	 ret	 4
?Decouple@CCoupleController@@QAEHK@Z ENDP		; CCoupleController::Decouple
_TEXT	ENDS
; Function compile flags: /Ogtp
; File C:\IAGOS\server\v18\Source\Source\DatabaseServer\couplehelper.cpp
;	COMDAT ?Couple@CCoupleController@@QAEHKK@Z
_TEXT	SEGMENT
_idProposer$ = 8					; size = 4
_idTarget$ = 12						; size = 4
?Couple@CCoupleController@@QAEHKK@Z PROC		; CCoupleController::Couple, COMDAT
; _this$ = ecx

; 82   : {

  00000	55		 push	 ebp
  00001	8b ec		 mov	 ebp, esp

; 83   : 	if( !GetQueryObject()->Execute( "uspAddCouple %d, %d, %d", g_appInfo.dwSys, idProposer, idTarget ) )

  00003	ff 75 0c	 push	 DWORD PTR _idTarget$[ebp]
  00006	ff 75 08	 push	 DWORD PTR _idProposer$[ebp]
  00009	ff 35 00 00 00
	00		 push	 DWORD PTR ?g_appInfo@@3UAppInfo@@A
  0000f	68 00 00 00 00	 push	 OFFSET ??_C@_0BI@MMJOPPGN@uspAddCouple?5?$CFd?0?5?$CFd?0?5?$CFd@
  00014	ff 71 0c	 push	 DWORD PTR [ecx+12]
  00017	e8 00 00 00 00	 call	 ?Execute@CQuery@@QAAHPBDZZ ; CQuery::Execute
  0001c	83 c4 14	 add	 esp, 20			; 00000014H
  0001f	85 c0		 test	 eax, eax
  00021	75 13		 jne	 SHORT $LN2@Couple

; 84   : 	{
; 85   : 		Error( "couldn't execute uspAddCouple" );

  00023	68 00 00 00 00	 push	 OFFSET ??_C@_0BO@EKHMKIGO@couldn?8t?5execute?5uspAddCouple@
  00028	e8 00 00 00 00	 call	 ?Error@@YAPBDPBDZZ	; Error
  0002d	83 c4 04	 add	 esp, 4

; 86   : 		return FALSE;

  00030	33 c0		 xor	 eax, eax

; 89   : }

  00032	5d		 pop	 ebp
  00033	c2 08 00	 ret	 8
$LN2@Couple:

; 87   : 	}
; 88   : 	return TRUE;

  00036	b8 01 00 00 00	 mov	 eax, 1

; 89   : }

  0003b	5d		 pop	 ebp
  0003c	c2 08 00	 ret	 8
?Couple@CCoupleController@@QAEHKK@Z ENDP		; CCoupleController::Couple
_TEXT	ENDS
; Function compile flags: /Ogtp
; File C:\IAGOS\server\v18\Source\Source\DatabaseServer\couplehelper.cpp
;	COMDAT ?DeletePropose@CCoupleController@@QAEHJ@Z
_TEXT	SEGMENT
_t$ = 8							; size = 4
?DeletePropose@CCoupleController@@QAEHJ@Z PROC		; CCoupleController::DeletePropose, COMDAT
; _this$ = ecx

; 72   : {

  00000	55		 push	 ebp
  00001	8b ec		 mov	 ebp, esp

; 73   : 	if( !GetQueryObject()->Execute( "uspDeletePropose %d, %d", g_appInfo.dwSys, t ) )

  00003	ff 75 08	 push	 DWORD PTR _t$[ebp]
  00006	ff 35 00 00 00
	00		 push	 DWORD PTR ?g_appInfo@@3UAppInfo@@A
  0000c	68 00 00 00 00	 push	 OFFSET ??_C@_0BI@JKNBOMDJ@uspDeletePropose?5?$CFd?0?5?$CFd@
  00011	ff 71 0c	 push	 DWORD PTR [ecx+12]
  00014	e8 00 00 00 00	 call	 ?Execute@CQuery@@QAAHPBDZZ ; CQuery::Execute
  00019	83 c4 10	 add	 esp, 16			; 00000010H
  0001c	85 c0		 test	 eax, eax
  0001e	75 13		 jne	 SHORT $LN2@DeleteProp

; 74   : 	{
; 75   : 		Error( "couldn't execute uspDeletePropose" );

  00020	68 00 00 00 00	 push	 OFFSET ??_C@_0CC@OACJEGKC@couldn?8t?5execute?5uspDeletePropo@
  00025	e8 00 00 00 00	 call	 ?Error@@YAPBDPBDZZ	; Error
  0002a	83 c4 04	 add	 esp, 4

; 76   : 		return FALSE;

  0002d	33 c0		 xor	 eax, eax

; 79   : }

  0002f	5d		 pop	 ebp
  00030	c2 04 00	 ret	 4
$LN2@DeleteProp:

; 77   : 	}
; 78   : 	return TRUE;

  00033	b8 01 00 00 00	 mov	 eax, 1

; 79   : }

  00038	5d		 pop	 ebp
  00039	c2 04 00	 ret	 4
?DeletePropose@CCoupleController@@QAEHJ@Z ENDP		; CCoupleController::DeletePropose
_TEXT	ENDS
; Function compile flags: /Ogtp
; File C:\IAGOS\server\v18\Source\Source\DatabaseServer\couplehelper.cpp
;	COMDAT ?Propose@CCoupleController@@QAEHKJ@Z
_TEXT	SEGMENT
_idProposer$ = 8					; size = 4
_t$ = 12						; size = 4
?Propose@CCoupleController@@QAEHKJ@Z PROC		; CCoupleController::Propose, COMDAT
; _this$ = ecx

; 62   : {

  00000	55		 push	 ebp
  00001	8b ec		 mov	 ebp, esp

; 63   : 	if( !GetQueryObject()->Execute( "uspAddPropose %d, %d, %d", g_appInfo.dwSys, idProposer, t ) )

  00003	ff 75 0c	 push	 DWORD PTR _t$[ebp]
  00006	ff 75 08	 push	 DWORD PTR _idProposer$[ebp]
  00009	ff 35 00 00 00
	00		 push	 DWORD PTR ?g_appInfo@@3UAppInfo@@A
  0000f	68 00 00 00 00	 push	 OFFSET ??_C@_0BJ@HLENHNMF@uspAddPropose?5?$CFd?0?5?$CFd?0?5?$CFd@
  00014	ff 71 0c	 push	 DWORD PTR [ecx+12]
  00017	e8 00 00 00 00	 call	 ?Execute@CQuery@@QAAHPBDZZ ; CQuery::Execute
  0001c	83 c4 14	 add	 esp, 20			; 00000014H
  0001f	85 c0		 test	 eax, eax
  00021	75 13		 jne	 SHORT $LN2@Propose

; 64   : 	{
; 65   : 		Error( "couldn't execute uspAddPropose" );

  00023	68 00 00 00 00	 push	 OFFSET ??_C@_0BP@OOKEDFAC@couldn?8t?5execute?5uspAddPropose@
  00028	e8 00 00 00 00	 call	 ?Error@@YAPBDPBDZZ	; Error
  0002d	83 c4 04	 add	 esp, 4

; 66   : 		return FALSE;

  00030	33 c0		 xor	 eax, eax

; 69   : }

  00032	5d		 pop	 ebp
  00033	c2 08 00	 ret	 8
$LN2@Propose:

; 67   : 	}
; 68   : 	return TRUE;

  00036	b8 01 00 00 00	 mov	 eax, 1

; 69   : }

  0003b	5d		 pop	 ebp
  0003c	c2 08 00	 ret	 8
?Propose@CCoupleController@@QAEHKJ@Z ENDP		; CCoupleController::Propose
_TEXT	ENDS
; Function compile flags: /Ogtp
; File C:\IAGOS\server\v18\Source\Source\DatabaseServer\couplehelper.cpp
; File C:\IAGOS\server\v18\Source\Source\DatabaseServer\couplehelper.h
; File C:\IAGOS\server\v18\Source\Source\DatabaseServer\couplehelper.cpp
; File C:\IAGOS\server\v18\Source\Source\DatabaseServer\couplehelper.h
; File C:\IAGOS\server\v18\Source\Source\DatabaseServer\couplehelper.cpp
; File C:\IAGOS\server\v18\Source\Source\DatabaseServer\couplehelper.h
; File C:\Program Files\Microsoft Visual Studio\2022\Professional\VC\Tools\MSVC\14.44.35207\include\utility
; File C:\Program Files\Microsoft Visual Studio\2022\Professional\VC\Tools\MSVC\14.44.35207\include\xtree
; File C:\Program Files\Microsoft Visual Studio\2022\Professional\VC\Tools\MSVC\14.44.35207\include\utility
; File C:\Program Files\Microsoft Visual Studio\2022\Professional\VC\Tools\MSVC\14.44.35207\include\xtree
; File C:\Program Files\Microsoft Visual Studio\2022\Professional\VC\Tools\MSVC\14.44.35207\include\type_traits
; File C:\Program Files\Microsoft Visual Studio\2022\Professional\VC\Tools\MSVC\14.44.35207\include\xtree
; File C:\Program Files\Microsoft Visual Studio\2022\Professional\VC\Tools\MSVC\14.44.35207\include\xmemory
; File C:\Program Files\Microsoft Visual Studio\2022\Professional\VC\Tools\MSVC\14.44.35207\include\xtree
; File C:\Program Files\Microsoft Visual Studio\2022\Professional\VC\Tools\MSVC\14.44.35207\include\xmemory
; File C:\Program Files\Microsoft Visual Studio\2022\Professional\VC\Tools\MSVC\14.44.35207\include\xtree
; File C:\Program Files\Microsoft Visual Studio\2022\Professional\VC\Tools\MSVC\14.44.35207\include\xmemory
; File C:\Program Files\Microsoft Visual Studio\2022\Professional\VC\Tools\MSVC\14.44.35207\include\xtree
; File C:\Program Files\Microsoft Visual Studio\2022\Professional\VC\Tools\MSVC\14.44.35207\include\utility
; File C:\Program Files\Microsoft Visual Studio\2022\Professional\VC\Tools\MSVC\14.44.35207\include\xtree
; File C:\IAGOS\server\v18\Source\Source\DatabaseServer\couplehelper.cpp
; File C:\Program Files\Microsoft Visual Studio\2022\Professional\VC\Tools\MSVC\14.44.35207\include\xtree
; File C:\IAGOS\server\v18\Source\Source\DatabaseServer\couplehelper.cpp
;	COMDAT ?Restore@CCoupleController@@QAEHXZ
_TEXT	SEGMENT
$T2 = -64						; size = 12
__Loc$3 = -52						; size = 12
$T4 = -40						; size = 8
$T5 = -32						; size = 8
$T6 = -24						; size = 4
$T7 = -24						; size = 4
_nExperience$1$ = -20					; size = 4
$T8 = -20						; size = 4
_this$1$ = -16						; size = 4
__$EHRec$ = -12						; size = 12
?Restore@CCoupleController@@QAEHXZ PROC			; CCoupleController::Restore, COMDAT
; _this$ = ecx

; 24   : {

  00000	55		 push	 ebp
  00001	8b ec		 mov	 ebp, esp
  00003	6a ff		 push	 -1
  00005	68 00 00 00 00	 push	 __ehhandler$?Restore@CCoupleController@@QAEHXZ
  0000a	64 a1 00 00 00
	00		 mov	 eax, DWORD PTR fs:0
  00010	50		 push	 eax
  00011	83 ec 34	 sub	 esp, 52			; 00000034H
  00014	53		 push	 ebx
  00015	56		 push	 esi
  00016	57		 push	 edi
  00017	a1 00 00 00 00	 mov	 eax, DWORD PTR ___security_cookie
  0001c	33 c5		 xor	 eax, ebp
  0001e	50		 push	 eax
  0001f	8d 45 f4	 lea	 eax, DWORD PTR __$EHRec$[ebp]
  00022	64 a3 00 00 00
	00		 mov	 DWORD PTR fs:0, eax
  00028	8b d9		 mov	 ebx, ecx
  0002a	89 5d f0	 mov	 DWORD PTR _this$1$[ebp], ebx

; 25   : 	CQuery* pQuery	= CreateQuery();

  0002d	e8 00 00 00 00	 call	 ?CreateQuery@CDbController@@QAEPAVCQuery@@XZ ; CDbController::CreateQuery
  00032	8b f0		 mov	 esi, eax

; 26   : 	if( !pQuery )

  00034	85 f6		 test	 esi, esi
  00036	0f 84 ed 01 00
	00		 je	 $LN142@Restore

; 27   : 		return FALSE;
; 28   : 	if( !pQuery->Execute( "uspRestoreCouple %d", g_appInfo.dwSys ) )

  0003c	ff 35 00 00 00
	00		 push	 DWORD PTR ?g_appInfo@@3UAppInfo@@A
  00042	68 00 00 00 00	 push	 OFFSET ??_C@_0BE@LAHMMJCP@uspRestoreCouple?5?$CFd@
  00047	56		 push	 esi
  00048	e8 00 00 00 00	 call	 ?Execute@CQuery@@QAAHPBDZZ ; CQuery::Execute
  0004d	83 c4 0c	 add	 esp, 12			; 0000000cH
  00050	85 c0		 test	 eax, eax
  00052	75 21		 jne	 SHORT $LN127@Restore

; 29   : 	{
; 30   : 		Error( "couldn't execute uspRestoreCouple" );

  00054	68 00 00 00 00	 push	 OFFSET ??_C@_0CC@GMJLNCFC@couldn?8t?5execute?5uspRestoreCoup@
  00059	e8 00 00 00 00	 call	 ?Error@@YAPBDPBDZZ	; Error
  0005e	83 c4 04	 add	 esp, 4

; 59   : }

  00061	33 c0		 xor	 eax, eax
  00063	8b 4d f4	 mov	 ecx, DWORD PTR __$EHRec$[ebp]
  00066	64 89 0d 00 00
	00 00		 mov	 DWORD PTR fs:0, ecx
  0006d	59		 pop	 ecx
  0006e	5f		 pop	 edi
  0006f	5e		 pop	 esi
  00070	5b		 pop	 ebx
  00071	8b e5		 mov	 esp, ebp
  00073	5d		 pop	 ebp
  00074	c3		 ret	 0
$LN127@Restore:

; 31   : 		return FALSE;
; 32   : 	}
; 33   : 	while( pQuery->Fetch() )

  00075	8b ce		 mov	 ecx, esi
  00077	e8 00 00 00 00	 call	 ?Fetch@CQuery@@QAEHXZ	; CQuery::Fetch
  0007c	85 c0		 test	 eax, eax
  0007e	0f 84 7d 00 00
	00		 je	 $LN3@Restore
$LL2@Restore:

; 34   : 	{
; 35   : 		int nExperience	= pQuery->GetInt( "nExperience" );

  00084	68 00 00 00 00	 push	 OFFSET ??_C@_0M@ODFMJGEL@nExperience@
  00089	8b ce		 mov	 ecx, esi
  0008b	e8 00 00 00 00	 call	 ?GetInt@CQuery@@QAEHPAD@Z ; CQuery::GetInt

; 36   : 		u_long idFirst	= pQuery->GetInt( "idFirst" );

  00090	68 00 00 00 00	 push	 OFFSET ??_C@_07LLHBANFB@idFirst@
  00095	8b ce		 mov	 ecx, esi
  00097	89 45 ec	 mov	 DWORD PTR _nExperience$1$[ebp], eax
  0009a	e8 00 00 00 00	 call	 ?GetInt@CQuery@@QAEHPAD@Z ; CQuery::GetInt

; 37   : 		u_long idSecond	= pQuery->GetInt( "idSecond" );

  0009f	68 00 00 00 00	 push	 OFFSET ??_C@_08JJMLNGN@idSecond@
  000a4	8b ce		 mov	 ecx, esi
  000a6	8b f8		 mov	 edi, eax
  000a8	e8 00 00 00 00	 call	 ?GetInt@CQuery@@QAEHPAD@Z ; CQuery::GetInt

; 38   : 		CCouple* pCouple	= new CCouple( idFirst, idSecond );

  000ad	6a 14		 push	 20			; 00000014H
  000af	8b d8		 mov	 ebx, eax
  000b1	e8 00 00 00 00	 call	 ??2@YAPAXI@Z		; operator new
  000b6	83 c4 04	 add	 esp, 4
  000b9	89 45 e8	 mov	 DWORD PTR $T6[ebp], eax
  000bc	c7 45 fc 00 00
	00 00		 mov	 DWORD PTR __$EHRec$[ebp+8], 0
  000c3	85 c0		 test	 eax, eax
  000c5	74 0d		 je	 SHORT $LN11@Restore
  000c7	53		 push	 ebx
  000c8	57		 push	 edi
  000c9	8b c8		 mov	 ecx, eax
  000cb	e8 00 00 00 00	 call	 ??0CCouple@@QAE@KK@Z	; CCouple::CCouple
  000d0	8b f8		 mov	 edi, eax
  000d2	eb 02		 jmp	 SHORT $LN12@Restore
$LN11@Restore:
  000d4	33 ff		 xor	 edi, edi
$LN12@Restore:

; 39   : 		m_pHelper->Couple( pCouple );

  000d6	8b 5d f0	 mov	 ebx, DWORD PTR _this$1$[ebp]
; File C:\IAGOS\server\v18\Source\Source\DatabaseServer\couplehelper.h

; 60   : 	void	Couple( CCouple* pCouple )	{	ASSERT( m_pMgr );	m_pMgr->Couple( pCouple );	}

  000d9	57		 push	 edi
; File C:\IAGOS\server\v18\Source\Source\DatabaseServer\couplehelper.cpp

; 38   : 		CCouple* pCouple	= new CCouple( idFirst, idSecond );

  000da	c7 45 fc ff ff
	ff ff		 mov	 DWORD PTR __$EHRec$[ebp+8], -1

; 39   : 		m_pHelper->Couple( pCouple );

  000e1	8b 4b 14	 mov	 ecx, DWORD PTR [ebx+20]
; File C:\IAGOS\server\v18\Source\Source\DatabaseServer\couplehelper.h

; 60   : 	void	Couple( CCouple* pCouple )	{	ASSERT( m_pMgr );	m_pMgr->Couple( pCouple );	}

  000e4	8b 49 04	 mov	 ecx, DWORD PTR [ecx+4]
  000e7	e8 00 00 00 00	 call	 ?Couple@CCoupleMgr@@QAEXPAVCCouple@@@Z ; CCoupleMgr::Couple
; File C:\IAGOS\server\v18\Source\Source\DatabaseServer\couplehelper.cpp

; 40   : 		pCouple->AddExperience( nExperience );

  000ec	ff 75 ec	 push	 DWORD PTR _nExperience$1$[ebp]
  000ef	8b cf		 mov	 ecx, edi
  000f1	e8 00 00 00 00	 call	 ?AddExperience@CCouple@@QAEHH@Z ; CCouple::AddExperience
  000f6	8b ce		 mov	 ecx, esi
  000f8	e8 00 00 00 00	 call	 ?Fetch@CQuery@@QAEHXZ	; CQuery::Fetch
  000fd	85 c0		 test	 eax, eax
  000ff	75 83		 jne	 SHORT $LL2@Restore
$LN3@Restore:

; 41   : 	}
; 42   : 
; 43   : 	pQuery->Clear();

  00101	8b ce		 mov	 ecx, esi
  00103	e8 00 00 00 00	 call	 ?Clear@CQuery@@QAEXXZ	; CQuery::Clear

; 44   : 	if( !pQuery->Execute( "uspRestorePropose %d", g_appInfo.dwSys ) )

  00108	ff 35 00 00 00
	00		 push	 DWORD PTR ?g_appInfo@@3UAppInfo@@A
  0010e	68 00 00 00 00	 push	 OFFSET ??_C@_0BF@EEKILEKJ@uspRestorePropose?5?$CFd@
  00113	56		 push	 esi
  00114	e8 00 00 00 00	 call	 ?Execute@CQuery@@QAAHPBDZZ ; CQuery::Execute
  00119	83 c4 0c	 add	 esp, 12			; 0000000cH
  0011c	85 c0		 test	 eax, eax
  0011e	75 21		 jne	 SHORT $LN128@Restore

; 45   : 	{
; 46   : 		Error( "couldn't execute uspRestorePropose" );

  00120	68 00 00 00 00	 push	 OFFSET ??_C@_0CD@MBONKOPP@couldn?8t?5execute?5uspRestoreProp@
  00125	e8 00 00 00 00	 call	 ?Error@@YAPBDPBDZZ	; Error
  0012a	83 c4 04	 add	 esp, 4

; 59   : }

  0012d	33 c0		 xor	 eax, eax
  0012f	8b 4d f4	 mov	 ecx, DWORD PTR __$EHRec$[ebp]
  00132	64 89 0d 00 00
	00 00		 mov	 DWORD PTR fs:0, ecx
  00139	59		 pop	 ecx
  0013a	5f		 pop	 edi
  0013b	5e		 pop	 esi
  0013c	5b		 pop	 ebx
  0013d	8b e5		 mov	 esp, ebp
  0013f	5d		 pop	 ebp
  00140	c3		 ret	 0
$LN128@Restore:

; 49   : 	while( pQuery->Fetch() )

  00141	8b ce		 mov	 ecx, esi
  00143	e8 00 00 00 00	 call	 ?Fetch@CQuery@@QAEHXZ	; CQuery::Fetch
  00148	85 c0		 test	 eax, eax
  0014a	0f 84 c4 00 00
	00		 je	 $LN5@Restore
$LL4@Restore:

; 50   : 	{
; 51   : 		u_long idProposer	= pQuery->GetInt( "idProposer" );

  00150	68 00 00 00 00	 push	 OFFSET ??_C@_0L@LMOLFJKD@idProposer@
  00155	8b ce		 mov	 ecx, esi
  00157	e8 00 00 00 00	 call	 ?GetInt@CQuery@@QAEHPAD@Z ; CQuery::GetInt
  0015c	8b f8		 mov	 edi, eax

; 52   : 		time_t tPropose	= pQuery->GetInt( "tPropose" );

  0015e	8b ce		 mov	 ecx, esi
  00160	68 00 00 00 00	 push	 OFFSET ??_C@_08LHGALILC@tPropose@
  00165	89 7d ec	 mov	 DWORD PTR $T8[ebp], edi
  00168	e8 00 00 00 00	 call	 ?GetInt@CQuery@@QAEHPAD@Z ; CQuery::GetInt

; 53   : 		bool bResult	= m_pHelper->AddPropose( idProposer, tPropose );

  0016d	8b 5b 14	 mov	 ebx, DWORD PTR [ebx+20]
  00170	89 45 e8	 mov	 DWORD PTR $T7[ebp], eax
; File C:\IAGOS\server\v18\Source\Source\DatabaseServer\couplehelper.h

; 59   : 	bool	AddPropose( u_long idPlayer, time_t t )	{	return m_mapProposes.insert( MUT::value_type( idPlayer, t ) ).second;	}

  00173	83 c3 0c	 add	 ebx, 12			; 0000000cH
; File C:\Program Files\Microsoft Visual Studio\2022\Professional\VC\Tools\MSVC\14.44.35207\include\utility

; 274  :         : first(_STD forward<_Other1>(_Val1)), second(_STD forward<_Other2>(_Val2)) {

  00176	89 45 e4	 mov	 DWORD PTR $T5[ebp+4], eax
; File C:\Program Files\Microsoft Visual Studio\2022\Professional\VC\Tools\MSVC\14.44.35207\include\xtree

; 1017 :             _Loc                = _Find_lower_bound(_Keyval);

  00179	8b cb		 mov	 ecx, ebx
  0017b	8d 45 e0	 lea	 eax, DWORD PTR $T5[ebp]
; File C:\Program Files\Microsoft Visual Studio\2022\Professional\VC\Tools\MSVC\14.44.35207\include\utility

; 274  :         : first(_STD forward<_Other1>(_Val1)), second(_STD forward<_Other2>(_Val2)) {

  0017e	89 7d e0	 mov	 DWORD PTR $T5[ebp], edi
; File C:\Program Files\Microsoft Visual Studio\2022\Professional\VC\Tools\MSVC\14.44.35207\include\xtree

; 1017 :             _Loc                = _Find_lower_bound(_Keyval);

  00181	50		 push	 eax
  00182	8d 45 c0	 lea	 eax, DWORD PTR $T2[ebp]
  00185	50		 push	 eax
  00186	e8 00 00 00 00	 call	 ??$_Find_lower_bound@K@?$_Tree@V?$_Tmap_traits@KJU?$less@K@std@@V?$allocator@U?$pair@$$CBKJ@std@@@2@$0A@@std@@@std@@IBE?AU?$_Tree_find_result@PAU?$_Tree_node@U?$pair@$$CBKJ@std@@PAX@std@@@1@ABK@Z ; std::_Tree<std::_Tmap_traits<unsigned long,long,std::less<unsigned long>,std::allocator<std::pair<unsigned long const ,long> >,0> >::_Find_lower_bound<unsigned long>
  0018b	f3 0f 7e 00	 movq	 xmm0, QWORD PTR [eax]
  0018f	8b 40 08	 mov	 eax, DWORD PTR [eax+8]
  00192	66 0f d6 45 cc	 movq	 QWORD PTR __Loc$3[ebp], xmm0

; 1624 :         return !_Bound->_Isnil && !_DEBUG_LT_PRED(_Getcomp(), _Keyval, _Traits::_Kfn(_Bound->_Myval));

  00197	80 78 0d 00	 cmp	 BYTE PTR [eax+13], 0
  0019b	75 05		 jne	 SHORT $LN26@Restore
; File C:\Program Files\Microsoft Visual Studio\2022\Professional\VC\Tools\MSVC\14.44.35207\include\type_traits

; 2380 :         return _Left < _Right;

  0019d	3b 78 10	 cmp	 edi, DWORD PTR [eax+16]
; File C:\Program Files\Microsoft Visual Studio\2022\Professional\VC\Tools\MSVC\14.44.35207\include\xtree

; 1624 :         return !_Bound->_Isnil && !_DEBUG_LT_PRED(_Getcomp(), _Keyval, _Traits::_Kfn(_Bound->_Myval));

  001a0	73 60		 jae	 SHORT $LN106@Restore
$LN26@Restore:

; 1648 :         if (max_size() == _Get_scary()->_Mysize) {

  001a2	81 7b 04 aa aa
	aa 0a		 cmp	 DWORD PTR [ebx+4], 178956970 ; 0aaaaaaaH
  001a9	0f 84 8e 00 00
	00		 je	 $LN129@Restore

; 1023 :             _Inserted = _Tree_temp_node<_Alnode>(_Getal(), _Scary->_Myhead, _STD forward<_Valtys>(_Vals)...)._Release();

  001af	8b 3b		 mov	 edi, DWORD PTR [ebx]
; File C:\Program Files\Microsoft Visual Studio\2022\Professional\VC\Tools\MSVC\14.44.35207\include\xmemory

; 1160 :     _CONSTEXPR20 explicit _Alloc_construct_ptr(_Alloc& _Al_) : _Al(_Al_), _Ptr(nullptr) {}

  001b1	89 5d d8	 mov	 DWORD PTR $T4[ebp], ebx

; 136  :         return ::operator new(_Bytes);

  001b4	6a 18		 push	 24			; 00000018H
; File C:\Program Files\Microsoft Visual Studio\2022\Professional\VC\Tools\MSVC\14.44.35207\include\xtree

; 808  :     explicit _Tree_temp_node_alloc(_Alnode& _Al_) : _Alloc_construct_ptr<_Alnode>(_Al_) {

  001b6	c7 45 fc 01 00
	00 00		 mov	 DWORD PTR __$EHRec$[ebp+8], 1
; File C:\Program Files\Microsoft Visual Studio\2022\Professional\VC\Tools\MSVC\14.44.35207\include\xmemory

; 1167 :         _Ptr = nullptr; // if allocate throws, prevents double-free

  001bd	c7 45 dc 00 00
	00 00		 mov	 DWORD PTR $T4[ebp+4], 0

; 136  :         return ::operator new(_Bytes);

  001c4	e8 00 00 00 00	 call	 ??2@YAPAXI@Z		; operator new
; File C:\Program Files\Microsoft Visual Studio\2022\Professional\VC\Tools\MSVC\14.44.35207\include\xtree

; 830  :         _Alnode_traits::construct(this->_Al, _STD addressof(this->_Ptr->_Myval), _STD forward<_Valtys>(_Vals)...);

  001c9	8b 4d ec	 mov	 ecx, DWORD PTR $T8[ebp]
; File C:\Program Files\Microsoft Visual Studio\2022\Professional\VC\Tools\MSVC\14.44.35207\include\xmemory

; 136  :         return ::operator new(_Bytes);

  001cc	83 c4 04	 add	 esp, 4
; File C:\Program Files\Microsoft Visual Studio\2022\Professional\VC\Tools\MSVC\14.44.35207\include\xtree

; 810  :     }

  001cf	c7 45 fc ff ff
	ff ff		 mov	 DWORD PTR __$EHRec$[ebp+8], -1
; File C:\Program Files\Microsoft Visual Studio\2022\Professional\VC\Tools\MSVC\14.44.35207\include\utility

; 774  :     _Val         = static_cast<_Other&&>(_New_val);

  001d6	c7 45 dc 00 00
	00 00		 mov	 DWORD PTR $T4[ebp+4], 0
; File C:\Program Files\Microsoft Visual Studio\2022\Professional\VC\Tools\MSVC\14.44.35207\include\xtree

; 830  :         _Alnode_traits::construct(this->_Al, _STD addressof(this->_Ptr->_Myval), _STD forward<_Valtys>(_Vals)...);

  001dd	89 48 10	 mov	 DWORD PTR [eax+16], ecx
  001e0	8b 4d e8	 mov	 ecx, DWORD PTR $T7[ebp]
  001e3	89 48 14	 mov	 DWORD PTR [eax+20], ecx

; 1042 :         return {_Scary->_Insert_node(_Loc._Location, _Inserted), true};

  001e6	8b cb		 mov	 ecx, ebx
  001e8	50		 push	 eax
  001e9	ff 75 d0	 push	 DWORD PTR __Loc$3[ebp+4]

; 831  :         _Construct_in_place(this->_Ptr->_Left, _Myhead);

  001ec	89 38		 mov	 DWORD PTR [eax], edi

; 1042 :         return {_Scary->_Insert_node(_Loc._Location, _Inserted), true};

  001ee	ff 75 cc	 push	 DWORD PTR __Loc$3[ebp]

; 832  :         _Construct_in_place(this->_Ptr->_Parent, _Myhead);

  001f1	89 78 04	 mov	 DWORD PTR [eax+4], edi

; 833  :         _Construct_in_place(this->_Ptr->_Right, _Myhead);

  001f4	89 78 08	 mov	 DWORD PTR [eax+8], edi

; 834  :         this->_Ptr->_Color = _Red;

  001f7	66 c7 40 0c 00
	00		 mov	 WORD PTR [eax+12], 0

; 1042 :         return {_Scary->_Insert_node(_Loc._Location, _Inserted), true};

  001fd	e8 00 00 00 00	 call	 ?_Insert_node@?$_Tree_val@U?$_Tree_simple_types@U?$pair@$$CBKJ@std@@@std@@@std@@QAEPAU?$_Tree_node@U?$pair@$$CBKJ@std@@PAX@2@U?$_Tree_id@PAU?$_Tree_node@U?$pair@$$CBKJ@std@@PAX@std@@@2@QAU32@@Z ; std::_Tree_val<std::_Tree_simple_types<std::pair<unsigned long const ,long> > >::_Insert_node
$LN106@Restore:
; File C:\IAGOS\server\v18\Source\Source\DatabaseServer\couplehelper.cpp

; 49   : 	while( pQuery->Fetch() )

  00202	8b ce		 mov	 ecx, esi
  00204	e8 00 00 00 00	 call	 ?Fetch@CQuery@@QAEHXZ	; CQuery::Fetch
  00209	8b 5d f0	 mov	 ebx, DWORD PTR _this$1$[ebp]
  0020c	85 c0		 test	 eax, eax
  0020e	0f 85 3c ff ff
	ff		 jne	 $LL4@Restore
$LN5@Restore:
  00214	8b ce		 mov	 ecx, esi
  00216	e8 00 00 00 00	 call	 ??1CQuery@@QAE@XZ	; CQuery::~CQuery
  0021b	68 10 3d 00 00	 push	 15632			; 00003d10H
  00220	56		 push	 esi
  00221	e8 00 00 00 00	 call	 ??3@YAXPAXI@Z		; operator delete
  00226	83 c4 08	 add	 esp, 8
$LN142@Restore:

; 59   : }

  00229	33 c0		 xor	 eax, eax
  0022b	8b 4d f4	 mov	 ecx, DWORD PTR __$EHRec$[ebp]
  0022e	64 89 0d 00 00
	00 00		 mov	 DWORD PTR fs:0, ecx
  00235	59		 pop	 ecx
  00236	5f		 pop	 edi
  00237	5e		 pop	 esi
  00238	5b		 pop	 ebx
  00239	8b e5		 mov	 esp, ebp
  0023b	5d		 pop	 ebp
  0023c	c3		 ret	 0
$LN129@Restore:
; File C:\Program Files\Microsoft Visual Studio\2022\Professional\VC\Tools\MSVC\14.44.35207\include\xtree

; 1649 :             _Throw_tree_length_error();

  0023d	e8 00 00 00 00	 call	 ?_Throw_tree_length_error@std@@YAXXZ ; std::_Throw_tree_length_error
$LN141@Restore:
  00242	cc		 int	 3
_TEXT	ENDS
;	COMDAT text$x
text$x	SEGMENT
__unwindfunclet$?Restore@CCoupleController@@QAEHXZ$0:
  00000	6a 14		 push	 20			; 00000014H
  00002	8b 45 e8	 mov	 eax, DWORD PTR $T6[ebp]
  00005	50		 push	 eax
  00006	e8 00 00 00 00	 call	 ??3@YAXPAXI@Z		; operator delete
  0000b	83 c4 08	 add	 esp, 8
  0000e	c3		 ret	 0
__unwindfunclet$?Restore@CCoupleController@@QAEHXZ$3:
  0000f	8d 4d d8	 lea	 ecx, DWORD PTR $T4[ebp]
  00012	e9 00 00 00 00	 jmp	 ??1?$_Alloc_construct_ptr@V?$allocator@U?$_Tree_node@U?$pair@$$CBKJ@std@@PAX@std@@@std@@@std@@QAE@XZ ; std::_Alloc_construct_ptr<std::allocator<std::_Tree_node<std::pair<unsigned long const ,long>,void *> > >::~_Alloc_construct_ptr<std::allocator<std::_Tree_node<std::pair<unsigned long const ,long>,void *> > >
  00017	cc		 int	 3
  00018	cc		 int	 3
  00019	cc		 int	 3
  0001a	cc		 int	 3
  0001b	cc		 int	 3
__ehhandler$?Restore@CCoupleController@@QAEHXZ:
  0001c	90		 npad	 1
  0001d	90		 npad	 1
  0001e	8b 54 24 08	 mov	 edx, DWORD PTR [esp+8]
  00022	8d 42 0c	 lea	 eax, DWORD PTR [edx+12]
  00025	8b 4a bc	 mov	 ecx, DWORD PTR [edx-68]
  00028	33 c8		 xor	 ecx, eax
  0002a	e8 00 00 00 00	 call	 @__security_check_cookie@4
  0002f	b8 00 00 00 00	 mov	 eax, OFFSET __ehfuncinfo$?Restore@CCoupleController@@QAEHXZ
  00034	e9 00 00 00 00	 jmp	 ___CxxFrameHandler3
text$x	ENDS
?Restore@CCoupleController@@QAEHXZ ENDP			; CCoupleController::Restore
; Function compile flags: /Ogtp
; File C:\IAGOS\server\v18\Source\Source\DatabaseServer\couplehelper.cpp
;	COMDAT ??1CCoupleController@@UAE@XZ
_TEXT	SEGMENT
??1CCoupleController@@UAE@XZ PROC			; CCoupleController::~CCoupleController, COMDAT
; _this$ = ecx

; 20   : {

  00000	c7 01 00 00 00
	00		 mov	 DWORD PTR [ecx], OFFSET ??_7CCoupleController@@6B@

; 21   : }

  00006	e9 00 00 00 00	 jmp	 ??1CDbController@@UAE@XZ ; CDbController::~CDbController
??1CCoupleController@@UAE@XZ ENDP			; CCoupleController::~CCoupleController
_TEXT	ENDS
; Function compile flags: /Ogtp
; File C:\IAGOS\server\v18\Source\Source\DatabaseServer\couplehelper.cpp
;	COMDAT ??0CCoupleController@@QAE@PAVCCoupleHelper@@@Z
_TEXT	SEGMENT
_this$ = -4						; size = 4
_pHelper$ = 8						; size = 4
??0CCoupleController@@QAE@PAVCCoupleHelper@@@Z PROC	; CCoupleController::CCoupleController, COMDAT
; _this$ = ecx

; 16   : {

  00000	55		 push	 ebp
  00001	8b ec		 mov	 ebp, esp
  00003	51		 push	 ecx
  00004	56		 push	 esi
  00005	8b f1		 mov	 esi, ecx
  00007	89 75 fc	 mov	 DWORD PTR _this$[ebp], esi
  0000a	e8 00 00 00 00	 call	 ??0CDbController@@QAE@XZ ; CDbController::CDbController

; 14   : m_pHelper( pHelper ),

  0000f	8b 45 08	 mov	 eax, DWORD PTR _pHelper$[ebp]
  00012	89 46 14	 mov	 DWORD PTR [esi+20], eax

; 17   : }

  00015	8b c6		 mov	 eax, esi
  00017	c7 06 00 00 00
	00		 mov	 DWORD PTR [esi], OFFSET ??_7CCoupleController@@6B@
  0001d	5e		 pop	 esi
  0001e	8b e5		 mov	 esp, ebp
  00020	5d		 pop	 ebp
  00021	c2 04 00	 ret	 4
??0CCoupleController@@QAE@PAVCCoupleHelper@@@Z ENDP	; CCoupleController::CCoupleController
_TEXT	ENDS
; Function compile flags: /Ogtp
; File C:\Program Files\Microsoft Visual Studio\2022\Professional\VC\Tools\MSVC\14.44.35207\include\xmemory
;	COMDAT ??$_Allocate_manually_vector_aligned@U_Default_allocate_traits@std@@@std@@YAPAXI@Z
_TEXT	SEGMENT
__Bytes$ = 8						; size = 4
??$_Allocate_manually_vector_aligned@U_Default_allocate_traits@std@@@std@@YAPAXI@Z PROC ; std::_Allocate_manually_vector_aligned<std::_Default_allocate_traits>, COMDAT

; 182  : __declspec(allocator) void* _Allocate_manually_vector_aligned(const size_t _Bytes) {

  00000	55		 push	 ebp
  00001	8b ec		 mov	 ebp, esp

; 183  :     // allocate _Bytes manually aligned to at least _Big_allocation_alignment
; 184  :     const size_t _Block_size = _Non_user_size + _Bytes;

  00003	8b 45 08	 mov	 eax, DWORD PTR __Bytes$[ebp]
  00006	8d 48 23	 lea	 ecx, DWORD PTR [eax+35]

; 185  :     if (_Block_size <= _Bytes) {

  00009	3b c8		 cmp	 ecx, eax
  0000b	0f 86 00 00 00
	00		 jbe	 ?_Throw_bad_array_new_length@std@@YAXXZ ; std::_Throw_bad_array_new_length

; 136  :         return ::operator new(_Bytes);

  00011	51		 push	 ecx
  00012	e8 00 00 00 00	 call	 ??2@YAPAXI@Z		; operator new

; 186  :         _Throw_bad_array_new_length(); // add overflow
; 187  :     }
; 188  : 
; 189  :     const uintptr_t _Ptr_container = reinterpret_cast<uintptr_t>(_Traits::_Allocate(_Block_size));

  00017	8b c8		 mov	 ecx, eax

; 136  :         return ::operator new(_Bytes);

  00019	83 c4 04	 add	 esp, 4

; 190  :     _STL_VERIFY(_Ptr_container != 0, "invalid argument"); // validate even in release since we're doing p[-1]

  0001c	85 c9		 test	 ecx, ecx
  0001e	74 0b		 je	 SHORT $LN9@Allocate_m

; 191  :     void* const _Ptr = reinterpret_cast<void*>((_Ptr_container + _Non_user_size) & ~(_Big_allocation_alignment - 1));

  00020	8d 41 23	 lea	 eax, DWORD PTR [ecx+35]
  00023	83 e0 e0	 and	 eax, -32		; ffffffe0H

; 192  :     static_cast<uintptr_t*>(_Ptr)[-1] = _Ptr_container;

  00026	89 48 fc	 mov	 DWORD PTR [eax-4], ecx

; 193  : 
; 194  : #ifdef _DEBUG
; 195  :     static_cast<uintptr_t*>(_Ptr)[-2] = _Big_allocation_sentinel;
; 196  : #endif // defined(_DEBUG)
; 197  :     return _Ptr;
; 198  : }

  00029	5d		 pop	 ebp
  0002a	c3		 ret	 0
$LN9@Allocate_m:

; 190  :     _STL_VERIFY(_Ptr_container != 0, "invalid argument"); // validate even in release since we're doing p[-1]

  0002b	6a 00		 push	 0
  0002d	6a 00		 push	 0
  0002f	6a 00		 push	 0
  00031	6a 00		 push	 0
  00033	6a 00		 push	 0
  00035	e8 00 00 00 00	 call	 __invoke_watson
$LN7@Allocate_m:
  0003a	cc		 int	 3
??$_Allocate_manually_vector_aligned@U_Default_allocate_traits@std@@@std@@YAPAXI@Z ENDP ; std::_Allocate_manually_vector_aligned<std::_Default_allocate_traits>
_TEXT	ENDS
; Function compile flags: /Ogtp
; File C:\IAGOS\server\v18\Source\Source\_Network\Mcl\Include\CMclAutoLock.h
; File C:\IAGOS\server\v18\Source\Source\_Network\Mcl\Include\CMclCritSec.h
; File C:\IAGOS\server\v18\Source\Source\_Network\Mcl\Include\CMclAutoLock.h
;	COMDAT ??1CMclAutoLock@@QAE@XZ
_TEXT	SEGMENT
??1CMclAutoLock@@QAE@XZ PROC				; CMclAutoLock::~CMclAutoLock, COMDAT
; _this$ = ecx
; File C:\IAGOS\server\v18\Source\Source\_Network\Mcl\Include\CMclCritSec.h

; 39   : 		::LeaveCriticalSection( &m_CritSec );

  00000	8b 01		 mov	 eax, DWORD PTR [ecx]
  00002	83 c0 04	 add	 eax, 4
  00005	50		 push	 eax
  00006	ff 15 00 00 00
	00		 call	 DWORD PTR __imp__LeaveCriticalSection@4
; File C:\IAGOS\server\v18\Source\Source\_Network\Mcl\Include\CMclAutoLock.h

; 29   : 	}

  0000c	c3		 ret	 0
??1CMclAutoLock@@QAE@XZ ENDP				; CMclAutoLock::~CMclAutoLock
_TEXT	ENDS
; Function compile flags: /Ogtp
; File C:\Program Files\Microsoft Visual Studio\2022\Professional\VC\Tools\MSVC\14.44.35207\include\xtree
;	COMDAT ?_Throw_tree_length_error@std@@YAXXZ
_TEXT	SEGMENT
?_Throw_tree_length_error@std@@YAXXZ PROC		; std::_Throw_tree_length_error, COMDAT

; 417  :     _Xlength_error("map/set too long");

  00000	68 00 00 00 00	 push	 OFFSET ??_C@_0BB@GCADKGJO@map?1set?5too?5long@
  00005	e8 00 00 00 00	 call	 ?_Xlength_error@std@@YAXPBD@Z ; std::_Xlength_error
$LN3@Throw_tree:
  0000a	cc		 int	 3
?_Throw_tree_length_error@std@@YAXXZ ENDP		; std::_Throw_tree_length_error
_TEXT	ENDS
; Function compile flags: /Ogtp
; File C:\Program Files\Microsoft Visual Studio\2022\Professional\VC\Tools\MSVC\14.44.35207\include\xmemory
;	COMDAT ?_Throw_bad_array_new_length@std@@YAXXZ
_TEXT	SEGMENT
$T1 = -12						; size = 12
?_Throw_bad_array_new_length@std@@YAXXZ PROC		; std::_Throw_bad_array_new_length, COMDAT

; 107  : [[noreturn]] inline void _Throw_bad_array_new_length() {

  00000	55		 push	 ebp
  00001	8b ec		 mov	 ebp, esp
  00003	83 ec 0c	 sub	 esp, 12			; 0000000cH

; 108  :     _THROW(bad_array_new_length{});

  00006	8d 4d f4	 lea	 ecx, DWORD PTR $T1[ebp]
  00009	e8 00 00 00 00	 call	 ??0bad_array_new_length@std@@QAE@XZ ; std::bad_array_new_length::bad_array_new_length
  0000e	68 00 00 00 00	 push	 OFFSET __TI3?AVbad_array_new_length@std@@
  00013	8d 45 f4	 lea	 eax, DWORD PTR $T1[ebp]
  00016	50		 push	 eax
  00017	e8 00 00 00 00	 call	 __CxxThrowException@8
$LN3@Throw_bad_:
  0001c	cc		 int	 3
?_Throw_bad_array_new_length@std@@YAXXZ ENDP		; std::_Throw_bad_array_new_length
_TEXT	ENDS
; Function compile flags: /Ogtp
; File C:\Program Files\Microsoft Visual Studio\2022\Professional\VC\Tools\MSVC\14.44.35207\include\vcruntime_exception.h
;	COMDAT ??_Gbad_array_new_length@std@@UAEPAXI@Z
_TEXT	SEGMENT
___flags$ = 8						; size = 4
??_Gbad_array_new_length@std@@UAEPAXI@Z PROC		; std::bad_array_new_length::`scalar deleting destructor', COMDAT
; _this$ = ecx
  00000	55		 push	 ebp
  00001	8b ec		 mov	 ebp, esp

; 90   :     {

  00003	56		 push	 esi
  00004	8b f1		 mov	 esi, ecx

; 91   :         __std_exception_destroy(&_Data);

  00006	8d 46 04	 lea	 eax, DWORD PTR [esi+4]
  00009	c7 06 00 00 00
	00		 mov	 DWORD PTR [esi], OFFSET ??_7exception@std@@6B@
  0000f	50		 push	 eax
  00010	e8 00 00 00 00	 call	 ___std_exception_destroy
  00015	83 c4 04	 add	 esp, 4
  00018	f6 45 08 01	 test	 BYTE PTR ___flags$[ebp], 1
  0001c	74 0b		 je	 SHORT $LN18@scalar
  0001e	6a 0c		 push	 12			; 0000000cH
  00020	56		 push	 esi
  00021	e8 00 00 00 00	 call	 ??3@YAXPAXI@Z		; operator delete
  00026	83 c4 08	 add	 esp, 8
$LN18@scalar:
  00029	8b c6		 mov	 eax, esi
  0002b	5e		 pop	 esi
  0002c	5d		 pop	 ebp
  0002d	c2 04 00	 ret	 4
??_Gbad_array_new_length@std@@UAEPAXI@Z ENDP		; std::bad_array_new_length::`scalar deleting destructor'
_TEXT	ENDS
; Function compile flags: /Ogtp
; File C:\Program Files\Microsoft Visual Studio\2022\Professional\VC\Tools\MSVC\14.44.35207\include\vcruntime_exception.h
;	COMDAT ??0bad_array_new_length@std@@QAE@ABV01@@Z
_TEXT	SEGMENT
___that$ = 8						; size = 4
??0bad_array_new_length@std@@QAE@ABV01@@Z PROC		; std::bad_array_new_length::bad_array_new_length, COMDAT
; _this$ = ecx
  00000	55		 push	 ebp
  00001	8b ec		 mov	 ebp, esp

; 73   :     {

  00003	56		 push	 esi
  00004	8b f1		 mov	 esi, ecx
  00006	0f 57 c0	 xorps	 xmm0, xmm0

; 72   :         : _Data()

  00009	8d 46 04	 lea	 eax, DWORD PTR [esi+4]

; 74   :         __std_exception_copy(&_Other._Data, &_Data);

  0000c	50		 push	 eax
  0000d	c7 06 00 00 00
	00		 mov	 DWORD PTR [esi], OFFSET ??_7exception@std@@6B@
  00013	66 0f d6 00	 movq	 QWORD PTR [eax], xmm0
  00017	8b 45 08	 mov	 eax, DWORD PTR ___that$[ebp]
  0001a	83 c0 04	 add	 eax, 4
  0001d	50		 push	 eax
  0001e	e8 00 00 00 00	 call	 ___std_exception_copy
  00023	83 c4 08	 add	 esp, 8
  00026	c7 06 00 00 00
	00		 mov	 DWORD PTR [esi], OFFSET ??_7bad_array_new_length@std@@6B@
  0002c	8b c6		 mov	 eax, esi
  0002e	5e		 pop	 esi
  0002f	5d		 pop	 ebp
  00030	c2 04 00	 ret	 4
??0bad_array_new_length@std@@QAE@ABV01@@Z ENDP		; std::bad_array_new_length::bad_array_new_length
_TEXT	ENDS
; Function compile flags: /Ogtp
; File C:\Program Files\Microsoft Visual Studio\2022\Professional\VC\Tools\MSVC\14.44.35207\include\vcruntime_exception.h
;	COMDAT ??1bad_array_new_length@std@@UAE@XZ
_TEXT	SEGMENT
??1bad_array_new_length@std@@UAE@XZ PROC		; std::bad_array_new_length::~bad_array_new_length, COMDAT
; _this$ = ecx

; 91   :         __std_exception_destroy(&_Data);

  00000	8d 41 04	 lea	 eax, DWORD PTR [ecx+4]
  00003	c7 01 00 00 00
	00		 mov	 DWORD PTR [ecx], OFFSET ??_7exception@std@@6B@
  00009	50		 push	 eax
  0000a	e8 00 00 00 00	 call	 ___std_exception_destroy
  0000f	59		 pop	 ecx
  00010	c3		 ret	 0
??1bad_array_new_length@std@@UAE@XZ ENDP		; std::bad_array_new_length::~bad_array_new_length
_TEXT	ENDS
; Function compile flags: /Ogtp
; File C:\Program Files\Microsoft Visual Studio\2022\Professional\VC\Tools\MSVC\14.44.35207\include\vcruntime_exception.h
;	COMDAT ??0bad_array_new_length@std@@QAE@XZ
_TEXT	SEGMENT
??0bad_array_new_length@std@@QAE@XZ PROC		; std::bad_array_new_length::bad_array_new_length, COMDAT
; _this$ = ecx

; 144  :     {

  00000	0f 57 c0	 xorps	 xmm0, xmm0

; 145  :     }

  00003	8b c1		 mov	 eax, ecx

; 66   :         : _Data()

  00005	66 0f d6 41 04	 movq	 QWORD PTR [ecx+4], xmm0

; 67   :     {
; 68   :         _Data._What = _Message;

  0000a	c7 41 04 00 00
	00 00		 mov	 DWORD PTR [ecx+4], OFFSET ??_C@_0BF@KINCDENJ@bad?5array?5new?5length@

; 144  :     {

  00011	c7 01 00 00 00
	00		 mov	 DWORD PTR [ecx], OFFSET ??_7bad_array_new_length@std@@6B@

; 145  :     }

  00017	c3		 ret	 0
??0bad_array_new_length@std@@QAE@XZ ENDP		; std::bad_array_new_length::bad_array_new_length
_TEXT	ENDS
; Function compile flags: /Ogtp
; File C:\Program Files\Microsoft Visual Studio\2022\Professional\VC\Tools\MSVC\14.44.35207\include\vcruntime_exception.h
;	COMDAT ??_Gbad_alloc@std@@UAEPAXI@Z
_TEXT	SEGMENT
___flags$ = 8						; size = 4
??_Gbad_alloc@std@@UAEPAXI@Z PROC			; std::bad_alloc::`scalar deleting destructor', COMDAT
; _this$ = ecx
  00000	55		 push	 ebp
  00001	8b ec		 mov	 ebp, esp

; 90   :     {

  00003	56		 push	 esi
  00004	8b f1		 mov	 esi, ecx

; 91   :         __std_exception_destroy(&_Data);

  00006	8d 46 04	 lea	 eax, DWORD PTR [esi+4]
  00009	c7 06 00 00 00
	00		 mov	 DWORD PTR [esi], OFFSET ??_7exception@std@@6B@
  0000f	50		 push	 eax
  00010	e8 00 00 00 00	 call	 ___std_exception_destroy
  00015	83 c4 04	 add	 esp, 4
  00018	f6 45 08 01	 test	 BYTE PTR ___flags$[ebp], 1
  0001c	74 0b		 je	 SHORT $LN13@scalar
  0001e	6a 0c		 push	 12			; 0000000cH
  00020	56		 push	 esi
  00021	e8 00 00 00 00	 call	 ??3@YAXPAXI@Z		; operator delete
  00026	83 c4 08	 add	 esp, 8
$LN13@scalar:
  00029	8b c6		 mov	 eax, esi
  0002b	5e		 pop	 esi
  0002c	5d		 pop	 ebp
  0002d	c2 04 00	 ret	 4
??_Gbad_alloc@std@@UAEPAXI@Z ENDP			; std::bad_alloc::`scalar deleting destructor'
_TEXT	ENDS
; Function compile flags: /Ogtp
; File C:\Program Files\Microsoft Visual Studio\2022\Professional\VC\Tools\MSVC\14.44.35207\include\vcruntime_exception.h
;	COMDAT ??0bad_alloc@std@@QAE@ABV01@@Z
_TEXT	SEGMENT
___that$ = 8						; size = 4
??0bad_alloc@std@@QAE@ABV01@@Z PROC			; std::bad_alloc::bad_alloc, COMDAT
; _this$ = ecx
  00000	55		 push	 ebp
  00001	8b ec		 mov	 ebp, esp

; 73   :     {

  00003	56		 push	 esi
  00004	8b f1		 mov	 esi, ecx
  00006	0f 57 c0	 xorps	 xmm0, xmm0

; 72   :         : _Data()

  00009	8d 46 04	 lea	 eax, DWORD PTR [esi+4]

; 74   :         __std_exception_copy(&_Other._Data, &_Data);

  0000c	50		 push	 eax
  0000d	c7 06 00 00 00
	00		 mov	 DWORD PTR [esi], OFFSET ??_7exception@std@@6B@
  00013	66 0f d6 00	 movq	 QWORD PTR [eax], xmm0
  00017	8b 45 08	 mov	 eax, DWORD PTR ___that$[ebp]
  0001a	83 c0 04	 add	 eax, 4
  0001d	50		 push	 eax
  0001e	e8 00 00 00 00	 call	 ___std_exception_copy
  00023	83 c4 08	 add	 esp, 8
  00026	c7 06 00 00 00
	00		 mov	 DWORD PTR [esi], OFFSET ??_7bad_alloc@std@@6B@
  0002c	8b c6		 mov	 eax, esi
  0002e	5e		 pop	 esi
  0002f	5d		 pop	 ebp
  00030	c2 04 00	 ret	 4
??0bad_alloc@std@@QAE@ABV01@@Z ENDP			; std::bad_alloc::bad_alloc
_TEXT	ENDS
; Function compile flags: /Ogtp
; File C:\Program Files\Microsoft Visual Studio\2022\Professional\VC\Tools\MSVC\14.44.35207\include\vcruntime_exception.h
;	COMDAT ??_Gexception@std@@UAEPAXI@Z
_TEXT	SEGMENT
___flags$ = 8						; size = 4
??_Gexception@std@@UAEPAXI@Z PROC			; std::exception::`scalar deleting destructor', COMDAT
; _this$ = ecx
  00000	55		 push	 ebp
  00001	8b ec		 mov	 ebp, esp

; 90   :     {

  00003	56		 push	 esi
  00004	8b f1		 mov	 esi, ecx

; 91   :         __std_exception_destroy(&_Data);

  00006	8d 46 04	 lea	 eax, DWORD PTR [esi+4]
  00009	c7 06 00 00 00
	00		 mov	 DWORD PTR [esi], OFFSET ??_7exception@std@@6B@
  0000f	50		 push	 eax
  00010	e8 00 00 00 00	 call	 ___std_exception_destroy
  00015	83 c4 04	 add	 esp, 4
  00018	f6 45 08 01	 test	 BYTE PTR ___flags$[ebp], 1
  0001c	74 0b		 je	 SHORT $LN8@scalar
  0001e	6a 0c		 push	 12			; 0000000cH
  00020	56		 push	 esi
  00021	e8 00 00 00 00	 call	 ??3@YAXPAXI@Z		; operator delete
  00026	83 c4 08	 add	 esp, 8
$LN8@scalar:
  00029	8b c6		 mov	 eax, esi
  0002b	5e		 pop	 esi
  0002c	5d		 pop	 ebp
  0002d	c2 04 00	 ret	 4
??_Gexception@std@@UAEPAXI@Z ENDP			; std::exception::`scalar deleting destructor'
_TEXT	ENDS
; Function compile flags: /Ogtp
