; Listing generated by Microsoft (R) Optimizing Compiler Version 19.44.35225.0 

	TITLE	C:\IAGOS\server\v18\Source\Output\DatabaseServer\Release\couple.obj
	.686P
	.XMM
	include listing.inc
	.model	flat

INCLUDELIB LIBCMT
INCLUDELIB OLDNAMES

PUBLIC	?__empty_global_delete@@YAXPAX@Z		; __empty_global_delete
PUBLIC	?__empty_global_delete@@YAXPAXI@Z		; __empty_global_delete
PUBLIC	??0exception@std@@QAE@ABV01@@Z			; std::exception::exception
PUBLIC	??1exception@std@@UAE@XZ			; std::exception::~exception
PUBLIC	?what@exception@std@@UBEPBDXZ			; std::exception::what
PUBLIC	??_Gexception@std@@UAEPAXI@Z			; std::exception::`scalar deleting destructor'
PUBLIC	??0bad_alloc@std@@QAE@ABV01@@Z			; std::bad_alloc::bad_alloc
PUBLIC	??_Gbad_alloc@std@@UAEPAXI@Z			; std::bad_alloc::`scalar deleting destructor'
PUBLIC	??0bad_array_new_length@std@@QAE@XZ		; std::bad_array_new_length::bad_array_new_length
PUBLIC	??1bad_array_new_length@std@@UAE@XZ		; std::bad_array_new_length::~bad_array_new_length
PUBLIC	??0bad_array_new_length@std@@QAE@ABV01@@Z	; std::bad_array_new_length::bad_array_new_length
PUBLIC	??_Gbad_array_new_length@std@@UAEPAXI@Z		; std::bad_array_new_length::`scalar deleting destructor'
PUBLIC	?_Throw_bad_array_new_length@std@@YAXXZ		; std::_Throw_bad_array_new_length
PUBLIC	?_Throw_tree_length_error@std@@YAXXZ		; std::_Throw_tree_length_error
PUBLIC	??$_Allocate_manually_vector_aligned@U_Default_allocate_traits@std@@@std@@YAPAXI@Z ; std::_Allocate_manually_vector_aligned<std::_Default_allocate_traits>
PUBLIC	?Test@CCoupleTestCase@@UAEHXZ			; CCoupleTestCase::Test
PUBLIC	??0CCouple@@QAE@XZ				; CCouple::CCouple
PUBLIC	??0CCouple@@QAE@KK@Z				; CCouple::CCouple
PUBLIC	??1CCouple@@UAE@XZ				; CCouple::~CCouple
PUBLIC	?AddExperience@CCouple@@QAEHH@Z			; CCouple::AddExperience
PUBLIC	?GetLevel@CCouple@@QAEHH@Z			; CCouple::GetLevel
PUBLIC	?GetPartner@CCouple@@QAEKK@Z			; CCouple::GetPartner
PUBLIC	?OnTimer@CCouple@@QAEXXZ			; CCouple::OnTimer
PUBLIC	?Serialize@CCouple@@QAEXAAVCAr@@@Z		; CCouple::Serialize
PUBLIC	??_GCCouple@@UAEPAXI@Z				; CCouple::`scalar deleting destructor'
PUBLIC	??0CCoupleProperty@@QAE@XZ			; CCoupleProperty::CCoupleProperty
PUBLIC	??1CCoupleProperty@@UAE@XZ			; CCoupleProperty::~CCoupleProperty
PUBLIC	?Instance@CCoupleProperty@@SAPAV1@XZ		; CCoupleProperty::Instance
PUBLIC	?GetItems@CCoupleProperty@@QAEAAV?$vector@U_COUPLE_ITEM@@V?$allocator@U_COUPLE_ITEM@@@std@@@std@@H@Z ; CCoupleProperty::GetItems
PUBLIC	?GetSkill@CCoupleProperty@@QAEAAV?$vector@HV?$allocator@H@std@@@std@@H@Z ; CCoupleProperty::GetSkill
PUBLIC	?GetLevel@CCoupleProperty@@QAEHH@Z		; CCoupleProperty::GetLevel
PUBLIC	?Initialize@CCoupleProperty@@QAEHXZ		; CCoupleProperty::Initialize
PUBLIC	?GetTotalExperience@CCoupleProperty@@QAEHH@Z	; CCoupleProperty::GetTotalExperience
PUBLIC	?GetExperienceRequired@CCoupleProperty@@QAEHH@Z	; CCoupleProperty::GetExperienceRequired
PUBLIC	?GetExperienceRate@CCoupleProperty@@QAEMHH@Z	; CCoupleProperty::GetExperienceRate
PUBLIC	?LoadLevel@CCoupleProperty@@AAEXAAVCScript@@@Z	; CCoupleProperty::LoadLevel
PUBLIC	?LoadItem@CCoupleProperty@@AAEXAAVCScript@@@Z	; CCoupleProperty::LoadItem
PUBLIC	?LoadSkillKind@CCoupleProperty@@AAEXAAVCScript@@@Z ; CCoupleProperty::LoadSkillKind
PUBLIC	?LoadSkillLevel@CCoupleProperty@@AAEXAAVCScript@@@Z ; CCoupleProperty::LoadSkillLevel
PUBLIC	?AddItem@CCoupleProperty@@AAEXHABU_COUPLE_ITEM@@@Z ; CCoupleProperty::AddItem
PUBLIC	?deallocate@?$allocator@H@std@@QAEXQAHI@Z	; std::allocator<int>::deallocate
PUBLIC	??1?$vector@HV?$allocator@H@std@@@std@@QAE@XZ	; std::vector<int,std::allocator<int> >::~vector<int,std::allocator<int> >
PUBLIC	?_Xlength@?$vector@HV?$allocator@H@std@@@std@@CAXXZ ; std::vector<int,std::allocator<int> >::_Xlength
PUBLIC	??1?$vector@V?$vector@U_COUPLE_ITEM@@V?$allocator@U_COUPLE_ITEM@@@std@@@std@@V?$allocator@V?$vector@U_COUPLE_ITEM@@V?$allocator@U_COUPLE_ITEM@@@std@@@std@@@2@@std@@QAE@XZ ; std::vector<std::vector<_COUPLE_ITEM,std::allocator<_COUPLE_ITEM> >,std::allocator<std::vector<_COUPLE_ITEM,std::allocator<_COUPLE_ITEM> > > >::~vector<std::vector<_COUPLE_ITEM,std::allocator<_COUPLE_ITEM> >,std::allocator<std::vector<_COUPLE_ITEM,std::allocator<_COUPLE_ITEM> > > >
PUBLIC	?_Xlength@?$vector@V?$vector@U_COUPLE_ITEM@@V?$allocator@U_COUPLE_ITEM@@@std@@@std@@V?$allocator@V?$vector@U_COUPLE_ITEM@@V?$allocator@U_COUPLE_ITEM@@@std@@@std@@@2@@std@@CAXXZ ; std::vector<std::vector<_COUPLE_ITEM,std::allocator<_COUPLE_ITEM> >,std::allocator<std::vector<_COUPLE_ITEM,std::allocator<_COUPLE_ITEM> > > >::_Xlength
PUBLIC	??1?$vector@V?$vector@HV?$allocator@H@std@@@std@@V?$allocator@V?$vector@HV?$allocator@H@std@@@std@@@2@@std@@QAE@XZ ; std::vector<std::vector<int,std::allocator<int> >,std::allocator<std::vector<int,std::allocator<int> > > >::~vector<std::vector<int,std::allocator<int> >,std::allocator<std::vector<int,std::allocator<int> > > >
PUBLIC	?_Xlength@?$vector@V?$vector@HV?$allocator@H@std@@@std@@V?$allocator@V?$vector@HV?$allocator@H@std@@@std@@@2@@std@@CAXXZ ; std::vector<std::vector<int,std::allocator<int> >,std::allocator<std::vector<int,std::allocator<int> > > >::_Xlength
PUBLIC	??_GCCoupleProperty@@UAEPAXI@Z			; CCoupleProperty::`scalar deleting destructor'
PUBLIC	??0CCoupleMgr@@QAE@XZ				; CCoupleMgr::CCoupleMgr
PUBLIC	??1CCoupleMgr@@UAE@XZ				; CCoupleMgr::~CCoupleMgr
PUBLIC	?Couple@CCoupleMgr@@QAEXKK@Z			; CCoupleMgr::Couple
PUBLIC	?Couple@CCoupleMgr@@QAEXPAVCCouple@@@Z		; CCoupleMgr::Couple
PUBLIC	?Decouple@CCoupleMgr@@QAEHK@Z			; CCoupleMgr::Decouple
PUBLIC	?GetCouple@CCoupleMgr@@QAEPAVCCouple@@K@Z	; CCoupleMgr::GetCouple
PUBLIC	?Serialize@CCoupleMgr@@QAEXAAVCAr@@@Z		; CCoupleMgr::Serialize
PUBLIC	?OnTimer@CCoupleMgr@@QAEXXZ			; CCoupleMgr::OnTimer
PUBLIC	?Clear@CCoupleMgr@@AAEXXZ			; CCoupleMgr::Clear
PUBLIC	??1?$_Tree@V?$_Tmap_traits@KPAVCCouple@@U?$less@K@std@@V?$allocator@U?$pair@$$CBKPAVCCouple@@@std@@@3@$0A@@std@@@std@@QAE@XZ ; std::_Tree<std::_Tmap_traits<unsigned long,CCouple *,std::less<unsigned long>,std::allocator<std::pair<unsigned long const ,CCouple *> >,0> >::~_Tree<std::_Tmap_traits<unsigned long,CCouple *,std::less<unsigned long>,std::allocator<std::pair<unsigned long const ,CCouple *> >,0> >
PUBLIC	?erase@?$_Tree@V?$_Tmap_traits@KPAVCCouple@@U?$less@K@std@@V?$allocator@U?$pair@$$CBKPAVCCouple@@@std@@@3@$0A@@std@@@std@@QAEIABK@Z ; std::_Tree<std::_Tmap_traits<unsigned long,CCouple *,std::less<unsigned long>,std::allocator<std::pair<unsigned long const ,CCouple *> >,0> >::erase
PUBLIC	?clear@?$_Tree@V?$_Tmap_traits@KPAVCCouple@@U?$less@K@std@@V?$allocator@U?$pair@$$CBKPAVCCouple@@@std@@@3@$0A@@std@@@std@@QAEXXZ ; std::_Tree<std::_Tmap_traits<unsigned long,CCouple *,std::less<unsigned long>,std::allocator<std::pair<unsigned long const ,CCouple *> >,0> >::clear
PUBLIC	?_Lrotate@?$_Tree_val@U?$_Tree_simple_types@U?$pair@$$CBKPAVCCouple@@@std@@@std@@@std@@QAEXPAU?$_Tree_node@U?$pair@$$CBKPAVCCouple@@@std@@PAX@2@@Z ; std::_Tree_val<std::_Tree_simple_types<std::pair<unsigned long const ,CCouple *> > >::_Lrotate
PUBLIC	?_Rrotate@?$_Tree_val@U?$_Tree_simple_types@U?$pair@$$CBKPAVCCouple@@@std@@@std@@@std@@QAEXPAU?$_Tree_node@U?$pair@$$CBKPAVCCouple@@@std@@PAX@2@@Z ; std::_Tree_val<std::_Tree_simple_types<std::pair<unsigned long const ,CCouple *> > >::_Rrotate
PUBLIC	?_Extract@?$_Tree_val@U?$_Tree_simple_types@U?$pair@$$CBKPAVCCouple@@@std@@@std@@@std@@QAEPAU?$_Tree_node@U?$pair@$$CBKPAVCCouple@@@std@@PAX@2@V?$_Tree_unchecked_const_iterator@V?$_Tree_val@U?$_Tree_simple_types@U?$pair@$$CBKPAVCCouple@@@std@@@std@@@std@@U_Iterator_base0@2@@2@@Z ; std::_Tree_val<std::_Tree_simple_types<std::pair<unsigned long const ,CCouple *> > >::_Extract
PUBLIC	?_Insert_node@?$_Tree_val@U?$_Tree_simple_types@U?$pair@$$CBKPAVCCouple@@@std@@@std@@@std@@QAEPAU?$_Tree_node@U?$pair@$$CBKPAVCCouple@@@std@@PAX@2@U?$_Tree_id@PAU?$_Tree_node@U?$pair@$$CBKPAVCCouple@@@std@@PAX@std@@@2@QAU32@@Z ; std::_Tree_val<std::_Tree_simple_types<std::pair<unsigned long const ,CCouple *> > >::_Insert_node
PUBLIC	??1?$vector@PAVCCouple@@V?$allocator@PAVCCouple@@@std@@@std@@QAE@XZ ; std::vector<CCouple *,std::allocator<CCouple *> >::~vector<CCouple *,std::allocator<CCouple *> >
PUBLIC	?_Xlength@?$vector@PAVCCouple@@V?$allocator@PAVCCouple@@@std@@@std@@CAXXZ ; std::vector<CCouple *,std::allocator<CCouple *> >::_Xlength
PUBLIC	??_GCCoupleMgr@@UAEPAXI@Z			; CCoupleMgr::`scalar deleting destructor'
PUBLIC	??$?6H@CAr@@QAEAAV0@ABH@Z			; CAr::operator<<<int>
PUBLIC	??$?6K@CAr@@QAEAAV0@ABK@Z			; CAr::operator<<<unsigned long>
PUBLIC	??$?5H@CAr@@QAEAAV0@AAH@Z			; CAr::operator>><int>
PUBLIC	??$?5K@CAr@@QAEAAV0@AAK@Z			; CAr::operator>><unsigned long>
PUBLIC	??E?$_Tree_unchecked_const_iterator@V?$_Tree_val@U?$_Tree_simple_types@U?$pair@$$CBKPAVCCouple@@@std@@@std@@@std@@U_Iterator_base0@2@@std@@QAEAAV01@XZ ; std::_Tree_unchecked_const_iterator<std::_Tree_val<std::_Tree_simple_types<std::pair<unsigned long const ,CCouple *> > >,std::_Iterator_base0>::operator++
PUBLIC	??$?6I@CAr@@QAEAAV0@ABI@Z			; CAr::operator<<<unsigned int>
PUBLIC	??$?5I@CAr@@QAEAAV0@AAI@Z			; CAr::operator>><unsigned int>
PUBLIC	??$insert@$0A@$0A@@?$_Tree@V?$_Tmap_traits@KPAVCCouple@@U?$less@K@std@@V?$allocator@U?$pair@$$CBKPAVCCouple@@@std@@@3@$0A@@std@@@std@@QAE?AU?$pair@V?$_Tree_iterator@V?$_Tree_val@U?$_Tree_simple_types@U?$pair@$$CBKPAVCCouple@@@std@@@std@@@std@@@std@@_N@1@$$QAU?$pair@$$CBKPAVCCouple@@@1@@Z ; std::_Tree<std::_Tmap_traits<unsigned long,CCouple *,std::less<unsigned long>,std::allocator<std::pair<unsigned long const ,CCouple *> >,0> >::insert<0,0>
PUBLIC	?_Xlength@?$vector@U_COUPLE_ITEM@@V?$allocator@U_COUPLE_ITEM@@@std@@@std@@CAXXZ ; std::vector<_COUPLE_ITEM,std::allocator<_COUPLE_ITEM> >::_Xlength
PUBLIC	??$_Erase_tree@V?$allocator@U?$_Tree_node@U?$pair@$$CBKPAVCCouple@@@std@@PAX@std@@@std@@@?$_Tree_val@U?$_Tree_simple_types@U?$pair@$$CBKPAVCCouple@@@std@@@std@@@std@@QAEXAAV?$allocator@U?$_Tree_node@U?$pair@$$CBKPAVCCouple@@@std@@PAX@std@@@1@PAU?$_Tree_node@U?$pair@$$CBKPAVCCouple@@@std@@PAX@1@@Z ; std::_Tree_val<std::_Tree_simple_types<std::pair<unsigned long const ,CCouple *> > >::_Erase_tree<std::allocator<std::_Tree_node<std::pair<unsigned long const ,CCouple *>,void *> > >
PUBLIC	??$_Destroy_range@V?$allocator@V?$vector@U_COUPLE_ITEM@@V?$allocator@U_COUPLE_ITEM@@@std@@@std@@@std@@@std@@YAXPAV?$vector@U_COUPLE_ITEM@@V?$allocator@U_COUPLE_ITEM@@@std@@@0@QAV10@AAV?$allocator@V?$vector@U_COUPLE_ITEM@@V?$allocator@U_COUPLE_ITEM@@@std@@@std@@@0@@Z ; std::_Destroy_range<std::allocator<std::vector<_COUPLE_ITEM,std::allocator<_COUPLE_ITEM> > > >
PUBLIC	??$_Find_lower_bound@K@?$_Tree@V?$_Tmap_traits@KPAVCCouple@@U?$less@K@std@@V?$allocator@U?$pair@$$CBKPAVCCouple@@@std@@@3@$0A@@std@@@std@@IBE?AU?$_Tree_find_result@PAU?$_Tree_node@U?$pair@$$CBKPAVCCouple@@@std@@PAX@std@@@1@ABK@Z ; std::_Tree<std::_Tmap_traits<unsigned long,CCouple *,std::less<unsigned long>,std::allocator<std::pair<unsigned long const ,CCouple *> >,0> >::_Find_lower_bound<unsigned long>
PUBLIC	??1?$_Alloc_construct_ptr@V?$allocator@U?$_Tree_node@U?$pair@$$CBKPAVCCouple@@@std@@PAX@std@@@std@@@std@@QAE@XZ ; std::_Alloc_construct_ptr<std::allocator<std::_Tree_node<std::pair<unsigned long const ,CCouple *>,void *> > >::~_Alloc_construct_ptr<std::allocator<std::_Tree_node<std::pair<unsigned long const ,CCouple *>,void *> > >
PUBLIC	??$_Copy_memmove_n@PAHPAH@std@@YAPAHPAHI0@Z	; std::_Copy_memmove_n<int *,int *>
PUBLIC	??$_Copy_memmove@PAPAVCCouple@@PAPAV1@@std@@YAPAPAVCCouple@@PAPAV1@00@Z ; std::_Copy_memmove<CCouple * *,CCouple * *>
PUBLIC	??$_Emplace_reallocate@ABQAVCCouple@@@?$vector@PAVCCouple@@V?$allocator@PAVCCouple@@@std@@@std@@AAEPAPAVCCouple@@QAPAV2@ABQAV2@@Z ; std::vector<CCouple *,std::allocator<CCouple *> >::_Emplace_reallocate<CCouple * const &>
PUBLIC	??$_Resize_reallocate@U_Value_init_tag@std@@@?$vector@V?$vector@HV?$allocator@H@std@@@std@@V?$allocator@V?$vector@HV?$allocator@H@std@@@std@@@2@@std@@AAEXIABU_Value_init_tag@1@@Z ; std::vector<std::vector<int,std::allocator<int> >,std::allocator<std::vector<int,std::allocator<int> > > >::_Resize_reallocate<std::_Value_init_tag>
PUBLIC	??$_Uninitialized_value_construct_n@V?$allocator@V?$vector@HV?$allocator@H@std@@@std@@@std@@@std@@YAPAV?$vector@HV?$allocator@H@std@@@0@PAV10@IAAV?$allocator@V?$vector@HV?$allocator@H@std@@@std@@@0@@Z ; std::_Uninitialized_value_construct_n<std::allocator<std::vector<int,std::allocator<int> > > >
PUBLIC	??$_Resize_reallocate@U_Value_init_tag@std@@@?$vector@V?$vector@U_COUPLE_ITEM@@V?$allocator@U_COUPLE_ITEM@@@std@@@std@@V?$allocator@V?$vector@U_COUPLE_ITEM@@V?$allocator@U_COUPLE_ITEM@@@std@@@std@@@2@@std@@AAEXIABU_Value_init_tag@1@@Z ; std::vector<std::vector<_COUPLE_ITEM,std::allocator<_COUPLE_ITEM> >,std::allocator<std::vector<_COUPLE_ITEM,std::allocator<_COUPLE_ITEM> > > >::_Resize_reallocate<std::_Value_init_tag>
PUBLIC	??$_Uninitialized_value_construct_n@V?$allocator@V?$vector@U_COUPLE_ITEM@@V?$allocator@U_COUPLE_ITEM@@@std@@@std@@@std@@@std@@YAPAV?$vector@U_COUPLE_ITEM@@V?$allocator@U_COUPLE_ITEM@@@std@@@0@PAV10@IAAV?$allocator@V?$vector@U_COUPLE_ITEM@@V?$allocator@U_COUPLE_ITEM@@@std@@@std@@@0@@Z ; std::_Uninitialized_value_construct_n<std::allocator<std::vector<_COUPLE_ITEM,std::allocator<_COUPLE_ITEM> > > >
PUBLIC	??$_Emplace_reallocate@ABU_COUPLE_ITEM@@@?$vector@U_COUPLE_ITEM@@V?$allocator@U_COUPLE_ITEM@@@std@@@std@@AAEPAU_COUPLE_ITEM@@QAU2@ABU2@@Z ; std::vector<_COUPLE_ITEM,std::allocator<_COUPLE_ITEM> >::_Emplace_reallocate<_COUPLE_ITEM const &>
PUBLIC	??$_Emplace_reallocate@ABH@?$vector@HV?$allocator@H@std@@@std@@AAEPAHQAHABH@Z ; std::vector<int,std::allocator<int> >::_Emplace_reallocate<int const &>
PUBLIC	??$_Copy_memmove_tail@PAH@std@@YAPAHQBDQAHII@Z	; std::_Copy_memmove_tail<int *>
PUBLIC	??$_Copy_memmove_tail@PAPAVCCouple@@@std@@YAPAPAVCCouple@@QBDQAPAV1@II@Z ; std::_Copy_memmove_tail<CCouple * *>
PUBLIC	??$_Copy_memmove@PAU_COUPLE_ITEM@@PAU1@@std@@YAPAU_COUPLE_ITEM@@PAU1@00@Z ; std::_Copy_memmove<_COUPLE_ITEM *,_COUPLE_ITEM *>
PUBLIC	??$_Copy_memmove@PAHPAH@std@@YAPAHPAH00@Z	; std::_Copy_memmove<int *,int *>
PUBLIC	??$_Copy_memmove_tail@PAU_COUPLE_ITEM@@@std@@YAPAU_COUPLE_ITEM@@QBDQAU1@II@Z ; std::_Copy_memmove_tail<_COUPLE_ITEM *>
PUBLIC	??_7exception@std@@6B@				; std::exception::`vftable'
PUBLIC	??_C@_0BC@EOODALEL@Unknown?5exception@		; `string'
PUBLIC	??_7bad_alloc@std@@6B@				; std::bad_alloc::`vftable'
PUBLIC	??_7bad_array_new_length@std@@6B@		; std::bad_array_new_length::`vftable'
PUBLIC	??_C@_0BF@KINCDENJ@bad?5array?5new?5length@	; `string'
PUBLIC	??_R0?AVexception@std@@@8			; std::exception `RTTI Type Descriptor'
PUBLIC	__CT??_R0?AVexception@std@@@8??0exception@std@@QAE@ABV01@@Z12
PUBLIC	__TI3?AVbad_array_new_length@std@@
PUBLIC	__CTA3?AVbad_array_new_length@std@@
PUBLIC	??_R0?AVbad_array_new_length@std@@@8		; std::bad_array_new_length `RTTI Type Descriptor'
PUBLIC	__CT??_R0?AVbad_array_new_length@std@@@8??0bad_array_new_length@std@@QAE@ABV01@@Z12
PUBLIC	??_R0?AVbad_alloc@std@@@8			; std::bad_alloc `RTTI Type Descriptor'
PUBLIC	__CT??_R0?AVbad_alloc@std@@@8??0bad_alloc@std@@QAE@ABV01@@Z12
PUBLIC	??_C@_0BB@GCADKGJO@map?1set?5too?5long@		; `string'
PUBLIC	??_C@_0BA@FOIKENOD@vector?5too?5long@		; `string'
PUBLIC	??_R4exception@std@@6B@				; std::exception::`RTTI Complete Object Locator'
PUBLIC	??_R3exception@std@@8				; std::exception::`RTTI Class Hierarchy Descriptor'
PUBLIC	??_R2exception@std@@8				; std::exception::`RTTI Base Class Array'
PUBLIC	??_R1A@?0A@EA@exception@std@@8			; std::exception::`RTTI Base Class Descriptor at (0,-1,0,64)'
PUBLIC	??_R4bad_array_new_length@std@@6B@		; std::bad_array_new_length::`RTTI Complete Object Locator'
PUBLIC	??_R3bad_array_new_length@std@@8		; std::bad_array_new_length::`RTTI Class Hierarchy Descriptor'
PUBLIC	??_R2bad_array_new_length@std@@8		; std::bad_array_new_length::`RTTI Base Class Array'
PUBLIC	??_R1A@?0A@EA@bad_array_new_length@std@@8	; std::bad_array_new_length::`RTTI Base Class Descriptor at (0,-1,0,64)'
PUBLIC	??_R1A@?0A@EA@bad_alloc@std@@8			; std::bad_alloc::`RTTI Base Class Descriptor at (0,-1,0,64)'
PUBLIC	??_R3bad_alloc@std@@8				; std::bad_alloc::`RTTI Class Hierarchy Descriptor'
PUBLIC	??_R2bad_alloc@std@@8				; std::bad_alloc::`RTTI Base Class Array'
PUBLIC	??_R4bad_alloc@std@@6B@				; std::bad_alloc::`RTTI Complete Object Locator'
PUBLIC	??_7CCouple@@6B@				; CCouple::`vftable'
PUBLIC	??_7CCoupleProperty@@6B@			; CCoupleProperty::`vftable'
PUBLIC	??_7CCoupleMgr@@6B@				; CCoupleMgr::`vftable'
PUBLIC	??_C@_0L@ELKPLJAH@couple?4inc@			; `string'
PUBLIC	??_C@_05KOHFLOFG@Level@				; `string'
PUBLIC	??_C@_04BGCMBJDA@Item@				; `string'
PUBLIC	??_C@_09EGDBHOMD@SkillKind@			; `string'
PUBLIC	??_C@_0L@IHPJEOCB@SkillLevel@			; `string'
PUBLIC	??_R4CCouple@@6B@				; CCouple::`RTTI Complete Object Locator'
PUBLIC	??_R0?AVCCouple@@@8				; CCouple `RTTI Type Descriptor'
PUBLIC	??_R3CCouple@@8					; CCouple::`RTTI Class Hierarchy Descriptor'
PUBLIC	??_R2CCouple@@8					; CCouple::`RTTI Base Class Array'
PUBLIC	??_R1A@?0A@EA@CCouple@@8			; CCouple::`RTTI Base Class Descriptor at (0,-1,0,64)'
PUBLIC	??_R4CCoupleProperty@@6B@			; CCoupleProperty::`RTTI Complete Object Locator'
PUBLIC	??_R0?AVCCoupleProperty@@@8			; CCoupleProperty `RTTI Type Descriptor'
PUBLIC	??_R3CCoupleProperty@@8				; CCoupleProperty::`RTTI Class Hierarchy Descriptor'
PUBLIC	??_R2CCoupleProperty@@8				; CCoupleProperty::`RTTI Base Class Array'
PUBLIC	??_R1A@?0A@EA@CCoupleProperty@@8		; CCoupleProperty::`RTTI Base Class Descriptor at (0,-1,0,64)'
PUBLIC	??_R4CCoupleMgr@@6B@				; CCoupleMgr::`RTTI Complete Object Locator'
PUBLIC	??_R0?AVCCoupleMgr@@@8				; CCoupleMgr `RTTI Type Descriptor'
PUBLIC	??_R3CCoupleMgr@@8				; CCoupleMgr::`RTTI Class Hierarchy Descriptor'
PUBLIC	??_R2CCoupleMgr@@8				; CCoupleMgr::`RTTI Base Class Array'
PUBLIC	??_R1A@?0A@EA@CCoupleMgr@@8			; CCoupleMgr::`RTTI Base Class Descriptor at (0,-1,0,64)'
PUBLIC	__real@00000000
EXTRN	??2@YAPAXI@Z:PROC				; operator new
EXTRN	??3@YAXPAXI@Z:PROC				; operator delete
EXTRN	_atexit:PROC
EXTRN	__Init_thread_header:PROC
EXTRN	__Init_thread_footer:PROC
EXTRN	__invoke_watson:PROC
EXTRN	__mbscmp:PROC
EXTRN	?AfxThrowMemoryException@@YGXXZ:PROC		; AfxThrowMemoryException
EXTRN	?AfxThrowOleException@@YGXJ@Z:PROC		; AfxThrowOleException
EXTRN	?_Xlength_error@std@@YAXPBD@Z:PROC		; std::_Xlength_error
EXTRN	___std_exception_copy:PROC
EXTRN	___std_exception_destroy:PROC
EXTRN	??_Eexception@std@@UAEPAXI@Z:PROC		; std::exception::`vector deleting destructor'
EXTRN	??_Ebad_alloc@std@@UAEPAXI@Z:PROC		; std::bad_alloc::`vector deleting destructor'
EXTRN	??_Ebad_array_new_length@std@@UAEPAXI@Z:PROC	; std::bad_array_new_length::`vector deleting destructor'
EXTRN	?GetNumber@CScanner@@QAEHH@Z:PROC		; CScanner::GetNumber
EXTRN	??0CScript@@QAE@H@Z:PROC			; CScript::CScript
EXTRN	??1CScript@@UAE@XZ:PROC				; CScript::~CScript
EXTRN	?Load@CScript@@QAEHPBDHH@Z:PROC			; CScript::Load
EXTRN	?GetToken@CScript@@UAEHH@Z:PROC			; CScript::GetToken
EXTRN	?CheckBuf@CAr@@QAEXI@Z:PROC			; CAr::CheckBuf
EXTRN	??_ECCouple@@UAEPAXI@Z:PROC			; CCouple::`vector deleting destructor'
EXTRN	??_ECCoupleProperty@@UAEPAXI@Z:PROC		; CCoupleProperty::`vector deleting destructor'
EXTRN	??_ECCoupleMgr@@UAEPAXI@Z:PROC			; CCoupleMgr::`vector deleting destructor'
EXTRN	@__security_check_cookie@4:PROC
EXTRN	__CxxThrowException@8:PROC
EXTRN	___CxxFrameHandler3:PROC
EXTRN	__chkstk:PROC
EXTRN	_memmove:PROC
EXTRN	__Init_thread_epoch:DWORD
EXTRN	??_7type_info@@6B@:QWORD			; type_info::`vftable'
EXTRN	___security_cookie:DWORD
EXTRN	__fltused:DWORD
EXTRN	__tls_array:DWORD
EXTRN	__tls_index:DWORD
;	COMDAT ?sCoupleProperty@?1??Instance@CCoupleProperty@@SAPAV2@XZ@4V2@A
_BSS	SEGMENT
?sCoupleProperty@?1??Instance@CCoupleProperty@@SAPAV2@XZ@4V2@A DB 034H DUP (?) ; `CCoupleProperty::Instance'::`2'::sCoupleProperty
_BSS	ENDS
;	COMDAT ?$TSS0@?1??Instance@CCoupleProperty@@SAPAV2@XZ@4HA
_BSS	SEGMENT
?$TSS0@?1??Instance@CCoupleProperty@@SAPAV2@XZ@4HA DD 01H DUP (?) ; `CCoupleProperty::Instance'::`2'::$TSS0
_BSS	ENDS
;	COMDAT __real@00000000
CONST	SEGMENT
__real@00000000 DD 000000000r			; 0
CONST	ENDS
;	COMDAT ??_R1A@?0A@EA@CCoupleMgr@@8
rdata$r	SEGMENT
??_R1A@?0A@EA@CCoupleMgr@@8 DD FLAT:??_R0?AVCCoupleMgr@@@8 ; CCoupleMgr::`RTTI Base Class Descriptor at (0,-1,0,64)'
	DD	00H
	DD	00H
	DD	0ffffffffH
	DD	00H
	DD	040H
	DD	FLAT:??_R3CCoupleMgr@@8
rdata$r	ENDS
;	COMDAT ??_R2CCoupleMgr@@8
rdata$r	SEGMENT
??_R2CCoupleMgr@@8 DD FLAT:??_R1A@?0A@EA@CCoupleMgr@@8	; CCoupleMgr::`RTTI Base Class Array'
rdata$r	ENDS
;	COMDAT ??_R3CCoupleMgr@@8
rdata$r	SEGMENT
??_R3CCoupleMgr@@8 DD 00H				; CCoupleMgr::`RTTI Class Hierarchy Descriptor'
	DD	00H
	DD	01H
	DD	FLAT:??_R2CCoupleMgr@@8
rdata$r	ENDS
;	COMDAT ??_R0?AVCCoupleMgr@@@8
data$rs	SEGMENT
??_R0?AVCCoupleMgr@@@8 DD FLAT:??_7type_info@@6B@	; CCoupleMgr `RTTI Type Descriptor'
	DD	00H
	DB	'.?AVCCoupleMgr@@', 00H
data$rs	ENDS
;	COMDAT ??_R4CCoupleMgr@@6B@
rdata$r	SEGMENT
??_R4CCoupleMgr@@6B@ DD 00H				; CCoupleMgr::`RTTI Complete Object Locator'
	DD	00H
	DD	00H
	DD	FLAT:??_R0?AVCCoupleMgr@@@8
	DD	FLAT:??_R3CCoupleMgr@@8
rdata$r	ENDS
;	COMDAT ??_R1A@?0A@EA@CCoupleProperty@@8
rdata$r	SEGMENT
??_R1A@?0A@EA@CCoupleProperty@@8 DD FLAT:??_R0?AVCCoupleProperty@@@8 ; CCoupleProperty::`RTTI Base Class Descriptor at (0,-1,0,64)'
	DD	00H
	DD	00H
	DD	0ffffffffH
	DD	00H
	DD	040H
	DD	FLAT:??_R3CCoupleProperty@@8
rdata$r	ENDS
;	COMDAT ??_R2CCoupleProperty@@8
rdata$r	SEGMENT
??_R2CCoupleProperty@@8 DD FLAT:??_R1A@?0A@EA@CCoupleProperty@@8 ; CCoupleProperty::`RTTI Base Class Array'
rdata$r	ENDS
;	COMDAT ??_R3CCoupleProperty@@8
rdata$r	SEGMENT
??_R3CCoupleProperty@@8 DD 00H				; CCoupleProperty::`RTTI Class Hierarchy Descriptor'
	DD	00H
	DD	01H
	DD	FLAT:??_R2CCoupleProperty@@8
rdata$r	ENDS
;	COMDAT ??_R0?AVCCoupleProperty@@@8
data$rs	SEGMENT
??_R0?AVCCoupleProperty@@@8 DD FLAT:??_7type_info@@6B@	; CCoupleProperty `RTTI Type Descriptor'
	DD	00H
	DB	'.?AVCCoupleProperty@@', 00H
data$rs	ENDS
;	COMDAT ??_R4CCoupleProperty@@6B@
rdata$r	SEGMENT
??_R4CCoupleProperty@@6B@ DD 00H			; CCoupleProperty::`RTTI Complete Object Locator'
	DD	00H
	DD	00H
	DD	FLAT:??_R0?AVCCoupleProperty@@@8
	DD	FLAT:??_R3CCoupleProperty@@8
rdata$r	ENDS
;	COMDAT ??_R1A@?0A@EA@CCouple@@8
rdata$r	SEGMENT
??_R1A@?0A@EA@CCouple@@8 DD FLAT:??_R0?AVCCouple@@@8	; CCouple::`RTTI Base Class Descriptor at (0,-1,0,64)'
	DD	00H
	DD	00H
	DD	0ffffffffH
	DD	00H
	DD	040H
	DD	FLAT:??_R3CCouple@@8
rdata$r	ENDS
;	COMDAT ??_R2CCouple@@8
rdata$r	SEGMENT
??_R2CCouple@@8 DD FLAT:??_R1A@?0A@EA@CCouple@@8	; CCouple::`RTTI Base Class Array'
rdata$r	ENDS
;	COMDAT ??_R3CCouple@@8
rdata$r	SEGMENT
??_R3CCouple@@8 DD 00H					; CCouple::`RTTI Class Hierarchy Descriptor'
	DD	00H
	DD	01H
	DD	FLAT:??_R2CCouple@@8
rdata$r	ENDS
;	COMDAT ??_R0?AVCCouple@@@8
data$rs	SEGMENT
??_R0?AVCCouple@@@8 DD FLAT:??_7type_info@@6B@		; CCouple `RTTI Type Descriptor'
	DD	00H
	DB	'.?AVCCouple@@', 00H
data$rs	ENDS
;	COMDAT ??_R4CCouple@@6B@
rdata$r	SEGMENT
??_R4CCouple@@6B@ DD 00H				; CCouple::`RTTI Complete Object Locator'
	DD	00H
	DD	00H
	DD	FLAT:??_R0?AVCCouple@@@8
	DD	FLAT:??_R3CCouple@@8
rdata$r	ENDS
;	COMDAT ??_C@_0L@IHPJEOCB@SkillLevel@
CONST	SEGMENT
??_C@_0L@IHPJEOCB@SkillLevel@ DB 'SkillLevel', 00H	; `string'
CONST	ENDS
;	COMDAT ??_C@_09EGDBHOMD@SkillKind@
CONST	SEGMENT
??_C@_09EGDBHOMD@SkillKind@ DB 'SkillKind', 00H		; `string'
CONST	ENDS
;	COMDAT ??_C@_04BGCMBJDA@Item@
CONST	SEGMENT
??_C@_04BGCMBJDA@Item@ DB 'Item', 00H			; `string'
CONST	ENDS
;	COMDAT ??_C@_05KOHFLOFG@Level@
CONST	SEGMENT
??_C@_05KOHFLOFG@Level@ DB 'Level', 00H			; `string'
CONST	ENDS
;	COMDAT ??_C@_0L@ELKPLJAH@couple?4inc@
CONST	SEGMENT
??_C@_0L@ELKPLJAH@couple?4inc@ DB 'couple.inc', 00H	; `string'
CONST	ENDS
;	COMDAT ??_7CCoupleMgr@@6B@
CONST	SEGMENT
??_7CCoupleMgr@@6B@ DD FLAT:??_R4CCoupleMgr@@6B@	; CCoupleMgr::`vftable'
	DD	FLAT:??_ECCoupleMgr@@UAEPAXI@Z
CONST	ENDS
;	COMDAT ??_7CCoupleProperty@@6B@
CONST	SEGMENT
??_7CCoupleProperty@@6B@ DD FLAT:??_R4CCoupleProperty@@6B@ ; CCoupleProperty::`vftable'
	DD	FLAT:??_ECCoupleProperty@@UAEPAXI@Z
CONST	ENDS
;	COMDAT ??_7CCouple@@6B@
CONST	SEGMENT
??_7CCouple@@6B@ DD FLAT:??_R4CCouple@@6B@		; CCouple::`vftable'
	DD	FLAT:??_ECCouple@@UAEPAXI@Z
CONST	ENDS
;	COMDAT ??_R4bad_alloc@std@@6B@
rdata$r	SEGMENT
??_R4bad_alloc@std@@6B@ DD 00H				; std::bad_alloc::`RTTI Complete Object Locator'
	DD	00H
	DD	00H
	DD	FLAT:??_R0?AVbad_alloc@std@@@8
	DD	FLAT:??_R3bad_alloc@std@@8
rdata$r	ENDS
;	COMDAT ??_R2bad_alloc@std@@8
rdata$r	SEGMENT
??_R2bad_alloc@std@@8 DD FLAT:??_R1A@?0A@EA@bad_alloc@std@@8 ; std::bad_alloc::`RTTI Base Class Array'
	DD	FLAT:??_R1A@?0A@EA@exception@std@@8
rdata$r	ENDS
;	COMDAT ??_R3bad_alloc@std@@8
rdata$r	SEGMENT
??_R3bad_alloc@std@@8 DD 00H				; std::bad_alloc::`RTTI Class Hierarchy Descriptor'
	DD	00H
	DD	02H
	DD	FLAT:??_R2bad_alloc@std@@8
rdata$r	ENDS
;	COMDAT ??_R1A@?0A@EA@bad_alloc@std@@8
rdata$r	SEGMENT
??_R1A@?0A@EA@bad_alloc@std@@8 DD FLAT:??_R0?AVbad_alloc@std@@@8 ; std::bad_alloc::`RTTI Base Class Descriptor at (0,-1,0,64)'
	DD	01H
	DD	00H
	DD	0ffffffffH
	DD	00H
	DD	040H
	DD	FLAT:??_R3bad_alloc@std@@8
rdata$r	ENDS
;	COMDAT ??_R1A@?0A@EA@bad_array_new_length@std@@8
rdata$r	SEGMENT
??_R1A@?0A@EA@bad_array_new_length@std@@8 DD FLAT:??_R0?AVbad_array_new_length@std@@@8 ; std::bad_array_new_length::`RTTI Base Class Descriptor at (0,-1,0,64)'
	DD	02H
	DD	00H
	DD	0ffffffffH
	DD	00H
	DD	040H
	DD	FLAT:??_R3bad_array_new_length@std@@8
rdata$r	ENDS
;	COMDAT ??_R2bad_array_new_length@std@@8
rdata$r	SEGMENT
??_R2bad_array_new_length@std@@8 DD FLAT:??_R1A@?0A@EA@bad_array_new_length@std@@8 ; std::bad_array_new_length::`RTTI Base Class Array'
	DD	FLAT:??_R1A@?0A@EA@bad_alloc@std@@8
	DD	FLAT:??_R1A@?0A@EA@exception@std@@8
rdata$r	ENDS
;	COMDAT ??_R3bad_array_new_length@std@@8
rdata$r	SEGMENT
??_R3bad_array_new_length@std@@8 DD 00H			; std::bad_array_new_length::`RTTI Class Hierarchy Descriptor'
	DD	00H
	DD	03H
	DD	FLAT:??_R2bad_array_new_length@std@@8
rdata$r	ENDS
;	COMDAT ??_R4bad_array_new_length@std@@6B@
rdata$r	SEGMENT
??_R4bad_array_new_length@std@@6B@ DD 00H		; std::bad_array_new_length::`RTTI Complete Object Locator'
	DD	00H
	DD	00H
	DD	FLAT:??_R0?AVbad_array_new_length@std@@@8
	DD	FLAT:??_R3bad_array_new_length@std@@8
rdata$r	ENDS
;	COMDAT ??_R1A@?0A@EA@exception@std@@8
rdata$r	SEGMENT
??_R1A@?0A@EA@exception@std@@8 DD FLAT:??_R0?AVexception@std@@@8 ; std::exception::`RTTI Base Class Descriptor at (0,-1,0,64)'
	DD	00H
	DD	00H
	DD	0ffffffffH
	DD	00H
	DD	040H
	DD	FLAT:??_R3exception@std@@8
rdata$r	ENDS
;	COMDAT ??_R2exception@std@@8
rdata$r	SEGMENT
??_R2exception@std@@8 DD FLAT:??_R1A@?0A@EA@exception@std@@8 ; std::exception::`RTTI Base Class Array'
rdata$r	ENDS
;	COMDAT ??_R3exception@std@@8
rdata$r	SEGMENT
??_R3exception@std@@8 DD 00H				; std::exception::`RTTI Class Hierarchy Descriptor'
	DD	00H
	DD	01H
	DD	FLAT:??_R2exception@std@@8
rdata$r	ENDS
;	COMDAT ??_R4exception@std@@6B@
rdata$r	SEGMENT
??_R4exception@std@@6B@ DD 00H				; std::exception::`RTTI Complete Object Locator'
	DD	00H
	DD	00H
	DD	FLAT:??_R0?AVexception@std@@@8
	DD	FLAT:??_R3exception@std@@8
rdata$r	ENDS
;	COMDAT ??_C@_0BA@FOIKENOD@vector?5too?5long@
CONST	SEGMENT
??_C@_0BA@FOIKENOD@vector?5too?5long@ DB 'vector too long', 00H ; `string'
CONST	ENDS
;	COMDAT ??_C@_0BB@GCADKGJO@map?1set?5too?5long@
CONST	SEGMENT
??_C@_0BB@GCADKGJO@map?1set?5too?5long@ DB 'map/set too long', 00H ; `string'
CONST	ENDS
;	COMDAT __CT??_R0?AVbad_alloc@std@@@8??0bad_alloc@std@@QAE@ABV01@@Z12
xdata$x	SEGMENT
__CT??_R0?AVbad_alloc@std@@@8??0bad_alloc@std@@QAE@ABV01@@Z12 DD 010H
	DD	FLAT:??_R0?AVbad_alloc@std@@@8
	DD	00H
	DD	0ffffffffH
	ORG $+4
	DD	0cH
	DD	FLAT:??0bad_alloc@std@@QAE@ABV01@@Z
xdata$x	ENDS
;	COMDAT ??_R0?AVbad_alloc@std@@@8
data$r	SEGMENT
??_R0?AVbad_alloc@std@@@8 DD FLAT:??_7type_info@@6B@	; std::bad_alloc `RTTI Type Descriptor'
	DD	00H
	DB	'.?AVbad_alloc@std@@', 00H
data$r	ENDS
;	COMDAT __CT??_R0?AVbad_array_new_length@std@@@8??0bad_array_new_length@std@@QAE@ABV01@@Z12
xdata$x	SEGMENT
__CT??_R0?AVbad_array_new_length@std@@@8??0bad_array_new_length@std@@QAE@ABV01@@Z12 DD 00H
	DD	FLAT:??_R0?AVbad_array_new_length@std@@@8
	DD	00H
	DD	0ffffffffH
	ORG $+4
	DD	0cH
	DD	FLAT:??0bad_array_new_length@std@@QAE@ABV01@@Z
xdata$x	ENDS
;	COMDAT ??_R0?AVbad_array_new_length@std@@@8
data$r	SEGMENT
??_R0?AVbad_array_new_length@std@@@8 DD FLAT:??_7type_info@@6B@ ; std::bad_array_new_length `RTTI Type Descriptor'
	DD	00H
	DB	'.?AVbad_array_new_length@std@@', 00H
data$r	ENDS
;	COMDAT __CTA3?AVbad_array_new_length@std@@
xdata$x	SEGMENT
__CTA3?AVbad_array_new_length@std@@ DD 03H
	DD	FLAT:__CT??_R0?AVbad_array_new_length@std@@@8??0bad_array_new_length@std@@QAE@ABV01@@Z12
	DD	FLAT:__CT??_R0?AVbad_alloc@std@@@8??0bad_alloc@std@@QAE@ABV01@@Z12
	DD	FLAT:__CT??_R0?AVexception@std@@@8??0exception@std@@QAE@ABV01@@Z12
xdata$x	ENDS
;	COMDAT __TI3?AVbad_array_new_length@std@@
xdata$x	SEGMENT
__TI3?AVbad_array_new_length@std@@ DD 00H
	DD	FLAT:??1bad_array_new_length@std@@UAE@XZ
	DD	00H
	DD	FLAT:__CTA3?AVbad_array_new_length@std@@
xdata$x	ENDS
;	COMDAT __CT??_R0?AVexception@std@@@8??0exception@std@@QAE@ABV01@@Z12
xdata$x	SEGMENT
__CT??_R0?AVexception@std@@@8??0exception@std@@QAE@ABV01@@Z12 DD 00H
	DD	FLAT:??_R0?AVexception@std@@@8
	DD	00H
	DD	0ffffffffH
	ORG $+4
	DD	0cH
	DD	FLAT:??0exception@std@@QAE@ABV01@@Z
xdata$x	ENDS
;	COMDAT ??_R0?AVexception@std@@@8
data$r	SEGMENT
??_R0?AVexception@std@@@8 DD FLAT:??_7type_info@@6B@	; std::exception `RTTI Type Descriptor'
	DD	00H
	DB	'.?AVexception@std@@', 00H
data$r	ENDS
;	COMDAT ??_C@_0BF@KINCDENJ@bad?5array?5new?5length@
CONST	SEGMENT
??_C@_0BF@KINCDENJ@bad?5array?5new?5length@ DB 'bad array new length', 00H ; `string'
CONST	ENDS
;	COMDAT ??_7bad_array_new_length@std@@6B@
CONST	SEGMENT
??_7bad_array_new_length@std@@6B@ DD FLAT:??_R4bad_array_new_length@std@@6B@ ; std::bad_array_new_length::`vftable'
	DD	FLAT:??_Ebad_array_new_length@std@@UAEPAXI@Z
	DD	FLAT:?what@exception@std@@UBEPBDXZ
CONST	ENDS
;	COMDAT ??_7bad_alloc@std@@6B@
CONST	SEGMENT
??_7bad_alloc@std@@6B@ DD FLAT:??_R4bad_alloc@std@@6B@	; std::bad_alloc::`vftable'
	DD	FLAT:??_Ebad_alloc@std@@UAEPAXI@Z
	DD	FLAT:?what@exception@std@@UBEPBDXZ
CONST	ENDS
;	COMDAT ??_C@_0BC@EOODALEL@Unknown?5exception@
CONST	SEGMENT
??_C@_0BC@EOODALEL@Unknown?5exception@ DB 'Unknown exception', 00H ; `string'
CONST	ENDS
;	COMDAT ??_7exception@std@@6B@
CONST	SEGMENT
??_7exception@std@@6B@ DD FLAT:??_R4exception@std@@6B@	; std::exception::`vftable'
	DD	FLAT:??_Eexception@std@@UAEPAXI@Z
	DD	FLAT:?what@exception@std@@UBEPBDXZ
CONST	ENDS
;	COMDAT xdata$x
xdata$x	SEGMENT
__unwindtable$??$?0U?$pair@$$CBKPAVCCouple@@@std@@@?$_Tree_temp_node@V?$allocator@U?$_Tree_node@U?$pair@$$CBKPAVCCouple@@@std@@PAX@std@@@std@@@std@@QAE@AAV?$allocator@U?$_Tree_node@U?$pair@$$CBKPAVCCouple@@@std@@PAX@std@@@1@PAU?$_Tree_node@U?$pair@$$CBKPAVCCouple@@@std@@PAX@1@$$QAU?$pair@$$CBKPAVCCouple@@@1@@Z DD 0ffffffffH
	DD	FLAT:__unwindfunclet$??$?0U?$pair@$$CBKPAVCCouple@@@std@@@?$_Tree_temp_node@V?$allocator@U?$_Tree_node@U?$pair@$$CBKPAVCCouple@@@std@@PAX@std@@@std@@@std@@QAE@AAV?$allocator@U?$_Tree_node@U?$pair@$$CBKPAVCCouple@@@std@@PAX@std@@@1@PAU?$_Tree_node@U?$pair@$$CBKPAVCCouple@@@std@@PAX@1@$$QAU?$pair@$$CBKPAVCCouple@@@1@@Z$1
__ehfuncinfo$??$?0U?$pair@$$CBKPAVCCouple@@@std@@@?$_Tree_temp_node@V?$allocator@U?$_Tree_node@U?$pair@$$CBKPAVCCouple@@@std@@PAX@std@@@std@@@std@@QAE@AAV?$allocator@U?$_Tree_node@U?$pair@$$CBKPAVCCouple@@@std@@PAX@std@@@1@PAU?$_Tree_node@U?$pair@$$CBKPAVCCouple@@@std@@PAX@1@$$QAU?$pair@$$CBKPAVCCouple@@@1@@Z DD 019930522H
	DD	01H
	DD	FLAT:__unwindtable$??$?0U?$pair@$$CBKPAVCCouple@@@std@@@?$_Tree_temp_node@V?$allocator@U?$_Tree_node@U?$pair@$$CBKPAVCCouple@@@std@@PAX@std@@@std@@@std@@QAE@AAV?$allocator@U?$_Tree_node@U?$pair@$$CBKPAVCCouple@@@std@@PAX@std@@@1@PAU?$_Tree_node@U?$pair@$$CBKPAVCCouple@@@std@@PAX@1@$$QAU?$pair@$$CBKPAVCCouple@@@1@@Z
	DD	2 DUP(00H)
	DD	2 DUP(00H)
	DD	00H
	DD	01H
xdata$x	ENDS
;	COMDAT xdata$x
xdata$x	SEGMENT
__unwindtable$??0?$_Tree_temp_node_alloc@V?$allocator@U?$_Tree_node@U?$pair@$$CBKPAVCCouple@@@std@@PAX@std@@@std@@@std@@QAE@AAV?$allocator@U?$_Tree_node@U?$pair@$$CBKPAVCCouple@@@std@@PAX@std@@@1@@Z DD 0ffffffffH
	DD	FLAT:__unwindfunclet$??0?$_Tree_temp_node_alloc@V?$allocator@U?$_Tree_node@U?$pair@$$CBKPAVCCouple@@@std@@PAX@std@@@std@@@std@@QAE@AAV?$allocator@U?$_Tree_node@U?$pair@$$CBKPAVCCouple@@@std@@PAX@std@@@1@@Z$0
__ehfuncinfo$??0?$_Tree_temp_node_alloc@V?$allocator@U?$_Tree_node@U?$pair@$$CBKPAVCCouple@@@std@@PAX@std@@@std@@@std@@QAE@AAV?$allocator@U?$_Tree_node@U?$pair@$$CBKPAVCCouple@@@std@@PAX@std@@@1@@Z DD 019930522H
	DD	01H
	DD	FLAT:__unwindtable$??0?$_Tree_temp_node_alloc@V?$allocator@U?$_Tree_node@U?$pair@$$CBKPAVCCouple@@@std@@PAX@std@@@std@@@std@@QAE@AAV?$allocator@U?$_Tree_node@U?$pair@$$CBKPAVCCouple@@@std@@PAX@std@@@1@@Z
	DD	2 DUP(00H)
	DD	2 DUP(00H)
	DD	00H
	DD	01H
xdata$x	ENDS
;	COMDAT xdata$x
xdata$x	SEGMENT
__unwindtable$??$_Emplace@U?$pair@$$CBKPAVCCouple@@@std@@@?$_Tree@V?$_Tmap_traits@KPAVCCouple@@U?$less@K@std@@V?$allocator@U?$pair@$$CBKPAVCCouple@@@std@@@3@$0A@@std@@@std@@IAE?AU?$pair@PAU?$_Tree_node@U?$pair@$$CBKPAVCCouple@@@std@@PAX@std@@_N@1@$$QAU?$pair@$$CBKPAVCCouple@@@1@@Z DD 0ffffffffH
	DD	FLAT:__unwindfunclet$??$_Emplace@U?$pair@$$CBKPAVCCouple@@@std@@@?$_Tree@V?$_Tmap_traits@KPAVCCouple@@U?$less@K@std@@V?$allocator@U?$pair@$$CBKPAVCCouple@@@std@@@3@$0A@@std@@@std@@IAE?AU?$pair@PAU?$_Tree_node@U?$pair@$$CBKPAVCCouple@@@std@@PAX@std@@_N@1@$$QAU?$pair@$$CBKPAVCCouple@@@1@@Z$2
__ehfuncinfo$??$_Emplace@U?$pair@$$CBKPAVCCouple@@@std@@@?$_Tree@V?$_Tmap_traits@KPAVCCouple@@U?$less@K@std@@V?$allocator@U?$pair@$$CBKPAVCCouple@@@std@@@3@$0A@@std@@@std@@IAE?AU?$pair@PAU?$_Tree_node@U?$pair@$$CBKPAVCCouple@@@std@@PAX@std@@_N@1@$$QAU?$pair@$$CBKPAVCCouple@@@1@@Z DD 019930522H
	DD	01H
	DD	FLAT:__unwindtable$??$_Emplace@U?$pair@$$CBKPAVCCouple@@@std@@@?$_Tree@V?$_Tmap_traits@KPAVCCouple@@U?$less@K@std@@V?$allocator@U?$pair@$$CBKPAVCCouple@@@std@@@3@$0A@@std@@@std@@IAE?AU?$pair@PAU?$_Tree_node@U?$pair@$$CBKPAVCCouple@@@std@@PAX@std@@_N@1@$$QAU?$pair@$$CBKPAVCCouple@@@1@@Z
	DD	2 DUP(00H)
	DD	2 DUP(00H)
	DD	00H
	DD	01H
xdata$x	ENDS
;	COMDAT xdata$x
xdata$x	SEGMENT
__unwindtable$??$insert@$0A@$0A@@?$_Tree@V?$_Tmap_traits@KPAVCCouple@@U?$less@K@std@@V?$allocator@U?$pair@$$CBKPAVCCouple@@@std@@@3@$0A@@std@@@std@@QAE?AU?$pair@V?$_Tree_iterator@V?$_Tree_val@U?$_Tree_simple_types@U?$pair@$$CBKPAVCCouple@@@std@@@std@@@std@@@std@@_N@1@$$QAU?$pair@$$CBKPAVCCouple@@@1@@Z DD 0ffffffffH
	DD	FLAT:__unwindfunclet$??$insert@$0A@$0A@@?$_Tree@V?$_Tmap_traits@KPAVCCouple@@U?$less@K@std@@V?$allocator@U?$pair@$$CBKPAVCCouple@@@std@@@3@$0A@@std@@@std@@QAE?AU?$pair@V?$_Tree_iterator@V?$_Tree_val@U?$_Tree_simple_types@U?$pair@$$CBKPAVCCouple@@@std@@@std@@@std@@@std@@_N@1@$$QAU?$pair@$$CBKPAVCCouple@@@1@@Z$2
__ehfuncinfo$??$insert@$0A@$0A@@?$_Tree@V?$_Tmap_traits@KPAVCCouple@@U?$less@K@std@@V?$allocator@U?$pair@$$CBKPAVCCouple@@@std@@@3@$0A@@std@@@std@@QAE?AU?$pair@V?$_Tree_iterator@V?$_Tree_val@U?$_Tree_simple_types@U?$pair@$$CBKPAVCCouple@@@std@@@std@@@std@@@std@@_N@1@$$QAU?$pair@$$CBKPAVCCouple@@@1@@Z DD 019930522H
	DD	01H
	DD	FLAT:__unwindtable$??$insert@$0A@$0A@@?$_Tree@V?$_Tmap_traits@KPAVCCouple@@U?$less@K@std@@V?$allocator@U?$pair@$$CBKPAVCCouple@@@std@@@3@$0A@@std@@@std@@QAE?AU?$pair@V?$_Tree_iterator@V?$_Tree_val@U?$_Tree_simple_types@U?$pair@$$CBKPAVCCouple@@@std@@@std@@@std@@@std@@_N@1@$$QAU?$pair@$$CBKPAVCCouple@@@1@@Z
	DD	2 DUP(00H)
	DD	2 DUP(00H)
	DD	00H
	DD	01H
xdata$x	ENDS
;	COMDAT xdata$x
xdata$x	SEGMENT
__unwindtable$?Initialize@CCoupleProperty@@QAEHXZ DD 0ffffffffH
	DD	FLAT:__unwindfunclet$?Initialize@CCoupleProperty@@QAEHXZ$0
__ehfuncinfo$?Initialize@CCoupleProperty@@QAEHXZ DD 019930522H
	DD	01H
	DD	FLAT:__unwindtable$?Initialize@CCoupleProperty@@QAEHXZ
	DD	2 DUP(00H)
	DD	2 DUP(00H)
	DD	00H
	DD	01H
xdata$x	ENDS
; Function compile flags: /Ogtp
; File C:\Program Files\Microsoft Visual Studio\2022\Professional\VC\Tools\MSVC\14.44.35207\include\xutility
;	COMDAT ??$_Copy_memmove_tail@PAU_COUPLE_ITEM@@@std@@YAPAU_COUPLE_ITEM@@QBDQAU1@II@Z
_TEXT	SEGMENT
__First_ch$ = 8						; size = 4
__Dest$ = 12						; size = 4
__Byte_count$ = 16					; size = 4
__Object_count$ = 20					; size = 4
??$_Copy_memmove_tail@PAU_COUPLE_ITEM@@@std@@YAPAU_COUPLE_ITEM@@QBDQAU1@II@Z PROC ; std::_Copy_memmove_tail<_COUPLE_ITEM *>, COMDAT

; 4747 :     const char* const _First_ch, const _OutCtgIt _Dest, const size_t _Byte_count, const size_t _Object_count) {

  00000	55		 push	 ebp
  00001	8b ec		 mov	 ebp, esp
  00003	56		 push	 esi

; 4748 :     _STL_INTERNAL_CHECK(_Byte_count == _Object_count * sizeof(*_Dest));
; 4749 :     const auto _Dest_ptr = _STD _To_address(_Dest);
; 4750 :     const auto _Dest_ch  = const_cast<char*>(reinterpret_cast<const volatile char*>(_Dest_ptr));
; 4751 :     _CSTD memmove(_Dest_ch, _First_ch, _Byte_count);

  00004	8b 75 0c	 mov	 esi, DWORD PTR __Dest$[ebp]
  00007	57		 push	 edi
  00008	8b 7d 10	 mov	 edi, DWORD PTR __Byte_count$[ebp]
  0000b	57		 push	 edi
  0000c	ff 75 08	 push	 DWORD PTR __First_ch$[ebp]
  0000f	56		 push	 esi
  00010	e8 00 00 00 00	 call	 _memmove
  00015	83 c4 0c	 add	 esp, 12			; 0000000cH

; 4752 :     if constexpr (is_pointer_v<_OutCtgIt>) {
; 4753 :         (void) _Object_count;
; 4754 :         // CodeQL [SM02986] This cast is correct: we're bypassing pointer arithmetic for performance.
; 4755 :         return reinterpret_cast<_OutCtgIt>(_Dest_ch + _Byte_count);

  00018	8d 04 3e	 lea	 eax, DWORD PTR [esi+edi]
  0001b	5f		 pop	 edi
  0001c	5e		 pop	 esi

; 4756 :     } else {
; 4757 :         return _Dest + static_cast<_Iter_diff_t<_OutCtgIt>>(_Object_count);
; 4758 :     }
; 4759 : }

  0001d	5d		 pop	 ebp
  0001e	c3		 ret	 0
??$_Copy_memmove_tail@PAU_COUPLE_ITEM@@@std@@YAPAU_COUPLE_ITEM@@QBDQAU1@II@Z ENDP ; std::_Copy_memmove_tail<_COUPLE_ITEM *>
_TEXT	ENDS
; Function compile flags: /Ogtp
; File C:\Program Files\Microsoft Visual Studio\2022\Professional\VC\Tools\MSVC\14.44.35207\include\xutility
;	COMDAT ??$_Copy_memmove@PAHPAH@std@@YAPAHPAH00@Z
_TEXT	SEGMENT
__First$ = 8						; size = 4
__Last$ = 12						; size = 4
__Dest$ = 16						; size = 4
??$_Copy_memmove@PAHPAH@std@@YAPAHPAH00@Z PROC		; std::_Copy_memmove<int *,int *>, COMDAT

; 4762 : _OutCtgIt _Copy_memmove(_CtgIt _First, _CtgIt _Last, _OutCtgIt _Dest) {

  00000	55		 push	 ebp
  00001	8b ec		 mov	 ebp, esp

; 4763 :     _STL_INTERNAL_CHECK(_First <= _Last);
; 4764 :     const auto _First_ptr    = _STD _To_address(_First);
; 4765 :     const auto _Last_ptr     = _STD _To_address(_Last);
; 4766 :     const auto _Object_count = static_cast<size_t>(_Last_ptr - _First_ptr);

  00003	8b 55 08	 mov	 edx, DWORD PTR __First$[ebp]
  00006	8b 4d 0c	 mov	 ecx, DWORD PTR __Last$[ebp]
  00009	2b ca		 sub	 ecx, edx
  0000b	8b c1		 mov	 eax, ecx
  0000d	c1 f8 02	 sar	 eax, 2

; 4767 :     const auto _First_ch     = const_cast<const char*>(reinterpret_cast<const volatile char*>(_First_ptr));
; 4768 :     const auto _Last_ch      = const_cast<const char*>(reinterpret_cast<const volatile char*>(_Last_ptr));
; 4769 :     const auto _Byte_count   = static_cast<size_t>(_Last_ch - _First_ch);
; 4770 :     return _STD _Copy_memmove_tail(_First_ch, _STD move(_Dest), _Byte_count, _Object_count);

  00010	50		 push	 eax
  00011	51		 push	 ecx
  00012	ff 75 10	 push	 DWORD PTR __Dest$[ebp]
  00015	52		 push	 edx
  00016	e8 00 00 00 00	 call	 ??$_Copy_memmove_tail@PAH@std@@YAPAHQBDQAHII@Z ; std::_Copy_memmove_tail<int *>
  0001b	83 c4 10	 add	 esp, 16			; 00000010H

; 4771 : }

  0001e	5d		 pop	 ebp
  0001f	c3		 ret	 0
??$_Copy_memmove@PAHPAH@std@@YAPAHPAH00@Z ENDP		; std::_Copy_memmove<int *,int *>
_TEXT	ENDS
; Function compile flags: /Ogtp
; File C:\Program Files\Microsoft Visual Studio\2022\Professional\VC\Tools\MSVC\14.44.35207\include\xutility
;	COMDAT ??$_Copy_memmove@PAU_COUPLE_ITEM@@PAU1@@std@@YAPAU_COUPLE_ITEM@@PAU1@00@Z
_TEXT	SEGMENT
__First$ = 8						; size = 4
__Last$ = 12						; size = 4
__Dest$ = 16						; size = 4
??$_Copy_memmove@PAU_COUPLE_ITEM@@PAU1@@std@@YAPAU_COUPLE_ITEM@@PAU1@00@Z PROC ; std::_Copy_memmove<_COUPLE_ITEM *,_COUPLE_ITEM *>, COMDAT

; 4762 : _OutCtgIt _Copy_memmove(_CtgIt _First, _CtgIt _Last, _OutCtgIt _Dest) {

  00000	55		 push	 ebp
  00001	8b ec		 mov	 ebp, esp

; 4763 :     _STL_INTERNAL_CHECK(_First <= _Last);
; 4764 :     const auto _First_ptr    = _STD _To_address(_First);
; 4765 :     const auto _Last_ptr     = _STD _To_address(_Last);
; 4766 :     const auto _Object_count = static_cast<size_t>(_Last_ptr - _First_ptr);

  00003	8b 4d 0c	 mov	 ecx, DWORD PTR __Last$[ebp]
  00006	b8 67 66 66 66	 mov	 eax, 1717986919		; 66666667H
  0000b	2b 4d 08	 sub	 ecx, DWORD PTR __First$[ebp]
  0000e	f7 e9		 imul	 ecx
  00010	c1 fa 03	 sar	 edx, 3
  00013	8b c2		 mov	 eax, edx
  00015	c1 e8 1f	 shr	 eax, 31			; 0000001fH
  00018	03 c2		 add	 eax, edx

; 4767 :     const auto _First_ch     = const_cast<const char*>(reinterpret_cast<const volatile char*>(_First_ptr));
; 4768 :     const auto _Last_ch      = const_cast<const char*>(reinterpret_cast<const volatile char*>(_Last_ptr));
; 4769 :     const auto _Byte_count   = static_cast<size_t>(_Last_ch - _First_ch);
; 4770 :     return _STD _Copy_memmove_tail(_First_ch, _STD move(_Dest), _Byte_count, _Object_count);

  0001a	50		 push	 eax
  0001b	51		 push	 ecx
  0001c	ff 75 10	 push	 DWORD PTR __Dest$[ebp]
  0001f	ff 75 08	 push	 DWORD PTR __First$[ebp]
  00022	e8 00 00 00 00	 call	 ??$_Copy_memmove_tail@PAU_COUPLE_ITEM@@@std@@YAPAU_COUPLE_ITEM@@QBDQAU1@II@Z ; std::_Copy_memmove_tail<_COUPLE_ITEM *>
  00027	83 c4 10	 add	 esp, 16			; 00000010H

; 4771 : }

  0002a	5d		 pop	 ebp
  0002b	c3		 ret	 0
??$_Copy_memmove@PAU_COUPLE_ITEM@@PAU1@@std@@YAPAU_COUPLE_ITEM@@PAU1@00@Z ENDP ; std::_Copy_memmove<_COUPLE_ITEM *,_COUPLE_ITEM *>
_TEXT	ENDS
; Function compile flags: /Ogtp
; File C:\Program Files\Microsoft Visual Studio\2022\Professional\VC\Tools\MSVC\14.44.35207\include\xutility
;	COMDAT ??$_Copy_memmove_tail@PAPAVCCouple@@@std@@YAPAPAVCCouple@@QBDQAPAV1@II@Z
_TEXT	SEGMENT
__First_ch$ = 8						; size = 4
__Dest$ = 12						; size = 4
__Byte_count$ = 16					; size = 4
__Object_count$ = 20					; size = 4
??$_Copy_memmove_tail@PAPAVCCouple@@@std@@YAPAPAVCCouple@@QBDQAPAV1@II@Z PROC ; std::_Copy_memmove_tail<CCouple * *>, COMDAT

; 4747 :     const char* const _First_ch, const _OutCtgIt _Dest, const size_t _Byte_count, const size_t _Object_count) {

  00000	55		 push	 ebp
  00001	8b ec		 mov	 ebp, esp
  00003	56		 push	 esi

; 4748 :     _STL_INTERNAL_CHECK(_Byte_count == _Object_count * sizeof(*_Dest));
; 4749 :     const auto _Dest_ptr = _STD _To_address(_Dest);
; 4750 :     const auto _Dest_ch  = const_cast<char*>(reinterpret_cast<const volatile char*>(_Dest_ptr));
; 4751 :     _CSTD memmove(_Dest_ch, _First_ch, _Byte_count);

  00004	8b 75 0c	 mov	 esi, DWORD PTR __Dest$[ebp]
  00007	57		 push	 edi
  00008	8b 7d 10	 mov	 edi, DWORD PTR __Byte_count$[ebp]
  0000b	57		 push	 edi
  0000c	ff 75 08	 push	 DWORD PTR __First_ch$[ebp]
  0000f	56		 push	 esi
  00010	e8 00 00 00 00	 call	 _memmove
  00015	83 c4 0c	 add	 esp, 12			; 0000000cH

; 4752 :     if constexpr (is_pointer_v<_OutCtgIt>) {
; 4753 :         (void) _Object_count;
; 4754 :         // CodeQL [SM02986] This cast is correct: we're bypassing pointer arithmetic for performance.
; 4755 :         return reinterpret_cast<_OutCtgIt>(_Dest_ch + _Byte_count);

  00018	8d 04 3e	 lea	 eax, DWORD PTR [esi+edi]
  0001b	5f		 pop	 edi
  0001c	5e		 pop	 esi

; 4756 :     } else {
; 4757 :         return _Dest + static_cast<_Iter_diff_t<_OutCtgIt>>(_Object_count);
; 4758 :     }
; 4759 : }

  0001d	5d		 pop	 ebp
  0001e	c3		 ret	 0
??$_Copy_memmove_tail@PAPAVCCouple@@@std@@YAPAPAVCCouple@@QBDQAPAV1@II@Z ENDP ; std::_Copy_memmove_tail<CCouple * *>
_TEXT	ENDS
; Function compile flags: /Ogtp
; File C:\Program Files\Microsoft Visual Studio\2022\Professional\VC\Tools\MSVC\14.44.35207\include\xutility
;	COMDAT ??$_Copy_memmove_tail@PAH@std@@YAPAHQBDQAHII@Z
_TEXT	SEGMENT
__First_ch$ = 8						; size = 4
__Dest$ = 12						; size = 4
__Byte_count$ = 16					; size = 4
__Object_count$ = 20					; size = 4
??$_Copy_memmove_tail@PAH@std@@YAPAHQBDQAHII@Z PROC	; std::_Copy_memmove_tail<int *>, COMDAT

; 4747 :     const char* const _First_ch, const _OutCtgIt _Dest, const size_t _Byte_count, const size_t _Object_count) {

  00000	55		 push	 ebp
  00001	8b ec		 mov	 ebp, esp
  00003	56		 push	 esi

; 4748 :     _STL_INTERNAL_CHECK(_Byte_count == _Object_count * sizeof(*_Dest));
; 4749 :     const auto _Dest_ptr = _STD _To_address(_Dest);
; 4750 :     const auto _Dest_ch  = const_cast<char*>(reinterpret_cast<const volatile char*>(_Dest_ptr));
; 4751 :     _CSTD memmove(_Dest_ch, _First_ch, _Byte_count);

  00004	8b 75 0c	 mov	 esi, DWORD PTR __Dest$[ebp]
  00007	57		 push	 edi
  00008	8b 7d 10	 mov	 edi, DWORD PTR __Byte_count$[ebp]
  0000b	57		 push	 edi
  0000c	ff 75 08	 push	 DWORD PTR __First_ch$[ebp]
  0000f	56		 push	 esi
  00010	e8 00 00 00 00	 call	 _memmove
  00015	83 c4 0c	 add	 esp, 12			; 0000000cH

; 4752 :     if constexpr (is_pointer_v<_OutCtgIt>) {
; 4753 :         (void) _Object_count;
; 4754 :         // CodeQL [SM02986] This cast is correct: we're bypassing pointer arithmetic for performance.
; 4755 :         return reinterpret_cast<_OutCtgIt>(_Dest_ch + _Byte_count);

  00018	8d 04 3e	 lea	 eax, DWORD PTR [esi+edi]
  0001b	5f		 pop	 edi
  0001c	5e		 pop	 esi

; 4756 :     } else {
; 4757 :         return _Dest + static_cast<_Iter_diff_t<_OutCtgIt>>(_Object_count);
; 4758 :     }
; 4759 : }

  0001d	5d		 pop	 ebp
  0001e	c3		 ret	 0
??$_Copy_memmove_tail@PAH@std@@YAPAHQBDQAHII@Z ENDP	; std::_Copy_memmove_tail<int *>
_TEXT	ENDS
; Function compile flags: /Ogtp
; File C:\Program Files\Microsoft Visual Studio\2022\Professional\VC\Tools\MSVC\14.44.35207\include\vector
; File C:\Program Files\Microsoft Visual Studio\2022\Professional\VC\Tools\MSVC\14.44.35207\include\xmemory
; File C:\Program Files\Microsoft Visual Studio\2022\Professional\VC\Tools\MSVC\14.44.35207\include\vector
; File C:\Program Files\Microsoft Visual Studio\2022\Professional\VC\Tools\MSVC\14.44.35207\include\xmemory
; File C:\Program Files\Microsoft Visual Studio\2022\Professional\VC\Tools\MSVC\14.44.35207\include\vector
; File C:\Program Files\Microsoft Visual Studio\2022\Professional\VC\Tools\MSVC\14.44.35207\include\xmemory
; File C:\Program Files\Microsoft Visual Studio\2022\Professional\VC\Tools\MSVC\14.44.35207\include\vector
; File C:\Program Files\Microsoft Visual Studio\2022\Professional\VC\Tools\MSVC\14.44.35207\include\xmemory
; File C:\Program Files\Microsoft Visual Studio\2022\Professional\VC\Tools\MSVC\14.44.35207\include\vector
; File C:\Program Files\Microsoft Visual Studio\2022\Professional\VC\Tools\MSVC\14.44.35207\include\xmemory
; File C:\Program Files\Microsoft Visual Studio\2022\Professional\VC\Tools\MSVC\14.44.35207\include\vector
; File C:\Program Files\Microsoft Visual Studio\2022\Professional\VC\Tools\MSVC\14.44.35207\include\xmemory
; File C:\Program Files\Microsoft Visual Studio\2022\Professional\VC\Tools\MSVC\14.44.35207\include\vector
; File C:\Program Files\Microsoft Visual Studio\2022\Professional\VC\Tools\MSVC\14.44.35207\include\xmemory
; File C:\Program Files\Microsoft Visual Studio\2022\Professional\VC\Tools\MSVC\14.44.35207\include\vector
; File C:\Program Files\Microsoft Visual Studio\2022\Professional\VC\Tools\MSVC\14.44.35207\include\xmemory
; File C:\Program Files\Microsoft Visual Studio\2022\Professional\VC\Tools\MSVC\14.44.35207\include\vector
;	COMDAT ??$_Emplace_reallocate@ABH@?$vector@HV?$allocator@H@std@@@std@@AAEPAHQAHABH@Z
_TEXT	SEGMENT
__Newsize$1$ = -12					; size = 4
tv652 = -8						; size = 4
tv650 = -4						; size = 4
__Whereptr$ = 8						; size = 4
_<_Val_0>$ = 12						; size = 4
??$_Emplace_reallocate@ABH@?$vector@HV?$allocator@H@std@@@std@@AAEPAHQAHABH@Z PROC ; std::vector<int,std::allocator<int> >::_Emplace_reallocate<int const &>, COMDAT
; _this$ = ecx

; 875  :     _CONSTEXPR20 pointer _Emplace_reallocate(const pointer _Whereptr, _Valty&&... _Val) {

  00000	55		 push	 ebp
  00001	8b ec		 mov	 ebp, esp
  00003	83 ec 0c	 sub	 esp, 12			; 0000000cH
  00006	53		 push	 ebx

; 876  :         // reallocate and insert by perfectly forwarding _Val at _Whereptr
; 877  :         _Alty& _Al        = _Getal();
; 878  :         auto& _My_data    = _Mypair._Myval2;
; 879  :         pointer& _Myfirst = _My_data._Myfirst;
; 880  :         pointer& _Mylast  = _My_data._Mylast;
; 881  : 
; 882  :         _STL_INTERNAL_CHECK(_Mylast == _My_data._Myend); // check that we have no unused capacity
; 883  : 
; 884  :         const auto _Whereoff = static_cast<size_type>(_Whereptr - _Myfirst);

  00007	8b 5d 08	 mov	 ebx, DWORD PTR __Whereptr$[ebp]
  0000a	56		 push	 esi
  0000b	8b f1		 mov	 esi, ecx
  0000d	57		 push	 edi
  0000e	8b 0e		 mov	 ecx, DWORD PTR [esi]
  00010	2b d9		 sub	 ebx, ecx

; 885  :         const auto _Oldsize  = static_cast<size_type>(_Mylast - _Myfirst);

  00012	8b 46 04	 mov	 eax, DWORD PTR [esi+4]
  00015	2b c1		 sub	 eax, ecx
  00017	c1 fb 02	 sar	 ebx, 2
  0001a	c1 f8 02	 sar	 eax, 2

; 886  : 
; 887  :         if (_Oldsize == max_size()) {

  0001d	3d ff ff ff 3f	 cmp	 eax, 1073741823		; 3fffffffH
  00022	0f 84 13 01 00
	00		 je	 $LN111@Emplace_re

; 1924 :         return static_cast<size_type>(_My_data._Myend - _My_data._Myfirst);

  00028	8b 56 08	 mov	 edx, DWORD PTR [esi+8]

; 889  :         }
; 890  : 
; 891  :         const size_type _Newsize = _Oldsize + 1;

  0002b	8d 78 01	 lea	 edi, DWORD PTR [eax+1]

; 1924 :         return static_cast<size_type>(_My_data._Myend - _My_data._Myfirst);

  0002e	2b d1		 sub	 edx, ecx

; 889  :         }
; 890  : 
; 891  :         const size_type _Newsize = _Oldsize + 1;

  00030	89 7d f4	 mov	 DWORD PTR __Newsize$1$[ebp], edi

; 1924 :         return static_cast<size_type>(_My_data._Myend - _My_data._Myfirst);

  00033	c1 fa 02	 sar	 edx, 2

; 2011 :         if (_Oldcapacity > _Max - _Oldcapacity / 2) {

  00036	b8 ff ff ff 3f	 mov	 eax, 1073741823		; 3fffffffH
  0003b	8b ca		 mov	 ecx, edx
  0003d	d1 e9		 shr	 ecx, 1
  0003f	2b c1		 sub	 eax, ecx
  00041	3b d0		 cmp	 edx, eax
  00043	76 14		 jbe	 SHORT $LN8@Emplace_re

; 2012 :             return _Max; // geometric growth would overflow

  00045	b8 fc ff ff ff	 mov	 eax, -4			; fffffffcH
  0004a	c7 45 f8 fc ff
	ff ff		 mov	 DWORD PTR tv652[ebp], -4 ; fffffffcH
; File C:\Program Files\Microsoft Visual Studio\2022\Professional\VC\Tools\MSVC\14.44.35207\include\xmemory

; 253  :             return _Allocate_manually_vector_aligned<_Traits>(_Bytes);

  00051	50		 push	 eax
  00052	e8 00 00 00 00	 call	 ??$_Allocate_manually_vector_aligned@U_Default_allocate_traits@std@@@std@@YAPAXI@Z ; std::_Allocate_manually_vector_aligned<std::_Default_allocate_traits>
  00057	eb 3d		 jmp	 SHORT $LN109@Emplace_re
$LN8@Emplace_re:
; File C:\Program Files\Microsoft Visual Studio\2022\Professional\VC\Tools\MSVC\14.44.35207\include\vector

; 2015 :         const size_type _Geometric = _Oldcapacity + _Oldcapacity / 2;

  00059	8d 04 11	 lea	 eax, DWORD PTR [ecx+edx]
; File C:\Program Files\Microsoft Visual Studio\2022\Professional\VC\Tools\MSVC\14.44.35207\include\xmemory

; 117  :         if (_Count > _Max_possible) {

  0005c	8b cf		 mov	 ecx, edi
  0005e	3b c7		 cmp	 eax, edi
  00060	0f 43 c8	 cmovae	 ecx, eax
  00063	81 f9 ff ff ff
	3f		 cmp	 ecx, 1073741823		; 3fffffffH
  00069	0f 87 d1 00 00
	00		 ja	 $LN112@Emplace_re

; 119  :         }
; 120  :     }
; 121  : 
; 122  :     return _Count * _Ty_size;

  0006f	8d 04 8d 00 00
	00 00		 lea	 eax, DWORD PTR [ecx*4]
  00076	89 45 f8	 mov	 DWORD PTR tv652[ebp], eax

; 227  :     if (_Bytes == 0) {

  00079	85 c0		 test	 eax, eax
  0007b	75 04		 jne	 SHORT $LN23@Emplace_re

; 228  :         return nullptr;

  0007d	33 ff		 xor	 edi, edi
  0007f	eb 1a		 jmp	 SHORT $LN22@Emplace_re
$LN23@Emplace_re:

; 229  :     }
; 230  : 
; 231  : #if _HAS_CXX20 // TRANSITION, GH-1532
; 232  :     if (_STD is_constant_evaluated()) {
; 233  :         return _Traits::_Allocate(_Bytes);
; 234  :     }
; 235  : #endif // _HAS_CXX20
; 236  : 
; 237  : #ifdef __cpp_aligned_new
; 238  :     if constexpr (_Align > __STDCPP_DEFAULT_NEW_ALIGNMENT__) {
; 239  :         size_t _Passed_align = _Align;
; 240  : #if defined(_M_IX86) || defined(_M_X64)
; 241  :         if (_Bytes >= _Big_allocation_threshold) {
; 242  :             // boost the alignment of big allocations to help autovectorization
; 243  :             _Passed_align = (_STD max)(_Align, _Big_allocation_alignment);
; 244  :         }
; 245  : #endif // defined(_M_IX86) || defined(_M_X64)
; 246  :         return _Traits::_Allocate_aligned(_Bytes, _Passed_align);
; 247  :     } else
; 248  : #endif // defined(__cpp_aligned_new)
; 249  :     {
; 250  : #if defined(_M_IX86) || defined(_M_X64)
; 251  :         if (_Bytes >= _Big_allocation_threshold) {

  00081	3d 00 10 00 00	 cmp	 eax, 4096		; 00001000H
  00086	72 08		 jb	 SHORT $LN24@Emplace_re

; 253  :             return _Allocate_manually_vector_aligned<_Traits>(_Bytes);

  00088	50		 push	 eax
  00089	e8 00 00 00 00	 call	 ??$_Allocate_manually_vector_aligned@U_Default_allocate_traits@std@@@std@@YAPAXI@Z ; std::_Allocate_manually_vector_aligned<std::_Default_allocate_traits>
  0008e	eb 06		 jmp	 SHORT $LN109@Emplace_re
$LN24@Emplace_re:

; 136  :         return ::operator new(_Bytes);

  00090	50		 push	 eax
  00091	e8 00 00 00 00	 call	 ??2@YAPAXI@Z		; operator new
$LN109@Emplace_re:
; File C:\Program Files\Microsoft Visual Studio\2022\Professional\VC\Tools\MSVC\14.44.35207\include\vector

; 900  :         _Alty_traits::construct(_Al, _STD _Unfancy(_Newvec + _Whereoff), _STD forward<_Valty>(_Val)...);

  00096	8b f8		 mov	 edi, eax
  00098	83 c4 04	 add	 esp, 4
$LN22@Emplace_re:
  0009b	8b 45 0c	 mov	 eax, DWORD PTR _<_Val_0>$[ebp]
  0009e	8d 0c 9f	 lea	 ecx, DWORD PTR [edi+ebx*4]

; 901  :         _Constructed_first = _Newvec + _Whereoff;
; 902  : 
; 903  :         if (_Whereptr == _Mylast) { // at back, provide strong guarantee

  000a1	8b 5d 08	 mov	 ebx, DWORD PTR __Whereptr$[ebp]
  000a4	89 4d fc	 mov	 DWORD PTR tv650[ebp], ecx
  000a7	8b 00		 mov	 eax, DWORD PTR [eax]
  000a9	89 01		 mov	 DWORD PTR [ecx], eax
  000ab	8b 46 04	 mov	 eax, DWORD PTR [esi+4]
  000ae	8b 0e		 mov	 ecx, DWORD PTR [esi]
  000b0	3b d8		 cmp	 ebx, eax
  000b2	75 07		 jne	 SHORT $LN3@Emplace_re

; 909  :         } else { // provide basic guarantee

  000b4	8b 5d fc	 mov	 ebx, DWORD PTR tv650[ebp]
; File C:\Program Files\Microsoft Visual Studio\2022\Professional\VC\Tools\MSVC\14.44.35207\include\xmemory

; 1992 :             _STD _Copy_memmove(_UFirst, _ULast, _STD _Unfancy(_Dest));

  000b7	8b d7		 mov	 edx, edi
; File C:\Program Files\Microsoft Visual Studio\2022\Professional\VC\Tools\MSVC\14.44.35207\include\vector

; 909  :         } else { // provide basic guarantee

  000b9	eb 16		 jmp	 SHORT $LN52@Emplace_re
$LN3@Emplace_re:
; File C:\Program Files\Microsoft Visual Studio\2022\Professional\VC\Tools\MSVC\14.44.35207\include\xmemory

; 1992 :             _STD _Copy_memmove(_UFirst, _ULast, _STD _Unfancy(_Dest));

  000bb	57		 push	 edi
  000bc	53		 push	 ebx
  000bd	51		 push	 ecx
  000be	e8 00 00 00 00	 call	 ??$_Copy_memmove@PAHPAH@std@@YAPAHPAH00@Z ; std::_Copy_memmove<int *,int *>
  000c3	8b 46 04	 mov	 eax, DWORD PTR [esi+4]
  000c6	8b cb		 mov	 ecx, ebx
; File C:\Program Files\Microsoft Visual Studio\2022\Professional\VC\Tools\MSVC\14.44.35207\include\vector

; 912  :             _STD _Uninitialized_move(_Whereptr, _Mylast, _Newvec + _Whereoff + 1, _Al);

  000c8	8b 5d fc	 mov	 ebx, DWORD PTR tv650[ebp]
; File C:\Program Files\Microsoft Visual Studio\2022\Professional\VC\Tools\MSVC\14.44.35207\include\xmemory

; 1992 :             _STD _Copy_memmove(_UFirst, _ULast, _STD _Unfancy(_Dest));

  000cb	83 c4 0c	 add	 esp, 12			; 0000000cH
; File C:\Program Files\Microsoft Visual Studio\2022\Professional\VC\Tools\MSVC\14.44.35207\include\vector

; 912  :             _STD _Uninitialized_move(_Whereptr, _Mylast, _Newvec + _Whereoff + 1, _Al);

  000ce	8d 53 04	 lea	 edx, DWORD PTR [ebx+4]
$LN52@Emplace_re:

; 913  :         }
; 914  : 
; 915  :         _Guard._New_begin = nullptr;

  000d1	52		 push	 edx
  000d2	50		 push	 eax
  000d3	51		 push	 ecx
  000d4	e8 00 00 00 00	 call	 ??$_Copy_memmove@PAHPAH@std@@YAPAHPAH00@Z ; std::_Copy_memmove<int *,int *>

; 2069 :         if (_Myfirst) { // destroy and deallocate old array

  000d9	8b 06		 mov	 eax, DWORD PTR [esi]

; 913  :         }
; 914  : 
; 915  :         _Guard._New_begin = nullptr;

  000db	83 c4 0c	 add	 esp, 12			; 0000000cH

; 2069 :         if (_Myfirst) { // destroy and deallocate old array

  000de	85 c0		 test	 eax, eax
  000e0	74 2c		 je	 SHORT $LN72@Emplace_re

; 2070 :             _STD _Destroy_range(_Myfirst, _Mylast, _Al);
; 2071 :             _ASAN_VECTOR_REMOVE;
; 2072 :             _Al.deallocate(_Myfirst, static_cast<size_type>(_Myend - _Myfirst));

  000e2	8b 4e 08	 mov	 ecx, DWORD PTR [esi+8]
  000e5	2b c8		 sub	 ecx, eax
; File C:\Program Files\Microsoft Visual Studio\2022\Professional\VC\Tools\MSVC\14.44.35207\include\xmemory

; 985  :         _STD _Deallocate<_New_alignof<_Ty>>(_Ptr, sizeof(_Ty) * _Count);

  000e7	83 e1 fc	 and	 ecx, -4			; fffffffcH

; 284  :         if (_Bytes >= _Big_allocation_threshold) {

  000ea	81 f9 00 10 00
	00		 cmp	 ecx, 4096		; 00001000H
  000f0	72 12		 jb	 SHORT $LN77@Emplace_re

; 205  :     const uintptr_t _Ptr_container   = _Ptr_user[-1];

  000f2	8b 50 fc	 mov	 edx, DWORD PTR [eax-4]
  000f5	83 c1 23	 add	 ecx, 35			; 00000023H

; 206  : 
; 207  :     // If the following asserts, it likely means that we are performing
; 208  :     // an aligned delete on memory coming from an unaligned allocation.
; 209  :     _STL_ASSERT(_Ptr_user[-2] == _Big_allocation_sentinel, "invalid argument");
; 210  : 
; 211  :     // Extra paranoia on aligned allocation/deallocation; ensure _Ptr_container is
; 212  :     // in range [_Min_back_shift, _Non_user_size]
; 213  : #ifdef _DEBUG
; 214  :     constexpr uintptr_t _Min_back_shift = 2 * sizeof(void*);
; 215  : #else // ^^^ defined(_DEBUG) / !defined(_DEBUG) vvv
; 216  :     constexpr uintptr_t _Min_back_shift = sizeof(void*);
; 217  : #endif // ^^^ !defined(_DEBUG) ^^^
; 218  :     const uintptr_t _Back_shift = reinterpret_cast<uintptr_t>(_Ptr) - _Ptr_container;

  000f8	2b c2		 sub	 eax, edx

; 219  :     _STL_VERIFY(_Back_shift >= _Min_back_shift && _Back_shift <= _Non_user_size, "invalid argument");

  000fa	83 c0 fc	 add	 eax, -4			; fffffffcH
  000fd	83 f8 1f	 cmp	 eax, 31			; 0000001fH
  00100	77 2a		 ja	 SHORT $LN76@Emplace_re

; 220  :     _Ptr = reinterpret_cast<void*>(_Ptr_container);

  00102	8b c2		 mov	 eax, edx
$LN77@Emplace_re:

; 289  :         ::operator delete(_Ptr, _Bytes);

  00104	51		 push	 ecx
  00105	50		 push	 eax
  00106	e8 00 00 00 00	 call	 ??3@YAXPAXI@Z		; operator delete
  0010b	83 c4 08	 add	 esp, 8
$LN72@Emplace_re:
; File C:\Program Files\Microsoft Visual Studio\2022\Professional\VC\Tools\MSVC\14.44.35207\include\vector

; 2076 :         _Mylast  = _Newvec + _Newsize;

  0010e	8b 45 f4	 mov	 eax, DWORD PTR __Newsize$1$[ebp]
  00111	89 3e		 mov	 DWORD PTR [esi], edi
  00113	8d 0c 87	 lea	 ecx, DWORD PTR [edi+eax*4]

; 916  :         _Change_array(_Newvec, _Newsize, _Newcapacity);
; 917  :         return _Newvec + _Whereoff;

  00116	8b c3		 mov	 eax, ebx

; 2076 :         _Mylast  = _Newvec + _Newsize;

  00118	89 4e 04	 mov	 DWORD PTR [esi+4], ecx

; 2077 :         _Myend   = _Newvec + _Newcapacity;

  0011b	8b 4d f8	 mov	 ecx, DWORD PTR tv652[ebp]
  0011e	03 cf		 add	 ecx, edi

; 918  :     }

  00120	5f		 pop	 edi

; 2077 :         _Myend   = _Newvec + _Newcapacity;

  00121	89 4e 08	 mov	 DWORD PTR [esi+8], ecx

; 918  :     }

  00124	5e		 pop	 esi
  00125	5b		 pop	 ebx
  00126	8b e5		 mov	 esp, ebp
  00128	5d		 pop	 ebp
  00129	c2 08 00	 ret	 8
$LN76@Emplace_re:
; File C:\Program Files\Microsoft Visual Studio\2022\Professional\VC\Tools\MSVC\14.44.35207\include\xmemory

; 219  :     _STL_VERIFY(_Back_shift >= _Min_back_shift && _Back_shift <= _Non_user_size, "invalid argument");

  0012c	6a 00		 push	 0
  0012e	6a 00		 push	 0
  00130	6a 00		 push	 0
  00132	6a 00		 push	 0
  00134	6a 00		 push	 0
  00136	e8 00 00 00 00	 call	 __invoke_watson
$LN111@Emplace_re:
; File C:\Program Files\Microsoft Visual Studio\2022\Professional\VC\Tools\MSVC\14.44.35207\include\vector

; 888  :             _Xlength();

  0013b	e8 00 00 00 00	 call	 ?_Xlength@?$vector@HV?$allocator@H@std@@@std@@CAXXZ ; std::vector<int,std::allocator<int> >::_Xlength
$LN112@Emplace_re:
; File C:\Program Files\Microsoft Visual Studio\2022\Professional\VC\Tools\MSVC\14.44.35207\include\xmemory

; 118  :             _Throw_bad_array_new_length(); // multiply overflow

  00140	e8 00 00 00 00	 call	 ?_Throw_bad_array_new_length@std@@YAXXZ ; std::_Throw_bad_array_new_length
$LN108@Emplace_re:
  00145	cc		 int	 3
??$_Emplace_reallocate@ABH@?$vector@HV?$allocator@H@std@@@std@@AAEPAHQAHABH@Z ENDP ; std::vector<int,std::allocator<int> >::_Emplace_reallocate<int const &>
_TEXT	ENDS
; Function compile flags: /Ogtp
; File C:\Program Files\Microsoft Visual Studio\2022\Professional\VC\Tools\MSVC\14.44.35207\include\vector
; File C:\Program Files\Microsoft Visual Studio\2022\Professional\VC\Tools\MSVC\14.44.35207\include\xmemory
; File C:\Program Files\Microsoft Visual Studio\2022\Professional\VC\Tools\MSVC\14.44.35207\include\vector
; File C:\Program Files\Microsoft Visual Studio\2022\Professional\VC\Tools\MSVC\14.44.35207\include\xmemory
; File C:\Program Files\Microsoft Visual Studio\2022\Professional\VC\Tools\MSVC\14.44.35207\include\vector
; File C:\Program Files\Microsoft Visual Studio\2022\Professional\VC\Tools\MSVC\14.44.35207\include\xmemory
; File C:\Program Files\Microsoft Visual Studio\2022\Professional\VC\Tools\MSVC\14.44.35207\include\vector
; File C:\Program Files\Microsoft Visual Studio\2022\Professional\VC\Tools\MSVC\14.44.35207\include\xmemory
; File C:\Program Files\Microsoft Visual Studio\2022\Professional\VC\Tools\MSVC\14.44.35207\include\vector
; File C:\Program Files\Microsoft Visual Studio\2022\Professional\VC\Tools\MSVC\14.44.35207\include\xmemory
; File C:\Program Files\Microsoft Visual Studio\2022\Professional\VC\Tools\MSVC\14.44.35207\include\vector
; File C:\Program Files\Microsoft Visual Studio\2022\Professional\VC\Tools\MSVC\14.44.35207\include\xmemory
; File C:\Program Files\Microsoft Visual Studio\2022\Professional\VC\Tools\MSVC\14.44.35207\include\vector
; File C:\Program Files\Microsoft Visual Studio\2022\Professional\VC\Tools\MSVC\14.44.35207\include\xmemory
; File C:\Program Files\Microsoft Visual Studio\2022\Professional\VC\Tools\MSVC\14.44.35207\include\vector
; File C:\Program Files\Microsoft Visual Studio\2022\Professional\VC\Tools\MSVC\14.44.35207\include\xmemory
; File C:\Program Files\Microsoft Visual Studio\2022\Professional\VC\Tools\MSVC\14.44.35207\include\vector
; File C:\Program Files\Microsoft Visual Studio\2022\Professional\VC\Tools\MSVC\14.44.35207\include\xmemory
; File C:\Program Files\Microsoft Visual Studio\2022\Professional\VC\Tools\MSVC\14.44.35207\include\vector
;	COMDAT ??$_Emplace_reallocate@ABU_COUPLE_ITEM@@@?$vector@U_COUPLE_ITEM@@V?$allocator@U_COUPLE_ITEM@@@std@@@std@@AAEPAU_COUPLE_ITEM@@QAU2@ABU2@@Z
_TEXT	SEGMENT
__Oldsize$1$ = -12					; size = 4
__Whereoff$1$ = -8					; size = 4
tv650 = -8						; size = 4
tv652 = -4						; size = 4
__Whereptr$ = 8						; size = 4
_<_Val_0>$ = 12						; size = 4
??$_Emplace_reallocate@ABU_COUPLE_ITEM@@@?$vector@U_COUPLE_ITEM@@V?$allocator@U_COUPLE_ITEM@@@std@@@std@@AAEPAU_COUPLE_ITEM@@QAU2@ABU2@@Z PROC ; std::vector<_COUPLE_ITEM,std::allocator<_COUPLE_ITEM> >::_Emplace_reallocate<_COUPLE_ITEM const &>, COMDAT
; _this$ = ecx

; 875  :     _CONSTEXPR20 pointer _Emplace_reallocate(const pointer _Whereptr, _Valty&&... _Val) {

  00000	55		 push	 ebp
  00001	8b ec		 mov	 ebp, esp
  00003	83 ec 0c	 sub	 esp, 12			; 0000000cH

; 876  :         // reallocate and insert by perfectly forwarding _Val at _Whereptr
; 877  :         _Alty& _Al        = _Getal();
; 878  :         auto& _My_data    = _Mypair._Myval2;
; 879  :         pointer& _Myfirst = _My_data._Myfirst;
; 880  :         pointer& _Mylast  = _My_data._Mylast;
; 881  : 
; 882  :         _STL_INTERNAL_CHECK(_Mylast == _My_data._Myend); // check that we have no unused capacity
; 883  : 
; 884  :         const auto _Whereoff = static_cast<size_type>(_Whereptr - _Myfirst);

  00006	8b 55 08	 mov	 edx, DWORD PTR __Whereptr$[ebp]
  00009	b8 67 66 66 66	 mov	 eax, 1717986919		; 66666667H
  0000e	53		 push	 ebx
  0000f	8b d9		 mov	 ebx, ecx
  00011	57		 push	 edi
  00012	8b 3b		 mov	 edi, DWORD PTR [ebx]
  00014	2b d7		 sub	 edx, edi

; 885  :         const auto _Oldsize  = static_cast<size_type>(_Mylast - _Myfirst);

  00016	8b 4b 04	 mov	 ecx, DWORD PTR [ebx+4]
  00019	f7 ea		 imul	 edx
  0001b	2b cf		 sub	 ecx, edi
  0001d	c1 fa 03	 sar	 edx, 3
  00020	8b c2		 mov	 eax, edx
  00022	c1 e8 1f	 shr	 eax, 31			; 0000001fH
  00025	03 c2		 add	 eax, edx
  00027	89 45 f8	 mov	 DWORD PTR __Whereoff$1$[ebp], eax
  0002a	b8 67 66 66 66	 mov	 eax, 1717986919		; 66666667H
  0002f	f7 e9		 imul	 ecx
  00031	c1 fa 03	 sar	 edx, 3
  00034	8b c2		 mov	 eax, edx
  00036	c1 e8 1f	 shr	 eax, 31			; 0000001fH
  00039	03 c2		 add	 eax, edx
  0003b	89 45 f4	 mov	 DWORD PTR __Oldsize$1$[ebp], eax

; 886  : 
; 887  :         if (_Oldsize == max_size()) {

  0003e	3d cc cc cc 0c	 cmp	 eax, 214748364		; 0cccccccH
  00043	0f 84 42 01 00
	00		 je	 $LN119@Emplace_re

; 1924 :         return static_cast<size_type>(_My_data._Myend - _My_data._Myfirst);

  00049	8b 4b 08	 mov	 ecx, DWORD PTR [ebx+8]
  0004c	2b cf		 sub	 ecx, edi
  0004e	56		 push	 esi

; 889  :         }
; 890  : 
; 891  :         const size_type _Newsize = _Oldsize + 1;

  0004f	8d 70 01	 lea	 esi, DWORD PTR [eax+1]

; 1924 :         return static_cast<size_type>(_My_data._Myend - _My_data._Myfirst);

  00052	b8 67 66 66 66	 mov	 eax, 1717986919		; 66666667H
  00057	f7 e9		 imul	 ecx

; 2011 :         if (_Oldcapacity > _Max - _Oldcapacity / 2) {

  00059	b8 cc cc cc 0c	 mov	 eax, 214748364		; 0cccccccH

; 1924 :         return static_cast<size_type>(_My_data._Myend - _My_data._Myfirst);

  0005e	c1 fa 03	 sar	 edx, 3
  00061	8b ca		 mov	 ecx, edx
  00063	c1 e9 1f	 shr	 ecx, 31			; 0000001fH
  00066	03 ca		 add	 ecx, edx

; 2011 :         if (_Oldcapacity > _Max - _Oldcapacity / 2) {

  00068	8b d1		 mov	 edx, ecx
  0006a	d1 ea		 shr	 edx, 1
  0006c	2b c2		 sub	 eax, edx
  0006e	3b c8		 cmp	 ecx, eax
  00070	76 14		 jbe	 SHORT $LN8@Emplace_re

; 2012 :             return _Max; // geometric growth would overflow

  00072	b8 f0 ff ff ff	 mov	 eax, -16		; fffffff0H
  00077	c7 45 fc f0 ff
	ff ff		 mov	 DWORD PTR tv652[ebp], -16 ; fffffff0H
; File C:\Program Files\Microsoft Visual Studio\2022\Professional\VC\Tools\MSVC\14.44.35207\include\xmemory

; 253  :             return _Allocate_manually_vector_aligned<_Traits>(_Bytes);

  0007e	50		 push	 eax
  0007f	e8 00 00 00 00	 call	 ??$_Allocate_manually_vector_aligned@U_Default_allocate_traits@std@@@std@@YAPAXI@Z ; std::_Allocate_manually_vector_aligned<std::_Default_allocate_traits>
  00084	eb 3e		 jmp	 SHORT $LN117@Emplace_re
$LN8@Emplace_re:
; File C:\Program Files\Microsoft Visual Studio\2022\Professional\VC\Tools\MSVC\14.44.35207\include\vector

; 2015 :         const size_type _Geometric = _Oldcapacity + _Oldcapacity / 2;

  00086	8d 04 0a	 lea	 eax, DWORD PTR [edx+ecx]
; File C:\Program Files\Microsoft Visual Studio\2022\Professional\VC\Tools\MSVC\14.44.35207\include\xmemory

; 117  :         if (_Count > _Max_possible) {

  00089	8b ce		 mov	 ecx, esi
  0008b	3b c6		 cmp	 eax, esi
  0008d	0f 43 c8	 cmovae	 ecx, eax
  00090	81 f9 cc cc cc
	0c		 cmp	 ecx, 214748364		; 0cccccccH
  00096	0f 87 f4 00 00
	00		 ja	 $LN120@Emplace_re

; 119  :         }
; 120  :     }
; 121  : 
; 122  :     return _Count * _Ty_size;

  0009c	8d 34 89	 lea	 esi, DWORD PTR [ecx+ecx*4]
  0009f	c1 e6 02	 shl	 esi, 2

; 990  :         return static_cast<_Ty*>(_STD _Allocate<_New_alignof<_Ty>>(_Get_size_of_n<sizeof(_Ty)>(_Count)));

  000a2	8b c6		 mov	 eax, esi

; 122  :     return _Count * _Ty_size;

  000a4	89 75 fc	 mov	 DWORD PTR tv652[ebp], esi

; 227  :     if (_Bytes == 0) {

  000a7	85 c0		 test	 eax, eax
  000a9	75 04		 jne	 SHORT $LN23@Emplace_re

; 228  :         return nullptr;

  000ab	33 ff		 xor	 edi, edi
  000ad	eb 1a		 jmp	 SHORT $LN22@Emplace_re
$LN23@Emplace_re:

; 229  :     }
; 230  : 
; 231  : #if _HAS_CXX20 // TRANSITION, GH-1532
; 232  :     if (_STD is_constant_evaluated()) {
; 233  :         return _Traits::_Allocate(_Bytes);
; 234  :     }
; 235  : #endif // _HAS_CXX20
; 236  : 
; 237  : #ifdef __cpp_aligned_new
; 238  :     if constexpr (_Align > __STDCPP_DEFAULT_NEW_ALIGNMENT__) {
; 239  :         size_t _Passed_align = _Align;
; 240  : #if defined(_M_IX86) || defined(_M_X64)
; 241  :         if (_Bytes >= _Big_allocation_threshold) {
; 242  :             // boost the alignment of big allocations to help autovectorization
; 243  :             _Passed_align = (_STD max)(_Align, _Big_allocation_alignment);
; 244  :         }
; 245  : #endif // defined(_M_IX86) || defined(_M_X64)
; 246  :         return _Traits::_Allocate_aligned(_Bytes, _Passed_align);
; 247  :     } else
; 248  : #endif // defined(__cpp_aligned_new)
; 249  :     {
; 250  : #if defined(_M_IX86) || defined(_M_X64)
; 251  :         if (_Bytes >= _Big_allocation_threshold) {

  000af	3d 00 10 00 00	 cmp	 eax, 4096		; 00001000H
  000b4	72 08		 jb	 SHORT $LN24@Emplace_re

; 253  :             return _Allocate_manually_vector_aligned<_Traits>(_Bytes);

  000b6	50		 push	 eax
  000b7	e8 00 00 00 00	 call	 ??$_Allocate_manually_vector_aligned@U_Default_allocate_traits@std@@@std@@YAPAXI@Z ; std::_Allocate_manually_vector_aligned<std::_Default_allocate_traits>
  000bc	eb 06		 jmp	 SHORT $LN117@Emplace_re
$LN24@Emplace_re:

; 136  :         return ::operator new(_Bytes);

  000be	50		 push	 eax
  000bf	e8 00 00 00 00	 call	 ??2@YAPAXI@Z		; operator new
$LN117@Emplace_re:
; File C:\Program Files\Microsoft Visual Studio\2022\Professional\VC\Tools\MSVC\14.44.35207\include\vector

; 900  :         _Alty_traits::construct(_Al, _STD _Unfancy(_Newvec + _Whereoff), _STD forward<_Valty>(_Val)...);

  000c4	8b f8		 mov	 edi, eax
  000c6	83 c4 04	 add	 esp, 4
$LN22@Emplace_re:
  000c9	8b 45 f8	 mov	 eax, DWORD PTR __Whereoff$1$[ebp]

; 903  :         if (_Whereptr == _Mylast) { // at back, provide strong guarantee

  000cc	8b 55 08	 mov	 edx, DWORD PTR __Whereptr$[ebp]
  000cf	8d 04 80	 lea	 eax, DWORD PTR [eax+eax*4]
  000d2	8d 34 87	 lea	 esi, DWORD PTR [edi+eax*4]
; File C:\Program Files\Microsoft Visual Studio\2022\Professional\VC\Tools\MSVC\14.44.35207\include\xmemory

; 732  :         ::new (const_cast<void*>(static_cast<const volatile void*>(_Ptr))) _Objty(_STD forward<_Types>(_Args)...);

  000d5	8b 45 0c	 mov	 eax, DWORD PTR _<_Val_0>$[ebp]
; File C:\Program Files\Microsoft Visual Studio\2022\Professional\VC\Tools\MSVC\14.44.35207\include\vector

; 900  :         _Alty_traits::construct(_Al, _STD _Unfancy(_Newvec + _Whereoff), _STD forward<_Valty>(_Val)...);

  000d8	89 75 f8	 mov	 DWORD PTR tv650[ebp], esi
; File C:\Program Files\Microsoft Visual Studio\2022\Professional\VC\Tools\MSVC\14.44.35207\include\xmemory

; 732  :         ::new (const_cast<void*>(static_cast<const volatile void*>(_Ptr))) _Objty(_STD forward<_Types>(_Args)...);

  000db	0f 10 00	 movups	 xmm0, XMMWORD PTR [eax]
  000de	0f 11 06	 movups	 XMMWORD PTR [esi], xmm0
  000e1	8b 40 10	 mov	 eax, DWORD PTR [eax+16]
  000e4	89 46 10	 mov	 DWORD PTR [esi+16], eax
; File C:\Program Files\Microsoft Visual Studio\2022\Professional\VC\Tools\MSVC\14.44.35207\include\vector

; 903  :         if (_Whereptr == _Mylast) { // at back, provide strong guarantee

  000e7	8b 4b 04	 mov	 ecx, DWORD PTR [ebx+4]
  000ea	8b 03		 mov	 eax, DWORD PTR [ebx]
  000ec	3b d1		 cmp	 edx, ecx
  000ee	75 04		 jne	 SHORT $LN3@Emplace_re
; File C:\Program Files\Microsoft Visual Studio\2022\Professional\VC\Tools\MSVC\14.44.35207\include\xmemory

; 1992 :             _STD _Copy_memmove(_UFirst, _ULast, _STD _Unfancy(_Dest));

  000f0	8b f7		 mov	 esi, edi
; File C:\Program Files\Microsoft Visual Studio\2022\Professional\VC\Tools\MSVC\14.44.35207\include\vector

; 909  :         } else { // provide basic guarantee

  000f2	eb 14		 jmp	 SHORT $LN58@Emplace_re
$LN3@Emplace_re:
; File C:\Program Files\Microsoft Visual Studio\2022\Professional\VC\Tools\MSVC\14.44.35207\include\xmemory

; 1992 :             _STD _Copy_memmove(_UFirst, _ULast, _STD _Unfancy(_Dest));

  000f4	57		 push	 edi
  000f5	52		 push	 edx
  000f6	50		 push	 eax
  000f7	e8 00 00 00 00	 call	 ??$_Copy_memmove@PAU_COUPLE_ITEM@@PAU1@@std@@YAPAU_COUPLE_ITEM@@PAU1@00@Z ; std::_Copy_memmove<_COUPLE_ITEM *,_COUPLE_ITEM *>
  000fc	8b 45 08	 mov	 eax, DWORD PTR __Whereptr$[ebp]
  000ff	83 c4 0c	 add	 esp, 12			; 0000000cH
  00102	8b 4b 04	 mov	 ecx, DWORD PTR [ebx+4]
; File C:\Program Files\Microsoft Visual Studio\2022\Professional\VC\Tools\MSVC\14.44.35207\include\vector

; 912  :             _STD _Uninitialized_move(_Whereptr, _Mylast, _Newvec + _Whereoff + 1, _Al);

  00105	83 c6 14	 add	 esi, 20			; 00000014H
$LN58@Emplace_re:

; 913  :         }
; 914  : 
; 915  :         _Guard._New_begin = nullptr;

  00108	56		 push	 esi
  00109	51		 push	 ecx
  0010a	50		 push	 eax
  0010b	e8 00 00 00 00	 call	 ??$_Copy_memmove@PAU_COUPLE_ITEM@@PAU1@@std@@YAPAU_COUPLE_ITEM@@PAU1@00@Z ; std::_Copy_memmove<_COUPLE_ITEM *,_COUPLE_ITEM *>

; 2069 :         if (_Myfirst) { // destroy and deallocate old array

  00110	8b 33		 mov	 esi, DWORD PTR [ebx]

; 913  :         }
; 914  : 
; 915  :         _Guard._New_begin = nullptr;

  00112	83 c4 0c	 add	 esp, 12			; 0000000cH

; 2069 :         if (_Myfirst) { // destroy and deallocate old array

  00115	85 f6		 test	 esi, esi
  00117	74 40		 je	 SHORT $LN80@Emplace_re

; 2070 :             _STD _Destroy_range(_Myfirst, _Mylast, _Al);
; 2071 :             _ASAN_VECTOR_REMOVE;
; 2072 :             _Al.deallocate(_Myfirst, static_cast<size_type>(_Myend - _Myfirst));

  00119	8b 4b 08	 mov	 ecx, DWORD PTR [ebx+8]
  0011c	b8 67 66 66 66	 mov	 eax, 1717986919		; 66666667H
  00121	2b ce		 sub	 ecx, esi
  00123	f7 e9		 imul	 ecx
  00125	c1 fa 03	 sar	 edx, 3
  00128	8b c2		 mov	 eax, edx
  0012a	c1 e8 1f	 shr	 eax, 31			; 0000001fH
  0012d	03 c2		 add	 eax, edx
; File C:\Program Files\Microsoft Visual Studio\2022\Professional\VC\Tools\MSVC\14.44.35207\include\xmemory

; 985  :         _STD _Deallocate<_New_alignof<_Ty>>(_Ptr, sizeof(_Ty) * _Count);

  0012f	8d 0c 80	 lea	 ecx, DWORD PTR [eax+eax*4]
  00132	c1 e1 02	 shl	 ecx, 2

; 284  :         if (_Bytes >= _Big_allocation_threshold) {

  00135	81 f9 00 10 00
	00		 cmp	 ecx, 4096		; 00001000H
  0013b	72 12		 jb	 SHORT $LN85@Emplace_re

; 205  :     const uintptr_t _Ptr_container   = _Ptr_user[-1];

  0013d	8b 56 fc	 mov	 edx, DWORD PTR [esi-4]
  00140	83 c1 23	 add	 ecx, 35			; 00000023H

; 206  : 
; 207  :     // If the following asserts, it likely means that we are performing
; 208  :     // an aligned delete on memory coming from an unaligned allocation.
; 209  :     _STL_ASSERT(_Ptr_user[-2] == _Big_allocation_sentinel, "invalid argument");
; 210  : 
; 211  :     // Extra paranoia on aligned allocation/deallocation; ensure _Ptr_container is
; 212  :     // in range [_Min_back_shift, _Non_user_size]
; 213  : #ifdef _DEBUG
; 214  :     constexpr uintptr_t _Min_back_shift = 2 * sizeof(void*);
; 215  : #else // ^^^ defined(_DEBUG) / !defined(_DEBUG) vvv
; 216  :     constexpr uintptr_t _Min_back_shift = sizeof(void*);
; 217  : #endif // ^^^ !defined(_DEBUG) ^^^
; 218  :     const uintptr_t _Back_shift = reinterpret_cast<uintptr_t>(_Ptr) - _Ptr_container;

  00143	2b f2		 sub	 esi, edx

; 219  :     _STL_VERIFY(_Back_shift >= _Min_back_shift && _Back_shift <= _Non_user_size, "invalid argument");

  00145	8d 46 fc	 lea	 eax, DWORD PTR [esi-4]
  00148	83 f8 1f	 cmp	 eax, 31			; 0000001fH
  0014b	77 2f		 ja	 SHORT $LN84@Emplace_re

; 220  :     _Ptr = reinterpret_cast<void*>(_Ptr_container);

  0014d	8b f2		 mov	 esi, edx
$LN85@Emplace_re:

; 289  :         ::operator delete(_Ptr, _Bytes);

  0014f	51		 push	 ecx
  00150	56		 push	 esi
  00151	e8 00 00 00 00	 call	 ??3@YAXPAXI@Z		; operator delete
  00156	83 c4 08	 add	 esp, 8
$LN80@Emplace_re:
; File C:\Program Files\Microsoft Visual Studio\2022\Professional\VC\Tools\MSVC\14.44.35207\include\vector

; 2076 :         _Mylast  = _Newvec + _Newsize;

  00159	8b 45 f4	 mov	 eax, DWORD PTR __Oldsize$1$[ebp]
  0015c	40		 inc	 eax
  0015d	89 3b		 mov	 DWORD PTR [ebx], edi

; 916  :         _Change_array(_Newvec, _Newsize, _Newcapacity);
; 917  :         return _Newvec + _Whereoff;

  0015f	5e		 pop	 esi

; 2076 :         _Mylast  = _Newvec + _Newsize;

  00160	8d 0c 80	 lea	 ecx, DWORD PTR [eax+eax*4]

; 916  :         _Change_array(_Newvec, _Newsize, _Newcapacity);
; 917  :         return _Newvec + _Whereoff;

  00163	8b 45 f8	 mov	 eax, DWORD PTR tv650[ebp]

; 2076 :         _Mylast  = _Newvec + _Newsize;

  00166	8d 0c 8f	 lea	 ecx, DWORD PTR [edi+ecx*4]
  00169	89 4b 04	 mov	 DWORD PTR [ebx+4], ecx

; 2077 :         _Myend   = _Newvec + _Newcapacity;

  0016c	8b 4d fc	 mov	 ecx, DWORD PTR tv652[ebp]
  0016f	03 cf		 add	 ecx, edi

; 918  :     }

  00171	5f		 pop	 edi

; 2077 :         _Myend   = _Newvec + _Newcapacity;

  00172	89 4b 08	 mov	 DWORD PTR [ebx+8], ecx

; 918  :     }

  00175	5b		 pop	 ebx
  00176	8b e5		 mov	 esp, ebp
  00178	5d		 pop	 ebp
  00179	c2 08 00	 ret	 8
$LN84@Emplace_re:
; File C:\Program Files\Microsoft Visual Studio\2022\Professional\VC\Tools\MSVC\14.44.35207\include\xmemory

; 219  :     _STL_VERIFY(_Back_shift >= _Min_back_shift && _Back_shift <= _Non_user_size, "invalid argument");

  0017c	6a 00		 push	 0
  0017e	6a 00		 push	 0
  00180	6a 00		 push	 0
  00182	6a 00		 push	 0
  00184	6a 00		 push	 0
  00186	e8 00 00 00 00	 call	 __invoke_watson
$LN119@Emplace_re:
; File C:\Program Files\Microsoft Visual Studio\2022\Professional\VC\Tools\MSVC\14.44.35207\include\vector

; 888  :             _Xlength();

  0018b	e8 00 00 00 00	 call	 ?_Xlength@?$vector@U_COUPLE_ITEM@@V?$allocator@U_COUPLE_ITEM@@@std@@@std@@CAXXZ ; std::vector<_COUPLE_ITEM,std::allocator<_COUPLE_ITEM> >::_Xlength
$LN120@Emplace_re:
; File C:\Program Files\Microsoft Visual Studio\2022\Professional\VC\Tools\MSVC\14.44.35207\include\xmemory

; 118  :             _Throw_bad_array_new_length(); // multiply overflow

  00190	e8 00 00 00 00	 call	 ?_Throw_bad_array_new_length@std@@YAXXZ ; std::_Throw_bad_array_new_length
$LN116@Emplace_re:
  00195	cc		 int	 3
??$_Emplace_reallocate@ABU_COUPLE_ITEM@@@?$vector@U_COUPLE_ITEM@@V?$allocator@U_COUPLE_ITEM@@@std@@@std@@AAEPAU_COUPLE_ITEM@@QAU2@ABU2@@Z ENDP ; std::vector<_COUPLE_ITEM,std::allocator<_COUPLE_ITEM> >::_Emplace_reallocate<_COUPLE_ITEM const &>
_TEXT	ENDS
; Function compile flags: /Ogtp
; File C:\Program Files\Microsoft Visual Studio\2022\Professional\VC\Tools\MSVC\14.44.35207\include\xmemory
; File C:\Program Files\Microsoft Visual Studio\2022\Professional\VC\Tools\MSVC\14.44.35207\include\vector
; File C:\Program Files\Microsoft Visual Studio\2022\Professional\VC\Tools\MSVC\14.44.35207\include\xmemory
;	COMDAT ??$_Uninitialized_value_construct_n@V?$allocator@V?$vector@U_COUPLE_ITEM@@V?$allocator@U_COUPLE_ITEM@@@std@@@std@@@std@@@std@@YAPAV?$vector@U_COUPLE_ITEM@@V?$allocator@U_COUPLE_ITEM@@@std@@@0@PAV10@IAAV?$allocator@V?$vector@U_COUPLE_ITEM@@V?$allocator@U_COUPLE_ITEM@@@std@@@std@@@0@@Z
_TEXT	SEGMENT
__First$ = 8						; size = 4
__Count$ = 12						; size = 4
__Al$ = 16						; size = 4
??$_Uninitialized_value_construct_n@V?$allocator@V?$vector@U_COUPLE_ITEM@@V?$allocator@U_COUPLE_ITEM@@@std@@@std@@@std@@@std@@YAPAV?$vector@U_COUPLE_ITEM@@V?$allocator@U_COUPLE_ITEM@@@std@@@0@PAV10@IAAV?$allocator@V?$vector@U_COUPLE_ITEM@@V?$allocator@U_COUPLE_ITEM@@@std@@@std@@@0@@Z PROC ; std::_Uninitialized_value_construct_n<std::allocator<std::vector<_COUPLE_ITEM,std::allocator<_COUPLE_ITEM> > > >, COMDAT

; 2078 :     _Alloc_ptr_t<_Alloc> _First, _Alloc_size_t<_Alloc> _Count, _Alloc& _Al) {

  00000	55		 push	 ebp
  00001	8b ec		 mov	 ebp, esp

; 2079 :     // value-initialize _Count objects to raw _First, using _Al
; 2080 :     using _Ptrty = typename _Alloc::value_type*;
; 2081 :     if constexpr (_Use_memset_value_construct_v<_Ptrty> && _Uses_default_construct<_Alloc, _Ptrty>::value) {
; 2082 : #if _HAS_CXX20
; 2083 :         if (!_STD is_constant_evaluated())
; 2084 : #endif // _HAS_CXX20
; 2085 :         {
; 2086 :             auto _PFirst = _Unfancy(_First);
; 2087 :             _Zero_range(_PFirst, _PFirst + _Count);
; 2088 :             return _First + _Count;
; 2089 :         }
; 2090 :     }
; 2091 : 
; 2092 :     _Uninitialized_backout_al<_Alloc> _Backout{_First, _Al};
; 2093 :     for (; 0 < _Count; --_Count) {

  00003	8b 45 0c	 mov	 eax, DWORD PTR __Count$[ebp]
  00006	56		 push	 esi

; 1833 :     _CONSTEXPR20 _Uninitialized_backout_al(pointer _Dest, _Alloc& _Al_) : _First(_Dest), _Last(_Dest), _Al(_Al_) {}

  00007	8b 75 08	 mov	 esi, DWORD PTR __First$[ebp]

; 2079 :     // value-initialize _Count objects to raw _First, using _Al
; 2080 :     using _Ptrty = typename _Alloc::value_type*;
; 2081 :     if constexpr (_Use_memset_value_construct_v<_Ptrty> && _Uses_default_construct<_Alloc, _Ptrty>::value) {
; 2082 : #if _HAS_CXX20
; 2083 :         if (!_STD is_constant_evaluated())
; 2084 : #endif // _HAS_CXX20
; 2085 :         {
; 2086 :             auto _PFirst = _Unfancy(_First);
; 2087 :             _Zero_range(_PFirst, _PFirst + _Count);
; 2088 :             return _First + _Count;
; 2089 :         }
; 2090 :     }
; 2091 : 
; 2092 :     _Uninitialized_backout_al<_Alloc> _Backout{_First, _Al};
; 2093 :     for (; 0 < _Count; --_Count) {

  0000a	85 c0		 test	 eax, eax
  0000c	74 1e		 je	 SHORT $LN3@Uninitiali
  0000e	66 90		 npad	 2
$LL4@Uninitiali:
; File C:\Program Files\Microsoft Visual Studio\2022\Professional\VC\Tools\MSVC\14.44.35207\include\vector

; 400  :     _CONSTEXPR20 _Vector_val() noexcept : _Myfirst(), _Mylast(), _Myend() {}

  00010	c7 06 00 00 00
	00		 mov	 DWORD PTR [esi], 0
  00016	c7 46 04 00 00
	00 00		 mov	 DWORD PTR [esi+4], 0
  0001d	c7 46 08 00 00
	00 00		 mov	 DWORD PTR [esi+8], 0
; File C:\Program Files\Microsoft Visual Studio\2022\Professional\VC\Tools\MSVC\14.44.35207\include\xmemory

; 1845 :         ++_Last;

  00024	83 c6 0c	 add	 esi, 12			; 0000000cH

; 2079 :     // value-initialize _Count objects to raw _First, using _Al
; 2080 :     using _Ptrty = typename _Alloc::value_type*;
; 2081 :     if constexpr (_Use_memset_value_construct_v<_Ptrty> && _Uses_default_construct<_Alloc, _Ptrty>::value) {
; 2082 : #if _HAS_CXX20
; 2083 :         if (!_STD is_constant_evaluated())
; 2084 : #endif // _HAS_CXX20
; 2085 :         {
; 2086 :             auto _PFirst = _Unfancy(_First);
; 2087 :             _Zero_range(_PFirst, _PFirst + _Count);
; 2088 :             return _First + _Count;
; 2089 :         }
; 2090 :     }
; 2091 : 
; 2092 :     _Uninitialized_backout_al<_Alloc> _Backout{_First, _Al};
; 2093 :     for (; 0 < _Count; --_Count) {

  00027	83 e8 01	 sub	 eax, 1
  0002a	75 e4		 jne	 SHORT $LL4@Uninitiali
$LN3@Uninitiali:

; 1839 :         _STD _Destroy_range(_First, _Last, _Al);

  0002c	ff 75 10	 push	 DWORD PTR __Al$[ebp]
  0002f	56		 push	 esi
  00030	56		 push	 esi
  00031	e8 00 00 00 00	 call	 ??$_Destroy_range@V?$allocator@V?$vector@U_COUPLE_ITEM@@V?$allocator@U_COUPLE_ITEM@@@std@@@std@@@std@@@std@@YAXPAV?$vector@U_COUPLE_ITEM@@V?$allocator@U_COUPLE_ITEM@@@std@@@0@QAV10@AAV?$allocator@V?$vector@U_COUPLE_ITEM@@V?$allocator@U_COUPLE_ITEM@@@std@@@std@@@0@@Z ; std::_Destroy_range<std::allocator<std::vector<_COUPLE_ITEM,std::allocator<_COUPLE_ITEM> > > >
  00036	83 c4 0c	 add	 esp, 12			; 0000000cH

; 2094 :         _Backout._Emplace_back();
; 2095 :     }
; 2096 : 
; 2097 :     return _Backout._Release();

  00039	8b c6		 mov	 eax, esi
  0003b	5e		 pop	 esi

; 2098 : }

  0003c	5d		 pop	 ebp
  0003d	c3		 ret	 0
??$_Uninitialized_value_construct_n@V?$allocator@V?$vector@U_COUPLE_ITEM@@V?$allocator@U_COUPLE_ITEM@@@std@@@std@@@std@@@std@@YAPAV?$vector@U_COUPLE_ITEM@@V?$allocator@U_COUPLE_ITEM@@@std@@@0@PAV10@IAAV?$allocator@V?$vector@U_COUPLE_ITEM@@V?$allocator@U_COUPLE_ITEM@@@std@@@std@@@0@@Z ENDP ; std::_Uninitialized_value_construct_n<std::allocator<std::vector<_COUPLE_ITEM,std::allocator<_COUPLE_ITEM> > > >
_TEXT	ENDS
; Function compile flags: /Ogtp
; File C:\Program Files\Microsoft Visual Studio\2022\Professional\VC\Tools\MSVC\14.44.35207\include\vector
; File C:\Program Files\Microsoft Visual Studio\2022\Professional\VC\Tools\MSVC\14.44.35207\include\xmemory
; File C:\Program Files\Microsoft Visual Studio\2022\Professional\VC\Tools\MSVC\14.44.35207\include\vector
; File C:\Program Files\Microsoft Visual Studio\2022\Professional\VC\Tools\MSVC\14.44.35207\include\xmemory
; File C:\Program Files\Microsoft Visual Studio\2022\Professional\VC\Tools\MSVC\14.44.35207\include\vector
; File C:\Program Files\Microsoft Visual Studio\2022\Professional\VC\Tools\MSVC\14.44.35207\include\xmemory
; File C:\Program Files\Microsoft Visual Studio\2022\Professional\VC\Tools\MSVC\14.44.35207\include\vector
; File C:\Program Files\Microsoft Visual Studio\2022\Professional\VC\Tools\MSVC\14.44.35207\include\xmemory
; File C:\Program Files\Microsoft Visual Studio\2022\Professional\VC\Tools\MSVC\14.44.35207\include\utility
; File C:\Program Files\Microsoft Visual Studio\2022\Professional\VC\Tools\MSVC\14.44.35207\include\xmemory
; File C:\Program Files\Microsoft Visual Studio\2022\Professional\VC\Tools\MSVC\14.44.35207\include\vector
; File C:\Program Files\Microsoft Visual Studio\2022\Professional\VC\Tools\MSVC\14.44.35207\include\xmemory
; File C:\Program Files\Microsoft Visual Studio\2022\Professional\VC\Tools\MSVC\14.44.35207\include\vector
; File C:\Program Files\Microsoft Visual Studio\2022\Professional\VC\Tools\MSVC\14.44.35207\include\xmemory
; File C:\Program Files\Microsoft Visual Studio\2022\Professional\VC\Tools\MSVC\14.44.35207\include\vector
; File C:\Program Files\Microsoft Visual Studio\2022\Professional\VC\Tools\MSVC\14.44.35207\include\xmemory
; File C:\Program Files\Microsoft Visual Studio\2022\Professional\VC\Tools\MSVC\14.44.35207\include\vector
; File C:\Program Files\Microsoft Visual Studio\2022\Professional\VC\Tools\MSVC\14.44.35207\include\xmemory
; File C:\Program Files\Microsoft Visual Studio\2022\Professional\VC\Tools\MSVC\14.44.35207\include\vector
; File C:\Program Files\Microsoft Visual Studio\2022\Professional\VC\Tools\MSVC\14.44.35207\include\xmemory
; File C:\Program Files\Microsoft Visual Studio\2022\Professional\VC\Tools\MSVC\14.44.35207\include\vector
;	COMDAT ??$_Resize_reallocate@U_Value_init_tag@std@@@?$vector@V?$vector@U_COUPLE_ITEM@@V?$allocator@U_COUPLE_ITEM@@@std@@@std@@V?$allocator@V?$vector@U_COUPLE_ITEM@@V?$allocator@U_COUPLE_ITEM@@@std@@@std@@@2@@std@@AAEXIABU_Value_init_tag@1@@Z
_TEXT	SEGMENT
_this$1$ = -16						; size = 4
__Oldsize$1$ = -12					; size = 4
tv664 = -8						; size = 4
$T2 = -4						; size = 4
__Newsize$ = 8						; size = 4
__Val$ = 12						; size = 4
??$_Resize_reallocate@U_Value_init_tag@std@@@?$vector@V?$vector@U_COUPLE_ITEM@@V?$allocator@U_COUPLE_ITEM@@@std@@@std@@V?$allocator@V?$vector@U_COUPLE_ITEM@@V?$allocator@U_COUPLE_ITEM@@@std@@@std@@@2@@std@@AAEXIABU_Value_init_tag@1@@Z PROC ; std::vector<std::vector<_COUPLE_ITEM,std::allocator<_COUPLE_ITEM> >,std::allocator<std::vector<_COUPLE_ITEM,std::allocator<_COUPLE_ITEM> > > >::_Resize_reallocate<std::_Value_init_tag>, COMDAT
; _this$ = ecx

; 1552 :     _CONSTEXPR20 void _Resize_reallocate(const size_type _Newsize, const _Ty2& _Val) {

  00000	55		 push	 ebp
  00001	8b ec		 mov	 ebp, esp
  00003	83 ec 10	 sub	 esp, 16			; 00000010H
  00006	53		 push	 ebx
  00007	57		 push	 edi

; 1553 :         if (_Newsize > max_size()) {

  00008	8b 7d 08	 mov	 edi, DWORD PTR __Newsize$[ebp]
  0000b	8b d9		 mov	 ebx, ecx
  0000d	89 5d f0	 mov	 DWORD PTR _this$1$[ebp], ebx
  00010	81 ff 55 55 55
	15		 cmp	 edi, 357913941		; 15555555H
  00016	0f 87 88 01 00
	00		 ja	 $LN116@Resize_rea

; 1555 :         }
; 1556 : 
; 1557 :         auto& _Al         = _Getal();
; 1558 :         auto& _My_data    = _Mypair._Myval2;
; 1559 :         pointer& _Myfirst = _My_data._Myfirst;
; 1560 :         pointer& _Mylast  = _My_data._Mylast;
; 1561 : 
; 1562 :         const auto _Oldsize    = static_cast<size_type>(_Mylast - _Myfirst);

  0001c	8b 4b 04	 mov	 ecx, DWORD PTR [ebx+4]
  0001f	b8 ab aa aa 2a	 mov	 eax, 715827883		; 2aaaaaabH
  00024	2b 0b		 sub	 ecx, DWORD PTR [ebx]
  00026	f7 e9		 imul	 ecx

; 1924 :         return static_cast<size_type>(_My_data._Myend - _My_data._Myfirst);

  00028	8b 4b 08	 mov	 ecx, DWORD PTR [ebx+8]
  0002b	2b 0b		 sub	 ecx, DWORD PTR [ebx]

; 1555 :         }
; 1556 : 
; 1557 :         auto& _Al         = _Getal();
; 1558 :         auto& _My_data    = _Mypair._Myval2;
; 1559 :         pointer& _Myfirst = _My_data._Myfirst;
; 1560 :         pointer& _Mylast  = _My_data._Mylast;
; 1561 : 
; 1562 :         const auto _Oldsize    = static_cast<size_type>(_Mylast - _Myfirst);

  0002d	d1 fa		 sar	 edx, 1
  0002f	8b c2		 mov	 eax, edx
  00031	c1 e8 1f	 shr	 eax, 31			; 0000001fH
  00034	03 c2		 add	 eax, edx
  00036	89 45 f4	 mov	 DWORD PTR __Oldsize$1$[ebp], eax

; 1924 :         return static_cast<size_type>(_My_data._Myend - _My_data._Myfirst);

  00039	b8 ab aa aa 2a	 mov	 eax, 715827883		; 2aaaaaabH
  0003e	f7 e9		 imul	 ecx

; 2011 :         if (_Oldcapacity > _Max - _Oldcapacity / 2) {

  00040	b8 55 55 55 15	 mov	 eax, 357913941		; 15555555H

; 1924 :         return static_cast<size_type>(_My_data._Myend - _My_data._Myfirst);

  00045	d1 fa		 sar	 edx, 1
  00047	8b ca		 mov	 ecx, edx
  00049	c1 e9 1f	 shr	 ecx, 31			; 0000001fH
  0004c	03 ca		 add	 ecx, edx

; 2011 :         if (_Oldcapacity > _Max - _Oldcapacity / 2) {

  0004e	8b d1		 mov	 edx, ecx
  00050	d1 ea		 shr	 edx, 1
  00052	2b c2		 sub	 eax, edx
  00054	56		 push	 esi
  00055	3b c8		 cmp	 ecx, eax
  00057	76 19		 jbe	 SHORT $LN6@Resize_rea

; 2012 :             return _Max; // geometric growth would overflow

  00059	b8 fc ff ff ff	 mov	 eax, -4			; fffffffcH
  0005e	c7 45 f8 fc ff
	ff ff		 mov	 DWORD PTR tv664[ebp], -4 ; fffffffcH
; File C:\Program Files\Microsoft Visual Studio\2022\Professional\VC\Tools\MSVC\14.44.35207\include\xmemory

; 253  :             return _Allocate_manually_vector_aligned<_Traits>(_Bytes);

  00065	50		 push	 eax
  00066	e8 00 00 00 00	 call	 ??$_Allocate_manually_vector_aligned@U_Default_allocate_traits@std@@@std@@YAPAXI@Z ; std::_Allocate_manually_vector_aligned<std::_Default_allocate_traits>
  0006b	8b f0		 mov	 esi, eax
  0006d	89 75 fc	 mov	 DWORD PTR $T2[ebp], esi
  00070	eb 49		 jmp	 SHORT $LN114@Resize_rea
$LN6@Resize_rea:
; File C:\Program Files\Microsoft Visual Studio\2022\Professional\VC\Tools\MSVC\14.44.35207\include\vector

; 2015 :         const size_type _Geometric = _Oldcapacity + _Oldcapacity / 2;

  00072	8d 04 0a	 lea	 eax, DWORD PTR [edx+ecx]

; 2016 : 
; 2017 :         if (_Geometric < _Newsize) {

  00075	3b c7		 cmp	 eax, edi
  00077	73 16		 jae	 SHORT $LN7@Resize_rea

; 2018 :             return _Newsize; // geometric growth would be insufficient

  00079	8b c7		 mov	 eax, edi
$LN17@Resize_rea:
; File C:\Program Files\Microsoft Visual Studio\2022\Professional\VC\Tools\MSVC\14.44.35207\include\xmemory

; 122  :     return _Count * _Ty_size;

  0007b	8d 04 40	 lea	 eax, DWORD PTR [eax+eax*2]
  0007e	c1 e0 02	 shl	 eax, 2
  00081	89 45 f8	 mov	 DWORD PTR tv664[ebp], eax

; 227  :     if (_Bytes == 0) {

  00084	85 c0		 test	 eax, eax
  00086	75 14		 jne	 SHORT $LN21@Resize_rea

; 228  :         return nullptr;

  00088	33 f6		 xor	 esi, esi
  0008a	89 75 fc	 mov	 DWORD PTR $T2[ebp], esi
  0008d	eb 2f		 jmp	 SHORT $LN20@Resize_rea
$LN7@Resize_rea:

; 117  :         if (_Count > _Max_possible) {

  0008f	3d 55 55 55 15	 cmp	 eax, 357913941		; 15555555H
  00094	0f 87 0f 01 00
	00		 ja	 $LN117@Resize_rea
  0009a	eb df		 jmp	 SHORT $LN17@Resize_rea
$LN21@Resize_rea:

; 251  :         if (_Bytes >= _Big_allocation_threshold) {

  0009c	3d 00 10 00 00	 cmp	 eax, 4096		; 00001000H
  000a1	72 0d		 jb	 SHORT $LN22@Resize_rea

; 253  :             return _Allocate_manually_vector_aligned<_Traits>(_Bytes);

  000a3	50		 push	 eax
  000a4	e8 00 00 00 00	 call	 ??$_Allocate_manually_vector_aligned@U_Default_allocate_traits@std@@@std@@YAPAXI@Z ; std::_Allocate_manually_vector_aligned<std::_Default_allocate_traits>
  000a9	8b f0		 mov	 esi, eax
  000ab	89 75 fc	 mov	 DWORD PTR $T2[ebp], esi
  000ae	eb 0b		 jmp	 SHORT $LN114@Resize_rea
$LN22@Resize_rea:

; 136  :         return ::operator new(_Bytes);

  000b0	50		 push	 eax
  000b1	e8 00 00 00 00	 call	 ??2@YAPAXI@Z		; operator new

; 256  :         return _Traits::_Allocate(_Bytes);

  000b6	8b f0		 mov	 esi, eax
  000b8	89 45 fc	 mov	 DWORD PTR $T2[ebp], eax
$LN114@Resize_rea:
; File C:\Program Files\Microsoft Visual Studio\2022\Professional\VC\Tools\MSVC\14.44.35207\include\vector

; 1566 :         const pointer _Appended_first = _Newvec + _Oldsize;

  000bb	83 c4 04	 add	 esp, 4
$LN20@Resize_rea:
  000be	8b 55 f4	 mov	 edx, DWORD PTR __Oldsize$1$[ebp]

; 1575 :             _Appended_last = _Uninitialized_value_construct_n(_Appended_first, _Newsize - _Oldsize, _Al);

  000c1	53		 push	 ebx
  000c2	8d 04 52	 lea	 eax, DWORD PTR [edx+edx*2]
  000c5	8d 0c 86	 lea	 ecx, DWORD PTR [esi+eax*4]
  000c8	8b c7		 mov	 eax, edi
  000ca	2b c2		 sub	 eax, edx
  000cc	50		 push	 eax
  000cd	51		 push	 ecx
  000ce	e8 00 00 00 00	 call	 ??$_Uninitialized_value_construct_n@V?$allocator@V?$vector@U_COUPLE_ITEM@@V?$allocator@U_COUPLE_ITEM@@@std@@@std@@@std@@@std@@YAPAV?$vector@U_COUPLE_ITEM@@V?$allocator@U_COUPLE_ITEM@@@std@@@0@PAV10@IAAV?$allocator@V?$vector@U_COUPLE_ITEM@@V?$allocator@U_COUPLE_ITEM@@@std@@@std@@@0@@Z ; std::_Uninitialized_value_construct_n<std::allocator<std::vector<_COUPLE_ITEM,std::allocator<_COUPLE_ITEM> > > >
; File C:\Program Files\Microsoft Visual Studio\2022\Professional\VC\Tools\MSVC\14.44.35207\include\xmemory

; 1985 :     const auto _ULast = _STD _Get_unwrapped(_Last);

  000d3	8b 4b 04	 mov	 ecx, DWORD PTR [ebx+4]
; File C:\Program Files\Microsoft Visual Studio\2022\Professional\VC\Tools\MSVC\14.44.35207\include\vector

; 1575 :             _Appended_last = _Uninitialized_value_construct_n(_Appended_first, _Newsize - _Oldsize, _Al);

  000d6	83 c4 0c	 add	 esp, 12			; 0000000cH
  000d9	8b 03		 mov	 eax, DWORD PTR [ebx]
; File C:\Program Files\Microsoft Visual Studio\2022\Professional\VC\Tools\MSVC\14.44.35207\include\xmemory

; 1833 :     _CONSTEXPR20 _Uninitialized_backout_al(pointer _Dest, _Alloc& _Al_) : _First(_Dest), _Last(_Dest), _Al(_Al_) {}

  000db	8b fe		 mov	 edi, esi

; 1998 :     for (; _UFirst != _ULast; ++_UFirst) {

  000dd	3b c1		 cmp	 eax, ecx
  000df	74 33		 je	 SHORT $LN30@Resize_rea
  000e1	8b d9		 mov	 ebx, ecx
$LL31@Resize_rea:
; File C:\Program Files\Microsoft Visual Studio\2022\Professional\VC\Tools\MSVC\14.44.35207\include\utility

; 773  :     _Ty _Old_val = static_cast<_Ty&&>(_Val);

  000e3	8b 70 08	 mov	 esi, DWORD PTR [eax+8]
  000e6	8b 50 04	 mov	 edx, DWORD PTR [eax+4]
  000e9	8b 08		 mov	 ecx, DWORD PTR [eax]

; 774  :     _Val         = static_cast<_Other&&>(_New_val);

  000eb	c7 40 08 00 00
	00 00		 mov	 DWORD PTR [eax+8], 0
  000f2	c7 40 04 00 00
	00 00		 mov	 DWORD PTR [eax+4], 0
  000f9	c7 00 00 00 00
	00		 mov	 DWORD PTR [eax], 0
; File C:\Program Files\Microsoft Visual Studio\2022\Professional\VC\Tools\MSVC\14.44.35207\include\xmemory

; 1998 :     for (; _UFirst != _ULast; ++_UFirst) {

  000ff	83 c0 0c	 add	 eax, 12			; 0000000cH
; File C:\Program Files\Microsoft Visual Studio\2022\Professional\VC\Tools\MSVC\14.44.35207\include\vector

; 403  :         : _Myfirst(_First), _Mylast(_Last), _Myend(_End) {}

  00102	89 0f		 mov	 DWORD PTR [edi], ecx
  00104	89 57 04	 mov	 DWORD PTR [edi+4], edx
  00107	89 77 08	 mov	 DWORD PTR [edi+8], esi
; File C:\Program Files\Microsoft Visual Studio\2022\Professional\VC\Tools\MSVC\14.44.35207\include\xmemory

; 1845 :         ++_Last;

  0010a	83 c7 0c	 add	 edi, 12			; 0000000cH

; 1998 :     for (; _UFirst != _ULast; ++_UFirst) {

  0010d	3b c3		 cmp	 eax, ebx
  0010f	75 d2		 jne	 SHORT $LL31@Resize_rea
  00111	8b 5d f0	 mov	 ebx, DWORD PTR _this$1$[ebp]
$LN30@Resize_rea:

; 1839 :         _STD _Destroy_range(_First, _Last, _Al);

  00114	53		 push	 ebx
  00115	57		 push	 edi
  00116	57		 push	 edi
  00117	e8 00 00 00 00	 call	 ??$_Destroy_range@V?$allocator@V?$vector@U_COUPLE_ITEM@@V?$allocator@U_COUPLE_ITEM@@@std@@@std@@@std@@@std@@YAXPAV?$vector@U_COUPLE_ITEM@@V?$allocator@U_COUPLE_ITEM@@@std@@@0@QAV10@AAV?$allocator@V?$vector@U_COUPLE_ITEM@@V?$allocator@U_COUPLE_ITEM@@@std@@@std@@@0@@Z ; std::_Destroy_range<std::allocator<std::vector<_COUPLE_ITEM,std::allocator<_COUPLE_ITEM> > > >
; File C:\Program Files\Microsoft Visual Studio\2022\Professional\VC\Tools\MSVC\14.44.35207\include\vector

; 2069 :         if (_Myfirst) { // destroy and deallocate old array

  0011c	8b 0b		 mov	 ecx, DWORD PTR [ebx]
; File C:\Program Files\Microsoft Visual Studio\2022\Professional\VC\Tools\MSVC\14.44.35207\include\xmemory

; 1839 :         _STD _Destroy_range(_First, _Last, _Al);

  0011e	83 c4 0c	 add	 esp, 12			; 0000000cH
; File C:\Program Files\Microsoft Visual Studio\2022\Professional\VC\Tools\MSVC\14.44.35207\include\vector

; 2069 :         if (_Myfirst) { // destroy and deallocate old array

  00121	85 c9		 test	 ecx, ecx
  00123	74 4e		 je	 SHORT $LN71@Resize_rea

; 2070 :             _STD _Destroy_range(_Myfirst, _Mylast, _Al);

  00125	53		 push	 ebx
  00126	ff 73 04	 push	 DWORD PTR [ebx+4]
  00129	51		 push	 ecx
  0012a	e8 00 00 00 00	 call	 ??$_Destroy_range@V?$allocator@V?$vector@U_COUPLE_ITEM@@V?$allocator@U_COUPLE_ITEM@@@std@@@std@@@std@@@std@@YAXPAV?$vector@U_COUPLE_ITEM@@V?$allocator@U_COUPLE_ITEM@@@std@@@0@QAV10@AAV?$allocator@V?$vector@U_COUPLE_ITEM@@V?$allocator@U_COUPLE_ITEM@@@std@@@std@@@0@@Z ; std::_Destroy_range<std::allocator<std::vector<_COUPLE_ITEM,std::allocator<_COUPLE_ITEM> > > >

; 2071 :             _ASAN_VECTOR_REMOVE;
; 2072 :             _Al.deallocate(_Myfirst, static_cast<size_type>(_Myend - _Myfirst));

  0012f	8b 4b 08	 mov	 ecx, DWORD PTR [ebx+8]
  00132	b8 ab aa aa 2a	 mov	 eax, 715827883		; 2aaaaaabH
  00137	8b 33		 mov	 esi, DWORD PTR [ebx]
  00139	83 c4 0c	 add	 esp, 12			; 0000000cH
  0013c	2b ce		 sub	 ecx, esi
  0013e	f7 e9		 imul	 ecx
  00140	d1 fa		 sar	 edx, 1
  00142	8b c2		 mov	 eax, edx
  00144	c1 e8 1f	 shr	 eax, 31			; 0000001fH
  00147	03 c2		 add	 eax, edx
; File C:\Program Files\Microsoft Visual Studio\2022\Professional\VC\Tools\MSVC\14.44.35207\include\xmemory

; 985  :         _STD _Deallocate<_New_alignof<_Ty>>(_Ptr, sizeof(_Ty) * _Count);

  00149	8d 0c 40	 lea	 ecx, DWORD PTR [eax+eax*2]
  0014c	c1 e1 02	 shl	 ecx, 2

; 284  :         if (_Bytes >= _Big_allocation_threshold) {

  0014f	81 f9 00 10 00
	00		 cmp	 ecx, 4096		; 00001000H
  00155	72 12		 jb	 SHORT $LN76@Resize_rea

; 205  :     const uintptr_t _Ptr_container   = _Ptr_user[-1];

  00157	8b 56 fc	 mov	 edx, DWORD PTR [esi-4]
  0015a	83 c1 23	 add	 ecx, 35			; 00000023H

; 206  : 
; 207  :     // If the following asserts, it likely means that we are performing
; 208  :     // an aligned delete on memory coming from an unaligned allocation.
; 209  :     _STL_ASSERT(_Ptr_user[-2] == _Big_allocation_sentinel, "invalid argument");
; 210  : 
; 211  :     // Extra paranoia on aligned allocation/deallocation; ensure _Ptr_container is
; 212  :     // in range [_Min_back_shift, _Non_user_size]
; 213  : #ifdef _DEBUG
; 214  :     constexpr uintptr_t _Min_back_shift = 2 * sizeof(void*);
; 215  : #else // ^^^ defined(_DEBUG) / !defined(_DEBUG) vvv
; 216  :     constexpr uintptr_t _Min_back_shift = sizeof(void*);
; 217  : #endif // ^^^ !defined(_DEBUG) ^^^
; 218  :     const uintptr_t _Back_shift = reinterpret_cast<uintptr_t>(_Ptr) - _Ptr_container;

  0015d	2b f2		 sub	 esi, edx

; 219  :     _STL_VERIFY(_Back_shift >= _Min_back_shift && _Back_shift <= _Non_user_size, "invalid argument");

  0015f	8d 46 fc	 lea	 eax, DWORD PTR [esi-4]
  00162	83 f8 1f	 cmp	 eax, 31			; 0000001fH
  00165	77 2e		 ja	 SHORT $LN75@Resize_rea

; 220  :     _Ptr = reinterpret_cast<void*>(_Ptr_container);

  00167	8b f2		 mov	 esi, edx
$LN76@Resize_rea:

; 289  :         ::operator delete(_Ptr, _Bytes);

  00169	51		 push	 ecx
  0016a	56		 push	 esi
  0016b	e8 00 00 00 00	 call	 ??3@YAXPAXI@Z		; operator delete
  00170	83 c4 08	 add	 esp, 8
$LN71@Resize_rea:
; File C:\Program Files\Microsoft Visual Studio\2022\Professional\VC\Tools\MSVC\14.44.35207\include\vector

; 2075 :         _Myfirst = _Newvec;

  00173	8b 4d fc	 mov	 ecx, DWORD PTR $T2[ebp]

; 2076 :         _Mylast  = _Newvec + _Newsize;

  00176	8b 45 08	 mov	 eax, DWORD PTR __Newsize$[ebp]
  00179	89 0b		 mov	 DWORD PTR [ebx], ecx

; 2077 :         _Myend   = _Newvec + _Newcapacity;

  0017b	5e		 pop	 esi

; 1586 :     }

  0017c	5f		 pop	 edi

; 2076 :         _Mylast  = _Newvec + _Newsize;

  0017d	8d 04 40	 lea	 eax, DWORD PTR [eax+eax*2]
  00180	8d 04 81	 lea	 eax, DWORD PTR [ecx+eax*4]
  00183	89 43 04	 mov	 DWORD PTR [ebx+4], eax

; 2077 :         _Myend   = _Newvec + _Newcapacity;

  00186	8b 45 f8	 mov	 eax, DWORD PTR tv664[ebp]
  00189	03 c1		 add	 eax, ecx
  0018b	89 43 08	 mov	 DWORD PTR [ebx+8], eax

; 1586 :     }

  0018e	5b		 pop	 ebx
  0018f	8b e5		 mov	 esp, ebp
  00191	5d		 pop	 ebp
  00192	c2 08 00	 ret	 8
$LN75@Resize_rea:
; File C:\Program Files\Microsoft Visual Studio\2022\Professional\VC\Tools\MSVC\14.44.35207\include\xmemory

; 219  :     _STL_VERIFY(_Back_shift >= _Min_back_shift && _Back_shift <= _Non_user_size, "invalid argument");

  00195	6a 00		 push	 0
  00197	6a 00		 push	 0
  00199	6a 00		 push	 0
  0019b	6a 00		 push	 0
  0019d	6a 00		 push	 0
  0019f	e8 00 00 00 00	 call	 __invoke_watson
$LN116@Resize_rea:
; File C:\Program Files\Microsoft Visual Studio\2022\Professional\VC\Tools\MSVC\14.44.35207\include\vector

; 1554 :             _Xlength();

  001a4	e8 00 00 00 00	 call	 ?_Xlength@?$vector@V?$vector@U_COUPLE_ITEM@@V?$allocator@U_COUPLE_ITEM@@@std@@@std@@V?$allocator@V?$vector@U_COUPLE_ITEM@@V?$allocator@U_COUPLE_ITEM@@@std@@@std@@@2@@std@@CAXXZ ; std::vector<std::vector<_COUPLE_ITEM,std::allocator<_COUPLE_ITEM> >,std::allocator<std::vector<_COUPLE_ITEM,std::allocator<_COUPLE_ITEM> > > >::_Xlength
$LN117@Resize_rea:
; File C:\Program Files\Microsoft Visual Studio\2022\Professional\VC\Tools\MSVC\14.44.35207\include\xmemory

; 118  :             _Throw_bad_array_new_length(); // multiply overflow

  001a9	e8 00 00 00 00	 call	 ?_Throw_bad_array_new_length@std@@YAXXZ ; std::_Throw_bad_array_new_length
$LN113@Resize_rea:
  001ae	cc		 int	 3
??$_Resize_reallocate@U_Value_init_tag@std@@@?$vector@V?$vector@U_COUPLE_ITEM@@V?$allocator@U_COUPLE_ITEM@@@std@@@std@@V?$allocator@V?$vector@U_COUPLE_ITEM@@V?$allocator@U_COUPLE_ITEM@@@std@@@std@@@2@@std@@AAEXIABU_Value_init_tag@1@@Z ENDP ; std::vector<std::vector<_COUPLE_ITEM,std::allocator<_COUPLE_ITEM> >,std::allocator<std::vector<_COUPLE_ITEM,std::allocator<_COUPLE_ITEM> > > >::_Resize_reallocate<std::_Value_init_tag>
_TEXT	ENDS
; Function compile flags: /Ogtp
; File C:\Program Files\Microsoft Visual Studio\2022\Professional\VC\Tools\MSVC\14.44.35207\include\xmemory
; File C:\Program Files\Microsoft Visual Studio\2022\Professional\VC\Tools\MSVC\14.44.35207\include\vector
; File C:\Program Files\Microsoft Visual Studio\2022\Professional\VC\Tools\MSVC\14.44.35207\include\xmemory
;	COMDAT ??$_Uninitialized_value_construct_n@V?$allocator@V?$vector@HV?$allocator@H@std@@@std@@@std@@@std@@YAPAV?$vector@HV?$allocator@H@std@@@0@PAV10@IAAV?$allocator@V?$vector@HV?$allocator@H@std@@@std@@@0@@Z
_TEXT	SEGMENT
__First$ = 8						; size = 4
__Count$ = 12						; size = 4
__Al$ = 16						; size = 4
??$_Uninitialized_value_construct_n@V?$allocator@V?$vector@HV?$allocator@H@std@@@std@@@std@@@std@@YAPAV?$vector@HV?$allocator@H@std@@@0@PAV10@IAAV?$allocator@V?$vector@HV?$allocator@H@std@@@std@@@0@@Z PROC ; std::_Uninitialized_value_construct_n<std::allocator<std::vector<int,std::allocator<int> > > >, COMDAT

; 2078 :     _Alloc_ptr_t<_Alloc> _First, _Alloc_size_t<_Alloc> _Count, _Alloc& _Al) {

  00000	55		 push	 ebp
  00001	8b ec		 mov	 ebp, esp

; 2079 :     // value-initialize _Count objects to raw _First, using _Al
; 2080 :     using _Ptrty = typename _Alloc::value_type*;
; 2081 :     if constexpr (_Use_memset_value_construct_v<_Ptrty> && _Uses_default_construct<_Alloc, _Ptrty>::value) {
; 2082 : #if _HAS_CXX20
; 2083 :         if (!_STD is_constant_evaluated())
; 2084 : #endif // _HAS_CXX20
; 2085 :         {
; 2086 :             auto _PFirst = _Unfancy(_First);
; 2087 :             _Zero_range(_PFirst, _PFirst + _Count);
; 2088 :             return _First + _Count;
; 2089 :         }
; 2090 :     }
; 2091 : 
; 2092 :     _Uninitialized_backout_al<_Alloc> _Backout{_First, _Al};
; 2093 :     for (; 0 < _Count; --_Count) {

  00003	8b 4d 0c	 mov	 ecx, DWORD PTR __Count$[ebp]

; 1833 :     _CONSTEXPR20 _Uninitialized_backout_al(pointer _Dest, _Alloc& _Al_) : _First(_Dest), _Last(_Dest), _Al(_Al_) {}

  00006	8b 45 08	 mov	 eax, DWORD PTR __First$[ebp]

; 2079 :     // value-initialize _Count objects to raw _First, using _Al
; 2080 :     using _Ptrty = typename _Alloc::value_type*;
; 2081 :     if constexpr (_Use_memset_value_construct_v<_Ptrty> && _Uses_default_construct<_Alloc, _Ptrty>::value) {
; 2082 : #if _HAS_CXX20
; 2083 :         if (!_STD is_constant_evaluated())
; 2084 : #endif // _HAS_CXX20
; 2085 :         {
; 2086 :             auto _PFirst = _Unfancy(_First);
; 2087 :             _Zero_range(_PFirst, _PFirst + _Count);
; 2088 :             return _First + _Count;
; 2089 :         }
; 2090 :     }
; 2091 : 
; 2092 :     _Uninitialized_backout_al<_Alloc> _Backout{_First, _Al};
; 2093 :     for (; 0 < _Count; --_Count) {

  00009	85 c9		 test	 ecx, ecx
  0000b	74 1f		 je	 SHORT $LN3@Uninitiali
  0000d	0f 1f 00	 npad	 3
$LL4@Uninitiali:
; File C:\Program Files\Microsoft Visual Studio\2022\Professional\VC\Tools\MSVC\14.44.35207\include\vector

; 400  :     _CONSTEXPR20 _Vector_val() noexcept : _Myfirst(), _Mylast(), _Myend() {}

  00010	c7 00 00 00 00
	00		 mov	 DWORD PTR [eax], 0
  00016	c7 40 04 00 00
	00 00		 mov	 DWORD PTR [eax+4], 0
  0001d	c7 40 08 00 00
	00 00		 mov	 DWORD PTR [eax+8], 0
; File C:\Program Files\Microsoft Visual Studio\2022\Professional\VC\Tools\MSVC\14.44.35207\include\xmemory

; 1845 :         ++_Last;

  00024	83 c0 0c	 add	 eax, 12			; 0000000cH

; 2079 :     // value-initialize _Count objects to raw _First, using _Al
; 2080 :     using _Ptrty = typename _Alloc::value_type*;
; 2081 :     if constexpr (_Use_memset_value_construct_v<_Ptrty> && _Uses_default_construct<_Alloc, _Ptrty>::value) {
; 2082 : #if _HAS_CXX20
; 2083 :         if (!_STD is_constant_evaluated())
; 2084 : #endif // _HAS_CXX20
; 2085 :         {
; 2086 :             auto _PFirst = _Unfancy(_First);
; 2087 :             _Zero_range(_PFirst, _PFirst + _Count);
; 2088 :             return _First + _Count;
; 2089 :         }
; 2090 :     }
; 2091 : 
; 2092 :     _Uninitialized_backout_al<_Alloc> _Backout{_First, _Al};
; 2093 :     for (; 0 < _Count; --_Count) {

  00027	83 e9 01	 sub	 ecx, 1
  0002a	75 e4		 jne	 SHORT $LL4@Uninitiali
$LN3@Uninitiali:

; 2094 :         _Backout._Emplace_back();
; 2095 :     }
; 2096 : 
; 2097 :     return _Backout._Release();
; 2098 : }

  0002c	5d		 pop	 ebp
  0002d	c3		 ret	 0
??$_Uninitialized_value_construct_n@V?$allocator@V?$vector@HV?$allocator@H@std@@@std@@@std@@@std@@YAPAV?$vector@HV?$allocator@H@std@@@0@PAV10@IAAV?$allocator@V?$vector@HV?$allocator@H@std@@@std@@@0@@Z ENDP ; std::_Uninitialized_value_construct_n<std::allocator<std::vector<int,std::allocator<int> > > >
_TEXT	ENDS
; Function compile flags: /Ogtp
; File C:\Program Files\Microsoft Visual Studio\2022\Professional\VC\Tools\MSVC\14.44.35207\include\vector
; File C:\Program Files\Microsoft Visual Studio\2022\Professional\VC\Tools\MSVC\14.44.35207\include\xmemory
; File C:\Program Files\Microsoft Visual Studio\2022\Professional\VC\Tools\MSVC\14.44.35207\include\vector
; File C:\Program Files\Microsoft Visual Studio\2022\Professional\VC\Tools\MSVC\14.44.35207\include\xmemory
; File C:\Program Files\Microsoft Visual Studio\2022\Professional\VC\Tools\MSVC\14.44.35207\include\vector
; File C:\Program Files\Microsoft Visual Studio\2022\Professional\VC\Tools\MSVC\14.44.35207\include\xmemory
; File C:\Program Files\Microsoft Visual Studio\2022\Professional\VC\Tools\MSVC\14.44.35207\include\vector
; File C:\Program Files\Microsoft Visual Studio\2022\Professional\VC\Tools\MSVC\14.44.35207\include\xmemory
; File C:\Program Files\Microsoft Visual Studio\2022\Professional\VC\Tools\MSVC\14.44.35207\include\vector
; File C:\Program Files\Microsoft Visual Studio\2022\Professional\VC\Tools\MSVC\14.44.35207\include\xmemory
; File C:\Program Files\Microsoft Visual Studio\2022\Professional\VC\Tools\MSVC\14.44.35207\include\vector
; File C:\Program Files\Microsoft Visual Studio\2022\Professional\VC\Tools\MSVC\14.44.35207\include\xmemory
; File C:\Program Files\Microsoft Visual Studio\2022\Professional\VC\Tools\MSVC\14.44.35207\include\vector
; File C:\Program Files\Microsoft Visual Studio\2022\Professional\VC\Tools\MSVC\14.44.35207\include\utility
; File C:\Program Files\Microsoft Visual Studio\2022\Professional\VC\Tools\MSVC\14.44.35207\include\xmemory
; File C:\Program Files\Microsoft Visual Studio\2022\Professional\VC\Tools\MSVC\14.44.35207\include\utility
; File C:\Program Files\Microsoft Visual Studio\2022\Professional\VC\Tools\MSVC\14.44.35207\include\xmemory
; File C:\Program Files\Microsoft Visual Studio\2022\Professional\VC\Tools\MSVC\14.44.35207\include\vector
; File C:\Program Files\Microsoft Visual Studio\2022\Professional\VC\Tools\MSVC\14.44.35207\include\xmemory
; File C:\Program Files\Microsoft Visual Studio\2022\Professional\VC\Tools\MSVC\14.44.35207\include\vector
; File C:\Program Files\Microsoft Visual Studio\2022\Professional\VC\Tools\MSVC\14.44.35207\include\xmemory
; File C:\Program Files\Microsoft Visual Studio\2022\Professional\VC\Tools\MSVC\14.44.35207\include\vector
; File C:\Program Files\Microsoft Visual Studio\2022\Professional\VC\Tools\MSVC\14.44.35207\include\xmemory
; File C:\Program Files\Microsoft Visual Studio\2022\Professional\VC\Tools\MSVC\14.44.35207\include\vector
; File C:\Program Files\Microsoft Visual Studio\2022\Professional\VC\Tools\MSVC\14.44.35207\include\xmemory
; File C:\Program Files\Microsoft Visual Studio\2022\Professional\VC\Tools\MSVC\14.44.35207\include\vector
; File C:\Program Files\Microsoft Visual Studio\2022\Professional\VC\Tools\MSVC\14.44.35207\include\xmemory
; File C:\Program Files\Microsoft Visual Studio\2022\Professional\VC\Tools\MSVC\14.44.35207\include\vector
;	COMDAT ??$_Resize_reallocate@U_Value_init_tag@std@@@?$vector@V?$vector@HV?$allocator@H@std@@@std@@V?$allocator@V?$vector@HV?$allocator@H@std@@@std@@@2@@std@@AAEXIABU_Value_init_tag@1@@Z
_TEXT	SEGMENT
_this$1$ = -16						; size = 4
__Oldsize$1$ = -12					; size = 4
tv854 = -8						; size = 4
$T3 = -4						; size = 4
__Newsize$ = 8						; size = 4
__Val$ = 12						; size = 4
??$_Resize_reallocate@U_Value_init_tag@std@@@?$vector@V?$vector@HV?$allocator@H@std@@@std@@V?$allocator@V?$vector@HV?$allocator@H@std@@@std@@@2@@std@@AAEXIABU_Value_init_tag@1@@Z PROC ; std::vector<std::vector<int,std::allocator<int> >,std::allocator<std::vector<int,std::allocator<int> > > >::_Resize_reallocate<std::_Value_init_tag>, COMDAT
; _this$ = ecx

; 1552 :     _CONSTEXPR20 void _Resize_reallocate(const size_type _Newsize, const _Ty2& _Val) {

  00000	55		 push	 ebp
  00001	8b ec		 mov	 ebp, esp
  00003	83 ec 10	 sub	 esp, 16			; 00000010H
  00006	53		 push	 ebx
  00007	57		 push	 edi

; 1553 :         if (_Newsize > max_size()) {

  00008	8b 7d 08	 mov	 edi, DWORD PTR __Newsize$[ebp]
  0000b	8b d9		 mov	 ebx, ecx
  0000d	89 5d f0	 mov	 DWORD PTR _this$1$[ebp], ebx
  00010	81 ff 55 55 55
	15		 cmp	 edi, 357913941		; 15555555H
  00016	0f 87 a4 01 00
	00		 ja	 $LN211@Resize_rea

; 1555 :         }
; 1556 : 
; 1557 :         auto& _Al         = _Getal();
; 1558 :         auto& _My_data    = _Mypair._Myval2;
; 1559 :         pointer& _Myfirst = _My_data._Myfirst;
; 1560 :         pointer& _Mylast  = _My_data._Mylast;
; 1561 : 
; 1562 :         const auto _Oldsize    = static_cast<size_type>(_Mylast - _Myfirst);

  0001c	8b 4b 04	 mov	 ecx, DWORD PTR [ebx+4]
  0001f	b8 ab aa aa 2a	 mov	 eax, 715827883		; 2aaaaaabH
  00024	2b 0b		 sub	 ecx, DWORD PTR [ebx]
  00026	f7 e9		 imul	 ecx

; 1924 :         return static_cast<size_type>(_My_data._Myend - _My_data._Myfirst);

  00028	8b 4b 08	 mov	 ecx, DWORD PTR [ebx+8]
  0002b	2b 0b		 sub	 ecx, DWORD PTR [ebx]

; 1555 :         }
; 1556 : 
; 1557 :         auto& _Al         = _Getal();
; 1558 :         auto& _My_data    = _Mypair._Myval2;
; 1559 :         pointer& _Myfirst = _My_data._Myfirst;
; 1560 :         pointer& _Mylast  = _My_data._Mylast;
; 1561 : 
; 1562 :         const auto _Oldsize    = static_cast<size_type>(_Mylast - _Myfirst);

  0002d	d1 fa		 sar	 edx, 1
  0002f	8b c2		 mov	 eax, edx
  00031	c1 e8 1f	 shr	 eax, 31			; 0000001fH
  00034	03 c2		 add	 eax, edx
  00036	89 45 f4	 mov	 DWORD PTR __Oldsize$1$[ebp], eax

; 1924 :         return static_cast<size_type>(_My_data._Myend - _My_data._Myfirst);

  00039	b8 ab aa aa 2a	 mov	 eax, 715827883		; 2aaaaaabH
  0003e	f7 e9		 imul	 ecx

; 2011 :         if (_Oldcapacity > _Max - _Oldcapacity / 2) {

  00040	b8 55 55 55 15	 mov	 eax, 357913941		; 15555555H

; 1924 :         return static_cast<size_type>(_My_data._Myend - _My_data._Myfirst);

  00045	d1 fa		 sar	 edx, 1
  00047	8b ca		 mov	 ecx, edx
  00049	c1 e9 1f	 shr	 ecx, 31			; 0000001fH
  0004c	03 ca		 add	 ecx, edx

; 2011 :         if (_Oldcapacity > _Max - _Oldcapacity / 2) {

  0004e	8b d1		 mov	 edx, ecx
  00050	d1 ea		 shr	 edx, 1
  00052	2b c2		 sub	 eax, edx
  00054	56		 push	 esi
  00055	3b c8		 cmp	 ecx, eax
  00057	76 19		 jbe	 SHORT $LN6@Resize_rea

; 2012 :             return _Max; // geometric growth would overflow

  00059	b8 fc ff ff ff	 mov	 eax, -4			; fffffffcH
  0005e	c7 45 f8 fc ff
	ff ff		 mov	 DWORD PTR tv854[ebp], -4 ; fffffffcH
; File C:\Program Files\Microsoft Visual Studio\2022\Professional\VC\Tools\MSVC\14.44.35207\include\xmemory

; 253  :             return _Allocate_manually_vector_aligned<_Traits>(_Bytes);

  00065	50		 push	 eax
  00066	e8 00 00 00 00	 call	 ??$_Allocate_manually_vector_aligned@U_Default_allocate_traits@std@@@std@@YAPAXI@Z ; std::_Allocate_manually_vector_aligned<std::_Default_allocate_traits>
  0006b	8b d0		 mov	 edx, eax
  0006d	89 55 fc	 mov	 DWORD PTR $T3[ebp], edx
  00070	eb 4b		 jmp	 SHORT $LN209@Resize_rea
$LN6@Resize_rea:
; File C:\Program Files\Microsoft Visual Studio\2022\Professional\VC\Tools\MSVC\14.44.35207\include\vector

; 2015 :         const size_type _Geometric = _Oldcapacity + _Oldcapacity / 2;

  00072	8d 04 0a	 lea	 eax, DWORD PTR [edx+ecx]

; 2016 : 
; 2017 :         if (_Geometric < _Newsize) {

  00075	3b c7		 cmp	 eax, edi
  00077	73 18		 jae	 SHORT $LN7@Resize_rea

; 2018 :             return _Newsize; // geometric growth would be insufficient

  00079	8b c7		 mov	 eax, edi
$LN17@Resize_rea:
; File C:\Program Files\Microsoft Visual Studio\2022\Professional\VC\Tools\MSVC\14.44.35207\include\xmemory

; 122  :     return _Count * _Ty_size;

  0007b	8d 34 40	 lea	 esi, DWORD PTR [eax+eax*2]
  0007e	c1 e6 02	 shl	 esi, 2

; 990  :         return static_cast<_Ty*>(_STD _Allocate<_New_alignof<_Ty>>(_Get_size_of_n<sizeof(_Ty)>(_Count)));

  00081	8b c6		 mov	 eax, esi

; 122  :     return _Count * _Ty_size;

  00083	89 75 f8	 mov	 DWORD PTR tv854[ebp], esi

; 227  :     if (_Bytes == 0) {

  00086	85 c0		 test	 eax, eax
  00088	75 14		 jne	 SHORT $LN21@Resize_rea

; 228  :         return nullptr;

  0008a	33 d2		 xor	 edx, edx
  0008c	89 55 fc	 mov	 DWORD PTR $T3[ebp], edx
  0008f	eb 2f		 jmp	 SHORT $LN20@Resize_rea
$LN7@Resize_rea:

; 117  :         if (_Count > _Max_possible) {

  00091	3d 55 55 55 15	 cmp	 eax, 357913941		; 15555555H
  00096	0f 87 29 01 00
	00		 ja	 $LN212@Resize_rea
  0009c	eb dd		 jmp	 SHORT $LN17@Resize_rea
$LN21@Resize_rea:

; 251  :         if (_Bytes >= _Big_allocation_threshold) {

  0009e	3d 00 10 00 00	 cmp	 eax, 4096		; 00001000H
  000a3	72 0d		 jb	 SHORT $LN22@Resize_rea

; 253  :             return _Allocate_manually_vector_aligned<_Traits>(_Bytes);

  000a5	50		 push	 eax
  000a6	e8 00 00 00 00	 call	 ??$_Allocate_manually_vector_aligned@U_Default_allocate_traits@std@@@std@@YAPAXI@Z ; std::_Allocate_manually_vector_aligned<std::_Default_allocate_traits>
  000ab	8b d0		 mov	 edx, eax
  000ad	89 55 fc	 mov	 DWORD PTR $T3[ebp], edx
  000b0	eb 0b		 jmp	 SHORT $LN209@Resize_rea
$LN22@Resize_rea:

; 136  :         return ::operator new(_Bytes);

  000b2	50		 push	 eax
  000b3	e8 00 00 00 00	 call	 ??2@YAPAXI@Z		; operator new

; 256  :         return _Traits::_Allocate(_Bytes);

  000b8	8b d0		 mov	 edx, eax
  000ba	89 45 fc	 mov	 DWORD PTR $T3[ebp], eax
$LN209@Resize_rea:
; File C:\Program Files\Microsoft Visual Studio\2022\Professional\VC\Tools\MSVC\14.44.35207\include\vector

; 1566 :         const pointer _Appended_first = _Newvec + _Oldsize;

  000bd	83 c4 04	 add	 esp, 4
$LN20@Resize_rea:
  000c0	8b 75 f4	 mov	 esi, DWORD PTR __Oldsize$1$[ebp]

; 1575 :             _Appended_last = _Uninitialized_value_construct_n(_Appended_first, _Newsize - _Oldsize, _Al);

  000c3	8b cf		 mov	 ecx, edi
  000c5	8d 46 01	 lea	 eax, DWORD PTR [esi+1]
  000c8	8d 04 46	 lea	 eax, DWORD PTR [esi+eax*2]
  000cb	2b ce		 sub	 ecx, esi
; File C:\Program Files\Microsoft Visual Studio\2022\Professional\VC\Tools\MSVC\14.44.35207\include\xmemory

; 2093 :     for (; 0 < _Count; --_Count) {

  000cd	74 20		 je	 SHORT $LN30@Resize_rea
; File C:\Program Files\Microsoft Visual Studio\2022\Professional\VC\Tools\MSVC\14.44.35207\include\vector

; 1566 :         const pointer _Appended_first = _Newvec + _Oldsize;

  000cf	8d 04 82	 lea	 eax, DWORD PTR [edx+eax*4]
$LL31@Resize_rea:

; 400  :     _CONSTEXPR20 _Vector_val() noexcept : _Myfirst(), _Mylast(), _Myend() {}

  000d2	c7 40 f8 00 00
	00 00		 mov	 DWORD PTR [eax-8], 0
; File C:\Program Files\Microsoft Visual Studio\2022\Professional\VC\Tools\MSVC\14.44.35207\include\xmemory

; 1845 :         ++_Last;

  000d9	8d 40 0c	 lea	 eax, DWORD PTR [eax+12]
; File C:\Program Files\Microsoft Visual Studio\2022\Professional\VC\Tools\MSVC\14.44.35207\include\vector

; 400  :     _CONSTEXPR20 _Vector_val() noexcept : _Myfirst(), _Mylast(), _Myend() {}

  000dc	c7 40 f0 00 00
	00 00		 mov	 DWORD PTR [eax-16], 0
  000e3	c7 40 f4 00 00
	00 00		 mov	 DWORD PTR [eax-12], 0
; File C:\Program Files\Microsoft Visual Studio\2022\Professional\VC\Tools\MSVC\14.44.35207\include\xmemory

; 2093 :     for (; 0 < _Count; --_Count) {

  000ea	83 e9 01	 sub	 ecx, 1
  000ed	75 e3		 jne	 SHORT $LL31@Resize_rea
$LN30@Resize_rea:

; 1985 :     const auto _ULast = _STD _Get_unwrapped(_Last);

  000ef	8b 4b 04	 mov	 ecx, DWORD PTR [ebx+4]
; File C:\Program Files\Microsoft Visual Studio\2022\Professional\VC\Tools\MSVC\14.44.35207\include\vector

; 1575 :             _Appended_last = _Uninitialized_value_construct_n(_Appended_first, _Newsize - _Oldsize, _Al);

  000f2	8b 03		 mov	 eax, DWORD PTR [ebx]
; File C:\Program Files\Microsoft Visual Studio\2022\Professional\VC\Tools\MSVC\14.44.35207\include\xmemory

; 1998 :     for (; _UFirst != _ULast; ++_UFirst) {

  000f4	3b c1		 cmp	 eax, ecx
  000f6	74 3a		 je	 SHORT $LN67@Resize_rea
; File C:\Program Files\Microsoft Visual Studio\2022\Professional\VC\Tools\MSVC\14.44.35207\include\vector

; 1579 :             _Uninitialized_move(_Myfirst, _Mylast, _Newvec, _Al);

  000f8	8d 7a 08	 lea	 edi, DWORD PTR [edx+8]
  000fb	8b d9		 mov	 ebx, ecx
  000fd	0f 1f 00	 npad	 3
$LL68@Resize_rea:
; File C:\Program Files\Microsoft Visual Studio\2022\Professional\VC\Tools\MSVC\14.44.35207\include\utility

; 773  :     _Ty _Old_val = static_cast<_Ty&&>(_Val);

  00100	8b 70 08	 mov	 esi, DWORD PTR [eax+8]
; File C:\Program Files\Microsoft Visual Studio\2022\Professional\VC\Tools\MSVC\14.44.35207\include\xmemory

; 1845 :         ++_Last;

  00103	8d 7f 0c	 lea	 edi, DWORD PTR [edi+12]
; File C:\Program Files\Microsoft Visual Studio\2022\Professional\VC\Tools\MSVC\14.44.35207\include\utility

; 773  :     _Ty _Old_val = static_cast<_Ty&&>(_Val);

  00106	8b 50 04	 mov	 edx, DWORD PTR [eax+4]
  00109	8b 08		 mov	 ecx, DWORD PTR [eax]

; 774  :     _Val         = static_cast<_Other&&>(_New_val);

  0010b	c7 40 08 00 00
	00 00		 mov	 DWORD PTR [eax+8], 0
  00112	c7 40 04 00 00
	00 00		 mov	 DWORD PTR [eax+4], 0
  00119	c7 00 00 00 00
	00		 mov	 DWORD PTR [eax], 0
; File C:\Program Files\Microsoft Visual Studio\2022\Professional\VC\Tools\MSVC\14.44.35207\include\xmemory

; 1998 :     for (; _UFirst != _ULast; ++_UFirst) {

  0011f	83 c0 0c	 add	 eax, 12			; 0000000cH
; File C:\Program Files\Microsoft Visual Studio\2022\Professional\VC\Tools\MSVC\14.44.35207\include\vector

; 403  :         : _Myfirst(_First), _Mylast(_Last), _Myend(_End) {}

  00122	89 4f ec	 mov	 DWORD PTR [edi-20], ecx
  00125	89 57 f0	 mov	 DWORD PTR [edi-16], edx
  00128	89 77 f4	 mov	 DWORD PTR [edi-12], esi
; File C:\Program Files\Microsoft Visual Studio\2022\Professional\VC\Tools\MSVC\14.44.35207\include\xmemory

; 1998 :     for (; _UFirst != _ULast; ++_UFirst) {

  0012b	3b c3		 cmp	 eax, ebx
  0012d	75 d1		 jne	 SHORT $LL68@Resize_rea
  0012f	8b 5d f0	 mov	 ebx, DWORD PTR _this$1$[ebp]
$LN67@Resize_rea:
; File C:\Program Files\Microsoft Visual Studio\2022\Professional\VC\Tools\MSVC\14.44.35207\include\vector

; 2069 :         if (_Myfirst) { // destroy and deallocate old array

  00132	8b 33		 mov	 esi, DWORD PTR [ebx]
  00134	85 f6		 test	 esi, esi
  00136	74 57		 je	 SHORT $LN132@Resize_rea

; 2070 :             _STD _Destroy_range(_Myfirst, _Mylast, _Al);

  00138	8b 7b 04	 mov	 edi, DWORD PTR [ebx+4]
; File C:\Program Files\Microsoft Visual Studio\2022\Professional\VC\Tools\MSVC\14.44.35207\include\xmemory

; 1102 :         for (; _First != _Last; ++_First) {

  0013b	3b f7		 cmp	 esi, edi
  0013d	74 0f		 je	 SHORT $LN117@Resize_rea
  0013f	90		 npad	 1
$LL118@Resize_rea:
  00140	8b ce		 mov	 ecx, esi
  00142	e8 00 00 00 00	 call	 ??1?$vector@HV?$allocator@H@std@@@std@@QAE@XZ ; std::vector<int,std::allocator<int> >::~vector<int,std::allocator<int> >
  00147	83 c6 0c	 add	 esi, 12			; 0000000cH
  0014a	3b f7		 cmp	 esi, edi
  0014c	75 f2		 jne	 SHORT $LL118@Resize_rea
$LN117@Resize_rea:
; File C:\Program Files\Microsoft Visual Studio\2022\Professional\VC\Tools\MSVC\14.44.35207\include\vector

; 2072 :             _Al.deallocate(_Myfirst, static_cast<size_type>(_Myend - _Myfirst));

  0014e	8b 4b 08	 mov	 ecx, DWORD PTR [ebx+8]
  00151	b8 ab aa aa 2a	 mov	 eax, 715827883		; 2aaaaaabH
  00156	8b 33		 mov	 esi, DWORD PTR [ebx]
  00158	2b ce		 sub	 ecx, esi
  0015a	f7 e9		 imul	 ecx
  0015c	d1 fa		 sar	 edx, 1
  0015e	8b c2		 mov	 eax, edx
  00160	c1 e8 1f	 shr	 eax, 31			; 0000001fH
  00163	03 c2		 add	 eax, edx
; File C:\Program Files\Microsoft Visual Studio\2022\Professional\VC\Tools\MSVC\14.44.35207\include\xmemory

; 985  :         _STD _Deallocate<_New_alignof<_Ty>>(_Ptr, sizeof(_Ty) * _Count);

  00165	8d 0c 40	 lea	 ecx, DWORD PTR [eax+eax*2]
  00168	c1 e1 02	 shl	 ecx, 2

; 284  :         if (_Bytes >= _Big_allocation_threshold) {

  0016b	81 f9 00 10 00
	00		 cmp	 ecx, 4096		; 00001000H
  00171	72 12		 jb	 SHORT $LN137@Resize_rea

; 205  :     const uintptr_t _Ptr_container   = _Ptr_user[-1];

  00173	8b 56 fc	 mov	 edx, DWORD PTR [esi-4]
  00176	83 c1 23	 add	 ecx, 35			; 00000023H

; 206  : 
; 207  :     // If the following asserts, it likely means that we are performing
; 208  :     // an aligned delete on memory coming from an unaligned allocation.
; 209  :     _STL_ASSERT(_Ptr_user[-2] == _Big_allocation_sentinel, "invalid argument");
; 210  : 
; 211  :     // Extra paranoia on aligned allocation/deallocation; ensure _Ptr_container is
; 212  :     // in range [_Min_back_shift, _Non_user_size]
; 213  : #ifdef _DEBUG
; 214  :     constexpr uintptr_t _Min_back_shift = 2 * sizeof(void*);
; 215  : #else // ^^^ defined(_DEBUG) / !defined(_DEBUG) vvv
; 216  :     constexpr uintptr_t _Min_back_shift = sizeof(void*);
; 217  : #endif // ^^^ !defined(_DEBUG) ^^^
; 218  :     const uintptr_t _Back_shift = reinterpret_cast<uintptr_t>(_Ptr) - _Ptr_container;

  00179	2b f2		 sub	 esi, edx

; 219  :     _STL_VERIFY(_Back_shift >= _Min_back_shift && _Back_shift <= _Non_user_size, "invalid argument");

  0017b	8d 46 fc	 lea	 eax, DWORD PTR [esi-4]
  0017e	83 f8 1f	 cmp	 eax, 31			; 0000001fH
  00181	77 2e		 ja	 SHORT $LN136@Resize_rea

; 220  :     _Ptr = reinterpret_cast<void*>(_Ptr_container);

  00183	8b f2		 mov	 esi, edx
$LN137@Resize_rea:

; 289  :         ::operator delete(_Ptr, _Bytes);

  00185	51		 push	 ecx
  00186	56		 push	 esi
  00187	e8 00 00 00 00	 call	 ??3@YAXPAXI@Z		; operator delete
  0018c	83 c4 08	 add	 esp, 8
$LN132@Resize_rea:
; File C:\Program Files\Microsoft Visual Studio\2022\Professional\VC\Tools\MSVC\14.44.35207\include\vector

; 2075 :         _Myfirst = _Newvec;

  0018f	8b 4d fc	 mov	 ecx, DWORD PTR $T3[ebp]

; 2076 :         _Mylast  = _Newvec + _Newsize;

  00192	8b 45 08	 mov	 eax, DWORD PTR __Newsize$[ebp]
  00195	89 0b		 mov	 DWORD PTR [ebx], ecx

; 2077 :         _Myend   = _Newvec + _Newcapacity;

  00197	5e		 pop	 esi

; 1586 :     }

  00198	5f		 pop	 edi

; 2076 :         _Mylast  = _Newvec + _Newsize;

  00199	8d 04 40	 lea	 eax, DWORD PTR [eax+eax*2]
  0019c	8d 04 81	 lea	 eax, DWORD PTR [ecx+eax*4]
  0019f	89 43 04	 mov	 DWORD PTR [ebx+4], eax

; 2077 :         _Myend   = _Newvec + _Newcapacity;

  001a2	8b 45 f8	 mov	 eax, DWORD PTR tv854[ebp]
  001a5	03 c1		 add	 eax, ecx
  001a7	89 43 08	 mov	 DWORD PTR [ebx+8], eax

; 1586 :     }

  001aa	5b		 pop	 ebx
  001ab	8b e5		 mov	 esp, ebp
  001ad	5d		 pop	 ebp
  001ae	c2 08 00	 ret	 8
$LN136@Resize_rea:
; File C:\Program Files\Microsoft Visual Studio\2022\Professional\VC\Tools\MSVC\14.44.35207\include\xmemory

; 219  :     _STL_VERIFY(_Back_shift >= _Min_back_shift && _Back_shift <= _Non_user_size, "invalid argument");

  001b1	6a 00		 push	 0
  001b3	6a 00		 push	 0
  001b5	6a 00		 push	 0
  001b7	6a 00		 push	 0
  001b9	6a 00		 push	 0
  001bb	e8 00 00 00 00	 call	 __invoke_watson
$LN211@Resize_rea:
; File C:\Program Files\Microsoft Visual Studio\2022\Professional\VC\Tools\MSVC\14.44.35207\include\vector

; 1554 :             _Xlength();

  001c0	e8 00 00 00 00	 call	 ?_Xlength@?$vector@V?$vector@HV?$allocator@H@std@@@std@@V?$allocator@V?$vector@HV?$allocator@H@std@@@std@@@2@@std@@CAXXZ ; std::vector<std::vector<int,std::allocator<int> >,std::allocator<std::vector<int,std::allocator<int> > > >::_Xlength
$LN212@Resize_rea:
; File C:\Program Files\Microsoft Visual Studio\2022\Professional\VC\Tools\MSVC\14.44.35207\include\xmemory

; 118  :             _Throw_bad_array_new_length(); // multiply overflow

  001c5	e8 00 00 00 00	 call	 ?_Throw_bad_array_new_length@std@@YAXXZ ; std::_Throw_bad_array_new_length
$LN208@Resize_rea:
  001ca	cc		 int	 3
??$_Resize_reallocate@U_Value_init_tag@std@@@?$vector@V?$vector@HV?$allocator@H@std@@@std@@V?$allocator@V?$vector@HV?$allocator@H@std@@@std@@@2@@std@@AAEXIABU_Value_init_tag@1@@Z ENDP ; std::vector<std::vector<int,std::allocator<int> >,std::allocator<std::vector<int,std::allocator<int> > > >::_Resize_reallocate<std::_Value_init_tag>
_TEXT	ENDS
; Function compile flags: /Ogtp
; File C:\Program Files\Microsoft Visual Studio\2022\Professional\VC\Tools\MSVC\14.44.35207\include\vector
; File C:\Program Files\Microsoft Visual Studio\2022\Professional\VC\Tools\MSVC\14.44.35207\include\xmemory
; File C:\Program Files\Microsoft Visual Studio\2022\Professional\VC\Tools\MSVC\14.44.35207\include\vector
; File C:\Program Files\Microsoft Visual Studio\2022\Professional\VC\Tools\MSVC\14.44.35207\include\xmemory
; File C:\Program Files\Microsoft Visual Studio\2022\Professional\VC\Tools\MSVC\14.44.35207\include\vector
; File C:\Program Files\Microsoft Visual Studio\2022\Professional\VC\Tools\MSVC\14.44.35207\include\xmemory
; File C:\Program Files\Microsoft Visual Studio\2022\Professional\VC\Tools\MSVC\14.44.35207\include\vector
; File C:\Program Files\Microsoft Visual Studio\2022\Professional\VC\Tools\MSVC\14.44.35207\include\xmemory
; File C:\Program Files\Microsoft Visual Studio\2022\Professional\VC\Tools\MSVC\14.44.35207\include\vector
; File C:\Program Files\Microsoft Visual Studio\2022\Professional\VC\Tools\MSVC\14.44.35207\include\xmemory
; File C:\Program Files\Microsoft Visual Studio\2022\Professional\VC\Tools\MSVC\14.44.35207\include\vector
; File C:\Program Files\Microsoft Visual Studio\2022\Professional\VC\Tools\MSVC\14.44.35207\include\xmemory
; File C:\Program Files\Microsoft Visual Studio\2022\Professional\VC\Tools\MSVC\14.44.35207\include\vector
; File C:\Program Files\Microsoft Visual Studio\2022\Professional\VC\Tools\MSVC\14.44.35207\include\xmemory
; File C:\Program Files\Microsoft Visual Studio\2022\Professional\VC\Tools\MSVC\14.44.35207\include\vector
; File C:\Program Files\Microsoft Visual Studio\2022\Professional\VC\Tools\MSVC\14.44.35207\include\xmemory
; File C:\Program Files\Microsoft Visual Studio\2022\Professional\VC\Tools\MSVC\14.44.35207\include\vector
;	COMDAT ??$_Emplace_reallocate@ABQAVCCouple@@@?$vector@PAVCCouple@@V?$allocator@PAVCCouple@@@std@@@std@@AAEPAPAVCCouple@@QAPAV2@ABQAV2@@Z
_TEXT	SEGMENT
__Newsize$1$ = -12					; size = 4
tv652 = -8						; size = 4
tv650 = -4						; size = 4
__Whereptr$ = 8						; size = 4
_<_Val_0>$ = 12						; size = 4
??$_Emplace_reallocate@ABQAVCCouple@@@?$vector@PAVCCouple@@V?$allocator@PAVCCouple@@@std@@@std@@AAEPAPAVCCouple@@QAPAV2@ABQAV2@@Z PROC ; std::vector<CCouple *,std::allocator<CCouple *> >::_Emplace_reallocate<CCouple * const &>, COMDAT
; _this$ = ecx

; 875  :     _CONSTEXPR20 pointer _Emplace_reallocate(const pointer _Whereptr, _Valty&&... _Val) {

  00000	55		 push	 ebp
  00001	8b ec		 mov	 ebp, esp
  00003	83 ec 0c	 sub	 esp, 12			; 0000000cH
  00006	53		 push	 ebx

; 876  :         // reallocate and insert by perfectly forwarding _Val at _Whereptr
; 877  :         _Alty& _Al        = _Getal();
; 878  :         auto& _My_data    = _Mypair._Myval2;
; 879  :         pointer& _Myfirst = _My_data._Myfirst;
; 880  :         pointer& _Mylast  = _My_data._Mylast;
; 881  : 
; 882  :         _STL_INTERNAL_CHECK(_Mylast == _My_data._Myend); // check that we have no unused capacity
; 883  : 
; 884  :         const auto _Whereoff = static_cast<size_type>(_Whereptr - _Myfirst);

  00007	8b 5d 08	 mov	 ebx, DWORD PTR __Whereptr$[ebp]
  0000a	56		 push	 esi
  0000b	8b f1		 mov	 esi, ecx
  0000d	57		 push	 edi
  0000e	8b 0e		 mov	 ecx, DWORD PTR [esi]
  00010	2b d9		 sub	 ebx, ecx

; 885  :         const auto _Oldsize  = static_cast<size_type>(_Mylast - _Myfirst);

  00012	8b 46 04	 mov	 eax, DWORD PTR [esi+4]
  00015	2b c1		 sub	 eax, ecx
  00017	c1 fb 02	 sar	 ebx, 2
  0001a	c1 f8 02	 sar	 eax, 2

; 886  : 
; 887  :         if (_Oldsize == max_size()) {

  0001d	3d ff ff ff 3f	 cmp	 eax, 1073741823		; 3fffffffH
  00022	0f 84 13 01 00
	00		 je	 $LN111@Emplace_re

; 1924 :         return static_cast<size_type>(_My_data._Myend - _My_data._Myfirst);

  00028	8b 56 08	 mov	 edx, DWORD PTR [esi+8]

; 889  :         }
; 890  : 
; 891  :         const size_type _Newsize = _Oldsize + 1;

  0002b	8d 78 01	 lea	 edi, DWORD PTR [eax+1]

; 1924 :         return static_cast<size_type>(_My_data._Myend - _My_data._Myfirst);

  0002e	2b d1		 sub	 edx, ecx

; 889  :         }
; 890  : 
; 891  :         const size_type _Newsize = _Oldsize + 1;

  00030	89 7d f4	 mov	 DWORD PTR __Newsize$1$[ebp], edi

; 1924 :         return static_cast<size_type>(_My_data._Myend - _My_data._Myfirst);

  00033	c1 fa 02	 sar	 edx, 2

; 2011 :         if (_Oldcapacity > _Max - _Oldcapacity / 2) {

  00036	b8 ff ff ff 3f	 mov	 eax, 1073741823		; 3fffffffH
  0003b	8b ca		 mov	 ecx, edx
  0003d	d1 e9		 shr	 ecx, 1
  0003f	2b c1		 sub	 eax, ecx
  00041	3b d0		 cmp	 edx, eax
  00043	76 14		 jbe	 SHORT $LN8@Emplace_re

; 2012 :             return _Max; // geometric growth would overflow

  00045	b8 fc ff ff ff	 mov	 eax, -4			; fffffffcH
  0004a	c7 45 f8 fc ff
	ff ff		 mov	 DWORD PTR tv652[ebp], -4 ; fffffffcH
; File C:\Program Files\Microsoft Visual Studio\2022\Professional\VC\Tools\MSVC\14.44.35207\include\xmemory

; 253  :             return _Allocate_manually_vector_aligned<_Traits>(_Bytes);

  00051	50		 push	 eax
  00052	e8 00 00 00 00	 call	 ??$_Allocate_manually_vector_aligned@U_Default_allocate_traits@std@@@std@@YAPAXI@Z ; std::_Allocate_manually_vector_aligned<std::_Default_allocate_traits>
  00057	eb 3d		 jmp	 SHORT $LN109@Emplace_re
$LN8@Emplace_re:
; File C:\Program Files\Microsoft Visual Studio\2022\Professional\VC\Tools\MSVC\14.44.35207\include\vector

; 2015 :         const size_type _Geometric = _Oldcapacity + _Oldcapacity / 2;

  00059	8d 04 11	 lea	 eax, DWORD PTR [ecx+edx]
; File C:\Program Files\Microsoft Visual Studio\2022\Professional\VC\Tools\MSVC\14.44.35207\include\xmemory

; 117  :         if (_Count > _Max_possible) {

  0005c	8b cf		 mov	 ecx, edi
  0005e	3b c7		 cmp	 eax, edi
  00060	0f 43 c8	 cmovae	 ecx, eax
  00063	81 f9 ff ff ff
	3f		 cmp	 ecx, 1073741823		; 3fffffffH
  00069	0f 87 d1 00 00
	00		 ja	 $LN112@Emplace_re

; 119  :         }
; 120  :     }
; 121  : 
; 122  :     return _Count * _Ty_size;

  0006f	8d 04 8d 00 00
	00 00		 lea	 eax, DWORD PTR [ecx*4]
  00076	89 45 f8	 mov	 DWORD PTR tv652[ebp], eax

; 227  :     if (_Bytes == 0) {

  00079	85 c0		 test	 eax, eax
  0007b	75 04		 jne	 SHORT $LN23@Emplace_re

; 228  :         return nullptr;

  0007d	33 ff		 xor	 edi, edi
  0007f	eb 1a		 jmp	 SHORT $LN22@Emplace_re
$LN23@Emplace_re:

; 229  :     }
; 230  : 
; 231  : #if _HAS_CXX20 // TRANSITION, GH-1532
; 232  :     if (_STD is_constant_evaluated()) {
; 233  :         return _Traits::_Allocate(_Bytes);
; 234  :     }
; 235  : #endif // _HAS_CXX20
; 236  : 
; 237  : #ifdef __cpp_aligned_new
; 238  :     if constexpr (_Align > __STDCPP_DEFAULT_NEW_ALIGNMENT__) {
; 239  :         size_t _Passed_align = _Align;
; 240  : #if defined(_M_IX86) || defined(_M_X64)
; 241  :         if (_Bytes >= _Big_allocation_threshold) {
; 242  :             // boost the alignment of big allocations to help autovectorization
; 243  :             _Passed_align = (_STD max)(_Align, _Big_allocation_alignment);
; 244  :         }
; 245  : #endif // defined(_M_IX86) || defined(_M_X64)
; 246  :         return _Traits::_Allocate_aligned(_Bytes, _Passed_align);
; 247  :     } else
; 248  : #endif // defined(__cpp_aligned_new)
; 249  :     {
; 250  : #if defined(_M_IX86) || defined(_M_X64)
; 251  :         if (_Bytes >= _Big_allocation_threshold) {

  00081	3d 00 10 00 00	 cmp	 eax, 4096		; 00001000H
  00086	72 08		 jb	 SHORT $LN24@Emplace_re

; 253  :             return _Allocate_manually_vector_aligned<_Traits>(_Bytes);

  00088	50		 push	 eax
  00089	e8 00 00 00 00	 call	 ??$_Allocate_manually_vector_aligned@U_Default_allocate_traits@std@@@std@@YAPAXI@Z ; std::_Allocate_manually_vector_aligned<std::_Default_allocate_traits>
  0008e	eb 06		 jmp	 SHORT $LN109@Emplace_re
$LN24@Emplace_re:

; 136  :         return ::operator new(_Bytes);

  00090	50		 push	 eax
  00091	e8 00 00 00 00	 call	 ??2@YAPAXI@Z		; operator new
$LN109@Emplace_re:
; File C:\Program Files\Microsoft Visual Studio\2022\Professional\VC\Tools\MSVC\14.44.35207\include\vector

; 900  :         _Alty_traits::construct(_Al, _STD _Unfancy(_Newvec + _Whereoff), _STD forward<_Valty>(_Val)...);

  00096	8b f8		 mov	 edi, eax
  00098	83 c4 04	 add	 esp, 4
$LN22@Emplace_re:
  0009b	8b 45 0c	 mov	 eax, DWORD PTR _<_Val_0>$[ebp]
  0009e	8d 0c 9f	 lea	 ecx, DWORD PTR [edi+ebx*4]

; 901  :         _Constructed_first = _Newvec + _Whereoff;
; 902  : 
; 903  :         if (_Whereptr == _Mylast) { // at back, provide strong guarantee

  000a1	8b 5d 08	 mov	 ebx, DWORD PTR __Whereptr$[ebp]
  000a4	89 4d fc	 mov	 DWORD PTR tv650[ebp], ecx
  000a7	8b 00		 mov	 eax, DWORD PTR [eax]
  000a9	89 01		 mov	 DWORD PTR [ecx], eax
  000ab	8b 46 04	 mov	 eax, DWORD PTR [esi+4]
  000ae	8b 0e		 mov	 ecx, DWORD PTR [esi]
  000b0	3b d8		 cmp	 ebx, eax
  000b2	75 07		 jne	 SHORT $LN3@Emplace_re

; 909  :         } else { // provide basic guarantee

  000b4	8b 5d fc	 mov	 ebx, DWORD PTR tv650[ebp]
; File C:\Program Files\Microsoft Visual Studio\2022\Professional\VC\Tools\MSVC\14.44.35207\include\xmemory

; 1992 :             _STD _Copy_memmove(_UFirst, _ULast, _STD _Unfancy(_Dest));

  000b7	8b d7		 mov	 edx, edi
; File C:\Program Files\Microsoft Visual Studio\2022\Professional\VC\Tools\MSVC\14.44.35207\include\vector

; 909  :         } else { // provide basic guarantee

  000b9	eb 16		 jmp	 SHORT $LN52@Emplace_re
$LN3@Emplace_re:
; File C:\Program Files\Microsoft Visual Studio\2022\Professional\VC\Tools\MSVC\14.44.35207\include\xmemory

; 1992 :             _STD _Copy_memmove(_UFirst, _ULast, _STD _Unfancy(_Dest));

  000bb	57		 push	 edi
  000bc	53		 push	 ebx
  000bd	51		 push	 ecx
  000be	e8 00 00 00 00	 call	 ??$_Copy_memmove@PAPAVCCouple@@PAPAV1@@std@@YAPAPAVCCouple@@PAPAV1@00@Z ; std::_Copy_memmove<CCouple * *,CCouple * *>
  000c3	8b 46 04	 mov	 eax, DWORD PTR [esi+4]
  000c6	8b cb		 mov	 ecx, ebx
; File C:\Program Files\Microsoft Visual Studio\2022\Professional\VC\Tools\MSVC\14.44.35207\include\vector

; 912  :             _STD _Uninitialized_move(_Whereptr, _Mylast, _Newvec + _Whereoff + 1, _Al);

  000c8	8b 5d fc	 mov	 ebx, DWORD PTR tv650[ebp]
; File C:\Program Files\Microsoft Visual Studio\2022\Professional\VC\Tools\MSVC\14.44.35207\include\xmemory

; 1992 :             _STD _Copy_memmove(_UFirst, _ULast, _STD _Unfancy(_Dest));

  000cb	83 c4 0c	 add	 esp, 12			; 0000000cH
; File C:\Program Files\Microsoft Visual Studio\2022\Professional\VC\Tools\MSVC\14.44.35207\include\vector

; 912  :             _STD _Uninitialized_move(_Whereptr, _Mylast, _Newvec + _Whereoff + 1, _Al);

  000ce	8d 53 04	 lea	 edx, DWORD PTR [ebx+4]
$LN52@Emplace_re:

; 913  :         }
; 914  : 
; 915  :         _Guard._New_begin = nullptr;

  000d1	52		 push	 edx
  000d2	50		 push	 eax
  000d3	51		 push	 ecx
  000d4	e8 00 00 00 00	 call	 ??$_Copy_memmove@PAPAVCCouple@@PAPAV1@@std@@YAPAPAVCCouple@@PAPAV1@00@Z ; std::_Copy_memmove<CCouple * *,CCouple * *>

; 2069 :         if (_Myfirst) { // destroy and deallocate old array

  000d9	8b 06		 mov	 eax, DWORD PTR [esi]

; 913  :         }
; 914  : 
; 915  :         _Guard._New_begin = nullptr;

  000db	83 c4 0c	 add	 esp, 12			; 0000000cH

; 2069 :         if (_Myfirst) { // destroy and deallocate old array

  000de	85 c0		 test	 eax, eax
  000e0	74 2c		 je	 SHORT $LN72@Emplace_re

; 2070 :             _STD _Destroy_range(_Myfirst, _Mylast, _Al);
; 2071 :             _ASAN_VECTOR_REMOVE;
; 2072 :             _Al.deallocate(_Myfirst, static_cast<size_type>(_Myend - _Myfirst));

  000e2	8b 4e 08	 mov	 ecx, DWORD PTR [esi+8]
  000e5	2b c8		 sub	 ecx, eax
; File C:\Program Files\Microsoft Visual Studio\2022\Professional\VC\Tools\MSVC\14.44.35207\include\xmemory

; 985  :         _STD _Deallocate<_New_alignof<_Ty>>(_Ptr, sizeof(_Ty) * _Count);

  000e7	83 e1 fc	 and	 ecx, -4			; fffffffcH

; 284  :         if (_Bytes >= _Big_allocation_threshold) {

  000ea	81 f9 00 10 00
	00		 cmp	 ecx, 4096		; 00001000H
  000f0	72 12		 jb	 SHORT $LN77@Emplace_re

; 205  :     const uintptr_t _Ptr_container   = _Ptr_user[-1];

  000f2	8b 50 fc	 mov	 edx, DWORD PTR [eax-4]
  000f5	83 c1 23	 add	 ecx, 35			; 00000023H

; 206  : 
; 207  :     // If the following asserts, it likely means that we are performing
; 208  :     // an aligned delete on memory coming from an unaligned allocation.
; 209  :     _STL_ASSERT(_Ptr_user[-2] == _Big_allocation_sentinel, "invalid argument");
; 210  : 
; 211  :     // Extra paranoia on aligned allocation/deallocation; ensure _Ptr_container is
; 212  :     // in range [_Min_back_shift, _Non_user_size]
; 213  : #ifdef _DEBUG
; 214  :     constexpr uintptr_t _Min_back_shift = 2 * sizeof(void*);
; 215  : #else // ^^^ defined(_DEBUG) / !defined(_DEBUG) vvv
; 216  :     constexpr uintptr_t _Min_back_shift = sizeof(void*);
; 217  : #endif // ^^^ !defined(_DEBUG) ^^^
; 218  :     const uintptr_t _Back_shift = reinterpret_cast<uintptr_t>(_Ptr) - _Ptr_container;

  000f8	2b c2		 sub	 eax, edx

; 219  :     _STL_VERIFY(_Back_shift >= _Min_back_shift && _Back_shift <= _Non_user_size, "invalid argument");

  000fa	83 c0 fc	 add	 eax, -4			; fffffffcH
  000fd	83 f8 1f	 cmp	 eax, 31			; 0000001fH
  00100	77 2a		 ja	 SHORT $LN76@Emplace_re

; 220  :     _Ptr = reinterpret_cast<void*>(_Ptr_container);

  00102	8b c2		 mov	 eax, edx
$LN77@Emplace_re:

; 289  :         ::operator delete(_Ptr, _Bytes);

  00104	51		 push	 ecx
  00105	50		 push	 eax
  00106	e8 00 00 00 00	 call	 ??3@YAXPAXI@Z		; operator delete
  0010b	83 c4 08	 add	 esp, 8
$LN72@Emplace_re:
; File C:\Program Files\Microsoft Visual Studio\2022\Professional\VC\Tools\MSVC\14.44.35207\include\vector

; 2076 :         _Mylast  = _Newvec + _Newsize;

  0010e	8b 45 f4	 mov	 eax, DWORD PTR __Newsize$1$[ebp]
  00111	89 3e		 mov	 DWORD PTR [esi], edi
  00113	8d 0c 87	 lea	 ecx, DWORD PTR [edi+eax*4]

; 916  :         _Change_array(_Newvec, _Newsize, _Newcapacity);
; 917  :         return _Newvec + _Whereoff;

  00116	8b c3		 mov	 eax, ebx

; 2076 :         _Mylast  = _Newvec + _Newsize;

  00118	89 4e 04	 mov	 DWORD PTR [esi+4], ecx

; 2077 :         _Myend   = _Newvec + _Newcapacity;

  0011b	8b 4d f8	 mov	 ecx, DWORD PTR tv652[ebp]
  0011e	03 cf		 add	 ecx, edi

; 918  :     }

  00120	5f		 pop	 edi

; 2077 :         _Myend   = _Newvec + _Newcapacity;

  00121	89 4e 08	 mov	 DWORD PTR [esi+8], ecx

; 918  :     }

  00124	5e		 pop	 esi
  00125	5b		 pop	 ebx
  00126	8b e5		 mov	 esp, ebp
  00128	5d		 pop	 ebp
  00129	c2 08 00	 ret	 8
$LN76@Emplace_re:
; File C:\Program Files\Microsoft Visual Studio\2022\Professional\VC\Tools\MSVC\14.44.35207\include\xmemory

; 219  :     _STL_VERIFY(_Back_shift >= _Min_back_shift && _Back_shift <= _Non_user_size, "invalid argument");

  0012c	6a 00		 push	 0
  0012e	6a 00		 push	 0
  00130	6a 00		 push	 0
  00132	6a 00		 push	 0
  00134	6a 00		 push	 0
  00136	e8 00 00 00 00	 call	 __invoke_watson
$LN111@Emplace_re:
; File C:\Program Files\Microsoft Visual Studio\2022\Professional\VC\Tools\MSVC\14.44.35207\include\vector

; 888  :             _Xlength();

  0013b	e8 00 00 00 00	 call	 ?_Xlength@?$vector@PAVCCouple@@V?$allocator@PAVCCouple@@@std@@@std@@CAXXZ ; std::vector<CCouple *,std::allocator<CCouple *> >::_Xlength
$LN112@Emplace_re:
; File C:\Program Files\Microsoft Visual Studio\2022\Professional\VC\Tools\MSVC\14.44.35207\include\xmemory

; 118  :             _Throw_bad_array_new_length(); // multiply overflow

  00140	e8 00 00 00 00	 call	 ?_Throw_bad_array_new_length@std@@YAXXZ ; std::_Throw_bad_array_new_length
$LN108@Emplace_re:
  00145	cc		 int	 3
??$_Emplace_reallocate@ABQAVCCouple@@@?$vector@PAVCCouple@@V?$allocator@PAVCCouple@@@std@@@std@@AAEPAPAVCCouple@@QAPAV2@ABQAV2@@Z ENDP ; std::vector<CCouple *,std::allocator<CCouple *> >::_Emplace_reallocate<CCouple * const &>
_TEXT	ENDS
; Function compile flags: /Ogtp
; File C:\Program Files\Microsoft Visual Studio\2022\Professional\VC\Tools\MSVC\14.44.35207\include\xutility
;	COMDAT ??$_Copy_memmove@PAPAVCCouple@@PAPAV1@@std@@YAPAPAVCCouple@@PAPAV1@00@Z
_TEXT	SEGMENT
__First$ = 8						; size = 4
__Last$ = 12						; size = 4
__Dest$ = 16						; size = 4
??$_Copy_memmove@PAPAVCCouple@@PAPAV1@@std@@YAPAPAVCCouple@@PAPAV1@00@Z PROC ; std::_Copy_memmove<CCouple * *,CCouple * *>, COMDAT

; 4762 : _OutCtgIt _Copy_memmove(_CtgIt _First, _CtgIt _Last, _OutCtgIt _Dest) {

  00000	55		 push	 ebp
  00001	8b ec		 mov	 ebp, esp

; 4763 :     _STL_INTERNAL_CHECK(_First <= _Last);
; 4764 :     const auto _First_ptr    = _STD _To_address(_First);
; 4765 :     const auto _Last_ptr     = _STD _To_address(_Last);
; 4766 :     const auto _Object_count = static_cast<size_t>(_Last_ptr - _First_ptr);

  00003	8b 55 08	 mov	 edx, DWORD PTR __First$[ebp]
  00006	8b 4d 0c	 mov	 ecx, DWORD PTR __Last$[ebp]
  00009	2b ca		 sub	 ecx, edx
  0000b	8b c1		 mov	 eax, ecx
  0000d	c1 f8 02	 sar	 eax, 2

; 4767 :     const auto _First_ch     = const_cast<const char*>(reinterpret_cast<const volatile char*>(_First_ptr));
; 4768 :     const auto _Last_ch      = const_cast<const char*>(reinterpret_cast<const volatile char*>(_Last_ptr));
; 4769 :     const auto _Byte_count   = static_cast<size_t>(_Last_ch - _First_ch);
; 4770 :     return _STD _Copy_memmove_tail(_First_ch, _STD move(_Dest), _Byte_count, _Object_count);

  00010	50		 push	 eax
  00011	51		 push	 ecx
  00012	ff 75 10	 push	 DWORD PTR __Dest$[ebp]
  00015	52		 push	 edx
  00016	e8 00 00 00 00	 call	 ??$_Copy_memmove_tail@PAPAVCCouple@@@std@@YAPAPAVCCouple@@QBDQAPAV1@II@Z ; std::_Copy_memmove_tail<CCouple * *>
  0001b	83 c4 10	 add	 esp, 16			; 00000010H

; 4771 : }

  0001e	5d		 pop	 ebp
  0001f	c3		 ret	 0
??$_Copy_memmove@PAPAVCCouple@@PAPAV1@@std@@YAPAPAVCCouple@@PAPAV1@00@Z ENDP ; std::_Copy_memmove<CCouple * *,CCouple * *>
_TEXT	ENDS
; Function compile flags: /Ogtp
; File C:\Program Files\Microsoft Visual Studio\2022\Professional\VC\Tools\MSVC\14.44.35207\include\xutility
;	COMDAT ??$_Copy_memmove_n@PAHPAH@std@@YAPAHPAHI0@Z
_TEXT	SEGMENT
__First$ = 8						; size = 4
__Object_count$ = 12					; size = 4
__Dest$ = 16						; size = 4
??$_Copy_memmove_n@PAHPAH@std@@YAPAHPAHI0@Z PROC	; std::_Copy_memmove_n<int *,int *>, COMDAT

; 4774 : _OutCtgIt _Copy_memmove_n(_CtgIt _First, const size_t _Object_count, _OutCtgIt _Dest) {

  00000	55		 push	 ebp
  00001	8b ec		 mov	 ebp, esp

; 4775 :     const auto _First_ptr  = _STD _To_address(_First);
; 4776 :     const auto _First_ch   = const_cast<const char*>(reinterpret_cast<const volatile char*>(_First_ptr));
; 4777 :     const auto _Byte_count = _Object_count * sizeof(*_First_ptr);
; 4778 :     return _STD _Copy_memmove_tail(_First_ch, _STD move(_Dest), _Byte_count, _Object_count);

  00003	8b 45 0c	 mov	 eax, DWORD PTR __Object_count$[ebp]
  00006	50		 push	 eax
  00007	c1 e0 02	 shl	 eax, 2
  0000a	50		 push	 eax
  0000b	ff 75 10	 push	 DWORD PTR __Dest$[ebp]
  0000e	ff 75 08	 push	 DWORD PTR __First$[ebp]
  00011	e8 00 00 00 00	 call	 ??$_Copy_memmove_tail@PAH@std@@YAPAHQBDQAHII@Z ; std::_Copy_memmove_tail<int *>
  00016	83 c4 10	 add	 esp, 16			; 00000010H

; 4779 : }

  00019	5d		 pop	 ebp
  0001a	c3		 ret	 0
??$_Copy_memmove_n@PAHPAH@std@@YAPAHPAHI0@Z ENDP	; std::_Copy_memmove_n<int *,int *>
_TEXT	ENDS
; Function compile flags: /Ogtp
; File C:\Program Files\Microsoft Visual Studio\2022\Professional\VC\Tools\MSVC\14.44.35207\include\xmemory
;	COMDAT ??1?$_Alloc_construct_ptr@V?$allocator@U?$_Tree_node@U?$pair@$$CBKPAVCCouple@@@std@@PAX@std@@@std@@@std@@QAE@XZ
_TEXT	SEGMENT
??1?$_Alloc_construct_ptr@V?$allocator@U?$_Tree_node@U?$pair@$$CBKPAVCCouple@@@std@@PAX@std@@@std@@@std@@QAE@XZ PROC ; std::_Alloc_construct_ptr<std::allocator<std::_Tree_node<std::pair<unsigned long const ,CCouple *>,void *> > >::~_Alloc_construct_ptr<std::allocator<std::_Tree_node<std::pair<unsigned long const ,CCouple *>,void *> > >, COMDAT
; _this$ = ecx

; 1172 :         if (_Ptr) {

  00000	8b 41 04	 mov	 eax, DWORD PTR [ecx+4]
  00003	85 c0		 test	 eax, eax
  00005	74 0b		 je	 SHORT $LN10@Alloc_cons

; 289  :         ::operator delete(_Ptr, _Bytes);

  00007	6a 18		 push	 24			; 00000018H
  00009	50		 push	 eax
  0000a	e8 00 00 00 00	 call	 ??3@YAXPAXI@Z		; operator delete
  0000f	83 c4 08	 add	 esp, 8
$LN10@Alloc_cons:

; 1173 :             _Al.deallocate(_Ptr, 1);
; 1174 :         }
; 1175 :     }

  00012	c3		 ret	 0
??1?$_Alloc_construct_ptr@V?$allocator@U?$_Tree_node@U?$pair@$$CBKPAVCCouple@@@std@@PAX@std@@@std@@@std@@QAE@XZ ENDP ; std::_Alloc_construct_ptr<std::allocator<std::_Tree_node<std::pair<unsigned long const ,CCouple *>,void *> > >::~_Alloc_construct_ptr<std::allocator<std::_Tree_node<std::pair<unsigned long const ,CCouple *>,void *> > >
_TEXT	ENDS
; Function compile flags: /Ogtp
; File C:\Program Files\Microsoft Visual Studio\2022\Professional\VC\Tools\MSVC\14.44.35207\include\xtree
; File C:\Program Files\Microsoft Visual Studio\2022\Professional\VC\Tools\MSVC\14.44.35207\include\type_traits
; File C:\Program Files\Microsoft Visual Studio\2022\Professional\VC\Tools\MSVC\14.44.35207\include\xtree
; File C:\Program Files\Microsoft Visual Studio\2022\Professional\VC\Tools\MSVC\14.44.35207\include\type_traits
; File C:\Program Files\Microsoft Visual Studio\2022\Professional\VC\Tools\MSVC\14.44.35207\include\xtree
;	COMDAT ??$_Find_lower_bound@K@?$_Tree@V?$_Tmap_traits@KPAVCCouple@@U?$less@K@std@@V?$allocator@U?$pair@$$CBKPAVCCouple@@@std@@@3@$0A@@std@@@std@@IBE?AU?$_Tree_find_result@PAU?$_Tree_node@U?$pair@$$CBKPAVCCouple@@@std@@PAX@std@@@1@ABK@Z
_TEXT	SEGMENT
___$ReturnUdt$ = 8					; size = 4
__Keyval$ = 12						; size = 4
??$_Find_lower_bound@K@?$_Tree@V?$_Tmap_traits@KPAVCCouple@@U?$less@K@std@@V?$allocator@U?$pair@$$CBKPAVCCouple@@@std@@@3@$0A@@std@@@std@@IBE?AU?$_Tree_find_result@PAU?$_Tree_node@U?$pair@$$CBKPAVCCouple@@@std@@PAX@std@@@1@ABK@Z PROC ; std::_Tree<std::_Tmap_traits<unsigned long,CCouple *,std::less<unsigned long>,std::allocator<std::pair<unsigned long const ,CCouple *> >,0> >::_Find_lower_bound<unsigned long>, COMDAT
; _this$ = ecx

; 1628 :     _Tree_find_result<_Nodeptr> _Find_lower_bound(const _Keyty& _Keyval) const {

  00000	55		 push	 ebp
  00001	8b ec		 mov	 ebp, esp

; 1629 :         const auto _Scary = _Get_scary();
; 1630 :         _Tree_find_result<_Nodeptr> _Result{{_Scary->_Myhead->_Parent, _Tree_child::_Right}, _Scary->_Myhead};

  00003	8b 09		 mov	 ecx, DWORD PTR [ecx]
  00005	8b 55 08	 mov	 edx, DWORD PTR ___$ReturnUdt$[ebp]
  00008	8b 41 04	 mov	 eax, DWORD PTR [ecx+4]
  0000b	89 02		 mov	 DWORD PTR [edx], eax
  0000d	c7 42 04 00 00
	00 00		 mov	 DWORD PTR [edx+4], 0
  00014	89 4a 08	 mov	 DWORD PTR [edx+8], ecx

; 1631 :         _Nodeptr _Trynode = _Result._Location._Parent;
; 1632 :         while (!_Trynode->_Isnil) {

  00017	80 78 0d 00	 cmp	 BYTE PTR [eax+13], 0
  0001b	75 28		 jne	 SHORT $LN13@Find_lower
; File C:\Program Files\Microsoft Visual Studio\2022\Professional\VC\Tools\MSVC\14.44.35207\include\type_traits

; 2380 :         return _Left < _Right;

  0001d	8b 4d 0c	 mov	 ecx, DWORD PTR __Keyval$[ebp]
  00020	56		 push	 esi
  00021	8b 31		 mov	 esi, DWORD PTR [ecx]
$LL2@Find_lower:
; File C:\Program Files\Microsoft Visual Studio\2022\Professional\VC\Tools\MSVC\14.44.35207\include\xtree

; 1633 :             _Result._Location._Parent = _Trynode;

  00023	89 02		 mov	 DWORD PTR [edx], eax
; File C:\Program Files\Microsoft Visual Studio\2022\Professional\VC\Tools\MSVC\14.44.35207\include\type_traits

; 2380 :         return _Left < _Right;

  00025	39 70 10	 cmp	 DWORD PTR [eax+16], esi
; File C:\Program Files\Microsoft Visual Studio\2022\Professional\VC\Tools\MSVC\14.44.35207\include\xtree

; 1634 :             if (_DEBUG_LT_PRED(_Getcomp(), _Traits::_Kfn(_Trynode->_Myval), _Keyval)) {

  00028	73 07		 jae	 SHORT $LN4@Find_lower

; 1635 :                 _Result._Location._Child = _Tree_child::_Right;
; 1636 :                 _Trynode                 = _Trynode->_Right;

  0002a	8b 40 08	 mov	 eax, DWORD PTR [eax+8]
  0002d	33 c9		 xor	 ecx, ecx

; 1637 :             } else {

  0002f	eb 0a		 jmp	 SHORT $LN5@Find_lower
$LN4@Find_lower:

; 1638 :                 _Result._Location._Child = _Tree_child::_Left;
; 1639 :                 _Result._Bound           = _Trynode;

  00031	89 42 08	 mov	 DWORD PTR [edx+8], eax

; 1640 :                 _Trynode                 = _Trynode->_Left;

  00034	b9 01 00 00 00	 mov	 ecx, 1
  00039	8b 00		 mov	 eax, DWORD PTR [eax]
$LN5@Find_lower:

; 1631 :         _Nodeptr _Trynode = _Result._Location._Parent;
; 1632 :         while (!_Trynode->_Isnil) {

  0003b	89 4a 04	 mov	 DWORD PTR [edx+4], ecx
  0003e	80 78 0d 00	 cmp	 BYTE PTR [eax+13], 0
  00042	74 df		 je	 SHORT $LL2@Find_lower
  00044	5e		 pop	 esi
$LN13@Find_lower:

; 1641 :             }
; 1642 :         }
; 1643 : 
; 1644 :         return _Result;
; 1645 :     }

  00045	8b c2		 mov	 eax, edx
  00047	5d		 pop	 ebp
  00048	c2 08 00	 ret	 8
??$_Find_lower_bound@K@?$_Tree@V?$_Tmap_traits@KPAVCCouple@@U?$less@K@std@@V?$allocator@U?$pair@$$CBKPAVCCouple@@@std@@@3@$0A@@std@@@std@@IBE?AU?$_Tree_find_result@PAU?$_Tree_node@U?$pair@$$CBKPAVCCouple@@@std@@PAX@std@@@1@ABK@Z ENDP ; std::_Tree<std::_Tmap_traits<unsigned long,CCouple *,std::less<unsigned long>,std::allocator<std::pair<unsigned long const ,CCouple *> >,0> >::_Find_lower_bound<unsigned long>
_TEXT	ENDS
; Function compile flags: /Ogtp
; File C:\Program Files\Microsoft Visual Studio\2022\Professional\VC\Tools\MSVC\14.44.35207\include\xmemory
; File C:\Program Files\Microsoft Visual Studio\2022\Professional\VC\Tools\MSVC\14.44.35207\include\vector
; File C:\Program Files\Microsoft Visual Studio\2022\Professional\VC\Tools\MSVC\14.44.35207\include\xmemory
; File C:\Program Files\Microsoft Visual Studio\2022\Professional\VC\Tools\MSVC\14.44.35207\include\vector
; File C:\Program Files\Microsoft Visual Studio\2022\Professional\VC\Tools\MSVC\14.44.35207\include\xmemory
; File C:\Program Files\Microsoft Visual Studio\2022\Professional\VC\Tools\MSVC\14.44.35207\include\vector
; File C:\Program Files\Microsoft Visual Studio\2022\Professional\VC\Tools\MSVC\14.44.35207\include\xmemory
;	COMDAT ??$_Destroy_range@V?$allocator@V?$vector@U_COUPLE_ITEM@@V?$allocator@U_COUPLE_ITEM@@@std@@@std@@@std@@@std@@YAXPAV?$vector@U_COUPLE_ITEM@@V?$allocator@U_COUPLE_ITEM@@@std@@@0@QAV10@AAV?$allocator@V?$vector@U_COUPLE_ITEM@@V?$allocator@U_COUPLE_ITEM@@@std@@@std@@@0@@Z
_TEXT	SEGMENT
__First$ = 8						; size = 4
__Last$ = 12						; size = 4
__Al$ = 16						; size = 4
??$_Destroy_range@V?$allocator@V?$vector@U_COUPLE_ITEM@@V?$allocator@U_COUPLE_ITEM@@@std@@@std@@@std@@@std@@YAXPAV?$vector@U_COUPLE_ITEM@@V?$allocator@U_COUPLE_ITEM@@@std@@@0@QAV10@AAV?$allocator@V?$vector@U_COUPLE_ITEM@@V?$allocator@U_COUPLE_ITEM@@@std@@@std@@@0@@Z PROC ; std::_Destroy_range<std::allocator<std::vector<_COUPLE_ITEM,std::allocator<_COUPLE_ITEM> > > >, COMDAT

; 1098 : _CONSTEXPR20 void _Destroy_range(_Alloc_ptr_t<_Alloc> _First, const _Alloc_ptr_t<_Alloc> _Last, _Alloc& _Al) noexcept {

  00000	55		 push	 ebp
  00001	8b ec		 mov	 ebp, esp
  00003	53		 push	 ebx

; 1102 :         for (; _First != _Last; ++_First) {

  00004	8b 5d 0c	 mov	 ebx, DWORD PTR __Last$[ebp]
  00007	56		 push	 esi
  00008	8b 75 08	 mov	 esi, DWORD PTR __First$[ebp]
  0000b	3b f3		 cmp	 esi, ebx
  0000d	74 63		 je	 SHORT $LN41@Destroy_ra
  0000f	57		 push	 edi
$LL4@Destroy_ra:
; File C:\Program Files\Microsoft Visual Studio\2022\Professional\VC\Tools\MSVC\14.44.35207\include\vector

; 2090 :         if (_Myfirst) { // destroy and deallocate old array

  00010	8b 3e		 mov	 edi, DWORD PTR [esi]
  00012	85 ff		 test	 edi, edi
  00014	74 54		 je	 SHORT $LN17@Destroy_ra

; 2091 :             _STD _Destroy_range(_Myfirst, _Mylast, _Al);
; 2092 :             _ASAN_VECTOR_REMOVE;
; 2093 :             _Al.deallocate(_Myfirst, static_cast<size_type>(_Myend - _Myfirst));

  00016	8b 4e 08	 mov	 ecx, DWORD PTR [esi+8]
  00019	b8 67 66 66 66	 mov	 eax, 1717986919		; 66666667H
  0001e	2b cf		 sub	 ecx, edi
  00020	f7 e9		 imul	 ecx
  00022	c1 fa 03	 sar	 edx, 3
  00025	8b c2		 mov	 eax, edx
  00027	c1 e8 1f	 shr	 eax, 31			; 0000001fH
  0002a	03 c2		 add	 eax, edx
; File C:\Program Files\Microsoft Visual Studio\2022\Professional\VC\Tools\MSVC\14.44.35207\include\xmemory

; 985  :         _STD _Deallocate<_New_alignof<_Ty>>(_Ptr, sizeof(_Ty) * _Count);

  0002c	8d 0c 80	 lea	 ecx, DWORD PTR [eax+eax*4]
  0002f	c1 e1 02	 shl	 ecx, 2

; 284  :         if (_Bytes >= _Big_allocation_threshold) {

  00032	81 f9 00 10 00
	00		 cmp	 ecx, 4096		; 00001000H
  00038	72 12		 jb	 SHORT $LN30@Destroy_ra

; 205  :     const uintptr_t _Ptr_container   = _Ptr_user[-1];

  0003a	8b 57 fc	 mov	 edx, DWORD PTR [edi-4]
  0003d	83 c1 23	 add	 ecx, 35			; 00000023H

; 206  : 
; 207  :     // If the following asserts, it likely means that we are performing
; 208  :     // an aligned delete on memory coming from an unaligned allocation.
; 209  :     _STL_ASSERT(_Ptr_user[-2] == _Big_allocation_sentinel, "invalid argument");
; 210  : 
; 211  :     // Extra paranoia on aligned allocation/deallocation; ensure _Ptr_container is
; 212  :     // in range [_Min_back_shift, _Non_user_size]
; 213  : #ifdef _DEBUG
; 214  :     constexpr uintptr_t _Min_back_shift = 2 * sizeof(void*);
; 215  : #else // ^^^ defined(_DEBUG) / !defined(_DEBUG) vvv
; 216  :     constexpr uintptr_t _Min_back_shift = sizeof(void*);
; 217  : #endif // ^^^ !defined(_DEBUG) ^^^
; 218  :     const uintptr_t _Back_shift = reinterpret_cast<uintptr_t>(_Ptr) - _Ptr_container;

  00040	2b fa		 sub	 edi, edx

; 219  :     _STL_VERIFY(_Back_shift >= _Min_back_shift && _Back_shift <= _Non_user_size, "invalid argument");

  00042	8d 47 fc	 lea	 eax, DWORD PTR [edi-4]
  00045	83 f8 1f	 cmp	 eax, 31			; 0000001fH
  00048	77 2c		 ja	 SHORT $LN39@Destroy_ra

; 220  :     _Ptr = reinterpret_cast<void*>(_Ptr_container);

  0004a	8b fa		 mov	 edi, edx
$LN30@Destroy_ra:

; 289  :         ::operator delete(_Ptr, _Bytes);

  0004c	51		 push	 ecx
  0004d	57		 push	 edi
  0004e	e8 00 00 00 00	 call	 ??3@YAXPAXI@Z		; operator delete
; File C:\Program Files\Microsoft Visual Studio\2022\Professional\VC\Tools\MSVC\14.44.35207\include\vector

; 2095 :             _Myfirst = nullptr;

  00053	c7 06 00 00 00
	00		 mov	 DWORD PTR [esi], 0
; File C:\Program Files\Microsoft Visual Studio\2022\Professional\VC\Tools\MSVC\14.44.35207\include\xmemory

; 289  :         ::operator delete(_Ptr, _Bytes);

  00059	83 c4 08	 add	 esp, 8
; File C:\Program Files\Microsoft Visual Studio\2022\Professional\VC\Tools\MSVC\14.44.35207\include\vector

; 2096 :             _Mylast  = nullptr;

  0005c	c7 46 04 00 00
	00 00		 mov	 DWORD PTR [esi+4], 0

; 2097 :             _Myend   = nullptr;

  00063	c7 46 08 00 00
	00 00		 mov	 DWORD PTR [esi+8], 0
$LN17@Destroy_ra:
; File C:\Program Files\Microsoft Visual Studio\2022\Professional\VC\Tools\MSVC\14.44.35207\include\xmemory

; 1102 :         for (; _First != _Last; ++_First) {

  0006a	83 c6 0c	 add	 esi, 12			; 0000000cH
  0006d	3b f3		 cmp	 esi, ebx
  0006f	75 9f		 jne	 SHORT $LL4@Destroy_ra
  00071	5f		 pop	 edi
$LN41@Destroy_ra:
  00072	5e		 pop	 esi

; 1103 :             allocator_traits<_Alloc>::destroy(_Al, _STD _Unfancy(_First));
; 1104 :         }
; 1105 :     }
; 1106 : }

  00073	5b		 pop	 ebx
  00074	5d		 pop	 ebp
  00075	c3		 ret	 0
$LN39@Destroy_ra:

; 219  :     _STL_VERIFY(_Back_shift >= _Min_back_shift && _Back_shift <= _Non_user_size, "invalid argument");

  00076	6a 00		 push	 0
  00078	6a 00		 push	 0
  0007a	6a 00		 push	 0
  0007c	6a 00		 push	 0
  0007e	6a 00		 push	 0
  00080	e8 00 00 00 00	 call	 __invoke_watson
$LN49@Destroy_ra:
  00085	cc		 int	 3
??$_Destroy_range@V?$allocator@V?$vector@U_COUPLE_ITEM@@V?$allocator@U_COUPLE_ITEM@@@std@@@std@@@std@@@std@@YAXPAV?$vector@U_COUPLE_ITEM@@V?$allocator@U_COUPLE_ITEM@@@std@@@0@QAV10@AAV?$allocator@V?$vector@U_COUPLE_ITEM@@V?$allocator@U_COUPLE_ITEM@@@std@@@std@@@0@@Z ENDP ; std::_Destroy_range<std::allocator<std::vector<_COUPLE_ITEM,std::allocator<_COUPLE_ITEM> > > >
_TEXT	ENDS
; Function compile flags: /Ogtp
; File C:\Program Files\Microsoft Visual Studio\2022\Professional\VC\Tools\MSVC\14.44.35207\include\xtree
; File C:\Program Files\Microsoft Visual Studio\2022\Professional\VC\Tools\MSVC\14.44.35207\include\utility
; File C:\Program Files\Microsoft Visual Studio\2022\Professional\VC\Tools\MSVC\14.44.35207\include\xmemory
; File C:\Program Files\Microsoft Visual Studio\2022\Professional\VC\Tools\MSVC\14.44.35207\include\xtree
;	COMDAT ??$_Erase_tree@V?$allocator@U?$_Tree_node@U?$pair@$$CBKPAVCCouple@@@std@@PAX@std@@@std@@@?$_Tree_val@U?$_Tree_simple_types@U?$pair@$$CBKPAVCCouple@@@std@@@std@@@std@@QAEXAAV?$allocator@U?$_Tree_node@U?$pair@$$CBKPAVCCouple@@@std@@PAX@std@@@1@PAU?$_Tree_node@U?$pair@$$CBKPAVCCouple@@@std@@PAX@1@@Z
_TEXT	SEGMENT
__Al$ = 8						; size = 4
__Rootnode$ = 12					; size = 4
??$_Erase_tree@V?$allocator@U?$_Tree_node@U?$pair@$$CBKPAVCCouple@@@std@@PAX@std@@@std@@@?$_Tree_val@U?$_Tree_simple_types@U?$pair@$$CBKPAVCCouple@@@std@@@std@@@std@@QAEXAAV?$allocator@U?$_Tree_node@U?$pair@$$CBKPAVCCouple@@@std@@PAX@std@@@1@PAU?$_Tree_node@U?$pair@$$CBKPAVCCouple@@@std@@PAX@1@@Z PROC ; std::_Tree_val<std::_Tree_simple_types<std::pair<unsigned long const ,CCouple *> > >::_Erase_tree<std::allocator<std::_Tree_node<std::pair<unsigned long const ,CCouple *>,void *> > >, COMDAT
; _this$ = ecx

; 767  :     void _Erase_tree(_Alnode& _Al, _Nodeptr _Rootnode) noexcept {

  00000	55		 push	 ebp
  00001	8b ec		 mov	 ebp, esp
  00003	53		 push	 ebx
  00004	56		 push	 esi

; 768  :         while (!_Rootnode->_Isnil) { // free subtrees, then node

  00005	8b 75 0c	 mov	 esi, DWORD PTR __Rootnode$[ebp]
  00008	8b d9		 mov	 ebx, ecx
  0000a	80 7e 0d 00	 cmp	 BYTE PTR [esi+13], 0
  0000e	75 25		 jne	 SHORT $LN34@Erase_tree
  00010	57		 push	 edi
  00011	8b 7d 08	 mov	 edi, DWORD PTR __Al$[ebp]
$LL2@Erase_tree:

; 769  :             _Erase_tree(_Al, _Rootnode->_Right);

  00014	ff 76 08	 push	 DWORD PTR [esi+8]
  00017	8b cb		 mov	 ecx, ebx
  00019	57		 push	 edi
  0001a	e8 00 00 00 00	 call	 ??$_Erase_tree@V?$allocator@U?$_Tree_node@U?$pair@$$CBKPAVCCouple@@@std@@PAX@std@@@std@@@?$_Tree_val@U?$_Tree_simple_types@U?$pair@$$CBKPAVCCouple@@@std@@@std@@@std@@QAEXAAV?$allocator@U?$_Tree_node@U?$pair@$$CBKPAVCCouple@@@std@@PAX@std@@@1@PAU?$_Tree_node@U?$pair@$$CBKPAVCCouple@@@std@@PAX@1@@Z ; std::_Tree_val<std::_Tree_simple_types<std::pair<unsigned long const ,CCouple *> > >::_Erase_tree<std::allocator<std::_Tree_node<std::pair<unsigned long const ,CCouple *>,void *> > >
; File C:\Program Files\Microsoft Visual Studio\2022\Professional\VC\Tools\MSVC\14.44.35207\include\utility

; 773  :     _Ty _Old_val = static_cast<_Ty&&>(_Val);

  0001f	8b c6		 mov	 eax, esi

; 774  :     _Val         = static_cast<_Other&&>(_New_val);

  00021	8b 36		 mov	 esi, DWORD PTR [esi]
; File C:\Program Files\Microsoft Visual Studio\2022\Professional\VC\Tools\MSVC\14.44.35207\include\xmemory

; 289  :         ::operator delete(_Ptr, _Bytes);

  00023	6a 18		 push	 24			; 00000018H
  00025	50		 push	 eax
  00026	e8 00 00 00 00	 call	 ??3@YAXPAXI@Z		; operator delete
  0002b	83 c4 08	 add	 esp, 8
; File C:\Program Files\Microsoft Visual Studio\2022\Professional\VC\Tools\MSVC\14.44.35207\include\xtree

; 768  :         while (!_Rootnode->_Isnil) { // free subtrees, then node

  0002e	80 7e 0d 00	 cmp	 BYTE PTR [esi+13], 0
  00032	74 e0		 je	 SHORT $LL2@Erase_tree
  00034	5f		 pop	 edi
$LN34@Erase_tree:
  00035	5e		 pop	 esi

; 770  :             _Alnode::value_type::_Freenode(_Al, _STD exchange(_Rootnode, _Rootnode->_Left));
; 771  :         }
; 772  :     }

  00036	5b		 pop	 ebx
  00037	5d		 pop	 ebp
  00038	c2 08 00	 ret	 8
??$_Erase_tree@V?$allocator@U?$_Tree_node@U?$pair@$$CBKPAVCCouple@@@std@@PAX@std@@@std@@@?$_Tree_val@U?$_Tree_simple_types@U?$pair@$$CBKPAVCCouple@@@std@@@std@@@std@@QAEXAAV?$allocator@U?$_Tree_node@U?$pair@$$CBKPAVCCouple@@@std@@PAX@std@@@1@PAU?$_Tree_node@U?$pair@$$CBKPAVCCouple@@@std@@PAX@1@@Z ENDP ; std::_Tree_val<std::_Tree_simple_types<std::pair<unsigned long const ,CCouple *> > >::_Erase_tree<std::allocator<std::_Tree_node<std::pair<unsigned long const ,CCouple *>,void *> > >
_TEXT	ENDS
; Function compile flags: /Ogtp
;	COMDAT ??__FsCoupleProperty@?1??Instance@CCoupleProperty@@SAPAV1@XZ@YAXXZ
text$yd	SEGMENT
??__FsCoupleProperty@?1??Instance@CCoupleProperty@@SAPAV1@XZ@YAXXZ PROC ; `CCoupleProperty::Instance'::`2'::`dynamic atexit destructor for 'sCoupleProperty'', COMDAT
  00000	b9 00 00 00 00	 mov	 ecx, OFFSET ?sCoupleProperty@?1??Instance@CCoupleProperty@@SAPAV2@XZ@4V2@A
  00005	e9 00 00 00 00	 jmp	 ??1CCoupleProperty@@UAE@XZ ; CCoupleProperty::~CCoupleProperty
??__FsCoupleProperty@?1??Instance@CCoupleProperty@@SAPAV1@XZ@YAXXZ ENDP ; `CCoupleProperty::Instance'::`2'::`dynamic atexit destructor for 'sCoupleProperty''
text$yd	ENDS
; Function compile flags: /Ogtp
; File C:\Program Files\Microsoft Visual Studio\2022\Professional\VC\Tools\MSVC\14.44.35207\include\vector
;	COMDAT ?_Xlength@?$vector@U_COUPLE_ITEM@@V?$allocator@U_COUPLE_ITEM@@@std@@@std@@CAXXZ
_TEXT	SEGMENT
?_Xlength@?$vector@U_COUPLE_ITEM@@V?$allocator@U_COUPLE_ITEM@@@std@@@std@@CAXXZ PROC ; std::vector<_COUPLE_ITEM,std::allocator<_COUPLE_ITEM> >::_Xlength, COMDAT

; 2184 :         _Xlength_error("vector too long");

  00000	68 00 00 00 00	 push	 OFFSET ??_C@_0BA@FOIKENOD@vector?5too?5long@
  00005	e8 00 00 00 00	 call	 ?_Xlength_error@std@@YAXPBD@Z ; std::_Xlength_error
$LN3@Xlength:
  0000a	cc		 int	 3
?_Xlength@?$vector@U_COUPLE_ITEM@@V?$allocator@U_COUPLE_ITEM@@@std@@@std@@CAXXZ ENDP ; std::vector<_COUPLE_ITEM,std::allocator<_COUPLE_ITEM> >::_Xlength
_TEXT	ENDS
; Function compile flags: /Ogtp
; File C:\Program Files\Microsoft Visual Studio\2022\Professional\VC\Tools\MSVC\14.44.35207\include\xtree
; File C:\Program Files\Microsoft Visual Studio\2022\Professional\VC\Tools\MSVC\14.44.35207\include\type_traits
; File C:\Program Files\Microsoft Visual Studio\2022\Professional\VC\Tools\MSVC\14.44.35207\include\xtree
; File C:\Program Files\Microsoft Visual Studio\2022\Professional\VC\Tools\MSVC\14.44.35207\include\utility
; File C:\Program Files\Microsoft Visual Studio\2022\Professional\VC\Tools\MSVC\14.44.35207\include\xtree
; File C:\Program Files\Microsoft Visual Studio\2022\Professional\VC\Tools\MSVC\14.44.35207\include\xmemory
; File C:\Program Files\Microsoft Visual Studio\2022\Professional\VC\Tools\MSVC\14.44.35207\include\xtree
; File C:\Program Files\Microsoft Visual Studio\2022\Professional\VC\Tools\MSVC\14.44.35207\include\xmemory
; File C:\Program Files\Microsoft Visual Studio\2022\Professional\VC\Tools\MSVC\14.44.35207\include\xtree
; File C:\Program Files\Microsoft Visual Studio\2022\Professional\VC\Tools\MSVC\14.44.35207\include\xmemory
; File C:\Program Files\Microsoft Visual Studio\2022\Professional\VC\Tools\MSVC\14.44.35207\include\xtree
; File C:\Program Files\Microsoft Visual Studio\2022\Professional\VC\Tools\MSVC\14.44.35207\include\utility
; File C:\Program Files\Microsoft Visual Studio\2022\Professional\VC\Tools\MSVC\14.44.35207\include\xtree
;	COMDAT ??$insert@$0A@$0A@@?$_Tree@V?$_Tmap_traits@KPAVCCouple@@U?$less@K@std@@V?$allocator@U?$pair@$$CBKPAVCCouple@@@std@@@3@$0A@@std@@@std@@QAE?AU?$pair@V?$_Tree_iterator@V?$_Tree_val@U?$_Tree_simple_types@U?$pair@$$CBKPAVCCouple@@@std@@@std@@@std@@@std@@_N@1@$$QAU?$pair@$$CBKPAVCCouple@@@1@@Z
_TEXT	SEGMENT
__Loc$2 = -36						; size = 12
$T3 = -24						; size = 12
$T4 = -20						; size = 8
__$EHRec$ = -12						; size = 12
___$ReturnUdt$ = 8					; size = 4
__Val$ = 12						; size = 4
??$insert@$0A@$0A@@?$_Tree@V?$_Tmap_traits@KPAVCCouple@@U?$less@K@std@@V?$allocator@U?$pair@$$CBKPAVCCouple@@@std@@@3@$0A@@std@@@std@@QAE?AU?$pair@V?$_Tree_iterator@V?$_Tree_val@U?$_Tree_simple_types@U?$pair@$$CBKPAVCCouple@@@std@@@std@@@std@@@std@@_N@1@$$QAU?$pair@$$CBKPAVCCouple@@@1@@Z PROC ; std::_Tree<std::_Tmap_traits<unsigned long,CCouple *,std::less<unsigned long>,std::allocator<std::pair<unsigned long const ,CCouple *> >,0> >::insert<0,0>, COMDAT
; _this$ = ecx

; 1245 :     pair<iterator, bool> insert(value_type&& _Val) {

  00000	55		 push	 ebp
  00001	8b ec		 mov	 ebp, esp
  00003	6a ff		 push	 -1
  00005	68 00 00 00 00	 push	 __ehhandler$??$insert@$0A@$0A@@?$_Tree@V?$_Tmap_traits@KPAVCCouple@@U?$less@K@std@@V?$allocator@U?$pair@$$CBKPAVCCouple@@@std@@@3@$0A@@std@@@std@@QAE?AU?$pair@V?$_Tree_iterator@V?$_Tree_val@U?$_Tree_simple_types@U?$pair@$$CBKPAVCCouple@@@std@@@std@@@std@@@std@@_N@1@$$QAU?$pair@$$CBKPAVCCouple@@@1@@Z
  0000a	64 a1 00 00 00
	00		 mov	 eax, DWORD PTR fs:0
  00010	50		 push	 eax
  00011	83 ec 18	 sub	 esp, 24			; 00000018H
  00014	53		 push	 ebx
  00015	56		 push	 esi
  00016	57		 push	 edi
  00017	a1 00 00 00 00	 mov	 eax, DWORD PTR ___security_cookie
  0001c	33 c5		 xor	 eax, ebp
  0001e	50		 push	 eax
  0001f	8d 45 f4	 lea	 eax, DWORD PTR __$EHRec$[ebp]
  00022	64 a3 00 00 00
	00		 mov	 DWORD PTR fs:0, eax
  00028	8b f9		 mov	 edi, ecx

; 1017 :             _Loc                = _Find_lower_bound(_Keyval);

  0002a	8b 5d 0c	 mov	 ebx, DWORD PTR __Val$[ebp]
  0002d	8d 45 e8	 lea	 eax, DWORD PTR $T3[ebp]
  00030	53		 push	 ebx
  00031	50		 push	 eax
  00032	e8 00 00 00 00	 call	 ??$_Find_lower_bound@K@?$_Tree@V?$_Tmap_traits@KPAVCCouple@@U?$less@K@std@@V?$allocator@U?$pair@$$CBKPAVCCouple@@@std@@@3@$0A@@std@@@std@@IBE?AU?$_Tree_find_result@PAU?$_Tree_node@U?$pair@$$CBKPAVCCouple@@@std@@PAX@std@@@1@ABK@Z ; std::_Tree<std::_Tmap_traits<unsigned long,CCouple *,std::less<unsigned long>,std::allocator<std::pair<unsigned long const ,CCouple *> >,0> >::_Find_lower_bound<unsigned long>
  00037	8b 48 08	 mov	 ecx, DWORD PTR [eax+8]
  0003a	f3 0f 7e 00	 movq	 xmm0, QWORD PTR [eax]
  0003e	66 0f d6 45 dc	 movq	 QWORD PTR __Loc$2[ebp], xmm0

; 1624 :         return !_Bound->_Isnil && !_DEBUG_LT_PRED(_Getcomp(), _Keyval, _Traits::_Kfn(_Bound->_Myval));

  00043	80 79 0d 00	 cmp	 BYTE PTR [ecx+13], 0
  00047	75 0b		 jne	 SHORT $LN4@insert
; File C:\Program Files\Microsoft Visual Studio\2022\Professional\VC\Tools\MSVC\14.44.35207\include\type_traits

; 2380 :         return _Left < _Right;

  00049	8b 03		 mov	 eax, DWORD PTR [ebx]
  0004b	3b 41 10	 cmp	 eax, DWORD PTR [ecx+16]
; File C:\Program Files\Microsoft Visual Studio\2022\Professional\VC\Tools\MSVC\14.44.35207\include\xtree

; 1624 :         return !_Bound->_Isnil && !_DEBUG_LT_PRED(_Getcomp(), _Keyval, _Traits::_Kfn(_Bound->_Myval));

  0004e	72 04		 jb	 SHORT $LN4@insert
; File C:\Program Files\Microsoft Visual Studio\2022\Professional\VC\Tools\MSVC\14.44.35207\include\utility

; 274  :         : first(_STD forward<_Other1>(_Val1)), second(_STD forward<_Other2>(_Val2)) {

  00050	32 d2		 xor	 dl, dl
; File C:\Program Files\Microsoft Visual Studio\2022\Professional\VC\Tools\MSVC\14.44.35207\include\xtree

; 1019 :                 return {_Loc._Bound, false};

  00052	eb 51		 jmp	 SHORT $LN84@insert
$LN4@insert:

; 1648 :         if (max_size() == _Get_scary()->_Mysize) {

  00054	81 7f 04 aa aa
	aa 0a		 cmp	 DWORD PTR [edi+4], 178956970 ; 0aaaaaaaH
  0005b	74 64		 je	 SHORT $LN103@insert

; 1023 :             _Inserted = _Tree_temp_node<_Alnode>(_Getal(), _Scary->_Myhead, _STD forward<_Valtys>(_Vals)...)._Release();

  0005d	8b 37		 mov	 esi, DWORD PTR [edi]
; File C:\Program Files\Microsoft Visual Studio\2022\Professional\VC\Tools\MSVC\14.44.35207\include\xmemory

; 1160 :     _CONSTEXPR20 explicit _Alloc_construct_ptr(_Alloc& _Al_) : _Al(_Al_), _Ptr(nullptr) {}

  0005f	89 7d ec	 mov	 DWORD PTR $T4[ebp], edi

; 136  :         return ::operator new(_Bytes);

  00062	6a 18		 push	 24			; 00000018H
; File C:\Program Files\Microsoft Visual Studio\2022\Professional\VC\Tools\MSVC\14.44.35207\include\xtree

; 808  :     explicit _Tree_temp_node_alloc(_Alnode& _Al_) : _Alloc_construct_ptr<_Alnode>(_Al_) {

  00064	c7 45 fc 00 00
	00 00		 mov	 DWORD PTR __$EHRec$[ebp+8], 0
; File C:\Program Files\Microsoft Visual Studio\2022\Professional\VC\Tools\MSVC\14.44.35207\include\xmemory

; 1167 :         _Ptr = nullptr; // if allocate throws, prevents double-free

  0006b	c7 45 f0 00 00
	00 00		 mov	 DWORD PTR $T4[ebp+4], 0

; 136  :         return ::operator new(_Bytes);

  00072	e8 00 00 00 00	 call	 ??2@YAPAXI@Z		; operator new
; File C:\Program Files\Microsoft Visual Studio\2022\Professional\VC\Tools\MSVC\14.44.35207\include\xtree

; 830  :         _Alnode_traits::construct(this->_Al, _STD addressof(this->_Ptr->_Myval), _STD forward<_Valtys>(_Vals)...);

  00077	8b 0b		 mov	 ecx, DWORD PTR [ebx]
; File C:\Program Files\Microsoft Visual Studio\2022\Professional\VC\Tools\MSVC\14.44.35207\include\xmemory

; 136  :         return ::operator new(_Bytes);

  00079	83 c4 04	 add	 esp, 4
; File C:\Program Files\Microsoft Visual Studio\2022\Professional\VC\Tools\MSVC\14.44.35207\include\xtree

; 830  :         _Alnode_traits::construct(this->_Al, _STD addressof(this->_Ptr->_Myval), _STD forward<_Valtys>(_Vals)...);

  0007c	8b 53 04	 mov	 edx, DWORD PTR [ebx+4]
  0007f	89 48 10	 mov	 DWORD PTR [eax+16], ecx

; 1042 :         return {_Scary->_Insert_node(_Loc._Location, _Inserted), true};

  00082	8b cf		 mov	 ecx, edi
  00084	50		 push	 eax
  00085	ff 75 e0	 push	 DWORD PTR __Loc$2[ebp+4]

; 830  :         _Alnode_traits::construct(this->_Al, _STD addressof(this->_Ptr->_Myval), _STD forward<_Valtys>(_Vals)...);

  00088	89 50 14	 mov	 DWORD PTR [eax+20], edx

; 1042 :         return {_Scary->_Insert_node(_Loc._Location, _Inserted), true};

  0008b	ff 75 dc	 push	 DWORD PTR __Loc$2[ebp]

; 831  :         _Construct_in_place(this->_Ptr->_Left, _Myhead);

  0008e	89 30		 mov	 DWORD PTR [eax], esi

; 832  :         _Construct_in_place(this->_Ptr->_Parent, _Myhead);

  00090	89 70 04	 mov	 DWORD PTR [eax+4], esi

; 833  :         _Construct_in_place(this->_Ptr->_Right, _Myhead);

  00093	89 70 08	 mov	 DWORD PTR [eax+8], esi

; 834  :         this->_Ptr->_Color = _Red;

  00096	66 c7 40 0c 00
	00		 mov	 WORD PTR [eax+12], 0

; 1042 :         return {_Scary->_Insert_node(_Loc._Location, _Inserted), true};

  0009c	e8 00 00 00 00	 call	 ?_Insert_node@?$_Tree_val@U?$_Tree_simple_types@U?$pair@$$CBKPAVCCouple@@@std@@@std@@@std@@QAEPAU?$_Tree_node@U?$pair@$$CBKPAVCCouple@@@std@@PAX@2@U?$_Tree_id@PAU?$_Tree_node@U?$pair@$$CBKPAVCCouple@@@std@@PAX@std@@@2@QAU32@@Z ; std::_Tree_val<std::_Tree_simple_types<std::pair<unsigned long const ,CCouple *> > >::_Insert_node
; File C:\Program Files\Microsoft Visual Studio\2022\Professional\VC\Tools\MSVC\14.44.35207\include\utility

; 274  :         : first(_STD forward<_Other1>(_Val1)), second(_STD forward<_Other2>(_Val2)) {

  000a1	8b c8		 mov	 ecx, eax
  000a3	b2 01		 mov	 dl, 1
$LN84@insert:
  000a5	8b 45 08	 mov	 eax, DWORD PTR ___$ReturnUdt$[ebp]
  000a8	89 08		 mov	 DWORD PTR [eax], ecx
  000aa	88 50 04	 mov	 BYTE PTR [eax+4], dl
; File C:\Program Files\Microsoft Visual Studio\2022\Professional\VC\Tools\MSVC\14.44.35207\include\xtree

; 1248 :     }

  000ad	8b 4d f4	 mov	 ecx, DWORD PTR __$EHRec$[ebp]
  000b0	64 89 0d 00 00
	00 00		 mov	 DWORD PTR fs:0, ecx
  000b7	59		 pop	 ecx
  000b8	5f		 pop	 edi
  000b9	5e		 pop	 esi
  000ba	5b		 pop	 ebx
  000bb	8b e5		 mov	 esp, ebp
  000bd	5d		 pop	 ebp
  000be	c2 08 00	 ret	 8
$LN103@insert:

; 1649 :             _Throw_tree_length_error();

  000c1	e8 00 00 00 00	 call	 ?_Throw_tree_length_error@std@@YAXXZ ; std::_Throw_tree_length_error
$LN101@insert:
  000c6	cc		 int	 3
_TEXT	ENDS
;	COMDAT text$x
text$x	SEGMENT
__unwindfunclet$??$insert@$0A@$0A@@?$_Tree@V?$_Tmap_traits@KPAVCCouple@@U?$less@K@std@@V?$allocator@U?$pair@$$CBKPAVCCouple@@@std@@@3@$0A@@std@@@std@@QAE?AU?$pair@V?$_Tree_iterator@V?$_Tree_val@U?$_Tree_simple_types@U?$pair@$$CBKPAVCCouple@@@std@@@std@@@std@@@std@@_N@1@$$QAU?$pair@$$CBKPAVCCouple@@@1@@Z$2:
  00000	8d 4d ec	 lea	 ecx, DWORD PTR $T4[ebp]
  00003	e9 00 00 00 00	 jmp	 ??1?$_Alloc_construct_ptr@V?$allocator@U?$_Tree_node@U?$pair@$$CBKPAVCCouple@@@std@@PAX@std@@@std@@@std@@QAE@XZ ; std::_Alloc_construct_ptr<std::allocator<std::_Tree_node<std::pair<unsigned long const ,CCouple *>,void *> > >::~_Alloc_construct_ptr<std::allocator<std::_Tree_node<std::pair<unsigned long const ,CCouple *>,void *> > >
  00008	cc		 int	 3
  00009	cc		 int	 3
  0000a	cc		 int	 3
  0000b	cc		 int	 3
  0000c	cc		 int	 3
__ehhandler$??$insert@$0A@$0A@@?$_Tree@V?$_Tmap_traits@KPAVCCouple@@U?$less@K@std@@V?$allocator@U?$pair@$$CBKPAVCCouple@@@std@@@3@$0A@@std@@@std@@QAE?AU?$pair@V?$_Tree_iterator@V?$_Tree_val@U?$_Tree_simple_types@U?$pair@$$CBKPAVCCouple@@@std@@@std@@@std@@@std@@_N@1@$$QAU?$pair@$$CBKPAVCCouple@@@1@@Z:
  0000d	90		 npad	 1
  0000e	90		 npad	 1
  0000f	8b 54 24 08	 mov	 edx, DWORD PTR [esp+8]
  00013	8d 42 0c	 lea	 eax, DWORD PTR [edx+12]
  00016	8b 4a d8	 mov	 ecx, DWORD PTR [edx-40]
  00019	33 c8		 xor	 ecx, eax
  0001b	e8 00 00 00 00	 call	 @__security_check_cookie@4
  00020	b8 00 00 00 00	 mov	 eax, OFFSET __ehfuncinfo$??$insert@$0A@$0A@@?$_Tree@V?$_Tmap_traits@KPAVCCouple@@U?$less@K@std@@V?$allocator@U?$pair@$$CBKPAVCCouple@@@std@@@3@$0A@@std@@@std@@QAE?AU?$pair@V?$_Tree_iterator@V?$_Tree_val@U?$_Tree_simple_types@U?$pair@$$CBKPAVCCouple@@@std@@@std@@@std@@@std@@_N@1@$$QAU?$pair@$$CBKPAVCCouple@@@1@@Z
  00025	e9 00 00 00 00	 jmp	 ___CxxFrameHandler3
text$x	ENDS
??$insert@$0A@$0A@@?$_Tree@V?$_Tmap_traits@KPAVCCouple@@U?$less@K@std@@V?$allocator@U?$pair@$$CBKPAVCCouple@@@std@@@3@$0A@@std@@@std@@QAE?AU?$pair@V?$_Tree_iterator@V?$_Tree_val@U?$_Tree_simple_types@U?$pair@$$CBKPAVCCouple@@@std@@@std@@@std@@@std@@_N@1@$$QAU?$pair@$$CBKPAVCCouple@@@1@@Z ENDP ; std::_Tree<std::_Tmap_traits<unsigned long,CCouple *,std::less<unsigned long>,std::allocator<std::pair<unsigned long const ,CCouple *> >,0> >::insert<0,0>
; Function compile flags: /Ogtp
; File C:\IAGOS\server\v18\Source\Source\_Network\Misc\Include\Ar.h
;	COMDAT ??$?5I@CAr@@QAEAAV0@AAI@Z
_TEXT	SEGMENT
_t$ = 8							; size = 4
??$?5I@CAr@@QAEAAV0@AAI@Z PROC				; CAr::operator>><unsigned int>, COMDAT
; _this$ = ecx

; 302  : {

  00000	55		 push	 ebp
  00001	8b ec		 mov	 ebp, esp
  00003	8b d1		 mov	 edx, ecx

; 303  : 	if (m_lpBufCur + sizeof(T) <= m_lpBufMax)

  00005	8b 4a 08	 mov	 ecx, DWORD PTR [edx+8]
  00008	8d 41 04	 lea	 eax, DWORD PTR [ecx+4]
  0000b	3b 42 0c	 cmp	 eax, DWORD PTR [edx+12]
  0000e	8b 45 08	 mov	 eax, DWORD PTR _t$[ebp]
  00011	77 0e		 ja	 SHORT $LN2@operator

; 304  : 	{
; 305  : 		t = *(UNALIGNED T*)m_lpBufCur;

  00013	8b 09		 mov	 ecx, DWORD PTR [ecx]
  00015	89 08		 mov	 DWORD PTR [eax], ecx

; 312  : 	}
; 313  : 	return *this;
; 314  : }

  00017	8b c2		 mov	 eax, edx
  00019	83 42 08 04	 add	 DWORD PTR [edx+8], 4
  0001d	5d		 pop	 ebp
  0001e	c2 04 00	 ret	 4
$LN2@operator:

; 306  : 		m_lpBufCur += sizeof(T);
; 307  : 	}
; 308  : 	else
; 309  : 	{
; 310  : 		t = T();

  00021	c7 00 00 00 00
	00		 mov	 DWORD PTR [eax], 0

; 311  : 		m_lpBufCur = m_lpBufMax;

  00027	8b 42 0c	 mov	 eax, DWORD PTR [edx+12]
  0002a	89 42 08	 mov	 DWORD PTR [edx+8], eax

; 312  : 	}
; 313  : 	return *this;
; 314  : }

  0002d	8b c2		 mov	 eax, edx
  0002f	5d		 pop	 ebp
  00030	c2 04 00	 ret	 4
??$?5I@CAr@@QAEAAV0@AAI@Z ENDP				; CAr::operator>><unsigned int>
_TEXT	ENDS
; Function compile flags: /Ogtp
; File C:\IAGOS\server\v18\Source\Source\_Network\Misc\Include\Ar.h
;	COMDAT ??$?6I@CAr@@QAEAAV0@ABI@Z
_TEXT	SEGMENT
_t$ = 8							; size = 4
??$?6I@CAr@@QAEAAV0@ABI@Z PROC				; CAr::operator<<<unsigned int>, COMDAT
; _this$ = ecx

; 255  : {

  00000	55		 push	 ebp
  00001	8b ec		 mov	 ebp, esp
  00003	56		 push	 esi

; 256  : 	CheckBuf(sizeof(T));

  00004	6a 04		 push	 4
  00006	8b f1		 mov	 esi, ecx
  00008	e8 00 00 00 00	 call	 ?CheckBuf@CAr@@QAEXI@Z	; CAr::CheckBuf

; 257  : 	*(UNALIGNED T*)m_lpBufCur = t;

  0000d	8b 56 08	 mov	 edx, DWORD PTR [esi+8]
  00010	8b 45 08	 mov	 eax, DWORD PTR _t$[ebp]
  00013	8b 00		 mov	 eax, DWORD PTR [eax]
  00015	89 02		 mov	 DWORD PTR [edx], eax

; 258  : 	m_lpBufCur += sizeof(T);
; 259  : 	return *this;

  00017	8b c6		 mov	 eax, esi
  00019	83 46 08 04	 add	 DWORD PTR [esi+8], 4
  0001d	5e		 pop	 esi

; 260  : }

  0001e	5d		 pop	 ebp
  0001f	c2 04 00	 ret	 4
??$?6I@CAr@@QAEAAV0@ABI@Z ENDP				; CAr::operator<<<unsigned int>
_TEXT	ENDS
; Function compile flags: /Ogtp
; File C:\Program Files\Microsoft Visual Studio\2022\Professional\VC\Tools\MSVC\14.44.35207\include\xtree
;	COMDAT ??E?$_Tree_unchecked_const_iterator@V?$_Tree_val@U?$_Tree_simple_types@U?$pair@$$CBKPAVCCouple@@@std@@@std@@@std@@U_Iterator_base0@2@@std@@QAEAAV01@XZ
_TEXT	SEGMENT
??E?$_Tree_unchecked_const_iterator@V?$_Tree_val@U?$_Tree_simple_types@U?$pair@$$CBKPAVCCouple@@@std@@@std@@@std@@U_Iterator_base0@2@@std@@QAEAAV01@XZ PROC ; std::_Tree_unchecked_const_iterator<std::_Tree_val<std::_Tree_simple_types<std::pair<unsigned long const ,CCouple *> > >,std::_Iterator_base0>::operator++, COMDAT
; _this$ = ecx

; 49   :     _Tree_unchecked_const_iterator& operator++() noexcept {

  00000	56		 push	 esi
  00001	8b f1		 mov	 esi, ecx
  00003	57		 push	 edi

; 50   :         if (_Ptr->_Right->_Isnil) { // climb looking for right subtree

  00004	8b 16		 mov	 edx, DWORD PTR [esi]
  00006	8b 7a 08	 mov	 edi, DWORD PTR [edx+8]
  00009	80 7f 0d 00	 cmp	 BYTE PTR [edi+13], 0
  0000d	74 22		 je	 SHORT $LN4@operator

; 51   :             _Nodeptr _Pnode;
; 52   :             while (!(_Pnode = _Ptr->_Parent)->_Isnil && _Ptr == _Pnode->_Right) {

  0000f	8b 42 04	 mov	 eax, DWORD PTR [edx+4]
  00012	80 78 0d 00	 cmp	 BYTE PTR [eax+13], 0
  00016	75 12		 jne	 SHORT $LN21@operator
$LL2@operator:
  00018	3b 50 08	 cmp	 edx, DWORD PTR [eax+8]
  0001b	75 0d		 jne	 SHORT $LN21@operator

; 53   :                 _Ptr = _Pnode; // ==> parent while right subtree

  0001d	89 06		 mov	 DWORD PTR [esi], eax
  0001f	8b d0		 mov	 edx, eax
  00021	8b 40 04	 mov	 eax, DWORD PTR [eax+4]
  00024	80 78 0d 00	 cmp	 BYTE PTR [eax+13], 0
  00028	74 ee		 je	 SHORT $LL2@operator
$LN21@operator:

; 54   :             }
; 55   : 
; 56   :             _Ptr = _Pnode; // ==> parent (head if end())
; 57   :         } else {
; 58   :             _Ptr = _Mytree::_Min(_Ptr->_Right); // ==> smallest of right subtree
; 59   :         }
; 60   : 
; 61   :         return *this;

  0002a	89 06		 mov	 DWORD PTR [esi], eax

; 62   :     }

  0002c	8b c6		 mov	 eax, esi
  0002e	5f		 pop	 edi
  0002f	5e		 pop	 esi
  00030	c3		 ret	 0
$LN4@operator:

; 476  :         while (!_Pnode->_Left->_Isnil) {

  00031	8b 0f		 mov	 ecx, DWORD PTR [edi]
  00033	80 79 0d 00	 cmp	 BYTE PTR [ecx+13], 0
  00037	75 13		 jne	 SHORT $LN10@operator
  00039	0f 1f 80 00 00
	00 00		 npad	 7
$LL9@operator:
  00040	8b 01		 mov	 eax, DWORD PTR [ecx]

; 477  :             _Pnode = _Pnode->_Left;

  00042	8b f9		 mov	 edi, ecx
  00044	8b c8		 mov	 ecx, eax
  00046	80 78 0d 00	 cmp	 BYTE PTR [eax+13], 0
  0004a	74 f4		 je	 SHORT $LL9@operator
$LN10@operator:

; 54   :             }
; 55   : 
; 56   :             _Ptr = _Pnode; // ==> parent (head if end())
; 57   :         } else {
; 58   :             _Ptr = _Mytree::_Min(_Ptr->_Right); // ==> smallest of right subtree
; 59   :         }
; 60   : 
; 61   :         return *this;

  0004c	89 3e		 mov	 DWORD PTR [esi], edi

; 62   :     }

  0004e	8b c6		 mov	 eax, esi
  00050	5f		 pop	 edi
  00051	5e		 pop	 esi
  00052	c3		 ret	 0
??E?$_Tree_unchecked_const_iterator@V?$_Tree_val@U?$_Tree_simple_types@U?$pair@$$CBKPAVCCouple@@@std@@@std@@@std@@U_Iterator_base0@2@@std@@QAEAAV01@XZ ENDP ; std::_Tree_unchecked_const_iterator<std::_Tree_val<std::_Tree_simple_types<std::pair<unsigned long const ,CCouple *> > >,std::_Iterator_base0>::operator++
_TEXT	ENDS
; Function compile flags: /Ogtp
; File C:\IAGOS\server\v18\Source\Source\_Network\Misc\Include\Ar.h
;	COMDAT ??$?5K@CAr@@QAEAAV0@AAK@Z
_TEXT	SEGMENT
_t$ = 8							; size = 4
??$?5K@CAr@@QAEAAV0@AAK@Z PROC				; CAr::operator>><unsigned long>, COMDAT
; _this$ = ecx

; 302  : {

  00000	55		 push	 ebp
  00001	8b ec		 mov	 ebp, esp
  00003	8b d1		 mov	 edx, ecx

; 303  : 	if (m_lpBufCur + sizeof(T) <= m_lpBufMax)

  00005	8b 4a 08	 mov	 ecx, DWORD PTR [edx+8]
  00008	8d 41 04	 lea	 eax, DWORD PTR [ecx+4]
  0000b	3b 42 0c	 cmp	 eax, DWORD PTR [edx+12]
  0000e	8b 45 08	 mov	 eax, DWORD PTR _t$[ebp]
  00011	77 0e		 ja	 SHORT $LN2@operator

; 304  : 	{
; 305  : 		t = *(UNALIGNED T*)m_lpBufCur;

  00013	8b 09		 mov	 ecx, DWORD PTR [ecx]
  00015	89 08		 mov	 DWORD PTR [eax], ecx

; 312  : 	}
; 313  : 	return *this;
; 314  : }

  00017	8b c2		 mov	 eax, edx
  00019	83 42 08 04	 add	 DWORD PTR [edx+8], 4
  0001d	5d		 pop	 ebp
  0001e	c2 04 00	 ret	 4
$LN2@operator:

; 306  : 		m_lpBufCur += sizeof(T);
; 307  : 	}
; 308  : 	else
; 309  : 	{
; 310  : 		t = T();

  00021	c7 00 00 00 00
	00		 mov	 DWORD PTR [eax], 0

; 311  : 		m_lpBufCur = m_lpBufMax;

  00027	8b 42 0c	 mov	 eax, DWORD PTR [edx+12]
  0002a	89 42 08	 mov	 DWORD PTR [edx+8], eax

; 312  : 	}
; 313  : 	return *this;
; 314  : }

  0002d	8b c2		 mov	 eax, edx
  0002f	5d		 pop	 ebp
  00030	c2 04 00	 ret	 4
??$?5K@CAr@@QAEAAV0@AAK@Z ENDP				; CAr::operator>><unsigned long>
_TEXT	ENDS
; Function compile flags: /Ogtp
; File C:\IAGOS\server\v18\Source\Source\_Network\Misc\Include\Ar.h
;	COMDAT ??$?5H@CAr@@QAEAAV0@AAH@Z
_TEXT	SEGMENT
_t$ = 8							; size = 4
??$?5H@CAr@@QAEAAV0@AAH@Z PROC				; CAr::operator>><int>, COMDAT
; _this$ = ecx

; 302  : {

  00000	55		 push	 ebp
  00001	8b ec		 mov	 ebp, esp
  00003	8b d1		 mov	 edx, ecx

; 303  : 	if (m_lpBufCur + sizeof(T) <= m_lpBufMax)

  00005	8b 4a 08	 mov	 ecx, DWORD PTR [edx+8]
  00008	8d 41 04	 lea	 eax, DWORD PTR [ecx+4]
  0000b	3b 42 0c	 cmp	 eax, DWORD PTR [edx+12]
  0000e	8b 45 08	 mov	 eax, DWORD PTR _t$[ebp]
  00011	77 0e		 ja	 SHORT $LN2@operator

; 304  : 	{
; 305  : 		t = *(UNALIGNED T*)m_lpBufCur;

  00013	8b 09		 mov	 ecx, DWORD PTR [ecx]
  00015	89 08		 mov	 DWORD PTR [eax], ecx

; 312  : 	}
; 313  : 	return *this;
; 314  : }

  00017	8b c2		 mov	 eax, edx
  00019	83 42 08 04	 add	 DWORD PTR [edx+8], 4
  0001d	5d		 pop	 ebp
  0001e	c2 04 00	 ret	 4
$LN2@operator:

; 306  : 		m_lpBufCur += sizeof(T);
; 307  : 	}
; 308  : 	else
; 309  : 	{
; 310  : 		t = T();

  00021	c7 00 00 00 00
	00		 mov	 DWORD PTR [eax], 0

; 311  : 		m_lpBufCur = m_lpBufMax;

  00027	8b 42 0c	 mov	 eax, DWORD PTR [edx+12]
  0002a	89 42 08	 mov	 DWORD PTR [edx+8], eax

; 312  : 	}
; 313  : 	return *this;
; 314  : }

  0002d	8b c2		 mov	 eax, edx
  0002f	5d		 pop	 ebp
  00030	c2 04 00	 ret	 4
??$?5H@CAr@@QAEAAV0@AAH@Z ENDP				; CAr::operator>><int>
_TEXT	ENDS
; Function compile flags: /Ogtp
; File C:\IAGOS\server\v18\Source\Source\_Network\Misc\Include\Ar.h
;	COMDAT ??$?6K@CAr@@QAEAAV0@ABK@Z
_TEXT	SEGMENT
_t$ = 8							; size = 4
??$?6K@CAr@@QAEAAV0@ABK@Z PROC				; CAr::operator<<<unsigned long>, COMDAT
; _this$ = ecx

; 255  : {

  00000	55		 push	 ebp
  00001	8b ec		 mov	 ebp, esp
  00003	56		 push	 esi

; 256  : 	CheckBuf(sizeof(T));

  00004	6a 04		 push	 4
  00006	8b f1		 mov	 esi, ecx
  00008	e8 00 00 00 00	 call	 ?CheckBuf@CAr@@QAEXI@Z	; CAr::CheckBuf

; 257  : 	*(UNALIGNED T*)m_lpBufCur = t;

  0000d	8b 56 08	 mov	 edx, DWORD PTR [esi+8]
  00010	8b 45 08	 mov	 eax, DWORD PTR _t$[ebp]
  00013	8b 00		 mov	 eax, DWORD PTR [eax]
  00015	89 02		 mov	 DWORD PTR [edx], eax

; 258  : 	m_lpBufCur += sizeof(T);
; 259  : 	return *this;

  00017	8b c6		 mov	 eax, esi
  00019	83 46 08 04	 add	 DWORD PTR [esi+8], 4
  0001d	5e		 pop	 esi

; 260  : }

  0001e	5d		 pop	 ebp
  0001f	c2 04 00	 ret	 4
??$?6K@CAr@@QAEAAV0@ABK@Z ENDP				; CAr::operator<<<unsigned long>
_TEXT	ENDS
; Function compile flags: /Ogtp
; File C:\IAGOS\server\v18\Source\Source\_Network\Misc\Include\Ar.h
;	COMDAT ??$?6H@CAr@@QAEAAV0@ABH@Z
_TEXT	SEGMENT
_t$ = 8							; size = 4
??$?6H@CAr@@QAEAAV0@ABH@Z PROC				; CAr::operator<<<int>, COMDAT
; _this$ = ecx

; 255  : {

  00000	55		 push	 ebp
  00001	8b ec		 mov	 ebp, esp
  00003	56		 push	 esi

; 256  : 	CheckBuf(sizeof(T));

  00004	6a 04		 push	 4
  00006	8b f1		 mov	 esi, ecx
  00008	e8 00 00 00 00	 call	 ?CheckBuf@CAr@@QAEXI@Z	; CAr::CheckBuf

; 257  : 	*(UNALIGNED T*)m_lpBufCur = t;

  0000d	8b 56 08	 mov	 edx, DWORD PTR [esi+8]
  00010	8b 45 08	 mov	 eax, DWORD PTR _t$[ebp]
  00013	8b 00		 mov	 eax, DWORD PTR [eax]
  00015	89 02		 mov	 DWORD PTR [edx], eax

; 258  : 	m_lpBufCur += sizeof(T);
; 259  : 	return *this;

  00017	8b c6		 mov	 eax, esi
  00019	83 46 08 04	 add	 DWORD PTR [esi+8], 4
  0001d	5e		 pop	 esi

; 260  : }

  0001e	5d		 pop	 ebp
  0001f	c2 04 00	 ret	 4
??$?6H@CAr@@QAEAAV0@ABH@Z ENDP				; CAr::operator<<<int>
_TEXT	ENDS
; Function compile flags: /Ogtp
;	COMDAT ??_GCCoupleMgr@@UAEPAXI@Z
_TEXT	SEGMENT
___flags$ = 8						; size = 4
??_GCCoupleMgr@@UAEPAXI@Z PROC				; CCoupleMgr::`scalar deleting destructor', COMDAT
; _this$ = ecx
  00000	55		 push	 ebp
  00001	8b ec		 mov	 ebp, esp
  00003	56		 push	 esi
  00004	8b f1		 mov	 esi, ecx
  00006	e8 00 00 00 00	 call	 ??1CCoupleMgr@@UAE@XZ	; CCoupleMgr::~CCoupleMgr
  0000b	f6 45 08 01	 test	 BYTE PTR ___flags$[ebp], 1
  0000f	74 0b		 je	 SHORT $LN5@scalar
  00011	6a 18		 push	 24			; 00000018H
  00013	56		 push	 esi
  00014	e8 00 00 00 00	 call	 ??3@YAXPAXI@Z		; operator delete
  00019	83 c4 08	 add	 esp, 8
$LN5@scalar:
  0001c	8b c6		 mov	 eax, esi
  0001e	5e		 pop	 esi
  0001f	5d		 pop	 ebp
  00020	c2 04 00	 ret	 4
??_GCCoupleMgr@@UAEPAXI@Z ENDP				; CCoupleMgr::`scalar deleting destructor'
_TEXT	ENDS
; Function compile flags: /Ogtp
; File C:\Program Files\Microsoft Visual Studio\2022\Professional\VC\Tools\MSVC\14.44.35207\include\vector
;	COMDAT ?_Xlength@?$vector@PAVCCouple@@V?$allocator@PAVCCouple@@@std@@@std@@CAXXZ
_TEXT	SEGMENT
?_Xlength@?$vector@PAVCCouple@@V?$allocator@PAVCCouple@@@std@@@std@@CAXXZ PROC ; std::vector<CCouple *,std::allocator<CCouple *> >::_Xlength, COMDAT

; 2184 :         _Xlength_error("vector too long");

  00000	68 00 00 00 00	 push	 OFFSET ??_C@_0BA@FOIKENOD@vector?5too?5long@
  00005	e8 00 00 00 00	 call	 ?_Xlength_error@std@@YAXPBD@Z ; std::_Xlength_error
$LN3@Xlength:
  0000a	cc		 int	 3
?_Xlength@?$vector@PAVCCouple@@V?$allocator@PAVCCouple@@@std@@@std@@CAXXZ ENDP ; std::vector<CCouple *,std::allocator<CCouple *> >::_Xlength
_TEXT	ENDS
; Function compile flags: /Ogtp
; File C:\Program Files\Microsoft Visual Studio\2022\Professional\VC\Tools\MSVC\14.44.35207\include\vector
; File C:\Program Files\Microsoft Visual Studio\2022\Professional\VC\Tools\MSVC\14.44.35207\include\xmemory
; File C:\Program Files\Microsoft Visual Studio\2022\Professional\VC\Tools\MSVC\14.44.35207\include\vector
; File C:\Program Files\Microsoft Visual Studio\2022\Professional\VC\Tools\MSVC\14.44.35207\include\xmemory
; File C:\Program Files\Microsoft Visual Studio\2022\Professional\VC\Tools\MSVC\14.44.35207\include\vector
; File C:\Program Files\Microsoft Visual Studio\2022\Professional\VC\Tools\MSVC\14.44.35207\include\xmemory
; File C:\Program Files\Microsoft Visual Studio\2022\Professional\VC\Tools\MSVC\14.44.35207\include\vector
;	COMDAT ??1?$vector@PAVCCouple@@V?$allocator@PAVCCouple@@@std@@@std@@QAE@XZ
_TEXT	SEGMENT
??1?$vector@PAVCCouple@@V?$allocator@PAVCCouple@@@std@@@std@@QAE@XZ PROC ; std::vector<CCouple *,std::allocator<CCouple *> >::~vector<CCouple *,std::allocator<CCouple *> >, COMDAT
; _this$ = ecx

; 829  :     _CONSTEXPR20 ~vector() noexcept {

  00000	56		 push	 esi
  00001	8b f1		 mov	 esi, ecx

; 2090 :         if (_Myfirst) { // destroy and deallocate old array

  00003	8b 06		 mov	 eax, DWORD PTR [esi]
  00005	85 c0		 test	 eax, eax
  00007	74 40		 je	 SHORT $LN5@vector

; 2091 :             _STD _Destroy_range(_Myfirst, _Mylast, _Al);
; 2092 :             _ASAN_VECTOR_REMOVE;
; 2093 :             _Al.deallocate(_Myfirst, static_cast<size_type>(_Myend - _Myfirst));

  00009	8b 4e 08	 mov	 ecx, DWORD PTR [esi+8]
  0000c	2b c8		 sub	 ecx, eax
; File C:\Program Files\Microsoft Visual Studio\2022\Professional\VC\Tools\MSVC\14.44.35207\include\xmemory

; 985  :         _STD _Deallocate<_New_alignof<_Ty>>(_Ptr, sizeof(_Ty) * _Count);

  0000e	83 e1 fc	 and	 ecx, -4			; fffffffcH

; 284  :         if (_Bytes >= _Big_allocation_threshold) {

  00011	81 f9 00 10 00
	00		 cmp	 ecx, 4096		; 00001000H
  00017	72 12		 jb	 SHORT $LN18@vector

; 205  :     const uintptr_t _Ptr_container   = _Ptr_user[-1];

  00019	8b 50 fc	 mov	 edx, DWORD PTR [eax-4]
  0001c	83 c1 23	 add	 ecx, 35			; 00000023H

; 206  : 
; 207  :     // If the following asserts, it likely means that we are performing
; 208  :     // an aligned delete on memory coming from an unaligned allocation.
; 209  :     _STL_ASSERT(_Ptr_user[-2] == _Big_allocation_sentinel, "invalid argument");
; 210  : 
; 211  :     // Extra paranoia on aligned allocation/deallocation; ensure _Ptr_container is
; 212  :     // in range [_Min_back_shift, _Non_user_size]
; 213  : #ifdef _DEBUG
; 214  :     constexpr uintptr_t _Min_back_shift = 2 * sizeof(void*);
; 215  : #else // ^^^ defined(_DEBUG) / !defined(_DEBUG) vvv
; 216  :     constexpr uintptr_t _Min_back_shift = sizeof(void*);
; 217  : #endif // ^^^ !defined(_DEBUG) ^^^
; 218  :     const uintptr_t _Back_shift = reinterpret_cast<uintptr_t>(_Ptr) - _Ptr_container;

  0001f	2b c2		 sub	 eax, edx

; 219  :     _STL_VERIFY(_Back_shift >= _Min_back_shift && _Back_shift <= _Non_user_size, "invalid argument");

  00021	83 c0 fc	 add	 eax, -4			; fffffffcH
  00024	83 f8 1f	 cmp	 eax, 31			; 0000001fH
  00027	77 22		 ja	 SHORT $LN17@vector

; 220  :     _Ptr = reinterpret_cast<void*>(_Ptr_container);

  00029	8b c2		 mov	 eax, edx
$LN18@vector:

; 289  :         ::operator delete(_Ptr, _Bytes);

  0002b	51		 push	 ecx
  0002c	50		 push	 eax
  0002d	e8 00 00 00 00	 call	 ??3@YAXPAXI@Z		; operator delete
; File C:\Program Files\Microsoft Visual Studio\2022\Professional\VC\Tools\MSVC\14.44.35207\include\vector

; 2095 :             _Myfirst = nullptr;

  00032	c7 06 00 00 00
	00		 mov	 DWORD PTR [esi], 0
; File C:\Program Files\Microsoft Visual Studio\2022\Professional\VC\Tools\MSVC\14.44.35207\include\xmemory

; 289  :         ::operator delete(_Ptr, _Bytes);

  00038	83 c4 08	 add	 esp, 8
; File C:\Program Files\Microsoft Visual Studio\2022\Professional\VC\Tools\MSVC\14.44.35207\include\vector

; 2096 :             _Mylast  = nullptr;

  0003b	c7 46 04 00 00
	00 00		 mov	 DWORD PTR [esi+4], 0

; 2097 :             _Myend   = nullptr;

  00042	c7 46 08 00 00
	00 00		 mov	 DWORD PTR [esi+8], 0
$LN5@vector:
  00049	5e		 pop	 esi

; 835  :     }

  0004a	c3		 ret	 0
$LN17@vector:
; File C:\Program Files\Microsoft Visual Studio\2022\Professional\VC\Tools\MSVC\14.44.35207\include\xmemory

; 219  :     _STL_VERIFY(_Back_shift >= _Min_back_shift && _Back_shift <= _Non_user_size, "invalid argument");

  0004b	6a 00		 push	 0
  0004d	6a 00		 push	 0
  0004f	6a 00		 push	 0
  00051	6a 00		 push	 0
  00053	6a 00		 push	 0
  00055	e8 00 00 00 00	 call	 __invoke_watson
$LN26@vector:
  0005a	cc		 int	 3
??1?$vector@PAVCCouple@@V?$allocator@PAVCCouple@@@std@@@std@@QAE@XZ ENDP ; std::vector<CCouple *,std::allocator<CCouple *> >::~vector<CCouple *,std::allocator<CCouple *> >
_TEXT	ENDS
; Function compile flags: /Ogtp
; File C:\Program Files\Microsoft Visual Studio\2022\Professional\VC\Tools\MSVC\14.44.35207\include\xtree
;	COMDAT ?_Insert_node@?$_Tree_val@U?$_Tree_simple_types@U?$pair@$$CBKPAVCCouple@@@std@@@std@@@std@@QAEPAU?$_Tree_node@U?$pair@$$CBKPAVCCouple@@@std@@PAX@2@U?$_Tree_id@PAU?$_Tree_node@U?$pair@$$CBKPAVCCouple@@@std@@PAX@std@@@2@QAU32@@Z
_TEXT	SEGMENT
__Head$1$ = -4						; size = 4
__Loc$ = 8						; size = 8
__Newnode$ = 16						; size = 4
?_Insert_node@?$_Tree_val@U?$_Tree_simple_types@U?$pair@$$CBKPAVCCouple@@@std@@@std@@@std@@QAEPAU?$_Tree_node@U?$pair@$$CBKPAVCCouple@@@std@@PAX@2@U?$_Tree_id@PAU?$_Tree_node@U?$pair@$$CBKPAVCCouple@@@std@@PAX@std@@@2@QAU32@@Z PROC ; std::_Tree_val<std::_Tree_simple_types<std::pair<unsigned long const ,CCouple *> > >::_Insert_node, COMDAT
; _this$ = ecx

; 669  :     _Nodeptr _Insert_node(const _Tree_id<_Nodeptr> _Loc, const _Nodeptr _Newnode) noexcept {

  00000	55		 push	 ebp
  00001	8b ec		 mov	 ebp, esp
  00003	51		 push	 ecx

; 670  :         ++_Mysize;
; 671  :         const auto _Head  = _Myhead;
; 672  :         _Newnode->_Parent = _Loc._Parent;

  00004	8b 55 08	 mov	 edx, DWORD PTR __Loc$[ebp]
  00007	53		 push	 ebx
  00008	8b d9		 mov	 ebx, ecx
  0000a	57		 push	 edi
  0000b	8b 7d 10	 mov	 edi, DWORD PTR __Newnode$[ebp]
  0000e	8b 03		 mov	 eax, DWORD PTR [ebx]
  00010	ff 43 04	 inc	 DWORD PTR [ebx+4]
  00013	89 45 fc	 mov	 DWORD PTR __Head$1$[ebp], eax
  00016	89 57 04	 mov	 DWORD PTR [edi+4], edx

; 673  :         if (_Loc._Parent == _Head) { // first node in tree, just set head values

  00019	3b d0		 cmp	 edx, eax
  0001b	75 16		 jne	 SHORT $LN5@Insert_nod

; 674  :             _Head->_Left     = _Newnode;

  0001d	89 38		 mov	 DWORD PTR [eax], edi

; 675  :             _Head->_Parent   = _Newnode;

  0001f	89 78 04	 mov	 DWORD PTR [eax+4], edi

; 676  :             _Head->_Right    = _Newnode;

  00022	89 78 08	 mov	 DWORD PTR [eax+8], edi

; 735  :         return _Newnode;
; 736  :     }

  00025	8b c7		 mov	 eax, edi
  00027	c6 47 0c 01	 mov	 BYTE PTR [edi+12], 1
  0002b	5f		 pop	 edi
  0002c	5b		 pop	 ebx
  0002d	8b e5		 mov	 esp, ebp
  0002f	5d		 pop	 ebp
  00030	c2 0c 00	 ret	 12			; 0000000cH
$LN5@Insert_nod:

; 677  :             _Newnode->_Color = _Black; // the root is black
; 678  :             return _Newnode;
; 679  :         }
; 680  : 
; 681  :         _STL_INTERNAL_CHECK(_Loc._Child != _Tree_child::_Unused);
; 682  :         if (_Loc._Child == _Tree_child::_Right) { // add to right of _Loc._Parent

  00033	83 7d 0c 00	 cmp	 DWORD PTR __Loc$[ebp+4], 0
  00037	75 0d		 jne	 SHORT $LN6@Insert_nod

; 683  :             _STL_INTERNAL_CHECK(_Loc._Parent->_Right->_Isnil);
; 684  :             _Loc._Parent->_Right = _Newnode;

  00039	89 7a 08	 mov	 DWORD PTR [edx+8], edi

; 685  :             if (_Loc._Parent == _Head->_Right) { // remember rightmost node

  0003c	3b 50 08	 cmp	 edx, DWORD PTR [eax+8]
  0003f	75 0d		 jne	 SHORT $LN9@Insert_nod

; 686  :                 _Head->_Right = _Newnode;

  00041	89 78 08	 mov	 DWORD PTR [eax+8], edi

; 687  :             }
; 688  :         } else { // add to left of _Loc._Parent

  00044	eb 08		 jmp	 SHORT $LN9@Insert_nod
$LN6@Insert_nod:

; 689  :             _STL_INTERNAL_CHECK(_Loc._Parent->_Left->_Isnil);
; 690  :             _Loc._Parent->_Left = _Newnode;

  00046	89 3a		 mov	 DWORD PTR [edx], edi

; 691  :             if (_Loc._Parent == _Head->_Left) { // remember leftmost node

  00048	3b 10		 cmp	 edx, DWORD PTR [eax]
  0004a	75 02		 jne	 SHORT $LN9@Insert_nod

; 692  :                 _Head->_Left = _Newnode;

  0004c	89 38		 mov	 DWORD PTR [eax], edi
$LN9@Insert_nod:

; 693  :             }
; 694  :         }
; 695  : 
; 696  :         for (_Nodeptr _Pnode = _Newnode; _Pnode->_Parent->_Color == _Red;) {

  0004e	8b 4f 04	 mov	 ecx, DWORD PTR [edi+4]
  00051	8b c7		 mov	 eax, edi
  00053	80 79 0c 00	 cmp	 BYTE PTR [ecx+12], 0
  00057	0f 85 7d 01 00
	00		 jne	 $LN3@Insert_nod
  0005d	56		 push	 esi
  0005e	66 90		 npad	 2
$LL4@Insert_nod:

; 697  :             if (_Pnode->_Parent == _Pnode->_Parent->_Parent->_Left) { // fixup red-red in left subtree

  00060	8b 50 04	 mov	 edx, DWORD PTR [eax+4]
  00063	8b 72 04	 mov	 esi, DWORD PTR [edx+4]
  00066	8b 0e		 mov	 ecx, DWORD PTR [esi]
  00068	3b d1		 cmp	 edx, ecx
  0006a	0f 85 aa 00 00
	00		 jne	 $LN10@Insert_nod

; 698  :                 const auto _Parent_sibling = _Pnode->_Parent->_Parent->_Right;

  00070	8b 4e 08	 mov	 ecx, DWORD PTR [esi+8]

; 699  :                 if (_Parent_sibling->_Color == _Red) { // parent's sibling has two red children, blacken both

  00073	80 79 0c 00	 cmp	 BYTE PTR [ecx+12], 0
  00077	0f 84 a3 00 00
	00		 je	 $LN82@Insert_nod

; 700  :                     _Pnode->_Parent->_Color          = _Black;
; 701  :                     _Parent_sibling->_Color          = _Black;
; 702  :                     _Pnode->_Parent->_Parent->_Color = _Red;
; 703  :                     _Pnode                           = _Pnode->_Parent->_Parent;
; 704  :                 } else { // parent's sibling has red and black children
; 705  :                     if (_Pnode == _Pnode->_Parent->_Right) { // rotate right child to left

  0007d	8b 72 08	 mov	 esi, DWORD PTR [edx+8]
  00080	3b c6		 cmp	 eax, esi
  00082	75 37		 jne	 SHORT $LN57@Insert_nod

; 485  :         _Wherenode->_Right = _Pnode->_Left;

  00084	8b 0e		 mov	 ecx, DWORD PTR [esi]

; 706  :                         _Pnode = _Pnode->_Parent;

  00086	8b c2		 mov	 eax, edx

; 485  :         _Wherenode->_Right = _Pnode->_Left;

  00088	89 4a 08	 mov	 DWORD PTR [edx+8], ecx

; 486  : 
; 487  :         if (!_Pnode->_Left->_Isnil) {

  0008b	8b 0e		 mov	 ecx, DWORD PTR [esi]
  0008d	80 79 0d 00	 cmp	 BYTE PTR [ecx+13], 0
  00091	75 03		 jne	 SHORT $LN21@Insert_nod

; 488  :             _Pnode->_Left->_Parent = _Wherenode;

  00093	89 41 04	 mov	 DWORD PTR [ecx+4], eax
$LN21@Insert_nod:

; 489  :         }
; 490  : 
; 491  :         _Pnode->_Parent = _Wherenode->_Parent;

  00096	8b 4a 04	 mov	 ecx, DWORD PTR [edx+4]
  00099	89 4e 04	 mov	 DWORD PTR [esi+4], ecx

; 492  : 
; 493  :         if (_Wherenode == _Myhead->_Parent) {

  0009c	8b 0b		 mov	 ecx, DWORD PTR [ebx]
  0009e	3b 41 04	 cmp	 eax, DWORD PTR [ecx+4]
  000a1	75 05		 jne	 SHORT $LN22@Insert_nod

; 494  :             _Myhead->_Parent = _Pnode;

  000a3	89 71 04	 mov	 DWORD PTR [ecx+4], esi
  000a6	eb 0e		 jmp	 SHORT $LN25@Insert_nod
$LN22@Insert_nod:

; 495  :         } else if (_Wherenode == _Wherenode->_Parent->_Left) {

  000a8	8b 4a 04	 mov	 ecx, DWORD PTR [edx+4]
  000ab	3b 01		 cmp	 eax, DWORD PTR [ecx]
  000ad	75 04		 jne	 SHORT $LN24@Insert_nod

; 496  :             _Wherenode->_Parent->_Left = _Pnode;

  000af	89 31		 mov	 DWORD PTR [ecx], esi

; 497  :         } else {

  000b1	eb 03		 jmp	 SHORT $LN25@Insert_nod
$LN24@Insert_nod:

; 498  :             _Wherenode->_Parent->_Right = _Pnode;

  000b3	89 71 08	 mov	 DWORD PTR [ecx+8], esi
$LN25@Insert_nod:

; 499  :         }
; 500  : 
; 501  :         _Pnode->_Left       = _Wherenode;

  000b6	89 06		 mov	 DWORD PTR [esi], eax

; 502  :         _Wherenode->_Parent = _Pnode;

  000b8	89 70 04	 mov	 DWORD PTR [eax+4], esi
$LN57@Insert_nod:

; 707  :                         _Lrotate(_Pnode);
; 708  :                     }
; 709  : 
; 710  :                     _Pnode->_Parent->_Color          = _Black; // propagate red up

  000bb	8b 48 04	 mov	 ecx, DWORD PTR [eax+4]
  000be	c6 41 0c 01	 mov	 BYTE PTR [ecx+12], 1

; 711  :                     _Pnode->_Parent->_Parent->_Color = _Red;

  000c2	8b 48 04	 mov	 ecx, DWORD PTR [eax+4]
  000c5	8b 49 04	 mov	 ecx, DWORD PTR [ecx+4]
  000c8	c6 41 0c 00	 mov	 BYTE PTR [ecx+12], 0

; 712  :                     _Rrotate(_Pnode->_Parent->_Parent);

  000cc	8b 48 04	 mov	 ecx, DWORD PTR [eax+4]
  000cf	8b 51 04	 mov	 edx, DWORD PTR [ecx+4]

; 506  :         _Nodeptr _Pnode   = _Wherenode->_Left;

  000d2	8b 32		 mov	 esi, DWORD PTR [edx]

; 507  :         _Wherenode->_Left = _Pnode->_Right;

  000d4	8b 4e 08	 mov	 ecx, DWORD PTR [esi+8]
  000d7	89 0a		 mov	 DWORD PTR [edx], ecx

; 508  : 
; 509  :         if (!_Pnode->_Right->_Isnil) {

  000d9	8b 4e 08	 mov	 ecx, DWORD PTR [esi+8]
  000dc	80 79 0d 00	 cmp	 BYTE PTR [ecx+13], 0
  000e0	75 03		 jne	 SHORT $LN29@Insert_nod

; 510  :             _Pnode->_Right->_Parent = _Wherenode;

  000e2	89 51 04	 mov	 DWORD PTR [ecx+4], edx
$LN29@Insert_nod:

; 511  :         }
; 512  : 
; 513  :         _Pnode->_Parent = _Wherenode->_Parent;

  000e5	8b 4a 04	 mov	 ecx, DWORD PTR [edx+4]
  000e8	89 4e 04	 mov	 DWORD PTR [esi+4], ecx

; 514  : 
; 515  :         if (_Wherenode == _Myhead->_Parent) {

  000eb	8b 0b		 mov	 ecx, DWORD PTR [ebx]
  000ed	3b 51 04	 cmp	 edx, DWORD PTR [ecx+4]
  000f0	75 0b		 jne	 SHORT $LN30@Insert_nod

; 516  :             _Myhead->_Parent = _Pnode;

  000f2	89 71 04	 mov	 DWORD PTR [ecx+4], esi

; 521  :         }
; 522  : 
; 523  :         _Pnode->_Right      = _Wherenode;

  000f5	89 56 08	 mov	 DWORD PTR [esi+8], edx

; 713  :                 }
; 714  :             } else { // fixup red-red in right subtree

  000f8	e9 cc 00 00 00	 jmp	 $LN81@Insert_nod
$LN30@Insert_nod:

; 517  :         } else if (_Wherenode == _Wherenode->_Parent->_Right) {

  000fd	8b 4a 04	 mov	 ecx, DWORD PTR [edx+4]
  00100	3b 51 08	 cmp	 edx, DWORD PTR [ecx+8]
  00103	75 0b		 jne	 SHORT $LN32@Insert_nod

; 518  :             _Wherenode->_Parent->_Right = _Pnode;

  00105	89 71 08	 mov	 DWORD PTR [ecx+8], esi

; 521  :         }
; 522  : 
; 523  :         _Pnode->_Right      = _Wherenode;

  00108	89 56 08	 mov	 DWORD PTR [esi+8], edx

; 713  :                 }
; 714  :             } else { // fixup red-red in right subtree

  0010b	e9 b9 00 00 00	 jmp	 $LN81@Insert_nod
$LN32@Insert_nod:

; 520  :             _Wherenode->_Parent->_Left = _Pnode;

  00110	89 31		 mov	 DWORD PTR [ecx], esi

; 521  :         }
; 522  : 
; 523  :         _Pnode->_Right      = _Wherenode;

  00112	89 56 08	 mov	 DWORD PTR [esi+8], edx

; 713  :                 }
; 714  :             } else { // fixup red-red in right subtree

  00115	e9 af 00 00 00	 jmp	 $LN81@Insert_nod
$LN10@Insert_nod:

; 715  :                 const auto _Parent_sibling = _Pnode->_Parent->_Parent->_Left;
; 716  :                 if (_Parent_sibling->_Color == _Red) { // parent's sibling has two red children, blacken both

  0011a	80 79 0c 00	 cmp	 BYTE PTR [ecx+12], 0
  0011e	75 1d		 jne	 SHORT $LN15@Insert_nod
$LN82@Insert_nod:

; 693  :             }
; 694  :         }
; 695  : 
; 696  :         for (_Nodeptr _Pnode = _Newnode; _Pnode->_Parent->_Color == _Red;) {

  00120	c6 42 0c 01	 mov	 BYTE PTR [edx+12], 1
  00124	c6 41 0c 01	 mov	 BYTE PTR [ecx+12], 1
  00128	8b 48 04	 mov	 ecx, DWORD PTR [eax+4]
  0012b	8b 49 04	 mov	 ecx, DWORD PTR [ecx+4]
  0012e	c6 41 0c 00	 mov	 BYTE PTR [ecx+12], 0
  00132	8b 48 04	 mov	 ecx, DWORD PTR [eax+4]
  00135	8b 41 04	 mov	 eax, DWORD PTR [ecx+4]
  00138	e9 8f 00 00 00	 jmp	 $LN2@Insert_nod
$LN15@Insert_nod:

; 717  :                     _Pnode->_Parent->_Color          = _Black;
; 718  :                     _Parent_sibling->_Color          = _Black;
; 719  :                     _Pnode->_Parent->_Parent->_Color = _Red;
; 720  :                     _Pnode                           = _Pnode->_Parent->_Parent;
; 721  :                 } else { // parent's sibling has red and black children
; 722  :                     if (_Pnode == _Pnode->_Parent->_Left) { // rotate left child to right

  0013d	8b 32		 mov	 esi, DWORD PTR [edx]
  0013f	3b c6		 cmp	 eax, esi
  00141	75 3a		 jne	 SHORT $LN42@Insert_nod

; 507  :         _Wherenode->_Left = _Pnode->_Right;

  00143	8b 4e 08	 mov	 ecx, DWORD PTR [esi+8]

; 723  :                         _Pnode = _Pnode->_Parent;

  00146	8b c2		 mov	 eax, edx

; 507  :         _Wherenode->_Left = _Pnode->_Right;

  00148	89 08		 mov	 DWORD PTR [eax], ecx

; 508  : 
; 509  :         if (!_Pnode->_Right->_Isnil) {

  0014a	8b 4e 08	 mov	 ecx, DWORD PTR [esi+8]
  0014d	80 79 0d 00	 cmp	 BYTE PTR [ecx+13], 0
  00151	75 03		 jne	 SHORT $LN37@Insert_nod

; 510  :             _Pnode->_Right->_Parent = _Wherenode;

  00153	89 41 04	 mov	 DWORD PTR [ecx+4], eax
$LN37@Insert_nod:

; 511  :         }
; 512  : 
; 513  :         _Pnode->_Parent = _Wherenode->_Parent;

  00156	8b 4a 04	 mov	 ecx, DWORD PTR [edx+4]
  00159	89 4e 04	 mov	 DWORD PTR [esi+4], ecx

; 514  : 
; 515  :         if (_Wherenode == _Myhead->_Parent) {

  0015c	8b 0b		 mov	 ecx, DWORD PTR [ebx]
  0015e	3b 41 04	 cmp	 eax, DWORD PTR [ecx+4]
  00161	75 05		 jne	 SHORT $LN38@Insert_nod

; 516  :             _Myhead->_Parent = _Pnode;

  00163	89 71 04	 mov	 DWORD PTR [ecx+4], esi
  00166	eb 0f		 jmp	 SHORT $LN41@Insert_nod
$LN38@Insert_nod:

; 517  :         } else if (_Wherenode == _Wherenode->_Parent->_Right) {

  00168	8b 4a 04	 mov	 ecx, DWORD PTR [edx+4]
  0016b	3b 41 08	 cmp	 eax, DWORD PTR [ecx+8]
  0016e	75 05		 jne	 SHORT $LN40@Insert_nod

; 518  :             _Wherenode->_Parent->_Right = _Pnode;

  00170	89 71 08	 mov	 DWORD PTR [ecx+8], esi

; 519  :         } else {

  00173	eb 02		 jmp	 SHORT $LN41@Insert_nod
$LN40@Insert_nod:

; 520  :             _Wherenode->_Parent->_Left = _Pnode;

  00175	89 31		 mov	 DWORD PTR [ecx], esi
$LN41@Insert_nod:

; 521  :         }
; 522  : 
; 523  :         _Pnode->_Right      = _Wherenode;

  00177	89 46 08	 mov	 DWORD PTR [esi+8], eax

; 524  :         _Wherenode->_Parent = _Pnode;

  0017a	89 70 04	 mov	 DWORD PTR [eax+4], esi
$LN42@Insert_nod:

; 724  :                         _Rrotate(_Pnode);
; 725  :                     }
; 726  : 
; 727  :                     _Pnode->_Parent->_Color          = _Black; // propagate red up

  0017d	8b 48 04	 mov	 ecx, DWORD PTR [eax+4]
  00180	c6 41 0c 01	 mov	 BYTE PTR [ecx+12], 1

; 728  :                     _Pnode->_Parent->_Parent->_Color = _Red;

  00184	8b 48 04	 mov	 ecx, DWORD PTR [eax+4]
  00187	8b 49 04	 mov	 ecx, DWORD PTR [ecx+4]
  0018a	c6 41 0c 00	 mov	 BYTE PTR [ecx+12], 0

; 729  :                     _Lrotate(_Pnode->_Parent->_Parent);

  0018e	8b 48 04	 mov	 ecx, DWORD PTR [eax+4]
  00191	8b 51 04	 mov	 edx, DWORD PTR [ecx+4]

; 484  :         _Nodeptr _Pnode    = _Wherenode->_Right;

  00194	8b 72 08	 mov	 esi, DWORD PTR [edx+8]

; 485  :         _Wherenode->_Right = _Pnode->_Left;

  00197	8b 0e		 mov	 ecx, DWORD PTR [esi]
  00199	89 4a 08	 mov	 DWORD PTR [edx+8], ecx

; 486  : 
; 487  :         if (!_Pnode->_Left->_Isnil) {

  0019c	8b 0e		 mov	 ecx, DWORD PTR [esi]
  0019e	80 79 0d 00	 cmp	 BYTE PTR [ecx+13], 0
  001a2	75 03		 jne	 SHORT $LN45@Insert_nod

; 488  :             _Pnode->_Left->_Parent = _Wherenode;

  001a4	89 51 04	 mov	 DWORD PTR [ecx+4], edx
$LN45@Insert_nod:

; 489  :         }
; 490  : 
; 491  :         _Pnode->_Parent = _Wherenode->_Parent;

  001a7	8b 4a 04	 mov	 ecx, DWORD PTR [edx+4]
  001aa	89 4e 04	 mov	 DWORD PTR [esi+4], ecx

; 492  : 
; 493  :         if (_Wherenode == _Myhead->_Parent) {

  001ad	8b 0b		 mov	 ecx, DWORD PTR [ebx]
  001af	3b 51 04	 cmp	 edx, DWORD PTR [ecx+4]
  001b2	75 05		 jne	 SHORT $LN46@Insert_nod

; 494  :             _Myhead->_Parent = _Pnode;

  001b4	89 71 04	 mov	 DWORD PTR [ecx+4], esi
  001b7	eb 0e		 jmp	 SHORT $LN49@Insert_nod
$LN46@Insert_nod:

; 495  :         } else if (_Wherenode == _Wherenode->_Parent->_Left) {

  001b9	8b 4a 04	 mov	 ecx, DWORD PTR [edx+4]
  001bc	3b 11		 cmp	 edx, DWORD PTR [ecx]
  001be	75 04		 jne	 SHORT $LN48@Insert_nod

; 496  :             _Wherenode->_Parent->_Left = _Pnode;

  001c0	89 31		 mov	 DWORD PTR [ecx], esi

; 497  :         } else {

  001c2	eb 03		 jmp	 SHORT $LN49@Insert_nod
$LN48@Insert_nod:

; 498  :             _Wherenode->_Parent->_Right = _Pnode;

  001c4	89 71 08	 mov	 DWORD PTR [ecx+8], esi
$LN49@Insert_nod:

; 499  :         }
; 500  : 
; 501  :         _Pnode->_Left       = _Wherenode;

  001c7	89 16		 mov	 DWORD PTR [esi], edx
$LN81@Insert_nod:

; 693  :             }
; 694  :         }
; 695  : 
; 696  :         for (_Nodeptr _Pnode = _Newnode; _Pnode->_Parent->_Color == _Red;) {

  001c9	89 72 04	 mov	 DWORD PTR [edx+4], esi
$LN2@Insert_nod:
  001cc	8b 48 04	 mov	 ecx, DWORD PTR [eax+4]
  001cf	80 79 0c 00	 cmp	 BYTE PTR [ecx+12], 0
  001d3	0f 84 87 fe ff
	ff		 je	 $LL4@Insert_nod
  001d9	5e		 pop	 esi
$LN3@Insert_nod:

; 730  :                 }
; 731  :             }
; 732  :         }
; 733  : 
; 734  :         _Head->_Parent->_Color = _Black; // root is always black

  001da	8b 45 fc	 mov	 eax, DWORD PTR __Head$1$[ebp]
  001dd	8b 40 04	 mov	 eax, DWORD PTR [eax+4]
  001e0	c6 40 0c 01	 mov	 BYTE PTR [eax+12], 1

; 735  :         return _Newnode;
; 736  :     }

  001e4	8b c7		 mov	 eax, edi
  001e6	5f		 pop	 edi
  001e7	5b		 pop	 ebx
  001e8	8b e5		 mov	 esp, ebp
  001ea	5d		 pop	 ebp
  001eb	c2 0c 00	 ret	 12			; 0000000cH
?_Insert_node@?$_Tree_val@U?$_Tree_simple_types@U?$pair@$$CBKPAVCCouple@@@std@@@std@@@std@@QAEPAU?$_Tree_node@U?$pair@$$CBKPAVCCouple@@@std@@PAX@2@U?$_Tree_id@PAU?$_Tree_node@U?$pair@$$CBKPAVCCouple@@@std@@PAX@std@@@2@QAU32@@Z ENDP ; std::_Tree_val<std::_Tree_simple_types<std::pair<unsigned long const ,CCouple *> > >::_Insert_node
_TEXT	ENDS
; Function compile flags: /Ogtp
; File C:\Program Files\Microsoft Visual Studio\2022\Professional\VC\Tools\MSVC\14.44.35207\include\xtree
; File C:\Program Files\Microsoft Visual Studio\2022\Professional\VC\Tools\MSVC\14.44.35207\include\utility
; File C:\Program Files\Microsoft Visual Studio\2022\Professional\VC\Tools\MSVC\14.44.35207\include\xtree
;	COMDAT ?_Extract@?$_Tree_val@U?$_Tree_simple_types@U?$pair@$$CBKPAVCCouple@@@std@@@std@@@std@@QAEPAU?$_Tree_node@U?$pair@$$CBKPAVCCouple@@@std@@PAX@2@V?$_Tree_unchecked_const_iterator@V?$_Tree_val@U?$_Tree_simple_types@U?$pair@$$CBKPAVCCouple@@@std@@@std@@@std@@U_Iterator_base0@2@@2@@Z
_TEXT	SEGMENT
tv1039 = -16						; size = 4
tv1073 = -12						; size = 4
tv1093 = -12						; size = 4
$T1 = -12						; size = 4
__Erasednode$1$ = -8					; size = 4
_this$1$ = -4						; size = 4
__Where$ = 8						; size = 4
?_Extract@?$_Tree_val@U?$_Tree_simple_types@U?$pair@$$CBKPAVCCouple@@@std@@@std@@@std@@QAEPAU?$_Tree_node@U?$pair@$$CBKPAVCCouple@@@std@@PAX@2@V?$_Tree_unchecked_const_iterator@V?$_Tree_val@U?$_Tree_simple_types@U?$pair@$$CBKPAVCCouple@@@std@@@std@@@std@@U_Iterator_base0@2@@2@@Z PROC ; std::_Tree_val<std::_Tree_simple_types<std::pair<unsigned long const ,CCouple *> > >::_Extract, COMDAT
; _this$ = ecx

; 527  :     _Nodeptr _Extract(_Unchecked_const_iterator _Where) noexcept {

  00000	55		 push	 ebp
  00001	8b ec		 mov	 ebp, esp
  00003	83 ec 10	 sub	 esp, 16			; 00000010H

; 528  :         _Nodeptr _Erasednode = _Where._Ptr; // node to erase

  00006	8b 45 08	 mov	 eax, DWORD PTR __Where$[ebp]
  00009	53		 push	 ebx
  0000a	56		 push	 esi
  0000b	8b d9		 mov	 ebx, ecx
  0000d	89 45 f8	 mov	 DWORD PTR __Erasednode$1$[ebp], eax
  00010	57		 push	 edi

; 529  :         ++_Where; // save successor iterator for return

  00011	8d 4d 08	 lea	 ecx, DWORD PTR __Where$[ebp]
  00014	89 5d fc	 mov	 DWORD PTR _this$1$[ebp], ebx
  00017	e8 00 00 00 00	 call	 ??E?$_Tree_unchecked_const_iterator@V?$_Tree_val@U?$_Tree_simple_types@U?$pair@$$CBKPAVCCouple@@@std@@@std@@@std@@U_Iterator_base0@2@@std@@QAEAAV01@XZ ; std::_Tree_unchecked_const_iterator<std::_Tree_val<std::_Tree_simple_types<std::pair<unsigned long const ,CCouple *> > >,std::_Iterator_base0>::operator++

; 530  : 
; 531  :         _Nodeptr _Fixnode; // the node to recolor as needed
; 532  :         _Nodeptr _Fixnodeparent; // parent of _Fixnode (which may be nil)
; 533  :         _Nodeptr _Pnode = _Erasednode;
; 534  : 
; 535  :         if (_Pnode->_Left->_Isnil) {

  0001c	8b 4d f8	 mov	 ecx, DWORD PTR __Erasednode$1$[ebp]
  0001f	8b 01		 mov	 eax, DWORD PTR [ecx]
  00021	8b 79 08	 mov	 edi, DWORD PTR [ecx+8]
  00024	80 78 0d 00	 cmp	 BYTE PTR [eax+13], 0
  00028	75 18		 jne	 SHORT $LN94@Extract

; 536  :             _Fixnode = _Pnode->_Right; // stitch up right subtree
; 537  :         } else if (_Pnode->_Right->_Isnil) {

  0002a	80 7f 0d 00	 cmp	 BYTE PTR [edi+13], 0
  0002e	74 04		 je	 SHORT $LN7@Extract

; 538  :             _Fixnode = _Pnode->_Left; // stitch up left subtree

  00030	8b f8		 mov	 edi, eax

; 539  :         } else { // two subtrees, must lift successor node to replace erased

  00032	eb 0e		 jmp	 SHORT $LN94@Extract
$LN7@Extract:

; 540  :             _Pnode   = _Where._Ptr; // _Pnode is successor node

  00034	8b 55 08	 mov	 edx, DWORD PTR __Where$[ebp]

; 541  :             _Fixnode = _Pnode->_Right; // _Fixnode is only subtree

  00037	8b 7a 08	 mov	 edi, DWORD PTR [edx+8]
  0003a	3b d1		 cmp	 edx, ecx

; 542  :         }
; 543  : 
; 544  :         if (_Pnode == _Erasednode) { // at most one subtree, relink it

  0003c	0f 85 91 00 00
	00		 jne	 $LN9@Extract
$LN94@Extract:

; 545  :             _Fixnodeparent = _Erasednode->_Parent;
; 546  :             if (!_Fixnode->_Isnil) {

  00042	80 7f 0d 00	 cmp	 BYTE PTR [edi+13], 0
  00046	8b 71 04	 mov	 esi, DWORD PTR [ecx+4]
  00049	75 03		 jne	 SHORT $LN11@Extract

; 547  :                 _Fixnode->_Parent = _Fixnodeparent; // link up

  0004b	89 77 04	 mov	 DWORD PTR [edi+4], esi
$LN11@Extract:

; 548  :             }
; 549  : 
; 550  :             if (_Myhead->_Parent == _Erasednode) {

  0004e	8b 03		 mov	 eax, DWORD PTR [ebx]
  00050	39 48 04	 cmp	 DWORD PTR [eax+4], ecx
  00053	75 05		 jne	 SHORT $LN12@Extract

; 551  :                 _Myhead->_Parent = _Fixnode; // link down from root

  00055	89 78 04	 mov	 DWORD PTR [eax+4], edi
  00058	eb 0b		 jmp	 SHORT $LN15@Extract
$LN12@Extract:

; 552  :             } else if (_Fixnodeparent->_Left == _Erasednode) {

  0005a	39 0e		 cmp	 DWORD PTR [esi], ecx
  0005c	75 04		 jne	 SHORT $LN14@Extract

; 553  :                 _Fixnodeparent->_Left = _Fixnode; // link down to left

  0005e	89 3e		 mov	 DWORD PTR [esi], edi

; 554  :             } else {

  00060	eb 03		 jmp	 SHORT $LN15@Extract
$LN14@Extract:

; 555  :                 _Fixnodeparent->_Right = _Fixnode; // link down to right

  00062	89 7e 08	 mov	 DWORD PTR [esi+8], edi
$LN15@Extract:

; 556  :             }
; 557  : 
; 558  :             if (_Myhead->_Left == _Erasednode) {

  00065	8b 03		 mov	 eax, DWORD PTR [ebx]
  00067	39 08		 cmp	 DWORD PTR [eax], ecx
  00069	75 28		 jne	 SHORT $LN16@Extract

; 559  :                 _Myhead->_Left = _Fixnode->_Isnil ? _Fixnodeparent // smallest is parent of erased node

  0006b	80 7f 0d 00	 cmp	 BYTE PTR [edi+13], 0
  0006f	74 04		 je	 SHORT $LN42@Extract
  00071	8b d6		 mov	 edx, esi
  00073	eb 1c		 jmp	 SHORT $LN43@Extract
$LN42@Extract:

; 476  :         while (!_Pnode->_Left->_Isnil) {

  00075	8b 0f		 mov	 ecx, DWORD PTR [edi]

; 559  :                 _Myhead->_Left = _Fixnode->_Isnil ? _Fixnodeparent // smallest is parent of erased node

  00077	8b d7		 mov	 edx, edi

; 476  :         while (!_Pnode->_Left->_Isnil) {

  00079	80 79 0d 00	 cmp	 BYTE PTR [ecx+13], 0
  0007d	75 0f		 jne	 SHORT $LN49@Extract
  0007f	90		 npad	 1
$LL48@Extract:
  00080	8b 01		 mov	 eax, DWORD PTR [ecx]

; 477  :             _Pnode = _Pnode->_Left;

  00082	8b d1		 mov	 edx, ecx
  00084	8b c8		 mov	 ecx, eax
  00086	80 78 0d 00	 cmp	 BYTE PTR [eax+13], 0
  0008a	74 f4		 je	 SHORT $LL48@Extract
  0008c	8b 03		 mov	 eax, DWORD PTR [ebx]
$LN49@Extract:
  0008e	8b 4d f8	 mov	 ecx, DWORD PTR __Erasednode$1$[ebp]
$LN43@Extract:

; 559  :                 _Myhead->_Left = _Fixnode->_Isnil ? _Fixnodeparent // smallest is parent of erased node

  00091	89 10		 mov	 DWORD PTR [eax], edx
$LN16@Extract:

; 560  :                                                   : _Min(_Fixnode); // smallest in relinked subtree
; 561  :             }
; 562  : 
; 563  :             if (_Myhead->_Right == _Erasednode) {

  00093	8b 13		 mov	 edx, DWORD PTR [ebx]
  00095	39 4a 08	 cmp	 DWORD PTR [edx+8], ecx
  00098	75 34		 jne	 SHORT $LN17@Extract

; 564  :                 _Myhead->_Right = _Fixnode->_Isnil ? _Fixnodeparent // largest is parent of erased node

  0009a	80 7f 0d 00	 cmp	 BYTE PTR [edi+13], 0
  0009e	74 0d		 je	 SHORT $LN44@Extract

; 565  :                                                    : _Max(_Fixnode); // largest in relinked subtree
; 566  :             }
; 567  :         } else { // erased has two subtrees, _Pnode is successor to erased

  000a0	8b 45 f8	 mov	 eax, DWORD PTR __Erasednode$1$[ebp]
  000a3	8b ce		 mov	 ecx, esi
  000a5	89 4a 08	 mov	 DWORD PTR [edx+8], ecx
  000a8	e9 94 00 00 00	 jmp	 $LN58@Extract
$LN44@Extract:

; 468  :         while (!_Pnode->_Right->_Isnil) {

  000ad	8b 47 08	 mov	 eax, DWORD PTR [edi+8]

; 564  :                 _Myhead->_Right = _Fixnode->_Isnil ? _Fixnodeparent // largest is parent of erased node

  000b0	8b cf		 mov	 ecx, edi

; 468  :         while (!_Pnode->_Right->_Isnil) {

  000b2	80 78 0d 00	 cmp	 BYTE PTR [eax+13], 0
  000b6	75 13		 jne	 SHORT $LN54@Extract
  000b8	0f 1f 84 00 00
	00 00 00	 npad	 8
$LL53@Extract:

; 469  :             _Pnode = _Pnode->_Right;

  000c0	8b c8		 mov	 ecx, eax
  000c2	8b 41 08	 mov	 eax, DWORD PTR [ecx+8]
  000c5	80 78 0d 00	 cmp	 BYTE PTR [eax+13], 0
  000c9	74 f5		 je	 SHORT $LL53@Extract
$LN54@Extract:

; 564  :                 _Myhead->_Right = _Fixnode->_Isnil ? _Fixnodeparent // largest is parent of erased node

  000cb	89 4a 08	 mov	 DWORD PTR [edx+8], ecx
$LN17@Extract:

; 565  :                                                    : _Max(_Fixnode); // largest in relinked subtree
; 566  :             }
; 567  :         } else { // erased has two subtrees, _Pnode is successor to erased

  000ce	8b 45 f8	 mov	 eax, DWORD PTR __Erasednode$1$[ebp]
  000d1	eb 6e		 jmp	 SHORT $LN58@Extract
$LN9@Extract:

; 568  :             _Erasednode->_Left->_Parent = _Pnode; // link left up

  000d3	89 50 04	 mov	 DWORD PTR [eax+4], edx

; 569  :             _Pnode->_Left               = _Erasednode->_Left; // link successor down

  000d6	8b 01		 mov	 eax, DWORD PTR [ecx]
  000d8	89 02		 mov	 DWORD PTR [edx], eax

; 570  : 
; 571  :             if (_Pnode == _Erasednode->_Right) {

  000da	8d 42 04	 lea	 eax, DWORD PTR [edx+4]
  000dd	89 45 f4	 mov	 DWORD PTR $T1[ebp], eax
  000e0	3b 51 08	 cmp	 edx, DWORD PTR [ecx+8]
  000e3	75 04		 jne	 SHORT $LN18@Extract

; 572  :                 _Fixnodeparent = _Pnode; // successor is next to erased

  000e5	8b f2		 mov	 esi, edx

; 573  :             } else { // successor further down, link in place of erased

  000e7	eb 1f		 jmp	 SHORT $LN19@Extract
$LN18@Extract:

; 574  :                 _Fixnodeparent = _Pnode->_Parent; // parent is successor's
; 575  :                 if (!_Fixnode->_Isnil) {

  000e9	80 7f 0d 00	 cmp	 BYTE PTR [edi+13], 0
  000ed	8b 30		 mov	 esi, DWORD PTR [eax]
  000ef	75 03		 jne	 SHORT $LN20@Extract

; 576  :                     _Fixnode->_Parent = _Fixnodeparent; // link fix up

  000f1	89 77 04	 mov	 DWORD PTR [edi+4], esi
$LN20@Extract:

; 577  :                 }
; 578  : 
; 579  :                 _Fixnodeparent->_Left        = _Fixnode; // link fix down

  000f4	89 3e		 mov	 DWORD PTR [esi], edi

; 580  :                 _Pnode->_Right               = _Erasednode->_Right; // link next down

  000f6	8b 41 08	 mov	 eax, DWORD PTR [ecx+8]
  000f9	89 42 08	 mov	 DWORD PTR [edx+8], eax

; 581  :                 _Erasednode->_Right->_Parent = _Pnode; // right up

  000fc	8b 41 08	 mov	 eax, DWORD PTR [ecx+8]
  000ff	89 50 04	 mov	 DWORD PTR [eax+4], edx
  00102	8d 42 04	 lea	 eax, DWORD PTR [edx+4]
  00105	89 45 f4	 mov	 DWORD PTR $T1[ebp], eax
$LN19@Extract:

; 582  :             }
; 583  : 
; 584  :             if (_Myhead->_Parent == _Erasednode) {

  00108	8b 03		 mov	 eax, DWORD PTR [ebx]
  0010a	39 48 04	 cmp	 DWORD PTR [eax+4], ecx
  0010d	75 05		 jne	 SHORT $LN21@Extract

; 585  :                 _Myhead->_Parent = _Pnode; // link down from root

  0010f	89 50 04	 mov	 DWORD PTR [eax+4], edx
  00112	eb 0e		 jmp	 SHORT $LN141@Extract
$LN21@Extract:

; 586  :             } else if (_Erasednode->_Parent->_Left == _Erasednode) {

  00114	8b 41 04	 mov	 eax, DWORD PTR [ecx+4]
  00117	39 08		 cmp	 DWORD PTR [eax], ecx
  00119	75 04		 jne	 SHORT $LN23@Extract

; 587  :                 _Erasednode->_Parent->_Left = _Pnode; // link down to left

  0011b	89 10		 mov	 DWORD PTR [eax], edx

; 588  :             } else {

  0011d	eb 03		 jmp	 SHORT $LN141@Extract
$LN23@Extract:

; 589  :                 _Erasednode->_Parent->_Right = _Pnode; // link down to right

  0011f	89 50 08	 mov	 DWORD PTR [eax+8], edx
$LN141@Extract:

; 590  :             }
; 591  : 
; 592  :             _Pnode->_Parent = _Erasednode->_Parent; // link successor up

  00122	b8 04 00 00 00	 mov	 eax, 4
  00127	8b 04 08	 mov	 eax, DWORD PTR [eax+ecx]
  0012a	8b 4d f4	 mov	 ecx, DWORD PTR $T1[ebp]
  0012d	89 01		 mov	 DWORD PTR [ecx], eax
; File C:\Program Files\Microsoft Visual Studio\2022\Professional\VC\Tools\MSVC\14.44.35207\include\utility

; 140  :     _Left    = _STD move(_Right);

  0012f	8b 45 f8	 mov	 eax, DWORD PTR __Erasednode$1$[ebp]
  00132	8a 4a 0c	 mov	 cl, BYTE PTR [edx+12]
  00135	8a 40 0c	 mov	 al, BYTE PTR [eax+12]
  00138	88 42 0c	 mov	 BYTE PTR [edx+12], al

; 141  :     _Right   = _STD move(_Tmp);

  0013b	8b 45 f8	 mov	 eax, DWORD PTR __Erasednode$1$[ebp]
  0013e	88 48 0c	 mov	 BYTE PTR [eax+12], cl
$LN58@Extract:
; File C:\Program Files\Microsoft Visual Studio\2022\Professional\VC\Tools\MSVC\14.44.35207\include\xtree

; 596  :         if (_Erasednode->_Color == _Black) { // erasing black link, must recolor/rebalance tree

  00141	80 78 0c 01	 cmp	 BYTE PTR [eax+12], 1
  00145	0f 85 ba 01 00
	00		 jne	 $LN25@Extract

; 597  :             for (; _Fixnode != _Myhead->_Parent && _Fixnode->_Color == _Black; _Fixnodeparent = _Fixnode->_Parent) {

  0014b	8b 03		 mov	 eax, DWORD PTR [ebx]
  0014d	3b 78 04	 cmp	 edi, DWORD PTR [eax+4]
  00150	0f 84 a8 01 00
	00		 je	 $LN3@Extract
  00156	80 7f 0c 01	 cmp	 BYTE PTR [edi+12], 1
  0015a	89 75 f4	 mov	 DWORD PTR tv1093[ebp], esi
  0015d	0f 85 9b 01 00
	00		 jne	 $LN3@Extract
$LL4@Extract:

; 598  :                 if (_Fixnode == _Fixnodeparent->_Left) { // fixup left subtree

  00163	8b 0e		 mov	 ecx, DWORD PTR [esi]
  00165	3b f9		 cmp	 edi, ecx
  00167	0f 85 be 00 00
	00		 jne	 $LN26@Extract

; 599  :                     _Pnode = _Fixnodeparent->_Right;

  0016d	8b 4e 08	 mov	 ecx, DWORD PTR [esi+8]

; 600  :                     if (_Pnode->_Color == _Red) { // rotate red up from right subtree

  00170	80 79 0c 00	 cmp	 BYTE PTR [ecx+12], 0
  00174	75 54		 jne	 SHORT $LN95@Extract

; 601  :                         _Pnode->_Color         = _Black;

  00176	c6 41 0c 01	 mov	 BYTE PTR [ecx+12], 1

; 484  :         _Nodeptr _Pnode    = _Wherenode->_Right;

  0017a	8b 4e 08	 mov	 ecx, DWORD PTR [esi+8]

; 602  :                         _Fixnodeparent->_Color = _Red;

  0017d	c6 46 0c 00	 mov	 BYTE PTR [esi+12], 0

; 485  :         _Wherenode->_Right = _Pnode->_Left;

  00181	8b 01		 mov	 eax, DWORD PTR [ecx]
  00183	89 46 08	 mov	 DWORD PTR [esi+8], eax

; 486  : 
; 487  :         if (!_Pnode->_Left->_Isnil) {

  00186	8b 01		 mov	 eax, DWORD PTR [ecx]
  00188	80 78 0d 00	 cmp	 BYTE PTR [eax+13], 0
  0018c	75 03		 jne	 SHORT $LN61@Extract

; 488  :             _Pnode->_Left->_Parent = _Wherenode;

  0018e	89 70 04	 mov	 DWORD PTR [eax+4], esi
$LN61@Extract:

; 489  :         }
; 490  : 
; 491  :         _Pnode->_Parent = _Wherenode->_Parent;

  00191	8b 46 04	 mov	 eax, DWORD PTR [esi+4]
  00194	8d 56 04	 lea	 edx, DWORD PTR [esi+4]
  00197	89 41 04	 mov	 DWORD PTR [ecx+4], eax

; 492  : 
; 493  :         if (_Wherenode == _Myhead->_Parent) {

  0019a	8b 03		 mov	 eax, DWORD PTR [ebx]
  0019c	3b 70 04	 cmp	 esi, DWORD PTR [eax+4]
  0019f	75 0c		 jne	 SHORT $LN62@Extract

; 494  :             _Myhead->_Parent = _Pnode;

  001a1	89 48 04	 mov	 DWORD PTR [eax+4], ecx

; 499  :         }
; 500  : 
; 501  :         _Pnode->_Left       = _Wherenode;

  001a4	89 31		 mov	 DWORD PTR [ecx], esi

; 502  :         _Wherenode->_Parent = _Pnode;

  001a6	89 0a		 mov	 DWORD PTR [edx], ecx

; 603  :                         _Lrotate(_Fixnodeparent);
; 604  :                         _Pnode = _Fixnodeparent->_Right;

  001a8	8b 4e 08	 mov	 ecx, DWORD PTR [esi+8]
  001ab	eb 20		 jmp	 SHORT $LN87@Extract
$LN62@Extract:

; 495  :         } else if (_Wherenode == _Wherenode->_Parent->_Left) {

  001ad	8b 02		 mov	 eax, DWORD PTR [edx]
  001af	3b 30		 cmp	 esi, DWORD PTR [eax]
  001b1	75 0b		 jne	 SHORT $LN64@Extract

; 496  :             _Wherenode->_Parent->_Left = _Pnode;

  001b3	89 08		 mov	 DWORD PTR [eax], ecx

; 499  :         }
; 500  : 
; 501  :         _Pnode->_Left       = _Wherenode;

  001b5	89 31		 mov	 DWORD PTR [ecx], esi

; 502  :         _Wherenode->_Parent = _Pnode;

  001b7	89 0a		 mov	 DWORD PTR [edx], ecx

; 603  :                         _Lrotate(_Fixnodeparent);
; 604  :                         _Pnode = _Fixnodeparent->_Right;

  001b9	8b 4e 08	 mov	 ecx, DWORD PTR [esi+8]
  001bc	eb 0f		 jmp	 SHORT $LN87@Extract
$LN64@Extract:

; 498  :             _Wherenode->_Parent->_Right = _Pnode;

  001be	89 48 08	 mov	 DWORD PTR [eax+8], ecx

; 499  :         }
; 500  : 
; 501  :         _Pnode->_Left       = _Wherenode;

  001c1	89 31		 mov	 DWORD PTR [ecx], esi

; 502  :         _Wherenode->_Parent = _Pnode;

  001c3	89 0a		 mov	 DWORD PTR [edx], ecx

; 603  :                         _Lrotate(_Fixnodeparent);
; 604  :                         _Pnode = _Fixnodeparent->_Right;

  001c5	8b 4e 08	 mov	 ecx, DWORD PTR [esi+8]
  001c8	eb 03		 jmp	 SHORT $LN87@Extract
$LN95@Extract:
  001ca	8d 56 04	 lea	 edx, DWORD PTR [esi+4]
$LN87@Extract:

; 605  :                     }
; 606  : 
; 607  :                     if (_Pnode->_Isnil) {

  001cd	80 79 0d 00	 cmp	 BYTE PTR [ecx+13], 0
  001d1	0f 85 d0 00 00
	00		 jne	 $LN2@Extract

; 608  :                         _Fixnode = _Fixnodeparent; // shouldn't happen
; 609  :                     } else if (_Pnode->_Left->_Color == _Black
; 610  :                                && _Pnode->_Right->_Color == _Black) { // redden right subtree with black children

  001d7	8b 01		 mov	 eax, DWORD PTR [ecx]
  001d9	80 78 0c 01	 cmp	 BYTE PTR [eax+12], 1
  001dd	75 0d		 jne	 SHORT $LN97@Extract
  001df	8b 41 08	 mov	 eax, DWORD PTR [ecx+8]
  001e2	80 78 0c 01	 cmp	 BYTE PTR [eax+12], 1
  001e6	0f 84 b4 00 00
	00		 je	 $LN142@Extract
$LN97@Extract:

; 611  :                         _Pnode->_Color = _Red;
; 612  :                         _Fixnode       = _Fixnodeparent;
; 613  :                     } else { // must rearrange right subtree
; 614  :                         if (_Pnode->_Right->_Color == _Black) { // rotate red up from left sub-subtree

  001ec	8b 41 08	 mov	 eax, DWORD PTR [ecx+8]
  001ef	8b 5d fc	 mov	 ebx, DWORD PTR _this$1$[ebp]
  001f2	80 78 0c 01	 cmp	 BYTE PTR [eax+12], 1
  001f6	75 15		 jne	 SHORT $LN33@Extract

; 615  :                             _Pnode->_Left->_Color = _Black;

  001f8	8b 01		 mov	 eax, DWORD PTR [ecx]

; 616  :                             _Pnode->_Color        = _Red;
; 617  :                             _Rrotate(_Pnode);

  001fa	51		 push	 ecx
  001fb	c6 40 0c 01	 mov	 BYTE PTR [eax+12], 1
  001ff	c6 41 0c 00	 mov	 BYTE PTR [ecx+12], 0
  00203	8b cb		 mov	 ecx, ebx
  00205	e8 00 00 00 00	 call	 ?_Rrotate@?$_Tree_val@U?$_Tree_simple_types@U?$pair@$$CBKPAVCCouple@@@std@@@std@@@std@@QAEXPAU?$_Tree_node@U?$pair@$$CBKPAVCCouple@@@std@@PAX@2@@Z ; std::_Tree_val<std::_Tree_simple_types<std::pair<unsigned long const ,CCouple *> > >::_Rrotate

; 618  :                             _Pnode = _Fixnodeparent->_Right;

  0020a	8b 4e 08	 mov	 ecx, DWORD PTR [esi+8]
$LN33@Extract:

; 619  :                         }
; 620  : 
; 621  :                         _Pnode->_Color         = _Fixnodeparent->_Color;

  0020d	8a 46 0c	 mov	 al, BYTE PTR [esi+12]
  00210	88 41 0c	 mov	 BYTE PTR [ecx+12], al

; 622  :                         _Fixnodeparent->_Color = _Black;

  00213	c6 46 0c 01	 mov	 BYTE PTR [esi+12], 1

; 623  :                         _Pnode->_Right->_Color = _Black;

  00217	8b 41 08	 mov	 eax, DWORD PTR [ecx+8]

; 624  :                         _Lrotate(_Fixnodeparent);

  0021a	8b cb		 mov	 ecx, ebx
  0021c	56		 push	 esi
  0021d	c6 40 0c 01	 mov	 BYTE PTR [eax+12], 1
  00221	e8 00 00 00 00	 call	 ?_Lrotate@?$_Tree_val@U?$_Tree_simple_types@U?$pair@$$CBKPAVCCouple@@@std@@@std@@@std@@QAEXPAU?$_Tree_node@U?$pair@$$CBKPAVCCouple@@@std@@PAX@2@@Z ; std::_Tree_val<std::_Tree_simple_types<std::pair<unsigned long const ,CCouple *> > >::_Lrotate

; 625  :                         break; // tree now recolored/rebalanced

  00226	e9 d3 00 00 00	 jmp	 $LN3@Extract
$LN26@Extract:

; 626  :                     }
; 627  :                 } else { // fixup right subtree
; 628  :                     _Pnode = _Fixnodeparent->_Left;
; 629  :                     if (_Pnode->_Color == _Red) { // rotate red up from left subtree

  0022b	80 79 0c 00	 cmp	 BYTE PTR [ecx+12], 0
  0022f	75 55		 jne	 SHORT $LN96@Extract

; 630  :                         _Pnode->_Color         = _Black;

  00231	c6 41 0c 01	 mov	 BYTE PTR [ecx+12], 1

; 506  :         _Nodeptr _Pnode   = _Wherenode->_Left;

  00235	8b 0e		 mov	 ecx, DWORD PTR [esi]

; 631  :                         _Fixnodeparent->_Color = _Red;

  00237	c6 46 0c 00	 mov	 BYTE PTR [esi+12], 0

; 507  :         _Wherenode->_Left = _Pnode->_Right;

  0023b	8b 41 08	 mov	 eax, DWORD PTR [ecx+8]
  0023e	89 06		 mov	 DWORD PTR [esi], eax

; 508  : 
; 509  :         if (!_Pnode->_Right->_Isnil) {

  00240	8b 41 08	 mov	 eax, DWORD PTR [ecx+8]
  00243	80 78 0d 00	 cmp	 BYTE PTR [eax+13], 0
  00247	75 03		 jne	 SHORT $LN69@Extract

; 510  :             _Pnode->_Right->_Parent = _Wherenode;

  00249	89 70 04	 mov	 DWORD PTR [eax+4], esi
$LN69@Extract:

; 511  :         }
; 512  : 
; 513  :         _Pnode->_Parent = _Wherenode->_Parent;

  0024c	8b 46 04	 mov	 eax, DWORD PTR [esi+4]
  0024f	8d 56 04	 lea	 edx, DWORD PTR [esi+4]
  00252	89 41 04	 mov	 DWORD PTR [ecx+4], eax

; 514  : 
; 515  :         if (_Wherenode == _Myhead->_Parent) {

  00255	8b 03		 mov	 eax, DWORD PTR [ebx]
  00257	3b 70 04	 cmp	 esi, DWORD PTR [eax+4]
  0025a	75 0c		 jne	 SHORT $LN70@Extract

; 516  :             _Myhead->_Parent = _Pnode;

  0025c	89 48 04	 mov	 DWORD PTR [eax+4], ecx

; 521  :         }
; 522  : 
; 523  :         _Pnode->_Right      = _Wherenode;

  0025f	89 71 08	 mov	 DWORD PTR [ecx+8], esi

; 524  :         _Wherenode->_Parent = _Pnode;

  00262	89 0a		 mov	 DWORD PTR [edx], ecx

; 632  :                         _Rrotate(_Fixnodeparent);
; 633  :                         _Pnode = _Fixnodeparent->_Left;

  00264	8b 0e		 mov	 ecx, DWORD PTR [esi]
  00266	eb 21		 jmp	 SHORT $LN86@Extract
$LN70@Extract:

; 517  :         } else if (_Wherenode == _Wherenode->_Parent->_Right) {

  00268	8b 02		 mov	 eax, DWORD PTR [edx]
  0026a	3b 70 08	 cmp	 esi, DWORD PTR [eax+8]
  0026d	75 0c		 jne	 SHORT $LN72@Extract

; 518  :             _Wherenode->_Parent->_Right = _Pnode;

  0026f	89 48 08	 mov	 DWORD PTR [eax+8], ecx

; 521  :         }
; 522  : 
; 523  :         _Pnode->_Right      = _Wherenode;

  00272	89 71 08	 mov	 DWORD PTR [ecx+8], esi

; 524  :         _Wherenode->_Parent = _Pnode;

  00275	89 0a		 mov	 DWORD PTR [edx], ecx

; 632  :                         _Rrotate(_Fixnodeparent);
; 633  :                         _Pnode = _Fixnodeparent->_Left;

  00277	8b 0e		 mov	 ecx, DWORD PTR [esi]
  00279	eb 0e		 jmp	 SHORT $LN86@Extract
$LN72@Extract:

; 520  :             _Wherenode->_Parent->_Left = _Pnode;

  0027b	89 08		 mov	 DWORD PTR [eax], ecx

; 521  :         }
; 522  : 
; 523  :         _Pnode->_Right      = _Wherenode;

  0027d	89 71 08	 mov	 DWORD PTR [ecx+8], esi

; 524  :         _Wherenode->_Parent = _Pnode;

  00280	89 0a		 mov	 DWORD PTR [edx], ecx

; 632  :                         _Rrotate(_Fixnodeparent);
; 633  :                         _Pnode = _Fixnodeparent->_Left;

  00282	8b 0e		 mov	 ecx, DWORD PTR [esi]
  00284	eb 03		 jmp	 SHORT $LN86@Extract
$LN96@Extract:
  00286	8d 56 04	 lea	 edx, DWORD PTR [esi+4]
$LN86@Extract:

; 634  :                     }
; 635  : 
; 636  :                     if (_Pnode->_Isnil) {

  00289	80 79 0d 00	 cmp	 BYTE PTR [ecx+13], 0
  0028d	75 18		 jne	 SHORT $LN2@Extract

; 637  :                         _Fixnode = _Fixnodeparent; // shouldn't happen
; 638  :                     } else if (_Pnode->_Right->_Color == _Black
; 639  :                                && _Pnode->_Left->_Color == _Black) { // redden left subtree with black children

  0028f	8b 59 08	 mov	 ebx, DWORD PTR [ecx+8]
  00292	80 7b 0c 01	 cmp	 BYTE PTR [ebx+12], 1
  00296	75 2c		 jne	 SHORT $LN98@Extract
  00298	8b 01		 mov	 eax, DWORD PTR [ecx]
  0029a	80 78 0c 01	 cmp	 BYTE PTR [eax+12], 1
  0029e	75 24		 jne	 SHORT $LN98@Extract
$LN142@Extract:

; 597  :             for (; _Fixnode != _Myhead->_Parent && _Fixnode->_Color == _Black; _Fixnodeparent = _Fixnode->_Parent) {

  002a0	8b 5d fc	 mov	 ebx, DWORD PTR _this$1$[ebp]
  002a3	c6 41 0c 00	 mov	 BYTE PTR [ecx+12], 0
$LN2@Extract:
  002a7	8b 03		 mov	 eax, DWORD PTR [ebx]
  002a9	8b 4d f4	 mov	 ecx, DWORD PTR tv1093[ebp]
  002ac	8b f9		 mov	 edi, ecx
  002ae	8b 32		 mov	 esi, DWORD PTR [edx]
  002b0	3b 48 04	 cmp	 ecx, DWORD PTR [eax+4]
  002b3	74 49		 je	 SHORT $LN3@Extract
  002b5	80 7f 0c 01	 cmp	 BYTE PTR [edi+12], 1
  002b9	89 75 f4	 mov	 DWORD PTR tv1093[ebp], esi
  002bc	0f 84 a1 fe ff
	ff		 je	 $LL4@Extract
  002c2	eb 3a		 jmp	 SHORT $LN3@Extract
$LN98@Extract:

; 640  :                         _Pnode->_Color = _Red;
; 641  :                         _Fixnode       = _Fixnodeparent;
; 642  :                     } else { // must rearrange left subtree
; 643  :                         if (_Pnode->_Left->_Color == _Black) { // rotate red up from right sub-subtree

  002c4	8b 01		 mov	 eax, DWORD PTR [ecx]
  002c6	80 78 0c 01	 cmp	 BYTE PTR [eax+12], 1
  002ca	75 17		 jne	 SHORT $LN101@Extract

; 644  :                             _Pnode->_Right->_Color = _Black;

  002cc	c6 43 0c 01	 mov	 BYTE PTR [ebx+12], 1

; 645  :                             _Pnode->_Color         = _Red;
; 646  :                             _Lrotate(_Pnode);

  002d0	8b 5d fc	 mov	 ebx, DWORD PTR _this$1$[ebp]
  002d3	c6 41 0c 00	 mov	 BYTE PTR [ecx+12], 0
  002d7	51		 push	 ecx
  002d8	8b cb		 mov	 ecx, ebx
  002da	e8 00 00 00 00	 call	 ?_Lrotate@?$_Tree_val@U?$_Tree_simple_types@U?$pair@$$CBKPAVCCouple@@@std@@@std@@@std@@QAEXPAU?$_Tree_node@U?$pair@$$CBKPAVCCouple@@@std@@PAX@2@@Z ; std::_Tree_val<std::_Tree_simple_types<std::pair<unsigned long const ,CCouple *> > >::_Lrotate

; 647  :                             _Pnode = _Fixnodeparent->_Left;

  002df	8b 0e		 mov	 ecx, DWORD PTR [esi]
  002e1	eb 03		 jmp	 SHORT $LN39@Extract
$LN101@Extract:

; 640  :                         _Pnode->_Color = _Red;
; 641  :                         _Fixnode       = _Fixnodeparent;
; 642  :                     } else { // must rearrange left subtree
; 643  :                         if (_Pnode->_Left->_Color == _Black) { // rotate red up from right sub-subtree

  002e3	8b 5d fc	 mov	 ebx, DWORD PTR _this$1$[ebp]
$LN39@Extract:

; 648  :                         }
; 649  : 
; 650  :                         _Pnode->_Color         = _Fixnodeparent->_Color;

  002e6	8a 46 0c	 mov	 al, BYTE PTR [esi+12]
  002e9	88 41 0c	 mov	 BYTE PTR [ecx+12], al

; 651  :                         _Fixnodeparent->_Color = _Black;

  002ec	c6 46 0c 01	 mov	 BYTE PTR [esi+12], 1

; 652  :                         _Pnode->_Left->_Color  = _Black;

  002f0	8b 01		 mov	 eax, DWORD PTR [ecx]

; 653  :                         _Rrotate(_Fixnodeparent);

  002f2	8b cb		 mov	 ecx, ebx
  002f4	56		 push	 esi
  002f5	c6 40 0c 01	 mov	 BYTE PTR [eax+12], 1
  002f9	e8 00 00 00 00	 call	 ?_Rrotate@?$_Tree_val@U?$_Tree_simple_types@U?$pair@$$CBKPAVCCouple@@@std@@@std@@@std@@QAEXPAU?$_Tree_node@U?$pair@$$CBKPAVCCouple@@@std@@PAX@2@@Z ; std::_Tree_val<std::_Tree_simple_types<std::pair<unsigned long const ,CCouple *> > >::_Rrotate
$LN3@Extract:

; 654  :                         break; // tree now recolored/rebalanced
; 655  :                     }
; 656  :                 }
; 657  :             }
; 658  : 
; 659  :             _Fixnode->_Color = _Black; // stopping node is black

  002fe	8b 45 f8	 mov	 eax, DWORD PTR __Erasednode$1$[ebp]
  00301	c6 47 0c 01	 mov	 BYTE PTR [edi+12], 1
$LN25@Extract:

; 660  :         }
; 661  : 
; 662  :         if (0 < _Mysize) {

  00305	8b 4b 04	 mov	 ecx, DWORD PTR [ebx+4]
  00308	85 c9		 test	 ecx, ecx
  0030a	74 04		 je	 SHORT $LN40@Extract

; 663  :             --_Mysize;

  0030c	49		 dec	 ecx
  0030d	89 4b 04	 mov	 DWORD PTR [ebx+4], ecx
$LN40@Extract:

; 664  :         }
; 665  : 
; 666  :         return _Erasednode;
; 667  :     }

  00310	5f		 pop	 edi
  00311	5e		 pop	 esi
  00312	5b		 pop	 ebx
  00313	8b e5		 mov	 esp, ebp
  00315	5d		 pop	 ebp
  00316	c2 04 00	 ret	 4
?_Extract@?$_Tree_val@U?$_Tree_simple_types@U?$pair@$$CBKPAVCCouple@@@std@@@std@@@std@@QAEPAU?$_Tree_node@U?$pair@$$CBKPAVCCouple@@@std@@PAX@2@V?$_Tree_unchecked_const_iterator@V?$_Tree_val@U?$_Tree_simple_types@U?$pair@$$CBKPAVCCouple@@@std@@@std@@@std@@U_Iterator_base0@2@@2@@Z ENDP ; std::_Tree_val<std::_Tree_simple_types<std::pair<unsigned long const ,CCouple *> > >::_Extract
_TEXT	ENDS
; Function compile flags: /Ogtp
; File C:\Program Files\Microsoft Visual Studio\2022\Professional\VC\Tools\MSVC\14.44.35207\include\xtree
;	COMDAT ?_Rrotate@?$_Tree_val@U?$_Tree_simple_types@U?$pair@$$CBKPAVCCouple@@@std@@@std@@@std@@QAEXPAU?$_Tree_node@U?$pair@$$CBKPAVCCouple@@@std@@PAX@2@@Z
_TEXT	SEGMENT
__Wherenode$ = 8					; size = 4
?_Rrotate@?$_Tree_val@U?$_Tree_simple_types@U?$pair@$$CBKPAVCCouple@@@std@@@std@@@std@@QAEXPAU?$_Tree_node@U?$pair@$$CBKPAVCCouple@@@std@@PAX@2@@Z PROC ; std::_Tree_val<std::_Tree_simple_types<std::pair<unsigned long const ,CCouple *> > >::_Rrotate, COMDAT
; _this$ = ecx

; 505  :     void _Rrotate(_Nodeptr _Wherenode) noexcept { // promote left node to root of subtree

  00000	55		 push	 ebp
  00001	8b ec		 mov	 ebp, esp

; 506  :         _Nodeptr _Pnode   = _Wherenode->_Left;

  00003	8b 55 08	 mov	 edx, DWORD PTR __Wherenode$[ebp]
  00006	56		 push	 esi
  00007	8b 32		 mov	 esi, DWORD PTR [edx]

; 507  :         _Wherenode->_Left = _Pnode->_Right;

  00009	8b 46 08	 mov	 eax, DWORD PTR [esi+8]
  0000c	89 02		 mov	 DWORD PTR [edx], eax

; 508  : 
; 509  :         if (!_Pnode->_Right->_Isnil) {

  0000e	8b 46 08	 mov	 eax, DWORD PTR [esi+8]
  00011	80 78 0d 00	 cmp	 BYTE PTR [eax+13], 0
  00015	75 03		 jne	 SHORT $LN2@Rrotate

; 510  :             _Pnode->_Right->_Parent = _Wherenode;

  00017	89 50 04	 mov	 DWORD PTR [eax+4], edx
$LN2@Rrotate:

; 511  :         }
; 512  : 
; 513  :         _Pnode->_Parent = _Wherenode->_Parent;

  0001a	8b 42 04	 mov	 eax, DWORD PTR [edx+4]
  0001d	89 46 04	 mov	 DWORD PTR [esi+4], eax

; 514  : 
; 515  :         if (_Wherenode == _Myhead->_Parent) {

  00020	8b 01		 mov	 eax, DWORD PTR [ecx]
  00022	3b 50 04	 cmp	 edx, DWORD PTR [eax+4]
  00025	75 0e		 jne	 SHORT $LN3@Rrotate

; 516  :             _Myhead->_Parent = _Pnode;

  00027	89 70 04	 mov	 DWORD PTR [eax+4], esi

; 521  :         }
; 522  : 
; 523  :         _Pnode->_Right      = _Wherenode;
; 524  :         _Wherenode->_Parent = _Pnode;
; 525  :     }

  0002a	89 56 08	 mov	 DWORD PTR [esi+8], edx
  0002d	89 72 04	 mov	 DWORD PTR [edx+4], esi
  00030	5e		 pop	 esi
  00031	5d		 pop	 ebp
  00032	c2 04 00	 ret	 4
$LN3@Rrotate:

; 517  :         } else if (_Wherenode == _Wherenode->_Parent->_Right) {

  00035	8b 42 04	 mov	 eax, DWORD PTR [edx+4]
  00038	3b 50 08	 cmp	 edx, DWORD PTR [eax+8]
  0003b	75 0e		 jne	 SHORT $LN5@Rrotate

; 518  :             _Wherenode->_Parent->_Right = _Pnode;

  0003d	89 70 08	 mov	 DWORD PTR [eax+8], esi

; 521  :         }
; 522  : 
; 523  :         _Pnode->_Right      = _Wherenode;
; 524  :         _Wherenode->_Parent = _Pnode;
; 525  :     }

  00040	89 56 08	 mov	 DWORD PTR [esi+8], edx
  00043	89 72 04	 mov	 DWORD PTR [edx+4], esi
  00046	5e		 pop	 esi
  00047	5d		 pop	 ebp
  00048	c2 04 00	 ret	 4
$LN5@Rrotate:

; 519  :         } else {
; 520  :             _Wherenode->_Parent->_Left = _Pnode;

  0004b	89 30		 mov	 DWORD PTR [eax], esi

; 521  :         }
; 522  : 
; 523  :         _Pnode->_Right      = _Wherenode;
; 524  :         _Wherenode->_Parent = _Pnode;
; 525  :     }

  0004d	89 56 08	 mov	 DWORD PTR [esi+8], edx
  00050	89 72 04	 mov	 DWORD PTR [edx+4], esi
  00053	5e		 pop	 esi
  00054	5d		 pop	 ebp
  00055	c2 04 00	 ret	 4
?_Rrotate@?$_Tree_val@U?$_Tree_simple_types@U?$pair@$$CBKPAVCCouple@@@std@@@std@@@std@@QAEXPAU?$_Tree_node@U?$pair@$$CBKPAVCCouple@@@std@@PAX@2@@Z ENDP ; std::_Tree_val<std::_Tree_simple_types<std::pair<unsigned long const ,CCouple *> > >::_Rrotate
_TEXT	ENDS
; Function compile flags: /Ogtp
; File C:\Program Files\Microsoft Visual Studio\2022\Professional\VC\Tools\MSVC\14.44.35207\include\xtree
;	COMDAT ?_Lrotate@?$_Tree_val@U?$_Tree_simple_types@U?$pair@$$CBKPAVCCouple@@@std@@@std@@@std@@QAEXPAU?$_Tree_node@U?$pair@$$CBKPAVCCouple@@@std@@PAX@2@@Z
_TEXT	SEGMENT
__Wherenode$ = 8					; size = 4
?_Lrotate@?$_Tree_val@U?$_Tree_simple_types@U?$pair@$$CBKPAVCCouple@@@std@@@std@@@std@@QAEXPAU?$_Tree_node@U?$pair@$$CBKPAVCCouple@@@std@@PAX@2@@Z PROC ; std::_Tree_val<std::_Tree_simple_types<std::pair<unsigned long const ,CCouple *> > >::_Lrotate, COMDAT
; _this$ = ecx

; 483  :     void _Lrotate(_Nodeptr _Wherenode) noexcept { // promote right node to root of subtree

  00000	55		 push	 ebp
  00001	8b ec		 mov	 ebp, esp

; 484  :         _Nodeptr _Pnode    = _Wherenode->_Right;

  00003	8b 55 08	 mov	 edx, DWORD PTR __Wherenode$[ebp]
  00006	56		 push	 esi
  00007	8b 72 08	 mov	 esi, DWORD PTR [edx+8]

; 485  :         _Wherenode->_Right = _Pnode->_Left;

  0000a	8b 06		 mov	 eax, DWORD PTR [esi]
  0000c	89 42 08	 mov	 DWORD PTR [edx+8], eax

; 486  : 
; 487  :         if (!_Pnode->_Left->_Isnil) {

  0000f	8b 06		 mov	 eax, DWORD PTR [esi]
  00011	80 78 0d 00	 cmp	 BYTE PTR [eax+13], 0
  00015	75 03		 jne	 SHORT $LN2@Lrotate

; 488  :             _Pnode->_Left->_Parent = _Wherenode;

  00017	89 50 04	 mov	 DWORD PTR [eax+4], edx
$LN2@Lrotate:

; 489  :         }
; 490  : 
; 491  :         _Pnode->_Parent = _Wherenode->_Parent;

  0001a	8b 42 04	 mov	 eax, DWORD PTR [edx+4]
  0001d	89 46 04	 mov	 DWORD PTR [esi+4], eax

; 492  : 
; 493  :         if (_Wherenode == _Myhead->_Parent) {

  00020	8b 01		 mov	 eax, DWORD PTR [ecx]
  00022	3b 50 04	 cmp	 edx, DWORD PTR [eax+4]
  00025	75 0d		 jne	 SHORT $LN3@Lrotate

; 494  :             _Myhead->_Parent = _Pnode;

  00027	89 70 04	 mov	 DWORD PTR [eax+4], esi

; 499  :         }
; 500  : 
; 501  :         _Pnode->_Left       = _Wherenode;
; 502  :         _Wherenode->_Parent = _Pnode;
; 503  :     }

  0002a	89 16		 mov	 DWORD PTR [esi], edx
  0002c	89 72 04	 mov	 DWORD PTR [edx+4], esi
  0002f	5e		 pop	 esi
  00030	5d		 pop	 ebp
  00031	c2 04 00	 ret	 4
$LN3@Lrotate:

; 495  :         } else if (_Wherenode == _Wherenode->_Parent->_Left) {

  00034	8b 42 04	 mov	 eax, DWORD PTR [edx+4]
  00037	3b 10		 cmp	 edx, DWORD PTR [eax]
  00039	75 0c		 jne	 SHORT $LN5@Lrotate

; 496  :             _Wherenode->_Parent->_Left = _Pnode;

  0003b	89 30		 mov	 DWORD PTR [eax], esi

; 499  :         }
; 500  : 
; 501  :         _Pnode->_Left       = _Wherenode;
; 502  :         _Wherenode->_Parent = _Pnode;
; 503  :     }

  0003d	89 16		 mov	 DWORD PTR [esi], edx
  0003f	89 72 04	 mov	 DWORD PTR [edx+4], esi
  00042	5e		 pop	 esi
  00043	5d		 pop	 ebp
  00044	c2 04 00	 ret	 4
$LN5@Lrotate:

; 497  :         } else {
; 498  :             _Wherenode->_Parent->_Right = _Pnode;

  00047	89 70 08	 mov	 DWORD PTR [eax+8], esi

; 499  :         }
; 500  : 
; 501  :         _Pnode->_Left       = _Wherenode;
; 502  :         _Wherenode->_Parent = _Pnode;
; 503  :     }

  0004a	89 16		 mov	 DWORD PTR [esi], edx
  0004c	89 72 04	 mov	 DWORD PTR [edx+4], esi
  0004f	5e		 pop	 esi
  00050	5d		 pop	 ebp
  00051	c2 04 00	 ret	 4
?_Lrotate@?$_Tree_val@U?$_Tree_simple_types@U?$pair@$$CBKPAVCCouple@@@std@@@std@@@std@@QAEXPAU?$_Tree_node@U?$pair@$$CBKPAVCCouple@@@std@@PAX@2@@Z ENDP ; std::_Tree_val<std::_Tree_simple_types<std::pair<unsigned long const ,CCouple *> > >::_Lrotate
_TEXT	ENDS
; Function compile flags: /Ogtp
; File C:\Program Files\Microsoft Visual Studio\2022\Professional\VC\Tools\MSVC\14.44.35207\include\xtree
; File C:\Program Files\Microsoft Visual Studio\2022\Professional\VC\Tools\MSVC\14.44.35207\include\utility
; File C:\Program Files\Microsoft Visual Studio\2022\Professional\VC\Tools\MSVC\14.44.35207\include\xmemory
; File C:\Program Files\Microsoft Visual Studio\2022\Professional\VC\Tools\MSVC\14.44.35207\include\xtree
;	COMDAT ?clear@?$_Tree@V?$_Tmap_traits@KPAVCCouple@@U?$less@K@std@@V?$allocator@U?$pair@$$CBKPAVCCouple@@@std@@@3@$0A@@std@@@std@@QAEXXZ
_TEXT	SEGMENT
?clear@?$_Tree@V?$_Tmap_traits@KPAVCCouple@@U?$less@K@std@@V?$allocator@U?$pair@$$CBKPAVCCouple@@@std@@@3@$0A@@std@@@std@@QAEXXZ PROC ; std::_Tree<std::_Tmap_traits<unsigned long,CCouple *,std::less<unsigned long>,std::allocator<std::pair<unsigned long const ,CCouple *> >,0> >::clear, COMDAT
; _this$ = ecx

; 1370 :     void clear() noexcept {

  00000	53		 push	 ebx
  00001	8b d9		 mov	 ebx, ecx
  00003	56		 push	 esi
  00004	57		 push	 edi

; 1371 :         const auto _Scary = _Get_scary();
; 1372 :         _Scary->_Orphan_ptr(nullptr);
; 1373 :         auto _Head = _Scary->_Myhead;

  00005	8b 3b		 mov	 edi, DWORD PTR [ebx]

; 1374 :         _Scary->_Erase_tree(_Getal(), _Head->_Parent);

  00007	8b 77 04	 mov	 esi, DWORD PTR [edi+4]

; 768  :         while (!_Rootnode->_Isnil) { // free subtrees, then node

  0000a	80 7e 0d 00	 cmp	 BYTE PTR [esi+13], 0
  0000e	75 20		 jne	 SHORT $LN38@clear
$LL5@clear:

; 769  :             _Erase_tree(_Al, _Rootnode->_Right);

  00010	ff 76 08	 push	 DWORD PTR [esi+8]
  00013	8b cb		 mov	 ecx, ebx
  00015	53		 push	 ebx
  00016	e8 00 00 00 00	 call	 ??$_Erase_tree@V?$allocator@U?$_Tree_node@U?$pair@$$CBKPAVCCouple@@@std@@PAX@std@@@std@@@?$_Tree_val@U?$_Tree_simple_types@U?$pair@$$CBKPAVCCouple@@@std@@@std@@@std@@QAEXAAV?$allocator@U?$_Tree_node@U?$pair@$$CBKPAVCCouple@@@std@@PAX@std@@@1@PAU?$_Tree_node@U?$pair@$$CBKPAVCCouple@@@std@@PAX@1@@Z ; std::_Tree_val<std::_Tree_simple_types<std::pair<unsigned long const ,CCouple *> > >::_Erase_tree<std::allocator<std::_Tree_node<std::pair<unsigned long const ,CCouple *>,void *> > >
; File C:\Program Files\Microsoft Visual Studio\2022\Professional\VC\Tools\MSVC\14.44.35207\include\utility

; 773  :     _Ty _Old_val = static_cast<_Ty&&>(_Val);

  0001b	8b c6		 mov	 eax, esi

; 774  :     _Val         = static_cast<_Other&&>(_New_val);

  0001d	8b 36		 mov	 esi, DWORD PTR [esi]
; File C:\Program Files\Microsoft Visual Studio\2022\Professional\VC\Tools\MSVC\14.44.35207\include\xmemory

; 289  :         ::operator delete(_Ptr, _Bytes);

  0001f	6a 18		 push	 24			; 00000018H
  00021	50		 push	 eax
  00022	e8 00 00 00 00	 call	 ??3@YAXPAXI@Z		; operator delete
  00027	83 c4 08	 add	 esp, 8
; File C:\Program Files\Microsoft Visual Studio\2022\Professional\VC\Tools\MSVC\14.44.35207\include\xtree

; 768  :         while (!_Rootnode->_Isnil) { // free subtrees, then node

  0002a	80 7e 0d 00	 cmp	 BYTE PTR [esi+13], 0
  0002e	74 e0		 je	 SHORT $LL5@clear
$LN38@clear:

; 1375 :         _Head->_Parent  = _Head;

  00030	89 7f 04	 mov	 DWORD PTR [edi+4], edi

; 1376 :         _Head->_Left    = _Head;

  00033	89 3f		 mov	 DWORD PTR [edi], edi

; 1377 :         _Head->_Right   = _Head;

  00035	89 7f 08	 mov	 DWORD PTR [edi+8], edi

; 1378 :         _Scary->_Mysize = 0;

  00038	5f		 pop	 edi
  00039	5e		 pop	 esi
  0003a	c7 43 04 00 00
	00 00		 mov	 DWORD PTR [ebx+4], 0
  00041	5b		 pop	 ebx

; 1379 :     }

  00042	c3		 ret	 0
?clear@?$_Tree@V?$_Tmap_traits@KPAVCCouple@@U?$less@K@std@@V?$allocator@U?$pair@$$CBKPAVCCouple@@@std@@@3@$0A@@std@@@std@@QAEXXZ ENDP ; std::_Tree<std::_Tmap_traits<unsigned long,CCouple *,std::less<unsigned long>,std::allocator<std::pair<unsigned long const ,CCouple *> >,0> >::clear
_TEXT	ENDS
; Function compile flags: /Ogtp
; File C:\Program Files\Microsoft Visual Studio\2022\Professional\VC\Tools\MSVC\14.44.35207\include\xtree
; File C:\Program Files\Microsoft Visual Studio\2022\Professional\VC\Tools\MSVC\14.44.35207\include\type_traits
; File C:\Program Files\Microsoft Visual Studio\2022\Professional\VC\Tools\MSVC\14.44.35207\include\xtree
; File C:\Program Files\Microsoft Visual Studio\2022\Professional\VC\Tools\MSVC\14.44.35207\include\type_traits
; File C:\Program Files\Microsoft Visual Studio\2022\Professional\VC\Tools\MSVC\14.44.35207\include\xtree
; File C:\Program Files\Microsoft Visual Studio\2022\Professional\VC\Tools\MSVC\14.44.35207\include\type_traits
; File C:\Program Files\Microsoft Visual Studio\2022\Professional\VC\Tools\MSVC\14.44.35207\include\xtree
; File C:\Program Files\Microsoft Visual Studio\2022\Professional\VC\Tools\MSVC\14.44.35207\include\xutility
; File C:\Program Files\Microsoft Visual Studio\2022\Professional\VC\Tools\MSVC\14.44.35207\include\xtree
; File C:\Program Files\Microsoft Visual Studio\2022\Professional\VC\Tools\MSVC\14.44.35207\include\xutility
; File C:\Program Files\Microsoft Visual Studio\2022\Professional\VC\Tools\MSVC\14.44.35207\include\xtree
; File C:\Program Files\Microsoft Visual Studio\2022\Professional\VC\Tools\MSVC\14.44.35207\include\xutility
; File C:\Program Files\Microsoft Visual Studio\2022\Professional\VC\Tools\MSVC\14.44.35207\include\xtree
; File C:\Program Files\Microsoft Visual Studio\2022\Professional\VC\Tools\MSVC\14.44.35207\include\xutility
; File C:\Program Files\Microsoft Visual Studio\2022\Professional\VC\Tools\MSVC\14.44.35207\include\xtree
; File C:\Program Files\Microsoft Visual Studio\2022\Professional\VC\Tools\MSVC\14.44.35207\include\xmemory
; File C:\Program Files\Microsoft Visual Studio\2022\Professional\VC\Tools\MSVC\14.44.35207\include\xtree
; File C:\Program Files\Microsoft Visual Studio\2022\Professional\VC\Tools\MSVC\14.44.35207\include\xmemory
; File C:\Program Files\Microsoft Visual Studio\2022\Professional\VC\Tools\MSVC\14.44.35207\include\xtree
;	COMDAT ?erase@?$_Tree@V?$_Tmap_traits@KPAVCCouple@@U?$less@K@std@@V?$allocator@U?$pair@$$CBKPAVCCouple@@@std@@@3@$0A@@std@@@std@@QAEIABK@Z
_TEXT	SEGMENT
tv710 = -12						; size = 4
__Off$1$ = -8						; size = 4
_this$1$ = -4						; size = 4
__Keyval$ = 8						; size = 4
__First$ = 8						; size = 4
?erase@?$_Tree@V?$_Tmap_traits@KPAVCCouple@@U?$less@K@std@@V?$allocator@U?$pair@$$CBKPAVCCouple@@@std@@@3@$0A@@std@@@std@@QAEIABK@Z PROC ; std::_Tree<std::_Tmap_traits<unsigned long,CCouple *,std::less<unsigned long>,std::allocator<std::pair<unsigned long const ,CCouple *> >,0> >::erase, COMDAT
; _this$ = ecx

; 1357 :     size_type erase(const key_type& _Keyval) noexcept(noexcept(_Eqrange(_Keyval))) /* strengthened */ {

  00000	55		 push	 ebp
  00001	8b ec		 mov	 ebp, esp
  00003	83 ec 0c	 sub	 esp, 12			; 0000000cH
  00006	8b c1		 mov	 eax, ecx
  00008	89 45 fc	 mov	 DWORD PTR _this$1$[ebp], eax
  0000b	53		 push	 ebx
  0000c	56		 push	 esi

; 1709 :         _Nodeptr _Pnode   = _Scary->_Myhead->_Parent;

  0000d	8b 08		 mov	 ecx, DWORD PTR [eax]

; 1710 :         _Nodeptr _Lonode  = _Scary->_Myhead; // end() if search fails

  0000f	8b f1		 mov	 esi, ecx

; 1357 :     size_type erase(const key_type& _Keyval) noexcept(noexcept(_Eqrange(_Keyval))) /* strengthened */ {

  00011	57		 push	 edi

; 1709 :         _Nodeptr _Pnode   = _Scary->_Myhead->_Parent;

  00012	89 4d f4	 mov	 DWORD PTR tv710[ebp], ecx

; 1711 :         _Nodeptr _Hinode  = _Scary->_Myhead; // end() if search fails

  00015	8b f9		 mov	 edi, ecx
  00017	8b 41 04	 mov	 eax, DWORD PTR [ecx+4]
  0001a	8b d0		 mov	 edx, eax

; 1712 : 
; 1713 :         while (!_Pnode->_Isnil) {

  0001c	80 7a 0d 00	 cmp	 BYTE PTR [edx+13], 0
  00020	75 26		 jne	 SHORT $LN6@erase
; File C:\Program Files\Microsoft Visual Studio\2022\Professional\VC\Tools\MSVC\14.44.35207\include\type_traits

; 2380 :         return _Left < _Right;

  00022	8b 5d 08	 mov	 ebx, DWORD PTR __Keyval$[ebp]
  00025	8b 1b		 mov	 ebx, DWORD PTR [ebx]
$LL5@erase:
  00027	8b 4a 10	 mov	 ecx, DWORD PTR [edx+16]
  0002a	3b cb		 cmp	 ecx, ebx
; File C:\Program Files\Microsoft Visual Studio\2022\Professional\VC\Tools\MSVC\14.44.35207\include\xtree

; 1715 :             if (_DEBUG_LT_PRED(_Comp, _Nodekey, _Keyval)) {

  0002c	73 05		 jae	 SHORT $LN9@erase

; 1716 :                 _Pnode = _Pnode->_Right; // descend right subtree

  0002e	8b 52 08	 mov	 edx, DWORD PTR [edx+8]

; 1717 :             } else { // _Pnode not less than _Keyval, remember it

  00031	eb 0f		 jmp	 SHORT $LN10@erase
$LN9@erase:

; 1718 :                 if (_Hinode->_Isnil && _DEBUG_LT_PRED(_Comp, _Keyval, _Nodekey)) {

  00033	80 7f 0d 00	 cmp	 BYTE PTR [edi+13], 0
  00037	74 05		 je	 SHORT $LN11@erase
; File C:\Program Files\Microsoft Visual Studio\2022\Professional\VC\Tools\MSVC\14.44.35207\include\type_traits

; 2380 :         return _Left < _Right;

  00039	3b d9		 cmp	 ebx, ecx
; File C:\Program Files\Microsoft Visual Studio\2022\Professional\VC\Tools\MSVC\14.44.35207\include\xtree

; 1718 :                 if (_Hinode->_Isnil && _DEBUG_LT_PRED(_Comp, _Keyval, _Nodekey)) {

  0003b	0f 42 fa	 cmovb	 edi, edx
$LN11@erase:

; 1719 :                     _Hinode = _Pnode; // _Pnode greater, remember it
; 1720 :                 }
; 1721 : 
; 1722 :                 _Lonode = _Pnode;

  0003e	8b f2		 mov	 esi, edx

; 1723 :                 _Pnode  = _Pnode->_Left; // descend left subtree

  00040	8b 12		 mov	 edx, DWORD PTR [edx]
$LN10@erase:

; 1712 : 
; 1713 :         while (!_Pnode->_Isnil) {

  00042	80 7a 0d 00	 cmp	 BYTE PTR [edx+13], 0
  00046	74 df		 je	 SHORT $LL5@erase
$LN6@erase:

; 1724 :             }
; 1725 :         }
; 1726 : 
; 1727 :         _Pnode = _Hinode->_Isnil ? _Scary->_Myhead->_Parent : _Hinode->_Left; // continue scan for upper bound

  00048	80 7f 0d 00	 cmp	 BYTE PTR [edi+13], 0
  0004c	75 02		 jne	 SHORT $LN16@erase
  0004e	8b 07		 mov	 eax, DWORD PTR [edi]
$LN16@erase:

; 1728 :         while (!_Pnode->_Isnil) {

  00050	80 78 0d 00	 cmp	 BYTE PTR [eax+13], 0
  00054	75 1e		 jne	 SHORT $LN8@erase
; File C:\Program Files\Microsoft Visual Studio\2022\Professional\VC\Tools\MSVC\14.44.35207\include\type_traits

; 2380 :         return _Left < _Right;

  00056	8b 4d 08	 mov	 ecx, DWORD PTR __Keyval$[ebp]
  00059	8b 09		 mov	 ecx, DWORD PTR [ecx]
  0005b	0f 1f 44 00 00	 npad	 5
$LL7@erase:
  00060	3b 48 10	 cmp	 ecx, DWORD PTR [eax+16]
; File C:\Program Files\Microsoft Visual Studio\2022\Professional\VC\Tools\MSVC\14.44.35207\include\xtree

; 1729 :             if (_DEBUG_LT_PRED(_Getcomp(), _Keyval, _Traits::_Kfn(_Pnode->_Myval))) {

  00063	73 06		 jae	 SHORT $LN12@erase

; 1730 :                 // _Pnode greater than _Keyval, remember it
; 1731 :                 _Hinode = _Pnode;

  00065	8b f8		 mov	 edi, eax

; 1732 :                 _Pnode  = _Pnode->_Left; // descend left subtree

  00067	8b 00		 mov	 eax, DWORD PTR [eax]

; 1733 :             } else {

  00069	eb 03		 jmp	 SHORT $LN13@erase
$LN12@erase:

; 1734 :                 _Pnode = _Pnode->_Right; // descend right subtree

  0006b	8b 40 08	 mov	 eax, DWORD PTR [eax+8]
$LN13@erase:

; 1728 :         while (!_Pnode->_Isnil) {

  0006e	80 78 0d 00	 cmp	 BYTE PTR [eax+13], 0
  00072	74 ec		 je	 SHORT $LL7@erase
$LN8@erase:
; File C:\Program Files\Microsoft Visual Studio\2022\Professional\VC\Tools\MSVC\14.44.35207\include\xutility

; 1667 :         _Iter_diff_t<_InIt> _Off = 0;

  00074	33 db		 xor	 ebx, ebx
  00076	8b c6		 mov	 eax, esi
  00078	89 5d f8	 mov	 DWORD PTR __Off$1$[ebp], ebx
; File C:\Program Files\Microsoft Visual Studio\2022\Professional\VC\Tools\MSVC\14.44.35207\include\xtree

; 101  :         return !(*this == _Right);

  0007b	3b f7		 cmp	 esi, edi
; File C:\Program Files\Microsoft Visual Studio\2022\Professional\VC\Tools\MSVC\14.44.35207\include\xutility

; 1668 :         for (; _UFirst != _ULast; ++_UFirst) {

  0007d	74 45		 je	 SHORT $LN41@erase
  0007f	90		 npad	 1
$LL42@erase:
; File C:\Program Files\Microsoft Visual Studio\2022\Professional\VC\Tools\MSVC\14.44.35207\include\xtree

; 50   :         if (_Ptr->_Right->_Isnil) { // climb looking for right subtree

  00080	8b 48 08	 mov	 ecx, DWORD PTR [eax+8]
; File C:\Program Files\Microsoft Visual Studio\2022\Professional\VC\Tools\MSVC\14.44.35207\include\xutility

; 1669 :             ++_Off;

  00083	43		 inc	 ebx
; File C:\Program Files\Microsoft Visual Studio\2022\Professional\VC\Tools\MSVC\14.44.35207\include\xtree

; 50   :         if (_Ptr->_Right->_Isnil) { // climb looking for right subtree

  00084	80 79 0d 00	 cmp	 BYTE PTR [ecx+13], 0
  00088	74 1d		 je	 SHORT $LN47@erase

; 51   :             _Nodeptr _Pnode;
; 52   :             while (!(_Pnode = _Ptr->_Parent)->_Isnil && _Ptr == _Pnode->_Right) {

  0008a	8b 48 04	 mov	 ecx, DWORD PTR [eax+4]
  0008d	80 79 0d 00	 cmp	 BYTE PTR [ecx+13], 0
  00091	75 10		 jne	 SHORT $LN142@erase
$LL45@erase:
  00093	3b 41 08	 cmp	 eax, DWORD PTR [ecx+8]
  00096	75 0b		 jne	 SHORT $LN142@erase

; 53   :                 _Ptr = _Pnode; // ==> parent while right subtree

  00098	8b c1		 mov	 eax, ecx
  0009a	8b 49 04	 mov	 ecx, DWORD PTR [ecx+4]
  0009d	80 79 0d 00	 cmp	 BYTE PTR [ecx+13], 0
  000a1	74 f0		 je	 SHORT $LL45@erase
$LN142@erase:

; 54   :             }
; 55   : 
; 56   :             _Ptr = _Pnode; // ==> parent (head if end())

  000a3	8b c1		 mov	 eax, ecx

; 57   :         } else {

  000a5	eb 16		 jmp	 SHORT $LN53@erase
$LN47@erase:

; 58   :             _Ptr = _Mytree::_Min(_Ptr->_Right); // ==> smallest of right subtree

  000a7	8b c1		 mov	 eax, ecx

; 476  :         while (!_Pnode->_Left->_Isnil) {

  000a9	8b 10		 mov	 edx, DWORD PTR [eax]
  000ab	80 7a 0d 00	 cmp	 BYTE PTR [edx+13], 0
  000af	75 0c		 jne	 SHORT $LN53@erase
$LL52@erase:
  000b1	8b 0a		 mov	 ecx, DWORD PTR [edx]

; 477  :             _Pnode = _Pnode->_Left;

  000b3	8b c2		 mov	 eax, edx
  000b5	8b d1		 mov	 edx, ecx
  000b7	80 79 0d 00	 cmp	 BYTE PTR [ecx+13], 0
  000bb	74 f4		 je	 SHORT $LL52@erase
$LN53@erase:

; 101  :         return !(*this == _Right);

  000bd	3b c7		 cmp	 eax, edi
; File C:\Program Files\Microsoft Visual Studio\2022\Professional\VC\Tools\MSVC\14.44.35207\include\xutility

; 1668 :         for (; _UFirst != _ULast; ++_UFirst) {

  000bf	75 bf		 jne	 SHORT $LL42@erase
  000c1	89 5d f8	 mov	 DWORD PTR __Off$1$[ebp], ebx
$LN41@erase:
; File C:\Program Files\Microsoft Visual Studio\2022\Professional\VC\Tools\MSVC\14.44.35207\include\xtree

; 96   :         return _Ptr == _Right._Ptr;

  000c4	8b 45 f4	 mov	 eax, DWORD PTR tv710[ebp]

; 1329 :         _Erase_unchecked(_First, _Last);

  000c7	89 75 08	 mov	 DWORD PTR __First$[ebp], esi

; 96   :         return _Ptr == _Right._Ptr;

  000ca	3b 30		 cmp	 esi, DWORD PTR [eax]

; 1311 :         if (_First == _Begin && _Last._Ptr->_Isnil) {

  000cc	75 19		 jne	 SHORT $LN122@erase
  000ce	80 7f 0d 00	 cmp	 BYTE PTR [edi+13], 0
  000d2	74 13		 je	 SHORT $LN122@erase

; 1312 :             // erase all
; 1313 :             clear();

  000d4	8b 4d fc	 mov	 ecx, DWORD PTR _this$1$[ebp]
  000d7	e8 00 00 00 00	 call	 ?clear@?$_Tree@V?$_Tmap_traits@KPAVCCouple@@U?$less@K@std@@V?$allocator@U?$pair@$$CBKPAVCCouple@@@std@@@3@$0A@@std@@@std@@QAEXXZ ; std::_Tree<std::_Tmap_traits<unsigned long,CCouple *,std::less<unsigned long>,std::allocator<std::pair<unsigned long const ,CCouple *> >,0> >::clear
$LN141@erase:
  000dc	5f		 pop	 edi

; 1358 :         return _Erase(_Eqrange(_Keyval));
; 1359 :     }

  000dd	5e		 pop	 esi
  000de	8b c3		 mov	 eax, ebx
  000e0	5b		 pop	 ebx
  000e1	8b e5		 mov	 esp, ebp
  000e3	5d		 pop	 ebp
  000e4	c2 04 00	 ret	 4
$LN122@erase:

; 101  :         return !(*this == _Right);

  000e7	3b f7		 cmp	 esi, edi

; 1318 :         while (_First != _Last) {

  000e9	74 f1		 je	 SHORT $LN141@erase
  000eb	8b 5d fc	 mov	 ebx, DWORD PTR _this$1$[ebp]
  000ee	66 90		 npad	 2
$LL63@erase:

; 66   :         ++*this;

  000f0	8d 4d 08	 lea	 ecx, DWORD PTR __First$[ebp]
  000f3	e8 00 00 00 00	 call	 ??E?$_Tree_unchecked_const_iterator@V?$_Tree_val@U?$_Tree_simple_types@U?$pair@$$CBKPAVCCouple@@@std@@@std@@@std@@U_Iterator_base0@2@@std@@QAEAAV01@XZ ; std::_Tree_unchecked_const_iterator<std::_Tree_val<std::_Tree_simple_types<std::pair<unsigned long const ,CCouple *> > >,std::_Iterator_base0>::operator++

; 1303 :         _Nodeptr _Erasednode = _Scary->_Extract(_Where); // node to erase

  000f8	56		 push	 esi
  000f9	8b cb		 mov	 ecx, ebx
  000fb	e8 00 00 00 00	 call	 ?_Extract@?$_Tree_val@U?$_Tree_simple_types@U?$pair@$$CBKPAVCCouple@@@std@@@std@@@std@@QAEPAU?$_Tree_node@U?$pair@$$CBKPAVCCouple@@@std@@PAX@2@V?$_Tree_unchecked_const_iterator@V?$_Tree_val@U?$_Tree_simple_types@U?$pair@$$CBKPAVCCouple@@@std@@@std@@@std@@U_Iterator_base0@2@@2@@Z ; std::_Tree_val<std::_Tree_simple_types<std::pair<unsigned long const ,CCouple *> > >::_Extract
; File C:\Program Files\Microsoft Visual Studio\2022\Professional\VC\Tools\MSVC\14.44.35207\include\xmemory

; 289  :         ::operator delete(_Ptr, _Bytes);

  00100	6a 18		 push	 24			; 00000018H
  00102	50		 push	 eax
  00103	e8 00 00 00 00	 call	 ??3@YAXPAXI@Z		; operator delete
; File C:\Program Files\Microsoft Visual Studio\2022\Professional\VC\Tools\MSVC\14.44.35207\include\xtree

; 101  :         return !(*this == _Right);

  00108	8b 75 08	 mov	 esi, DWORD PTR __First$[ebp]
; File C:\Program Files\Microsoft Visual Studio\2022\Professional\VC\Tools\MSVC\14.44.35207\include\xmemory

; 289  :         ::operator delete(_Ptr, _Bytes);

  0010b	83 c4 08	 add	 esp, 8
; File C:\Program Files\Microsoft Visual Studio\2022\Professional\VC\Tools\MSVC\14.44.35207\include\xtree

; 101  :         return !(*this == _Right);

  0010e	3b f7		 cmp	 esi, edi

; 1318 :         while (_First != _Last) {

  00110	75 de		 jne	 SHORT $LL63@erase

; 1358 :         return _Erase(_Eqrange(_Keyval));
; 1359 :     }

  00112	8b 45 f8	 mov	 eax, DWORD PTR __Off$1$[ebp]
  00115	5f		 pop	 edi
  00116	5e		 pop	 esi
  00117	5b		 pop	 ebx
  00118	8b e5		 mov	 esp, ebp
  0011a	5d		 pop	 ebp
  0011b	c2 04 00	 ret	 4
?erase@?$_Tree@V?$_Tmap_traits@KPAVCCouple@@U?$less@K@std@@V?$allocator@U?$pair@$$CBKPAVCCouple@@@std@@@3@$0A@@std@@@std@@QAEIABK@Z ENDP ; std::_Tree<std::_Tmap_traits<unsigned long,CCouple *,std::less<unsigned long>,std::allocator<std::pair<unsigned long const ,CCouple *> >,0> >::erase
_TEXT	ENDS
; Function compile flags: /Ogtp
; File C:\Program Files\Microsoft Visual Studio\2022\Professional\VC\Tools\MSVC\14.44.35207\include\xtree
; File C:\Program Files\Microsoft Visual Studio\2022\Professional\VC\Tools\MSVC\14.44.35207\include\utility
; File C:\Program Files\Microsoft Visual Studio\2022\Professional\VC\Tools\MSVC\14.44.35207\include\xmemory
; File C:\Program Files\Microsoft Visual Studio\2022\Professional\VC\Tools\MSVC\14.44.35207\include\xtree
; File C:\Program Files\Microsoft Visual Studio\2022\Professional\VC\Tools\MSVC\14.44.35207\include\xmemory
; File C:\Program Files\Microsoft Visual Studio\2022\Professional\VC\Tools\MSVC\14.44.35207\include\xtree
;	COMDAT ??1?$_Tree@V?$_Tmap_traits@KPAVCCouple@@U?$less@K@std@@V?$allocator@U?$pair@$$CBKPAVCCouple@@@std@@@3@$0A@@std@@@std@@QAE@XZ
_TEXT	SEGMENT
??1?$_Tree@V?$_Tmap_traits@KPAVCCouple@@U?$less@K@std@@V?$allocator@U?$pair@$$CBKPAVCCouple@@@std@@@3@$0A@@std@@@std@@QAE@XZ PROC ; std::_Tree<std::_Tmap_traits<unsigned long,CCouple *,std::less<unsigned long>,std::allocator<std::pair<unsigned long const ,CCouple *> >,0> >::~_Tree<std::_Tmap_traits<unsigned long,CCouple *,std::less<unsigned long>,std::allocator<std::pair<unsigned long const ,CCouple *> >,0> >, COMDAT
; _this$ = ecx

; 1095 :     ~_Tree() noexcept {

  00000	56		 push	 esi
  00001	57		 push	 edi
  00002	8b f9		 mov	 edi, ecx

; 777  :         _Erase_tree(_Al, _Myhead->_Parent);

  00004	8b 37		 mov	 esi, DWORD PTR [edi]
  00006	8b 76 04	 mov	 esi, DWORD PTR [esi+4]

; 768  :         while (!_Rootnode->_Isnil) { // free subtrees, then node

  00009	80 7e 0d 00	 cmp	 BYTE PTR [esi+13], 0
  0000d	75 21		 jne	 SHORT $LN61@Tree
  0000f	90		 npad	 1
$LL8@Tree:

; 769  :             _Erase_tree(_Al, _Rootnode->_Right);

  00010	ff 76 08	 push	 DWORD PTR [esi+8]
  00013	8b cf		 mov	 ecx, edi
  00015	57		 push	 edi
  00016	e8 00 00 00 00	 call	 ??$_Erase_tree@V?$allocator@U?$_Tree_node@U?$pair@$$CBKPAVCCouple@@@std@@PAX@std@@@std@@@?$_Tree_val@U?$_Tree_simple_types@U?$pair@$$CBKPAVCCouple@@@std@@@std@@@std@@QAEXAAV?$allocator@U?$_Tree_node@U?$pair@$$CBKPAVCCouple@@@std@@PAX@std@@@1@PAU?$_Tree_node@U?$pair@$$CBKPAVCCouple@@@std@@PAX@1@@Z ; std::_Tree_val<std::_Tree_simple_types<std::pair<unsigned long const ,CCouple *> > >::_Erase_tree<std::allocator<std::_Tree_node<std::pair<unsigned long const ,CCouple *>,void *> > >
; File C:\Program Files\Microsoft Visual Studio\2022\Professional\VC\Tools\MSVC\14.44.35207\include\utility

; 773  :     _Ty _Old_val = static_cast<_Ty&&>(_Val);

  0001b	8b c6		 mov	 eax, esi

; 774  :     _Val         = static_cast<_Other&&>(_New_val);

  0001d	8b 36		 mov	 esi, DWORD PTR [esi]
; File C:\Program Files\Microsoft Visual Studio\2022\Professional\VC\Tools\MSVC\14.44.35207\include\xmemory

; 289  :         ::operator delete(_Ptr, _Bytes);

  0001f	6a 18		 push	 24			; 00000018H
  00021	50		 push	 eax
  00022	e8 00 00 00 00	 call	 ??3@YAXPAXI@Z		; operator delete
  00027	83 c4 08	 add	 esp, 8
; File C:\Program Files\Microsoft Visual Studio\2022\Professional\VC\Tools\MSVC\14.44.35207\include\xtree

; 768  :         while (!_Rootnode->_Isnil) { // free subtrees, then node

  0002a	80 7e 0d 00	 cmp	 BYTE PTR [esi+13], 0
  0002e	74 e0		 je	 SHORT $LL8@Tree
$LN61@Tree:
; File C:\Program Files\Microsoft Visual Studio\2022\Professional\VC\Tools\MSVC\14.44.35207\include\xmemory

; 289  :         ::operator delete(_Ptr, _Bytes);

  00030	6a 18		 push	 24			; 00000018H
  00032	ff 37		 push	 DWORD PTR [edi]
  00034	e8 00 00 00 00	 call	 ??3@YAXPAXI@Z		; operator delete
  00039	83 c4 08	 add	 esp, 8
  0003c	5f		 pop	 edi
  0003d	5e		 pop	 esi
; File C:\Program Files\Microsoft Visual Studio\2022\Professional\VC\Tools\MSVC\14.44.35207\include\xtree

; 1102 :     }

  0003e	c3		 ret	 0
??1?$_Tree@V?$_Tmap_traits@KPAVCCouple@@U?$less@K@std@@V?$allocator@U?$pair@$$CBKPAVCCouple@@@std@@@3@$0A@@std@@@std@@QAE@XZ ENDP ; std::_Tree<std::_Tmap_traits<unsigned long,CCouple *,std::less<unsigned long>,std::allocator<std::pair<unsigned long const ,CCouple *> >,0> >::~_Tree<std::_Tmap_traits<unsigned long,CCouple *,std::less<unsigned long>,std::allocator<std::pair<unsigned long const ,CCouple *> >,0> >
_TEXT	ENDS
; Function compile flags: /Ogtp
; File C:\IAGOS\server\v18\Source\Source\_Common\couple.cpp
; File C:\Program Files\Microsoft Visual Studio\2022\Professional\VC\Tools\MSVC\14.44.35207\include\vector
; File C:\IAGOS\server\v18\Source\Source\_Common\couple.cpp
; File C:\Program Files\Microsoft Visual Studio\2022\Professional\VC\Tools\MSVC\14.44.35207\include\vector
; File C:\IAGOS\server\v18\Source\Source\_Common\couple.cpp
; File C:\Program Files\Microsoft Visual Studio\2022\Professional\VC\Tools\MSVC\14.44.35207\include\vector
; File C:\IAGOS\server\v18\Source\Source\_Common\couple.cpp
;	COMDAT ?Clear@CCoupleMgr@@AAEXXZ
_TEXT	SEGMENT
?Clear@CCoupleMgr@@AAEXXZ PROC				; CCoupleMgr::Clear, COMDAT
; _this$ = ecx

; 146  : {

  00000	56		 push	 esi
  00001	57		 push	 edi
  00002	8b f9		 mov	 edi, ecx
; File C:\Program Files\Microsoft Visual Studio\2022\Professional\VC\Tools\MSVC\14.44.35207\include\vector

; 46   :     _CONSTEXPR20 _Vector_const_iterator(_Tptr _Parg, const _Container_base* _Pvector) noexcept : _Ptr(_Parg) {

  00004	8b 77 0c	 mov	 esi, DWORD PTR [edi+12]

; 176  :         return !(*this == _Right);

  00007	3b 77 10	 cmp	 esi, DWORD PTR [edi+16]
; File C:\IAGOS\server\v18\Source\Source\_Common\couple.cpp

; 147  : 	for( VCOUPLE::iterator i = m_vCouples.begin(); i != m_vCouples.end(); ++i )

  0000a	74 1e		 je	 SHORT $LN3@Clear
  0000c	0f 1f 40 00	 npad	 4
$LL4@Clear:

; 148  : 		SAFE_DELETE( *i );

  00010	8b 0e		 mov	 ecx, DWORD PTR [esi]
  00012	85 c9		 test	 ecx, ecx
  00014	74 0c		 je	 SHORT $LN2@Clear
  00016	8b 01		 mov	 eax, DWORD PTR [ecx]
  00018	6a 01		 push	 1
  0001a	ff 10		 call	 DWORD PTR [eax]
  0001c	c7 06 00 00 00
	00		 mov	 DWORD PTR [esi], 0
$LN2@Clear:
; File C:\Program Files\Microsoft Visual Studio\2022\Professional\VC\Tools\MSVC\14.44.35207\include\vector

; 82   :         ++_Ptr;

  00022	83 c6 04	 add	 esi, 4

; 176  :         return !(*this == _Right);

  00025	3b 77 10	 cmp	 esi, DWORD PTR [edi+16]
; File C:\IAGOS\server\v18\Source\Source\_Common\couple.cpp

; 147  : 	for( VCOUPLE::iterator i = m_vCouples.begin(); i != m_vCouples.end(); ++i )

  00028	75 e6		 jne	 SHORT $LL4@Clear
$LN3@Clear:

; 149  : 	m_mapPlayers.clear();

  0002a	8d 4f 04	 lea	 ecx, DWORD PTR [edi+4]
  0002d	e8 00 00 00 00	 call	 ?clear@?$_Tree@V?$_Tmap_traits@KPAVCCouple@@U?$less@K@std@@V?$allocator@U?$pair@$$CBKPAVCCouple@@@std@@@3@$0A@@std@@@std@@QAEXXZ ; std::_Tree<std::_Tmap_traits<unsigned long,CCouple *,std::less<unsigned long>,std::allocator<std::pair<unsigned long const ,CCouple *> >,0> >::clear
; File C:\Program Files\Microsoft Visual Studio\2022\Professional\VC\Tools\MSVC\14.44.35207\include\vector

; 1812 :         if (_Myfirst == _Mylast) { // already empty, nothing to do

  00032	8b 47 0c	 mov	 eax, DWORD PTR [edi+12]
  00035	3b 47 10	 cmp	 eax, DWORD PTR [edi+16]
  00038	74 03		 je	 SHORT $LN39@Clear

; 1813 :             // This is an optimization for debug mode: we can avoid taking the debug lock to invalidate iterators.
; 1814 :             // Note that when clearing an empty vector, this will preserve past-the-end iterators, which is allowed by
; 1815 :             // N4950 [sequence.reqmts]/54 "a.clear() [...] may invalidate the past-the-end iterator".
; 1816 :             return;
; 1817 :         }
; 1818 : 
; 1819 :         _My_data._Orphan_all();
; 1820 :         _Destroy_range(_Myfirst, _Mylast, _Getal());
; 1821 :         _ASAN_VECTOR_MODIFY(static_cast<difference_type>(_Myfirst - _Mylast)); // negative when destroying elements
; 1822 :         _Mylast = _Myfirst;

  0003a	89 47 10	 mov	 DWORD PTR [edi+16], eax
$LN39@Clear:
  0003d	5f		 pop	 edi
; File C:\IAGOS\server\v18\Source\Source\_Common\couple.cpp

; 151  : }

  0003e	5e		 pop	 esi
  0003f	c3		 ret	 0
?Clear@CCoupleMgr@@AAEXXZ ENDP				; CCoupleMgr::Clear
_TEXT	ENDS
; Function compile flags: /Ogtp
; File C:\IAGOS\server\v18\Source\Source\_Common\couple.cpp
; File C:\Program Files\Microsoft Visual Studio\2022\Professional\VC\Tools\MSVC\14.44.35207\include\vector
; File C:\IAGOS\server\v18\Source\Source\_Common\couple.cpp
; File C:\Program Files\Microsoft Visual Studio\2022\Professional\VC\Tools\MSVC\14.44.35207\include\vector
; File C:\IAGOS\server\v18\Source\Source\_Common\couple.cpp
;	COMDAT ?OnTimer@CCoupleMgr@@QAEXXZ
_TEXT	SEGMENT
?OnTimer@CCoupleMgr@@QAEXXZ PROC			; CCoupleMgr::OnTimer, COMDAT
; _this$ = ecx

; 185  : {

  00000	56		 push	 esi
  00001	57		 push	 edi
  00002	8b f9		 mov	 edi, ecx
; File C:\Program Files\Microsoft Visual Studio\2022\Professional\VC\Tools\MSVC\14.44.35207\include\vector

; 46   :     _CONSTEXPR20 _Vector_const_iterator(_Tptr _Parg, const _Container_base* _Pvector) noexcept : _Ptr(_Parg) {

  00004	8b 77 0c	 mov	 esi, DWORD PTR [edi+12]

; 176  :         return !(*this == _Right);

  00007	3b 77 10	 cmp	 esi, DWORD PTR [edi+16]
; File C:\IAGOS\server\v18\Source\Source\_Common\couple.cpp

; 186  : 	for( VCOUPLE::iterator i2 = m_vCouples.begin(); i2 != m_vCouples.end(); ++i2 )

  0000a	74 13		 je	 SHORT $LN3@OnTimer
  0000c	0f 1f 40 00	 npad	 4
$LL4@OnTimer:

; 187  : 		(*i2)->OnTimer();

  00010	8b 0e		 mov	 ecx, DWORD PTR [esi]
  00012	e8 00 00 00 00	 call	 ?OnTimer@CCouple@@QAEXXZ ; CCouple::OnTimer
; File C:\Program Files\Microsoft Visual Studio\2022\Professional\VC\Tools\MSVC\14.44.35207\include\vector

; 82   :         ++_Ptr;

  00017	83 c6 04	 add	 esi, 4

; 176  :         return !(*this == _Right);

  0001a	3b 77 10	 cmp	 esi, DWORD PTR [edi+16]
; File C:\IAGOS\server\v18\Source\Source\_Common\couple.cpp

; 186  : 	for( VCOUPLE::iterator i2 = m_vCouples.begin(); i2 != m_vCouples.end(); ++i2 )

  0001d	75 f1		 jne	 SHORT $LL4@OnTimer
$LN3@OnTimer:
  0001f	5f		 pop	 edi

; 188  : }

  00020	5e		 pop	 esi
  00021	c3		 ret	 0
?OnTimer@CCoupleMgr@@QAEXXZ ENDP			; CCoupleMgr::OnTimer
_TEXT	ENDS
; Function compile flags: /Ogtp
; File C:\IAGOS\server\v18\Source\Source\_Common\couple.cpp
; File C:\IAGOS\server\v18\Source\Source\_Network\Misc\Include\Ar.h
; File C:\IAGOS\server\v18\Source\Source\_Common\couple.cpp
; File C:\IAGOS\server\v18\Source\Source\_Network\Misc\Include\Ar.h
; File C:\IAGOS\server\v18\Source\Source\_Common\couple.cpp
; File C:\Program Files\Microsoft Visual Studio\2022\Professional\VC\Tools\MSVC\14.44.35207\include\vector
; File C:\IAGOS\server\v18\Source\Source\_Common\couple.cpp
; File C:\Program Files\Microsoft Visual Studio\2022\Professional\VC\Tools\MSVC\14.44.35207\include\vector
; File C:\IAGOS\server\v18\Source\Source\_Common\couple.cpp
; File C:\Program Files\Microsoft Visual Studio\2022\Professional\VC\Tools\MSVC\14.44.35207\include\vector
; File C:\IAGOS\server\v18\Source\Source\_Common\couple.cpp
; File C:\Program Files\Microsoft Visual Studio\2022\Professional\VC\Tools\MSVC\14.44.35207\include\vector
; File C:\IAGOS\server\v18\Source\Source\_Common\couple.cpp
;	COMDAT ?Serialize@CCoupleMgr@@QAEXAAVCAr@@@Z
_TEXT	SEGMENT
$T1 = -4						; size = 4
_ar$ = 8						; size = 4
$T2 = 8							; size = 4
_nSize$3 = 8						; size = 4
_nSize$1$ = 8						; size = 4
?Serialize@CCoupleMgr@@QAEXAAVCAr@@@Z PROC		; CCoupleMgr::Serialize, COMDAT
; _this$ = ecx

; 191  : {

  00000	55		 push	 ebp
  00001	8b ec		 mov	 ebp, esp
  00003	51		 push	 ecx
  00004	53		 push	 ebx
; File C:\IAGOS\server\v18\Source\Source\_Network\Misc\Include\Ar.h

; 146  : 	return (m_nMode & CAr::load) == 0;

  00005	8b 5d 08	 mov	 ebx, DWORD PTR _ar$[ebp]
; File C:\IAGOS\server\v18\Source\Source\_Common\couple.cpp

; 191  : {

  00008	56		 push	 esi
  00009	57		 push	 edi
  0000a	8b f9		 mov	 edi, ecx
; File C:\IAGOS\server\v18\Source\Source\_Network\Misc\Include\Ar.h

; 146  : 	return (m_nMode & CAr::load) == 0;

  0000c	f6 03 01	 test	 BYTE PTR [ebx], 1
; File C:\IAGOS\server\v18\Source\Source\_Common\couple.cpp

; 192  : 	if( ar.IsStoring() )

  0000f	75 38		 jne	 SHORT $LN8@Serialize
; File C:\Program Files\Microsoft Visual Studio\2022\Professional\VC\Tools\MSVC\14.44.35207\include\vector

; 1915 :         return static_cast<size_type>(_My_data._Mylast - _My_data._Myfirst);

  00011	8b 47 10	 mov	 eax, DWORD PTR [edi+16]
; File C:\IAGOS\server\v18\Source\Source\_Common\couple.cpp

; 194  : 		ar << m_vCouples.size();

  00014	8b cb		 mov	 ecx, ebx
; File C:\Program Files\Microsoft Visual Studio\2022\Professional\VC\Tools\MSVC\14.44.35207\include\vector

; 1915 :         return static_cast<size_type>(_My_data._Mylast - _My_data._Myfirst);

  00016	2b 47 0c	 sub	 eax, DWORD PTR [edi+12]
  00019	c1 f8 02	 sar	 eax, 2
; File C:\IAGOS\server\v18\Source\Source\_Common\couple.cpp

; 194  : 		ar << m_vCouples.size();

  0001c	89 45 08	 mov	 DWORD PTR $T2[ebp], eax
  0001f	8d 45 08	 lea	 eax, DWORD PTR $T2[ebp]
  00022	50		 push	 eax
  00023	e8 00 00 00 00	 call	 ??$?6I@CAr@@QAEAAV0@ABI@Z ; CAr::operator<<<unsigned int>
; File C:\Program Files\Microsoft Visual Studio\2022\Professional\VC\Tools\MSVC\14.44.35207\include\vector

; 46   :     _CONSTEXPR20 _Vector_const_iterator(_Tptr _Parg, const _Container_base* _Pvector) noexcept : _Ptr(_Parg) {

  00028	8b 77 0c	 mov	 esi, DWORD PTR [edi+12]

; 176  :         return !(*this == _Right);

  0002b	3b 77 10	 cmp	 esi, DWORD PTR [edi+16]
; File C:\IAGOS\server\v18\Source\Source\_Common\couple.cpp

; 195  : 		for( VCOUPLE::iterator i = m_vCouples.begin(); i != m_vCouples.end(); ++i )

  0002e	74 67		 je	 SHORT $LN6@Serialize
$LL4@Serialize:

; 196  : 			(*i)->Serialize( ar );

  00030	8b 0e		 mov	 ecx, DWORD PTR [esi]
  00032	53		 push	 ebx
  00033	e8 00 00 00 00	 call	 ?Serialize@CCouple@@QAEXAAVCAr@@@Z ; CCouple::Serialize
; File C:\Program Files\Microsoft Visual Studio\2022\Professional\VC\Tools\MSVC\14.44.35207\include\vector

; 82   :         ++_Ptr;

  00038	83 c6 04	 add	 esi, 4

; 176  :         return !(*this == _Right);

  0003b	3b 77 10	 cmp	 esi, DWORD PTR [edi+16]
; File C:\IAGOS\server\v18\Source\Source\_Common\couple.cpp

; 195  : 		for( VCOUPLE::iterator i = m_vCouples.begin(); i != m_vCouples.end(); ++i )

  0003e	75 f0		 jne	 SHORT $LL4@Serialize

; 208  : 		}
; 209  : 	}	
; 210  : }

  00040	5f		 pop	 edi
  00041	5e		 pop	 esi
  00042	5b		 pop	 ebx
  00043	8b e5		 mov	 esp, ebp
  00045	5d		 pop	 ebp
  00046	c2 04 00	 ret	 4
$LN8@Serialize:

; 197  : 	}
; 198  : 	else
; 199  : 	{
; 200  : 		Clear();

  00049	e8 00 00 00 00	 call	 ?Clear@CCoupleMgr@@AAEXXZ ; CCoupleMgr::Clear

; 201  : 		size_t nSize;
; 202  : 		ar >> nSize;

  0004e	8d 45 08	 lea	 eax, DWORD PTR _nSize$3[ebp]
  00051	8b cb		 mov	 ecx, ebx
  00053	50		 push	 eax
  00054	e8 00 00 00 00	 call	 ??$?5I@CAr@@QAEAAV0@AAI@Z ; CAr::operator>><unsigned int>

; 203  : 		for( size_t i = 0; i < nSize; i++ )

  00059	8b 45 08	 mov	 eax, DWORD PTR _nSize$3[ebp]
  0005c	89 45 08	 mov	 DWORD PTR _nSize$1$[ebp], eax
  0005f	85 c0		 test	 eax, eax
  00061	74 34		 je	 SHORT $LN6@Serialize
$LL7@Serialize:

; 204  : 		{
; 205  : 			CCouple* pCouple	= new CCouple;

  00063	6a 14		 push	 20			; 00000014H
  00065	e8 00 00 00 00	 call	 ??2@YAPAXI@Z		; operator new
  0006a	83 c4 04	 add	 esp, 4
  0006d	89 45 fc	 mov	 DWORD PTR $T1[ebp], eax
  00070	85 c0		 test	 eax, eax
  00072	74 0b		 je	 SHORT $LN11@Serialize
  00074	8b c8		 mov	 ecx, eax
  00076	e8 00 00 00 00	 call	 ??0CCouple@@QAE@XZ	; CCouple::CCouple
  0007b	8b f0		 mov	 esi, eax
  0007d	eb 02		 jmp	 SHORT $LN12@Serialize
$LN11@Serialize:
  0007f	33 f6		 xor	 esi, esi
$LN12@Serialize:

; 206  : 			pCouple->Serialize( ar );

  00081	53		 push	 ebx
  00082	8b ce		 mov	 ecx, esi
  00084	e8 00 00 00 00	 call	 ?Serialize@CCouple@@QAEXAAVCAr@@@Z ; CCouple::Serialize

; 207  : 			Couple( pCouple );

  00089	56		 push	 esi
  0008a	8b cf		 mov	 ecx, edi
  0008c	e8 00 00 00 00	 call	 ?Couple@CCoupleMgr@@QAEXPAVCCouple@@@Z ; CCoupleMgr::Couple
  00091	83 6d 08 01	 sub	 DWORD PTR _nSize$1$[ebp], 1
  00095	75 cc		 jne	 SHORT $LL7@Serialize
$LN6@Serialize:
  00097	5f		 pop	 edi

; 208  : 		}
; 209  : 	}	
; 210  : }

  00098	5e		 pop	 esi
  00099	5b		 pop	 ebx
  0009a	8b e5		 mov	 esp, ebp
  0009c	5d		 pop	 ebp
  0009d	c2 04 00	 ret	 4
?Serialize@CCoupleMgr@@QAEXAAVCAr@@@Z ENDP		; CCoupleMgr::Serialize
_TEXT	ENDS
; Function compile flags: /Ogtp
; File C:\IAGOS\server\v18\Source\Source\_Common\couple.cpp
; File C:\Program Files\Microsoft Visual Studio\2022\Professional\VC\Tools\MSVC\14.44.35207\include\xtree
; File C:\IAGOS\server\v18\Source\Source\_Common\couple.cpp
; File C:\Program Files\Microsoft Visual Studio\2022\Professional\VC\Tools\MSVC\14.44.35207\include\xtree
; File C:\Program Files\Microsoft Visual Studio\2022\Professional\VC\Tools\MSVC\14.44.35207\include\type_traits
; File C:\Program Files\Microsoft Visual Studio\2022\Professional\VC\Tools\MSVC\14.44.35207\include\xtree
; File C:\IAGOS\server\v18\Source\Source\_Common\couple.cpp
;	COMDAT ?GetCouple@CCoupleMgr@@QAEPAVCCouple@@K@Z
_TEXT	SEGMENT
__Loc$1 = -12						; size = 12
_idPlayer$ = 8						; size = 4
?GetCouple@CCoupleMgr@@QAEPAVCCouple@@K@Z PROC		; CCoupleMgr::GetCouple, COMDAT
; _this$ = ecx

; 154  : {

  00000	55		 push	 ebp
  00001	8b ec		 mov	 ebp, esp
  00003	83 ec 0c	 sub	 esp, 12			; 0000000cH
  00006	56		 push	 esi
; File C:\Program Files\Microsoft Visual Studio\2022\Professional\VC\Tools\MSVC\14.44.35207\include\xtree

; 1384 :         const _Tree_find_result<_Nodeptr> _Loc = _Find_lower_bound(_Keyval);

  00007	8d 45 08	 lea	 eax, DWORD PTR _idPlayer$[ebp]
  0000a	50		 push	 eax
; File C:\IAGOS\server\v18\Source\Source\_Common\couple.cpp

; 155  : 	MPC::iterator i	= m_mapPlayers.find( idPlayer );

  0000b	8d 71 04	 lea	 esi, DWORD PTR [ecx+4]
; File C:\Program Files\Microsoft Visual Studio\2022\Professional\VC\Tools\MSVC\14.44.35207\include\xtree

; 1384 :         const _Tree_find_result<_Nodeptr> _Loc = _Find_lower_bound(_Keyval);

  0000e	8d 45 f4	 lea	 eax, DWORD PTR __Loc$1[ebp]
  00011	8b ce		 mov	 ecx, esi
  00013	50		 push	 eax
  00014	e8 00 00 00 00	 call	 ??$_Find_lower_bound@K@?$_Tree@V?$_Tmap_traits@KPAVCCouple@@U?$less@K@std@@V?$allocator@U?$pair@$$CBKPAVCCouple@@@std@@@3@$0A@@std@@@std@@IBE?AU?$_Tree_find_result@PAU?$_Tree_node@U?$pair@$$CBKPAVCCouple@@@std@@PAX@std@@@1@ABK@Z ; std::_Tree<std::_Tmap_traits<unsigned long,CCouple *,std::less<unsigned long>,std::allocator<std::pair<unsigned long const ,CCouple *> >,0> >::_Find_lower_bound<unsigned long>

; 1624 :         return !_Bound->_Isnil && !_DEBUG_LT_PRED(_Getcomp(), _Keyval, _Traits::_Kfn(_Bound->_Myval));

  00019	8b 45 fc	 mov	 eax, DWORD PTR __Loc$1[ebp+8]
  0001c	80 78 0d 00	 cmp	 BYTE PTR [eax+13], 0
  00020	75 16		 jne	 SHORT $LN2@GetCouple
; File C:\Program Files\Microsoft Visual Studio\2022\Professional\VC\Tools\MSVC\14.44.35207\include\type_traits

; 2380 :         return _Left < _Right;

  00022	8b 4d 08	 mov	 ecx, DWORD PTR _idPlayer$[ebp]
  00025	3b 48 10	 cmp	 ecx, DWORD PTR [eax+16]
; File C:\Program Files\Microsoft Visual Studio\2022\Professional\VC\Tools\MSVC\14.44.35207\include\xtree

; 1624 :         return !_Bound->_Isnil && !_DEBUG_LT_PRED(_Getcomp(), _Keyval, _Traits::_Kfn(_Bound->_Myval));

  00028	72 0e		 jb	 SHORT $LN2@GetCouple

; 37   :     _Tree_unchecked_const_iterator(_Nodeptr _Pnode, const _Mytree* _Plist) noexcept : _Ptr(_Pnode) {

  0002a	3b 06		 cmp	 eax, DWORD PTR [esi]
; File C:\IAGOS\server\v18\Source\Source\_Common\couple.cpp

; 156  : 	if( i != m_mapPlayers.end() )

  0002c	74 0a		 je	 SHORT $LN2@GetCouple

; 157  : 		return i->second;

  0002e	8b 40 14	 mov	 eax, DWORD PTR [eax+20]
  00031	5e		 pop	 esi

; 159  : }

  00032	8b e5		 mov	 esp, ebp
  00034	5d		 pop	 ebp
  00035	c2 04 00	 ret	 4
$LN2@GetCouple:

; 158  : 	return NULL;

  00038	33 c0		 xor	 eax, eax
  0003a	5e		 pop	 esi

; 159  : }

  0003b	8b e5		 mov	 esp, ebp
  0003d	5d		 pop	 ebp
  0003e	c2 04 00	 ret	 4
?GetCouple@CCoupleMgr@@QAEPAVCCouple@@K@Z ENDP		; CCoupleMgr::GetCouple
_TEXT	ENDS
; Function compile flags: /Ogtp
; File C:\IAGOS\server\v18\Source\Source\_Common\couple.cpp
; File C:\Program Files\Microsoft Visual Studio\2022\Professional\VC\Tools\MSVC\14.44.35207\include\vector
; File C:\IAGOS\server\v18\Source\Source\_Common\couple.cpp
; File C:\Program Files\Microsoft Visual Studio\2022\Professional\VC\Tools\MSVC\14.44.35207\include\vector
; File C:\IAGOS\server\v18\Source\Source\_Common\couple.cpp
; File C:\Program Files\Microsoft Visual Studio\2022\Professional\VC\Tools\MSVC\14.44.35207\include\vector
; File C:\IAGOS\server\v18\Source\Source\_Common\couple.cpp
; File C:\IAGOS\server\v18\Source\Source\_Common\couple.h
; File C:\Program Files\Microsoft Visual Studio\2022\Professional\VC\Tools\MSVC\14.44.35207\include\vector
; File C:\IAGOS\server\v18\Source\Source\_Common\couple.cpp
; File C:\Program Files\Microsoft Visual Studio\2022\Professional\VC\Tools\MSVC\14.44.35207\include\xutility
; File C:\IAGOS\server\v18\Source\Source\_Common\couple.cpp
; File C:\Program Files\Microsoft Visual Studio\2022\Professional\VC\Tools\MSVC\14.44.35207\include\xutility
; File C:\IAGOS\server\v18\Source\Source\_Common\couple.h
; File C:\Program Files\Microsoft Visual Studio\2022\Professional\VC\Tools\MSVC\14.44.35207\include\xutility
; File C:\Program Files\Microsoft Visual Studio\2022\Professional\VC\Tools\MSVC\14.44.35207\include\vector
; File C:\Program Files\Microsoft Visual Studio\2022\Professional\VC\Tools\MSVC\14.44.35207\include\xutility
; File C:\IAGOS\server\v18\Source\Source\_Common\couple.cpp
;	COMDAT ?Decouple@CCoupleMgr@@QAEHK@Z
_TEXT	SEGMENT
_this$1$ = -4						; size = 4
_idFirst$ = 8						; size = 4
$T1 = 8							; size = 4
?Decouple@CCoupleMgr@@QAEHK@Z PROC			; CCoupleMgr::Decouple, COMDAT
; _this$ = ecx

; 168  : {

  00000	55		 push	 ebp
  00001	8b ec		 mov	 ebp, esp
  00003	51		 push	 ecx
; File C:\Program Files\Microsoft Visual Studio\2022\Professional\VC\Tools\MSVC\14.44.35207\include\vector

; 46   :     _CONSTEXPR20 _Vector_const_iterator(_Tptr _Parg, const _Container_base* _Pvector) noexcept : _Ptr(_Parg) {

  00004	8b 51 10	 mov	 edx, DWORD PTR [ecx+16]
; File C:\IAGOS\server\v18\Source\Source\_Common\couple.cpp

; 168  : {

  00007	53		 push	 ebx
  00008	56		 push	 esi
; File C:\Program Files\Microsoft Visual Studio\2022\Professional\VC\Tools\MSVC\14.44.35207\include\vector

; 46   :     _CONSTEXPR20 _Vector_const_iterator(_Tptr _Parg, const _Container_base* _Pvector) noexcept : _Ptr(_Parg) {

  00009	8b 71 0c	 mov	 esi, DWORD PTR [ecx+12]
; File C:\IAGOS\server\v18\Source\Source\_Common\couple.cpp

; 168  : {

  0000c	89 4d fc	 mov	 DWORD PTR _this$1$[ebp], ecx
; File C:\Program Files\Microsoft Visual Studio\2022\Professional\VC\Tools\MSVC\14.44.35207\include\vector

; 176  :         return !(*this == _Right);

  0000f	3b f2		 cmp	 esi, edx
; File C:\IAGOS\server\v18\Source\Source\_Common\couple.cpp

; 169  : 	for( VCOUPLE::iterator i = m_vCouples.begin(); i != m_vCouples.end(); ++i )

  00011	74 16		 je	 SHORT $LN3@Decouple
  00013	8b 5d 08	 mov	 ebx, DWORD PTR _idFirst$[ebp]
$LL4@Decouple:

; 170  : 	{
; 171  : 		if( (*i)->HasPlayer( idFirst ) )

  00016	8b 06		 mov	 eax, DWORD PTR [esi]
; File C:\IAGOS\server\v18\Source\Source\_Common\couple.h

; 25   : 	BOOL	HasPlayer( u_long idPlayer )	{	return m_idFirst == idPlayer || m_idSecond == idPlayer;		}

  00018	39 58 0c	 cmp	 DWORD PTR [eax+12], ebx
  0001b	74 16		 je	 SHORT $LN42@Decouple
  0001d	39 58 10	 cmp	 DWORD PTR [eax+16], ebx
  00020	74 11		 je	 SHORT $LN42@Decouple
  00022	83 c6 04	 add	 esi, 4
; File C:\Program Files\Microsoft Visual Studio\2022\Professional\VC\Tools\MSVC\14.44.35207\include\vector

; 176  :         return !(*this == _Right);

  00025	3b f2		 cmp	 esi, edx
; File C:\IAGOS\server\v18\Source\Source\_Common\couple.cpp

; 169  : 	for( VCOUPLE::iterator i = m_vCouples.begin(); i != m_vCouples.end(); ++i )

  00027	75 ed		 jne	 SHORT $LL4@Decouple
$LN3@Decouple:
  00029	5e		 pop	 esi

; 179  : 		}
; 180  : 	}
; 181  : 	return FALSE;

  0002a	33 c0		 xor	 eax, eax

; 182  : }

  0002c	5b		 pop	 ebx
  0002d	8b e5		 mov	 esp, ebp
  0002f	5d		 pop	 ebp
  00030	c2 04 00	 ret	 4
$LN42@Decouple:
  00033	57		 push	 edi

; 172  : 		{
; 173  : 			m_mapPlayers.erase( idFirst );

  00034	8d 79 04	 lea	 edi, DWORD PTR [ecx+4]
  00037	8d 45 08	 lea	 eax, DWORD PTR _idFirst$[ebp]
  0003a	8b cf		 mov	 ecx, edi
  0003c	50		 push	 eax
  0003d	e8 00 00 00 00	 call	 ?erase@?$_Tree@V?$_Tmap_traits@KPAVCCouple@@U?$less@K@std@@V?$allocator@U?$pair@$$CBKPAVCCouple@@@std@@@3@$0A@@std@@@std@@QAEIABK@Z ; std::_Tree<std::_Tmap_traits<unsigned long,CCouple *,std::less<unsigned long>,std::allocator<std::pair<unsigned long const ,CCouple *> >,0> >::erase

; 174  : 			m_mapPlayers.erase( (*i)->GetPartner( idFirst ) );

  00042	8b 0e		 mov	 ecx, DWORD PTR [esi]
  00044	53		 push	 ebx
  00045	e8 00 00 00 00	 call	 ?GetPartner@CCouple@@QAEKK@Z ; CCouple::GetPartner
  0004a	89 45 08	 mov	 DWORD PTR $T1[ebp], eax
  0004d	8b cf		 mov	 ecx, edi
  0004f	8d 45 08	 lea	 eax, DWORD PTR $T1[ebp]
  00052	50		 push	 eax
  00053	e8 00 00 00 00	 call	 ?erase@?$_Tree@V?$_Tmap_traits@KPAVCCouple@@U?$less@K@std@@V?$allocator@U?$pair@$$CBKPAVCCouple@@@std@@@3@$0A@@std@@@std@@QAEIABK@Z ; std::_Tree<std::_Tmap_traits<unsigned long,CCouple *,std::less<unsigned long>,std::allocator<std::pair<unsigned long const ,CCouple *> >,0> >::erase
; File C:\Program Files\Microsoft Visual Studio\2022\Professional\VC\Tools\MSVC\14.44.35207\include\xutility

; 5147 :                 return _STD _Copy_memmove(_First, _Last, _Dest);

  00058	8b 5d fc	 mov	 ebx, DWORD PTR _this$1$[ebp]
; File C:\IAGOS\server\v18\Source\Source\_Common\couple.cpp

; 175  : 			CCouple* pCouple	= *i;

  0005b	8b 3e		 mov	 edi, DWORD PTR [esi]
; File C:\Program Files\Microsoft Visual Studio\2022\Professional\VC\Tools\MSVC\14.44.35207\include\xutility

; 5147 :                 return _STD _Copy_memmove(_First, _Last, _Dest);

  0005d	56		 push	 esi
; File C:\IAGOS\server\v18\Source\Source\_Common\couple.h

; 25   : 	BOOL	HasPlayer( u_long idPlayer )	{	return m_idFirst == idPlayer || m_idSecond == idPlayer;		}

  0005e	83 c6 04	 add	 esi, 4
; File C:\Program Files\Microsoft Visual Studio\2022\Professional\VC\Tools\MSVC\14.44.35207\include\xutility

; 5147 :                 return _STD _Copy_memmove(_First, _Last, _Dest);

  00061	ff 73 10	 push	 DWORD PTR [ebx+16]
  00064	56		 push	 esi
  00065	e8 00 00 00 00	 call	 ??$_Copy_memmove@PAPAVCCouple@@PAPAV1@@std@@YAPAPAVCCouple@@PAPAV1@00@Z ; std::_Copy_memmove<CCouple * *,CCouple * *>
; File C:\Program Files\Microsoft Visual Studio\2022\Professional\VC\Tools\MSVC\14.44.35207\include\vector

; 1778 :         --_Mylast;

  0006a	83 43 10 fc	 add	 DWORD PTR [ebx+16], -4	; fffffffcH
; File C:\Program Files\Microsoft Visual Studio\2022\Professional\VC\Tools\MSVC\14.44.35207\include\xutility

; 5147 :                 return _STD _Copy_memmove(_First, _Last, _Dest);

  0006e	83 c4 0c	 add	 esp, 12			; 0000000cH
; File C:\IAGOS\server\v18\Source\Source\_Common\couple.cpp

; 177  : 			SAFE_DELETE( pCouple );

  00071	85 ff		 test	 edi, edi
  00073	74 08		 je	 SHORT $LN8@Decouple
  00075	8b 07		 mov	 eax, DWORD PTR [edi]
  00077	8b cf		 mov	 ecx, edi
  00079	6a 01		 push	 1
  0007b	ff 10		 call	 DWORD PTR [eax]
$LN8@Decouple:

; 178  : 			return TRUE;

  0007d	5f		 pop	 edi
  0007e	5e		 pop	 esi
  0007f	b8 01 00 00 00	 mov	 eax, 1

; 182  : }

  00084	5b		 pop	 ebx
  00085	8b e5		 mov	 esp, ebp
  00087	5d		 pop	 ebp
  00088	c2 04 00	 ret	 4
?Decouple@CCoupleMgr@@QAEHK@Z ENDP			; CCoupleMgr::Decouple
_TEXT	ENDS
; Function compile flags: /Ogtp
; File C:\IAGOS\server\v18\Source\Source\_Common\couple.cpp
; File C:\Program Files\Microsoft Visual Studio\2022\Professional\VC\Tools\MSVC\14.44.35207\include\vector
; File C:\IAGOS\server\v18\Source\Source\_Common\couple.cpp
; File C:\Program Files\Microsoft Visual Studio\2022\Professional\VC\Tools\MSVC\14.44.35207\include\vector
; File C:\Program Files\Microsoft Visual Studio\2022\Professional\VC\Tools\MSVC\14.44.35207\include\utility
; File C:\IAGOS\server\v18\Source\Source\_Common\couple.cpp
; File C:\Program Files\Microsoft Visual Studio\2022\Professional\VC\Tools\MSVC\14.44.35207\include\utility
; File C:\IAGOS\server\v18\Source\Source\_Common\couple.cpp
; File C:\Program Files\Microsoft Visual Studio\2022\Professional\VC\Tools\MSVC\14.44.35207\include\utility
; File C:\IAGOS\server\v18\Source\Source\_Common\couple.cpp
; File C:\Program Files\Microsoft Visual Studio\2022\Professional\VC\Tools\MSVC\14.44.35207\include\utility
; File C:\IAGOS\server\v18\Source\Source\_Common\couple.cpp
; File C:\Program Files\Microsoft Visual Studio\2022\Professional\VC\Tools\MSVC\14.44.35207\include\utility
; File C:\IAGOS\server\v18\Source\Source\_Common\couple.cpp
; File C:\Program Files\Microsoft Visual Studio\2022\Professional\VC\Tools\MSVC\14.44.35207\include\utility
; File C:\IAGOS\server\v18\Source\Source\_Common\couple.cpp
;	COMDAT ?Couple@CCoupleMgr@@QAEXPAVCCouple@@@Z
_TEXT	SEGMENT
$T1 = -16						; size = 8
$T2 = -16						; size = 8
$T3 = -8						; size = 8
$T4 = -8						; size = 8
_pCouple$ = 8						; size = 4
?Couple@CCoupleMgr@@QAEXPAVCCouple@@@Z PROC		; CCoupleMgr::Couple, COMDAT
; _this$ = ecx

; 213  : {

  00000	55		 push	 ebp
  00001	8b ec		 mov	 ebp, esp
  00003	83 ec 10	 sub	 esp, 16			; 00000010H
  00006	56		 push	 esi
  00007	8b f1		 mov	 esi, ecx
; File C:\Program Files\Microsoft Visual Studio\2022\Professional\VC\Tools\MSVC\14.44.35207\include\vector

; 844  :         if (_Mylast != _My_data._Myend) {

  00009	8b 46 10	 mov	 eax, DWORD PTR [esi+16]
; File C:\IAGOS\server\v18\Source\Source\_Common\couple.cpp

; 214  : 	m_vCouples.push_back( pCouple );

  0000c	8d 4e 0c	 lea	 ecx, DWORD PTR [esi+12]
  0000f	57		 push	 edi
; File C:\Program Files\Microsoft Visual Studio\2022\Professional\VC\Tools\MSVC\14.44.35207\include\vector

; 844  :         if (_Mylast != _My_data._Myend) {

  00010	8b 7d 08	 mov	 edi, DWORD PTR _pCouple$[ebp]
  00013	3b 41 08	 cmp	 eax, DWORD PTR [ecx+8]
  00016	74 08		 je	 SHORT $LN6@Couple

; 860  :             _STD _Construct_in_place(*_Mylast, _STD forward<_Valty>(_Val)...);

  00018	89 38		 mov	 DWORD PTR [eax], edi

; 861  :         } else {
; 862  :             _ASAN_VECTOR_EXTEND_GUARD(static_cast<size_type>(_Mylast - _My_data._Myfirst) + 1);
; 863  :             _Alty_traits::construct(_Getal(), _Unfancy(_Mylast), _STD forward<_Valty>(_Val)...);
; 864  :             _ASAN_VECTOR_RELEASE_GUARD;
; 865  :         }
; 866  : 
; 867  :         _Orphan_range(_Mylast, _Mylast);
; 868  :         _Ty& _Result = *_Mylast;
; 869  :         ++_Mylast;

  0001a	83 41 04 04	 add	 DWORD PTR [ecx+4], 4

; 845  :             return _Emplace_back_with_unused_capacity(_STD forward<_Valty>(_Val)...);

  0001e	eb 0a		 jmp	 SHORT $LN5@Couple
$LN6@Couple:

; 846  :         }
; 847  : 
; 848  :         return *_Emplace_reallocate(_Mylast, _STD forward<_Valty>(_Val)...);

  00020	8d 55 08	 lea	 edx, DWORD PTR _pCouple$[ebp]
  00023	52		 push	 edx
  00024	50		 push	 eax
  00025	e8 00 00 00 00	 call	 ??$_Emplace_reallocate@ABQAVCCouple@@@?$vector@PAVCCouple@@V?$allocator@PAVCCouple@@@std@@@std@@AAEPAPAVCCouple@@QAPAV2@ABQAV2@@Z ; std::vector<CCouple *,std::allocator<CCouple *> >::_Emplace_reallocate<CCouple * const &>
$LN5@Couple:
; File C:\Program Files\Microsoft Visual Studio\2022\Professional\VC\Tools\MSVC\14.44.35207\include\utility

; 274  :         : first(_STD forward<_Other1>(_Val1)), second(_STD forward<_Other2>(_Val2)) {

  0002a	8b 47 0c	 mov	 eax, DWORD PTR [edi+12]
; File C:\IAGOS\server\v18\Source\Source\_Common\couple.cpp

; 215  : 	bool bResult	= m_mapPlayers.insert( MPC::value_type( pCouple->GetFirst(), pCouple ) ).second;

  0002d	8d 4e 04	 lea	 ecx, DWORD PTR [esi+4]
; File C:\Program Files\Microsoft Visual Studio\2022\Professional\VC\Tools\MSVC\14.44.35207\include\utility

; 274  :         : first(_STD forward<_Other1>(_Val1)), second(_STD forward<_Other2>(_Val2)) {

  00030	89 45 f8	 mov	 DWORD PTR $T3[ebp], eax
; File C:\IAGOS\server\v18\Source\Source\_Common\couple.cpp

; 215  : 	bool bResult	= m_mapPlayers.insert( MPC::value_type( pCouple->GetFirst(), pCouple ) ).second;

  00033	8d 45 f8	 lea	 eax, DWORD PTR $T3[ebp]
  00036	50		 push	 eax
  00037	8d 45 f0	 lea	 eax, DWORD PTR $T1[ebp]
; File C:\Program Files\Microsoft Visual Studio\2022\Professional\VC\Tools\MSVC\14.44.35207\include\utility

; 274  :         : first(_STD forward<_Other1>(_Val1)), second(_STD forward<_Other2>(_Val2)) {

  0003a	89 7d fc	 mov	 DWORD PTR $T3[ebp+4], edi
; File C:\IAGOS\server\v18\Source\Source\_Common\couple.cpp

; 215  : 	bool bResult	= m_mapPlayers.insert( MPC::value_type( pCouple->GetFirst(), pCouple ) ).second;

  0003d	50		 push	 eax
  0003e	e8 00 00 00 00	 call	 ??$insert@$0A@$0A@@?$_Tree@V?$_Tmap_traits@KPAVCCouple@@U?$less@K@std@@V?$allocator@U?$pair@$$CBKPAVCCouple@@@std@@@3@$0A@@std@@@std@@QAE?AU?$pair@V?$_Tree_iterator@V?$_Tree_val@U?$_Tree_simple_types@U?$pair@$$CBKPAVCCouple@@@std@@@std@@@std@@@std@@_N@1@$$QAU?$pair@$$CBKPAVCCouple@@@1@@Z ; std::_Tree<std::_Tmap_traits<unsigned long,CCouple *,std::less<unsigned long>,std::allocator<std::pair<unsigned long const ,CCouple *> >,0> >::insert<0,0>
; File C:\Program Files\Microsoft Visual Studio\2022\Professional\VC\Tools\MSVC\14.44.35207\include\utility

; 274  :         : first(_STD forward<_Other1>(_Val1)), second(_STD forward<_Other2>(_Val2)) {

  00043	8b 47 10	 mov	 eax, DWORD PTR [edi+16]
; File C:\IAGOS\server\v18\Source\Source\_Common\couple.cpp

; 217  : 	bResult	= m_mapPlayers.insert( MPC::value_type( pCouple->GetSecond(), pCouple ) ).second;

  00046	8d 4e 04	 lea	 ecx, DWORD PTR [esi+4]
; File C:\Program Files\Microsoft Visual Studio\2022\Professional\VC\Tools\MSVC\14.44.35207\include\utility

; 274  :         : first(_STD forward<_Other1>(_Val1)), second(_STD forward<_Other2>(_Val2)) {

  00049	89 45 f8	 mov	 DWORD PTR $T4[ebp], eax
; File C:\IAGOS\server\v18\Source\Source\_Common\couple.cpp

; 217  : 	bResult	= m_mapPlayers.insert( MPC::value_type( pCouple->GetSecond(), pCouple ) ).second;

  0004c	8d 45 f8	 lea	 eax, DWORD PTR $T4[ebp]
  0004f	50		 push	 eax
  00050	8d 45 f0	 lea	 eax, DWORD PTR $T2[ebp]
; File C:\Program Files\Microsoft Visual Studio\2022\Professional\VC\Tools\MSVC\14.44.35207\include\utility

; 274  :         : first(_STD forward<_Other1>(_Val1)), second(_STD forward<_Other2>(_Val2)) {

  00053	89 7d fc	 mov	 DWORD PTR $T4[ebp+4], edi
; File C:\IAGOS\server\v18\Source\Source\_Common\couple.cpp

; 217  : 	bResult	= m_mapPlayers.insert( MPC::value_type( pCouple->GetSecond(), pCouple ) ).second;

  00056	50		 push	 eax
  00057	e8 00 00 00 00	 call	 ??$insert@$0A@$0A@@?$_Tree@V?$_Tmap_traits@KPAVCCouple@@U?$less@K@std@@V?$allocator@U?$pair@$$CBKPAVCCouple@@@std@@@3@$0A@@std@@@std@@QAE?AU?$pair@V?$_Tree_iterator@V?$_Tree_val@U?$_Tree_simple_types@U?$pair@$$CBKPAVCCouple@@@std@@@std@@@std@@@std@@_N@1@$$QAU?$pair@$$CBKPAVCCouple@@@1@@Z ; std::_Tree<std::_Tmap_traits<unsigned long,CCouple *,std::less<unsigned long>,std::allocator<std::pair<unsigned long const ,CCouple *> >,0> >::insert<0,0>
  0005c	5f		 pop	 edi
  0005d	5e		 pop	 esi

; 218  : 	ASSERT( bResult );
; 219  : }

  0005e	8b e5		 mov	 esp, ebp
  00060	5d		 pop	 ebp
  00061	c2 04 00	 ret	 4
?Couple@CCoupleMgr@@QAEXPAVCCouple@@@Z ENDP		; CCoupleMgr::Couple
_TEXT	ENDS
; Function compile flags: /Ogtp
; File C:\IAGOS\server\v18\Source\Source\_Common\couple.cpp
;	COMDAT ?Couple@CCoupleMgr@@QAEXKK@Z
_TEXT	SEGMENT
$T1 = -4						; size = 4
_idFirst$ = 8						; size = 4
_idSecond$ = 12						; size = 4
?Couple@CCoupleMgr@@QAEXKK@Z PROC			; CCoupleMgr::Couple, COMDAT
; _this$ = ecx

; 162  : {

  00000	55		 push	 ebp
  00001	8b ec		 mov	 ebp, esp
  00003	51		 push	 ecx
  00004	56		 push	 esi

; 163  : 	CCouple* pCouple	= new CCouple( idFirst, idSecond );

  00005	6a 14		 push	 20			; 00000014H
  00007	8b f1		 mov	 esi, ecx
  00009	e8 00 00 00 00	 call	 ??2@YAPAXI@Z		; operator new
  0000e	83 c4 04	 add	 esp, 4
  00011	89 45 fc	 mov	 DWORD PTR $T1[ebp], eax
  00014	85 c0		 test	 eax, eax
  00016	74 1c		 je	 SHORT $LN3@Couple
  00018	ff 75 0c	 push	 DWORD PTR _idSecond$[ebp]
  0001b	8b c8		 mov	 ecx, eax
  0001d	ff 75 08	 push	 DWORD PTR _idFirst$[ebp]
  00020	e8 00 00 00 00	 call	 ??0CCouple@@QAE@KK@Z	; CCouple::CCouple

; 164  : 	Couple( pCouple );

  00025	50		 push	 eax
  00026	8b ce		 mov	 ecx, esi
  00028	e8 00 00 00 00	 call	 ?Couple@CCoupleMgr@@QAEXPAVCCouple@@@Z ; CCoupleMgr::Couple
  0002d	5e		 pop	 esi

; 165  : }

  0002e	8b e5		 mov	 esp, ebp
  00030	5d		 pop	 ebp
  00031	c2 08 00	 ret	 8
$LN3@Couple:

; 163  : 	CCouple* pCouple	= new CCouple( idFirst, idSecond );

  00034	33 c0		 xor	 eax, eax

; 164  : 	Couple( pCouple );

  00036	8b ce		 mov	 ecx, esi
  00038	50		 push	 eax
  00039	e8 00 00 00 00	 call	 ?Couple@CCoupleMgr@@QAEXPAVCCouple@@@Z ; CCoupleMgr::Couple
  0003e	5e		 pop	 esi

; 165  : }

  0003f	8b e5		 mov	 esp, ebp
  00041	5d		 pop	 ebp
  00042	c2 08 00	 ret	 8
?Couple@CCoupleMgr@@QAEXKK@Z ENDP			; CCoupleMgr::Couple
_TEXT	ENDS
; Function compile flags: /Ogtp
; File C:\IAGOS\server\v18\Source\Source\_Common\couple.cpp
;	COMDAT ??1CCoupleMgr@@UAE@XZ
_TEXT	SEGMENT
??1CCoupleMgr@@UAE@XZ PROC				; CCoupleMgr::~CCoupleMgr, COMDAT
; _this$ = ecx

; 141  : {

  00000	56		 push	 esi
  00001	8b f1		 mov	 esi, ecx
  00003	c7 06 00 00 00
	00		 mov	 DWORD PTR [esi], OFFSET ??_7CCoupleMgr@@6B@

; 142  : 	Clear();

  00009	e8 00 00 00 00	 call	 ?Clear@CCoupleMgr@@AAEXXZ ; CCoupleMgr::Clear

; 143  : }

  0000e	8d 4e 0c	 lea	 ecx, DWORD PTR [esi+12]
  00011	e8 00 00 00 00	 call	 ??1?$vector@PAVCCouple@@V?$allocator@PAVCCouple@@@std@@@std@@QAE@XZ ; std::vector<CCouple *,std::allocator<CCouple *> >::~vector<CCouple *,std::allocator<CCouple *> >
  00016	8d 4e 04	 lea	 ecx, DWORD PTR [esi+4]
  00019	5e		 pop	 esi
  0001a	e9 00 00 00 00	 jmp	 ??1?$_Tree@V?$_Tmap_traits@KPAVCCouple@@U?$less@K@std@@V?$allocator@U?$pair@$$CBKPAVCCouple@@@std@@@3@$0A@@std@@@std@@QAE@XZ ; std::_Tree<std::_Tmap_traits<unsigned long,CCouple *,std::less<unsigned long>,std::allocator<std::pair<unsigned long const ,CCouple *> >,0> >::~_Tree<std::_Tmap_traits<unsigned long,CCouple *,std::less<unsigned long>,std::allocator<std::pair<unsigned long const ,CCouple *> >,0> >
??1CCoupleMgr@@UAE@XZ ENDP				; CCoupleMgr::~CCoupleMgr
_TEXT	ENDS
; Function compile flags: /Ogtp
; File C:\IAGOS\server\v18\Source\Source\_Common\couple.cpp
; File C:\Program Files\Microsoft Visual Studio\2022\Professional\VC\Tools\MSVC\14.44.35207\include\xmemory
; File C:\IAGOS\server\v18\Source\Source\_Common\couple.cpp
; File C:\Program Files\Microsoft Visual Studio\2022\Professional\VC\Tools\MSVC\14.44.35207\include\xtree
; File C:\Program Files\Microsoft Visual Studio\2022\Professional\VC\Tools\MSVC\14.44.35207\include\xmemory
; File C:\Program Files\Microsoft Visual Studio\2022\Professional\VC\Tools\MSVC\14.44.35207\include\xtree
; File C:\IAGOS\server\v18\Source\Source\_Common\couple.cpp
; File C:\Program Files\Microsoft Visual Studio\2022\Professional\VC\Tools\MSVC\14.44.35207\include\vector
; File C:\IAGOS\server\v18\Source\Source\_Common\couple.cpp
;	COMDAT ??0CCoupleMgr@@QAE@XZ
_TEXT	SEGMENT
_this$ = -4						; size = 4
_this$ = -4						; size = 4
??0CCoupleMgr@@QAE@XZ PROC				; CCoupleMgr::CCoupleMgr, COMDAT
; _this$ = ecx

; 137  : {

  00000	55		 push	 ebp
  00001	8b ec		 mov	 ebp, esp
  00003	51		 push	 ecx
  00004	56		 push	 esi
  00005	57		 push	 edi
  00006	8b f9		 mov	 edi, ecx
  00008	8d 77 04	 lea	 esi, DWORD PTR [edi+4]
  0000b	89 7d fc	 mov	 DWORD PTR _this$[ebp], edi
; File C:\Program Files\Microsoft Visual Studio\2022\Professional\VC\Tools\MSVC\14.44.35207\include\xmemory

; 136  :         return ::operator new(_Bytes);

  0000e	6a 18		 push	 24			; 00000018H
; File C:\IAGOS\server\v18\Source\Source\_Common\couple.cpp

; 137  : {

  00010	89 75 fc	 mov	 DWORD PTR _this$[ebp], esi
  00013	c7 07 00 00 00
	00		 mov	 DWORD PTR [edi], OFFSET ??_7CCoupleMgr@@6B@
; File C:\Program Files\Microsoft Visual Studio\2022\Professional\VC\Tools\MSVC\14.44.35207\include\xtree

; 450  :     _Tree_val() noexcept : _Myhead(), _Mysize(0) {}

  00019	c7 06 00 00 00
	00		 mov	 DWORD PTR [esi], 0
  0001f	c7 46 04 00 00
	00 00		 mov	 DWORD PTR [esi+4], 0
; File C:\Program Files\Microsoft Visual Studio\2022\Professional\VC\Tools\MSVC\14.44.35207\include\xmemory

; 136  :         return ::operator new(_Bytes);

  00026	e8 00 00 00 00	 call	 ??2@YAPAXI@Z		; operator new
  0002b	83 c4 04	 add	 esp, 4
; File C:\Program Files\Microsoft Visual Studio\2022\Professional\VC\Tools\MSVC\14.44.35207\include\xtree

; 346  :         _Construct_in_place(_Pnode->_Left, _Pnode);

  0002e	89 00		 mov	 DWORD PTR [eax], eax

; 347  :         _Construct_in_place(_Pnode->_Parent, _Pnode);

  00030	89 40 04	 mov	 DWORD PTR [eax+4], eax

; 348  :         _Construct_in_place(_Pnode->_Right, _Pnode);

  00033	89 40 08	 mov	 DWORD PTR [eax+8], eax

; 349  :         _Pnode->_Color = _Black;

  00036	66 c7 40 0c 01
	01		 mov	 WORD PTR [eax+12], 257	; 00000101H

; 1957 :         _Scary->_Myhead = _Node::_Buyheadnode(_Getal());

  0003c	89 06		 mov	 DWORD PTR [esi], eax
; File C:\IAGOS\server\v18\Source\Source\_Common\couple.cpp

; 138  : }

  0003e	8b c7		 mov	 eax, edi
; File C:\Program Files\Microsoft Visual Studio\2022\Professional\VC\Tools\MSVC\14.44.35207\include\vector

; 400  :     _CONSTEXPR20 _Vector_val() noexcept : _Myfirst(), _Mylast(), _Myend() {}

  00040	c7 47 0c 00 00
	00 00		 mov	 DWORD PTR [edi+12], 0
  00047	c7 47 10 00 00
	00 00		 mov	 DWORD PTR [edi+16], 0
  0004e	c7 47 14 00 00
	00 00		 mov	 DWORD PTR [edi+20], 0
; File C:\IAGOS\server\v18\Source\Source\_Common\couple.cpp

; 138  : }

  00055	5f		 pop	 edi
  00056	5e		 pop	 esi
  00057	8b e5		 mov	 esp, ebp
  00059	5d		 pop	 ebp
  0005a	c3		 ret	 0
??0CCoupleMgr@@QAE@XZ ENDP				; CCoupleMgr::CCoupleMgr
_TEXT	ENDS
; Function compile flags: /Ogtp
;	COMDAT ??_GCCoupleProperty@@UAEPAXI@Z
_TEXT	SEGMENT
___flags$ = 8						; size = 4
??_GCCoupleProperty@@UAEPAXI@Z PROC			; CCoupleProperty::`scalar deleting destructor', COMDAT
; _this$ = ecx
  00000	55		 push	 ebp
  00001	8b ec		 mov	 ebp, esp
  00003	56		 push	 esi
  00004	8b f1		 mov	 esi, ecx
  00006	e8 00 00 00 00	 call	 ??1CCoupleProperty@@UAE@XZ ; CCoupleProperty::~CCoupleProperty
  0000b	f6 45 08 01	 test	 BYTE PTR ___flags$[ebp], 1
  0000f	74 0b		 je	 SHORT $LN5@scalar
  00011	6a 34		 push	 52			; 00000034H
  00013	56		 push	 esi
  00014	e8 00 00 00 00	 call	 ??3@YAXPAXI@Z		; operator delete
  00019	83 c4 08	 add	 esp, 8
$LN5@scalar:
  0001c	8b c6		 mov	 eax, esi
  0001e	5e		 pop	 esi
  0001f	5d		 pop	 ebp
  00020	c2 04 00	 ret	 4
??_GCCoupleProperty@@UAEPAXI@Z ENDP			; CCoupleProperty::`scalar deleting destructor'
_TEXT	ENDS
; Function compile flags: /Ogtp
; File C:\Program Files\Microsoft Visual Studio\2022\Professional\VC\Tools\MSVC\14.44.35207\include\vector
;	COMDAT ?_Xlength@?$vector@V?$vector@HV?$allocator@H@std@@@std@@V?$allocator@V?$vector@HV?$allocator@H@std@@@std@@@2@@std@@CAXXZ
_TEXT	SEGMENT
?_Xlength@?$vector@V?$vector@HV?$allocator@H@std@@@std@@V?$allocator@V?$vector@HV?$allocator@H@std@@@std@@@2@@std@@CAXXZ PROC ; std::vector<std::vector<int,std::allocator<int> >,std::allocator<std::vector<int,std::allocator<int> > > >::_Xlength, COMDAT

; 2184 :         _Xlength_error("vector too long");

  00000	68 00 00 00 00	 push	 OFFSET ??_C@_0BA@FOIKENOD@vector?5too?5long@
  00005	e8 00 00 00 00	 call	 ?_Xlength_error@std@@YAXPBD@Z ; std::_Xlength_error
$LN3@Xlength:
  0000a	cc		 int	 3
?_Xlength@?$vector@V?$vector@HV?$allocator@H@std@@@std@@V?$allocator@V?$vector@HV?$allocator@H@std@@@std@@@2@@std@@CAXXZ ENDP ; std::vector<std::vector<int,std::allocator<int> >,std::allocator<std::vector<int,std::allocator<int> > > >::_Xlength
_TEXT	ENDS
; Function compile flags: /Ogtp
; File C:\Program Files\Microsoft Visual Studio\2022\Professional\VC\Tools\MSVC\14.44.35207\include\vector
; File C:\Program Files\Microsoft Visual Studio\2022\Professional\VC\Tools\MSVC\14.44.35207\include\xmemory
; File C:\Program Files\Microsoft Visual Studio\2022\Professional\VC\Tools\MSVC\14.44.35207\include\vector
; File C:\Program Files\Microsoft Visual Studio\2022\Professional\VC\Tools\MSVC\14.44.35207\include\xmemory
; File C:\Program Files\Microsoft Visual Studio\2022\Professional\VC\Tools\MSVC\14.44.35207\include\vector
; File C:\Program Files\Microsoft Visual Studio\2022\Professional\VC\Tools\MSVC\14.44.35207\include\xmemory
; File C:\Program Files\Microsoft Visual Studio\2022\Professional\VC\Tools\MSVC\14.44.35207\include\vector
; File C:\Program Files\Microsoft Visual Studio\2022\Professional\VC\Tools\MSVC\14.44.35207\include\xmemory
; File C:\Program Files\Microsoft Visual Studio\2022\Professional\VC\Tools\MSVC\14.44.35207\include\vector
; File C:\Program Files\Microsoft Visual Studio\2022\Professional\VC\Tools\MSVC\14.44.35207\include\xmemory
; File C:\Program Files\Microsoft Visual Studio\2022\Professional\VC\Tools\MSVC\14.44.35207\include\vector
;	COMDAT ??1?$vector@V?$vector@HV?$allocator@H@std@@@std@@V?$allocator@V?$vector@HV?$allocator@H@std@@@std@@@2@@std@@QAE@XZ
_TEXT	SEGMENT
??1?$vector@V?$vector@HV?$allocator@H@std@@@std@@V?$allocator@V?$vector@HV?$allocator@H@std@@@std@@@2@@std@@QAE@XZ PROC ; std::vector<std::vector<int,std::allocator<int> >,std::allocator<std::vector<int,std::allocator<int> > > >::~vector<std::vector<int,std::allocator<int> >,std::allocator<std::vector<int,std::allocator<int> > > >, COMDAT
; _this$ = ecx

; 829  :     _CONSTEXPR20 ~vector() noexcept {

  00000	56		 push	 esi
  00001	57		 push	 edi
  00002	8b f9		 mov	 edi, ecx

; 2090 :         if (_Myfirst) { // destroy and deallocate old array

  00004	8b 37		 mov	 esi, DWORD PTR [edi]
  00006	85 f6		 test	 esi, esi
  00008	74 6c		 je	 SHORT $LN5@vector
  0000a	53		 push	 ebx

; 2091 :             _STD _Destroy_range(_Myfirst, _Mylast, _Al);

  0000b	8b 5f 04	 mov	 ebx, DWORD PTR [edi+4]
; File C:\Program Files\Microsoft Visual Studio\2022\Professional\VC\Tools\MSVC\14.44.35207\include\xmemory

; 1102 :         for (; _First != _Last; ++_First) {

  0000e	3b f3		 cmp	 esi, ebx
  00010	74 0e		 je	 SHORT $LN10@vector
$LL11@vector:
  00012	8b ce		 mov	 ecx, esi
  00014	e8 00 00 00 00	 call	 ??1?$vector@HV?$allocator@H@std@@@std@@QAE@XZ ; std::vector<int,std::allocator<int> >::~vector<int,std::allocator<int> >
  00019	83 c6 0c	 add	 esi, 12			; 0000000cH
  0001c	3b f3		 cmp	 esi, ebx
  0001e	75 f2		 jne	 SHORT $LL11@vector
$LN10@vector:
; File C:\Program Files\Microsoft Visual Studio\2022\Professional\VC\Tools\MSVC\14.44.35207\include\vector

; 2093 :             _Al.deallocate(_Myfirst, static_cast<size_type>(_Myend - _Myfirst));

  00020	8b 4f 08	 mov	 ecx, DWORD PTR [edi+8]
  00023	b8 ab aa aa 2a	 mov	 eax, 715827883		; 2aaaaaabH
  00028	8b 37		 mov	 esi, DWORD PTR [edi]
  0002a	2b ce		 sub	 ecx, esi
  0002c	f7 e9		 imul	 ecx
; File C:\Program Files\Microsoft Visual Studio\2022\Professional\VC\Tools\MSVC\14.44.35207\include\xmemory

; 985  :         _STD _Deallocate<_New_alignof<_Ty>>(_Ptr, sizeof(_Ty) * _Count);

  0002e	5b		 pop	 ebx
; File C:\Program Files\Microsoft Visual Studio\2022\Professional\VC\Tools\MSVC\14.44.35207\include\vector

; 2093 :             _Al.deallocate(_Myfirst, static_cast<size_type>(_Myend - _Myfirst));

  0002f	d1 fa		 sar	 edx, 1
  00031	8b c2		 mov	 eax, edx
  00033	c1 e8 1f	 shr	 eax, 31			; 0000001fH
  00036	03 c2		 add	 eax, edx
; File C:\Program Files\Microsoft Visual Studio\2022\Professional\VC\Tools\MSVC\14.44.35207\include\xmemory

; 985  :         _STD _Deallocate<_New_alignof<_Ty>>(_Ptr, sizeof(_Ty) * _Count);

  00038	8d 0c 40	 lea	 ecx, DWORD PTR [eax+eax*2]
  0003b	c1 e1 02	 shl	 ecx, 2

; 284  :         if (_Bytes >= _Big_allocation_threshold) {

  0003e	81 f9 00 10 00
	00		 cmp	 ecx, 4096		; 00001000H
  00044	72 12		 jb	 SHORT $LN30@vector

; 205  :     const uintptr_t _Ptr_container   = _Ptr_user[-1];

  00046	8b 56 fc	 mov	 edx, DWORD PTR [esi-4]
  00049	83 c1 23	 add	 ecx, 35			; 00000023H

; 206  : 
; 207  :     // If the following asserts, it likely means that we are performing
; 208  :     // an aligned delete on memory coming from an unaligned allocation.
; 209  :     _STL_ASSERT(_Ptr_user[-2] == _Big_allocation_sentinel, "invalid argument");
; 210  : 
; 211  :     // Extra paranoia on aligned allocation/deallocation; ensure _Ptr_container is
; 212  :     // in range [_Min_back_shift, _Non_user_size]
; 213  : #ifdef _DEBUG
; 214  :     constexpr uintptr_t _Min_back_shift = 2 * sizeof(void*);
; 215  : #else // ^^^ defined(_DEBUG) / !defined(_DEBUG) vvv
; 216  :     constexpr uintptr_t _Min_back_shift = sizeof(void*);
; 217  : #endif // ^^^ !defined(_DEBUG) ^^^
; 218  :     const uintptr_t _Back_shift = reinterpret_cast<uintptr_t>(_Ptr) - _Ptr_container;

  0004c	2b f2		 sub	 esi, edx

; 219  :     _STL_VERIFY(_Back_shift >= _Min_back_shift && _Back_shift <= _Non_user_size, "invalid argument");

  0004e	8d 46 fc	 lea	 eax, DWORD PTR [esi-4]
  00051	83 f8 1f	 cmp	 eax, 31			; 0000001fH
  00054	77 23		 ja	 SHORT $LN29@vector

; 220  :     _Ptr = reinterpret_cast<void*>(_Ptr_container);

  00056	8b f2		 mov	 esi, edx
$LN30@vector:

; 289  :         ::operator delete(_Ptr, _Bytes);

  00058	51		 push	 ecx
  00059	56		 push	 esi
  0005a	e8 00 00 00 00	 call	 ??3@YAXPAXI@Z		; operator delete
; File C:\Program Files\Microsoft Visual Studio\2022\Professional\VC\Tools\MSVC\14.44.35207\include\vector

; 2095 :             _Myfirst = nullptr;

  0005f	c7 07 00 00 00
	00		 mov	 DWORD PTR [edi], 0
; File C:\Program Files\Microsoft Visual Studio\2022\Professional\VC\Tools\MSVC\14.44.35207\include\xmemory

; 289  :         ::operator delete(_Ptr, _Bytes);

  00065	83 c4 08	 add	 esp, 8
; File C:\Program Files\Microsoft Visual Studio\2022\Professional\VC\Tools\MSVC\14.44.35207\include\vector

; 2096 :             _Mylast  = nullptr;

  00068	c7 47 04 00 00
	00 00		 mov	 DWORD PTR [edi+4], 0

; 2097 :             _Myend   = nullptr;

  0006f	c7 47 08 00 00
	00 00		 mov	 DWORD PTR [edi+8], 0
$LN5@vector:
  00076	5f		 pop	 edi

; 835  :     }

  00077	5e		 pop	 esi
  00078	c3		 ret	 0
$LN29@vector:
; File C:\Program Files\Microsoft Visual Studio\2022\Professional\VC\Tools\MSVC\14.44.35207\include\xmemory

; 219  :     _STL_VERIFY(_Back_shift >= _Min_back_shift && _Back_shift <= _Non_user_size, "invalid argument");

  00079	6a 00		 push	 0
  0007b	6a 00		 push	 0
  0007d	6a 00		 push	 0
  0007f	6a 00		 push	 0
  00081	6a 00		 push	 0
  00083	e8 00 00 00 00	 call	 __invoke_watson
$LN43@vector:
  00088	cc		 int	 3
??1?$vector@V?$vector@HV?$allocator@H@std@@@std@@V?$allocator@V?$vector@HV?$allocator@H@std@@@std@@@2@@std@@QAE@XZ ENDP ; std::vector<std::vector<int,std::allocator<int> >,std::allocator<std::vector<int,std::allocator<int> > > >::~vector<std::vector<int,std::allocator<int> >,std::allocator<std::vector<int,std::allocator<int> > > >
_TEXT	ENDS
; Function compile flags: /Ogtp
; File C:\Program Files\Microsoft Visual Studio\2022\Professional\VC\Tools\MSVC\14.44.35207\include\vector
;	COMDAT ?_Xlength@?$vector@V?$vector@U_COUPLE_ITEM@@V?$allocator@U_COUPLE_ITEM@@@std@@@std@@V?$allocator@V?$vector@U_COUPLE_ITEM@@V?$allocator@U_COUPLE_ITEM@@@std@@@std@@@2@@std@@CAXXZ
_TEXT	SEGMENT
?_Xlength@?$vector@V?$vector@U_COUPLE_ITEM@@V?$allocator@U_COUPLE_ITEM@@@std@@@std@@V?$allocator@V?$vector@U_COUPLE_ITEM@@V?$allocator@U_COUPLE_ITEM@@@std@@@std@@@2@@std@@CAXXZ PROC ; std::vector<std::vector<_COUPLE_ITEM,std::allocator<_COUPLE_ITEM> >,std::allocator<std::vector<_COUPLE_ITEM,std::allocator<_COUPLE_ITEM> > > >::_Xlength, COMDAT

; 2184 :         _Xlength_error("vector too long");

  00000	68 00 00 00 00	 push	 OFFSET ??_C@_0BA@FOIKENOD@vector?5too?5long@
  00005	e8 00 00 00 00	 call	 ?_Xlength_error@std@@YAXPBD@Z ; std::_Xlength_error
$LN3@Xlength:
  0000a	cc		 int	 3
?_Xlength@?$vector@V?$vector@U_COUPLE_ITEM@@V?$allocator@U_COUPLE_ITEM@@@std@@@std@@V?$allocator@V?$vector@U_COUPLE_ITEM@@V?$allocator@U_COUPLE_ITEM@@@std@@@std@@@2@@std@@CAXXZ ENDP ; std::vector<std::vector<_COUPLE_ITEM,std::allocator<_COUPLE_ITEM> >,std::allocator<std::vector<_COUPLE_ITEM,std::allocator<_COUPLE_ITEM> > > >::_Xlength
_TEXT	ENDS
; Function compile flags: /Ogtp
; File C:\Program Files\Microsoft Visual Studio\2022\Professional\VC\Tools\MSVC\14.44.35207\include\vector
; File C:\Program Files\Microsoft Visual Studio\2022\Professional\VC\Tools\MSVC\14.44.35207\include\xmemory
; File C:\Program Files\Microsoft Visual Studio\2022\Professional\VC\Tools\MSVC\14.44.35207\include\vector
; File C:\Program Files\Microsoft Visual Studio\2022\Professional\VC\Tools\MSVC\14.44.35207\include\xmemory
; File C:\Program Files\Microsoft Visual Studio\2022\Professional\VC\Tools\MSVC\14.44.35207\include\vector
;	COMDAT ??1?$vector@V?$vector@U_COUPLE_ITEM@@V?$allocator@U_COUPLE_ITEM@@@std@@@std@@V?$allocator@V?$vector@U_COUPLE_ITEM@@V?$allocator@U_COUPLE_ITEM@@@std@@@std@@@2@@std@@QAE@XZ
_TEXT	SEGMENT
??1?$vector@V?$vector@U_COUPLE_ITEM@@V?$allocator@U_COUPLE_ITEM@@@std@@@std@@V?$allocator@V?$vector@U_COUPLE_ITEM@@V?$allocator@U_COUPLE_ITEM@@@std@@@std@@@2@@std@@QAE@XZ PROC ; std::vector<std::vector<_COUPLE_ITEM,std::allocator<_COUPLE_ITEM> >,std::allocator<std::vector<_COUPLE_ITEM,std::allocator<_COUPLE_ITEM> > > >::~vector<std::vector<_COUPLE_ITEM,std::allocator<_COUPLE_ITEM> >,std::allocator<std::vector<_COUPLE_ITEM,std::allocator<_COUPLE_ITEM> > > >, COMDAT
; _this$ = ecx

; 829  :     _CONSTEXPR20 ~vector() noexcept {

  00000	56		 push	 esi
  00001	8b f1		 mov	 esi, ecx

; 2090 :         if (_Myfirst) { // destroy and deallocate old array

  00003	8b 06		 mov	 eax, DWORD PTR [esi]
  00005	85 c0		 test	 eax, eax
  00007	74 64		 je	 SHORT $LN5@vector
  00009	57		 push	 edi

; 2091 :             _STD _Destroy_range(_Myfirst, _Mylast, _Al);

  0000a	56		 push	 esi
  0000b	ff 76 04	 push	 DWORD PTR [esi+4]
  0000e	50		 push	 eax
  0000f	e8 00 00 00 00	 call	 ??$_Destroy_range@V?$allocator@V?$vector@U_COUPLE_ITEM@@V?$allocator@U_COUPLE_ITEM@@@std@@@std@@@std@@@std@@YAXPAV?$vector@U_COUPLE_ITEM@@V?$allocator@U_COUPLE_ITEM@@@std@@@0@QAV10@AAV?$allocator@V?$vector@U_COUPLE_ITEM@@V?$allocator@U_COUPLE_ITEM@@@std@@@std@@@0@@Z ; std::_Destroy_range<std::allocator<std::vector<_COUPLE_ITEM,std::allocator<_COUPLE_ITEM> > > >

; 2092 :             _ASAN_VECTOR_REMOVE;
; 2093 :             _Al.deallocate(_Myfirst, static_cast<size_type>(_Myend - _Myfirst));

  00014	8b 4e 08	 mov	 ecx, DWORD PTR [esi+8]
  00017	b8 ab aa aa 2a	 mov	 eax, 715827883		; 2aaaaaabH
  0001c	8b 3e		 mov	 edi, DWORD PTR [esi]
  0001e	83 c4 0c	 add	 esp, 12			; 0000000cH
  00021	2b cf		 sub	 ecx, edi
  00023	f7 e9		 imul	 ecx
  00025	d1 fa		 sar	 edx, 1
  00027	8b c2		 mov	 eax, edx
  00029	c1 e8 1f	 shr	 eax, 31			; 0000001fH
  0002c	03 c2		 add	 eax, edx
; File C:\Program Files\Microsoft Visual Studio\2022\Professional\VC\Tools\MSVC\14.44.35207\include\xmemory

; 985  :         _STD _Deallocate<_New_alignof<_Ty>>(_Ptr, sizeof(_Ty) * _Count);

  0002e	8d 0c 40	 lea	 ecx, DWORD PTR [eax+eax*2]
  00031	c1 e1 02	 shl	 ecx, 2

; 284  :         if (_Bytes >= _Big_allocation_threshold) {

  00034	81 f9 00 10 00
	00		 cmp	 ecx, 4096		; 00001000H
  0003a	72 12		 jb	 SHORT $LN18@vector

; 205  :     const uintptr_t _Ptr_container   = _Ptr_user[-1];

  0003c	8b 57 fc	 mov	 edx, DWORD PTR [edi-4]
  0003f	83 c1 23	 add	 ecx, 35			; 00000023H

; 206  : 
; 207  :     // If the following asserts, it likely means that we are performing
; 208  :     // an aligned delete on memory coming from an unaligned allocation.
; 209  :     _STL_ASSERT(_Ptr_user[-2] == _Big_allocation_sentinel, "invalid argument");
; 210  : 
; 211  :     // Extra paranoia on aligned allocation/deallocation; ensure _Ptr_container is
; 212  :     // in range [_Min_back_shift, _Non_user_size]
; 213  : #ifdef _DEBUG
; 214  :     constexpr uintptr_t _Min_back_shift = 2 * sizeof(void*);
; 215  : #else // ^^^ defined(_DEBUG) / !defined(_DEBUG) vvv
; 216  :     constexpr uintptr_t _Min_back_shift = sizeof(void*);
; 217  : #endif // ^^^ !defined(_DEBUG) ^^^
; 218  :     const uintptr_t _Back_shift = reinterpret_cast<uintptr_t>(_Ptr) - _Ptr_container;

  00042	2b fa		 sub	 edi, edx

; 219  :     _STL_VERIFY(_Back_shift >= _Min_back_shift && _Back_shift <= _Non_user_size, "invalid argument");

  00044	8d 47 fc	 lea	 eax, DWORD PTR [edi-4]
  00047	83 f8 1f	 cmp	 eax, 31			; 0000001fH
  0004a	77 23		 ja	 SHORT $LN17@vector

; 220  :     _Ptr = reinterpret_cast<void*>(_Ptr_container);

  0004c	8b fa		 mov	 edi, edx
$LN18@vector:

; 289  :         ::operator delete(_Ptr, _Bytes);

  0004e	51		 push	 ecx
  0004f	57		 push	 edi
  00050	e8 00 00 00 00	 call	 ??3@YAXPAXI@Z		; operator delete
  00055	83 c4 08	 add	 esp, 8
; File C:\Program Files\Microsoft Visual Studio\2022\Professional\VC\Tools\MSVC\14.44.35207\include\vector

; 2095 :             _Myfirst = nullptr;

  00058	c7 06 00 00 00
	00		 mov	 DWORD PTR [esi], 0

; 2096 :             _Mylast  = nullptr;

  0005e	c7 46 04 00 00
	00 00		 mov	 DWORD PTR [esi+4], 0

; 2097 :             _Myend   = nullptr;

  00065	c7 46 08 00 00
	00 00		 mov	 DWORD PTR [esi+8], 0
  0006c	5f		 pop	 edi
$LN5@vector:
  0006d	5e		 pop	 esi

; 835  :     }

  0006e	c3		 ret	 0
$LN17@vector:
; File C:\Program Files\Microsoft Visual Studio\2022\Professional\VC\Tools\MSVC\14.44.35207\include\xmemory

; 219  :     _STL_VERIFY(_Back_shift >= _Min_back_shift && _Back_shift <= _Non_user_size, "invalid argument");

  0006f	6a 00		 push	 0
  00071	6a 00		 push	 0
  00073	6a 00		 push	 0
  00075	6a 00		 push	 0
  00077	6a 00		 push	 0
  00079	e8 00 00 00 00	 call	 __invoke_watson
$LN26@vector:
  0007e	cc		 int	 3
??1?$vector@V?$vector@U_COUPLE_ITEM@@V?$allocator@U_COUPLE_ITEM@@@std@@@std@@V?$allocator@V?$vector@U_COUPLE_ITEM@@V?$allocator@U_COUPLE_ITEM@@@std@@@std@@@2@@std@@QAE@XZ ENDP ; std::vector<std::vector<_COUPLE_ITEM,std::allocator<_COUPLE_ITEM> >,std::allocator<std::vector<_COUPLE_ITEM,std::allocator<_COUPLE_ITEM> > > >::~vector<std::vector<_COUPLE_ITEM,std::allocator<_COUPLE_ITEM> >,std::allocator<std::vector<_COUPLE_ITEM,std::allocator<_COUPLE_ITEM> > > >
_TEXT	ENDS
; Function compile flags: /Ogtp
; File C:\Program Files\Microsoft Visual Studio\2022\Professional\VC\Tools\MSVC\14.44.35207\include\vector
;	COMDAT ?_Xlength@?$vector@HV?$allocator@H@std@@@std@@CAXXZ
_TEXT	SEGMENT
?_Xlength@?$vector@HV?$allocator@H@std@@@std@@CAXXZ PROC ; std::vector<int,std::allocator<int> >::_Xlength, COMDAT

; 2184 :         _Xlength_error("vector too long");

  00000	68 00 00 00 00	 push	 OFFSET ??_C@_0BA@FOIKENOD@vector?5too?5long@
  00005	e8 00 00 00 00	 call	 ?_Xlength_error@std@@YAXPBD@Z ; std::_Xlength_error
$LN3@Xlength:
  0000a	cc		 int	 3
?_Xlength@?$vector@HV?$allocator@H@std@@@std@@CAXXZ ENDP ; std::vector<int,std::allocator<int> >::_Xlength
_TEXT	ENDS
; Function compile flags: /Ogtp
; File C:\Program Files\Microsoft Visual Studio\2022\Professional\VC\Tools\MSVC\14.44.35207\include\vector
; File C:\Program Files\Microsoft Visual Studio\2022\Professional\VC\Tools\MSVC\14.44.35207\include\xmemory
; File C:\Program Files\Microsoft Visual Studio\2022\Professional\VC\Tools\MSVC\14.44.35207\include\vector
; File C:\Program Files\Microsoft Visual Studio\2022\Professional\VC\Tools\MSVC\14.44.35207\include\xmemory
; File C:\Program Files\Microsoft Visual Studio\2022\Professional\VC\Tools\MSVC\14.44.35207\include\vector
; File C:\Program Files\Microsoft Visual Studio\2022\Professional\VC\Tools\MSVC\14.44.35207\include\xmemory
; File C:\Program Files\Microsoft Visual Studio\2022\Professional\VC\Tools\MSVC\14.44.35207\include\vector
;	COMDAT ??1?$vector@HV?$allocator@H@std@@@std@@QAE@XZ
_TEXT	SEGMENT
??1?$vector@HV?$allocator@H@std@@@std@@QAE@XZ PROC	; std::vector<int,std::allocator<int> >::~vector<int,std::allocator<int> >, COMDAT
; _this$ = ecx

; 829  :     _CONSTEXPR20 ~vector() noexcept {

  00000	56		 push	 esi
  00001	8b f1		 mov	 esi, ecx

; 2090 :         if (_Myfirst) { // destroy and deallocate old array

  00003	8b 06		 mov	 eax, DWORD PTR [esi]
  00005	85 c0		 test	 eax, eax
  00007	74 40		 je	 SHORT $LN5@vector

; 2091 :             _STD _Destroy_range(_Myfirst, _Mylast, _Al);
; 2092 :             _ASAN_VECTOR_REMOVE;
; 2093 :             _Al.deallocate(_Myfirst, static_cast<size_type>(_Myend - _Myfirst));

  00009	8b 4e 08	 mov	 ecx, DWORD PTR [esi+8]
  0000c	2b c8		 sub	 ecx, eax
; File C:\Program Files\Microsoft Visual Studio\2022\Professional\VC\Tools\MSVC\14.44.35207\include\xmemory

; 985  :         _STD _Deallocate<_New_alignof<_Ty>>(_Ptr, sizeof(_Ty) * _Count);

  0000e	83 e1 fc	 and	 ecx, -4			; fffffffcH

; 284  :         if (_Bytes >= _Big_allocation_threshold) {

  00011	81 f9 00 10 00
	00		 cmp	 ecx, 4096		; 00001000H
  00017	72 12		 jb	 SHORT $LN18@vector

; 205  :     const uintptr_t _Ptr_container   = _Ptr_user[-1];

  00019	8b 50 fc	 mov	 edx, DWORD PTR [eax-4]
  0001c	83 c1 23	 add	 ecx, 35			; 00000023H

; 206  : 
; 207  :     // If the following asserts, it likely means that we are performing
; 208  :     // an aligned delete on memory coming from an unaligned allocation.
; 209  :     _STL_ASSERT(_Ptr_user[-2] == _Big_allocation_sentinel, "invalid argument");
; 210  : 
; 211  :     // Extra paranoia on aligned allocation/deallocation; ensure _Ptr_container is
; 212  :     // in range [_Min_back_shift, _Non_user_size]
; 213  : #ifdef _DEBUG
; 214  :     constexpr uintptr_t _Min_back_shift = 2 * sizeof(void*);
; 215  : #else // ^^^ defined(_DEBUG) / !defined(_DEBUG) vvv
; 216  :     constexpr uintptr_t _Min_back_shift = sizeof(void*);
; 217  : #endif // ^^^ !defined(_DEBUG) ^^^
; 218  :     const uintptr_t _Back_shift = reinterpret_cast<uintptr_t>(_Ptr) - _Ptr_container;

  0001f	2b c2		 sub	 eax, edx

; 219  :     _STL_VERIFY(_Back_shift >= _Min_back_shift && _Back_shift <= _Non_user_size, "invalid argument");

  00021	83 c0 fc	 add	 eax, -4			; fffffffcH
  00024	83 f8 1f	 cmp	 eax, 31			; 0000001fH
  00027	77 22		 ja	 SHORT $LN17@vector

; 220  :     _Ptr = reinterpret_cast<void*>(_Ptr_container);

  00029	8b c2		 mov	 eax, edx
$LN18@vector:

; 289  :         ::operator delete(_Ptr, _Bytes);

  0002b	51		 push	 ecx
  0002c	50		 push	 eax
  0002d	e8 00 00 00 00	 call	 ??3@YAXPAXI@Z		; operator delete
; File C:\Program Files\Microsoft Visual Studio\2022\Professional\VC\Tools\MSVC\14.44.35207\include\vector

; 2095 :             _Myfirst = nullptr;

  00032	c7 06 00 00 00
	00		 mov	 DWORD PTR [esi], 0
; File C:\Program Files\Microsoft Visual Studio\2022\Professional\VC\Tools\MSVC\14.44.35207\include\xmemory

; 289  :         ::operator delete(_Ptr, _Bytes);

  00038	83 c4 08	 add	 esp, 8
; File C:\Program Files\Microsoft Visual Studio\2022\Professional\VC\Tools\MSVC\14.44.35207\include\vector

; 2096 :             _Mylast  = nullptr;

  0003b	c7 46 04 00 00
	00 00		 mov	 DWORD PTR [esi+4], 0

; 2097 :             _Myend   = nullptr;

  00042	c7 46 08 00 00
	00 00		 mov	 DWORD PTR [esi+8], 0
$LN5@vector:
  00049	5e		 pop	 esi

; 835  :     }

  0004a	c3		 ret	 0
$LN17@vector:
; File C:\Program Files\Microsoft Visual Studio\2022\Professional\VC\Tools\MSVC\14.44.35207\include\xmemory

; 219  :     _STL_VERIFY(_Back_shift >= _Min_back_shift && _Back_shift <= _Non_user_size, "invalid argument");

  0004b	6a 00		 push	 0
  0004d	6a 00		 push	 0
  0004f	6a 00		 push	 0
  00051	6a 00		 push	 0
  00053	6a 00		 push	 0
  00055	e8 00 00 00 00	 call	 __invoke_watson
$LN26@vector:
  0005a	cc		 int	 3
??1?$vector@HV?$allocator@H@std@@@std@@QAE@XZ ENDP	; std::vector<int,std::allocator<int> >::~vector<int,std::allocator<int> >
_TEXT	ENDS
; Function compile flags: /Ogtp
; File C:\Program Files\Microsoft Visual Studio\2022\Professional\VC\Tools\MSVC\14.44.35207\include\xmemory
;	COMDAT ?deallocate@?$allocator@H@std@@QAEXQAHI@Z
_TEXT	SEGMENT
__Ptr$ = 8						; size = 4
__Count$ = 12						; size = 4
?deallocate@?$allocator@H@std@@QAEXQAHI@Z PROC		; std::allocator<int>::deallocate, COMDAT
; _this$ = ecx

; 982  :     _CONSTEXPR20 void deallocate(_Ty* const _Ptr, const size_t _Count) noexcept /* strengthened */ {

  00000	55		 push	 ebp
  00001	8b ec		 mov	 ebp, esp

; 983  :         _STL_ASSERT(_Ptr != nullptr || _Count == 0, "null pointer cannot point to a block of non-zero size");
; 984  :         // no overflow check on the following multiply; we assume _Allocate did that check
; 985  :         _STD _Deallocate<_New_alignof<_Ty>>(_Ptr, sizeof(_Ty) * _Count);

  00003	8b 45 0c	 mov	 eax, DWORD PTR __Count$[ebp]
  00006	8d 0c 85 00 00
	00 00		 lea	 ecx, DWORD PTR [eax*4]
  0000d	8b 45 08	 mov	 eax, DWORD PTR __Ptr$[ebp]

; 284  :         if (_Bytes >= _Big_allocation_threshold) {

  00010	81 f9 00 10 00
	00		 cmp	 ecx, 4096		; 00001000H
  00016	72 12		 jb	 SHORT $LN11@deallocate

; 205  :     const uintptr_t _Ptr_container   = _Ptr_user[-1];

  00018	8b 50 fc	 mov	 edx, DWORD PTR [eax-4]
  0001b	83 c1 23	 add	 ecx, 35			; 00000023H

; 206  : 
; 207  :     // If the following asserts, it likely means that we are performing
; 208  :     // an aligned delete on memory coming from an unaligned allocation.
; 209  :     _STL_ASSERT(_Ptr_user[-2] == _Big_allocation_sentinel, "invalid argument");
; 210  : 
; 211  :     // Extra paranoia on aligned allocation/deallocation; ensure _Ptr_container is
; 212  :     // in range [_Min_back_shift, _Non_user_size]
; 213  : #ifdef _DEBUG
; 214  :     constexpr uintptr_t _Min_back_shift = 2 * sizeof(void*);
; 215  : #else // ^^^ defined(_DEBUG) / !defined(_DEBUG) vvv
; 216  :     constexpr uintptr_t _Min_back_shift = sizeof(void*);
; 217  : #endif // ^^^ !defined(_DEBUG) ^^^
; 218  :     const uintptr_t _Back_shift = reinterpret_cast<uintptr_t>(_Ptr) - _Ptr_container;

  0001e	2b c2		 sub	 eax, edx

; 219  :     _STL_VERIFY(_Back_shift >= _Min_back_shift && _Back_shift <= _Non_user_size, "invalid argument");

  00020	83 c0 fc	 add	 eax, -4			; fffffffcH
  00023	83 f8 1f	 cmp	 eax, 31			; 0000001fH
  00026	77 10		 ja	 SHORT $LN10@deallocate

; 220  :     _Ptr = reinterpret_cast<void*>(_Ptr_container);

  00028	8b c2		 mov	 eax, edx
$LN11@deallocate:

; 289  :         ::operator delete(_Ptr, _Bytes);

  0002a	51		 push	 ecx
  0002b	50		 push	 eax
  0002c	e8 00 00 00 00	 call	 ??3@YAXPAXI@Z		; operator delete
  00031	83 c4 08	 add	 esp, 8

; 986  :     }

  00034	5d		 pop	 ebp
  00035	c2 08 00	 ret	 8
$LN10@deallocate:

; 219  :     _STL_VERIFY(_Back_shift >= _Min_back_shift && _Back_shift <= _Non_user_size, "invalid argument");

  00038	6a 00		 push	 0
  0003a	6a 00		 push	 0
  0003c	6a 00		 push	 0
  0003e	6a 00		 push	 0
  00040	6a 00		 push	 0
  00042	e8 00 00 00 00	 call	 __invoke_watson
$LN14@deallocate:
  00047	cc		 int	 3
?deallocate@?$allocator@H@std@@QAEXQAHI@Z ENDP		; std::allocator<int>::deallocate
_TEXT	ENDS
; Function compile flags: /Ogtp
; File C:\IAGOS\server\v18\Source\Source\_Common\couple.cpp
; File C:\Program Files\Microsoft Visual Studio\2022\Professional\VC\Tools\MSVC\14.44.35207\include\vector
; File C:\Program Files\Microsoft Visual Studio\2022\Professional\VC\Tools\MSVC\14.44.35207\include\xutility
; File C:\Program Files\Microsoft Visual Studio\2022\Professional\VC\Tools\MSVC\14.44.35207\include\vector
; File C:\IAGOS\server\v18\Source\Source\_Common\couple.cpp
; File C:\Program Files\Microsoft Visual Studio\2022\Professional\VC\Tools\MSVC\14.44.35207\include\vector
; File C:\IAGOS\server\v18\Source\Source\_Common\couple.cpp
; File C:\Program Files\Microsoft Visual Studio\2022\Professional\VC\Tools\MSVC\14.44.35207\include\vector
; File C:\IAGOS\server\v18\Source\Source\_Common\couple.cpp
;	COMDAT ?AddItem@CCoupleProperty@@AAEXHABU_COUPLE_ITEM@@@Z
_TEXT	SEGMENT
_nLevel$ = 8						; size = 4
_ci$ = 12						; size = 4
?AddItem@CCoupleProperty@@AAEXHABU_COUPLE_ITEM@@@Z PROC	; CCoupleProperty::AddItem, COMDAT
; _this$ = ecx

; 301  : {

  00000	55		 push	 ebp
  00001	8b ec		 mov	 ebp, esp

; 302  : 	VCI& vci	= GetItems( nLevel );

  00003	ff 75 08	 push	 DWORD PTR _nLevel$[ebp]
  00006	e8 00 00 00 00	 call	 ?GetItems@CCoupleProperty@@QAEAAV?$vector@U_COUPLE_ITEM@@V?$allocator@U_COUPLE_ITEM@@@std@@@std@@H@Z ; CCoupleProperty::GetItems
  0000b	8b c8		 mov	 ecx, eax
; File C:\Program Files\Microsoft Visual Studio\2022\Professional\VC\Tools\MSVC\14.44.35207\include\vector

; 844  :         if (_Mylast != _My_data._Myend) {

  0000d	8b 51 04	 mov	 edx, DWORD PTR [ecx+4]
  00010	3b 51 08	 cmp	 edx, DWORD PTR [ecx+8]
  00013	74 17		 je	 SHORT $LN6@AddItem
; File C:\Program Files\Microsoft Visual Studio\2022\Professional\VC\Tools\MSVC\14.44.35207\include\xutility

; 476  :         ::new (static_cast<void*>(_STD addressof(_Obj))) _Ty(_STD forward<_Types>(_Args)...);

  00015	8b 45 0c	 mov	 eax, DWORD PTR _ci$[ebp]
  00018	0f 10 00	 movups	 xmm0, XMMWORD PTR [eax]
  0001b	0f 11 02	 movups	 XMMWORD PTR [edx], xmm0
  0001e	8b 40 10	 mov	 eax, DWORD PTR [eax+16]
  00021	89 42 10	 mov	 DWORD PTR [edx+16], eax
; File C:\Program Files\Microsoft Visual Studio\2022\Professional\VC\Tools\MSVC\14.44.35207\include\vector

; 869  :         ++_Mylast;

  00024	83 41 04 14	 add	 DWORD PTR [ecx+4], 20	; 00000014H
; File C:\IAGOS\server\v18\Source\Source\_Common\couple.cpp

; 304  : }

  00028	5d		 pop	 ebp
  00029	c2 08 00	 ret	 8
$LN6@AddItem:
; File C:\Program Files\Microsoft Visual Studio\2022\Professional\VC\Tools\MSVC\14.44.35207\include\vector

; 848  :         return *_Emplace_reallocate(_Mylast, _STD forward<_Valty>(_Val)...);

  0002c	89 55 08	 mov	 DWORD PTR _nLevel$[ebp], edx
; File C:\IAGOS\server\v18\Source\Source\_Common\couple.cpp

; 304  : }

  0002f	5d		 pop	 ebp
; File C:\Program Files\Microsoft Visual Studio\2022\Professional\VC\Tools\MSVC\14.44.35207\include\vector

; 848  :         return *_Emplace_reallocate(_Mylast, _STD forward<_Valty>(_Val)...);

  00030	e9 00 00 00 00	 jmp	 ??$_Emplace_reallocate@ABU_COUPLE_ITEM@@@?$vector@U_COUPLE_ITEM@@V?$allocator@U_COUPLE_ITEM@@@std@@@std@@AAEPAU_COUPLE_ITEM@@QAU2@ABU2@@Z ; std::vector<_COUPLE_ITEM,std::allocator<_COUPLE_ITEM> >::_Emplace_reallocate<_COUPLE_ITEM const &>
?AddItem@CCoupleProperty@@AAEXHABU_COUPLE_ITEM@@@Z ENDP	; CCoupleProperty::AddItem
_TEXT	ENDS
; Function compile flags: /Ogtp
; File C:\IAGOS\server\v18\Source\Source\_Common\couple.cpp
; File C:\Program Files\Microsoft Visual Studio\2022\Professional\VC\Tools\MSVC\14.44.35207\include\vector
; File C:\IAGOS\server\v18\Source\Source\_Common\couple.cpp
; File C:\Program Files\Microsoft Visual Studio\2022\Professional\VC\Tools\MSVC\14.44.35207\include\vector
; File C:\IAGOS\server\v18\Source\Source\_Common\couple.cpp
; File C:\Program Files\Microsoft Visual Studio\2022\Professional\VC\Tools\MSVC\14.44.35207\include\vector
; File C:\IAGOS\server\v18\Source\Source\_Common\couple.cpp
; File C:\Program Files\Microsoft Visual Studio\2022\Professional\VC\Tools\MSVC\14.44.35207\include\vector
; File C:\IAGOS\server\v18\Source\Source\_Common\couple.cpp
; File C:\Program Files\Microsoft Visual Studio\2022\Professional\VC\Tools\MSVC\14.44.35207\include\vector
; File C:\IAGOS\server\v18\Source\Source\_Common\couple.cpp
; File C:\Program Files\Microsoft Visual Studio\2022\Professional\VC\Tools\MSVC\14.44.35207\include\vector
; File C:\IAGOS\server\v18\Source\Source\_Common\couple.cpp
; File C:\Program Files\Microsoft Visual Studio\2022\Professional\VC\Tools\MSVC\14.44.35207\include\vector
; File C:\IAGOS\server\v18\Source\Source\_Common\couple.cpp
; File C:\Program Files\Microsoft Visual Studio\2022\Professional\VC\Tools\MSVC\14.44.35207\include\vector
; File C:\Program Files\Microsoft Visual Studio\2022\Professional\VC\Tools\MSVC\14.44.35207\include\xutility
; File C:\Program Files\Microsoft Visual Studio\2022\Professional\VC\Tools\MSVC\14.44.35207\include\vector
; File C:\Program Files\Microsoft Visual Studio\2022\Professional\VC\Tools\MSVC\14.44.35207\include\xutility
; File C:\Program Files\Microsoft Visual Studio\2022\Professional\VC\Tools\MSVC\14.44.35207\include\vector
; File C:\Program Files\Microsoft Visual Studio\2022\Professional\VC\Tools\MSVC\14.44.35207\include\xmemory
; File C:\Program Files\Microsoft Visual Studio\2022\Professional\VC\Tools\MSVC\14.44.35207\include\vector
; File C:\Program Files\Microsoft Visual Studio\2022\Professional\VC\Tools\MSVC\14.44.35207\include\xmemory
; File C:\Program Files\Microsoft Visual Studio\2022\Professional\VC\Tools\MSVC\14.44.35207\include\vector
; File C:\Program Files\Microsoft Visual Studio\2022\Professional\VC\Tools\MSVC\14.44.35207\include\xmemory
; File C:\Program Files\Microsoft Visual Studio\2022\Professional\VC\Tools\MSVC\14.44.35207\include\vector
; File C:\Program Files\Microsoft Visual Studio\2022\Professional\VC\Tools\MSVC\14.44.35207\include\xmemory
; File C:\Program Files\Microsoft Visual Studio\2022\Professional\VC\Tools\MSVC\14.44.35207\include\vector
; File C:\Program Files\Microsoft Visual Studio\2022\Professional\VC\Tools\MSVC\14.44.35207\include\xmemory
; File C:\Program Files\Microsoft Visual Studio\2022\Professional\VC\Tools\MSVC\14.44.35207\include\vector
; File C:\Program Files\Microsoft Visual Studio\2022\Professional\VC\Tools\MSVC\14.44.35207\include\xutility
; File C:\Program Files\Microsoft Visual Studio\2022\Professional\VC\Tools\MSVC\14.44.35207\include\vector
; File C:\IAGOS\server\v18\Source\Source\_Common\couple.cpp
; File C:\Program Files\Microsoft Visual Studio\2022\Professional\VC\Tools\MSVC\14.44.35207\include\vector
; File C:\IAGOS\server\v18\Source\Source\_Common\couple.cpp
; File C:\Program Files\Microsoft Visual Studio\2022\Professional\VC\Tools\MSVC\14.44.35207\include\vector
; File C:\IAGOS\server\v18\Source\Source\_Common\couple.cpp
; File C:\Program Files\Microsoft Visual Studio\2022\Professional\VC\Tools\MSVC\14.44.35207\include\vector
; File C:\IAGOS\server\v18\Source\Source\_Common\couple.cpp
; File C:\Program Files\Microsoft Visual Studio\2022\Professional\VC\Tools\MSVC\14.44.35207\include\vector
; File C:\Program Files\Microsoft Visual Studio\2022\Professional\VC\Tools\MSVC\14.44.35207\include\xmemory
; File C:\IAGOS\server\v18\Source\Source\_Common\couple.cpp
;	COMDAT ?LoadSkillLevel@CCoupleProperty@@AAEXAAVCScript@@@Z
_TEXT	SEGMENT
tv1069 = -20						; size = 4
tv1045 = -16						; size = 4
tv1060 = -16						; size = 4
_i$1$ = -12						; size = 4
__First$2$ = -8						; size = 4
__Oldsize$1$ = -4					; size = 4
__Dest$1$ = -4						; size = 4
_s$ = 8							; size = 4
_nSkill$1 = 8						; size = 4
tv1052 = 8						; size = 4
$T2 = 8							; size = 4
__Count$1$ = 8						; size = 4
?LoadSkillLevel@CCoupleProperty@@AAEXAAVCScript@@@Z PROC ; CCoupleProperty::LoadSkillLevel, COMDAT
; _this$ = ecx

; 318  : {

  00000	55		 push	 ebp
  00001	8b ec		 mov	 ebp, esp
  00003	83 ec 14	 sub	 esp, 20			; 00000014H
  00006	53		 push	 ebx

; 319  : 	ASSERT( m_vSkillKinds.size() > 0 );
; 320  : 	ASSERT( m_vSkills.size() > 0 );
; 321  : 	s.GetToken();	// {

  00007	8b 5d 08	 mov	 ebx, DWORD PTR _s$[ebp]
  0000a	56		 push	 esi
  0000b	57		 push	 edi
  0000c	8b f9		 mov	 edi, ecx
  0000e	8b cb		 mov	 ecx, ebx
  00010	8b 03		 mov	 eax, DWORD PTR [ebx]
  00012	6a 00		 push	 0
  00014	ff 50 14	 call	 DWORD PTR [eax+20]

; 322  : 	int nLevel	= s.GetNumber();

  00017	6a 00		 push	 0
  00019	8b cb		 mov	 ecx, ebx
  0001b	e8 00 00 00 00	 call	 ?GetNumber@CScanner@@QAEHH@Z ; CScanner::GetNumber

; 323  : 	while( *s.token != '}' )

  00020	8b 4b 3c	 mov	 ecx, DWORD PTR [ebx+60]
  00023	8b d0		 mov	 edx, eax
  00025	80 39 7d	 cmp	 BYTE PTR [ecx], 125	; 0000007dH
  00028	0f 84 88 00 00
	00		 je	 $LN3@LoadSkillL
  0002e	66 90		 npad	 2
$LL2@LoadSkillL:
; File C:\Program Files\Microsoft Visual Studio\2022\Professional\VC\Tools\MSVC\14.44.35207\include\vector

; 1915 :         return static_cast<size_type>(_My_data._Mylast - _My_data._Myfirst);

  00030	8b 47 20	 mov	 eax, DWORD PTR [edi+32]
; File C:\IAGOS\server\v18\Source\Source\_Common\couple.cpp

; 325  : 		for( int i = 0; i < (int)( m_vSkillKinds.size() ); i++ )

  00033	33 f6		 xor	 esi, esi
; File C:\Program Files\Microsoft Visual Studio\2022\Professional\VC\Tools\MSVC\14.44.35207\include\vector

; 1915 :         return static_cast<size_type>(_My_data._Mylast - _My_data._Myfirst);

  00035	2b 47 1c	 sub	 eax, DWORD PTR [edi+28]
; File C:\IAGOS\server\v18\Source\Source\_Common\couple.cpp

; 325  : 		for( int i = 0; i < (int)( m_vSkillKinds.size() ); i++ )

  00038	a9 fc ff ff ff	 test	 eax, -4			; fffffffcH
  0003d	7e 60		 jle	 SHORT $LN5@LoadSkillL
  0003f	8d 04 52	 lea	 eax, DWORD PTR [edx+edx*2]
  00042	c1 e0 02	 shl	 eax, 2
  00045	89 45 f0	 mov	 DWORD PTR tv1060[ebp], eax
  00048	0f 1f 84 00 00
	00 00 00	 npad	 8
$LL6@LoadSkillL:

; 326  : 		{
; 327  : 			int nSkillLevel	= s.GetNumber();

  00050	6a 00		 push	 0
  00052	8b cb		 mov	 ecx, ebx
  00054	e8 00 00 00 00	 call	 ?GetNumber@CScanner@@QAEHH@Z ; CScanner::GetNumber

; 328  : 			int nSkill	= 0;

  00059	33 d2		 xor	 edx, edx
  0005b	89 55 08	 mov	 DWORD PTR _nSkill$1[ebp], edx

; 329  : 			if( nSkillLevel > 0 )

  0005e	85 c0		 test	 eax, eax
  00060	7e 0c		 jle	 SHORT $LN159@LoadSkillL

; 330  : 				nSkill	= m_vSkillKinds[i] + nSkillLevel - 1;

  00062	8b 4f 1c	 mov	 ecx, DWORD PTR [edi+28]
  00065	8b 14 b1	 mov	 edx, DWORD PTR [ecx+esi*4]
  00068	4a		 dec	 edx
  00069	03 d0		 add	 edx, eax
  0006b	89 55 08	 mov	 DWORD PTR _nSkill$1[ebp], edx
$LN159@LoadSkillL:
; File C:\Program Files\Microsoft Visual Studio\2022\Professional\VC\Tools\MSVC\14.44.35207\include\vector

; 1934 :         return _My_data._Myfirst[_Pos];

  0006e	8b 4d f0	 mov	 ecx, DWORD PTR tv1060[ebp]
  00071	83 c1 f4	 add	 ecx, -12		; fffffff4H
  00074	03 4f 28	 add	 ecx, DWORD PTR [edi+40]

; 844  :         if (_Mylast != _My_data._Myend) {

  00077	8b 41 04	 mov	 eax, DWORD PTR [ecx+4]
  0007a	3b 41 08	 cmp	 eax, DWORD PTR [ecx+8]
  0007d	74 08		 je	 SHORT $LN25@LoadSkillL

; 860  :             _STD _Construct_in_place(*_Mylast, _STD forward<_Valty>(_Val)...);

  0007f	89 10		 mov	 DWORD PTR [eax], edx

; 861  :         } else {
; 862  :             _ASAN_VECTOR_EXTEND_GUARD(static_cast<size_type>(_Mylast - _My_data._Myfirst) + 1);
; 863  :             _Alty_traits::construct(_Getal(), _Unfancy(_Mylast), _STD forward<_Valty>(_Val)...);
; 864  :             _ASAN_VECTOR_RELEASE_GUARD;
; 865  :         }
; 866  : 
; 867  :         _Orphan_range(_Mylast, _Mylast);
; 868  :         _Ty& _Result = *_Mylast;
; 869  :         ++_Mylast;

  00081	83 41 04 04	 add	 DWORD PTR [ecx+4], 4

; 845  :             return _Emplace_back_with_unused_capacity(_STD forward<_Valty>(_Val)...);

  00085	eb 0a		 jmp	 SHORT $LN4@LoadSkillL
$LN25@LoadSkillL:

; 846  :         }
; 847  : 
; 848  :         return *_Emplace_reallocate(_Mylast, _STD forward<_Valty>(_Val)...);

  00087	8d 55 08	 lea	 edx, DWORD PTR _nSkill$1[ebp]
  0008a	52		 push	 edx
  0008b	50		 push	 eax
  0008c	e8 00 00 00 00	 call	 ??$_Emplace_reallocate@ABH@?$vector@HV?$allocator@H@std@@@std@@AAEPAHQAHABH@Z ; std::vector<int,std::allocator<int> >::_Emplace_reallocate<int const &>
$LN4@LoadSkillL:

; 1915 :         return static_cast<size_type>(_My_data._Mylast - _My_data._Myfirst);

  00091	8b 47 20	 mov	 eax, DWORD PTR [edi+32]
; File C:\IAGOS\server\v18\Source\Source\_Common\couple.cpp

; 325  : 		for( int i = 0; i < (int)( m_vSkillKinds.size() ); i++ )

  00094	46		 inc	 esi
; File C:\Program Files\Microsoft Visual Studio\2022\Professional\VC\Tools\MSVC\14.44.35207\include\vector

; 1915 :         return static_cast<size_type>(_My_data._Mylast - _My_data._Myfirst);

  00095	2b 47 1c	 sub	 eax, DWORD PTR [edi+28]
  00098	c1 f8 02	 sar	 eax, 2
; File C:\IAGOS\server\v18\Source\Source\_Common\couple.cpp

; 325  : 		for( int i = 0; i < (int)( m_vSkillKinds.size() ); i++ )

  0009b	3b f0		 cmp	 esi, eax
  0009d	7c b1		 jl	 SHORT $LL6@LoadSkillL
$LN5@LoadSkillL:

; 331  : 			m_vSkills[nLevel-1].push_back( nSkill );
; 332  : 		}
; 333  : 		nLevel	= s.GetNumber();

  0009f	6a 00		 push	 0
  000a1	8b cb		 mov	 ecx, ebx
  000a3	e8 00 00 00 00	 call	 ?GetNumber@CScanner@@QAEHH@Z ; CScanner::GetNumber
  000a8	8b d0		 mov	 edx, eax
  000aa	8b 43 3c	 mov	 eax, DWORD PTR [ebx+60]
  000ad	80 38 7d	 cmp	 BYTE PTR [eax], 125	; 0000007dH
  000b0	0f 85 7a ff ff
	ff		 jne	 $LL2@LoadSkillL
$LN3@LoadSkillL:
; File C:\Program Files\Microsoft Visual Studio\2022\Professional\VC\Tools\MSVC\14.44.35207\include\vector

; 1915 :         return static_cast<size_type>(_My_data._Mylast - _My_data._Myfirst);

  000b6	8b 4f 2c	 mov	 ecx, DWORD PTR [edi+44]
  000b9	b8 ab aa aa 2a	 mov	 eax, 715827883		; 2aaaaaabH
  000be	8b 77 28	 mov	 esi, DWORD PTR [edi+40]
  000c1	2b ce		 sub	 ecx, esi
  000c3	f7 e9		 imul	 ecx
; File C:\IAGOS\server\v18\Source\Source\_Common\couple.cpp

; 335  : 	for( int i = 1; i <(int)( m_vSkills.size() ); i++ )

  000c5	c7 45 f4 01 00
	00 00		 mov	 DWORD PTR _i$1$[ebp], 1
; File C:\Program Files\Microsoft Visual Studio\2022\Professional\VC\Tools\MSVC\14.44.35207\include\vector

; 1915 :         return static_cast<size_type>(_My_data._Mylast - _My_data._Myfirst);

  000cc	d1 fa		 sar	 edx, 1
  000ce	8b c2		 mov	 eax, edx
  000d0	c1 e8 1f	 shr	 eax, 31			; 0000001fH
  000d3	03 c2		 add	 eax, edx
; File C:\IAGOS\server\v18\Source\Source\_Common\couple.cpp

; 335  : 	for( int i = 1; i <(int)( m_vSkills.size() ); i++ )

  000d5	83 f8 01	 cmp	 eax, 1
  000d8	0f 8e 69 01 00
	00		 jle	 $LN148@LoadSkillL

; 330  : 				nSkill	= m_vSkillKinds[i] + nSkillLevel - 1;

  000de	bb 0c 00 00 00	 mov	 ebx, 12			; 0000000cH
  000e3	89 5d f0	 mov	 DWORD PTR tv1045[ebp], ebx
$LL9@LoadSkillL:
; File C:\Program Files\Microsoft Visual Studio\2022\Professional\VC\Tools\MSVC\14.44.35207\include\vector

; 1910 :         return _My_data._Myfirst == _My_data._Mylast;

  000e6	8b 0c 33	 mov	 ecx, DWORD PTR [ebx+esi]

; 1934 :         return _My_data._Myfirst[_Pos];

  000e9	03 de		 add	 ebx, esi

; 1910 :         return _My_data._Myfirst == _My_data._Mylast;

  000eb	89 4d ec	 mov	 DWORD PTR tv1069[ebp], ecx
  000ee	8b 43 04	 mov	 eax, DWORD PTR [ebx+4]
  000f1	3b c8		 cmp	 ecx, eax
; File C:\IAGOS\server\v18\Source\Source\_Common\couple.cpp

; 337  : 		if( m_vSkills[i].empty() )

  000f3	0f 85 21 01 00
	00		 jne	 $LN7@LoadSkillL
; File C:\Program Files\Microsoft Visual Studio\2022\Professional\VC\Tools\MSVC\14.44.35207\include\vector

; 46   :     _CONSTEXPR20 _Vector_const_iterator(_Tptr _Parg, const _Container_base* _Pvector) noexcept : _Ptr(_Parg) {

  000f9	8b 53 f4	 mov	 edx, DWORD PTR [ebx-12]

; 1486 :         auto _UFirst = _STD _Get_unwrapped(_First);

  000fc	8b 73 f8	 mov	 esi, DWORD PTR [ebx-8]
  000ff	2b f2		 sub	 esi, edx

; 46   :     _CONSTEXPR20 _Vector_const_iterator(_Tptr _Parg, const _Container_base* _Pvector) noexcept : _Ptr(_Parg) {

  00101	89 55 f8	 mov	 DWORD PTR __First$2$[ebp], edx

; 1432 :         const auto _Oldcapacity = static_cast<size_type>(_Myend - _Myfirst);

  00104	8b 53 08	 mov	 edx, DWORD PTR [ebx+8]
  00107	2b d1		 sub	 edx, ecx
; File C:\Program Files\Microsoft Visual Studio\2022\Professional\VC\Tools\MSVC\14.44.35207\include\xutility

; 1662 :         return _Last - _First; // assume the iterator will do debug checking

  00109	c1 fe 02	 sar	 esi, 2
; File C:\Program Files\Microsoft Visual Studio\2022\Professional\VC\Tools\MSVC\14.44.35207\include\vector

; 1432 :         const auto _Oldcapacity = static_cast<size_type>(_Myend - _Myfirst);

  0010c	c1 fa 02	 sar	 edx, 2
; File C:\Program Files\Microsoft Visual Studio\2022\Professional\VC\Tools\MSVC\14.44.35207\include\xutility

; 1662 :         return _Last - _First; // assume the iterator will do debug checking

  0010f	89 75 08	 mov	 DWORD PTR __Count$1$[ebp], esi
; File C:\Program Files\Microsoft Visual Studio\2022\Professional\VC\Tools\MSVC\14.44.35207\include\vector

; 1433 :         if (_Newsize > _Oldcapacity) {

  00112	3b f2		 cmp	 esi, edx
  00114	0f 86 b0 00 00
	00		 jbe	 $LN73@LoadSkillL

; 1703 :         if (_Newsize > max_size()) {

  0011a	81 fe ff ff ff
	3f		 cmp	 esi, 1073741823		; 3fffffffH
  00120	0f 87 2a 01 00
	00		 ja	 $LN142@LoadSkillL

; 2011 :         if (_Oldcapacity > _Max - _Oldcapacity / 2) {

  00126	8b c2		 mov	 eax, edx
  00128	d1 e8		 shr	 eax, 1
  0012a	89 45 08	 mov	 DWORD PTR tv1052[ebp], eax
  0012d	b8 ff ff ff 3f	 mov	 eax, 1073741823		; 3fffffffH
  00132	2b 45 08	 sub	 eax, DWORD PTR tv1052[ebp]
  00135	3b d0		 cmp	 edx, eax
  00137	76 09		 jbe	 SHORT $LN83@LoadSkillL

; 2012 :             return _Max; // geometric growth would overflow

  00139	c7 45 08 ff ff
	ff 3f		 mov	 DWORD PTR $T2[ebp], 1073741823 ; 3fffffffH
  00140	eb 0d		 jmp	 SHORT $LN84@LoadSkillL
$LN83@LoadSkillL:

; 2013 :         }
; 2014 : 
; 2015 :         const size_type _Geometric = _Oldcapacity + _Oldcapacity / 2;

  00142	8b 45 08	 mov	 eax, DWORD PTR tv1052[ebp]
  00145	03 c2		 add	 eax, edx

; 2016 : 
; 2017 :         if (_Geometric < _Newsize) {

  00147	3b c6		 cmp	 eax, esi
  00149	0f 42 c6	 cmovb	 eax, esi
  0014c	89 45 08	 mov	 DWORD PTR $T2[ebp], eax
$LN84@LoadSkillL:

; 1709 :         if (_Myfirst) { // destroy and deallocate old array

  0014f	85 c9		 test	 ecx, ecx
  00151	74 1d		 je	 SHORT $LN160@LoadSkillL

; 1710 :             _Destroy_range(_Myfirst, _Mylast, _Al);
; 1711 :             _ASAN_VECTOR_REMOVE;
; 1712 :             _Al.deallocate(_Myfirst, static_cast<size_type>(_Myend - _Myfirst));

  00153	52		 push	 edx
  00154	51		 push	 ecx
  00155	8b cb		 mov	 ecx, ebx
  00157	e8 00 00 00 00	 call	 ?deallocate@?$allocator@H@std@@QAEXQAHI@Z ; std::allocator<int>::deallocate

; 1713 : 
; 1714 :             _Myfirst = nullptr;

  0015c	c7 03 00 00 00
	00		 mov	 DWORD PTR [ebx], 0

; 1715 :             _Mylast  = nullptr;

  00162	c7 43 04 00 00
	00 00		 mov	 DWORD PTR [ebx+4], 0

; 1716 :             _Myend   = nullptr;

  00169	c7 43 08 00 00
	00 00		 mov	 DWORD PTR [ebx+8], 0
$LN160@LoadSkillL:
; File C:\Program Files\Microsoft Visual Studio\2022\Professional\VC\Tools\MSVC\14.44.35207\include\xmemory

; 117  :         if (_Count > _Max_possible) {

  00170	8b 4d 08	 mov	 ecx, DWORD PTR $T2[ebp]
  00173	81 f9 ff ff ff
	3f		 cmp	 ecx, 1073741823		; 3fffffffH
  00179	0f 87 d6 00 00
	00		 ja	 $LN143@LoadSkillL

; 119  :         }
; 120  :     }
; 121  : 
; 122  :     return _Count * _Ty_size;

  0017f	c1 e1 02	 shl	 ecx, 2

; 227  :     if (_Bytes == 0) {

  00182	85 c9		 test	 ecx, ecx
  00184	75 05		 jne	 SHORT $LN100@LoadSkillL

; 228  :         return nullptr;

  00186	89 4d fc	 mov	 DWORD PTR __Dest$1$[ebp], ecx
  00189	eb 22		 jmp	 SHORT $LN99@LoadSkillL
$LN100@LoadSkillL:

; 229  :     }
; 230  : 
; 231  : #if _HAS_CXX20 // TRANSITION, GH-1532
; 232  :     if (_STD is_constant_evaluated()) {
; 233  :         return _Traits::_Allocate(_Bytes);
; 234  :     }
; 235  : #endif // _HAS_CXX20
; 236  : 
; 237  : #ifdef __cpp_aligned_new
; 238  :     if constexpr (_Align > __STDCPP_DEFAULT_NEW_ALIGNMENT__) {
; 239  :         size_t _Passed_align = _Align;
; 240  : #if defined(_M_IX86) || defined(_M_X64)
; 241  :         if (_Bytes >= _Big_allocation_threshold) {
; 242  :             // boost the alignment of big allocations to help autovectorization
; 243  :             _Passed_align = (_STD max)(_Align, _Big_allocation_alignment);
; 244  :         }
; 245  : #endif // defined(_M_IX86) || defined(_M_X64)
; 246  :         return _Traits::_Allocate_aligned(_Bytes, _Passed_align);
; 247  :     } else
; 248  : #endif // defined(__cpp_aligned_new)
; 249  :     {
; 250  : #if defined(_M_IX86) || defined(_M_X64)
; 251  :         if (_Bytes >= _Big_allocation_threshold) {

  0018b	51		 push	 ecx
  0018c	81 f9 00 10 00
	00		 cmp	 ecx, 4096		; 00001000H
  00192	72 0c		 jb	 SHORT $LN101@LoadSkillL

; 252  :             // boost the alignment of big allocations to help autovectorization
; 253  :             return _Allocate_manually_vector_aligned<_Traits>(_Bytes);

  00194	e8 00 00 00 00	 call	 ??$_Allocate_manually_vector_aligned@U_Default_allocate_traits@std@@@std@@YAPAXI@Z ; std::_Allocate_manually_vector_aligned<std::_Default_allocate_traits>
  00199	8b c8		 mov	 ecx, eax
  0019b	89 4d fc	 mov	 DWORD PTR __Dest$1$[ebp], ecx
  0019e	eb 0a		 jmp	 SHORT $LN178@LoadSkillL
$LN101@LoadSkillL:

; 136  :         return ::operator new(_Bytes);

  001a0	e8 00 00 00 00	 call	 ??2@YAPAXI@Z		; operator new

; 256  :         return _Traits::_Allocate(_Bytes);

  001a5	8b c8		 mov	 ecx, eax
  001a7	89 45 fc	 mov	 DWORD PTR __Dest$1$[ebp], eax
$LN178@LoadSkillL:
; File C:\Program Files\Microsoft Visual Studio\2022\Professional\VC\Tools\MSVC\14.44.35207\include\vector

; 2035 :         _Myfirst              = _Newvec;

  001aa	83 c4 04	 add	 esp, 4
$LN99@LoadSkillL:

; 2037 :         _Myend                = _Newvec + _Newcapacity;

  001ad	8b 45 08	 mov	 eax, DWORD PTR $T2[ebp]
; File C:\Program Files\Microsoft Visual Studio\2022\Professional\VC\Tools\MSVC\14.44.35207\include\xmemory

; 1930 :             _STD _Copy_memmove_n(_UFirst, _Count, _STD _Unfancy(_Dest));

  001b0	51		 push	 ecx
; File C:\Program Files\Microsoft Visual Studio\2022\Professional\VC\Tools\MSVC\14.44.35207\include\vector

; 2035 :         _Myfirst              = _Newvec;

  001b1	89 0b		 mov	 DWORD PTR [ebx], ecx
; File C:\Program Files\Microsoft Visual Studio\2022\Professional\VC\Tools\MSVC\14.44.35207\include\xmemory

; 1930 :             _STD _Copy_memmove_n(_UFirst, _Count, _STD _Unfancy(_Dest));

  001b3	56		 push	 esi
  001b4	ff 75 f8	 push	 DWORD PTR __First$2$[ebp]
; File C:\Program Files\Microsoft Visual Studio\2022\Professional\VC\Tools\MSVC\14.44.35207\include\vector

; 2037 :         _Myend                = _Newvec + _Newcapacity;

  001b7	8d 04 81	 lea	 eax, DWORD PTR [ecx+eax*4]
  001ba	89 4b 04	 mov	 DWORD PTR [ebx+4], ecx
  001bd	89 43 08	 mov	 DWORD PTR [ebx+8], eax
; File C:\Program Files\Microsoft Visual Studio\2022\Professional\VC\Tools\MSVC\14.44.35207\include\xmemory

; 1930 :             _STD _Copy_memmove_n(_UFirst, _Count, _STD _Unfancy(_Dest));

  001c0	e8 00 00 00 00	 call	 ??$_Copy_memmove_n@PAHPAH@std@@YAPAHPAHI0@Z ; std::_Copy_memmove_n<int *,int *>

; 1931 :             _Dest += _Count;

  001c5	8b 45 fc	 mov	 eax, DWORD PTR __Dest$1$[ebp]
; File C:\Program Files\Microsoft Visual Studio\2022\Professional\VC\Tools\MSVC\14.44.35207\include\vector

; 1442 :             return;

  001c8	eb 47		 jmp	 SHORT $LN179@LoadSkillL
$LN73@LoadSkillL:

; 1443 :         }
; 1444 : 
; 1445 :         const auto _Oldsize = static_cast<size_type>(_Mylast - _Myfirst);

  001ca	2b c1		 sub	 eax, ecx
  001cc	c1 f8 02	 sar	 eax, 2
  001cf	89 45 fc	 mov	 DWORD PTR __Oldsize$1$[ebp], eax

; 1446 :         if (_Newsize > _Oldsize) {

  001d2	51		 push	 ecx
  001d3	3b f0		 cmp	 esi, eax
  001d5	76 2e		 jbe	 SHORT $LN74@LoadSkillL

; 1447 :             bool _Copied = false;
; 1448 :             if constexpr (_Iter_copy_cat<_Iter, pointer>::_Bitcopy_assignable) {
; 1449 : #if _HAS_CXX20
; 1450 :                 if (!_STD is_constant_evaluated())
; 1451 : #endif // _HAS_CXX20
; 1452 :                 {
; 1453 :                     _Copy_memmove_n(_First, static_cast<size_t>(_Oldsize), _Myfirst);

  001d7	8b 75 f8	 mov	 esi, DWORD PTR __First$2$[ebp]
  001da	50		 push	 eax
  001db	56		 push	 esi
  001dc	e8 00 00 00 00	 call	 ??$_Copy_memmove_n@PAHPAH@std@@YAPAHPAHI0@Z ; std::_Copy_memmove_n<int *,int *>

; 1454 :                     _First += _Oldsize;

  001e1	8b 55 fc	 mov	 edx, DWORD PTR __Oldsize$1$[ebp]

; 1455 :                     _Copied = true;
; 1456 :                 }
; 1457 :             }
; 1458 : 
; 1459 :             if (!_Copied) {
; 1460 :                 for (auto _Mid = _Myfirst; _Mid != _Mylast; ++_Mid, (void) ++_First) {
; 1461 :                     *_Mid = *_First;
; 1462 :                 }
; 1463 :             }
; 1464 : 
; 1465 :             if constexpr (_Nothrow_construct) {
; 1466 :                 _ASAN_VECTOR_MODIFY(static_cast<difference_type>(_Newsize - _Oldsize));
; 1467 :                 _Mylast = _STD _Uninitialized_copy_n(_STD move(_First), _Newsize - _Oldsize, _Mylast, _Al);

  001e4	8b 4d 08	 mov	 ecx, DWORD PTR __Count$1$[ebp]
  001e7	2b ca		 sub	 ecx, edx
  001e9	89 4d 08	 mov	 DWORD PTR __Count$1$[ebp], ecx
  001ec	8d 04 96	 lea	 eax, DWORD PTR [esi+edx*4]
  001ef	8b 73 04	 mov	 esi, DWORD PTR [ebx+4]
; File C:\Program Files\Microsoft Visual Studio\2022\Professional\VC\Tools\MSVC\14.44.35207\include\xmemory

; 1930 :             _STD _Copy_memmove_n(_UFirst, _Count, _STD _Unfancy(_Dest));

  001f2	56		 push	 esi
  001f3	51		 push	 ecx
  001f4	50		 push	 eax
  001f5	e8 00 00 00 00	 call	 ??$_Copy_memmove_n@PAHPAH@std@@YAPAHPAHI0@Z ; std::_Copy_memmove_n<int *,int *>

; 1931 :             _Dest += _Count;

  001fa	8b 45 08	 mov	 eax, DWORD PTR __Count$1$[ebp]
  001fd	83 c4 18	 add	 esp, 24			; 00000018H
  00200	8d 04 86	 lea	 eax, DWORD PTR [esi+eax*4]
; File C:\Program Files\Microsoft Visual Studio\2022\Professional\VC\Tools\MSVC\14.44.35207\include\vector

; 1473 :         } else {

  00203	eb 12		 jmp	 SHORT $LN180@LoadSkillL
$LN74@LoadSkillL:
; File C:\Program Files\Microsoft Visual Studio\2022\Professional\VC\Tools\MSVC\14.44.35207\include\xutility

; 4808 :             return _Copy_memmove_n(_First, static_cast<size_t>(_Count), _Dest);

  00205	56		 push	 esi
  00206	ff 75 f8	 push	 DWORD PTR __First$2$[ebp]
  00209	e8 00 00 00 00	 call	 ??$_Copy_memmove_n@PAHPAH@std@@YAPAHPAHI0@Z ; std::_Copy_memmove_n<int *,int *>
; File C:\Program Files\Microsoft Visual Studio\2022\Professional\VC\Tools\MSVC\14.44.35207\include\vector

; 1474 :             const pointer _Newlast = _Myfirst + _Newsize;

  0020e	8b 45 ec	 mov	 eax, DWORD PTR tv1069[ebp]
$LN179@LoadSkillL:
; File C:\IAGOS\server\v18\Source\Source\_Common\couple.cpp

; 335  : 	for( int i = 1; i <(int)( m_vSkills.size() ); i++ )

  00211	8d 04 b0	 lea	 eax, DWORD PTR [eax+esi*4]
  00214	83 c4 0c	 add	 esp, 12			; 0000000cH
$LN180@LoadSkillL:
  00217	89 43 04	 mov	 DWORD PTR [ebx+4], eax
$LN7@LoadSkillL:
; File C:\Program Files\Microsoft Visual Studio\2022\Professional\VC\Tools\MSVC\14.44.35207\include\vector

; 1915 :         return static_cast<size_type>(_My_data._Mylast - _My_data._Myfirst);

  0021a	8b 4f 2c	 mov	 ecx, DWORD PTR [edi+44]
  0021d	b8 ab aa aa 2a	 mov	 eax, 715827883		; 2aaaaaabH
  00222	8b 77 28	 mov	 esi, DWORD PTR [edi+40]
  00225	2b ce		 sub	 ecx, esi
; File C:\IAGOS\server\v18\Source\Source\_Common\couple.cpp

; 335  : 	for( int i = 1; i <(int)( m_vSkills.size() ); i++ )

  00227	8b 5d f0	 mov	 ebx, DWORD PTR tv1045[ebp]
  0022a	ff 45 f4	 inc	 DWORD PTR _i$1$[ebp]
  0022d	83 c3 0c	 add	 ebx, 12			; 0000000cH
; File C:\Program Files\Microsoft Visual Studio\2022\Professional\VC\Tools\MSVC\14.44.35207\include\vector

; 1915 :         return static_cast<size_type>(_My_data._Mylast - _My_data._Myfirst);

  00230	f7 e9		 imul	 ecx
; File C:\IAGOS\server\v18\Source\Source\_Common\couple.cpp

; 335  : 	for( int i = 1; i <(int)( m_vSkills.size() ); i++ )

  00232	89 5d f0	 mov	 DWORD PTR tv1045[ebp], ebx
; File C:\Program Files\Microsoft Visual Studio\2022\Professional\VC\Tools\MSVC\14.44.35207\include\vector

; 1915 :         return static_cast<size_type>(_My_data._Mylast - _My_data._Myfirst);

  00235	d1 fa		 sar	 edx, 1
  00237	8b c2		 mov	 eax, edx
  00239	c1 e8 1f	 shr	 eax, 31			; 0000001fH
  0023c	03 c2		 add	 eax, edx
; File C:\IAGOS\server\v18\Source\Source\_Common\couple.cpp

; 335  : 	for( int i = 1; i <(int)( m_vSkills.size() ); i++ )

  0023e	39 45 f4	 cmp	 DWORD PTR _i$1$[ebp], eax
  00241	0f 8c 9f fe ff
	ff		 jl	 $LL9@LoadSkillL
$LN148@LoadSkillL:
  00247	5f		 pop	 edi

; 340  : }

  00248	5e		 pop	 esi
  00249	5b		 pop	 ebx
  0024a	8b e5		 mov	 esp, ebp
  0024c	5d		 pop	 ebp
  0024d	c2 04 00	 ret	 4
$LN142@LoadSkillL:
; File C:\Program Files\Microsoft Visual Studio\2022\Professional\VC\Tools\MSVC\14.44.35207\include\vector

; 1704 :             _Xlength();

  00250	e8 00 00 00 00	 call	 ?_Xlength@?$vector@HV?$allocator@H@std@@@std@@CAXXZ ; std::vector<int,std::allocator<int> >::_Xlength
$LN143@LoadSkillL:
; File C:\Program Files\Microsoft Visual Studio\2022\Professional\VC\Tools\MSVC\14.44.35207\include\xmemory

; 118  :             _Throw_bad_array_new_length(); // multiply overflow

  00255	e8 00 00 00 00	 call	 ?_Throw_bad_array_new_length@std@@YAXXZ ; std::_Throw_bad_array_new_length
$LN177@LoadSkillL:
  0025a	cc		 int	 3
?LoadSkillLevel@CCoupleProperty@@AAEXAAVCScript@@@Z ENDP ; CCoupleProperty::LoadSkillLevel
_TEXT	ENDS
; Function compile flags: /Ogtp
; File C:\IAGOS\server\v18\Source\Source\_Common\couple.cpp
; File C:\Program Files\Microsoft Visual Studio\2022\Professional\VC\Tools\MSVC\14.44.35207\include\vector
; File C:\IAGOS\server\v18\Source\Source\_Common\couple.cpp
;	COMDAT ?LoadSkillKind@CCoupleProperty@@AAEXAAVCScript@@@Z
_TEXT	SEGMENT
_s$ = 8							; size = 4
_nSkill$ = 8						; size = 4
?LoadSkillKind@CCoupleProperty@@AAEXAAVCScript@@@Z PROC	; CCoupleProperty::LoadSkillKind, COMDAT
; _this$ = ecx

; 307  : {

  00000	55		 push	 ebp
  00001	8b ec		 mov	 ebp, esp
  00003	56		 push	 esi
  00004	57		 push	 edi

; 308  : 	s.GetToken();	// {

  00005	8b 7d 08	 mov	 edi, DWORD PTR _s$[ebp]
  00008	8b f1		 mov	 esi, ecx
  0000a	6a 00		 push	 0
  0000c	8b cf		 mov	 ecx, edi
  0000e	8b 07		 mov	 eax, DWORD PTR [edi]
  00010	ff 50 14	 call	 DWORD PTR [eax+20]

; 309  : 	int nSkill	= s.GetNumber();

  00013	6a 00		 push	 0
  00015	8b cf		 mov	 ecx, edi
  00017	e8 00 00 00 00	 call	 ?GetNumber@CScanner@@QAEHH@Z ; CScanner::GetNumber

; 310  : 	while( *s.token != '}' )

  0001c	8b 4f 3c	 mov	 ecx, DWORD PTR [edi+60]
  0001f	8b d0		 mov	 edx, eax
  00021	89 55 08	 mov	 DWORD PTR _nSkill$[ebp], edx
  00024	80 39 7d	 cmp	 BYTE PTR [ecx], 125	; 0000007dH
  00027	74 3a		 je	 SHORT $LN3@LoadSkillK
  00029	0f 1f 80 00 00
	00 00		 npad	 7
$LL2@LoadSkillK:
; File C:\Program Files\Microsoft Visual Studio\2022\Professional\VC\Tools\MSVC\14.44.35207\include\vector

; 844  :         if (_Mylast != _My_data._Myend) {

  00030	8b 46 20	 mov	 eax, DWORD PTR [esi+32]
  00033	3b 46 24	 cmp	 eax, DWORD PTR [esi+36]
  00036	74 08		 je	 SHORT $LN8@LoadSkillK

; 860  :             _STD _Construct_in_place(*_Mylast, _STD forward<_Valty>(_Val)...);

  00038	89 10		 mov	 DWORD PTR [eax], edx

; 861  :         } else {
; 862  :             _ASAN_VECTOR_EXTEND_GUARD(static_cast<size_type>(_Mylast - _My_data._Myfirst) + 1);
; 863  :             _Alty_traits::construct(_Getal(), _Unfancy(_Mylast), _STD forward<_Valty>(_Val)...);
; 864  :             _ASAN_VECTOR_RELEASE_GUARD;
; 865  :         }
; 866  : 
; 867  :         _Orphan_range(_Mylast, _Mylast);
; 868  :         _Ty& _Result = *_Mylast;
; 869  :         ++_Mylast;

  0003a	83 46 20 04	 add	 DWORD PTR [esi+32], 4

; 845  :             return _Emplace_back_with_unused_capacity(_STD forward<_Valty>(_Val)...);

  0003e	eb 0d		 jmp	 SHORT $LN7@LoadSkillK
$LN8@LoadSkillK:

; 846  :         }
; 847  : 
; 848  :         return *_Emplace_reallocate(_Mylast, _STD forward<_Valty>(_Val)...);

  00040	8d 4d 08	 lea	 ecx, DWORD PTR _nSkill$[ebp]
  00043	51		 push	 ecx
  00044	50		 push	 eax
  00045	8d 4e 1c	 lea	 ecx, DWORD PTR [esi+28]
  00048	e8 00 00 00 00	 call	 ??$_Emplace_reallocate@ABH@?$vector@HV?$allocator@H@std@@@std@@AAEPAHQAHABH@Z ; std::vector<int,std::allocator<int> >::_Emplace_reallocate<int const &>
$LN7@LoadSkillK:
; File C:\IAGOS\server\v18\Source\Source\_Common\couple.cpp

; 313  : 		nSkill	= s.GetNumber();

  0004d	6a 00		 push	 0
  0004f	8b cf		 mov	 ecx, edi
  00051	e8 00 00 00 00	 call	 ?GetNumber@CScanner@@QAEHH@Z ; CScanner::GetNumber
  00056	8b d0		 mov	 edx, eax
  00058	8b 47 3c	 mov	 eax, DWORD PTR [edi+60]
  0005b	89 55 08	 mov	 DWORD PTR _nSkill$[ebp], edx
  0005e	80 38 7d	 cmp	 BYTE PTR [eax], 125	; 0000007dH
  00061	75 cd		 jne	 SHORT $LL2@LoadSkillK
$LN3@LoadSkillK:
  00063	5f		 pop	 edi

; 314  : 	}
; 315  : }

  00064	5e		 pop	 esi
  00065	5d		 pop	 ebp
  00066	c2 04 00	 ret	 4
?LoadSkillKind@CCoupleProperty@@AAEXAAVCScript@@@Z ENDP	; CCoupleProperty::LoadSkillKind
_TEXT	ENDS
; Function compile flags: /Ogtp
; File C:\IAGOS\server\v18\Source\Source\_Common\couple.cpp
; File C:\IAGOS\server\v18\Source\Source\_Common\couple.h
; File C:\IAGOS\server\v18\Source\Source\_Common\couple.cpp
; File C:\IAGOS\server\v18\Source\Source\_Common\couple.h
; File C:\IAGOS\server\v18\Source\Source\_Common\couple.cpp
; File C:\IAGOS\server\v18\Source\Source\_Common\couple.h
; File C:\IAGOS\server\v18\Source\Source\_Common\couple.cpp
; File C:\IAGOS\server\v18\Source\Source\_Common\couple.h
; File C:\IAGOS\server\v18\Source\Source\_Common\couple.cpp
;	COMDAT ?LoadItem@CCoupleProperty@@AAEXAAVCScript@@@Z
_TEXT	SEGMENT
$T1 = -24						; size = 20
_this$1$ = -4						; size = 4
_s$ = 8							; size = 4
_nItem$1$ = 8						; size = 4
?LoadItem@CCoupleProperty@@AAEXAAVCScript@@@Z PROC	; CCoupleProperty::LoadItem, COMDAT
; _this$ = ecx

; 272  : {

  00000	55		 push	 ebp
  00001	8b ec		 mov	 ebp, esp
  00003	83 ec 18	 sub	 esp, 24			; 00000018H
  00006	53		 push	 ebx
  00007	56		 push	 esi

; 273  : 	ASSERT( m_vItems.size() > 0 );
; 274  : 	s.GetToken();	// {

  00008	8b 75 08	 mov	 esi, DWORD PTR _s$[ebp]
  0000b	89 4d fc	 mov	 DWORD PTR _this$1$[ebp], ecx
  0000e	8b ce		 mov	 ecx, esi
  00010	6a 00		 push	 0
  00012	8b 06		 mov	 eax, DWORD PTR [esi]
  00014	ff 50 14	 call	 DWORD PTR [eax+20]

; 275  : 	int nLevel	= s.GetNumber();

  00017	6a 00		 push	 0
  00019	8b ce		 mov	 ecx, esi
  0001b	e8 00 00 00 00	 call	 ?GetNumber@CScanner@@QAEHH@Z ; CScanner::GetNumber

; 276  : 	while( *s.token != '}' )

  00020	8b 4e 3c	 mov	 ecx, DWORD PTR [esi+60]
  00023	8b d8		 mov	 ebx, eax
  00025	80 39 7d	 cmp	 BYTE PTR [ecx], 125	; 0000007dH
  00028	0f 84 93 00 00
	00		 je	 $LN3@LoadItem
  0002e	57		 push	 edi
  0002f	90		 npad	 1
$LL2@LoadItem:

; 277  : 	{
; 278  : 		ASSERT( nLevel <= (int)( m_vItems.size() ) );
; 279  : 		s.GetToken();	// {

  00030	8b 16		 mov	 edx, DWORD PTR [esi]
  00032	8b ce		 mov	 ecx, esi
  00034	6a 00		 push	 0
  00036	ff 52 14	 call	 DWORD PTR [edx+20]

; 280  : 		int nItem	= s.GetNumber();

  00039	6a 00		 push	 0
  0003b	8b ce		 mov	 ecx, esi
  0003d	e8 00 00 00 00	 call	 ?GetNumber@CScanner@@QAEHH@Z ; CScanner::GetNumber

; 281  : 		while( *s.token != '}' )

  00042	8b 4e 3c	 mov	 ecx, DWORD PTR [esi+60]
  00045	89 45 08	 mov	 DWORD PTR _nItem$1$[ebp], eax
  00048	80 39 7d	 cmp	 BYTE PTR [ecx], 125	; 0000007dH
  0004b	74 5c		 je	 SHORT $LN5@LoadItem
  0004d	0f 1f 00	 npad	 3
$LL4@LoadItem:

; 282  : 		{
; 283  : 			int	nSex	= s.GetNumber();

  00050	6a 00		 push	 0
  00052	8b ce		 mov	 ecx, esi
  00054	e8 00 00 00 00	 call	 ?GetNumber@CScanner@@QAEHH@Z ; CScanner::GetNumber

; 284  : 			int nFlags	= s.GetNumber();

  00059	6a 00		 push	 0
  0005b	8b ce		 mov	 ecx, esi
  0005d	8b f8		 mov	 edi, eax
  0005f	e8 00 00 00 00	 call	 ?GetNumber@CScanner@@QAEHH@Z ; CScanner::GetNumber
; File C:\IAGOS\server\v18\Source\Source\_Common\couple.h

; 46   : 	_COUPLE_ITEM( int i, int s, int f, int l, int n ) : nItem( i ), nSex( s ), nFlags( f ), nLife( l ), nNum( n )		{}

  00064	8b 4d 08	 mov	 ecx, DWORD PTR _nItem$1$[ebp]
  00067	89 4d e8	 mov	 DWORD PTR $T1[ebp], ecx
; File C:\IAGOS\server\v18\Source\Source\_Common\couple.cpp

; 285  : 			int nLife	= s.GetNumber();

  0006a	8b ce		 mov	 ecx, esi
  0006c	6a 00		 push	 0
; File C:\IAGOS\server\v18\Source\Source\_Common\couple.h

; 46   : 	_COUPLE_ITEM( int i, int s, int f, int l, int n ) : nItem( i ), nSex( s ), nFlags( f ), nLife( l ), nNum( n )		{}

  0006e	89 7d ec	 mov	 DWORD PTR $T1[ebp+4], edi
  00071	89 45 f0	 mov	 DWORD PTR $T1[ebp+8], eax
; File C:\IAGOS\server\v18\Source\Source\_Common\couple.cpp

; 285  : 			int nLife	= s.GetNumber();

  00074	e8 00 00 00 00	 call	 ?GetNumber@CScanner@@QAEHH@Z ; CScanner::GetNumber

; 286  : 			int nNum	= s.GetNumber();

  00079	6a 00		 push	 0
  0007b	8b ce		 mov	 ecx, esi
; File C:\IAGOS\server\v18\Source\Source\_Common\couple.h

; 46   : 	_COUPLE_ITEM( int i, int s, int f, int l, int n ) : nItem( i ), nSex( s ), nFlags( f ), nLife( l ), nNum( n )		{}

  0007d	89 45 f4	 mov	 DWORD PTR $T1[ebp+12], eax
; File C:\IAGOS\server\v18\Source\Source\_Common\couple.cpp

; 286  : 			int nNum	= s.GetNumber();

  00080	e8 00 00 00 00	 call	 ?GetNumber@CScanner@@QAEHH@Z ; CScanner::GetNumber

; 287  : 			AddItem( nLevel, COUPLE_ITEM( nItem, nSex, nFlags, nLife, nNum ) );

  00085	8b 4d fc	 mov	 ecx, DWORD PTR _this$1$[ebp]
; File C:\IAGOS\server\v18\Source\Source\_Common\couple.h

; 46   : 	_COUPLE_ITEM( int i, int s, int f, int l, int n ) : nItem( i ), nSex( s ), nFlags( f ), nLife( l ), nNum( n )		{}

  00088	89 45 f8	 mov	 DWORD PTR $T1[ebp+16], eax
; File C:\IAGOS\server\v18\Source\Source\_Common\couple.cpp

; 287  : 			AddItem( nLevel, COUPLE_ITEM( nItem, nSex, nFlags, nLife, nNum ) );

  0008b	8d 45 e8	 lea	 eax, DWORD PTR $T1[ebp]
  0008e	50		 push	 eax
  0008f	53		 push	 ebx
  00090	e8 00 00 00 00	 call	 ?AddItem@CCoupleProperty@@AAEXHABU_COUPLE_ITEM@@@Z ; CCoupleProperty::AddItem

; 288  : 			nItem	= s.GetNumber();

  00095	6a 00		 push	 0
  00097	8b ce		 mov	 ecx, esi
  00099	e8 00 00 00 00	 call	 ?GetNumber@CScanner@@QAEHH@Z ; CScanner::GetNumber
  0009e	89 45 08	 mov	 DWORD PTR _nItem$1$[ebp], eax
  000a1	8b 46 3c	 mov	 eax, DWORD PTR [esi+60]
  000a4	80 38 7d	 cmp	 BYTE PTR [eax], 125	; 0000007dH
  000a7	75 a7		 jne	 SHORT $LL4@LoadItem
$LN5@LoadItem:

; 289  : 		}
; 290  : 		nLevel	= s.GetNumber();

  000a9	6a 00		 push	 0
  000ab	8b ce		 mov	 ecx, esi
  000ad	e8 00 00 00 00	 call	 ?GetNumber@CScanner@@QAEHH@Z ; CScanner::GetNumber
  000b2	8b d8		 mov	 ebx, eax
  000b4	8b 46 3c	 mov	 eax, DWORD PTR [esi+60]
  000b7	80 38 7d	 cmp	 BYTE PTR [eax], 125	; 0000007dH
  000ba	0f 85 70 ff ff
	ff		 jne	 $LL2@LoadItem

; 276  : 	while( *s.token != '}' )

  000c0	5f		 pop	 edi
$LN3@LoadItem:
  000c1	5e		 pop	 esi

; 291  : 	}
; 292  : }

  000c2	5b		 pop	 ebx
  000c3	8b e5		 mov	 esp, ebp
  000c5	5d		 pop	 ebp
  000c6	c2 04 00	 ret	 4
?LoadItem@CCoupleProperty@@AAEXAAVCScript@@@Z ENDP	; CCoupleProperty::LoadItem
_TEXT	ENDS
; Function compile flags: /Ogtp
; File C:\IAGOS\server\v18\Source\Source\_Common\couple.cpp
; File C:\Program Files\Microsoft Visual Studio\2022\Professional\VC\Tools\MSVC\14.44.35207\include\vector
; File C:\IAGOS\server\v18\Source\Source\_Common\couple.cpp
; File C:\Program Files\Microsoft Visual Studio\2022\Professional\VC\Tools\MSVC\14.44.35207\include\vector
; File C:\IAGOS\server\v18\Source\Source\_Common\couple.cpp
; File C:\Program Files\Microsoft Visual Studio\2022\Professional\VC\Tools\MSVC\14.44.35207\include\vector
; File C:\IAGOS\server\v18\Source\Source\_Common\couple.cpp
; File C:\Program Files\Microsoft Visual Studio\2022\Professional\VC\Tools\MSVC\14.44.35207\include\vector
; File C:\IAGOS\server\v18\Source\Source\_Common\couple.cpp
; File C:\Program Files\Microsoft Visual Studio\2022\Professional\VC\Tools\MSVC\14.44.35207\include\vector
; File C:\Program Files\Microsoft Visual Studio\2022\Professional\VC\Tools\MSVC\14.44.35207\include\xmemory
; File C:\IAGOS\server\v18\Source\Source\_Common\couple.cpp
; File C:\Program Files\Microsoft Visual Studio\2022\Professional\VC\Tools\MSVC\14.44.35207\include\vector
; File C:\IAGOS\server\v18\Source\Source\_Common\couple.cpp
; File C:\Program Files\Microsoft Visual Studio\2022\Professional\VC\Tools\MSVC\14.44.35207\include\vector
; File C:\IAGOS\server\v18\Source\Source\_Common\couple.cpp
;	COMDAT ?LoadLevel@CCoupleProperty@@AAEXAAVCScript@@@Z
_TEXT	SEGMENT
_this$1$ = -4						; size = 4
_s$ = 8							; size = 4
_nExp$ = 8						; size = 4
__Oldsize$1$ = 8					; size = 4
__Oldsize$1$ = 8					; size = 4
__Newlast$1$ = 8					; size = 4
$T1 = 11						; size = 1
$T2 = 11						; size = 1
?LoadLevel@CCoupleProperty@@AAEXAAVCScript@@@Z PROC	; CCoupleProperty::LoadLevel, COMDAT
; _this$ = ecx

; 256  : {

  00000	55		 push	 ebp
  00001	8b ec		 mov	 ebp, esp
  00003	51		 push	 ecx
  00004	53		 push	 ebx
  00005	56		 push	 esi

; 257  : 	s.GetToken();	// {

  00006	8b 75 08	 mov	 esi, DWORD PTR _s$[ebp]
  00009	8b d9		 mov	 ebx, ecx
  0000b	57		 push	 edi
  0000c	6a 00		 push	 0
  0000e	8b ce		 mov	 ecx, esi
  00010	89 5d fc	 mov	 DWORD PTR _this$1$[ebp], ebx
  00013	8b 06		 mov	 eax, DWORD PTR [esi]
  00015	ff 50 14	 call	 DWORD PTR [eax+20]

; 258  : 	int nExp	= s.GetNumber();

  00018	6a 00		 push	 0
  0001a	8b ce		 mov	 ecx, esi
  0001c	e8 00 00 00 00	 call	 ?GetNumber@CScanner@@QAEHH@Z ; CScanner::GetNumber

; 259  : 	while( *s.token != '}' )

  00021	8b 4e 3c	 mov	 ecx, DWORD PTR [esi+60]
  00024	8d 7b 04	 lea	 edi, DWORD PTR [ebx+4]
  00027	8b d0		 mov	 edx, eax
  00029	89 55 08	 mov	 DWORD PTR _nExp$[ebp], edx
  0002c	80 39 7d	 cmp	 BYTE PTR [ecx], 125	; 0000007dH
  0002f	74 32		 je	 SHORT $LN52@LoadLevel
$LL2@LoadLevel:
; File C:\Program Files\Microsoft Visual Studio\2022\Professional\VC\Tools\MSVC\14.44.35207\include\vector

; 844  :         if (_Mylast != _My_data._Myend) {

  00031	8b 47 04	 mov	 eax, DWORD PTR [edi+4]
  00034	3b 47 08	 cmp	 eax, DWORD PTR [edi+8]
  00037	74 08		 je	 SHORT $LN8@LoadLevel

; 860  :             _STD _Construct_in_place(*_Mylast, _STD forward<_Valty>(_Val)...);

  00039	89 10		 mov	 DWORD PTR [eax], edx

; 861  :         } else {
; 862  :             _ASAN_VECTOR_EXTEND_GUARD(static_cast<size_type>(_Mylast - _My_data._Myfirst) + 1);
; 863  :             _Alty_traits::construct(_Getal(), _Unfancy(_Mylast), _STD forward<_Valty>(_Val)...);
; 864  :             _ASAN_VECTOR_RELEASE_GUARD;
; 865  :         }
; 866  : 
; 867  :         _Orphan_range(_Mylast, _Mylast);
; 868  :         _Ty& _Result = *_Mylast;
; 869  :         ++_Mylast;

  0003b	83 47 04 04	 add	 DWORD PTR [edi+4], 4

; 845  :             return _Emplace_back_with_unused_capacity(_STD forward<_Valty>(_Val)...);

  0003f	eb 0c		 jmp	 SHORT $LN7@LoadLevel
$LN8@LoadLevel:

; 846  :         }
; 847  : 
; 848  :         return *_Emplace_reallocate(_Mylast, _STD forward<_Valty>(_Val)...);

  00041	8d 4d 08	 lea	 ecx, DWORD PTR _nExp$[ebp]
  00044	51		 push	 ecx
  00045	50		 push	 eax
  00046	8b cf		 mov	 ecx, edi
  00048	e8 00 00 00 00	 call	 ??$_Emplace_reallocate@ABH@?$vector@HV?$allocator@H@std@@@std@@AAEPAHQAHABH@Z ; std::vector<int,std::allocator<int> >::_Emplace_reallocate<int const &>
$LN7@LoadLevel:
; File C:\IAGOS\server\v18\Source\Source\_Common\couple.cpp

; 265  : 		nExp	= s.GetNumber();

  0004d	6a 00		 push	 0
  0004f	8b ce		 mov	 ecx, esi
  00051	e8 00 00 00 00	 call	 ?GetNumber@CScanner@@QAEHH@Z ; CScanner::GetNumber
  00056	8b d0		 mov	 edx, eax
  00058	8b 46 3c	 mov	 eax, DWORD PTR [esi+60]
  0005b	89 55 08	 mov	 DWORD PTR _nExp$[ebp], edx
  0005e	80 38 7d	 cmp	 BYTE PTR [eax], 125	; 0000007dH
  00061	75 ce		 jne	 SHORT $LL2@LoadLevel
$LN52@LoadLevel:
; File C:\Program Files\Microsoft Visual Studio\2022\Professional\VC\Tools\MSVC\14.44.35207\include\vector

; 1595 :         const auto _Oldsize = static_cast<size_type>(_Mylast - _Myfirst);

  00063	8b 4b 14	 mov	 ecx, DWORD PTR [ebx+20]
; File C:\IAGOS\server\v18\Source\Source\_Common\couple.cpp

; 267  : 	m_vItems.resize( m_vExp.size() );

  00066	83 c3 10	 add	 ebx, 16			; 00000010H
; File C:\Program Files\Microsoft Visual Studio\2022\Professional\VC\Tools\MSVC\14.44.35207\include\vector

; 1915 :         return static_cast<size_type>(_My_data._Mylast - _My_data._Myfirst);

  00069	8b 77 04	 mov	 esi, DWORD PTR [edi+4]

; 1595 :         const auto _Oldsize = static_cast<size_type>(_Mylast - _Myfirst);

  0006c	b8 ab aa aa 2a	 mov	 eax, 715827883		; 2aaaaaabH

; 1915 :         return static_cast<size_type>(_My_data._Mylast - _My_data._Myfirst);

  00071	2b 37		 sub	 esi, DWORD PTR [edi]
  00073	c1 fe 02	 sar	 esi, 2

; 1595 :         const auto _Oldsize = static_cast<size_type>(_Mylast - _Myfirst);

  00076	2b 0b		 sub	 ecx, DWORD PTR [ebx]
  00078	f7 e9		 imul	 ecx
  0007a	d1 fa		 sar	 edx, 1
  0007c	8b c2		 mov	 eax, edx
  0007e	c1 e8 1f	 shr	 eax, 31			; 0000001fH
  00081	03 c2		 add	 eax, edx
  00083	89 45 08	 mov	 DWORD PTR __Oldsize$1$[ebp], eax

; 1596 :         if (_Newsize < _Oldsize) { // trim

  00086	3b f0		 cmp	 esi, eax
  00088	73 18		 jae	 SHORT $LN18@LoadLevel

; 1597 :             const pointer _Newlast = _Myfirst + _Newsize;

  0008a	8b 13		 mov	 edx, DWORD PTR [ebx]
  0008c	8d 04 76	 lea	 eax, DWORD PTR [esi+esi*2]

; 1598 :             _Orphan_range(_Newlast, _Mylast);
; 1599 :             _Destroy_range(_Newlast, _Mylast, _Al);

  0008f	53		 push	 ebx
  00090	8d 34 82	 lea	 esi, DWORD PTR [edx+eax*4]
  00093	8b 43 04	 mov	 eax, DWORD PTR [ebx+4]
  00096	50		 push	 eax
  00097	56		 push	 esi
  00098	e8 00 00 00 00	 call	 ??$_Destroy_range@V?$allocator@V?$vector@U_COUPLE_ITEM@@V?$allocator@U_COUPLE_ITEM@@@std@@@std@@@std@@@std@@YAXPAV?$vector@U_COUPLE_ITEM@@V?$allocator@U_COUPLE_ITEM@@@std@@@0@QAV10@AAV?$allocator@V?$vector@U_COUPLE_ITEM@@V?$allocator@U_COUPLE_ITEM@@@std@@@std@@@0@@Z ; std::_Destroy_range<std::allocator<std::vector<_COUPLE_ITEM,std::allocator<_COUPLE_ITEM> > > >

; 1600 :             _ASAN_VECTOR_MODIFY(static_cast<difference_type>(_Newsize - _Oldsize));
; 1601 :             _Mylast = _Newlast;

  0009d	89 73 04	 mov	 DWORD PTR [ebx+4], esi

; 1602 :             return;

  000a0	eb 3a		 jmp	 SHORT $LN63@LoadLevel
$LN18@LoadLevel:

; 1605 :         if (_Newsize > _Oldsize) { // append

  000a2	76 3b		 jbe	 SHORT $LN19@LoadLevel

; 1606 :             const auto _Oldcapacity = static_cast<size_type>(_My_data._Myend - _Myfirst);

  000a4	8b 4b 08	 mov	 ecx, DWORD PTR [ebx+8]
  000a7	b8 ab aa aa 2a	 mov	 eax, 715827883		; 2aaaaaabH
  000ac	2b 0b		 sub	 ecx, DWORD PTR [ebx]
  000ae	f7 e9		 imul	 ecx
  000b0	d1 fa		 sar	 edx, 1
  000b2	8b c2		 mov	 eax, edx
  000b4	c1 e8 1f	 shr	 eax, 31			; 0000001fH
  000b7	03 c2		 add	 eax, edx

; 1607 :             if (_Newsize > _Oldcapacity) { // reallocate

  000b9	3b f0		 cmp	 esi, eax
  000bb	76 0e		 jbe	 SHORT $LN20@LoadLevel

; 1608 :                 _Resize_reallocate(_Newsize, _Val);

  000bd	8d 45 0b	 lea	 eax, DWORD PTR $T1[ebp]
  000c0	8b cb		 mov	 ecx, ebx
  000c2	50		 push	 eax
  000c3	56		 push	 esi
  000c4	e8 00 00 00 00	 call	 ??$_Resize_reallocate@U_Value_init_tag@std@@@?$vector@V?$vector@U_COUPLE_ITEM@@V?$allocator@U_COUPLE_ITEM@@@std@@@std@@V?$allocator@V?$vector@U_COUPLE_ITEM@@V?$allocator@U_COUPLE_ITEM@@@std@@@std@@@2@@std@@AAEXIABU_Value_init_tag@1@@Z ; std::vector<std::vector<_COUPLE_ITEM,std::allocator<_COUPLE_ITEM> >,std::allocator<std::vector<_COUPLE_ITEM,std::allocator<_COUPLE_ITEM> > > >::_Resize_reallocate<std::_Value_init_tag>

; 1609 :                 return;

  000c9	eb 14		 jmp	 SHORT $LN19@LoadLevel
$LN20@LoadLevel:

; 1618 :                 _Mylast = _Uninitialized_value_construct_n(_Oldlast, _Newsize - _Oldsize, _Al);

  000cb	2b 75 08	 sub	 esi, DWORD PTR __Oldsize$1$[ebp]
  000ce	8b 43 04	 mov	 eax, DWORD PTR [ebx+4]
  000d1	53		 push	 ebx
  000d2	56		 push	 esi
  000d3	50		 push	 eax
  000d4	e8 00 00 00 00	 call	 ??$_Uninitialized_value_construct_n@V?$allocator@V?$vector@U_COUPLE_ITEM@@V?$allocator@U_COUPLE_ITEM@@@std@@@std@@@std@@@std@@YAPAV?$vector@U_COUPLE_ITEM@@V?$allocator@U_COUPLE_ITEM@@@std@@@0@PAV10@IAAV?$allocator@V?$vector@U_COUPLE_ITEM@@V?$allocator@U_COUPLE_ITEM@@@std@@@std@@@0@@Z ; std::_Uninitialized_value_construct_n<std::allocator<std::vector<_COUPLE_ITEM,std::allocator<_COUPLE_ITEM> > > >
  000d9	89 43 04	 mov	 DWORD PTR [ebx+4], eax
$LN63@LoadLevel:

; 1915 :         return static_cast<size_type>(_My_data._Mylast - _My_data._Myfirst);

  000dc	83 c4 0c	 add	 esp, 12			; 0000000cH
$LN19@LoadLevel:
; File C:\IAGOS\server\v18\Source\Source\_Common\couple.cpp

; 268  : 	m_vSkills.resize( m_vExp.size() );

  000df	8b 5d fc	 mov	 ebx, DWORD PTR _this$1$[ebp]
; File C:\Program Files\Microsoft Visual Studio\2022\Professional\VC\Tools\MSVC\14.44.35207\include\vector

; 1595 :         const auto _Oldsize = static_cast<size_type>(_Mylast - _Myfirst);

  000e2	b8 ab aa aa 2a	 mov	 eax, 715827883		; 2aaaaaabH

; 1915 :         return static_cast<size_type>(_My_data._Mylast - _My_data._Myfirst);

  000e7	8b 77 04	 mov	 esi, DWORD PTR [edi+4]
; File C:\IAGOS\server\v18\Source\Source\_Common\couple.cpp

; 268  : 	m_vSkills.resize( m_vExp.size() );

  000ea	83 c3 28	 add	 ebx, 40			; 00000028H
; File C:\Program Files\Microsoft Visual Studio\2022\Professional\VC\Tools\MSVC\14.44.35207\include\vector

; 1915 :         return static_cast<size_type>(_My_data._Mylast - _My_data._Myfirst);

  000ed	2b 37		 sub	 esi, DWORD PTR [edi]
  000ef	c1 fe 02	 sar	 esi, 2

; 1595 :         const auto _Oldsize = static_cast<size_type>(_Mylast - _Myfirst);

  000f2	8b 7b 04	 mov	 edi, DWORD PTR [ebx+4]
  000f5	8b cf		 mov	 ecx, edi
  000f7	2b 0b		 sub	 ecx, DWORD PTR [ebx]
  000f9	f7 e9		 imul	 ecx
  000fb	d1 fa		 sar	 edx, 1
  000fd	8b c2		 mov	 eax, edx
  000ff	c1 e8 1f	 shr	 eax, 31			; 0000001fH
  00102	03 c2		 add	 eax, edx
  00104	89 45 08	 mov	 DWORD PTR __Oldsize$1$[ebp], eax

; 1596 :         if (_Newsize < _Oldsize) { // trim

  00107	3b f0		 cmp	 esi, eax
  00109	73 32		 jae	 SHORT $LN28@LoadLevel

; 1597 :             const pointer _Newlast = _Myfirst + _Newsize;

  0010b	8b 13		 mov	 edx, DWORD PTR [ebx]
  0010d	8d 04 76	 lea	 eax, DWORD PTR [esi+esi*2]
  00110	8d 04 82	 lea	 eax, DWORD PTR [edx+eax*4]
  00113	89 45 08	 mov	 DWORD PTR __Newlast$1$[ebp], eax

; 1598 :             _Orphan_range(_Newlast, _Mylast);
; 1599 :             _Destroy_range(_Newlast, _Mylast, _Al);

  00116	8b f0		 mov	 esi, eax
; File C:\Program Files\Microsoft Visual Studio\2022\Professional\VC\Tools\MSVC\14.44.35207\include\xmemory

; 1102 :         for (; _First != _Last; ++_First) {

  00118	3b c7		 cmp	 eax, edi
  0011a	74 5f		 je	 SHORT $LN34@LoadLevel
  0011c	0f 1f 40 00	 npad	 4
$LL35@LoadLevel:
  00120	8b ce		 mov	 ecx, esi
  00122	e8 00 00 00 00	 call	 ??1?$vector@HV?$allocator@H@std@@@std@@QAE@XZ ; std::vector<int,std::allocator<int> >::~vector<int,std::allocator<int> >
  00127	83 c6 0c	 add	 esi, 12			; 0000000cH
  0012a	3b f7		 cmp	 esi, edi
  0012c	75 f2		 jne	 SHORT $LL35@LoadLevel
; File C:\IAGOS\server\v18\Source\Source\_Common\couple.cpp

; 269  : }

  0012e	8b 45 08	 mov	 eax, DWORD PTR __Newlast$1$[ebp]
  00131	5f		 pop	 edi
  00132	5e		 pop	 esi
  00133	89 43 04	 mov	 DWORD PTR [ebx+4], eax
  00136	5b		 pop	 ebx
  00137	8b e5		 mov	 esp, ebp
  00139	5d		 pop	 ebp
  0013a	c2 04 00	 ret	 4
$LN28@LoadLevel:
; File C:\Program Files\Microsoft Visual Studio\2022\Professional\VC\Tools\MSVC\14.44.35207\include\vector

; 1605 :         if (_Newsize > _Oldsize) { // append

  0013d	76 3f		 jbe	 SHORT $LN29@LoadLevel

; 1606 :             const auto _Oldcapacity = static_cast<size_type>(_My_data._Myend - _Myfirst);

  0013f	8b 4b 08	 mov	 ecx, DWORD PTR [ebx+8]
  00142	b8 ab aa aa 2a	 mov	 eax, 715827883		; 2aaaaaabH
  00147	2b 0b		 sub	 ecx, DWORD PTR [ebx]
  00149	f7 e9		 imul	 ecx
  0014b	d1 fa		 sar	 edx, 1
  0014d	8b c2		 mov	 eax, edx
  0014f	c1 e8 1f	 shr	 eax, 31			; 0000001fH
  00152	03 c2		 add	 eax, edx

; 1607 :             if (_Newsize > _Oldcapacity) { // reallocate

  00154	3b f0		 cmp	 esi, eax
  00156	76 15		 jbe	 SHORT $LN30@LoadLevel

; 1608 :                 _Resize_reallocate(_Newsize, _Val);

  00158	8d 45 0b	 lea	 eax, DWORD PTR $T2[ebp]
  0015b	8b cb		 mov	 ecx, ebx
  0015d	50		 push	 eax
  0015e	56		 push	 esi
  0015f	e8 00 00 00 00	 call	 ??$_Resize_reallocate@U_Value_init_tag@std@@@?$vector@V?$vector@HV?$allocator@H@std@@@std@@V?$allocator@V?$vector@HV?$allocator@H@std@@@std@@@2@@std@@AAEXIABU_Value_init_tag@1@@Z ; std::vector<std::vector<int,std::allocator<int> >,std::allocator<std::vector<int,std::allocator<int> > > >::_Resize_reallocate<std::_Value_init_tag>
  00164	5f		 pop	 edi
; File C:\IAGOS\server\v18\Source\Source\_Common\couple.cpp

; 269  : }

  00165	5e		 pop	 esi
  00166	5b		 pop	 ebx
  00167	8b e5		 mov	 esp, ebp
  00169	5d		 pop	 ebp
  0016a	c2 04 00	 ret	 4
$LN30@LoadLevel:
; File C:\Program Files\Microsoft Visual Studio\2022\Professional\VC\Tools\MSVC\14.44.35207\include\vector

; 1618 :                 _Mylast = _Uninitialized_value_construct_n(_Oldlast, _Newsize - _Oldsize, _Al);

  0016d	2b 75 08	 sub	 esi, DWORD PTR __Oldsize$1$[ebp]
  00170	53		 push	 ebx
  00171	56		 push	 esi
  00172	57		 push	 edi
  00173	e8 00 00 00 00	 call	 ??$_Uninitialized_value_construct_n@V?$allocator@V?$vector@HV?$allocator@H@std@@@std@@@std@@@std@@YAPAV?$vector@HV?$allocator@H@std@@@0@PAV10@IAAV?$allocator@V?$vector@HV?$allocator@H@std@@@std@@@0@@Z ; std::_Uninitialized_value_construct_n<std::allocator<std::vector<int,std::allocator<int> > > >
  00178	83 c4 0c	 add	 esp, 12			; 0000000cH
$LN34@LoadLevel:
; File C:\IAGOS\server\v18\Source\Source\_Common\couple.cpp

; 269  : }

  0017b	89 43 04	 mov	 DWORD PTR [ebx+4], eax
$LN29@LoadLevel:
  0017e	5f		 pop	 edi
  0017f	5e		 pop	 esi
  00180	5b		 pop	 ebx
  00181	8b e5		 mov	 esp, ebp
  00183	5d		 pop	 ebp
  00184	c2 04 00	 ret	 4
?LoadLevel@CCoupleProperty@@AAEXAAVCScript@@@Z ENDP	; CCoupleProperty::LoadLevel
_TEXT	ENDS
; Function compile flags: /Ogtp
; File C:\IAGOS\server\v18\Source\Source\_Common\couple.cpp
;	COMDAT ?GetExperienceRate@CCoupleProperty@@QAEMHH@Z
_TEXT	SEGMENT
_nLevel$ = 8						; size = 4
tv77 = 8						; size = 4
_nExperience$ = 12					; size = 4
?GetExperienceRate@CCoupleProperty@@QAEMHH@Z PROC	; CCoupleProperty::GetExperienceRate, COMDAT
; _this$ = ecx

; 378  : {

  00000	55		 push	 ebp
  00001	8b ec		 mov	 ebp, esp
  00003	53		 push	 ebx
  00004	56		 push	 esi

; 379  : 	int nTotal	= GetExperienceRequired( nLevel );

  00005	ff 75 08	 push	 DWORD PTR _nLevel$[ebp]
  00008	8b f1		 mov	 esi, ecx
  0000a	e8 00 00 00 00	 call	 ?GetExperienceRequired@CCoupleProperty@@QAEHH@Z ; CCoupleProperty::GetExperienceRequired
  0000f	8b d8		 mov	 ebx, eax

; 380  : 	if( nTotal == 0 )

  00011	85 db		 test	 ebx, ebx
  00013	75 08		 jne	 SHORT $LN2@GetExperie

; 381  : 		return 0.0F;

  00015	d9 ee		 fldz
  00017	5e		 pop	 esi

; 384  : }

  00018	5b		 pop	 ebx
  00019	5d		 pop	 ebp
  0001a	c2 08 00	 ret	 8
$LN2@GetExperie:

; 382  : 
; 383  : 	return static_cast<float>( nExperience - GetTotalExperience( nLevel ) ) / static_cast<float>( nTotal );

  0001d	ff 75 08	 push	 DWORD PTR _nLevel$[ebp]
  00020	8b ce		 mov	 ecx, esi
  00022	e8 00 00 00 00	 call	 ?GetTotalExperience@CCoupleProperty@@QAEHH@Z ; CCoupleProperty::GetTotalExperience
  00027	8b 4d 0c	 mov	 ecx, DWORD PTR _nExperience$[ebp]
  0002a	2b c8		 sub	 ecx, eax
  0002c	66 0f 6e c3	 movd	 xmm0, ebx
  00030	0f 5b c0	 cvtdq2ps xmm0, xmm0
  00033	5e		 pop	 esi

; 384  : }

  00034	5b		 pop	 ebx
  00035	66 0f 6e c9	 movd	 xmm1, ecx
  00039	0f 5b c9	 cvtdq2ps xmm1, xmm1
  0003c	f3 0f 5e c8	 divss	 xmm1, xmm0
  00040	f3 0f 11 4d 08	 movss	 DWORD PTR tv77[ebp], xmm1
  00045	d9 45 08	 fld	 DWORD PTR tv77[ebp]
  00048	5d		 pop	 ebp
  00049	c2 08 00	 ret	 8
?GetExperienceRate@CCoupleProperty@@QAEMHH@Z ENDP	; CCoupleProperty::GetExperienceRate
_TEXT	ENDS
; Function compile flags: /Ogtp
; File C:\IAGOS\server\v18\Source\Source\_Common\couple.cpp
;	COMDAT ?GetExperienceRequired@CCoupleProperty@@QAEHH@Z
_TEXT	SEGMENT
_nLevel$ = 8						; size = 4
?GetExperienceRequired@CCoupleProperty@@QAEHH@Z PROC	; CCoupleProperty::GetExperienceRequired, COMDAT
; _this$ = ecx

; 371  : {

  00000	55		 push	 ebp
  00001	8b ec		 mov	 ebp, esp
  00003	53		 push	 ebx
  00004	57		 push	 edi

; 372  : 	if ( nLevel == CCouple::eMaxLevel )

  00005	8b 7d 08	 mov	 edi, DWORD PTR _nLevel$[ebp]
  00008	8b d9		 mov	 ebx, ecx
  0000a	83 ff 15	 cmp	 edi, 21			; 00000015H
  0000d	75 08		 jne	 SHORT $LN2@GetExperie

; 373  : 		return 0;

  0000f	5f		 pop	 edi
  00010	33 c0		 xor	 eax, eax

; 375  : }

  00012	5b		 pop	 ebx
  00013	5d		 pop	 ebp
  00014	c2 04 00	 ret	 4
$LN2@GetExperie:
  00017	56		 push	 esi

; 374  : 	return GetTotalExperience( nLevel + 1 ) - GetTotalExperience( nLevel );

  00018	8d 47 01	 lea	 eax, DWORD PTR [edi+1]
  0001b	50		 push	 eax
  0001c	e8 00 00 00 00	 call	 ?GetTotalExperience@CCoupleProperty@@QAEHH@Z ; CCoupleProperty::GetTotalExperience
  00021	57		 push	 edi
  00022	8b cb		 mov	 ecx, ebx
  00024	8b f0		 mov	 esi, eax
  00026	e8 00 00 00 00	 call	 ?GetTotalExperience@CCoupleProperty@@QAEHH@Z ; CCoupleProperty::GetTotalExperience
  0002b	2b f0		 sub	 esi, eax
  0002d	8b c6		 mov	 eax, esi
  0002f	5e		 pop	 esi
  00030	5f		 pop	 edi

; 375  : }

  00031	5b		 pop	 ebx
  00032	5d		 pop	 ebp
  00033	c2 04 00	 ret	 4
?GetExperienceRequired@CCoupleProperty@@QAEHH@Z ENDP	; CCoupleProperty::GetExperienceRequired
_TEXT	ENDS
; Function compile flags: /Ogtp
; File C:\IAGOS\server\v18\Source\Source\_Common\couple.cpp
;	COMDAT ?GetTotalExperience@CCoupleProperty@@QAEHH@Z
_TEXT	SEGMENT
_nLevel$ = 8						; size = 4
?GetTotalExperience@CCoupleProperty@@QAEHH@Z PROC	; CCoupleProperty::GetTotalExperience, COMDAT
; _this$ = ecx

; 365  : {

  00000	55		 push	 ebp
  00001	8b ec		 mov	 ebp, esp

; 366  : 	ASSERT( nLevel <= (int)( m_vExp.size() ) );
; 367  : 	return m_vExp[nLevel-1];

  00003	8b 49 04	 mov	 ecx, DWORD PTR [ecx+4]
  00006	8b 45 08	 mov	 eax, DWORD PTR _nLevel$[ebp]
  00009	8b 44 81 fc	 mov	 eax, DWORD PTR [ecx+eax*4-4]

; 368  : }

  0000d	5d		 pop	 ebp
  0000e	c2 04 00	 ret	 4
?GetTotalExperience@CCoupleProperty@@QAEHH@Z ENDP	; CCoupleProperty::GetTotalExperience
_TEXT	ENDS
; Function compile flags: /Ogtp
; File C:\IAGOS\server\v18\Source\Source\_Common\couple.cpp
; File C:\Program Files\Microsoft Visual Studio\2022\Professional\VC\Tools\MSVC\14.44.35207\atlmfc\include\cstringt.h
; File C:\IAGOS\server\v18\Source\Source\_Common\couple.cpp
; File C:\Program Files\Microsoft Visual Studio\2022\Professional\VC\Tools\MSVC\14.44.35207\atlmfc\include\cstringt.h
; File C:\IAGOS\server\v18\Source\Source\_Common\couple.cpp
; File C:\Program Files\Microsoft Visual Studio\2022\Professional\VC\Tools\MSVC\14.44.35207\atlmfc\include\cstringt.h
; File C:\IAGOS\server\v18\Source\Source\_Common\couple.cpp
; File C:\Program Files\Microsoft Visual Studio\2022\Professional\VC\Tools\MSVC\14.44.35207\atlmfc\include\cstringt.h
; File C:\IAGOS\server\v18\Source\Source\_Common\couple.cpp
;	COMDAT ?Initialize@CCoupleProperty@@QAEHXZ
_TEXT	SEGMENT
_s$ = -7800						; size = 7784
__$ArrayPad$ = -16					; size = 4
__$EHRec$ = -12						; size = 12
?Initialize@CCoupleProperty@@QAEHXZ PROC		; CCoupleProperty::Initialize, COMDAT
; _this$ = ecx

; 235  : {

  00000	55		 push	 ebp
  00001	8b ec		 mov	 ebp, esp
  00003	6a ff		 push	 -1
  00005	68 00 00 00 00	 push	 __ehhandler$?Initialize@CCoupleProperty@@QAEHXZ
  0000a	64 a1 00 00 00
	00		 mov	 eax, DWORD PTR fs:0
  00010	50		 push	 eax
  00011	b8 6c 1e 00 00	 mov	 eax, 7788		; 00001e6cH
  00016	e8 00 00 00 00	 call	 __chkstk
  0001b	a1 00 00 00 00	 mov	 eax, DWORD PTR ___security_cookie
  00020	33 c5		 xor	 eax, ebp
  00022	89 45 f0	 mov	 DWORD PTR __$ArrayPad$[ebp], eax
  00025	56		 push	 esi
  00026	50		 push	 eax
  00027	8d 45 f4	 lea	 eax, DWORD PTR __$EHRec$[ebp]
  0002a	64 a3 00 00 00
	00		 mov	 DWORD PTR fs:0, eax
  00030	8b f1		 mov	 esi, ecx

; 236  : 	CScript s;

  00032	6a 00		 push	 0
  00034	8d 8d 88 e1 ff
	ff		 lea	 ecx, DWORD PTR _s$[ebp]
  0003a	e8 00 00 00 00	 call	 ??0CScript@@QAE@H@Z	; CScript::CScript

; 237  : 	if( s.Load( "couple.inc" ) == FALSE )

  0003f	6a 00		 push	 0
  00041	6a 01		 push	 1
  00043	68 00 00 00 00	 push	 OFFSET ??_C@_0L@ELKPLJAH@couple?4inc@
  00048	8d 8d 88 e1 ff
	ff		 lea	 ecx, DWORD PTR _s$[ebp]
  0004e	c7 45 fc 00 00
	00 00		 mov	 DWORD PTR __$EHRec$[ebp+8], 0
  00055	e8 00 00 00 00	 call	 ?Load@CScript@@QAEHPBDHH@Z ; CScript::Load
  0005a	85 c0		 test	 eax, eax
  0005c	75 07		 jne	 SHORT $LN4@Initialize
  0005e	33 f6		 xor	 esi, esi
  00060	e9 d4 00 00 00	 jmp	 $LN14@Initialize
$LN4@Initialize:

; 238  : 		return FALSE;
; 239  : 	s.GetToken();

  00065	6a 00		 push	 0
  00067	8d 8d 88 e1 ff
	ff		 lea	 ecx, DWORD PTR _s$[ebp]
  0006d	e8 00 00 00 00	 call	 ?GetToken@CScript@@UAEHH@Z ; CScript::GetToken

; 240  : 	while( s.tok != FINISHED )

  00072	83 bd cc e9 ff
	ff 15		 cmp	 DWORD PTR _s$[ebp+2116], 21 ; 00000015H
  00079	0f 84 b5 00 00
	00		 je	 $LN3@Initialize
  0007f	90		 npad	 1
$LL2@Initialize:
; File C:\Program Files\Microsoft Visual Studio\2022\Professional\VC\Tools\MSVC\14.44.35207\atlmfc\include\cstringt.h

; 184  : 		return _mbscmp( reinterpret_cast< const unsigned char* >( pszA ), reinterpret_cast< const unsigned char* >( pszB ) );

  00080	68 00 00 00 00	 push	 OFFSET ??_C@_05KOHFLOFG@Level@
  00085	ff b5 a8 e1 ff
	ff		 push	 DWORD PTR _s$[ebp+32]
  0008b	e8 00 00 00 00	 call	 __mbscmp
  00090	83 c4 08	 add	 esp, 8

; 2490 : 		return(str1.Compare(psz2) == 0);

  00093	85 c0		 test	 eax, eax
; File C:\IAGOS\server\v18\Source\Source\_Common\couple.cpp

; 242  : 		if( s.Token == _T( "Level" ) )

  00095	75 10		 jne	 SHORT $LN37@Initialize

; 243  : 			LoadLevel( s );

  00097	8d 85 88 e1 ff
	ff		 lea	 eax, DWORD PTR _s$[ebp]
  0009d	8b ce		 mov	 ecx, esi
  0009f	50		 push	 eax
  000a0	e8 00 00 00 00	 call	 ?LoadLevel@CCoupleProperty@@AAEXAAVCScript@@@Z ; CCoupleProperty::LoadLevel
  000a5	eb 73		 jmp	 SHORT $LN11@Initialize
$LN37@Initialize:
; File C:\Program Files\Microsoft Visual Studio\2022\Professional\VC\Tools\MSVC\14.44.35207\atlmfc\include\cstringt.h

; 184  : 		return _mbscmp( reinterpret_cast< const unsigned char* >( pszA ), reinterpret_cast< const unsigned char* >( pszB ) );

  000a7	68 00 00 00 00	 push	 OFFSET ??_C@_04BGCMBJDA@Item@
  000ac	ff b5 a8 e1 ff
	ff		 push	 DWORD PTR _s$[ebp+32]
  000b2	e8 00 00 00 00	 call	 __mbscmp
  000b7	83 c4 08	 add	 esp, 8

; 2490 : 		return(str1.Compare(psz2) == 0);

  000ba	85 c0		 test	 eax, eax
; File C:\IAGOS\server\v18\Source\Source\_Common\couple.cpp

; 244  : 		else if( s.Token == _T( "Item" ) )

  000bc	75 10		 jne	 SHORT $LN53@Initialize

; 245  : 			LoadItem( s );

  000be	8d 85 88 e1 ff
	ff		 lea	 eax, DWORD PTR _s$[ebp]
  000c4	8b ce		 mov	 ecx, esi
  000c6	50		 push	 eax
  000c7	e8 00 00 00 00	 call	 ?LoadItem@CCoupleProperty@@AAEXAAVCScript@@@Z ; CCoupleProperty::LoadItem
  000cc	eb 4c		 jmp	 SHORT $LN11@Initialize
$LN53@Initialize:
; File C:\Program Files\Microsoft Visual Studio\2022\Professional\VC\Tools\MSVC\14.44.35207\atlmfc\include\cstringt.h

; 184  : 		return _mbscmp( reinterpret_cast< const unsigned char* >( pszA ), reinterpret_cast< const unsigned char* >( pszB ) );

  000ce	68 00 00 00 00	 push	 OFFSET ??_C@_09EGDBHOMD@SkillKind@
  000d3	ff b5 a8 e1 ff
	ff		 push	 DWORD PTR _s$[ebp+32]
  000d9	e8 00 00 00 00	 call	 __mbscmp
  000de	83 c4 08	 add	 esp, 8

; 2490 : 		return(str1.Compare(psz2) == 0);

  000e1	85 c0		 test	 eax, eax
; File C:\IAGOS\server\v18\Source\Source\_Common\couple.cpp

; 246  : 		else if( s.Token == _T( "SkillKind" ) )

  000e3	75 10		 jne	 SHORT $LN69@Initialize

; 247  : 			LoadSkillKind( s );

  000e5	8d 85 88 e1 ff
	ff		 lea	 eax, DWORD PTR _s$[ebp]
  000eb	8b ce		 mov	 ecx, esi
  000ed	50		 push	 eax
  000ee	e8 00 00 00 00	 call	 ?LoadSkillKind@CCoupleProperty@@AAEXAAVCScript@@@Z ; CCoupleProperty::LoadSkillKind
  000f3	eb 25		 jmp	 SHORT $LN11@Initialize
$LN69@Initialize:
; File C:\Program Files\Microsoft Visual Studio\2022\Professional\VC\Tools\MSVC\14.44.35207\atlmfc\include\cstringt.h

; 184  : 		return _mbscmp( reinterpret_cast< const unsigned char* >( pszA ), reinterpret_cast< const unsigned char* >( pszB ) );

  000f5	68 00 00 00 00	 push	 OFFSET ??_C@_0L@IHPJEOCB@SkillLevel@
  000fa	ff b5 a8 e1 ff
	ff		 push	 DWORD PTR _s$[ebp+32]
  00100	e8 00 00 00 00	 call	 __mbscmp
  00105	83 c4 08	 add	 esp, 8

; 2490 : 		return(str1.Compare(psz2) == 0);

  00108	85 c0		 test	 eax, eax
; File C:\IAGOS\server\v18\Source\Source\_Common\couple.cpp

; 248  : 		else if( s.Token == _T( "SkillLevel" ) )

  0010a	75 0e		 jne	 SHORT $LN11@Initialize

; 249  : 			LoadSkillLevel( s );

  0010c	8d 85 88 e1 ff
	ff		 lea	 eax, DWORD PTR _s$[ebp]
  00112	8b ce		 mov	 ecx, esi
  00114	50		 push	 eax
  00115	e8 00 00 00 00	 call	 ?LoadSkillLevel@CCoupleProperty@@AAEXAAVCScript@@@Z ; CCoupleProperty::LoadSkillLevel
$LN11@Initialize:

; 250  : 		s.GetToken();

  0011a	6a 00		 push	 0
  0011c	8d 8d 88 e1 ff
	ff		 lea	 ecx, DWORD PTR _s$[ebp]
  00122	e8 00 00 00 00	 call	 ?GetToken@CScript@@UAEHH@Z ; CScript::GetToken
  00127	83 bd cc e9 ff
	ff 15		 cmp	 DWORD PTR _s$[ebp+2116], 21 ; 00000015H
  0012e	0f 85 4c ff ff
	ff		 jne	 $LL2@Initialize
$LN3@Initialize:

; 251  : 	}
; 252  : 	return TRUE;

  00134	be 01 00 00 00	 mov	 esi, 1
$LN14@Initialize:
  00139	8d 8d 88 e1 ff
	ff		 lea	 ecx, DWORD PTR _s$[ebp]
  0013f	e8 00 00 00 00	 call	 ??1CScript@@UAE@XZ	; CScript::~CScript
  00144	8b c6		 mov	 eax, esi

; 253  : }

  00146	8b 4d f4	 mov	 ecx, DWORD PTR __$EHRec$[ebp]
  00149	64 89 0d 00 00
	00 00		 mov	 DWORD PTR fs:0, ecx
  00150	59		 pop	 ecx
  00151	5e		 pop	 esi
  00152	8b 4d f0	 mov	 ecx, DWORD PTR __$ArrayPad$[ebp]
  00155	33 cd		 xor	 ecx, ebp
  00157	e8 00 00 00 00	 call	 @__security_check_cookie@4
  0015c	8b e5		 mov	 esp, ebp
  0015e	5d		 pop	 ebp
  0015f	c3		 ret	 0
_TEXT	ENDS
;	COMDAT text$x
text$x	SEGMENT
__unwindfunclet$?Initialize@CCoupleProperty@@QAEHXZ$0:
  00000	8d 8d 88 e1 ff
	ff		 lea	 ecx, DWORD PTR _s$[ebp]
  00006	e9 00 00 00 00	 jmp	 ??1CScript@@UAE@XZ	; CScript::~CScript
  0000b	cc		 int	 3
  0000c	cc		 int	 3
  0000d	cc		 int	 3
  0000e	cc		 int	 3
  0000f	cc		 int	 3
__ehhandler$?Initialize@CCoupleProperty@@QAEHXZ:
  00010	90		 npad	 1
  00011	90		 npad	 1
  00012	8b 54 24 08	 mov	 edx, DWORD PTR [esp+8]
  00016	8d 42 0c	 lea	 eax, DWORD PTR [edx+12]
  00019	8b 8a 8c e1 ff
	ff		 mov	 ecx, DWORD PTR [edx-7796]
  0001f	33 c8		 xor	 ecx, eax
  00021	e8 00 00 00 00	 call	 @__security_check_cookie@4
  00026	8b 4a fc	 mov	 ecx, DWORD PTR [edx-4]
  00029	33 c8		 xor	 ecx, eax
  0002b	e8 00 00 00 00	 call	 @__security_check_cookie@4
  00030	b8 00 00 00 00	 mov	 eax, OFFSET __ehfuncinfo$?Initialize@CCoupleProperty@@QAEHXZ
  00035	e9 00 00 00 00	 jmp	 ___CxxFrameHandler3
text$x	ENDS
?Initialize@CCoupleProperty@@QAEHXZ ENDP		; CCoupleProperty::Initialize
; Function compile flags: /Ogtp
; File C:\IAGOS\server\v18\Source\Source\_Common\couple.cpp
; File C:\Program Files\Microsoft Visual Studio\2022\Professional\VC\Tools\MSVC\14.44.35207\include\vector
; File C:\IAGOS\server\v18\Source\Source\_Common\couple.cpp
; File C:\Program Files\Microsoft Visual Studio\2022\Professional\VC\Tools\MSVC\14.44.35207\include\vector
; File C:\IAGOS\server\v18\Source\Source\_Common\couple.cpp
;	COMDAT ?GetLevel@CCoupleProperty@@QAEHH@Z
_TEXT	SEGMENT
_nExperience$ = 8					; size = 4
?GetLevel@CCoupleProperty@@QAEHH@Z PROC			; CCoupleProperty::GetLevel, COMDAT
; _this$ = ecx

; 343  : {

  00000	55		 push	 ebp
  00001	8b ec		 mov	 ebp, esp
; File C:\Program Files\Microsoft Visual Studio\2022\Professional\VC\Tools\MSVC\14.44.35207\include\vector

; 1915 :         return static_cast<size_type>(_My_data._Mylast - _My_data._Myfirst);

  00003	8b 51 04	 mov	 edx, DWORD PTR [ecx+4]
; File C:\IAGOS\server\v18\Source\Source\_Common\couple.cpp

; 344  : 	for( int i = 0; i <(int)( m_vExp.size() ); i++ )

  00006	33 c0		 xor	 eax, eax
; File C:\Program Files\Microsoft Visual Studio\2022\Professional\VC\Tools\MSVC\14.44.35207\include\vector

; 1915 :         return static_cast<size_type>(_My_data._Mylast - _My_data._Myfirst);

  00008	8b 49 08	 mov	 ecx, DWORD PTR [ecx+8]
  0000b	2b ca		 sub	 ecx, edx
  0000d	c1 f9 02	 sar	 ecx, 2
; File C:\IAGOS\server\v18\Source\Source\_Common\couple.cpp

; 343  : {

  00010	56		 push	 esi

; 344  : 	for( int i = 0; i <(int)( m_vExp.size() ); i++ )

  00011	85 c9		 test	 ecx, ecx
  00013	7e 0f		 jle	 SHORT $LN3@GetLevel
  00015	8b 75 08	 mov	 esi, DWORD PTR _nExperience$[ebp]
$LL4@GetLevel:

; 345  : 	{
; 346  : 		if( nExperience < m_vExp[i] )

  00018	3b 32		 cmp	 esi, DWORD PTR [edx]
  0001a	7c 0d		 jl	 SHORT $LN1@GetLevel

; 344  : 	for( int i = 0; i <(int)( m_vExp.size() ); i++ )

  0001c	40		 inc	 eax
  0001d	83 c2 04	 add	 edx, 4
  00020	3b c1		 cmp	 eax, ecx
  00022	7c f4		 jl	 SHORT $LL4@GetLevel
$LN3@GetLevel:

; 347  : 			return i;
; 348  : 	}
; 349  : 	return 1;

  00024	b8 01 00 00 00	 mov	 eax, 1
$LN1@GetLevel:
  00029	5e		 pop	 esi

; 350  : }

  0002a	5d		 pop	 ebp
  0002b	c2 04 00	 ret	 4
?GetLevel@CCoupleProperty@@QAEHH@Z ENDP			; CCoupleProperty::GetLevel
_TEXT	ENDS
; Function compile flags: /Ogtp
; File C:\IAGOS\server\v18\Source\Source\_Common\couple.cpp
; File C:\Program Files\Microsoft Visual Studio\2022\Professional\VC\Tools\MSVC\14.44.35207\include\vector
; File C:\IAGOS\server\v18\Source\Source\_Common\couple.cpp
;	COMDAT ?GetSkill@CCoupleProperty@@QAEAAV?$vector@HV?$allocator@H@std@@@std@@H@Z
_TEXT	SEGMENT
_nLevel$ = 8						; size = 4
?GetSkill@CCoupleProperty@@QAEAAV?$vector@HV?$allocator@H@std@@@std@@H@Z PROC ; CCoupleProperty::GetSkill, COMDAT
; _this$ = ecx

; 353  : {

  00000	55		 push	 ebp
  00001	8b ec		 mov	 ebp, esp
; File C:\Program Files\Microsoft Visual Studio\2022\Professional\VC\Tools\MSVC\14.44.35207\include\vector

; 1934 :         return _My_data._Myfirst[_Pos];

  00003	8b 45 08	 mov	 eax, DWORD PTR _nLevel$[ebp]
  00006	8d 14 40	 lea	 edx, DWORD PTR [eax+eax*2]
  00009	8b 41 28	 mov	 eax, DWORD PTR [ecx+40]
  0000c	8d 04 90	 lea	 eax, DWORD PTR [eax+edx*4]
  0000f	83 c0 f4	 add	 eax, -12		; fffffff4H
; File C:\IAGOS\server\v18\Source\Source\_Common\couple.cpp

; 356  : }

  00012	5d		 pop	 ebp
  00013	c2 04 00	 ret	 4
?GetSkill@CCoupleProperty@@QAEAAV?$vector@HV?$allocator@H@std@@@std@@H@Z ENDP ; CCoupleProperty::GetSkill
_TEXT	ENDS
; Function compile flags: /Ogtp
; File C:\IAGOS\server\v18\Source\Source\_Common\couple.cpp
; File C:\Program Files\Microsoft Visual Studio\2022\Professional\VC\Tools\MSVC\14.44.35207\include\vector
; File C:\IAGOS\server\v18\Source\Source\_Common\couple.cpp
;	COMDAT ?GetItems@CCoupleProperty@@QAEAAV?$vector@U_COUPLE_ITEM@@V?$allocator@U_COUPLE_ITEM@@@std@@@std@@H@Z
_TEXT	SEGMENT
_nLevel$ = 8						; size = 4
?GetItems@CCoupleProperty@@QAEAAV?$vector@U_COUPLE_ITEM@@V?$allocator@U_COUPLE_ITEM@@@std@@@std@@H@Z PROC ; CCoupleProperty::GetItems, COMDAT
; _this$ = ecx

; 295  : {

  00000	55		 push	 ebp
  00001	8b ec		 mov	 ebp, esp
; File C:\Program Files\Microsoft Visual Studio\2022\Professional\VC\Tools\MSVC\14.44.35207\include\vector

; 1934 :         return _My_data._Myfirst[_Pos];

  00003	8b 45 08	 mov	 eax, DWORD PTR _nLevel$[ebp]
  00006	8d 14 40	 lea	 edx, DWORD PTR [eax+eax*2]
  00009	8b 41 10	 mov	 eax, DWORD PTR [ecx+16]
  0000c	8d 04 90	 lea	 eax, DWORD PTR [eax+edx*4]
  0000f	83 c0 f4	 add	 eax, -12		; fffffff4H
; File C:\IAGOS\server\v18\Source\Source\_Common\couple.cpp

; 298  : }

  00012	5d		 pop	 ebp
  00013	c2 04 00	 ret	 4
?GetItems@CCoupleProperty@@QAEAAV?$vector@U_COUPLE_ITEM@@V?$allocator@U_COUPLE_ITEM@@@std@@@std@@H@Z ENDP ; CCoupleProperty::GetItems
_TEXT	ENDS
; Function compile flags: /Ogtp
; File C:\IAGOS\server\v18\Source\Source\_Common\couple.cpp
;	COMDAT ?Instance@CCoupleProperty@@SAPAV1@XZ
_TEXT	SEGMENT
?Instance@CCoupleProperty@@SAPAV1@XZ PROC		; CCoupleProperty::Instance, COMDAT

; 360  : 	static CCoupleProperty sCoupleProperty;

  00000	64 a1 00 00 00
	00		 mov	 eax, DWORD PTR fs:__tls_array
  00006	8b 0d 00 00 00
	00		 mov	 ecx, DWORD PTR __tls_index
  0000c	8b 0c 88	 mov	 ecx, DWORD PTR [eax+ecx*4]
  0000f	a1 00 00 00 00	 mov	 eax, DWORD PTR ?$TSS0@?1??Instance@CCoupleProperty@@SAPAV2@XZ@4HA
  00014	3b 81 00 00 00
	00		 cmp	 eax, DWORD PTR __Init_thread_epoch[ecx]
  0001a	7f 06		 jg	 SHORT $LN8@Instance
$LN5@Instance:

; 361  : 	return &sCoupleProperty;
; 362  : }

  0001c	b8 00 00 00 00	 mov	 eax, OFFSET ?sCoupleProperty@?1??Instance@CCoupleProperty@@SAPAV2@XZ@4V2@A
  00021	c3		 ret	 0
$LN8@Instance:

; 360  : 	static CCoupleProperty sCoupleProperty;

  00022	68 00 00 00 00	 push	 OFFSET ?$TSS0@?1??Instance@CCoupleProperty@@SAPAV2@XZ@4HA
  00027	e8 00 00 00 00	 call	 __Init_thread_header
  0002c	83 c4 04	 add	 esp, 4
  0002f	83 3d 00 00 00
	00 ff		 cmp	 DWORD PTR ?$TSS0@?1??Instance@CCoupleProperty@@SAPAV2@XZ@4HA, -1
  00036	75 e4		 jne	 SHORT $LN5@Instance
  00038	b9 00 00 00 00	 mov	 ecx, OFFSET ?sCoupleProperty@?1??Instance@CCoupleProperty@@SAPAV2@XZ@4V2@A
  0003d	e8 00 00 00 00	 call	 ??0CCoupleProperty@@QAE@XZ ; CCoupleProperty::CCoupleProperty
  00042	68 00 00 00 00	 push	 OFFSET ??__FsCoupleProperty@?1??Instance@CCoupleProperty@@SAPAV1@XZ@YAXXZ ; `CCoupleProperty::Instance'::`2'::`dynamic atexit destructor for 'sCoupleProperty''
  00047	e8 00 00 00 00	 call	 _atexit
  0004c	68 00 00 00 00	 push	 OFFSET ?$TSS0@?1??Instance@CCoupleProperty@@SAPAV2@XZ@4HA
  00051	e8 00 00 00 00	 call	 __Init_thread_footer
  00056	83 c4 08	 add	 esp, 8
  00059	eb c1		 jmp	 SHORT $LN5@Instance
?Instance@CCoupleProperty@@SAPAV1@XZ ENDP		; CCoupleProperty::Instance
_TEXT	ENDS
; Function compile flags: /Ogtp
; File C:\IAGOS\server\v18\Source\Source\_Common\couple.cpp
; File C:\Program Files\Microsoft Visual Studio\2022\Professional\VC\Tools\MSVC\14.44.35207\include\vector
; File C:\IAGOS\server\v18\Source\Source\_Common\couple.cpp
; File C:\Program Files\Microsoft Visual Studio\2022\Professional\VC\Tools\MSVC\14.44.35207\include\vector
; File C:\IAGOS\server\v18\Source\Source\_Common\couple.cpp
; File C:\Program Files\Microsoft Visual Studio\2022\Professional\VC\Tools\MSVC\14.44.35207\include\vector
; File C:\IAGOS\server\v18\Source\Source\_Common\couple.cpp
; File C:\Program Files\Microsoft Visual Studio\2022\Professional\VC\Tools\MSVC\14.44.35207\include\vector
; File C:\Program Files\Microsoft Visual Studio\2022\Professional\VC\Tools\MSVC\14.44.35207\include\xmemory
; File C:\Program Files\Microsoft Visual Studio\2022\Professional\VC\Tools\MSVC\14.44.35207\include\vector
; File C:\IAGOS\server\v18\Source\Source\_Common\couple.cpp
;	COMDAT ??1CCoupleProperty@@UAE@XZ
_TEXT	SEGMENT
__My_data$1$ = -12					; size = 4
__My_data$1$ = -8					; size = 4
__My_data$1$ = -4					; size = 4
??1CCoupleProperty@@UAE@XZ PROC				; CCoupleProperty::~CCoupleProperty, COMDAT
; _this$ = ecx

; 227  : {

  00000	55		 push	 ebp
  00001	8b ec		 mov	 ebp, esp
  00003	83 ec 0c	 sub	 esp, 12			; 0000000cH
  00006	53		 push	 ebx
  00007	56		 push	 esi
  00008	8b f1		 mov	 esi, ecx
; File C:\Program Files\Microsoft Visual Studio\2022\Professional\VC\Tools\MSVC\14.44.35207\include\vector

; 1808 :         auto& _My_data    = _Mypair._Myval2;

  0000a	8d 4e 04	 lea	 ecx, DWORD PTR [esi+4]
; File C:\IAGOS\server\v18\Source\Source\_Common\couple.cpp

; 227  : {

  0000d	57		 push	 edi
; File C:\Program Files\Microsoft Visual Studio\2022\Professional\VC\Tools\MSVC\14.44.35207\include\vector

; 1808 :         auto& _My_data    = _Mypair._Myval2;

  0000e	89 4d f4	 mov	 DWORD PTR __My_data$1$[ebp], ecx
; File C:\IAGOS\server\v18\Source\Source\_Common\couple.cpp

; 227  : {

  00011	c7 06 00 00 00
	00		 mov	 DWORD PTR [esi], OFFSET ??_7CCoupleProperty@@6B@
; File C:\Program Files\Microsoft Visual Studio\2022\Professional\VC\Tools\MSVC\14.44.35207\include\vector

; 1812 :         if (_Myfirst == _Mylast) { // already empty, nothing to do

  00017	8b 01		 mov	 eax, DWORD PTR [ecx]
  00019	3b 41 04	 cmp	 eax, DWORD PTR [ecx+4]
  0001c	74 03		 je	 SHORT $LN4@CCouplePro

; 1822 :         _Mylast = _Myfirst;

  0001e	89 41 04	 mov	 DWORD PTR [ecx+4], eax
$LN4@CCouplePro:

; 1812 :         if (_Myfirst == _Mylast) { // already empty, nothing to do

  00021	8b 46 10	 mov	 eax, DWORD PTR [esi+16]
; File C:\IAGOS\server\v18\Source\Source\_Common\couple.cpp

; 229  : 	m_vItems.clear();

  00024	8d 7e 10	 lea	 edi, DWORD PTR [esi+16]
; File C:\Program Files\Microsoft Visual Studio\2022\Professional\VC\Tools\MSVC\14.44.35207\include\vector

; 1812 :         if (_Myfirst == _Mylast) { // already empty, nothing to do

  00027	8b 4f 04	 mov	 ecx, DWORD PTR [edi+4]
  0002a	3b c1		 cmp	 eax, ecx
  0002c	74 10		 je	 SHORT $LN8@CCouplePro

; 1813 :             // This is an optimization for debug mode: we can avoid taking the debug lock to invalidate iterators.
; 1814 :             // Note that when clearing an empty vector, this will preserve past-the-end iterators, which is allowed by
; 1815 :             // N4950 [sequence.reqmts]/54 "a.clear() [...] may invalidate the past-the-end iterator".
; 1816 :             return;
; 1817 :         }
; 1818 : 
; 1819 :         _My_data._Orphan_all();
; 1820 :         _Destroy_range(_Myfirst, _Mylast, _Getal());

  0002e	57		 push	 edi
  0002f	51		 push	 ecx
  00030	50		 push	 eax
  00031	e8 00 00 00 00	 call	 ??$_Destroy_range@V?$allocator@V?$vector@U_COUPLE_ITEM@@V?$allocator@U_COUPLE_ITEM@@@std@@@std@@@std@@@std@@YAXPAV?$vector@U_COUPLE_ITEM@@V?$allocator@U_COUPLE_ITEM@@@std@@@0@QAV10@AAV?$allocator@V?$vector@U_COUPLE_ITEM@@V?$allocator@U_COUPLE_ITEM@@@std@@@std@@@0@@Z ; std::_Destroy_range<std::allocator<std::vector<_COUPLE_ITEM,std::allocator<_COUPLE_ITEM> > > >

; 1822 :         _Mylast = _Myfirst;

  00036	8b 07		 mov	 eax, DWORD PTR [edi]
  00038	83 c4 0c	 add	 esp, 12			; 0000000cH
  0003b	89 47 04	 mov	 DWORD PTR [edi+4], eax
$LN8@CCouplePro:

; 1812 :         if (_Myfirst == _Mylast) { // already empty, nothing to do

  0003e	8b 4e 1c	 mov	 ecx, DWORD PTR [esi+28]
  00041	8d 46 1c	 lea	 eax, DWORD PTR [esi+28]
  00044	89 45 f8	 mov	 DWORD PTR __My_data$1$[ebp], eax
  00047	3b 48 04	 cmp	 ecx, DWORD PTR [eax+4]
  0004a	74 03		 je	 SHORT $LN12@CCouplePro

; 1822 :         _Mylast = _Myfirst;

  0004c	89 48 04	 mov	 DWORD PTR [eax+4], ecx
$LN12@CCouplePro:

; 1812 :         if (_Myfirst == _Mylast) { // already empty, nothing to do

  0004f	8b 5e 2c	 mov	 ebx, DWORD PTR [esi+44]
  00052	8d 4e 28	 lea	 ecx, DWORD PTR [esi+40]
  00055	8b 31		 mov	 esi, DWORD PTR [ecx]
  00057	89 4d fc	 mov	 DWORD PTR __My_data$1$[ebp], ecx
  0005a	3b f3		 cmp	 esi, ebx
  0005c	74 18		 je	 SHORT $LN16@CCouplePro
  0005e	66 90		 npad	 2
$LL23@CCouplePro:
  00060	8b ce		 mov	 ecx, esi
  00062	e8 00 00 00 00	 call	 ??1?$vector@HV?$allocator@H@std@@@std@@QAE@XZ ; std::vector<int,std::allocator<int> >::~vector<int,std::allocator<int> >
; File C:\Program Files\Microsoft Visual Studio\2022\Professional\VC\Tools\MSVC\14.44.35207\include\xmemory

; 1102 :         for (; _First != _Last; ++_First) {

  00067	83 c6 0c	 add	 esi, 12			; 0000000cH
  0006a	3b f3		 cmp	 esi, ebx
  0006c	75 f2		 jne	 SHORT $LL23@CCouplePro
; File C:\Program Files\Microsoft Visual Studio\2022\Professional\VC\Tools\MSVC\14.44.35207\include\vector

; 1822 :         _Mylast = _Myfirst;

  0006e	8b 4d fc	 mov	 ecx, DWORD PTR __My_data$1$[ebp]
  00071	8b 01		 mov	 eax, DWORD PTR [ecx]
  00073	89 41 04	 mov	 DWORD PTR [ecx+4], eax
$LN16@CCouplePro:
; File C:\IAGOS\server\v18\Source\Source\_Common\couple.cpp

; 232  : }

  00076	e8 00 00 00 00	 call	 ??1?$vector@V?$vector@HV?$allocator@H@std@@@std@@V?$allocator@V?$vector@HV?$allocator@H@std@@@std@@@2@@std@@QAE@XZ ; std::vector<std::vector<int,std::allocator<int> >,std::allocator<std::vector<int,std::allocator<int> > > >::~vector<std::vector<int,std::allocator<int> >,std::allocator<std::vector<int,std::allocator<int> > > >
  0007b	8b 4d f8	 mov	 ecx, DWORD PTR __My_data$1$[ebp]
  0007e	e8 00 00 00 00	 call	 ??1?$vector@HV?$allocator@H@std@@@std@@QAE@XZ ; std::vector<int,std::allocator<int> >::~vector<int,std::allocator<int> >
  00083	8b cf		 mov	 ecx, edi
  00085	e8 00 00 00 00	 call	 ??1?$vector@V?$vector@U_COUPLE_ITEM@@V?$allocator@U_COUPLE_ITEM@@@std@@@std@@V?$allocator@V?$vector@U_COUPLE_ITEM@@V?$allocator@U_COUPLE_ITEM@@@std@@@std@@@2@@std@@QAE@XZ ; std::vector<std::vector<_COUPLE_ITEM,std::allocator<_COUPLE_ITEM> >,std::allocator<std::vector<_COUPLE_ITEM,std::allocator<_COUPLE_ITEM> > > >::~vector<std::vector<_COUPLE_ITEM,std::allocator<_COUPLE_ITEM> >,std::allocator<std::vector<_COUPLE_ITEM,std::allocator<_COUPLE_ITEM> > > >
  0008a	8b 4d f4	 mov	 ecx, DWORD PTR __My_data$1$[ebp]
  0008d	e8 00 00 00 00	 call	 ??1?$vector@HV?$allocator@H@std@@@std@@QAE@XZ ; std::vector<int,std::allocator<int> >::~vector<int,std::allocator<int> >
  00092	5f		 pop	 edi
  00093	5e		 pop	 esi
  00094	5b		 pop	 ebx
  00095	8b e5		 mov	 esp, ebp
  00097	5d		 pop	 ebp
  00098	c3		 ret	 0
??1CCoupleProperty@@UAE@XZ ENDP				; CCoupleProperty::~CCoupleProperty
_TEXT	ENDS
; Function compile flags: /Ogtp
; File C:\IAGOS\server\v18\Source\Source\_Common\couple.cpp
; File C:\Program Files\Microsoft Visual Studio\2022\Professional\VC\Tools\MSVC\14.44.35207\include\vector
; File C:\IAGOS\server\v18\Source\Source\_Common\couple.cpp
; File C:\Program Files\Microsoft Visual Studio\2022\Professional\VC\Tools\MSVC\14.44.35207\include\vector
; File C:\IAGOS\server\v18\Source\Source\_Common\couple.cpp
;	COMDAT ??0CCoupleProperty@@QAE@XZ
_TEXT	SEGMENT
_this$ = -4						; size = 4
??0CCoupleProperty@@QAE@XZ PROC				; CCoupleProperty::CCoupleProperty, COMDAT
; _this$ = ecx

; 223  : {

  00000	55		 push	 ebp
  00001	8b ec		 mov	 ebp, esp
  00003	51		 push	 ecx
  00004	c7 01 00 00 00
	00		 mov	 DWORD PTR [ecx], OFFSET ??_7CCoupleProperty@@6B@

; 224  : }

  0000a	8b c1		 mov	 eax, ecx
; File C:\Program Files\Microsoft Visual Studio\2022\Professional\VC\Tools\MSVC\14.44.35207\include\vector

; 400  :     _CONSTEXPR20 _Vector_val() noexcept : _Myfirst(), _Mylast(), _Myend() {}

  0000c	c7 41 04 00 00
	00 00		 mov	 DWORD PTR [ecx+4], 0
  00013	c7 41 08 00 00
	00 00		 mov	 DWORD PTR [ecx+8], 0
  0001a	c7 41 0c 00 00
	00 00		 mov	 DWORD PTR [ecx+12], 0
  00021	c7 41 10 00 00
	00 00		 mov	 DWORD PTR [ecx+16], 0
  00028	c7 41 14 00 00
	00 00		 mov	 DWORD PTR [ecx+20], 0
  0002f	c7 41 18 00 00
	00 00		 mov	 DWORD PTR [ecx+24], 0
  00036	c7 41 1c 00 00
	00 00		 mov	 DWORD PTR [ecx+28], 0
  0003d	c7 41 20 00 00
	00 00		 mov	 DWORD PTR [ecx+32], 0
  00044	c7 41 24 00 00
	00 00		 mov	 DWORD PTR [ecx+36], 0
; File C:\IAGOS\server\v18\Source\Source\_Common\couple.cpp

; 223  : {

  0004b	89 4d fc	 mov	 DWORD PTR _this$[ebp], ecx
; File C:\Program Files\Microsoft Visual Studio\2022\Professional\VC\Tools\MSVC\14.44.35207\include\vector

; 400  :     _CONSTEXPR20 _Vector_val() noexcept : _Myfirst(), _Mylast(), _Myend() {}

  0004e	c7 41 28 00 00
	00 00		 mov	 DWORD PTR [ecx+40], 0
  00055	c7 41 2c 00 00
	00 00		 mov	 DWORD PTR [ecx+44], 0
  0005c	c7 41 30 00 00
	00 00		 mov	 DWORD PTR [ecx+48], 0
; File C:\IAGOS\server\v18\Source\Source\_Common\couple.cpp

; 224  : }

  00063	8b e5		 mov	 esp, ebp
  00065	5d		 pop	 ebp
  00066	c3		 ret	 0
??0CCoupleProperty@@QAE@XZ ENDP				; CCoupleProperty::CCoupleProperty
_TEXT	ENDS
; Function compile flags: /Ogtp
;	COMDAT ??_GCCouple@@UAEPAXI@Z
_TEXT	SEGMENT
___flags$ = 8						; size = 4
??_GCCouple@@UAEPAXI@Z PROC				; CCouple::`scalar deleting destructor', COMDAT
; _this$ = ecx
  00000	55		 push	 ebp
  00001	8b ec		 mov	 ebp, esp
  00003	f6 45 08 01	 test	 BYTE PTR ___flags$[ebp], 1
  00007	56		 push	 esi
  00008	8b f1		 mov	 esi, ecx
  0000a	c7 06 00 00 00
	00		 mov	 DWORD PTR [esi], OFFSET ??_7CCouple@@6B@
  00010	74 0b		 je	 SHORT $LN5@scalar
  00012	6a 14		 push	 20			; 00000014H
  00014	56		 push	 esi
  00015	e8 00 00 00 00	 call	 ??3@YAXPAXI@Z		; operator delete
  0001a	83 c4 08	 add	 esp, 8
$LN5@scalar:
  0001d	8b c6		 mov	 eax, esi
  0001f	5e		 pop	 esi
  00020	5d		 pop	 ebp
  00021	c2 04 00	 ret	 4
??_GCCouple@@UAEPAXI@Z ENDP				; CCouple::`scalar deleting destructor'
_TEXT	ENDS
; Function compile flags: /Ogtp
; File C:\IAGOS\server\v18\Source\Source\_Common\couple.cpp
; File C:\IAGOS\server\v18\Source\Source\_Network\Misc\Include\Ar.h
; File C:\IAGOS\server\v18\Source\Source\_Common\couple.cpp
; File C:\IAGOS\server\v18\Source\Source\_Network\Misc\Include\Ar.h
; File C:\IAGOS\server\v18\Source\Source\_Common\couple.cpp
; File C:\IAGOS\server\v18\Source\Source\_Network\Misc\Include\Ar.h
; File C:\IAGOS\server\v18\Source\Source\_Common\couple.cpp
;	COMDAT ?Serialize@CCouple@@QAEXAAVCAr@@@Z
_TEXT	SEGMENT
_ar$ = 8						; size = 4
?Serialize@CCouple@@QAEXAAVCAr@@@Z PROC			; CCouple::Serialize, COMDAT
; _this$ = ecx

; 117  : {

  00000	55		 push	 ebp
  00001	8b ec		 mov	 ebp, esp
  00003	56		 push	 esi
  00004	8b f1		 mov	 esi, ecx
; File C:\IAGOS\server\v18\Source\Source\_Network\Misc\Include\Ar.h

; 146  : 	return (m_nMode & CAr::load) == 0;

  00006	8b 4d 08	 mov	 ecx, DWORD PTR _ar$[ebp]
; File C:\IAGOS\server\v18\Source\Source\_Common\couple.cpp

; 117  : {

  00009	57		 push	 edi
; File C:\IAGOS\server\v18\Source\Source\_Network\Misc\Include\Ar.h

; 146  : 	return (m_nMode & CAr::load) == 0;

  0000a	f6 01 01	 test	 BYTE PTR [ecx], 1
  0000d	8d 46 10	 lea	 eax, DWORD PTR [esi+16]
; File C:\IAGOS\server\v18\Source\Source\_Common\couple.cpp

; 118  : 	if( ar.IsStoring() )

  00010	50		 push	 eax
; File C:\IAGOS\server\v18\Source\Source\_Network\Misc\Include\Ar.h

; 146  : 	return (m_nMode & CAr::load) == 0;

  00011	8d 56 0c	 lea	 edx, DWORD PTR [esi+12]
  00014	8d 7e 04	 lea	 edi, DWORD PTR [esi+4]
; File C:\IAGOS\server\v18\Source\Source\_Common\couple.cpp

; 118  : 	if( ar.IsStoring() )

  00017	52		 push	 edx
  00018	57		 push	 edi
  00019	75 19		 jne	 SHORT $LN2@Serialize

; 119  : 	{
; 120  : 		ar << m_nExperience << m_idFirst << m_idSecond;

  0001b	e8 00 00 00 00	 call	 ??$?6H@CAr@@QAEAAV0@ABH@Z ; CAr::operator<<<int>
  00020	8b c8		 mov	 ecx, eax
  00022	e8 00 00 00 00	 call	 ??$?6K@CAr@@QAEAAV0@ABK@Z ; CAr::operator<<<unsigned long>
  00027	8b c8		 mov	 ecx, eax
  00029	e8 00 00 00 00	 call	 ??$?6K@CAr@@QAEAAV0@ABK@Z ; CAr::operator<<<unsigned long>
  0002e	5f		 pop	 edi

; 126  : 	}
; 127  : }

  0002f	5e		 pop	 esi
  00030	5d		 pop	 ebp
  00031	c2 04 00	 ret	 4
$LN2@Serialize:

; 121  : 	}
; 122  : 	else
; 123  : 	{
; 124  : 		ar >> m_nExperience >> m_idFirst >> m_idSecond;

  00034	e8 00 00 00 00	 call	 ??$?5H@CAr@@QAEAAV0@AAH@Z ; CAr::operator>><int>
  00039	8b c8		 mov	 ecx, eax
  0003b	e8 00 00 00 00	 call	 ??$?5K@CAr@@QAEAAV0@AAK@Z ; CAr::operator>><unsigned long>
  00040	8b c8		 mov	 ecx, eax
  00042	e8 00 00 00 00	 call	 ??$?5K@CAr@@QAEAAV0@AAK@Z ; CAr::operator>><unsigned long>

; 125  : 		GetLevel( TRUE );

  00047	6a 01		 push	 1
  00049	8b ce		 mov	 ecx, esi
  0004b	e8 00 00 00 00	 call	 ?GetLevel@CCouple@@QAEHH@Z ; CCouple::GetLevel
  00050	5f		 pop	 edi

; 126  : 	}
; 127  : }

  00051	5e		 pop	 esi
  00052	5d		 pop	 ebp
  00053	c2 04 00	 ret	 4
?Serialize@CCouple@@QAEXAAVCAr@@@Z ENDP			; CCouple::Serialize
_TEXT	ENDS
; Function compile flags: /Ogtp
; File C:\IAGOS\server\v18\Source\Source\_Common\couple.cpp
;	COMDAT ?OnTimer@CCouple@@QAEXXZ
_TEXT	SEGMENT
?OnTimer@CCouple@@QAEXXZ PROC				; CCouple::OnTimer, COMDAT
; _this$ = ecx

; 113  : 	AddExperience( 1 );		//

  00000	6a 01		 push	 1
  00002	e8 00 00 00 00	 call	 ?AddExperience@CCouple@@QAEHH@Z ; CCouple::AddExperience

; 114  : }

  00007	c3		 ret	 0
?OnTimer@CCouple@@QAEXXZ ENDP				; CCouple::OnTimer
_TEXT	ENDS
; Function compile flags: /Ogtp
; File C:\IAGOS\server\v18\Source\Source\_Common\couple.cpp
;	COMDAT ?GetPartner@CCouple@@QAEKK@Z
_TEXT	SEGMENT
_idPlayer$ = 8						; size = 4
?GetPartner@CCouple@@QAEKK@Z PROC			; CCouple::GetPartner, COMDAT
; _this$ = ecx

; 106  : {

  00000	55		 push	 ebp
  00001	8b ec		 mov	 ebp, esp

; 107  : 	ASSERT( HasPlayer( idPlayer ) );
; 108  : 	return m_idFirst == idPlayer? m_idSecond: m_idFirst;

  00003	8b 41 0c	 mov	 eax, DWORD PTR [ecx+12]
  00006	3b 45 08	 cmp	 eax, DWORD PTR _idPlayer$[ebp]
  00009	75 03		 jne	 SHORT $LN4@GetPartner
  0000b	8b 41 10	 mov	 eax, DWORD PTR [ecx+16]
$LN4@GetPartner:

; 109  : }

  0000e	5d		 pop	 ebp
  0000f	c2 04 00	 ret	 4
?GetPartner@CCouple@@QAEKK@Z ENDP			; CCouple::GetPartner
_TEXT	ENDS
; Function compile flags: /Ogtp
; File C:\IAGOS\server\v18\Source\Source\_Common\couple.cpp
;	COMDAT ?GetLevel@CCouple@@QAEHH@Z
_TEXT	SEGMENT
_bCalc$ = 8						; size = 4
?GetLevel@CCouple@@QAEHH@Z PROC				; CCouple::GetLevel, COMDAT
; _this$ = ecx

; 130  : {

  00000	55		 push	 ebp
  00001	8b ec		 mov	 ebp, esp

; 131  : 	if( bCalc )

  00003	83 7d 08 00	 cmp	 DWORD PTR _bCalc$[ebp], 0
  00007	56		 push	 esi
  00008	8b f1		 mov	 esi, ecx
  0000a	74 12		 je	 SHORT $LN5@GetLevel

; 132  : 		m_nLevel	= CCoupleProperty::Instance()->GetLevel( GetExperience() );

  0000c	ff 76 04	 push	 DWORD PTR [esi+4]
  0000f	e8 00 00 00 00	 call	 ?Instance@CCoupleProperty@@SAPAV1@XZ ; CCoupleProperty::Instance
  00014	8b c8		 mov	 ecx, eax
  00016	e8 00 00 00 00	 call	 ?GetLevel@CCoupleProperty@@QAEHH@Z ; CCoupleProperty::GetLevel
  0001b	89 46 08	 mov	 DWORD PTR [esi+8], eax
$LN5@GetLevel:

; 133  : 	return m_nLevel;
; 134  : }

  0001e	8b 46 08	 mov	 eax, DWORD PTR [esi+8]
  00021	5e		 pop	 esi
  00022	5d		 pop	 ebp
  00023	c2 04 00	 ret	 4
?GetLevel@CCouple@@QAEHH@Z ENDP				; CCouple::GetLevel
_TEXT	ENDS
; Function compile flags: /Ogtp
; File C:\IAGOS\server\v18\Source\Source\_Common\couple.cpp
;	COMDAT ?AddExperience@CCouple@@QAEHH@Z
_TEXT	SEGMENT
_nExperience$ = 8					; size = 4
?AddExperience@CCouple@@QAEHH@Z PROC			; CCouple::AddExperience, COMDAT
; _this$ = ecx

; 97   : {

  00000	55		 push	 ebp
  00001	8b ec		 mov	 ebp, esp
  00003	56		 push	 esi
  00004	57		 push	 edi

; 98   : 	int nLevel	= GetLevel();

  00005	6a 00		 push	 0
  00007	8b f1		 mov	 esi, ecx
  00009	e8 00 00 00 00	 call	 ?GetLevel@CCouple@@QAEHH@Z ; CCouple::GetLevel
  0000e	8b f8		 mov	 edi, eax

; 99   : 	if( nLevel == eMaxLevel )

  00010	83 ff 15	 cmp	 edi, 21			; 00000015H
  00013	75 08		 jne	 SHORT $LN2@AddExperie

; 100  : 		return FALSE;

  00015	5f		 pop	 edi
  00016	33 c0		 xor	 eax, eax

; 103  : }

  00018	5e		 pop	 esi
  00019	5d		 pop	 ebp
  0001a	c2 04 00	 ret	 4
$LN2@AddExperie:

; 101  : 	m_nExperience	+= nExperience;

  0001d	8b 45 08	 mov	 eax, DWORD PTR _nExperience$[ebp]

; 102  : 	return nLevel != GetLevel( TRUE );

  00020	8b ce		 mov	 ecx, esi
  00022	01 46 04	 add	 DWORD PTR [esi+4], eax
  00025	6a 01		 push	 1
  00027	e8 00 00 00 00	 call	 ?GetLevel@CCouple@@QAEHH@Z ; CCouple::GetLevel
  0002c	33 c9		 xor	 ecx, ecx
  0002e	3b f8		 cmp	 edi, eax
  00030	5f		 pop	 edi
  00031	0f 95 c1	 setne	 cl
  00034	8b c1		 mov	 eax, ecx

; 103  : }

  00036	5e		 pop	 esi
  00037	5d		 pop	 ebp
  00038	c2 04 00	 ret	 4
?AddExperience@CCouple@@QAEHH@Z ENDP			; CCouple::AddExperience
_TEXT	ENDS
; Function compile flags: /Ogtp
; File C:\IAGOS\server\v18\Source\Source\_Common\couple.h
;	COMDAT ??1CCouple@@UAE@XZ
_TEXT	SEGMENT
??1CCouple@@UAE@XZ PROC					; CCouple::~CCouple, COMDAT
; _this$ = ecx

; 20   : 	virtual	~CCouple()	{}

  00000	c7 01 00 00 00
	00		 mov	 DWORD PTR [ecx], OFFSET ??_7CCouple@@6B@
  00006	c3		 ret	 0
??1CCouple@@UAE@XZ ENDP					; CCouple::~CCouple
_TEXT	ENDS
; Function compile flags: /Ogtp
; File C:\IAGOS\server\v18\Source\Source\_Common\couple.cpp
;	COMDAT ??0CCouple@@QAE@KK@Z
_TEXT	SEGMENT
_idFirst$ = 8						; size = 4
_idSecond$ = 12						; size = 4
??0CCouple@@QAE@KK@Z PROC				; CCouple::CCouple, COMDAT
; _this$ = ecx

; 93   : {

  00000	55		 push	 ebp
  00001	8b ec		 mov	 ebp, esp

; 90   : m_idFirst( idFirst ),

  00003	8b 45 08	 mov	 eax, DWORD PTR _idFirst$[ebp]
  00006	89 41 0c	 mov	 DWORD PTR [ecx+12], eax

; 91   : m_idSecond( idSecond ),

  00009	8b 45 0c	 mov	 eax, DWORD PTR _idSecond$[ebp]
  0000c	89 41 10	 mov	 DWORD PTR [ecx+16], eax

; 94   : }

  0000f	8b c1		 mov	 eax, ecx
  00011	c7 01 00 00 00
	00		 mov	 DWORD PTR [ecx], OFFSET ??_7CCouple@@6B@
  00017	c7 41 04 00 00
	00 00		 mov	 DWORD PTR [ecx+4], 0
  0001e	c7 41 08 01 00
	00 00		 mov	 DWORD PTR [ecx+8], 1
  00025	5d		 pop	 ebp
  00026	c2 08 00	 ret	 8
??0CCouple@@QAE@KK@Z ENDP				; CCouple::CCouple
_TEXT	ENDS
; Function compile flags: /Ogtp
; File C:\IAGOS\server\v18\Source\Source\_Common\couple.cpp
;	COMDAT ??0CCouple@@QAE@XZ
_TEXT	SEGMENT
??0CCouple@@QAE@XZ PROC					; CCouple::CCouple, COMDAT
; _this$ = ecx

; 84   : {

  00000	c7 01 00 00 00
	00		 mov	 DWORD PTR [ecx], OFFSET ??_7CCouple@@6B@

; 85   : }

  00006	8b c1		 mov	 eax, ecx
  00008	c7 41 04 00 00
	00 00		 mov	 DWORD PTR [ecx+4], 0
  0000f	c7 41 08 01 00
	00 00		 mov	 DWORD PTR [ecx+8], 1
  00016	c7 41 0c 00 00
	00 00		 mov	 DWORD PTR [ecx+12], 0
  0001d	c7 41 10 00 00
	00 00		 mov	 DWORD PTR [ecx+16], 0
  00024	c3		 ret	 0
??0CCouple@@QAE@XZ ENDP					; CCouple::CCouple
_TEXT	ENDS
; Function compile flags: /Ogtp
; File C:\IAGOS\server\v18\Source\Source\_Common\couple.cpp
;	COMDAT ?Test@CCoupleTestCase@@UAEHXZ
_TEXT	SEGMENT
?Test@CCoupleTestCase@@UAEHXZ PROC			; CCoupleTestCase::Test, COMDAT
; _this$ = ecx

; 8    : 	/*
; 9    : 	// Load
; 10   : 	CCoupleProperty* ptr	= CCoupleProperty::Instance();
; 11   : 	BOOL bResult	= ptr->Initialize();
; 12   : 	ASSERT( bResult );
; 13   : 
; 14   : 	CCouple	c( 1, 2 );
; 15   : 	for( int nLevel = 1; nLevel < CCouple::eMaxLevel; nLevel++ )
; 16   : 	{
; 17   : 		ASSERT( c.GetLevel() == nLevel );
; 18   : 		int nExperience	= ptr->GetExperienceRequired( c.GetLevel() );
; 19   : 		c.AddExperience( nExperience );
; 20   : 	}
; 21   : 	return FALSE;
; 22   : 	*/
; 23   : 	/*
; 24   : 	// Level
; 25   : 	for( int nLevel = 1; nLevel <= CCouple::eMaxLevel; nLevel++ )
; 26   : 		TRACE( "Level: %d = Exp: %d\n", nLevel, ptr->GetTotalExperience( nLevel ) );
; 27   : 	// Item
; 28   : 	for( nLevel = 1; nLevel <= CCouple::eMaxLevel; nLevel++ )
; 29   : 	{
; 30   : 		VCI& vItems	= ptr->GetItems( nLevel );
; 31   : 		TRACE( "Level: %d: Item\n", nLevel );
; 32   : 		for( int i = 0; i < vItems.size(); i++ )
; 33   : 			TRACE( "\tnItem: %d, nFlags: %d, nLife: %d, nNum: %d\n", vItems[i].nItem, vItems[i].nFlags, vItems[i].nLife, vItems[i].nNum );
; 34   : 	}
; 35   : 	for( nLevel = 1; nLevel <= CCouple::eMaxLevel; nLevel++ )
; 36   : 	{
; 37   : 		VS& vSkills	= ptr->GetSkill( nLevel );
; 38   : 		TRACE( "Level: %d: Skill\n", nLevel );
; 39   : 		for( int i = 0; i < vSkills.size(); i++ )
; 40   : 			TRACE( "\tSkill: %d\n", vSkills[i] );
; 41   : 	}
; 42   : 	u_long idFirst	= 1;
; 43   : 	u_long idSecond	= 2;
; 44   : 	u_long idInvalid	= 0;
; 45   : 
; 46   : 	CCoupleMgr* pMgr	= new CCoupleMgr;
; 47   : 	pMgr->Couple( idFirst, idSecond );
; 48   : 	ASSERT( pMgr->GetCount() == 1 );
; 49   : 	pMgr->Decouple( idFirst );
; 50   : 	ASSERT( pMgr->GetCount() == 0 );
; 51   : 	pMgr->Couple( idFirst, idSecond );
; 52   : 	ASSERT( pMgr->GetCount() == 1 );
; 53   : 	pMgr->Decouple( idSecond );
; 54   : 	ASSERT( pMgr->GetCount() == 0 );
; 55   : 	pMgr->Couple( idFirst, idSecond );
; 56   : 	ASSERT( pMgr->GetCount() == 1 );
; 57   : 	BOOL bResult	= pMgr->Decouple( idInvalid );
; 58   : 	ASSERT( bResult == FALSE );
; 59   : 	ASSERT( pMgr->GetCount() == 1 );
; 60   : 	CCouple* pCoupleByFirst	= pMgr->GetCouple( idFirst );
; 61   : 	ASSERT( pCoupleByFirst );
; 62   : 	CCouple* pCoupleBySecond	= pMgr->GetCouple( idSecond );
; 63   : 	ASSERT( pCoupleBySecond );
; 64   : 	ASSERT( pCoupleByFirst == pCoupleBySecond );
; 65   : 	CCouple* pCouple	= pCoupleByFirst;
; 66   : 	ASSERT( pCouple->GetLevel() == 1 );
; 67   : 	pCouple->AddExperience( 1 );
; 68   : 	ASSERT( pCouple->GetExperience() == 1 );
; 69   : 	pCouple->AddExperience( 1 );
; 70   : 	ASSERT( pCouple->GetExperience() == 2 );
; 71   : 	pMgr->OnTimer();
; 72   : 	ASSERT( pCouple->GetExperience() == 3 );
; 73   : */
; 74   : 	return TRUE;

  00000	b8 01 00 00 00	 mov	 eax, 1

; 75   : }

  00005	c3		 ret	 0
?Test@CCoupleTestCase@@UAEHXZ ENDP			; CCoupleTestCase::Test
_TEXT	ENDS
; Function compile flags: /Ogtp
; File C:\Program Files\Microsoft Visual Studio\2022\Professional\VC\Tools\MSVC\14.44.35207\include\xmemory
;	COMDAT ??$_Allocate_manually_vector_aligned@U_Default_allocate_traits@std@@@std@@YAPAXI@Z
_TEXT	SEGMENT
__Bytes$ = 8						; size = 4
??$_Allocate_manually_vector_aligned@U_Default_allocate_traits@std@@@std@@YAPAXI@Z PROC ; std::_Allocate_manually_vector_aligned<std::_Default_allocate_traits>, COMDAT

; 182  : __declspec(allocator) void* _Allocate_manually_vector_aligned(const size_t _Bytes) {

  00000	55		 push	 ebp
  00001	8b ec		 mov	 ebp, esp

; 183  :     // allocate _Bytes manually aligned to at least _Big_allocation_alignment
; 184  :     const size_t _Block_size = _Non_user_size + _Bytes;

  00003	8b 45 08	 mov	 eax, DWORD PTR __Bytes$[ebp]
  00006	8d 48 23	 lea	 ecx, DWORD PTR [eax+35]

; 185  :     if (_Block_size <= _Bytes) {

  00009	3b c8		 cmp	 ecx, eax
  0000b	0f 86 00 00 00
	00		 jbe	 ?_Throw_bad_array_new_length@std@@YAXXZ ; std::_Throw_bad_array_new_length

; 136  :         return ::operator new(_Bytes);

  00011	51		 push	 ecx
  00012	e8 00 00 00 00	 call	 ??2@YAPAXI@Z		; operator new

; 186  :         _Throw_bad_array_new_length(); // add overflow
; 187  :     }
; 188  : 
; 189  :     const uintptr_t _Ptr_container = reinterpret_cast<uintptr_t>(_Traits::_Allocate(_Block_size));

  00017	8b c8		 mov	 ecx, eax

; 136  :         return ::operator new(_Bytes);

  00019	83 c4 04	 add	 esp, 4

; 190  :     _STL_VERIFY(_Ptr_container != 0, "invalid argument"); // validate even in release since we're doing p[-1]

  0001c	85 c9		 test	 ecx, ecx
  0001e	74 0b		 je	 SHORT $LN9@Allocate_m

; 191  :     void* const _Ptr = reinterpret_cast<void*>((_Ptr_container + _Non_user_size) & ~(_Big_allocation_alignment - 1));

  00020	8d 41 23	 lea	 eax, DWORD PTR [ecx+35]
  00023	83 e0 e0	 and	 eax, -32		; ffffffe0H

; 192  :     static_cast<uintptr_t*>(_Ptr)[-1] = _Ptr_container;

  00026	89 48 fc	 mov	 DWORD PTR [eax-4], ecx

; 193  : 
; 194  : #ifdef _DEBUG
; 195  :     static_cast<uintptr_t*>(_Ptr)[-2] = _Big_allocation_sentinel;
; 196  : #endif // defined(_DEBUG)
; 197  :     return _Ptr;
; 198  : }

  00029	5d		 pop	 ebp
  0002a	c3		 ret	 0
$LN9@Allocate_m:

; 190  :     _STL_VERIFY(_Ptr_container != 0, "invalid argument"); // validate even in release since we're doing p[-1]

  0002b	6a 00		 push	 0
  0002d	6a 00		 push	 0
  0002f	6a 00		 push	 0
  00031	6a 00		 push	 0
  00033	6a 00		 push	 0
  00035	e8 00 00 00 00	 call	 __invoke_watson
$LN7@Allocate_m:
  0003a	cc		 int	 3
??$_Allocate_manually_vector_aligned@U_Default_allocate_traits@std@@@std@@YAPAXI@Z ENDP ; std::_Allocate_manually_vector_aligned<std::_Default_allocate_traits>
_TEXT	ENDS
; Function compile flags: /Ogtp
; File C:\Program Files\Microsoft Visual Studio\2022\Professional\VC\Tools\MSVC\14.44.35207\include\xtree
;	COMDAT ?_Throw_tree_length_error@std@@YAXXZ
_TEXT	SEGMENT
?_Throw_tree_length_error@std@@YAXXZ PROC		; std::_Throw_tree_length_error, COMDAT

; 417  :     _Xlength_error("map/set too long");

  00000	68 00 00 00 00	 push	 OFFSET ??_C@_0BB@GCADKGJO@map?1set?5too?5long@
  00005	e8 00 00 00 00	 call	 ?_Xlength_error@std@@YAXPBD@Z ; std::_Xlength_error
$LN3@Throw_tree:
  0000a	cc		 int	 3
?_Throw_tree_length_error@std@@YAXXZ ENDP		; std::_Throw_tree_length_error
_TEXT	ENDS
; Function compile flags: /Ogtp
; File C:\Program Files\Microsoft Visual Studio\2022\Professional\VC\Tools\MSVC\14.44.35207\include\xmemory
;	COMDAT ?_Throw_bad_array_new_length@std@@YAXXZ
_TEXT	SEGMENT
$T1 = -12						; size = 12
?_Throw_bad_array_new_length@std@@YAXXZ PROC		; std::_Throw_bad_array_new_length, COMDAT

; 107  : [[noreturn]] inline void _Throw_bad_array_new_length() {

  00000	55		 push	 ebp
  00001	8b ec		 mov	 ebp, esp
  00003	83 ec 0c	 sub	 esp, 12			; 0000000cH

; 108  :     _THROW(bad_array_new_length{});

  00006	8d 4d f4	 lea	 ecx, DWORD PTR $T1[ebp]
  00009	e8 00 00 00 00	 call	 ??0bad_array_new_length@std@@QAE@XZ ; std::bad_array_new_length::bad_array_new_length
  0000e	68 00 00 00 00	 push	 OFFSET __TI3?AVbad_array_new_length@std@@
  00013	8d 45 f4	 lea	 eax, DWORD PTR $T1[ebp]
  00016	50		 push	 eax
  00017	e8 00 00 00 00	 call	 __CxxThrowException@8
$LN3@Throw_bad_:
  0001c	cc		 int	 3
?_Throw_bad_array_new_length@std@@YAXXZ ENDP		; std::_Throw_bad_array_new_length
_TEXT	ENDS
; Function compile flags: /Ogtp
; File C:\Program Files\Microsoft Visual Studio\2022\Professional\VC\Tools\MSVC\14.44.35207\include\vcruntime_exception.h
;	COMDAT ??_Gbad_array_new_length@std@@UAEPAXI@Z
_TEXT	SEGMENT
___flags$ = 8						; size = 4
??_Gbad_array_new_length@std@@UAEPAXI@Z PROC		; std::bad_array_new_length::`scalar deleting destructor', COMDAT
; _this$ = ecx
  00000	55		 push	 ebp
  00001	8b ec		 mov	 ebp, esp

; 90   :     {

  00003	56		 push	 esi
  00004	8b f1		 mov	 esi, ecx

; 91   :         __std_exception_destroy(&_Data);

  00006	8d 46 04	 lea	 eax, DWORD PTR [esi+4]
  00009	c7 06 00 00 00
	00		 mov	 DWORD PTR [esi], OFFSET ??_7exception@std@@6B@
  0000f	50		 push	 eax
  00010	e8 00 00 00 00	 call	 ___std_exception_destroy
  00015	83 c4 04	 add	 esp, 4
  00018	f6 45 08 01	 test	 BYTE PTR ___flags$[ebp], 1
  0001c	74 0b		 je	 SHORT $LN18@scalar
  0001e	6a 0c		 push	 12			; 0000000cH
  00020	56		 push	 esi
  00021	e8 00 00 00 00	 call	 ??3@YAXPAXI@Z		; operator delete
  00026	83 c4 08	 add	 esp, 8
$LN18@scalar:
  00029	8b c6		 mov	 eax, esi
  0002b	5e		 pop	 esi
  0002c	5d		 pop	 ebp
  0002d	c2 04 00	 ret	 4
??_Gbad_array_new_length@std@@UAEPAXI@Z ENDP		; std::bad_array_new_length::`scalar deleting destructor'
_TEXT	ENDS
; Function compile flags: /Ogtp
; File C:\Program Files\Microsoft Visual Studio\2022\Professional\VC\Tools\MSVC\14.44.35207\include\vcruntime_exception.h
;	COMDAT ??0bad_array_new_length@std@@QAE@ABV01@@Z
_TEXT	SEGMENT
___that$ = 8						; size = 4
??0bad_array_new_length@std@@QAE@ABV01@@Z PROC		; std::bad_array_new_length::bad_array_new_length, COMDAT
; _this$ = ecx
  00000	55		 push	 ebp
  00001	8b ec		 mov	 ebp, esp

; 73   :     {

  00003	56		 push	 esi
  00004	8b f1		 mov	 esi, ecx
  00006	0f 57 c0	 xorps	 xmm0, xmm0

; 72   :         : _Data()

  00009	8d 46 04	 lea	 eax, DWORD PTR [esi+4]

; 74   :         __std_exception_copy(&_Other._Data, &_Data);

  0000c	50		 push	 eax
  0000d	c7 06 00 00 00
	00		 mov	 DWORD PTR [esi], OFFSET ??_7exception@std@@6B@
  00013	66 0f d6 00	 movq	 QWORD PTR [eax], xmm0
  00017	8b 45 08	 mov	 eax, DWORD PTR ___that$[ebp]
  0001a	83 c0 04	 add	 eax, 4
  0001d	50		 push	 eax
  0001e	e8 00 00 00 00	 call	 ___std_exception_copy
  00023	83 c4 08	 add	 esp, 8
  00026	c7 06 00 00 00
	00		 mov	 DWORD PTR [esi], OFFSET ??_7bad_array_new_length@std@@6B@
  0002c	8b c6		 mov	 eax, esi
  0002e	5e		 pop	 esi
  0002f	5d		 pop	 ebp
  00030	c2 04 00	 ret	 4
??0bad_array_new_length@std@@QAE@ABV01@@Z ENDP		; std::bad_array_new_length::bad_array_new_length
_TEXT	ENDS
; Function compile flags: /Ogtp
; File C:\Program Files\Microsoft Visual Studio\2022\Professional\VC\Tools\MSVC\14.44.35207\include\vcruntime_exception.h
;	COMDAT ??1bad_array_new_length@std@@UAE@XZ
_TEXT	SEGMENT
??1bad_array_new_length@std@@UAE@XZ PROC		; std::bad_array_new_length::~bad_array_new_length, COMDAT
; _this$ = ecx

; 91   :         __std_exception_destroy(&_Data);

  00000	8d 41 04	 lea	 eax, DWORD PTR [ecx+4]
  00003	c7 01 00 00 00
	00		 mov	 DWORD PTR [ecx], OFFSET ??_7exception@std@@6B@
  00009	50		 push	 eax
  0000a	e8 00 00 00 00	 call	 ___std_exception_destroy
  0000f	59		 pop	 ecx
  00010	c3		 ret	 0
??1bad_array_new_length@std@@UAE@XZ ENDP		; std::bad_array_new_length::~bad_array_new_length
_TEXT	ENDS
; Function compile flags: /Ogtp
; File C:\Program Files\Microsoft Visual Studio\2022\Professional\VC\Tools\MSVC\14.44.35207\include\vcruntime_exception.h
;	COMDAT ??0bad_array_new_length@std@@QAE@XZ
_TEXT	SEGMENT
??0bad_array_new_length@std@@QAE@XZ PROC		; std::bad_array_new_length::bad_array_new_length, COMDAT
; _this$ = ecx

; 144  :     {

  00000	0f 57 c0	 xorps	 xmm0, xmm0

; 145  :     }

  00003	8b c1		 mov	 eax, ecx

; 66   :         : _Data()

  00005	66 0f d6 41 04	 movq	 QWORD PTR [ecx+4], xmm0

; 67   :     {
; 68   :         _Data._What = _Message;

  0000a	c7 41 04 00 00
	00 00		 mov	 DWORD PTR [ecx+4], OFFSET ??_C@_0BF@KINCDENJ@bad?5array?5new?5length@

; 144  :     {

  00011	c7 01 00 00 00
	00		 mov	 DWORD PTR [ecx], OFFSET ??_7bad_array_new_length@std@@6B@

; 145  :     }

  00017	c3		 ret	 0
??0bad_array_new_length@std@@QAE@XZ ENDP		; std::bad_array_new_length::bad_array_new_length
_TEXT	ENDS
; Function compile flags: /Ogtp
; File C:\Program Files\Microsoft Visual Studio\2022\Professional\VC\Tools\MSVC\14.44.35207\include\vcruntime_exception.h
;	COMDAT ??_Gbad_alloc@std@@UAEPAXI@Z
_TEXT	SEGMENT
___flags$ = 8						; size = 4
??_Gbad_alloc@std@@UAEPAXI@Z PROC			; std::bad_alloc::`scalar deleting destructor', COMDAT
; _this$ = ecx
  00000	55		 push	 ebp
  00001	8b ec		 mov	 ebp, esp

; 90   :     {

  00003	56		 push	 esi
  00004	8b f1		 mov	 esi, ecx

; 91   :         __std_exception_destroy(&_Data);

  00006	8d 46 04	 lea	 eax, DWORD PTR [esi+4]
  00009	c7 06 00 00 00
	00		 mov	 DWORD PTR [esi], OFFSET ??_7exception@std@@6B@
  0000f	50		 push	 eax
  00010	e8 00 00 00 00	 call	 ___std_exception_destroy
  00015	83 c4 04	 add	 esp, 4
  00018	f6 45 08 01	 test	 BYTE PTR ___flags$[ebp], 1
  0001c	74 0b		 je	 SHORT $LN13@scalar
  0001e	6a 0c		 push	 12			; 0000000cH
  00020	56		 push	 esi
  00021	e8 00 00 00 00	 call	 ??3@YAXPAXI@Z		; operator delete
  00026	83 c4 08	 add	 esp, 8
$LN13@scalar:
  00029	8b c6		 mov	 eax, esi
  0002b	5e		 pop	 esi
  0002c	5d		 pop	 ebp
  0002d	c2 04 00	 ret	 4
??_Gbad_alloc@std@@UAEPAXI@Z ENDP			; std::bad_alloc::`scalar deleting destructor'
_TEXT	ENDS
; Function compile flags: /Ogtp
; File C:\Program Files\Microsoft Visual Studio\2022\Professional\VC\Tools\MSVC\14.44.35207\include\vcruntime_exception.h
;	COMDAT ??0bad_alloc@std@@QAE@ABV01@@Z
_TEXT	SEGMENT
___that$ = 8						; size = 4
??0bad_alloc@std@@QAE@ABV01@@Z PROC			; std::bad_alloc::bad_alloc, COMDAT
; _this$ = ecx
  00000	55		 push	 ebp
  00001	8b ec		 mov	 ebp, esp

; 73   :     {

  00003	56		 push	 esi
  00004	8b f1		 mov	 esi, ecx
  00006	0f 57 c0	 xorps	 xmm0, xmm0

; 72   :         : _Data()

  00009	8d 46 04	 lea	 eax, DWORD PTR [esi+4]

; 74   :         __std_exception_copy(&_Other._Data, &_Data);

  0000c	50		 push	 eax
  0000d	c7 06 00 00 00
	00		 mov	 DWORD PTR [esi], OFFSET ??_7exception@std@@6B@
  00013	66 0f d6 00	 movq	 QWORD PTR [eax], xmm0
  00017	8b 45 08	 mov	 eax, DWORD PTR ___that$[ebp]
  0001a	83 c0 04	 add	 eax, 4
  0001d	50		 push	 eax
  0001e	e8 00 00 00 00	 call	 ___std_exception_copy
  00023	83 c4 08	 add	 esp, 8
  00026	c7 06 00 00 00
	00		 mov	 DWORD PTR [esi], OFFSET ??_7bad_alloc@std@@6B@
  0002c	8b c6		 mov	 eax, esi
  0002e	5e		 pop	 esi
  0002f	5d		 pop	 ebp
  00030	c2 04 00	 ret	 4
??0bad_alloc@std@@QAE@ABV01@@Z ENDP			; std::bad_alloc::bad_alloc
_TEXT	ENDS
; Function compile flags: /Ogtp
; File C:\Program Files\Microsoft Visual Studio\2022\Professional\VC\Tools\MSVC\14.44.35207\include\vcruntime_exception.h
;	COMDAT ??_Gexception@std@@UAEPAXI@Z
_TEXT	SEGMENT
___flags$ = 8						; size = 4
??_Gexception@std@@UAEPAXI@Z PROC			; std::exception::`scalar deleting destructor', COMDAT
; _this$ = ecx
  00000	55		 push	 ebp
  00001	8b ec		 mov	 ebp, esp

; 90   :     {

  00003	56		 push	 esi
  00004	8b f1		 mov	 esi, ecx

; 91   :         __std_exception_destroy(&_Data);

  00006	8d 46 04	 lea	 eax, DWORD PTR [esi+4]
  00009	c7 06 00 00 00
	00		 mov	 DWORD PTR [esi], OFFSET ??_7exception@std@@6B@
  0000f	50		 push	 eax
  00010	e8 00 00 00 00	 call	 ___std_exception_destroy
  00015	83 c4 04	 add	 esp, 4
  00018	f6 45 08 01	 test	 BYTE PTR ___flags$[ebp], 1
  0001c	74 0b		 je	 SHORT $LN8@scalar
  0001e	6a 0c		 push	 12			; 0000000cH
  00020	56		 push	 esi
  00021	e8 00 00 00 00	 call	 ??3@YAXPAXI@Z		; operator delete
  00026	83 c4 08	 add	 esp, 8
$LN8@scalar:
  00029	8b c6		 mov	 eax, esi
  0002b	5e		 pop	 esi
  0002c	5d		 pop	 ebp
  0002d	c2 04 00	 ret	 4
??_Gexception@std@@UAEPAXI@Z ENDP			; std::exception::`scalar deleting destructor'
_TEXT	ENDS
; Function compile flags: /Ogtp
; File C:\Program Files\Microsoft Visual Studio\2022\Professional\VC\Tools\MSVC\14.44.35207\include\vcruntime_exception.h
;	COMDAT ?what@exception@std@@UBEPBDXZ
_TEXT	SEGMENT
?what@exception@std@@UBEPBDXZ PROC			; std::exception::what, COMDAT
; _this$ = ecx

; 96   :         return _Data._What ? _Data._What : "Unknown exception";

  00000	8b 49 04	 mov	 ecx, DWORD PTR [ecx+4]
  00003	b8 00 00 00 00	 mov	 eax, OFFSET ??_C@_0BC@EOODALEL@Unknown?5exception@
  00008	85 c9		 test	 ecx, ecx
  0000a	0f 45 c1	 cmovne	 eax, ecx

; 97   :     }

  0000d	c3		 ret	 0
?what@exception@std@@UBEPBDXZ ENDP			; std::exception::what
_TEXT	ENDS
; Function compile flags: /Ogtp
; File C:\Program Files\Microsoft Visual Studio\2022\Professional\VC\Tools\MSVC\14.44.35207\include\vcruntime_exception.h
;	COMDAT ??1exception@std@@UAE@XZ
_TEXT	SEGMENT
??1exception@std@@UAE@XZ PROC				; std::exception::~exception, COMDAT
; _this$ = ecx

; 91   :         __std_exception_destroy(&_Data);

  00000	8d 41 04	 lea	 eax, DWORD PTR [ecx+4]
  00003	c7 01 00 00 00
	00		 mov	 DWORD PTR [ecx], OFFSET ??_7exception@std@@6B@
  00009	50		 push	 eax
  0000a	e8 00 00 00 00	 call	 ___std_exception_destroy
  0000f	59		 pop	 ecx

; 92   :     }

  00010	c3		 ret	 0
??1exception@std@@UAE@XZ ENDP				; std::exception::~exception
_TEXT	ENDS
; Function compile flags: /Ogtp
; File C:\Program Files\Microsoft Visual Studio\2022\Professional\VC\Tools\MSVC\14.44.35207\include\vcruntime_exception.h
;	COMDAT ??0exception@std@@QAE@ABV01@@Z
_TEXT	SEGMENT
__Other$ = 8						; size = 4
??0exception@std@@QAE@ABV01@@Z PROC			; std::exception::exception, COMDAT
; _this$ = ecx

; 73   :     {

  00000	55		 push	 ebp
  00001	8b ec		 mov	 ebp, esp
  00003	56		 push	 esi
  00004	8b f1		 mov	 esi, ecx
  00006	0f 57 c0	 xorps	 xmm0, xmm0
  00009	8d 46 04	 lea	 eax, DWORD PTR [esi+4]

; 74   :         __std_exception_copy(&_Other._Data, &_Data);

  0000c	50		 push	 eax
  0000d	c7 06 00 00 00
	00		 mov	 DWORD PTR [esi], OFFSET ??_7exception@std@@6B@
  00013	66 0f d6 00	 movq	 QWORD PTR [eax], xmm0
  00017	8b 45 08	 mov	 eax, DWORD PTR __Other$[ebp]
  0001a	83 c0 04	 add	 eax, 4
  0001d	50		 push	 eax
  0001e	e8 00 00 00 00	 call	 ___std_exception_copy
  00023	83 c4 08	 add	 esp, 8

; 75   :     }

  00026	8b c6		 mov	 eax, esi
  00028	5e		 pop	 esi
  00029	5d		 pop	 ebp
  0002a	c2 04 00	 ret	 4
??0exception@std@@QAE@ABV01@@Z ENDP			; std::exception::exception
_TEXT	ENDS
; Function compile flags: /Ogtp
; File C:\IAGOS\server\v18\Source\Source\_Common\couple.cpp
;	COMDAT ?__empty_global_delete@@YAXPAXI@Z
_TEXT	SEGMENT
___formal$ = 8						; size = 4
___formal$ = 12						; size = 4
?__empty_global_delete@@YAXPAXI@Z PROC			; __empty_global_delete, COMDAT

  00000	c2 00 00	 ret	 0
?__empty_global_delete@@YAXPAXI@Z ENDP			; __empty_global_delete
_TEXT	ENDS
; Function compile flags: /Ogtp
; File C:\IAGOS\server\v18\Source\Source\_Common\couple.cpp
;	COMDAT ?__empty_global_delete@@YAXPAX@Z
_TEXT	SEGMENT
___formal$ = 8						; size = 4
?__empty_global_delete@@YAXPAX@Z PROC			; __empty_global_delete, COMDAT

  00000	c2 00 00	 ret	 0
?__empty_global_delete@@YAXPAX@Z ENDP			; __empty_global_delete
_TEXT	ENDS
END
