; Listing generated by Microsoft (R) Optimizing Compiler Version 19.44.35225.0 

	TITLE	C:\IAGOS\server\v18\Source\Output\DatabaseServer\Release\DatabaseServer.obj
	.686P
	.XMM
	include listing.inc
	.model	flat

INCLUDELIB LIBCMT
INCLUDELIB OLDNAMES

PUBLIC	?lpConnection@@3PADA				; lpConnection
PUBLIC	?m_bBankToItemSendTbl@@3HA			; m_bBankToItemSendTbl
PUBLIC	?m_bInventoryToItemSendTbl@@3HA			; m_bInventoryToItemSendTbl
PUBLIC	?s_bItemRemove@@3HA				; s_bItemRemove
PUBLIC	?s_bRemoveInvalidItem@@3HA			; s_bRemoveInvalidItem
PUBLIC	?szTitle@@3PADA					; szTitle
PUBLIC	?szWindowClass@@3PADA				; szWindowClass
_BSS	SEGMENT
?lpConnection@@3PADA DB 010H DUP (?)			; lpConnection
?m_bBankToItemSendTbl@@3HA DD 01H DUP (?)		; m_bBankToItemSendTbl
?m_bInventoryToItemSendTbl@@3HA DD 01H DUP (?)		; m_bInventoryToItemSendTbl
?s_bItemRemove@@3HA DD 01H DUP (?)			; s_bItemRemove
?s_bRemoveInvalidItem@@3HA DD 01H DUP (?)		; s_bRemoveInvalidItem
?szTitle@@3PADA DB 064H DUP (?)				; szTitle
?szWindowClass@@3PADA DB 064H DUP (?)			; szWindowClass
_BSS	ENDS
PUBLIC	?__empty_global_delete@@YAXPAX@Z		; __empty_global_delete
PUBLIC	?__empty_global_delete@@YAXPAXI@Z		; __empty_global_delete
PUBLIC	_WinMain@16
PUBLIC	___local_stdio_printf_options
PUBLIC	_sprintf
PUBLIC	?AtlThrowImpl@ATL@@YGXJ@Z			; ATL::AtlThrowImpl
PUBLIC	??1?$CSimpleStringT@D$0A@@ATL@@QAE@XZ		; ATL::CSimpleStringT<char,0>::~CSimpleStringT<char,0>
PUBLIC	?SetString@?$CSimpleStringT@D$0A@@ATL@@QAEXPBDH@Z ; ATL::CSimpleStringT<char,0>::SetString
PUBLIC	?ThrowMemoryException@?$CSimpleStringT@D$0A@@ATL@@KAXXZ ; ATL::CSimpleStringT<char,0>::ThrowMemoryException
PUBLIC	?Fork@?$CSimpleStringT@D$0A@@ATL@@AAEXH@Z	; ATL::CSimpleStringT<char,0>::Fork
PUBLIC	?PrepareWrite2@?$CSimpleStringT@D$0A@@ATL@@AAEXH@Z ; ATL::CSimpleStringT<char,0>::PrepareWrite2
PUBLIC	?Reallocate@?$CSimpleStringT@D$0A@@ATL@@AAEXH@Z	; ATL::CSimpleStringT<char,0>::Reallocate
PUBLIC	??1?$CStringT@DV?$StrTraitMFC@DV?$ChTraitsCRT@D@ATL@@@@@ATL@@QAE@XZ ; ATL::CStringT<char,StrTraitMFC<char,ATL::ChTraitsCRT<char> > >::~CStringT<char,StrTraitMFC<char,ATL::ChTraitsCRT<char> > >
PUBLIC	?LoadStringA@?$CStringT@DV?$StrTraitMFC@DV?$ChTraitsCRT@D@ATL@@@@@ATL@@QAEHI@Z ; ATL::CStringT<char,StrTraitMFC<char,ATL::ChTraitsCRT<char> > >::LoadStringA
PUBLIC	??0exception@std@@QAE@ABV01@@Z			; std::exception::exception
PUBLIC	??1exception@std@@UAE@XZ			; std::exception::~exception
PUBLIC	?what@exception@std@@UBEPBDXZ			; std::exception::what
PUBLIC	??_Gexception@std@@UAEPAXI@Z			; std::exception::`scalar deleting destructor'
PUBLIC	??0bad_alloc@std@@QAE@ABV01@@Z			; std::bad_alloc::bad_alloc
PUBLIC	??_Gbad_alloc@std@@UAEPAXI@Z			; std::bad_alloc::`scalar deleting destructor'
PUBLIC	??0bad_array_new_length@std@@QAE@XZ		; std::bad_array_new_length::bad_array_new_length
PUBLIC	??1bad_array_new_length@std@@UAE@XZ		; std::bad_array_new_length::~bad_array_new_length
PUBLIC	??0bad_array_new_length@std@@QAE@ABV01@@Z	; std::bad_array_new_length::bad_array_new_length
PUBLIC	??_Gbad_array_new_length@std@@UAEPAXI@Z		; std::bad_array_new_length::`scalar deleting destructor'
PUBLIC	?_Throw_bad_array_new_length@std@@YAXXZ		; std::_Throw_bad_array_new_length
PUBLIC	?_Xlen_string@std@@YAXXZ			; std::_Xlen_string
PUBLIC	??1?$basic_string@DU?$char_traits@D@std@@V?$allocator@D@2@@std@@QAE@XZ ; std::basic_string<char,std::char_traits<char>,std::allocator<char> >::~basic_string<char,std::char_traits<char>,std::allocator<char> >
PUBLIC	?_Throw_tree_length_error@std@@YAXXZ		; std::_Throw_tree_length_error
PUBLIC	??0?$map@EHU?$less@E@std@@V?$allocator@U?$pair@$$CBEH@std@@@2@@std@@QAE@ABV01@@Z ; std::map<unsigned char,int,std::less<unsigned char>,std::allocator<std::pair<unsigned char const ,int> > >::map<unsigned char,int,std::less<unsigned char>,std::allocator<std::pair<unsigned char const ,int> > >
PUBLIC	??1?$map@EHU?$less@E@std@@V?$allocator@U?$pair@$$CBEH@std@@@2@@std@@QAE@XZ ; std::map<unsigned char,int,std::less<unsigned char>,std::allocator<std::pair<unsigned char const ,int> > >::~map<unsigned char,int,std::less<unsigned char>,std::allocator<std::pair<unsigned char const ,int> > >
PUBLIC	?_Insert_node@?$_Tree_val@U?$_Tree_simple_types@V?$basic_string@DU?$char_traits@D@std@@V?$allocator@D@2@@std@@@std@@@std@@QAEPAU?$_Tree_node@V?$basic_string@DU?$char_traits@D@std@@V?$allocator@D@2@@std@@PAX@2@U?$_Tree_id@PAU?$_Tree_node@V?$basic_string@DU?$char_traits@D@std@@V?$allocator@D@2@@std@@PAX@std@@@2@QAU32@@Z ; std::_Tree_val<std::_Tree_simple_types<std::basic_string<char,std::char_traits<char>,std::allocator<char> > > >::_Insert_node
PUBLIC	?StartServer@CDPMng@@QAEHGHW4BUFFER_TYPE@@@Z	; CDPMng::StartServer
PUBLIC	??$?MDU?$char_traits@D@std@@V?$allocator@D@1@@std@@YA_NABV?$basic_string@DU?$char_traits@D@std@@V?$allocator@D@2@@0@0@Z ; std::operator<<char,std::char_traits<char>,std::allocator<char> >
PUBLIC	??$_Allocate_manually_vector_aligned@U_Default_allocate_traits@std@@@std@@YAPAXI@Z ; std::_Allocate_manually_vector_aligned<std::_Default_allocate_traits>
PUBLIC	??$?6H@CAr@@QAEAAV0@ABH@Z			; CAr::operator<<<int>
PUBLIC	?MyRegisterClass@@YAGPAUHINSTANCE__@@@Z		; MyRegisterClass
PUBLIC	?WndProc@@YGJPAUHWND__@@IIJ@Z			; WndProc
PUBLIC	?InitInstance@@YAHPAUHINSTANCE__@@H@Z		; InitInstance
PUBLIC	?ExitInstance@@YAXXZ				; ExitInstance
PUBLIC	?Script@@YAHPBD@Z				; Script
PUBLIC	?LoadRemoveItem@@YAHPBD@Z			; LoadRemoveItem
PUBLIC	?InitLanguageFromResource@@YAXPAUHINSTANCE__@@@Z ; InitLanguageFromResource
PUBLIC	??$_Emplace@ABV?$basic_string@DU?$char_traits@D@std@@V?$allocator@D@2@@std@@@?$_Tree@V?$_Tset_traits@V?$basic_string@DU?$char_traits@D@std@@V?$allocator@D@2@@std@@U?$less@V?$basic_string@DU?$char_traits@D@std@@V?$allocator@D@2@@std@@@2@V?$allocator@V?$basic_string@DU?$char_traits@D@std@@V?$allocator@D@2@@std@@@2@$0A@@std@@@std@@IAE?AU?$pair@PAU?$_Tree_node@V?$basic_string@DU?$char_traits@D@std@@V?$allocator@D@2@@std@@PAX@std@@_N@1@ABV?$basic_string@DU?$char_traits@D@std@@V?$allocator@D@2@@1@@Z ; std::_Tree<std::_Tset_traits<std::basic_string<char,std::char_traits<char>,std::allocator<char> >,std::less<std::basic_string<char,std::char_traits<char>,std::allocator<char> > >,std::allocator<std::basic_string<char,std::char_traits<char>,std::allocator<char> > >,0> >::_Emplace<std::basic_string<char,std::char_traits<char>,std::allocator<char> > const &>
PUBLIC	??$_Erase_head@V?$allocator@U?$_Tree_node@U?$pair@$$CBEH@std@@PAX@std@@@std@@@?$_Tree_val@U?$_Tree_simple_types@U?$pair@$$CBEH@std@@@std@@@std@@QAEXAAV?$allocator@U?$_Tree_node@U?$pair@$$CBEH@std@@PAX@std@@@1@@Z ; std::_Tree_val<std::_Tree_simple_types<std::pair<unsigned char const ,int> > >::_Erase_head<std::allocator<std::_Tree_node<std::pair<unsigned char const ,int>,void *> > >
PUBLIC	??1?$_Alloc_construct_ptr@V?$allocator@U?$_Tree_node@V?$basic_string@DU?$char_traits@D@std@@V?$allocator@D@2@@std@@PAX@std@@@std@@@std@@QAE@XZ ; std::_Alloc_construct_ptr<std::allocator<std::_Tree_node<std::basic_string<char,std::char_traits<char>,std::allocator<char> >,void *> > >::~_Alloc_construct_ptr<std::allocator<std::_Tree_node<std::basic_string<char,std::char_traits<char>,std::allocator<char> >,void *> > >
PUBLIC	??1?$_Tree_temp_node_alloc@V?$allocator@U?$_Tree_node@V?$basic_string@DU?$char_traits@D@std@@V?$allocator@D@2@@std@@PAX@std@@@std@@@std@@QAE@XZ ; std::_Tree_temp_node_alloc<std::allocator<std::_Tree_node<std::basic_string<char,std::char_traits<char>,std::allocator<char> >,void *> > >::~_Tree_temp_node_alloc<std::allocator<std::_Tree_node<std::basic_string<char,std::char_traits<char>,std::allocator<char> >,void *> > >
PUBLIC	??$_Erase_tree@V?$allocator@U?$_Tree_node@U?$pair@$$CBEH@std@@PAX@std@@@std@@@?$_Tree_val@U?$_Tree_simple_types@U?$pair@$$CBEH@std@@@std@@@std@@QAEXAAV?$allocator@U?$_Tree_node@U?$pair@$$CBEH@std@@PAX@std@@@1@PAU?$_Tree_node@U?$pair@$$CBEH@std@@PAX@1@@Z ; std::_Tree_val<std::_Tree_simple_types<std::pair<unsigned char const ,int> > >::_Erase_tree<std::allocator<std::_Tree_node<std::pair<unsigned char const ,int>,void *> > >
PUBLIC	??1?$_Tree_head_scoped_ptr@V?$allocator@U?$_Tree_node@U?$pair@$$CBEH@std@@PAX@std@@@std@@V?$_Tree_val@U?$_Tree_simple_types@U?$pair@$$CBEH@std@@@std@@@2@@std@@QAE@XZ ; std::_Tree_head_scoped_ptr<std::allocator<std::_Tree_node<std::pair<unsigned char const ,int>,void *> >,std::_Tree_val<std::_Tree_simple_types<std::pair<unsigned char const ,int> > > >::~_Tree_head_scoped_ptr<std::allocator<std::_Tree_node<std::pair<unsigned char const ,int>,void *> >,std::_Tree_val<std::_Tree_simple_types<std::pair<unsigned char const ,int> > > >
PUBLIC	??$_Copy_nodes@$0A@@?$_Tree@V?$_Tmap_traits@EHU?$less@E@std@@V?$allocator@U?$pair@$$CBEH@std@@@2@$0A@@std@@@std@@IAEPAU?$_Tree_node@U?$pair@$$CBEH@std@@PAX@1@PAU21@0@Z ; std::_Tree<std::_Tmap_traits<unsigned char,int,std::less<unsigned char>,std::allocator<std::pair<unsigned char const ,int> >,0> >::_Copy_nodes<0>
PUBLIC	??1?$_Erase_tree_and_orphan_guard@V?$allocator@U?$_Tree_node@U?$pair@$$CBEH@std@@PAX@std@@@std@@@?$_Tree_val@U?$_Tree_simple_types@U?$pair@$$CBEH@std@@@std@@@std@@QAE@XZ ; std::_Tree_val<std::_Tree_simple_types<std::pair<unsigned char const ,int> > >::_Erase_tree_and_orphan_guard<std::allocator<std::_Tree_node<std::pair<unsigned char const ,int>,void *> > >::~_Erase_tree_and_orphan_guard<std::allocator<std::_Tree_node<std::pair<unsigned char const ,int>,void *> > >
PUBLIC	??$_Erase_tree_and_orphan@V?$allocator@U?$_Tree_node@U?$pair@$$CBEH@std@@PAX@std@@@std@@@?$_Tree_val@U?$_Tree_simple_types@U?$pair@$$CBEH@std@@@std@@@std@@QAEXAAV?$allocator@U?$_Tree_node@U?$pair@$$CBEH@std@@PAX@std@@@1@PAU?$_Tree_node@U?$pair@$$CBEH@std@@PAX@1@@Z ; std::_Tree_val<std::_Tree_simple_types<std::pair<unsigned char const ,int> > >::_Erase_tree_and_orphan<std::allocator<std::_Tree_node<std::pair<unsigned char const ,int>,void *> > >
PUBLIC	??1?$_Alloc_construct_ptr@V?$allocator@U?$_Tree_node@U?$pair@$$CBEH@std@@PAX@std@@@std@@@std@@QAE@XZ ; std::_Alloc_construct_ptr<std::allocator<std::_Tree_node<std::pair<unsigned char const ,int>,void *> > >::~_Alloc_construct_ptr<std::allocator<std::_Tree_node<std::pair<unsigned char const ,int>,void *> > >
PUBLIC	?_OptionsStorage@?1??__local_stdio_printf_options@@9@4_KA ; `__local_stdio_printf_options'::`2'::_OptionsStorage
PUBLIC	??_7exception@std@@6B@				; std::exception::`vftable'
PUBLIC	??_C@_0BC@EOODALEL@Unknown?5exception@		; `string'
PUBLIC	??_7bad_alloc@std@@6B@				; std::bad_alloc::`vftable'
PUBLIC	??_7bad_array_new_length@std@@6B@		; std::bad_array_new_length::`vftable'
PUBLIC	??_C@_0BF@KINCDENJ@bad?5array?5new?5length@	; `string'
PUBLIC	??_R0?AVexception@std@@@8			; std::exception `RTTI Type Descriptor'
PUBLIC	__CT??_R0?AVexception@std@@@8??0exception@std@@QAE@ABV01@@Z12
PUBLIC	__TI3?AVbad_array_new_length@std@@
PUBLIC	__CTA3?AVbad_array_new_length@std@@
PUBLIC	??_R0?AVbad_array_new_length@std@@@8		; std::bad_array_new_length `RTTI Type Descriptor'
PUBLIC	__CT??_R0?AVbad_array_new_length@std@@@8??0bad_array_new_length@std@@QAE@ABV01@@Z12
PUBLIC	??_R0?AVbad_alloc@std@@@8			; std::bad_alloc `RTTI Type Descriptor'
PUBLIC	__CT??_R0?AVbad_alloc@std@@@8??0bad_alloc@std@@QAE@ABV01@@Z12
PUBLIC	??_C@_0BA@JFNIOLAK@string?5too?5long@		; `string'
PUBLIC	??_C@_0BB@GCADKGJO@map?1set?5too?5long@		; `string'
PUBLIC	??_R4exception@std@@6B@				; std::exception::`RTTI Complete Object Locator'
PUBLIC	??_R3exception@std@@8				; std::exception::`RTTI Class Hierarchy Descriptor'
PUBLIC	??_R2exception@std@@8				; std::exception::`RTTI Base Class Array'
PUBLIC	??_R1A@?0A@EA@exception@std@@8			; std::exception::`RTTI Base Class Descriptor at (0,-1,0,64)'
PUBLIC	??_R4bad_array_new_length@std@@6B@		; std::bad_array_new_length::`RTTI Complete Object Locator'
PUBLIC	??_R3bad_array_new_length@std@@8		; std::bad_array_new_length::`RTTI Class Hierarchy Descriptor'
PUBLIC	??_R2bad_array_new_length@std@@8		; std::bad_array_new_length::`RTTI Base Class Array'
PUBLIC	??_R1A@?0A@EA@bad_array_new_length@std@@8	; std::bad_array_new_length::`RTTI Base Class Descriptor at (0,-1,0,64)'
PUBLIC	??_R1A@?0A@EA@bad_alloc@std@@8			; std::bad_alloc::`RTTI Base Class Descriptor at (0,-1,0,64)'
PUBLIC	??_R3bad_alloc@std@@8				; std::bad_alloc::`RTTI Class Hierarchy Descriptor'
PUBLIC	??_R2bad_alloc@std@@8				; std::bad_alloc::`RTTI Base Class Array'
PUBLIC	??_R4bad_alloc@std@@6B@				; std::bad_alloc::`RTTI Complete Object Locator'
PUBLIC	??_C@_0BD@BGDLFGME@FAIL?5read?5ini?5?9?5?$CFs@	; `string'
PUBLIC	??_C@_0BJ@POMECNAN@EnableConnectionPooling?6@	; `string'
PUBLIC	??_C@_0BH@DEJALFOO@LoadRemoveItemList?4ini@	; `string'
PUBLIC	??_C@_0BN@LPGCIDJ@LoadRemoveItemList?4ini?5FAILE@ ; `string'
PUBLIC	??_C@_0BC@NIICKMCD@ConvItem?5Success?$CB@	; `string'
PUBLIC	??_C@_0O@KGDKAKJB@propEvent?4inc@		; `string'
PUBLIC	??_C@_0O@OJGHAJEB@propevent?4inc@		; `string'
PUBLIC	??_C@_07NPJJGNLP@SquireD@			; `string'
PUBLIC	??_C@_0BC@FBAMFINP@?$CFY?1?$CFm?1?$CFd?5?$CFH?3?$CFM?3?$CFS@ ; `string'
PUBLIC	??_C@_02DKCKIIND@?$CFs@				; `string'
PUBLIC	??_C@_0P@LOHDAGAN@ResourceFolder@		; `string'
PUBLIC	??_C@_0BF@HNCPIIMN@Folder?5not?5found?0?5?$CFs@	; `string'
PUBLIC	??_C@_06DJIHEMFI@status@			; `string'
PUBLIC	??_C@_03FIDBPJEF@Sys@				; `string'
PUBLIC	??_C@_04NNFNFJKG@dwId@				; `string'
PUBLIC	??_C@_07FENCDID@Account@			; `string'
PUBLIC	??_C@_0BD@MHKJENCN@DSN_NAME_CHARACTER@		; `string'
PUBLIC	??_C@_0BG@HLPNCKNG@DB_ADMIN_ID_CHARACTER@	; `string'
PUBLIC	??_C@_0N@CMCKBMLA@DSN_NAME_LOG@			; `string'
PUBLIC	??_C@_0BA@KGJHOKPM@DB_ADMIN_ID_LOG@		; `string'
PUBLIC	??_C@_0BE@GBLGMHPJ@DSN_NAME_BACKSYSTEM@		; `string'
PUBLIC	??_C@_0BH@ELGFLIAK@DB_ADMIN_ID_BACKSYSTEM@	; `string'
PUBLIC	??_C@_0O@KOOOCHBP@BACKENDSYSTEM@		; `string'
PUBLIC	??_C@_0BE@BCIALBJO@DSN_NAME_ITEMUPDATE@		; `string'
PUBLIC	??_C@_0BH@DIFDMOGN@DB_ADMIN_ID_ITEMUPDATE@	; `string'
PUBLIC	??_C@_0L@LKBMOMCF@ITEMUPDATE@			; `string'
PUBLIC	??_C@_0O@MKHDOMGP@ConvStartItem@		; `string'
PUBLIC	??_C@_09CCDMIBGH@SAVE_TEXT@			; `string'
PUBLIC	??_C@_0BA@EPDGNAAI@REMOVE_ITEM_ALL@		; `string'
PUBLIC	??_C@_0BE@EMCNIGPJ@REMOVE_ITEM_ALL_PAY@		; `string'
PUBLIC	??_C@_0BB@HDGGMKPA@PIERCING_CONFIRM@		; `string'
PUBLIC	??_C@_0BC@KCBPOKMH@BankToItemSendTbl@		; `string'
PUBLIC	??_C@_0BH@BEBEMMJA@InventoryToItemSendTbl@	; `string'
PUBLIC	??_C@_0BC@EDCGHAPB@__ITEM_REMOVE0203@		; `string'
PUBLIC	??_C@_0BE@DOEKBAIP@REMOVE_INVALID_ITEM@		; `string'
PUBLIC	??_C@_0L@ENKPLNGB@DB_PWD_LOG@			; `string'
PUBLIC	??_C@_0BB@MABONDJP@DB_PWD_CHARACTER@		; `string'
PUBLIC	??_C@_0P@NMDCKAML@DB_PWD_BACKEND@		; `string'
PUBLIC	??_C@_0BC@DHOINEKA@DB_PWD_ITEMUPDATE@		; `string'
PUBLIC	??_C@_07PMFDBAGJ@ITEM_ID@			; `string'
PUBLIC	??_C@_0M@EMECFGFM@RESTORE_PET@			; `string'
PUBLIC	??_C@_0N@NNJOKFBG@REMOVE_QUEST@			; `string'
PUBLIC	??_C@_0P@LPNJPKHP@masquerade?4prj@		; `string'
PUBLIC	??_C@_0BF@NHLHHCKP@Fail?5to?5open?5project@	; `string'
PUBLIC	??_C@_0BG@DBHAGMCH@BankToItemSendTbl?4txt@	; `string'
PUBLIC	??_C@_0BL@JKJMKOBM@InventoryToItemSendTbl?4txt@	; `string'
PUBLIC	??_C@_0P@CNCAIPIG@ItemRemove?4txt@		; `string'
PUBLIC	??_C@_08PIDMBOPH@conv?4txt@			; `string'
PUBLIC	??_C@_0P@OHOOLBKB@restorepet?4txt@		; `string'
PUBLIC	??_C@_0BF@FNEPOGMA@end?5?9?5restorepet?4txt@	; `string'
PUBLIC	??_C@_05GMBADOLI@Ready@				; `string'
PUBLIC	??_C@_0BG@MNCFBEJM@Fail?5to?5open?5file?0?5?$CFs@ ; `string'
EXTRN	??2@YAPAXI@Z:PROC				; operator new
EXTRN	??3@YAXPAXI@Z:PROC				; operator delete
EXTRN	__invalid_parameter_noinfo:PROC
EXTRN	__invoke_watson:PROC
EXTRN	__errno:PROC
EXTRN	__imp__GetStdHandle@4:PROC
EXTRN	__imp__SetCurrentDirectoryA@4:PROC
EXTRN	__imp__WriteFile@20:PROC
EXTRN	__imp__OutputDebugStringA@4:PROC
EXTRN	__imp__PostQueuedCompletionStatus@16:PROC
EXTRN	__imp__EnterCriticalSection@4:PROC
EXTRN	__imp__LeaveCriticalSection@4:PROC
EXTRN	__imp__DeleteCriticalSection@4:PROC
EXTRN	__imp__VirtualFree@12:PROC
EXTRN	__imp__LoadResource@8:PROC
EXTRN	__imp__LoadStringA@16:PROC
EXTRN	__imp__LockResource@4:PROC
EXTRN	__imp__SizeofResource@8:PROC
EXTRN	__imp__FindResourceW@12:PROC
EXTRN	__imp__CreateFontA@56:PROC
EXTRN	__imp__GetMessageA@16:PROC
EXTRN	__imp__TranslateMessage@4:PROC
EXTRN	__imp__DispatchMessageA@4:PROC
EXTRN	__imp__DefWindowProcA@16:PROC
EXTRN	__imp__PostQuitMessage@4:PROC
EXTRN	__imp__RegisterClassExA@4:PROC
EXTRN	__imp__CreateWindowExA@48:PROC
EXTRN	__imp__DestroyWindow@4:PROC
EXTRN	__imp__ShowWindow@8:PROC
EXTRN	__imp__SetWindowPos@28:PROC
EXTRN	__imp__SetTimer@16:PROC
EXTRN	__imp__KillTimer@8:PROC
EXTRN	__imp__GetMenu@4:PROC
EXTRN	__imp__CheckMenuItem@12:PROC
EXTRN	__imp__UpdateWindow@4:PROC
EXTRN	__imp__BeginPaint@8:PROC
EXTRN	__imp__EndPaint@8:PROC
EXTRN	__imp__LoadCursorA@8:PROC
EXTRN	__imp__LoadIconA@8:PROC
EXTRN	__imp__WideCharToMultiByte@32:PROC
EXTRN	__mbscmp:PROC
EXTRN	___stdio_common_vsprintf:PROC
EXTRN	_atoi:PROC
EXTRN	__localtime64_s:PROC
EXTRN	_strftime:PROC
EXTRN	__time64:PROC
EXTRN	?AfxThrowMemoryException@@YGXXZ:PROC		; AfxThrowMemoryException
EXTRN	?AfxThrowOleException@@YGXJ@Z:PROC		; AfxThrowOleException
EXTRN	?AfxFindStringResourceHandle@@YGPAUHINSTANCE__@@I@Z:PROC ; AfxFindStringResourceHandle
EXTRN	?AfxGetStringManager@@YGPAUIAtlStringMgr@ATL@@XZ:PROC ; AfxGetStringManager
EXTRN	?AfxMessageBox@@YGHPBDII@Z:PROC			; AfxMessageBox
EXTRN	?_Xlength_error@std@@YAXPBD@Z:PROC		; std::_Xlength_error
EXTRN	___std_exception_copy:PROC
EXTRN	___std_exception_destroy:PROC
EXTRN	??_Eexception@std@@UAEPAXI@Z:PROC		; std::exception::`vector deleting destructor'
EXTRN	??_Ebad_alloc@std@@UAEPAXI@Z:PROC		; std::bad_alloc::`vector deleting destructor'
EXTRN	??_Ebad_array_new_length@std@@UAEPAXI@Z:PROC	; std::bad_array_new_length::`vector deleting destructor'
EXTRN	__imp__timeGetTime@0:PROC
EXTRN	?xSRand@@YAXK@Z:PROC				; xSRand
EXTRN	?SetLanguageInfo@@YAXHH@Z:PROC			; SetLanguageInfo
EXTRN	?SetUse2ndPassWord@@YAXH@Z:PROC			; SetUse2ndPassWord
EXTRN	??0CScanner@@QAE@H@Z:PROC			; CScanner::CScanner
EXTRN	??1CScanner@@UAE@XZ:PROC			; CScanner::~CScanner
EXTRN	?GetToken@CScanner@@UAEHH@Z:PROC		; CScanner::GetToken
EXTRN	?Load@CScanner@@QAEHPBDH@Z:PROC			; CScanner::Load
EXTRN	?GetNumber@CScanner@@QAEHH@Z:PROC		; CScanner::GetNumber
EXTRN	?IsNoticeTime@CEventLua@@QAEHXZ:PROC		; CEventLua::IsNoticeTime
EXTRN	?CheckEventState@CEventLua@@QAEHXZ:PROC		; CEventLua::CheckEventState
EXTRN	?LoadScript@CEventLua@@QAEXXZ:PROC		; CEventLua::LoadScript
EXTRN	?CheckOpenTIme@CGuildCombat1to1Mng@@QAEHXZ:PROC	; CGuildCombat1to1Mng::CheckOpenTIme
EXTRN	?OpenProject@CProject@@QAEHPBD@Z:PROC		; CProject::OpenProject
EXTRN	?SetConvMode@CProject@@QAEXK@Z:PROC		; CProject::SetConvMode
EXTRN	?IsConvMode@CProject@@QAEHK@Z:PROC		; CProject::IsConvMode
EXTRN	?EnableConnectionPooling@CQuery@@SAHXZ:PROC	; CQuery::EnableConnectionPooling
EXTRN	?GetPWDFromToken@@YAHPBDPAD@Z:PROC		; GetPWDFromToken
EXTRN	??0CAr@@QAE@PAXI@Z:PROC				; CAr::CAr
EXTRN	??1CAr@@QAE@XZ:PROC				; CAr::~CAr
EXTRN	?CheckBuf@CAr@@QAEXI@Z:PROC			; CAr::CheckBuf
EXTRN	?GetBuffer@CAr@@QAEPAEPAH@Z:PROC		; CAr::GetBuffer
EXTRN	?UninitializeNetLib@@YAXXZ:PROC			; UninitializeNetLib
EXTRN	?InitializeNetLib@@YAHXZ:PROC			; InitializeNetLib
EXTRN	?CreateDPObject@CDPMng@@QAEHH@Z:PROC		; CDPMng::CreateDPObject
EXTRN	?DeleteDPObject@CDPMng@@QAEHXZ:PROC		; CDPMng::DeleteDPObject
EXTRN	?InitConnection@CDPMng@@QAEHPAXG@Z:PROC		; CDPMng::InitConnection
EXTRN	?CreateSession@CDPMng@@QAEHPBDW4BUFFER_TYPE@@@Z:PROC ; CDPMng::CreateSession
EXTRN	?JoinSession@CDPMng@@QAEHPBDW4BUFFER_TYPE@@@Z:PROC ; CDPMng::JoinSession
EXTRN	?AllocRequest@CDbManager@@QAEPAUtagDB_OVERLAPPED_PLUS@@XZ:PROC ; CDbManager::AllocRequest
EXTRN	?GetInstance@CDbManager@@SAAAV1@XZ:PROC		; CDbManager::GetInstance
EXTRN	?RemoveQuest@CDbManager@@QAEHXZ:PROC		; CDbManager::RemoveQuest
EXTRN	?LoadPlayerData@CDbManager@@QAEHXZ:PROC		; CDbManager::LoadPlayerData
EXTRN	?GetPartyName@CDbManager@@QAEHXZ:PROC		; CDbManager::GetPartyName
EXTRN	?OpenGuildCombat@CDbManager@@QAEHXZ:PROC	; CDbManager::OpenGuildCombat
EXTRN	?LoadPost@CDbManager@@QAEHXZ:PROC		; CDbManager::LoadPost
EXTRN	?QueryRemoveGuildBankTbl@CDbManager@@QAEHXZ:PROC ; CDbManager::QueryRemoveGuildBankTbl
EXTRN	?BankToItemSendTbl@CDbManager@@QAEHPBD@Z:PROC	; CDbManager::BankToItemSendTbl
EXTRN	?InventoryToItemSendTbl@CDbManager@@QAEHPBD@Z:PROC ; CDbManager::InventoryToItemSendTbl
EXTRN	?ItemRemove0203@CDbManager@@QAEHPBD@Z:PROC	; CDbManager::ItemRemove0203
EXTRN	?RemoveInvalidItem@CDbManager@@QAEHXZ:PROC	; CDbManager::RemoveInvalidItem
EXTRN	?Conv@CDbManager@@QAEHPBD@Z:PROC		; CDbManager::Conv
EXTRN	?RestorePet@CDbManager@@QAEHPBD@Z:PROC		; CDbManager::RestorePet
EXTRN	?CreateDbWorkers@CDbManager@@QAEHXZ:PROC	; CDbManager::CreateDbWorkers
EXTRN	?Clear@CDbManager@@QAEXXZ:PROC			; CDbManager::Clear
EXTRN	?ConvItemStart@CDbManager@@QAEHXZ:PROC		; CDbManager::ConvItemStart
EXTRN	?GetInstance@CQuiz@@SAPAV1@XZ:PROC		; CQuiz::GetInstance
EXTRN	?LoadScript@CQuiz@@QAEXXZ:PROC			; CQuiz::LoadScript
EXTRN	?GetInstance@CDPTrans@@SAPAV1@XZ:PROC		; CDPTrans::GetInstance
EXTRN	?SendGC1to1Open@CDPTrans@@QAEXXZ:PROC		; CDPTrans::SendGC1to1Open
EXTRN	?SendEventFlag@CDPTrans@@QAEXK@Z:PROC		; CDPTrans::SendEventFlag
EXTRN	?SendEventLuaState@CDPTrans@@QAEXV?$map@EHU?$less@E@std@@V?$allocator@U?$pair@$$CBEH@std@@@2@@std@@HK@Z:PROC ; CDPTrans::SendEventLuaState
EXTRN	?SendEventLuaChanged@CDPTrans@@QAEXXZ:PROC	; CDPTrans::SendEventLuaChanged
EXTRN	?OnSaveConcurrentUserNumber@CDPTrans@@QAEXAAVCAr@@KKKPAEK@Z:PROC ; CDPTrans::OnSaveConcurrentUserNumber
EXTRN	?SendPCBangSetApply@CDPTrans@@QAEXK@Z:PROC	; CDPTrans::SendPCBangSetApply
EXTRN	?SendQuizEventChanged@CDPTrans@@QAEXXZ:PROC	; CDPTrans::SendQuizEventChanged
EXTRN	?SendAddIdofServer@CDPAccountClient@@QAEXK@Z:PROC ; CDPAccountClient::SendAddIdofServer
EXTRN	?Add@CMyTrace@@QAAXKHPBDZZ:PROC			; CMyTrace::Add
EXTRN	?AddLine@CMyTrace@@QAEXD@Z:PROC			; CMyTrace::AddLine
EXTRN	?Paint@CMyTrace@@QAEXPAUHDC__@@@Z:PROC		; CMyTrace::Paint
EXTRN	?Key@CMyTrace@@SAKPBD@Z:PROC			; CMyTrace::Key
EXTRN	?Clear@CGuildMng@@QAEXXZ:PROC			; CGuildMng::Clear
EXTRN	?Process@CPost@@QAEXXZ:PROC			; CPost::Process
EXTRN	?GetInstance@CPost@@SAPAV1@XZ:PROC		; CPost::GetInstance
EXTRN	?PostRequest@CDbController@@QAEHHPAEHK@Z:PROC	; CDbController::PostRequest
EXTRN	?Create@CDbControllerTimer@@QAEXXZ:PROC		; CDbControllerTimer::Create
EXTRN	?Destroy@CDbControllerTimer@@QAEXXZ:PROC	; CDbControllerTimer::Destroy
EXTRN	?GetInstance@CDbControllerTimer@@SAPAV1@XZ:PROC	; CDbControllerTimer::GetInstance
EXTRN	?SendEventLuaNotice@CDPCoreSrvr@@QAEXXZ:PROC	; CDPCoreSrvr::SendEventLuaNotice
EXTRN	?LoadScript@CEventGeneric@@QAEHPBD@Z:PROC	; CEventGeneric::LoadScript
EXTRN	?GetInstance@CEventGeneric@@SAPAV1@XZ:PROC	; CEventGeneric::GetInstance
EXTRN	?Run@CEventGeneric@@QAEHXZ:PROC			; CEventGeneric::Run
EXTRN	?Instance@CTLord@@SAPAV1@XZ:PROC		; CTLord::Instance
EXTRN	?GetInstance@CQuizDBMng@@SAPAV1@XZ:PROC		; CQuizDBMng::GetInstance
EXTRN	?InitQuizEventId@CQuizDBMng@@QAEHXZ:PROC	; CQuizDBMng::InitQuizEventId
EXTRN	?GetInstance@CGuildHouseDBMng@@SAPAV1@XZ:PROC	; CGuildHouseDBMng::GetInstance
EXTRN	?GetInstance@CCampusHelper@@SAPAV1@XZ:PROC	; CCampusHelper::GetInstance
EXTRN	@__security_check_cookie@4:PROC
EXTRN	__CxxThrowException@8:PROC
EXTRN	___CxxFrameHandler3:PROC
EXTRN	__chkstk:PROC
EXTRN	_memcpy:PROC
EXTRN	_memmove:PROC
EXTRN	_memset:PROC
EXTRN	??_7type_info@@6B@:QWORD			; type_info::`vftable'
EXTRN	?g_codePage@@3GA:WORD				; g_codePage
EXTRN	?prj@@3VCProject@@A:BYTE			; prj
EXTRN	?m_pPool@CMover@@2PAV?$MemPooler@VCMover@@@@A:DWORD ; CMover::m_pPool
EXTRN	?g_DbManager@@3AAVCDbManager@@A:DWORD		; g_DbManager
EXTRN	?hMainWnd@@3PAUHWND__@@A:DWORD			; hMainWnd
EXTRN	?hInst@@3PAUHINSTANCE__@@A:DWORD		; hInst
EXTRN	?DSN_NAME_CHARACTER01@@3PADA:BYTE		; DSN_NAME_CHARACTER01
EXTRN	?DB_ADMIN_ID_CHARACTER01@@3PADA:BYTE		; DB_ADMIN_ID_CHARACTER01
EXTRN	?DSN_NAME_LOG@@3PADA:BYTE			; DSN_NAME_LOG
EXTRN	?DB_ADMIN_ID_LOG@@3PADA:BYTE			; DB_ADMIN_ID_LOG
EXTRN	?DSN_NAME_BACKSYSTEM@@3PADA:BYTE		; DSN_NAME_BACKSYSTEM
EXTRN	?DB_ADMIN_ID_BACKSYSTEM@@3PADA:BYTE		; DB_ADMIN_ID_BACKSYSTEM
EXTRN	?DSN_NAME_ITEMUPDATE@@3PADA:BYTE		; DSN_NAME_ITEMUPDATE
EXTRN	?DB_ADMIN_ID_ITEMUPDATE@@3PADA:BYTE		; DB_ADMIN_ID_ITEMUPDATE
EXTRN	?sm_pPool@CGuildMember@@2PAV?$MemPooler@VCGuildMember@@@@A:DWORD ; CGuildMember::sm_pPool
EXTRN	?sm_pPool@CGuild@@2PAV?$MemPooler@VCGuild@@@@A:DWORD ; CGuild::sm_pPool
EXTRN	?g_appInfo@@3UAppInfo@@A:QWORD			; g_appInfo
EXTRN	?g_GuildMng@@3VCGuildMng@@A:BYTE		; g_GuildMng
EXTRN	?g_dpLoginSrvr@@3VCDPLoginSrvr@@A:BYTE		; g_dpLoginSrvr
EXTRN	?g_dpAccountClient@@3VCDPAccountClient@@A:BYTE	; g_dpAccountClient
EXTRN	?g_MyTrace@@3VCMyTrace@@A:BYTE			; g_MyTrace
EXTRN	?g_dpCoreSrvr@@3VCDPCoreSrvr@@A:BYTE		; g_dpCoreSrvr
EXTRN	___security_cookie:DWORD
;	COMDAT ?_OptionsStorage@?1??__local_stdio_printf_options@@9@4_KA
_BSS	SEGMENT
?_OptionsStorage@?1??__local_stdio_printf_options@@9@4_KA DQ 01H DUP (?) ; `__local_stdio_printf_options'::`2'::_OptionsStorage
_BSS	ENDS
;	COMDAT ??_C@_0BG@MNCFBEJM@Fail?5to?5open?5file?0?5?$CFs@
CONST	SEGMENT
??_C@_0BG@MNCFBEJM@Fail?5to?5open?5file?0?5?$CFs@ DB 'Fail to open file, '
	DB	'%s', 00H					; `string'
CONST	ENDS
;	COMDAT ??_C@_05GMBADOLI@Ready@
CONST	SEGMENT
??_C@_05GMBADOLI@Ready@ DB 'Ready', 00H			; `string'
CONST	ENDS
;	COMDAT ??_C@_0BF@FNEPOGMA@end?5?9?5restorepet?4txt@
CONST	SEGMENT
??_C@_0BF@FNEPOGMA@end?5?9?5restorepet?4txt@ DB 'end - restorepet.txt', 00H ; `string'
CONST	ENDS
;	COMDAT ??_C@_0P@OHOOLBKB@restorepet?4txt@
CONST	SEGMENT
??_C@_0P@OHOOLBKB@restorepet?4txt@ DB 'restorepet.txt', 00H ; `string'
CONST	ENDS
;	COMDAT ??_C@_08PIDMBOPH@conv?4txt@
CONST	SEGMENT
??_C@_08PIDMBOPH@conv?4txt@ DB 'conv.txt', 00H		; `string'
CONST	ENDS
;	COMDAT ??_C@_0P@CNCAIPIG@ItemRemove?4txt@
CONST	SEGMENT
??_C@_0P@CNCAIPIG@ItemRemove?4txt@ DB 'ItemRemove.txt', 00H ; `string'
CONST	ENDS
;	COMDAT ??_C@_0BL@JKJMKOBM@InventoryToItemSendTbl?4txt@
CONST	SEGMENT
??_C@_0BL@JKJMKOBM@InventoryToItemSendTbl?4txt@ DB 'InventoryToItemSendTb'
	DB	'l.txt', 00H					; `string'
CONST	ENDS
;	COMDAT ??_C@_0BG@DBHAGMCH@BankToItemSendTbl?4txt@
CONST	SEGMENT
??_C@_0BG@DBHAGMCH@BankToItemSendTbl?4txt@ DB 'BankToItemSendTbl.txt', 00H ; `string'
CONST	ENDS
;	COMDAT ??_C@_0BF@NHLHHCKP@Fail?5to?5open?5project@
CONST	SEGMENT
??_C@_0BF@NHLHHCKP@Fail?5to?5open?5project@ DB 'Fail to open project', 00H ; `string'
CONST	ENDS
;	COMDAT ??_C@_0P@LPNJPKHP@masquerade?4prj@
CONST	SEGMENT
??_C@_0P@LPNJPKHP@masquerade?4prj@ DB 'masquerade.prj', 00H ; `string'
CONST	ENDS
;	COMDAT ??_C@_0N@NNJOKFBG@REMOVE_QUEST@
CONST	SEGMENT
??_C@_0N@NNJOKFBG@REMOVE_QUEST@ DB 'REMOVE_QUEST', 00H	; `string'
CONST	ENDS
;	COMDAT ??_C@_0M@EMECFGFM@RESTORE_PET@
CONST	SEGMENT
??_C@_0M@EMECFGFM@RESTORE_PET@ DB 'RESTORE_PET', 00H	; `string'
CONST	ENDS
;	COMDAT ??_C@_07PMFDBAGJ@ITEM_ID@
CONST	SEGMENT
??_C@_07PMFDBAGJ@ITEM_ID@ DB 'ITEM_ID', 00H		; `string'
CONST	ENDS
;	COMDAT ??_C@_0BC@DHOINEKA@DB_PWD_ITEMUPDATE@
CONST	SEGMENT
??_C@_0BC@DHOINEKA@DB_PWD_ITEMUPDATE@ DB 'DB_PWD_ITEMUPDATE', 00H ; `string'
CONST	ENDS
;	COMDAT ??_C@_0P@NMDCKAML@DB_PWD_BACKEND@
CONST	SEGMENT
??_C@_0P@NMDCKAML@DB_PWD_BACKEND@ DB 'DB_PWD_BACKEND', 00H ; `string'
CONST	ENDS
;	COMDAT ??_C@_0BB@MABONDJP@DB_PWD_CHARACTER@
CONST	SEGMENT
??_C@_0BB@MABONDJP@DB_PWD_CHARACTER@ DB 'DB_PWD_CHARACTER', 00H ; `string'
CONST	ENDS
;	COMDAT ??_C@_0L@ENKPLNGB@DB_PWD_LOG@
CONST	SEGMENT
??_C@_0L@ENKPLNGB@DB_PWD_LOG@ DB 'DB_PWD_LOG', 00H	; `string'
CONST	ENDS
;	COMDAT ??_C@_0BE@DOEKBAIP@REMOVE_INVALID_ITEM@
CONST	SEGMENT
??_C@_0BE@DOEKBAIP@REMOVE_INVALID_ITEM@ DB 'REMOVE_INVALID_ITEM', 00H ; `string'
CONST	ENDS
;	COMDAT ??_C@_0BC@EDCGHAPB@__ITEM_REMOVE0203@
CONST	SEGMENT
??_C@_0BC@EDCGHAPB@__ITEM_REMOVE0203@ DB '__ITEM_REMOVE0203', 00H ; `string'
CONST	ENDS
;	COMDAT ??_C@_0BH@BEBEMMJA@InventoryToItemSendTbl@
CONST	SEGMENT
??_C@_0BH@BEBEMMJA@InventoryToItemSendTbl@ DB 'InventoryToItemSendTbl', 00H ; `string'
CONST	ENDS
;	COMDAT ??_C@_0BC@KCBPOKMH@BankToItemSendTbl@
CONST	SEGMENT
??_C@_0BC@KCBPOKMH@BankToItemSendTbl@ DB 'BankToItemSendTbl', 00H ; `string'
CONST	ENDS
;	COMDAT ??_C@_0BB@HDGGMKPA@PIERCING_CONFIRM@
CONST	SEGMENT
??_C@_0BB@HDGGMKPA@PIERCING_CONFIRM@ DB 'PIERCING_CONFIRM', 00H ; `string'
CONST	ENDS
;	COMDAT ??_C@_0BE@EMCNIGPJ@REMOVE_ITEM_ALL_PAY@
CONST	SEGMENT
??_C@_0BE@EMCNIGPJ@REMOVE_ITEM_ALL_PAY@ DB 'REMOVE_ITEM_ALL_PAY', 00H ; `string'
CONST	ENDS
;	COMDAT ??_C@_0BA@EPDGNAAI@REMOVE_ITEM_ALL@
CONST	SEGMENT
??_C@_0BA@EPDGNAAI@REMOVE_ITEM_ALL@ DB 'REMOVE_ITEM_ALL', 00H ; `string'
CONST	ENDS
;	COMDAT ??_C@_09CCDMIBGH@SAVE_TEXT@
CONST	SEGMENT
??_C@_09CCDMIBGH@SAVE_TEXT@ DB 'SAVE_TEXT', 00H		; `string'
CONST	ENDS
;	COMDAT ??_C@_0O@MKHDOMGP@ConvStartItem@
CONST	SEGMENT
??_C@_0O@MKHDOMGP@ConvStartItem@ DB 'ConvStartItem', 00H ; `string'
CONST	ENDS
;	COMDAT ??_C@_0L@LKBMOMCF@ITEMUPDATE@
CONST	SEGMENT
??_C@_0L@LKBMOMCF@ITEMUPDATE@ DB 'ITEMUPDATE', 00H	; `string'
CONST	ENDS
;	COMDAT ??_C@_0BH@DIFDMOGN@DB_ADMIN_ID_ITEMUPDATE@
CONST	SEGMENT
??_C@_0BH@DIFDMOGN@DB_ADMIN_ID_ITEMUPDATE@ DB 'DB_ADMIN_ID_ITEMUPDATE', 00H ; `string'
CONST	ENDS
;	COMDAT ??_C@_0BE@BCIALBJO@DSN_NAME_ITEMUPDATE@
CONST	SEGMENT
??_C@_0BE@BCIALBJO@DSN_NAME_ITEMUPDATE@ DB 'DSN_NAME_ITEMUPDATE', 00H ; `string'
CONST	ENDS
;	COMDAT ??_C@_0O@KOOOCHBP@BACKENDSYSTEM@
CONST	SEGMENT
??_C@_0O@KOOOCHBP@BACKENDSYSTEM@ DB 'BACKENDSYSTEM', 00H ; `string'
CONST	ENDS
;	COMDAT ??_C@_0BH@ELGFLIAK@DB_ADMIN_ID_BACKSYSTEM@
CONST	SEGMENT
??_C@_0BH@ELGFLIAK@DB_ADMIN_ID_BACKSYSTEM@ DB 'DB_ADMIN_ID_BACKSYSTEM', 00H ; `string'
CONST	ENDS
;	COMDAT ??_C@_0BE@GBLGMHPJ@DSN_NAME_BACKSYSTEM@
CONST	SEGMENT
??_C@_0BE@GBLGMHPJ@DSN_NAME_BACKSYSTEM@ DB 'DSN_NAME_BACKSYSTEM', 00H ; `string'
CONST	ENDS
;	COMDAT ??_C@_0BA@KGJHOKPM@DB_ADMIN_ID_LOG@
CONST	SEGMENT
??_C@_0BA@KGJHOKPM@DB_ADMIN_ID_LOG@ DB 'DB_ADMIN_ID_LOG', 00H ; `string'
CONST	ENDS
;	COMDAT ??_C@_0N@CMCKBMLA@DSN_NAME_LOG@
CONST	SEGMENT
??_C@_0N@CMCKBMLA@DSN_NAME_LOG@ DB 'DSN_NAME_LOG', 00H	; `string'
CONST	ENDS
;	COMDAT ??_C@_0BG@HLPNCKNG@DB_ADMIN_ID_CHARACTER@
CONST	SEGMENT
??_C@_0BG@HLPNCKNG@DB_ADMIN_ID_CHARACTER@ DB 'DB_ADMIN_ID_CHARACTER', 00H ; `string'
CONST	ENDS
;	COMDAT ??_C@_0BD@MHKJENCN@DSN_NAME_CHARACTER@
CONST	SEGMENT
??_C@_0BD@MHKJENCN@DSN_NAME_CHARACTER@ DB 'DSN_NAME_CHARACTER', 00H ; `string'
CONST	ENDS
;	COMDAT ??_C@_07FENCDID@Account@
CONST	SEGMENT
??_C@_07FENCDID@Account@ DB 'Account', 00H		; `string'
CONST	ENDS
;	COMDAT ??_C@_04NNFNFJKG@dwId@
CONST	SEGMENT
??_C@_04NNFNFJKG@dwId@ DB 'dwId', 00H			; `string'
CONST	ENDS
;	COMDAT ??_C@_03FIDBPJEF@Sys@
CONST	SEGMENT
??_C@_03FIDBPJEF@Sys@ DB 'Sys', 00H			; `string'
CONST	ENDS
;	COMDAT ??_C@_06DJIHEMFI@status@
CONST	SEGMENT
??_C@_06DJIHEMFI@status@ DB 'status', 00H		; `string'
CONST	ENDS
;	COMDAT ??_C@_0BF@HNCPIIMN@Folder?5not?5found?0?5?$CFs@
CONST	SEGMENT
??_C@_0BF@HNCPIIMN@Folder?5not?5found?0?5?$CFs@ DB 'Folder not found, %s', 00H ; `string'
CONST	ENDS
;	COMDAT ??_C@_0P@LOHDAGAN@ResourceFolder@
CONST	SEGMENT
??_C@_0P@LOHDAGAN@ResourceFolder@ DB 'ResourceFolder', 00H ; `string'
CONST	ENDS
;	COMDAT ??_C@_02DKCKIIND@?$CFs@
CONST	SEGMENT
??_C@_02DKCKIIND@?$CFs@ DB '%s', 00H			; `string'
CONST	ENDS
;	COMDAT ??_C@_0BC@FBAMFINP@?$CFY?1?$CFm?1?$CFd?5?$CFH?3?$CFM?3?$CFS@
CONST	SEGMENT
??_C@_0BC@FBAMFINP@?$CFY?1?$CFm?1?$CFd?5?$CFH?3?$CFM?3?$CFS@ DB '%Y/%m/%d'
	DB	' %H:%M:%S', 00H				; `string'
CONST	ENDS
;	COMDAT ??_C@_07NPJJGNLP@SquireD@
CONST	SEGMENT
??_C@_07NPJJGNLP@SquireD@ DB 'SquireD', 00H		; `string'
CONST	ENDS
;	COMDAT ??_C@_0O@OJGHAJEB@propevent?4inc@
CONST	SEGMENT
??_C@_0O@OJGHAJEB@propevent?4inc@ DB 'propevent.inc', 00H ; `string'
CONST	ENDS
;	COMDAT ??_C@_0O@KGDKAKJB@propEvent?4inc@
CONST	SEGMENT
??_C@_0O@KGDKAKJB@propEvent?4inc@ DB 'propEvent.inc', 00H ; `string'
CONST	ENDS
;	COMDAT ??_C@_0BC@NIICKMCD@ConvItem?5Success?$CB@
CONST	SEGMENT
??_C@_0BC@NIICKMCD@ConvItem?5Success?$CB@ DB 'ConvItem Success!', 00H ; `string'
CONST	ENDS
;	COMDAT ??_C@_0BN@LPGCIDJ@LoadRemoveItemList?4ini?5FAILE@
CONST	SEGMENT
??_C@_0BN@LPGCIDJ@LoadRemoveItemList?4ini?5FAILE@ DB 'LoadRemoveItemList.'
	DB	'ini FAILE', 00H				; `string'
CONST	ENDS
;	COMDAT ??_C@_0BH@DEJALFOO@LoadRemoveItemList?4ini@
CONST	SEGMENT
??_C@_0BH@DEJALFOO@LoadRemoveItemList?4ini@ DB 'LoadRemoveItemList.ini', 00H ; `string'
CONST	ENDS
;	COMDAT ??_C@_0BJ@POMECNAN@EnableConnectionPooling?6@
CONST	SEGMENT
??_C@_0BJ@POMECNAN@EnableConnectionPooling?6@ DB 'EnableConnectionPooling'
	DB	0aH, 00H					; `string'
CONST	ENDS
;	COMDAT ??_C@_0BD@BGDLFGME@FAIL?5read?5ini?5?9?5?$CFs@
CONST	SEGMENT
??_C@_0BD@BGDLFGME@FAIL?5read?5ini?5?9?5?$CFs@ DB 'FAIL read ini - %s', 00H ; `string'
CONST	ENDS
_DATA	SEGMENT
?g_szINI@@3PADA DB '..\script\databaseserver.ini', 00H	; g_szINI
_DATA	ENDS
;	COMDAT ??_R4bad_alloc@std@@6B@
rdata$r	SEGMENT
??_R4bad_alloc@std@@6B@ DD 00H				; std::bad_alloc::`RTTI Complete Object Locator'
	DD	00H
	DD	00H
	DD	FLAT:??_R0?AVbad_alloc@std@@@8
	DD	FLAT:??_R3bad_alloc@std@@8
rdata$r	ENDS
;	COMDAT ??_R2bad_alloc@std@@8
rdata$r	SEGMENT
??_R2bad_alloc@std@@8 DD FLAT:??_R1A@?0A@EA@bad_alloc@std@@8 ; std::bad_alloc::`RTTI Base Class Array'
	DD	FLAT:??_R1A@?0A@EA@exception@std@@8
rdata$r	ENDS
;	COMDAT ??_R3bad_alloc@std@@8
rdata$r	SEGMENT
??_R3bad_alloc@std@@8 DD 00H				; std::bad_alloc::`RTTI Class Hierarchy Descriptor'
	DD	00H
	DD	02H
	DD	FLAT:??_R2bad_alloc@std@@8
rdata$r	ENDS
;	COMDAT ??_R1A@?0A@EA@bad_alloc@std@@8
rdata$r	SEGMENT
??_R1A@?0A@EA@bad_alloc@std@@8 DD FLAT:??_R0?AVbad_alloc@std@@@8 ; std::bad_alloc::`RTTI Base Class Descriptor at (0,-1,0,64)'
	DD	01H
	DD	00H
	DD	0ffffffffH
	DD	00H
	DD	040H
	DD	FLAT:??_R3bad_alloc@std@@8
rdata$r	ENDS
;	COMDAT ??_R1A@?0A@EA@bad_array_new_length@std@@8
rdata$r	SEGMENT
??_R1A@?0A@EA@bad_array_new_length@std@@8 DD FLAT:??_R0?AVbad_array_new_length@std@@@8 ; std::bad_array_new_length::`RTTI Base Class Descriptor at (0,-1,0,64)'
	DD	02H
	DD	00H
	DD	0ffffffffH
	DD	00H
	DD	040H
	DD	FLAT:??_R3bad_array_new_length@std@@8
rdata$r	ENDS
;	COMDAT ??_R2bad_array_new_length@std@@8
rdata$r	SEGMENT
??_R2bad_array_new_length@std@@8 DD FLAT:??_R1A@?0A@EA@bad_array_new_length@std@@8 ; std::bad_array_new_length::`RTTI Base Class Array'
	DD	FLAT:??_R1A@?0A@EA@bad_alloc@std@@8
	DD	FLAT:??_R1A@?0A@EA@exception@std@@8
rdata$r	ENDS
;	COMDAT ??_R3bad_array_new_length@std@@8
rdata$r	SEGMENT
??_R3bad_array_new_length@std@@8 DD 00H			; std::bad_array_new_length::`RTTI Class Hierarchy Descriptor'
	DD	00H
	DD	03H
	DD	FLAT:??_R2bad_array_new_length@std@@8
rdata$r	ENDS
;	COMDAT ??_R4bad_array_new_length@std@@6B@
rdata$r	SEGMENT
??_R4bad_array_new_length@std@@6B@ DD 00H		; std::bad_array_new_length::`RTTI Complete Object Locator'
	DD	00H
	DD	00H
	DD	FLAT:??_R0?AVbad_array_new_length@std@@@8
	DD	FLAT:??_R3bad_array_new_length@std@@8
rdata$r	ENDS
;	COMDAT ??_R1A@?0A@EA@exception@std@@8
rdata$r	SEGMENT
??_R1A@?0A@EA@exception@std@@8 DD FLAT:??_R0?AVexception@std@@@8 ; std::exception::`RTTI Base Class Descriptor at (0,-1,0,64)'
	DD	00H
	DD	00H
	DD	0ffffffffH
	DD	00H
	DD	040H
	DD	FLAT:??_R3exception@std@@8
rdata$r	ENDS
;	COMDAT ??_R2exception@std@@8
rdata$r	SEGMENT
??_R2exception@std@@8 DD FLAT:??_R1A@?0A@EA@exception@std@@8 ; std::exception::`RTTI Base Class Array'
rdata$r	ENDS
;	COMDAT ??_R3exception@std@@8
rdata$r	SEGMENT
??_R3exception@std@@8 DD 00H				; std::exception::`RTTI Class Hierarchy Descriptor'
	DD	00H
	DD	01H
	DD	FLAT:??_R2exception@std@@8
rdata$r	ENDS
;	COMDAT ??_R4exception@std@@6B@
rdata$r	SEGMENT
??_R4exception@std@@6B@ DD 00H				; std::exception::`RTTI Complete Object Locator'
	DD	00H
	DD	00H
	DD	FLAT:??_R0?AVexception@std@@@8
	DD	FLAT:??_R3exception@std@@8
rdata$r	ENDS
;	COMDAT ??_C@_0BB@GCADKGJO@map?1set?5too?5long@
CONST	SEGMENT
??_C@_0BB@GCADKGJO@map?1set?5too?5long@ DB 'map/set too long', 00H ; `string'
CONST	ENDS
;	COMDAT ??_C@_0BA@JFNIOLAK@string?5too?5long@
CONST	SEGMENT
??_C@_0BA@JFNIOLAK@string?5too?5long@ DB 'string too long', 00H ; `string'
CONST	ENDS
;	COMDAT __CT??_R0?AVbad_alloc@std@@@8??0bad_alloc@std@@QAE@ABV01@@Z12
xdata$x	SEGMENT
__CT??_R0?AVbad_alloc@std@@@8??0bad_alloc@std@@QAE@ABV01@@Z12 DD 010H
	DD	FLAT:??_R0?AVbad_alloc@std@@@8
	DD	00H
	DD	0ffffffffH
	ORG $+4
	DD	0cH
	DD	FLAT:??0bad_alloc@std@@QAE@ABV01@@Z
xdata$x	ENDS
;	COMDAT ??_R0?AVbad_alloc@std@@@8
data$r	SEGMENT
??_R0?AVbad_alloc@std@@@8 DD FLAT:??_7type_info@@6B@	; std::bad_alloc `RTTI Type Descriptor'
	DD	00H
	DB	'.?AVbad_alloc@std@@', 00H
data$r	ENDS
;	COMDAT __CT??_R0?AVbad_array_new_length@std@@@8??0bad_array_new_length@std@@QAE@ABV01@@Z12
xdata$x	SEGMENT
__CT??_R0?AVbad_array_new_length@std@@@8??0bad_array_new_length@std@@QAE@ABV01@@Z12 DD 00H
	DD	FLAT:??_R0?AVbad_array_new_length@std@@@8
	DD	00H
	DD	0ffffffffH
	ORG $+4
	DD	0cH
	DD	FLAT:??0bad_array_new_length@std@@QAE@ABV01@@Z
xdata$x	ENDS
;	COMDAT ??_R0?AVbad_array_new_length@std@@@8
data$r	SEGMENT
??_R0?AVbad_array_new_length@std@@@8 DD FLAT:??_7type_info@@6B@ ; std::bad_array_new_length `RTTI Type Descriptor'
	DD	00H
	DB	'.?AVbad_array_new_length@std@@', 00H
data$r	ENDS
;	COMDAT __CTA3?AVbad_array_new_length@std@@
xdata$x	SEGMENT
__CTA3?AVbad_array_new_length@std@@ DD 03H
	DD	FLAT:__CT??_R0?AVbad_array_new_length@std@@@8??0bad_array_new_length@std@@QAE@ABV01@@Z12
	DD	FLAT:__CT??_R0?AVbad_alloc@std@@@8??0bad_alloc@std@@QAE@ABV01@@Z12
	DD	FLAT:__CT??_R0?AVexception@std@@@8??0exception@std@@QAE@ABV01@@Z12
xdata$x	ENDS
;	COMDAT __TI3?AVbad_array_new_length@std@@
xdata$x	SEGMENT
__TI3?AVbad_array_new_length@std@@ DD 00H
	DD	FLAT:??1bad_array_new_length@std@@UAE@XZ
	DD	00H
	DD	FLAT:__CTA3?AVbad_array_new_length@std@@
xdata$x	ENDS
;	COMDAT __CT??_R0?AVexception@std@@@8??0exception@std@@QAE@ABV01@@Z12
xdata$x	SEGMENT
__CT??_R0?AVexception@std@@@8??0exception@std@@QAE@ABV01@@Z12 DD 00H
	DD	FLAT:??_R0?AVexception@std@@@8
	DD	00H
	DD	0ffffffffH
	ORG $+4
	DD	0cH
	DD	FLAT:??0exception@std@@QAE@ABV01@@Z
xdata$x	ENDS
;	COMDAT ??_R0?AVexception@std@@@8
data$r	SEGMENT
??_R0?AVexception@std@@@8 DD FLAT:??_7type_info@@6B@	; std::exception `RTTI Type Descriptor'
	DD	00H
	DB	'.?AVexception@std@@', 00H
data$r	ENDS
;	COMDAT ??_C@_0BF@KINCDENJ@bad?5array?5new?5length@
CONST	SEGMENT
??_C@_0BF@KINCDENJ@bad?5array?5new?5length@ DB 'bad array new length', 00H ; `string'
CONST	ENDS
;	COMDAT ??_7bad_array_new_length@std@@6B@
CONST	SEGMENT
??_7bad_array_new_length@std@@6B@ DD FLAT:??_R4bad_array_new_length@std@@6B@ ; std::bad_array_new_length::`vftable'
	DD	FLAT:??_Ebad_array_new_length@std@@UAEPAXI@Z
	DD	FLAT:?what@exception@std@@UBEPBDXZ
CONST	ENDS
;	COMDAT ??_7bad_alloc@std@@6B@
CONST	SEGMENT
??_7bad_alloc@std@@6B@ DD FLAT:??_R4bad_alloc@std@@6B@	; std::bad_alloc::`vftable'
	DD	FLAT:??_Ebad_alloc@std@@UAEPAXI@Z
	DD	FLAT:?what@exception@std@@UBEPBDXZ
CONST	ENDS
;	COMDAT ??_C@_0BC@EOODALEL@Unknown?5exception@
CONST	SEGMENT
??_C@_0BC@EOODALEL@Unknown?5exception@ DB 'Unknown exception', 00H ; `string'
CONST	ENDS
;	COMDAT ??_7exception@std@@6B@
CONST	SEGMENT
??_7exception@std@@6B@ DD FLAT:??_R4exception@std@@6B@	; std::exception::`vftable'
	DD	FLAT:??_Eexception@std@@UAEPAXI@Z
	DD	FLAT:?what@exception@std@@UBEPBDXZ
CONST	ENDS
;	COMDAT xdata$x
xdata$x	SEGMENT
__unwindtable$??$_Buynode@V?$allocator@U?$_Tree_node@U?$pair@$$CBEH@std@@PAX@std@@@std@@AAU?$pair@$$CBEH@2@@?$_Tree_node@U?$pair@$$CBEH@std@@PAX@std@@SAPAU01@AAV?$allocator@U?$_Tree_node@U?$pair@$$CBEH@std@@PAX@std@@@1@PAU01@AAU?$pair@$$CBEH@1@@Z DD 0ffffffffH
	DD	FLAT:__unwindfunclet$??$_Buynode@V?$allocator@U?$_Tree_node@U?$pair@$$CBEH@std@@PAX@std@@@std@@AAU?$pair@$$CBEH@2@@?$_Tree_node@U?$pair@$$CBEH@std@@PAX@std@@SAPAU01@AAV?$allocator@U?$_Tree_node@U?$pair@$$CBEH@std@@PAX@std@@@1@PAU01@AAU?$pair@$$CBEH@1@@Z$0
__ehfuncinfo$??$_Buynode@V?$allocator@U?$_Tree_node@U?$pair@$$CBEH@std@@PAX@std@@@std@@AAU?$pair@$$CBEH@2@@?$_Tree_node@U?$pair@$$CBEH@std@@PAX@std@@SAPAU01@AAV?$allocator@U?$_Tree_node@U?$pair@$$CBEH@std@@PAX@std@@@1@PAU01@AAU?$pair@$$CBEH@1@@Z DD 019930522H
	DD	01H
	DD	FLAT:__unwindtable$??$_Buynode@V?$allocator@U?$_Tree_node@U?$pair@$$CBEH@std@@PAX@std@@@std@@AAU?$pair@$$CBEH@2@@?$_Tree_node@U?$pair@$$CBEH@std@@PAX@std@@SAPAU01@AAV?$allocator@U?$_Tree_node@U?$pair@$$CBEH@std@@PAX@std@@@1@PAU01@AAU?$pair@$$CBEH@1@@Z
	DD	2 DUP(00H)
	DD	2 DUP(00H)
	DD	00H
	DD	01H
xdata$x	ENDS
;	COMDAT xdata$x
xdata$x	SEGMENT
__unwindtable$??$_Buynode@AAU?$pair@$$CBEH@std@@@?$_Tree@V?$_Tmap_traits@EHU?$less@E@std@@V?$allocator@U?$pair@$$CBEH@std@@@2@$0A@@std@@@std@@IAEPAU?$_Tree_node@U?$pair@$$CBEH@std@@PAX@1@AAU?$pair@$$CBEH@1@@Z DD 0ffffffffH
	DD	FLAT:__unwindfunclet$??$_Buynode@AAU?$pair@$$CBEH@std@@@?$_Tree@V?$_Tmap_traits@EHU?$less@E@std@@V?$allocator@U?$pair@$$CBEH@std@@@2@$0A@@std@@@std@@IAEPAU?$_Tree_node@U?$pair@$$CBEH@std@@PAX@1@AAU?$pair@$$CBEH@1@@Z$0
__ehfuncinfo$??$_Buynode@AAU?$pair@$$CBEH@std@@@?$_Tree@V?$_Tmap_traits@EHU?$less@E@std@@V?$allocator@U?$pair@$$CBEH@std@@@2@$0A@@std@@@std@@IAEPAU?$_Tree_node@U?$pair@$$CBEH@std@@PAX@1@AAU?$pair@$$CBEH@1@@Z DD 019930522H
	DD	01H
	DD	FLAT:__unwindtable$??$_Buynode@AAU?$pair@$$CBEH@std@@@?$_Tree@V?$_Tmap_traits@EHU?$less@E@std@@V?$allocator@U?$pair@$$CBEH@std@@@2@$0A@@std@@@std@@IAEPAU?$_Tree_node@U?$pair@$$CBEH@std@@PAX@1@AAU?$pair@$$CBEH@1@@Z
	DD	2 DUP(00H)
	DD	2 DUP(00H)
	DD	00H
	DD	01H
xdata$x	ENDS
;	COMDAT xdata$x
xdata$x	SEGMENT
__unwindtable$??$_Copy_or_move@$0A@U?$pair@$$CBEH@std@@@?$_Tree@V?$_Tmap_traits@EHU?$less@E@std@@V?$allocator@U?$pair@$$CBEH@std@@@2@$0A@@std@@@std@@IAEPAU?$_Tree_node@U?$pair@$$CBEH@std@@PAX@1@AAU?$pair@$$CBEH@1@@Z DD 0ffffffffH
	DD	FLAT:__unwindfunclet$??$_Copy_or_move@$0A@U?$pair@$$CBEH@std@@@?$_Tree@V?$_Tmap_traits@EHU?$less@E@std@@V?$allocator@U?$pair@$$CBEH@std@@@2@$0A@@std@@@std@@IAEPAU?$_Tree_node@U?$pair@$$CBEH@std@@PAX@1@AAU?$pair@$$CBEH@1@@Z$0
__ehfuncinfo$??$_Copy_or_move@$0A@U?$pair@$$CBEH@std@@@?$_Tree@V?$_Tmap_traits@EHU?$less@E@std@@V?$allocator@U?$pair@$$CBEH@std@@@2@$0A@@std@@@std@@IAEPAU?$_Tree_node@U?$pair@$$CBEH@std@@PAX@1@AAU?$pair@$$CBEH@1@@Z DD 019930522H
	DD	01H
	DD	FLAT:__unwindtable$??$_Copy_or_move@$0A@U?$pair@$$CBEH@std@@@?$_Tree@V?$_Tmap_traits@EHU?$less@E@std@@V?$allocator@U?$pair@$$CBEH@std@@@2@$0A@@std@@@std@@IAEPAU?$_Tree_node@U?$pair@$$CBEH@std@@PAX@1@AAU?$pair@$$CBEH@1@@Z
	DD	2 DUP(00H)
	DD	2 DUP(00H)
	DD	00H
	DD	01H
xdata$x	ENDS
;	COMDAT xdata$x
xdata$x	SEGMENT
__unwindtable$??$_Copy_nodes@$0A@@?$_Tree@V?$_Tmap_traits@EHU?$less@E@std@@V?$allocator@U?$pair@$$CBEH@std@@@2@$0A@@std@@@std@@IAEPAU?$_Tree_node@U?$pair@$$CBEH@std@@PAX@1@PAU21@0@Z DD 0ffffffffH
	DD	FLAT:__unwindfunclet$??$_Copy_nodes@$0A@@?$_Tree@V?$_Tmap_traits@EHU?$less@E@std@@V?$allocator@U?$pair@$$CBEH@std@@@2@$0A@@std@@@std@@IAEPAU?$_Tree_node@U?$pair@$$CBEH@std@@PAX@1@PAU21@0@Z$1
	DD	0ffffffffH
	DD	FLAT:__unwindfunclet$??$_Copy_nodes@$0A@@?$_Tree@V?$_Tmap_traits@EHU?$less@E@std@@V?$allocator@U?$pair@$$CBEH@std@@@2@$0A@@std@@@std@@IAEPAU?$_Tree_node@U?$pair@$$CBEH@std@@PAX@1@PAU21@0@Z$0
__ehfuncinfo$??$_Copy_nodes@$0A@@?$_Tree@V?$_Tmap_traits@EHU?$less@E@std@@V?$allocator@U?$pair@$$CBEH@std@@@2@$0A@@std@@@std@@IAEPAU?$_Tree_node@U?$pair@$$CBEH@std@@PAX@1@PAU21@0@Z DD 019930522H
	DD	02H
	DD	FLAT:__unwindtable$??$_Copy_nodes@$0A@@?$_Tree@V?$_Tmap_traits@EHU?$less@E@std@@V?$allocator@U?$pair@$$CBEH@std@@@2@$0A@@std@@@std@@IAEPAU?$_Tree_node@U?$pair@$$CBEH@std@@PAX@1@PAU21@0@Z
	DD	2 DUP(00H)
	DD	2 DUP(00H)
	DD	00H
	DD	01H
xdata$x	ENDS
;	COMDAT xdata$x
xdata$x	SEGMENT
__unwindtable$??$?0ABV?$basic_string@DU?$char_traits@D@std@@V?$allocator@D@2@@std@@@?$_Tree_temp_node@V?$allocator@U?$_Tree_node@V?$basic_string@DU?$char_traits@D@std@@V?$allocator@D@2@@std@@PAX@std@@@std@@@std@@QAE@AAV?$allocator@U?$_Tree_node@V?$basic_string@DU?$char_traits@D@std@@V?$allocator@D@2@@std@@PAX@std@@@1@PAU?$_Tree_node@V?$basic_string@DU?$char_traits@D@std@@V?$allocator@D@2@@std@@PAX@1@ABV?$basic_string@DU?$char_traits@D@std@@V?$allocator@D@2@@1@@Z DD 0ffffffffH
	DD	FLAT:__unwindfunclet$??$?0ABV?$basic_string@DU?$char_traits@D@std@@V?$allocator@D@2@@std@@@?$_Tree_temp_node@V?$allocator@U?$_Tree_node@V?$basic_string@DU?$char_traits@D@std@@V?$allocator@D@2@@std@@PAX@std@@@std@@@std@@QAE@AAV?$allocator@U?$_Tree_node@V?$basic_string@DU?$char_traits@D@std@@V?$allocator@D@2@@std@@PAX@std@@@1@PAU?$_Tree_node@V?$basic_string@DU?$char_traits@D@std@@V?$allocator@D@2@@std@@PAX@1@ABV?$basic_string@DU?$char_traits@D@std@@V?$allocator@D@2@@1@@Z$1
	DD	0ffffffffH
	DD	FLAT:__unwindfunclet$??$?0ABV?$basic_string@DU?$char_traits@D@std@@V?$allocator@D@2@@std@@@?$_Tree_temp_node@V?$allocator@U?$_Tree_node@V?$basic_string@DU?$char_traits@D@std@@V?$allocator@D@2@@std@@PAX@std@@@std@@@std@@QAE@AAV?$allocator@U?$_Tree_node@V?$basic_string@DU?$char_traits@D@std@@V?$allocator@D@2@@std@@PAX@std@@@1@PAU?$_Tree_node@V?$basic_string@DU?$char_traits@D@std@@V?$allocator@D@2@@std@@PAX@1@ABV?$basic_string@DU?$char_traits@D@std@@V?$allocator@D@2@@1@@Z$0
__ehfuncinfo$??$?0ABV?$basic_string@DU?$char_traits@D@std@@V?$allocator@D@2@@std@@@?$_Tree_temp_node@V?$allocator@U?$_Tree_node@V?$basic_string@DU?$char_traits@D@std@@V?$allocator@D@2@@std@@PAX@std@@@std@@@std@@QAE@AAV?$allocator@U?$_Tree_node@V?$basic_string@DU?$char_traits@D@std@@V?$allocator@D@2@@std@@PAX@std@@@1@PAU?$_Tree_node@V?$basic_string@DU?$char_traits@D@std@@V?$allocator@D@2@@std@@PAX@1@ABV?$basic_string@DU?$char_traits@D@std@@V?$allocator@D@2@@1@@Z DD 019930522H
	DD	02H
	DD	FLAT:__unwindtable$??$?0ABV?$basic_string@DU?$char_traits@D@std@@V?$allocator@D@2@@std@@@?$_Tree_temp_node@V?$allocator@U?$_Tree_node@V?$basic_string@DU?$char_traits@D@std@@V?$allocator@D@2@@std@@PAX@std@@@std@@@std@@QAE@AAV?$allocator@U?$_Tree_node@V?$basic_string@DU?$char_traits@D@std@@V?$allocator@D@2@@std@@PAX@std@@@1@PAU?$_Tree_node@V?$basic_string@DU?$char_traits@D@std@@V?$allocator@D@2@@std@@PAX@1@ABV?$basic_string@DU?$char_traits@D@std@@V?$allocator@D@2@@1@@Z
	DD	2 DUP(00H)
	DD	2 DUP(00H)
	DD	00H
	DD	01H
xdata$x	ENDS
;	COMDAT xdata$x
xdata$x	SEGMENT
__unwindtable$??0?$_Tree_temp_node_alloc@V?$allocator@U?$_Tree_node@V?$basic_string@DU?$char_traits@D@std@@V?$allocator@D@2@@std@@PAX@std@@@std@@@std@@QAE@AAV?$allocator@U?$_Tree_node@V?$basic_string@DU?$char_traits@D@std@@V?$allocator@D@2@@std@@PAX@std@@@1@@Z DD 0ffffffffH
	DD	FLAT:__unwindfunclet$??0?$_Tree_temp_node_alloc@V?$allocator@U?$_Tree_node@V?$basic_string@DU?$char_traits@D@std@@V?$allocator@D@2@@std@@PAX@std@@@std@@@std@@QAE@AAV?$allocator@U?$_Tree_node@V?$basic_string@DU?$char_traits@D@std@@V?$allocator@D@2@@std@@PAX@std@@@1@@Z$0
__ehfuncinfo$??0?$_Tree_temp_node_alloc@V?$allocator@U?$_Tree_node@V?$basic_string@DU?$char_traits@D@std@@V?$allocator@D@2@@std@@PAX@std@@@std@@@std@@QAE@AAV?$allocator@U?$_Tree_node@V?$basic_string@DU?$char_traits@D@std@@V?$allocator@D@2@@std@@PAX@std@@@1@@Z DD 019930522H
	DD	01H
	DD	FLAT:__unwindtable$??0?$_Tree_temp_node_alloc@V?$allocator@U?$_Tree_node@V?$basic_string@DU?$char_traits@D@std@@V?$allocator@D@2@@std@@PAX@std@@@std@@@std@@QAE@AAV?$allocator@U?$_Tree_node@V?$basic_string@DU?$char_traits@D@std@@V?$allocator@D@2@@std@@PAX@std@@@1@@Z
	DD	2 DUP(00H)
	DD	2 DUP(00H)
	DD	00H
	DD	01H
xdata$x	ENDS
;	COMDAT xdata$x
xdata$x	SEGMENT
__unwindtable$??$?0V?$allocator@U?$_Tree_node@U?$pair@$$CBEH@std@@PAX@std@@@std@@@?$_Tree@V?$_Tmap_traits@EHU?$less@E@std@@V?$allocator@U?$pair@$$CBEH@std@@@2@$0A@@std@@@std@@QAE@ABV01@$$QAV?$allocator@U?$_Tree_node@U?$pair@$$CBEH@std@@PAX@std@@@1@@Z DD 0ffffffffH
	DD	FLAT:__unwindfunclet$??$?0V?$allocator@U?$_Tree_node@U?$pair@$$CBEH@std@@PAX@std@@@std@@@?$_Tree@V?$_Tmap_traits@EHU?$less@E@std@@V?$allocator@U?$pair@$$CBEH@std@@@2@$0A@@std@@@std@@QAE@ABV01@$$QAV?$allocator@U?$_Tree_node@U?$pair@$$CBEH@std@@PAX@std@@@1@@Z$0
__ehfuncinfo$??$?0V?$allocator@U?$_Tree_node@U?$pair@$$CBEH@std@@PAX@std@@@std@@@?$_Tree@V?$_Tmap_traits@EHU?$less@E@std@@V?$allocator@U?$pair@$$CBEH@std@@@2@$0A@@std@@@std@@QAE@ABV01@$$QAV?$allocator@U?$_Tree_node@U?$pair@$$CBEH@std@@PAX@std@@@1@@Z DD 019930522H
	DD	01H
	DD	FLAT:__unwindtable$??$?0V?$allocator@U?$_Tree_node@U?$pair@$$CBEH@std@@PAX@std@@@std@@@?$_Tree@V?$_Tmap_traits@EHU?$less@E@std@@V?$allocator@U?$pair@$$CBEH@std@@@2@$0A@@std@@@std@@QAE@ABV01@$$QAV?$allocator@U?$_Tree_node@U?$pair@$$CBEH@std@@PAX@std@@@1@@Z
	DD	2 DUP(00H)
	DD	2 DUP(00H)
	DD	00H
	DD	01H
xdata$x	ENDS
;	COMDAT xdata$x
xdata$x	SEGMENT
__unwindtable$??$_Emplace@ABV?$basic_string@DU?$char_traits@D@std@@V?$allocator@D@2@@std@@@?$_Tree@V?$_Tset_traits@V?$basic_string@DU?$char_traits@D@std@@V?$allocator@D@2@@std@@U?$less@V?$basic_string@DU?$char_traits@D@std@@V?$allocator@D@2@@std@@@2@V?$allocator@V?$basic_string@DU?$char_traits@D@std@@V?$allocator@D@2@@std@@@2@$0A@@std@@@std@@IAE?AU?$pair@PAU?$_Tree_node@V?$basic_string@DU?$char_traits@D@std@@V?$allocator@D@2@@std@@PAX@std@@_N@1@ABV?$basic_string@DU?$char_traits@D@std@@V?$allocator@D@2@@1@@Z DD 0ffffffffH
	DD	FLAT:__unwindfunclet$??$_Emplace@ABV?$basic_string@DU?$char_traits@D@std@@V?$allocator@D@2@@std@@@?$_Tree@V?$_Tset_traits@V?$basic_string@DU?$char_traits@D@std@@V?$allocator@D@2@@std@@U?$less@V?$basic_string@DU?$char_traits@D@std@@V?$allocator@D@2@@std@@@2@V?$allocator@V?$basic_string@DU?$char_traits@D@std@@V?$allocator@D@2@@std@@@2@$0A@@std@@@std@@IAE?AU?$pair@PAU?$_Tree_node@V?$basic_string@DU?$char_traits@D@std@@V?$allocator@D@2@@std@@PAX@std@@_N@1@ABV?$basic_string@DU?$char_traits@D@std@@V?$allocator@D@2@@1@@Z$2
	DD	0ffffffffH
	DD	FLAT:__unwindfunclet$??$_Emplace@ABV?$basic_string@DU?$char_traits@D@std@@V?$allocator@D@2@@std@@@?$_Tree@V?$_Tset_traits@V?$basic_string@DU?$char_traits@D@std@@V?$allocator@D@2@@std@@U?$less@V?$basic_string@DU?$char_traits@D@std@@V?$allocator@D@2@@std@@@2@V?$allocator@V?$basic_string@DU?$char_traits@D@std@@V?$allocator@D@2@@std@@@2@$0A@@std@@@std@@IAE?AU?$pair@PAU?$_Tree_node@V?$basic_string@DU?$char_traits@D@std@@V?$allocator@D@2@@std@@PAX@std@@_N@1@ABV?$basic_string@DU?$char_traits@D@std@@V?$allocator@D@2@@1@@Z$1
__ehfuncinfo$??$_Emplace@ABV?$basic_string@DU?$char_traits@D@std@@V?$allocator@D@2@@std@@@?$_Tree@V?$_Tset_traits@V?$basic_string@DU?$char_traits@D@std@@V?$allocator@D@2@@std@@U?$less@V?$basic_string@DU?$char_traits@D@std@@V?$allocator@D@2@@std@@@2@V?$allocator@V?$basic_string@DU?$char_traits@D@std@@V?$allocator@D@2@@std@@@2@$0A@@std@@@std@@IAE?AU?$pair@PAU?$_Tree_node@V?$basic_string@DU?$char_traits@D@std@@V?$allocator@D@2@@std@@PAX@std@@_N@1@ABV?$basic_string@DU?$char_traits@D@std@@V?$allocator@D@2@@1@@Z DD 019930522H
	DD	02H
	DD	FLAT:__unwindtable$??$_Emplace@ABV?$basic_string@DU?$char_traits@D@std@@V?$allocator@D@2@@std@@@?$_Tree@V?$_Tset_traits@V?$basic_string@DU?$char_traits@D@std@@V?$allocator@D@2@@std@@U?$less@V?$basic_string@DU?$char_traits@D@std@@V?$allocator@D@2@@std@@@2@V?$allocator@V?$basic_string@DU?$char_traits@D@std@@V?$allocator@D@2@@std@@@2@$0A@@std@@@std@@IAE?AU?$pair@PAU?$_Tree_node@V?$basic_string@DU?$char_traits@D@std@@V?$allocator@D@2@@std@@PAX@std@@_N@1@ABV?$basic_string@DU?$char_traits@D@std@@V?$allocator@D@2@@1@@Z
	DD	2 DUP(00H)
	DD	2 DUP(00H)
	DD	00H
	DD	01H
xdata$x	ENDS
;	COMDAT xdata$x
xdata$x	SEGMENT
__unwindtable$?LoadRemoveItem@@YAHPBD@Z DD 0ffffffffH
	DD	FLAT:__unwindfunclet$?LoadRemoveItem@@YAHPBD@Z$0
	DD	00H
	DD	FLAT:__unwindfunclet$?LoadRemoveItem@@YAHPBD@Z$1
__ehfuncinfo$?LoadRemoveItem@@YAHPBD@Z DD 019930522H
	DD	02H
	DD	FLAT:__unwindtable$?LoadRemoveItem@@YAHPBD@Z
	DD	2 DUP(00H)
	DD	2 DUP(00H)
	DD	00H
	DD	01H
xdata$x	ENDS
;	COMDAT xdata$x
xdata$x	SEGMENT
__unwindtable$?Script@@YAHPBD@Z DD 0ffffffffH
	DD	FLAT:__unwindfunclet$?Script@@YAHPBD@Z$0
__ehfuncinfo$?Script@@YAHPBD@Z DD 019930522H
	DD	01H
	DD	FLAT:__unwindtable$?Script@@YAHPBD@Z
	DD	2 DUP(00H)
	DD	2 DUP(00H)
	DD	00H
	DD	01H
xdata$x	ENDS
;	COMDAT xdata$x
xdata$x	SEGMENT
__unwindtable$?InitInstance@@YAHPAUHINSTANCE__@@H@Z DD 0ffffffffH
	DD	00H
	DD	0ffffffffH
	DD	FLAT:__unwindfunclet$?InitInstance@@YAHPAUHINSTANCE__@@H@Z$3
	DD	0ffffffffH
	DD	FLAT:__unwindfunclet$?InitInstance@@YAHPAUHINSTANCE__@@H@Z$0
__ehfuncinfo$?InitInstance@@YAHPAUHINSTANCE__@@H@Z DD 019930522H
	DD	03H
	DD	FLAT:__unwindtable$?InitInstance@@YAHPAUHINSTANCE__@@H@Z
	DD	2 DUP(00H)
	DD	2 DUP(00H)
	DD	00H
	DD	01H
xdata$x	ENDS
;	COMDAT xdata$x
xdata$x	SEGMENT
__unwindtable$?WndProc@@YGJPAUHWND__@@IIJ@Z DD 0ffffffffH
	DD	FLAT:__unwindfunclet$?WndProc@@YGJPAUHWND__@@IIJ@Z$0
	DD	0ffffffffH
	DD	FLAT:__unwindfunclet$?WndProc@@YGJPAUHWND__@@IIJ@Z$1
	DD	0ffffffffH
	DD	FLAT:__unwindfunclet$?WndProc@@YGJPAUHWND__@@IIJ@Z$2
__ehfuncinfo$?WndProc@@YGJPAUHWND__@@IIJ@Z DD 019930522H
	DD	03H
	DD	FLAT:__unwindtable$?WndProc@@YGJPAUHWND__@@IIJ@Z
	DD	2 DUP(00H)
	DD	2 DUP(00H)
	DD	00H
	DD	01H
xdata$x	ENDS
;	COMDAT xdata$x
xdata$x	SEGMENT
__unwindtable$??0?$map@EHU?$less@E@std@@V?$allocator@U?$pair@$$CBEH@std@@@2@@std@@QAE@ABV01@@Z DD 0ffffffffH
	DD	FLAT:__unwindfunclet$??0?$map@EHU?$less@E@std@@V?$allocator@U?$pair@$$CBEH@std@@@2@@std@@QAE@ABV01@@Z$1
__ehfuncinfo$??0?$map@EHU?$less@E@std@@V?$allocator@U?$pair@$$CBEH@std@@@2@@std@@QAE@ABV01@@Z DD 019930522H
	DD	01H
	DD	FLAT:__unwindtable$??0?$map@EHU?$less@E@std@@V?$allocator@U?$pair@$$CBEH@std@@@2@@std@@QAE@ABV01@@Z
	DD	2 DUP(00H)
	DD	2 DUP(00H)
	DD	00H
	DD	01H
xdata$x	ENDS
;	COMDAT xdata$x
xdata$x	SEGMENT
__unwindtable$?Format@CTime@ATL@@QBE?AV?$CStringT@DV?$StrTraitMFC@DV?$ChTraitsCRT@D@ATL@@@@@2@PBD@Z DD 0ffffffffH
	DD	FLAT:__unwindfunclet$?Format@CTime@ATL@@QBE?AV?$CStringT@DV?$StrTraitMFC@DV?$ChTraitsCRT@D@ATL@@@@@2@PBD@Z$1
	DD	0ffffffffH
	DD	FLAT:__unwindfunclet$?Format@CTime@ATL@@QBE?AV?$CStringT@DV?$StrTraitMFC@DV?$ChTraitsCRT@D@ATL@@@@@2@PBD@Z$2
__ehfuncinfo$?Format@CTime@ATL@@QBE?AV?$CStringT@DV?$StrTraitMFC@DV?$ChTraitsCRT@D@ATL@@@@@2@PBD@Z DD 019930522H
	DD	02H
	DD	FLAT:__unwindtable$?Format@CTime@ATL@@QBE?AV?$CStringT@DV?$StrTraitMFC@DV?$ChTraitsCRT@D@ATL@@@@@2@PBD@Z
	DD	2 DUP(00H)
	DD	2 DUP(00H)
	DD	00H
	DD	01H
xdata$x	ENDS
;	COMDAT xdata$x
xdata$x	SEGMENT
__unwindtable$??0?$CStringT@DV?$StrTraitMFC@DV?$ChTraitsCRT@D@ATL@@@@@ATL@@QAE@PBD@Z DD 0ffffffffH
	DD	FLAT:__unwindfunclet$??0?$CStringT@DV?$StrTraitMFC@DV?$ChTraitsCRT@D@ATL@@@@@ATL@@QAE@PBD@Z$0
__ehfuncinfo$??0?$CStringT@DV?$StrTraitMFC@DV?$ChTraitsCRT@D@ATL@@@@@ATL@@QAE@PBD@Z DD 019930522H
	DD	01H
	DD	FLAT:__unwindtable$??0?$CStringT@DV?$StrTraitMFC@DV?$ChTraitsCRT@D@ATL@@@@@ATL@@QAE@PBD@Z
	DD	2 DUP(00H)
	DD	2 DUP(00H)
	DD	00H
	DD	01H
xdata$x	ENDS
; Function compile flags: /Ogtp
; File C:\Program Files\Microsoft Visual Studio\2022\Professional\VC\Tools\MSVC\14.44.35207\include\xmemory
;	COMDAT ??1?$_Alloc_construct_ptr@V?$allocator@U?$_Tree_node@U?$pair@$$CBEH@std@@PAX@std@@@std@@@std@@QAE@XZ
_TEXT	SEGMENT
??1?$_Alloc_construct_ptr@V?$allocator@U?$_Tree_node@U?$pair@$$CBEH@std@@PAX@std@@@std@@@std@@QAE@XZ PROC ; std::_Alloc_construct_ptr<std::allocator<std::_Tree_node<std::pair<unsigned char const ,int>,void *> > >::~_Alloc_construct_ptr<std::allocator<std::_Tree_node<std::pair<unsigned char const ,int>,void *> > >, COMDAT
; _this$ = ecx

; 1172 :         if (_Ptr) {

  00000	8b 41 04	 mov	 eax, DWORD PTR [ecx+4]
  00003	85 c0		 test	 eax, eax
  00005	74 0b		 je	 SHORT $LN10@Alloc_cons

; 289  :         ::operator delete(_Ptr, _Bytes);

  00007	6a 18		 push	 24			; 00000018H
  00009	50		 push	 eax
  0000a	e8 00 00 00 00	 call	 ??3@YAXPAXI@Z		; operator delete
  0000f	83 c4 08	 add	 esp, 8
$LN10@Alloc_cons:

; 1173 :             _Al.deallocate(_Ptr, 1);
; 1174 :         }
; 1175 :     }

  00012	c3		 ret	 0
??1?$_Alloc_construct_ptr@V?$allocator@U?$_Tree_node@U?$pair@$$CBEH@std@@PAX@std@@@std@@@std@@QAE@XZ ENDP ; std::_Alloc_construct_ptr<std::allocator<std::_Tree_node<std::pair<unsigned char const ,int>,void *> > >::~_Alloc_construct_ptr<std::allocator<std::_Tree_node<std::pair<unsigned char const ,int>,void *> > >
_TEXT	ENDS
; Function compile flags: /Ogtp
; File C:\Program Files\Microsoft Visual Studio\2022\Professional\VC\Tools\MSVC\14.44.35207\include\xtree
; File C:\Program Files\Microsoft Visual Studio\2022\Professional\VC\Tools\MSVC\14.44.35207\include\utility
; File C:\Program Files\Microsoft Visual Studio\2022\Professional\VC\Tools\MSVC\14.44.35207\include\xmemory
; File C:\Program Files\Microsoft Visual Studio\2022\Professional\VC\Tools\MSVC\14.44.35207\include\xtree
;	COMDAT ??$_Erase_tree_and_orphan@V?$allocator@U?$_Tree_node@U?$pair@$$CBEH@std@@PAX@std@@@std@@@?$_Tree_val@U?$_Tree_simple_types@U?$pair@$$CBEH@std@@@std@@@std@@QAEXAAV?$allocator@U?$_Tree_node@U?$pair@$$CBEH@std@@PAX@std@@@1@PAU?$_Tree_node@U?$pair@$$CBEH@std@@PAX@1@@Z
_TEXT	SEGMENT
__Al$ = 8						; size = 4
__Rootnode$ = 12					; size = 4
??$_Erase_tree_and_orphan@V?$allocator@U?$_Tree_node@U?$pair@$$CBEH@std@@PAX@std@@@std@@@?$_Tree_val@U?$_Tree_simple_types@U?$pair@$$CBEH@std@@@std@@@std@@QAEXAAV?$allocator@U?$_Tree_node@U?$pair@$$CBEH@std@@PAX@std@@@1@PAU?$_Tree_node@U?$pair@$$CBEH@std@@PAX@1@@Z PROC ; std::_Tree_val<std::_Tree_simple_types<std::pair<unsigned char const ,int> > >::_Erase_tree_and_orphan<std::allocator<std::_Tree_node<std::pair<unsigned char const ,int>,void *> > >, COMDAT
; _this$ = ecx

; 757  :     void _Erase_tree_and_orphan(_Alnode& _Al, _Nodeptr _Rootnode) noexcept {

  00000	55		 push	 ebp
  00001	8b ec		 mov	 ebp, esp
  00003	53		 push	 ebx
  00004	56		 push	 esi

; 758  :         while (!_Rootnode->_Isnil) { // free subtrees, then node

  00005	8b 75 0c	 mov	 esi, DWORD PTR __Rootnode$[ebp]
  00008	8b d9		 mov	 ebx, ecx
  0000a	80 7e 0d 00	 cmp	 BYTE PTR [esi+13], 0
  0000e	75 25		 jne	 SHORT $LN34@Erase_tree
  00010	57		 push	 edi
  00011	8b 7d 08	 mov	 edi, DWORD PTR __Al$[ebp]
$LL2@Erase_tree:

; 759  :             _Erase_tree_and_orphan(_Al, _Rootnode->_Right);

  00014	ff 76 08	 push	 DWORD PTR [esi+8]
  00017	8b cb		 mov	 ecx, ebx
  00019	57		 push	 edi
  0001a	e8 00 00 00 00	 call	 ??$_Erase_tree_and_orphan@V?$allocator@U?$_Tree_node@U?$pair@$$CBEH@std@@PAX@std@@@std@@@?$_Tree_val@U?$_Tree_simple_types@U?$pair@$$CBEH@std@@@std@@@std@@QAEXAAV?$allocator@U?$_Tree_node@U?$pair@$$CBEH@std@@PAX@std@@@1@PAU?$_Tree_node@U?$pair@$$CBEH@std@@PAX@1@@Z ; std::_Tree_val<std::_Tree_simple_types<std::pair<unsigned char const ,int> > >::_Erase_tree_and_orphan<std::allocator<std::_Tree_node<std::pair<unsigned char const ,int>,void *> > >
; File C:\Program Files\Microsoft Visual Studio\2022\Professional\VC\Tools\MSVC\14.44.35207\include\utility

; 773  :     _Ty _Old_val = static_cast<_Ty&&>(_Val);

  0001f	8b c6		 mov	 eax, esi

; 774  :     _Val         = static_cast<_Other&&>(_New_val);

  00021	8b 36		 mov	 esi, DWORD PTR [esi]
; File C:\Program Files\Microsoft Visual Studio\2022\Professional\VC\Tools\MSVC\14.44.35207\include\xmemory

; 289  :         ::operator delete(_Ptr, _Bytes);

  00023	6a 18		 push	 24			; 00000018H
  00025	50		 push	 eax
  00026	e8 00 00 00 00	 call	 ??3@YAXPAXI@Z		; operator delete
  0002b	83 c4 08	 add	 esp, 8
; File C:\Program Files\Microsoft Visual Studio\2022\Professional\VC\Tools\MSVC\14.44.35207\include\xtree

; 758  :         while (!_Rootnode->_Isnil) { // free subtrees, then node

  0002e	80 7e 0d 00	 cmp	 BYTE PTR [esi+13], 0
  00032	74 e0		 je	 SHORT $LL2@Erase_tree
  00034	5f		 pop	 edi
$LN34@Erase_tree:
  00035	5e		 pop	 esi

; 760  :             auto _To_delete = _STD exchange(_Rootnode, _Rootnode->_Left);
; 761  :             _Orphan_ptr(_To_delete);
; 762  :             _Alnode::value_type::_Freenode(_Al, _To_delete);
; 763  :         }
; 764  :     }

  00036	5b		 pop	 ebx
  00037	5d		 pop	 ebp
  00038	c2 08 00	 ret	 8
??$_Erase_tree_and_orphan@V?$allocator@U?$_Tree_node@U?$pair@$$CBEH@std@@PAX@std@@@std@@@?$_Tree_val@U?$_Tree_simple_types@U?$pair@$$CBEH@std@@@std@@@std@@QAEXAAV?$allocator@U?$_Tree_node@U?$pair@$$CBEH@std@@PAX@std@@@1@PAU?$_Tree_node@U?$pair@$$CBEH@std@@PAX@1@@Z ENDP ; std::_Tree_val<std::_Tree_simple_types<std::pair<unsigned char const ,int> > >::_Erase_tree_and_orphan<std::allocator<std::_Tree_node<std::pair<unsigned char const ,int>,void *> > >
_TEXT	ENDS
; Function compile flags: /Ogtp
; File C:\Program Files\Microsoft Visual Studio\2022\Professional\VC\Tools\MSVC\14.44.35207\include\xtree
;	COMDAT ??1?$_Erase_tree_and_orphan_guard@V?$allocator@U?$_Tree_node@U?$pair@$$CBEH@std@@PAX@std@@@std@@@?$_Tree_val@U?$_Tree_simple_types@U?$pair@$$CBEH@std@@@std@@@std@@QAE@XZ
_TEXT	SEGMENT
??1?$_Erase_tree_and_orphan_guard@V?$allocator@U?$_Tree_node@U?$pair@$$CBEH@std@@PAX@std@@@std@@@?$_Tree_val@U?$_Tree_simple_types@U?$pair@$$CBEH@std@@@std@@@std@@QAE@XZ PROC ; std::_Tree_val<std::_Tree_simple_types<std::pair<unsigned char const ,int> > >::_Erase_tree_and_orphan_guard<std::allocator<std::_Tree_node<std::pair<unsigned char const ,int>,void *> > >::~_Erase_tree_and_orphan_guard<std::allocator<std::_Tree_node<std::pair<unsigned char const ,int>,void *> > >, COMDAT
; _this$ = ecx

; 444  :             if (_Val_ptr != nullptr) {

  00000	8b 01		 mov	 eax, DWORD PTR [ecx]
  00002	85 c0		 test	 eax, eax
  00004	74 0d		 je	 SHORT $LN2@Erase_tree

; 445  :                 _Val_ptr->_Erase_tree_and_orphan(_Al, _New_root); // subtree copy failed, bail out

  00006	ff 71 08	 push	 DWORD PTR [ecx+8]
  00009	ff 71 04	 push	 DWORD PTR [ecx+4]
  0000c	8b c8		 mov	 ecx, eax
  0000e	e8 00 00 00 00	 call	 ??$_Erase_tree_and_orphan@V?$allocator@U?$_Tree_node@U?$pair@$$CBEH@std@@PAX@std@@@std@@@?$_Tree_val@U?$_Tree_simple_types@U?$pair@$$CBEH@std@@@std@@@std@@QAEXAAV?$allocator@U?$_Tree_node@U?$pair@$$CBEH@std@@PAX@std@@@1@PAU?$_Tree_node@U?$pair@$$CBEH@std@@PAX@1@@Z ; std::_Tree_val<std::_Tree_simple_types<std::pair<unsigned char const ,int> > >::_Erase_tree_and_orphan<std::allocator<std::_Tree_node<std::pair<unsigned char const ,int>,void *> > >
$LN2@Erase_tree:

; 446  :             }
; 447  :         }

  00013	c3		 ret	 0
??1?$_Erase_tree_and_orphan_guard@V?$allocator@U?$_Tree_node@U?$pair@$$CBEH@std@@PAX@std@@@std@@@?$_Tree_val@U?$_Tree_simple_types@U?$pair@$$CBEH@std@@@std@@@std@@QAE@XZ ENDP ; std::_Tree_val<std::_Tree_simple_types<std::pair<unsigned char const ,int> > >::_Erase_tree_and_orphan_guard<std::allocator<std::_Tree_node<std::pair<unsigned char const ,int>,void *> > >::~_Erase_tree_and_orphan_guard<std::allocator<std::_Tree_node<std::pair<unsigned char const ,int>,void *> > >
_TEXT	ENDS
; Function compile flags: /Ogtp
; File C:\Program Files\Microsoft Visual Studio\2022\Professional\VC\Tools\MSVC\14.44.35207\include\xtree
; File C:\Program Files\Microsoft Visual Studio\2022\Professional\VC\Tools\MSVC\14.44.35207\include\xmemory
; File C:\Program Files\Microsoft Visual Studio\2022\Professional\VC\Tools\MSVC\14.44.35207\include\xtree
; File C:\Program Files\Microsoft Visual Studio\2022\Professional\VC\Tools\MSVC\14.44.35207\include\xmemory
; File C:\Program Files\Microsoft Visual Studio\2022\Professional\VC\Tools\MSVC\14.44.35207\include\xtree
; File C:\Program Files\Microsoft Visual Studio\2022\Professional\VC\Tools\MSVC\14.44.35207\include\xmemory
; File C:\Program Files\Microsoft Visual Studio\2022\Professional\VC\Tools\MSVC\14.44.35207\include\xtree
; File C:\Program Files\Microsoft Visual Studio\2022\Professional\VC\Tools\MSVC\14.44.35207\include\xmemory
; File C:\Program Files\Microsoft Visual Studio\2022\Professional\VC\Tools\MSVC\14.44.35207\include\xtree
;	COMDAT ??$_Copy_nodes@$0A@@?$_Tree@V?$_Tmap_traits@EHU?$less@E@std@@V?$allocator@U?$pair@$$CBEH@std@@@2@$0A@@std@@@std@@IAEPAU?$_Tree_node@U?$pair@$$CBEH@std@@PAX@1@PAU21@0@Z
_TEXT	SEGMENT
__Guard$2 = -28						; size = 12
__Newnode$3 = -24					; size = 8
__Myhead$1$ = -16					; size = 4
__$EHRec$ = -12						; size = 12
__Rootnode$ = 8						; size = 4
__Wherenode$ = 12					; size = 4
??$_Copy_nodes@$0A@@?$_Tree@V?$_Tmap_traits@EHU?$less@E@std@@V?$allocator@U?$pair@$$CBEH@std@@@2@$0A@@std@@@std@@IAEPAU?$_Tree_node@U?$pair@$$CBEH@std@@PAX@1@PAU21@0@Z PROC ; std::_Tree<std::_Tmap_traits<unsigned char,int,std::less<unsigned char>,std::allocator<std::pair<unsigned char const ,int> >,0> >::_Copy_nodes<0>, COMDAT
; _this$ = ecx

; 1682 :     _Nodeptr _Copy_nodes(_Nodeptr _Rootnode, _Nodeptr _Wherenode) {

  00000	55		 push	 ebp
  00001	8b ec		 mov	 ebp, esp
  00003	6a ff		 push	 -1
  00005	68 00 00 00 00	 push	 __ehhandler$??$_Copy_nodes@$0A@@?$_Tree@V?$_Tmap_traits@EHU?$less@E@std@@V?$allocator@U?$pair@$$CBEH@std@@@2@$0A@@std@@@std@@IAEPAU?$_Tree_node@U?$pair@$$CBEH@std@@PAX@1@PAU21@0@Z
  0000a	64 a1 00 00 00
	00		 mov	 eax, DWORD PTR fs:0
  00010	50		 push	 eax
  00011	83 ec 10	 sub	 esp, 16			; 00000010H
  00014	53		 push	 ebx
  00015	56		 push	 esi
  00016	57		 push	 edi
  00017	a1 00 00 00 00	 mov	 eax, DWORD PTR ___security_cookie
  0001c	33 c5		 xor	 eax, ebp
  0001e	50		 push	 eax
  0001f	8d 45 f4	 lea	 eax, DWORD PTR __$EHRec$[ebp]
  00022	64 a3 00 00 00
	00		 mov	 DWORD PTR fs:0, eax
  00028	8b f9		 mov	 edi, ecx

; 1683 :         // copy entire subtree, recursively
; 1684 :         const auto _Scary = _Get_scary();
; 1685 :         _Nodeptr _Newroot = _Scary->_Myhead; // point at nil node
; 1686 : 
; 1687 :         if (!_Rootnode->_Isnil) { // copy or move a node, then any subtrees

  0002a	8b 5d 08	 mov	 ebx, DWORD PTR __Rootnode$[ebp]
  0002d	8b 07		 mov	 eax, DWORD PTR [edi]
  0002f	89 45 f0	 mov	 DWORD PTR __Myhead$1$[ebp], eax
  00032	80 7b 0d 00	 cmp	 BYTE PTR [ebx+13], 0
  00036	75 6f		 jne	 SHORT $LN58@Copy_nodes
; File C:\Program Files\Microsoft Visual Studio\2022\Professional\VC\Tools\MSVC\14.44.35207\include\xmemory

; 1160 :     _CONSTEXPR20 explicit _Alloc_construct_ptr(_Alloc& _Al_) : _Al(_Al_), _Ptr(nullptr) {}

  00038	89 7d e8	 mov	 DWORD PTR __Newnode$3[ebp], edi

; 136  :         return ::operator new(_Bytes);

  0003b	6a 18		 push	 24			; 00000018H
; File C:\Program Files\Microsoft Visual Studio\2022\Professional\VC\Tools\MSVC\14.44.35207\include\xtree

; 358  :         _Alloc_construct_ptr<_Alloc> _Newnode(_Al);

  0003d	c7 45 fc 00 00
	00 00		 mov	 DWORD PTR __$EHRec$[ebp+8], 0
; File C:\Program Files\Microsoft Visual Studio\2022\Professional\VC\Tools\MSVC\14.44.35207\include\xmemory

; 1167 :         _Ptr = nullptr; // if allocate throws, prevents double-free

  00044	c7 45 ec 00 00
	00 00		 mov	 DWORD PTR __Newnode$3[ebp+4], 0

; 136  :         return ::operator new(_Bytes);

  0004b	e8 00 00 00 00	 call	 ??2@YAPAXI@Z		; operator new
; File C:\Program Files\Microsoft Visual Studio\2022\Professional\VC\Tools\MSVC\14.44.35207\include\xtree

; 360  :         allocator_traits<_Alloc>::construct(_Al, _STD addressof(_Newnode._Ptr->_Myval), _STD forward<_Valty>(_Val)...);

  00050	8b 4b 14	 mov	 ecx, DWORD PTR [ebx+20]
; File C:\Program Files\Microsoft Visual Studio\2022\Professional\VC\Tools\MSVC\14.44.35207\include\xmemory

; 256  :         return _Traits::_Allocate(_Bytes);

  00053	8b f0		 mov	 esi, eax
; File C:\Program Files\Microsoft Visual Studio\2022\Professional\VC\Tools\MSVC\14.44.35207\include\xtree

; 360  :         allocator_traits<_Alloc>::construct(_Al, _STD addressof(_Newnode._Ptr->_Myval), _STD forward<_Valty>(_Val)...);

  00055	8b 43 10	 mov	 eax, DWORD PTR [ebx+16]
; File C:\Program Files\Microsoft Visual Studio\2022\Professional\VC\Tools\MSVC\14.44.35207\include\xmemory

; 136  :         return ::operator new(_Bytes);

  00058	83 c4 04	 add	 esp, 4
; File C:\Program Files\Microsoft Visual Studio\2022\Professional\VC\Tools\MSVC\14.44.35207\include\xtree

; 1692 :             typename _Scary_val::template _Erase_tree_and_orphan_guard<_Alnode> _Guard{_Scary, _Getal(), _Newroot};

  0005b	89 7d e4	 mov	 DWORD PTR __Guard$2[ebp], edi
  0005e	89 7d e8	 mov	 DWORD PTR __Guard$2[ebp+4], edi

; 360  :         allocator_traits<_Alloc>::construct(_Al, _STD addressof(_Newnode._Ptr->_Myval), _STD forward<_Valty>(_Val)...);

  00061	89 46 10	 mov	 DWORD PTR [esi+16], eax

; 361  :         _Construct_in_place(_Newnode._Ptr->_Left, _Myhead);

  00064	8b 45 f0	 mov	 eax, DWORD PTR __Myhead$1$[ebp]
  00067	89 4e 14	 mov	 DWORD PTR [esi+20], ecx
  0006a	89 06		 mov	 DWORD PTR [esi], eax

; 362  :         _Construct_in_place(_Newnode._Ptr->_Parent, _Myhead);
; 363  :         _Construct_in_place(_Newnode._Ptr->_Right, _Myhead);

  0006c	89 46 08	 mov	 DWORD PTR [esi+8], eax

; 1688 :             _Newroot          = _Copy_or_move<_Strat>(_Rootnode->_Myval); // memorize new root
; 1689 :             _Newroot->_Parent = _Wherenode;

  0006f	8b 45 0c	 mov	 eax, DWORD PTR __Wherenode$[ebp]

; 364  :         _Newnode._Ptr->_Color = _Red;

  00072	66 c7 46 0c 00
	00		 mov	 WORD PTR [esi+12], 0

; 1688 :             _Newroot          = _Copy_or_move<_Strat>(_Rootnode->_Myval); // memorize new root
; 1689 :             _Newroot->_Parent = _Wherenode;

  00078	89 46 04	 mov	 DWORD PTR [esi+4], eax

; 1690 :             _Newroot->_Color  = _Rootnode->_Color;

  0007b	8a 43 0c	 mov	 al, BYTE PTR [ebx+12]
  0007e	88 46 0c	 mov	 BYTE PTR [esi+12], al

; 1692 :             typename _Scary_val::template _Erase_tree_and_orphan_guard<_Alnode> _Guard{_Scary, _Getal(), _Newroot};

  00081	89 75 ec	 mov	 DWORD PTR __Guard$2[ebp+8], esi

; 1693 : 
; 1694 :             _Newroot->_Left  = _Copy_nodes<_Strat>(_Rootnode->_Left, _Newroot);

  00084	56		 push	 esi
  00085	ff 33		 push	 DWORD PTR [ebx]
  00087	8b cf		 mov	 ecx, edi
  00089	c7 45 fc 01 00
	00 00		 mov	 DWORD PTR __$EHRec$[ebp+8], 1
  00090	e8 00 00 00 00	 call	 ??$_Copy_nodes@$0A@@?$_Tree@V?$_Tmap_traits@EHU?$less@E@std@@V?$allocator@U?$pair@$$CBEH@std@@@2@$0A@@std@@@std@@IAEPAU?$_Tree_node@U?$pair@$$CBEH@std@@PAX@1@PAU21@0@Z ; std::_Tree<std::_Tmap_traits<unsigned char,int,std::less<unsigned char>,std::allocator<std::pair<unsigned char const ,int> >,0> >::_Copy_nodes<0>

; 1695 :             _Newroot->_Right = _Copy_nodes<_Strat>(_Rootnode->_Right, _Newroot);

  00095	56		 push	 esi
  00096	89 06		 mov	 DWORD PTR [esi], eax
  00098	8b cf		 mov	 ecx, edi
  0009a	ff 73 08	 push	 DWORD PTR [ebx+8]
  0009d	e8 00 00 00 00	 call	 ??$_Copy_nodes@$0A@@?$_Tree@V?$_Tmap_traits@EHU?$less@E@std@@V?$allocator@U?$pair@$$CBEH@std@@@2@$0A@@std@@@std@@IAEPAU?$_Tree_node@U?$pair@$$CBEH@std@@PAX@1@PAU21@0@Z ; std::_Tree<std::_Tmap_traits<unsigned char,int,std::less<unsigned char>,std::allocator<std::pair<unsigned char const ,int> >,0> >::_Copy_nodes<0>
  000a2	89 46 08	 mov	 DWORD PTR [esi+8], eax

; 1696 : 
; 1697 :             _Guard._Val_ptr = nullptr;
; 1698 :         }
; 1699 : 
; 1700 :         return _Newroot; // return newly constructed tree

  000a5	8b c6		 mov	 eax, esi
$LN58@Copy_nodes:

; 1701 :     }

  000a7	8b 4d f4	 mov	 ecx, DWORD PTR __$EHRec$[ebp]
  000aa	64 89 0d 00 00
	00 00		 mov	 DWORD PTR fs:0, ecx
  000b1	59		 pop	 ecx
  000b2	5f		 pop	 edi
  000b3	5e		 pop	 esi
  000b4	5b		 pop	 ebx
  000b5	8b e5		 mov	 esp, ebp
  000b7	5d		 pop	 ebp
  000b8	c2 08 00	 ret	 8
_TEXT	ENDS
;	COMDAT text$x
text$x	SEGMENT
__unwindfunclet$??$_Copy_nodes@$0A@@?$_Tree@V?$_Tmap_traits@EHU?$less@E@std@@V?$allocator@U?$pair@$$CBEH@std@@@2@$0A@@std@@@std@@IAEPAU?$_Tree_node@U?$pair@$$CBEH@std@@PAX@1@PAU21@0@Z$1:
  00000	8d 4d e8	 lea	 ecx, DWORD PTR __Newnode$3[ebp]
  00003	e9 00 00 00 00	 jmp	 ??1?$_Alloc_construct_ptr@V?$allocator@U?$_Tree_node@U?$pair@$$CBEH@std@@PAX@std@@@std@@@std@@QAE@XZ ; std::_Alloc_construct_ptr<std::allocator<std::_Tree_node<std::pair<unsigned char const ,int>,void *> > >::~_Alloc_construct_ptr<std::allocator<std::_Tree_node<std::pair<unsigned char const ,int>,void *> > >
__unwindfunclet$??$_Copy_nodes@$0A@@?$_Tree@V?$_Tmap_traits@EHU?$less@E@std@@V?$allocator@U?$pair@$$CBEH@std@@@2@$0A@@std@@@std@@IAEPAU?$_Tree_node@U?$pair@$$CBEH@std@@PAX@1@PAU21@0@Z$0:
  00008	8d 4d e4	 lea	 ecx, DWORD PTR __Guard$2[ebp]
  0000b	e9 00 00 00 00	 jmp	 ??1?$_Erase_tree_and_orphan_guard@V?$allocator@U?$_Tree_node@U?$pair@$$CBEH@std@@PAX@std@@@std@@@?$_Tree_val@U?$_Tree_simple_types@U?$pair@$$CBEH@std@@@std@@@std@@QAE@XZ ; std::_Tree_val<std::_Tree_simple_types<std::pair<unsigned char const ,int> > >::_Erase_tree_and_orphan_guard<std::allocator<std::_Tree_node<std::pair<unsigned char const ,int>,void *> > >::~_Erase_tree_and_orphan_guard<std::allocator<std::_Tree_node<std::pair<unsigned char const ,int>,void *> > >
  00010	cc		 int	 3
  00011	cc		 int	 3
  00012	cc		 int	 3
  00013	cc		 int	 3
  00014	cc		 int	 3
__ehhandler$??$_Copy_nodes@$0A@@?$_Tree@V?$_Tmap_traits@EHU?$less@E@std@@V?$allocator@U?$pair@$$CBEH@std@@@2@$0A@@std@@@std@@IAEPAU?$_Tree_node@U?$pair@$$CBEH@std@@PAX@1@PAU21@0@Z:
  00015	90		 npad	 1
  00016	90		 npad	 1
  00017	8b 54 24 08	 mov	 edx, DWORD PTR [esp+8]
  0001b	8d 42 0c	 lea	 eax, DWORD PTR [edx+12]
  0001e	8b 4a e0	 mov	 ecx, DWORD PTR [edx-32]
  00021	33 c8		 xor	 ecx, eax
  00023	e8 00 00 00 00	 call	 @__security_check_cookie@4
  00028	b8 00 00 00 00	 mov	 eax, OFFSET __ehfuncinfo$??$_Copy_nodes@$0A@@?$_Tree@V?$_Tmap_traits@EHU?$less@E@std@@V?$allocator@U?$pair@$$CBEH@std@@@2@$0A@@std@@@std@@IAEPAU?$_Tree_node@U?$pair@$$CBEH@std@@PAX@1@PAU21@0@Z
  0002d	e9 00 00 00 00	 jmp	 ___CxxFrameHandler3
text$x	ENDS
??$_Copy_nodes@$0A@@?$_Tree@V?$_Tmap_traits@EHU?$less@E@std@@V?$allocator@U?$pair@$$CBEH@std@@@2@$0A@@std@@@std@@IAEPAU?$_Tree_node@U?$pair@$$CBEH@std@@PAX@1@PAU21@0@Z ENDP ; std::_Tree<std::_Tmap_traits<unsigned char,int,std::less<unsigned char>,std::allocator<std::pair<unsigned char const ,int> >,0> >::_Copy_nodes<0>
; Function compile flags: /Ogtp
; File C:\Program Files\Microsoft Visual Studio\2022\Professional\VC\Tools\MSVC\14.44.35207\include\xtree
;	COMDAT ??1?$_Tree_head_scoped_ptr@V?$allocator@U?$_Tree_node@U?$pair@$$CBEH@std@@PAX@std@@@std@@V?$_Tree_val@U?$_Tree_simple_types@U?$pair@$$CBEH@std@@@std@@@2@@std@@QAE@XZ
_TEXT	SEGMENT
??1?$_Tree_head_scoped_ptr@V?$allocator@U?$_Tree_node@U?$pair@$$CBEH@std@@PAX@std@@@std@@V?$_Tree_val@U?$_Tree_simple_types@U?$pair@$$CBEH@std@@@std@@@2@@std@@QAE@XZ PROC ; std::_Tree_head_scoped_ptr<std::allocator<std::_Tree_node<std::pair<unsigned char const ,int>,void *> >,std::_Tree_val<std::_Tree_simple_types<std::pair<unsigned char const ,int> > > >::~_Tree_head_scoped_ptr<std::allocator<std::_Tree_node<std::pair<unsigned char const ,int>,void *> >,std::_Tree_val<std::_Tree_simple_types<std::pair<unsigned char const ,int> > > >, COMDAT
; _this$ = ecx

; 799  :         if (_Mycont) {

  00000	8b 41 04	 mov	 eax, DWORD PTR [ecx+4]
  00003	85 c0		 test	 eax, eax
  00005	74 09		 je	 SHORT $LN2@Tree_head_

; 800  :             _Mycont->_Erase_head(_Al);

  00007	ff 31		 push	 DWORD PTR [ecx]
  00009	8b c8		 mov	 ecx, eax
  0000b	e8 00 00 00 00	 call	 ??$_Erase_head@V?$allocator@U?$_Tree_node@U?$pair@$$CBEH@std@@PAX@std@@@std@@@?$_Tree_val@U?$_Tree_simple_types@U?$pair@$$CBEH@std@@@std@@@std@@QAEXAAV?$allocator@U?$_Tree_node@U?$pair@$$CBEH@std@@PAX@std@@@1@@Z ; std::_Tree_val<std::_Tree_simple_types<std::pair<unsigned char const ,int> > >::_Erase_head<std::allocator<std::_Tree_node<std::pair<unsigned char const ,int>,void *> > >
$LN2@Tree_head_:

; 801  :         }
; 802  :     }

  00010	c3		 ret	 0
??1?$_Tree_head_scoped_ptr@V?$allocator@U?$_Tree_node@U?$pair@$$CBEH@std@@PAX@std@@@std@@V?$_Tree_val@U?$_Tree_simple_types@U?$pair@$$CBEH@std@@@std@@@2@@std@@QAE@XZ ENDP ; std::_Tree_head_scoped_ptr<std::allocator<std::_Tree_node<std::pair<unsigned char const ,int>,void *> >,std::_Tree_val<std::_Tree_simple_types<std::pair<unsigned char const ,int> > > >::~_Tree_head_scoped_ptr<std::allocator<std::_Tree_node<std::pair<unsigned char const ,int>,void *> >,std::_Tree_val<std::_Tree_simple_types<std::pair<unsigned char const ,int> > > >
_TEXT	ENDS
; Function compile flags: /Ogtp
; File C:\Program Files\Microsoft Visual Studio\2022\Professional\VC\Tools\MSVC\14.44.35207\include\xtree
; File C:\Program Files\Microsoft Visual Studio\2022\Professional\VC\Tools\MSVC\14.44.35207\include\utility
; File C:\Program Files\Microsoft Visual Studio\2022\Professional\VC\Tools\MSVC\14.44.35207\include\xmemory
; File C:\Program Files\Microsoft Visual Studio\2022\Professional\VC\Tools\MSVC\14.44.35207\include\xtree
;	COMDAT ??$_Erase_tree@V?$allocator@U?$_Tree_node@U?$pair@$$CBEH@std@@PAX@std@@@std@@@?$_Tree_val@U?$_Tree_simple_types@U?$pair@$$CBEH@std@@@std@@@std@@QAEXAAV?$allocator@U?$_Tree_node@U?$pair@$$CBEH@std@@PAX@std@@@1@PAU?$_Tree_node@U?$pair@$$CBEH@std@@PAX@1@@Z
_TEXT	SEGMENT
__Al$ = 8						; size = 4
__Rootnode$ = 12					; size = 4
??$_Erase_tree@V?$allocator@U?$_Tree_node@U?$pair@$$CBEH@std@@PAX@std@@@std@@@?$_Tree_val@U?$_Tree_simple_types@U?$pair@$$CBEH@std@@@std@@@std@@QAEXAAV?$allocator@U?$_Tree_node@U?$pair@$$CBEH@std@@PAX@std@@@1@PAU?$_Tree_node@U?$pair@$$CBEH@std@@PAX@1@@Z PROC ; std::_Tree_val<std::_Tree_simple_types<std::pair<unsigned char const ,int> > >::_Erase_tree<std::allocator<std::_Tree_node<std::pair<unsigned char const ,int>,void *> > >, COMDAT
; _this$ = ecx

; 767  :     void _Erase_tree(_Alnode& _Al, _Nodeptr _Rootnode) noexcept {

  00000	55		 push	 ebp
  00001	8b ec		 mov	 ebp, esp
  00003	53		 push	 ebx
  00004	56		 push	 esi

; 768  :         while (!_Rootnode->_Isnil) { // free subtrees, then node

  00005	8b 75 0c	 mov	 esi, DWORD PTR __Rootnode$[ebp]
  00008	8b d9		 mov	 ebx, ecx
  0000a	80 7e 0d 00	 cmp	 BYTE PTR [esi+13], 0
  0000e	75 25		 jne	 SHORT $LN34@Erase_tree
  00010	57		 push	 edi
  00011	8b 7d 08	 mov	 edi, DWORD PTR __Al$[ebp]
$LL2@Erase_tree:

; 769  :             _Erase_tree(_Al, _Rootnode->_Right);

  00014	ff 76 08	 push	 DWORD PTR [esi+8]
  00017	8b cb		 mov	 ecx, ebx
  00019	57		 push	 edi
  0001a	e8 00 00 00 00	 call	 ??$_Erase_tree@V?$allocator@U?$_Tree_node@U?$pair@$$CBEH@std@@PAX@std@@@std@@@?$_Tree_val@U?$_Tree_simple_types@U?$pair@$$CBEH@std@@@std@@@std@@QAEXAAV?$allocator@U?$_Tree_node@U?$pair@$$CBEH@std@@PAX@std@@@1@PAU?$_Tree_node@U?$pair@$$CBEH@std@@PAX@1@@Z ; std::_Tree_val<std::_Tree_simple_types<std::pair<unsigned char const ,int> > >::_Erase_tree<std::allocator<std::_Tree_node<std::pair<unsigned char const ,int>,void *> > >
; File C:\Program Files\Microsoft Visual Studio\2022\Professional\VC\Tools\MSVC\14.44.35207\include\utility

; 773  :     _Ty _Old_val = static_cast<_Ty&&>(_Val);

  0001f	8b c6		 mov	 eax, esi

; 774  :     _Val         = static_cast<_Other&&>(_New_val);

  00021	8b 36		 mov	 esi, DWORD PTR [esi]
; File C:\Program Files\Microsoft Visual Studio\2022\Professional\VC\Tools\MSVC\14.44.35207\include\xmemory

; 289  :         ::operator delete(_Ptr, _Bytes);

  00023	6a 18		 push	 24			; 00000018H
  00025	50		 push	 eax
  00026	e8 00 00 00 00	 call	 ??3@YAXPAXI@Z		; operator delete
  0002b	83 c4 08	 add	 esp, 8
; File C:\Program Files\Microsoft Visual Studio\2022\Professional\VC\Tools\MSVC\14.44.35207\include\xtree

; 768  :         while (!_Rootnode->_Isnil) { // free subtrees, then node

  0002e	80 7e 0d 00	 cmp	 BYTE PTR [esi+13], 0
  00032	74 e0		 je	 SHORT $LL2@Erase_tree
  00034	5f		 pop	 edi
$LN34@Erase_tree:
  00035	5e		 pop	 esi

; 770  :             _Alnode::value_type::_Freenode(_Al, _STD exchange(_Rootnode, _Rootnode->_Left));
; 771  :         }
; 772  :     }

  00036	5b		 pop	 ebx
  00037	5d		 pop	 ebp
  00038	c2 08 00	 ret	 8
??$_Erase_tree@V?$allocator@U?$_Tree_node@U?$pair@$$CBEH@std@@PAX@std@@@std@@@?$_Tree_val@U?$_Tree_simple_types@U?$pair@$$CBEH@std@@@std@@@std@@QAEXAAV?$allocator@U?$_Tree_node@U?$pair@$$CBEH@std@@PAX@std@@@1@PAU?$_Tree_node@U?$pair@$$CBEH@std@@PAX@1@@Z ENDP ; std::_Tree_val<std::_Tree_simple_types<std::pair<unsigned char const ,int> > >::_Erase_tree<std::allocator<std::_Tree_node<std::pair<unsigned char const ,int>,void *> > >
_TEXT	ENDS
; Function compile flags: /Ogtp
; File C:\Program Files\Microsoft Visual Studio\2022\Professional\VC\Tools\MSVC\14.44.35207\include\xmemory
;	COMDAT ??1?$_Tree_temp_node_alloc@V?$allocator@U?$_Tree_node@V?$basic_string@DU?$char_traits@D@std@@V?$allocator@D@2@@std@@PAX@std@@@std@@@std@@QAE@XZ
_TEXT	SEGMENT
??1?$_Tree_temp_node_alloc@V?$allocator@U?$_Tree_node@V?$basic_string@DU?$char_traits@D@std@@V?$allocator@D@2@@std@@PAX@std@@@std@@@std@@QAE@XZ PROC ; std::_Tree_temp_node_alloc<std::allocator<std::_Tree_node<std::basic_string<char,std::char_traits<char>,std::allocator<char> >,void *> > >::~_Tree_temp_node_alloc<std::allocator<std::_Tree_node<std::basic_string<char,std::char_traits<char>,std::allocator<char> >,void *> > >, COMDAT
; _this$ = ecx

; 1172 :         if (_Ptr) {

  00000	8b 41 04	 mov	 eax, DWORD PTR [ecx+4]
  00003	85 c0		 test	 eax, eax
  00005	74 0b		 je	 SHORT $LN13@Tree_temp_

; 289  :         ::operator delete(_Ptr, _Bytes);

  00007	6a 28		 push	 40			; 00000028H
  00009	50		 push	 eax
  0000a	e8 00 00 00 00	 call	 ??3@YAXPAXI@Z		; operator delete
  0000f	83 c4 08	 add	 esp, 8
$LN13@Tree_temp_:
  00012	c3		 ret	 0
??1?$_Tree_temp_node_alloc@V?$allocator@U?$_Tree_node@V?$basic_string@DU?$char_traits@D@std@@V?$allocator@D@2@@std@@PAX@std@@@std@@@std@@QAE@XZ ENDP ; std::_Tree_temp_node_alloc<std::allocator<std::_Tree_node<std::basic_string<char,std::char_traits<char>,std::allocator<char> >,void *> > >::~_Tree_temp_node_alloc<std::allocator<std::_Tree_node<std::basic_string<char,std::char_traits<char>,std::allocator<char> >,void *> > >
_TEXT	ENDS
; Function compile flags: /Ogtp
; File C:\Program Files\Microsoft Visual Studio\2022\Professional\VC\Tools\MSVC\14.44.35207\include\xmemory
;	COMDAT ??1?$_Alloc_construct_ptr@V?$allocator@U?$_Tree_node@V?$basic_string@DU?$char_traits@D@std@@V?$allocator@D@2@@std@@PAX@std@@@std@@@std@@QAE@XZ
_TEXT	SEGMENT
??1?$_Alloc_construct_ptr@V?$allocator@U?$_Tree_node@V?$basic_string@DU?$char_traits@D@std@@V?$allocator@D@2@@std@@PAX@std@@@std@@@std@@QAE@XZ PROC ; std::_Alloc_construct_ptr<std::allocator<std::_Tree_node<std::basic_string<char,std::char_traits<char>,std::allocator<char> >,void *> > >::~_Alloc_construct_ptr<std::allocator<std::_Tree_node<std::basic_string<char,std::char_traits<char>,std::allocator<char> >,void *> > >, COMDAT
; _this$ = ecx

; 1172 :         if (_Ptr) {

  00000	8b 41 04	 mov	 eax, DWORD PTR [ecx+4]
  00003	85 c0		 test	 eax, eax
  00005	74 0b		 je	 SHORT $LN10@Alloc_cons

; 289  :         ::operator delete(_Ptr, _Bytes);

  00007	6a 28		 push	 40			; 00000028H
  00009	50		 push	 eax
  0000a	e8 00 00 00 00	 call	 ??3@YAXPAXI@Z		; operator delete
  0000f	83 c4 08	 add	 esp, 8
$LN10@Alloc_cons:

; 1173 :             _Al.deallocate(_Ptr, 1);
; 1174 :         }
; 1175 :     }

  00012	c3		 ret	 0
??1?$_Alloc_construct_ptr@V?$allocator@U?$_Tree_node@V?$basic_string@DU?$char_traits@D@std@@V?$allocator@D@2@@std@@PAX@std@@@std@@@std@@QAE@XZ ENDP ; std::_Alloc_construct_ptr<std::allocator<std::_Tree_node<std::basic_string<char,std::char_traits<char>,std::allocator<char> >,void *> > >::~_Alloc_construct_ptr<std::allocator<std::_Tree_node<std::basic_string<char,std::char_traits<char>,std::allocator<char> >,void *> > >
_TEXT	ENDS
; Function compile flags: /Ogtp
; File C:\Program Files\Microsoft Visual Studio\2022\Professional\VC\Tools\MSVC\14.44.35207\include\xtree
; File C:\Program Files\Microsoft Visual Studio\2022\Professional\VC\Tools\MSVC\14.44.35207\include\utility
; File C:\Program Files\Microsoft Visual Studio\2022\Professional\VC\Tools\MSVC\14.44.35207\include\xmemory
; File C:\Program Files\Microsoft Visual Studio\2022\Professional\VC\Tools\MSVC\14.44.35207\include\xtree
; File C:\Program Files\Microsoft Visual Studio\2022\Professional\VC\Tools\MSVC\14.44.35207\include\xmemory
; File C:\Program Files\Microsoft Visual Studio\2022\Professional\VC\Tools\MSVC\14.44.35207\include\xtree
;	COMDAT ??$_Erase_head@V?$allocator@U?$_Tree_node@U?$pair@$$CBEH@std@@PAX@std@@@std@@@?$_Tree_val@U?$_Tree_simple_types@U?$pair@$$CBEH@std@@@std@@@std@@QAEXAAV?$allocator@U?$_Tree_node@U?$pair@$$CBEH@std@@PAX@std@@@1@@Z
_TEXT	SEGMENT
__Al$ = 8						; size = 4
??$_Erase_head@V?$allocator@U?$_Tree_node@U?$pair@$$CBEH@std@@PAX@std@@@std@@@?$_Tree_val@U?$_Tree_simple_types@U?$pair@$$CBEH@std@@@std@@@std@@QAEXAAV?$allocator@U?$_Tree_node@U?$pair@$$CBEH@std@@PAX@std@@@1@@Z PROC ; std::_Tree_val<std::_Tree_simple_types<std::pair<unsigned char const ,int> > >::_Erase_head<std::allocator<std::_Tree_node<std::pair<unsigned char const ,int>,void *> > >, COMDAT
; _this$ = ecx

; 775  :     void _Erase_head(_Alnode& _Al) noexcept {

  00000	55		 push	 ebp
  00001	8b ec		 mov	 ebp, esp
  00003	56		 push	 esi
  00004	57		 push	 edi
  00005	8b f9		 mov	 edi, ecx

; 776  :         this->_Orphan_all();
; 777  :         _Erase_tree(_Al, _Myhead->_Parent);

  00007	8b 37		 mov	 esi, DWORD PTR [edi]
  00009	8b 76 04	 mov	 esi, DWORD PTR [esi+4]

; 768  :         while (!_Rootnode->_Isnil) { // free subtrees, then node

  0000c	80 7e 0d 00	 cmp	 BYTE PTR [esi+13], 0
  00010	75 25		 jne	 SHORT $LN57@Erase_head
  00012	53		 push	 ebx
  00013	8b 5d 08	 mov	 ebx, DWORD PTR __Al$[ebp]
$LL5@Erase_head:

; 769  :             _Erase_tree(_Al, _Rootnode->_Right);

  00016	ff 76 08	 push	 DWORD PTR [esi+8]
  00019	8b cf		 mov	 ecx, edi
  0001b	53		 push	 ebx
  0001c	e8 00 00 00 00	 call	 ??$_Erase_tree@V?$allocator@U?$_Tree_node@U?$pair@$$CBEH@std@@PAX@std@@@std@@@?$_Tree_val@U?$_Tree_simple_types@U?$pair@$$CBEH@std@@@std@@@std@@QAEXAAV?$allocator@U?$_Tree_node@U?$pair@$$CBEH@std@@PAX@std@@@1@PAU?$_Tree_node@U?$pair@$$CBEH@std@@PAX@1@@Z ; std::_Tree_val<std::_Tree_simple_types<std::pair<unsigned char const ,int> > >::_Erase_tree<std::allocator<std::_Tree_node<std::pair<unsigned char const ,int>,void *> > >
; File C:\Program Files\Microsoft Visual Studio\2022\Professional\VC\Tools\MSVC\14.44.35207\include\utility

; 773  :     _Ty _Old_val = static_cast<_Ty&&>(_Val);

  00021	8b c6		 mov	 eax, esi

; 774  :     _Val         = static_cast<_Other&&>(_New_val);

  00023	8b 36		 mov	 esi, DWORD PTR [esi]
; File C:\Program Files\Microsoft Visual Studio\2022\Professional\VC\Tools\MSVC\14.44.35207\include\xmemory

; 289  :         ::operator delete(_Ptr, _Bytes);

  00025	6a 18		 push	 24			; 00000018H
  00027	50		 push	 eax
  00028	e8 00 00 00 00	 call	 ??3@YAXPAXI@Z		; operator delete
  0002d	83 c4 08	 add	 esp, 8
; File C:\Program Files\Microsoft Visual Studio\2022\Professional\VC\Tools\MSVC\14.44.35207\include\xtree

; 768  :         while (!_Rootnode->_Isnil) { // free subtrees, then node

  00030	80 7e 0d 00	 cmp	 BYTE PTR [esi+13], 0
  00034	74 e0		 je	 SHORT $LL5@Erase_head
  00036	5b		 pop	 ebx
$LN57@Erase_head:
; File C:\Program Files\Microsoft Visual Studio\2022\Professional\VC\Tools\MSVC\14.44.35207\include\xmemory

; 289  :         ::operator delete(_Ptr, _Bytes);

  00037	6a 18		 push	 24			; 00000018H
  00039	ff 37		 push	 DWORD PTR [edi]
  0003b	e8 00 00 00 00	 call	 ??3@YAXPAXI@Z		; operator delete
  00040	83 c4 08	 add	 esp, 8
  00043	5f		 pop	 edi
  00044	5e		 pop	 esi
; File C:\Program Files\Microsoft Visual Studio\2022\Professional\VC\Tools\MSVC\14.44.35207\include\xtree

; 779  :     }

  00045	5d		 pop	 ebp
  00046	c2 04 00	 ret	 4
??$_Erase_head@V?$allocator@U?$_Tree_node@U?$pair@$$CBEH@std@@PAX@std@@@std@@@?$_Tree_val@U?$_Tree_simple_types@U?$pair@$$CBEH@std@@@std@@@std@@QAEXAAV?$allocator@U?$_Tree_node@U?$pair@$$CBEH@std@@PAX@std@@@1@@Z ENDP ; std::_Tree_val<std::_Tree_simple_types<std::pair<unsigned char const ,int> > >::_Erase_head<std::allocator<std::_Tree_node<std::pair<unsigned char const ,int>,void *> > >
_TEXT	ENDS
; Function compile flags: /Ogtp
; File C:\Program Files\Microsoft Visual Studio\2022\Professional\VC\Tools\MSVC\14.44.35207\include\xtree
; File C:\Program Files\Microsoft Visual Studio\2022\Professional\VC\Tools\MSVC\14.44.35207\include\type_traits
; File C:\Program Files\Microsoft Visual Studio\2022\Professional\VC\Tools\MSVC\14.44.35207\include\xtree
; File C:\Program Files\Microsoft Visual Studio\2022\Professional\VC\Tools\MSVC\14.44.35207\include\type_traits
; File C:\Program Files\Microsoft Visual Studio\2022\Professional\VC\Tools\MSVC\14.44.35207\include\xtree
; File C:\Program Files\Microsoft Visual Studio\2022\Professional\VC\Tools\MSVC\14.44.35207\include\type_traits
; File C:\Program Files\Microsoft Visual Studio\2022\Professional\VC\Tools\MSVC\14.44.35207\include\xtree
; File C:\Program Files\Microsoft Visual Studio\2022\Professional\VC\Tools\MSVC\14.44.35207\include\utility
; File C:\Program Files\Microsoft Visual Studio\2022\Professional\VC\Tools\MSVC\14.44.35207\include\xtree
; File C:\Program Files\Microsoft Visual Studio\2022\Professional\VC\Tools\MSVC\14.44.35207\include\xmemory
; File C:\Program Files\Microsoft Visual Studio\2022\Professional\VC\Tools\MSVC\14.44.35207\include\xtree
; File C:\Program Files\Microsoft Visual Studio\2022\Professional\VC\Tools\MSVC\14.44.35207\include\xmemory
; File C:\Program Files\Microsoft Visual Studio\2022\Professional\VC\Tools\MSVC\14.44.35207\include\xstring
; File C:\Program Files\Microsoft Visual Studio\2022\Professional\VC\Tools\MSVC\14.44.35207\include\xtree
; File C:\Program Files\Microsoft Visual Studio\2022\Professional\VC\Tools\MSVC\14.44.35207\include\xstring
; File C:\Program Files\Microsoft Visual Studio\2022\Professional\VC\Tools\MSVC\14.44.35207\include\__msvc_string_view.hpp
; File C:\Program Files\Microsoft Visual Studio\2022\Professional\VC\Tools\MSVC\14.44.35207\include\xstring
; File C:\Program Files\Microsoft Visual Studio\2022\Professional\VC\Tools\MSVC\14.44.35207\include\xmemory
; File C:\Program Files\Microsoft Visual Studio\2022\Professional\VC\Tools\MSVC\14.44.35207\include\xstring
; File C:\Program Files\Microsoft Visual Studio\2022\Professional\VC\Tools\MSVC\14.44.35207\include\xmemory
; File C:\Program Files\Microsoft Visual Studio\2022\Professional\VC\Tools\MSVC\14.44.35207\include\xstring
; File C:\Program Files\Microsoft Visual Studio\2022\Professional\VC\Tools\MSVC\14.44.35207\include\__msvc_string_view.hpp
; File C:\Program Files\Microsoft Visual Studio\2022\Professional\VC\Tools\MSVC\14.44.35207\include\xtree
; File C:\Program Files\Microsoft Visual Studio\2022\Professional\VC\Tools\MSVC\14.44.35207\include\utility
; File C:\Program Files\Microsoft Visual Studio\2022\Professional\VC\Tools\MSVC\14.44.35207\include\xtree
; File C:\Program Files\Microsoft Visual Studio\2022\Professional\VC\Tools\MSVC\14.44.35207\include\utility
; File C:\Program Files\Microsoft Visual Studio\2022\Professional\VC\Tools\MSVC\14.44.35207\include\xtree
; File C:\Program Files\Microsoft Visual Studio\2022\Professional\VC\Tools\MSVC\14.44.35207\include\xstring
; File C:\Program Files\Microsoft Visual Studio\2022\Professional\VC\Tools\MSVC\14.44.35207\include\xtree
;	COMDAT ??$_Emplace@ABV?$basic_string@DU?$char_traits@D@std@@V?$allocator@D@2@@std@@@?$_Tree@V?$_Tset_traits@V?$basic_string@DU?$char_traits@D@std@@V?$allocator@D@2@@std@@U?$less@V?$basic_string@DU?$char_traits@D@std@@V?$allocator@D@2@@std@@@2@V?$allocator@V?$basic_string@DU?$char_traits@D@std@@V?$allocator@D@2@@std@@@2@$0A@@std@@@std@@IAE?AU?$pair@PAU?$_Tree_node@V?$basic_string@DU?$char_traits@D@std@@V?$allocator@D@2@@std@@PAX@std@@_N@1@ABV?$basic_string@DU?$char_traits@D@std@@V?$allocator@D@2@@1@@Z
_TEXT	SEGMENT
$T3 = -40						; size = 8
__Myhead$1$ = -32					; size = 4
__Count$1$ = -28					; size = 4
_this$1$ = -24						; size = 4
__Loc$1$ = -20						; size = 4
__Result$1$ = -16					; size = 4
$T1$sroa$507$1$ = -16					; size = 4
__$EHRec$ = -12						; size = 12
___$ReturnUdt$ = 8					; size = 4
_<_Vals_0>$ = 12					; size = 4
$T4 = 12						; size = 4
??$_Emplace@ABV?$basic_string@DU?$char_traits@D@std@@V?$allocator@D@2@@std@@@?$_Tree@V?$_Tset_traits@V?$basic_string@DU?$char_traits@D@std@@V?$allocator@D@2@@std@@U?$less@V?$basic_string@DU?$char_traits@D@std@@V?$allocator@D@2@@std@@@2@V?$allocator@V?$basic_string@DU?$char_traits@D@std@@V?$allocator@D@2@@std@@@2@$0A@@std@@@std@@IAE?AU?$pair@PAU?$_Tree_node@V?$basic_string@DU?$char_traits@D@std@@V?$allocator@D@2@@std@@PAX@std@@_N@1@ABV?$basic_string@DU?$char_traits@D@std@@V?$allocator@D@2@@1@@Z PROC ; std::_Tree<std::_Tset_traits<std::basic_string<char,std::char_traits<char>,std::allocator<char> >,std::less<std::basic_string<char,std::char_traits<char>,std::allocator<char> > >,std::allocator<std::basic_string<char,std::char_traits<char>,std::allocator<char> > >,0> >::_Emplace<std::basic_string<char,std::char_traits<char>,std::allocator<char> > const &>, COMDAT
; _this$ = ecx

; 1010 :     pair<_Nodeptr, bool> _Emplace(_Valtys&&... _Vals) {

  00000	55		 push	 ebp
  00001	8b ec		 mov	 ebp, esp
  00003	6a ff		 push	 -1
  00005	68 00 00 00 00	 push	 __ehhandler$??$_Emplace@ABV?$basic_string@DU?$char_traits@D@std@@V?$allocator@D@2@@std@@@?$_Tree@V?$_Tset_traits@V?$basic_string@DU?$char_traits@D@std@@V?$allocator@D@2@@std@@U?$less@V?$basic_string@DU?$char_traits@D@std@@V?$allocator@D@2@@std@@@2@V?$allocator@V?$basic_string@DU?$char_traits@D@std@@V?$allocator@D@2@@std@@@2@$0A@@std@@@std@@IAE?AU?$pair@PAU?$_Tree_node@V?$basic_string@DU?$char_traits@D@std@@V?$allocator@D@2@@std@@PAX@std@@_N@1@ABV?$basic_string@DU?$char_traits@D@std@@V?$allocator@D@2@@1@@Z
  0000a	64 a1 00 00 00
	00		 mov	 eax, DWORD PTR fs:0
  00010	50		 push	 eax
  00011	83 ec 1c	 sub	 esp, 28			; 0000001cH
  00014	56		 push	 esi
  00015	57		 push	 edi
  00016	a1 00 00 00 00	 mov	 eax, DWORD PTR ___security_cookie
  0001b	33 c5		 xor	 eax, ebp
  0001d	50		 push	 eax
  0001e	8d 45 f4	 lea	 eax, DWORD PTR __$EHRec$[ebp]
  00021	64 a3 00 00 00
	00		 mov	 DWORD PTR fs:0, eax
  00027	8b f1		 mov	 esi, ecx
  00029	89 75 e8	 mov	 DWORD PTR _this$1$[ebp], esi

; 1630 :         _Tree_find_result<_Nodeptr> _Result{{_Scary->_Myhead->_Parent, _Tree_child::_Right}, _Scary->_Myhead};

  0002c	8b 06		 mov	 eax, DWORD PTR [esi]
  0002e	33 ff		 xor	 edi, edi
  00030	89 45 e0	 mov	 DWORD PTR __Myhead$1$[ebp], eax
  00033	89 45 f0	 mov	 DWORD PTR $T1$sroa$507$1$[ebp], eax
  00036	8b 48 04	 mov	 ecx, DWORD PTR [eax+4]
  00039	89 4d ec	 mov	 DWORD PTR __Loc$1$[ebp], ecx

; 1631 :         _Nodeptr _Trynode = _Result._Location._Parent;
; 1632 :         while (!_Trynode->_Isnil) {

  0003c	80 79 0d 00	 cmp	 BYTE PTR [ecx+13], 0
  00040	75 37		 jne	 SHORT $LN7@Emplace
  00042	8b f1		 mov	 esi, ecx
$LL6@Emplace:
; File C:\Program Files\Microsoft Visual Studio\2022\Professional\VC\Tools\MSVC\14.44.35207\include\type_traits

; 2380 :         return _Left < _Right;

  00044	ff 75 0c	 push	 DWORD PTR _<_Vals_0>$[ebp]
; File C:\Program Files\Microsoft Visual Studio\2022\Professional\VC\Tools\MSVC\14.44.35207\include\xtree

; 1634 :             if (_DEBUG_LT_PRED(_Getcomp(), _Traits::_Kfn(_Trynode->_Myval), _Keyval)) {

  00047	8d 46 10	 lea	 eax, DWORD PTR [esi+16]
  0004a	89 75 ec	 mov	 DWORD PTR __Loc$1$[ebp], esi
; File C:\Program Files\Microsoft Visual Studio\2022\Professional\VC\Tools\MSVC\14.44.35207\include\type_traits

; 2380 :         return _Left < _Right;

  0004d	50		 push	 eax
  0004e	e8 00 00 00 00	 call	 ??$?MDU?$char_traits@D@std@@V?$allocator@D@1@@std@@YA_NABV?$basic_string@DU?$char_traits@D@std@@V?$allocator@D@2@@0@0@Z ; std::operator<<char,std::char_traits<char>,std::allocator<char> >
  00053	83 c4 08	 add	 esp, 8
; File C:\Program Files\Microsoft Visual Studio\2022\Professional\VC\Tools\MSVC\14.44.35207\include\xtree

; 1634 :             if (_DEBUG_LT_PRED(_Getcomp(), _Traits::_Kfn(_Trynode->_Myval), _Keyval)) {

  00056	84 c0		 test	 al, al
  00058	74 0a		 je	 SHORT $LN8@Emplace

; 1635 :                 _Result._Location._Child = _Tree_child::_Right;
; 1636 :                 _Trynode                 = _Trynode->_Right;

  0005a	8b 76 08	 mov	 esi, DWORD PTR [esi+8]
  0005d	33 ff		 xor	 edi, edi

; 1637 :             } else {

  0005f	8b 45 f0	 mov	 eax, DWORD PTR $T1$sroa$507$1$[ebp]
  00062	eb 0c		 jmp	 SHORT $LN9@Emplace
$LN8@Emplace:

; 1638 :                 _Result._Location._Child = _Tree_child::_Left;
; 1639 :                 _Result._Bound           = _Trynode;

  00064	8b c6		 mov	 eax, esi
  00066	bf 01 00 00 00	 mov	 edi, 1

; 1640 :                 _Trynode                 = _Trynode->_Left;

  0006b	8b 36		 mov	 esi, DWORD PTR [esi]
  0006d	89 45 f0	 mov	 DWORD PTR $T1$sroa$507$1$[ebp], eax
$LN9@Emplace:

; 1631 :         _Nodeptr _Trynode = _Result._Location._Parent;
; 1632 :         while (!_Trynode->_Isnil) {

  00070	80 7e 0d 00	 cmp	 BYTE PTR [esi+13], 0
  00074	74 ce		 je	 SHORT $LL6@Emplace
  00076	8b 75 e8	 mov	 esi, DWORD PTR _this$1$[ebp]
$LN7@Emplace:

; 1624 :         return !_Bound->_Isnil && !_DEBUG_LT_PRED(_Getcomp(), _Keyval, _Traits::_Kfn(_Bound->_Myval));

  00079	80 78 0d 00	 cmp	 BYTE PTR [eax+13], 0
  0007d	75 32		 jne	 SHORT $LN2@Emplace
  0007f	83 c0 10	 add	 eax, 16			; 00000010H
; File C:\Program Files\Microsoft Visual Studio\2022\Professional\VC\Tools\MSVC\14.44.35207\include\type_traits

; 2380 :         return _Left < _Right;

  00082	50		 push	 eax
  00083	ff 75 0c	 push	 DWORD PTR _<_Vals_0>$[ebp]
  00086	e8 00 00 00 00	 call	 ??$?MDU?$char_traits@D@std@@V?$allocator@D@1@@std@@YA_NABV?$basic_string@DU?$char_traits@D@std@@V?$allocator@D@2@@0@0@Z ; std::operator<<char,std::char_traits<char>,std::allocator<char> >
  0008b	83 c4 08	 add	 esp, 8
; File C:\Program Files\Microsoft Visual Studio\2022\Professional\VC\Tools\MSVC\14.44.35207\include\xtree

; 1624 :         return !_Bound->_Isnil && !_DEBUG_LT_PRED(_Getcomp(), _Keyval, _Traits::_Kfn(_Bound->_Myval));

  0008e	84 c0		 test	 al, al
  00090	75 1f		 jne	 SHORT $LN2@Emplace
; File C:\Program Files\Microsoft Visual Studio\2022\Professional\VC\Tools\MSVC\14.44.35207\include\utility

; 274  :         : first(_STD forward<_Other1>(_Val1)), second(_STD forward<_Other2>(_Val2)) {

  00092	8b 45 08	 mov	 eax, DWORD PTR ___$ReturnUdt$[ebp]
  00095	8b 4d f0	 mov	 ecx, DWORD PTR $T1$sroa$507$1$[ebp]
  00098	89 08		 mov	 DWORD PTR [eax], ecx
  0009a	c6 40 04 00	 mov	 BYTE PTR [eax+4], 0
; File C:\Program Files\Microsoft Visual Studio\2022\Professional\VC\Tools\MSVC\14.44.35207\include\xtree

; 1043 :     }

  0009e	8b 4d f4	 mov	 ecx, DWORD PTR __$EHRec$[ebp]
  000a1	64 89 0d 00 00
	00 00		 mov	 DWORD PTR fs:0, ecx
  000a8	59		 pop	 ecx
  000a9	5f		 pop	 edi
  000aa	5e		 pop	 esi
  000ab	8b e5		 mov	 esp, ebp
  000ad	5d		 pop	 ebp
  000ae	c2 08 00	 ret	 8
$LN2@Emplace:

; 1648 :         if (max_size() == _Get_scary()->_Mysize) {

  000b1	81 7e 04 66 66
	66 06		 cmp	 DWORD PTR [esi+4], 107374182 ; 06666666H
  000b8	0f 84 24 01 00
	00		 je	 $LN197@Emplace
; File C:\Program Files\Microsoft Visual Studio\2022\Professional\VC\Tools\MSVC\14.44.35207\include\xmemory

; 1160 :     _CONSTEXPR20 explicit _Alloc_construct_ptr(_Alloc& _Al_) : _Al(_Al_), _Ptr(nullptr) {}

  000be	89 75 d8	 mov	 DWORD PTR $T3[ebp], esi

; 136  :         return ::operator new(_Bytes);

  000c1	6a 28		 push	 40			; 00000028H
; File C:\Program Files\Microsoft Visual Studio\2022\Professional\VC\Tools\MSVC\14.44.35207\include\xtree

; 808  :     explicit _Tree_temp_node_alloc(_Alnode& _Al_) : _Alloc_construct_ptr<_Alnode>(_Al_) {

  000c3	c7 45 fc 00 00
	00 00		 mov	 DWORD PTR __$EHRec$[ebp+8], 0
; File C:\Program Files\Microsoft Visual Studio\2022\Professional\VC\Tools\MSVC\14.44.35207\include\xmemory

; 1167 :         _Ptr = nullptr; // if allocate throws, prevents double-free

  000ca	c7 45 dc 00 00
	00 00		 mov	 DWORD PTR $T3[ebp+4], 0

; 136  :         return ::operator new(_Bytes);

  000d1	e8 00 00 00 00	 call	 ??2@YAPAXI@Z		; operator new

; 256  :         return _Traits::_Allocate(_Bytes);

  000d6	8b f0		 mov	 esi, eax

; 136  :         return ::operator new(_Bytes);

  000d8	83 c4 04	 add	 esp, 4

; 1168 :         _Ptr = _Al.allocate(1);

  000db	89 75 dc	 mov	 DWORD PTR $T3[ebp+4], esi
; File C:\Program Files\Microsoft Visual Studio\2022\Professional\VC\Tools\MSVC\14.44.35207\include\xstring

; 444  :         const value_type* _Result = _Bx._Buf;

  000de	8b 45 0c	 mov	 eax, DWORD PTR _<_Vals_0>$[ebp]
  000e1	0f 57 c0	 xorps	 xmm0, xmm0

; 493  :         _CONSTEXPR20 _Bxty() noexcept : _Buf() {} // user-provided, for fancy pointers

  000e4	0f 11 46 10	 movups	 XMMWORD PTR [esi+16], xmm0

; 517  :     size_type _Mysize = 0; // current length of string (size)

  000e8	c7 46 20 00 00
	00 00		 mov	 DWORD PTR [esi+32], 0

; 444  :         const value_type* _Result = _Bx._Buf;

  000ef	8b c8		 mov	 ecx, eax

; 518  :     size_type _Myres  = 0; // current storage reserved for string (capacity)

  000f1	c7 46 24 00 00
	00 00		 mov	 DWORD PTR [esi+36], 0

; 453  :         return _Myres > _Small_string_capacity;

  000f8	83 78 14 0f	 cmp	 DWORD PTR [eax+20], 15	; 0000000fH
; File C:\Program Files\Microsoft Visual Studio\2022\Professional\VC\Tools\MSVC\14.44.35207\include\xtree

; 829  :         : _Tree_temp_node_alloc<_Alnode>(_Al_) {

  000fc	c7 45 fc 01 00
	00 00		 mov	 DWORD PTR __$EHRec$[ebp+8], 1
; File C:\Program Files\Microsoft Visual Studio\2022\Professional\VC\Tools\MSVC\14.44.35207\include\xstring

; 444  :         const value_type* _Result = _Bx._Buf;

  00103	89 45 f0	 mov	 DWORD PTR __Result$1$[ebp], eax

; 445  :         if (_Large_mode_engaged()) {

  00106	76 05		 jbe	 SHORT $LN71@Emplace

; 446  :             _Result = _Unfancy(_Bx._Ptr);

  00108	8b 08		 mov	 ecx, DWORD PTR [eax]
  0010a	89 4d f0	 mov	 DWORD PTR __Result$1$[ebp], ecx
$LN71@Emplace:

; 718  :         _Construct<_Construct_strategy::_From_string>(_Right._Mypair._Myval2._Myptr(), _Right._Mypair._Myval2._Mysize);

  0010d	8b 40 10	 mov	 eax, DWORD PTR [eax+16]
  00110	89 45 e4	 mov	 DWORD PTR __Count$1$[ebp], eax

; 881  :         if (_Count > max_size()) {

  00113	3d ff ff ff 7f	 cmp	 eax, 2147483647		; 7fffffffH
  00118	0f 87 c9 00 00
	00		 ja	 $LN198@Emplace

; 883  :         }
; 884  : 
; 885  :         auto& _Al       = _Getal();
; 886  :         auto&& _Alproxy = _GET_PROXY_ALLOCATOR(_Alty, _Al);
; 887  :         _Container_proxy_ptr<_Alty> _Proxy(_Alproxy, _My_data);
; 888  : 
; 889  :         if (_Count <= _Small_string_capacity) {

  0011e	83 f8 0f	 cmp	 eax, 15			; 0000000fH
  00121	77 13		 ja	 SHORT $LN79@Emplace

; 890  :             _My_data._Mysize = _Count;

  00123	89 46 20	 mov	 DWORD PTR [esi+32], eax

; 891  :             _My_data._Myres  = _Small_string_capacity;

  00126	c7 46 24 0f 00
	00 00		 mov	 DWORD PTR [esi+36], 15	; 0000000fH
; File C:\Program Files\Microsoft Visual Studio\2022\Professional\VC\Tools\MSVC\14.44.35207\include\__msvc_string_view.hpp

; 121  :         _CSTD memcpy(_First1, _First2, _Count * sizeof(_Elem));

  0012d	0f 10 01	 movups	 xmm0, XMMWORD PTR [ecx]
  00130	0f 11 46 10	 movups	 XMMWORD PTR [esi+16], xmm0
; File C:\Program Files\Microsoft Visual Studio\2022\Professional\VC\Tools\MSVC\14.44.35207\include\xstring

; 908  :             return;

  00134	eb 70		 jmp	 SHORT $LN105@Emplace
$LN79@Emplace:

; 2978 :         const size_type _Masked = _Requested | _Alloc_mask;

  00136	83 c8 0f	 or	 eax, 15			; 0000000fH
  00139	3d ff ff ff 7f	 cmp	 eax, 2147483647		; 7fffffffH

; 2979 :         if (_Masked > _Max) { // the mask overflows, settle for max_size()

  0013e	76 14		 jbe	 SHORT $LN85@Emplace

; 2980 :             return _Max;

  00140	b9 00 00 00 80	 mov	 ecx, -2147483648	; 80000000H
  00145	c7 45 0c ff ff
	ff 7f		 mov	 DWORD PTR $T4[ebp], 2147483647 ; 7fffffffH
; File C:\Program Files\Microsoft Visual Studio\2022\Professional\VC\Tools\MSVC\14.44.35207\include\xmemory

; 253  :             return _Allocate_manually_vector_aligned<_Traits>(_Bytes);

  0014c	51		 push	 ecx
  0014d	e8 00 00 00 00	 call	 ??$_Allocate_manually_vector_aligned@U_Default_allocate_traits@std@@@std@@YAPAXI@Z ; std::_Allocate_manually_vector_aligned<std::_Default_allocate_traits>
  00152	eb 2e		 jmp	 SHORT $LN195@Emplace
$LN85@Emplace:
; File C:\Program Files\Microsoft Visual Studio\2022\Professional\VC\Tools\MSVC\14.44.35207\include\xstring

; 2987 :         return (_STD max)(_Masked, _Old + _Old / 2);

  00154	b9 16 00 00 00	 mov	 ecx, 22			; 00000016H
  00159	3b c1		 cmp	 eax, ecx
  0015b	0f 42 c1	 cmovb	 eax, ecx
  0015e	89 45 0c	 mov	 DWORD PTR $T4[ebp], eax

; 825  :         ++_Capacity; // Take null terminator into consideration

  00161	8d 48 01	 lea	 ecx, DWORD PTR [eax+1]
; File C:\Program Files\Microsoft Visual Studio\2022\Professional\VC\Tools\MSVC\14.44.35207\include\xmemory

; 227  :     if (_Bytes == 0) {

  00164	85 c9		 test	 ecx, ecx
  00166	75 04		 jne	 SHORT $LN99@Emplace

; 228  :         return nullptr;

  00168	33 d2		 xor	 edx, edx
  0016a	eb 1e		 jmp	 SHORT $LN98@Emplace
$LN99@Emplace:

; 229  :     }
; 230  : 
; 231  : #if _HAS_CXX20 // TRANSITION, GH-1532
; 232  :     if (_STD is_constant_evaluated()) {
; 233  :         return _Traits::_Allocate(_Bytes);
; 234  :     }
; 235  : #endif // _HAS_CXX20
; 236  : 
; 237  : #ifdef __cpp_aligned_new
; 238  :     if constexpr (_Align > __STDCPP_DEFAULT_NEW_ALIGNMENT__) {
; 239  :         size_t _Passed_align = _Align;
; 240  : #if defined(_M_IX86) || defined(_M_X64)
; 241  :         if (_Bytes >= _Big_allocation_threshold) {
; 242  :             // boost the alignment of big allocations to help autovectorization
; 243  :             _Passed_align = (_STD max)(_Align, _Big_allocation_alignment);
; 244  :         }
; 245  : #endif // defined(_M_IX86) || defined(_M_X64)
; 246  :         return _Traits::_Allocate_aligned(_Bytes, _Passed_align);
; 247  :     } else
; 248  : #endif // defined(__cpp_aligned_new)
; 249  :     {
; 250  : #if defined(_M_IX86) || defined(_M_X64)
; 251  :         if (_Bytes >= _Big_allocation_threshold) {

  0016c	81 f9 00 10 00
	00		 cmp	 ecx, 4096		; 00001000H
  00172	72 08		 jb	 SHORT $LN100@Emplace

; 253  :             return _Allocate_manually_vector_aligned<_Traits>(_Bytes);

  00174	51		 push	 ecx
  00175	e8 00 00 00 00	 call	 ??$_Allocate_manually_vector_aligned@U_Default_allocate_traits@std@@@std@@YAPAXI@Z ; std::_Allocate_manually_vector_aligned<std::_Default_allocate_traits>
  0017a	eb 06		 jmp	 SHORT $LN195@Emplace
$LN100@Emplace:

; 136  :         return ::operator new(_Bytes);

  0017c	51		 push	 ecx
  0017d	e8 00 00 00 00	 call	 ??2@YAPAXI@Z		; operator new
$LN195@Emplace:
; File C:\Program Files\Microsoft Visual Studio\2022\Professional\VC\Tools\MSVC\14.44.35207\include\xstring

; 913  :         _Construct_in_place(_My_data._Bx._Ptr, _New_ptr);

  00182	8b d0		 mov	 edx, eax
  00184	83 c4 04	 add	 esp, 4
  00187	8b 45 0c	 mov	 eax, DWORD PTR $T4[ebp]
$LN98@Emplace:

; 914  : 
; 915  :         _My_data._Mysize = _Count;

  0018a	8b 4d e4	 mov	 ecx, DWORD PTR __Count$1$[ebp]

; 916  :         _My_data._Myres  = _New_capacity;

  0018d	89 46 24	 mov	 DWORD PTR [esi+36], eax
  00190	89 56 10	 mov	 DWORD PTR [esi+16], edx
  00193	89 4e 20	 mov	 DWORD PTR [esi+32], ecx

; 917  :         if constexpr (_Strat == _Construct_strategy::_From_char) {
; 918  :             _Traits::assign(_Unfancy(_New_ptr), _Count, _Arg);
; 919  :             _Traits::assign(_Unfancy(_New_ptr)[_Count], _Elem());
; 920  :         } else if constexpr (_Strat == _Construct_strategy::_From_ptr) {
; 921  :             _Traits::copy(_Unfancy(_New_ptr), _Arg, _Count);
; 922  :             _Traits::assign(_Unfancy(_New_ptr)[_Count], _Elem());
; 923  :         } else { // _Strat == _Construct_strategy::_From_string
; 924  :             _Traits::copy(_Unfancy(_New_ptr), _Arg, _Count + 1);

  00196	8d 41 01	 lea	 eax, DWORD PTR [ecx+1]
; File C:\Program Files\Microsoft Visual Studio\2022\Professional\VC\Tools\MSVC\14.44.35207\include\__msvc_string_view.hpp

; 121  :         _CSTD memcpy(_First1, _First2, _Count * sizeof(_Elem));

  00199	50		 push	 eax
  0019a	ff 75 f0	 push	 DWORD PTR __Result$1$[ebp]
  0019d	52		 push	 edx
  0019e	e8 00 00 00 00	 call	 _memcpy
  001a3	83 c4 0c	 add	 esp, 12			; 0000000cH
$LN105@Emplace:
; File C:\Program Files\Microsoft Visual Studio\2022\Professional\VC\Tools\MSVC\14.44.35207\include\xtree

; 831  :         _Construct_in_place(this->_Ptr->_Left, _Myhead);

  001a6	8b 45 e0	 mov	 eax, DWORD PTR __Myhead$1$[ebp]

; 1042 :         return {_Scary->_Insert_node(_Loc._Location, _Inserted), true};

  001a9	8b 4d e8	 mov	 ecx, DWORD PTR _this$1$[ebp]
  001ac	56		 push	 esi

; 831  :         _Construct_in_place(this->_Ptr->_Left, _Myhead);

  001ad	89 06		 mov	 DWORD PTR [esi], eax

; 1042 :         return {_Scary->_Insert_node(_Loc._Location, _Inserted), true};

  001af	57		 push	 edi
  001b0	ff 75 ec	 push	 DWORD PTR __Loc$1$[ebp]

; 832  :         _Construct_in_place(this->_Ptr->_Parent, _Myhead);

  001b3	89 46 04	 mov	 DWORD PTR [esi+4], eax

; 833  :         _Construct_in_place(this->_Ptr->_Right, _Myhead);

  001b6	89 46 08	 mov	 DWORD PTR [esi+8], eax

; 834  :         this->_Ptr->_Color = _Red;

  001b9	66 c7 46 0c 00
	00		 mov	 WORD PTR [esi+12], 0

; 1042 :         return {_Scary->_Insert_node(_Loc._Location, _Inserted), true};

  001bf	e8 00 00 00 00	 call	 ?_Insert_node@?$_Tree_val@U?$_Tree_simple_types@V?$basic_string@DU?$char_traits@D@std@@V?$allocator@D@2@@std@@@std@@@std@@QAEPAU?$_Tree_node@V?$basic_string@DU?$char_traits@D@std@@V?$allocator@D@2@@std@@PAX@2@U?$_Tree_id@PAU?$_Tree_node@V?$basic_string@DU?$char_traits@D@std@@V?$allocator@D@2@@std@@PAX@std@@@2@QAU32@@Z ; std::_Tree_val<std::_Tree_simple_types<std::basic_string<char,std::char_traits<char>,std::allocator<char> > > >::_Insert_node
; File C:\Program Files\Microsoft Visual Studio\2022\Professional\VC\Tools\MSVC\14.44.35207\include\utility

; 274  :         : first(_STD forward<_Other1>(_Val1)), second(_STD forward<_Other2>(_Val2)) {

  001c4	8b 4d 08	 mov	 ecx, DWORD PTR ___$ReturnUdt$[ebp]
  001c7	89 01		 mov	 DWORD PTR [ecx], eax
; File C:\Program Files\Microsoft Visual Studio\2022\Professional\VC\Tools\MSVC\14.44.35207\include\xtree

; 1042 :         return {_Scary->_Insert_node(_Loc._Location, _Inserted), true};

  001c9	8b c1		 mov	 eax, ecx
; File C:\Program Files\Microsoft Visual Studio\2022\Professional\VC\Tools\MSVC\14.44.35207\include\utility

; 274  :         : first(_STD forward<_Other1>(_Val1)), second(_STD forward<_Other2>(_Val2)) {

  001cb	c6 41 04 01	 mov	 BYTE PTR [ecx+4], 1
; File C:\Program Files\Microsoft Visual Studio\2022\Professional\VC\Tools\MSVC\14.44.35207\include\xtree

; 1043 :     }

  001cf	8b 4d f4	 mov	 ecx, DWORD PTR __$EHRec$[ebp]
  001d2	64 89 0d 00 00
	00 00		 mov	 DWORD PTR fs:0, ecx
  001d9	59		 pop	 ecx
  001da	5f		 pop	 edi
  001db	5e		 pop	 esi
  001dc	8b e5		 mov	 esp, ebp
  001de	5d		 pop	 ebp
  001df	c2 08 00	 ret	 8
$LN197@Emplace:

; 1649 :             _Throw_tree_length_error();

  001e2	e8 00 00 00 00	 call	 ?_Throw_tree_length_error@std@@YAXXZ ; std::_Throw_tree_length_error
$LN198@Emplace:
; File C:\Program Files\Microsoft Visual Studio\2022\Professional\VC\Tools\MSVC\14.44.35207\include\xstring

; 882  :             _Xlen_string(); // result too long

  001e7	e8 00 00 00 00	 call	 ?_Xlen_string@std@@YAXXZ ; std::_Xlen_string
$LN194@Emplace:
  001ec	cc		 int	 3
_TEXT	ENDS
;	COMDAT text$x
text$x	SEGMENT
__unwindfunclet$??$_Emplace@ABV?$basic_string@DU?$char_traits@D@std@@V?$allocator@D@2@@std@@@?$_Tree@V?$_Tset_traits@V?$basic_string@DU?$char_traits@D@std@@V?$allocator@D@2@@std@@U?$less@V?$basic_string@DU?$char_traits@D@std@@V?$allocator@D@2@@std@@@2@V?$allocator@V?$basic_string@DU?$char_traits@D@std@@V?$allocator@D@2@@std@@@2@$0A@@std@@@std@@IAE?AU?$pair@PAU?$_Tree_node@V?$basic_string@DU?$char_traits@D@std@@V?$allocator@D@2@@std@@PAX@std@@_N@1@ABV?$basic_string@DU?$char_traits@D@std@@V?$allocator@D@2@@1@@Z$2:
  00000	8d 4d d8	 lea	 ecx, DWORD PTR $T3[ebp]
  00003	e9 00 00 00 00	 jmp	 ??1?$_Alloc_construct_ptr@V?$allocator@U?$_Tree_node@V?$basic_string@DU?$char_traits@D@std@@V?$allocator@D@2@@std@@PAX@std@@@std@@@std@@QAE@XZ ; std::_Alloc_construct_ptr<std::allocator<std::_Tree_node<std::basic_string<char,std::char_traits<char>,std::allocator<char> >,void *> > >::~_Alloc_construct_ptr<std::allocator<std::_Tree_node<std::basic_string<char,std::char_traits<char>,std::allocator<char> >,void *> > >
__unwindfunclet$??$_Emplace@ABV?$basic_string@DU?$char_traits@D@std@@V?$allocator@D@2@@std@@@?$_Tree@V?$_Tset_traits@V?$basic_string@DU?$char_traits@D@std@@V?$allocator@D@2@@std@@U?$less@V?$basic_string@DU?$char_traits@D@std@@V?$allocator@D@2@@std@@@2@V?$allocator@V?$basic_string@DU?$char_traits@D@std@@V?$allocator@D@2@@std@@@2@$0A@@std@@@std@@IAE?AU?$pair@PAU?$_Tree_node@V?$basic_string@DU?$char_traits@D@std@@V?$allocator@D@2@@std@@PAX@std@@_N@1@ABV?$basic_string@DU?$char_traits@D@std@@V?$allocator@D@2@@1@@Z$1:
  00008	8d 4d d8	 lea	 ecx, DWORD PTR $T3[ebp]
  0000b	e9 00 00 00 00	 jmp	 ??1?$_Tree_temp_node_alloc@V?$allocator@U?$_Tree_node@V?$basic_string@DU?$char_traits@D@std@@V?$allocator@D@2@@std@@PAX@std@@@std@@@std@@QAE@XZ
  00010	cc		 int	 3
  00011	cc		 int	 3
  00012	cc		 int	 3
  00013	cc		 int	 3
  00014	cc		 int	 3
__ehhandler$??$_Emplace@ABV?$basic_string@DU?$char_traits@D@std@@V?$allocator@D@2@@std@@@?$_Tree@V?$_Tset_traits@V?$basic_string@DU?$char_traits@D@std@@V?$allocator@D@2@@std@@U?$less@V?$basic_string@DU?$char_traits@D@std@@V?$allocator@D@2@@std@@@2@V?$allocator@V?$basic_string@DU?$char_traits@D@std@@V?$allocator@D@2@@std@@@2@$0A@@std@@@std@@IAE?AU?$pair@PAU?$_Tree_node@V?$basic_string@DU?$char_traits@D@std@@V?$allocator@D@2@@std@@PAX@std@@_N@1@ABV?$basic_string@DU?$char_traits@D@std@@V?$allocator@D@2@@1@@Z:
  00015	90		 npad	 1
  00016	90		 npad	 1
  00017	8b 54 24 08	 mov	 edx, DWORD PTR [esp+8]
  0001b	8d 42 0c	 lea	 eax, DWORD PTR [edx+12]
  0001e	8b 4a d8	 mov	 ecx, DWORD PTR [edx-40]
  00021	33 c8		 xor	 ecx, eax
  00023	e8 00 00 00 00	 call	 @__security_check_cookie@4
  00028	b8 00 00 00 00	 mov	 eax, OFFSET __ehfuncinfo$??$_Emplace@ABV?$basic_string@DU?$char_traits@D@std@@V?$allocator@D@2@@std@@@?$_Tree@V?$_Tset_traits@V?$basic_string@DU?$char_traits@D@std@@V?$allocator@D@2@@std@@U?$less@V?$basic_string@DU?$char_traits@D@std@@V?$allocator@D@2@@std@@@2@V?$allocator@V?$basic_string@DU?$char_traits@D@std@@V?$allocator@D@2@@std@@@2@$0A@@std@@@std@@IAE?AU?$pair@PAU?$_Tree_node@V?$basic_string@DU?$char_traits@D@std@@V?$allocator@D@2@@std@@PAX@std@@_N@1@ABV?$basic_string@DU?$char_traits@D@std@@V?$allocator@D@2@@1@@Z
  0002d	e9 00 00 00 00	 jmp	 ___CxxFrameHandler3
text$x	ENDS
??$_Emplace@ABV?$basic_string@DU?$char_traits@D@std@@V?$allocator@D@2@@std@@@?$_Tree@V?$_Tset_traits@V?$basic_string@DU?$char_traits@D@std@@V?$allocator@D@2@@std@@U?$less@V?$basic_string@DU?$char_traits@D@std@@V?$allocator@D@2@@std@@@2@V?$allocator@V?$basic_string@DU?$char_traits@D@std@@V?$allocator@D@2@@std@@@2@$0A@@std@@@std@@IAE?AU?$pair@PAU?$_Tree_node@V?$basic_string@DU?$char_traits@D@std@@V?$allocator@D@2@@std@@PAX@std@@_N@1@ABV?$basic_string@DU?$char_traits@D@std@@V?$allocator@D@2@@1@@Z ENDP ; std::_Tree<std::_Tset_traits<std::basic_string<char,std::char_traits<char>,std::allocator<char> >,std::less<std::basic_string<char,std::char_traits<char>,std::allocator<char> > >,std::allocator<std::basic_string<char,std::char_traits<char>,std::allocator<char> > >,0> >::_Emplace<std::basic_string<char,std::char_traits<char>,std::allocator<char> > const &>
; Function compile flags: /Ogtp
; File C:\IAGOS\server\v18\Source\Source\DatabaseServer\DatabaseServer.cpp
;	COMDAT ?InitLanguageFromResource@@YAXPAUHINSTANCE__@@@Z
_TEXT	SEGMENT
_sz2ndPassWord$ = -56					; size = 2
_szLang$ = -52						; size = 16
_szSubLang$ = -36					; size = 16
_szCodePage$ = -20					; size = 16
__$ArrayPad$ = -4					; size = 4
_hInstance$ = 8						; size = 4
?InitLanguageFromResource@@YAXPAUHINSTANCE__@@@Z PROC	; InitLanguageFromResource, COMDAT

; 121  : {

  00000	55		 push	 ebp
  00001	8b ec		 mov	 ebp, esp
  00003	83 ec 38	 sub	 esp, 56			; 00000038H
  00006	a1 00 00 00 00	 mov	 eax, DWORD PTR ___security_cookie
  0000b	33 c5		 xor	 eax, ebp
  0000d	89 45 fc	 mov	 DWORD PTR __$ArrayPad$[ebp], eax
  00010	56		 push	 esi

; 122  : 	char szLang[16], szSubLang[16];
; 123  : 	LoadString(hInstance, IDS_LANG, szLang, 16);	

  00011	8b 35 00 00 00
	00		 mov	 esi, DWORD PTR __imp__LoadStringA@16
  00017	8d 45 cc	 lea	 eax, DWORD PTR _szLang$[ebp]
  0001a	57		 push	 edi
  0001b	8b 7d 08	 mov	 edi, DWORD PTR _hInstance$[ebp]
  0001e	6a 10		 push	 16			; 00000010H
  00020	50		 push	 eax
  00021	6a 02		 push	 2
  00023	57		 push	 edi
  00024	ff d6		 call	 esi

; 124  : 	LoadString(hInstance, IDS_SUBLANG, szSubLang, 16);	

  00026	6a 10		 push	 16			; 00000010H
  00028	8d 45 dc	 lea	 eax, DWORD PTR _szSubLang$[ebp]
  0002b	50		 push	 eax
  0002c	6a 03		 push	 3
  0002e	57		 push	 edi
  0002f	ff d6		 call	 esi

; 125  : 	
; 126  : 	char szCodePage[16];
; 127  : 	LoadString(hInstance, IDS_CODEPAGE, szCodePage, 16);	

  00031	6a 10		 push	 16			; 00000010H
  00033	8d 45 ec	 lea	 eax, DWORD PTR _szCodePage$[ebp]
  00036	50		 push	 eax
  00037	6a 04		 push	 4
  00039	57		 push	 edi
  0003a	ff d6		 call	 esi

; 128  : 	g_codePage = atoi( szCodePage );

  0003c	8d 45 ec	 lea	 eax, DWORD PTR _szCodePage$[ebp]
  0003f	50		 push	 eax
  00040	e8 00 00 00 00	 call	 _atoi
  00045	66 a3 00 00 00
	00		 mov	 WORD PTR ?g_codePage@@3GA, ax ; g_codePage

; 129  : 
; 130  : 	::SetLanguageInfo( atoi( szLang ), atoi( szSubLang ) );

  0004b	8d 45 dc	 lea	 eax, DWORD PTR _szSubLang$[ebp]
  0004e	50		 push	 eax
  0004f	e8 00 00 00 00	 call	 _atoi
  00054	83 c4 08	 add	 esp, 8
  00057	50		 push	 eax
  00058	8d 45 cc	 lea	 eax, DWORD PTR _szLang$[ebp]
  0005b	50		 push	 eax
  0005c	e8 00 00 00 00	 call	 _atoi
  00061	83 c4 04	 add	 esp, 4
  00064	50		 push	 eax
  00065	e8 00 00 00 00	 call	 ?SetLanguageInfo@@YAXHH@Z ; SetLanguageInfo
  0006a	83 c4 08	 add	 esp, 8

; 131  : 
; 132  : #if __VER >= 15 // __2ND_PASSWORD_SYSTEM
; 133  : 	char sz2ndPassWord[2];
; 134  : 	LoadString( hInstance, IDS_2ND_PASSWORD, sz2ndPassWord, 2 );

  0006d	8d 45 c8	 lea	 eax, DWORD PTR _sz2ndPassWord$[ebp]
  00070	6a 02		 push	 2
  00072	50		 push	 eax
  00073	6a 05		 push	 5
  00075	57		 push	 edi
  00076	ff d6		 call	 esi

; 135  : 	::SetUse2ndPassWord( static_cast<BOOL>( atoi( sz2ndPassWord ) ) );

  00078	8d 45 c8	 lea	 eax, DWORD PTR _sz2ndPassWord$[ebp]
  0007b	50		 push	 eax
  0007c	e8 00 00 00 00	 call	 _atoi
  00081	50		 push	 eax
  00082	e8 00 00 00 00	 call	 ?SetUse2ndPassWord@@YAXH@Z ; SetUse2ndPassWord

; 136  : #endif // __2ND_PASSWORD_SYSTEM
; 137  : }

  00087	8b 4d fc	 mov	 ecx, DWORD PTR __$ArrayPad$[ebp]
  0008a	83 c4 08	 add	 esp, 8
  0008d	33 cd		 xor	 ecx, ebp
  0008f	5f		 pop	 edi
  00090	5e		 pop	 esi
  00091	e8 00 00 00 00	 call	 @__security_check_cookie@4
  00096	8b e5		 mov	 esp, ebp
  00098	5d		 pop	 ebp
  00099	c3		 ret	 0
?InitLanguageFromResource@@YAXPAUHINSTANCE__@@@Z ENDP	; InitLanguageFromResource
_TEXT	ENDS
; Function compile flags: /Ogtp
; File C:\IAGOS\server\v18\Source\Source\DatabaseServer\DatabaseServer.cpp
; File C:\Program Files\Microsoft Visual Studio\2022\Professional\VC\Tools\MSVC\14.44.35207\include\xstring
; File C:\IAGOS\server\v18\Source\Source\DatabaseServer\DatabaseServer.cpp
; File C:\Program Files\Microsoft Visual Studio\2022\Professional\VC\Tools\MSVC\14.44.35207\include\xstring
; File C:\Program Files\Microsoft Visual Studio\2022\Professional\VC\Tools\MSVC\14.44.35207\include\__msvc_string_view.hpp
; File C:\Program Files\Microsoft Visual Studio\2022\Professional\VC\Tools\MSVC\14.44.35207\include\xstring
; File C:\Program Files\Microsoft Visual Studio\2022\Professional\VC\Tools\MSVC\14.44.35207\include\__msvc_string_view.hpp
; File C:\Program Files\Microsoft Visual Studio\2022\Professional\VC\Tools\MSVC\14.44.35207\include\xstring
; File C:\Program Files\Microsoft Visual Studio\2022\Professional\VC\Tools\MSVC\14.44.35207\include\__msvc_string_view.hpp
; File C:\Program Files\Microsoft Visual Studio\2022\Professional\VC\Tools\MSVC\14.44.35207\include\xstring
; File C:\Program Files\Microsoft Visual Studio\2022\Professional\VC\Tools\MSVC\14.44.35207\include\xmemory
; File C:\Program Files\Microsoft Visual Studio\2022\Professional\VC\Tools\MSVC\14.44.35207\include\xstring
; File C:\Program Files\Microsoft Visual Studio\2022\Professional\VC\Tools\MSVC\14.44.35207\include\xmemory
; File C:\Program Files\Microsoft Visual Studio\2022\Professional\VC\Tools\MSVC\14.44.35207\include\xstring
; File C:\Program Files\Microsoft Visual Studio\2022\Professional\VC\Tools\MSVC\14.44.35207\include\__msvc_string_view.hpp
; File C:\Program Files\Microsoft Visual Studio\2022\Professional\VC\Tools\MSVC\14.44.35207\include\xstring
; File C:\Program Files\Microsoft Visual Studio\2022\Professional\VC\Tools\MSVC\14.44.35207\include\__msvc_string_view.hpp
; File C:\Program Files\Microsoft Visual Studio\2022\Professional\VC\Tools\MSVC\14.44.35207\include\xstring
; File C:\Program Files\Microsoft Visual Studio\2022\Professional\VC\Tools\MSVC\14.44.35207\include\__msvc_string_view.hpp
; File C:\Program Files\Microsoft Visual Studio\2022\Professional\VC\Tools\MSVC\14.44.35207\include\xstring
; File C:\IAGOS\server\v18\Source\Source\DatabaseServer\DatabaseServer.cpp
; File C:\Program Files\Microsoft Visual Studio\2022\Professional\VC\Tools\MSVC\14.44.35207\include\xtree
; File C:\IAGOS\server\v18\Source\Source\DatabaseServer\DatabaseServer.cpp
; File C:\Program Files\Microsoft Visual Studio\2022\Professional\VC\Tools\MSVC\14.44.35207\include\xtree
; File C:\IAGOS\server\v18\Source\Source\DatabaseServer\DatabaseServer.cpp
; File C:\Program Files\Microsoft Visual Studio\2022\Professional\VC\Tools\MSVC\14.44.35207\include\xstring
; File C:\IAGOS\server\v18\Source\Source\DatabaseServer\DatabaseServer.cpp
; File C:\Program Files\Microsoft Visual Studio\2022\Professional\VC\Tools\MSVC\14.44.35207\include\xstring
; File C:\Program Files\Microsoft Visual Studio\2022\Professional\VC\Tools\MSVC\14.44.35207\include\xmemory
; File C:\Program Files\Microsoft Visual Studio\2022\Professional\VC\Tools\MSVC\14.44.35207\include\xstring
; File C:\Program Files\Microsoft Visual Studio\2022\Professional\VC\Tools\MSVC\14.44.35207\include\xmemory
; File C:\IAGOS\server\v18\Source\Source\DatabaseServer\DatabaseServer.cpp
; File C:\Program Files\Microsoft Visual Studio\2022\Professional\VC\Tools\MSVC\14.44.35207\include\xmemory
; File C:\Program Files\Microsoft Visual Studio\2022\Professional\VC\Tools\MSVC\14.44.35207\include\xstring
; File C:\IAGOS\server\v18\Source\Source\DatabaseServer\DatabaseServer.cpp
;	COMDAT ?LoadRemoveItem@@YAHPBD@Z
_TEXT	SEGMENT
__Result$2 = -2192					; size = 8
__Ptr$1$ = -2184					; size = 4
$T3 = -2180						; size = 4
_s$ = -2176						; size = 2136
_strbuf$4 = -40						; size = 24
__$ArrayPad$ = -16					; size = 4
__$EHRec$ = -12						; size = 12
_lpszFileName$ = 8					; size = 4
?LoadRemoveItem@@YAHPBD@Z PROC				; LoadRemoveItem, COMDAT

; 836  : {

  00000	55		 push	 ebp
  00001	8b ec		 mov	 ebp, esp
  00003	6a ff		 push	 -1
  00005	68 00 00 00 00	 push	 __ehhandler$?LoadRemoveItem@@YAHPBD@Z
  0000a	64 a1 00 00 00
	00		 mov	 eax, DWORD PTR fs:0
  00010	50		 push	 eax
  00011	81 ec 84 08 00
	00		 sub	 esp, 2180		; 00000884H
  00017	a1 00 00 00 00	 mov	 eax, DWORD PTR ___security_cookie
  0001c	33 c5		 xor	 eax, ebp
  0001e	89 45 f0	 mov	 DWORD PTR __$ArrayPad$[ebp], eax
  00021	56		 push	 esi
  00022	57		 push	 edi
  00023	50		 push	 eax
  00024	8d 45 f4	 lea	 eax, DWORD PTR __$EHRec$[ebp]
  00027	64 a3 00 00 00
	00		 mov	 DWORD PTR fs:0, eax
  0002d	8b 75 08	 mov	 esi, DWORD PTR _lpszFileName$[ebp]

; 837  : 	CScanner s;

  00030	8d 8d 80 f7 ff
	ff		 lea	 ecx, DWORD PTR _s$[ebp]
  00036	6a 00		 push	 0
  00038	e8 00 00 00 00	 call	 ??0CScanner@@QAE@H@Z	; CScanner::CScanner

; 838  : 	
; 839  : 	if( s.Load( lpszFileName ) )

  0003d	6a 01		 push	 1
  0003f	56		 push	 esi
  00040	8d 8d 80 f7 ff
	ff		 lea	 ecx, DWORD PTR _s$[ebp]
  00046	c7 45 fc 00 00
	00 00		 mov	 DWORD PTR __$EHRec$[ebp+8], 0
  0004d	e8 00 00 00 00	 call	 ?Load@CScanner@@QAEHPBDH@Z ; CScanner::Load
  00052	85 c0		 test	 eax, eax
  00054	0f 84 54 01 00
	00		 je	 $LN4@LoadRemove

; 840  : 	{
; 841  : 		s.GetToken();

  0005a	6a 00		 push	 0
  0005c	8d 8d 80 f7 ff
	ff		 lea	 ecx, DWORD PTR _s$[ebp]
  00062	e8 00 00 00 00	 call	 ?GetToken@CScanner@@UAEHH@Z ; CScanner::GetToken
$LN90@LoadRemove:

; 844  : 			string strbuf = s.Token;

  00067	83 7d c4 15	 cmp	 DWORD PTR _s$[ebp+2116], 21 ; 00000015H
  0006b	0f 84 36 01 00
	00		 je	 $LN3@LoadRemove
  00071	8b bd a0 f7 ff
	ff		 mov	 edi, DWORD PTR _s$[ebp+32]
  00077	0f 57 c0	 xorps	 xmm0, xmm0
; File C:\Program Files\Microsoft Visual Studio\2022\Professional\VC\Tools\MSVC\14.44.35207\include\xstring

; 518  :     size_type _Myres  = 0; // current storage reserved for string (capacity)

  0007a	8b f7		 mov	 esi, edi
; File C:\IAGOS\server\v18\Source\Source\DatabaseServer\DatabaseServer.cpp

; 844  : 			string strbuf = s.Token;

  0007c	89 bd 78 f7 ff
	ff		 mov	 DWORD PTR __Ptr$1$[ebp], edi
  00082	ba 16 00 00 00	 mov	 edx, 22			; 00000016H
; File C:\Program Files\Microsoft Visual Studio\2022\Professional\VC\Tools\MSVC\14.44.35207\include\xstring

; 517  :     size_type _Mysize = 0; // current length of string (size)

  00087	c7 45 e8 00 00
	00 00		 mov	 DWORD PTR _strbuf$4[ebp+16], 0

; 493  :         _CONSTEXPR20 _Bxty() noexcept : _Buf() {} // user-provided, for fancy pointers

  0008e	0f 11 45 d8	 movups	 XMMWORD PTR _strbuf$4[ebp], xmm0

; 518  :     size_type _Myres  = 0; // current storage reserved for string (capacity)

  00092	c7 45 ec 00 00
	00 00		 mov	 DWORD PTR _strbuf$4[ebp+20], 0
  00099	8d 4e 01	 lea	 ecx, DWORD PTR [esi+1]
  0009c	0f 1f 40 00	 npad	 4
$LL109@LoadRemove:
  000a0	8a 06		 mov	 al, BYTE PTR [esi]
  000a2	46		 inc	 esi
  000a3	84 c0		 test	 al, al
  000a5	75 f9		 jne	 SHORT $LL109@LoadRemove
  000a7	2b f1		 sub	 esi, ecx

; 881  :         if (_Count > max_size()) {

  000a9	81 fe ff ff ff
	7f		 cmp	 esi, 2147483647		; 7fffffffH
  000af	0f 87 32 01 00
	00		 ja	 $LN102@LoadRemove

; 883  :         }
; 884  : 
; 885  :         auto& _Al       = _Getal();
; 886  :         auto&& _Alproxy = _GET_PROXY_ALLOCATOR(_Alty, _Al);
; 887  :         _Container_proxy_ptr<_Alty> _Proxy(_Alproxy, _My_data);
; 888  : 
; 889  :         if (_Count <= _Small_string_capacity) {

  000b5	83 fe 0f	 cmp	 esi, 15			; 0000000fH
  000b8	77 1c		 ja	 SHORT $LN29@LoadRemove
; File C:\Program Files\Microsoft Visual Studio\2022\Professional\VC\Tools\MSVC\14.44.35207\include\__msvc_string_view.hpp

; 121  :         _CSTD memcpy(_First1, _First2, _Count * sizeof(_Elem));

  000ba	56		 push	 esi
  000bb	8d 45 d8	 lea	 eax, DWORD PTR _strbuf$4[ebp]
; File C:\Program Files\Microsoft Visual Studio\2022\Professional\VC\Tools\MSVC\14.44.35207\include\xstring

; 890  :             _My_data._Mysize = _Count;

  000be	89 75 e8	 mov	 DWORD PTR _strbuf$4[ebp+16], esi
; File C:\Program Files\Microsoft Visual Studio\2022\Professional\VC\Tools\MSVC\14.44.35207\include\__msvc_string_view.hpp

; 121  :         _CSTD memcpy(_First1, _First2, _Count * sizeof(_Elem));

  000c1	57		 push	 edi
  000c2	50		 push	 eax
; File C:\Program Files\Microsoft Visual Studio\2022\Professional\VC\Tools\MSVC\14.44.35207\include\xstring

; 891  :             _My_data._Myres  = _Small_string_capacity;

  000c3	c7 45 ec 0f 00
	00 00		 mov	 DWORD PTR _strbuf$4[ebp+20], 15 ; 0000000fH
; File C:\Program Files\Microsoft Visual Studio\2022\Professional\VC\Tools\MSVC\14.44.35207\include\__msvc_string_view.hpp

; 121  :         _CSTD memcpy(_First1, _First2, _Count * sizeof(_Elem));

  000ca	e8 00 00 00 00	 call	 _memcpy
; File C:\Program Files\Microsoft Visual Studio\2022\Professional\VC\Tools\MSVC\14.44.35207\include\xstring

; 898  :                 _Traits::assign(_My_data._Bx._Buf[_Count], _Elem());

  000cf	c6 44 35 d8 00	 mov	 BYTE PTR _strbuf$4[ebp+esi], 0

; 899  :             } else { // _Strat == _Construct_strategy::_From_string
; 900  : #ifdef _INSERT_STRING_ANNOTATION
; 901  :                 _Traits::copy(_My_data._Bx._Buf, _Arg, _Count + 1);
; 902  : #else // ^^^ _INSERT_STRING_ANNOTATION / !_INSERT_STRING_ANNOTATION vvv
; 903  :                 _Traits::copy(_My_data._Bx._Buf, _Arg, _BUF_SIZE);
; 904  : #endif // ^^^ !_INSERT_STRING_ANNOTATION ^^^
; 905  :             }
; 906  : 
; 907  :             _Proxy._Release();
; 908  :             return;

  000d4	eb 6a		 jmp	 SHORT $LN112@LoadRemove
$LN29@LoadRemove:

; 2978 :         const size_type _Masked = _Requested | _Alloc_mask;

  000d6	8b fe		 mov	 edi, esi
  000d8	83 cf 0f	 or	 edi, 15			; 0000000fH
  000db	81 ff ff ff ff
	7f		 cmp	 edi, 2147483647		; 7fffffffH

; 2979 :         if (_Masked > _Max) { // the mask overflows, settle for max_size()

  000e1	76 12		 jbe	 SHORT $LN35@LoadRemove

; 2980 :             return _Max;

  000e3	b8 00 00 00 80	 mov	 eax, -2147483648	; 80000000H
  000e8	bf ff ff ff 7f	 mov	 edi, 2147483647		; 7fffffffH
; File C:\Program Files\Microsoft Visual Studio\2022\Professional\VC\Tools\MSVC\14.44.35207\include\xmemory

; 253  :             return _Allocate_manually_vector_aligned<_Traits>(_Bytes);

  000ed	50		 push	 eax
  000ee	e8 00 00 00 00	 call	 ??$_Allocate_manually_vector_aligned@U_Default_allocate_traits@std@@@std@@YAPAXI@Z ; std::_Allocate_manually_vector_aligned<std::_Default_allocate_traits>
  000f3	eb 22		 jmp	 SHORT $LN114@LoadRemove
$LN35@LoadRemove:
; File C:\Program Files\Microsoft Visual Studio\2022\Professional\VC\Tools\MSVC\14.44.35207\include\xstring

; 2987 :         return (_STD max)(_Masked, _Old + _Old / 2);

  000f5	83 ff 16	 cmp	 edi, 22			; 00000016H
  000f8	0f 42 fa	 cmovb	 edi, edx

; 825  :         ++_Capacity; // Take null terminator into consideration

  000fb	8d 47 01	 lea	 eax, DWORD PTR [edi+1]
; File C:\Program Files\Microsoft Visual Studio\2022\Professional\VC\Tools\MSVC\14.44.35207\include\xmemory

; 227  :     if (_Bytes == 0) {

  000fe	85 c0		 test	 eax, eax
  00100	74 18		 je	 SHORT $LN113@LoadRemove
$LN49@LoadRemove:

; 228  :         return nullptr;
; 229  :     }
; 230  : 
; 231  : #if _HAS_CXX20 // TRANSITION, GH-1532
; 232  :     if (_STD is_constant_evaluated()) {
; 233  :         return _Traits::_Allocate(_Bytes);
; 234  :     }
; 235  : #endif // _HAS_CXX20
; 236  : 
; 237  : #ifdef __cpp_aligned_new
; 238  :     if constexpr (_Align > __STDCPP_DEFAULT_NEW_ALIGNMENT__) {
; 239  :         size_t _Passed_align = _Align;
; 240  : #if defined(_M_IX86) || defined(_M_X64)
; 241  :         if (_Bytes >= _Big_allocation_threshold) {
; 242  :             // boost the alignment of big allocations to help autovectorization
; 243  :             _Passed_align = (_STD max)(_Align, _Big_allocation_alignment);
; 244  :         }
; 245  : #endif // defined(_M_IX86) || defined(_M_X64)
; 246  :         return _Traits::_Allocate_aligned(_Bytes, _Passed_align);
; 247  :     } else
; 248  : #endif // defined(__cpp_aligned_new)
; 249  :     {
; 250  : #if defined(_M_IX86) || defined(_M_X64)
; 251  :         if (_Bytes >= _Big_allocation_threshold) {

  00102	3d 00 10 00 00	 cmp	 eax, 4096		; 00001000H
  00107	72 08		 jb	 SHORT $LN50@LoadRemove

; 253  :             return _Allocate_manually_vector_aligned<_Traits>(_Bytes);

  00109	50		 push	 eax
  0010a	e8 00 00 00 00	 call	 ??$_Allocate_manually_vector_aligned@U_Default_allocate_traits@std@@@std@@YAPAXI@Z ; std::_Allocate_manually_vector_aligned<std::_Default_allocate_traits>
  0010f	eb 06		 jmp	 SHORT $LN114@LoadRemove
$LN50@LoadRemove:

; 136  :         return ::operator new(_Bytes);

  00111	50		 push	 eax
  00112	e8 00 00 00 00	 call	 ??2@YAPAXI@Z		; operator new
$LN114@LoadRemove:
; File C:\Program Files\Microsoft Visual Studio\2022\Professional\VC\Tools\MSVC\14.44.35207\include\xstring

; 913  :         _Construct_in_place(_My_data._Bx._Ptr, _New_ptr);

  00117	83 c4 04	 add	 esp, 4
$LN113@LoadRemove:
; File C:\Program Files\Microsoft Visual Studio\2022\Professional\VC\Tools\MSVC\14.44.35207\include\__msvc_string_view.hpp

; 121  :         _CSTD memcpy(_First1, _First2, _Count * sizeof(_Elem));

  0011a	56		 push	 esi
  0011b	ff b5 78 f7 ff
	ff		 push	 DWORD PTR __Ptr$1$[ebp]
; File C:\Program Files\Microsoft Visual Studio\2022\Professional\VC\Tools\MSVC\14.44.35207\include\xstring

; 913  :         _Construct_in_place(_My_data._Bx._Ptr, _New_ptr);

  00121	89 85 7c f7 ff
	ff		 mov	 DWORD PTR $T3[ebp], eax
; File C:\Program Files\Microsoft Visual Studio\2022\Professional\VC\Tools\MSVC\14.44.35207\include\__msvc_string_view.hpp

; 121  :         _CSTD memcpy(_First1, _First2, _Count * sizeof(_Elem));

  00127	50		 push	 eax
; File C:\Program Files\Microsoft Visual Studio\2022\Professional\VC\Tools\MSVC\14.44.35207\include\xstring

; 913  :         _Construct_in_place(_My_data._Bx._Ptr, _New_ptr);

  00128	89 45 d8	 mov	 DWORD PTR _strbuf$4[ebp], eax

; 914  : 
; 915  :         _My_data._Mysize = _Count;

  0012b	89 75 e8	 mov	 DWORD PTR _strbuf$4[ebp+16], esi

; 916  :         _My_data._Myres  = _New_capacity;

  0012e	89 7d ec	 mov	 DWORD PTR _strbuf$4[ebp+20], edi
; File C:\Program Files\Microsoft Visual Studio\2022\Professional\VC\Tools\MSVC\14.44.35207\include\__msvc_string_view.hpp

; 121  :         _CSTD memcpy(_First1, _First2, _Count * sizeof(_Elem));

  00131	e8 00 00 00 00	 call	 _memcpy
; File C:\Program Files\Microsoft Visual Studio\2022\Professional\VC\Tools\MSVC\14.44.35207\include\xstring

; 922  :             _Traits::assign(_Unfancy(_New_ptr)[_Count], _Elem());

  00136	8b 85 7c f7 ff
	ff		 mov	 eax, DWORD PTR $T3[ebp]
  0013c	c6 04 30 00	 mov	 BYTE PTR [eax+esi], 0
$LN112@LoadRemove:
; File C:\IAGOS\server\v18\Source\Source\DatabaseServer\DatabaseServer.cpp

; 844  : 			string strbuf = s.Token;

  00140	83 c4 0c	 add	 esp, 12			; 0000000cH
; File C:\Program Files\Microsoft Visual Studio\2022\Professional\VC\Tools\MSVC\14.44.35207\include\xtree

; 1235 :         const auto _Result = _Emplace(_Val);

  00143	8b 0d 00 00 00
	00		 mov	 ecx, DWORD PTR ?g_DbManager@@3AAVCDbManager@@A ; g_DbManager
  00149	8d 45 d8	 lea	 eax, DWORD PTR _strbuf$4[ebp]
  0014c	50		 push	 eax
  0014d	8d 85 70 f7 ff
	ff		 lea	 eax, DWORD PTR __Result$2[ebp]
; File C:\IAGOS\server\v18\Source\Source\DatabaseServer\DatabaseServer.cpp

; 844  : 			string strbuf = s.Token;

  00153	c6 45 fc 01	 mov	 BYTE PTR __$EHRec$[ebp+8], 1
; File C:\Program Files\Microsoft Visual Studio\2022\Professional\VC\Tools\MSVC\14.44.35207\include\xtree

; 1235 :         const auto _Result = _Emplace(_Val);

  00157	50		 push	 eax
  00158	e8 00 00 00 00	 call	 ??$_Emplace@ABV?$basic_string@DU?$char_traits@D@std@@V?$allocator@D@2@@std@@@?$_Tree@V?$_Tset_traits@V?$basic_string@DU?$char_traits@D@std@@V?$allocator@D@2@@std@@U?$less@V?$basic_string@DU?$char_traits@D@std@@V?$allocator@D@2@@std@@@2@V?$allocator@V?$basic_string@DU?$char_traits@D@std@@V?$allocator@D@2@@std@@@2@$0A@@std@@@std@@IAE?AU?$pair@PAU?$_Tree_node@V?$basic_string@DU?$char_traits@D@std@@V?$allocator@D@2@@std@@PAX@std@@_N@1@ABV?$basic_string@DU?$char_traits@D@std@@V?$allocator@D@2@@1@@Z ; std::_Tree<std::_Tset_traits<std::basic_string<char,std::char_traits<char>,std::allocator<char> >,std::less<std::basic_string<char,std::char_traits<char>,std::allocator<char> > >,std::allocator<std::basic_string<char,std::char_traits<char>,std::allocator<char> > >,0> >::_Emplace<std::basic_string<char,std::char_traits<char>,std::allocator<char> > const &>
; File C:\IAGOS\server\v18\Source\Source\DatabaseServer\DatabaseServer.cpp

; 846  : 			s.GetToken();

  0015d	6a 00		 push	 0
  0015f	8d 8d 80 f7 ff
	ff		 lea	 ecx, DWORD PTR _s$[ebp]
  00165	e8 00 00 00 00	 call	 ?GetToken@CScanner@@UAEHH@Z ; CScanner::GetToken
; File C:\Program Files\Microsoft Visual Studio\2022\Professional\VC\Tools\MSVC\14.44.35207\include\xstring

; 453  :         return _Myres > _Small_string_capacity;

  0016a	8b 4d ec	 mov	 ecx, DWORD PTR _strbuf$4[ebp+20]
; File C:\IAGOS\server\v18\Source\Source\DatabaseServer\DatabaseServer.cpp

; 847  : 		}

  0016d	c6 45 fc 00	 mov	 BYTE PTR __$EHRec$[ebp+8], 0
; File C:\Program Files\Microsoft Visual Studio\2022\Professional\VC\Tools\MSVC\14.44.35207\include\xstring

; 453  :         return _Myres > _Small_string_capacity;

  00171	83 f9 0f	 cmp	 ecx, 15			; 0000000fH

; 3083 :         if (_My_data._Large_mode_engaged()) {

  00174	0f 86 ed fe ff
	ff		 jbe	 $LN90@LoadRemove
; File C:\Program Files\Microsoft Visual Studio\2022\Professional\VC\Tools\MSVC\14.44.35207\include\xmemory

; 985  :         _STD _Deallocate<_New_alignof<_Ty>>(_Ptr, sizeof(_Ty) * _Count);

  0017a	8b 55 d8	 mov	 edx, DWORD PTR _strbuf$4[ebp]
; File C:\Program Files\Microsoft Visual Studio\2022\Professional\VC\Tools\MSVC\14.44.35207\include\xstring

; 852  :         _Al.deallocate(_Old_ptr, _Capacity + 1); // +1 for null terminator

  0017d	41		 inc	 ecx
; File C:\Program Files\Microsoft Visual Studio\2022\Professional\VC\Tools\MSVC\14.44.35207\include\xmemory

; 985  :         _STD _Deallocate<_New_alignof<_Ty>>(_Ptr, sizeof(_Ty) * _Count);

  0017e	8b c2		 mov	 eax, edx

; 284  :         if (_Bytes >= _Big_allocation_threshold) {

  00180	81 f9 00 10 00
	00		 cmp	 ecx, 4096		; 00001000H
  00186	72 10		 jb	 SHORT $LN95@LoadRemove

; 205  :     const uintptr_t _Ptr_container   = _Ptr_user[-1];

  00188	8b 50 fc	 mov	 edx, DWORD PTR [eax-4]
  0018b	83 c1 23	 add	 ecx, 35			; 00000023H
  0018e	2b c2		 sub	 eax, edx

; 219  :     _STL_VERIFY(_Back_shift >= _Min_back_shift && _Back_shift <= _Non_user_size, "invalid argument");

  00190	83 c0 fc	 add	 eax, -4			; fffffffcH
  00193	83 f8 1f	 cmp	 eax, 31			; 0000001fH
  00196	77 40		 ja	 SHORT $LN103@LoadRemove
$LN95@LoadRemove:

; 289  :         ::operator delete(_Ptr, _Bytes);

  00198	51		 push	 ecx
  00199	52		 push	 edx
  0019a	e8 00 00 00 00	 call	 ??3@YAXPAXI@Z		; operator delete
  0019f	83 c4 08	 add	 esp, 8
; File C:\IAGOS\server\v18\Source\Source\DatabaseServer\DatabaseServer.cpp

; 842  : 		while( s.tok != FINISHED )

  001a2	e9 c0 fe ff ff	 jmp	 $LN90@LoadRemove
$LN3@LoadRemove:
  001a7	be 01 00 00 00	 mov	 esi, 1
  001ac	eb 02		 jmp	 SHORT $LN8@LoadRemove
$LN4@LoadRemove:

; 848  : 		return TRUE;
; 849  : 	}
; 850  : 	return FALSE;

  001ae	33 f6		 xor	 esi, esi
$LN8@LoadRemove:
  001b0	8d 8d 80 f7 ff
	ff		 lea	 ecx, DWORD PTR _s$[ebp]
  001b6	e8 00 00 00 00	 call	 ??1CScanner@@UAE@XZ	; CScanner::~CScanner
  001bb	8b c6		 mov	 eax, esi

; 851  : }

  001bd	8b 4d f4	 mov	 ecx, DWORD PTR __$EHRec$[ebp]
  001c0	64 89 0d 00 00
	00 00		 mov	 DWORD PTR fs:0, ecx
  001c7	59		 pop	 ecx
  001c8	5f		 pop	 edi
  001c9	5e		 pop	 esi
  001ca	8b 4d f0	 mov	 ecx, DWORD PTR __$ArrayPad$[ebp]
  001cd	33 cd		 xor	 ecx, ebp
  001cf	e8 00 00 00 00	 call	 @__security_check_cookie@4
  001d4	8b e5		 mov	 esp, ebp
  001d6	5d		 pop	 ebp
  001d7	c3		 ret	 0
$LN103@LoadRemove:
; File C:\Program Files\Microsoft Visual Studio\2022\Professional\VC\Tools\MSVC\14.44.35207\include\xmemory

; 219  :     _STL_VERIFY(_Back_shift >= _Min_back_shift && _Back_shift <= _Non_user_size, "invalid argument");

  001d8	6a 00		 push	 0
  001da	6a 00		 push	 0
  001dc	6a 00		 push	 0
  001de	6a 00		 push	 0
  001e0	6a 00		 push	 0
  001e2	e8 00 00 00 00	 call	 __invoke_watson
$LN102@LoadRemove:
; File C:\Program Files\Microsoft Visual Studio\2022\Professional\VC\Tools\MSVC\14.44.35207\include\xstring

; 882  :             _Xlen_string(); // result too long

  001e7	e8 00 00 00 00	 call	 ?_Xlen_string@std@@YAXXZ ; std::_Xlen_string
$LN111@LoadRemove:
  001ec	cc		 int	 3
_TEXT	ENDS
;	COMDAT text$x
text$x	SEGMENT
__unwindfunclet$?LoadRemoveItem@@YAHPBD@Z$0:
  00000	8d 8d 80 f7 ff
	ff		 lea	 ecx, DWORD PTR _s$[ebp]
  00006	e9 00 00 00 00	 jmp	 ??1CScanner@@UAE@XZ	; CScanner::~CScanner
__unwindfunclet$?LoadRemoveItem@@YAHPBD@Z$1:
  0000b	8d 4d d8	 lea	 ecx, DWORD PTR _strbuf$4[ebp]
  0000e	e9 00 00 00 00	 jmp	 ??1?$basic_string@DU?$char_traits@D@std@@V?$allocator@D@2@@std@@QAE@XZ ; std::basic_string<char,std::char_traits<char>,std::allocator<char> >::~basic_string<char,std::char_traits<char>,std::allocator<char> >
  00013	cc		 int	 3
  00014	cc		 int	 3
  00015	cc		 int	 3
  00016	cc		 int	 3
  00017	cc		 int	 3
__ehhandler$?LoadRemoveItem@@YAHPBD@Z:
  00018	90		 npad	 1
  00019	90		 npad	 1
  0001a	8b 54 24 08	 mov	 edx, DWORD PTR [esp+8]
  0001e	8d 42 0c	 lea	 eax, DWORD PTR [edx+12]
  00021	8b 8a 70 f7 ff
	ff		 mov	 ecx, DWORD PTR [edx-2192]
  00027	33 c8		 xor	 ecx, eax
  00029	e8 00 00 00 00	 call	 @__security_check_cookie@4
  0002e	8b 4a fc	 mov	 ecx, DWORD PTR [edx-4]
  00031	33 c8		 xor	 ecx, eax
  00033	e8 00 00 00 00	 call	 @__security_check_cookie@4
  00038	b8 00 00 00 00	 mov	 eax, OFFSET __ehfuncinfo$?LoadRemoveItem@@YAHPBD@Z
  0003d	e9 00 00 00 00	 jmp	 ___CxxFrameHandler3
text$x	ENDS
?LoadRemoveItem@@YAHPBD@Z ENDP				; LoadRemoveItem
; Function compile flags: /Ogtp
; File C:\IAGOS\server\v18\Source\Source\DatabaseServer\DatabaseServer.cpp
; File C:\Program Files\Microsoft Visual Studio\2022\Professional\VC\Tools\MSVC\14.44.35207\atlmfc\include\cstringt.h
; File C:\IAGOS\server\v18\Source\Source\DatabaseServer\DatabaseServer.cpp
; File C:\Program Files\Microsoft Visual Studio\2022\Professional\VC\Tools\MSVC\14.44.35207\atlmfc\include\cstringt.h
; File C:\IAGOS\server\v18\Source\Source\DatabaseServer\DatabaseServer.cpp
; File C:\Program Files\Microsoft Visual Studio\2022\Professional\VC\Tools\MSVC\14.44.35207\atlmfc\include\cstringt.h
; File C:\IAGOS\server\v18\Source\Source\DatabaseServer\DatabaseServer.cpp
; File C:\Program Files\Microsoft Visual Studio\2022\Professional\VC\Tools\MSVC\14.44.35207\atlmfc\include\cstringt.h
; File C:\IAGOS\server\v18\Source\Source\DatabaseServer\DatabaseServer.cpp
; File C:\Program Files\Microsoft Visual Studio\2022\Professional\VC\Tools\MSVC\14.44.35207\atlmfc\include\atlsimpstr.h
; File C:\IAGOS\server\v18\Source\Source\DatabaseServer\DatabaseServer.cpp
; File C:\Program Files\Microsoft Visual Studio\2022\Professional\VC\Tools\MSVC\14.44.35207\atlmfc\include\cstringt.h
; File C:\IAGOS\server\v18\Source\Source\DatabaseServer\DatabaseServer.cpp
; File C:\Program Files\Microsoft Visual Studio\2022\Professional\VC\Tools\MSVC\14.44.35207\atlmfc\include\atlsimpstr.h
; File C:\IAGOS\server\v18\Source\Source\DatabaseServer\DatabaseServer.cpp
; File C:\Program Files\Microsoft Visual Studio\2022\Professional\VC\Tools\MSVC\14.44.35207\atlmfc\include\cstringt.h
; File C:\IAGOS\server\v18\Source\Source\DatabaseServer\DatabaseServer.cpp
; File C:\Program Files\Microsoft Visual Studio\2022\Professional\VC\Tools\MSVC\14.44.35207\atlmfc\include\atlsimpstr.h
; File C:\IAGOS\server\v18\Source\Source\DatabaseServer\DatabaseServer.cpp
; File C:\Program Files\Microsoft Visual Studio\2022\Professional\VC\Tools\MSVC\14.44.35207\atlmfc\include\cstringt.h
; File C:\IAGOS\server\v18\Source\Source\DatabaseServer\DatabaseServer.cpp
; File C:\Program Files\Microsoft Visual Studio\2022\Professional\VC\Tools\MSVC\14.44.35207\atlmfc\include\atlsimpstr.h
; File C:\IAGOS\server\v18\Source\Source\DatabaseServer\DatabaseServer.cpp
; File C:\Program Files\Microsoft Visual Studio\2022\Professional\VC\Tools\MSVC\14.44.35207\atlmfc\include\cstringt.h
; File C:\IAGOS\server\v18\Source\Source\DatabaseServer\DatabaseServer.cpp
; File C:\Program Files\Microsoft Visual Studio\2022\Professional\VC\Tools\MSVC\14.44.35207\atlmfc\include\atlsimpstr.h
; File C:\IAGOS\server\v18\Source\Source\DatabaseServer\DatabaseServer.cpp
; File C:\Program Files\Microsoft Visual Studio\2022\Professional\VC\Tools\MSVC\14.44.35207\atlmfc\include\cstringt.h
; File C:\IAGOS\server\v18\Source\Source\DatabaseServer\DatabaseServer.cpp
; File C:\Program Files\Microsoft Visual Studio\2022\Professional\VC\Tools\MSVC\14.44.35207\atlmfc\include\atlsimpstr.h
; File C:\IAGOS\server\v18\Source\Source\DatabaseServer\DatabaseServer.cpp
; File C:\Program Files\Microsoft Visual Studio\2022\Professional\VC\Tools\MSVC\14.44.35207\atlmfc\include\cstringt.h
; File C:\IAGOS\server\v18\Source\Source\DatabaseServer\DatabaseServer.cpp
; File C:\Program Files\Microsoft Visual Studio\2022\Professional\VC\Tools\MSVC\14.44.35207\atlmfc\include\atlsimpstr.h
; File C:\IAGOS\server\v18\Source\Source\DatabaseServer\DatabaseServer.cpp
; File C:\Program Files\Microsoft Visual Studio\2022\Professional\VC\Tools\MSVC\14.44.35207\atlmfc\include\cstringt.h
; File C:\IAGOS\server\v18\Source\Source\DatabaseServer\DatabaseServer.cpp
; File C:\Program Files\Microsoft Visual Studio\2022\Professional\VC\Tools\MSVC\14.44.35207\atlmfc\include\cstringt.h
; File C:\IAGOS\server\v18\Source\Source\DatabaseServer\DatabaseServer.cpp
; File C:\Program Files\Microsoft Visual Studio\2022\Professional\VC\Tools\MSVC\14.44.35207\atlmfc\include\atlsimpstr.h
; File C:\IAGOS\server\v18\Source\Source\DatabaseServer\DatabaseServer.cpp
; File C:\Program Files\Microsoft Visual Studio\2022\Professional\VC\Tools\MSVC\14.44.35207\atlmfc\include\cstringt.h
; File C:\IAGOS\server\v18\Source\Source\DatabaseServer\DatabaseServer.cpp
; File C:\Program Files\Microsoft Visual Studio\2022\Professional\VC\Tools\MSVC\14.44.35207\atlmfc\include\atlsimpstr.h
; File C:\IAGOS\server\v18\Source\Source\DatabaseServer\DatabaseServer.cpp
; File C:\Program Files\Microsoft Visual Studio\2022\Professional\VC\Tools\MSVC\14.44.35207\atlmfc\include\cstringt.h
; File C:\IAGOS\server\v18\Source\Source\DatabaseServer\DatabaseServer.cpp
; File C:\Program Files\Microsoft Visual Studio\2022\Professional\VC\Tools\MSVC\14.44.35207\atlmfc\include\cstringt.h
; File C:\IAGOS\server\v18\Source\Source\DatabaseServer\DatabaseServer.cpp
; File C:\Program Files\Microsoft Visual Studio\2022\Professional\VC\Tools\MSVC\14.44.35207\atlmfc\include\cstringt.h
; File C:\IAGOS\server\v18\Source\Source\DatabaseServer\DatabaseServer.cpp
; File C:\Program Files\Microsoft Visual Studio\2022\Professional\VC\Tools\MSVC\14.44.35207\atlmfc\include\cstringt.h
; File C:\IAGOS\server\v18\Source\Source\DatabaseServer\DatabaseServer.cpp
; File C:\Program Files\Microsoft Visual Studio\2022\Professional\VC\Tools\MSVC\14.44.35207\atlmfc\include\cstringt.h
; File C:\IAGOS\server\v18\Source\Source\DatabaseServer\DatabaseServer.cpp
; File C:\Program Files\Microsoft Visual Studio\2022\Professional\VC\Tools\MSVC\14.44.35207\atlmfc\include\cstringt.h
; File C:\IAGOS\server\v18\Source\Source\DatabaseServer\DatabaseServer.cpp
; File C:\Program Files\Microsoft Visual Studio\2022\Professional\VC\Tools\MSVC\14.44.35207\atlmfc\include\cstringt.h
; File C:\IAGOS\server\v18\Source\Source\DatabaseServer\DatabaseServer.cpp
; File C:\Program Files\Microsoft Visual Studio\2022\Professional\VC\Tools\MSVC\14.44.35207\atlmfc\include\cstringt.h
; File C:\IAGOS\server\v18\Source\Source\DatabaseServer\DatabaseServer.cpp
; File C:\Program Files\Microsoft Visual Studio\2022\Professional\VC\Tools\MSVC\14.44.35207\atlmfc\include\cstringt.h
; File C:\IAGOS\server\v18\Source\Source\DatabaseServer\DatabaseServer.cpp
; File C:\Program Files\Microsoft Visual Studio\2022\Professional\VC\Tools\MSVC\14.44.35207\atlmfc\include\cstringt.h
; File C:\IAGOS\server\v18\Source\Source\DatabaseServer\DatabaseServer.cpp
; File C:\Program Files\Microsoft Visual Studio\2022\Professional\VC\Tools\MSVC\14.44.35207\atlmfc\include\cstringt.h
; File C:\IAGOS\server\v18\Source\Source\DatabaseServer\DatabaseServer.cpp
; File C:\Program Files\Microsoft Visual Studio\2022\Professional\VC\Tools\MSVC\14.44.35207\atlmfc\include\cstringt.h
; File C:\IAGOS\server\v18\Source\Source\DatabaseServer\DatabaseServer.cpp
; File C:\Program Files\Microsoft Visual Studio\2022\Professional\VC\Tools\MSVC\14.44.35207\atlmfc\include\cstringt.h
; File C:\IAGOS\server\v18\Source\Source\DatabaseServer\DatabaseServer.cpp
; File C:\Program Files\Microsoft Visual Studio\2022\Professional\VC\Tools\MSVC\14.44.35207\atlmfc\include\cstringt.h
; File C:\IAGOS\server\v18\Source\Source\DatabaseServer\DatabaseServer.cpp
; File C:\Program Files\Microsoft Visual Studio\2022\Professional\VC\Tools\MSVC\14.44.35207\atlmfc\include\cstringt.h
; File C:\IAGOS\server\v18\Source\Source\DatabaseServer\DatabaseServer.cpp
; File C:\Program Files\Microsoft Visual Studio\2022\Professional\VC\Tools\MSVC\14.44.35207\atlmfc\include\cstringt.h
; File C:\IAGOS\server\v18\Source\Source\DatabaseServer\DatabaseServer.cpp
; File C:\Program Files\Microsoft Visual Studio\2022\Professional\VC\Tools\MSVC\14.44.35207\atlmfc\include\cstringt.h
; File C:\IAGOS\server\v18\Source\Source\DatabaseServer\DatabaseServer.cpp
;	COMDAT ?Script@@YAHPBD@Z
_TEXT	SEGMENT
_bToolRestorePet$1$ = -2160				; size = 4
_bToolItemId$1$ = -2156					; size = 4
_s$ = -2152						; size = 2136
__$ArrayPad$ = -16					; size = 4
__$EHRec$ = -12						; size = 12
_lpszFileName$ = 8					; size = 4
?Script@@YAHPBD@Z PROC					; Script, COMDAT

; 612  : {

  00000	55		 push	 ebp
  00001	8b ec		 mov	 ebp, esp
  00003	6a ff		 push	 -1
  00005	68 00 00 00 00	 push	 __ehhandler$?Script@@YAHPBD@Z
  0000a	64 a1 00 00 00
	00		 mov	 eax, DWORD PTR fs:0
  00010	50		 push	 eax
  00011	81 ec 64 08 00
	00		 sub	 esp, 2148		; 00000864H
  00017	a1 00 00 00 00	 mov	 eax, DWORD PTR ___security_cookie
  0001c	33 c5		 xor	 eax, ebp
  0001e	89 45 f0	 mov	 DWORD PTR __$ArrayPad$[ebp], eax
  00021	53		 push	 ebx
  00022	56		 push	 esi
  00023	57		 push	 edi
  00024	50		 push	 eax
  00025	8d 45 f4	 lea	 eax, DWORD PTR __$EHRec$[ebp]
  00028	64 a3 00 00 00
	00		 mov	 DWORD PTR fs:0, eax
  0002e	8b 75 08	 mov	 esi, DWORD PTR _lpszFileName$[ebp]

; 613  : 	CDbManager& db = CDbManager::GetInstance();

  00031	e8 00 00 00 00	 call	 ?GetInstance@CDbManager@@SAAAV1@XZ ; CDbManager::GetInstance

; 614  : #ifdef __INTERNALSERVER
; 615  : 	strcpy( db.DB_ADMIN_PASS_LOG, "#^#^log" );	
; 616  : 	strcpy( db.DB_ADMIN_PASS_CHARACTER01, "#^#^character");	
; 617  : 	strcpy( db.DB_ADMIN_PASS_BACKSYSTEM, "!@!@backend" );	
; 618  : 	strcpy( db.DB_ADMIN_PASS_ITEMUPDATE, "#^#^item" ); 
; 619  : #endif
; 620  : 	BOOL	bToolRemoveQuest	= FALSE;

  00036	33 db		 xor	 ebx, ebx

; 621  : 	BOOL	bToolItemId		= FALSE;
; 622  : 	BOOL	bToolRestorePet	= FALSE;
; 623  : 	CScanner s;

  00038	8d 8d 98 f7 ff
	ff		 lea	 ecx, DWORD PTR _s$[ebp]
  0003e	53		 push	 ebx
  0003f	8b f8		 mov	 edi, eax
  00041	89 9d 94 f7 ff
	ff		 mov	 DWORD PTR _bToolItemId$1$[ebp], ebx
  00047	89 9d 90 f7 ff
	ff		 mov	 DWORD PTR _bToolRestorePet$1$[ebp], ebx
  0004d	e8 00 00 00 00	 call	 ??0CScanner@@QAE@H@Z	; CScanner::CScanner

; 624  : 
; 625  : 	if( s.Load( lpszFileName ) )

  00052	6a 01		 push	 1
  00054	56		 push	 esi
  00055	8d 8d 98 f7 ff
	ff		 lea	 ecx, DWORD PTR _s$[ebp]
  0005b	89 5d fc	 mov	 DWORD PTR __$EHRec$[ebp+8], ebx
  0005e	e8 00 00 00 00	 call	 ?Load@CScanner@@QAEHPBDH@Z ; CScanner::Load
  00063	85 c0		 test	 eax, eax
  00065	0f 84 6b 07 00
	00		 je	 $LN66@Script

; 626  : 	{
; 627  : 		s.GetToken();

  0006b	53		 push	 ebx
  0006c	8d 8d 98 f7 ff
	ff		 lea	 ecx, DWORD PTR _s$[ebp]
  00072	e8 00 00 00 00	 call	 ?GetToken@CScanner@@UAEHH@Z ; CScanner::GetToken

; 628  : 		while( s.tok != FINISHED )

  00077	83 7d dc 15	 cmp	 DWORD PTR _s$[ebp+2116], 21 ; 00000015H
  0007b	8b 35 00 00 00
	00		 mov	 esi, DWORD PTR __imp__OutputDebugStringA@4
  00081	0f 84 2c 06 00
	00		 je	 $LN644@Script
  00087	66 0f 1f 84 00
	00 00 00 00	 npad	 9
$LL2@Script:
; File C:\Program Files\Microsoft Visual Studio\2022\Professional\VC\Tools\MSVC\14.44.35207\atlmfc\include\cstringt.h

; 184  : 		return _mbscmp( reinterpret_cast< const unsigned char* >( pszA ), reinterpret_cast< const unsigned char* >( pszB ) );

  00090	68 00 00 00 00	 push	 OFFSET ??_C@_0P@LOHDAGAN@ResourceFolder@
  00095	ff b5 b8 f7 ff
	ff		 push	 DWORD PTR _s$[ebp+32]
  0009b	e8 00 00 00 00	 call	 __mbscmp
  000a0	83 c4 08	 add	 esp, 8

; 2490 : 		return(str1.Compare(psz2) == 0);

  000a3	85 c0		 test	 eax, eax
; File C:\IAGOS\server\v18\Source\Source\DatabaseServer\DatabaseServer.cpp

; 630  : 			if( s.Token == "ResourceFolder" )

  000a5	75 30		 jne	 SHORT $LN117@Script

; 631  : 			{
; 632  : 				s.GetToken();

  000a7	50		 push	 eax
  000a8	8d 8d 98 f7 ff
	ff		 lea	 ecx, DWORD PTR _s$[ebp]
  000ae	e8 00 00 00 00	 call	 ?GetToken@CScanner@@UAEHH@Z ; CScanner::GetToken

; 633  : 				if( !SetCurrentDirectory( s.Token ) )

  000b3	ff b5 b8 f7 ff
	ff		 push	 DWORD PTR _s$[ebp+32]
  000b9	ff 15 00 00 00
	00		 call	 DWORD PTR __imp__SetCurrentDirectoryA@4
  000bf	85 c0		 test	 eax, eax
  000c1	0f 85 d5 05 00
	00		 jne	 $LN64@Script

; 634  : 				{
; 635  : 					g_MyTrace.Add( CMyTrace::Key( "status" ), FALSE, "Folder not found, %s", s.Token );

  000c7	ff b5 b8 f7 ff
	ff		 push	 DWORD PTR _s$[ebp+32]
  000cd	68 00 00 00 00	 push	 OFFSET ??_C@_0BF@HNCPIIMN@Folder?5not?5found?0?5?$CFs@
  000d2	e9 05 07 00 00	 jmp	 $LN667@Script
$LN117@Script:
; File C:\Program Files\Microsoft Visual Studio\2022\Professional\VC\Tools\MSVC\14.44.35207\atlmfc\include\cstringt.h

; 184  : 		return _mbscmp( reinterpret_cast< const unsigned char* >( pszA ), reinterpret_cast< const unsigned char* >( pszB ) );

  000d7	68 00 00 00 00	 push	 OFFSET ??_C@_03FIDBPJEF@Sys@
  000dc	ff b5 b8 f7 ff
	ff		 push	 DWORD PTR _s$[ebp+32]
  000e2	e8 00 00 00 00	 call	 __mbscmp
  000e7	83 c4 08	 add	 esp, 8

; 2490 : 		return(str1.Compare(psz2) == 0);

  000ea	85 c0		 test	 eax, eax
; File C:\IAGOS\server\v18\Source\Source\DatabaseServer\DatabaseServer.cpp

; 639  : 			else if( s.Token == "Sys" )

  000ec	75 16		 jne	 SHORT $LN133@Script

; 640  : 			{
; 641  : 				g_appInfo.dwSys		= s.GetNumber();

  000ee	50		 push	 eax
  000ef	8d 8d 98 f7 ff
	ff		 lea	 ecx, DWORD PTR _s$[ebp]
  000f5	e8 00 00 00 00	 call	 ?GetNumber@CScanner@@QAEHH@Z ; CScanner::GetNumber
  000fa	a3 00 00 00 00	 mov	 DWORD PTR ?g_appInfo@@3UAppInfo@@A, eax

; 642  : 			}

  000ff	e9 98 05 00 00	 jmp	 $LN64@Script
$LN133@Script:
; File C:\Program Files\Microsoft Visual Studio\2022\Professional\VC\Tools\MSVC\14.44.35207\atlmfc\include\cstringt.h

; 184  : 		return _mbscmp( reinterpret_cast< const unsigned char* >( pszA ), reinterpret_cast< const unsigned char* >( pszB ) );

  00104	68 00 00 00 00	 push	 OFFSET ??_C@_04NNFNFJKG@dwId@
  00109	ff b5 b8 f7 ff
	ff		 push	 DWORD PTR _s$[ebp+32]
  0010f	e8 00 00 00 00	 call	 __mbscmp
  00114	83 c4 08	 add	 esp, 8

; 2490 : 		return(str1.Compare(psz2) == 0);

  00117	85 c0		 test	 eax, eax
; File C:\IAGOS\server\v18\Source\Source\DatabaseServer\DatabaseServer.cpp

; 643  : 			else if( s.Token ==  "dwId" )

  00119	75 16		 jne	 SHORT $LN149@Script

; 644  : 			{
; 645  : 				g_appInfo.dwId		= s.GetNumber();

  0011b	50		 push	 eax
  0011c	8d 8d 98 f7 ff
	ff		 lea	 ecx, DWORD PTR _s$[ebp]
  00122	e8 00 00 00 00	 call	 ?GetNumber@CScanner@@QAEHH@Z ; CScanner::GetNumber
  00127	a3 04 00 00 00	 mov	 DWORD PTR ?g_appInfo@@3UAppInfo@@A+4, eax

; 646  : 			}

  0012c	e9 6b 05 00 00	 jmp	 $LN64@Script
$LN149@Script:
; File C:\Program Files\Microsoft Visual Studio\2022\Professional\VC\Tools\MSVC\14.44.35207\atlmfc\include\cstringt.h

; 184  : 		return _mbscmp( reinterpret_cast< const unsigned char* >( pszA ), reinterpret_cast< const unsigned char* >( pszB ) );

  00131	68 00 00 00 00	 push	 OFFSET ??_C@_07FENCDID@Account@
  00136	ff b5 b8 f7 ff
	ff		 push	 DWORD PTR _s$[ebp+32]
  0013c	e8 00 00 00 00	 call	 __mbscmp
  00141	83 c4 08	 add	 esp, 8

; 2490 : 		return(str1.Compare(psz2) == 0);

  00144	85 c0		 test	 eax, eax
; File C:\IAGOS\server\v18\Source\Source\DatabaseServer\DatabaseServer.cpp

; 647  : 			else if( s.Token == "Account" )

  00146	75 2b		 jne	 SHORT $LN167@Script

; 649  : 				s.GetToken();

  00148	50		 push	 eax
  00149	8d 8d 98 f7 ff
	ff		 lea	 ecx, DWORD PTR _s$[ebp]
  0014f	e8 00 00 00 00	 call	 ?GetToken@CScanner@@UAEHH@Z ; CScanner::GetToken
; File C:\Program Files\Microsoft Visual Studio\2022\Professional\VC\Tools\MSVC\14.44.35207\atlmfc\include\atlsimpstr.h

; 381  : 		return( m_pszData );

  00154	8b 8d b8 f7 ff
	ff		 mov	 ecx, DWORD PTR _s$[ebp+32]
; File C:\IAGOS\server\v18\Source\Source\DatabaseServer\DatabaseServer.cpp

; 649  : 				s.GetToken();

  0015a	ba 00 00 00 00	 mov	 edx, OFFSET ?lpConnection@@3PADA ; lpConnection
  0015f	2b d1		 sub	 edx, ecx
$LL75@Script:

; 650  : 				strcpy( lpConnection, s.Token );

  00161	8a 01		 mov	 al, BYTE PTR [ecx]
  00163	8d 49 01	 lea	 ecx, DWORD PTR [ecx+1]
  00166	88 44 0a ff	 mov	 BYTE PTR [edx+ecx-1], al
  0016a	84 c0		 test	 al, al
  0016c	75 f3		 jne	 SHORT $LL75@Script

; 651  : 			}

  0016e	e9 29 05 00 00	 jmp	 $LN64@Script
$LN167@Script:
; File C:\Program Files\Microsoft Visual Studio\2022\Professional\VC\Tools\MSVC\14.44.35207\atlmfc\include\cstringt.h

; 184  : 		return _mbscmp( reinterpret_cast< const unsigned char* >( pszA ), reinterpret_cast< const unsigned char* >( pszB ) );

  00173	68 00 00 00 00	 push	 OFFSET ??_C@_0BD@MHKJENCN@DSN_NAME_CHARACTER@
  00178	ff b5 b8 f7 ff
	ff		 push	 DWORD PTR _s$[ebp+32]
  0017e	e8 00 00 00 00	 call	 __mbscmp
  00183	83 c4 08	 add	 esp, 8

; 2490 : 		return(str1.Compare(psz2) == 0);

  00186	85 c0		 test	 eax, eax
; File C:\IAGOS\server\v18\Source\Source\DatabaseServer\DatabaseServer.cpp

; 652  : 			else if( s.Token == "DSN_NAME_CHARACTER" )

  00188	75 2b		 jne	 SHORT $LN185@Script

; 654  : 				s.GetToken();

  0018a	50		 push	 eax
  0018b	8d 8d 98 f7 ff
	ff		 lea	 ecx, DWORD PTR _s$[ebp]
  00191	e8 00 00 00 00	 call	 ?GetToken@CScanner@@UAEHH@Z ; CScanner::GetToken
; File C:\Program Files\Microsoft Visual Studio\2022\Professional\VC\Tools\MSVC\14.44.35207\atlmfc\include\atlsimpstr.h

; 381  : 		return( m_pszData );

  00196	8b 8d b8 f7 ff
	ff		 mov	 ecx, DWORD PTR _s$[ebp+32]
; File C:\IAGOS\server\v18\Source\Source\DatabaseServer\DatabaseServer.cpp

; 654  : 				s.GetToken();

  0019c	ba 00 00 00 00	 mov	 edx, OFFSET ?DSN_NAME_CHARACTER01@@3PADA ; DSN_NAME_CHARACTER01
  001a1	2b d1		 sub	 edx, ecx
$LL76@Script:

; 655  : 				strcpy( DSN_NAME_CHARACTER01, s.Token );

  001a3	8a 01		 mov	 al, BYTE PTR [ecx]
  001a5	8d 49 01	 lea	 ecx, DWORD PTR [ecx+1]
  001a8	88 44 0a ff	 mov	 BYTE PTR [edx+ecx-1], al
  001ac	84 c0		 test	 al, al
  001ae	75 f3		 jne	 SHORT $LL76@Script

; 656  : 			}

  001b0	e9 e7 04 00 00	 jmp	 $LN64@Script
$LN185@Script:
; File C:\Program Files\Microsoft Visual Studio\2022\Professional\VC\Tools\MSVC\14.44.35207\atlmfc\include\cstringt.h

; 184  : 		return _mbscmp( reinterpret_cast< const unsigned char* >( pszA ), reinterpret_cast< const unsigned char* >( pszB ) );

  001b5	68 00 00 00 00	 push	 OFFSET ??_C@_0BG@HLPNCKNG@DB_ADMIN_ID_CHARACTER@
  001ba	ff b5 b8 f7 ff
	ff		 push	 DWORD PTR _s$[ebp+32]
  001c0	e8 00 00 00 00	 call	 __mbscmp
  001c5	83 c4 08	 add	 esp, 8

; 2490 : 		return(str1.Compare(psz2) == 0);

  001c8	85 c0		 test	 eax, eax
; File C:\IAGOS\server\v18\Source\Source\DatabaseServer\DatabaseServer.cpp

; 657  : 			else if( s.Token == "DB_ADMIN_ID_CHARACTER" )

  001ca	75 2b		 jne	 SHORT $LN203@Script

; 659  : 				s.GetToken();

  001cc	50		 push	 eax
  001cd	8d 8d 98 f7 ff
	ff		 lea	 ecx, DWORD PTR _s$[ebp]
  001d3	e8 00 00 00 00	 call	 ?GetToken@CScanner@@UAEHH@Z ; CScanner::GetToken
; File C:\Program Files\Microsoft Visual Studio\2022\Professional\VC\Tools\MSVC\14.44.35207\atlmfc\include\atlsimpstr.h

; 381  : 		return( m_pszData );

  001d8	8b 8d b8 f7 ff
	ff		 mov	 ecx, DWORD PTR _s$[ebp+32]
; File C:\IAGOS\server\v18\Source\Source\DatabaseServer\DatabaseServer.cpp

; 659  : 				s.GetToken();

  001de	ba 00 00 00 00	 mov	 edx, OFFSET ?DB_ADMIN_ID_CHARACTER01@@3PADA ; DB_ADMIN_ID_CHARACTER01
  001e3	2b d1		 sub	 edx, ecx
$LL77@Script:

; 660  : 				strcpy( DB_ADMIN_ID_CHARACTER01, s.Token );

  001e5	8a 01		 mov	 al, BYTE PTR [ecx]
  001e7	8d 49 01	 lea	 ecx, DWORD PTR [ecx+1]
  001ea	88 44 0a ff	 mov	 BYTE PTR [edx+ecx-1], al
  001ee	84 c0		 test	 al, al
  001f0	75 f3		 jne	 SHORT $LL77@Script

; 661  : 			}

  001f2	e9 a5 04 00 00	 jmp	 $LN64@Script
$LN203@Script:
; File C:\Program Files\Microsoft Visual Studio\2022\Professional\VC\Tools\MSVC\14.44.35207\atlmfc\include\cstringt.h

; 184  : 		return _mbscmp( reinterpret_cast< const unsigned char* >( pszA ), reinterpret_cast< const unsigned char* >( pszB ) );

  001f7	68 00 00 00 00	 push	 OFFSET ??_C@_0N@CMCKBMLA@DSN_NAME_LOG@
  001fc	ff b5 b8 f7 ff
	ff		 push	 DWORD PTR _s$[ebp+32]
  00202	e8 00 00 00 00	 call	 __mbscmp
  00207	83 c4 08	 add	 esp, 8

; 2490 : 		return(str1.Compare(psz2) == 0);

  0020a	85 c0		 test	 eax, eax
; File C:\IAGOS\server\v18\Source\Source\DatabaseServer\DatabaseServer.cpp

; 662  : 			else if( s.Token == "DSN_NAME_LOG" )

  0020c	75 2b		 jne	 SHORT $LN221@Script

; 664  : 				s.GetToken();

  0020e	50		 push	 eax
  0020f	8d 8d 98 f7 ff
	ff		 lea	 ecx, DWORD PTR _s$[ebp]
  00215	e8 00 00 00 00	 call	 ?GetToken@CScanner@@UAEHH@Z ; CScanner::GetToken
; File C:\Program Files\Microsoft Visual Studio\2022\Professional\VC\Tools\MSVC\14.44.35207\atlmfc\include\atlsimpstr.h

; 381  : 		return( m_pszData );

  0021a	8b 8d b8 f7 ff
	ff		 mov	 ecx, DWORD PTR _s$[ebp+32]
; File C:\IAGOS\server\v18\Source\Source\DatabaseServer\DatabaseServer.cpp

; 664  : 				s.GetToken();

  00220	ba 00 00 00 00	 mov	 edx, OFFSET ?DSN_NAME_LOG@@3PADA ; DSN_NAME_LOG
  00225	2b d1		 sub	 edx, ecx
$LL78@Script:

; 665  : 				strcpy( DSN_NAME_LOG, s.Token );

  00227	8a 01		 mov	 al, BYTE PTR [ecx]
  00229	8d 49 01	 lea	 ecx, DWORD PTR [ecx+1]
  0022c	88 44 0a ff	 mov	 BYTE PTR [edx+ecx-1], al
  00230	84 c0		 test	 al, al
  00232	75 f3		 jne	 SHORT $LL78@Script

; 666  : 			}

  00234	e9 63 04 00 00	 jmp	 $LN64@Script
$LN221@Script:
; File C:\Program Files\Microsoft Visual Studio\2022\Professional\VC\Tools\MSVC\14.44.35207\atlmfc\include\cstringt.h

; 184  : 		return _mbscmp( reinterpret_cast< const unsigned char* >( pszA ), reinterpret_cast< const unsigned char* >( pszB ) );

  00239	68 00 00 00 00	 push	 OFFSET ??_C@_0BA@KGJHOKPM@DB_ADMIN_ID_LOG@
  0023e	ff b5 b8 f7 ff
	ff		 push	 DWORD PTR _s$[ebp+32]
  00244	e8 00 00 00 00	 call	 __mbscmp
  00249	83 c4 08	 add	 esp, 8

; 2490 : 		return(str1.Compare(psz2) == 0);

  0024c	85 c0		 test	 eax, eax
; File C:\IAGOS\server\v18\Source\Source\DatabaseServer\DatabaseServer.cpp

; 667  : 			else if( s.Token == "DB_ADMIN_ID_LOG" )

  0024e	75 32		 jne	 SHORT $LN239@Script

; 669  : 				s.GetToken();

  00250	50		 push	 eax
  00251	8d 8d 98 f7 ff
	ff		 lea	 ecx, DWORD PTR _s$[ebp]
  00257	e8 00 00 00 00	 call	 ?GetToken@CScanner@@UAEHH@Z ; CScanner::GetToken
; File C:\Program Files\Microsoft Visual Studio\2022\Professional\VC\Tools\MSVC\14.44.35207\atlmfc\include\atlsimpstr.h

; 381  : 		return( m_pszData );

  0025c	8b 8d b8 f7 ff
	ff		 mov	 ecx, DWORD PTR _s$[ebp+32]
; File C:\IAGOS\server\v18\Source\Source\DatabaseServer\DatabaseServer.cpp

; 669  : 				s.GetToken();

  00262	ba 00 00 00 00	 mov	 edx, OFFSET ?DB_ADMIN_ID_LOG@@3PADA ; DB_ADMIN_ID_LOG
  00267	2b d1		 sub	 edx, ecx
  00269	0f 1f 80 00 00
	00 00		 npad	 7
$LL79@Script:

; 670  : 				strcpy( DB_ADMIN_ID_LOG, s.Token );

  00270	8a 01		 mov	 al, BYTE PTR [ecx]
  00272	8d 49 01	 lea	 ecx, DWORD PTR [ecx+1]
  00275	88 44 0a ff	 mov	 BYTE PTR [edx+ecx-1], al
  00279	84 c0		 test	 al, al
  0027b	75 f3		 jne	 SHORT $LL79@Script

; 671  : 			}

  0027d	e9 1a 04 00 00	 jmp	 $LN64@Script
$LN239@Script:
; File C:\Program Files\Microsoft Visual Studio\2022\Professional\VC\Tools\MSVC\14.44.35207\atlmfc\include\cstringt.h

; 184  : 		return _mbscmp( reinterpret_cast< const unsigned char* >( pszA ), reinterpret_cast< const unsigned char* >( pszB ) );

  00282	68 00 00 00 00	 push	 OFFSET ??_C@_0BE@GBLGMHPJ@DSN_NAME_BACKSYSTEM@
  00287	ff b5 b8 f7 ff
	ff		 push	 DWORD PTR _s$[ebp+32]
  0028d	e8 00 00 00 00	 call	 __mbscmp
  00292	83 c4 08	 add	 esp, 8

; 2490 : 		return(str1.Compare(psz2) == 0);

  00295	85 c0		 test	 eax, eax
; File C:\IAGOS\server\v18\Source\Source\DatabaseServer\DatabaseServer.cpp

; 673  : 			else if( s.Token == "DSN_NAME_BACKSYSTEM" )

  00297	75 2b		 jne	 SHORT $LN257@Script

; 675  : 				s.GetToken();

  00299	50		 push	 eax
  0029a	8d 8d 98 f7 ff
	ff		 lea	 ecx, DWORD PTR _s$[ebp]
  002a0	e8 00 00 00 00	 call	 ?GetToken@CScanner@@UAEHH@Z ; CScanner::GetToken
; File C:\Program Files\Microsoft Visual Studio\2022\Professional\VC\Tools\MSVC\14.44.35207\atlmfc\include\atlsimpstr.h

; 381  : 		return( m_pszData );

  002a5	8b 8d b8 f7 ff
	ff		 mov	 ecx, DWORD PTR _s$[ebp+32]
; File C:\IAGOS\server\v18\Source\Source\DatabaseServer\DatabaseServer.cpp

; 675  : 				s.GetToken();

  002ab	ba 00 00 00 00	 mov	 edx, OFFSET ?DSN_NAME_BACKSYSTEM@@3PADA ; DSN_NAME_BACKSYSTEM
  002b0	2b d1		 sub	 edx, ecx
$LL80@Script:

; 676  : 				strcpy( DSN_NAME_BACKSYSTEM, s.Token );

  002b2	8a 01		 mov	 al, BYTE PTR [ecx]
  002b4	8d 49 01	 lea	 ecx, DWORD PTR [ecx+1]
  002b7	88 44 0a ff	 mov	 BYTE PTR [edx+ecx-1], al
  002bb	84 c0		 test	 al, al
  002bd	75 f3		 jne	 SHORT $LL80@Script

; 677  : 			}

  002bf	e9 d8 03 00 00	 jmp	 $LN64@Script
$LN257@Script:
; File C:\Program Files\Microsoft Visual Studio\2022\Professional\VC\Tools\MSVC\14.44.35207\atlmfc\include\cstringt.h

; 184  : 		return _mbscmp( reinterpret_cast< const unsigned char* >( pszA ), reinterpret_cast< const unsigned char* >( pszB ) );

  002c4	68 00 00 00 00	 push	 OFFSET ??_C@_0BH@ELGFLIAK@DB_ADMIN_ID_BACKSYSTEM@
  002c9	ff b5 b8 f7 ff
	ff		 push	 DWORD PTR _s$[ebp+32]
  002cf	e8 00 00 00 00	 call	 __mbscmp
  002d4	83 c4 08	 add	 esp, 8

; 2490 : 		return(str1.Compare(psz2) == 0);

  002d7	85 c0		 test	 eax, eax
; File C:\IAGOS\server\v18\Source\Source\DatabaseServer\DatabaseServer.cpp

; 678  : 			else if( s.Token == "DB_ADMIN_ID_BACKSYSTEM" )

  002d9	75 2b		 jne	 SHORT $LN275@Script

; 680  : 				s.GetToken();

  002db	50		 push	 eax
  002dc	8d 8d 98 f7 ff
	ff		 lea	 ecx, DWORD PTR _s$[ebp]
  002e2	e8 00 00 00 00	 call	 ?GetToken@CScanner@@UAEHH@Z ; CScanner::GetToken
; File C:\Program Files\Microsoft Visual Studio\2022\Professional\VC\Tools\MSVC\14.44.35207\atlmfc\include\atlsimpstr.h

; 381  : 		return( m_pszData );

  002e7	8b 8d b8 f7 ff
	ff		 mov	 ecx, DWORD PTR _s$[ebp+32]
; File C:\IAGOS\server\v18\Source\Source\DatabaseServer\DatabaseServer.cpp

; 680  : 				s.GetToken();

  002ed	ba 00 00 00 00	 mov	 edx, OFFSET ?DB_ADMIN_ID_BACKSYSTEM@@3PADA ; DB_ADMIN_ID_BACKSYSTEM
  002f2	2b d1		 sub	 edx, ecx
$LL81@Script:

; 681  : 				strcpy( DB_ADMIN_ID_BACKSYSTEM, s.Token );

  002f4	8a 01		 mov	 al, BYTE PTR [ecx]
  002f6	8d 49 01	 lea	 ecx, DWORD PTR [ecx+1]
  002f9	88 44 0a ff	 mov	 BYTE PTR [edx+ecx-1], al
  002fd	84 c0		 test	 al, al
  002ff	75 f3		 jne	 SHORT $LL81@Script

; 682  : 			}

  00301	e9 96 03 00 00	 jmp	 $LN64@Script
$LN275@Script:
; File C:\Program Files\Microsoft Visual Studio\2022\Professional\VC\Tools\MSVC\14.44.35207\atlmfc\include\cstringt.h

; 184  : 		return _mbscmp( reinterpret_cast< const unsigned char* >( pszA ), reinterpret_cast< const unsigned char* >( pszB ) );

  00306	68 00 00 00 00	 push	 OFFSET ??_C@_0O@KOOOCHBP@BACKENDSYSTEM@
  0030b	ff b5 b8 f7 ff
	ff		 push	 DWORD PTR _s$[ebp+32]
  00311	e8 00 00 00 00	 call	 __mbscmp
  00316	83 c4 08	 add	 esp, 8

; 2490 : 		return(str1.Compare(psz2) == 0);

  00319	85 c0		 test	 eax, eax
; File C:\IAGOS\server\v18\Source\Source\DatabaseServer\DatabaseServer.cpp

; 683  : 			else if( s.Token == "BACKENDSYSTEM" )

  0031b	75 0f		 jne	 SHORT $LN291@Script

; 684  : 			{
; 685  : 				prj.m_bBackEndSystem = TRUE;

  0031d	c7 05 1c 34 00
	00 01 00 00 00	 mov	 DWORD PTR ?prj@@3VCProject@@A+13340, 1

; 686  : 			}

  00327	e9 70 03 00 00	 jmp	 $LN64@Script
$LN291@Script:
; File C:\Program Files\Microsoft Visual Studio\2022\Professional\VC\Tools\MSVC\14.44.35207\atlmfc\include\cstringt.h

; 184  : 		return _mbscmp( reinterpret_cast< const unsigned char* >( pszA ), reinterpret_cast< const unsigned char* >( pszB ) );

  0032c	68 00 00 00 00	 push	 OFFSET ??_C@_0BE@BCIALBJO@DSN_NAME_ITEMUPDATE@
  00331	ff b5 b8 f7 ff
	ff		 push	 DWORD PTR _s$[ebp+32]
  00337	e8 00 00 00 00	 call	 __mbscmp
  0033c	83 c4 08	 add	 esp, 8

; 2490 : 		return(str1.Compare(psz2) == 0);

  0033f	85 c0		 test	 eax, eax
; File C:\IAGOS\server\v18\Source\Source\DatabaseServer\DatabaseServer.cpp

; 688  : 			else if( s.Token == "DSN_NAME_ITEMUPDATE" )

  00341	75 2f		 jne	 SHORT $LN309@Script

; 690  : 				s.GetToken();

  00343	50		 push	 eax
  00344	8d 8d 98 f7 ff
	ff		 lea	 ecx, DWORD PTR _s$[ebp]
  0034a	e8 00 00 00 00	 call	 ?GetToken@CScanner@@UAEHH@Z ; CScanner::GetToken
; File C:\Program Files\Microsoft Visual Studio\2022\Professional\VC\Tools\MSVC\14.44.35207\atlmfc\include\atlsimpstr.h

; 381  : 		return( m_pszData );

  0034f	8b 8d b8 f7 ff
	ff		 mov	 ecx, DWORD PTR _s$[ebp+32]
; File C:\IAGOS\server\v18\Source\Source\DatabaseServer\DatabaseServer.cpp

; 690  : 				s.GetToken();

  00355	ba 00 00 00 00	 mov	 edx, OFFSET ?DSN_NAME_ITEMUPDATE@@3PADA ; DSN_NAME_ITEMUPDATE
  0035a	2b d1		 sub	 edx, ecx
  0035c	0f 1f 40 00	 npad	 4
$LL82@Script:

; 691  : 				strcpy( DSN_NAME_ITEMUPDATE, s.Token );

  00360	8a 01		 mov	 al, BYTE PTR [ecx]
  00362	8d 49 01	 lea	 ecx, DWORD PTR [ecx+1]
  00365	88 44 0a ff	 mov	 BYTE PTR [edx+ecx-1], al
  00369	84 c0		 test	 al, al
  0036b	75 f3		 jne	 SHORT $LL82@Script

; 692  : 			}

  0036d	e9 2a 03 00 00	 jmp	 $LN64@Script
$LN309@Script:
; File C:\Program Files\Microsoft Visual Studio\2022\Professional\VC\Tools\MSVC\14.44.35207\atlmfc\include\cstringt.h

; 184  : 		return _mbscmp( reinterpret_cast< const unsigned char* >( pszA ), reinterpret_cast< const unsigned char* >( pszB ) );

  00372	68 00 00 00 00	 push	 OFFSET ??_C@_0BH@DIFDMOGN@DB_ADMIN_ID_ITEMUPDATE@
  00377	ff b5 b8 f7 ff
	ff		 push	 DWORD PTR _s$[ebp+32]
  0037d	e8 00 00 00 00	 call	 __mbscmp
  00382	83 c4 08	 add	 esp, 8

; 2490 : 		return(str1.Compare(psz2) == 0);

  00385	85 c0		 test	 eax, eax
; File C:\IAGOS\server\v18\Source\Source\DatabaseServer\DatabaseServer.cpp

; 693  : 			else if( s.Token == "DB_ADMIN_ID_ITEMUPDATE" )

  00387	75 2b		 jne	 SHORT $LN325@Script

; 695  : 				s.GetToken();

  00389	50		 push	 eax
  0038a	8d 8d 98 f7 ff
	ff		 lea	 ecx, DWORD PTR _s$[ebp]
  00390	e8 00 00 00 00	 call	 ?GetToken@CScanner@@UAEHH@Z ; CScanner::GetToken
; File C:\Program Files\Microsoft Visual Studio\2022\Professional\VC\Tools\MSVC\14.44.35207\atlmfc\include\atlsimpstr.h

; 381  : 		return( m_pszData );

  00395	8b 8d b8 f7 ff
	ff		 mov	 ecx, DWORD PTR _s$[ebp+32]
; File C:\IAGOS\server\v18\Source\Source\DatabaseServer\DatabaseServer.cpp

; 695  : 				s.GetToken();

  0039b	ba 00 00 00 00	 mov	 edx, OFFSET ?DB_ADMIN_ID_ITEMUPDATE@@3PADA ; DB_ADMIN_ID_ITEMUPDATE
  003a0	2b d1		 sub	 edx, ecx
$LL83@Script:

; 696  : 				strcpy( DB_ADMIN_ID_ITEMUPDATE, s.Token );

  003a2	8a 01		 mov	 al, BYTE PTR [ecx]
  003a4	8d 49 01	 lea	 ecx, DWORD PTR [ecx+1]
  003a7	88 44 0a ff	 mov	 BYTE PTR [edx+ecx-1], al
  003ab	84 c0		 test	 al, al
  003ad	75 f3		 jne	 SHORT $LL83@Script

; 697  : 			}

  003af	e9 e8 02 00 00	 jmp	 $LN64@Script
$LN325@Script:
; File C:\Program Files\Microsoft Visual Studio\2022\Professional\VC\Tools\MSVC\14.44.35207\atlmfc\include\cstringt.h

; 184  : 		return _mbscmp( reinterpret_cast< const unsigned char* >( pszA ), reinterpret_cast< const unsigned char* >( pszB ) );

  003b4	68 00 00 00 00	 push	 OFFSET ??_C@_0L@LKBMOMCF@ITEMUPDATE@
  003b9	ff b5 b8 f7 ff
	ff		 push	 DWORD PTR _s$[ebp+32]
  003bf	e8 00 00 00 00	 call	 __mbscmp
  003c4	83 c4 08	 add	 esp, 8

; 2490 : 		return(str1.Compare(psz2) == 0);

  003c7	85 c0		 test	 eax, eax
; File C:\IAGOS\server\v18\Source\Source\DatabaseServer\DatabaseServer.cpp

; 698  : 			else if( s.Token == "ITEMUPDATE" )

  003c9	75 0f		 jne	 SHORT $LN343@Script

; 699  : 			{
; 700  : 				prj.m_bItemUpdate = TRUE;

  003cb	c7 05 54 7e 04
	00 01 00 00 00	 mov	 DWORD PTR ?prj@@3VCProject@@A+294484, 1

; 701  : 			}

  003d5	e9 c2 02 00 00	 jmp	 $LN64@Script
$LN343@Script:
; File C:\Program Files\Microsoft Visual Studio\2022\Professional\VC\Tools\MSVC\14.44.35207\atlmfc\include\cstringt.h

; 184  : 		return _mbscmp( reinterpret_cast< const unsigned char* >( pszA ), reinterpret_cast< const unsigned char* >( pszB ) );

  003da	68 00 00 00 00	 push	 OFFSET ??_C@_0O@MKHDOMGP@ConvStartItem@
  003df	ff b5 b8 f7 ff
	ff		 push	 DWORD PTR _s$[ebp+32]
  003e5	e8 00 00 00 00	 call	 __mbscmp
  003ea	83 c4 08	 add	 esp, 8

; 2490 : 		return(str1.Compare(psz2) == 0);

  003ed	85 c0		 test	 eax, eax
; File C:\IAGOS\server\v18\Source\Source\DatabaseServer\DatabaseServer.cpp

; 703  : 			else if( s.Token == "ConvStartItem" )

  003ef	75 11		 jne	 SHORT $LN359@Script

; 704  : 			{
; 705  : 				prj.SetConvMode( CONVER_ITEM_START );

  003f1	6a 01		 push	 1
  003f3	b9 00 00 00 00	 mov	 ecx, OFFSET ?prj@@3VCProject@@A ; prj
  003f8	e8 00 00 00 00	 call	 ?SetConvMode@CProject@@QAEXK@Z ; CProject::SetConvMode

; 706  : 			}

  003fd	e9 9a 02 00 00	 jmp	 $LN64@Script
$LN359@Script:
; File C:\Program Files\Microsoft Visual Studio\2022\Professional\VC\Tools\MSVC\14.44.35207\atlmfc\include\cstringt.h

; 184  : 		return _mbscmp( reinterpret_cast< const unsigned char* >( pszA ), reinterpret_cast< const unsigned char* >( pszB ) );

  00402	68 00 00 00 00	 push	 OFFSET ??_C@_09CCDMIBGH@SAVE_TEXT@
  00407	ff b5 b8 f7 ff
	ff		 push	 DWORD PTR _s$[ebp+32]
  0040d	e8 00 00 00 00	 call	 __mbscmp
  00412	83 c4 08	 add	 esp, 8

; 2490 : 		return(str1.Compare(psz2) == 0);

  00415	85 c0		 test	 eax, eax
; File C:\IAGOS\server\v18\Source\Source\DatabaseServer\DatabaseServer.cpp

; 707  : 			else if( s.Token == "SAVE_TEXT" )

  00417	75 11		 jne	 SHORT $LN375@Script

; 708  : 			{
; 709  : 				prj.SetConvMode( SAVE_TEXT );

  00419	6a 02		 push	 2
  0041b	b9 00 00 00 00	 mov	 ecx, OFFSET ?prj@@3VCProject@@A ; prj
  00420	e8 00 00 00 00	 call	 ?SetConvMode@CProject@@QAEXK@Z ; CProject::SetConvMode

; 710  : 			}

  00425	e9 72 02 00 00	 jmp	 $LN64@Script
$LN375@Script:
; File C:\Program Files\Microsoft Visual Studio\2022\Professional\VC\Tools\MSVC\14.44.35207\atlmfc\include\cstringt.h

; 184  : 		return _mbscmp( reinterpret_cast< const unsigned char* >( pszA ), reinterpret_cast< const unsigned char* >( pszB ) );

  0042a	68 00 00 00 00	 push	 OFFSET ??_C@_0BA@EPDGNAAI@REMOVE_ITEM_ALL@
  0042f	ff b5 b8 f7 ff
	ff		 push	 DWORD PTR _s$[ebp+32]
  00435	e8 00 00 00 00	 call	 __mbscmp
  0043a	83 c4 08	 add	 esp, 8

; 2490 : 		return(str1.Compare(psz2) == 0);

  0043d	85 c0		 test	 eax, eax
; File C:\IAGOS\server\v18\Source\Source\DatabaseServer\DatabaseServer.cpp

; 711  : 			else if( s.Token == "REMOVE_ITEM_ALL" )

  0043f	75 11		 jne	 SHORT $LN391@Script

; 712  : 			{
; 713  : 				prj.SetConvMode( REMOVE_ITEM_ALL );

  00441	6a 04		 push	 4
  00443	b9 00 00 00 00	 mov	 ecx, OFFSET ?prj@@3VCProject@@A ; prj
  00448	e8 00 00 00 00	 call	 ?SetConvMode@CProject@@QAEXK@Z ; CProject::SetConvMode

; 714  : 			}

  0044d	e9 4a 02 00 00	 jmp	 $LN64@Script
$LN391@Script:
; File C:\Program Files\Microsoft Visual Studio\2022\Professional\VC\Tools\MSVC\14.44.35207\atlmfc\include\cstringt.h

; 184  : 		return _mbscmp( reinterpret_cast< const unsigned char* >( pszA ), reinterpret_cast< const unsigned char* >( pszB ) );

  00452	68 00 00 00 00	 push	 OFFSET ??_C@_0BE@EMCNIGPJ@REMOVE_ITEM_ALL_PAY@
  00457	ff b5 b8 f7 ff
	ff		 push	 DWORD PTR _s$[ebp+32]
  0045d	e8 00 00 00 00	 call	 __mbscmp
  00462	83 c4 08	 add	 esp, 8

; 2490 : 		return(str1.Compare(psz2) == 0);

  00465	85 c0		 test	 eax, eax
; File C:\IAGOS\server\v18\Source\Source\DatabaseServer\DatabaseServer.cpp

; 715  : 			else if( s.Token == "REMOVE_ITEM_ALL_PAY" )

  00467	75 11		 jne	 SHORT $LN407@Script

; 716  : 			{
; 717  : 				prj.SetConvMode( REMOVE_ITEM_ALL_PAY );

  00469	6a 08		 push	 8
  0046b	b9 00 00 00 00	 mov	 ecx, OFFSET ?prj@@3VCProject@@A ; prj
  00470	e8 00 00 00 00	 call	 ?SetConvMode@CProject@@QAEXK@Z ; CProject::SetConvMode

; 718  : 			}

  00475	e9 22 02 00 00	 jmp	 $LN64@Script
$LN407@Script:
; File C:\Program Files\Microsoft Visual Studio\2022\Professional\VC\Tools\MSVC\14.44.35207\atlmfc\include\cstringt.h

; 184  : 		return _mbscmp( reinterpret_cast< const unsigned char* >( pszA ), reinterpret_cast< const unsigned char* >( pszB ) );

  0047a	68 00 00 00 00	 push	 OFFSET ??_C@_0BB@HDGGMKPA@PIERCING_CONFIRM@
  0047f	ff b5 b8 f7 ff
	ff		 push	 DWORD PTR _s$[ebp+32]
  00485	e8 00 00 00 00	 call	 __mbscmp
  0048a	83 c4 08	 add	 esp, 8

; 2490 : 		return(str1.Compare(psz2) == 0);

  0048d	85 c0		 test	 eax, eax
; File C:\IAGOS\server\v18\Source\Source\DatabaseServer\DatabaseServer.cpp

; 719  : 			else if( s.Token == "PIERCING_CONFIRM" )

  0048f	75 11		 jne	 SHORT $LN423@Script

; 720  : 			{
; 721  : 				prj.SetConvMode( PIERCING_CONFIRM );

  00491	6a 10		 push	 16			; 00000010H
  00493	b9 00 00 00 00	 mov	 ecx, OFFSET ?prj@@3VCProject@@A ; prj
  00498	e8 00 00 00 00	 call	 ?SetConvMode@CProject@@QAEXK@Z ; CProject::SetConvMode

; 722  : 			}

  0049d	e9 fa 01 00 00	 jmp	 $LN64@Script
$LN423@Script:
; File C:\Program Files\Microsoft Visual Studio\2022\Professional\VC\Tools\MSVC\14.44.35207\atlmfc\include\cstringt.h

; 184  : 		return _mbscmp( reinterpret_cast< const unsigned char* >( pszA ), reinterpret_cast< const unsigned char* >( pszB ) );

  004a2	68 00 00 00 00	 push	 OFFSET ??_C@_0BC@KCBPOKMH@BankToItemSendTbl@
  004a7	ff b5 b8 f7 ff
	ff		 push	 DWORD PTR _s$[ebp+32]
  004ad	e8 00 00 00 00	 call	 __mbscmp
  004b2	83 c4 08	 add	 esp, 8

; 2490 : 		return(str1.Compare(psz2) == 0);

  004b5	85 c0		 test	 eax, eax
; File C:\IAGOS\server\v18\Source\Source\DatabaseServer\DatabaseServer.cpp

; 724  : 			else if( s.Token == "BankToItemSendTbl" )

  004b7	75 0f		 jne	 SHORT $LN439@Script

; 725  : 			{
; 726  : 				m_bBankToItemSendTbl	= TRUE;

  004b9	c7 05 00 00 00
	00 01 00 00 00	 mov	 DWORD PTR ?m_bBankToItemSendTbl@@3HA, 1 ; m_bBankToItemSendTbl

; 727  : 			}

  004c3	e9 d4 01 00 00	 jmp	 $LN64@Script
$LN439@Script:
; File C:\Program Files\Microsoft Visual Studio\2022\Professional\VC\Tools\MSVC\14.44.35207\atlmfc\include\cstringt.h

; 184  : 		return _mbscmp( reinterpret_cast< const unsigned char* >( pszA ), reinterpret_cast< const unsigned char* >( pszB ) );

  004c8	68 00 00 00 00	 push	 OFFSET ??_C@_0BH@BEBEMMJA@InventoryToItemSendTbl@
  004cd	ff b5 b8 f7 ff
	ff		 push	 DWORD PTR _s$[ebp+32]
  004d3	e8 00 00 00 00	 call	 __mbscmp
  004d8	83 c4 08	 add	 esp, 8

; 2490 : 		return(str1.Compare(psz2) == 0);

  004db	85 c0		 test	 eax, eax
; File C:\IAGOS\server\v18\Source\Source\DatabaseServer\DatabaseServer.cpp

; 728  : 			else if( s.Token == "InventoryToItemSendTbl" )

  004dd	75 0f		 jne	 SHORT $LN455@Script

; 729  : 			{
; 730  : 				m_bInventoryToItemSendTbl	= TRUE;

  004df	c7 05 00 00 00
	00 01 00 00 00	 mov	 DWORD PTR ?m_bInventoryToItemSendTbl@@3HA, 1 ; m_bInventoryToItemSendTbl

; 731  : 			}

  004e9	e9 ae 01 00 00	 jmp	 $LN64@Script
$LN455@Script:
; File C:\Program Files\Microsoft Visual Studio\2022\Professional\VC\Tools\MSVC\14.44.35207\atlmfc\include\cstringt.h

; 184  : 		return _mbscmp( reinterpret_cast< const unsigned char* >( pszA ), reinterpret_cast< const unsigned char* >( pszB ) );

  004ee	68 00 00 00 00	 push	 OFFSET ??_C@_0BC@EDCGHAPB@__ITEM_REMOVE0203@
  004f3	ff b5 b8 f7 ff
	ff		 push	 DWORD PTR _s$[ebp+32]
  004f9	e8 00 00 00 00	 call	 __mbscmp
  004fe	83 c4 08	 add	 esp, 8

; 2490 : 		return(str1.Compare(psz2) == 0);

  00501	85 c0		 test	 eax, eax
; File C:\IAGOS\server\v18\Source\Source\DatabaseServer\DatabaseServer.cpp

; 732  : 			else if( s.Token == "__ITEM_REMOVE0203" )

  00503	75 0f		 jne	 SHORT $LN471@Script

; 733  : 			{
; 734  : 				s_bItemRemove	= TRUE;

  00505	c7 05 00 00 00
	00 01 00 00 00	 mov	 DWORD PTR ?s_bItemRemove@@3HA, 1 ; s_bItemRemove

; 735  : 			}

  0050f	e9 88 01 00 00	 jmp	 $LN64@Script
$LN471@Script:
; File C:\Program Files\Microsoft Visual Studio\2022\Professional\VC\Tools\MSVC\14.44.35207\atlmfc\include\cstringt.h

; 184  : 		return _mbscmp( reinterpret_cast< const unsigned char* >( pszA ), reinterpret_cast< const unsigned char* >( pszB ) );

  00514	68 00 00 00 00	 push	 OFFSET ??_C@_0BE@DOEKBAIP@REMOVE_INVALID_ITEM@
  00519	ff b5 b8 f7 ff
	ff		 push	 DWORD PTR _s$[ebp+32]
  0051f	e8 00 00 00 00	 call	 __mbscmp
  00524	83 c4 08	 add	 esp, 8

; 2490 : 		return(str1.Compare(psz2) == 0);

  00527	85 c0		 test	 eax, eax
; File C:\IAGOS\server\v18\Source\Source\DatabaseServer\DatabaseServer.cpp

; 736  : 			else if( s.Token == "REMOVE_INVALID_ITEM" )

  00529	75 0f		 jne	 SHORT $LN487@Script

; 737  : 			{
; 738  : 				s_bRemoveInvalidItem	= TRUE;

  0052b	c7 05 00 00 00
	00 01 00 00 00	 mov	 DWORD PTR ?s_bRemoveInvalidItem@@3HA, 1 ; s_bRemoveInvalidItem

; 739  : 			}

  00535	e9 62 01 00 00	 jmp	 $LN64@Script
$LN487@Script:
; File C:\Program Files\Microsoft Visual Studio\2022\Professional\VC\Tools\MSVC\14.44.35207\atlmfc\include\cstringt.h

; 184  : 		return _mbscmp( reinterpret_cast< const unsigned char* >( pszA ), reinterpret_cast< const unsigned char* >( pszB ) );

  0053a	68 00 00 00 00	 push	 OFFSET ??_C@_0L@ENKPLNGB@DB_PWD_LOG@
  0053f	ff b5 b8 f7 ff
	ff		 push	 DWORD PTR _s$[ebp+32]
  00545	e8 00 00 00 00	 call	 __mbscmp
  0054a	83 c4 08	 add	 esp, 8

; 2490 : 		return(str1.Compare(psz2) == 0);

  0054d	85 c0		 test	 eax, eax
; File C:\IAGOS\server\v18\Source\Source\DatabaseServer\DatabaseServer.cpp

; 740  : 			else if( s.Token == "DB_PWD_LOG" )

  0054f	75 26		 jne	 SHORT $LN505@Script

; 741  : 			{
; 742  : 				s.GetToken();

  00551	50		 push	 eax
  00552	8d 8d 98 f7 ff
	ff		 lea	 ecx, DWORD PTR _s$[ebp]
  00558	e8 00 00 00 00	 call	 ?GetToken@CScanner@@UAEHH@Z ; CScanner::GetToken

; 743  : 				::GetPWDFromToken( s.Token, db.DB_ADMIN_PASS_LOG ); 

  0055d	8d 87 98 03 00
	00		 lea	 eax, DWORD PTR [edi+920]
  00563	50		 push	 eax
  00564	ff b5 b8 f7 ff
	ff		 push	 DWORD PTR _s$[ebp+32]
  0056a	e8 00 00 00 00	 call	 ?GetPWDFromToken@@YAHPBDPAD@Z ; GetPWDFromToken
  0056f	83 c4 08	 add	 esp, 8

; 744  : 				TRACE("%s\n", db.DB_ADMIN_PASS_LOG ); 
; 745  : 			}

  00572	e9 25 01 00 00	 jmp	 $LN64@Script
$LN505@Script:
; File C:\Program Files\Microsoft Visual Studio\2022\Professional\VC\Tools\MSVC\14.44.35207\atlmfc\include\cstringt.h

; 184  : 		return _mbscmp( reinterpret_cast< const unsigned char* >( pszA ), reinterpret_cast< const unsigned char* >( pszB ) );

  00577	68 00 00 00 00	 push	 OFFSET ??_C@_0BB@MABONDJP@DB_PWD_CHARACTER@
  0057c	ff b5 b8 f7 ff
	ff		 push	 DWORD PTR _s$[ebp+32]
  00582	e8 00 00 00 00	 call	 __mbscmp
  00587	83 c4 08	 add	 esp, 8

; 2490 : 		return(str1.Compare(psz2) == 0);

  0058a	85 c0		 test	 eax, eax
; File C:\IAGOS\server\v18\Source\Source\DatabaseServer\DatabaseServer.cpp

; 746  : 			else if( s.Token == "DB_PWD_CHARACTER" )

  0058c	75 26		 jne	 SHORT $LN523@Script

; 747  : 			{
; 748  : 				s.GetToken();

  0058e	50		 push	 eax
  0058f	8d 8d 98 f7 ff
	ff		 lea	 ecx, DWORD PTR _s$[ebp]
  00595	e8 00 00 00 00	 call	 ?GetToken@CScanner@@UAEHH@Z ; CScanner::GetToken

; 749  : 				::GetPWDFromToken( s.Token, db.DB_ADMIN_PASS_CHARACTER01 ); 

  0059a	8d 87 98 04 00
	00		 lea	 eax, DWORD PTR [edi+1176]
  005a0	50		 push	 eax
  005a1	ff b5 b8 f7 ff
	ff		 push	 DWORD PTR _s$[ebp+32]
  005a7	e8 00 00 00 00	 call	 ?GetPWDFromToken@@YAHPBDPAD@Z ; GetPWDFromToken
  005ac	83 c4 08	 add	 esp, 8

; 750  : 				TRACE("%s\n", db.DB_ADMIN_PASS_CHARACTER01 ); 
; 751  : 			}

  005af	e9 e8 00 00 00	 jmp	 $LN64@Script
$LN523@Script:
; File C:\Program Files\Microsoft Visual Studio\2022\Professional\VC\Tools\MSVC\14.44.35207\atlmfc\include\cstringt.h

; 184  : 		return _mbscmp( reinterpret_cast< const unsigned char* >( pszA ), reinterpret_cast< const unsigned char* >( pszB ) );

  005b4	68 00 00 00 00	 push	 OFFSET ??_C@_0P@NMDCKAML@DB_PWD_BACKEND@
  005b9	ff b5 b8 f7 ff
	ff		 push	 DWORD PTR _s$[ebp+32]
  005bf	e8 00 00 00 00	 call	 __mbscmp
  005c4	83 c4 08	 add	 esp, 8

; 2490 : 		return(str1.Compare(psz2) == 0);

  005c7	85 c0		 test	 eax, eax
; File C:\IAGOS\server\v18\Source\Source\DatabaseServer\DatabaseServer.cpp

; 752  : 			else if( s.Token == "DB_PWD_BACKEND" )

  005c9	75 26		 jne	 SHORT $LN541@Script

; 753  : 			{
; 754  : 				s.GetToken();

  005cb	50		 push	 eax
  005cc	8d 8d 98 f7 ff
	ff		 lea	 ecx, DWORD PTR _s$[ebp]
  005d2	e8 00 00 00 00	 call	 ?GetToken@CScanner@@UAEHH@Z ; CScanner::GetToken

; 755  : 				::GetPWDFromToken( s.Token, db.DB_ADMIN_PASS_BACKSYSTEM ); 

  005d7	8d 87 98 05 00
	00		 lea	 eax, DWORD PTR [edi+1432]
  005dd	50		 push	 eax
  005de	ff b5 b8 f7 ff
	ff		 push	 DWORD PTR _s$[ebp+32]
  005e4	e8 00 00 00 00	 call	 ?GetPWDFromToken@@YAHPBDPAD@Z ; GetPWDFromToken
  005e9	83 c4 08	 add	 esp, 8

; 756  : 				TRACE("%s\n", db.DB_ADMIN_PASS_BACKSYSTEM ); 
; 757  : 			}

  005ec	e9 ab 00 00 00	 jmp	 $LN64@Script
$LN541@Script:
; File C:\Program Files\Microsoft Visual Studio\2022\Professional\VC\Tools\MSVC\14.44.35207\atlmfc\include\cstringt.h

; 184  : 		return _mbscmp( reinterpret_cast< const unsigned char* >( pszA ), reinterpret_cast< const unsigned char* >( pszB ) );

  005f1	68 00 00 00 00	 push	 OFFSET ??_C@_0BC@DHOINEKA@DB_PWD_ITEMUPDATE@
  005f6	ff b5 b8 f7 ff
	ff		 push	 DWORD PTR _s$[ebp+32]
  005fc	e8 00 00 00 00	 call	 __mbscmp
  00601	83 c4 08	 add	 esp, 8

; 2490 : 		return(str1.Compare(psz2) == 0);

  00604	85 c0		 test	 eax, eax
; File C:\IAGOS\server\v18\Source\Source\DatabaseServer\DatabaseServer.cpp

; 758  : 			else if( s.Token == "DB_PWD_ITEMUPDATE" )

  00606	75 23		 jne	 SHORT $LN559@Script

; 759  : 			{
; 760  : 				s.GetToken();

  00608	50		 push	 eax
  00609	8d 8d 98 f7 ff
	ff		 lea	 ecx, DWORD PTR _s$[ebp]
  0060f	e8 00 00 00 00	 call	 ?GetToken@CScanner@@UAEHH@Z ; CScanner::GetToken

; 761  : 				::GetPWDFromToken( s.Token, db.DB_ADMIN_PASS_ITEMUPDATE ); 

  00614	8d 87 98 06 00
	00		 lea	 eax, DWORD PTR [edi+1688]
  0061a	50		 push	 eax
  0061b	ff b5 b8 f7 ff
	ff		 push	 DWORD PTR _s$[ebp+32]
  00621	e8 00 00 00 00	 call	 ?GetPWDFromToken@@YAHPBDPAD@Z ; GetPWDFromToken
  00626	83 c4 08	 add	 esp, 8

; 762  : 				TRACE("%s\n", db.DB_ADMIN_PASS_ITEMUPDATE ); 
; 763  : 			}

  00629	eb 71		 jmp	 SHORT $LN64@Script
$LN559@Script:
; File C:\Program Files\Microsoft Visual Studio\2022\Professional\VC\Tools\MSVC\14.44.35207\atlmfc\include\cstringt.h

; 184  : 		return _mbscmp( reinterpret_cast< const unsigned char* >( pszA ), reinterpret_cast< const unsigned char* >( pszB ) );

  0062b	68 00 00 00 00	 push	 OFFSET ??_C@_07PMFDBAGJ@ITEM_ID@
  00630	ff b5 b8 f7 ff
	ff		 push	 DWORD PTR _s$[ebp+32]
  00636	e8 00 00 00 00	 call	 __mbscmp
  0063b	83 c4 08	 add	 esp, 8

; 2490 : 		return(str1.Compare(psz2) == 0);

  0063e	85 c0		 test	 eax, eax
; File C:\IAGOS\server\v18\Source\Source\DatabaseServer\DatabaseServer.cpp

; 764  : 			else if( s.Token == "ITEM_ID" )

  00640	75 11		 jne	 SHORT $LN575@Script

; 765  : 			{
; 766  : 				bToolItemId	= TRUE;

  00642	c7 85 94 f7 ff
	ff 01 00 00 00	 mov	 DWORD PTR _bToolItemId$1$[ebp], 1

; 767  : 				OutputDebugString( "ITEM_ID" );

  0064c	68 00 00 00 00	 push	 OFFSET ??_C@_07PMFDBAGJ@ITEM_ID@

; 768  : 			}

  00651	eb 47		 jmp	 SHORT $LN666@Script
$LN575@Script:
; File C:\Program Files\Microsoft Visual Studio\2022\Professional\VC\Tools\MSVC\14.44.35207\atlmfc\include\cstringt.h

; 184  : 		return _mbscmp( reinterpret_cast< const unsigned char* >( pszA ), reinterpret_cast< const unsigned char* >( pszB ) );

  00653	68 00 00 00 00	 push	 OFFSET ??_C@_0M@EMECFGFM@RESTORE_PET@
  00658	ff b5 b8 f7 ff
	ff		 push	 DWORD PTR _s$[ebp+32]
  0065e	e8 00 00 00 00	 call	 __mbscmp
  00663	83 c4 08	 add	 esp, 8

; 2490 : 		return(str1.Compare(psz2) == 0);

  00666	85 c0		 test	 eax, eax
; File C:\IAGOS\server\v18\Source\Source\DatabaseServer\DatabaseServer.cpp

; 769  : 			else if( s.Token == "RESTORE_PET" )

  00668	75 11		 jne	 SHORT $LN591@Script

; 770  : 			{
; 771  : 				bToolRestorePet		= TRUE;

  0066a	c7 85 90 f7 ff
	ff 01 00 00 00	 mov	 DWORD PTR _bToolRestorePet$1$[ebp], 1

; 772  : 				OutputDebugString( "RESTORE_PET" );

  00674	68 00 00 00 00	 push	 OFFSET ??_C@_0M@EMECFGFM@RESTORE_PET@

; 773  : 			}

  00679	eb 1f		 jmp	 SHORT $LN666@Script
$LN591@Script:
; File C:\Program Files\Microsoft Visual Studio\2022\Professional\VC\Tools\MSVC\14.44.35207\atlmfc\include\cstringt.h

; 184  : 		return _mbscmp( reinterpret_cast< const unsigned char* >( pszA ), reinterpret_cast< const unsigned char* >( pszB ) );

  0067b	68 00 00 00 00	 push	 OFFSET ??_C@_0N@NNJOKFBG@REMOVE_QUEST@
  00680	ff b5 b8 f7 ff
	ff		 push	 DWORD PTR _s$[ebp+32]
  00686	e8 00 00 00 00	 call	 __mbscmp
  0068b	83 c4 08	 add	 esp, 8

; 2490 : 		return(str1.Compare(psz2) == 0);

  0068e	85 c0		 test	 eax, eax
; File C:\IAGOS\server\v18\Source\Source\DatabaseServer\DatabaseServer.cpp

; 774  : 			else if( s.Token == "REMOVE_QUEST" )

  00690	75 0a		 jne	 SHORT $LN64@Script

; 775  : 			{
; 776  : 				bToolRemoveQuest	= TRUE;

  00692	8d 58 01	 lea	 ebx, DWORD PTR [eax+1]

; 777  : 				OutputDebugString( "REMOVE_QUEST" );

  00695	68 00 00 00 00	 push	 OFFSET ??_C@_0N@NNJOKFBG@REMOVE_QUEST@
$LN666@Script:

; 778  : 			}
; 779  : 			s.GetToken();

  0069a	ff d6		 call	 esi
$LN64@Script:
  0069c	6a 00		 push	 0
  0069e	8d 8d 98 f7 ff
	ff		 lea	 ecx, DWORD PTR _s$[ebp]
  006a4	e8 00 00 00 00	 call	 ?GetToken@CScanner@@UAEHH@Z ; CScanner::GetToken
  006a9	83 7d dc 15	 cmp	 DWORD PTR _s$[ebp+2116], 21 ; 00000015H
  006ad	0f 85 dd f9 ff
	ff		 jne	 $LL2@Script
$LN644@Script:

; 780  : 		}
; 781  : 
; 782  : 
; 783  : 		if( !prj.OpenProject( "masquerade.prj" ) ) {

  006b3	68 00 00 00 00	 push	 OFFSET ??_C@_0P@LPNJPKHP@masquerade?4prj@
  006b8	b9 00 00 00 00	 mov	 ecx, OFFSET ?prj@@3VCProject@@A ; prj
  006bd	e8 00 00 00 00	 call	 ?OpenProject@CProject@@QAEHPBD@Z ; CProject::OpenProject
  006c2	85 c0		 test	 eax, eax
  006c4	75 26		 jne	 SHORT $LN65@Script

; 784  : 			g_MyTrace.Add( CMyTrace::Key( "status" ), FALSE, "Fail to open project" );

  006c6	68 00 00 00 00	 push	 OFFSET ??_C@_0BF@NHLHHCKP@Fail?5to?5open?5project@
  006cb	50		 push	 eax
  006cc	68 00 00 00 00	 push	 OFFSET ??_C@_06DJIHEMFI@status@
  006d1	e8 00 00 00 00	 call	 ?Key@CMyTrace@@SAKPBD@Z	; CMyTrace::Key
  006d6	83 c4 04	 add	 esp, 4
  006d9	50		 push	 eax
  006da	68 00 00 00 00	 push	 OFFSET ?g_MyTrace@@3VCMyTrace@@A ; g_MyTrace
  006df	e8 00 00 00 00	 call	 ?Add@CMyTrace@@QAAXKHPBDZZ ; CMyTrace::Add
  006e4	83 c4 10	 add	 esp, 16			; 00000010H
  006e7	e9 0d 01 00 00	 jmp	 $LN92@Script
$LN65@Script:

; 785  : 			return FALSE;
; 786  : 		}
; 787  : 		else {
; 788  : 			if( m_bBankToItemSendTbl )

  006ec	83 3d 00 00 00
	00 00		 cmp	 DWORD PTR ?m_bBankToItemSendTbl@@3HA, 0 ; m_bBankToItemSendTbl
  006f3	74 15		 je	 SHORT $LN67@Script

; 789  : 			{
; 790  : 				g_DbManager.BankToItemSendTbl( "BankToItemSendTbl.txt" );

  006f5	8b 0d 00 00 00
	00		 mov	 ecx, DWORD PTR ?g_DbManager@@3AAVCDbManager@@A ; g_DbManager
  006fb	68 00 00 00 00	 push	 OFFSET ??_C@_0BG@DBHAGMCH@BankToItemSendTbl?4txt@
  00700	e8 00 00 00 00	 call	 ?BankToItemSendTbl@CDbManager@@QAEHPBD@Z ; CDbManager::BankToItemSendTbl
  00705	e9 ef 00 00 00	 jmp	 $LN92@Script
$LN67@Script:

; 791  : 				return FALSE;
; 792  : 			}
; 793  : 			if( m_bInventoryToItemSendTbl )

  0070a	83 3d 00 00 00
	00 00		 cmp	 DWORD PTR ?m_bInventoryToItemSendTbl@@3HA, 0 ; m_bInventoryToItemSendTbl
  00711	74 15		 je	 SHORT $LN68@Script

; 794  : 			{
; 795  : 				g_DbManager.InventoryToItemSendTbl( "InventoryToItemSendTbl.txt" );

  00713	8b 0d 00 00 00
	00		 mov	 ecx, DWORD PTR ?g_DbManager@@3AAVCDbManager@@A ; g_DbManager
  00719	68 00 00 00 00	 push	 OFFSET ??_C@_0BL@JKJMKOBM@InventoryToItemSendTbl?4txt@
  0071e	e8 00 00 00 00	 call	 ?InventoryToItemSendTbl@CDbManager@@QAEHPBD@Z ; CDbManager::InventoryToItemSendTbl
  00723	e9 d1 00 00 00	 jmp	 $LN92@Script
$LN68@Script:

; 796  : 				return FALSE;
; 797  : 			}
; 798  : 			if( s_bItemRemove )

  00728	83 3d 00 00 00
	00 00		 cmp	 DWORD PTR ?s_bItemRemove@@3HA, 0 ; s_bItemRemove
  0072f	74 15		 je	 SHORT $LN69@Script

; 799  : 			{
; 800  : 				g_DbManager.ItemRemove0203( "ItemRemove.txt" );

  00731	8b 0d 00 00 00
	00		 mov	 ecx, DWORD PTR ?g_DbManager@@3AAVCDbManager@@A ; g_DbManager
  00737	68 00 00 00 00	 push	 OFFSET ??_C@_0P@CNCAIPIG@ItemRemove?4txt@
  0073c	e8 00 00 00 00	 call	 ?ItemRemove0203@CDbManager@@QAEHPBD@Z ; CDbManager::ItemRemove0203
  00741	e9 b3 00 00 00	 jmp	 $LN92@Script
$LN69@Script:

; 801  : 				return FALSE;
; 802  : 			}
; 803  : 			if( s_bRemoveInvalidItem )

  00746	83 3d 00 00 00
	00 00		 cmp	 DWORD PTR ?s_bRemoveInvalidItem@@3HA, 0 ; s_bRemoveInvalidItem
  0074d	74 10		 je	 SHORT $LN70@Script

; 804  : 			{
; 805  : 				g_DbManager.RemoveInvalidItem();

  0074f	8b 0d 00 00 00
	00		 mov	 ecx, DWORD PTR ?g_DbManager@@3AAVCDbManager@@A ; g_DbManager
  00755	e8 00 00 00 00	 call	 ?RemoveInvalidItem@CDbManager@@QAEHXZ ; CDbManager::RemoveInvalidItem
  0075a	e9 9a 00 00 00	 jmp	 $LN92@Script
$LN70@Script:

; 806  : 				return FALSE;
; 807  : 			}
; 808  : 			if( bToolItemId )

  0075f	83 bd 94 f7 ff
	ff 00		 cmp	 DWORD PTR _bToolItemId$1$[ebp], 0
  00766	74 12		 je	 SHORT $LN71@Script

; 809  : 			{
; 810  : 				g_DbManager.Conv( "conv.txt" );

  00768	8b 0d 00 00 00
	00		 mov	 ecx, DWORD PTR ?g_DbManager@@3AAVCDbManager@@A ; g_DbManager
  0076e	68 00 00 00 00	 push	 OFFSET ??_C@_08PIDMBOPH@conv?4txt@
  00773	e8 00 00 00 00	 call	 ?Conv@CDbManager@@QAEHPBD@Z ; CDbManager::Conv
  00778	eb 7f		 jmp	 SHORT $LN92@Script
$LN71@Script:

; 811  : 				return FALSE;
; 812  : 			}
; 813  : 			if( bToolRestorePet )

  0077a	83 bd 90 f7 ff
	ff 00		 cmp	 DWORD PTR _bToolRestorePet$1$[ebp], 0
  00781	74 19		 je	 SHORT $LN72@Script

; 814  : 			{
; 815  : 				g_DbManager.RestorePet( "restorepet.txt" );

  00783	8b 0d 00 00 00
	00		 mov	 ecx, DWORD PTR ?g_DbManager@@3AAVCDbManager@@A ; g_DbManager
  00789	68 00 00 00 00	 push	 OFFSET ??_C@_0P@OHOOLBKB@restorepet?4txt@
  0078e	e8 00 00 00 00	 call	 ?RestorePet@CDbManager@@QAEHPBD@Z ; CDbManager::RestorePet

; 816  : 				OutputDebugString( "end - restorepet.txt" );

  00793	68 00 00 00 00	 push	 OFFSET ??_C@_0BF@FNEPOGMA@end?5?9?5restorepet?4txt@
  00798	ff d6		 call	 esi
  0079a	eb 5d		 jmp	 SHORT $LN92@Script
$LN72@Script:

; 817  : 				return FALSE;
; 818  : 			}
; 819  : 			if( bToolRemoveQuest )

  0079c	85 db		 test	 ebx, ebx
  0079e	74 0d		 je	 SHORT $LN73@Script

; 820  : 			{
; 821  : 				g_DbManager.RemoveQuest();

  007a0	8b 0d 00 00 00
	00		 mov	 ecx, DWORD PTR ?g_DbManager@@3AAVCDbManager@@A ; g_DbManager
  007a6	e8 00 00 00 00	 call	 ?RemoveQuest@CDbManager@@QAEHXZ ; CDbManager::RemoveQuest
  007ab	eb 4c		 jmp	 SHORT $LN92@Script
$LN73@Script:

; 822  : 				return FALSE;
; 823  : 			}
; 824  : 
; 825  : 			g_MyTrace.Add( CMyTrace::Key( "status" ), FALSE, "Ready" );

  007ad	68 00 00 00 00	 push	 OFFSET ??_C@_05GMBADOLI@Ready@
  007b2	6a 00		 push	 0
  007b4	68 00 00 00 00	 push	 OFFSET ??_C@_06DJIHEMFI@status@
  007b9	e8 00 00 00 00	 call	 ?Key@CMyTrace@@SAKPBD@Z	; CMyTrace::Key
  007be	83 c4 04	 add	 esp, 4
  007c1	50		 push	 eax
  007c2	68 00 00 00 00	 push	 OFFSET ?g_MyTrace@@3VCMyTrace@@A ; g_MyTrace
  007c7	e8 00 00 00 00	 call	 ?Add@CMyTrace@@QAAXKHPBDZZ ; CMyTrace::Add
  007cc	83 c4 10	 add	 esp, 16			; 00000010H

; 826  : 			return TRUE;

  007cf	be 01 00 00 00	 mov	 esi, 1
  007d4	eb 25		 jmp	 SHORT $LN94@Script
$LN66@Script:

; 827  : 		}
; 828  : 	}
; 829  : 
; 830  : 	g_MyTrace.Add( CMyTrace::Key( "status" ), FALSE, "Fail to open file, %s", lpszFileName );

  007d6	56		 push	 esi
  007d7	68 00 00 00 00	 push	 OFFSET ??_C@_0BG@MNCFBEJM@Fail?5to?5open?5file?0?5?$CFs@
$LN667@Script:

; 831  : 	return FALSE;

  007dc	6a 00		 push	 0
  007de	68 00 00 00 00	 push	 OFFSET ??_C@_06DJIHEMFI@status@
  007e3	e8 00 00 00 00	 call	 ?Key@CMyTrace@@SAKPBD@Z	; CMyTrace::Key
  007e8	83 c4 04	 add	 esp, 4
  007eb	50		 push	 eax
  007ec	68 00 00 00 00	 push	 OFFSET ?g_MyTrace@@3VCMyTrace@@A ; g_MyTrace
  007f1	e8 00 00 00 00	 call	 ?Add@CMyTrace@@QAAXKHPBDZZ ; CMyTrace::Add
  007f6	83 c4 14	 add	 esp, 20			; 00000014H
$LN92@Script:
  007f9	33 f6		 xor	 esi, esi
$LN94@Script:
  007fb	8d 8d 98 f7 ff
	ff		 lea	 ecx, DWORD PTR _s$[ebp]
  00801	e8 00 00 00 00	 call	 ??1CScanner@@UAE@XZ	; CScanner::~CScanner
  00806	8b c6		 mov	 eax, esi

; 832  : };

  00808	8b 4d f4	 mov	 ecx, DWORD PTR __$EHRec$[ebp]
  0080b	64 89 0d 00 00
	00 00		 mov	 DWORD PTR fs:0, ecx
  00812	59		 pop	 ecx
  00813	5f		 pop	 edi
  00814	5e		 pop	 esi
  00815	5b		 pop	 ebx
  00816	8b 4d f0	 mov	 ecx, DWORD PTR __$ArrayPad$[ebp]
  00819	33 cd		 xor	 ecx, ebp
  0081b	e8 00 00 00 00	 call	 @__security_check_cookie@4
  00820	8b e5		 mov	 esp, ebp
  00822	5d		 pop	 ebp
  00823	c3		 ret	 0
_TEXT	ENDS
;	COMDAT text$x
text$x	SEGMENT
__unwindfunclet$?Script@@YAHPBD@Z$0:
  00000	8d 8d 98 f7 ff
	ff		 lea	 ecx, DWORD PTR _s$[ebp]
  00006	e9 00 00 00 00	 jmp	 ??1CScanner@@UAE@XZ	; CScanner::~CScanner
  0000b	cc		 int	 3
  0000c	cc		 int	 3
  0000d	cc		 int	 3
  0000e	cc		 int	 3
  0000f	cc		 int	 3
__ehhandler$?Script@@YAHPBD@Z:
  00010	90		 npad	 1
  00011	90		 npad	 1
  00012	8b 54 24 08	 mov	 edx, DWORD PTR [esp+8]
  00016	8d 42 0c	 lea	 eax, DWORD PTR [edx+12]
  00019	8b 8a 8c f7 ff
	ff		 mov	 ecx, DWORD PTR [edx-2164]
  0001f	33 c8		 xor	 ecx, eax
  00021	e8 00 00 00 00	 call	 @__security_check_cookie@4
  00026	8b 4a fc	 mov	 ecx, DWORD PTR [edx-4]
  00029	33 c8		 xor	 ecx, eax
  0002b	e8 00 00 00 00	 call	 @__security_check_cookie@4
  00030	b8 00 00 00 00	 mov	 eax, OFFSET __ehfuncinfo$?Script@@YAHPBD@Z
  00035	e9 00 00 00 00	 jmp	 ___CxxFrameHandler3
text$x	ENDS
?Script@@YAHPBD@Z ENDP					; Script
; Function compile flags: /Ogtp
; File C:\IAGOS\server\v18\Source\Source\DatabaseServer\DatabaseServer.cpp
; File C:\Program Files\Microsoft Visual Studio\2022\Professional\VC\Tools\MSVC\14.44.35207\include\list
; File C:\IAGOS\server\v18\Source\Source\_Network\Misc\Include\mempooler.h
; File C:\Program Files\Microsoft Visual Studio\2022\Professional\VC\Tools\MSVC\14.44.35207\include\list
; File C:\IAGOS\server\v18\Source\Source\_Network\Misc\Include\mempooler.h
; File C:\Program Files\Microsoft Visual Studio\2022\Professional\VC\Tools\MSVC\14.44.35207\include\list
; File C:\Program Files\Microsoft Visual Studio\2022\Professional\VC\Tools\MSVC\14.44.35207\include\xmemory
; File C:\Program Files\Microsoft Visual Studio\2022\Professional\VC\Tools\MSVC\14.44.35207\include\list
; File C:\IAGOS\server\v18\Source\Source\_Network\Misc\Include\mempooler.h
; File C:\Program Files\Microsoft Visual Studio\2022\Professional\VC\Tools\MSVC\14.44.35207\include\list
; File C:\IAGOS\server\v18\Source\Source\_Network\Misc\Include\mempooler.h
; File C:\Program Files\Microsoft Visual Studio\2022\Professional\VC\Tools\MSVC\14.44.35207\include\list
; File C:\Program Files\Microsoft Visual Studio\2022\Professional\VC\Tools\MSVC\14.44.35207\include\xmemory
; File C:\Program Files\Microsoft Visual Studio\2022\Professional\VC\Tools\MSVC\14.44.35207\include\list
; File C:\Program Files\Microsoft Visual Studio\2022\Professional\VC\Tools\MSVC\14.44.35207\include\xmemory
; File C:\IAGOS\server\v18\Source\Source\DatabaseServer\DatabaseServer.cpp
; File C:\Program Files\Microsoft Visual Studio\2022\Professional\VC\Tools\MSVC\14.44.35207\include\list
; File C:\IAGOS\server\v18\Source\Source\_Network\Misc\Include\mempooler.h
; File C:\Program Files\Microsoft Visual Studio\2022\Professional\VC\Tools\MSVC\14.44.35207\include\list
; File C:\IAGOS\server\v18\Source\Source\_Network\Misc\Include\mempooler.h
; File C:\Program Files\Microsoft Visual Studio\2022\Professional\VC\Tools\MSVC\14.44.35207\include\list
; File C:\Program Files\Microsoft Visual Studio\2022\Professional\VC\Tools\MSVC\14.44.35207\include\xmemory
; File C:\Program Files\Microsoft Visual Studio\2022\Professional\VC\Tools\MSVC\14.44.35207\include\list
; File C:\IAGOS\server\v18\Source\Source\_Network\Misc\Include\mempooler.h
; File C:\Program Files\Microsoft Visual Studio\2022\Professional\VC\Tools\MSVC\14.44.35207\include\list
; File C:\IAGOS\server\v18\Source\Source\_Network\Misc\Include\mempooler.h
; File C:\Program Files\Microsoft Visual Studio\2022\Professional\VC\Tools\MSVC\14.44.35207\include\list
; File C:\Program Files\Microsoft Visual Studio\2022\Professional\VC\Tools\MSVC\14.44.35207\include\xmemory
; File C:\Program Files\Microsoft Visual Studio\2022\Professional\VC\Tools\MSVC\14.44.35207\include\list
; File C:\Program Files\Microsoft Visual Studio\2022\Professional\VC\Tools\MSVC\14.44.35207\include\xmemory
; File C:\IAGOS\server\v18\Source\Source\DatabaseServer\DatabaseServer.cpp
; File C:\Program Files\Microsoft Visual Studio\2022\Professional\VC\Tools\MSVC\14.44.35207\include\list
; File C:\IAGOS\server\v18\Source\Source\_Network\Misc\Include\mempooler.h
; File C:\Program Files\Microsoft Visual Studio\2022\Professional\VC\Tools\MSVC\14.44.35207\include\list
; File C:\IAGOS\server\v18\Source\Source\_Network\Misc\Include\mempooler.h
; File C:\Program Files\Microsoft Visual Studio\2022\Professional\VC\Tools\MSVC\14.44.35207\include\list
; File C:\Program Files\Microsoft Visual Studio\2022\Professional\VC\Tools\MSVC\14.44.35207\include\xmemory
; File C:\Program Files\Microsoft Visual Studio\2022\Professional\VC\Tools\MSVC\14.44.35207\include\list
; File C:\IAGOS\server\v18\Source\Source\_Network\Misc\Include\mempooler.h
; File C:\Program Files\Microsoft Visual Studio\2022\Professional\VC\Tools\MSVC\14.44.35207\include\list
; File C:\IAGOS\server\v18\Source\Source\_Network\Misc\Include\mempooler.h
; File C:\Program Files\Microsoft Visual Studio\2022\Professional\VC\Tools\MSVC\14.44.35207\include\list
; File C:\Program Files\Microsoft Visual Studio\2022\Professional\VC\Tools\MSVC\14.44.35207\include\xmemory
; File C:\Program Files\Microsoft Visual Studio\2022\Professional\VC\Tools\MSVC\14.44.35207\include\list
; File C:\Program Files\Microsoft Visual Studio\2022\Professional\VC\Tools\MSVC\14.44.35207\include\xmemory
; File C:\IAGOS\server\v18\Source\Source\DatabaseServer\DatabaseServer.cpp
;	COMDAT ?ExitInstance@@YAXXZ
_TEXT	SEGMENT
?ExitInstance@@YAXXZ PROC				; ExitInstance, COMDAT

; 428  : {

  00000	53		 push	 ebx
  00001	56		 push	 esi
  00002	57		 push	 edi

; 429  : 	g_dpLoginSrvr.DeleteDPObject();

  00003	b9 00 00 00 00	 mov	 ecx, OFFSET ?g_dpLoginSrvr@@3VCDPLoginSrvr@@A ; g_dpLoginSrvr
  00008	e8 00 00 00 00	 call	 ?DeleteDPObject@CDPMng@@QAEHXZ ; CDPMng::DeleteDPObject

; 430  : 	CDPTrans::GetInstance()->DeleteDPObject();

  0000d	e8 00 00 00 00	 call	 ?GetInstance@CDPTrans@@SAPAV1@XZ ; CDPTrans::GetInstance
  00012	8b c8		 mov	 ecx, eax
  00014	e8 00 00 00 00	 call	 ?DeleteDPObject@CDPMng@@QAEHXZ ; CDPMng::DeleteDPObject

; 431  : 	g_dpAccountClient.DeleteDPObject();

  00019	b9 00 00 00 00	 mov	 ecx, OFFSET ?g_dpAccountClient@@3VCDPAccountClient@@A ; g_dpAccountClient
  0001e	e8 00 00 00 00	 call	 ?DeleteDPObject@CDPMng@@QAEHXZ ; CDPMng::DeleteDPObject

; 432  : 	g_dpCoreSrvr.DeleteDPObject();

  00023	b9 00 00 00 00	 mov	 ecx, OFFSET ?g_dpCoreSrvr@@3VCDPCoreSrvr@@A ; g_dpCoreSrvr
  00028	e8 00 00 00 00	 call	 ?DeleteDPObject@CDPMng@@QAEHXZ ; CDPMng::DeleteDPObject

; 433  : 	g_DbManager.Clear();

  0002d	8b 0d 00 00 00
	00		 mov	 ecx, DWORD PTR ?g_DbManager@@3AAVCDbManager@@A ; g_DbManager
  00033	e8 00 00 00 00	 call	 ?Clear@CDbManager@@QAEXXZ ; CDbManager::Clear

; 434  : 	g_GuildMng.Clear();

  00038	b9 00 00 00 00	 mov	 ecx, OFFSET ?g_GuildMng@@3VCGuildMng@@A ; g_GuildMng
  0003d	e8 00 00 00 00	 call	 ?Clear@CGuildMng@@QAEXXZ ; CGuildMng::Clear

; 437  : 	SAFE_DELETE( CGuildMember::sm_pPool );

  00042	8b 3d 00 00 00
	00		 mov	 edi, DWORD PTR ?sm_pPool@CGuildMember@@2PAV?$MemPooler@VCGuildMember@@@@A ; CGuildMember::sm_pPool
  00048	8b 1d 00 00 00
	00		 mov	 ebx, DWORD PTR __imp__VirtualFree@12
  0004e	85 ff		 test	 edi, edi
  00050	0f 84 a6 00 00
	00		 je	 $LN2@ExitInstan
; File C:\Program Files\Microsoft Visual Studio\2022\Professional\VC\Tools\MSVC\14.44.35207\include\list

; 1105 :         return iterator(_Mypair._Myval2._Myhead->_Next, _STD addressof(_Mypair._Myval2));

  00056	8b 4f 04	 mov	 ecx, DWORD PTR [edi+4]

; 37   :     _List_unchecked_const_iterator(_Nodeptr _Pnode, const _Mylist* _Plist) noexcept : _Ptr(_Pnode) {

  00059	8b 31		 mov	 esi, DWORD PTR [ecx]

; 202  :         return !(*this == _Right);

  0005b	3b f1		 cmp	 esi, ecx
; File C:\IAGOS\server\v18\Source\Source\_Network\Misc\Include\mempooler.h

; 148  : 		for( list<void*>::iterator i = m_ListOfMemBlockPtr.begin(); i != m_ListOfMemBlockPtr.end(); ++i )

  0005d	74 18		 je	 SHORT $LN23@ExitInstan
  0005f	90		 npad	 1
$LL24@ExitInstan:

; 149  : 			VirtualFree( *i, 0, MEM_RELEASE );

  00060	68 00 80 00 00	 push	 32768			; 00008000H
  00065	6a 00		 push	 0
  00067	ff 76 08	 push	 DWORD PTR [esi+8]
  0006a	ff d3		 call	 ebx
; File C:\Program Files\Microsoft Visual Studio\2022\Professional\VC\Tools\MSVC\14.44.35207\include\list

; 164  :         this->_Ptr = this->_Ptr->_Next;

  0006c	8b 06		 mov	 eax, DWORD PTR [esi]
  0006e	8b f0		 mov	 esi, eax

; 37   :     _List_unchecked_const_iterator(_Nodeptr _Pnode, const _Mylist* _Plist) noexcept : _Ptr(_Pnode) {

  00070	8b 4f 04	 mov	 ecx, DWORD PTR [edi+4]

; 202  :         return !(*this == _Right);

  00073	3b c1		 cmp	 eax, ecx
; File C:\IAGOS\server\v18\Source\Source\_Network\Misc\Include\mempooler.h

; 148  : 		for( list<void*>::iterator i = m_ListOfMemBlockPtr.begin(); i != m_ListOfMemBlockPtr.end(); ++i )

  00075	75 e9		 jne	 SHORT $LL24@ExitInstan
$LN23@ExitInstan:
; File C:\Program Files\Microsoft Visual Studio\2022\Professional\VC\Tools\MSVC\14.44.35207\include\list

; 324  :         _Head->_Prev->_Next = nullptr;

  00077	8b 41 04	 mov	 eax, DWORD PTR [ecx+4]
  0007a	c7 00 00 00 00
	00		 mov	 DWORD PTR [eax], 0

; 325  : 
; 326  :         auto _Pnode = _Head->_Next;

  00080	8b 01		 mov	 eax, DWORD PTR [ecx]

; 327  :         for (_Nodeptr _Pnext; _Pnode; _Pnode = _Pnext) {

  00082	85 c0		 test	 eax, eax
  00084	74 13		 je	 SHORT $LN469@ExitInstan
$LL74@ExitInstan:

; 328  :             _Pnext = _Pnode->_Next;

  00086	8b 30		 mov	 esi, DWORD PTR [eax]
; File C:\Program Files\Microsoft Visual Studio\2022\Professional\VC\Tools\MSVC\14.44.35207\include\xmemory

; 289  :         ::operator delete(_Ptr, _Bytes);

  00088	6a 0c		 push	 12			; 0000000cH
  0008a	50		 push	 eax
  0008b	e8 00 00 00 00	 call	 ??3@YAXPAXI@Z		; operator delete
  00090	83 c4 08	 add	 esp, 8
; File C:\Program Files\Microsoft Visual Studio\2022\Professional\VC\Tools\MSVC\14.44.35207\include\list

; 327  :         for (_Nodeptr _Pnext; _Pnode; _Pnode = _Pnext) {

  00093	8b c6		 mov	 eax, esi
  00095	85 f6		 test	 esi, esi
  00097	75 ed		 jne	 SHORT $LL74@ExitInstan
$LN469@ExitInstan:

; 1508 :         _My_data._Myhead->_Next = _My_data._Myhead;

  00099	8b 47 04	 mov	 eax, DWORD PTR [edi+4]
  0009c	89 00		 mov	 DWORD PTR [eax], eax

; 1509 :         _My_data._Myhead->_Prev = _My_data._Myhead;

  0009e	8b 47 04	 mov	 eax, DWORD PTR [edi+4]
  000a1	89 40 04	 mov	 DWORD PTR [eax+4], eax
; File C:\IAGOS\server\v18\Source\Source\_Network\Misc\Include\mempooler.h

; 152  : 		DeleteCriticalSection( &m_cs );		

  000a4	8d 47 18	 lea	 eax, DWORD PTR [edi+24]
  000a7	50		 push	 eax
; File C:\Program Files\Microsoft Visual Studio\2022\Professional\VC\Tools\MSVC\14.44.35207\include\list

; 1510 :         _My_data._Mysize        = 0;

  000a8	c7 47 08 00 00
	00 00		 mov	 DWORD PTR [edi+8], 0
; File C:\IAGOS\server\v18\Source\Source\_Network\Misc\Include\mempooler.h

; 152  : 		DeleteCriticalSection( &m_cs );		

  000af	ff 15 00 00 00
	00		 call	 DWORD PTR __imp__DeleteCriticalSection@4
; File C:\Program Files\Microsoft Visual Studio\2022\Professional\VC\Tools\MSVC\14.44.35207\include\list

; 1518 :         _Node::_Free_non_head(_Al, _My_data._Myhead);

  000b5	8b 4f 04	 mov	 ecx, DWORD PTR [edi+4]

; 324  :         _Head->_Prev->_Next = nullptr;

  000b8	8b 41 04	 mov	 eax, DWORD PTR [ecx+4]
  000bb	c7 00 00 00 00
	00		 mov	 DWORD PTR [eax], 0

; 325  : 
; 326  :         auto _Pnode = _Head->_Next;

  000c1	8b 01		 mov	 eax, DWORD PTR [ecx]

; 327  :         for (_Nodeptr _Pnext; _Pnode; _Pnode = _Pnext) {

  000c3	85 c0		 test	 eax, eax
  000c5	74 13		 je	 SHORT $LN470@ExitInstan
$LL111@ExitInstan:

; 328  :             _Pnext = _Pnode->_Next;

  000c7	8b 30		 mov	 esi, DWORD PTR [eax]
; File C:\Program Files\Microsoft Visual Studio\2022\Professional\VC\Tools\MSVC\14.44.35207\include\xmemory

; 289  :         ::operator delete(_Ptr, _Bytes);

  000c9	6a 0c		 push	 12			; 0000000cH
  000cb	50		 push	 eax
  000cc	e8 00 00 00 00	 call	 ??3@YAXPAXI@Z		; operator delete
  000d1	83 c4 08	 add	 esp, 8
; File C:\Program Files\Microsoft Visual Studio\2022\Professional\VC\Tools\MSVC\14.44.35207\include\list

; 327  :         for (_Nodeptr _Pnext; _Pnode; _Pnode = _Pnext) {

  000d4	8b c6		 mov	 eax, esi
  000d6	85 f6		 test	 esi, esi
  000d8	75 ed		 jne	 SHORT $LL111@ExitInstan
$LN470@ExitInstan:
; File C:\Program Files\Microsoft Visual Studio\2022\Professional\VC\Tools\MSVC\14.44.35207\include\xmemory

; 289  :         ::operator delete(_Ptr, _Bytes);

  000da	6a 0c		 push	 12			; 0000000cH
  000dc	ff 77 04	 push	 DWORD PTR [edi+4]
  000df	e8 00 00 00 00	 call	 ??3@YAXPAXI@Z		; operator delete
  000e4	68 94 00 00 00	 push	 148			; 00000094H
  000e9	57		 push	 edi
  000ea	e8 00 00 00 00	 call	 ??3@YAXPAXI@Z		; operator delete
  000ef	83 c4 10	 add	 esp, 16			; 00000010H
; File C:\IAGOS\server\v18\Source\Source\DatabaseServer\DatabaseServer.cpp

; 437  : 	SAFE_DELETE( CGuildMember::sm_pPool );

  000f2	c7 05 00 00 00
	00 00 00 00 00	 mov	 DWORD PTR ?sm_pPool@CGuildMember@@2PAV?$MemPooler@VCGuildMember@@@@A, 0 ; CGuildMember::sm_pPool
$LN2@ExitInstan:

; 438  : 	SAFE_DELETE( CGuild::sm_pPool );

  000fc	8b 3d 00 00 00
	00		 mov	 edi, DWORD PTR ?sm_pPool@CGuild@@2PAV?$MemPooler@VCGuild@@@@A ; CGuild::sm_pPool
  00102	85 ff		 test	 edi, edi
  00104	0f 84 ac 00 00
	00		 je	 $LN3@ExitInstan
; File C:\Program Files\Microsoft Visual Studio\2022\Professional\VC\Tools\MSVC\14.44.35207\include\list

; 1105 :         return iterator(_Mypair._Myval2._Myhead->_Next, _STD addressof(_Mypair._Myval2));

  0010a	8b 4f 04	 mov	 ecx, DWORD PTR [edi+4]

; 37   :     _List_unchecked_const_iterator(_Nodeptr _Pnode, const _Mylist* _Plist) noexcept : _Ptr(_Pnode) {

  0010d	8b 31		 mov	 esi, DWORD PTR [ecx]

; 202  :         return !(*this == _Right);

  0010f	3b f1		 cmp	 esi, ecx
; File C:\IAGOS\server\v18\Source\Source\_Network\Misc\Include\mempooler.h

; 148  : 		for( list<void*>::iterator i = m_ListOfMemBlockPtr.begin(); i != m_ListOfMemBlockPtr.end(); ++i )

  00111	74 17		 je	 SHORT $LN168@ExitInstan
$LL169@ExitInstan:

; 149  : 			VirtualFree( *i, 0, MEM_RELEASE );

  00113	68 00 80 00 00	 push	 32768			; 00008000H
  00118	6a 00		 push	 0
  0011a	ff 76 08	 push	 DWORD PTR [esi+8]
  0011d	ff d3		 call	 ebx
; File C:\Program Files\Microsoft Visual Studio\2022\Professional\VC\Tools\MSVC\14.44.35207\include\list

; 164  :         this->_Ptr = this->_Ptr->_Next;

  0011f	8b 06		 mov	 eax, DWORD PTR [esi]
  00121	8b f0		 mov	 esi, eax

; 37   :     _List_unchecked_const_iterator(_Nodeptr _Pnode, const _Mylist* _Plist) noexcept : _Ptr(_Pnode) {

  00123	8b 4f 04	 mov	 ecx, DWORD PTR [edi+4]

; 202  :         return !(*this == _Right);

  00126	3b c1		 cmp	 eax, ecx
; File C:\IAGOS\server\v18\Source\Source\_Network\Misc\Include\mempooler.h

; 148  : 		for( list<void*>::iterator i = m_ListOfMemBlockPtr.begin(); i != m_ListOfMemBlockPtr.end(); ++i )

  00128	75 e9		 jne	 SHORT $LL169@ExitInstan
$LN168@ExitInstan:
; File C:\Program Files\Microsoft Visual Studio\2022\Professional\VC\Tools\MSVC\14.44.35207\include\list

; 324  :         _Head->_Prev->_Next = nullptr;

  0012a	8b 41 04	 mov	 eax, DWORD PTR [ecx+4]
  0012d	c7 00 00 00 00
	00		 mov	 DWORD PTR [eax], 0

; 325  : 
; 326  :         auto _Pnode = _Head->_Next;

  00133	8b 01		 mov	 eax, DWORD PTR [ecx]

; 327  :         for (_Nodeptr _Pnext; _Pnode; _Pnode = _Pnext) {

  00135	85 c0		 test	 eax, eax
  00137	74 1a		 je	 SHORT $LN471@ExitInstan
  00139	0f 1f 80 00 00
	00 00		 npad	 7
$LL219@ExitInstan:

; 328  :             _Pnext = _Pnode->_Next;

  00140	8b 30		 mov	 esi, DWORD PTR [eax]
; File C:\Program Files\Microsoft Visual Studio\2022\Professional\VC\Tools\MSVC\14.44.35207\include\xmemory

; 289  :         ::operator delete(_Ptr, _Bytes);

  00142	6a 0c		 push	 12			; 0000000cH
  00144	50		 push	 eax
  00145	e8 00 00 00 00	 call	 ??3@YAXPAXI@Z		; operator delete
  0014a	83 c4 08	 add	 esp, 8
; File C:\Program Files\Microsoft Visual Studio\2022\Professional\VC\Tools\MSVC\14.44.35207\include\list

; 327  :         for (_Nodeptr _Pnext; _Pnode; _Pnode = _Pnext) {

  0014d	8b c6		 mov	 eax, esi
  0014f	85 f6		 test	 esi, esi
  00151	75 ed		 jne	 SHORT $LL219@ExitInstan
$LN471@ExitInstan:

; 1508 :         _My_data._Myhead->_Next = _My_data._Myhead;

  00153	8b 47 04	 mov	 eax, DWORD PTR [edi+4]
  00156	89 00		 mov	 DWORD PTR [eax], eax

; 1509 :         _My_data._Myhead->_Prev = _My_data._Myhead;

  00158	8b 47 04	 mov	 eax, DWORD PTR [edi+4]
  0015b	89 40 04	 mov	 DWORD PTR [eax+4], eax
; File C:\IAGOS\server\v18\Source\Source\_Network\Misc\Include\mempooler.h

; 152  : 		DeleteCriticalSection( &m_cs );		

  0015e	8d 47 18	 lea	 eax, DWORD PTR [edi+24]
  00161	50		 push	 eax
; File C:\Program Files\Microsoft Visual Studio\2022\Professional\VC\Tools\MSVC\14.44.35207\include\list

; 1510 :         _My_data._Mysize        = 0;

  00162	c7 47 08 00 00
	00 00		 mov	 DWORD PTR [edi+8], 0
; File C:\IAGOS\server\v18\Source\Source\_Network\Misc\Include\mempooler.h

; 152  : 		DeleteCriticalSection( &m_cs );		

  00169	ff 15 00 00 00
	00		 call	 DWORD PTR __imp__DeleteCriticalSection@4
; File C:\Program Files\Microsoft Visual Studio\2022\Professional\VC\Tools\MSVC\14.44.35207\include\list

; 1518 :         _Node::_Free_non_head(_Al, _My_data._Myhead);

  0016f	8b 4f 04	 mov	 ecx, DWORD PTR [edi+4]

; 324  :         _Head->_Prev->_Next = nullptr;

  00172	8b 41 04	 mov	 eax, DWORD PTR [ecx+4]
  00175	c7 00 00 00 00
	00		 mov	 DWORD PTR [eax], 0

; 325  : 
; 326  :         auto _Pnode = _Head->_Next;

  0017b	8b 01		 mov	 eax, DWORD PTR [ecx]

; 327  :         for (_Nodeptr _Pnext; _Pnode; _Pnode = _Pnext) {

  0017d	85 c0		 test	 eax, eax
  0017f	74 13		 je	 SHORT $LN472@ExitInstan
$LL256@ExitInstan:

; 328  :             _Pnext = _Pnode->_Next;

  00181	8b 30		 mov	 esi, DWORD PTR [eax]
; File C:\Program Files\Microsoft Visual Studio\2022\Professional\VC\Tools\MSVC\14.44.35207\include\xmemory

; 289  :         ::operator delete(_Ptr, _Bytes);

  00183	6a 0c		 push	 12			; 0000000cH
  00185	50		 push	 eax
  00186	e8 00 00 00 00	 call	 ??3@YAXPAXI@Z		; operator delete
  0018b	83 c4 08	 add	 esp, 8
; File C:\Program Files\Microsoft Visual Studio\2022\Professional\VC\Tools\MSVC\14.44.35207\include\list

; 327  :         for (_Nodeptr _Pnext; _Pnode; _Pnode = _Pnext) {

  0018e	8b c6		 mov	 eax, esi
  00190	85 f6		 test	 esi, esi
  00192	75 ed		 jne	 SHORT $LL256@ExitInstan
$LN472@ExitInstan:
; File C:\Program Files\Microsoft Visual Studio\2022\Professional\VC\Tools\MSVC\14.44.35207\include\xmemory

; 289  :         ::operator delete(_Ptr, _Bytes);

  00194	6a 0c		 push	 12			; 0000000cH
  00196	ff 77 04	 push	 DWORD PTR [edi+4]
  00199	e8 00 00 00 00	 call	 ??3@YAXPAXI@Z		; operator delete
  0019e	68 94 00 00 00	 push	 148			; 00000094H
  001a3	57		 push	 edi
  001a4	e8 00 00 00 00	 call	 ??3@YAXPAXI@Z		; operator delete
  001a9	83 c4 10	 add	 esp, 16			; 00000010H
; File C:\IAGOS\server\v18\Source\Source\DatabaseServer\DatabaseServer.cpp

; 438  : 	SAFE_DELETE( CGuild::sm_pPool );

  001ac	c7 05 00 00 00
	00 00 00 00 00	 mov	 DWORD PTR ?sm_pPool@CGuild@@2PAV?$MemPooler@VCGuild@@@@A, 0 ; CGuild::sm_pPool
$LN3@ExitInstan:

; 439  : 	SAFE_DELETE( CMover::m_pPool );

  001b6	8b 3d 00 00 00
	00		 mov	 edi, DWORD PTR ?m_pPool@CMover@@2PAV?$MemPooler@VCMover@@@@A ; CMover::m_pPool
  001bc	85 ff		 test	 edi, edi
  001be	0f 84 a8 00 00
	00		 je	 $LN4@ExitInstan
; File C:\Program Files\Microsoft Visual Studio\2022\Professional\VC\Tools\MSVC\14.44.35207\include\list

; 1105 :         return iterator(_Mypair._Myval2._Myhead->_Next, _STD addressof(_Mypair._Myval2));

  001c4	8b 4f 04	 mov	 ecx, DWORD PTR [edi+4]

; 37   :     _List_unchecked_const_iterator(_Nodeptr _Pnode, const _Mylist* _Plist) noexcept : _Ptr(_Pnode) {

  001c7	8b 31		 mov	 esi, DWORD PTR [ecx]

; 202  :         return !(*this == _Right);

  001c9	3b f1		 cmp	 esi, ecx
; File C:\IAGOS\server\v18\Source\Source\_Network\Misc\Include\mempooler.h

; 148  : 		for( list<void*>::iterator i = m_ListOfMemBlockPtr.begin(); i != m_ListOfMemBlockPtr.end(); ++i )

  001cb	74 1a		 je	 SHORT $LN312@ExitInstan
  001cd	0f 1f 00	 npad	 3
$LL313@ExitInstan:

; 149  : 			VirtualFree( *i, 0, MEM_RELEASE );

  001d0	68 00 80 00 00	 push	 32768			; 00008000H
  001d5	6a 00		 push	 0
  001d7	ff 76 08	 push	 DWORD PTR [esi+8]
  001da	ff d3		 call	 ebx
; File C:\Program Files\Microsoft Visual Studio\2022\Professional\VC\Tools\MSVC\14.44.35207\include\list

; 164  :         this->_Ptr = this->_Ptr->_Next;

  001dc	8b 06		 mov	 eax, DWORD PTR [esi]
  001de	8b f0		 mov	 esi, eax

; 37   :     _List_unchecked_const_iterator(_Nodeptr _Pnode, const _Mylist* _Plist) noexcept : _Ptr(_Pnode) {

  001e0	8b 4f 04	 mov	 ecx, DWORD PTR [edi+4]

; 202  :         return !(*this == _Right);

  001e3	3b c1		 cmp	 eax, ecx
; File C:\IAGOS\server\v18\Source\Source\_Network\Misc\Include\mempooler.h

; 148  : 		for( list<void*>::iterator i = m_ListOfMemBlockPtr.begin(); i != m_ListOfMemBlockPtr.end(); ++i )

  001e5	75 e9		 jne	 SHORT $LL313@ExitInstan
$LN312@ExitInstan:
; File C:\Program Files\Microsoft Visual Studio\2022\Professional\VC\Tools\MSVC\14.44.35207\include\list

; 324  :         _Head->_Prev->_Next = nullptr;

  001e7	8b 41 04	 mov	 eax, DWORD PTR [ecx+4]
  001ea	c7 00 00 00 00
	00		 mov	 DWORD PTR [eax], 0

; 325  : 
; 326  :         auto _Pnode = _Head->_Next;

  001f0	8b 01		 mov	 eax, DWORD PTR [ecx]

; 327  :         for (_Nodeptr _Pnext; _Pnode; _Pnode = _Pnext) {

  001f2	85 c0		 test	 eax, eax
  001f4	74 13		 je	 SHORT $LN473@ExitInstan
$LL363@ExitInstan:

; 328  :             _Pnext = _Pnode->_Next;

  001f6	8b 30		 mov	 esi, DWORD PTR [eax]
; File C:\Program Files\Microsoft Visual Studio\2022\Professional\VC\Tools\MSVC\14.44.35207\include\xmemory

; 289  :         ::operator delete(_Ptr, _Bytes);

  001f8	6a 0c		 push	 12			; 0000000cH
  001fa	50		 push	 eax
  001fb	e8 00 00 00 00	 call	 ??3@YAXPAXI@Z		; operator delete
  00200	83 c4 08	 add	 esp, 8
; File C:\Program Files\Microsoft Visual Studio\2022\Professional\VC\Tools\MSVC\14.44.35207\include\list

; 327  :         for (_Nodeptr _Pnext; _Pnode; _Pnode = _Pnext) {

  00203	8b c6		 mov	 eax, esi
  00205	85 f6		 test	 esi, esi
  00207	75 ed		 jne	 SHORT $LL363@ExitInstan
$LN473@ExitInstan:

; 1508 :         _My_data._Myhead->_Next = _My_data._Myhead;

  00209	8b 47 04	 mov	 eax, DWORD PTR [edi+4]
  0020c	89 00		 mov	 DWORD PTR [eax], eax

; 1509 :         _My_data._Myhead->_Prev = _My_data._Myhead;

  0020e	8b 47 04	 mov	 eax, DWORD PTR [edi+4]
  00211	89 40 04	 mov	 DWORD PTR [eax+4], eax
; File C:\IAGOS\server\v18\Source\Source\_Network\Misc\Include\mempooler.h

; 152  : 		DeleteCriticalSection( &m_cs );		

  00214	8d 47 18	 lea	 eax, DWORD PTR [edi+24]
  00217	50		 push	 eax
; File C:\Program Files\Microsoft Visual Studio\2022\Professional\VC\Tools\MSVC\14.44.35207\include\list

; 1510 :         _My_data._Mysize        = 0;

  00218	c7 47 08 00 00
	00 00		 mov	 DWORD PTR [edi+8], 0
; File C:\IAGOS\server\v18\Source\Source\_Network\Misc\Include\mempooler.h

; 152  : 		DeleteCriticalSection( &m_cs );		

  0021f	ff 15 00 00 00
	00		 call	 DWORD PTR __imp__DeleteCriticalSection@4
; File C:\Program Files\Microsoft Visual Studio\2022\Professional\VC\Tools\MSVC\14.44.35207\include\list

; 1518 :         _Node::_Free_non_head(_Al, _My_data._Myhead);

  00225	8b 4f 04	 mov	 ecx, DWORD PTR [edi+4]

; 324  :         _Head->_Prev->_Next = nullptr;

  00228	8b 41 04	 mov	 eax, DWORD PTR [ecx+4]
  0022b	c7 00 00 00 00
	00		 mov	 DWORD PTR [eax], 0

; 325  : 
; 326  :         auto _Pnode = _Head->_Next;

  00231	8b 01		 mov	 eax, DWORD PTR [ecx]

; 327  :         for (_Nodeptr _Pnext; _Pnode; _Pnode = _Pnext) {

  00233	85 c0		 test	 eax, eax
  00235	74 13		 je	 SHORT $LN474@ExitInstan
$LL400@ExitInstan:

; 328  :             _Pnext = _Pnode->_Next;

  00237	8b 30		 mov	 esi, DWORD PTR [eax]
; File C:\Program Files\Microsoft Visual Studio\2022\Professional\VC\Tools\MSVC\14.44.35207\include\xmemory

; 289  :         ::operator delete(_Ptr, _Bytes);

  00239	6a 0c		 push	 12			; 0000000cH
  0023b	50		 push	 eax
  0023c	e8 00 00 00 00	 call	 ??3@YAXPAXI@Z		; operator delete
  00241	83 c4 08	 add	 esp, 8
; File C:\Program Files\Microsoft Visual Studio\2022\Professional\VC\Tools\MSVC\14.44.35207\include\list

; 327  :         for (_Nodeptr _Pnext; _Pnode; _Pnode = _Pnext) {

  00244	8b c6		 mov	 eax, esi
  00246	85 f6		 test	 esi, esi
  00248	75 ed		 jne	 SHORT $LL400@ExitInstan
$LN474@ExitInstan:
; File C:\Program Files\Microsoft Visual Studio\2022\Professional\VC\Tools\MSVC\14.44.35207\include\xmemory

; 289  :         ::operator delete(_Ptr, _Bytes);

  0024a	6a 0c		 push	 12			; 0000000cH
  0024c	ff 77 04	 push	 DWORD PTR [edi+4]
  0024f	e8 00 00 00 00	 call	 ??3@YAXPAXI@Z		; operator delete
  00254	68 94 00 00 00	 push	 148			; 00000094H
  00259	57		 push	 edi
  0025a	e8 00 00 00 00	 call	 ??3@YAXPAXI@Z		; operator delete
  0025f	83 c4 10	 add	 esp, 16			; 00000010H
; File C:\IAGOS\server\v18\Source\Source\DatabaseServer\DatabaseServer.cpp

; 439  : 	SAFE_DELETE( CMover::m_pPool );

  00262	c7 05 00 00 00
	00 00 00 00 00	 mov	 DWORD PTR ?m_pPool@CMover@@2PAV?$MemPooler@VCMover@@@@A, 0 ; CMover::m_pPool
$LN4@ExitInstan:

; 440  : #endif	// __MEM_TRACE
; 441  : #endif	// __VM_0820
; 442  : 
; 443  : #if __VER >= 12 // __TAX
; 444  : 	CDbControllerTimer::GetInstance()->Destroy();

  0026c	e8 00 00 00 00	 call	 ?GetInstance@CDbControllerTimer@@SAPAV1@XZ ; CDbControllerTimer::GetInstance
  00271	8b c8		 mov	 ecx, eax
  00273	e8 00 00 00 00	 call	 ?Destroy@CDbControllerTimer@@QAEXXZ ; CDbControllerTimer::Destroy

; 445  : #endif	// __TAX
; 446  : #if __VER >= 12 // __LORD
; 447  : 	// ±şÁÖ ˝Ă˝şĹŰ Çů·Â °´ĂĽµéŔ» Á¦°ĹÇŃ´Ů
; 448  : 	CTLord::Instance()->DestroyColleagues();

  00278	e8 00 00 00 00	 call	 ?Instance@CTLord@@SAPAV1@XZ ; CTLord::Instance
  0027d	8b c8		 mov	 ecx, eax
  0027f	8b 10		 mov	 edx, DWORD PTR [eax]
  00281	ff 52 04	 call	 DWORD PTR [edx+4]

; 449  : #endif	// __LORD
; 450  : 
; 451  : 	UninitializeNetLib();

  00284	5f		 pop	 edi
  00285	5e		 pop	 esi
  00286	5b		 pop	 ebx
  00287	e9 00 00 00 00	 jmp	 ?UninitializeNetLib@@YAXXZ ; UninitializeNetLib
?ExitInstance@@YAXXZ ENDP				; ExitInstance
_TEXT	ENDS
; Function compile flags: /Ogtp
; File C:\IAGOS\server\v18\Source\Source\DatabaseServer\DatabaseServer.cpp
; File C:\IAGOS\server\v18\Source\Source\DatabaseServer\GuildHouseDBCtrl.h
; File C:\IAGOS\server\v18\Source\Source\DatabaseServer\DatabaseServer.cpp
; File C:\IAGOS\server\v18\Source\Source\DatabaseServer\CampusDBCtrl.h
; File C:\IAGOS\server\v18\Source\Source\DatabaseServer\DatabaseServer.cpp
; File C:\IAGOS\server\v18\Source\Source\_Network\Net\Include\DPMng.h
; File C:\IAGOS\server\v18\Source\Source\DatabaseServer\DatabaseServer.cpp
; File C:\IAGOS\server\v18\Source\Source\_network\CmnHdr.h
; File C:\IAGOS\server\v18\Source\Source\DatabaseServer\DatabaseServer.cpp
; File C:\IAGOS\server\v18\Source\Source\_Network\Misc\Include\MyTrace.h
; File C:\Program Files\Microsoft Visual Studio\2022\Professional\VC\Tools\MSVC\14.44.35207\atlmfc\include\atltime.h
; File C:\IAGOS\server\v18\Source\Source\_Network\Misc\Include\MyTrace.h
; File C:\Program Files\Microsoft Visual Studio\2022\Professional\VC\Tools\MSVC\14.44.35207\atlmfc\include\atltime.h
; File C:\Program Files\Microsoft Visual Studio\2022\Professional\VC\Tools\MSVC\14.44.35207\atlmfc\include\afxstr.h
; File C:\Program Files\Microsoft Visual Studio\2022\Professional\VC\Tools\MSVC\14.44.35207\atlmfc\include\atlsimpstr.h
; File C:\Program Files\Microsoft Visual Studio\2022\Professional\VC\Tools\MSVC\14.44.35207\atlmfc\include\cstringt.h
; File C:\Program Files\Microsoft Visual Studio\2022\Professional\VC\Tools\MSVC\14.44.35207\atlmfc\include\atlsimpstr.h
; File C:\IAGOS\server\v18\Source\Source\DatabaseServer\DatabaseServer.cpp
; File C:\Program Files\Microsoft Visual Studio\2022\Professional\VC\Tools\MSVC\14.44.35207\atlmfc\include\atltime.h
; File C:\Program Files\Microsoft Visual Studio\2022\Professional\VC\Tools\MSVC\14.44.35207\atlmfc\include\atlsimpstr.h
; File C:\IAGOS\server\v18\Source\Source\DatabaseServer\DatabaseServer.cpp
;	COMDAT ?InitInstance@@YAHPAUHINSTANCE__@@H@Z
_TEXT	SEGMENT
_dwBytesWritten$2 = -452				; size = 4
_time$ = -448						; size = 8
$T3 = -440						; size = 4
_dwData$4 = -440					; size = 4
_ptmTemp$5 = -436					; size = 36
_szMsg$6 = -400						; size = 256
_szBuffer$7 = -144					; size = 128
__$ArrayPad$ = -16					; size = 4
__$EHRec$ = -12						; size = 12
_hInstance$ = 8						; size = 4
_nCmdShow$ = 12						; size = 4
?InitInstance@@YAHPAUHINSTANCE__@@H@Z PROC		; InitInstance, COMDAT

; 200  : {

  00000	55		 push	 ebp
  00001	8b ec		 mov	 ebp, esp
  00003	6a ff		 push	 -1
  00005	68 00 00 00 00	 push	 __ehhandler$?InitInstance@@YAHPAUHINSTANCE__@@H@Z
  0000a	64 a1 00 00 00
	00		 mov	 eax, DWORD PTR fs:0
  00010	50		 push	 eax
  00011	81 ec b8 01 00
	00		 sub	 esp, 440		; 000001b8H
  00017	a1 00 00 00 00	 mov	 eax, DWORD PTR ___security_cookie
  0001c	33 c5		 xor	 eax, ebp
  0001e	89 45 f0	 mov	 DWORD PTR __$ArrayPad$[ebp], eax
  00021	56		 push	 esi
  00022	57		 push	 edi
  00023	50		 push	 eax
  00024	8d 45 f4	 lea	 eax, DWORD PTR __$EHRec$[ebp]
  00027	64 a3 00 00 00
	00		 mov	 DWORD PTR fs:0, eax
  0002d	8b 45 08	 mov	 eax, DWORD PTR _hInstance$[ebp]

; 201  : 	HWND hWnd;
; 202  : 
; 203  : 	hInst = hInstance; // Store instance handle in our global variable
; 204  : 
; 205  : 	hMainWnd	= hWnd	= CreateWindow(szWindowClass, szTitle, WS_OVERLAPPEDWINDOW,

  00030	6a 00		 push	 0
  00032	50		 push	 eax
  00033	6a 00		 push	 0
  00035	6a 00		 push	 0
  00037	6a 00		 push	 0
  00039	68 00 00 00 80	 push	 -2147483648		; 80000000H
  0003e	6a 00		 push	 0
  00040	68 00 00 00 80	 push	 -2147483648		; 80000000H
  00045	68 00 00 cf 00	 push	 13565952		; 00cf0000H
  0004a	68 00 00 00 00	 push	 OFFSET ?szTitle@@3PADA	; szTitle
  0004f	68 00 00 00 00	 push	 OFFSET ?szWindowClass@@3PADA ; szWindowClass
  00054	6a 00		 push	 0
  00056	a3 00 00 00 00	 mov	 DWORD PTR ?hInst@@3PAUHINSTANCE__@@A, eax ; hInst
  0005b	ff 15 00 00 00
	00		 call	 DWORD PTR __imp__CreateWindowExA@48
  00061	8b f0		 mov	 esi, eax
  00063	89 35 00 00 00
	00		 mov	 DWORD PTR ?hMainWnd@@3PAUHWND__@@A, esi ; hMainWnd

; 206  : 		CW_USEDEFAULT, 0, CW_USEDEFAULT, 0, NULL, NULL, hInstance, NULL);
; 207  : 
; 208  : 	if (!hWnd)

  00069	85 f6		 test	 esi, esi
  0006b	74 52		 je	 SHORT $LN108@InitInstan

; 209  : 	  return FALSE;
; 210  : 
; 211  : 	// Item ˝Ă¸®ľó ąřČŁ »ýĽş ·Ł´ý°Ş ĂĘ±âČ­
; 212  : 	xSRand( timeGetTime()  );	// ĽÓµµ¸¦ żäÇĎ´Â ·Ł´ýŔş xRandom()Ŕ» ľ˛µµ·Ď...

  0006d	ff 15 00 00 00
	00		 call	 DWORD PTR __imp__timeGetTime@0
  00073	50		 push	 eax
  00074	e8 00 00 00 00	 call	 ?xSRand@@YAXK@Z		; xSRand
  00079	83 c4 04	 add	 esp, 4

; 213  : 
; 214  : #ifndef _DEBUG
; 215  : //   InitEH();
; 216  : #endif	// _DEBUG
; 217  : 
; 218  : 	if( InitializeNetLib() == FALSE )

  0007c	e8 00 00 00 00	 call	 ?InitializeNetLib@@YAHXZ ; InitializeNetLib
  00081	85 c0		 test	 eax, eax
  00083	74 3a		 je	 SHORT $LN108@InitInstan

; 219  : 		return FALSE;
; 220  : 
; 221  : 	if( Script( g_szINI ) == FALSE )

  00085	68 00 00 00 00	 push	 OFFSET ?g_szINI@@3PADA
  0008a	e8 00 00 00 00	 call	 ?Script@@YAHPBD@Z	; Script
  0008f	83 c4 04	 add	 esp, 4
  00092	85 c0		 test	 eax, eax
  00094	75 46		 jne	 SHORT $LN4@InitInstan

; 222  : 	{
; 223  : 		char szMsg[256];
; 224  : 		sprintf( szMsg, "FAIL read ini - %s", g_szINI );

  00096	68 00 00 00 00	 push	 OFFSET ?g_szINI@@3PADA
  0009b	8d 85 70 fe ff
	ff		 lea	 eax, DWORD PTR _szMsg$6[ebp]
  000a1	68 00 00 00 00	 push	 OFFSET ??_C@_0BD@BGDLFGME@FAIL?5read?5ini?5?9?5?$CFs@
  000a6	50		 push	 eax
  000a7	e8 00 00 00 00	 call	 _sprintf
  000ac	83 c4 0c	 add	 esp, 12			; 0000000cH

; 225  : 		AfxMessageBox( szMsg, MB_OK );

  000af	8d 85 70 fe ff
	ff		 lea	 eax, DWORD PTR _szMsg$6[ebp]
  000b5	6a 00		 push	 0
  000b7	6a 00		 push	 0
  000b9	50		 push	 eax
$LN118@InitInstan:

; 425  : }

  000ba	e8 00 00 00 00	 call	 ?AfxMessageBox@@YGHPBDII@Z ; AfxMessageBox
$LN108@InitInstan:
  000bf	33 c0		 xor	 eax, eax
$LN1@InitInstan:
  000c1	8b 4d f4	 mov	 ecx, DWORD PTR __$EHRec$[ebp]
  000c4	64 89 0d 00 00
	00 00		 mov	 DWORD PTR fs:0, ecx
  000cb	59		 pop	 ecx
  000cc	5f		 pop	 edi
  000cd	5e		 pop	 esi
  000ce	8b 4d f0	 mov	 ecx, DWORD PTR __$ArrayPad$[ebp]
  000d1	33 cd		 xor	 ecx, ebp
  000d3	e8 00 00 00 00	 call	 @__security_check_cookie@4
  000d8	8b e5		 mov	 esp, ebp
  000da	5d		 pop	 ebp
  000db	c3		 ret	 0
$LN4@InitInstan:

; 226  : 		return FALSE;
; 227  : 	}
; 228  : 	
; 229  : 	if( CQuery::EnableConnectionPooling() )

  000dc	e8 00 00 00 00	 call	 ?EnableConnectionPooling@CQuery@@SAHXZ ; CQuery::EnableConnectionPooling
  000e1	85 c0		 test	 eax, eax
  000e3	74 0b		 je	 SHORT $LN5@InitInstan

; 230  : 		OutputDebugString( "EnableConnectionPooling\n" );

  000e5	68 00 00 00 00	 push	 OFFSET ??_C@_0BJ@POMECNAN@EnableConnectionPooling?6@
  000ea	ff 15 00 00 00
	00		 call	 DWORD PTR __imp__OutputDebugStringA@4
$LN5@InitInstan:

; 231  : 	g_DbManager.CreateDbWorkers();

  000f0	8b 0d 00 00 00
	00		 mov	 ecx, DWORD PTR ?g_DbManager@@3AAVCDbManager@@A ; g_DbManager
  000f6	e8 00 00 00 00	 call	 ?CreateDbWorkers@CDbManager@@QAEHXZ ; CDbManager::CreateDbWorkers

; 232  : 
; 233  : /*
; 234  : #ifdef __S0114_RELOADPRO
; 235  : 	SetTimer( hWnd, TID_RELOAD_PROJECT, SEC( 30 ), NULL );
; 236  : #endif // __S0114_RELOADPRO
; 237  : */
; 238  : #ifdef __INTERNALSERVER
; 239  : 	SetTimer(  hWnd, TID_QUERY_REMOVE_GUILD_BANK_TBL, MIN( 1 ), NULL );
; 240  : #else	// __INTERNALSERVER
; 241  : 	SetTimer(  hWnd, TID_QUERY_REMOVE_GUILD_BANK_TBL, MIN( 10 ), NULL );

  000fb	8b 3d 00 00 00
	00		 mov	 edi, DWORD PTR __imp__SetTimer@16
  00101	6a 00		 push	 0
  00103	68 c0 27 09 00	 push	 600000			; 000927c0H
  00108	6a 03		 push	 3
  0010a	56		 push	 esi
  0010b	ff d7		 call	 edi

; 242  : #endif	// __INTERNALSERVER
; 243  : 
; 244  : #ifdef __VERIFY_PLAYER
; 245  : 	g_DbManager.VerifyPlayer();
; 246  : 	return FALSE;
; 247  : #endif	// __VERIFY_PLAYER
; 248  : #ifdef __PROVIDE
; 249  : 	return TRUE;
; 250  : #endif	// __PROVIDE
; 251  : //______________________________________________________________________
; 252  : #ifdef __CONV_SKILL
; 253  : 	g_DbManager.ConvSkill();
; 254  : 	if( MB_OK != AfxMessageBox( "Complete Skill Convert", MB_OK ) )
; 255  : 		return FALSE;
; 256  : 	return FALSE;
; 257  : #endif	// __CONV_SKILL
; 258  : #ifdef __CONV_SKILL_11_MONTH_JOB1
; 259  : 	AfxMessageBox( "Start Skill Convert 11_Month Point", MB_OK );
; 260  : 	g_DbManager.ConvSkill_11_MONTH_POINT();
; 261  : 	if( MB_OK != AfxMessageBox( "Complete Skill Convert 11_Month Point", MB_OK ) )
; 262  : 		return FALSE;
; 263  : 	return FALSE;	
; 264  : #endif // __CONV_SKILL_11_MONTH_JOB1
; 265  : #ifdef __CONV_SKILL_11_MONTH_JOB2
; 266  : 	AfxMessageBox( "Start Skill Convert 11_Month", MB_OK );
; 267  : 	g_DbManager.ConvSkill_11_MONTH();
; 268  : 	if( MB_OK != AfxMessageBox( "Complete Skill Convert 11_Month", MB_OK ) )
; 269  : 		return FALSE;
; 270  : 	return FALSE;	
; 271  : #endif // __CONV_SKILL_11_MONTH_JOB2
; 272  : #ifdef __CONV_SERIAL_NUMBER
; 273  : 	g_DbManager.SN();
; 274  : 	return FALSE;
; 275  : #endif	// __CONV_SERIAL_NUMBER
; 276  : #ifdef __CONV_SKILL_STOP
; 277  : 	g_DbManager.ConvSkillStop();
; 278  : 	if( MB_OK != AfxMessageBox( "żĎ·á ÄÁąöĆ® ˝şĹł ˝şĹé", MB_OK ) )
; 279  : 		return FALSE;
; 280  : #endif // __CONV_SKILL_STOP
; 281  : 	
; 282  : #ifdef __S0707_ITEM_CONV
; 283  : 	if( g_DbManager.ConvItem() )	// // ľĆŔĚĹŰ ÇÁ·ÎĆŰĆĽ°ˇ ąŮ˛îľúŔ»˝Ă »çżë
; 284  : 	{
; 285  : 		if( MB_OK != AfxMessageBox( "żĎ·á ÄÁąöĆ® Item", MB_OK ) )
; 286  : 			return FALSE;
; 287  : 	}
; 288  : 	else
; 289  : 	{
; 290  : 		if( MB_OK != AfxMessageBox( "˝ÇĆĐ ÄÁąöĆ® Item", MB_OK ) )
; 291  : 			return FALSE;
; 292  : 	}
; 293  : #endif // __S0707_ITEM_CONV
; 294  : 		
; 295  : #ifdef __ITEM_REMOVE_LIST
; 296  : 	if( prj.IsConvMode( CONVER_ITEM_START ) )

  0010d	6a 01		 push	 1
  0010f	b9 00 00 00 00	 mov	 ecx, OFFSET ?prj@@3VCProject@@A ; prj
  00114	e8 00 00 00 00	 call	 ?IsConvMode@CProject@@QAEHK@Z ; CProject::IsConvMode
  00119	85 c0		 test	 eax, eax
  0011b	74 4e		 je	 SHORT $LN6@InitInstan

; 297  : 	{
; 298  : 		if( prj.IsConvMode( REMOVE_ITEM_ALL ) )

  0011d	6a 04		 push	 4
  0011f	b9 00 00 00 00	 mov	 ecx, OFFSET ?prj@@3VCProject@@A ; prj
  00124	e8 00 00 00 00	 call	 ?IsConvMode@CProject@@QAEHK@Z ; CProject::IsConvMode
  00129	85 c0		 test	 eax, eax
  0012b	74 1d		 je	 SHORT $LN8@InitInstan

; 299  : 		{
; 300  : 			if( LoadRemoveItem( "LoadRemoveItemList.ini" ) == FALSE )

  0012d	68 00 00 00 00	 push	 OFFSET ??_C@_0BH@DEJALFOO@LoadRemoveItemList?4ini@
  00132	e8 00 00 00 00	 call	 ?LoadRemoveItem@@YAHPBD@Z ; LoadRemoveItem
  00137	83 c4 04	 add	 esp, 4
  0013a	85 c0		 test	 eax, eax
  0013c	75 0c		 jne	 SHORT $LN8@InitInstan

; 301  : 			{
; 302  : 				AfxMessageBox( "LoadRemoveItemList.ini FAILE", MB_OK );

  0013e	50		 push	 eax
  0013f	50		 push	 eax
  00140	68 00 00 00 00	 push	 OFFSET ??_C@_0BN@LPGCIDJ@LoadRemoveItemList?4ini?5FAILE@

; 303  : 				return FALSE;

  00145	e9 70 ff ff ff	 jmp	 $LN118@InitInstan
$LN8@InitInstan:

; 304  : 			}			
; 305  : 		}
; 306  : 		if( g_DbManager.ConvItemStart() )

  0014a	8b 0d 00 00 00
	00		 mov	 ecx, DWORD PTR ?g_DbManager@@3AAVCDbManager@@A ; g_DbManager
  00150	e8 00 00 00 00	 call	 ?ConvItemStart@CDbManager@@QAEHXZ ; CDbManager::ConvItemStart
  00155	85 c0		 test	 eax, eax
  00157	0f 84 62 ff ff
	ff		 je	 $LN108@InitInstan

; 307  : 		{
; 308  : 			AfxMessageBox( "ConvItem Success!", MB_OK );

  0015d	6a 00		 push	 0
  0015f	6a 00		 push	 0
  00161	68 00 00 00 00	 push	 OFFSET ??_C@_0BC@NIICKMCD@ConvItem?5Success?$CB@

; 309  : 		}
; 310  : 		return FALSE;
; 311  : 	}
; 312  : #endif // __ITEM_REMOVE_LIST
; 313  : 	
; 314  : 
; 315  : #ifdef __RECOVER0816
; 316  : 	if( g_DbManager.RecoverCharacter() )
; 317  : 	{
; 318  : 		AfxMessageBox( "3" );
; 319  : 		return FALSE;
; 320  : 	}
; 321  : 	else
; 322  : 	{
; 323  : 		AfxMessageBox( "4" );
; 324  : 	}
; 325  : #endif	// __RECOVER0816
; 326  : //______________________________________________________________________
; 327  : 
; 328  : 
; 329  : #if __VER >= 11 // __SYS_PLAYER_DATA
; 330  : 	if( !g_DbManager.LoadPlayerData() )

  00166	e9 4f ff ff ff	 jmp	 $LN118@InitInstan
$LN6@InitInstan:
  0016b	8b 0d 00 00 00
	00		 mov	 ecx, DWORD PTR ?g_DbManager@@3AAVCDbManager@@A ; g_DbManager
  00171	e8 00 00 00 00	 call	 ?LoadPlayerData@CDbManager@@QAEHXZ ; CDbManager::LoadPlayerData
  00176	85 c0		 test	 eax, eax
  00178	0f 84 41 ff ff
	ff		 je	 $LN108@InitInstan

; 331  : 		return FALSE;
; 332  : #else	// __SYS_PLAYER_DATA
; 333  : 	if( !g_DbManager.OpenPlayerID() )
; 334  : 	{
; 335  : 		ASSERT( 0 );
; 336  : 	}
; 337  : #endif	// __SYS_PLAYER_DATA
; 338  : 
; 339  : 	if( !g_DbManager.GetPartyName() )

  0017e	8b 0d 00 00 00
	00		 mov	 ecx, DWORD PTR ?g_DbManager@@3AAVCDbManager@@A ; g_DbManager
  00184	e8 00 00 00 00	 call	 ?GetPartyName@CDbManager@@QAEHXZ ; CDbManager::GetPartyName

; 340  : 	{
; 341  : 		ASSERT( 0 );
; 342  : 	}
; 343  : #ifndef __RT_1025	
; 344  : 	if( !g_DbManager.SetMessenger() )
; 345  : 	{
; 346  : 		ASSERT( 0 );
; 347  : 	}
; 348  : #endif	// __RT_1025
; 349  : 
; 350  : 	if( !g_DbManager.LoadPost() )

  00189	8b 0d 00 00 00
	00		 mov	 ecx, DWORD PTR ?g_DbManager@@3AAVCDbManager@@A ; g_DbManager
  0018f	e8 00 00 00 00	 call	 ?LoadPost@CDbManager@@QAEHXZ ; CDbManager::LoadPost

; 351  : 	{
; 352  : 		ASSERT( 0 );
; 353  : 	}
; 354  : 	SetTimer( hWnd, TID_POSTPROC, MIN( 1 ), NULL );

  00194	6a 00		 push	 0
  00196	68 60 ea 00 00	 push	 60000			; 0000ea60H
  0019b	6a 02		 push	 2
  0019d	56		 push	 esi
  0019e	ff d7		 call	 edi

; 355  : 
; 356  : 	if( !CEventGeneric::GetInstance()->LoadScript( "propEvent.inc" ) )

  001a0	68 00 00 00 00	 push	 OFFSET ??_C@_0O@KGDKAKJB@propEvent?4inc@
  001a5	e8 00 00 00 00	 call	 ?GetInstance@CEventGeneric@@SAPAV1@XZ ; CEventGeneric::GetInstance
  001aa	8b c8		 mov	 ecx, eax
  001ac	e8 00 00 00 00	 call	 ?LoadScript@CEventGeneric@@QAEHPBD@Z ; CEventGeneric::LoadScript
  001b1	85 c0		 test	 eax, eax
  001b3	75 0c		 jne	 SHORT $LN13@InitInstan

; 357  : 	{
; 358  : //		ASSERT( 0 );
; 359  : 		AfxMessageBox( "propevent.inc" );

  001b5	50		 push	 eax
  001b6	50		 push	 eax
  001b7	68 00 00 00 00	 push	 OFFSET ??_C@_0O@OJGHAJEB@propevent?4inc@
  001bc	e8 00 00 00 00	 call	 ?AfxMessageBox@@YGHPBDII@Z ; AfxMessageBox
$LN13@InitInstan:

; 360  : 	}
; 361  : 	SetTimer( hWnd, TIMER_ID_EVENT_GENERIC, MIN( 1 ), NULL );

  001c1	6a 00		 push	 0
  001c3	68 60 ea 00 00	 push	 60000			; 0000ea60H
  001c8	6a 04		 push	 4
  001ca	56		 push	 esi
  001cb	ff d7		 call	 edi

; 362  : 
; 363  : 	if( !g_DbManager.OpenGuildCombat() )

  001cd	8b 0d 00 00 00
	00		 mov	 ecx, DWORD PTR ?g_DbManager@@3AAVCDbManager@@A ; g_DbManager
  001d3	e8 00 00 00 00	 call	 ?OpenGuildCombat@CDbManager@@QAEHXZ ; CDbManager::OpenGuildCombat

; 364  : 	{
; 365  : 		ASSERT( 0 );
; 366  : 	}
; 367  : 
; 368  : #if __VER >= 12 // __LORD
; 369  : 	// ±şÁÖ ˝Ă˝şĹŰŔ» ±¸ĽşÇĎ´Â Çů·Â °´ĂĽµéŔ» »ýĽşÇŃ´Ů
; 370  : 	CTLord::Instance()->CreateColleagues();

  001d8	e8 00 00 00 00	 call	 ?Instance@CTLord@@SAPAV1@XZ ; CTLord::Instance
  001dd	8b c8		 mov	 ecx, eax
  001df	8b 10		 mov	 edx, DWORD PTR [eax]
  001e1	ff 12		 call	 DWORD PTR [edx]

; 371  : #endif	// __LORD
; 372  : #if __VER >= 12 // __TAX
; 373  : 	CDbControllerTimer::GetInstance()->Create();

  001e3	e8 00 00 00 00	 call	 ?GetInstance@CDbControllerTimer@@SAPAV1@XZ ; CDbControllerTimer::GetInstance
  001e8	8b c8		 mov	 ecx, eax
  001ea	e8 00 00 00 00	 call	 ?Create@CDbControllerTimer@@QAEXXZ ; CDbControllerTimer::Create

; 374  : #endif	// __TAX
; 375  : #ifdef __QUIZ
; 376  : 	// load QuizEvent Id
; 377  : 	if( !CQuizDBMng::GetInstance()->InitQuizEventId() )

  001ef	e8 00 00 00 00	 call	 ?GetInstance@CQuizDBMng@@SAPAV1@XZ ; CQuizDBMng::GetInstance
  001f4	8b c8		 mov	 ecx, eax
  001f6	e8 00 00 00 00	 call	 ?InitQuizEventId@CQuizDBMng@@QAEHXZ ; CQuizDBMng::InitQuizEventId

; 378  : 	{
; 379  : 		ASSERT( 0 );
; 380  : 	}
; 381  : 	//CQuizDBMng::GetInstance()->PostRequest( QUERY_QUIZ_INIT );
; 382  : #endif // __QUIZ
; 383  : 
; 384  : #if __VER >= 15 // __GUILD_HOUSE
; 385  : 	GuildHouseDBMng->PostRequest( GUILDHOUSE_LOAD );

  001fb	e8 00 00 00 00	 call	 ?GetInstance@CGuildHouseDBMng@@SAPAV1@XZ ; CGuildHouseDBMng::GetInstance
; File C:\IAGOS\server\v18\Source\Source\DatabaseServer\GuildHouseDBCtrl.h

; 87   : 	{ return m_GHDBCtrl.PostRequest( nQuery, lpBuf, nBufSize, dwCompletionKey );	}

  00200	6a 00		 push	 0
  00202	6a 00		 push	 0
  00204	6a 00		 push	 0
  00206	6a 00		 push	 0
  00208	8b c8		 mov	 ecx, eax
  0020a	e8 00 00 00 00	 call	 ?PostRequest@CDbController@@QAEHHPAEHK@Z ; CDbController::PostRequest
; File C:\IAGOS\server\v18\Source\Source\DatabaseServer\DatabaseServer.cpp

; 388  : 	CCampusHelper::GetInstance()->PostRequest( CAMPUS_LOAD );

  0020f	e8 00 00 00 00	 call	 ?GetInstance@CCampusHelper@@SAPAV1@XZ ; CCampusHelper::GetInstance
; File C:\IAGOS\server\v18\Source\Source\DatabaseServer\CampusDBCtrl.h

; 72   : 	{ return m_CampusDBCtrl.PostRequest( nQuery, lpBuf, nBufSize, dwCompletionKey );	}

  00214	6a 00		 push	 0
  00216	6a 00		 push	 0
  00218	6a 00		 push	 0
  0021a	6a 00		 push	 0
  0021c	8b c8		 mov	 ecx, eax
  0021e	e8 00 00 00 00	 call	 ?PostRequest@CDbController@@QAEHHPAEHK@Z ; CDbController::PostRequest
; File C:\IAGOS\server\v18\Source\Source\DatabaseServer\DatabaseServer.cpp

; 391  : 	if( !g_dpLoginSrvr.StartServer( PN_DBSRVR_0 ) )

  00223	6a 00		 push	 0
  00225	6a 00		 push	 0
  00227	68 58 1b 00 00	 push	 7000			; 00001b58H
  0022c	b9 00 00 00 00	 mov	 ecx, OFFSET ?g_dpLoginSrvr@@3VCDPLoginSrvr@@A ; g_dpLoginSrvr
  00231	e8 00 00 00 00	 call	 ?StartServer@CDPMng@@QAEHGHW4BUFFER_TYPE@@@Z ; CDPMng::StartServer
  00236	85 c0		 test	 eax, eax
  00238	0f 84 81 fe ff
	ff		 je	 $LN108@InitInstan

; 392  : 	{
; 393  : 		return FALSE;
; 394  : 	}
; 395  : 	
; 396  : 	if( !CDPTrans::GetInstance()->StartServer( PN_DBSRVR_1 ) )

  0023e	6a 00		 push	 0
  00240	6a 00		 push	 0
  00242	68 c0 5d 00 00	 push	 24000			; 00005dc0H
  00247	e8 00 00 00 00	 call	 ?GetInstance@CDPTrans@@SAPAV1@XZ ; CDPTrans::GetInstance
  0024c	8b c8		 mov	 ecx, eax
  0024e	e8 00 00 00 00	 call	 ?StartServer@CDPMng@@QAEHGHW4BUFFER_TYPE@@@Z ; CDPMng::StartServer
  00253	85 c0		 test	 eax, eax
  00255	0f 84 64 fe ff
	ff		 je	 $LN108@InitInstan

; 397  : 	{
; 398  : 		return FALSE;
; 399  : 	}
; 400  : 
; 401  : 	if( !g_dpCoreSrvr.StartServer( PN_DBSRVR_2 ) )

  0025b	6a 00		 push	 0
  0025d	6a 00		 push	 0
  0025f	68 20 1c 00 00	 push	 7200			; 00001c20H
  00264	b9 00 00 00 00	 mov	 ecx, OFFSET ?g_dpCoreSrvr@@3VCDPCoreSrvr@@A ; g_dpCoreSrvr
  00269	e8 00 00 00 00	 call	 ?StartServer@CDPMng@@QAEHGHW4BUFFER_TYPE@@@Z ; CDPMng::StartServer
  0026e	85 c0		 test	 eax, eax
  00270	0f 84 49 fe ff
	ff		 je	 $LN108@InitInstan
; File C:\IAGOS\server\v18\Source\Source\_Network\Net\Include\DPMng.h

; 163  : 		return( CreateDPObject( bSingleThreaded ) && 

  00276	6a 00		 push	 0
  00278	b9 00 00 00 00	 mov	 ecx, OFFSET ?g_dpAccountClient@@3VCDPAccountClient@@A ; g_dpAccountClient
  0027d	e8 00 00 00 00	 call	 ?CreateDPObject@CDPMng@@QAEHH@Z ; CDPMng::CreateDPObject
  00282	85 c0		 test	 eax, eax
  00284	0f 84 35 fe ff
	ff		 je	 $LN108@InitInstan
  0028a	68 e1 2e 00 00	 push	 12001			; 00002ee1H
  0028f	68 00 00 00 00	 push	 OFFSET ?lpConnection@@3PADA ; lpConnection
  00294	b9 00 00 00 00	 mov	 ecx, OFFSET ?g_dpAccountClient@@3VCDPAccountClient@@A ; g_dpAccountClient
  00299	e8 00 00 00 00	 call	 ?InitConnection@CDPMng@@QAEHPAXG@Z ; CDPMng::InitConnection
  0029e	85 c0		 test	 eax, eax
  002a0	0f 84 19 fe ff
	ff		 je	 $LN108@InitInstan
  002a6	6a 00		 push	 0
  002a8	6a 00		 push	 0
  002aa	b9 00 00 00 00	 mov	 ecx, OFFSET ?g_dpAccountClient@@3VCDPAccountClient@@A ; g_dpAccountClient
  002af	e8 00 00 00 00	 call	 ?JoinSession@CDPMng@@QAEHPBDW4BUFFER_TYPE@@@Z ; CDPMng::JoinSession
  002b4	85 c0		 test	 eax, eax
  002b6	0f 84 03 fe ff
	ff		 je	 $LN108@InitInstan
; File C:\IAGOS\server\v18\Source\Source\DatabaseServer\DatabaseServer.cpp

; 408  : 	g_dpAccountClient.SendAddIdofServer( g_appInfo.dwSys );

  002bc	ff 35 00 00 00
	00		 push	 DWORD PTR ?g_appInfo@@3UAppInfo@@A
  002c2	b9 00 00 00 00	 mov	 ecx, OFFSET ?g_dpAccountClient@@3VCDPAccountClient@@A ; g_dpAccountClient
  002c7	e8 00 00 00 00	 call	 ?SendAddIdofServer@CDPAccountClient@@QAEXK@Z ; CDPAccountClient::SendAddIdofServer
; File C:\IAGOS\server\v18\Source\Source\_network\CmnHdr.h

; 412  : 	HANDLE	hWriteHandle	= GetStdHandle( STD_OUTPUT_HANDLE );

  002cc	6a f5		 push	 -11			; fffffff5H
  002ce	c7 85 48 fe ff
	ff 01 00 00 00	 mov	 DWORD PTR _dwData$4[ebp], 1
  002d8	ff 15 00 00 00
	00		 call	 DWORD PTR __imp__GetStdHandle@4

; 413  : 	DWORD dwBytesWritten;
; 414  : 	WriteFile( hWriteHandle, &dwData, sizeof(dwData), &dwBytesWritten, NULL );	

  002de	6a 00		 push	 0
  002e0	8d 8d 3c fe ff
	ff		 lea	 ecx, DWORD PTR _dwBytesWritten$2[ebp]
  002e6	51		 push	 ecx
  002e7	6a 04		 push	 4
  002e9	8d 8d 48 fe ff
	ff		 lea	 ecx, DWORD PTR _dwData$4[ebp]
  002ef	51		 push	 ecx
  002f0	50		 push	 eax
  002f1	ff 15 00 00 00
	00		 call	 DWORD PTR __imp__WriteFile@20
; File C:\IAGOS\server\v18\Source\Source\DatabaseServer\DatabaseServer.cpp

; 413  : 	SetWindowPos( hWnd, NULL, x, y, 400, 416, SWP_SHOWWINDOW );

  002f7	6a 40		 push	 64			; 00000040H
  002f9	68 a0 01 00 00	 push	 416			; 000001a0H
  002fe	68 90 01 00 00	 push	 400			; 00000190H
  00303	6a 00		 push	 0
  00305	6a 00		 push	 0
  00307	6a 00		 push	 0
  00309	56		 push	 esi
  0030a	ff 15 00 00 00
	00		 call	 DWORD PTR __imp__SetWindowPos@28
; File C:\IAGOS\server\v18\Source\Source\_Network\Misc\Include\MyTrace.h

; 49   : 			m_hfont		= CreateFont( 24, 0, 0, 0, 0, 0, 0, 0, DEFAULT_CHARSET, 0, 0, PROOF_QUALITY, VARIABLE_PITCH | FF_DONTCARE, lpszFace );

  00310	68 00 00 00 00	 push	 OFFSET ??_C@_07NPJJGNLP@SquireD@
  00315	6a 02		 push	 2
  00317	6a 02		 push	 2
  00319	6a 00		 push	 0
  0031b	6a 00		 push	 0
  0031d	6a 01		 push	 1
  0031f	6a 00		 push	 0
  00321	6a 00		 push	 0
  00323	6a 00		 push	 0
  00325	6a 00		 push	 0
  00327	6a 00		 push	 0
  00329	6a 00		 push	 0
  0032b	6a 00		 push	 0
  0032d	6a 18		 push	 24			; 00000018H
  0032f	89 35 20 11 00
	00		 mov	 DWORD PTR ?g_MyTrace@@3VCMyTrace@@A+4384, esi
  00335	c7 05 24 11 00
	00 ff ff ff 00	 mov	 DWORD PTR ?g_MyTrace@@3VCMyTrace@@A+4388, 16777215 ; 00ffffffH
  0033f	c7 05 28 11 00
	00 00 00 00 00	 mov	 DWORD PTR ?g_MyTrace@@3VCMyTrace@@A+4392, 0
  00349	ff 15 00 00 00
	00		 call	 DWORD PTR __imp__CreateFontA@56
; File C:\Program Files\Microsoft Visual Studio\2022\Professional\VC\Tools\MSVC\14.44.35207\atlmfc\include\atltime.h

; 377  : 	return( CTime( ::_time64( NULL ) ) );

  0034f	6a 00		 push	 0
; File C:\IAGOS\server\v18\Source\Source\_Network\Misc\Include\MyTrace.h

; 49   : 			m_hfont		= CreateFont( 24, 0, 0, 0, 0, 0, 0, 0, DEFAULT_CHARSET, 0, 0, PROOF_QUALITY, VARIABLE_PITCH | FF_DONTCARE, lpszFace );

  00351	a3 1c 11 00 00	 mov	 DWORD PTR ?g_MyTrace@@3VCMyTrace@@A+4380, eax
; File C:\Program Files\Microsoft Visual Studio\2022\Professional\VC\Tools\MSVC\14.44.35207\atlmfc\include\atltime.h

; 377  : 	return( CTime( ::_time64( NULL ) ) );

  00356	e8 00 00 00 00	 call	 __time64

; 420  : 	m_time( time )

  0035b	89 85 40 fe ff
	ff		 mov	 DWORD PTR _time$[ebp], eax

; 1069 : 	if (_localtime64_s(&ptmTemp, &m_time) != 0)

  00361	8d 85 40 fe ff
	ff		 lea	 eax, DWORD PTR _time$[ebp]
  00367	50		 push	 eax
  00368	8d 85 4c fe ff
	ff		 lea	 eax, DWORD PTR _ptmTemp$5[ebp]

; 420  : 	m_time( time )

  0036e	89 95 44 fe ff
	ff		 mov	 DWORD PTR _time$[ebp+4], edx

; 1069 : 	if (_localtime64_s(&ptmTemp, &m_time) != 0)

  00374	50		 push	 eax
  00375	e8 00 00 00 00	 call	 __localtime64_s
  0037a	83 c4 0c	 add	 esp, 12			; 0000000cH
  0037d	85 c0		 test	 eax, eax
  0037f	0f 85 f3 00 00
	00		 jne	 $LN120@InitInstan

; 1072 : 	}
; 1073 : 
; 1074 : 	if (!_tcsftime(szBuffer, maxTimeBufferSize, pFormat, &ptmTemp))

  00385	8d 85 4c fe ff
	ff		 lea	 eax, DWORD PTR _ptmTemp$5[ebp]
  0038b	50		 push	 eax
  0038c	68 00 00 00 00	 push	 OFFSET ??_C@_0BC@FBAMFINP@?$CFY?1?$CFm?1?$CFd?5?$CFH?3?$CFM?3?$CFS@
  00391	8d 85 70 ff ff
	ff		 lea	 eax, DWORD PTR _szBuffer$7[ebp]
  00397	68 80 00 00 00	 push	 128			; 00000080H
  0039c	50		 push	 eax
  0039d	e8 00 00 00 00	 call	 _strftime
  003a2	83 c4 10	 add	 esp, 16			; 00000010H
  003a5	85 c0		 test	 eax, eax
  003a7	75 06		 jne	 SHORT $LN41@InitInstan

; 1075 : 	{
; 1076 : 		szBuffer[0] = '\0';

  003a9	88 85 70 ff ff
	ff		 mov	 BYTE PTR _szBuffer$7[ebp], al
$LN41@InitInstan:
; File C:\Program Files\Microsoft Visual Studio\2022\Professional\VC\Tools\MSVC\14.44.35207\atlmfc\include\afxstr.h

; 56   : 		return( AfxGetStringManager() );

  003af	e8 00 00 00 00	 call	 ?AfxGetStringManager@@YGPAUIAtlStringMgr@ATL@@XZ ; AfxGetStringManager
  003b4	8b c8		 mov	 ecx, eax
; File C:\Program Files\Microsoft Visual Studio\2022\Professional\VC\Tools\MSVC\14.44.35207\atlmfc\include\atlsimpstr.h

; 209  : 		ATLENSURE( pStringMgr != NULL );

  003b6	85 c9		 test	 ecx, ecx
  003b8	0f 84 c4 00 00
	00		 je	 $LN121@InitInstan

; 210  : 		CStringData* pData = pStringMgr->GetNilString();

  003be	8b 01		 mov	 eax, DWORD PTR [ecx]
  003c0	ff 50 0c	 call	 DWORD PTR [eax+12]

; 211  : 		Attach( pData );

  003c3	83 c0 10	 add	 eax, 16			; 00000010H
  003c6	89 85 48 fe ff
	ff		 mov	 DWORD PTR $T3[ebp], eax
; File C:\Program Files\Microsoft Visual Studio\2022\Professional\VC\Tools\MSVC\14.44.35207\atlmfc\include\cstringt.h

; 2712 : 		if( (pv != NULL) && IS_INTRESOURCE( pv ) )

  003cc	8d 85 70 ff ff
	ff		 lea	 eax, DWORD PTR _szBuffer$7[ebp]

; 1052 : 		CThisSimpleString( StringTraits::GetDefaultManager() )

  003d2	c7 45 fc 01 00
	00 00		 mov	 DWORD PTR __$EHRec$[ebp+8], 1

; 2712 : 		if( (pv != NULL) && IS_INTRESOURCE( pv ) )

  003d9	a9 00 00 ff ff	 test	 eax, -65536		; ffff0000H
  003de	75 11		 jne	 SHORT $LN107@InitInstan

; 2713 : 		{
; 2714 : 			UINT nID = LOWORD( reinterpret_cast< DWORD_PTR >( pv ) );

  003e0	0f b7 c0	 movzx	 eax, ax

; 2715 : 			(nID);
; 2716 : #ifdef _ATL_USE_WINAPI_FAMILY_DESKTOP_APP
; 2717 : 			if( !LoadString( nID ) )

  003e3	8d 8d 48 fe ff
	ff		 lea	 ecx, DWORD PTR $T3[ebp]
  003e9	50		 push	 eax
  003ea	e8 00 00 00 00	 call	 ?LoadStringA@?$CStringT@DV?$StrTraitMFC@DV?$ChTraitsCRT@D@ATL@@@@@ATL@@QAEHI@Z ; ATL::CStringT<char,StrTraitMFC<char,ATL::ChTraitsCRT<char> > >::LoadStringA

; 1054 : 		if( !CheckImplicitLoad( pszSrc ) )

  003ef	eb 2b		 jmp	 SHORT $LN78@InitInstan
$LN107@InitInstan:
; File C:\Program Files\Microsoft Visual Studio\2022\Professional\VC\Tools\MSVC\14.44.35207\atlmfc\include\atlsimpstr.h

; 730  : 		return( int( strlen( psz ) ) );

  003f1	8d 8d 70 ff ff
	ff		 lea	 ecx, DWORD PTR _szBuffer$7[ebp]
  003f7	8d 51 01	 lea	 edx, DWORD PTR [ecx+1]
  003fa	66 0f 1f 44 00
	00		 npad	 6
$LL115@InitInstan:
  00400	8a 01		 mov	 al, BYTE PTR [ecx]
  00402	41		 inc	 ecx
  00403	84 c0		 test	 al, al
  00405	75 f9		 jne	 SHORT $LL115@InitInstan
  00407	2b ca		 sub	 ecx, edx

; 606  : 		SetString( pszSrc, StringLength( pszSrc ) );

  00409	8d 85 70 ff ff
	ff		 lea	 eax, DWORD PTR _szBuffer$7[ebp]
  0040f	51		 push	 ecx
  00410	50		 push	 eax
  00411	8d 8d 48 fe ff
	ff		 lea	 ecx, DWORD PTR $T3[ebp]
  00417	e8 00 00 00 00	 call	 ?SetString@?$CSimpleStringT@D$0A@@ATL@@QAEXPBDH@Z ; ATL::CSimpleStringT<char,0>::SetString
$LN78@InitInstan:
; File C:\IAGOS\server\v18\Source\Source\DatabaseServer\DatabaseServer.cpp

; 418  : 	g_MyTrace.Add( 0, FALSE, "%s", time.Format( "%Y/%m/%d %H:%M:%S" ) );

  0041c	ff b5 48 fe ff
	ff		 push	 DWORD PTR $T3[ebp]
  00422	c7 45 fc 02 00
	00 00		 mov	 DWORD PTR __$EHRec$[ebp+8], 2
  00429	68 00 00 00 00	 push	 OFFSET ??_C@_02DKCKIIND@?$CFs@
  0042e	6a 00		 push	 0
  00430	6a 00		 push	 0
  00432	68 00 00 00 00	 push	 OFFSET ?g_MyTrace@@3VCMyTrace@@A ; g_MyTrace
  00437	e8 00 00 00 00	 call	 ?Add@CMyTrace@@QAAXKHPBDZZ ; CMyTrace::Add
  0043c	83 c4 14	 add	 esp, 20			; 00000014H
  0043f	c7 45 fc ff ff
	ff ff		 mov	 DWORD PTR __$EHRec$[ebp+8], -1
  00446	8d 8d 48 fe ff
	ff		 lea	 ecx, DWORD PTR $T3[ebp]
  0044c	e8 00 00 00 00	 call	 ??1?$CStringT@DV?$StrTraitMFC@DV?$ChTraitsCRT@D@ATL@@@@@ATL@@QAE@XZ ; ATL::CStringT<char,StrTraitMFC<char,ATL::ChTraitsCRT<char> > >::~CStringT<char,StrTraitMFC<char,ATL::ChTraitsCRT<char> > >

; 419  : 	g_MyTrace.AddLine( '\0' );

  00451	6a 00		 push	 0
  00453	b9 00 00 00 00	 mov	 ecx, OFFSET ?g_MyTrace@@3VCMyTrace@@A ; g_MyTrace
  00458	e8 00 00 00 00	 call	 ?AddLine@CMyTrace@@QAEXD@Z ; CMyTrace::AddLine

; 420  : 
; 421  : 	ShowWindow(hWnd, nCmdShow);

  0045d	ff 75 0c	 push	 DWORD PTR _nCmdShow$[ebp]
  00460	56		 push	 esi
  00461	ff 15 00 00 00
	00		 call	 DWORD PTR __imp__ShowWindow@8

; 422  : 	UpdateWindow(hWnd);

  00467	56		 push	 esi
  00468	ff 15 00 00 00
	00		 call	 DWORD PTR __imp__UpdateWindow@4

; 423  : 
; 424  : 	return TRUE;

  0046e	b8 01 00 00 00	 mov	 eax, 1
  00473	e9 49 fc ff ff	 jmp	 $LN1@InitInstan
$LN120@InitInstan:
; File C:\Program Files\Microsoft Visual Studio\2022\Professional\VC\Tools\MSVC\14.44.35207\atlmfc\include\atltime.h

; 1071 : 		AtlThrow(E_INVALIDARG);

  00478	68 57 00 07 80	 push	 -2147024809		; 80070057H
  0047d	e8 00 00 00 00	 call	 ?AtlThrowImpl@ATL@@YGXJ@Z ; ATL::AtlThrowImpl
$LN121@InitInstan:
; File C:\Program Files\Microsoft Visual Studio\2022\Professional\VC\Tools\MSVC\14.44.35207\atlmfc\include\atlsimpstr.h

; 209  : 		ATLENSURE( pStringMgr != NULL );

  00482	68 05 40 00 80	 push	 -2147467259		; 80004005H
  00487	e8 00 00 00 00	 call	 ?AtlThrowImpl@ATL@@YGXJ@Z ; ATL::AtlThrowImpl
$LN117@InitInstan:
  0048c	cc		 int	 3
_TEXT	ENDS
;	COMDAT text$x
text$x	SEGMENT
__unwindfunclet$?InitInstance@@YAHPAUHINSTANCE__@@H@Z$3:
  00000	8d 8d 48 fe ff
	ff		 lea	 ecx, DWORD PTR $T3[ebp]
  00006	e9 00 00 00 00	 jmp	 ??1?$CSimpleStringT@D$0A@@ATL@@QAE@XZ ; ATL::CSimpleStringT<char,0>::~CSimpleStringT<char,0>
__unwindfunclet$?InitInstance@@YAHPAUHINSTANCE__@@H@Z$0:
  0000b	8d 8d 48 fe ff
	ff		 lea	 ecx, DWORD PTR $T3[ebp]
  00011	e9 00 00 00 00	 jmp	 ??1?$CStringT@DV?$StrTraitMFC@DV?$ChTraitsCRT@D@ATL@@@@@ATL@@QAE@XZ ; ATL::CStringT<char,StrTraitMFC<char,ATL::ChTraitsCRT<char> > >::~CStringT<char,StrTraitMFC<char,ATL::ChTraitsCRT<char> > >
  00016	cc		 int	 3
  00017	cc		 int	 3
  00018	cc		 int	 3
  00019	cc		 int	 3
  0001a	cc		 int	 3
__ehhandler$?InitInstance@@YAHPAUHINSTANCE__@@H@Z:
  0001b	90		 npad	 1
  0001c	90		 npad	 1
  0001d	8b 54 24 08	 mov	 edx, DWORD PTR [esp+8]
  00021	8d 42 0c	 lea	 eax, DWORD PTR [edx+12]
  00024	8b 8a 3c fe ff
	ff		 mov	 ecx, DWORD PTR [edx-452]
  0002a	33 c8		 xor	 ecx, eax
  0002c	e8 00 00 00 00	 call	 @__security_check_cookie@4
  00031	8b 4a fc	 mov	 ecx, DWORD PTR [edx-4]
  00034	33 c8		 xor	 ecx, eax
  00036	e8 00 00 00 00	 call	 @__security_check_cookie@4
  0003b	b8 00 00 00 00	 mov	 eax, OFFSET __ehfuncinfo$?InitInstance@@YAHPAUHINSTANCE__@@H@Z
  00040	e9 00 00 00 00	 jmp	 ___CxxFrameHandler3
text$x	ENDS
?InitInstance@@YAHPAUHINSTANCE__@@H@Z ENDP		; InitInstance
; Function compile flags: /Ogtp
; File C:\IAGOS\server\v18\Source\Source\DatabaseServer\DatabaseServer.cpp
; File C:\IAGOS\server\v18\Source\Source\_Network\Mcl\Include\CMclCritSec.h
; File C:\IAGOS\server\v18\Source\Source\DatabaseServer\DatabaseServer.cpp
; File C:\IAGOS\server\v18\Source\Source\_Network\Mcl\Include\CMclCritSec.h
; File C:\IAGOS\server\v18\Source\Source\DatabaseServer\DatabaseServer.cpp
; File C:\IAGOS\server\v18\Source\Source\_Network\Mcl\Include\CMclCritSec.h
; File C:\IAGOS\server\v18\Source\Source\DatabaseServer\DatabaseServer.cpp
; File C:\IAGOS\server\v18\Source\Source\_Network\Mcl\Include\CMclCritSec.h
; File C:\IAGOS\server\v18\Source\Source\DatabaseServer\DatabaseServer.cpp
;	COMDAT ?WndProc@@YGJPAUHWND__@@IIJ@Z
_TEXT	SEGMENT
_nBufSize$2 = -16492					; size = 4
_nNum$3 = -16488					; size = 4
$T4 = -16488						; size = 4
$T5 = -16488						; size = 4
_ar$6 = -16484						; size = 16404
_ps$ = -80						; size = 64
__$ArrayPad$ = -16					; size = 4
__$EHRec$ = -12						; size = 12
_hWnd$ = 8						; size = 4
_message$ = 12						; size = 4
_wParam$ = 16						; size = 4
_lParam$ = 20						; size = 4
?WndProc@@YGJPAUHWND__@@IIJ@Z PROC			; WndProc, COMDAT

; 456  : {

  00000	55		 push	 ebp
  00001	8b ec		 mov	 ebp, esp
  00003	6a ff		 push	 -1
  00005	68 00 00 00 00	 push	 __ehhandler$?WndProc@@YGJPAUHWND__@@IIJ@Z
  0000a	64 a1 00 00 00
	00		 mov	 eax, DWORD PTR fs:0
  00010	50		 push	 eax
  00011	b8 60 40 00 00	 mov	 eax, 16480		; 00004060H
  00016	e8 00 00 00 00	 call	 __chkstk
  0001b	a1 00 00 00 00	 mov	 eax, DWORD PTR ___security_cookie
  00020	33 c5		 xor	 eax, ebp
  00022	89 45 f0	 mov	 DWORD PTR __$ArrayPad$[ebp], eax
  00025	56		 push	 esi
  00026	57		 push	 edi
  00027	50		 push	 eax
  00028	8d 45 f4	 lea	 eax, DWORD PTR __$EHRec$[ebp]
  0002b	64 a3 00 00 00
	00		 mov	 DWORD PTR fs:0, eax

; 457  : 	int wmId, wmEvent;
; 458  : 	PAINTSTRUCT ps;
; 459  : 	HDC hdc;
; 460  : 
; 461  : 	switch (message) 

  00031	8b 4d 0c	 mov	 ecx, DWORD PTR _message$[ebp]
  00034	8b 7d 08	 mov	 edi, DWORD PTR _hWnd$[ebp]
  00037	81 f9 11 01 00
	00		 cmp	 ecx, 273		; 00000111H
  0003d	0f 87 50 02 00
	00		 ja	 $LN34@WndProc
  00043	74 58		 je	 SHORT $LN8@WndProc
  00045	8b c1		 mov	 eax, ecx
  00047	83 e8 02	 sub	 eax, 2
  0004a	74 2f		 je	 SHORT $LN29@WndProc
  0004c	83 e8 0d	 sub	 eax, 13			; 0000000dH
  0004f	0f 85 52 02 00
	00		 jne	 $LN31@WndProc

; 578  : 						
; 579  : 					default:
; 580  : 						break;
; 581  : 				}
; 582  : 				break;
; 583  : 			}
; 584  : 		case WM_PAINT:
; 585  : 			hdc = BeginPaint(hWnd, &ps);

  00055	8d 45 b0	 lea	 eax, DWORD PTR _ps$[ebp]
  00058	50		 push	 eax
  00059	57		 push	 edi
  0005a	ff 15 00 00 00
	00		 call	 DWORD PTR __imp__BeginPaint@8

; 586  : 			g_MyTrace.Paint( hdc );

  00060	50		 push	 eax
  00061	b9 00 00 00 00	 mov	 ecx, OFFSET ?g_MyTrace@@3VCMyTrace@@A ; g_MyTrace
  00066	e8 00 00 00 00	 call	 ?Paint@CMyTrace@@QAEXPAUHDC__@@@Z ; CMyTrace::Paint

; 587  : 			EndPaint(hWnd, &ps);

  0006b	8d 45 b0	 lea	 eax, DWORD PTR _ps$[ebp]
  0006e	50		 push	 eax
  0006f	57		 push	 edi
  00070	ff 15 00 00 00
	00		 call	 DWORD PTR __imp__EndPaint@8

; 588  : 			break;

  00076	e9 58 03 00 00	 jmp	 $LN27@WndProc
$LN29@WndProc:

; 589  : 		case WM_DESTROY:
; 590  : /*
; 591  : #ifdef __S0114_RELOADPRO
; 592  : 			KillTimer( hWnd, TID_RELOAD_PROJECT );
; 593  : #endif // __S0114_RELOADPRO
; 594  : */
; 595  : 			KillTimer( hWnd, TID_POSTPROC );

  0007b	8b 35 00 00 00
	00		 mov	 esi, DWORD PTR __imp__KillTimer@8
  00081	6a 02		 push	 2
  00083	57		 push	 edi
  00084	ff d6		 call	 esi

; 596  : 			KillTimer( hWnd, TID_QUERY_REMOVE_GUILD_BANK_TBL );

  00086	6a 03		 push	 3
  00088	57		 push	 edi
  00089	ff d6		 call	 esi

; 597  : 			KillTimer( hWnd, TIMER_ID_EVENT_GENERIC );

  0008b	6a 04		 push	 4
  0008d	57		 push	 edi
  0008e	ff d6		 call	 esi

; 598  : 			PostQuitMessage(0);

  00090	6a 00		 push	 0
  00092	ff 15 00 00 00
	00		 call	 DWORD PTR __imp__PostQuitMessage@4

; 599  : 			break;

  00098	e9 36 03 00 00	 jmp	 $LN27@WndProc
$LN8@WndProc:

; 462  : 	{
; 463  : 		case WM_COMMAND:
; 464  : 			wmId    = LOWORD(wParam); 

  0009d	8b 55 10	 mov	 edx, DWORD PTR _wParam$[ebp]
  000a0	0f b7 c2	 movzx	 eax, dx

; 465  : 			wmEvent = HIWORD(wParam); 
; 466  : 			// Parse the menu selections:
; 467  : 			switch (wmId)

  000a3	3d 0a 80 00 00	 cmp	 eax, 32778		; 0000800aH
  000a8	0f 87 0f 01 00
	00		 ja	 $LN33@WndProc
  000ae	0f 84 97 00 00
	00		 je	 $LN12@WndProc
  000b4	83 e8 68	 sub	 eax, 104		; 00000068H
  000b7	0f 84 16 03 00
	00		 je	 $LN27@WndProc
  000bd	83 e8 01	 sub	 eax, 1
  000c0	74 7d		 je	 SHORT $LN10@WndProc
  000c2	2d 9e 7f 00 00	 sub	 eax, 32670		; 00007f9eH
  000c7	0f 85 05 01 00
	00		 jne	 $LN18@WndProc

; 474  : 				case IDM_TEST:
; 475  : 					{
; 476  : 						CAr ar;

  000cd	50		 push	 eax
  000ce	50		 push	 eax
  000cf	8d 8d 9c bf ff
	ff		 lea	 ecx, DWORD PTR _ar$6[ebp]
  000d5	e8 00 00 00 00	 call	 ??0CAr@@QAE@PAXI@Z	; CAr::CAr

; 477  : 						int nNum = 100;
; 478  : 						ar << nNum;

  000da	8d 85 98 bf ff
	ff		 lea	 eax, DWORD PTR _nNum$3[ebp]
  000e0	c7 45 fc 00 00
	00 00		 mov	 DWORD PTR __$EHRec$[ebp+8], 0
  000e7	50		 push	 eax
  000e8	8d 8d 9c bf ff
	ff		 lea	 ecx, DWORD PTR _ar$6[ebp]
  000ee	c7 85 98 bf ff
	ff 64 00 00 00	 mov	 DWORD PTR _nNum$3[ebp], 100 ; 00000064H
  000f8	e8 00 00 00 00	 call	 ??$?6H@CAr@@QAEAAV0@ABH@Z ; CAr::operator<<<int>

; 479  : 						int nBufSize;
; 480  : 						LPBYTE lpBuf	= ar.GetBuffer( &nBufSize ); 

  000fd	8d 85 94 bf ff
	ff		 lea	 eax, DWORD PTR _nBufSize$2[ebp]
  00103	50		 push	 eax
  00104	8d 8d 9c bf ff
	ff		 lea	 ecx, DWORD PTR _ar$6[ebp]
  0010a	e8 00 00 00 00	 call	 ?GetBuffer@CAr@@QAEPAEPAH@Z ; CAr::GetBuffer

; 481  : 						CDPTrans::GetInstance()->OnSaveConcurrentUserNumber( ar, DPID_UNKNOWN, DPID_UNKNOWN, DPID_UNKNOWN, lpBuf, nBufSize );

  0010f	ff b5 94 bf ff
	ff		 push	 DWORD PTR _nBufSize$2[ebp]
  00115	50		 push	 eax
  00116	6a ff		 push	 -1
  00118	6a ff		 push	 -1
  0011a	8d 85 9c bf ff
	ff		 lea	 eax, DWORD PTR _ar$6[ebp]
  00120	6a ff		 push	 -1
  00122	50		 push	 eax
  00123	e8 00 00 00 00	 call	 ?GetInstance@CDPTrans@@SAPAV1@XZ ; CDPTrans::GetInstance
  00128	8b c8		 mov	 ecx, eax
  0012a	e8 00 00 00 00	 call	 ?OnSaveConcurrentUserNumber@CDPTrans@@QAEXAAVCAr@@KKKPAEK@Z ; CDPTrans::OnSaveConcurrentUserNumber

; 482  : 						break;

  0012f	8d 8d 9c bf ff
	ff		 lea	 ecx, DWORD PTR _ar$6[ebp]
  00135	e8 00 00 00 00	 call	 ??1CAr@@QAE@XZ		; CAr::~CAr
  0013a	e9 94 02 00 00	 jmp	 $LN27@WndProc
$LN10@WndProc:

; 468  : 			{
; 469  : 				case IDM_ABOUT:
; 470  : 				   break;
; 471  : 				case IDM_EXIT:
; 472  : 				   DestroyWindow(hWnd);

  0013f	57		 push	 edi
  00140	ff 15 00 00 00
	00		 call	 DWORD PTR __imp__DestroyWindow@4

; 473  : 				   break;

  00146	e9 88 02 00 00	 jmp	 $LN27@WndProc
$LN12@WndProc:
; File C:\IAGOS\server\v18\Source\Source\_Network\Mcl\Include\CMclCritSec.h

; 33   : 		::EnterCriticalSection( &m_CritSec );

  0014b	68 94 00 00 00	 push	 OFFSET ?prj@@3VCProject@@A+148
  00150	ff 15 00 00 00
	00		 call	 DWORD PTR __imp__EnterCriticalSection@4
; File C:\IAGOS\server\v18\Source\Source\DatabaseServer\DatabaseServer.cpp

; 488  : 						prj.m_EventLua.LoadScript();

  00156	b9 84 00 00 00	 mov	 ecx, OFFSET ?prj@@3VCProject@@A+132
  0015b	e8 00 00 00 00	 call	 ?LoadScript@CEventLua@@QAEXXZ ; CEventLua::LoadScript

; 489  : 						CDPTrans::GetInstance()->SendEventLuaChanged();

  00160	e8 00 00 00 00	 call	 ?GetInstance@CDPTrans@@SAPAV1@XZ ; CDPTrans::GetInstance
  00165	8b c8		 mov	 ecx, eax
  00167	e8 00 00 00 00	 call	 ?SendEventLuaChanged@CDPTrans@@QAEXXZ ; CDPTrans::SendEventLuaChanged

; 490  : 						if( prj.m_EventLua.CheckEventState() )

  0016c	b9 84 00 00 00	 mov	 ecx, OFFSET ?prj@@3VCProject@@A+132
  00171	e8 00 00 00 00	 call	 ?CheckEventState@CEventLua@@QAEHXZ ; CEventLua::CheckEventState
  00176	85 c0		 test	 eax, eax
  00178	74 33		 je	 SHORT $LN13@WndProc

; 491  : 							CDPTrans::GetInstance()->SendEventLuaState( prj.m_EventLua.m_mapState, FALSE );

  0017a	6a 00		 push	 0
  0017c	6a 00		 push	 0
  0017e	83 ec 08	 sub	 esp, 8
  00181	8b cc		 mov	 ecx, esp
  00183	89 a5 98 bf ff
	ff		 mov	 DWORD PTR $T4[ebp], esp
  00189	68 88 00 00 00	 push	 OFFSET ?prj@@3VCProject@@A+136
  0018e	e8 00 00 00 00	 call	 ??0?$map@EHU?$less@E@std@@V?$allocator@U?$pair@$$CBEH@std@@@2@@std@@QAE@ABV01@@Z ; std::map<unsigned char,int,std::less<unsigned char>,std::allocator<std::pair<unsigned char const ,int> > >::map<unsigned char,int,std::less<unsigned char>,std::allocator<std::pair<unsigned char const ,int> > >
  00193	c7 45 fc 01 00
	00 00		 mov	 DWORD PTR __$EHRec$[ebp+8], 1
  0019a	e8 00 00 00 00	 call	 ?GetInstance@CDPTrans@@SAPAV1@XZ ; CDPTrans::GetInstance
  0019f	8b c8		 mov	 ecx, eax
  001a1	c7 45 fc ff ff
	ff ff		 mov	 DWORD PTR __$EHRec$[ebp+8], -1
  001a8	e8 00 00 00 00	 call	 ?SendEventLuaState@CDPTrans@@QAEXV?$map@EHU?$less@E@std@@V?$allocator@U?$pair@$$CBEH@std@@@2@@std@@HK@Z ; CDPTrans::SendEventLuaState
$LN13@WndProc:
; File C:\IAGOS\server\v18\Source\Source\_Network\Mcl\Include\CMclCritSec.h

; 39   : 		::LeaveCriticalSection( &m_CritSec );

  001ad	68 94 00 00 00	 push	 OFFSET ?prj@@3VCProject@@A+148
  001b2	ff 15 00 00 00
	00		 call	 DWORD PTR __imp__LeaveCriticalSection@4
; File C:\IAGOS\server\v18\Source\Source\DatabaseServer\DatabaseServer.cpp

; 494  : 					break;

  001b8	e9 16 02 00 00	 jmp	 $LN27@WndProc
$LN33@WndProc:

; 465  : 			wmEvent = HIWORD(wParam); 
; 466  : 			// Parse the menu selections:
; 467  : 			switch (wmId)

  001bd	2d 0b 80 00 00	 sub	 eax, 32779		; 0000800bH
  001c2	0f 84 89 00 00
	00		 je	 $LN14@WndProc
  001c8	83 e8 01	 sub	 eax, 1
  001cb	74 42		 je	 SHORT $LN15@WndProc
  001cd	83 e8 01	 sub	 eax, 1
  001d0	74 11		 je	 SHORT $LN16@WndProc
$LN18@WndProc:

; 526  : #endif // __QUIZ
; 527  : 				default:
; 528  : 				   return DefWindowProc(hWnd, message, wParam, lParam);

  001d2	ff 75 14	 push	 DWORD PTR _lParam$[ebp]
  001d5	52		 push	 edx
  001d6	51		 push	 ecx
  001d7	57		 push	 edi
  001d8	ff 15 00 00 00
	00		 call	 DWORD PTR __imp__DefWindowProcA@16
  001de	e9 f2 01 00 00	 jmp	 $LN1@WndProc
$LN16@WndProc:

; 515  : #endif // __PCBANG
; 516  : #ifdef __QUIZ
; 517  : 				case IDM_QUIZEVENT_APPLYNOW:
; 518  : 					{
; 519  : 						if( !CQuiz::GetInstance()->IsRun() )

  001e3	e8 00 00 00 00	 call	 ?GetInstance@CQuiz@@SAPAV1@XZ ; CQuiz::GetInstance
  001e8	83 78 08 00	 cmp	 DWORD PTR [eax+8], 0
  001ec	0f 85 e1 01 00
	00		 jne	 $LN27@WndProc

; 520  : 						{
; 521  : 							CQuiz::GetInstance()->LoadScript();

  001f2	e8 00 00 00 00	 call	 ?GetInstance@CQuiz@@SAPAV1@XZ ; CQuiz::GetInstance
  001f7	8b c8		 mov	 ecx, eax
  001f9	e8 00 00 00 00	 call	 ?LoadScript@CQuiz@@QAEXXZ ; CQuiz::LoadScript

; 522  : 							CDPTrans::GetInstance()->SendQuizEventChanged();

  001fe	e8 00 00 00 00	 call	 ?GetInstance@CDPTrans@@SAPAV1@XZ ; CDPTrans::GetInstance
  00203	8b c8		 mov	 ecx, eax
  00205	e8 00 00 00 00	 call	 ?SendQuizEventChanged@CDPTrans@@QAEXXZ ; CDPTrans::SendQuizEventChanged

; 523  : 						}
; 524  : 					}
; 525  : 					break;

  0020a	e9 c4 01 00 00	 jmp	 $LN27@WndProc
$LN15@WndProc:

; 504  : 					}
; 505  : 					break;
; 506  : 				case IDM_PCBANG_OFF:
; 507  : 					{
; 508  : 						HMENU hMenu = GetMenu( hWnd );

  0020f	57		 push	 edi
  00210	ff 15 00 00 00
	00		 call	 DWORD PTR __imp__GetMenu@4

; 509  : 						CheckMenuItem( hMenu, IDM_PCBANG_OFF, MF_CHECKED );

  00216	8b 35 00 00 00
	00		 mov	 esi, DWORD PTR __imp__CheckMenuItem@12
  0021c	8b f8		 mov	 edi, eax
  0021e	6a 08		 push	 8
  00220	68 0c 80 00 00	 push	 32780			; 0000800cH
  00225	57		 push	 edi
  00226	ff d6		 call	 esi

; 510  : 						CheckMenuItem( hMenu, IDM_PCBANG_ON, MF_UNCHECKED );

  00228	6a 00		 push	 0
  0022a	68 0b 80 00 00	 push	 32779			; 0000800bH
  0022f	57		 push	 edi
  00230	ff d6		 call	 esi

; 511  : 						CDPTrans::GetInstance()->m_bPCBangApply = FALSE;

  00232	e8 00 00 00 00	 call	 ?GetInstance@CDPTrans@@SAPAV1@XZ ; CDPTrans::GetInstance

; 512  : 						CDPTrans::GetInstance()->SendPCBangSetApply( DPID_ALLPLAYERS );

  00237	6a 00		 push	 0
  00239	c7 40 18 00 00
	00 00		 mov	 DWORD PTR [eax+24], 0
  00240	e8 00 00 00 00	 call	 ?GetInstance@CDPTrans@@SAPAV1@XZ ; CDPTrans::GetInstance
  00245	8b c8		 mov	 ecx, eax
  00247	e8 00 00 00 00	 call	 ?SendPCBangSetApply@CDPTrans@@QAEXK@Z ; CDPTrans::SendPCBangSetApply

; 513  : 					}
; 514  : 					break;

  0024c	e9 82 01 00 00	 jmp	 $LN27@WndProc
$LN14@WndProc:

; 495  : #endif // __EVENTLUA
; 496  : #if __VER >= 14 // __PCBANG
; 497  : 				case IDM_PCBANG_ON:
; 498  : 					{
; 499  : 						HMENU hMenu = GetMenu( hWnd );

  00251	57		 push	 edi
  00252	ff 15 00 00 00
	00		 call	 DWORD PTR __imp__GetMenu@4

; 500  : 						CheckMenuItem( hMenu, IDM_PCBANG_ON, MF_CHECKED );

  00258	8b 35 00 00 00
	00		 mov	 esi, DWORD PTR __imp__CheckMenuItem@12
  0025e	8b f8		 mov	 edi, eax
  00260	6a 08		 push	 8
  00262	68 0b 80 00 00	 push	 32779			; 0000800bH
  00267	57		 push	 edi
  00268	ff d6		 call	 esi

; 501  : 						CheckMenuItem( hMenu, IDM_PCBANG_OFF, MF_UNCHECKED );

  0026a	6a 00		 push	 0
  0026c	68 0c 80 00 00	 push	 32780			; 0000800cH
  00271	57		 push	 edi
  00272	ff d6		 call	 esi

; 502  : 						CDPTrans::GetInstance()->m_bPCBangApply = TRUE;

  00274	e8 00 00 00 00	 call	 ?GetInstance@CDPTrans@@SAPAV1@XZ ; CDPTrans::GetInstance

; 503  : 						CDPTrans::GetInstance()->SendPCBangSetApply( DPID_ALLPLAYERS );

  00279	6a 00		 push	 0
  0027b	c7 40 18 01 00
	00 00		 mov	 DWORD PTR [eax+24], 1
  00282	e8 00 00 00 00	 call	 ?GetInstance@CDPTrans@@SAPAV1@XZ ; CDPTrans::GetInstance
  00287	8b c8		 mov	 ecx, eax
  00289	e8 00 00 00 00	 call	 ?SendPCBangSetApply@CDPTrans@@QAEXK@Z ; CDPTrans::SendPCBangSetApply

; 529  : 			}
; 530  : 			break;

  0028e	e9 40 01 00 00	 jmp	 $LN27@WndProc
$LN34@WndProc:

; 457  : 	int wmId, wmEvent;
; 458  : 	PAINTSTRUCT ps;
; 459  : 	HDC hdc;
; 460  : 
; 461  : 	switch (message) 

  00293	81 f9 13 01 00
	00		 cmp	 ecx, 275		; 00000113H
  00299	74 1f		 je	 SHORT $LN19@WndProc
  0029b	81 f9 04 02 00
	00		 cmp	 ecx, 516		; 00000204H
  002a1	0f 84 2c 01 00
	00		 je	 $LN27@WndProc
$LN31@WndProc:

; 600  : #if __VER >= 9 // __EVENTLUA
; 601  : 		case WM_RBUTTONDOWN:
; 602  : 			break;
; 603  : #endif // __EVENTLUA
; 604  : 		default:
; 605  : 			return DefWindowProc(hWnd, message, wParam, lParam);

  002a7	ff 75 14	 push	 DWORD PTR _lParam$[ebp]
  002aa	ff 75 10	 push	 DWORD PTR _wParam$[ebp]
  002ad	51		 push	 ecx
  002ae	57		 push	 edi
  002af	ff 15 00 00 00
	00		 call	 DWORD PTR __imp__DefWindowProcA@16
  002b5	e9 1b 01 00 00	 jmp	 $LN1@WndProc
$LN19@WndProc:

; 531  : 		case WM_TIMER:
; 532  : 			{
; 533  : 				WORD wTimerID	= wParam;
; 534  : 				switch( wTimerID )

  002ba	0f b7 45 10	 movzx	 eax, WORD PTR _wParam$[ebp]
  002be	83 e8 02	 sub	 eax, 2
  002c1	0f 84 00 01 00
	00		 je	 $LN20@WndProc
  002c7	83 e8 01	 sub	 eax, 1
  002ca	0f 84 ea 00 00
	00		 je	 $LN21@WndProc
  002d0	83 e8 01	 sub	 eax, 1
  002d3	0f 85 fa 00 00
	00		 jne	 $LN27@WndProc

; 549  : 					case TIMER_ID_EVENT_GENERIC:
; 550  : 						{
; 551  : 							if( CEventGeneric::GetInstance()->Run() )

  002d9	e8 00 00 00 00	 call	 ?GetInstance@CEventGeneric@@SAPAV1@XZ ; CEventGeneric::GetInstance
  002de	8b c8		 mov	 ecx, eax
  002e0	e8 00 00 00 00	 call	 ?Run@CEventGeneric@@QAEHXZ ; CEventGeneric::Run
  002e5	85 c0		 test	 eax, eax
  002e7	74 14		 je	 SHORT $LN23@WndProc

; 552  : 							CDPTrans::GetInstance()->SendEventFlag( CEventGeneric::GetInstance()->GetFlag() ); 

  002e9	e8 00 00 00 00	 call	 ?GetInstance@CEventGeneric@@SAPAV1@XZ ; CEventGeneric::GetInstance
  002ee	ff 70 04	 push	 DWORD PTR [eax+4]
  002f1	e8 00 00 00 00	 call	 ?GetInstance@CDPTrans@@SAPAV1@XZ ; CDPTrans::GetInstance
  002f6	8b c8		 mov	 ecx, eax
  002f8	e8 00 00 00 00	 call	 ?SendEventFlag@CDPTrans@@QAEXK@Z ; CDPTrans::SendEventFlag
$LN23@WndProc:
; File C:\IAGOS\server\v18\Source\Source\_Network\Mcl\Include\CMclCritSec.h

; 33   : 		::EnterCriticalSection( &m_CritSec );

  002fd	68 94 00 00 00	 push	 OFFSET ?prj@@3VCProject@@A+148
  00302	ff 15 00 00 00
	00		 call	 DWORD PTR __imp__EnterCriticalSection@4
; File C:\IAGOS\server\v18\Source\Source\DatabaseServer\DatabaseServer.cpp

; 556  : 							if( prj.m_EventLua.IsNoticeTime() )

  00308	b9 84 00 00 00	 mov	 ecx, OFFSET ?prj@@3VCProject@@A+132
  0030d	e8 00 00 00 00	 call	 ?IsNoticeTime@CEventLua@@QAEHXZ ; CEventLua::IsNoticeTime
  00312	85 c0		 test	 eax, eax
  00314	74 0a		 je	 SHORT $LN24@WndProc

; 557  : 								g_dpCoreSrvr.SendEventLuaNotice();

  00316	b9 00 00 00 00	 mov	 ecx, OFFSET ?g_dpCoreSrvr@@3VCDPCoreSrvr@@A ; g_dpCoreSrvr
  0031b	e8 00 00 00 00	 call	 ?SendEventLuaNotice@CDPCoreSrvr@@QAEXXZ ; CDPCoreSrvr::SendEventLuaNotice
$LN24@WndProc:

; 558  : 						#endif // __AUTO_NOTICE
; 559  : 							if( prj.m_EventLua.CheckEventState() )

  00320	b9 84 00 00 00	 mov	 ecx, OFFSET ?prj@@3VCProject@@A+132
  00325	e8 00 00 00 00	 call	 ?CheckEventState@CEventLua@@QAEHXZ ; CEventLua::CheckEventState
  0032a	85 c0		 test	 eax, eax
  0032c	74 33		 je	 SHORT $LN25@WndProc

; 560  : 								CDPTrans::GetInstance()->SendEventLuaState( prj.m_EventLua.m_mapState, TRUE );

  0032e	6a 00		 push	 0
  00330	6a 01		 push	 1
  00332	83 ec 08	 sub	 esp, 8
  00335	8b cc		 mov	 ecx, esp
  00337	89 a5 98 bf ff
	ff		 mov	 DWORD PTR $T5[ebp], esp
  0033d	68 88 00 00 00	 push	 OFFSET ?prj@@3VCProject@@A+136
  00342	e8 00 00 00 00	 call	 ??0?$map@EHU?$less@E@std@@V?$allocator@U?$pair@$$CBEH@std@@@2@@std@@QAE@ABV01@@Z ; std::map<unsigned char,int,std::less<unsigned char>,std::allocator<std::pair<unsigned char const ,int> > >::map<unsigned char,int,std::less<unsigned char>,std::allocator<std::pair<unsigned char const ,int> > >
  00347	c7 45 fc 02 00
	00 00		 mov	 DWORD PTR __$EHRec$[ebp+8], 2
  0034e	e8 00 00 00 00	 call	 ?GetInstance@CDPTrans@@SAPAV1@XZ ; CDPTrans::GetInstance
  00353	8b c8		 mov	 ecx, eax
  00355	c7 45 fc ff ff
	ff ff		 mov	 DWORD PTR __$EHRec$[ebp+8], -1
  0035c	e8 00 00 00 00	 call	 ?SendEventLuaState@CDPTrans@@QAEXV?$map@EHU?$less@E@std@@V?$allocator@U?$pair@$$CBEH@std@@@2@@std@@HK@Z ; CDPTrans::SendEventLuaState
$LN25@WndProc:
; File C:\IAGOS\server\v18\Source\Source\_Network\Mcl\Include\CMclCritSec.h

; 39   : 		::LeaveCriticalSection( &m_CritSec );

  00361	68 94 00 00 00	 push	 OFFSET ?prj@@3VCProject@@A+148
  00366	ff 15 00 00 00
	00		 call	 DWORD PTR __imp__LeaveCriticalSection@4
; File C:\IAGOS\server\v18\Source\Source\DatabaseServer\DatabaseServer.cpp

; 566  : 								&& prj.m_GuildCombat1to1.m_nState == CGuildCombat1to1Mng::GC1TO1_CLOSE )

  0036c	b9 b8 00 00 00	 mov	 ecx, OFFSET ?prj@@3VCProject@@A+184
  00371	e8 00 00 00 00	 call	 ?CheckOpenTIme@CGuildCombat1to1Mng@@QAEHXZ ; CGuildCombat1to1Mng::CheckOpenTIme
  00376	83 f8 01	 cmp	 eax, 1
  00379	75 15		 jne	 SHORT $LN26@WndProc
  0037b	83 3d bc 00 00
	00 00		 cmp	 DWORD PTR ?prj@@3VCProject@@A+188, 0
  00382	75 0c		 jne	 SHORT $LN26@WndProc

; 567  : 								CDPTrans::GetInstance()->SendGC1to1Open();

  00384	e8 00 00 00 00	 call	 ?GetInstance@CDPTrans@@SAPAV1@XZ ; CDPTrans::GetInstance
  00389	8b c8		 mov	 ecx, eax
  0038b	e8 00 00 00 00	 call	 ?SendGC1to1Open@CDPTrans@@QAEXXZ ; CDPTrans::SendGC1to1Open
$LN26@WndProc:

; 568  : 						#endif // __GUILD_COMBAT_1TO1
; 569  : 
; 570  : 						#ifdef __GETMAILREALTIME
; 571  : 							LPDB_OVERLAPPED_PLUS lpDbOverlappedPlus		= g_DbManager.AllocRequest();

  00390	8b 0d 00 00 00
	00		 mov	 ecx, DWORD PTR ?g_DbManager@@3AAVCDbManager@@A ; g_DbManager
  00396	e8 00 00 00 00	 call	 ?AllocRequest@CDbManager@@QAEPAUtagDB_OVERLAPPED_PLUS@@XZ ; CDbManager::AllocRequest

; 572  : 							lpDbOverlappedPlus->nQueryMode	= QM_GETMAIL_REALTIME;
; 573  : 							PostQueuedCompletionStatus( g_DbManager.m_hIOCPGuild, 1, NULL, &lpDbOverlappedPlus->Overlapped );

  0039b	50		 push	 eax
  0039c	6a 00		 push	 0
  0039e	6a 01		 push	 1
  003a0	c7 40 14 55 00
	00 00		 mov	 DWORD PTR [eax+20], 85	; 00000055H
  003a7	a1 00 00 00 00	 mov	 eax, DWORD PTR ?g_DbManager@@3AAVCDbManager@@A ; g_DbManager
  003ac	ff b0 3c 03 00
	00		 push	 DWORD PTR [eax+828]
  003b2	ff 15 00 00 00
	00		 call	 DWORD PTR __imp__PostQueuedCompletionStatus@16

; 574  : 							//g_DbManager.QueryGetMailRealTime();
; 575  : 						#endif // __GETMAILREALTIME
; 576  : 						}
; 577  : 						break;

  003b8	eb 19		 jmp	 SHORT $LN27@WndProc
$LN21@WndProc:

; 545  : 						break;
; 546  : 					case TID_QUERY_REMOVE_GUILD_BANK_TBL:
; 547  : 						g_DbManager.QueryRemoveGuildBankTbl();

  003ba	8b 0d 00 00 00
	00		 mov	 ecx, DWORD PTR ?g_DbManager@@3AAVCDbManager@@A ; g_DbManager
  003c0	e8 00 00 00 00	 call	 ?QueryRemoveGuildBankTbl@CDbManager@@QAEHXZ ; CDbManager::QueryRemoveGuildBankTbl

; 548  : 						break;

  003c5	eb 0c		 jmp	 SHORT $LN27@WndProc
$LN20@WndProc:

; 535  : 				{
; 536  : /*
; 537  : #ifdef __S0114_RELOADPRO
; 538  : 					case TID_RELOAD_PROJECT:
; 539  : 						g_dpAccountClient.ReloadProject();
; 540  : 						break;
; 541  : #endif // __S0114_RELOADPRO
; 542  : */
; 543  : 					case TID_POSTPROC:
; 544  : 						CPost::GetInstance()->Process();

  003c7	e8 00 00 00 00	 call	 ?GetInstance@CPost@@SAPAV1@XZ ; CPost::GetInstance
  003cc	8b c8		 mov	 ecx, eax
  003ce	e8 00 00 00 00	 call	 ?Process@CPost@@QAEXXZ	; CPost::Process
$LN27@WndProc:

; 606  :    }
; 607  :    return 0;

  003d3	33 c0		 xor	 eax, eax
$LN1@WndProc:

; 608  : }

  003d5	8b 4d f4	 mov	 ecx, DWORD PTR __$EHRec$[ebp]
  003d8	64 89 0d 00 00
	00 00		 mov	 DWORD PTR fs:0, ecx
  003df	59		 pop	 ecx
  003e0	5f		 pop	 edi
  003e1	5e		 pop	 esi
  003e2	8b 4d f0	 mov	 ecx, DWORD PTR __$ArrayPad$[ebp]
  003e5	33 cd		 xor	 ecx, ebp
  003e7	e8 00 00 00 00	 call	 @__security_check_cookie@4
  003ec	8b e5		 mov	 esp, ebp
  003ee	5d		 pop	 ebp
  003ef	c2 10 00	 ret	 16			; 00000010H
_TEXT	ENDS
;	COMDAT text$x
text$x	SEGMENT
__unwindfunclet$?WndProc@@YGJPAUHWND__@@IIJ@Z$0:
  00000	8d 8d 9c bf ff
	ff		 lea	 ecx, DWORD PTR _ar$6[ebp]
  00006	e9 00 00 00 00	 jmp	 ??1CAr@@QAE@XZ		; CAr::~CAr
__unwindfunclet$?WndProc@@YGJPAUHWND__@@IIJ@Z$1:
  0000b	8b 8d 98 bf ff
	ff		 mov	 ecx, DWORD PTR $T4[ebp]
  00011	e9 00 00 00 00	 jmp	 ??1?$map@EHU?$less@E@std@@V?$allocator@U?$pair@$$CBEH@std@@@2@@std@@QAE@XZ
__unwindfunclet$?WndProc@@YGJPAUHWND__@@IIJ@Z$2:
  00016	8b 8d 98 bf ff
	ff		 mov	 ecx, DWORD PTR $T5[ebp]
  0001c	e9 00 00 00 00	 jmp	 ??1?$map@EHU?$less@E@std@@V?$allocator@U?$pair@$$CBEH@std@@@2@@std@@QAE@XZ
  00021	cc		 int	 3
  00022	cc		 int	 3
  00023	cc		 int	 3
  00024	cc		 int	 3
  00025	cc		 int	 3
__ehhandler$?WndProc@@YGJPAUHWND__@@IIJ@Z:
  00026	90		 npad	 1
  00027	90		 npad	 1
  00028	8b 54 24 08	 mov	 edx, DWORD PTR [esp+8]
  0002c	8d 42 0c	 lea	 eax, DWORD PTR [edx+12]
  0002f	8b 8a 94 bf ff
	ff		 mov	 ecx, DWORD PTR [edx-16492]
  00035	33 c8		 xor	 ecx, eax
  00037	e8 00 00 00 00	 call	 @__security_check_cookie@4
  0003c	8b 4a fc	 mov	 ecx, DWORD PTR [edx-4]
  0003f	33 c8		 xor	 ecx, eax
  00041	e8 00 00 00 00	 call	 @__security_check_cookie@4
  00046	b8 00 00 00 00	 mov	 eax, OFFSET __ehfuncinfo$?WndProc@@YGJPAUHWND__@@IIJ@Z
  0004b	e9 00 00 00 00	 jmp	 ___CxxFrameHandler3
text$x	ENDS
?WndProc@@YGJPAUHWND__@@IIJ@Z ENDP			; WndProc
; Function compile flags: /Ogtp
; File C:\IAGOS\server\v18\Source\Source\DatabaseServer\DatabaseServer.cpp
;	COMDAT ?MyRegisterClass@@YAGPAUHINSTANCE__@@@Z
_TEXT	SEGMENT
_wcex$ = -48						; size = 48
_hInstance$ = 8						; size = 4
?MyRegisterClass@@YAGPAUHINSTANCE__@@@Z PROC		; MyRegisterClass, COMDAT

; 178  : {

  00000	55		 push	 ebp
  00001	8b ec		 mov	 ebp, esp
  00003	83 ec 30	 sub	 esp, 48			; 00000030H

; 179  : 	WNDCLASSEX wcex;
; 180  : 
; 181  : 	wcex.cbSize = sizeof(WNDCLASSEX); 
; 182  : 
; 183  : 	wcex.style			= CS_HREDRAW | CS_VREDRAW;
; 184  : 	wcex.lpfnWndProc	= (WNDPROC)WndProc;
; 185  : 	wcex.cbClsExtra		= 0;
; 186  : 	wcex.cbWndExtra		= 0;
; 187  : 	wcex.hInstance		= hInstance;

  00006	8b 45 08	 mov	 eax, DWORD PTR _hInstance$[ebp]

; 188  : 	wcex.hIcon			= LoadIcon(hInstance, (LPCTSTR)IDI_DATABASESERVER);

  00009	6a 6b		 push	 107			; 0000006bH
  0000b	50		 push	 eax
  0000c	c7 45 d0 30 00
	00 00		 mov	 DWORD PTR _wcex$[ebp], 48 ; 00000030H
  00013	c7 45 d4 03 00
	00 00		 mov	 DWORD PTR _wcex$[ebp+4], 3
  0001a	c7 45 d8 00 00
	00 00		 mov	 DWORD PTR _wcex$[ebp+8], OFFSET ?WndProc@@YGJPAUHWND__@@IIJ@Z ; WndProc
  00021	c7 45 dc 00 00
	00 00		 mov	 DWORD PTR _wcex$[ebp+12], 0
  00028	c7 45 e0 00 00
	00 00		 mov	 DWORD PTR _wcex$[ebp+16], 0
  0002f	89 45 e4	 mov	 DWORD PTR _wcex$[ebp+20], eax
  00032	ff 15 00 00 00
	00		 call	 DWORD PTR __imp__LoadIconA@8

; 189  : 	wcex.hCursor		= LoadCursor(NULL, IDC_ARROW);

  00038	68 00 7f 00 00	 push	 32512			; 00007f00H
  0003d	6a 00		 push	 0
  0003f	89 45 e8	 mov	 DWORD PTR _wcex$[ebp+24], eax
  00042	ff 15 00 00 00
	00		 call	 DWORD PTR __imp__LoadCursorA@8

; 190  : //	wcex.hbrBackground	= (HBRUSH)(COLOR_WINDOW+1);
; 191  : 	wcex.hbrBackground	= (HBRUSH)COLOR_MENUTEXT;
; 192  : 	wcex.lpszMenuName	= (LPCSTR)IDC_DATABASESERVER;
; 193  : 	wcex.lpszClassName	= szWindowClass;
; 194  : 	wcex.hIconSm		= LoadIcon(wcex.hInstance, (LPCTSTR)IDI_SMALL);

  00048	6a 6c		 push	 108			; 0000006cH
  0004a	ff 75 e4	 push	 DWORD PTR _wcex$[ebp+20]
  0004d	89 45 ec	 mov	 DWORD PTR _wcex$[ebp+28], eax
  00050	c7 45 f0 07 00
	00 00		 mov	 DWORD PTR _wcex$[ebp+32], 7
  00057	c7 45 f4 6d 00
	00 00		 mov	 DWORD PTR _wcex$[ebp+36], 109 ; 0000006dH
  0005e	c7 45 f8 00 00
	00 00		 mov	 DWORD PTR _wcex$[ebp+40], OFFSET ?szWindowClass@@3PADA ; szWindowClass
  00065	ff 15 00 00 00
	00		 call	 DWORD PTR __imp__LoadIconA@8
  0006b	89 45 fc	 mov	 DWORD PTR _wcex$[ebp+44], eax

; 195  : 
; 196  : 	return RegisterClassEx(&wcex);

  0006e	8d 45 d0	 lea	 eax, DWORD PTR _wcex$[ebp]
  00071	50		 push	 eax
  00072	ff 15 00 00 00
	00		 call	 DWORD PTR __imp__RegisterClassExA@4

; 197  : }

  00078	8b e5		 mov	 esp, ebp
  0007a	5d		 pop	 ebp
  0007b	c3		 ret	 0
?MyRegisterClass@@YAGPAUHINSTANCE__@@@Z ENDP		; MyRegisterClass
_TEXT	ENDS
; Function compile flags: /Ogtp
; File C:\IAGOS\server\v18\Source\Source\_Network\Misc\Include\Ar.h
;	COMDAT ??$?6H@CAr@@QAEAAV0@ABH@Z
_TEXT	SEGMENT
_t$ = 8							; size = 4
??$?6H@CAr@@QAEAAV0@ABH@Z PROC				; CAr::operator<<<int>, COMDAT
; _this$ = ecx

; 255  : {

  00000	55		 push	 ebp
  00001	8b ec		 mov	 ebp, esp
  00003	56		 push	 esi

; 256  : 	CheckBuf(sizeof(T));

  00004	6a 04		 push	 4
  00006	8b f1		 mov	 esi, ecx
  00008	e8 00 00 00 00	 call	 ?CheckBuf@CAr@@QAEXI@Z	; CAr::CheckBuf

; 257  : 	*(UNALIGNED T*)m_lpBufCur = t;

  0000d	8b 56 08	 mov	 edx, DWORD PTR [esi+8]
  00010	8b 45 08	 mov	 eax, DWORD PTR _t$[ebp]
  00013	8b 00		 mov	 eax, DWORD PTR [eax]
  00015	89 02		 mov	 DWORD PTR [edx], eax

; 258  : 	m_lpBufCur += sizeof(T);
; 259  : 	return *this;

  00017	8b c6		 mov	 eax, esi
  00019	83 46 08 04	 add	 DWORD PTR [esi+8], 4
  0001d	5e		 pop	 esi

; 260  : }

  0001e	5d		 pop	 ebp
  0001f	c2 04 00	 ret	 4
??$?6H@CAr@@QAEAAV0@ABH@Z ENDP				; CAr::operator<<<int>
_TEXT	ENDS
; Function compile flags: /Ogtp
; File C:\Program Files\Microsoft Visual Studio\2022\Professional\VC\Tools\MSVC\14.44.35207\include\xmemory
;	COMDAT ??$_Allocate_manually_vector_aligned@U_Default_allocate_traits@std@@@std@@YAPAXI@Z
_TEXT	SEGMENT
__Bytes$ = 8						; size = 4
??$_Allocate_manually_vector_aligned@U_Default_allocate_traits@std@@@std@@YAPAXI@Z PROC ; std::_Allocate_manually_vector_aligned<std::_Default_allocate_traits>, COMDAT

; 182  : __declspec(allocator) void* _Allocate_manually_vector_aligned(const size_t _Bytes) {

  00000	55		 push	 ebp
  00001	8b ec		 mov	 ebp, esp

; 183  :     // allocate _Bytes manually aligned to at least _Big_allocation_alignment
; 184  :     const size_t _Block_size = _Non_user_size + _Bytes;

  00003	8b 45 08	 mov	 eax, DWORD PTR __Bytes$[ebp]
  00006	8d 48 23	 lea	 ecx, DWORD PTR [eax+35]

; 185  :     if (_Block_size <= _Bytes) {

  00009	3b c8		 cmp	 ecx, eax
  0000b	0f 86 00 00 00
	00		 jbe	 ?_Throw_bad_array_new_length@std@@YAXXZ ; std::_Throw_bad_array_new_length

; 136  :         return ::operator new(_Bytes);

  00011	51		 push	 ecx
  00012	e8 00 00 00 00	 call	 ??2@YAPAXI@Z		; operator new

; 186  :         _Throw_bad_array_new_length(); // add overflow
; 187  :     }
; 188  : 
; 189  :     const uintptr_t _Ptr_container = reinterpret_cast<uintptr_t>(_Traits::_Allocate(_Block_size));

  00017	8b c8		 mov	 ecx, eax

; 136  :         return ::operator new(_Bytes);

  00019	83 c4 04	 add	 esp, 4

; 190  :     _STL_VERIFY(_Ptr_container != 0, "invalid argument"); // validate even in release since we're doing p[-1]

  0001c	85 c9		 test	 ecx, ecx
  0001e	74 0b		 je	 SHORT $LN9@Allocate_m

; 191  :     void* const _Ptr = reinterpret_cast<void*>((_Ptr_container + _Non_user_size) & ~(_Big_allocation_alignment - 1));

  00020	8d 41 23	 lea	 eax, DWORD PTR [ecx+35]
  00023	83 e0 e0	 and	 eax, -32		; ffffffe0H

; 192  :     static_cast<uintptr_t*>(_Ptr)[-1] = _Ptr_container;

  00026	89 48 fc	 mov	 DWORD PTR [eax-4], ecx

; 193  : 
; 194  : #ifdef _DEBUG
; 195  :     static_cast<uintptr_t*>(_Ptr)[-2] = _Big_allocation_sentinel;
; 196  : #endif // defined(_DEBUG)
; 197  :     return _Ptr;
; 198  : }

  00029	5d		 pop	 ebp
  0002a	c3		 ret	 0
$LN9@Allocate_m:

; 190  :     _STL_VERIFY(_Ptr_container != 0, "invalid argument"); // validate even in release since we're doing p[-1]

  0002b	6a 00		 push	 0
  0002d	6a 00		 push	 0
  0002f	6a 00		 push	 0
  00031	6a 00		 push	 0
  00033	6a 00		 push	 0
  00035	e8 00 00 00 00	 call	 __invoke_watson
$LN7@Allocate_m:
  0003a	cc		 int	 3
??$_Allocate_manually_vector_aligned@U_Default_allocate_traits@std@@@std@@YAPAXI@Z ENDP ; std::_Allocate_manually_vector_aligned<std::_Default_allocate_traits>
_TEXT	ENDS
; Function compile flags: /Ogtp
; File C:\Program Files\Microsoft Visual Studio\2022\Professional\VC\Tools\MSVC\14.44.35207\include\xstring
; File C:\Program Files\Microsoft Visual Studio\2022\Professional\VC\Tools\MSVC\14.44.35207\include\__msvc_string_view.hpp
; File C:\Program Files\Microsoft Visual Studio\2022\Professional\VC\Tools\MSVC\14.44.35207\include\xstring
; File C:\Program Files\Microsoft Visual Studio\2022\Professional\VC\Tools\MSVC\14.44.35207\include\__msvc_string_view.hpp
; File C:\Program Files\Microsoft Visual Studio\2022\Professional\VC\Tools\MSVC\14.44.35207\include\xstring
; File C:\Program Files\Microsoft Visual Studio\2022\Professional\VC\Tools\MSVC\14.44.35207\include\__msvc_string_view.hpp
; File C:\Program Files\Microsoft Visual Studio\2022\Professional\VC\Tools\MSVC\14.44.35207\include\xstring
;	COMDAT ??$?MDU?$char_traits@D@std@@V?$allocator@D@1@@std@@YA_NABV?$basic_string@DU?$char_traits@D@std@@V?$allocator@D@2@@0@0@Z
_TEXT	SEGMENT
__Left$ = 8						; size = 4
__Right$ = 12						; size = 4
??$?MDU?$char_traits@D@std@@V?$allocator@D@1@@std@@YA_NABV?$basic_string@DU?$char_traits@D@std@@V?$allocator@D@2@@0@0@Z PROC ; std::operator<<char,std::char_traits<char>,std::allocator<char> >, COMDAT

; 3307 :     const basic_string<_Elem, _Traits, _Alloc>& _Left, const basic_string<_Elem, _Traits, _Alloc>& _Right) noexcept {

  00000	55		 push	 ebp
  00001	8b ec		 mov	 ebp, esp

; 444  :         const value_type* _Result = _Bx._Buf;

  00003	8b 45 0c	 mov	 eax, DWORD PTR __Right$[ebp]
  00006	8b c8		 mov	 ecx, eax

; 453  :         return _Myres > _Small_string_capacity;

  00008	83 78 14 0f	 cmp	 DWORD PTR [eax+20], 15	; 0000000fH

; 445  :         if (_Large_mode_engaged()) {

  0000c	76 02		 jbe	 SHORT $LN8@operator

; 446  :             _Result = _Unfancy(_Bx._Ptr);

  0000e	8b 08		 mov	 ecx, DWORD PTR [eax]
$LN8@operator:
  00010	53		 push	 ebx
  00011	56		 push	 esi

; 444  :         const value_type* _Result = _Bx._Buf;

  00012	8b 75 08	 mov	 esi, DWORD PTR __Left$[ebp]
  00015	8b d6		 mov	 edx, esi
  00017	57		 push	 edi

; 453  :         return _Myres > _Small_string_capacity;

  00018	83 7e 14 0f	 cmp	 DWORD PTR [esi+20], 15	; 0000000fH

; 445  :         if (_Large_mode_engaged()) {

  0001c	76 02		 jbe	 SHORT $LN15@operator

; 446  :             _Result = _Unfancy(_Bx._Ptr);

  0001e	8b 16		 mov	 edx, DWORD PTR [esi]
$LN15@operator:

; 2890 :         return _Traits_compare<_Traits>(_Mypair._Myval2._Myptr(), _Mypair._Myval2._Mysize,

  00020	8b 5e 10	 mov	 ebx, DWORD PTR [esi+16]
  00023	8b f3		 mov	 esi, ebx
  00025	8b 78 10	 mov	 edi, DWORD PTR [eax+16]
  00028	3b fb		 cmp	 edi, ebx
  0002a	0f 42 f7	 cmovb	 esi, edi
; File C:\Program Files\Microsoft Visual Studio\2022\Professional\VC\Tools\MSVC\14.44.35207\include\__msvc_string_view.hpp

; 439  :         return _CSTD memcmp(_First1, _First2, _Count);

  0002d	83 ee 04	 sub	 esi, 4
  00030	72 11		 jb	 SHORT $LN35@operator
$LL36@operator:
  00032	8b 02		 mov	 eax, DWORD PTR [edx]
  00034	3b 01		 cmp	 eax, DWORD PTR [ecx]
  00036	75 10		 jne	 SHORT $LN34@operator
  00038	83 c2 04	 add	 edx, 4
  0003b	83 c1 04	 add	 ecx, 4
  0003e	83 ee 04	 sub	 esi, 4
  00041	73 ef		 jae	 SHORT $LL36@operator
$LN35@operator:
  00043	83 fe fc	 cmp	 esi, -4			; fffffffcH
  00046	74 34		 je	 SHORT $LN33@operator
$LN34@operator:
  00048	8a 02		 mov	 al, BYTE PTR [edx]
  0004a	3a 01		 cmp	 al, BYTE PTR [ecx]
  0004c	75 27		 jne	 SHORT $LN37@operator
  0004e	83 fe fd	 cmp	 esi, -3			; fffffffdH
  00051	74 29		 je	 SHORT $LN33@operator
  00053	8a 42 01	 mov	 al, BYTE PTR [edx+1]
  00056	3a 41 01	 cmp	 al, BYTE PTR [ecx+1]
  00059	75 1a		 jne	 SHORT $LN37@operator
  0005b	83 fe fe	 cmp	 esi, -2			; fffffffeH
  0005e	74 1c		 je	 SHORT $LN33@operator
  00060	8a 42 02	 mov	 al, BYTE PTR [edx+2]
  00063	3a 41 02	 cmp	 al, BYTE PTR [ecx+2]
  00066	75 0d		 jne	 SHORT $LN37@operator
  00068	83 fe ff	 cmp	 esi, -1
  0006b	74 0f		 je	 SHORT $LN33@operator
  0006d	8a 42 03	 mov	 al, BYTE PTR [edx+3]
  00070	3a 41 03	 cmp	 al, BYTE PTR [ecx+3]
  00073	74 07		 je	 SHORT $LN33@operator
$LN37@operator:
  00075	1b c0		 sbb	 eax, eax
  00077	83 c8 01	 or	 eax, 1
  0007a	eb 02		 jmp	 SHORT $LN38@operator
$LN33@operator:
  0007c	33 c0		 xor	 eax, eax
$LN38@operator:

; 621  :     if (_Ans != 0) {

  0007e	85 c0		 test	 eax, eax
  00080	75 13		 jne	 SHORT $LN24@operator

; 622  :         return _Ans;
; 623  :     }
; 624  : 
; 625  :     if (_Left_size < _Right_size) {

  00082	3b fb		 cmp	 edi, ebx
  00084	76 0b		 jbe	 SHORT $LN51@operator
; File C:\Program Files\Microsoft Visual Studio\2022\Professional\VC\Tools\MSVC\14.44.35207\include\xstring

; 3308 :     return _Left.compare(_Right) < 0;

  00086	5f		 pop	 edi
; File C:\Program Files\Microsoft Visual Studio\2022\Professional\VC\Tools\MSVC\14.44.35207\include\__msvc_string_view.hpp

; 626  :         return -1;

  00087	83 c8 ff	 or	 eax, -1
; File C:\Program Files\Microsoft Visual Studio\2022\Professional\VC\Tools\MSVC\14.44.35207\include\xstring

; 3308 :     return _Left.compare(_Right) < 0;

  0008a	5e		 pop	 esi
  0008b	c1 e8 1f	 shr	 eax, 31			; 0000001fH
  0008e	5b		 pop	 ebx

; 3309 : }

  0008f	5d		 pop	 ebp
  00090	c3		 ret	 0
$LN51@operator:
; File C:\Program Files\Microsoft Visual Studio\2022\Professional\VC\Tools\MSVC\14.44.35207\include\__msvc_string_view.hpp

; 629  :     if (_Left_size > _Right_size) {

  00091	1b c0		 sbb	 eax, eax
  00093	f7 d8		 neg	 eax
$LN24@operator:
; File C:\Program Files\Microsoft Visual Studio\2022\Professional\VC\Tools\MSVC\14.44.35207\include\xstring

; 3308 :     return _Left.compare(_Right) < 0;

  00095	5f		 pop	 edi
  00096	5e		 pop	 esi
  00097	c1 e8 1f	 shr	 eax, 31			; 0000001fH
  0009a	5b		 pop	 ebx

; 3309 : }

  0009b	5d		 pop	 ebp
  0009c	c3		 ret	 0
??$?MDU?$char_traits@D@std@@V?$allocator@D@1@@std@@YA_NABV?$basic_string@DU?$char_traits@D@std@@V?$allocator@D@2@@0@0@Z ENDP ; std::operator<<char,std::char_traits<char>,std::allocator<char> >
_TEXT	ENDS
; Function compile flags: /Ogtp
; File C:\IAGOS\server\v18\Source\Source\_Network\Net\Include\DPMng.h
;	COMDAT ?StartServer@CDPMng@@QAEHGHW4BUFFER_TYPE@@@Z
_TEXT	SEGMENT
_uPort$ = 8						; size = 2
_bSingleThreaded$ = 12					; size = 4
_nBufferType$ = 16					; size = 4
?StartServer@CDPMng@@QAEHGHW4BUFFER_TYPE@@@Z PROC	; CDPMng::StartServer, COMDAT
; _this$ = ecx

; 156  : 	{	

  00000	55		 push	 ebp
  00001	8b ec		 mov	 ebp, esp
  00003	56		 push	 esi

; 157  : 		return( CreateDPObject( bSingleThreaded ) && 

  00004	ff 75 0c	 push	 DWORD PTR _bSingleThreaded$[ebp]
  00007	8b f1		 mov	 esi, ecx
  00009	e8 00 00 00 00	 call	 ?CreateDPObject@CDPMng@@QAEHH@Z ; CDPMng::CreateDPObject
  0000e	85 c0		 test	 eax, eax
  00010	74 2a		 je	 SHORT $LN3@StartServe
  00012	ff 75 08	 push	 DWORD PTR _uPort$[ebp]
  00015	8b ce		 mov	 ecx, esi
  00017	6a 00		 push	 0
  00019	e8 00 00 00 00	 call	 ?InitConnection@CDPMng@@QAEHPAXG@Z ; CDPMng::InitConnection
  0001e	85 c0		 test	 eax, eax
  00020	74 1a		 je	 SHORT $LN3@StartServe
  00022	ff 75 10	 push	 DWORD PTR _nBufferType$[ebp]
  00025	8b ce		 mov	 ecx, esi
  00027	6a 00		 push	 0
  00029	e8 00 00 00 00	 call	 ?CreateSession@CDPMng@@QAEHPBDW4BUFFER_TYPE@@@Z ; CDPMng::CreateSession
  0002e	85 c0		 test	 eax, eax
  00030	74 0a		 je	 SHORT $LN3@StartServe
  00032	b8 01 00 00 00	 mov	 eax, 1
  00037	5e		 pop	 esi

; 158  : 			    InitConnection( (LPVOID)NULL, uPort ) && 
; 159  : 				CreateSession( NULL, nBufferType ) );	
; 160  : 	}

  00038	5d		 pop	 ebp
  00039	c2 0c 00	 ret	 12			; 0000000cH
$LN3@StartServe:

; 157  : 		return( CreateDPObject( bSingleThreaded ) && 

  0003c	33 c0		 xor	 eax, eax
  0003e	5e		 pop	 esi

; 158  : 			    InitConnection( (LPVOID)NULL, uPort ) && 
; 159  : 				CreateSession( NULL, nBufferType ) );	
; 160  : 	}

  0003f	5d		 pop	 ebp
  00040	c2 0c 00	 ret	 12			; 0000000cH
?StartServer@CDPMng@@QAEHGHW4BUFFER_TYPE@@@Z ENDP	; CDPMng::StartServer
_TEXT	ENDS
; Function compile flags: /Ogtp
; File C:\Program Files\Microsoft Visual Studio\2022\Professional\VC\Tools\MSVC\14.44.35207\include\xtree
;	COMDAT ?_Insert_node@?$_Tree_val@U?$_Tree_simple_types@V?$basic_string@DU?$char_traits@D@std@@V?$allocator@D@2@@std@@@std@@@std@@QAEPAU?$_Tree_node@V?$basic_string@DU?$char_traits@D@std@@V?$allocator@D@2@@std@@PAX@2@U?$_Tree_id@PAU?$_Tree_node@V?$basic_string@DU?$char_traits@D@std@@V?$allocator@D@2@@std@@PAX@std@@@2@QAU32@@Z
_TEXT	SEGMENT
__Head$1$ = -4						; size = 4
__Loc$ = 8						; size = 8
__Newnode$ = 16						; size = 4
?_Insert_node@?$_Tree_val@U?$_Tree_simple_types@V?$basic_string@DU?$char_traits@D@std@@V?$allocator@D@2@@std@@@std@@@std@@QAEPAU?$_Tree_node@V?$basic_string@DU?$char_traits@D@std@@V?$allocator@D@2@@std@@PAX@2@U?$_Tree_id@PAU?$_Tree_node@V?$basic_string@DU?$char_traits@D@std@@V?$allocator@D@2@@std@@PAX@std@@@2@QAU32@@Z PROC ; std::_Tree_val<std::_Tree_simple_types<std::basic_string<char,std::char_traits<char>,std::allocator<char> > > >::_Insert_node, COMDAT
; _this$ = ecx

; 669  :     _Nodeptr _Insert_node(const _Tree_id<_Nodeptr> _Loc, const _Nodeptr _Newnode) noexcept {

  00000	55		 push	 ebp
  00001	8b ec		 mov	 ebp, esp
  00003	51		 push	 ecx

; 670  :         ++_Mysize;
; 671  :         const auto _Head  = _Myhead;
; 672  :         _Newnode->_Parent = _Loc._Parent;

  00004	8b 55 08	 mov	 edx, DWORD PTR __Loc$[ebp]
  00007	53		 push	 ebx
  00008	8b d9		 mov	 ebx, ecx
  0000a	57		 push	 edi
  0000b	8b 7d 10	 mov	 edi, DWORD PTR __Newnode$[ebp]
  0000e	8b 03		 mov	 eax, DWORD PTR [ebx]
  00010	ff 43 04	 inc	 DWORD PTR [ebx+4]
  00013	89 45 fc	 mov	 DWORD PTR __Head$1$[ebp], eax
  00016	89 57 04	 mov	 DWORD PTR [edi+4], edx

; 673  :         if (_Loc._Parent == _Head) { // first node in tree, just set head values

  00019	3b d0		 cmp	 edx, eax
  0001b	75 16		 jne	 SHORT $LN5@Insert_nod

; 674  :             _Head->_Left     = _Newnode;

  0001d	89 38		 mov	 DWORD PTR [eax], edi

; 675  :             _Head->_Parent   = _Newnode;

  0001f	89 78 04	 mov	 DWORD PTR [eax+4], edi

; 676  :             _Head->_Right    = _Newnode;

  00022	89 78 08	 mov	 DWORD PTR [eax+8], edi

; 735  :         return _Newnode;
; 736  :     }

  00025	8b c7		 mov	 eax, edi
  00027	c6 47 0c 01	 mov	 BYTE PTR [edi+12], 1
  0002b	5f		 pop	 edi
  0002c	5b		 pop	 ebx
  0002d	8b e5		 mov	 esp, ebp
  0002f	5d		 pop	 ebp
  00030	c2 0c 00	 ret	 12			; 0000000cH
$LN5@Insert_nod:

; 677  :             _Newnode->_Color = _Black; // the root is black
; 678  :             return _Newnode;
; 679  :         }
; 680  : 
; 681  :         _STL_INTERNAL_CHECK(_Loc._Child != _Tree_child::_Unused);
; 682  :         if (_Loc._Child == _Tree_child::_Right) { // add to right of _Loc._Parent

  00033	83 7d 0c 00	 cmp	 DWORD PTR __Loc$[ebp+4], 0
  00037	75 0d		 jne	 SHORT $LN6@Insert_nod

; 683  :             _STL_INTERNAL_CHECK(_Loc._Parent->_Right->_Isnil);
; 684  :             _Loc._Parent->_Right = _Newnode;

  00039	89 7a 08	 mov	 DWORD PTR [edx+8], edi

; 685  :             if (_Loc._Parent == _Head->_Right) { // remember rightmost node

  0003c	3b 50 08	 cmp	 edx, DWORD PTR [eax+8]
  0003f	75 0d		 jne	 SHORT $LN9@Insert_nod

; 686  :                 _Head->_Right = _Newnode;

  00041	89 78 08	 mov	 DWORD PTR [eax+8], edi

; 687  :             }
; 688  :         } else { // add to left of _Loc._Parent

  00044	eb 08		 jmp	 SHORT $LN9@Insert_nod
$LN6@Insert_nod:

; 689  :             _STL_INTERNAL_CHECK(_Loc._Parent->_Left->_Isnil);
; 690  :             _Loc._Parent->_Left = _Newnode;

  00046	89 3a		 mov	 DWORD PTR [edx], edi

; 691  :             if (_Loc._Parent == _Head->_Left) { // remember leftmost node

  00048	3b 10		 cmp	 edx, DWORD PTR [eax]
  0004a	75 02		 jne	 SHORT $LN9@Insert_nod

; 692  :                 _Head->_Left = _Newnode;

  0004c	89 38		 mov	 DWORD PTR [eax], edi
$LN9@Insert_nod:

; 693  :             }
; 694  :         }
; 695  : 
; 696  :         for (_Nodeptr _Pnode = _Newnode; _Pnode->_Parent->_Color == _Red;) {

  0004e	8b 4f 04	 mov	 ecx, DWORD PTR [edi+4]
  00051	8b c7		 mov	 eax, edi
  00053	80 79 0c 00	 cmp	 BYTE PTR [ecx+12], 0
  00057	0f 85 7d 01 00
	00		 jne	 $LN3@Insert_nod
  0005d	56		 push	 esi
  0005e	66 90		 npad	 2
$LL4@Insert_nod:

; 697  :             if (_Pnode->_Parent == _Pnode->_Parent->_Parent->_Left) { // fixup red-red in left subtree

  00060	8b 50 04	 mov	 edx, DWORD PTR [eax+4]
  00063	8b 72 04	 mov	 esi, DWORD PTR [edx+4]
  00066	8b 0e		 mov	 ecx, DWORD PTR [esi]
  00068	3b d1		 cmp	 edx, ecx
  0006a	0f 85 aa 00 00
	00		 jne	 $LN10@Insert_nod

; 698  :                 const auto _Parent_sibling = _Pnode->_Parent->_Parent->_Right;

  00070	8b 4e 08	 mov	 ecx, DWORD PTR [esi+8]

; 699  :                 if (_Parent_sibling->_Color == _Red) { // parent's sibling has two red children, blacken both

  00073	80 79 0c 00	 cmp	 BYTE PTR [ecx+12], 0
  00077	0f 84 a3 00 00
	00		 je	 $LN82@Insert_nod

; 700  :                     _Pnode->_Parent->_Color          = _Black;
; 701  :                     _Parent_sibling->_Color          = _Black;
; 702  :                     _Pnode->_Parent->_Parent->_Color = _Red;
; 703  :                     _Pnode                           = _Pnode->_Parent->_Parent;
; 704  :                 } else { // parent's sibling has red and black children
; 705  :                     if (_Pnode == _Pnode->_Parent->_Right) { // rotate right child to left

  0007d	8b 72 08	 mov	 esi, DWORD PTR [edx+8]
  00080	3b c6		 cmp	 eax, esi
  00082	75 37		 jne	 SHORT $LN57@Insert_nod

; 485  :         _Wherenode->_Right = _Pnode->_Left;

  00084	8b 0e		 mov	 ecx, DWORD PTR [esi]

; 706  :                         _Pnode = _Pnode->_Parent;

  00086	8b c2		 mov	 eax, edx

; 485  :         _Wherenode->_Right = _Pnode->_Left;

  00088	89 4a 08	 mov	 DWORD PTR [edx+8], ecx

; 486  : 
; 487  :         if (!_Pnode->_Left->_Isnil) {

  0008b	8b 0e		 mov	 ecx, DWORD PTR [esi]
  0008d	80 79 0d 00	 cmp	 BYTE PTR [ecx+13], 0
  00091	75 03		 jne	 SHORT $LN21@Insert_nod

; 488  :             _Pnode->_Left->_Parent = _Wherenode;

  00093	89 41 04	 mov	 DWORD PTR [ecx+4], eax
$LN21@Insert_nod:

; 489  :         }
; 490  : 
; 491  :         _Pnode->_Parent = _Wherenode->_Parent;

  00096	8b 4a 04	 mov	 ecx, DWORD PTR [edx+4]
  00099	89 4e 04	 mov	 DWORD PTR [esi+4], ecx

; 492  : 
; 493  :         if (_Wherenode == _Myhead->_Parent) {

  0009c	8b 0b		 mov	 ecx, DWORD PTR [ebx]
  0009e	3b 41 04	 cmp	 eax, DWORD PTR [ecx+4]
  000a1	75 05		 jne	 SHORT $LN22@Insert_nod

; 494  :             _Myhead->_Parent = _Pnode;

  000a3	89 71 04	 mov	 DWORD PTR [ecx+4], esi
  000a6	eb 0e		 jmp	 SHORT $LN25@Insert_nod
$LN22@Insert_nod:

; 495  :         } else if (_Wherenode == _Wherenode->_Parent->_Left) {

  000a8	8b 4a 04	 mov	 ecx, DWORD PTR [edx+4]
  000ab	3b 01		 cmp	 eax, DWORD PTR [ecx]
  000ad	75 04		 jne	 SHORT $LN24@Insert_nod

; 496  :             _Wherenode->_Parent->_Left = _Pnode;

  000af	89 31		 mov	 DWORD PTR [ecx], esi

; 497  :         } else {

  000b1	eb 03		 jmp	 SHORT $LN25@Insert_nod
$LN24@Insert_nod:

; 498  :             _Wherenode->_Parent->_Right = _Pnode;

  000b3	89 71 08	 mov	 DWORD PTR [ecx+8], esi
$LN25@Insert_nod:

; 499  :         }
; 500  : 
; 501  :         _Pnode->_Left       = _Wherenode;

  000b6	89 06		 mov	 DWORD PTR [esi], eax

; 502  :         _Wherenode->_Parent = _Pnode;

  000b8	89 70 04	 mov	 DWORD PTR [eax+4], esi
$LN57@Insert_nod:

; 707  :                         _Lrotate(_Pnode);
; 708  :                     }
; 709  : 
; 710  :                     _Pnode->_Parent->_Color          = _Black; // propagate red up

  000bb	8b 48 04	 mov	 ecx, DWORD PTR [eax+4]
  000be	c6 41 0c 01	 mov	 BYTE PTR [ecx+12], 1

; 711  :                     _Pnode->_Parent->_Parent->_Color = _Red;

  000c2	8b 48 04	 mov	 ecx, DWORD PTR [eax+4]
  000c5	8b 49 04	 mov	 ecx, DWORD PTR [ecx+4]
  000c8	c6 41 0c 00	 mov	 BYTE PTR [ecx+12], 0

; 712  :                     _Rrotate(_Pnode->_Parent->_Parent);

  000cc	8b 48 04	 mov	 ecx, DWORD PTR [eax+4]
  000cf	8b 51 04	 mov	 edx, DWORD PTR [ecx+4]

; 506  :         _Nodeptr _Pnode   = _Wherenode->_Left;

  000d2	8b 32		 mov	 esi, DWORD PTR [edx]

; 507  :         _Wherenode->_Left = _Pnode->_Right;

  000d4	8b 4e 08	 mov	 ecx, DWORD PTR [esi+8]
  000d7	89 0a		 mov	 DWORD PTR [edx], ecx

; 508  : 
; 509  :         if (!_Pnode->_Right->_Isnil) {

  000d9	8b 4e 08	 mov	 ecx, DWORD PTR [esi+8]
  000dc	80 79 0d 00	 cmp	 BYTE PTR [ecx+13], 0
  000e0	75 03		 jne	 SHORT $LN29@Insert_nod

; 510  :             _Pnode->_Right->_Parent = _Wherenode;

  000e2	89 51 04	 mov	 DWORD PTR [ecx+4], edx
$LN29@Insert_nod:

; 511  :         }
; 512  : 
; 513  :         _Pnode->_Parent = _Wherenode->_Parent;

  000e5	8b 4a 04	 mov	 ecx, DWORD PTR [edx+4]
  000e8	89 4e 04	 mov	 DWORD PTR [esi+4], ecx

; 514  : 
; 515  :         if (_Wherenode == _Myhead->_Parent) {

  000eb	8b 0b		 mov	 ecx, DWORD PTR [ebx]
  000ed	3b 51 04	 cmp	 edx, DWORD PTR [ecx+4]
  000f0	75 0b		 jne	 SHORT $LN30@Insert_nod

; 516  :             _Myhead->_Parent = _Pnode;

  000f2	89 71 04	 mov	 DWORD PTR [ecx+4], esi

; 521  :         }
; 522  : 
; 523  :         _Pnode->_Right      = _Wherenode;

  000f5	89 56 08	 mov	 DWORD PTR [esi+8], edx

; 713  :                 }
; 714  :             } else { // fixup red-red in right subtree

  000f8	e9 cc 00 00 00	 jmp	 $LN81@Insert_nod
$LN30@Insert_nod:

; 517  :         } else if (_Wherenode == _Wherenode->_Parent->_Right) {

  000fd	8b 4a 04	 mov	 ecx, DWORD PTR [edx+4]
  00100	3b 51 08	 cmp	 edx, DWORD PTR [ecx+8]
  00103	75 0b		 jne	 SHORT $LN32@Insert_nod

; 518  :             _Wherenode->_Parent->_Right = _Pnode;

  00105	89 71 08	 mov	 DWORD PTR [ecx+8], esi

; 521  :         }
; 522  : 
; 523  :         _Pnode->_Right      = _Wherenode;

  00108	89 56 08	 mov	 DWORD PTR [esi+8], edx

; 713  :                 }
; 714  :             } else { // fixup red-red in right subtree

  0010b	e9 b9 00 00 00	 jmp	 $LN81@Insert_nod
$LN32@Insert_nod:

; 520  :             _Wherenode->_Parent->_Left = _Pnode;

  00110	89 31		 mov	 DWORD PTR [ecx], esi

; 521  :         }
; 522  : 
; 523  :         _Pnode->_Right      = _Wherenode;

  00112	89 56 08	 mov	 DWORD PTR [esi+8], edx

; 713  :                 }
; 714  :             } else { // fixup red-red in right subtree

  00115	e9 af 00 00 00	 jmp	 $LN81@Insert_nod
$LN10@Insert_nod:

; 715  :                 const auto _Parent_sibling = _Pnode->_Parent->_Parent->_Left;
; 716  :                 if (_Parent_sibling->_Color == _Red) { // parent's sibling has two red children, blacken both

  0011a	80 79 0c 00	 cmp	 BYTE PTR [ecx+12], 0
  0011e	75 1d		 jne	 SHORT $LN15@Insert_nod
$LN82@Insert_nod:

; 693  :             }
; 694  :         }
; 695  : 
; 696  :         for (_Nodeptr _Pnode = _Newnode; _Pnode->_Parent->_Color == _Red;) {

  00120	c6 42 0c 01	 mov	 BYTE PTR [edx+12], 1
  00124	c6 41 0c 01	 mov	 BYTE PTR [ecx+12], 1
  00128	8b 48 04	 mov	 ecx, DWORD PTR [eax+4]
  0012b	8b 49 04	 mov	 ecx, DWORD PTR [ecx+4]
  0012e	c6 41 0c 00	 mov	 BYTE PTR [ecx+12], 0
  00132	8b 48 04	 mov	 ecx, DWORD PTR [eax+4]
  00135	8b 41 04	 mov	 eax, DWORD PTR [ecx+4]
  00138	e9 8f 00 00 00	 jmp	 $LN2@Insert_nod
$LN15@Insert_nod:

; 717  :                     _Pnode->_Parent->_Color          = _Black;
; 718  :                     _Parent_sibling->_Color          = _Black;
; 719  :                     _Pnode->_Parent->_Parent->_Color = _Red;
; 720  :                     _Pnode                           = _Pnode->_Parent->_Parent;
; 721  :                 } else { // parent's sibling has red and black children
; 722  :                     if (_Pnode == _Pnode->_Parent->_Left) { // rotate left child to right

  0013d	8b 32		 mov	 esi, DWORD PTR [edx]
  0013f	3b c6		 cmp	 eax, esi
  00141	75 3a		 jne	 SHORT $LN42@Insert_nod

; 507  :         _Wherenode->_Left = _Pnode->_Right;

  00143	8b 4e 08	 mov	 ecx, DWORD PTR [esi+8]

; 723  :                         _Pnode = _Pnode->_Parent;

  00146	8b c2		 mov	 eax, edx

; 507  :         _Wherenode->_Left = _Pnode->_Right;

  00148	89 08		 mov	 DWORD PTR [eax], ecx

; 508  : 
; 509  :         if (!_Pnode->_Right->_Isnil) {

  0014a	8b 4e 08	 mov	 ecx, DWORD PTR [esi+8]
  0014d	80 79 0d 00	 cmp	 BYTE PTR [ecx+13], 0
  00151	75 03		 jne	 SHORT $LN37@Insert_nod

; 510  :             _Pnode->_Right->_Parent = _Wherenode;

  00153	89 41 04	 mov	 DWORD PTR [ecx+4], eax
$LN37@Insert_nod:

; 511  :         }
; 512  : 
; 513  :         _Pnode->_Parent = _Wherenode->_Parent;

  00156	8b 4a 04	 mov	 ecx, DWORD PTR [edx+4]
  00159	89 4e 04	 mov	 DWORD PTR [esi+4], ecx

; 514  : 
; 515  :         if (_Wherenode == _Myhead->_Parent) {

  0015c	8b 0b		 mov	 ecx, DWORD PTR [ebx]
  0015e	3b 41 04	 cmp	 eax, DWORD PTR [ecx+4]
  00161	75 05		 jne	 SHORT $LN38@Insert_nod

; 516  :             _Myhead->_Parent = _Pnode;

  00163	89 71 04	 mov	 DWORD PTR [ecx+4], esi
  00166	eb 0f		 jmp	 SHORT $LN41@Insert_nod
$LN38@Insert_nod:

; 517  :         } else if (_Wherenode == _Wherenode->_Parent->_Right) {

  00168	8b 4a 04	 mov	 ecx, DWORD PTR [edx+4]
  0016b	3b 41 08	 cmp	 eax, DWORD PTR [ecx+8]
  0016e	75 05		 jne	 SHORT $LN40@Insert_nod

; 518  :             _Wherenode->_Parent->_Right = _Pnode;

  00170	89 71 08	 mov	 DWORD PTR [ecx+8], esi

; 519  :         } else {

  00173	eb 02		 jmp	 SHORT $LN41@Insert_nod
$LN40@Insert_nod:

; 520  :             _Wherenode->_Parent->_Left = _Pnode;

  00175	89 31		 mov	 DWORD PTR [ecx], esi
$LN41@Insert_nod:

; 521  :         }
; 522  : 
; 523  :         _Pnode->_Right      = _Wherenode;

  00177	89 46 08	 mov	 DWORD PTR [esi+8], eax

; 524  :         _Wherenode->_Parent = _Pnode;

  0017a	89 70 04	 mov	 DWORD PTR [eax+4], esi
$LN42@Insert_nod:

; 724  :                         _Rrotate(_Pnode);
; 725  :                     }
; 726  : 
; 727  :                     _Pnode->_Parent->_Color          = _Black; // propagate red up

  0017d	8b 48 04	 mov	 ecx, DWORD PTR [eax+4]
  00180	c6 41 0c 01	 mov	 BYTE PTR [ecx+12], 1

; 728  :                     _Pnode->_Parent->_Parent->_Color = _Red;

  00184	8b 48 04	 mov	 ecx, DWORD PTR [eax+4]
  00187	8b 49 04	 mov	 ecx, DWORD PTR [ecx+4]
  0018a	c6 41 0c 00	 mov	 BYTE PTR [ecx+12], 0

; 729  :                     _Lrotate(_Pnode->_Parent->_Parent);

  0018e	8b 48 04	 mov	 ecx, DWORD PTR [eax+4]
  00191	8b 51 04	 mov	 edx, DWORD PTR [ecx+4]

; 484  :         _Nodeptr _Pnode    = _Wherenode->_Right;

  00194	8b 72 08	 mov	 esi, DWORD PTR [edx+8]

; 485  :         _Wherenode->_Right = _Pnode->_Left;

  00197	8b 0e		 mov	 ecx, DWORD PTR [esi]
  00199	89 4a 08	 mov	 DWORD PTR [edx+8], ecx

; 486  : 
; 487  :         if (!_Pnode->_Left->_Isnil) {

  0019c	8b 0e		 mov	 ecx, DWORD PTR [esi]
  0019e	80 79 0d 00	 cmp	 BYTE PTR [ecx+13], 0
  001a2	75 03		 jne	 SHORT $LN45@Insert_nod

; 488  :             _Pnode->_Left->_Parent = _Wherenode;

  001a4	89 51 04	 mov	 DWORD PTR [ecx+4], edx
$LN45@Insert_nod:

; 489  :         }
; 490  : 
; 491  :         _Pnode->_Parent = _Wherenode->_Parent;

  001a7	8b 4a 04	 mov	 ecx, DWORD PTR [edx+4]
  001aa	89 4e 04	 mov	 DWORD PTR [esi+4], ecx

; 492  : 
; 493  :         if (_Wherenode == _Myhead->_Parent) {

  001ad	8b 0b		 mov	 ecx, DWORD PTR [ebx]
  001af	3b 51 04	 cmp	 edx, DWORD PTR [ecx+4]
  001b2	75 05		 jne	 SHORT $LN46@Insert_nod

; 494  :             _Myhead->_Parent = _Pnode;

  001b4	89 71 04	 mov	 DWORD PTR [ecx+4], esi
  001b7	eb 0e		 jmp	 SHORT $LN49@Insert_nod
$LN46@Insert_nod:

; 495  :         } else if (_Wherenode == _Wherenode->_Parent->_Left) {

  001b9	8b 4a 04	 mov	 ecx, DWORD PTR [edx+4]
  001bc	3b 11		 cmp	 edx, DWORD PTR [ecx]
  001be	75 04		 jne	 SHORT $LN48@Insert_nod

; 496  :             _Wherenode->_Parent->_Left = _Pnode;

  001c0	89 31		 mov	 DWORD PTR [ecx], esi

; 497  :         } else {

  001c2	eb 03		 jmp	 SHORT $LN49@Insert_nod
$LN48@Insert_nod:

; 498  :             _Wherenode->_Parent->_Right = _Pnode;

  001c4	89 71 08	 mov	 DWORD PTR [ecx+8], esi
$LN49@Insert_nod:

; 499  :         }
; 500  : 
; 501  :         _Pnode->_Left       = _Wherenode;

  001c7	89 16		 mov	 DWORD PTR [esi], edx
$LN81@Insert_nod:

; 693  :             }
; 694  :         }
; 695  : 
; 696  :         for (_Nodeptr _Pnode = _Newnode; _Pnode->_Parent->_Color == _Red;) {

  001c9	89 72 04	 mov	 DWORD PTR [edx+4], esi
$LN2@Insert_nod:
  001cc	8b 48 04	 mov	 ecx, DWORD PTR [eax+4]
  001cf	80 79 0c 00	 cmp	 BYTE PTR [ecx+12], 0
  001d3	0f 84 87 fe ff
	ff		 je	 $LL4@Insert_nod
  001d9	5e		 pop	 esi
$LN3@Insert_nod:

; 730  :                 }
; 731  :             }
; 732  :         }
; 733  : 
; 734  :         _Head->_Parent->_Color = _Black; // root is always black

  001da	8b 45 fc	 mov	 eax, DWORD PTR __Head$1$[ebp]
  001dd	8b 40 04	 mov	 eax, DWORD PTR [eax+4]
  001e0	c6 40 0c 01	 mov	 BYTE PTR [eax+12], 1

; 735  :         return _Newnode;
; 736  :     }

  001e4	8b c7		 mov	 eax, edi
  001e6	5f		 pop	 edi
  001e7	5b		 pop	 ebx
  001e8	8b e5		 mov	 esp, ebp
  001ea	5d		 pop	 ebp
  001eb	c2 0c 00	 ret	 12			; 0000000cH
?_Insert_node@?$_Tree_val@U?$_Tree_simple_types@V?$basic_string@DU?$char_traits@D@std@@V?$allocator@D@2@@std@@@std@@@std@@QAEPAU?$_Tree_node@V?$basic_string@DU?$char_traits@D@std@@V?$allocator@D@2@@std@@PAX@2@U?$_Tree_id@PAU?$_Tree_node@V?$basic_string@DU?$char_traits@D@std@@V?$allocator@D@2@@std@@PAX@std@@@2@QAU32@@Z ENDP ; std::_Tree_val<std::_Tree_simple_types<std::basic_string<char,std::char_traits<char>,std::allocator<char> > > >::_Insert_node
_TEXT	ENDS
; Function compile flags: /Ogtp
; File C:\Program Files\Microsoft Visual Studio\2022\Professional\VC\Tools\MSVC\14.44.35207\include\xtree
;	COMDAT ??1?$map@EHU?$less@E@std@@V?$allocator@U?$pair@$$CBEH@std@@@2@@std@@QAE@XZ
_TEXT	SEGMENT
??1?$map@EHU?$less@E@std@@V?$allocator@U?$pair@$$CBEH@std@@@2@@std@@QAE@XZ PROC ; std::map<unsigned char,int,std::less<unsigned char>,std::allocator<std::pair<unsigned char const ,int> > >::~map<unsigned char,int,std::less<unsigned char>,std::allocator<std::pair<unsigned char const ,int> > >, COMDAT
; _this$ = ecx

; 1097 :         _Scary->_Erase_head(_Getal());

  00000	51		 push	 ecx
  00001	e8 00 00 00 00	 call	 ??$_Erase_head@V?$allocator@U?$_Tree_node@U?$pair@$$CBEH@std@@PAX@std@@@std@@@?$_Tree_val@U?$_Tree_simple_types@U?$pair@$$CBEH@std@@@std@@@std@@QAEXAAV?$allocator@U?$_Tree_node@U?$pair@$$CBEH@std@@PAX@std@@@1@@Z ; std::_Tree_val<std::_Tree_simple_types<std::pair<unsigned char const ,int> > >::_Erase_head<std::allocator<std::_Tree_node<std::pair<unsigned char const ,int>,void *> > >
  00006	c3		 ret	 0
??1?$map@EHU?$less@E@std@@V?$allocator@U?$pair@$$CBEH@std@@@2@@std@@QAE@XZ ENDP ; std::map<unsigned char,int,std::less<unsigned char>,std::allocator<std::pair<unsigned char const ,int> > >::~map<unsigned char,int,std::less<unsigned char>,std::allocator<std::pair<unsigned char const ,int> > >
_TEXT	ENDS
; Function compile flags: /Ogtp
; File C:\Program Files\Microsoft Visual Studio\2022\Professional\VC\Tools\MSVC\14.44.35207\include\map
; File C:\Program Files\Microsoft Visual Studio\2022\Professional\VC\Tools\MSVC\14.44.35207\include\xmemory
; File C:\Program Files\Microsoft Visual Studio\2022\Professional\VC\Tools\MSVC\14.44.35207\include\xtree
; File C:\Program Files\Microsoft Visual Studio\2022\Professional\VC\Tools\MSVC\14.44.35207\include\xmemory
; File C:\Program Files\Microsoft Visual Studio\2022\Professional\VC\Tools\MSVC\14.44.35207\include\xtree
; File C:\Program Files\Microsoft Visual Studio\2022\Professional\VC\Tools\MSVC\14.44.35207\include\map
;	COMDAT ??0?$map@EHU?$less@E@std@@V?$allocator@U?$pair@$$CBEH@std@@@2@@std@@QAE@ABV01@@Z
_TEXT	SEGMENT
__Sentinel$2 = -20					; size = 8
_this$ = -16						; size = 4
__$EHRec$ = -12						; size = 12
__Right$ = 8						; size = 4
??0?$map@EHU?$less@E@std@@V?$allocator@U?$pair@$$CBEH@std@@@2@@std@@QAE@ABV01@@Z PROC ; std::map<unsigned char,int,std::less<unsigned char>,std::allocator<std::pair<unsigned char const ,int> > >::map<unsigned char,int,std::less<unsigned char>,std::allocator<std::pair<unsigned char const ,int> > >, COMDAT
; _this$ = ecx

; 110  :     map(const map& _Right) : _Mybase(_Right, _Alnode_traits::select_on_container_copy_construction(_Right._Getal())) {}

  00000	55		 push	 ebp
  00001	8b ec		 mov	 ebp, esp
  00003	6a ff		 push	 -1
  00005	68 00 00 00 00	 push	 __ehhandler$??0?$map@EHU?$less@E@std@@V?$allocator@U?$pair@$$CBEH@std@@@2@@std@@QAE@ABV01@@Z
  0000a	64 a1 00 00 00
	00		 mov	 eax, DWORD PTR fs:0
  00010	50		 push	 eax
  00011	83 ec 08	 sub	 esp, 8
  00014	56		 push	 esi
  00015	57		 push	 edi
  00016	a1 00 00 00 00	 mov	 eax, DWORD PTR ___security_cookie
  0001b	33 c5		 xor	 eax, ebp
  0001d	50		 push	 eax
  0001e	8d 45 f4	 lea	 eax, DWORD PTR __$EHRec$[ebp]
  00021	64 a3 00 00 00
	00		 mov	 DWORD PTR fs:0, eax
  00027	8b f9		 mov	 edi, ecx
  00029	89 7d f0	 mov	 DWORD PTR _this$[ebp], edi
; File C:\Program Files\Microsoft Visual Studio\2022\Professional\VC\Tools\MSVC\14.44.35207\include\xmemory

; 136  :         return ::operator new(_Bytes);

  0002c	6a 18		 push	 24			; 00000018H
; File C:\Program Files\Microsoft Visual Studio\2022\Professional\VC\Tools\MSVC\14.44.35207\include\xtree

; 450  :     _Tree_val() noexcept : _Myhead(), _Mysize(0) {}

  0002e	c7 07 00 00 00
	00		 mov	 DWORD PTR [edi], 0
  00034	c7 47 04 00 00
	00 00		 mov	 DWORD PTR [edi+4], 0

; 790  :     _Tree_head_scoped_ptr(_Alnode& _Al_, _Scary_val& _Mycont_) : _Al(_Al_), _Mycont(_STD addressof(_Mycont_)) {

  0003b	89 7d ec	 mov	 DWORD PTR __Sentinel$2[ebp], edi
  0003e	89 7d f0	 mov	 DWORD PTR __Sentinel$2[ebp+4], edi
; File C:\Program Files\Microsoft Visual Studio\2022\Professional\VC\Tools\MSVC\14.44.35207\include\xmemory

; 136  :         return ::operator new(_Bytes);

  00041	e8 00 00 00 00	 call	 ??2@YAPAXI@Z		; operator new
  00046	83 c4 04	 add	 esp, 4
; File C:\Program Files\Microsoft Visual Studio\2022\Professional\VC\Tools\MSVC\14.44.35207\include\xtree

; 346  :         _Construct_in_place(_Pnode->_Left, _Pnode);

  00049	89 00		 mov	 DWORD PTR [eax], eax

; 347  :         _Construct_in_place(_Pnode->_Parent, _Pnode);

  0004b	89 40 04	 mov	 DWORD PTR [eax+4], eax

; 348  :         _Construct_in_place(_Pnode->_Right, _Pnode);

  0004e	89 40 08	 mov	 DWORD PTR [eax+8], eax

; 349  :         _Pnode->_Color = _Black;

  00051	66 c7 40 0c 01
	01		 mov	 WORD PTR [eax+12], 257	; 00000101H

; 791  :         _Mycont->_Myhead = _Alnode::value_type::_Buyheadnode(_Al);

  00057	89 07		 mov	 DWORD PTR [edi], eax

; 1657 :         _Scary->_Myhead->_Parent = _Copy_nodes<_Strat>(_Right_scary->_Myhead->_Parent, _Scary->_Myhead);

  00059	8b 75 08	 mov	 esi, DWORD PTR __Right$[ebp]
  0005c	8b cf		 mov	 ecx, edi
  0005e	50		 push	 eax

; 920  :         _Tree_head_scoped_ptr<_Alnode, _Scary_val> _Sentinel(_Getal(), *_Scary);

  0005f	c7 45 fc 00 00
	00 00		 mov	 DWORD PTR __$EHRec$[ebp+8], 0

; 1657 :         _Scary->_Myhead->_Parent = _Copy_nodes<_Strat>(_Right_scary->_Myhead->_Parent, _Scary->_Myhead);

  00066	8b 06		 mov	 eax, DWORD PTR [esi]
  00068	ff 70 04	 push	 DWORD PTR [eax+4]
  0006b	e8 00 00 00 00	 call	 ??$_Copy_nodes@$0A@@?$_Tree@V?$_Tmap_traits@EHU?$less@E@std@@V?$allocator@U?$pair@$$CBEH@std@@@2@$0A@@std@@@std@@IAEPAU?$_Tree_node@U?$pair@$$CBEH@std@@PAX@1@PAU21@0@Z ; std::_Tree<std::_Tmap_traits<unsigned char,int,std::less<unsigned char>,std::allocator<std::pair<unsigned char const ,int> >,0> >::_Copy_nodes<0>
  00070	8b 0f		 mov	 ecx, DWORD PTR [edi]
  00072	89 41 04	 mov	 DWORD PTR [ecx+4], eax

; 1658 :         _Scary->_Mysize          = _Right_scary->_Mysize;

  00075	8b 46 04	 mov	 eax, DWORD PTR [esi+4]

; 1659 :         if (!_Scary->_Myhead->_Parent->_Isnil) { // nonempty tree, look for new smallest and largest

  00078	8b 37		 mov	 esi, DWORD PTR [edi]
  0007a	89 47 04	 mov	 DWORD PTR [edi+4], eax
  0007d	8b 56 04	 mov	 edx, DWORD PTR [esi+4]
  00080	80 7a 0d 00	 cmp	 BYTE PTR [edx+13], 0
  00084	75 3a		 jne	 SHORT $LN36@map

; 476  :         while (!_Pnode->_Left->_Isnil) {

  00086	8b 0a		 mov	 ecx, DWORD PTR [edx]
  00088	80 79 0d 00	 cmp	 BYTE PTR [ecx+13], 0
  0008c	75 0e		 jne	 SHORT $LN41@map
  0008e	66 90		 npad	 2
$LL40@map:
  00090	8b 01		 mov	 eax, DWORD PTR [ecx]

; 477  :             _Pnode = _Pnode->_Left;

  00092	8b d1		 mov	 edx, ecx
  00094	8b c8		 mov	 ecx, eax
  00096	80 78 0d 00	 cmp	 BYTE PTR [eax+13], 0
  0009a	74 f4		 je	 SHORT $LL40@map
$LN41@map:

; 1660 :             _Scary->_Myhead->_Left  = _Scary_val::_Min(_Scary->_Myhead->_Parent);

  0009c	89 16		 mov	 DWORD PTR [esi], edx

; 1661 :             _Scary->_Myhead->_Right = _Scary_val::_Max(_Scary->_Myhead->_Parent);

  0009e	8b 17		 mov	 edx, DWORD PTR [edi]
  000a0	8b 4a 04	 mov	 ecx, DWORD PTR [edx+4]

; 468  :         while (!_Pnode->_Right->_Isnil) {

  000a3	8b 41 08	 mov	 eax, DWORD PTR [ecx+8]
  000a6	80 78 0d 00	 cmp	 BYTE PTR [eax+13], 0
  000aa	75 0f		 jne	 SHORT $LN46@map
  000ac	0f 1f 40 00	 npad	 4
$LL45@map:

; 469  :             _Pnode = _Pnode->_Right;

  000b0	8b c8		 mov	 ecx, eax
  000b2	8b 41 08	 mov	 eax, DWORD PTR [ecx+8]
  000b5	80 78 0d 00	 cmp	 BYTE PTR [eax+13], 0
  000b9	74 f5		 je	 SHORT $LL45@map
$LN46@map:

; 1661 :             _Scary->_Myhead->_Right = _Scary_val::_Max(_Scary->_Myhead->_Parent);

  000bb	89 4a 08	 mov	 DWORD PTR [edx+8], ecx

; 1662 :         } else { // empty tree, just tidy head pointers

  000be	eb 07		 jmp	 SHORT $LN63@map
$LN36@map:

; 1663 :             _Scary->_Myhead->_Left  = _Scary->_Myhead;

  000c0	89 36		 mov	 DWORD PTR [esi], esi

; 1664 :             _Scary->_Myhead->_Right = _Scary->_Myhead;

  000c2	8b 07		 mov	 eax, DWORD PTR [edi]
  000c4	89 40 08	 mov	 DWORD PTR [eax+8], eax
$LN63@map:
; File C:\Program Files\Microsoft Visual Studio\2022\Professional\VC\Tools\MSVC\14.44.35207\include\map

; 110  :     map(const map& _Right) : _Mybase(_Right, _Alnode_traits::select_on_container_copy_construction(_Right._Getal())) {}

  000c7	8b c7		 mov	 eax, edi
  000c9	8b 4d f4	 mov	 ecx, DWORD PTR __$EHRec$[ebp]
  000cc	64 89 0d 00 00
	00 00		 mov	 DWORD PTR fs:0, ecx
  000d3	59		 pop	 ecx
  000d4	5f		 pop	 edi
  000d5	5e		 pop	 esi
  000d6	8b e5		 mov	 esp, ebp
  000d8	5d		 pop	 ebp
  000d9	c2 04 00	 ret	 4
_TEXT	ENDS
;	COMDAT text$x
text$x	SEGMENT
__unwindfunclet$??0?$map@EHU?$less@E@std@@V?$allocator@U?$pair@$$CBEH@std@@@2@@std@@QAE@ABV01@@Z$1:
  00000	8d 4d ec	 lea	 ecx, DWORD PTR __Sentinel$2[ebp]
  00003	e9 00 00 00 00	 jmp	 ??1?$_Tree_head_scoped_ptr@V?$allocator@U?$_Tree_node@U?$pair@$$CBEH@std@@PAX@std@@@std@@V?$_Tree_val@U?$_Tree_simple_types@U?$pair@$$CBEH@std@@@std@@@2@@std@@QAE@XZ ; std::_Tree_head_scoped_ptr<std::allocator<std::_Tree_node<std::pair<unsigned char const ,int>,void *> >,std::_Tree_val<std::_Tree_simple_types<std::pair<unsigned char const ,int> > > >::~_Tree_head_scoped_ptr<std::allocator<std::_Tree_node<std::pair<unsigned char const ,int>,void *> >,std::_Tree_val<std::_Tree_simple_types<std::pair<unsigned char const ,int> > > >
  00008	cc		 int	 3
  00009	cc		 int	 3
  0000a	cc		 int	 3
  0000b	cc		 int	 3
  0000c	cc		 int	 3
__ehhandler$??0?$map@EHU?$less@E@std@@V?$allocator@U?$pair@$$CBEH@std@@@2@@std@@QAE@ABV01@@Z:
  0000d	90		 npad	 1
  0000e	90		 npad	 1
  0000f	8b 54 24 08	 mov	 edx, DWORD PTR [esp+8]
  00013	8d 42 0c	 lea	 eax, DWORD PTR [edx+12]
  00016	8b 4a ec	 mov	 ecx, DWORD PTR [edx-20]
  00019	33 c8		 xor	 ecx, eax
  0001b	e8 00 00 00 00	 call	 @__security_check_cookie@4
  00020	b8 00 00 00 00	 mov	 eax, OFFSET __ehfuncinfo$??0?$map@EHU?$less@E@std@@V?$allocator@U?$pair@$$CBEH@std@@@2@@std@@QAE@ABV01@@Z
  00025	e9 00 00 00 00	 jmp	 ___CxxFrameHandler3
text$x	ENDS
??0?$map@EHU?$less@E@std@@V?$allocator@U?$pair@$$CBEH@std@@@2@@std@@QAE@ABV01@@Z ENDP ; std::map<unsigned char,int,std::less<unsigned char>,std::allocator<std::pair<unsigned char const ,int> > >::map<unsigned char,int,std::less<unsigned char>,std::allocator<std::pair<unsigned char const ,int> > >
; Function compile flags: /Ogtp
; File C:\Program Files\Microsoft Visual Studio\2022\Professional\VC\Tools\MSVC\14.44.35207\include\xtree
;	COMDAT ?_Throw_tree_length_error@std@@YAXXZ
_TEXT	SEGMENT
?_Throw_tree_length_error@std@@YAXXZ PROC		; std::_Throw_tree_length_error, COMDAT

; 417  :     _Xlength_error("map/set too long");

  00000	68 00 00 00 00	 push	 OFFSET ??_C@_0BB@GCADKGJO@map?1set?5too?5long@
  00005	e8 00 00 00 00	 call	 ?_Xlength_error@std@@YAXPBD@Z ; std::_Xlength_error
$LN3@Throw_tree:
  0000a	cc		 int	 3
?_Throw_tree_length_error@std@@YAXXZ ENDP		; std::_Throw_tree_length_error
_TEXT	ENDS
; Function compile flags: /Ogtp
; File C:\Program Files\Microsoft Visual Studio\2022\Professional\VC\Tools\MSVC\14.44.35207\include\xstring
; File C:\Program Files\Microsoft Visual Studio\2022\Professional\VC\Tools\MSVC\14.44.35207\include\xmemory
; File C:\Program Files\Microsoft Visual Studio\2022\Professional\VC\Tools\MSVC\14.44.35207\include\xstring
; File C:\Program Files\Microsoft Visual Studio\2022\Professional\VC\Tools\MSVC\14.44.35207\include\xmemory
; File C:\Program Files\Microsoft Visual Studio\2022\Professional\VC\Tools\MSVC\14.44.35207\include\xstring
; File C:\Program Files\Microsoft Visual Studio\2022\Professional\VC\Tools\MSVC\14.44.35207\include\xmemory
; File C:\Program Files\Microsoft Visual Studio\2022\Professional\VC\Tools\MSVC\14.44.35207\include\xstring
;	COMDAT ??1?$basic_string@DU?$char_traits@D@std@@V?$allocator@D@2@@std@@QAE@XZ
_TEXT	SEGMENT
??1?$basic_string@DU?$char_traits@D@std@@V?$allocator@D@2@@std@@QAE@XZ PROC ; std::basic_string<char,std::char_traits<char>,std::allocator<char> >::~basic_string<char,std::char_traits<char>,std::allocator<char> >, COMDAT
; _this$ = ecx

; 1382 :     _CONSTEXPR20 ~basic_string() noexcept {

  00000	56		 push	 esi
  00001	8b f1		 mov	 esi, ecx

; 453  :         return _Myres > _Small_string_capacity;

  00003	8b 4e 14	 mov	 ecx, DWORD PTR [esi+20]
  00006	83 f9 0f	 cmp	 ecx, 15			; 0000000fH

; 3083 :         if (_My_data._Large_mode_engaged()) {

  00009	76 27		 jbe	 SHORT $LN19@basic_stri
; File C:\Program Files\Microsoft Visual Studio\2022\Professional\VC\Tools\MSVC\14.44.35207\include\xmemory

; 985  :         _STD _Deallocate<_New_alignof<_Ty>>(_Ptr, sizeof(_Ty) * _Count);

  0000b	8b 06		 mov	 eax, DWORD PTR [esi]
; File C:\Program Files\Microsoft Visual Studio\2022\Professional\VC\Tools\MSVC\14.44.35207\include\xstring

; 852  :         _Al.deallocate(_Old_ptr, _Capacity + 1); // +1 for null terminator

  0000d	41		 inc	 ecx
; File C:\Program Files\Microsoft Visual Studio\2022\Professional\VC\Tools\MSVC\14.44.35207\include\xmemory

; 284  :         if (_Bytes >= _Big_allocation_threshold) {

  0000e	81 f9 00 10 00
	00		 cmp	 ecx, 4096		; 00001000H
  00014	72 12		 jb	 SHORT $LN24@basic_stri

; 205  :     const uintptr_t _Ptr_container   = _Ptr_user[-1];

  00016	8b 50 fc	 mov	 edx, DWORD PTR [eax-4]
  00019	83 c1 23	 add	 ecx, 35			; 00000023H

; 206  : 
; 207  :     // If the following asserts, it likely means that we are performing
; 208  :     // an aligned delete on memory coming from an unaligned allocation.
; 209  :     _STL_ASSERT(_Ptr_user[-2] == _Big_allocation_sentinel, "invalid argument");
; 210  : 
; 211  :     // Extra paranoia on aligned allocation/deallocation; ensure _Ptr_container is
; 212  :     // in range [_Min_back_shift, _Non_user_size]
; 213  : #ifdef _DEBUG
; 214  :     constexpr uintptr_t _Min_back_shift = 2 * sizeof(void*);
; 215  : #else // ^^^ defined(_DEBUG) / !defined(_DEBUG) vvv
; 216  :     constexpr uintptr_t _Min_back_shift = sizeof(void*);
; 217  : #endif // ^^^ !defined(_DEBUG) ^^^
; 218  :     const uintptr_t _Back_shift = reinterpret_cast<uintptr_t>(_Ptr) - _Ptr_container;

  0001c	2b c2		 sub	 eax, edx

; 219  :     _STL_VERIFY(_Back_shift >= _Min_back_shift && _Back_shift <= _Non_user_size, "invalid argument");

  0001e	83 c0 fc	 add	 eax, -4			; fffffffcH
  00021	83 f8 1f	 cmp	 eax, 31			; 0000001fH
  00024	77 1f		 ja	 SHORT $LN23@basic_stri

; 220  :     _Ptr = reinterpret_cast<void*>(_Ptr_container);

  00026	8b c2		 mov	 eax, edx
$LN24@basic_stri:

; 289  :         ::operator delete(_Ptr, _Bytes);

  00028	51		 push	 ecx
  00029	50		 push	 eax
  0002a	e8 00 00 00 00	 call	 ??3@YAXPAXI@Z		; operator delete
  0002f	83 c4 08	 add	 esp, 8
$LN19@basic_stri:
; File C:\Program Files\Microsoft Visual Studio\2022\Professional\VC\Tools\MSVC\14.44.35207\include\xstring

; 3090 :         _My_data._Mysize = 0;

  00032	c7 46 10 00 00
	00 00		 mov	 DWORD PTR [esi+16], 0

; 3091 :         _My_data._Myres  = _Small_string_capacity;

  00039	c7 46 14 0f 00
	00 00		 mov	 DWORD PTR [esi+20], 15	; 0000000fH

; 3092 :         // the _Traits::assign is last so the codegen doesn't think the char write can alias this
; 3093 :         _Traits::assign(_My_data._Bx._Buf[0], _Elem());

  00040	c6 06 00	 mov	 BYTE PTR [esi], 0
  00043	5e		 pop	 esi

; 1390 :     }

  00044	c3		 ret	 0
$LN23@basic_stri:
; File C:\Program Files\Microsoft Visual Studio\2022\Professional\VC\Tools\MSVC\14.44.35207\include\xmemory

; 219  :     _STL_VERIFY(_Back_shift >= _Min_back_shift && _Back_shift <= _Non_user_size, "invalid argument");

  00045	6a 00		 push	 0
  00047	6a 00		 push	 0
  00049	6a 00		 push	 0
  0004b	6a 00		 push	 0
  0004d	6a 00		 push	 0
  0004f	e8 00 00 00 00	 call	 __invoke_watson
$LN33@basic_stri:
  00054	cc		 int	 3
??1?$basic_string@DU?$char_traits@D@std@@V?$allocator@D@2@@std@@QAE@XZ ENDP ; std::basic_string<char,std::char_traits<char>,std::allocator<char> >::~basic_string<char,std::char_traits<char>,std::allocator<char> >
_TEXT	ENDS
; Function compile flags: /Ogtp
; File C:\Program Files\Microsoft Visual Studio\2022\Professional\VC\Tools\MSVC\14.44.35207\include\xstring
;	COMDAT ?_Xlen_string@std@@YAXXZ
_TEXT	SEGMENT
?_Xlen_string@std@@YAXXZ PROC				; std::_Xlen_string, COMDAT

; 531  :     _Xlength_error("string too long");

  00000	68 00 00 00 00	 push	 OFFSET ??_C@_0BA@JFNIOLAK@string?5too?5long@
  00005	e8 00 00 00 00	 call	 ?_Xlength_error@std@@YAXPBD@Z ; std::_Xlength_error
$LN3@Xlen_strin:
  0000a	cc		 int	 3
?_Xlen_string@std@@YAXXZ ENDP				; std::_Xlen_string
_TEXT	ENDS
; Function compile flags: /Ogtp
; File C:\Program Files\Microsoft Visual Studio\2022\Professional\VC\Tools\MSVC\14.44.35207\include\xmemory
;	COMDAT ?_Throw_bad_array_new_length@std@@YAXXZ
_TEXT	SEGMENT
$T1 = -12						; size = 12
?_Throw_bad_array_new_length@std@@YAXXZ PROC		; std::_Throw_bad_array_new_length, COMDAT

; 107  : [[noreturn]] inline void _Throw_bad_array_new_length() {

  00000	55		 push	 ebp
  00001	8b ec		 mov	 ebp, esp
  00003	83 ec 0c	 sub	 esp, 12			; 0000000cH

; 108  :     _THROW(bad_array_new_length{});

  00006	8d 4d f4	 lea	 ecx, DWORD PTR $T1[ebp]
  00009	e8 00 00 00 00	 call	 ??0bad_array_new_length@std@@QAE@XZ ; std::bad_array_new_length::bad_array_new_length
  0000e	68 00 00 00 00	 push	 OFFSET __TI3?AVbad_array_new_length@std@@
  00013	8d 45 f4	 lea	 eax, DWORD PTR $T1[ebp]
  00016	50		 push	 eax
  00017	e8 00 00 00 00	 call	 __CxxThrowException@8
$LN3@Throw_bad_:
  0001c	cc		 int	 3
?_Throw_bad_array_new_length@std@@YAXXZ ENDP		; std::_Throw_bad_array_new_length
_TEXT	ENDS
; Function compile flags: /Ogtp
; File C:\Program Files\Microsoft Visual Studio\2022\Professional\VC\Tools\MSVC\14.44.35207\include\vcruntime_exception.h
;	COMDAT ??_Gbad_array_new_length@std@@UAEPAXI@Z
_TEXT	SEGMENT
___flags$ = 8						; size = 4
??_Gbad_array_new_length@std@@UAEPAXI@Z PROC		; std::bad_array_new_length::`scalar deleting destructor', COMDAT
; _this$ = ecx
  00000	55		 push	 ebp
  00001	8b ec		 mov	 ebp, esp

; 90   :     {

  00003	56		 push	 esi
  00004	8b f1		 mov	 esi, ecx

; 91   :         __std_exception_destroy(&_Data);

  00006	8d 46 04	 lea	 eax, DWORD PTR [esi+4]
  00009	c7 06 00 00 00
	00		 mov	 DWORD PTR [esi], OFFSET ??_7exception@std@@6B@
  0000f	50		 push	 eax
  00010	e8 00 00 00 00	 call	 ___std_exception_destroy
  00015	83 c4 04	 add	 esp, 4
  00018	f6 45 08 01	 test	 BYTE PTR ___flags$[ebp], 1
  0001c	74 0b		 je	 SHORT $LN18@scalar
  0001e	6a 0c		 push	 12			; 0000000cH
  00020	56		 push	 esi
  00021	e8 00 00 00 00	 call	 ??3@YAXPAXI@Z		; operator delete
  00026	83 c4 08	 add	 esp, 8
$LN18@scalar:
  00029	8b c6		 mov	 eax, esi
  0002b	5e		 pop	 esi
  0002c	5d		 pop	 ebp
  0002d	c2 04 00	 ret	 4
??_Gbad_array_new_length@std@@UAEPAXI@Z ENDP		; std::bad_array_new_length::`scalar deleting destructor'
_TEXT	ENDS
; Function compile flags: /Ogtp
; File C:\Program Files\Microsoft Visual Studio\2022\Professional\VC\Tools\MSVC\14.44.35207\include\vcruntime_exception.h
;	COMDAT ??0bad_array_new_length@std@@QAE@ABV01@@Z
_TEXT	SEGMENT
___that$ = 8						; size = 4
??0bad_array_new_length@std@@QAE@ABV01@@Z PROC		; std::bad_array_new_length::bad_array_new_length, COMDAT
; _this$ = ecx
  00000	55		 push	 ebp
  00001	8b ec		 mov	 ebp, esp

; 73   :     {

  00003	56		 push	 esi
  00004	8b f1		 mov	 esi, ecx
  00006	0f 57 c0	 xorps	 xmm0, xmm0

; 72   :         : _Data()

  00009	8d 46 04	 lea	 eax, DWORD PTR [esi+4]

; 74   :         __std_exception_copy(&_Other._Data, &_Data);

  0000c	50		 push	 eax
  0000d	c7 06 00 00 00
	00		 mov	 DWORD PTR [esi], OFFSET ??_7exception@std@@6B@
  00013	66 0f d6 00	 movq	 QWORD PTR [eax], xmm0
  00017	8b 45 08	 mov	 eax, DWORD PTR ___that$[ebp]
  0001a	83 c0 04	 add	 eax, 4
  0001d	50		 push	 eax
  0001e	e8 00 00 00 00	 call	 ___std_exception_copy
  00023	83 c4 08	 add	 esp, 8
  00026	c7 06 00 00 00
	00		 mov	 DWORD PTR [esi], OFFSET ??_7bad_array_new_length@std@@6B@
  0002c	8b c6		 mov	 eax, esi
  0002e	5e		 pop	 esi
  0002f	5d		 pop	 ebp
  00030	c2 04 00	 ret	 4
??0bad_array_new_length@std@@QAE@ABV01@@Z ENDP		; std::bad_array_new_length::bad_array_new_length
_TEXT	ENDS
; Function compile flags: /Ogtp
; File C:\Program Files\Microsoft Visual Studio\2022\Professional\VC\Tools\MSVC\14.44.35207\include\vcruntime_exception.h
;	COMDAT ??1bad_array_new_length@std@@UAE@XZ
_TEXT	SEGMENT
??1bad_array_new_length@std@@UAE@XZ PROC		; std::bad_array_new_length::~bad_array_new_length, COMDAT
; _this$ = ecx

; 91   :         __std_exception_destroy(&_Data);

  00000	8d 41 04	 lea	 eax, DWORD PTR [ecx+4]
  00003	c7 01 00 00 00
	00		 mov	 DWORD PTR [ecx], OFFSET ??_7exception@std@@6B@
  00009	50		 push	 eax
  0000a	e8 00 00 00 00	 call	 ___std_exception_destroy
  0000f	59		 pop	 ecx
  00010	c3		 ret	 0
??1bad_array_new_length@std@@UAE@XZ ENDP		; std::bad_array_new_length::~bad_array_new_length
_TEXT	ENDS
; Function compile flags: /Ogtp
; File C:\Program Files\Microsoft Visual Studio\2022\Professional\VC\Tools\MSVC\14.44.35207\include\vcruntime_exception.h
;	COMDAT ??0bad_array_new_length@std@@QAE@XZ
_TEXT	SEGMENT
??0bad_array_new_length@std@@QAE@XZ PROC		; std::bad_array_new_length::bad_array_new_length, COMDAT
; _this$ = ecx

; 144  :     {

  00000	0f 57 c0	 xorps	 xmm0, xmm0

; 145  :     }

  00003	8b c1		 mov	 eax, ecx

; 66   :         : _Data()

  00005	66 0f d6 41 04	 movq	 QWORD PTR [ecx+4], xmm0

; 67   :     {
; 68   :         _Data._What = _Message;

  0000a	c7 41 04 00 00
	00 00		 mov	 DWORD PTR [ecx+4], OFFSET ??_C@_0BF@KINCDENJ@bad?5array?5new?5length@

; 144  :     {

  00011	c7 01 00 00 00
	00		 mov	 DWORD PTR [ecx], OFFSET ??_7bad_array_new_length@std@@6B@

; 145  :     }

  00017	c3		 ret	 0
??0bad_array_new_length@std@@QAE@XZ ENDP		; std::bad_array_new_length::bad_array_new_length
_TEXT	ENDS
; Function compile flags: /Ogtp
; File C:\Program Files\Microsoft Visual Studio\2022\Professional\VC\Tools\MSVC\14.44.35207\include\vcruntime_exception.h
;	COMDAT ??_Gbad_alloc@std@@UAEPAXI@Z
_TEXT	SEGMENT
___flags$ = 8						; size = 4
??_Gbad_alloc@std@@UAEPAXI@Z PROC			; std::bad_alloc::`scalar deleting destructor', COMDAT
; _this$ = ecx
  00000	55		 push	 ebp
  00001	8b ec		 mov	 ebp, esp

; 90   :     {

  00003	56		 push	 esi
  00004	8b f1		 mov	 esi, ecx

; 91   :         __std_exception_destroy(&_Data);

  00006	8d 46 04	 lea	 eax, DWORD PTR [esi+4]
  00009	c7 06 00 00 00
	00		 mov	 DWORD PTR [esi], OFFSET ??_7exception@std@@6B@
  0000f	50		 push	 eax
  00010	e8 00 00 00 00	 call	 ___std_exception_destroy
  00015	83 c4 04	 add	 esp, 4
  00018	f6 45 08 01	 test	 BYTE PTR ___flags$[ebp], 1
  0001c	74 0b		 je	 SHORT $LN13@scalar
  0001e	6a 0c		 push	 12			; 0000000cH
  00020	56		 push	 esi
  00021	e8 00 00 00 00	 call	 ??3@YAXPAXI@Z		; operator delete
  00026	83 c4 08	 add	 esp, 8
$LN13@scalar:
  00029	8b c6		 mov	 eax, esi
  0002b	5e		 pop	 esi
  0002c	5d		 pop	 ebp
  0002d	c2 04 00	 ret	 4
??_Gbad_alloc@std@@UAEPAXI@Z ENDP			; std::bad_alloc::`scalar deleting destructor'
_TEXT	ENDS
; Function compile flags: /Ogtp
; File C:\Program Files\Microsoft Visual Studio\2022\Professional\VC\Tools\MSVC\14.44.35207\include\vcruntime_exception.h
;	COMDAT ??0bad_alloc@std@@QAE@ABV01@@Z
_TEXT	SEGMENT
___that$ = 8						; size = 4
??0bad_alloc@std@@QAE@ABV01@@Z PROC			; std::bad_alloc::bad_alloc, COMDAT
; _this$ = ecx
  00000	55		 push	 ebp
  00001	8b ec		 mov	 ebp, esp

; 73   :     {

  00003	56		 push	 esi
  00004	8b f1		 mov	 esi, ecx
  00006	0f 57 c0	 xorps	 xmm0, xmm0

; 72   :         : _Data()

  00009	8d 46 04	 lea	 eax, DWORD PTR [esi+4]

; 74   :         __std_exception_copy(&_Other._Data, &_Data);

  0000c	50		 push	 eax
  0000d	c7 06 00 00 00
	00		 mov	 DWORD PTR [esi], OFFSET ??_7exception@std@@6B@
  00013	66 0f d6 00	 movq	 QWORD PTR [eax], xmm0
  00017	8b 45 08	 mov	 eax, DWORD PTR ___that$[ebp]
  0001a	83 c0 04	 add	 eax, 4
  0001d	50		 push	 eax
  0001e	e8 00 00 00 00	 call	 ___std_exception_copy
  00023	83 c4 08	 add	 esp, 8
  00026	c7 06 00 00 00
	00		 mov	 DWORD PTR [esi], OFFSET ??_7bad_alloc@std@@6B@
  0002c	8b c6		 mov	 eax, esi
  0002e	5e		 pop	 esi
  0002f	5d		 pop	 ebp
  00030	c2 04 00	 ret	 4
??0bad_alloc@std@@QAE@ABV01@@Z ENDP			; std::bad_alloc::bad_alloc
_TEXT	ENDS
; Function compile flags: /Ogtp
; File C:\Program Files\Microsoft Visual Studio\2022\Professional\VC\Tools\MSVC\14.44.35207\include\vcruntime_exception.h
;	COMDAT ??_Gexception@std@@UAEPAXI@Z
_TEXT	SEGMENT
___flags$ = 8						; size = 4
??_Gexception@std@@UAEPAXI@Z PROC			; std::exception::`scalar deleting destructor', COMDAT
; _this$ = ecx
  00000	55		 push	 ebp
  00001	8b ec		 mov	 ebp, esp

; 90   :     {

  00003	56		 push	 esi
  00004	8b f1		 mov	 esi, ecx

; 91   :         __std_exception_destroy(&_Data);

  00006	8d 46 04	 lea	 eax, DWORD PTR [esi+4]
  00009	c7 06 00 00 00
	00		 mov	 DWORD PTR [esi], OFFSET ??_7exception@std@@6B@
  0000f	50		 push	 eax
  00010	e8 00 00 00 00	 call	 ___std_exception_destroy
  00015	83 c4 04	 add	 esp, 4
  00018	f6 45 08 01	 test	 BYTE PTR ___flags$[ebp], 1
  0001c	74 0b		 je	 SHORT $LN8@scalar
  0001e	6a 0c		 push	 12			; 0000000cH
  00020	56		 push	 esi
  00021	e8 00 00 00 00	 call	 ??3@YAXPAXI@Z		; operator delete
  00026	83 c4 08	 add	 esp, 8
$LN8@scalar:
  00029	8b c6		 mov	 eax, esi
  0002b	5e		 pop	 esi
  0002c	5d		 pop	 ebp
  0002d	c2 04 00	 ret	 4
??_Gexception@std@@UAEPAXI@Z ENDP			; std::exception::`scalar deleting destructor'
_TEXT	ENDS
; Function compile flags: /Ogtp
; File C:\Program Files\Microsoft Visual Studio\2022\Professional\VC\Tools\MSVC\14.44.35207\include\vcruntime_exception.h
;	COMDAT ?what@exception@std@@UBEPBDXZ
_TEXT	SEGMENT
?what@exception@std@@UBEPBDXZ PROC			; std::exception::what, COMDAT
; _this$ = ecx

; 96   :         return _Data._What ? _Data._What : "Unknown exception";

  00000	8b 49 04	 mov	 ecx, DWORD PTR [ecx+4]
  00003	b8 00 00 00 00	 mov	 eax, OFFSET ??_C@_0BC@EOODALEL@Unknown?5exception@
  00008	85 c9		 test	 ecx, ecx
  0000a	0f 45 c1	 cmovne	 eax, ecx

; 97   :     }

  0000d	c3		 ret	 0
?what@exception@std@@UBEPBDXZ ENDP			; std::exception::what
_TEXT	ENDS
; Function compile flags: /Ogtp
; File C:\Program Files\Microsoft Visual Studio\2022\Professional\VC\Tools\MSVC\14.44.35207\include\vcruntime_exception.h
;	COMDAT ??1exception@std@@UAE@XZ
_TEXT	SEGMENT
??1exception@std@@UAE@XZ PROC				; std::exception::~exception, COMDAT
; _this$ = ecx

; 91   :         __std_exception_destroy(&_Data);

  00000	8d 41 04	 lea	 eax, DWORD PTR [ecx+4]
  00003	c7 01 00 00 00
	00		 mov	 DWORD PTR [ecx], OFFSET ??_7exception@std@@6B@
  00009	50		 push	 eax
  0000a	e8 00 00 00 00	 call	 ___std_exception_destroy
  0000f	59		 pop	 ecx

; 92   :     }

  00010	c3		 ret	 0
??1exception@std@@UAE@XZ ENDP				; std::exception::~exception
_TEXT	ENDS
; Function compile flags: /Ogtp
; File C:\Program Files\Microsoft Visual Studio\2022\Professional\VC\Tools\MSVC\14.44.35207\include\vcruntime_exception.h
;	COMDAT ??0exception@std@@QAE@ABV01@@Z
_TEXT	SEGMENT
__Other$ = 8						; size = 4
??0exception@std@@QAE@ABV01@@Z PROC			; std::exception::exception, COMDAT
; _this$ = ecx

; 73   :     {

  00000	55		 push	 ebp
  00001	8b ec		 mov	 ebp, esp
  00003	56		 push	 esi
  00004	8b f1		 mov	 esi, ecx
  00006	0f 57 c0	 xorps	 xmm0, xmm0
  00009	8d 46 04	 lea	 eax, DWORD PTR [esi+4]

; 74   :         __std_exception_copy(&_Other._Data, &_Data);

  0000c	50		 push	 eax
  0000d	c7 06 00 00 00
	00		 mov	 DWORD PTR [esi], OFFSET ??_7exception@std@@6B@
  00013	66 0f d6 00	 movq	 QWORD PTR [eax], xmm0
  00017	8b 45 08	 mov	 eax, DWORD PTR __Other$[ebp]
  0001a	83 c0 04	 add	 eax, 4
  0001d	50		 push	 eax
  0001e	e8 00 00 00 00	 call	 ___std_exception_copy
  00023	83 c4 08	 add	 esp, 8

; 75   :     }

  00026	8b c6		 mov	 eax, esi
  00028	5e		 pop	 esi
  00029	5d		 pop	 ebp
  0002a	c2 04 00	 ret	 4
??0exception@std@@QAE@ABV01@@Z ENDP			; std::exception::exception
_TEXT	ENDS
; Function compile flags: /Ogtp
; File C:\Program Files\Microsoft Visual Studio\2022\Professional\VC\Tools\MSVC\14.44.35207\atlmfc\include\cstringt.h
; File C:\Program Files\Microsoft Visual Studio\2022\Professional\VC\Tools\MSVC\14.44.35207\atlmfc\include\afxstr.h
; File C:\Program Files\Microsoft Visual Studio\2022\Professional\VC\Tools\MSVC\14.44.35207\atlmfc\include\cstringt.h
; File C:\Program Files\Microsoft Visual Studio\2022\Professional\VC\Tools\MSVC\14.44.35207\atlmfc\include\afxstr.h
; File C:\Program Files\Microsoft Visual Studio\2022\Professional\VC\Tools\MSVC\14.44.35207\atlmfc\include\cstringt.h
; File C:\Program Files\Microsoft Visual Studio\2022\Professional\VC\Tools\MSVC\14.44.35207\atlmfc\include\atlcore.h
; File C:\Program Files\Microsoft Visual Studio\2022\Professional\VC\Tools\MSVC\14.44.35207\atlmfc\include\cstringt.h
; File C:\Program Files\Microsoft Visual Studio\2022\Professional\VC\Tools\MSVC\14.44.35207\atlmfc\include\atlsimpstr.h
; File C:\Program Files\Microsoft Visual Studio\2022\Professional\VC\Tools\MSVC\14.44.35207\atlmfc\include\cstringt.h
; File C:\Program Files\Microsoft Visual Studio\2022\Professional\VC\Tools\MSVC\14.44.35207\atlmfc\include\atlsimpstr.h
; File C:\Program Files\Microsoft Visual Studio\2022\Professional\VC\Tools\MSVC\14.44.35207\atlmfc\include\cstringt.h
; File C:\Program Files\Microsoft Visual Studio\2022\Professional\VC\Tools\MSVC\14.44.35207\atlmfc\include\atlsimpstr.h
; File C:\Program Files\Microsoft Visual Studio\2022\Professional\VC\Tools\MSVC\14.44.35207\atlmfc\include\cstringt.h
; File C:\Program Files\Microsoft Visual Studio\2022\Professional\VC\Tools\MSVC\14.44.35207\atlmfc\include\atlsimpstr.h
; File C:\Program Files\Microsoft Visual Studio\2022\Professional\VC\Tools\MSVC\14.44.35207\atlmfc\include\cstringt.h
;	COMDAT ?LoadStringA@?$CStringT@DV?$StrTraitMFC@DV?$ChTraitsCRT@D@ATL@@@@@ATL@@QAEHI@Z
_TEXT	SEGMENT
_this$1$ = -4						; size = 4
_nID$ = 8						; size = 4
_hResource$1$ = 8					; size = 4
?LoadStringA@?$CStringT@DV?$StrTraitMFC@DV?$ChTraitsCRT@D@ATL@@@@@ATL@@QAEHI@Z PROC ; ATL::CStringT<char,StrTraitMFC<char,ATL::ChTraitsCRT<char> > >::LoadStringA, COMDAT
; _this$ = ecx

; 2340 : 	{

  00000	55		 push	 ebp
  00001	8b ec		 mov	 ebp, esp
  00003	51		 push	 ecx
  00004	53		 push	 ebx
  00005	57		 push	 edi
; File C:\Program Files\Microsoft Visual Studio\2022\Professional\VC\Tools\MSVC\14.44.35207\atlmfc\include\afxstr.h

; 51   : 		return( AfxFindStringResourceHandle( nID ) );

  00006	8b 7d 08	 mov	 edi, DWORD PTR _nID$[ebp]
  00009	57		 push	 edi
; File C:\Program Files\Microsoft Visual Studio\2022\Professional\VC\Tools\MSVC\14.44.35207\atlmfc\include\cstringt.h

; 2340 : 	{

  0000a	89 4d fc	 mov	 DWORD PTR _this$1$[ebp], ecx
; File C:\Program Files\Microsoft Visual Studio\2022\Professional\VC\Tools\MSVC\14.44.35207\atlmfc\include\afxstr.h

; 51   : 		return( AfxFindStringResourceHandle( nID ) );

  0000d	e8 00 00 00 00	 call	 ?AfxFindStringResourceHandle@@YGPAUHINSTANCE__@@I@Z ; AfxFindStringResourceHandle
; File C:\Program Files\Microsoft Visual Studio\2022\Professional\VC\Tools\MSVC\14.44.35207\atlmfc\include\cstringt.h

; 2341 : 		HINSTANCE hInstance = StringTraits::FindStringResourceInstance( nID );

  00012	8b d8		 mov	 ebx, eax

; 2342 : 		if( hInstance == NULL )

  00014	85 db		 test	 ebx, ebx
  00016	75 08		 jne	 SHORT $LN2@LoadString

; 2348 : 	}

  00018	5f		 pop	 edi
  00019	5b		 pop	 ebx
  0001a	8b e5		 mov	 esp, ebp
  0001c	5d		 pop	 ebp
  0001d	c2 04 00	 ret	 4
$LN2@LoadString:
; File C:\Program Files\Microsoft Visual Studio\2022\Professional\VC\Tools\MSVC\14.44.35207\atlmfc\include\atlcore.h

; 380  : 	hResource = ::FindResourceW(hInstance, MAKEINTRESOURCEW( (((id>>4)+1) & static_cast<WORD>(~0)) ), (LPWSTR) RT_STRING);

  00020	8b c7		 mov	 eax, edi
  00022	c1 e8 04	 shr	 eax, 4
  00025	56		 push	 esi
  00026	40		 inc	 eax
  00027	6a 06		 push	 6
  00029	0f b7 c0	 movzx	 eax, ax
  0002c	50		 push	 eax
  0002d	53		 push	 ebx
  0002e	ff 15 00 00 00
	00		 call	 DWORD PTR __imp__FindResourceW@12
  00034	89 45 08	 mov	 DWORD PTR _hResource$1$[ebp], eax

; 381  : 	if( hResource == NULL )

  00037	85 c0		 test	 eax, eax
  00039	0f 84 cc 00 00
	00		 je	 $LN51@LoadString

; 338  : 	hGlobal = ::LoadResource( hInstance, hResource );

  0003f	50		 push	 eax
  00040	53		 push	 ebx
  00041	ff 15 00 00 00
	00		 call	 DWORD PTR __imp__LoadResource@8

; 339  : 	if( hGlobal == NULL )

  00047	85 c0		 test	 eax, eax
  00049	75 04		 jne	 SHORT $LN15@LoadString

; 340  : 	{
; 341  : 		return( NULL );

  0004b	33 f6		 xor	 esi, esi
  0004d	eb 43		 jmp	 SHORT $LN18@LoadString
$LN15@LoadString:

; 342  : 	}
; 343  : 
; 344  : 	pImage = (const ATLSTRINGRESOURCEIMAGE*)::LockResource( hGlobal );

  0004f	50		 push	 eax
  00050	ff 15 00 00 00
	00		 call	 DWORD PTR __imp__LockResource@4
  00056	8b f0		 mov	 esi, eax

; 345  : 	if( pImage == NULL )

  00058	85 f6		 test	 esi, esi
  0005a	74 36		 je	 SHORT $LN18@LoadString
$LN16@LoadString:

; 346  : 	{
; 347  : 		return( NULL );
; 348  : 	}
; 349  : 
; 350  : 	nResourceSize = ::SizeofResource( hInstance, hResource );

  0005c	ff 75 08	 push	 DWORD PTR _hResource$1$[ebp]
  0005f	53		 push	 ebx
  00060	ff 15 00 00 00
	00		 call	 DWORD PTR __imp__SizeofResource@8

; 351  : 	pImageEnd = (const ATLSTRINGRESOURCEIMAGE*)(LPBYTE( pImage )+nResourceSize);

  00066	8d 0c 06	 lea	 ecx, DWORD PTR [esi+eax]

; 352  : 	iIndex = id&0x000f;

  00069	83 e7 0f	 and	 edi, 15			; 0000000fH

; 353  : 
; 354  : 	while( (iIndex > 0) && (pImage < pImageEnd) )

  0006c	76 14		 jbe	 SHORT $LN14@LoadString
  0006e	66 90		 npad	 2
$LL13@LoadString:
  00070	3b f1		 cmp	 esi, ecx
  00072	73 12		 jae	 SHORT $LN50@LoadString

; 355  : 	{
; 356  : 		pImage = (const ATLSTRINGRESOURCEIMAGE*)(LPBYTE( pImage )+(sizeof( ATLSTRINGRESOURCEIMAGE )+(pImage->nLength*sizeof( WCHAR ))));

  00074	0f b7 06	 movzx	 eax, WORD PTR [esi]
  00077	8d 34 46	 lea	 esi, DWORD PTR [esi+eax*2]
  0007a	83 c6 02	 add	 esi, 2

; 357  : 		iIndex--;

  0007d	83 ef 01	 sub	 edi, 1
  00080	75 ee		 jne	 SHORT $LL13@LoadString
$LN14@LoadString:

; 358  : 	}
; 359  : 	if( pImage >= pImageEnd )

  00082	3b f1		 cmp	 esi, ecx
  00084	72 04		 jb	 SHORT $LN17@LoadString
$LN50@LoadString:

; 360  : 	{
; 361  : 		return( NULL );

  00086	33 f6		 xor	 esi, esi
  00088	eb 08		 jmp	 SHORT $LN18@LoadString
$LN17@LoadString:

; 362  : 	}
; 363  : 	if( pImage->nLength == 0 )

  0008a	33 c0		 xor	 eax, eax
  0008c	66 39 06	 cmp	 WORD PTR [esi], ax
  0008f	0f 44 f0	 cmove	 esi, eax
$LN18@LoadString:
; File C:\Program Files\Microsoft Visual Studio\2022\Professional\VC\Tools\MSVC\14.44.35207\atlmfc\include\cstringt.h

; 2356 : 		if( pImage == NULL )

  00092	85 f6		 test	 esi, esi
  00094	74 75		 je	 SHORT $LN51@LoadString

; 2359 : 		}
; 2360 : 
; 2361 : 		int nLength = StringTraits::GetBaseTypeLength( pImage->achString, pImage->nLength );

  00096	0f b7 06	 movzx	 eax, WORD PTR [esi]
  00099	8d 4e 02	 lea	 ecx, DWORD PTR [esi+2]

; 350  : 		return ::WideCharToMultiByte( _AtlGetConversionACP(), 0, pszSource, nLength, NULL, 0, NULL, NULL );

  0009c	6a 00		 push	 0
  0009e	6a 00		 push	 0
  000a0	6a 00		 push	 0
  000a2	6a 00		 push	 0
  000a4	50		 push	 eax
  000a5	51		 push	 ecx
  000a6	6a 00		 push	 0
  000a8	6a 03		 push	 3
  000aa	ff 15 00 00 00
	00		 call	 DWORD PTR __imp__WideCharToMultiByte@32

; 2361 : 		int nLength = StringTraits::GetBaseTypeLength( pImage->achString, pImage->nLength );

  000b0	8b f8		 mov	 edi, eax
; File C:\Program Files\Microsoft Visual Studio\2022\Professional\VC\Tools\MSVC\14.44.35207\atlmfc\include\atlsimpstr.h

; 808  : 		if (nLength < 0)

  000b2	85 ff		 test	 edi, edi
  000b4	78 60		 js	 SHORT $LN38@LoadString

; 804  : 		return( reinterpret_cast< CStringData* >( m_pszData )-1 );

  000b6	8b 5d fc	 mov	 ebx, DWORD PTR _this$1$[ebp]

; 812  : 		int nShared = 1-pOldData->nRefs;  // nShared < 0 means true, >= 0 means false

  000b9	ba 01 00 00 00	 mov	 edx, 1

; 804  : 		return( reinterpret_cast< CStringData* >( m_pszData )-1 );

  000be	8b 0b		 mov	 ecx, DWORD PTR [ebx]

; 812  : 		int nShared = 1-pOldData->nRefs;  // nShared < 0 means true, >= 0 means false

  000c0	2b 51 fc	 sub	 edx, DWORD PTR [ecx-4]

; 813  : 		int nTooShort = pOldData->nAllocLength-nLength;  // nTooShort < 0 means true, >= 0 means false

  000c3	8b 49 f8	 mov	 ecx, DWORD PTR [ecx-8]
  000c6	2b cf		 sub	 ecx, edi

; 814  : 		if( (nShared|nTooShort) < 0 )  // If either sign bit is set (i.e. either is less than zero), we need to copy data

  000c8	0b d1		 or	 edx, ecx
  000ca	7d 08		 jge	 SHORT $LN26@LoadString

; 815  : 		{
; 816  : 			PrepareWrite2( nLength );

  000cc	57		 push	 edi
  000cd	8b cb		 mov	 ecx, ebx
  000cf	e8 00 00 00 00	 call	 ?PrepareWrite2@?$CSimpleStringT@D$0A@@ATL@@AAEXH@Z ; ATL::CSimpleStringT<char,0>::PrepareWrite2
$LN26@LoadString:
; File C:\Program Files\Microsoft Visual Studio\2022\Professional\VC\Tools\MSVC\14.44.35207\atlmfc\include\cstringt.h

; 2363 : 		StringTraits::ConvertToBaseType( pszBuffer, nLength, pImage->achString, pImage->nLength );

  000d4	0f b7 06	 movzx	 eax, WORD PTR [esi]

; 372  : 		::WideCharToMultiByte( _AtlGetConversionACP(), 0, pszSrc, nSrcLength, pszDest, nDestLength, NULL, NULL );

  000d7	6a 00		 push	 0
  000d9	6a 00		 push	 0
  000db	57		 push	 edi
  000dc	ff 33		 push	 DWORD PTR [ebx]
  000de	50		 push	 eax
  000df	8d 46 02	 lea	 eax, DWORD PTR [esi+2]
  000e2	50		 push	 eax
  000e3	6a 00		 push	 0
  000e5	6a 03		 push	 3
  000e7	ff 15 00 00 00
	00		 call	 DWORD PTR __imp__WideCharToMultiByte@32
; File C:\Program Files\Microsoft Visual Studio\2022\Professional\VC\Tools\MSVC\14.44.35207\atlmfc\include\atlsimpstr.h

; 875  : 		if( nLength < 0 || nLength > GetData()->nAllocLength)

  000ed	8b 03		 mov	 eax, DWORD PTR [ebx]
  000ef	3b 78 f8	 cmp	 edi, DWORD PTR [eax-8]
  000f2	7f 22		 jg	 SHORT $LN38@LoadString

; 877  : 
; 878  : 		GetData()->nDataLength = nLength;

  000f4	89 78 f4	 mov	 DWORD PTR [eax-12], edi

; 879  : 		m_pszData[nLength] = 0;

  000f7	8b 03		 mov	 eax, DWORD PTR [ebx]
; File C:\Program Files\Microsoft Visual Studio\2022\Professional\VC\Tools\MSVC\14.44.35207\atlmfc\include\cstringt.h

; 2347 : 		return( LoadString( hInstance, nID ) );

  000f9	5e		 pop	 esi
; File C:\Program Files\Microsoft Visual Studio\2022\Professional\VC\Tools\MSVC\14.44.35207\atlmfc\include\atlsimpstr.h

; 879  : 		m_pszData[nLength] = 0;

  000fa	c6 04 07 00	 mov	 BYTE PTR [edi+eax], 0
; File C:\Program Files\Microsoft Visual Studio\2022\Professional\VC\Tools\MSVC\14.44.35207\atlmfc\include\cstringt.h

; 2366 : 		return( TRUE );

  000fe	b8 01 00 00 00	 mov	 eax, 1
  00103	5f		 pop	 edi

; 2348 : 	}

  00104	5b		 pop	 ebx
  00105	8b e5		 mov	 esp, ebp
  00107	5d		 pop	 ebp
  00108	c2 04 00	 ret	 4
$LN51@LoadString:

; 2347 : 		return( LoadString( hInstance, nID ) );

  0010b	5e		 pop	 esi
  0010c	5f		 pop	 edi

; 2358 : 			return( FALSE );

  0010d	33 c0		 xor	 eax, eax

; 2348 : 	}

  0010f	5b		 pop	 ebx
  00110	8b e5		 mov	 esp, ebp
  00112	5d		 pop	 ebp
  00113	c2 04 00	 ret	 4
$LN38@LoadString:
; File C:\Program Files\Microsoft Visual Studio\2022\Professional\VC\Tools\MSVC\14.44.35207\atlmfc\include\atlsimpstr.h

; 876  : 			AtlThrow(E_INVALIDARG);

  00116	68 57 00 07 80	 push	 -2147024809		; 80070057H
  0011b	e8 00 00 00 00	 call	 ?AtlThrowImpl@ATL@@YGXJ@Z ; ATL::AtlThrowImpl
$LN63@LoadString:
  00120	cc		 int	 3
?LoadStringA@?$CStringT@DV?$StrTraitMFC@DV?$ChTraitsCRT@D@ATL@@@@@ATL@@QAEHI@Z ENDP ; ATL::CStringT<char,StrTraitMFC<char,ATL::ChTraitsCRT<char> > >::LoadStringA
_TEXT	ENDS
; Function compile flags: /Ogtp
; File C:\Program Files\Microsoft Visual Studio\2022\Professional\VC\Tools\MSVC\14.44.35207\atlmfc\include\cstringt.h
; File C:\Program Files\Microsoft Visual Studio\2022\Professional\VC\Tools\MSVC\14.44.35207\atlmfc\include\atlsimpstr.h
; File C:\Program Files\Microsoft Visual Studio\2022\Professional\VC\Tools\MSVC\14.44.35207\atlmfc\include\cstringt.h
;	COMDAT ??1?$CStringT@DV?$StrTraitMFC@DV?$ChTraitsCRT@D@ATL@@@@@ATL@@QAE@XZ
_TEXT	SEGMENT
??1?$CStringT@DV?$StrTraitMFC@DV?$ChTraitsCRT@D@ATL@@@@@ATL@@QAE@XZ PROC ; ATL::CStringT<char,StrTraitMFC<char,ATL::ChTraitsCRT<char> > >::~CStringT<char,StrTraitMFC<char,ATL::ChTraitsCRT<char> > >, COMDAT
; _this$ = ecx
; File C:\Program Files\Microsoft Visual Studio\2022\Professional\VC\Tools\MSVC\14.44.35207\atlmfc\include\atlsimpstr.h

; 804  : 		return( reinterpret_cast< CStringData* >( m_pszData )-1 );

  00000	8b 11		 mov	 edx, DWORD PTR [ecx]

; 92   : 		if( _InterlockedDecrement( &nRefs ) <= 0 )

  00002	83 c8 ff	 or	 eax, -1

; 804  : 		return( reinterpret_cast< CStringData* >( m_pszData )-1 );

  00005	83 ea 10	 sub	 edx, 16			; 00000010H

; 92   : 		if( _InterlockedDecrement( &nRefs ) <= 0 )

  00008	f0 0f c1 42 0c	 lock	  xadd	 DWORD PTR [edx+12], eax
  0000d	48		 dec	 eax
  0000e	85 c0		 test	 eax, eax
  00010	7f 08		 jg	 SHORT $LN8@CStringT

; 93   : 		{
; 94   : 			pStringMgr->Free( this );

  00012	8b 0a		 mov	 ecx, DWORD PTR [edx]
  00014	52		 push	 edx
  00015	8b 01		 mov	 eax, DWORD PTR [ecx]
  00017	ff 50 04	 call	 DWORD PTR [eax+4]
$LN8@CStringT:
; File C:\Program Files\Microsoft Visual Studio\2022\Professional\VC\Tools\MSVC\14.44.35207\atlmfc\include\cstringt.h

; 1303 : 	}

  0001a	c3		 ret	 0
??1?$CStringT@DV?$StrTraitMFC@DV?$ChTraitsCRT@D@ATL@@@@@ATL@@QAE@XZ ENDP ; ATL::CStringT<char,StrTraitMFC<char,ATL::ChTraitsCRT<char> > >::~CStringT<char,StrTraitMFC<char,ATL::ChTraitsCRT<char> > >
_TEXT	ENDS
; Function compile flags: /Ogtp
; File C:\Program Files\Microsoft Visual Studio\2022\Professional\VC\Tools\MSVC\14.44.35207\atlmfc\include\atlsimpstr.h
;	COMDAT ?Reallocate@?$CSimpleStringT@D$0A@@ATL@@AAEXH@Z
_TEXT	SEGMENT
_nLength$ = 8						; size = 4
?Reallocate@?$CSimpleStringT@D$0A@@ATL@@AAEXH@Z PROC	; ATL::CSimpleStringT<char,0>::Reallocate, COMDAT
; _this$ = ecx

; 853  : 	{

  00000	55		 push	 ebp
  00001	8b ec		 mov	 ebp, esp
  00003	56		 push	 esi

; 854  : 		CStringData* pOldData = GetData();
; 855  : 		ATLASSERT( pOldData->nAllocLength < nLength );
; 856  : 		IAtlStringMgr* pStringMgr = pOldData->pStringMgr;
; 857  : 		if ( pOldData->nAllocLength >= nLength || nLength <= 0)

  00004	8b 75 08	 mov	 esi, DWORD PTR _nLength$[ebp]
  00007	57		 push	 edi
  00008	8b f9		 mov	 edi, ecx

; 804  : 		return( reinterpret_cast< CStringData* >( m_pszData )-1 );

  0000a	8b 17		 mov	 edx, DWORD PTR [edi]
  0000c	83 ea 10	 sub	 edx, 16			; 00000010H

; 854  : 		CStringData* pOldData = GetData();
; 855  : 		ATLASSERT( pOldData->nAllocLength < nLength );
; 856  : 		IAtlStringMgr* pStringMgr = pOldData->pStringMgr;
; 857  : 		if ( pOldData->nAllocLength >= nLength || nLength <= 0)

  0000f	39 72 08	 cmp	 DWORD PTR [edx+8], esi
  00012	7d 1e		 jge	 SHORT $LN3@Reallocate
  00014	85 f6		 test	 esi, esi
  00016	7e 1a		 jle	 SHORT $LN3@Reallocate

; 860  : 			return;
; 861  : 		}
; 862  : 		CStringData* pNewData = pStringMgr->Reallocate( pOldData, nLength, sizeof( XCHAR ) );

  00018	8b 0a		 mov	 ecx, DWORD PTR [edx]
  0001a	6a 01		 push	 1
  0001c	56		 push	 esi
  0001d	52		 push	 edx
  0001e	8b 01		 mov	 eax, DWORD PTR [ecx]
  00020	ff 50 08	 call	 DWORD PTR [eax+8]

; 863  : 		if( pNewData == NULL )

  00023	85 c0		 test	 eax, eax
  00025	74 0b		 je	 SHORT $LN3@Reallocate

; 864  : 		{
; 865  : 			ThrowMemoryException();
; 866  : 		}
; 867  : 		Attach( pNewData );

  00027	83 c0 10	 add	 eax, 16			; 00000010H
  0002a	89 07		 mov	 DWORD PTR [edi], eax
  0002c	5f		 pop	 edi
  0002d	5e		 pop	 esi

; 868  : 	}

  0002e	5d		 pop	 ebp
  0002f	c2 04 00	 ret	 4
$LN3@Reallocate:

; 858  : 		{
; 859  : 			ThrowMemoryException();

  00032	e8 00 00 00 00	 call	 ?ThrowMemoryException@?$CSimpleStringT@D$0A@@ATL@@KAXXZ ; ATL::CSimpleStringT<char,0>::ThrowMemoryException
$LN12@Reallocate:
  00037	cc		 int	 3
?Reallocate@?$CSimpleStringT@D$0A@@ATL@@AAEXH@Z ENDP	; ATL::CSimpleStringT<char,0>::Reallocate
_TEXT	ENDS
; Function compile flags: /Ogtp
; File C:\Program Files\Microsoft Visual Studio\2022\Professional\VC\Tools\MSVC\14.44.35207\atlmfc\include\atlsimpstr.h
;	COMDAT ?PrepareWrite2@?$CSimpleStringT@D$0A@@ATL@@AAEXH@Z
_TEXT	SEGMENT
_nLength$ = 8						; size = 4
?PrepareWrite2@?$CSimpleStringT@D$0A@@ATL@@AAEXH@Z PROC	; ATL::CSimpleStringT<char,0>::PrepareWrite2, COMDAT
; _this$ = ecx

; 822  : 	{

  00000	55		 push	 ebp
  00001	8b ec		 mov	 ebp, esp
  00003	56		 push	 esi

; 823  : 		CStringData* pOldData = GetData();
; 824  : 		if( pOldData->nDataLength > nLength )

  00004	8b 75 08	 mov	 esi, DWORD PTR _nLength$[ebp]
  00007	57		 push	 edi
  00008	8b f9		 mov	 edi, ecx

; 804  : 		return( reinterpret_cast< CStringData* >( m_pszData )-1 );

  0000a	8b 0f		 mov	 ecx, DWORD PTR [edi]

; 823  : 		CStringData* pOldData = GetData();
; 824  : 		if( pOldData->nDataLength > nLength )

  0000c	39 71 f4	 cmp	 DWORD PTR [ecx-12], esi
  0000f	0f 4f 71 f4	 cmovg	 esi, DWORD PTR [ecx-12]

; 77   : 		return( nRefs > 1 );

  00013	83 79 fc 01	 cmp	 DWORD PTR [ecx-4], 1

; 825  : 		{
; 826  : 			nLength = pOldData->nDataLength;
; 827  : 		}
; 828  : 		if( pOldData->IsShared() )

  00017	7e 0e		 jle	 SHORT $LN3@PrepareWri

; 829  : 		{
; 830  : 			Fork( nLength );

  00019	56		 push	 esi
  0001a	8b cf		 mov	 ecx, edi
  0001c	e8 00 00 00 00	 call	 ?Fork@?$CSimpleStringT@D$0A@@ATL@@AAEXH@Z ; ATL::CSimpleStringT<char,0>::Fork
  00021	5f		 pop	 edi

; 850  : 		}
; 851  : 	}

  00022	5e		 pop	 esi
  00023	5d		 pop	 ebp
  00024	c2 04 00	 ret	 4
$LN3@PrepareWri:

; 831  : 		}
; 832  : 		else if( pOldData->nAllocLength < nLength )

  00027	8b 49 f8	 mov	 ecx, DWORD PTR [ecx-8]
  0002a	3b ce		 cmp	 ecx, esi
  0002c	7d 25		 jge	 SHORT $LN5@PrepareWri

; 833  : 		{
; 834  : 			// Grow exponentially, until we hit 1G, then by 1M thereafter.
; 835  : 			int nNewLength = pOldData->nAllocLength;
; 836  : 			if( nNewLength > 1024 * 1024 * 1024 )

  0002e	81 f9 00 00 00
	40		 cmp	 ecx, 1073741824		; 40000000H
  00034	7e 07		 jle	 SHORT $LN6@PrepareWri

; 837  : 			{
; 838  : 				nNewLength += 1024 * 1024;

  00036	b8 00 00 10 00	 mov	 eax, 1048576		; 00100000H

; 839  : 			}

  0003b	eb 07		 jmp	 SHORT $LN7@PrepareWri
$LN6@PrepareWri:

; 840  : 			else
; 841  : 			{
; 842  : 				// Exponential growth factor is 1.5.
; 843  : 				nNewLength = nNewLength + nNewLength / 2;

  0003d	8b c1		 mov	 eax, ecx
  0003f	99		 cdq
  00040	2b c2		 sub	 eax, edx
  00042	d1 f8		 sar	 eax, 1
$LN7@PrepareWri:

; 844  : 			}
; 845  : 			if( nNewLength < nLength )

  00044	03 c1		 add	 eax, ecx

; 846  : 			{
; 847  : 				nNewLength = nLength;
; 848  : 			}
; 849  : 			Reallocate( nNewLength );

  00046	8b cf		 mov	 ecx, edi
  00048	3b c6		 cmp	 eax, esi
  0004a	0f 4d f0	 cmovge	 esi, eax
  0004d	56		 push	 esi
  0004e	e8 00 00 00 00	 call	 ?Reallocate@?$CSimpleStringT@D$0A@@ATL@@AAEXH@Z ; ATL::CSimpleStringT<char,0>::Reallocate
$LN5@PrepareWri:

; 850  : 		}
; 851  : 	}

  00053	5f		 pop	 edi
  00054	5e		 pop	 esi
  00055	5d		 pop	 ebp
  00056	c2 04 00	 ret	 4
?PrepareWrite2@?$CSimpleStringT@D$0A@@ATL@@AAEXH@Z ENDP	; ATL::CSimpleStringT<char,0>::PrepareWrite2
_TEXT	ENDS
; Function compile flags: /Ogtp
; File C:\Program Files\Microsoft Visual Studio\2022\Professional\VC\Tools\MSVC\14.44.35207\atlmfc\include\atlsimpstr.h
; File C:\Program Files (x86)\Windows Kits\10\Include\10.0.26100.0\ucrt\corecrt_memcpy_s.h
; File C:\Program Files\Microsoft Visual Studio\2022\Professional\VC\Tools\MSVC\14.44.35207\atlmfc\include\atlsimpstr.h
;	COMDAT ?Fork@?$CSimpleStringT@D$0A@@ATL@@AAEXH@Z
_TEXT	SEGMENT
_this$1$ = -12						; size = 4
_nOldLength$1$ = -8					; size = 4
__Source$1$ = -4					; size = 4
_nLength$ = 8						; size = 4
_pNewData$1$ = 8					; size = 4
?Fork@?$CSimpleStringT@D$0A@@ATL@@AAEXH@Z PROC		; ATL::CSimpleStringT<char,0>::Fork, COMDAT
; _this$ = ecx

; 787  : 	{

  00000	55		 push	 ebp
  00001	8b ec		 mov	 ebp, esp
  00003	83 ec 0c	 sub	 esp, 12			; 0000000cH
  00006	8b c1		 mov	 eax, ecx
  00008	89 45 f4	 mov	 DWORD PTR _this$1$[ebp], eax
  0000b	53		 push	 ebx
  0000c	56		 push	 esi

; 804  : 		return( reinterpret_cast< CStringData* >( m_pszData )-1 );

  0000d	8b 00		 mov	 eax, DWORD PTR [eax]

; 790  : 		CStringData* pNewData = pOldData->pStringMgr->Clone()->Allocate( nLength, sizeof( XCHAR ) );

  0000f	8b 48 f0	 mov	 ecx, DWORD PTR [eax-16]

; 804  : 		return( reinterpret_cast< CStringData* >( m_pszData )-1 );

  00012	8d 58 f0	 lea	 ebx, DWORD PTR [eax-16]
  00015	89 45 fc	 mov	 DWORD PTR __Source$1$[ebp], eax

; 787  : 	{

  00018	57		 push	 edi

; 788  : 		CStringData* pOldData = GetData();
; 789  : 		int nOldLength = pOldData->nDataLength;

  00019	8b 7b 04	 mov	 edi, DWORD PTR [ebx+4]

; 790  : 		CStringData* pNewData = pOldData->pStringMgr->Clone()->Allocate( nLength, sizeof( XCHAR ) );

  0001c	8b 01		 mov	 eax, DWORD PTR [ecx]
  0001e	89 7d f8	 mov	 DWORD PTR _nOldLength$1$[ebp], edi
  00021	ff 50 10	 call	 DWORD PTR [eax+16]
  00024	8b 75 08	 mov	 esi, DWORD PTR _nLength$[ebp]
  00027	8b c8		 mov	 ecx, eax
  00029	6a 01		 push	 1
  0002b	56		 push	 esi
  0002c	8b 10		 mov	 edx, DWORD PTR [eax]
  0002e	ff 12		 call	 DWORD PTR [edx]
  00030	89 45 08	 mov	 DWORD PTR _pNewData$1$[ebp], eax

; 791  : 		if( pNewData == NULL )

  00033	85 c0		 test	 eax, eax
  00035	74 6c		 je	 SHORT $LN25@Fork

; 794  : 		}
; 795  : 		int nCharsToCopy = ((nOldLength < nLength) ? nOldLength : nLength)+1;  // Copy '\0'

  00037	3b fe		 cmp	 edi, esi
  00039	0f 4c f7	 cmovl	 esi, edi

; 796  : 		memcpy_s( PXSTR( pNewData->data() ), nCharsToCopy * sizeof( XCHAR ),

  0003c	8d 78 10	 lea	 edi, DWORD PTR [eax+16]
  0003f	83 c6 01	 add	 esi, 1
; File C:\Program Files (x86)\Windows Kits\10\Include\10.0.26100.0\ucrt\corecrt_memcpy_s.h

; 47   :         if (_SourceSize == 0)

  00042	74 33		 je	 SHORT $LN11@Fork

; 48   :         {
; 49   :             return 0;
; 50   :         }
; 51   : 
; 52   :         _CRT_MEMCPY_S_VALIDATE_RETURN_ERRCODE(_Destination != NULL, EINVAL);

  00044	85 ff		 test	 edi, edi
  00046	74 1f		 je	 SHORT $LN23@Fork

; 53   :         if (_Source == NULL || _DestinationSize < _SourceSize)

  00048	8b 45 fc	 mov	 eax, DWORD PTR __Source$1$[ebp]
  0004b	56		 push	 esi
  0004c	85 c0		 test	 eax, eax
  0004e	74 0c		 je	 SHORT $LN10@Fork

; 56   : 
; 57   :             _CRT_MEMCPY_S_VALIDATE_RETURN_ERRCODE(_Source != NULL,                 EINVAL);
; 58   :             _CRT_MEMCPY_S_VALIDATE_RETURN_ERRCODE(_DestinationSize >= _SourceSize, ERANGE);
; 59   : 
; 60   :             // Unreachable, but required to suppress /analyze warnings:
; 61   :             return EINVAL;
; 62   :         }
; 63   :         memcpy(_Destination, _Source, _SourceSize);

  00050	50		 push	 eax
  00051	57		 push	 edi
  00052	e8 00 00 00 00	 call	 _memcpy
  00057	83 c4 0c	 add	 esp, 12			; 0000000cH
  0005a	eb 1b		 jmp	 SHORT $LN11@Fork
$LN10@Fork:

; 54   :         {
; 55   :             memset(_Destination, 0, _DestinationSize);

  0005c	6a 00		 push	 0
  0005e	57		 push	 edi
  0005f	e8 00 00 00 00	 call	 _memset
  00064	83 c4 0c	 add	 esp, 12			; 0000000cH
$LN23@Fork:
; File C:\Program Files\Microsoft Visual Studio\2022\Professional\VC\Tools\MSVC\14.44.35207\atlmfc\include\atlsimpstr.h

; 798  : 		pNewData->nDataLength = nOldLength;

  00067	e8 00 00 00 00	 call	 __errno
  0006c	c7 00 16 00 00
	00		 mov	 DWORD PTR [eax], 22	; 00000016H
  00072	e8 00 00 00 00	 call	 __invalid_parameter_noinfo
$LN11@Fork:
  00077	8b 4d 08	 mov	 ecx, DWORD PTR _pNewData$1$[ebp]
  0007a	8b 45 f8	 mov	 eax, DWORD PTR _nOldLength$1$[ebp]
  0007d	89 41 04	 mov	 DWORD PTR [ecx+4], eax

; 92   : 		if( _InterlockedDecrement( &nRefs ) <= 0 )

  00080	83 c8 ff	 or	 eax, -1
  00083	f0 0f c1 43 0c	 lock	  xadd	 DWORD PTR [ebx+12], eax
  00088	48		 dec	 eax
  00089	85 c0		 test	 eax, eax
  0008b	7f 08		 jg	 SHORT $LN15@Fork

; 93   : 		{
; 94   : 			pStringMgr->Free( this );

  0008d	8b 0b		 mov	 ecx, DWORD PTR [ebx]
  0008f	53		 push	 ebx
  00090	8b 01		 mov	 eax, DWORD PTR [ecx]
  00092	ff 50 04	 call	 DWORD PTR [eax+4]
$LN15@Fork:

; 799  : 		pOldData->Release();
; 800  : 		Attach( pNewData );

  00095	8b 45 f4	 mov	 eax, DWORD PTR _this$1$[ebp]
  00098	89 38		 mov	 DWORD PTR [eax], edi

; 801  : 	}

  0009a	5f		 pop	 edi
  0009b	5e		 pop	 esi
  0009c	5b		 pop	 ebx
  0009d	8b e5		 mov	 esp, ebp
  0009f	5d		 pop	 ebp
  000a0	c2 04 00	 ret	 4
$LN25@Fork:

; 792  : 		{
; 793  : 			ThrowMemoryException();

  000a3	e8 00 00 00 00	 call	 ?ThrowMemoryException@?$CSimpleStringT@D$0A@@ATL@@KAXXZ ; ATL::CSimpleStringT<char,0>::ThrowMemoryException
$LN22@Fork:
  000a8	cc		 int	 3
?Fork@?$CSimpleStringT@D$0A@@ATL@@AAEXH@Z ENDP		; ATL::CSimpleStringT<char,0>::Fork
_TEXT	ENDS
; Function compile flags: /Ogtp
; File C:\Program Files\Microsoft Visual Studio\2022\Professional\VC\Tools\MSVC\14.44.35207\atlmfc\include\atlsimpstr.h
;	COMDAT ?ThrowMemoryException@?$CSimpleStringT@D$0A@@ATL@@KAXXZ
_TEXT	SEGMENT
?ThrowMemoryException@?$CSimpleStringT@D$0A@@ATL@@KAXXZ PROC ; ATL::CSimpleStringT<char,0>::ThrowMemoryException, COMDAT

; 777  : 		AtlThrow( E_OUTOFMEMORY );

  00000	68 0e 00 07 80	 push	 -2147024882		; 8007000eH
  00005	e8 00 00 00 00	 call	 ?AtlThrowImpl@ATL@@YGXJ@Z ; ATL::AtlThrowImpl
$LN3@ThrowMemor:
  0000a	cc		 int	 3
?ThrowMemoryException@?$CSimpleStringT@D$0A@@ATL@@KAXXZ ENDP ; ATL::CSimpleStringT<char,0>::ThrowMemoryException
_TEXT	ENDS
; Function compile flags: /Ogtp
; File C:\Program Files\Microsoft Visual Studio\2022\Professional\VC\Tools\MSVC\14.44.35207\atlmfc\include\atlsimpstr.h
; File C:\Program Files (x86)\Windows Kits\10\Include\10.0.26100.0\ucrt\corecrt_memcpy_s.h
; File C:\Program Files\Microsoft Visual Studio\2022\Professional\VC\Tools\MSVC\14.44.35207\atlmfc\include\atlsimpstr.h
; File C:\Program Files (x86)\Windows Kits\10\Include\10.0.26100.0\ucrt\corecrt_memcpy_s.h
; File C:\Program Files\Microsoft Visual Studio\2022\Professional\VC\Tools\MSVC\14.44.35207\atlmfc\include\atlsimpstr.h
;	COMDAT ?SetString@?$CSimpleStringT@D$0A@@ATL@@QAEXPBDH@Z
_TEXT	SEGMENT
_pszSrc$ = 8						; size = 4
_nOldLength$1$ = 8					; size = 4
_nLength$ = 12						; size = 4
_nOffset$1$ = 12					; size = 4
?SetString@?$CSimpleStringT@D$0A@@ATL@@QAEXPBDH@Z PROC	; ATL::CSimpleStringT<char,0>::SetString, COMDAT
; _this$ = ecx

; 611  : 	{

  00000	55		 push	 ebp
  00001	8b ec		 mov	 ebp, esp
  00003	56		 push	 esi

; 612  : 		if( nLength == 0 )

  00004	8b 75 0c	 mov	 esi, DWORD PTR _nLength$[ebp]
  00007	57		 push	 edi
  00008	8b f9		 mov	 edi, ecx
  0000a	85 f6		 test	 esi, esi
  0000c	75 58		 jne	 SHORT $LN2@SetString

; 804  : 		return( reinterpret_cast< CStringData* >( m_pszData )-1 );

  0000e	8b 07		 mov	 eax, DWORD PTR [edi]

; 443  : 		if( pOldData->nDataLength == 0 )

  00010	83 78 f4 00	 cmp	 DWORD PTR [eax-12], 0

; 804  : 		return( reinterpret_cast< CStringData* >( m_pszData )-1 );

  00014	8d 50 f0	 lea	 edx, DWORD PTR [eax-16]

; 442  : 		IAtlStringMgr* pStringMgr = pOldData->pStringMgr;

  00017	8b 32		 mov	 esi, DWORD PTR [edx]

; 443  : 		if( pOldData->nDataLength == 0 )

  00019	74 1f		 je	 SHORT $LN72@SetString

; 73   : 		return nRefs < 0;

  0001b	83 7a 0c 00	 cmp	 DWORD PTR [edx+12], 0
  0001f	8d 4a 0c	 lea	 ecx, DWORD PTR [edx+12]

; 448  : 		if( pOldData->IsLocked() )

  00022	7d 1c		 jge	 SHORT $LN10@SetString

; 875  : 		if( nLength < 0 || nLength > GetData()->nAllocLength)

  00024	83 78 f8 00	 cmp	 DWORD PTR [eax-8], 0
  00028	0f 8c 0b 01 00
	00		 jl	 $LN71@SetString

; 877  : 
; 878  : 		GetData()->nDataLength = nLength;

  0002e	c7 40 f4 00 00
	00 00		 mov	 DWORD PTR [eax-12], 0

; 879  : 		m_pszData[nLength] = 0;

  00035	8b 07		 mov	 eax, DWORD PTR [edi]
  00037	c6 00 00	 mov	 BYTE PTR [eax], 0
$LN72@SetString:
  0003a	5f		 pop	 edi

; 638  : 			else
; 639  : 			{
; 640  : 				memcpy_s( pszBuffer, GetAllocLength() * sizeof( XCHAR ), pszSrc, nLength * sizeof( XCHAR ));
; 641  : 			}
; 642  : 			ReleaseBufferSetLength( nLength );
; 643  : 		}
; 644  : 	}

  0003b	5e		 pop	 esi
  0003c	5d		 pop	 ebp
  0003d	c2 08 00	 ret	 8
$LN10@SetString:

; 92   : 		if( _InterlockedDecrement( &nRefs ) <= 0 )

  00040	83 c8 ff	 or	 eax, -1
  00043	f0 0f c1 01	 lock	  xadd	 DWORD PTR [ecx], eax
  00047	48		 dec	 eax
  00048	85 c0		 test	 eax, eax
  0004a	7f 08		 jg	 SHORT $LN27@SetString

; 93   : 		{
; 94   : 			pStringMgr->Free( this );

  0004c	8b 0a		 mov	 ecx, DWORD PTR [edx]
  0004e	52		 push	 edx
  0004f	8b 01		 mov	 eax, DWORD PTR [ecx]
  00051	ff 50 04	 call	 DWORD PTR [eax+4]
$LN27@SetString:

; 456  : 			CStringData* pNewData = pStringMgr->GetNilString();

  00054	8b 06		 mov	 eax, DWORD PTR [esi]
  00056	8b ce		 mov	 ecx, esi
  00058	ff 50 0c	 call	 DWORD PTR [eax+12]

; 457  : 			Attach( pNewData );

  0005b	83 c0 10	 add	 eax, 16			; 00000010H
  0005e	89 07		 mov	 DWORD PTR [edi], eax
  00060	5f		 pop	 edi

; 638  : 			else
; 639  : 			{
; 640  : 				memcpy_s( pszBuffer, GetAllocLength() * sizeof( XCHAR ), pszSrc, nLength * sizeof( XCHAR ));
; 641  : 			}
; 642  : 			ReleaseBufferSetLength( nLength );
; 643  : 		}
; 644  : 	}

  00061	5e		 pop	 esi
  00062	5d		 pop	 ebp
  00063	c2 08 00	 ret	 8
$LN2@SetString:
  00066	53		 push	 ebx

; 613  : 		{
; 614  : 			Empty();
; 615  : 		}
; 616  : 		else
; 617  : 		{
; 618  : 			// It is possible that pszSrc points to a location inside of our
; 619  : 			// buffer.  GetBuffer() might change m_pszData if (1) the buffer
; 620  : 			// is shared or (2) the buffer is too small to hold the new
; 621  : 			// string.  We detect this aliasing, and modify pszSrc to point
; 622  : 			// into the newly allocated buffer instead.
; 623  : 
; 624  : 			if(pszSrc == NULL)

  00067	8b 5d 08	 mov	 ebx, DWORD PTR _pszSrc$[ebp]
  0006a	85 db		 test	 ebx, ebx
  0006c	0f 84 c7 00 00
	00		 je	 $LN71@SetString

; 523  : 		return( GetData()->nDataLength );

  00072	8b 07		 mov	 eax, DWORD PTR [edi]

; 625  : 				AtlThrow(E_INVALIDARG);
; 626  : 
; 627  : 			UINT nOldLength = GetLength();
; 628  : 			UINT_PTR nOffset = pszSrc-GetString();

  00074	8b d3		 mov	 edx, ebx
  00076	2b d0		 sub	 edx, eax
  00078	89 55 0c	 mov	 DWORD PTR _nOffset$1$[ebp], edx
  0007b	8b 48 f4	 mov	 ecx, DWORD PTR [eax-12]
  0007e	89 4d 08	 mov	 DWORD PTR _nOldLength$1$[ebp], ecx

; 808  : 		if (nLength < 0)

  00081	85 f6		 test	 esi, esi
  00083	0f 88 b0 00 00
	00		 js	 $LN71@SetString

; 809  : 			AtlThrow(E_INVALIDARG);
; 810  : 
; 811  : 		CStringData* pOldData = GetData();
; 812  : 		int nShared = 1-pOldData->nRefs;  // nShared < 0 means true, >= 0 means false

  00089	b9 01 00 00 00	 mov	 ecx, 1
  0008e	2b 48 fc	 sub	 ecx, DWORD PTR [eax-4]

; 813  : 		int nTooShort = pOldData->nAllocLength-nLength;  // nTooShort < 0 means true, >= 0 means false

  00091	8b 40 f8	 mov	 eax, DWORD PTR [eax-8]
  00094	2b c6		 sub	 eax, esi

; 814  : 		if( (nShared|nTooShort) < 0 )  // If either sign bit is set (i.e. either is less than zero), we need to copy data

  00096	0b c8		 or	 ecx, eax
  00098	7d 0b		 jge	 SHORT $LN38@SetString

; 815  : 		{
; 816  : 			PrepareWrite2( nLength );

  0009a	56		 push	 esi
  0009b	8b cf		 mov	 ecx, edi
  0009d	e8 00 00 00 00	 call	 ?PrepareWrite2@?$CSimpleStringT@D$0A@@ATL@@AAEXH@Z ; ATL::CSimpleStringT<char,0>::PrepareWrite2
  000a2	8b 55 0c	 mov	 edx, DWORD PTR _nOffset$1$[ebp]
$LN38@SetString:

; 629  : 			// If 0 <= nOffset <= nOldLength, then pszSrc points into our
; 630  : 			// buffer
; 631  : 
; 632  : 			PXSTR pszBuffer = GetBuffer( nLength );

  000a5	8b 07		 mov	 eax, DWORD PTR [edi]
  000a7	8b 48 f8	 mov	 ecx, DWORD PTR [eax-8]

; 633  : 			if( nOffset <= nOldLength )

  000aa	3b 55 08	 cmp	 edx, DWORD PTR _nOldLength$1$[ebp]
  000ad	77 35		 ja	 SHORT $LN5@SetString

; 634  : 			{
; 635  : 				CopyCharsOverlapped( pszBuffer, GetAllocLength(),

  000af	03 d0		 add	 edx, eax
; File C:\Program Files (x86)\Windows Kits\10\Include\10.0.26100.0\ucrt\corecrt_memcpy_s.h

; 81   :         _CRT_MEMCPY_S_VALIDATE_RETURN_ERRCODE(_Destination != NULL,            EINVAL);

  000b1	85 c0		 test	 eax, eax
  000b3	75 0d		 jne	 SHORT $LN51@SetString
  000b5	e8 00 00 00 00	 call	 __errno
  000ba	c7 00 16 00 00
	00		 mov	 DWORD PTR [eax], 22	; 00000016H
  000c0	eb 5b		 jmp	 SHORT $LN97@SetString
$LN51@SetString:

; 82   :         _CRT_MEMCPY_S_VALIDATE_RETURN_ERRCODE(_Source != NULL,                 EINVAL);

  000c2	85 d2		 test	 edx, edx
  000c4	75 0d		 jne	 SHORT $LN52@SetString
  000c6	e8 00 00 00 00	 call	 __errno
  000cb	c7 00 16 00 00
	00		 mov	 DWORD PTR [eax], 22	; 00000016H
  000d1	eb 4a		 jmp	 SHORT $LN97@SetString
$LN52@SetString:

; 83   :         _CRT_MEMCPY_S_VALIDATE_RETURN_ERRCODE(_DestinationSize >= _SourceSize, ERANGE);

  000d3	3b ce		 cmp	 ecx, esi
  000d5	72 3b		 jb	 SHORT $LN98@SetString

; 84   : 
; 85   :         memmove(_Destination, _Source, _SourceSize);

  000d7	56		 push	 esi
  000d8	52		 push	 edx
  000d9	50		 push	 eax
  000da	e8 00 00 00 00	 call	 _memmove
  000df	83 c4 0c	 add	 esp, 12			; 0000000cH
; File C:\Program Files\Microsoft Visual Studio\2022\Professional\VC\Tools\MSVC\14.44.35207\atlmfc\include\atlsimpstr.h

; 637  : 			}

  000e2	eb 3e		 jmp	 SHORT $LN65@SetString
$LN5@SetString:
; File C:\Program Files (x86)\Windows Kits\10\Include\10.0.26100.0\ucrt\corecrt_memcpy_s.h

; 52   :         _CRT_MEMCPY_S_VALIDATE_RETURN_ERRCODE(_Destination != NULL, EINVAL);

  000e4	85 c0		 test	 eax, eax
  000e6	75 0d		 jne	 SHORT $LN61@SetString
  000e8	e8 00 00 00 00	 call	 __errno
  000ed	c7 00 16 00 00
	00		 mov	 DWORD PTR [eax], 22	; 00000016H
  000f3	eb 28		 jmp	 SHORT $LN97@SetString
$LN61@SetString:

; 53   :         if (_Source == NULL || _DestinationSize < _SourceSize)

  000f5	3b ce		 cmp	 ecx, esi
  000f7	72 0d		 jb	 SHORT $LN63@SetString

; 56   : 
; 57   :             _CRT_MEMCPY_S_VALIDATE_RETURN_ERRCODE(_Source != NULL,                 EINVAL);
; 58   :             _CRT_MEMCPY_S_VALIDATE_RETURN_ERRCODE(_DestinationSize >= _SourceSize, ERANGE);
; 59   : 
; 60   :             // Unreachable, but required to suppress /analyze warnings:
; 61   :             return EINVAL;
; 62   :         }
; 63   :         memcpy(_Destination, _Source, _SourceSize);

  000f9	56		 push	 esi
  000fa	53		 push	 ebx
  000fb	50		 push	 eax
  000fc	e8 00 00 00 00	 call	 _memcpy
  00101	83 c4 0c	 add	 esp, 12			; 0000000cH
  00104	eb 1c		 jmp	 SHORT $LN65@SetString
$LN63@SetString:

; 54   :         {
; 55   :             memset(_Destination, 0, _DestinationSize);

  00106	51		 push	 ecx
  00107	6a 00		 push	 0
  00109	50		 push	 eax
  0010a	e8 00 00 00 00	 call	 _memset
  0010f	83 c4 0c	 add	 esp, 12			; 0000000cH
$LN98@SetString:
; File C:\Program Files\Microsoft Visual Studio\2022\Professional\VC\Tools\MSVC\14.44.35207\atlmfc\include\atlsimpstr.h

; 875  : 		if( nLength < 0 || nLength > GetData()->nAllocLength)

  00112	e8 00 00 00 00	 call	 __errno
  00117	c7 00 22 00 00
	00		 mov	 DWORD PTR [eax], 34	; 00000022H
$LN97@SetString:
  0011d	e8 00 00 00 00	 call	 __invalid_parameter_noinfo
$LN65@SetString:
  00122	8b 07		 mov	 eax, DWORD PTR [edi]
  00124	5b		 pop	 ebx
  00125	3b 70 f8	 cmp	 esi, DWORD PTR [eax-8]
  00128	7f 0f		 jg	 SHORT $LN71@SetString

; 877  : 
; 878  : 		GetData()->nDataLength = nLength;

  0012a	89 70 f4	 mov	 DWORD PTR [eax-12], esi

; 879  : 		m_pszData[nLength] = 0;

  0012d	8b 07		 mov	 eax, DWORD PTR [edi]
  0012f	5f		 pop	 edi
  00130	c6 04 06 00	 mov	 BYTE PTR [esi+eax], 0

; 638  : 			else
; 639  : 			{
; 640  : 				memcpy_s( pszBuffer, GetAllocLength() * sizeof( XCHAR ), pszSrc, nLength * sizeof( XCHAR ));
; 641  : 			}
; 642  : 			ReleaseBufferSetLength( nLength );
; 643  : 		}
; 644  : 	}

  00134	5e		 pop	 esi
  00135	5d		 pop	 ebp
  00136	c2 08 00	 ret	 8
$LN71@SetString:

; 876  : 			AtlThrow(E_INVALIDARG);

  00139	68 57 00 07 80	 push	 -2147024809		; 80070057H
  0013e	e8 00 00 00 00	 call	 ?AtlThrowImpl@ATL@@YGXJ@Z ; ATL::AtlThrowImpl
$LN96@SetString:
  00143	cc		 int	 3
?SetString@?$CSimpleStringT@D$0A@@ATL@@QAEXPBDH@Z ENDP	; ATL::CSimpleStringT<char,0>::SetString
_TEXT	ENDS
; Function compile flags: /Ogtp
; File C:\Program Files\Microsoft Visual Studio\2022\Professional\VC\Tools\MSVC\14.44.35207\atlmfc\include\atlsimpstr.h
;	COMDAT ??1?$CSimpleStringT@D$0A@@ATL@@QAE@XZ
_TEXT	SEGMENT
??1?$CSimpleStringT@D$0A@@ATL@@QAE@XZ PROC		; ATL::CSimpleStringT<char,0>::~CSimpleStringT<char,0>, COMDAT
; _this$ = ecx

; 804  : 		return( reinterpret_cast< CStringData* >( m_pszData )-1 );

  00000	8b 11		 mov	 edx, DWORD PTR [ecx]

; 92   : 		if( _InterlockedDecrement( &nRefs ) <= 0 )

  00002	83 c8 ff	 or	 eax, -1

; 804  : 		return( reinterpret_cast< CStringData* >( m_pszData )-1 );

  00005	83 ea 10	 sub	 edx, 16			; 00000010H

; 92   : 		if( _InterlockedDecrement( &nRefs ) <= 0 )

  00008	f0 0f c1 42 0c	 lock	  xadd	 DWORD PTR [edx+12], eax
  0000d	48		 dec	 eax
  0000e	85 c0		 test	 eax, eax
  00010	7f 08		 jg	 SHORT $LN6@CSimpleStr

; 93   : 		{
; 94   : 			pStringMgr->Free( this );

  00012	8b 0a		 mov	 ecx, DWORD PTR [edx]
  00014	52		 push	 edx
  00015	8b 01		 mov	 eax, DWORD PTR [ecx]
  00017	ff 50 04	 call	 DWORD PTR [eax+4]
$LN6@CSimpleStr:

; 265  : 		CStringData* pData = GetData();
; 266  : 		pData->Release();
; 267  : 	}

  0001a	c3		 ret	 0
??1?$CSimpleStringT@D$0A@@ATL@@QAE@XZ ENDP		; ATL::CSimpleStringT<char,0>::~CSimpleStringT<char,0>
_TEXT	ENDS
; Function compile flags: /Ogtp
; File C:\Program Files\Microsoft Visual Studio\2022\Professional\VC\Tools\MSVC\14.44.35207\atlmfc\include\atlexcept.h
;	COMDAT ?AtlThrowImpl@ATL@@YGXJ@Z
_TEXT	SEGMENT
_hr$ = 8						; size = 4
?AtlThrowImpl@ATL@@YGXJ@Z PROC				; ATL::AtlThrowImpl, COMDAT

; 69   : {

  00000	55		 push	 ebp
  00001	8b ec		 mov	 ebp, esp

; 70   : 	ATLTRACE(atlTraceException, 0, _T("AtlThrow: hr = 0x%x\n"), hr );
; 71   : #ifdef _AFX
; 72   : 	if( hr == E_OUTOFMEMORY )

  00003	8b 45 08	 mov	 eax, DWORD PTR _hr$[ebp]
  00006	3d 0e 00 07 80	 cmp	 eax, -2147024882	; 8007000eH
  0000b	75 05		 jne	 SHORT $LN2@AtlThrowIm

; 73   : 	{
; 74   : 		AfxThrowMemoryException();

  0000d	e8 00 00 00 00	 call	 ?AfxThrowMemoryException@@YGXXZ ; AfxThrowMemoryException
$LN2@AtlThrowIm:

; 75   : 	}
; 76   : 	else
; 77   : 	{
; 78   : 		AfxThrowOleException( hr );

  00012	50		 push	 eax
  00013	e8 00 00 00 00	 call	 ?AfxThrowOleException@@YGXJ@Z ; AfxThrowOleException
$LN5@AtlThrowIm:
  00018	cc		 int	 3
?AtlThrowImpl@ATL@@YGXJ@Z ENDP				; ATL::AtlThrowImpl
_TEXT	ENDS
; Function compile flags: /Ogtp
; File C:\Program Files (x86)\Windows Kits\10\Include\10.0.26100.0\ucrt\stdio.h
;	COMDAT _sprintf
_TEXT	SEGMENT
__Buffer$ = 8						; size = 4
__Format$ = 12						; size = 4
_sprintf PROC						; COMDAT

; 1771 :     {

  00000	55		 push	 ebp
  00001	8b ec		 mov	 ebp, esp

; 1392 :         int const _Result = __stdio_common_vsprintf(

  00003	8d 45 10	 lea	 eax, DWORD PTR __Format$[ebp+4]
  00006	50		 push	 eax
  00007	6a 00		 push	 0
  00009	ff 75 0c	 push	 DWORD PTR __Format$[ebp]
  0000c	6a ff		 push	 -1
  0000e	ff 75 08	 push	 DWORD PTR __Buffer$[ebp]
  00011	e8 00 00 00 00	 call	 ___local_stdio_printf_options
  00016	8b 08		 mov	 ecx, DWORD PTR [eax]
  00018	ff 70 04	 push	 DWORD PTR [eax+4]
  0001b	83 c9 01	 or	 ecx, 1
  0001e	51		 push	 ecx
  0001f	e8 00 00 00 00	 call	 ___stdio_common_vsprintf

; 1393 :             _CRT_INTERNAL_LOCAL_PRINTF_OPTIONS | _CRT_INTERNAL_PRINTF_LEGACY_VSPRINTF_NULL_TERMINATION,
; 1394 :             _Buffer, _BufferCount, _Format, _Locale, _ArgList);
; 1395 : 
; 1396 :         return _Result < 0 ? -1 : _Result;

  00024	83 c9 ff	 or	 ecx, -1
  00027	83 c4 1c	 add	 esp, 28			; 0000001cH
  0002a	85 c0		 test	 eax, eax
  0002c	0f 48 c1	 cmovs	 eax, ecx

; 1772 :         int _Result;
; 1773 :         va_list _ArgList;
; 1774 :         __crt_va_start(_ArgList, _Format);
; 1775 : 
; 1776 :         _Result = _vsprintf_l(_Buffer, _Format, NULL, _ArgList);
; 1777 : 
; 1778 :         __crt_va_end(_ArgList);
; 1779 :         return _Result;
; 1780 :     }

  0002f	5d		 pop	 ebp
  00030	c3		 ret	 0
_sprintf ENDP
_TEXT	ENDS
; Function compile flags: /Ogtp
; File C:\Program Files (x86)\Windows Kits\10\Include\10.0.26100.0\ucrt\corecrt_stdio_config.h
;	COMDAT ___local_stdio_printf_options
_TEXT	SEGMENT
___local_stdio_printf_options PROC			; COMDAT

; 91   :         static unsigned __int64 _OptionsStorage;
; 92   :         return &_OptionsStorage;

  00000	b8 00 00 00 00	 mov	 eax, OFFSET ?_OptionsStorage@?1??__local_stdio_printf_options@@9@4_KA ; `__local_stdio_printf_options'::`2'::_OptionsStorage

; 93   :     }

  00005	c3		 ret	 0
___local_stdio_printf_options ENDP
_TEXT	ENDS
; Function compile flags: /Ogtp
; File C:\IAGOS\server\v18\Source\Source\DatabaseServer\DatabaseServer.cpp
;	COMDAT _WinMain@16
_TEXT	SEGMENT
_msg$ = -28						; size = 28
_hInstance$ = 8						; size = 4
_hPrevInstance$ = 12					; size = 4
_lpCmdLine$ = 16					; size = 4
_nCmdShow$ = 20						; size = 4
_WinMain@16 PROC					; COMDAT

; 143  : {

  00000	55		 push	 ebp
  00001	8b ec		 mov	 ebp, esp
  00003	83 ec 1c	 sub	 esp, 28			; 0000001cH
  00006	56		 push	 esi
  00007	57		 push	 edi

; 144  : 
; 145  : 
; 146  : 
; 147  : 	//////////////////////////////////////////////////////////////////////////
; 148  : 	//	BEGINTEST100111	FFL_DUMP
; 149  : // 	ffl_dump_unexception_filter::install( ffl_dump_level_heavy );
; 150  : 	//	ENDTEST100111	FFL_DUMP
; 151  : 	//////////////////////////////////////////////////////////////////////////
; 152  : 
; 153  : 
; 154  :  	InitLanguageFromResource( hInstance );

  00008	8b 7d 08	 mov	 edi, DWORD PTR _hInstance$[ebp]
  0000b	57		 push	 edi
  0000c	e8 00 00 00 00	 call	 ?InitLanguageFromResource@@YAXPAUHINSTANCE__@@@Z ; InitLanguageFromResource

; 155  : 
; 156  : 	LoadString( hInstance, IDS_APP_TITLE, szTitle, MAX_LOADSTRING );

  00011	8b 35 00 00 00
	00		 mov	 esi, DWORD PTR __imp__LoadStringA@16
  00017	83 c4 04	 add	 esp, 4
  0001a	6a 64		 push	 100			; 00000064H
  0001c	68 00 00 00 00	 push	 OFFSET ?szTitle@@3PADA	; szTitle
  00021	6a 67		 push	 103			; 00000067H
  00023	57		 push	 edi
  00024	ff d6		 call	 esi

; 157  : 	LoadString( hInstance, IDC_DATABASESERVER, szWindowClass, MAX_LOADSTRING );

  00026	6a 64		 push	 100			; 00000064H
  00028	68 00 00 00 00	 push	 OFFSET ?szWindowClass@@3PADA ; szWindowClass
  0002d	6a 6d		 push	 109			; 0000006dH
  0002f	57		 push	 edi
  00030	ff d6		 call	 esi

; 158  : 	MyRegisterClass(hInstance);

  00032	57		 push	 edi
  00033	e8 00 00 00 00	 call	 ?MyRegisterClass@@YAGPAUHINSTANCE__@@@Z ; MyRegisterClass

; 159  : 
; 160  : 	if (!InitInstance (hInstance, nCmdShow)) 

  00038	ff 75 14	 push	 DWORD PTR _nCmdShow$[ebp]
  0003b	57		 push	 edi
  0003c	e8 00 00 00 00	 call	 ?InitInstance@@YAHPAUHINSTANCE__@@H@Z ; InitInstance
  00041	83 c4 0c	 add	 esp, 12			; 0000000cH
  00044	85 c0		 test	 eax, eax
  00046	75 0f		 jne	 SHORT $LN6@WinMain

; 161  : 	{
; 162  : 		ExitInstance();

  00048	e8 00 00 00 00	 call	 ?ExitInstance@@YAXXZ	; ExitInstance
  0004d	5f		 pop	 edi

; 163  : 		return FALSE;

  0004e	33 c0		 xor	 eax, eax

; 175  : }

  00050	5e		 pop	 esi
  00051	8b e5		 mov	 esp, ebp
  00053	5d		 pop	 ebp
  00054	c2 10 00	 ret	 16			; 00000010H
$LN6@WinMain:

; 164  : 	}
; 165  : 
; 166  : 	MSG msg;
; 167  : 	while (GetMessage(&msg, NULL, 0, 0)) 

  00057	8b 35 00 00 00
	00		 mov	 esi, DWORD PTR __imp__GetMessageA@16
  0005d	8d 45 e4	 lea	 eax, DWORD PTR _msg$[ebp]
  00060	6a 00		 push	 0
  00062	6a 00		 push	 0
  00064	6a 00		 push	 0
  00066	50		 push	 eax
  00067	ff d6		 call	 esi
  00069	85 c0		 test	 eax, eax
  0006b	74 30		 je	 SHORT $LN3@WinMain
  0006d	8b 3d 00 00 00
	00		 mov	 edi, DWORD PTR __imp__TranslateMessage@4
  00073	53		 push	 ebx
  00074	8b 1d 00 00 00
	00		 mov	 ebx, DWORD PTR __imp__DispatchMessageA@4
  0007a	66 0f 1f 44 00
	00		 npad	 6
$LL2@WinMain:

; 168  : 	{
; 169  : 		TranslateMessage(&msg);

  00080	8d 45 e4	 lea	 eax, DWORD PTR _msg$[ebp]
  00083	50		 push	 eax
  00084	ff d7		 call	 edi

; 170  : 		DispatchMessage(&msg);

  00086	8d 45 e4	 lea	 eax, DWORD PTR _msg$[ebp]
  00089	50		 push	 eax
  0008a	ff d3		 call	 ebx
  0008c	6a 00		 push	 0
  0008e	6a 00		 push	 0
  00090	6a 00		 push	 0
  00092	8d 45 e4	 lea	 eax, DWORD PTR _msg$[ebp]
  00095	50		 push	 eax
  00096	ff d6		 call	 esi
  00098	85 c0		 test	 eax, eax
  0009a	75 e4		 jne	 SHORT $LL2@WinMain

; 164  : 	}
; 165  : 
; 166  : 	MSG msg;
; 167  : 	while (GetMessage(&msg, NULL, 0, 0)) 

  0009c	5b		 pop	 ebx
$LN3@WinMain:

; 171  : 	}
; 172  : 	ExitInstance();

  0009d	e8 00 00 00 00	 call	 ?ExitInstance@@YAXXZ	; ExitInstance

; 173  : 
; 174  : 	return msg.wParam;

  000a2	8b 45 ec	 mov	 eax, DWORD PTR _msg$[ebp+8]
  000a5	5f		 pop	 edi

; 175  : }

  000a6	5e		 pop	 esi
  000a7	8b e5		 mov	 esp, ebp
  000a9	5d		 pop	 ebp
  000aa	c2 10 00	 ret	 16			; 00000010H
_WinMain@16 ENDP
_TEXT	ENDS
; Function compile flags: /Ogtp
; File C:\IAGOS\server\v18\Source\Source\DatabaseServer\DatabaseServer.cpp
;	COMDAT ?__empty_global_delete@@YAXPAXI@Z
_TEXT	SEGMENT
___formal$ = 8						; size = 4
___formal$ = 12						; size = 4
?__empty_global_delete@@YAXPAXI@Z PROC			; __empty_global_delete, COMDAT

  00000	c2 00 00	 ret	 0
?__empty_global_delete@@YAXPAXI@Z ENDP			; __empty_global_delete
_TEXT	ENDS
; Function compile flags: /Ogtp
; File C:\IAGOS\server\v18\Source\Source\DatabaseServer\DatabaseServer.cpp
;	COMDAT ?__empty_global_delete@@YAXPAX@Z
_TEXT	SEGMENT
___formal$ = 8						; size = 4
?__empty_global_delete@@YAXPAX@Z PROC			; __empty_global_delete, COMDAT

  00000	c2 00 00	 ret	 0
?__empty_global_delete@@YAXPAX@Z ENDP			; __empty_global_delete
_TEXT	ENDS
END
