; Listing generated by Microsoft (R) Optimizing Compiler Version 19.44.35225.0 

	TITLE	C:\IAGOS\server\v18\Source\Output\DatabaseServer\Release\DBBackEndSystem.obj
	.686P
	.XMM
	include listing.inc
	.model	flat

INCLUDELIB LIBCMT
INCLUDELIB OLDNAMES

PUBLIC	?__empty_global_delete@@YAXPAX@Z		; __empty_global_delete
PUBLIC	?__empty_global_delete@@YAXPAXI@Z		; __empty_global_delete
PUBLIC	___local_stdio_printf_options
PUBLIC	_sprintf
PUBLIC	?BackSystem@CDbManager@@QAEXXZ			; CDbManager::BackSystem
PUBLIC	?GetGemeSettingtime@CDbManager@@AAEXPAVCQuery@@H@Z ; CDbManager::GetGemeSettingtime
PUBLIC	?GetBaseGameSetting@CDbManager@@AAEHPAVCQuery@@PAD@Z ; CDbManager::GetBaseGameSetting
PUBLIC	?GetMonsterRespawnSetting@CDbManager@@AAEXPAVCQuery@@AAHQAHPAD@Z ; CDbManager::GetMonsterRespawnSetting
PUBLIC	?GetMonsterPropSetting@CDbManager@@AAEXPAVCQuery@@PAD@Z ; CDbManager::GetMonsterPropSetting
PUBLIC	?AddMonsterRespawn@CDbManager@@AAEHU_MONSTER_RESPAWN@@@Z ; CDbManager::AddMonsterRespawn
PUBLIC	?RemoveMonsterRespawn@CDbManager@@AAEHHAAHQAH@Z	; CDbManager::RemoveMonsterRespawn
PUBLIC	?AddMonsterProp@CDbManager@@AAEHU_MONSTER_PROP@@@Z ; CDbManager::AddMonsterProp
PUBLIC	?RemoveMonsterProp@CDbManager@@AAEHU_MONSTER_PROP@@@Z ; CDbManager::RemoveMonsterProp
PUBLIC	?GetGMChat@CDbManager@@AAEHPAVCQuery@@PADAAH@Z	; CDbManager::GetGMChat
PUBLIC	?_OptionsStorage@?1??__local_stdio_printf_options@@9@4_KA ; `__local_stdio_printf_options'::`2'::_OptionsStorage
PUBLIC	??_C@_09GBAEEKDE@?$CFs?0?5?$CFd?7?$CFs@		; `string'
PUBLIC	??_C@_0EA@IGAHIDM@C?3?2IAGOS?2server?2v18?2Source?2Sour@ ; `string'
PUBLIC	??_C@_0CB@MFHCCELP@?$CFs?0?5?$CFd?5BackSystem?5Connect?5Faile@ ; `string'
PUBLIC	??_C@_0BJ@POKGHGPN@GAME_BACKSYSTEM_STR?5?8S0?8@	; `string'
PUBLIC	??_C@_09OGDCHKLK@curr_time@			; `string'
PUBLIC	??_C@_0CF@CAIDFNFN@GAME_BACKSYSTEM_STR?5?8S4?8?0?8?$CF02d?8@ ; `string'
PUBLIC	??_C@_03GLPMCEFE@msg@				; `string'
PUBLIC	??_C@_0CF@BDAEODNG@GAME_BACKSYSTEM_STR?5?8S1?8?0?8?$CF02d?8@ ; `string'
PUBLIC	??_C@_07MGNKFCA@bResult@			; `string'
PUBLIC	??_C@_06CJHGHFEP@szName@			; `string'
PUBLIC	??_C@_04HCCHHEEF@rate@				; `string'
PUBLIC	??_C@_03HKMMIPC@Exp@				; `string'
PUBLIC	??_C@_05OPFOCHJP@Penya@				; `string'
PUBLIC	??_C@_08COMINNNE@ItemDrop@			; `string'
PUBLIC	??_C@_07LKKEEFDG@Rebirth@			; `string'
PUBLIC	??_C@_08PDOHAPNM@HitPoint@			; `string'
PUBLIC	??_C@_0M@LAGJIOMN@AttackPower@			; `string'
PUBLIC	??_C@_07JGOIAFF@Respawn@			; `string'
PUBLIC	??_C@_0L@ICGAFIAO@Aggressive@			; `string'
PUBLIC	??_C@_05NFJELHBG@Price@				; `string'
PUBLIC	??_C@_0CF@CHJIJKP@GAME_BACKSYSTEM_STR?5?8S2?8?0?8?$CF02d?8@ ; `string'
PUBLIC	??_C@_03CHBJLALM@Num@				; `string'
PUBLIC	??_C@_04FABLJDN@Name@				; `string'
PUBLIC	??_C@_05KAFNCDDG@Pos_x@				; `string'
PUBLIC	??_C@_05LJEGBCHH@Pos_y@				; `string'
PUBLIC	??_C@_05JCGLEBLE@Pos_z@				; `string'
PUBLIC	??_C@_08GACJPEFO@Quantity@			; `string'
PUBLIC	??_C@_05CFMCGLCK@Range@				; `string'
PUBLIC	??_C@_06NIHFGDBN@dwTime@			; `string'
PUBLIC	??_C@_0CF@LLICFCEH@GAME_BACKSYSTEM_STR?5?8S3?8?0?8?$CF02d?8@ ; `string'
PUBLIC	??_C@_07FLJJBEFD@MonName@			; `string'
PUBLIC	??_C@_07OIBJPBBC@Defence@			; `string'
PUBLIC	??_C@_0CB@HODAFBNJ@AddMonsterRespawn?5Overflow?5Erro@ ; `string'
PUBLIC	??_C@_0BO@JOPEDMLI@AddMonsterProp?5Overflow?5Error@ ; `string'
PUBLIC	__real@42c80000
EXTRN	??2@YAPAXI@Z:PROC				; operator new
EXTRN	??3@YAXPAXI@Z:PROC				; operator delete
EXTRN	__imp__WaitForSingleObject@8:PROC
EXTRN	___stdio_common_vsprintf:PROC
EXTRN	__time64:PROC
EXTRN	?AfxMessageBox@@YGHPBDII@Z:PROC			; AfxMessageBox
EXTRN	?WriteLog@@YAXPBDZZ:PROC			; WriteLog
EXTRN	??0CQuery@@QAE@XZ:PROC				; CQuery::CQuery
EXTRN	??1CQuery@@QAE@XZ:PROC				; CQuery::~CQuery
EXTRN	?Connect@CQuery@@QAEHHPAD0PBD@Z:PROC		; CQuery::Connect
EXTRN	?Exec@CQuery@@QAEHPBD@Z:PROC			; CQuery::Exec
EXTRN	?Fetch@CQuery@@QAEHXZ:PROC			; CQuery::Fetch
EXTRN	?GetInt@CQuery@@QAEHPAD@Z:PROC			; CQuery::GetInt
EXTRN	?GetStr@CQuery@@QAEXPAD0@Z:PROC			; CQuery::GetStr
EXTRN	?GetInstance@CDPTrans@@SAPAV1@XZ:PROC		; CDPTrans::GetInstance
EXTRN	?SendBaseGameSetting@CDPTrans@@QAEXHK@Z:PROC	; CDPTrans::SendBaseGameSetting
EXTRN	?SendMonsterRespawnSetting@CDPTrans@@QAEXHQAHK@Z:PROC ; CDPTrans::SendMonsterRespawnSetting
EXTRN	?SendMonsterPropSetting@CDPTrans@@QAEXHK@Z:PROC	; CDPTrans::SendMonsterPropSetting
EXTRN	?SendGMChat@CDPTrans@@QAEXH@Z:PROC		; CDPTrans::SendGMChat
EXTRN	@__security_check_cookie@4:PROC
EXTRN	___CxxFrameHandler3:PROC
EXTRN	__chkstk:PROC
EXTRN	_memset:PROC
EXTRN	?prj@@3VCProject@@A:BYTE			; prj
EXTRN	?DSN_NAME_BACKSYSTEM@@3PADA:BYTE		; DSN_NAME_BACKSYSTEM
EXTRN	?DB_ADMIN_ID_BACKSYSTEM@@3PADA:BYTE		; DB_ADMIN_ID_BACKSYSTEM
EXTRN	?g_appInfo@@3UAppInfo@@A:QWORD			; g_appInfo
EXTRN	___security_cookie:DWORD
EXTRN	__fltused:DWORD
;	COMDAT ?_OptionsStorage@?1??__local_stdio_printf_options@@9@4_KA
_BSS	SEGMENT
?_OptionsStorage@?1??__local_stdio_printf_options@@9@4_KA DQ 01H DUP (?) ; `__local_stdio_printf_options'::`2'::_OptionsStorage
_BSS	ENDS
;	COMDAT __real@42c80000
CONST	SEGMENT
__real@42c80000 DD 042c80000r			; 100
CONST	ENDS
;	COMDAT ??_C@_0BO@JOPEDMLI@AddMonsterProp?5Overflow?5Error@
CONST	SEGMENT
??_C@_0BO@JOPEDMLI@AddMonsterProp?5Overflow?5Error@ DB 'AddMonsterProp Ov'
	DB	'erflow Error', 00H				; `string'
CONST	ENDS
;	COMDAT ??_C@_0CB@HODAFBNJ@AddMonsterRespawn?5Overflow?5Erro@
CONST	SEGMENT
??_C@_0CB@HODAFBNJ@AddMonsterRespawn?5Overflow?5Erro@ DB 'AddMonsterRespa'
	DB	'wn Overflow Error', 00H			; `string'
CONST	ENDS
;	COMDAT ??_C@_07OIBJPBBC@Defence@
CONST	SEGMENT
??_C@_07OIBJPBBC@Defence@ DB 'Defence', 00H		; `string'
CONST	ENDS
;	COMDAT ??_C@_07FLJJBEFD@MonName@
CONST	SEGMENT
??_C@_07FLJJBEFD@MonName@ DB 'MonName', 00H		; `string'
CONST	ENDS
;	COMDAT ??_C@_0CF@LLICFCEH@GAME_BACKSYSTEM_STR?5?8S3?8?0?8?$CF02d?8@
CONST	SEGMENT
??_C@_0CF@LLICFCEH@GAME_BACKSYSTEM_STR?5?8S3?8?0?8?$CF02d?8@ DB 'GAME_BAC'
	DB	'KSYSTEM_STR ''S3'',''%02d'',''%s''', 00H	; `string'
CONST	ENDS
;	COMDAT ??_C@_06NIHFGDBN@dwTime@
CONST	SEGMENT
??_C@_06NIHFGDBN@dwTime@ DB 'dwTime', 00H		; `string'
CONST	ENDS
;	COMDAT ??_C@_05CFMCGLCK@Range@
CONST	SEGMENT
??_C@_05CFMCGLCK@Range@ DB 'Range', 00H			; `string'
CONST	ENDS
;	COMDAT ??_C@_08GACJPEFO@Quantity@
CONST	SEGMENT
??_C@_08GACJPEFO@Quantity@ DB 'Quantity', 00H		; `string'
CONST	ENDS
;	COMDAT ??_C@_05JCGLEBLE@Pos_z@
CONST	SEGMENT
??_C@_05JCGLEBLE@Pos_z@ DB 'Pos_z', 00H			; `string'
CONST	ENDS
;	COMDAT ??_C@_05LJEGBCHH@Pos_y@
CONST	SEGMENT
??_C@_05LJEGBCHH@Pos_y@ DB 'Pos_y', 00H			; `string'
CONST	ENDS
;	COMDAT ??_C@_05KAFNCDDG@Pos_x@
CONST	SEGMENT
??_C@_05KAFNCDDG@Pos_x@ DB 'Pos_x', 00H			; `string'
CONST	ENDS
;	COMDAT ??_C@_04FABLJDN@Name@
CONST	SEGMENT
??_C@_04FABLJDN@Name@ DB 'Name', 00H			; `string'
CONST	ENDS
;	COMDAT ??_C@_03CHBJLALM@Num@
CONST	SEGMENT
??_C@_03CHBJLALM@Num@ DB 'Num', 00H			; `string'
CONST	ENDS
;	COMDAT ??_C@_0CF@CHJIJKP@GAME_BACKSYSTEM_STR?5?8S2?8?0?8?$CF02d?8@
CONST	SEGMENT
??_C@_0CF@CHJIJKP@GAME_BACKSYSTEM_STR?5?8S2?8?0?8?$CF02d?8@ DB 'GAME_BACK'
	DB	'SYSTEM_STR ''S2'',''%02d'',''%s''', 00H	; `string'
CONST	ENDS
;	COMDAT ??_C@_05NFJELHBG@Price@
CONST	SEGMENT
??_C@_05NFJELHBG@Price@ DB 'Price', 00H			; `string'
CONST	ENDS
;	COMDAT ??_C@_0L@ICGAFIAO@Aggressive@
CONST	SEGMENT
??_C@_0L@ICGAFIAO@Aggressive@ DB 'Aggressive', 00H	; `string'
CONST	ENDS
;	COMDAT ??_C@_07JGOIAFF@Respawn@
CONST	SEGMENT
??_C@_07JGOIAFF@Respawn@ DB 'Respawn', 00H		; `string'
CONST	ENDS
;	COMDAT ??_C@_0M@LAGJIOMN@AttackPower@
CONST	SEGMENT
??_C@_0M@LAGJIOMN@AttackPower@ DB 'AttackPower', 00H	; `string'
CONST	ENDS
;	COMDAT ??_C@_08PDOHAPNM@HitPoint@
CONST	SEGMENT
??_C@_08PDOHAPNM@HitPoint@ DB 'HitPoint', 00H		; `string'
CONST	ENDS
;	COMDAT ??_C@_07LKKEEFDG@Rebirth@
CONST	SEGMENT
??_C@_07LKKEEFDG@Rebirth@ DB 'Rebirth', 00H		; `string'
CONST	ENDS
;	COMDAT ??_C@_08COMINNNE@ItemDrop@
CONST	SEGMENT
??_C@_08COMINNNE@ItemDrop@ DB 'ItemDrop', 00H		; `string'
CONST	ENDS
;	COMDAT ??_C@_05OPFOCHJP@Penya@
CONST	SEGMENT
??_C@_05OPFOCHJP@Penya@ DB 'Penya', 00H			; `string'
CONST	ENDS
;	COMDAT ??_C@_03HKMMIPC@Exp@
CONST	SEGMENT
??_C@_03HKMMIPC@Exp@ DB 'Exp', 00H			; `string'
CONST	ENDS
;	COMDAT ??_C@_04HCCHHEEF@rate@
CONST	SEGMENT
??_C@_04HCCHHEEF@rate@ DB 'rate', 00H			; `string'
CONST	ENDS
;	COMDAT ??_C@_06CJHGHFEP@szName@
CONST	SEGMENT
??_C@_06CJHGHFEP@szName@ DB 'szName', 00H		; `string'
CONST	ENDS
;	COMDAT ??_C@_07MGNKFCA@bResult@
CONST	SEGMENT
??_C@_07MGNKFCA@bResult@ DB 'bResult', 00H		; `string'
CONST	ENDS
;	COMDAT ??_C@_0CF@BDAEODNG@GAME_BACKSYSTEM_STR?5?8S1?8?0?8?$CF02d?8@
CONST	SEGMENT
??_C@_0CF@BDAEODNG@GAME_BACKSYSTEM_STR?5?8S1?8?0?8?$CF02d?8@ DB 'GAME_BAC'
	DB	'KSYSTEM_STR ''S1'',''%02d'',''%s''', 00H	; `string'
CONST	ENDS
;	COMDAT ??_C@_03GLPMCEFE@msg@
CONST	SEGMENT
??_C@_03GLPMCEFE@msg@ DB 'msg', 00H			; `string'
CONST	ENDS
;	COMDAT ??_C@_0CF@CAIDFNFN@GAME_BACKSYSTEM_STR?5?8S4?8?0?8?$CF02d?8@
CONST	SEGMENT
??_C@_0CF@CAIDFNFN@GAME_BACKSYSTEM_STR?5?8S4?8?0?8?$CF02d?8@ DB 'GAME_BAC'
	DB	'KSYSTEM_STR ''S4'',''%02d'',''%s''', 00H	; `string'
CONST	ENDS
;	COMDAT ??_C@_09OGDCHKLK@curr_time@
CONST	SEGMENT
??_C@_09OGDCHKLK@curr_time@ DB 'curr_time', 00H		; `string'
CONST	ENDS
;	COMDAT ??_C@_0BJ@POKGHGPN@GAME_BACKSYSTEM_STR?5?8S0?8@
CONST	SEGMENT
??_C@_0BJ@POKGHGPN@GAME_BACKSYSTEM_STR?5?8S0?8@ DB 'GAME_BACKSYSTEM_STR '''
	DB	'S0''', 00H					; `string'
CONST	ENDS
;	COMDAT ??_C@_0CB@MFHCCELP@?$CFs?0?5?$CFd?5BackSystem?5Connect?5Faile@
CONST	SEGMENT
??_C@_0CB@MFHCCELP@?$CFs?0?5?$CFd?5BackSystem?5Connect?5Faile@ DB '%s, %d'
	DB	' BackSystem Connect Failed', 00H		; `string'
CONST	ENDS
;	COMDAT ??_C@_0EA@IGAHIDM@C?3?2IAGOS?2server?2v18?2Source?2Sour@
CONST	SEGMENT
??_C@_0EA@IGAHIDM@C?3?2IAGOS?2server?2v18?2Source?2Sour@ DB 'C:\IAGOS\ser'
	DB	'ver\v18\Source\Source\_Database\DBBackEndSystem.cpp', 00H ; `string'
CONST	ENDS
;	COMDAT ??_C@_09GBAEEKDE@?$CFs?0?5?$CFd?7?$CFs@
CONST	SEGMENT
??_C@_09GBAEEKDE@?$CFs?0?5?$CFd?7?$CFs@ DB '%s, %d', 09H, '%s', 00H ; `string'
CONST	ENDS
;	COMDAT xdata$x
xdata$x	SEGMENT
__unwindtable$?BackSystem@CDbManager@@QAEXXZ DD 0ffffffffH
	DD	FLAT:__unwindfunclet$?BackSystem@CDbManager@@QAEXXZ$0
__ehfuncinfo$?BackSystem@CDbManager@@QAEXXZ DD 019930522H
	DD	01H
	DD	FLAT:__unwindtable$?BackSystem@CDbManager@@QAEXXZ
	DD	2 DUP(00H)
	DD	2 DUP(00H)
	DD	00H
	DD	01H
xdata$x	ENDS
; Function compile flags: /Ogtp
; File C:\IAGOS\server\v18\Source\Source\_Database\DBBackEndSystem.cpp
;	COMDAT ?GetGMChat@CDbManager@@AAEHPAVCQuery@@PADAAH@Z
_TEXT	SEGMENT
_szQuery$ = -1028					; size = 1024
__$ArrayPad$ = -4					; size = 4
_pQuery$ = 8						; size = 4
_lpstrTime$ = 12					; size = 4
_nChatCount$ = 16					; size = 4
?GetGMChat@CDbManager@@AAEHPAVCQuery@@PADAAH@Z PROC	; CDbManager::GetGMChat, COMDAT
; _this$ = ecx

; 141  : {

  00000	55		 push	 ebp
  00001	8b ec		 mov	 ebp, esp
  00003	81 ec 04 04 00
	00		 sub	 esp, 1028		; 00000404H
  00009	a1 00 00 00 00	 mov	 eax, DWORD PTR ___security_cookie
  0000e	33 c5		 xor	 eax, ebp
  00010	89 45 fc	 mov	 DWORD PTR __$ArrayPad$[ebp], eax
  00013	8b 45 0c	 mov	 eax, DWORD PTR _lpstrTime$[ebp]
  00016	53		 push	 ebx
  00017	56		 push	 esi
  00018	8b 75 10	 mov	 esi, DWORD PTR _nChatCount$[ebp]

; 142  : 	char szQuery[1024];
; 143  : 	BOOL bResult = FALSE;

  0001b	33 db		 xor	 ebx, ebx
  0001d	57		 push	 edi
  0001e	8b 7d 08	 mov	 edi, DWORD PTR _pQuery$[ebp]

; 144  : 	
; 145  : 	sprintf( szQuery, "GAME_BACKSYSTEM_STR 'S4','%02d','%s'", g_appInfo.dwSys, lpstrTime );

  00021	50		 push	 eax
  00022	ff 35 00 00 00
	00		 push	 DWORD PTR ?g_appInfo@@3UAppInfo@@A
  00028	8d 85 fc fb ff
	ff		 lea	 eax, DWORD PTR _szQuery$[ebp]
  0002e	68 00 00 00 00	 push	 OFFSET ??_C@_0CF@CAIDFNFN@GAME_BACKSYSTEM_STR?5?8S4?8?0?8?$CF02d?8@
  00033	50		 push	 eax
  00034	e8 00 00 00 00	 call	 _sprintf
  00039	83 c4 10	 add	 esp, 16			; 00000010H

; 146  : 	if( FALSE == pQuery->Exec( szQuery ) )

  0003c	8d 85 fc fb ff
	ff		 lea	 eax, DWORD PTR _szQuery$[ebp]
  00042	8b cf		 mov	 ecx, edi
  00044	50		 push	 eax
  00045	e8 00 00 00 00	 call	 ?Exec@CQuery@@QAEHPBD@Z	; CQuery::Exec
  0004a	85 c0		 test	 eax, eax
  0004c	75 33		 jne	 SHORT $LN8@GetGMChat

; 147  : 	{
; 148  : 		WriteLog( "%s, %d\t%s", __FILE__, __LINE__, szQuery );

  0004e	8d 85 fc fb ff
	ff		 lea	 eax, DWORD PTR _szQuery$[ebp]
  00054	50		 push	 eax
  00055	68 94 00 00 00	 push	 148			; 00000094H
  0005a	68 00 00 00 00	 push	 OFFSET ??_C@_0EA@IGAHIDM@C?3?2IAGOS?2server?2v18?2Source?2Sour@
  0005f	68 00 00 00 00	 push	 OFFSET ??_C@_09GBAEEKDE@?$CFs?0?5?$CFd?7?$CFs@
  00064	e8 00 00 00 00	 call	 ?WriteLog@@YAXPBDZZ	; WriteLog
  00069	83 c4 10	 add	 esp, 16			; 00000010H

; 149  : 		return bResult;

  0006c	33 c0		 xor	 eax, eax
  0006e	5f		 pop	 edi

; 164  : 	}		
; 165  : 	
; 166  : 	return bResult;
; 167  : }

  0006f	5e		 pop	 esi
  00070	5b		 pop	 ebx
  00071	8b 4d fc	 mov	 ecx, DWORD PTR __$ArrayPad$[ebp]
  00074	33 cd		 xor	 ecx, ebp
  00076	e8 00 00 00 00	 call	 @__security_check_cookie@4
  0007b	8b e5		 mov	 esp, ebp
  0007d	5d		 pop	 ebp
  0007e	c2 0c 00	 ret	 12			; 0000000cH
$LN8@GetGMChat:

; 150  : 	}	
; 151  : 	
; 152  : 	while( pQuery->Fetch() )

  00081	8b cf		 mov	 ecx, edi
  00083	e8 00 00 00 00	 call	 ?Fetch@CQuery@@QAEHXZ	; CQuery::Fetch
  00088	85 c0		 test	 eax, eax
  0008a	74 32		 je	 SHORT $LN12@GetGMChat
  0008c	0f 1f 40 00	 npad	 4
$LL2@GetGMChat:

; 153  : 	{
; 154  : 		if( nChatCount < 10 )

  00090	8b 06		 mov	 eax, DWORD PTR [esi]
  00092	83 f8 0a	 cmp	 eax, 10			; 0000000aH
  00095	7d 27		 jge	 SHORT $LN12@GetGMChat

; 155  : 		{
; 156  : 			pQuery->GetStr( "msg", prj.m_chGMChat[nChatCount] );

  00097	c1 e0 08	 shl	 eax, 8
  0009a	8b cf		 mov	 ecx, edi
  0009c	05 52 74 04 00	 add	 eax, OFFSET ?prj@@3VCProject@@A+291922
  000a1	50		 push	 eax
  000a2	68 00 00 00 00	 push	 OFFSET ??_C@_03GLPMCEFE@msg@
  000a7	e8 00 00 00 00	 call	 ?GetStr@CQuery@@QAEXPAD0@Z ; CQuery::GetStr

; 157  : 			++nChatCount;

  000ac	ff 06		 inc	 DWORD PTR [esi]
  000ae	8b cf		 mov	 ecx, edi

; 158  : 		}
; 159  : 		else
; 160  : 		{
; 161  : 			break;
; 162  : 		}
; 163  : 		bResult = TRUE;

  000b0	bb 01 00 00 00	 mov	 ebx, 1
  000b5	e8 00 00 00 00	 call	 ?Fetch@CQuery@@QAEHXZ	; CQuery::Fetch
  000ba	85 c0		 test	 eax, eax
  000bc	75 d2		 jne	 SHORT $LL2@GetGMChat
$LN12@GetGMChat:

; 164  : 	}		
; 165  : 	
; 166  : 	return bResult;
; 167  : }

  000be	8b 4d fc	 mov	 ecx, DWORD PTR __$ArrayPad$[ebp]
  000c1	8b c3		 mov	 eax, ebx
  000c3	5f		 pop	 edi
  000c4	5e		 pop	 esi
  000c5	33 cd		 xor	 ecx, ebp
  000c7	5b		 pop	 ebx
  000c8	e8 00 00 00 00	 call	 @__security_check_cookie@4
  000cd	8b e5		 mov	 esp, ebp
  000cf	5d		 pop	 ebp
  000d0	c2 0c 00	 ret	 12			; 0000000cH
?GetGMChat@CDbManager@@AAEHPAVCQuery@@PADAAH@Z ENDP	; CDbManager::GetGMChat
_TEXT	ENDS
; Function compile flags: /Ogtp
; File C:\IAGOS\server\v18\Source\Source\_Database\DBBackEndSystem.cpp
;	COMDAT ?RemoveMonsterProp@CDbManager@@AAEHU_MONSTER_PROP@@@Z
_TEXT	SEGMENT
_BufMonsterProp$ = 8					; size = 56
?RemoveMonsterProp@CDbManager@@AAEHU_MONSTER_PROP@@@Z PROC ; CDbManager::RemoveMonsterProp, COMDAT
; _this$ = ecx

; 472  : {

  00000	55		 push	 ebp
  00001	8b ec		 mov	 ebp, esp
  00003	53		 push	 ebx

; 475  : 	for( DWORD i = 0 ; i < prj.m_nMonsterPropSize ; ++i )

  00004	8b 1d 30 74 04
	00		 mov	 ebx, DWORD PTR ?prj@@3VCProject@@A+291888
  0000a	56		 push	 esi
  0000b	33 f6		 xor	 esi, esi
  0000d	85 db		 test	 ebx, ebx
  0000f	0f 84 be 00 00
	00		 je	 $LN29@RemoveMons

; 473  : 	BOOL bFind = FALSE;
; 474  : 	int nRemoveBuf = 0;

  00015	57		 push	 edi
  00016	bf 28 34 02 00	 mov	 edi, OFFSET ?prj@@3VCProject@@A+144424
  0001b	0f 1f 44 00 00	 npad	 5
$LL4@RemoveMons:

; 476  : 	{
; 477  : 		if( strcmp( prj.m_aMonsterProp[i].szMonsterName, BufMonsterProp.szMonsterName ) == 0 )

  00020	8d 45 08	 lea	 eax, DWORD PTR _BufMonsterProp$[ebp]
  00023	8b cf		 mov	 ecx, edi
$LL25@RemoveMons:
  00025	8a 11		 mov	 dl, BYTE PTR [ecx]
  00027	3a 10		 cmp	 dl, BYTE PTR [eax]
  00029	75 1a		 jne	 SHORT $LN26@RemoveMons
  0002b	84 d2		 test	 dl, dl
  0002d	74 12		 je	 SHORT $LN27@RemoveMons
  0002f	8a 51 01	 mov	 dl, BYTE PTR [ecx+1]
  00032	3a 50 01	 cmp	 dl, BYTE PTR [eax+1]
  00035	75 0e		 jne	 SHORT $LN26@RemoveMons
  00037	83 c1 02	 add	 ecx, 2
  0003a	83 c0 02	 add	 eax, 2
  0003d	84 d2		 test	 dl, dl
  0003f	75 e4		 jne	 SHORT $LL25@RemoveMons
$LN27@RemoveMons:
  00041	33 c0		 xor	 eax, eax
  00043	eb 05		 jmp	 SHORT $LN28@RemoveMons
$LN26@RemoveMons:
  00045	1b c0		 sbb	 eax, eax
  00047	83 c8 01	 or	 eax, 1
$LN28@RemoveMons:
  0004a	85 c0		 test	 eax, eax
  0004c	74 11		 je	 SHORT $LN15@RemoveMons

; 475  : 	for( DWORD i = 0 ; i < prj.m_nMonsterPropSize ; ++i )

  0004e	46		 inc	 esi
  0004f	83 c7 38	 add	 edi, 56			; 00000038H
  00052	3b f3		 cmp	 esi, ebx
  00054	72 ca		 jb	 SHORT $LL4@RemoveMons

; 494  : 	}
; 495  : 	return FALSE;
; 496  : }

  00056	5f		 pop	 edi
  00057	5e		 pop	 esi
  00058	33 c0		 xor	 eax, eax
  0005a	5b		 pop	 ebx
  0005b	5d		 pop	 ebp
  0005c	c2 38 00	 ret	 56			; 00000038H
$LN15@RemoveMons:

; 478  : 		{
; 479  : 			nRemoveBuf = i;
; 480  : 			bFind = TRUE;
; 481  : 			break;
; 482  : 		}
; 483  : 	}
; 484  : 	
; 485  : 	if( bFind )
; 486  : 	{
; 487  : 		for( DWORD i = nRemoveBuf ; i < prj.m_nMonsterPropSize - 1 ; ++i )

  0005f	8d 43 ff	 lea	 eax, DWORD PTR [ebx-1]
  00062	3b f0		 cmp	 esi, eax
  00064	73 40		 jae	 SHORT $LN6@RemoveMons
  00066	8d 04 f5 00 00
	00 00		 lea	 eax, DWORD PTR [esi*8]
  0006d	2b c6		 sub	 eax, esi
  0006f	8d 0c c5 28 34
	02 00		 lea	 ecx, DWORD PTR ?prj@@3VCProject@@A[eax*8+144424]
$LL7@RemoveMons:

; 488  : 		{
; 489  : 			prj.m_aMonsterProp[i] = prj.m_aMonsterProp[i + 1];

  00076	0f 10 41 38	 movups	 xmm0, XMMWORD PTR [ecx+56]
  0007a	46		 inc	 esi
  0007b	8d 49 38	 lea	 ecx, DWORD PTR [ecx+56]
  0007e	0f 11 41 c8	 movups	 XMMWORD PTR [ecx-56], xmm0
  00082	0f 10 41 10	 movups	 xmm0, XMMWORD PTR [ecx+16]
  00086	0f 11 41 d8	 movups	 XMMWORD PTR [ecx-40], xmm0
  0008a	0f 10 41 20	 movups	 xmm0, XMMWORD PTR [ecx+32]
  0008e	0f 11 41 e8	 movups	 XMMWORD PTR [ecx-24], xmm0
  00092	f3 0f 7e 41 30	 movq	 xmm0, QWORD PTR [ecx+48]
  00097	66 0f d6 41 f8	 movq	 QWORD PTR [ecx-8], xmm0
  0009c	a1 30 74 04 00	 mov	 eax, DWORD PTR ?prj@@3VCProject@@A+291888
  000a1	48		 dec	 eax
  000a2	3b f0		 cmp	 esi, eax
  000a4	72 d0		 jb	 SHORT $LL7@RemoveMons
$LN6@RemoveMons:

; 490  : 		}
; 491  : 		strcpy( prj.m_aRemoveProp[prj.m_nRemoveMonsterPropSize], BufMonsterProp.szMonsterName );

  000a6	8b 0d 2c 74 04
	00		 mov	 ecx, DWORD PTR ?prj@@3VCProject@@A+291884
  000ac	8d 55 08	 lea	 edx, DWORD PTR _BufMonsterProp$[ebp]
  000af	c1 e1 05	 shl	 ecx, 5
  000b2	81 c1 28 f4 03
	00		 add	 ecx, OFFSET ?prj@@3VCProject@@A+259112
$LL11@RemoveMons:
  000b8	8a 02		 mov	 al, BYTE PTR [edx]
  000ba	8d 52 01	 lea	 edx, DWORD PTR [edx+1]
  000bd	88 01		 mov	 BYTE PTR [ecx], al
  000bf	8d 49 01	 lea	 ecx, DWORD PTR [ecx+1]
  000c2	84 c0		 test	 al, al
  000c4	75 f2		 jne	 SHORT $LL11@RemoveMons

; 492  : 		++prj.m_nRemoveMonsterPropSize;

  000c6	ff 05 2c 74 04
	00		 inc	 DWORD PTR ?prj@@3VCProject@@A+291884

; 493  : 		--prj.m_nMonsterPropSize;

  000cc	ff 0d 30 74 04
	00		 dec	 DWORD PTR ?prj@@3VCProject@@A+291888
  000d2	5f		 pop	 edi
$LN29@RemoveMons:

; 494  : 	}
; 495  : 	return FALSE;
; 496  : }

  000d3	5e		 pop	 esi
  000d4	33 c0		 xor	 eax, eax
  000d6	5b		 pop	 ebx
  000d7	5d		 pop	 ebp
  000d8	c2 38 00	 ret	 56			; 00000038H
?RemoveMonsterProp@CDbManager@@AAEHU_MONSTER_PROP@@@Z ENDP ; CDbManager::RemoveMonsterProp
_TEXT	ENDS
; Function compile flags: /Ogtp
; File C:\IAGOS\server\v18\Source\Source\_Database\DBBackEndSystem.cpp
;	COMDAT ?AddMonsterProp@CDbManager@@AAEHU_MONSTER_PROP@@@Z
_TEXT	SEGMENT
_BufMonsterProp$ = 8					; size = 56
?AddMonsterProp@CDbManager@@AAEHU_MONSTER_PROP@@@Z PROC	; CDbManager::AddMonsterProp, COMDAT
; _this$ = ecx

; 448  : {

  00000	55		 push	 ebp
  00001	8b ec		 mov	 ebp, esp

; 449  : 	if( prj.m_nMonsterPropSize < MAX_MONSTER_PROP )

  00003	8b 0d 30 74 04
	00		 mov	 ecx, DWORD PTR ?prj@@3VCProject@@A+291888
  00009	81 f9 00 04 00
	00		 cmp	 ecx, 1024		; 00000400H
  0000f	0f 83 24 01 00
	00		 jae	 $LN2@AddMonster

; 450  : 	{
; 451  : 		strcpy( prj.m_aMonsterProp[ prj.m_nMonsterPropSize ].szMonsterName, BufMonsterProp.szMonsterName );

  00015	8d 04 cd 00 00
	00 00		 lea	 eax, DWORD PTR [ecx*8]
  0001c	2b c1		 sub	 eax, ecx
  0001e	8d 55 08	 lea	 edx, DWORD PTR _BufMonsterProp$[ebp]
  00021	8d 04 c5 28 34
	02 00		 lea	 eax, DWORD PTR ?prj@@3VCProject@@A[eax*8+144424]
$LL5@AddMonster:
  00028	8a 0a		 mov	 cl, BYTE PTR [edx]
  0002a	8d 52 01	 lea	 edx, DWORD PTR [edx+1]
  0002d	88 08		 mov	 BYTE PTR [eax], cl
  0002f	8d 40 01	 lea	 eax, DWORD PTR [eax+1]
  00032	84 c9		 test	 cl, cl
  00034	75 f2		 jne	 SHORT $LL5@AddMonster

; 452  : 		prj.m_aMonsterProp[ prj.m_nMonsterPropSize ].nHitPoint = BufMonsterProp.nHitPoint;

  00036	a1 30 74 04 00	 mov	 eax, DWORD PTR ?prj@@3VCProject@@A+291888
  0003b	8d 0c c5 00 00
	00 00		 lea	 ecx, DWORD PTR [eax*8]
  00042	2b c8		 sub	 ecx, eax
  00044	8b 45 28	 mov	 eax, DWORD PTR _BufMonsterProp$[ebp+32]
  00047	89 04 cd 48 34
	02 00		 mov	 DWORD PTR ?prj@@3VCProject@@A[ecx*8+144456], eax

; 453  : 		prj.m_aMonsterProp[ prj.m_nMonsterPropSize ].nAttackPower = BufMonsterProp.nAttackPower;

  0004e	a1 30 74 04 00	 mov	 eax, DWORD PTR ?prj@@3VCProject@@A+291888
  00053	8d 0c c5 00 00
	00 00		 lea	 ecx, DWORD PTR [eax*8]
  0005a	2b c8		 sub	 ecx, eax
  0005c	8b 45 2c	 mov	 eax, DWORD PTR _BufMonsterProp$[ebp+36]
  0005f	89 04 cd 4c 34
	02 00		 mov	 DWORD PTR ?prj@@3VCProject@@A[ecx*8+144460], eax

; 454  : 		prj.m_aMonsterProp[ prj.m_nMonsterPropSize ].nDefence = BufMonsterProp.nDefence;

  00066	a1 30 74 04 00	 mov	 eax, DWORD PTR ?prj@@3VCProject@@A+291888
  0006b	8d 0c c5 00 00
	00 00		 lea	 ecx, DWORD PTR [eax*8]
  00072	2b c8		 sub	 ecx, eax
  00074	8b 45 30	 mov	 eax, DWORD PTR _BufMonsterProp$[ebp+40]
  00077	89 04 cd 50 34
	02 00		 mov	 DWORD PTR ?prj@@3VCProject@@A[ecx*8+144464], eax

; 455  : 		prj.m_aMonsterProp[ prj.m_nMonsterPropSize ].nExp = BufMonsterProp.nExp;

  0007e	a1 30 74 04 00	 mov	 eax, DWORD PTR ?prj@@3VCProject@@A+291888
  00083	8d 0c c5 00 00
	00 00		 lea	 ecx, DWORD PTR [eax*8]
  0008a	2b c8		 sub	 ecx, eax
  0008c	8b 45 34	 mov	 eax, DWORD PTR _BufMonsterProp$[ebp+44]
  0008f	89 04 cd 54 34
	02 00		 mov	 DWORD PTR ?prj@@3VCProject@@A[ecx*8+144468], eax

; 456  : 		prj.m_aMonsterProp[ prj.m_nMonsterPropSize ].nItemDrop = BufMonsterProp.nItemDrop;

  00096	a1 30 74 04 00	 mov	 eax, DWORD PTR ?prj@@3VCProject@@A+291888
  0009b	8d 0c c5 00 00
	00 00		 lea	 ecx, DWORD PTR [eax*8]
  000a2	2b c8		 sub	 ecx, eax
  000a4	8b 45 38	 mov	 eax, DWORD PTR _BufMonsterProp$[ebp+48]
  000a7	89 04 cd 58 34
	02 00		 mov	 DWORD PTR ?prj@@3VCProject@@A[ecx*8+144472], eax

; 457  : 		prj.m_aMonsterProp[ prj.m_nMonsterPropSize ].nPenya = BufMonsterProp.nPenya;

  000ae	a1 30 74 04 00	 mov	 eax, DWORD PTR ?prj@@3VCProject@@A+291888
  000b3	8d 0c c5 00 00
	00 00		 lea	 ecx, DWORD PTR [eax*8]
  000ba	2b c8		 sub	 ecx, eax
  000bc	8b 45 3c	 mov	 eax, DWORD PTR _BufMonsterProp$[ebp+52]
  000bf	89 04 cd 5c 34
	02 00		 mov	 DWORD PTR ?prj@@3VCProject@@A[ecx*8+144476], eax

; 458  : 		prj.m_aAddProp[ prj.m_nAddMonsterPropSize ] = prj.m_aMonsterProp[ prj.m_nMonsterPropSize ];

  000c6	a1 30 74 04 00	 mov	 eax, DWORD PTR ?prj@@3VCProject@@A+291888
  000cb	8d 14 c5 00 00
	00 00		 lea	 edx, DWORD PTR [eax*8]
  000d2	2b d0		 sub	 edx, eax
  000d4	a1 28 74 04 00	 mov	 eax, DWORD PTR ?prj@@3VCProject@@A+291880
  000d9	0f 10 04 d5 28
	34 02 00	 movups	 xmm0, XMMWORD PTR ?prj@@3VCProject@@A[edx*8+144424]
  000e1	8d 0c c5 00 00
	00 00		 lea	 ecx, DWORD PTR [eax*8]
  000e8	2b c8		 sub	 ecx, eax

; 459  : 		
; 460  : 		++prj.m_nMonsterPropSize;
; 461  : 		++prj.m_nAddMonsterPropSize;
; 462  : 		TRACE( "Add MONSTER_PROP : MAX(%d), MonName(%s)\n", prj.m_nMonsterPropSize,  prj.m_aMonsterProp[ prj.m_nMonsterPropSize - 1].szMonsterName);
; 463  : 		return TRUE;

  000ea	b8 01 00 00 00	 mov	 eax, 1
  000ef	0f 11 04 cd 28
	14 03 00	 movups	 XMMWORD PTR ?prj@@3VCProject@@A[ecx*8+201768], xmm0
  000f7	0f 10 04 d5 38
	34 02 00	 movups	 xmm0, XMMWORD PTR ?prj@@3VCProject@@A[edx*8+144440]
  000ff	0f 11 04 cd 38
	14 03 00	 movups	 XMMWORD PTR ?prj@@3VCProject@@A[ecx*8+201784], xmm0
  00107	0f 10 04 d5 48
	34 02 00	 movups	 xmm0, XMMWORD PTR ?prj@@3VCProject@@A[edx*8+144456]
  0010f	0f 11 04 cd 48
	14 03 00	 movups	 XMMWORD PTR ?prj@@3VCProject@@A[ecx*8+201800], xmm0
  00117	f3 0f 7e 04 d5
	58 34 02 00	 movq	 xmm0, QWORD PTR ?prj@@3VCProject@@A[edx*8+144472]
  00120	66 0f d6 04 cd
	58 14 03 00	 movq	 QWORD PTR ?prj@@3VCProject@@A[ecx*8+201816], xmm0
  00129	ff 05 30 74 04
	00		 inc	 DWORD PTR ?prj@@3VCProject@@A+291888
  0012f	ff 05 28 74 04
	00		 inc	 DWORD PTR ?prj@@3VCProject@@A+291880

; 469  : }

  00135	5d		 pop	 ebp
  00136	c2 38 00	 ret	 56			; 00000038H
$LN2@AddMonster:

; 464  : 	}
; 465  : 	else
; 466  : 		WriteLog( "AddMonsterProp Overflow Error" );

  00139	68 00 00 00 00	 push	 OFFSET ??_C@_0BO@JOPEDMLI@AddMonsterProp?5Overflow?5Error@
  0013e	e8 00 00 00 00	 call	 ?WriteLog@@YAXPBDZZ	; WriteLog
  00143	83 c4 04	 add	 esp, 4

; 467  : 	
; 468  : 	return FALSE;

  00146	33 c0		 xor	 eax, eax

; 469  : }

  00148	5d		 pop	 ebp
  00149	c2 38 00	 ret	 56			; 00000038H
?AddMonsterProp@CDbManager@@AAEHU_MONSTER_PROP@@@Z ENDP	; CDbManager::AddMonsterProp
_TEXT	ENDS
; Function compile flags: /Ogtp
; File C:\IAGOS\server\v18\Source\Source\_Database\DBBackEndSystem.cpp
;	COMDAT ?RemoveMonsterRespawn@CDbManager@@AAEHHAAHQAH@Z
_TEXT	SEGMENT
_nIndex$ = 8						; size = 4
_nMaxRemove$ = 12					; size = 4
_aRemoveRespawn$ = 16					; size = 4
?RemoveMonsterRespawn@CDbManager@@AAEHHAAHQAH@Z PROC	; CDbManager::RemoveMonsterRespawn, COMDAT
; _this$ = ecx

; 421  : {

  00000	55		 push	 ebp
  00001	8b ec		 mov	 ebp, esp

; 424  : 	for( DWORD i = 0 ; i < prj.m_nMonsterRespawnSize ; ++i )

  00003	8b 15 24 34 02
	00		 mov	 edx, DWORD PTR ?prj@@3VCProject@@A+144420
  00009	33 c0		 xor	 eax, eax
  0000b	85 d2		 test	 edx, edx
  0000d	74 74		 je	 SHORT $LN21@RemoveMons

; 422  : 	BOOL bFind = FALSE;
; 423  : 	int nRemoveBuf = 0;

  0000f	56		 push	 esi
  00010	8b 75 08	 mov	 esi, DWORD PTR _nIndex$[ebp]
  00013	b9 40 34 00 00	 mov	 ecx, OFFSET ?prj@@3VCProject@@A+13376
$LL4@RemoveMons:

; 425  : 	{
; 426  : 		if( prj.m_aMonsterRespawn[i].nRespawnIndex == nIndex )

  00018	39 31		 cmp	 DWORD PTR [ecx], esi
  0001a	74 0f		 je	 SHORT $LN13@RemoveMons

; 424  : 	for( DWORD i = 0 ; i < prj.m_nMonsterRespawnSize ; ++i )

  0001c	40		 inc	 eax
  0001d	83 c1 40	 add	 ecx, 64			; 00000040H
  00020	3b c2		 cmp	 eax, edx
  00022	72 f4		 jb	 SHORT $LL4@RemoveMons

; 443  : 	}
; 444  : 	return FALSE;
; 445  : }

  00024	5e		 pop	 esi
  00025	33 c0		 xor	 eax, eax
  00027	5d		 pop	 ebp
  00028	c2 0c 00	 ret	 12			; 0000000cH
$LN13@RemoveMons:

; 427  : 		{
; 428  : 			nRemoveBuf = i;
; 429  : 			bFind = TRUE;
; 430  : 			break;
; 431  : 		}
; 432  : 	}
; 433  : 	
; 434  : 	if( bFind )
; 435  : 	{
; 436  : 		for( DWORD i = nRemoveBuf ; i < prj.m_nMonsterRespawnSize - 1 ; ++i )

  0002b	8d 4a ff	 lea	 ecx, DWORD PTR [edx-1]
  0002e	3b c1		 cmp	 eax, ecx
  00030	73 3d		 jae	 SHORT $LN6@RemoveMons
  00032	8b d0		 mov	 edx, eax
  00034	c1 e2 06	 shl	 edx, 6
  00037	81 c2 20 34 00
	00		 add	 edx, OFFSET ?prj@@3VCProject@@A+13344
  0003d	0f 1f 00	 npad	 3
$LL7@RemoveMons:

; 437  : 		{
; 438  : 			prj.m_aMonsterRespawn[i] = prj.m_aMonsterRespawn[i + 1];

  00040	0f 10 42 40	 movups	 xmm0, XMMWORD PTR [edx+64]
  00044	40		 inc	 eax
  00045	8d 52 40	 lea	 edx, DWORD PTR [edx+64]
  00048	0f 11 42 c0	 movups	 XMMWORD PTR [edx-64], xmm0
  0004c	0f 10 42 10	 movups	 xmm0, XMMWORD PTR [edx+16]
  00050	0f 11 42 d0	 movups	 XMMWORD PTR [edx-48], xmm0
  00054	0f 10 42 20	 movups	 xmm0, XMMWORD PTR [edx+32]
  00058	0f 11 42 e0	 movups	 XMMWORD PTR [edx-32], xmm0
  0005c	0f 10 42 30	 movups	 xmm0, XMMWORD PTR [edx+48]
  00060	0f 11 42 f0	 movups	 XMMWORD PTR [edx-16], xmm0
  00064	8b 0d 24 34 02
	00		 mov	 ecx, DWORD PTR ?prj@@3VCProject@@A+144420
  0006a	49		 dec	 ecx
  0006b	3b c1		 cmp	 eax, ecx
  0006d	72 d1		 jb	 SHORT $LL7@RemoveMons
$LN6@RemoveMons:

; 439  : 		}
; 440  : 		aRemoveRespawn[nMaxRemove] = nIndex;

  0006f	8b 55 0c	 mov	 edx, DWORD PTR _nMaxRemove$[ebp]
  00072	8b 45 10	 mov	 eax, DWORD PTR _aRemoveRespawn$[ebp]
  00075	8b 0a		 mov	 ecx, DWORD PTR [edx]
  00077	89 34 88	 mov	 DWORD PTR [eax+ecx*4], esi

; 441  : 		++nMaxRemove;

  0007a	ff 02		 inc	 DWORD PTR [edx]

; 442  : 		--prj.m_nMonsterRespawnSize;

  0007c	ff 0d 24 34 02
	00		 dec	 DWORD PTR ?prj@@3VCProject@@A+144420
  00082	5e		 pop	 esi
$LN21@RemoveMons:

; 443  : 	}
; 444  : 	return FALSE;
; 445  : }

  00083	33 c0		 xor	 eax, eax
  00085	5d		 pop	 ebp
  00086	c2 0c 00	 ret	 12			; 0000000cH
?RemoveMonsterRespawn@CDbManager@@AAEHHAAHQAH@Z ENDP	; CDbManager::RemoveMonsterRespawn
_TEXT	ENDS
; Function compile flags: /Ogtp
; File C:\IAGOS\server\v18\Source\Source\_Database\DBBackEndSystem.cpp
;	COMDAT ?AddMonsterRespawn@CDbManager@@AAEHU_MONSTER_RESPAWN@@@Z
_TEXT	SEGMENT
_BufMonsterRespawn$ = 8					; size = 64
?AddMonsterRespawn@CDbManager@@AAEHU_MONSTER_RESPAWN@@@Z PROC ; CDbManager::AddMonsterRespawn, COMDAT
; _this$ = ecx

; 397  : {

  00000	55		 push	 ebp
  00001	8b ec		 mov	 ebp, esp

; 398  : 	if( prj.m_nMonsterPropSize < MAX_RESPAWN )

  00003	81 3d 30 74 04
	00 00 04 00 00	 cmp	 DWORD PTR ?prj@@3VCProject@@A+291888, 1024 ; 00000400H
  0000d	0f 83 e5 00 00
	00		 jae	 $LN2@AddMonster

; 399  : 	{
; 400  : 		strcpy( prj.m_aMonsterRespawn[ prj.m_nMonsterRespawnSize ].szMonsterName, BufMonsterRespawn.szMonsterName );

  00013	a1 24 34 02 00	 mov	 eax, DWORD PTR ?prj@@3VCProject@@A+144420
  00018	8d 55 08	 lea	 edx, DWORD PTR _BufMonsterRespawn$[ebp]
  0001b	c1 e0 06	 shl	 eax, 6
  0001e	05 20 34 00 00	 add	 eax, OFFSET ?prj@@3VCProject@@A+13344
$LL5@AddMonster:
  00023	8a 0a		 mov	 cl, BYTE PTR [edx]
  00025	8d 52 01	 lea	 edx, DWORD PTR [edx+1]
  00028	88 08		 mov	 BYTE PTR [eax], cl
  0002a	8d 40 01	 lea	 eax, DWORD PTR [eax+1]
  0002d	84 c9		 test	 cl, cl
  0002f	75 f2		 jne	 SHORT $LL5@AddMonster

; 401  : 		prj.m_aMonsterRespawn[ prj.m_nMonsterRespawnSize ].vPos = BufMonsterRespawn.vPos;

  00031	8b 0d 24 34 02
	00		 mov	 ecx, DWORD PTR ?prj@@3VCProject@@A+144420
  00037	f3 0f 7e 45 2c	 movq	 xmm0, QWORD PTR _BufMonsterRespawn$[ebp+36]
  0003c	8b 45 34	 mov	 eax, DWORD PTR _BufMonsterRespawn$[ebp+44]
  0003f	c1 e1 06	 shl	 ecx, 6
  00042	81 c1 44 34 00
	00		 add	 ecx, OFFSET ?prj@@3VCProject@@A+13380
  00048	66 0f d6 01	 movq	 QWORD PTR [ecx], xmm0
  0004c	89 41 08	 mov	 DWORD PTR [ecx+8], eax

; 402  : 		prj.m_aMonsterRespawn[ prj.m_nMonsterRespawnSize ].nQuantity = BufMonsterRespawn.nQuantity;

  0004f	8b 0d 24 34 02
	00		 mov	 ecx, DWORD PTR ?prj@@3VCProject@@A+144420
  00055	8b 45 38	 mov	 eax, DWORD PTR _BufMonsterRespawn$[ebp+48]
  00058	c1 e1 06	 shl	 ecx, 6
  0005b	89 81 50 34 00
	00		 mov	 DWORD PTR ?prj@@3VCProject@@A[ecx+13392], eax

; 403  : 		prj.m_aMonsterRespawn[ prj.m_nMonsterRespawnSize ].nAggressive = BufMonsterRespawn.nAggressive;

  00061	8b 0d 24 34 02
	00		 mov	 ecx, DWORD PTR ?prj@@3VCProject@@A+144420
  00067	8b 45 3c	 mov	 eax, DWORD PTR _BufMonsterRespawn$[ebp+52]
  0006a	c1 e1 06	 shl	 ecx, 6
  0006d	89 81 54 34 00
	00		 mov	 DWORD PTR ?prj@@3VCProject@@A[ecx+13396], eax

; 404  : 		prj.m_aMonsterRespawn[ prj.m_nMonsterRespawnSize ].nRange = BufMonsterRespawn.nRange;

  00073	8b 0d 24 34 02
	00		 mov	 ecx, DWORD PTR ?prj@@3VCProject@@A+144420
  00079	8b 45 40	 mov	 eax, DWORD PTR _BufMonsterRespawn$[ebp+56]
  0007c	c1 e1 06	 shl	 ecx, 6
  0007f	89 81 58 34 00
	00		 mov	 DWORD PTR ?prj@@3VCProject@@A[ecx+13400], eax

; 405  : 		prj.m_aMonsterRespawn[ prj.m_nMonsterRespawnSize ].nTime = BufMonsterRespawn.nTime;

  00085	8b 0d 24 34 02
	00		 mov	 ecx, DWORD PTR ?prj@@3VCProject@@A+144420
  0008b	8b 45 44	 mov	 eax, DWORD PTR _BufMonsterRespawn$[ebp+60]
  0008e	c1 e1 06	 shl	 ecx, 6
  00091	89 81 5c 34 00
	00		 mov	 DWORD PTR ?prj@@3VCProject@@A[ecx+13404], eax

; 406  : 		prj.m_aMonsterRespawn[ prj.m_nMonsterRespawnSize ].nRespawnIndex = BufMonsterRespawn.nRespawnIndex;

  00097	8b 0d 24 34 02
	00		 mov	 ecx, DWORD PTR ?prj@@3VCProject@@A+144420
  0009d	8b 45 28	 mov	 eax, DWORD PTR _BufMonsterRespawn$[ebp+32]
  000a0	c1 e1 06	 shl	 ecx, 6
  000a3	89 81 40 34 00
	00		 mov	 DWORD PTR ?prj@@3VCProject@@A[ecx+13376], eax

; 407  : 		prj.n_aAddRespawn[ prj.m_nAddMonsterRespawnSize ] = prj.m_aMonsterRespawn[ prj.m_nMonsterRespawnSize ];

  000a9	8b 0d 24 34 02
	00		 mov	 ecx, DWORD PTR ?prj@@3VCProject@@A+144420
  000af	a1 20 34 02 00	 mov	 eax, DWORD PTR ?prj@@3VCProject@@A+144416
  000b4	c1 e1 06	 shl	 ecx, 6
  000b7	81 c1 20 34 00
	00		 add	 ecx, OFFSET ?prj@@3VCProject@@A+13344
  000bd	c1 e0 06	 shl	 eax, 6
  000c0	05 20 34 01 00	 add	 eax, OFFSET ?prj@@3VCProject@@A+78880
  000c5	0f 10 01	 movups	 xmm0, XMMWORD PTR [ecx]
  000c8	0f 11 00	 movups	 XMMWORD PTR [eax], xmm0
  000cb	0f 10 41 10	 movups	 xmm0, XMMWORD PTR [ecx+16]
  000cf	0f 11 40 10	 movups	 XMMWORD PTR [eax+16], xmm0
  000d3	0f 10 41 20	 movups	 xmm0, XMMWORD PTR [ecx+32]
  000d7	0f 11 40 20	 movups	 XMMWORD PTR [eax+32], xmm0
  000db	0f 10 41 30	 movups	 xmm0, XMMWORD PTR [ecx+48]
  000df	0f 11 40 30	 movups	 XMMWORD PTR [eax+48], xmm0

; 408  : 
; 409  : 		++prj.m_nMonsterRespawnSize;

  000e3	ff 05 24 34 02
	00		 inc	 DWORD PTR ?prj@@3VCProject@@A+144420

; 410  : 		++prj.m_nAddMonsterRespawnSize;
; 411  : 		TRACE( "Add MONSTER_RESPAWN : MAX(%d), MonName(%s)\n", prj.m_nMonsterRespawnSize,  prj.m_aMonsterRespawn[ prj.m_nMonsterRespawnSize - 1].szMonsterName);
; 412  : 		return TRUE;

  000e9	b8 01 00 00 00	 mov	 eax, 1
  000ee	ff 05 20 34 02
	00		 inc	 DWORD PTR ?prj@@3VCProject@@A+144416

; 418  : }

  000f4	5d		 pop	 ebp
  000f5	c2 40 00	 ret	 64			; 00000040H
$LN2@AddMonster:

; 413  : 	}
; 414  : 	else
; 415  : 		WriteLog( "AddMonsterRespawn Overflow Error" );

  000f8	68 00 00 00 00	 push	 OFFSET ??_C@_0CB@HODAFBNJ@AddMonsterRespawn?5Overflow?5Erro@
  000fd	e8 00 00 00 00	 call	 ?WriteLog@@YAXPBDZZ	; WriteLog
  00102	83 c4 04	 add	 esp, 4

; 416  : 
; 417  : 	return FALSE;

  00105	33 c0		 xor	 eax, eax

; 418  : }

  00107	5d		 pop	 ebp
  00108	c2 40 00	 ret	 64			; 00000040H
?AddMonsterRespawn@CDbManager@@AAEHU_MONSTER_RESPAWN@@@Z ENDP ; CDbManager::AddMonsterRespawn
_TEXT	ENDS
; Function compile flags: /Ogtp
; File C:\IAGOS\server\v18\Source\Source\_Database\DBBackEndSystem.cpp
; File C:\IAGOS\server\v18\Source\Source\DatabaseServer\Project.h
; File C:\IAGOS\server\v18\Source\Source\_Database\DBBackEndSystem.cpp
; File C:\IAGOS\server\v18\Source\Source\DatabaseServer\Project.h
; File C:\IAGOS\server\v18\Source\Source\_Database\DBBackEndSystem.cpp
;	COMDAT ?GetMonsterPropSetting@CDbManager@@AAEXPAVCQuery@@PAD@Z
_TEXT	SEGMENT
_this$1$ = -1088					; size = 4
_MonsterProp$ = -1084					; size = 56
_szQuery$ = -1028					; size = 1024
__$ArrayPad$ = -4					; size = 4
_pQuery$ = 8						; size = 4
_lpstrTime$ = 12					; size = 4
?GetMonsterPropSetting@CDbManager@@AAEXPAVCQuery@@PAD@Z PROC ; CDbManager::GetMonsterPropSetting, COMDAT
; _this$ = ecx

; 353  : {

  00000	55		 push	 ebp
  00001	8b ec		 mov	 ebp, esp
  00003	81 ec 40 04 00
	00		 sub	 esp, 1088		; 00000440H
  00009	a1 00 00 00 00	 mov	 eax, DWORD PTR ___security_cookie
  0000e	33 c5		 xor	 eax, ebp
  00010	89 45 fc	 mov	 DWORD PTR __$ArrayPad$[ebp], eax
  00013	53		 push	 ebx
  00014	8b 5d 0c	 mov	 ebx, DWORD PTR _lpstrTime$[ebp]

; 354  : 	char szQuery[1024];
; 355  : 	
; 356  : 	sprintf( szQuery, "GAME_BACKSYSTEM_STR 'S3','%02d','%s'", g_appInfo.dwSys, lpstrTime );

  00017	8d 85 fc fb ff
	ff		 lea	 eax, DWORD PTR _szQuery$[ebp]
  0001d	56		 push	 esi
  0001e	8b 75 08	 mov	 esi, DWORD PTR _pQuery$[ebp]
  00021	57		 push	 edi
  00022	53		 push	 ebx
  00023	ff 35 00 00 00
	00		 push	 DWORD PTR ?g_appInfo@@3UAppInfo@@A
  00029	89 8d c0 fb ff
	ff		 mov	 DWORD PTR _this$1$[ebp], ecx
  0002f	68 00 00 00 00	 push	 OFFSET ??_C@_0CF@LLICFCEH@GAME_BACKSYSTEM_STR?5?8S3?8?0?8?$CF02d?8@
  00034	50		 push	 eax
  00035	e8 00 00 00 00	 call	 _sprintf
  0003a	83 c4 10	 add	 esp, 16			; 00000010H

; 357  : 	
; 358  : 	if( FALSE == pQuery->Exec( szQuery ) )

  0003d	8d 85 fc fb ff
	ff		 lea	 eax, DWORD PTR _szQuery$[ebp]
  00043	8b ce		 mov	 ecx, esi
  00045	50		 push	 eax
  00046	e8 00 00 00 00	 call	 ?Exec@CQuery@@QAEHPBD@Z	; CQuery::Exec
  0004b	85 c0		 test	 eax, eax
  0004d	75 31		 jne	 SHORT $LN4@GetMonster

; 359  : 	{
; 360  : 		WriteLog( "%s, %d\t%s", __FILE__, __LINE__, szQuery );

  0004f	8d 85 fc fb ff
	ff		 lea	 eax, DWORD PTR _szQuery$[ebp]
  00055	50		 push	 eax
  00056	68 68 01 00 00	 push	 360			; 00000168H
  0005b	68 00 00 00 00	 push	 OFFSET ??_C@_0EA@IGAHIDM@C?3?2IAGOS?2server?2v18?2Source?2Sour@
  00060	68 00 00 00 00	 push	 OFFSET ??_C@_09GBAEEKDE@?$CFs?0?5?$CFd?7?$CFs@
  00065	e8 00 00 00 00	 call	 ?WriteLog@@YAXPBDZZ	; WriteLog
  0006a	83 c4 10	 add	 esp, 16			; 00000010H

; 387  : 			}
; 388  : 		}
; 389  : 	}
; 390  : 	
; 391  : 	TRACE( "%d MONSTER_PROP\n", prj.m_nMonsterPropSize );
; 392  : 
; 393  : 	return;
; 394  : }

  0006d	5f		 pop	 edi
  0006e	5e		 pop	 esi
  0006f	5b		 pop	 ebx
  00070	8b 4d fc	 mov	 ecx, DWORD PTR __$ArrayPad$[ebp]
  00073	33 cd		 xor	 ecx, ebp
  00075	e8 00 00 00 00	 call	 @__security_check_cookie@4
  0007a	8b e5		 mov	 esp, ebp
  0007c	5d		 pop	 ebp
  0007d	c2 08 00	 ret	 8
$LN4@GetMonster:
  00080	0f 57 c0	 xorps	 xmm0, xmm0
; File C:\IAGOS\server\v18\Source\Source\DatabaseServer\Project.h

; 60   : 		szMonsterName[0] = '\0';

  00083	c6 85 c4 fb ff
	ff 00		 mov	 BYTE PTR _MonsterProp$[ebp], 0
; File C:\IAGOS\server\v18\Source\Source\_Database\DBBackEndSystem.cpp

; 367  : 	while( pQuery->Fetch() )

  0008a	8b ce		 mov	 ecx, esi
; File C:\IAGOS\server\v18\Source\Source\DatabaseServer\Project.h

; 65   : 		nItemDrop = 0;

  0008c	c7 85 f4 fb ff
	ff 00 00 00 00	 mov	 DWORD PTR _MonsterProp$[ebp+48], 0
  00096	0f 11 85 e4 fb
	ff ff		 movups	 XMMWORD PTR _MonsterProp$[ebp+32], xmm0

; 66   : 		nPenya = 0;

  0009d	c7 85 f8 fb ff
	ff 00 00 00 00	 mov	 DWORD PTR _MonsterProp$[ebp+52], 0
; File C:\IAGOS\server\v18\Source\Source\_Database\DBBackEndSystem.cpp

; 367  : 	while( pQuery->Fetch() )

  000a7	e8 00 00 00 00	 call	 ?Fetch@CQuery@@QAEHXZ	; CQuery::Fetch
  000ac	85 c0		 test	 eax, eax
  000ae	0f 84 25 01 00
	00		 je	 $LN3@GetMonster
$LL2@GetMonster:

; 368  : 	{
; 369  : 		nResult = pQuery->GetInt( "bResult" );

  000b4	68 00 00 00 00	 push	 OFFSET ??_C@_07MGNKFCA@bResult@
  000b9	8b ce		 mov	 ecx, esi
  000bb	e8 00 00 00 00	 call	 ?GetInt@CQuery@@QAEHPAD@Z ; CQuery::GetInt
  000c0	8b f8		 mov	 edi, eax

; 370  : 		pQuery->GetStr( "MonName", MonsterProp.szMonsterName);

  000c2	8b ce		 mov	 ecx, esi
  000c4	8d 85 c4 fb ff
	ff		 lea	 eax, DWORD PTR _MonsterProp$[ebp]
  000ca	50		 push	 eax
  000cb	68 00 00 00 00	 push	 OFFSET ??_C@_07FLJJBEFD@MonName@
  000d0	e8 00 00 00 00	 call	 ?GetStr@CQuery@@QAEXPAD0@Z ; CQuery::GetStr

; 371  : 		if( nResult == 1)	// Ăß°ˇ

  000d5	83 ff 01	 cmp	 edi, 1
  000d8	0f 85 ab 00 00
	00		 jne	 $LN5@GetMonster

; 372  : 		{
; 373  : 			MonsterProp.nHitPoint = pQuery->GetInt( "HitPoint" );

  000de	68 00 00 00 00	 push	 OFFSET ??_C@_08PDOHAPNM@HitPoint@
  000e3	8b ce		 mov	 ecx, esi
  000e5	e8 00 00 00 00	 call	 ?GetInt@CQuery@@QAEHPAD@Z ; CQuery::GetInt

; 374  : 			MonsterProp.nAttackPower = pQuery->GetInt( "AttackPower" );

  000ea	68 00 00 00 00	 push	 OFFSET ??_C@_0M@LAGJIOMN@AttackPower@
  000ef	8b ce		 mov	 ecx, esi
  000f1	89 85 e4 fb ff
	ff		 mov	 DWORD PTR _MonsterProp$[ebp+32], eax
  000f7	e8 00 00 00 00	 call	 ?GetInt@CQuery@@QAEHPAD@Z ; CQuery::GetInt

; 375  : 			MonsterProp.nDefence = pQuery->GetInt( "Defence" );

  000fc	68 00 00 00 00	 push	 OFFSET ??_C@_07OIBJPBBC@Defence@
  00101	8b ce		 mov	 ecx, esi
  00103	89 85 e8 fb ff
	ff		 mov	 DWORD PTR _MonsterProp$[ebp+36], eax
  00109	e8 00 00 00 00	 call	 ?GetInt@CQuery@@QAEHPAD@Z ; CQuery::GetInt

; 376  : 			MonsterProp.nExp = pQuery->GetInt( "Exp" );

  0010e	68 00 00 00 00	 push	 OFFSET ??_C@_03HKMMIPC@Exp@
  00113	8b ce		 mov	 ecx, esi
  00115	89 85 ec fb ff
	ff		 mov	 DWORD PTR _MonsterProp$[ebp+40], eax
  0011b	e8 00 00 00 00	 call	 ?GetInt@CQuery@@QAEHPAD@Z ; CQuery::GetInt

; 377  : 			MonsterProp.nItemDrop = pQuery->GetInt( "ItemDrop" );

  00120	68 00 00 00 00	 push	 OFFSET ??_C@_08COMINNNE@ItemDrop@
  00125	8b ce		 mov	 ecx, esi
  00127	89 85 f0 fb ff
	ff		 mov	 DWORD PTR _MonsterProp$[ebp+44], eax
  0012d	e8 00 00 00 00	 call	 ?GetInt@CQuery@@QAEHPAD@Z ; CQuery::GetInt

; 378  : 			MonsterProp.nPenya = pQuery->GetInt( "Penya" );

  00132	68 00 00 00 00	 push	 OFFSET ??_C@_05OPFOCHJP@Penya@
  00137	8b ce		 mov	 ecx, esi
  00139	89 85 f4 fb ff
	ff		 mov	 DWORD PTR _MonsterProp$[ebp+48], eax
  0013f	e8 00 00 00 00	 call	 ?GetInt@CQuery@@QAEHPAD@Z ; CQuery::GetInt

; 379  : 
; 380  : 			AddMonsterProp( MonsterProp );

  00144	0f 10 85 c4 fb
	ff ff		 movups	 xmm0, XMMWORD PTR _MonsterProp$[ebp]
  0014b	8b 8d c0 fb ff
	ff		 mov	 ecx, DWORD PTR _this$1$[ebp]
  00151	83 ec 38	 sub	 esp, 56			; 00000038H
  00154	89 85 f8 fb ff
	ff		 mov	 DWORD PTR _MonsterProp$[ebp+52], eax
  0015a	8b c4		 mov	 eax, esp
  0015c	0f 11 00	 movups	 XMMWORD PTR [eax], xmm0
  0015f	0f 10 85 d4 fb
	ff ff		 movups	 xmm0, XMMWORD PTR _MonsterProp$[ebp+16]
  00166	0f 11 40 10	 movups	 XMMWORD PTR [eax+16], xmm0
  0016a	0f 10 85 e4 fb
	ff ff		 movups	 xmm0, XMMWORD PTR _MonsterProp$[ebp+32]
  00171	0f 11 40 20	 movups	 XMMWORD PTR [eax+32], xmm0
  00175	f3 0f 7e 85 f4
	fb ff ff	 movq	 xmm0, QWORD PTR _MonsterProp$[ebp+48]
  0017d	66 0f d6 40 30	 movq	 QWORD PTR [eax+48], xmm0
  00182	e8 00 00 00 00	 call	 ?AddMonsterProp@CDbManager@@AAEHU_MONSTER_PROP@@@Z ; CDbManager::AddMonsterProp

; 381  : 		}

  00187	eb 41		 jmp	 SHORT $LN7@GetMonster
$LN5@GetMonster:

; 382  : 		else		// »čÁ¦
; 383  : 		{
; 384  : 			if( lpstrTime != '\0' )

  00189	85 db		 test	 ebx, ebx
  0018b	74 3d		 je	 SHORT $LN7@GetMonster

; 385  : 			{
; 386  : 				RemoveMonsterProp( MonsterProp );

  0018d	0f 10 85 c4 fb
	ff ff		 movups	 xmm0, XMMWORD PTR _MonsterProp$[ebp]
  00194	8b 8d c0 fb ff
	ff		 mov	 ecx, DWORD PTR _this$1$[ebp]
  0019a	83 ec 38	 sub	 esp, 56			; 00000038H
  0019d	8b c4		 mov	 eax, esp
  0019f	0f 11 00	 movups	 XMMWORD PTR [eax], xmm0
  001a2	0f 10 85 d4 fb
	ff ff		 movups	 xmm0, XMMWORD PTR _MonsterProp$[ebp+16]
  001a9	0f 11 40 10	 movups	 XMMWORD PTR [eax+16], xmm0
  001ad	0f 10 85 e4 fb
	ff ff		 movups	 xmm0, XMMWORD PTR _MonsterProp$[ebp+32]
  001b4	0f 11 40 20	 movups	 XMMWORD PTR [eax+32], xmm0
  001b8	f3 0f 7e 85 f4
	fb ff ff	 movq	 xmm0, QWORD PTR _MonsterProp$[ebp+48]
  001c0	66 0f d6 40 30	 movq	 QWORD PTR [eax+48], xmm0
  001c5	e8 00 00 00 00	 call	 ?RemoveMonsterProp@CDbManager@@AAEHU_MONSTER_PROP@@@Z ; CDbManager::RemoveMonsterProp
$LN7@GetMonster:

; 367  : 	while( pQuery->Fetch() )

  001ca	8b ce		 mov	 ecx, esi
  001cc	e8 00 00 00 00	 call	 ?Fetch@CQuery@@QAEHXZ	; CQuery::Fetch
  001d1	85 c0		 test	 eax, eax
  001d3	0f 85 db fe ff
	ff		 jne	 $LL2@GetMonster
$LN3@GetMonster:

; 387  : 			}
; 388  : 		}
; 389  : 	}
; 390  : 	
; 391  : 	TRACE( "%d MONSTER_PROP\n", prj.m_nMonsterPropSize );
; 392  : 
; 393  : 	return;
; 394  : }

  001d9	8b 4d fc	 mov	 ecx, DWORD PTR __$ArrayPad$[ebp]
  001dc	5f		 pop	 edi
  001dd	5e		 pop	 esi
  001de	33 cd		 xor	 ecx, ebp
  001e0	5b		 pop	 ebx
  001e1	e8 00 00 00 00	 call	 @__security_check_cookie@4
  001e6	8b e5		 mov	 esp, ebp
  001e8	5d		 pop	 ebp
  001e9	c2 08 00	 ret	 8
?GetMonsterPropSetting@CDbManager@@AAEXPAVCQuery@@PAD@Z ENDP ; CDbManager::GetMonsterPropSetting
_TEXT	ENDS
; Function compile flags: /Ogtp
; File C:\IAGOS\server\v18\Source\Source\_Database\DBBackEndSystem.cpp
; File C:\IAGOS\server\v18\Source\Source\DatabaseServer\Project.h
; File C:\IAGOS\server\v18\Source\Source\_Database\DBBackEndSystem.cpp
; File C:\IAGOS\server\v18\Source\Source\DatabaseServer\Project.h
; File C:\IAGOS\server\v18\Source\Source\_Database\DBBackEndSystem.cpp
;	COMDAT ?GetMonsterRespawnSetting@CDbManager@@AAEXPAVCQuery@@AAHQAHPAD@Z
_TEXT	SEGMENT
_nRemoveMaxRespawn$GSCopy$1$ = -1100			; size = 4
_this$1$ = -1096					; size = 4
_MonsterRespawn$ = -1092				; size = 64
_szQuery$ = -1028					; size = 1024
__$ArrayPad$ = -4					; size = 4
_pQuery$ = 8						; size = 4
_nRemoveMaxRespawn$ = 12				; size = 4
_aRemoveRespawn$ = 16					; size = 4
_lpstrTime$ = 20					; size = 4
?GetMonsterRespawnSetting@CDbManager@@AAEXPAVCQuery@@AAHQAHPAD@Z PROC ; CDbManager::GetMonsterRespawnSetting, COMDAT
; _this$ = ecx

; 309  : {

  00000	55		 push	 ebp
  00001	8b ec		 mov	 ebp, esp
  00003	81 ec 4c 04 00
	00		 sub	 esp, 1100		; 0000044cH
  00009	a1 00 00 00 00	 mov	 eax, DWORD PTR ___security_cookie
  0000e	33 c5		 xor	 eax, ebp
  00010	89 45 fc	 mov	 DWORD PTR __$ArrayPad$[ebp], eax
  00013	8b 45 0c	 mov	 eax, DWORD PTR _nRemoveMaxRespawn$[ebp]
  00016	53		 push	 ebx
  00017	8b 5d 10	 mov	 ebx, DWORD PTR _aRemoveRespawn$[ebp]
  0001a	56		 push	 esi
  0001b	57		 push	 edi
  0001c	8b 7d 08	 mov	 edi, DWORD PTR _pQuery$[ebp]
  0001f	89 85 b4 fb ff
	ff		 mov	 DWORD PTR _nRemoveMaxRespawn$GSCopy$1$[ebp], eax
  00025	8b 45 14	 mov	 eax, DWORD PTR _lpstrTime$[ebp]

; 310  : 	char szQuery[1024];
; 311  : 
; 312  : 	sprintf( szQuery, "GAME_BACKSYSTEM_STR 'S2','%02d','%s'", g_appInfo.dwSys, lpstrTime );

  00028	50		 push	 eax
  00029	ff 35 00 00 00
	00		 push	 DWORD PTR ?g_appInfo@@3UAppInfo@@A
  0002f	8d 85 fc fb ff
	ff		 lea	 eax, DWORD PTR _szQuery$[ebp]
  00035	89 8d b8 fb ff
	ff		 mov	 DWORD PTR _this$1$[ebp], ecx
  0003b	68 00 00 00 00	 push	 OFFSET ??_C@_0CF@CHJIJKP@GAME_BACKSYSTEM_STR?5?8S2?8?0?8?$CF02d?8@
  00040	50		 push	 eax
  00041	e8 00 00 00 00	 call	 _sprintf
  00046	83 c4 10	 add	 esp, 16			; 00000010H

; 313  : 
; 314  : 	if( FALSE == pQuery->Exec( szQuery ) )

  00049	8d 85 fc fb ff
	ff		 lea	 eax, DWORD PTR _szQuery$[ebp]
  0004f	8b cf		 mov	 ecx, edi
  00051	50		 push	 eax
  00052	e8 00 00 00 00	 call	 ?Exec@CQuery@@QAEHPBD@Z	; CQuery::Exec
  00057	85 c0		 test	 eax, eax
  00059	75 31		 jne	 SHORT $LN4@GetMonster

; 315  : 	{
; 316  : 		WriteLog( "%s, %d\t%s", __FILE__, __LINE__, szQuery );

  0005b	8d 85 fc fb ff
	ff		 lea	 eax, DWORD PTR _szQuery$[ebp]
  00061	50		 push	 eax
  00062	68 3c 01 00 00	 push	 316			; 0000013cH
  00067	68 00 00 00 00	 push	 OFFSET ??_C@_0EA@IGAHIDM@C?3?2IAGOS?2server?2v18?2Source?2Sour@
  0006c	68 00 00 00 00	 push	 OFFSET ??_C@_09GBAEEKDE@?$CFs?0?5?$CFd?7?$CFs@
  00071	e8 00 00 00 00	 call	 ?WriteLog@@YAXPBDZZ	; WriteLog
  00076	83 c4 10	 add	 esp, 16			; 00000010H

; 345  : 			}
; 346  : 		}
; 347  : 	}
; 348  : 	
; 349  : 	TRACE( "%d MONSTER_RESPAWN\n", prj.m_nMonsterRespawnSize );
; 350  : }

  00079	5f		 pop	 edi
  0007a	5e		 pop	 esi
  0007b	5b		 pop	 ebx
  0007c	8b 4d fc	 mov	 ecx, DWORD PTR __$ArrayPad$[ebp]
  0007f	33 cd		 xor	 ecx, ebp
  00081	e8 00 00 00 00	 call	 @__security_check_cookie@4
  00086	8b e5		 mov	 esp, ebp
  00088	5d		 pop	 ebp
  00089	c2 10 00	 ret	 16			; 00000010H
$LN4@GetMonster:
  0008c	0f 57 c0	 xorps	 xmm0, xmm0
; File C:\IAGOS\server\v18\Source\Source\DatabaseServer\Project.h

; 38   : 		szMonsterName[0] = '\0';

  0008f	c6 85 bc fb ff
	ff 00		 mov	 BYTE PTR _MonsterRespawn$[ebp], 0
; File C:\IAGOS\server\v18\Source\Source\_Database\DBBackEndSystem.cpp

; 323  : 	while( pQuery->Fetch() )

  00096	8b cf		 mov	 ecx, edi
; File C:\IAGOS\server\v18\Source\Source\DatabaseServer\Project.h

; 39   : 		vPos = D3DXVECTOR3( 0.0f, 0.0f, 0.0f );

  00098	c7 85 e0 fb ff
	ff 00 00 00 00	 mov	 DWORD PTR _MonsterRespawn$[ebp+36], 0
  000a2	c7 85 e4 fb ff
	ff 00 00 00 00	 mov	 DWORD PTR _MonsterRespawn$[ebp+40], 0
  000ac	c7 85 e8 fb ff
	ff 00 00 00 00	 mov	 DWORD PTR _MonsterRespawn$[ebp+44], 0

; 40   : 		nQuantity = 0;

  000b6	0f 11 85 ec fb
	ff ff		 movups	 XMMWORD PTR _MonsterRespawn$[ebp+48], xmm0

; 41   : 		nAggressive = 0;
; 42   : 		nRange = 0;
; 43   : 		nTime = 0;
; 44   : 		nRespawnIndex = 0;

  000bd	c7 85 dc fb ff
	ff 00 00 00 00	 mov	 DWORD PTR _MonsterRespawn$[ebp+32], 0
; File C:\IAGOS\server\v18\Source\Source\_Database\DBBackEndSystem.cpp

; 323  : 	while( pQuery->Fetch() )

  000c7	e8 00 00 00 00	 call	 ?Fetch@CQuery@@QAEHXZ	; CQuery::Fetch
  000cc	85 c0		 test	 eax, eax
  000ce	0f 84 38 01 00
	00		 je	 $LN3@GetMonster
$LL2@GetMonster:

; 324  : 	{
; 325  : 		nResult = pQuery->GetInt( "bResult" );

  000d4	68 00 00 00 00	 push	 OFFSET ??_C@_07MGNKFCA@bResult@
  000d9	8b cf		 mov	 ecx, edi
  000db	e8 00 00 00 00	 call	 ?GetInt@CQuery@@QAEHPAD@Z ; CQuery::GetInt

; 326  : 		MonsterRespawn.nRespawnIndex = pQuery->GetInt( "Num" );

  000e0	68 00 00 00 00	 push	 OFFSET ??_C@_03CHBJLALM@Num@
  000e5	8b cf		 mov	 ecx, edi
  000e7	8b f0		 mov	 esi, eax
  000e9	e8 00 00 00 00	 call	 ?GetInt@CQuery@@QAEHPAD@Z ; CQuery::GetInt
  000ee	89 85 dc fb ff
	ff		 mov	 DWORD PTR _MonsterRespawn$[ebp+32], eax

; 327  : 		if( nResult == 1)	// Ăß°ˇ

  000f4	83 fe 01	 cmp	 esi, 1
  000f7	0f 85 e9 00 00
	00		 jne	 $LN5@GetMonster

; 328  : 		{
; 329  : 			pQuery->GetStr( "Name", MonsterRespawn.szMonsterName );

  000fd	8d 85 bc fb ff
	ff		 lea	 eax, DWORD PTR _MonsterRespawn$[ebp]
  00103	8b cf		 mov	 ecx, edi
  00105	50		 push	 eax
  00106	68 00 00 00 00	 push	 OFFSET ??_C@_04FABLJDN@Name@
  0010b	e8 00 00 00 00	 call	 ?GetStr@CQuery@@QAEXPAD0@Z ; CQuery::GetStr

; 330  : 			MonsterRespawn.vPos.x = (float)( pQuery->GetInt( "Pos_x" ) );

  00110	68 00 00 00 00	 push	 OFFSET ??_C@_05KAFNCDDG@Pos_x@
  00115	8b cf		 mov	 ecx, edi
  00117	e8 00 00 00 00	 call	 ?GetInt@CQuery@@QAEHPAD@Z ; CQuery::GetInt

; 331  : 			MonsterRespawn.vPos.y = (float)( pQuery->GetInt( "Pos_y" ) );

  0011c	68 00 00 00 00	 push	 OFFSET ??_C@_05LJEGBCHH@Pos_y@
  00121	8b cf		 mov	 ecx, edi
  00123	66 0f 6e c0	 movd	 xmm0, eax
  00127	0f 5b c0	 cvtdq2ps xmm0, xmm0
  0012a	f3 0f 11 85 e0
	fb ff ff	 movss	 DWORD PTR _MonsterRespawn$[ebp+36], xmm0
  00132	e8 00 00 00 00	 call	 ?GetInt@CQuery@@QAEHPAD@Z ; CQuery::GetInt

; 332  : 			MonsterRespawn.vPos.z = (float)( pQuery->GetInt( "Pos_z" ) );

  00137	68 00 00 00 00	 push	 OFFSET ??_C@_05JCGLEBLE@Pos_z@
  0013c	8b cf		 mov	 ecx, edi
  0013e	66 0f 6e c0	 movd	 xmm0, eax
  00142	0f 5b c0	 cvtdq2ps xmm0, xmm0
  00145	f3 0f 11 85 e4
	fb ff ff	 movss	 DWORD PTR _MonsterRespawn$[ebp+40], xmm0
  0014d	e8 00 00 00 00	 call	 ?GetInt@CQuery@@QAEHPAD@Z ; CQuery::GetInt

; 333  : 			MonsterRespawn.nQuantity = pQuery->GetInt( "Quantity" );

  00152	68 00 00 00 00	 push	 OFFSET ??_C@_08GACJPEFO@Quantity@
  00157	8b cf		 mov	 ecx, edi
  00159	66 0f 6e c0	 movd	 xmm0, eax
  0015d	0f 5b c0	 cvtdq2ps xmm0, xmm0
  00160	f3 0f 11 85 e8
	fb ff ff	 movss	 DWORD PTR _MonsterRespawn$[ebp+44], xmm0
  00168	e8 00 00 00 00	 call	 ?GetInt@CQuery@@QAEHPAD@Z ; CQuery::GetInt

; 334  : 			MonsterRespawn.nAggressive = pQuery->GetInt( "Aggressive" );

  0016d	68 00 00 00 00	 push	 OFFSET ??_C@_0L@ICGAFIAO@Aggressive@
  00172	8b cf		 mov	 ecx, edi
  00174	89 85 ec fb ff
	ff		 mov	 DWORD PTR _MonsterRespawn$[ebp+48], eax
  0017a	e8 00 00 00 00	 call	 ?GetInt@CQuery@@QAEHPAD@Z ; CQuery::GetInt

; 335  : 			MonsterRespawn.nRange = pQuery->GetInt( "Range" );

  0017f	68 00 00 00 00	 push	 OFFSET ??_C@_05CFMCGLCK@Range@
  00184	8b cf		 mov	 ecx, edi
  00186	89 85 f0 fb ff
	ff		 mov	 DWORD PTR _MonsterRespawn$[ebp+52], eax
  0018c	e8 00 00 00 00	 call	 ?GetInt@CQuery@@QAEHPAD@Z ; CQuery::GetInt

; 336  : 			MonsterRespawn.nTime = pQuery->GetInt( "dwTime" );

  00191	68 00 00 00 00	 push	 OFFSET ??_C@_06NIHFGDBN@dwTime@
  00196	8b cf		 mov	 ecx, edi
  00198	89 85 f4 fb ff
	ff		 mov	 DWORD PTR _MonsterRespawn$[ebp+56], eax
  0019e	e8 00 00 00 00	 call	 ?GetInt@CQuery@@QAEHPAD@Z ; CQuery::GetInt

; 337  : 				
; 338  : 			AddMonsterRespawn( MonsterRespawn );

  001a3	0f 10 85 bc fb
	ff ff		 movups	 xmm0, XMMWORD PTR _MonsterRespawn$[ebp]
  001aa	8b 8d b8 fb ff
	ff		 mov	 ecx, DWORD PTR _this$1$[ebp]
  001b0	83 ec 40	 sub	 esp, 64			; 00000040H
  001b3	89 85 f8 fb ff
	ff		 mov	 DWORD PTR _MonsterRespawn$[ebp+60], eax
  001b9	8b c4		 mov	 eax, esp
  001bb	0f 11 00	 movups	 XMMWORD PTR [eax], xmm0
  001be	0f 10 85 cc fb
	ff ff		 movups	 xmm0, XMMWORD PTR _MonsterRespawn$[ebp+16]
  001c5	0f 11 40 10	 movups	 XMMWORD PTR [eax+16], xmm0
  001c9	0f 10 85 dc fb
	ff ff		 movups	 xmm0, XMMWORD PTR _MonsterRespawn$[ebp+32]
  001d0	0f 11 40 20	 movups	 XMMWORD PTR [eax+32], xmm0
  001d4	0f 10 85 ec fb
	ff ff		 movups	 xmm0, XMMWORD PTR _MonsterRespawn$[ebp+48]
  001db	0f 11 40 30	 movups	 XMMWORD PTR [eax+48], xmm0
  001df	e8 00 00 00 00	 call	 ?AddMonsterRespawn@CDbManager@@AAEHU_MONSTER_RESPAWN@@@Z ; CDbManager::AddMonsterRespawn

; 339  : 		}

  001e4	eb 17		 jmp	 SHORT $LN7@GetMonster
$LN5@GetMonster:

; 340  : 		else		// »čÁ¦
; 341  : 		{
; 342  : 			if( aRemoveRespawn != NULL )

  001e6	85 db		 test	 ebx, ebx
  001e8	74 13		 je	 SHORT $LN7@GetMonster

; 343  : 			{
; 344  : 				RemoveMonsterRespawn( MonsterRespawn.nRespawnIndex, nRemoveMaxRespawn, aRemoveRespawn );

  001ea	8b 8d b8 fb ff
	ff		 mov	 ecx, DWORD PTR _this$1$[ebp]
  001f0	53		 push	 ebx
  001f1	ff b5 b4 fb ff
	ff		 push	 DWORD PTR _nRemoveMaxRespawn$GSCopy$1$[ebp]
  001f7	50		 push	 eax
  001f8	e8 00 00 00 00	 call	 ?RemoveMonsterRespawn@CDbManager@@AAEHHAAHQAH@Z ; CDbManager::RemoveMonsterRespawn
$LN7@GetMonster:

; 323  : 	while( pQuery->Fetch() )

  001fd	8b cf		 mov	 ecx, edi
  001ff	e8 00 00 00 00	 call	 ?Fetch@CQuery@@QAEHXZ	; CQuery::Fetch
  00204	85 c0		 test	 eax, eax
  00206	0f 85 c8 fe ff
	ff		 jne	 $LL2@GetMonster
$LN3@GetMonster:

; 345  : 			}
; 346  : 		}
; 347  : 	}
; 348  : 	
; 349  : 	TRACE( "%d MONSTER_RESPAWN\n", prj.m_nMonsterRespawnSize );
; 350  : }

  0020c	8b 4d fc	 mov	 ecx, DWORD PTR __$ArrayPad$[ebp]
  0020f	5f		 pop	 edi
  00210	5e		 pop	 esi
  00211	33 cd		 xor	 ecx, ebp
  00213	5b		 pop	 ebx
  00214	e8 00 00 00 00	 call	 @__security_check_cookie@4
  00219	8b e5		 mov	 esp, ebp
  0021b	5d		 pop	 ebp
  0021c	c2 10 00	 ret	 16			; 00000010H
?GetMonsterRespawnSetting@CDbManager@@AAEXPAVCQuery@@AAHQAHPAD@Z ENDP ; CDbManager::GetMonsterRespawnSetting
_TEXT	ENDS
; Function compile flags: /Ogtp
; File C:\IAGOS\server\v18\Source\Source\_Database\DBBackEndSystem.cpp
;	COMDAT ?GetBaseGameSetting@CDbManager@@AAEHPAVCQuery@@PAD@Z
_TEXT	SEGMENT
_bResult$1$ = -1164					; size = 4
_lpstrTime$GSCopy$1$ = -1160				; size = 4
_szQuery$ = -1156					; size = 1024
_chBufName$ = -132					; size = 128
__$ArrayPad$ = -4					; size = 4
_pQuery$ = 8						; size = 4
_lpstrTime$ = 12					; size = 4
?GetBaseGameSetting@CDbManager@@AAEHPAVCQuery@@PAD@Z PROC ; CDbManager::GetBaseGameSetting, COMDAT
; _this$ = ecx

; 170  : {

  00000	55		 push	 ebp
  00001	8b ec		 mov	 ebp, esp
  00003	81 ec 8c 04 00
	00		 sub	 esp, 1164		; 0000048cH
  00009	a1 00 00 00 00	 mov	 eax, DWORD PTR ___security_cookie
  0000e	33 c5		 xor	 eax, ebp
  00010	89 45 fc	 mov	 DWORD PTR __$ArrayPad$[ebp], eax
  00013	53		 push	 ebx
  00014	8b 5d 0c	 mov	 ebx, DWORD PTR _lpstrTime$[ebp]

; 171  : 	char szQuery[1024];
; 172  : 	
; 173  : 	sprintf( szQuery, "GAME_BACKSYSTEM_STR 'S1','%02d','%s'", g_appInfo.dwSys, lpstrTime );

  00017	8d 85 7c fb ff
	ff		 lea	 eax, DWORD PTR _szQuery$[ebp]
  0001d	57		 push	 edi
  0001e	8b 7d 08	 mov	 edi, DWORD PTR _pQuery$[ebp]
  00021	53		 push	 ebx
  00022	ff 35 00 00 00
	00		 push	 DWORD PTR ?g_appInfo@@3UAppInfo@@A
  00028	89 9d 78 fb ff
	ff		 mov	 DWORD PTR _lpstrTime$GSCopy$1$[ebp], ebx
  0002e	68 00 00 00 00	 push	 OFFSET ??_C@_0CF@BDAEODNG@GAME_BACKSYSTEM_STR?5?8S1?8?0?8?$CF02d?8@
  00033	50		 push	 eax
  00034	e8 00 00 00 00	 call	 _sprintf
  00039	83 c4 10	 add	 esp, 16			; 00000010H

; 174  : 	
; 175  : 	if( FALSE == pQuery->Exec( szQuery ) )

  0003c	8d 85 7c fb ff
	ff		 lea	 eax, DWORD PTR _szQuery$[ebp]
  00042	8b cf		 mov	 ecx, edi
  00044	50		 push	 eax
  00045	e8 00 00 00 00	 call	 ?Exec@CQuery@@QAEHPBD@Z	; CQuery::Exec
  0004a	85 c0		 test	 eax, eax
  0004c	75 32		 jne	 SHORT $LN4@GetBaseGam

; 176  : 	{
; 177  : 		WriteLog( "%s, %d\t%s", __FILE__, __LINE__, szQuery );

  0004e	8d 85 7c fb ff
	ff		 lea	 eax, DWORD PTR _szQuery$[ebp]
  00054	50		 push	 eax
  00055	68 b1 00 00 00	 push	 177			; 000000b1H
  0005a	68 00 00 00 00	 push	 OFFSET ??_C@_0EA@IGAHIDM@C?3?2IAGOS?2server?2v18?2Source?2Sour@
  0005f	68 00 00 00 00	 push	 OFFSET ??_C@_09GBAEEKDE@?$CFs?0?5?$CFd?7?$CFs@
  00064	e8 00 00 00 00	 call	 ?WriteLog@@YAXPBDZZ	; WriteLog
  00069	83 c4 10	 add	 esp, 16			; 00000010H

; 178  : 		return FALSE;

  0006c	33 c0		 xor	 eax, eax
  0006e	5f		 pop	 edi

; 304  : 	}
; 305  : 	return bResult;
; 306  : }

  0006f	5b		 pop	 ebx
  00070	8b 4d fc	 mov	 ecx, DWORD PTR __$ArrayPad$[ebp]
  00073	33 cd		 xor	 ecx, ebp
  00075	e8 00 00 00 00	 call	 @__security_check_cookie@4
  0007a	8b e5		 mov	 esp, ebp
  0007c	5d		 pop	 ebp
  0007d	c2 08 00	 ret	 8
$LN4@GetBaseGam:
  00080	56		 push	 esi

; 179  : 	}	
; 180  : 	BOOL bResult = FALSE;	
; 181  : 	int nBufValue = 0;
; 182  : 	char chBufName[128];
; 183  : 	int nResult;
; 184  : 	while( pQuery->Fetch() )

  00081	8b cf		 mov	 ecx, edi
  00083	33 f6		 xor	 esi, esi
  00085	e8 00 00 00 00	 call	 ?Fetch@CQuery@@QAEHXZ	; CQuery::Fetch
  0008a	85 c0		 test	 eax, eax
  0008c	0f 84 d3 00 00
	00		 je	 $LN3@GetBaseGam

; 303  : 		bResult = TRUE;

  00092	c7 85 74 fb ff
	ff 01 00 00 00	 mov	 DWORD PTR _bResult$1$[ebp], 1
  0009c	0f 1f 40 00	 npad	 4
$LL2@GetBaseGam:

; 185  : 	{
; 186  : 		nResult = pQuery->GetInt( "bResult" );

  000a0	68 00 00 00 00	 push	 OFFSET ??_C@_07MGNKFCA@bResult@
  000a5	8b cf		 mov	 ecx, edi
  000a7	e8 00 00 00 00	 call	 ?GetInt@CQuery@@QAEHPAD@Z ; CQuery::GetInt

; 187  : 		ZeroMemory( chBufName, sizeof( chBufName ) );

  000ac	68 80 00 00 00	 push	 128			; 00000080H
  000b1	8b f0		 mov	 esi, eax
  000b3	8d 85 7c ff ff
	ff		 lea	 eax, DWORD PTR _chBufName$[ebp]
  000b9	6a 00		 push	 0
  000bb	50		 push	 eax
  000bc	e8 00 00 00 00	 call	 _memset
  000c1	83 c4 0c	 add	 esp, 12			; 0000000cH

; 188  : 		pQuery->GetStr( "szName", chBufName );

  000c4	8d 85 7c ff ff
	ff		 lea	 eax, DWORD PTR _chBufName$[ebp]
  000ca	8b cf		 mov	 ecx, edi
  000cc	50		 push	 eax
  000cd	68 00 00 00 00	 push	 OFFSET ??_C@_06CJHGHFEP@szName@
  000d2	e8 00 00 00 00	 call	 ?GetStr@CQuery@@QAEXPAD0@Z ; CQuery::GetStr

; 189  : 		if( nResult == 1)	// Ăß°ˇ

  000d7	83 fe 01	 cmp	 esi, 1
  000da	0f 85 1e 03 00
	00		 jne	 $LN5@GetBaseGam

; 190  : 		{
; 191  : 			nBufValue = pQuery->GetInt( "rate" );

  000e0	68 00 00 00 00	 push	 OFFSET ??_C@_04HCCHHEEF@rate@
  000e5	8b cf		 mov	 ecx, edi
  000e7	e8 00 00 00 00	 call	 ?GetInt@CQuery@@QAEHPAD@Z ; CQuery::GetInt
  000ec	8b f0		 mov	 esi, eax

; 192  : 			if( strcmp( chBufName, "Exp" ) == 0 )

  000ee	8d 8d 7c ff ff
	ff		 lea	 ecx, DWORD PTR _chBufName$[ebp]
  000f4	ba 00 00 00 00	 mov	 edx, OFFSET ??_C@_03HKMMIPC@Exp@
  000f9	0f 1f 80 00 00
	00 00		 npad	 7
$LL47@GetBaseGam:
  00100	8a 19		 mov	 bl, BYTE PTR [ecx]
  00102	3a 1a		 cmp	 bl, BYTE PTR [edx]
  00104	75 1a		 jne	 SHORT $LN48@GetBaseGam
  00106	84 db		 test	 bl, bl
  00108	74 12		 je	 SHORT $LN49@GetBaseGam
  0010a	8a 41 01	 mov	 al, BYTE PTR [ecx+1]
  0010d	3a 42 01	 cmp	 al, BYTE PTR [edx+1]
  00110	75 0e		 jne	 SHORT $LN48@GetBaseGam
  00112	83 c1 02	 add	 ecx, 2
  00115	83 c2 02	 add	 edx, 2
  00118	84 c0		 test	 al, al
  0011a	75 e4		 jne	 SHORT $LL47@GetBaseGam
$LN49@GetBaseGam:
  0011c	33 c0		 xor	 eax, eax
  0011e	eb 05		 jmp	 SHORT $LN50@GetBaseGam
$LN48@GetBaseGam:
  00120	1b c0		 sbb	 eax, eax
  00122	83 c8 01	 or	 eax, 1
$LN50@GetBaseGam:
  00125	85 c0		 test	 eax, eax
  00127	75 51		 jne	 SHORT $LN7@GetBaseGam

; 193  : 			{
; 194  : 				prj.m_fMonsterExpRate = (float)nBufValue / 100.0f;

  00129	66 0f 6e c6	 movd	 xmm0, esi
  0012d	0f 5b c0	 cvtdq2ps xmm0, xmm0
  00130	f3 0f 5e 05 00
	00 00 00	 divss	 xmm0, DWORD PTR __real@42c80000
  00138	f3 0f 11 05 f8
	33 00 00	 movss	 DWORD PTR ?prj@@3VCProject@@A+13304, xmm0
$LN119@GetBaseGam:

; 299  : 				TRACE( "Price GAME_SETTING %f\n", prj.m_fShopCost );
; 300  : 			}
; 301  : 		}
; 302  : 		prj.m_bBaseGameSetting = TRUE;

  00140	8b 9d 78 fb ff
	ff		 mov	 ebx, DWORD PTR _lpstrTime$GSCopy$1$[ebp]
$LN41@GetBaseGam:

; 179  : 	}	
; 180  : 	BOOL bResult = FALSE;	
; 181  : 	int nBufValue = 0;
; 182  : 	char chBufName[128];
; 183  : 	int nResult;
; 184  : 	while( pQuery->Fetch() )

  00146	8b cf		 mov	 ecx, edi

; 299  : 				TRACE( "Price GAME_SETTING %f\n", prj.m_fShopCost );
; 300  : 			}
; 301  : 		}
; 302  : 		prj.m_bBaseGameSetting = TRUE;

  00148	c7 05 18 34 00
	00 01 00 00 00	 mov	 DWORD PTR ?prj@@3VCProject@@A+13336, 1
  00152	e8 00 00 00 00	 call	 ?Fetch@CQuery@@QAEHXZ	; CQuery::Fetch
  00157	85 c0		 test	 eax, eax
  00159	0f 85 41 ff ff
	ff		 jne	 $LL2@GetBaseGam
  0015f	8b b5 74 fb ff
	ff		 mov	 esi, DWORD PTR _bResult$1$[ebp]
$LN3@GetBaseGam:

; 304  : 	}
; 305  : 	return bResult;
; 306  : }

  00165	8b 4d fc	 mov	 ecx, DWORD PTR __$ArrayPad$[ebp]
  00168	8b c6		 mov	 eax, esi
  0016a	5e		 pop	 esi
  0016b	5f		 pop	 edi
  0016c	33 cd		 xor	 ecx, ebp
  0016e	5b		 pop	 ebx
  0016f	e8 00 00 00 00	 call	 @__security_check_cookie@4
  00174	8b e5		 mov	 esp, ebp
  00176	5d		 pop	 ebp
  00177	c2 08 00	 ret	 8
$LN7@GetBaseGam:

; 195  : 				TRACE( "Exp GAME_SETTING %f\n", prj.m_fMonsterExpRate );
; 196  : 			}
; 197  : 			else
; 198  : 			if( strcmp( chBufName, "Penya" ) == 0 )

  0017a	b9 00 00 00 00	 mov	 ecx, OFFSET ??_C@_05OPFOCHJP@Penya@
  0017f	8d 85 7c ff ff
	ff		 lea	 eax, DWORD PTR _chBufName$[ebp]
$LL51@GetBaseGam:
  00185	8a 10		 mov	 dl, BYTE PTR [eax]
  00187	3a 11		 cmp	 dl, BYTE PTR [ecx]
  00189	75 1a		 jne	 SHORT $LN52@GetBaseGam
  0018b	84 d2		 test	 dl, dl
  0018d	74 12		 je	 SHORT $LN53@GetBaseGam
  0018f	8a 50 01	 mov	 dl, BYTE PTR [eax+1]
  00192	3a 51 01	 cmp	 dl, BYTE PTR [ecx+1]
  00195	75 0e		 jne	 SHORT $LN52@GetBaseGam
  00197	83 c0 02	 add	 eax, 2
  0019a	83 c1 02	 add	 ecx, 2
  0019d	84 d2		 test	 dl, dl
  0019f	75 e4		 jne	 SHORT $LL51@GetBaseGam
$LN53@GetBaseGam:
  001a1	33 c0		 xor	 eax, eax
  001a3	eb 05		 jmp	 SHORT $LN54@GetBaseGam
$LN52@GetBaseGam:
  001a5	1b c0		 sbb	 eax, eax
  001a7	83 c8 01	 or	 eax, 1
$LN54@GetBaseGam:
  001aa	85 c0		 test	 eax, eax
  001ac	75 1c		 jne	 SHORT $LN9@GetBaseGam

; 199  : 			{
; 200  : 				prj.m_fGoldDropRate = (float)nBufValue / 100.0f;

  001ae	66 0f 6e c6	 movd	 xmm0, esi
  001b2	0f 5b c0	 cvtdq2ps xmm0, xmm0
  001b5	f3 0f 5e 05 00
	00 00 00	 divss	 xmm0, DWORD PTR __real@42c80000
  001bd	f3 0f 11 05 f4
	33 00 00	 movss	 DWORD PTR ?prj@@3VCProject@@A+13300, xmm0

; 201  : 				TRACE( "Penya GAME_SETTING %f\n", prj.m_fGoldDropRate );
; 202  : 			}

  001c5	e9 76 ff ff ff	 jmp	 $LN119@GetBaseGam
$LN9@GetBaseGam:

; 203  : 			else
; 204  : 			if( strcmp( chBufName, "ItemDrop" ) == 0 )

  001ca	b9 00 00 00 00	 mov	 ecx, OFFSET ??_C@_08COMINNNE@ItemDrop@
  001cf	8d 85 7c ff ff
	ff		 lea	 eax, DWORD PTR _chBufName$[ebp]
$LL55@GetBaseGam:
  001d5	8a 10		 mov	 dl, BYTE PTR [eax]
  001d7	3a 11		 cmp	 dl, BYTE PTR [ecx]
  001d9	75 1a		 jne	 SHORT $LN56@GetBaseGam
  001db	84 d2		 test	 dl, dl
  001dd	74 12		 je	 SHORT $LN57@GetBaseGam
  001df	8a 50 01	 mov	 dl, BYTE PTR [eax+1]
  001e2	3a 51 01	 cmp	 dl, BYTE PTR [ecx+1]
  001e5	75 0e		 jne	 SHORT $LN56@GetBaseGam
  001e7	83 c0 02	 add	 eax, 2
  001ea	83 c1 02	 add	 ecx, 2
  001ed	84 d2		 test	 dl, dl
  001ef	75 e4		 jne	 SHORT $LL55@GetBaseGam
$LN57@GetBaseGam:
  001f1	33 c0		 xor	 eax, eax
  001f3	eb 05		 jmp	 SHORT $LN58@GetBaseGam
$LN56@GetBaseGam:
  001f5	1b c0		 sbb	 eax, eax
  001f7	83 c8 01	 or	 eax, 1
$LN58@GetBaseGam:
  001fa	85 c0		 test	 eax, eax
  001fc	75 1c		 jne	 SHORT $LN11@GetBaseGam

; 205  : 			{
; 206  : 				prj.m_fItemDropRate = (float)nBufValue / 100.0f;

  001fe	66 0f 6e c6	 movd	 xmm0, esi
  00202	0f 5b c0	 cvtdq2ps xmm0, xmm0
  00205	f3 0f 5e 05 00
	00 00 00	 divss	 xmm0, DWORD PTR __real@42c80000
  0020d	f3 0f 11 05 f0
	33 00 00	 movss	 DWORD PTR ?prj@@3VCProject@@A+13296, xmm0

; 207  : 				TRACE( "ItemDrop GAME_SETTING %f\n", prj.m_fItemDropRate );
; 208  : 			}

  00215	e9 26 ff ff ff	 jmp	 $LN119@GetBaseGam
$LN11@GetBaseGam:

; 209  : 			else
; 210  : 			if( strcmp( chBufName, "Rebirth" ) == 0 )

  0021a	b9 00 00 00 00	 mov	 ecx, OFFSET ??_C@_07LKKEEFDG@Rebirth@
  0021f	8d 85 7c ff ff
	ff		 lea	 eax, DWORD PTR _chBufName$[ebp]
$LL59@GetBaseGam:
  00225	8a 10		 mov	 dl, BYTE PTR [eax]
  00227	3a 11		 cmp	 dl, BYTE PTR [ecx]
  00229	75 1a		 jne	 SHORT $LN60@GetBaseGam
  0022b	84 d2		 test	 dl, dl
  0022d	74 12		 je	 SHORT $LN61@GetBaseGam
  0022f	8a 50 01	 mov	 dl, BYTE PTR [eax+1]
  00232	3a 51 01	 cmp	 dl, BYTE PTR [ecx+1]
  00235	75 0e		 jne	 SHORT $LN60@GetBaseGam
  00237	83 c0 02	 add	 eax, 2
  0023a	83 c1 02	 add	 ecx, 2
  0023d	84 d2		 test	 dl, dl
  0023f	75 e4		 jne	 SHORT $LL59@GetBaseGam
$LN61@GetBaseGam:
  00241	33 c0		 xor	 eax, eax
  00243	eb 05		 jmp	 SHORT $LN62@GetBaseGam
$LN60@GetBaseGam:
  00245	1b c0		 sbb	 eax, eax
  00247	83 c8 01	 or	 eax, 1
$LN62@GetBaseGam:
  0024a	85 c0		 test	 eax, eax
  0024c	75 1c		 jne	 SHORT $LN13@GetBaseGam

; 211  : 			{
; 212  : 				prj.m_fMonsterRebirthRate = (float)nBufValue / 100.0f;

  0024e	66 0f 6e c6	 movd	 xmm0, esi
  00252	0f 5b c0	 cvtdq2ps xmm0, xmm0
  00255	f3 0f 5e 05 00
	00 00 00	 divss	 xmm0, DWORD PTR __real@42c80000
  0025d	f3 0f 11 05 08
	34 00 00	 movss	 DWORD PTR ?prj@@3VCProject@@A+13320, xmm0

; 213  : 				TRACE( "Rebirth GAME_SETTING %f\n", prj.m_fMonsterRebirthRate );
; 214  : 			}

  00265	e9 d6 fe ff ff	 jmp	 $LN119@GetBaseGam
$LN13@GetBaseGam:

; 215  : 			else
; 216  : 			if( strcmp( chBufName, "HitPoint" ) == 0 )

  0026a	b9 00 00 00 00	 mov	 ecx, OFFSET ??_C@_08PDOHAPNM@HitPoint@
  0026f	8d 85 7c ff ff
	ff		 lea	 eax, DWORD PTR _chBufName$[ebp]
$LL63@GetBaseGam:
  00275	8a 10		 mov	 dl, BYTE PTR [eax]
  00277	3a 11		 cmp	 dl, BYTE PTR [ecx]
  00279	75 1a		 jne	 SHORT $LN64@GetBaseGam
  0027b	84 d2		 test	 dl, dl
  0027d	74 12		 je	 SHORT $LN65@GetBaseGam
  0027f	8a 50 01	 mov	 dl, BYTE PTR [eax+1]
  00282	3a 51 01	 cmp	 dl, BYTE PTR [ecx+1]
  00285	75 0e		 jne	 SHORT $LN64@GetBaseGam
  00287	83 c0 02	 add	 eax, 2
  0028a	83 c1 02	 add	 ecx, 2
  0028d	84 d2		 test	 dl, dl
  0028f	75 e4		 jne	 SHORT $LL63@GetBaseGam
$LN65@GetBaseGam:
  00291	33 c0		 xor	 eax, eax
  00293	eb 05		 jmp	 SHORT $LN66@GetBaseGam
$LN64@GetBaseGam:
  00295	1b c0		 sbb	 eax, eax
  00297	83 c8 01	 or	 eax, 1
$LN66@GetBaseGam:
  0029a	85 c0		 test	 eax, eax
  0029c	75 1c		 jne	 SHORT $LN15@GetBaseGam

; 217  : 			{
; 218  : 				prj.m_fMonsterHitpointRate = (float)nBufValue / 100.0f;

  0029e	66 0f 6e c6	 movd	 xmm0, esi
  002a2	0f 5b c0	 cvtdq2ps xmm0, xmm0
  002a5	f3 0f 5e 05 00
	00 00 00	 divss	 xmm0, DWORD PTR __real@42c80000
  002ad	f3 0f 11 05 0c
	34 00 00	 movss	 DWORD PTR ?prj@@3VCProject@@A+13324, xmm0

; 219  : 				TRACE( "HitPointExp GAME_SETTING %f\n", prj.m_fMonsterHitpointRate );
; 220  : 			}

  002b5	e9 86 fe ff ff	 jmp	 $LN119@GetBaseGam
$LN15@GetBaseGam:

; 221  : 			else
; 222  : 			if( strcmp( chBufName, "AttackPower" ) == 0 )

  002ba	b9 00 00 00 00	 mov	 ecx, OFFSET ??_C@_0M@LAGJIOMN@AttackPower@
  002bf	8d 85 7c ff ff
	ff		 lea	 eax, DWORD PTR _chBufName$[ebp]
$LL67@GetBaseGam:
  002c5	8a 10		 mov	 dl, BYTE PTR [eax]
  002c7	3a 11		 cmp	 dl, BYTE PTR [ecx]
  002c9	75 1a		 jne	 SHORT $LN68@GetBaseGam
  002cb	84 d2		 test	 dl, dl
  002cd	74 12		 je	 SHORT $LN69@GetBaseGam
  002cf	8a 50 01	 mov	 dl, BYTE PTR [eax+1]
  002d2	3a 51 01	 cmp	 dl, BYTE PTR [ecx+1]
  002d5	75 0e		 jne	 SHORT $LN68@GetBaseGam
  002d7	83 c0 02	 add	 eax, 2
  002da	83 c1 02	 add	 ecx, 2
  002dd	84 d2		 test	 dl, dl
  002df	75 e4		 jne	 SHORT $LL67@GetBaseGam
$LN69@GetBaseGam:
  002e1	33 c0		 xor	 eax, eax
  002e3	eb 05		 jmp	 SHORT $LN70@GetBaseGam
$LN68@GetBaseGam:
  002e5	1b c0		 sbb	 eax, eax
  002e7	83 c8 01	 or	 eax, 1
$LN70@GetBaseGam:
  002ea	85 c0		 test	 eax, eax
  002ec	75 1c		 jne	 SHORT $LN17@GetBaseGam

; 223  : 			{
; 224  : 				prj.m_fMonsterHitRate = (float)nBufValue / 100.0f;

  002ee	66 0f 6e c6	 movd	 xmm0, esi
  002f2	0f 5b c0	 cvtdq2ps xmm0, xmm0
  002f5	f3 0f 5e 05 00
	00 00 00	 divss	 xmm0, DWORD PTR __real@42c80000
  002fd	f3 0f 11 05 fc
	33 00 00	 movss	 DWORD PTR ?prj@@3VCProject@@A+13308, xmm0

; 225  : 				TRACE( "AttackPower GAME_SETTING %f\n", prj.m_fMonsterHitRate );
; 226  : 			}

  00305	e9 36 fe ff ff	 jmp	 $LN119@GetBaseGam
$LN17@GetBaseGam:

; 227  : 			else
; 228  : 			if( strcmp( chBufName, "Respawn" ) == 0 )

  0030a	b9 00 00 00 00	 mov	 ecx, OFFSET ??_C@_07JGOIAFF@Respawn@
  0030f	8d 85 7c ff ff
	ff		 lea	 eax, DWORD PTR _chBufName$[ebp]
$LL71@GetBaseGam:
  00315	8a 10		 mov	 dl, BYTE PTR [eax]
  00317	3a 11		 cmp	 dl, BYTE PTR [ecx]
  00319	75 1a		 jne	 SHORT $LN72@GetBaseGam
  0031b	84 d2		 test	 dl, dl
  0031d	74 12		 je	 SHORT $LN73@GetBaseGam
  0031f	8a 50 01	 mov	 dl, BYTE PTR [eax+1]
  00322	3a 51 01	 cmp	 dl, BYTE PTR [ecx+1]
  00325	75 0e		 jne	 SHORT $LN72@GetBaseGam
  00327	83 c0 02	 add	 eax, 2
  0032a	83 c1 02	 add	 ecx, 2
  0032d	84 d2		 test	 dl, dl
  0032f	75 e4		 jne	 SHORT $LL71@GetBaseGam
$LN73@GetBaseGam:
  00331	33 c0		 xor	 eax, eax
  00333	eb 05		 jmp	 SHORT $LN74@GetBaseGam
$LN72@GetBaseGam:
  00335	1b c0		 sbb	 eax, eax
  00337	83 c8 01	 or	 eax, 1
$LN74@GetBaseGam:
  0033a	85 c0		 test	 eax, eax
  0033c	75 1c		 jne	 SHORT $LN19@GetBaseGam

; 229  : 			{
; 230  : 				prj.m_fMonsterRespawnRate = (float)nBufValue / 100.0f;

  0033e	66 0f 6e c6	 movd	 xmm0, esi
  00342	0f 5b c0	 cvtdq2ps xmm0, xmm0
  00345	f3 0f 5e 05 00
	00 00 00	 divss	 xmm0, DWORD PTR __real@42c80000
  0034d	f3 0f 11 05 14
	34 00 00	 movss	 DWORD PTR ?prj@@3VCProject@@A+13332, xmm0

; 231  : 				TRACE( "Respawn GAME_SETTING %f\n", prj.m_fMonsterRespawnRate );
; 232  : 			}

  00355	e9 e6 fd ff ff	 jmp	 $LN119@GetBaseGam
$LN19@GetBaseGam:

; 233  : 			else
; 234  : 			if( strcmp( chBufName, "Aggressive" ) == 0 )

  0035a	b9 00 00 00 00	 mov	 ecx, OFFSET ??_C@_0L@ICGAFIAO@Aggressive@
  0035f	8d 85 7c ff ff
	ff		 lea	 eax, DWORD PTR _chBufName$[ebp]
$LL75@GetBaseGam:
  00365	8a 10		 mov	 dl, BYTE PTR [eax]
  00367	3a 11		 cmp	 dl, BYTE PTR [ecx]
  00369	75 1a		 jne	 SHORT $LN76@GetBaseGam
  0036b	84 d2		 test	 dl, dl
  0036d	74 12		 je	 SHORT $LN77@GetBaseGam
  0036f	8a 50 01	 mov	 dl, BYTE PTR [eax+1]
  00372	3a 51 01	 cmp	 dl, BYTE PTR [ecx+1]
  00375	75 0e		 jne	 SHORT $LN76@GetBaseGam
  00377	83 c0 02	 add	 eax, 2
  0037a	83 c1 02	 add	 ecx, 2
  0037d	84 d2		 test	 dl, dl
  0037f	75 e4		 jne	 SHORT $LL75@GetBaseGam
$LN77@GetBaseGam:
  00381	33 c0		 xor	 eax, eax
  00383	eb 05		 jmp	 SHORT $LN78@GetBaseGam
$LN76@GetBaseGam:
  00385	1b c0		 sbb	 eax, eax
  00387	83 c8 01	 or	 eax, 1
$LN78@GetBaseGam:
  0038a	85 c0		 test	 eax, eax
  0038c	75 1c		 jne	 SHORT $LN21@GetBaseGam

; 235  : 			{
; 236  : 				prj.m_fMonsterAggressiveRate = (float)nBufValue / 100.0f;

  0038e	66 0f 6e c6	 movd	 xmm0, esi
  00392	0f 5b c0	 cvtdq2ps xmm0, xmm0
  00395	f3 0f 5e 05 00
	00 00 00	 divss	 xmm0, DWORD PTR __real@42c80000
  0039d	f3 0f 11 05 10
	34 00 00	 movss	 DWORD PTR ?prj@@3VCProject@@A+13328, xmm0

; 237  : 				TRACE( "Aggressive GAME_SETTING %f\n", prj.m_fMonsterAggressiveRate );
; 238  : 			}

  003a5	e9 96 fd ff ff	 jmp	 $LN119@GetBaseGam
$LN21@GetBaseGam:

; 239  : 			else
; 240  : 			if( strcmp( chBufName, "Price" ) == 0 )

  003aa	b9 00 00 00 00	 mov	 ecx, OFFSET ??_C@_05NFJELHBG@Price@
  003af	8d 85 7c ff ff
	ff		 lea	 eax, DWORD PTR _chBufName$[ebp]
$LL79@GetBaseGam:
  003b5	8a 10		 mov	 dl, BYTE PTR [eax]
  003b7	3a 11		 cmp	 dl, BYTE PTR [ecx]
  003b9	75 1a		 jne	 SHORT $LN80@GetBaseGam
  003bb	84 d2		 test	 dl, dl
  003bd	74 12		 je	 SHORT $LN81@GetBaseGam
  003bf	8a 50 01	 mov	 dl, BYTE PTR [eax+1]
  003c2	3a 51 01	 cmp	 dl, BYTE PTR [ecx+1]
  003c5	75 0e		 jne	 SHORT $LN80@GetBaseGam
  003c7	83 c0 02	 add	 eax, 2
  003ca	83 c1 02	 add	 ecx, 2
  003cd	84 d2		 test	 dl, dl
  003cf	75 e4		 jne	 SHORT $LL79@GetBaseGam
$LN81@GetBaseGam:
  003d1	33 c0		 xor	 eax, eax
  003d3	eb 05		 jmp	 SHORT $LN82@GetBaseGam
$LN80@GetBaseGam:
  003d5	1b c0		 sbb	 eax, eax
  003d7	83 c8 01	 or	 eax, 1
$LN82@GetBaseGam:
  003da	85 c0		 test	 eax, eax
  003dc	0f 85 5e fd ff
	ff		 jne	 $LN119@GetBaseGam

; 241  : 			{
; 242  : 				prj.m_fShopCost = (float)nBufValue / 100.0f;

  003e2	66 0f 6e c6	 movd	 xmm0, esi
  003e6	0f 5b c0	 cvtdq2ps xmm0, xmm0
  003e9	f3 0f 5e 05 00
	00 00 00	 divss	 xmm0, DWORD PTR __real@42c80000
  003f1	f3 0f 11 05 00
	34 00 00	 movss	 DWORD PTR ?prj@@3VCProject@@A+13312, xmm0

; 243  : 				TRACE( "Price GAME_SETTING %f\n", prj.m_fShopCost );
; 244  : 			}
; 245  : 		}

  003f9	e9 42 fd ff ff	 jmp	 $LN119@GetBaseGam
$LN5@GetBaseGam:

; 246  : 		else if( lpstrTime != '\0' )

  003fe	85 db		 test	 ebx, ebx
  00400	0f 84 40 fd ff
	ff		 je	 $LN41@GetBaseGam

; 247  : 		{
; 248  : 			if( strcmp( chBufName, "Exp" ) == 0 )

  00406	b9 00 00 00 00	 mov	 ecx, OFFSET ??_C@_03HKMMIPC@Exp@
  0040b	8d 85 7c ff ff
	ff		 lea	 eax, DWORD PTR _chBufName$[ebp]
$LL83@GetBaseGam:
  00411	8a 10		 mov	 dl, BYTE PTR [eax]
  00413	3a 11		 cmp	 dl, BYTE PTR [ecx]
  00415	75 1a		 jne	 SHORT $LN84@GetBaseGam
  00417	84 d2		 test	 dl, dl
  00419	74 12		 je	 SHORT $LN85@GetBaseGam
  0041b	8a 50 01	 mov	 dl, BYTE PTR [eax+1]
  0041e	3a 51 01	 cmp	 dl, BYTE PTR [ecx+1]
  00421	75 0e		 jne	 SHORT $LN84@GetBaseGam
  00423	83 c0 02	 add	 eax, 2
  00426	83 c1 02	 add	 ecx, 2
  00429	84 d2		 test	 dl, dl
  0042b	75 e4		 jne	 SHORT $LL83@GetBaseGam
$LN85@GetBaseGam:
  0042d	33 c0		 xor	 eax, eax
  0042f	eb 05		 jmp	 SHORT $LN86@GetBaseGam
$LN84@GetBaseGam:
  00431	1b c0		 sbb	 eax, eax
  00433	83 c8 01	 or	 eax, 1
$LN86@GetBaseGam:
  00436	85 c0		 test	 eax, eax
  00438	75 0f		 jne	 SHORT $LN25@GetBaseGam

; 249  : 			{
; 250  : 				prj.m_fMonsterExpRate = 1.0f;

  0043a	c7 05 f8 33 00
	00 00 00 80 3f	 mov	 DWORD PTR ?prj@@3VCProject@@A+13304, 1065353216 ; 3f800000H

; 251  : 				TRACE( "Exp GAME_SETTING %f\n", prj.m_fMonsterExpRate );
; 252  : 			}

  00444	e9 fd fc ff ff	 jmp	 $LN41@GetBaseGam
$LN25@GetBaseGam:

; 253  : 			else
; 254  : 			if( strcmp( chBufName, "Penya" ) == 0 )

  00449	b9 00 00 00 00	 mov	 ecx, OFFSET ??_C@_05OPFOCHJP@Penya@
  0044e	8d 85 7c ff ff
	ff		 lea	 eax, DWORD PTR _chBufName$[ebp]
$LL87@GetBaseGam:
  00454	8a 10		 mov	 dl, BYTE PTR [eax]
  00456	3a 11		 cmp	 dl, BYTE PTR [ecx]
  00458	75 1a		 jne	 SHORT $LN88@GetBaseGam
  0045a	84 d2		 test	 dl, dl
  0045c	74 12		 je	 SHORT $LN89@GetBaseGam
  0045e	8a 50 01	 mov	 dl, BYTE PTR [eax+1]
  00461	3a 51 01	 cmp	 dl, BYTE PTR [ecx+1]
  00464	75 0e		 jne	 SHORT $LN88@GetBaseGam
  00466	83 c0 02	 add	 eax, 2
  00469	83 c1 02	 add	 ecx, 2
  0046c	84 d2		 test	 dl, dl
  0046e	75 e4		 jne	 SHORT $LL87@GetBaseGam
$LN89@GetBaseGam:
  00470	33 c0		 xor	 eax, eax
  00472	eb 05		 jmp	 SHORT $LN90@GetBaseGam
$LN88@GetBaseGam:
  00474	1b c0		 sbb	 eax, eax
  00476	83 c8 01	 or	 eax, 1
$LN90@GetBaseGam:
  00479	85 c0		 test	 eax, eax
  0047b	75 0f		 jne	 SHORT $LN27@GetBaseGam

; 255  : 			{
; 256  : 				prj.m_fGoldDropRate = 1.0f;

  0047d	c7 05 f4 33 00
	00 00 00 80 3f	 mov	 DWORD PTR ?prj@@3VCProject@@A+13300, 1065353216 ; 3f800000H

; 257  : 				TRACE( "Penya GAME_SETTING %f\n", prj.m_fGoldDropRate );
; 258  : 			}

  00487	e9 ba fc ff ff	 jmp	 $LN41@GetBaseGam
$LN27@GetBaseGam:

; 259  : 			else
; 260  : 			if( strcmp( chBufName, "ItemDrop" ) == 0 )

  0048c	b9 00 00 00 00	 mov	 ecx, OFFSET ??_C@_08COMINNNE@ItemDrop@
  00491	8d 85 7c ff ff
	ff		 lea	 eax, DWORD PTR _chBufName$[ebp]
$LL91@GetBaseGam:
  00497	8a 10		 mov	 dl, BYTE PTR [eax]
  00499	3a 11		 cmp	 dl, BYTE PTR [ecx]
  0049b	75 1a		 jne	 SHORT $LN92@GetBaseGam
  0049d	84 d2		 test	 dl, dl
  0049f	74 12		 je	 SHORT $LN93@GetBaseGam
  004a1	8a 50 01	 mov	 dl, BYTE PTR [eax+1]
  004a4	3a 51 01	 cmp	 dl, BYTE PTR [ecx+1]
  004a7	75 0e		 jne	 SHORT $LN92@GetBaseGam
  004a9	83 c0 02	 add	 eax, 2
  004ac	83 c1 02	 add	 ecx, 2
  004af	84 d2		 test	 dl, dl
  004b1	75 e4		 jne	 SHORT $LL91@GetBaseGam
$LN93@GetBaseGam:
  004b3	33 c0		 xor	 eax, eax
  004b5	eb 05		 jmp	 SHORT $LN94@GetBaseGam
$LN92@GetBaseGam:
  004b7	1b c0		 sbb	 eax, eax
  004b9	83 c8 01	 or	 eax, 1
$LN94@GetBaseGam:
  004bc	85 c0		 test	 eax, eax
  004be	75 0f		 jne	 SHORT $LN29@GetBaseGam

; 261  : 			{
; 262  : 				prj.m_fItemDropRate = 1.0f;

  004c0	c7 05 f0 33 00
	00 00 00 80 3f	 mov	 DWORD PTR ?prj@@3VCProject@@A+13296, 1065353216 ; 3f800000H

; 263  : 				TRACE( "ItemDrop GAME_SETTING %f\n", prj.m_fItemDropRate );
; 264  : 			}

  004ca	e9 77 fc ff ff	 jmp	 $LN41@GetBaseGam
$LN29@GetBaseGam:

; 265  : 			else
; 266  : 			if( strcmp( chBufName, "Rebirth" ) == 0 )

  004cf	b9 00 00 00 00	 mov	 ecx, OFFSET ??_C@_07LKKEEFDG@Rebirth@
  004d4	8d 85 7c ff ff
	ff		 lea	 eax, DWORD PTR _chBufName$[ebp]
  004da	66 0f 1f 44 00
	00		 npad	 6
$LL95@GetBaseGam:
  004e0	8a 10		 mov	 dl, BYTE PTR [eax]
  004e2	3a 11		 cmp	 dl, BYTE PTR [ecx]
  004e4	75 1a		 jne	 SHORT $LN96@GetBaseGam
  004e6	84 d2		 test	 dl, dl
  004e8	74 12		 je	 SHORT $LN97@GetBaseGam
  004ea	8a 50 01	 mov	 dl, BYTE PTR [eax+1]
  004ed	3a 51 01	 cmp	 dl, BYTE PTR [ecx+1]
  004f0	75 0e		 jne	 SHORT $LN96@GetBaseGam
  004f2	83 c0 02	 add	 eax, 2
  004f5	83 c1 02	 add	 ecx, 2
  004f8	84 d2		 test	 dl, dl
  004fa	75 e4		 jne	 SHORT $LL95@GetBaseGam
$LN97@GetBaseGam:
  004fc	33 c0		 xor	 eax, eax
  004fe	eb 05		 jmp	 SHORT $LN98@GetBaseGam
$LN96@GetBaseGam:
  00500	1b c0		 sbb	 eax, eax
  00502	83 c8 01	 or	 eax, 1
$LN98@GetBaseGam:
  00505	85 c0		 test	 eax, eax
  00507	75 0f		 jne	 SHORT $LN31@GetBaseGam

; 267  : 			{
; 268  : 				prj.m_fMonsterRebirthRate = 1.0f;

  00509	c7 05 08 34 00
	00 00 00 80 3f	 mov	 DWORD PTR ?prj@@3VCProject@@A+13320, 1065353216 ; 3f800000H

; 269  : 				TRACE( "Rebirth GAME_SETTING %f\n", prj.m_fMonsterRebirthRate );
; 270  : 			}

  00513	e9 2e fc ff ff	 jmp	 $LN41@GetBaseGam
$LN31@GetBaseGam:

; 271  : 			else
; 272  : 			if( strcmp( chBufName, "HitPoint" ) == 0 )

  00518	b9 00 00 00 00	 mov	 ecx, OFFSET ??_C@_08PDOHAPNM@HitPoint@
  0051d	8d 85 7c ff ff
	ff		 lea	 eax, DWORD PTR _chBufName$[ebp]
$LL99@GetBaseGam:
  00523	8a 10		 mov	 dl, BYTE PTR [eax]
  00525	3a 11		 cmp	 dl, BYTE PTR [ecx]
  00527	75 1a		 jne	 SHORT $LN100@GetBaseGam
  00529	84 d2		 test	 dl, dl
  0052b	74 12		 je	 SHORT $LN101@GetBaseGam
  0052d	8a 50 01	 mov	 dl, BYTE PTR [eax+1]
  00530	3a 51 01	 cmp	 dl, BYTE PTR [ecx+1]
  00533	75 0e		 jne	 SHORT $LN100@GetBaseGam
  00535	83 c0 02	 add	 eax, 2
  00538	83 c1 02	 add	 ecx, 2
  0053b	84 d2		 test	 dl, dl
  0053d	75 e4		 jne	 SHORT $LL99@GetBaseGam
$LN101@GetBaseGam:
  0053f	33 c0		 xor	 eax, eax
  00541	eb 05		 jmp	 SHORT $LN102@GetBaseGam
$LN100@GetBaseGam:
  00543	1b c0		 sbb	 eax, eax
  00545	83 c8 01	 or	 eax, 1
$LN102@GetBaseGam:
  00548	85 c0		 test	 eax, eax
  0054a	75 0f		 jne	 SHORT $LN33@GetBaseGam

; 273  : 			{
; 274  : 				prj.m_fMonsterHitpointRate = 1.0f;

  0054c	c7 05 0c 34 00
	00 00 00 80 3f	 mov	 DWORD PTR ?prj@@3VCProject@@A+13324, 1065353216 ; 3f800000H

; 275  : 				TRACE( "HitPointExp GAME_SETTING %f\n", prj.m_fMonsterHitpointRate );
; 276  : 			}

  00556	e9 eb fb ff ff	 jmp	 $LN41@GetBaseGam
$LN33@GetBaseGam:

; 277  : 			else
; 278  : 			if( strcmp( chBufName, "AttackPower" ) == 0 )

  0055b	b9 00 00 00 00	 mov	 ecx, OFFSET ??_C@_0M@LAGJIOMN@AttackPower@
  00560	8d 85 7c ff ff
	ff		 lea	 eax, DWORD PTR _chBufName$[ebp]
$LL103@GetBaseGam:
  00566	8a 10		 mov	 dl, BYTE PTR [eax]
  00568	3a 11		 cmp	 dl, BYTE PTR [ecx]
  0056a	75 1a		 jne	 SHORT $LN104@GetBaseGam
  0056c	84 d2		 test	 dl, dl
  0056e	74 12		 je	 SHORT $LN105@GetBaseGam
  00570	8a 50 01	 mov	 dl, BYTE PTR [eax+1]
  00573	3a 51 01	 cmp	 dl, BYTE PTR [ecx+1]
  00576	75 0e		 jne	 SHORT $LN104@GetBaseGam
  00578	83 c0 02	 add	 eax, 2
  0057b	83 c1 02	 add	 ecx, 2
  0057e	84 d2		 test	 dl, dl
  00580	75 e4		 jne	 SHORT $LL103@GetBaseGam
$LN105@GetBaseGam:
  00582	33 c0		 xor	 eax, eax
  00584	eb 05		 jmp	 SHORT $LN106@GetBaseGam
$LN104@GetBaseGam:
  00586	1b c0		 sbb	 eax, eax
  00588	83 c8 01	 or	 eax, 1
$LN106@GetBaseGam:
  0058b	85 c0		 test	 eax, eax
  0058d	75 0f		 jne	 SHORT $LN35@GetBaseGam

; 279  : 			{
; 280  : 				prj.m_fMonsterHitRate = 1.0f;

  0058f	c7 05 fc 33 00
	00 00 00 80 3f	 mov	 DWORD PTR ?prj@@3VCProject@@A+13308, 1065353216 ; 3f800000H

; 281  : 				TRACE( "AttackPower GAME_SETTING %f\n", prj.m_fMonsterHitRate );
; 282  : 			}

  00599	e9 a8 fb ff ff	 jmp	 $LN41@GetBaseGam
$LN35@GetBaseGam:

; 283  : 			else
; 284  : 			if( strcmp( chBufName, "Respawn" ) == 0 )

  0059e	b9 00 00 00 00	 mov	 ecx, OFFSET ??_C@_07JGOIAFF@Respawn@
  005a3	8d 85 7c ff ff
	ff		 lea	 eax, DWORD PTR _chBufName$[ebp]
  005a9	0f 1f 80 00 00
	00 00		 npad	 7
$LL107@GetBaseGam:
  005b0	8a 10		 mov	 dl, BYTE PTR [eax]
  005b2	3a 11		 cmp	 dl, BYTE PTR [ecx]
  005b4	75 1a		 jne	 SHORT $LN108@GetBaseGam
  005b6	84 d2		 test	 dl, dl
  005b8	74 12		 je	 SHORT $LN109@GetBaseGam
  005ba	8a 50 01	 mov	 dl, BYTE PTR [eax+1]
  005bd	3a 51 01	 cmp	 dl, BYTE PTR [ecx+1]
  005c0	75 0e		 jne	 SHORT $LN108@GetBaseGam
  005c2	83 c0 02	 add	 eax, 2
  005c5	83 c1 02	 add	 ecx, 2
  005c8	84 d2		 test	 dl, dl
  005ca	75 e4		 jne	 SHORT $LL107@GetBaseGam
$LN109@GetBaseGam:
  005cc	33 c0		 xor	 eax, eax
  005ce	eb 05		 jmp	 SHORT $LN110@GetBaseGam
$LN108@GetBaseGam:
  005d0	1b c0		 sbb	 eax, eax
  005d2	83 c8 01	 or	 eax, 1
$LN110@GetBaseGam:
  005d5	85 c0		 test	 eax, eax
  005d7	75 0f		 jne	 SHORT $LN37@GetBaseGam

; 285  : 			{
; 286  : 				prj.m_fMonsterRespawnRate = 1.0f;

  005d9	c7 05 14 34 00
	00 00 00 80 3f	 mov	 DWORD PTR ?prj@@3VCProject@@A+13332, 1065353216 ; 3f800000H

; 287  : 				TRACE( "Respawn GAME_SETTING %f\n", prj.m_fMonsterRespawnRate );
; 288  : 			}

  005e3	e9 5e fb ff ff	 jmp	 $LN41@GetBaseGam
$LN37@GetBaseGam:

; 289  : 			else
; 290  : 			if( strcmp( chBufName, "Aggressive" ) == 0 )

  005e8	b9 00 00 00 00	 mov	 ecx, OFFSET ??_C@_0L@ICGAFIAO@Aggressive@
  005ed	8d 85 7c ff ff
	ff		 lea	 eax, DWORD PTR _chBufName$[ebp]
$LL111@GetBaseGam:
  005f3	8a 10		 mov	 dl, BYTE PTR [eax]
  005f5	3a 11		 cmp	 dl, BYTE PTR [ecx]
  005f7	75 1a		 jne	 SHORT $LN112@GetBaseGam
  005f9	84 d2		 test	 dl, dl
  005fb	74 12		 je	 SHORT $LN113@GetBaseGam
  005fd	8a 50 01	 mov	 dl, BYTE PTR [eax+1]
  00600	3a 51 01	 cmp	 dl, BYTE PTR [ecx+1]
  00603	75 0e		 jne	 SHORT $LN112@GetBaseGam
  00605	83 c0 02	 add	 eax, 2
  00608	83 c1 02	 add	 ecx, 2
  0060b	84 d2		 test	 dl, dl
  0060d	75 e4		 jne	 SHORT $LL111@GetBaseGam
$LN113@GetBaseGam:
  0060f	33 c0		 xor	 eax, eax
  00611	eb 05		 jmp	 SHORT $LN114@GetBaseGam
$LN112@GetBaseGam:
  00613	1b c0		 sbb	 eax, eax
  00615	83 c8 01	 or	 eax, 1
$LN114@GetBaseGam:
  00618	85 c0		 test	 eax, eax
  0061a	75 0f		 jne	 SHORT $LN39@GetBaseGam

; 291  : 			{
; 292  : 				prj.m_fMonsterAggressiveRate = 0.2f;

  0061c	c7 05 10 34 00
	00 cd cc 4c 3e	 mov	 DWORD PTR ?prj@@3VCProject@@A+13328, 1045220557 ; 3e4ccccdH

; 293  : 				TRACE( "Aggressive GAME_SETTING %f\n", prj.m_fMonsterAggressiveRate );
; 294  : 			}

  00626	e9 1b fb ff ff	 jmp	 $LN41@GetBaseGam
$LN39@GetBaseGam:

; 295  : 			else
; 296  : 			if( strcmp( chBufName, "Price" ) == 0 )

  0062b	b9 00 00 00 00	 mov	 ecx, OFFSET ??_C@_05NFJELHBG@Price@
  00630	8d 85 7c ff ff
	ff		 lea	 eax, DWORD PTR _chBufName$[ebp]
$LL115@GetBaseGam:
  00636	8a 10		 mov	 dl, BYTE PTR [eax]
  00638	3a 11		 cmp	 dl, BYTE PTR [ecx]
  0063a	75 1a		 jne	 SHORT $LN116@GetBaseGam
  0063c	84 d2		 test	 dl, dl
  0063e	74 12		 je	 SHORT $LN117@GetBaseGam
  00640	8a 50 01	 mov	 dl, BYTE PTR [eax+1]
  00643	3a 51 01	 cmp	 dl, BYTE PTR [ecx+1]
  00646	75 0e		 jne	 SHORT $LN116@GetBaseGam
  00648	83 c0 02	 add	 eax, 2
  0064b	83 c1 02	 add	 ecx, 2
  0064e	84 d2		 test	 dl, dl
  00650	75 e4		 jne	 SHORT $LL115@GetBaseGam
$LN117@GetBaseGam:
  00652	33 c0		 xor	 eax, eax
  00654	eb 05		 jmp	 SHORT $LN118@GetBaseGam
$LN116@GetBaseGam:
  00656	1b c0		 sbb	 eax, eax
  00658	83 c8 01	 or	 eax, 1
$LN118@GetBaseGam:
  0065b	85 c0		 test	 eax, eax
  0065d	0f 85 e3 fa ff
	ff		 jne	 $LN41@GetBaseGam

; 297  : 			{
; 298  : 				prj.m_fShopCost = 1.0f;

  00663	c7 05 00 34 00
	00 00 00 80 3f	 mov	 DWORD PTR ?prj@@3VCProject@@A+13312, 1065353216 ; 3f800000H
  0066d	e9 d4 fa ff ff	 jmp	 $LN41@GetBaseGam
?GetBaseGameSetting@CDbManager@@AAEHPAVCQuery@@PAD@Z ENDP ; CDbManager::GetBaseGameSetting
_TEXT	ENDS
; Function compile flags: /Ogtp
; File C:\IAGOS\server\v18\Source\Source\_Database\DBBackEndSystem.cpp
;	COMDAT ?GetGemeSettingtime@CDbManager@@AAEXPAVCQuery@@H@Z
_TEXT	SEGMENT
_szQuery$ = -1028					; size = 1024
__$ArrayPad$ = -4					; size = 4
_pQuery$ = 8						; size = 4
_nChat$ = 12						; size = 4
?GetGemeSettingtime@CDbManager@@AAEXPAVCQuery@@H@Z PROC	; CDbManager::GetGemeSettingtime, COMDAT
; _this$ = ecx

; 109  : {

  00000	55		 push	 ebp
  00001	8b ec		 mov	 ebp, esp
  00003	81 ec 04 04 00
	00		 sub	 esp, 1028		; 00000404H
  00009	a1 00 00 00 00	 mov	 eax, DWORD PTR ___security_cookie
  0000e	33 c5		 xor	 eax, ebp
  00010	89 45 fc	 mov	 DWORD PTR __$ArrayPad$[ebp], eax
  00013	56		 push	 esi
  00014	8b 75 08	 mov	 esi, DWORD PTR _pQuery$[ebp]

; 110  : 	char szQuery[1024];
; 111  : 	BOOL bResult = FALSE;
; 112  : 
; 113  : 	sprintf( szQuery, "GAME_BACKSYSTEM_STR 'S0'" );

  00017	8d 85 fc fb ff
	ff		 lea	 eax, DWORD PTR _szQuery$[ebp]
  0001d	68 00 00 00 00	 push	 OFFSET ??_C@_0BJ@POKGHGPN@GAME_BACKSYSTEM_STR?5?8S0?8@
  00022	50		 push	 eax
  00023	e8 00 00 00 00	 call	 _sprintf
  00028	83 c4 08	 add	 esp, 8

; 114  : 	if( FALSE == pQuery->Exec( szQuery ) )

  0002b	8d 85 fc fb ff
	ff		 lea	 eax, DWORD PTR _szQuery$[ebp]
  00031	8b ce		 mov	 ecx, esi
  00033	50		 push	 eax
  00034	e8 00 00 00 00	 call	 ?Exec@CQuery@@QAEHPBD@Z	; CQuery::Exec
  00039	85 c0		 test	 eax, eax
  0003b	75 2c		 jne	 SHORT $LN2@GetGemeSet

; 115  : 	{
; 116  : 		WriteLog( "%s, %d\t%s", __FILE__, __LINE__, szQuery );

  0003d	8d 85 fc fb ff
	ff		 lea	 eax, DWORD PTR _szQuery$[ebp]
  00043	50		 push	 eax
  00044	6a 74		 push	 116			; 00000074H
  00046	68 00 00 00 00	 push	 OFFSET ??_C@_0EA@IGAHIDM@C?3?2IAGOS?2server?2v18?2Source?2Sour@
  0004b	68 00 00 00 00	 push	 OFFSET ??_C@_09GBAEEKDE@?$CFs?0?5?$CFd?7?$CFs@
  00050	e8 00 00 00 00	 call	 ?WriteLog@@YAXPBDZZ	; WriteLog
  00055	83 c4 10	 add	 esp, 16			; 00000010H
  00058	5e		 pop	 esi

; 135  : 		}
; 136  : 		
; 137  : 	}		
; 138  : }

  00059	8b 4d fc	 mov	 ecx, DWORD PTR __$ArrayPad$[ebp]
  0005c	33 cd		 xor	 ecx, ebp
  0005e	e8 00 00 00 00	 call	 @__security_check_cookie@4
  00063	8b e5		 mov	 esp, ebp
  00065	5d		 pop	 ebp
  00066	c2 08 00	 ret	 8
$LN2@GetGemeSet:

; 117  : 		return;
; 118  : 	}	
; 119  : 	
; 120  : 	if( pQuery->Fetch() )

  00069	8b ce		 mov	 ecx, esi
  0006b	e8 00 00 00 00	 call	 ?Fetch@CQuery@@QAEHXZ	; CQuery::Fetch
  00070	85 c0		 test	 eax, eax
  00072	74 4e		 je	 SHORT $LN7@GetGemeSet

; 121  : 	{
; 122  : 		if( nChat == 0 )

  00074	8b 45 0c	 mov	 eax, DWORD PTR _nChat$[ebp]
  00077	8b ce		 mov	 ecx, esi
  00079	85 c0		 test	 eax, eax
  0007b	75 20		 jne	 SHORT $LN4@GetGemeSet

; 123  : 		{
; 124  : 			pQuery->GetStr( "curr_time", prj.m_chBackEndSystemChatTime );

  0007d	68 43 74 04 00	 push	 OFFSET ?prj@@3VCProject@@A+291907
  00082	68 00 00 00 00	 push	 OFFSET ??_C@_09OGDCHKLK@curr_time@
$LN17@GetGemeSet:

; 135  : 		}
; 136  : 		
; 137  : 	}		
; 138  : }

  00087	e8 00 00 00 00	 call	 ?GetStr@CQuery@@QAEXPAD0@Z ; CQuery::GetStr
  0008c	5e		 pop	 esi
  0008d	8b 4d fc	 mov	 ecx, DWORD PTR __$ArrayPad$[ebp]
  00090	33 cd		 xor	 ecx, ebp
  00092	e8 00 00 00 00	 call	 @__security_check_cookie@4
  00097	8b e5		 mov	 esp, ebp
  00099	5d		 pop	 ebp
  0009a	c2 08 00	 ret	 8
$LN4@GetGemeSet:

; 125  : 		}
; 126  : 		else
; 127  : 		if( nChat == 1 )

  0009d	68 34 74 04 00	 push	 OFFSET ?prj@@3VCProject@@A+291892
  000a2	68 00 00 00 00	 push	 OFFSET ??_C@_09OGDCHKLK@curr_time@
  000a7	83 f8 01	 cmp	 eax, 1
  000aa	74 db		 je	 SHORT $LN17@GetGemeSet

; 128  : 		{
; 129  : 			pQuery->GetStr( "curr_time", prj.m_chBackEndSystemTime );
; 130  : 		}
; 131  : 		else
; 132  : 		{
; 133  : 			pQuery->GetStr( "curr_time", prj.m_chBackEndSystemTime );

  000ac	e8 00 00 00 00	 call	 ?GetStr@CQuery@@QAEXPAD0@Z ; CQuery::GetStr

; 134  : 			strcpy( prj.m_chBackEndSystemChatTime, prj.m_chBackEndSystemTime );			

  000b1	b9 34 74 04 00	 mov	 ecx, OFFSET ?prj@@3VCProject@@A+291892
$LL9@GetGemeSet:
  000b6	8a 01		 mov	 al, BYTE PTR [ecx]
  000b8	8d 49 01	 lea	 ecx, DWORD PTR [ecx+1]
  000bb	88 41 0e	 mov	 BYTE PTR [ecx+14], al
  000be	84 c0		 test	 al, al
  000c0	75 f4		 jne	 SHORT $LL9@GetGemeSet
$LN7@GetGemeSet:

; 135  : 		}
; 136  : 		
; 137  : 	}		
; 138  : }

  000c2	8b 4d fc	 mov	 ecx, DWORD PTR __$ArrayPad$[ebp]
  000c5	33 cd		 xor	 ecx, ebp
  000c7	5e		 pop	 esi
  000c8	e8 00 00 00 00	 call	 @__security_check_cookie@4
  000cd	8b e5		 mov	 esp, ebp
  000cf	5d		 pop	 ebp
  000d0	c2 08 00	 ret	 8
?GetGemeSettingtime@CDbManager@@AAEXPAVCQuery@@H@Z ENDP	; CDbManager::GetGemeSettingtime
_TEXT	ENDS
; Function compile flags: /Ogtp
; File C:\IAGOS\server\v18\Source\Source\_Database\DBBackEndSystem.cpp
; File C:\Program Files\Microsoft Visual Studio\2022\Professional\VC\Tools\MSVC\14.44.35207\atlmfc\include\atltime.h
; File C:\IAGOS\server\v18\Source\Source\_Database\DBBackEndSystem.cpp
;	COMDAT ?BackSystem@CDbManager@@QAEXXZ
_TEXT	SEGMENT
$T2 = -4280						; size = 4
_hHandle$1$ = -4280					; size = 4
_nRemoveMonsterRespawnSize$ = -4276			; size = 4
_nChatCount$ = -4276					; size = 4
_nRemoveRespawn$ = -4272				; size = 4096
_s$3 = -176						; size = 128
_chBackEndSystemChatTime$ = -48				; size = 15
_chBackEndSystemTime$ = -32				; size = 15
__$ArrayPad$ = -16					; size = 4
__$EHRec$ = -12						; size = 12
?BackSystem@CDbManager@@QAEXXZ PROC			; CDbManager::BackSystem, COMDAT
; _this$ = ecx

; 21   : {

  00000	55		 push	 ebp
  00001	8b ec		 mov	 ebp, esp
  00003	6a ff		 push	 -1
  00005	68 00 00 00 00	 push	 __ehhandler$?BackSystem@CDbManager@@QAEXXZ
  0000a	64 a1 00 00 00
	00		 mov	 eax, DWORD PTR fs:0
  00010	50		 push	 eax
  00011	b8 ac 10 00 00	 mov	 eax, 4268		; 000010acH
  00016	e8 00 00 00 00	 call	 __chkstk
  0001b	a1 00 00 00 00	 mov	 eax, DWORD PTR ___security_cookie
  00020	33 c5		 xor	 eax, ebp
  00022	89 45 f0	 mov	 DWORD PTR __$ArrayPad$[ebp], eax
  00025	53		 push	 ebx
  00026	56		 push	 esi
  00027	57		 push	 edi
  00028	50		 push	 eax
  00029	8d 45 f4	 lea	 eax, DWORD PTR __$EHRec$[ebp]
  0002c	64 a3 00 00 00
	00		 mov	 DWORD PTR fs:0, eax
  00032	8b f9		 mov	 edi, ecx

; 22   : 	if( prj.m_bBackEndSystem == FALSE )

  00034	83 3d 1c 34 00
	00 00		 cmp	 DWORD PTR ?prj@@3VCProject@@A+13340, 0
  0003b	0f 84 65 02 00
	00		 je	 $LN34@BackSystem

; 23   : 		return;
; 24   : 
; 25   : 	CQuery* pQuery	= new CQuery;

  00041	68 10 3d 00 00	 push	 15632			; 00003d10H
  00046	e8 00 00 00 00	 call	 ??2@YAPAXI@Z		; operator new
  0004b	83 c4 04	 add	 esp, 4
  0004e	89 85 48 ef ff
	ff		 mov	 DWORD PTR $T2[ebp], eax
  00054	c7 45 fc 00 00
	00 00		 mov	 DWORD PTR __$EHRec$[ebp+8], 0
  0005b	85 c0		 test	 eax, eax
  0005d	74 0b		 je	 SHORT $LN16@BackSystem
  0005f	8b c8		 mov	 ecx, eax
  00061	e8 00 00 00 00	 call	 ??0CQuery@@QAE@XZ	; CQuery::CQuery
  00066	8b f0		 mov	 esi, eax
  00068	eb 02		 jmp	 SHORT $LN17@BackSystem
$LN16@BackSystem:
  0006a	33 f6		 xor	 esi, esi
$LN17@BackSystem:

; 26   : 	if( FALSE == pQuery->Connect( 3, DSN_NAME_BACKSYSTEM, DB_ADMIN_ID_BACKSYSTEM, DB_ADMIN_PASS_BACKSYSTEM ) )

  0006c	8d 87 98 05 00
	00		 lea	 eax, DWORD PTR [edi+1432]
  00072	c7 45 fc ff ff
	ff ff		 mov	 DWORD PTR __$EHRec$[ebp+8], -1
  00079	50		 push	 eax
  0007a	68 00 00 00 00	 push	 OFFSET ?DB_ADMIN_ID_BACKSYSTEM@@3PADA ; DB_ADMIN_ID_BACKSYSTEM
  0007f	68 00 00 00 00	 push	 OFFSET ?DSN_NAME_BACKSYSTEM@@3PADA ; DSN_NAME_BACKSYSTEM
  00084	6a 03		 push	 3
  00086	8b ce		 mov	 ecx, esi
  00088	e8 00 00 00 00	 call	 ?Connect@CQuery@@QAEHHPAD0PBD@Z ; CQuery::Connect
  0008d	85 c0		 test	 eax, eax
  0008f	75 30		 jne	 SHORT $LN5@BackSystem

; 27   : 	{
; 28   : 		char s[128];
; 29   : 		sprintf( s, "%s, %d BackSystem Connect Failed", __FILE__, __LINE__ );

  00091	6a 1d		 push	 29			; 0000001dH
  00093	68 00 00 00 00	 push	 OFFSET ??_C@_0EA@IGAHIDM@C?3?2IAGOS?2server?2v18?2Source?2Sour@
  00098	8d 85 50 ff ff
	ff		 lea	 eax, DWORD PTR _s$3[ebp]
  0009e	68 00 00 00 00	 push	 OFFSET ??_C@_0CB@MFHCCELP@?$CFs?0?5?$CFd?5BackSystem?5Connect?5Faile@
  000a3	50		 push	 eax
  000a4	e8 00 00 00 00	 call	 _sprintf
  000a9	83 c4 10	 add	 esp, 16			; 00000010H

; 30   : 		AfxMessageBox( s );

  000ac	8d 85 50 ff ff
	ff		 lea	 eax, DWORD PTR _s$3[ebp]
  000b2	6a 00		 push	 0
  000b4	6a 00		 push	 0
  000b6	50		 push	 eax
  000b7	e8 00 00 00 00	 call	 ?AfxMessageBox@@YGHPBDII@Z ; AfxMessageBox

; 31   : 		SAFE_DELETE( pQuery );
; 32   : 		return;

  000bc	e9 cc 01 00 00	 jmp	 $LN3@BackSystem
$LN5@BackSystem:

; 33   : 	}
; 34   : 
; 35   : 	prj.m_nAddMonsterRespawnSize = 0;
; 36   : 	prj.m_nAddMonsterPropSize = 0;
; 37   : 	prj.m_nRemoveMonsterPropSize = 0;
; 38   : 	int nRemoveMonsterRespawnSize = 0;
; 39   : 	int nRemoveMonsterPropSize = 0;
; 40   : 
; 41   : 	GetGemeSettingtime( pQuery, 2 );

  000c1	6a 02		 push	 2
  000c3	56		 push	 esi
  000c4	8b cf		 mov	 ecx, edi
  000c6	c7 05 20 34 02
	00 00 00 00 00	 mov	 DWORD PTR ?prj@@3VCProject@@A+144416, 0
  000d0	c7 05 28 74 04
	00 00 00 00 00	 mov	 DWORD PTR ?prj@@3VCProject@@A+291880, 0
  000da	c7 05 2c 74 04
	00 00 00 00 00	 mov	 DWORD PTR ?prj@@3VCProject@@A+291884, 0
  000e4	c7 85 4c ef ff
	ff 00 00 00 00	 mov	 DWORD PTR _nRemoveMonsterRespawnSize$[ebp], 0
  000ee	e8 00 00 00 00	 call	 ?GetGemeSettingtime@CDbManager@@AAEXPAVCQuery@@H@Z ; CDbManager::GetGemeSettingtime

; 42   : 	GetBaseGameSetting( pQuery );

  000f3	6a 00		 push	 0
  000f5	56		 push	 esi
  000f6	8b cf		 mov	 ecx, edi
  000f8	e8 00 00 00 00	 call	 ?GetBaseGameSetting@CDbManager@@AAEHPAVCQuery@@PAD@Z ; CDbManager::GetBaseGameSetting

; 43   : 	GetMonsterRespawnSetting( pQuery, nRemoveMonsterRespawnSize );

  000fd	6a 00		 push	 0
  000ff	6a 00		 push	 0
  00101	8d 85 4c ef ff
	ff		 lea	 eax, DWORD PTR _nRemoveMonsterRespawnSize$[ebp]
  00107	8b cf		 mov	 ecx, edi
  00109	50		 push	 eax
  0010a	56		 push	 esi
  0010b	e8 00 00 00 00	 call	 ?GetMonsterRespawnSetting@CDbManager@@AAEXPAVCQuery@@AAHQAHPAD@Z ; CDbManager::GetMonsterRespawnSetting

; 44   : 	GetMonsterPropSetting( pQuery );

  00110	6a 00		 push	 0
  00112	56		 push	 esi
  00113	8b cf		 mov	 ecx, edi
  00115	e8 00 00 00 00	 call	 ?GetMonsterPropSetting@CDbManager@@AAEXPAVCQuery@@PAD@Z ; CDbManager::GetMonsterPropSetting

; 45   : 
; 46   : 	BOOL bComplete = TRUE;
; 47   : 	HANDLE hHandle	= m_hCloseWorker;

  0011a	8b 87 44 03 00
	00		 mov	 eax, DWORD PTR [edi+836]

; 48   : 
; 49   : 	
; 50   : 	
; 51   : 	int nRemoveRespawn[ 1024 ];
; 52   : 	
; 53   : 	char chBackEndSystemTime[15];
; 54   : 	char chBackEndSystemChatTime[15];
; 55   : 	int	nChatCount;
; 56   : 	int nCount = 0;

  00120	33 db		 xor	 ebx, ebx

; 57   : 	while( WaitForSingleObject( hHandle, 5000 ) == WAIT_TIMEOUT && bComplete == TRUE )	// 10ĂĘ	= 1000 * 10 //1000 * 60 * 5

  00122	68 88 13 00 00	 push	 5000			; 00001388H
  00127	50		 push	 eax
  00128	89 85 48 ef ff
	ff		 mov	 DWORD PTR _hHandle$1$[ebp], eax
  0012e	ff 15 00 00 00
	00		 call	 DWORD PTR __imp__WaitForSingleObject@8
  00134	3d 02 01 00 00	 cmp	 eax, 258		; 00000102H
  00139	0f 85 4e 01 00
	00		 jne	 $LN3@BackSystem
  0013f	90		 npad	 1
$LL2@BackSystem:
; File C:\Program Files\Microsoft Visual Studio\2022\Professional\VC\Tools\MSVC\14.44.35207\atlmfc\include\atltime.h

; 377  : 	return( CTime( ::_time64( NULL ) ) );

  00140	6a 00		 push	 0
  00142	e8 00 00 00 00	 call	 __time64
  00147	83 c4 04	 add	 esp, 4
  0014a	33 c9		 xor	 ecx, ecx
  0014c	0f 1f 40 00	 npad	 4
$LL20@BackSystem:
; File C:\IAGOS\server\v18\Source\Source\_Database\DBBackEndSystem.cpp

; 62   : 		strcpy( chBackEndSystemChatTime, prj.m_chBackEndSystemChatTime );

  00150	8a 81 43 74 04
	00		 mov	 al, BYTE PTR ?prj@@3VCProject@@A[ecx+291907]
  00156	8d 49 01	 lea	 ecx, DWORD PTR [ecx+1]
  00159	88 44 0d cf	 mov	 BYTE PTR _chBackEndSystemChatTime$[ebp+ecx-1], al
  0015d	84 c0		 test	 al, al
  0015f	75 ef		 jne	 SHORT $LL20@BackSystem

; 63   : 		GetGemeSettingtime( pQuery, 0 );

  00161	6a 00		 push	 0
  00163	56		 push	 esi
  00164	8b cf		 mov	 ecx, edi
  00166	e8 00 00 00 00	 call	 ?GetGemeSettingtime@CDbManager@@AAEXPAVCQuery@@H@Z ; CDbManager::GetGemeSettingtime

; 64   : 		nChatCount = 0;
; 65   : 		if( GetGMChat( pQuery, chBackEndSystemChatTime, nChatCount ) )

  0016b	8d 85 4c ef ff
	ff		 lea	 eax, DWORD PTR _nChatCount$[ebp]
  00171	c7 85 4c ef ff
	ff 00 00 00 00	 mov	 DWORD PTR _nChatCount$[ebp], 0
  0017b	50		 push	 eax
  0017c	8d 45 d0	 lea	 eax, DWORD PTR _chBackEndSystemChatTime$[ebp]
  0017f	8b cf		 mov	 ecx, edi
  00181	50		 push	 eax
  00182	56		 push	 esi
  00183	e8 00 00 00 00	 call	 ?GetGMChat@CDbManager@@AAEHPAVCQuery@@PADAAH@Z ; CDbManager::GetGMChat
  00188	85 c0		 test	 eax, eax
  0018a	74 12		 je	 SHORT $LN7@BackSystem

; 66   : 		{
; 67   : 			CDPTrans::GetInstance()->SendGMChat( nChatCount );

  0018c	ff b5 4c ef ff
	ff		 push	 DWORD PTR _nChatCount$[ebp]
  00192	e8 00 00 00 00	 call	 ?GetInstance@CDPTrans@@SAPAV1@XZ ; CDPTrans::GetInstance
  00197	8b c8		 mov	 ecx, eax
  00199	e8 00 00 00 00	 call	 ?SendGMChat@CDPTrans@@QAEXH@Z ; CDPTrans::SendGMChat
$LN7@BackSystem:

; 68   : 		}
; 69   : 		++nCount;

  0019e	43		 inc	 ebx

; 70   : 
; 71   : 		if( nCount == MAX_BACKENDSYSTEM )

  0019f	83 fb 02	 cmp	 ebx, 2
  001a2	0f 85 c9 00 00
	00		 jne	 $LN12@BackSystem

; 72   : 		{
; 73   : 			nCount = 0;

  001a8	33 db		 xor	 ebx, ebx
  001aa	33 c9		 xor	 ecx, ecx
  001ac	0f 1f 40 00	 npad	 4
$LL21@BackSystem:

; 74   : 			strcpy( chBackEndSystemTime, prj.m_chBackEndSystemTime );

  001b0	8a 81 34 74 04
	00		 mov	 al, BYTE PTR ?prj@@3VCProject@@A[ecx+291892]
  001b6	8d 49 01	 lea	 ecx, DWORD PTR [ecx+1]
  001b9	88 44 0d df	 mov	 BYTE PTR _chBackEndSystemTime$[ebp+ecx-1], al
  001bd	84 c0		 test	 al, al
  001bf	75 ef		 jne	 SHORT $LL21@BackSystem

; 75   : 			
; 76   : 			GetGemeSettingtime( pQuery, 1 );

  001c1	6a 01		 push	 1
  001c3	56		 push	 esi
  001c4	8b cf		 mov	 ecx, edi
  001c6	e8 00 00 00 00	 call	 ?GetGemeSettingtime@CDbManager@@AAEXPAVCQuery@@H@Z ; CDbManager::GetGemeSettingtime

; 77   : 			if( GetBaseGameSetting( pQuery, chBackEndSystemTime ) )

  001cb	8d 45 e0	 lea	 eax, DWORD PTR _chBackEndSystemTime$[ebp]
  001ce	8b cf		 mov	 ecx, edi
  001d0	50		 push	 eax
  001d1	56		 push	 esi
  001d2	e8 00 00 00 00	 call	 ?GetBaseGameSetting@CDbManager@@AAEHPAVCQuery@@PAD@Z ; CDbManager::GetBaseGameSetting
  001d7	85 c0		 test	 eax, eax
  001d9	74 10		 je	 SHORT $LN9@BackSystem

; 78   : 			{
; 79   : 				CDPTrans::GetInstance()->SendBaseGameSetting( FALSE, DPID_ALLPLAYERS );

  001db	6a 00		 push	 0
  001dd	6a 00		 push	 0
  001df	e8 00 00 00 00	 call	 ?GetInstance@CDPTrans@@SAPAV1@XZ ; CDPTrans::GetInstance
  001e4	8b c8		 mov	 ecx, eax
  001e6	e8 00 00 00 00	 call	 ?SendBaseGameSetting@CDPTrans@@QAEXHK@Z ; CDPTrans::SendBaseGameSetting
$LN9@BackSystem:

; 80   : 			}
; 81   : 			
; 82   : 			prj.m_nAddMonsterRespawnSize = 0;
; 83   : 			prj.m_nAddMonsterPropSize = 0;
; 84   : 			prj.m_nRemoveMonsterPropSize = 0;
; 85   : 			nRemoveMonsterRespawnSize = 0;
; 86   : 			
; 87   : 			
; 88   : 			GetMonsterRespawnSetting( pQuery, nRemoveMonsterRespawnSize, nRemoveRespawn, chBackEndSystemTime );

  001eb	8d 45 e0	 lea	 eax, DWORD PTR _chBackEndSystemTime$[ebp]
  001ee	89 1d 20 34 02
	00		 mov	 DWORD PTR ?prj@@3VCProject@@A+144416, ebx
  001f4	50		 push	 eax
  001f5	8d 85 50 ef ff
	ff		 lea	 eax, DWORD PTR _nRemoveRespawn$[ebp]
  001fb	89 1d 28 74 04
	00		 mov	 DWORD PTR ?prj@@3VCProject@@A+291880, ebx
  00201	50		 push	 eax
  00202	8d 85 4c ef ff
	ff		 lea	 eax, DWORD PTR _nRemoveMonsterRespawnSize$[ebp]
  00208	89 1d 2c 74 04
	00		 mov	 DWORD PTR ?prj@@3VCProject@@A+291884, ebx
  0020e	50		 push	 eax
  0020f	56		 push	 esi
  00210	8b cf		 mov	 ecx, edi
  00212	89 9d 4c ef ff
	ff		 mov	 DWORD PTR _nRemoveMonsterRespawnSize$[ebp], ebx
  00218	e8 00 00 00 00	 call	 ?GetMonsterRespawnSetting@CDbManager@@AAEXPAVCQuery@@AAHQAHPAD@Z ; CDbManager::GetMonsterRespawnSetting

; 89   : 			if( 0 < prj.m_nAddMonsterRespawnSize || 0 < nRemoveMonsterRespawnSize )

  0021d	8b 85 4c ef ff
	ff		 mov	 eax, DWORD PTR _nRemoveMonsterRespawnSize$[ebp]
  00223	39 1d 20 34 02
	00		 cmp	 DWORD PTR ?prj@@3VCProject@@A+144416, ebx
  00229	7f 04		 jg	 SHORT $LN11@BackSystem
  0022b	85 c0		 test	 eax, eax
  0022d	7e 16		 jle	 SHORT $LN10@BackSystem
$LN11@BackSystem:

; 90   : 			{
; 91   : 				CDPTrans::GetInstance()->SendMonsterRespawnSetting( nRemoveMonsterRespawnSize, nRemoveRespawn, DPID_ALLPLAYERS );

  0022f	6a 00		 push	 0
  00231	8d 8d 50 ef ff
	ff		 lea	 ecx, DWORD PTR _nRemoveRespawn$[ebp]
  00237	51		 push	 ecx
  00238	50		 push	 eax
  00239	e8 00 00 00 00	 call	 ?GetInstance@CDPTrans@@SAPAV1@XZ ; CDPTrans::GetInstance
  0023e	8b c8		 mov	 ecx, eax
  00240	e8 00 00 00 00	 call	 ?SendMonsterRespawnSetting@CDPTrans@@QAEXHQAHK@Z ; CDPTrans::SendMonsterRespawnSetting
$LN10@BackSystem:

; 92   : 			}
; 93   : 			
; 94   : 			GetMonsterPropSetting( pQuery, chBackEndSystemTime );

  00245	8d 45 e0	 lea	 eax, DWORD PTR _chBackEndSystemTime$[ebp]
  00248	8b cf		 mov	 ecx, edi
  0024a	50		 push	 eax
  0024b	56		 push	 esi
  0024c	e8 00 00 00 00	 call	 ?GetMonsterPropSetting@CDbManager@@AAEXPAVCQuery@@PAD@Z ; CDbManager::GetMonsterPropSetting

; 95   : 			if( 0 < prj.m_nAddMonsterPropSize || 0 < prj.m_nRemoveMonsterPropSize )

  00251	39 1d 28 74 04
	00		 cmp	 DWORD PTR ?prj@@3VCProject@@A+291880, ebx
  00257	7f 08		 jg	 SHORT $LN13@BackSystem
  00259	39 1d 2c 74 04
	00		 cmp	 DWORD PTR ?prj@@3VCProject@@A+291884, ebx
  0025f	7e 10		 jle	 SHORT $LN12@BackSystem
$LN13@BackSystem:

; 96   : 			{
; 97   : 				CDPTrans::GetInstance()->SendMonsterPropSetting( FALSE, DPID_ALLPLAYERS );

  00261	6a 00		 push	 0
  00263	6a 00		 push	 0
  00265	e8 00 00 00 00	 call	 ?GetInstance@CDPTrans@@SAPAV1@XZ ; CDPTrans::GetInstance
  0026a	8b c8		 mov	 ecx, eax
  0026c	e8 00 00 00 00	 call	 ?SendMonsterPropSetting@CDPTrans@@QAEXHK@Z ; CDPTrans::SendMonsterPropSetting
$LN12@BackSystem:

; 57   : 	while( WaitForSingleObject( hHandle, 5000 ) == WAIT_TIMEOUT && bComplete == TRUE )	// 10ĂĘ	= 1000 * 10 //1000 * 60 * 5

  00271	68 88 13 00 00	 push	 5000			; 00001388H
  00276	ff b5 48 ef ff
	ff		 push	 DWORD PTR _hHandle$1$[ebp]
  0027c	ff 15 00 00 00
	00		 call	 DWORD PTR __imp__WaitForSingleObject@8
  00282	3d 02 01 00 00	 cmp	 eax, 258		; 00000102H
  00287	0f 84 b3 fe ff
	ff		 je	 $LL2@BackSystem
$LN3@BackSystem:

; 98   : 			}
; 99   : 		}
; 100  : 
; 101  : 		bComplete = TRUE;
; 102  : 
; 103  : 		TRACE( "Worker BackSystem\n" );
; 104  : 	}	
; 105  : 	SAFE_DELETE( pQuery );
; 106  : }

  0028d	85 f6		 test	 esi, esi
  0028f	74 15		 je	 SHORT $LN34@BackSystem
  00291	8b ce		 mov	 ecx, esi
  00293	e8 00 00 00 00	 call	 ??1CQuery@@QAE@XZ	; CQuery::~CQuery
  00298	68 10 3d 00 00	 push	 15632			; 00003d10H
  0029d	56		 push	 esi
  0029e	e8 00 00 00 00	 call	 ??3@YAXPAXI@Z		; operator delete
  002a3	83 c4 08	 add	 esp, 8
$LN34@BackSystem:
  002a6	8b 4d f4	 mov	 ecx, DWORD PTR __$EHRec$[ebp]
  002a9	64 89 0d 00 00
	00 00		 mov	 DWORD PTR fs:0, ecx
  002b0	59		 pop	 ecx
  002b1	5f		 pop	 edi
  002b2	5e		 pop	 esi
  002b3	5b		 pop	 ebx
  002b4	8b 4d f0	 mov	 ecx, DWORD PTR __$ArrayPad$[ebp]
  002b7	33 cd		 xor	 ecx, ebp
  002b9	e8 00 00 00 00	 call	 @__security_check_cookie@4
  002be	8b e5		 mov	 esp, ebp
  002c0	5d		 pop	 ebp
  002c1	c3		 ret	 0
_TEXT	ENDS
;	COMDAT text$x
text$x	SEGMENT
__unwindfunclet$?BackSystem@CDbManager@@QAEXXZ$0:
  00000	68 10 3d 00 00	 push	 15632			; 00003d10H
  00005	8b 85 48 ef ff
	ff		 mov	 eax, DWORD PTR $T2[ebp]
  0000b	50		 push	 eax
  0000c	e8 00 00 00 00	 call	 ??3@YAXPAXI@Z		; operator delete
  00011	83 c4 08	 add	 esp, 8
  00014	c3		 ret	 0
  00015	cc		 int	 3
  00016	cc		 int	 3
  00017	cc		 int	 3
  00018	cc		 int	 3
  00019	cc		 int	 3
__ehhandler$?BackSystem@CDbManager@@QAEXXZ:
  0001a	90		 npad	 1
  0001b	90		 npad	 1
  0001c	8b 54 24 08	 mov	 edx, DWORD PTR [esp+8]
  00020	8d 42 0c	 lea	 eax, DWORD PTR [edx+12]
  00023	8b 8a 44 ef ff
	ff		 mov	 ecx, DWORD PTR [edx-4284]
  00029	33 c8		 xor	 ecx, eax
  0002b	e8 00 00 00 00	 call	 @__security_check_cookie@4
  00030	8b 4a fc	 mov	 ecx, DWORD PTR [edx-4]
  00033	33 c8		 xor	 ecx, eax
  00035	e8 00 00 00 00	 call	 @__security_check_cookie@4
  0003a	b8 00 00 00 00	 mov	 eax, OFFSET __ehfuncinfo$?BackSystem@CDbManager@@QAEXXZ
  0003f	e9 00 00 00 00	 jmp	 ___CxxFrameHandler3
text$x	ENDS
?BackSystem@CDbManager@@QAEXXZ ENDP			; CDbManager::BackSystem
; Function compile flags: /Ogtp
; File C:\Program Files (x86)\Windows Kits\10\Include\10.0.26100.0\ucrt\stdio.h
;	COMDAT _sprintf
_TEXT	SEGMENT
__Buffer$ = 8						; size = 4
__Format$ = 12						; size = 4
_sprintf PROC						; COMDAT

; 1771 :     {

  00000	55		 push	 ebp
  00001	8b ec		 mov	 ebp, esp

; 1392 :         int const _Result = __stdio_common_vsprintf(

  00003	8d 45 10	 lea	 eax, DWORD PTR __Format$[ebp+4]
  00006	50		 push	 eax
  00007	6a 00		 push	 0
  00009	ff 75 0c	 push	 DWORD PTR __Format$[ebp]
  0000c	6a ff		 push	 -1
  0000e	ff 75 08	 push	 DWORD PTR __Buffer$[ebp]
  00011	e8 00 00 00 00	 call	 ___local_stdio_printf_options
  00016	8b 08		 mov	 ecx, DWORD PTR [eax]
  00018	ff 70 04	 push	 DWORD PTR [eax+4]
  0001b	83 c9 01	 or	 ecx, 1
  0001e	51		 push	 ecx
  0001f	e8 00 00 00 00	 call	 ___stdio_common_vsprintf

; 1393 :             _CRT_INTERNAL_LOCAL_PRINTF_OPTIONS | _CRT_INTERNAL_PRINTF_LEGACY_VSPRINTF_NULL_TERMINATION,
; 1394 :             _Buffer, _BufferCount, _Format, _Locale, _ArgList);
; 1395 : 
; 1396 :         return _Result < 0 ? -1 : _Result;

  00024	83 c9 ff	 or	 ecx, -1
  00027	83 c4 1c	 add	 esp, 28			; 0000001cH
  0002a	85 c0		 test	 eax, eax
  0002c	0f 48 c1	 cmovs	 eax, ecx

; 1772 :         int _Result;
; 1773 :         va_list _ArgList;
; 1774 :         __crt_va_start(_ArgList, _Format);
; 1775 : 
; 1776 :         _Result = _vsprintf_l(_Buffer, _Format, NULL, _ArgList);
; 1777 : 
; 1778 :         __crt_va_end(_ArgList);
; 1779 :         return _Result;
; 1780 :     }

  0002f	5d		 pop	 ebp
  00030	c3		 ret	 0
_sprintf ENDP
_TEXT	ENDS
; Function compile flags: /Ogtp
; File C:\Program Files (x86)\Windows Kits\10\Include\10.0.26100.0\ucrt\corecrt_stdio_config.h
;	COMDAT ___local_stdio_printf_options
_TEXT	SEGMENT
___local_stdio_printf_options PROC			; COMDAT

; 91   :         static unsigned __int64 _OptionsStorage;
; 92   :         return &_OptionsStorage;

  00000	b8 00 00 00 00	 mov	 eax, OFFSET ?_OptionsStorage@?1??__local_stdio_printf_options@@9@4_KA ; `__local_stdio_printf_options'::`2'::_OptionsStorage

; 93   :     }

  00005	c3		 ret	 0
___local_stdio_printf_options ENDP
_TEXT	ENDS
; Function compile flags: /Ogtp
; File C:\IAGOS\server\v18\Source\Source\_Database\DBBackEndSystem.cpp
;	COMDAT ?__empty_global_delete@@YAXPAXI@Z
_TEXT	SEGMENT
___formal$ = 8						; size = 4
___formal$ = 12						; size = 4
?__empty_global_delete@@YAXPAXI@Z PROC			; __empty_global_delete, COMDAT

  00000	c2 00 00	 ret	 0
?__empty_global_delete@@YAXPAXI@Z ENDP			; __empty_global_delete
_TEXT	ENDS
; Function compile flags: /Ogtp
; File C:\IAGOS\server\v18\Source\Source\_Database\DBBackEndSystem.cpp
;	COMDAT ?__empty_global_delete@@YAXPAX@Z
_TEXT	SEGMENT
___formal$ = 8						; size = 4
?__empty_global_delete@@YAXPAX@Z PROC			; __empty_global_delete, COMDAT

  00000	c2 00 00	 ret	 0
?__empty_global_delete@@YAXPAX@Z ENDP			; __empty_global_delete
_TEXT	ENDS
END
