; Listing generated by Microsoft (R) Optimizing Compiler Version 19.44.35225.0 

	TITLE	C:\IAGOS\server\v18\Source\Output\DatabaseServer\Release\DBConvertNew.obj
	.686P
	.XMM
	include listing.inc
	.model	flat

INCLUDELIB LIBCMT
INCLUDELIB OLDNAMES

PUBLIC	?hItemConvDlg@@3PAUHWND__@@A			; hItemConvDlg
PUBLIC	?hItemConvWndPB@@3PAUHWND__@@A			; hItemConvWndPB
_BSS	SEGMENT
?hItemConvDlg@@3PAUHWND__@@A DD 01H DUP (?)		; hItemConvDlg
?hItemConvWndPB@@3PAUHWND__@@A DD 01H DUP (?)		; hItemConvWndPB
_BSS	ENDS
PUBLIC	?__empty_global_delete@@YAXPAX@Z		; __empty_global_delete
PUBLIC	?__empty_global_delete@@YAXPAXI@Z		; __empty_global_delete
PUBLIC	___local_stdio_printf_options
PUBLIC	_fprintf
PUBLIC	_sprintf
PUBLIC	??0exception@std@@QAE@ABV01@@Z			; std::exception::exception
PUBLIC	??1exception@std@@UAE@XZ			; std::exception::~exception
PUBLIC	?what@exception@std@@UBEPBDXZ			; std::exception::what
PUBLIC	??_Gexception@std@@UAEPAXI@Z			; std::exception::`scalar deleting destructor'
PUBLIC	??0bad_alloc@std@@QAE@ABV01@@Z			; std::bad_alloc::bad_alloc
PUBLIC	??_Gbad_alloc@std@@UAEPAXI@Z			; std::bad_alloc::`scalar deleting destructor'
PUBLIC	??0bad_array_new_length@std@@QAE@XZ		; std::bad_array_new_length::bad_array_new_length
PUBLIC	??1bad_array_new_length@std@@UAE@XZ		; std::bad_array_new_length::~bad_array_new_length
PUBLIC	??0bad_array_new_length@std@@QAE@ABV01@@Z	; std::bad_array_new_length::bad_array_new_length
PUBLIC	??_Gbad_array_new_length@std@@UAEPAXI@Z		; std::bad_array_new_length::`scalar deleting destructor'
PUBLIC	?_Throw_bad_array_new_length@std@@YAXXZ		; std::_Throw_bad_array_new_length
PUBLIC	?_Xlen_string@std@@YAXXZ			; std::_Xlen_string
PUBLIC	?GetItemProp@CProject@@QAEPAUItemProp@@PBD@Z	; CProject::GetItemProp
PUBLIC	?push_back@?$list@PAXV?$allocator@PAX@std@@@std@@QAEXABQAX@Z ; std::list<void *,std::allocator<void *> >::push_back
PUBLIC	??0?$CItemContainer@VCItemElem@@@@QAE@XZ	; CItemContainer<CItemElem>::CItemContainer<CItemElem>
PUBLIC	??1?$CItemContainer@VCItemElem@@@@UAE@XZ	; CItemContainer<CItemElem>::~CItemContainer<CItemElem>
PUBLIC	?SetItemContainer@?$CItemContainer@VCItemElem@@@@QAEXKKK@Z ; CItemContainer<CItemElem>::SetItemContainer
PUBLIC	?GetAtId@?$CItemContainer@VCItemElem@@@@QAEPAVCItemElem@@K@Z ; CItemContainer<CItemElem>::GetAtId
PUBLIC	?RemoveAtId@?$CItemContainer@VCItemElem@@@@QAEXK@Z ; CItemContainer<CItemElem>::RemoveAtId
PUBLIC	??_G?$CItemContainer@VCItemElem@@@@UAEPAXI@Z	; CItemContainer<CItemElem>::`scalar deleting destructor'
PUBLIC	??3CMover@@SAXPAX@Z				; CMover::operator delete
PUBLIC	?RemoveItemInvenBank@CDbManager@@QAEHPAVCMover@@PAH1@Z ; CDbManager::RemoveItemInvenBank
PUBLIC	?RemoveItemGuildBank@CDbManager@@QAEHHPAV?$CItemContainer@VCItemElem@@@@PAH1@Z ; CDbManager::RemoveItemGuildBank
PUBLIC	?GetRemoveItemPanya@CDbManager@@QAEKHH@Z	; CDbManager::GetRemoveItemPanya
PUBLIC	?InitConvItemDialog@CDbManager@@QAEXXZ		; CDbManager::InitConvItemDialog
PUBLIC	?UpdateConvItemDialog@CDbManager@@QAEXPAD00H@Z	; CDbManager::UpdateConvItemDialog
PUBLIC	?ConvItemConnectDB@CDbManager@@QAEHPAVCQuery@@0@Z ; CDbManager::ConvItemConnectDB
PUBLIC	?GetMaxInventory@CDbManager@@QAEKPADPAVCQuery@@1@Z ; CDbManager::GetMaxInventory
PUBLIC	?GetMaxGuildBank@CDbManager@@QAEKPADPAVCQuery@@1@Z ; CDbManager::GetMaxGuildBank
PUBLIC	?CreateInvenBankView@CDbManager@@QAEHPADPAVCQuery@@1@Z ; CDbManager::CreateInvenBankView
PUBLIC	?CreateGuildBankView@CDbManager@@QAEHPADPAVCQuery@@1@Z ; CDbManager::CreateGuildBankView
PUBLIC	?DeleteInvenBankView@CDbManager@@QAEHPADPAVCQuery@@1@Z ; CDbManager::DeleteInvenBankView
PUBLIC	?DeleteGuildBankView@CDbManager@@QAEHPADPAVCQuery@@1@Z ; CDbManager::DeleteGuildBankView
PUBLIC	?GetInventoryBankView@CDbManager@@QAEHPADPAVCQuery@@1@Z ; CDbManager::GetInventoryBankView
PUBLIC	?GetGuildBankView@CDbManager@@QAEHPADPAVCQuery@@1@Z ; CDbManager::GetGuildBankView
PUBLIC	?GetUserInventoryBank@CDbManager@@QAEHPAVCMover@@PAVCQuery@@@Z ; CDbManager::GetUserInventoryBank
PUBLIC	?InventoryBankConv@CDbManager@@QAEHPADPAVCMover@@PAVCQuery@@2@Z ; CDbManager::InventoryBankConv
PUBLIC	?GuildBankConv@CDbManager@@QAEHPADHPAV?$CItemContainer@VCItemElem@@@@PAVCQuery@@2@Z ; CDbManager::GuildBankConv
PUBLIC	?RemoveGuildBankList@CDbManager@@QAEHPADHPAV?$CItemContainer@VCItemElem@@@@PAH2@Z ; CDbManager::RemoveGuildBankList
PUBLIC	?RemoveInventoryBankList@CDbManager@@QAEHPADPAVCMover@@PAH2@Z ; CDbManager::RemoveInventoryBankList
PUBLIC	?RemoveGuildBankListPanya@CDbManager@@QAEHPADHPAVCQuery@@1HH@Z ; CDbManager::RemoveGuildBankListPanya
PUBLIC	?RemoveInventoryBankListPanya@CDbManager@@QAEHPADPAVCMover@@PAVCQuery@@2HH@Z ; CDbManager::RemoveInventoryBankListPanya
PUBLIC	?SaveUserInventoryBank@CDbManager@@QAEHPADPAVCMover@@PAVCQuery@@2@Z ; CDbManager::SaveUserInventoryBank
PUBLIC	?SaveConvGuildBank@CDbManager@@QAEHPADHPAV?$CItemContainer@VCItemElem@@@@PAVCQuery@@2@Z ; CDbManager::SaveConvGuildBank
PUBLIC	?PiercingConfirmInventoryBank@CDbManager@@QAEHPAVCMover@@@Z ; CDbManager::PiercingConfirmInventoryBank
PUBLIC	?PiercingConfirmGuildBank@CDbManager@@QAEHHPAV?$CItemContainer@VCItemElem@@@@@Z ; CDbManager::PiercingConfirmGuildBank
PUBLIC	?ConvItemStart@CDbManager@@QAEHXZ		; CDbManager::ConvItemStart
PUBLIC	??$?MDU?$char_traits@D@std@@V?$allocator@D@1@@std@@YA_NABV?$basic_string@DU?$char_traits@D@std@@V?$allocator@D@2@@0@0@Z ; std::operator<<char,std::char_traits<char>,std::allocator<char> >
PUBLIC	??1?$_Alloc_construct_ptr@V?$allocator@U?$_List_node@PAXPAX@std@@@std@@@std@@QAE@XZ ; std::_Alloc_construct_ptr<std::allocator<std::_List_node<void *,void *> > >::~_Alloc_construct_ptr<std::allocator<std::_List_node<void *,void *> > >
PUBLIC	??$_Allocate_manually_vector_aligned@U_Default_allocate_traits@std@@@std@@YAPAXI@Z ; std::_Allocate_manually_vector_aligned<std::_Default_allocate_traits>
PUBLIC	?FILEOUT2@@YAXPBD0ZZ				; FILEOUT2
PUBLIC	?_OptionsStorage@?1??__local_stdio_printf_options@@9@4_KA ; `__local_stdio_printf_options'::`2'::_OptionsStorage
PUBLIC	??_7exception@std@@6B@				; std::exception::`vftable'
PUBLIC	??_C@_0BC@EOODALEL@Unknown?5exception@		; `string'
PUBLIC	??_7bad_alloc@std@@6B@				; std::bad_alloc::`vftable'
PUBLIC	??_7bad_array_new_length@std@@6B@		; std::bad_array_new_length::`vftable'
PUBLIC	??_C@_0BF@KINCDENJ@bad?5array?5new?5length@	; `string'
PUBLIC	??_R0?AVexception@std@@@8			; std::exception `RTTI Type Descriptor'
PUBLIC	__CT??_R0?AVexception@std@@@8??0exception@std@@QAE@ABV01@@Z12
PUBLIC	__TI3?AVbad_array_new_length@std@@
PUBLIC	__CTA3?AVbad_array_new_length@std@@
PUBLIC	??_R0?AVbad_array_new_length@std@@@8		; std::bad_array_new_length `RTTI Type Descriptor'
PUBLIC	__CT??_R0?AVbad_array_new_length@std@@@8??0bad_array_new_length@std@@QAE@ABV01@@Z12
PUBLIC	??_R0?AVbad_alloc@std@@@8			; std::bad_alloc `RTTI Type Descriptor'
PUBLIC	__CT??_R0?AVbad_alloc@std@@@8??0bad_alloc@std@@QAE@ABV01@@Z12
PUBLIC	??_C@_0BA@JFNIOLAK@string?5too?5long@		; `string'
PUBLIC	??_7?$CItemContainer@VCItemElem@@@@6B@		; CItemContainer<CItemElem>::`vftable'
PUBLIC	??_C@_09PKKCPLIP@bad?5alloc@			; `string'
PUBLIC	??_C@_0O@NKNMEGII@list?5too?5long@		; `string'
PUBLIC	??_R4exception@std@@6B@				; std::exception::`RTTI Complete Object Locator'
PUBLIC	??_R3exception@std@@8				; std::exception::`RTTI Class Hierarchy Descriptor'
PUBLIC	??_R2exception@std@@8				; std::exception::`RTTI Base Class Array'
PUBLIC	??_R1A@?0A@EA@exception@std@@8			; std::exception::`RTTI Base Class Descriptor at (0,-1,0,64)'
PUBLIC	??_R4bad_array_new_length@std@@6B@		; std::bad_array_new_length::`RTTI Complete Object Locator'
PUBLIC	??_R3bad_array_new_length@std@@8		; std::bad_array_new_length::`RTTI Class Hierarchy Descriptor'
PUBLIC	??_R2bad_array_new_length@std@@8		; std::bad_array_new_length::`RTTI Base Class Array'
PUBLIC	??_R1A@?0A@EA@bad_array_new_length@std@@8	; std::bad_array_new_length::`RTTI Base Class Descriptor at (0,-1,0,64)'
PUBLIC	??_R1A@?0A@EA@bad_alloc@std@@8			; std::bad_alloc::`RTTI Base Class Descriptor at (0,-1,0,64)'
PUBLIC	??_R3bad_alloc@std@@8				; std::bad_alloc::`RTTI Class Hierarchy Descriptor'
PUBLIC	??_R2bad_alloc@std@@8				; std::bad_alloc::`RTTI Base Class Array'
PUBLIC	??_R4bad_alloc@std@@6B@				; std::bad_alloc::`RTTI Complete Object Locator'
PUBLIC	??_R4?$CItemContainer@VCItemElem@@@@6B@		; CItemContainer<CItemElem>::`RTTI Complete Object Locator'
PUBLIC	??_R0?AV?$CItemContainer@VCItemElem@@@@@8	; CItemContainer<CItemElem> `RTTI Type Descriptor'
PUBLIC	??_R3?$CItemContainer@VCItemElem@@@@8		; CItemContainer<CItemElem>::`RTTI Class Hierarchy Descriptor'
PUBLIC	??_R2?$CItemContainer@VCItemElem@@@@8		; CItemContainer<CItemElem>::`RTTI Base Class Array'
PUBLIC	??_R1A@?0A@EA@?$CItemContainer@VCItemElem@@@@8	; CItemContainer<CItemElem>::`RTTI Base Class Descriptor at (0,-1,0,64)'
PUBLIC	??_C@_02PCIJFNDE@?$AN?6@			; `string'
PUBLIC	??_C@_01MCMALHOG@a@				; `string'
PUBLIC	??_C@_02BKFDOEMK@wt@				; `string'
PUBLIC	??_C@_05JENMLJIO@0?5?1?50@			; `string'
PUBLIC	??_C@_04LLJCPOLH@Init@				; `string'
PUBLIC	??_C@_0BB@FDLCCPK@Connect?5Not?5Item@		; `string'
PUBLIC	??_C@_0EP@NAMJIFIH@select?5count?5?$DN?5count?$CIm_idPlayer@ ; `string'
PUBLIC	??_C@_05IOMEMJEC@count@				; `string'
PUBLIC	??_C@_0BG@CKCLBOEC@Inven?5No?5Data?5Convert@	; `string'
PUBLIC	??_C@_0EP@KMPMKKMC@select?5count?5?$DN?5count?$CIm_idGuild?$CJ@ ; `string'
PUBLIC	??_C@_0BK@CFCEBDAL@GuildBank?5No?5Data?5Convert@ ; `string'
PUBLIC	??_C@_0JD@JEKOKICJ@?5if?5exists?5?$CIselect?5?$CK?5from?5dbo?4s@ ; `string'
PUBLIC	??_C@_0CIN@DLEPDECP@CREATE?5view?5seghope?5?5as?5?5select@ ; `string'
PUBLIC	??_C@_0JP@LDPJLGLD@?5if?5exists?5?$CIselect?5?$CK?5from?5dbo?4s@ ; `string'
PUBLIC	??_C@_0BAF@BHMIJDAM@CREATE?5view?5seghope_guild?5?5as?5?5@ ; `string'
PUBLIC	??_C@_0BC@MIENAMNJ@drop?5view?5seghope@		; `string'
PUBLIC	??_C@_0BI@PBCPAKJD@drop?5view?5seghope_guild@	; `string'
PUBLIC	??_C@_0BG@IGKJACAI@select?5?$CK?5from?5seghope@	; `string'
PUBLIC	??_C@_0BM@LEGEANNN@select?5?$CK?5from?5seghope_guild@ ; `string'
PUBLIC	??_C@_0L@FONFFEJF@m_idPlayer@			; `string'
PUBLIC	??_C@_0L@BLIMKIB@playerslot@			; `string'
PUBLIC	??_C@_0IG@DEIOPEPG@UPDATE?5INVENTORY_TBL?5SET?5m_Inve@ ; `string'
PUBLIC	??_C@_0BE@PAOPBHJN@?4?4?2ConvertQuery?4txt@	; `string'
PUBLIC	??_C@_06HHJABCJL@UPDATE@			; `string'
PUBLIC	??_C@_0IC@GOCAMAFG@UPDATE?5INVENTORY_EXT_TBL?5SET?5m_@ ; `string'
PUBLIC	??_C@_0BJ@HNFBAJDL@UPDATE?5INVENTORY_EXT_TBL@	; `string'
PUBLIC	??_C@_0IG@OELLNNGM@UPDATE?5BANK_TBL?5SET?5m_Bank?5?$DN?5?8?$CF@ ; `string'
PUBLIC	??_C@_0BA@HFOKCGBB@UPDATE?5BANK_TBL@		; `string'
PUBLIC	??_C@_0HD@HOMCPDMG@UPDATE?5BANK_EXT_TBL?5SET?5m_extBa@ ; `string'
PUBLIC	??_C@_0BE@BNFPHPPG@UPDATE?5BANK_EXT_TBL@	; `string'
PUBLIC	??_C@_0FP@DEDGGBGG@UPDATE?5GUILD_BANK_TBL?5SET?5m_Gui@ ; `string'
PUBLIC	??_C@_0IC@KHIDFCII@UPDATE?5GUILD_BANK_EXT_TBL?5SET?5m@ ; `string'
PUBLIC	??_C@_0GI@EMHCMEPI@UPDATE?5GUILD_TBL?5SET?5m_nGuildGo@ ; `string'
PUBLIC	??_C@_0DD@ICGMIJIF@GuildId?5?$DN?5?$CFd?0?5Item0?5?$DN?5?$CFd?0?5Item1@ ; `string'
PUBLIC	??_C@_0BC@JBKLBMKC@?4?4?2RemoveItem?4log@	; `string'
PUBLIC	??_C@_0CI@EEOAJLHJ@IdPlayer?5?$DN?5?$CF07d?0?5ItemName?5?3?5?$CFs?5@ ; `string'
PUBLIC	??_C@_0O@EFMGLFAG@?C?$LF?$LP?n?$MA?G?5?$LN?$LK?E?B?G?A@ ; `string'
PUBLIC	??_C@_0O@IEHBFJPC@?F?D?H?$LC?$MA?G?5?$LN?$LK?E?B?G?A@ ; `string'
PUBLIC	??_C@_0CF@GKENJFPN@GuildId?5?$DN?5?$CFd?0?5ItemName?5?3?5?$CFs?5?$CFd?1@ ; `string'
PUBLIC	??_C@_0GF@MLKCNPJL@UPDATE?5CHARACTER_TBL?5SET?5m_dwGo@ ; `string'
PUBLIC	??_C@_0DG@NAOGPEOL@IdPlayer?5?$DN?5?$CF07d?0?5Item0?5?$DN?5?$CFd?0?5It@ ; `string'
PUBLIC	??_C@_0DH@GNEHNCOD@IdPlayer?5?$DN?5?$CF07d?0?5ItemName?5?3?5?$CFs?5@ ; `string'
PUBLIC	??_C@_0CB@CKGEIIKM@?4?4?2RemoveItemPiercingConfirm?4lo@ ; `string'
PUBLIC	??_C@_0DH@HKBGNFHB@nGuildId?5?$DN?5?$CF06d?0?5ItemName?5?3?5?$CFs?5@ ; `string'
PUBLIC	??_C@_0O@EJJFONGK@ConvItemStart@		; `string'
PUBLIC	??_C@_07IPKKBMCH@?$CFd?5?1?5?$CFd@		; `string'
PUBLIC	??_C@_04OOLLELLG@0?5?$CF?$CF@			; `string'
PUBLIC	??_C@_0BA@OGBLLJAD@Inventory?0?5Bank@		; `string'
PUBLIC	??_C@_04FEAGFOMF@?$CFd?5?$CF@			; `string'
PUBLIC	??_C@_09KPBJBCIO@GuildBank@			; `string'
PUBLIC	??_C@_09MHDEIN@m_idGuild@			; `string'
PUBLIC	__real@42c80000
PUBLIC	__xmm@41f00000000000000000000000000000
EXTRN	??_L@YGXPAXIIP6EX0@Z1@Z:PROC			; `eh vector constructor iterator'
EXTRN	??2@YAPAXI@Z:PROC				; operator new
EXTRN	??3@YAXPAXI@Z:PROC				; operator delete
EXTRN	??_U@YAPAXI@Z:PROC				; operator new[]
EXTRN	??_V@YAXPAX@Z:PROC				; operator delete[]
EXTRN	??_V@YAXPAXI@Z:PROC				; operator delete[]
EXTRN	__invoke_watson:PROC
EXTRN	__imp__EnterCriticalSection@4:PROC
EXTRN	__imp__LeaveCriticalSection@4:PROC
EXTRN	__imp__VirtualAlloc@16:PROC
EXTRN	__imp__lstrcmpA@8:PROC
EXTRN	__imp__SendMessageA@16:PROC
EXTRN	__imp__ShowWindow@8:PROC
EXTRN	__imp__CreateDialogParamA@20:PROC
EXTRN	__imp__GetDlgItem@8:PROC
EXTRN	__imp__SetDlgItemTextA@12:PROC
EXTRN	_fclose:PROC
EXTRN	_fopen:PROC
EXTRN	___stdio_common_vfprintf:PROC
EXTRN	___stdio_common_vsprintf:PROC
EXTRN	?AfxMessageBox@@YGHPBDII@Z:PROC			; AfxMessageBox
EXTRN	?_Xlength_error@std@@YAXPBD@Z:PROC		; std::_Xlength_error
EXTRN	___std_exception_copy:PROC
EXTRN	___std_exception_destroy:PROC
EXTRN	??_Eexception@std@@UAEPAXI@Z:PROC		; std::exception::`vector deleting destructor'
EXTRN	??_Ebad_alloc@std@@UAEPAXI@Z:PROC		; std::bad_alloc::`vector deleting destructor'
EXTRN	??_Ebad_array_new_length@std@@UAEPAXI@Z:PROC	; std::bad_array_new_length::`vector deleting destructor'
EXTRN	?Error@@YAPBDPBDZZ:PROC				; Error
EXTRN	?IsConvMode@CProject@@QAEHK@Z:PROC		; CProject::IsConvMode
EXTRN	?FILEOUT@@YAXPBD0ZZ:PROC			; FILEOUT
EXTRN	??0CQuery@@QAE@XZ:PROC				; CQuery::CQuery
EXTRN	??1CQuery@@QAE@XZ:PROC				; CQuery::~CQuery
EXTRN	?Connect@CQuery@@QAEHHPAD0PBD@Z:PROC		; CQuery::Connect
EXTRN	?Exec@CQuery@@QAEHPBD@Z:PROC			; CQuery::Exec
EXTRN	?Fetch@CQuery@@QAEHXZ:PROC			; CQuery::Fetch
EXTRN	?GetInt@CQuery@@QAEHPAD@Z:PROC			; CQuery::GetInt
EXTRN	?GetPiercingSize@CPiercing@@QAEHXZ:PROC		; CPiercing::GetPiercingSize
EXTRN	?GetPiercingItem@CPiercing@@QAEKH@Z:PROC	; CPiercing::GetPiercingItem
EXTRN	??0CItemElem@@QAE@XZ:PROC			; CItemElem::CItemElem
EXTRN	??1CItemElem@@UAE@XZ:PROC			; CItemElem::~CItemElem
EXTRN	??_E?$CItemContainer@VCItemElem@@@@UAEPAXI@Z:PROC ; CItemContainer<CItemElem>::`vector deleting destructor'
EXTRN	??0CMover@@QAE@XZ:PROC				; CMover::CMover
EXTRN	?SaveInventory@CDbManager@@QAEXPAVCMover@@PAU_ItemContainerStruct@@@Z:PROC ; CDbManager::SaveInventory
EXTRN	?SaveBank@CDbManager@@QAEXPAVCMover@@PAV?$CItemContainer@VCItemElem@@@@PAU_ItemContainerStruct@@@Z:PROC ; CDbManager::SaveBank
EXTRN	?SaveGuildBank@CDbManager@@QAEXPAV?$CItemContainer@VCItemElem@@@@PAU_ItemContainerStruct@@@Z:PROC ; CDbManager::SaveGuildBank
EXTRN	?GetInventory@CDbManager@@QAEHPAVCMover@@PAVCQuery@@PAUtagDB_OVERLAPPED_PLUS@@@Z:PROC ; CDbManager::GetInventory
EXTRN	?GetBankMover@CDbManager@@QAEHPAVCMover@@PAVCQuery@@H@Z:PROC ; CDbManager::GetBankMover
EXTRN	?GetGuildBank@CDbManager@@QAEXPAV?$CItemContainer@VCItemElem@@@@PAVCQuery@@@Z:PROC ; CDbManager::GetGuildBank
EXTRN	?VerifyPlayerDlgProc@@YGHPAUHWND__@@IIJ@Z:PROC	; VerifyPlayerDlgProc
EXTRN	@__security_check_cookie@4:PROC
EXTRN	__CxxThrowException@8:PROC
EXTRN	___CxxFrameHandler3:PROC
EXTRN	__chkstk:PROC
EXTRN	_memcpy:PROC
EXTRN	_memset:PROC
EXTRN	??_7type_info@@6B@:QWORD			; type_info::`vftable'
EXTRN	?prj@@3VCProject@@A:BYTE			; prj
EXTRN	?m_pPool@CMover@@2PAV?$MemPooler@VCMover@@@@A:DWORD ; CMover::m_pPool
EXTRN	?hMainWnd@@3PAUHWND__@@A:DWORD			; hMainWnd
EXTRN	?hInst@@3PAUHINSTANCE__@@A:DWORD		; hInst
EXTRN	?DSN_NAME_CHARACTER01@@3PADA:BYTE		; DSN_NAME_CHARACTER01
EXTRN	?DB_ADMIN_ID_CHARACTER01@@3PADA:BYTE		; DB_ADMIN_ID_CHARACTER01
EXTRN	?g_appInfo@@3UAppInfo@@A:QWORD			; g_appInfo
EXTRN	___security_cookie:DWORD
EXTRN	__fltused:DWORD
;	COMDAT ?_OptionsStorage@?1??__local_stdio_printf_options@@9@4_KA
_BSS	SEGMENT
?_OptionsStorage@?1??__local_stdio_printf_options@@9@4_KA DQ 01H DUP (?) ; `__local_stdio_printf_options'::`2'::_OptionsStorage
_BSS	ENDS
;	COMDAT ?szBuffer@?1??FILEOUT2@@YAXPBD0ZZ@4PADA
_BSS	SEGMENT
?szBuffer@?1??FILEOUT2@@YAXPBD0ZZ@4PADA DB 0a000H DUP (?) ; `FILEOUT2'::`2'::szBuffer
_BSS	ENDS
;	COMDAT __xmm@41f00000000000000000000000000000
CONST	SEGMENT
__xmm@41f00000000000000000000000000000 DB 00H, 00H, 00H, 00H, 00H, 00H, 00H
	DB	00H, 00H, 00H, 00H, 00H, 00H, 00H, 0f0H, 'A'
CONST	ENDS
;	COMDAT __real@42c80000
CONST	SEGMENT
__real@42c80000 DD 042c80000r			; 100
CONST	ENDS
;	COMDAT ??_C@_09MHDEIN@m_idGuild@
CONST	SEGMENT
??_C@_09MHDEIN@m_idGuild@ DB 'm_idGuild', 00H		; `string'
CONST	ENDS
;	COMDAT ??_C@_09KPBJBCIO@GuildBank@
CONST	SEGMENT
??_C@_09KPBJBCIO@GuildBank@ DB 'GuildBank', 00H		; `string'
CONST	ENDS
;	COMDAT ??_C@_04FEAGFOMF@?$CFd?5?$CF@
CONST	SEGMENT
??_C@_04FEAGFOMF@?$CFd?5?$CF@ DB '%d %', 00H		; `string'
CONST	ENDS
;	COMDAT ??_C@_0BA@OGBLLJAD@Inventory?0?5Bank@
CONST	SEGMENT
??_C@_0BA@OGBLLJAD@Inventory?0?5Bank@ DB 'Inventory, Bank', 00H ; `string'
CONST	ENDS
;	COMDAT ??_C@_04OOLLELLG@0?5?$CF?$CF@
CONST	SEGMENT
??_C@_04OOLLELLG@0?5?$CF?$CF@ DB '0 %%', 00H		; `string'
CONST	ENDS
;	COMDAT ??_C@_07IPKKBMCH@?$CFd?5?1?5?$CFd@
CONST	SEGMENT
??_C@_07IPKKBMCH@?$CFd?5?1?5?$CFd@ DB '%d / %d', 00H	; `string'
CONST	ENDS
;	COMDAT ??_C@_0O@EJJFONGK@ConvItemStart@
CONST	SEGMENT
??_C@_0O@EJJFONGK@ConvItemStart@ DB 'ConvItemStart', 00H ; `string'
CONST	ENDS
;	COMDAT ??_C@_0DH@HKBGNFHB@nGuildId?5?$DN?5?$CF06d?0?5ItemName?5?3?5?$CFs?5@
CONST	SEGMENT
??_C@_0DH@HKBGNFHB@nGuildId?5?$DN?5?$CF06d?0?5ItemName?5?3?5?$CFs?5@ DB 'n'
	DB	'GuildId = %06d, ItemName : %s %d/%d/%d %d/%d/%d/%d/%d', 00H ; `string'
CONST	ENDS
;	COMDAT ??_C@_0CB@CKGEIIKM@?4?4?2RemoveItemPiercingConfirm?4lo@
CONST	SEGMENT
??_C@_0CB@CKGEIIKM@?4?4?2RemoveItemPiercingConfirm?4lo@ DB '..\RemoveItem'
	DB	'PiercingConfirm.log', 00H			; `string'
CONST	ENDS
;	COMDAT ??_C@_0DH@GNEHNCOD@IdPlayer?5?$DN?5?$CF07d?0?5ItemName?5?3?5?$CFs?5@
CONST	SEGMENT
??_C@_0DH@GNEHNCOD@IdPlayer?5?$DN?5?$CF07d?0?5ItemName?5?3?5?$CFs?5@ DB 'I'
	DB	'dPlayer = %07d, ItemName : %s %d/%d/%d %d/%d/%d/%d/%d', 00H ; `string'
CONST	ENDS
;	COMDAT ??_C@_0DG@NAOGPEOL@IdPlayer?5?$DN?5?$CF07d?0?5Item0?5?$DN?5?$CFd?0?5It@
CONST	SEGMENT
??_C@_0DG@NAOGPEOL@IdPlayer?5?$DN?5?$CF07d?0?5Item0?5?$DN?5?$CFd?0?5It@ DB 'I'
	DB	'dPlayer = %07d, Item0 = %d, Item1 = %d, AddGold = %d', 00H ; `string'
CONST	ENDS
;	COMDAT ??_C@_0GF@MLKCNPJL@UPDATE?5CHARACTER_TBL?5SET?5m_dwGo@
CONST	SEGMENT
??_C@_0GF@MLKCNPJL@UPDATE?5CHARACTER_TBL?5SET?5m_dwGo@ DB 'UPDATE CHARACT'
	DB	'ER_TBL SET m_dwGold = m_dwGold + %d where m_idPlayer = ''%07d'
	DB	''' and serverindex = ''%02d''', 00H		; `string'
CONST	ENDS
;	COMDAT ??_C@_0CF@GKENJFPN@GuildId?5?$DN?5?$CFd?0?5ItemName?5?3?5?$CFs?5?$CFd?1@
CONST	SEGMENT
??_C@_0CF@GKENJFPN@GuildId?5?$DN?5?$CFd?0?5ItemName?5?3?5?$CFs?5?$CFd?1@ DB 'G'
	DB	'uildId = %d, ItemName : %s %d/%d/%d', 00H	; `string'
CONST	ENDS
;	COMDAT ??_C@_0O@IEHBFJPC@?F?D?H?$LC?$MA?G?5?$LN?$LK?E?B?G?A@
CONST	SEGMENT
??_C@_0O@IEHBFJPC@?F?D?H?$LC?$MA?G?5?$LN?$LK?E?B?G?A@ DB 0c6H, 0c4H, 0c8H
	DB	0b2H, 0c0H, 0c7H, ' ', 0bdH, 0baH, 0c5H, 0c2H, 0c7H, 0c1H, 00H ; `string'
CONST	ENDS
;	COMDAT ??_C@_0O@EFMGLFAG@?C?$LF?$LP?n?$MA?G?5?$LN?$LK?E?B?G?A@
CONST	SEGMENT
??_C@_0O@EFMGLFAG@?C?$LF?$LP?n?$MA?G?5?$LN?$LK?E?B?G?A@ DB 0c3H, 0b5H, 0bfH
	DB	0eeH, 0c0H, 0c7H, ' ', 0bdH, 0baH, 0c5H, 0c2H, 0c7H, 0c1H, 00H ; `string'
CONST	ENDS
;	COMDAT ??_C@_0CI@EEOAJLHJ@IdPlayer?5?$DN?5?$CF07d?0?5ItemName?5?3?5?$CFs?5@
CONST	SEGMENT
??_C@_0CI@EEOAJLHJ@IdPlayer?5?$DN?5?$CF07d?0?5ItemName?5?3?5?$CFs?5@ DB 'I'
	DB	'dPlayer = %07d, ItemName : %s %d/%d/%d', 00H ; `string'
CONST	ENDS
;	COMDAT ??_C@_0BC@JBKLBMKC@?4?4?2RemoveItem?4log@
CONST	SEGMENT
??_C@_0BC@JBKLBMKC@?4?4?2RemoveItem?4log@ DB '..\RemoveItem.log', 00H ; `string'
CONST	ENDS
;	COMDAT ??_C@_0DD@ICGMIJIF@GuildId?5?$DN?5?$CFd?0?5Item0?5?$DN?5?$CFd?0?5Item1@
CONST	SEGMENT
??_C@_0DD@ICGMIJIF@GuildId?5?$DN?5?$CFd?0?5Item0?5?$DN?5?$CFd?0?5Item1@ DB 'G'
	DB	'uildId = %d, Item0 = %d, Item1 = %d, AddGold = %d', 00H ; `string'
CONST	ENDS
;	COMDAT ??_C@_0GI@EMHCMEPI@UPDATE?5GUILD_TBL?5SET?5m_nGuildGo@
CONST	SEGMENT
??_C@_0GI@EMHCMEPI@UPDATE?5GUILD_TBL?5SET?5m_nGuildGo@ DB 'UPDATE GUILD_T'
	DB	'BL SET m_nGuildGold = m_nGuildGold + %d where m_idGuild = ''%'
	DB	'06d'' and serverindex = ''%02d''', 00H	; `string'
CONST	ENDS
;	COMDAT ??_C@_0IC@KHIDFCII@UPDATE?5GUILD_BANK_EXT_TBL?5SET?5m@
CONST	SEGMENT
??_C@_0IC@KHIDFCII@UPDATE?5GUILD_BANK_EXT_TBL?5SET?5m@ DB 'UPDATE GUILD_B'
	DB	'ANK_EXT_TBL SET m_extGuildBank = ''%s'', m_GuildBankPiercing '
	DB	'= ''%s'' where m_idGuild = ''%06d'' and serverindex = ''%02d'''
	DB	00H						; `string'
CONST	ENDS
;	COMDAT ??_C@_0FP@DEDGGBGG@UPDATE?5GUILD_BANK_TBL?5SET?5m_Gui@
CONST	SEGMENT
??_C@_0FP@DEDGGBGG@UPDATE?5GUILD_BANK_TBL?5SET?5m_Gui@ DB 'UPDATE GUILD_B'
	DB	'ANK_TBL SET m_GuildBank = ''%s'' where m_idGuild = ''%06d'' a'
	DB	'nd serverindex = ''%02d''', 00H		; `string'
CONST	ENDS
;	COMDAT ??_C@_0BE@BNFPHPPG@UPDATE?5BANK_EXT_TBL@
CONST	SEGMENT
??_C@_0BE@BNFPHPPG@UPDATE?5BANK_EXT_TBL@ DB 'UPDATE BANK_EXT_TBL', 00H ; `string'
CONST	ENDS
;	COMDAT ??_C@_0HD@HOMCPDMG@UPDATE?5BANK_EXT_TBL?5SET?5m_extBa@
CONST	SEGMENT
??_C@_0HD@HOMCPDMG@UPDATE?5BANK_EXT_TBL?5SET?5m_extBa@ DB 'UPDATE BANK_EX'
	DB	'T_TBL SET m_extBank = ''%s'', m_BankPiercing = ''%s'' where m'
	DB	'_idPlayer = ''%07d'' and serverindex = ''%02d''', 00H ; `string'
CONST	ENDS
;	COMDAT ??_C@_0BA@HFOKCGBB@UPDATE?5BANK_TBL@
CONST	SEGMENT
??_C@_0BA@HFOKCGBB@UPDATE?5BANK_TBL@ DB 'UPDATE BANK_TBL', 00H ; `string'
CONST	ENDS
;	COMDAT ??_C@_0IG@OELLNNGM@UPDATE?5BANK_TBL?5SET?5m_Bank?5?$DN?5?8?$CF@
CONST	SEGMENT
??_C@_0IG@OELLNNGM@UPDATE?5BANK_TBL?5SET?5m_Bank?5?$DN?5?8?$CF@ DB 'UPDAT'
	DB	'E BANK_TBL SET m_Bank = ''%s'', m_apIndex_Bank = ''%s'', m_dw'
	DB	'ObjIndex_Bank = ''%s'' where m_idPlayer = ''%07d'' and server'
	DB	'index = ''%02d''', 00H			; `string'
CONST	ENDS
;	COMDAT ??_C@_0BJ@HNFBAJDL@UPDATE?5INVENTORY_EXT_TBL@
CONST	SEGMENT
??_C@_0BJ@HNFBAJDL@UPDATE?5INVENTORY_EXT_TBL@ DB 'UPDATE INVENTORY_EXT_TB'
	DB	'L', 00H					; `string'
CONST	ENDS
;	COMDAT ??_C@_0IC@GOCAMAFG@UPDATE?5INVENTORY_EXT_TBL?5SET?5m_@
CONST	SEGMENT
??_C@_0IC@GOCAMAFG@UPDATE?5INVENTORY_EXT_TBL?5SET?5m_@ DB 'UPDATE INVENTO'
	DB	'RY_EXT_TBL SET m_extInventory = ''%s'', m_InventoryPiercing ='
	DB	' ''%s'' where m_idPlayer = ''%07d'' and serverindex = ''%02d'''
	DB	00H						; `string'
CONST	ENDS
;	COMDAT ??_C@_06HHJABCJL@UPDATE@
CONST	SEGMENT
??_C@_06HHJABCJL@UPDATE@ DB 'UPDATE', 00H		; `string'
CONST	ENDS
;	COMDAT ??_C@_0BE@PAOPBHJN@?4?4?2ConvertQuery?4txt@
CONST	SEGMENT
??_C@_0BE@PAOPBHJN@?4?4?2ConvertQuery?4txt@ DB '..\ConvertQuery.txt', 00H ; `string'
CONST	ENDS
;	COMDAT ??_C@_0IG@DEIOPEPG@UPDATE?5INVENTORY_TBL?5SET?5m_Inve@
CONST	SEGMENT
??_C@_0IG@DEIOPEPG@UPDATE?5INVENTORY_TBL?5SET?5m_Inve@ DB 'UPDATE INVENTO'
	DB	'RY_TBL SET m_Inventory = ''%s'', m_apIndex = ''%s'', m_dwObjI'
	DB	'ndex = ''%s'' where m_idPlayer = ''%07d'' and serverindex = '''
	DB	'%02d''', 00H				; `string'
CONST	ENDS
;	COMDAT ??_C@_0L@BLIMKIB@playerslot@
CONST	SEGMENT
??_C@_0L@BLIMKIB@playerslot@ DB 'playerslot', 00H	; `string'
CONST	ENDS
;	COMDAT ??_C@_0L@FONFFEJF@m_idPlayer@
CONST	SEGMENT
??_C@_0L@FONFFEJF@m_idPlayer@ DB 'm_idPlayer', 00H	; `string'
CONST	ENDS
;	COMDAT ??_C@_0BM@LEGEANNN@select?5?$CK?5from?5seghope_guild@
CONST	SEGMENT
??_C@_0BM@LEGEANNN@select?5?$CK?5from?5seghope_guild@ DB 'select * from s'
	DB	'eghope_guild', 00H				; `string'
CONST	ENDS
;	COMDAT ??_C@_0BG@IGKJACAI@select?5?$CK?5from?5seghope@
CONST	SEGMENT
??_C@_0BG@IGKJACAI@select?5?$CK?5from?5seghope@ DB 'select * from seghope'
	DB	00H						; `string'
CONST	ENDS
;	COMDAT ??_C@_0BI@PBCPAKJD@drop?5view?5seghope_guild@
CONST	SEGMENT
??_C@_0BI@PBCPAKJD@drop?5view?5seghope_guild@ DB 'drop view seghope_guild'
	DB	00H						; `string'
CONST	ENDS
;	COMDAT ??_C@_0BC@MIENAMNJ@drop?5view?5seghope@
CONST	SEGMENT
??_C@_0BC@MIENAMNJ@drop?5view?5seghope@ DB 'drop view seghope', 00H ; `string'
CONST	ENDS
;	COMDAT ??_C@_0BAF@BHMIJDAM@CREATE?5view?5seghope_guild?5?5as?5?5@
CONST	SEGMENT
??_C@_0BAF@BHMIJDAM@CREATE?5view?5seghope_guild?5?5as?5?5@ DB 'CREATE vie'
	DB	'w seghope_guild  as  select a.m_idGuild, a.m_GuildBank, b.m_e'
	DB	'xtGuildBank , b.m_GuildBankPiercing from  GUILD_BANK_TBL a(no'
	DB	'lock), GUILD_BANK_EXT_TBL b(nolock) where a.serverindex = b.s'
	DB	'erverindex and b.serverindex = ''%02d'' and a.m_idGuild = b.m'
	DB	'_idGuild', 00H				; `string'
CONST	ENDS
;	COMDAT ??_C@_0JP@LDPJLGLD@?5if?5exists?5?$CIselect?5?$CK?5from?5dbo?4s@
CONST	SEGMENT
??_C@_0JP@LDPJLGLD@?5if?5exists?5?$CIselect?5?$CK?5from?5dbo?4s@ DB ' if '
	DB	'exists (select * from dbo.sysobjects where id = object_id(N'''
	DB	'[dbo].[seghope_guild]'') and OBJECTPROPERTY(id, N''IsView'') '
	DB	'= 1) drop view [dbo].[seghope_guild]', 00H	; `string'
CONST	ENDS
;	COMDAT ??_C@_0CIN@DLEPDECP@CREATE?5view?5seghope?5?5as?5?5select@
CONST	SEGMENT
??_C@_0CIN@DLEPDECP@CREATE?5view?5seghope?5?5as?5?5select@ DB 'CREATE vie'
	DB	'w seghope  as  select a.m_idPlayer, a.m_Inventory, a.m_apInde'
	DB	'x, a.m_dwObjIndex, b.m_extInventory, b.m_InventoryPiercing, c'
	DB	'.m_Bank, c.m_apIndex_Bank, c.m_dwObjIndex_Bank,  d.m_extBank,'
	DB	' d.m_BankPiercing, e.playerslot from  INVENTORY_TBL a(nolock)'
	DB	', INVENTORY_EXT_TBL b(nolock), BANK_TBL c(nolock), BANK_EXT_T'
	DB	'BL d(nolock), CHARACTER_TBL e(nolock) where a.serverindex = b'
	DB	'.serverindex  and b.serverindex = c.serverindex  and c.server'
	DB	'index = d.serverindex  and d.serverindex = e.serverindex and '
	DB	'e.serverindex = ''%02d''  and a.m_idPlayer = b.m_idPlayer  an'
	DB	'd b.m_idPlayer = c.m_idPlayer  and c.m_idPlayer = d.m_idPlaye'
	DB	'r  and d.m_idPlayer = e.m_idPlayer', 00H	; `string'
CONST	ENDS
;	COMDAT ??_C@_0JD@JEKOKICJ@?5if?5exists?5?$CIselect?5?$CK?5from?5dbo?4s@
CONST	SEGMENT
??_C@_0JD@JEKOKICJ@?5if?5exists?5?$CIselect?5?$CK?5from?5dbo?4s@ DB ' if '
	DB	'exists (select * from dbo.sysobjects where id = object_id(N'''
	DB	'[dbo].[seghope]'') and OBJECTPROPERTY(id, N''IsView'') = 1) d'
	DB	'rop view [dbo].[seghope]', 00H		; `string'
CONST	ENDS
;	COMDAT ??_C@_0BK@CFCEBDAL@GuildBank?5No?5Data?5Convert@
CONST	SEGMENT
??_C@_0BK@CFCEBDAL@GuildBank?5No?5Data?5Convert@ DB 'GuildBank No Data Co'
	DB	'nvert', 00H					; `string'
CONST	ENDS
;	COMDAT ??_C@_0EP@KMPMKKMC@select?5count?5?$DN?5count?$CIm_idGuild?$CJ@
CONST	SEGMENT
??_C@_0EP@KMPMKKMC@select?5count?5?$DN?5count?$CIm_idGuild?$CJ@ DB 'selec'
	DB	't count = count(m_idGuild) from GUILD_BANK_TBL where serverin'
	DB	'dex = ''%02d''', 00H			; `string'
CONST	ENDS
;	COMDAT ??_C@_0BG@CKCLBOEC@Inven?5No?5Data?5Convert@
CONST	SEGMENT
??_C@_0BG@CKCLBOEC@Inven?5No?5Data?5Convert@ DB 'Inven No Data Convert', 00H ; `string'
CONST	ENDS
;	COMDAT ??_C@_05IOMEMJEC@count@
CONST	SEGMENT
??_C@_05IOMEMJEC@count@ DB 'count', 00H			; `string'
CONST	ENDS
;	COMDAT ??_C@_0EP@NAMJIFIH@select?5count?5?$DN?5count?$CIm_idPlayer@
CONST	SEGMENT
??_C@_0EP@NAMJIFIH@select?5count?5?$DN?5count?$CIm_idPlayer@ DB 'select c'
	DB	'ount = count(m_idPlayer) from INVENTORY_TBL where serverindex'
	DB	' = ''%02d''', 00H				; `string'
CONST	ENDS
;	COMDAT ??_C@_0BB@FDLCCPK@Connect?5Not?5Item@
CONST	SEGMENT
??_C@_0BB@FDLCCPK@Connect?5Not?5Item@ DB 'Connect Not Item', 00H ; `string'
CONST	ENDS
;	COMDAT ??_C@_04LLJCPOLH@Init@
CONST	SEGMENT
??_C@_04LLJCPOLH@Init@ DB 'Init', 00H			; `string'
CONST	ENDS
;	COMDAT ??_C@_05JENMLJIO@0?5?1?50@
CONST	SEGMENT
??_C@_05JENMLJIO@0?5?1?50@ DB '0 / 0', 00H		; `string'
CONST	ENDS
;	COMDAT ??_C@_02BKFDOEMK@wt@
CONST	SEGMENT
??_C@_02BKFDOEMK@wt@ DB 'wt', 00H			; `string'
CONST	ENDS
;	COMDAT ??_C@_01MCMALHOG@a@
CONST	SEGMENT
??_C@_01MCMALHOG@a@ DB 'a', 00H				; `string'
CONST	ENDS
;	COMDAT ??_C@_02PCIJFNDE@?$AN?6@
CONST	SEGMENT
??_C@_02PCIJFNDE@?$AN?6@ DB 0dH, 0aH, 00H		; `string'
CONST	ENDS
;	COMDAT ??_R1A@?0A@EA@?$CItemContainer@VCItemElem@@@@8
rdata$r	SEGMENT
??_R1A@?0A@EA@?$CItemContainer@VCItemElem@@@@8 DD FLAT:??_R0?AV?$CItemContainer@VCItemElem@@@@@8 ; CItemContainer<CItemElem>::`RTTI Base Class Descriptor at (0,-1,0,64)'
	DD	00H
	DD	00H
	DD	0ffffffffH
	DD	00H
	DD	040H
	DD	FLAT:??_R3?$CItemContainer@VCItemElem@@@@8
rdata$r	ENDS
;	COMDAT ??_R2?$CItemContainer@VCItemElem@@@@8
rdata$r	SEGMENT
??_R2?$CItemContainer@VCItemElem@@@@8 DD FLAT:??_R1A@?0A@EA@?$CItemContainer@VCItemElem@@@@8 ; CItemContainer<CItemElem>::`RTTI Base Class Array'
rdata$r	ENDS
;	COMDAT ??_R3?$CItemContainer@VCItemElem@@@@8
rdata$r	SEGMENT
??_R3?$CItemContainer@VCItemElem@@@@8 DD 00H		; CItemContainer<CItemElem>::`RTTI Class Hierarchy Descriptor'
	DD	00H
	DD	01H
	DD	FLAT:??_R2?$CItemContainer@VCItemElem@@@@8
rdata$r	ENDS
;	COMDAT ??_R0?AV?$CItemContainer@VCItemElem@@@@@8
data$rs	SEGMENT
??_R0?AV?$CItemContainer@VCItemElem@@@@@8 DD FLAT:??_7type_info@@6B@ ; CItemContainer<CItemElem> `RTTI Type Descriptor'
	DD	00H
	DB	'.?AV?$CItemContainer@VCItemElem@@@@', 00H
data$rs	ENDS
;	COMDAT ??_R4?$CItemContainer@VCItemElem@@@@6B@
rdata$r	SEGMENT
??_R4?$CItemContainer@VCItemElem@@@@6B@ DD 00H		; CItemContainer<CItemElem>::`RTTI Complete Object Locator'
	DD	00H
	DD	00H
	DD	FLAT:??_R0?AV?$CItemContainer@VCItemElem@@@@@8
	DD	FLAT:??_R3?$CItemContainer@VCItemElem@@@@8
rdata$r	ENDS
;	COMDAT ??_R4bad_alloc@std@@6B@
rdata$r	SEGMENT
??_R4bad_alloc@std@@6B@ DD 00H				; std::bad_alloc::`RTTI Complete Object Locator'
	DD	00H
	DD	00H
	DD	FLAT:??_R0?AVbad_alloc@std@@@8
	DD	FLAT:??_R3bad_alloc@std@@8
rdata$r	ENDS
;	COMDAT ??_R2bad_alloc@std@@8
rdata$r	SEGMENT
??_R2bad_alloc@std@@8 DD FLAT:??_R1A@?0A@EA@bad_alloc@std@@8 ; std::bad_alloc::`RTTI Base Class Array'
	DD	FLAT:??_R1A@?0A@EA@exception@std@@8
rdata$r	ENDS
;	COMDAT ??_R3bad_alloc@std@@8
rdata$r	SEGMENT
??_R3bad_alloc@std@@8 DD 00H				; std::bad_alloc::`RTTI Class Hierarchy Descriptor'
	DD	00H
	DD	02H
	DD	FLAT:??_R2bad_alloc@std@@8
rdata$r	ENDS
;	COMDAT ??_R1A@?0A@EA@bad_alloc@std@@8
rdata$r	SEGMENT
??_R1A@?0A@EA@bad_alloc@std@@8 DD FLAT:??_R0?AVbad_alloc@std@@@8 ; std::bad_alloc::`RTTI Base Class Descriptor at (0,-1,0,64)'
	DD	01H
	DD	00H
	DD	0ffffffffH
	DD	00H
	DD	040H
	DD	FLAT:??_R3bad_alloc@std@@8
rdata$r	ENDS
;	COMDAT ??_R1A@?0A@EA@bad_array_new_length@std@@8
rdata$r	SEGMENT
??_R1A@?0A@EA@bad_array_new_length@std@@8 DD FLAT:??_R0?AVbad_array_new_length@std@@@8 ; std::bad_array_new_length::`RTTI Base Class Descriptor at (0,-1,0,64)'
	DD	02H
	DD	00H
	DD	0ffffffffH
	DD	00H
	DD	040H
	DD	FLAT:??_R3bad_array_new_length@std@@8
rdata$r	ENDS
;	COMDAT ??_R2bad_array_new_length@std@@8
rdata$r	SEGMENT
??_R2bad_array_new_length@std@@8 DD FLAT:??_R1A@?0A@EA@bad_array_new_length@std@@8 ; std::bad_array_new_length::`RTTI Base Class Array'
	DD	FLAT:??_R1A@?0A@EA@bad_alloc@std@@8
	DD	FLAT:??_R1A@?0A@EA@exception@std@@8
rdata$r	ENDS
;	COMDAT ??_R3bad_array_new_length@std@@8
rdata$r	SEGMENT
??_R3bad_array_new_length@std@@8 DD 00H			; std::bad_array_new_length::`RTTI Class Hierarchy Descriptor'
	DD	00H
	DD	03H
	DD	FLAT:??_R2bad_array_new_length@std@@8
rdata$r	ENDS
;	COMDAT ??_R4bad_array_new_length@std@@6B@
rdata$r	SEGMENT
??_R4bad_array_new_length@std@@6B@ DD 00H		; std::bad_array_new_length::`RTTI Complete Object Locator'
	DD	00H
	DD	00H
	DD	FLAT:??_R0?AVbad_array_new_length@std@@@8
	DD	FLAT:??_R3bad_array_new_length@std@@8
rdata$r	ENDS
;	COMDAT ??_R1A@?0A@EA@exception@std@@8
rdata$r	SEGMENT
??_R1A@?0A@EA@exception@std@@8 DD FLAT:??_R0?AVexception@std@@@8 ; std::exception::`RTTI Base Class Descriptor at (0,-1,0,64)'
	DD	00H
	DD	00H
	DD	0ffffffffH
	DD	00H
	DD	040H
	DD	FLAT:??_R3exception@std@@8
rdata$r	ENDS
;	COMDAT ??_R2exception@std@@8
rdata$r	SEGMENT
??_R2exception@std@@8 DD FLAT:??_R1A@?0A@EA@exception@std@@8 ; std::exception::`RTTI Base Class Array'
rdata$r	ENDS
;	COMDAT ??_R3exception@std@@8
rdata$r	SEGMENT
??_R3exception@std@@8 DD 00H				; std::exception::`RTTI Class Hierarchy Descriptor'
	DD	00H
	DD	01H
	DD	FLAT:??_R2exception@std@@8
rdata$r	ENDS
;	COMDAT ??_R4exception@std@@6B@
rdata$r	SEGMENT
??_R4exception@std@@6B@ DD 00H				; std::exception::`RTTI Complete Object Locator'
	DD	00H
	DD	00H
	DD	FLAT:??_R0?AVexception@std@@@8
	DD	FLAT:??_R3exception@std@@8
rdata$r	ENDS
;	COMDAT ??_C@_0O@NKNMEGII@list?5too?5long@
CONST	SEGMENT
??_C@_0O@NKNMEGII@list?5too?5long@ DB 'list too long', 00H ; `string'
CONST	ENDS
;	COMDAT ??_C@_09PKKCPLIP@bad?5alloc@
CONST	SEGMENT
??_C@_09PKKCPLIP@bad?5alloc@ DB 'bad alloc', 00H	; `string'
CONST	ENDS
;	COMDAT ??_7?$CItemContainer@VCItemElem@@@@6B@
CONST	SEGMENT
??_7?$CItemContainer@VCItemElem@@@@6B@ DD FLAT:??_R4?$CItemContainer@VCItemElem@@@@6B@ ; CItemContainer<CItemElem>::`vftable'
	DD	FLAT:??_E?$CItemContainer@VCItemElem@@@@UAEPAXI@Z
CONST	ENDS
;	COMDAT ??_C@_0BA@JFNIOLAK@string?5too?5long@
CONST	SEGMENT
??_C@_0BA@JFNIOLAK@string?5too?5long@ DB 'string too long', 00H ; `string'
CONST	ENDS
;	COMDAT __CT??_R0?AVbad_alloc@std@@@8??0bad_alloc@std@@QAE@ABV01@@Z12
xdata$x	SEGMENT
__CT??_R0?AVbad_alloc@std@@@8??0bad_alloc@std@@QAE@ABV01@@Z12 DD 010H
	DD	FLAT:??_R0?AVbad_alloc@std@@@8
	DD	00H
	DD	0ffffffffH
	ORG $+4
	DD	0cH
	DD	FLAT:??0bad_alloc@std@@QAE@ABV01@@Z
xdata$x	ENDS
;	COMDAT ??_R0?AVbad_alloc@std@@@8
data$r	SEGMENT
??_R0?AVbad_alloc@std@@@8 DD FLAT:??_7type_info@@6B@	; std::bad_alloc `RTTI Type Descriptor'
	DD	00H
	DB	'.?AVbad_alloc@std@@', 00H
data$r	ENDS
;	COMDAT __CT??_R0?AVbad_array_new_length@std@@@8??0bad_array_new_length@std@@QAE@ABV01@@Z12
xdata$x	SEGMENT
__CT??_R0?AVbad_array_new_length@std@@@8??0bad_array_new_length@std@@QAE@ABV01@@Z12 DD 00H
	DD	FLAT:??_R0?AVbad_array_new_length@std@@@8
	DD	00H
	DD	0ffffffffH
	ORG $+4
	DD	0cH
	DD	FLAT:??0bad_array_new_length@std@@QAE@ABV01@@Z
xdata$x	ENDS
;	COMDAT ??_R0?AVbad_array_new_length@std@@@8
data$r	SEGMENT
??_R0?AVbad_array_new_length@std@@@8 DD FLAT:??_7type_info@@6B@ ; std::bad_array_new_length `RTTI Type Descriptor'
	DD	00H
	DB	'.?AVbad_array_new_length@std@@', 00H
data$r	ENDS
;	COMDAT __CTA3?AVbad_array_new_length@std@@
xdata$x	SEGMENT
__CTA3?AVbad_array_new_length@std@@ DD 03H
	DD	FLAT:__CT??_R0?AVbad_array_new_length@std@@@8??0bad_array_new_length@std@@QAE@ABV01@@Z12
	DD	FLAT:__CT??_R0?AVbad_alloc@std@@@8??0bad_alloc@std@@QAE@ABV01@@Z12
	DD	FLAT:__CT??_R0?AVexception@std@@@8??0exception@std@@QAE@ABV01@@Z12
xdata$x	ENDS
;	COMDAT __TI3?AVbad_array_new_length@std@@
xdata$x	SEGMENT
__TI3?AVbad_array_new_length@std@@ DD 00H
	DD	FLAT:??1bad_array_new_length@std@@UAE@XZ
	DD	00H
	DD	FLAT:__CTA3?AVbad_array_new_length@std@@
xdata$x	ENDS
;	COMDAT __CT??_R0?AVexception@std@@@8??0exception@std@@QAE@ABV01@@Z12
xdata$x	SEGMENT
__CT??_R0?AVexception@std@@@8??0exception@std@@QAE@ABV01@@Z12 DD 00H
	DD	FLAT:??_R0?AVexception@std@@@8
	DD	00H
	DD	0ffffffffH
	ORG $+4
	DD	0cH
	DD	FLAT:??0exception@std@@QAE@ABV01@@Z
xdata$x	ENDS
;	COMDAT ??_R0?AVexception@std@@@8
data$r	SEGMENT
??_R0?AVexception@std@@@8 DD FLAT:??_7type_info@@6B@	; std::exception `RTTI Type Descriptor'
	DD	00H
	DB	'.?AVexception@std@@', 00H
data$r	ENDS
;	COMDAT ??_C@_0BF@KINCDENJ@bad?5array?5new?5length@
CONST	SEGMENT
??_C@_0BF@KINCDENJ@bad?5array?5new?5length@ DB 'bad array new length', 00H ; `string'
CONST	ENDS
;	COMDAT ??_7bad_array_new_length@std@@6B@
CONST	SEGMENT
??_7bad_array_new_length@std@@6B@ DD FLAT:??_R4bad_array_new_length@std@@6B@ ; std::bad_array_new_length::`vftable'
	DD	FLAT:??_Ebad_array_new_length@std@@UAEPAXI@Z
	DD	FLAT:?what@exception@std@@UBEPBDXZ
CONST	ENDS
;	COMDAT ??_7bad_alloc@std@@6B@
CONST	SEGMENT
??_7bad_alloc@std@@6B@ DD FLAT:??_R4bad_alloc@std@@6B@	; std::bad_alloc::`vftable'
	DD	FLAT:??_Ebad_alloc@std@@UAEPAXI@Z
	DD	FLAT:?what@exception@std@@UBEPBDXZ
CONST	ENDS
;	COMDAT ??_C@_0BC@EOODALEL@Unknown?5exception@
CONST	SEGMENT
??_C@_0BC@EOODALEL@Unknown?5exception@ DB 'Unknown exception', 00H ; `string'
CONST	ENDS
;	COMDAT ??_7exception@std@@6B@
CONST	SEGMENT
??_7exception@std@@6B@ DD FLAT:??_R4exception@std@@6B@	; std::exception::`vftable'
	DD	FLAT:??_Eexception@std@@UAEPAXI@Z
	DD	FLAT:?what@exception@std@@UBEPBDXZ
CONST	ENDS
;	COMDAT xdata$x
xdata$x	SEGMENT
__unwindtable$??$?0ABQAX@?$_List_node_emplace_op2@V?$allocator@U?$_List_node@PAXPAX@std@@@std@@@std@@QAE@AAV?$allocator@U?$_List_node@PAXPAX@std@@@1@ABQAX@Z DD 0ffffffffH
	DD	FLAT:__unwindfunclet$??$?0ABQAX@?$_List_node_emplace_op2@V?$allocator@U?$_List_node@PAXPAX@std@@@std@@@std@@QAE@AAV?$allocator@U?$_List_node@PAXPAX@std@@@1@ABQAX@Z$0
__ehfuncinfo$??$?0ABQAX@?$_List_node_emplace_op2@V?$allocator@U?$_List_node@PAXPAX@std@@@std@@@std@@QAE@AAV?$allocator@U?$_List_node@PAXPAX@std@@@1@ABQAX@Z DD 019930522H
	DD	01H
	DD	FLAT:__unwindtable$??$?0ABQAX@?$_List_node_emplace_op2@V?$allocator@U?$_List_node@PAXPAX@std@@@std@@@std@@QAE@AAV?$allocator@U?$_List_node@PAXPAX@std@@@1@ABQAX@Z
	DD	2 DUP(00H)
	DD	2 DUP(00H)
	DD	00H
	DD	01H
xdata$x	ENDS
;	COMDAT xdata$x
xdata$x	SEGMENT
__unwindtable$??$_Emplace@ABQAX@?$list@PAXV?$allocator@PAX@std@@@std@@QAEPAU?$_List_node@PAXPAX@1@QAU21@ABQAX@Z DD 0ffffffffH
	DD	FLAT:__unwindfunclet$??$_Emplace@ABQAX@?$list@PAXV?$allocator@PAX@std@@@std@@QAEPAU?$_List_node@PAXPAX@1@QAU21@ABQAX@Z$1
__ehfuncinfo$??$_Emplace@ABQAX@?$list@PAXV?$allocator@PAX@std@@@std@@QAEPAU?$_List_node@PAXPAX@1@QAU21@ABQAX@Z DD 019930522H
	DD	01H
	DD	FLAT:__unwindtable$??$_Emplace@ABQAX@?$list@PAXV?$allocator@PAX@std@@@std@@QAEPAU?$_List_node@PAXPAX@1@QAU21@ABQAX@Z
	DD	2 DUP(00H)
	DD	2 DUP(00H)
	DD	00H
	DD	01H
xdata$x	ENDS
;	COMDAT xdata$x
xdata$x	SEGMENT
__unwindtable$?ConvItemStart@CDbManager@@QAEHXZ DD 0ffffffffH
	DD	FLAT:__unwindfunclet$?ConvItemStart@CDbManager@@QAEHXZ$0
	DD	0ffffffffH
	DD	FLAT:__unwindfunclet$?ConvItemStart@CDbManager@@QAEHXZ$1
	DD	0ffffffffH
	DD	FLAT:__unwindfunclet$?ConvItemStart@CDbManager@@QAEHXZ$2
	DD	0ffffffffH
	DD	FLAT:__unwindfunclet$?ConvItemStart@CDbManager@@QAEHXZ$3
__ehfuncinfo$?ConvItemStart@CDbManager@@QAEHXZ DD 019930522H
	DD	04H
	DD	FLAT:__unwindtable$?ConvItemStart@CDbManager@@QAEHXZ
	DD	2 DUP(00H)
	DD	2 DUP(00H)
	DD	00H
	DD	01H
xdata$x	ENDS
;	COMDAT xdata$x
xdata$x	SEGMENT
__unwindtable$?SetItemContainer@?$CItemContainer@VCItemElem@@@@QAEXKKK@Z DD 0ffffffffH
	DD	FLAT:__unwindfunclet$?SetItemContainer@?$CItemContainer@VCItemElem@@@@QAEXKKK@Z$0
__ehfuncinfo$?SetItemContainer@?$CItemContainer@VCItemElem@@@@QAEXKKK@Z DD 019930522H
	DD	01H
	DD	FLAT:__unwindtable$?SetItemContainer@?$CItemContainer@VCItemElem@@@@QAEXKKK@Z
	DD	2 DUP(00H)
	DD	2 DUP(00H)
	DD	00H
	DD	01H
xdata$x	ENDS
;	COMDAT xdata$x
xdata$x	SEGMENT
__unwindtable$?push_back@?$list@PAXV?$allocator@PAX@std@@@std@@QAEXABQAX@Z DD 0ffffffffH
	DD	FLAT:__unwindfunclet$?push_back@?$list@PAXV?$allocator@PAX@std@@@std@@QAEXABQAX@Z$1
__ehfuncinfo$?push_back@?$list@PAXV?$allocator@PAX@std@@@std@@QAEXABQAX@Z DD 019930522H
	DD	01H
	DD	FLAT:__unwindtable$?push_back@?$list@PAXV?$allocator@PAX@std@@@std@@QAEXABQAX@Z
	DD	2 DUP(00H)
	DD	2 DUP(00H)
	DD	00H
	DD	01H
xdata$x	ENDS
; Function compile flags: /Ogtp
; File C:\IAGOS\server\v18\Source\Source\_Database\DBConvertNew.cpp
; File C:\Program Files (x86)\Windows Kits\10\Include\10.0.26100.0\ucrt\stdio.h
; File C:\IAGOS\server\v18\Source\Source\_Database\DBConvertNew.cpp
;	COMDAT ?FILEOUT2@@YAXPBD0ZZ
_TEXT	SEGMENT
_lpszFileName$ = 8					; size = 4
_lpszFormat$ = 12					; size = 4
?FILEOUT2@@YAXPBD0ZZ PROC				; FILEOUT2, COMDAT

; 22   : {

  00000	55		 push	 ebp
  00001	8b ec		 mov	 ebp, esp
  00003	56		 push	 esi
; File C:\Program Files (x86)\Windows Kits\10\Include\10.0.26100.0\ucrt\stdio.h

; 1392 :         int const _Result = __stdio_common_vsprintf(

  00004	8d 45 10	 lea	 eax, DWORD PTR _lpszFormat$[ebp+4]
  00007	50		 push	 eax
  00008	6a 00		 push	 0
  0000a	ff 75 0c	 push	 DWORD PTR _lpszFormat$[ebp]
  0000d	68 00 a0 00 00	 push	 40960			; 0000a000H
  00012	68 00 00 00 00	 push	 OFFSET ?szBuffer@?1??FILEOUT2@@YAXPBD0ZZ@4PADA
  00017	e8 00 00 00 00	 call	 ___local_stdio_printf_options
  0001c	8b 08		 mov	 ecx, DWORD PTR [eax]
  0001e	ff 70 04	 push	 DWORD PTR [eax+4]
  00021	83 c9 01	 or	 ecx, 1
  00024	51		 push	 ecx
  00025	e8 00 00 00 00	 call	 ___stdio_common_vsprintf
; File C:\IAGOS\server\v18\Source\Source\_Database\DBConvertNew.cpp

; 29   : 	if(!(fp = fopen(lpszFileName,"a")))

  0002a	68 00 00 00 00	 push	 OFFSET ??_C@_01MCMALHOG@a@
  0002f	ff 75 08	 push	 DWORD PTR _lpszFileName$[ebp]
  00032	e8 00 00 00 00	 call	 _fopen
  00037	8b f0		 mov	 esi, eax
  00039	83 c4 24	 add	 esp, 36			; 00000024H
  0003c	85 f6		 test	 esi, esi
  0003e	75 16		 jne	 SHORT $LN3@FILEOUT2

; 30   : 		if(!(fp = fopen(lpszFileName,"wt")))

  00040	68 00 00 00 00	 push	 OFFSET ??_C@_02BKFDOEMK@wt@
  00045	ff 75 08	 push	 DWORD PTR _lpszFileName$[ebp]
  00048	e8 00 00 00 00	 call	 _fopen
  0004d	8b f0		 mov	 esi, eax
  0004f	83 c4 08	 add	 esp, 8
  00052	85 f6		 test	 esi, esi
  00054	74 1f		 je	 SHORT $LN1@FILEOUT2
$LN3@FILEOUT2:

; 31   : 			return;
; 32   : 		fprintf(fp,szBuffer);

  00056	68 00 00 00 00	 push	 OFFSET ?szBuffer@?1??FILEOUT2@@YAXPBD0ZZ@4PADA
  0005b	56		 push	 esi
  0005c	e8 00 00 00 00	 call	 _fprintf

; 33   : 		fprintf(fp,"\r\n");

  00061	68 00 00 00 00	 push	 OFFSET ??_C@_02PCIJFNDE@?$AN?6@
  00066	56		 push	 esi
  00067	e8 00 00 00 00	 call	 _fprintf

; 34   : 		va_end(args);
; 35   : 		fclose(fp);

  0006c	56		 push	 esi
  0006d	e8 00 00 00 00	 call	 _fclose
  00072	83 c4 14	 add	 esp, 20			; 00000014H
$LN1@FILEOUT2:
  00075	5e		 pop	 esi

; 36   : }

  00076	5d		 pop	 ebp
  00077	c3		 ret	 0
?FILEOUT2@@YAXPBD0ZZ ENDP				; FILEOUT2
_TEXT	ENDS
; Function compile flags: /Ogtp
; File C:\Program Files\Microsoft Visual Studio\2022\Professional\VC\Tools\MSVC\14.44.35207\include\xmemory
;	COMDAT ??$_Allocate_manually_vector_aligned@U_Default_allocate_traits@std@@@std@@YAPAXI@Z
_TEXT	SEGMENT
__Bytes$ = 8						; size = 4
??$_Allocate_manually_vector_aligned@U_Default_allocate_traits@std@@@std@@YAPAXI@Z PROC ; std::_Allocate_manually_vector_aligned<std::_Default_allocate_traits>, COMDAT

; 182  : __declspec(allocator) void* _Allocate_manually_vector_aligned(const size_t _Bytes) {

  00000	55		 push	 ebp
  00001	8b ec		 mov	 ebp, esp

; 183  :     // allocate _Bytes manually aligned to at least _Big_allocation_alignment
; 184  :     const size_t _Block_size = _Non_user_size + _Bytes;

  00003	8b 45 08	 mov	 eax, DWORD PTR __Bytes$[ebp]
  00006	8d 48 23	 lea	 ecx, DWORD PTR [eax+35]

; 185  :     if (_Block_size <= _Bytes) {

  00009	3b c8		 cmp	 ecx, eax
  0000b	0f 86 00 00 00
	00		 jbe	 ?_Throw_bad_array_new_length@std@@YAXXZ ; std::_Throw_bad_array_new_length

; 136  :         return ::operator new(_Bytes);

  00011	51		 push	 ecx
  00012	e8 00 00 00 00	 call	 ??2@YAPAXI@Z		; operator new

; 186  :         _Throw_bad_array_new_length(); // add overflow
; 187  :     }
; 188  : 
; 189  :     const uintptr_t _Ptr_container = reinterpret_cast<uintptr_t>(_Traits::_Allocate(_Block_size));

  00017	8b c8		 mov	 ecx, eax

; 136  :         return ::operator new(_Bytes);

  00019	83 c4 04	 add	 esp, 4

; 190  :     _STL_VERIFY(_Ptr_container != 0, "invalid argument"); // validate even in release since we're doing p[-1]

  0001c	85 c9		 test	 ecx, ecx
  0001e	74 0b		 je	 SHORT $LN9@Allocate_m

; 191  :     void* const _Ptr = reinterpret_cast<void*>((_Ptr_container + _Non_user_size) & ~(_Big_allocation_alignment - 1));

  00020	8d 41 23	 lea	 eax, DWORD PTR [ecx+35]
  00023	83 e0 e0	 and	 eax, -32		; ffffffe0H

; 192  :     static_cast<uintptr_t*>(_Ptr)[-1] = _Ptr_container;

  00026	89 48 fc	 mov	 DWORD PTR [eax-4], ecx

; 193  : 
; 194  : #ifdef _DEBUG
; 195  :     static_cast<uintptr_t*>(_Ptr)[-2] = _Big_allocation_sentinel;
; 196  : #endif // defined(_DEBUG)
; 197  :     return _Ptr;
; 198  : }

  00029	5d		 pop	 ebp
  0002a	c3		 ret	 0
$LN9@Allocate_m:

; 190  :     _STL_VERIFY(_Ptr_container != 0, "invalid argument"); // validate even in release since we're doing p[-1]

  0002b	6a 00		 push	 0
  0002d	6a 00		 push	 0
  0002f	6a 00		 push	 0
  00031	6a 00		 push	 0
  00033	6a 00		 push	 0
  00035	e8 00 00 00 00	 call	 __invoke_watson
$LN7@Allocate_m:
  0003a	cc		 int	 3
??$_Allocate_manually_vector_aligned@U_Default_allocate_traits@std@@@std@@YAPAXI@Z ENDP ; std::_Allocate_manually_vector_aligned<std::_Default_allocate_traits>
_TEXT	ENDS
; Function compile flags: /Ogtp
; File C:\Program Files\Microsoft Visual Studio\2022\Professional\VC\Tools\MSVC\14.44.35207\include\xmemory
;	COMDAT ??1?$_Alloc_construct_ptr@V?$allocator@U?$_List_node@PAXPAX@std@@@std@@@std@@QAE@XZ
_TEXT	SEGMENT
??1?$_Alloc_construct_ptr@V?$allocator@U?$_List_node@PAXPAX@std@@@std@@@std@@QAE@XZ PROC ; std::_Alloc_construct_ptr<std::allocator<std::_List_node<void *,void *> > >::~_Alloc_construct_ptr<std::allocator<std::_List_node<void *,void *> > >, COMDAT
; _this$ = ecx

; 1172 :         if (_Ptr) {

  00000	8b 41 04	 mov	 eax, DWORD PTR [ecx+4]
  00003	85 c0		 test	 eax, eax
  00005	74 0b		 je	 SHORT $LN10@Alloc_cons

; 289  :         ::operator delete(_Ptr, _Bytes);

  00007	6a 0c		 push	 12			; 0000000cH
  00009	50		 push	 eax
  0000a	e8 00 00 00 00	 call	 ??3@YAXPAXI@Z		; operator delete
  0000f	83 c4 08	 add	 esp, 8
$LN10@Alloc_cons:

; 1173 :             _Al.deallocate(_Ptr, 1);
; 1174 :         }
; 1175 :     }

  00012	c3		 ret	 0
??1?$_Alloc_construct_ptr@V?$allocator@U?$_List_node@PAXPAX@std@@@std@@@std@@QAE@XZ ENDP ; std::_Alloc_construct_ptr<std::allocator<std::_List_node<void *,void *> > >::~_Alloc_construct_ptr<std::allocator<std::_List_node<void *,void *> > >
_TEXT	ENDS
; Function compile flags: /Ogtp
; File C:\Program Files\Microsoft Visual Studio\2022\Professional\VC\Tools\MSVC\14.44.35207\include\xstring
; File C:\Program Files\Microsoft Visual Studio\2022\Professional\VC\Tools\MSVC\14.44.35207\include\__msvc_string_view.hpp
; File C:\Program Files\Microsoft Visual Studio\2022\Professional\VC\Tools\MSVC\14.44.35207\include\xstring
; File C:\Program Files\Microsoft Visual Studio\2022\Professional\VC\Tools\MSVC\14.44.35207\include\__msvc_string_view.hpp
; File C:\Program Files\Microsoft Visual Studio\2022\Professional\VC\Tools\MSVC\14.44.35207\include\xstring
; File C:\Program Files\Microsoft Visual Studio\2022\Professional\VC\Tools\MSVC\14.44.35207\include\__msvc_string_view.hpp
; File C:\Program Files\Microsoft Visual Studio\2022\Professional\VC\Tools\MSVC\14.44.35207\include\xstring
;	COMDAT ??$?MDU?$char_traits@D@std@@V?$allocator@D@1@@std@@YA_NABV?$basic_string@DU?$char_traits@D@std@@V?$allocator@D@2@@0@0@Z
_TEXT	SEGMENT
__Left$ = 8						; size = 4
__Right$ = 12						; size = 4
??$?MDU?$char_traits@D@std@@V?$allocator@D@1@@std@@YA_NABV?$basic_string@DU?$char_traits@D@std@@V?$allocator@D@2@@0@0@Z PROC ; std::operator<<char,std::char_traits<char>,std::allocator<char> >, COMDAT

; 3307 :     const basic_string<_Elem, _Traits, _Alloc>& _Left, const basic_string<_Elem, _Traits, _Alloc>& _Right) noexcept {

  00000	55		 push	 ebp
  00001	8b ec		 mov	 ebp, esp

; 444  :         const value_type* _Result = _Bx._Buf;

  00003	8b 45 0c	 mov	 eax, DWORD PTR __Right$[ebp]
  00006	8b c8		 mov	 ecx, eax

; 453  :         return _Myres > _Small_string_capacity;

  00008	83 78 14 0f	 cmp	 DWORD PTR [eax+20], 15	; 0000000fH

; 445  :         if (_Large_mode_engaged()) {

  0000c	76 02		 jbe	 SHORT $LN8@operator

; 446  :             _Result = _Unfancy(_Bx._Ptr);

  0000e	8b 08		 mov	 ecx, DWORD PTR [eax]
$LN8@operator:
  00010	53		 push	 ebx
  00011	56		 push	 esi

; 444  :         const value_type* _Result = _Bx._Buf;

  00012	8b 75 08	 mov	 esi, DWORD PTR __Left$[ebp]
  00015	8b d6		 mov	 edx, esi
  00017	57		 push	 edi

; 453  :         return _Myres > _Small_string_capacity;

  00018	83 7e 14 0f	 cmp	 DWORD PTR [esi+20], 15	; 0000000fH

; 445  :         if (_Large_mode_engaged()) {

  0001c	76 02		 jbe	 SHORT $LN15@operator

; 446  :             _Result = _Unfancy(_Bx._Ptr);

  0001e	8b 16		 mov	 edx, DWORD PTR [esi]
$LN15@operator:

; 2890 :         return _Traits_compare<_Traits>(_Mypair._Myval2._Myptr(), _Mypair._Myval2._Mysize,

  00020	8b 5e 10	 mov	 ebx, DWORD PTR [esi+16]
  00023	8b f3		 mov	 esi, ebx
  00025	8b 78 10	 mov	 edi, DWORD PTR [eax+16]
  00028	3b fb		 cmp	 edi, ebx
  0002a	0f 42 f7	 cmovb	 esi, edi
; File C:\Program Files\Microsoft Visual Studio\2022\Professional\VC\Tools\MSVC\14.44.35207\include\__msvc_string_view.hpp

; 439  :         return _CSTD memcmp(_First1, _First2, _Count);

  0002d	83 ee 04	 sub	 esi, 4
  00030	72 11		 jb	 SHORT $LN35@operator
$LL36@operator:
  00032	8b 02		 mov	 eax, DWORD PTR [edx]
  00034	3b 01		 cmp	 eax, DWORD PTR [ecx]
  00036	75 10		 jne	 SHORT $LN34@operator
  00038	83 c2 04	 add	 edx, 4
  0003b	83 c1 04	 add	 ecx, 4
  0003e	83 ee 04	 sub	 esi, 4
  00041	73 ef		 jae	 SHORT $LL36@operator
$LN35@operator:
  00043	83 fe fc	 cmp	 esi, -4			; fffffffcH
  00046	74 34		 je	 SHORT $LN33@operator
$LN34@operator:
  00048	8a 02		 mov	 al, BYTE PTR [edx]
  0004a	3a 01		 cmp	 al, BYTE PTR [ecx]
  0004c	75 27		 jne	 SHORT $LN37@operator
  0004e	83 fe fd	 cmp	 esi, -3			; fffffffdH
  00051	74 29		 je	 SHORT $LN33@operator
  00053	8a 42 01	 mov	 al, BYTE PTR [edx+1]
  00056	3a 41 01	 cmp	 al, BYTE PTR [ecx+1]
  00059	75 1a		 jne	 SHORT $LN37@operator
  0005b	83 fe fe	 cmp	 esi, -2			; fffffffeH
  0005e	74 1c		 je	 SHORT $LN33@operator
  00060	8a 42 02	 mov	 al, BYTE PTR [edx+2]
  00063	3a 41 02	 cmp	 al, BYTE PTR [ecx+2]
  00066	75 0d		 jne	 SHORT $LN37@operator
  00068	83 fe ff	 cmp	 esi, -1
  0006b	74 0f		 je	 SHORT $LN33@operator
  0006d	8a 42 03	 mov	 al, BYTE PTR [edx+3]
  00070	3a 41 03	 cmp	 al, BYTE PTR [ecx+3]
  00073	74 07		 je	 SHORT $LN33@operator
$LN37@operator:
  00075	1b c0		 sbb	 eax, eax
  00077	83 c8 01	 or	 eax, 1
  0007a	eb 02		 jmp	 SHORT $LN38@operator
$LN33@operator:
  0007c	33 c0		 xor	 eax, eax
$LN38@operator:

; 621  :     if (_Ans != 0) {

  0007e	85 c0		 test	 eax, eax
  00080	75 13		 jne	 SHORT $LN24@operator

; 622  :         return _Ans;
; 623  :     }
; 624  : 
; 625  :     if (_Left_size < _Right_size) {

  00082	3b fb		 cmp	 edi, ebx
  00084	76 0b		 jbe	 SHORT $LN51@operator
; File C:\Program Files\Microsoft Visual Studio\2022\Professional\VC\Tools\MSVC\14.44.35207\include\xstring

; 3308 :     return _Left.compare(_Right) < 0;

  00086	5f		 pop	 edi
; File C:\Program Files\Microsoft Visual Studio\2022\Professional\VC\Tools\MSVC\14.44.35207\include\__msvc_string_view.hpp

; 626  :         return -1;

  00087	83 c8 ff	 or	 eax, -1
; File C:\Program Files\Microsoft Visual Studio\2022\Professional\VC\Tools\MSVC\14.44.35207\include\xstring

; 3308 :     return _Left.compare(_Right) < 0;

  0008a	5e		 pop	 esi
  0008b	c1 e8 1f	 shr	 eax, 31			; 0000001fH
  0008e	5b		 pop	 ebx

; 3309 : }

  0008f	5d		 pop	 ebp
  00090	c3		 ret	 0
$LN51@operator:
; File C:\Program Files\Microsoft Visual Studio\2022\Professional\VC\Tools\MSVC\14.44.35207\include\__msvc_string_view.hpp

; 629  :     if (_Left_size > _Right_size) {

  00091	1b c0		 sbb	 eax, eax
  00093	f7 d8		 neg	 eax
$LN24@operator:
; File C:\Program Files\Microsoft Visual Studio\2022\Professional\VC\Tools\MSVC\14.44.35207\include\xstring

; 3308 :     return _Left.compare(_Right) < 0;

  00095	5f		 pop	 edi
  00096	5e		 pop	 esi
  00097	c1 e8 1f	 shr	 eax, 31			; 0000001fH
  0009a	5b		 pop	 ebx

; 3309 : }

  0009b	5d		 pop	 ebp
  0009c	c3		 ret	 0
??$?MDU?$char_traits@D@std@@V?$allocator@D@1@@std@@YA_NABV?$basic_string@DU?$char_traits@D@std@@V?$allocator@D@2@@0@0@Z ENDP ; std::operator<<char,std::char_traits<char>,std::allocator<char> >
_TEXT	ENDS
; Function compile flags: /Ogtp
; File C:\IAGOS\server\v18\Source\Source\_Database\DBConvertNew.cpp
; File C:\IAGOS\server\v18\Source\Source\_Network\Objects\Obj.h
; File C:\IAGOS\server\v18\Source\Source\_Network\Misc\Include\mempooler.h
; File C:\IAGOS\server\v18\Source\Source\_Database\DBConvertNew.cpp
;	COMDAT ?ConvItemStart@CDbManager@@QAEHXZ
_TEXT	SEGMENT
_GuildBank$2 = -664					; size = 20
tv582 = -644						; size = 4
_nStarted$2$ = -640					; size = 4
_dwMaxConv$1$ = -640					; size = 4
_pMemBlock$3 = -636					; size = 4
_nGuildId$1$ = -636					; size = 4
_nStarted$1$ = -632					; size = 4
_dwMaxConv$2$ = -632					; size = 4
$T4 = -628						; size = 4
$T5 = -624						; size = 4
$T6 = -624						; size = 4
$T7 = -624						; size = 4
tv581 = -624						; size = 4
tv592 = -624						; size = 4
_szSQL$1$ = -620					; size = 4
_lpString1$ = -616					; size = 300
_lpString$ = -316					; size = 300
__$ArrayPad$ = -16					; size = 4
__$EHRec$ = -12						; size = 12
?ConvItemStart@CDbManager@@QAEHXZ PROC			; CDbManager::ConvItemStart, COMDAT
; _this$ = ecx

; 711  : {

  00000	55		 push	 ebp
  00001	8b ec		 mov	 ebp, esp
  00003	6a ff		 push	 -1
  00005	68 00 00 00 00	 push	 __ehhandler$?ConvItemStart@CDbManager@@QAEHXZ
  0000a	64 a1 00 00 00
	00		 mov	 eax, DWORD PTR fs:0
  00010	50		 push	 eax
  00011	81 ec 8c 02 00
	00		 sub	 esp, 652		; 0000028cH
  00017	a1 00 00 00 00	 mov	 eax, DWORD PTR ___security_cookie
  0001c	33 c5		 xor	 eax, ebp
  0001e	89 45 f0	 mov	 DWORD PTR __$ArrayPad$[ebp], eax
  00021	53		 push	 ebx
  00022	56		 push	 esi
  00023	57		 push	 edi
  00024	50		 push	 eax
  00025	8d 45 f4	 lea	 eax, DWORD PTR __$EHRec$[ebp]
  00028	64 a3 00 00 00
	00		 mov	 DWORD PTR fs:0, eax
  0002e	8b d9		 mov	 ebx, ecx

; 712  : 	int nCount	= 0;
; 713  : 	int nStarted	= 0;
; 714  : 	DWORD dwMaxConv	= 0;
; 715  : 	char* szSQL	= new char[40960];

  00030	68 00 a0 00 00	 push	 40960			; 0000a000H
  00035	c7 85 88 fd ff
	ff 00 00 00 00	 mov	 DWORD PTR _nStarted$1$[ebp], 0
  0003f	e8 00 00 00 00	 call	 ??_U@YAPAXI@Z		; operator new[]

; 716  : 	char lpString[300];
; 717  : 	char lpString1[300];
; 718  : 
; 719  : 	CQuery* pQueryChar	= new CQuery;

  00044	68 10 3d 00 00	 push	 15632			; 00003d10H
  00049	89 85 94 fd ff
	ff		 mov	 DWORD PTR _szSQL$1$[ebp], eax
  0004f	e8 00 00 00 00	 call	 ??2@YAPAXI@Z		; operator new
  00054	83 c4 08	 add	 esp, 8
  00057	89 85 90 fd ff
	ff		 mov	 DWORD PTR $T5[ebp], eax
  0005d	c7 45 fc 00 00
	00 00		 mov	 DWORD PTR __$EHRec$[ebp+8], 0
  00064	85 c0		 test	 eax, eax
  00066	74 0b		 je	 SHORT $LN23@ConvItemSt
  00068	8b c8		 mov	 ecx, eax
  0006a	e8 00 00 00 00	 call	 ??0CQuery@@QAE@XZ	; CQuery::CQuery
  0006f	8b f8		 mov	 edi, eax
  00071	eb 02		 jmp	 SHORT $LN24@ConvItemSt
$LN23@ConvItemSt:
  00073	33 ff		 xor	 edi, edi
$LN24@ConvItemSt:

; 720  : 	CQuery* pQuerySave	= new CQuery;

  00075	68 10 3d 00 00	 push	 15632			; 00003d10H
  0007a	c7 45 fc ff ff
	ff ff		 mov	 DWORD PTR __$EHRec$[ebp+8], -1
  00081	e8 00 00 00 00	 call	 ??2@YAPAXI@Z		; operator new
  00086	83 c4 04	 add	 esp, 4
  00089	89 85 90 fd ff
	ff		 mov	 DWORD PTR $T6[ebp], eax
  0008f	c7 45 fc 01 00
	00 00		 mov	 DWORD PTR __$EHRec$[ebp+8], 1
  00096	85 c0		 test	 eax, eax
  00098	74 11		 je	 SHORT $LN25@ConvItemSt
  0009a	8b c8		 mov	 ecx, eax
  0009c	e8 00 00 00 00	 call	 ??0CQuery@@QAE@XZ	; CQuery::CQuery
  000a1	8b f0		 mov	 esi, eax
  000a3	89 85 8c fd ff
	ff		 mov	 DWORD PTR $T4[ebp], eax
  000a9	eb 08		 jmp	 SHORT $LN26@ConvItemSt
$LN25@ConvItemSt:
  000ab	33 f6		 xor	 esi, esi
  000ad	89 b5 8c fd ff
	ff		 mov	 DWORD PTR $T4[ebp], esi
$LN26@ConvItemSt:

; 721  : 	if( ConvItemConnectDB( pQueryChar, pQuerySave ) == FALSE )

  000b3	56		 push	 esi
  000b4	57		 push	 edi
  000b5	8b cb		 mov	 ecx, ebx
  000b7	c7 45 fc ff ff
	ff ff		 mov	 DWORD PTR __$EHRec$[ebp+8], -1
  000be	e8 00 00 00 00	 call	 ?ConvItemConnectDB@CDbManager@@QAEHPAVCQuery@@0@Z ; CDbManager::ConvItemConnectDB
  000c3	85 c0		 test	 eax, eax
  000c5	0f 84 5d 02 00
	00		 je	 $LN78@ConvItemSt

; 722  : 		return FALSE;
; 723  : 
; 724  : 	InitConvItemDialog();

  000cb	8b cb		 mov	 ecx, ebx
  000cd	e8 00 00 00 00	 call	 ?InitConvItemDialog@CDbManager@@QAEXXZ ; CDbManager::InitConvItemDialog

; 725  : 	
; 726  : 	AfxMessageBox( "ConvItemStart", MB_OK );

  000d2	6a 00		 push	 0
  000d4	6a 00		 push	 0
  000d6	68 00 00 00 00	 push	 OFFSET ??_C@_0O@EJJFONGK@ConvItemStart@
  000db	e8 00 00 00 00	 call	 ?AfxMessageBox@@YGHPBDII@Z ; AfxMessageBox

; 727  : //////////////////////////////////////// Inventory Start ////////////////////////////////////////
; 728  : 	if( ( dwMaxConv = GetMaxInventory( szSQL, pQueryChar, pQuerySave ) ) == 0 )

  000e0	56		 push	 esi
  000e1	57		 push	 edi
  000e2	ff b5 94 fd ff
	ff		 push	 DWORD PTR _szSQL$1$[ebp]
  000e8	8b cb		 mov	 ecx, ebx
  000ea	e8 00 00 00 00	 call	 ?GetMaxInventory@CDbManager@@QAEKPADPAVCQuery@@1@Z ; CDbManager::GetMaxInventory
  000ef	89 85 80 fd ff
	ff		 mov	 DWORD PTR _dwMaxConv$1$[ebp], eax
  000f5	85 c0		 test	 eax, eax
  000f7	0f 84 2b 02 00
	00		 je	 $LN78@ConvItemSt

; 729  : 		return FALSE;
; 730  : 
; 731  : 	sprintf( lpString, "%d / %d", 0, dwMaxConv );

  000fd	50		 push	 eax
  000fe	6a 00		 push	 0
  00100	8d 85 c4 fe ff
	ff		 lea	 eax, DWORD PTR _lpString$[ebp]
  00106	68 00 00 00 00	 push	 OFFSET ??_C@_07IPKKBMCH@?$CFd?5?1?5?$CFd@
  0010b	50		 push	 eax
  0010c	e8 00 00 00 00	 call	 _sprintf
  00111	83 c4 10	 add	 esp, 16			; 00000010H

; 732  : 	UpdateConvItemDialog( "Inventory, Bank", lpString, "0 %%", 0 );

  00114	8d 85 c4 fe ff
	ff		 lea	 eax, DWORD PTR _lpString$[ebp]
  0011a	8b cb		 mov	 ecx, ebx
  0011c	6a 00		 push	 0
  0011e	68 00 00 00 00	 push	 OFFSET ??_C@_04OOLLELLG@0?5?$CF?$CF@
  00123	50		 push	 eax
  00124	68 00 00 00 00	 push	 OFFSET ??_C@_0BA@OGBLLJAD@Inventory?0?5Bank@
  00129	e8 00 00 00 00	 call	 ?UpdateConvItemDialog@CDbManager@@QAEXPAD00H@Z ; CDbManager::UpdateConvItemDialog

; 733  : 	if( CreateInvenBankView( szSQL, pQueryChar, pQuerySave ) == FALSE )

  0012e	56		 push	 esi
  0012f	57		 push	 edi
  00130	ff b5 94 fd ff
	ff		 push	 DWORD PTR _szSQL$1$[ebp]
  00136	8b cb		 mov	 ecx, ebx
  00138	e8 00 00 00 00	 call	 ?CreateInvenBankView@CDbManager@@QAEHPADPAVCQuery@@1@Z ; CDbManager::CreateInvenBankView
  0013d	85 c0		 test	 eax, eax
  0013f	0f 84 e3 01 00
	00		 je	 $LN78@ConvItemSt

; 734  : 		return FALSE;
; 735  : 	// Inven, Bank Item °ˇÁö°í żŔ±â
; 736  : 	if( GetInventoryBankView( szSQL, pQueryChar, pQuerySave ) == FALSE )

  00145	56		 push	 esi
  00146	57		 push	 edi
  00147	ff b5 94 fd ff
	ff		 push	 DWORD PTR _szSQL$1$[ebp]
  0014d	8b cb		 mov	 ecx, ebx
  0014f	e8 00 00 00 00	 call	 ?GetInventoryBankView@CDbManager@@QAEHPADPAVCQuery@@1@Z ; CDbManager::GetInventoryBankView
  00154	85 c0		 test	 eax, eax
  00156	0f 84 cc 01 00
	00		 je	 $LN78@ConvItemSt

; 737  : 		return FALSE;
; 738  : 	while( pQueryChar->Fetch() )

  0015c	8b cf		 mov	 ecx, edi
  0015e	e8 00 00 00 00	 call	 ?Fetch@CQuery@@QAEHXZ	; CQuery::Fetch
  00163	85 c0		 test	 eax, eax
  00165	0f 84 e1 01 00
	00		 je	 $LN3@ConvItemSt
  0016b	8b 8d 80 fd ff
	ff		 mov	 ecx, DWORD PTR _dwMaxConv$1$[ebp]
  00171	8b c1		 mov	 eax, ecx
  00173	c1 e8 1f	 shr	 eax, 31			; 0000001fH
  00176	66 0f 6e c1	 movd	 xmm0, ecx
  0017a	f3 0f e6 c0	 cvtdq2pd xmm0, xmm0
  0017e	f2 0f 58 04 c5
	00 00 00 00	 addsd	 xmm0, QWORD PTR __xmm@41f00000000000000000000000000000[eax*8]
  00187	66 0f 5a c0	 cvtpd2ps xmm0, xmm0
  0018b	f3 0f 11 85 7c
	fd ff ff	 movss	 DWORD PTR tv582[ebp], xmm0
$LL2@ConvItemSt:

; 739  : 	{
; 740  : 		++nStarted;

  00193	8b b5 88 fd ff
	ff		 mov	 esi, DWORD PTR _nStarted$1$[ebp]

; 741  : 		sprintf( lpString, "%d / %d", nStarted, dwMaxConv );

  00199	8d 85 c4 fe ff
	ff		 lea	 eax, DWORD PTR _lpString$[ebp]
  0019f	51		 push	 ecx
  001a0	46		 inc	 esi
  001a1	56		 push	 esi
  001a2	68 00 00 00 00	 push	 OFFSET ??_C@_07IPKKBMCH@?$CFd?5?1?5?$CFd@
  001a7	50		 push	 eax
  001a8	89 b5 88 fd ff
	ff		 mov	 DWORD PTR _nStarted$1$[ebp], esi
  001ae	e8 00 00 00 00	 call	 _sprintf
  001b3	66 0f 6e c6	 movd	 xmm0, esi

; 742  : 		sprintf( lpString1, "%d %", int( float( (float)nStarted / (float)dwMaxConv ) * 100.0f ) );

  001b7	8d 85 98 fd ff
	ff		 lea	 eax, DWORD PTR _lpString1$[ebp]
  001bd	0f 5b c0	 cvtdq2ps xmm0, xmm0
  001c0	f3 0f 5e 85 7c
	fd ff ff	 divss	 xmm0, DWORD PTR tv582[ebp]
  001c8	f3 0f 59 05 00
	00 00 00	 mulss	 xmm0, DWORD PTR __real@42c80000
  001d0	f3 0f 2c f0	 cvttss2si esi, xmm0
  001d4	56		 push	 esi
  001d5	68 00 00 00 00	 push	 OFFSET ??_C@_04FEAGFOMF@?$CFd?5?$CF@
  001da	50		 push	 eax
  001db	e8 00 00 00 00	 call	 _sprintf
  001e0	83 c4 1c	 add	 esp, 28			; 0000001cH

; 743  : 		UpdateConvItemDialog( "Inventory, Bank", lpString, lpString1, (int( float( (float)nStarted / (float)dwMaxConv ) * 100.0f )) );

  001e3	8d 85 98 fd ff
	ff		 lea	 eax, DWORD PTR _lpString1$[ebp]
  001e9	8b cb		 mov	 ecx, ebx
  001eb	56		 push	 esi
  001ec	50		 push	 eax
  001ed	8d 85 c4 fe ff
	ff		 lea	 eax, DWORD PTR _lpString$[ebp]
  001f3	50		 push	 eax
  001f4	68 00 00 00 00	 push	 OFFSET ??_C@_0BA@OGBLLJAD@Inventory?0?5Bank@
  001f9	e8 00 00 00 00	 call	 ?UpdateConvItemDialog@CDbManager@@QAEXPAD00H@Z ; CDbManager::UpdateConvItemDialog
; File C:\IAGOS\server\v18\Source\Source\_Network\Objects\Obj.h

; 1213 : 	void*	operator new( size_t nSize )	{	return CMover::m_pPool->Alloc();	}

  001fe	8b 35 00 00 00
	00		 mov	 esi, DWORD PTR ?m_pPool@CMover@@2PAV?$MemPooler@VCMover@@@@A ; CMover::m_pPool
; File C:\IAGOS\server\v18\Source\Source\_Network\Misc\Include\mempooler.h

; 64   : 			EnterCriticalSection( &m_cs );

  00204	8d 46 18	 lea	 eax, DWORD PTR [esi+24]
  00207	50		 push	 eax
  00208	89 85 90 fd ff
	ff		 mov	 DWORD PTR tv592[ebp], eax
  0020e	ff 15 00 00 00
	00		 call	 DWORD PTR __imp__EnterCriticalSection@4

; 65   : 
; 66   : 			if( !m_pFreeList )

  00214	83 3e 00	 cmp	 DWORD PTR [esi], 0
  00217	75 65		 jne	 SHORT $LN50@ConvItemSt

; 127  : 			const int AllocationSize	= m_nListBlockSize * m_nNumOfBlock;

  00219	8b 46 0c	 mov	 eax, DWORD PTR [esi+12]
  0021c	0f af 46 10	 imul	 eax, DWORD PTR [esi+16]

; 128  : 			void* pMemBlock		= VirtualAlloc( NULL, AllocationSize, MEM_RESERVE | MEM_COMMIT, PAGE_READWRITE );

  00220	6a 04		 push	 4
  00222	68 00 30 00 00	 push	 12288			; 00003000H
  00227	50		 push	 eax
  00228	6a 00		 push	 0
  0022a	ff 15 00 00 00
	00		 call	 DWORD PTR __imp__VirtualAlloc@16
  00230	89 85 84 fd ff
	ff		 mov	 DWORD PTR _pMemBlock$3[ebp], eax
  00236	85 c0		 test	 eax, eax

; 129  : 			ASSERT( pMemBlock );
; 130  : 			if( !pMemBlock )

  00238	75 0d		 jne	 SHORT $LN52@ConvItemSt

; 131  : 				Error( "bad alloc" );

  0023a	68 00 00 00 00	 push	 OFFSET ??_C@_09PKKCPLIP@bad?5alloc@
  0023f	e8 00 00 00 00	 call	 ?Error@@YAPBDPBDZZ	; Error
  00244	83 c4 04	 add	 esp, 4
$LN52@ConvItemSt:

; 132  : 			m_ListOfMemBlockPtr.push_back( pMemBlock );

  00247	8d 85 84 fd ff
	ff		 lea	 eax, DWORD PTR _pMemBlock$3[ebp]
  0024d	50		 push	 eax
  0024e	8d 4e 04	 lea	 ecx, DWORD PTR [esi+4]
  00251	e8 00 00 00 00	 call	 ?push_back@?$list@PAXV?$allocator@PAX@std@@@std@@QAEXABQAX@Z ; std::list<void *,std::allocator<void *> >::push_back

; 133  : 			BlockNode* pNode	= reinterpret_cast<BlockNode*>(pMemBlock);
; 134  : 			pNode	= reinterpret_cast<BlockNode*>( ( reinterpret_cast<DWORD>( pNode ) ) + ( m_nNumOfBlock - 1 ) * ( m_nListBlockSize ) );	// set pNode to last

  00256	8b 56 0c	 mov	 edx, DWORD PTR [esi+12]
  00259	8b 4e 10	 mov	 ecx, DWORD PTR [esi+16]
  0025c	4a		 dec	 edx
  0025d	0f af ca	 imul	 ecx, edx
  00260	03 8d 84 fd ff
	ff		 add	 ecx, DWORD PTR _pMemBlock$3[ebp]

; 135  : 			for( int i = m_nNumOfBlock - 1; i >= 0; i-- )

  00266	85 d2		 test	 edx, edx
  00268	78 14		 js	 SHORT $LN50@ConvItemSt
  0026a	66 0f 1f 44 00
	00		 npad	 6
$LL51@ConvItemSt:

; 136  : 			{
; 137  : 				pNode->pNext	= m_pFreeList;

  00270	8b 06		 mov	 eax, DWORD PTR [esi]
  00272	89 01		 mov	 DWORD PTR [ecx], eax

; 138  : 				m_pFreeList	= pNode;

  00274	89 0e		 mov	 DWORD PTR [esi], ecx

; 139  : 				pNode	= reinterpret_cast<BlockNode*>( ( reinterpret_cast<DWORD>( pNode ) ) - m_nListBlockSize );	// set pNode to previous

  00276	2b 4e 10	 sub	 ecx, DWORD PTR [esi+16]
  00279	83 ea 01	 sub	 edx, 1
  0027c	79 f2		 jns	 SHORT $LL51@ConvItemSt
$LN50@ConvItemSt:

; 69   : 			pNode	= m_pFreeList;

  0027e	8b 0e		 mov	 ecx, DWORD PTR [esi]

; 70   : 			m_pFreeList		= m_pFreeList->pNext;
; 71   : 			m_nAllocCount++;
; 72   : 			lpMem	= reinterpret_cast<T*>( pNode + 1 );
; 73   : 
; 74   : 			LeaveCriticalSection( &m_cs );

  00280	ff b5 90 fd ff
	ff		 push	 DWORD PTR tv592[ebp]
  00286	8b 01		 mov	 eax, DWORD PTR [ecx]
  00288	ff 46 14	 inc	 DWORD PTR [esi+20]
  0028b	89 06		 mov	 DWORD PTR [esi], eax
  0028d	8d 71 04	 lea	 esi, DWORD PTR [ecx+4]
  00290	ff 15 00 00 00
	00		 call	 DWORD PTR __imp__LeaveCriticalSection@4
; File C:\IAGOS\server\v18\Source\Source\_Database\DBConvertNew.cpp

; 745  : 		CMover* pMover	= new CMover;

  00296	89 b5 90 fd ff
	ff		 mov	 DWORD PTR $T7[ebp], esi
  0029c	c7 45 fc 02 00
	00 00		 mov	 DWORD PTR __$EHRec$[ebp+8], 2
  002a3	85 f6		 test	 esi, esi
  002a5	74 0b		 je	 SHORT $LN27@ConvItemSt
  002a7	8b ce		 mov	 ecx, esi
  002a9	e8 00 00 00 00	 call	 ??0CMover@@QAE@XZ	; CMover::CMover
  002ae	8b f0		 mov	 esi, eax
  002b0	eb 02		 jmp	 SHORT $LN28@ConvItemSt
$LN27@ConvItemSt:
  002b2	33 f6		 xor	 esi, esi
$LN28@ConvItemSt:

; 746  : 		//GetUserInventoryBank( pMover, pQueryChar );
; 747  : 		// mirchang_100416 VERIFYSTRING use return value
; 748  : 		if( GetUserInventoryBank( pMover, pQueryChar ) == FALSE )

  002b4	57		 push	 edi
  002b5	56		 push	 esi
  002b6	8b cb		 mov	 ecx, ebx
  002b8	c7 45 fc ff ff
	ff ff		 mov	 DWORD PTR __$EHRec$[ebp+8], -1
  002bf	e8 00 00 00 00	 call	 ?GetUserInventoryBank@CDbManager@@QAEHPAVCMover@@PAVCQuery@@@Z ; CDbManager::GetUserInventoryBank
  002c4	85 c0		 test	 eax, eax
  002c6	74 54		 je	 SHORT $LN65@ConvItemSt

; 749  : 		{
; 750  : 			safe_delete( pMover );
; 751  : 			return FALSE;
; 752  : 		}
; 753  : 		// mirchang_100416
; 754  : 
; 755  : 		if( InventoryBankConv( szSQL, pMover, pQueryChar, pQuerySave ) ) // SaveItem

  002c8	ff b5 8c fd ff
	ff		 push	 DWORD PTR $T4[ebp]
  002ce	8b cb		 mov	 ecx, ebx
  002d0	57		 push	 edi
  002d1	56		 push	 esi
  002d2	ff b5 94 fd ff
	ff		 push	 DWORD PTR _szSQL$1$[ebp]
  002d8	e8 00 00 00 00	 call	 ?InventoryBankConv@CDbManager@@QAEHPADPAVCMover@@PAVCQuery@@2@Z ; CDbManager::InventoryBankConv
  002dd	85 c0		 test	 eax, eax
  002df	74 19		 je	 SHORT $LN12@ConvItemSt

; 756  : 		{
; 757  : 			if( SaveUserInventoryBank( szSQL, pMover, pQueryChar, pQuerySave ) == FALSE )

  002e1	ff b5 8c fd ff
	ff		 push	 DWORD PTR $T4[ebp]
  002e7	8b cb		 mov	 ecx, ebx
  002e9	57		 push	 edi
  002ea	56		 push	 esi
  002eb	ff b5 94 fd ff
	ff		 push	 DWORD PTR _szSQL$1$[ebp]
  002f1	e8 00 00 00 00	 call	 ?SaveUserInventoryBank@CDbManager@@QAEHPADPAVCMover@@PAVCQuery@@2@Z ; CDbManager::SaveUserInventoryBank
  002f6	85 c0		 test	 eax, eax
  002f8	74 22		 je	 SHORT $LN65@ConvItemSt
$LN12@ConvItemSt:

; 758  : 			{
; 759  : 				safe_delete( pMover );
; 760  : 				return FALSE;
; 761  : 			}
; 762  : 		}
; 763  : 		safe_delete( pMover );

  002fa	85 f6		 test	 esi, esi
  002fc	74 08		 je	 SHORT $LN33@ConvItemSt
  002fe	8b 06		 mov	 eax, DWORD PTR [esi]
  00300	8b ce		 mov	 ecx, esi
  00302	6a 01		 push	 1
  00304	ff 10		 call	 DWORD PTR [eax]
$LN33@ConvItemSt:

; 737  : 		return FALSE;
; 738  : 	while( pQueryChar->Fetch() )

  00306	8b cf		 mov	 ecx, edi
  00308	e8 00 00 00 00	 call	 ?Fetch@CQuery@@QAEHXZ	; CQuery::Fetch
  0030d	85 c0		 test	 eax, eax
  0030f	74 35		 je	 SHORT $LN87@ConvItemSt
  00311	8b 8d 80 fd ff
	ff		 mov	 ecx, DWORD PTR _dwMaxConv$1$[ebp]
  00317	e9 77 fe ff ff	 jmp	 $LL2@ConvItemSt
$LN65@ConvItemSt:

; 807  : }

  0031c	85 f6		 test	 esi, esi
  0031e	74 08		 je	 SHORT $LN78@ConvItemSt
  00320	8b 06		 mov	 eax, DWORD PTR [esi]
  00322	8b ce		 mov	 ecx, esi
  00324	6a 01		 push	 1
  00326	ff 10		 call	 DWORD PTR [eax]
$LN78@ConvItemSt:
  00328	33 c0		 xor	 eax, eax
$LN1@ConvItemSt:
  0032a	8b 4d f4	 mov	 ecx, DWORD PTR __$EHRec$[ebp]
  0032d	64 89 0d 00 00
	00 00		 mov	 DWORD PTR fs:0, ecx
  00334	59		 pop	 ecx
  00335	5f		 pop	 edi
  00336	5e		 pop	 esi
  00337	5b		 pop	 ebx
  00338	8b 4d f0	 mov	 ecx, DWORD PTR __$ArrayPad$[ebp]
  0033b	33 cd		 xor	 ecx, ebp
  0033d	e8 00 00 00 00	 call	 @__security_check_cookie@4
  00342	8b e5		 mov	 esp, ebp
  00344	5d		 pop	 ebp
  00345	c3		 ret	 0
$LN87@ConvItemSt:

; 737  : 		return FALSE;
; 738  : 	while( pQueryChar->Fetch() )

  00346	8b b5 8c fd ff
	ff		 mov	 esi, DWORD PTR $T4[ebp]
$LN3@ConvItemSt:

; 764  : 	}
; 765  : 	if( DeleteInvenBankView( szSQL, pQueryChar, pQuerySave ) == FALSE )

  0034c	56		 push	 esi
  0034d	57		 push	 edi
  0034e	ff b5 94 fd ff
	ff		 push	 DWORD PTR _szSQL$1$[ebp]
  00354	8b cb		 mov	 ecx, ebx
  00356	e8 00 00 00 00	 call	 ?DeleteInvenBankView@CDbManager@@QAEHPADPAVCQuery@@1@Z ; CDbManager::DeleteInvenBankView
  0035b	85 c0		 test	 eax, eax
  0035d	74 c9		 je	 SHORT $LN78@ConvItemSt

; 766  : 		return FALSE;
; 767  : 
; 768  : //////////////////////////////////////// GuildBank Start ////////////////////////////////////////
; 769  : 	nStarted = 0;
; 770  : 	if( ( dwMaxConv = GetMaxGuildBank( szSQL, pQueryChar, pQuerySave ) ) == 0 )

  0035f	56		 push	 esi
  00360	57		 push	 edi
  00361	ff b5 94 fd ff
	ff		 push	 DWORD PTR _szSQL$1$[ebp]
  00367	8b cb		 mov	 ecx, ebx
  00369	c7 85 80 fd ff
	ff 00 00 00 00	 mov	 DWORD PTR _nStarted$2$[ebp], 0
  00373	e8 00 00 00 00	 call	 ?GetMaxGuildBank@CDbManager@@QAEKPADPAVCQuery@@1@Z ; CDbManager::GetMaxGuildBank
  00378	89 85 88 fd ff
	ff		 mov	 DWORD PTR _dwMaxConv$2$[ebp], eax
  0037e	85 c0		 test	 eax, eax
  00380	74 a6		 je	 SHORT $LN78@ConvItemSt

; 771  : 		return FALSE;
; 772  : 	
; 773  : 	sprintf( lpString, "%d / %d", 0, dwMaxConv );

  00382	50		 push	 eax
  00383	6a 00		 push	 0
  00385	8d 85 c4 fe ff
	ff		 lea	 eax, DWORD PTR _lpString$[ebp]
  0038b	68 00 00 00 00	 push	 OFFSET ??_C@_07IPKKBMCH@?$CFd?5?1?5?$CFd@
  00390	50		 push	 eax
  00391	e8 00 00 00 00	 call	 _sprintf
  00396	83 c4 10	 add	 esp, 16			; 00000010H

; 774  : 	UpdateConvItemDialog( "GuildBank", lpString, "0 %%", 0 );

  00399	8d 85 c4 fe ff
	ff		 lea	 eax, DWORD PTR _lpString$[ebp]
  0039f	8b cb		 mov	 ecx, ebx
  003a1	6a 00		 push	 0
  003a3	68 00 00 00 00	 push	 OFFSET ??_C@_04OOLLELLG@0?5?$CF?$CF@
  003a8	50		 push	 eax
  003a9	68 00 00 00 00	 push	 OFFSET ??_C@_09KPBJBCIO@GuildBank@
  003ae	e8 00 00 00 00	 call	 ?UpdateConvItemDialog@CDbManager@@QAEXPAD00H@Z ; CDbManager::UpdateConvItemDialog

; 775  : 	if( CreateGuildBankView( szSQL, pQueryChar, pQuerySave ) == FALSE )

  003b3	56		 push	 esi
  003b4	57		 push	 edi
  003b5	ff b5 94 fd ff
	ff		 push	 DWORD PTR _szSQL$1$[ebp]
  003bb	8b cb		 mov	 ecx, ebx
  003bd	e8 00 00 00 00	 call	 ?CreateGuildBankView@CDbManager@@QAEHPADPAVCQuery@@1@Z ; CDbManager::CreateGuildBankView
  003c2	85 c0		 test	 eax, eax
  003c4	0f 84 5e ff ff
	ff		 je	 $LN78@ConvItemSt

; 776  : 		return FALSE;
; 777  : 	// Inven, Bank Item °ˇÁö°í żŔ±â
; 778  : 	if( GetGuildBankView( szSQL, pQueryChar, pQuerySave ) == FALSE )

  003ca	56		 push	 esi
  003cb	57		 push	 edi
  003cc	ff b5 94 fd ff
	ff		 push	 DWORD PTR _szSQL$1$[ebp]
  003d2	8b cb		 mov	 ecx, ebx
  003d4	e8 00 00 00 00	 call	 ?GetGuildBankView@CDbManager@@QAEHPADPAVCQuery@@1@Z ; CDbManager::GetGuildBankView
  003d9	85 c0		 test	 eax, eax
  003db	0f 84 47 ff ff
	ff		 je	 $LN78@ConvItemSt

; 779  : 		return FALSE;
; 780  : 	
; 781  : 	while( pQueryChar->Fetch() )

  003e1	8b cf		 mov	 ecx, edi
  003e3	e8 00 00 00 00	 call	 ?Fetch@CQuery@@QAEHXZ	; CQuery::Fetch
  003e8	85 c0		 test	 eax, eax
  003ea	0f 84 5d 01 00
	00		 je	 $LN71@ConvItemSt
  003f0	8b 8d 88 fd ff
	ff		 mov	 ecx, DWORD PTR _dwMaxConv$2$[ebp]
  003f6	8b c1		 mov	 eax, ecx
  003f8	c1 e8 1f	 shr	 eax, 31			; 0000001fH
  003fb	66 0f 6e c1	 movd	 xmm0, ecx
  003ff	f3 0f e6 c0	 cvtdq2pd xmm0, xmm0
  00403	f2 0f 58 04 c5
	00 00 00 00	 addsd	 xmm0, QWORD PTR __xmm@41f00000000000000000000000000000[eax*8]
  0040c	66 0f 5a c0	 cvtpd2ps xmm0, xmm0
  00410	f3 0f 11 85 90
	fd ff ff	 movss	 DWORD PTR tv581[ebp], xmm0
  00418	0f 1f 84 00 00
	00 00 00	 npad	 8
$LL4@ConvItemSt:

; 782  : 	{
; 783  : 		++nStarted;

  00420	8b b5 80 fd ff
	ff		 mov	 esi, DWORD PTR _nStarted$2$[ebp]

; 784  : 
; 785  : 		sprintf( lpString, "%d / %d", nStarted, dwMaxConv );

  00426	8d 85 c4 fe ff
	ff		 lea	 eax, DWORD PTR _lpString$[ebp]
  0042c	51		 push	 ecx
  0042d	46		 inc	 esi
  0042e	56		 push	 esi
  0042f	68 00 00 00 00	 push	 OFFSET ??_C@_07IPKKBMCH@?$CFd?5?1?5?$CFd@
  00434	50		 push	 eax
  00435	89 b5 80 fd ff
	ff		 mov	 DWORD PTR _nStarted$2$[ebp], esi
  0043b	e8 00 00 00 00	 call	 _sprintf
  00440	66 0f 6e c6	 movd	 xmm0, esi

; 786  : 		sprintf( lpString1, "%d %", int( float( (float)nStarted / (float)dwMaxConv ) * 100.0f ) );

  00444	8d 85 98 fd ff
	ff		 lea	 eax, DWORD PTR _lpString1$[ebp]
  0044a	0f 5b c0	 cvtdq2ps xmm0, xmm0
  0044d	f3 0f 5e 85 90
	fd ff ff	 divss	 xmm0, DWORD PTR tv581[ebp]
  00455	f3 0f 59 05 00
	00 00 00	 mulss	 xmm0, DWORD PTR __real@42c80000
  0045d	f3 0f 2c f0	 cvttss2si esi, xmm0
  00461	56		 push	 esi
  00462	68 00 00 00 00	 push	 OFFSET ??_C@_04FEAGFOMF@?$CFd?5?$CF@
  00467	50		 push	 eax
  00468	e8 00 00 00 00	 call	 _sprintf
  0046d	83 c4 1c	 add	 esp, 28			; 0000001cH

; 787  : 		UpdateConvItemDialog( "GuildBank", lpString, lpString1, (int( float( (float)nStarted / (float)dwMaxConv ) * 100.0f )) );

  00470	8d 85 98 fd ff
	ff		 lea	 eax, DWORD PTR _lpString1$[ebp]
  00476	8b cb		 mov	 ecx, ebx
  00478	56		 push	 esi
  00479	50		 push	 eax
  0047a	8d 85 c4 fe ff
	ff		 lea	 eax, DWORD PTR _lpString$[ebp]
  00480	50		 push	 eax
  00481	68 00 00 00 00	 push	 OFFSET ??_C@_09KPBJBCIO@GuildBank@
  00486	e8 00 00 00 00	 call	 ?UpdateConvItemDialog@CDbManager@@QAEXPAD00H@Z ; CDbManager::UpdateConvItemDialog

; 788  : 			
; 789  : 		CItemContainer<CItemElem>	GuildBank;	// ±ćµĺ Ă˘°í

  0048b	8d 8d 68 fd ff
	ff		 lea	 ecx, DWORD PTR _GuildBank$2[ebp]
  00491	e8 00 00 00 00	 call	 ??0?$CItemContainer@VCItemElem@@@@QAE@XZ ; CItemContainer<CItemElem>::CItemContainer<CItemElem>

; 790  : 		int							nGuildId	= 0;
; 791  : 	
; 792  : 		GuildBank.SetItemContainer( ITYPE_ITEM, MAX_GUILDBANK );

  00496	6a ff		 push	 -1
  00498	6a 2a		 push	 42			; 0000002aH
  0049a	6a 00		 push	 0
  0049c	8d 8d 68 fd ff
	ff		 lea	 ecx, DWORD PTR _GuildBank$2[ebp]
  004a2	c7 45 fc 03 00
	00 00		 mov	 DWORD PTR __$EHRec$[ebp+8], 3
  004a9	e8 00 00 00 00	 call	 ?SetItemContainer@?$CItemContainer@VCItemElem@@@@QAEXKKK@Z ; CItemContainer<CItemElem>::SetItemContainer

; 793  : 		nGuildId		= pQueryChar->GetInt( "m_idGuild" );

  004ae	68 00 00 00 00	 push	 OFFSET ??_C@_09MHDEIN@m_idGuild@
  004b3	8b cf		 mov	 ecx, edi
  004b5	e8 00 00 00 00	 call	 ?GetInt@CQuery@@QAEHPAD@Z ; CQuery::GetInt
  004ba	89 85 84 fd ff
	ff		 mov	 DWORD PTR _nGuildId$1$[ebp], eax

; 794  : 		GetGuildBank( &GuildBank, pQueryChar );

  004c0	8b cb		 mov	 ecx, ebx
  004c2	57		 push	 edi
  004c3	8d 85 68 fd ff
	ff		 lea	 eax, DWORD PTR _GuildBank$2[ebp]
  004c9	50		 push	 eax
  004ca	e8 00 00 00 00	 call	 ?GetGuildBank@CDbManager@@QAEXPAV?$CItemContainer@VCItemElem@@@@PAVCQuery@@@Z ; CDbManager::GetGuildBank

; 795  : 		
; 796  : 		if( GuildBankConv( szSQL, nGuildId, &GuildBank, pQueryChar, pQuerySave ) )

  004cf	8b b5 8c fd ff
	ff		 mov	 esi, DWORD PTR $T4[ebp]
  004d5	8d 85 68 fd ff
	ff		 lea	 eax, DWORD PTR _GuildBank$2[ebp]
  004db	56		 push	 esi
  004dc	57		 push	 edi
  004dd	50		 push	 eax
  004de	ff b5 84 fd ff
	ff		 push	 DWORD PTR _nGuildId$1$[ebp]
  004e4	8b cb		 mov	 ecx, ebx
  004e6	ff b5 94 fd ff
	ff		 push	 DWORD PTR _szSQL$1$[ebp]
  004ec	e8 00 00 00 00	 call	 ?GuildBankConv@CDbManager@@QAEHPADHPAV?$CItemContainer@VCItemElem@@@@PAVCQuery@@2@Z ; CDbManager::GuildBankConv
  004f1	85 c0		 test	 eax, eax
  004f3	74 20		 je	 SHORT $LN18@ConvItemSt

; 797  : 		{
; 798  : 			if( SaveConvGuildBank( szSQL, nGuildId, &GuildBank, pQueryChar, pQuerySave ) == FALSE )

  004f5	56		 push	 esi
  004f6	57		 push	 edi
  004f7	8d 85 68 fd ff
	ff		 lea	 eax, DWORD PTR _GuildBank$2[ebp]
  004fd	8b cb		 mov	 ecx, ebx
  004ff	50		 push	 eax
  00500	ff b5 84 fd ff
	ff		 push	 DWORD PTR _nGuildId$1$[ebp]
  00506	ff b5 94 fd ff
	ff		 push	 DWORD PTR _szSQL$1$[ebp]
  0050c	e8 00 00 00 00	 call	 ?SaveConvGuildBank@CDbManager@@QAEHPADHPAV?$CItemContainer@VCItemElem@@@@PAVCQuery@@2@Z ; CDbManager::SaveConvGuildBank
  00511	85 c0		 test	 eax, eax
  00513	74 28		 je	 SHORT $LN67@ConvItemSt
$LN18@ConvItemSt:

; 800  : 		}
; 801  : 	}

  00515	8d 8d 68 fd ff
	ff		 lea	 ecx, DWORD PTR _GuildBank$2[ebp]
  0051b	c7 45 fc ff ff
	ff ff		 mov	 DWORD PTR __$EHRec$[ebp+8], -1
  00522	e8 00 00 00 00	 call	 ??1?$CItemContainer@VCItemElem@@@@UAE@XZ ; CItemContainer<CItemElem>::~CItemContainer<CItemElem>
  00527	8b cf		 mov	 ecx, edi
  00529	e8 00 00 00 00	 call	 ?Fetch@CQuery@@QAEHXZ	; CQuery::Fetch
  0052e	85 c0		 test	 eax, eax
  00530	74 1b		 je	 SHORT $LN71@ConvItemSt

; 779  : 		return FALSE;
; 780  : 	
; 781  : 	while( pQueryChar->Fetch() )

  00532	8b 8d 88 fd ff
	ff		 mov	 ecx, DWORD PTR _dwMaxConv$2$[ebp]
  00538	e9 e3 fe ff ff	 jmp	 $LL4@ConvItemSt
$LN67@ConvItemSt:

; 799  : 				return FALSE;

  0053d	8d 8d 68 fd ff
	ff		 lea	 ecx, DWORD PTR _GuildBank$2[ebp]
  00543	e8 00 00 00 00	 call	 ??1?$CItemContainer@VCItemElem@@@@UAE@XZ ; CItemContainer<CItemElem>::~CItemContainer<CItemElem>
  00548	e9 db fd ff ff	 jmp	 $LN78@ConvItemSt
$LN71@ConvItemSt:

; 802  : 	if( DeleteGuildBankView( szSQL, pQueryChar, pQuerySave ) == FALSE )

  0054d	56		 push	 esi
  0054e	57		 push	 edi
  0054f	ff b5 94 fd ff
	ff		 push	 DWORD PTR _szSQL$1$[ebp]
  00555	8b cb		 mov	 ecx, ebx
  00557	e8 00 00 00 00	 call	 ?DeleteGuildBankView@CDbManager@@QAEHPADPAVCQuery@@1@Z ; CDbManager::DeleteGuildBankView
  0055c	85 c0		 test	 eax, eax
  0055e	0f 84 c4 fd ff
	ff		 je	 $LN78@ConvItemSt

; 803  : 		return FALSE;
; 804  : 	
; 805  : 	SAFE_DELETE( pQueryChar ); SAFE_DELETE( pQuerySave );

  00564	85 ff		 test	 edi, edi
  00566	74 15		 je	 SHORT $LN55@ConvItemSt
  00568	8b cf		 mov	 ecx, edi
  0056a	e8 00 00 00 00	 call	 ??1CQuery@@QAE@XZ	; CQuery::~CQuery
  0056f	68 10 3d 00 00	 push	 15632			; 00003d10H
  00574	57		 push	 edi
  00575	e8 00 00 00 00	 call	 ??3@YAXPAXI@Z		; operator delete
  0057a	83 c4 08	 add	 esp, 8
$LN55@ConvItemSt:
  0057d	85 f6		 test	 esi, esi
  0057f	74 15		 je	 SHORT $LN59@ConvItemSt
  00581	8b ce		 mov	 ecx, esi
  00583	e8 00 00 00 00	 call	 ??1CQuery@@QAE@XZ	; CQuery::~CQuery
  00588	68 10 3d 00 00	 push	 15632			; 00003d10H
  0058d	56		 push	 esi
  0058e	e8 00 00 00 00	 call	 ??3@YAXPAXI@Z		; operator delete
  00593	83 c4 08	 add	 esp, 8
$LN59@ConvItemSt:

; 806  : 	return TRUE;

  00596	b8 01 00 00 00	 mov	 eax, 1
  0059b	e9 8a fd ff ff	 jmp	 $LN1@ConvItemSt
_TEXT	ENDS
;	COMDAT text$x
text$x	SEGMENT
__unwindfunclet$?ConvItemStart@CDbManager@@QAEHXZ$0:
  00000	68 10 3d 00 00	 push	 15632			; 00003d10H
  00005	8b 85 90 fd ff
	ff		 mov	 eax, DWORD PTR $T5[ebp]
  0000b	50		 push	 eax
  0000c	e8 00 00 00 00	 call	 ??3@YAXPAXI@Z		; operator delete
  00011	83 c4 08	 add	 esp, 8
  00014	c3		 ret	 0
__unwindfunclet$?ConvItemStart@CDbManager@@QAEHXZ$1:
  00015	68 10 3d 00 00	 push	 15632			; 00003d10H
  0001a	8b 85 90 fd ff
	ff		 mov	 eax, DWORD PTR $T6[ebp]
  00020	50		 push	 eax
  00021	e8 00 00 00 00	 call	 ??3@YAXPAXI@Z		; operator delete
  00026	83 c4 08	 add	 esp, 8
  00029	c3		 ret	 0
__unwindfunclet$?ConvItemStart@CDbManager@@QAEHXZ$2:
  0002a	8b 85 90 fd ff
	ff		 mov	 eax, DWORD PTR $T7[ebp]
  00030	50		 push	 eax
  00031	e8 00 00 00 00	 call	 ??3CMover@@SAXPAX@Z	; CMover::operator delete
  00036	59		 pop	 ecx
  00037	c3		 ret	 0
__unwindfunclet$?ConvItemStart@CDbManager@@QAEHXZ$3:
  00038	8d 8d 68 fd ff
	ff		 lea	 ecx, DWORD PTR _GuildBank$2[ebp]
  0003e	e9 00 00 00 00	 jmp	 ??1?$CItemContainer@VCItemElem@@@@UAE@XZ ; CItemContainer<CItemElem>::~CItemContainer<CItemElem>
  00043	cc		 int	 3
  00044	cc		 int	 3
  00045	cc		 int	 3
  00046	cc		 int	 3
  00047	cc		 int	 3
__ehhandler$?ConvItemStart@CDbManager@@QAEHXZ:
  00048	90		 npad	 1
  00049	90		 npad	 1
  0004a	8b 54 24 08	 mov	 edx, DWORD PTR [esp+8]
  0004e	8d 42 0c	 lea	 eax, DWORD PTR [edx+12]
  00051	8b 8a 64 fd ff
	ff		 mov	 ecx, DWORD PTR [edx-668]
  00057	33 c8		 xor	 ecx, eax
  00059	e8 00 00 00 00	 call	 @__security_check_cookie@4
  0005e	8b 4a fc	 mov	 ecx, DWORD PTR [edx-4]
  00061	33 c8		 xor	 ecx, eax
  00063	e8 00 00 00 00	 call	 @__security_check_cookie@4
  00068	b8 00 00 00 00	 mov	 eax, OFFSET __ehfuncinfo$?ConvItemStart@CDbManager@@QAEHXZ
  0006d	e9 00 00 00 00	 jmp	 ___CxxFrameHandler3
text$x	ENDS
?ConvItemStart@CDbManager@@QAEHXZ ENDP			; CDbManager::ConvItemStart
; Function compile flags: /Ogtp
; File C:\IAGOS\server\v18\Source\Source\_Database\DBConvertNew.cpp
; File C:\IAGOS\server\v18\Source\Source\_Common\Data.h
; File C:\IAGOS\server\v18\Source\Source\_Database\DBConvertNew.cpp
; File C:\IAGOS\server\v18\Source\Source\_Network\Objects\Obj.h
; File C:\IAGOS\server\v18\Source\Source\_Database\DBConvertNew.cpp
; File C:\IAGOS\server\v18\Source\Source\_Network\Objects\Obj.h
; File C:\IAGOS\server\v18\Source\Source\_Database\DBConvertNew.cpp
;	COMDAT ?PiercingConfirmGuildBank@CDbManager@@QAEHHPAV?$CItemContainer@VCItemElem@@@@@Z
_TEXT	SEGMENT
_nSize$1$ = -20						; size = 4
$T1 = -16						; size = 4
$T2 = -12						; size = 4
$T3 = -8						; size = 4
_i$1$ = -4						; size = 4
_nGuildId$ = 8						; size = 4
_GuildBank$ = 12					; size = 4
?PiercingConfirmGuildBank@CDbManager@@QAEHHPAV?$CItemContainer@VCItemElem@@@@@Z PROC ; CDbManager::PiercingConfirmGuildBank, COMDAT
; _this$ = ecx

; 647  : {

  00000	55		 push	 ebp
  00001	8b ec		 mov	 ebp, esp
  00003	83 ec 14	 sub	 esp, 20			; 00000014H

; 648  : 	BOOL bUpdate = FALSE;
; 649  : 	if( prj.IsConvMode( PIERCING_CONFIRM ) )	

  00006	b9 00 00 00 00	 mov	 ecx, OFFSET ?prj@@3VCProject@@A ; prj
  0000b	53		 push	 ebx
  0000c	6a 10		 push	 16			; 00000010H
  0000e	33 db		 xor	 ebx, ebx
  00010	e8 00 00 00 00	 call	 ?IsConvMode@CProject@@QAEHK@Z ; CProject::IsConvMode
  00015	85 c0		 test	 eax, eax
  00017	0f 84 ef 00 00
	00		 je	 $LN30@PiercingCo

; 650  : 	{
; 651  : 		int	nSize	= GuildBank->m_dwItemMax;

  0001d	8b 4d 0c	 mov	 ecx, DWORD PTR _GuildBank$[ebp]
  00020	33 c0		 xor	 eax, eax
  00022	89 45 fc	 mov	 DWORD PTR _i$1$[ebp], eax
  00025	8b 51 10	 mov	 edx, DWORD PTR [ecx+16]
  00028	89 55 ec	 mov	 DWORD PTR _nSize$1$[ebp], edx

; 652  : 		CItemElem* pItemElem;
; 653  : 		for( int i = 0 ; i < nSize; i++ )

  0002b	85 d2		 test	 edx, edx
  0002d	0f 8e db 00 00
	00		 jle	 $LN3@PiercingCo
  00033	56		 push	 esi
  00034	57		 push	 edi
$LL4@PiercingCo:

; 654  : 		{
; 655  : 			pItemElem	= GuildBank->GetAtId( i );

  00035	50		 push	 eax
  00036	e8 00 00 00 00	 call	 ?GetAtId@?$CItemContainer@VCItemElem@@@@QAEPAVCItemElem@@K@Z ; CItemContainer<CItemElem>::GetAtId
  0003b	8b f0		 mov	 esi, eax

; 656  : 			if( pItemElem )

  0003d	85 f6		 test	 esi, esi
  0003f	0f 84 b2 00 00
	00		 je	 $LN2@PiercingCo

; 657  : 			{
; 658  : 				ItemProp* pGetItemProp		= prj.GetItemProp( pItemElem->m_dwItemId );	

  00045	8b 4e 08	 mov	 ecx, DWORD PTR [esi+8]
; File C:\IAGOS\server\v18\Source\Source\_Common\Data.h

; 270  : 	if( dwIndex >= (DWORD)m_nMaxIndex )

  00048	3b 0d 4c 00 00
	00		 cmp	 ecx, DWORD PTR ?prj@@3VCProject@@A+76
  0004e	0f 83 a3 00 00
	00		 jae	 $LN2@PiercingCo

; 271  : 		return NULL;
; 272  : 	return (T*) m_apOffset[ dwIndex ];

  00054	a1 3c 00 00 00	 mov	 eax, DWORD PTR ?prj@@3VCProject@@A+60
  00059	8b 04 88	 mov	 eax, DWORD PTR [eax+ecx*4]
  0005c	89 45 f0	 mov	 DWORD PTR $T1[ebp], eax
; File C:\IAGOS\server\v18\Source\Source\_Database\DBConvertNew.cpp

; 659  : 				if( pGetItemProp && pGetItemProp->dwItemKind3 != IK3_SUIT && pItemElem->GetPiercingSize() != 0 )

  0005f	85 c0		 test	 eax, eax
  00061	0f 84 90 00 00
	00		 je	 $LN2@PiercingCo
  00067	83 78 78 12	 cmp	 DWORD PTR [eax+120], 18	; 00000012H
  0006b	0f 84 86 00 00
	00		 je	 $LN2@PiercingCo
; File C:\IAGOS\server\v18\Source\Source\_Network\Objects\Obj.h

; 151  : 	int		GetPiercingSize()	{	return m_piercing.GetPiercingSize();		}

  00071	8d 4e 34	 lea	 ecx, DWORD PTR [esi+52]
  00074	e8 00 00 00 00	 call	 ?GetPiercingSize@CPiercing@@QAEHXZ ; CPiercing::GetPiercingSize
; File C:\IAGOS\server\v18\Source\Source\_Database\DBConvertNew.cpp

; 659  : 				if( pGetItemProp && pGetItemProp->dwItemKind3 != IK3_SUIT && pItemElem->GetPiercingSize() != 0 )

  00079	85 c0		 test	 eax, eax
  0007b	74 7a		 je	 SHORT $LN2@PiercingCo
; File C:\IAGOS\server\v18\Source\Source\_Network\Objects\Obj.h

; 153  : 	DWORD	GetPiercingItem( int nth )	{	return m_piercing.GetPiercingItem( nth );	}

  0007d	6a 03		 push	 3
  0007f	8d 4e 34	 lea	 ecx, DWORD PTR [esi+52]
  00082	e8 00 00 00 00	 call	 ?GetPiercingItem@CPiercing@@QAEKH@Z ; CPiercing::GetPiercingItem
  00087	6a 02		 push	 2
  00089	8d 4e 34	 lea	 ecx, DWORD PTR [esi+52]
  0008c	89 45 f8	 mov	 DWORD PTR $T3[ebp], eax
  0008f	e8 00 00 00 00	 call	 ?GetPiercingItem@CPiercing@@QAEKH@Z ; CPiercing::GetPiercingItem
  00094	6a 01		 push	 1
  00096	8d 4e 34	 lea	 ecx, DWORD PTR [esi+52]
  00099	89 45 f4	 mov	 DWORD PTR $T2[ebp], eax
  0009c	e8 00 00 00 00	 call	 ?GetPiercingItem@CPiercing@@QAEKH@Z ; CPiercing::GetPiercingItem
  000a1	6a 00		 push	 0
  000a3	8d 4e 34	 lea	 ecx, DWORD PTR [esi+52]
  000a6	8b d8		 mov	 ebx, eax
  000a8	e8 00 00 00 00	 call	 ?GetPiercingItem@CPiercing@@QAEKH@Z ; CPiercing::GetPiercingItem

; 151  : 	int		GetPiercingSize()	{	return m_piercing.GetPiercingSize();		}

  000ad	8d 4e 34	 lea	 ecx, DWORD PTR [esi+52]

; 153  : 	DWORD	GetPiercingItem( int nth )	{	return m_piercing.GetPiercingItem( nth );	}

  000b0	8b f8		 mov	 edi, eax

; 151  : 	int		GetPiercingSize()	{	return m_piercing.GetPiercingSize();		}

  000b2	e8 00 00 00 00	 call	 ?GetPiercingSize@CPiercing@@QAEHXZ ; CPiercing::GetPiercingSize
; File C:\IAGOS\server\v18\Source\Source\_Database\DBConvertNew.cpp

; 661  : 					FILEOUT( "..\\RemoveItemPiercingConfirm.log", "nGuildId = %06d, ItemName : %s %d/%d/%d %d/%d/%d/%d/%d", 

  000b7	ff 75 f8	 push	 DWORD PTR $T3[ebp]
  000ba	ff 75 f4	 push	 DWORD PTR $T2[ebp]
  000bd	53		 push	 ebx
  000be	57		 push	 edi
  000bf	50		 push	 eax
  000c0	ff 76 74	 push	 DWORD PTR [esi+116]
  000c3	0f b6 46 70	 movzx	 eax, BYTE PTR [esi+112]
  000c7	50		 push	 eax
  000c8	ff 76 5c	 push	 DWORD PTR [esi+92]
  000cb	8b 45 f0	 mov	 eax, DWORD PTR $T1[ebp]
  000ce	83 c0 04	 add	 eax, 4
  000d1	50		 push	 eax
  000d2	ff 75 08	 push	 DWORD PTR _nGuildId$[ebp]
  000d5	68 00 00 00 00	 push	 OFFSET ??_C@_0DH@HKBGNFHB@nGuildId?5?$DN?5?$CF06d?0?5ItemName?5?3?5?$CFs?5@
  000da	68 00 00 00 00	 push	 OFFSET ??_C@_0CB@CKGEIIKM@?4?4?2RemoveItemPiercingConfirm?4lo@
  000df	e8 00 00 00 00	 call	 ?FILEOUT@@YAXPBD0ZZ	; FILEOUT

; 662  : 						nGuildId,  pGetItemProp->szName, pItemElem->GetOption(), pItemElem->m_bItemResist, pItemElem->m_nResistAbilityOption, pItemElem->GetPiercingSize(), pItemElem->GetPiercingItem( 0 ), pItemElem->GetPiercingItem( 1 ), pItemElem->GetPiercingItem( 2 ), pItemElem->GetPiercingItem( 3 ) );
; 663  : 					GuildBank->RemoveAtId( pItemElem->m_dwObjId );

  000e4	8b 4d 0c	 mov	 ecx, DWORD PTR _GuildBank$[ebp]
  000e7	83 c4 30	 add	 esp, 48			; 00000030H
  000ea	ff 76 04	 push	 DWORD PTR [esi+4]
  000ed	e8 00 00 00 00	 call	 ?RemoveAtId@?$CItemContainer@VCItemElem@@@@QAEXK@Z ; CItemContainer<CItemElem>::RemoveAtId

; 664  : 					bUpdate = TRUE;

  000f2	bb 01 00 00 00	 mov	 ebx, 1
$LN2@PiercingCo:

; 652  : 		CItemElem* pItemElem;
; 653  : 		for( int i = 0 ; i < nSize; i++ )

  000f7	8b 45 fc	 mov	 eax, DWORD PTR _i$1$[ebp]
  000fa	8b 4d 0c	 mov	 ecx, DWORD PTR _GuildBank$[ebp]
  000fd	40		 inc	 eax
  000fe	89 45 fc	 mov	 DWORD PTR _i$1$[ebp], eax
  00101	3b 45 ec	 cmp	 eax, DWORD PTR _nSize$1$[ebp]
  00104	0f 8c 2b ff ff
	ff		 jl	 $LL4@PiercingCo
  0010a	5f		 pop	 edi
  0010b	5e		 pop	 esi
$LN30@PiercingCo:

; 665  : 				}
; 666  : 			}
; 667  : 		}
; 668  : 	}
; 669  : 	return bUpdate;
; 670  : }

  0010c	8b c3		 mov	 eax, ebx
$LN3@PiercingCo:
  0010e	5b		 pop	 ebx
  0010f	8b e5		 mov	 esp, ebp
  00111	5d		 pop	 ebp
  00112	c2 08 00	 ret	 8
?PiercingConfirmGuildBank@CDbManager@@QAEHHPAV?$CItemContainer@VCItemElem@@@@@Z ENDP ; CDbManager::PiercingConfirmGuildBank
_TEXT	ENDS
; Function compile flags: /Ogtp
; File C:\IAGOS\server\v18\Source\Source\_Database\DBConvertNew.cpp
; File C:\IAGOS\server\v18\Source\Source\_Common\Data.h
; File C:\IAGOS\server\v18\Source\Source\_Database\DBConvertNew.cpp
; File C:\IAGOS\server\v18\Source\Source\_Network\Objects\Obj.h
; File C:\IAGOS\server\v18\Source\Source\_Database\DBConvertNew.cpp
; File C:\IAGOS\server\v18\Source\Source\_Network\Objects\Obj.h
; File C:\IAGOS\server\v18\Source\Source\_Database\DBConvertNew.cpp
; File C:\IAGOS\server\v18\Source\Source\_Common\Data.h
; File C:\IAGOS\server\v18\Source\Source\_Database\DBConvertNew.cpp
; File C:\IAGOS\server\v18\Source\Source\_Network\Objects\Obj.h
; File C:\IAGOS\server\v18\Source\Source\_Database\DBConvertNew.cpp
; File C:\IAGOS\server\v18\Source\Source\_Network\Objects\Obj.h
; File C:\IAGOS\server\v18\Source\Source\_Database\DBConvertNew.cpp
;	COMDAT ?PiercingConfirmInventoryBank@CDbManager@@QAEHPAVCMover@@@Z
_TEXT	SEGMENT
_nSize$2$ = -28						; size = 4
_nSize$1$ = -24						; size = 4
$T1 = -24						; size = 4
$T2 = -20						; size = 4
$T3 = -20						; size = 4
_pItemElem$1$ = -16					; size = 4
$T4 = -16						; size = 4
tv382 = -12						; size = 4
tv384 = -12						; size = 4
_i$1$ = -8						; size = 4
_i$1$ = -8						; size = 4
_bUpdate$1$ = -4					; size = 4
$T5 = -4						; size = 4
_pMover$ = 8						; size = 4
?PiercingConfirmInventoryBank@CDbManager@@QAEHPAVCMover@@@Z PROC ; CDbManager::PiercingConfirmInventoryBank, COMDAT
; _this$ = ecx

; 603  : {

  00000	55		 push	 ebp
  00001	8b ec		 mov	 ebp, esp
  00003	83 ec 1c	 sub	 esp, 28			; 0000001cH
  00006	57		 push	 edi

; 604  : 	BOOL bUpdate = FALSE;

  00007	33 ff		 xor	 edi, edi

; 605  : 	if( prj.IsConvMode( PIERCING_CONFIRM ) )	

  00009	b9 00 00 00 00	 mov	 ecx, OFFSET ?prj@@3VCProject@@A ; prj
  0000e	6a 10		 push	 16			; 00000010H
  00010	89 7d fc	 mov	 DWORD PTR _bUpdate$1$[ebp], edi
  00013	e8 00 00 00 00	 call	 ?IsConvMode@CProject@@QAEHK@Z ; CProject::IsConvMode
  00018	85 c0		 test	 eax, eax
  0001a	0f 84 22 02 00
	00		 je	 $LN56@PiercingCo

; 606  : 	{
; 607  : 		// Inventory
; 608  : 		int	nSize	= pMover->m_Inventory.m_dwItemMax;

  00020	53		 push	 ebx
  00021	8b 5d 08	 mov	 ebx, DWORD PTR _pMover$[ebp]
  00024	33 c0		 xor	 eax, eax
  00026	56		 push	 esi
  00027	89 45 f8	 mov	 DWORD PTR _i$1$[ebp], eax
  0002a	8b 8b c4 3b 00
	00		 mov	 ecx, DWORD PTR [ebx+15300]
  00030	89 4d e8	 mov	 DWORD PTR _nSize$1$[ebp], ecx

; 609  : 		CItemElem* pItemElem;
; 610  : 		for( int i = 0 ; i < nSize; i++ )

  00033	85 c9		 test	 ecx, ecx
  00035	0f 8e f2 00 00
	00		 jle	 $LN59@PiercingCo
  0003b	8d 8b b4 3b 00
	00		 lea	 ecx, DWORD PTR [ebx+15284]
$LL4@PiercingCo:

; 611  : 		{
; 612  : 			pItemElem	= pMover->m_Inventory.GetAtId( i );

  00041	50		 push	 eax
  00042	e8 00 00 00 00	 call	 ?GetAtId@?$CItemContainer@VCItemElem@@@@QAEPAVCItemElem@@K@Z ; CItemContainer<CItemElem>::GetAtId
  00047	8b c8		 mov	 ecx, eax
  00049	89 4d f0	 mov	 DWORD PTR _pItemElem$1$[ebp], ecx

; 613  : 			if( pItemElem )

  0004c	85 c9		 test	 ecx, ecx
  0004e	0f 84 c0 00 00
	00		 je	 $LN2@PiercingCo

; 614  : 			{
; 615  : 				ItemProp* pGetItemProp		= prj.GetItemProp( pItemElem->m_dwItemId );	

  00054	8b 51 08	 mov	 edx, DWORD PTR [ecx+8]
; File C:\IAGOS\server\v18\Source\Source\_Common\Data.h

; 270  : 	if( dwIndex >= (DWORD)m_nMaxIndex )

  00057	3b 15 4c 00 00
	00		 cmp	 edx, DWORD PTR ?prj@@3VCProject@@A+76
  0005d	0f 83 b1 00 00
	00		 jae	 $LN2@PiercingCo

; 271  : 		return NULL;
; 272  : 	return (T*) m_apOffset[ dwIndex ];

  00063	a1 3c 00 00 00	 mov	 eax, DWORD PTR ?prj@@3VCProject@@A+60
  00068	8b 04 90	 mov	 eax, DWORD PTR [eax+edx*4]
  0006b	89 45 ec	 mov	 DWORD PTR $T2[ebp], eax
; File C:\IAGOS\server\v18\Source\Source\_Database\DBConvertNew.cpp

; 616  : 				if( pGetItemProp && pGetItemProp->dwItemKind3 != IK3_SUIT && pItemElem->GetPiercingSize() != 0 )

  0006e	85 c0		 test	 eax, eax
  00070	0f 84 9e 00 00
	00		 je	 $LN2@PiercingCo
  00076	83 78 78 12	 cmp	 DWORD PTR [eax+120], 18	; 00000012H
  0007a	0f 84 94 00 00
	00		 je	 $LN2@PiercingCo
; File C:\IAGOS\server\v18\Source\Source\_Network\Objects\Obj.h

; 151  : 	int		GetPiercingSize()	{	return m_piercing.GetPiercingSize();		}

  00080	8d 71 34	 lea	 esi, DWORD PTR [ecx+52]
  00083	8b ce		 mov	 ecx, esi
  00085	89 75 f4	 mov	 DWORD PTR tv384[ebp], esi
  00088	e8 00 00 00 00	 call	 ?GetPiercingSize@CPiercing@@QAEHXZ ; CPiercing::GetPiercingSize
; File C:\IAGOS\server\v18\Source\Source\_Database\DBConvertNew.cpp

; 616  : 				if( pGetItemProp && pGetItemProp->dwItemKind3 != IK3_SUIT && pItemElem->GetPiercingSize() != 0 )

  0008d	85 c0		 test	 eax, eax
  0008f	0f 84 7f 00 00
	00		 je	 $LN2@PiercingCo
; File C:\IAGOS\server\v18\Source\Source\_Network\Objects\Obj.h

; 153  : 	DWORD	GetPiercingItem( int nth )	{	return m_piercing.GetPiercingItem( nth );	}

  00095	6a 03		 push	 3
  00097	8b ce		 mov	 ecx, esi
  00099	e8 00 00 00 00	 call	 ?GetPiercingItem@CPiercing@@QAEKH@Z ; CPiercing::GetPiercingItem
  0009e	6a 02		 push	 2
  000a0	8b ce		 mov	 ecx, esi
  000a2	89 45 fc	 mov	 DWORD PTR $T5[ebp], eax
  000a5	e8 00 00 00 00	 call	 ?GetPiercingItem@CPiercing@@QAEKH@Z ; CPiercing::GetPiercingItem
  000aa	6a 01		 push	 1
  000ac	8b ce		 mov	 ecx, esi
  000ae	8b d8		 mov	 ebx, eax
  000b0	e8 00 00 00 00	 call	 ?GetPiercingItem@CPiercing@@QAEKH@Z ; CPiercing::GetPiercingItem
  000b5	6a 00		 push	 0
  000b7	8b ce		 mov	 ecx, esi
  000b9	8b f8		 mov	 edi, eax
  000bb	e8 00 00 00 00	 call	 ?GetPiercingItem@CPiercing@@QAEKH@Z ; CPiercing::GetPiercingItem

; 151  : 	int		GetPiercingSize()	{	return m_piercing.GetPiercingSize();		}

  000c0	8b 4d f4	 mov	 ecx, DWORD PTR tv384[ebp]

; 153  : 	DWORD	GetPiercingItem( int nth )	{	return m_piercing.GetPiercingItem( nth );	}

  000c3	8b f0		 mov	 esi, eax

; 151  : 	int		GetPiercingSize()	{	return m_piercing.GetPiercingSize();		}

  000c5	e8 00 00 00 00	 call	 ?GetPiercingSize@CPiercing@@QAEHXZ ; CPiercing::GetPiercingSize
; File C:\IAGOS\server\v18\Source\Source\_Database\DBConvertNew.cpp

; 618  : 					FILEOUT( "..\\RemoveItemPiercingConfirm.log", "IdPlayer = %07d, ItemName : %s %d/%d/%d %d/%d/%d/%d/%d", 

  000ca	ff 75 fc	 push	 DWORD PTR $T5[ebp]
  000cd	53		 push	 ebx
  000ce	8b 5d 08	 mov	 ebx, DWORD PTR _pMover$[ebp]
  000d1	57		 push	 edi
  000d2	56		 push	 esi
  000d3	8b 75 f0	 mov	 esi, DWORD PTR _pItemElem$1$[ebp]
  000d6	50		 push	 eax
  000d7	ff 76 74	 push	 DWORD PTR [esi+116]
  000da	0f b6 46 70	 movzx	 eax, BYTE PTR [esi+112]
  000de	50		 push	 eax
  000df	ff 76 5c	 push	 DWORD PTR [esi+92]
  000e2	8b 45 ec	 mov	 eax, DWORD PTR $T2[ebp]
  000e5	83 c0 04	 add	 eax, 4
  000e8	50		 push	 eax
  000e9	ff b3 90 00 00
	00		 push	 DWORD PTR [ebx+144]
  000ef	68 00 00 00 00	 push	 OFFSET ??_C@_0DH@GNEHNCOD@IdPlayer?5?$DN?5?$CF07d?0?5ItemName?5?3?5?$CFs?5@
  000f4	68 00 00 00 00	 push	 OFFSET ??_C@_0CB@CKGEIIKM@?4?4?2RemoveItemPiercingConfirm?4lo@
  000f9	e8 00 00 00 00	 call	 ?FILEOUT@@YAXPBD0ZZ	; FILEOUT
  000fe	83 c4 30	 add	 esp, 48			; 00000030H

; 619  : 						pMover->m_idPlayer,  pGetItemProp->szName, pItemElem->GetOption(), pItemElem->m_bItemResist, pItemElem->m_nResistAbilityOption, pItemElem->GetPiercingSize(), pItemElem->GetPiercingItem( 0 ), pItemElem->GetPiercingItem( 1 ), pItemElem->GetPiercingItem( 2 ), pItemElem->GetPiercingItem( 3 ) );
; 620  : 					pMover->m_Inventory.RemoveAtId( pItemElem->m_dwObjId );

  00101	8d 8b b4 3b 00
	00		 lea	 ecx, DWORD PTR [ebx+15284]
  00107	ff 76 04	 push	 DWORD PTR [esi+4]
  0010a	e8 00 00 00 00	 call	 ?RemoveAtId@?$CItemContainer@VCItemElem@@@@QAEXK@Z ; CItemContainer<CItemElem>::RemoveAtId

; 621  : 					bUpdate = TRUE;

  0010f	bf 01 00 00 00	 mov	 edi, 1
$LN2@PiercingCo:

; 609  : 		CItemElem* pItemElem;
; 610  : 		for( int i = 0 ; i < nSize; i++ )

  00114	8b 45 f8	 mov	 eax, DWORD PTR _i$1$[ebp]
  00117	8d 8b b4 3b 00
	00		 lea	 ecx, DWORD PTR [ebx+15284]
  0011d	40		 inc	 eax
  0011e	89 45 f8	 mov	 DWORD PTR _i$1$[ebp], eax
  00121	3b 45 e8	 cmp	 eax, DWORD PTR _nSize$1$[ebp]
  00124	0f 8c 17 ff ff
	ff		 jl	 $LL4@PiercingCo
  0012a	89 7d fc	 mov	 DWORD PTR _bUpdate$1$[ebp], edi
$LN59@PiercingCo:

; 622  : 				}
; 623  : 			}
; 624  : 		}
; 625  : 		// Bank
; 626  : 		nSize	= pMover->m_Bank[0].m_dwItemMax;

  0012d	8b 8b f4 3b 00
	00		 mov	 ecx, DWORD PTR [ebx+15348]
  00133	33 c0		 xor	 eax, eax
  00135	89 4d e4	 mov	 DWORD PTR _nSize$2$[ebp], ecx
  00138	89 45 f8	 mov	 DWORD PTR _i$1$[ebp], eax

; 627  : 		for( int i = 0 ; i < nSize; i++ )

  0013b	85 c9		 test	 ecx, ecx
  0013d	0f 8e f4 00 00
	00		 jle	 $LN57@PiercingCo
  00143	8d 8b e4 3b 00
	00		 lea	 ecx, DWORD PTR [ebx+15332]
  00149	89 4d f4	 mov	 DWORD PTR tv382[ebp], ecx
  0014c	0f 1f 40 00	 npad	 4
$LL7@PiercingCo:

; 628  : 		{
; 629  : 			pItemElem	= pMover->m_Bank[0].GetAtId( i );

  00150	50		 push	 eax
  00151	e8 00 00 00 00	 call	 ?GetAtId@?$CItemContainer@VCItemElem@@@@QAEPAVCItemElem@@K@Z ; CItemContainer<CItemElem>::GetAtId
  00156	8b f0		 mov	 esi, eax

; 630  : 			if( pItemElem )

  00158	85 f6		 test	 esi, esi
  0015a	0f 84 c4 00 00
	00		 je	 $LN5@PiercingCo

; 631  : 			{
; 632  : 				ItemProp* pGetItemProp		= prj.GetItemProp( pItemElem->m_dwItemId );	

  00160	8b 4e 08	 mov	 ecx, DWORD PTR [esi+8]
; File C:\IAGOS\server\v18\Source\Source\_Common\Data.h

; 270  : 	if( dwIndex >= (DWORD)m_nMaxIndex )

  00163	3b 0d 4c 00 00
	00		 cmp	 ecx, DWORD PTR ?prj@@3VCProject@@A+76
  00169	0f 83 b5 00 00
	00		 jae	 $LN5@PiercingCo

; 271  : 		return NULL;
; 272  : 	return (T*) m_apOffset[ dwIndex ];

  0016f	a1 3c 00 00 00	 mov	 eax, DWORD PTR ?prj@@3VCProject@@A+60
  00174	8b 04 88	 mov	 eax, DWORD PTR [eax+ecx*4]
  00177	89 45 f0	 mov	 DWORD PTR $T4[ebp], eax
; File C:\IAGOS\server\v18\Source\Source\_Database\DBConvertNew.cpp

; 633  : 				if( pGetItemProp && pGetItemProp->dwItemKind3 != IK3_SUIT && pItemElem->GetPiercingSize() != 0 )

  0017a	85 c0		 test	 eax, eax
  0017c	0f 84 a2 00 00
	00		 je	 $LN5@PiercingCo
  00182	83 78 78 12	 cmp	 DWORD PTR [eax+120], 18	; 00000012H
  00186	0f 84 98 00 00
	00		 je	 $LN5@PiercingCo
; File C:\IAGOS\server\v18\Source\Source\_Network\Objects\Obj.h

; 151  : 	int		GetPiercingSize()	{	return m_piercing.GetPiercingSize();		}

  0018c	8d 4e 34	 lea	 ecx, DWORD PTR [esi+52]
  0018f	e8 00 00 00 00	 call	 ?GetPiercingSize@CPiercing@@QAEHXZ ; CPiercing::GetPiercingSize
; File C:\IAGOS\server\v18\Source\Source\_Database\DBConvertNew.cpp

; 633  : 				if( pGetItemProp && pGetItemProp->dwItemKind3 != IK3_SUIT && pItemElem->GetPiercingSize() != 0 )

  00194	85 c0		 test	 eax, eax
  00196	0f 84 85 00 00
	00		 je	 $LN61@PiercingCo
; File C:\IAGOS\server\v18\Source\Source\_Network\Objects\Obj.h

; 153  : 	DWORD	GetPiercingItem( int nth )	{	return m_piercing.GetPiercingItem( nth );	}

  0019c	6a 03		 push	 3
  0019e	8d 4e 34	 lea	 ecx, DWORD PTR [esi+52]
  001a1	e8 00 00 00 00	 call	 ?GetPiercingItem@CPiercing@@QAEKH@Z ; CPiercing::GetPiercingItem
  001a6	6a 02		 push	 2
  001a8	8d 4e 34	 lea	 ecx, DWORD PTR [esi+52]
  001ab	89 45 e8	 mov	 DWORD PTR $T1[ebp], eax
  001ae	e8 00 00 00 00	 call	 ?GetPiercingItem@CPiercing@@QAEKH@Z ; CPiercing::GetPiercingItem
  001b3	6a 01		 push	 1
  001b5	8d 4e 34	 lea	 ecx, DWORD PTR [esi+52]
  001b8	89 45 ec	 mov	 DWORD PTR $T3[ebp], eax
  001bb	e8 00 00 00 00	 call	 ?GetPiercingItem@CPiercing@@QAEKH@Z ; CPiercing::GetPiercingItem
  001c0	6a 00		 push	 0
  001c2	8d 4e 34	 lea	 ecx, DWORD PTR [esi+52]
  001c5	8b d8		 mov	 ebx, eax
  001c7	e8 00 00 00 00	 call	 ?GetPiercingItem@CPiercing@@QAEKH@Z ; CPiercing::GetPiercingItem

; 151  : 	int		GetPiercingSize()	{	return m_piercing.GetPiercingSize();		}

  001cc	8d 4e 34	 lea	 ecx, DWORD PTR [esi+52]

; 153  : 	DWORD	GetPiercingItem( int nth )	{	return m_piercing.GetPiercingItem( nth );	}

  001cf	8b f8		 mov	 edi, eax

; 151  : 	int		GetPiercingSize()	{	return m_piercing.GetPiercingSize();		}

  001d1	e8 00 00 00 00	 call	 ?GetPiercingSize@CPiercing@@QAEHXZ ; CPiercing::GetPiercingSize
; File C:\IAGOS\server\v18\Source\Source\_Database\DBConvertNew.cpp

; 635  : 					FILEOUT( "..\\RemoveItemPiercingConfirm.log", "IdPlayer = %07d, ItemName : %s %d/%d/%d %d/%d/%d/%d/%d", 

  001d6	ff 75 e8	 push	 DWORD PTR $T1[ebp]
  001d9	ff 75 ec	 push	 DWORD PTR $T3[ebp]
  001dc	53		 push	 ebx
  001dd	57		 push	 edi
  001de	50		 push	 eax
  001df	ff 76 74	 push	 DWORD PTR [esi+116]
  001e2	0f b6 46 70	 movzx	 eax, BYTE PTR [esi+112]
  001e6	50		 push	 eax
  001e7	ff 76 5c	 push	 DWORD PTR [esi+92]
  001ea	8b 45 f0	 mov	 eax, DWORD PTR $T4[ebp]
  001ed	83 c0 04	 add	 eax, 4
  001f0	50		 push	 eax
  001f1	8b 45 08	 mov	 eax, DWORD PTR _pMover$[ebp]
  001f4	ff b0 90 00 00
	00		 push	 DWORD PTR [eax+144]
  001fa	68 00 00 00 00	 push	 OFFSET ??_C@_0DH@GNEHNCOD@IdPlayer?5?$DN?5?$CF07d?0?5ItemName?5?3?5?$CFs?5@
  001ff	68 00 00 00 00	 push	 OFFSET ??_C@_0CB@CKGEIIKM@?4?4?2RemoveItemPiercingConfirm?4lo@
  00204	e8 00 00 00 00	 call	 ?FILEOUT@@YAXPBD0ZZ	; FILEOUT

; 636  : 						pMover->m_idPlayer,  pGetItemProp->szName, pItemElem->GetOption(), pItemElem->m_bItemResist, pItemElem->m_nResistAbilityOption, pItemElem->GetPiercingSize(), pItemElem->GetPiercingItem( 0 ), pItemElem->GetPiercingItem( 1 ), pItemElem->GetPiercingItem( 2 ), pItemElem->GetPiercingItem( 3 ) );
; 637  : 					pMover->m_Bank[0].RemoveAtId( pItemElem->m_dwObjId );

  00209	8b 4d f4	 mov	 ecx, DWORD PTR tv382[ebp]
  0020c	83 c4 30	 add	 esp, 48			; 00000030H
  0020f	ff 76 04	 push	 DWORD PTR [esi+4]
  00212	e8 00 00 00 00	 call	 ?RemoveAtId@?$CItemContainer@VCItemElem@@@@QAEXK@Z ; CItemContainer<CItemElem>::RemoveAtId

; 638  : 					bUpdate = TRUE;

  00217	bf 01 00 00 00	 mov	 edi, 1
  0021c	89 7d fc	 mov	 DWORD PTR _bUpdate$1$[ebp], edi
  0021f	eb 03		 jmp	 SHORT $LN5@PiercingCo
$LN61@PiercingCo:

; 633  : 				if( pGetItemProp && pGetItemProp->dwItemKind3 != IK3_SUIT && pItemElem->GetPiercingSize() != 0 )

  00221	8b 7d fc	 mov	 edi, DWORD PTR _bUpdate$1$[ebp]
$LN5@PiercingCo:

; 627  : 		for( int i = 0 ; i < nSize; i++ )

  00224	8b 45 f8	 mov	 eax, DWORD PTR _i$1$[ebp]
  00227	8b 4d f4	 mov	 ecx, DWORD PTR tv382[ebp]
  0022a	40		 inc	 eax
  0022b	89 45 f8	 mov	 DWORD PTR _i$1$[ebp], eax
  0022e	3b 45 e4	 cmp	 eax, DWORD PTR _nSize$2$[ebp]
  00231	0f 8c 19 ff ff
	ff		 jl	 $LL7@PiercingCo
$LN57@PiercingCo:
  00237	5e		 pop	 esi
  00238	5b		 pop	 ebx

; 639  : 				}
; 640  : 			}
; 641  : 		}
; 642  : 	}
; 643  : 	return bUpdate;

  00239	8b c7		 mov	 eax, edi
  0023b	5f		 pop	 edi

; 644  : }

  0023c	8b e5		 mov	 esp, ebp
  0023e	5d		 pop	 ebp
  0023f	c2 04 00	 ret	 4
$LN56@PiercingCo:

; 639  : 				}
; 640  : 			}
; 641  : 		}
; 642  : 	}
; 643  : 	return bUpdate;

  00242	8b c7		 mov	 eax, edi
  00244	5f		 pop	 edi

; 644  : }

  00245	8b e5		 mov	 esp, ebp
  00247	5d		 pop	 ebp
  00248	c2 04 00	 ret	 4
?PiercingConfirmInventoryBank@CDbManager@@QAEHPAVCMover@@@Z ENDP ; CDbManager::PiercingConfirmInventoryBank
_TEXT	ENDS
; Function compile flags: /Ogtp
; File C:\IAGOS\server\v18\Source\Source\_Database\DBConvertNew.cpp
; File C:\IAGOS\server\v18\Source\Source\_database\DbManager.h
; File C:\IAGOS\server\v18\Source\Source\_Database\DBConvertNew.cpp
;	COMDAT ?SaveConvGuildBank@CDbManager@@QAEHPADHPAV?$CItemContainer@VCItemElem@@@@PAVCQuery@@2@Z
_TEXT	SEGMENT
_icsGuildBank$ = -21420					; size = 21416
__$ArrayPad$ = -4					; size = 4
_pszSQL$ = 8						; size = 4
_nGuildId$ = 12						; size = 4
_GuildBank$ = 16					; size = 4
_pQueryChar$ = 20					; size = 4
_pQuerySave$ = 24					; size = 4
?SaveConvGuildBank@CDbManager@@QAEHPADHPAV?$CItemContainer@VCItemElem@@@@PAVCQuery@@2@Z PROC ; CDbManager::SaveConvGuildBank, COMDAT
; _this$ = ecx

; 363  : {

  00000	55		 push	 ebp
  00001	8b ec		 mov	 ebp, esp
  00003	b8 ac 53 00 00	 mov	 eax, 21420		; 000053acH
  00008	e8 00 00 00 00	 call	 __chkstk
  0000d	a1 00 00 00 00	 mov	 eax, DWORD PTR ___security_cookie
  00012	33 c5		 xor	 eax, ebp
  00014	89 45 fc	 mov	 DWORD PTR __$ArrayPad$[ebp], eax
  00017	8b 45 10	 mov	 eax, DWORD PTR _GuildBank$[ebp]

; 366  : 	SaveGuildBank( GuildBank, &icsGuildBank );

  0001a	8d 95 54 ac ff
	ff		 lea	 edx, DWORD PTR _icsGuildBank$[ebp]
  00020	53		 push	 ebx
  00021	8b 5d 08	 mov	 ebx, DWORD PTR _pszSQL$[ebp]
  00024	56		 push	 esi
  00025	8b 75 18	 mov	 esi, DWORD PTR _pQuerySave$[ebp]
  00028	57		 push	 edi
  00029	8b 7d 14	 mov	 edi, DWORD PTR _pQueryChar$[ebp]
  0002c	52		 push	 edx
  0002d	50		 push	 eax
; File C:\IAGOS\server\v18\Source\Source\_database\DbManager.h

; 615  : 			*szItem	= '\0';

  0002e	c6 85 54 ac ff
	ff 00		 mov	 BYTE PTR _icsGuildBank$[ebp], 0

; 616  : 			*szIndex	= '\0';

  00035	c6 85 54 c4 ff
	ff 00		 mov	 BYTE PTR _icsGuildBank$[ebp+6144], 0

; 617  : 			*szObjIndex	= '\0';

  0003c	c6 85 54 c6 ff
	ff 00		 mov	 BYTE PTR _icsGuildBank$[ebp+6656], 0

; 618  : 			*szExt	= '\0';

  00043	c6 85 54 c8 ff
	ff 00		 mov	 BYTE PTR _icsGuildBank$[ebp+7168], 0

; 619  : 			*szPiercing	= '\0';

  0004a	c6 85 54 d0 ff
	ff 00		 mov	 BYTE PTR _icsGuildBank$[ebp+9216], 0

; 620  : 			*szPet	= '\0';

  00051	c6 85 94 ef ff
	ff 00		 mov	 BYTE PTR _icsGuildBank$[ebp+17216], 0
; File C:\IAGOS\server\v18\Source\Source\_Database\DBConvertNew.cpp

; 366  : 	SaveGuildBank( GuildBank, &icsGuildBank );

  00058	e8 00 00 00 00	 call	 ?SaveGuildBank@CDbManager@@QAEXPAV?$CItemContainer@VCItemElem@@@@PAU_ItemContainerStruct@@@Z ; CDbManager::SaveGuildBank

; 367  : 	
; 368  : 	sprintf( pszSQL, "UPDATE GUILD_BANK_TBL"

  0005d	ff 35 00 00 00
	00		 push	 DWORD PTR ?g_appInfo@@3UAppInfo@@A
  00063	8d 85 54 ac ff
	ff		 lea	 eax, DWORD PTR _icsGuildBank$[ebp]
  00069	50		 push	 eax
  0006a	68 00 00 00 00	 push	 OFFSET ??_C@_0FP@DEDGGBGG@UPDATE?5GUILD_BANK_TBL?5SET?5m_Gui@
  0006f	53		 push	 ebx
  00070	e8 00 00 00 00	 call	 _sprintf
  00075	83 c4 10	 add	 esp, 16			; 00000010H

; 369  : 		" SET m_GuildBank = '%s'"
; 370  : 		" where m_idGuild = '%06d' and serverindex = '%02d'",
; 371  : 		icsGuildBank.szItem, g_appInfo.dwSys );
; 372  : 
; 373  : 	if( prj.IsConvMode( SAVE_TEXT ) )

  00078	b9 00 00 00 00	 mov	 ecx, OFFSET ?prj@@3VCProject@@A ; prj
  0007d	6a 02		 push	 2
  0007f	e8 00 00 00 00	 call	 ?IsConvMode@CProject@@QAEHK@Z ; CProject::IsConvMode
  00084	53		 push	 ebx
  00085	85 c0		 test	 eax, eax
  00087	74 0f		 je	 SHORT $LN2@SaveConvGu

; 374  : 	{
; 375  : 		FILEOUT2( "..\\ConvertQuery.txt", pszSQL );

  00089	68 00 00 00 00	 push	 OFFSET ??_C@_0BE@PAOPBHJN@?4?4?2ConvertQuery?4txt@
  0008e	e8 00 00 00 00	 call	 ?FILEOUT2@@YAXPBD0ZZ	; FILEOUT2
  00093	83 c4 08	 add	 esp, 8

; 376  : 	}

  00096	eb 0b		 jmp	 SHORT $LN4@SaveConvGu
$LN2@SaveConvGu:

; 377  : 	else
; 378  : 	{	
; 379  : 		if( FALSE == pQuerySave->Exec( pszSQL ) )

  00098	8b ce		 mov	 ecx, esi
  0009a	e8 00 00 00 00	 call	 ?Exec@CQuery@@QAEHPBD@Z	; CQuery::Exec
  0009f	85 c0		 test	 eax, eax
  000a1	74 66		 je	 SHORT $LN50@SaveConvGu
$LN4@SaveConvGu:

; 380  : 		{
; 381  : 			SAFE_DELETE( pQueryChar );
; 382  : 			SAFE_DELETE( pQuerySave );
; 383  : 			AfxMessageBox( pszSQL, MB_OK );
; 384  : 			return FALSE;
; 385  : 		}
; 386  : 	}
; 387  : 	
; 388  : 	sprintf( pszSQL, "UPDATE GUILD_BANK_EXT_TBL"

  000a3	ff 35 00 00 00
	00		 push	 DWORD PTR ?g_appInfo@@3UAppInfo@@A
  000a9	8d 85 54 d0 ff
	ff		 lea	 eax, DWORD PTR _icsGuildBank$[ebp+9216]
  000af	ff 75 0c	 push	 DWORD PTR _nGuildId$[ebp]
  000b2	50		 push	 eax
  000b3	8d 85 54 c8 ff
	ff		 lea	 eax, DWORD PTR _icsGuildBank$[ebp+7168]
  000b9	50		 push	 eax
  000ba	68 00 00 00 00	 push	 OFFSET ??_C@_0IC@KHIDFCII@UPDATE?5GUILD_BANK_EXT_TBL?5SET?5m@
  000bf	53		 push	 ebx
  000c0	e8 00 00 00 00	 call	 _sprintf
  000c5	83 c4 18	 add	 esp, 24			; 00000018H

; 389  : 		" SET m_extGuildBank = '%s', m_GuildBankPiercing = '%s'"
; 390  : 		" where m_idGuild = '%06d' and serverindex = '%02d'",
; 391  : 		icsGuildBank.szExt, icsGuildBank.szPiercing, nGuildId, g_appInfo.dwSys );
; 392  : 
; 393  : 	if( prj.IsConvMode( SAVE_TEXT ) )

  000c8	b9 00 00 00 00	 mov	 ecx, OFFSET ?prj@@3VCProject@@A ; prj
  000cd	6a 02		 push	 2
  000cf	e8 00 00 00 00	 call	 ?IsConvMode@CProject@@QAEHK@Z ; CProject::IsConvMode
  000d4	53		 push	 ebx
  000d5	85 c0		 test	 eax, eax
  000d7	74 25		 je	 SHORT $LN7@SaveConvGu

; 394  : 	{
; 395  : 		FILEOUT2( "..\\ConvertQuery.txt", pszSQL );

  000d9	68 00 00 00 00	 push	 OFFSET ??_C@_0BE@PAOPBHJN@?4?4?2ConvertQuery?4txt@
  000de	e8 00 00 00 00	 call	 ?FILEOUT2@@YAXPBD0ZZ	; FILEOUT2
  000e3	83 c4 08	 add	 esp, 8
$LN9@SaveConvGu:

; 404  : 			return FALSE;
; 405  : 		}
; 406  : 	}
; 407  : 	return TRUE;	
; 408  : }

  000e6	5f		 pop	 edi
  000e7	5e		 pop	 esi
  000e8	b8 01 00 00 00	 mov	 eax, 1
  000ed	5b		 pop	 ebx
  000ee	8b 4d fc	 mov	 ecx, DWORD PTR __$ArrayPad$[ebp]
  000f1	33 cd		 xor	 ecx, ebp
  000f3	e8 00 00 00 00	 call	 @__security_check_cookie@4
  000f8	8b e5		 mov	 esp, ebp
  000fa	5d		 pop	 ebp
  000fb	c2 14 00	 ret	 20			; 00000014H
$LN7@SaveConvGu:

; 396  : 	}
; 397  : 	else
; 398  : 	{
; 399  : 		if( FALSE == pQuerySave->Exec( pszSQL ) )

  000fe	8b ce		 mov	 ecx, esi
  00100	e8 00 00 00 00	 call	 ?Exec@CQuery@@QAEHPBD@Z	; CQuery::Exec
  00105	85 c0		 test	 eax, eax
  00107	75 dd		 jne	 SHORT $LN9@SaveConvGu
$LN50@SaveConvGu:

; 400  : 		{
; 401  : 			SAFE_DELETE( pQueryChar );
; 402  : 			SAFE_DELETE( pQuerySave );
; 403  : 			AfxMessageBox( pszSQL, MB_OK );

  00109	85 ff		 test	 edi, edi
  0010b	74 15		 je	 SHORT $LN32@SaveConvGu
  0010d	8b cf		 mov	 ecx, edi
  0010f	e8 00 00 00 00	 call	 ??1CQuery@@QAE@XZ	; CQuery::~CQuery
  00114	68 10 3d 00 00	 push	 15632			; 00003d10H
  00119	57		 push	 edi
  0011a	e8 00 00 00 00	 call	 ??3@YAXPAXI@Z		; operator delete
  0011f	83 c4 08	 add	 esp, 8
$LN32@SaveConvGu:
  00122	85 f6		 test	 esi, esi
  00124	74 15		 je	 SHORT $LN36@SaveConvGu
  00126	8b ce		 mov	 ecx, esi
  00128	e8 00 00 00 00	 call	 ??1CQuery@@QAE@XZ	; CQuery::~CQuery
  0012d	68 10 3d 00 00	 push	 15632			; 00003d10H
  00132	56		 push	 esi
  00133	e8 00 00 00 00	 call	 ??3@YAXPAXI@Z		; operator delete
  00138	83 c4 08	 add	 esp, 8
$LN36@SaveConvGu:
  0013b	6a 00		 push	 0
  0013d	6a 00		 push	 0
  0013f	53		 push	 ebx
  00140	e8 00 00 00 00	 call	 ?AfxMessageBox@@YGHPBDII@Z ; AfxMessageBox

; 404  : 			return FALSE;
; 405  : 		}
; 406  : 	}
; 407  : 	return TRUE;	
; 408  : }

  00145	8b 4d fc	 mov	 ecx, DWORD PTR __$ArrayPad$[ebp]
  00148	33 c0		 xor	 eax, eax
  0014a	5f		 pop	 edi
  0014b	5e		 pop	 esi
  0014c	33 cd		 xor	 ecx, ebp
  0014e	5b		 pop	 ebx
  0014f	e8 00 00 00 00	 call	 @__security_check_cookie@4
  00154	8b e5		 mov	 esp, ebp
  00156	5d		 pop	 ebp
  00157	c2 14 00	 ret	 20			; 00000014H
?SaveConvGuildBank@CDbManager@@QAEHPADHPAV?$CItemContainer@VCItemElem@@@@PAVCQuery@@2@Z ENDP ; CDbManager::SaveConvGuildBank
_TEXT	ENDS
; Function compile flags: /Ogtp
; File C:\IAGOS\server\v18\Source\Source\_Database\DBConvertNew.cpp
; File C:\IAGOS\server\v18\Source\Source\_database\DbManager.h
; File C:\IAGOS\server\v18\Source\Source\_Database\DBConvertNew.cpp
;	COMDAT ?SaveUserInventoryBank@CDbManager@@QAEHPADPAVCMover@@PAVCQuery@@2@Z
_TEXT	SEGMENT
_pszSQL$GSCopy$1$ = -42844				; size = 4
_pMover$GSCopy$1$ = -42840				; size = 4
_icsBank$ = -42836					; size = 21416
_icsInventory$ = -21420					; size = 21416
__$ArrayPad$ = -4					; size = 4
_pszSQL$ = 8						; size = 4
_pMover$ = 12						; size = 4
_pQueryChar$ = 16					; size = 4
_pQuerySave$ = 20					; size = 4
?SaveUserInventoryBank@CDbManager@@QAEHPADPAVCMover@@PAVCQuery@@2@Z PROC ; CDbManager::SaveUserInventoryBank, COMDAT
; _this$ = ecx

; 274  : {

  00000	55		 push	 ebp
  00001	8b ec		 mov	 ebp, esp
  00003	b8 5c a7 00 00	 mov	 eax, 42844		; 0000a75cH
  00008	e8 00 00 00 00	 call	 __chkstk
  0000d	a1 00 00 00 00	 mov	 eax, DWORD PTR ___security_cookie
  00012	33 c5		 xor	 eax, ebp
  00014	89 45 fc	 mov	 DWORD PTR __$ArrayPad$[ebp], eax
  00017	8b 45 08	 mov	 eax, DWORD PTR _pszSQL$[ebp]
  0001a	53		 push	 ebx
  0001b	8b 5d 10	 mov	 ebx, DWORD PTR _pQueryChar$[ebp]
  0001e	56		 push	 esi
  0001f	57		 push	 edi
  00020	8b 7d 14	 mov	 edi, DWORD PTR _pQuerySave$[ebp]
  00023	8b f1		 mov	 esi, ecx

; 276  : 	SaveInventory( pMover, &icsInventory );

  00025	8d 8d 54 ac ff
	ff		 lea	 ecx, DWORD PTR _icsInventory$[ebp]
  0002b	89 85 a4 58 ff
	ff		 mov	 DWORD PTR _pszSQL$GSCopy$1$[ebp], eax
  00031	8b 45 0c	 mov	 eax, DWORD PTR _pMover$[ebp]
  00034	51		 push	 ecx
  00035	50		 push	 eax
  00036	8b ce		 mov	 ecx, esi
  00038	89 85 a8 58 ff
	ff		 mov	 DWORD PTR _pMover$GSCopy$1$[ebp], eax
; File C:\IAGOS\server\v18\Source\Source\_database\DbManager.h

; 615  : 			*szItem	= '\0';

  0003e	c6 85 54 ac ff
	ff 00		 mov	 BYTE PTR _icsInventory$[ebp], 0

; 616  : 			*szIndex	= '\0';

  00045	c6 85 54 c4 ff
	ff 00		 mov	 BYTE PTR _icsInventory$[ebp+6144], 0

; 617  : 			*szObjIndex	= '\0';

  0004c	c6 85 54 c6 ff
	ff 00		 mov	 BYTE PTR _icsInventory$[ebp+6656], 0

; 618  : 			*szExt	= '\0';

  00053	c6 85 54 c8 ff
	ff 00		 mov	 BYTE PTR _icsInventory$[ebp+7168], 0

; 619  : 			*szPiercing	= '\0';

  0005a	c6 85 54 d0 ff
	ff 00		 mov	 BYTE PTR _icsInventory$[ebp+9216], 0

; 620  : 			*szPet	= '\0';

  00061	c6 85 94 ef ff
	ff 00		 mov	 BYTE PTR _icsInventory$[ebp+17216], 0

; 615  : 			*szItem	= '\0';

  00068	c6 85 ac 58 ff
	ff 00		 mov	 BYTE PTR _icsBank$[ebp], 0

; 616  : 			*szIndex	= '\0';

  0006f	c6 85 ac 70 ff
	ff 00		 mov	 BYTE PTR _icsBank$[ebp+6144], 0

; 617  : 			*szObjIndex	= '\0';

  00076	c6 85 ac 72 ff
	ff 00		 mov	 BYTE PTR _icsBank$[ebp+6656], 0

; 618  : 			*szExt	= '\0';

  0007d	c6 85 ac 74 ff
	ff 00		 mov	 BYTE PTR _icsBank$[ebp+7168], 0

; 619  : 			*szPiercing	= '\0';

  00084	c6 85 ac 7c ff
	ff 00		 mov	 BYTE PTR _icsBank$[ebp+9216], 0

; 620  : 			*szPet	= '\0';

  0008b	c6 85 ec 9b ff
	ff 00		 mov	 BYTE PTR _icsBank$[ebp+17216], 0
; File C:\IAGOS\server\v18\Source\Source\_Database\DBConvertNew.cpp

; 276  : 	SaveInventory( pMover, &icsInventory );

  00092	e8 00 00 00 00	 call	 ?SaveInventory@CDbManager@@QAEXPAVCMover@@PAU_ItemContainerStruct@@@Z ; CDbManager::SaveInventory

; 277  : 	SaveBank( pMover, &pMover->m_Bank[0], &icsBank );

  00097	8b 8d a8 58 ff
	ff		 mov	 ecx, DWORD PTR _pMover$GSCopy$1$[ebp]
  0009d	8d 85 ac 58 ff
	ff		 lea	 eax, DWORD PTR _icsBank$[ebp]
  000a3	50		 push	 eax
  000a4	8d 81 e4 3b 00
	00		 lea	 eax, DWORD PTR [ecx+15332]
  000aa	50		 push	 eax
  000ab	51		 push	 ecx
  000ac	8b ce		 mov	 ecx, esi
  000ae	e8 00 00 00 00	 call	 ?SaveBank@CDbManager@@QAEXPAVCMover@@PAV?$CItemContainer@VCItemElem@@@@PAU_ItemContainerStruct@@@Z ; CDbManager::SaveBank

; 278  : 
; 279  : 	sprintf( pszSQL, "UPDATE INVENTORY_TBL"

  000b3	ff 35 00 00 00
	00		 push	 DWORD PTR ?g_appInfo@@3UAppInfo@@A
  000b9	8b 85 a8 58 ff
	ff		 mov	 eax, DWORD PTR _pMover$GSCopy$1$[ebp]
  000bf	8b b5 a4 58 ff
	ff		 mov	 esi, DWORD PTR _pszSQL$GSCopy$1$[ebp]
  000c5	ff b0 90 00 00
	00		 push	 DWORD PTR [eax+144]
  000cb	8d 85 54 c6 ff
	ff		 lea	 eax, DWORD PTR _icsInventory$[ebp+6656]
  000d1	50		 push	 eax
  000d2	8d 85 54 c4 ff
	ff		 lea	 eax, DWORD PTR _icsInventory$[ebp+6144]
  000d8	50		 push	 eax
  000d9	8d 85 54 ac ff
	ff		 lea	 eax, DWORD PTR _icsInventory$[ebp]
  000df	50		 push	 eax
  000e0	68 00 00 00 00	 push	 OFFSET ??_C@_0IG@DEIOPEPG@UPDATE?5INVENTORY_TBL?5SET?5m_Inve@
  000e5	56		 push	 esi
  000e6	e8 00 00 00 00	 call	 _sprintf
  000eb	83 c4 1c	 add	 esp, 28			; 0000001cH

; 280  : 		" SET m_Inventory = '%s', m_apIndex = '%s', m_dwObjIndex = '%s'"
; 281  : 		" where m_idPlayer = '%07d' and serverindex = '%02d'",
; 282  : 		icsInventory.szItem, icsInventory.szIndex, icsInventory.szObjIndex
; 283  : 		, pMover->m_idPlayer, g_appInfo.dwSys );
; 284  : 
; 285  : 	if( prj.IsConvMode( SAVE_TEXT ) )

  000ee	b9 00 00 00 00	 mov	 ecx, OFFSET ?prj@@3VCProject@@A ; prj
  000f3	6a 02		 push	 2
  000f5	e8 00 00 00 00	 call	 ?IsConvMode@CProject@@QAEHK@Z ; CProject::IsConvMode
  000fa	56		 push	 esi
  000fb	85 c0		 test	 eax, eax
  000fd	0f 84 1c 01 00
	00		 je	 $LN2@SaveUserIn

; 286  : 	{
; 287  : 		FILEOUT2( "..\\ConvertQuery.txt", pszSQL );

  00103	68 00 00 00 00	 push	 OFFSET ??_C@_0BE@PAOPBHJN@?4?4?2ConvertQuery?4txt@
  00108	e8 00 00 00 00	 call	 ?FILEOUT2@@YAXPBD0ZZ	; FILEOUT2
  0010d	83 c4 08	 add	 esp, 8
$LN4@SaveUserIn:

; 296  : 			return FALSE;
; 297  : 		}
; 298  : 	}
; 299  : 	
; 300  : 	sprintf( pszSQL, "UPDATE INVENTORY_EXT_TBL"

  00110	ff 35 00 00 00
	00		 push	 DWORD PTR ?g_appInfo@@3UAppInfo@@A
  00116	8b 85 a8 58 ff
	ff		 mov	 eax, DWORD PTR _pMover$GSCopy$1$[ebp]
  0011c	ff b0 90 00 00
	00		 push	 DWORD PTR [eax+144]
  00122	8d 85 54 d0 ff
	ff		 lea	 eax, DWORD PTR _icsInventory$[ebp+9216]
  00128	50		 push	 eax
  00129	8d 85 54 c8 ff
	ff		 lea	 eax, DWORD PTR _icsInventory$[ebp+7168]
  0012f	50		 push	 eax
  00130	68 00 00 00 00	 push	 OFFSET ??_C@_0IC@GOCAMAFG@UPDATE?5INVENTORY_EXT_TBL?5SET?5m_@
  00135	56		 push	 esi
  00136	e8 00 00 00 00	 call	 _sprintf
  0013b	83 c4 18	 add	 esp, 24			; 00000018H

; 301  : 		" SET m_extInventory = '%s', m_InventoryPiercing = '%s'"
; 302  : 		" where m_idPlayer = '%07d' and serverindex = '%02d'",
; 303  : 		icsInventory.szExt, icsInventory.szPiercing, pMover->m_idPlayer, g_appInfo.dwSys );
; 304  : 	
; 305  : 	if( prj.IsConvMode( SAVE_TEXT ) )

  0013e	b9 00 00 00 00	 mov	 ecx, OFFSET ?prj@@3VCProject@@A ; prj
  00143	6a 02		 push	 2
  00145	e8 00 00 00 00	 call	 ?IsConvMode@CProject@@QAEHK@Z ; CProject::IsConvMode
  0014a	56		 push	 esi
  0014b	85 c0		 test	 eax, eax
  0014d	0f 84 30 01 00
	00		 je	 $LN7@SaveUserIn

; 306  : 	{
; 307  : 		FILEOUT2( "..\\ConvertQuery.txt", pszSQL );

  00153	68 00 00 00 00	 push	 OFFSET ??_C@_0BE@PAOPBHJN@?4?4?2ConvertQuery?4txt@
  00158	e8 00 00 00 00	 call	 ?FILEOUT2@@YAXPBD0ZZ	; FILEOUT2
  0015d	83 c4 08	 add	 esp, 8
$LN9@SaveUserIn:

; 316  : 			return FALSE;
; 317  : 		}
; 318  : 	}
; 319  : 	
; 320  : 	sprintf( pszSQL, "UPDATE BANK_TBL"

  00160	ff 35 00 00 00
	00		 push	 DWORD PTR ?g_appInfo@@3UAppInfo@@A
  00166	8b 85 a8 58 ff
	ff		 mov	 eax, DWORD PTR _pMover$GSCopy$1$[ebp]
  0016c	ff b0 90 00 00
	00		 push	 DWORD PTR [eax+144]
  00172	8d 85 ac 72 ff
	ff		 lea	 eax, DWORD PTR _icsBank$[ebp+6656]
  00178	50		 push	 eax
  00179	8d 85 ac 70 ff
	ff		 lea	 eax, DWORD PTR _icsBank$[ebp+6144]
  0017f	50		 push	 eax
  00180	8d 85 ac 58 ff
	ff		 lea	 eax, DWORD PTR _icsBank$[ebp]
  00186	50		 push	 eax
  00187	68 00 00 00 00	 push	 OFFSET ??_C@_0IG@OELLNNGM@UPDATE?5BANK_TBL?5SET?5m_Bank?5?$DN?5?8?$CF@
  0018c	56		 push	 esi
  0018d	e8 00 00 00 00	 call	 _sprintf
  00192	83 c4 1c	 add	 esp, 28			; 0000001cH

; 321  : 		" SET m_Bank = '%s', m_apIndex_Bank = '%s', m_dwObjIndex_Bank = '%s'"
; 322  : 		" where m_idPlayer = '%07d' and serverindex = '%02d'",
; 323  : 		icsBank.szItem, icsBank.szIndex, icsBank.szObjIndex, pMover->m_idPlayer, g_appInfo.dwSys );
; 324  : 
; 325  : 		if( prj.IsConvMode( SAVE_TEXT ) )

  00195	b9 00 00 00 00	 mov	 ecx, OFFSET ?prj@@3VCProject@@A ; prj
  0019a	6a 02		 push	 2
  0019c	e8 00 00 00 00	 call	 ?IsConvMode@CProject@@QAEHK@Z ; CProject::IsConvMode
  001a1	56		 push	 esi
  001a2	85 c0		 test	 eax, eax
  001a4	0f 84 3d 01 00
	00		 je	 $LN12@SaveUserIn

; 326  : 	{
; 327  : 		FILEOUT2( "..\\ConvertQuery.txt", pszSQL );

  001aa	68 00 00 00 00	 push	 OFFSET ??_C@_0BE@PAOPBHJN@?4?4?2ConvertQuery?4txt@
  001af	e8 00 00 00 00	 call	 ?FILEOUT2@@YAXPBD0ZZ	; FILEOUT2
  001b4	83 c4 08	 add	 esp, 8
$LN14@SaveUserIn:

; 336  : 			return FALSE;
; 337  : 		}		
; 338  : 	}
; 339  : 	
; 340  : 	sprintf( pszSQL, "UPDATE BANK_EXT_TBL"

  001b7	ff 35 00 00 00
	00		 push	 DWORD PTR ?g_appInfo@@3UAppInfo@@A
  001bd	8b 85 a8 58 ff
	ff		 mov	 eax, DWORD PTR _pMover$GSCopy$1$[ebp]
  001c3	ff b0 90 00 00
	00		 push	 DWORD PTR [eax+144]
  001c9	8d 85 ac 7c ff
	ff		 lea	 eax, DWORD PTR _icsBank$[ebp+9216]
  001cf	50		 push	 eax
  001d0	8d 85 ac 74 ff
	ff		 lea	 eax, DWORD PTR _icsBank$[ebp+7168]
  001d6	50		 push	 eax
  001d7	68 00 00 00 00	 push	 OFFSET ??_C@_0HD@HOMCPDMG@UPDATE?5BANK_EXT_TBL?5SET?5m_extBa@
  001dc	56		 push	 esi
  001dd	e8 00 00 00 00	 call	 _sprintf
  001e2	83 c4 18	 add	 esp, 24			; 00000018H

; 341  : 		" SET m_extBank = '%s', m_BankPiercing = '%s'"
; 342  : 		" where m_idPlayer = '%07d' and serverindex = '%02d'",
; 343  : 		icsBank.szExt, icsBank.szPiercing, pMover->m_idPlayer, g_appInfo.dwSys );
; 344  : 		
; 345  : 	if( prj.IsConvMode( SAVE_TEXT ) )

  001e5	b9 00 00 00 00	 mov	 ecx, OFFSET ?prj@@3VCProject@@A ; prj
  001ea	6a 02		 push	 2
  001ec	e8 00 00 00 00	 call	 ?IsConvMode@CProject@@QAEHK@Z ; CProject::IsConvMode
  001f1	56		 push	 esi
  001f2	85 c0		 test	 eax, eax
  001f4	0f 84 51 01 00
	00		 je	 $LN17@SaveUserIn

; 346  : 	{
; 347  : 		FILEOUT2( "..\\ConvertQuery.txt", pszSQL );

  001fa	68 00 00 00 00	 push	 OFFSET ??_C@_0BE@PAOPBHJN@?4?4?2ConvertQuery?4txt@
  001ff	e8 00 00 00 00	 call	 ?FILEOUT2@@YAXPBD0ZZ	; FILEOUT2
  00204	83 c4 08	 add	 esp, 8
$LN19@SaveUserIn:

; 356  : 			return FALSE;
; 357  : 		}
; 358  : 	}
; 359  : 	return TRUE;
; 360  : }

  00207	5f		 pop	 edi
  00208	5e		 pop	 esi
  00209	b8 01 00 00 00	 mov	 eax, 1
  0020e	5b		 pop	 ebx
  0020f	8b 4d fc	 mov	 ecx, DWORD PTR __$ArrayPad$[ebp]
  00212	33 cd		 xor	 ecx, ebp
  00214	e8 00 00 00 00	 call	 @__security_check_cookie@4
  00219	8b e5		 mov	 esp, ebp
  0021b	5d		 pop	 ebp
  0021c	c2 10 00	 ret	 16			; 00000010H
$LN2@SaveUserIn:

; 288  : 	}
; 289  : 	else
; 290  : 	{
; 291  : 		if( FALSE == pQuerySave->Exec( pszSQL ) )

  0021f	8b cf		 mov	 ecx, edi
  00221	e8 00 00 00 00	 call	 ?Exec@CQuery@@QAEHPBD@Z	; CQuery::Exec
  00226	85 c0		 test	 eax, eax
  00228	0f 85 e2 fe ff
	ff		 jne	 $LN4@SaveUserIn

; 292  : 		{
; 293  : 			SAFE_DELETE( pQueryChar );

  0022e	85 db		 test	 ebx, ebx
  00230	74 15		 je	 SHORT $LN44@SaveUserIn
  00232	8b cb		 mov	 ecx, ebx
  00234	e8 00 00 00 00	 call	 ??1CQuery@@QAE@XZ	; CQuery::~CQuery
  00239	68 10 3d 00 00	 push	 15632			; 00003d10H
  0023e	53		 push	 ebx
  0023f	e8 00 00 00 00	 call	 ??3@YAXPAXI@Z		; operator delete
  00244	83 c4 08	 add	 esp, 8
$LN44@SaveUserIn:

; 294  : 			SAFE_DELETE( pQuerySave );

  00247	85 ff		 test	 edi, edi
  00249	74 15		 je	 SHORT $LN48@SaveUserIn
  0024b	8b cf		 mov	 ecx, edi
  0024d	e8 00 00 00 00	 call	 ??1CQuery@@QAE@XZ	; CQuery::~CQuery
  00252	68 10 3d 00 00	 push	 15632			; 00003d10H
  00257	57		 push	 edi
  00258	e8 00 00 00 00	 call	 ??3@YAXPAXI@Z		; operator delete
  0025d	83 c4 08	 add	 esp, 8
$LN48@SaveUserIn:

; 295  : 			AfxMessageBox( "UPDATE", MB_OK );

  00260	6a 00		 push	 0
  00262	6a 00		 push	 0
  00264	68 00 00 00 00	 push	 OFFSET ??_C@_06HHJABCJL@UPDATE@
  00269	e8 00 00 00 00	 call	 ?AfxMessageBox@@YGHPBDII@Z ; AfxMessageBox
  0026e	5f		 pop	 edi

; 356  : 			return FALSE;
; 357  : 		}
; 358  : 	}
; 359  : 	return TRUE;
; 360  : }

  0026f	5e		 pop	 esi
  00270	33 c0		 xor	 eax, eax
  00272	5b		 pop	 ebx
  00273	8b 4d fc	 mov	 ecx, DWORD PTR __$ArrayPad$[ebp]
  00276	33 cd		 xor	 ecx, ebp
  00278	e8 00 00 00 00	 call	 @__security_check_cookie@4
  0027d	8b e5		 mov	 esp, ebp
  0027f	5d		 pop	 ebp
  00280	c2 10 00	 ret	 16			; 00000010H
$LN7@SaveUserIn:

; 308  : 	}
; 309  : 	else
; 310  : 	{
; 311  : 		if( FALSE == pQuerySave->Exec( pszSQL ) )

  00283	8b cf		 mov	 ecx, edi
  00285	e8 00 00 00 00	 call	 ?Exec@CQuery@@QAEHPBD@Z	; CQuery::Exec
  0028a	85 c0		 test	 eax, eax
  0028c	0f 85 ce fe ff
	ff		 jne	 $LN9@SaveUserIn

; 312  : 		{
; 313  : 			SAFE_DELETE( pQueryChar );

  00292	85 db		 test	 ebx, ebx
  00294	74 15		 je	 SHORT $LN52@SaveUserIn
  00296	8b cb		 mov	 ecx, ebx
  00298	e8 00 00 00 00	 call	 ??1CQuery@@QAE@XZ	; CQuery::~CQuery
  0029d	68 10 3d 00 00	 push	 15632			; 00003d10H
  002a2	53		 push	 ebx
  002a3	e8 00 00 00 00	 call	 ??3@YAXPAXI@Z		; operator delete
  002a8	83 c4 08	 add	 esp, 8
$LN52@SaveUserIn:

; 314  : 			SAFE_DELETE( pQuerySave );

  002ab	85 ff		 test	 edi, edi
  002ad	74 15		 je	 SHORT $LN56@SaveUserIn
  002af	8b cf		 mov	 ecx, edi
  002b1	e8 00 00 00 00	 call	 ??1CQuery@@QAE@XZ	; CQuery::~CQuery
  002b6	68 10 3d 00 00	 push	 15632			; 00003d10H
  002bb	57		 push	 edi
  002bc	e8 00 00 00 00	 call	 ??3@YAXPAXI@Z		; operator delete
  002c1	83 c4 08	 add	 esp, 8
$LN56@SaveUserIn:

; 315  : 			AfxMessageBox( "UPDATE INVENTORY_EXT_TBL", MB_OK );

  002c4	6a 00		 push	 0
  002c6	6a 00		 push	 0
  002c8	68 00 00 00 00	 push	 OFFSET ??_C@_0BJ@HNFBAJDL@UPDATE?5INVENTORY_EXT_TBL@
  002cd	e8 00 00 00 00	 call	 ?AfxMessageBox@@YGHPBDII@Z ; AfxMessageBox
  002d2	5f		 pop	 edi

; 356  : 			return FALSE;
; 357  : 		}
; 358  : 	}
; 359  : 	return TRUE;
; 360  : }

  002d3	5e		 pop	 esi
  002d4	33 c0		 xor	 eax, eax
  002d6	5b		 pop	 ebx
  002d7	8b 4d fc	 mov	 ecx, DWORD PTR __$ArrayPad$[ebp]
  002da	33 cd		 xor	 ecx, ebp
  002dc	e8 00 00 00 00	 call	 @__security_check_cookie@4
  002e1	8b e5		 mov	 esp, ebp
  002e3	5d		 pop	 ebp
  002e4	c2 10 00	 ret	 16			; 00000010H
$LN12@SaveUserIn:

; 328  : 	}
; 329  : 	else
; 330  : 	{
; 331  : 		if( FALSE == pQuerySave->Exec( pszSQL ) )

  002e7	8b cf		 mov	 ecx, edi
  002e9	e8 00 00 00 00	 call	 ?Exec@CQuery@@QAEHPBD@Z	; CQuery::Exec
  002ee	85 c0		 test	 eax, eax
  002f0	0f 85 c1 fe ff
	ff		 jne	 $LN14@SaveUserIn

; 332  : 		{
; 333  : 			SAFE_DELETE( pQueryChar );

  002f6	85 db		 test	 ebx, ebx
  002f8	74 15		 je	 SHORT $LN60@SaveUserIn
  002fa	8b cb		 mov	 ecx, ebx
  002fc	e8 00 00 00 00	 call	 ??1CQuery@@QAE@XZ	; CQuery::~CQuery
  00301	68 10 3d 00 00	 push	 15632			; 00003d10H
  00306	53		 push	 ebx
  00307	e8 00 00 00 00	 call	 ??3@YAXPAXI@Z		; operator delete
  0030c	83 c4 08	 add	 esp, 8
$LN60@SaveUserIn:

; 334  : 			SAFE_DELETE( pQuerySave );

  0030f	85 ff		 test	 edi, edi
  00311	74 15		 je	 SHORT $LN64@SaveUserIn
  00313	8b cf		 mov	 ecx, edi
  00315	e8 00 00 00 00	 call	 ??1CQuery@@QAE@XZ	; CQuery::~CQuery
  0031a	68 10 3d 00 00	 push	 15632			; 00003d10H
  0031f	57		 push	 edi
  00320	e8 00 00 00 00	 call	 ??3@YAXPAXI@Z		; operator delete
  00325	83 c4 08	 add	 esp, 8
$LN64@SaveUserIn:

; 335  : 			AfxMessageBox( "UPDATE BANK_TBL", MB_OK );

  00328	6a 00		 push	 0
  0032a	6a 00		 push	 0
  0032c	68 00 00 00 00	 push	 OFFSET ??_C@_0BA@HFOKCGBB@UPDATE?5BANK_TBL@
  00331	e8 00 00 00 00	 call	 ?AfxMessageBox@@YGHPBDII@Z ; AfxMessageBox
  00336	5f		 pop	 edi

; 356  : 			return FALSE;
; 357  : 		}
; 358  : 	}
; 359  : 	return TRUE;
; 360  : }

  00337	5e		 pop	 esi
  00338	33 c0		 xor	 eax, eax
  0033a	5b		 pop	 ebx
  0033b	8b 4d fc	 mov	 ecx, DWORD PTR __$ArrayPad$[ebp]
  0033e	33 cd		 xor	 ecx, ebp
  00340	e8 00 00 00 00	 call	 @__security_check_cookie@4
  00345	8b e5		 mov	 esp, ebp
  00347	5d		 pop	 ebp
  00348	c2 10 00	 ret	 16			; 00000010H
$LN17@SaveUserIn:

; 348  : 	}
; 349  : 	else
; 350  : 	{
; 351  : 		if( FALSE == pQuerySave->Exec( pszSQL ) )

  0034b	8b cf		 mov	 ecx, edi
  0034d	e8 00 00 00 00	 call	 ?Exec@CQuery@@QAEHPBD@Z	; CQuery::Exec
  00352	85 c0		 test	 eax, eax
  00354	0f 85 ad fe ff
	ff		 jne	 $LN19@SaveUserIn

; 352  : 		{
; 353  : 			SAFE_DELETE( pQueryChar );

  0035a	85 db		 test	 ebx, ebx
  0035c	74 15		 je	 SHORT $LN68@SaveUserIn
  0035e	8b cb		 mov	 ecx, ebx
  00360	e8 00 00 00 00	 call	 ??1CQuery@@QAE@XZ	; CQuery::~CQuery
  00365	68 10 3d 00 00	 push	 15632			; 00003d10H
  0036a	53		 push	 ebx
  0036b	e8 00 00 00 00	 call	 ??3@YAXPAXI@Z		; operator delete
  00370	83 c4 08	 add	 esp, 8
$LN68@SaveUserIn:

; 354  : 			SAFE_DELETE( pQuerySave );

  00373	85 ff		 test	 edi, edi
  00375	74 15		 je	 SHORT $LN72@SaveUserIn
  00377	8b cf		 mov	 ecx, edi
  00379	e8 00 00 00 00	 call	 ??1CQuery@@QAE@XZ	; CQuery::~CQuery
  0037e	68 10 3d 00 00	 push	 15632			; 00003d10H
  00383	57		 push	 edi
  00384	e8 00 00 00 00	 call	 ??3@YAXPAXI@Z		; operator delete
  00389	83 c4 08	 add	 esp, 8
$LN72@SaveUserIn:

; 355  : 			AfxMessageBox( "UPDATE BANK_EXT_TBL", MB_OK );

  0038c	6a 00		 push	 0
  0038e	6a 00		 push	 0
  00390	68 00 00 00 00	 push	 OFFSET ??_C@_0BE@BNFPHPPG@UPDATE?5BANK_EXT_TBL@
  00395	e8 00 00 00 00	 call	 ?AfxMessageBox@@YGHPBDII@Z ; AfxMessageBox

; 356  : 			return FALSE;
; 357  : 		}
; 358  : 	}
; 359  : 	return TRUE;
; 360  : }

  0039a	8b 4d fc	 mov	 ecx, DWORD PTR __$ArrayPad$[ebp]
  0039d	33 c0		 xor	 eax, eax
  0039f	5f		 pop	 edi
  003a0	5e		 pop	 esi
  003a1	33 cd		 xor	 ecx, ebp
  003a3	5b		 pop	 ebx
  003a4	e8 00 00 00 00	 call	 @__security_check_cookie@4
  003a9	8b e5		 mov	 esp, ebp
  003ab	5d		 pop	 ebp
  003ac	c2 10 00	 ret	 16			; 00000010H
?SaveUserInventoryBank@CDbManager@@QAEHPADPAVCMover@@PAVCQuery@@2@Z ENDP ; CDbManager::SaveUserInventoryBank
_TEXT	ENDS
; Function compile flags: /Ogtp
; File C:\IAGOS\server\v18\Source\Source\_Database\DBConvertNew.cpp
;	COMDAT ?RemoveInventoryBankListPanya@CDbManager@@QAEHPADPAVCMover@@PAVCQuery@@2HH@Z
_TEXT	SEGMENT
_pszSQL$ = 8						; size = 4
_pMover$ = 12						; size = 4
_pQueryChar$ = 16					; size = 4
_pQuerySave$ = 20					; size = 4
_nCountItem0$ = 24					; size = 4
_nCountItem1$ = 28					; size = 4
?RemoveInventoryBankListPanya@CDbManager@@QAEHPADPAVCMover@@PAVCQuery@@2HH@Z PROC ; CDbManager::RemoveInventoryBankListPanya, COMDAT
; _this$ = ecx

; 581  : {

  00000	55		 push	 ebp
  00001	8b ec		 mov	 ebp, esp
  00003	53		 push	 ebx
  00004	56		 push	 esi
  00005	57		 push	 edi
  00006	8b f1		 mov	 esi, ecx

; 582  : 	if( prj.IsConvMode( REMOVE_ITEM_ALL_PAY ) )

  00008	b9 00 00 00 00	 mov	 ecx, OFFSET ?prj@@3VCProject@@A ; prj
  0000d	6a 08		 push	 8
  0000f	e8 00 00 00 00	 call	 ?IsConvMode@CProject@@QAEHK@Z ; CProject::IsConvMode
  00014	85 c0		 test	 eax, eax
  00016	0f 84 a4 00 00
	00		 je	 $LN3@RemoveInve

; 583  : 	{
; 584  : 		DWORD dwAddGold = GetRemoveItemPanya( nCountItem0, nCountItem1 );

  0001c	ff 75 1c	 push	 DWORD PTR _nCountItem1$[ebp]
  0001f	8b 5d 18	 mov	 ebx, DWORD PTR _nCountItem0$[ebp]
  00022	8b ce		 mov	 ecx, esi
  00024	53		 push	 ebx
  00025	e8 00 00 00 00	 call	 ?GetRemoveItemPanya@CDbManager@@QAEKHH@Z ; CDbManager::GetRemoveItemPanya

; 585  : 		sprintf( pszSQL, "UPDATE CHARACTER_TBL"

  0002a	ff 35 00 00 00
	00		 push	 DWORD PTR ?g_appInfo@@3UAppInfo@@A
  00030	8b 7d 0c	 mov	 edi, DWORD PTR _pMover$[ebp]
  00033	8b f0		 mov	 esi, eax
  00035	ff b7 90 00 00
	00		 push	 DWORD PTR [edi+144]
  0003b	56		 push	 esi
  0003c	68 00 00 00 00	 push	 OFFSET ??_C@_0GF@MLKCNPJL@UPDATE?5CHARACTER_TBL?5SET?5m_dwGo@
  00041	ff 75 08	 push	 DWORD PTR _pszSQL$[ebp]
  00044	e8 00 00 00 00	 call	 _sprintf

; 586  : 			" SET m_dwGold = m_dwGold + %d"
; 587  : 			" where m_idPlayer = '%07d' and serverindex = '%02d'",
; 588  : 			dwAddGold, pMover->m_idPlayer, g_appInfo.dwSys );
; 589  : 		FILEOUT( "..\\RemoveItem.log", "IdPlayer = %07d, Item0 = %d, Item1 = %d, AddGold = %d", pMover->m_idPlayer,  nCountItem0, nCountItem1, dwAddGold );

  00049	56		 push	 esi
  0004a	ff 75 1c	 push	 DWORD PTR _nCountItem1$[ebp]
  0004d	53		 push	 ebx
  0004e	ff b7 90 00 00
	00		 push	 DWORD PTR [edi+144]
  00054	68 00 00 00 00	 push	 OFFSET ??_C@_0DG@NAOGPEOL@IdPlayer?5?$DN?5?$CF07d?0?5Item0?5?$DN?5?$CFd?0?5It@
  00059	68 00 00 00 00	 push	 OFFSET ??_C@_0BC@JBKLBMKC@?4?4?2RemoveItem?4log@
  0005e	e8 00 00 00 00	 call	 ?FILEOUT@@YAXPBD0ZZ	; FILEOUT

; 590  : 		
; 591  : 		if( FALSE == pQuerySave->Exec( pszSQL ) )

  00063	8b 5d 08	 mov	 ebx, DWORD PTR _pszSQL$[ebp]
  00066	83 c4 2c	 add	 esp, 44			; 0000002cH
  00069	8b 7d 14	 mov	 edi, DWORD PTR _pQuerySave$[ebp]
  0006c	8b cf		 mov	 ecx, edi
  0006e	53		 push	 ebx
  0006f	e8 00 00 00 00	 call	 ?Exec@CQuery@@QAEHPBD@Z	; CQuery::Exec
  00074	85 c0		 test	 eax, eax
  00076	75 48		 jne	 SHORT $LN3@RemoveInve

; 592  : 		{
; 593  : 			SAFE_DELETE( pQueryChar );

  00078	8b 75 10	 mov	 esi, DWORD PTR _pQueryChar$[ebp]
  0007b	85 f6		 test	 esi, esi
  0007d	74 15		 je	 SHORT $LN12@RemoveInve
  0007f	8b ce		 mov	 ecx, esi
  00081	e8 00 00 00 00	 call	 ??1CQuery@@QAE@XZ	; CQuery::~CQuery
  00086	68 10 3d 00 00	 push	 15632			; 00003d10H
  0008b	56		 push	 esi
  0008c	e8 00 00 00 00	 call	 ??3@YAXPAXI@Z		; operator delete
  00091	83 c4 08	 add	 esp, 8
$LN12@RemoveInve:

; 594  : 			SAFE_DELETE( pQuerySave );

  00094	85 ff		 test	 edi, edi
  00096	74 15		 je	 SHORT $LN16@RemoveInve
  00098	8b cf		 mov	 ecx, edi
  0009a	e8 00 00 00 00	 call	 ??1CQuery@@QAE@XZ	; CQuery::~CQuery
  0009f	68 10 3d 00 00	 push	 15632			; 00003d10H
  000a4	57		 push	 edi
  000a5	e8 00 00 00 00	 call	 ??3@YAXPAXI@Z		; operator delete
  000aa	83 c4 08	 add	 esp, 8
$LN16@RemoveInve:

; 595  : 			AfxMessageBox( pszSQL, MB_OK );

  000ad	6a 00		 push	 0
  000af	6a 00		 push	 0
  000b1	53		 push	 ebx
  000b2	e8 00 00 00 00	 call	 ?AfxMessageBox@@YGHPBDII@Z ; AfxMessageBox
  000b7	5f		 pop	 edi

; 596  : 			return FALSE;
; 597  : 		}
; 598  : 	}
; 599  : 	return TRUE;
; 600  : }

  000b8	5e		 pop	 esi
  000b9	33 c0		 xor	 eax, eax
  000bb	5b		 pop	 ebx
  000bc	5d		 pop	 ebp
  000bd	c2 18 00	 ret	 24			; 00000018H
$LN3@RemoveInve:
  000c0	5f		 pop	 edi
  000c1	5e		 pop	 esi
  000c2	b8 01 00 00 00	 mov	 eax, 1
  000c7	5b		 pop	 ebx
  000c8	5d		 pop	 ebp
  000c9	c2 18 00	 ret	 24			; 00000018H
?RemoveInventoryBankListPanya@CDbManager@@QAEHPADPAVCMover@@PAVCQuery@@2HH@Z ENDP ; CDbManager::RemoveInventoryBankListPanya
_TEXT	ENDS
; Function compile flags: /Ogtp
; File C:\IAGOS\server\v18\Source\Source\_Database\DBConvertNew.cpp
;	COMDAT ?RemoveGuildBankListPanya@CDbManager@@QAEHPADHPAVCQuery@@1HH@Z
_TEXT	SEGMENT
_pszSQL$ = 8						; size = 4
_nGuildId$ = 12						; size = 4
_pQueryChar$ = 16					; size = 4
_pQuerySave$ = 20					; size = 4
_nCountItem0$ = 24					; size = 4
_nCountItem1$ = 28					; size = 4
?RemoveGuildBankListPanya@CDbManager@@QAEHPADHPAVCQuery@@1HH@Z PROC ; CDbManager::RemoveGuildBankListPanya, COMDAT
; _this$ = ecx

; 420  : {

  00000	55		 push	 ebp
  00001	8b ec		 mov	 ebp, esp
  00003	53		 push	 ebx
  00004	56		 push	 esi
  00005	57		 push	 edi
  00006	8b f1		 mov	 esi, ecx

; 421  : 	if( prj.IsConvMode( REMOVE_ITEM_ALL_PAY ) )

  00008	b9 00 00 00 00	 mov	 ecx, OFFSET ?prj@@3VCProject@@A ; prj
  0000d	6a 08		 push	 8
  0000f	e8 00 00 00 00	 call	 ?IsConvMode@CProject@@QAEHK@Z ; CProject::IsConvMode
  00014	85 c0		 test	 eax, eax
  00016	0f 84 9a 00 00
	00		 je	 $LN3@RemoveGuil

; 422  : 	{
; 423  : 		DWORD dwAddGold = GetRemoveItemPanya( nCountItem0, nCountItem1 );

  0001c	ff 75 1c	 push	 DWORD PTR _nCountItem1$[ebp]
  0001f	8b 5d 18	 mov	 ebx, DWORD PTR _nCountItem0$[ebp]
  00022	8b ce		 mov	 ecx, esi
  00024	53		 push	 ebx
  00025	e8 00 00 00 00	 call	 ?GetRemoveItemPanya@CDbManager@@QAEKHH@Z ; CDbManager::GetRemoveItemPanya

; 424  : 		sprintf( pszSQL, "UPDATE GUILD_TBL"

  0002a	ff 35 00 00 00
	00		 push	 DWORD PTR ?g_appInfo@@3UAppInfo@@A
  00030	8b 7d 0c	 mov	 edi, DWORD PTR _nGuildId$[ebp]
  00033	8b f0		 mov	 esi, eax
  00035	57		 push	 edi
  00036	56		 push	 esi
  00037	68 00 00 00 00	 push	 OFFSET ??_C@_0GI@EMHCMEPI@UPDATE?5GUILD_TBL?5SET?5m_nGuildGo@
  0003c	ff 75 08	 push	 DWORD PTR _pszSQL$[ebp]
  0003f	e8 00 00 00 00	 call	 _sprintf

; 425  : 			" SET m_nGuildGold = m_nGuildGold + %d"
; 426  : 			" where m_idGuild = '%06d' and serverindex = '%02d'",
; 427  : 			dwAddGold, nGuildId, g_appInfo.dwSys );
; 428  : 		FILEOUT( "..\\RemoveItem.log", "GuildId = %d, Item0 = %d, Item1 = %d, AddGold = %d", nGuildId,  nCountItem0, nCountItem1, dwAddGold );

  00044	56		 push	 esi
  00045	ff 75 1c	 push	 DWORD PTR _nCountItem1$[ebp]
  00048	53		 push	 ebx
  00049	57		 push	 edi
  0004a	68 00 00 00 00	 push	 OFFSET ??_C@_0DD@ICGMIJIF@GuildId?5?$DN?5?$CFd?0?5Item0?5?$DN?5?$CFd?0?5Item1@
  0004f	68 00 00 00 00	 push	 OFFSET ??_C@_0BC@JBKLBMKC@?4?4?2RemoveItem?4log@
  00054	e8 00 00 00 00	 call	 ?FILEOUT@@YAXPBD0ZZ	; FILEOUT

; 429  : 		
; 430  : 		if( FALSE == pQuerySave->Exec( pszSQL ) )

  00059	8b 5d 08	 mov	 ebx, DWORD PTR _pszSQL$[ebp]
  0005c	83 c4 2c	 add	 esp, 44			; 0000002cH
  0005f	8b 7d 14	 mov	 edi, DWORD PTR _pQuerySave$[ebp]
  00062	8b cf		 mov	 ecx, edi
  00064	53		 push	 ebx
  00065	e8 00 00 00 00	 call	 ?Exec@CQuery@@QAEHPBD@Z	; CQuery::Exec
  0006a	85 c0		 test	 eax, eax
  0006c	75 48		 jne	 SHORT $LN3@RemoveGuil

; 431  : 		{
; 432  : 			SAFE_DELETE( pQueryChar );

  0006e	8b 75 10	 mov	 esi, DWORD PTR _pQueryChar$[ebp]
  00071	85 f6		 test	 esi, esi
  00073	74 15		 je	 SHORT $LN12@RemoveGuil
  00075	8b ce		 mov	 ecx, esi
  00077	e8 00 00 00 00	 call	 ??1CQuery@@QAE@XZ	; CQuery::~CQuery
  0007c	68 10 3d 00 00	 push	 15632			; 00003d10H
  00081	56		 push	 esi
  00082	e8 00 00 00 00	 call	 ??3@YAXPAXI@Z		; operator delete
  00087	83 c4 08	 add	 esp, 8
$LN12@RemoveGuil:

; 433  : 			SAFE_DELETE( pQuerySave );

  0008a	85 ff		 test	 edi, edi
  0008c	74 15		 je	 SHORT $LN16@RemoveGuil
  0008e	8b cf		 mov	 ecx, edi
  00090	e8 00 00 00 00	 call	 ??1CQuery@@QAE@XZ	; CQuery::~CQuery
  00095	68 10 3d 00 00	 push	 15632			; 00003d10H
  0009a	57		 push	 edi
  0009b	e8 00 00 00 00	 call	 ??3@YAXPAXI@Z		; operator delete
  000a0	83 c4 08	 add	 esp, 8
$LN16@RemoveGuil:

; 434  : 			AfxMessageBox( pszSQL, MB_OK );

  000a3	6a 00		 push	 0
  000a5	6a 00		 push	 0
  000a7	53		 push	 ebx
  000a8	e8 00 00 00 00	 call	 ?AfxMessageBox@@YGHPBDII@Z ; AfxMessageBox
  000ad	5f		 pop	 edi

; 435  : 			return FALSE;
; 436  : 		}
; 437  : 	}
; 438  : 	return TRUE;
; 439  : }

  000ae	5e		 pop	 esi
  000af	33 c0		 xor	 eax, eax
  000b1	5b		 pop	 ebx
  000b2	5d		 pop	 ebp
  000b3	c2 18 00	 ret	 24			; 00000018H
$LN3@RemoveGuil:
  000b6	5f		 pop	 edi
  000b7	5e		 pop	 esi
  000b8	b8 01 00 00 00	 mov	 eax, 1
  000bd	5b		 pop	 ebx
  000be	5d		 pop	 ebp
  000bf	c2 18 00	 ret	 24			; 00000018H
?RemoveGuildBankListPanya@CDbManager@@QAEHPADHPAVCQuery@@1HH@Z ENDP ; CDbManager::RemoveGuildBankListPanya
_TEXT	ENDS
; Function compile flags: /Ogtp
; File C:\IAGOS\server\v18\Source\Source\_Database\DBConvertNew.cpp
;	COMDAT ?RemoveInventoryBankList@CDbManager@@QAEHPADPAVCMover@@PAH2@Z
_TEXT	SEGMENT
_pszSQL$ = 8						; size = 4
_pMover$ = 12						; size = 4
_nCountItem0$ = 16					; size = 4
_nCountItem1$ = 20					; size = 4
?RemoveInventoryBankList@CDbManager@@QAEHPADPAVCMover@@PAH2@Z PROC ; CDbManager::RemoveInventoryBankList, COMDAT
; _this$ = ecx

; 571  : {

  00000	55		 push	 ebp
  00001	8b ec		 mov	 ebp, esp
  00003	56		 push	 esi
  00004	8b f1		 mov	 esi, ecx

; 572  : 	// RemoveItem
; 573  : 	BOOL bUpdate = FALSE;
; 574  : 	if( prj.IsConvMode( REMOVE_ITEM_ALL ) )

  00006	b9 00 00 00 00	 mov	 ecx, OFFSET ?prj@@3VCProject@@A ; prj
  0000b	6a 04		 push	 4
  0000d	e8 00 00 00 00	 call	 ?IsConvMode@CProject@@QAEHK@Z ; CProject::IsConvMode
  00012	85 c0		 test	 eax, eax
  00014	74 15		 je	 SHORT $LN4@RemoveInve

; 575  : 		bUpdate = RemoveItemInvenBank( pMover, nCountItem0, nCountItem1 );

  00016	ff 75 14	 push	 DWORD PTR _nCountItem1$[ebp]
  00019	8b ce		 mov	 ecx, esi
  0001b	ff 75 10	 push	 DWORD PTR _nCountItem0$[ebp]
  0001e	ff 75 0c	 push	 DWORD PTR _pMover$[ebp]
  00021	e8 00 00 00 00	 call	 ?RemoveItemInvenBank@CDbManager@@QAEHPAVCMover@@PAH1@Z ; CDbManager::RemoveItemInvenBank
  00026	5e		 pop	 esi

; 578  : }

  00027	5d		 pop	 ebp
  00028	c2 10 00	 ret	 16			; 00000010H
$LN4@RemoveInve:

; 576  : 
; 577  : 	return bUpdate;

  0002b	33 c0		 xor	 eax, eax
  0002d	5e		 pop	 esi

; 578  : }

  0002e	5d		 pop	 ebp
  0002f	c2 10 00	 ret	 16			; 00000010H
?RemoveInventoryBankList@CDbManager@@QAEHPADPAVCMover@@PAH2@Z ENDP ; CDbManager::RemoveInventoryBankList
_TEXT	ENDS
; Function compile flags: /Ogtp
; File C:\IAGOS\server\v18\Source\Source\_Database\DBConvertNew.cpp
;	COMDAT ?RemoveGuildBankList@CDbManager@@QAEHPADHPAV?$CItemContainer@VCItemElem@@@@PAH2@Z
_TEXT	SEGMENT
_pszSQL$ = 8						; size = 4
_nGuildId$ = 12						; size = 4
_GuildBank$ = 16					; size = 4
_nCountItem0$ = 20					; size = 4
_nCountItem1$ = 24					; size = 4
?RemoveGuildBankList@CDbManager@@QAEHPADHPAV?$CItemContainer@VCItemElem@@@@PAH2@Z PROC ; CDbManager::RemoveGuildBankList, COMDAT
; _this$ = ecx

; 411  : {

  00000	55		 push	 ebp
  00001	8b ec		 mov	 ebp, esp
  00003	56		 push	 esi
  00004	8b f1		 mov	 esi, ecx

; 412  : 	BOOL bUpdate = FALSE;
; 413  : 	if( prj.IsConvMode( REMOVE_ITEM_ALL ) )

  00006	b9 00 00 00 00	 mov	 ecx, OFFSET ?prj@@3VCProject@@A ; prj
  0000b	6a 04		 push	 4
  0000d	e8 00 00 00 00	 call	 ?IsConvMode@CProject@@QAEHK@Z ; CProject::IsConvMode
  00012	85 c0		 test	 eax, eax
  00014	74 18		 je	 SHORT $LN4@RemoveGuil

; 414  : 		bUpdate = RemoveItemGuildBank( nGuildId, GuildBank, nCountItem0, nCountItem1 );

  00016	ff 75 18	 push	 DWORD PTR _nCountItem1$[ebp]
  00019	8b ce		 mov	 ecx, esi
  0001b	ff 75 14	 push	 DWORD PTR _nCountItem0$[ebp]
  0001e	ff 75 10	 push	 DWORD PTR _GuildBank$[ebp]
  00021	ff 75 0c	 push	 DWORD PTR _nGuildId$[ebp]
  00024	e8 00 00 00 00	 call	 ?RemoveItemGuildBank@CDbManager@@QAEHHPAV?$CItemContainer@VCItemElem@@@@PAH1@Z ; CDbManager::RemoveItemGuildBank
  00029	5e		 pop	 esi

; 417  : }

  0002a	5d		 pop	 ebp
  0002b	c2 14 00	 ret	 20			; 00000014H
$LN4@RemoveGuil:

; 415  : 	
; 416  : 	return bUpdate;

  0002e	33 c0		 xor	 eax, eax
  00030	5e		 pop	 esi

; 417  : }

  00031	5d		 pop	 ebp
  00032	c2 14 00	 ret	 20			; 00000014H
?RemoveGuildBankList@CDbManager@@QAEHPADHPAV?$CItemContainer@VCItemElem@@@@PAH2@Z ENDP ; CDbManager::RemoveGuildBankList
_TEXT	ENDS
; Function compile flags: /Ogtp
; File C:\IAGOS\server\v18\Source\Source\_Database\DBConvertNew.cpp
;	COMDAT ?GuildBankConv@CDbManager@@QAEHPADHPAV?$CItemContainer@VCItemElem@@@@PAVCQuery@@2@Z
_TEXT	SEGMENT
_pszSQL$ = 8						; size = 4
tv87 = 8						; size = 4
_nGuildId$ = 12						; size = 4
_nCountItem0$ = 12					; size = 4
_GuildBank$ = 16					; size = 4
_nCountItem1$ = 16					; size = 4
_pQueryChar$ = 20					; size = 4
_pQuerySave$ = 24					; size = 4
?GuildBankConv@CDbManager@@QAEHPADHPAV?$CItemContainer@VCItemElem@@@@PAVCQuery@@2@Z PROC ; CDbManager::GuildBankConv, COMDAT
; _this$ = ecx

; 691  : {

  00000	55		 push	 ebp
  00001	8b ec		 mov	 ebp, esp
  00003	53		 push	 ebx
  00004	8b 5d 10	 mov	 ebx, DWORD PTR _GuildBank$[ebp]

; 692  : 	int nCountItem0 = 0;
; 693  : 	int nCountItem1 = 0;
; 694  : 	BOOL bUpdateRemove = FALSE;
; 695  : 	BOOL bUpdatePiercingConfirm = FALSE;
; 696  : 	
; 697  : 	bUpdateRemove = RemoveGuildBankList( pszSQL, nGuildId, GuildBank, &nCountItem0, &nCountItem1 );

  00007	8d 45 10	 lea	 eax, DWORD PTR _nCountItem1$[ebp]
  0000a	56		 push	 esi
  0000b	57		 push	 edi
  0000c	8b 7d 0c	 mov	 edi, DWORD PTR _nGuildId$[ebp]
  0000f	8b f1		 mov	 esi, ecx
  00011	50		 push	 eax
  00012	8d 45 0c	 lea	 eax, DWORD PTR _nCountItem0$[ebp]
  00015	c7 45 0c 00 00
	00 00		 mov	 DWORD PTR _nCountItem0$[ebp], 0
  0001c	50		 push	 eax
  0001d	53		 push	 ebx
  0001e	57		 push	 edi
  0001f	ff 75 08	 push	 DWORD PTR _pszSQL$[ebp]
  00022	c7 45 10 00 00
	00 00		 mov	 DWORD PTR _nCountItem1$[ebp], 0
  00029	e8 00 00 00 00	 call	 ?RemoveGuildBankList@CDbManager@@QAEHPADHPAV?$CItemContainer@VCItemElem@@@@PAH2@Z ; CDbManager::RemoveGuildBankList

; 698  : 	if( bUpdateRemove )

  0002e	8b ce		 mov	 ecx, esi
  00030	85 c0		 test	 eax, eax
  00032	74 2a		 je	 SHORT $LN2@GuildBankC

; 699  : 		RemoveGuildBankListPanya( pszSQL, nGuildId, pQueryChar, pQuerySave, nCountItem0, nCountItem1 );

  00034	ff 75 10	 push	 DWORD PTR _nCountItem1$[ebp]
  00037	ff 75 0c	 push	 DWORD PTR _nCountItem0$[ebp]
  0003a	ff 75 18	 push	 DWORD PTR _pQuerySave$[ebp]
  0003d	ff 75 14	 push	 DWORD PTR _pQueryChar$[ebp]
  00040	57		 push	 edi
  00041	ff 75 08	 push	 DWORD PTR _pszSQL$[ebp]
  00044	e8 00 00 00 00	 call	 ?RemoveGuildBankListPanya@CDbManager@@QAEHPADHPAVCQuery@@1HH@Z ; CDbManager::RemoveGuildBankListPanya
  00049	53		 push	 ebx
  0004a	57		 push	 edi
  0004b	8b ce		 mov	 ecx, esi
  0004d	e8 00 00 00 00	 call	 ?PiercingConfirmGuildBank@CDbManager@@QAEHHPAV?$CItemContainer@VCItemElem@@@@@Z ; CDbManager::PiercingConfirmGuildBank
  00052	5f		 pop	 edi

; 704  : 		return TRUE;
; 705  : 	else
; 706  : 		return FALSE;
; 707  : 	
; 708  : }

  00053	5e		 pop	 esi
  00054	b8 01 00 00 00	 mov	 eax, 1
  00059	5b		 pop	 ebx
  0005a	5d		 pop	 ebp
  0005b	c2 14 00	 ret	 20			; 00000014H
$LN2@GuildBankC:

; 700  : 
; 701  : 	bUpdatePiercingConfirm = PiercingConfirmGuildBank( nGuildId, GuildBank );

  0005e	53		 push	 ebx
  0005f	57		 push	 edi
  00060	e8 00 00 00 00	 call	 ?PiercingConfirmGuildBank@CDbManager@@QAEHHPAV?$CItemContainer@VCItemElem@@@@@Z ; CDbManager::PiercingConfirmGuildBank

; 702  : 
; 703  : 	if( bUpdateRemove || bUpdatePiercingConfirm )

  00065	33 c9		 xor	 ecx, ecx
  00067	85 c0		 test	 eax, eax
  00069	5f		 pop	 edi
  0006a	0f 95 c1	 setne	 cl

; 704  : 		return TRUE;
; 705  : 	else
; 706  : 		return FALSE;
; 707  : 	
; 708  : }

  0006d	5e		 pop	 esi
  0006e	8b c1		 mov	 eax, ecx
  00070	5b		 pop	 ebx
  00071	5d		 pop	 ebp
  00072	c2 14 00	 ret	 20			; 00000014H
?GuildBankConv@CDbManager@@QAEHPADHPAV?$CItemContainer@VCItemElem@@@@PAVCQuery@@2@Z ENDP ; CDbManager::GuildBankConv
_TEXT	ENDS
; Function compile flags: /Ogtp
; File C:\IAGOS\server\v18\Source\Source\_Database\DBConvertNew.cpp
;	COMDAT ?InventoryBankConv@CDbManager@@QAEHPADPAVCMover@@PAVCQuery@@2@Z
_TEXT	SEGMENT
_nCountItem0$ = -4					; size = 4
_pszSQL$ = 8						; size = 4
tv85 = 8						; size = 4
_pMover$ = 12						; size = 4
_nCountItem1$ = 12					; size = 4
_pQueryChar$ = 16					; size = 4
_pQuerySave$ = 20					; size = 4
?InventoryBankConv@CDbManager@@QAEHPADPAVCMover@@PAVCQuery@@2@Z PROC ; CDbManager::InventoryBankConv, COMDAT
; _this$ = ecx

; 673  : {

  00000	55		 push	 ebp
  00001	8b ec		 mov	 ebp, esp
  00003	51		 push	 ecx
  00004	56		 push	 esi
  00005	57		 push	 edi
  00006	8b 7d 0c	 mov	 edi, DWORD PTR _pMover$[ebp]

; 674  : 	int nCountItem0 = 0;
; 675  : 	int nCountItem1 = 0;
; 676  : 	BOOL bUpdateRemove = FALSE;
; 677  : 	BOOL bUpdatePiercingConfirm = FALSE;
; 678  : 
; 679  : 	bUpdateRemove = RemoveInventoryBankList( pszSQL, pMover, &nCountItem0, &nCountItem1 );

  00009	8d 45 0c	 lea	 eax, DWORD PTR _nCountItem1$[ebp]
  0000c	50		 push	 eax
  0000d	8d 45 fc	 lea	 eax, DWORD PTR _nCountItem0$[ebp]
  00010	c7 45 fc 00 00
	00 00		 mov	 DWORD PTR _nCountItem0$[ebp], 0
  00017	50		 push	 eax
  00018	57		 push	 edi
  00019	ff 75 08	 push	 DWORD PTR _pszSQL$[ebp]
  0001c	8b f1		 mov	 esi, ecx
  0001e	c7 45 0c 00 00
	00 00		 mov	 DWORD PTR _nCountItem1$[ebp], 0
  00025	e8 00 00 00 00	 call	 ?RemoveInventoryBankList@CDbManager@@QAEHPADPAVCMover@@PAH2@Z ; CDbManager::RemoveInventoryBankList

; 680  : 	if( bUpdateRemove )

  0002a	8b ce		 mov	 ecx, esi
  0002c	85 c0		 test	 eax, eax
  0002e	74 2a		 je	 SHORT $LN2@InventoryB

; 681  : 		RemoveInventoryBankListPanya( pszSQL, pMover, pQueryChar, pQuerySave, nCountItem0, nCountItem1 );

  00030	ff 75 0c	 push	 DWORD PTR _nCountItem1$[ebp]
  00033	ff 75 fc	 push	 DWORD PTR _nCountItem0$[ebp]
  00036	ff 75 14	 push	 DWORD PTR _pQuerySave$[ebp]
  00039	ff 75 10	 push	 DWORD PTR _pQueryChar$[ebp]
  0003c	57		 push	 edi
  0003d	ff 75 08	 push	 DWORD PTR _pszSQL$[ebp]
  00040	e8 00 00 00 00	 call	 ?RemoveInventoryBankListPanya@CDbManager@@QAEHPADPAVCMover@@PAVCQuery@@2HH@Z ; CDbManager::RemoveInventoryBankListPanya
  00045	57		 push	 edi
  00046	8b ce		 mov	 ecx, esi
  00048	e8 00 00 00 00	 call	 ?PiercingConfirmInventoryBank@CDbManager@@QAEHPAVCMover@@@Z ; CDbManager::PiercingConfirmInventoryBank
  0004d	5f		 pop	 edi

; 685  : 		return TRUE;

  0004e	b8 01 00 00 00	 mov	 eax, 1

; 688  : }

  00053	5e		 pop	 esi
  00054	8b e5		 mov	 esp, ebp
  00056	5d		 pop	 ebp
  00057	c2 10 00	 ret	 16			; 00000010H
$LN2@InventoryB:

; 682  : 	bUpdatePiercingConfirm = PiercingConfirmInventoryBank( pMover );

  0005a	57		 push	 edi
  0005b	e8 00 00 00 00	 call	 ?PiercingConfirmInventoryBank@CDbManager@@QAEHPAVCMover@@@Z ; CDbManager::PiercingConfirmInventoryBank

; 683  : 
; 684  : 	if( bUpdateRemove || bUpdatePiercingConfirm )

  00060	33 c9		 xor	 ecx, ecx
  00062	85 c0		 test	 eax, eax
  00064	5f		 pop	 edi
  00065	0f 95 c1	 setne	 cl

; 686  : 	else
; 687  : 		return FALSE;

  00068	8b c1		 mov	 eax, ecx

; 688  : }

  0006a	5e		 pop	 esi
  0006b	8b e5		 mov	 esp, ebp
  0006d	5d		 pop	 ebp
  0006e	c2 10 00	 ret	 16			; 00000010H
?InventoryBankConv@CDbManager@@QAEHPADPAVCMover@@PAVCQuery@@2@Z ENDP ; CDbManager::InventoryBankConv
_TEXT	ENDS
; Function compile flags: /Ogtp
; File C:\IAGOS\server\v18\Source\Source\_Database\DBConvertNew.cpp
;	COMDAT ?GetUserInventoryBank@CDbManager@@QAEHPAVCMover@@PAVCQuery@@@Z
_TEXT	SEGMENT
_pMover$ = 8						; size = 4
_pQueryChar$ = 12					; size = 4
?GetUserInventoryBank@CDbManager@@QAEHPAVCMover@@PAVCQuery@@@Z PROC ; CDbManager::GetUserInventoryBank, COMDAT
; _this$ = ecx

; 256  : {

  00000	55		 push	 ebp
  00001	8b ec		 mov	 ebp, esp
  00003	53		 push	 ebx
  00004	56		 push	 esi

; 257  : 	pMover->m_idPlayer	= pQueryChar->GetInt( "m_idPlayer" );

  00005	8b 75 0c	 mov	 esi, DWORD PTR _pQueryChar$[ebp]
  00008	8b d9		 mov	 ebx, ecx
  0000a	57		 push	 edi
  0000b	68 00 00 00 00	 push	 OFFSET ??_C@_0L@FONFFEJF@m_idPlayer@
  00010	8b ce		 mov	 ecx, esi
  00012	e8 00 00 00 00	 call	 ?GetInt@CQuery@@QAEHPAD@Z ; CQuery::GetInt
  00017	8b 7d 08	 mov	 edi, DWORD PTR _pMover$[ebp]

; 258  : 	pMover->m_nSlot		= pQueryChar->GetInt( "playerslot" );

  0001a	8b ce		 mov	 ecx, esi
  0001c	68 00 00 00 00	 push	 OFFSET ??_C@_0L@BLIMKIB@playerslot@
  00021	89 87 90 00 00
	00		 mov	 DWORD PTR [edi+144], eax
  00027	e8 00 00 00 00	 call	 ?GetInt@CQuery@@QAEHPAD@Z ; CQuery::GetInt

; 259  : 	
; 260  : 	// GetItem
; 261  : 	LPDB_OVERLAPPED_PLUS lpDbOverlappedPlus	= NULL;
; 262  : 	//GetInventory( pMover, pQueryChar, lpDbOverlappedPlus );
; 263  : 	//GetBankMover( pMover, pQueryChar, 0 );
; 264  : 	// mirchang_100416 VERIFYSTRING use return value
; 265  : 	if( GetInventory( pMover, pQueryChar, lpDbOverlappedPlus ) == FALSE || GetBankMover( pMover, pQueryChar, 0 ) == FALSE )

  0002c	6a 00		 push	 0
  0002e	56		 push	 esi
  0002f	57		 push	 edi
  00030	8b cb		 mov	 ecx, ebx
  00032	88 87 c8 00 00
	00		 mov	 BYTE PTR [edi+200], al
  00038	e8 00 00 00 00	 call	 ?GetInventory@CDbManager@@QAEHPAVCMover@@PAVCQuery@@PAUtagDB_OVERLAPPED_PLUS@@@Z ; CDbManager::GetInventory
  0003d	85 c0		 test	 eax, eax
  0003f	74 18		 je	 SHORT $LN3@GetUserInv
  00041	6a 00		 push	 0
  00043	56		 push	 esi
  00044	57		 push	 edi
  00045	8b cb		 mov	 ecx, ebx
  00047	e8 00 00 00 00	 call	 ?GetBankMover@CDbManager@@QAEHPAVCMover@@PAVCQuery@@H@Z ; CDbManager::GetBankMover
  0004c	f7 d8		 neg	 eax
  0004e	5f		 pop	 edi
  0004f	1b c0		 sbb	 eax, eax

; 266  : 	{
; 267  : 		return FALSE;
; 268  : 	}
; 269  : 	return TRUE;
; 270  : 	// mirchang_100416
; 271  : }

  00051	5e		 pop	 esi
  00052	f7 d8		 neg	 eax
  00054	5b		 pop	 ebx
  00055	5d		 pop	 ebp
  00056	c2 08 00	 ret	 8
$LN3@GetUserInv:
  00059	5f		 pop	 edi
  0005a	5e		 pop	 esi
  0005b	33 c0		 xor	 eax, eax
  0005d	5b		 pop	 ebx
  0005e	5d		 pop	 ebp
  0005f	c2 08 00	 ret	 8
?GetUserInventoryBank@CDbManager@@QAEHPAVCMover@@PAVCQuery@@@Z ENDP ; CDbManager::GetUserInventoryBank
_TEXT	ENDS
; Function compile flags: /Ogtp
; File C:\IAGOS\server\v18\Source\Source\_Database\DBConvertNew.cpp
;	COMDAT ?GetGuildBankView@CDbManager@@QAEHPADPAVCQuery@@1@Z
_TEXT	SEGMENT
_pszSQL$ = 8						; size = 4
_pQueryChar$ = 12					; size = 4
_pQuerySave$ = 16					; size = 4
?GetGuildBankView@CDbManager@@QAEHPADPAVCQuery@@1@Z PROC ; CDbManager::GetGuildBankView, COMDAT
; _this$ = ecx

; 245  : {

  00000	55		 push	 ebp
  00001	8b ec		 mov	 ebp, esp
  00003	56		 push	 esi
  00004	57		 push	 edi

; 246  : 	sprintf( pszSQL, "select * from seghope_guild" );

  00005	8b 7d 08	 mov	 edi, DWORD PTR _pszSQL$[ebp]
  00008	68 00 00 00 00	 push	 OFFSET ??_C@_0BM@LEGEANNN@select?5?$CK?5from?5seghope_guild@
  0000d	57		 push	 edi
  0000e	e8 00 00 00 00	 call	 _sprintf

; 247  : 	if( FALSE == pQueryChar->Exec( pszSQL ) )

  00013	8b 75 0c	 mov	 esi, DWORD PTR _pQueryChar$[ebp]
  00016	83 c4 08	 add	 esp, 8
  00019	8b ce		 mov	 ecx, esi
  0001b	57		 push	 edi
  0001c	e8 00 00 00 00	 call	 ?Exec@CQuery@@QAEHPBD@Z	; CQuery::Exec
  00021	85 c0		 test	 eax, eax
  00023	75 47		 jne	 SHORT $LN2@GetGuildBa

; 248  : 	{
; 249  : 		SAFE_DELETE( pQueryChar ); SAFE_DELETE( pQuerySave ); AfxMessageBox( pszSQL, MB_OK );

  00025	85 f6		 test	 esi, esi
  00027	74 15		 je	 SHORT $LN11@GetGuildBa
  00029	8b ce		 mov	 ecx, esi
  0002b	e8 00 00 00 00	 call	 ??1CQuery@@QAE@XZ	; CQuery::~CQuery
  00030	68 10 3d 00 00	 push	 15632			; 00003d10H
  00035	56		 push	 esi
  00036	e8 00 00 00 00	 call	 ??3@YAXPAXI@Z		; operator delete
  0003b	83 c4 08	 add	 esp, 8
$LN11@GetGuildBa:
  0003e	8b 75 10	 mov	 esi, DWORD PTR _pQuerySave$[ebp]
  00041	85 f6		 test	 esi, esi
  00043	74 15		 je	 SHORT $LN15@GetGuildBa
  00045	8b ce		 mov	 ecx, esi
  00047	e8 00 00 00 00	 call	 ??1CQuery@@QAE@XZ	; CQuery::~CQuery
  0004c	68 10 3d 00 00	 push	 15632			; 00003d10H
  00051	56		 push	 esi
  00052	e8 00 00 00 00	 call	 ??3@YAXPAXI@Z		; operator delete
  00057	83 c4 08	 add	 esp, 8
$LN15@GetGuildBa:
  0005a	6a 00		 push	 0
  0005c	6a 00		 push	 0
  0005e	57		 push	 edi
  0005f	e8 00 00 00 00	 call	 ?AfxMessageBox@@YGHPBDII@Z ; AfxMessageBox
  00064	5f		 pop	 edi

; 250  : 		return FALSE;

  00065	33 c0		 xor	 eax, eax

; 253  : }

  00067	5e		 pop	 esi
  00068	5d		 pop	 ebp
  00069	c2 0c 00	 ret	 12			; 0000000cH
$LN2@GetGuildBa:
  0006c	5f		 pop	 edi

; 251  : 	}
; 252  : 	return TRUE;

  0006d	b8 01 00 00 00	 mov	 eax, 1

; 253  : }

  00072	5e		 pop	 esi
  00073	5d		 pop	 ebp
  00074	c2 0c 00	 ret	 12			; 0000000cH
?GetGuildBankView@CDbManager@@QAEHPADPAVCQuery@@1@Z ENDP ; CDbManager::GetGuildBankView
_TEXT	ENDS
; Function compile flags: /Ogtp
; File C:\IAGOS\server\v18\Source\Source\_Database\DBConvertNew.cpp
;	COMDAT ?GetInventoryBankView@CDbManager@@QAEHPADPAVCQuery@@1@Z
_TEXT	SEGMENT
_pszSQL$ = 8						; size = 4
_pQueryChar$ = 12					; size = 4
_pQuerySave$ = 16					; size = 4
?GetInventoryBankView@CDbManager@@QAEHPADPAVCQuery@@1@Z PROC ; CDbManager::GetInventoryBankView, COMDAT
; _this$ = ecx

; 234  : {

  00000	55		 push	 ebp
  00001	8b ec		 mov	 ebp, esp
  00003	56		 push	 esi
  00004	57		 push	 edi

; 235  : 	sprintf( pszSQL, "select * from seghope" );

  00005	8b 7d 08	 mov	 edi, DWORD PTR _pszSQL$[ebp]
  00008	68 00 00 00 00	 push	 OFFSET ??_C@_0BG@IGKJACAI@select?5?$CK?5from?5seghope@
  0000d	57		 push	 edi
  0000e	e8 00 00 00 00	 call	 _sprintf

; 236  : 	if( FALSE == pQueryChar->Exec( pszSQL ) )

  00013	8b 75 0c	 mov	 esi, DWORD PTR _pQueryChar$[ebp]
  00016	83 c4 08	 add	 esp, 8
  00019	8b ce		 mov	 ecx, esi
  0001b	57		 push	 edi
  0001c	e8 00 00 00 00	 call	 ?Exec@CQuery@@QAEHPBD@Z	; CQuery::Exec
  00021	85 c0		 test	 eax, eax
  00023	75 47		 jne	 SHORT $LN2@GetInvento

; 237  : 	{
; 238  : 		SAFE_DELETE( pQueryChar ); SAFE_DELETE( pQuerySave ); AfxMessageBox( pszSQL, MB_OK );

  00025	85 f6		 test	 esi, esi
  00027	74 15		 je	 SHORT $LN11@GetInvento
  00029	8b ce		 mov	 ecx, esi
  0002b	e8 00 00 00 00	 call	 ??1CQuery@@QAE@XZ	; CQuery::~CQuery
  00030	68 10 3d 00 00	 push	 15632			; 00003d10H
  00035	56		 push	 esi
  00036	e8 00 00 00 00	 call	 ??3@YAXPAXI@Z		; operator delete
  0003b	83 c4 08	 add	 esp, 8
$LN11@GetInvento:
  0003e	8b 75 10	 mov	 esi, DWORD PTR _pQuerySave$[ebp]
  00041	85 f6		 test	 esi, esi
  00043	74 15		 je	 SHORT $LN15@GetInvento
  00045	8b ce		 mov	 ecx, esi
  00047	e8 00 00 00 00	 call	 ??1CQuery@@QAE@XZ	; CQuery::~CQuery
  0004c	68 10 3d 00 00	 push	 15632			; 00003d10H
  00051	56		 push	 esi
  00052	e8 00 00 00 00	 call	 ??3@YAXPAXI@Z		; operator delete
  00057	83 c4 08	 add	 esp, 8
$LN15@GetInvento:
  0005a	6a 00		 push	 0
  0005c	6a 00		 push	 0
  0005e	57		 push	 edi
  0005f	e8 00 00 00 00	 call	 ?AfxMessageBox@@YGHPBDII@Z ; AfxMessageBox
  00064	5f		 pop	 edi

; 239  : 		return FALSE;

  00065	33 c0		 xor	 eax, eax

; 242  : }

  00067	5e		 pop	 esi
  00068	5d		 pop	 ebp
  00069	c2 0c 00	 ret	 12			; 0000000cH
$LN2@GetInvento:
  0006c	5f		 pop	 edi

; 240  : 	}
; 241  : 	return TRUE;

  0006d	b8 01 00 00 00	 mov	 eax, 1

; 242  : }

  00072	5e		 pop	 esi
  00073	5d		 pop	 ebp
  00074	c2 0c 00	 ret	 12			; 0000000cH
?GetInventoryBankView@CDbManager@@QAEHPADPAVCQuery@@1@Z ENDP ; CDbManager::GetInventoryBankView
_TEXT	ENDS
; Function compile flags: /Ogtp
; File C:\IAGOS\server\v18\Source\Source\_Database\DBConvertNew.cpp
;	COMDAT ?DeleteGuildBankView@CDbManager@@QAEHPADPAVCQuery@@1@Z
_TEXT	SEGMENT
_pszSQL$ = 8						; size = 4
_pQueryChar$ = 12					; size = 4
_pQuerySave$ = 16					; size = 4
?DeleteGuildBankView@CDbManager@@QAEHPADPAVCQuery@@1@Z PROC ; CDbManager::DeleteGuildBankView, COMDAT
; _this$ = ecx

; 221  : {

  00000	55		 push	 ebp
  00001	8b ec		 mov	 ebp, esp
  00003	56		 push	 esi
  00004	57		 push	 edi

; 222  : 	sprintf( pszSQL, "drop view seghope_guild" );

  00005	8b 7d 08	 mov	 edi, DWORD PTR _pszSQL$[ebp]
  00008	68 00 00 00 00	 push	 OFFSET ??_C@_0BI@PBCPAKJD@drop?5view?5seghope_guild@
  0000d	57		 push	 edi
  0000e	e8 00 00 00 00	 call	 _sprintf

; 223  : 	if( FALSE == pQueryChar->Exec( pszSQL ) )

  00013	8b 75 0c	 mov	 esi, DWORD PTR _pQueryChar$[ebp]
  00016	83 c4 08	 add	 esp, 8
  00019	8b ce		 mov	 ecx, esi
  0001b	57		 push	 edi
  0001c	e8 00 00 00 00	 call	 ?Exec@CQuery@@QAEHPBD@Z	; CQuery::Exec
  00021	85 c0		 test	 eax, eax
  00023	75 47		 jne	 SHORT $LN2@DeleteGuil

; 224  : 	{
; 225  : 		SAFE_DELETE( pQueryChar );

  00025	85 f6		 test	 esi, esi
  00027	74 15		 je	 SHORT $LN11@DeleteGuil
  00029	8b ce		 mov	 ecx, esi
  0002b	e8 00 00 00 00	 call	 ??1CQuery@@QAE@XZ	; CQuery::~CQuery
  00030	68 10 3d 00 00	 push	 15632			; 00003d10H
  00035	56		 push	 esi
  00036	e8 00 00 00 00	 call	 ??3@YAXPAXI@Z		; operator delete
  0003b	83 c4 08	 add	 esp, 8
$LN11@DeleteGuil:

; 226  : 		SAFE_DELETE( pQuerySave );

  0003e	8b 75 10	 mov	 esi, DWORD PTR _pQuerySave$[ebp]
  00041	85 f6		 test	 esi, esi
  00043	74 15		 je	 SHORT $LN15@DeleteGuil
  00045	8b ce		 mov	 ecx, esi
  00047	e8 00 00 00 00	 call	 ??1CQuery@@QAE@XZ	; CQuery::~CQuery
  0004c	68 10 3d 00 00	 push	 15632			; 00003d10H
  00051	56		 push	 esi
  00052	e8 00 00 00 00	 call	 ??3@YAXPAXI@Z		; operator delete
  00057	83 c4 08	 add	 esp, 8
$LN15@DeleteGuil:

; 227  : 		AfxMessageBox( pszSQL, MB_OK );

  0005a	6a 00		 push	 0
  0005c	6a 00		 push	 0
  0005e	57		 push	 edi
  0005f	e8 00 00 00 00	 call	 ?AfxMessageBox@@YGHPBDII@Z ; AfxMessageBox
  00064	5f		 pop	 edi

; 228  : 		return FALSE;

  00065	33 c0		 xor	 eax, eax

; 231  : }

  00067	5e		 pop	 esi
  00068	5d		 pop	 ebp
  00069	c2 0c 00	 ret	 12			; 0000000cH
$LN2@DeleteGuil:
  0006c	5f		 pop	 edi

; 229  : 	}
; 230  : 	return TRUE;

  0006d	b8 01 00 00 00	 mov	 eax, 1

; 231  : }

  00072	5e		 pop	 esi
  00073	5d		 pop	 ebp
  00074	c2 0c 00	 ret	 12			; 0000000cH
?DeleteGuildBankView@CDbManager@@QAEHPADPAVCQuery@@1@Z ENDP ; CDbManager::DeleteGuildBankView
_TEXT	ENDS
; Function compile flags: /Ogtp
; File C:\IAGOS\server\v18\Source\Source\_Database\DBConvertNew.cpp
;	COMDAT ?DeleteInvenBankView@CDbManager@@QAEHPADPAVCQuery@@1@Z
_TEXT	SEGMENT
_pszSQL$ = 8						; size = 4
_pQueryChar$ = 12					; size = 4
_pQuerySave$ = 16					; size = 4
?DeleteInvenBankView@CDbManager@@QAEHPADPAVCQuery@@1@Z PROC ; CDbManager::DeleteInvenBankView, COMDAT
; _this$ = ecx

; 207  : {

  00000	55		 push	 ebp
  00001	8b ec		 mov	 ebp, esp
  00003	56		 push	 esi
  00004	57		 push	 edi

; 208  : 	// Inven, Bank view »čÁ¦
; 209  : 	sprintf( pszSQL, "drop view seghope" );

  00005	8b 7d 08	 mov	 edi, DWORD PTR _pszSQL$[ebp]
  00008	68 00 00 00 00	 push	 OFFSET ??_C@_0BC@MIENAMNJ@drop?5view?5seghope@
  0000d	57		 push	 edi
  0000e	e8 00 00 00 00	 call	 _sprintf

; 210  : 	if( FALSE == pQueryChar->Exec( pszSQL ) )

  00013	8b 75 0c	 mov	 esi, DWORD PTR _pQueryChar$[ebp]
  00016	83 c4 08	 add	 esp, 8
  00019	8b ce		 mov	 ecx, esi
  0001b	57		 push	 edi
  0001c	e8 00 00 00 00	 call	 ?Exec@CQuery@@QAEHPBD@Z	; CQuery::Exec
  00021	85 c0		 test	 eax, eax
  00023	75 47		 jne	 SHORT $LN2@DeleteInve

; 211  : 	{
; 212  : 		SAFE_DELETE( pQueryChar );

  00025	85 f6		 test	 esi, esi
  00027	74 15		 je	 SHORT $LN11@DeleteInve
  00029	8b ce		 mov	 ecx, esi
  0002b	e8 00 00 00 00	 call	 ??1CQuery@@QAE@XZ	; CQuery::~CQuery
  00030	68 10 3d 00 00	 push	 15632			; 00003d10H
  00035	56		 push	 esi
  00036	e8 00 00 00 00	 call	 ??3@YAXPAXI@Z		; operator delete
  0003b	83 c4 08	 add	 esp, 8
$LN11@DeleteInve:

; 213  : 		SAFE_DELETE( pQuerySave );

  0003e	8b 75 10	 mov	 esi, DWORD PTR _pQuerySave$[ebp]
  00041	85 f6		 test	 esi, esi
  00043	74 15		 je	 SHORT $LN15@DeleteInve
  00045	8b ce		 mov	 ecx, esi
  00047	e8 00 00 00 00	 call	 ??1CQuery@@QAE@XZ	; CQuery::~CQuery
  0004c	68 10 3d 00 00	 push	 15632			; 00003d10H
  00051	56		 push	 esi
  00052	e8 00 00 00 00	 call	 ??3@YAXPAXI@Z		; operator delete
  00057	83 c4 08	 add	 esp, 8
$LN15@DeleteInve:

; 214  : 		AfxMessageBox( pszSQL, MB_OK );

  0005a	6a 00		 push	 0
  0005c	6a 00		 push	 0
  0005e	57		 push	 edi
  0005f	e8 00 00 00 00	 call	 ?AfxMessageBox@@YGHPBDII@Z ; AfxMessageBox
  00064	5f		 pop	 edi

; 215  : 		return FALSE;

  00065	33 c0		 xor	 eax, eax

; 218  : }

  00067	5e		 pop	 esi
  00068	5d		 pop	 ebp
  00069	c2 0c 00	 ret	 12			; 0000000cH
$LN2@DeleteInve:
  0006c	5f		 pop	 edi

; 216  : 	}
; 217  : 	return TRUE;

  0006d	b8 01 00 00 00	 mov	 eax, 1

; 218  : }

  00072	5e		 pop	 esi
  00073	5d		 pop	 ebp
  00074	c2 0c 00	 ret	 12			; 0000000cH
?DeleteInvenBankView@CDbManager@@QAEHPADPAVCQuery@@1@Z ENDP ; CDbManager::DeleteInvenBankView
_TEXT	ENDS
; Function compile flags: /Ogtp
; File C:\IAGOS\server\v18\Source\Source\_Database\DBConvertNew.cpp
;	COMDAT ?CreateGuildBankView@CDbManager@@QAEHPADPAVCQuery@@1@Z
_TEXT	SEGMENT
_pszSQL$ = 8						; size = 4
_pQueryChar$ = 12					; size = 4
_pQuerySave$ = 16					; size = 4
?CreateGuildBankView@CDbManager@@QAEHPADPAVCQuery@@1@Z PROC ; CDbManager::CreateGuildBankView, COMDAT
; _this$ = ecx

; 172  : {

  00000	55		 push	 ebp
  00001	8b ec		 mov	 ebp, esp
  00003	56		 push	 esi
  00004	57		 push	 edi

; 173  : 	// Inven, Bank view »ýĽş
; 174  : 	sprintf( pszSQL, " if exists (select * from dbo.sysobjects where id = object_id(N'[dbo].[seghope_guild]') and OBJECTPROPERTY(id, N'IsView') = 1)"

  00005	8b 7d 08	 mov	 edi, DWORD PTR _pszSQL$[ebp]
  00008	68 00 00 00 00	 push	 OFFSET ??_C@_0JP@LDPJLGLD@?5if?5exists?5?$CIselect?5?$CK?5from?5dbo?4s@
  0000d	57		 push	 edi
  0000e	e8 00 00 00 00	 call	 _sprintf

; 175  : 		" drop view [dbo].[seghope_guild]");
; 176  : 	
; 177  : 	if( FALSE == pQueryChar->Exec( pszSQL ) )

  00013	8b 75 0c	 mov	 esi, DWORD PTR _pQueryChar$[ebp]
  00016	83 c4 08	 add	 esp, 8
  00019	8b ce		 mov	 ecx, esi
  0001b	57		 push	 edi
  0001c	e8 00 00 00 00	 call	 ?Exec@CQuery@@QAEHPBD@Z	; CQuery::Exec
  00021	85 c0		 test	 eax, eax
  00023	74 20		 je	 SHORT $LN42@CreateGuil

; 178  : 	{
; 179  : 		SAFE_DELETE( pQueryChar );
; 180  : 		SAFE_DELETE( pQuerySave );
; 181  : 		AfxMessageBox( pszSQL, MB_OK );
; 182  : 		return FALSE;
; 183  : 	}
; 184  : 	
; 185  : 	sprintf( pszSQL, "CREATE view seghope_guild "

  00025	ff 35 00 00 00
	00		 push	 DWORD PTR ?g_appInfo@@3UAppInfo@@A
  0002b	68 00 00 00 00	 push	 OFFSET ??_C@_0BAF@BHMIJDAM@CREATE?5view?5seghope_guild?5?5as?5?5@
  00030	57		 push	 edi
  00031	e8 00 00 00 00	 call	 _sprintf
  00036	83 c4 0c	 add	 esp, 12			; 0000000cH

; 186  : 		" as "
; 187  : 		" select a.m_idGuild, a.m_GuildBank,"
; 188  : 		" b.m_extGuildBank , b.m_GuildBankPiercing"
; 189  : 		" from "
; 190  : 		" GUILD_BANK_TBL a(nolock), GUILD_BANK_EXT_TBL b(nolock)"
; 191  : 		" where a.serverindex = b.serverindex"
; 192  : 		" and b.serverindex = '%02d'"
; 193  : 		" and a.m_idGuild = b.m_idGuild"
; 194  : 		, g_appInfo.dwSys );
; 195  : 	
; 196  : 	if( FALSE == pQueryChar->Exec( pszSQL ) )

  00039	8b ce		 mov	 ecx, esi
  0003b	57		 push	 edi
  0003c	e8 00 00 00 00	 call	 ?Exec@CQuery@@QAEHPBD@Z	; CQuery::Exec
  00041	85 c0		 test	 eax, eax
  00043	75 47		 jne	 SHORT $LN5@CreateGuil
$LN42@CreateGuil:

; 197  : 	{
; 198  : 		SAFE_DELETE( pQueryChar );
; 199  : 		SAFE_DELETE( pQuerySave );
; 200  : 		AfxMessageBox( pszSQL, MB_OK );

  00045	85 f6		 test	 esi, esi
  00047	74 15		 je	 SHORT $LN26@CreateGuil
  00049	8b ce		 mov	 ecx, esi
  0004b	e8 00 00 00 00	 call	 ??1CQuery@@QAE@XZ	; CQuery::~CQuery
  00050	68 10 3d 00 00	 push	 15632			; 00003d10H
  00055	56		 push	 esi
  00056	e8 00 00 00 00	 call	 ??3@YAXPAXI@Z		; operator delete
  0005b	83 c4 08	 add	 esp, 8
$LN26@CreateGuil:
  0005e	8b 75 10	 mov	 esi, DWORD PTR _pQuerySave$[ebp]
  00061	85 f6		 test	 esi, esi
  00063	74 15		 je	 SHORT $LN30@CreateGuil
  00065	8b ce		 mov	 ecx, esi
  00067	e8 00 00 00 00	 call	 ??1CQuery@@QAE@XZ	; CQuery::~CQuery
  0006c	68 10 3d 00 00	 push	 15632			; 00003d10H
  00071	56		 push	 esi
  00072	e8 00 00 00 00	 call	 ??3@YAXPAXI@Z		; operator delete
  00077	83 c4 08	 add	 esp, 8
$LN30@CreateGuil:
  0007a	6a 00		 push	 0
  0007c	6a 00		 push	 0
  0007e	57		 push	 edi
  0007f	e8 00 00 00 00	 call	 ?AfxMessageBox@@YGHPBDII@Z ; AfxMessageBox
  00084	5f		 pop	 edi

; 201  : 		return FALSE;

  00085	33 c0		 xor	 eax, eax

; 204  : }

  00087	5e		 pop	 esi
  00088	5d		 pop	 ebp
  00089	c2 0c 00	 ret	 12			; 0000000cH
$LN5@CreateGuil:
  0008c	5f		 pop	 edi

; 202  : 	}
; 203  : 	return TRUE;

  0008d	b8 01 00 00 00	 mov	 eax, 1

; 204  : }

  00092	5e		 pop	 esi
  00093	5d		 pop	 ebp
  00094	c2 0c 00	 ret	 12			; 0000000cH
?CreateGuildBankView@CDbManager@@QAEHPADPAVCQuery@@1@Z ENDP ; CDbManager::CreateGuildBankView
_TEXT	ENDS
; Function compile flags: /Ogtp
; File C:\IAGOS\server\v18\Source\Source\_Database\DBConvertNew.cpp
;	COMDAT ?CreateInvenBankView@CDbManager@@QAEHPADPAVCQuery@@1@Z
_TEXT	SEGMENT
_pszSQL$ = 8						; size = 4
_pQueryChar$ = 12					; size = 4
_pQuerySave$ = 16					; size = 4
?CreateInvenBankView@CDbManager@@QAEHPADPAVCQuery@@1@Z PROC ; CDbManager::CreateInvenBankView, COMDAT
; _this$ = ecx

; 128  : {

  00000	55		 push	 ebp
  00001	8b ec		 mov	 ebp, esp
  00003	56		 push	 esi
  00004	57		 push	 edi

; 129  : 	// Inven, Bank view »ýĽş
; 130  : 	sprintf( pszSQL, " if exists (select * from dbo.sysobjects where id = object_id(N'[dbo].[seghope]') and OBJECTPROPERTY(id, N'IsView') = 1)"

  00005	8b 7d 08	 mov	 edi, DWORD PTR _pszSQL$[ebp]
  00008	68 00 00 00 00	 push	 OFFSET ??_C@_0JD@JEKOKICJ@?5if?5exists?5?$CIselect?5?$CK?5from?5dbo?4s@
  0000d	57		 push	 edi
  0000e	e8 00 00 00 00	 call	 _sprintf

; 131  : 		" drop view [dbo].[seghope]");
; 132  : 	
; 133  : 	if( FALSE == pQueryChar->Exec( pszSQL ) )

  00013	8b 75 0c	 mov	 esi, DWORD PTR _pQueryChar$[ebp]
  00016	83 c4 08	 add	 esp, 8
  00019	8b ce		 mov	 ecx, esi
  0001b	57		 push	 edi
  0001c	e8 00 00 00 00	 call	 ?Exec@CQuery@@QAEHPBD@Z	; CQuery::Exec
  00021	85 c0		 test	 eax, eax
  00023	74 20		 je	 SHORT $LN42@CreateInve

; 134  : 	{
; 135  : 		SAFE_DELETE( pQueryChar );
; 136  : 		SAFE_DELETE( pQuerySave );
; 137  : 		AfxMessageBox( pszSQL, MB_OK );
; 138  : 		return FALSE;
; 139  : 	}
; 140  : 	
; 141  : 	sprintf( pszSQL, "CREATE view seghope "

  00025	ff 35 00 00 00
	00		 push	 DWORD PTR ?g_appInfo@@3UAppInfo@@A
  0002b	68 00 00 00 00	 push	 OFFSET ??_C@_0CIN@DLEPDECP@CREATE?5view?5seghope?5?5as?5?5select@
  00030	57		 push	 edi
  00031	e8 00 00 00 00	 call	 _sprintf
  00036	83 c4 0c	 add	 esp, 12			; 0000000cH

; 142  : 		" as "
; 143  : 		" select a.m_idPlayer, a.m_Inventory, a.m_apIndex, a.m_dwObjIndex,"
; 144  : 		" b.m_extInventory, b.m_InventoryPiercing,"
; 145  : 		" c.m_Bank, c.m_apIndex_Bank, c.m_dwObjIndex_Bank, "
; 146  : 		" d.m_extBank, d.m_BankPiercing,"
; 147  : 		" e.playerslot"
; 148  : 		" from "
; 149  : 		" INVENTORY_TBL a(nolock), INVENTORY_EXT_TBL b(nolock), BANK_TBL c(nolock), BANK_EXT_TBL d(nolock), CHARACTER_TBL e(nolock)"
; 150  : 		" where a.serverindex = b.serverindex "
; 151  : 		" and b.serverindex = c.serverindex "
; 152  : 		" and c.serverindex = d.serverindex "
; 153  : 		" and d.serverindex = e.serverindex"
; 154  : 		" and e.serverindex = '%02d' "
; 155  : 		" and a.m_idPlayer = b.m_idPlayer "
; 156  : 		" and b.m_idPlayer = c.m_idPlayer "
; 157  : 		" and c.m_idPlayer = d.m_idPlayer "
; 158  : 		" and d.m_idPlayer = e.m_idPlayer"
; 159  : 		,g_appInfo.dwSys );
; 160  : 	
; 161  : 	if( FALSE == pQueryChar->Exec( pszSQL ) )

  00039	8b ce		 mov	 ecx, esi
  0003b	57		 push	 edi
  0003c	e8 00 00 00 00	 call	 ?Exec@CQuery@@QAEHPBD@Z	; CQuery::Exec
  00041	85 c0		 test	 eax, eax
  00043	75 47		 jne	 SHORT $LN5@CreateInve
$LN42@CreateInve:

; 162  : 	{
; 163  : 		SAFE_DELETE( pQueryChar );
; 164  : 		SAFE_DELETE( pQuerySave );
; 165  : 		AfxMessageBox( pszSQL, MB_OK );

  00045	85 f6		 test	 esi, esi
  00047	74 15		 je	 SHORT $LN26@CreateInve
  00049	8b ce		 mov	 ecx, esi
  0004b	e8 00 00 00 00	 call	 ??1CQuery@@QAE@XZ	; CQuery::~CQuery
  00050	68 10 3d 00 00	 push	 15632			; 00003d10H
  00055	56		 push	 esi
  00056	e8 00 00 00 00	 call	 ??3@YAXPAXI@Z		; operator delete
  0005b	83 c4 08	 add	 esp, 8
$LN26@CreateInve:
  0005e	8b 75 10	 mov	 esi, DWORD PTR _pQuerySave$[ebp]
  00061	85 f6		 test	 esi, esi
  00063	74 15		 je	 SHORT $LN30@CreateInve
  00065	8b ce		 mov	 ecx, esi
  00067	e8 00 00 00 00	 call	 ??1CQuery@@QAE@XZ	; CQuery::~CQuery
  0006c	68 10 3d 00 00	 push	 15632			; 00003d10H
  00071	56		 push	 esi
  00072	e8 00 00 00 00	 call	 ??3@YAXPAXI@Z		; operator delete
  00077	83 c4 08	 add	 esp, 8
$LN30@CreateInve:
  0007a	6a 00		 push	 0
  0007c	6a 00		 push	 0
  0007e	57		 push	 edi
  0007f	e8 00 00 00 00	 call	 ?AfxMessageBox@@YGHPBDII@Z ; AfxMessageBox
  00084	5f		 pop	 edi

; 166  : 		return FALSE;

  00085	33 c0		 xor	 eax, eax

; 169  : }

  00087	5e		 pop	 esi
  00088	5d		 pop	 ebp
  00089	c2 0c 00	 ret	 12			; 0000000cH
$LN5@CreateInve:
  0008c	5f		 pop	 edi

; 167  : 	}
; 168  : 	return TRUE;

  0008d	b8 01 00 00 00	 mov	 eax, 1

; 169  : }

  00092	5e		 pop	 esi
  00093	5d		 pop	 ebp
  00094	c2 0c 00	 ret	 12			; 0000000cH
?CreateInvenBankView@CDbManager@@QAEHPADPAVCQuery@@1@Z ENDP ; CDbManager::CreateInvenBankView
_TEXT	ENDS
; Function compile flags: /Ogtp
; File C:\IAGOS\server\v18\Source\Source\_Database\DBConvertNew.cpp
;	COMDAT ?GetMaxGuildBank@CDbManager@@QAEKPADPAVCQuery@@1@Z
_TEXT	SEGMENT
_pszSQL$ = 8						; size = 4
_pQueryChar$ = 12					; size = 4
_pQuerySave$ = 16					; size = 4
?GetMaxGuildBank@CDbManager@@QAEKPADPAVCQuery@@1@Z PROC	; CDbManager::GetMaxGuildBank, COMDAT
; _this$ = ecx

; 109  : {

  00000	55		 push	 ebp
  00001	8b ec		 mov	 ebp, esp
  00003	53		 push	 ebx
  00004	56		 push	 esi
  00005	57		 push	 edi

; 110  : 	DWORD dwMaxConv = 0;
; 111  : 	sprintf( pszSQL, "select count = count(m_idGuild) from GUILD_BANK_TBL where serverindex = '%02d'", g_appInfo.dwSys );

  00006	ff 35 00 00 00
	00		 push	 DWORD PTR ?g_appInfo@@3UAppInfo@@A
  0000c	8b 7d 08	 mov	 edi, DWORD PTR _pszSQL$[ebp]
  0000f	33 db		 xor	 ebx, ebx
  00011	68 00 00 00 00	 push	 OFFSET ??_C@_0EP@KMPMKKMC@select?5count?5?$DN?5count?$CIm_idGuild?$CJ@
  00016	57		 push	 edi
  00017	e8 00 00 00 00	 call	 _sprintf

; 112  : 	TRACE( pszSQL ); 	TRACE( "\n" );
; 113  : 	if( FALSE == pQueryChar->Exec( pszSQL ) )

  0001c	8b 75 0c	 mov	 esi, DWORD PTR _pQueryChar$[ebp]
  0001f	83 c4 0c	 add	 esp, 12			; 0000000cH
  00022	8b ce		 mov	 ecx, esi
  00024	57		 push	 edi
  00025	e8 00 00 00 00	 call	 ?Exec@CQuery@@QAEHPBD@Z	; CQuery::Exec
  0002a	85 c0		 test	 eax, eax
  0002c	75 48		 jne	 SHORT $LN2@GetMaxGuil

; 114  : 	{
; 115  : 		SAFE_DELETE( pQueryChar );

  0002e	85 f6		 test	 esi, esi
  00030	74 15		 je	 SHORT $LN13@GetMaxGuil
  00032	8b ce		 mov	 ecx, esi
  00034	e8 00 00 00 00	 call	 ??1CQuery@@QAE@XZ	; CQuery::~CQuery
  00039	68 10 3d 00 00	 push	 15632			; 00003d10H
  0003e	56		 push	 esi
  0003f	e8 00 00 00 00	 call	 ??3@YAXPAXI@Z		; operator delete
  00044	83 c4 08	 add	 esp, 8
$LN13@GetMaxGuil:

; 116  : 		SAFE_DELETE( pQuerySave );

  00047	8b 75 10	 mov	 esi, DWORD PTR _pQuerySave$[ebp]
  0004a	85 f6		 test	 esi, esi
  0004c	74 15		 je	 SHORT $LN17@GetMaxGuil
  0004e	8b ce		 mov	 ecx, esi
  00050	e8 00 00 00 00	 call	 ??1CQuery@@QAE@XZ	; CQuery::~CQuery
  00055	68 10 3d 00 00	 push	 15632			; 00003d10H
  0005a	56		 push	 esi
  0005b	e8 00 00 00 00	 call	 ??3@YAXPAXI@Z		; operator delete
  00060	83 c4 08	 add	 esp, 8
$LN17@GetMaxGuil:

; 117  : 		AfxMessageBox( pszSQL, MB_OK );

  00063	6a 00		 push	 0
  00065	6a 00		 push	 0
  00067	57		 push	 edi
  00068	e8 00 00 00 00	 call	 ?AfxMessageBox@@YGHPBDII@Z ; AfxMessageBox
  0006d	5f		 pop	 edi

; 124  : 	
; 125  : 	return dwMaxConv;
; 126  : }

  0006e	5e		 pop	 esi
  0006f	33 c0		 xor	 eax, eax
  00071	5b		 pop	 ebx
  00072	5d		 pop	 ebp
  00073	c2 0c 00	 ret	 12			; 0000000cH
$LN2@GetMaxGuil:

; 118  : 		return dwMaxConv;
; 119  : 	}
; 120  : 	if( pQueryChar->Fetch() )

  00076	8b ce		 mov	 ecx, esi
  00078	e8 00 00 00 00	 call	 ?Fetch@CQuery@@QAEHXZ	; CQuery::Fetch
  0007d	85 c0		 test	 eax, eax
  0007f	74 15		 je	 SHORT $LN5@GetMaxGuil

; 121  : 		dwMaxConv = (DWORD)pQueryChar->GetInt( "count" );

  00081	68 00 00 00 00	 push	 OFFSET ??_C@_05IOMEMJEC@count@
  00086	8b ce		 mov	 ecx, esi
  00088	e8 00 00 00 00	 call	 ?GetInt@CQuery@@QAEHPAD@Z ; CQuery::GetInt
  0008d	5f		 pop	 edi
  0008e	8b d8		 mov	 ebx, eax

; 124  : 	
; 125  : 	return dwMaxConv;
; 126  : }

  00090	5e		 pop	 esi
  00091	5b		 pop	 ebx
  00092	5d		 pop	 ebp
  00093	c2 0c 00	 ret	 12			; 0000000cH
$LN5@GetMaxGuil:

; 122  : 	else
; 123  : 		AfxMessageBox( "GuildBank No Data Convert", MB_OK );

  00096	6a 00		 push	 0
  00098	6a 00		 push	 0
  0009a	68 00 00 00 00	 push	 OFFSET ??_C@_0BK@CFCEBDAL@GuildBank?5No?5Data?5Convert@
  0009f	e8 00 00 00 00	 call	 ?AfxMessageBox@@YGHPBDII@Z ; AfxMessageBox
  000a4	5f		 pop	 edi

; 124  : 	
; 125  : 	return dwMaxConv;
; 126  : }

  000a5	5e		 pop	 esi
  000a6	8b c3		 mov	 eax, ebx
  000a8	5b		 pop	 ebx
  000a9	5d		 pop	 ebp
  000aa	c2 0c 00	 ret	 12			; 0000000cH
?GetMaxGuildBank@CDbManager@@QAEKPADPAVCQuery@@1@Z ENDP	; CDbManager::GetMaxGuildBank
_TEXT	ENDS
; Function compile flags: /Ogtp
; File C:\IAGOS\server\v18\Source\Source\_Database\DBConvertNew.cpp
;	COMDAT ?GetMaxInventory@CDbManager@@QAEKPADPAVCQuery@@1@Z
_TEXT	SEGMENT
_pszSQL$ = 8						; size = 4
_pQueryChar$ = 12					; size = 4
_pQuerySave$ = 16					; size = 4
?GetMaxInventory@CDbManager@@QAEKPADPAVCQuery@@1@Z PROC	; CDbManager::GetMaxInventory, COMDAT
; _this$ = ecx

; 89   : {

  00000	55		 push	 ebp
  00001	8b ec		 mov	 ebp, esp
  00003	53		 push	 ebx
  00004	56		 push	 esi
  00005	57		 push	 edi

; 90   : 	DWORD dwMaxConv = 0;
; 91   : 	sprintf( pszSQL, "select count = count(m_idPlayer) from INVENTORY_TBL where serverindex = '%02d'", g_appInfo.dwSys );

  00006	ff 35 00 00 00
	00		 push	 DWORD PTR ?g_appInfo@@3UAppInfo@@A
  0000c	8b 7d 08	 mov	 edi, DWORD PTR _pszSQL$[ebp]
  0000f	33 db		 xor	 ebx, ebx
  00011	68 00 00 00 00	 push	 OFFSET ??_C@_0EP@NAMJIFIH@select?5count?5?$DN?5count?$CIm_idPlayer@
  00016	57		 push	 edi
  00017	e8 00 00 00 00	 call	 _sprintf

; 92   : 	TRACE( pszSQL ); TRACE( "\n" );
; 93   : 	if( FALSE == pQueryChar->Exec( pszSQL ) )

  0001c	8b 75 0c	 mov	 esi, DWORD PTR _pQueryChar$[ebp]
  0001f	83 c4 0c	 add	 esp, 12			; 0000000cH
  00022	8b ce		 mov	 ecx, esi
  00024	57		 push	 edi
  00025	e8 00 00 00 00	 call	 ?Exec@CQuery@@QAEHPBD@Z	; CQuery::Exec
  0002a	85 c0		 test	 eax, eax
  0002c	75 48		 jne	 SHORT $LN2@GetMaxInve

; 94   : 	{
; 95   : 		SAFE_DELETE( pQueryChar );

  0002e	85 f6		 test	 esi, esi
  00030	74 15		 je	 SHORT $LN13@GetMaxInve
  00032	8b ce		 mov	 ecx, esi
  00034	e8 00 00 00 00	 call	 ??1CQuery@@QAE@XZ	; CQuery::~CQuery
  00039	68 10 3d 00 00	 push	 15632			; 00003d10H
  0003e	56		 push	 esi
  0003f	e8 00 00 00 00	 call	 ??3@YAXPAXI@Z		; operator delete
  00044	83 c4 08	 add	 esp, 8
$LN13@GetMaxInve:

; 96   : 		SAFE_DELETE( pQuerySave );

  00047	8b 75 10	 mov	 esi, DWORD PTR _pQuerySave$[ebp]
  0004a	85 f6		 test	 esi, esi
  0004c	74 15		 je	 SHORT $LN17@GetMaxInve
  0004e	8b ce		 mov	 ecx, esi
  00050	e8 00 00 00 00	 call	 ??1CQuery@@QAE@XZ	; CQuery::~CQuery
  00055	68 10 3d 00 00	 push	 15632			; 00003d10H
  0005a	56		 push	 esi
  0005b	e8 00 00 00 00	 call	 ??3@YAXPAXI@Z		; operator delete
  00060	83 c4 08	 add	 esp, 8
$LN17@GetMaxInve:

; 97   : 		AfxMessageBox( pszSQL, MB_OK );

  00063	6a 00		 push	 0
  00065	6a 00		 push	 0
  00067	57		 push	 edi
  00068	e8 00 00 00 00	 call	 ?AfxMessageBox@@YGHPBDII@Z ; AfxMessageBox
  0006d	5f		 pop	 edi

; 104  : 	
; 105  : 	return dwMaxConv;
; 106  : }

  0006e	5e		 pop	 esi
  0006f	33 c0		 xor	 eax, eax
  00071	5b		 pop	 ebx
  00072	5d		 pop	 ebp
  00073	c2 0c 00	 ret	 12			; 0000000cH
$LN2@GetMaxInve:

; 98   : 		return dwMaxConv;
; 99   : 	}
; 100  : 	if( pQueryChar->Fetch() )

  00076	8b ce		 mov	 ecx, esi
  00078	e8 00 00 00 00	 call	 ?Fetch@CQuery@@QAEHXZ	; CQuery::Fetch
  0007d	85 c0		 test	 eax, eax
  0007f	74 15		 je	 SHORT $LN5@GetMaxInve

; 101  : 		dwMaxConv = (DWORD)pQueryChar->GetInt( "count" );

  00081	68 00 00 00 00	 push	 OFFSET ??_C@_05IOMEMJEC@count@
  00086	8b ce		 mov	 ecx, esi
  00088	e8 00 00 00 00	 call	 ?GetInt@CQuery@@QAEHPAD@Z ; CQuery::GetInt
  0008d	5f		 pop	 edi
  0008e	8b d8		 mov	 ebx, eax

; 104  : 	
; 105  : 	return dwMaxConv;
; 106  : }

  00090	5e		 pop	 esi
  00091	5b		 pop	 ebx
  00092	5d		 pop	 ebp
  00093	c2 0c 00	 ret	 12			; 0000000cH
$LN5@GetMaxInve:

; 102  : 	else
; 103  : 		AfxMessageBox( "Inven No Data Convert", MB_OK );

  00096	6a 00		 push	 0
  00098	6a 00		 push	 0
  0009a	68 00 00 00 00	 push	 OFFSET ??_C@_0BG@CKCLBOEC@Inven?5No?5Data?5Convert@
  0009f	e8 00 00 00 00	 call	 ?AfxMessageBox@@YGHPBDII@Z ; AfxMessageBox
  000a4	5f		 pop	 edi

; 104  : 	
; 105  : 	return dwMaxConv;
; 106  : }

  000a5	5e		 pop	 esi
  000a6	8b c3		 mov	 eax, ebx
  000a8	5b		 pop	 ebx
  000a9	5d		 pop	 ebp
  000aa	c2 0c 00	 ret	 12			; 0000000cH
?GetMaxInventory@CDbManager@@QAEKPADPAVCQuery@@1@Z ENDP	; CDbManager::GetMaxInventory
_TEXT	ENDS
; Function compile flags: /Ogtp
; File C:\IAGOS\server\v18\Source\Source\_Database\DBConvertNew.cpp
;	COMDAT ?ConvItemConnectDB@CDbManager@@QAEHPAVCQuery@@0@Z
_TEXT	SEGMENT
_pQueryChar$ = 8					; size = 4
_pQuerySave$ = 12					; size = 4
?ConvItemConnectDB@CDbManager@@QAEHPAVCQuery@@0@Z PROC	; CDbManager::ConvItemConnectDB, COMDAT
; _this$ = ecx

; 70   : {

  00000	55		 push	 ebp
  00001	8b ec		 mov	 ebp, esp
  00003	56		 push	 esi

; 71   : 	if( FALSE == pQueryChar->Connect( 3, DSN_NAME_CHARACTER01, DB_ADMIN_ID_CHARACTER01, DB_ADMIN_PASS_CHARACTER01 ) )

  00004	8b 75 08	 mov	 esi, DWORD PTR _pQueryChar$[ebp]
  00007	57		 push	 edi
  00008	8d b9 98 04 00
	00		 lea	 edi, DWORD PTR [ecx+1176]
  0000e	8b ce		 mov	 ecx, esi
  00010	57		 push	 edi
  00011	68 00 00 00 00	 push	 OFFSET ?DB_ADMIN_ID_CHARACTER01@@3PADA ; DB_ADMIN_ID_CHARACTER01
  00016	68 00 00 00 00	 push	 OFFSET ?DSN_NAME_CHARACTER01@@3PADA ; DSN_NAME_CHARACTER01
  0001b	6a 03		 push	 3
  0001d	e8 00 00 00 00	 call	 ?Connect@CQuery@@QAEHHPAD0PBD@Z ; CQuery::Connect
  00022	85 c0		 test	 eax, eax
  00024	74 1b		 je	 SHORT $LN24@ConvItemCo

; 72   : 	{
; 73   : 		SAFE_DELETE( pQueryChar );
; 74   : 		AfxMessageBox( "Connect Not Item", MB_OK );
; 75   : 		return FALSE;
; 76   : 	}
; 77   : 	
; 78   : 	if( FALSE == pQuerySave->Connect( 3, DSN_NAME_CHARACTER01, DB_ADMIN_ID_CHARACTER01, DB_ADMIN_PASS_CHARACTER01 ) )

  00026	8b 75 0c	 mov	 esi, DWORD PTR _pQuerySave$[ebp]
  00029	8b ce		 mov	 ecx, esi
  0002b	57		 push	 edi
  0002c	68 00 00 00 00	 push	 OFFSET ?DB_ADMIN_ID_CHARACTER01@@3PADA ; DB_ADMIN_ID_CHARACTER01
  00031	68 00 00 00 00	 push	 OFFSET ?DSN_NAME_CHARACTER01@@3PADA ; DSN_NAME_CHARACTER01
  00036	6a 03		 push	 3
  00038	e8 00 00 00 00	 call	 ?Connect@CQuery@@QAEHHPAD0PBD@Z ; CQuery::Connect
  0003d	85 c0		 test	 eax, eax
  0003f	75 2f		 jne	 SHORT $LN4@ConvItemCo
$LN24@ConvItemCo:

; 79   : 	{
; 80   : 		SAFE_DELETE( pQuerySave );
; 81   : 		AfxMessageBox( "Connect Not Item", MB_OK );

  00041	85 f6		 test	 esi, esi
  00043	74 15		 je	 SHORT $LN16@ConvItemCo
  00045	8b ce		 mov	 ecx, esi
  00047	e8 00 00 00 00	 call	 ??1CQuery@@QAE@XZ	; CQuery::~CQuery
  0004c	68 10 3d 00 00	 push	 15632			; 00003d10H
  00051	56		 push	 esi
  00052	e8 00 00 00 00	 call	 ??3@YAXPAXI@Z		; operator delete
  00057	83 c4 08	 add	 esp, 8
$LN16@ConvItemCo:
  0005a	6a 00		 push	 0
  0005c	6a 00		 push	 0
  0005e	68 00 00 00 00	 push	 OFFSET ??_C@_0BB@FDLCCPK@Connect?5Not?5Item@
  00063	e8 00 00 00 00	 call	 ?AfxMessageBox@@YGHPBDII@Z ; AfxMessageBox
  00068	5f		 pop	 edi

; 82   : 		return FALSE;

  00069	33 c0		 xor	 eax, eax

; 86   : }

  0006b	5e		 pop	 esi
  0006c	5d		 pop	 ebp
  0006d	c2 08 00	 ret	 8
$LN4@ConvItemCo:
  00070	5f		 pop	 edi

; 83   : 	}	
; 84   : 	
; 85   : 	return TRUE;

  00071	b8 01 00 00 00	 mov	 eax, 1

; 86   : }

  00076	5e		 pop	 esi
  00077	5d		 pop	 ebp
  00078	c2 08 00	 ret	 8
?ConvItemConnectDB@CDbManager@@QAEHPAVCQuery@@0@Z ENDP	; CDbManager::ConvItemConnectDB
_TEXT	ENDS
; Function compile flags: /Ogtp
; File C:\IAGOS\server\v18\Source\Source\_Database\DBConvertNew.cpp
;	COMDAT ?UpdateConvItemDialog@CDbManager@@QAEXPAD00H@Z
_TEXT	SEGMENT
_pTitle$ = 8						; size = 4
_pString$ = 12						; size = 4
_pPosStirng$ = 16					; size = 4
_nPos$ = 20						; size = 4
?UpdateConvItemDialog@CDbManager@@QAEXPAD00H@Z PROC	; CDbManager::UpdateConvItemDialog, COMDAT
; _this$ = ecx

; 60   : {

  00000	55		 push	 ebp
  00001	8b ec		 mov	 ebp, esp
  00003	56		 push	 esi

; 61   : 	SetDlgItemText( hItemConvDlg, IDC_STATIC2, pTitle );

  00004	ff 75 08	 push	 DWORD PTR _pTitle$[ebp]
  00007	8b 35 00 00 00
	00		 mov	 esi, DWORD PTR __imp__SetDlgItemTextA@12
  0000d	68 ec 03 00 00	 push	 1004			; 000003ecH
  00012	ff 35 00 00 00
	00		 push	 DWORD PTR ?hItemConvDlg@@3PAUHWND__@@A ; hItemConvDlg
  00018	ff d6		 call	 esi

; 62   : 	SetDlgItemText( hItemConvDlg, IDC_STATIC1, pString );

  0001a	ff 75 0c	 push	 DWORD PTR _pString$[ebp]
  0001d	68 e9 03 00 00	 push	 1001			; 000003e9H
  00022	ff 35 00 00 00
	00		 push	 DWORD PTR ?hItemConvDlg@@3PAUHWND__@@A ; hItemConvDlg
  00028	ff d6		 call	 esi

; 63   : 	SetDlgItemText( hItemConvDlg, IDC_STATIC, pPosStirng );

  0002a	ff 75 10	 push	 DWORD PTR _pPosStirng$[ebp]
  0002d	6a ff		 push	 -1
  0002f	ff 35 00 00 00
	00		 push	 DWORD PTR ?hItemConvDlg@@3PAUHWND__@@A ; hItemConvDlg
  00035	ff d6		 call	 esi

; 64   : 	SendMessage( hItemConvWndPB, PBM_SETPOS, (WPARAM)nPos, 0 );	

  00037	6a 00		 push	 0
  00039	ff 75 14	 push	 DWORD PTR _nPos$[ebp]
  0003c	68 02 04 00 00	 push	 1026			; 00000402H
  00041	ff 35 00 00 00
	00		 push	 DWORD PTR ?hItemConvWndPB@@3PAUHWND__@@A ; hItemConvWndPB
  00047	ff 15 00 00 00
	00		 call	 DWORD PTR __imp__SendMessageA@16
  0004d	5e		 pop	 esi

; 65   : }

  0004e	5d		 pop	 ebp
  0004f	c2 10 00	 ret	 16			; 00000010H
?UpdateConvItemDialog@CDbManager@@QAEXPAD00H@Z ENDP	; CDbManager::UpdateConvItemDialog
_TEXT	ENDS
; Function compile flags: /Ogtp
; File C:\IAGOS\server\v18\Source\Source\_Database\DBConvertNew.cpp
;	COMDAT ?InitConvItemDialog@CDbManager@@QAEXXZ
_TEXT	SEGMENT
?InitConvItemDialog@CDbManager@@QAEXXZ PROC		; CDbManager::InitConvItemDialog, COMDAT
; _this$ = ecx

; 48   : {

  00000	53		 push	 ebx
  00001	57		 push	 edi

; 49   : 	HWND hItemConvDlg	= CreateDialog( hInst, MAKEINTRESOURCE( IDD_VERIFYPLAYER ),

  00002	6a 00		 push	 0
  00004	68 00 00 00 00	 push	 OFFSET ?VerifyPlayerDlgProc@@YGHPAUHWND__@@IIJ@Z ; VerifyPlayerDlgProc
  00009	ff 35 00 00 00
	00		 push	 DWORD PTR ?hMainWnd@@3PAUHWND__@@A ; hMainWnd
  0000f	68 87 00 00 00	 push	 135			; 00000087H
  00014	ff 35 00 00 00
	00		 push	 DWORD PTR ?hInst@@3PAUHINSTANCE__@@A ; hInst
  0001a	ff 15 00 00 00
	00		 call	 DWORD PTR __imp__CreateDialogParamA@20
  00020	8b d8		 mov	 ebx, eax

; 50   : 		hMainWnd, VerifyPlayerDlgProc );
; 51   : 	ShowWindow( hItemConvDlg, SW_SHOW );

  00022	6a 05		 push	 5
  00024	53		 push	 ebx
  00025	ff 15 00 00 00
	00		 call	 DWORD PTR __imp__ShowWindow@8

; 52   : 	HWND hItemConvWndPB;
; 53   : 	hItemConvWndPB	= GetDlgItem( hItemConvDlg, IDC_PROGRESS1 );

  0002b	68 e8 03 00 00	 push	 1000			; 000003e8H
  00030	53		 push	 ebx
  00031	ff 15 00 00 00
	00		 call	 DWORD PTR __imp__GetDlgItem@8

; 54   : 	SetDlgItemText( hItemConvDlg, IDC_STATIC1, "0 / 0" );

  00037	68 00 00 00 00	 push	 OFFSET ??_C@_05JENMLJIO@0?5?1?50@
  0003c	68 e9 03 00 00	 push	 1001			; 000003e9H
  00041	53		 push	 ebx
  00042	8b f8		 mov	 edi, eax
  00044	ff 15 00 00 00
	00		 call	 DWORD PTR __imp__SetDlgItemTextA@12

; 55   : 	SetDlgItemText( hItemConvDlg, IDC_STATIC, "Init" );

  0004a	68 00 00 00 00	 push	 OFFSET ??_C@_04LLJCPOLH@Init@
  0004f	6a ff		 push	 -1
  00051	53		 push	 ebx
  00052	ff 15 00 00 00
	00		 call	 DWORD PTR __imp__SetDlgItemTextA@12

; 56   : 	SendMessage( hItemConvWndPB, PBM_SETRANGE, 0, MAKELPARAM( 0, 100 ) ); 

  00058	68 00 00 64 00	 push	 6553600			; 00640000H
  0005d	6a 00		 push	 0
  0005f	68 01 04 00 00	 push	 1025			; 00000401H
  00064	57		 push	 edi
  00065	ff 15 00 00 00
	00		 call	 DWORD PTR __imp__SendMessageA@16
  0006b	5f		 pop	 edi
  0006c	5b		 pop	 ebx

; 57   : }

  0006d	c3		 ret	 0
?InitConvItemDialog@CDbManager@@QAEXXZ ENDP		; CDbManager::InitConvItemDialog
_TEXT	ENDS
; Function compile flags: /Ogtp
; File C:\IAGOS\server\v18\Source\Source\_Database\DBConvertNew.cpp
;	COMDAT ?GetRemoveItemPanya@CDbManager@@QAEKHH@Z
_TEXT	SEGMENT
_nItem0$ = 8						; size = 4
_nItem1$ = 12						; size = 4
?GetRemoveItemPanya@CDbManager@@QAEKHH@Z PROC		; CDbManager::GetRemoveItemPanya, COMDAT
; _this$ = ecx

; 442  : {

  00000	55		 push	 ebp
  00001	8b ec		 mov	 ebp, esp

; 443  : 	DWORD dwAddGold = 0;
; 444  : 	if( nItem0 )	//"ĂµżîŔÇ ˝şĹÂÇÁ"

  00003	8b 4d 08	 mov	 ecx, DWORD PTR _nItem0$[ebp]
  00006	33 c0		 xor	 eax, eax
  00008	85 c9		 test	 ecx, ecx
  0000a	74 06		 je	 SHORT $LN2@GetRemoveI

; 445  : 	{
; 446  : 		dwAddGold += 36000 * nItem0;

  0000c	69 c1 a0 8c 00
	00		 imul	 eax, ecx, 36000
$LN2@GetRemoveI:

; 447  : 	}
; 448  : 	if( nItem1 )	//"ĆÄČ˛ŔÇ ˝şĹÂÇÁ"

  00012	8b 4d 0c	 mov	 ecx, DWORD PTR _nItem1$[ebp]
  00015	85 c9		 test	 ecx, ecx
  00017	74 08		 je	 SHORT $LN3@GetRemoveI

; 449  : 	{
; 450  : 		dwAddGold += 147500 * nItem1;

  00019	69 c9 2c 40 02
	00		 imul	 ecx, ecx, 147500
  0001f	03 c1		 add	 eax, ecx
$LN3@GetRemoveI:

; 451  : 	}
; 452  : 	return dwAddGold;
; 453  : }

  00021	5d		 pop	 ebp
  00022	c2 08 00	 ret	 8
?GetRemoveItemPanya@CDbManager@@QAEKHH@Z ENDP		; CDbManager::GetRemoveItemPanya
_TEXT	ENDS
; Function compile flags: /Ogtp
; File C:\IAGOS\server\v18\Source\Source\_Database\DBConvertNew.cpp
; File C:\Program Files\Microsoft Visual Studio\2022\Professional\VC\Tools\MSVC\14.44.35207\include\xtree
; File C:\IAGOS\server\v18\Source\Source\_Database\DBConvertNew.cpp
; File C:\Program Files\Microsoft Visual Studio\2022\Professional\VC\Tools\MSVC\14.44.35207\include\xtree
; File C:\IAGOS\server\v18\Source\Source\_Database\DBConvertNew.cpp
; File C:\Program Files\Microsoft Visual Studio\2022\Professional\VC\Tools\MSVC\14.44.35207\include\xstring
; File C:\Program Files\Microsoft Visual Studio\2022\Professional\VC\Tools\MSVC\14.44.35207\include\xtree
; File C:\Program Files\Microsoft Visual Studio\2022\Professional\VC\Tools\MSVC\14.44.35207\include\xstring
; File C:\IAGOS\server\v18\Source\Source\_Database\DBConvertNew.cpp
; File C:\IAGOS\server\v18\Source\Source\_Common\Data.h
; File C:\IAGOS\server\v18\Source\Source\_Database\DBConvertNew.cpp
; File C:\Program Files\Microsoft Visual Studio\2022\Professional\VC\Tools\MSVC\14.44.35207\include\xstring
; File C:\IAGOS\server\v18\Source\Source\_Database\DBConvertNew.cpp
; File C:\Program Files\Microsoft Visual Studio\2022\Professional\VC\Tools\MSVC\14.44.35207\include\xstring
; File C:\IAGOS\server\v18\Source\Source\_Database\DBConvertNew.cpp
; File C:\Program Files\Microsoft Visual Studio\2022\Professional\VC\Tools\MSVC\14.44.35207\include\xstring
; File C:\IAGOS\server\v18\Source\Source\_Database\DBConvertNew.cpp
; File C:\IAGOS\server\v18\Source\Source\_Common\Data.h
; File C:\IAGOS\server\v18\Source\Source\_Database\DBConvertNew.cpp
; File C:\Program Files\Microsoft Visual Studio\2022\Professional\VC\Tools\MSVC\14.44.35207\include\xtree
; File C:\IAGOS\server\v18\Source\Source\_Database\DBConvertNew.cpp
;	COMDAT ?RemoveItemGuildBank@CDbManager@@QAEHHPAV?$CItemContainer@VCItemElem@@@@PAH1@Z
_TEXT	SEGMENT
_this$1$ = -24						; size = 4
_nSize$1$ = -20						; size = 4
_pItemProp$1$ = -16					; size = 4
_i$1$ = -12						; size = 4
_it$1$ = -8						; size = 4
_bResult$1$ = -4					; size = 4
_nGuildId$ = 8						; size = 4
_GuildBank$ = 12					; size = 4
_nCountItem0$ = 16					; size = 4
_nCountItem1$ = 20					; size = 4
?RemoveItemGuildBank@CDbManager@@QAEHHPAV?$CItemContainer@VCItemElem@@@@PAH1@Z PROC ; CDbManager::RemoveItemGuildBank, COMDAT
; _this$ = ecx

; 528  : {

  00000	55		 push	 ebp
  00001	8b ec		 mov	 ebp, esp
  00003	83 ec 18	 sub	 esp, 24			; 00000018H
  00006	8b c1		 mov	 eax, ecx
  00008	89 45 e8	 mov	 DWORD PTR _this$1$[ebp], eax
  0000b	56		 push	 esi
  0000c	57		 push	 edi
; File C:\Program Files\Microsoft Visual Studio\2022\Professional\VC\Tools\MSVC\14.44.35207\include\xtree

; 1142 :         return iterator(_Scary->_Myhead->_Left, _Scary);

  0000d	8b 00		 mov	 eax, DWORD PTR [eax]
; File C:\IAGOS\server\v18\Source\Source\_Database\DBConvertNew.cpp

; 529  : 	BOOL bResult = FALSE;

  0000f	33 ff		 xor	 edi, edi
  00011	89 7d fc	 mov	 DWORD PTR _bResult$1$[ebp], edi
; File C:\Program Files\Microsoft Visual Studio\2022\Professional\VC\Tools\MSVC\14.44.35207\include\xtree

; 37   :     _Tree_unchecked_const_iterator(_Nodeptr _Pnode, const _Mytree* _Plist) noexcept : _Ptr(_Pnode) {

  00014	8b 30		 mov	 esi, DWORD PTR [eax]
  00016	89 75 f8	 mov	 DWORD PTR _it$1$[ebp], esi

; 237  :         return !(*this == _Right);

  00019	3b f0		 cmp	 esi, eax
; File C:\IAGOS\server\v18\Source\Source\_Database\DBConvertNew.cpp

; 531  : 	for( it = m_RemoveItem_List.begin() ; it != m_RemoveItem_List.end() ; ++it )

  0001b	0f 84 7e 01 00
	00		 je	 $LN151@RemoveItem
  00021	53		 push	 ebx
$LL4@RemoveItem:
; File C:\Program Files\Microsoft Visual Studio\2022\Professional\VC\Tools\MSVC\14.44.35207\include\xstring

; 453  :         return _Myres > _Small_string_capacity;

  00022	83 7e 24 0f	 cmp	 DWORD PTR [esi+36], 15	; 0000000fH
; File C:\Program Files\Microsoft Visual Studio\2022\Professional\VC\Tools\MSVC\14.44.35207\include\xtree

; 185  :         return this->_Ptr->_Myval;

  00026	8d 5e 10	 lea	 ebx, DWORD PTR [esi+16]
; File C:\Program Files\Microsoft Visual Studio\2022\Professional\VC\Tools\MSVC\14.44.35207\include\xstring

; 444  :         const value_type* _Result = _Bx._Buf;

  00029	8b c3		 mov	 eax, ebx

; 445  :         if (_Large_mode_engaged()) {

  0002b	76 02		 jbe	 SHORT $LN62@RemoveItem

; 446  :             _Result = _Unfancy(_Bx._Ptr);

  0002d	8b 03		 mov	 eax, DWORD PTR [ebx]
$LN62@RemoveItem:
; File C:\IAGOS\server\v18\Source\Source\_Database\DBConvertNew.cpp

; 534  : 		pItemProp = prj.GetItemProp( it->data() );

  0002f	50		 push	 eax
  00030	b9 00 00 00 00	 mov	 ecx, OFFSET ?prj@@3VCProject@@A ; prj
  00035	e8 00 00 00 00	 call	 ?GetItemProp@CProject@@QAEPAUItemProp@@PBD@Z ; CProject::GetItemProp
  0003a	89 45 f0	 mov	 DWORD PTR _pItemProp$1$[ebp], eax

; 535  : 		if( pItemProp )

  0003d	85 c0		 test	 eax, eax
  0003f	0f 84 08 01 00
	00		 je	 $LN2@RemoveItem

; 536  : 		{
; 537  : 			int	nSize	= GuildBank->m_dwItemMax;

  00045	8b 4d 0c	 mov	 ecx, DWORD PTR _GuildBank$[ebp]
  00048	c7 45 f4 00 00
	00 00		 mov	 DWORD PTR _i$1$[ebp], 0
  0004f	8b 41 10	 mov	 eax, DWORD PTR [ecx+16]
  00052	89 45 ec	 mov	 DWORD PTR _nSize$1$[ebp], eax

; 539  : 			for( int i = 0 ; i < nSize; i++ )

  00055	85 c0		 test	 eax, eax
  00057	0f 8e f0 00 00
	00		 jle	 $LN2@RemoveItem
  0005d	8b 75 f4	 mov	 esi, DWORD PTR _i$1$[ebp]
$LL7@RemoveItem:

; 540  : 			{
; 541  : 				pItemElem	= GuildBank->GetAtId( i );

  00060	56		 push	 esi
  00061	e8 00 00 00 00	 call	 ?GetAtId@?$CItemContainer@VCItemElem@@@@QAEPAVCItemElem@@K@Z ; CItemContainer<CItemElem>::GetAtId
  00066	8b f8		 mov	 edi, eax

; 542  : 				if( pItemElem )

  00068	85 ff		 test	 edi, edi
  0006a	0f 84 ca 00 00
	00		 je	 $LN156@RemoveItem

; 543  : 				{
; 544  : 					ItemProp* pGetItemProp		= prj.GetItemProp( pItemElem->m_dwItemId );	

  00070	8b 4f 08	 mov	 ecx, DWORD PTR [edi+8]
; File C:\IAGOS\server\v18\Source\Source\_Common\Data.h

; 270  : 	if( dwIndex >= (DWORD)m_nMaxIndex )

  00073	3b 0d 4c 00 00
	00		 cmp	 ecx, DWORD PTR ?prj@@3VCProject@@A+76
  00079	0f 83 bb 00 00
	00		 jae	 $LN156@RemoveItem

; 271  : 		return NULL;
; 272  : 	return (T*) m_apOffset[ dwIndex ];

  0007f	a1 3c 00 00 00	 mov	 eax, DWORD PTR ?prj@@3VCProject@@A+60
  00084	8b 04 88	 mov	 eax, DWORD PTR [eax+ecx*4]
; File C:\IAGOS\server\v18\Source\Source\_Database\DBConvertNew.cpp

; 545  : 					if( pGetItemProp && pGetItemProp->dwID == pItemProp->dwID )

  00087	85 c0		 test	 eax, eax
  00089	0f 84 ab 00 00
	00		 je	 $LN156@RemoveItem
  0008f	8b 4d f0	 mov	 ecx, DWORD PTR _pItemProp$1$[ebp]
  00092	8b 00		 mov	 eax, DWORD PTR [eax]
  00094	3b 01		 cmp	 eax, DWORD PTR [ecx]
  00096	0f 85 9e 00 00
	00		 jne	 $LN156@RemoveItem

; 546  : 					{
; 547  : 						if( pItemElem->m_bItemResist || pItemElem->GetOption() || pItemElem->m_nResistAbilityOption )

  0009c	8a 47 70	 mov	 al, BYTE PTR [edi+112]
  0009f	84 c0		 test	 al, al
  000a1	75 0c		 jne	 SHORT $LN12@RemoveItem
  000a3	83 7f 5c 00	 cmp	 DWORD PTR [edi+92], 0
  000a7	75 06		 jne	 SHORT $LN12@RemoveItem
  000a9	83 7f 74 00	 cmp	 DWORD PTR [edi+116], 0
  000ad	74 2a		 je	 SHORT $LN11@RemoveItem
$LN12@RemoveItem:
; File C:\Program Files\Microsoft Visual Studio\2022\Professional\VC\Tools\MSVC\14.44.35207\include\xstring

; 453  :         return _Myres > _Small_string_capacity;

  000af	83 7b 14 0f	 cmp	 DWORD PTR [ebx+20], 15	; 0000000fH

; 444  :         const value_type* _Result = _Bx._Buf;

  000b3	8b cb		 mov	 ecx, ebx

; 445  :         if (_Large_mode_engaged()) {

  000b5	76 02		 jbe	 SHORT $LN149@RemoveItem

; 446  :             _Result = _Unfancy(_Bx._Ptr);

  000b7	8b 0b		 mov	 ecx, DWORD PTR [ebx]
$LN149@RemoveItem:
; File C:\IAGOS\server\v18\Source\Source\_Database\DBConvertNew.cpp

; 549  : 							FILEOUT( "..\\RemoveItem.log", "GuildId = %d, ItemName : %s %d/%d/%d", nGuildId,  it->data(), pItemElem->GetOption(), pItemElem->m_bItemResist, pItemElem->m_nResistAbilityOption );

  000b9	ff 77 74	 push	 DWORD PTR [edi+116]
  000bc	0f b6 c0	 movzx	 eax, al
  000bf	50		 push	 eax
  000c0	ff 77 5c	 push	 DWORD PTR [edi+92]
  000c3	51		 push	 ecx
  000c4	ff 75 08	 push	 DWORD PTR _nGuildId$[ebp]
  000c7	68 00 00 00 00	 push	 OFFSET ??_C@_0CF@GKENJFPN@GuildId?5?$DN?5?$CFd?0?5ItemName?5?3?5?$CFs?5?$CFd?1@
  000cc	68 00 00 00 00	 push	 OFFSET ??_C@_0BC@JBKLBMKC@?4?4?2RemoveItem?4log@
  000d1	e8 00 00 00 00	 call	 ?FILEOUT@@YAXPBD0ZZ	; FILEOUT
  000d6	83 c4 1c	 add	 esp, 28			; 0000001cH
$LN11@RemoveItem:

; 550  : 						}
; 551  : 						
; 552  : 						GuildBank->RemoveAtId( pItemElem->m_dwObjId );

  000d9	ff 77 04	 push	 DWORD PTR [edi+4]
  000dc	8b 4d 0c	 mov	 ecx, DWORD PTR _GuildBank$[ebp]
  000df	e8 00 00 00 00	 call	 ?RemoveAtId@?$CItemContainer@VCItemElem@@@@QAEXK@Z ; CItemContainer<CItemElem>::RemoveAtId

; 553  : 						if( prj.IsConvMode( REMOVE_ITEM_ALL_PAY ) )

  000e4	6a 08		 push	 8
  000e6	b9 00 00 00 00	 mov	 ecx, OFFSET ?prj@@3VCProject@@A ; prj
  000eb	e8 00 00 00 00	 call	 ?IsConvMode@CProject@@QAEHK@Z ; CProject::IsConvMode
  000f0	85 c0		 test	 eax, eax
  000f2	74 3c		 je	 SHORT $LN15@RemoveItem
; File C:\Program Files\Microsoft Visual Studio\2022\Professional\VC\Tools\MSVC\14.44.35207\include\xstring

; 453  :         return _Myres > _Small_string_capacity;

  000f4	83 7b 14 0f	 cmp	 DWORD PTR [ebx+20], 15	; 0000000fH

; 444  :         const value_type* _Result = _Bx._Buf;

  000f8	8b c3		 mov	 eax, ebx

; 445  :         if (_Large_mode_engaged()) {

  000fa	76 02		 jbe	 SHORT $LN150@RemoveItem

; 446  :             _Result = _Unfancy(_Bx._Ptr);

  000fc	8b 03		 mov	 eax, DWORD PTR [ebx]
$LN150@RemoveItem:
; File C:\IAGOS\server\v18\Source\Source\_Database\DBConvertNew.cpp

; 555  : 							if( lstrcmp( it->data(), "ĂµżîŔÇ ˝şĹÂÇÁ" ) == 0 )

  000fe	8b 3d 00 00 00
	00		 mov	 edi, DWORD PTR __imp__lstrcmpA@8
  00104	68 00 00 00 00	 push	 OFFSET ??_C@_0O@EFMGLFAG@?C?$LF?$LP?n?$MA?G?5?$LN?$LK?E?B?G?A@
  00109	50		 push	 eax
  0010a	ff d7		 call	 edi
  0010c	85 c0		 test	 eax, eax
  0010e	75 05		 jne	 SHORT $LN14@RemoveItem

; 556  : 								(*nCountItem0)++;

  00110	8b 45 10	 mov	 eax, DWORD PTR _nCountItem0$[ebp]
  00113	ff 00		 inc	 DWORD PTR [eax]
$LN14@RemoveItem:
; File C:\Program Files\Microsoft Visual Studio\2022\Professional\VC\Tools\MSVC\14.44.35207\include\xstring

; 453  :         return _Myres > _Small_string_capacity;

  00115	83 7b 14 0f	 cmp	 DWORD PTR [ebx+20], 15	; 0000000fH

; 444  :         const value_type* _Result = _Bx._Buf;

  00119	8b c3		 mov	 eax, ebx

; 445  :         if (_Large_mode_engaged()) {

  0011b	76 02		 jbe	 SHORT $LN125@RemoveItem

; 446  :             _Result = _Unfancy(_Bx._Ptr);

  0011d	8b 03		 mov	 eax, DWORD PTR [ebx]
$LN125@RemoveItem:
; File C:\IAGOS\server\v18\Source\Source\_Database\DBConvertNew.cpp

; 557  : 							if( lstrcmp( it->data(), "ĆÄČ˛ŔÇ ˝şĹÂÇÁ" ) == 0 )

  0011f	68 00 00 00 00	 push	 OFFSET ??_C@_0O@IEHBFJPC@?F?D?H?$LC?$MA?G?5?$LN?$LK?E?B?G?A@
  00124	50		 push	 eax
  00125	ff d7		 call	 edi
  00127	85 c0		 test	 eax, eax
  00129	75 05		 jne	 SHORT $LN15@RemoveItem

; 558  : 								(*nCountItem1)++;

  0012b	8b 45 14	 mov	 eax, DWORD PTR _nCountItem1$[ebp]
  0012e	ff 00		 inc	 DWORD PTR [eax]
$LN15@RemoveItem:

; 559  : 						}
; 560  : //						FILEOUT( "..\\RemoveItem.log", "GuildId = %s, ItemName : %s", nGuildId,  it->data() );
; 561  : 						bResult = TRUE;

  00130	bf 01 00 00 00	 mov	 edi, 1
  00135	89 7d fc	 mov	 DWORD PTR _bResult$1$[ebp], edi
; File C:\IAGOS\server\v18\Source\Source\_Common\Data.h

; 270  : 	if( dwIndex >= (DWORD)m_nMaxIndex )

  00138	eb 03		 jmp	 SHORT $LN5@RemoveItem
$LN156@RemoveItem:
; File C:\IAGOS\server\v18\Source\Source\_Database\DBConvertNew.cpp

; 539  : 			for( int i = 0 ; i < nSize; i++ )

  0013a	8b 7d fc	 mov	 edi, DWORD PTR _bResult$1$[ebp]
$LN5@RemoveItem:
  0013d	8b 4d 0c	 mov	 ecx, DWORD PTR _GuildBank$[ebp]
  00140	46		 inc	 esi
  00141	3b 75 ec	 cmp	 esi, DWORD PTR _nSize$1$[ebp]
  00144	0f 8c 16 ff ff
	ff		 jl	 $LL7@RemoveItem
  0014a	8b 75 f8	 mov	 esi, DWORD PTR _it$1$[ebp]
$LN2@RemoveItem:
; File C:\Program Files\Microsoft Visual Studio\2022\Professional\VC\Tools\MSVC\14.44.35207\include\xtree

; 50   :         if (_Ptr->_Right->_Isnil) { // climb looking for right subtree

  0014d	8b 46 08	 mov	 eax, DWORD PTR [esi+8]
  00150	80 78 0d 00	 cmp	 BYTE PTR [eax+13], 0
  00154	74 21		 je	 SHORT $LN38@RemoveItem

; 51   :             _Nodeptr _Pnode;
; 52   :             while (!(_Pnode = _Ptr->_Parent)->_Isnil && _Ptr == _Pnode->_Right) {

  00156	8b 46 04	 mov	 eax, DWORD PTR [esi+4]
  00159	80 78 0d 00	 cmp	 BYTE PTR [eax+13], 0
  0015d	75 11		 jne	 SHORT $LN152@RemoveItem
  0015f	90		 npad	 1
$LL36@RemoveItem:
  00160	3b 70 08	 cmp	 esi, DWORD PTR [eax+8]
  00163	75 0b		 jne	 SHORT $LN152@RemoveItem

; 53   :                 _Ptr = _Pnode; // ==> parent while right subtree

  00165	8b f0		 mov	 esi, eax
  00167	8b 40 04	 mov	 eax, DWORD PTR [eax+4]
  0016a	80 78 0d 00	 cmp	 BYTE PTR [eax+13], 0
  0016e	74 f0		 je	 SHORT $LL36@RemoveItem
$LN152@RemoveItem:

; 54   :             }
; 55   : 
; 56   :             _Ptr = _Pnode; // ==> parent (head if end())

  00170	8b f0		 mov	 esi, eax
  00172	89 75 f8	 mov	 DWORD PTR _it$1$[ebp], esi

; 57   :         } else {

  00175	eb 1c		 jmp	 SHORT $LN44@RemoveItem
$LN38@RemoveItem:

; 58   :             _Ptr = _Mytree::_Min(_Ptr->_Right); // ==> smallest of right subtree

  00177	8b f0		 mov	 esi, eax
  00179	89 75 f8	 mov	 DWORD PTR _it$1$[ebp], esi

; 476  :         while (!_Pnode->_Left->_Isnil) {

  0017c	8b 0e		 mov	 ecx, DWORD PTR [esi]
  0017e	80 79 0d 00	 cmp	 BYTE PTR [ecx+13], 0
  00182	75 0f		 jne	 SHORT $LN44@RemoveItem
$LL43@RemoveItem:
  00184	8b 01		 mov	 eax, DWORD PTR [ecx]

; 477  :             _Pnode = _Pnode->_Left;

  00186	8b f1		 mov	 esi, ecx
  00188	89 75 f8	 mov	 DWORD PTR _it$1$[ebp], esi
  0018b	8b c8		 mov	 ecx, eax
  0018d	80 78 0d 00	 cmp	 BYTE PTR [eax+13], 0
  00191	74 f1		 je	 SHORT $LL43@RemoveItem
$LN44@RemoveItem:

; 237  :         return !(*this == _Right);

  00193	8b 45 e8	 mov	 eax, DWORD PTR _this$1$[ebp]
  00196	3b 30		 cmp	 esi, DWORD PTR [eax]
; File C:\IAGOS\server\v18\Source\Source\_Database\DBConvertNew.cpp

; 531  : 	for( it = m_RemoveItem_List.begin() ; it != m_RemoveItem_List.end() ; ++it )

  00198	0f 85 84 fe ff
	ff		 jne	 $LL4@RemoveItem
  0019e	5b		 pop	 ebx
$LN151@RemoveItem:

; 562  : 					}
; 563  : 				}
; 564  : 			}		
; 565  : 		}
; 566  : 	}
; 567  : 	return bResult;
; 568  : }

  0019f	8b c7		 mov	 eax, edi
  001a1	5f		 pop	 edi
  001a2	5e		 pop	 esi
  001a3	8b e5		 mov	 esp, ebp
  001a5	5d		 pop	 ebp
  001a6	c2 10 00	 ret	 16			; 00000010H
?RemoveItemGuildBank@CDbManager@@QAEHHPAV?$CItemContainer@VCItemElem@@@@PAH1@Z ENDP ; CDbManager::RemoveItemGuildBank
_TEXT	ENDS
; Function compile flags: /Ogtp
; File C:\IAGOS\server\v18\Source\Source\_Database\DBConvertNew.cpp
; File C:\Program Files\Microsoft Visual Studio\2022\Professional\VC\Tools\MSVC\14.44.35207\include\xtree
; File C:\IAGOS\server\v18\Source\Source\_Database\DBConvertNew.cpp
; File C:\Program Files\Microsoft Visual Studio\2022\Professional\VC\Tools\MSVC\14.44.35207\include\xtree
; File C:\IAGOS\server\v18\Source\Source\_Database\DBConvertNew.cpp
; File C:\Program Files\Microsoft Visual Studio\2022\Professional\VC\Tools\MSVC\14.44.35207\include\xstring
; File C:\Program Files\Microsoft Visual Studio\2022\Professional\VC\Tools\MSVC\14.44.35207\include\xtree
; File C:\Program Files\Microsoft Visual Studio\2022\Professional\VC\Tools\MSVC\14.44.35207\include\xstring
; File C:\IAGOS\server\v18\Source\Source\_Database\DBConvertNew.cpp
; File C:\IAGOS\server\v18\Source\Source\_Common\Data.h
; File C:\IAGOS\server\v18\Source\Source\_Database\DBConvertNew.cpp
; File C:\Program Files\Microsoft Visual Studio\2022\Professional\VC\Tools\MSVC\14.44.35207\include\xstring
; File C:\IAGOS\server\v18\Source\Source\_Database\DBConvertNew.cpp
; File C:\Program Files\Microsoft Visual Studio\2022\Professional\VC\Tools\MSVC\14.44.35207\include\xstring
; File C:\IAGOS\server\v18\Source\Source\_Database\DBConvertNew.cpp
; File C:\Program Files\Microsoft Visual Studio\2022\Professional\VC\Tools\MSVC\14.44.35207\include\xstring
; File C:\IAGOS\server\v18\Source\Source\_Database\DBConvertNew.cpp
; File C:\IAGOS\server\v18\Source\Source\_Common\Data.h
; File C:\IAGOS\server\v18\Source\Source\_Database\DBConvertNew.cpp
; File C:\Program Files\Microsoft Visual Studio\2022\Professional\VC\Tools\MSVC\14.44.35207\include\xstring
; File C:\IAGOS\server\v18\Source\Source\_Database\DBConvertNew.cpp
; File C:\Program Files\Microsoft Visual Studio\2022\Professional\VC\Tools\MSVC\14.44.35207\include\xstring
; File C:\IAGOS\server\v18\Source\Source\_Database\DBConvertNew.cpp
; File C:\Program Files\Microsoft Visual Studio\2022\Professional\VC\Tools\MSVC\14.44.35207\include\xstring
; File C:\IAGOS\server\v18\Source\Source\_Database\DBConvertNew.cpp
; File C:\Program Files\Microsoft Visual Studio\2022\Professional\VC\Tools\MSVC\14.44.35207\include\xtree
; File C:\IAGOS\server\v18\Source\Source\_Database\DBConvertNew.cpp
;	COMDAT ?RemoveItemInvenBank@CDbManager@@QAEHPAVCMover@@PAH1@Z
_TEXT	SEGMENT
_this$1$ = -28						; size = 4
_nSize$1$ = -24						; size = 4
_i$1$ = -24						; size = 4
_nSize$2$ = -20						; size = 4
_i$1$ = -20						; size = 4
_pItemProp$1$ = -16					; size = 4
tv977 = -12						; size = 4
tv980 = -12						; size = 4
_bResult$1$ = -8					; size = 4
_it$1$ = -4						; size = 4
_pMover$ = 8						; size = 4
_nCountItem0$ = 12					; size = 4
_nCountItem1$ = 16					; size = 4
?RemoveItemInvenBank@CDbManager@@QAEHPAVCMover@@PAH1@Z PROC ; CDbManager::RemoveItemInvenBank, COMDAT
; _this$ = ecx

; 456  : {

  00000	55		 push	 ebp
  00001	8b ec		 mov	 ebp, esp
  00003	83 ec 1c	 sub	 esp, 28			; 0000001cH
  00006	8b c1		 mov	 eax, ecx
  00008	89 45 e4	 mov	 DWORD PTR _this$1$[ebp], eax
  0000b	53		 push	 ebx
  0000c	56		 push	 esi
; File C:\Program Files\Microsoft Visual Studio\2022\Professional\VC\Tools\MSVC\14.44.35207\include\xtree

; 1142 :         return iterator(_Scary->_Myhead->_Left, _Scary);

  0000d	8b 00		 mov	 eax, DWORD PTR [eax]
; File C:\IAGOS\server\v18\Source\Source\_Database\DBConvertNew.cpp

; 457  : 	BOOL bResult = FALSE;

  0000f	33 db		 xor	 ebx, ebx
  00011	89 5d f8	 mov	 DWORD PTR _bResult$1$[ebp], ebx
; File C:\Program Files\Microsoft Visual Studio\2022\Professional\VC\Tools\MSVC\14.44.35207\include\xtree

; 37   :     _Tree_unchecked_const_iterator(_Nodeptr _Pnode, const _Mytree* _Plist) noexcept : _Ptr(_Pnode) {

  00014	8b 30		 mov	 esi, DWORD PTR [eax]
  00016	89 75 fc	 mov	 DWORD PTR _it$1$[ebp], esi

; 237  :         return !(*this == _Right);

  00019	3b f0		 cmp	 esi, eax
; File C:\IAGOS\server\v18\Source\Source\_Database\DBConvertNew.cpp

; 459  : 	for( it = m_RemoveItem_List.begin() ; it != m_RemoveItem_List.end() ; ++it )

  0001b	0f 84 ba 02 00
	00		 je	 $LN222@RemoveItem
  00021	57		 push	 edi
$LL4@RemoveItem:
; File C:\Program Files\Microsoft Visual Studio\2022\Professional\VC\Tools\MSVC\14.44.35207\include\xstring

; 453  :         return _Myres > _Small_string_capacity;

  00022	83 7e 24 0f	 cmp	 DWORD PTR [esi+36], 15	; 0000000fH
; File C:\Program Files\Microsoft Visual Studio\2022\Professional\VC\Tools\MSVC\14.44.35207\include\xtree

; 185  :         return this->_Ptr->_Myval;

  00026	8d 7e 10	 lea	 edi, DWORD PTR [esi+16]
; File C:\Program Files\Microsoft Visual Studio\2022\Professional\VC\Tools\MSVC\14.44.35207\include\xstring

; 444  :         const value_type* _Result = _Bx._Buf;

  00029	8b c7		 mov	 eax, edi

; 445  :         if (_Large_mode_engaged()) {

  0002b	76 02		 jbe	 SHORT $LN93@RemoveItem

; 446  :             _Result = _Unfancy(_Bx._Ptr);

  0002d	8b 07		 mov	 eax, DWORD PTR [edi]
$LN93@RemoveItem:
; File C:\IAGOS\server\v18\Source\Source\_Database\DBConvertNew.cpp

; 463  : 		pItemProp = prj.GetItemProp( it->data() );

  0002f	50		 push	 eax
  00030	b9 00 00 00 00	 mov	 ecx, OFFSET ?prj@@3VCProject@@A ; prj
  00035	e8 00 00 00 00	 call	 ?GetItemProp@CProject@@QAEPAUItemProp@@PBD@Z ; CProject::GetItemProp
  0003a	89 45 f0	 mov	 DWORD PTR _pItemProp$1$[ebp], eax

; 464  : 		if( pItemProp )

  0003d	85 c0		 test	 eax, eax
  0003f	0f 84 3a 02 00
	00		 je	 $LN2@RemoveItem

; 465  : 		{
; 466  : 			int	nSize	= pMover->m_Inventory.m_dwItemMax;

  00045	8b 4d 08	 mov	 ecx, DWORD PTR _pMover$[ebp]
  00048	c7 45 ec 00 00
	00 00		 mov	 DWORD PTR _i$1$[ebp], 0
  0004f	8b 81 c4 3b 00
	00		 mov	 eax, DWORD PTR [ecx+15300]
  00055	89 45 e8	 mov	 DWORD PTR _nSize$1$[ebp], eax

; 467  : 			CItemElem* pItemElem;
; 468  : 			for( int i = 0 ; i < nSize; i++ )

  00058	85 c0		 test	 eax, eax
  0005a	0f 8e 02 01 00
	00		 jle	 $LN223@RemoveItem
  00060	8b 75 ec	 mov	 esi, DWORD PTR _i$1$[ebp]
  00063	8d 81 b4 3b 00
	00		 lea	 eax, DWORD PTR [ecx+15284]
  00069	89 45 f4	 mov	 DWORD PTR tv980[ebp], eax
  0006c	0f 1f 40 00	 npad	 4
$LL7@RemoveItem:

; 469  : 			{
; 470  : 				pItemElem	= pMover->m_Inventory.GetAtId( i );

  00070	56		 push	 esi
  00071	8b c8		 mov	 ecx, eax
  00073	e8 00 00 00 00	 call	 ?GetAtId@?$CItemContainer@VCItemElem@@@@QAEPAVCItemElem@@K@Z ; CItemContainer<CItemElem>::GetAtId
  00078	8b d8		 mov	 ebx, eax

; 471  : 				if( pItemElem )

  0007a	85 db		 test	 ebx, ebx
  0007c	0f 84 cd 00 00
	00		 je	 $LN5@RemoveItem

; 472  : 				{
; 473  : 					ItemProp* pGetItemProp		= prj.GetItemProp( pItemElem->m_dwItemId );	

  00082	8b 4b 08	 mov	 ecx, DWORD PTR [ebx+8]
; File C:\IAGOS\server\v18\Source\Source\_Common\Data.h

; 270  : 	if( dwIndex >= (DWORD)m_nMaxIndex )

  00085	3b 0d 4c 00 00
	00		 cmp	 ecx, DWORD PTR ?prj@@3VCProject@@A+76
  0008b	0f 83 be 00 00
	00		 jae	 $LN5@RemoveItem

; 271  : 		return NULL;
; 272  : 	return (T*) m_apOffset[ dwIndex ];

  00091	a1 3c 00 00 00	 mov	 eax, DWORD PTR ?prj@@3VCProject@@A+60
  00096	8b 04 88	 mov	 eax, DWORD PTR [eax+ecx*4]
; File C:\IAGOS\server\v18\Source\Source\_Database\DBConvertNew.cpp

; 474  : 					if( pGetItemProp && pGetItemProp->dwID == pItemProp->dwID )

  00099	85 c0		 test	 eax, eax
  0009b	0f 84 ae 00 00
	00		 je	 $LN5@RemoveItem
  000a1	8b 4d f0	 mov	 ecx, DWORD PTR _pItemProp$1$[ebp]
  000a4	8b 00		 mov	 eax, DWORD PTR [eax]
  000a6	3b 01		 cmp	 eax, DWORD PTR [ecx]
  000a8	0f 85 a1 00 00
	00		 jne	 $LN5@RemoveItem

; 475  : 					{
; 476  : 						if( pItemElem->m_bItemResist || pItemElem->GetOption() || pItemElem->m_nResistAbilityOption )

  000ae	8a 43 70	 mov	 al, BYTE PTR [ebx+112]
  000b1	84 c0		 test	 al, al
  000b3	75 0c		 jne	 SHORT $LN15@RemoveItem
  000b5	83 7b 5c 00	 cmp	 DWORD PTR [ebx+92], 0
  000b9	75 06		 jne	 SHORT $LN15@RemoveItem
  000bb	83 7b 74 00	 cmp	 DWORD PTR [ebx+116], 0
  000bf	74 30		 je	 SHORT $LN14@RemoveItem
$LN15@RemoveItem:
; File C:\Program Files\Microsoft Visual Studio\2022\Professional\VC\Tools\MSVC\14.44.35207\include\xstring

; 453  :         return _Myres > _Small_string_capacity;

  000c1	83 7f 14 0f	 cmp	 DWORD PTR [edi+20], 15	; 0000000fH

; 444  :         const value_type* _Result = _Bx._Buf;

  000c5	8b cf		 mov	 ecx, edi

; 445  :         if (_Large_mode_engaged()) {

  000c7	76 02		 jbe	 SHORT $LN218@RemoveItem

; 446  :             _Result = _Unfancy(_Bx._Ptr);

  000c9	8b 0f		 mov	 ecx, DWORD PTR [edi]
$LN218@RemoveItem:
; File C:\IAGOS\server\v18\Source\Source\_Database\DBConvertNew.cpp

; 478  : 							FILEOUT( "..\\RemoveItem.log", "IdPlayer = %07d, ItemName : %s %d/%d/%d", pMover->m_idPlayer,  it->data(), pItemElem->GetOption(), pItemElem->m_bItemResist, pItemElem->m_nResistAbilityOption );

  000cb	ff 73 74	 push	 DWORD PTR [ebx+116]
  000ce	0f b6 c0	 movzx	 eax, al
  000d1	50		 push	 eax
  000d2	ff 73 5c	 push	 DWORD PTR [ebx+92]
  000d5	8b 45 08	 mov	 eax, DWORD PTR _pMover$[ebp]
  000d8	51		 push	 ecx
  000d9	ff b0 90 00 00
	00		 push	 DWORD PTR [eax+144]
  000df	68 00 00 00 00	 push	 OFFSET ??_C@_0CI@EEOAJLHJ@IdPlayer?5?$DN?5?$CF07d?0?5ItemName?5?3?5?$CFs?5@
  000e4	68 00 00 00 00	 push	 OFFSET ??_C@_0BC@JBKLBMKC@?4?4?2RemoveItem?4log@
  000e9	e8 00 00 00 00	 call	 ?FILEOUT@@YAXPBD0ZZ	; FILEOUT
  000ee	83 c4 1c	 add	 esp, 28			; 0000001cH
$LN14@RemoveItem:

; 479  : 						}
; 480  : 						pMover->m_Inventory.RemoveAtId( pItemElem->m_dwObjId );

  000f1	ff 73 04	 push	 DWORD PTR [ebx+4]
  000f4	8b 4d f4	 mov	 ecx, DWORD PTR tv980[ebp]
  000f7	e8 00 00 00 00	 call	 ?RemoveAtId@?$CItemContainer@VCItemElem@@@@QAEXK@Z ; CItemContainer<CItemElem>::RemoveAtId

; 481  : 						if( prj.IsConvMode( REMOVE_ITEM_ALL_PAY ) )

  000fc	6a 08		 push	 8
  000fe	b9 00 00 00 00	 mov	 ecx, OFFSET ?prj@@3VCProject@@A ; prj
  00103	e8 00 00 00 00	 call	 ?IsConvMode@CProject@@QAEHK@Z ; CProject::IsConvMode
  00108	85 c0		 test	 eax, eax
  0010a	74 3c		 je	 SHORT $LN18@RemoveItem
; File C:\Program Files\Microsoft Visual Studio\2022\Professional\VC\Tools\MSVC\14.44.35207\include\xstring

; 453  :         return _Myres > _Small_string_capacity;

  0010c	83 7f 14 0f	 cmp	 DWORD PTR [edi+20], 15	; 0000000fH

; 444  :         const value_type* _Result = _Bx._Buf;

  00110	8b c7		 mov	 eax, edi

; 445  :         if (_Large_mode_engaged()) {

  00112	76 02		 jbe	 SHORT $LN219@RemoveItem

; 446  :             _Result = _Unfancy(_Bx._Ptr);

  00114	8b 07		 mov	 eax, DWORD PTR [edi]
$LN219@RemoveItem:
; File C:\IAGOS\server\v18\Source\Source\_Database\DBConvertNew.cpp

; 483  : 							if( lstrcmp( it->data(), "ĂµżîŔÇ ˝şĹÂÇÁ" ) == 0 )

  00116	8b 1d 00 00 00
	00		 mov	 ebx, DWORD PTR __imp__lstrcmpA@8
  0011c	68 00 00 00 00	 push	 OFFSET ??_C@_0O@EFMGLFAG@?C?$LF?$LP?n?$MA?G?5?$LN?$LK?E?B?G?A@
  00121	50		 push	 eax
  00122	ff d3		 call	 ebx
  00124	85 c0		 test	 eax, eax
  00126	75 05		 jne	 SHORT $LN17@RemoveItem

; 484  : 								(*nCountItem0)++;

  00128	8b 45 0c	 mov	 eax, DWORD PTR _nCountItem0$[ebp]
  0012b	ff 00		 inc	 DWORD PTR [eax]
$LN17@RemoveItem:
; File C:\Program Files\Microsoft Visual Studio\2022\Professional\VC\Tools\MSVC\14.44.35207\include\xstring

; 453  :         return _Myres > _Small_string_capacity;

  0012d	83 7f 14 0f	 cmp	 DWORD PTR [edi+20], 15	; 0000000fH

; 444  :         const value_type* _Result = _Bx._Buf;

  00131	8b c7		 mov	 eax, edi

; 445  :         if (_Large_mode_engaged()) {

  00133	76 02		 jbe	 SHORT $LN188@RemoveItem

; 446  :             _Result = _Unfancy(_Bx._Ptr);

  00135	8b 07		 mov	 eax, DWORD PTR [edi]
$LN188@RemoveItem:
; File C:\IAGOS\server\v18\Source\Source\_Database\DBConvertNew.cpp

; 485  : 							if( lstrcmp( it->data(), "ĆÄČ˛ŔÇ ˝şĹÂÇÁ" ) == 0 )

  00137	68 00 00 00 00	 push	 OFFSET ??_C@_0O@IEHBFJPC@?F?D?H?$LC?$MA?G?5?$LN?$LK?E?B?G?A@
  0013c	50		 push	 eax
  0013d	ff d3		 call	 ebx
  0013f	85 c0		 test	 eax, eax
  00141	75 05		 jne	 SHORT $LN18@RemoveItem

; 486  : 								(*nCountItem1)++;

  00143	8b 45 10	 mov	 eax, DWORD PTR _nCountItem1$[ebp]
  00146	ff 00		 inc	 DWORD PTR [eax]
$LN18@RemoveItem:

; 487  : 						}
; 488  : //						FILEOUT( "..\\RemoveItem.log", "PlayerName = %s, ItemName : %s", pMover->m_szName,  it->data() );
; 489  : 						bResult = TRUE;

  00148	c7 45 f8 01 00
	00 00		 mov	 DWORD PTR _bResult$1$[ebp], 1
$LN5@RemoveItem:

; 467  : 			CItemElem* pItemElem;
; 468  : 			for( int i = 0 ; i < nSize; i++ )

  0014f	8b 45 f4	 mov	 eax, DWORD PTR tv980[ebp]
  00152	46		 inc	 esi
  00153	3b 75 e8	 cmp	 esi, DWORD PTR _nSize$1$[ebp]
  00156	0f 8c 14 ff ff
	ff		 jl	 $LL7@RemoveItem
  0015c	8b 75 fc	 mov	 esi, DWORD PTR _it$1$[ebp]
  0015f	8b 4d 08	 mov	 ecx, DWORD PTR _pMover$[ebp]
$LN223@RemoveItem:

; 490  : 					}
; 491  : 				}
; 492  : 			}
; 493  : 
; 494  : 			// Bank
; 495  : 			nSize	= pMover->m_Bank[0].m_dwItemMax;

  00162	8b 81 f4 3b 00
	00		 mov	 eax, DWORD PTR [ecx+15348]
  00168	89 45 ec	 mov	 DWORD PTR _nSize$2$[ebp], eax
  0016b	c7 45 e8 00 00
	00 00		 mov	 DWORD PTR _i$1$[ebp], 0

; 496  : 			for( int i = 0 ; i < nSize; i++ )

  00172	85 c0		 test	 eax, eax
  00174	0f 8e 05 01 00
	00		 jle	 $LN2@RemoveItem
  0017a	8d 81 e4 3b 00
	00		 lea	 eax, DWORD PTR [ecx+15332]
  00180	8d 5e 10	 lea	 ebx, DWORD PTR [esi+16]
  00183	89 45 f4	 mov	 DWORD PTR tv977[ebp], eax
  00186	8b 75 e8	 mov	 esi, DWORD PTR _i$1$[ebp]
  00189	0f 1f 80 00 00
	00 00		 npad	 7
$LL10@RemoveItem:

; 497  : 			{
; 498  : 				pItemElem	= pMover->m_Bank[0].GetAtId( i );

  00190	56		 push	 esi
  00191	8b c8		 mov	 ecx, eax
  00193	e8 00 00 00 00	 call	 ?GetAtId@?$CItemContainer@VCItemElem@@@@QAEPAVCItemElem@@K@Z ; CItemContainer<CItemElem>::GetAtId
  00198	8b f8		 mov	 edi, eax

; 499  : 				if( pItemElem )

  0019a	85 ff		 test	 edi, edi
  0019c	0f 84 cd 00 00
	00		 je	 $LN8@RemoveItem

; 500  : 				{
; 501  : 					ItemProp* pGetItemProp		= prj.GetItemProp( pItemElem->m_dwItemId );	

  001a2	8b 4f 08	 mov	 ecx, DWORD PTR [edi+8]
; File C:\IAGOS\server\v18\Source\Source\_Common\Data.h

; 270  : 	if( dwIndex >= (DWORD)m_nMaxIndex )

  001a5	3b 0d 4c 00 00
	00		 cmp	 ecx, DWORD PTR ?prj@@3VCProject@@A+76
  001ab	0f 83 be 00 00
	00		 jae	 $LN8@RemoveItem

; 271  : 		return NULL;
; 272  : 	return (T*) m_apOffset[ dwIndex ];

  001b1	a1 3c 00 00 00	 mov	 eax, DWORD PTR ?prj@@3VCProject@@A+60
  001b6	8b 04 88	 mov	 eax, DWORD PTR [eax+ecx*4]
; File C:\IAGOS\server\v18\Source\Source\_Database\DBConvertNew.cpp

; 502  : 					if( pGetItemProp && pGetItemProp->dwID == pItemProp->dwID )

  001b9	85 c0		 test	 eax, eax
  001bb	0f 84 ae 00 00
	00		 je	 $LN8@RemoveItem
  001c1	8b 4d f0	 mov	 ecx, DWORD PTR _pItemProp$1$[ebp]
  001c4	8b 00		 mov	 eax, DWORD PTR [eax]
  001c6	3b 01		 cmp	 eax, DWORD PTR [ecx]
  001c8	0f 85 a1 00 00
	00		 jne	 $LN8@RemoveItem

; 503  : 					{
; 504  : 						if( pItemElem->m_bItemResist || pItemElem->GetOption() || pItemElem->m_nResistAbilityOption )

  001ce	8a 47 70	 mov	 al, BYTE PTR [edi+112]
  001d1	84 c0		 test	 al, al
  001d3	75 0c		 jne	 SHORT $LN22@RemoveItem
  001d5	83 7f 5c 00	 cmp	 DWORD PTR [edi+92], 0
  001d9	75 06		 jne	 SHORT $LN22@RemoveItem
  001db	83 7f 74 00	 cmp	 DWORD PTR [edi+116], 0
  001df	74 30		 je	 SHORT $LN21@RemoveItem
$LN22@RemoveItem:
; File C:\Program Files\Microsoft Visual Studio\2022\Professional\VC\Tools\MSVC\14.44.35207\include\xstring

; 453  :         return _Myres > _Small_string_capacity;

  001e1	83 7b 14 0f	 cmp	 DWORD PTR [ebx+20], 15	; 0000000fH

; 444  :         const value_type* _Result = _Bx._Buf;

  001e5	8b cb		 mov	 ecx, ebx

; 445  :         if (_Large_mode_engaged()) {

  001e7	76 02		 jbe	 SHORT $LN220@RemoveItem

; 446  :             _Result = _Unfancy(_Bx._Ptr);

  001e9	8b 0b		 mov	 ecx, DWORD PTR [ebx]
$LN220@RemoveItem:
; File C:\IAGOS\server\v18\Source\Source\_Database\DBConvertNew.cpp

; 506  : 							FILEOUT( "..\\RemoveItem.log", "IdPlayer = %07d, ItemName : %s %d/%d/%d", pMover->m_idPlayer,  it->data(), pItemElem->GetOption(), pItemElem->m_bItemResist, pItemElem->m_nResistAbilityOption );

  001eb	ff 77 74	 push	 DWORD PTR [edi+116]
  001ee	0f b6 c0	 movzx	 eax, al
  001f1	50		 push	 eax
  001f2	ff 77 5c	 push	 DWORD PTR [edi+92]
  001f5	8b 45 08	 mov	 eax, DWORD PTR _pMover$[ebp]
  001f8	51		 push	 ecx
  001f9	ff b0 90 00 00
	00		 push	 DWORD PTR [eax+144]
  001ff	68 00 00 00 00	 push	 OFFSET ??_C@_0CI@EEOAJLHJ@IdPlayer?5?$DN?5?$CF07d?0?5ItemName?5?3?5?$CFs?5@
  00204	68 00 00 00 00	 push	 OFFSET ??_C@_0BC@JBKLBMKC@?4?4?2RemoveItem?4log@
  00209	e8 00 00 00 00	 call	 ?FILEOUT@@YAXPBD0ZZ	; FILEOUT
  0020e	83 c4 1c	 add	 esp, 28			; 0000001cH
$LN21@RemoveItem:

; 507  : 						}
; 508  : 
; 509  : 						pMover->m_Bank[0].RemoveAtId( pItemElem->m_dwObjId );

  00211	ff 77 04	 push	 DWORD PTR [edi+4]
  00214	8b 4d f4	 mov	 ecx, DWORD PTR tv977[ebp]
  00217	e8 00 00 00 00	 call	 ?RemoveAtId@?$CItemContainer@VCItemElem@@@@QAEXK@Z ; CItemContainer<CItemElem>::RemoveAtId

; 510  : 						if( prj.IsConvMode( REMOVE_ITEM_ALL_PAY ) )

  0021c	6a 08		 push	 8
  0021e	b9 00 00 00 00	 mov	 ecx, OFFSET ?prj@@3VCProject@@A ; prj
  00223	e8 00 00 00 00	 call	 ?IsConvMode@CProject@@QAEHK@Z ; CProject::IsConvMode
  00228	85 c0		 test	 eax, eax
  0022a	74 3c		 je	 SHORT $LN25@RemoveItem
; File C:\Program Files\Microsoft Visual Studio\2022\Professional\VC\Tools\MSVC\14.44.35207\include\xstring

; 453  :         return _Myres > _Small_string_capacity;

  0022c	83 7b 14 0f	 cmp	 DWORD PTR [ebx+20], 15	; 0000000fH

; 444  :         const value_type* _Result = _Bx._Buf;

  00230	8b c3		 mov	 eax, ebx

; 445  :         if (_Large_mode_engaged()) {

  00232	76 02		 jbe	 SHORT $LN221@RemoveItem

; 446  :             _Result = _Unfancy(_Bx._Ptr);

  00234	8b 03		 mov	 eax, DWORD PTR [ebx]
$LN221@RemoveItem:
; File C:\IAGOS\server\v18\Source\Source\_Database\DBConvertNew.cpp

; 512  : 							if( lstrcmp( it->data(), "ĂµżîŔÇ ˝şĹÂÇÁ" ) == 0 )

  00236	8b 3d 00 00 00
	00		 mov	 edi, DWORD PTR __imp__lstrcmpA@8
  0023c	68 00 00 00 00	 push	 OFFSET ??_C@_0O@EFMGLFAG@?C?$LF?$LP?n?$MA?G?5?$LN?$LK?E?B?G?A@
  00241	50		 push	 eax
  00242	ff d7		 call	 edi
  00244	85 c0		 test	 eax, eax
  00246	75 05		 jne	 SHORT $LN24@RemoveItem

; 513  : 								(*nCountItem0)++;

  00248	8b 45 0c	 mov	 eax, DWORD PTR _nCountItem0$[ebp]
  0024b	ff 00		 inc	 DWORD PTR [eax]
$LN24@RemoveItem:
; File C:\Program Files\Microsoft Visual Studio\2022\Professional\VC\Tools\MSVC\14.44.35207\include\xstring

; 453  :         return _Myres > _Small_string_capacity;

  0024d	83 7b 14 0f	 cmp	 DWORD PTR [ebx+20], 15	; 0000000fH

; 444  :         const value_type* _Result = _Bx._Buf;

  00251	8b c3		 mov	 eax, ebx

; 445  :         if (_Large_mode_engaged()) {

  00253	76 02		 jbe	 SHORT $LN125@RemoveItem

; 446  :             _Result = _Unfancy(_Bx._Ptr);

  00255	8b 03		 mov	 eax, DWORD PTR [ebx]
$LN125@RemoveItem:
; File C:\IAGOS\server\v18\Source\Source\_Database\DBConvertNew.cpp

; 514  : 							if( lstrcmp( it->data(), "ĆÄČ˛ŔÇ ˝şĹÂÇÁ" ) == 0 )

  00257	68 00 00 00 00	 push	 OFFSET ??_C@_0O@IEHBFJPC@?F?D?H?$LC?$MA?G?5?$LN?$LK?E?B?G?A@
  0025c	50		 push	 eax
  0025d	ff d7		 call	 edi
  0025f	85 c0		 test	 eax, eax
  00261	75 05		 jne	 SHORT $LN25@RemoveItem

; 515  : 								(*nCountItem1)++;

  00263	8b 45 10	 mov	 eax, DWORD PTR _nCountItem1$[ebp]
  00266	ff 00		 inc	 DWORD PTR [eax]
$LN25@RemoveItem:

; 516  : 						}
; 517  : //						FILEOUT( "..\\RemoveItem.log", "PlayerName = %s, ItemName : %s", pMover->m_szName,  it->data() );
; 518  : 						bResult = TRUE;

  00268	c7 45 f8 01 00
	00 00		 mov	 DWORD PTR _bResult$1$[ebp], 1
$LN8@RemoveItem:

; 496  : 			for( int i = 0 ; i < nSize; i++ )

  0026f	8b 45 f4	 mov	 eax, DWORD PTR tv977[ebp]
  00272	46		 inc	 esi
  00273	3b 75 ec	 cmp	 esi, DWORD PTR _nSize$2$[ebp]
  00276	0f 8c 14 ff ff
	ff		 jl	 $LL10@RemoveItem
  0027c	8b 75 fc	 mov	 esi, DWORD PTR _it$1$[ebp]
$LN2@RemoveItem:
; File C:\Program Files\Microsoft Visual Studio\2022\Professional\VC\Tools\MSVC\14.44.35207\include\xtree

; 50   :         if (_Ptr->_Right->_Isnil) { // climb looking for right subtree

  0027f	8b 46 08	 mov	 eax, DWORD PTR [esi+8]
  00282	80 78 0d 00	 cmp	 BYTE PTR [eax+13], 0
  00286	74 20		 je	 SHORT $LN48@RemoveItem

; 51   :             _Nodeptr _Pnode;
; 52   :             while (!(_Pnode = _Ptr->_Parent)->_Isnil && _Ptr == _Pnode->_Right) {

  00288	8b 46 04	 mov	 eax, DWORD PTR [esi+4]
  0028b	80 78 0d 00	 cmp	 BYTE PTR [eax+13], 0
  0028f	75 10		 jne	 SHORT $LN224@RemoveItem
$LL46@RemoveItem:
  00291	3b 70 08	 cmp	 esi, DWORD PTR [eax+8]
  00294	75 0b		 jne	 SHORT $LN224@RemoveItem

; 53   :                 _Ptr = _Pnode; // ==> parent while right subtree

  00296	8b f0		 mov	 esi, eax
  00298	8b 40 04	 mov	 eax, DWORD PTR [eax+4]
  0029b	80 78 0d 00	 cmp	 BYTE PTR [eax+13], 0
  0029f	74 f0		 je	 SHORT $LL46@RemoveItem
$LN224@RemoveItem:

; 54   :             }
; 55   : 
; 56   :             _Ptr = _Pnode; // ==> parent (head if end())

  002a1	8b f0		 mov	 esi, eax
  002a3	89 75 fc	 mov	 DWORD PTR _it$1$[ebp], esi

; 57   :         } else {

  002a6	eb 1c		 jmp	 SHORT $LN54@RemoveItem
$LN48@RemoveItem:

; 58   :             _Ptr = _Mytree::_Min(_Ptr->_Right); // ==> smallest of right subtree

  002a8	8b f0		 mov	 esi, eax
  002aa	89 75 fc	 mov	 DWORD PTR _it$1$[ebp], esi

; 476  :         while (!_Pnode->_Left->_Isnil) {

  002ad	8b 0e		 mov	 ecx, DWORD PTR [esi]
  002af	80 79 0d 00	 cmp	 BYTE PTR [ecx+13], 0
  002b3	75 0f		 jne	 SHORT $LN54@RemoveItem
$LL53@RemoveItem:
  002b5	8b 01		 mov	 eax, DWORD PTR [ecx]

; 477  :             _Pnode = _Pnode->_Left;

  002b7	8b f1		 mov	 esi, ecx
  002b9	89 75 fc	 mov	 DWORD PTR _it$1$[ebp], esi
  002bc	8b c8		 mov	 ecx, eax
  002be	80 78 0d 00	 cmp	 BYTE PTR [eax+13], 0
  002c2	74 f1		 je	 SHORT $LL53@RemoveItem
$LN54@RemoveItem:

; 237  :         return !(*this == _Right);

  002c4	8b 45 e4	 mov	 eax, DWORD PTR _this$1$[ebp]
  002c7	3b 30		 cmp	 esi, DWORD PTR [eax]
; File C:\IAGOS\server\v18\Source\Source\_Database\DBConvertNew.cpp

; 459  : 	for( it = m_RemoveItem_List.begin() ; it != m_RemoveItem_List.end() ; ++it )

  002c9	0f 85 53 fd ff
	ff		 jne	 $LL4@RemoveItem

; 519  : 					}
; 520  : 				}
; 521  : 			}
; 522  : 		}
; 523  : 	}
; 524  : 	return bResult;

  002cf	8b 45 f8	 mov	 eax, DWORD PTR _bResult$1$[ebp]
  002d2	5f		 pop	 edi
  002d3	5e		 pop	 esi

; 525  : }

  002d4	5b		 pop	 ebx
  002d5	8b e5		 mov	 esp, ebp
  002d7	5d		 pop	 ebp
  002d8	c2 0c 00	 ret	 12			; 0000000cH
$LN222@RemoveItem:
  002db	5e		 pop	 esi

; 519  : 					}
; 520  : 				}
; 521  : 			}
; 522  : 		}
; 523  : 	}
; 524  : 	return bResult;

  002dc	8b c3		 mov	 eax, ebx

; 525  : }

  002de	5b		 pop	 ebx
  002df	8b e5		 mov	 esp, ebp
  002e1	5d		 pop	 ebp
  002e2	c2 0c 00	 ret	 12			; 0000000cH
?RemoveItemInvenBank@CDbManager@@QAEHPAVCMover@@PAH1@Z ENDP ; CDbManager::RemoveItemInvenBank
_TEXT	ENDS
; Function compile flags: /Ogtp
; File C:\IAGOS\server\v18\Source\Source\_Network\Objects\Obj.h
; File C:\IAGOS\server\v18\Source\Source\_Network\Misc\Include\mempooler.h
; File C:\IAGOS\server\v18\Source\Source\_Network\Objects\Obj.h
;	COMDAT ??3CMover@@SAXPAX@Z
_TEXT	SEGMENT
_lpMem$ = 8						; size = 4
??3CMover@@SAXPAX@Z PROC				; CMover::operator delete, COMDAT

; 1215 : 	void	operator delete( void* lpMem )	{	CMover::m_pPool->Free( (CMover*)lpMem );	}

  00000	55		 push	 ebp
  00001	8b ec		 mov	 ebp, esp
  00003	56		 push	 esi
  00004	8b 35 00 00 00
	00		 mov	 esi, DWORD PTR ?m_pPool@CMover@@2PAV?$MemPooler@VCMover@@@@A ; CMover::m_pPool
  0000a	57		 push	 edi
; File C:\IAGOS\server\v18\Source\Source\_Network\Misc\Include\mempooler.h

; 88   : 			EnterCriticalSection( &m_cs );

  0000b	8d 7e 18	 lea	 edi, DWORD PTR [esi+24]
  0000e	57		 push	 edi
  0000f	ff 15 00 00 00
	00		 call	 DWORD PTR __imp__EnterCriticalSection@4

; 89   : 
; 90   : 			pNode	= ( reinterpret_cast<BlockNode*>( lpMem ) ) - 1;
; 91   : 			if( m_nAllocCount > 0 )

  00015	83 7e 14 00	 cmp	 DWORD PTR [esi+20], 0
  00019	8b 4d 08	 mov	 ecx, DWORD PTR _lpMem$[ebp]
  0001c	8d 51 fc	 lea	 edx, DWORD PTR [ecx-4]
  0001f	7e 09		 jle	 SHORT $LN5@operator

; 92   : 			{
; 93   : 				pNode->pNext	= m_pFreeList;

  00021	8b 06		 mov	 eax, DWORD PTR [esi]
  00023	89 02		 mov	 DWORD PTR [edx], eax

; 94   : 				m_pFreeList		= pNode;
; 95   : 				m_nAllocCount--;

  00025	ff 4e 14	 dec	 DWORD PTR [esi+20]
  00028	89 16		 mov	 DWORD PTR [esi], edx
$LN5@operator:

; 96   : 			}
; 97   : 
; 98   : 			//	mulcom	BEGIN100422	¸Ţ¸đ¸®Ç® ĂĘ±âČ­
; 99   : 			::memset( lpMem, 0, sizeof(T) );

  0002a	68 50 41 00 00	 push	 16720			; 00004150H
  0002f	6a 00		 push	 0
  00031	51		 push	 ecx
  00032	e8 00 00 00 00	 call	 _memset
  00037	83 c4 0c	 add	 esp, 12			; 0000000cH

; 100  : 			//	mulcom	END100422	¸Ţ¸đ¸®Ç® ĂĘ±âČ­
; 101  : 
; 102  : 			LeaveCriticalSection( &m_cs );

  0003a	57		 push	 edi
  0003b	ff 15 00 00 00
	00		 call	 DWORD PTR __imp__LeaveCriticalSection@4
  00041	5f		 pop	 edi
  00042	5e		 pop	 esi
; File C:\IAGOS\server\v18\Source\Source\_Network\Objects\Obj.h

; 1215 : 	void	operator delete( void* lpMem )	{	CMover::m_pPool->Free( (CMover*)lpMem );	}

  00043	5d		 pop	 ebp
  00044	c3		 ret	 0
??3CMover@@SAXPAX@Z ENDP				; CMover::operator delete
_TEXT	ENDS
; Function compile flags: /Ogtp
;	COMDAT ??_G?$CItemContainer@VCItemElem@@@@UAEPAXI@Z
_TEXT	SEGMENT
___flags$ = 8						; size = 4
??_G?$CItemContainer@VCItemElem@@@@UAEPAXI@Z PROC	; CItemContainer<CItemElem>::`scalar deleting destructor', COMDAT
; _this$ = ecx
  00000	55		 push	 ebp
  00001	8b ec		 mov	 ebp, esp
  00003	56		 push	 esi
  00004	8b f1		 mov	 esi, ecx
  00006	e8 00 00 00 00	 call	 ??1?$CItemContainer@VCItemElem@@@@UAE@XZ ; CItemContainer<CItemElem>::~CItemContainer<CItemElem>
  0000b	f6 45 08 01	 test	 BYTE PTR ___flags$[ebp], 1
  0000f	74 0b		 je	 SHORT $LN5@scalar
  00011	6a 14		 push	 20			; 00000014H
  00013	56		 push	 esi
  00014	e8 00 00 00 00	 call	 ??3@YAXPAXI@Z		; operator delete
  00019	83 c4 08	 add	 esp, 8
$LN5@scalar:
  0001c	8b c6		 mov	 eax, esi
  0001e	5e		 pop	 esi
  0001f	5d		 pop	 ebp
  00020	c2 04 00	 ret	 4
??_G?$CItemContainer@VCItemElem@@@@UAEPAXI@Z ENDP	; CItemContainer<CItemElem>::`scalar deleting destructor'
_TEXT	ENDS
; Function compile flags: /Ogtp
; File C:\IAGOS\server\v18\Source\Source\_Network\Objects\Obj.h
;	COMDAT ?RemoveAtId@?$CItemContainer@VCItemElem@@@@QAEXK@Z
_TEXT	SEGMENT
_dwObjId$ = 8						; size = 4
?RemoveAtId@?$CItemContainer@VCItemElem@@@@QAEXK@Z PROC	; CItemContainer<CItemElem>::RemoveAtId, COMDAT
; _this$ = ecx

; 724  : {

  00000	55		 push	 ebp
  00001	8b ec		 mov	 ebp, esp

; 725  : 	if( dwObjId >= m_dwItemMax )

  00003	8b 45 08	 mov	 eax, DWORD PTR _dwObjId$[ebp]
  00006	56		 push	 esi
  00007	8b f1		 mov	 esi, ecx
  00009	8b 56 10	 mov	 edx, DWORD PTR [esi+16]
  0000c	3b c2		 cmp	 eax, edx
  0000e	73 38		 jae	 SHORT $LN4@RemoveAtId

; 726  : 		return;
; 727  : 	if( m_apItem[ dwObjId ].m_dwObjIndex >= m_dwItemMax )

  00010	8b 4e 0c	 mov	 ecx, DWORD PTR [esi+12]
  00013	57		 push	 edi
  00014	69 f8 98 00 00
	00		 imul	 edi, eax, 152
  0001a	03 cf		 add	 ecx, edi
  0001c	39 51 2c	 cmp	 DWORD PTR [ecx+44], edx
  0001f	73 26		 jae	 SHORT $LN9@RemoveAtId

; 728  : 		return;
; 729  : 	m_apItem[ dwObjId ].Empty();

  00021	8b 01		 mov	 eax, DWORD PTR [ecx]
  00023	ff 50 04	 call	 DWORD PTR [eax+4]

; 730  : 	if( m_apItem[ dwObjId ].m_dwObjIndex >= m_dwIndexNum )

  00026	8b 46 0c	 mov	 eax, DWORD PTR [esi+12]
  00029	8b 4c 07 2c	 mov	 ecx, DWORD PTR [edi+eax+44]
  0002d	3b 4e 08	 cmp	 ecx, DWORD PTR [esi+8]
  00030	72 15		 jb	 SHORT $LN9@RemoveAtId

; 731  : 	{
; 732  : 		m_apIndex[ m_apItem[ dwObjId ].m_dwObjIndex ] = NULL_ID;

  00032	8b 46 04	 mov	 eax, DWORD PTR [esi+4]
  00035	c7 04 88 ff ff
	ff ff		 mov	 DWORD PTR [eax+ecx*4], -1

; 733  : 		m_apItem[ dwObjId ].m_dwObjIndex = NULL_ID;

  0003c	8b 46 0c	 mov	 eax, DWORD PTR [esi+12]
  0003f	c7 44 07 2c ff
	ff ff ff	 mov	 DWORD PTR [edi+eax+44], -1
$LN9@RemoveAtId:
  00047	5f		 pop	 edi
$LN4@RemoveAtId:
  00048	5e		 pop	 esi

; 734  : 	}
; 735  : }

  00049	5d		 pop	 ebp
  0004a	c2 04 00	 ret	 4
?RemoveAtId@?$CItemContainer@VCItemElem@@@@QAEXK@Z ENDP	; CItemContainer<CItemElem>::RemoveAtId
_TEXT	ENDS
; Function compile flags: /Ogtp
; File C:\IAGOS\server\v18\Source\Source\_Network\Objects\Obj.h
;	COMDAT ?GetAtId@?$CItemContainer@VCItemElem@@@@QAEPAVCItemElem@@K@Z
_TEXT	SEGMENT
_dwObjId$ = 8						; size = 4
?GetAtId@?$CItemContainer@VCItemElem@@@@QAEPAVCItemElem@@K@Z PROC ; CItemContainer<CItemElem>::GetAtId, COMDAT
; _this$ = ecx

; 660  : {

  00000	55		 push	 ebp
  00001	8b ec		 mov	 ebp, esp

; 661  : 	if( dwObjId >= m_dwItemMax )	return NULL;

  00003	8b 45 08	 mov	 eax, DWORD PTR _dwObjId$[ebp]
  00006	3b 41 10	 cmp	 eax, DWORD PTR [ecx+16]
  00009	73 15		 jae	 SHORT $LN7@GetAtId

; 662  : 	T* pItemElem	= &m_apItem[dwObjId];

  0000b	69 c0 98 00 00
	00		 imul	 eax, eax, 152
  00011	03 41 0c	 add	 eax, DWORD PTR [ecx+12]

; 131  : 	BOOL	IsEmpty()	{	return m_dwItemId ? FALSE : TRUE;	}

  00014	33 c9		 xor	 ecx, ecx
  00016	39 48 08	 cmp	 DWORD PTR [eax+8], ecx
  00019	0f 44 c1	 cmove	 eax, ecx

; 665  : 	return pItemElem;
; 666  : }

  0001c	5d		 pop	 ebp
  0001d	c2 04 00	 ret	 4
$LN7@GetAtId:

; 663  : 	if( pItemElem->IsEmpty() )
; 664  : 		return NULL;

  00020	33 c0		 xor	 eax, eax

; 665  : 	return pItemElem;
; 666  : }

  00022	5d		 pop	 ebp
  00023	c2 04 00	 ret	 4
?GetAtId@?$CItemContainer@VCItemElem@@@@QAEPAVCItemElem@@K@Z ENDP ; CItemContainer<CItemElem>::GetAtId
_TEXT	ENDS
; Function compile flags: /Ogtp
; File C:\IAGOS\server\v18\Source\Source\_Network\Objects\Obj.h
;	COMDAT ?SetItemContainer@?$CItemContainer@VCItemElem@@@@QAEXKKK@Z
_TEXT	SEGMENT
__$EHRec$ = -12						; size = 12
_dwItemType$ = 8					; size = 4
_dwItemMax$ = 12					; size = 4
$T2 = 12						; size = 4
_dwExtra$ = 16						; size = 4
$T3 = 16						; size = 4
?SetItemContainer@?$CItemContainer@VCItemElem@@@@QAEXKKK@Z PROC ; CItemContainer<CItemElem>::SetItemContainer, COMDAT
; _this$ = ecx

; 354  : {

  00000	55		 push	 ebp
  00001	8b ec		 mov	 ebp, esp
  00003	6a ff		 push	 -1
  00005	68 00 00 00 00	 push	 __ehhandler$?SetItemContainer@?$CItemContainer@VCItemElem@@@@QAEXKKK@Z
  0000a	64 a1 00 00 00
	00		 mov	 eax, DWORD PTR fs:0
  00010	50		 push	 eax
  00011	53		 push	 ebx
  00012	56		 push	 esi
  00013	57		 push	 edi
  00014	a1 00 00 00 00	 mov	 eax, DWORD PTR ___security_cookie
  00019	33 c5		 xor	 eax, ebp
  0001b	50		 push	 eax
  0001c	8d 45 f4	 lea	 eax, DWORD PTR __$EHRec$[ebp]
  0001f	64 a3 00 00 00
	00		 mov	 DWORD PTR fs:0, eax
  00025	8b f1		 mov	 esi, ecx

; 355  : 	m_dwIndexNum	= dwItemMax;

  00027	8b 45 0c	 mov	 eax, DWORD PTR _dwItemMax$[ebp]

; 356  : 	m_dwItemMax		= dwItemMax;
; 357  : 	if( dwExtra != 0xffffffff )

  0002a	8b 4d 10	 mov	 ecx, DWORD PTR _dwExtra$[ebp]
  0002d	89 46 08	 mov	 DWORD PTR [esi+8], eax
  00030	89 46 10	 mov	 DWORD PTR [esi+16], eax
  00033	83 f9 ff	 cmp	 ecx, -1
  00036	74 05		 je	 SHORT $LN5@SetItemCon

; 358  : 		m_dwItemMax		+= dwExtra;

  00038	03 c1		 add	 eax, ecx
  0003a	89 46 10	 mov	 DWORD PTR [esi+16], eax
$LN5@SetItemCon:

; 359  : 
; 360  : 	SAFE_DELETE_ARRAY( m_apItem );

  0003d	8b 4e 0c	 mov	 ecx, DWORD PTR [esi+12]
  00040	85 c9		 test	 ecx, ecx
  00042	74 23		 je	 SHORT $LN6@SetItemCon
  00044	83 79 fc 00	 cmp	 DWORD PTR [ecx-4], 0
  00048	8d 41 fc	 lea	 eax, DWORD PTR [ecx-4]
  0004b	74 08		 je	 SHORT $LN11@SetItemCon
  0004d	8b 01		 mov	 eax, DWORD PTR [ecx]
  0004f	6a 03		 push	 3
  00051	ff 10		 call	 DWORD PTR [eax]
  00053	eb 0b		 jmp	 SHORT $LN12@SetItemCon
$LN11@SetItemCon:
  00055	6a 04		 push	 4
  00057	50		 push	 eax
  00058	e8 00 00 00 00	 call	 ??_V@YAXPAXI@Z		; operator delete[]
  0005d	83 c4 08	 add	 esp, 8
$LN12@SetItemCon:
  00060	c7 46 0c 00 00
	00 00		 mov	 DWORD PTR [esi+12], 0
$LN6@SetItemCon:

; 361  : 	SAFE_DELETE_ARRAY( m_apIndex );

  00067	8b 46 04	 mov	 eax, DWORD PTR [esi+4]
  0006a	85 c0		 test	 eax, eax
  0006c	74 10		 je	 SHORT $LN7@SetItemCon
  0006e	50		 push	 eax
  0006f	e8 00 00 00 00	 call	 ??_V@YAXPAX@Z		; operator delete[]
  00074	83 c4 04	 add	 esp, 4
  00077	c7 46 04 00 00
	00 00		 mov	 DWORD PTR [esi+4], 0
$LN7@SetItemCon:

; 362  : 
; 363  : 	m_apItem	= new T[ m_dwItemMax ];

  0007e	8b 5e 10	 mov	 ebx, DWORD PTR [esi+16]
  00081	b9 98 00 00 00	 mov	 ecx, 152		; 00000098H
  00086	8b c3		 mov	 eax, ebx
  00088	89 5d 0c	 mov	 DWORD PTR $T2[ebp], ebx
  0008b	f7 e1		 mul	 ecx
  0008d	b9 ff ff ff ff	 mov	 ecx, -1
  00092	0f 42 c1	 cmovb	 eax, ecx
  00095	83 c0 04	 add	 eax, 4
  00098	0f 42 c1	 cmovb	 eax, ecx
  0009b	50		 push	 eax
  0009c	e8 00 00 00 00	 call	 ??_U@YAPAXI@Z		; operator new[]
  000a1	83 c4 04	 add	 esp, 4
  000a4	89 45 10	 mov	 DWORD PTR $T3[ebp], eax
  000a7	c7 45 fc 00 00
	00 00		 mov	 DWORD PTR __$EHRec$[ebp+8], 0
  000ae	85 c0		 test	 eax, eax
  000b0	74 1d		 je	 SHORT $LN15@SetItemCon
  000b2	68 00 00 00 00	 push	 OFFSET ??1CItemElem@@UAE@XZ ; CItemElem::~CItemElem
  000b7	68 00 00 00 00	 push	 OFFSET ??0CItemElem@@QAE@XZ ; CItemElem::CItemElem
  000bc	53		 push	 ebx
  000bd	8d 78 04	 lea	 edi, DWORD PTR [eax+4]
  000c0	89 18		 mov	 DWORD PTR [eax], ebx
  000c2	68 98 00 00 00	 push	 152			; 00000098H
  000c7	57		 push	 edi
  000c8	e8 00 00 00 00	 call	 ??_L@YGXPAXIIP6EX0@Z1@Z
  000cd	eb 02		 jmp	 SHORT $LN16@SetItemCon
$LN15@SetItemCon:
  000cf	33 ff		 xor	 edi, edi
$LN16@SetItemCon:

; 364  : 	m_apIndex	= new DWORD[ m_dwItemMax ];

  000d1	8b 46 10	 mov	 eax, DWORD PTR [esi+16]
  000d4	b9 04 00 00 00	 mov	 ecx, 4
  000d9	f7 e1		 mul	 ecx
  000db	b9 ff ff ff ff	 mov	 ecx, -1
  000e0	c7 45 fc ff ff
	ff ff		 mov	 DWORD PTR __$EHRec$[ebp+8], -1
  000e7	89 7e 0c	 mov	 DWORD PTR [esi+12], edi
  000ea	0f 42 c1	 cmovb	 eax, ecx
  000ed	50		 push	 eax
  000ee	e8 00 00 00 00	 call	 ??_U@YAPAXI@Z		; operator new[]

; 365  : 	for( u_long i = 0; i < m_dwItemMax; i++ )

  000f3	33 c9		 xor	 ecx, ecx
  000f5	89 46 04	 mov	 DWORD PTR [esi+4], eax
  000f8	83 c4 04	 add	 esp, 4
  000fb	39 4e 10	 cmp	 DWORD PTR [esi+16], ecx
  000fe	76 33		 jbe	 SHORT $LN3@SetItemCon

; 362  : 
; 363  : 	m_apItem	= new T[ m_dwItemMax ];

  00100	33 d2		 xor	 edx, edx
$LL4@SetItemCon:

; 366  : 	{
; 367  : 		m_apItem[i].m_dwObjId = i;

  00102	8b 46 0c	 mov	 eax, DWORD PTR [esi+12]
  00105	89 4c 10 04	 mov	 DWORD PTR [eax+edx+4], ecx

; 368  : 		if( i < m_dwIndexNum )

  00109	3b 4e 08	 cmp	 ecx, DWORD PTR [esi+8]
  0010c	73 0f		 jae	 SHORT $LN8@SetItemCon

; 369  : 		{
; 370  : 			m_apItem[i].m_dwObjIndex	= i;

  0010e	8b 46 0c	 mov	 eax, DWORD PTR [esi+12]
  00111	89 4c 10 2c	 mov	 DWORD PTR [eax+edx+44], ecx

; 371  : 			m_apIndex[i]	= i;

  00115	8b 46 04	 mov	 eax, DWORD PTR [esi+4]
  00118	89 0c 88	 mov	 DWORD PTR [eax+ecx*4], ecx

; 372  : 		}

  0011b	eb 0a		 jmp	 SHORT $LN2@SetItemCon
$LN8@SetItemCon:

; 373  : 		else 
; 374  : 			m_apIndex[i]	= NULL_ID;

  0011d	8b 46 04	 mov	 eax, DWORD PTR [esi+4]
  00120	c7 04 88 ff ff
	ff ff		 mov	 DWORD PTR [eax+ecx*4], -1
$LN2@SetItemCon:

; 365  : 	for( u_long i = 0; i < m_dwItemMax; i++ )

  00127	41		 inc	 ecx
  00128	81 c2 98 00 00
	00		 add	 edx, 152		; 00000098H
  0012e	3b 4e 10	 cmp	 ecx, DWORD PTR [esi+16]
  00131	72 cf		 jb	 SHORT $LL4@SetItemCon
$LN3@SetItemCon:

; 375  : 	}
; 376  : }

  00133	8b 4d f4	 mov	 ecx, DWORD PTR __$EHRec$[ebp]
  00136	64 89 0d 00 00
	00 00		 mov	 DWORD PTR fs:0, ecx
  0013d	59		 pop	 ecx
  0013e	5f		 pop	 edi
  0013f	5e		 pop	 esi
  00140	5b		 pop	 ebx
  00141	8b e5		 mov	 esp, ebp
  00143	5d		 pop	 ebp
  00144	c2 0c 00	 ret	 12			; 0000000cH
_TEXT	ENDS
;	COMDAT text$x
text$x	SEGMENT
__unwindfunclet$?SetItemContainer@?$CItemContainer@VCItemElem@@@@QAEXKKK@Z$0:
  00000	8b 45 0c	 mov	 eax, DWORD PTR $T2[ebp]
  00003	b9 98 00 00 00	 mov	 ecx, 152		; 00000098H
  00008	f7 e1		 mul	 ecx
  0000a	8b c8		 mov	 ecx, eax
  0000c	b8 ff ff ff ff	 mov	 eax, -1
  00011	0f 42 c8	 cmovb	 ecx, eax
  00014	83 c1 04	 add	 ecx, 4
  00017	b8 ff ff ff ff	 mov	 eax, -1
  0001c	0f 42 c8	 cmovb	 ecx, eax
  0001f	51		 push	 ecx
  00020	8b 45 10	 mov	 eax, DWORD PTR $T3[ebp]
  00023	50		 push	 eax
  00024	e8 00 00 00 00	 call	 ??_V@YAXPAXI@Z		; operator delete[]
  00029	83 c4 08	 add	 esp, 8
  0002c	c3		 ret	 0
  0002d	cc		 int	 3
  0002e	cc		 int	 3
  0002f	cc		 int	 3
  00030	cc		 int	 3
  00031	cc		 int	 3
__ehhandler$?SetItemContainer@?$CItemContainer@VCItemElem@@@@QAEXKKK@Z:
  00032	90		 npad	 1
  00033	90		 npad	 1
  00034	8b 54 24 08	 mov	 edx, DWORD PTR [esp+8]
  00038	8d 42 0c	 lea	 eax, DWORD PTR [edx+12]
  0003b	8b 4a f0	 mov	 ecx, DWORD PTR [edx-16]
  0003e	33 c8		 xor	 ecx, eax
  00040	e8 00 00 00 00	 call	 @__security_check_cookie@4
  00045	b8 00 00 00 00	 mov	 eax, OFFSET __ehfuncinfo$?SetItemContainer@?$CItemContainer@VCItemElem@@@@QAEXKKK@Z
  0004a	e9 00 00 00 00	 jmp	 ___CxxFrameHandler3
text$x	ENDS
?SetItemContainer@?$CItemContainer@VCItemElem@@@@QAEXKKK@Z ENDP ; CItemContainer<CItemElem>::SetItemContainer
; Function compile flags: /Ogtp
; File C:\IAGOS\server\v18\Source\Source\_Network\Objects\Obj.h
;	COMDAT ??1?$CItemContainer@VCItemElem@@@@UAE@XZ
_TEXT	SEGMENT
??1?$CItemContainer@VCItemElem@@@@UAE@XZ PROC		; CItemContainer<CItemElem>::~CItemContainer<CItemElem>, COMDAT
; _this$ = ecx

; 326  : {

  00000	56		 push	 esi
  00001	8b f1		 mov	 esi, ecx

; 327  : 	SAFE_DELETE_ARRAY( m_apItem );

  00003	8b 4e 0c	 mov	 ecx, DWORD PTR [esi+12]
  00006	c7 06 00 00 00
	00		 mov	 DWORD PTR [esi], OFFSET ??_7?$CItemContainer@VCItemElem@@@@6B@
  0000c	85 c9		 test	 ecx, ecx
  0000e	74 23		 je	 SHORT $LN2@CItemConta
  00010	83 79 fc 00	 cmp	 DWORD PTR [ecx-4], 0
  00014	8d 41 fc	 lea	 eax, DWORD PTR [ecx-4]
  00017	74 08		 je	 SHORT $LN5@CItemConta
  00019	8b 01		 mov	 eax, DWORD PTR [ecx]
  0001b	6a 03		 push	 3
  0001d	ff 10		 call	 DWORD PTR [eax]
  0001f	eb 0b		 jmp	 SHORT $LN6@CItemConta
$LN5@CItemConta:
  00021	6a 04		 push	 4
  00023	50		 push	 eax
  00024	e8 00 00 00 00	 call	 ??_V@YAXPAXI@Z		; operator delete[]
  00029	83 c4 08	 add	 esp, 8
$LN6@CItemConta:
  0002c	c7 46 0c 00 00
	00 00		 mov	 DWORD PTR [esi+12], 0
$LN2@CItemConta:

; 328  : 	SAFE_DELETE_ARRAY( m_apIndex );

  00033	8b 46 04	 mov	 eax, DWORD PTR [esi+4]
  00036	85 c0		 test	 eax, eax
  00038	74 10		 je	 SHORT $LN3@CItemConta
  0003a	50		 push	 eax
  0003b	e8 00 00 00 00	 call	 ??_V@YAXPAX@Z		; operator delete[]
  00040	83 c4 04	 add	 esp, 4
  00043	c7 46 04 00 00
	00 00		 mov	 DWORD PTR [esi+4], 0
$LN3@CItemConta:

; 329  : }

  0004a	5e		 pop	 esi
  0004b	c3		 ret	 0
??1?$CItemContainer@VCItemElem@@@@UAE@XZ ENDP		; CItemContainer<CItemElem>::~CItemContainer<CItemElem>
_TEXT	ENDS
; Function compile flags: /Ogtp
; File C:\IAGOS\server\v18\Source\Source\_Network\Objects\Obj.h
;	COMDAT ??0?$CItemContainer@VCItemElem@@@@QAE@XZ
_TEXT	SEGMENT
??0?$CItemContainer@VCItemElem@@@@QAE@XZ PROC		; CItemContainer<CItemElem>::CItemContainer<CItemElem>, COMDAT
; _this$ = ecx

; 310  : {

  00000	c7 01 00 00 00
	00		 mov	 DWORD PTR [ecx], OFFSET ??_7?$CItemContainer@VCItemElem@@@@6B@

; 311  : 	m_apItem = NULL;
; 312  : 	m_apIndex = NULL;
; 313  : }

  00006	8b c1		 mov	 eax, ecx
  00008	c7 41 0c 00 00
	00 00		 mov	 DWORD PTR [ecx+12], 0
  0000f	c7 41 04 00 00
	00 00		 mov	 DWORD PTR [ecx+4], 0
  00016	c3		 ret	 0
??0?$CItemContainer@VCItemElem@@@@QAE@XZ ENDP		; CItemContainer<CItemElem>::CItemContainer<CItemElem>
_TEXT	ENDS
; Function compile flags: /Ogtp
; File C:\Program Files\Microsoft Visual Studio\2022\Professional\VC\Tools\MSVC\14.44.35207\include\list
; File C:\Program Files\Microsoft Visual Studio\2022\Professional\VC\Tools\MSVC\14.44.35207\include\xmemory
; File C:\Program Files\Microsoft Visual Studio\2022\Professional\VC\Tools\MSVC\14.44.35207\include\list
; File C:\Program Files\Microsoft Visual Studio\2022\Professional\VC\Tools\MSVC\14.44.35207\include\xmemory
; File C:\Program Files\Microsoft Visual Studio\2022\Professional\VC\Tools\MSVC\14.44.35207\include\list
; File C:\Program Files\Microsoft Visual Studio\2022\Professional\VC\Tools\MSVC\14.44.35207\include\xmemory
; File C:\Program Files\Microsoft Visual Studio\2022\Professional\VC\Tools\MSVC\14.44.35207\include\list
;	COMDAT ?push_back@?$list@PAXV?$allocator@PAX@std@@@std@@QAEXABQAX@Z
_TEXT	SEGMENT
__Op$2 = -20						; size = 8
__$EHRec$ = -12						; size = 12
__Val$ = 8						; size = 4
?push_back@?$list@PAXV?$allocator@PAX@std@@@std@@QAEXABQAX@Z PROC ; std::list<void *,std::allocator<void *> >::push_back, COMDAT
; _this$ = ecx

; 1273 :     void push_back(const _Ty& _Val) {

  00000	55		 push	 ebp
  00001	8b ec		 mov	 ebp, esp
  00003	6a ff		 push	 -1
  00005	68 00 00 00 00	 push	 __ehhandler$?push_back@?$list@PAXV?$allocator@PAX@std@@@std@@QAEXABQAX@Z
  0000a	64 a1 00 00 00
	00		 mov	 eax, DWORD PTR fs:0
  00010	50		 push	 eax
  00011	83 ec 08	 sub	 esp, 8
  00014	56		 push	 esi
  00015	57		 push	 edi
  00016	a1 00 00 00 00	 mov	 eax, DWORD PTR ___security_cookie
  0001b	33 c5		 xor	 eax, ebp
  0001d	50		 push	 eax
  0001e	8d 45 f4	 lea	 eax, DWORD PTR __$EHRec$[ebp]
  00021	64 a3 00 00 00
	00		 mov	 DWORD PTR fs:0, eax
  00027	8b f1		 mov	 esi, ecx

; 1030 :         if (_Mysize == max_size()) {

  00029	81 7e 04 55 55
	55 15		 cmp	 DWORD PTR [esi+4], 357913941 ; 15555555H

; 1274 :         _Emplace(_Mypair._Myval2._Myhead, _Val);

  00030	8b 3e		 mov	 edi, DWORD PTR [esi]

; 1030 :         if (_Mysize == max_size()) {

  00032	74 46		 je	 SHORT $LN61@push_back
; File C:\Program Files\Microsoft Visual Studio\2022\Professional\VC\Tools\MSVC\14.44.35207\include\xmemory

; 1160 :     _CONSTEXPR20 explicit _Alloc_construct_ptr(_Alloc& _Al_) : _Al(_Al_), _Ptr(nullptr) {}

  00034	89 75 ec	 mov	 DWORD PTR __Op$2[ebp], esi

; 136  :         return ::operator new(_Bytes);

  00037	6a 0c		 push	 12			; 0000000cH
; File C:\Program Files\Microsoft Visual Studio\2022\Professional\VC\Tools\MSVC\14.44.35207\include\list

; 593  :     explicit _List_node_emplace_op2(_Alnode& _Al_, _Valtys&&... _Vals) : _Alloc_construct_ptr<_Alnode>(_Al_) {

  00039	c7 45 fc 00 00
	00 00		 mov	 DWORD PTR __$EHRec$[ebp+8], 0
; File C:\Program Files\Microsoft Visual Studio\2022\Professional\VC\Tools\MSVC\14.44.35207\include\xmemory

; 1167 :         _Ptr = nullptr; // if allocate throws, prevents double-free

  00040	c7 45 f0 00 00
	00 00		 mov	 DWORD PTR __Op$2[ebp+4], 0

; 136  :         return ::operator new(_Bytes);

  00047	e8 00 00 00 00	 call	 ??2@YAPAXI@Z		; operator new
; File C:\Program Files\Microsoft Visual Studio\2022\Professional\VC\Tools\MSVC\14.44.35207\include\list

; 595  :         _Alnode_traits::construct(this->_Al, _STD addressof(this->_Ptr->_Myval), _STD forward<_Valtys>(_Vals)...);

  0004c	8b 4d 08	 mov	 ecx, DWORD PTR __Val$[ebp]
; File C:\Program Files\Microsoft Visual Studio\2022\Professional\VC\Tools\MSVC\14.44.35207\include\xmemory

; 136  :         return ::operator new(_Bytes);

  0004f	83 c4 04	 add	 esp, 4
; File C:\Program Files\Microsoft Visual Studio\2022\Professional\VC\Tools\MSVC\14.44.35207\include\list

; 595  :         _Alnode_traits::construct(this->_Al, _STD addressof(this->_Ptr->_Myval), _STD forward<_Valtys>(_Vals)...);

  00052	8b 09		 mov	 ecx, DWORD PTR [ecx]
  00054	89 48 08	 mov	 DWORD PTR [eax+8], ecx

; 1035 :         ++_Mysize;

  00057	ff 46 04	 inc	 DWORD PTR [esi+4]

; 608  :         const pointer _Insert_after = _Insert_before->_Prev;

  0005a	8b 4f 04	 mov	 ecx, DWORD PTR [edi+4]

; 609  :         _Construct_in_place(this->_Ptr->_Next, _Insert_before);

  0005d	89 38		 mov	 DWORD PTR [eax], edi

; 610  :         _Construct_in_place(this->_Ptr->_Prev, _Insert_after);

  0005f	89 48 04	 mov	 DWORD PTR [eax+4], ecx

; 611  :         const auto _Result    = this->_Ptr;
; 612  :         this->_Ptr            = pointer{};
; 613  :         _Insert_before->_Prev = _Result;

  00062	89 47 04	 mov	 DWORD PTR [edi+4], eax

; 614  :         _Insert_after->_Next  = _Result;

  00065	89 01		 mov	 DWORD PTR [ecx], eax

; 1275 :     }

  00067	8b 4d f4	 mov	 ecx, DWORD PTR __$EHRec$[ebp]
  0006a	64 89 0d 00 00
	00 00		 mov	 DWORD PTR fs:0, ecx
  00071	59		 pop	 ecx
  00072	5f		 pop	 edi
  00073	5e		 pop	 esi
  00074	8b e5		 mov	 esp, ebp
  00076	5d		 pop	 ebp
  00077	c2 04 00	 ret	 4
$LN61@push_back:

; 1031 :             _Xlength_error("list too long");

  0007a	68 00 00 00 00	 push	 OFFSET ??_C@_0O@NKNMEGII@list?5too?5long@
  0007f	e8 00 00 00 00	 call	 ?_Xlength_error@std@@YAXPBD@Z ; std::_Xlength_error
$LN59@push_back:
  00084	cc		 int	 3
_TEXT	ENDS
;	COMDAT text$x
text$x	SEGMENT
__unwindfunclet$?push_back@?$list@PAXV?$allocator@PAX@std@@@std@@QAEXABQAX@Z$1:
  00000	8d 4d ec	 lea	 ecx, DWORD PTR __Op$2[ebp]
  00003	e9 00 00 00 00	 jmp	 ??1?$_Alloc_construct_ptr@V?$allocator@U?$_List_node@PAXPAX@std@@@std@@@std@@QAE@XZ ; std::_Alloc_construct_ptr<std::allocator<std::_List_node<void *,void *> > >::~_Alloc_construct_ptr<std::allocator<std::_List_node<void *,void *> > >
  00008	cc		 int	 3
  00009	cc		 int	 3
  0000a	cc		 int	 3
  0000b	cc		 int	 3
  0000c	cc		 int	 3
__ehhandler$?push_back@?$list@PAXV?$allocator@PAX@std@@@std@@QAEXABQAX@Z:
  0000d	90		 npad	 1
  0000e	90		 npad	 1
  0000f	8b 54 24 08	 mov	 edx, DWORD PTR [esp+8]
  00013	8d 42 0c	 lea	 eax, DWORD PTR [edx+12]
  00016	8b 4a ec	 mov	 ecx, DWORD PTR [edx-20]
  00019	33 c8		 xor	 ecx, eax
  0001b	e8 00 00 00 00	 call	 @__security_check_cookie@4
  00020	b8 00 00 00 00	 mov	 eax, OFFSET __ehfuncinfo$?push_back@?$list@PAXV?$allocator@PAX@std@@@std@@QAEXABQAX@Z
  00025	e9 00 00 00 00	 jmp	 ___CxxFrameHandler3
text$x	ENDS
?push_back@?$list@PAXV?$allocator@PAX@std@@@std@@QAEXABQAX@Z ENDP ; std::list<void *,std::allocator<void *> >::push_back
; Function compile flags: /Ogtp
; File C:\IAGOS\server\v18\Source\Source\DatabaseServer\Project.h
; File C:\Program Files\Microsoft Visual Studio\2022\Professional\VC\Tools\MSVC\14.44.35207\include\__msvc_string_view.hpp
; File C:\IAGOS\server\v18\Source\Source\DatabaseServer\Project.h
; File C:\Program Files\Microsoft Visual Studio\2022\Professional\VC\Tools\MSVC\14.44.35207\include\xstring
; File C:\Program Files\Microsoft Visual Studio\2022\Professional\VC\Tools\MSVC\14.44.35207\include\__msvc_string_view.hpp
; File C:\Program Files\Microsoft Visual Studio\2022\Professional\VC\Tools\MSVC\14.44.35207\include\xstring
; File C:\Program Files\Microsoft Visual Studio\2022\Professional\VC\Tools\MSVC\14.44.35207\include\__msvc_string_view.hpp
; File C:\Program Files\Microsoft Visual Studio\2022\Professional\VC\Tools\MSVC\14.44.35207\include\xstring
; File C:\Program Files\Microsoft Visual Studio\2022\Professional\VC\Tools\MSVC\14.44.35207\include\__msvc_string_view.hpp
; File C:\Program Files\Microsoft Visual Studio\2022\Professional\VC\Tools\MSVC\14.44.35207\include\xstring
; File C:\Program Files\Microsoft Visual Studio\2022\Professional\VC\Tools\MSVC\14.44.35207\include\__msvc_string_view.hpp
; File C:\Program Files\Microsoft Visual Studio\2022\Professional\VC\Tools\MSVC\14.44.35207\include\xstring
; File C:\Program Files\Microsoft Visual Studio\2022\Professional\VC\Tools\MSVC\14.44.35207\include\xmemory
; File C:\Program Files\Microsoft Visual Studio\2022\Professional\VC\Tools\MSVC\14.44.35207\include\xstring
; File C:\Program Files\Microsoft Visual Studio\2022\Professional\VC\Tools\MSVC\14.44.35207\include\xmemory
; File C:\Program Files\Microsoft Visual Studio\2022\Professional\VC\Tools\MSVC\14.44.35207\include\xstring
; File C:\Program Files\Microsoft Visual Studio\2022\Professional\VC\Tools\MSVC\14.44.35207\include\__msvc_string_view.hpp
; File C:\Program Files\Microsoft Visual Studio\2022\Professional\VC\Tools\MSVC\14.44.35207\include\xstring
; File C:\Program Files\Microsoft Visual Studio\2022\Professional\VC\Tools\MSVC\14.44.35207\include\__msvc_string_view.hpp
; File C:\Program Files\Microsoft Visual Studio\2022\Professional\VC\Tools\MSVC\14.44.35207\include\xstring
; File C:\Program Files\Microsoft Visual Studio\2022\Professional\VC\Tools\MSVC\14.44.35207\include\__msvc_string_view.hpp
; File C:\Program Files\Microsoft Visual Studio\2022\Professional\VC\Tools\MSVC\14.44.35207\include\xstring
; File C:\Program Files\Microsoft Visual Studio\2022\Professional\VC\Tools\MSVC\14.44.35207\include\xtree
; File C:\Program Files\Microsoft Visual Studio\2022\Professional\VC\Tools\MSVC\14.44.35207\include\type_traits
; File C:\Program Files\Microsoft Visual Studio\2022\Professional\VC\Tools\MSVC\14.44.35207\include\xtree
; File C:\Program Files\Microsoft Visual Studio\2022\Professional\VC\Tools\MSVC\14.44.35207\include\type_traits
; File C:\Program Files\Microsoft Visual Studio\2022\Professional\VC\Tools\MSVC\14.44.35207\include\xtree
; File C:\Program Files\Microsoft Visual Studio\2022\Professional\VC\Tools\MSVC\14.44.35207\include\type_traits
; File C:\Program Files\Microsoft Visual Studio\2022\Professional\VC\Tools\MSVC\14.44.35207\include\xtree
; File C:\Program Files\Microsoft Visual Studio\2022\Professional\VC\Tools\MSVC\14.44.35207\include\xstring
; File C:\Program Files\Microsoft Visual Studio\2022\Professional\VC\Tools\MSVC\14.44.35207\include\xmemory
; File C:\Program Files\Microsoft Visual Studio\2022\Professional\VC\Tools\MSVC\14.44.35207\include\xstring
; File C:\Program Files\Microsoft Visual Studio\2022\Professional\VC\Tools\MSVC\14.44.35207\include\xmemory
; File C:\Program Files\Microsoft Visual Studio\2022\Professional\VC\Tools\MSVC\14.44.35207\include\xtree
; File C:\IAGOS\server\v18\Source\Source\DatabaseServer\Project.h
