; Listing generated by Microsoft (R) Optimizing Compiler Version 19.44.35225.0 

	TITLE	C:\IAGOS\server\v18\Source\Output\DatabaseServer\Release\DBConvert.obj
	.686P
	.XMM
	include listing.inc
	.model	flat

INCLUDELIB LIBCMT
INCLUDELIB OLDNAMES

PUBLIC	?__empty_global_delete@@YAXPAX@Z		; __empty_global_delete
PUBLIC	?__empty_global_delete@@YAXPAXI@Z		; __empty_global_delete
PUBLIC	?ConvItem050615@CDbManager@@QAEHXZ		; CDbManager::ConvItem050615
PUBLIC	?ConvChangeItem050615@CDbManager@@QAEXPAVCMover@@@Z ; CDbManager::ConvChangeItem050615
PUBLIC	?ConvChangeGuild050615@CDbManager@@QAEXPAV?$CItemContainer@VCItemElem@@@@@Z ; CDbManager::ConvChangeGuild050615
PUBLIC	?VerifyPlayerDlgProc@@YGHPAUHWND__@@IIJ@Z	; VerifyPlayerDlgProc
EXTRN	__imp__SendMessageA@16:PROC
EXTRN	__imp__EndDialog@8:PROC
; Function compile flags: /Ogtp
; File C:\IAGOS\server\v18\Source\Source\_Database\DBConvert.cpp
;	COMDAT ?VerifyPlayerDlgProc@@YGHPAUHWND__@@IIJ@Z
_TEXT	SEGMENT
_hDlg$ = 8						; size = 4
_iMessage$ = 12						; size = 4
_wParam$ = 16						; size = 4
_lParam$ = 20						; size = 4
?VerifyPlayerDlgProc@@YGHPAUHWND__@@IIJ@Z PROC		; VerifyPlayerDlgProc, COMDAT

; 606  : {

  00000	55		 push	 ebp
  00001	8b ec		 mov	 ebp, esp

; 607  : 	switch( iMessage )

  00003	8b 45 0c	 mov	 eax, DWORD PTR _iMessage$[ebp]
  00006	2d 01 02 00 00	 sub	 eax, 513		; 00000201H
  0000b	74 15		 je	 SHORT $LN4@VerifyPlay
  0000d	83 e8 02	 sub	 eax, 2
  00010	75 23		 jne	 SHORT $LN8@VerifyPlay

; 611  : 			break;
; 612  : 		case WM_LBUTTONDBLCLK:
; 613  : 			EndDialog( hDlg, 0 );

  00012	50		 push	 eax
  00013	ff 75 08	 push	 DWORD PTR _hDlg$[ebp]
  00016	ff 15 00 00 00
	00		 call	 DWORD PTR __imp__EndDialog@8

; 614  : 			break;
; 615  : 	}
; 616  : 	return FALSE;
; 617  : }

  0001c	33 c0		 xor	 eax, eax
  0001e	5d		 pop	 ebp
  0001f	c2 10 00	 ret	 16			; 00000010H
$LN4@VerifyPlay:

; 608  : 	{
; 609  : 		case WM_LBUTTONDOWN:
; 610  : 			SendMessage( hDlg, WM_NCLBUTTONDOWN, HTCAPTION, lParam ); 

  00022	ff 75 14	 push	 DWORD PTR _lParam$[ebp]
  00025	6a 02		 push	 2
  00027	68 a1 00 00 00	 push	 161			; 000000a1H
  0002c	ff 75 08	 push	 DWORD PTR _hDlg$[ebp]
  0002f	ff 15 00 00 00
	00		 call	 DWORD PTR __imp__SendMessageA@16
$LN8@VerifyPlay:

; 614  : 			break;
; 615  : 	}
; 616  : 	return FALSE;
; 617  : }

  00035	33 c0		 xor	 eax, eax
  00037	5d		 pop	 ebp
  00038	c2 10 00	 ret	 16			; 00000010H
?VerifyPlayerDlgProc@@YGHPAUHWND__@@IIJ@Z ENDP		; VerifyPlayerDlgProc
_TEXT	ENDS
; Function compile flags: /Ogtp
; File C:\IAGOS\server\v18\Source\Source\_Database\DBConvert.cpp
; File C:\IAGOS\server\v18\Source\Source\_Network\Objects\Obj.h
; File C:\IAGOS\server\v18\Source\Source\_Database\DBConvert.cpp
;	COMDAT ?ConvChangeGuild050615@CDbManager@@QAEXPAV?$CItemContainer@VCItemElem@@@@@Z
_TEXT	SEGMENT
_GuildBank$ = 8						; size = 4
?ConvChangeGuild050615@CDbManager@@QAEXPAV?$CItemContainer@VCItemElem@@@@@Z PROC ; CDbManager::ConvChangeGuild050615, COMDAT
; _this$ = ecx

; 1753 : {

  00000	55		 push	 ebp
  00001	8b ec		 mov	 ebp, esp
  00003	56		 push	 esi

; 1754 : 	for( DWORD ch = 0; ch < GuildBank->m_dwItemMax; ch++ )	// 0-504

  00004	8b 75 08	 mov	 esi, DWORD PTR _GuildBank$[ebp]
  00007	33 c9		 xor	 ecx, ecx
  00009	39 4e 10	 cmp	 DWORD PTR [esi+16], ecx
  0000c	76 4d		 jbe	 SHORT $LN3@ConvChange
  0000e	33 d2		 xor	 edx, edx
  00010	57		 push	 edi
$LL4@ConvChange:
; File C:\IAGOS\server\v18\Source\Source\_Network\Objects\Obj.h

; 131  : 	BOOL	IsEmpty()	{	return m_dwItemId ? FALSE : TRUE;	}

  00011	8b 7e 0c	 mov	 edi, DWORD PTR [esi+12]
  00014	8b 44 17 08	 mov	 eax, DWORD PTR [edi+edx+8]
  00018	85 c0		 test	 eax, eax
; File C:\IAGOS\server\v18\Source\Source\_Database\DBConvert.cpp

; 1756 : 		if( GuildBank->m_apItem[ch].IsEmpty() == FALSE )

  0001a	74 32		 je	 SHORT $LN2@ConvChange

; 1757 : 		{
; 1758 : 			BOOL bCharged = FALSE;
; 1759 : 			DWORD dwItemId = GuildBank->m_apItem[ch].m_dwItemId;
; 1760 : 			
; 1761 : 			if( (10206 <= dwItemId && dwItemId <= 10224) || (10270 <= dwItemId && dwItemId <= 10286) || (10299 <= dwItemId && dwItemId <= 10347))

  0001c	3d de 27 00 00	 cmp	 eax, 10206		; 000027deH
  00021	72 07		 jb	 SHORT $LN8@ConvChange
  00023	3d f0 27 00 00	 cmp	 eax, 10224		; 000027f0H
  00028	76 1c		 jbe	 SHORT $LN7@ConvChange
$LN8@ConvChange:
  0002a	3d 1e 28 00 00	 cmp	 eax, 10270		; 0000281eH
  0002f	72 07		 jb	 SHORT $LN9@ConvChange
  00031	3d 2e 28 00 00	 cmp	 eax, 10286		; 0000282eH
  00036	76 0e		 jbe	 SHORT $LN7@ConvChange
$LN9@ConvChange:
  00038	3d 3b 28 00 00	 cmp	 eax, 10299		; 0000283bH
  0003d	72 0f		 jb	 SHORT $LN2@ConvChange
  0003f	3d 6b 28 00 00	 cmp	 eax, 10347		; 0000286bH
  00044	77 08		 ja	 SHORT $LN2@ConvChange
$LN7@ConvChange:

; 1762 : 			{
; 1763 : 				GuildBank->m_apItem[ch].m_bCharged = TRUE;

  00046	c7 44 17 7c 01
	00 00 00	 mov	 DWORD PTR [edi+edx+124], 1
$LN2@ConvChange:

; 1754 : 	for( DWORD ch = 0; ch < GuildBank->m_dwItemMax; ch++ )	// 0-504

  0004e	41		 inc	 ecx
  0004f	81 c2 98 00 00
	00		 add	 edx, 152		; 00000098H
  00055	3b 4e 10	 cmp	 ecx, DWORD PTR [esi+16]
  00058	72 b7		 jb	 SHORT $LL4@ConvChange
  0005a	5f		 pop	 edi
$LN3@ConvChange:
  0005b	5e		 pop	 esi

; 1764 : 			}				
; 1765 : 		}
; 1766 : 	}
; 1767 : }

  0005c	5d		 pop	 ebp
  0005d	c2 04 00	 ret	 4
?ConvChangeGuild050615@CDbManager@@QAEXPAV?$CItemContainer@VCItemElem@@@@@Z ENDP ; CDbManager::ConvChangeGuild050615
_TEXT	ENDS
; Function compile flags: /Ogtp
; File C:\IAGOS\server\v18\Source\Source\_Database\DBConvert.cpp
; File C:\IAGOS\server\v18\Source\Source\_Network\Objects\Obj.h
; File C:\IAGOS\server\v18\Source\Source\_Database\DBConvert.cpp
; File C:\IAGOS\server\v18\Source\Source\_Network\Objects\Obj.h
; File C:\IAGOS\server\v18\Source\Source\_Database\DBConvert.cpp
;	COMDAT ?ConvChangeItem050615@CDbManager@@QAEXPAVCMover@@@Z
_TEXT	SEGMENT
_pMover$ = 8						; size = 4
?ConvChangeItem050615@CDbManager@@QAEXPAVCMover@@@Z PROC ; CDbManager::ConvChangeItem050615, COMDAT
; _this$ = ecx

; 1721 : {

  00000	55		 push	 ebp
  00001	8b ec		 mov	 ebp, esp

; 1722 : 	// Inventory
; 1723 : 	for( DWORD ch = 0; ch < pMover->m_Inventory.m_dwItemMax; ch++ )	// 0-504

  00003	8b 4d 08	 mov	 ecx, DWORD PTR _pMover$[ebp]
  00006	33 d2		 xor	 edx, edx
  00008	56		 push	 esi
  00009	57		 push	 edi
  0000a	39 91 c4 3b 00
	00		 cmp	 DWORD PTR [ecx+15300], edx
  00010	76 51		 jbe	 SHORT $LN3@ConvChange
  00012	33 f6		 xor	 esi, esi
$LL4@ConvChange:
; File C:\IAGOS\server\v18\Source\Source\_Network\Objects\Obj.h

; 131  : 	BOOL	IsEmpty()	{	return m_dwItemId ? FALSE : TRUE;	}

  00014	8b b9 c0 3b 00
	00		 mov	 edi, DWORD PTR [ecx+15296]
  0001a	8b 44 37 08	 mov	 eax, DWORD PTR [edi+esi+8]
  0001e	85 c0		 test	 eax, eax
; File C:\IAGOS\server\v18\Source\Source\_Database\DBConvert.cpp

; 1725 : 		if( pMover->m_Inventory.m_apItem[ch].IsEmpty() == FALSE )

  00020	74 32		 je	 SHORT $LN2@ConvChange

; 1726 : 		{
; 1727 : 			BOOL bCharged = FALSE;
; 1728 : 			DWORD dwItemId = pMover->m_Inventory.m_apItem[ch].m_dwItemId;
; 1729 : 
; 1730 : 			if( (10206 <= dwItemId && dwItemId <= 10224) || (10270 <= dwItemId && dwItemId <= 10286) || (10299 <= dwItemId && dwItemId <= 10347))

  00022	3d de 27 00 00	 cmp	 eax, 10206		; 000027deH
  00027	72 07		 jb	 SHORT $LN11@ConvChange
  00029	3d f0 27 00 00	 cmp	 eax, 10224		; 000027f0H
  0002e	76 1c		 jbe	 SHORT $LN10@ConvChange
$LN11@ConvChange:
  00030	3d 1e 28 00 00	 cmp	 eax, 10270		; 0000281eH
  00035	72 07		 jb	 SHORT $LN12@ConvChange
  00037	3d 2e 28 00 00	 cmp	 eax, 10286		; 0000282eH
  0003c	76 0e		 jbe	 SHORT $LN10@ConvChange
$LN12@ConvChange:
  0003e	3d 3b 28 00 00	 cmp	 eax, 10299		; 0000283bH
  00043	72 0f		 jb	 SHORT $LN2@ConvChange
  00045	3d 6b 28 00 00	 cmp	 eax, 10347		; 0000286bH
  0004a	77 08		 ja	 SHORT $LN2@ConvChange
$LN10@ConvChange:

; 1731 : 			{
; 1732 : 				pMover->m_Inventory.m_apItem[ch].m_bCharged = TRUE;

  0004c	c7 44 37 7c 01
	00 00 00	 mov	 DWORD PTR [edi+esi+124], 1
$LN2@ConvChange:

; 1722 : 	// Inventory
; 1723 : 	for( DWORD ch = 0; ch < pMover->m_Inventory.m_dwItemMax; ch++ )	// 0-504

  00054	42		 inc	 edx
  00055	81 c6 98 00 00
	00		 add	 esi, 152		; 00000098H
  0005b	3b 91 c4 3b 00
	00		 cmp	 edx, DWORD PTR [ecx+15300]
  00061	72 b1		 jb	 SHORT $LL4@ConvChange
$LN3@ConvChange:

; 1733 : 			}				
; 1734 : 		}
; 1735 : 	}
; 1736 : 	// Bank
; 1737 : 	for( DWORD ch = 0; ch < pMover->m_Bank[pMover->m_nSlot].m_dwItemMax; ch++ )	// 0-504

  00063	8a 91 c8 00 00
	00		 mov	 dl, BYTE PTR [ecx+200]
  00069	33 f6		 xor	 esi, esi
  0006b	0f b6 c2	 movzx	 eax, dl
  0006e	8d 04 80	 lea	 eax, DWORD PTR [eax+eax*4]
  00071	39 b4 81 f4 3b
	00 00		 cmp	 DWORD PTR [ecx+eax*4+15348], esi
  00078	76 65		 jbe	 SHORT $LN6@ConvChange

; 1726 : 		{
; 1727 : 			BOOL bCharged = FALSE;
; 1728 : 			DWORD dwItemId = pMover->m_Inventory.m_apItem[ch].m_dwItemId;
; 1729 : 
; 1730 : 			if( (10206 <= dwItemId && dwItemId <= 10224) || (10270 <= dwItemId && dwItemId <= 10286) || (10299 <= dwItemId && dwItemId <= 10347))

  0007a	33 ff		 xor	 edi, edi
  0007c	0f 1f 40 00	 npad	 4
$LL7@ConvChange:

; 1739 : 		if( pMover->m_Bank[pMover->m_nSlot].m_apItem[ch].IsEmpty() == FALSE )

  00080	0f b6 c2	 movzx	 eax, dl
  00083	8d 04 80	 lea	 eax, DWORD PTR [eax+eax*4]
; File C:\IAGOS\server\v18\Source\Source\_Network\Objects\Obj.h

; 131  : 	BOOL	IsEmpty()	{	return m_dwItemId ? FALSE : TRUE;	}

  00086	8b 94 81 f0 3b
	00 00		 mov	 edx, DWORD PTR [ecx+eax*4+15344]
  0008d	8b 44 3a 08	 mov	 eax, DWORD PTR [edx+edi+8]
  00091	85 c0		 test	 eax, eax
; File C:\IAGOS\server\v18\Source\Source\_Database\DBConvert.cpp

; 1739 : 		if( pMover->m_Bank[pMover->m_nSlot].m_apItem[ch].IsEmpty() == FALSE )

  00093	74 2e		 je	 SHORT $LN5@ConvChange

; 1740 : 		{
; 1741 : 			BOOL bCharged = FALSE;
; 1742 : 			DWORD dwItemId = pMover->m_Bank[pMover->m_nSlot].m_apItem[ch].m_dwItemId;
; 1743 : 			
; 1744 : 			if( (10206 <= dwItemId && dwItemId <= 10224) || (10270 <= dwItemId && dwItemId <= 10286) || (10299 <= dwItemId && dwItemId <= 10347))

  00095	3d de 27 00 00	 cmp	 eax, 10206		; 000027deH
  0009a	72 07		 jb	 SHORT $LN16@ConvChange
  0009c	3d f0 27 00 00	 cmp	 eax, 10224		; 000027f0H
  000a1	76 18		 jbe	 SHORT $LN15@ConvChange
$LN16@ConvChange:
  000a3	3d 1e 28 00 00	 cmp	 eax, 10270		; 0000281eH
  000a8	72 07		 jb	 SHORT $LN17@ConvChange
  000aa	3d 2e 28 00 00	 cmp	 eax, 10286		; 0000282eH
  000af	76 0a		 jbe	 SHORT $LN15@ConvChange
$LN17@ConvChange:
  000b1	05 c5 d7 ff ff	 add	 eax, -10299		; ffffd7c5H
  000b6	83 f8 30	 cmp	 eax, 48			; 00000030H
  000b9	77 08		 ja	 SHORT $LN5@ConvChange
$LN15@ConvChange:

; 1745 : 			{
; 1746 : 				pMover->m_Bank[pMover->m_nSlot].m_apItem[ch].m_bCharged = TRUE;

  000bb	c7 44 3a 7c 01
	00 00 00	 mov	 DWORD PTR [edx+edi+124], 1
$LN5@ConvChange:

; 1733 : 			}				
; 1734 : 		}
; 1735 : 	}
; 1736 : 	// Bank
; 1737 : 	for( DWORD ch = 0; ch < pMover->m_Bank[pMover->m_nSlot].m_dwItemMax; ch++ )	// 0-504

  000c3	8a 91 c8 00 00
	00		 mov	 dl, BYTE PTR [ecx+200]
  000c9	46		 inc	 esi
  000ca	0f b6 c2	 movzx	 eax, dl
  000cd	81 c7 98 00 00
	00		 add	 edi, 152		; 00000098H
  000d3	8d 04 80	 lea	 eax, DWORD PTR [eax+eax*4]
  000d6	3b b4 81 f4 3b
	00 00		 cmp	 esi, DWORD PTR [ecx+eax*4+15348]
  000dd	72 a1		 jb	 SHORT $LL7@ConvChange
$LN6@ConvChange:
  000df	5f		 pop	 edi

; 1747 : 			}				
; 1748 : 		}
; 1749 : 	}
; 1750 : }

  000e0	5e		 pop	 esi
  000e1	5d		 pop	 ebp
  000e2	c2 04 00	 ret	 4
?ConvChangeItem050615@CDbManager@@QAEXPAVCMover@@@Z ENDP ; CDbManager::ConvChangeItem050615
_TEXT	ENDS
; Function compile flags: /Ogtp
; File C:\IAGOS\server\v18\Source\Source\_Database\DBConvert.cpp
;	COMDAT ?ConvItem050615@CDbManager@@QAEHXZ
_TEXT	SEGMENT
?ConvItem050615@CDbManager@@QAEHXZ PROC			; CDbManager::ConvItem050615, COMDAT
; _this$ = ecx

; 1717 : 	return TRUE;

  00000	b8 01 00 00 00	 mov	 eax, 1

; 1718 : }

  00005	c3		 ret	 0
?ConvItem050615@CDbManager@@QAEHXZ ENDP			; CDbManager::ConvItem050615
_TEXT	ENDS
; Function compile flags: /Ogtp
; File C:\IAGOS\server\v18\Source\Source\_Database\DBConvert.cpp
;	COMDAT ?__empty_global_delete@@YAXPAXI@Z
_TEXT	SEGMENT
___formal$ = 8						; size = 4
___formal$ = 12						; size = 4
?__empty_global_delete@@YAXPAXI@Z PROC			; __empty_global_delete, COMDAT

  00000	c2 00 00	 ret	 0
?__empty_global_delete@@YAXPAXI@Z ENDP			; __empty_global_delete
_TEXT	ENDS
; Function compile flags: /Ogtp
; File C:\IAGOS\server\v18\Source\Source\_Database\DBConvert.cpp
;	COMDAT ?__empty_global_delete@@YAXPAX@Z
_TEXT	SEGMENT
___formal$ = 8						; size = 4
?__empty_global_delete@@YAXPAX@Z PROC			; __empty_global_delete, COMDAT

  00000	c2 00 00	 ret	 0
?__empty_global_delete@@YAXPAX@Z ENDP			; __empty_global_delete
_TEXT	ENDS
END
