; Listing generated by Microsoft (R) Optimizing Compiler Version 19.44.35225.0 

	TITLE	C:\IAGOS\server\v18\Source\Output\DatabaseServer\Release\dbcontroller.obj
	.686P
	.XMM
	include listing.inc
	.model	flat

INCLUDELIB LIBCMT
INCLUDELIB OLDNAMES

PUBLIC	?__empty_global_delete@@YAXPAX@Z		; __empty_global_delete
PUBLIC	?__empty_global_delete@@YAXPAXI@Z		; __empty_global_delete
PUBLIC	??0exception@std@@QAE@ABV01@@Z			; std::exception::exception
PUBLIC	??1exception@std@@UAE@XZ			; std::exception::~exception
PUBLIC	?what@exception@std@@UBEPBDXZ			; std::exception::what
PUBLIC	??_Gexception@std@@UAEPAXI@Z			; std::exception::`scalar deleting destructor'
PUBLIC	??0bad_alloc@std@@QAE@ABV01@@Z			; std::bad_alloc::bad_alloc
PUBLIC	??_Gbad_alloc@std@@UAEPAXI@Z			; std::bad_alloc::`scalar deleting destructor'
PUBLIC	??0bad_array_new_length@std@@QAE@XZ		; std::bad_array_new_length::bad_array_new_length
PUBLIC	??1bad_array_new_length@std@@UAE@XZ		; std::bad_array_new_length::~bad_array_new_length
PUBLIC	??0bad_array_new_length@std@@QAE@ABV01@@Z	; std::bad_array_new_length::bad_array_new_length
PUBLIC	??_Gbad_array_new_length@std@@UAEPAXI@Z		; std::bad_array_new_length::`scalar deleting destructor'
PUBLIC	?_Throw_bad_array_new_length@std@@YAXXZ		; std::_Throw_bad_array_new_length
PUBLIC	??1CMclCritSec@@UAE@XZ				; CMclCritSec::~CMclCritSec
PUBLIC	??_GCMclCritSec@@UAEPAXI@Z			; CMclCritSec::`scalar deleting destructor'
PUBLIC	??1CMclAutoLock@@QAE@XZ				; CMclAutoLock::~CMclAutoLock
PUBLIC	??$_Allocate_manually_vector_aligned@U_Default_allocate_traits@std@@@std@@YAPAXI@Z ; std::_Allocate_manually_vector_aligned<std::_Default_allocate_traits>
PUBLIC	??0CDbController@@QAE@XZ			; CDbController::CDbController
PUBLIC	??1CDbController@@UAE@XZ			; CDbController::~CDbController
PUBLIC	?CreateDbHandler@CDbController@@QAEHK@Z		; CDbController::CreateDbHandler
PUBLIC	?CloseDbHandler@CDbController@@QAEXXZ		; CDbController::CloseDbHandler
PUBLIC	?PostRequest@CDbController@@QAEHHPAEHK@Z	; CDbController::PostRequest
PUBLIC	?CreateQuery@CDbController@@QAEPAVCQuery@@XZ	; CDbController::CreateQuery
PUBLIC	?_DbHandler@CDbController@@SAKPAPAX@Z		; CDbController::_DbHandler
PUBLIC	?DbHandler@CDbController@@QAEXXZ		; CDbController::DbHandler
PUBLIC	?OnTimer@CDbController@@UAEXXZ			; CDbController::OnTimer
PUBLIC	?SetTimer@CDbController@@AAEXK@Z		; CDbController::SetTimer
PUBLIC	??_GCDbController@@UAEPAXI@Z			; CDbController::`scalar deleting destructor'
PUBLIC	??1CDbControllerTimer@@UAE@XZ			; CDbControllerTimer::~CDbControllerTimer
PUBLIC	?Register@CDbControllerTimer@@QAEXPAVCDbController@@@Z ; CDbControllerTimer::Register
PUBLIC	?Create@CDbControllerTimer@@QAEXXZ		; CDbControllerTimer::Create
PUBLIC	?Destroy@CDbControllerTimer@@QAEXXZ		; CDbControllerTimer::Destroy
PUBLIC	?GetInstance@CDbControllerTimer@@SAPAV1@XZ	; CDbControllerTimer::GetInstance
PUBLIC	??0CDbControllerTimer@@AAE@XZ			; CDbControllerTimer::CDbControllerTimer
PUBLIC	?_Tick@CDbControllerTimer@@CAIPAX@Z		; CDbControllerTimer::_Tick
PUBLIC	?Tick@CDbControllerTimer@@AAEXXZ		; CDbControllerTimer::Tick
PUBLIC	??1?$vector@U?$pair@PAVCDbController@@K@std@@V?$allocator@U?$pair@PAVCDbController@@K@std@@@2@@std@@QAE@XZ ; std::vector<std::pair<CDbController *,unsigned long>,std::allocator<std::pair<CDbController *,unsigned long> > >::~vector<std::pair<CDbController *,unsigned long>,std::allocator<std::pair<CDbController *,unsigned long> > >
PUBLIC	?_Xlength@?$vector@U?$pair@PAVCDbController@@K@std@@V?$allocator@U?$pair@PAVCDbController@@K@std@@@2@@std@@CAXXZ ; std::vector<std::pair<CDbController *,unsigned long>,std::allocator<std::pair<CDbController *,unsigned long> > >::_Xlength
PUBLIC	??_GCDbControllerTimer@@UAEPAXI@Z		; CDbControllerTimer::`scalar deleting destructor'
PUBLIC	?Post@post@@YAXKPAVCMail@@PAVCQuery@@@Z		; post::Post
PUBLIC	??$_Emplace_reallocate@U?$pair@PAVCDbController@@K@std@@@?$vector@U?$pair@PAVCDbController@@K@std@@V?$allocator@U?$pair@PAVCDbController@@K@std@@@2@@std@@AAEPAU?$pair@PAVCDbController@@K@1@QAU21@$$QAU21@@Z ; std::vector<std::pair<CDbController *,unsigned long>,std::allocator<std::pair<CDbController *,unsigned long> > >::_Emplace_reallocate<std::pair<CDbController *,unsigned long> >
PUBLIC	??$_Copy_memmove@PAU?$pair@PAVCDbController@@K@std@@PAU12@@std@@YAPAU?$pair@PAVCDbController@@K@0@PAU10@00@Z ; std::_Copy_memmove<std::pair<CDbController *,unsigned long> *,std::pair<CDbController *,unsigned long> *>
PUBLIC	??$_Copy_memmove_tail@PAU?$pair@PAVCDbController@@K@std@@@std@@YAPAU?$pair@PAVCDbController@@K@0@QBDQAU10@II@Z ; std::_Copy_memmove_tail<std::pair<CDbController *,unsigned long> *>
PUBLIC	??_7exception@std@@6B@				; std::exception::`vftable'
PUBLIC	??_C@_0BC@EOODALEL@Unknown?5exception@		; `string'
PUBLIC	??_7bad_alloc@std@@6B@				; std::bad_alloc::`vftable'
PUBLIC	??_7bad_array_new_length@std@@6B@		; std::bad_array_new_length::`vftable'
PUBLIC	??_C@_0BF@KINCDENJ@bad?5array?5new?5length@	; `string'
PUBLIC	??_R0?AVexception@std@@@8			; std::exception `RTTI Type Descriptor'
PUBLIC	__CT??_R0?AVexception@std@@@8??0exception@std@@QAE@ABV01@@Z12
PUBLIC	__TI3?AVbad_array_new_length@std@@
PUBLIC	__CTA3?AVbad_array_new_length@std@@
PUBLIC	??_R0?AVbad_array_new_length@std@@@8		; std::bad_array_new_length `RTTI Type Descriptor'
PUBLIC	__CT??_R0?AVbad_array_new_length@std@@@8??0bad_array_new_length@std@@QAE@ABV01@@Z12
PUBLIC	??_R0?AVbad_alloc@std@@@8			; std::bad_alloc `RTTI Type Descriptor'
PUBLIC	__CT??_R0?AVbad_alloc@std@@@8??0bad_alloc@std@@QAE@ABV01@@Z12
PUBLIC	??_7CMclCritSec@@6B@				; CMclCritSec::`vftable'
PUBLIC	??_C@_0BA@FOIKENOD@vector?5too?5long@		; `string'
PUBLIC	??_R4exception@std@@6B@				; std::exception::`RTTI Complete Object Locator'
PUBLIC	??_R3exception@std@@8				; std::exception::`RTTI Class Hierarchy Descriptor'
PUBLIC	??_R2exception@std@@8				; std::exception::`RTTI Base Class Array'
PUBLIC	??_R1A@?0A@EA@exception@std@@8			; std::exception::`RTTI Base Class Descriptor at (0,-1,0,64)'
PUBLIC	??_R4bad_array_new_length@std@@6B@		; std::bad_array_new_length::`RTTI Complete Object Locator'
PUBLIC	??_R3bad_array_new_length@std@@8		; std::bad_array_new_length::`RTTI Class Hierarchy Descriptor'
PUBLIC	??_R2bad_array_new_length@std@@8		; std::bad_array_new_length::`RTTI Base Class Array'
PUBLIC	??_R1A@?0A@EA@bad_array_new_length@std@@8	; std::bad_array_new_length::`RTTI Base Class Descriptor at (0,-1,0,64)'
PUBLIC	??_R1A@?0A@EA@bad_alloc@std@@8			; std::bad_alloc::`RTTI Base Class Descriptor at (0,-1,0,64)'
PUBLIC	??_R3bad_alloc@std@@8				; std::bad_alloc::`RTTI Class Hierarchy Descriptor'
PUBLIC	??_R2bad_alloc@std@@8				; std::bad_alloc::`RTTI Base Class Array'
PUBLIC	??_R4bad_alloc@std@@6B@				; std::bad_alloc::`RTTI Complete Object Locator'
PUBLIC	??_R4CMclCritSec@@6B@				; CMclCritSec::`RTTI Complete Object Locator'
PUBLIC	??_R0?AVCMclCritSec@@@8				; CMclCritSec `RTTI Type Descriptor'
PUBLIC	??_R3CMclCritSec@@8				; CMclCritSec::`RTTI Class Hierarchy Descriptor'
PUBLIC	??_R2CMclCritSec@@8				; CMclCritSec::`RTTI Base Class Array'
PUBLIC	??_R1A@?0A@EA@CMclCritSec@@8			; CMclCritSec::`RTTI Base Class Descriptor at (0,-1,0,64)'
PUBLIC	??_7CDbController@@6B@				; CDbController::`vftable'
PUBLIC	??_7CDbControllerTimer@@6B@			; CDbControllerTimer::`vftable'
PUBLIC	??_C@_0DF@NIEDDNJK@PostRequest?5nBufSize?5error?4?5nQu@ ; `string'
PUBLIC	??_C@_0CM@ILHDLBHB@Can?8t?5connect?5db?3?5CDbController@ ; `string'
PUBLIC	??_C@_0CJ@PIJPFKHL@BindParameter?$CI?$CJ?5or?5Exec?$CI?$CJ?3?5Post@ ; `string'
PUBLIC	??_R4CDbControllerTimer@@6B@			; CDbControllerTimer::`RTTI Complete Object Locator'
PUBLIC	??_R0?AVCDbControllerTimer@@@8			; CDbControllerTimer `RTTI Type Descriptor'
PUBLIC	??_R3CDbControllerTimer@@8			; CDbControllerTimer::`RTTI Class Hierarchy Descriptor'
PUBLIC	??_R2CDbControllerTimer@@8			; CDbControllerTimer::`RTTI Base Class Array'
PUBLIC	??_R1A@?0A@EA@CDbControllerTimer@@8		; CDbControllerTimer::`RTTI Base Class Descriptor at (0,-1,0,64)'
PUBLIC	??_R4CDbController@@6B@				; CDbController::`RTTI Complete Object Locator'
PUBLIC	??_R0?AVCDbController@@@8			; CDbController `RTTI Type Descriptor'
PUBLIC	??_R3CDbController@@8				; CDbController::`RTTI Class Hierarchy Descriptor'
PUBLIC	??_R2CDbController@@8				; CDbController::`RTTI Base Class Array'
PUBLIC	??_R1A@?0A@EA@CDbController@@8			; CDbController::`RTTI Base Class Descriptor at (0,-1,0,64)'
EXTRN	__purecall:PROC
EXTRN	??2@YAPAXI@Z:PROC				; operator new
EXTRN	??3@YAXPAXI@Z:PROC				; operator delete
EXTRN	??_U@YAPAXI@Z:PROC				; operator new[]
EXTRN	??_V@YAXPAX@Z:PROC				; operator delete[]
EXTRN	_atexit:PROC
EXTRN	__Init_thread_header:PROC
EXTRN	__Init_thread_footer:PROC
EXTRN	__invoke_watson:PROC
EXTRN	__imp__CloseHandle@4:PROC
EXTRN	__imp__CreateIoCompletionPort@16:PROC
EXTRN	__imp__GetQueuedCompletionStatus@20:PROC
EXTRN	__imp__PostQueuedCompletionStatus@16:PROC
EXTRN	__imp__InitializeCriticalSection@4:PROC
EXTRN	__imp__EnterCriticalSection@4:PROC
EXTRN	__imp__LeaveCriticalSection@4:PROC
EXTRN	__imp__DeleteCriticalSection@4:PROC
EXTRN	__imp__SetEvent@4:PROC
EXTRN	__imp__WaitForSingleObject@8:PROC
EXTRN	__imp__CreateEventA@16:PROC
EXTRN	__imp__GetTickCount@0:PROC
EXTRN	__beginthreadex:PROC
EXTRN	?AfxMessageBox@@YGHPBDII@Z:PROC			; AfxMessageBox
EXTRN	?_Xlength_error@std@@YAXPBD@Z:PROC		; std::_Xlength_error
EXTRN	___std_exception_copy:PROC
EXTRN	___std_exception_destroy:PROC
EXTRN	??_Eexception@std@@UAEPAXI@Z:PROC		; std::exception::`vector deleting destructor'
EXTRN	??_Ebad_alloc@std@@UAEPAXI@Z:PROC		; std::bad_alloc::`vector deleting destructor'
EXTRN	??_Ebad_array_new_length@std@@UAEPAXI@Z:PROC	; std::bad_array_new_length::`vector deleting destructor'
EXTRN	??_ECMclCritSec@@UAEPAXI@Z:PROC			; CMclCritSec::`vector deleting destructor'
EXTRN	?Error@@YAPBDPBDZZ:PROC				; Error
EXTRN	??0CQuery@@QAE@XZ:PROC				; CQuery::CQuery
EXTRN	??1CQuery@@QAE@XZ:PROC				; CQuery::~CQuery
EXTRN	?Connect@CQuery@@QAEHHPAD0PBD@Z:PROC		; CQuery::Connect
EXTRN	?Exec@CQuery@@QAEHPBD@Z:PROC			; CQuery::Exec
EXTRN	?BindParameter@CQuery@@QAEHGFFFKFPAXJPAJ@Z:PROC	; CQuery::BindParameter
EXTRN	?GetInstance@CDbManager@@SAAAV1@XZ:PROC		; CDbManager::GetInstance
EXTRN	?MakeQueryAddMail@CDbManager@@SAXPADPAVCMail@@K@Z:PROC ; CDbManager::MakeQueryAddMail
EXTRN	??_ECDbController@@UAEPAXI@Z:PROC		; CDbController::`vector deleting destructor'
EXTRN	??_ECDbControllerTimer@@UAEPAXI@Z:PROC		; CDbControllerTimer::`vector deleting destructor'
EXTRN	?RemoveMail@CMailBox@@QAEHK@Z:PROC		; CMailBox::RemoveMail
EXTRN	?AddMail@CPost@@QAEKKPAVCMail@@@Z:PROC		; CPost::AddMail
EXTRN	?GetMailBox@CPost@@QAEPAVCMailBox@@K@Z:PROC	; CPost::GetMailBox
EXTRN	?GetInstance@CPost@@SAPAV1@XZ:PROC		; CPost::GetInstance
EXTRN	?GetInstance@CDPTrans@@SAPAV1@XZ:PROC		; CDPTrans::GetInstance
EXTRN	?SendPostMail@CDPTrans@@QAEXHKPAVCMail@@@Z:PROC	; CDPTrans::SendPostMail
EXTRN	@__security_check_cookie@4:PROC
EXTRN	__CxxThrowException@8:PROC
EXTRN	___CxxFrameHandler3:PROC
EXTRN	__chkstk:PROC
EXTRN	_memcpy:PROC
EXTRN	_memmove:PROC
EXTRN	_memset:PROC
EXTRN	__Init_thread_epoch:DWORD
EXTRN	??_7type_info@@6B@:QWORD			; type_info::`vftable'
EXTRN	?DSN_NAME_CHARACTER01@@3PADA:BYTE		; DSN_NAME_CHARACTER01
EXTRN	?DB_ADMIN_ID_CHARACTER01@@3PADA:BYTE		; DB_ADMIN_ID_CHARACTER01
EXTRN	___security_cookie:DWORD
EXTRN	__tls_array:DWORD
EXTRN	__tls_index:DWORD
;	COMDAT ?sDbControllerTimer@?1??GetInstance@CDbControllerTimer@@SAPAV2@XZ@4V2@A
_BSS	SEGMENT
?sDbControllerTimer@?1??GetInstance@CDbControllerTimer@@SAPAV2@XZ@4V2@A DB 034H DUP (?) ; `CDbControllerTimer::GetInstance'::`2'::sDbControllerTimer
_BSS	ENDS
;	COMDAT ?$TSS0@?1??GetInstance@CDbControllerTimer@@SAPAV2@XZ@4HA
_BSS	SEGMENT
?$TSS0@?1??GetInstance@CDbControllerTimer@@SAPAV2@XZ@4HA DD 01H DUP (?) ; `CDbControllerTimer::GetInstance'::`2'::$TSS0
_BSS	ENDS
;	COMDAT ??_R1A@?0A@EA@CDbController@@8
rdata$r	SEGMENT
??_R1A@?0A@EA@CDbController@@8 DD FLAT:??_R0?AVCDbController@@@8 ; CDbController::`RTTI Base Class Descriptor at (0,-1,0,64)'
	DD	00H
	DD	00H
	DD	0ffffffffH
	DD	00H
	DD	040H
	DD	FLAT:??_R3CDbController@@8
rdata$r	ENDS
;	COMDAT ??_R2CDbController@@8
rdata$r	SEGMENT
??_R2CDbController@@8 DD FLAT:??_R1A@?0A@EA@CDbController@@8 ; CDbController::`RTTI Base Class Array'
rdata$r	ENDS
;	COMDAT ??_R3CDbController@@8
rdata$r	SEGMENT
??_R3CDbController@@8 DD 00H				; CDbController::`RTTI Class Hierarchy Descriptor'
	DD	00H
	DD	01H
	DD	FLAT:??_R2CDbController@@8
rdata$r	ENDS
;	COMDAT ??_R0?AVCDbController@@@8
data$rs	SEGMENT
??_R0?AVCDbController@@@8 DD FLAT:??_7type_info@@6B@	; CDbController `RTTI Type Descriptor'
	DD	00H
	DB	'.?AVCDbController@@', 00H
data$rs	ENDS
;	COMDAT ??_R4CDbController@@6B@
rdata$r	SEGMENT
??_R4CDbController@@6B@ DD 00H				; CDbController::`RTTI Complete Object Locator'
	DD	00H
	DD	00H
	DD	FLAT:??_R0?AVCDbController@@@8
	DD	FLAT:??_R3CDbController@@8
rdata$r	ENDS
;	COMDAT ??_R1A@?0A@EA@CDbControllerTimer@@8
rdata$r	SEGMENT
??_R1A@?0A@EA@CDbControllerTimer@@8 DD FLAT:??_R0?AVCDbControllerTimer@@@8 ; CDbControllerTimer::`RTTI Base Class Descriptor at (0,-1,0,64)'
	DD	00H
	DD	00H
	DD	0ffffffffH
	DD	00H
	DD	040H
	DD	FLAT:??_R3CDbControllerTimer@@8
rdata$r	ENDS
;	COMDAT ??_R2CDbControllerTimer@@8
rdata$r	SEGMENT
??_R2CDbControllerTimer@@8 DD FLAT:??_R1A@?0A@EA@CDbControllerTimer@@8 ; CDbControllerTimer::`RTTI Base Class Array'
rdata$r	ENDS
;	COMDAT ??_R3CDbControllerTimer@@8
rdata$r	SEGMENT
??_R3CDbControllerTimer@@8 DD 00H			; CDbControllerTimer::`RTTI Class Hierarchy Descriptor'
	DD	00H
	DD	01H
	DD	FLAT:??_R2CDbControllerTimer@@8
rdata$r	ENDS
;	COMDAT ??_R0?AVCDbControllerTimer@@@8
data$rs	SEGMENT
??_R0?AVCDbControllerTimer@@@8 DD FLAT:??_7type_info@@6B@ ; CDbControllerTimer `RTTI Type Descriptor'
	DD	00H
	DB	'.?AVCDbControllerTimer@@', 00H
data$rs	ENDS
;	COMDAT ??_R4CDbControllerTimer@@6B@
rdata$r	SEGMENT
??_R4CDbControllerTimer@@6B@ DD 00H			; CDbControllerTimer::`RTTI Complete Object Locator'
	DD	00H
	DD	00H
	DD	FLAT:??_R0?AVCDbControllerTimer@@@8
	DD	FLAT:??_R3CDbControllerTimer@@8
rdata$r	ENDS
;	COMDAT ??_C@_0CJ@PIJPFKHL@BindParameter?$CI?$CJ?5or?5Exec?$CI?$CJ?3?5Post@
CONST	SEGMENT
??_C@_0CJ@PIJPFKHL@BindParameter?$CI?$CJ?5or?5Exec?$CI?$CJ?3?5Post@ DB 'B'
	DB	'indParameter() or Exec(): PostDeposit()', 00H ; `string'
CONST	ENDS
;	COMDAT ??_C@_0CM@ILHDLBHB@Can?8t?5connect?5db?3?5CDbController@
CONST	SEGMENT
??_C@_0CM@ILHDLBHB@Can?8t?5connect?5db?3?5CDbController@ DB 'Can''t conne'
	DB	'ct db: CDbController.CreateQuery', 00H	; `string'
CONST	ENDS
;	COMDAT ??_C@_0DF@NIEDDNJK@PostRequest?5nBufSize?5error?4?5nQu@
CONST	SEGMENT
??_C@_0DF@NIEDDNJK@PostRequest?5nBufSize?5error?4?5nQu@ DB 'PostRequest n'
	DB	'BufSize error. nQuery[%d], nBufSize[%d]', 00H ; `string'
CONST	ENDS
;	COMDAT ??_7CDbControllerTimer@@6B@
CONST	SEGMENT
??_7CDbControllerTimer@@6B@ DD FLAT:??_R4CDbControllerTimer@@6B@ ; CDbControllerTimer::`vftable'
	DD	FLAT:??_ECDbControllerTimer@@UAEPAXI@Z
CONST	ENDS
;	COMDAT ??_7CDbController@@6B@
CONST	SEGMENT
??_7CDbController@@6B@ DD FLAT:??_R4CDbController@@6B@	; CDbController::`vftable'
	DD	FLAT:??_ECDbController@@UAEPAXI@Z
	DD	FLAT:__purecall
	DD	FLAT:?OnTimer@CDbController@@UAEXXZ
CONST	ENDS
;	COMDAT ??_R1A@?0A@EA@CMclCritSec@@8
rdata$r	SEGMENT
??_R1A@?0A@EA@CMclCritSec@@8 DD FLAT:??_R0?AVCMclCritSec@@@8 ; CMclCritSec::`RTTI Base Class Descriptor at (0,-1,0,64)'
	DD	00H
	DD	00H
	DD	0ffffffffH
	DD	00H
	DD	040H
	DD	FLAT:??_R3CMclCritSec@@8
rdata$r	ENDS
;	COMDAT ??_R2CMclCritSec@@8
rdata$r	SEGMENT
??_R2CMclCritSec@@8 DD FLAT:??_R1A@?0A@EA@CMclCritSec@@8 ; CMclCritSec::`RTTI Base Class Array'
rdata$r	ENDS
;	COMDAT ??_R3CMclCritSec@@8
rdata$r	SEGMENT
??_R3CMclCritSec@@8 DD 00H				; CMclCritSec::`RTTI Class Hierarchy Descriptor'
	DD	00H
	DD	01H
	DD	FLAT:??_R2CMclCritSec@@8
rdata$r	ENDS
;	COMDAT ??_R0?AVCMclCritSec@@@8
data$rs	SEGMENT
??_R0?AVCMclCritSec@@@8 DD FLAT:??_7type_info@@6B@	; CMclCritSec `RTTI Type Descriptor'
	DD	00H
	DB	'.?AVCMclCritSec@@', 00H
data$rs	ENDS
;	COMDAT ??_R4CMclCritSec@@6B@
rdata$r	SEGMENT
??_R4CMclCritSec@@6B@ DD 00H				; CMclCritSec::`RTTI Complete Object Locator'
	DD	00H
	DD	00H
	DD	FLAT:??_R0?AVCMclCritSec@@@8
	DD	FLAT:??_R3CMclCritSec@@8
rdata$r	ENDS
;	COMDAT ??_R4bad_alloc@std@@6B@
rdata$r	SEGMENT
??_R4bad_alloc@std@@6B@ DD 00H				; std::bad_alloc::`RTTI Complete Object Locator'
	DD	00H
	DD	00H
	DD	FLAT:??_R0?AVbad_alloc@std@@@8
	DD	FLAT:??_R3bad_alloc@std@@8
rdata$r	ENDS
;	COMDAT ??_R2bad_alloc@std@@8
rdata$r	SEGMENT
??_R2bad_alloc@std@@8 DD FLAT:??_R1A@?0A@EA@bad_alloc@std@@8 ; std::bad_alloc::`RTTI Base Class Array'
	DD	FLAT:??_R1A@?0A@EA@exception@std@@8
rdata$r	ENDS
;	COMDAT ??_R3bad_alloc@std@@8
rdata$r	SEGMENT
??_R3bad_alloc@std@@8 DD 00H				; std::bad_alloc::`RTTI Class Hierarchy Descriptor'
	DD	00H
	DD	02H
	DD	FLAT:??_R2bad_alloc@std@@8
rdata$r	ENDS
;	COMDAT ??_R1A@?0A@EA@bad_alloc@std@@8
rdata$r	SEGMENT
??_R1A@?0A@EA@bad_alloc@std@@8 DD FLAT:??_R0?AVbad_alloc@std@@@8 ; std::bad_alloc::`RTTI Base Class Descriptor at (0,-1,0,64)'
	DD	01H
	DD	00H
	DD	0ffffffffH
	DD	00H
	DD	040H
	DD	FLAT:??_R3bad_alloc@std@@8
rdata$r	ENDS
;	COMDAT ??_R1A@?0A@EA@bad_array_new_length@std@@8
rdata$r	SEGMENT
??_R1A@?0A@EA@bad_array_new_length@std@@8 DD FLAT:??_R0?AVbad_array_new_length@std@@@8 ; std::bad_array_new_length::`RTTI Base Class Descriptor at (0,-1,0,64)'
	DD	02H
	DD	00H
	DD	0ffffffffH
	DD	00H
	DD	040H
	DD	FLAT:??_R3bad_array_new_length@std@@8
rdata$r	ENDS
;	COMDAT ??_R2bad_array_new_length@std@@8
rdata$r	SEGMENT
??_R2bad_array_new_length@std@@8 DD FLAT:??_R1A@?0A@EA@bad_array_new_length@std@@8 ; std::bad_array_new_length::`RTTI Base Class Array'
	DD	FLAT:??_R1A@?0A@EA@bad_alloc@std@@8
	DD	FLAT:??_R1A@?0A@EA@exception@std@@8
rdata$r	ENDS
;	COMDAT ??_R3bad_array_new_length@std@@8
rdata$r	SEGMENT
??_R3bad_array_new_length@std@@8 DD 00H			; std::bad_array_new_length::`RTTI Class Hierarchy Descriptor'
	DD	00H
	DD	03H
	DD	FLAT:??_R2bad_array_new_length@std@@8
rdata$r	ENDS
;	COMDAT ??_R4bad_array_new_length@std@@6B@
rdata$r	SEGMENT
??_R4bad_array_new_length@std@@6B@ DD 00H		; std::bad_array_new_length::`RTTI Complete Object Locator'
	DD	00H
	DD	00H
	DD	FLAT:??_R0?AVbad_array_new_length@std@@@8
	DD	FLAT:??_R3bad_array_new_length@std@@8
rdata$r	ENDS
;	COMDAT ??_R1A@?0A@EA@exception@std@@8
rdata$r	SEGMENT
??_R1A@?0A@EA@exception@std@@8 DD FLAT:??_R0?AVexception@std@@@8 ; std::exception::`RTTI Base Class Descriptor at (0,-1,0,64)'
	DD	00H
	DD	00H
	DD	0ffffffffH
	DD	00H
	DD	040H
	DD	FLAT:??_R3exception@std@@8
rdata$r	ENDS
;	COMDAT ??_R2exception@std@@8
rdata$r	SEGMENT
??_R2exception@std@@8 DD FLAT:??_R1A@?0A@EA@exception@std@@8 ; std::exception::`RTTI Base Class Array'
rdata$r	ENDS
;	COMDAT ??_R3exception@std@@8
rdata$r	SEGMENT
??_R3exception@std@@8 DD 00H				; std::exception::`RTTI Class Hierarchy Descriptor'
	DD	00H
	DD	01H
	DD	FLAT:??_R2exception@std@@8
rdata$r	ENDS
;	COMDAT ??_R4exception@std@@6B@
rdata$r	SEGMENT
??_R4exception@std@@6B@ DD 00H				; std::exception::`RTTI Complete Object Locator'
	DD	00H
	DD	00H
	DD	FLAT:??_R0?AVexception@std@@@8
	DD	FLAT:??_R3exception@std@@8
rdata$r	ENDS
;	COMDAT ??_C@_0BA@FOIKENOD@vector?5too?5long@
CONST	SEGMENT
??_C@_0BA@FOIKENOD@vector?5too?5long@ DB 'vector too long', 00H ; `string'
CONST	ENDS
;	COMDAT ??_7CMclCritSec@@6B@
CONST	SEGMENT
??_7CMclCritSec@@6B@ DD FLAT:??_R4CMclCritSec@@6B@	; CMclCritSec::`vftable'
	DD	FLAT:??_ECMclCritSec@@UAEPAXI@Z
CONST	ENDS
;	COMDAT __CT??_R0?AVbad_alloc@std@@@8??0bad_alloc@std@@QAE@ABV01@@Z12
xdata$x	SEGMENT
__CT??_R0?AVbad_alloc@std@@@8??0bad_alloc@std@@QAE@ABV01@@Z12 DD 010H
	DD	FLAT:??_R0?AVbad_alloc@std@@@8
	DD	00H
	DD	0ffffffffH
	ORG $+4
	DD	0cH
	DD	FLAT:??0bad_alloc@std@@QAE@ABV01@@Z
xdata$x	ENDS
;	COMDAT ??_R0?AVbad_alloc@std@@@8
data$r	SEGMENT
??_R0?AVbad_alloc@std@@@8 DD FLAT:??_7type_info@@6B@	; std::bad_alloc `RTTI Type Descriptor'
	DD	00H
	DB	'.?AVbad_alloc@std@@', 00H
data$r	ENDS
;	COMDAT __CT??_R0?AVbad_array_new_length@std@@@8??0bad_array_new_length@std@@QAE@ABV01@@Z12
xdata$x	SEGMENT
__CT??_R0?AVbad_array_new_length@std@@@8??0bad_array_new_length@std@@QAE@ABV01@@Z12 DD 00H
	DD	FLAT:??_R0?AVbad_array_new_length@std@@@8
	DD	00H
	DD	0ffffffffH
	ORG $+4
	DD	0cH
	DD	FLAT:??0bad_array_new_length@std@@QAE@ABV01@@Z
xdata$x	ENDS
;	COMDAT ??_R0?AVbad_array_new_length@std@@@8
data$r	SEGMENT
??_R0?AVbad_array_new_length@std@@@8 DD FLAT:??_7type_info@@6B@ ; std::bad_array_new_length `RTTI Type Descriptor'
	DD	00H
	DB	'.?AVbad_array_new_length@std@@', 00H
data$r	ENDS
;	COMDAT __CTA3?AVbad_array_new_length@std@@
xdata$x	SEGMENT
__CTA3?AVbad_array_new_length@std@@ DD 03H
	DD	FLAT:__CT??_R0?AVbad_array_new_length@std@@@8??0bad_array_new_length@std@@QAE@ABV01@@Z12
	DD	FLAT:__CT??_R0?AVbad_alloc@std@@@8??0bad_alloc@std@@QAE@ABV01@@Z12
	DD	FLAT:__CT??_R0?AVexception@std@@@8??0exception@std@@QAE@ABV01@@Z12
xdata$x	ENDS
;	COMDAT __TI3?AVbad_array_new_length@std@@
xdata$x	SEGMENT
__TI3?AVbad_array_new_length@std@@ DD 00H
	DD	FLAT:??1bad_array_new_length@std@@UAE@XZ
	DD	00H
	DD	FLAT:__CTA3?AVbad_array_new_length@std@@
xdata$x	ENDS
;	COMDAT __CT??_R0?AVexception@std@@@8??0exception@std@@QAE@ABV01@@Z12
xdata$x	SEGMENT
__CT??_R0?AVexception@std@@@8??0exception@std@@QAE@ABV01@@Z12 DD 00H
	DD	FLAT:??_R0?AVexception@std@@@8
	DD	00H
	DD	0ffffffffH
	ORG $+4
	DD	0cH
	DD	FLAT:??0exception@std@@QAE@ABV01@@Z
xdata$x	ENDS
;	COMDAT ??_R0?AVexception@std@@@8
data$r	SEGMENT
??_R0?AVexception@std@@@8 DD FLAT:??_7type_info@@6B@	; std::exception `RTTI Type Descriptor'
	DD	00H
	DB	'.?AVexception@std@@', 00H
data$r	ENDS
;	COMDAT ??_C@_0BF@KINCDENJ@bad?5array?5new?5length@
CONST	SEGMENT
??_C@_0BF@KINCDENJ@bad?5array?5new?5length@ DB 'bad array new length', 00H ; `string'
CONST	ENDS
;	COMDAT ??_7bad_array_new_length@std@@6B@
CONST	SEGMENT
??_7bad_array_new_length@std@@6B@ DD FLAT:??_R4bad_array_new_length@std@@6B@ ; std::bad_array_new_length::`vftable'
	DD	FLAT:??_Ebad_array_new_length@std@@UAEPAXI@Z
	DD	FLAT:?what@exception@std@@UBEPBDXZ
CONST	ENDS
;	COMDAT ??_7bad_alloc@std@@6B@
CONST	SEGMENT
??_7bad_alloc@std@@6B@ DD FLAT:??_R4bad_alloc@std@@6B@	; std::bad_alloc::`vftable'
	DD	FLAT:??_Ebad_alloc@std@@UAEPAXI@Z
	DD	FLAT:?what@exception@std@@UBEPBDXZ
CONST	ENDS
;	COMDAT ??_C@_0BC@EOODALEL@Unknown?5exception@
CONST	SEGMENT
??_C@_0BC@EOODALEL@Unknown?5exception@ DB 'Unknown exception', 00H ; `string'
CONST	ENDS
;	COMDAT ??_7exception@std@@6B@
CONST	SEGMENT
??_7exception@std@@6B@ DD FLAT:??_R4exception@std@@6B@	; std::exception::`vftable'
	DD	FLAT:??_Eexception@std@@UAEPAXI@Z
	DD	FLAT:?what@exception@std@@UBEPBDXZ
CONST	ENDS
;	COMDAT xdata$x
xdata$x	SEGMENT
__unwindtable$?Tick@CDbControllerTimer@@AAEXXZ DD 0ffffffffH
	DD	FLAT:__unwindfunclet$?Tick@CDbControllerTimer@@AAEXXZ$0
__ehfuncinfo$?Tick@CDbControllerTimer@@AAEXXZ DD 019930522H
	DD	01H
	DD	FLAT:__unwindtable$?Tick@CDbControllerTimer@@AAEXXZ
	DD	2 DUP(00H)
	DD	2 DUP(00H)
	DD	00H
	DD	01H
xdata$x	ENDS
;	COMDAT xdata$x
xdata$x	SEGMENT
__unwindtable$?Register@CDbControllerTimer@@QAEXPAVCDbController@@@Z DD 0ffffffffH
	DD	FLAT:__unwindfunclet$?Register@CDbControllerTimer@@QAEXPAVCDbController@@@Z$0
__ehfuncinfo$?Register@CDbControllerTimer@@QAEXPAVCDbController@@@Z DD 019930522H
	DD	01H
	DD	FLAT:__unwindtable$?Register@CDbControllerTimer@@QAEXPAVCDbController@@@Z
	DD	2 DUP(00H)
	DD	2 DUP(00H)
	DD	00H
	DD	01H
xdata$x	ENDS
;	COMDAT xdata$x
xdata$x	SEGMENT
__unwindtable$?CreateQuery@CDbController@@QAEPAVCQuery@@XZ DD 0ffffffffH
	DD	FLAT:__unwindfunclet$?CreateQuery@CDbController@@QAEPAVCQuery@@XZ$0
__ehfuncinfo$?CreateQuery@CDbController@@QAEPAVCQuery@@XZ DD 019930522H
	DD	01H
	DD	FLAT:__unwindtable$?CreateQuery@CDbController@@QAEPAVCQuery@@XZ
	DD	2 DUP(00H)
	DD	2 DUP(00H)
	DD	00H
	DD	01H
xdata$x	ENDS
; Function compile flags: /Ogtp
; File C:\Program Files\Microsoft Visual Studio\2022\Professional\VC\Tools\MSVC\14.44.35207\include\xutility
;	COMDAT ??$_Copy_memmove_tail@PAU?$pair@PAVCDbController@@K@std@@@std@@YAPAU?$pair@PAVCDbController@@K@0@QBDQAU10@II@Z
_TEXT	SEGMENT
__First_ch$ = 8						; size = 4
__Dest$ = 12						; size = 4
__Byte_count$ = 16					; size = 4
__Object_count$ = 20					; size = 4
??$_Copy_memmove_tail@PAU?$pair@PAVCDbController@@K@std@@@std@@YAPAU?$pair@PAVCDbController@@K@0@QBDQAU10@II@Z PROC ; std::_Copy_memmove_tail<std::pair<CDbController *,unsigned long> *>, COMDAT

; 4747 :     const char* const _First_ch, const _OutCtgIt _Dest, const size_t _Byte_count, const size_t _Object_count) {

  00000	55		 push	 ebp
  00001	8b ec		 mov	 ebp, esp
  00003	56		 push	 esi

; 4748 :     _STL_INTERNAL_CHECK(_Byte_count == _Object_count * sizeof(*_Dest));
; 4749 :     const auto _Dest_ptr = _STD _To_address(_Dest);
; 4750 :     const auto _Dest_ch  = const_cast<char*>(reinterpret_cast<const volatile char*>(_Dest_ptr));
; 4751 :     _CSTD memmove(_Dest_ch, _First_ch, _Byte_count);

  00004	8b 75 0c	 mov	 esi, DWORD PTR __Dest$[ebp]
  00007	57		 push	 edi
  00008	8b 7d 10	 mov	 edi, DWORD PTR __Byte_count$[ebp]
  0000b	57		 push	 edi
  0000c	ff 75 08	 push	 DWORD PTR __First_ch$[ebp]
  0000f	56		 push	 esi
  00010	e8 00 00 00 00	 call	 _memmove
  00015	83 c4 0c	 add	 esp, 12			; 0000000cH

; 4752 :     if constexpr (is_pointer_v<_OutCtgIt>) {
; 4753 :         (void) _Object_count;
; 4754 :         // CodeQL [SM02986] This cast is correct: we're bypassing pointer arithmetic for performance.
; 4755 :         return reinterpret_cast<_OutCtgIt>(_Dest_ch + _Byte_count);

  00018	8d 04 3e	 lea	 eax, DWORD PTR [esi+edi]
  0001b	5f		 pop	 edi
  0001c	5e		 pop	 esi

; 4756 :     } else {
; 4757 :         return _Dest + static_cast<_Iter_diff_t<_OutCtgIt>>(_Object_count);
; 4758 :     }
; 4759 : }

  0001d	5d		 pop	 ebp
  0001e	c3		 ret	 0
??$_Copy_memmove_tail@PAU?$pair@PAVCDbController@@K@std@@@std@@YAPAU?$pair@PAVCDbController@@K@0@QBDQAU10@II@Z ENDP ; std::_Copy_memmove_tail<std::pair<CDbController *,unsigned long> *>
_TEXT	ENDS
; Function compile flags: /Ogtp
; File C:\Program Files\Microsoft Visual Studio\2022\Professional\VC\Tools\MSVC\14.44.35207\include\xutility
;	COMDAT ??$_Copy_memmove@PAU?$pair@PAVCDbController@@K@std@@PAU12@@std@@YAPAU?$pair@PAVCDbController@@K@0@PAU10@00@Z
_TEXT	SEGMENT
__First$ = 8						; size = 4
__Last$ = 12						; size = 4
__Dest$ = 16						; size = 4
??$_Copy_memmove@PAU?$pair@PAVCDbController@@K@std@@PAU12@@std@@YAPAU?$pair@PAVCDbController@@K@0@PAU10@00@Z PROC ; std::_Copy_memmove<std::pair<CDbController *,unsigned long> *,std::pair<CDbController *,unsigned long> *>, COMDAT

; 4762 : _OutCtgIt _Copy_memmove(_CtgIt _First, _CtgIt _Last, _OutCtgIt _Dest) {

  00000	55		 push	 ebp
  00001	8b ec		 mov	 ebp, esp

; 4763 :     _STL_INTERNAL_CHECK(_First <= _Last);
; 4764 :     const auto _First_ptr    = _STD _To_address(_First);
; 4765 :     const auto _Last_ptr     = _STD _To_address(_Last);
; 4766 :     const auto _Object_count = static_cast<size_t>(_Last_ptr - _First_ptr);

  00003	8b 55 08	 mov	 edx, DWORD PTR __First$[ebp]
  00006	8b 4d 0c	 mov	 ecx, DWORD PTR __Last$[ebp]
  00009	2b ca		 sub	 ecx, edx
  0000b	8b c1		 mov	 eax, ecx
  0000d	c1 f8 03	 sar	 eax, 3

; 4767 :     const auto _First_ch     = const_cast<const char*>(reinterpret_cast<const volatile char*>(_First_ptr));
; 4768 :     const auto _Last_ch      = const_cast<const char*>(reinterpret_cast<const volatile char*>(_Last_ptr));
; 4769 :     const auto _Byte_count   = static_cast<size_t>(_Last_ch - _First_ch);
; 4770 :     return _STD _Copy_memmove_tail(_First_ch, _STD move(_Dest), _Byte_count, _Object_count);

  00010	50		 push	 eax
  00011	51		 push	 ecx
  00012	ff 75 10	 push	 DWORD PTR __Dest$[ebp]
  00015	52		 push	 edx
  00016	e8 00 00 00 00	 call	 ??$_Copy_memmove_tail@PAU?$pair@PAVCDbController@@K@std@@@std@@YAPAU?$pair@PAVCDbController@@K@0@QBDQAU10@II@Z ; std::_Copy_memmove_tail<std::pair<CDbController *,unsigned long> *>
  0001b	83 c4 10	 add	 esp, 16			; 00000010H

; 4771 : }

  0001e	5d		 pop	 ebp
  0001f	c3		 ret	 0
??$_Copy_memmove@PAU?$pair@PAVCDbController@@K@std@@PAU12@@std@@YAPAU?$pair@PAVCDbController@@K@0@PAU10@00@Z ENDP ; std::_Copy_memmove<std::pair<CDbController *,unsigned long> *,std::pair<CDbController *,unsigned long> *>
_TEXT	ENDS
; Function compile flags: /Ogtp
; File C:\Program Files\Microsoft Visual Studio\2022\Professional\VC\Tools\MSVC\14.44.35207\include\vector
; File C:\Program Files\Microsoft Visual Studio\2022\Professional\VC\Tools\MSVC\14.44.35207\include\xmemory
; File C:\Program Files\Microsoft Visual Studio\2022\Professional\VC\Tools\MSVC\14.44.35207\include\vector
; File C:\Program Files\Microsoft Visual Studio\2022\Professional\VC\Tools\MSVC\14.44.35207\include\xmemory
; File C:\Program Files\Microsoft Visual Studio\2022\Professional\VC\Tools\MSVC\14.44.35207\include\vector
; File C:\Program Files\Microsoft Visual Studio\2022\Professional\VC\Tools\MSVC\14.44.35207\include\xmemory
; File C:\Program Files\Microsoft Visual Studio\2022\Professional\VC\Tools\MSVC\14.44.35207\include\vector
; File C:\Program Files\Microsoft Visual Studio\2022\Professional\VC\Tools\MSVC\14.44.35207\include\xmemory
; File C:\Program Files\Microsoft Visual Studio\2022\Professional\VC\Tools\MSVC\14.44.35207\include\vector
; File C:\Program Files\Microsoft Visual Studio\2022\Professional\VC\Tools\MSVC\14.44.35207\include\xmemory
; File C:\Program Files\Microsoft Visual Studio\2022\Professional\VC\Tools\MSVC\14.44.35207\include\vector
; File C:\Program Files\Microsoft Visual Studio\2022\Professional\VC\Tools\MSVC\14.44.35207\include\xmemory
; File C:\Program Files\Microsoft Visual Studio\2022\Professional\VC\Tools\MSVC\14.44.35207\include\vector
; File C:\Program Files\Microsoft Visual Studio\2022\Professional\VC\Tools\MSVC\14.44.35207\include\xmemory
; File C:\Program Files\Microsoft Visual Studio\2022\Professional\VC\Tools\MSVC\14.44.35207\include\vector
; File C:\Program Files\Microsoft Visual Studio\2022\Professional\VC\Tools\MSVC\14.44.35207\include\xmemory
; File C:\Program Files\Microsoft Visual Studio\2022\Professional\VC\Tools\MSVC\14.44.35207\include\vector
;	COMDAT ??$_Emplace_reallocate@U?$pair@PAVCDbController@@K@std@@@?$vector@U?$pair@PAVCDbController@@K@std@@V?$allocator@U?$pair@PAVCDbController@@K@std@@@2@@std@@AAEPAU?$pair@PAVCDbController@@K@1@QAU21@$$QAU21@@Z
_TEXT	SEGMENT
__Newsize$1$ = -8					; size = 4
tv650 = -4						; size = 4
__Whereptr$ = 8						; size = 4
_<_Val_0>$ = 12						; size = 4
??$_Emplace_reallocate@U?$pair@PAVCDbController@@K@std@@@?$vector@U?$pair@PAVCDbController@@K@std@@V?$allocator@U?$pair@PAVCDbController@@K@std@@@2@@std@@AAEPAU?$pair@PAVCDbController@@K@1@QAU21@$$QAU21@@Z PROC ; std::vector<std::pair<CDbController *,unsigned long>,std::allocator<std::pair<CDbController *,unsigned long> > >::_Emplace_reallocate<std::pair<CDbController *,unsigned long> >, COMDAT
; _this$ = ecx

; 875  :     _CONSTEXPR20 pointer _Emplace_reallocate(const pointer _Whereptr, _Valty&&... _Val) {

  00000	55		 push	 ebp
  00001	8b ec		 mov	 ebp, esp
  00003	83 ec 08	 sub	 esp, 8
  00006	53		 push	 ebx

; 876  :         // reallocate and insert by perfectly forwarding _Val at _Whereptr
; 877  :         _Alty& _Al        = _Getal();
; 878  :         auto& _My_data    = _Mypair._Myval2;
; 879  :         pointer& _Myfirst = _My_data._Myfirst;
; 880  :         pointer& _Mylast  = _My_data._Mylast;
; 881  : 
; 882  :         _STL_INTERNAL_CHECK(_Mylast == _My_data._Myend); // check that we have no unused capacity
; 883  : 
; 884  :         const auto _Whereoff = static_cast<size_type>(_Whereptr - _Myfirst);

  00007	8b 5d 08	 mov	 ebx, DWORD PTR __Whereptr$[ebp]
  0000a	56		 push	 esi
  0000b	8b f1		 mov	 esi, ecx
  0000d	57		 push	 edi
  0000e	8b 0e		 mov	 ecx, DWORD PTR [esi]
  00010	2b d9		 sub	 ebx, ecx

; 885  :         const auto _Oldsize  = static_cast<size_type>(_Mylast - _Myfirst);

  00012	8b 46 04	 mov	 eax, DWORD PTR [esi+4]
  00015	2b c1		 sub	 eax, ecx
  00017	c1 fb 03	 sar	 ebx, 3
  0001a	c1 f8 03	 sar	 eax, 3

; 886  : 
; 887  :         if (_Oldsize == max_size()) {

  0001d	3d ff ff ff 1f	 cmp	 eax, 536870911		; 1fffffffH
  00022	0f 84 11 01 00
	00		 je	 $LN111@Emplace_re

; 1924 :         return static_cast<size_type>(_My_data._Myend - _My_data._Myfirst);

  00028	8b 56 08	 mov	 edx, DWORD PTR [esi+8]

; 889  :         }
; 890  : 
; 891  :         const size_type _Newsize = _Oldsize + 1;

  0002b	8d 78 01	 lea	 edi, DWORD PTR [eax+1]

; 1924 :         return static_cast<size_type>(_My_data._Myend - _My_data._Myfirst);

  0002e	2b d1		 sub	 edx, ecx

; 889  :         }
; 890  : 
; 891  :         const size_type _Newsize = _Oldsize + 1;

  00030	89 7d f8	 mov	 DWORD PTR __Newsize$1$[ebp], edi

; 1924 :         return static_cast<size_type>(_My_data._Myend - _My_data._Myfirst);

  00033	c1 fa 03	 sar	 edx, 3

; 2011 :         if (_Oldcapacity > _Max - _Oldcapacity / 2) {

  00036	b8 ff ff ff 1f	 mov	 eax, 536870911		; 1fffffffH
  0003b	8b ca		 mov	 ecx, edx
  0003d	d1 e9		 shr	 ecx, 1
  0003f	2b c1		 sub	 eax, ecx
  00041	3b d0		 cmp	 edx, eax
  00043	76 14		 jbe	 SHORT $LN8@Emplace_re

; 2012 :             return _Max; // geometric growth would overflow

  00045	b8 f8 ff ff ff	 mov	 eax, -8			; fffffff8H
  0004a	c7 45 fc f8 ff
	ff ff		 mov	 DWORD PTR tv650[ebp], -8 ; fffffff8H
; File C:\Program Files\Microsoft Visual Studio\2022\Professional\VC\Tools\MSVC\14.44.35207\include\xmemory

; 253  :             return _Allocate_manually_vector_aligned<_Traits>(_Bytes);

  00051	50		 push	 eax
  00052	e8 00 00 00 00	 call	 ??$_Allocate_manually_vector_aligned@U_Default_allocate_traits@std@@@std@@YAPAXI@Z ; std::_Allocate_manually_vector_aligned<std::_Default_allocate_traits>
  00057	eb 3d		 jmp	 SHORT $LN109@Emplace_re
$LN8@Emplace_re:
; File C:\Program Files\Microsoft Visual Studio\2022\Professional\VC\Tools\MSVC\14.44.35207\include\vector

; 2015 :         const size_type _Geometric = _Oldcapacity + _Oldcapacity / 2;

  00059	8d 04 11	 lea	 eax, DWORD PTR [ecx+edx]
; File C:\Program Files\Microsoft Visual Studio\2022\Professional\VC\Tools\MSVC\14.44.35207\include\xmemory

; 117  :         if (_Count > _Max_possible) {

  0005c	8b cf		 mov	 ecx, edi
  0005e	3b c7		 cmp	 eax, edi
  00060	0f 43 c8	 cmovae	 ecx, eax
  00063	81 f9 ff ff ff
	1f		 cmp	 ecx, 536870911		; 1fffffffH
  00069	0f 87 cf 00 00
	00		 ja	 $LN112@Emplace_re

; 119  :         }
; 120  :     }
; 121  : 
; 122  :     return _Count * _Ty_size;

  0006f	8d 04 cd 00 00
	00 00		 lea	 eax, DWORD PTR [ecx*8]
  00076	89 45 fc	 mov	 DWORD PTR tv650[ebp], eax

; 227  :     if (_Bytes == 0) {

  00079	85 c0		 test	 eax, eax
  0007b	75 04		 jne	 SHORT $LN23@Emplace_re

; 228  :         return nullptr;

  0007d	33 ff		 xor	 edi, edi
  0007f	eb 1a		 jmp	 SHORT $LN22@Emplace_re
$LN23@Emplace_re:

; 229  :     }
; 230  : 
; 231  : #if _HAS_CXX20 // TRANSITION, GH-1532
; 232  :     if (_STD is_constant_evaluated()) {
; 233  :         return _Traits::_Allocate(_Bytes);
; 234  :     }
; 235  : #endif // _HAS_CXX20
; 236  : 
; 237  : #ifdef __cpp_aligned_new
; 238  :     if constexpr (_Align > __STDCPP_DEFAULT_NEW_ALIGNMENT__) {
; 239  :         size_t _Passed_align = _Align;
; 240  : #if defined(_M_IX86) || defined(_M_X64)
; 241  :         if (_Bytes >= _Big_allocation_threshold) {
; 242  :             // boost the alignment of big allocations to help autovectorization
; 243  :             _Passed_align = (_STD max)(_Align, _Big_allocation_alignment);
; 244  :         }
; 245  : #endif // defined(_M_IX86) || defined(_M_X64)
; 246  :         return _Traits::_Allocate_aligned(_Bytes, _Passed_align);
; 247  :     } else
; 248  : #endif // defined(__cpp_aligned_new)
; 249  :     {
; 250  : #if defined(_M_IX86) || defined(_M_X64)
; 251  :         if (_Bytes >= _Big_allocation_threshold) {

  00081	3d 00 10 00 00	 cmp	 eax, 4096		; 00001000H
  00086	72 08		 jb	 SHORT $LN24@Emplace_re

; 253  :             return _Allocate_manually_vector_aligned<_Traits>(_Bytes);

  00088	50		 push	 eax
  00089	e8 00 00 00 00	 call	 ??$_Allocate_manually_vector_aligned@U_Default_allocate_traits@std@@@std@@YAPAXI@Z ; std::_Allocate_manually_vector_aligned<std::_Default_allocate_traits>
  0008e	eb 06		 jmp	 SHORT $LN109@Emplace_re
$LN24@Emplace_re:

; 136  :         return ::operator new(_Bytes);

  00090	50		 push	 eax
  00091	e8 00 00 00 00	 call	 ??2@YAPAXI@Z		; operator new
$LN109@Emplace_re:
; File C:\Program Files\Microsoft Visual Studio\2022\Professional\VC\Tools\MSVC\14.44.35207\include\vector

; 900  :         _Alty_traits::construct(_Al, _STD _Unfancy(_Newvec + _Whereoff), _STD forward<_Valty>(_Val)...);

  00096	8b f8		 mov	 edi, eax
  00098	83 c4 04	 add	 esp, 4
$LN22@Emplace_re:
  0009b	8b 45 0c	 mov	 eax, DWORD PTR _<_Val_0>$[ebp]
  0009e	8d 1c df	 lea	 ebx, DWORD PTR [edi+ebx*8]
  000a1	8b 08		 mov	 ecx, DWORD PTR [eax]
  000a3	8b 40 04	 mov	 eax, DWORD PTR [eax+4]
  000a6	89 43 04	 mov	 DWORD PTR [ebx+4], eax

; 901  :         _Constructed_first = _Newvec + _Whereoff;
; 902  : 
; 903  :         if (_Whereptr == _Mylast) { // at back, provide strong guarantee

  000a9	8b 45 08	 mov	 eax, DWORD PTR __Whereptr$[ebp]
  000ac	89 0b		 mov	 DWORD PTR [ebx], ecx
  000ae	8b 56 04	 mov	 edx, DWORD PTR [esi+4]
  000b1	8b 0e		 mov	 ecx, DWORD PTR [esi]
  000b3	3b c2		 cmp	 eax, edx
  000b5	75 04		 jne	 SHORT $LN3@Emplace_re
; File C:\Program Files\Microsoft Visual Studio\2022\Professional\VC\Tools\MSVC\14.44.35207\include\xmemory

; 1992 :             _STD _Copy_memmove(_UFirst, _ULast, _STD _Unfancy(_Dest));

  000b7	8b c7		 mov	 eax, edi
; File C:\Program Files\Microsoft Visual Studio\2022\Professional\VC\Tools\MSVC\14.44.35207\include\vector

; 909  :         } else { // provide basic guarantee

  000b9	eb 14		 jmp	 SHORT $LN52@Emplace_re
$LN3@Emplace_re:
; File C:\Program Files\Microsoft Visual Studio\2022\Professional\VC\Tools\MSVC\14.44.35207\include\xmemory

; 1992 :             _STD _Copy_memmove(_UFirst, _ULast, _STD _Unfancy(_Dest));

  000bb	57		 push	 edi
  000bc	50		 push	 eax
  000bd	51		 push	 ecx
  000be	e8 00 00 00 00	 call	 ??$_Copy_memmove@PAU?$pair@PAVCDbController@@K@std@@PAU12@@std@@YAPAU?$pair@PAVCDbController@@K@0@PAU10@00@Z ; std::_Copy_memmove<std::pair<CDbController *,unsigned long> *,std::pair<CDbController *,unsigned long> *>
  000c3	8b 4d 08	 mov	 ecx, DWORD PTR __Whereptr$[ebp]
; File C:\Program Files\Microsoft Visual Studio\2022\Professional\VC\Tools\MSVC\14.44.35207\include\vector

; 912  :             _STD _Uninitialized_move(_Whereptr, _Mylast, _Newvec + _Whereoff + 1, _Al);

  000c6	8d 43 08	 lea	 eax, DWORD PTR [ebx+8]
; File C:\Program Files\Microsoft Visual Studio\2022\Professional\VC\Tools\MSVC\14.44.35207\include\xmemory

; 1992 :             _STD _Copy_memmove(_UFirst, _ULast, _STD _Unfancy(_Dest));

  000c9	8b 56 04	 mov	 edx, DWORD PTR [esi+4]
  000cc	83 c4 0c	 add	 esp, 12			; 0000000cH
$LN52@Emplace_re:
; File C:\Program Files\Microsoft Visual Studio\2022\Professional\VC\Tools\MSVC\14.44.35207\include\vector

; 915  :         _Guard._New_begin = nullptr;

  000cf	50		 push	 eax
  000d0	52		 push	 edx
  000d1	51		 push	 ecx
  000d2	e8 00 00 00 00	 call	 ??$_Copy_memmove@PAU?$pair@PAVCDbController@@K@std@@PAU12@@std@@YAPAU?$pair@PAVCDbController@@K@0@PAU10@00@Z ; std::_Copy_memmove<std::pair<CDbController *,unsigned long> *,std::pair<CDbController *,unsigned long> *>

; 2069 :         if (_Myfirst) { // destroy and deallocate old array

  000d7	8b 06		 mov	 eax, DWORD PTR [esi]

; 915  :         _Guard._New_begin = nullptr;

  000d9	83 c4 0c	 add	 esp, 12			; 0000000cH

; 2069 :         if (_Myfirst) { // destroy and deallocate old array

  000dc	85 c0		 test	 eax, eax
  000de	74 2c		 je	 SHORT $LN72@Emplace_re

; 2070 :             _STD _Destroy_range(_Myfirst, _Mylast, _Al);
; 2071 :             _ASAN_VECTOR_REMOVE;
; 2072 :             _Al.deallocate(_Myfirst, static_cast<size_type>(_Myend - _Myfirst));

  000e0	8b 4e 08	 mov	 ecx, DWORD PTR [esi+8]
  000e3	2b c8		 sub	 ecx, eax
; File C:\Program Files\Microsoft Visual Studio\2022\Professional\VC\Tools\MSVC\14.44.35207\include\xmemory

; 985  :         _STD _Deallocate<_New_alignof<_Ty>>(_Ptr, sizeof(_Ty) * _Count);

  000e5	83 e1 f8	 and	 ecx, -8			; fffffff8H

; 284  :         if (_Bytes >= _Big_allocation_threshold) {

  000e8	81 f9 00 10 00
	00		 cmp	 ecx, 4096		; 00001000H
  000ee	72 12		 jb	 SHORT $LN77@Emplace_re

; 205  :     const uintptr_t _Ptr_container   = _Ptr_user[-1];

  000f0	8b 50 fc	 mov	 edx, DWORD PTR [eax-4]
  000f3	83 c1 23	 add	 ecx, 35			; 00000023H

; 206  : 
; 207  :     // If the following asserts, it likely means that we are performing
; 208  :     // an aligned delete on memory coming from an unaligned allocation.
; 209  :     _STL_ASSERT(_Ptr_user[-2] == _Big_allocation_sentinel, "invalid argument");
; 210  : 
; 211  :     // Extra paranoia on aligned allocation/deallocation; ensure _Ptr_container is
; 212  :     // in range [_Min_back_shift, _Non_user_size]
; 213  : #ifdef _DEBUG
; 214  :     constexpr uintptr_t _Min_back_shift = 2 * sizeof(void*);
; 215  : #else // ^^^ defined(_DEBUG) / !defined(_DEBUG) vvv
; 216  :     constexpr uintptr_t _Min_back_shift = sizeof(void*);
; 217  : #endif // ^^^ !defined(_DEBUG) ^^^
; 218  :     const uintptr_t _Back_shift = reinterpret_cast<uintptr_t>(_Ptr) - _Ptr_container;

  000f6	2b c2		 sub	 eax, edx

; 219  :     _STL_VERIFY(_Back_shift >= _Min_back_shift && _Back_shift <= _Non_user_size, "invalid argument");

  000f8	83 c0 fc	 add	 eax, -4			; fffffffcH
  000fb	83 f8 1f	 cmp	 eax, 31			; 0000001fH
  000fe	77 2a		 ja	 SHORT $LN76@Emplace_re

; 220  :     _Ptr = reinterpret_cast<void*>(_Ptr_container);

  00100	8b c2		 mov	 eax, edx
$LN77@Emplace_re:

; 289  :         ::operator delete(_Ptr, _Bytes);

  00102	51		 push	 ecx
  00103	50		 push	 eax
  00104	e8 00 00 00 00	 call	 ??3@YAXPAXI@Z		; operator delete
  00109	83 c4 08	 add	 esp, 8
$LN72@Emplace_re:
; File C:\Program Files\Microsoft Visual Studio\2022\Professional\VC\Tools\MSVC\14.44.35207\include\vector

; 2076 :         _Mylast  = _Newvec + _Newsize;

  0010c	8b 45 f8	 mov	 eax, DWORD PTR __Newsize$1$[ebp]
  0010f	89 3e		 mov	 DWORD PTR [esi], edi
  00111	8d 0c c7	 lea	 ecx, DWORD PTR [edi+eax*8]

; 916  :         _Change_array(_Newvec, _Newsize, _Newcapacity);
; 917  :         return _Newvec + _Whereoff;

  00114	8b c3		 mov	 eax, ebx

; 2076 :         _Mylast  = _Newvec + _Newsize;

  00116	89 4e 04	 mov	 DWORD PTR [esi+4], ecx

; 2077 :         _Myend   = _Newvec + _Newcapacity;

  00119	8b 4d fc	 mov	 ecx, DWORD PTR tv650[ebp]
  0011c	03 cf		 add	 ecx, edi

; 918  :     }

  0011e	5f		 pop	 edi

; 2077 :         _Myend   = _Newvec + _Newcapacity;

  0011f	89 4e 08	 mov	 DWORD PTR [esi+8], ecx

; 918  :     }

  00122	5e		 pop	 esi
  00123	5b		 pop	 ebx
  00124	8b e5		 mov	 esp, ebp
  00126	5d		 pop	 ebp
  00127	c2 08 00	 ret	 8
$LN76@Emplace_re:
; File C:\Program Files\Microsoft Visual Studio\2022\Professional\VC\Tools\MSVC\14.44.35207\include\xmemory

; 219  :     _STL_VERIFY(_Back_shift >= _Min_back_shift && _Back_shift <= _Non_user_size, "invalid argument");

  0012a	6a 00		 push	 0
  0012c	6a 00		 push	 0
  0012e	6a 00		 push	 0
  00130	6a 00		 push	 0
  00132	6a 00		 push	 0
  00134	e8 00 00 00 00	 call	 __invoke_watson
$LN111@Emplace_re:
; File C:\Program Files\Microsoft Visual Studio\2022\Professional\VC\Tools\MSVC\14.44.35207\include\vector

; 888  :             _Xlength();

  00139	e8 00 00 00 00	 call	 ?_Xlength@?$vector@U?$pair@PAVCDbController@@K@std@@V?$allocator@U?$pair@PAVCDbController@@K@std@@@2@@std@@CAXXZ ; std::vector<std::pair<CDbController *,unsigned long>,std::allocator<std::pair<CDbController *,unsigned long> > >::_Xlength
$LN112@Emplace_re:
; File C:\Program Files\Microsoft Visual Studio\2022\Professional\VC\Tools\MSVC\14.44.35207\include\xmemory

; 118  :             _Throw_bad_array_new_length(); // multiply overflow

  0013e	e8 00 00 00 00	 call	 ?_Throw_bad_array_new_length@std@@YAXXZ ; std::_Throw_bad_array_new_length
$LN108@Emplace_re:
  00143	cc		 int	 3
??$_Emplace_reallocate@U?$pair@PAVCDbController@@K@std@@@?$vector@U?$pair@PAVCDbController@@K@std@@V?$allocator@U?$pair@PAVCDbController@@K@std@@@2@@std@@AAEPAU?$pair@PAVCDbController@@K@1@QAU21@$$QAU21@@Z ENDP ; std::vector<std::pair<CDbController *,unsigned long>,std::allocator<std::pair<CDbController *,unsigned long> > >::_Emplace_reallocate<std::pair<CDbController *,unsigned long> >
_TEXT	ENDS
; Function compile flags: /Ogtp
;	COMDAT ??__FsDbControllerTimer@?1??GetInstance@CDbControllerTimer@@SAPAV1@XZ@YAXXZ
text$yd	SEGMENT
??__FsDbControllerTimer@?1??GetInstance@CDbControllerTimer@@SAPAV1@XZ@YAXXZ PROC ; `CDbControllerTimer::GetInstance'::`2'::`dynamic atexit destructor for 'sDbControllerTimer'', COMDAT
  00000	b9 00 00 00 00	 mov	 ecx, OFFSET ?sDbControllerTimer@?1??GetInstance@CDbControllerTimer@@SAPAV2@XZ@4V2@A
  00005	e9 00 00 00 00	 jmp	 ??1CDbControllerTimer@@UAE@XZ ; CDbControllerTimer::~CDbControllerTimer
??__FsDbControllerTimer@?1??GetInstance@CDbControllerTimer@@SAPAV1@XZ@YAXXZ ENDP ; `CDbControllerTimer::GetInstance'::`2'::`dynamic atexit destructor for 'sDbControllerTimer''
text$yd	ENDS
; Function compile flags: /Ogtp
; File C:\IAGOS\server\v18\Source\Source\DatabaseServer\dbcontroller.cpp
; File C:\IAGOS\server\v18\Source\Source\_Network\Mcl\Include\CMclCritSec.h
; File C:\IAGOS\server\v18\Source\Source\DatabaseServer\dbcontroller.cpp
; File C:\IAGOS\server\v18\Source\Source\_Network\Mcl\Include\CMclCritSec.h
; File C:\IAGOS\server\v18\Source\Source\DatabaseServer\dbcontroller.cpp
; File C:\IAGOS\server\v18\Source\Source\_Network\Mcl\Include\CMclCritSec.h
; File C:\IAGOS\server\v18\Source\Source\DatabaseServer\dbcontroller.cpp
; File C:\IAGOS\server\v18\Source\Source\_Network\Mcl\Include\CMclCritSec.h
; File C:\IAGOS\server\v18\Source\Source\DatabaseServer\dbcontroller.cpp
; File C:\IAGOS\server\v18\Source\Source\_Network\Mcl\Include\CMclCritSec.h
; File C:\IAGOS\server\v18\Source\Source\DatabaseServer\dbcontroller.cpp
;	COMDAT ?Post@post@@YAXKPAVCMail@@PAVCQuery@@@Z
_TEXT	SEGMENT
_pQuery$GSCopy$1$ = -40976				; size = 4
_cbLen$1 = -40972					; size = 4
_pPost$1$ = -40968					; size = 4
_szQuery$2 = -40964					; size = 40960
__$ArrayPad$ = -4					; size = 4
_idReceiver$ = 8					; size = 4
_pMail$ = 12						; size = 4
_pQuery$ = 16						; size = 4
?Post@post@@YAXKPAVCMail@@PAVCQuery@@@Z PROC		; post::Post, COMDAT

; 211  : 	{

  00000	55		 push	 ebp
  00001	8b ec		 mov	 ebp, esp
  00003	b8 10 a0 00 00	 mov	 eax, 40976		; 0000a010H
  00008	e8 00 00 00 00	 call	 __chkstk
  0000d	a1 00 00 00 00	 mov	 eax, DWORD PTR ___security_cookie
  00012	33 c5		 xor	 eax, ebp
  00014	89 45 fc	 mov	 DWORD PTR __$ArrayPad$[ebp], eax
  00017	8b 45 10	 mov	 eax, DWORD PTR _pQuery$[ebp]
  0001a	53		 push	 ebx
  0001b	8b 5d 08	 mov	 ebx, DWORD PTR _idReceiver$[ebp]
  0001e	56		 push	 esi
  0001f	57		 push	 edi
  00020	8b 7d 0c	 mov	 edi, DWORD PTR _pMail$[ebp]
  00023	89 85 f0 5f ff
	ff		 mov	 DWORD PTR _pQuery$GSCopy$1$[ebp], eax

; 212  : 		CPost* pPost	= CPost::GetInstance();

  00029	e8 00 00 00 00	 call	 ?GetInstance@CPost@@SAPAV1@XZ ; CPost::GetInstance
  0002e	8b f0		 mov	 esi, eax
  00030	89 b5 f8 5f ff
	ff		 mov	 DWORD PTR _pPost$1$[ebp], esi
; File C:\IAGOS\server\v18\Source\Source\_Network\Mcl\Include\CMclCritSec.h

; 33   : 		::EnterCriticalSection( &m_CritSec );

  00036	8d 46 10	 lea	 eax, DWORD PTR [esi+16]
  00039	50		 push	 eax
  0003a	ff 15 00 00 00
	00		 call	 DWORD PTR __imp__EnterCriticalSection@4
; File C:\IAGOS\server\v18\Source\Source\DatabaseServer\dbcontroller.cpp

; 214  : 		BOOL bResult	= pPost->AddMail( idReceiver, pMail ) > 0;

  00040	57		 push	 edi
  00041	53		 push	 ebx
  00042	8b ce		 mov	 ecx, esi
  00044	e8 00 00 00 00	 call	 ?AddMail@CPost@@QAEKKPAVCMail@@@Z ; CPost::AddMail
  00049	8b f0		 mov	 esi, eax
; File C:\IAGOS\server\v18\Source\Source\_Network\Mcl\Include\CMclCritSec.h

; 39   : 		::LeaveCriticalSection( &m_CritSec );

  0004b	8b 85 f8 5f ff
	ff		 mov	 eax, DWORD PTR _pPost$1$[ebp]
  00051	83 c0 10	 add	 eax, 16			; 00000010H
  00054	50		 push	 eax
  00055	ff 15 00 00 00
	00		 call	 DWORD PTR __imp__LeaveCriticalSection@4
; File C:\IAGOS\server\v18\Source\Source\DatabaseServer\dbcontroller.cpp

; 216  : 		if( bResult )

  0005b	85 f6		 test	 esi, esi
  0005d	0f 84 ef 00 00
	00		 je	 $LN5@Post

; 217  : 		{
; 218  : 			char szQuery[QUERY_SIZE]	= {0, };

  00063	68 00 a0 00 00	 push	 40960			; 0000a000H
  00068	8d 85 fc 5f ff
	ff		 lea	 eax, DWORD PTR _szQuery$2[ebp]
  0006e	6a 00		 push	 0
  00070	50		 push	 eax
  00071	e8 00 00 00 00	 call	 _memset

; 219  : 			CDbManager::MakeQueryAddMail( szQuery, pMail, idReceiver );

  00076	53		 push	 ebx
  00077	8d 85 fc 5f ff
	ff		 lea	 eax, DWORD PTR _szQuery$2[ebp]
  0007d	57		 push	 edi
  0007e	50		 push	 eax
  0007f	e8 00 00 00 00	 call	 ?MakeQueryAddMail@CDbManager@@SAXPADPAVCMail@@K@Z ; CDbManager::MakeQueryAddMail

; 220  : 			SQLINTEGER cbLen	= SQL_NTS;
; 221  : 			BOOL bOk	= pQuery->BindParameter( 1, SQL_PARAM_INPUT, SQL_C_CHAR, SQL_VARCHAR, 128, 0, (void*)pMail->m_szTitle, 0, &cbLen )

  00084	8b b5 f0 5f ff
	ff		 mov	 esi, DWORD PTR _pQuery$GSCopy$1$[ebp]
  0008a	8d 85 f4 5f ff
	ff		 lea	 eax, DWORD PTR _cbLen$1[ebp]
  00090	83 c4 18	 add	 esp, 24			; 00000018H
  00093	c7 85 f4 5f ff
	ff fd ff ff ff	 mov	 DWORD PTR _cbLen$1[ebp], -3 ; fffffffdH
  0009d	8b ce		 mov	 ecx, esi
  0009f	50		 push	 eax
  000a0	6a 00		 push	 0
  000a2	8d 47 19	 lea	 eax, DWORD PTR [edi+25]
  000a5	50		 push	 eax
  000a6	6a 00		 push	 0
  000a8	68 80 00 00 00	 push	 128			; 00000080H
  000ad	6a 0c		 push	 12			; 0000000cH
  000af	6a 01		 push	 1
  000b1	6a 01		 push	 1
  000b3	6a 01		 push	 1
  000b5	e8 00 00 00 00	 call	 ?BindParameter@CQuery@@QAEHGFFFKFPAXJPAJ@Z ; CQuery::BindParameter
  000ba	85 c0		 test	 eax, eax
  000bc	74 5a		 je	 SHORT $LN4@Post
  000be	8d 85 f4 5f ff
	ff		 lea	 eax, DWORD PTR _cbLen$1[ebp]
  000c4	8b ce		 mov	 ecx, esi
  000c6	50		 push	 eax
  000c7	6a 00		 push	 0
  000c9	8d 47 39	 lea	 eax, DWORD PTR [edi+57]
  000cc	50		 push	 eax
  000cd	6a 00		 push	 0
  000cf	68 00 04 00 00	 push	 1024			; 00000400H
  000d4	6a 0c		 push	 12			; 0000000cH
  000d6	6a 01		 push	 1
  000d8	6a 01		 push	 1
  000da	6a 02		 push	 2
  000dc	e8 00 00 00 00	 call	 ?BindParameter@CQuery@@QAEHGFFFKFPAXJPAJ@Z ; CQuery::BindParameter
  000e1	85 c0		 test	 eax, eax
  000e3	74 33		 je	 SHORT $LN4@Post

; 222  : 				&& pQuery->BindParameter( 2, SQL_PARAM_INPUT, SQL_C_CHAR, SQL_VARCHAR, 1024, 0, (void*)pMail->m_szText, 0, &cbLen );
; 223  : 			if( bOk )
; 224  : 				bOk		= pQuery->Exec( szQuery );

  000e5	8d 85 fc 5f ff
	ff		 lea	 eax, DWORD PTR _szQuery$2[ebp]
  000eb	8b ce		 mov	 ecx, esi
  000ed	50		 push	 eax
  000ee	e8 00 00 00 00	 call	 ?Exec@CQuery@@QAEHPBD@Z	; CQuery::Exec

; 225  : 			if( bOk )

  000f3	85 c0		 test	 eax, eax
  000f5	74 21		 je	 SHORT $LN4@Post

; 226  : 			{
; 227  : 				CDPTrans::GetInstance()->SendPostMail( TRUE, idReceiver, pMail );

  000f7	57		 push	 edi
  000f8	53		 push	 ebx
  000f9	6a 01		 push	 1
  000fb	e8 00 00 00 00	 call	 ?GetInstance@CDPTrans@@SAPAV1@XZ ; CDPTrans::GetInstance
  00100	8b c8		 mov	 ecx, eax
  00102	e8 00 00 00 00	 call	 ?SendPostMail@CDPTrans@@QAEXHKPAVCMail@@@Z ; CDPTrans::SendPostMail
  00107	5f		 pop	 edi

; 239  : 	}

  00108	5e		 pop	 esi
  00109	5b		 pop	 ebx
  0010a	8b 4d fc	 mov	 ecx, DWORD PTR __$ArrayPad$[ebp]
  0010d	33 cd		 xor	 ecx, ebp
  0010f	e8 00 00 00 00	 call	 @__security_check_cookie@4
  00114	8b e5		 mov	 esp, ebp
  00116	5d		 pop	 ebp
  00117	c3		 ret	 0
$LN4@Post:

; 231  : 				Error( "BindParameter() or Exec(): PostDeposit()" );

  00118	68 00 00 00 00	 push	 OFFSET ??_C@_0CJ@PIJPFKHL@BindParameter?$CI?$CJ?5or?5Exec?$CI?$CJ?3?5Post@
  0011d	e8 00 00 00 00	 call	 ?Error@@YAPBDPBDZZ	; Error
; File C:\IAGOS\server\v18\Source\Source\_Network\Mcl\Include\CMclCritSec.h

; 33   : 		::EnterCriticalSection( &m_CritSec );

  00122	8b b5 f8 5f ff
	ff		 mov	 esi, DWORD PTR _pPost$1$[ebp]
; File C:\IAGOS\server\v18\Source\Source\DatabaseServer\dbcontroller.cpp

; 231  : 				Error( "BindParameter() or Exec(): PostDeposit()" );

  00128	83 c4 04	 add	 esp, 4
; File C:\IAGOS\server\v18\Source\Source\_Network\Mcl\Include\CMclCritSec.h

; 33   : 		::EnterCriticalSection( &m_CritSec );

  0012b	83 c6 10	 add	 esi, 16			; 00000010H
  0012e	56		 push	 esi
  0012f	ff 15 00 00 00
	00		 call	 DWORD PTR __imp__EnterCriticalSection@4
; File C:\IAGOS\server\v18\Source\Source\DatabaseServer\dbcontroller.cpp

; 233  : 				CMailBox* pMailBox	= pPost->GetMailBox( idReceiver );

  00135	8b 8d f8 5f ff
	ff		 mov	 ecx, DWORD PTR _pPost$1$[ebp]
  0013b	53		 push	 ebx
  0013c	e8 00 00 00 00	 call	 ?GetMailBox@CPost@@QAEPAVCMailBox@@K@Z ; CPost::GetMailBox

; 234  : 				ASSERT( pMailBox );
; 235  : 				pMailBox->RemoveMail( pMail->m_nMail );

  00141	ff 77 04	 push	 DWORD PTR [edi+4]
  00144	8b c8		 mov	 ecx, eax
  00146	e8 00 00 00 00	 call	 ?RemoveMail@CMailBox@@QAEHK@Z ; CMailBox::RemoveMail
; File C:\IAGOS\server\v18\Source\Source\_Network\Mcl\Include\CMclCritSec.h

; 39   : 		::LeaveCriticalSection( &m_CritSec );

  0014b	56		 push	 esi
  0014c	ff 15 00 00 00
	00		 call	 DWORD PTR __imp__LeaveCriticalSection@4
$LN5@Post:
; File C:\IAGOS\server\v18\Source\Source\DatabaseServer\dbcontroller.cpp

; 239  : 	}

  00152	8b 4d fc	 mov	 ecx, DWORD PTR __$ArrayPad$[ebp]
  00155	5f		 pop	 edi
  00156	5e		 pop	 esi
  00157	33 cd		 xor	 ecx, ebp
  00159	5b		 pop	 ebx
  0015a	e8 00 00 00 00	 call	 @__security_check_cookie@4
  0015f	8b e5		 mov	 esp, ebp
  00161	5d		 pop	 ebp
  00162	c3		 ret	 0
?Post@post@@YAXKPAVCMail@@PAVCQuery@@@Z ENDP		; post::Post
_TEXT	ENDS
; Function compile flags: /Ogtp
;	COMDAT ??_GCDbControllerTimer@@UAEPAXI@Z
_TEXT	SEGMENT
___flags$ = 8						; size = 4
??_GCDbControllerTimer@@UAEPAXI@Z PROC			; CDbControllerTimer::`scalar deleting destructor', COMDAT
; _this$ = ecx
  00000	55		 push	 ebp
  00001	8b ec		 mov	 ebp, esp
  00003	56		 push	 esi
  00004	8b f1		 mov	 esi, ecx
  00006	e8 00 00 00 00	 call	 ??1CDbControllerTimer@@UAE@XZ ; CDbControllerTimer::~CDbControllerTimer
  0000b	f6 45 08 01	 test	 BYTE PTR ___flags$[ebp], 1
  0000f	74 0b		 je	 SHORT $LN5@scalar
  00011	6a 34		 push	 52			; 00000034H
  00013	56		 push	 esi
  00014	e8 00 00 00 00	 call	 ??3@YAXPAXI@Z		; operator delete
  00019	83 c4 08	 add	 esp, 8
$LN5@scalar:
  0001c	8b c6		 mov	 eax, esi
  0001e	5e		 pop	 esi
  0001f	5d		 pop	 ebp
  00020	c2 04 00	 ret	 4
??_GCDbControllerTimer@@UAEPAXI@Z ENDP			; CDbControllerTimer::`scalar deleting destructor'
_TEXT	ENDS
; Function compile flags: /Ogtp
; File C:\Program Files\Microsoft Visual Studio\2022\Professional\VC\Tools\MSVC\14.44.35207\include\vector
;	COMDAT ?_Xlength@?$vector@U?$pair@PAVCDbController@@K@std@@V?$allocator@U?$pair@PAVCDbController@@K@std@@@2@@std@@CAXXZ
_TEXT	SEGMENT
?_Xlength@?$vector@U?$pair@PAVCDbController@@K@std@@V?$allocator@U?$pair@PAVCDbController@@K@std@@@2@@std@@CAXXZ PROC ; std::vector<std::pair<CDbController *,unsigned long>,std::allocator<std::pair<CDbController *,unsigned long> > >::_Xlength, COMDAT

; 2184 :         _Xlength_error("vector too long");

  00000	68 00 00 00 00	 push	 OFFSET ??_C@_0BA@FOIKENOD@vector?5too?5long@
  00005	e8 00 00 00 00	 call	 ?_Xlength_error@std@@YAXPBD@Z ; std::_Xlength_error
$LN3@Xlength:
  0000a	cc		 int	 3
?_Xlength@?$vector@U?$pair@PAVCDbController@@K@std@@V?$allocator@U?$pair@PAVCDbController@@K@std@@@2@@std@@CAXXZ ENDP ; std::vector<std::pair<CDbController *,unsigned long>,std::allocator<std::pair<CDbController *,unsigned long> > >::_Xlength
_TEXT	ENDS
; Function compile flags: /Ogtp
; File C:\Program Files\Microsoft Visual Studio\2022\Professional\VC\Tools\MSVC\14.44.35207\include\vector
; File C:\Program Files\Microsoft Visual Studio\2022\Professional\VC\Tools\MSVC\14.44.35207\include\xmemory
; File C:\Program Files\Microsoft Visual Studio\2022\Professional\VC\Tools\MSVC\14.44.35207\include\vector
; File C:\Program Files\Microsoft Visual Studio\2022\Professional\VC\Tools\MSVC\14.44.35207\include\xmemory
; File C:\Program Files\Microsoft Visual Studio\2022\Professional\VC\Tools\MSVC\14.44.35207\include\vector
; File C:\Program Files\Microsoft Visual Studio\2022\Professional\VC\Tools\MSVC\14.44.35207\include\xmemory
; File C:\Program Files\Microsoft Visual Studio\2022\Professional\VC\Tools\MSVC\14.44.35207\include\vector
;	COMDAT ??1?$vector@U?$pair@PAVCDbController@@K@std@@V?$allocator@U?$pair@PAVCDbController@@K@std@@@2@@std@@QAE@XZ
_TEXT	SEGMENT
??1?$vector@U?$pair@PAVCDbController@@K@std@@V?$allocator@U?$pair@PAVCDbController@@K@std@@@2@@std@@QAE@XZ PROC ; std::vector<std::pair<CDbController *,unsigned long>,std::allocator<std::pair<CDbController *,unsigned long> > >::~vector<std::pair<CDbController *,unsigned long>,std::allocator<std::pair<CDbController *,unsigned long> > >, COMDAT
; _this$ = ecx

; 829  :     _CONSTEXPR20 ~vector() noexcept {

  00000	56		 push	 esi
  00001	8b f1		 mov	 esi, ecx

; 2090 :         if (_Myfirst) { // destroy and deallocate old array

  00003	8b 06		 mov	 eax, DWORD PTR [esi]
  00005	85 c0		 test	 eax, eax
  00007	74 40		 je	 SHORT $LN5@vector

; 2091 :             _STD _Destroy_range(_Myfirst, _Mylast, _Al);
; 2092 :             _ASAN_VECTOR_REMOVE;
; 2093 :             _Al.deallocate(_Myfirst, static_cast<size_type>(_Myend - _Myfirst));

  00009	8b 4e 08	 mov	 ecx, DWORD PTR [esi+8]
  0000c	2b c8		 sub	 ecx, eax
; File C:\Program Files\Microsoft Visual Studio\2022\Professional\VC\Tools\MSVC\14.44.35207\include\xmemory

; 985  :         _STD _Deallocate<_New_alignof<_Ty>>(_Ptr, sizeof(_Ty) * _Count);

  0000e	83 e1 f8	 and	 ecx, -8			; fffffff8H

; 284  :         if (_Bytes >= _Big_allocation_threshold) {

  00011	81 f9 00 10 00
	00		 cmp	 ecx, 4096		; 00001000H
  00017	72 12		 jb	 SHORT $LN18@vector

; 205  :     const uintptr_t _Ptr_container   = _Ptr_user[-1];

  00019	8b 50 fc	 mov	 edx, DWORD PTR [eax-4]
  0001c	83 c1 23	 add	 ecx, 35			; 00000023H

; 206  : 
; 207  :     // If the following asserts, it likely means that we are performing
; 208  :     // an aligned delete on memory coming from an unaligned allocation.
; 209  :     _STL_ASSERT(_Ptr_user[-2] == _Big_allocation_sentinel, "invalid argument");
; 210  : 
; 211  :     // Extra paranoia on aligned allocation/deallocation; ensure _Ptr_container is
; 212  :     // in range [_Min_back_shift, _Non_user_size]
; 213  : #ifdef _DEBUG
; 214  :     constexpr uintptr_t _Min_back_shift = 2 * sizeof(void*);
; 215  : #else // ^^^ defined(_DEBUG) / !defined(_DEBUG) vvv
; 216  :     constexpr uintptr_t _Min_back_shift = sizeof(void*);
; 217  : #endif // ^^^ !defined(_DEBUG) ^^^
; 218  :     const uintptr_t _Back_shift = reinterpret_cast<uintptr_t>(_Ptr) - _Ptr_container;

  0001f	2b c2		 sub	 eax, edx

; 219  :     _STL_VERIFY(_Back_shift >= _Min_back_shift && _Back_shift <= _Non_user_size, "invalid argument");

  00021	83 c0 fc	 add	 eax, -4			; fffffffcH
  00024	83 f8 1f	 cmp	 eax, 31			; 0000001fH
  00027	77 22		 ja	 SHORT $LN17@vector

; 220  :     _Ptr = reinterpret_cast<void*>(_Ptr_container);

  00029	8b c2		 mov	 eax, edx
$LN18@vector:

; 289  :         ::operator delete(_Ptr, _Bytes);

  0002b	51		 push	 ecx
  0002c	50		 push	 eax
  0002d	e8 00 00 00 00	 call	 ??3@YAXPAXI@Z		; operator delete
; File C:\Program Files\Microsoft Visual Studio\2022\Professional\VC\Tools\MSVC\14.44.35207\include\vector

; 2095 :             _Myfirst = nullptr;

  00032	c7 06 00 00 00
	00		 mov	 DWORD PTR [esi], 0
; File C:\Program Files\Microsoft Visual Studio\2022\Professional\VC\Tools\MSVC\14.44.35207\include\xmemory

; 289  :         ::operator delete(_Ptr, _Bytes);

  00038	83 c4 08	 add	 esp, 8
; File C:\Program Files\Microsoft Visual Studio\2022\Professional\VC\Tools\MSVC\14.44.35207\include\vector

; 2096 :             _Mylast  = nullptr;

  0003b	c7 46 04 00 00
	00 00		 mov	 DWORD PTR [esi+4], 0

; 2097 :             _Myend   = nullptr;

  00042	c7 46 08 00 00
	00 00		 mov	 DWORD PTR [esi+8], 0
$LN5@vector:
  00049	5e		 pop	 esi

; 835  :     }

  0004a	c3		 ret	 0
$LN17@vector:
; File C:\Program Files\Microsoft Visual Studio\2022\Professional\VC\Tools\MSVC\14.44.35207\include\xmemory

; 219  :     _STL_VERIFY(_Back_shift >= _Min_back_shift && _Back_shift <= _Non_user_size, "invalid argument");

  0004b	6a 00		 push	 0
  0004d	6a 00		 push	 0
  0004f	6a 00		 push	 0
  00051	6a 00		 push	 0
  00053	6a 00		 push	 0
  00055	e8 00 00 00 00	 call	 __invoke_watson
$LN26@vector:
  0005a	cc		 int	 3
??1?$vector@U?$pair@PAVCDbController@@K@std@@V?$allocator@U?$pair@PAVCDbController@@K@std@@@2@@std@@QAE@XZ ENDP ; std::vector<std::pair<CDbController *,unsigned long>,std::allocator<std::pair<CDbController *,unsigned long> > >::~vector<std::pair<CDbController *,unsigned long>,std::allocator<std::pair<CDbController *,unsigned long> > >
_TEXT	ENDS
; Function compile flags: /Ogtp
; File C:\IAGOS\server\v18\Source\Source\DatabaseServer\dbcontroller.cpp
; File C:\IAGOS\server\v18\Source\Source\_Network\Mcl\Include\CMclAutoLock.h
; File C:\IAGOS\server\v18\Source\Source\DatabaseServer\dbcontroller.cpp
; File C:\IAGOS\server\v18\Source\Source\_Network\Mcl\Include\CMclCritSec.h
; File C:\IAGOS\server\v18\Source\Source\DatabaseServer\dbcontroller.cpp
; File C:\IAGOS\server\v18\Source\Source\_Network\Mcl\Include\CMclCritSec.h
; File C:\Program Files\Microsoft Visual Studio\2022\Professional\VC\Tools\MSVC\14.44.35207\include\vector
; File C:\IAGOS\server\v18\Source\Source\DatabaseServer\dbcontroller.cpp
; File C:\Program Files\Microsoft Visual Studio\2022\Professional\VC\Tools\MSVC\14.44.35207\include\vector
; File C:\IAGOS\server\v18\Source\Source\DatabaseServer\dbcontroller.cpp
; File C:\Program Files\Microsoft Visual Studio\2022\Professional\VC\Tools\MSVC\14.44.35207\include\vector
; File C:\IAGOS\server\v18\Source\Source\DatabaseServer\dbcontroller.cpp
; File C:\IAGOS\server\v18\Source\Source\_Network\Mcl\Include\CMclCritSec.h
; File C:\IAGOS\server\v18\Source\Source\DatabaseServer\dbcontroller.cpp
; File C:\IAGOS\server\v18\Source\Source\_Network\Mcl\Include\CMclCritSec.h
; File C:\IAGOS\server\v18\Source\Source\DatabaseServer\dbcontroller.cpp
;	COMDAT ?Tick@CDbControllerTimer@@AAEXXZ
_TEXT	SEGMENT
_Lock$2 = -20						; size = 4
tv350 = -16						; size = 4
__$EHRec$ = -12						; size = 12
?Tick@CDbControllerTimer@@AAEXXZ PROC			; CDbControllerTimer::Tick, COMDAT
; _this$ = ecx

; 172  : {

  00000	55		 push	 ebp
  00001	8b ec		 mov	 ebp, esp
  00003	6a ff		 push	 -1
  00005	68 00 00 00 00	 push	 __ehhandler$?Tick@CDbControllerTimer@@AAEXXZ
  0000a	64 a1 00 00 00
	00		 mov	 eax, DWORD PTR fs:0
  00010	50		 push	 eax
  00011	83 ec 08	 sub	 esp, 8
  00014	53		 push	 ebx
  00015	56		 push	 esi
  00016	57		 push	 edi
  00017	a1 00 00 00 00	 mov	 eax, DWORD PTR ___security_cookie
  0001c	33 c5		 xor	 eax, ebp
  0001e	50		 push	 eax
  0001f	8d 45 f4	 lea	 eax, DWORD PTR __$EHRec$[ebp]
  00022	64 a3 00 00 00
	00		 mov	 DWORD PTR fs:0, eax
  00028	8b f9		 mov	 edi, ecx

; 173  : 	while( WaitForSingleObject( m_hCloseTick, SEC( 1 ) ) != WAIT_OBJECT_0 )

  0002a	68 e8 03 00 00	 push	 1000			; 000003e8H
  0002f	ff 77 30	 push	 DWORD PTR [edi+48]
  00032	ff 15 00 00 00
	00		 call	 DWORD PTR __imp__WaitForSingleObject@8
  00038	85 c0		 test	 eax, eax
  0003a	74 71		 je	 SHORT $LN3@Tick
  0003c	8d 47 10	 lea	 eax, DWORD PTR [edi+16]
  0003f	8d 70 04	 lea	 esi, DWORD PTR [eax+4]
; File C:\IAGOS\server\v18\Source\Source\_Network\Mcl\Include\CMclAutoLock.h

; 21   : 		m_pcCritSec = &rCMclCritSec;

  00042	89 45 ec	 mov	 DWORD PTR _Lock$2[ebp], eax
  00045	89 75 f0	 mov	 DWORD PTR tv350[ebp], esi
$LL2@Tick:
; File C:\IAGOS\server\v18\Source\Source\DatabaseServer\dbcontroller.cpp

; 175  : 		DWORD dwTick	= GetTickCount();

  00048	ff 15 00 00 00
	00		 call	 DWORD PTR __imp__GetTickCount@0
; File C:\IAGOS\server\v18\Source\Source\_Network\Mcl\Include\CMclCritSec.h

; 33   : 		::EnterCriticalSection( &m_CritSec );

  0004e	56		 push	 esi
; File C:\IAGOS\server\v18\Source\Source\DatabaseServer\dbcontroller.cpp

; 175  : 		DWORD dwTick	= GetTickCount();

  0004f	8b d8		 mov	 ebx, eax
; File C:\IAGOS\server\v18\Source\Source\_Network\Mcl\Include\CMclCritSec.h

; 33   : 		::EnterCriticalSection( &m_CritSec );

  00051	ff 15 00 00 00
	00		 call	 DWORD PTR __imp__EnterCriticalSection@4
; File C:\Program Files\Microsoft Visual Studio\2022\Professional\VC\Tools\MSVC\14.44.35207\include\vector

; 46   :     _CONSTEXPR20 _Vector_const_iterator(_Tptr _Parg, const _Container_base* _Pvector) noexcept : _Ptr(_Parg) {

  00057	8b 77 04	 mov	 esi, DWORD PTR [edi+4]
; File C:\IAGOS\server\v18\Source\Source\DatabaseServer\dbcontroller.cpp

; 176  : 		CMclAutoLock Lock( m_csLock );

  0005a	c7 45 fc 00 00
	00 00		 mov	 DWORD PTR __$EHRec$[ebp+8], 0
; File C:\Program Files\Microsoft Visual Studio\2022\Professional\VC\Tools\MSVC\14.44.35207\include\vector

; 176  :         return !(*this == _Right);

  00061	3b 77 08	 cmp	 esi, DWORD PTR [edi+8]
; File C:\IAGOS\server\v18\Source\Source\DatabaseServer\dbcontroller.cpp

; 177  : 		for( VPDD::iterator i = m_vDbController.begin(); i != m_vDbController.end(); i++ )

  00064	74 24		 je	 SHORT $LN5@Tick
$LL6@Tick:

; 178  : 		{
; 179  : 			if( dwTick > ( *i ).second )

  00066	3b 5e 04	 cmp	 ebx, DWORD PTR [esi+4]
  00069	76 17		 jbe	 SHORT $LN4@Tick

; 180  : 			{
; 181  : 				( *i ).first->PostRequest( CDbController::eTimer, NULL, 0, 0 );

  0006b	8b 0e		 mov	 ecx, DWORD PTR [esi]
  0006d	6a 00		 push	 0
  0006f	6a 00		 push	 0
  00071	6a 00		 push	 0
  00073	6a ff		 push	 -1
  00075	e8 00 00 00 00	 call	 ?PostRequest@CDbController@@QAEHHPAEHK@Z ; CDbController::PostRequest

; 182  : 				( *i ).second	+= ( *i ).first->GetTimer();

  0007a	8b 06		 mov	 eax, DWORD PTR [esi]
  0007c	8b 40 10	 mov	 eax, DWORD PTR [eax+16]
  0007f	01 46 04	 add	 DWORD PTR [esi+4], eax
$LN4@Tick:
; File C:\Program Files\Microsoft Visual Studio\2022\Professional\VC\Tools\MSVC\14.44.35207\include\vector

; 82   :         ++_Ptr;

  00082	83 c6 08	 add	 esi, 8

; 176  :         return !(*this == _Right);

  00085	3b 77 08	 cmp	 esi, DWORD PTR [edi+8]
; File C:\IAGOS\server\v18\Source\Source\DatabaseServer\dbcontroller.cpp

; 177  : 		for( VPDD::iterator i = m_vDbController.begin(); i != m_vDbController.end(); i++ )

  00088	75 dc		 jne	 SHORT $LL6@Tick
$LN5@Tick:
; File C:\IAGOS\server\v18\Source\Source\_Network\Mcl\Include\CMclCritSec.h

; 39   : 		::LeaveCriticalSection( &m_CritSec );

  0008a	8b 75 f0	 mov	 esi, DWORD PTR tv350[ebp]
  0008d	56		 push	 esi
; File C:\IAGOS\server\v18\Source\Source\DatabaseServer\dbcontroller.cpp

; 185  : 	}

  0008e	c7 45 fc ff ff
	ff ff		 mov	 DWORD PTR __$EHRec$[ebp+8], -1
; File C:\IAGOS\server\v18\Source\Source\_Network\Mcl\Include\CMclCritSec.h

; 39   : 		::LeaveCriticalSection( &m_CritSec );

  00095	ff 15 00 00 00
	00		 call	 DWORD PTR __imp__LeaveCriticalSection@4
; File C:\IAGOS\server\v18\Source\Source\DatabaseServer\dbcontroller.cpp

; 173  : 	while( WaitForSingleObject( m_hCloseTick, SEC( 1 ) ) != WAIT_OBJECT_0 )

  0009b	68 e8 03 00 00	 push	 1000			; 000003e8H
  000a0	ff 77 30	 push	 DWORD PTR [edi+48]
  000a3	ff 15 00 00 00
	00		 call	 DWORD PTR __imp__WaitForSingleObject@8
  000a9	85 c0		 test	 eax, eax
  000ab	75 9b		 jne	 SHORT $LL2@Tick
$LN3@Tick:

; 186  : }

  000ad	8b 4d f4	 mov	 ecx, DWORD PTR __$EHRec$[ebp]
  000b0	64 89 0d 00 00
	00 00		 mov	 DWORD PTR fs:0, ecx
  000b7	59		 pop	 ecx
  000b8	5f		 pop	 edi
  000b9	5e		 pop	 esi
  000ba	5b		 pop	 ebx
  000bb	8b e5		 mov	 esp, ebp
  000bd	5d		 pop	 ebp
  000be	c3		 ret	 0
_TEXT	ENDS
;	COMDAT text$x
text$x	SEGMENT
__unwindfunclet$?Tick@CDbControllerTimer@@AAEXXZ$0:
  00000	8d 4d ec	 lea	 ecx, DWORD PTR _Lock$2[ebp]
  00003	e9 00 00 00 00	 jmp	 ??1CMclAutoLock@@QAE@XZ	; CMclAutoLock::~CMclAutoLock
  00008	cc		 int	 3
  00009	cc		 int	 3
  0000a	cc		 int	 3
  0000b	cc		 int	 3
  0000c	cc		 int	 3
__ehhandler$?Tick@CDbControllerTimer@@AAEXXZ:
  0000d	90		 npad	 1
  0000e	90		 npad	 1
  0000f	8b 54 24 08	 mov	 edx, DWORD PTR [esp+8]
  00013	8d 42 0c	 lea	 eax, DWORD PTR [edx+12]
  00016	8b 4a e8	 mov	 ecx, DWORD PTR [edx-24]
  00019	33 c8		 xor	 ecx, eax
  0001b	e8 00 00 00 00	 call	 @__security_check_cookie@4
  00020	b8 00 00 00 00	 mov	 eax, OFFSET __ehfuncinfo$?Tick@CDbControllerTimer@@AAEXXZ
  00025	e9 00 00 00 00	 jmp	 ___CxxFrameHandler3
text$x	ENDS
?Tick@CDbControllerTimer@@AAEXXZ ENDP			; CDbControllerTimer::Tick
; Function compile flags: /Ogtp
; File C:\IAGOS\server\v18\Source\Source\DatabaseServer\dbcontroller.cpp
;	COMDAT ?_Tick@CDbControllerTimer@@CAIPAX@Z
_TEXT	SEGMENT
_pParam$ = 8						; size = 4
?_Tick@CDbControllerTimer@@CAIPAX@Z PROC		; CDbControllerTimer::_Tick, COMDAT

; 165  : {

  00000	55		 push	 ebp
  00001	8b ec		 mov	 ebp, esp

; 166  : 	CDbControllerTimer* pTimer	= reinterpret_cast<CDbControllerTimer*>( pParam );
; 167  : 	pTimer->Tick();

  00003	8b 4d 08	 mov	 ecx, DWORD PTR _pParam$[ebp]
  00006	e8 00 00 00 00	 call	 ?Tick@CDbControllerTimer@@AAEXXZ ; CDbControllerTimer::Tick

; 168  : 	return 0;

  0000b	33 c0		 xor	 eax, eax

; 169  : }

  0000d	5d		 pop	 ebp
  0000e	c3		 ret	 0
?_Tick@CDbControllerTimer@@CAIPAX@Z ENDP		; CDbControllerTimer::_Tick
_TEXT	ENDS
; Function compile flags: /Ogtp
; File C:\IAGOS\server\v18\Source\Source\DatabaseServer\dbcontroller.cpp
; File C:\IAGOS\server\v18\Source\Source\_Network\Mcl\Include\CMclCritSec.h
; File C:\Program Files\Microsoft Visual Studio\2022\Professional\VC\Tools\MSVC\14.44.35207\include\vector
; File C:\IAGOS\server\v18\Source\Source\_Network\Mcl\Include\CMclCritSec.h
; File C:\IAGOS\server\v18\Source\Source\DatabaseServer\dbcontroller.cpp
;	COMDAT ??0CDbControllerTimer@@AAE@XZ
_TEXT	SEGMENT
_this$ = -4						; size = 4
??0CDbControllerTimer@@AAE@XZ PROC			; CDbControllerTimer::CDbControllerTimer, COMDAT
; _this$ = ecx

; 151  : {

  00000	55		 push	 ebp
  00001	8b ec		 mov	 ebp, esp
  00003	51		 push	 ecx
  00004	56		 push	 esi
  00005	8b f1		 mov	 esi, ecx
  00007	89 75 fc	 mov	 DWORD PTR _this$[ebp], esi
  0000a	c7 06 00 00 00
	00		 mov	 DWORD PTR [esi], OFFSET ??_7CDbControllerTimer@@6B@
; File C:\IAGOS\server\v18\Source\Source\_Network\Mcl\Include\CMclCritSec.h

; 21   : 		::InitializeCriticalSection( &m_CritSec );

  00010	8d 46 14	 lea	 eax, DWORD PTR [esi+20]
; File C:\Program Files\Microsoft Visual Studio\2022\Professional\VC\Tools\MSVC\14.44.35207\include\vector

; 400  :     _CONSTEXPR20 _Vector_val() noexcept : _Myfirst(), _Mylast(), _Myend() {}

  00013	c7 46 04 00 00
	00 00		 mov	 DWORD PTR [esi+4], 0
  0001a	c7 46 08 00 00
	00 00		 mov	 DWORD PTR [esi+8], 0
  00021	c7 46 0c 00 00
	00 00		 mov	 DWORD PTR [esi+12], 0
; File C:\IAGOS\server\v18\Source\Source\_Network\Mcl\Include\CMclCritSec.h

; 21   : 		::InitializeCriticalSection( &m_CritSec );

  00028	50		 push	 eax
  00029	c7 46 10 00 00
	00 00		 mov	 DWORD PTR [esi+16], OFFSET ??_7CMclCritSec@@6B@
  00030	ff 15 00 00 00
	00		 call	 DWORD PTR __imp__InitializeCriticalSection@4
; File C:\IAGOS\server\v18\Source\Source\DatabaseServer\dbcontroller.cpp

; 149  : m_hTickThread( 0 ),

  00036	c7 46 2c 00 00
	00 00		 mov	 DWORD PTR [esi+44], 0

; 152  : }

  0003d	8b c6		 mov	 eax, esi
  0003f	c7 46 30 00 00
	00 00		 mov	 DWORD PTR [esi+48], 0
  00046	5e		 pop	 esi
  00047	8b e5		 mov	 esp, ebp
  00049	5d		 pop	 ebp
  0004a	c3		 ret	 0
??0CDbControllerTimer@@AAE@XZ ENDP			; CDbControllerTimer::CDbControllerTimer
_TEXT	ENDS
; Function compile flags: /Ogtp
; File C:\IAGOS\server\v18\Source\Source\DatabaseServer\dbcontroller.cpp
;	COMDAT ?GetInstance@CDbControllerTimer@@SAPAV1@XZ
_TEXT	SEGMENT
?GetInstance@CDbControllerTimer@@SAPAV1@XZ PROC		; CDbControllerTimer::GetInstance, COMDAT

; 204  : 	static CDbControllerTimer sDbControllerTimer;

  00000	64 a1 00 00 00
	00		 mov	 eax, DWORD PTR fs:__tls_array
  00006	8b 0d 00 00 00
	00		 mov	 ecx, DWORD PTR __tls_index
  0000c	8b 0c 88	 mov	 ecx, DWORD PTR [eax+ecx*4]
  0000f	a1 00 00 00 00	 mov	 eax, DWORD PTR ?$TSS0@?1??GetInstance@CDbControllerTimer@@SAPAV2@XZ@4HA
  00014	3b 81 00 00 00
	00		 cmp	 eax, DWORD PTR __Init_thread_epoch[ecx]
  0001a	7f 06		 jg	 SHORT $LN8@GetInstanc
$LN5@GetInstanc:

; 205  : 	return &sDbControllerTimer;
; 206  : }

  0001c	b8 00 00 00 00	 mov	 eax, OFFSET ?sDbControllerTimer@?1??GetInstance@CDbControllerTimer@@SAPAV2@XZ@4V2@A
  00021	c3		 ret	 0
$LN8@GetInstanc:

; 204  : 	static CDbControllerTimer sDbControllerTimer;

  00022	68 00 00 00 00	 push	 OFFSET ?$TSS0@?1??GetInstance@CDbControllerTimer@@SAPAV2@XZ@4HA
  00027	e8 00 00 00 00	 call	 __Init_thread_header
  0002c	83 c4 04	 add	 esp, 4
  0002f	83 3d 00 00 00
	00 ff		 cmp	 DWORD PTR ?$TSS0@?1??GetInstance@CDbControllerTimer@@SAPAV2@XZ@4HA, -1
  00036	75 e4		 jne	 SHORT $LN5@GetInstanc
  00038	b9 00 00 00 00	 mov	 ecx, OFFSET ?sDbControllerTimer@?1??GetInstance@CDbControllerTimer@@SAPAV2@XZ@4V2@A
  0003d	e8 00 00 00 00	 call	 ??0CDbControllerTimer@@AAE@XZ ; CDbControllerTimer::CDbControllerTimer
  00042	68 00 00 00 00	 push	 OFFSET ??__FsDbControllerTimer@?1??GetInstance@CDbControllerTimer@@SAPAV1@XZ@YAXXZ ; `CDbControllerTimer::GetInstance'::`2'::`dynamic atexit destructor for 'sDbControllerTimer''
  00047	e8 00 00 00 00	 call	 _atexit
  0004c	68 00 00 00 00	 push	 OFFSET ?$TSS0@?1??GetInstance@CDbControllerTimer@@SAPAV2@XZ@4HA
  00051	e8 00 00 00 00	 call	 __Init_thread_footer
  00056	83 c4 08	 add	 esp, 8
  00059	eb c1		 jmp	 SHORT $LN5@GetInstanc
?GetInstance@CDbControllerTimer@@SAPAV1@XZ ENDP		; CDbControllerTimer::GetInstance
_TEXT	ENDS
; Function compile flags: /Ogtp
; File C:\IAGOS\server\v18\Source\Source\DatabaseServer\dbcontroller.cpp
;	COMDAT ?Destroy@CDbControllerTimer@@QAEXXZ
_TEXT	SEGMENT
?Destroy@CDbControllerTimer@@QAEXXZ PROC		; CDbControllerTimer::Destroy, COMDAT
; _this$ = ecx

; 198  : {

  00000	57		 push	 edi
  00001	8b f9		 mov	 edi, ecx

; 199  : 	CLOSE_THREAD( m_hTickThread, m_hCloseTick );

  00003	83 7f 2c 00	 cmp	 DWORD PTR [edi+44], 0
  00007	74 34		 je	 SHORT $LN2@Destroy
  00009	ff 77 30	 push	 DWORD PTR [edi+48]
  0000c	ff 15 00 00 00
	00		 call	 DWORD PTR __imp__SetEvent@4
  00012	6a ff		 push	 -1
  00014	ff 77 2c	 push	 DWORD PTR [edi+44]
  00017	ff 15 00 00 00
	00		 call	 DWORD PTR __imp__WaitForSingleObject@8
  0001d	ff 77 2c	 push	 DWORD PTR [edi+44]
  00020	ff 15 00 00 00
	00		 call	 DWORD PTR __imp__CloseHandle@4
  00026	ff 77 30	 push	 DWORD PTR [edi+48]
  00029	ff 15 00 00 00
	00		 call	 DWORD PTR __imp__CloseHandle@4
  0002f	c7 47 30 00 00
	00 00		 mov	 DWORD PTR [edi+48], 0
  00036	c7 47 2c 00 00
	00 00		 mov	 DWORD PTR [edi+44], 0
$LN2@Destroy:

; 200  : }

  0003d	5f		 pop	 edi
  0003e	c3		 ret	 0
?Destroy@CDbControllerTimer@@QAEXXZ ENDP		; CDbControllerTimer::Destroy
_TEXT	ENDS
; Function compile flags: /Ogtp
; File C:\IAGOS\server\v18\Source\Source\DatabaseServer\dbcontroller.cpp
;	COMDAT ?Create@CDbControllerTimer@@QAEXXZ
_TEXT	SEGMENT
_dwThreadId$ = -4					; size = 4
?Create@CDbControllerTimer@@QAEXXZ PROC			; CDbControllerTimer::Create, COMDAT
; _this$ = ecx

; 189  : {

  00000	55		 push	 ebp
  00001	8b ec		 mov	 ebp, esp
  00003	51		 push	 ecx
  00004	56		 push	 esi

; 190  : 	DWORD dwThreadId	= 0;
; 191  : 	m_hCloseTick	= CreateEvent( NULL, FALSE, FALSE, NULL );

  00005	6a 00		 push	 0
  00007	6a 00		 push	 0
  00009	6a 00		 push	 0
  0000b	6a 00		 push	 0
  0000d	8b f1		 mov	 esi, ecx
  0000f	c7 45 fc 00 00
	00 00		 mov	 DWORD PTR _dwThreadId$[ebp], 0
  00016	ff 15 00 00 00
	00		 call	 DWORD PTR __imp__CreateEventA@16
  0001c	89 46 30	 mov	 DWORD PTR [esi+48], eax

; 192  : 	m_hTickThread	= chBEGINTHREADEX( NULL, 0, _Tick, (LPVOID)this, 0, &dwThreadId );

  0001f	8d 45 fc	 lea	 eax, DWORD PTR _dwThreadId$[ebp]
  00022	50		 push	 eax
  00023	6a 00		 push	 0
  00025	56		 push	 esi
  00026	68 00 00 00 00	 push	 OFFSET ?_Tick@CDbControllerTimer@@CAIPAX@Z ; CDbControllerTimer::_Tick
  0002b	6a 00		 push	 0
  0002d	6a 00		 push	 0
  0002f	e8 00 00 00 00	 call	 __beginthreadex
  00034	83 c4 18	 add	 esp, 24			; 00000018H
  00037	89 46 2c	 mov	 DWORD PTR [esi+44], eax
  0003a	5e		 pop	 esi

; 193  : 	ASSERT( m_hCloseTick );
; 194  : 	ASSERT( m_hTickThread );
; 195  : }

  0003b	8b e5		 mov	 esp, ebp
  0003d	5d		 pop	 ebp
  0003e	c3		 ret	 0
?Create@CDbControllerTimer@@QAEXXZ ENDP			; CDbControllerTimer::Create
_TEXT	ENDS
; Function compile flags: /Ogtp
; File C:\IAGOS\server\v18\Source\Source\DatabaseServer\dbcontroller.cpp
; File C:\IAGOS\server\v18\Source\Source\_Network\Mcl\Include\CMclCritSec.h
; File C:\IAGOS\server\v18\Source\Source\_Network\Mcl\Include\CMclAutoLock.h
; File C:\IAGOS\server\v18\Source\Source\_Network\Mcl\Include\CMclCritSec.h
; File C:\IAGOS\server\v18\Source\Source\DatabaseServer\dbcontroller.h
; File C:\IAGOS\server\v18\Source\Source\DatabaseServer\dbcontroller.cpp
; File C:\Program Files\Microsoft Visual Studio\2022\Professional\VC\Tools\MSVC\14.44.35207\include\utility
; File C:\IAGOS\server\v18\Source\Source\DatabaseServer\dbcontroller.h
; File C:\IAGOS\server\v18\Source\Source\DatabaseServer\dbcontroller.cpp
; File C:\Program Files\Microsoft Visual Studio\2022\Professional\VC\Tools\MSVC\14.44.35207\include\vector
; File C:\IAGOS\server\v18\Source\Source\DatabaseServer\dbcontroller.cpp
; File C:\Program Files\Microsoft Visual Studio\2022\Professional\VC\Tools\MSVC\14.44.35207\include\utility
; File C:\Program Files\Microsoft Visual Studio\2022\Professional\VC\Tools\MSVC\14.44.35207\include\vector
; File C:\IAGOS\server\v18\Source\Source\_Network\Mcl\Include\CMclCritSec.h
; File C:\IAGOS\server\v18\Source\Source\DatabaseServer\dbcontroller.cpp
;	COMDAT ?Register@CDbControllerTimer@@QAEXPAVCDbController@@@Z
_TEXT	SEGMENT
$T2 = -24						; size = 8
_Lock$ = -16						; size = 4
__$EHRec$ = -12						; size = 12
_dbCtrl$ = 8						; size = 4
?Register@CDbControllerTimer@@QAEXPAVCDbController@@@Z PROC ; CDbControllerTimer::Register, COMDAT
; _this$ = ecx

; 159  : {

  00000	55		 push	 ebp
  00001	8b ec		 mov	 ebp, esp
  00003	6a ff		 push	 -1
  00005	68 00 00 00 00	 push	 __ehhandler$?Register@CDbControllerTimer@@QAEXPAVCDbController@@@Z
  0000a	64 a1 00 00 00
	00		 mov	 eax, DWORD PTR fs:0
  00010	50		 push	 eax
  00011	83 ec 0c	 sub	 esp, 12			; 0000000cH
  00014	53		 push	 ebx
  00015	56		 push	 esi
  00016	57		 push	 edi
  00017	a1 00 00 00 00	 mov	 eax, DWORD PTR ___security_cookie
  0001c	33 c5		 xor	 eax, ebp
  0001e	50		 push	 eax
  0001f	8d 45 f4	 lea	 eax, DWORD PTR __$EHRec$[ebp]
  00022	64 a3 00 00 00
	00		 mov	 DWORD PTR fs:0, eax
  00028	8b f9		 mov	 edi, ecx

; 160  : 	CMclAutoLock Lock( m_csLock );

  0002a	8d 47 10	 lea	 eax, DWORD PTR [edi+16]
; File C:\IAGOS\server\v18\Source\Source\_Network\Mcl\Include\CMclCritSec.h

; 33   : 		::EnterCriticalSection( &m_CritSec );

  0002d	8d 58 04	 lea	 ebx, DWORD PTR [eax+4]
; File C:\IAGOS\server\v18\Source\Source\_Network\Mcl\Include\CMclAutoLock.h

; 21   : 		m_pcCritSec = &rCMclCritSec;

  00030	89 45 f0	 mov	 DWORD PTR _Lock$[ebp], eax
; File C:\IAGOS\server\v18\Source\Source\_Network\Mcl\Include\CMclCritSec.h

; 33   : 		::EnterCriticalSection( &m_CritSec );

  00033	53		 push	 ebx
  00034	ff 15 00 00 00
	00		 call	 DWORD PTR __imp__EnterCriticalSection@4
; File C:\IAGOS\server\v18\Source\Source\DatabaseServer\dbcontroller.h

; 27   : 	DWORD	GetTimer()	{	return m_dwTimer;	}

  0003a	8b 45 08	 mov	 eax, DWORD PTR _dbCtrl$[ebp]
; File C:\IAGOS\server\v18\Source\Source\DatabaseServer\dbcontroller.cpp

; 160  : 	CMclAutoLock Lock( m_csLock );

  0003d	c7 45 fc 00 00
	00 00		 mov	 DWORD PTR __$EHRec$[ebp+8], 0
; File C:\Program Files\Microsoft Visual Studio\2022\Professional\VC\Tools\MSVC\14.44.35207\include\utility

; 274  :         : first(_STD forward<_Other1>(_Val1)), second(_STD forward<_Other2>(_Val2)) {

  00044	89 45 e8	 mov	 DWORD PTR $T2[ebp], eax
; File C:\IAGOS\server\v18\Source\Source\DatabaseServer\dbcontroller.h

; 27   : 	DWORD	GetTimer()	{	return m_dwTimer;	}

  00047	8b 70 10	 mov	 esi, DWORD PTR [eax+16]
; File C:\IAGOS\server\v18\Source\Source\DatabaseServer\dbcontroller.cpp

; 161  : 	m_vDbController.push_back( make_pair( dbCtrl, ::GetTickCount() + dbCtrl->GetTimer() ) );

  0004a	ff 15 00 00 00
	00		 call	 DWORD PTR __imp__GetTickCount@0
; File C:\Program Files\Microsoft Visual Studio\2022\Professional\VC\Tools\MSVC\14.44.35207\include\vector

; 844  :         if (_Mylast != _My_data._Myend) {

  00050	8b 57 08	 mov	 edx, DWORD PTR [edi+8]
; File C:\IAGOS\server\v18\Source\Source\DatabaseServer\dbcontroller.cpp

; 161  : 	m_vDbController.push_back( make_pair( dbCtrl, ::GetTickCount() + dbCtrl->GetTimer() ) );

  00053	8d 4f 04	 lea	 ecx, DWORD PTR [edi+4]
  00056	03 c6		 add	 eax, esi
; File C:\Program Files\Microsoft Visual Studio\2022\Professional\VC\Tools\MSVC\14.44.35207\include\utility

; 274  :         : first(_STD forward<_Other1>(_Val1)), second(_STD forward<_Other2>(_Val2)) {

  00058	89 45 ec	 mov	 DWORD PTR $T2[ebp+4], eax
; File C:\Program Files\Microsoft Visual Studio\2022\Professional\VC\Tools\MSVC\14.44.35207\include\vector

; 844  :         if (_Mylast != _My_data._Myend) {

  0005b	3b 51 08	 cmp	 edx, DWORD PTR [ecx+8]
  0005e	74 0e		 je	 SHORT $LN19@Register

; 860  :             _STD _Construct_in_place(*_Mylast, _STD forward<_Valty>(_Val)...);

  00060	8b 75 08	 mov	 esi, DWORD PTR _dbCtrl$[ebp]
  00063	89 32		 mov	 DWORD PTR [edx], esi
  00065	89 42 04	 mov	 DWORD PTR [edx+4], eax

; 861  :         } else {
; 862  :             _ASAN_VECTOR_EXTEND_GUARD(static_cast<size_type>(_Mylast - _My_data._Myfirst) + 1);
; 863  :             _Alty_traits::construct(_Getal(), _Unfancy(_Mylast), _STD forward<_Valty>(_Val)...);
; 864  :             _ASAN_VECTOR_RELEASE_GUARD;
; 865  :         }
; 866  : 
; 867  :         _Orphan_range(_Mylast, _Mylast);
; 868  :         _Ty& _Result = *_Mylast;
; 869  :         ++_Mylast;

  00068	83 41 04 08	 add	 DWORD PTR [ecx+4], 8

; 845  :             return _Emplace_back_with_unused_capacity(_STD forward<_Valty>(_Val)...);

  0006c	eb 0a		 jmp	 SHORT $LN18@Register
$LN19@Register:

; 846  :         }
; 847  : 
; 848  :         return *_Emplace_reallocate(_Mylast, _STD forward<_Valty>(_Val)...);

  0006e	8d 45 e8	 lea	 eax, DWORD PTR $T2[ebp]
  00071	50		 push	 eax
  00072	52		 push	 edx
  00073	e8 00 00 00 00	 call	 ??$_Emplace_reallocate@U?$pair@PAVCDbController@@K@std@@@?$vector@U?$pair@PAVCDbController@@K@std@@V?$allocator@U?$pair@PAVCDbController@@K@std@@@2@@std@@AAEPAU?$pair@PAVCDbController@@K@1@QAU21@$$QAU21@@Z ; std::vector<std::pair<CDbController *,unsigned long>,std::allocator<std::pair<CDbController *,unsigned long> > >::_Emplace_reallocate<std::pair<CDbController *,unsigned long> >
$LN18@Register:
; File C:\IAGOS\server\v18\Source\Source\_Network\Mcl\Include\CMclCritSec.h

; 39   : 		::LeaveCriticalSection( &m_CritSec );

  00078	53		 push	 ebx
  00079	ff 15 00 00 00
	00		 call	 DWORD PTR __imp__LeaveCriticalSection@4
; File C:\IAGOS\server\v18\Source\Source\DatabaseServer\dbcontroller.cpp

; 162  : }

  0007f	8b 4d f4	 mov	 ecx, DWORD PTR __$EHRec$[ebp]
  00082	64 89 0d 00 00
	00 00		 mov	 DWORD PTR fs:0, ecx
  00089	59		 pop	 ecx
  0008a	5f		 pop	 edi
  0008b	5e		 pop	 esi
  0008c	5b		 pop	 ebx
  0008d	8b e5		 mov	 esp, ebp
  0008f	5d		 pop	 ebp
  00090	c2 04 00	 ret	 4
_TEXT	ENDS
;	COMDAT text$x
text$x	SEGMENT
__unwindfunclet$?Register@CDbControllerTimer@@QAEXPAVCDbController@@@Z$0:
  00000	8d 4d f0	 lea	 ecx, DWORD PTR _Lock$[ebp]
  00003	e9 00 00 00 00	 jmp	 ??1CMclAutoLock@@QAE@XZ	; CMclAutoLock::~CMclAutoLock
  00008	cc		 int	 3
  00009	cc		 int	 3
  0000a	cc		 int	 3
  0000b	cc		 int	 3
  0000c	cc		 int	 3
__ehhandler$?Register@CDbControllerTimer@@QAEXPAVCDbController@@@Z:
  0000d	90		 npad	 1
  0000e	90		 npad	 1
  0000f	8b 54 24 08	 mov	 edx, DWORD PTR [esp+8]
  00013	8d 42 0c	 lea	 eax, DWORD PTR [edx+12]
  00016	8b 4a e4	 mov	 ecx, DWORD PTR [edx-28]
  00019	33 c8		 xor	 ecx, eax
  0001b	e8 00 00 00 00	 call	 @__security_check_cookie@4
  00020	b8 00 00 00 00	 mov	 eax, OFFSET __ehfuncinfo$?Register@CDbControllerTimer@@QAEXPAVCDbController@@@Z
  00025	e9 00 00 00 00	 jmp	 ___CxxFrameHandler3
text$x	ENDS
?Register@CDbControllerTimer@@QAEXPAVCDbController@@@Z ENDP ; CDbControllerTimer::Register
; Function compile flags: /Ogtp
; File C:\IAGOS\server\v18\Source\Source\DatabaseServer\dbcontroller.cpp
; File C:\IAGOS\server\v18\Source\Source\_Network\Mcl\Include\CMclCritSec.h
; File C:\IAGOS\server\v18\Source\Source\DatabaseServer\dbcontroller.cpp
; File C:\IAGOS\server\v18\Source\Source\_Network\Mcl\Include\CMclCritSec.h
; File C:\IAGOS\server\v18\Source\Source\DatabaseServer\dbcontroller.cpp
;	COMDAT ??1CDbControllerTimer@@UAE@XZ
_TEXT	SEGMENT
??1CDbControllerTimer@@UAE@XZ PROC			; CDbControllerTimer::~CDbControllerTimer, COMDAT
; _this$ = ecx

; 155  : {

  00000	56		 push	 esi
  00001	8b f1		 mov	 esi, ecx
; File C:\IAGOS\server\v18\Source\Source\_Network\Mcl\Include\CMclCritSec.h

; 27   : 		::DeleteCriticalSection( &m_CritSec );

  00003	8d 46 14	 lea	 eax, DWORD PTR [esi+20]
; File C:\IAGOS\server\v18\Source\Source\DatabaseServer\dbcontroller.cpp

; 155  : {

  00006	c7 06 00 00 00
	00		 mov	 DWORD PTR [esi], OFFSET ??_7CDbControllerTimer@@6B@
; File C:\IAGOS\server\v18\Source\Source\_Network\Mcl\Include\CMclCritSec.h

; 27   : 		::DeleteCriticalSection( &m_CritSec );

  0000c	50		 push	 eax
  0000d	c7 46 10 00 00
	00 00		 mov	 DWORD PTR [esi+16], OFFSET ??_7CMclCritSec@@6B@
  00014	ff 15 00 00 00
	00		 call	 DWORD PTR __imp__DeleteCriticalSection@4
; File C:\IAGOS\server\v18\Source\Source\DatabaseServer\dbcontroller.cpp

; 156  : }

  0001a	8d 4e 04	 lea	 ecx, DWORD PTR [esi+4]
  0001d	5e		 pop	 esi
  0001e	e9 00 00 00 00	 jmp	 ??1?$vector@U?$pair@PAVCDbController@@K@std@@V?$allocator@U?$pair@PAVCDbController@@K@std@@@2@@std@@QAE@XZ ; std::vector<std::pair<CDbController *,unsigned long>,std::allocator<std::pair<CDbController *,unsigned long> > >::~vector<std::pair<CDbController *,unsigned long>,std::allocator<std::pair<CDbController *,unsigned long> > >
??1CDbControllerTimer@@UAE@XZ ENDP			; CDbControllerTimer::~CDbControllerTimer
_TEXT	ENDS
; Function compile flags: /Ogtp
;	COMDAT ??_GCDbController@@UAEPAXI@Z
_TEXT	SEGMENT
___flags$ = 8						; size = 4
??_GCDbController@@UAEPAXI@Z PROC			; CDbController::`scalar deleting destructor', COMDAT
; _this$ = ecx
  00000	55		 push	 ebp
  00001	8b ec		 mov	 ebp, esp
  00003	56		 push	 esi
  00004	8b f1		 mov	 esi, ecx
  00006	e8 00 00 00 00	 call	 ??1CDbController@@UAE@XZ ; CDbController::~CDbController
  0000b	f6 45 08 01	 test	 BYTE PTR ___flags$[ebp], 1
  0000f	74 0b		 je	 SHORT $LN5@scalar
  00011	6a 14		 push	 20			; 00000014H
  00013	56		 push	 esi
  00014	e8 00 00 00 00	 call	 ??3@YAXPAXI@Z		; operator delete
  00019	83 c4 08	 add	 esp, 8
$LN5@scalar:
  0001c	8b c6		 mov	 eax, esi
  0001e	5e		 pop	 esi
  0001f	5d		 pop	 ebp
  00020	c2 04 00	 ret	 4
??_GCDbController@@UAEPAXI@Z ENDP			; CDbController::`scalar deleting destructor'
_TEXT	ENDS
; Function compile flags: /Ogtp
; File C:\IAGOS\server\v18\Source\Source\DatabaseServer\dbcontroller.cpp
;	COMDAT ?SetTimer@CDbController@@AAEXK@Z
_TEXT	SEGMENT
_dwMilliseconds$ = 8					; size = 4
?SetTimer@CDbController@@AAEXK@Z PROC			; CDbController::SetTimer, COMDAT
; _this$ = ecx

; 38   : {

  00000	55		 push	 ebp
  00001	8b ec		 mov	 ebp, esp

; 39   : 	if( dwMilliseconds != INFINITE )

  00003	8b 45 08	 mov	 eax, DWORD PTR _dwMilliseconds$[ebp]
  00006	83 f8 ff	 cmp	 eax, -1
  00009	74 10		 je	 SHORT $LN2@SetTimer

; 40   : 	{
; 41   : 		m_dwTimer	= dwMilliseconds;
; 42   : 		CDbControllerTimer::GetInstance()->Register( this );

  0000b	51		 push	 ecx
  0000c	89 41 10	 mov	 DWORD PTR [ecx+16], eax
  0000f	e8 00 00 00 00	 call	 ?GetInstance@CDbControllerTimer@@SAPAV1@XZ ; CDbControllerTimer::GetInstance
  00014	8b c8		 mov	 ecx, eax
  00016	e8 00 00 00 00	 call	 ?Register@CDbControllerTimer@@QAEXPAVCDbController@@@Z ; CDbControllerTimer::Register
$LN2@SetTimer:

; 43   : 	}
; 44   : }

  0001b	5d		 pop	 ebp
  0001c	c2 04 00	 ret	 4
?SetTimer@CDbController@@AAEXK@Z ENDP			; CDbController::SetTimer
_TEXT	ENDS
; Function compile flags: /Ogtp
; File C:\IAGOS\server\v18\Source\Source\DatabaseServer\dbcontroller.h
;	COMDAT ?OnTimer@CDbController@@UAEXXZ
_TEXT	SEGMENT
?OnTimer@CDbController@@UAEXXZ PROC			; CDbController::OnTimer, COMDAT
; _this$ = ecx

; 26   : 	virtual void	OnTimer()	{}

  00000	c2 00 00	 ret	 0
?OnTimer@CDbController@@UAEXXZ ENDP			; CDbController::OnTimer
_TEXT	ENDS
; Function compile flags: /Ogtp
; File C:\IAGOS\server\v18\Source\Source\DatabaseServer\dbcontroller.cpp
;	COMDAT ?DbHandler@CDbController@@QAEXXZ
_TEXT	SEGMENT
_dwCompletionKey$ = -12					; size = 4
_dwBytesTransferred$ = -8				; size = 4
_pov$ = -4						; size = 4
?DbHandler@CDbController@@QAEXXZ PROC			; CDbController::DbHandler, COMDAT
; _this$ = ecx

; 104  : {

  00000	55		 push	 ebp
  00001	8b ec		 mov	 ebp, esp
  00003	83 ec 0c	 sub	 esp, 12			; 0000000cH
  00006	56		 push	 esi
  00007	57		 push	 edi
  00008	8b f1		 mov	 esi, ecx

; 105  : 	CQuery* pQuery	= CreateQuery();

  0000a	e8 00 00 00 00	 call	 ?CreateQuery@CDbController@@QAEPAVCQuery@@XZ ; CDbController::CreateQuery
  0000f	8b f8		 mov	 edi, eax

; 106  : 	if( !pQuery )

  00011	85 ff		 test	 edi, edi
  00013	0f 84 be 00 00
	00		 je	 $LN15@DbHandler

; 107  : 		return;
; 108  : 	SetQueryObject( pQuery );
; 109  : 
; 110  : 	BOOL bReturnValue	= FALSE;
; 111  : 	DWORD dwBytesTransferred	= 0;
; 112  : 	DWORD dwCompletionKey	= 0;
; 113  : 	LPDB_OVERLAPPED_PLUS pov	= NULL;
; 114  : 
; 115  : 	while( 1 )
; 116  : 	{
; 117  : 		bReturnValue

  00019	53		 push	 ebx
  0001a	8b 1d 00 00 00
	00		 mov	 ebx, DWORD PTR __imp__GetQueuedCompletionStatus@20
  00020	8d 45 fc	 lea	 eax, DWORD PTR _pov$[ebp]
  00023	6a ff		 push	 -1
  00025	50		 push	 eax
  00026	8d 45 f4	 lea	 eax, DWORD PTR _dwCompletionKey$[ebp]
  00029	89 7e 0c	 mov	 DWORD PTR [esi+12], edi
  0002c	50		 push	 eax
  0002d	8d 45 f8	 lea	 eax, DWORD PTR _dwBytesTransferred$[ebp]
  00030	c7 45 f8 00 00
	00 00		 mov	 DWORD PTR _dwBytesTransferred$[ebp], 0
  00037	50		 push	 eax
  00038	ff 76 04	 push	 DWORD PTR [esi+4]
  0003b	c7 45 f4 00 00
	00 00		 mov	 DWORD PTR _dwCompletionKey$[ebp], 0
  00042	c7 45 fc 00 00
	00 00		 mov	 DWORD PTR _pov$[ebp], 0
  00049	ff d3		 call	 ebx

; 118  : 			= ::GetQueuedCompletionStatus( m_hIocp,
; 119  : 																		&dwBytesTransferred,
; 120  : 																		&dwCompletionKey,
; 121  : 																		(LPOVERLAPPED*)&pov,
; 122  : 																		INFINITE 
; 123  : 																	);
; 124  : 		if( FALSE == bReturnValue )
; 125  : 		{
; 126  : 			ASSERT( 0 );
; 127  : 		}
; 128  : 		if( dwBytesTransferred == 0 )

  0004b	83 7d f8 00	 cmp	 DWORD PTR _dwBytesTransferred$[ebp], 0
  0004f	74 70		 je	 SHORT $LN20@DbHandler
$LL2@DbHandler:

; 129  : 		{
; 130  : 			SAFE_DELETE( pQuery );
; 131  : 			return;
; 132  : 		}
; 133  : 
; 134  : 		if( pov->nQueryMode == eTimer )

  00051	8b 4d fc	 mov	 ecx, DWORD PTR _pov$[ebp]
  00054	83 79 14 ff	 cmp	 DWORD PTR [ecx+20], -1
  00058	75 0a		 jne	 SHORT $LN8@DbHandler

; 135  : 			OnTimer();

  0005a	8b 06		 mov	 eax, DWORD PTR [esi]
  0005c	8b ce		 mov	 ecx, esi
  0005e	ff 50 08	 call	 DWORD PTR [eax+8]
  00061	8b 4d fc	 mov	 ecx, DWORD PTR _pov$[ebp]
$LN8@DbHandler:

; 136  : 		
; 137  : 		Handler( pov, dwCompletionKey );

  00064	ff 75 f4	 push	 DWORD PTR _dwCompletionKey$[ebp]
  00067	8b 06		 mov	 eax, DWORD PTR [esi]
  00069	51		 push	 ecx
  0006a	8b ce		 mov	 ecx, esi
  0006c	ff 50 04	 call	 DWORD PTR [eax+4]

; 138  : 
; 139  : 		//	mulcom	BEGIN100415	DB_OVERLAPPED_PLUS ¡ß¡Þ¡Û úÛ £Ó¢Š.
; 140  : 		SAFE_DELETE_ARRAY( pov->lpBuf );

  0006f	8b 45 fc	 mov	 eax, DWORD PTR _pov$[ebp]
  00072	8b 48 18	 mov	 ecx, DWORD PTR [eax+24]
  00075	85 c9		 test	 ecx, ecx
  00077	74 16		 je	 SHORT $LN9@DbHandler
  00079	51		 push	 ecx
  0007a	e8 00 00 00 00	 call	 ??_V@YAXPAX@Z		; operator delete[]
  0007f	8b 45 fc	 mov	 eax, DWORD PTR _pov$[ebp]
  00082	83 c4 04	 add	 esp, 4
  00085	c7 40 18 00 00
	00 00		 mov	 DWORD PTR [eax+24], 0
  0008c	8b 45 fc	 mov	 eax, DWORD PTR _pov$[ebp]
$LN9@DbHandler:

; 141  : 		//	mulcom	END100415	DB_OVERLAPPED_PLUS ¡ß¡Þ¡Û úÛ £Ó¢Š.
; 142  : 		SAFE_DELETE( pov );

  0008f	85 c0		 test	 eax, eax
  00091	74 15		 je	 SHORT $LN10@DbHandler
  00093	68 b8 00 00 00	 push	 184			; 000000b8H
  00098	50		 push	 eax
  00099	e8 00 00 00 00	 call	 ??3@YAXPAXI@Z		; operator delete
  0009e	83 c4 08	 add	 esp, 8
  000a1	c7 45 fc 00 00
	00 00		 mov	 DWORD PTR _pov$[ebp], 0
$LN10@DbHandler:

; 107  : 		return;
; 108  : 	SetQueryObject( pQuery );
; 109  : 
; 110  : 	BOOL bReturnValue	= FALSE;
; 111  : 	DWORD dwBytesTransferred	= 0;
; 112  : 	DWORD dwCompletionKey	= 0;
; 113  : 	LPDB_OVERLAPPED_PLUS pov	= NULL;
; 114  : 
; 115  : 	while( 1 )
; 116  : 	{
; 117  : 		bReturnValue

  000a8	6a ff		 push	 -1
  000aa	8d 45 fc	 lea	 eax, DWORD PTR _pov$[ebp]
  000ad	50		 push	 eax
  000ae	8d 45 f4	 lea	 eax, DWORD PTR _dwCompletionKey$[ebp]
  000b1	50		 push	 eax
  000b2	8d 45 f8	 lea	 eax, DWORD PTR _dwBytesTransferred$[ebp]
  000b5	50		 push	 eax
  000b6	ff 76 04	 push	 DWORD PTR [esi+4]
  000b9	ff d3		 call	 ebx

; 118  : 			= ::GetQueuedCompletionStatus( m_hIocp,
; 119  : 																		&dwBytesTransferred,
; 120  : 																		&dwCompletionKey,
; 121  : 																		(LPOVERLAPPED*)&pov,
; 122  : 																		INFINITE 
; 123  : 																	);
; 124  : 		if( FALSE == bReturnValue )
; 125  : 		{
; 126  : 			ASSERT( 0 );
; 127  : 		}
; 128  : 		if( dwBytesTransferred == 0 )

  000bb	83 7d f8 00	 cmp	 DWORD PTR _dwBytesTransferred$[ebp], 0
  000bf	75 90		 jne	 SHORT $LL2@DbHandler
$LN20@DbHandler:
  000c1	8b cf		 mov	 ecx, edi
  000c3	e8 00 00 00 00	 call	 ??1CQuery@@QAE@XZ	; CQuery::~CQuery
  000c8	68 10 3d 00 00	 push	 15632			; 00003d10H
  000cd	57		 push	 edi
  000ce	e8 00 00 00 00	 call	 ??3@YAXPAXI@Z		; operator delete
  000d3	83 c4 08	 add	 esp, 8
  000d6	5b		 pop	 ebx
$LN15@DbHandler:
  000d7	5f		 pop	 edi

; 143  : 	}
; 144  : }

  000d8	5e		 pop	 esi
  000d9	8b e5		 mov	 esp, ebp
  000db	5d		 pop	 ebp
  000dc	c3		 ret	 0
?DbHandler@CDbController@@QAEXXZ ENDP			; CDbController::DbHandler
_TEXT	ENDS
; Function compile flags: /Ogtp
; File C:\IAGOS\server\v18\Source\Source\DatabaseServer\dbcontroller.cpp
;	COMDAT ?_DbHandler@CDbController@@SAKPAPAX@Z
_TEXT	SEGMENT
_pParam$ = 8						; size = 4
?_DbHandler@CDbController@@SAKPAPAX@Z PROC		; CDbController::_DbHandler, COMDAT

; 85   : {

  00000	55		 push	 ebp
  00001	8b ec		 mov	 ebp, esp

; 86   : 	CDbController* pController	= reinterpret_cast<CDbController*>( pParam );
; 87   : 	pController->DbHandler();

  00003	8b 4d 08	 mov	 ecx, DWORD PTR _pParam$[ebp]
  00006	e8 00 00 00 00	 call	 ?DbHandler@CDbController@@QAEXXZ ; CDbController::DbHandler

; 88   : 	return 0;

  0000b	33 c0		 xor	 eax, eax

; 89   : }

  0000d	5d		 pop	 ebp
  0000e	c3		 ret	 0
?_DbHandler@CDbController@@SAKPAPAX@Z ENDP		; CDbController::_DbHandler
_TEXT	ENDS
; Function compile flags: /Ogtp
; File C:\IAGOS\server\v18\Source\Source\DatabaseServer\dbcontroller.cpp
;	COMDAT ?CreateQuery@CDbController@@QAEPAVCQuery@@XZ
_TEXT	SEGMENT
$T2 = -16						; size = 4
__$EHRec$ = -12						; size = 12
?CreateQuery@CDbController@@QAEPAVCQuery@@XZ PROC	; CDbController::CreateQuery, COMDAT
; _this$ = ecx

; 92   : {

  00000	55		 push	 ebp
  00001	8b ec		 mov	 ebp, esp
  00003	6a ff		 push	 -1
  00005	68 00 00 00 00	 push	 __ehhandler$?CreateQuery@CDbController@@QAEPAVCQuery@@XZ
  0000a	64 a1 00 00 00
	00		 mov	 eax, DWORD PTR fs:0
  00010	50		 push	 eax
  00011	51		 push	 ecx
  00012	56		 push	 esi
  00013	a1 00 00 00 00	 mov	 eax, DWORD PTR ___security_cookie
  00018	33 c5		 xor	 eax, ebp
  0001a	50		 push	 eax
  0001b	8d 45 f4	 lea	 eax, DWORD PTR __$EHRec$[ebp]
  0001e	64 a3 00 00 00
	00		 mov	 DWORD PTR fs:0, eax

; 93   : 	CQuery* pQuery	= new CQuery;

  00024	68 10 3d 00 00	 push	 15632			; 00003d10H
  00029	e8 00 00 00 00	 call	 ??2@YAPAXI@Z		; operator new
  0002e	83 c4 04	 add	 esp, 4
  00031	89 45 f0	 mov	 DWORD PTR $T2[ebp], eax
  00034	c7 45 fc 00 00
	00 00		 mov	 DWORD PTR __$EHRec$[ebp+8], 0
  0003b	85 c0		 test	 eax, eax
  0003d	74 0b		 je	 SHORT $LN5@CreateQuer
  0003f	8b c8		 mov	 ecx, eax
  00041	e8 00 00 00 00	 call	 ??0CQuery@@QAE@XZ	; CQuery::CQuery
  00046	8b f0		 mov	 esi, eax
  00048	eb 02		 jmp	 SHORT $LN6@CreateQuer
$LN5@CreateQuer:
  0004a	33 f6		 xor	 esi, esi
$LN6@CreateQuer:
  0004c	c7 45 fc ff ff
	ff ff		 mov	 DWORD PTR __$EHRec$[ebp+8], -1

; 94   : 	const char* pass	= CDbManager::GetInstance().DB_ADMIN_PASS_CHARACTER01;

  00053	e8 00 00 00 00	 call	 ?GetInstance@CDbManager@@SAAAV1@XZ ; CDbManager::GetInstance
  00058	05 98 04 00 00	 add	 eax, 1176		; 00000498H

; 95   : 	if( !pQuery->Connect( 3, DSN_NAME_CHARACTER01, DB_ADMIN_ID_CHARACTER01, pass ) )

  0005d	8b ce		 mov	 ecx, esi
  0005f	50		 push	 eax
  00060	68 00 00 00 00	 push	 OFFSET ?DB_ADMIN_ID_CHARACTER01@@3PADA ; DB_ADMIN_ID_CHARACTER01
  00065	68 00 00 00 00	 push	 OFFSET ?DSN_NAME_CHARACTER01@@3PADA ; DSN_NAME_CHARACTER01
  0006a	6a 03		 push	 3
  0006c	e8 00 00 00 00	 call	 ?Connect@CQuery@@QAEHHPAD0PBD@Z ; CQuery::Connect
  00071	85 c0		 test	 eax, eax
  00073	75 37		 jne	 SHORT $LN15@CreateQuer

; 96   : 	{
; 97   : 		::AfxMessageBox( "Can't connect db: CDbController.CreateQuery" );

  00075	50		 push	 eax
  00076	50		 push	 eax
  00077	68 00 00 00 00	 push	 OFFSET ??_C@_0CM@ILHDLBHB@Can?8t?5connect?5db?3?5CDbController@
  0007c	e8 00 00 00 00	 call	 ?AfxMessageBox@@YGHPBDII@Z ; AfxMessageBox

; 98   : 		SAFE_DELETE( pQuery );

  00081	85 f6		 test	 esi, esi
  00083	74 27		 je	 SHORT $LN15@CreateQuer

; 99   : 	}
; 100  : 	return pQuery;

  00085	8b ce		 mov	 ecx, esi
  00087	e8 00 00 00 00	 call	 ??1CQuery@@QAE@XZ	; CQuery::~CQuery
  0008c	68 10 3d 00 00	 push	 15632			; 00003d10H
  00091	56		 push	 esi
  00092	e8 00 00 00 00	 call	 ??3@YAXPAXI@Z		; operator delete
  00097	83 c4 08	 add	 esp, 8
  0009a	33 c0		 xor	 eax, eax

; 101  : }

  0009c	8b 4d f4	 mov	 ecx, DWORD PTR __$EHRec$[ebp]
  0009f	64 89 0d 00 00
	00 00		 mov	 DWORD PTR fs:0, ecx
  000a6	59		 pop	 ecx
  000a7	5e		 pop	 esi
  000a8	8b e5		 mov	 esp, ebp
  000aa	5d		 pop	 ebp
  000ab	c3		 ret	 0
$LN15@CreateQuer:
  000ac	8b c6		 mov	 eax, esi
  000ae	8b 4d f4	 mov	 ecx, DWORD PTR __$EHRec$[ebp]
  000b1	64 89 0d 00 00
	00 00		 mov	 DWORD PTR fs:0, ecx
  000b8	59		 pop	 ecx
  000b9	5e		 pop	 esi
  000ba	8b e5		 mov	 esp, ebp
  000bc	5d		 pop	 ebp
  000bd	c3		 ret	 0
_TEXT	ENDS
;	COMDAT text$x
text$x	SEGMENT
__unwindfunclet$?CreateQuery@CDbController@@QAEPAVCQuery@@XZ$0:
  00000	68 10 3d 00 00	 push	 15632			; 00003d10H
  00005	8b 45 f0	 mov	 eax, DWORD PTR $T2[ebp]
  00008	50		 push	 eax
  00009	e8 00 00 00 00	 call	 ??3@YAXPAXI@Z		; operator delete
  0000e	83 c4 08	 add	 esp, 8
  00011	c3		 ret	 0
  00012	cc		 int	 3
  00013	cc		 int	 3
  00014	cc		 int	 3
  00015	cc		 int	 3
  00016	cc		 int	 3
__ehhandler$?CreateQuery@CDbController@@QAEPAVCQuery@@XZ:
  00017	90		 npad	 1
  00018	90		 npad	 1
  00019	8b 54 24 08	 mov	 edx, DWORD PTR [esp+8]
  0001d	8d 42 0c	 lea	 eax, DWORD PTR [edx+12]
  00020	8b 4a f4	 mov	 ecx, DWORD PTR [edx-12]
  00023	33 c8		 xor	 ecx, eax
  00025	e8 00 00 00 00	 call	 @__security_check_cookie@4
  0002a	b8 00 00 00 00	 mov	 eax, OFFSET __ehfuncinfo$?CreateQuery@CDbController@@QAEPAVCQuery@@XZ
  0002f	e9 00 00 00 00	 jmp	 ___CxxFrameHandler3
text$x	ENDS
?CreateQuery@CDbController@@QAEPAVCQuery@@XZ ENDP	; CDbController::CreateQuery
; Function compile flags: /Ogtp
; File C:\IAGOS\server\v18\Source\Source\DatabaseServer\dbcontroller.cpp
; File C:\IAGOS\server\v18\Source\Source\_database\DbManager.h
; File C:\IAGOS\server\v18\Source\Source\DatabaseServer\dbcontroller.cpp
;	COMDAT ?PostRequest@CDbController@@QAEHHPAEHK@Z
_TEXT	SEGMENT
_this$1$ = -4						; size = 4
_nQuery$ = 8						; size = 4
_lpBuf$ = 12						; size = 4
_nBufSize$ = 16						; size = 4
$T1 = 16						; size = 4
_dwCompletionKey$ = 20					; size = 4
?PostRequest@CDbController@@QAEHHPAEHK@Z PROC		; CDbController::PostRequest, COMDAT
; _this$ = ecx

; 58   : {

  00000	55		 push	 ebp
  00001	8b ec		 mov	 ebp, esp
  00003	51		 push	 ecx
  00004	56		 push	 esi
  00005	57		 push	 edi
  00006	8b 7d 10	 mov	 edi, DWORD PTR _nBufSize$[ebp]

; 59   : 	LPDB_OVERLAPPED_PLUS pov	= new DB_OVERLAPPED_PLUS;

  00009	68 b8 00 00 00	 push	 184			; 000000b8H
  0000e	89 4d fc	 mov	 DWORD PTR _this$1$[ebp], ecx
  00011	e8 00 00 00 00	 call	 ??2@YAPAXI@Z		; operator new
  00016	8b f0		 mov	 esi, eax
  00018	83 c4 04	 add	 esp, 4
  0001b	89 75 10	 mov	 DWORD PTR $T1[ebp], esi
  0001e	85 f6		 test	 esi, esi
  00020	74 10		 je	 SHORT $LN7@PostReques
; File C:\IAGOS\server\v18\Source\Source\_database\DbManager.h

; 171  : 		lpBuf	= NULL;

  00022	c7 46 18 00 00
	00 00		 mov	 DWORD PTR [esi+24], 0

; 172  : 		//::memset( lpBuf, 0, sizeof(lpBuf) );
; 173  : 		//	mulcom	END100415	DB_OVERLAPPED_PLUS ¡ß¡Þ¡Û úÛ £Ó¢Š.
; 174  : 		
; 175  : 		uBufSize = 0;

  00029	c7 46 1c 00 00
	00 00		 mov	 DWORD PTR [esi+28], 0
; File C:\IAGOS\server\v18\Source\Source\DatabaseServer\dbcontroller.cpp

; 59   : 	LPDB_OVERLAPPED_PLUS pov	= new DB_OVERLAPPED_PLUS;

  00030	eb 02		 jmp	 SHORT $LN8@PostReques
$LN7@PostReques:
  00032	33 f6		 xor	 esi, esi
$LN8@PostReques:

; 60   : //	mulcom	BEGIN100415	DB_OVERLAPPED_PLUS ¡ß¡Þ¡Û úÛ £Ó¢Š.
; 61   : 	if( lpBuf != NULL )

  00034	83 7d 0c 00	 cmp	 DWORD PTR _lpBuf$[ebp], 0
  00038	74 2c		 je	 SHORT $LN4@PostReques

; 62   : 	{
; 63   : 		if( nBufSize < 0 || nBufSize > (1024*1024) )

  0003a	57		 push	 edi
  0003b	81 ff 00 00 10
	00		 cmp	 edi, 1048576		; 00100000H
  00041	77 43		 ja	 SHORT $LN5@PostReques

; 68   : 		}
; 69   : 		else
; 70   : 		{
; 71   : 			pov->lpBuf	= new BYTE[nBufSize];

  00043	e8 00 00 00 00	 call	 ??_U@YAPAXI@Z		; operator new[]

; 72   : 			::memset( pov->lpBuf, 0, nBufSize );

  00048	57		 push	 edi
  00049	6a 00		 push	 0
  0004b	50		 push	 eax
  0004c	89 46 18	 mov	 DWORD PTR [esi+24], eax
  0004f	e8 00 00 00 00	 call	 _memset

; 73   : 
; 74   : 			::memcpy( pov->lpBuf, lpBuf, nBufSize );

  00054	57		 push	 edi
  00055	ff 75 0c	 push	 DWORD PTR _lpBuf$[ebp]
  00058	ff 76 18	 push	 DWORD PTR [esi+24]
  0005b	e8 00 00 00 00	 call	 _memcpy
  00060	83 c4 1c	 add	 esp, 28			; 0000001cH

; 75   : 			pov->uBufSize	= nBufSize;

  00063	89 7e 1c	 mov	 DWORD PTR [esi+28], edi
$LN4@PostReques:

; 76   : 		}
; 77   : 	}
; 78   : 	//	mulcom	END100415	DB_OVERLAPPED_PLUS ¡ß¡Þ¡Û úÛ £Ó¢Š.
; 79   : 
; 80   : 	pov->nQueryMode		= nQuery;

  00066	8b 45 08	 mov	 eax, DWORD PTR _nQuery$[ebp]

; 81   : 	return ::PostQueuedCompletionStatus( m_hIocp, 1, dwCompletionKey, &pov->Overlapped );

  00069	56		 push	 esi
  0006a	ff 75 14	 push	 DWORD PTR _dwCompletionKey$[ebp]
  0006d	89 46 14	 mov	 DWORD PTR [esi+20], eax
  00070	8b 45 fc	 mov	 eax, DWORD PTR _this$1$[ebp]
  00073	6a 01		 push	 1
  00075	ff 70 04	 push	 DWORD PTR [eax+4]
  00078	ff 15 00 00 00
	00		 call	 DWORD PTR __imp__PostQueuedCompletionStatus@16
  0007e	5f		 pop	 edi

; 82   : }

  0007f	5e		 pop	 esi
  00080	8b e5		 mov	 esp, ebp
  00082	5d		 pop	 ebp
  00083	c2 10 00	 ret	 16			; 00000010H
$LN5@PostReques:

; 64   : 		{
; 65   : 			Error( "PostRequest nBufSize error. nQuery[%d], nBufSize[%d]", nQuery, nBufSize );

  00086	ff 75 08	 push	 DWORD PTR _nQuery$[ebp]
  00089	68 00 00 00 00	 push	 OFFSET ??_C@_0DF@NIEDDNJK@PostRequest?5nBufSize?5error?4?5nQu@
  0008e	e8 00 00 00 00	 call	 ?Error@@YAPBDPBDZZ	; Error
  00093	83 c4 0c	 add	 esp, 12			; 0000000cH

; 66   : 
; 67   : 			return	FALSE;

  00096	33 c0		 xor	 eax, eax
  00098	5f		 pop	 edi

; 82   : }

  00099	5e		 pop	 esi
  0009a	8b e5		 mov	 esp, ebp
  0009c	5d		 pop	 ebp
  0009d	c2 10 00	 ret	 16			; 00000010H
?PostRequest@CDbController@@QAEHHPAEHK@Z ENDP		; CDbController::PostRequest
_TEXT	ENDS
; Function compile flags: /Ogtp
; File C:\IAGOS\server\v18\Source\Source\DatabaseServer\dbcontroller.cpp
;	COMDAT ?CloseDbHandler@CDbController@@QAEXXZ
_TEXT	SEGMENT
?CloseDbHandler@CDbController@@QAEXXZ PROC		; CDbController::CloseDbHandler, COMDAT
; _this$ = ecx

; 47   : {

  00000	56		 push	 esi
  00001	8b f1		 mov	 esi, ecx

; 48   : 	if( m_hIocp )

  00003	8b 46 04	 mov	 eax, DWORD PTR [esi+4]
  00006	85 c0		 test	 eax, eax
  00008	74 42		 je	 SHORT $LN4@CloseDbHan

; 49   : 	{
; 50   : 		::PostQueuedCompletionStatus( m_hIocp, 0, NULL, NULL );

  0000a	6a 00		 push	 0
  0000c	6a 00		 push	 0
  0000e	6a 00		 push	 0
  00010	50		 push	 eax
  00011	ff 15 00 00 00
	00		 call	 DWORD PTR __imp__PostQueuedCompletionStatus@16

; 51   : 		::WaitForSingleObject( m_hDbHndlr, INFINITE );

  00017	6a ff		 push	 -1
  00019	ff 76 08	 push	 DWORD PTR [esi+8]
  0001c	ff 15 00 00 00
	00		 call	 DWORD PTR __imp__WaitForSingleObject@8

; 52   : 		CLOSE_HANDLE( m_hIocp );

  00022	8b 46 04	 mov	 eax, DWORD PTR [esi+4]
  00025	85 c0		 test	 eax, eax
  00027	74 0e		 je	 SHORT $LN3@CloseDbHan
  00029	50		 push	 eax
  0002a	ff 15 00 00 00
	00		 call	 DWORD PTR __imp__CloseHandle@4
  00030	c7 46 04 00 00
	00 00		 mov	 DWORD PTR [esi+4], 0
$LN3@CloseDbHan:

; 53   : 		CLOSE_HANDLE( m_hDbHndlr );

  00037	8b 46 08	 mov	 eax, DWORD PTR [esi+8]
  0003a	85 c0		 test	 eax, eax
  0003c	74 0e		 je	 SHORT $LN4@CloseDbHan
  0003e	50		 push	 eax
  0003f	ff 15 00 00 00
	00		 call	 DWORD PTR __imp__CloseHandle@4
  00045	c7 46 08 00 00
	00 00		 mov	 DWORD PTR [esi+8], 0
$LN4@CloseDbHan:

; 54   : 	}
; 55   : }

  0004c	5e		 pop	 esi
  0004d	c3		 ret	 0
?CloseDbHandler@CDbController@@QAEXXZ ENDP		; CDbController::CloseDbHandler
_TEXT	ENDS
; Function compile flags: /Ogtp
; File C:\IAGOS\server\v18\Source\Source\DatabaseServer\dbcontroller.cpp
;	COMDAT ?CreateDbHandler@CDbController@@QAEHK@Z
_TEXT	SEGMENT
_dwThreadId$ = -4					; size = 4
_dwMilliseconds$ = 8					; size = 4
?CreateDbHandler@CDbController@@QAEHK@Z PROC		; CDbController::CreateDbHandler, COMDAT
; _this$ = ecx

; 20   : {

  00000	55		 push	 ebp
  00001	8b ec		 mov	 ebp, esp
  00003	51		 push	 ecx
  00004	56		 push	 esi

; 21   : 	m_hIocp		= ::CreateIoCompletionPort( INVALID_HANDLE_VALUE, NULL, 0, 0 );

  00005	6a 00		 push	 0
  00007	6a 00		 push	 0
  00009	6a 00		 push	 0
  0000b	6a ff		 push	 -1
  0000d	8b f1		 mov	 esi, ecx
  0000f	ff 15 00 00 00
	00		 call	 DWORD PTR __imp__CreateIoCompletionPort@16
  00015	89 46 04	 mov	 DWORD PTR [esi+4], eax

; 22   : 	if( !m_hIocp )

  00018	85 c0		 test	 eax, eax
  0001a	74 28		 je	 SHORT $LN7@CreateDbHa

; 23   : 		return FALSE;
; 24   : 	DWORD dwThreadId;
; 25   : 	m_hDbHndlr	= chBEGINTHREADEX( NULL, 0, _DbHandler, (LPVOID)this, 0, &dwThreadId );

  0001c	8d 45 fc	 lea	 eax, DWORD PTR _dwThreadId$[ebp]
  0001f	50		 push	 eax
  00020	6a 00		 push	 0
  00022	56		 push	 esi
  00023	68 00 00 00 00	 push	 OFFSET ?_DbHandler@CDbController@@SAKPAPAX@Z ; CDbController::_DbHandler
  00028	6a 00		 push	 0
  0002a	6a 00		 push	 0
  0002c	e8 00 00 00 00	 call	 __beginthreadex
  00031	83 c4 18	 add	 esp, 24			; 00000018H
  00034	89 46 08	 mov	 DWORD PTR [esi+8], eax

; 26   : 	if( !m_hDbHndlr )

  00037	85 c0		 test	 eax, eax
  00039	75 12		 jne	 SHORT $LN3@CreateDbHa

; 27   : 	{
; 28   : 		::CloseHandle( m_hIocp );

  0003b	ff 76 04	 push	 DWORD PTR [esi+4]
  0003e	ff 15 00 00 00
	00		 call	 DWORD PTR __imp__CloseHandle@4
$LN7@CreateDbHa:

; 35   : }

  00044	33 c0		 xor	 eax, eax
  00046	5e		 pop	 esi
  00047	8b e5		 mov	 esp, ebp
  00049	5d		 pop	 ebp
  0004a	c2 04 00	 ret	 4
$LN3@CreateDbHa:

; 29   : 		return FALSE;
; 30   : 	}
; 31   : 
; 32   : 	SetTimer( dwMilliseconds );

  0004d	ff 75 08	 push	 DWORD PTR _dwMilliseconds$[ebp]
  00050	8b ce		 mov	 ecx, esi
  00052	e8 00 00 00 00	 call	 ?SetTimer@CDbController@@AAEXK@Z ; CDbController::SetTimer

; 33   : 
; 34   : 	return TRUE;

  00057	b8 01 00 00 00	 mov	 eax, 1
  0005c	5e		 pop	 esi

; 35   : }

  0005d	8b e5		 mov	 esp, ebp
  0005f	5d		 pop	 ebp
  00060	c2 04 00	 ret	 4
?CreateDbHandler@CDbController@@QAEHK@Z ENDP		; CDbController::CreateDbHandler
_TEXT	ENDS
; Function compile flags: /Ogtp
; File C:\IAGOS\server\v18\Source\Source\DatabaseServer\dbcontroller.cpp
;	COMDAT ??1CDbController@@UAE@XZ
_TEXT	SEGMENT
??1CDbController@@UAE@XZ PROC				; CDbController::~CDbController, COMDAT
; _this$ = ecx

; 16   : {

  00000	c7 01 00 00 00
	00		 mov	 DWORD PTR [ecx], OFFSET ??_7CDbController@@6B@

; 17   : }

  00006	c3		 ret	 0
??1CDbController@@UAE@XZ ENDP				; CDbController::~CDbController
_TEXT	ENDS
; Function compile flags: /Ogtp
; File C:\IAGOS\server\v18\Source\Source\DatabaseServer\dbcontroller.cpp
;	COMDAT ??0CDbController@@QAE@XZ
_TEXT	SEGMENT
??0CDbController@@QAE@XZ PROC				; CDbController::CDbController, COMDAT
; _this$ = ecx

; 12   : {

  00000	c7 01 00 00 00
	00		 mov	 DWORD PTR [ecx], OFFSET ??_7CDbController@@6B@

; 13   : }

  00006	8b c1		 mov	 eax, ecx
  00008	c7 41 04 00 00
	00 00		 mov	 DWORD PTR [ecx+4], 0
  0000f	c7 41 08 00 00
	00 00		 mov	 DWORD PTR [ecx+8], 0
  00016	c7 41 0c 00 00
	00 00		 mov	 DWORD PTR [ecx+12], 0
  0001d	c7 41 10 00 00
	00 00		 mov	 DWORD PTR [ecx+16], 0
  00024	c3		 ret	 0
??0CDbController@@QAE@XZ ENDP				; CDbController::CDbController
_TEXT	ENDS
; Function compile flags: /Ogtp
; File C:\Program Files\Microsoft Visual Studio\2022\Professional\VC\Tools\MSVC\14.44.35207\include\xmemory
;	COMDAT ??$_Allocate_manually_vector_aligned@U_Default_allocate_traits@std@@@std@@YAPAXI@Z
_TEXT	SEGMENT
__Bytes$ = 8						; size = 4
??$_Allocate_manually_vector_aligned@U_Default_allocate_traits@std@@@std@@YAPAXI@Z PROC ; std::_Allocate_manually_vector_aligned<std::_Default_allocate_traits>, COMDAT

; 182  : __declspec(allocator) void* _Allocate_manually_vector_aligned(const size_t _Bytes) {

  00000	55		 push	 ebp
  00001	8b ec		 mov	 ebp, esp

; 183  :     // allocate _Bytes manually aligned to at least _Big_allocation_alignment
; 184  :     const size_t _Block_size = _Non_user_size + _Bytes;

  00003	8b 45 08	 mov	 eax, DWORD PTR __Bytes$[ebp]
  00006	8d 48 23	 lea	 ecx, DWORD PTR [eax+35]

; 185  :     if (_Block_size <= _Bytes) {

  00009	3b c8		 cmp	 ecx, eax
  0000b	0f 86 00 00 00
	00		 jbe	 ?_Throw_bad_array_new_length@std@@YAXXZ ; std::_Throw_bad_array_new_length

; 136  :         return ::operator new(_Bytes);

  00011	51		 push	 ecx
  00012	e8 00 00 00 00	 call	 ??2@YAPAXI@Z		; operator new

; 186  :         _Throw_bad_array_new_length(); // add overflow
; 187  :     }
; 188  : 
; 189  :     const uintptr_t _Ptr_container = reinterpret_cast<uintptr_t>(_Traits::_Allocate(_Block_size));

  00017	8b c8		 mov	 ecx, eax

; 136  :         return ::operator new(_Bytes);

  00019	83 c4 04	 add	 esp, 4

; 190  :     _STL_VERIFY(_Ptr_container != 0, "invalid argument"); // validate even in release since we're doing p[-1]

  0001c	85 c9		 test	 ecx, ecx
  0001e	74 0b		 je	 SHORT $LN9@Allocate_m

; 191  :     void* const _Ptr = reinterpret_cast<void*>((_Ptr_container + _Non_user_size) & ~(_Big_allocation_alignment - 1));

  00020	8d 41 23	 lea	 eax, DWORD PTR [ecx+35]
  00023	83 e0 e0	 and	 eax, -32		; ffffffe0H

; 192  :     static_cast<uintptr_t*>(_Ptr)[-1] = _Ptr_container;

  00026	89 48 fc	 mov	 DWORD PTR [eax-4], ecx

; 193  : 
; 194  : #ifdef _DEBUG
; 195  :     static_cast<uintptr_t*>(_Ptr)[-2] = _Big_allocation_sentinel;
; 196  : #endif // defined(_DEBUG)
; 197  :     return _Ptr;
; 198  : }

  00029	5d		 pop	 ebp
  0002a	c3		 ret	 0
$LN9@Allocate_m:

; 190  :     _STL_VERIFY(_Ptr_container != 0, "invalid argument"); // validate even in release since we're doing p[-1]

  0002b	6a 00		 push	 0
  0002d	6a 00		 push	 0
  0002f	6a 00		 push	 0
  00031	6a 00		 push	 0
  00033	6a 00		 push	 0
  00035	e8 00 00 00 00	 call	 __invoke_watson
$LN7@Allocate_m:
  0003a	cc		 int	 3
??$_Allocate_manually_vector_aligned@U_Default_allocate_traits@std@@@std@@YAPAXI@Z ENDP ; std::_Allocate_manually_vector_aligned<std::_Default_allocate_traits>
_TEXT	ENDS
; Function compile flags: /Ogtp
; File C:\IAGOS\server\v18\Source\Source\_Network\Mcl\Include\CMclAutoLock.h
; File C:\IAGOS\server\v18\Source\Source\_Network\Mcl\Include\CMclCritSec.h
; File C:\IAGOS\server\v18\Source\Source\_Network\Mcl\Include\CMclAutoLock.h
;	COMDAT ??1CMclAutoLock@@QAE@XZ
_TEXT	SEGMENT
??1CMclAutoLock@@QAE@XZ PROC				; CMclAutoLock::~CMclAutoLock, COMDAT
; _this$ = ecx
; File C:\IAGOS\server\v18\Source\Source\_Network\Mcl\Include\CMclCritSec.h

; 39   : 		::LeaveCriticalSection( &m_CritSec );

  00000	8b 01		 mov	 eax, DWORD PTR [ecx]
  00002	83 c0 04	 add	 eax, 4
  00005	50		 push	 eax
  00006	ff 15 00 00 00
	00		 call	 DWORD PTR __imp__LeaveCriticalSection@4
; File C:\IAGOS\server\v18\Source\Source\_Network\Mcl\Include\CMclAutoLock.h

; 29   : 	}

  0000c	c3		 ret	 0
??1CMclAutoLock@@QAE@XZ ENDP				; CMclAutoLock::~CMclAutoLock
_TEXT	ENDS
; Function compile flags: /Ogtp
; File C:\IAGOS\server\v18\Source\Source\_Network\Mcl\Include\CMclCritSec.h
;	COMDAT ??_GCMclCritSec@@UAEPAXI@Z
_TEXT	SEGMENT
___flags$ = 8						; size = 4
??_GCMclCritSec@@UAEPAXI@Z PROC				; CMclCritSec::`scalar deleting destructor', COMDAT
; _this$ = ecx
  00000	55		 push	 ebp
  00001	8b ec		 mov	 ebp, esp

; 26   : 	{

  00003	56		 push	 esi
  00004	8b f1		 mov	 esi, ecx

; 27   : 		::DeleteCriticalSection( &m_CritSec );

  00006	8d 46 04	 lea	 eax, DWORD PTR [esi+4]
  00009	c7 06 00 00 00
	00		 mov	 DWORD PTR [esi], OFFSET ??_7CMclCritSec@@6B@
  0000f	50		 push	 eax
  00010	ff 15 00 00 00
	00		 call	 DWORD PTR __imp__DeleteCriticalSection@4
  00016	f6 45 08 01	 test	 BYTE PTR ___flags$[ebp], 1
  0001a	74 0b		 je	 SHORT $LN8@scalar
  0001c	6a 1c		 push	 28			; 0000001cH
  0001e	56		 push	 esi
  0001f	e8 00 00 00 00	 call	 ??3@YAXPAXI@Z		; operator delete
  00024	83 c4 08	 add	 esp, 8
$LN8@scalar:
  00027	8b c6		 mov	 eax, esi
  00029	5e		 pop	 esi
  0002a	5d		 pop	 ebp
  0002b	c2 04 00	 ret	 4
??_GCMclCritSec@@UAEPAXI@Z ENDP				; CMclCritSec::`scalar deleting destructor'
_TEXT	ENDS
; Function compile flags: /Ogtp
; File C:\IAGOS\server\v18\Source\Source\_Network\Mcl\Include\CMclCritSec.h
;	COMDAT ??1CMclCritSec@@UAE@XZ
_TEXT	SEGMENT
??1CMclCritSec@@UAE@XZ PROC				; CMclCritSec::~CMclCritSec, COMDAT
; _this$ = ecx

; 27   : 		::DeleteCriticalSection( &m_CritSec );

  00000	8d 41 04	 lea	 eax, DWORD PTR [ecx+4]
  00003	c7 01 00 00 00
	00		 mov	 DWORD PTR [ecx], OFFSET ??_7CMclCritSec@@6B@
  00009	50		 push	 eax
  0000a	ff 15 00 00 00
	00		 call	 DWORD PTR __imp__DeleteCriticalSection@4

; 28   : 	}

  00010	c3		 ret	 0
??1CMclCritSec@@UAE@XZ ENDP				; CMclCritSec::~CMclCritSec
_TEXT	ENDS
; Function compile flags: /Ogtp
; File C:\Program Files\Microsoft Visual Studio\2022\Professional\VC\Tools\MSVC\14.44.35207\include\xmemory
;	COMDAT ?_Throw_bad_array_new_length@std@@YAXXZ
_TEXT	SEGMENT
$T1 = -12						; size = 12
?_Throw_bad_array_new_length@std@@YAXXZ PROC		; std::_Throw_bad_array_new_length, COMDAT

; 107  : [[noreturn]] inline void _Throw_bad_array_new_length() {

  00000	55		 push	 ebp
  00001	8b ec		 mov	 ebp, esp
  00003	83 ec 0c	 sub	 esp, 12			; 0000000cH

; 108  :     _THROW(bad_array_new_length{});

  00006	8d 4d f4	 lea	 ecx, DWORD PTR $T1[ebp]
  00009	e8 00 00 00 00	 call	 ??0bad_array_new_length@std@@QAE@XZ ; std::bad_array_new_length::bad_array_new_length
  0000e	68 00 00 00 00	 push	 OFFSET __TI3?AVbad_array_new_length@std@@
  00013	8d 45 f4	 lea	 eax, DWORD PTR $T1[ebp]
  00016	50		 push	 eax
  00017	e8 00 00 00 00	 call	 __CxxThrowException@8
$LN3@Throw_bad_:
  0001c	cc		 int	 3
?_Throw_bad_array_new_length@std@@YAXXZ ENDP		; std::_Throw_bad_array_new_length
_TEXT	ENDS
; Function compile flags: /Ogtp
; File C:\Program Files\Microsoft Visual Studio\2022\Professional\VC\Tools\MSVC\14.44.35207\include\vcruntime_exception.h
;	COMDAT ??_Gbad_array_new_length@std@@UAEPAXI@Z
_TEXT	SEGMENT
___flags$ = 8						; size = 4
??_Gbad_array_new_length@std@@UAEPAXI@Z PROC		; std::bad_array_new_length::`scalar deleting destructor', COMDAT
; _this$ = ecx
  00000	55		 push	 ebp
  00001	8b ec		 mov	 ebp, esp

; 90   :     {

  00003	56		 push	 esi
  00004	8b f1		 mov	 esi, ecx

; 91   :         __std_exception_destroy(&_Data);

  00006	8d 46 04	 lea	 eax, DWORD PTR [esi+4]
  00009	c7 06 00 00 00
	00		 mov	 DWORD PTR [esi], OFFSET ??_7exception@std@@6B@
  0000f	50		 push	 eax
  00010	e8 00 00 00 00	 call	 ___std_exception_destroy
  00015	83 c4 04	 add	 esp, 4
  00018	f6 45 08 01	 test	 BYTE PTR ___flags$[ebp], 1
  0001c	74 0b		 je	 SHORT $LN18@scalar
  0001e	6a 0c		 push	 12			; 0000000cH
  00020	56		 push	 esi
  00021	e8 00 00 00 00	 call	 ??3@YAXPAXI@Z		; operator delete
  00026	83 c4 08	 add	 esp, 8
$LN18@scalar:
  00029	8b c6		 mov	 eax, esi
  0002b	5e		 pop	 esi
  0002c	5d		 pop	 ebp
  0002d	c2 04 00	 ret	 4
??_Gbad_array_new_length@std@@UAEPAXI@Z ENDP		; std::bad_array_new_length::`scalar deleting destructor'
_TEXT	ENDS
; Function compile flags: /Ogtp
; File C:\Program Files\Microsoft Visual Studio\2022\Professional\VC\Tools\MSVC\14.44.35207\include\vcruntime_exception.h
;	COMDAT ??0bad_array_new_length@std@@QAE@ABV01@@Z
_TEXT	SEGMENT
___that$ = 8						; size = 4
??0bad_array_new_length@std@@QAE@ABV01@@Z PROC		; std::bad_array_new_length::bad_array_new_length, COMDAT
; _this$ = ecx
  00000	55		 push	 ebp
  00001	8b ec		 mov	 ebp, esp

; 73   :     {

  00003	56		 push	 esi
  00004	8b f1		 mov	 esi, ecx
  00006	0f 57 c0	 xorps	 xmm0, xmm0

; 72   :         : _Data()

  00009	8d 46 04	 lea	 eax, DWORD PTR [esi+4]

; 74   :         __std_exception_copy(&_Other._Data, &_Data);

  0000c	50		 push	 eax
  0000d	c7 06 00 00 00
	00		 mov	 DWORD PTR [esi], OFFSET ??_7exception@std@@6B@
  00013	66 0f d6 00	 movq	 QWORD PTR [eax], xmm0
  00017	8b 45 08	 mov	 eax, DWORD PTR ___that$[ebp]
  0001a	83 c0 04	 add	 eax, 4
  0001d	50		 push	 eax
  0001e	e8 00 00 00 00	 call	 ___std_exception_copy
  00023	83 c4 08	 add	 esp, 8
  00026	c7 06 00 00 00
	00		 mov	 DWORD PTR [esi], OFFSET ??_7bad_array_new_length@std@@6B@
  0002c	8b c6		 mov	 eax, esi
  0002e	5e		 pop	 esi
  0002f	5d		 pop	 ebp
  00030	c2 04 00	 ret	 4
??0bad_array_new_length@std@@QAE@ABV01@@Z ENDP		; std::bad_array_new_length::bad_array_new_length
_TEXT	ENDS
; Function compile flags: /Ogtp
; File C:\Program Files\Microsoft Visual Studio\2022\Professional\VC\Tools\MSVC\14.44.35207\include\vcruntime_exception.h
;	COMDAT ??1bad_array_new_length@std@@UAE@XZ
_TEXT	SEGMENT
??1bad_array_new_length@std@@UAE@XZ PROC		; std::bad_array_new_length::~bad_array_new_length, COMDAT
; _this$ = ecx

; 91   :         __std_exception_destroy(&_Data);

  00000	8d 41 04	 lea	 eax, DWORD PTR [ecx+4]
  00003	c7 01 00 00 00
	00		 mov	 DWORD PTR [ecx], OFFSET ??_7exception@std@@6B@
  00009	50		 push	 eax
  0000a	e8 00 00 00 00	 call	 ___std_exception_destroy
  0000f	59		 pop	 ecx
  00010	c3		 ret	 0
??1bad_array_new_length@std@@UAE@XZ ENDP		; std::bad_array_new_length::~bad_array_new_length
_TEXT	ENDS
; Function compile flags: /Ogtp
; File C:\Program Files\Microsoft Visual Studio\2022\Professional\VC\Tools\MSVC\14.44.35207\include\vcruntime_exception.h
;	COMDAT ??0bad_array_new_length@std@@QAE@XZ
_TEXT	SEGMENT
??0bad_array_new_length@std@@QAE@XZ PROC		; std::bad_array_new_length::bad_array_new_length, COMDAT
; _this$ = ecx

; 144  :     {

  00000	0f 57 c0	 xorps	 xmm0, xmm0

; 145  :     }

  00003	8b c1		 mov	 eax, ecx

; 66   :         : _Data()

  00005	66 0f d6 41 04	 movq	 QWORD PTR [ecx+4], xmm0

; 67   :     {
; 68   :         _Data._What = _Message;

  0000a	c7 41 04 00 00
	00 00		 mov	 DWORD PTR [ecx+4], OFFSET ??_C@_0BF@KINCDENJ@bad?5array?5new?5length@

; 144  :     {

  00011	c7 01 00 00 00
	00		 mov	 DWORD PTR [ecx], OFFSET ??_7bad_array_new_length@std@@6B@

; 145  :     }

  00017	c3		 ret	 0
??0bad_array_new_length@std@@QAE@XZ ENDP		; std::bad_array_new_length::bad_array_new_length
_TEXT	ENDS
; Function compile flags: /Ogtp
; File C:\Program Files\Microsoft Visual Studio\2022\Professional\VC\Tools\MSVC\14.44.35207\include\vcruntime_exception.h
;	COMDAT ??_Gbad_alloc@std@@UAEPAXI@Z
_TEXT	SEGMENT
___flags$ = 8						; size = 4
??_Gbad_alloc@std@@UAEPAXI@Z PROC			; std::bad_alloc::`scalar deleting destructor', COMDAT
; _this$ = ecx
  00000	55		 push	 ebp
  00001	8b ec		 mov	 ebp, esp

; 90   :     {

  00003	56		 push	 esi
  00004	8b f1		 mov	 esi, ecx

; 91   :         __std_exception_destroy(&_Data);

  00006	8d 46 04	 lea	 eax, DWORD PTR [esi+4]
  00009	c7 06 00 00 00
	00		 mov	 DWORD PTR [esi], OFFSET ??_7exception@std@@6B@
  0000f	50		 push	 eax
  00010	e8 00 00 00 00	 call	 ___std_exception_destroy
  00015	83 c4 04	 add	 esp, 4
  00018	f6 45 08 01	 test	 BYTE PTR ___flags$[ebp], 1
  0001c	74 0b		 je	 SHORT $LN13@scalar
  0001e	6a 0c		 push	 12			; 0000000cH
  00020	56		 push	 esi
  00021	e8 00 00 00 00	 call	 ??3@YAXPAXI@Z		; operator delete
  00026	83 c4 08	 add	 esp, 8
$LN13@scalar:
  00029	8b c6		 mov	 eax, esi
  0002b	5e		 pop	 esi
  0002c	5d		 pop	 ebp
  0002d	c2 04 00	 ret	 4
??_Gbad_alloc@std@@UAEPAXI@Z ENDP			; std::bad_alloc::`scalar deleting destructor'
_TEXT	ENDS
; Function compile flags: /Ogtp
; File C:\Program Files\Microsoft Visual Studio\2022\Professional\VC\Tools\MSVC\14.44.35207\include\vcruntime_exception.h
;	COMDAT ??0bad_alloc@std@@QAE@ABV01@@Z
_TEXT	SEGMENT
___that$ = 8						; size = 4
??0bad_alloc@std@@QAE@ABV01@@Z PROC			; std::bad_alloc::bad_alloc, COMDAT
; _this$ = ecx
  00000	55		 push	 ebp
  00001	8b ec		 mov	 ebp, esp

; 73   :     {

  00003	56		 push	 esi
  00004	8b f1		 mov	 esi, ecx
  00006	0f 57 c0	 xorps	 xmm0, xmm0

; 72   :         : _Data()

  00009	8d 46 04	 lea	 eax, DWORD PTR [esi+4]

; 74   :         __std_exception_copy(&_Other._Data, &_Data);

  0000c	50		 push	 eax
  0000d	c7 06 00 00 00
	00		 mov	 DWORD PTR [esi], OFFSET ??_7exception@std@@6B@
  00013	66 0f d6 00	 movq	 QWORD PTR [eax], xmm0
  00017	8b 45 08	 mov	 eax, DWORD PTR ___that$[ebp]
  0001a	83 c0 04	 add	 eax, 4
  0001d	50		 push	 eax
  0001e	e8 00 00 00 00	 call	 ___std_exception_copy
  00023	83 c4 08	 add	 esp, 8
  00026	c7 06 00 00 00
	00		 mov	 DWORD PTR [esi], OFFSET ??_7bad_alloc@std@@6B@
  0002c	8b c6		 mov	 eax, esi
  0002e	5e		 pop	 esi
  0002f	5d		 pop	 ebp
  00030	c2 04 00	 ret	 4
??0bad_alloc@std@@QAE@ABV01@@Z ENDP			; std::bad_alloc::bad_alloc
_TEXT	ENDS
; Function compile flags: /Ogtp
; File C:\Program Files\Microsoft Visual Studio\2022\Professional\VC\Tools\MSVC\14.44.35207\include\vcruntime_exception.h
;	COMDAT ??_Gexception@std@@UAEPAXI@Z
_TEXT	SEGMENT
___flags$ = 8						; size = 4
??_Gexception@std@@UAEPAXI@Z PROC			; std::exception::`scalar deleting destructor', COMDAT
; _this$ = ecx
  00000	55		 push	 ebp
  00001	8b ec		 mov	 ebp, esp

; 90   :     {

  00003	56		 push	 esi
  00004	8b f1		 mov	 esi, ecx

; 91   :         __std_exception_destroy(&_Data);

  00006	8d 46 04	 lea	 eax, DWORD PTR [esi+4]
  00009	c7 06 00 00 00
	00		 mov	 DWORD PTR [esi], OFFSET ??_7exception@std@@6B@
  0000f	50		 push	 eax
  00010	e8 00 00 00 00	 call	 ___std_exception_destroy
  00015	83 c4 04	 add	 esp, 4
  00018	f6 45 08 01	 test	 BYTE PTR ___flags$[ebp], 1
  0001c	74 0b		 je	 SHORT $LN8@scalar
  0001e	6a 0c		 push	 12			; 0000000cH
  00020	56		 push	 esi
  00021	e8 00 00 00 00	 call	 ??3@YAXPAXI@Z		; operator delete
  00026	83 c4 08	 add	 esp, 8
$LN8@scalar:
  00029	8b c6		 mov	 eax, esi
  0002b	5e		 pop	 esi
  0002c	5d		 pop	 ebp
  0002d	c2 04 00	 ret	 4
??_Gexception@std@@UAEPAXI@Z ENDP			; std::exception::`scalar deleting destructor'
_TEXT	ENDS
; Function compile flags: /Ogtp
; File C:\Program Files\Microsoft Visual Studio\2022\Professional\VC\Tools\MSVC\14.44.35207\include\vcruntime_exception.h
;	COMDAT ?what@exception@std@@UBEPBDXZ
_TEXT	SEGMENT
?what@exception@std@@UBEPBDXZ PROC			; std::exception::what, COMDAT
; _this$ = ecx

; 96   :         return _Data._What ? _Data._What : "Unknown exception";

  00000	8b 49 04	 mov	 ecx, DWORD PTR [ecx+4]
  00003	b8 00 00 00 00	 mov	 eax, OFFSET ??_C@_0BC@EOODALEL@Unknown?5exception@
  00008	85 c9		 test	 ecx, ecx
  0000a	0f 45 c1	 cmovne	 eax, ecx

; 97   :     }

  0000d	c3		 ret	 0
?what@exception@std@@UBEPBDXZ ENDP			; std::exception::what
_TEXT	ENDS
; Function compile flags: /Ogtp
; File C:\Program Files\Microsoft Visual Studio\2022\Professional\VC\Tools\MSVC\14.44.35207\include\vcruntime_exception.h
;	COMDAT ??1exception@std@@UAE@XZ
_TEXT	SEGMENT
??1exception@std@@UAE@XZ PROC				; std::exception::~exception, COMDAT
; _this$ = ecx

; 91   :         __std_exception_destroy(&_Data);

  00000	8d 41 04	 lea	 eax, DWORD PTR [ecx+4]
  00003	c7 01 00 00 00
	00		 mov	 DWORD PTR [ecx], OFFSET ??_7exception@std@@6B@
  00009	50		 push	 eax
  0000a	e8 00 00 00 00	 call	 ___std_exception_destroy
  0000f	59		 pop	 ecx

; 92   :     }

  00010	c3		 ret	 0
??1exception@std@@UAE@XZ ENDP				; std::exception::~exception
_TEXT	ENDS
; Function compile flags: /Ogtp
; File C:\Program Files\Microsoft Visual Studio\2022\Professional\VC\Tools\MSVC\14.44.35207\include\vcruntime_exception.h
;	COMDAT ??0exception@std@@QAE@ABV01@@Z
_TEXT	SEGMENT
__Other$ = 8						; size = 4
??0exception@std@@QAE@ABV01@@Z PROC			; std::exception::exception, COMDAT
; _this$ = ecx

; 73   :     {

  00000	55		 push	 ebp
  00001	8b ec		 mov	 ebp, esp
  00003	56		 push	 esi
  00004	8b f1		 mov	 esi, ecx
  00006	0f 57 c0	 xorps	 xmm0, xmm0
  00009	8d 46 04	 lea	 eax, DWORD PTR [esi+4]

; 74   :         __std_exception_copy(&_Other._Data, &_Data);

  0000c	50		 push	 eax
  0000d	c7 06 00 00 00
	00		 mov	 DWORD PTR [esi], OFFSET ??_7exception@std@@6B@
  00013	66 0f d6 00	 movq	 QWORD PTR [eax], xmm0
  00017	8b 45 08	 mov	 eax, DWORD PTR __Other$[ebp]
  0001a	83 c0 04	 add	 eax, 4
  0001d	50		 push	 eax
  0001e	e8 00 00 00 00	 call	 ___std_exception_copy
  00023	83 c4 08	 add	 esp, 8

; 75   :     }

  00026	8b c6		 mov	 eax, esi
  00028	5e		 pop	 esi
  00029	5d		 pop	 ebp
  0002a	c2 04 00	 ret	 4
??0exception@std@@QAE@ABV01@@Z ENDP			; std::exception::exception
_TEXT	ENDS
; Function compile flags: /Ogtp
; File C:\IAGOS\server\v18\Source\Source\DatabaseServer\dbcontroller.cpp
;	COMDAT ?__empty_global_delete@@YAXPAXI@Z
_TEXT	SEGMENT
___formal$ = 8						; size = 4
___formal$ = 12						; size = 4
?__empty_global_delete@@YAXPAXI@Z PROC			; __empty_global_delete, COMDAT

  00000	c2 00 00	 ret	 0
?__empty_global_delete@@YAXPAXI@Z ENDP			; __empty_global_delete
_TEXT	ENDS
; Function compile flags: /Ogtp
; File C:\IAGOS\server\v18\Source\Source\DatabaseServer\dbcontroller.cpp
;	COMDAT ?__empty_global_delete@@YAXPAX@Z
_TEXT	SEGMENT
___formal$ = 8						; size = 4
?__empty_global_delete@@YAXPAX@Z PROC			; __empty_global_delete, COMDAT

  00000	c2 00 00	 ret	 0
?__empty_global_delete@@YAXPAX@Z ENDP			; __empty_global_delete
_TEXT	ENDS
END
