; Listing generated by Microsoft (R) Optimizing Compiler Version 19.44.35225.0 

	TITLE	C:\IAGOS\server\v18\Source\Output\DatabaseServer\Release\DbItemUpdate.obj
	.686P
	.XMM
	include listing.inc
	.model	flat

INCLUDELIB LIBCMT
INCLUDELIB OLDNAMES

PUBLIC	?__empty_global_delete@@YAXPAX@Z		; __empty_global_delete
PUBLIC	?__empty_global_delete@@YAXPAXI@Z		; __empty_global_delete
PUBLIC	___local_stdio_printf_options
PUBLIC	_sprintf
PUBLIC	?AfxCrtErrorCheck@@YAHH@Z			; AfxCrtErrorCheck
PUBLIC	?AtlThrowImpl@ATL@@YGXJ@Z			; ATL::AtlThrowImpl
PUBLIC	??1?$CSimpleStringT@D$0A@@ATL@@QAE@XZ		; ATL::CSimpleStringT<char,0>::~CSimpleStringT<char,0>
PUBLIC	?SetString@?$CSimpleStringT@D$0A@@ATL@@QAEXPBDH@Z ; ATL::CSimpleStringT<char,0>::SetString
PUBLIC	?ThrowMemoryException@?$CSimpleStringT@D$0A@@ATL@@KAXXZ ; ATL::CSimpleStringT<char,0>::ThrowMemoryException
PUBLIC	?Fork@?$CSimpleStringT@D$0A@@ATL@@AAEXH@Z	; ATL::CSimpleStringT<char,0>::Fork
PUBLIC	?PrepareWrite2@?$CSimpleStringT@D$0A@@ATL@@AAEXH@Z ; ATL::CSimpleStringT<char,0>::PrepareWrite2
PUBLIC	?Reallocate@?$CSimpleStringT@D$0A@@ATL@@AAEXH@Z	; ATL::CSimpleStringT<char,0>::Reallocate
PUBLIC	??1?$CStringT@DV?$StrTraitMFC@DV?$ChTraitsCRT@D@ATL@@@@@ATL@@QAE@XZ ; ATL::CStringT<char,StrTraitMFC<char,ATL::ChTraitsCRT<char> > >::~CStringT<char,StrTraitMFC<char,ATL::ChTraitsCRT<char> > >
PUBLIC	?Replace@?$CStringT@DV?$StrTraitMFC@DV?$ChTraitsCRT@D@ATL@@@@@ATL@@QAEHPBD0@Z ; ATL::CStringT<char,StrTraitMFC<char,ATL::ChTraitsCRT<char> > >::Replace
PUBLIC	?LoadStringA@?$CStringT@DV?$StrTraitMFC@DV?$ChTraitsCRT@D@ATL@@@@@ATL@@QAEHI@Z ; ATL::CStringT<char,StrTraitMFC<char,ATL::ChTraitsCRT<char> > >::LoadStringA
PUBLIC	?ItemUpdateThread@CDbManager@@QAEXXZ		; CDbManager::ItemUpdateThread
PUBLIC	?ChangeItemUpdate@CDbManager@@QAEXPAVCQuery@@@Z	; CDbManager::ChangeItemUpdate
PUBLIC	?ChangeSkillUpdate@CDbManager@@QAEXPAVCQuery@@@Z ; CDbManager::ChangeSkillUpdate
PUBLIC	?ChangeMonsterUpdate@CDbManager@@QAEXPAVCQuery@@@Z ; CDbManager::ChangeMonsterUpdate
PUBLIC	?ChangeQuestUpdate@CDbManager@@QAEXPAVCQuery@@@Z ; CDbManager::ChangeQuestUpdate
PUBLIC	?ChangeJobNameUpdate@CDbManager@@QAEXPAVCQuery@@@Z ; CDbManager::ChangeJobNameUpdate
PUBLIC	?ChangeSexUpdate@CDbManager@@QAEXPAVCQuery@@@Z	; CDbManager::ChangeSexUpdate
PUBLIC	?_OptionsStorage@?1??__local_stdio_printf_options@@9@4_KA ; `__local_stdio_printf_options'::`2'::_OptionsStorage
PUBLIC	??_C@_00CNPNBAHC@@				; `string'
PUBLIC	??_C@_0DN@EKFNMIIM@C?3?2IAGOS?2server?2v18?2Source?2Sour@ ; `string'
PUBLIC	??_C@_0CB@PKKIPHED@?$CFs?0?5?$CFd?5ItemUpdate?5Connect?5Faile@ ; `string'
PUBLIC	??_C@_0O@EEDFOGDI@ITEM_STR?5?8D1?8@		; `string'
PUBLIC	??_C@_01CLKCMJKC@?5@				; `string'
PUBLIC	??_C@_01GEODFPGF@?8@				; `string'
PUBLIC	??_C@_0BEA@PPCHAOIE@ITEM_STR?5?8I1?8?0?5?$CFd?0?8?$CFs?8?0?8?$CFs?8?0?$CFd?0@ ; `string'
PUBLIC	??_C@_0O@EGHDFIGB@ITEM_STR?5?8D2?8@		; `string'
PUBLIC	??_C@_0BN@CKFKBGCJ@ITEM_STR?5?8I2?8?0?5?$CFd?0?8?$CFs?8?0?8?8?0?$CFd@ ; `string'
PUBLIC	??_C@_0O@EHLBDCFG@ITEM_STR?5?8D3?8@		; `string'
PUBLIC	??_C@_0BN@MFAIKAMI@ITEM_STR?5?8I3?8?0?5?$CFd?0?8?$CFs?8?0?8?8?0?$CFd@ ; `string'
PUBLIC	??_C@_0O@ECPOCEND@ITEM_STR?5?8D4?8@		; `string'
PUBLIC	??_C@_0BH@GAKFPDMN@ITEM_STR?5?8I4?8?0?5?$CFd?0?8?$CFs?8@ ; `string'
EXTRN	??2@YAPAXI@Z:PROC				; operator new
EXTRN	??3@YAXPAXI@Z:PROC				; operator delete
EXTRN	__invalid_parameter_noinfo:PROC
EXTRN	__errno:PROC
EXTRN	__imp__WaitForSingleObject@8:PROC
EXTRN	__imp__LoadResource@8:PROC
EXTRN	__imp__LockResource@4:PROC
EXTRN	__imp__SizeofResource@8:PROC
EXTRN	__imp__FindResourceW@12:PROC
EXTRN	__imp__WideCharToMultiByte@32:PROC
EXTRN	__mbsstr:PROC
EXTRN	___stdio_common_vsprintf:PROC
EXTRN	?AfxThrowMemoryException@@YGXXZ:PROC		; AfxThrowMemoryException
EXTRN	?AfxThrowInvalidArgException@@YGXXZ:PROC	; AfxThrowInvalidArgException
EXTRN	?AfxThrowOleException@@YGXJ@Z:PROC		; AfxThrowOleException
EXTRN	?AfxFindStringResourceHandle@@YGPAUHINSTANCE__@@I@Z:PROC ; AfxFindStringResourceHandle
EXTRN	?AfxGetStringManager@@YGPAUIAtlStringMgr@ATL@@XZ:PROC ; AfxGetStringManager
EXTRN	?AfxMessageBox@@YGHPBDII@Z:PROC			; AfxMessageBox
EXTRN	?WriteLog@@YAXPBDZZ:PROC			; WriteLog
EXTRN	??0CQuery@@QAE@XZ:PROC				; CQuery::CQuery
EXTRN	??1CQuery@@QAE@XZ:PROC				; CQuery::~CQuery
EXTRN	?Connect@CQuery@@QAEHHPAD0PBD@Z:PROC		; CQuery::Connect
EXTRN	?Exec@CQuery@@QAEHPBD@Z:PROC			; CQuery::Exec
EXTRN	@__security_check_cookie@4:PROC
EXTRN	___CxxFrameHandler3:PROC
EXTRN	__chkstk:PROC
EXTRN	_memcpy:PROC
EXTRN	_memmove:PROC
EXTRN	_memset:PROC
EXTRN	?prj@@3VCProject@@A:BYTE			; prj
EXTRN	?DSN_NAME_ITEMUPDATE@@3PADA:BYTE		; DSN_NAME_ITEMUPDATE
EXTRN	?DB_ADMIN_ID_ITEMUPDATE@@3PADA:BYTE		; DB_ADMIN_ID_ITEMUPDATE
EXTRN	___security_cookie:DWORD
EXTRN	__fltused:DWORD
;	COMDAT ?_OptionsStorage@?1??__local_stdio_printf_options@@9@4_KA
_BSS	SEGMENT
?_OptionsStorage@?1??__local_stdio_printf_options@@9@4_KA DQ 01H DUP (?) ; `__local_stdio_printf_options'::`2'::_OptionsStorage
_BSS	ENDS
;	COMDAT ??_C@_0BH@GAKFPDMN@ITEM_STR?5?8I4?8?0?5?$CFd?0?8?$CFs?8@
CONST	SEGMENT
??_C@_0BH@GAKFPDMN@ITEM_STR?5?8I4?8?0?5?$CFd?0?8?$CFs?8@ DB 'ITEM_STR ''I'
	DB	'4'', %d,''%s''', 00H			; `string'
CONST	ENDS
;	COMDAT ??_C@_0O@ECPOCEND@ITEM_STR?5?8D4?8@
CONST	SEGMENT
??_C@_0O@ECPOCEND@ITEM_STR?5?8D4?8@ DB 'ITEM_STR ''D4''', 00H ; `string'
CONST	ENDS
;	COMDAT ??_C@_0BN@MFAIKAMI@ITEM_STR?5?8I3?8?0?5?$CFd?0?8?$CFs?8?0?8?8?0?$CFd@
CONST	SEGMENT
??_C@_0BN@MFAIKAMI@ITEM_STR?5?8I3?8?0?5?$CFd?0?8?$CFs?8?0?8?8?0?$CFd@ DB 'I'
	DB	'TEM_STR ''I3'', %d,''%s'','''',%d', 00H	; `string'
CONST	ENDS
;	COMDAT ??_C@_0O@EHLBDCFG@ITEM_STR?5?8D3?8@
CONST	SEGMENT
??_C@_0O@EHLBDCFG@ITEM_STR?5?8D3?8@ DB 'ITEM_STR ''D3''', 00H ; `string'
CONST	ENDS
;	COMDAT ??_C@_0BN@CKFKBGCJ@ITEM_STR?5?8I2?8?0?5?$CFd?0?8?$CFs?8?0?8?8?0?$CFd@
CONST	SEGMENT
??_C@_0BN@CKFKBGCJ@ITEM_STR?5?8I2?8?0?5?$CFd?0?8?$CFs?8?0?8?8?0?$CFd@ DB 'I'
	DB	'TEM_STR ''I2'', %d,''%s'','''',%d', 00H	; `string'
CONST	ENDS
;	COMDAT ??_C@_0O@EGHDFIGB@ITEM_STR?5?8D2?8@
CONST	SEGMENT
??_C@_0O@EGHDFIGB@ITEM_STR?5?8D2?8@ DB 'ITEM_STR ''D2''', 00H ; `string'
CONST	ENDS
;	COMDAT ??_C@_0BEA@PPCHAOIE@ITEM_STR?5?8I1?8?0?5?$CFd?0?8?$CFs?8?0?8?$CFs?8?0?$CFd?0@
CONST	SEGMENT
??_C@_0BEA@PPCHAOIE@ITEM_STR?5?8I1?8?0?5?$CFd?0?8?$CFs?8?0?8?$CFs?8?0?$CFd?0@ DB 'I'
	DB	'TEM_STR ''I1'', %d,''%s'',''%s'',%d,%d,%d,%d,%d,%d,%d,%d,%d,%'
	DB	'd,%d,%d,%d,%d,%d,%d,%d,%d,%d,%d,%d,%d,%d,%d,%d,%d,%d,%d,%d,%d'
	DB	',%d,%d,%d,%d,%d,%d,%d,%f,%d,%d,%d,%d,%d,%d,%d,%d,%d,%d,%d,%d,'
	DB	'%d,%d,%d,%d,%d,%d,%d,%d,%d,%d,%d,%d,%d,%d,%d,%d,%d,%d,%d,%d,%'
	DB	'd,%d,%d,%d,%d,%d,%d,%d,%d,%d,%d,%d,%d,%d,%d,%d,  %f,  %d,%d,%'
	DB	'd,%d,%d,  %d,  ''%s''', 00H			; `string'
CONST	ENDS
;	COMDAT ??_C@_01GEODFPGF@?8@
CONST	SEGMENT
??_C@_01GEODFPGF@?8@ DB '''', 00H			; `string'
CONST	ENDS
;	COMDAT ??_C@_01CLKCMJKC@?5@
CONST	SEGMENT
??_C@_01CLKCMJKC@?5@ DB ' ', 00H			; `string'
CONST	ENDS
;	COMDAT ??_C@_0O@EEDFOGDI@ITEM_STR?5?8D1?8@
CONST	SEGMENT
??_C@_0O@EEDFOGDI@ITEM_STR?5?8D1?8@ DB 'ITEM_STR ''D1''', 00H ; `string'
CONST	ENDS
;	COMDAT ??_C@_0CB@PKKIPHED@?$CFs?0?5?$CFd?5ItemUpdate?5Connect?5Faile@
CONST	SEGMENT
??_C@_0CB@PKKIPHED@?$CFs?0?5?$CFd?5ItemUpdate?5Connect?5Faile@ DB '%s, %d'
	DB	' ItemUpdate Connect Failed', 00H		; `string'
CONST	ENDS
;	COMDAT ??_C@_0DN@EKFNMIIM@C?3?2IAGOS?2server?2v18?2Source?2Sour@
CONST	SEGMENT
??_C@_0DN@EKFNMIIM@C?3?2IAGOS?2server?2v18?2Source?2Sour@ DB 'C:\IAGOS\se'
	DB	'rver\v18\Source\Source\_Database\DbItemUpdate.cpp', 00H ; `string'
CONST	ENDS
;	COMDAT ??_C@_00CNPNBAHC@@
CONST	SEGMENT
??_C@_00CNPNBAHC@@ DB 00H				; `string'
CONST	ENDS
;	COMDAT xdata$x
xdata$x	SEGMENT
__unwindtable$?ChangeQuestUpdate@CDbManager@@QAEXPAVCQuery@@@Z DD 0ffffffffH
	DD	FLAT:__unwindfunclet$?ChangeQuestUpdate@CDbManager@@QAEXPAVCQuery@@@Z$1
	DD	0ffffffffH
	DD	FLAT:__unwindfunclet$?ChangeQuestUpdate@CDbManager@@QAEXPAVCQuery@@@Z$0
__ehfuncinfo$?ChangeQuestUpdate@CDbManager@@QAEXPAVCQuery@@@Z DD 019930522H
	DD	02H
	DD	FLAT:__unwindtable$?ChangeQuestUpdate@CDbManager@@QAEXPAVCQuery@@@Z
	DD	2 DUP(00H)
	DD	2 DUP(00H)
	DD	00H
	DD	01H
xdata$x	ENDS
;	COMDAT xdata$x
xdata$x	SEGMENT
__unwindtable$?ChangeMonsterUpdate@CDbManager@@QAEXPAVCQuery@@@Z DD 0ffffffffH
	DD	FLAT:__unwindfunclet$?ChangeMonsterUpdate@CDbManager@@QAEXPAVCQuery@@@Z$1
	DD	0ffffffffH
	DD	FLAT:__unwindfunclet$?ChangeMonsterUpdate@CDbManager@@QAEXPAVCQuery@@@Z$0
__ehfuncinfo$?ChangeMonsterUpdate@CDbManager@@QAEXPAVCQuery@@@Z DD 019930522H
	DD	02H
	DD	FLAT:__unwindtable$?ChangeMonsterUpdate@CDbManager@@QAEXPAVCQuery@@@Z
	DD	2 DUP(00H)
	DD	2 DUP(00H)
	DD	00H
	DD	01H
xdata$x	ENDS
;	COMDAT xdata$x
xdata$x	SEGMENT
__unwindtable$?ChangeSkillUpdate@CDbManager@@QAEXPAVCQuery@@@Z DD 0ffffffffH
	DD	FLAT:__unwindfunclet$?ChangeSkillUpdate@CDbManager@@QAEXPAVCQuery@@@Z$1
	DD	0ffffffffH
	DD	FLAT:__unwindfunclet$?ChangeSkillUpdate@CDbManager@@QAEXPAVCQuery@@@Z$0
__ehfuncinfo$?ChangeSkillUpdate@CDbManager@@QAEXPAVCQuery@@@Z DD 019930522H
	DD	02H
	DD	FLAT:__unwindtable$?ChangeSkillUpdate@CDbManager@@QAEXPAVCQuery@@@Z
	DD	2 DUP(00H)
	DD	2 DUP(00H)
	DD	00H
	DD	01H
xdata$x	ENDS
;	COMDAT xdata$x
xdata$x	SEGMENT
__unwindtable$?ChangeItemUpdate@CDbManager@@QAEXPAVCQuery@@@Z DD 0ffffffffH
	DD	FLAT:__unwindfunclet$?ChangeItemUpdate@CDbManager@@QAEXPAVCQuery@@@Z$1
	DD	0ffffffffH
	DD	FLAT:__unwindfunclet$?ChangeItemUpdate@CDbManager@@QAEXPAVCQuery@@@Z$0
__ehfuncinfo$?ChangeItemUpdate@CDbManager@@QAEXPAVCQuery@@@Z DD 019930522H
	DD	02H
	DD	FLAT:__unwindtable$?ChangeItemUpdate@CDbManager@@QAEXPAVCQuery@@@Z
	DD	2 DUP(00H)
	DD	2 DUP(00H)
	DD	00H
	DD	01H
xdata$x	ENDS
;	COMDAT xdata$x
xdata$x	SEGMENT
__unwindtable$?ItemUpdateThread@CDbManager@@QAEXXZ DD 0ffffffffH
	DD	FLAT:__unwindfunclet$?ItemUpdateThread@CDbManager@@QAEXXZ$0
__ehfuncinfo$?ItemUpdateThread@CDbManager@@QAEXXZ DD 019930522H
	DD	01H
	DD	FLAT:__unwindtable$?ItemUpdateThread@CDbManager@@QAEXXZ
	DD	2 DUP(00H)
	DD	2 DUP(00H)
	DD	00H
	DD	01H
xdata$x	ENDS
;	COMDAT xdata$x
xdata$x	SEGMENT
__unwindtable$??0?$CStringT@DV?$StrTraitMFC@DV?$ChTraitsCRT@D@ATL@@@@@ATL@@QAE@PBD@Z DD 0ffffffffH
	DD	FLAT:__unwindfunclet$??0?$CStringT@DV?$StrTraitMFC@DV?$ChTraitsCRT@D@ATL@@@@@ATL@@QAE@PBD@Z$0
__ehfuncinfo$??0?$CStringT@DV?$StrTraitMFC@DV?$ChTraitsCRT@D@ATL@@@@@ATL@@QAE@PBD@Z DD 019930522H
	DD	01H
	DD	FLAT:__unwindtable$??0?$CStringT@DV?$StrTraitMFC@DV?$ChTraitsCRT@D@ATL@@@@@ATL@@QAE@PBD@Z
	DD	2 DUP(00H)
	DD	2 DUP(00H)
	DD	00H
	DD	01H
xdata$x	ENDS
; Function compile flags: /Ogtp
; File C:\IAGOS\server\v18\Source\Source\_Database\DbItemUpdate.cpp
;	COMDAT ?ChangeSexUpdate@CDbManager@@QAEXPAVCQuery@@@Z
_TEXT	SEGMENT
_pQuery$ = 8						; size = 4
?ChangeSexUpdate@CDbManager@@QAEXPAVCQuery@@@Z PROC	; CDbManager::ChangeSexUpdate, COMDAT
; _this$ = ecx

; 237  : //	SEX_MALE, SEX_FEMALE, SEX_SEXLESS
; 238  : 	TRACE( "ChangeSexUpdate Complete\n" );
; 239  : }

  00000	c2 04 00	 ret	 4
?ChangeSexUpdate@CDbManager@@QAEXPAVCQuery@@@Z ENDP	; CDbManager::ChangeSexUpdate
_TEXT	ENDS
; Function compile flags: /Ogtp
; File C:\IAGOS\server\v18\Source\Source\_Database\DbItemUpdate.cpp
;	COMDAT ?ChangeJobNameUpdate@CDbManager@@QAEXPAVCQuery@@@Z
_TEXT	SEGMENT
_pQuery$ = 8						; size = 4
?ChangeJobNameUpdate@CDbManager@@QAEXPAVCQuery@@@Z PROC	; CDbManager::ChangeJobNameUpdate, COMDAT
; _this$ = ecx

; 232  : 	TRACE( "ChangeJobNameUpdate Complete\n" );
; 233  : }

  00000	c2 04 00	 ret	 4
?ChangeJobNameUpdate@CDbManager@@QAEXPAVCQuery@@@Z ENDP	; CDbManager::ChangeJobNameUpdate
_TEXT	ENDS
; Function compile flags: /Ogtp
; File C:\IAGOS\server\v18\Source\Source\_Database\DbItemUpdate.cpp
; File C:\Program Files\Microsoft Visual Studio\2022\Professional\VC\Tools\MSVC\14.44.35207\include\xtree
; File C:\IAGOS\server\v18\Source\Source\_Database\DbItemUpdate.cpp
; File C:\Program Files\Microsoft Visual Studio\2022\Professional\VC\Tools\MSVC\14.44.35207\include\xstring
; File C:\Program Files\Microsoft Visual Studio\2022\Professional\VC\Tools\MSVC\14.44.35207\atlmfc\include\afxstr.h
; File C:\Program Files\Microsoft Visual Studio\2022\Professional\VC\Tools\MSVC\14.44.35207\atlmfc\include\atlsimpstr.h
; File C:\Program Files\Microsoft Visual Studio\2022\Professional\VC\Tools\MSVC\14.44.35207\atlmfc\include\cstringt.h
; File C:\Program Files\Microsoft Visual Studio\2022\Professional\VC\Tools\MSVC\14.44.35207\atlmfc\include\atlsimpstr.h
; File C:\IAGOS\server\v18\Source\Source\_Database\DbItemUpdate.cpp
; File C:\Program Files\Microsoft Visual Studio\2022\Professional\VC\Tools\MSVC\14.44.35207\atlmfc\include\atlsimpstr.h
; File C:\Program Files\Microsoft Visual Studio\2022\Professional\VC\Tools\MSVC\14.44.35207\include\xtree
; File C:\IAGOS\server\v18\Source\Source\_Database\DbItemUpdate.cpp
; File C:\Program Files\Microsoft Visual Studio\2022\Professional\VC\Tools\MSVC\14.44.35207\atlmfc\include\atlsimpstr.h
; File C:\IAGOS\server\v18\Source\Source\_Database\DbItemUpdate.cpp
;	COMDAT ?ChangeQuestUpdate@CDbManager@@QAEXPAVCQuery@@@Z
_TEXT	SEGMENT
_this$1$ = -1052					; size = 4
_pQuery$GSCopy$1$ = -1048				; size = 4
_strQuest$2 = -1044					; size = 4
_szSQL$ = -1040						; size = 1024
__$ArrayPad$ = -16					; size = 4
__$EHRec$ = -12						; size = 12
_pQuery$ = 8						; size = 4
?ChangeQuestUpdate@CDbManager@@QAEXPAVCQuery@@@Z PROC	; CDbManager::ChangeQuestUpdate, COMDAT
; _this$ = ecx

; 202  : {

  00000	55		 push	 ebp
  00001	8b ec		 mov	 ebp, esp
  00003	6a ff		 push	 -1
  00005	68 00 00 00 00	 push	 __ehhandler$?ChangeQuestUpdate@CDbManager@@QAEXPAVCQuery@@@Z
  0000a	64 a1 00 00 00
	00		 mov	 eax, DWORD PTR fs:0
  00010	50		 push	 eax
  00011	81 ec 10 04 00
	00		 sub	 esp, 1040		; 00000410H
  00017	a1 00 00 00 00	 mov	 eax, DWORD PTR ___security_cookie
  0001c	33 c5		 xor	 eax, ebp
  0001e	89 45 f0	 mov	 DWORD PTR __$ArrayPad$[ebp], eax
  00021	53		 push	 ebx
  00022	56		 push	 esi
  00023	57		 push	 edi
  00024	50		 push	 eax
  00025	8d 45 f4	 lea	 eax, DWORD PTR __$EHRec$[ebp]
  00028	64 a3 00 00 00
	00		 mov	 DWORD PTR fs:0, eax
  0002e	8b d9		 mov	 ebx, ecx
  00030	89 9d e4 fb ff
	ff		 mov	 DWORD PTR _this$1$[ebp], ebx
  00036	8b 75 08	 mov	 esi, DWORD PTR _pQuery$[ebp]

; 203  : 	char szSQL[1024] = {0,};

  00039	8d 85 f0 fb ff
	ff		 lea	 eax, DWORD PTR _szSQL$[ebp]
  0003f	68 00 04 00 00	 push	 1024			; 00000400H
  00044	6a 00		 push	 0
  00046	50		 push	 eax
  00047	89 b5 e8 fb ff
	ff		 mov	 DWORD PTR _pQuery$GSCopy$1$[ebp], esi
  0004d	e8 00 00 00 00	 call	 _memset

; 204  : 	
; 205  : 	sprintf( szSQL, "ITEM_STR 'D4'" );

  00052	8d 85 f0 fb ff
	ff		 lea	 eax, DWORD PTR _szSQL$[ebp]
  00058	68 00 00 00 00	 push	 OFFSET ??_C@_0O@ECPOCEND@ITEM_STR?5?8D4?8@
  0005d	50		 push	 eax
  0005e	e8 00 00 00 00	 call	 _sprintf
  00063	83 c4 14	 add	 esp, 20			; 00000014H

; 206  : 	
; 207  : 	if( FALSE == pQuery->Exec( szSQL ) )

  00066	8d 85 f0 fb ff
	ff		 lea	 eax, DWORD PTR _szSQL$[ebp]
  0006c	8b ce		 mov	 ecx, esi
  0006e	50		 push	 eax
  0006f	e8 00 00 00 00	 call	 ?Exec@CQuery@@QAEHPBD@Z	; CQuery::Exec
  00074	85 c0		 test	 eax, eax
  00076	75 2d		 jne	 SHORT $LN5@ChangeQues

; 208  : 	{
; 209  : 		WriteLog( szSQL );

  00078	8d 85 f0 fb ff
	ff		 lea	 eax, DWORD PTR _szSQL$[ebp]
  0007e	50		 push	 eax
  0007f	e8 00 00 00 00	 call	 ?WriteLog@@YAXPBDZZ	; WriteLog
  00084	83 c4 04	 add	 esp, 4
$LN116@ChangeQues:

; 228  : }

  00087	8b 4d f4	 mov	 ecx, DWORD PTR __$EHRec$[ebp]
  0008a	64 89 0d 00 00
	00 00		 mov	 DWORD PTR fs:0, ecx
  00091	59		 pop	 ecx
  00092	5f		 pop	 edi
  00093	5e		 pop	 esi
  00094	5b		 pop	 ebx
  00095	8b 4d f0	 mov	 ecx, DWORD PTR __$ArrayPad$[ebp]
  00098	33 cd		 xor	 ecx, ebp
  0009a	e8 00 00 00 00	 call	 @__security_check_cookie@4
  0009f	8b e5		 mov	 esp, ebp
  000a1	5d		 pop	 ebp
  000a2	c2 04 00	 ret	 4
$LN5@ChangeQues:
; File C:\Program Files\Microsoft Visual Studio\2022\Professional\VC\Tools\MSVC\14.44.35207\include\xtree

; 1142 :         return iterator(_Scary->_Myhead->_Left, _Scary);

  000a5	8b 43 08	 mov	 eax, DWORD PTR [ebx+8]

; 37   :     _Tree_unchecked_const_iterator(_Nodeptr _Pnode, const _Mytree* _Plist) noexcept : _Ptr(_Pnode) {

  000a8	8b 30		 mov	 esi, DWORD PTR [eax]

; 237  :         return !(*this == _Right);

  000aa	3b f0		 cmp	 esi, eax
; File C:\IAGOS\server\v18\Source\Source\_Database\DbItemUpdate.cpp

; 213  : 	for( INT2STRING::iterator i = m_int2StrItemUpdate.begin(); i != m_int2StrItemUpdate.end(); ++i )

  000ac	74 d9		 je	 SHORT $LN116@ChangeQues
  000ae	83 cb ff	 or	 ebx, -1
$LL4@ChangeQues:
; File C:\Program Files\Microsoft Visual Studio\2022\Professional\VC\Tools\MSVC\14.44.35207\include\xstring

; 453  :         return _Myres > _Small_string_capacity;

  000b1	83 7e 28 0f	 cmp	 DWORD PTR [esi+40], 15	; 0000000fH

; 2360 :         return _Mypair._Myval2._Myptr();

  000b5	8d 7e 14	 lea	 edi, DWORD PTR [esi+20]

; 445  :         if (_Large_mode_engaged()) {

  000b8	76 02		 jbe	 SHORT $LN67@ChangeQues

; 446  :             _Result = _Unfancy(_Bx._Ptr);

  000ba	8b 3f		 mov	 edi, DWORD PTR [edi]
$LN67@ChangeQues:
; File C:\Program Files\Microsoft Visual Studio\2022\Professional\VC\Tools\MSVC\14.44.35207\atlmfc\include\afxstr.h

; 56   : 		return( AfxGetStringManager() );

  000bc	e8 00 00 00 00	 call	 ?AfxGetStringManager@@YGPAUIAtlStringMgr@ATL@@XZ ; AfxGetStringManager
  000c1	8b c8		 mov	 ecx, eax
; File C:\Program Files\Microsoft Visual Studio\2022\Professional\VC\Tools\MSVC\14.44.35207\atlmfc\include\atlsimpstr.h

; 209  : 		ATLENSURE( pStringMgr != NULL );

  000c3	85 c9		 test	 ecx, ecx
  000c5	0f 84 49 01 00
	00		 je	 $LN130@ChangeQues

; 210  : 		CStringData* pData = pStringMgr->GetNilString();

  000cb	8b 01		 mov	 eax, DWORD PTR [ecx]
  000cd	ff 50 0c	 call	 DWORD PTR [eax+12]

; 211  : 		Attach( pData );

  000d0	83 c0 10	 add	 eax, 16			; 00000010H
  000d3	89 85 ec fb ff
	ff		 mov	 DWORD PTR _strQuest$2[ebp], eax
; File C:\Program Files\Microsoft Visual Studio\2022\Professional\VC\Tools\MSVC\14.44.35207\atlmfc\include\cstringt.h

; 1052 : 		CThisSimpleString( StringTraits::GetDefaultManager() )

  000d9	c7 45 fc 00 00
	00 00		 mov	 DWORD PTR __$EHRec$[ebp+8], 0

; 2712 : 		if( (pv != NULL) && IS_INTRESOURCE( pv ) )

  000e0	85 ff		 test	 edi, edi
  000e2	74 29		 je	 SHORT $LN142@ChangeQues
  000e4	f7 c7 00 00 ff
	ff		 test	 edi, -65536		; ffff0000H
  000ea	75 11		 jne	 SHORT $LN100@ChangeQues

; 2713 : 		{
; 2714 : 			UINT nID = LOWORD( reinterpret_cast< DWORD_PTR >( pv ) );

  000ec	0f b7 c7	 movzx	 eax, di

; 2715 : 			(nID);
; 2716 : #ifdef _ATL_USE_WINAPI_FAMILY_DESKTOP_APP
; 2717 : 			if( !LoadString( nID ) )

  000ef	8d 8d ec fb ff
	ff		 lea	 ecx, DWORD PTR _strQuest$2[ebp]
  000f5	50		 push	 eax
  000f6	e8 00 00 00 00	 call	 ?LoadStringA@?$CStringT@DV?$StrTraitMFC@DV?$ChTraitsCRT@D@ATL@@@@@ATL@@QAEHI@Z ; ATL::CStringT<char,StrTraitMFC<char,ATL::ChTraitsCRT<char> > >::LoadStringA

; 1054 : 		if( !CheckImplicitLoad( pszSrc ) )

  000fb	eb 1f		 jmp	 SHORT $LN74@ChangeQues
$LN100@ChangeQues:
; File C:\Program Files\Microsoft Visual Studio\2022\Professional\VC\Tools\MSVC\14.44.35207\atlmfc\include\atlsimpstr.h

; 730  : 		return( int( strlen( psz ) ) );

  000fd	8b cf		 mov	 ecx, edi
  000ff	8d 51 01	 lea	 edx, DWORD PTR [ecx+1]
$LL143@ChangeQues:
  00102	8a 01		 mov	 al, BYTE PTR [ecx]
  00104	41		 inc	 ecx
  00105	84 c0		 test	 al, al
  00107	75 f9		 jne	 SHORT $LL143@ChangeQues
  00109	2b ca		 sub	 ecx, edx
  0010b	eb 02		 jmp	 SHORT $LN99@ChangeQues
$LN142@ChangeQues:

; 607  : 	}
; 608  : 	void SetString(
; 609  : 		_In_reads_opt_(nLength) PCXSTR pszSrc,
; 610  : 		_In_ int nLength)
; 611  : 	{
; 612  : 		if( nLength == 0 )
; 613  : 		{
; 614  : 			Empty();
; 615  : 		}
; 616  : 		else
; 617  : 		{
; 618  : 			// It is possible that pszSrc points to a location inside of our
; 619  : 			// buffer.  GetBuffer() might change m_pszData if (1) the buffer
; 620  : 			// is shared or (2) the buffer is too small to hold the new
; 621  : 			// string.  We detect this aliasing, and modify pszSrc to point
; 622  : 			// into the newly allocated buffer instead.
; 623  : 
; 624  : 			if(pszSrc == NULL)
; 625  : 				AtlThrow(E_INVALIDARG);
; 626  : 
; 627  : 			UINT nOldLength = GetLength();
; 628  : 			UINT_PTR nOffset = pszSrc-GetString();
; 629  : 			// If 0 <= nOffset <= nOldLength, then pszSrc points into our
; 630  : 			// buffer
; 631  : 
; 632  : 			PXSTR pszBuffer = GetBuffer( nLength );
; 633  : 			if( nOffset <= nOldLength )
; 634  : 			{
; 635  : 				CopyCharsOverlapped( pszBuffer, GetAllocLength(),
; 636  : 					pszBuffer+nOffset, nLength );
; 637  : 			}
; 638  : 			else
; 639  : 			{
; 640  : 				memcpy_s( pszBuffer, GetAllocLength() * sizeof( XCHAR ), pszSrc, nLength * sizeof( XCHAR ));
; 641  : 			}
; 642  : 			ReleaseBufferSetLength( nLength );
; 643  : 		}
; 644  : 	}
; 645  : 
; 646  : public:
; 647  : 	friend CSimpleStringT operator+(
; 648  : 		_In_ const CSimpleStringT& str1,
; 649  : 		_In_ const CSimpleStringT& str2)
; 650  : 	{
; 651  : 		CSimpleStringT s( str1.GetManager() );
; 652  : 
; 653  : 		Concatenate( s, str1, str1.GetLength(), str2, str2.GetLength() );
; 654  : 
; 655  : 		return( s );
; 656  : 	}
; 657  : 
; 658  : 	friend CSimpleStringT operator+(
; 659  : 		_In_ const CSimpleStringT& str1,
; 660  : 		_In_z_ PCXSTR psz2)
; 661  : 	{
; 662  : 		CSimpleStringT s( str1.GetManager() );
; 663  : 
; 664  : 		Concatenate( s, str1, str1.GetLength(), psz2, StringLength( psz2 ) );
; 665  : 
; 666  : 		return( s );
; 667  : 	}
; 668  : 
; 669  : 	friend CSimpleStringT operator+(
; 670  : 		_In_z_ PCXSTR psz1,
; 671  : 		_In_ const CSimpleStringT& str2)
; 672  : 	{
; 673  : 		CSimpleStringT s( str2.GetManager() );
; 674  : 
; 675  : 		Concatenate( s, psz1, StringLength( psz1 ), str2, str2.GetLength() );
; 676  : 
; 677  : 		return( s );
; 678  : 	}
; 679  : 
; 680  : 	_ATL_INSECURE_DEPRECATE("CSimpleStringT::CopyChars must be passed a buffer size")
; 681  : 	static void __cdecl CopyChars(
; 682  : 		_Out_writes_(nChars) XCHAR* pchDest,
; 683  : 		_In_reads_opt_(nChars) const XCHAR* pchSrc,
; 684  : 		_In_ int nChars) throw()
; 685  : 	{
; 686  : 		if (pchSrc != NULL)
; 687  : 		{
; 688  : 			#pragma warning (push)
; 689  : 			#pragma warning(disable : 4996)
; 690  : 			memcpy( pchDest, pchSrc, nChars*sizeof( XCHAR ) );
; 691  : 			#pragma warning (pop)
; 692  : 		}
; 693  : 	}
; 694  : 	static void __cdecl CopyChars(
; 695  : 		_Out_writes_to_(nDestLen,nChars) XCHAR* pchDest,
; 696  : 		_In_ size_t nDestLen,
; 697  : 		_In_reads_opt_(nChars) const XCHAR* pchSrc,
; 698  : 		_In_ int nChars) throw()
; 699  : 	{
; 700  : 		memcpy_s( pchDest, nDestLen*sizeof( XCHAR ),
; 701  : 			pchSrc, nChars*sizeof( XCHAR ) );
; 702  : 	}
; 703  : 
; 704  : 	_ATL_INSECURE_DEPRECATE("CSimpleStringT::CopyCharsOverlapped must be passed a buffer size")
; 705  : 	static void __cdecl CopyCharsOverlapped(
; 706  : 		_Out_writes_(nChars) XCHAR* pchDest,
; 707  : 		_In_reads_(nChars) const XCHAR* pchSrc,
; 708  : 		_In_ int nChars) throw()
; 709  : 	{
; 710  : 		#pragma warning (push)
; 711  : 		#pragma warning(disable : 4996)
; 712  : 		memmove( pchDest, pchSrc, nChars*sizeof( XCHAR ) );
; 713  : 		#pragma warning (pop)
; 714  : 	}
; 715  : 	static void __cdecl CopyCharsOverlapped(
; 716  : 		_Out_writes_to_(nDestLen, nDestLen) XCHAR* pchDest,
; 717  : 		_In_ size_t nDestLen,
; 718  : 		_In_reads_(nChars) const XCHAR* pchSrc,
; 719  : 		_In_ int nChars) throw()
; 720  : 	{
; 721  : 		memmove_s( pchDest, nDestLen*sizeof( XCHAR ),
; 722  : 			pchSrc, nChars*sizeof( XCHAR ) );
; 723  : 	}
; 724  : 	static int __cdecl StringLength(_In_opt_z_ const char* psz) throw()
; 725  : 	{
; 726  : 		if( psz == NULL )
; 727  : 		{
; 728  : 			return( 0 );

  0010d	33 c9		 xor	 ecx, ecx
$LN99@ChangeQues:

; 606  : 		SetString( pszSrc, StringLength( pszSrc ) );

  0010f	51		 push	 ecx
  00110	57		 push	 edi
  00111	8d 8d ec fb ff
	ff		 lea	 ecx, DWORD PTR _strQuest$2[ebp]
  00117	e8 00 00 00 00	 call	 ?SetString@?$CSimpleStringT@D$0A@@ATL@@QAEXPBDH@Z ; ATL::CSimpleStringT<char,0>::SetString
$LN74@ChangeQues:
; File C:\IAGOS\server\v18\Source\Source\_Database\DbItemUpdate.cpp

; 216  : 		strQuest.Replace( "'", " " );

  0011c	68 00 00 00 00	 push	 OFFSET ??_C@_01CLKCMJKC@?5@
  00121	68 00 00 00 00	 push	 OFFSET ??_C@_01GEODFPGF@?8@
  00126	8d 8d ec fb ff
	ff		 lea	 ecx, DWORD PTR _strQuest$2[ebp]
  0012c	c7 45 fc 01 00
	00 00		 mov	 DWORD PTR __$EHRec$[ebp+8], 1
  00133	e8 00 00 00 00	 call	 ?Replace@?$CStringT@DV?$StrTraitMFC@DV?$ChTraitsCRT@D@ATL@@@@@ATL@@QAEHPBD0@Z ; ATL::CStringT<char,StrTraitMFC<char,ATL::ChTraitsCRT<char> > >::Replace

; 217  : 		sprintf( szSQL, "ITEM_STR 'I4', %d,'%s'",

  00138	8b bd ec fb ff
	ff		 mov	 edi, DWORD PTR _strQuest$2[ebp]
  0013e	8d 85 f0 fb ff
	ff		 lea	 eax, DWORD PTR _szSQL$[ebp]
  00144	57		 push	 edi
  00145	ff 76 10	 push	 DWORD PTR [esi+16]
  00148	68 00 00 00 00	 push	 OFFSET ??_C@_0BH@GAKFPDMN@ITEM_STR?5?8I4?8?0?5?$CFd?0?8?$CFs?8@
  0014d	50		 push	 eax
  0014e	e8 00 00 00 00	 call	 _sprintf

; 218  : 			(*i).first, strQuest );
; 219  : 		
; 220  : 		if( FALSE == pQuery->Exec( szSQL ) )

  00153	8b 8d e8 fb ff
	ff		 mov	 ecx, DWORD PTR _pQuery$GSCopy$1$[ebp]
  00159	8d 85 f0 fb ff
	ff		 lea	 eax, DWORD PTR _szSQL$[ebp]
  0015f	83 c4 10	 add	 esp, 16			; 00000010H
  00162	50		 push	 eax
  00163	e8 00 00 00 00	 call	 ?Exec@CQuery@@QAEHPBD@Z	; CQuery::Exec
  00168	85 c0		 test	 eax, eax
  0016a	74 74		 je	 SHORT $LN131@ChangeQues

; 224  : 		}
; 225  : 	}

  0016c	c7 45 fc ff ff
	ff ff		 mov	 DWORD PTR __$EHRec$[ebp+8], -1
; File C:\Program Files\Microsoft Visual Studio\2022\Professional\VC\Tools\MSVC\14.44.35207\atlmfc\include\atlsimpstr.h

; 804  : 		return( reinterpret_cast< CStringData* >( m_pszData )-1 );

  00173	83 c7 f0	 add	 edi, -16		; fffffff0H

; 92   : 		if( _InterlockedDecrement( &nRefs ) <= 0 )

  00176	8b c3		 mov	 eax, ebx
  00178	f0 0f c1 47 0c	 lock	  xadd	 DWORD PTR [edi+12], eax
  0017d	48		 dec	 eax
  0017e	85 c0		 test	 eax, eax
  00180	7f 08		 jg	 SHORT $LN2@ChangeQues

; 93   : 		{
; 94   : 			pStringMgr->Free( this );

  00182	8b 0f		 mov	 ecx, DWORD PTR [edi]
  00184	57		 push	 edi
  00185	8b 01		 mov	 eax, DWORD PTR [ecx]
  00187	ff 50 04	 call	 DWORD PTR [eax+4]
$LN2@ChangeQues:
; File C:\Program Files\Microsoft Visual Studio\2022\Professional\VC\Tools\MSVC\14.44.35207\include\xtree

; 50   :         if (_Ptr->_Right->_Isnil) { // climb looking for right subtree

  0018a	8b 46 08	 mov	 eax, DWORD PTR [esi+8]
  0018d	80 78 0d 00	 cmp	 BYTE PTR [eax+13], 0
  00191	74 21		 je	 SHORT $LN30@ChangeQues

; 51   :             _Nodeptr _Pnode;
; 52   :             while (!(_Pnode = _Ptr->_Parent)->_Isnil && _Ptr == _Pnode->_Right) {

  00193	8b 46 04	 mov	 eax, DWORD PTR [esi+4]
  00196	80 78 0d 00	 cmp	 BYTE PTR [eax+13], 0
  0019a	75 14		 jne	 SHORT $LN29@ChangeQues
  0019c	0f 1f 40 00	 npad	 4
$LL28@ChangeQues:
  001a0	3b 70 08	 cmp	 esi, DWORD PTR [eax+8]
  001a3	75 0b		 jne	 SHORT $LN29@ChangeQues

; 53   :                 _Ptr = _Pnode; // ==> parent while right subtree

  001a5	8b f0		 mov	 esi, eax
  001a7	8b 40 04	 mov	 eax, DWORD PTR [eax+4]
  001aa	80 78 0d 00	 cmp	 BYTE PTR [eax+13], 0
  001ae	74 f0		 je	 SHORT $LL28@ChangeQues
$LN29@ChangeQues:

; 54   :             }
; 55   : 
; 56   :             _Ptr = _Pnode; // ==> parent (head if end())

  001b0	8b f0		 mov	 esi, eax

; 57   :         } else {

  001b2	eb 18		 jmp	 SHORT $LN134@ChangeQues
$LN30@ChangeQues:

; 58   :             _Ptr = _Mytree::_Min(_Ptr->_Right); // ==> smallest of right subtree

  001b4	8b f0		 mov	 esi, eax

; 476  :         while (!_Pnode->_Left->_Isnil) {

  001b6	8b 0e		 mov	 ecx, DWORD PTR [esi]
  001b8	80 79 0d 00	 cmp	 BYTE PTR [ecx+13], 0
  001bc	75 0e		 jne	 SHORT $LN134@ChangeQues
  001be	66 90		 npad	 2
$LL35@ChangeQues:
  001c0	8b 01		 mov	 eax, DWORD PTR [ecx]

; 477  :             _Pnode = _Pnode->_Left;

  001c2	8b f1		 mov	 esi, ecx
  001c4	8b c8		 mov	 ecx, eax
  001c6	80 78 0d 00	 cmp	 BYTE PTR [eax+13], 0
  001ca	74 f4		 je	 SHORT $LL35@ChangeQues
$LN134@ChangeQues:

; 237  :         return !(*this == _Right);

  001cc	8b 85 e4 fb ff
	ff		 mov	 eax, DWORD PTR _this$1$[ebp]
  001d2	3b 70 08	 cmp	 esi, DWORD PTR [eax+8]
; File C:\IAGOS\server\v18\Source\Source\_Database\DbItemUpdate.cpp

; 213  : 	for( INT2STRING::iterator i = m_int2StrItemUpdate.begin(); i != m_int2StrItemUpdate.end(); ++i )

  001d5	0f 85 d6 fe ff
	ff		 jne	 $LL4@ChangeQues

; 218  : 			(*i).first, strQuest );
; 219  : 		
; 220  : 		if( FALSE == pQuery->Exec( szSQL ) )

  001db	e9 a7 fe ff ff	 jmp	 $LN116@ChangeQues
$LN131@ChangeQues:

; 221  : 		{
; 222  : 			WriteLog( szSQL );

  001e0	8d 85 f0 fb ff
	ff		 lea	 eax, DWORD PTR _szSQL$[ebp]
  001e6	50		 push	 eax
  001e7	e8 00 00 00 00	 call	 ?WriteLog@@YAXPBDZZ	; WriteLog
  001ec	83 c4 04	 add	 esp, 4

; 223  : 			return ;

  001ef	c7 45 fc ff ff
	ff ff		 mov	 DWORD PTR __$EHRec$[ebp+8], -1
; File C:\Program Files\Microsoft Visual Studio\2022\Professional\VC\Tools\MSVC\14.44.35207\atlmfc\include\atlsimpstr.h

; 804  : 		return( reinterpret_cast< CStringData* >( m_pszData )-1 );

  001f6	83 c7 f0	 add	 edi, -16		; fffffff0H

; 92   : 		if( _InterlockedDecrement( &nRefs ) <= 0 )

  001f9	f0 0f c1 5f 0c	 lock	  xadd	 DWORD PTR [edi+12], ebx
  001fe	4b		 dec	 ebx
  001ff	85 db		 test	 ebx, ebx
  00201	0f 8f 80 fe ff
	ff		 jg	 $LN116@ChangeQues

; 93   : 		{
; 94   : 			pStringMgr->Free( this );

  00207	8b 0f		 mov	 ecx, DWORD PTR [edi]
  00209	57		 push	 edi
  0020a	8b 01		 mov	 eax, DWORD PTR [ecx]
  0020c	ff 50 04	 call	 DWORD PTR [eax+4]
  0020f	e9 73 fe ff ff	 jmp	 $LN116@ChangeQues
$LN130@ChangeQues:

; 209  : 		ATLENSURE( pStringMgr != NULL );

  00214	68 05 40 00 80	 push	 -2147467259		; 80004005H
  00219	e8 00 00 00 00	 call	 ?AtlThrowImpl@ATL@@YGXJ@Z ; ATL::AtlThrowImpl
$LN146@ChangeQues:
  0021e	cc		 int	 3
_TEXT	ENDS
;	COMDAT text$x
text$x	SEGMENT
__unwindfunclet$?ChangeQuestUpdate@CDbManager@@QAEXPAVCQuery@@@Z$1:
  00000	8d 8d ec fb ff
	ff		 lea	 ecx, DWORD PTR _strQuest$2[ebp]
  00006	e9 00 00 00 00	 jmp	 ??1?$CSimpleStringT@D$0A@@ATL@@QAE@XZ ; ATL::CSimpleStringT<char,0>::~CSimpleStringT<char,0>
__unwindfunclet$?ChangeQuestUpdate@CDbManager@@QAEXPAVCQuery@@@Z$0:
  0000b	8d 8d ec fb ff
	ff		 lea	 ecx, DWORD PTR _strQuest$2[ebp]
  00011	e9 00 00 00 00	 jmp	 ??1?$CStringT@DV?$StrTraitMFC@DV?$ChTraitsCRT@D@ATL@@@@@ATL@@QAE@XZ ; ATL::CStringT<char,StrTraitMFC<char,ATL::ChTraitsCRT<char> > >::~CStringT<char,StrTraitMFC<char,ATL::ChTraitsCRT<char> > >
  00016	cc		 int	 3
  00017	cc		 int	 3
  00018	cc		 int	 3
  00019	cc		 int	 3
  0001a	cc		 int	 3
__ehhandler$?ChangeQuestUpdate@CDbManager@@QAEXPAVCQuery@@@Z:
  0001b	90		 npad	 1
  0001c	90		 npad	 1
  0001d	8b 54 24 08	 mov	 edx, DWORD PTR [esp+8]
  00021	8d 42 0c	 lea	 eax, DWORD PTR [edx+12]
  00024	8b 8a e0 fb ff
	ff		 mov	 ecx, DWORD PTR [edx-1056]
  0002a	33 c8		 xor	 ecx, eax
  0002c	e8 00 00 00 00	 call	 @__security_check_cookie@4
  00031	8b 4a fc	 mov	 ecx, DWORD PTR [edx-4]
  00034	33 c8		 xor	 ecx, eax
  00036	e8 00 00 00 00	 call	 @__security_check_cookie@4
  0003b	b8 00 00 00 00	 mov	 eax, OFFSET __ehfuncinfo$?ChangeQuestUpdate@CDbManager@@QAEXPAVCQuery@@@Z
  00040	e9 00 00 00 00	 jmp	 ___CxxFrameHandler3
text$x	ENDS
?ChangeQuestUpdate@CDbManager@@QAEXPAVCQuery@@@Z ENDP	; CDbManager::ChangeQuestUpdate
; Function compile flags: /Ogtp
; File C:\IAGOS\server\v18\Source\Source\_Database\DbItemUpdate.cpp
; File C:\Program Files\Microsoft Visual Studio\2022\Professional\VC\Tools\MSVC\14.44.35207\atlmfc\include\afxstr.h
; File C:\Program Files\Microsoft Visual Studio\2022\Professional\VC\Tools\MSVC\14.44.35207\atlmfc\include\atlsimpstr.h
; File C:\Program Files\Microsoft Visual Studio\2022\Professional\VC\Tools\MSVC\14.44.35207\atlmfc\include\cstringt.h
; File C:\Program Files\Microsoft Visual Studio\2022\Professional\VC\Tools\MSVC\14.44.35207\atlmfc\include\atlsimpstr.h
; File C:\IAGOS\server\v18\Source\Source\_Database\DbItemUpdate.cpp
; File C:\Program Files\Microsoft Visual Studio\2022\Professional\VC\Tools\MSVC\14.44.35207\atlmfc\include\atlsimpstr.h
; File C:\IAGOS\server\v18\Source\Source\_Database\DbItemUpdate.cpp
; File C:\Program Files\Microsoft Visual Studio\2022\Professional\VC\Tools\MSVC\14.44.35207\atlmfc\include\atlsimpstr.h
; File C:\IAGOS\server\v18\Source\Source\_Database\DbItemUpdate.cpp
;	COMDAT ?ChangeMonsterUpdate@CDbManager@@QAEXPAVCQuery@@@Z
_TEXT	SEGMENT
_pQuery$GSCopy$1$ = -1048				; size = 4
_strMoverName$2 = -1044					; size = 4
_szSQL$ = -1040						; size = 1024
__$ArrayPad$ = -16					; size = 4
__$EHRec$ = -12						; size = 12
_pQuery$ = 8						; size = 4
?ChangeMonsterUpdate@CDbManager@@QAEXPAVCQuery@@@Z PROC	; CDbManager::ChangeMonsterUpdate, COMDAT
; _this$ = ecx

; 163  : {

  00000	55		 push	 ebp
  00001	8b ec		 mov	 ebp, esp
  00003	6a ff		 push	 -1
  00005	68 00 00 00 00	 push	 __ehhandler$?ChangeMonsterUpdate@CDbManager@@QAEXPAVCQuery@@@Z
  0000a	64 a1 00 00 00
	00		 mov	 eax, DWORD PTR fs:0
  00010	50		 push	 eax
  00011	81 ec 0c 04 00
	00		 sub	 esp, 1036		; 0000040cH
  00017	a1 00 00 00 00	 mov	 eax, DWORD PTR ___security_cookie
  0001c	33 c5		 xor	 eax, ebp
  0001e	89 45 f0	 mov	 DWORD PTR __$ArrayPad$[ebp], eax
  00021	53		 push	 ebx
  00022	56		 push	 esi
  00023	57		 push	 edi
  00024	50		 push	 eax
  00025	8d 45 f4	 lea	 eax, DWORD PTR __$EHRec$[ebp]
  00028	64 a3 00 00 00
	00		 mov	 DWORD PTR fs:0, eax
  0002e	8b 5d 08	 mov	 ebx, DWORD PTR _pQuery$[ebp]

; 164  : 	char szSQL[1024]	= {0,};

  00031	8d 85 f0 fb ff
	ff		 lea	 eax, DWORD PTR _szSQL$[ebp]
  00037	68 00 04 00 00	 push	 1024			; 00000400H
  0003c	6a 00		 push	 0
  0003e	50		 push	 eax
  0003f	89 9d e8 fb ff
	ff		 mov	 DWORD PTR _pQuery$GSCopy$1$[ebp], ebx
  00045	e8 00 00 00 00	 call	 _memset

; 165  : 	
; 166  : 	sprintf( szSQL, "ITEM_STR 'D3'" );

  0004a	8d 85 f0 fb ff
	ff		 lea	 eax, DWORD PTR _szSQL$[ebp]
  00050	68 00 00 00 00	 push	 OFFSET ??_C@_0O@EHLBDCFG@ITEM_STR?5?8D3?8@
  00055	50		 push	 eax
  00056	e8 00 00 00 00	 call	 _sprintf
  0005b	83 c4 14	 add	 esp, 20			; 00000014H

; 167  : 	
; 168  : 	if( FALSE == pQuery->Exec( szSQL ) )

  0005e	8d 85 f0 fb ff
	ff		 lea	 eax, DWORD PTR _szSQL$[ebp]
  00064	8b cb		 mov	 ecx, ebx
  00066	50		 push	 eax
  00067	e8 00 00 00 00	 call	 ?Exec@CQuery@@QAEHPBD@Z	; CQuery::Exec
  0006c	85 c0		 test	 eax, eax
  0006e	75 2d		 jne	 SHORT $LN5@ChangeMons

; 169  : 	{
; 170  : 		WriteLog( szSQL );

  00070	8d 85 f0 fb ff
	ff		 lea	 eax, DWORD PTR _szSQL$[ebp]
  00076	50		 push	 eax
  00077	e8 00 00 00 00	 call	 ?WriteLog@@YAXPBDZZ	; WriteLog
  0007c	83 c4 04	 add	 esp, 4
$LN62@ChangeMons:

; 198  : }

  0007f	8b 4d f4	 mov	 ecx, DWORD PTR __$EHRec$[ebp]
  00082	64 89 0d 00 00
	00 00		 mov	 DWORD PTR fs:0, ecx
  00089	59		 pop	 ecx
  0008a	5f		 pop	 edi
  0008b	5e		 pop	 esi
  0008c	5b		 pop	 ebx
  0008d	8b 4d f0	 mov	 ecx, DWORD PTR __$ArrayPad$[ebp]
  00090	33 cd		 xor	 ecx, ebp
  00092	e8 00 00 00 00	 call	 @__security_check_cookie@4
  00097	8b e5		 mov	 esp, ebp
  00099	5d		 pop	 ebp
  0009a	c2 04 00	 ret	 4
$LN5@ChangeMons:

; 174  : 	for( int i = 0; i < prj.m_nMoverPropSize; i++ )

  0009d	33 db		 xor	 ebx, ebx
  0009f	39 1d 58 00 00
	00		 cmp	 DWORD PTR ?prj@@3VCProject@@A+88, ebx
  000a5	7e d8		 jle	 SHORT $LN62@ChangeMons
  000a7	66 0f 1f 84 00
	00 00 00 00	 npad	 9
$LL4@ChangeMons:

; 175  : 	{
; 176  : 		MoverProp* pMoverProp	= prj.m_pPropMover + i;

  000b0	69 fb 90 06 00
	00		 imul	 edi, ebx, 1680
  000b6	03 3d 5c 00 00
	00		 add	 edi, DWORD PTR ?prj@@3VCProject@@A+92

; 177  : 		if( pMoverProp->dwID != 0 && pMoverProp->dwAI != AII_NONE && pMoverProp->dwAI != AII_MOVER	)

  000bc	83 3f 00	 cmp	 DWORD PTR [edi], 0
  000bf	0f 84 eb 00 00
	00		 je	 $LN2@ChangeMons
  000c5	8b 47 48	 mov	 eax, DWORD PTR [edi+72]
  000c8	85 c0		 test	 eax, eax
  000ca	0f 84 e0 00 00
	00		 je	 $LN2@ChangeMons
  000d0	83 f8 01	 cmp	 eax, 1
  000d3	0f 84 d7 00 00
	00		 je	 $LN2@ChangeMons

; 178  : 		{
; 179  : 			//	mulcom	BEGIN100406	ITEM_STR I3 MoverName quotation mark Á¦°Ĺ
; 180  : 			//sprintf( szSQL, "ITEM_STR 'I3', %d,'%s','',%d", pMoverProp->dwID, pMoverProp->szName, pMoverProp->dwLevel );
; 181  : 			CString	strMoverName	= pMoverProp->szName;

  000d9	8d 77 04	 lea	 esi, DWORD PTR [edi+4]
; File C:\Program Files\Microsoft Visual Studio\2022\Professional\VC\Tools\MSVC\14.44.35207\atlmfc\include\afxstr.h

; 56   : 		return( AfxGetStringManager() );

  000dc	e8 00 00 00 00	 call	 ?AfxGetStringManager@@YGPAUIAtlStringMgr@ATL@@XZ ; AfxGetStringManager
  000e1	8b c8		 mov	 ecx, eax
; File C:\Program Files\Microsoft Visual Studio\2022\Professional\VC\Tools\MSVC\14.44.35207\atlmfc\include\atlsimpstr.h

; 209  : 		ATLENSURE( pStringMgr != NULL );

  000e3	85 c9		 test	 ecx, ecx
  000e5	0f 84 0e 01 00
	00		 je	 $LN59@ChangeMons

; 210  : 		CStringData* pData = pStringMgr->GetNilString();

  000eb	8b 01		 mov	 eax, DWORD PTR [ecx]
  000ed	ff 50 0c	 call	 DWORD PTR [eax+12]

; 211  : 		Attach( pData );

  000f0	83 c0 10	 add	 eax, 16			; 00000010H
  000f3	89 85 ec fb ff
	ff		 mov	 DWORD PTR _strMoverName$2[ebp], eax
; File C:\Program Files\Microsoft Visual Studio\2022\Professional\VC\Tools\MSVC\14.44.35207\atlmfc\include\cstringt.h

; 1052 : 		CThisSimpleString( StringTraits::GetDefaultManager() )

  000f9	c7 45 fc 00 00
	00 00		 mov	 DWORD PTR __$EHRec$[ebp+8], 0

; 2712 : 		if( (pv != NULL) && IS_INTRESOURCE( pv ) )

  00100	85 f6		 test	 esi, esi
  00102	74 29		 je	 SHORT $LN66@ChangeMons
  00104	f7 c6 00 00 ff
	ff		 test	 esi, -65536		; ffff0000H
  0010a	75 11		 jne	 SHORT $LN37@ChangeMons

; 2713 : 		{
; 2714 : 			UINT nID = LOWORD( reinterpret_cast< DWORD_PTR >( pv ) );

  0010c	0f b7 c6	 movzx	 eax, si

; 2715 : 			(nID);
; 2716 : #ifdef _ATL_USE_WINAPI_FAMILY_DESKTOP_APP
; 2717 : 			if( !LoadString( nID ) )

  0010f	8d 8d ec fb ff
	ff		 lea	 ecx, DWORD PTR _strMoverName$2[ebp]
  00115	50		 push	 eax
  00116	e8 00 00 00 00	 call	 ?LoadStringA@?$CStringT@DV?$StrTraitMFC@DV?$ChTraitsCRT@D@ATL@@@@@ATL@@QAEHI@Z ; ATL::CStringT<char,StrTraitMFC<char,ATL::ChTraitsCRT<char> > >::LoadStringA

; 1054 : 		if( !CheckImplicitLoad( pszSrc ) )

  0011b	eb 1f		 jmp	 SHORT $LN11@ChangeMons
$LN37@ChangeMons:
; File C:\Program Files\Microsoft Visual Studio\2022\Professional\VC\Tools\MSVC\14.44.35207\atlmfc\include\atlsimpstr.h

; 730  : 		return( int( strlen( psz ) ) );

  0011d	8b c6		 mov	 eax, esi
  0011f	8d 50 01	 lea	 edx, DWORD PTR [eax+1]
$LL67@ChangeMons:
  00122	8a 08		 mov	 cl, BYTE PTR [eax]
  00124	40		 inc	 eax
  00125	84 c9		 test	 cl, cl
  00127	75 f9		 jne	 SHORT $LL67@ChangeMons
  00129	2b c2		 sub	 eax, edx
  0012b	eb 02		 jmp	 SHORT $LN36@ChangeMons
$LN66@ChangeMons:

; 607  : 	}
; 608  : 	void SetString(
; 609  : 		_In_reads_opt_(nLength) PCXSTR pszSrc,
; 610  : 		_In_ int nLength)
; 611  : 	{
; 612  : 		if( nLength == 0 )
; 613  : 		{
; 614  : 			Empty();
; 615  : 		}
; 616  : 		else
; 617  : 		{
; 618  : 			// It is possible that pszSrc points to a location inside of our
; 619  : 			// buffer.  GetBuffer() might change m_pszData if (1) the buffer
; 620  : 			// is shared or (2) the buffer is too small to hold the new
; 621  : 			// string.  We detect this aliasing, and modify pszSrc to point
; 622  : 			// into the newly allocated buffer instead.
; 623  : 
; 624  : 			if(pszSrc == NULL)
; 625  : 				AtlThrow(E_INVALIDARG);
; 626  : 
; 627  : 			UINT nOldLength = GetLength();
; 628  : 			UINT_PTR nOffset = pszSrc-GetString();
; 629  : 			// If 0 <= nOffset <= nOldLength, then pszSrc points into our
; 630  : 			// buffer
; 631  : 
; 632  : 			PXSTR pszBuffer = GetBuffer( nLength );
; 633  : 			if( nOffset <= nOldLength )
; 634  : 			{
; 635  : 				CopyCharsOverlapped( pszBuffer, GetAllocLength(),
; 636  : 					pszBuffer+nOffset, nLength );
; 637  : 			}
; 638  : 			else
; 639  : 			{
; 640  : 				memcpy_s( pszBuffer, GetAllocLength() * sizeof( XCHAR ), pszSrc, nLength * sizeof( XCHAR ));
; 641  : 			}
; 642  : 			ReleaseBufferSetLength( nLength );
; 643  : 		}
; 644  : 	}
; 645  : 
; 646  : public:
; 647  : 	friend CSimpleStringT operator+(
; 648  : 		_In_ const CSimpleStringT& str1,
; 649  : 		_In_ const CSimpleStringT& str2)
; 650  : 	{
; 651  : 		CSimpleStringT s( str1.GetManager() );
; 652  : 
; 653  : 		Concatenate( s, str1, str1.GetLength(), str2, str2.GetLength() );
; 654  : 
; 655  : 		return( s );
; 656  : 	}
; 657  : 
; 658  : 	friend CSimpleStringT operator+(
; 659  : 		_In_ const CSimpleStringT& str1,
; 660  : 		_In_z_ PCXSTR psz2)
; 661  : 	{
; 662  : 		CSimpleStringT s( str1.GetManager() );
; 663  : 
; 664  : 		Concatenate( s, str1, str1.GetLength(), psz2, StringLength( psz2 ) );
; 665  : 
; 666  : 		return( s );
; 667  : 	}
; 668  : 
; 669  : 	friend CSimpleStringT operator+(
; 670  : 		_In_z_ PCXSTR psz1,
; 671  : 		_In_ const CSimpleStringT& str2)
; 672  : 	{
; 673  : 		CSimpleStringT s( str2.GetManager() );
; 674  : 
; 675  : 		Concatenate( s, psz1, StringLength( psz1 ), str2, str2.GetLength() );
; 676  : 
; 677  : 		return( s );
; 678  : 	}
; 679  : 
; 680  : 	_ATL_INSECURE_DEPRECATE("CSimpleStringT::CopyChars must be passed a buffer size")
; 681  : 	static void __cdecl CopyChars(
; 682  : 		_Out_writes_(nChars) XCHAR* pchDest,
; 683  : 		_In_reads_opt_(nChars) const XCHAR* pchSrc,
; 684  : 		_In_ int nChars) throw()
; 685  : 	{
; 686  : 		if (pchSrc != NULL)
; 687  : 		{
; 688  : 			#pragma warning (push)
; 689  : 			#pragma warning(disable : 4996)
; 690  : 			memcpy( pchDest, pchSrc, nChars*sizeof( XCHAR ) );
; 691  : 			#pragma warning (pop)
; 692  : 		}
; 693  : 	}
; 694  : 	static void __cdecl CopyChars(
; 695  : 		_Out_writes_to_(nDestLen,nChars) XCHAR* pchDest,
; 696  : 		_In_ size_t nDestLen,
; 697  : 		_In_reads_opt_(nChars) const XCHAR* pchSrc,
; 698  : 		_In_ int nChars) throw()
; 699  : 	{
; 700  : 		memcpy_s( pchDest, nDestLen*sizeof( XCHAR ),
; 701  : 			pchSrc, nChars*sizeof( XCHAR ) );
; 702  : 	}
; 703  : 
; 704  : 	_ATL_INSECURE_DEPRECATE("CSimpleStringT::CopyCharsOverlapped must be passed a buffer size")
; 705  : 	static void __cdecl CopyCharsOverlapped(
; 706  : 		_Out_writes_(nChars) XCHAR* pchDest,
; 707  : 		_In_reads_(nChars) const XCHAR* pchSrc,
; 708  : 		_In_ int nChars) throw()
; 709  : 	{
; 710  : 		#pragma warning (push)
; 711  : 		#pragma warning(disable : 4996)
; 712  : 		memmove( pchDest, pchSrc, nChars*sizeof( XCHAR ) );
; 713  : 		#pragma warning (pop)
; 714  : 	}
; 715  : 	static void __cdecl CopyCharsOverlapped(
; 716  : 		_Out_writes_to_(nDestLen, nDestLen) XCHAR* pchDest,
; 717  : 		_In_ size_t nDestLen,
; 718  : 		_In_reads_(nChars) const XCHAR* pchSrc,
; 719  : 		_In_ int nChars) throw()
; 720  : 	{
; 721  : 		memmove_s( pchDest, nDestLen*sizeof( XCHAR ),
; 722  : 			pchSrc, nChars*sizeof( XCHAR ) );
; 723  : 	}
; 724  : 	static int __cdecl StringLength(_In_opt_z_ const char* psz) throw()
; 725  : 	{
; 726  : 		if( psz == NULL )
; 727  : 		{
; 728  : 			return( 0 );

  0012d	33 c0		 xor	 eax, eax
$LN36@ChangeMons:

; 606  : 		SetString( pszSrc, StringLength( pszSrc ) );

  0012f	50		 push	 eax
  00130	56		 push	 esi
  00131	8d 8d ec fb ff
	ff		 lea	 ecx, DWORD PTR _strMoverName$2[ebp]
  00137	e8 00 00 00 00	 call	 ?SetString@?$CSimpleStringT@D$0A@@ATL@@QAEXPBDH@Z ; ATL::CSimpleStringT<char,0>::SetString
$LN11@ChangeMons:
; File C:\IAGOS\server\v18\Source\Source\_Database\DbItemUpdate.cpp

; 182  : 			strMoverName.Replace( "'", " " );

  0013c	68 00 00 00 00	 push	 OFFSET ??_C@_01CLKCMJKC@?5@
  00141	68 00 00 00 00	 push	 OFFSET ??_C@_01GEODFPGF@?8@
  00146	8d 8d ec fb ff
	ff		 lea	 ecx, DWORD PTR _strMoverName$2[ebp]
  0014c	c7 45 fc 01 00
	00 00		 mov	 DWORD PTR __$EHRec$[ebp+8], 1
  00153	e8 00 00 00 00	 call	 ?Replace@?$CStringT@DV?$StrTraitMFC@DV?$ChTraitsCRT@D@ATL@@@@@ATL@@QAEHPBD0@Z ; ATL::CStringT<char,StrTraitMFC<char,ATL::ChTraitsCRT<char> > >::Replace

; 183  : 
; 184  : 			sprintf( szSQL, "ITEM_STR 'I3', %d,'%s','',%d",

  00158	ff b7 88 00 00
	00		 push	 DWORD PTR [edi+136]
  0015e	8b b5 ec fb ff
	ff		 mov	 esi, DWORD PTR _strMoverName$2[ebp]
  00164	8d 85 f0 fb ff
	ff		 lea	 eax, DWORD PTR _szSQL$[ebp]
  0016a	56		 push	 esi
  0016b	ff 37		 push	 DWORD PTR [edi]
  0016d	68 00 00 00 00	 push	 OFFSET ??_C@_0BN@MFAIKAMI@ITEM_STR?5?8I3?8?0?5?$CFd?0?8?$CFs?8?0?8?8?0?$CFd@
  00172	50		 push	 eax
  00173	e8 00 00 00 00	 call	 _sprintf

; 185  : 				pMoverProp->dwID, strMoverName, pMoverProp->dwLevel );
; 186  : 			//	mulcom	END100406	ITEM_STR I3 MoverName quotation mark Á¦°Ĺ
; 187  : 
; 188  : 			
; 189  : 			if( FALSE == pQuery->Exec( szSQL ) )

  00178	8b 8d e8 fb ff
	ff		 mov	 ecx, DWORD PTR _pQuery$GSCopy$1$[ebp]
  0017e	8d 85 f0 fb ff
	ff		 lea	 eax, DWORD PTR _szSQL$[ebp]
  00184	83 c4 14	 add	 esp, 20			; 00000014H
  00187	50		 push	 eax
  00188	e8 00 00 00 00	 call	 ?Exec@CQuery@@QAEHPBD@Z	; CQuery::Exec
  0018d	85 c0		 test	 eax, eax
  0018f	74 31		 je	 SHORT $LN60@ChangeMons

; 193  : 			}
; 194  : 		}

  00191	c7 45 fc ff ff
	ff ff		 mov	 DWORD PTR __$EHRec$[ebp+8], -1
; File C:\Program Files\Microsoft Visual Studio\2022\Professional\VC\Tools\MSVC\14.44.35207\atlmfc\include\atlsimpstr.h

; 804  : 		return( reinterpret_cast< CStringData* >( m_pszData )-1 );

  00198	83 c6 f0	 add	 esi, -16		; fffffff0H

; 92   : 		if( _InterlockedDecrement( &nRefs ) <= 0 )

  0019b	83 c8 ff	 or	 eax, -1
  0019e	f0 0f c1 46 0c	 lock	  xadd	 DWORD PTR [esi+12], eax
  001a3	48		 dec	 eax
  001a4	85 c0		 test	 eax, eax
  001a6	7f 08		 jg	 SHORT $LN2@ChangeMons

; 93   : 		{
; 94   : 			pStringMgr->Free( this );

  001a8	8b 0e		 mov	 ecx, DWORD PTR [esi]
  001aa	56		 push	 esi
  001ab	8b 01		 mov	 eax, DWORD PTR [ecx]
  001ad	ff 50 04	 call	 DWORD PTR [eax+4]
$LN2@ChangeMons:
; File C:\IAGOS\server\v18\Source\Source\_Database\DbItemUpdate.cpp

; 174  : 	for( int i = 0; i < prj.m_nMoverPropSize; i++ )

  001b0	43		 inc	 ebx
  001b1	3b 1d 58 00 00
	00		 cmp	 ebx, DWORD PTR ?prj@@3VCProject@@A+88
  001b7	0f 8c f3 fe ff
	ff		 jl	 $LL4@ChangeMons
  001bd	e9 bd fe ff ff	 jmp	 $LN62@ChangeMons
$LN60@ChangeMons:

; 190  : 			{
; 191  : 				WriteLog( szSQL );

  001c2	8d 85 f0 fb ff
	ff		 lea	 eax, DWORD PTR _szSQL$[ebp]
  001c8	50		 push	 eax
  001c9	e8 00 00 00 00	 call	 ?WriteLog@@YAXPBDZZ	; WriteLog
  001ce	83 c4 04	 add	 esp, 4

; 192  : 				return ;

  001d1	c7 45 fc ff ff
	ff ff		 mov	 DWORD PTR __$EHRec$[ebp+8], -1
; File C:\Program Files\Microsoft Visual Studio\2022\Professional\VC\Tools\MSVC\14.44.35207\atlmfc\include\atlsimpstr.h

; 804  : 		return( reinterpret_cast< CStringData* >( m_pszData )-1 );

  001d8	83 c6 f0	 add	 esi, -16		; fffffff0H

; 92   : 		if( _InterlockedDecrement( &nRefs ) <= 0 )

  001db	83 c8 ff	 or	 eax, -1
  001de	f0 0f c1 46 0c	 lock	  xadd	 DWORD PTR [esi+12], eax
  001e3	48		 dec	 eax
  001e4	85 c0		 test	 eax, eax
  001e6	0f 8f 93 fe ff
	ff		 jg	 $LN62@ChangeMons

; 93   : 		{
; 94   : 			pStringMgr->Free( this );

  001ec	8b 0e		 mov	 ecx, DWORD PTR [esi]
  001ee	56		 push	 esi
  001ef	8b 01		 mov	 eax, DWORD PTR [ecx]
  001f1	ff 50 04	 call	 DWORD PTR [eax+4]
  001f4	e9 86 fe ff ff	 jmp	 $LN62@ChangeMons
$LN59@ChangeMons:

; 209  : 		ATLENSURE( pStringMgr != NULL );

  001f9	68 05 40 00 80	 push	 -2147467259		; 80004005H
  001fe	e8 00 00 00 00	 call	 ?AtlThrowImpl@ATL@@YGXJ@Z ; ATL::AtlThrowImpl
$LN70@ChangeMons:
  00203	cc		 int	 3
_TEXT	ENDS
;	COMDAT text$x
text$x	SEGMENT
__unwindfunclet$?ChangeMonsterUpdate@CDbManager@@QAEXPAVCQuery@@@Z$1:
  00000	8d 8d ec fb ff
	ff		 lea	 ecx, DWORD PTR _strMoverName$2[ebp]
  00006	e9 00 00 00 00	 jmp	 ??1?$CSimpleStringT@D$0A@@ATL@@QAE@XZ ; ATL::CSimpleStringT<char,0>::~CSimpleStringT<char,0>
__unwindfunclet$?ChangeMonsterUpdate@CDbManager@@QAEXPAVCQuery@@@Z$0:
  0000b	8d 8d ec fb ff
	ff		 lea	 ecx, DWORD PTR _strMoverName$2[ebp]
  00011	e9 00 00 00 00	 jmp	 ??1?$CStringT@DV?$StrTraitMFC@DV?$ChTraitsCRT@D@ATL@@@@@ATL@@QAE@XZ ; ATL::CStringT<char,StrTraitMFC<char,ATL::ChTraitsCRT<char> > >::~CStringT<char,StrTraitMFC<char,ATL::ChTraitsCRT<char> > >
  00016	cc		 int	 3
  00017	cc		 int	 3
  00018	cc		 int	 3
  00019	cc		 int	 3
  0001a	cc		 int	 3
__ehhandler$?ChangeMonsterUpdate@CDbManager@@QAEXPAVCQuery@@@Z:
  0001b	90		 npad	 1
  0001c	90		 npad	 1
  0001d	8b 54 24 08	 mov	 edx, DWORD PTR [esp+8]
  00021	8d 42 0c	 lea	 eax, DWORD PTR [edx+12]
  00024	8b 8a e4 fb ff
	ff		 mov	 ecx, DWORD PTR [edx-1052]
  0002a	33 c8		 xor	 ecx, eax
  0002c	e8 00 00 00 00	 call	 @__security_check_cookie@4
  00031	8b 4a fc	 mov	 ecx, DWORD PTR [edx-4]
  00034	33 c8		 xor	 ecx, eax
  00036	e8 00 00 00 00	 call	 @__security_check_cookie@4
  0003b	b8 00 00 00 00	 mov	 eax, OFFSET __ehfuncinfo$?ChangeMonsterUpdate@CDbManager@@QAEXPAVCQuery@@@Z
  00040	e9 00 00 00 00	 jmp	 ___CxxFrameHandler3
text$x	ENDS
?ChangeMonsterUpdate@CDbManager@@QAEXPAVCQuery@@@Z ENDP	; CDbManager::ChangeMonsterUpdate
; Function compile flags: /Ogtp
; File C:\IAGOS\server\v18\Source\Source\_Database\DbItemUpdate.cpp
; File C:\IAGOS\server\v18\Source\Source\_Common\Data.h
; File C:\IAGOS\server\v18\Source\Source\_Database\DbItemUpdate.cpp
; File C:\Program Files\Microsoft Visual Studio\2022\Professional\VC\Tools\MSVC\14.44.35207\atlmfc\include\afxstr.h
; File C:\Program Files\Microsoft Visual Studio\2022\Professional\VC\Tools\MSVC\14.44.35207\atlmfc\include\atlsimpstr.h
; File C:\Program Files\Microsoft Visual Studio\2022\Professional\VC\Tools\MSVC\14.44.35207\atlmfc\include\cstringt.h
; File C:\Program Files\Microsoft Visual Studio\2022\Professional\VC\Tools\MSVC\14.44.35207\atlmfc\include\atlsimpstr.h
; File C:\IAGOS\server\v18\Source\Source\_Database\DbItemUpdate.cpp
; File C:\Program Files\Microsoft Visual Studio\2022\Professional\VC\Tools\MSVC\14.44.35207\atlmfc\include\atlsimpstr.h
; File C:\IAGOS\server\v18\Source\Source\_Database\DbItemUpdate.cpp
; File C:\Program Files\Microsoft Visual Studio\2022\Professional\VC\Tools\MSVC\14.44.35207\atlmfc\include\atlsimpstr.h
; File C:\IAGOS\server\v18\Source\Source\_Database\DbItemUpdate.cpp
;	COMDAT ?ChangeSkillUpdate@CDbManager@@QAEXPAVCQuery@@@Z
_TEXT	SEGMENT
_pQuery$GSCopy$1$ = -1048				; size = 4
_strSkill$2 = -1044					; size = 4
_szSQL$ = -1040						; size = 1024
__$ArrayPad$ = -16					; size = 4
__$EHRec$ = -12						; size = 12
_pQuery$ = 8						; size = 4
?ChangeSkillUpdate@CDbManager@@QAEXPAVCQuery@@@Z PROC	; CDbManager::ChangeSkillUpdate, COMDAT
; _this$ = ecx

; 131  : {

  00000	55		 push	 ebp
  00001	8b ec		 mov	 ebp, esp
  00003	6a ff		 push	 -1
  00005	68 00 00 00 00	 push	 __ehhandler$?ChangeSkillUpdate@CDbManager@@QAEXPAVCQuery@@@Z
  0000a	64 a1 00 00 00
	00		 mov	 eax, DWORD PTR fs:0
  00010	50		 push	 eax
  00011	81 ec 0c 04 00
	00		 sub	 esp, 1036		; 0000040cH
  00017	a1 00 00 00 00	 mov	 eax, DWORD PTR ___security_cookie
  0001c	33 c5		 xor	 eax, ebp
  0001e	89 45 f0	 mov	 DWORD PTR __$ArrayPad$[ebp], eax
  00021	53		 push	 ebx
  00022	56		 push	 esi
  00023	57		 push	 edi
  00024	50		 push	 eax
  00025	8d 45 f4	 lea	 eax, DWORD PTR __$EHRec$[ebp]
  00028	64 a3 00 00 00
	00		 mov	 DWORD PTR fs:0, eax
  0002e	8b 5d 08	 mov	 ebx, DWORD PTR _pQuery$[ebp]

; 132  : 	char szSQL[1024] = {0,};

  00031	8d 85 f0 fb ff
	ff		 lea	 eax, DWORD PTR _szSQL$[ebp]
  00037	68 00 04 00 00	 push	 1024			; 00000400H
  0003c	6a 00		 push	 0
  0003e	50		 push	 eax
  0003f	89 9d e8 fb ff
	ff		 mov	 DWORD PTR _pQuery$GSCopy$1$[ebp], ebx
  00045	e8 00 00 00 00	 call	 _memset

; 133  : 	
; 134  : 	sprintf( szSQL, "ITEM_STR 'D2'" );

  0004a	8d 85 f0 fb ff
	ff		 lea	 eax, DWORD PTR _szSQL$[ebp]
  00050	68 00 00 00 00	 push	 OFFSET ??_C@_0O@EGHDFIGB@ITEM_STR?5?8D2?8@
  00055	50		 push	 eax
  00056	e8 00 00 00 00	 call	 _sprintf
  0005b	83 c4 14	 add	 esp, 20			; 00000014H

; 135  : 	
; 136  : 	if( FALSE == pQuery->Exec( szSQL ) )

  0005e	8d 85 f0 fb ff
	ff		 lea	 eax, DWORD PTR _szSQL$[ebp]
  00064	8b cb		 mov	 ecx, ebx
  00066	50		 push	 eax
  00067	e8 00 00 00 00	 call	 ?Exec@CQuery@@QAEHPBD@Z	; CQuery::Exec
  0006c	85 c0		 test	 eax, eax
  0006e	75 2d		 jne	 SHORT $LN5@ChangeSkil

; 137  : 	{
; 138  : 		WriteLog( szSQL );

  00070	8d 85 f0 fb ff
	ff		 lea	 eax, DWORD PTR _szSQL$[ebp]
  00076	50		 push	 eax
  00077	e8 00 00 00 00	 call	 ?WriteLog@@YAXPBDZZ	; WriteLog
  0007c	83 c4 04	 add	 esp, 4
$LN68@ChangeSkil:

; 160  : }

  0007f	8b 4d f4	 mov	 ecx, DWORD PTR __$EHRec$[ebp]
  00082	64 89 0d 00 00
	00 00		 mov	 DWORD PTR fs:0, ecx
  00089	59		 pop	 ecx
  0008a	5f		 pop	 edi
  0008b	5e		 pop	 esi
  0008c	5b		 pop	 ebx
  0008d	8b 4d f0	 mov	 ecx, DWORD PTR __$ArrayPad$[ebp]
  00090	33 cd		 xor	 ecx, ebp
  00092	e8 00 00 00 00	 call	 @__security_check_cookie@4
  00097	8b e5		 mov	 esp, ebp
  00099	5d		 pop	 ebp
  0009a	c2 04 00	 ret	 4
$LN5@ChangeSkil:

; 142  : 	for( int i = 0; i < prj.m_aPropSkill.GetSize(); i++ )

  0009d	8b 0d 28 00 00
	00		 mov	 ecx, DWORD PTR ?prj@@3VCProject@@A+40
  000a3	33 ff		 xor	 edi, edi
  000a5	85 c9		 test	 ecx, ecx
  000a7	7e d6		 jle	 SHORT $LN68@ChangeSkil
; File C:\IAGOS\server\v18\Source\Source\_Common\Data.h

; 270  : 	if( dwIndex >= (DWORD)m_nMaxIndex )

  000a9	3b f9		 cmp	 edi, ecx
$LN77@ChangeSkil:
  000ab	0f 83 f3 00 00
	00		 jae	 $LN2@ChangeSkil

; 271  : 		return NULL;
; 272  : 	return (T*) m_apOffset[ dwIndex ];

  000b1	a1 18 00 00 00	 mov	 eax, DWORD PTR ?prj@@3VCProject@@A+24
  000b6	8b 1c b8	 mov	 ebx, DWORD PTR [eax+edi*4]
; File C:\IAGOS\server\v18\Source\Source\_Database\DbItemUpdate.cpp

; 145  : 		if( pSkillProp && pSkillProp->dwID != 0 )

  000b9	85 db		 test	 ebx, ebx
  000bb	0f 84 e3 00 00
	00		 je	 $LN2@ChangeSkil
  000c1	83 3b 00	 cmp	 DWORD PTR [ebx], 0
  000c4	0f 84 da 00 00
	00		 je	 $LN2@ChangeSkil

; 146  : 		{
; 147  : 			CString strSkill	= pSkillProp->szName;

  000ca	8d 73 04	 lea	 esi, DWORD PTR [ebx+4]
; File C:\Program Files\Microsoft Visual Studio\2022\Professional\VC\Tools\MSVC\14.44.35207\atlmfc\include\afxstr.h

; 56   : 		return( AfxGetStringManager() );

  000cd	e8 00 00 00 00	 call	 ?AfxGetStringManager@@YGPAUIAtlStringMgr@ATL@@XZ ; AfxGetStringManager
  000d2	8b c8		 mov	 ecx, eax
; File C:\Program Files\Microsoft Visual Studio\2022\Professional\VC\Tools\MSVC\14.44.35207\atlmfc\include\atlsimpstr.h

; 209  : 		ATLENSURE( pStringMgr != NULL );

  000d4	85 c9		 test	 ecx, ecx
  000d6	0f 84 0d 01 00
	00		 je	 $LN65@ChangeSkil

; 210  : 		CStringData* pData = pStringMgr->GetNilString();

  000dc	8b 01		 mov	 eax, DWORD PTR [ecx]
  000de	ff 50 0c	 call	 DWORD PTR [eax+12]

; 211  : 		Attach( pData );

  000e1	83 c0 10	 add	 eax, 16			; 00000010H
  000e4	89 85 ec fb ff
	ff		 mov	 DWORD PTR _strSkill$2[ebp], eax
; File C:\Program Files\Microsoft Visual Studio\2022\Professional\VC\Tools\MSVC\14.44.35207\atlmfc\include\cstringt.h

; 1052 : 		CThisSimpleString( StringTraits::GetDefaultManager() )

  000ea	c7 45 fc 00 00
	00 00		 mov	 DWORD PTR __$EHRec$[ebp+8], 0

; 2712 : 		if( (pv != NULL) && IS_INTRESOURCE( pv ) )

  000f1	85 f6		 test	 esi, esi
  000f3	74 29		 je	 SHORT $LN72@ChangeSkil
  000f5	f7 c6 00 00 ff
	ff		 test	 esi, -65536		; ffff0000H
  000fb	75 11		 jne	 SHORT $LN43@ChangeSkil

; 2713 : 		{
; 2714 : 			UINT nID = LOWORD( reinterpret_cast< DWORD_PTR >( pv ) );

  000fd	0f b7 c6	 movzx	 eax, si

; 2715 : 			(nID);
; 2716 : #ifdef _ATL_USE_WINAPI_FAMILY_DESKTOP_APP
; 2717 : 			if( !LoadString( nID ) )

  00100	8d 8d ec fb ff
	ff		 lea	 ecx, DWORD PTR _strSkill$2[ebp]
  00106	50		 push	 eax
  00107	e8 00 00 00 00	 call	 ?LoadStringA@?$CStringT@DV?$StrTraitMFC@DV?$ChTraitsCRT@D@ATL@@@@@ATL@@QAEHI@Z ; ATL::CStringT<char,StrTraitMFC<char,ATL::ChTraitsCRT<char> > >::LoadStringA

; 1054 : 		if( !CheckImplicitLoad( pszSrc ) )

  0010c	eb 1f		 jmp	 SHORT $LN17@ChangeSkil
$LN43@ChangeSkil:
; File C:\Program Files\Microsoft Visual Studio\2022\Professional\VC\Tools\MSVC\14.44.35207\atlmfc\include\atlsimpstr.h

; 730  : 		return( int( strlen( psz ) ) );

  0010e	8b c6		 mov	 eax, esi
  00110	8d 50 01	 lea	 edx, DWORD PTR [eax+1]
$LL73@ChangeSkil:
  00113	8a 08		 mov	 cl, BYTE PTR [eax]
  00115	40		 inc	 eax
  00116	84 c9		 test	 cl, cl
  00118	75 f9		 jne	 SHORT $LL73@ChangeSkil
  0011a	2b c2		 sub	 eax, edx
  0011c	eb 02		 jmp	 SHORT $LN42@ChangeSkil
$LN72@ChangeSkil:

; 607  : 	}
; 608  : 	void SetString(
; 609  : 		_In_reads_opt_(nLength) PCXSTR pszSrc,
; 610  : 		_In_ int nLength)
; 611  : 	{
; 612  : 		if( nLength == 0 )
; 613  : 		{
; 614  : 			Empty();
; 615  : 		}
; 616  : 		else
; 617  : 		{
; 618  : 			// It is possible that pszSrc points to a location inside of our
; 619  : 			// buffer.  GetBuffer() might change m_pszData if (1) the buffer
; 620  : 			// is shared or (2) the buffer is too small to hold the new
; 621  : 			// string.  We detect this aliasing, and modify pszSrc to point
; 622  : 			// into the newly allocated buffer instead.
; 623  : 
; 624  : 			if(pszSrc == NULL)
; 625  : 				AtlThrow(E_INVALIDARG);
; 626  : 
; 627  : 			UINT nOldLength = GetLength();
; 628  : 			UINT_PTR nOffset = pszSrc-GetString();
; 629  : 			// If 0 <= nOffset <= nOldLength, then pszSrc points into our
; 630  : 			// buffer
; 631  : 
; 632  : 			PXSTR pszBuffer = GetBuffer( nLength );
; 633  : 			if( nOffset <= nOldLength )
; 634  : 			{
; 635  : 				CopyCharsOverlapped( pszBuffer, GetAllocLength(),
; 636  : 					pszBuffer+nOffset, nLength );
; 637  : 			}
; 638  : 			else
; 639  : 			{
; 640  : 				memcpy_s( pszBuffer, GetAllocLength() * sizeof( XCHAR ), pszSrc, nLength * sizeof( XCHAR ));
; 641  : 			}
; 642  : 			ReleaseBufferSetLength( nLength );
; 643  : 		}
; 644  : 	}
; 645  : 
; 646  : public:
; 647  : 	friend CSimpleStringT operator+(
; 648  : 		_In_ const CSimpleStringT& str1,
; 649  : 		_In_ const CSimpleStringT& str2)
; 650  : 	{
; 651  : 		CSimpleStringT s( str1.GetManager() );
; 652  : 
; 653  : 		Concatenate( s, str1, str1.GetLength(), str2, str2.GetLength() );
; 654  : 
; 655  : 		return( s );
; 656  : 	}
; 657  : 
; 658  : 	friend CSimpleStringT operator+(
; 659  : 		_In_ const CSimpleStringT& str1,
; 660  : 		_In_z_ PCXSTR psz2)
; 661  : 	{
; 662  : 		CSimpleStringT s( str1.GetManager() );
; 663  : 
; 664  : 		Concatenate( s, str1, str1.GetLength(), psz2, StringLength( psz2 ) );
; 665  : 
; 666  : 		return( s );
; 667  : 	}
; 668  : 
; 669  : 	friend CSimpleStringT operator+(
; 670  : 		_In_z_ PCXSTR psz1,
; 671  : 		_In_ const CSimpleStringT& str2)
; 672  : 	{
; 673  : 		CSimpleStringT s( str2.GetManager() );
; 674  : 
; 675  : 		Concatenate( s, psz1, StringLength( psz1 ), str2, str2.GetLength() );
; 676  : 
; 677  : 		return( s );
; 678  : 	}
; 679  : 
; 680  : 	_ATL_INSECURE_DEPRECATE("CSimpleStringT::CopyChars must be passed a buffer size")
; 681  : 	static void __cdecl CopyChars(
; 682  : 		_Out_writes_(nChars) XCHAR* pchDest,
; 683  : 		_In_reads_opt_(nChars) const XCHAR* pchSrc,
; 684  : 		_In_ int nChars) throw()
; 685  : 	{
; 686  : 		if (pchSrc != NULL)
; 687  : 		{
; 688  : 			#pragma warning (push)
; 689  : 			#pragma warning(disable : 4996)
; 690  : 			memcpy( pchDest, pchSrc, nChars*sizeof( XCHAR ) );
; 691  : 			#pragma warning (pop)
; 692  : 		}
; 693  : 	}
; 694  : 	static void __cdecl CopyChars(
; 695  : 		_Out_writes_to_(nDestLen,nChars) XCHAR* pchDest,
; 696  : 		_In_ size_t nDestLen,
; 697  : 		_In_reads_opt_(nChars) const XCHAR* pchSrc,
; 698  : 		_In_ int nChars) throw()
; 699  : 	{
; 700  : 		memcpy_s( pchDest, nDestLen*sizeof( XCHAR ),
; 701  : 			pchSrc, nChars*sizeof( XCHAR ) );
; 702  : 	}
; 703  : 
; 704  : 	_ATL_INSECURE_DEPRECATE("CSimpleStringT::CopyCharsOverlapped must be passed a buffer size")
; 705  : 	static void __cdecl CopyCharsOverlapped(
; 706  : 		_Out_writes_(nChars) XCHAR* pchDest,
; 707  : 		_In_reads_(nChars) const XCHAR* pchSrc,
; 708  : 		_In_ int nChars) throw()
; 709  : 	{
; 710  : 		#pragma warning (push)
; 711  : 		#pragma warning(disable : 4996)
; 712  : 		memmove( pchDest, pchSrc, nChars*sizeof( XCHAR ) );
; 713  : 		#pragma warning (pop)
; 714  : 	}
; 715  : 	static void __cdecl CopyCharsOverlapped(
; 716  : 		_Out_writes_to_(nDestLen, nDestLen) XCHAR* pchDest,
; 717  : 		_In_ size_t nDestLen,
; 718  : 		_In_reads_(nChars) const XCHAR* pchSrc,
; 719  : 		_In_ int nChars) throw()
; 720  : 	{
; 721  : 		memmove_s( pchDest, nDestLen*sizeof( XCHAR ),
; 722  : 			pchSrc, nChars*sizeof( XCHAR ) );
; 723  : 	}
; 724  : 	static int __cdecl StringLength(_In_opt_z_ const char* psz) throw()
; 725  : 	{
; 726  : 		if( psz == NULL )
; 727  : 		{
; 728  : 			return( 0 );

  0011e	33 c0		 xor	 eax, eax
$LN42@ChangeSkil:

; 606  : 		SetString( pszSrc, StringLength( pszSrc ) );

  00120	50		 push	 eax
  00121	56		 push	 esi
  00122	8d 8d ec fb ff
	ff		 lea	 ecx, DWORD PTR _strSkill$2[ebp]
  00128	e8 00 00 00 00	 call	 ?SetString@?$CSimpleStringT@D$0A@@ATL@@QAEXPBDH@Z ; ATL::CSimpleStringT<char,0>::SetString
$LN17@ChangeSkil:
; File C:\IAGOS\server\v18\Source\Source\_Database\DbItemUpdate.cpp

; 148  : 			strSkill.Replace( "'", " " );

  0012d	68 00 00 00 00	 push	 OFFSET ??_C@_01CLKCMJKC@?5@
  00132	68 00 00 00 00	 push	 OFFSET ??_C@_01GEODFPGF@?8@
  00137	8d 8d ec fb ff
	ff		 lea	 ecx, DWORD PTR _strSkill$2[ebp]
  0013d	c7 45 fc 01 00
	00 00		 mov	 DWORD PTR __$EHRec$[ebp+8], 1
  00144	e8 00 00 00 00	 call	 ?Replace@?$CStringT@DV?$StrTraitMFC@DV?$ChTraitsCRT@D@ATL@@@@@ATL@@QAEHPBD0@Z ; ATL::CStringT<char,StrTraitMFC<char,ATL::ChTraitsCRT<char> > >::Replace

; 149  : 			sprintf( szSQL, "ITEM_STR 'I2', %d,'%s','',%d",

  00149	ff 73 7c	 push	 DWORD PTR [ebx+124]
  0014c	8b b5 ec fb ff
	ff		 mov	 esi, DWORD PTR _strSkill$2[ebp]
  00152	8d 85 f0 fb ff
	ff		 lea	 eax, DWORD PTR _szSQL$[ebp]
  00158	56		 push	 esi
  00159	ff 33		 push	 DWORD PTR [ebx]
  0015b	68 00 00 00 00	 push	 OFFSET ??_C@_0BN@CKFKBGCJ@ITEM_STR?5?8I2?8?0?5?$CFd?0?8?$CFs?8?0?8?8?0?$CFd@
  00160	50		 push	 eax
  00161	e8 00 00 00 00	 call	 _sprintf

; 150  : 				pSkillProp->dwID, strSkill, pSkillProp->dwItemJob );
; 151  : 			if( FALSE == pQuery->Exec( szSQL ) )

  00166	8b 8d e8 fb ff
	ff		 mov	 ecx, DWORD PTR _pQuery$GSCopy$1$[ebp]
  0016c	8d 85 f0 fb ff
	ff		 lea	 eax, DWORD PTR _szSQL$[ebp]
  00172	83 c4 14	 add	 esp, 20			; 00000014H
  00175	50		 push	 eax
  00176	e8 00 00 00 00	 call	 ?Exec@CQuery@@QAEHPBD@Z	; CQuery::Exec
  0017b	85 c0		 test	 eax, eax
  0017d	74 33		 je	 SHORT $LN66@ChangeSkil

; 155  : 			}
; 156  : 		}

  0017f	c7 45 fc ff ff
	ff ff		 mov	 DWORD PTR __$EHRec$[ebp+8], -1
; File C:\Program Files\Microsoft Visual Studio\2022\Professional\VC\Tools\MSVC\14.44.35207\atlmfc\include\atlsimpstr.h

; 804  : 		return( reinterpret_cast< CStringData* >( m_pszData )-1 );

  00186	83 c6 f0	 add	 esi, -16		; fffffff0H

; 92   : 		if( _InterlockedDecrement( &nRefs ) <= 0 )

  00189	83 c8 ff	 or	 eax, -1
  0018c	f0 0f c1 46 0c	 lock	  xadd	 DWORD PTR [esi+12], eax
  00191	48		 dec	 eax
  00192	85 c0		 test	 eax, eax
  00194	7f 08		 jg	 SHORT $LN74@ChangeSkil

; 93   : 		{
; 94   : 			pStringMgr->Free( this );

  00196	8b 0e		 mov	 ecx, DWORD PTR [esi]
  00198	56		 push	 esi
  00199	8b 01		 mov	 eax, DWORD PTR [ecx]
  0019b	ff 50 04	 call	 DWORD PTR [eax+4]
$LN74@ChangeSkil:
; File C:\IAGOS\server\v18\Source\Source\_Database\DbItemUpdate.cpp

; 142  : 	for( int i = 0; i < prj.m_aPropSkill.GetSize(); i++ )

  0019e	8b 0d 28 00 00
	00		 mov	 ecx, DWORD PTR ?prj@@3VCProject@@A+40
$LN2@ChangeSkil:
  001a4	47		 inc	 edi
  001a5	3b f9		 cmp	 edi, ecx
  001a7	0f 8c fe fe ff
	ff		 jl	 $LN77@ChangeSkil
  001ad	e9 cd fe ff ff	 jmp	 $LN68@ChangeSkil
$LN66@ChangeSkil:

; 152  : 			{
; 153  : 				WriteLog( szSQL );

  001b2	8d 85 f0 fb ff
	ff		 lea	 eax, DWORD PTR _szSQL$[ebp]
  001b8	50		 push	 eax
  001b9	e8 00 00 00 00	 call	 ?WriteLog@@YAXPBDZZ	; WriteLog
  001be	83 c4 04	 add	 esp, 4

; 154  : 				return;

  001c1	c7 45 fc ff ff
	ff ff		 mov	 DWORD PTR __$EHRec$[ebp+8], -1
; File C:\Program Files\Microsoft Visual Studio\2022\Professional\VC\Tools\MSVC\14.44.35207\atlmfc\include\atlsimpstr.h

; 804  : 		return( reinterpret_cast< CStringData* >( m_pszData )-1 );

  001c8	83 c6 f0	 add	 esi, -16		; fffffff0H

; 92   : 		if( _InterlockedDecrement( &nRefs ) <= 0 )

  001cb	83 c8 ff	 or	 eax, -1
  001ce	f0 0f c1 46 0c	 lock	  xadd	 DWORD PTR [esi+12], eax
  001d3	48		 dec	 eax
  001d4	85 c0		 test	 eax, eax
  001d6	0f 8f a3 fe ff
	ff		 jg	 $LN68@ChangeSkil

; 93   : 		{
; 94   : 			pStringMgr->Free( this );

  001dc	8b 0e		 mov	 ecx, DWORD PTR [esi]
  001de	56		 push	 esi
  001df	8b 01		 mov	 eax, DWORD PTR [ecx]
  001e1	ff 50 04	 call	 DWORD PTR [eax+4]
  001e4	e9 96 fe ff ff	 jmp	 $LN68@ChangeSkil
$LN65@ChangeSkil:

; 209  : 		ATLENSURE( pStringMgr != NULL );

  001e9	68 05 40 00 80	 push	 -2147467259		; 80004005H
  001ee	e8 00 00 00 00	 call	 ?AtlThrowImpl@ATL@@YGXJ@Z ; ATL::AtlThrowImpl
$LN76@ChangeSkil:
  001f3	cc		 int	 3
_TEXT	ENDS
;	COMDAT text$x
text$x	SEGMENT
__unwindfunclet$?ChangeSkillUpdate@CDbManager@@QAEXPAVCQuery@@@Z$1:
  00000	8d 8d ec fb ff
	ff		 lea	 ecx, DWORD PTR _strSkill$2[ebp]
  00006	e9 00 00 00 00	 jmp	 ??1?$CSimpleStringT@D$0A@@ATL@@QAE@XZ ; ATL::CSimpleStringT<char,0>::~CSimpleStringT<char,0>
__unwindfunclet$?ChangeSkillUpdate@CDbManager@@QAEXPAVCQuery@@@Z$0:
  0000b	8d 8d ec fb ff
	ff		 lea	 ecx, DWORD PTR _strSkill$2[ebp]
  00011	e9 00 00 00 00	 jmp	 ??1?$CStringT@DV?$StrTraitMFC@DV?$ChTraitsCRT@D@ATL@@@@@ATL@@QAE@XZ ; ATL::CStringT<char,StrTraitMFC<char,ATL::ChTraitsCRT<char> > >::~CStringT<char,StrTraitMFC<char,ATL::ChTraitsCRT<char> > >
  00016	cc		 int	 3
  00017	cc		 int	 3
  00018	cc		 int	 3
  00019	cc		 int	 3
  0001a	cc		 int	 3
__ehhandler$?ChangeSkillUpdate@CDbManager@@QAEXPAVCQuery@@@Z:
  0001b	90		 npad	 1
  0001c	90		 npad	 1
  0001d	8b 54 24 08	 mov	 edx, DWORD PTR [esp+8]
  00021	8d 42 0c	 lea	 eax, DWORD PTR [edx+12]
  00024	8b 8a e4 fb ff
	ff		 mov	 ecx, DWORD PTR [edx-1052]
  0002a	33 c8		 xor	 ecx, eax
  0002c	e8 00 00 00 00	 call	 @__security_check_cookie@4
  00031	8b 4a fc	 mov	 ecx, DWORD PTR [edx-4]
  00034	33 c8		 xor	 ecx, eax
  00036	e8 00 00 00 00	 call	 @__security_check_cookie@4
  0003b	b8 00 00 00 00	 mov	 eax, OFFSET __ehfuncinfo$?ChangeSkillUpdate@CDbManager@@QAEXPAVCQuery@@@Z
  00040	e9 00 00 00 00	 jmp	 ___CxxFrameHandler3
text$x	ENDS
?ChangeSkillUpdate@CDbManager@@QAEXPAVCQuery@@@Z ENDP	; CDbManager::ChangeSkillUpdate
; Function compile flags: /Ogtp
; File C:\IAGOS\server\v18\Source\Source\_Database\DbItemUpdate.cpp
; File C:\IAGOS\server\v18\Source\Source\_Common\Data.h
; File C:\IAGOS\server\v18\Source\Source\_Database\DbItemUpdate.cpp
; File C:\Program Files\Microsoft Visual Studio\2022\Professional\VC\Tools\MSVC\14.44.35207\atlmfc\include\afxstr.h
; File C:\Program Files\Microsoft Visual Studio\2022\Professional\VC\Tools\MSVC\14.44.35207\atlmfc\include\atlsimpstr.h
; File C:\Program Files\Microsoft Visual Studio\2022\Professional\VC\Tools\MSVC\14.44.35207\atlmfc\include\cstringt.h
; File C:\Program Files\Microsoft Visual Studio\2022\Professional\VC\Tools\MSVC\14.44.35207\atlmfc\include\atlsimpstr.h
; File C:\IAGOS\server\v18\Source\Source\_Database\DbItemUpdate.cpp
; File C:\Program Files\Microsoft Visual Studio\2022\Professional\VC\Tools\MSVC\14.44.35207\atlmfc\include\atlsimpstr.h
; File C:\IAGOS\server\v18\Source\Source\_Database\DbItemUpdate.cpp
; File C:\Program Files\Microsoft Visual Studio\2022\Professional\VC\Tools\MSVC\14.44.35207\atlmfc\include\atlsimpstr.h
; File C:\IAGOS\server\v18\Source\Source\_Database\DbItemUpdate.cpp
;	COMDAT ?ChangeItemUpdate@CDbManager@@QAEXPAVCQuery@@@Z
_TEXT	SEGMENT
_pQuery$GSCopy$1$ = -4120				; size = 4
_strItem$2 = -4116					; size = 4
_szSQL$ = -4112						; size = 4096
__$ArrayPad$ = -16					; size = 4
__$EHRec$ = -12						; size = 12
_pQuery$ = 8						; size = 4
?ChangeItemUpdate@CDbManager@@QAEXPAVCQuery@@@Z PROC	; CDbManager::ChangeItemUpdate, COMDAT
; _this$ = ecx

; 56   : {

  00000	55		 push	 ebp
  00001	8b ec		 mov	 ebp, esp
  00003	6a ff		 push	 -1
  00005	68 00 00 00 00	 push	 __ehhandler$?ChangeItemUpdate@CDbManager@@QAEXPAVCQuery@@@Z
  0000a	64 a1 00 00 00
	00		 mov	 eax, DWORD PTR fs:0
  00010	50		 push	 eax
  00011	b8 0c 10 00 00	 mov	 eax, 4108		; 0000100cH
  00016	e8 00 00 00 00	 call	 __chkstk
  0001b	a1 00 00 00 00	 mov	 eax, DWORD PTR ___security_cookie
  00020	33 c5		 xor	 eax, ebp
  00022	89 45 f0	 mov	 DWORD PTR __$ArrayPad$[ebp], eax
  00025	53		 push	 ebx
  00026	56		 push	 esi
  00027	57		 push	 edi
  00028	50		 push	 eax
  00029	8d 45 f4	 lea	 eax, DWORD PTR __$EHRec$[ebp]
  0002c	64 a3 00 00 00
	00		 mov	 DWORD PTR fs:0, eax
  00032	8b 5d 08	 mov	 ebx, DWORD PTR _pQuery$[ebp]

; 57   : 	char szSQL[4096] = {0,};

  00035	8d 85 f0 ef ff
	ff		 lea	 eax, DWORD PTR _szSQL$[ebp]
  0003b	68 00 10 00 00	 push	 4096			; 00001000H
  00040	6a 00		 push	 0
  00042	50		 push	 eax
  00043	89 9d e8 ef ff
	ff		 mov	 DWORD PTR _pQuery$GSCopy$1$[ebp], ebx
  00049	e8 00 00 00 00	 call	 _memset

; 58   : 	
; 59   : 	sprintf( szSQL, "ITEM_STR 'D1'" );

  0004e	8d 85 f0 ef ff
	ff		 lea	 eax, DWORD PTR _szSQL$[ebp]
  00054	68 00 00 00 00	 push	 OFFSET ??_C@_0O@EEDFOGDI@ITEM_STR?5?8D1?8@
  00059	50		 push	 eax
  0005a	e8 00 00 00 00	 call	 _sprintf
  0005f	83 c4 14	 add	 esp, 20			; 00000014H

; 60   : 	
; 61   : 	if( FALSE == pQuery->Exec( szSQL ) )

  00062	8d 85 f0 ef ff
	ff		 lea	 eax, DWORD PTR _szSQL$[ebp]
  00068	8b cb		 mov	 ecx, ebx
  0006a	50		 push	 eax
  0006b	e8 00 00 00 00	 call	 ?Exec@CQuery@@QAEHPBD@Z	; CQuery::Exec
  00070	85 c0		 test	 eax, eax
  00072	75 2d		 jne	 SHORT $LN5@ChangeItem

; 62   : 	{
; 63   : 		WriteLog( szSQL );

  00074	8d 85 f0 ef ff
	ff		 lea	 eax, DWORD PTR _szSQL$[ebp]
  0007a	50		 push	 eax
  0007b	e8 00 00 00 00	 call	 ?WriteLog@@YAXPBDZZ	; WriteLog
  00080	83 c4 04	 add	 esp, 4
$LN67@ChangeItem:

; 128  : }

  00083	8b 4d f4	 mov	 ecx, DWORD PTR __$EHRec$[ebp]
  00086	64 89 0d 00 00
	00 00		 mov	 DWORD PTR fs:0, ecx
  0008d	59		 pop	 ecx
  0008e	5f		 pop	 edi
  0008f	5e		 pop	 esi
  00090	5b		 pop	 ebx
  00091	8b 4d f0	 mov	 ecx, DWORD PTR __$ArrayPad$[ebp]
  00094	33 cd		 xor	 ecx, ebp
  00096	e8 00 00 00 00	 call	 @__security_check_cookie@4
  0009b	8b e5		 mov	 esp, ebp
  0009d	5d		 pop	 ebp
  0009e	c2 04 00	 ret	 4
$LN5@ChangeItem:

; 67   : 	for( int i = 0; i < prj.m_aPropItem.GetSize(); i++ )

  000a1	8b 0d 4c 00 00
	00		 mov	 ecx, DWORD PTR ?prj@@3VCProject@@A+76
  000a7	33 db		 xor	 ebx, ebx
  000a9	85 c9		 test	 ecx, ecx
  000ab	7e d6		 jle	 SHORT $LN67@ChangeItem
; File C:\IAGOS\server\v18\Source\Source\_Common\Data.h

; 270  : 	if( dwIndex >= (DWORD)m_nMaxIndex )

  000ad	3b d9		 cmp	 ebx, ecx
$LN76@ChangeItem:
  000af	0f 83 c5 02 00
	00		 jae	 $LN2@ChangeItem

; 271  : 		return NULL;
; 272  : 	return (T*) m_apOffset[ dwIndex ];

  000b5	a1 3c 00 00 00	 mov	 eax, DWORD PTR ?prj@@3VCProject@@A+60
  000ba	8b 3c 98	 mov	 edi, DWORD PTR [eax+ebx*4]
; File C:\IAGOS\server\v18\Source\Source\_Database\DbItemUpdate.cpp

; 70   : 		if( pItemProp && pItemProp->dwItemKind3 != IK3_VIRTUAL && pItemProp->dwID != 0 )

  000bd	85 ff		 test	 edi, edi
  000bf	0f 84 b5 02 00
	00		 je	 $LN2@ChangeItem
  000c5	83 7f 78 0a	 cmp	 DWORD PTR [edi+120], 10	; 0000000aH
  000c9	0f 84 ab 02 00
	00		 je	 $LN2@ChangeItem
  000cf	83 3f 00	 cmp	 DWORD PTR [edi], 0
  000d2	0f 84 a2 02 00
	00		 je	 $LN2@ChangeItem

; 71   : 		{
; 72   : 			CString	strItem	= pItemProp->szName;

  000d8	8d 77 04	 lea	 esi, DWORD PTR [edi+4]
; File C:\Program Files\Microsoft Visual Studio\2022\Professional\VC\Tools\MSVC\14.44.35207\atlmfc\include\afxstr.h

; 56   : 		return( AfxGetStringManager() );

  000db	e8 00 00 00 00	 call	 ?AfxGetStringManager@@YGPAUIAtlStringMgr@ATL@@XZ ; AfxGetStringManager
  000e0	8b c8		 mov	 ecx, eax
; File C:\Program Files\Microsoft Visual Studio\2022\Professional\VC\Tools\MSVC\14.44.35207\atlmfc\include\atlsimpstr.h

; 209  : 		ATLENSURE( pStringMgr != NULL );

  000e2	85 c9		 test	 ecx, ecx
  000e4	0f 84 d5 02 00
	00		 je	 $LN64@ChangeItem

; 210  : 		CStringData* pData = pStringMgr->GetNilString();

  000ea	8b 01		 mov	 eax, DWORD PTR [ecx]
  000ec	ff 50 0c	 call	 DWORD PTR [eax+12]

; 211  : 		Attach( pData );

  000ef	83 c0 10	 add	 eax, 16			; 00000010H
  000f2	89 85 ec ef ff
	ff		 mov	 DWORD PTR _strItem$2[ebp], eax
; File C:\Program Files\Microsoft Visual Studio\2022\Professional\VC\Tools\MSVC\14.44.35207\atlmfc\include\cstringt.h

; 1052 : 		CThisSimpleString( StringTraits::GetDefaultManager() )

  000f8	c7 45 fc 00 00
	00 00		 mov	 DWORD PTR __$EHRec$[ebp+8], 0

; 2712 : 		if( (pv != NULL) && IS_INTRESOURCE( pv ) )

  000ff	85 f6		 test	 esi, esi
  00101	74 29		 je	 SHORT $LN71@ChangeItem
  00103	f7 c6 00 00 ff
	ff		 test	 esi, -65536		; ffff0000H
  00109	75 11		 jne	 SHORT $LN42@ChangeItem

; 2713 : 		{
; 2714 : 			UINT nID = LOWORD( reinterpret_cast< DWORD_PTR >( pv ) );

  0010b	0f b7 c6	 movzx	 eax, si

; 2715 : 			(nID);
; 2716 : #ifdef _ATL_USE_WINAPI_FAMILY_DESKTOP_APP
; 2717 : 			if( !LoadString( nID ) )

  0010e	8d 8d ec ef ff
	ff		 lea	 ecx, DWORD PTR _strItem$2[ebp]
  00114	50		 push	 eax
  00115	e8 00 00 00 00	 call	 ?LoadStringA@?$CStringT@DV?$StrTraitMFC@DV?$ChTraitsCRT@D@ATL@@@@@ATL@@QAEHI@Z ; ATL::CStringT<char,StrTraitMFC<char,ATL::ChTraitsCRT<char> > >::LoadStringA

; 1054 : 		if( !CheckImplicitLoad( pszSrc ) )

  0011a	eb 1f		 jmp	 SHORT $LN16@ChangeItem
$LN42@ChangeItem:
; File C:\Program Files\Microsoft Visual Studio\2022\Professional\VC\Tools\MSVC\14.44.35207\atlmfc\include\atlsimpstr.h

; 730  : 		return( int( strlen( psz ) ) );

  0011c	8b ce		 mov	 ecx, esi
  0011e	8d 51 01	 lea	 edx, DWORD PTR [ecx+1]
$LL72@ChangeItem:
  00121	8a 01		 mov	 al, BYTE PTR [ecx]
  00123	41		 inc	 ecx
  00124	84 c0		 test	 al, al
  00126	75 f9		 jne	 SHORT $LL72@ChangeItem
  00128	2b ca		 sub	 ecx, edx
  0012a	eb 02		 jmp	 SHORT $LN41@ChangeItem
$LN71@ChangeItem:

; 607  : 	}
; 608  : 	void SetString(
; 609  : 		_In_reads_opt_(nLength) PCXSTR pszSrc,
; 610  : 		_In_ int nLength)
; 611  : 	{
; 612  : 		if( nLength == 0 )
; 613  : 		{
; 614  : 			Empty();
; 615  : 		}
; 616  : 		else
; 617  : 		{
; 618  : 			// It is possible that pszSrc points to a location inside of our
; 619  : 			// buffer.  GetBuffer() might change m_pszData if (1) the buffer
; 620  : 			// is shared or (2) the buffer is too small to hold the new
; 621  : 			// string.  We detect this aliasing, and modify pszSrc to point
; 622  : 			// into the newly allocated buffer instead.
; 623  : 
; 624  : 			if(pszSrc == NULL)
; 625  : 				AtlThrow(E_INVALIDARG);
; 626  : 
; 627  : 			UINT nOldLength = GetLength();
; 628  : 			UINT_PTR nOffset = pszSrc-GetString();
; 629  : 			// If 0 <= nOffset <= nOldLength, then pszSrc points into our
; 630  : 			// buffer
; 631  : 
; 632  : 			PXSTR pszBuffer = GetBuffer( nLength );
; 633  : 			if( nOffset <= nOldLength )
; 634  : 			{
; 635  : 				CopyCharsOverlapped( pszBuffer, GetAllocLength(),
; 636  : 					pszBuffer+nOffset, nLength );
; 637  : 			}
; 638  : 			else
; 639  : 			{
; 640  : 				memcpy_s( pszBuffer, GetAllocLength() * sizeof( XCHAR ), pszSrc, nLength * sizeof( XCHAR ));
; 641  : 			}
; 642  : 			ReleaseBufferSetLength( nLength );
; 643  : 		}
; 644  : 	}
; 645  : 
; 646  : public:
; 647  : 	friend CSimpleStringT operator+(
; 648  : 		_In_ const CSimpleStringT& str1,
; 649  : 		_In_ const CSimpleStringT& str2)
; 650  : 	{
; 651  : 		CSimpleStringT s( str1.GetManager() );
; 652  : 
; 653  : 		Concatenate( s, str1, str1.GetLength(), str2, str2.GetLength() );
; 654  : 
; 655  : 		return( s );
; 656  : 	}
; 657  : 
; 658  : 	friend CSimpleStringT operator+(
; 659  : 		_In_ const CSimpleStringT& str1,
; 660  : 		_In_z_ PCXSTR psz2)
; 661  : 	{
; 662  : 		CSimpleStringT s( str1.GetManager() );
; 663  : 
; 664  : 		Concatenate( s, str1, str1.GetLength(), psz2, StringLength( psz2 ) );
; 665  : 
; 666  : 		return( s );
; 667  : 	}
; 668  : 
; 669  : 	friend CSimpleStringT operator+(
; 670  : 		_In_z_ PCXSTR psz1,
; 671  : 		_In_ const CSimpleStringT& str2)
; 672  : 	{
; 673  : 		CSimpleStringT s( str2.GetManager() );
; 674  : 
; 675  : 		Concatenate( s, psz1, StringLength( psz1 ), str2, str2.GetLength() );
; 676  : 
; 677  : 		return( s );
; 678  : 	}
; 679  : 
; 680  : 	_ATL_INSECURE_DEPRECATE("CSimpleStringT::CopyChars must be passed a buffer size")
; 681  : 	static void __cdecl CopyChars(
; 682  : 		_Out_writes_(nChars) XCHAR* pchDest,
; 683  : 		_In_reads_opt_(nChars) const XCHAR* pchSrc,
; 684  : 		_In_ int nChars) throw()
; 685  : 	{
; 686  : 		if (pchSrc != NULL)
; 687  : 		{
; 688  : 			#pragma warning (push)
; 689  : 			#pragma warning(disable : 4996)
; 690  : 			memcpy( pchDest, pchSrc, nChars*sizeof( XCHAR ) );
; 691  : 			#pragma warning (pop)
; 692  : 		}
; 693  : 	}
; 694  : 	static void __cdecl CopyChars(
; 695  : 		_Out_writes_to_(nDestLen,nChars) XCHAR* pchDest,
; 696  : 		_In_ size_t nDestLen,
; 697  : 		_In_reads_opt_(nChars) const XCHAR* pchSrc,
; 698  : 		_In_ int nChars) throw()
; 699  : 	{
; 700  : 		memcpy_s( pchDest, nDestLen*sizeof( XCHAR ),
; 701  : 			pchSrc, nChars*sizeof( XCHAR ) );
; 702  : 	}
; 703  : 
; 704  : 	_ATL_INSECURE_DEPRECATE("CSimpleStringT::CopyCharsOverlapped must be passed a buffer size")
; 705  : 	static void __cdecl CopyCharsOverlapped(
; 706  : 		_Out_writes_(nChars) XCHAR* pchDest,
; 707  : 		_In_reads_(nChars) const XCHAR* pchSrc,
; 708  : 		_In_ int nChars) throw()
; 709  : 	{
; 710  : 		#pragma warning (push)
; 711  : 		#pragma warning(disable : 4996)
; 712  : 		memmove( pchDest, pchSrc, nChars*sizeof( XCHAR ) );
; 713  : 		#pragma warning (pop)
; 714  : 	}
; 715  : 	static void __cdecl CopyCharsOverlapped(
; 716  : 		_Out_writes_to_(nDestLen, nDestLen) XCHAR* pchDest,
; 717  : 		_In_ size_t nDestLen,
; 718  : 		_In_reads_(nChars) const XCHAR* pchSrc,
; 719  : 		_In_ int nChars) throw()
; 720  : 	{
; 721  : 		memmove_s( pchDest, nDestLen*sizeof( XCHAR ),
; 722  : 			pchSrc, nChars*sizeof( XCHAR ) );
; 723  : 	}
; 724  : 	static int __cdecl StringLength(_In_opt_z_ const char* psz) throw()
; 725  : 	{
; 726  : 		if( psz == NULL )
; 727  : 		{
; 728  : 			return( 0 );

  0012c	33 c9		 xor	 ecx, ecx
$LN41@ChangeItem:

; 606  : 		SetString( pszSrc, StringLength( pszSrc ) );

  0012e	51		 push	 ecx
  0012f	56		 push	 esi
  00130	8d 8d ec ef ff
	ff		 lea	 ecx, DWORD PTR _strItem$2[ebp]
  00136	e8 00 00 00 00	 call	 ?SetString@?$CSimpleStringT@D$0A@@ATL@@QAEXPBDH@Z ; ATL::CSimpleStringT<char,0>::SetString
$LN16@ChangeItem:
; File C:\IAGOS\server\v18\Source\Source\_Database\DbItemUpdate.cpp

; 73   : 			strItem.Replace( "'", " " );

  0013b	68 00 00 00 00	 push	 OFFSET ??_C@_01CLKCMJKC@?5@
  00140	68 00 00 00 00	 push	 OFFSET ??_C@_01GEODFPGF@?8@
  00145	8d 8d ec ef ff
	ff		 lea	 ecx, DWORD PTR _strItem$2[ebp]
  0014b	c7 45 fc 01 00
	00 00		 mov	 DWORD PTR __$EHRec$[ebp+8], 1
  00152	e8 00 00 00 00	 call	 ?Replace@?$CStringT@DV?$StrTraitMFC@DV?$ChTraitsCRT@D@ATL@@@@@ATL@@QAEHPBD0@Z ; ATL::CStringT<char,StrTraitMFC<char,ATL::ChTraitsCRT<char> > >::Replace

; 74   : 			sprintf( szSQL, "ITEM_STR 'I1', %d,'%s','%s'," // 0

  00157	68 00 00 00 00	 push	 OFFSET ??_C@_00CNPNBAHC@@
  0015c	ff b7 34 02 00
	00		 push	 DWORD PTR [edi+564]
  00162	f3 0f 10 87 1c
	02 00 00	 movss	 xmm0, DWORD PTR [edi+540]
  0016a	6a 00		 push	 0
  0016c	6a 00		 push	 0
  0016e	ff b7 30 02 00
	00		 push	 DWORD PTR [edi+560]
  00174	0f 5a c0	 cvtps2pd xmm0, xmm0
  00177	6a 00		 push	 0
  00179	8b 87 24 01 00
	00		 mov	 eax, DWORD PTR [edi+292]
  0017f	ff b7 28 02 00
	00		 push	 DWORD PTR [edi+552]
  00185	83 ec 08	 sub	 esp, 8
  00188	f2 0f 11 04 24	 movsd	 QWORD PTR [esp], xmm0
  0018d	6a 00		 push	 0
  0018f	6a 00		 push	 0
  00191	ff b7 14 02 00
	00		 push	 DWORD PTR [edi+532]
  00197	f3 0f 10 87 30
	01 00 00	 movss	 xmm0, DWORD PTR [edi+304]
  0019f	ff b7 10 02 00
	00		 push	 DWORD PTR [edi+528]
  001a5	0f 5a c0	 cvtps2pd xmm0, xmm0
  001a8	ff b7 0c 02 00
	00		 push	 DWORD PTR [edi+524]
  001ae	ff b7 08 02 00
	00		 push	 DWORD PTR [edi+520]
  001b4	6a 00		 push	 0
  001b6	6a 00		 push	 0
  001b8	ff b7 04 02 00
	00		 push	 DWORD PTR [edi+516]
  001be	6a 00		 push	 0
  001c0	6a 00		 push	 0
  001c2	ff b7 00 02 00
	00		 push	 DWORD PTR [edi+512]
  001c8	ff b7 fc 01 00
	00		 push	 DWORD PTR [edi+508]
  001ce	ff b7 f8 01 00
	00		 push	 DWORD PTR [edi+504]
  001d4	ff b7 f4 01 00
	00		 push	 DWORD PTR [edi+500]
  001da	ff b7 f0 01 00
	00		 push	 DWORD PTR [edi+496]
  001e0	ff b7 ec 01 00
	00		 push	 DWORD PTR [edi+492]
  001e6	6a 00		 push	 0
  001e8	ff b7 e8 01 00
	00		 push	 DWORD PTR [edi+488]
  001ee	ff b7 d8 00 00
	00		 push	 DWORD PTR [edi+216]
  001f4	ff b7 cc 01 00
	00		 push	 DWORD PTR [edi+460]
  001fa	ff b7 c8 01 00
	00		 push	 DWORD PTR [edi+456]
  00200	ff b7 c4 01 00
	00		 push	 DWORD PTR [edi+452]
  00206	6a 00		 push	 0
  00208	ff b7 c0 01 00
	00		 push	 DWORD PTR [edi+448]
  0020e	ff b7 bc 01 00
	00		 push	 DWORD PTR [edi+444]
  00214	ff b7 9c 01 00
	00		 push	 DWORD PTR [edi+412]
  0021a	ff b7 98 01 00
	00		 push	 DWORD PTR [edi+408]
  00220	ff b7 94 01 00
	00		 push	 DWORD PTR [edi+404]
  00226	ff b7 80 01 00
	00		 push	 DWORD PTR [edi+384]
  0022c	6a 00		 push	 0
  0022e	ff b7 7c 01 00
	00		 push	 DWORD PTR [edi+380]
  00234	ff b7 78 01 00
	00		 push	 DWORD PTR [edi+376]
  0023a	6a 00		 push	 0
  0023c	6a 00		 push	 0
  0023e	6a 00		 push	 0
  00240	6a 00		 push	 0
  00242	6a 00		 push	 0
  00244	ff b7 5c 01 00
	00		 push	 DWORD PTR [edi+348]
  0024a	ff b7 58 01 00
	00		 push	 DWORD PTR [edi+344]
  00250	ff b7 50 01 00
	00		 push	 DWORD PTR [edi+336]
  00256	ff b7 4c 01 00
	00		 push	 DWORD PTR [edi+332]
  0025c	ff b7 44 01 00
	00		 push	 DWORD PTR [edi+324]
  00262	ff b7 40 01 00
	00		 push	 DWORD PTR [edi+320]
  00268	ff b7 3c 01 00
	00		 push	 DWORD PTR [edi+316]
  0026e	6a 00		 push	 0
  00270	ff b7 38 01 00
	00		 push	 DWORD PTR [edi+312]
  00276	ff b7 34 01 00
	00		 push	 DWORD PTR [edi+308]
  0027c	83 ec 08	 sub	 esp, 8
  0027f	f2 0f 11 04 24	 movsd	 QWORD PTR [esp], xmm0
  00284	6a 00		 push	 0
  00286	ff b7 2c 01 00
	00		 push	 DWORD PTR [edi+300]
  0028c	ff b7 28 01 00
	00		 push	 DWORD PTR [edi+296]
  00292	6a 00		 push	 0
  00294	6a 00		 push	 0
  00296	50		 push	 eax
  00297	50		 push	 eax
  00298	ff b7 20 01 00
	00		 push	 DWORD PTR [edi+288]
  0029e	ff b7 0c 01 00
	00		 push	 DWORD PTR [edi+268]
  002a4	ff b7 04 01 00
	00		 push	 DWORD PTR [edi+260]
  002aa	ff b7 00 01 00
	00		 push	 DWORD PTR [edi+256]
  002b0	ff b7 e8 00 00
	00		 push	 DWORD PTR [edi+232]
  002b6	8b b5 ec ef ff
	ff		 mov	 esi, DWORD PTR _strItem$2[ebp]
  002bc	8d 85 f0 ef ff
	ff		 lea	 eax, DWORD PTR _szSQL$[ebp]
  002c2	ff b7 e4 00 00
	00		 push	 DWORD PTR [edi+228]
  002c8	6a 00		 push	 0
  002ca	6a 00		 push	 0
  002cc	ff b7 94 00 00
	00		 push	 DWORD PTR [edi+148]
  002d2	ff b7 c0 00 00
	00		 push	 DWORD PTR [edi+192]
  002d8	6a 00		 push	 0
  002da	ff b7 bc 00 00
	00		 push	 DWORD PTR [edi+188]
  002e0	ff b7 a8 00 00
	00		 push	 DWORD PTR [edi+168]
  002e6	ff b7 9c 00 00
	00		 push	 DWORD PTR [edi+156]
  002ec	ff b7 98 00 00
	00		 push	 DWORD PTR [edi+152]
  002f2	6a 00		 push	 0
  002f4	6a 00		 push	 0
  002f6	ff b7 90 00 00
	00		 push	 DWORD PTR [edi+144]
  002fc	6a 00		 push	 0
  002fe	ff b7 8c 00 00
	00		 push	 DWORD PTR [edi+140]
  00304	6a 00		 push	 0
  00306	ff b7 88 00 00
	00		 push	 DWORD PTR [edi+136]
  0030c	ff b7 84 00 00
	00		 push	 DWORD PTR [edi+132]
  00312	ff b7 80 00 00
	00		 push	 DWORD PTR [edi+128]
  00318	ff 77 7c	 push	 DWORD PTR [edi+124]
  0031b	ff 77 78	 push	 DWORD PTR [edi+120]
  0031e	ff 77 74	 push	 DWORD PTR [edi+116]
  00321	ff 77 70	 push	 DWORD PTR [edi+112]
  00324	ff 77 6c	 push	 DWORD PTR [edi+108]
  00327	ff 77 68	 push	 DWORD PTR [edi+104]
  0032a	56		 push	 esi
  0032b	56		 push	 esi
  0032c	ff 37		 push	 DWORD PTR [edi]
  0032e	68 00 00 00 00	 push	 OFFSET ??_C@_0BEA@PPCHAOIE@ITEM_STR?5?8I1?8?0?5?$CFd?0?8?$CFs?8?0?8?$CFs?8?0?$CFd?0@
  00333	50		 push	 eax
  00334	e8 00 00 00 00	 call	 _sprintf

; 75   : 				"%d,%d,%d,%d,%d,"	// 1
; 76   : 				"%d,%d,%d,%d,%d,"	// 2
; 77   : 				"%d,%d,%d,%d,%d,"	// 3
; 78   : 				"%d,%d,%d,%d,%d,"	// 4
; 79   : 				"%d,%d,%d,%d,%d,"	// 5
; 80   : 				"%d,%d,%d,%d,%d,"	// 6
; 81   : 				"%d,%d,%d,%d,%d,"	// 7
; 82   : 				"%d,%d,%f,%d,%d,"	// 8
; 83   : 				"%d,%d,%d,%d,%d,"	// 9
; 84   : 				"%d,%d,%d,%d,%d,"	// 10
; 85   : 				"%d,%d,%d,%d,%d,"	// 11
; 86   : 				"%d,%d,%d,%d,%d,"	// 12
; 87   : 				"%d,%d,%d,%d,%d,"	// 13
; 88   : 				"%d,%d,%d,%d,%d,"	// 14
; 89   : 				"%d,%d,%d,%d,%d,"	// 15
; 90   : 				"%d,%d,%d,%d,%d,"	// 16
; 91   : 				"%d,%d,%d,%d,%d,"	// 17
; 92   : 				"%d,  %f,  %d,%d,%d,%d,%d,  %d,  '%s'",
; 93   : 
; 94   : 				pItemProp->dwID, strItem, strItem, // 0
; 95   : 				pItemProp->dwNum, pItemProp->dwPackMax, pItemProp->dwItemKind1, pItemProp->dwItemKind2, pItemProp->dwItemKind3, // 1
; 96   : 				pItemProp->dwItemJob, pItemProp->bPermanence, pItemProp->dwUseable, pItemProp->dwItemSex, 0,	// 2
; 97   : 				pItemProp->dwCost, 0, pItemProp->dwEndurance, 0, 0,		// 3
; 98   : 				pItemProp->nAbrasion, pItemProp->nMaxRepair,
; 99   : 				pItemProp->dwParts, pItemProp->dwItemLV, 0,		// 4
; 100  : 				pItemProp->dwItemRare, pItemProp->nLog, 0, 0, pItemProp->dwAbilityMin, // 5
; 101  : 				pItemProp->dwAbilityMax, pItemProp->nAddSkillMin, pItemProp->nAddSkillMax, pItemProp->dwWeaponType, pItemProp->tmContinuousPain, // 6
; 102  : 				//pItemProp->dwShellQuantity, pItemProp->dwRecoil, pItemProp->dwCaliber, pItemProp->dwBarrageRate, pItemProp->dwLoadingTime, 
; 103  : 				pItemProp->dwRecoil, pItemProp->dwRecoil, 0, 0, pItemProp->dwLoadingTime, // 7
; 104  : 				pItemProp->nAdjHitRate, 0, pItemProp->fAttackSpeed, pItemProp->dwDmgShift, pItemProp->dwAttackRange, // 8
; 105  : 				0, pItemProp->nProbability, pItemProp->dwDestParam1, pItemProp->dwDestParam2, pItemProp->nAdjParamVal1, // 9
; 106  : 				pItemProp->nAdjParamVal2, pItemProp->dwChgParamVal1, pItemProp->dwChgParamVal2, 0, 0, // 10
; 107  : 				0, 0, 0, pItemProp->dwReqMp, pItemProp->dwReqFp, // 11
; 108  : 				0, pItemProp->dwReqDisLV, pItemProp->dwSkillReadyType, pItemProp->dwSkillReady, pItemProp->_dwSkillRange, // 12
; 109  : 				pItemProp->dwCircleTime, pItemProp->dwSkillTime, 0, pItemProp->dwExeTarget, pItemProp->dwUseChance, // 13
; 110  : 				pItemProp->dwSpellRegion, pItemProp->dwSpellType, pItemProp->dwSkillType, 0, pItemProp->nItemResistElecricity, // 14
; 111  : 				pItemProp->nItemResistDark, pItemProp->nItemResistFire, pItemProp->nItemResistWind, pItemProp->nItemResistWater, pItemProp->nItemResistEarth, // 15
; 112  : 				0, 0, pItemProp->nEvildoing, 0, 0, // 16
; 113  : 				pItemProp->dwExpertLV, pItemProp->dwExpertMax, pItemProp->dwSubDefine, pItemProp->dwExp, 0, // 17
; 114  : 				0, 
; 115  : 				pItemProp->fFlightSpeed, 
; 116  : 				pItemProp->dwFlightLimit, 0, pItemProp->dwLimitLevel1, 0, 0, 
; 117  : 				pItemProp->nReflect, 
; 118  : 				""
; 119  : 				);
; 120  : 			if( FALSE == pQuery->Exec( szSQL ) )

  00339	8b 8d e8 ef ff
	ff		 mov	 ecx, DWORD PTR _pQuery$GSCopy$1$[ebp]
  0033f	8d 85 f0 ef ff
	ff		 lea	 eax, DWORD PTR _szSQL$[ebp]
  00345	81 c4 94 01 00
	00		 add	 esp, 404		; 00000194H
  0034b	50		 push	 eax
  0034c	e8 00 00 00 00	 call	 ?Exec@CQuery@@QAEHPBD@Z	; CQuery::Exec
  00351	85 c0		 test	 eax, eax
  00353	74 33		 je	 SHORT $LN65@ChangeItem

; 124  : 			}
; 125  : 		}	// if

  00355	c7 45 fc ff ff
	ff ff		 mov	 DWORD PTR __$EHRec$[ebp+8], -1
; File C:\Program Files\Microsoft Visual Studio\2022\Professional\VC\Tools\MSVC\14.44.35207\atlmfc\include\atlsimpstr.h

; 804  : 		return( reinterpret_cast< CStringData* >( m_pszData )-1 );

  0035c	83 c6 f0	 add	 esi, -16		; fffffff0H

; 92   : 		if( _InterlockedDecrement( &nRefs ) <= 0 )

  0035f	83 c8 ff	 or	 eax, -1
  00362	f0 0f c1 46 0c	 lock	  xadd	 DWORD PTR [esi+12], eax
  00367	48		 dec	 eax
  00368	85 c0		 test	 eax, eax
  0036a	7f 08		 jg	 SHORT $LN73@ChangeItem

; 93   : 		{
; 94   : 			pStringMgr->Free( this );

  0036c	8b 0e		 mov	 ecx, DWORD PTR [esi]
  0036e	56		 push	 esi
  0036f	8b 01		 mov	 eax, DWORD PTR [ecx]
  00371	ff 50 04	 call	 DWORD PTR [eax+4]
$LN73@ChangeItem:
; File C:\IAGOS\server\v18\Source\Source\_Database\DbItemUpdate.cpp

; 67   : 	for( int i = 0; i < prj.m_aPropItem.GetSize(); i++ )

  00374	8b 0d 4c 00 00
	00		 mov	 ecx, DWORD PTR ?prj@@3VCProject@@A+76
$LN2@ChangeItem:
  0037a	43		 inc	 ebx
  0037b	3b d9		 cmp	 ebx, ecx
  0037d	0f 8c 2c fd ff
	ff		 jl	 $LN76@ChangeItem
  00383	e9 fb fc ff ff	 jmp	 $LN67@ChangeItem
$LN65@ChangeItem:

; 121  : 			{
; 122  : 				WriteLog( szSQL );

  00388	8d 85 f0 ef ff
	ff		 lea	 eax, DWORD PTR _szSQL$[ebp]
  0038e	50		 push	 eax
  0038f	e8 00 00 00 00	 call	 ?WriteLog@@YAXPBDZZ	; WriteLog
  00394	83 c4 04	 add	 esp, 4

; 123  : 				return;

  00397	c7 45 fc ff ff
	ff ff		 mov	 DWORD PTR __$EHRec$[ebp+8], -1
; File C:\Program Files\Microsoft Visual Studio\2022\Professional\VC\Tools\MSVC\14.44.35207\atlmfc\include\atlsimpstr.h

; 804  : 		return( reinterpret_cast< CStringData* >( m_pszData )-1 );

  0039e	83 c6 f0	 add	 esi, -16		; fffffff0H

; 92   : 		if( _InterlockedDecrement( &nRefs ) <= 0 )

  003a1	83 c8 ff	 or	 eax, -1
  003a4	f0 0f c1 46 0c	 lock	  xadd	 DWORD PTR [esi+12], eax
  003a9	48		 dec	 eax
  003aa	85 c0		 test	 eax, eax
  003ac	0f 8f d1 fc ff
	ff		 jg	 $LN67@ChangeItem

; 93   : 		{
; 94   : 			pStringMgr->Free( this );

  003b2	8b 0e		 mov	 ecx, DWORD PTR [esi]
  003b4	56		 push	 esi
  003b5	8b 01		 mov	 eax, DWORD PTR [ecx]
  003b7	ff 50 04	 call	 DWORD PTR [eax+4]
  003ba	e9 c4 fc ff ff	 jmp	 $LN67@ChangeItem
$LN64@ChangeItem:

; 209  : 		ATLENSURE( pStringMgr != NULL );

  003bf	68 05 40 00 80	 push	 -2147467259		; 80004005H
  003c4	e8 00 00 00 00	 call	 ?AtlThrowImpl@ATL@@YGXJ@Z ; ATL::AtlThrowImpl
$LN75@ChangeItem:
  003c9	cc		 int	 3
_TEXT	ENDS
;	COMDAT text$x
text$x	SEGMENT
__unwindfunclet$?ChangeItemUpdate@CDbManager@@QAEXPAVCQuery@@@Z$1:
  00000	8d 8d ec ef ff
	ff		 lea	 ecx, DWORD PTR _strItem$2[ebp]
  00006	e9 00 00 00 00	 jmp	 ??1?$CSimpleStringT@D$0A@@ATL@@QAE@XZ ; ATL::CSimpleStringT<char,0>::~CSimpleStringT<char,0>
__unwindfunclet$?ChangeItemUpdate@CDbManager@@QAEXPAVCQuery@@@Z$0:
  0000b	8d 8d ec ef ff
	ff		 lea	 ecx, DWORD PTR _strItem$2[ebp]
  00011	e9 00 00 00 00	 jmp	 ??1?$CStringT@DV?$StrTraitMFC@DV?$ChTraitsCRT@D@ATL@@@@@ATL@@QAE@XZ ; ATL::CStringT<char,StrTraitMFC<char,ATL::ChTraitsCRT<char> > >::~CStringT<char,StrTraitMFC<char,ATL::ChTraitsCRT<char> > >
  00016	cc		 int	 3
  00017	cc		 int	 3
  00018	cc		 int	 3
  00019	cc		 int	 3
  0001a	cc		 int	 3
__ehhandler$?ChangeItemUpdate@CDbManager@@QAEXPAVCQuery@@@Z:
  0001b	90		 npad	 1
  0001c	90		 npad	 1
  0001d	8b 54 24 08	 mov	 edx, DWORD PTR [esp+8]
  00021	8d 42 0c	 lea	 eax, DWORD PTR [edx+12]
  00024	8b 8a e4 ef ff
	ff		 mov	 ecx, DWORD PTR [edx-4124]
  0002a	33 c8		 xor	 ecx, eax
  0002c	e8 00 00 00 00	 call	 @__security_check_cookie@4
  00031	8b 4a fc	 mov	 ecx, DWORD PTR [edx-4]
  00034	33 c8		 xor	 ecx, eax
  00036	e8 00 00 00 00	 call	 @__security_check_cookie@4
  0003b	b8 00 00 00 00	 mov	 eax, OFFSET __ehfuncinfo$?ChangeItemUpdate@CDbManager@@QAEXPAVCQuery@@@Z
  00040	e9 00 00 00 00	 jmp	 ___CxxFrameHandler3
text$x	ENDS
?ChangeItemUpdate@CDbManager@@QAEXPAVCQuery@@@Z ENDP	; CDbManager::ChangeItemUpdate
; Function compile flags: /Ogtp
; File C:\IAGOS\server\v18\Source\Source\_Database\DbItemUpdate.cpp
;	COMDAT ?ItemUpdateThread@CDbManager@@QAEXXZ
_TEXT	SEGMENT
$T2 = -148						; size = 4
_hHandle$1$ = -148					; size = 4
_s$3 = -144						; size = 128
__$ArrayPad$ = -16					; size = 4
__$EHRec$ = -12						; size = 12
?ItemUpdateThread@CDbManager@@QAEXXZ PROC		; CDbManager::ItemUpdateThread, COMDAT
; _this$ = ecx

; 20   : {

  00000	55		 push	 ebp
  00001	8b ec		 mov	 ebp, esp
  00003	6a ff		 push	 -1
  00005	68 00 00 00 00	 push	 __ehhandler$?ItemUpdateThread@CDbManager@@QAEXXZ
  0000a	64 a1 00 00 00
	00		 mov	 eax, DWORD PTR fs:0
  00010	50		 push	 eax
  00011	81 ec 88 00 00
	00		 sub	 esp, 136		; 00000088H
  00017	a1 00 00 00 00	 mov	 eax, DWORD PTR ___security_cookie
  0001c	33 c5		 xor	 eax, ebp
  0001e	89 45 f0	 mov	 DWORD PTR __$ArrayPad$[ebp], eax
  00021	53		 push	 ebx
  00022	56		 push	 esi
  00023	57		 push	 edi
  00024	50		 push	 eax
  00025	8d 45 f4	 lea	 eax, DWORD PTR __$EHRec$[ebp]
  00028	64 a3 00 00 00
	00		 mov	 DWORD PTR fs:0, eax
  0002e	8b f9		 mov	 edi, ecx

; 21   : 	if( prj.m_bItemUpdate == FALSE )

  00030	83 3d 54 7e 04
	00 00		 cmp	 DWORD PTR ?prj@@3VCProject@@A+294484, 0
  00037	0f 84 00 01 00
	00		 je	 $LN22@ItemUpdate

; 22   : 		return;
; 23   : 	
; 24   : 	CQuery* pQuery	= new CQuery;

  0003d	68 10 3d 00 00	 push	 15632			; 00003d10H
  00042	e8 00 00 00 00	 call	 ??2@YAPAXI@Z		; operator new
  00047	83 c4 04	 add	 esp, 4
  0004a	89 85 6c ff ff
	ff		 mov	 DWORD PTR $T2[ebp], eax
  00050	c7 45 fc 00 00
	00 00		 mov	 DWORD PTR __$EHRec$[ebp+8], 0
  00057	85 c0		 test	 eax, eax
  00059	74 0b		 je	 SHORT $LN10@ItemUpdate
  0005b	8b c8		 mov	 ecx, eax
  0005d	e8 00 00 00 00	 call	 ??0CQuery@@QAE@XZ	; CQuery::CQuery
  00062	8b f0		 mov	 esi, eax
  00064	eb 02		 jmp	 SHORT $LN11@ItemUpdate
$LN10@ItemUpdate:
  00066	33 f6		 xor	 esi, esi
$LN11@ItemUpdate:

; 25   : 	if( FALSE == pQuery->Connect( 3, DSN_NAME_ITEMUPDATE, DB_ADMIN_ID_ITEMUPDATE, DB_ADMIN_PASS_ITEMUPDATE ) )

  00068	8d 87 98 06 00
	00		 lea	 eax, DWORD PTR [edi+1688]
  0006e	c7 45 fc ff ff
	ff ff		 mov	 DWORD PTR __$EHRec$[ebp+8], -1
  00075	50		 push	 eax
  00076	68 00 00 00 00	 push	 OFFSET ?DB_ADMIN_ID_ITEMUPDATE@@3PADA ; DB_ADMIN_ID_ITEMUPDATE
  0007b	68 00 00 00 00	 push	 OFFSET ?DSN_NAME_ITEMUPDATE@@3PADA ; DSN_NAME_ITEMUPDATE
  00080	6a 03		 push	 3
  00082	8b ce		 mov	 ecx, esi
  00084	e8 00 00 00 00	 call	 ?Connect@CQuery@@QAEHHPAD0PBD@Z ; CQuery::Connect
  00089	85 c0		 test	 eax, eax
  0008b	75 2d		 jne	 SHORT $LN5@ItemUpdate

; 26   : 	{
; 27   : 		char s[128];
; 28   : 		sprintf( s, "%s, %d ItemUpdate Connect Failed", __FILE__, __LINE__ );

  0008d	6a 1c		 push	 28			; 0000001cH
  0008f	68 00 00 00 00	 push	 OFFSET ??_C@_0DN@EKFNMIIM@C?3?2IAGOS?2server?2v18?2Source?2Sour@
  00094	8d 85 70 ff ff
	ff		 lea	 eax, DWORD PTR _s$3[ebp]
  0009a	68 00 00 00 00	 push	 OFFSET ??_C@_0CB@PKKIPHED@?$CFs?0?5?$CFd?5ItemUpdate?5Connect?5Faile@
  0009f	50		 push	 eax
  000a0	e8 00 00 00 00	 call	 _sprintf
  000a5	83 c4 10	 add	 esp, 16			; 00000010H

; 29   : 		AfxMessageBox( s );

  000a8	8d 85 70 ff ff
	ff		 lea	 eax, DWORD PTR _s$3[ebp]
  000ae	6a 00		 push	 0
  000b0	6a 00		 push	 0
  000b2	50		 push	 eax
  000b3	e8 00 00 00 00	 call	 ?AfxMessageBox@@YGHPBDII@Z ; AfxMessageBox

; 30   : 		SAFE_DELETE( pQuery );
; 31   : 		return;

  000b8	eb 6a		 jmp	 SHORT $LN3@ItemUpdate
$LN5@ItemUpdate:

; 32   : 	}
; 33   : 
; 34   : 	HANDLE hHandle	= m_hItemUpdateCloseWorker;

  000ba	8b 87 4c 03 00
	00		 mov	 eax, DWORD PTR [edi+844]

; 35   : 	int nItemYes = 0;

  000c0	33 db		 xor	 ebx, ebx

; 36   : 
; 37   : 	while( WaitForSingleObject( hHandle, 5000 ) == WAIT_TIMEOUT )	// 10ĂĘ	= 1000 * 10 //1000 * 60 * 5

  000c2	68 88 13 00 00	 push	 5000			; 00001388H
  000c7	50		 push	 eax
  000c8	89 85 6c ff ff
	ff		 mov	 DWORD PTR _hHandle$1$[ebp], eax
  000ce	ff 15 00 00 00
	00		 call	 DWORD PTR __imp__WaitForSingleObject@8
  000d4	3d 02 01 00 00	 cmp	 eax, 258		; 00000102H
  000d9	75 49		 jne	 SHORT $LN3@ItemUpdate
  000db	0f 1f 44 00 00	 npad	 5
$LL2@ItemUpdate:

; 38   : 	{
; 39   : 		if( nItemYes < m_nItemUpdate )

  000e0	8b 87 50 03 00
	00		 mov	 eax, DWORD PTR [edi+848]
  000e6	3b d8		 cmp	 ebx, eax
  000e8	7d 22		 jge	 SHORT $LN7@ItemUpdate

; 40   : 		{
; 41   : 			nItemYes = m_nItemUpdate;
; 42   : 			ChangeItemUpdate( pQuery );	

  000ea	56		 push	 esi
  000eb	8b cf		 mov	 ecx, edi
  000ed	8b d8		 mov	 ebx, eax
  000ef	e8 00 00 00 00	 call	 ?ChangeItemUpdate@CDbManager@@QAEXPAVCQuery@@@Z ; CDbManager::ChangeItemUpdate

; 43   : 			ChangeSkillUpdate( pQuery );

  000f4	56		 push	 esi
  000f5	8b cf		 mov	 ecx, edi
  000f7	e8 00 00 00 00	 call	 ?ChangeSkillUpdate@CDbManager@@QAEXPAVCQuery@@@Z ; CDbManager::ChangeSkillUpdate

; 44   : 			ChangeMonsterUpdate( pQuery );

  000fc	56		 push	 esi
  000fd	8b cf		 mov	 ecx, edi
  000ff	e8 00 00 00 00	 call	 ?ChangeMonsterUpdate@CDbManager@@QAEXPAVCQuery@@@Z ; CDbManager::ChangeMonsterUpdate

; 45   : 			ChangeQuestUpdate( pQuery );	

  00104	56		 push	 esi
  00105	8b cf		 mov	 ecx, edi
  00107	e8 00 00 00 00	 call	 ?ChangeQuestUpdate@CDbManager@@QAEXPAVCQuery@@@Z ; CDbManager::ChangeQuestUpdate
$LN7@ItemUpdate:

; 36   : 
; 37   : 	while( WaitForSingleObject( hHandle, 5000 ) == WAIT_TIMEOUT )	// 10ĂĘ	= 1000 * 10 //1000 * 60 * 5

  0010c	68 88 13 00 00	 push	 5000			; 00001388H
  00111	ff b5 6c ff ff
	ff		 push	 DWORD PTR _hHandle$1$[ebp]
  00117	ff 15 00 00 00
	00		 call	 DWORD PTR __imp__WaitForSingleObject@8
  0011d	3d 02 01 00 00	 cmp	 eax, 258		; 00000102H
  00122	74 bc		 je	 SHORT $LL2@ItemUpdate
$LN3@ItemUpdate:

; 46   : //			ChangeJobNameUpdate( pQuery );
; 47   : //			ChangeSexUpdate( pQuery );			
; 48   : 			TRACE( "Item Update Complete GOOD !!!\n");
; 49   : 		}
; 50   : 		TRACE( "Worker ITEM_UPDATE\n");
; 51   : 	}
; 52   : 	SAFE_DELETE( pQuery );
; 53   : }

  00124	85 f6		 test	 esi, esi
  00126	74 15		 je	 SHORT $LN22@ItemUpdate
  00128	8b ce		 mov	 ecx, esi
  0012a	e8 00 00 00 00	 call	 ??1CQuery@@QAE@XZ	; CQuery::~CQuery
  0012f	68 10 3d 00 00	 push	 15632			; 00003d10H
  00134	56		 push	 esi
  00135	e8 00 00 00 00	 call	 ??3@YAXPAXI@Z		; operator delete
  0013a	83 c4 08	 add	 esp, 8
$LN22@ItemUpdate:
  0013d	8b 4d f4	 mov	 ecx, DWORD PTR __$EHRec$[ebp]
  00140	64 89 0d 00 00
	00 00		 mov	 DWORD PTR fs:0, ecx
  00147	59		 pop	 ecx
  00148	5f		 pop	 edi
  00149	5e		 pop	 esi
  0014a	5b		 pop	 ebx
  0014b	8b 4d f0	 mov	 ecx, DWORD PTR __$ArrayPad$[ebp]
  0014e	33 cd		 xor	 ecx, ebp
  00150	e8 00 00 00 00	 call	 @__security_check_cookie@4
  00155	8b e5		 mov	 esp, ebp
  00157	5d		 pop	 ebp
  00158	c3		 ret	 0
_TEXT	ENDS
;	COMDAT text$x
text$x	SEGMENT
__unwindfunclet$?ItemUpdateThread@CDbManager@@QAEXXZ$0:
  00000	68 10 3d 00 00	 push	 15632			; 00003d10H
  00005	8b 85 6c ff ff
	ff		 mov	 eax, DWORD PTR $T2[ebp]
  0000b	50		 push	 eax
  0000c	e8 00 00 00 00	 call	 ??3@YAXPAXI@Z		; operator delete
  00011	83 c4 08	 add	 esp, 8
  00014	c3		 ret	 0
  00015	cc		 int	 3
  00016	cc		 int	 3
  00017	cc		 int	 3
  00018	cc		 int	 3
  00019	cc		 int	 3
__ehhandler$?ItemUpdateThread@CDbManager@@QAEXXZ:
  0001a	90		 npad	 1
  0001b	90		 npad	 1
  0001c	8b 54 24 08	 mov	 edx, DWORD PTR [esp+8]
  00020	8d 42 0c	 lea	 eax, DWORD PTR [edx+12]
  00023	8b 8a 68 ff ff
	ff		 mov	 ecx, DWORD PTR [edx-152]
  00029	33 c8		 xor	 ecx, eax
  0002b	e8 00 00 00 00	 call	 @__security_check_cookie@4
  00030	8b 4a fc	 mov	 ecx, DWORD PTR [edx-4]
  00033	33 c8		 xor	 ecx, eax
  00035	e8 00 00 00 00	 call	 @__security_check_cookie@4
  0003a	b8 00 00 00 00	 mov	 eax, OFFSET __ehfuncinfo$?ItemUpdateThread@CDbManager@@QAEXXZ
  0003f	e9 00 00 00 00	 jmp	 ___CxxFrameHandler3
text$x	ENDS
?ItemUpdateThread@CDbManager@@QAEXXZ ENDP		; CDbManager::ItemUpdateThread
; Function compile flags: /Ogtp
; File C:\Program Files\Microsoft Visual Studio\2022\Professional\VC\Tools\MSVC\14.44.35207\atlmfc\include\cstringt.h
; File C:\Program Files\Microsoft Visual Studio\2022\Professional\VC\Tools\MSVC\14.44.35207\atlmfc\include\afxstr.h
; File C:\Program Files\Microsoft Visual Studio\2022\Professional\VC\Tools\MSVC\14.44.35207\atlmfc\include\cstringt.h
; File C:\Program Files\Microsoft Visual Studio\2022\Professional\VC\Tools\MSVC\14.44.35207\atlmfc\include\afxstr.h
; File C:\Program Files\Microsoft Visual Studio\2022\Professional\VC\Tools\MSVC\14.44.35207\atlmfc\include\cstringt.h
; File C:\Program Files\Microsoft Visual Studio\2022\Professional\VC\Tools\MSVC\14.44.35207\atlmfc\include\atlcore.h
; File C:\Program Files\Microsoft Visual Studio\2022\Professional\VC\Tools\MSVC\14.44.35207\atlmfc\include\cstringt.h
; File C:\Program Files\Microsoft Visual Studio\2022\Professional\VC\Tools\MSVC\14.44.35207\atlmfc\include\atlsimpstr.h
; File C:\Program Files\Microsoft Visual Studio\2022\Professional\VC\Tools\MSVC\14.44.35207\atlmfc\include\cstringt.h
; File C:\Program Files\Microsoft Visual Studio\2022\Professional\VC\Tools\MSVC\14.44.35207\atlmfc\include\atlsimpstr.h
; File C:\Program Files\Microsoft Visual Studio\2022\Professional\VC\Tools\MSVC\14.44.35207\atlmfc\include\cstringt.h
; File C:\Program Files\Microsoft Visual Studio\2022\Professional\VC\Tools\MSVC\14.44.35207\atlmfc\include\atlsimpstr.h
; File C:\Program Files\Microsoft Visual Studio\2022\Professional\VC\Tools\MSVC\14.44.35207\atlmfc\include\cstringt.h
; File C:\Program Files\Microsoft Visual Studio\2022\Professional\VC\Tools\MSVC\14.44.35207\atlmfc\include\atlsimpstr.h
; File C:\Program Files\Microsoft Visual Studio\2022\Professional\VC\Tools\MSVC\14.44.35207\atlmfc\include\cstringt.h
;	COMDAT ?LoadStringA@?$CStringT@DV?$StrTraitMFC@DV?$ChTraitsCRT@D@ATL@@@@@ATL@@QAEHI@Z
_TEXT	SEGMENT
_this$1$ = -4						; size = 4
_nID$ = 8						; size = 4
_hResource$1$ = 8					; size = 4
?LoadStringA@?$CStringT@DV?$StrTraitMFC@DV?$ChTraitsCRT@D@ATL@@@@@ATL@@QAEHI@Z PROC ; ATL::CStringT<char,StrTraitMFC<char,ATL::ChTraitsCRT<char> > >::LoadStringA, COMDAT
; _this$ = ecx

; 2340 : 	{

  00000	55		 push	 ebp
  00001	8b ec		 mov	 ebp, esp
  00003	51		 push	 ecx
  00004	53		 push	 ebx
  00005	57		 push	 edi
; File C:\Program Files\Microsoft Visual Studio\2022\Professional\VC\Tools\MSVC\14.44.35207\atlmfc\include\afxstr.h

; 51   : 		return( AfxFindStringResourceHandle( nID ) );

  00006	8b 7d 08	 mov	 edi, DWORD PTR _nID$[ebp]
  00009	57		 push	 edi
; File C:\Program Files\Microsoft Visual Studio\2022\Professional\VC\Tools\MSVC\14.44.35207\atlmfc\include\cstringt.h

; 2340 : 	{

  0000a	89 4d fc	 mov	 DWORD PTR _this$1$[ebp], ecx
; File C:\Program Files\Microsoft Visual Studio\2022\Professional\VC\Tools\MSVC\14.44.35207\atlmfc\include\afxstr.h

; 51   : 		return( AfxFindStringResourceHandle( nID ) );

  0000d	e8 00 00 00 00	 call	 ?AfxFindStringResourceHandle@@YGPAUHINSTANCE__@@I@Z ; AfxFindStringResourceHandle
; File C:\Program Files\Microsoft Visual Studio\2022\Professional\VC\Tools\MSVC\14.44.35207\atlmfc\include\cstringt.h

; 2341 : 		HINSTANCE hInstance = StringTraits::FindStringResourceInstance( nID );

  00012	8b d8		 mov	 ebx, eax

; 2342 : 		if( hInstance == NULL )

  00014	85 db		 test	 ebx, ebx
  00016	75 08		 jne	 SHORT $LN2@LoadString

; 2348 : 	}

  00018	5f		 pop	 edi
  00019	5b		 pop	 ebx
  0001a	8b e5		 mov	 esp, ebp
  0001c	5d		 pop	 ebp
  0001d	c2 04 00	 ret	 4
$LN2@LoadString:
; File C:\Program Files\Microsoft Visual Studio\2022\Professional\VC\Tools\MSVC\14.44.35207\atlmfc\include\atlcore.h

; 380  : 	hResource = ::FindResourceW(hInstance, MAKEINTRESOURCEW( (((id>>4)+1) & static_cast<WORD>(~0)) ), (LPWSTR) RT_STRING);

  00020	8b c7		 mov	 eax, edi
  00022	c1 e8 04	 shr	 eax, 4
  00025	56		 push	 esi
  00026	40		 inc	 eax
  00027	6a 06		 push	 6
  00029	0f b7 c0	 movzx	 eax, ax
  0002c	50		 push	 eax
  0002d	53		 push	 ebx
  0002e	ff 15 00 00 00
	00		 call	 DWORD PTR __imp__FindResourceW@12
  00034	89 45 08	 mov	 DWORD PTR _hResource$1$[ebp], eax

; 381  : 	if( hResource == NULL )

  00037	85 c0		 test	 eax, eax
  00039	0f 84 cc 00 00
	00		 je	 $LN51@LoadString

; 338  : 	hGlobal = ::LoadResource( hInstance, hResource );

  0003f	50		 push	 eax
  00040	53		 push	 ebx
  00041	ff 15 00 00 00
	00		 call	 DWORD PTR __imp__LoadResource@8

; 339  : 	if( hGlobal == NULL )

  00047	85 c0		 test	 eax, eax
  00049	75 04		 jne	 SHORT $LN15@LoadString

; 340  : 	{
; 341  : 		return( NULL );

  0004b	33 f6		 xor	 esi, esi
  0004d	eb 43		 jmp	 SHORT $LN18@LoadString
$LN15@LoadString:

; 342  : 	}
; 343  : 
; 344  : 	pImage = (const ATLSTRINGRESOURCEIMAGE*)::LockResource( hGlobal );

  0004f	50		 push	 eax
  00050	ff 15 00 00 00
	00		 call	 DWORD PTR __imp__LockResource@4
  00056	8b f0		 mov	 esi, eax

; 345  : 	if( pImage == NULL )

  00058	85 f6		 test	 esi, esi
  0005a	74 36		 je	 SHORT $LN18@LoadString
$LN16@LoadString:

; 346  : 	{
; 347  : 		return( NULL );
; 348  : 	}
; 349  : 
; 350  : 	nResourceSize = ::SizeofResource( hInstance, hResource );

  0005c	ff 75 08	 push	 DWORD PTR _hResource$1$[ebp]
  0005f	53		 push	 ebx
  00060	ff 15 00 00 00
	00		 call	 DWORD PTR __imp__SizeofResource@8

; 351  : 	pImageEnd = (const ATLSTRINGRESOURCEIMAGE*)(LPBYTE( pImage )+nResourceSize);

  00066	8d 0c 06	 lea	 ecx, DWORD PTR [esi+eax]

; 352  : 	iIndex = id&0x000f;

  00069	83 e7 0f	 and	 edi, 15			; 0000000fH

; 353  : 
; 354  : 	while( (iIndex > 0) && (pImage < pImageEnd) )

  0006c	76 14		 jbe	 SHORT $LN14@LoadString
  0006e	66 90		 npad	 2
$LL13@LoadString:
  00070	3b f1		 cmp	 esi, ecx
  00072	73 12		 jae	 SHORT $LN50@LoadString

; 355  : 	{
; 356  : 		pImage = (const ATLSTRINGRESOURCEIMAGE*)(LPBYTE( pImage )+(sizeof( ATLSTRINGRESOURCEIMAGE )+(pImage->nLength*sizeof( WCHAR ))));

  00074	0f b7 06	 movzx	 eax, WORD PTR [esi]
  00077	8d 34 46	 lea	 esi, DWORD PTR [esi+eax*2]
  0007a	83 c6 02	 add	 esi, 2

; 357  : 		iIndex--;

  0007d	83 ef 01	 sub	 edi, 1
  00080	75 ee		 jne	 SHORT $LL13@LoadString
$LN14@LoadString:

; 358  : 	}
; 359  : 	if( pImage >= pImageEnd )

  00082	3b f1		 cmp	 esi, ecx
  00084	72 04		 jb	 SHORT $LN17@LoadString
$LN50@LoadString:

; 360  : 	{
; 361  : 		return( NULL );

  00086	33 f6		 xor	 esi, esi
  00088	eb 08		 jmp	 SHORT $LN18@LoadString
$LN17@LoadString:

; 362  : 	}
; 363  : 	if( pImage->nLength == 0 )

  0008a	33 c0		 xor	 eax, eax
  0008c	66 39 06	 cmp	 WORD PTR [esi], ax
  0008f	0f 44 f0	 cmove	 esi, eax
$LN18@LoadString:
; File C:\Program Files\Microsoft Visual Studio\2022\Professional\VC\Tools\MSVC\14.44.35207\atlmfc\include\cstringt.h

; 2356 : 		if( pImage == NULL )

  00092	85 f6		 test	 esi, esi
  00094	74 75		 je	 SHORT $LN51@LoadString

; 2359 : 		}
; 2360 : 
; 2361 : 		int nLength = StringTraits::GetBaseTypeLength( pImage->achString, pImage->nLength );

  00096	0f b7 06	 movzx	 eax, WORD PTR [esi]
  00099	8d 4e 02	 lea	 ecx, DWORD PTR [esi+2]

; 350  : 		return ::WideCharToMultiByte( _AtlGetConversionACP(), 0, pszSource, nLength, NULL, 0, NULL, NULL );

  0009c	6a 00		 push	 0
  0009e	6a 00		 push	 0
  000a0	6a 00		 push	 0
  000a2	6a 00		 push	 0
  000a4	50		 push	 eax
  000a5	51		 push	 ecx
  000a6	6a 00		 push	 0
  000a8	6a 03		 push	 3
  000aa	ff 15 00 00 00
	00		 call	 DWORD PTR __imp__WideCharToMultiByte@32

; 2361 : 		int nLength = StringTraits::GetBaseTypeLength( pImage->achString, pImage->nLength );

  000b0	8b f8		 mov	 edi, eax
; File C:\Program Files\Microsoft Visual Studio\2022\Professional\VC\Tools\MSVC\14.44.35207\atlmfc\include\atlsimpstr.h

; 808  : 		if (nLength < 0)

  000b2	85 ff		 test	 edi, edi
  000b4	78 60		 js	 SHORT $LN38@LoadString

; 804  : 		return( reinterpret_cast< CStringData* >( m_pszData )-1 );

  000b6	8b 5d fc	 mov	 ebx, DWORD PTR _this$1$[ebp]

; 812  : 		int nShared = 1-pOldData->nRefs;  // nShared < 0 means true, >= 0 means false

  000b9	ba 01 00 00 00	 mov	 edx, 1

; 804  : 		return( reinterpret_cast< CStringData* >( m_pszData )-1 );

  000be	8b 0b		 mov	 ecx, DWORD PTR [ebx]

; 812  : 		int nShared = 1-pOldData->nRefs;  // nShared < 0 means true, >= 0 means false

  000c0	2b 51 fc	 sub	 edx, DWORD PTR [ecx-4]

; 813  : 		int nTooShort = pOldData->nAllocLength-nLength;  // nTooShort < 0 means true, >= 0 means false

  000c3	8b 49 f8	 mov	 ecx, DWORD PTR [ecx-8]
  000c6	2b cf		 sub	 ecx, edi

; 814  : 		if( (nShared|nTooShort) < 0 )  // If either sign bit is set (i.e. either is less than zero), we need to copy data

  000c8	0b d1		 or	 edx, ecx
  000ca	7d 08		 jge	 SHORT $LN26@LoadString

; 815  : 		{
; 816  : 			PrepareWrite2( nLength );

  000cc	57		 push	 edi
  000cd	8b cb		 mov	 ecx, ebx
  000cf	e8 00 00 00 00	 call	 ?PrepareWrite2@?$CSimpleStringT@D$0A@@ATL@@AAEXH@Z ; ATL::CSimpleStringT<char,0>::PrepareWrite2
$LN26@LoadString:
; File C:\Program Files\Microsoft Visual Studio\2022\Professional\VC\Tools\MSVC\14.44.35207\atlmfc\include\cstringt.h

; 2363 : 		StringTraits::ConvertToBaseType( pszBuffer, nLength, pImage->achString, pImage->nLength );

  000d4	0f b7 06	 movzx	 eax, WORD PTR [esi]

; 372  : 		::WideCharToMultiByte( _AtlGetConversionACP(), 0, pszSrc, nSrcLength, pszDest, nDestLength, NULL, NULL );

  000d7	6a 00		 push	 0
  000d9	6a 00		 push	 0
  000db	57		 push	 edi
  000dc	ff 33		 push	 DWORD PTR [ebx]
  000de	50		 push	 eax
  000df	8d 46 02	 lea	 eax, DWORD PTR [esi+2]
  000e2	50		 push	 eax
  000e3	6a 00		 push	 0
  000e5	6a 03		 push	 3
  000e7	ff 15 00 00 00
	00		 call	 DWORD PTR __imp__WideCharToMultiByte@32
; File C:\Program Files\Microsoft Visual Studio\2022\Professional\VC\Tools\MSVC\14.44.35207\atlmfc\include\atlsimpstr.h

; 875  : 		if( nLength < 0 || nLength > GetData()->nAllocLength)

  000ed	8b 03		 mov	 eax, DWORD PTR [ebx]
  000ef	3b 78 f8	 cmp	 edi, DWORD PTR [eax-8]
  000f2	7f 22		 jg	 SHORT $LN38@LoadString

; 877  : 
; 878  : 		GetData()->nDataLength = nLength;

  000f4	89 78 f4	 mov	 DWORD PTR [eax-12], edi

; 879  : 		m_pszData[nLength] = 0;

  000f7	8b 03		 mov	 eax, DWORD PTR [ebx]
; File C:\Program Files\Microsoft Visual Studio\2022\Professional\VC\Tools\MSVC\14.44.35207\atlmfc\include\cstringt.h

; 2347 : 		return( LoadString( hInstance, nID ) );

  000f9	5e		 pop	 esi
; File C:\Program Files\Microsoft Visual Studio\2022\Professional\VC\Tools\MSVC\14.44.35207\atlmfc\include\atlsimpstr.h

; 879  : 		m_pszData[nLength] = 0;

  000fa	c6 04 07 00	 mov	 BYTE PTR [edi+eax], 0
; File C:\Program Files\Microsoft Visual Studio\2022\Professional\VC\Tools\MSVC\14.44.35207\atlmfc\include\cstringt.h

; 2366 : 		return( TRUE );

  000fe	b8 01 00 00 00	 mov	 eax, 1
  00103	5f		 pop	 edi

; 2348 : 	}

  00104	5b		 pop	 ebx
  00105	8b e5		 mov	 esp, ebp
  00107	5d		 pop	 ebp
  00108	c2 04 00	 ret	 4
$LN51@LoadString:

; 2347 : 		return( LoadString( hInstance, nID ) );

  0010b	5e		 pop	 esi
  0010c	5f		 pop	 edi

; 2358 : 			return( FALSE );

  0010d	33 c0		 xor	 eax, eax

; 2348 : 	}

  0010f	5b		 pop	 ebx
  00110	8b e5		 mov	 esp, ebp
  00112	5d		 pop	 ebp
  00113	c2 04 00	 ret	 4
$LN38@LoadString:
; File C:\Program Files\Microsoft Visual Studio\2022\Professional\VC\Tools\MSVC\14.44.35207\atlmfc\include\atlsimpstr.h

; 876  : 			AtlThrow(E_INVALIDARG);

  00116	68 57 00 07 80	 push	 -2147024809		; 80070057H
  0011b	e8 00 00 00 00	 call	 ?AtlThrowImpl@ATL@@YGXJ@Z ; ATL::AtlThrowImpl
$LN63@LoadString:
  00120	cc		 int	 3
?LoadStringA@?$CStringT@DV?$StrTraitMFC@DV?$ChTraitsCRT@D@ATL@@@@@ATL@@QAEHI@Z ENDP ; ATL::CStringT<char,StrTraitMFC<char,ATL::ChTraitsCRT<char> > >::LoadStringA
_TEXT	ENDS
; Function compile flags: /Ogtp
; File C:\Program Files\Microsoft Visual Studio\2022\Professional\VC\Tools\MSVC\14.44.35207\atlmfc\include\cstringt.h
; File C:\Program Files\Microsoft Visual Studio\2022\Professional\VC\Tools\MSVC\14.44.35207\atlmfc\include\atlsimpstr.h
; File C:\Program Files\Microsoft Visual Studio\2022\Professional\VC\Tools\MSVC\14.44.35207\atlmfc\include\cstringt.h
; File C:\Program Files\Microsoft Visual Studio\2022\Professional\VC\Tools\MSVC\14.44.35207\atlmfc\include\atlsimpstr.h
; File C:\Program Files\Microsoft Visual Studio\2022\Professional\VC\Tools\MSVC\14.44.35207\atlmfc\include\cstringt.h
; File C:\Program Files\Microsoft Visual Studio\2022\Professional\VC\Tools\MSVC\14.44.35207\atlmfc\include\atlsimpstr.h
; File C:\Program Files\Microsoft Visual Studio\2022\Professional\VC\Tools\MSVC\14.44.35207\atlmfc\include\cstringt.h
; File C:\Program Files (x86)\Windows Kits\10\Include\10.0.26100.0\ucrt\corecrt_memcpy_s.h
; File C:\Program Files\Microsoft Visual Studio\2022\Professional\VC\Tools\MSVC\14.44.35207\atlmfc\include\atlchecked.h
; File C:\Program Files (x86)\Windows Kits\10\Include\10.0.26100.0\ucrt\corecrt_memcpy_s.h
; File C:\Program Files\Microsoft Visual Studio\2022\Professional\VC\Tools\MSVC\14.44.35207\atlmfc\include\atlchecked.h
; File C:\Program Files (x86)\Windows Kits\10\Include\10.0.26100.0\ucrt\corecrt_memcpy_s.h
; File C:\Program Files\Microsoft Visual Studio\2022\Professional\VC\Tools\MSVC\14.44.35207\atlmfc\include\atlchecked.h
; File C:\Program Files\Microsoft Visual Studio\2022\Professional\VC\Tools\MSVC\14.44.35207\atlmfc\include\cstringt.h
; File C:\Program Files\Microsoft Visual Studio\2022\Professional\VC\Tools\MSVC\14.44.35207\atlmfc\include\atlsimpstr.h
; File C:\Program Files\Microsoft Visual Studio\2022\Professional\VC\Tools\MSVC\14.44.35207\atlmfc\include\cstringt.h
; File C:\Program Files\Microsoft Visual Studio\2022\Professional\VC\Tools\MSVC\14.44.35207\atlmfc\include\atlsimpstr.h
; File C:\Program Files\Microsoft Visual Studio\2022\Professional\VC\Tools\MSVC\14.44.35207\atlmfc\include\cstringt.h
; File C:\Program Files\Microsoft Visual Studio\2022\Professional\VC\Tools\MSVC\14.44.35207\atlmfc\include\atlsimpstr.h
; File C:\Program Files\Microsoft Visual Studio\2022\Professional\VC\Tools\MSVC\14.44.35207\atlmfc\include\cstringt.h
;	COMDAT ?Replace@?$CStringT@DV?$StrTraitMFC@DV?$ChTraitsCRT@D@ATL@@@@@ATL@@QAEHPBD0@Z
_TEXT	SEGMENT
_pszEnd$1$ = -32					; size = 4
__S1$1$ = -28						; size = 4
_pszBuffer$1$ = -24					; size = 4
$T1 = -20						; size = 4
_nNewLength$1$ = -16					; size = 4
$T2 = -16						; size = 4
_pszEnd$1$ = -12					; size = 4
_nOldLength$1$ = -12					; size = 4
_nCount$1$ = -8						; size = 4
_this$1$ = -4						; size = 4
_pszOld$ = 8						; size = 4
_pszNew$ = 12						; size = 4
?Replace@?$CStringT@DV?$StrTraitMFC@DV?$ChTraitsCRT@D@ATL@@@@@ATL@@QAEHPBD0@Z PROC ; ATL::CStringT<char,StrTraitMFC<char,ATL::ChTraitsCRT<char> > >::Replace, COMDAT
; _this$ = ecx

; 1609 : 	{

  00000	55		 push	 ebp
  00001	8b ec		 mov	 ebp, esp
  00003	83 ec 20	 sub	 esp, 32			; 00000020H
  00006	56		 push	 esi
  00007	8b f1		 mov	 esi, ecx

; 495  : 		return (psz != NULL) ? int( strlen( psz ) ) : 0;

  00009	8b 4d 08	 mov	 ecx, DWORD PTR _pszOld$[ebp]

; 1609 : 	{

  0000c	89 75 fc	 mov	 DWORD PTR _this$1$[ebp], esi
  0000f	57		 push	 edi

; 495  : 		return (psz != NULL) ? int( strlen( psz ) ) : 0;

  00010	85 c9		 test	 ecx, ecx
  00012	0f 84 3c 02 00
	00		 je	 $LN98@Replace
  00018	8b f9		 mov	 edi, ecx
  0001a	8d 57 01	 lea	 edx, DWORD PTR [edi+1]
  0001d	0f 1f 00	 npad	 3
$LL100@Replace:
  00020	8a 07		 mov	 al, BYTE PTR [edi]
  00022	47		 inc	 edi
  00023	84 c0		 test	 al, al
  00025	75 f9		 jne	 SHORT $LL100@Replace
  00027	2b fa		 sub	 edi, edx
  00029	89 7d ec	 mov	 DWORD PTR $T1[ebp], edi

; 1610 : 		// can't have empty or NULL lpszOld
; 1611 : 
; 1612 : 		// nSourceLen is in XCHARs
; 1613 : 		int nSourceLen = StringTraits::SafeStringLen( pszOld );
; 1614 : 		if( nSourceLen == 0 )

  0002c	0f 84 22 02 00
	00		 je	 $LN98@Replace
  00032	53		 push	 ebx

; 495  : 		return (psz != NULL) ? int( strlen( psz ) ) : 0;

  00033	8b 5d 0c	 mov	 ebx, DWORD PTR _pszNew$[ebp]
  00036	85 db		 test	 ebx, ebx
  00038	74 14		 je	 SHORT $LN19@Replace
  0003a	8d 4b 01	 lea	 ecx, DWORD PTR [ebx+1]
  0003d	0f 1f 00	 npad	 3
$LL101@Replace:
  00040	8a 03		 mov	 al, BYTE PTR [ebx]
  00042	43		 inc	 ebx
  00043	84 c0		 test	 al, al
  00045	75 f9		 jne	 SHORT $LL101@Replace
  00047	2b d9		 sub	 ebx, ecx
  00049	8b 4d 08	 mov	 ecx, DWORD PTR _pszOld$[ebp]
  0004c	eb 02		 jmp	 SHORT $LN135@Replace
$LN19@Replace:
  0004e	33 db		 xor	 ebx, ebx
$LN135@Replace:

; 1616 : 		// nReplacementLen is in XCHARs
; 1617 : 		int nReplacementLen = StringTraits::SafeStringLen( pszNew );
; 1618 : 
; 1619 : 		// loop once to figure out the size of the result string
; 1620 : 		int nCount = 0;
; 1621 : 		{
; 1622 : 			PCXSTR pszStart = this->GetString();

  00050	8b 36		 mov	 esi, DWORD PTR [esi]
  00052	89 5d f0	 mov	 DWORD PTR $T2[ebp], ebx
  00055	c7 45 f8 00 00
	00 00		 mov	 DWORD PTR _nCount$1$[ebp], 0

; 1623 : 			PCXSTR pszEnd = pszStart + this->GetLength();

  0005c	8b 46 f4	 mov	 eax, DWORD PTR [esi-12]
  0005f	03 c6		 add	 eax, esi
  00061	89 45 f4	 mov	 DWORD PTR _pszEnd$1$[ebp], eax

; 1624 : 			while( pszStart < pszEnd )

  00064	3b f0		 cmp	 esi, eax
  00066	0f 83 db 01 00
	00		 jae	 $LN105@Replace
  0006c	8b d8		 mov	 ebx, eax
  0006e	eb 03		 jmp	 SHORT $LN2@Replace
$LL104@Replace:
  00070	8b 4d 08	 mov	 ecx, DWORD PTR _pszOld$[ebp]
$LN2@Replace:

; 212  : 		return reinterpret_cast< LPCSTR >( _mbsstr( reinterpret_cast< const unsigned char* >( pszBlock ),

  00073	51		 push	 ecx
  00074	56		 push	 esi
  00075	e8 00 00 00 00	 call	 __mbsstr
  0007a	83 c4 08	 add	 esp, 8

; 1625 : 			{
; 1626 : 				PCXSTR pszTarget;
; 1627 : 				while( (pszTarget = StringTraits::StringFindString( pszStart, pszOld ) ) != NULL)

  0007d	85 c0		 test	 eax, eax
  0007f	74 1d		 je	 SHORT $LN5@Replace
  00081	8b 5d f8	 mov	 ebx, DWORD PTR _nCount$1$[ebp]
$LL4@Replace:

; 212  : 		return reinterpret_cast< LPCSTR >( _mbsstr( reinterpret_cast< const unsigned char* >( pszBlock ),

  00084	ff 75 08	 push	 DWORD PTR _pszOld$[ebp]

; 1628 : 				{
; 1629 : 					nCount++;
; 1630 : 					pszStart = pszTarget+nSourceLen;

  00087	8d 34 07	 lea	 esi, DWORD PTR [edi+eax]
  0008a	43		 inc	 ebx

; 212  : 		return reinterpret_cast< LPCSTR >( _mbsstr( reinterpret_cast< const unsigned char* >( pszBlock ),

  0008b	56		 push	 esi
  0008c	e8 00 00 00 00	 call	 __mbsstr
  00091	83 c4 08	 add	 esp, 8

; 1625 : 			{
; 1626 : 				PCXSTR pszTarget;
; 1627 : 				while( (pszTarget = StringTraits::StringFindString( pszStart, pszOld ) ) != NULL)

  00094	85 c0		 test	 eax, eax
  00096	75 ec		 jne	 SHORT $LL4@Replace
  00098	89 5d f8	 mov	 DWORD PTR _nCount$1$[ebp], ebx
  0009b	8b 5d f4	 mov	 ebx, DWORD PTR _pszEnd$1$[ebp]
$LN5@Replace:

; 495  : 		return (psz != NULL) ? int( strlen( psz ) ) : 0;

  0009e	85 f6		 test	 esi, esi
  000a0	74 10		 je	 SHORT $LN29@Replace
  000a2	8b c6		 mov	 eax, esi
  000a4	8d 50 01	 lea	 edx, DWORD PTR [eax+1]
$LL102@Replace:
  000a7	8a 08		 mov	 cl, BYTE PTR [eax]
  000a9	40		 inc	 eax
  000aa	84 c9		 test	 cl, cl
  000ac	75 f9		 jne	 SHORT $LL102@Replace
  000ae	2b c2		 sub	 eax, edx
  000b0	eb 02		 jmp	 SHORT $LN30@Replace
$LN29@Replace:
  000b2	33 c0		 xor	 eax, eax
$LN30@Replace:

; 1631 : 				}
; 1632 : 				pszStart += StringTraits::SafeStringLen( pszStart )+1;

  000b4	46		 inc	 esi
  000b5	03 f0		 add	 esi, eax
  000b7	3b f3		 cmp	 esi, ebx
  000b9	72 b5		 jb	 SHORT $LL104@Replace

; 1633 : 			}
; 1634 : 		}
; 1635 : 
; 1636 : 		// if any changes were made, make them
; 1637 : 		if( nCount > 0 )

  000bb	8b 4d f8	 mov	 ecx, DWORD PTR _nCount$1$[ebp]
  000be	8b 5d f0	 mov	 ebx, DWORD PTR $T2[ebp]
  000c1	85 c9		 test	 ecx, ecx
  000c3	0f 8e 80 01 00
	00		 jle	 $LN76@Replace
; File C:\Program Files\Microsoft Visual Studio\2022\Professional\VC\Tools\MSVC\14.44.35207\atlmfc\include\atlsimpstr.h

; 523  : 		return( GetData()->nDataLength );

  000c9	8b 45 fc	 mov	 eax, DWORD PTR _this$1$[ebp]
; File C:\Program Files\Microsoft Visual Studio\2022\Professional\VC\Tools\MSVC\14.44.35207\atlmfc\include\cstringt.h

; 1642 : 			int nNewLength = nOldLength+(nReplacementLen-nSourceLen)*nCount;

  000cc	8b d3		 mov	 edx, ebx
  000ce	2b d7		 sub	 edx, edi
  000d0	0f af d1	 imul	 edx, ecx
; File C:\Program Files\Microsoft Visual Studio\2022\Professional\VC\Tools\MSVC\14.44.35207\atlmfc\include\atlsimpstr.h

; 523  : 		return( GetData()->nDataLength );

  000d3	8b 00		 mov	 eax, DWORD PTR [eax]
; File C:\Program Files\Microsoft Visual Studio\2022\Professional\VC\Tools\MSVC\14.44.35207\atlmfc\include\cstringt.h

; 1641 : 			int nOldLength = this->GetLength();

  000d5	8b 70 f4	 mov	 esi, DWORD PTR [eax-12]

; 1642 : 			int nNewLength = nOldLength+(nReplacementLen-nSourceLen)*nCount;

  000d8	03 d6		 add	 edx, esi
  000da	89 55 f0	 mov	 DWORD PTR _nNewLength$1$[ebp], edx

; 1644 : 			PXSTR pszBuffer = this->GetBuffer( __max( nNewLength, nOldLength ) );

  000dd	8b d6		 mov	 edx, esi
  000df	39 75 f0	 cmp	 DWORD PTR _nNewLength$1$[ebp], esi
  000e2	89 75 f4	 mov	 DWORD PTR _nOldLength$1$[ebp], esi
  000e5	0f 4f 55 f0	 cmovg	 edx, DWORD PTR _nNewLength$1$[ebp]
; File C:\Program Files\Microsoft Visual Studio\2022\Professional\VC\Tools\MSVC\14.44.35207\atlmfc\include\atlsimpstr.h

; 808  : 		if (nLength < 0)

  000e9	85 d2		 test	 edx, edx
  000eb	0f 88 6d 01 00
	00		 js	 $LN75@Replace

; 809  : 			AtlThrow(E_INVALIDARG);
; 810  : 
; 811  : 		CStringData* pOldData = GetData();
; 812  : 		int nShared = 1-pOldData->nRefs;  // nShared < 0 means true, >= 0 means false

  000f1	b9 01 00 00 00	 mov	 ecx, 1
  000f6	2b 48 fc	 sub	 ecx, DWORD PTR [eax-4]

; 813  : 		int nTooShort = pOldData->nAllocLength-nLength;  // nTooShort < 0 means true, >= 0 means false

  000f9	8b 40 f8	 mov	 eax, DWORD PTR [eax-8]
  000fc	2b c2		 sub	 eax, edx

; 814  : 		if( (nShared|nTooShort) < 0 )  // If either sign bit is set (i.e. either is less than zero), we need to copy data

  000fe	0b c8		 or	 ecx, eax
  00100	7d 09		 jge	 SHORT $LN39@Replace

; 815  : 		{
; 816  : 			PrepareWrite2( nLength );

  00102	8b 4d fc	 mov	 ecx, DWORD PTR _this$1$[ebp]
  00105	52		 push	 edx
  00106	e8 00 00 00 00	 call	 ?PrepareWrite2@?$CSimpleStringT@D$0A@@ATL@@AAEXH@Z ; ATL::CSimpleStringT<char,0>::PrepareWrite2
$LN39@Replace:
; File C:\Program Files\Microsoft Visual Studio\2022\Professional\VC\Tools\MSVC\14.44.35207\atlmfc\include\cstringt.h

; 1644 : 			PXSTR pszBuffer = this->GetBuffer( __max( nNewLength, nOldLength ) );

  0010b	8b 55 fc	 mov	 edx, DWORD PTR _this$1$[ebp]
  0010e	8b 02		 mov	 eax, DWORD PTR [edx]

; 1645 : 
; 1646 : 			PXSTR pszStart = pszBuffer;

  00110	8b f8		 mov	 edi, eax
  00112	89 45 e8	 mov	 DWORD PTR _pszBuffer$1$[ebp], eax

; 1647 : 			PXSTR pszEnd = pszStart+nOldLength;

  00115	8d 0c 30	 lea	 ecx, DWORD PTR [eax+esi]
  00118	89 4d e0	 mov	 DWORD PTR _pszEnd$1$[ebp], ecx

; 1648 : 
; 1649 : 			// loop again to actually do the work
; 1650 : 			while( pszStart < pszEnd )

  0011b	3b c1		 cmp	 eax, ecx
  0011d	0f 83 ff 00 00
	00		 jae	 $LN7@Replace
$LL6@Replace:

; 212  : 		return reinterpret_cast< LPCSTR >( _mbsstr( reinterpret_cast< const unsigned char* >( pszBlock ),

  00123	ff 75 08	 push	 DWORD PTR _pszOld$[ebp]
  00126	57		 push	 edi
  00127	e8 00 00 00 00	 call	 __mbsstr

; 1651 : 			{
; 1652 : 				PXSTR pszTarget;
; 1653 : 				while( (pszTarget = StringTraits::StringFindString( pszStart, pszOld ) ) != NULL )

  0012c	8b f0		 mov	 esi, eax

; 212  : 		return reinterpret_cast< LPCSTR >( _mbsstr( reinterpret_cast< const unsigned char* >( pszBlock ),

  0012e	83 c4 08	 add	 esp, 8

; 1651 : 			{
; 1652 : 				PXSTR pszTarget;
; 1653 : 				while( (pszTarget = StringTraits::StringFindString( pszStart, pszOld ) ) != NULL )

  00131	85 f6		 test	 esi, esi
  00133	0f 84 c4 00 00
	00		 je	 $LN9@Replace
  00139	0f 1f 80 00 00
	00 00		 npad	 7
$LL8@Replace:

; 1654 : 				{
; 1655 : 					int nBalance = nOldLength-int(pszTarget-pszBuffer+nSourceLen);

  00140	8b 7d e8	 mov	 edi, DWORD PTR _pszBuffer$1$[ebp]

; 1656 : 					Checked::memmove_s( pszTarget+nReplacementLen, nBalance*sizeof( XCHAR ),

  00143	8d 0c 33	 lea	 ecx, DWORD PTR [ebx+esi]
  00146	8b 45 ec	 mov	 eax, DWORD PTR $T1[ebp]
  00149	2b f8		 sub	 edi, eax
  0014b	2b fe		 sub	 edi, esi
  0014d	89 4d e4	 mov	 DWORD PTR __S1$1$[ebp], ecx
  00150	8d 04 30	 lea	 eax, DWORD PTR [eax+esi]
  00153	03 7d f4	 add	 edi, DWORD PTR _nOldLength$1$[ebp]
; File C:\Program Files (x86)\Windows Kits\10\Include\10.0.26100.0\ucrt\corecrt_memcpy_s.h

; 76   :         if (_SourceSize == 0)

  00156	74 2a		 je	 SHORT $LN136@Replace

; 77   :         {
; 78   :             return 0;
; 79   :         }
; 80   : 
; 81   :         _CRT_MEMCPY_S_VALIDATE_RETURN_ERRCODE(_Destination != NULL,            EINVAL);

  00158	85 c9		 test	 ecx, ecx
  0015a	75 17		 jne	 SHORT $LN53@Replace
$LN137@Replace:
; File C:\Program Files\Microsoft Visual Studio\2022\Professional\VC\Tools\MSVC\14.44.35207\atlmfc\include\atlchecked.h

; 91   : 	ATLMFC_CRT_ERRORCHECK(::memmove_s(_S1, _S1max, _S2, _N));

  0015c	e8 00 00 00 00	 call	 __errno
  00161	c7 00 16 00 00
	00		 mov	 DWORD PTR [eax], 22	; 00000016H
  00167	e8 00 00 00 00	 call	 __invalid_parameter_noinfo
  0016c	b8 16 00 00 00	 mov	 eax, 22			; 00000016H
  00171	eb 11		 jmp	 SHORT $LN51@Replace
$LN53@Replace:
; File C:\Program Files (x86)\Windows Kits\10\Include\10.0.26100.0\ucrt\corecrt_memcpy_s.h

; 82   :         _CRT_MEMCPY_S_VALIDATE_RETURN_ERRCODE(_Source != NULL,                 EINVAL);

  00173	85 c0		 test	 eax, eax
  00175	74 e5		 je	 SHORT $LN137@Replace

; 83   :         _CRT_MEMCPY_S_VALIDATE_RETURN_ERRCODE(_DestinationSize >= _SourceSize, ERANGE);
; 84   : 
; 85   :         memmove(_Destination, _Source, _SourceSize);

  00177	57		 push	 edi
  00178	50		 push	 eax
  00179	51		 push	 ecx
  0017a	e8 00 00 00 00	 call	 _memmove
  0017f	83 c4 0c	 add	 esp, 12			; 0000000cH
$LN136@Replace:
; File C:\Program Files\Microsoft Visual Studio\2022\Professional\VC\Tools\MSVC\14.44.35207\atlmfc\include\atlchecked.h

; 91   : 	ATLMFC_CRT_ERRORCHECK(::memmove_s(_S1, _S1max, _S2, _N));

  00182	33 c0		 xor	 eax, eax
$LN51@Replace:
  00184	50		 push	 eax
  00185	e8 00 00 00 00	 call	 ?AfxCrtErrorCheck@@YAHH@Z ; AfxCrtErrorCheck
  0018a	83 c4 04	 add	 esp, 4
; File C:\Program Files (x86)\Windows Kits\10\Include\10.0.26100.0\ucrt\corecrt_memcpy_s.h

; 47   :         if (_SourceSize == 0)

  0018d	85 db		 test	 ebx, ebx
  0018f	75 04		 jne	 SHORT $LN60@Replace

; 48   :         {
; 49   :             return 0;

  00191	33 c0		 xor	 eax, eax
  00193	eb 3a		 jmp	 SHORT $LN59@Replace
$LN60@Replace:

; 50   :         }
; 51   : 
; 52   :         _CRT_MEMCPY_S_VALIDATE_RETURN_ERRCODE(_Destination != NULL, EINVAL);

  00195	85 f6		 test	 esi, esi
  00197	74 21		 je	 SHORT $LN138@Replace

; 53   :         if (_Source == NULL || _DestinationSize < _SourceSize)

  00199	8b 45 0c	 mov	 eax, DWORD PTR _pszNew$[ebp]
  0019c	53		 push	 ebx
  0019d	85 c0		 test	 eax, eax
  0019f	74 0e		 je	 SHORT $LN63@Replace

; 56   : 
; 57   :             _CRT_MEMCPY_S_VALIDATE_RETURN_ERRCODE(_Source != NULL,                 EINVAL);
; 58   :             _CRT_MEMCPY_S_VALIDATE_RETURN_ERRCODE(_DestinationSize >= _SourceSize, ERANGE);
; 59   : 
; 60   :             // Unreachable, but required to suppress /analyze warnings:
; 61   :             return EINVAL;
; 62   :         }
; 63   :         memcpy(_Destination, _Source, _SourceSize);

  001a1	50		 push	 eax
  001a2	56		 push	 esi
  001a3	e8 00 00 00 00	 call	 _memcpy
  001a8	83 c4 0c	 add	 esp, 12			; 0000000cH

; 64   :         return 0;

  001ab	33 c0		 xor	 eax, eax
  001ad	eb 20		 jmp	 SHORT $LN59@Replace
$LN63@Replace:

; 54   :         {
; 55   :             memset(_Destination, 0, _DestinationSize);

  001af	6a 00		 push	 0
  001b1	56		 push	 esi
  001b2	e8 00 00 00 00	 call	 _memset
  001b7	83 c4 0c	 add	 esp, 12			; 0000000cH
$LN138@Replace:
; File C:\Program Files\Microsoft Visual Studio\2022\Professional\VC\Tools\MSVC\14.44.35207\atlmfc\include\atlchecked.h

; 73   : 	ATLMFC_CRT_ERRORCHECK(::memcpy_s(_S1, _S1max, _S2, _N));

  001ba	e8 00 00 00 00	 call	 __errno
  001bf	c7 00 16 00 00
	00		 mov	 DWORD PTR [eax], 22	; 00000016H
  001c5	e8 00 00 00 00	 call	 __invalid_parameter_noinfo
  001ca	b8 16 00 00 00	 mov	 eax, 22			; 00000016H
$LN59@Replace:
  001cf	50		 push	 eax
  001d0	e8 00 00 00 00	 call	 ?AfxCrtErrorCheck@@YAHH@Z ; AfxCrtErrorCheck
; File C:\Program Files\Microsoft Visual Studio\2022\Professional\VC\Tools\MSVC\14.44.35207\atlmfc\include\cstringt.h

; 212  : 		return reinterpret_cast< LPCSTR >( _mbsstr( reinterpret_cast< const unsigned char* >( pszBlock ),

  001d5	ff 75 08	 push	 DWORD PTR _pszOld$[ebp]

; 1657 : 						pszTarget+nSourceLen, nBalance*sizeof( XCHAR ) );
; 1658 : 					Checked::memcpy_s( pszTarget, nReplacementLen*sizeof( XCHAR ),
; 1659 : 						pszNew, nReplacementLen*sizeof( XCHAR ) );
; 1660 : 					pszStart = pszTarget+nReplacementLen;
; 1661 : 					pszTarget[nReplacementLen+nBalance] = 0;

  001d8	8d 04 3b	 lea	 eax, DWORD PTR [ebx+edi]

; 212  : 		return reinterpret_cast< LPCSTR >( _mbsstr( reinterpret_cast< const unsigned char* >( pszBlock ),

  001db	8b 7d e4	 mov	 edi, DWORD PTR __S1$1$[ebp]

; 1657 : 						pszTarget+nSourceLen, nBalance*sizeof( XCHAR ) );
; 1658 : 					Checked::memcpy_s( pszTarget, nReplacementLen*sizeof( XCHAR ),
; 1659 : 						pszNew, nReplacementLen*sizeof( XCHAR ) );
; 1660 : 					pszStart = pszTarget+nReplacementLen;
; 1661 : 					pszTarget[nReplacementLen+nBalance] = 0;

  001de	c6 04 30 00	 mov	 BYTE PTR [eax+esi], 0

; 1662 : 					nOldLength += (nReplacementLen-nSourceLen);

  001e2	8b c3		 mov	 eax, ebx
  001e4	2b 45 ec	 sub	 eax, DWORD PTR $T1[ebp]
  001e7	01 45 f4	 add	 DWORD PTR _nOldLength$1$[ebp], eax

; 212  : 		return reinterpret_cast< LPCSTR >( _mbsstr( reinterpret_cast< const unsigned char* >( pszBlock ),

  001ea	57		 push	 edi
  001eb	e8 00 00 00 00	 call	 __mbsstr

; 1651 : 			{
; 1652 : 				PXSTR pszTarget;
; 1653 : 				while( (pszTarget = StringTraits::StringFindString( pszStart, pszOld ) ) != NULL )

  001f0	8b f0		 mov	 esi, eax

; 212  : 		return reinterpret_cast< LPCSTR >( _mbsstr( reinterpret_cast< const unsigned char* >( pszBlock ),

  001f2	83 c4 0c	 add	 esp, 12			; 0000000cH

; 1651 : 			{
; 1652 : 				PXSTR pszTarget;
; 1653 : 				while( (pszTarget = StringTraits::StringFindString( pszStart, pszOld ) ) != NULL )

  001f5	85 f6		 test	 esi, esi
  001f7	0f 85 43 ff ff
	ff		 jne	 $LL8@Replace
$LN9@Replace:

; 495  : 		return (psz != NULL) ? int( strlen( psz ) ) : 0;

  001fd	85 ff		 test	 edi, edi
  001ff	74 10		 je	 SHORT $LN69@Replace
  00201	8b cf		 mov	 ecx, edi
  00203	8d 51 01	 lea	 edx, DWORD PTR [ecx+1]
$LL103@Replace:
  00206	8a 01		 mov	 al, BYTE PTR [ecx]
  00208	41		 inc	 ecx
  00209	84 c0		 test	 al, al
  0020b	75 f9		 jne	 SHORT $LL103@Replace
  0020d	2b ca		 sub	 ecx, edx
  0020f	eb 02		 jmp	 SHORT $LN70@Replace
$LN69@Replace:
  00211	33 c9		 xor	 ecx, ecx
$LN70@Replace:

; 1663 : 				}
; 1664 : 				pszStart += StringTraits::SafeStringLen( pszStart )+1;

  00213	47		 inc	 edi
  00214	03 f9		 add	 edi, ecx
  00216	3b 7d e0	 cmp	 edi, DWORD PTR _pszEnd$1$[ebp]
  00219	0f 82 04 ff ff
	ff		 jb	 $LL6@Replace
  0021f	8b 55 fc	 mov	 edx, DWORD PTR _this$1$[ebp]
$LN7@Replace:
; File C:\Program Files\Microsoft Visual Studio\2022\Professional\VC\Tools\MSVC\14.44.35207\atlmfc\include\atlsimpstr.h

; 875  : 		if( nLength < 0 || nLength > GetData()->nAllocLength)

  00222	8b 4d f0	 mov	 ecx, DWORD PTR _nNewLength$1$[ebp]
  00225	85 c9		 test	 ecx, ecx
  00227	78 35		 js	 SHORT $LN75@Replace
  00229	8b 02		 mov	 eax, DWORD PTR [edx]
  0022b	3b 48 f8	 cmp	 ecx, DWORD PTR [eax-8]
  0022e	7f 2e		 jg	 SHORT $LN75@Replace

; 877  : 
; 878  : 		GetData()->nDataLength = nLength;

  00230	89 48 f4	 mov	 DWORD PTR [eax-12], ecx

; 879  : 		m_pszData[nLength] = 0;

  00233	8b 02		 mov	 eax, DWORD PTR [edx]
; File C:\Program Files\Microsoft Visual Studio\2022\Professional\VC\Tools\MSVC\14.44.35207\atlmfc\include\cstringt.h

; 1670 : 		return( nCount );

  00235	5b		 pop	 ebx
  00236	5f		 pop	 edi

; 1671 : 	}

  00237	5e		 pop	 esi
; File C:\Program Files\Microsoft Visual Studio\2022\Professional\VC\Tools\MSVC\14.44.35207\atlmfc\include\atlsimpstr.h

; 879  : 		m_pszData[nLength] = 0;

  00238	c6 04 01 00	 mov	 BYTE PTR [ecx+eax], 0
  0023c	8b 4d f8	 mov	 ecx, DWORD PTR _nCount$1$[ebp]
; File C:\Program Files\Microsoft Visual Studio\2022\Professional\VC\Tools\MSVC\14.44.35207\atlmfc\include\cstringt.h

; 1670 : 		return( nCount );

  0023f	8b c1		 mov	 eax, ecx

; 1671 : 	}

  00241	8b e5		 mov	 esp, ebp
  00243	5d		 pop	 ebp
  00244	c2 08 00	 ret	 8
$LN105@Replace:

; 1624 : 			while( pszStart < pszEnd )

  00247	33 c9		 xor	 ecx, ecx
$LN76@Replace:

; 1670 : 		return( nCount );

  00249	5b		 pop	 ebx
  0024a	5f		 pop	 edi
  0024b	8b c1		 mov	 eax, ecx

; 1671 : 	}

  0024d	5e		 pop	 esi
  0024e	8b e5		 mov	 esp, ebp
  00250	5d		 pop	 ebp
  00251	c2 08 00	 ret	 8
$LN98@Replace:
  00254	5f		 pop	 edi

; 1615 : 			return( 0 );

  00255	33 c0		 xor	 eax, eax

; 1671 : 	}

  00257	5e		 pop	 esi
  00258	8b e5		 mov	 esp, ebp
  0025a	5d		 pop	 ebp
  0025b	c2 08 00	 ret	 8
$LN75@Replace:
; File C:\Program Files\Microsoft Visual Studio\2022\Professional\VC\Tools\MSVC\14.44.35207\atlmfc\include\atlsimpstr.h

; 876  : 			AtlThrow(E_INVALIDARG);

  0025e	68 57 00 07 80	 push	 -2147024809		; 80070057H
  00263	e8 00 00 00 00	 call	 ?AtlThrowImpl@ATL@@YGXJ@Z ; ATL::AtlThrowImpl
$LN134@Replace:
  00268	cc		 int	 3
?Replace@?$CStringT@DV?$StrTraitMFC@DV?$ChTraitsCRT@D@ATL@@@@@ATL@@QAEHPBD0@Z ENDP ; ATL::CStringT<char,StrTraitMFC<char,ATL::ChTraitsCRT<char> > >::Replace
_TEXT	ENDS
; Function compile flags: /Ogtp
; File C:\Program Files\Microsoft Visual Studio\2022\Professional\VC\Tools\MSVC\14.44.35207\atlmfc\include\cstringt.h
; File C:\Program Files\Microsoft Visual Studio\2022\Professional\VC\Tools\MSVC\14.44.35207\atlmfc\include\atlsimpstr.h
; File C:\Program Files\Microsoft Visual Studio\2022\Professional\VC\Tools\MSVC\14.44.35207\atlmfc\include\cstringt.h
;	COMDAT ??1?$CStringT@DV?$StrTraitMFC@DV?$ChTraitsCRT@D@ATL@@@@@ATL@@QAE@XZ
_TEXT	SEGMENT
??1?$CStringT@DV?$StrTraitMFC@DV?$ChTraitsCRT@D@ATL@@@@@ATL@@QAE@XZ PROC ; ATL::CStringT<char,StrTraitMFC<char,ATL::ChTraitsCRT<char> > >::~CStringT<char,StrTraitMFC<char,ATL::ChTraitsCRT<char> > >, COMDAT
; _this$ = ecx
; File C:\Program Files\Microsoft Visual Studio\2022\Professional\VC\Tools\MSVC\14.44.35207\atlmfc\include\atlsimpstr.h

; 804  : 		return( reinterpret_cast< CStringData* >( m_pszData )-1 );

  00000	8b 11		 mov	 edx, DWORD PTR [ecx]

; 92   : 		if( _InterlockedDecrement( &nRefs ) <= 0 )

  00002	83 c8 ff	 or	 eax, -1

; 804  : 		return( reinterpret_cast< CStringData* >( m_pszData )-1 );

  00005	83 ea 10	 sub	 edx, 16			; 00000010H

; 92   : 		if( _InterlockedDecrement( &nRefs ) <= 0 )

  00008	f0 0f c1 42 0c	 lock	  xadd	 DWORD PTR [edx+12], eax
  0000d	48		 dec	 eax
  0000e	85 c0		 test	 eax, eax
  00010	7f 08		 jg	 SHORT $LN8@CStringT

; 93   : 		{
; 94   : 			pStringMgr->Free( this );

  00012	8b 0a		 mov	 ecx, DWORD PTR [edx]
  00014	52		 push	 edx
  00015	8b 01		 mov	 eax, DWORD PTR [ecx]
  00017	ff 50 04	 call	 DWORD PTR [eax+4]
$LN8@CStringT:
; File C:\Program Files\Microsoft Visual Studio\2022\Professional\VC\Tools\MSVC\14.44.35207\atlmfc\include\cstringt.h

; 1303 : 	}

  0001a	c3		 ret	 0
??1?$CStringT@DV?$StrTraitMFC@DV?$ChTraitsCRT@D@ATL@@@@@ATL@@QAE@XZ ENDP ; ATL::CStringT<char,StrTraitMFC<char,ATL::ChTraitsCRT<char> > >::~CStringT<char,StrTraitMFC<char,ATL::ChTraitsCRT<char> > >
_TEXT	ENDS
; Function compile flags: /Ogtp
; File C:\Program Files\Microsoft Visual Studio\2022\Professional\VC\Tools\MSVC\14.44.35207\atlmfc\include\atlsimpstr.h
;	COMDAT ?Reallocate@?$CSimpleStringT@D$0A@@ATL@@AAEXH@Z
_TEXT	SEGMENT
_nLength$ = 8						; size = 4
?Reallocate@?$CSimpleStringT@D$0A@@ATL@@AAEXH@Z PROC	; ATL::CSimpleStringT<char,0>::Reallocate, COMDAT
; _this$ = ecx

; 853  : 	{

  00000	55		 push	 ebp
  00001	8b ec		 mov	 ebp, esp
  00003	56		 push	 esi

; 854  : 		CStringData* pOldData = GetData();
; 855  : 		ATLASSERT( pOldData->nAllocLength < nLength );
; 856  : 		IAtlStringMgr* pStringMgr = pOldData->pStringMgr;
; 857  : 		if ( pOldData->nAllocLength >= nLength || nLength <= 0)

  00004	8b 75 08	 mov	 esi, DWORD PTR _nLength$[ebp]
  00007	57		 push	 edi
  00008	8b f9		 mov	 edi, ecx

; 804  : 		return( reinterpret_cast< CStringData* >( m_pszData )-1 );

  0000a	8b 17		 mov	 edx, DWORD PTR [edi]
  0000c	83 ea 10	 sub	 edx, 16			; 00000010H

; 854  : 		CStringData* pOldData = GetData();
; 855  : 		ATLASSERT( pOldData->nAllocLength < nLength );
; 856  : 		IAtlStringMgr* pStringMgr = pOldData->pStringMgr;
; 857  : 		if ( pOldData->nAllocLength >= nLength || nLength <= 0)

  0000f	39 72 08	 cmp	 DWORD PTR [edx+8], esi
  00012	7d 1e		 jge	 SHORT $LN3@Reallocate
  00014	85 f6		 test	 esi, esi
  00016	7e 1a		 jle	 SHORT $LN3@Reallocate

; 860  : 			return;
; 861  : 		}
; 862  : 		CStringData* pNewData = pStringMgr->Reallocate( pOldData, nLength, sizeof( XCHAR ) );

  00018	8b 0a		 mov	 ecx, DWORD PTR [edx]
  0001a	6a 01		 push	 1
  0001c	56		 push	 esi
  0001d	52		 push	 edx
  0001e	8b 01		 mov	 eax, DWORD PTR [ecx]
  00020	ff 50 08	 call	 DWORD PTR [eax+8]

; 863  : 		if( pNewData == NULL )

  00023	85 c0		 test	 eax, eax
  00025	74 0b		 je	 SHORT $LN3@Reallocate

; 864  : 		{
; 865  : 			ThrowMemoryException();
; 866  : 		}
; 867  : 		Attach( pNewData );

  00027	83 c0 10	 add	 eax, 16			; 00000010H
  0002a	89 07		 mov	 DWORD PTR [edi], eax
  0002c	5f		 pop	 edi
  0002d	5e		 pop	 esi

; 868  : 	}

  0002e	5d		 pop	 ebp
  0002f	c2 04 00	 ret	 4
$LN3@Reallocate:

; 858  : 		{
; 859  : 			ThrowMemoryException();

  00032	e8 00 00 00 00	 call	 ?ThrowMemoryException@?$CSimpleStringT@D$0A@@ATL@@KAXXZ ; ATL::CSimpleStringT<char,0>::ThrowMemoryException
$LN12@Reallocate:
  00037	cc		 int	 3
?Reallocate@?$CSimpleStringT@D$0A@@ATL@@AAEXH@Z ENDP	; ATL::CSimpleStringT<char,0>::Reallocate
_TEXT	ENDS
; Function compile flags: /Ogtp
; File C:\Program Files\Microsoft Visual Studio\2022\Professional\VC\Tools\MSVC\14.44.35207\atlmfc\include\atlsimpstr.h
;	COMDAT ?PrepareWrite2@?$CSimpleStringT@D$0A@@ATL@@AAEXH@Z
_TEXT	SEGMENT
_nLength$ = 8						; size = 4
?PrepareWrite2@?$CSimpleStringT@D$0A@@ATL@@AAEXH@Z PROC	; ATL::CSimpleStringT<char,0>::PrepareWrite2, COMDAT
; _this$ = ecx

; 822  : 	{

  00000	55		 push	 ebp
  00001	8b ec		 mov	 ebp, esp
  00003	56		 push	 esi

; 823  : 		CStringData* pOldData = GetData();
; 824  : 		if( pOldData->nDataLength > nLength )

  00004	8b 75 08	 mov	 esi, DWORD PTR _nLength$[ebp]
  00007	57		 push	 edi
  00008	8b f9		 mov	 edi, ecx

; 804  : 		return( reinterpret_cast< CStringData* >( m_pszData )-1 );

  0000a	8b 0f		 mov	 ecx, DWORD PTR [edi]

; 823  : 		CStringData* pOldData = GetData();
; 824  : 		if( pOldData->nDataLength > nLength )

  0000c	39 71 f4	 cmp	 DWORD PTR [ecx-12], esi
  0000f	0f 4f 71 f4	 cmovg	 esi, DWORD PTR [ecx-12]

; 77   : 		return( nRefs > 1 );

  00013	83 79 fc 01	 cmp	 DWORD PTR [ecx-4], 1

; 825  : 		{
; 826  : 			nLength = pOldData->nDataLength;
; 827  : 		}
; 828  : 		if( pOldData->IsShared() )

  00017	7e 0e		 jle	 SHORT $LN3@PrepareWri

; 829  : 		{
; 830  : 			Fork( nLength );

  00019	56		 push	 esi
  0001a	8b cf		 mov	 ecx, edi
  0001c	e8 00 00 00 00	 call	 ?Fork@?$CSimpleStringT@D$0A@@ATL@@AAEXH@Z ; ATL::CSimpleStringT<char,0>::Fork
  00021	5f		 pop	 edi

; 850  : 		}
; 851  : 	}

  00022	5e		 pop	 esi
  00023	5d		 pop	 ebp
  00024	c2 04 00	 ret	 4
$LN3@PrepareWri:

; 831  : 		}
; 832  : 		else if( pOldData->nAllocLength < nLength )

  00027	8b 49 f8	 mov	 ecx, DWORD PTR [ecx-8]
  0002a	3b ce		 cmp	 ecx, esi
  0002c	7d 25		 jge	 SHORT $LN5@PrepareWri

; 833  : 		{
; 834  : 			// Grow exponentially, until we hit 1G, then by 1M thereafter.
; 835  : 			int nNewLength = pOldData->nAllocLength;
; 836  : 			if( nNewLength > 1024 * 1024 * 1024 )

  0002e	81 f9 00 00 00
	40		 cmp	 ecx, 1073741824		; 40000000H
  00034	7e 07		 jle	 SHORT $LN6@PrepareWri

; 837  : 			{
; 838  : 				nNewLength += 1024 * 1024;

  00036	b8 00 00 10 00	 mov	 eax, 1048576		; 00100000H

; 839  : 			}

  0003b	eb 07		 jmp	 SHORT $LN7@PrepareWri
$LN6@PrepareWri:

; 840  : 			else
; 841  : 			{
; 842  : 				// Exponential growth factor is 1.5.
; 843  : 				nNewLength = nNewLength + nNewLength / 2;

  0003d	8b c1		 mov	 eax, ecx
  0003f	99		 cdq
  00040	2b c2		 sub	 eax, edx
  00042	d1 f8		 sar	 eax, 1
$LN7@PrepareWri:

; 844  : 			}
; 845  : 			if( nNewLength < nLength )

  00044	03 c1		 add	 eax, ecx

; 846  : 			{
; 847  : 				nNewLength = nLength;
; 848  : 			}
; 849  : 			Reallocate( nNewLength );

  00046	8b cf		 mov	 ecx, edi
  00048	3b c6		 cmp	 eax, esi
  0004a	0f 4d f0	 cmovge	 esi, eax
  0004d	56		 push	 esi
  0004e	e8 00 00 00 00	 call	 ?Reallocate@?$CSimpleStringT@D$0A@@ATL@@AAEXH@Z ; ATL::CSimpleStringT<char,0>::Reallocate
$LN5@PrepareWri:

; 850  : 		}
; 851  : 	}

  00053	5f		 pop	 edi
  00054	5e		 pop	 esi
  00055	5d		 pop	 ebp
  00056	c2 04 00	 ret	 4
?PrepareWrite2@?$CSimpleStringT@D$0A@@ATL@@AAEXH@Z ENDP	; ATL::CSimpleStringT<char,0>::PrepareWrite2
_TEXT	ENDS
; Function compile flags: /Ogtp
; File C:\Program Files\Microsoft Visual Studio\2022\Professional\VC\Tools\MSVC\14.44.35207\atlmfc\include\atlsimpstr.h
; File C:\Program Files (x86)\Windows Kits\10\Include\10.0.26100.0\ucrt\corecrt_memcpy_s.h
; File C:\Program Files\Microsoft Visual Studio\2022\Professional\VC\Tools\MSVC\14.44.35207\atlmfc\include\atlsimpstr.h
;	COMDAT ?Fork@?$CSimpleStringT@D$0A@@ATL@@AAEXH@Z
_TEXT	SEGMENT
_this$1$ = -12						; size = 4
_nOldLength$1$ = -8					; size = 4
__Source$1$ = -4					; size = 4
_nLength$ = 8						; size = 4
_pNewData$1$ = 8					; size = 4
?Fork@?$CSimpleStringT@D$0A@@ATL@@AAEXH@Z PROC		; ATL::CSimpleStringT<char,0>::Fork, COMDAT
; _this$ = ecx

; 787  : 	{

  00000	55		 push	 ebp
  00001	8b ec		 mov	 ebp, esp
  00003	83 ec 0c	 sub	 esp, 12			; 0000000cH
  00006	8b c1		 mov	 eax, ecx
  00008	89 45 f4	 mov	 DWORD PTR _this$1$[ebp], eax
  0000b	53		 push	 ebx
  0000c	56		 push	 esi

; 804  : 		return( reinterpret_cast< CStringData* >( m_pszData )-1 );

  0000d	8b 00		 mov	 eax, DWORD PTR [eax]

; 790  : 		CStringData* pNewData = pOldData->pStringMgr->Clone()->Allocate( nLength, sizeof( XCHAR ) );

  0000f	8b 48 f0	 mov	 ecx, DWORD PTR [eax-16]

; 804  : 		return( reinterpret_cast< CStringData* >( m_pszData )-1 );

  00012	8d 58 f0	 lea	 ebx, DWORD PTR [eax-16]
  00015	89 45 fc	 mov	 DWORD PTR __Source$1$[ebp], eax

; 787  : 	{

  00018	57		 push	 edi

; 788  : 		CStringData* pOldData = GetData();
; 789  : 		int nOldLength = pOldData->nDataLength;

  00019	8b 7b 04	 mov	 edi, DWORD PTR [ebx+4]

; 790  : 		CStringData* pNewData = pOldData->pStringMgr->Clone()->Allocate( nLength, sizeof( XCHAR ) );

  0001c	8b 01		 mov	 eax, DWORD PTR [ecx]
  0001e	89 7d f8	 mov	 DWORD PTR _nOldLength$1$[ebp], edi
  00021	ff 50 10	 call	 DWORD PTR [eax+16]
  00024	8b 75 08	 mov	 esi, DWORD PTR _nLength$[ebp]
  00027	8b c8		 mov	 ecx, eax
  00029	6a 01		 push	 1
  0002b	56		 push	 esi
  0002c	8b 10		 mov	 edx, DWORD PTR [eax]
  0002e	ff 12		 call	 DWORD PTR [edx]
  00030	89 45 08	 mov	 DWORD PTR _pNewData$1$[ebp], eax

; 791  : 		if( pNewData == NULL )

  00033	85 c0		 test	 eax, eax
  00035	74 6c		 je	 SHORT $LN25@Fork

; 794  : 		}
; 795  : 		int nCharsToCopy = ((nOldLength < nLength) ? nOldLength : nLength)+1;  // Copy '\0'

  00037	3b fe		 cmp	 edi, esi
  00039	0f 4c f7	 cmovl	 esi, edi

; 796  : 		memcpy_s( PXSTR( pNewData->data() ), nCharsToCopy * sizeof( XCHAR ),

  0003c	8d 78 10	 lea	 edi, DWORD PTR [eax+16]
  0003f	83 c6 01	 add	 esi, 1
; File C:\Program Files (x86)\Windows Kits\10\Include\10.0.26100.0\ucrt\corecrt_memcpy_s.h

; 47   :         if (_SourceSize == 0)

  00042	74 33		 je	 SHORT $LN11@Fork

; 48   :         {
; 49   :             return 0;
; 50   :         }
; 51   : 
; 52   :         _CRT_MEMCPY_S_VALIDATE_RETURN_ERRCODE(_Destination != NULL, EINVAL);

  00044	85 ff		 test	 edi, edi
  00046	74 1f		 je	 SHORT $LN23@Fork

; 53   :         if (_Source == NULL || _DestinationSize < _SourceSize)

  00048	8b 45 fc	 mov	 eax, DWORD PTR __Source$1$[ebp]
  0004b	56		 push	 esi
  0004c	85 c0		 test	 eax, eax
  0004e	74 0c		 je	 SHORT $LN10@Fork

; 56   : 
; 57   :             _CRT_MEMCPY_S_VALIDATE_RETURN_ERRCODE(_Source != NULL,                 EINVAL);
; 58   :             _CRT_MEMCPY_S_VALIDATE_RETURN_ERRCODE(_DestinationSize >= _SourceSize, ERANGE);
; 59   : 
; 60   :             // Unreachable, but required to suppress /analyze warnings:
; 61   :             return EINVAL;
; 62   :         }
; 63   :         memcpy(_Destination, _Source, _SourceSize);

  00050	50		 push	 eax
  00051	57		 push	 edi
  00052	e8 00 00 00 00	 call	 _memcpy
  00057	83 c4 0c	 add	 esp, 12			; 0000000cH
  0005a	eb 1b		 jmp	 SHORT $LN11@Fork
$LN10@Fork:

; 54   :         {
; 55   :             memset(_Destination, 0, _DestinationSize);

  0005c	6a 00		 push	 0
  0005e	57		 push	 edi
  0005f	e8 00 00 00 00	 call	 _memset
  00064	83 c4 0c	 add	 esp, 12			; 0000000cH
$LN23@Fork:
; File C:\Program Files\Microsoft Visual Studio\2022\Professional\VC\Tools\MSVC\14.44.35207\atlmfc\include\atlsimpstr.h

; 798  : 		pNewData->nDataLength = nOldLength;

  00067	e8 00 00 00 00	 call	 __errno
  0006c	c7 00 16 00 00
	00		 mov	 DWORD PTR [eax], 22	; 00000016H
  00072	e8 00 00 00 00	 call	 __invalid_parameter_noinfo
$LN11@Fork:
  00077	8b 4d 08	 mov	 ecx, DWORD PTR _pNewData$1$[ebp]
  0007a	8b 45 f8	 mov	 eax, DWORD PTR _nOldLength$1$[ebp]
  0007d	89 41 04	 mov	 DWORD PTR [ecx+4], eax

; 92   : 		if( _InterlockedDecrement( &nRefs ) <= 0 )

  00080	83 c8 ff	 or	 eax, -1
  00083	f0 0f c1 43 0c	 lock	  xadd	 DWORD PTR [ebx+12], eax
  00088	48		 dec	 eax
  00089	85 c0		 test	 eax, eax
  0008b	7f 08		 jg	 SHORT $LN15@Fork

; 93   : 		{
; 94   : 			pStringMgr->Free( this );

  0008d	8b 0b		 mov	 ecx, DWORD PTR [ebx]
  0008f	53		 push	 ebx
  00090	8b 01		 mov	 eax, DWORD PTR [ecx]
  00092	ff 50 04	 call	 DWORD PTR [eax+4]
$LN15@Fork:

; 799  : 		pOldData->Release();
; 800  : 		Attach( pNewData );

  00095	8b 45 f4	 mov	 eax, DWORD PTR _this$1$[ebp]
  00098	89 38		 mov	 DWORD PTR [eax], edi

; 801  : 	}

  0009a	5f		 pop	 edi
  0009b	5e		 pop	 esi
  0009c	5b		 pop	 ebx
  0009d	8b e5		 mov	 esp, ebp
  0009f	5d		 pop	 ebp
  000a0	c2 04 00	 ret	 4
$LN25@Fork:

; 792  : 		{
; 793  : 			ThrowMemoryException();

  000a3	e8 00 00 00 00	 call	 ?ThrowMemoryException@?$CSimpleStringT@D$0A@@ATL@@KAXXZ ; ATL::CSimpleStringT<char,0>::ThrowMemoryException
$LN22@Fork:
  000a8	cc		 int	 3
?Fork@?$CSimpleStringT@D$0A@@ATL@@AAEXH@Z ENDP		; ATL::CSimpleStringT<char,0>::Fork
_TEXT	ENDS
; Function compile flags: /Ogtp
; File C:\Program Files\Microsoft Visual Studio\2022\Professional\VC\Tools\MSVC\14.44.35207\atlmfc\include\atlsimpstr.h
;	COMDAT ?ThrowMemoryException@?$CSimpleStringT@D$0A@@ATL@@KAXXZ
_TEXT	SEGMENT
?ThrowMemoryException@?$CSimpleStringT@D$0A@@ATL@@KAXXZ PROC ; ATL::CSimpleStringT<char,0>::ThrowMemoryException, COMDAT

; 777  : 		AtlThrow( E_OUTOFMEMORY );

  00000	68 0e 00 07 80	 push	 -2147024882		; 8007000eH
  00005	e8 00 00 00 00	 call	 ?AtlThrowImpl@ATL@@YGXJ@Z ; ATL::AtlThrowImpl
$LN3@ThrowMemor:
  0000a	cc		 int	 3
?ThrowMemoryException@?$CSimpleStringT@D$0A@@ATL@@KAXXZ ENDP ; ATL::CSimpleStringT<char,0>::ThrowMemoryException
_TEXT	ENDS
; Function compile flags: /Ogtp
; File C:\Program Files\Microsoft Visual Studio\2022\Professional\VC\Tools\MSVC\14.44.35207\atlmfc\include\atlsimpstr.h
; File C:\Program Files (x86)\Windows Kits\10\Include\10.0.26100.0\ucrt\corecrt_memcpy_s.h
; File C:\Program Files\Microsoft Visual Studio\2022\Professional\VC\Tools\MSVC\14.44.35207\atlmfc\include\atlsimpstr.h
; File C:\Program Files (x86)\Windows Kits\10\Include\10.0.26100.0\ucrt\corecrt_memcpy_s.h
; File C:\Program Files\Microsoft Visual Studio\2022\Professional\VC\Tools\MSVC\14.44.35207\atlmfc\include\atlsimpstr.h
;	COMDAT ?SetString@?$CSimpleStringT@D$0A@@ATL@@QAEXPBDH@Z
_TEXT	SEGMENT
_pszSrc$ = 8						; size = 4
_nOldLength$1$ = 8					; size = 4
_nLength$ = 12						; size = 4
_nOffset$1$ = 12					; size = 4
?SetString@?$CSimpleStringT@D$0A@@ATL@@QAEXPBDH@Z PROC	; ATL::CSimpleStringT<char,0>::SetString, COMDAT
; _this$ = ecx

; 611  : 	{

  00000	55		 push	 ebp
  00001	8b ec		 mov	 ebp, esp
  00003	56		 push	 esi

; 612  : 		if( nLength == 0 )

  00004	8b 75 0c	 mov	 esi, DWORD PTR _nLength$[ebp]
  00007	57		 push	 edi
  00008	8b f9		 mov	 edi, ecx
  0000a	85 f6		 test	 esi, esi
  0000c	75 58		 jne	 SHORT $LN2@SetString

; 804  : 		return( reinterpret_cast< CStringData* >( m_pszData )-1 );

  0000e	8b 07		 mov	 eax, DWORD PTR [edi]

; 443  : 		if( pOldData->nDataLength == 0 )

  00010	83 78 f4 00	 cmp	 DWORD PTR [eax-12], 0

; 804  : 		return( reinterpret_cast< CStringData* >( m_pszData )-1 );

  00014	8d 50 f0	 lea	 edx, DWORD PTR [eax-16]

; 442  : 		IAtlStringMgr* pStringMgr = pOldData->pStringMgr;

  00017	8b 32		 mov	 esi, DWORD PTR [edx]

; 443  : 		if( pOldData->nDataLength == 0 )

  00019	74 1f		 je	 SHORT $LN72@SetString

; 73   : 		return nRefs < 0;

  0001b	83 7a 0c 00	 cmp	 DWORD PTR [edx+12], 0
  0001f	8d 4a 0c	 lea	 ecx, DWORD PTR [edx+12]

; 448  : 		if( pOldData->IsLocked() )

  00022	7d 1c		 jge	 SHORT $LN10@SetString

; 875  : 		if( nLength < 0 || nLength > GetData()->nAllocLength)

  00024	83 78 f8 00	 cmp	 DWORD PTR [eax-8], 0
  00028	0f 8c 0b 01 00
	00		 jl	 $LN71@SetString

; 877  : 
; 878  : 		GetData()->nDataLength = nLength;

  0002e	c7 40 f4 00 00
	00 00		 mov	 DWORD PTR [eax-12], 0

; 879  : 		m_pszData[nLength] = 0;

  00035	8b 07		 mov	 eax, DWORD PTR [edi]
  00037	c6 00 00	 mov	 BYTE PTR [eax], 0
$LN72@SetString:
  0003a	5f		 pop	 edi

; 638  : 			else
; 639  : 			{
; 640  : 				memcpy_s( pszBuffer, GetAllocLength() * sizeof( XCHAR ), pszSrc, nLength * sizeof( XCHAR ));
; 641  : 			}
; 642  : 			ReleaseBufferSetLength( nLength );
; 643  : 		}
; 644  : 	}

  0003b	5e		 pop	 esi
  0003c	5d		 pop	 ebp
  0003d	c2 08 00	 ret	 8
$LN10@SetString:

; 92   : 		if( _InterlockedDecrement( &nRefs ) <= 0 )

  00040	83 c8 ff	 or	 eax, -1
  00043	f0 0f c1 01	 lock	  xadd	 DWORD PTR [ecx], eax
  00047	48		 dec	 eax
  00048	85 c0		 test	 eax, eax
  0004a	7f 08		 jg	 SHORT $LN27@SetString

; 93   : 		{
; 94   : 			pStringMgr->Free( this );

  0004c	8b 0a		 mov	 ecx, DWORD PTR [edx]
  0004e	52		 push	 edx
  0004f	8b 01		 mov	 eax, DWORD PTR [ecx]
  00051	ff 50 04	 call	 DWORD PTR [eax+4]
$LN27@SetString:

; 456  : 			CStringData* pNewData = pStringMgr->GetNilString();

  00054	8b 06		 mov	 eax, DWORD PTR [esi]
  00056	8b ce		 mov	 ecx, esi
  00058	ff 50 0c	 call	 DWORD PTR [eax+12]

; 457  : 			Attach( pNewData );

  0005b	83 c0 10	 add	 eax, 16			; 00000010H
  0005e	89 07		 mov	 DWORD PTR [edi], eax
  00060	5f		 pop	 edi

; 638  : 			else
; 639  : 			{
; 640  : 				memcpy_s( pszBuffer, GetAllocLength() * sizeof( XCHAR ), pszSrc, nLength * sizeof( XCHAR ));
; 641  : 			}
; 642  : 			ReleaseBufferSetLength( nLength );
; 643  : 		}
; 644  : 	}

  00061	5e		 pop	 esi
  00062	5d		 pop	 ebp
  00063	c2 08 00	 ret	 8
$LN2@SetString:
  00066	53		 push	 ebx

; 613  : 		{
; 614  : 			Empty();
; 615  : 		}
; 616  : 		else
; 617  : 		{
; 618  : 			// It is possible that pszSrc points to a location inside of our
; 619  : 			// buffer.  GetBuffer() might change m_pszData if (1) the buffer
; 620  : 			// is shared or (2) the buffer is too small to hold the new
; 621  : 			// string.  We detect this aliasing, and modify pszSrc to point
; 622  : 			// into the newly allocated buffer instead.
; 623  : 
; 624  : 			if(pszSrc == NULL)

  00067	8b 5d 08	 mov	 ebx, DWORD PTR _pszSrc$[ebp]
  0006a	85 db		 test	 ebx, ebx
  0006c	0f 84 c7 00 00
	00		 je	 $LN71@SetString

; 523  : 		return( GetData()->nDataLength );

  00072	8b 07		 mov	 eax, DWORD PTR [edi]

; 625  : 				AtlThrow(E_INVALIDARG);
; 626  : 
; 627  : 			UINT nOldLength = GetLength();
; 628  : 			UINT_PTR nOffset = pszSrc-GetString();

  00074	8b d3		 mov	 edx, ebx
  00076	2b d0		 sub	 edx, eax
  00078	89 55 0c	 mov	 DWORD PTR _nOffset$1$[ebp], edx
  0007b	8b 48 f4	 mov	 ecx, DWORD PTR [eax-12]
  0007e	89 4d 08	 mov	 DWORD PTR _nOldLength$1$[ebp], ecx

; 808  : 		if (nLength < 0)

  00081	85 f6		 test	 esi, esi
  00083	0f 88 b0 00 00
	00		 js	 $LN71@SetString

; 809  : 			AtlThrow(E_INVALIDARG);
; 810  : 
; 811  : 		CStringData* pOldData = GetData();
; 812  : 		int nShared = 1-pOldData->nRefs;  // nShared < 0 means true, >= 0 means false

  00089	b9 01 00 00 00	 mov	 ecx, 1
  0008e	2b 48 fc	 sub	 ecx, DWORD PTR [eax-4]

; 813  : 		int nTooShort = pOldData->nAllocLength-nLength;  // nTooShort < 0 means true, >= 0 means false

  00091	8b 40 f8	 mov	 eax, DWORD PTR [eax-8]
  00094	2b c6		 sub	 eax, esi

; 814  : 		if( (nShared|nTooShort) < 0 )  // If either sign bit is set (i.e. either is less than zero), we need to copy data

  00096	0b c8		 or	 ecx, eax
  00098	7d 0b		 jge	 SHORT $LN38@SetString

; 815  : 		{
; 816  : 			PrepareWrite2( nLength );

  0009a	56		 push	 esi
  0009b	8b cf		 mov	 ecx, edi
  0009d	e8 00 00 00 00	 call	 ?PrepareWrite2@?$CSimpleStringT@D$0A@@ATL@@AAEXH@Z ; ATL::CSimpleStringT<char,0>::PrepareWrite2
  000a2	8b 55 0c	 mov	 edx, DWORD PTR _nOffset$1$[ebp]
$LN38@SetString:

; 629  : 			// If 0 <= nOffset <= nOldLength, then pszSrc points into our
; 630  : 			// buffer
; 631  : 
; 632  : 			PXSTR pszBuffer = GetBuffer( nLength );

  000a5	8b 07		 mov	 eax, DWORD PTR [edi]
  000a7	8b 48 f8	 mov	 ecx, DWORD PTR [eax-8]

; 633  : 			if( nOffset <= nOldLength )

  000aa	3b 55 08	 cmp	 edx, DWORD PTR _nOldLength$1$[ebp]
  000ad	77 35		 ja	 SHORT $LN5@SetString

; 634  : 			{
; 635  : 				CopyCharsOverlapped( pszBuffer, GetAllocLength(),

  000af	03 d0		 add	 edx, eax
; File C:\Program Files (x86)\Windows Kits\10\Include\10.0.26100.0\ucrt\corecrt_memcpy_s.h

; 81   :         _CRT_MEMCPY_S_VALIDATE_RETURN_ERRCODE(_Destination != NULL,            EINVAL);

  000b1	85 c0		 test	 eax, eax
  000b3	75 0d		 jne	 SHORT $LN51@SetString
  000b5	e8 00 00 00 00	 call	 __errno
  000ba	c7 00 16 00 00
	00		 mov	 DWORD PTR [eax], 22	; 00000016H
  000c0	eb 5b		 jmp	 SHORT $LN97@SetString
$LN51@SetString:

; 82   :         _CRT_MEMCPY_S_VALIDATE_RETURN_ERRCODE(_Source != NULL,                 EINVAL);

  000c2	85 d2		 test	 edx, edx
  000c4	75 0d		 jne	 SHORT $LN52@SetString
  000c6	e8 00 00 00 00	 call	 __errno
  000cb	c7 00 16 00 00
	00		 mov	 DWORD PTR [eax], 22	; 00000016H
  000d1	eb 4a		 jmp	 SHORT $LN97@SetString
$LN52@SetString:

; 83   :         _CRT_MEMCPY_S_VALIDATE_RETURN_ERRCODE(_DestinationSize >= _SourceSize, ERANGE);

  000d3	3b ce		 cmp	 ecx, esi
  000d5	72 3b		 jb	 SHORT $LN98@SetString

; 84   : 
; 85   :         memmove(_Destination, _Source, _SourceSize);

  000d7	56		 push	 esi
  000d8	52		 push	 edx
  000d9	50		 push	 eax
  000da	e8 00 00 00 00	 call	 _memmove
  000df	83 c4 0c	 add	 esp, 12			; 0000000cH
; File C:\Program Files\Microsoft Visual Studio\2022\Professional\VC\Tools\MSVC\14.44.35207\atlmfc\include\atlsimpstr.h

; 637  : 			}

  000e2	eb 3e		 jmp	 SHORT $LN65@SetString
$LN5@SetString:
; File C:\Program Files (x86)\Windows Kits\10\Include\10.0.26100.0\ucrt\corecrt_memcpy_s.h

; 52   :         _CRT_MEMCPY_S_VALIDATE_RETURN_ERRCODE(_Destination != NULL, EINVAL);

  000e4	85 c0		 test	 eax, eax
  000e6	75 0d		 jne	 SHORT $LN61@SetString
  000e8	e8 00 00 00 00	 call	 __errno
  000ed	c7 00 16 00 00
	00		 mov	 DWORD PTR [eax], 22	; 00000016H
  000f3	eb 28		 jmp	 SHORT $LN97@SetString
$LN61@SetString:

; 53   :         if (_Source == NULL || _DestinationSize < _SourceSize)

  000f5	3b ce		 cmp	 ecx, esi
  000f7	72 0d		 jb	 SHORT $LN63@SetString

; 56   : 
; 57   :             _CRT_MEMCPY_S_VALIDATE_RETURN_ERRCODE(_Source != NULL,                 EINVAL);
; 58   :             _CRT_MEMCPY_S_VALIDATE_RETURN_ERRCODE(_DestinationSize >= _SourceSize, ERANGE);
; 59   : 
; 60   :             // Unreachable, but required to suppress /analyze warnings:
; 61   :             return EINVAL;
; 62   :         }
; 63   :         memcpy(_Destination, _Source, _SourceSize);

  000f9	56		 push	 esi
  000fa	53		 push	 ebx
  000fb	50		 push	 eax
  000fc	e8 00 00 00 00	 call	 _memcpy
  00101	83 c4 0c	 add	 esp, 12			; 0000000cH
  00104	eb 1c		 jmp	 SHORT $LN65@SetString
$LN63@SetString:

; 54   :         {
; 55   :             memset(_Destination, 0, _DestinationSize);

  00106	51		 push	 ecx
  00107	6a 00		 push	 0
  00109	50		 push	 eax
  0010a	e8 00 00 00 00	 call	 _memset
  0010f	83 c4 0c	 add	 esp, 12			; 0000000cH
$LN98@SetString:
; File C:\Program Files\Microsoft Visual Studio\2022\Professional\VC\Tools\MSVC\14.44.35207\atlmfc\include\atlsimpstr.h

; 875  : 		if( nLength < 0 || nLength > GetData()->nAllocLength)

  00112	e8 00 00 00 00	 call	 __errno
  00117	c7 00 22 00 00
	00		 mov	 DWORD PTR [eax], 34	; 00000022H
$LN97@SetString:
  0011d	e8 00 00 00 00	 call	 __invalid_parameter_noinfo
$LN65@SetString:
  00122	8b 07		 mov	 eax, DWORD PTR [edi]
  00124	5b		 pop	 ebx
  00125	3b 70 f8	 cmp	 esi, DWORD PTR [eax-8]
  00128	7f 0f		 jg	 SHORT $LN71@SetString

; 877  : 
; 878  : 		GetData()->nDataLength = nLength;

  0012a	89 70 f4	 mov	 DWORD PTR [eax-12], esi

; 879  : 		m_pszData[nLength] = 0;

  0012d	8b 07		 mov	 eax, DWORD PTR [edi]
  0012f	5f		 pop	 edi
  00130	c6 04 06 00	 mov	 BYTE PTR [esi+eax], 0

; 638  : 			else
; 639  : 			{
; 640  : 				memcpy_s( pszBuffer, GetAllocLength() * sizeof( XCHAR ), pszSrc, nLength * sizeof( XCHAR ));
; 641  : 			}
; 642  : 			ReleaseBufferSetLength( nLength );
; 643  : 		}
; 644  : 	}

  00134	5e		 pop	 esi
  00135	5d		 pop	 ebp
  00136	c2 08 00	 ret	 8
$LN71@SetString:

; 876  : 			AtlThrow(E_INVALIDARG);

  00139	68 57 00 07 80	 push	 -2147024809		; 80070057H
  0013e	e8 00 00 00 00	 call	 ?AtlThrowImpl@ATL@@YGXJ@Z ; ATL::AtlThrowImpl
$LN96@SetString:
  00143	cc		 int	 3
?SetString@?$CSimpleStringT@D$0A@@ATL@@QAEXPBDH@Z ENDP	; ATL::CSimpleStringT<char,0>::SetString
_TEXT	ENDS
; Function compile flags: /Ogtp
; File C:\Program Files\Microsoft Visual Studio\2022\Professional\VC\Tools\MSVC\14.44.35207\atlmfc\include\atlsimpstr.h
;	COMDAT ??1?$CSimpleStringT@D$0A@@ATL@@QAE@XZ
_TEXT	SEGMENT
??1?$CSimpleStringT@D$0A@@ATL@@QAE@XZ PROC		; ATL::CSimpleStringT<char,0>::~CSimpleStringT<char,0>, COMDAT
; _this$ = ecx

; 804  : 		return( reinterpret_cast< CStringData* >( m_pszData )-1 );

  00000	8b 11		 mov	 edx, DWORD PTR [ecx]

; 92   : 		if( _InterlockedDecrement( &nRefs ) <= 0 )

  00002	83 c8 ff	 or	 eax, -1

; 804  : 		return( reinterpret_cast< CStringData* >( m_pszData )-1 );

  00005	83 ea 10	 sub	 edx, 16			; 00000010H

; 92   : 		if( _InterlockedDecrement( &nRefs ) <= 0 )

  00008	f0 0f c1 42 0c	 lock	  xadd	 DWORD PTR [edx+12], eax
  0000d	48		 dec	 eax
  0000e	85 c0		 test	 eax, eax
  00010	7f 08		 jg	 SHORT $LN6@CSimpleStr

; 93   : 		{
; 94   : 			pStringMgr->Free( this );

  00012	8b 0a		 mov	 ecx, DWORD PTR [edx]
  00014	52		 push	 edx
  00015	8b 01		 mov	 eax, DWORD PTR [ecx]
  00017	ff 50 04	 call	 DWORD PTR [eax+4]
$LN6@CSimpleStr:

; 265  : 		CStringData* pData = GetData();
; 266  : 		pData->Release();
; 267  : 	}

  0001a	c3		 ret	 0
??1?$CSimpleStringT@D$0A@@ATL@@QAE@XZ ENDP		; ATL::CSimpleStringT<char,0>::~CSimpleStringT<char,0>
_TEXT	ENDS
; Function compile flags: /Ogtp
; File C:\Program Files\Microsoft Visual Studio\2022\Professional\VC\Tools\MSVC\14.44.35207\atlmfc\include\atlexcept.h
;	COMDAT ?AtlThrowImpl@ATL@@YGXJ@Z
_TEXT	SEGMENT
_hr$ = 8						; size = 4
?AtlThrowImpl@ATL@@YGXJ@Z PROC				; ATL::AtlThrowImpl, COMDAT

; 69   : {

  00000	55		 push	 ebp
  00001	8b ec		 mov	 ebp, esp

; 70   : 	ATLTRACE(atlTraceException, 0, _T("AtlThrow: hr = 0x%x\n"), hr );
; 71   : #ifdef _AFX
; 72   : 	if( hr == E_OUTOFMEMORY )

  00003	8b 45 08	 mov	 eax, DWORD PTR _hr$[ebp]
  00006	3d 0e 00 07 80	 cmp	 eax, -2147024882	; 8007000eH
  0000b	75 05		 jne	 SHORT $LN2@AtlThrowIm

; 73   : 	{
; 74   : 		AfxThrowMemoryException();

  0000d	e8 00 00 00 00	 call	 ?AfxThrowMemoryException@@YGXXZ ; AfxThrowMemoryException
$LN2@AtlThrowIm:

; 75   : 	}
; 76   : 	else
; 77   : 	{
; 78   : 		AfxThrowOleException( hr );

  00012	50		 push	 eax
  00013	e8 00 00 00 00	 call	 ?AfxThrowOleException@@YGXJ@Z ; AfxThrowOleException
$LN5@AtlThrowIm:
  00018	cc		 int	 3
?AtlThrowImpl@ATL@@YGXJ@Z ENDP				; ATL::AtlThrowImpl
_TEXT	ENDS
; Function compile flags: /Ogtp
; File C:\Program Files\Microsoft Visual Studio\2022\Professional\VC\Tools\MSVC\14.44.35207\atlmfc\include\afx.h
;	COMDAT ?AfxCrtErrorCheck@@YAHH@Z
_TEXT	SEGMENT
_error$ = 8						; size = 4
?AfxCrtErrorCheck@@YAHH@Z PROC				; AfxCrtErrorCheck, COMDAT

; 510  : {

  00000	55		 push	 ebp
  00001	8b ec		 mov	 ebp, esp

; 511  : 	switch(error)

  00003	8b 4d 08	 mov	 ecx, DWORD PTR _error$[ebp]
  00006	83 f9 50	 cmp	 ecx, 80			; 00000050H
  00009	77 17		 ja	 SHORT $LN9@AfxCrtErro
  0000b	0f b6 81 00 00
	00 00		 movzx	 eax, BYTE PTR $LN11@AfxCrtErro[ecx]
  00012	ff 24 85 00 00
	00 00		 jmp	 DWORD PTR $LN12@AfxCrtErro[eax*4]
$LN4@AfxCrtErro:

; 512  : 	{
; 513  : 	case ENOMEM:
; 514  : 		AfxThrowMemoryException();

  00019	e9 00 00 00 00	 jmp	 ?AfxThrowMemoryException@@YGXXZ ; AfxThrowMemoryException
$LN7@AfxCrtErro:

; 525  : 		break;
; 526  : 	}
; 527  : 	return error;

  0001e	8b c1		 mov	 eax, ecx

; 528  : }

  00020	5d		 pop	 ebp
  00021	c3		 ret	 0
$LN9@AfxCrtErro:

; 515  : 		break;
; 516  : 	case EINVAL:
; 517  : 	case ERANGE:
; 518  : 		AfxThrowInvalidArgException();
; 519  : 		break;
; 520  : 	case STRUNCATE:
; 521  : 	case 0:
; 522  : 		break;
; 523  : 	default:
; 524  : 		AfxThrowInvalidArgException();

  00022	e9 00 00 00 00	 jmp	 ?AfxThrowInvalidArgException@@YGXXZ ; AfxThrowInvalidArgException
  00027	90		 npad	 1
$LN12@AfxCrtErro:

; 528  : }

  00028	00 00 00 00	 DD	 $LN7@AfxCrtErro
  0002c	00 00 00 00	 DD	 $LN4@AfxCrtErro
  00030	00 00 00 00	 DD	 $LN9@AfxCrtErro
  00034	00 00 00 00	 DD	 $LN9@AfxCrtErro
$LN11@AfxCrtErro:
  00038	00		 DB	 0
  00039	03		 DB	 3
  0003a	03		 DB	 3
  0003b	03		 DB	 3
  0003c	03		 DB	 3
  0003d	03		 DB	 3
  0003e	03		 DB	 3
  0003f	03		 DB	 3
  00040	03		 DB	 3
  00041	03		 DB	 3
  00042	03		 DB	 3
  00043	03		 DB	 3
  00044	01		 DB	 1
  00045	03		 DB	 3
  00046	03		 DB	 3
  00047	03		 DB	 3
  00048	03		 DB	 3
  00049	03		 DB	 3
  0004a	03		 DB	 3
  0004b	03		 DB	 3
  0004c	03		 DB	 3
  0004d	03		 DB	 3
  0004e	02		 DB	 2
  0004f	03		 DB	 3
  00050	03		 DB	 3
  00051	03		 DB	 3
  00052	03		 DB	 3
  00053	03		 DB	 3
  00054	03		 DB	 3
  00055	03		 DB	 3
  00056	03		 DB	 3
  00057	03		 DB	 3
  00058	03		 DB	 3
  00059	03		 DB	 3
  0005a	02		 DB	 2
  0005b	03		 DB	 3
  0005c	03		 DB	 3
  0005d	03		 DB	 3
  0005e	03		 DB	 3
  0005f	03		 DB	 3
  00060	03		 DB	 3
  00061	03		 DB	 3
  00062	03		 DB	 3
  00063	03		 DB	 3
  00064	03		 DB	 3
  00065	03		 DB	 3
  00066	03		 DB	 3
  00067	03		 DB	 3
  00068	03		 DB	 3
  00069	03		 DB	 3
  0006a	03		 DB	 3
  0006b	03		 DB	 3
  0006c	03		 DB	 3
  0006d	03		 DB	 3
  0006e	03		 DB	 3
  0006f	03		 DB	 3
  00070	03		 DB	 3
  00071	03		 DB	 3
  00072	03		 DB	 3
  00073	03		 DB	 3
  00074	03		 DB	 3
  00075	03		 DB	 3
  00076	03		 DB	 3
  00077	03		 DB	 3
  00078	03		 DB	 3
  00079	03		 DB	 3
  0007a	03		 DB	 3
  0007b	03		 DB	 3
  0007c	03		 DB	 3
  0007d	03		 DB	 3
  0007e	03		 DB	 3
  0007f	03		 DB	 3
  00080	03		 DB	 3
  00081	03		 DB	 3
  00082	03		 DB	 3
  00083	03		 DB	 3
  00084	03		 DB	 3
  00085	03		 DB	 3
  00086	03		 DB	 3
  00087	03		 DB	 3
  00088	00		 DB	 0
?AfxCrtErrorCheck@@YAHH@Z ENDP				; AfxCrtErrorCheck
_TEXT	ENDS
; Function compile flags: /Ogtp
; File C:\Program Files (x86)\Windows Kits\10\Include\10.0.26100.0\ucrt\stdio.h
;	COMDAT _sprintf
_TEXT	SEGMENT
__Buffer$ = 8						; size = 4
__Format$ = 12						; size = 4
_sprintf PROC						; COMDAT

; 1771 :     {

  00000	55		 push	 ebp
  00001	8b ec		 mov	 ebp, esp

; 1392 :         int const _Result = __stdio_common_vsprintf(

  00003	8d 45 10	 lea	 eax, DWORD PTR __Format$[ebp+4]
  00006	50		 push	 eax
  00007	6a 00		 push	 0
  00009	ff 75 0c	 push	 DWORD PTR __Format$[ebp]
  0000c	6a ff		 push	 -1
  0000e	ff 75 08	 push	 DWORD PTR __Buffer$[ebp]
  00011	e8 00 00 00 00	 call	 ___local_stdio_printf_options
  00016	8b 08		 mov	 ecx, DWORD PTR [eax]
  00018	ff 70 04	 push	 DWORD PTR [eax+4]
  0001b	83 c9 01	 or	 ecx, 1
  0001e	51		 push	 ecx
  0001f	e8 00 00 00 00	 call	 ___stdio_common_vsprintf

; 1393 :             _CRT_INTERNAL_LOCAL_PRINTF_OPTIONS | _CRT_INTERNAL_PRINTF_LEGACY_VSPRINTF_NULL_TERMINATION,
; 1394 :             _Buffer, _BufferCount, _Format, _Locale, _ArgList);
; 1395 : 
; 1396 :         return _Result < 0 ? -1 : _Result;

  00024	83 c9 ff	 or	 ecx, -1
  00027	83 c4 1c	 add	 esp, 28			; 0000001cH
  0002a	85 c0		 test	 eax, eax
  0002c	0f 48 c1	 cmovs	 eax, ecx

; 1772 :         int _Result;
; 1773 :         va_list _ArgList;
; 1774 :         __crt_va_start(_ArgList, _Format);
; 1775 : 
; 1776 :         _Result = _vsprintf_l(_Buffer, _Format, NULL, _ArgList);
; 1777 : 
; 1778 :         __crt_va_end(_ArgList);
; 1779 :         return _Result;
; 1780 :     }

  0002f	5d		 pop	 ebp
  00030	c3		 ret	 0
_sprintf ENDP
_TEXT	ENDS
; Function compile flags: /Ogtp
; File C:\Program Files (x86)\Windows Kits\10\Include\10.0.26100.0\ucrt\corecrt_stdio_config.h
;	COMDAT ___local_stdio_printf_options
_TEXT	SEGMENT
___local_stdio_printf_options PROC			; COMDAT

; 91   :         static unsigned __int64 _OptionsStorage;
; 92   :         return &_OptionsStorage;

  00000	b8 00 00 00 00	 mov	 eax, OFFSET ?_OptionsStorage@?1??__local_stdio_printf_options@@9@4_KA ; `__local_stdio_printf_options'::`2'::_OptionsStorage

; 93   :     }

  00005	c3		 ret	 0
___local_stdio_printf_options ENDP
_TEXT	ENDS
; Function compile flags: /Ogtp
; File C:\IAGOS\server\v18\Source\Source\_Database\DbItemUpdate.cpp
;	COMDAT ?__empty_global_delete@@YAXPAXI@Z
_TEXT	SEGMENT
___formal$ = 8						; size = 4
___formal$ = 12						; size = 4
?__empty_global_delete@@YAXPAXI@Z PROC			; __empty_global_delete, COMDAT

  00000	c2 00 00	 ret	 0
?__empty_global_delete@@YAXPAXI@Z ENDP			; __empty_global_delete
_TEXT	ENDS
; Function compile flags: /Ogtp
; File C:\IAGOS\server\v18\Source\Source\_Database\DbItemUpdate.cpp
;	COMDAT ?__empty_global_delete@@YAXPAX@Z
_TEXT	SEGMENT
___formal$ = 8						; size = 4
?__empty_global_delete@@YAXPAX@Z PROC			; __empty_global_delete, COMDAT

  00000	c2 00 00	 ret	 0
?__empty_global_delete@@YAXPAX@Z ENDP			; __empty_global_delete
_TEXT	ENDS
END
