; Listing generated by Microsoft (R) Optimizing Compiler Version 19.44.35225.0 

	TITLE	C:\IAGOS\server\v18\Source\Output\DatabaseServer\Release\DbManagerFun.obj
	.686P
	.XMM
	include listing.inc
	.model	flat

INCLUDELIB LIBCMT
INCLUDELIB OLDNAMES

PUBLIC	?__empty_global_delete@@YAXPAX@Z		; __empty_global_delete
PUBLIC	?__empty_global_delete@@YAXPAXI@Z		; __empty_global_delete
PUBLIC	___local_stdio_printf_options
PUBLIC	___local_stdio_scanf_options
PUBLIC	_sprintf
PUBLIC	_sscanf
PUBLIC	?AtlThrowImpl@ATL@@YGXJ@Z			; ATL::AtlThrowImpl
PUBLIC	??0exception@std@@QAE@ABV01@@Z			; std::exception::exception
PUBLIC	??1exception@std@@UAE@XZ			; std::exception::~exception
PUBLIC	?what@exception@std@@UBEPBDXZ			; std::exception::what
PUBLIC	??_Gexception@std@@UAEPAXI@Z			; std::exception::`scalar deleting destructor'
PUBLIC	??0bad_alloc@std@@QAE@ABV01@@Z			; std::bad_alloc::bad_alloc
PUBLIC	??_Gbad_alloc@std@@UAEPAXI@Z			; std::bad_alloc::`scalar deleting destructor'
PUBLIC	??0bad_array_new_length@std@@QAE@XZ		; std::bad_array_new_length::bad_array_new_length
PUBLIC	??1bad_array_new_length@std@@UAE@XZ		; std::bad_array_new_length::~bad_array_new_length
PUBLIC	??0bad_array_new_length@std@@QAE@ABV01@@Z	; std::bad_array_new_length::bad_array_new_length
PUBLIC	??_Gbad_array_new_length@std@@UAEPAXI@Z		; std::bad_array_new_length::`scalar deleting destructor'
PUBLIC	?_Throw_bad_array_new_length@std@@YAXXZ		; std::_Throw_bad_array_new_length
PUBLIC	?_Xlen_string@std@@YAXXZ			; std::_Xlen_string
PUBLIC	?_Throw_tree_length_error@std@@YAXXZ		; std::_Throw_tree_length_error
PUBLIC	?GetIntFromStr@@YAHPADPAH@Z			; GetIntFromStr
PUBLIC	?GetInt64PaFromStr@@YA_JPADPAH@Z		; GetInt64PaFromStr
PUBLIC	?GetIntPaFromStr@@YAHPADPAH@Z			; GetIntPaFromStr
PUBLIC	?GetItemProp@CProject@@QAEPAUItemProp@@PBD@Z	; CProject::GetItemProp
PUBLIC	?_Insert_node@?$_Tree_val@U?$_Tree_simple_types@U?$pair@$$CBKPAVIBuff@@@std@@@std@@@std@@QAEPAU?$_Tree_node@U?$pair@$$CBKPAVIBuff@@@std@@PAX@2@U?$_Tree_id@PAU?$_Tree_node@U?$pair@$$CBKPAVIBuff@@@std@@PAX@std@@@2@QAU32@@Z ; std::_Tree_val<std::_Tree_simple_types<std::pair<unsigned long const ,IBuff *> > >::_Insert_node
PUBLIC	?_Xlength@?$vector@JV?$allocator@J@std@@@std@@CAXXZ ; std::vector<long,std::allocator<long> >::_Xlength
PUBLIC	?GetItem@?$CItemContainer@VCItemElem@@@@QAEPAVCItemElem@@PAUItemProp@@HHH@Z ; CItemContainer<CItemElem>::GetItem
PUBLIC	?IsEquip@?$CItemContainer@VCItemElem@@@@QAEHK@Z	; CItemContainer<CItemElem>::IsEquip
PUBLIC	?RemoveAt@?$CItemContainer@VCItemElem@@@@QAEXK@Z ; CItemContainer<CItemElem>::RemoveAt
PUBLIC	?UnEquip@?$CItemContainer@VCItemElem@@@@QAEHK@Z	; CItemContainer<CItemElem>::UnEquip
PUBLIC	?RemoveQuest@CDbManager@@QAEHXZ			; CDbManager::RemoveQuest
PUBLIC	?GetBank@CDbManager@@QAEHPAVCMover@@PAVCQuery@@PAUtagDB_OVERLAPPED_PLUS@@H@Z ; CDbManager::GetBank
PUBLIC	?GetInventory@CDbManager@@QAEHPAVCMover@@PAVCQuery@@PAUtagDB_OVERLAPPED_PLUS@@@Z ; CDbManager::GetInventory
PUBLIC	?LoadPiercingInfo@CDbManager@@QAEXAAVCItemElem@@PADPAH@Z ; CDbManager::LoadPiercingInfo
PUBLIC	?GetPiercingInfoFromMail@CDbManager@@QAEXPAVCQuery@@PAVCItemElem@@@Z ; CDbManager::GetPiercingInfoFromMail
PUBLIC	?GetPocket@CDbManager@@QAEHPAVCMover@@PAVCQuery@@PAUtagDB_OVERLAPPED_PLUS@@@Z ; CDbManager::GetPocket
PUBLIC	?GetEquipment@CDbManager@@QAEHPAVCMover@@PAVCQuery@@PAUtagDB_OVERLAPPED_PLUS@@@Z ; CDbManager::GetEquipment
PUBLIC	?GetTaskBar@CDbManager@@QAEHPAVCMover@@PAVCQuery@@PAUtagDB_OVERLAPPED_PLUS@@@Z ; CDbManager::GetTaskBar
PUBLIC	?GetCardCube@CDbManager@@QAEXPAVCMover@@PAVCQuery@@PAUtagDB_OVERLAPPED_PLUS@@@Z ; CDbManager::GetCardCube
PUBLIC	?GetBaseCharacter@CDbManager@@QAEXPAVCMover@@PAVCQuery@@PAUtagDB_OVERLAPPED_PLUS@@@Z ; CDbManager::GetBaseCharacter
PUBLIC	?GetSkill@CDbManager@@QAEHPAVCMover@@PAVCQuery@@PAUtagDB_OVERLAPPED_PLUS@@@Z ; CDbManager::GetSkill
PUBLIC	?GetJobLv@CDbManager@@QAEXPAVCMover@@PAVCQuery@@PAUtagDB_OVERLAPPED_PLUS@@@Z ; CDbManager::GetJobLv
PUBLIC	?GetQuest@CDbManager@@QAEHPAVCMover@@PAVCQuery@@PAUtagDB_OVERLAPPED_PLUS@@@Z ; CDbManager::GetQuest
PUBLIC	?GetSMMode@CDbManager@@QAEHPAVCMover@@PAVCQuery@@PAUtagDB_OVERLAPPED_PLUS@@@Z ; CDbManager::GetSMMode
PUBLIC	?GetSKillInfluence@CDbManager@@QAEHPAVCMover@@PAVCQuery@@PAUtagDB_OVERLAPPED_PLUS@@@Z ; CDbManager::GetSKillInfluence
PUBLIC	?GetHonor@CDbManager@@QAEXPAVCMover@@PAVCQuery@@PAUtagDB_OVERLAPPED_PLUS@@@Z ; CDbManager::GetHonor
PUBLIC	?GetOneItem@CDbManager@@QAEHPAVCItemElem@@PADPAH@Z ; CDbManager::GetOneItem
PUBLIC	?GetOneSkill@CDbManager@@QAEXPAUtagSKILL@@PADPAH@Z ; CDbManager::GetOneSkill
PUBLIC	?GetOneQuest@CDbManager@@QAEXPAUtagQuest@@PADPAH@Z ; CDbManager::GetOneQuest
PUBLIC	?GetBankMover@CDbManager@@QAEHPAVCMover@@PAVCQuery@@H@Z ; CDbManager::GetBankMover
PUBLIC	?GetGuildBank@CDbManager@@QAEXPAV?$CItemContainer@VCItemElem@@@@PAVCQuery@@@Z ; CDbManager::GetGuildBank
PUBLIC	?IsAbnormalPlayerData@CDbManager@@AAEHPAVCMover@@@Z ; CDbManager::IsAbnormalPlayerData
PUBLIC	?NormalizePlayerData@CDbManager@@AAEHPAVCMover@@@Z ; CDbManager::NormalizePlayerData
PUBLIC	?GetStrTime@CDbManager@@AAEXPAVCTime@ATL@@PBD@Z	; CDbManager::GetStrTime
PUBLIC	?RemovePenya@CDbManager@@AAEHPAVCQuery@@PADPAVCMover@@HHD@Z ; CDbManager::RemovePenya
PUBLIC	?RemoveItem@CDbManager@@AAEKPAVCQuery@@PADHPAVCMover@@1HHHHD@Z ; CDbManager::RemoveItem
PUBLIC	?RemoveItemBank@CDbManager@@AAEKPAUItemProp@@PAVCMover@@HHHH@Z ; CDbManager::RemoveItemBank
PUBLIC	?RemoveItemPocket@CDbManager@@AAEKPAUItemProp@@PAVCMover@@HHHH@Z ; CDbManager::RemoveItemPocket
PUBLIC	?RemoveItemInventory@CDbManager@@AAEKPAUItemProp@@PAVCMover@@HHHH@Z ; CDbManager::RemoveItemInventory
PUBLIC	?GetRemoveItem@CDbManager@@AAEHPAVCQuery@@AAHPAD1111AAD@Z ; CDbManager::GetRemoveItem
PUBLIC	?GetStrFromDBFormat@CDbManager@@AAEXPADPBDAAH@Z	; CDbManager::GetStrFromDBFormat
PUBLIC	?GetDBFormatStr@CDbManager@@AAEXPADHPBD@Z	; CDbManager::GetDBFormatStr
PUBLIC	?SetDBFormatStr@CDbManager@@AAEXPADHPBD@Z	; CDbManager::SetDBFormatStr
PUBLIC	??$_Resize@J@?$vector@JV?$allocator@J@std@@@std@@AAEXIABJ@Z ; std::vector<long,std::allocator<long> >::_Resize<long>
PUBLIC	??1?$_Alloc_construct_ptr@V?$allocator@U?$_Tree_node@U?$pair@$$CBKPAVIBuff@@@std@@PAX@std@@@std@@@std@@QAE@XZ ; std::_Alloc_construct_ptr<std::allocator<std::_Tree_node<std::pair<unsigned long const ,IBuff *>,void *> > >::~_Alloc_construct_ptr<std::allocator<std::_Tree_node<std::pair<unsigned long const ,IBuff *>,void *> > >
PUBLIC	??$_Uninitialized_fill_n@V?$allocator@J@std@@@std@@YAPAJPAJIABJAAV?$allocator@J@0@@Z ; std::_Uninitialized_fill_n<std::allocator<long> >
PUBLIC	??$_Is_all_bits_zero@J@std@@YA_NABJ@Z		; std::_Is_all_bits_zero<long>
PUBLIC	??$_Fill_zero_memset@PAJ@std@@YAXPAJI@Z		; std::_Fill_zero_memset<long *>
PUBLIC	??$?MDU?$char_traits@D@std@@V?$allocator@D@1@@std@@YA_NABV?$basic_string@DU?$char_traits@D@std@@V?$allocator@D@2@@0@0@Z ; std::operator<<char,std::char_traits<char>,std::allocator<char> >
PUBLIC	??$_Copy_memmove@PAJPAJ@std@@YAPAJPAJ00@Z	; std::_Copy_memmove<long *,long *>
PUBLIC	??$_Copy_memmove_tail@PAJ@std@@YAPAJQBDQAJII@Z	; std::_Copy_memmove_tail<long *>
PUBLIC	??$_Allocate_manually_vector_aligned@U_Default_allocate_traits@std@@@std@@YAPAXI@Z ; std::_Allocate_manually_vector_aligned<std::_Default_allocate_traits>
PUBLIC	??0?$vector@HV?$allocator@H@std@@@std@@QAE@XZ	; std::vector<int,std::allocator<int> >::vector<int,std::allocator<int> >
PUBLIC	??1?$vector@HV?$allocator@H@std@@@std@@QAE@XZ	; std::vector<int,std::allocator<int> >::~vector<int,std::allocator<int> >
PUBLIC	?_Xlength@?$vector@HV?$allocator@H@std@@@std@@CAXXZ ; std::vector<int,std::allocator<int> >::_Xlength
PUBLIC	??$_Emplace_reallocate@ABH@?$vector@HV?$allocator@H@std@@@std@@AAEPAHQAHABH@Z ; std::vector<int,std::allocator<int> >::_Emplace_reallocate<int const &>
PUBLIC	??$_Copy_memmove@PAHPAH@std@@YAPAHPAH00@Z	; std::_Copy_memmove<int *,int *>
PUBLIC	??$_Copy_memmove_tail@PAH@std@@YAPAHQBDQAHII@Z	; std::_Copy_memmove_tail<int *>
PUBLIC	?_OptionsStorage@?1??__local_stdio_printf_options@@9@4_KA ; `__local_stdio_printf_options'::`2'::_OptionsStorage
PUBLIC	?_OptionsStorage@?1??__local_stdio_scanf_options@@9@4_KA ; `__local_stdio_scanf_options'::`2'::_OptionsStorage
PUBLIC	??_7exception@std@@6B@				; std::exception::`vftable'
PUBLIC	??_C@_0BC@EOODALEL@Unknown?5exception@		; `string'
PUBLIC	??_7bad_alloc@std@@6B@				; std::bad_alloc::`vftable'
PUBLIC	??_7bad_array_new_length@std@@6B@		; std::bad_array_new_length::`vftable'
PUBLIC	??_C@_0BF@KINCDENJ@bad?5array?5new?5length@	; `string'
PUBLIC	??_R0?AVexception@std@@@8			; std::exception `RTTI Type Descriptor'
PUBLIC	__CT??_R0?AVexception@std@@@8??0exception@std@@QAE@ABV01@@Z12
PUBLIC	__TI3?AVbad_array_new_length@std@@
PUBLIC	__CTA3?AVbad_array_new_length@std@@
PUBLIC	??_R0?AVbad_array_new_length@std@@@8		; std::bad_array_new_length `RTTI Type Descriptor'
PUBLIC	__CT??_R0?AVbad_array_new_length@std@@@8??0bad_array_new_length@std@@QAE@ABV01@@Z12
PUBLIC	??_R0?AVbad_alloc@std@@@8			; std::bad_alloc `RTTI Type Descriptor'
PUBLIC	__CT??_R0?AVbad_alloc@std@@@8??0bad_alloc@std@@QAE@ABV01@@Z12
PUBLIC	??_C@_0BA@JFNIOLAK@string?5too?5long@		; `string'
PUBLIC	??_C@_0BB@GCADKGJO@map?1set?5too?5long@		; `string'
PUBLIC	??_C@_09GBAEEKDE@?$CFs?0?5?$CFd?7?$CFs@		; `string'
PUBLIC	??_C@_0BA@FOIKENOD@vector?5too?5long@		; `string'
PUBLIC	??_R4exception@std@@6B@				; std::exception::`RTTI Complete Object Locator'
PUBLIC	??_R3exception@std@@8				; std::exception::`RTTI Class Hierarchy Descriptor'
PUBLIC	??_R2exception@std@@8				; std::exception::`RTTI Base Class Array'
PUBLIC	??_R1A@?0A@EA@exception@std@@8			; std::exception::`RTTI Base Class Descriptor at (0,-1,0,64)'
PUBLIC	??_R4bad_array_new_length@std@@6B@		; std::bad_array_new_length::`RTTI Complete Object Locator'
PUBLIC	??_R3bad_array_new_length@std@@8		; std::bad_array_new_length::`RTTI Class Hierarchy Descriptor'
PUBLIC	??_R2bad_array_new_length@std@@8		; std::bad_array_new_length::`RTTI Base Class Array'
PUBLIC	??_R1A@?0A@EA@bad_array_new_length@std@@8	; std::bad_array_new_length::`RTTI Base Class Descriptor at (0,-1,0,64)'
PUBLIC	??_R1A@?0A@EA@bad_alloc@std@@8			; std::bad_alloc::`RTTI Base Class Descriptor at (0,-1,0,64)'
PUBLIC	??_R3bad_alloc@std@@8				; std::bad_alloc::`RTTI Class Hierarchy Descriptor'
PUBLIC	??_R2bad_alloc@std@@8				; std::bad_alloc::`RTTI Base Class Array'
PUBLIC	??_R4bad_alloc@std@@6B@				; std::bad_alloc::`RTTI Complete Object Locator'
PUBLIC	??_C@_0CI@IEFGPJMF@GetDBFormatStr?3?5nLen?5?$DN?5?$CFd?0?5nMax@ ; `string'
PUBLIC	??_C@_03BMNKJJEN@?$CF2X@			; `string'
PUBLIC	??_C@_0CI@KADALJOE@SetDBFormatStr?3?5nLen?5?$DN?5?$CFd?0?5nMax@ ; `string'
PUBLIC	??_C@_0L@FONFFEJF@m_idPlayer@			; `string'
PUBLIC	??_C@_0N@KIBMFHG@m_dwGoldBank@			; `string'
PUBLIC	??_C@_06BAMDHIIP@m_Bank@			; `string'
PUBLIC	??_C@_0P@KMLFLAAK@m_apIndex_Bank@		; `string'
PUBLIC	??_C@_0BC@HHMCMCCB@m_dwObjIndex_Bank@		; `string'
PUBLIC	??_C@_09CHFBCGKD@m_extBank@			; `string'
PUBLIC	??_C@_0P@HANLGJJC@m_BankPiercing@		; `string'
PUBLIC	??_C@_09DAKBPAHF@szBankPet@			; `string'
PUBLIC	??_C@_0DN@JBKLBOHO@C?3?2IAGOS?2server?2v18?2Source?2Sour@ ; `string'
PUBLIC	??_C@_0CM@JMMGLGKB@Join?3?3Bank?5?3?5?$DM?$DM?5Not?5Prop?4?5?$CFd?0?5?$CF@ ; `string'
PUBLIC	??_C@_0CG@GPGFAEMD@Join?3?3Bank?5?3?5?$DM?$DM?5MAX_BANK?5?$CFd?6Ban@ ; `string'
PUBLIC	??_C@_09EFEJAHGE@Bank?5?$DN?5?$CFs@		; `string'
PUBLIC	??_C@_0M@GKPNPIJD@m_GuildBank@			; `string'
PUBLIC	??_C@_0P@KBFNBDP@GuildBank?5?$DN?5?$CFs@	; `string'
PUBLIC	??_C@_0P@CLIOIOKN@m_extGuildBank@		; `string'
PUBLIC	??_C@_0BE@FOMLDJLH@m_GuildBankPiercing@		; `string'
PUBLIC	??_C@_0P@MOKIMIMD@szGuildBankPet@		; `string'
PUBLIC	??_C@_06DKFLNFEC@szItem@			; `string'
PUBLIC	??_C@_07ODPBDBGJ@szIndex@			; `string'
PUBLIC	??_C@_0L@LNBLBPOC@szObjIndex@			; `string'
PUBLIC	??_C@_05MNJCPEEI@szExt@				; `string'
PUBLIC	??_C@_0L@MAAIPEIA@szPiercing@			; `string'
PUBLIC	??_C@_05LOKLGDMG@szPet@				; `string'
PUBLIC	??_C@_07LCDBAOIB@nPocket@			; `string'
PUBLIC	??_C@_08MECCMHDE@bExpired@			; `string'
PUBLIC	??_C@_0BA@OHENMHDO@tExpirationDate@		; `string'
PUBLIC	??_C@_0BP@BKCBFKFA@Join?3Pocket?3Property?5not?5found@ ; `string'
PUBLIC	??_C@_0CB@EAAOHIMM@Join?3Pocket?3POCKET_SLOT_SIZE_1_@ ; `string'
PUBLIC	??_C@_0M@GIEPEBGM@m_Inventory@			; `string'
PUBLIC	??_C@_0CF@JJEIFMEB@Inventory?5?3?5?$DM?$DM?5?G?A?$LH?N?F?$NL?F?$LM?5?$LO?x?$MA?$LN?4?5?$CF@ ; `string'
PUBLIC	??_C@_0CG@KLFMFNBG@Join?3?3Inventory?5?3?5?$DM?$DM?5IndexItem?5@ ; `string'
PUBLIC	??_C@_0P@FEOHFPFP@Inventory?5?$DN?5?$CFs@	; `string'
PUBLIC	??_C@_09HGEFOOAJ@m_apIndex@			; `string'
PUBLIC	??_C@_0N@KMOLMNCJ@m_dwObjIndex@			; `string'
PUBLIC	??_C@_0P@CJDMDHFC@m_extInventory@		; `string'
PUBLIC	??_C@_0BE@OAKPNEDM@m_InventoryPiercing@		; `string'
PUBLIC	??_C@_0P@GAFIDLHN@szInventoryPet@		; `string'
PUBLIC	??_C@_0N@JGBJEPOF@nPiercedSize@			; `string'
PUBLIC	??_C@_0L@IJJPBAHM@dwItemId?$CFd@		; `string'
PUBLIC	??_C@_0O@DNIGFLMJ@nPiercedSize2@		; `string'
PUBLIC	??_C@_0P@MCBMMJCE@m_adwEquipment@		; `string'
PUBLIC	??_C@_0O@GNBKFLOM@m_aSlotApplet@		; `string'
PUBLIC	??_C@_0M@OJJDLIJE@m_aSlotItem@			; `string'
PUBLIC	??_C@_0N@CPNBAAIJ@m_aSlotQueue@			; `string'
PUBLIC	??_C@_0L@NJKCPPDJ@m_SkillBar@			; `string'
PUBLIC	??_C@_08HDDJDJAG@m_szName@			; `string'
PUBLIC	??_C@_0L@LGPNILBK@m_vScale_x@			; `string'
PUBLIC	??_C@_0L@MOMKJNEM@m_dwMotion@			; `string'
PUBLIC	??_C@_09DHJEDBNA@dwWorldID@			; `string'
PUBLIC	??_C@_08FJAEPELD@m_vPos_x@			; `string'
PUBLIC	??_C@_08EABPMFPC@m_vPos_y@			; `string'
PUBLIC	??_C@_08GLDCJGDB@m_vPos_z@			; `string'
PUBLIC	??_C@_08MNAKGHOO@m_fAngle@			; `string'
PUBLIC	??_C@_0BB@FJPKIIEM@m_szCharacterKey@		; `string'
PUBLIC	??_C@_0M@PMKOKNNK@m_nHitPoint@			; `string'
PUBLIC	??_C@_0N@GFDNJNAL@m_nManaPoint@			; `string'
PUBLIC	??_C@_0BA@COGKPMEJ@m_nFatiguePoint@		; `string'
PUBLIC	??_C@_0M@BCEJBJHD@m_dwSkinSet@			; `string'
PUBLIC	??_C@_0N@HFOELFNC@m_dwHairMesh@			; `string'
PUBLIC	??_C@_0O@ICOGEKE@m_dwHairColor@			; `string'
PUBLIC	??_C@_0N@BHMOBEMJ@m_dwHeadMesh@			; `string'
PUBLIC	??_C@_07KMHLCHEI@m_dwSex@			; `string'
PUBLIC	??_C@_0BA@MHMDKNKE@m_dwRideItemIdx@		; `string'
PUBLIC	??_C@_08JIMIMGKM@m_dwGold@			; `string'
PUBLIC	??_C@_06LDMBEDML@m_nJob@			; `string'
PUBLIC	??_C@_09OGJJHMJA@m_idparty@			; `string'
PUBLIC	??_C@_0L@IFGJAIGP@m_nPKValue@			; `string'
PUBLIC	??_C@_0BB@FMCDCCD@m_dwPKPropensity@		; `string'
PUBLIC	??_C@_09BCFDFPLE@m_dwPKExp@			; `string'
PUBLIC	??_C@_0M@IJMKHCEF@m_nAngelExp@			; `string'
PUBLIC	??_C@_0O@COEFFCNN@m_nAngelLevel@		; `string'
PUBLIC	??_C@_0O@MHHICKD@m_idMuerderer@			; `string'
PUBLIC	??_C@_07DKPMJIJG@m_nFame@			; `string'
PUBLIC	??_C@_0M@BFJHKIPJ@m_pActMover@			; `string'
PUBLIC	??_C@_06MEGBAFBO@m_nStr@			; `string'
PUBLIC	??_C@_06KFIOEEIM@m_nSta@			; `string'
PUBLIC	??_C@_06OOKEELPF@m_nDex@			; `string'
PUBLIC	??_C@_06LMCODDMF@m_nInt@			; `string'
PUBLIC	??_C@_08DBNLLHK@m_nLevel@			; `string'
PUBLIC	??_C@_07JKGEFCCA@m_nExp1@			; `string'
PUBLIC	??_C@_07DKFGLCKP@m_nFuel@			; `string'
PUBLIC	??_C@_0M@FGBAAHFN@m_tmAccFuel@			; `string'
PUBLIC	??_C@_0BB@IGOJBJIH@m_idMarkingWorld@		; `string'
PUBLIC	??_C@_0BA@LIDMOLFI@m_vMarkingPos_x@		; `string'
PUBLIC	??_C@_0BA@KBCHNKBJ@m_vMarkingPos_y@		; `string'
PUBLIC	??_C@_0BA@IKAKIJNK@m_vMarkingPos_z@		; `string'
PUBLIC	??_C@_0M@HLGMCMLP@m_nRemainGP@			; `string'
PUBLIC	??_C@_0M@HKFGBBGJ@m_nFlightLv@			; `string'
PUBLIC	??_C@_06JIIKDJFF@m_nFxp@			; `string'
PUBLIC	??_C@_08MFHALOPE@m_dwMode@			; `string'
PUBLIC	??_C@_0M@MAONGJJI@m_nDeathExp@			; `string'
PUBLIC	??_C@_0O@JALGGJEE@m_nDeathLevel@		; `string'
PUBLIC	??_C@_09MFLDFMGF@m_SkillLv@			; `string'
PUBLIC	??_C@_0N@FMKKCMCC@m_SkillPoint@			; `string'
PUBLIC	??_C@_08JOEHCELE@m_nHonor@			; `string'
PUBLIC	??_C@_0CA@DBOKEMLK@usp_Master_Select?5?8?$CF02d?8?0?8?$CF07d?8@ ; `string'
PUBLIC	??_C@_03KHPNBODO@sec@				; `string'
PUBLIC	??_C@_03BFBOJKCM@c01@				; `string'
PUBLIC	??_C@_03DODDMJOP@c02@				; `string'
PUBLIC	??_C@_03CHCIPIKO@c03@				; `string'
PUBLIC	??_C@_03GIGJGOGJ@c04@				; `string'
PUBLIC	??_C@_03HBHCFPCI@c05@				; `string'
PUBLIC	??_C@_03FKFPAMOL@c06@				; `string'
PUBLIC	??_C@_03EDEEDNKK@c07@				; `string'
PUBLIC	??_C@_03MENMCBGF@c08@				; `string'
PUBLIC	??_C@_03NNMHBACE@c09@				; `string'
PUBLIC	??_C@_03NMHMBFK@c10@				; `string'
PUBLIC	??_C@_03BENMPABL@c11@				; `string'
PUBLIC	??_C@_03DPPBKDNI@c12@				; `string'
PUBLIC	??_C@_03CGOKJCJJ@c13@				; `string'
PUBLIC	??_C@_03GJKLAEFO@c14@				; `string'
PUBLIC	??_C@_03HALADFBP@c15@				; `string'
PUBLIC	??_C@_03FLJNGGNM@c16@				; `string'
PUBLIC	??_C@_03ECIGFHJN@c17@				; `string'
PUBLIC	??_C@_03MFBOELFC@c18@				; `string'
PUBLIC	??_C@_03NMAFHKBD@c19@				; `string'
PUBLIC	??_C@_03PIBHPAD@c20@				; `string'
PUBLIC	??_C@_03BGJKEOEC@c21@				; `string'
PUBLIC	??_C@_03DNLHBNIB@c22@				; `string'
PUBLIC	??_C@_03CEKMCMMA@c23@				; `string'
PUBLIC	??_C@_03GLONLKAH@c24@				; `string'
PUBLIC	??_C@_03HCPGILEG@c25@				; `string'
PUBLIC	??_C@_03FJNLNIIF@c26@				; `string'
PUBLIC	??_C@_03EAMAOJME@c27@				; `string'
PUBLIC	??_C@_03MHFIPFAL@c28@				; `string'
PUBLIC	??_C@_03NOEDMEEK@c29@				; `string'
PUBLIC	??_C@_03OEDBFDE@c30@				; `string'
PUBLIC	??_C@_03BHFICEHF@c31@				; `string'
PUBLIC	??_C@_03DMHFHHLG@c32@				; `string'
PUBLIC	??_C@_03CFGOEGPH@c33@				; `string'
PUBLIC	??_C@_03GKCPNADA@c34@				; `string'
PUBLIC	??_C@_03HDDEOBHB@c35@				; `string'
PUBLIC	??_C@_03FIBJLCLC@c36@				; `string'
PUBLIC	??_C@_03EBACIDPD@c37@				; `string'
PUBLIC	??_C@_03MGJKJPDM@c38@				; `string'
PUBLIC	??_C@_03NPIBKOHN@c39@				; `string'
PUBLIC	??_C@_03LAMADLB@c40@				; `string'
PUBLIC	??_C@_03BCBHDCPA@c41@				; `string'
PUBLIC	??_C@_03DJDKGBDD@c42@				; `string'
PUBLIC	??_C@_03CACBFAHC@c43@				; `string'
PUBLIC	??_C@_03GPGAMGLF@c44@				; `string'
PUBLIC	??_C@_03HGHLPHPE@c45@				; `string'
PUBLIC	??_C@_03FNFGKEDH@c46@				; `string'
PUBLIC	??_C@_03EEENJFHG@c47@				; `string'
PUBLIC	??_C@_03MDNFIJLJ@c48@				; `string'
PUBLIC	??_C@_03NKMOLIPI@c49@				; `string'
PUBLIC	??_C@_03KMOGJIG@c50@				; `string'
PUBLIC	??_C@_0CE@IGLOLMFD@uspLoadCharacterSkill?5?8?$CF02d?8?0?8?$CF@ ; `string'
PUBLIC	??_C@_0O@MDJBOIOM@SkillPosition@		; `string'
PUBLIC	??_C@_07CBFCHMIH@SkillID@			; `string'
PUBLIC	??_C@_07MKOJOKBN@SkillLv@			; `string'
PUBLIC	??_C@_0BC@KGPDILGI@m_lpQuestCntArray@		; `string'
PUBLIC	??_C@_0BB@HNPOCMEF@m_aCompleteQuest@		; `string'
PUBLIC	??_C@_0BA@DPOFAGJ@m_aCheckedQuest@		; `string'
PUBLIC	??_C@_0L@JCPOPMED@m_dwSMTime@			; `string'
PUBLIC	??_C@_04HIBGFPH@NULL@				; `string'
PUBLIC	??_C@_0P@KFJOMEEC@SkillInfluence@		; `string'
PUBLIC	??_C@_05DIMENFA@m_nNo@				; `string'
PUBLIC	??_C@_09GAPLKBDN@Item_Name@			; `string'
PUBLIC	??_C@_0L@IOKBDDFK@Item_count@			; `string'
PUBLIC	??_C@_0BB@JLNDCIFJ@m_nAbilityOption@		; `string'
PUBLIC	??_C@_05JNKNAC@State@				; `string'
PUBLIC	??_C@_0O@PJIGDEIK@m_bItemResist@		; `string'
PUBLIC	??_C@_0BH@DKIALLAG@m_nResistAbilityOption@	; `string'
PUBLIC	??_C@_0BL@GOICAOCF@Remove?5NULL?5Item_Name?5?3?5?$CFs@ ; `string'
PUBLIC	??_C@_0BL@DMKMHKMC@Remove?5Not?5Data?5State?5?3?5?$CFc@ ; `string'
PUBLIC	??_C@_0BG@EGBCIKAA@Not?5UnEquip?5?3?5?$CFs?0?5?$CFs?5@ ; `string'
PUBLIC	??_C@_0BI@OFGDADEH@Not?5Inventory?5?3?5?$CFs?0?5?$CFs?5@ ; `string'
PUBLIC	??_C@_0BP@MKOBOPPN@item?5not?5found?5?9?5bank?3?5?$CFs?0?5?$CFs?5@ ; `string'
PUBLIC	??_C@_0CB@HEHGABA@item?5not?5found?5?9?5Pocket?3?5?$CFs?0?5?$CFs@ ; `string'
PUBLIC	??_C@_0CC@JKMJFPOD@call?5BOOL?5CDbManager?3?3RemoveQue@ ; `string'
PUBLIC	??_C@_0BA@DPPBFHPJ@removequest?4txt@		; `string'
PUBLIC	??_C@_0CH@EEGILGJF@fail?5to?5connect?3?5dsn?$DN?$CFs?0?5id?$DN?$CFs?0@ ; `string'
PUBLIC	??_C@_0HG@LPNEKFLC@SELECT?5m_idPlayer?0?5m_lpQuestCnt@ ; `string'
PUBLIC	??_C@_0GF@KIGMAII@SELECT?5m_idPlayer?0?5m_lpQuestCnt@ ; `string'
PUBLIC	??_C@_0BA@PHPFGNFH@query?5error?3?5?$CFs@	; `string'
PUBLIC	??_C@_0JG@EPDAEJAA@UPDATE?5CHARACTER_TBL?5SET?5m_lpQu@ ; `string'
PUBLIC	??_C@_0BG@JHIJALBF@query_removequest?4txt@	; `string'
PUBLIC	??_C@_0BF@KCBBBMFM@RemoveQuest?5complete@	; `string'
PUBLIC	__real@4f000000
EXTRN	??2@YAPAXI@Z:PROC				; operator new
EXTRN	??3@YAXPAXI@Z:PROC				; operator delete
EXTRN	??_U@YAPAXI@Z:PROC				; operator new[]
EXTRN	??_V@YAXPAX@Z:PROC				; operator delete[]
EXTRN	___report_rangecheckfailure:PROC
EXTRN	__invoke_watson:PROC
EXTRN	_strncpy:PROC
EXTRN	__imp__OutputDebugStringA@4:PROC
EXTRN	__imp__EnterCriticalSection@4:PROC
EXTRN	__imp__LeaveCriticalSection@4:PROC
EXTRN	___stdio_common_vsprintf:PROC
EXTRN	___stdio_common_vsscanf:PROC
EXTRN	_atoi:PROC
EXTRN	__atoi64:PROC
EXTRN	__mktime64:PROC
EXTRN	?AfxThrowMemoryException@@YGXXZ:PROC		; AfxThrowMemoryException
EXTRN	?AfxThrowOleException@@YGXJ@Z:PROC		; AfxThrowOleException
EXTRN	?_Xlength_error@std@@YAXPBD@Z:PROC		; std::_Xlength_error
EXTRN	___std_exception_copy:PROC
EXTRN	___std_exception_destroy:PROC
EXTRN	??_Eexception@std@@UAEPAXI@Z:PROC		; std::exception::`vector deleting destructor'
EXTRN	??_Ebad_alloc@std@@UAEPAXI@Z:PROC		; std::bad_alloc::`vector deleting destructor'
EXTRN	??_Ebad_array_new_length@std@@UAEPAXI@Z:PROC	; std::bad_array_new_length::`vector deleting destructor'
EXTRN	?Error@@YAPBDPBDZZ:PROC				; Error
EXTRN	?GetNumber@CScanner@@QAEHH@Z:PROC		; CScanner::GetNumber
EXTRN	??0CScript@@QAE@H@Z:PROC			; CScript::CScript
EXTRN	??1CScript@@UAE@XZ:PROC				; CScript::~CScript
EXTRN	?Load@CScript@@QAEHPBDHH@Z:PROC			; CScript::Load
EXTRN	?FILEOUT@@YAXPBD0ZZ:PROC			; FILEOUT
EXTRN	?WriteLog@@YAXPBDZZ:PROC			; WriteLog
EXTRN	??0CQuery@@QAE@XZ:PROC				; CQuery::CQuery
EXTRN	??1CQuery@@QAE@XZ:PROC				; CQuery::~CQuery
EXTRN	?Connect@CQuery@@QAEHHPAD0PBD@Z:PROC		; CQuery::Connect
EXTRN	?Exec@CQuery@@QAEHPBD@Z:PROC			; CQuery::Exec
EXTRN	?Fetch@CQuery@@QAEHXZ:PROC			; CQuery::Fetch
EXTRN	?GetInt@CQuery@@QAEHPAD@Z:PROC			; CQuery::GetInt
EXTRN	?GetInt64@CQuery@@QAE_JPAD@Z:PROC		; CQuery::GetInt64
EXTRN	?GetFloat@CQuery@@QAEMPAD@Z:PROC		; CQuery::GetFloat
EXTRN	?GetChar@CQuery@@QAEDPAD@Z:PROC			; CQuery::GetChar
EXTRN	?GetStr@CQuery@@QAEXPAD0@Z:PROC			; CQuery::GetStr
EXTRN	?SetTotal@IBuff@@QAEXK@Z:PROC			; IBuff::SetTotal
EXTRN	??0CPet@@QAE@XZ:PROC				; CPet::CPet
EXTRN	?SetAvailLevel@CPet@@QAEXEE@Z:PROC		; CPet::SetAvailLevel
EXTRN	?SetExp@CPet@@QAEXK@Z:PROC			; CPet::SetExp
EXTRN	?SetEnergy@CPet@@QAEXG@Z:PROC			; CPet::SetEnergy
EXTRN	?SetName@CPet@@QAEXPBD@Z:PROC			; CPet::SetName
EXTRN	?SetPiercingSize@CPiercing@@QAEXH@Z:PROC	; CPiercing::SetPiercingSize
EXTRN	?GetPiercingSize@CPiercing@@QAEHXZ:PROC		; CPiercing::GetPiercingSize
EXTRN	?SetPiercingItem@CPiercing@@QAEXHK@Z:PROC	; CPiercing::SetPiercingItem
EXTRN	?SetUltimatePiercingSize@CPiercing@@QAEXH@Z:PROC ; CPiercing::SetUltimatePiercingSize
EXTRN	?GetUltimatePiercingSize@CPiercing@@QAEHXZ:PROC	; CPiercing::GetUltimatePiercingSize
EXTRN	?SetUltimatePiercingItem@CPiercing@@QAEXHK@Z:PROC ; CPiercing::SetUltimatePiercingItem
EXTRN	?SetVisKeepTime@CPiercing@@QAEXHJ@Z:PROC	; CPiercing::SetVisKeepTime
EXTRN	??0CItemElem@@QAE@XZ:PROC			; CItemElem::CItemElem
EXTRN	??1CItemElem@@UAE@XZ:PROC			; CItemElem::~CItemElem
EXTRN	?Avail@CPocketController@@QAEXHJ@Z:PROC		; CPocketController::Avail
EXTRN	?GetPocket@CPocketController@@QAEPAVCPocket@@H@Z:PROC ; CPocketController::GetPocket
EXTRN	??0CMover@@QAE@XZ:PROC				; CMover::CMover
EXTRN	??1CMover@@UAE@XZ:PROC				; CMover::~CMover
EXTRN	?RemoveQuest@CMover@@QAEHH@Z:PROC		; CMover::RemoveQuest
EXTRN	?FreeRequest@CDbManager@@QAEXPAUtagDB_OVERLAPPED_PLUS@@@Z:PROC ; CDbManager::FreeRequest
EXTRN	?SaveQuest@CDbManager@@QAEXPAVCMover@@PAD11@Z:PROC ; CDbManager::SaveQuest
EXTRN	?RemoveItemDeleteQuery@CDbManager@@AAEHPAVCQuery@@PADH@Z:PROC ; CDbManager::RemoveItemDeleteQuery
EXTRN	?GetInstance@CPlayerDataCenter@@SAPAV1@XZ:PROC	; CPlayerDataCenter::GetInstance
EXTRN	?GetPlayerString@CPlayerDataCenter@@QAEPBDK@Z:PROC ; CPlayerDataCenter::GetPlayerString
EXTRN	?CheckValidItem@@YAHKF@Z:PROC			; CheckValidItem
EXTRN	?Instance@CTitleManager@@SAPAV1@XZ:PROC		; CTitleManager::Instance
EXTRN	?GetIdxType@CTitleManager@@QAEHH@Z:PROC		; CTitleManager::GetIdxType
EXTRN	@__security_check_cookie@4:PROC
EXTRN	__CxxThrowException@8:PROC
EXTRN	___CxxFrameHandler3:PROC
EXTRN	__chkstk:PROC
EXTRN	_memcpy:PROC
EXTRN	_memmove:PROC
EXTRN	_memset:PROC
EXTRN	??_7type_info@@6B@:QWORD			; type_info::`vftable'
EXTRN	?prj@@3VCProject@@A:BYTE			; prj
EXTRN	?DSN_NAME_CHARACTER01@@3PADA:BYTE		; DSN_NAME_CHARACTER01
EXTRN	?DB_ADMIN_ID_CHARACTER01@@3PADA:BYTE		; DB_ADMIN_ID_CHARACTER01
EXTRN	?g_appInfo@@3UAppInfo@@A:QWORD			; g_appInfo
EXTRN	___security_cookie:DWORD
EXTRN	__fltused:DWORD
;	COMDAT ?_OptionsStorage@?1??__local_stdio_printf_options@@9@4_KA
_BSS	SEGMENT
?_OptionsStorage@?1??__local_stdio_printf_options@@9@4_KA DQ 01H DUP (?) ; `__local_stdio_printf_options'::`2'::_OptionsStorage
_BSS	ENDS
;	COMDAT ?_OptionsStorage@?1??__local_stdio_scanf_options@@9@4_KA
_BSS	SEGMENT
?_OptionsStorage@?1??__local_stdio_scanf_options@@9@4_KA DQ 01H DUP (?) ; `__local_stdio_scanf_options'::`2'::_OptionsStorage
_BSS	ENDS
;	COMDAT __real@4f000000
CONST	SEGMENT
__real@4f000000 DD 04f000000r			; 2.14748e+09
CONST	ENDS
;	COMDAT ??_C@_0BF@KCBBBMFM@RemoveQuest?5complete@
CONST	SEGMENT
??_C@_0BF@KCBBBMFM@RemoveQuest?5complete@ DB 'RemoveQuest complete', 00H ; `string'
CONST	ENDS
;	COMDAT ??_C@_0BG@JHIJALBF@query_removequest?4txt@
CONST	SEGMENT
??_C@_0BG@JHIJALBF@query_removequest?4txt@ DB 'query_removequest.txt', 00H ; `string'
CONST	ENDS
;	COMDAT ??_C@_0JG@EPDAEJAA@UPDATE?5CHARACTER_TBL?5SET?5m_lpQu@
CONST	SEGMENT
??_C@_0JG@EPDAEJAA@UPDATE?5CHARACTER_TBL?5SET?5m_lpQu@ DB 'UPDATE CHARACT'
	DB	'ER_TBL SET m_lpQuestCntArray = ''%s'', m_aCompleteQuest = ''%'
	DB	's'', m_aCheckedQuest = ''%s'' WHERE m_idPlayer = ''%07d'' and'
	DB	' serverindex = ''%02d''', 00H		; `string'
CONST	ENDS
;	COMDAT ??_C@_0BA@PHPFGNFH@query?5error?3?5?$CFs@
CONST	SEGMENT
??_C@_0BA@PHPFGNFH@query?5error?3?5?$CFs@ DB 'query error: %s', 00H ; `string'
CONST	ENDS
;	COMDAT ??_C@_0GF@KIGMAII@SELECT?5m_idPlayer?0?5m_lpQuestCnt@
CONST	SEGMENT
??_C@_0GF@KIGMAII@SELECT?5m_idPlayer?0?5m_lpQuestCnt@ DB 'SELECT m_idPlay'
	DB	'er, m_lpQuestCntArray, m_aCompleteQuest FROM CHARACTER_TBL WH'
	DB	'ERE serverindex = ''%02d''', 00H		; `string'
CONST	ENDS
;	COMDAT ??_C@_0HG@LPNEKFLC@SELECT?5m_idPlayer?0?5m_lpQuestCnt@
CONST	SEGMENT
??_C@_0HG@LPNEKFLC@SELECT?5m_idPlayer?0?5m_lpQuestCnt@ DB 'SELECT m_idPla'
	DB	'yer, m_lpQuestCntArray, m_aCompleteQuest, m_aCheckedQuest FRO'
	DB	'M CHARACTER_TBL WHERE serverindex = ''%02d''', 00H ; `string'
CONST	ENDS
;	COMDAT ??_C@_0CH@EEGILGJF@fail?5to?5connect?3?5dsn?$DN?$CFs?0?5id?$DN?$CFs?0@
CONST	SEGMENT
??_C@_0CH@EEGILGJF@fail?5to?5connect?3?5dsn?$DN?$CFs?0?5id?$DN?$CFs?0@ DB 'f'
	DB	'ail to connect: dsn=%s, id=%s, pwd=%s', 00H	; `string'
CONST	ENDS
;	COMDAT ??_C@_0BA@DPPBFHPJ@removequest?4txt@
CONST	SEGMENT
??_C@_0BA@DPPBFHPJ@removequest?4txt@ DB 'removequest.txt', 00H ; `string'
CONST	ENDS
;	COMDAT ??_C@_0CC@JKMJFPOD@call?5BOOL?5CDbManager?3?3RemoveQue@
CONST	SEGMENT
??_C@_0CC@JKMJFPOD@call?5BOOL?5CDbManager?3?3RemoveQue@ DB 'call BOOL CDb'
	DB	'Manager::RemoveQuest', 00H			; `string'
CONST	ENDS
;	COMDAT ??_C@_0CB@HEHGABA@item?5not?5found?5?9?5Pocket?3?5?$CFs?0?5?$CFs@
CONST	SEGMENT
??_C@_0CB@HEHGABA@item?5not?5found?5?9?5Pocket?3?5?$CFs?0?5?$CFs@ DB 'ite'
	DB	'm not found - Pocket: %s, %s ', 00H		; `string'
CONST	ENDS
;	COMDAT ??_C@_0BP@MKOBOPPN@item?5not?5found?5?9?5bank?3?5?$CFs?0?5?$CFs?5@
CONST	SEGMENT
??_C@_0BP@MKOBOPPN@item?5not?5found?5?9?5bank?3?5?$CFs?0?5?$CFs?5@ DB 'it'
	DB	'em not found - bank: %s, %s ', 00H		; `string'
CONST	ENDS
;	COMDAT ??_C@_0BI@OFGDADEH@Not?5Inventory?5?3?5?$CFs?0?5?$CFs?5@
CONST	SEGMENT
??_C@_0BI@OFGDADEH@Not?5Inventory?5?3?5?$CFs?0?5?$CFs?5@ DB 'Not Inventor'
	DB	'y : %s, %s ', 00H				; `string'
CONST	ENDS
;	COMDAT ??_C@_0BG@EGBCIKAA@Not?5UnEquip?5?3?5?$CFs?0?5?$CFs?5@
CONST	SEGMENT
??_C@_0BG@EGBCIKAA@Not?5UnEquip?5?3?5?$CFs?0?5?$CFs?5@ DB 'Not UnEquip : '
	DB	'%s, %s ', 00H				; `string'
CONST	ENDS
;	COMDAT ??_C@_0BL@DMKMHKMC@Remove?5Not?5Data?5State?5?3?5?$CFc@
CONST	SEGMENT
??_C@_0BL@DMKMHKMC@Remove?5Not?5Data?5State?5?3?5?$CFc@ DB 'Remove Not Da'
	DB	'ta State : %c', 00H				; `string'
CONST	ENDS
;	COMDAT ??_C@_0BL@GOICAOCF@Remove?5NULL?5Item_Name?5?3?5?$CFs@
CONST	SEGMENT
??_C@_0BL@GOICAOCF@Remove?5NULL?5Item_Name?5?3?5?$CFs@ DB 'Remove NULL It'
	DB	'em_Name : %s', 00H				; `string'
CONST	ENDS
;	COMDAT ??_C@_0BH@DKIALLAG@m_nResistAbilityOption@
CONST	SEGMENT
??_C@_0BH@DKIALLAG@m_nResistAbilityOption@ DB 'm_nResistAbilityOption', 00H ; `string'
CONST	ENDS
;	COMDAT ??_C@_0O@PJIGDEIK@m_bItemResist@
CONST	SEGMENT
??_C@_0O@PJIGDEIK@m_bItemResist@ DB 'm_bItemResist', 00H ; `string'
CONST	ENDS
;	COMDAT ??_C@_05JNKNAC@State@
CONST	SEGMENT
??_C@_05JNKNAC@State@ DB 'State', 00H			; `string'
CONST	ENDS
;	COMDAT ??_C@_0BB@JLNDCIFJ@m_nAbilityOption@
CONST	SEGMENT
??_C@_0BB@JLNDCIFJ@m_nAbilityOption@ DB 'm_nAbilityOption', 00H ; `string'
CONST	ENDS
;	COMDAT ??_C@_0L@IOKBDDFK@Item_count@
CONST	SEGMENT
??_C@_0L@IOKBDDFK@Item_count@ DB 'Item_count', 00H	; `string'
CONST	ENDS
;	COMDAT ??_C@_09GAPLKBDN@Item_Name@
CONST	SEGMENT
??_C@_09GAPLKBDN@Item_Name@ DB 'Item_Name', 00H		; `string'
CONST	ENDS
;	COMDAT ??_C@_05DIMENFA@m_nNo@
CONST	SEGMENT
??_C@_05DIMENFA@m_nNo@ DB 'm_nNo', 00H			; `string'
CONST	ENDS
;	COMDAT ??_C@_0P@KFJOMEEC@SkillInfluence@
CONST	SEGMENT
??_C@_0P@KFJOMEEC@SkillInfluence@ DB 'SkillInfluence', 00H ; `string'
CONST	ENDS
;	COMDAT ??_C@_04HIBGFPH@NULL@
CONST	SEGMENT
??_C@_04HIBGFPH@NULL@ DB 'NULL', 00H			; `string'
CONST	ENDS
;	COMDAT ??_C@_0L@JCPOPMED@m_dwSMTime@
CONST	SEGMENT
??_C@_0L@JCPOPMED@m_dwSMTime@ DB 'm_dwSMTime', 00H	; `string'
CONST	ENDS
;	COMDAT ??_C@_0BA@DPOFAGJ@m_aCheckedQuest@
CONST	SEGMENT
??_C@_0BA@DPOFAGJ@m_aCheckedQuest@ DB 'm_aCheckedQuest', 00H ; `string'
CONST	ENDS
;	COMDAT ??_C@_0BB@HNPOCMEF@m_aCompleteQuest@
CONST	SEGMENT
??_C@_0BB@HNPOCMEF@m_aCompleteQuest@ DB 'm_aCompleteQuest', 00H ; `string'
CONST	ENDS
;	COMDAT ??_C@_0BC@KGPDILGI@m_lpQuestCntArray@
CONST	SEGMENT
??_C@_0BC@KGPDILGI@m_lpQuestCntArray@ DB 'm_lpQuestCntArray', 00H ; `string'
CONST	ENDS
;	COMDAT ??_C@_07MKOJOKBN@SkillLv@
CONST	SEGMENT
??_C@_07MKOJOKBN@SkillLv@ DB 'SkillLv', 00H		; `string'
CONST	ENDS
;	COMDAT ??_C@_07CBFCHMIH@SkillID@
CONST	SEGMENT
??_C@_07CBFCHMIH@SkillID@ DB 'SkillID', 00H		; `string'
CONST	ENDS
;	COMDAT ??_C@_0O@MDJBOIOM@SkillPosition@
CONST	SEGMENT
??_C@_0O@MDJBOIOM@SkillPosition@ DB 'SkillPosition', 00H ; `string'
CONST	ENDS
;	COMDAT ??_C@_0CE@IGLOLMFD@uspLoadCharacterSkill?5?8?$CF02d?8?0?8?$CF@
CONST	SEGMENT
??_C@_0CE@IGLOLMFD@uspLoadCharacterSkill?5?8?$CF02d?8?0?8?$CF@ DB 'uspLoa'
	DB	'dCharacterSkill ''%02d'',''%07d''', 00H	; `string'
CONST	ENDS
;	COMDAT ??_C@_03KMOGJIG@c50@
CONST	SEGMENT
??_C@_03KMOGJIG@c50@ DB 'c50', 00H			; `string'
CONST	ENDS
;	COMDAT ??_C@_03NKMOLIPI@c49@
CONST	SEGMENT
??_C@_03NKMOLIPI@c49@ DB 'c49', 00H			; `string'
CONST	ENDS
;	COMDAT ??_C@_03MDNFIJLJ@c48@
CONST	SEGMENT
??_C@_03MDNFIJLJ@c48@ DB 'c48', 00H			; `string'
CONST	ENDS
;	COMDAT ??_C@_03EEENJFHG@c47@
CONST	SEGMENT
??_C@_03EEENJFHG@c47@ DB 'c47', 00H			; `string'
CONST	ENDS
;	COMDAT ??_C@_03FNFGKEDH@c46@
CONST	SEGMENT
??_C@_03FNFGKEDH@c46@ DB 'c46', 00H			; `string'
CONST	ENDS
;	COMDAT ??_C@_03HGHLPHPE@c45@
CONST	SEGMENT
??_C@_03HGHLPHPE@c45@ DB 'c45', 00H			; `string'
CONST	ENDS
;	COMDAT ??_C@_03GPGAMGLF@c44@
CONST	SEGMENT
??_C@_03GPGAMGLF@c44@ DB 'c44', 00H			; `string'
CONST	ENDS
;	COMDAT ??_C@_03CACBFAHC@c43@
CONST	SEGMENT
??_C@_03CACBFAHC@c43@ DB 'c43', 00H			; `string'
CONST	ENDS
;	COMDAT ??_C@_03DJDKGBDD@c42@
CONST	SEGMENT
??_C@_03DJDKGBDD@c42@ DB 'c42', 00H			; `string'
CONST	ENDS
;	COMDAT ??_C@_03BCBHDCPA@c41@
CONST	SEGMENT
??_C@_03BCBHDCPA@c41@ DB 'c41', 00H			; `string'
CONST	ENDS
;	COMDAT ??_C@_03LAMADLB@c40@
CONST	SEGMENT
??_C@_03LAMADLB@c40@ DB 'c40', 00H			; `string'
CONST	ENDS
;	COMDAT ??_C@_03NPIBKOHN@c39@
CONST	SEGMENT
??_C@_03NPIBKOHN@c39@ DB 'c39', 00H			; `string'
CONST	ENDS
;	COMDAT ??_C@_03MGJKJPDM@c38@
CONST	SEGMENT
??_C@_03MGJKJPDM@c38@ DB 'c38', 00H			; `string'
CONST	ENDS
;	COMDAT ??_C@_03EBACIDPD@c37@
CONST	SEGMENT
??_C@_03EBACIDPD@c37@ DB 'c37', 00H			; `string'
CONST	ENDS
;	COMDAT ??_C@_03FIBJLCLC@c36@
CONST	SEGMENT
??_C@_03FIBJLCLC@c36@ DB 'c36', 00H			; `string'
CONST	ENDS
;	COMDAT ??_C@_03HDDEOBHB@c35@
CONST	SEGMENT
??_C@_03HDDEOBHB@c35@ DB 'c35', 00H			; `string'
CONST	ENDS
;	COMDAT ??_C@_03GKCPNADA@c34@
CONST	SEGMENT
??_C@_03GKCPNADA@c34@ DB 'c34', 00H			; `string'
CONST	ENDS
;	COMDAT ??_C@_03CFGOEGPH@c33@
CONST	SEGMENT
??_C@_03CFGOEGPH@c33@ DB 'c33', 00H			; `string'
CONST	ENDS
;	COMDAT ??_C@_03DMHFHHLG@c32@
CONST	SEGMENT
??_C@_03DMHFHHLG@c32@ DB 'c32', 00H			; `string'
CONST	ENDS
;	COMDAT ??_C@_03BHFICEHF@c31@
CONST	SEGMENT
??_C@_03BHFICEHF@c31@ DB 'c31', 00H			; `string'
CONST	ENDS
;	COMDAT ??_C@_03OEDBFDE@c30@
CONST	SEGMENT
??_C@_03OEDBFDE@c30@ DB 'c30', 00H			; `string'
CONST	ENDS
;	COMDAT ??_C@_03NOEDMEEK@c29@
CONST	SEGMENT
??_C@_03NOEDMEEK@c29@ DB 'c29', 00H			; `string'
CONST	ENDS
;	COMDAT ??_C@_03MHFIPFAL@c28@
CONST	SEGMENT
??_C@_03MHFIPFAL@c28@ DB 'c28', 00H			; `string'
CONST	ENDS
;	COMDAT ??_C@_03EAMAOJME@c27@
CONST	SEGMENT
??_C@_03EAMAOJME@c27@ DB 'c27', 00H			; `string'
CONST	ENDS
;	COMDAT ??_C@_03FJNLNIIF@c26@
CONST	SEGMENT
??_C@_03FJNLNIIF@c26@ DB 'c26', 00H			; `string'
CONST	ENDS
;	COMDAT ??_C@_03HCPGILEG@c25@
CONST	SEGMENT
??_C@_03HCPGILEG@c25@ DB 'c25', 00H			; `string'
CONST	ENDS
;	COMDAT ??_C@_03GLONLKAH@c24@
CONST	SEGMENT
??_C@_03GLONLKAH@c24@ DB 'c24', 00H			; `string'
CONST	ENDS
;	COMDAT ??_C@_03CEKMCMMA@c23@
CONST	SEGMENT
??_C@_03CEKMCMMA@c23@ DB 'c23', 00H			; `string'
CONST	ENDS
;	COMDAT ??_C@_03DNLHBNIB@c22@
CONST	SEGMENT
??_C@_03DNLHBNIB@c22@ DB 'c22', 00H			; `string'
CONST	ENDS
;	COMDAT ??_C@_03BGJKEOEC@c21@
CONST	SEGMENT
??_C@_03BGJKEOEC@c21@ DB 'c21', 00H			; `string'
CONST	ENDS
;	COMDAT ??_C@_03PIBHPAD@c20@
CONST	SEGMENT
??_C@_03PIBHPAD@c20@ DB 'c20', 00H			; `string'
CONST	ENDS
;	COMDAT ??_C@_03NMAFHKBD@c19@
CONST	SEGMENT
??_C@_03NMAFHKBD@c19@ DB 'c19', 00H			; `string'
CONST	ENDS
;	COMDAT ??_C@_03MFBOELFC@c18@
CONST	SEGMENT
??_C@_03MFBOELFC@c18@ DB 'c18', 00H			; `string'
CONST	ENDS
;	COMDAT ??_C@_03ECIGFHJN@c17@
CONST	SEGMENT
??_C@_03ECIGFHJN@c17@ DB 'c17', 00H			; `string'
CONST	ENDS
;	COMDAT ??_C@_03FLJNGGNM@c16@
CONST	SEGMENT
??_C@_03FLJNGGNM@c16@ DB 'c16', 00H			; `string'
CONST	ENDS
;	COMDAT ??_C@_03HALADFBP@c15@
CONST	SEGMENT
??_C@_03HALADFBP@c15@ DB 'c15', 00H			; `string'
CONST	ENDS
;	COMDAT ??_C@_03GJKLAEFO@c14@
CONST	SEGMENT
??_C@_03GJKLAEFO@c14@ DB 'c14', 00H			; `string'
CONST	ENDS
;	COMDAT ??_C@_03CGOKJCJJ@c13@
CONST	SEGMENT
??_C@_03CGOKJCJJ@c13@ DB 'c13', 00H			; `string'
CONST	ENDS
;	COMDAT ??_C@_03DPPBKDNI@c12@
CONST	SEGMENT
??_C@_03DPPBKDNI@c12@ DB 'c12', 00H			; `string'
CONST	ENDS
;	COMDAT ??_C@_03BENMPABL@c11@
CONST	SEGMENT
??_C@_03BENMPABL@c11@ DB 'c11', 00H			; `string'
CONST	ENDS
;	COMDAT ??_C@_03NMHMBFK@c10@
CONST	SEGMENT
??_C@_03NMHMBFK@c10@ DB 'c10', 00H			; `string'
CONST	ENDS
;	COMDAT ??_C@_03NNMHBACE@c09@
CONST	SEGMENT
??_C@_03NNMHBACE@c09@ DB 'c09', 00H			; `string'
CONST	ENDS
;	COMDAT ??_C@_03MENMCBGF@c08@
CONST	SEGMENT
??_C@_03MENMCBGF@c08@ DB 'c08', 00H			; `string'
CONST	ENDS
;	COMDAT ??_C@_03EDEEDNKK@c07@
CONST	SEGMENT
??_C@_03EDEEDNKK@c07@ DB 'c07', 00H			; `string'
CONST	ENDS
;	COMDAT ??_C@_03FKFPAMOL@c06@
CONST	SEGMENT
??_C@_03FKFPAMOL@c06@ DB 'c06', 00H			; `string'
CONST	ENDS
;	COMDAT ??_C@_03HBHCFPCI@c05@
CONST	SEGMENT
??_C@_03HBHCFPCI@c05@ DB 'c05', 00H			; `string'
CONST	ENDS
;	COMDAT ??_C@_03GIGJGOGJ@c04@
CONST	SEGMENT
??_C@_03GIGJGOGJ@c04@ DB 'c04', 00H			; `string'
CONST	ENDS
;	COMDAT ??_C@_03CHCIPIKO@c03@
CONST	SEGMENT
??_C@_03CHCIPIKO@c03@ DB 'c03', 00H			; `string'
CONST	ENDS
;	COMDAT ??_C@_03DODDMJOP@c02@
CONST	SEGMENT
??_C@_03DODDMJOP@c02@ DB 'c02', 00H			; `string'
CONST	ENDS
;	COMDAT ??_C@_03BFBOJKCM@c01@
CONST	SEGMENT
??_C@_03BFBOJKCM@c01@ DB 'c01', 00H			; `string'
CONST	ENDS
;	COMDAT ??_C@_03KHPNBODO@sec@
CONST	SEGMENT
??_C@_03KHPNBODO@sec@ DB 'sec', 00H			; `string'
CONST	ENDS
;	COMDAT ??_C@_0CA@DBOKEMLK@usp_Master_Select?5?8?$CF02d?8?0?8?$CF07d?8@
CONST	SEGMENT
??_C@_0CA@DBOKEMLK@usp_Master_Select?5?8?$CF02d?8?0?8?$CF07d?8@ DB 'usp_M'
	DB	'aster_Select ''%02d'',''%07d''', 00H	; `string'
CONST	ENDS
;	COMDAT ??_C@_08JOEHCELE@m_nHonor@
CONST	SEGMENT
??_C@_08JOEHCELE@m_nHonor@ DB 'm_nHonor', 00H		; `string'
CONST	ENDS
;	COMDAT ??_C@_0N@FMKKCMCC@m_SkillPoint@
CONST	SEGMENT
??_C@_0N@FMKKCMCC@m_SkillPoint@ DB 'm_SkillPoint', 00H	; `string'
CONST	ENDS
;	COMDAT ??_C@_09MFLDFMGF@m_SkillLv@
CONST	SEGMENT
??_C@_09MFLDFMGF@m_SkillLv@ DB 'm_SkillLv', 00H		; `string'
CONST	ENDS
;	COMDAT ??_C@_0O@JALGGJEE@m_nDeathLevel@
CONST	SEGMENT
??_C@_0O@JALGGJEE@m_nDeathLevel@ DB 'm_nDeathLevel', 00H ; `string'
CONST	ENDS
;	COMDAT ??_C@_0M@MAONGJJI@m_nDeathExp@
CONST	SEGMENT
??_C@_0M@MAONGJJI@m_nDeathExp@ DB 'm_nDeathExp', 00H	; `string'
CONST	ENDS
;	COMDAT ??_C@_08MFHALOPE@m_dwMode@
CONST	SEGMENT
??_C@_08MFHALOPE@m_dwMode@ DB 'm_dwMode', 00H		; `string'
CONST	ENDS
;	COMDAT ??_C@_06JIIKDJFF@m_nFxp@
CONST	SEGMENT
??_C@_06JIIKDJFF@m_nFxp@ DB 'm_nFxp', 00H		; `string'
CONST	ENDS
;	COMDAT ??_C@_0M@HKFGBBGJ@m_nFlightLv@
CONST	SEGMENT
??_C@_0M@HKFGBBGJ@m_nFlightLv@ DB 'm_nFlightLv', 00H	; `string'
CONST	ENDS
;	COMDAT ??_C@_0M@HLGMCMLP@m_nRemainGP@
CONST	SEGMENT
??_C@_0M@HLGMCMLP@m_nRemainGP@ DB 'm_nRemainGP', 00H	; `string'
CONST	ENDS
;	COMDAT ??_C@_0BA@IKAKIJNK@m_vMarkingPos_z@
CONST	SEGMENT
??_C@_0BA@IKAKIJNK@m_vMarkingPos_z@ DB 'm_vMarkingPos_z', 00H ; `string'
CONST	ENDS
;	COMDAT ??_C@_0BA@KBCHNKBJ@m_vMarkingPos_y@
CONST	SEGMENT
??_C@_0BA@KBCHNKBJ@m_vMarkingPos_y@ DB 'm_vMarkingPos_y', 00H ; `string'
CONST	ENDS
;	COMDAT ??_C@_0BA@LIDMOLFI@m_vMarkingPos_x@
CONST	SEGMENT
??_C@_0BA@LIDMOLFI@m_vMarkingPos_x@ DB 'm_vMarkingPos_x', 00H ; `string'
CONST	ENDS
;	COMDAT ??_C@_0BB@IGOJBJIH@m_idMarkingWorld@
CONST	SEGMENT
??_C@_0BB@IGOJBJIH@m_idMarkingWorld@ DB 'm_idMarkingWorld', 00H ; `string'
CONST	ENDS
;	COMDAT ??_C@_0M@FGBAAHFN@m_tmAccFuel@
CONST	SEGMENT
??_C@_0M@FGBAAHFN@m_tmAccFuel@ DB 'm_tmAccFuel', 00H	; `string'
CONST	ENDS
;	COMDAT ??_C@_07DKFGLCKP@m_nFuel@
CONST	SEGMENT
??_C@_07DKFGLCKP@m_nFuel@ DB 'm_nFuel', 00H		; `string'
CONST	ENDS
;	COMDAT ??_C@_07JKGEFCCA@m_nExp1@
CONST	SEGMENT
??_C@_07JKGEFCCA@m_nExp1@ DB 'm_nExp1', 00H		; `string'
CONST	ENDS
;	COMDAT ??_C@_08DBNLLHK@m_nLevel@
CONST	SEGMENT
??_C@_08DBNLLHK@m_nLevel@ DB 'm_nLevel', 00H		; `string'
CONST	ENDS
;	COMDAT ??_C@_06LMCODDMF@m_nInt@
CONST	SEGMENT
??_C@_06LMCODDMF@m_nInt@ DB 'm_nInt', 00H		; `string'
CONST	ENDS
;	COMDAT ??_C@_06OOKEELPF@m_nDex@
CONST	SEGMENT
??_C@_06OOKEELPF@m_nDex@ DB 'm_nDex', 00H		; `string'
CONST	ENDS
;	COMDAT ??_C@_06KFIOEEIM@m_nSta@
CONST	SEGMENT
??_C@_06KFIOEEIM@m_nSta@ DB 'm_nSta', 00H		; `string'
CONST	ENDS
;	COMDAT ??_C@_06MEGBAFBO@m_nStr@
CONST	SEGMENT
??_C@_06MEGBAFBO@m_nStr@ DB 'm_nStr', 00H		; `string'
CONST	ENDS
;	COMDAT ??_C@_0M@BFJHKIPJ@m_pActMover@
CONST	SEGMENT
??_C@_0M@BFJHKIPJ@m_pActMover@ DB 'm_pActMover', 00H	; `string'
CONST	ENDS
;	COMDAT ??_C@_07DKPMJIJG@m_nFame@
CONST	SEGMENT
??_C@_07DKPMJIJG@m_nFame@ DB 'm_nFame', 00H		; `string'
CONST	ENDS
;	COMDAT ??_C@_0O@MHHICKD@m_idMuerderer@
CONST	SEGMENT
??_C@_0O@MHHICKD@m_idMuerderer@ DB 'm_idMuerderer', 00H	; `string'
CONST	ENDS
;	COMDAT ??_C@_0O@COEFFCNN@m_nAngelLevel@
CONST	SEGMENT
??_C@_0O@COEFFCNN@m_nAngelLevel@ DB 'm_nAngelLevel', 00H ; `string'
CONST	ENDS
;	COMDAT ??_C@_0M@IJMKHCEF@m_nAngelExp@
CONST	SEGMENT
??_C@_0M@IJMKHCEF@m_nAngelExp@ DB 'm_nAngelExp', 00H	; `string'
CONST	ENDS
;	COMDAT ??_C@_09BCFDFPLE@m_dwPKExp@
CONST	SEGMENT
??_C@_09BCFDFPLE@m_dwPKExp@ DB 'm_dwPKExp', 00H		; `string'
CONST	ENDS
;	COMDAT ??_C@_0BB@FMCDCCD@m_dwPKPropensity@
CONST	SEGMENT
??_C@_0BB@FMCDCCD@m_dwPKPropensity@ DB 'm_dwPKPropensity', 00H ; `string'
CONST	ENDS
;	COMDAT ??_C@_0L@IFGJAIGP@m_nPKValue@
CONST	SEGMENT
??_C@_0L@IFGJAIGP@m_nPKValue@ DB 'm_nPKValue', 00H	; `string'
CONST	ENDS
;	COMDAT ??_C@_09OGJJHMJA@m_idparty@
CONST	SEGMENT
??_C@_09OGJJHMJA@m_idparty@ DB 'm_idparty', 00H		; `string'
CONST	ENDS
;	COMDAT ??_C@_06LDMBEDML@m_nJob@
CONST	SEGMENT
??_C@_06LDMBEDML@m_nJob@ DB 'm_nJob', 00H		; `string'
CONST	ENDS
;	COMDAT ??_C@_08JIMIMGKM@m_dwGold@
CONST	SEGMENT
??_C@_08JIMIMGKM@m_dwGold@ DB 'm_dwGold', 00H		; `string'
CONST	ENDS
;	COMDAT ??_C@_0BA@MHMDKNKE@m_dwRideItemIdx@
CONST	SEGMENT
??_C@_0BA@MHMDKNKE@m_dwRideItemIdx@ DB 'm_dwRideItemIdx', 00H ; `string'
CONST	ENDS
;	COMDAT ??_C@_07KMHLCHEI@m_dwSex@
CONST	SEGMENT
??_C@_07KMHLCHEI@m_dwSex@ DB 'm_dwSex', 00H		; `string'
CONST	ENDS
;	COMDAT ??_C@_0N@BHMOBEMJ@m_dwHeadMesh@
CONST	SEGMENT
??_C@_0N@BHMOBEMJ@m_dwHeadMesh@ DB 'm_dwHeadMesh', 00H	; `string'
CONST	ENDS
;	COMDAT ??_C@_0O@ICOGEKE@m_dwHairColor@
CONST	SEGMENT
??_C@_0O@ICOGEKE@m_dwHairColor@ DB 'm_dwHairColor', 00H	; `string'
CONST	ENDS
;	COMDAT ??_C@_0N@HFOELFNC@m_dwHairMesh@
CONST	SEGMENT
??_C@_0N@HFOELFNC@m_dwHairMesh@ DB 'm_dwHairMesh', 00H	; `string'
CONST	ENDS
;	COMDAT ??_C@_0M@BCEJBJHD@m_dwSkinSet@
CONST	SEGMENT
??_C@_0M@BCEJBJHD@m_dwSkinSet@ DB 'm_dwSkinSet', 00H	; `string'
CONST	ENDS
;	COMDAT ??_C@_0BA@COGKPMEJ@m_nFatiguePoint@
CONST	SEGMENT
??_C@_0BA@COGKPMEJ@m_nFatiguePoint@ DB 'm_nFatiguePoint', 00H ; `string'
CONST	ENDS
;	COMDAT ??_C@_0N@GFDNJNAL@m_nManaPoint@
CONST	SEGMENT
??_C@_0N@GFDNJNAL@m_nManaPoint@ DB 'm_nManaPoint', 00H	; `string'
CONST	ENDS
;	COMDAT ??_C@_0M@PMKOKNNK@m_nHitPoint@
CONST	SEGMENT
??_C@_0M@PMKOKNNK@m_nHitPoint@ DB 'm_nHitPoint', 00H	; `string'
CONST	ENDS
;	COMDAT ??_C@_0BB@FJPKIIEM@m_szCharacterKey@
CONST	SEGMENT
??_C@_0BB@FJPKIIEM@m_szCharacterKey@ DB 'm_szCharacterKey', 00H ; `string'
CONST	ENDS
;	COMDAT ??_C@_08MNAKGHOO@m_fAngle@
CONST	SEGMENT
??_C@_08MNAKGHOO@m_fAngle@ DB 'm_fAngle', 00H		; `string'
CONST	ENDS
;	COMDAT ??_C@_08GLDCJGDB@m_vPos_z@
CONST	SEGMENT
??_C@_08GLDCJGDB@m_vPos_z@ DB 'm_vPos_z', 00H		; `string'
CONST	ENDS
;	COMDAT ??_C@_08EABPMFPC@m_vPos_y@
CONST	SEGMENT
??_C@_08EABPMFPC@m_vPos_y@ DB 'm_vPos_y', 00H		; `string'
CONST	ENDS
;	COMDAT ??_C@_08FJAEPELD@m_vPos_x@
CONST	SEGMENT
??_C@_08FJAEPELD@m_vPos_x@ DB 'm_vPos_x', 00H		; `string'
CONST	ENDS
;	COMDAT ??_C@_09DHJEDBNA@dwWorldID@
CONST	SEGMENT
??_C@_09DHJEDBNA@dwWorldID@ DB 'dwWorldID', 00H		; `string'
CONST	ENDS
;	COMDAT ??_C@_0L@MOMKJNEM@m_dwMotion@
CONST	SEGMENT
??_C@_0L@MOMKJNEM@m_dwMotion@ DB 'm_dwMotion', 00H	; `string'
CONST	ENDS
;	COMDAT ??_C@_0L@LGPNILBK@m_vScale_x@
CONST	SEGMENT
??_C@_0L@LGPNILBK@m_vScale_x@ DB 'm_vScale_x', 00H	; `string'
CONST	ENDS
;	COMDAT ??_C@_08HDDJDJAG@m_szName@
CONST	SEGMENT
??_C@_08HDDJDJAG@m_szName@ DB 'm_szName', 00H		; `string'
CONST	ENDS
;	COMDAT ??_C@_0L@NJKCPPDJ@m_SkillBar@
CONST	SEGMENT
??_C@_0L@NJKCPPDJ@m_SkillBar@ DB 'm_SkillBar', 00H	; `string'
CONST	ENDS
;	COMDAT ??_C@_0N@CPNBAAIJ@m_aSlotQueue@
CONST	SEGMENT
??_C@_0N@CPNBAAIJ@m_aSlotQueue@ DB 'm_aSlotQueue', 00H	; `string'
CONST	ENDS
;	COMDAT ??_C@_0M@OJJDLIJE@m_aSlotItem@
CONST	SEGMENT
??_C@_0M@OJJDLIJE@m_aSlotItem@ DB 'm_aSlotItem', 00H	; `string'
CONST	ENDS
;	COMDAT ??_C@_0O@GNBKFLOM@m_aSlotApplet@
CONST	SEGMENT
??_C@_0O@GNBKFLOM@m_aSlotApplet@ DB 'm_aSlotApplet', 00H ; `string'
CONST	ENDS
;	COMDAT ??_C@_0P@MCBMMJCE@m_adwEquipment@
CONST	SEGMENT
??_C@_0P@MCBMMJCE@m_adwEquipment@ DB 'm_adwEquipment', 00H ; `string'
CONST	ENDS
;	COMDAT ??_C@_0O@DNIGFLMJ@nPiercedSize2@
CONST	SEGMENT
??_C@_0O@DNIGFLMJ@nPiercedSize2@ DB 'nPiercedSize2', 00H ; `string'
CONST	ENDS
;	COMDAT ??_C@_0L@IJJPBAHM@dwItemId?$CFd@
CONST	SEGMENT
??_C@_0L@IJJPBAHM@dwItemId?$CFd@ DB 'dwItemId%d', 00H	; `string'
CONST	ENDS
;	COMDAT ??_C@_0N@JGBJEPOF@nPiercedSize@
CONST	SEGMENT
??_C@_0N@JGBJEPOF@nPiercedSize@ DB 'nPiercedSize', 00H	; `string'
CONST	ENDS
;	COMDAT ??_C@_0P@GAFIDLHN@szInventoryPet@
CONST	SEGMENT
??_C@_0P@GAFIDLHN@szInventoryPet@ DB 'szInventoryPet', 00H ; `string'
CONST	ENDS
;	COMDAT ??_C@_0BE@OAKPNEDM@m_InventoryPiercing@
CONST	SEGMENT
??_C@_0BE@OAKPNEDM@m_InventoryPiercing@ DB 'm_InventoryPiercing', 00H ; `string'
CONST	ENDS
;	COMDAT ??_C@_0P@CJDMDHFC@m_extInventory@
CONST	SEGMENT
??_C@_0P@CJDMDHFC@m_extInventory@ DB 'm_extInventory', 00H ; `string'
CONST	ENDS
;	COMDAT ??_C@_0N@KMOLMNCJ@m_dwObjIndex@
CONST	SEGMENT
??_C@_0N@KMOLMNCJ@m_dwObjIndex@ DB 'm_dwObjIndex', 00H	; `string'
CONST	ENDS
;	COMDAT ??_C@_09HGEFOOAJ@m_apIndex@
CONST	SEGMENT
??_C@_09HGEFOOAJ@m_apIndex@ DB 'm_apIndex', 00H		; `string'
CONST	ENDS
;	COMDAT ??_C@_0P@FEOHFPFP@Inventory?5?$DN?5?$CFs@
CONST	SEGMENT
??_C@_0P@FEOHFPFP@Inventory?5?$DN?5?$CFs@ DB 'Inventory = %s', 00H ; `string'
CONST	ENDS
;	COMDAT ??_C@_0CG@KLFMFNBG@Join?3?3Inventory?5?3?5?$DM?$DM?5IndexItem?5@
CONST	SEGMENT
??_C@_0CG@KLFMFNBG@Join?3?3Inventory?5?3?5?$DM?$DM?5IndexItem?5@ DB 'Join'
	DB	'::Inventory : << IndexItem %s, %d', 00H	; `string'
CONST	ENDS
;	COMDAT ??_C@_0CF@JJEIFMEB@Inventory?5?3?5?$DM?$DM?5?G?A?$LH?N?F?$NL?F?$LM?5?$LO?x?$MA?$LN?4?5?$CF@
CONST	SEGMENT
??_C@_0CF@JJEIFMEB@Inventory?5?3?5?$DM?$DM?5?G?A?$LH?N?F?$NL?F?$LM?5?$LO?x?$MA?$LN?4?5?$CF@ DB 'I'
	DB	'nventory : << ', 0c7H, 0c1H, 0b7H, 0ceH, 0c6H, 0dbH, 0c6H, 0bcH
	DB	' ', 0beH, 0f8H, 0c0H, 0bdH, '. %s, %d', 00H	; `string'
CONST	ENDS
;	COMDAT ??_C@_0M@GIEPEBGM@m_Inventory@
CONST	SEGMENT
??_C@_0M@GIEPEBGM@m_Inventory@ DB 'm_Inventory', 00H	; `string'
CONST	ENDS
;	COMDAT ??_C@_0CB@EAAOHIMM@Join?3Pocket?3POCKET_SLOT_SIZE_1_@
CONST	SEGMENT
??_C@_0CB@EAAOHIMM@Join?3Pocket?3POCKET_SLOT_SIZE_1_@ DB 'Join:Pocket:POC'
	DB	'KET_SLOT_SIZE_1_2', 00H			; `string'
CONST	ENDS
;	COMDAT ??_C@_0BP@BKCBFKFA@Join?3Pocket?3Property?5not?5found@
CONST	SEGMENT
??_C@_0BP@BKCBFKFA@Join?3Pocket?3Property?5not?5found@ DB 'Join:Pocket:Pr'
	DB	'operty not found', 00H			; `string'
CONST	ENDS
;	COMDAT ??_C@_0BA@OHENMHDO@tExpirationDate@
CONST	SEGMENT
??_C@_0BA@OHENMHDO@tExpirationDate@ DB 'tExpirationDate', 00H ; `string'
CONST	ENDS
;	COMDAT ??_C@_08MECCMHDE@bExpired@
CONST	SEGMENT
??_C@_08MECCMHDE@bExpired@ DB 'bExpired', 00H		; `string'
CONST	ENDS
;	COMDAT ??_C@_07LCDBAOIB@nPocket@
CONST	SEGMENT
??_C@_07LCDBAOIB@nPocket@ DB 'nPocket', 00H		; `string'
CONST	ENDS
;	COMDAT ??_C@_05LOKLGDMG@szPet@
CONST	SEGMENT
??_C@_05LOKLGDMG@szPet@ DB 'szPet', 00H			; `string'
CONST	ENDS
;	COMDAT ??_C@_0L@MAAIPEIA@szPiercing@
CONST	SEGMENT
??_C@_0L@MAAIPEIA@szPiercing@ DB 'szPiercing', 00H	; `string'
CONST	ENDS
;	COMDAT ??_C@_05MNJCPEEI@szExt@
CONST	SEGMENT
??_C@_05MNJCPEEI@szExt@ DB 'szExt', 00H			; `string'
CONST	ENDS
;	COMDAT ??_C@_0L@LNBLBPOC@szObjIndex@
CONST	SEGMENT
??_C@_0L@LNBLBPOC@szObjIndex@ DB 'szObjIndex', 00H	; `string'
CONST	ENDS
;	COMDAT ??_C@_07ODPBDBGJ@szIndex@
CONST	SEGMENT
??_C@_07ODPBDBGJ@szIndex@ DB 'szIndex', 00H		; `string'
CONST	ENDS
;	COMDAT ??_C@_06DKFLNFEC@szItem@
CONST	SEGMENT
??_C@_06DKFLNFEC@szItem@ DB 'szItem', 00H		; `string'
CONST	ENDS
;	COMDAT ??_C@_0P@MOKIMIMD@szGuildBankPet@
CONST	SEGMENT
??_C@_0P@MOKIMIMD@szGuildBankPet@ DB 'szGuildBankPet', 00H ; `string'
CONST	ENDS
;	COMDAT ??_C@_0BE@FOMLDJLH@m_GuildBankPiercing@
CONST	SEGMENT
??_C@_0BE@FOMLDJLH@m_GuildBankPiercing@ DB 'm_GuildBankPiercing', 00H ; `string'
CONST	ENDS
;	COMDAT ??_C@_0P@CLIOIOKN@m_extGuildBank@
CONST	SEGMENT
??_C@_0P@CLIOIOKN@m_extGuildBank@ DB 'm_extGuildBank', 00H ; `string'
CONST	ENDS
;	COMDAT ??_C@_0P@KBFNBDP@GuildBank?5?$DN?5?$CFs@
CONST	SEGMENT
??_C@_0P@KBFNBDP@GuildBank?5?$DN?5?$CFs@ DB 'GuildBank = %s', 00H ; `string'
CONST	ENDS
;	COMDAT ??_C@_0M@GKPNPIJD@m_GuildBank@
CONST	SEGMENT
??_C@_0M@GKPNPIJD@m_GuildBank@ DB 'm_GuildBank', 00H	; `string'
CONST	ENDS
;	COMDAT ??_C@_09EFEJAHGE@Bank?5?$DN?5?$CFs@
CONST	SEGMENT
??_C@_09EFEJAHGE@Bank?5?$DN?5?$CFs@ DB 'Bank = %s', 00H	; `string'
CONST	ENDS
;	COMDAT ??_C@_0CG@GPGFAEMD@Join?3?3Bank?5?3?5?$DM?$DM?5MAX_BANK?5?$CFd?6Ban@
CONST	SEGMENT
??_C@_0CG@GPGFAEMD@Join?3?3Bank?5?3?5?$DM?$DM?5MAX_BANK?5?$CFd?6Ban@ DB 'J'
	DB	'oin::Bank : << MAX_BANK %d', 0aH, 'Bank = %s', 00H ; `string'
CONST	ENDS
;	COMDAT ??_C@_0CM@JMMGLGKB@Join?3?3Bank?5?3?5?$DM?$DM?5Not?5Prop?4?5?$CFd?0?5?$CF@
CONST	SEGMENT
??_C@_0CM@JMMGLGKB@Join?3?3Bank?5?3?5?$DM?$DM?5Not?5Prop?4?5?$CFd?0?5?$CF@ DB 'J'
	DB	'oin::Bank : << Not Prop. %d, %d ', 0aH, 'Bank = %s', 00H ; `string'
CONST	ENDS
;	COMDAT ??_C@_0DN@JBKLBOHO@C?3?2IAGOS?2server?2v18?2Source?2Sour@
CONST	SEGMENT
??_C@_0DN@JBKLBOHO@C?3?2IAGOS?2server?2v18?2Source?2Sour@ DB 'C:\IAGOS\se'
	DB	'rver\v18\Source\Source\_Database\DbManagerFun.cpp', 00H ; `string'
CONST	ENDS
;	COMDAT ??_C@_09DAKBPAHF@szBankPet@
CONST	SEGMENT
??_C@_09DAKBPAHF@szBankPet@ DB 'szBankPet', 00H		; `string'
CONST	ENDS
;	COMDAT ??_C@_0P@HANLGJJC@m_BankPiercing@
CONST	SEGMENT
??_C@_0P@HANLGJJC@m_BankPiercing@ DB 'm_BankPiercing', 00H ; `string'
CONST	ENDS
;	COMDAT ??_C@_09CHFBCGKD@m_extBank@
CONST	SEGMENT
??_C@_09CHFBCGKD@m_extBank@ DB 'm_extBank', 00H		; `string'
CONST	ENDS
;	COMDAT ??_C@_0BC@HHMCMCCB@m_dwObjIndex_Bank@
CONST	SEGMENT
??_C@_0BC@HHMCMCCB@m_dwObjIndex_Bank@ DB 'm_dwObjIndex_Bank', 00H ; `string'
CONST	ENDS
;	COMDAT ??_C@_0P@KMLFLAAK@m_apIndex_Bank@
CONST	SEGMENT
??_C@_0P@KMLFLAAK@m_apIndex_Bank@ DB 'm_apIndex_Bank', 00H ; `string'
CONST	ENDS
;	COMDAT ??_C@_06BAMDHIIP@m_Bank@
CONST	SEGMENT
??_C@_06BAMDHIIP@m_Bank@ DB 'm_Bank', 00H		; `string'
CONST	ENDS
;	COMDAT ??_C@_0N@KIBMFHG@m_dwGoldBank@
CONST	SEGMENT
??_C@_0N@KIBMFHG@m_dwGoldBank@ DB 'm_dwGoldBank', 00H	; `string'
CONST	ENDS
;	COMDAT ??_C@_0L@FONFFEJF@m_idPlayer@
CONST	SEGMENT
??_C@_0L@FONFFEJF@m_idPlayer@ DB 'm_idPlayer', 00H	; `string'
CONST	ENDS
;	COMDAT ??_C@_0CI@KADALJOE@SetDBFormatStr?3?5nLen?5?$DN?5?$CFd?0?5nMax@
CONST	SEGMENT
??_C@_0CI@KADALJOE@SetDBFormatStr?3?5nLen?5?$DN?5?$CFd?0?5nMax@ DB 'SetDB'
	DB	'FormatStr: nLen = %d, nMaxLen = %d', 00H	; `string'
CONST	ENDS
;	COMDAT ??_C@_03BMNKJJEN@?$CF2X@
CONST	SEGMENT
??_C@_03BMNKJJEN@?$CF2X@ DB '%2X', 00H			; `string'
CONST	ENDS
;	COMDAT ??_C@_0CI@IEFGPJMF@GetDBFormatStr?3?5nLen?5?$DN?5?$CFd?0?5nMax@
CONST	SEGMENT
??_C@_0CI@IEFGPJMF@GetDBFormatStr?3?5nLen?5?$DN?5?$CFd?0?5nMax@ DB 'GetDB'
	DB	'FormatStr: nLen = %d, nMaxLen = %d', 00H	; `string'
CONST	ENDS
;	COMDAT ??_R4bad_alloc@std@@6B@
rdata$r	SEGMENT
??_R4bad_alloc@std@@6B@ DD 00H				; std::bad_alloc::`RTTI Complete Object Locator'
	DD	00H
	DD	00H
	DD	FLAT:??_R0?AVbad_alloc@std@@@8
	DD	FLAT:??_R3bad_alloc@std@@8
rdata$r	ENDS
;	COMDAT ??_R2bad_alloc@std@@8
rdata$r	SEGMENT
??_R2bad_alloc@std@@8 DD FLAT:??_R1A@?0A@EA@bad_alloc@std@@8 ; std::bad_alloc::`RTTI Base Class Array'
	DD	FLAT:??_R1A@?0A@EA@exception@std@@8
rdata$r	ENDS
;	COMDAT ??_R3bad_alloc@std@@8
rdata$r	SEGMENT
??_R3bad_alloc@std@@8 DD 00H				; std::bad_alloc::`RTTI Class Hierarchy Descriptor'
	DD	00H
	DD	02H
	DD	FLAT:??_R2bad_alloc@std@@8
rdata$r	ENDS
;	COMDAT ??_R1A@?0A@EA@bad_alloc@std@@8
rdata$r	SEGMENT
??_R1A@?0A@EA@bad_alloc@std@@8 DD FLAT:??_R0?AVbad_alloc@std@@@8 ; std::bad_alloc::`RTTI Base Class Descriptor at (0,-1,0,64)'
	DD	01H
	DD	00H
	DD	0ffffffffH
	DD	00H
	DD	040H
	DD	FLAT:??_R3bad_alloc@std@@8
rdata$r	ENDS
;	COMDAT ??_R1A@?0A@EA@bad_array_new_length@std@@8
rdata$r	SEGMENT
??_R1A@?0A@EA@bad_array_new_length@std@@8 DD FLAT:??_R0?AVbad_array_new_length@std@@@8 ; std::bad_array_new_length::`RTTI Base Class Descriptor at (0,-1,0,64)'
	DD	02H
	DD	00H
	DD	0ffffffffH
	DD	00H
	DD	040H
	DD	FLAT:??_R3bad_array_new_length@std@@8
rdata$r	ENDS
;	COMDAT ??_R2bad_array_new_length@std@@8
rdata$r	SEGMENT
??_R2bad_array_new_length@std@@8 DD FLAT:??_R1A@?0A@EA@bad_array_new_length@std@@8 ; std::bad_array_new_length::`RTTI Base Class Array'
	DD	FLAT:??_R1A@?0A@EA@bad_alloc@std@@8
	DD	FLAT:??_R1A@?0A@EA@exception@std@@8
rdata$r	ENDS
;	COMDAT ??_R3bad_array_new_length@std@@8
rdata$r	SEGMENT
??_R3bad_array_new_length@std@@8 DD 00H			; std::bad_array_new_length::`RTTI Class Hierarchy Descriptor'
	DD	00H
	DD	03H
	DD	FLAT:??_R2bad_array_new_length@std@@8
rdata$r	ENDS
;	COMDAT ??_R4bad_array_new_length@std@@6B@
rdata$r	SEGMENT
??_R4bad_array_new_length@std@@6B@ DD 00H		; std::bad_array_new_length::`RTTI Complete Object Locator'
	DD	00H
	DD	00H
	DD	FLAT:??_R0?AVbad_array_new_length@std@@@8
	DD	FLAT:??_R3bad_array_new_length@std@@8
rdata$r	ENDS
;	COMDAT ??_R1A@?0A@EA@exception@std@@8
rdata$r	SEGMENT
??_R1A@?0A@EA@exception@std@@8 DD FLAT:??_R0?AVexception@std@@@8 ; std::exception::`RTTI Base Class Descriptor at (0,-1,0,64)'
	DD	00H
	DD	00H
	DD	0ffffffffH
	DD	00H
	DD	040H
	DD	FLAT:??_R3exception@std@@8
rdata$r	ENDS
;	COMDAT ??_R2exception@std@@8
rdata$r	SEGMENT
??_R2exception@std@@8 DD FLAT:??_R1A@?0A@EA@exception@std@@8 ; std::exception::`RTTI Base Class Array'
rdata$r	ENDS
;	COMDAT ??_R3exception@std@@8
rdata$r	SEGMENT
??_R3exception@std@@8 DD 00H				; std::exception::`RTTI Class Hierarchy Descriptor'
	DD	00H
	DD	01H
	DD	FLAT:??_R2exception@std@@8
rdata$r	ENDS
;	COMDAT ??_R4exception@std@@6B@
rdata$r	SEGMENT
??_R4exception@std@@6B@ DD 00H				; std::exception::`RTTI Complete Object Locator'
	DD	00H
	DD	00H
	DD	FLAT:??_R0?AVexception@std@@@8
	DD	FLAT:??_R3exception@std@@8
rdata$r	ENDS
;	COMDAT ??_C@_0BA@FOIKENOD@vector?5too?5long@
CONST	SEGMENT
??_C@_0BA@FOIKENOD@vector?5too?5long@ DB 'vector too long', 00H ; `string'
CONST	ENDS
;	COMDAT ??_C@_09GBAEEKDE@?$CFs?0?5?$CFd?7?$CFs@
CONST	SEGMENT
??_C@_09GBAEEKDE@?$CFs?0?5?$CFd?7?$CFs@ DB '%s, %d', 09H, '%s', 00H ; `string'
CONST	ENDS
;	COMDAT ??_C@_0BB@GCADKGJO@map?1set?5too?5long@
CONST	SEGMENT
??_C@_0BB@GCADKGJO@map?1set?5too?5long@ DB 'map/set too long', 00H ; `string'
CONST	ENDS
;	COMDAT ??_C@_0BA@JFNIOLAK@string?5too?5long@
CONST	SEGMENT
??_C@_0BA@JFNIOLAK@string?5too?5long@ DB 'string too long', 00H ; `string'
CONST	ENDS
;	COMDAT __CT??_R0?AVbad_alloc@std@@@8??0bad_alloc@std@@QAE@ABV01@@Z12
xdata$x	SEGMENT
__CT??_R0?AVbad_alloc@std@@@8??0bad_alloc@std@@QAE@ABV01@@Z12 DD 010H
	DD	FLAT:??_R0?AVbad_alloc@std@@@8
	DD	00H
	DD	0ffffffffH
	ORG $+4
	DD	0cH
	DD	FLAT:??0bad_alloc@std@@QAE@ABV01@@Z
xdata$x	ENDS
;	COMDAT ??_R0?AVbad_alloc@std@@@8
data$r	SEGMENT
??_R0?AVbad_alloc@std@@@8 DD FLAT:??_7type_info@@6B@	; std::bad_alloc `RTTI Type Descriptor'
	DD	00H
	DB	'.?AVbad_alloc@std@@', 00H
data$r	ENDS
;	COMDAT __CT??_R0?AVbad_array_new_length@std@@@8??0bad_array_new_length@std@@QAE@ABV01@@Z12
xdata$x	SEGMENT
__CT??_R0?AVbad_array_new_length@std@@@8??0bad_array_new_length@std@@QAE@ABV01@@Z12 DD 00H
	DD	FLAT:??_R0?AVbad_array_new_length@std@@@8
	DD	00H
	DD	0ffffffffH
	ORG $+4
	DD	0cH
	DD	FLAT:??0bad_array_new_length@std@@QAE@ABV01@@Z
xdata$x	ENDS
;	COMDAT ??_R0?AVbad_array_new_length@std@@@8
data$r	SEGMENT
??_R0?AVbad_array_new_length@std@@@8 DD FLAT:??_7type_info@@6B@ ; std::bad_array_new_length `RTTI Type Descriptor'
	DD	00H
	DB	'.?AVbad_array_new_length@std@@', 00H
data$r	ENDS
;	COMDAT __CTA3?AVbad_array_new_length@std@@
xdata$x	SEGMENT
__CTA3?AVbad_array_new_length@std@@ DD 03H
	DD	FLAT:__CT??_R0?AVbad_array_new_length@std@@@8??0bad_array_new_length@std@@QAE@ABV01@@Z12
	DD	FLAT:__CT??_R0?AVbad_alloc@std@@@8??0bad_alloc@std@@QAE@ABV01@@Z12
	DD	FLAT:__CT??_R0?AVexception@std@@@8??0exception@std@@QAE@ABV01@@Z12
xdata$x	ENDS
;	COMDAT __TI3?AVbad_array_new_length@std@@
xdata$x	SEGMENT
__TI3?AVbad_array_new_length@std@@ DD 00H
	DD	FLAT:??1bad_array_new_length@std@@UAE@XZ
	DD	00H
	DD	FLAT:__CTA3?AVbad_array_new_length@std@@
xdata$x	ENDS
;	COMDAT __CT??_R0?AVexception@std@@@8??0exception@std@@QAE@ABV01@@Z12
xdata$x	SEGMENT
__CT??_R0?AVexception@std@@@8??0exception@std@@QAE@ABV01@@Z12 DD 00H
	DD	FLAT:??_R0?AVexception@std@@@8
	DD	00H
	DD	0ffffffffH
	ORG $+4
	DD	0cH
	DD	FLAT:??0exception@std@@QAE@ABV01@@Z
xdata$x	ENDS
;	COMDAT ??_R0?AVexception@std@@@8
data$r	SEGMENT
??_R0?AVexception@std@@@8 DD FLAT:??_7type_info@@6B@	; std::exception `RTTI Type Descriptor'
	DD	00H
	DB	'.?AVexception@std@@', 00H
data$r	ENDS
;	COMDAT ??_C@_0BF@KINCDENJ@bad?5array?5new?5length@
CONST	SEGMENT
??_C@_0BF@KINCDENJ@bad?5array?5new?5length@ DB 'bad array new length', 00H ; `string'
CONST	ENDS
;	COMDAT ??_7bad_array_new_length@std@@6B@
CONST	SEGMENT
??_7bad_array_new_length@std@@6B@ DD FLAT:??_R4bad_array_new_length@std@@6B@ ; std::bad_array_new_length::`vftable'
	DD	FLAT:??_Ebad_array_new_length@std@@UAEPAXI@Z
	DD	FLAT:?what@exception@std@@UBEPBDXZ
CONST	ENDS
;	COMDAT ??_7bad_alloc@std@@6B@
CONST	SEGMENT
??_7bad_alloc@std@@6B@ DD FLAT:??_R4bad_alloc@std@@6B@	; std::bad_alloc::`vftable'
	DD	FLAT:??_Ebad_alloc@std@@UAEPAXI@Z
	DD	FLAT:?what@exception@std@@UBEPBDXZ
CONST	ENDS
;	COMDAT ??_C@_0BC@EOODALEL@Unknown?5exception@
CONST	SEGMENT
??_C@_0BC@EOODALEL@Unknown?5exception@ DB 'Unknown exception', 00H ; `string'
CONST	ENDS
;	COMDAT ??_7exception@std@@6B@
CONST	SEGMENT
??_7exception@std@@6B@ DD FLAT:??_R4exception@std@@6B@	; std::exception::`vftable'
	DD	FLAT:??_Eexception@std@@UAEPAXI@Z
	DD	FLAT:?what@exception@std@@UBEPBDXZ
CONST	ENDS
;	COMDAT xdata$x
xdata$x	SEGMENT
__unwindtable$??$?0U?$pair@$$CBKPAVIBuff@@@std@@@?$_Tree_temp_node@V?$allocator@U?$_Tree_node@U?$pair@$$CBKPAVIBuff@@@std@@PAX@std@@@std@@@std@@QAE@AAV?$allocator@U?$_Tree_node@U?$pair@$$CBKPAVIBuff@@@std@@PAX@std@@@1@PAU?$_Tree_node@U?$pair@$$CBKPAVIBuff@@@std@@PAX@1@$$QAU?$pair@$$CBKPAVIBuff@@@1@@Z DD 0ffffffffH
	DD	FLAT:__unwindfunclet$??$?0U?$pair@$$CBKPAVIBuff@@@std@@@?$_Tree_temp_node@V?$allocator@U?$_Tree_node@U?$pair@$$CBKPAVIBuff@@@std@@PAX@std@@@std@@@std@@QAE@AAV?$allocator@U?$_Tree_node@U?$pair@$$CBKPAVIBuff@@@std@@PAX@std@@@1@PAU?$_Tree_node@U?$pair@$$CBKPAVIBuff@@@std@@PAX@1@$$QAU?$pair@$$CBKPAVIBuff@@@1@@Z$1
__ehfuncinfo$??$?0U?$pair@$$CBKPAVIBuff@@@std@@@?$_Tree_temp_node@V?$allocator@U?$_Tree_node@U?$pair@$$CBKPAVIBuff@@@std@@PAX@std@@@std@@@std@@QAE@AAV?$allocator@U?$_Tree_node@U?$pair@$$CBKPAVIBuff@@@std@@PAX@std@@@1@PAU?$_Tree_node@U?$pair@$$CBKPAVIBuff@@@std@@PAX@1@$$QAU?$pair@$$CBKPAVIBuff@@@1@@Z DD 019930522H
	DD	01H
	DD	FLAT:__unwindtable$??$?0U?$pair@$$CBKPAVIBuff@@@std@@@?$_Tree_temp_node@V?$allocator@U?$_Tree_node@U?$pair@$$CBKPAVIBuff@@@std@@PAX@std@@@std@@@std@@QAE@AAV?$allocator@U?$_Tree_node@U?$pair@$$CBKPAVIBuff@@@std@@PAX@std@@@1@PAU?$_Tree_node@U?$pair@$$CBKPAVIBuff@@@std@@PAX@1@$$QAU?$pair@$$CBKPAVIBuff@@@1@@Z
	DD	2 DUP(00H)
	DD	2 DUP(00H)
	DD	00H
	DD	01H
xdata$x	ENDS
;	COMDAT xdata$x
xdata$x	SEGMENT
__unwindtable$??0?$_Tree_temp_node_alloc@V?$allocator@U?$_Tree_node@U?$pair@$$CBKPAVIBuff@@@std@@PAX@std@@@std@@@std@@QAE@AAV?$allocator@U?$_Tree_node@U?$pair@$$CBKPAVIBuff@@@std@@PAX@std@@@1@@Z DD 0ffffffffH
	DD	FLAT:__unwindfunclet$??0?$_Tree_temp_node_alloc@V?$allocator@U?$_Tree_node@U?$pair@$$CBKPAVIBuff@@@std@@PAX@std@@@std@@@std@@QAE@AAV?$allocator@U?$_Tree_node@U?$pair@$$CBKPAVIBuff@@@std@@PAX@std@@@1@@Z$0
__ehfuncinfo$??0?$_Tree_temp_node_alloc@V?$allocator@U?$_Tree_node@U?$pair@$$CBKPAVIBuff@@@std@@PAX@std@@@std@@@std@@QAE@AAV?$allocator@U?$_Tree_node@U?$pair@$$CBKPAVIBuff@@@std@@PAX@std@@@1@@Z DD 019930522H
	DD	01H
	DD	FLAT:__unwindtable$??0?$_Tree_temp_node_alloc@V?$allocator@U?$_Tree_node@U?$pair@$$CBKPAVIBuff@@@std@@PAX@std@@@std@@@std@@QAE@AAV?$allocator@U?$_Tree_node@U?$pair@$$CBKPAVIBuff@@@std@@PAX@std@@@1@@Z
	DD	2 DUP(00H)
	DD	2 DUP(00H)
	DD	00H
	DD	01H
xdata$x	ENDS
;	COMDAT xdata$x
xdata$x	SEGMENT
__unwindtable$??$_Emplace@U?$pair@$$CBKPAVIBuff@@@std@@@?$_Tree@V?$_Tmap_traits@KPAVIBuff@@U?$less@K@std@@V?$allocator@U?$pair@$$CBKPAVIBuff@@@std@@@3@$0A@@std@@@std@@IAE?AU?$pair@PAU?$_Tree_node@U?$pair@$$CBKPAVIBuff@@@std@@PAX@std@@_N@1@$$QAU?$pair@$$CBKPAVIBuff@@@1@@Z DD 0ffffffffH
	DD	FLAT:__unwindfunclet$??$_Emplace@U?$pair@$$CBKPAVIBuff@@@std@@@?$_Tree@V?$_Tmap_traits@KPAVIBuff@@U?$less@K@std@@V?$allocator@U?$pair@$$CBKPAVIBuff@@@std@@@3@$0A@@std@@@std@@IAE?AU?$pair@PAU?$_Tree_node@U?$pair@$$CBKPAVIBuff@@@std@@PAX@std@@_N@1@$$QAU?$pair@$$CBKPAVIBuff@@@1@@Z$2
__ehfuncinfo$??$_Emplace@U?$pair@$$CBKPAVIBuff@@@std@@@?$_Tree@V?$_Tmap_traits@KPAVIBuff@@U?$less@K@std@@V?$allocator@U?$pair@$$CBKPAVIBuff@@@std@@@3@$0A@@std@@@std@@IAE?AU?$pair@PAU?$_Tree_node@U?$pair@$$CBKPAVIBuff@@@std@@PAX@std@@_N@1@$$QAU?$pair@$$CBKPAVIBuff@@@1@@Z DD 019930522H
	DD	01H
	DD	FLAT:__unwindtable$??$_Emplace@U?$pair@$$CBKPAVIBuff@@@std@@@?$_Tree@V?$_Tmap_traits@KPAVIBuff@@U?$less@K@std@@V?$allocator@U?$pair@$$CBKPAVIBuff@@@std@@@3@$0A@@std@@@std@@IAE?AU?$pair@PAU?$_Tree_node@U?$pair@$$CBKPAVIBuff@@@std@@PAX@std@@_N@1@$$QAU?$pair@$$CBKPAVIBuff@@@1@@Z
	DD	2 DUP(00H)
	DD	2 DUP(00H)
	DD	00H
	DD	01H
xdata$x	ENDS
;	COMDAT xdata$x
xdata$x	SEGMENT
__unwindtable$?GetGuildBank@CDbManager@@QAEXPAV?$CItemContainer@VCItemElem@@@@PAVCQuery@@@Z DD 0ffffffffH
	DD	FLAT:__unwindfunclet$?GetGuildBank@CDbManager@@QAEXPAV?$CItemContainer@VCItemElem@@@@PAVCQuery@@@Z$0
	DD	0ffffffffH
	DD	FLAT:__unwindfunclet$?GetGuildBank@CDbManager@@QAEXPAV?$CItemContainer@VCItemElem@@@@PAVCQuery@@@Z$1
__ehfuncinfo$?GetGuildBank@CDbManager@@QAEXPAV?$CItemContainer@VCItemElem@@@@PAVCQuery@@@Z DD 019930522H
	DD	02H
	DD	FLAT:__unwindtable$?GetGuildBank@CDbManager@@QAEXPAV?$CItemContainer@VCItemElem@@@@PAVCQuery@@@Z
	DD	2 DUP(00H)
	DD	2 DUP(00H)
	DD	00H
	DD	01H
xdata$x	ENDS
;	COMDAT xdata$x
xdata$x	SEGMENT
__unwindtable$?GetBankMover@CDbManager@@QAEHPAVCMover@@PAVCQuery@@H@Z DD 0ffffffffH
	DD	FLAT:__unwindfunclet$?GetBankMover@CDbManager@@QAEHPAVCMover@@PAVCQuery@@H@Z$0
	DD	0ffffffffH
	DD	FLAT:__unwindfunclet$?GetBankMover@CDbManager@@QAEHPAVCMover@@PAVCQuery@@H@Z$1
__ehfuncinfo$?GetBankMover@CDbManager@@QAEHPAVCMover@@PAVCQuery@@H@Z DD 019930522H
	DD	02H
	DD	FLAT:__unwindtable$?GetBankMover@CDbManager@@QAEHPAVCMover@@PAVCQuery@@H@Z
	DD	2 DUP(00H)
	DD	2 DUP(00H)
	DD	00H
	DD	01H
xdata$x	ENDS
;	COMDAT xdata$x
xdata$x	SEGMENT
__unwindtable$?GetSKillInfluence@CDbManager@@QAEHPAVCMover@@PAVCQuery@@PAUtagDB_OVERLAPPED_PLUS@@@Z DD 0ffffffffH
	DD	FLAT:__unwindfunclet$?GetSKillInfluence@CDbManager@@QAEHPAVCMover@@PAVCQuery@@PAUtagDB_OVERLAPPED_PLUS@@@Z$2
__ehfuncinfo$?GetSKillInfluence@CDbManager@@QAEHPAVCMover@@PAVCQuery@@PAUtagDB_OVERLAPPED_PLUS@@@Z DD 019930522H
	DD	01H
	DD	FLAT:__unwindtable$?GetSKillInfluence@CDbManager@@QAEHPAVCMover@@PAVCQuery@@PAUtagDB_OVERLAPPED_PLUS@@@Z
	DD	2 DUP(00H)
	DD	2 DUP(00H)
	DD	00H
	DD	01H
xdata$x	ENDS
;	COMDAT xdata$x
xdata$x	SEGMENT
__unwindtable$?GetPocket@CDbManager@@QAEHPAVCMover@@PAVCQuery@@PAUtagDB_OVERLAPPED_PLUS@@@Z DD 0ffffffffH
	DD	FLAT:__unwindfunclet$?GetPocket@CDbManager@@QAEHPAVCMover@@PAVCQuery@@PAUtagDB_OVERLAPPED_PLUS@@@Z$0
	DD	0ffffffffH
	DD	FLAT:__unwindfunclet$?GetPocket@CDbManager@@QAEHPAVCMover@@PAVCQuery@@PAUtagDB_OVERLAPPED_PLUS@@@Z$1
__ehfuncinfo$?GetPocket@CDbManager@@QAEHPAVCMover@@PAVCQuery@@PAUtagDB_OVERLAPPED_PLUS@@@Z DD 019930522H
	DD	02H
	DD	FLAT:__unwindtable$?GetPocket@CDbManager@@QAEHPAVCMover@@PAVCQuery@@PAUtagDB_OVERLAPPED_PLUS@@@Z
	DD	2 DUP(00H)
	DD	2 DUP(00H)
	DD	00H
	DD	01H
xdata$x	ENDS
;	COMDAT xdata$x
xdata$x	SEGMENT
__unwindtable$?GetInventory@CDbManager@@QAEHPAVCMover@@PAVCQuery@@PAUtagDB_OVERLAPPED_PLUS@@@Z DD 0ffffffffH
	DD	FLAT:__unwindfunclet$?GetInventory@CDbManager@@QAEHPAVCMover@@PAVCQuery@@PAUtagDB_OVERLAPPED_PLUS@@@Z$0
	DD	0ffffffffH
	DD	FLAT:__unwindfunclet$?GetInventory@CDbManager@@QAEHPAVCMover@@PAVCQuery@@PAUtagDB_OVERLAPPED_PLUS@@@Z$1
__ehfuncinfo$?GetInventory@CDbManager@@QAEHPAVCMover@@PAVCQuery@@PAUtagDB_OVERLAPPED_PLUS@@@Z DD 019930522H
	DD	02H
	DD	FLAT:__unwindtable$?GetInventory@CDbManager@@QAEHPAVCMover@@PAVCQuery@@PAUtagDB_OVERLAPPED_PLUS@@@Z
	DD	2 DUP(00H)
	DD	2 DUP(00H)
	DD	00H
	DD	01H
xdata$x	ENDS
;	COMDAT xdata$x
xdata$x	SEGMENT
__unwindtable$?GetBank@CDbManager@@QAEHPAVCMover@@PAVCQuery@@PAUtagDB_OVERLAPPED_PLUS@@H@Z DD 0ffffffffH
	DD	FLAT:__unwindfunclet$?GetBank@CDbManager@@QAEHPAVCMover@@PAVCQuery@@PAUtagDB_OVERLAPPED_PLUS@@H@Z$0
	DD	0ffffffffH
	DD	FLAT:__unwindfunclet$?GetBank@CDbManager@@QAEHPAVCMover@@PAVCQuery@@PAUtagDB_OVERLAPPED_PLUS@@H@Z$1
__ehfuncinfo$?GetBank@CDbManager@@QAEHPAVCMover@@PAVCQuery@@PAUtagDB_OVERLAPPED_PLUS@@H@Z DD 019930522H
	DD	02H
	DD	FLAT:__unwindtable$?GetBank@CDbManager@@QAEHPAVCMover@@PAVCQuery@@PAUtagDB_OVERLAPPED_PLUS@@H@Z
	DD	2 DUP(00H)
	DD	2 DUP(00H)
	DD	00H
	DD	01H
xdata$x	ENDS
;	COMDAT xdata$x
xdata$x	SEGMENT
__unwindtable$?RemoveQuest@CDbManager@@QAEHXZ DD 0ffffffffH
	DD	FLAT:__unwindfunclet$?RemoveQuest@CDbManager@@QAEHXZ$0
	DD	00H
	DD	FLAT:__unwindfunclet$?RemoveQuest@CDbManager@@QAEHXZ$1
	DD	01H
	DD	FLAT:__unwindfunclet$?RemoveQuest@CDbManager@@QAEHXZ$2
	DD	01H
	DD	FLAT:__unwindfunclet$?RemoveQuest@CDbManager@@QAEHXZ$3
__ehfuncinfo$?RemoveQuest@CDbManager@@QAEHXZ DD 019930522H
	DD	04H
	DD	FLAT:__unwindtable$?RemoveQuest@CDbManager@@QAEHXZ
	DD	2 DUP(00H)
	DD	2 DUP(00H)
	DD	00H
	DD	01H
xdata$x	ENDS
;	COMDAT xdata$x
xdata$x	SEGMENT
__unwindtable$??$insert@$0A@$0A@@?$_Tree@V?$_Tmap_traits@KPAVIBuff@@U?$less@K@std@@V?$allocator@U?$pair@$$CBKPAVIBuff@@@std@@@3@$0A@@std@@@std@@QAE?AU?$pair@V?$_Tree_iterator@V?$_Tree_val@U?$_Tree_simple_types@U?$pair@$$CBKPAVIBuff@@@std@@@std@@@std@@@std@@_N@1@$$QAU?$pair@$$CBKPAVIBuff@@@1@@Z DD 0ffffffffH
	DD	FLAT:__unwindfunclet$??$insert@$0A@$0A@@?$_Tree@V?$_Tmap_traits@KPAVIBuff@@U?$less@K@std@@V?$allocator@U?$pair@$$CBKPAVIBuff@@@std@@@3@$0A@@std@@@std@@QAE?AU?$pair@V?$_Tree_iterator@V?$_Tree_val@U?$_Tree_simple_types@U?$pair@$$CBKPAVIBuff@@@std@@@std@@@std@@@std@@_N@1@$$QAU?$pair@$$CBKPAVIBuff@@@1@@Z$2
__ehfuncinfo$??$insert@$0A@$0A@@?$_Tree@V?$_Tmap_traits@KPAVIBuff@@U?$less@K@std@@V?$allocator@U?$pair@$$CBKPAVIBuff@@@std@@@3@$0A@@std@@@std@@QAE?AU?$pair@V?$_Tree_iterator@V?$_Tree_val@U?$_Tree_simple_types@U?$pair@$$CBKPAVIBuff@@@std@@@std@@@std@@@std@@_N@1@$$QAU?$pair@$$CBKPAVIBuff@@@1@@Z DD 019930522H
	DD	01H
	DD	FLAT:__unwindtable$??$insert@$0A@$0A@@?$_Tree@V?$_Tmap_traits@KPAVIBuff@@U?$less@K@std@@V?$allocator@U?$pair@$$CBKPAVIBuff@@@std@@@3@$0A@@std@@@std@@QAE?AU?$pair@V?$_Tree_iterator@V?$_Tree_val@U?$_Tree_simple_types@U?$pair@$$CBKPAVIBuff@@@std@@@std@@@std@@@std@@_N@1@$$QAU?$pair@$$CBKPAVIBuff@@@1@@Z
	DD	2 DUP(00H)
	DD	2 DUP(00H)
	DD	00H
	DD	01H
xdata$x	ENDS
;	COMDAT xdata$x
xdata$x	SEGMENT
__unwindtable$?Add@CBuffMgr@@QAE_NPAVIBuff@@@Z DD 0ffffffffH
	DD	FLAT:__unwindfunclet$?Add@CBuffMgr@@QAE_NPAVIBuff@@@Z$2
__ehfuncinfo$?Add@CBuffMgr@@QAE_NPAVIBuff@@@Z DD 019930522H
	DD	01H
	DD	FLAT:__unwindtable$?Add@CBuffMgr@@QAE_NPAVIBuff@@@Z
	DD	2 DUP(00H)
	DD	2 DUP(00H)
	DD	00H
	DD	01H
xdata$x	ENDS
; Function compile flags: /Ogtp
; File C:\Program Files\Microsoft Visual Studio\2022\Professional\VC\Tools\MSVC\14.44.35207\include\xutility
;	COMDAT ??$_Copy_memmove_tail@PAH@std@@YAPAHQBDQAHII@Z
_TEXT	SEGMENT
__First_ch$ = 8						; size = 4
__Dest$ = 12						; size = 4
__Byte_count$ = 16					; size = 4
__Object_count$ = 20					; size = 4
??$_Copy_memmove_tail@PAH@std@@YAPAHQBDQAHII@Z PROC	; std::_Copy_memmove_tail<int *>, COMDAT

; 4747 :     const char* const _First_ch, const _OutCtgIt _Dest, const size_t _Byte_count, const size_t _Object_count) {

  00000	55		 push	 ebp
  00001	8b ec		 mov	 ebp, esp
  00003	56		 push	 esi

; 4748 :     _STL_INTERNAL_CHECK(_Byte_count == _Object_count * sizeof(*_Dest));
; 4749 :     const auto _Dest_ptr = _STD _To_address(_Dest);
; 4750 :     const auto _Dest_ch  = const_cast<char*>(reinterpret_cast<const volatile char*>(_Dest_ptr));
; 4751 :     _CSTD memmove(_Dest_ch, _First_ch, _Byte_count);

  00004	8b 75 0c	 mov	 esi, DWORD PTR __Dest$[ebp]
  00007	57		 push	 edi
  00008	8b 7d 10	 mov	 edi, DWORD PTR __Byte_count$[ebp]
  0000b	57		 push	 edi
  0000c	ff 75 08	 push	 DWORD PTR __First_ch$[ebp]
  0000f	56		 push	 esi
  00010	e8 00 00 00 00	 call	 _memmove
  00015	83 c4 0c	 add	 esp, 12			; 0000000cH

; 4752 :     if constexpr (is_pointer_v<_OutCtgIt>) {
; 4753 :         (void) _Object_count;
; 4754 :         // CodeQL [SM02986] This cast is correct: we're bypassing pointer arithmetic for performance.
; 4755 :         return reinterpret_cast<_OutCtgIt>(_Dest_ch + _Byte_count);

  00018	8d 04 3e	 lea	 eax, DWORD PTR [esi+edi]
  0001b	5f		 pop	 edi
  0001c	5e		 pop	 esi

; 4756 :     } else {
; 4757 :         return _Dest + static_cast<_Iter_diff_t<_OutCtgIt>>(_Object_count);
; 4758 :     }
; 4759 : }

  0001d	5d		 pop	 ebp
  0001e	c3		 ret	 0
??$_Copy_memmove_tail@PAH@std@@YAPAHQBDQAHII@Z ENDP	; std::_Copy_memmove_tail<int *>
_TEXT	ENDS
; Function compile flags: /Ogtp
; File C:\Program Files\Microsoft Visual Studio\2022\Professional\VC\Tools\MSVC\14.44.35207\include\xutility
;	COMDAT ??$_Copy_memmove@PAHPAH@std@@YAPAHPAH00@Z
_TEXT	SEGMENT
__First$ = 8						; size = 4
__Last$ = 12						; size = 4
__Dest$ = 16						; size = 4
??$_Copy_memmove@PAHPAH@std@@YAPAHPAH00@Z PROC		; std::_Copy_memmove<int *,int *>, COMDAT

; 4762 : _OutCtgIt _Copy_memmove(_CtgIt _First, _CtgIt _Last, _OutCtgIt _Dest) {

  00000	55		 push	 ebp
  00001	8b ec		 mov	 ebp, esp

; 4763 :     _STL_INTERNAL_CHECK(_First <= _Last);
; 4764 :     const auto _First_ptr    = _STD _To_address(_First);
; 4765 :     const auto _Last_ptr     = _STD _To_address(_Last);
; 4766 :     const auto _Object_count = static_cast<size_t>(_Last_ptr - _First_ptr);

  00003	8b 55 08	 mov	 edx, DWORD PTR __First$[ebp]
  00006	8b 4d 0c	 mov	 ecx, DWORD PTR __Last$[ebp]
  00009	2b ca		 sub	 ecx, edx
  0000b	8b c1		 mov	 eax, ecx
  0000d	c1 f8 02	 sar	 eax, 2

; 4767 :     const auto _First_ch     = const_cast<const char*>(reinterpret_cast<const volatile char*>(_First_ptr));
; 4768 :     const auto _Last_ch      = const_cast<const char*>(reinterpret_cast<const volatile char*>(_Last_ptr));
; 4769 :     const auto _Byte_count   = static_cast<size_t>(_Last_ch - _First_ch);
; 4770 :     return _STD _Copy_memmove_tail(_First_ch, _STD move(_Dest), _Byte_count, _Object_count);

  00010	50		 push	 eax
  00011	51		 push	 ecx
  00012	ff 75 10	 push	 DWORD PTR __Dest$[ebp]
  00015	52		 push	 edx
  00016	e8 00 00 00 00	 call	 ??$_Copy_memmove_tail@PAH@std@@YAPAHQBDQAHII@Z ; std::_Copy_memmove_tail<int *>
  0001b	83 c4 10	 add	 esp, 16			; 00000010H

; 4771 : }

  0001e	5d		 pop	 ebp
  0001f	c3		 ret	 0
??$_Copy_memmove@PAHPAH@std@@YAPAHPAH00@Z ENDP		; std::_Copy_memmove<int *,int *>
_TEXT	ENDS
; Function compile flags: /Ogtp
; File C:\Program Files\Microsoft Visual Studio\2022\Professional\VC\Tools\MSVC\14.44.35207\include\vector
; File C:\Program Files\Microsoft Visual Studio\2022\Professional\VC\Tools\MSVC\14.44.35207\include\xmemory
; File C:\Program Files\Microsoft Visual Studio\2022\Professional\VC\Tools\MSVC\14.44.35207\include\vector
; File C:\Program Files\Microsoft Visual Studio\2022\Professional\VC\Tools\MSVC\14.44.35207\include\xmemory
; File C:\Program Files\Microsoft Visual Studio\2022\Professional\VC\Tools\MSVC\14.44.35207\include\vector
; File C:\Program Files\Microsoft Visual Studio\2022\Professional\VC\Tools\MSVC\14.44.35207\include\xmemory
; File C:\Program Files\Microsoft Visual Studio\2022\Professional\VC\Tools\MSVC\14.44.35207\include\vector
; File C:\Program Files\Microsoft Visual Studio\2022\Professional\VC\Tools\MSVC\14.44.35207\include\xmemory
; File C:\Program Files\Microsoft Visual Studio\2022\Professional\VC\Tools\MSVC\14.44.35207\include\vector
; File C:\Program Files\Microsoft Visual Studio\2022\Professional\VC\Tools\MSVC\14.44.35207\include\xmemory
; File C:\Program Files\Microsoft Visual Studio\2022\Professional\VC\Tools\MSVC\14.44.35207\include\vector
; File C:\Program Files\Microsoft Visual Studio\2022\Professional\VC\Tools\MSVC\14.44.35207\include\xmemory
; File C:\Program Files\Microsoft Visual Studio\2022\Professional\VC\Tools\MSVC\14.44.35207\include\vector
; File C:\Program Files\Microsoft Visual Studio\2022\Professional\VC\Tools\MSVC\14.44.35207\include\xmemory
; File C:\Program Files\Microsoft Visual Studio\2022\Professional\VC\Tools\MSVC\14.44.35207\include\vector
; File C:\Program Files\Microsoft Visual Studio\2022\Professional\VC\Tools\MSVC\14.44.35207\include\xmemory
; File C:\Program Files\Microsoft Visual Studio\2022\Professional\VC\Tools\MSVC\14.44.35207\include\vector
;	COMDAT ??$_Emplace_reallocate@ABH@?$vector@HV?$allocator@H@std@@@std@@AAEPAHQAHABH@Z
_TEXT	SEGMENT
__Newsize$1$ = -12					; size = 4
tv652 = -8						; size = 4
tv650 = -4						; size = 4
__Whereptr$ = 8						; size = 4
_<_Val_0>$ = 12						; size = 4
??$_Emplace_reallocate@ABH@?$vector@HV?$allocator@H@std@@@std@@AAEPAHQAHABH@Z PROC ; std::vector<int,std::allocator<int> >::_Emplace_reallocate<int const &>, COMDAT
; _this$ = ecx

; 875  :     _CONSTEXPR20 pointer _Emplace_reallocate(const pointer _Whereptr, _Valty&&... _Val) {

  00000	55		 push	 ebp
  00001	8b ec		 mov	 ebp, esp
  00003	83 ec 0c	 sub	 esp, 12			; 0000000cH
  00006	53		 push	 ebx

; 876  :         // reallocate and insert by perfectly forwarding _Val at _Whereptr
; 877  :         _Alty& _Al        = _Getal();
; 878  :         auto& _My_data    = _Mypair._Myval2;
; 879  :         pointer& _Myfirst = _My_data._Myfirst;
; 880  :         pointer& _Mylast  = _My_data._Mylast;
; 881  : 
; 882  :         _STL_INTERNAL_CHECK(_Mylast == _My_data._Myend); // check that we have no unused capacity
; 883  : 
; 884  :         const auto _Whereoff = static_cast<size_type>(_Whereptr - _Myfirst);

  00007	8b 5d 08	 mov	 ebx, DWORD PTR __Whereptr$[ebp]
  0000a	56		 push	 esi
  0000b	8b f1		 mov	 esi, ecx
  0000d	57		 push	 edi
  0000e	8b 0e		 mov	 ecx, DWORD PTR [esi]
  00010	2b d9		 sub	 ebx, ecx

; 885  :         const auto _Oldsize  = static_cast<size_type>(_Mylast - _Myfirst);

  00012	8b 46 04	 mov	 eax, DWORD PTR [esi+4]
  00015	2b c1		 sub	 eax, ecx
  00017	c1 fb 02	 sar	 ebx, 2
  0001a	c1 f8 02	 sar	 eax, 2

; 886  : 
; 887  :         if (_Oldsize == max_size()) {

  0001d	3d ff ff ff 3f	 cmp	 eax, 1073741823		; 3fffffffH
  00022	0f 84 13 01 00
	00		 je	 $LN111@Emplace_re

; 1924 :         return static_cast<size_type>(_My_data._Myend - _My_data._Myfirst);

  00028	8b 56 08	 mov	 edx, DWORD PTR [esi+8]

; 889  :         }
; 890  : 
; 891  :         const size_type _Newsize = _Oldsize + 1;

  0002b	8d 78 01	 lea	 edi, DWORD PTR [eax+1]

; 1924 :         return static_cast<size_type>(_My_data._Myend - _My_data._Myfirst);

  0002e	2b d1		 sub	 edx, ecx

; 889  :         }
; 890  : 
; 891  :         const size_type _Newsize = _Oldsize + 1;

  00030	89 7d f4	 mov	 DWORD PTR __Newsize$1$[ebp], edi

; 1924 :         return static_cast<size_type>(_My_data._Myend - _My_data._Myfirst);

  00033	c1 fa 02	 sar	 edx, 2

; 2011 :         if (_Oldcapacity > _Max - _Oldcapacity / 2) {

  00036	b8 ff ff ff 3f	 mov	 eax, 1073741823		; 3fffffffH
  0003b	8b ca		 mov	 ecx, edx
  0003d	d1 e9		 shr	 ecx, 1
  0003f	2b c1		 sub	 eax, ecx
  00041	3b d0		 cmp	 edx, eax
  00043	76 14		 jbe	 SHORT $LN8@Emplace_re

; 2012 :             return _Max; // geometric growth would overflow

  00045	b8 fc ff ff ff	 mov	 eax, -4			; fffffffcH
  0004a	c7 45 f8 fc ff
	ff ff		 mov	 DWORD PTR tv652[ebp], -4 ; fffffffcH
; File C:\Program Files\Microsoft Visual Studio\2022\Professional\VC\Tools\MSVC\14.44.35207\include\xmemory

; 253  :             return _Allocate_manually_vector_aligned<_Traits>(_Bytes);

  00051	50		 push	 eax
  00052	e8 00 00 00 00	 call	 ??$_Allocate_manually_vector_aligned@U_Default_allocate_traits@std@@@std@@YAPAXI@Z ; std::_Allocate_manually_vector_aligned<std::_Default_allocate_traits>
  00057	eb 3d		 jmp	 SHORT $LN109@Emplace_re
$LN8@Emplace_re:
; File C:\Program Files\Microsoft Visual Studio\2022\Professional\VC\Tools\MSVC\14.44.35207\include\vector

; 2015 :         const size_type _Geometric = _Oldcapacity + _Oldcapacity / 2;

  00059	8d 04 11	 lea	 eax, DWORD PTR [ecx+edx]
; File C:\Program Files\Microsoft Visual Studio\2022\Professional\VC\Tools\MSVC\14.44.35207\include\xmemory

; 117  :         if (_Count > _Max_possible) {

  0005c	8b cf		 mov	 ecx, edi
  0005e	3b c7		 cmp	 eax, edi
  00060	0f 43 c8	 cmovae	 ecx, eax
  00063	81 f9 ff ff ff
	3f		 cmp	 ecx, 1073741823		; 3fffffffH
  00069	0f 87 d1 00 00
	00		 ja	 $LN112@Emplace_re

; 119  :         }
; 120  :     }
; 121  : 
; 122  :     return _Count * _Ty_size;

  0006f	8d 04 8d 00 00
	00 00		 lea	 eax, DWORD PTR [ecx*4]
  00076	89 45 f8	 mov	 DWORD PTR tv652[ebp], eax

; 227  :     if (_Bytes == 0) {

  00079	85 c0		 test	 eax, eax
  0007b	75 04		 jne	 SHORT $LN23@Emplace_re

; 228  :         return nullptr;

  0007d	33 ff		 xor	 edi, edi
  0007f	eb 1a		 jmp	 SHORT $LN22@Emplace_re
$LN23@Emplace_re:

; 229  :     }
; 230  : 
; 231  : #if _HAS_CXX20 // TRANSITION, GH-1532
; 232  :     if (_STD is_constant_evaluated()) {
; 233  :         return _Traits::_Allocate(_Bytes);
; 234  :     }
; 235  : #endif // _HAS_CXX20
; 236  : 
; 237  : #ifdef __cpp_aligned_new
; 238  :     if constexpr (_Align > __STDCPP_DEFAULT_NEW_ALIGNMENT__) {
; 239  :         size_t _Passed_align = _Align;
; 240  : #if defined(_M_IX86) || defined(_M_X64)
; 241  :         if (_Bytes >= _Big_allocation_threshold) {
; 242  :             // boost the alignment of big allocations to help autovectorization
; 243  :             _Passed_align = (_STD max)(_Align, _Big_allocation_alignment);
; 244  :         }
; 245  : #endif // defined(_M_IX86) || defined(_M_X64)
; 246  :         return _Traits::_Allocate_aligned(_Bytes, _Passed_align);
; 247  :     } else
; 248  : #endif // defined(__cpp_aligned_new)
; 249  :     {
; 250  : #if defined(_M_IX86) || defined(_M_X64)
; 251  :         if (_Bytes >= _Big_allocation_threshold) {

  00081	3d 00 10 00 00	 cmp	 eax, 4096		; 00001000H
  00086	72 08		 jb	 SHORT $LN24@Emplace_re

; 253  :             return _Allocate_manually_vector_aligned<_Traits>(_Bytes);

  00088	50		 push	 eax
  00089	e8 00 00 00 00	 call	 ??$_Allocate_manually_vector_aligned@U_Default_allocate_traits@std@@@std@@YAPAXI@Z ; std::_Allocate_manually_vector_aligned<std::_Default_allocate_traits>
  0008e	eb 06		 jmp	 SHORT $LN109@Emplace_re
$LN24@Emplace_re:

; 136  :         return ::operator new(_Bytes);

  00090	50		 push	 eax
  00091	e8 00 00 00 00	 call	 ??2@YAPAXI@Z		; operator new
$LN109@Emplace_re:
; File C:\Program Files\Microsoft Visual Studio\2022\Professional\VC\Tools\MSVC\14.44.35207\include\vector

; 900  :         _Alty_traits::construct(_Al, _STD _Unfancy(_Newvec + _Whereoff), _STD forward<_Valty>(_Val)...);

  00096	8b f8		 mov	 edi, eax
  00098	83 c4 04	 add	 esp, 4
$LN22@Emplace_re:
  0009b	8b 45 0c	 mov	 eax, DWORD PTR _<_Val_0>$[ebp]
  0009e	8d 0c 9f	 lea	 ecx, DWORD PTR [edi+ebx*4]

; 901  :         _Constructed_first = _Newvec + _Whereoff;
; 902  : 
; 903  :         if (_Whereptr == _Mylast) { // at back, provide strong guarantee

  000a1	8b 5d 08	 mov	 ebx, DWORD PTR __Whereptr$[ebp]
  000a4	89 4d fc	 mov	 DWORD PTR tv650[ebp], ecx
  000a7	8b 00		 mov	 eax, DWORD PTR [eax]
  000a9	89 01		 mov	 DWORD PTR [ecx], eax
  000ab	8b 46 04	 mov	 eax, DWORD PTR [esi+4]
  000ae	8b 0e		 mov	 ecx, DWORD PTR [esi]
  000b0	3b d8		 cmp	 ebx, eax
  000b2	75 07		 jne	 SHORT $LN3@Emplace_re

; 909  :         } else { // provide basic guarantee

  000b4	8b 5d fc	 mov	 ebx, DWORD PTR tv650[ebp]
; File C:\Program Files\Microsoft Visual Studio\2022\Professional\VC\Tools\MSVC\14.44.35207\include\xmemory

; 1992 :             _STD _Copy_memmove(_UFirst, _ULast, _STD _Unfancy(_Dest));

  000b7	8b d7		 mov	 edx, edi
; File C:\Program Files\Microsoft Visual Studio\2022\Professional\VC\Tools\MSVC\14.44.35207\include\vector

; 909  :         } else { // provide basic guarantee

  000b9	eb 16		 jmp	 SHORT $LN52@Emplace_re
$LN3@Emplace_re:
; File C:\Program Files\Microsoft Visual Studio\2022\Professional\VC\Tools\MSVC\14.44.35207\include\xmemory

; 1992 :             _STD _Copy_memmove(_UFirst, _ULast, _STD _Unfancy(_Dest));

  000bb	57		 push	 edi
  000bc	53		 push	 ebx
  000bd	51		 push	 ecx
  000be	e8 00 00 00 00	 call	 ??$_Copy_memmove@PAHPAH@std@@YAPAHPAH00@Z ; std::_Copy_memmove<int *,int *>
  000c3	8b 46 04	 mov	 eax, DWORD PTR [esi+4]
  000c6	8b cb		 mov	 ecx, ebx
; File C:\Program Files\Microsoft Visual Studio\2022\Professional\VC\Tools\MSVC\14.44.35207\include\vector

; 912  :             _STD _Uninitialized_move(_Whereptr, _Mylast, _Newvec + _Whereoff + 1, _Al);

  000c8	8b 5d fc	 mov	 ebx, DWORD PTR tv650[ebp]
; File C:\Program Files\Microsoft Visual Studio\2022\Professional\VC\Tools\MSVC\14.44.35207\include\xmemory

; 1992 :             _STD _Copy_memmove(_UFirst, _ULast, _STD _Unfancy(_Dest));

  000cb	83 c4 0c	 add	 esp, 12			; 0000000cH
; File C:\Program Files\Microsoft Visual Studio\2022\Professional\VC\Tools\MSVC\14.44.35207\include\vector

; 912  :             _STD _Uninitialized_move(_Whereptr, _Mylast, _Newvec + _Whereoff + 1, _Al);

  000ce	8d 53 04	 lea	 edx, DWORD PTR [ebx+4]
$LN52@Emplace_re:

; 913  :         }
; 914  : 
; 915  :         _Guard._New_begin = nullptr;

  000d1	52		 push	 edx
  000d2	50		 push	 eax
  000d3	51		 push	 ecx
  000d4	e8 00 00 00 00	 call	 ??$_Copy_memmove@PAHPAH@std@@YAPAHPAH00@Z ; std::_Copy_memmove<int *,int *>

; 2069 :         if (_Myfirst) { // destroy and deallocate old array

  000d9	8b 06		 mov	 eax, DWORD PTR [esi]

; 913  :         }
; 914  : 
; 915  :         _Guard._New_begin = nullptr;

  000db	83 c4 0c	 add	 esp, 12			; 0000000cH

; 2069 :         if (_Myfirst) { // destroy and deallocate old array

  000de	85 c0		 test	 eax, eax
  000e0	74 2c		 je	 SHORT $LN72@Emplace_re

; 2070 :             _STD _Destroy_range(_Myfirst, _Mylast, _Al);
; 2071 :             _ASAN_VECTOR_REMOVE;
; 2072 :             _Al.deallocate(_Myfirst, static_cast<size_type>(_Myend - _Myfirst));

  000e2	8b 4e 08	 mov	 ecx, DWORD PTR [esi+8]
  000e5	2b c8		 sub	 ecx, eax
; File C:\Program Files\Microsoft Visual Studio\2022\Professional\VC\Tools\MSVC\14.44.35207\include\xmemory

; 985  :         _STD _Deallocate<_New_alignof<_Ty>>(_Ptr, sizeof(_Ty) * _Count);

  000e7	83 e1 fc	 and	 ecx, -4			; fffffffcH

; 284  :         if (_Bytes >= _Big_allocation_threshold) {

  000ea	81 f9 00 10 00
	00		 cmp	 ecx, 4096		; 00001000H
  000f0	72 12		 jb	 SHORT $LN77@Emplace_re

; 205  :     const uintptr_t _Ptr_container   = _Ptr_user[-1];

  000f2	8b 50 fc	 mov	 edx, DWORD PTR [eax-4]
  000f5	83 c1 23	 add	 ecx, 35			; 00000023H

; 206  : 
; 207  :     // If the following asserts, it likely means that we are performing
; 208  :     // an aligned delete on memory coming from an unaligned allocation.
; 209  :     _STL_ASSERT(_Ptr_user[-2] == _Big_allocation_sentinel, "invalid argument");
; 210  : 
; 211  :     // Extra paranoia on aligned allocation/deallocation; ensure _Ptr_container is
; 212  :     // in range [_Min_back_shift, _Non_user_size]
; 213  : #ifdef _DEBUG
; 214  :     constexpr uintptr_t _Min_back_shift = 2 * sizeof(void*);
; 215  : #else // ^^^ defined(_DEBUG) / !defined(_DEBUG) vvv
; 216  :     constexpr uintptr_t _Min_back_shift = sizeof(void*);
; 217  : #endif // ^^^ !defined(_DEBUG) ^^^
; 218  :     const uintptr_t _Back_shift = reinterpret_cast<uintptr_t>(_Ptr) - _Ptr_container;

  000f8	2b c2		 sub	 eax, edx

; 219  :     _STL_VERIFY(_Back_shift >= _Min_back_shift && _Back_shift <= _Non_user_size, "invalid argument");

  000fa	83 c0 fc	 add	 eax, -4			; fffffffcH
  000fd	83 f8 1f	 cmp	 eax, 31			; 0000001fH
  00100	77 2a		 ja	 SHORT $LN76@Emplace_re

; 220  :     _Ptr = reinterpret_cast<void*>(_Ptr_container);

  00102	8b c2		 mov	 eax, edx
$LN77@Emplace_re:

; 289  :         ::operator delete(_Ptr, _Bytes);

  00104	51		 push	 ecx
  00105	50		 push	 eax
  00106	e8 00 00 00 00	 call	 ??3@YAXPAXI@Z		; operator delete
  0010b	83 c4 08	 add	 esp, 8
$LN72@Emplace_re:
; File C:\Program Files\Microsoft Visual Studio\2022\Professional\VC\Tools\MSVC\14.44.35207\include\vector

; 2076 :         _Mylast  = _Newvec + _Newsize;

  0010e	8b 45 f4	 mov	 eax, DWORD PTR __Newsize$1$[ebp]
  00111	89 3e		 mov	 DWORD PTR [esi], edi
  00113	8d 0c 87	 lea	 ecx, DWORD PTR [edi+eax*4]

; 916  :         _Change_array(_Newvec, _Newsize, _Newcapacity);
; 917  :         return _Newvec + _Whereoff;

  00116	8b c3		 mov	 eax, ebx

; 2076 :         _Mylast  = _Newvec + _Newsize;

  00118	89 4e 04	 mov	 DWORD PTR [esi+4], ecx

; 2077 :         _Myend   = _Newvec + _Newcapacity;

  0011b	8b 4d f8	 mov	 ecx, DWORD PTR tv652[ebp]
  0011e	03 cf		 add	 ecx, edi

; 918  :     }

  00120	5f		 pop	 edi

; 2077 :         _Myend   = _Newvec + _Newcapacity;

  00121	89 4e 08	 mov	 DWORD PTR [esi+8], ecx

; 918  :     }

  00124	5e		 pop	 esi
  00125	5b		 pop	 ebx
  00126	8b e5		 mov	 esp, ebp
  00128	5d		 pop	 ebp
  00129	c2 08 00	 ret	 8
$LN76@Emplace_re:
; File C:\Program Files\Microsoft Visual Studio\2022\Professional\VC\Tools\MSVC\14.44.35207\include\xmemory

; 219  :     _STL_VERIFY(_Back_shift >= _Min_back_shift && _Back_shift <= _Non_user_size, "invalid argument");

  0012c	6a 00		 push	 0
  0012e	6a 00		 push	 0
  00130	6a 00		 push	 0
  00132	6a 00		 push	 0
  00134	6a 00		 push	 0
  00136	e8 00 00 00 00	 call	 __invoke_watson
$LN111@Emplace_re:
; File C:\Program Files\Microsoft Visual Studio\2022\Professional\VC\Tools\MSVC\14.44.35207\include\vector

; 888  :             _Xlength();

  0013b	e8 00 00 00 00	 call	 ?_Xlength@?$vector@HV?$allocator@H@std@@@std@@CAXXZ ; std::vector<int,std::allocator<int> >::_Xlength
$LN112@Emplace_re:
; File C:\Program Files\Microsoft Visual Studio\2022\Professional\VC\Tools\MSVC\14.44.35207\include\xmemory

; 118  :             _Throw_bad_array_new_length(); // multiply overflow

  00140	e8 00 00 00 00	 call	 ?_Throw_bad_array_new_length@std@@YAXXZ ; std::_Throw_bad_array_new_length
$LN108@Emplace_re:
  00145	cc		 int	 3
??$_Emplace_reallocate@ABH@?$vector@HV?$allocator@H@std@@@std@@AAEPAHQAHABH@Z ENDP ; std::vector<int,std::allocator<int> >::_Emplace_reallocate<int const &>
_TEXT	ENDS
; Function compile flags: /Ogtp
; File C:\Program Files\Microsoft Visual Studio\2022\Professional\VC\Tools\MSVC\14.44.35207\include\vector
;	COMDAT ?_Xlength@?$vector@HV?$allocator@H@std@@@std@@CAXXZ
_TEXT	SEGMENT
?_Xlength@?$vector@HV?$allocator@H@std@@@std@@CAXXZ PROC ; std::vector<int,std::allocator<int> >::_Xlength, COMDAT

; 2184 :         _Xlength_error("vector too long");

  00000	68 00 00 00 00	 push	 OFFSET ??_C@_0BA@FOIKENOD@vector?5too?5long@
  00005	e8 00 00 00 00	 call	 ?_Xlength_error@std@@YAXPBD@Z ; std::_Xlength_error
$LN3@Xlength:
  0000a	cc		 int	 3
?_Xlength@?$vector@HV?$allocator@H@std@@@std@@CAXXZ ENDP ; std::vector<int,std::allocator<int> >::_Xlength
_TEXT	ENDS
; Function compile flags: /Ogtp
; File C:\Program Files\Microsoft Visual Studio\2022\Professional\VC\Tools\MSVC\14.44.35207\include\vector
; File C:\Program Files\Microsoft Visual Studio\2022\Professional\VC\Tools\MSVC\14.44.35207\include\xmemory
; File C:\Program Files\Microsoft Visual Studio\2022\Professional\VC\Tools\MSVC\14.44.35207\include\vector
; File C:\Program Files\Microsoft Visual Studio\2022\Professional\VC\Tools\MSVC\14.44.35207\include\xmemory
; File C:\Program Files\Microsoft Visual Studio\2022\Professional\VC\Tools\MSVC\14.44.35207\include\vector
; File C:\Program Files\Microsoft Visual Studio\2022\Professional\VC\Tools\MSVC\14.44.35207\include\xmemory
; File C:\Program Files\Microsoft Visual Studio\2022\Professional\VC\Tools\MSVC\14.44.35207\include\vector
;	COMDAT ??1?$vector@HV?$allocator@H@std@@@std@@QAE@XZ
_TEXT	SEGMENT
??1?$vector@HV?$allocator@H@std@@@std@@QAE@XZ PROC	; std::vector<int,std::allocator<int> >::~vector<int,std::allocator<int> >, COMDAT
; _this$ = ecx

; 829  :     _CONSTEXPR20 ~vector() noexcept {

  00000	56		 push	 esi
  00001	8b f1		 mov	 esi, ecx

; 2090 :         if (_Myfirst) { // destroy and deallocate old array

  00003	8b 06		 mov	 eax, DWORD PTR [esi]
  00005	85 c0		 test	 eax, eax
  00007	74 40		 je	 SHORT $LN5@vector

; 2091 :             _STD _Destroy_range(_Myfirst, _Mylast, _Al);
; 2092 :             _ASAN_VECTOR_REMOVE;
; 2093 :             _Al.deallocate(_Myfirst, static_cast<size_type>(_Myend - _Myfirst));

  00009	8b 4e 08	 mov	 ecx, DWORD PTR [esi+8]
  0000c	2b c8		 sub	 ecx, eax
; File C:\Program Files\Microsoft Visual Studio\2022\Professional\VC\Tools\MSVC\14.44.35207\include\xmemory

; 985  :         _STD _Deallocate<_New_alignof<_Ty>>(_Ptr, sizeof(_Ty) * _Count);

  0000e	83 e1 fc	 and	 ecx, -4			; fffffffcH

; 284  :         if (_Bytes >= _Big_allocation_threshold) {

  00011	81 f9 00 10 00
	00		 cmp	 ecx, 4096		; 00001000H
  00017	72 12		 jb	 SHORT $LN18@vector

; 205  :     const uintptr_t _Ptr_container   = _Ptr_user[-1];

  00019	8b 50 fc	 mov	 edx, DWORD PTR [eax-4]
  0001c	83 c1 23	 add	 ecx, 35			; 00000023H

; 206  : 
; 207  :     // If the following asserts, it likely means that we are performing
; 208  :     // an aligned delete on memory coming from an unaligned allocation.
; 209  :     _STL_ASSERT(_Ptr_user[-2] == _Big_allocation_sentinel, "invalid argument");
; 210  : 
; 211  :     // Extra paranoia on aligned allocation/deallocation; ensure _Ptr_container is
; 212  :     // in range [_Min_back_shift, _Non_user_size]
; 213  : #ifdef _DEBUG
; 214  :     constexpr uintptr_t _Min_back_shift = 2 * sizeof(void*);
; 215  : #else // ^^^ defined(_DEBUG) / !defined(_DEBUG) vvv
; 216  :     constexpr uintptr_t _Min_back_shift = sizeof(void*);
; 217  : #endif // ^^^ !defined(_DEBUG) ^^^
; 218  :     const uintptr_t _Back_shift = reinterpret_cast<uintptr_t>(_Ptr) - _Ptr_container;

  0001f	2b c2		 sub	 eax, edx

; 219  :     _STL_VERIFY(_Back_shift >= _Min_back_shift && _Back_shift <= _Non_user_size, "invalid argument");

  00021	83 c0 fc	 add	 eax, -4			; fffffffcH
  00024	83 f8 1f	 cmp	 eax, 31			; 0000001fH
  00027	77 22		 ja	 SHORT $LN17@vector

; 220  :     _Ptr = reinterpret_cast<void*>(_Ptr_container);

  00029	8b c2		 mov	 eax, edx
$LN18@vector:

; 289  :         ::operator delete(_Ptr, _Bytes);

  0002b	51		 push	 ecx
  0002c	50		 push	 eax
  0002d	e8 00 00 00 00	 call	 ??3@YAXPAXI@Z		; operator delete
; File C:\Program Files\Microsoft Visual Studio\2022\Professional\VC\Tools\MSVC\14.44.35207\include\vector

; 2095 :             _Myfirst = nullptr;

  00032	c7 06 00 00 00
	00		 mov	 DWORD PTR [esi], 0
; File C:\Program Files\Microsoft Visual Studio\2022\Professional\VC\Tools\MSVC\14.44.35207\include\xmemory

; 289  :         ::operator delete(_Ptr, _Bytes);

  00038	83 c4 08	 add	 esp, 8
; File C:\Program Files\Microsoft Visual Studio\2022\Professional\VC\Tools\MSVC\14.44.35207\include\vector

; 2096 :             _Mylast  = nullptr;

  0003b	c7 46 04 00 00
	00 00		 mov	 DWORD PTR [esi+4], 0

; 2097 :             _Myend   = nullptr;

  00042	c7 46 08 00 00
	00 00		 mov	 DWORD PTR [esi+8], 0
$LN5@vector:
  00049	5e		 pop	 esi

; 835  :     }

  0004a	c3		 ret	 0
$LN17@vector:
; File C:\Program Files\Microsoft Visual Studio\2022\Professional\VC\Tools\MSVC\14.44.35207\include\xmemory

; 219  :     _STL_VERIFY(_Back_shift >= _Min_back_shift && _Back_shift <= _Non_user_size, "invalid argument");

  0004b	6a 00		 push	 0
  0004d	6a 00		 push	 0
  0004f	6a 00		 push	 0
  00051	6a 00		 push	 0
  00053	6a 00		 push	 0
  00055	e8 00 00 00 00	 call	 __invoke_watson
$LN26@vector:
  0005a	cc		 int	 3
??1?$vector@HV?$allocator@H@std@@@std@@QAE@XZ ENDP	; std::vector<int,std::allocator<int> >::~vector<int,std::allocator<int> >
_TEXT	ENDS
; Function compile flags: /Ogtp
; File C:\Program Files\Microsoft Visual Studio\2022\Professional\VC\Tools\MSVC\14.44.35207\include\vector
;	COMDAT ??0?$vector@HV?$allocator@H@std@@@std@@QAE@XZ
_TEXT	SEGMENT
??0?$vector@HV?$allocator@H@std@@@std@@QAE@XZ PROC	; std::vector<int,std::allocator<int> >::vector<int,std::allocator<int> >, COMDAT
; _this$ = ecx

; 400  :     _CONSTEXPR20 _Vector_val() noexcept : _Myfirst(), _Mylast(), _Myend() {}

  00000	c7 01 00 00 00
	00		 mov	 DWORD PTR [ecx], 0

; 671  :         _Mypair._Myval2._Alloc_proxy(_GET_PROXY_ALLOCATOR(_Alty, _Getal()));
; 672  :     }

  00006	8b c1		 mov	 eax, ecx

; 400  :     _CONSTEXPR20 _Vector_val() noexcept : _Myfirst(), _Mylast(), _Myend() {}

  00008	c7 41 04 00 00
	00 00		 mov	 DWORD PTR [ecx+4], 0
  0000f	c7 41 08 00 00
	00 00		 mov	 DWORD PTR [ecx+8], 0

; 671  :         _Mypair._Myval2._Alloc_proxy(_GET_PROXY_ALLOCATOR(_Alty, _Getal()));
; 672  :     }

  00016	c3		 ret	 0
??0?$vector@HV?$allocator@H@std@@@std@@QAE@XZ ENDP	; std::vector<int,std::allocator<int> >::vector<int,std::allocator<int> >
_TEXT	ENDS
; Function compile flags: /Ogtp
; File C:\Program Files\Microsoft Visual Studio\2022\Professional\VC\Tools\MSVC\14.44.35207\include\xmemory
;	COMDAT ??$_Allocate_manually_vector_aligned@U_Default_allocate_traits@std@@@std@@YAPAXI@Z
_TEXT	SEGMENT
__Bytes$ = 8						; size = 4
??$_Allocate_manually_vector_aligned@U_Default_allocate_traits@std@@@std@@YAPAXI@Z PROC ; std::_Allocate_manually_vector_aligned<std::_Default_allocate_traits>, COMDAT

; 182  : __declspec(allocator) void* _Allocate_manually_vector_aligned(const size_t _Bytes) {

  00000	55		 push	 ebp
  00001	8b ec		 mov	 ebp, esp

; 183  :     // allocate _Bytes manually aligned to at least _Big_allocation_alignment
; 184  :     const size_t _Block_size = _Non_user_size + _Bytes;

  00003	8b 45 08	 mov	 eax, DWORD PTR __Bytes$[ebp]
  00006	8d 48 23	 lea	 ecx, DWORD PTR [eax+35]

; 185  :     if (_Block_size <= _Bytes) {

  00009	3b c8		 cmp	 ecx, eax
  0000b	0f 86 00 00 00
	00		 jbe	 ?_Throw_bad_array_new_length@std@@YAXXZ ; std::_Throw_bad_array_new_length

; 136  :         return ::operator new(_Bytes);

  00011	51		 push	 ecx
  00012	e8 00 00 00 00	 call	 ??2@YAPAXI@Z		; operator new

; 186  :         _Throw_bad_array_new_length(); // add overflow
; 187  :     }
; 188  : 
; 189  :     const uintptr_t _Ptr_container = reinterpret_cast<uintptr_t>(_Traits::_Allocate(_Block_size));

  00017	8b c8		 mov	 ecx, eax

; 136  :         return ::operator new(_Bytes);

  00019	83 c4 04	 add	 esp, 4

; 190  :     _STL_VERIFY(_Ptr_container != 0, "invalid argument"); // validate even in release since we're doing p[-1]

  0001c	85 c9		 test	 ecx, ecx
  0001e	74 0b		 je	 SHORT $LN9@Allocate_m

; 191  :     void* const _Ptr = reinterpret_cast<void*>((_Ptr_container + _Non_user_size) & ~(_Big_allocation_alignment - 1));

  00020	8d 41 23	 lea	 eax, DWORD PTR [ecx+35]
  00023	83 e0 e0	 and	 eax, -32		; ffffffe0H

; 192  :     static_cast<uintptr_t*>(_Ptr)[-1] = _Ptr_container;

  00026	89 48 fc	 mov	 DWORD PTR [eax-4], ecx

; 193  : 
; 194  : #ifdef _DEBUG
; 195  :     static_cast<uintptr_t*>(_Ptr)[-2] = _Big_allocation_sentinel;
; 196  : #endif // defined(_DEBUG)
; 197  :     return _Ptr;
; 198  : }

  00029	5d		 pop	 ebp
  0002a	c3		 ret	 0
$LN9@Allocate_m:

; 190  :     _STL_VERIFY(_Ptr_container != 0, "invalid argument"); // validate even in release since we're doing p[-1]

  0002b	6a 00		 push	 0
  0002d	6a 00		 push	 0
  0002f	6a 00		 push	 0
  00031	6a 00		 push	 0
  00033	6a 00		 push	 0
  00035	e8 00 00 00 00	 call	 __invoke_watson
$LN7@Allocate_m:
  0003a	cc		 int	 3
??$_Allocate_manually_vector_aligned@U_Default_allocate_traits@std@@@std@@YAPAXI@Z ENDP ; std::_Allocate_manually_vector_aligned<std::_Default_allocate_traits>
_TEXT	ENDS
; Function compile flags: /Ogtp
; File C:\Program Files\Microsoft Visual Studio\2022\Professional\VC\Tools\MSVC\14.44.35207\include\xutility
;	COMDAT ??$_Copy_memmove_tail@PAJ@std@@YAPAJQBDQAJII@Z
_TEXT	SEGMENT
__First_ch$ = 8						; size = 4
__Dest$ = 12						; size = 4
__Byte_count$ = 16					; size = 4
__Object_count$ = 20					; size = 4
??$_Copy_memmove_tail@PAJ@std@@YAPAJQBDQAJII@Z PROC	; std::_Copy_memmove_tail<long *>, COMDAT

; 4747 :     const char* const _First_ch, const _OutCtgIt _Dest, const size_t _Byte_count, const size_t _Object_count) {

  00000	55		 push	 ebp
  00001	8b ec		 mov	 ebp, esp
  00003	56		 push	 esi

; 4748 :     _STL_INTERNAL_CHECK(_Byte_count == _Object_count * sizeof(*_Dest));
; 4749 :     const auto _Dest_ptr = _STD _To_address(_Dest);
; 4750 :     const auto _Dest_ch  = const_cast<char*>(reinterpret_cast<const volatile char*>(_Dest_ptr));
; 4751 :     _CSTD memmove(_Dest_ch, _First_ch, _Byte_count);

  00004	8b 75 0c	 mov	 esi, DWORD PTR __Dest$[ebp]
  00007	57		 push	 edi
  00008	8b 7d 10	 mov	 edi, DWORD PTR __Byte_count$[ebp]
  0000b	57		 push	 edi
  0000c	ff 75 08	 push	 DWORD PTR __First_ch$[ebp]
  0000f	56		 push	 esi
  00010	e8 00 00 00 00	 call	 _memmove
  00015	83 c4 0c	 add	 esp, 12			; 0000000cH

; 4752 :     if constexpr (is_pointer_v<_OutCtgIt>) {
; 4753 :         (void) _Object_count;
; 4754 :         // CodeQL [SM02986] This cast is correct: we're bypassing pointer arithmetic for performance.
; 4755 :         return reinterpret_cast<_OutCtgIt>(_Dest_ch + _Byte_count);

  00018	8d 04 3e	 lea	 eax, DWORD PTR [esi+edi]
  0001b	5f		 pop	 edi
  0001c	5e		 pop	 esi

; 4756 :     } else {
; 4757 :         return _Dest + static_cast<_Iter_diff_t<_OutCtgIt>>(_Object_count);
; 4758 :     }
; 4759 : }

  0001d	5d		 pop	 ebp
  0001e	c3		 ret	 0
??$_Copy_memmove_tail@PAJ@std@@YAPAJQBDQAJII@Z ENDP	; std::_Copy_memmove_tail<long *>
_TEXT	ENDS
; Function compile flags: /Ogtp
; File C:\Program Files\Microsoft Visual Studio\2022\Professional\VC\Tools\MSVC\14.44.35207\include\xutility
;	COMDAT ??$_Copy_memmove@PAJPAJ@std@@YAPAJPAJ00@Z
_TEXT	SEGMENT
__First$ = 8						; size = 4
__Last$ = 12						; size = 4
__Dest$ = 16						; size = 4
??$_Copy_memmove@PAJPAJ@std@@YAPAJPAJ00@Z PROC		; std::_Copy_memmove<long *,long *>, COMDAT

; 4762 : _OutCtgIt _Copy_memmove(_CtgIt _First, _CtgIt _Last, _OutCtgIt _Dest) {

  00000	55		 push	 ebp
  00001	8b ec		 mov	 ebp, esp

; 4763 :     _STL_INTERNAL_CHECK(_First <= _Last);
; 4764 :     const auto _First_ptr    = _STD _To_address(_First);
; 4765 :     const auto _Last_ptr     = _STD _To_address(_Last);
; 4766 :     const auto _Object_count = static_cast<size_t>(_Last_ptr - _First_ptr);

  00003	8b 55 08	 mov	 edx, DWORD PTR __First$[ebp]
  00006	8b 4d 0c	 mov	 ecx, DWORD PTR __Last$[ebp]
  00009	2b ca		 sub	 ecx, edx
  0000b	8b c1		 mov	 eax, ecx
  0000d	c1 f8 02	 sar	 eax, 2

; 4767 :     const auto _First_ch     = const_cast<const char*>(reinterpret_cast<const volatile char*>(_First_ptr));
; 4768 :     const auto _Last_ch      = const_cast<const char*>(reinterpret_cast<const volatile char*>(_Last_ptr));
; 4769 :     const auto _Byte_count   = static_cast<size_t>(_Last_ch - _First_ch);
; 4770 :     return _STD _Copy_memmove_tail(_First_ch, _STD move(_Dest), _Byte_count, _Object_count);

  00010	50		 push	 eax
  00011	51		 push	 ecx
  00012	ff 75 10	 push	 DWORD PTR __Dest$[ebp]
  00015	52		 push	 edx
  00016	e8 00 00 00 00	 call	 ??$_Copy_memmove_tail@PAJ@std@@YAPAJQBDQAJII@Z ; std::_Copy_memmove_tail<long *>
  0001b	83 c4 10	 add	 esp, 16			; 00000010H

; 4771 : }

  0001e	5d		 pop	 ebp
  0001f	c3		 ret	 0
??$_Copy_memmove@PAJPAJ@std@@YAPAJPAJ00@Z ENDP		; std::_Copy_memmove<long *,long *>
_TEXT	ENDS
; Function compile flags: /Ogtp
; File C:\Program Files\Microsoft Visual Studio\2022\Professional\VC\Tools\MSVC\14.44.35207\include\xstring
; File C:\Program Files\Microsoft Visual Studio\2022\Professional\VC\Tools\MSVC\14.44.35207\include\__msvc_string_view.hpp
; File C:\Program Files\Microsoft Visual Studio\2022\Professional\VC\Tools\MSVC\14.44.35207\include\xstring
; File C:\Program Files\Microsoft Visual Studio\2022\Professional\VC\Tools\MSVC\14.44.35207\include\__msvc_string_view.hpp
; File C:\Program Files\Microsoft Visual Studio\2022\Professional\VC\Tools\MSVC\14.44.35207\include\xstring
; File C:\Program Files\Microsoft Visual Studio\2022\Professional\VC\Tools\MSVC\14.44.35207\include\__msvc_string_view.hpp
; File C:\Program Files\Microsoft Visual Studio\2022\Professional\VC\Tools\MSVC\14.44.35207\include\xstring
;	COMDAT ??$?MDU?$char_traits@D@std@@V?$allocator@D@1@@std@@YA_NABV?$basic_string@DU?$char_traits@D@std@@V?$allocator@D@2@@0@0@Z
_TEXT	SEGMENT
__Left$ = 8						; size = 4
__Right$ = 12						; size = 4
??$?MDU?$char_traits@D@std@@V?$allocator@D@1@@std@@YA_NABV?$basic_string@DU?$char_traits@D@std@@V?$allocator@D@2@@0@0@Z PROC ; std::operator<<char,std::char_traits<char>,std::allocator<char> >, COMDAT

; 3307 :     const basic_string<_Elem, _Traits, _Alloc>& _Left, const basic_string<_Elem, _Traits, _Alloc>& _Right) noexcept {

  00000	55		 push	 ebp
  00001	8b ec		 mov	 ebp, esp

; 444  :         const value_type* _Result = _Bx._Buf;

  00003	8b 45 0c	 mov	 eax, DWORD PTR __Right$[ebp]
  00006	8b c8		 mov	 ecx, eax

; 453  :         return _Myres > _Small_string_capacity;

  00008	83 78 14 0f	 cmp	 DWORD PTR [eax+20], 15	; 0000000fH

; 445  :         if (_Large_mode_engaged()) {

  0000c	76 02		 jbe	 SHORT $LN8@operator

; 446  :             _Result = _Unfancy(_Bx._Ptr);

  0000e	8b 08		 mov	 ecx, DWORD PTR [eax]
$LN8@operator:
  00010	53		 push	 ebx
  00011	56		 push	 esi

; 444  :         const value_type* _Result = _Bx._Buf;

  00012	8b 75 08	 mov	 esi, DWORD PTR __Left$[ebp]
  00015	8b d6		 mov	 edx, esi
  00017	57		 push	 edi

; 453  :         return _Myres > _Small_string_capacity;

  00018	83 7e 14 0f	 cmp	 DWORD PTR [esi+20], 15	; 0000000fH

; 445  :         if (_Large_mode_engaged()) {

  0001c	76 02		 jbe	 SHORT $LN15@operator

; 446  :             _Result = _Unfancy(_Bx._Ptr);

  0001e	8b 16		 mov	 edx, DWORD PTR [esi]
$LN15@operator:

; 2890 :         return _Traits_compare<_Traits>(_Mypair._Myval2._Myptr(), _Mypair._Myval2._Mysize,

  00020	8b 5e 10	 mov	 ebx, DWORD PTR [esi+16]
  00023	8b f3		 mov	 esi, ebx
  00025	8b 78 10	 mov	 edi, DWORD PTR [eax+16]
  00028	3b fb		 cmp	 edi, ebx
  0002a	0f 42 f7	 cmovb	 esi, edi
; File C:\Program Files\Microsoft Visual Studio\2022\Professional\VC\Tools\MSVC\14.44.35207\include\__msvc_string_view.hpp

; 439  :         return _CSTD memcmp(_First1, _First2, _Count);

  0002d	83 ee 04	 sub	 esi, 4
  00030	72 11		 jb	 SHORT $LN35@operator
$LL36@operator:
  00032	8b 02		 mov	 eax, DWORD PTR [edx]
  00034	3b 01		 cmp	 eax, DWORD PTR [ecx]
  00036	75 10		 jne	 SHORT $LN34@operator
  00038	83 c2 04	 add	 edx, 4
  0003b	83 c1 04	 add	 ecx, 4
  0003e	83 ee 04	 sub	 esi, 4
  00041	73 ef		 jae	 SHORT $LL36@operator
$LN35@operator:
  00043	83 fe fc	 cmp	 esi, -4			; fffffffcH
  00046	74 34		 je	 SHORT $LN33@operator
$LN34@operator:
  00048	8a 02		 mov	 al, BYTE PTR [edx]
  0004a	3a 01		 cmp	 al, BYTE PTR [ecx]
  0004c	75 27		 jne	 SHORT $LN37@operator
  0004e	83 fe fd	 cmp	 esi, -3			; fffffffdH
  00051	74 29		 je	 SHORT $LN33@operator
  00053	8a 42 01	 mov	 al, BYTE PTR [edx+1]
  00056	3a 41 01	 cmp	 al, BYTE PTR [ecx+1]
  00059	75 1a		 jne	 SHORT $LN37@operator
  0005b	83 fe fe	 cmp	 esi, -2			; fffffffeH
  0005e	74 1c		 je	 SHORT $LN33@operator
  00060	8a 42 02	 mov	 al, BYTE PTR [edx+2]
  00063	3a 41 02	 cmp	 al, BYTE PTR [ecx+2]
  00066	75 0d		 jne	 SHORT $LN37@operator
  00068	83 fe ff	 cmp	 esi, -1
  0006b	74 0f		 je	 SHORT $LN33@operator
  0006d	8a 42 03	 mov	 al, BYTE PTR [edx+3]
  00070	3a 41 03	 cmp	 al, BYTE PTR [ecx+3]
  00073	74 07		 je	 SHORT $LN33@operator
$LN37@operator:
  00075	1b c0		 sbb	 eax, eax
  00077	83 c8 01	 or	 eax, 1
  0007a	eb 02		 jmp	 SHORT $LN38@operator
$LN33@operator:
  0007c	33 c0		 xor	 eax, eax
$LN38@operator:

; 621  :     if (_Ans != 0) {

  0007e	85 c0		 test	 eax, eax
  00080	75 13		 jne	 SHORT $LN24@operator

; 622  :         return _Ans;
; 623  :     }
; 624  : 
; 625  :     if (_Left_size < _Right_size) {

  00082	3b fb		 cmp	 edi, ebx
  00084	76 0b		 jbe	 SHORT $LN51@operator
; File C:\Program Files\Microsoft Visual Studio\2022\Professional\VC\Tools\MSVC\14.44.35207\include\xstring

; 3308 :     return _Left.compare(_Right) < 0;

  00086	5f		 pop	 edi
; File C:\Program Files\Microsoft Visual Studio\2022\Professional\VC\Tools\MSVC\14.44.35207\include\__msvc_string_view.hpp

; 626  :         return -1;

  00087	83 c8 ff	 or	 eax, -1
; File C:\Program Files\Microsoft Visual Studio\2022\Professional\VC\Tools\MSVC\14.44.35207\include\xstring

; 3308 :     return _Left.compare(_Right) < 0;

  0008a	5e		 pop	 esi
  0008b	c1 e8 1f	 shr	 eax, 31			; 0000001fH
  0008e	5b		 pop	 ebx

; 3309 : }

  0008f	5d		 pop	 ebp
  00090	c3		 ret	 0
$LN51@operator:
; File C:\Program Files\Microsoft Visual Studio\2022\Professional\VC\Tools\MSVC\14.44.35207\include\__msvc_string_view.hpp

; 629  :     if (_Left_size > _Right_size) {

  00091	1b c0		 sbb	 eax, eax
  00093	f7 d8		 neg	 eax
$LN24@operator:
; File C:\Program Files\Microsoft Visual Studio\2022\Professional\VC\Tools\MSVC\14.44.35207\include\xstring

; 3308 :     return _Left.compare(_Right) < 0;

  00095	5f		 pop	 edi
  00096	5e		 pop	 esi
  00097	c1 e8 1f	 shr	 eax, 31			; 0000001fH
  0009a	5b		 pop	 ebx

; 3309 : }

  0009b	5d		 pop	 ebp
  0009c	c3		 ret	 0
??$?MDU?$char_traits@D@std@@V?$allocator@D@1@@std@@YA_NABV?$basic_string@DU?$char_traits@D@std@@V?$allocator@D@2@@0@0@Z ENDP ; std::operator<<char,std::char_traits<char>,std::allocator<char> >
_TEXT	ENDS
; Function compile flags: /Ogtp
; File C:\Program Files\Microsoft Visual Studio\2022\Professional\VC\Tools\MSVC\14.44.35207\include\xutility
;	COMDAT ??$_Fill_zero_memset@PAJ@std@@YAXPAJI@Z
_TEXT	SEGMENT
__Dest$ = 8						; size = 4
__Count$ = 12						; size = 4
??$_Fill_zero_memset@PAJ@std@@YAXPAJI@Z PROC		; std::_Fill_zero_memset<long *>, COMDAT

; 5269 : void _Fill_zero_memset(_CtgIt _Dest, const size_t _Count) {

  00000	55		 push	 ebp
  00001	8b ec		 mov	 ebp, esp

; 5270 :     _CSTD memset(_STD _To_address(_Dest), 0, _Count * sizeof(_Iter_value_t<_CtgIt>));

  00003	8b 45 0c	 mov	 eax, DWORD PTR __Count$[ebp]
  00006	c1 e0 02	 shl	 eax, 2
  00009	50		 push	 eax
  0000a	6a 00		 push	 0
  0000c	ff 75 08	 push	 DWORD PTR __Dest$[ebp]
  0000f	e8 00 00 00 00	 call	 _memset
  00014	83 c4 0c	 add	 esp, 12			; 0000000cH

; 5271 : }

  00017	5d		 pop	 ebp
  00018	c3		 ret	 0
??$_Fill_zero_memset@PAJ@std@@YAXPAJI@Z ENDP		; std::_Fill_zero_memset<long *>
_TEXT	ENDS
; Function compile flags: /Ogtp
; File C:\Program Files\Microsoft Visual Studio\2022\Professional\VC\Tools\MSVC\14.44.35207\include\xutility
;	COMDAT ??$_Is_all_bits_zero@J@std@@YA_NABJ@Z
_TEXT	SEGMENT
__Zero$1 = -4						; size = 4
__Val$ = 8						; size = 4
??$_Is_all_bits_zero@J@std@@YA_NABJ@Z PROC		; std::_Is_all_bits_zero<long>, COMDAT

; 5274 : _NODISCARD bool _Is_all_bits_zero(const _Ty& _Val) {

  00000	55		 push	 ebp
  00001	8b ec		 mov	 ebp, esp
  00003	51		 push	 ecx

; 5275 :     // checks if scalar type has all bits set to zero
; 5276 :     _STL_INTERNAL_STATIC_ASSERT(is_scalar_v<_Ty> && !is_member_pointer_v<_Ty>);
; 5277 :     if constexpr (is_same_v<_Ty, nullptr_t>) {
; 5278 :         return true;
; 5279 :     } else {
; 5280 :         constexpr _Ty _Zero{};
; 5281 :         return _CSTD memcmp(&_Val, &_Zero, sizeof(_Ty)) == 0;

  00004	8b 45 08	 mov	 eax, DWORD PTR __Val$[ebp]
  00007	8d 4d fc	 lea	 ecx, DWORD PTR __Zero$1[ebp]
  0000a	c7 45 fc 00 00
	00 00		 mov	 DWORD PTR __Zero$1[ebp], 0
  00011	8b 00		 mov	 eax, DWORD PTR [eax]
  00013	3b 01		 cmp	 eax, DWORD PTR [ecx]
  00015	0f 94 c0	 sete	 al

; 5282 :     }
; 5283 : }

  00018	8b e5		 mov	 esp, ebp
  0001a	5d		 pop	 ebp
  0001b	c3		 ret	 0
??$_Is_all_bits_zero@J@std@@YA_NABJ@Z ENDP		; std::_Is_all_bits_zero<long>
_TEXT	ENDS
; Function compile flags: /Ogtp
; File C:\Program Files\Microsoft Visual Studio\2022\Professional\VC\Tools\MSVC\14.44.35207\include\xmemory
;	COMDAT ??$_Uninitialized_fill_n@V?$allocator@J@std@@@std@@YAPAJPAJIABJAAV?$allocator@J@0@@Z
_TEXT	SEGMENT
__First$ = 8						; size = 4
__Count$ = 12						; size = 4
__Val$ = 16						; size = 4
__Al$ = 20						; size = 4
??$_Uninitialized_fill_n@V?$allocator@J@std@@@std@@YAPAJPAJIABJAAV?$allocator@J@0@@Z PROC ; std::_Uninitialized_fill_n<std::allocator<long> >, COMDAT

; 2007 :     _Alloc_ptr_t<_Alloc> _First, _Alloc_size_t<_Alloc> _Count, const typename _Alloc::value_type& _Val, _Alloc& _Al) {

  00000	55		 push	 ebp
  00001	8b ec		 mov	 ebp, esp
  00003	56		 push	 esi

; 2008 :     // copy _Count copies of _Val to raw _First, using _Al
; 2009 :     using _Ty = typename _Alloc::value_type;
; 2010 :     if constexpr (_Fill_memset_is_safe<_Ty*, _Ty> && _Uses_default_construct<_Alloc, _Ty*, _Ty>::value) {
; 2011 : #if _HAS_CXX20
; 2012 :         if (!_STD is_constant_evaluated())
; 2013 : #endif // _HAS_CXX20
; 2014 :         {
; 2015 :             _Fill_memset(_Unfancy(_First), _Val, static_cast<size_t>(_Count));
; 2016 :             return _First + _Count;
; 2017 :         }
; 2018 :     } else if constexpr (_Fill_zero_memset_is_safe<_Ty*, _Ty> && _Uses_default_construct<_Alloc, _Ty*, _Ty>::value) {
; 2019 : #if _HAS_CXX20
; 2020 :         if (!_STD is_constant_evaluated())
; 2021 : #endif // _HAS_CXX20
; 2022 :         {
; 2023 :             if (_Is_all_bits_zero(_Val)) {

  00004	8b 75 10	 mov	 esi, DWORD PTR __Val$[ebp]
  00007	56		 push	 esi
  00008	e8 00 00 00 00	 call	 ??$_Is_all_bits_zero@J@std@@YA_NABJ@Z ; std::_Is_all_bits_zero<long>
  0000d	83 c4 04	 add	 esp, 4
  00010	84 c0		 test	 al, al
  00012	74 18		 je	 SHORT $LN5@Uninitiali

; 2024 :                 _Fill_zero_memset(_Unfancy(_First), static_cast<size_t>(_Count));

  00014	8b 75 08	 mov	 esi, DWORD PTR __First$[ebp]
  00017	57		 push	 edi
  00018	8b 7d 0c	 mov	 edi, DWORD PTR __Count$[ebp]
  0001b	57		 push	 edi
  0001c	56		 push	 esi
  0001d	e8 00 00 00 00	 call	 ??$_Fill_zero_memset@PAJ@std@@YAXPAJI@Z ; std::_Fill_zero_memset<long *>
  00022	83 c4 08	 add	 esp, 8

; 2025 :                 return _First + _Count;

  00025	8d 04 be	 lea	 eax, DWORD PTR [esi+edi*4]
  00028	5f		 pop	 edi
  00029	5e		 pop	 esi

; 2032 :         _Backout._Emplace_back(_Val);
; 2033 :     }
; 2034 : 
; 2035 :     return _Backout._Release();
; 2036 : }

  0002a	5d		 pop	 ebp
  0002b	c3		 ret	 0
$LN5@Uninitiali:

; 2026 :             }
; 2027 :         }
; 2028 :     }
; 2029 : 
; 2030 :     _Uninitialized_backout_al<_Alloc> _Backout{_First, _Al};
; 2031 :     for (; 0 < _Count; --_Count) {

  0002c	8b 55 0c	 mov	 edx, DWORD PTR __Count$[ebp]

; 1833 :     _CONSTEXPR20 _Uninitialized_backout_al(pointer _Dest, _Alloc& _Al_) : _First(_Dest), _Last(_Dest), _Al(_Al_) {}

  0002f	8b 45 08	 mov	 eax, DWORD PTR __First$[ebp]

; 2026 :             }
; 2027 :         }
; 2028 :     }
; 2029 : 
; 2030 :     _Uninitialized_backout_al<_Alloc> _Backout{_First, _Al};
; 2031 :     for (; 0 < _Count; --_Count) {

  00032	85 d2		 test	 edx, edx
  00034	74 0c		 je	 SHORT $LN1@Uninitiali
$LL4@Uninitiali:

; 1844 :         allocator_traits<_Alloc>::construct(_Al, _STD _Unfancy(_Last), _STD forward<_Types>(_Vals)...);

  00036	8b 0e		 mov	 ecx, DWORD PTR [esi]
  00038	89 08		 mov	 DWORD PTR [eax], ecx

; 1845 :         ++_Last;

  0003a	83 c0 04	 add	 eax, 4

; 2026 :             }
; 2027 :         }
; 2028 :     }
; 2029 : 
; 2030 :     _Uninitialized_backout_al<_Alloc> _Backout{_First, _Al};
; 2031 :     for (; 0 < _Count; --_Count) {

  0003d	83 ea 01	 sub	 edx, 1
  00040	75 f4		 jne	 SHORT $LL4@Uninitiali
$LN1@Uninitiali:
  00042	5e		 pop	 esi

; 2032 :         _Backout._Emplace_back(_Val);
; 2033 :     }
; 2034 : 
; 2035 :     return _Backout._Release();
; 2036 : }

  00043	5d		 pop	 ebp
  00044	c3		 ret	 0
??$_Uninitialized_fill_n@V?$allocator@J@std@@@std@@YAPAJPAJIABJAAV?$allocator@J@0@@Z ENDP ; std::_Uninitialized_fill_n<std::allocator<long> >
_TEXT	ENDS
; Function compile flags: /Ogtp
; File C:\Program Files\Microsoft Visual Studio\2022\Professional\VC\Tools\MSVC\14.44.35207\include\xmemory
;	COMDAT ??1?$_Alloc_construct_ptr@V?$allocator@U?$_Tree_node@U?$pair@$$CBKPAVIBuff@@@std@@PAX@std@@@std@@@std@@QAE@XZ
_TEXT	SEGMENT
??1?$_Alloc_construct_ptr@V?$allocator@U?$_Tree_node@U?$pair@$$CBKPAVIBuff@@@std@@PAX@std@@@std@@@std@@QAE@XZ PROC ; std::_Alloc_construct_ptr<std::allocator<std::_Tree_node<std::pair<unsigned long const ,IBuff *>,void *> > >::~_Alloc_construct_ptr<std::allocator<std::_Tree_node<std::pair<unsigned long const ,IBuff *>,void *> > >, COMDAT
; _this$ = ecx

; 1172 :         if (_Ptr) {

  00000	8b 41 04	 mov	 eax, DWORD PTR [ecx+4]
  00003	85 c0		 test	 eax, eax
  00005	74 0b		 je	 SHORT $LN10@Alloc_cons

; 289  :         ::operator delete(_Ptr, _Bytes);

  00007	6a 18		 push	 24			; 00000018H
  00009	50		 push	 eax
  0000a	e8 00 00 00 00	 call	 ??3@YAXPAXI@Z		; operator delete
  0000f	83 c4 08	 add	 esp, 8
$LN10@Alloc_cons:

; 1173 :             _Al.deallocate(_Ptr, 1);
; 1174 :         }
; 1175 :     }

  00012	c3		 ret	 0
??1?$_Alloc_construct_ptr@V?$allocator@U?$_Tree_node@U?$pair@$$CBKPAVIBuff@@@std@@PAX@std@@@std@@@std@@QAE@XZ ENDP ; std::_Alloc_construct_ptr<std::allocator<std::_Tree_node<std::pair<unsigned long const ,IBuff *>,void *> > >::~_Alloc_construct_ptr<std::allocator<std::_Tree_node<std::pair<unsigned long const ,IBuff *>,void *> > >
_TEXT	ENDS
; Function compile flags: /Ogtp
; File C:\Program Files\Microsoft Visual Studio\2022\Professional\VC\Tools\MSVC\14.44.35207\include\vector
; File C:\Program Files\Microsoft Visual Studio\2022\Professional\VC\Tools\MSVC\14.44.35207\include\xmemory
; File C:\Program Files\Microsoft Visual Studio\2022\Professional\VC\Tools\MSVC\14.44.35207\include\vector
; File C:\Program Files\Microsoft Visual Studio\2022\Professional\VC\Tools\MSVC\14.44.35207\include\xmemory
; File C:\Program Files\Microsoft Visual Studio\2022\Professional\VC\Tools\MSVC\14.44.35207\include\vector
; File C:\Program Files\Microsoft Visual Studio\2022\Professional\VC\Tools\MSVC\14.44.35207\include\xmemory
; File C:\Program Files\Microsoft Visual Studio\2022\Professional\VC\Tools\MSVC\14.44.35207\include\vector
; File C:\Program Files\Microsoft Visual Studio\2022\Professional\VC\Tools\MSVC\14.44.35207\include\xmemory
; File C:\Program Files\Microsoft Visual Studio\2022\Professional\VC\Tools\MSVC\14.44.35207\include\vector
; File C:\Program Files\Microsoft Visual Studio\2022\Professional\VC\Tools\MSVC\14.44.35207\include\xmemory
; File C:\Program Files\Microsoft Visual Studio\2022\Professional\VC\Tools\MSVC\14.44.35207\include\vector
; File C:\Program Files\Microsoft Visual Studio\2022\Professional\VC\Tools\MSVC\14.44.35207\include\xmemory
; File C:\Program Files\Microsoft Visual Studio\2022\Professional\VC\Tools\MSVC\14.44.35207\include\vector
;	COMDAT ??$_Resize@J@?$vector@JV?$allocator@J@std@@@std@@AAEXIABJ@Z
_TEXT	SEGMENT
tv575 = -4						; size = 4
__Newsize$ = 8						; size = 4
$T2 = 8							; size = 4
__Val$ = 12						; size = 4
??$_Resize@J@?$vector@JV?$allocator@J@std@@@std@@AAEXIABJ@Z PROC ; std::vector<long,std::allocator<long> >::_Resize<long>, COMDAT
; _this$ = ecx

; 1589 :     _CONSTEXPR20 void _Resize(const size_type _Newsize, const _Ty2& _Val) {

  00000	55		 push	 ebp
  00001	8b ec		 mov	 ebp, esp
  00003	51		 push	 ecx
  00004	53		 push	 ebx
  00005	56		 push	 esi

; 1590 :         // trim or append elements, provide strong guarantee
; 1591 :         auto& _Al           = _Getal();
; 1592 :         auto& _My_data      = _Mypair._Myval2;
; 1593 :         pointer& _Myfirst   = _My_data._Myfirst;
; 1594 :         pointer& _Mylast    = _My_data._Mylast;
; 1595 :         const auto _Oldsize = static_cast<size_type>(_Mylast - _Myfirst);
; 1596 :         if (_Newsize < _Oldsize) { // trim

  00006	8b 75 08	 mov	 esi, DWORD PTR __Newsize$[ebp]
  00009	57		 push	 edi
  0000a	8b f9		 mov	 edi, ecx
  0000c	8b 57 04	 mov	 edx, DWORD PTR [edi+4]
  0000f	8b da		 mov	 ebx, edx
  00011	8b 07		 mov	 eax, DWORD PTR [edi]
  00013	2b d8		 sub	 ebx, eax
  00015	c1 fb 02	 sar	 ebx, 2
  00018	3b f3		 cmp	 esi, ebx
  0001a	73 0f		 jae	 SHORT $LN2@Resize

; 1597 :             const pointer _Newlast = _Myfirst + _Newsize;

  0001c	8d 04 b0	 lea	 eax, DWORD PTR [eax+esi*4]

; 1625 :     }

  0001f	89 47 04	 mov	 DWORD PTR [edi+4], eax
  00022	5f		 pop	 edi
  00023	5e		 pop	 esi
  00024	5b		 pop	 ebx
  00025	8b e5		 mov	 esp, ebp
  00027	5d		 pop	 ebp
  00028	c2 08 00	 ret	 8
$LN2@Resize:

; 1598 :             _Orphan_range(_Newlast, _Mylast);
; 1599 :             _Destroy_range(_Newlast, _Mylast, _Al);
; 1600 :             _ASAN_VECTOR_MODIFY(static_cast<difference_type>(_Newsize - _Oldsize));
; 1601 :             _Mylast = _Newlast;
; 1602 :             return;
; 1603 :         }
; 1604 : 
; 1605 :         if (_Newsize > _Oldsize) { // append

  0002b	0f 86 0e 01 00
	00		 jbe	 $LN3@Resize

; 1606 :             const auto _Oldcapacity = static_cast<size_type>(_My_data._Myend - _Myfirst);

  00031	8b 4f 08	 mov	 ecx, DWORD PTR [edi+8]
  00034	2b c8		 sub	 ecx, eax
  00036	c1 f9 02	 sar	 ecx, 2

; 1607 :             if (_Newsize > _Oldcapacity) { // reallocate

  00039	3b f1		 cmp	 esi, ecx
  0003b	0f 86 eb 00 00
	00		 jbe	 $LN4@Resize

; 1553 :         if (_Newsize > max_size()) {

  00041	81 fe ff ff ff
	3f		 cmp	 esi, 1073741823		; 3fffffffH
  00047	0f 87 fb 00 00
	00		 ja	 $LN97@Resize

; 2011 :         if (_Oldcapacity > _Max - _Oldcapacity / 2) {

  0004d	8b d1		 mov	 edx, ecx
  0004f	b8 ff ff ff 3f	 mov	 eax, 1073741823		; 3fffffffH
  00054	d1 ea		 shr	 edx, 1
  00056	2b c2		 sub	 eax, edx
  00058	3b c8		 cmp	 ecx, eax
  0005a	76 19		 jbe	 SHORT $LN11@Resize

; 2012 :             return _Max; // geometric growth would overflow

  0005c	b8 fc ff ff ff	 mov	 eax, -4			; fffffffcH
  00061	c7 45 fc fc ff
	ff ff		 mov	 DWORD PTR tv575[ebp], -4 ; fffffffcH
; File C:\Program Files\Microsoft Visual Studio\2022\Professional\VC\Tools\MSVC\14.44.35207\include\xmemory

; 253  :             return _Allocate_manually_vector_aligned<_Traits>(_Bytes);

  00068	50		 push	 eax
  00069	e8 00 00 00 00	 call	 ??$_Allocate_manually_vector_aligned@U_Default_allocate_traits@std@@@std@@YAPAXI@Z ; std::_Allocate_manually_vector_aligned<std::_Default_allocate_traits>
  0006e	8b c8		 mov	 ecx, eax
  00070	89 4d 08	 mov	 DWORD PTR $T2[ebp], ecx
  00073	eb 46		 jmp	 SHORT $LN95@Resize
$LN11@Resize:
; File C:\Program Files\Microsoft Visual Studio\2022\Professional\VC\Tools\MSVC\14.44.35207\include\vector

; 2015 :         const size_type _Geometric = _Oldcapacity + _Oldcapacity / 2;

  00075	8d 04 0a	 lea	 eax, DWORD PTR [edx+ecx]

; 2016 : 
; 2017 :         if (_Geometric < _Newsize) {

  00078	3b c6		 cmp	 eax, esi
  0007a	73 13		 jae	 SHORT $LN12@Resize

; 2018 :             return _Newsize; // geometric growth would be insufficient

  0007c	8b c6		 mov	 eax, esi
$LN22@Resize:
; File C:\Program Files\Microsoft Visual Studio\2022\Professional\VC\Tools\MSVC\14.44.35207\include\xmemory

; 122  :     return _Count * _Ty_size;

  0007e	c1 e0 02	 shl	 eax, 2
  00081	89 45 fc	 mov	 DWORD PTR tv575[ebp], eax

; 227  :     if (_Bytes == 0) {

  00084	85 c0		 test	 eax, eax
  00086	75 14		 jne	 SHORT $LN26@Resize

; 228  :         return nullptr;

  00088	33 c9		 xor	 ecx, ecx
  0008a	89 4d 08	 mov	 DWORD PTR $T2[ebp], ecx
  0008d	eb 2f		 jmp	 SHORT $LN25@Resize
$LN12@Resize:

; 117  :         if (_Count > _Max_possible) {

  0008f	3d ff ff ff 3f	 cmp	 eax, 1073741823		; 3fffffffH
  00094	0f 87 b3 00 00
	00		 ja	 $LN98@Resize
  0009a	eb e2		 jmp	 SHORT $LN22@Resize
$LN26@Resize:

; 251  :         if (_Bytes >= _Big_allocation_threshold) {

  0009c	3d 00 10 00 00	 cmp	 eax, 4096		; 00001000H
  000a1	72 0d		 jb	 SHORT $LN27@Resize

; 253  :             return _Allocate_manually_vector_aligned<_Traits>(_Bytes);

  000a3	50		 push	 eax
  000a4	e8 00 00 00 00	 call	 ??$_Allocate_manually_vector_aligned@U_Default_allocate_traits@std@@@std@@YAPAXI@Z ; std::_Allocate_manually_vector_aligned<std::_Default_allocate_traits>
  000a9	8b c8		 mov	 ecx, eax
  000ab	89 4d 08	 mov	 DWORD PTR $T2[ebp], ecx
  000ae	eb 0b		 jmp	 SHORT $LN95@Resize
$LN27@Resize:

; 136  :         return ::operator new(_Bytes);

  000b0	50		 push	 eax
  000b1	e8 00 00 00 00	 call	 ??2@YAPAXI@Z		; operator new

; 256  :         return _Traits::_Allocate(_Bytes);

  000b6	8b c8		 mov	 ecx, eax
  000b8	89 45 08	 mov	 DWORD PTR $T2[ebp], eax
$LN95@Resize:
; File C:\Program Files\Microsoft Visual Studio\2022\Professional\VC\Tools\MSVC\14.44.35207\include\vector

; 1572 :             _Appended_last = _Uninitialized_fill_n(_Appended_first, _Newsize - _Oldsize, _Val, _Al);

  000bb	83 c4 04	 add	 esp, 4
$LN25@Resize:
  000be	57		 push	 edi
  000bf	ff 75 0c	 push	 DWORD PTR __Val$[ebp]
  000c2	8b c6		 mov	 eax, esi
  000c4	2b c3		 sub	 eax, ebx
  000c6	50		 push	 eax
  000c7	8d 04 99	 lea	 eax, DWORD PTR [ecx+ebx*4]
  000ca	50		 push	 eax
  000cb	e8 00 00 00 00	 call	 ??$_Uninitialized_fill_n@V?$allocator@J@std@@@std@@YAPAJPAJIABJAAV?$allocator@J@0@@Z ; std::_Uninitialized_fill_n<std::allocator<long> >
; File C:\Program Files\Microsoft Visual Studio\2022\Professional\VC\Tools\MSVC\14.44.35207\include\xmemory

; 1992 :             _STD _Copy_memmove(_UFirst, _ULast, _STD _Unfancy(_Dest));

  000d0	8b 5d 08	 mov	 ebx, DWORD PTR $T2[ebp]
  000d3	53		 push	 ebx
  000d4	ff 77 04	 push	 DWORD PTR [edi+4]
  000d7	ff 37		 push	 DWORD PTR [edi]
  000d9	e8 00 00 00 00	 call	 ??$_Copy_memmove@PAJPAJ@std@@YAPAJPAJ00@Z ; std::_Copy_memmove<long *,long *>
; File C:\Program Files\Microsoft Visual Studio\2022\Professional\VC\Tools\MSVC\14.44.35207\include\vector

; 2069 :         if (_Myfirst) { // destroy and deallocate old array

  000de	8b 07		 mov	 eax, DWORD PTR [edi]
; File C:\Program Files\Microsoft Visual Studio\2022\Professional\VC\Tools\MSVC\14.44.35207\include\xmemory

; 1992 :             _STD _Copy_memmove(_UFirst, _ULast, _STD _Unfancy(_Dest));

  000e0	83 c4 1c	 add	 esp, 28			; 0000001cH
; File C:\Program Files\Microsoft Visual Studio\2022\Professional\VC\Tools\MSVC\14.44.35207\include\vector

; 2069 :         if (_Myfirst) { // destroy and deallocate old array

  000e3	85 c0		 test	 eax, eax
  000e5	74 2c		 je	 SHORT $LN53@Resize

; 2070 :             _STD _Destroy_range(_Myfirst, _Mylast, _Al);
; 2071 :             _ASAN_VECTOR_REMOVE;
; 2072 :             _Al.deallocate(_Myfirst, static_cast<size_type>(_Myend - _Myfirst));

  000e7	8b 4f 08	 mov	 ecx, DWORD PTR [edi+8]
  000ea	2b c8		 sub	 ecx, eax
; File C:\Program Files\Microsoft Visual Studio\2022\Professional\VC\Tools\MSVC\14.44.35207\include\xmemory

; 985  :         _STD _Deallocate<_New_alignof<_Ty>>(_Ptr, sizeof(_Ty) * _Count);

  000ec	83 e1 fc	 and	 ecx, -4			; fffffffcH

; 284  :         if (_Bytes >= _Big_allocation_threshold) {

  000ef	81 f9 00 10 00
	00		 cmp	 ecx, 4096		; 00001000H
  000f5	72 12		 jb	 SHORT $LN58@Resize

; 205  :     const uintptr_t _Ptr_container   = _Ptr_user[-1];

  000f7	8b 50 fc	 mov	 edx, DWORD PTR [eax-4]
  000fa	83 c1 23	 add	 ecx, 35			; 00000023H

; 206  : 
; 207  :     // If the following asserts, it likely means that we are performing
; 208  :     // an aligned delete on memory coming from an unaligned allocation.
; 209  :     _STL_ASSERT(_Ptr_user[-2] == _Big_allocation_sentinel, "invalid argument");
; 210  : 
; 211  :     // Extra paranoia on aligned allocation/deallocation; ensure _Ptr_container is
; 212  :     // in range [_Min_back_shift, _Non_user_size]
; 213  : #ifdef _DEBUG
; 214  :     constexpr uintptr_t _Min_back_shift = 2 * sizeof(void*);
; 215  : #else // ^^^ defined(_DEBUG) / !defined(_DEBUG) vvv
; 216  :     constexpr uintptr_t _Min_back_shift = sizeof(void*);
; 217  : #endif // ^^^ !defined(_DEBUG) ^^^
; 218  :     const uintptr_t _Back_shift = reinterpret_cast<uintptr_t>(_Ptr) - _Ptr_container;

  000fd	2b c2		 sub	 eax, edx

; 219  :     _STL_VERIFY(_Back_shift >= _Min_back_shift && _Back_shift <= _Non_user_size, "invalid argument");

  000ff	83 c0 fc	 add	 eax, -4			; fffffffcH
  00102	83 f8 1f	 cmp	 eax, 31			; 0000001fH
  00105	77 4b		 ja	 SHORT $LN57@Resize

; 220  :     _Ptr = reinterpret_cast<void*>(_Ptr_container);

  00107	8b c2		 mov	 eax, edx
$LN58@Resize:

; 289  :         ::operator delete(_Ptr, _Bytes);

  00109	51		 push	 ecx
  0010a	50		 push	 eax
  0010b	e8 00 00 00 00	 call	 ??3@YAXPAXI@Z		; operator delete
  00110	83 c4 08	 add	 esp, 8
$LN53@Resize:
; File C:\Program Files\Microsoft Visual Studio\2022\Professional\VC\Tools\MSVC\14.44.35207\include\vector

; 2076 :         _Mylast  = _Newvec + _Newsize;

  00113	8d 04 b3	 lea	 eax, DWORD PTR [ebx+esi*4]
  00116	89 1f		 mov	 DWORD PTR [edi], ebx
  00118	89 47 04	 mov	 DWORD PTR [edi+4], eax

; 2077 :         _Myend   = _Newvec + _Newcapacity;

  0011b	8b 45 fc	 mov	 eax, DWORD PTR tv575[ebp]
  0011e	03 c3		 add	 eax, ebx
  00120	89 47 08	 mov	 DWORD PTR [edi+8], eax
  00123	5f		 pop	 edi

; 1625 :     }

  00124	5e		 pop	 esi
  00125	5b		 pop	 ebx
  00126	8b e5		 mov	 esp, ebp
  00128	5d		 pop	 ebp
  00129	c2 08 00	 ret	 8
$LN4@Resize:

; 1608 :                 _Resize_reallocate(_Newsize, _Val);
; 1609 :                 return;
; 1610 :             }
; 1611 : 
; 1612 :             _ASAN_VECTOR_EXTEND_GUARD(_Newsize);
; 1613 :             const pointer _Oldlast = _Mylast;
; 1614 :             if constexpr (is_same_v<_Ty2, _Ty>) {
; 1615 :                 _Mylast = _Uninitialized_fill_n(_Oldlast, _Newsize - _Oldsize, _Val, _Al);

  0012c	57		 push	 edi
  0012d	ff 75 0c	 push	 DWORD PTR __Val$[ebp]
  00130	2b f3		 sub	 esi, ebx
  00132	56		 push	 esi
  00133	52		 push	 edx
  00134	e8 00 00 00 00	 call	 ??$_Uninitialized_fill_n@V?$allocator@J@std@@@std@@YAPAJPAJIABJAAV?$allocator@J@0@@Z ; std::_Uninitialized_fill_n<std::allocator<long> >
  00139	83 c4 10	 add	 esp, 16			; 00000010H

; 1625 :     }

  0013c	89 47 04	 mov	 DWORD PTR [edi+4], eax
$LN3@Resize:
  0013f	5f		 pop	 edi
  00140	5e		 pop	 esi
  00141	5b		 pop	 ebx
  00142	8b e5		 mov	 esp, ebp
  00144	5d		 pop	 ebp
  00145	c2 08 00	 ret	 8
$LN97@Resize:

; 1554 :             _Xlength();

  00148	e8 00 00 00 00	 call	 ?_Xlength@?$vector@JV?$allocator@J@std@@@std@@CAXXZ ; std::vector<long,std::allocator<long> >::_Xlength
$LN98@Resize:
; File C:\Program Files\Microsoft Visual Studio\2022\Professional\VC\Tools\MSVC\14.44.35207\include\xmemory

; 118  :             _Throw_bad_array_new_length(); // multiply overflow

  0014d	e8 00 00 00 00	 call	 ?_Throw_bad_array_new_length@std@@YAXXZ ; std::_Throw_bad_array_new_length
$LN57@Resize:

; 219  :     _STL_VERIFY(_Back_shift >= _Min_back_shift && _Back_shift <= _Non_user_size, "invalid argument");

  00152	6a 00		 push	 0
  00154	6a 00		 push	 0
  00156	6a 00		 push	 0
  00158	6a 00		 push	 0
  0015a	6a 00		 push	 0
  0015c	e8 00 00 00 00	 call	 __invoke_watson
$LN93@Resize:
  00161	cc		 int	 3
??$_Resize@J@?$vector@JV?$allocator@J@std@@@std@@AAEXIABJ@Z ENDP ; std::vector<long,std::allocator<long> >::_Resize<long>
_TEXT	ENDS
; Function compile flags: /Ogtp
; File C:\IAGOS\server\v18\Source\Source\_Database\DbManagerFun.cpp
;	COMDAT ?SetDBFormatStr@CDbManager@@AAEXPADHPBD@Z
_TEXT	SEGMENT
_szDst$ = 8						; size = 4
_nMaxLen$ = 12						; size = 4
_szSrc$ = 16						; size = 4
?SetDBFormatStr@CDbManager@@AAEXPADHPBD@Z PROC		; CDbManager::SetDBFormatStr, COMDAT
; _this$ = ecx

; 116  : {

  00000	55		 push	 ebp
  00001	8b ec		 mov	 ebp, esp
  00003	57		 push	 edi

; 117  : 	int nLen	= strlen( szSrc );

  00004	8b 7d 10	 mov	 edi, DWORD PTR _szSrc$[ebp]
  00007	8b cf		 mov	 ecx, edi
  00009	8d 51 01	 lea	 edx, DWORD PTR [ecx+1]
  0000c	0f 1f 40 00	 npad	 4
$LL10@SetDBForma:
  00010	8a 01		 mov	 al, BYTE PTR [ecx]
  00012	41		 inc	 ecx
  00013	84 c0		 test	 al, al
  00015	75 f9		 jne	 SHORT $LL10@SetDBForma
  00017	2b ca		 sub	 ecx, edx

; 118  : 	if( nMaxLen < nLen * 2 + 1 )

  00019	8b 55 0c	 mov	 edx, DWORD PTR _nMaxLen$[ebp]
  0001c	8d 04 4d 01 00
	00 00		 lea	 eax, DWORD PTR [ecx*2+1]
  00023	3b d0		 cmp	 edx, eax
  00025	7d 1a		 jge	 SHORT $LN4@SetDBForma

; 119  : 	{
; 120  : 		Error( "SetDBFormatStr: nLen = %d, nMaxLen = %d", nLen, nMaxLen );

  00027	52		 push	 edx
  00028	51		 push	 ecx
  00029	68 00 00 00 00	 push	 OFFSET ??_C@_0CI@KADALJOE@SetDBFormatStr?3?5nLen?5?$DN?5?$CFd?0?5nMax@
  0002e	e8 00 00 00 00	 call	 ?Error@@YAPBDPBDZZ	; Error

; 121  : 		*szDst	= '\0';

  00033	8b 45 08	 mov	 eax, DWORD PTR _szDst$[ebp]
  00036	83 c4 0c	 add	 esp, 12			; 0000000cH
  00039	c6 00 00	 mov	 BYTE PTR [eax], 0
  0003c	5f		 pop	 edi

; 133  : }

  0003d	5d		 pop	 ebp
  0003e	c2 0c 00	 ret	 12			; 0000000cH
$LN4@SetDBForma:

; 122  : 		return;
; 123  : 	}
; 124  : 
; 125  : 	char* pCur	= szDst;
; 126  : 	while( *szSrc )

  00041	8a 07		 mov	 al, BYTE PTR [edi]
  00043	56		 push	 esi
  00044	8b 75 08	 mov	 esi, DWORD PTR _szDst$[ebp]
  00047	84 c0		 test	 al, al
  00049	74 24		 je	 SHORT $LN3@SetDBForma
  0004b	0f 1f 44 00 00	 npad	 5
$LL2@SetDBForma:

; 127  : 	{
; 128  : 		sprintf( pCur, "%2X",  (BYTE)*szSrc );

  00050	0f b6 c0	 movzx	 eax, al
  00053	50		 push	 eax
  00054	68 00 00 00 00	 push	 OFFSET ??_C@_03BMNKJJEN@?$CF2X@
  00059	56		 push	 esi
  0005a	e8 00 00 00 00	 call	 _sprintf
  0005f	8a 47 01	 mov	 al, BYTE PTR [edi+1]

; 129  : 		pCur	+= 2;
; 130  : 		szSrc++;

  00062	8d 7f 01	 lea	 edi, DWORD PTR [edi+1]
  00065	83 c4 0c	 add	 esp, 12			; 0000000cH
  00068	83 c6 02	 add	 esi, 2
  0006b	84 c0		 test	 al, al
  0006d	75 e1		 jne	 SHORT $LL2@SetDBForma
$LN3@SetDBForma:

; 131  : 	}
; 132  : 	*pCur	= '\0';

  0006f	c6 06 00	 mov	 BYTE PTR [esi], 0
  00072	5e		 pop	 esi
  00073	5f		 pop	 edi

; 133  : }

  00074	5d		 pop	 ebp
  00075	c2 0c 00	 ret	 12			; 0000000cH
?SetDBFormatStr@CDbManager@@AAEXPADHPBD@Z ENDP		; CDbManager::SetDBFormatStr
_TEXT	ENDS
; Function compile flags: /Ogtp
; File C:\IAGOS\server\v18\Source\Source\_Database\DbManagerFun.cpp
;	COMDAT ?GetDBFormatStr@CDbManager@@AAEXPADHPBD@Z
_TEXT	SEGMENT
_szDigit$ = -4						; size = 3
_szDst$ = 8						; size = 4
_nMaxLen$ = 12						; size = 4
_szSrc$ = 16						; size = 4
_ch2$ = 16						; size = 4
?GetDBFormatStr@CDbManager@@AAEXPADHPBD@Z PROC		; CDbManager::GetDBFormatStr, COMDAT
; _this$ = ecx

; 79   : {

  00000	55		 push	 ebp
  00001	8b ec		 mov	 ebp, esp
  00003	51		 push	 ecx
  00004	56		 push	 esi

; 80   : 	char szDigit[3] = {0, };
; 81   : #ifdef __VS2003
; 82   : 	int ch2;
; 83   : #else	// __VS2003
; 84   : 	char ch;
; 85   : #endif // __VS2003
; 86   : 	char* pCur	= const_cast<char*>( szSrc );

  00005	8b 75 10	 mov	 esi, DWORD PTR _szSrc$[ebp]

; 87   : 	int nLen	= strlen( pCur );

  00008	8b ce		 mov	 ecx, esi
  0000a	c6 45 fe 00	 mov	 BYTE PTR _szDigit$[ebp+2], 0
  0000e	8d 51 01	 lea	 edx, DWORD PTR [ecx+1]
$LL11@GetDBForma:
  00011	8a 01		 mov	 al, BYTE PTR [ecx]
  00013	41		 inc	 ecx
  00014	84 c0		 test	 al, al
  00016	75 f9		 jne	 SHORT $LL11@GetDBForma
  00018	2b ca		 sub	 ecx, edx

; 88   : 	if( nLen % 2 != 0 )

  0001a	f6 c1 01	 test	 cl, 1
  0001d	74 05		 je	 SHORT $LN4@GetDBForma

; 89   : 	{
; 90   : 		pCur[nLen-1]	= '\0';

  0001f	88 44 31 ff	 mov	 BYTE PTR [ecx+esi-1], al

; 91   : 		nLen--;

  00023	49		 dec	 ecx
$LN4@GetDBForma:

; 92   : 	}
; 93   : 	if( nLen >= nMaxLen * 2 )

  00024	8b 55 0c	 mov	 edx, DWORD PTR _nMaxLen$[ebp]
  00027	8d 04 12	 lea	 eax, DWORD PTR [edx+edx]
  0002a	3b c8		 cmp	 ecx, eax
  0002c	7c 1c		 jl	 SHORT $LN7@GetDBForma

; 94   : 	{
; 95   : 		Error( "GetDBFormatStr: nLen = %d, nMaxLen = %d", nLen, nMaxLen );

  0002e	52		 push	 edx
  0002f	51		 push	 ecx
  00030	68 00 00 00 00	 push	 OFFSET ??_C@_0CI@IEFGPJMF@GetDBFormatStr?3?5nLen?5?$DN?5?$CFd?0?5nMax@
  00035	e8 00 00 00 00	 call	 ?Error@@YAPBDPBDZZ	; Error

; 96   : 		*szDst	= '\0';

  0003a	8b 45 08	 mov	 eax, DWORD PTR _szDst$[ebp]
  0003d	83 c4 0c	 add	 esp, 12			; 0000000cH
  00040	c6 00 00	 mov	 BYTE PTR [eax], 0
  00043	5e		 pop	 esi

; 113  : }

  00044	8b e5		 mov	 esp, ebp
  00046	5d		 pop	 ebp
  00047	c2 0c 00	 ret	 12			; 0000000cH
$LN7@GetDBForma:

; 97   : 		return;
; 98   : 	}
; 99   : 	while( *pCur )

  0004a	8a 06		 mov	 al, BYTE PTR [esi]
  0004c	57		 push	 edi
  0004d	8b 7d 08	 mov	 edi, DWORD PTR _szDst$[ebp]
  00050	84 c0		 test	 al, al
  00052	74 2f		 je	 SHORT $LN3@GetDBForma
$LL2@GetDBForma:

; 100  : 	{
; 101  : 		szDigit[0]	= pCur[0];

  00054	88 45 fc	 mov	 BYTE PTR _szDigit$[ebp], al

; 102  : 		szDigit[1]	= pCur[1];
; 103  : 		pCur	+= 2;

  00057	8d 76 02	 lea	 esi, DWORD PTR [esi+2]
  0005a	0f b6 46 ff	 movzx	 eax, BYTE PTR [esi-1]
  0005e	88 45 fd	 mov	 BYTE PTR _szDigit$[ebp+1], al

; 104  : #ifdef __VS2003
; 105  : 		sscanf( szDigit, "%2X", &ch2 );

  00061	8d 45 10	 lea	 eax, DWORD PTR _ch2$[ebp]
  00064	50		 push	 eax
  00065	8d 45 fc	 lea	 eax, DWORD PTR _szDigit$[ebp]
  00068	68 00 00 00 00	 push	 OFFSET ??_C@_03BMNKJJEN@?$CF2X@
  0006d	50		 push	 eax
  0006e	e8 00 00 00 00	 call	 _sscanf

; 106  : 		*szDst++	= ch2;

  00073	0f b6 45 10	 movzx	 eax, BYTE PTR _ch2$[ebp]
  00077	83 c4 0c	 add	 esp, 12			; 0000000cH
  0007a	88 07		 mov	 BYTE PTR [edi], al
  0007c	47		 inc	 edi
  0007d	8a 06		 mov	 al, BYTE PTR [esi]
  0007f	84 c0		 test	 al, al
  00081	75 d1		 jne	 SHORT $LL2@GetDBForma
$LN3@GetDBForma:

; 107  : #else // __VS2003
; 108  : 		sscanf( szDigit, "%2X", &ch );
; 109  : 		*szDst++	= ch;
; 110  : #endif // __VS2003
; 111  : 	}
; 112  : 	*szDst	= '\0';

  00083	c6 07 00	 mov	 BYTE PTR [edi], 0
  00086	5f		 pop	 edi
  00087	5e		 pop	 esi

; 113  : }

  00088	8b e5		 mov	 esp, ebp
  0008a	5d		 pop	 ebp
  0008b	c2 0c 00	 ret	 12			; 0000000cH
?GetDBFormatStr@CDbManager@@AAEXPADHPBD@Z ENDP		; CDbManager::GetDBFormatStr
_TEXT	ENDS
; Function compile flags: /Ogtp
; File C:\IAGOS\server\v18\Source\Source\_Database\DbManagerFun.cpp
;	COMDAT ?GetStrFromDBFormat@CDbManager@@AAEXPADPBDAAH@Z
_TEXT	SEGMENT
_szDigit$ = -4						; size = 3
_szDst$ = 8						; size = 4
_ch2$ = 8						; size = 4
_szSrc$ = 12						; size = 4
_n$ = 16						; size = 4
?GetStrFromDBFormat@CDbManager@@AAEXPADPBDAAH@Z PROC	; CDbManager::GetStrFromDBFormat, COMDAT
; _this$ = ecx

; 139  : {

  00000	55		 push	 ebp
  00001	8b ec		 mov	 ebp, esp
  00003	51		 push	 ecx
  00004	53		 push	 ebx

; 140  : 	char szDigit[3] = {0, };
; 141  : 	char ch;
; 142  : #ifdef __VS2003
; 143  : 	int ch2;
; 144  : #endif // __VS2003
; 145  : 	
; 146  : 	const char* pCur = szSrc + n;

  00005	8b 5d 10	 mov	 ebx, DWORD PTR _n$[ebp]
  00008	33 c0		 xor	 eax, eax
  0000a	56		 push	 esi
  0000b	66 89 45 fc	 mov	 WORD PTR _szDigit$[ebp], ax
  0000f	88 45 fe	 mov	 BYTE PTR _szDigit$[ebp+2], al
  00012	8b 33		 mov	 esi, DWORD PTR [ebx]
  00014	03 75 0c	 add	 esi, DWORD PTR _szSrc$[ebp]
  00017	57		 push	 edi

; 147  : 	while( *pCur != '/' && *pCur )		// ą®ŔÚż­Ŕş '/' ·Î łˇł­´Ů. ľČŔüÇĎ°Ô NULLµµ °Ë»ç 

  00018	8b 7d 08	 mov	 edi, DWORD PTR _szDst$[ebp]
  0001b	8a 06		 mov	 al, BYTE PTR [esi]
  0001d	3c 2f		 cmp	 al, 47			; 0000002fH
  0001f	74 38		 je	 SHORT $LN3@GetStrFrom
  00021	8a c8		 mov	 cl, al
$LL2@GetStrFrom:
  00023	84 c0		 test	 al, al
  00025	74 32		 je	 SHORT $LN3@GetStrFrom

; 148  : 	{
; 149  : 		szDigit[0] = pCur[0];

  00027	88 4d fc	 mov	 BYTE PTR _szDigit$[ebp], cl

; 150  : 		szDigit[1] = pCur[1];

  0002a	0f b6 46 01	 movzx	 eax, BYTE PTR [esi+1]

; 151  : 		pCur += 2;

  0002e	83 c6 02	 add	 esi, 2
  00031	88 45 fd	 mov	 BYTE PTR _szDigit$[ebp+1], al

; 152  : 		
; 153  : #ifdef __VS2003
; 154  : 		sscanf( szDigit, "%2X", &ch2 );

  00034	8d 45 08	 lea	 eax, DWORD PTR _ch2$[ebp]
  00037	50		 push	 eax
  00038	8d 45 fc	 lea	 eax, DWORD PTR _szDigit$[ebp]
  0003b	68 00 00 00 00	 push	 OFFSET ??_C@_03BMNKJJEN@?$CF2X@
  00040	50		 push	 eax
  00041	e8 00 00 00 00	 call	 _sscanf

; 155  : 		ch = ch2;
; 156  : #else // __VS2003
; 157  : 		sscanf( szDigit, "%2X", &ch );
; 158  : #endif // __VS2003
; 159  : 		*szDst++ = ch;

  00046	0f b6 45 08	 movzx	 eax, BYTE PTR _ch2$[ebp]
  0004a	83 c4 0c	 add	 esp, 12			; 0000000cH
  0004d	88 07		 mov	 BYTE PTR [edi], al
  0004f	47		 inc	 edi
  00050	8a 0e		 mov	 cl, BYTE PTR [esi]
  00052	8a c1		 mov	 al, cl
  00054	80 f9 2f	 cmp	 cl, 47			; 0000002fH
  00057	75 ca		 jne	 SHORT $LL2@GetStrFrom
$LN3@GetStrFrom:

; 160  : 	}
; 161  : 	*szDst = '\0';
; 162  : 	n = (pCur - szSrc) + 1;				// +1Ŕş '/'¸¦ ą«˝ĂÇĎ±â Ŕ§ÇŘĽ­ 

  00059	2b 75 0c	 sub	 esi, DWORD PTR _szSrc$[ebp]
  0005c	c6 07 00	 mov	 BYTE PTR [edi], 0
  0005f	46		 inc	 esi
  00060	5f		 pop	 edi
  00061	89 33		 mov	 DWORD PTR [ebx], esi
  00063	5e		 pop	 esi
  00064	5b		 pop	 ebx

; 163  : }

  00065	8b e5		 mov	 esp, ebp
  00067	5d		 pop	 ebp
  00068	c2 0c 00	 ret	 12			; 0000000cH
?GetStrFromDBFormat@CDbManager@@AAEXPADPBDAAH@Z ENDP	; CDbManager::GetStrFromDBFormat
_TEXT	ENDS
; Function compile flags: /Ogtp
; File C:\IAGOS\server\v18\Source\Source\_Database\DbManagerFun.cpp
;	COMDAT ?GetRemoveItem@CDbManager@@AAEHPAVCQuery@@AAHPAD1111AAD@Z
_TEXT	SEGMENT
_pQry$ = 8						; size = 4
_nNo$ = 12						; size = 4
_pOneItem$ = 16						; size = 4
_nItem_Count$ = 20					; size = 4
_nAbilityOption$ = 24					; size = 4
_nItemResist$ = 28					; size = 4
_nResistAbilityOption$ = 32				; size = 4
_chState$ = 36						; size = 4
?GetRemoveItem@CDbManager@@AAEHPAVCQuery@@AAHPAD1111AAD@Z PROC ; CDbManager::GetRemoveItem, COMDAT
; _this$ = ecx

; 1511 : {

  00000	55		 push	 ebp
  00001	8b ec		 mov	 ebp, esp
  00003	53		 push	 ebx
  00004	56		 push	 esi

; 1512 : 	nNo = pQry->GetInt( "m_nNo" );									// ŔŻ´ĎĹ© łŃąö

  00005	8b 75 08	 mov	 esi, DWORD PTR _pQry$[ebp]
  00008	8b ce		 mov	 ecx, esi
  0000a	57		 push	 edi
  0000b	68 00 00 00 00	 push	 OFFSET ??_C@_05DIMENFA@m_nNo@
  00010	e8 00 00 00 00	 call	 ?GetInt@CQuery@@QAEHPAD@Z ; CQuery::GetInt
  00015	8b 4d 0c	 mov	 ecx, DWORD PTR _nNo$[ebp]

; 1513 : 	pQry->GetStr( "Item_Name", pOneItem );							// ŔĚ¸§

  00018	ff 75 10	 push	 DWORD PTR _pOneItem$[ebp]
  0001b	68 00 00 00 00	 push	 OFFSET ??_C@_09GAPLKBDN@Item_Name@
  00020	89 01		 mov	 DWORD PTR [ecx], eax
  00022	8b ce		 mov	 ecx, esi
  00024	e8 00 00 00 00	 call	 ?GetStr@CQuery@@QAEXPAD0@Z ; CQuery::GetStr

; 1514 : 	
; 1515 : 	nItem_Count	= pQry->GetInt( "Item_count" );						// °ąĽö

  00029	68 00 00 00 00	 push	 OFFSET ??_C@_0L@IOKBDDFK@Item_count@
  0002e	8b ce		 mov	 ecx, esi
  00030	e8 00 00 00 00	 call	 ?GetInt@CQuery@@QAEHPAD@Z ; CQuery::GetInt
  00035	8b 4d 14	 mov	 ecx, DWORD PTR _nItem_Count$[ebp]

; 1516 : 	nAbilityOption = pQry->GetInt( "m_nAbilityOption" );			// AbilityOption ( + ) Option

  00038	68 00 00 00 00	 push	 OFFSET ??_C@_0BB@JLNDCIFJ@m_nAbilityOption@
  0003d	89 01		 mov	 DWORD PTR [ecx], eax
  0003f	8b ce		 mov	 ecx, esi
  00041	e8 00 00 00 00	 call	 ?GetInt@CQuery@@QAEHPAD@Z ; CQuery::GetInt
  00046	8b 5d 18	 mov	 ebx, DWORD PTR _nAbilityOption$[ebp]

; 1517 : 	chState = pQry->GetChar( "State" );

  00049	8b ce		 mov	 ecx, esi
  0004b	68 00 00 00 00	 push	 OFFSET ??_C@_05JNKNAC@State@
  00050	89 03		 mov	 DWORD PTR [ebx], eax
  00052	e8 00 00 00 00	 call	 ?GetChar@CQuery@@QAEDPAD@Z ; CQuery::GetChar
  00057	8b 4d 24	 mov	 ecx, DWORD PTR _chState$[ebp]

; 1518 : 	nItemResist = pQry->GetInt( "m_bItemResist" );					// ĽÓĽş°Ş	

  0005a	68 00 00 00 00	 push	 OFFSET ??_C@_0O@PJIGDEIK@m_bItemResist@
  0005f	88 01		 mov	 BYTE PTR [ecx], al
  00061	8b ce		 mov	 ecx, esi
  00063	e8 00 00 00 00	 call	 ?GetInt@CQuery@@QAEHPAD@Z ; CQuery::GetInt
  00068	8b 7d 1c	 mov	 edi, DWORD PTR _nItemResist$[ebp]

; 1519 : 	nResistAbilityOption = pQry->GetInt( "m_nResistAbilityOption" );// ĽÓĽşżˇ ´ëÇŃ Option°Ş

  0006b	8b ce		 mov	 ecx, esi
  0006d	68 00 00 00 00	 push	 OFFSET ??_C@_0BH@DKIALLAG@m_nResistAbilityOption@
  00072	89 07		 mov	 DWORD PTR [edi], eax
  00074	e8 00 00 00 00	 call	 ?GetInt@CQuery@@QAEHPAD@Z ; CQuery::GetInt
  00079	8b 75 20	 mov	 esi, DWORD PTR _nResistAbilityOption$[ebp]

; 1520 : 	
; 1521 : 	if( 0 == strcmp( pOneItem, "NULL") )

  0007c	b9 00 00 00 00	 mov	 ecx, OFFSET ??_C@_04HIBGFPH@NULL@
  00081	89 06		 mov	 DWORD PTR [esi], eax
  00083	8b 45 10	 mov	 eax, DWORD PTR _pOneItem$[ebp]
$LL10@GetRemoveI:
  00086	8a 10		 mov	 dl, BYTE PTR [eax]
  00088	3a 11		 cmp	 dl, BYTE PTR [ecx]
  0008a	75 1a		 jne	 SHORT $LN11@GetRemoveI
  0008c	84 d2		 test	 dl, dl
  0008e	74 12		 je	 SHORT $LN12@GetRemoveI
  00090	8a 50 01	 mov	 dl, BYTE PTR [eax+1]
  00093	3a 51 01	 cmp	 dl, BYTE PTR [ecx+1]
  00096	75 0e		 jne	 SHORT $LN11@GetRemoveI
  00098	83 c0 02	 add	 eax, 2
  0009b	83 c1 02	 add	 ecx, 2
  0009e	84 d2		 test	 dl, dl
  000a0	75 e4		 jne	 SHORT $LL10@GetRemoveI
$LN12@GetRemoveI:
  000a2	33 c0		 xor	 eax, eax
  000a4	eb 05		 jmp	 SHORT $LN13@GetRemoveI
$LN11@GetRemoveI:
  000a6	1b c0		 sbb	 eax, eax
  000a8	83 c8 01	 or	 eax, 1
$LN13@GetRemoveI:
  000ab	85 c0		 test	 eax, eax
  000ad	75 19		 jne	 SHORT $LN2@GetRemoveI

; 1522 : 	{
; 1523 : 		WriteLog( "Remove NULL Item_Name : %s", pOneItem );

  000af	ff 75 10	 push	 DWORD PTR _pOneItem$[ebp]
  000b2	68 00 00 00 00	 push	 OFFSET ??_C@_0BL@GOICAOCF@Remove?5NULL?5Item_Name?5?3?5?$CFs@
  000b7	e8 00 00 00 00	 call	 ?WriteLog@@YAXPBDZZ	; WriteLog
  000bc	83 c4 08	 add	 esp, 8

; 1524 : 		return FALSE;

  000bf	33 c0		 xor	 eax, eax
  000c1	5f		 pop	 edi

; 1549 : 
; 1550 : 	
; 1551 : 	return TRUE;
; 1552 : }

  000c2	5e		 pop	 esi
  000c3	5b		 pop	 ebx
  000c4	5d		 pop	 ebp
  000c5	c2 20 00	 ret	 32			; 00000020H
$LN2@GetRemoveI:

; 1525 : 	}
; 1526 : 
; 1527 : 	if( chState != 'I' && chState != 'B'
; 1528 : #ifdef __REMOVEITEM_POCKET
; 1529 : 		&& chState != 'P'

  000c8	8b 45 24	 mov	 eax, DWORD PTR _chState$[ebp]
  000cb	8a 00		 mov	 al, BYTE PTR [eax]
  000cd	3c 49		 cmp	 al, 73			; 00000049H
  000cf	74 22		 je	 SHORT $LN3@GetRemoveI
  000d1	3c 42		 cmp	 al, 66			; 00000042H
  000d3	74 1e		 je	 SHORT $LN3@GetRemoveI
  000d5	3c 50		 cmp	 al, 80			; 00000050H
  000d7	74 1a		 je	 SHORT $LN3@GetRemoveI

; 1530 : #endif // __REMOVEITEM_POCKET
; 1531 : 		)
; 1532 : 	{
; 1533 : 		WriteLog( "Remove Not Data State : %c", chState );

  000d9	0f be c0	 movsx	 eax, al
  000dc	50		 push	 eax
  000dd	68 00 00 00 00	 push	 OFFSET ??_C@_0BL@DMKMHKMC@Remove?5Not?5Data?5State?5?3?5?$CFc@
  000e2	e8 00 00 00 00	 call	 ?WriteLog@@YAXPBDZZ	; WriteLog
  000e7	83 c4 08	 add	 esp, 8

; 1534 : 		return FALSE;

  000ea	33 c0		 xor	 eax, eax
  000ec	5f		 pop	 edi

; 1549 : 
; 1550 : 	
; 1551 : 	return TRUE;
; 1552 : }

  000ed	5e		 pop	 esi
  000ee	5b		 pop	 ebx
  000ef	5d		 pop	 ebp
  000f0	c2 20 00	 ret	 32			; 00000020H
$LN3@GetRemoveI:

; 1535 : 	}
; 1536 : 
; 1537 : 	
; 1538 : 	if( nItem_Count == -100 || nItem_Count == 0 )

  000f3	8b 4d 14	 mov	 ecx, DWORD PTR _nItem_Count$[ebp]
  000f6	8b 01		 mov	 eax, DWORD PTR [ecx]
  000f8	83 f8 9c	 cmp	 eax, -100		; ffffff9cH
  000fb	74 04		 je	 SHORT $LN5@GetRemoveI
  000fd	85 c0		 test	 eax, eax
  000ff	75 06		 jne	 SHORT $LN4@GetRemoveI
$LN5@GetRemoveI:

; 1539 : 		nItem_Count = 1;

  00101	c7 01 01 00 00
	00		 mov	 DWORD PTR [ecx], 1
$LN4@GetRemoveI:

; 1540 : 	
; 1541 : 	if( nAbilityOption == -100 )

  00107	83 3b 9c	 cmp	 DWORD PTR [ebx], -100	; ffffff9cH
  0010a	75 06		 jne	 SHORT $LN6@GetRemoveI

; 1542 : 		nAbilityOption = 0;

  0010c	c7 03 00 00 00
	00		 mov	 DWORD PTR [ebx], 0
$LN6@GetRemoveI:

; 1543 : 	
; 1544 : 	if( nItemResist == -100 )

  00112	83 3f 9c	 cmp	 DWORD PTR [edi], -100	; ffffff9cH
  00115	75 06		 jne	 SHORT $LN7@GetRemoveI

; 1545 : 		nItemResist = 0;

  00117	c7 07 00 00 00
	00		 mov	 DWORD PTR [edi], 0
$LN7@GetRemoveI:

; 1546 : 	
; 1547 : 	if( nResistAbilityOption == -100 )

  0011d	83 3e 9c	 cmp	 DWORD PTR [esi], -100	; ffffff9cH
  00120	75 06		 jne	 SHORT $LN8@GetRemoveI

; 1548 : 		nResistAbilityOption = 0;

  00122	c7 06 00 00 00
	00		 mov	 DWORD PTR [esi], 0
$LN8@GetRemoveI:
  00128	5f		 pop	 edi

; 1549 : 
; 1550 : 	
; 1551 : 	return TRUE;
; 1552 : }

  00129	5e		 pop	 esi
  0012a	b8 01 00 00 00	 mov	 eax, 1
  0012f	5b		 pop	 ebx
  00130	5d		 pop	 ebp
  00131	c2 20 00	 ret	 32			; 00000020H
?GetRemoveItem@CDbManager@@AAEHPAVCQuery@@AAHPAD1111AAD@Z ENDP ; CDbManager::GetRemoveItem
_TEXT	ENDS
; Function compile flags: /Ogtp
; File C:\IAGOS\server\v18\Source\Source\_Database\DbManagerFun.cpp
;	COMDAT ?RemoveItemInventory@CDbManager@@AAEKPAUItemProp@@PAVCMover@@HHHH@Z
_TEXT	SEGMENT
_pItemProp$ = 8						; size = 4
_pMover$ = 12						; size = 4
_iSerialNumber$1$ = 12					; size = 4
_nAbilityOption$ = 16					; size = 4
_nItemResist$ = 20					; size = 4
_nResistAbilityOption$ = 24				; size = 4
_nItemCount$ = 28					; size = 4
?RemoveItemInventory@CDbManager@@AAEKPAUItemProp@@PAVCMover@@HHHH@Z PROC ; CDbManager::RemoveItemInventory, COMDAT
; _this$ = ecx

; 1630 : {

  00000	55		 push	 ebp
  00001	8b ec		 mov	 ebp, esp
  00003	53		 push	 ebx

; 1631 : 	SERIALNUMBER iSerialNumber = 0;
; 1632 : 	CItemElem *pItemElem = pMover->m_Inventory.GetItem( pItemProp, nAbilityOption, nItemResist, nResistAbilityOption );

  00004	8b 5d 0c	 mov	 ebx, DWORD PTR _pMover$[ebp]
  00007	56		 push	 esi
  00008	57		 push	 edi
  00009	ff 75 18	 push	 DWORD PTR _nResistAbilityOption$[ebp]
  0000c	8b 7d 08	 mov	 edi, DWORD PTR _pItemProp$[ebp]
  0000f	8d 8b b4 3b 00
	00		 lea	 ecx, DWORD PTR [ebx+15284]
  00015	ff 75 14	 push	 DWORD PTR _nItemResist$[ebp]
  00018	ff 75 10	 push	 DWORD PTR _nAbilityOption$[ebp]
  0001b	57		 push	 edi
  0001c	e8 00 00 00 00	 call	 ?GetItem@?$CItemContainer@VCItemElem@@@@QAEPAVCItemElem@@PAUItemProp@@HHH@Z ; CItemContainer<CItemElem>::GetItem
  00021	8b f0		 mov	 esi, eax

; 1633 : 	
; 1634 : 	if( pItemElem != NULL ) // ŔÎşĄĹä¸®żˇ ľĆŔĚĹŰŔĚ ŔÖŔ˝Ŕ» °Ë»ç.

  00023	85 f6		 test	 esi, esi
  00025	0f 84 95 00 00
	00		 je	 $LN2@RemoveItem

; 1635 : 	{
; 1636 : 		iSerialNumber = pItemElem->GetSerialNumber();

  0002b	8b 46 30	 mov	 eax, DWORD PTR [esi+48]

; 1637 : 		if( pMover->m_Inventory.IsEquip( pItemElem->m_dwObjId ) )	// Ŕĺşń¸¦ ÂřżëÇĎ°í ŔÖ´ÂÁö °Ë»ç

  0002e	8d 8b b4 3b 00
	00		 lea	 ecx, DWORD PTR [ebx+15284]
  00034	ff 76 04	 push	 DWORD PTR [esi+4]
  00037	89 45 0c	 mov	 DWORD PTR _iSerialNumber$1$[ebp], eax
  0003a	e8 00 00 00 00	 call	 ?IsEquip@?$CItemContainer@VCItemElem@@@@QAEHK@Z ; CItemContainer<CItemElem>::IsEquip
  0003f	85 c0		 test	 eax, eax
  00041	74 47		 je	 SHORT $LN6@RemoveItem

; 1638 : 		{
; 1639 : 			if( !pMover->m_Inventory.UnEquip( pItemProp->dwParts ) ) // Ŕĺşń ÇŘÁ¦

  00043	ff b7 a8 00 00
	00		 push	 DWORD PTR [edi+168]
  00049	8d 8b b4 3b 00
	00		 lea	 ecx, DWORD PTR [ebx+15284]
  0004f	e8 00 00 00 00	 call	 ?UnEquip@?$CItemContainer@VCItemElem@@@@QAEHK@Z ; CItemContainer<CItemElem>::UnEquip
  00054	85 c0		 test	 eax, eax
  00056	75 1e		 jne	 SHORT $LN5@RemoveItem

; 1640 : 			{
; 1641 : 				WriteLog( "Not UnEquip : %s, %s ", pMover->m_szName, pItemProp->szName );

  00058	8d 47 04	 lea	 eax, DWORD PTR [edi+4]
  0005b	50		 push	 eax
  0005c	8d 43 6c	 lea	 eax, DWORD PTR [ebx+108]
  0005f	50		 push	 eax
  00060	68 00 00 00 00	 push	 OFFSET ??_C@_0BG@EGBCIKAA@Not?5UnEquip?5?3?5?$CFs?0?5?$CFs?5@

; 1658 : 		return 0;
; 1659 : 	}
; 1660 : 	return 0;
; 1661 : }

  00065	e8 00 00 00 00	 call	 ?WriteLog@@YAXPBDZZ	; WriteLog
  0006a	83 c4 0c	 add	 esp, 12			; 0000000cH
  0006d	33 c0		 xor	 eax, eax
  0006f	5f		 pop	 edi
  00070	5e		 pop	 esi
  00071	5b		 pop	 ebx
  00072	5d		 pop	 ebp
  00073	c2 18 00	 ret	 24			; 00000018H
$LN5@RemoveItem:

; 1642 : 				return (SERIALNUMBER)0;
; 1643 : 			}
; 1644 : 			else
; 1645 : 				pMover->m_aEquipInfo[pItemProp->dwParts].dwId	= NULL_ID;

  00076	8b 87 a8 00 00
	00		 mov	 eax, DWORD PTR [edi+168]
  0007c	8d 04 40	 lea	 eax, DWORD PTR [eax+eax*2]
  0007f	c7 84 83 70 3f
	00 00 ff ff ff
	ff		 mov	 DWORD PTR [ebx+eax*4+16240], -1
$LN6@RemoveItem:

; 1646 : 		}
; 1647 : 
; 1648 : 		if( pItemElem->m_nItemNum <= nItemCount )

  0008a	0f b7 56 66	 movzx	 edx, WORD PTR [esi+102]
  0008e	8b 4d 1c	 mov	 ecx, DWORD PTR _nItemCount$[ebp]
  00091	0f bf c2	 movsx	 eax, dx
  00094	3b c1		 cmp	 eax, ecx
  00096	7f 18		 jg	 SHORT $LN7@RemoveItem

; 1649 : 			pMover->m_Inventory.RemoveAt( pItemElem->m_dwObjIndex );

  00098	ff 76 2c	 push	 DWORD PTR [esi+44]
  0009b	8d 8b b4 3b 00
	00		 lea	 ecx, DWORD PTR [ebx+15284]
  000a1	e8 00 00 00 00	 call	 ?RemoveAt@?$CItemContainer@VCItemElem@@@@QAEXK@Z ; CItemContainer<CItemElem>::RemoveAt

; 1650 : 		else
; 1651 : 			pItemElem->m_nItemNum -= nItemCount;
; 1652 : 		
; 1653 : 		return iSerialNumber;

  000a6	8b 45 0c	 mov	 eax, DWORD PTR _iSerialNumber$1$[ebp]
  000a9	5f		 pop	 edi

; 1658 : 		return 0;
; 1659 : 	}
; 1660 : 	return 0;
; 1661 : }

  000aa	5e		 pop	 esi
  000ab	5b		 pop	 ebx
  000ac	5d		 pop	 ebp
  000ad	c2 18 00	 ret	 24			; 00000018H
$LN7@RemoveItem:

; 1650 : 		else
; 1651 : 			pItemElem->m_nItemNum -= nItemCount;
; 1652 : 		
; 1653 : 		return iSerialNumber;

  000b0	8b 45 0c	 mov	 eax, DWORD PTR _iSerialNumber$1$[ebp]
  000b3	2b d1		 sub	 edx, ecx
  000b5	5f		 pop	 edi
  000b6	66 89 56 66	 mov	 WORD PTR [esi+102], dx

; 1658 : 		return 0;
; 1659 : 	}
; 1660 : 	return 0;
; 1661 : }

  000ba	5e		 pop	 esi
  000bb	5b		 pop	 ebx
  000bc	5d		 pop	 ebp
  000bd	c2 18 00	 ret	 24			; 00000018H
$LN2@RemoveItem:

; 1654 : 	}
; 1655 : 	else
; 1656 : 	{
; 1657 : 		WriteLog( "Not Inventory : %s, %s ", pMover->m_szName, pItemProp->szName );

  000c0	8d 47 04	 lea	 eax, DWORD PTR [edi+4]
  000c3	50		 push	 eax
  000c4	8d 43 6c	 lea	 eax, DWORD PTR [ebx+108]
  000c7	50		 push	 eax
  000c8	68 00 00 00 00	 push	 OFFSET ??_C@_0BI@OFGDADEH@Not?5Inventory?5?3?5?$CFs?0?5?$CFs?5@

; 1658 : 		return 0;
; 1659 : 	}
; 1660 : 	return 0;
; 1661 : }

  000cd	e8 00 00 00 00	 call	 ?WriteLog@@YAXPBDZZ	; WriteLog
  000d2	83 c4 0c	 add	 esp, 12			; 0000000cH
  000d5	33 c0		 xor	 eax, eax
  000d7	5f		 pop	 edi
  000d8	5e		 pop	 esi
  000d9	5b		 pop	 ebx
  000da	5d		 pop	 ebp
  000db	c2 18 00	 ret	 24			; 00000018H
?RemoveItemInventory@CDbManager@@AAEKPAUItemProp@@PAVCMover@@HHHH@Z ENDP ; CDbManager::RemoveItemInventory
_TEXT	ENDS
; Function compile flags: /Ogtp
; File C:\IAGOS\server\v18\Source\Source\_Database\DbManagerFun.cpp
;	COMDAT ?RemoveItemPocket@CDbManager@@AAEKPAUItemProp@@PAVCMover@@HHHH@Z
_TEXT	SEGMENT
tv188 = -4						; size = 4
_pItemProp$ = 8						; size = 4
_pMover$ = 12						; size = 4
_nAbilityOption$ = 16					; size = 4
_nItemResist$ = 20					; size = 4
_nResistAbilityOption$ = 24				; size = 4
_nItemCount$ = 28					; size = 4
?RemoveItemPocket@CDbManager@@AAEKPAUItemProp@@PAVCMover@@HHHH@Z PROC ; CDbManager::RemoveItemPocket, COMDAT
; _this$ = ecx

; 1689 : {

  00000	55		 push	 ebp
  00001	8b ec		 mov	 ebp, esp
  00003	51		 push	 ecx
  00004	8b 45 0c	 mov	 eax, DWORD PTR _pMover$[ebp]
  00007	53		 push	 ebx

; 1690 : 	SERIALNUMBER iSerialNumber = 0;
; 1691 : 	for( int i=0; i<MAX_POCKET; i++ )

  00008	8b 5d 08	 mov	 ebx, DWORD PTR _pItemProp$[ebp]
  0000b	56		 push	 esi
  0000c	33 f6		 xor	 esi, esi
  0000e	05 c8 3b 00 00	 add	 eax, 15304		; 00003bc8H
  00013	57		 push	 edi
  00014	89 45 fc	 mov	 DWORD PTR tv188[ebp], eax
$LL4@RemoveItem:

; 1692 : 	{
; 1693 : 		CPocket* pPocket = pMover->m_Pocket.GetPocket( i );

  00017	56		 push	 esi
  00018	8b c8		 mov	 ecx, eax
  0001a	e8 00 00 00 00	 call	 ?GetPocket@CPocketController@@QAEPAVCPocket@@H@Z ; CPocketController::GetPocket
  0001f	8b f8		 mov	 edi, eax

; 1694 : 		if( pPocket )

  00021	85 ff		 test	 edi, edi
  00023	74 17		 je	 SHORT $LN2@RemoveItem

; 1695 : 		{
; 1696 : 			CItemElem* pItemElem = pPocket->GetItem( pItemProp, nAbilityOption, nItemResist, nResistAbilityOption );

  00025	ff 75 18	 push	 DWORD PTR _nResistAbilityOption$[ebp]
  00028	8b cf		 mov	 ecx, edi
  0002a	ff 75 14	 push	 DWORD PTR _nItemResist$[ebp]
  0002d	ff 75 10	 push	 DWORD PTR _nAbilityOption$[ebp]
  00030	53		 push	 ebx
  00031	e8 00 00 00 00	 call	 ?GetItem@?$CItemContainer@VCItemElem@@@@QAEPAVCItemElem@@PAUItemProp@@HHH@Z ; CItemContainer<CItemElem>::GetItem
  00036	8b c8		 mov	 ecx, eax

; 1697 : 			if( pItemElem != NULL )

  00038	85 c9		 test	 ecx, ecx
  0003a	75 0b		 jne	 SHORT $LN11@RemoveItem
$LN2@RemoveItem:

; 1690 : 	SERIALNUMBER iSerialNumber = 0;
; 1691 : 	for( int i=0; i<MAX_POCKET; i++ )

  0003c	46		 inc	 esi
  0003d	83 fe 03	 cmp	 esi, 3
  00040	7d 3c		 jge	 SHORT $LN13@RemoveItem
  00042	8b 45 fc	 mov	 eax, DWORD PTR tv188[ebp]
  00045	eb d0		 jmp	 SHORT $LL4@RemoveItem
$LN11@RemoveItem:

; 1698 : 			{
; 1699 : 				iSerialNumber	= pItemElem->GetSerialNumber();
; 1700 : 
; 1701 : 				if( pItemElem->m_nItemNum <= nItemCount )

  00047	0f b7 51 66	 movzx	 edx, WORD PTR [ecx+102]
  0004b	8b 75 1c	 mov	 esi, DWORD PTR _nItemCount$[ebp]
  0004e	8b 59 30	 mov	 ebx, DWORD PTR [ecx+48]
  00051	0f bf c2	 movsx	 eax, dx
  00054	3b c6		 cmp	 eax, esi
  00056	7f 15		 jg	 SHORT $LN7@RemoveItem

; 1702 : 					pPocket->RemoveAt( pItemElem->m_dwObjIndex );

  00058	ff 71 2c	 push	 DWORD PTR [ecx+44]
  0005b	8b cf		 mov	 ecx, edi
  0005d	e8 00 00 00 00	 call	 ?RemoveAt@?$CItemContainer@VCItemElem@@@@QAEXK@Z ; CItemContainer<CItemElem>::RemoveAt
  00062	5f		 pop	 edi

; 1713 : }

  00063	5e		 pop	 esi
  00064	8b c3		 mov	 eax, ebx
  00066	5b		 pop	 ebx
  00067	8b e5		 mov	 esp, ebp
  00069	5d		 pop	 ebp
  0006a	c2 18 00	 ret	 24			; 00000018H
$LN7@RemoveItem:
  0006d	5f		 pop	 edi

; 1703 : 				else
; 1704 : 					pItemElem->m_nItemNum -= nItemCount;

  0006e	2b d6		 sub	 edx, esi

; 1705 : 
; 1706 : 				return iSerialNumber;

  00070	8b c3		 mov	 eax, ebx

; 1713 : }

  00072	5e		 pop	 esi
  00073	66 89 51 66	 mov	 WORD PTR [ecx+102], dx
  00077	5b		 pop	 ebx
  00078	8b e5		 mov	 esp, ebp
  0007a	5d		 pop	 ebp
  0007b	c2 18 00	 ret	 24			; 00000018H
$LN13@RemoveItem:

; 1707 : 			}
; 1708 : 		}
; 1709 : 	}
; 1710 : 
; 1711 : 	WriteLog( "item not found - Pocket: %s, %s ", pMover->m_szName, pItemProp->szName );

  0007e	8d 43 04	 lea	 eax, DWORD PTR [ebx+4]
  00081	50		 push	 eax
  00082	8b 45 0c	 mov	 eax, DWORD PTR _pMover$[ebp]
  00085	83 c0 6c	 add	 eax, 108		; 0000006cH
  00088	50		 push	 eax
  00089	68 00 00 00 00	 push	 OFFSET ??_C@_0CB@HEHGABA@item?5not?5found?5?9?5Pocket?3?5?$CFs?0?5?$CFs@
  0008e	e8 00 00 00 00	 call	 ?WriteLog@@YAXPBDZZ	; WriteLog
  00093	83 c4 0c	 add	 esp, 12			; 0000000cH

; 1712 : 	return 0;

  00096	33 c0		 xor	 eax, eax
  00098	5f		 pop	 edi

; 1713 : }

  00099	5e		 pop	 esi
  0009a	5b		 pop	 ebx
  0009b	8b e5		 mov	 esp, ebp
  0009d	5d		 pop	 ebp
  0009e	c2 18 00	 ret	 24			; 00000018H
?RemoveItemPocket@CDbManager@@AAEKPAUItemProp@@PAVCMover@@HHHH@Z ENDP ; CDbManager::RemoveItemPocket
_TEXT	ENDS
; Function compile flags: /Ogtp
; File C:\IAGOS\server\v18\Source\Source\_Database\DbManagerFun.cpp
;	COMDAT ?RemoveItemBank@CDbManager@@AAEKPAUItemProp@@PAVCMover@@HHHH@Z
_TEXT	SEGMENT
_pItemProp$ = 8						; size = 4
_pMover$ = 12						; size = 4
tv179 = 12						; size = 4
_nAbilityOption$ = 16					; size = 4
_nItemResist$ = 20					; size = 4
_nResistAbilityOption$ = 24				; size = 4
_nItemCount$ = 28					; size = 4
?RemoveItemBank@CDbManager@@AAEKPAUItemProp@@PAVCMover@@HHHH@Z PROC ; CDbManager::RemoveItemBank, COMDAT
; _this$ = ecx

; 1664 : {

  00000	55		 push	 ebp
  00001	8b ec		 mov	 ebp, esp
  00003	56		 push	 esi

; 1665 : 	SERIALNUMBER iSerialNumber = 0;
; 1666 : 	CItemElem *pItemElem	= pMover->m_Bank[pMover->m_nSlot].GetItem( pItemProp, nAbilityOption, nItemResist, nResistAbilityOption );

  00004	8b 75 0c	 mov	 esi, DWORD PTR _pMover$[ebp]
  00007	57		 push	 edi
  00008	ff 75 18	 push	 DWORD PTR _nResistAbilityOption$[ebp]
  0000b	8b 7d 08	 mov	 edi, DWORD PTR _pItemProp$[ebp]
  0000e	0f b6 86 c8 00
	00 00		 movzx	 eax, BYTE PTR [esi+200]
  00015	ff 75 14	 push	 DWORD PTR _nItemResist$[ebp]
  00018	ff 75 10	 push	 DWORD PTR _nAbilityOption$[ebp]
  0001b	8d 04 80	 lea	 eax, DWORD PTR [eax+eax*4]
  0001e	8d 80 f9 0e 00
	00		 lea	 eax, DWORD PTR [eax+3833]
  00024	8d 04 86	 lea	 eax, DWORD PTR [esi+eax*4]
  00027	57		 push	 edi
  00028	8b c8		 mov	 ecx, eax
  0002a	89 45 0c	 mov	 DWORD PTR tv179[ebp], eax
  0002d	e8 00 00 00 00	 call	 ?GetItem@?$CItemContainer@VCItemElem@@@@QAEPAVCItemElem@@PAUItemProp@@HHH@Z ; CItemContainer<CItemElem>::GetItem

; 1667 : 
; 1668 : 	if( pItemElem != NULL )

  00032	85 c0		 test	 eax, eax
  00034	74 35		 je	 SHORT $LN2@RemoveItem

; 1669 : 	{
; 1670 : 		iSerialNumber	= pItemElem->GetSerialNumber();
; 1671 : 
; 1672 : 		if( pItemElem->m_nItemNum <= nItemCount )

  00036	0f b7 70 66	 movzx	 esi, WORD PTR [eax+102]
  0003a	8b 7d 1c	 mov	 edi, DWORD PTR _nItemCount$[ebp]
  0003d	0f bf d6	 movsx	 edx, si
  00040	53		 push	 ebx
  00041	8b 58 30	 mov	 ebx, DWORD PTR [eax+48]
  00044	3b d7		 cmp	 edx, edi
  00046	7f 14		 jg	 SHORT $LN4@RemoveItem

; 1673 : 			pMover->m_Bank[pMover->m_nSlot].RemoveAt( pItemElem->m_dwObjIndex );

  00048	ff 70 2c	 push	 DWORD PTR [eax+44]
  0004b	8b 4d 0c	 mov	 ecx, DWORD PTR tv179[ebp]
  0004e	e8 00 00 00 00	 call	 ?RemoveAt@?$CItemContainer@VCItemElem@@@@QAEXK@Z ; CItemContainer<CItemElem>::RemoveAt

; 1676 : 
; 1677 : 		return iSerialNumber;

  00053	8b c3		 mov	 eax, ebx
  00055	5b		 pop	 ebx
  00056	5f		 pop	 edi

; 1683 : 	}
; 1684 : 	return 0;
; 1685 : }

  00057	5e		 pop	 esi
  00058	5d		 pop	 ebp
  00059	c2 18 00	 ret	 24			; 00000018H
$LN4@RemoveItem:

; 1674 : 		else
; 1675 : 			pItemElem->m_nItemNum -= nItemCount;

  0005c	2b f7		 sub	 esi, edi
  0005e	66 89 70 66	 mov	 WORD PTR [eax+102], si

; 1676 : 
; 1677 : 		return iSerialNumber;

  00062	8b c3		 mov	 eax, ebx
  00064	5b		 pop	 ebx
  00065	5f		 pop	 edi

; 1683 : 	}
; 1684 : 	return 0;
; 1685 : }

  00066	5e		 pop	 esi
  00067	5d		 pop	 ebp
  00068	c2 18 00	 ret	 24			; 00000018H
$LN2@RemoveItem:

; 1678 : 	}
; 1679 : 	else
; 1680 : 	{
; 1681 : 		WriteLog( "item not found - bank: %s, %s ", pMover->m_szName, pItemProp->szName );

  0006b	8d 47 04	 lea	 eax, DWORD PTR [edi+4]
  0006e	50		 push	 eax
  0006f	8d 46 6c	 lea	 eax, DWORD PTR [esi+108]
  00072	50		 push	 eax
  00073	68 00 00 00 00	 push	 OFFSET ??_C@_0BP@MKOBOPPN@item?5not?5found?5?9?5bank?3?5?$CFs?0?5?$CFs?5@
  00078	e8 00 00 00 00	 call	 ?WriteLog@@YAXPBDZZ	; WriteLog
  0007d	83 c4 0c	 add	 esp, 12			; 0000000cH

; 1682 : 		return 0;

  00080	33 c0		 xor	 eax, eax
  00082	5f		 pop	 edi

; 1683 : 	}
; 1684 : 	return 0;
; 1685 : }

  00083	5e		 pop	 esi
  00084	5d		 pop	 ebp
  00085	c2 18 00	 ret	 24			; 00000018H
?RemoveItemBank@CDbManager@@AAEKPAUItemProp@@PAVCMover@@HHHH@Z ENDP ; CDbManager::RemoveItemBank
_TEXT	ENDS
; Function compile flags: /Ogtp
; File C:\IAGOS\server\v18\Source\Source\_Database\DbManagerFun.cpp
; File C:\IAGOS\server\v18\Source\Source\_Common\Data.h
; File C:\IAGOS\server\v18\Source\Source\_Database\DbManagerFun.cpp
;	COMDAT ?RemoveItem@CDbManager@@AAEKPAVCQuery@@PADHPAVCMover@@1HHHHD@Z
_TEXT	SEGMENT
_pQry$ = 8						; size = 4
_szSql$ = 12						; size = 4
_nNo$ = 16						; size = 4
_pMover$ = 20						; size = 4
_szItemName$ = 24					; size = 4
_nItemCount$ = 28					; size = 4
_nAbilityOption$ = 32					; size = 4
_nItemResist$ = 36					; size = 4
_nResistAbilityOption$ = 40				; size = 4
_chState$ = 44						; size = 1
?RemoveItem@CDbManager@@AAEKPAVCQuery@@PADHPAVCMover@@1HHHHD@Z PROC ; CDbManager::RemoveItem, COMDAT
; _this$ = ecx

; 1575 : {

  00000	55		 push	 ebp
  00001	8b ec		 mov	 ebp, esp
  00003	53		 push	 ebx
  00004	56		 push	 esi

; 1576 : 	SERIALNUMBER iSerialNumber = 0;
; 1577 : 
; 1578 : 	int nIndex = atoi( szItemName );

  00005	ff 75 18	 push	 DWORD PTR _szItemName$[ebp]
  00008	8b d9		 mov	 ebx, ecx
  0000a	e8 00 00 00 00	 call	 _atoi
  0000f	8b f0		 mov	 esi, eax
  00011	83 c4 04	 add	 esp, 4

; 1579 : 	ItemProp* pItemProp = NULL;
; 1580 : 	if( nIndex > 0 )

  00014	85 f6		 test	 esi, esi
  00016	7e 16		 jle	 SHORT $LN4@RemoveItem
; File C:\IAGOS\server\v18\Source\Source\_Common\Data.h

; 270  : 	if( dwIndex >= (DWORD)m_nMaxIndex )

  00018	3b 35 4c 00 00
	00		 cmp	 esi, DWORD PTR ?prj@@3VCProject@@A+76
  0001e	72 04		 jb	 SHORT $LN18@RemoveItem

; 271  : 		return NULL;

  00020	33 f6		 xor	 esi, esi
  00022	eb 19		 jmp	 SHORT $LN5@RemoveItem
$LN18@RemoveItem:

; 272  : 	return (T*) m_apOffset[ dwIndex ];

  00024	a1 3c 00 00 00	 mov	 eax, DWORD PTR ?prj@@3VCProject@@A+60
  00029	8b 34 b0	 mov	 esi, DWORD PTR [eax+esi*4]
; File C:\IAGOS\server\v18\Source\Source\_Database\DbManagerFun.cpp

; 1581 : 		pItemProp = prj.GetItemProp( nIndex );	

  0002c	eb 0f		 jmp	 SHORT $LN5@RemoveItem
$LN4@RemoveItem:

; 1582 : 	else
; 1583 : 		pItemProp = prj.GetItemProp( szItemName );	

  0002e	ff 75 18	 push	 DWORD PTR _szItemName$[ebp]
  00031	b9 00 00 00 00	 mov	 ecx, OFFSET ?prj@@3VCProject@@A ; prj
  00036	e8 00 00 00 00	 call	 ?GetItemProp@CProject@@QAEPAUItemProp@@PBD@Z ; CProject::GetItemProp
  0003b	8b f0		 mov	 esi, eax
$LN5@RemoveItem:

; 1584 : 
; 1585 : 	if( pItemProp )

  0003d	85 f6		 test	 esi, esi
  0003f	74 70		 je	 SHORT $LN6@RemoveItem

; 1586 : 	{
; 1587 : 		if( RemoveItemDeleteQuery( pQry, szSql, nNo ) == FALSE )

  00041	ff 75 10	 push	 DWORD PTR _nNo$[ebp]
  00044	8b cb		 mov	 ecx, ebx
  00046	ff 75 0c	 push	 DWORD PTR _szSql$[ebp]
  00049	ff 75 08	 push	 DWORD PTR _pQry$[ebp]
  0004c	e8 00 00 00 00	 call	 ?RemoveItemDeleteQuery@CDbManager@@AAEHPAVCQuery@@PADH@Z ; CDbManager::RemoveItemDeleteQuery
  00051	85 c0		 test	 eax, eax
  00053	74 5c		 je	 SHORT $LN6@RemoveItem

; 1588 : 			return 0;
; 1589 : 
; 1590 : #ifdef __REMOVEITEM_POCKET
; 1591 : 		switch( chState )

  00055	8a 45 2c	 mov	 al, BYTE PTR _chState$[ebp]
  00058	3c 42		 cmp	 al, 66			; 00000042H
  0005a	74 3a		 je	 SHORT $LN10@RemoveItem
  0005c	3c 49		 cmp	 al, 73			; 00000049H
  0005e	74 1d		 je	 SHORT $LN9@RemoveItem
  00060	3c 50		 cmp	 al, 80			; 00000050H
  00062	75 4d		 jne	 SHORT $LN6@RemoveItem

; 1599 : 				break;
; 1600 : 
; 1601 : 			case 'P' :
; 1602 : 				iSerialNumber	= RemoveItemPocket( pItemProp, pMover, nAbilityOption, nItemResist, nResistAbilityOption, nItemCount );

  00064	ff 75 1c	 push	 DWORD PTR _nItemCount$[ebp]
  00067	8b cb		 mov	 ecx, ebx
  00069	ff 75 28	 push	 DWORD PTR _nResistAbilityOption$[ebp]
  0006c	ff 75 24	 push	 DWORD PTR _nItemResist$[ebp]
  0006f	ff 75 20	 push	 DWORD PTR _nAbilityOption$[ebp]
  00072	ff 75 14	 push	 DWORD PTR _pMover$[ebp]
  00075	56		 push	 esi
  00076	e8 00 00 00 00	 call	 ?RemoveItemPocket@CDbManager@@AAEKPAUItemProp@@PAVCMover@@HHHH@Z ; CDbManager::RemoveItemPocket
  0007b	eb 30		 jmp	 SHORT $LN2@RemoveItem
$LN9@RemoveItem:

; 1592 : 		{
; 1593 : 			case 'I' :
; 1594 : 				iSerialNumber	= RemoveItemInventory( pItemProp, pMover, nAbilityOption, nItemResist, nResistAbilityOption, nItemCount );

  0007d	ff 75 1c	 push	 DWORD PTR _nItemCount$[ebp]
  00080	8b cb		 mov	 ecx, ebx
  00082	ff 75 28	 push	 DWORD PTR _nResistAbilityOption$[ebp]
  00085	ff 75 24	 push	 DWORD PTR _nItemResist$[ebp]
  00088	ff 75 20	 push	 DWORD PTR _nAbilityOption$[ebp]
  0008b	ff 75 14	 push	 DWORD PTR _pMover$[ebp]
  0008e	56		 push	 esi
  0008f	e8 00 00 00 00	 call	 ?RemoveItemInventory@CDbManager@@AAEKPAUItemProp@@PAVCMover@@HHHH@Z ; CDbManager::RemoveItemInventory

; 1595 : 				break;

  00094	eb 17		 jmp	 SHORT $LN2@RemoveItem
$LN10@RemoveItem:

; 1596 : 			
; 1597 : 			case 'B' :
; 1598 : 				iSerialNumber	= RemoveItemBank( pItemProp, pMover, nAbilityOption, nItemResist, nResistAbilityOption, nItemCount );

  00096	ff 75 1c	 push	 DWORD PTR _nItemCount$[ebp]
  00099	8b cb		 mov	 ecx, ebx
  0009b	ff 75 28	 push	 DWORD PTR _nResistAbilityOption$[ebp]
  0009e	ff 75 24	 push	 DWORD PTR _nItemResist$[ebp]
  000a1	ff 75 20	 push	 DWORD PTR _nAbilityOption$[ebp]
  000a4	ff 75 14	 push	 DWORD PTR _pMover$[ebp]
  000a7	56		 push	 esi
  000a8	e8 00 00 00 00	 call	 ?RemoveItemBank@CDbManager@@AAEKPAUItemProp@@PAVCMover@@HHHH@Z ; CDbManager::RemoveItemBank
$LN2@RemoveItem:

; 1603 : 				break;
; 1604 : 		}
; 1605 : #else // __REMOVEITEM_POCKET
; 1606 : 		if( chState == 'I' )
; 1607 : 		{
; 1608 : 			iSerialNumber	= RemoveItemInventory( pItemProp, pMover, nAbilityOption, nItemResist, nResistAbilityOption, nItemCount );
; 1609 : 		}
; 1610 : 		else
; 1611 : 		{
; 1612 : 			iSerialNumber	= RemoveItemBank( pItemProp, pMover, nAbilityOption, nItemResist, nResistAbilityOption, nItemCount );
; 1613 : 		}
; 1614 : #endif // __REMOVEITEM_POCKET
; 1615 : 
; 1616 : 		
; 1617 : 		if( iSerialNumber == 0 )

  000ad	85 c0		 test	 eax, eax
  000af	75 02		 jne	 SHORT $LN1@RemoveItem
$LN6@RemoveItem:

; 1618 : 			return 0;
; 1619 : 		else
; 1620 : 			return iSerialNumber;
; 1621 : 	}
; 1622 : 	else
; 1623 : 	{	// no propItem		
; 1624 : 		return 0;

  000b1	33 c0		 xor	 eax, eax
$LN1@RemoveItem:
  000b3	5e		 pop	 esi

; 1625 : 	}
; 1626 : 	return 0;
; 1627 : }

  000b4	5b		 pop	 ebx
  000b5	5d		 pop	 ebp
  000b6	c2 28 00	 ret	 40			; 00000028H
?RemoveItem@CDbManager@@AAEKPAVCQuery@@PADHPAVCMover@@1HHHHD@Z ENDP ; CDbManager::RemoveItem
_TEXT	ENDS
; Function compile flags: /Ogtp
; File C:\IAGOS\server\v18\Source\Source\_Database\DbManagerFun.cpp
; File C:\IAGOS\server\v18\Source\Source\_Network\Objects\Obj.h
; File C:\IAGOS\server\v18\Source\Source\_Database\DbManagerFun.cpp
; File C:\IAGOS\server\v18\Source\Source\_Network\Objects\Obj.h
; File C:\IAGOS\server\v18\Source\Source\_Database\DbManagerFun.cpp
;	COMDAT ?RemovePenya@CDbManager@@AAEHPAVCQuery@@PADPAVCMover@@HHD@Z
_TEXT	SEGMENT
_pQry$ = 8						; size = 4
_szSql$ = 12						; size = 4
_pMover$ = 16						; size = 4
_nItem_Count$ = 20					; size = 4
_nNo$ = 24						; size = 4
_chState$ = 28						; size = 1
?RemovePenya@CDbManager@@AAEHPAVCQuery@@PADPAVCMover@@HHD@Z PROC ; CDbManager::RemovePenya, COMDAT
; _this$ = ecx

; 1555 : {

  00000	55		 push	 ebp
  00001	8b ec		 mov	 ebp, esp

; 1556 : 	if( RemoveItemDeleteQuery( pQry, szSql, nNo ) == FALSE )

  00003	ff 75 18	 push	 DWORD PTR _nNo$[ebp]
  00006	ff 75 0c	 push	 DWORD PTR _szSql$[ebp]
  00009	ff 75 08	 push	 DWORD PTR _pQry$[ebp]
  0000c	e8 00 00 00 00	 call	 ?RemoveItemDeleteQuery@CDbManager@@AAEHPAVCQuery@@PADH@Z ; CDbManager::RemoveItemDeleteQuery
  00011	85 c0		 test	 eax, eax
  00013	75 04		 jne	 SHORT $LN2@RemovePeny

; 1572 : }

  00015	5d		 pop	 ebp
  00016	c2 18 00	 ret	 24			; 00000018H
$LN2@RemovePeny:

; 1557 : 		return FALSE;
; 1558 : 
; 1559 : 	if( chState == 'I' )	// Inventory

  00019	80 7d 1c 49	 cmp	 BYTE PTR _chState$[ebp], 73 ; 00000049H
  0001d	75 59		 jne	 SHORT $LN3@RemovePeny

; 1560 : 	{
; 1561 : 		pMover->AddGold( -nItem_Count, FALSE );

  0001f	8b 45 14	 mov	 eax, DWORD PTR _nItem_Count$[ebp]
  00022	f7 d8		 neg	 eax
; File C:\IAGOS\server\v18\Source\Source\_Network\Objects\Obj.h

; 1238 : 	if( nGold == 0 )

  00024	0f 84 88 00 00
	00		 je	 $LN5@RemovePeny

; 1239 : 		return TRUE;
; 1240 : 
; 1241 : #ifdef __PERIN_BUY_BUG
; 1242 : 	float fTotal = static_cast<float>( GetGold() ) + static_cast<float>( nGold );

  0002a	8b 4d 10	 mov	 ecx, DWORD PTR _pMover$[ebp]
  0002d	66 0f 6e c8	 movd	 xmm1, eax
  00031	0f 5b c9	 cvtdq2ps xmm1, xmm1
  00034	66 0f 6e 41 34	 movd	 xmm0, DWORD PTR [ecx+52]
  00039	0f 5b c0	 cvtdq2ps xmm0, xmm0
  0003c	f3 0f 58 c8	 addss	 xmm1, xmm0

; 1243 : 	if( fTotal > static_cast<float>( INT_MAX ) )

  00040	f3 0f 10 05 00
	00 00 00	 movss	 xmm0, DWORD PTR __real@4f000000
  00048	0f 2f c8	 comiss	 xmm1, xmm0
  0004b	76 13		 jbe	 SHORT $LN9@RemovePeny

; 1244 : 		fTotal = static_cast<float>( INT_MAX );

  0004d	0f 28 c8	 movaps	 xmm1, xmm0

; 1246 : 		return FALSE;
; 1247 : 
; 1248 : 	SetGold( static_cast<int>( fTotal ) );

  00050	f3 0f 2c c1	 cvttss2si eax, xmm1
  00054	89 41 34	 mov	 DWORD PTR [ecx+52], eax
; File C:\IAGOS\server\v18\Source\Source\_Database\DbManagerFun.cpp

; 1571 : 	return TRUE;

  00057	b8 01 00 00 00	 mov	 eax, 1

; 1572 : }

  0005c	5d		 pop	 ebp
  0005d	c2 18 00	 ret	 24			; 00000018H
$LN9@RemovePeny:
  00060	0f 57 c0	 xorps	 xmm0, xmm0
; File C:\IAGOS\server\v18\Source\Source\_Network\Objects\Obj.h

; 1245 : 	else if( fTotal < 0.0f )

  00063	0f 2f c1	 comiss	 xmm0, xmm1
  00066	77 4a		 ja	 SHORT $LN5@RemovePeny

; 1246 : 		return FALSE;
; 1247 : 
; 1248 : 	SetGold( static_cast<int>( fTotal ) );

  00068	f3 0f 2c c1	 cvttss2si eax, xmm1
  0006c	89 41 34	 mov	 DWORD PTR [ecx+52], eax
; File C:\IAGOS\server\v18\Source\Source\_Database\DbManagerFun.cpp

; 1571 : 	return TRUE;

  0006f	b8 01 00 00 00	 mov	 eax, 1

; 1572 : }

  00074	5d		 pop	 ebp
  00075	c2 18 00	 ret	 24			; 00000018H
$LN3@RemovePeny:
  00078	56		 push	 esi

; 1562 : 	}
; 1563 : 	else	// Bank
; 1564 : 	{
; 1565 : 		DWORD dwGoldBank	= pMover->m_dwGoldBank[pMover->m_nSlot];

  00079	8b 75 10	 mov	 esi, DWORD PTR _pMover$[ebp]
  0007c	0f b6 8e c8 00
	00 00		 movzx	 ecx, BYTE PTR [esi+200]
  00083	8b 94 8e 20 3c
	00 00		 mov	 edx, DWORD PTR [esi+ecx*4+15392]

; 1566 : 		pMover->m_dwGoldBank[pMover->m_nSlot]	-= nItem_Count;

  0008a	8b c2		 mov	 eax, edx
  0008c	2b 45 14	 sub	 eax, DWORD PTR _nItem_Count$[ebp]
  0008f	89 84 8e 20 3c
	00 00		 mov	 DWORD PTR [esi+ecx*4+15392], eax

; 1567 : 		if( dwGoldBank < pMover->m_dwGoldBank[pMover->m_nSlot] )

  00096	0f b6 86 c8 00
	00 00		 movzx	 eax, BYTE PTR [esi+200]
  0009d	3b 94 86 20 3c
	00 00		 cmp	 edx, DWORD PTR [esi+eax*4+15392]
  000a4	73 0b		 jae	 SHORT $LN19@RemovePeny

; 1568 : 			pMover->m_dwGoldBank[pMover->m_nSlot]	= 0;

  000a6	c7 84 86 20 3c
	00 00 00 00 00
	00		 mov	 DWORD PTR [esi+eax*4+15392], 0
$LN19@RemovePeny:
  000b1	5e		 pop	 esi
$LN5@RemovePeny:

; 1571 : 	return TRUE;

  000b2	b8 01 00 00 00	 mov	 eax, 1

; 1572 : }

  000b7	5d		 pop	 ebp
  000b8	c2 18 00	 ret	 24			; 00000018H
?RemovePenya@CDbManager@@AAEHPAVCQuery@@PADPAVCMover@@HHD@Z ENDP ; CDbManager::RemovePenya
_TEXT	ENDS
; Function compile flags: /Ogtp
; File C:\IAGOS\server\v18\Source\Source\_Database\DbManagerFun.cpp
; File C:\Program Files\Microsoft Visual Studio\2022\Professional\VC\Tools\MSVC\14.44.35207\atlmfc\include\atltime.h
; File C:\IAGOS\server\v18\Source\Source\_Database\DbManagerFun.cpp
; File C:\Program Files\Microsoft Visual Studio\2022\Professional\VC\Tools\MSVC\14.44.35207\atlmfc\include\atltime.h
; File C:\IAGOS\server\v18\Source\Source\_Database\DbManagerFun.cpp
;	COMDAT ?GetStrTime@CDbManager@@AAEXPAVCTime@ATL@@PBD@Z
_TEXT	SEGMENT
_nYear$1$ = -76						; size = 4
_nDay$1$ = -72						; size = 4
_nMonth$1$ = -68					; size = 4
_cMonth$ = -64						; size = 3
_cDay$ = -60						; size = 3
_cHour$ = -56						; size = 3
_cMin$ = -52						; size = 3
_atm$1 = -48						; size = 36
_cYear$ = -12						; size = 5
__$ArrayPad$ = -4					; size = 4
_time$ = 8						; size = 4
_strbuf$ = 12						; size = 4
?GetStrTime@CDbManager@@AAEXPAVCTime@ATL@@PBD@Z PROC	; CDbManager::GetStrTime, COMDAT
; _this$ = ecx

; 60   : {

  00000	55		 push	 ebp
  00001	8b ec		 mov	 ebp, esp
  00003	83 ec 4c	 sub	 esp, 76			; 0000004cH
  00006	a1 00 00 00 00	 mov	 eax, DWORD PTR ___security_cookie
  0000b	33 c5		 xor	 eax, ebp
  0000d	89 45 fc	 mov	 DWORD PTR __$ArrayPad$[ebp], eax
  00010	53		 push	 ebx

; 61   : 	char cYear[5] = {0,};
; 62   : 	char cMonth[3] = {0,};

  00011	33 c0		 xor	 eax, eax
  00013	c7 45 f4 00 00
	00 00		 mov	 DWORD PTR _cYear$[ebp], 0
  0001a	56		 push	 esi
  0001b	8b 75 0c	 mov	 esi, DWORD PTR _strbuf$[ebp]
  0001e	57		 push	 edi
  0001f	8b 7d 08	 mov	 edi, DWORD PTR _time$[ebp]

; 63   : 	char cDay[3] = {0,};
; 64   : 	char cHour[3] = {0,};
; 65   : 	char cMin[3] = {0,};
; 66   : 	
; 67   : 	strncpy(cYear, strbuf, 4);

  00022	6a 04		 push	 4
  00024	66 89 45 c0	 mov	 WORD PTR _cMonth$[ebp], ax
  00028	88 45 c2	 mov	 BYTE PTR _cMonth$[ebp+2], al
  0002b	66 89 45 c4	 mov	 WORD PTR _cDay$[ebp], ax
  0002f	88 45 c6	 mov	 BYTE PTR _cDay$[ebp+2], al
  00032	66 89 45 c8	 mov	 WORD PTR _cHour$[ebp], ax
  00036	88 45 ca	 mov	 BYTE PTR _cHour$[ebp+2], al
  00039	66 89 45 cc	 mov	 WORD PTR _cMin$[ebp], ax
  0003d	88 45 ce	 mov	 BYTE PTR _cMin$[ebp+2], al
  00040	8d 45 f4	 lea	 eax, DWORD PTR _cYear$[ebp]
  00043	56		 push	 esi
  00044	50		 push	 eax
  00045	c6 45 f8 00	 mov	 BYTE PTR _cYear$[ebp+4], 0
  00049	e8 00 00 00 00	 call	 _strncpy

; 68   : 	strncpy(cMonth, strbuf + 4, 2 );

  0004e	6a 02		 push	 2
  00050	8d 46 04	 lea	 eax, DWORD PTR [esi+4]
  00053	50		 push	 eax
  00054	8d 45 c0	 lea	 eax, DWORD PTR _cMonth$[ebp]
  00057	50		 push	 eax
  00058	e8 00 00 00 00	 call	 _strncpy

; 69   : 	strncpy(cDay, strbuf + 6, 2 );

  0005d	6a 02		 push	 2
  0005f	8d 46 06	 lea	 eax, DWORD PTR [esi+6]
  00062	50		 push	 eax
  00063	8d 45 c4	 lea	 eax, DWORD PTR _cDay$[ebp]
  00066	50		 push	 eax
  00067	e8 00 00 00 00	 call	 _strncpy

; 70   : 	strncpy(cHour, strbuf + 8, 2 );

  0006c	6a 02		 push	 2
  0006e	8d 46 08	 lea	 eax, DWORD PTR [esi+8]
  00071	50		 push	 eax
  00072	8d 45 c8	 lea	 eax, DWORD PTR _cHour$[ebp]
  00075	50		 push	 eax
  00076	e8 00 00 00 00	 call	 _strncpy

; 71   : 	strncpy(cMin, strbuf + 10, 2 );

  0007b	6a 02		 push	 2
  0007d	8d 46 0a	 lea	 eax, DWORD PTR [esi+10]
  00080	50		 push	 eax
  00081	8d 45 cc	 lea	 eax, DWORD PTR _cMin$[ebp]
  00084	50		 push	 eax
  00085	e8 00 00 00 00	 call	 _strncpy

; 72   : 	
; 73   : 	CTime Timebuf( atoi(cYear), atoi(cMonth), atoi(cDay), atoi(cHour), atoi(cMin), 0 );

  0008a	8d 45 cc	 lea	 eax, DWORD PTR _cMin$[ebp]
  0008d	50		 push	 eax
  0008e	e8 00 00 00 00	 call	 _atoi
  00093	83 c4 40	 add	 esp, 64			; 00000040H
  00096	8b f0		 mov	 esi, eax
  00098	8d 45 c8	 lea	 eax, DWORD PTR _cHour$[ebp]
  0009b	50		 push	 eax
  0009c	e8 00 00 00 00	 call	 _atoi
  000a1	8b d8		 mov	 ebx, eax
  000a3	8d 45 c4	 lea	 eax, DWORD PTR _cDay$[ebp]
  000a6	50		 push	 eax
  000a7	e8 00 00 00 00	 call	 _atoi
  000ac	89 45 b8	 mov	 DWORD PTR _nDay$1$[ebp], eax
  000af	8d 45 c0	 lea	 eax, DWORD PTR _cMonth$[ebp]
  000b2	50		 push	 eax
  000b3	e8 00 00 00 00	 call	 _atoi
  000b8	89 45 bc	 mov	 DWORD PTR _nMonth$1$[ebp], eax
  000bb	8d 45 f4	 lea	 eax, DWORD PTR _cYear$[ebp]
  000be	50		 push	 eax
  000bf	e8 00 00 00 00	 call	 _atoi
  000c4	83 c4 10	 add	 esp, 16			; 00000010H
  000c7	89 45 b4	 mov	 DWORD PTR _nYear$1$[ebp], eax
; File C:\Program Files\Microsoft Visual Studio\2022\Professional\VC\Tools\MSVC\14.44.35207\atlmfc\include\atltime.h

; 436  : 	ATLENSURE( nYear >= 1970 );

  000ca	3d b2 07 00 00	 cmp	 eax, 1970		; 000007b2H
  000cf	7c 70		 jl	 SHORT $LN62@GetStrTime

; 437  : 	ATLENSURE( nMonth >= 1 && nMonth <= 12 );

  000d1	8b 4d bc	 mov	 ecx, DWORD PTR _nMonth$1$[ebp]
  000d4	49		 dec	 ecx
  000d5	83 f9 0b	 cmp	 ecx, 11			; 0000000bH
  000d8	77 67		 ja	 SHORT $LN62@GetStrTime

; 438  : 	ATLENSURE( nDay >= 1 && nDay <= 31 );

  000da	8b 55 b8	 mov	 edx, DWORD PTR _nDay$1$[ebp]
  000dd	8d 42 ff	 lea	 eax, DWORD PTR [edx-1]
  000e0	83 f8 1e	 cmp	 eax, 30			; 0000001eH
  000e3	77 5c		 ja	 SHORT $LN62@GetStrTime

; 439  : 	ATLENSURE( nHour >= 0 && nHour <= 23 );

  000e5	83 fb 17	 cmp	 ebx, 23			; 00000017H
  000e8	77 57		 ja	 SHORT $LN62@GetStrTime

; 440  : 	ATLENSURE( nMin >= 0 && nMin <= 59 );

  000ea	83 fe 3b	 cmp	 esi, 59			; 0000003bH
  000ed	77 52		 ja	 SHORT $LN62@GetStrTime

; 441  : 	ATLENSURE( nSec >= 0 && nSec <= 59 );
; 442  : 
; 443  : #pragma warning (pop)
; 444  : 
; 445  : 	struct tm atm;
; 446  : 
; 447  : 	atm.tm_sec = nSec;
; 448  : 	atm.tm_min = nMin;
; 449  : 	atm.tm_hour = nHour;
; 450  : 	atm.tm_mday = nDay;
; 451  : 	atm.tm_mon = nMonth - 1;        // tm_mon is 0 based
; 452  : 	atm.tm_year = nYear - 1900;     // tm_year is 1900 based

  000ef	8b 45 b4	 mov	 eax, DWORD PTR _nYear$1$[ebp]
  000f2	05 94 f8 ff ff	 add	 eax, -1900		; fffff894H
  000f7	c7 45 d0 00 00
	00 00		 mov	 DWORD PTR _atm$1[ebp], 0
  000fe	89 45 e4	 mov	 DWORD PTR _atm$1[ebp+20], eax

; 453  : 	atm.tm_isdst = nDST;
; 454  : 
; 455  : 	m_time = _mktime64(&atm);

  00101	8d 45 d0	 lea	 eax, DWORD PTR _atm$1[ebp]
  00104	50		 push	 eax
  00105	89 75 d4	 mov	 DWORD PTR _atm$1[ebp+4], esi
  00108	89 5d d8	 mov	 DWORD PTR _atm$1[ebp+8], ebx
  0010b	89 55 dc	 mov	 DWORD PTR _atm$1[ebp+12], edx
  0010e	89 4d e0	 mov	 DWORD PTR _atm$1[ebp+16], ecx
  00111	c7 45 f0 ff ff
	ff ff		 mov	 DWORD PTR _atm$1[ebp+32], -1
  00118	e8 00 00 00 00	 call	 __mktime64

; 456  : 	ATLASSUME(m_time != -1);       // indicates an illegal input time
; 457  : 	if(m_time == -1)

  0011d	8b c8		 mov	 ecx, eax
  0011f	83 c4 04	 add	 esp, 4
  00122	23 ca		 and	 ecx, edx
  00124	83 f9 ff	 cmp	 ecx, -1
  00127	74 22		 je	 SHORT $LN75@GetStrTime
; File C:\IAGOS\server\v18\Source\Source\_Database\DbManagerFun.cpp

; 74   : 	*time = Timebuf;

  00129	8b 4d fc	 mov	 ecx, DWORD PTR __$ArrayPad$[ebp]
  0012c	89 07		 mov	 DWORD PTR [edi], eax

; 75   : }

  0012e	33 cd		 xor	 ecx, ebp
  00130	89 57 04	 mov	 DWORD PTR [edi+4], edx
  00133	5f		 pop	 edi
  00134	5e		 pop	 esi
  00135	5b		 pop	 ebx
  00136	e8 00 00 00 00	 call	 @__security_check_cookie@4
  0013b	8b e5		 mov	 esp, ebp
  0013d	5d		 pop	 ebp
  0013e	c2 08 00	 ret	 8
$LN62@GetStrTime:
; File C:\Program Files\Microsoft Visual Studio\2022\Professional\VC\Tools\MSVC\14.44.35207\atlmfc\include\atltime.h

; 440  : 	ATLENSURE( nMin >= 0 && nMin <= 59 );

  00141	68 05 40 00 80	 push	 -2147467259		; 80004005H
  00146	e8 00 00 00 00	 call	 ?AtlThrowImpl@ATL@@YGXJ@Z ; ATL::AtlThrowImpl
$LN75@GetStrTime:

; 458  : 	{
; 459  : 		AtlThrow(E_INVALIDARG);

  0014b	68 57 00 07 80	 push	 -2147024809		; 80070057H
  00150	e8 00 00 00 00	 call	 ?AtlThrowImpl@ATL@@YGXJ@Z ; ATL::AtlThrowImpl
$LN73@GetStrTime:
  00155	cc		 int	 3
?GetStrTime@CDbManager@@AAEXPAVCTime@ATL@@PBD@Z ENDP	; CDbManager::GetStrTime
_TEXT	ENDS
; Function compile flags: /Ogtp
; File C:\IAGOS\server\v18\Source\Source\_Database\DbManagerFun.cpp
;	COMDAT ?NormalizePlayerData@CDbManager@@AAEHPAVCMover@@@Z
_TEXT	SEGMENT
tv805 = -140						; size = 4
_nNumberofIndex$1$ = -136				; size = 4
_pMover$GSCopy$1$ = -132				; size = 4
_adwEquipment$ = -128					; size = 124
__$ArrayPad$ = -4					; size = 4
_pMover$ = 8						; size = 4
?NormalizePlayerData@CDbManager@@AAEHPAVCMover@@@Z PROC	; CDbManager::NormalizePlayerData, COMDAT
; _this$ = ecx

; 1769 : {

  00000	55		 push	 ebp
  00001	8b ec		 mov	 ebp, esp
  00003	81 ec 8c 00 00
	00		 sub	 esp, 140		; 0000008cH
  00009	a1 00 00 00 00	 mov	 eax, DWORD PTR ___security_cookie
  0000e	33 c5		 xor	 eax, ebp
  00010	89 45 fc	 mov	 DWORD PTR __$ArrayPad$[ebp], eax
  00013	53		 push	 ebx
  00014	8b 5d 08	 mov	 ebx, DWORD PTR _pMover$[ebp]

; 1770 : 	int nMax	= pMover->m_Inventory.m_dwItemMax;
; 1771 : 	int nNumberofIndex	= pMover->m_Inventory.m_dwIndexNum;
; 1772 : 	DWORD dwId;
; 1773 : 	for( int i = 0; i < nMax; i++ )

  00017	33 d2		 xor	 edx, edx
  00019	56		 push	 esi
  0001a	57		 push	 edi
  0001b	89 9d 7c ff ff
	ff		 mov	 DWORD PTR _pMover$GSCopy$1$[ebp], ebx
  00021	8b b3 c4 3b 00
	00		 mov	 esi, DWORD PTR [ebx+15300]
  00027	8b bb bc 3b 00
	00		 mov	 edi, DWORD PTR [ebx+15292]
  0002d	89 bd 78 ff ff
	ff		 mov	 DWORD PTR _nNumberofIndex$1$[ebp], edi
  00033	85 f6		 test	 esi, esi
  00035	0f 8e f4 00 00
	00		 jle	 $LN12@NormalizeP
  0003b	0f 1f 44 00 00	 npad	 5
$LL4@NormalizeP:

; 1774 : 	{
; 1775 : 		dwId	= pMover->m_Inventory.m_apIndex[i];

  00040	8b 83 b8 3b 00
	00		 mov	 eax, DWORD PTR [ebx+15288]
  00046	8d 3c 90	 lea	 edi, DWORD PTR [eax+edx*4]
  00049	8b 07		 mov	 eax, DWORD PTR [edi]

; 1776 : 		if( dwId != NULL_ID )

  0004b	83 f8 ff	 cmp	 eax, -1
  0004e	0f 84 8c 00 00
	00		 je	 $LN2@NormalizeP

; 1777 : 		{
; 1778 : 			if( pMover->m_Inventory.m_apItem[dwId].m_dwObjIndex != i )

  00054	8b 8b c0 3b 00
	00		 mov	 ecx, DWORD PTR [ebx+15296]
  0005a	69 c0 98 00 00
	00		 imul	 eax, eax, 152
  00060	39 54 08 2c	 cmp	 DWORD PTR [eax+ecx+44], edx
  00064	74 7a		 je	 SHORT $LN2@NormalizeP

; 1779 : 			{
; 1780 : 
; 1781 : 				DWORD dwIndex	= NULL_ID;
; 1782 : 				for( int j = 0; j < nMax; j++ )

  00066	33 c0		 xor	 eax, eax

; 1783 : 				{	
; 1784 : 					if( pMover->m_Inventory.m_apItem[j].m_dwObjIndex == i )

  00068	83 c1 2c	 add	 ecx, 44			; 0000002cH
  0006b	0f 1f 44 00 00	 npad	 5
$LL7@NormalizeP:
  00070	39 11		 cmp	 DWORD PTR [ecx], edx
  00072	74 6a		 je	 SHORT $LN40@NormalizeP

; 1779 : 			{
; 1780 : 
; 1781 : 				DWORD dwIndex	= NULL_ID;
; 1782 : 				for( int j = 0; j < nMax; j++ )

  00074	40		 inc	 eax
  00075	81 c1 98 00 00
	00		 add	 ecx, 152		; 00000098H
  0007b	3b c6		 cmp	 eax, esi
  0007d	7c f1		 jl	 SHORT $LL7@NormalizeP

; 1793 : 				}
; 1794 : 				else
; 1795 : 				{
; 1796 : 					if( i >= nNumberofIndex )

  0007f	3b 95 78 ff ff
	ff		 cmp	 edx, DWORD PTR _nNumberofIndex$1$[ebp]
  00085	7c 08		 jl	 SHORT $LN25@NormalizeP

; 1797 : 					{
; 1798 : 						pMover->m_Inventory.m_apIndex[i]	= NULL_ID;

  00087	c7 07 ff ff ff
	ff		 mov	 DWORD PTR [edi], -1

; 1799 : 					}

  0008d	eb 51		 jmp	 SHORT $LN2@NormalizeP
$LN25@NormalizeP:

; 1800 : 					else
; 1801 : 					{
; 1802 : 						int j = NULL;

  0008f	8b bb c0 3b 00
	00		 mov	 edi, DWORD PTR [ebx+15296]
  00095	33 c0		 xor	 eax, eax
  00097	8d 4f 2c	 lea	 ecx, DWORD PTR [edi+44]
  0009a	66 0f 1f 44 00
	00		 npad	 6
$LL10@NormalizeP:

; 1804 : 						{
; 1805 : 							if( pMover->m_Inventory.m_apItem[j].m_dwObjIndex == NULL_ID )

  000a0	83 39 ff	 cmp	 DWORD PTR [ecx], -1
  000a3	74 0d		 je	 SHORT $LN41@NormalizeP

; 1803 : 						for( ; j < nMax; j++ )

  000a5	40		 inc	 eax
  000a6	81 c1 98 00 00
	00		 add	 ecx, 152		; 00000098H
  000ac	3b c6		 cmp	 eax, esi
  000ae	7c f0		 jl	 SHORT $LL10@NormalizeP

; 1809 : 								break;
; 1810 : 							}
; 1811 : 						}
; 1812 : 						if( j == nMax ) {

  000b0	eb 13		 jmp	 SHORT $LN9@NormalizeP
$LN41@NormalizeP:

; 1806 : 							{
; 1807 : 								pMover->m_Inventory.m_apItem[j].m_dwObjIndex	= i;

  000b2	69 c8 98 00 00
	00		 imul	 ecx, eax, 152
  000b8	89 54 39 2c	 mov	 DWORD PTR [ecx+edi+44], edx

; 1808 : 								pMover->m_Inventory.m_apIndex[i]	= j;

  000bc	8b 8b b8 3b 00
	00		 mov	 ecx, DWORD PTR [ebx+15288]
  000c2	89 04 91	 mov	 DWORD PTR [ecx+edx*4], eax
$LN9@NormalizeP:

; 1809 : 								break;
; 1810 : 							}
; 1811 : 						}
; 1812 : 						if( j == nMax ) {

  000c5	3b c6		 cmp	 eax, esi
  000c7	75 17		 jne	 SHORT $LN2@NormalizeP

; 1845 : 	}
; 1846 : 	return TRUE;
; 1847 : }

  000c9	5f		 pop	 edi
  000ca	5e		 pop	 esi
  000cb	33 c0		 xor	 eax, eax
  000cd	5b		 pop	 ebx
  000ce	8b 4d fc	 mov	 ecx, DWORD PTR __$ArrayPad$[ebp]
  000d1	33 cd		 xor	 ecx, ebp
  000d3	e8 00 00 00 00	 call	 @__security_check_cookie@4
  000d8	8b e5		 mov	 esp, ebp
  000da	5d		 pop	 ebp
  000db	c2 04 00	 ret	 4
$LN40@NormalizeP:

; 1785 : 					{
; 1786 : 						dwIndex	= j;
; 1787 : 						break;
; 1788 : 					}
; 1789 : 				}
; 1790 : 				if( dwIndex != NULL_ID )
; 1791 : 				{
; 1792 : 					pMover->m_Inventory.m_apIndex[i]	= dwIndex;

  000de	89 07		 mov	 DWORD PTR [edi], eax
$LN2@NormalizeP:

; 1770 : 	int nMax	= pMover->m_Inventory.m_dwItemMax;
; 1771 : 	int nNumberofIndex	= pMover->m_Inventory.m_dwIndexNum;
; 1772 : 	DWORD dwId;
; 1773 : 	for( int i = 0; i < nMax; i++ )

  000e0	42		 inc	 edx
  000e1	3b d6		 cmp	 edx, esi
  000e3	0f 8c 57 ff ff
	ff		 jl	 $LL4@NormalizeP

; 1813 : 							ASSERT( 0 );
; 1814 : 							return FALSE;
; 1815 : 						}
; 1816 : 					}
; 1817 : 				}
; 1818 : 			}
; 1819 : 		}
; 1820 : 	}
; 1821 : 
; 1822 : 	DWORD dwObjIndex;
; 1823 : 	for( int i = 0; i < nMax; i++ )

  000e9	33 c9		 xor	 ecx, ecx
  000eb	33 d2		 xor	 edx, edx
  000ed	0f 1f 00	 npad	 3
$LL13@NormalizeP:

; 1824 : 	{
; 1825 : 		dwObjIndex	= pMover->m_Inventory.m_apItem[i].m_dwObjIndex;

  000f0	8b bb c0 3b 00
	00		 mov	 edi, DWORD PTR [ebx+15296]
  000f6	8b 5c 17 2c	 mov	 ebx, DWORD PTR [edi+edx+44]

; 1826 : 		if( dwObjIndex != NULL_ID )

  000fa	83 fb ff	 cmp	 ebx, -1
  000fd	74 19		 je	 SHORT $LN11@NormalizeP

; 1827 : 		{
; 1828 : 			if( pMover->m_Inventory.m_apIndex[dwObjIndex] != i )

  000ff	8b 85 7c ff ff
	ff		 mov	 eax, DWORD PTR _pMover$GSCopy$1$[ebp]
  00105	8b 80 b8 3b 00
	00		 mov	 eax, DWORD PTR [eax+15288]
  0010b	39 0c 98	 cmp	 DWORD PTR [eax+ebx*4], ecx
  0010e	74 08		 je	 SHORT $LN11@NormalizeP

; 1829 : 				pMover->m_Inventory.m_apItem[i].m_dwObjIndex	= NULL_ID;

  00110	c7 44 17 2c ff
	ff ff ff	 mov	 DWORD PTR [edi+edx+44], -1
$LN11@NormalizeP:

; 1813 : 							ASSERT( 0 );
; 1814 : 							return FALSE;
; 1815 : 						}
; 1816 : 					}
; 1817 : 				}
; 1818 : 			}
; 1819 : 		}
; 1820 : 	}
; 1821 : 
; 1822 : 	DWORD dwObjIndex;
; 1823 : 	for( int i = 0; i < nMax; i++ )

  00118	8b 9d 7c ff ff
	ff		 mov	 ebx, DWORD PTR _pMover$GSCopy$1$[ebp]
  0011e	41		 inc	 ecx
  0011f	81 c2 98 00 00
	00		 add	 edx, 152		; 00000098H
  00125	3b ce		 cmp	 ecx, esi
  00127	7c c7		 jl	 SHORT $LL13@NormalizeP
  00129	8b bd 78 ff ff
	ff		 mov	 edi, DWORD PTR _nNumberofIndex$1$[ebp]
$LN12@NormalizeP:

; 1830 : 		}
; 1831 : 	}
; 1832 : 
; 1833 : 	DWORD adwEquipment[MAX_HUMAN_PARTS];
; 1834 : 	memset( adwEquipment, 0xff, sizeof(DWORD) * MAX_HUMAN_PARTS );

  0012f	6a 7c		 push	 124			; 0000007cH
  00131	8d 45 80	 lea	 eax, DWORD PTR _adwEquipment$[ebp]
  00134	68 ff 00 00 00	 push	 255			; 000000ffH
  00139	50		 push	 eax
  0013a	e8 00 00 00 00	 call	 _memset
  0013f	83 c4 0c	 add	 esp, 12			; 0000000cH

; 1835 : 	for( int i = nNumberofIndex; i < nMax; i++ )

  00142	3b fe		 cmp	 edi, esi
  00144	7d 22		 jge	 SHORT $LN15@NormalizeP

; 1836 : 	{
; 1837 : 		dwId	= pMover->m_Inventory.m_apIndex[i];

  00146	8b 83 b8 3b 00
	00		 mov	 eax, DWORD PTR [ebx+15288]
  0014c	8d 4d 80	 lea	 ecx, DWORD PTR _adwEquipment$[ebp]
  0014f	2b f7		 sub	 esi, edi
  00151	8d 04 b8	 lea	 eax, DWORD PTR [eax+edi*4]
$LL50@NormalizeP:
  00154	8b 10		 mov	 edx, DWORD PTR [eax]

; 1838 : 		if( dwId != NULL_ID )

  00156	83 fa ff	 cmp	 edx, -1
  00159	74 02		 je	 SHORT $LN51@NormalizeP

; 1839 : 			adwEquipment[i - nNumberofIndex]	= dwId;

  0015b	89 11		 mov	 DWORD PTR [ecx], edx
$LN51@NormalizeP:

; 1835 : 	for( int i = nNumberofIndex; i < nMax; i++ )

  0015d	83 c0 04	 add	 eax, 4
  00160	83 c1 04	 add	 ecx, 4
  00163	83 ee 01	 sub	 esi, 1
  00166	75 ec		 jne	 SHORT $LL50@NormalizeP
$LN15@NormalizeP:

; 1840 : 	}
; 1841 : 	for( int i = 0; i < MAX_HUMAN_PARTS; i++ )

  00168	33 c0		 xor	 eax, eax
  0016a	8d 8b 70 3f 00
	00		 lea	 ecx, DWORD PTR [ebx+16240]
$LL19@NormalizeP:

; 1842 : 	{
; 1843 : 		if( pMover->m_aEquipInfo[i].dwId != adwEquipment[i] )

  00170	8b 54 85 80	 mov	 edx, DWORD PTR _adwEquipment$[ebp+eax*4]
  00174	39 11		 cmp	 DWORD PTR [ecx], edx
  00176	74 02		 je	 SHORT $LN17@NormalizeP

; 1844 : 			pMover->m_aEquipInfo[i].dwId	= adwEquipment[i];			

  00178	89 11		 mov	 DWORD PTR [ecx], edx
$LN17@NormalizeP:

; 1840 : 	}
; 1841 : 	for( int i = 0; i < MAX_HUMAN_PARTS; i++ )

  0017a	40		 inc	 eax
  0017b	83 c1 0c	 add	 ecx, 12			; 0000000cH
  0017e	83 f8 1f	 cmp	 eax, 31			; 0000001fH
  00181	7c ed		 jl	 SHORT $LL19@NormalizeP

; 1845 : 	}
; 1846 : 	return TRUE;
; 1847 : }

  00183	8b 4d fc	 mov	 ecx, DWORD PTR __$ArrayPad$[ebp]
  00186	b8 01 00 00 00	 mov	 eax, 1
  0018b	5f		 pop	 edi
  0018c	5e		 pop	 esi
  0018d	33 cd		 xor	 ecx, ebp
  0018f	5b		 pop	 ebx
  00190	e8 00 00 00 00	 call	 @__security_check_cookie@4
  00195	8b e5		 mov	 esp, ebp
  00197	5d		 pop	 ebp
  00198	c2 04 00	 ret	 4
?NormalizePlayerData@CDbManager@@AAEHPAVCMover@@@Z ENDP	; CDbManager::NormalizePlayerData
_TEXT	ENDS
; Function compile flags: /Ogtp
; File C:\IAGOS\server\v18\Source\Source\_Database\DbManagerFun.cpp
; File C:\IAGOS\server\v18\Source\Source\_Network\Objects\Obj.h
; File C:\IAGOS\server\v18\Source\Source\_Database\DbManagerFun.cpp
; File C:\IAGOS\server\v18\Source\Source\_Common\Data.h
; File C:\IAGOS\server\v18\Source\Source\_Database\DbManagerFun.cpp
;	COMDAT ?IsAbnormalPlayerData@CDbManager@@AAEHPAVCMover@@@Z
_TEXT	SEGMENT
_adwEquipment$ = -128					; size = 124
__$ArrayPad$ = -4					; size = 4
_pMover$ = 8						; size = 4
?IsAbnormalPlayerData@CDbManager@@AAEHPAVCMover@@@Z PROC ; CDbManager::IsAbnormalPlayerData, COMDAT
; _this$ = ecx

; 1717 : {

  00000	55		 push	 ebp
  00001	8b ec		 mov	 ebp, esp
  00003	81 ec 80 00 00
	00		 sub	 esp, 128		; 00000080H
  00009	a1 00 00 00 00	 mov	 eax, DWORD PTR ___security_cookie
  0000e	33 c5		 xor	 eax, ebp
  00010	89 45 fc	 mov	 DWORD PTR __$ArrayPad$[ebp], eax
  00013	53		 push	 ebx
  00014	8b 5d 08	 mov	 ebx, DWORD PTR _pMover$[ebp]

; 1718 : 	DWORD dwId;
; 1719 : 	int nMax	= pMover->m_Inventory.m_dwItemMax;
; 1720 : 	int nNumberofIndex	= pMover->m_Inventory.m_dwIndexNum;
; 1721 : 
; 1722 : 	for( int i = 0; i < nMax; i++ )

  00017	33 d2		 xor	 edx, edx
  00019	56		 push	 esi
  0001a	57		 push	 edi
  0001b	8b b3 c4 3b 00
	00		 mov	 esi, DWORD PTR [ebx+15300]
  00021	8b bb bc 3b 00
	00		 mov	 edi, DWORD PTR [ebx+15292]
  00027	85 f6		 test	 esi, esi
  00029	0f 8e 8b 00 00
	00		 jle	 $LN43@IsAbnormal

; 1723 : 	{
; 1724 : 		dwId	= pMover->m_Inventory.m_apIndex[i];

  0002f	8b bb b8 3b 00
	00		 mov	 edi, DWORD PTR [ebx+15288]
$LL4@IsAbnormal:
  00035	8b 07		 mov	 eax, DWORD PTR [edi]

; 1725 : 		if( dwId != NULL_ID )

  00037	83 f8 ff	 cmp	 eax, -1
  0003a	74 16		 je	 SHORT $LN2@IsAbnormal

; 1726 : 		{
; 1727 : 			if( pMover->m_Inventory.m_apItem[dwId].m_dwObjIndex != i )

  0003c	69 c8 98 00 00
	00		 imul	 ecx, eax, 152
  00042	8b 83 c0 3b 00
	00		 mov	 eax, DWORD PTR [ebx+15296]
  00048	39 54 01 2c	 cmp	 DWORD PTR [ecx+eax+44], edx
  0004c	0f 85 d4 00 00
	00		 jne	 $LN37@IsAbnormal
$LN2@IsAbnormal:

; 1718 : 	DWORD dwId;
; 1719 : 	int nMax	= pMover->m_Inventory.m_dwItemMax;
; 1720 : 	int nNumberofIndex	= pMover->m_Inventory.m_dwIndexNum;
; 1721 : 
; 1722 : 	for( int i = 0; i < nMax; i++ )

  00052	42		 inc	 edx
  00053	83 c7 04	 add	 edi, 4
  00056	3b d6		 cmp	 edx, esi
  00058	7c db		 jl	 SHORT $LL4@IsAbnormal

; 1734 : 	{
; 1735 : 		dwObjIndex	= pMover->m_Inventory.m_apItem[i].m_dwObjIndex;

  0005a	8b 8b c0 3b 00
	00		 mov	 ecx, DWORD PTR [ebx+15296]
  00060	33 d2		 xor	 edx, edx
  00062	83 c1 08	 add	 ecx, 8
$LL7@IsAbnormal:
  00065	8b 79 24	 mov	 edi, DWORD PTR [ecx+36]

; 1736 : 		if( dwObjIndex != NULL_ID )

  00068	83 ff ff	 cmp	 edi, -1
  0006b	74 0f		 je	 SHORT $LN59@IsAbnormal

; 1737 : 		{
; 1738 : 			if( pMover->m_Inventory.m_apIndex[dwObjIndex] != i )

  0006d	8b 83 b8 3b 00
	00		 mov	 eax, DWORD PTR [ebx+15288]
  00073	39 14 b8	 cmp	 DWORD PTR [eax+edi*4], edx
  00076	0f 85 aa 00 00
	00		 jne	 $LN37@IsAbnormal
$LN59@IsAbnormal:
; File C:\IAGOS\server\v18\Source\Source\_Network\Objects\Obj.h

; 131  : 	BOOL	IsEmpty()	{	return m_dwItemId ? FALSE : TRUE;	}

  0007c	8b 01		 mov	 eax, DWORD PTR [ecx]
  0007e	85 c0		 test	 eax, eax
; File C:\IAGOS\server\v18\Source\Source\_Database\DbManagerFun.cpp

; 1741 : 		if( FALSE == pMover->m_Inventory.m_apItem[i].IsEmpty() )

  00080	74 27		 je	 SHORT $LN5@IsAbnormal
; File C:\IAGOS\server\v18\Source\Source\_Common\Data.h

; 270  : 	if( dwIndex >= (DWORD)m_nMaxIndex )

  00082	3b 05 4c 00 00
	00		 cmp	 eax, DWORD PTR ?prj@@3VCProject@@A+76
  00088	0f 83 98 00 00
	00		 jae	 $LN37@IsAbnormal

; 271  : 		return NULL;
; 272  : 	return (T*) m_apOffset[ dwIndex ];

  0008e	8b 3d 3c 00 00
	00		 mov	 edi, DWORD PTR ?prj@@3VCProject@@A+60
  00094	8b 04 87	 mov	 eax, DWORD PTR [edi+eax*4]
; File C:\IAGOS\server\v18\Source\Source\_Database\DbManagerFun.cpp

; 1746 : 				|| pItemProp->dwItemKind3 == IK3_VIRTUAL/*It is monster's virtual weapon*/ )

  00097	85 c0		 test	 eax, eax
  00099	0f 84 87 00 00
	00		 je	 $LN37@IsAbnormal
  0009f	83 78 78 0a	 cmp	 DWORD PTR [eax+120], 10	; 0000000aH
  000a3	0f 84 7d 00 00
	00		 je	 $LN37@IsAbnormal
$LN5@IsAbnormal:

; 1728 : 				return TRUE;
; 1729 : 		}
; 1730 : 	}
; 1731 : 
; 1732 : 	DWORD dwObjIndex;
; 1733 : 	for( int i = 0; i < nMax; i++ )

  000a9	42		 inc	 edx
  000aa	81 c1 98 00 00
	00		 add	 ecx, 152		; 00000098H
  000b0	3b d6		 cmp	 edx, esi
  000b2	7c b1		 jl	 SHORT $LL7@IsAbnormal
  000b4	8b bb bc 3b 00
	00		 mov	 edi, DWORD PTR [ebx+15292]
$LN43@IsAbnormal:

; 1747 : 				return TRUE;
; 1748 : 		}
; 1749 : 	}
; 1750 : 
; 1751 : 	DWORD adwEquipment[MAX_HUMAN_PARTS];
; 1752 : 	memset( adwEquipment, 0xff, sizeof(DWORD) * MAX_HUMAN_PARTS );

  000ba	6a 7c		 push	 124			; 0000007cH
  000bc	8d 45 80	 lea	 eax, DWORD PTR _adwEquipment$[ebp]
  000bf	68 ff 00 00 00	 push	 255			; 000000ffH
  000c4	50		 push	 eax
  000c5	e8 00 00 00 00	 call	 _memset
  000ca	83 c4 0c	 add	 esp, 12			; 0000000cH

; 1753 : 	for( int i = nNumberofIndex; i < nMax; i++ )

  000cd	3b fe		 cmp	 edi, esi
  000cf	7d 23		 jge	 SHORT $LN9@IsAbnormal

; 1754 : 	{
; 1755 : 		dwId	= pMover->m_Inventory.m_apIndex[i];

  000d1	8b 83 b8 3b 00
	00		 mov	 eax, DWORD PTR [ebx+15288]
  000d7	8d 4d 80	 lea	 ecx, DWORD PTR _adwEquipment$[ebp]
  000da	2b f7		 sub	 esi, edi
  000dc	8d 04 b8	 lea	 eax, DWORD PTR [eax+edi*4]
  000df	90		 npad	 1
$LL44@IsAbnormal:
  000e0	8b 10		 mov	 edx, DWORD PTR [eax]

; 1756 : 		if( dwId != NULL_ID )

  000e2	83 fa ff	 cmp	 edx, -1
  000e5	74 02		 je	 SHORT $LN45@IsAbnormal

; 1757 : 			adwEquipment[i - nNumberofIndex]	= dwId;

  000e7	89 11		 mov	 DWORD PTR [ecx], edx
$LN45@IsAbnormal:

; 1753 : 	for( int i = nNumberofIndex; i < nMax; i++ )

  000e9	83 c0 04	 add	 eax, 4
  000ec	83 c1 04	 add	 ecx, 4
  000ef	83 ee 01	 sub	 esi, 1
  000f2	75 ec		 jne	 SHORT $LL44@IsAbnormal
$LN9@IsAbnormal:

; 1758 : 	}
; 1759 : 	for( int i = 0; i < MAX_HUMAN_PARTS; i++ )

  000f4	33 c9		 xor	 ecx, ecx
  000f6	8d 93 70 3f 00
	00		 lea	 edx, DWORD PTR [ebx+16240]
  000fc	0f 1f 40 00	 npad	 4
$LL13@IsAbnormal:

; 1760 : 	{
; 1761 : 		if( adwEquipment[i] != pMover->m_aEquipInfo[i].dwId )

  00100	8b 44 8d 80	 mov	 eax, DWORD PTR _adwEquipment$[ebp+ecx*4]
  00104	3b 02		 cmp	 eax, DWORD PTR [edx]
  00106	75 1e		 jne	 SHORT $LN37@IsAbnormal

; 1758 : 	}
; 1759 : 	for( int i = 0; i < MAX_HUMAN_PARTS; i++ )

  00108	41		 inc	 ecx
  00109	83 c2 0c	 add	 edx, 12			; 0000000cH
  0010c	83 f9 1f	 cmp	 ecx, 31			; 0000001fH
  0010f	7c ef		 jl	 SHORT $LL13@IsAbnormal

; 1762 : 			return TRUE;
; 1763 : 	}
; 1764 : 
; 1765 : 	return FALSE;
; 1766 : }

  00111	5f		 pop	 edi
  00112	5e		 pop	 esi
  00113	33 c0		 xor	 eax, eax
  00115	5b		 pop	 ebx
  00116	8b 4d fc	 mov	 ecx, DWORD PTR __$ArrayPad$[ebp]
  00119	33 cd		 xor	 ecx, ebp
  0011b	e8 00 00 00 00	 call	 @__security_check_cookie@4
  00120	8b e5		 mov	 esp, ebp
  00122	5d		 pop	 ebp
  00123	c2 04 00	 ret	 4
$LN37@IsAbnormal:
  00126	8b 4d fc	 mov	 ecx, DWORD PTR __$ArrayPad$[ebp]
  00129	b8 01 00 00 00	 mov	 eax, 1
  0012e	5f		 pop	 edi
  0012f	5e		 pop	 esi
  00130	33 cd		 xor	 ecx, ebp
  00132	5b		 pop	 ebx
  00133	e8 00 00 00 00	 call	 @__security_check_cookie@4
  00138	8b e5		 mov	 esp, ebp
  0013a	5d		 pop	 ebp
  0013b	c2 04 00	 ret	 4
?IsAbnormalPlayerData@CDbManager@@AAEHPAVCMover@@@Z ENDP ; CDbManager::IsAbnormalPlayerData
_TEXT	ENDS
; Function compile flags: /Ogtp
; File C:\IAGOS\server\v18\Source\Source\_Database\DbManagerFun.cpp
; File C:\IAGOS\server\v18\Source\Source\_network\CmnHdr.h
; File C:\IAGOS\server\v18\Source\Source\_Database\DbManagerFun.cpp
; File C:\IAGOS\server\v18\Source\Source\_network\CmnHdr.h
; File C:\IAGOS\server\v18\Source\Source\_Database\DbManagerFun.cpp
; File C:\IAGOS\server\v18\Source\Source\_network\CmnHdr.h
; File C:\IAGOS\server\v18\Source\Source\_Database\DbManagerFun.cpp
; File C:\IAGOS\server\v18\Source\Source\_network\CmnHdr.h
; File C:\IAGOS\server\v18\Source\Source\_Database\DbManagerFun.cpp
; File C:\IAGOS\server\v18\Source\Source\_network\CmnHdr.h
; File C:\IAGOS\server\v18\Source\Source\_Database\DbManagerFun.cpp
; File C:\IAGOS\server\v18\Source\Source\_network\CmnHdr.h
; File C:\IAGOS\server\v18\Source\Source\_Database\DbManagerFun.cpp
; File C:\IAGOS\server\v18\Source\Source\_network\CmnHdr.h
; File C:\IAGOS\server\v18\Source\Source\_Database\DbManagerFun.cpp
; File C:\IAGOS\server\v18\Source\Source\_network\CmnHdr.h
; File C:\IAGOS\server\v18\Source\Source\_Database\DbManagerFun.cpp
; File C:\IAGOS\server\v18\Source\Source\_network\CmnHdr.h
; File C:\IAGOS\server\v18\Source\Source\_Database\DbManagerFun.cpp
; File C:\IAGOS\server\v18\Source\Source\_network\CmnHdr.h
; File C:\IAGOS\server\v18\Source\Source\_Database\DbManagerFun.cpp
; File C:\IAGOS\server\v18\Source\Source\_network\CmnHdr.h
; File C:\IAGOS\server\v18\Source\Source\_Database\DbManagerFun.cpp
; File C:\IAGOS\server\v18\Source\Source\_network\CmnHdr.h
; File C:\IAGOS\server\v18\Source\Source\_Database\DbManagerFun.cpp
; File C:\IAGOS\server\v18\Source\Source\_network\CmnHdr.h
; File C:\IAGOS\server\v18\Source\Source\_Database\DbManagerFun.cpp
; File C:\IAGOS\server\v18\Source\Source\_network\CmnHdr.h
; File C:\IAGOS\server\v18\Source\Source\_Database\DbManagerFun.cpp
; File C:\IAGOS\server\v18\Source\Source\_network\CmnHdr.h
; File C:\IAGOS\server\v18\Source\Source\_Database\DbManagerFun.cpp
; File C:\IAGOS\server\v18\Source\Source\_network\CmnHdr.h
; File C:\IAGOS\server\v18\Source\Source\_Database\DbManagerFun.cpp
; File C:\IAGOS\server\v18\Source\Source\_network\CmnHdr.h
; File C:\IAGOS\server\v18\Source\Source\_Database\DbManagerFun.cpp
; File C:\IAGOS\server\v18\Source\Source\_network\CmnHdr.h
; File C:\IAGOS\server\v18\Source\Source\_Database\DbManagerFun.cpp
; File C:\IAGOS\server\v18\Source\Source\_network\CmnHdr.h
; File C:\IAGOS\server\v18\Source\Source\_Database\DbManagerFun.cpp
; File C:\IAGOS\server\v18\Source\Source\_network\CmnHdr.h
; File C:\IAGOS\server\v18\Source\Source\_Database\DbManagerFun.cpp
; File C:\IAGOS\server\v18\Source\Source\_network\CmnHdr.h
; File C:\IAGOS\server\v18\Source\Source\_Database\DbManagerFun.cpp
; File C:\IAGOS\server\v18\Source\Source\_network\CmnHdr.h
; File C:\IAGOS\server\v18\Source\Source\_Database\DbManagerFun.cpp
; File C:\IAGOS\server\v18\Source\Source\_network\CmnHdr.h
; File C:\IAGOS\server\v18\Source\Source\_Database\DbManagerFun.cpp
;	COMDAT ?GetGuildBank@CDbManager@@QAEXPAV?$CItemContainer@VCItemElem@@@@PAVCQuery@@@Z
_TEXT	SEGMENT
_iRandomOptItemId$2 = -18072				; size = 8
$T3 = -18068						; size = 4
_this$GSCopy$1$ = -18064				; size = 4
$T4 = -18060						; size = 4
$T5 = -18060						; size = 4
$T6 = -18060						; size = 4
tv1915 = -18056						; size = 4
_qry$GSCopy$1$ = -18056					; size = 4
_GuildBank$GSCopy$1$ = -18052				; size = 4
_CountStr$ = -18048					; size = 4
$T7 = -18048						; size = 4
_BufItemElem$8 = -18044					; size = 152
_Bank$ = -17892						; size = 7500
_PirecingBank$ = -10392					; size = 4000
_szPet$ = -6392						; size = 4200
_ExtBank$ = -2192					; size = 2000
_strTemp$9 = -192					; size = 50
_strTemp$10 = -192					; size = 50
_szName$11 = -140					; size = 17
_strTemp$12 = -120					; size = 50
_strTemp$13 = -120					; size = 50
_strTemp$14 = -120					; size = 50
_strTemp$15 = -120					; size = 50
_strTemp$16 = -68					; size = 50
_strTemp$17 = -68					; size = 50
_strTemp$18 = -68					; size = 50
_strTemp$19 = -68					; size = 50
_strTemp$20 = -68					; size = 50
_szFmt$21 = -52						; size = 33
__$ArrayPad$ = -16					; size = 4
__$EHRec$ = -12						; size = 12
_GuildBank$ = 8						; size = 4
_qry$ = 12						; size = 4
?GetGuildBank@CDbManager@@QAEXPAV?$CItemContainer@VCItemElem@@@@PAVCQuery@@@Z PROC ; CDbManager::GetGuildBank, COMDAT
; _this$ = ecx

; 472  : {

  00000	55		 push	 ebp
  00001	8b ec		 mov	 ebp, esp
  00003	6a ff		 push	 -1
  00005	68 00 00 00 00	 push	 __ehhandler$?GetGuildBank@CDbManager@@QAEXPAV?$CItemContainer@VCItemElem@@@@PAVCQuery@@@Z
  0000a	64 a1 00 00 00
	00		 mov	 eax, DWORD PTR fs:0
  00010	50		 push	 eax
  00011	b8 8c 46 00 00	 mov	 eax, 18060		; 0000468cH
  00016	e8 00 00 00 00	 call	 __chkstk
  0001b	a1 00 00 00 00	 mov	 eax, DWORD PTR ___security_cookie
  00020	33 c5		 xor	 eax, ebp
  00022	89 45 f0	 mov	 DWORD PTR __$ArrayPad$[ebp], eax
  00025	56		 push	 esi
  00026	57		 push	 edi
  00027	50		 push	 eax
  00028	8d 45 f4	 lea	 eax, DWORD PTR __$EHRec$[ebp]
  0002b	64 a3 00 00 00
	00		 mov	 DWORD PTR fs:0, eax
  00031	89 8d 70 b9 ff
	ff		 mov	 DWORD PTR _this$GSCopy$1$[ebp], ecx
  00037	8b 75 08	 mov	 esi, DWORD PTR _GuildBank$[ebp]

; 473  : 	int CountStr		= 0;
; 474  : 	int IndexItem		= 0;
; 475  : 	char	Bank[7500]		= { 0, };

  0003a	8d 85 1c ba ff
	ff		 lea	 eax, DWORD PTR _Bank$[ebp]
  00040	8b 7d 0c	 mov	 edi, DWORD PTR _qry$[ebp]
  00043	68 4c 1d 00 00	 push	 7500			; 00001d4cH
  00048	6a 00		 push	 0
  0004a	50		 push	 eax
  0004b	89 b5 7c b9 ff
	ff		 mov	 DWORD PTR _GuildBank$GSCopy$1$[ebp], esi
  00051	89 bd 78 b9 ff
	ff		 mov	 DWORD PTR _qry$GSCopy$1$[ebp], edi
  00057	c7 85 80 b9 ff
	ff 00 00 00 00	 mov	 DWORD PTR _CountStr$[ebp], 0
  00061	e8 00 00 00 00	 call	 _memset
  00066	83 c4 0c	 add	 esp, 12			; 0000000cH

; 476  : 	qry->GetStr( "m_GuildBank", Bank );

  00069	8d 85 1c ba ff
	ff		 lea	 eax, DWORD PTR _Bank$[ebp]
  0006f	8b cf		 mov	 ecx, edi
  00071	50		 push	 eax
  00072	68 00 00 00 00	 push	 OFFSET ??_C@_0M@GKPNPIJD@m_GuildBank@
  00077	e8 00 00 00 00	 call	 ?GetStr@CQuery@@QAEXPAD0@Z ; CQuery::GetStr

; 477  : 	while( '$' != Bank[CountStr] )

  0007c	80 bd 1c ba ff
	ff 24		 cmp	 BYTE PTR _Bank$[ebp], 36 ; 00000024H
  00083	74 77		 je	 SHORT $LN163@GetGuildBa
$LL2@GetGuildBa:

; 478  : 	{
; 479  : 		CItemElem BufItemElem;

  00085	8d 8d 84 b9 ff
	ff		 lea	 ecx, DWORD PTR _BufItemElem$8[ebp]
  0008b	e8 00 00 00 00	 call	 ??0CItemElem@@QAE@XZ	; CItemElem::CItemElem

; 480  : 		IndexItem = GetOneItem( &BufItemElem, Bank, &CountStr );

  00090	8b 8d 70 b9 ff
	ff		 mov	 ecx, DWORD PTR _this$GSCopy$1$[ebp]
  00096	8d 85 80 b9 ff
	ff		 lea	 eax, DWORD PTR _CountStr$[ebp]
  0009c	50		 push	 eax
  0009d	8d 85 1c ba ff
	ff		 lea	 eax, DWORD PTR _Bank$[ebp]
  000a3	c7 45 fc 00 00
	00 00		 mov	 DWORD PTR __$EHRec$[ebp+8], 0
  000aa	50		 push	 eax
  000ab	8d 85 84 b9 ff
	ff		 lea	 eax, DWORD PTR _BufItemElem$8[ebp]
  000b1	50		 push	 eax
  000b2	e8 00 00 00 00	 call	 ?GetOneItem@CDbManager@@QAEHPAVCItemElem@@PADPAH@Z ; CDbManager::GetOneItem

; 481  : 		if( IndexItem == -1 )

  000b7	83 f8 ff	 cmp	 eax, -1
  000ba	74 1e		 je	 SHORT $LN201@GetGuildBa

; 482  : 		{
; 483  : 			
; 484  : 		}
; 485  : 		else
; 486  : 		{
; 487  : 			if( IndexItem >= MAX_GUILDBANK )

  000bc	83 f8 2a	 cmp	 eax, 42			; 0000002aH
  000bf	0f 8d b8 03 00
	00		 jge	 $LN151@GetGuildBa

; 491  : 			}
; 492  : 			GuildBank->m_apItem[IndexItem] = BufItemElem;

  000c5	69 c8 98 00 00
	00		 imul	 ecx, eax, 152
  000cb	8d 95 84 b9 ff
	ff		 lea	 edx, DWORD PTR _BufItemElem$8[ebp]
  000d1	52		 push	 edx
  000d2	03 4e 0c	 add	 ecx, DWORD PTR [esi+12]
  000d5	8b 01		 mov	 eax, DWORD PTR [ecx]
  000d7	ff 50 10	 call	 DWORD PTR [eax+16]
$LN201@GetGuildBa:

; 493  : 		}
; 494  : 	}

  000da	8d 8d 84 b9 ff
	ff		 lea	 ecx, DWORD PTR _BufItemElem$8[ebp]
  000e0	c7 45 fc ff ff
	ff ff		 mov	 DWORD PTR __$EHRec$[ebp+8], -1
  000e7	e8 00 00 00 00	 call	 ??1CItemElem@@UAE@XZ	; CItemElem::~CItemElem
  000ec	8b 85 80 b9 ff
	ff		 mov	 eax, DWORD PTR _CountStr$[ebp]
  000f2	80 bc 05 1c ba
	ff ff 24	 cmp	 BYTE PTR _Bank$[ebp+eax], 36 ; 00000024H
  000fa	75 89		 jne	 SHORT $LL2@GetGuildBa
$LN163@GetGuildBa:

; 495  : 	CountStr	= 0;
; 496  : 	int nExtBank = 0;
; 497  : 	char ExtBank[2000] = {0,};

  000fc	68 d0 07 00 00	 push	 2000			; 000007d0H
  00101	33 f6		 xor	 esi, esi
  00103	8d 85 70 f7 ff
	ff		 lea	 eax, DWORD PTR _ExtBank$[ebp]
  00109	56		 push	 esi
  0010a	50		 push	 eax
  0010b	e8 00 00 00 00	 call	 _memset
  00110	83 c4 0c	 add	 esp, 12			; 0000000cH

; 498  : 	qry->GetStr( "m_extGuildBank", ExtBank );

  00113	8d 85 70 f7 ff
	ff		 lea	 eax, DWORD PTR _ExtBank$[ebp]
  00119	8b cf		 mov	 ecx, edi
  0011b	50		 push	 eax
  0011c	68 00 00 00 00	 push	 OFFSET ??_C@_0P@CLIOIOKN@m_extGuildBank@
  00121	e8 00 00 00 00	 call	 ?GetStr@CQuery@@QAEXPAD0@Z ; CQuery::GetStr

; 499  : 	while( '$' != ExtBank[CountStr] )

  00126	80 bd 70 f7 ff
	ff 24		 cmp	 BYTE PTR _ExtBank$[ebp], 36 ; 00000024H
  0012d	0f 84 cc 01 00
	00		 je	 $LN5@GetGuildBa
  00133	33 d2		 xor	 edx, edx
  00135	33 ff		 xor	 edi, edi
  00137	33 c0		 xor	 eax, eax
  00139	0f 1f 80 00 00
	00 00		 npad	 7
$LL4@GetGuildBa:
; File C:\IAGOS\server\v18\Source\Source\_network\CmnHdr.h

; 149  : 	while(pBuf[*pLocation]!=',' && pBuf[*pLocation]!=0)

  00140	8a 84 05 70 f7
	ff ff		 mov	 al, BYTE PTR _ExtBank$[ebp+eax]
  00147	33 c9		 xor	 ecx, ecx
  00149	3c 2c		 cmp	 al, 44			; 0000002cH
  0014b	74 2d		 je	 SHORT $LN212@GetGuildBa
  0014d	0f 1f 00	 npad	 3
$LL45@GetGuildBa:
  00150	84 c0		 test	 al, al
  00152	74 1d		 je	 SHORT $LN46@GetGuildBa

; 150  : 	{
; 151  : 		if( pBuf[*pLocation]!='/' )

  00154	3c 2f		 cmp	 al, 47			; 0000002fH
  00156	0f 84 45 03 00
	00		 je	 $LN47@GetGuildBa

; 152  : 		{
; 153  : 			strTemp[count]=pBuf[*pLocation];
; 154  : 			count++; (*pLocation)++;

  0015c	8d 72 01	 lea	 esi, DWORD PTR [edx+1]
  0015f	88 44 0d bc	 mov	 BYTE PTR _strTemp$17[ebp+ecx], al
  00163	8a 84 35 70 f7
	ff ff		 mov	 al, BYTE PTR _ExtBank$[ebp+esi]
  0016a	41		 inc	 ecx
  0016b	8b d6		 mov	 edx, esi
  0016d	3c 2c		 cmp	 al, 44			; 0000002cH
  0016f	75 df		 jne	 SHORT $LL45@GetGuildBa
$LN46@GetGuildBa:

; 166  : 			}
; 167  : 		}
; 168  : 	}
; 169  : 	strTemp[count]=0;(*pLocation)++;

  00171	83 f9 32	 cmp	 ecx, 50			; 00000032H
  00174	0f 83 00 07 00
	00		 jae	 $LN54@GetGuildBa
$LN212@GetGuildBa:
  0017a	46		 inc	 esi
$LN217@GetGuildBa:
; File C:\IAGOS\server\v18\Source\Source\_Database\DbManagerFun.cpp

; 501  : 		GuildBank->m_apItem[nExtBank].m_bCharged				= (BOOL)GetIntPaFromStr( ExtBank, &CountStr );

  0017b	8d 45 bc	 lea	 eax, DWORD PTR _strTemp$17[ebp]
  0017e	c6 44 0d bc 00	 mov	 BYTE PTR _strTemp$17[ebp+ecx], 0
  00183	50		 push	 eax
  00184	e8 00 00 00 00	 call	 _atoi
  00189	8b c8		 mov	 ecx, eax
  0018b	83 c4 04	 add	 esp, 4
$LN44@GetGuildBa:
  0018e	8b 95 7c b9 ff
	ff		 mov	 edx, DWORD PTR _GuildBank$GSCopy$1$[ebp]
  00194	8b 42 0c	 mov	 eax, DWORD PTR [edx+12]
  00197	89 4c 07 7c	 mov	 DWORD PTR [edi+eax+124], ecx

; 502  : 		if( GuildBank->m_apItem[nExtBank].m_bCharged != 1 )

  0019b	8b 42 0c	 mov	 eax, DWORD PTR [edx+12]
  0019e	83 7c 07 7c 01	 cmp	 DWORD PTR [edi+eax+124], 1
  001a3	74 08		 je	 SHORT $LN16@GetGuildBa

; 503  : 			GuildBank->m_apItem[nExtBank].m_bCharged	= 0;

  001a5	c7 44 07 7c 00
	00 00 00	 mov	 DWORD PTR [edi+eax+124], 0
$LN16@GetGuildBa:
; File C:\IAGOS\server\v18\Source\Source\_network\CmnHdr.h

; 149  : 	while(pBuf[*pLocation]!=',' && pBuf[*pLocation]!=0)

  001ad	8a 84 35 70 f7
	ff ff		 mov	 al, BYTE PTR _ExtBank$[ebp+esi]
  001b4	33 c9		 xor	 ecx, ecx
  001b6	3c 2c		 cmp	 al, 44			; 0000002cH
  001b8	74 2c		 je	 SHORT $LN211@GetGuildBa
  001ba	66 0f 1f 44 00
	00		 npad	 6
$LL57@GetGuildBa:
  001c0	84 c0		 test	 al, al
  001c2	74 19		 je	 SHORT $LN58@GetGuildBa

; 150  : 	{
; 151  : 		if( pBuf[*pLocation]!='/' )

  001c4	3c 2f		 cmp	 al, 47			; 0000002fH
  001c6	0f 84 eb 02 00
	00		 je	 $LN59@GetGuildBa

; 152  : 		{
; 153  : 			strTemp[count]=pBuf[*pLocation];
; 154  : 			count++; (*pLocation)++;

  001cc	46		 inc	 esi
  001cd	88 44 0d bc	 mov	 BYTE PTR _strTemp$18[ebp+ecx], al
  001d1	41		 inc	 ecx
  001d2	8a 84 35 70 f7
	ff ff		 mov	 al, BYTE PTR _ExtBank$[ebp+esi]
  001d9	3c 2c		 cmp	 al, 44			; 0000002cH
  001db	75 e3		 jne	 SHORT $LL57@GetGuildBa
$LN58@GetGuildBa:

; 166  : 			}
; 167  : 		}
; 168  : 	}
; 169  : 	strTemp[count]=0;(*pLocation)++;

  001dd	83 f9 32	 cmp	 ecx, 50			; 00000032H
  001e0	0f 83 94 06 00
	00		 jae	 $LN54@GetGuildBa
$LN211@GetGuildBa:
  001e6	46		 inc	 esi
$LN218@GetGuildBa:
; File C:\IAGOS\server\v18\Source\Source\_Database\DbManagerFun.cpp

; 504  : 		GuildBank->m_apItem[nExtBank].m_dwKeepTime				= (DWORD)GetIntPaFromStr( ExtBank, &CountStr );

  001e7	8d 45 bc	 lea	 eax, DWORD PTR _strTemp$18[ebp]
  001ea	c6 44 0d bc 00	 mov	 BYTE PTR _strTemp$18[ebp+ecx], 0
  001ef	50		 push	 eax
  001f0	e8 00 00 00 00	 call	 _atoi
  001f5	8b c8		 mov	 ecx, eax
  001f7	83 c4 04	 add	 esp, 4
$LN56@GetGuildBa:
  001fa	8b 85 7c b9 ff
	ff		 mov	 eax, DWORD PTR _GuildBank$GSCopy$1$[ebp]
  00200	8b 40 0c	 mov	 eax, DWORD PTR [eax+12]
  00203	89 8c 07 80 00
	00 00		 mov	 DWORD PTR [edi+eax+128], ecx
; File C:\IAGOS\server\v18\Source\Source\_network\CmnHdr.h

; 117  : 	int count	=0;

  0020a	33 c9		 xor	 ecx, ecx

; 118  : 	while( pBuf[*pLocation] != ',' && pBuf[*pLocation] != 0 )

  0020c	8a 84 35 70 f7
	ff ff		 mov	 al, BYTE PTR _ExtBank$[ebp+esi]
  00213	3c 2c		 cmp	 al, 44			; 0000002cH
  00215	74 26		 je	 SHORT $LN210@GetGuildBa
$LL69@GetGuildBa:
  00217	84 c0		 test	 al, al
  00219	74 19		 je	 SHORT $LN70@GetGuildBa

; 119  : 	{
; 120  : 		if( pBuf[*pLocation] != '/' )

  0021b	3c 2f		 cmp	 al, 47			; 0000002fH
  0021d	0f 84 aa 02 00
	00		 je	 $LN71@GetGuildBa

; 121  : 		{
; 122  : 			strTemp[count]	=pBuf[*pLocation];
; 123  : 			count++;	( *pLocation )++;

  00223	46		 inc	 esi
  00224	88 44 0d bc	 mov	 BYTE PTR _strTemp$19[ebp+ecx], al
  00228	41		 inc	 ecx
  00229	8a 84 35 70 f7
	ff ff		 mov	 al, BYTE PTR _ExtBank$[ebp+esi]
  00230	3c 2c		 cmp	 al, 44			; 0000002cH
  00232	75 e3		 jne	 SHORT $LL69@GetGuildBa
$LN70@GetGuildBa:

; 135  : 			}
; 136  : 		}
; 137  : 	}
; 138  : 	strTemp[count]	=0;	( *pLocation )++;

  00234	83 f9 32	 cmp	 ecx, 50			; 00000032H
  00237	0f 83 3d 06 00
	00		 jae	 $LN54@GetGuildBa
$LN210@GetGuildBa:
  0023d	46		 inc	 esi
$LN220@GetGuildBa:
; File C:\IAGOS\server\v18\Source\Source\_Database\DbManagerFun.cpp

; 506  : 		__int64 iRandomOptItemId	= GetInt64PaFromStr( ExtBank, &CountStr );

  0023e	8d 45 bc	 lea	 eax, DWORD PTR _strTemp$19[ebp]
  00241	c6 44 0d bc 00	 mov	 BYTE PTR _strTemp$19[ebp+ecx], 0
  00246	50		 push	 eax
  00247	e8 00 00 00 00	 call	 __atoi64
  0024c	8b c8		 mov	 ecx, eax
  0024e	83 c4 04	 add	 esp, 4

; 507  : 		if( iRandomOptItemId == -102 )

  00251	83 f9 9a	 cmp	 ecx, -102		; ffffff9aH
  00254	75 1c		 jne	 SHORT $LN17@GetGuildBa
  00256	83 fa ff	 cmp	 edx, -1
  00259	75 17		 jne	 SHORT $LN17@GetGuildBa
$LN219@GetGuildBa:

; 509  : 		GuildBank->m_apItem[nExtBank].SetRandomOptItemId( iRandomOptItemId );

  0025b	0f 57 c0	 xorps	 xmm0, xmm0
  0025e	66 0f 13 85 68
	b9 ff ff	 movlpd	 QWORD PTR _iRandomOptItemId$2[ebp], xmm0
  00266	8b 8d 68 b9 ff
	ff		 mov	 ecx, DWORD PTR _iRandomOptItemId$2[ebp]
  0026c	8b 95 6c b9 ff
	ff		 mov	 edx, DWORD PTR _iRandomOptItemId$2[ebp+4]
$LN17@GetGuildBa:
  00272	8b 85 7c b9 ff
	ff		 mov	 eax, DWORD PTR _GuildBank$GSCopy$1$[ebp]
  00278	8b 40 0c	 mov	 eax, DWORD PTR [eax+12]
  0027b	89 8c 07 88 00
	00 00		 mov	 DWORD PTR [edi+eax+136], ecx
; File C:\IAGOS\server\v18\Source\Source\_network\CmnHdr.h

; 148  : 	int count=0;

  00282	33 c9		 xor	 ecx, ecx
; File C:\IAGOS\server\v18\Source\Source\_Database\DbManagerFun.cpp

; 509  : 		GuildBank->m_apItem[nExtBank].SetRandomOptItemId( iRandomOptItemId );

  00284	89 94 07 8c 00
	00 00		 mov	 DWORD PTR [edi+eax+140], edx
; File C:\IAGOS\server\v18\Source\Source\_network\CmnHdr.h

; 149  : 	while(pBuf[*pLocation]!=',' && pBuf[*pLocation]!=0)

  0028b	8a 84 35 70 f7
	ff ff		 mov	 al, BYTE PTR _ExtBank$[ebp+esi]
  00292	3c 2c		 cmp	 al, 44			; 0000002cH
  00294	74 26		 je	 SHORT $LN209@GetGuildBa
$LL81@GetGuildBa:
  00296	84 c0		 test	 al, al
  00298	74 19		 je	 SHORT $LN82@GetGuildBa

; 150  : 	{
; 151  : 		if( pBuf[*pLocation]!='/' )

  0029a	3c 2f		 cmp	 al, 47			; 0000002fH
  0029c	0f 84 41 02 00
	00		 je	 $LN83@GetGuildBa

; 152  : 		{
; 153  : 			strTemp[count]=pBuf[*pLocation];
; 154  : 			count++; (*pLocation)++;

  002a2	46		 inc	 esi
  002a3	88 44 0d bc	 mov	 BYTE PTR _strTemp$20[ebp+ecx], al
  002a7	41		 inc	 ecx
  002a8	8a 84 35 70 f7
	ff ff		 mov	 al, BYTE PTR _ExtBank$[ebp+esi]
  002af	3c 2c		 cmp	 al, 44			; 0000002cH
  002b1	75 e3		 jne	 SHORT $LL81@GetGuildBa
$LN82@GetGuildBa:

; 166  : 			}
; 167  : 		}
; 168  : 	}
; 169  : 	strTemp[count]=0;(*pLocation)++;

  002b3	83 f9 32	 cmp	 ecx, 50			; 00000032H
  002b6	0f 83 be 05 00
	00		 jae	 $LN54@GetGuildBa
$LN209@GetGuildBa:
  002bc	46		 inc	 esi
$LN221@GetGuildBa:
; File C:\IAGOS\server\v18\Source\Source\_Database\DbManagerFun.cpp

; 514  : 		GuildBank->m_apItem[nExtBank].m_bTranformVisPet = static_cast<BOOL>( GetIntPaFromStr( ExtBank, &CountStr ) );

  002bd	8d 45 bc	 lea	 eax, DWORD PTR _strTemp$20[ebp]
  002c0	c6 44 0d bc 00	 mov	 BYTE PTR _strTemp$20[ebp+ecx], 0
  002c5	50		 push	 eax
  002c6	e8 00 00 00 00	 call	 _atoi
  002cb	8b c8		 mov	 ecx, eax
  002cd	83 c4 04	 add	 esp, 4
$LN80@GetGuildBa:
  002d0	8b 85 7c b9 ff
	ff		 mov	 eax, DWORD PTR _GuildBank$GSCopy$1$[ebp]

; 515  : #endif // __PETVIS
; 516  : 		++CountStr; 		++nExtBank;

  002d6	46		 inc	 esi
  002d7	8b d6		 mov	 edx, esi
  002d9	8b 40 0c	 mov	 eax, DWORD PTR [eax+12]
  002dc	89 8c 07 94 00
	00 00		 mov	 DWORD PTR [edi+eax+148], ecx
  002e3	8b c6		 mov	 eax, esi
  002e5	81 c7 98 00 00
	00		 add	 edi, 152		; 00000098H
  002eb	80 bc 05 70 f7
	ff ff 24	 cmp	 BYTE PTR _ExtBank$[ebp+eax], 36 ; 00000024H
  002f3	0f 85 47 fe ff
	ff		 jne	 $LL4@GetGuildBa

; 499  : 	while( '$' != ExtBank[CountStr] )

  002f9	8b bd 78 b9 ff
	ff		 mov	 edi, DWORD PTR _qry$GSCopy$1$[ebp]
$LN5@GetGuildBa:

; 520  : 	int nPirecingBank = 0;
; 521  : 	char PirecingBank[4000] = {0,};

  002ff	68 a0 0f 00 00	 push	 4000			; 00000fa0H
  00304	8d 85 68 d7 ff
	ff		 lea	 eax, DWORD PTR _PirecingBank$[ebp]
  0030a	c7 85 80 b9 ff
	ff 00 00 00 00	 mov	 DWORD PTR _CountStr$[ebp], 0
  00314	6a 00		 push	 0
  00316	50		 push	 eax
  00317	e8 00 00 00 00	 call	 _memset
  0031c	83 c4 0c	 add	 esp, 12			; 0000000cH

; 522  : 	qry->GetStr( "m_GuildBankPiercing", PirecingBank );

  0031f	8d 85 68 d7 ff
	ff		 lea	 eax, DWORD PTR _PirecingBank$[ebp]
  00325	8b cf		 mov	 ecx, edi
  00327	50		 push	 eax
  00328	68 00 00 00 00	 push	 OFFSET ??_C@_0BE@FOMLDJLH@m_GuildBankPiercing@
  0032d	e8 00 00 00 00	 call	 ?GetStr@CQuery@@QAEXPAD0@Z ; CQuery::GetStr

; 523  : 	while( '$' != PirecingBank[CountStr] )

  00332	80 bd 68 d7 ff
	ff 24		 cmp	 BYTE PTR _PirecingBank$[ebp], 36 ; 00000024H
  00339	74 43		 je	 SHORT $LN7@GetGuildBa

; 517  : 	}
; 518  : 	
; 519  : 	CountStr	= 0;

  0033b	8b bd 7c b9 ff
	ff		 mov	 edi, DWORD PTR _GuildBank$GSCopy$1$[ebp]
  00341	33 f6		 xor	 esi, esi
$LL6@GetGuildBa:

; 524  : 	{
; 525  : #if __VER >= 12 // __EXT_PIERCING
; 526  : 		LoadPiercingInfo( GuildBank->m_apItem[nPirecingBank], PirecingBank, &CountStr );

  00343	8b 8d 70 b9 ff
	ff		 mov	 ecx, DWORD PTR _this$GSCopy$1$[ebp]
  00349	8d 85 80 b9 ff
	ff		 lea	 eax, DWORD PTR _CountStr$[ebp]
  0034f	50		 push	 eax
  00350	8d 85 68 d7 ff
	ff		 lea	 eax, DWORD PTR _PirecingBank$[ebp]
  00356	50		 push	 eax
  00357	8b 47 0c	 mov	 eax, DWORD PTR [edi+12]
  0035a	03 c6		 add	 eax, esi
  0035c	50		 push	 eax
  0035d	e8 00 00 00 00	 call	 ?LoadPiercingInfo@CDbManager@@QAEXAAVCItemElem@@PADPAH@Z ; CDbManager::LoadPiercingInfo
  00362	8b 85 80 b9 ff
	ff		 mov	 eax, DWORD PTR _CountStr$[ebp]

; 527  : #else // __EXT_PIERCING
; 528  : 		int nItemIdCount = 0;
; 529  : 		GuildBank->m_apItem[nPirecingBank].SetPiercingSize( GetIntFromStr( PirecingBank, &CountStr ) );
; 530  : 		for( int i = 0 ; i < GuildBank->m_apItem[nPirecingBank].GetPiercingSize() ; ++i )
; 531  : 		{
; 532  : 			GuildBank->m_apItem[nPirecingBank].SetPiercingItem( nItemIdCount, (DWORD)GetIntFromStr( PirecingBank, &CountStr ) );
; 533  : 			++nItemIdCount;
; 534  : 		}
; 535  : #endif // __EXT_PIERCING
; 536  : 		++nPirecingBank;

  00368	81 c6 98 00 00
	00		 add	 esi, 152		; 00000098H
  0036e	80 bc 05 68 d7
	ff ff 24	 cmp	 BYTE PTR _PirecingBank$[ebp+eax], 36 ; 00000024H
  00376	75 cb		 jne	 SHORT $LL6@GetGuildBa
  00378	8b bd 78 b9 ff
	ff		 mov	 edi, DWORD PTR _qry$GSCopy$1$[ebp]
$LN7@GetGuildBa:

; 540  : 	int	nId	= 0;
; 541  : #ifdef __PET_1024
; 542  : 	char szPet[4200]	= { 0, };

  0037e	68 68 10 00 00	 push	 4200			; 00001068H
  00383	33 f6		 xor	 esi, esi
  00385	8d 85 08 e7 ff
	ff		 lea	 eax, DWORD PTR _szPet$[ebp]
  0038b	56		 push	 esi
  0038c	50		 push	 eax
  0038d	e8 00 00 00 00	 call	 _memset
  00392	83 c4 0c	 add	 esp, 12			; 0000000cH

; 543  : #else	// __PET_1024
; 544  : 	char szPet[2688]	= { 0, };
; 545  : #endif	// __PET_1024
; 546  : 	qry->GetStr( "szGuildBankPet", szPet );

  00395	8d 85 08 e7 ff
	ff		 lea	 eax, DWORD PTR _szPet$[ebp]
  0039b	8b cf		 mov	 ecx, edi
  0039d	50		 push	 eax
  0039e	68 00 00 00 00	 push	 OFFSET ??_C@_0P@MOKIMIMD@szGuildBankPet@
  003a3	e8 00 00 00 00	 call	 ?GetStr@CQuery@@QAEXPAD0@Z ; CQuery::GetStr

; 547  : 	while( '$' != szPet[CountStr] )

  003a8	80 bd 08 e7 ff
	ff 24		 cmp	 BYTE PTR _szPet$[ebp], 36 ; 00000024H
  003af	0f 84 7e 04 00
	00		 je	 $LN9@GetGuildBa

; 537  : 	}
; 538  : 
; 539  : 	CountStr	= 0;

  003b5	89 b5 78 b9 ff
	ff		 mov	 DWORD PTR tv1915[ebp], esi
  003bb	33 ff		 xor	 edi, edi
  003bd	0f 1f 00	 npad	 3
$LL8@GetGuildBa:
; File C:\IAGOS\server\v18\Source\Source\_network\CmnHdr.h

; 95   : 	while(pBuf[*pLocation]!=',' && pBuf[*pLocation]!='/' && pBuf[*pLocation]!=0) {

  003c0	8a 84 3d 08 e7
	ff ff		 mov	 al, BYTE PTR _szPet$[ebp+edi]
  003c7	33 c9		 xor	 ecx, ecx
  003c9	3c 2c		 cmp	 al, 44			; 0000002cH
  003cb	74 25		 je	 SHORT $LN208@GetGuildBa
  003cd	0f 1f 00	 npad	 3
$LL93@GetGuildBa:
  003d0	3c 2f		 cmp	 al, 47			; 0000002fH
  003d2	74 15		 je	 SHORT $LN94@GetGuildBa
  003d4	84 c0		 test	 al, al
  003d6	74 11		 je	 SHORT $LN94@GetGuildBa

; 96   : 		strTemp[count]=pBuf[*pLocation];
; 97   : 		count++; (*pLocation)++;

  003d8	46		 inc	 esi
  003d9	88 44 0d bc	 mov	 BYTE PTR _strTemp$16[ebp+ecx], al
  003dd	41		 inc	 ecx
  003de	8a 84 35 08 e7
	ff ff		 mov	 al, BYTE PTR _szPet$[ebp+esi]
  003e5	3c 2c		 cmp	 al, 44			; 0000002cH
  003e7	75 e7		 jne	 SHORT $LL93@GetGuildBa
$LN94@GetGuildBa:

; 98   : 	}
; 99   : 	strTemp[count]=0;(*pLocation)++;

  003e9	83 f9 32	 cmp	 ecx, 50			; 00000032H
  003ec	0f 83 88 04 00
	00		 jae	 $LN54@GetGuildBa
$LN208@GetGuildBa:

; 100  : 	return atoi(strTemp);

  003f2	8d 45 bc	 lea	 eax, DWORD PTR _strTemp$16[ebp]
  003f5	c6 44 0d bc 00	 mov	 BYTE PTR _strTemp$16[ebp+ecx], 0
  003fa	46		 inc	 esi
  003fb	50		 push	 eax
  003fc	8b fe		 mov	 edi, esi
  003fe	e8 00 00 00 00	 call	 _atoi
  00403	83 c4 04	 add	 esp, 4
; File C:\IAGOS\server\v18\Source\Source\_Database\DbManagerFun.cpp

; 551  : 		{

  00406	8b cf		 mov	 ecx, edi
  00408	85 c0		 test	 eax, eax
  0040a	0f 84 0b 04 00
	00		 je	 $LN18@GetGuildBa

; 552  : 			SAFE_DELETE( GuildBank->m_apItem[nId].m_pPet );

  00410	8b 85 7c b9 ff
	ff		 mov	 eax, DWORD PTR _GuildBank$GSCopy$1$[ebp]
  00416	8b 8d 78 b9 ff
	ff		 mov	 ecx, DWORD PTR tv1915[ebp]
  0041c	8b 40 0c	 mov	 eax, DWORD PTR [eax+12]
  0041f	8b 8c 01 90 00
	00 00		 mov	 ecx, DWORD PTR [ecx+eax+144]
  00426	85 c9		 test	 ecx, ecx
  00428	74 20		 je	 SHORT $LN19@GetGuildBa
  0042a	8b 01		 mov	 eax, DWORD PTR [ecx]
  0042c	6a 01		 push	 1
  0042e	ff 10		 call	 DWORD PTR [eax]
  00430	8b 95 7c b9 ff
	ff		 mov	 edx, DWORD PTR _GuildBank$GSCopy$1$[ebp]
  00436	8b 8d 78 b9 ff
	ff		 mov	 ecx, DWORD PTR tv1915[ebp]
  0043c	8b 42 0c	 mov	 eax, DWORD PTR [edx+12]
  0043f	c7 84 01 90 00
	00 00 00 00 00
	00		 mov	 DWORD PTR [ecx+eax+144], 0
$LN19@GetGuildBa:

; 553  : 			CPet* pPet	= GuildBank->m_apItem[nId].m_pPet		= new CPet;

  0044a	6a 28		 push	 40			; 00000028H
  0044c	e8 00 00 00 00	 call	 ??2@YAPAXI@Z		; operator new
  00451	83 c4 04	 add	 esp, 4
  00454	89 85 6c b9 ff
	ff		 mov	 DWORD PTR $T3[ebp], eax
  0045a	c7 45 fc 01 00
	00 00		 mov	 DWORD PTR __$EHRec$[ebp+8], 1
  00461	85 c0		 test	 eax, eax
  00463	0f 84 90 00 00
	00		 je	 $LN23@GetGuildBa
  00469	8b c8		 mov	 ecx, eax
  0046b	e8 00 00 00 00	 call	 ??0CPet@@QAE@XZ		; CPet::CPet
  00470	8b c8		 mov	 ecx, eax
  00472	89 85 80 b9 ff
	ff		 mov	 DWORD PTR $T7[ebp], eax
  00478	e9 84 00 00 00	 jmp	 $LN24@GetGuildBa
$LN151@GetGuildBa:

; 488  : 			{
; 489  : 				Error( "GuildBank = %s", Bank );

  0047d	8d 85 1c ba ff
	ff		 lea	 eax, DWORD PTR _Bank$[ebp]
  00483	50		 push	 eax
  00484	68 00 00 00 00	 push	 OFFSET ??_C@_0P@KBFNBDP@GuildBank?5?$DN?5?$CFs@
  00489	e8 00 00 00 00	 call	 ?Error@@YAPBDPBDZZ	; Error
  0048e	83 c4 08	 add	 esp, 8

; 490  : 				return;

  00491	8d 8d 84 b9 ff
	ff		 lea	 ecx, DWORD PTR _BufItemElem$8[ebp]
  00497	e8 00 00 00 00	 call	 ??1CItemElem@@UAE@XZ	; CItemElem::~CItemElem
  0049c	e9 92 03 00 00	 jmp	 $LN9@GetGuildBa
$LN47@GetGuildBa:
; File C:\IAGOS\server\v18\Source\Source\_network\CmnHdr.h

; 158  : 			if( count == 0 )

  004a1	85 c9		 test	 ecx, ecx
  004a3	0f 84 e5 fc ff
	ff		 je	 $LN44@GetGuildBa
$LN49@GetGuildBa:

; 161  : 			}
; 162  : 			else
; 163  : 			{
; 164  : 				strTemp[count]=0;

  004a9	83 f9 32	 cmp	 ecx, 50			; 00000032H
  004ac	0f 83 c8 03 00
	00		 jae	 $LN54@GetGuildBa
  004b2	e9 c4 fc ff ff	 jmp	 $LN217@GetGuildBa
$LN59@GetGuildBa:

; 158  : 			if( count == 0 )

  004b7	85 c9		 test	 ecx, ecx
  004b9	0f 84 3b fd ff
	ff		 je	 $LN56@GetGuildBa
$LN61@GetGuildBa:

; 161  : 			}
; 162  : 			else
; 163  : 			{
; 164  : 				strTemp[count]=0;

  004bf	83 f9 32	 cmp	 ecx, 50			; 00000032H
  004c2	0f 83 b2 03 00
	00		 jae	 $LN54@GetGuildBa

; 165  : 				return atoi(strTemp);

  004c8	e9 1a fd ff ff	 jmp	 $LN218@GetGuildBa
$LN71@GetGuildBa:

; 127  : 			if( count == 0 )

  004cd	85 c9		 test	 ecx, ecx
  004cf	0f 84 86 fd ff
	ff		 je	 $LN219@GetGuildBa

; 128  : 			{
; 129  : 				return 0;
; 130  : 			}
; 131  : 			else
; 132  : 			{
; 133  : 				strTemp[count]	=0;

  004d5	83 f9 32	 cmp	 ecx, 50			; 00000032H
  004d8	0f 83 9c 03 00
	00		 jae	 $LN54@GetGuildBa

; 134  : 				return _atoi64( strTemp );

  004de	e9 5b fd ff ff	 jmp	 $LN220@GetGuildBa
$LN83@GetGuildBa:

; 158  : 			if( count == 0 )

  004e3	85 c9		 test	 ecx, ecx
  004e5	0f 84 e5 fd ff
	ff		 je	 $LN80@GetGuildBa
$LN85@GetGuildBa:

; 161  : 			}
; 162  : 			else
; 163  : 			{
; 164  : 				strTemp[count]=0;

  004eb	83 f9 32	 cmp	 ecx, 50			; 00000032H
  004ee	0f 83 86 03 00
	00		 jae	 $LN54@GetGuildBa

; 165  : 				return atoi(strTemp);

  004f4	e9 c4 fd ff ff	 jmp	 $LN221@GetGuildBa
$LN23@GetGuildBa:
; File C:\IAGOS\server\v18\Source\Source\_Database\DbManagerFun.cpp

; 553  : 			CPet* pPet	= GuildBank->m_apItem[nId].m_pPet		= new CPet;

  004f9	33 c9		 xor	 ecx, ecx
  004fb	89 8d 80 b9 ff
	ff		 mov	 DWORD PTR $T7[ebp], ecx
$LN24@GetGuildBa:
  00501	8b 85 7c b9 ff
	ff		 mov	 eax, DWORD PTR _GuildBank$GSCopy$1$[ebp]
  00507	8b 95 78 b9 ff
	ff		 mov	 edx, DWORD PTR tv1915[ebp]
  0050d	c7 45 fc ff ff
	ff ff		 mov	 DWORD PTR __$EHRec$[ebp+8], -1
  00514	8b 40 0c	 mov	 eax, DWORD PTR [eax+12]
  00517	89 8c 02 90 00
	00 00		 mov	 DWORD PTR [edx+eax+144], ecx
; File C:\IAGOS\server\v18\Source\Source\_network\CmnHdr.h

; 94   : 	int count=0;

  0051e	33 c9		 xor	 ecx, ecx

; 95   : 	while(pBuf[*pLocation]!=',' && pBuf[*pLocation]!='/' && pBuf[*pLocation]!=0) {

  00520	8a 84 3d 08 e7
	ff ff		 mov	 al, BYTE PTR _szPet$[ebp+edi]
  00527	3c 2c		 cmp	 al, 44			; 0000002cH
  00529	74 27		 je	 SHORT $LN207@GetGuildBa
  0052b	0f 1f 44 00 00	 npad	 5
$LL99@GetGuildBa:
  00530	3c 2f		 cmp	 al, 47			; 0000002fH
  00532	74 15		 je	 SHORT $LN100@GetGuildBa
  00534	84 c0		 test	 al, al
  00536	74 11		 je	 SHORT $LN100@GetGuildBa

; 96   : 		strTemp[count]=pBuf[*pLocation];
; 97   : 		count++; (*pLocation)++;

  00538	46		 inc	 esi
  00539	88 44 0d 88	 mov	 BYTE PTR _strTemp$14[ebp+ecx], al
  0053d	41		 inc	 ecx
  0053e	8a 84 35 08 e7
	ff ff		 mov	 al, BYTE PTR _szPet$[ebp+esi]
  00545	3c 2c		 cmp	 al, 44			; 0000002cH
  00547	75 e7		 jne	 SHORT $LL99@GetGuildBa
$LN100@GetGuildBa:

; 98   : 	}
; 99   : 	strTemp[count]=0;(*pLocation)++;

  00549	83 f9 32	 cmp	 ecx, 50			; 00000032H
  0054c	0f 83 28 03 00
	00		 jae	 $LN54@GetGuildBa
$LN207@GetGuildBa:

; 100  : 	return atoi(strTemp);

  00552	8d 45 88	 lea	 eax, DWORD PTR _strTemp$14[ebp]
  00555	c6 44 0d 88 00	 mov	 BYTE PTR _strTemp$14[ebp+ecx], 0
  0055a	50		 push	 eax
  0055b	46		 inc	 esi
  0055c	e8 00 00 00 00	 call	 _atoi
; File C:\IAGOS\server\v18\Source\Source\_Database\DbManagerFun.cpp

; 555  : 			pPet->SetKind( nKind );

  00561	8b 8d 80 b9 ff
	ff		 mov	 ecx, DWORD PTR $T7[ebp]
; File C:\IAGOS\server\v18\Source\Source\_network\CmnHdr.h

; 100  : 	return atoi(strTemp);

  00567	83 c4 04	 add	 esp, 4
; File C:\IAGOS\server\v18\Source\Source\_Database\DbManagerFun.cpp

; 555  : 			pPet->SetKind( nKind );

  0056a	88 41 04	 mov	 BYTE PTR [ecx+4], al
; File C:\IAGOS\server\v18\Source\Source\_network\CmnHdr.h

; 94   : 	int count=0;

  0056d	33 c9		 xor	 ecx, ecx

; 95   : 	while(pBuf[*pLocation]!=',' && pBuf[*pLocation]!='/' && pBuf[*pLocation]!=0) {

  0056f	8a 84 35 08 e7
	ff ff		 mov	 al, BYTE PTR _szPet$[ebp+esi]
  00576	3c 2c		 cmp	 al, 44			; 0000002cH
  00578	74 40		 je	 SHORT $LN206@GetGuildBa
  0057a	89 b5 74 b9 ff
	ff		 mov	 DWORD PTR $T5[ebp], esi
  00580	8b d6		 mov	 edx, esi
  00582	8b fe		 mov	 edi, esi
$LL105@GetGuildBa:
  00584	8b f2		 mov	 esi, edx
  00586	3c 2f		 cmp	 al, 47			; 0000002fH
  00588	74 27		 je	 SHORT $LN106@GetGuildBa
  0058a	8b f7		 mov	 esi, edi
  0058c	84 c0		 test	 al, al
  0058e	74 21		 je	 SHORT $LN106@GetGuildBa

; 96   : 		strTemp[count]=pBuf[*pLocation];
; 97   : 		count++; (*pLocation)++;

  00590	8b b5 74 b9 ff
	ff		 mov	 esi, DWORD PTR $T5[ebp]
  00596	46		 inc	 esi
  00597	88 44 0d 88	 mov	 BYTE PTR _strTemp$13[ebp+ecx], al
  0059b	41		 inc	 ecx
  0059c	89 b5 74 b9 ff
	ff		 mov	 DWORD PTR $T5[ebp], esi
  005a2	8b d6		 mov	 edx, esi
  005a4	8b fe		 mov	 edi, esi
  005a6	8a 84 35 08 e7
	ff ff		 mov	 al, BYTE PTR _szPet$[ebp+esi]
  005ad	3c 2c		 cmp	 al, 44			; 0000002cH
  005af	75 d3		 jne	 SHORT $LL105@GetGuildBa
$LN106@GetGuildBa:

; 98   : 	}
; 99   : 	strTemp[count]=0;(*pLocation)++;

  005b1	83 f9 32	 cmp	 ecx, 50			; 00000032H
  005b4	0f 83 c0 02 00
	00		 jae	 $LN54@GetGuildBa
$LN206@GetGuildBa:

; 100  : 	return atoi(strTemp);

  005ba	8d 45 88	 lea	 eax, DWORD PTR _strTemp$13[ebp]
  005bd	c6 44 0d 88 00	 mov	 BYTE PTR _strTemp$13[ebp+ecx], 0
  005c2	50		 push	 eax
  005c3	46		 inc	 esi
  005c4	e8 00 00 00 00	 call	 _atoi
; File C:\IAGOS\server\v18\Source\Source\_Database\DbManagerFun.cpp

; 557  : 			pPet->SetLevel( nLevel );

  005c9	8b 8d 80 b9 ff
	ff		 mov	 ecx, DWORD PTR $T7[ebp]
; File C:\IAGOS\server\v18\Source\Source\_network\CmnHdr.h

; 100  : 	return atoi(strTemp);

  005cf	83 c4 04	 add	 esp, 4
; File C:\IAGOS\server\v18\Source\Source\_Database\DbManagerFun.cpp

; 557  : 			pPet->SetLevel( nLevel );

  005d2	88 41 05	 mov	 BYTE PTR [ecx+5], al
; File C:\IAGOS\server\v18\Source\Source\_network\CmnHdr.h

; 94   : 	int count=0;

  005d5	33 c9		 xor	 ecx, ecx

; 95   : 	while(pBuf[*pLocation]!=',' && pBuf[*pLocation]!='/' && pBuf[*pLocation]!=0) {

  005d7	8a 84 35 08 e7
	ff ff		 mov	 al, BYTE PTR _szPet$[ebp+esi]
  005de	3c 2c		 cmp	 al, 44			; 0000002cH
  005e0	74 44		 je	 SHORT $LN205@GetGuildBa
  005e2	89 b5 74 b9 ff
	ff		 mov	 DWORD PTR $T6[ebp], esi
  005e8	8b d6		 mov	 edx, esi
  005ea	8b fe		 mov	 edi, esi
  005ec	0f 1f 40 00	 npad	 4
$LL111@GetGuildBa:
  005f0	8b f2		 mov	 esi, edx
  005f2	3c 2f		 cmp	 al, 47			; 0000002fH
  005f4	74 27		 je	 SHORT $LN112@GetGuildBa
  005f6	8b f7		 mov	 esi, edi
  005f8	84 c0		 test	 al, al
  005fa	74 21		 je	 SHORT $LN112@GetGuildBa

; 96   : 		strTemp[count]=pBuf[*pLocation];
; 97   : 		count++; (*pLocation)++;

  005fc	8b b5 74 b9 ff
	ff		 mov	 esi, DWORD PTR $T6[ebp]
  00602	46		 inc	 esi
  00603	88 44 0d 88	 mov	 BYTE PTR _strTemp$12[ebp+ecx], al
  00607	41		 inc	 ecx
  00608	89 b5 74 b9 ff
	ff		 mov	 DWORD PTR $T6[ebp], esi
  0060e	8b d6		 mov	 edx, esi
  00610	8b fe		 mov	 edi, esi
  00612	8a 84 35 08 e7
	ff ff		 mov	 al, BYTE PTR _szPet$[ebp+esi]
  00619	3c 2c		 cmp	 al, 44			; 0000002cH
  0061b	75 d3		 jne	 SHORT $LL111@GetGuildBa
$LN112@GetGuildBa:

; 98   : 	}
; 99   : 	strTemp[count]=0;(*pLocation)++;

  0061d	83 f9 32	 cmp	 ecx, 50			; 00000032H
  00620	0f 83 54 02 00
	00		 jae	 $LN54@GetGuildBa
$LN205@GetGuildBa:

; 100  : 	return atoi(strTemp);

  00626	8d 45 88	 lea	 eax, DWORD PTR _strTemp$12[ebp]
  00629	c6 44 0d 88 00	 mov	 BYTE PTR _strTemp$12[ebp+ecx], 0
  0062e	50		 push	 eax
  0062f	46		 inc	 esi
  00630	e8 00 00 00 00	 call	 _atoi
; File C:\IAGOS\server\v18\Source\Source\_Database\DbManagerFun.cpp

; 559  : 			pPet->SetExp( dwExp );

  00635	8b 8d 80 b9 ff
	ff		 mov	 ecx, DWORD PTR $T7[ebp]
; File C:\IAGOS\server\v18\Source\Source\_network\CmnHdr.h

; 100  : 	return atoi(strTemp);

  0063b	83 c4 04	 add	 esp, 4
; File C:\IAGOS\server\v18\Source\Source\_Database\DbManagerFun.cpp

; 559  : 			pPet->SetExp( dwExp );

  0063e	50		 push	 eax
  0063f	e8 00 00 00 00	 call	 ?SetExp@CPet@@QAEXK@Z	; CPet::SetExp
; File C:\IAGOS\server\v18\Source\Source\_network\CmnHdr.h

; 95   : 	while(pBuf[*pLocation]!=',' && pBuf[*pLocation]!='/' && pBuf[*pLocation]!=0) {

  00644	8a 84 35 08 e7
	ff ff		 mov	 al, BYTE PTR _szPet$[ebp+esi]
  0064b	33 c9		 xor	 ecx, ecx
  0064d	3c 2c		 cmp	 al, 44			; 0000002cH
  0064f	74 45		 je	 SHORT $LN204@GetGuildBa
  00651	89 b5 74 b9 ff
	ff		 mov	 DWORD PTR $T4[ebp], esi
  00657	8b d6		 mov	 edx, esi
  00659	8b fe		 mov	 edi, esi
  0065b	0f 1f 44 00 00	 npad	 5
$LL117@GetGuildBa:
  00660	8b f2		 mov	 esi, edx
  00662	3c 2f		 cmp	 al, 47			; 0000002fH
  00664	74 27		 je	 SHORT $LN118@GetGuildBa
  00666	8b f7		 mov	 esi, edi
  00668	84 c0		 test	 al, al
  0066a	74 21		 je	 SHORT $LN118@GetGuildBa

; 96   : 		strTemp[count]=pBuf[*pLocation];
; 97   : 		count++; (*pLocation)++;

  0066c	8b b5 74 b9 ff
	ff		 mov	 esi, DWORD PTR $T4[ebp]
  00672	46		 inc	 esi
  00673	88 44 0d 88	 mov	 BYTE PTR _strTemp$15[ebp+ecx], al
  00677	41		 inc	 ecx
  00678	89 b5 74 b9 ff
	ff		 mov	 DWORD PTR $T4[ebp], esi
  0067e	8b d6		 mov	 edx, esi
  00680	8b fe		 mov	 edi, esi
  00682	8a 84 35 08 e7
	ff ff		 mov	 al, BYTE PTR _szPet$[ebp+esi]
  00689	3c 2c		 cmp	 al, 44			; 0000002cH
  0068b	75 d3		 jne	 SHORT $LL117@GetGuildBa
$LN118@GetGuildBa:

; 98   : 	}
; 99   : 	strTemp[count]=0;(*pLocation)++;

  0068d	83 f9 32	 cmp	 ecx, 50			; 00000032H
  00690	0f 83 e4 01 00
	00		 jae	 $LN54@GetGuildBa
$LN204@GetGuildBa:

; 100  : 	return atoi(strTemp);

  00696	8d 45 88	 lea	 eax, DWORD PTR _strTemp$15[ebp]
  00699	c6 44 0d 88 00	 mov	 BYTE PTR _strTemp$15[ebp+ecx], 0
  0069e	50		 push	 eax
  0069f	46		 inc	 esi
  006a0	e8 00 00 00 00	 call	 _atoi
; File C:\IAGOS\server\v18\Source\Source\_Database\DbManagerFun.cpp

; 561  : 			pPet->SetEnergy( wEnergy );

  006a5	8b 8d 80 b9 ff
	ff		 mov	 ecx, DWORD PTR $T7[ebp]
; File C:\IAGOS\server\v18\Source\Source\_network\CmnHdr.h

; 100  : 	return atoi(strTemp);

  006ab	83 c4 04	 add	 esp, 4
; File C:\IAGOS\server\v18\Source\Source\_Database\DbManagerFun.cpp

; 560  : 			WORD wEnergy	= (WORD)GetIntFromStr( szPet, &CountStr );

  006ae	0f b7 c0	 movzx	 eax, ax

; 561  : 			pPet->SetEnergy( wEnergy );

  006b1	50		 push	 eax
  006b2	e8 00 00 00 00	 call	 ?SetEnergy@CPet@@QAEXG@Z ; CPet::SetEnergy
; File C:\IAGOS\server\v18\Source\Source\_network\CmnHdr.h

; 149  : 	while(pBuf[*pLocation]!=',' && pBuf[*pLocation]!=0)

  006b7	8a 84 35 08 e7
	ff ff		 mov	 al, BYTE PTR _szPet$[ebp+esi]
  006be	33 c9		 xor	 ecx, ecx
  006c0	8b d6		 mov	 edx, esi
  006c2	3c 2c		 cmp	 al, 44			; 0000002cH
  006c4	74 31		 je	 SHORT $LN203@GetGuildBa
  006c6	8b fe		 mov	 edi, esi
$LL123@GetGuildBa:
  006c8	84 c0		 test	 al, al
  006ca	74 22		 je	 SHORT $LN124@GetGuildBa

; 150  : 	{
; 151  : 		if( pBuf[*pLocation]!='/' )

  006cc	3c 2f		 cmp	 al, 47			; 0000002fH
  006ce	0f 84 7c 01 00
	00		 je	 $LN125@GetGuildBa

; 152  : 		{
; 153  : 			strTemp[count]=pBuf[*pLocation];
; 154  : 			count++; (*pLocation)++;

  006d4	8d 77 01	 lea	 esi, DWORD PTR [edi+1]
  006d7	88 84 0d 40 ff
	ff ff		 mov	 BYTE PTR _strTemp$10[ebp+ecx], al
  006de	8a 84 35 08 e7
	ff ff		 mov	 al, BYTE PTR _szPet$[ebp+esi]
  006e5	41		 inc	 ecx
  006e6	8b d6		 mov	 edx, esi
  006e8	8b fe		 mov	 edi, esi
  006ea	3c 2c		 cmp	 al, 44			; 0000002cH
  006ec	75 da		 jne	 SHORT $LL123@GetGuildBa
$LN124@GetGuildBa:

; 166  : 			}
; 167  : 		}
; 168  : 	}
; 169  : 	strTemp[count]=0;(*pLocation)++;

  006ee	83 f9 32	 cmp	 ecx, 50			; 00000032H
  006f1	0f 83 83 01 00
	00		 jae	 $LN54@GetGuildBa
$LN203@GetGuildBa:
  006f7	8d 72 01	 lea	 esi, DWORD PTR [edx+1]
$LN222@GetGuildBa:
; File C:\IAGOS\server\v18\Source\Source\_Database\DbManagerFun.cpp

; 564  : 			pPet->SetLife( wLife );

  006fa	8d 85 40 ff ff
	ff		 lea	 eax, DWORD PTR _strTemp$10[ebp]
  00700	c6 84 0d 40 ff
	ff ff 00	 mov	 BYTE PTR _strTemp$10[ebp+ecx], 0
  00708	50		 push	 eax
  00709	e8 00 00 00 00	 call	 _atoi
  0070e	83 c4 04	 add	 esp, 4
$LN122@GetGuildBa:
  00711	8b 8d 80 b9 ff
	ff		 mov	 ecx, DWORD PTR $T7[ebp]

; 565  : 			for( int i = PL_D; i <= pPet->GetLevel(); i++ )

  00717	bf 01 00 00 00	 mov	 edi, 1
  0071c	80 79 05 01	 cmp	 BYTE PTR [ecx+5], 1
  00720	66 89 41 0e	 mov	 WORD PTR [ecx+14], ax
  00724	72 77		 jb	 SHORT $LN11@GetGuildBa
  00726	66 66 0f 1f 84
	00 00 00 00 00	 npad	 10
$LL12@GetGuildBa:
; File C:\IAGOS\server\v18\Source\Source\_network\CmnHdr.h

; 149  : 	while(pBuf[*pLocation]!=',' && pBuf[*pLocation]!=0)

  00730	8a 84 35 08 e7
	ff ff		 mov	 al, BYTE PTR _szPet$[ebp+esi]
  00737	33 c9		 xor	 ecx, ecx
  00739	3c 2c		 cmp	 al, 44			; 0000002cH
  0073b	74 2c		 je	 SHORT $LN202@GetGuildBa
  0073d	0f 1f 00	 npad	 3
$LL28@GetGuildBa:
  00740	84 c0		 test	 al, al
  00742	74 1c		 je	 SHORT $LN29@GetGuildBa

; 150  : 	{
; 151  : 		if( pBuf[*pLocation]!='/' )

  00744	3c 2f		 cmp	 al, 47			; 0000002fH
  00746	0f 84 19 01 00
	00		 je	 $LN30@GetGuildBa

; 152  : 		{
; 153  : 			strTemp[count]=pBuf[*pLocation];
; 154  : 			count++; (*pLocation)++;

  0074c	46		 inc	 esi
  0074d	88 84 0d 40 ff
	ff ff		 mov	 BYTE PTR _strTemp$9[ebp+ecx], al
  00754	41		 inc	 ecx
  00755	8a 84 35 08 e7
	ff ff		 mov	 al, BYTE PTR _szPet$[ebp+esi]
  0075c	3c 2c		 cmp	 al, 44			; 0000002cH
  0075e	75 e0		 jne	 SHORT $LL28@GetGuildBa
$LN29@GetGuildBa:

; 166  : 			}
; 167  : 		}
; 168  : 	}
; 169  : 	strTemp[count]=0;(*pLocation)++;

  00760	83 f9 32	 cmp	 ecx, 50			; 00000032H
  00763	0f 83 11 01 00
	00		 jae	 $LN54@GetGuildBa
$LN202@GetGuildBa:
  00769	46		 inc	 esi
$LN223@GetGuildBa:
; File C:\IAGOS\server\v18\Source\Source\_Database\DbManagerFun.cpp

; 568  : 				pPet->SetAvailLevel( i, nAvailLevel );

  0076a	8d 85 40 ff ff
	ff		 lea	 eax, DWORD PTR _strTemp$9[ebp]
  00770	c6 84 0d 40 ff
	ff ff 00	 mov	 BYTE PTR _strTemp$9[ebp+ecx], 0
  00778	50		 push	 eax
  00779	e8 00 00 00 00	 call	 _atoi
  0077e	83 c4 04	 add	 esp, 4
$LN27@GetGuildBa:
  00781	8b 8d 80 b9 ff
	ff		 mov	 ecx, DWORD PTR $T7[ebp]
  00787	50		 push	 eax
  00788	57		 push	 edi
  00789	e8 00 00 00 00	 call	 ?SetAvailLevel@CPet@@QAEXEE@Z ; CPet::SetAvailLevel
  0078e	8b 85 80 b9 ff
	ff		 mov	 eax, DWORD PTR $T7[ebp]
  00794	47		 inc	 edi
  00795	0f b6 40 05	 movzx	 eax, BYTE PTR [eax+5]
  00799	3b f8		 cmp	 edi, eax
  0079b	7e 93		 jle	 SHORT $LL12@GetGuildBa
$LN11@GetGuildBa:
; File C:\IAGOS\server\v18\Source\Source\_network\CmnHdr.h

; 106  : 	while(pBuf[*pLocation]!=',' && pBuf[*pLocation]!='/' && pBuf[*pLocation]!=0) {

  0079d	8a 84 35 08 e7
	ff ff		 mov	 al, BYTE PTR _szPet$[ebp+esi]
  007a4	0f 57 c0	 xorps	 xmm0, xmm0

; 101  : }
; 102  : 
; 103  : inline void GetStrFromStr(char *pBuf, char *strReturn, int *pLocation)
; 104  : {
; 105  : 	int count=0;

  007a7	33 c9		 xor	 ecx, ecx
; File C:\IAGOS\server\v18\Source\Source\_Database\DbManagerFun.cpp

; 570  : 			char szFmt[MAX_PET_NAME_FMT]	= { 0,};

  007a9	c6 45 ec 00	 mov	 BYTE PTR _szFmt$21[ebp+32], 0
  007ad	0f 11 45 cc	 movups	 XMMWORD PTR _szFmt$21[ebp], xmm0
  007b1	0f 11 45 dc	 movups	 XMMWORD PTR _szFmt$21[ebp+16], xmm0
; File C:\IAGOS\server\v18\Source\Source\_network\CmnHdr.h

; 106  : 	while(pBuf[*pLocation]!=',' && pBuf[*pLocation]!='/' && pBuf[*pLocation]!=0) {

  007b5	3c 2c		 cmp	 al, 44			; 0000002cH
  007b7	74 20		 je	 SHORT $LN42@GetGuildBa
  007b9	0f 1f 80 00 00
	00 00		 npad	 7
$LL41@GetGuildBa:
  007c0	3c 2f		 cmp	 al, 47			; 0000002fH
  007c2	74 15		 je	 SHORT $LN42@GetGuildBa
  007c4	84 c0		 test	 al, al
  007c6	74 11		 je	 SHORT $LN42@GetGuildBa

; 107  : 		strReturn[count]=pBuf[*pLocation];
; 108  : 		count++; (*pLocation)++;

  007c8	46		 inc	 esi
  007c9	88 44 0d cc	 mov	 BYTE PTR _szFmt$21[ebp+ecx], al
  007cd	41		 inc	 ecx
  007ce	8a 84 35 08 e7
	ff ff		 mov	 al, BYTE PTR _szPet$[ebp+esi]
  007d5	3c 2c		 cmp	 al, 44			; 0000002cH
  007d7	75 e7		 jne	 SHORT $LL41@GetGuildBa
$LN42@GetGuildBa:
; File C:\IAGOS\server\v18\Source\Source\_Database\DbManagerFun.cpp

; 573  : 			GetDBFormatStr( szName, MAX_PET_NAME, szFmt );

  007d9	8d 45 cc	 lea	 eax, DWORD PTR _szFmt$21[ebp]
; File C:\IAGOS\server\v18\Source\Source\_network\CmnHdr.h

; 110  : 	strReturn[count]=0;(*pLocation)++;

  007dc	c6 44 0d cc 00	 mov	 BYTE PTR _szFmt$21[ebp+ecx], 0
; File C:\IAGOS\server\v18\Source\Source\_Database\DbManagerFun.cpp

; 573  : 			GetDBFormatStr( szName, MAX_PET_NAME, szFmt );

  007e1	8b 8d 70 b9 ff
	ff		 mov	 ecx, DWORD PTR _this$GSCopy$1$[ebp]
  007e7	0f 57 c0	 xorps	 xmm0, xmm0
  007ea	50		 push	 eax
  007eb	6a 11		 push	 17			; 00000011H
  007ed	8d 85 74 ff ff
	ff		 lea	 eax, DWORD PTR _szName$11[ebp]
  007f3	c6 45 84 00	 mov	 BYTE PTR _szName$11[ebp+16], 0
; File C:\IAGOS\server\v18\Source\Source\_network\CmnHdr.h

; 110  : 	strReturn[count]=0;(*pLocation)++;

  007f7	46		 inc	 esi
; File C:\IAGOS\server\v18\Source\Source\_Database\DbManagerFun.cpp

; 573  : 			GetDBFormatStr( szName, MAX_PET_NAME, szFmt );

  007f8	50		 push	 eax
; File C:\IAGOS\server\v18\Source\Source\_network\CmnHdr.h

; 110  : 	strReturn[count]=0;(*pLocation)++;

  007f9	8b fe		 mov	 edi, esi
; File C:\IAGOS\server\v18\Source\Source\_Database\DbManagerFun.cpp

; 572  : 			char szName[MAX_PET_NAME]	= { 0,};

  007fb	0f 11 85 74 ff
	ff ff		 movups	 XMMWORD PTR _szName$11[ebp], xmm0

; 573  : 			GetDBFormatStr( szName, MAX_PET_NAME, szFmt );

  00802	e8 00 00 00 00	 call	 ?GetDBFormatStr@CDbManager@@AAEXPADHPBD@Z ; CDbManager::GetDBFormatStr

; 574  : 			pPet->SetName( szName );

  00807	8b 8d 80 b9 ff
	ff		 mov	 ecx, DWORD PTR $T7[ebp]
  0080d	8d 85 74 ff ff
	ff		 lea	 eax, DWORD PTR _szName$11[ebp]
  00813	50		 push	 eax
  00814	e8 00 00 00 00	 call	 ?SetName@CPet@@QAEXPBD@Z ; CPet::SetName
  00819	8b ce		 mov	 ecx, esi
$LN18@GetGuildBa:

; 575  : #else	// __PET_1024
; 576  : 			WORD wLife	= (WORD)GetIntFromStr( szPet, &CountStr );
; 577  : 			pPet->SetLife( wLife );
; 578  : 			for( int i = PL_D; i <= pPet->GetLevel(); i++ )
; 579  : 			{
; 580  : 				BYTE nAvailLevel	= (BYTE)GetIntFromStr( szPet, &CountStr );
; 581  : 				pPet->SetAvailLevel( i, nAvailLevel );
; 582  : 			}
; 583  : #endif	// __PET_1024
; 584  : 		}
; 585  : 		nId++;

  0081b	81 85 78 b9 ff
	ff 98 00 00 00	 add	 DWORD PTR tv1915[ebp], 152 ; 00000098H
  00825	80 bc 0d 08 e7
	ff ff 24	 cmp	 BYTE PTR _szPet$[ebp+ecx], 36 ; 00000024H
  0082d	0f 85 8d fb ff
	ff		 jne	 $LL8@GetGuildBa
$LN9@GetGuildBa:

; 587  : }

  00833	8b 4d f4	 mov	 ecx, DWORD PTR __$EHRec$[ebp]
  00836	64 89 0d 00 00
	00 00		 mov	 DWORD PTR fs:0, ecx
  0083d	59		 pop	 ecx
  0083e	5f		 pop	 edi
  0083f	5e		 pop	 esi
  00840	8b 4d f0	 mov	 ecx, DWORD PTR __$ArrayPad$[ebp]
  00843	33 cd		 xor	 ecx, ebp
  00845	e8 00 00 00 00	 call	 @__security_check_cookie@4
  0084a	8b e5		 mov	 esp, ebp
  0084c	5d		 pop	 ebp
  0084d	c2 08 00	 ret	 8
$LN125@GetGuildBa:
; File C:\IAGOS\server\v18\Source\Source\_network\CmnHdr.h

; 158  : 			if( count == 0 )

  00850	85 c9		 test	 ecx, ecx
  00852	75 07		 jne	 SHORT $LN127@GetGuildBa

; 159  : 			{
; 160  : 				return 0;

  00854	33 c0		 xor	 eax, eax
  00856	e9 b6 fe ff ff	 jmp	 $LN122@GetGuildBa
$LN127@GetGuildBa:

; 161  : 			}
; 162  : 			else
; 163  : 			{
; 164  : 				strTemp[count]=0;

  0085b	83 f9 32	 cmp	 ecx, 50			; 00000032H
  0085e	73 1a		 jae	 SHORT $LN54@GetGuildBa

; 165  : 				return atoi(strTemp);

  00860	e9 95 fe ff ff	 jmp	 $LN222@GetGuildBa
$LN30@GetGuildBa:

; 158  : 			if( count == 0 )

  00865	85 c9		 test	 ecx, ecx
  00867	75 07		 jne	 SHORT $LN32@GetGuildBa

; 159  : 			{
; 160  : 				return 0;

  00869	33 c0		 xor	 eax, eax
  0086b	e9 11 ff ff ff	 jmp	 $LN27@GetGuildBa
$LN32@GetGuildBa:

; 161  : 			}
; 162  : 			else
; 163  : 			{
; 164  : 				strTemp[count]=0;

  00870	83 f9 32	 cmp	 ecx, 50			; 00000032H
  00873	73 05		 jae	 SHORT $LN54@GetGuildBa

; 165  : 				return atoi(strTemp);

  00875	e9 f0 fe ff ff	 jmp	 $LN223@GetGuildBa
$LN54@GetGuildBa:
; File C:\IAGOS\server\v18\Source\Source\_Database\DbManagerFun.cpp

; 587  : }

  0087a	e8 00 00 00 00	 call	 ___report_rangecheckfailure
$LN216@GetGuildBa:
  0087f	cc		 int	 3
_TEXT	ENDS
;	COMDAT text$x
text$x	SEGMENT
__unwindfunclet$?GetGuildBank@CDbManager@@QAEXPAV?$CItemContainer@VCItemElem@@@@PAVCQuery@@@Z$0:
  00000	8d 8d 84 b9 ff
	ff		 lea	 ecx, DWORD PTR _BufItemElem$8[ebp]
  00006	e9 00 00 00 00	 jmp	 ??1CItemElem@@UAE@XZ	; CItemElem::~CItemElem
__unwindfunclet$?GetGuildBank@CDbManager@@QAEXPAV?$CItemContainer@VCItemElem@@@@PAVCQuery@@@Z$1:
  0000b	6a 28		 push	 40			; 00000028H
  0000d	8b 85 6c b9 ff
	ff		 mov	 eax, DWORD PTR $T3[ebp]
  00013	50		 push	 eax
  00014	e8 00 00 00 00	 call	 ??3@YAXPAXI@Z		; operator delete
  00019	83 c4 08	 add	 esp, 8
  0001c	c3		 ret	 0
  0001d	cc		 int	 3
  0001e	cc		 int	 3
  0001f	cc		 int	 3
  00020	cc		 int	 3
  00021	cc		 int	 3
__ehhandler$?GetGuildBank@CDbManager@@QAEXPAV?$CItemContainer@VCItemElem@@@@PAVCQuery@@@Z:
  00022	90		 npad	 1
  00023	90		 npad	 1
  00024	8b 54 24 08	 mov	 edx, DWORD PTR [esp+8]
  00028	8d 42 0c	 lea	 eax, DWORD PTR [edx+12]
  0002b	8b 8a 68 b9 ff
	ff		 mov	 ecx, DWORD PTR [edx-18072]
  00031	33 c8		 xor	 ecx, eax
  00033	e8 00 00 00 00	 call	 @__security_check_cookie@4
  00038	8b 4a fc	 mov	 ecx, DWORD PTR [edx-4]
  0003b	33 c8		 xor	 ecx, eax
  0003d	e8 00 00 00 00	 call	 @__security_check_cookie@4
  00042	b8 00 00 00 00	 mov	 eax, OFFSET __ehfuncinfo$?GetGuildBank@CDbManager@@QAEXPAV?$CItemContainer@VCItemElem@@@@PAVCQuery@@@Z
  00047	e9 00 00 00 00	 jmp	 ___CxxFrameHandler3
text$x	ENDS
?GetGuildBank@CDbManager@@QAEXPAV?$CItemContainer@VCItemElem@@@@PAVCQuery@@@Z ENDP ; CDbManager::GetGuildBank
; Function compile flags: /Ogtp
; File C:\IAGOS\server\v18\Source\Source\_Database\DbManagerFun.cpp
; File C:\IAGOS\server\v18\Source\Source\_database\DbManager.h
; File C:\IAGOS\server\v18\Source\Source\_Database\DbManagerFun.cpp
; File C:\IAGOS\server\v18\Source\Source\_database\DbManager.h
; File C:\IAGOS\server\v18\Source\Source\_Database\DbManagerFun.cpp
; File C:\IAGOS\server\v18\Source\Source\_database\DbManager.h
; File C:\IAGOS\server\v18\Source\Source\_Database\DbManagerFun.cpp
; File C:\IAGOS\server\v18\Source\Source\_database\DbManager.h
; File C:\IAGOS\server\v18\Source\Source\_Database\DbManagerFun.cpp
; File C:\IAGOS\server\v18\Source\Source\_database\DbManager.h
; File C:\IAGOS\server\v18\Source\Source\_Database\DbManagerFun.cpp
; File C:\IAGOS\server\v18\Source\Source\_network\CmnHdr.h
; File C:\IAGOS\server\v18\Source\Source\_Database\DbManagerFun.cpp
; File C:\IAGOS\server\v18\Source\Source\_network\CmnHdr.h
; File C:\IAGOS\server\v18\Source\Source\_Database\DbManagerFun.cpp
; File C:\IAGOS\server\v18\Source\Source\_database\DbManager.h
; File C:\IAGOS\server\v18\Source\Source\_Database\DbManagerFun.cpp
; File C:\IAGOS\server\v18\Source\Source\_database\DbManager.h
; File C:\IAGOS\server\v18\Source\Source\_Database\DbManagerFun.cpp
; File C:\IAGOS\server\v18\Source\Source\_database\DbManager.h
; File C:\IAGOS\server\v18\Source\Source\_Database\DbManagerFun.cpp
; File C:\IAGOS\server\v18\Source\Source\_database\DbManager.h
; File C:\IAGOS\server\v18\Source\Source\_Database\DbManagerFun.cpp
; File C:\IAGOS\server\v18\Source\Source\_Network\Objects\Obj.h
; File C:\IAGOS\server\v18\Source\Source\_Database\DbManagerFun.cpp
; File C:\IAGOS\server\v18\Source\Source\_Network\Objects\Obj.h
; File C:\IAGOS\server\v18\Source\Source\_Database\DbManagerFun.cpp
; File C:\IAGOS\server\v18\Source\Source\_database\DbManager.h
; File C:\IAGOS\server\v18\Source\Source\_Database\DbManagerFun.cpp
; File C:\IAGOS\server\v18\Source\Source\_database\DbManager.h
; File C:\IAGOS\server\v18\Source\Source\_Database\DbManagerFun.cpp
; File C:\IAGOS\server\v18\Source\Source\_database\DbManager.h
; File C:\IAGOS\server\v18\Source\Source\_Database\DbManagerFun.cpp
; File C:\IAGOS\server\v18\Source\Source\_database\DbManager.h
; File C:\IAGOS\server\v18\Source\Source\_Database\DbManagerFun.cpp
; File C:\IAGOS\server\v18\Source\Source\_network\CmnHdr.h
; File C:\IAGOS\server\v18\Source\Source\_Database\DbManagerFun.cpp
; File C:\IAGOS\server\v18\Source\Source\_network\CmnHdr.h
; File C:\IAGOS\server\v18\Source\Source\_Database\DbManagerFun.cpp
; File C:\IAGOS\server\v18\Source\Source\_network\CmnHdr.h
; File C:\IAGOS\server\v18\Source\Source\_Database\DbManagerFun.cpp
; File C:\IAGOS\server\v18\Source\Source\_network\CmnHdr.h
; File C:\IAGOS\server\v18\Source\Source\_Database\DbManagerFun.cpp
; File C:\IAGOS\server\v18\Source\Source\_network\CmnHdr.h
; File C:\IAGOS\server\v18\Source\Source\_Database\DbManagerFun.cpp
; File C:\IAGOS\server\v18\Source\Source\_network\CmnHdr.h
; File C:\IAGOS\server\v18\Source\Source\_Database\DbManagerFun.cpp
; File C:\IAGOS\server\v18\Source\Source\_database\DbManager.h
; File C:\IAGOS\server\v18\Source\Source\_Database\DbManagerFun.cpp
; File C:\IAGOS\server\v18\Source\Source\_network\CmnHdr.h
; File C:\IAGOS\server\v18\Source\Source\_Database\DbManagerFun.cpp
;	COMDAT ?GetBankMover@CDbManager@@QAEHPAVCMover@@PAVCQuery@@H@Z
_TEXT	SEGMENT
$T2 = -18996						; size = 4
_nAvailLevel$3 = -18992					; size = 1
_this$GSCopy$1$ = -18988				; size = 4
_pMover$GSCopy$1$ = -18984				; size = 4
_nSlot$GSCopy$1$ = -18980				; size = 4
tv965 = -18976						; size = 4
tv1010 = -18976						; size = 4
tv1011 = -18976						; size = 4
tv1012 = -18976						; size = 4
tv977 = -18972						; size = 4
tv1022 = -18972						; size = 4
$T4 = -18972						; size = 4
_CountStr$ = -18968					; size = 4
_BufItemElem$5 = -18964					; size = 152
_Bank$ = -18812						; size = 7500
_PirecingBank$ = -11312					; size = 4000
_szPet$ = -7312						; size = 4200
_ExtBank$ = -3112					; size = 2000
_ObjIndexBank$ = -1112					; size = 512
_m_apIndexBank$ = -600					; size = 512
_strTemp$6 = -88					; size = 50
_szFmt$7 = -72						; size = 33
_szName$8 = -36						; size = 17
__$ArrayPad$ = -16					; size = 4
__$EHRec$ = -12						; size = 12
_pMover$ = 8						; size = 4
_qry$ = 12						; size = 4
_nSlot$ = 16						; size = 4
?GetBankMover@CDbManager@@QAEHPAVCMover@@PAVCQuery@@H@Z PROC ; CDbManager::GetBankMover, COMDAT
; _this$ = ecx

; 324  : {

  00000	55		 push	 ebp
  00001	8b ec		 mov	 ebp, esp
  00003	6a ff		 push	 -1
  00005	68 00 00 00 00	 push	 __ehhandler$?GetBankMover@CDbManager@@QAEHPAVCMover@@PAVCQuery@@H@Z
  0000a	64 a1 00 00 00
	00		 mov	 eax, DWORD PTR fs:0
  00010	50		 push	 eax
  00011	b8 28 4a 00 00	 mov	 eax, 18984		; 00004a28H
  00016	e8 00 00 00 00	 call	 __chkstk
  0001b	a1 00 00 00 00	 mov	 eax, DWORD PTR ___security_cookie
  00020	33 c5		 xor	 eax, ebp
  00022	89 45 f0	 mov	 DWORD PTR __$ArrayPad$[ebp], eax
  00025	56		 push	 esi
  00026	57		 push	 edi
  00027	50		 push	 eax
  00028	8d 45 f4	 lea	 eax, DWORD PTR __$EHRec$[ebp]
  0002b	64 a3 00 00 00
	00		 mov	 DWORD PTR fs:0, eax
  00031	89 8d d4 b5 ff
	ff		 mov	 DWORD PTR _this$GSCopy$1$[ebp], ecx
  00037	8b 45 10	 mov	 eax, DWORD PTR _nSlot$[ebp]
  0003a	8b 7d 08	 mov	 edi, DWORD PTR _pMover$[ebp]
  0003d	8b 75 0c	 mov	 esi, DWORD PTR _qry$[ebp]

; 325  : 	int CountStr	= 0;
; 326  : 	int itemCount	= 0;
; 327  : 	int	IndexItem	= 0;
; 328  : 	int IndexObjIndex	= 0;
; 329  : 	int nExtBankCount = 0;
; 330  : 	int nPirecingBankCount = 0;
; 331  : 	char Bank[7500]		= { 0, };

  00040	68 4c 1d 00 00	 push	 7500			; 00001d4cH
  00045	89 85 dc b5 ff
	ff		 mov	 DWORD PTR _nSlot$GSCopy$1$[ebp], eax
  0004b	8d 85 84 b6 ff
	ff		 lea	 eax, DWORD PTR _Bank$[ebp]
  00051	6a 00		 push	 0
  00053	50		 push	 eax
  00054	89 bd d8 b5 ff
	ff		 mov	 DWORD PTR _pMover$GSCopy$1$[ebp], edi
  0005a	e8 00 00 00 00	 call	 _memset

; 332  : 	char m_apIndexBank[512]		= { 0, };

  0005f	68 00 02 00 00	 push	 512			; 00000200H
  00064	8d 85 a8 fd ff
	ff		 lea	 eax, DWORD PTR _m_apIndexBank$[ebp]
  0006a	6a 00		 push	 0
  0006c	50		 push	 eax
  0006d	e8 00 00 00 00	 call	 _memset

; 333  : 	char ObjIndexBank[512]	= { 0, };

  00072	68 00 02 00 00	 push	 512			; 00000200H
  00077	8d 85 a8 fb ff
	ff		 lea	 eax, DWORD PTR _ObjIndexBank$[ebp]
  0007d	6a 00		 push	 0
  0007f	50		 push	 eax
  00080	e8 00 00 00 00	 call	 _memset

; 334  : 	char ExtBank[2000] = {0,};	

  00085	68 d0 07 00 00	 push	 2000			; 000007d0H
  0008a	8d 85 d8 f3 ff
	ff		 lea	 eax, DWORD PTR _ExtBank$[ebp]
  00090	6a 00		 push	 0
  00092	50		 push	 eax
  00093	e8 00 00 00 00	 call	 _memset

; 335  : 	char PirecingBank[4000] = {0,};

  00098	68 a0 0f 00 00	 push	 4000			; 00000fa0H
  0009d	8d 85 d0 d3 ff
	ff		 lea	 eax, DWORD PTR _PirecingBank$[ebp]
  000a3	6a 00		 push	 0
  000a5	50		 push	 eax
  000a6	e8 00 00 00 00	 call	 _memset

; 336  : #ifdef __PET_1024
; 337  : 	char szPet[4200]	= { 0,};

  000ab	68 68 10 00 00	 push	 4200			; 00001068H
  000b0	8d 85 70 e3 ff
	ff		 lea	 eax, DWORD PTR _szPet$[ebp]
  000b6	6a 00		 push	 0
  000b8	50		 push	 eax
  000b9	e8 00 00 00 00	 call	 _memset
  000be	83 c4 48	 add	 esp, 72			; 00000048H

; 338  : #else	// __PET_1024
; 339  : 	char szPet[2688]	= { 0,};
; 340  : #endif	// __PET_1024
; 341  : 	
; 342  : 	qry->GetStr( "m_Bank", Bank );

  000c1	8d 85 84 b6 ff
	ff		 lea	 eax, DWORD PTR _Bank$[ebp]
  000c7	8b ce		 mov	 ecx, esi
  000c9	50		 push	 eax
  000ca	68 00 00 00 00	 push	 OFFSET ??_C@_06BAMDHIIP@m_Bank@
  000cf	e8 00 00 00 00	 call	 ?GetStr@CQuery@@QAEXPAD0@Z ; CQuery::GetStr

; 343  : 	qry->GetStr( "m_apIndex_Bank", m_apIndexBank );

  000d4	8d 85 a8 fd ff
	ff		 lea	 eax, DWORD PTR _m_apIndexBank$[ebp]
  000da	8b ce		 mov	 ecx, esi
  000dc	50		 push	 eax
  000dd	68 00 00 00 00	 push	 OFFSET ??_C@_0P@KMLFLAAK@m_apIndex_Bank@
  000e2	e8 00 00 00 00	 call	 ?GetStr@CQuery@@QAEXPAD0@Z ; CQuery::GetStr

; 344  : 	qry->GetStr("m_dwObjIndex_Bank", ObjIndexBank );

  000e7	8d 85 a8 fb ff
	ff		 lea	 eax, DWORD PTR _ObjIndexBank$[ebp]
  000ed	8b ce		 mov	 ecx, esi
  000ef	50		 push	 eax
  000f0	68 00 00 00 00	 push	 OFFSET ??_C@_0BC@HHMCMCCB@m_dwObjIndex_Bank@
  000f5	e8 00 00 00 00	 call	 ?GetStr@CQuery@@QAEXPAD0@Z ; CQuery::GetStr

; 345  : 	qry->GetStr( "m_extBank", ExtBank );

  000fa	8d 85 d8 f3 ff
	ff		 lea	 eax, DWORD PTR _ExtBank$[ebp]
  00100	8b ce		 mov	 ecx, esi
  00102	50		 push	 eax
  00103	68 00 00 00 00	 push	 OFFSET ??_C@_09CHFBCGKD@m_extBank@
  00108	e8 00 00 00 00	 call	 ?GetStr@CQuery@@QAEXPAD0@Z ; CQuery::GetStr

; 346  : 	qry->GetStr( "m_BankPiercing", PirecingBank );

  0010d	8d 85 d0 d3 ff
	ff		 lea	 eax, DWORD PTR _PirecingBank$[ebp]
  00113	8b ce		 mov	 ecx, esi
  00115	50		 push	 eax
  00116	68 00 00 00 00	 push	 OFFSET ??_C@_0P@HANLGJJC@m_BankPiercing@
  0011b	e8 00 00 00 00	 call	 ?GetStr@CQuery@@QAEXPAD0@Z ; CQuery::GetStr

; 347  : 	qry->GetStr( "szBankPet", szPet );

  00120	8d 85 70 e3 ff
	ff		 lea	 eax, DWORD PTR _szPet$[ebp]
  00126	8b ce		 mov	 ecx, esi
  00128	50		 push	 eax
  00129	68 00 00 00 00	 push	 OFFSET ??_C@_09DAKBPAHF@szBankPet@
  0012e	e8 00 00 00 00	 call	 ?GetStr@CQuery@@QAEXPAD0@Z ; CQuery::GetStr
; File C:\IAGOS\server\v18\Source\Source\_database\DbManager.h

; 1305 : 	int len		= strlen( lpString );

  00133	8d 8d 84 b6 ff
	ff		 lea	 ecx, DWORD PTR _Bank$[ebp]
; File C:\IAGOS\server\v18\Source\Source\_Database\DbManagerFun.cpp

; 349  : 	CountStr	= 0;	IndexItem	= 0;			

  00139	c7 85 e8 b5 ff
	ff 00 00 00 00	 mov	 DWORD PTR _CountStr$[ebp], 0
; File C:\IAGOS\server\v18\Source\Source\_database\DbManager.h

; 1305 : 	int len		= strlen( lpString );

  00143	8d 51 01	 lea	 edx, DWORD PTR [ecx+1]
$LL119@GetBankMov:
  00146	8a 01		 mov	 al, BYTE PTR [ecx]
  00148	41		 inc	 ecx
  00149	84 c0		 test	 al, al
  0014b	75 f9		 jne	 SHORT $LL119@GetBankMov
  0014d	2b ca		 sub	 ecx, edx

; 1306 : 	if( len > 0 && lpString[len-1] == '$' )

  0014f	85 c9		 test	 ecx, ecx
  00151	0f 8e 9e 06 00
	00		 jle	 $LN44@GetBankMov
  00157	80 bc 0d 83 b6
	ff ff 24	 cmp	 BYTE PTR _Bank$[ebp+ecx-1], 36 ; 00000024H
  0015f	0f 85 90 06 00
	00		 jne	 $LN44@GetBankMov
; File C:\IAGOS\server\v18\Source\Source\_Database\DbManagerFun.cpp

; 351  : 	while( '$' != Bank[CountStr] )

  00165	80 bd 84 b6 ff
	ff 24		 cmp	 BYTE PTR _Bank$[ebp], 36 ; 00000024H
; File C:\IAGOS\server\v18\Source\Source\_database\DbManager.h

; 1307 : 		return TRUE;

  0016c	8b f7		 mov	 esi, edi
  0016e	8d 7e 6c	 lea	 edi, DWORD PTR [esi+108]
; File C:\IAGOS\server\v18\Source\Source\_Database\DbManagerFun.cpp

; 351  : 	while( '$' != Bank[CountStr] )

  00171	0f 84 a9 00 00
	00		 je	 $LN3@GetBankMov
  00177	66 0f 1f 84 00
	00 00 00 00	 npad	 9
$LL2@GetBankMov:

; 352  : 	{
; 353  : 		CItemElem BufItemElem;

  00180	8d 8d ec b5 ff
	ff		 lea	 ecx, DWORD PTR _BufItemElem$5[ebp]
  00186	e8 00 00 00 00	 call	 ??0CItemElem@@QAE@XZ	; CItemElem::CItemElem

; 354  : 		IndexItem = GetOneItem( &BufItemElem, Bank, &CountStr );

  0018b	8b 8d d4 b5 ff
	ff		 mov	 ecx, DWORD PTR _this$GSCopy$1$[ebp]
  00191	8d 85 e8 b5 ff
	ff		 lea	 eax, DWORD PTR _CountStr$[ebp]
  00197	50		 push	 eax
  00198	8d 85 84 b6 ff
	ff		 lea	 eax, DWORD PTR _Bank$[ebp]
  0019e	c7 45 fc 00 00
	00 00		 mov	 DWORD PTR __$EHRec$[ebp+8], 0
  001a5	50		 push	 eax
  001a6	8d 85 ec b5 ff
	ff		 lea	 eax, DWORD PTR _BufItemElem$5[ebp]
  001ac	50		 push	 eax
  001ad	e8 00 00 00 00	 call	 ?GetOneItem@CDbManager@@QAEHPAVCItemElem@@PADPAH@Z ; CDbManager::GetOneItem
  001b2	8b c8		 mov	 ecx, eax

; 355  : 		if( IndexItem == -1 )

  001b4	83 f9 ff	 cmp	 ecx, -1
  001b7	75 16		 jne	 SHORT $LN18@GetBankMov

; 356  : 		{
; 357  : 			Error( "Bank = %s", Bank );

  001b9	8d 85 84 b6 ff
	ff		 lea	 eax, DWORD PTR _Bank$[ebp]
  001bf	50		 push	 eax
  001c0	68 00 00 00 00	 push	 OFFSET ??_C@_09EFEJAHGE@Bank?5?$DN?5?$CFs@
  001c5	e8 00 00 00 00	 call	 ?Error@@YAPBDPBDZZ	; Error
  001ca	83 c4 08	 add	 esp, 8

; 358  : 		}

  001cd	eb 2b		 jmp	 SHORT $LN19@GetBankMov
$LN18@GetBankMov:

; 359  : 		else
; 360  : 		{
; 361  : 			if( IndexItem >= MAX_BANK )

  001cf	83 f9 2a	 cmp	 ecx, 42			; 0000002aH
  001d2	0f 8d 05 01 00
	00		 jge	 $LN82@GetBankMov

; 365  : 			}
; 366  : 			pMover->m_Bank[nSlot].m_apItem[IndexItem] = BufItemElem;

  001d8	8b 85 dc b5 ff
	ff		 mov	 eax, DWORD PTR _nSlot$GSCopy$1$[ebp]
  001de	8d 95 ec b5 ff
	ff		 lea	 edx, DWORD PTR _BufItemElem$5[ebp]
  001e4	69 c9 98 00 00
	00		 imul	 ecx, ecx, 152
  001ea	52		 push	 edx
  001eb	8d 04 80	 lea	 eax, DWORD PTR [eax+eax*4]
  001ee	03 8c 86 f0 3b
	00 00		 add	 ecx, DWORD PTR [esi+eax*4+15344]
  001f5	8b 01		 mov	 eax, DWORD PTR [ecx]
  001f7	ff 50 10	 call	 DWORD PTR [eax+16]
$LN19@GetBankMov:

; 367  : 		}
; 368  : 	}

  001fa	8d 8d ec b5 ff
	ff		 lea	 ecx, DWORD PTR _BufItemElem$5[ebp]
  00200	c7 45 fc ff ff
	ff ff		 mov	 DWORD PTR __$EHRec$[ebp+8], -1
  00207	e8 00 00 00 00	 call	 ??1CItemElem@@UAE@XZ	; CItemElem::~CItemElem
  0020c	8b 85 e8 b5 ff
	ff		 mov	 eax, DWORD PTR _CountStr$[ebp]
  00212	80 bc 05 84 b6
	ff ff 24	 cmp	 BYTE PTR _Bank$[ebp+eax], 36 ; 00000024H
  0021a	0f 85 60 ff ff
	ff		 jne	 $LL2@GetBankMov
$LN3@GetBankMov:
; File C:\IAGOS\server\v18\Source\Source\_database\DbManager.h

; 1305 : 	int len		= strlen( lpString );

  00220	8d 8d a8 fd ff
	ff		 lea	 ecx, DWORD PTR _m_apIndexBank$[ebp]
; File C:\IAGOS\server\v18\Source\Source\_Database\DbManagerFun.cpp

; 370  : 	CountStr	= 0;	itemCount	= 0;

  00226	33 f6		 xor	 esi, esi
; File C:\IAGOS\server\v18\Source\Source\_database\DbManager.h

; 1305 : 	int len		= strlen( lpString );

  00228	8d 51 01	 lea	 edx, DWORD PTR [ecx+1]
  0022b	0f 1f 44 00 00	 npad	 5
$LL120@GetBankMov:
  00230	8a 01		 mov	 al, BYTE PTR [ecx]
  00232	41		 inc	 ecx
  00233	84 c0		 test	 al, al
  00235	75 f9		 jne	 SHORT $LL120@GetBankMov
  00237	2b ca		 sub	 ecx, edx

; 1306 : 	if( len > 0 && lpString[len-1] == '$' )

  00239	85 c9		 test	 ecx, ecx
  0023b	0f 8e ad 05 00
	00		 jle	 $LN50@GetBankMov
  00241	80 bc 0d a7 fd
	ff ff 24	 cmp	 BYTE PTR _m_apIndexBank$[ebp+ecx-1], 36 ; 00000024H
  00249	0f 85 9f 05 00
	00		 jne	 $LN50@GetBankMov
; File C:\IAGOS\server\v18\Source\Source\_Database\DbManagerFun.cpp

; 372  : 	while( '$' != m_apIndexBank[CountStr] )

  0024f	8a 85 a8 fd ff
	ff		 mov	 al, BYTE PTR _m_apIndexBank$[ebp]
  00255	3c 24		 cmp	 al, 36			; 00000024H
  00257	0f 84 a4 00 00
	00		 je	 $LN110@GetBankMov
; File C:\IAGOS\server\v18\Source\Source\_network\CmnHdr.h

; 92   : {

  0025d	89 b5 e4 b5 ff
	ff		 mov	 DWORD PTR tv977[ebp], esi
$LL4@GetBankMov:

; 93   : 	char strTemp[50];
; 94   : 	int count=0;

  00263	33 c9		 xor	 ecx, ecx

; 95   : 	while(pBuf[*pLocation]!=',' && pBuf[*pLocation]!='/' && pBuf[*pLocation]!=0) {

  00265	3c 2c		 cmp	 al, 44			; 0000002cH
  00267	74 29		 je	 SHORT $LN115@GetBankMov
  00269	0f 1f 80 00 00
	00 00		 npad	 7
$LL37@GetBankMov:
  00270	3c 2f		 cmp	 al, 47			; 0000002fH
  00272	74 15		 je	 SHORT $LN38@GetBankMov
  00274	84 c0		 test	 al, al
  00276	74 11		 je	 SHORT $LN38@GetBankMov

; 96   : 		strTemp[count]=pBuf[*pLocation];
; 97   : 		count++; (*pLocation)++;

  00278	46		 inc	 esi
  00279	88 44 0d a8	 mov	 BYTE PTR _strTemp$6[ebp+ecx], al
  0027d	41		 inc	 ecx
  0027e	8a 84 35 a8 fd
	ff ff		 mov	 al, BYTE PTR _m_apIndexBank$[ebp+esi]
  00285	3c 2c		 cmp	 al, 44			; 0000002cH
  00287	75 e7		 jne	 SHORT $LL37@GetBankMov
$LN38@GetBankMov:

; 99   : 	strTemp[count]=0;(*pLocation)++;

  00289	83 f9 32	 cmp	 ecx, 50			; 00000032H
  0028c	0f 83 9e 05 00
	00		 jae	 $LN40@GetBankMov
$LN115@GetBankMov:

; 100  : 	return atoi(strTemp);

  00292	8d 45 a8	 lea	 eax, DWORD PTR _strTemp$6[ebp]
  00295	c6 44 0d a8 00	 mov	 BYTE PTR _strTemp$6[ebp+ecx], 0
  0029a	50		 push	 eax
  0029b	46		 inc	 esi
  0029c	e8 00 00 00 00	 call	 _atoi
; File C:\IAGOS\server\v18\Source\Source\_Database\DbManagerFun.cpp

; 374  : 		pMover->m_Bank[nSlot].m_apIndex[itemCount]		= (DWORD)GetIntFromStr( m_apIndexBank, &CountStr );

  002a1	8b 95 dc b5 ff
	ff		 mov	 edx, DWORD PTR _nSlot$GSCopy$1$[ebp]
; File C:\IAGOS\server\v18\Source\Source\_network\CmnHdr.h

; 100  : 	return atoi(strTemp);

  002a7	83 c4 04	 add	 esp, 4
; File C:\IAGOS\server\v18\Source\Source\_Database\DbManagerFun.cpp

; 374  : 		pMover->m_Bank[nSlot].m_apIndex[itemCount]		= (DWORD)GetIntFromStr( m_apIndexBank, &CountStr );

  002aa	8d 0c 92	 lea	 ecx, DWORD PTR [edx+edx*4]
  002ad	8b 95 d8 b5 ff
	ff		 mov	 edx, DWORD PTR _pMover$GSCopy$1$[ebp]
  002b3	8b 8c 8a e8 3b
	00 00		 mov	 ecx, DWORD PTR [edx+ecx*4+15336]
  002ba	8b 95 e4 b5 ff
	ff		 mov	 edx, DWORD PTR tv977[ebp]

; 375  : 		itemCount++;

  002c0	83 85 e4 b5 ff
	ff 04		 add	 DWORD PTR tv977[ebp], 4
  002c7	89 04 0a	 mov	 DWORD PTR [edx+ecx], eax
  002ca	8a 84 35 a8 fd
	ff ff		 mov	 al, BYTE PTR _m_apIndexBank$[ebp+esi]
  002d1	8b 95 dc b5 ff
	ff		 mov	 edx, DWORD PTR _nSlot$GSCopy$1$[ebp]
  002d7	3c 24		 cmp	 al, 36			; 00000024H
  002d9	75 88		 jne	 SHORT $LL4@GetBankMov

; 372  : 	while( '$' != m_apIndexBank[CountStr] )

  002db	eb 2a		 jmp	 SHORT $LN5@GetBankMov
$LN82@GetBankMov:

; 362  : 			{
; 363  : 				Error( "Bank = %s", Bank );

  002dd	8d 85 84 b6 ff
	ff		 lea	 eax, DWORD PTR _Bank$[ebp]
  002e3	50		 push	 eax
  002e4	68 00 00 00 00	 push	 OFFSET ??_C@_09EFEJAHGE@Bank?5?$DN?5?$CFs@
  002e9	e8 00 00 00 00	 call	 ?Error@@YAPBDPBDZZ	; Error
  002ee	83 c4 08	 add	 esp, 8

; 364  : 				return FALSE;

  002f1	8d 8d ec b5 ff
	ff		 lea	 ecx, DWORD PTR _BufItemElem$5[ebp]
  002f7	e8 00 00 00 00	 call	 ??1CItemElem@@UAE@XZ	; CItemElem::~CItemElem
  002fc	e9 10 05 00 00	 jmp	 $LN129@GetBankMov
$LN110@GetBankMov:
  00301	8b 95 dc b5 ff
	ff		 mov	 edx, DWORD PTR _nSlot$GSCopy$1$[ebp]
$LN5@GetBankMov:
; File C:\IAGOS\server\v18\Source\Source\_database\DbManager.h

; 1305 : 	int len		= strlen( lpString );

  00307	8d 8d a8 fb ff
	ff		 lea	 ecx, DWORD PTR _ObjIndexBank$[ebp]
; File C:\IAGOS\server\v18\Source\Source\_Database\DbManagerFun.cpp

; 378  : 	CountStr	= 0;	IndexObjIndex	= 0;

  0030d	c7 85 e8 b5 ff
	ff 00 00 00 00	 mov	 DWORD PTR _CountStr$[ebp], 0
; File C:\IAGOS\server\v18\Source\Source\_database\DbManager.h

; 1305 : 	int len		= strlen( lpString );

  00317	8d 71 01	 lea	 esi, DWORD PTR [ecx+1]
  0031a	66 0f 1f 44 00
	00		 npad	 6
$LL121@GetBankMov:
  00320	8a 01		 mov	 al, BYTE PTR [ecx]
  00322	41		 inc	 ecx
  00323	84 c0		 test	 al, al
  00325	75 f9		 jne	 SHORT $LL121@GetBankMov
  00327	2b ce		 sub	 ecx, esi

; 1306 : 	if( len > 0 && lpString[len-1] == '$' )

  00329	85 c9		 test	 ecx, ecx
  0032b	0f 8e b6 04 00
	00		 jle	 $LN54@GetBankMov
  00331	80 bc 0d a7 fb
	ff ff 24	 cmp	 BYTE PTR _ObjIndexBank$[ebp+ecx-1], 36 ; 00000024H
  00339	0f 85 a8 04 00
	00		 jne	 $LN54@GetBankMov
; File C:\IAGOS\server\v18\Source\Source\_Database\DbManagerFun.cpp

; 380  : 	while( '$' != ObjIndexBank[CountStr] )

  0033f	80 bd a8 fb ff
	ff 24		 cmp	 BYTE PTR _ObjIndexBank$[ebp], 36 ; 00000024H
  00346	74 66		 je	 SHORT $LN7@GetBankMov
  00348	8b 8d d8 b5 ff
	ff		 mov	 ecx, DWORD PTR _pMover$GSCopy$1$[ebp]
  0034e	8d 82 bf 03 00
	00		 lea	 eax, DWORD PTR [edx+959]
  00354	8d 04 82	 lea	 eax, DWORD PTR [edx+eax*4]
  00357	89 bd e4 b5 ff
	ff		 mov	 DWORD PTR $T4[ebp], edi
  0035d	33 ff		 xor	 edi, edi
  0035f	8d 04 81	 lea	 eax, DWORD PTR [ecx+eax*4]
  00362	89 85 e0 b5 ff
	ff		 mov	 DWORD PTR tv1012[ebp], eax
  00368	0f 1f 84 00 00
	00 00 00	 npad	 8
$LL6@GetBankMov:

; 381  : 	{
; 382  : 		pMover->m_Bank[nSlot].m_apItem[IndexObjIndex].m_dwObjIndex		= (DWORD)GetIntFromStr( ObjIndexBank, &CountStr );

  00370	8b 30		 mov	 esi, DWORD PTR [eax]
  00372	8d 85 e8 b5 ff
	ff		 lea	 eax, DWORD PTR _CountStr$[ebp]
  00378	50		 push	 eax
  00379	8d 85 a8 fb ff
	ff		 lea	 eax, DWORD PTR _ObjIndexBank$[ebp]
  0037f	50		 push	 eax
  00380	e8 00 00 00 00	 call	 ?GetIntFromStr@@YAHPADPAH@Z ; GetIntFromStr
  00385	89 44 3e 2c	 mov	 DWORD PTR [esi+edi+44], eax

; 383  : 		IndexObjIndex++;

  00389	8d bf 98 00 00
	00		 lea	 edi, DWORD PTR [edi+152]
  0038f	8b 85 e8 b5 ff
	ff		 mov	 eax, DWORD PTR _CountStr$[ebp]
  00395	83 c4 08	 add	 esp, 8
  00398	80 bc 05 a8 fb
	ff ff 24	 cmp	 BYTE PTR _ObjIndexBank$[ebp+eax], 36 ; 00000024H
  003a0	8b 85 e0 b5 ff
	ff		 mov	 eax, DWORD PTR tv1012[ebp]
  003a6	75 c8		 jne	 SHORT $LL6@GetBankMov
  003a8	8b bd e4 b5 ff
	ff		 mov	 edi, DWORD PTR $T4[ebp]
$LN7@GetBankMov:
; File C:\IAGOS\server\v18\Source\Source\_database\DbManager.h

; 1305 : 	int len		= strlen( lpString );

  003ae	8d 8d d8 f3 ff
	ff		 lea	 ecx, DWORD PTR _ExtBank$[ebp]
; File C:\IAGOS\server\v18\Source\Source\_Database\DbManagerFun.cpp

; 386  : 	CountStr	= 0; 	nExtBankCount	= 0;

  003b4	c7 85 e8 b5 ff
	ff 00 00 00 00	 mov	 DWORD PTR _CountStr$[ebp], 0
; File C:\IAGOS\server\v18\Source\Source\_database\DbManager.h

; 1305 : 	int len		= strlen( lpString );

  003be	8d 51 01	 lea	 edx, DWORD PTR [ecx+1]
$LL122@GetBankMov:
  003c1	8a 01		 mov	 al, BYTE PTR [ecx]
  003c3	41		 inc	 ecx
  003c4	84 c0		 test	 al, al
  003c6	75 f9		 jne	 SHORT $LL122@GetBankMov
  003c8	2b ca		 sub	 ecx, edx

; 1306 : 	if( len > 0 && lpString[len-1] == '$' )

  003ca	85 c9		 test	 ecx, ecx
  003cc	0f 8e 0e 04 00
	00		 jle	 $LN62@GetBankMov
  003d2	80 bc 0d d7 f3
	ff ff 24	 cmp	 BYTE PTR _ExtBank$[ebp+ecx-1], 36 ; 00000024H
  003da	0f 85 00 04 00
	00		 jne	 $LN62@GetBankMov
; File C:\IAGOS\server\v18\Source\Source\_Database\DbManagerFun.cpp

; 388  : 	while( '$' != ExtBank[CountStr] )

  003e0	80 bd d8 f3 ff
	ff 24		 cmp	 BYTE PTR _ExtBank$[ebp], 36 ; 00000024H
  003e7	0f 84 ea 00 00
	00		 je	 $LN9@GetBankMov
  003ed	8b 85 dc b5 ff
	ff		 mov	 eax, DWORD PTR _nSlot$GSCopy$1$[ebp]
  003f3	8b 8d d8 b5 ff
	ff		 mov	 ecx, DWORD PTR _pMover$GSCopy$1$[ebp]
  003f9	89 bd e4 b5 ff
	ff		 mov	 DWORD PTR $T4[ebp], edi
  003ff	33 ff		 xor	 edi, edi
  00401	8d 04 80	 lea	 eax, DWORD PTR [eax+eax*4]
  00404	8d 80 fc 0e 00
	00		 lea	 eax, DWORD PTR [eax+3836]
  0040a	8d 04 81	 lea	 eax, DWORD PTR [ecx+eax*4]
  0040d	89 85 e0 b5 ff
	ff		 mov	 DWORD PTR tv1011[ebp], eax
$LL8@GetBankMov:

; 389  : 	{
; 390  : 		pMover->m_Bank[nSlot].m_apItem[nExtBankCount].m_bCharged			= (BOOL)GetIntPaFromStr( ExtBank, &CountStr );

  00413	8b 30		 mov	 esi, DWORD PTR [eax]
  00415	8d 85 e8 b5 ff
	ff		 lea	 eax, DWORD PTR _CountStr$[ebp]
  0041b	50		 push	 eax
  0041c	8d 85 d8 f3 ff
	ff		 lea	 eax, DWORD PTR _ExtBank$[ebp]
  00422	50		 push	 eax
  00423	e8 00 00 00 00	 call	 ?GetIntPaFromStr@@YAHPADPAH@Z ; GetIntPaFromStr

; 391  : 		if( pMover->m_Bank[nSlot].m_apItem[nExtBankCount].m_bCharged != 1 )

  00428	8b 8d e0 b5 ff
	ff		 mov	 ecx, DWORD PTR tv1011[ebp]
  0042e	83 c4 08	 add	 esp, 8
  00431	89 44 3e 7c	 mov	 DWORD PTR [esi+edi+124], eax
  00435	8b 01		 mov	 eax, DWORD PTR [ecx]
  00437	83 7c 38 7c 01	 cmp	 DWORD PTR [eax+edi+124], 1
  0043c	74 08		 je	 SHORT $LN24@GetBankMov

; 392  : 			pMover->m_Bank[nSlot].m_apItem[nExtBankCount].m_bCharged	= 0;

  0043e	c7 44 38 7c 00
	00 00 00	 mov	 DWORD PTR [eax+edi+124], 0
$LN24@GetBankMov:

; 393  : 		pMover->m_Bank[nSlot].m_apItem[nExtBankCount].m_dwKeepTime		= (DWORD)GetIntPaFromStr( ExtBank, &CountStr );

  00446	8b 31		 mov	 esi, DWORD PTR [ecx]
  00448	8d 85 e8 b5 ff
	ff		 lea	 eax, DWORD PTR _CountStr$[ebp]
  0044e	50		 push	 eax
  0044f	8d 85 d8 f3 ff
	ff		 lea	 eax, DWORD PTR _ExtBank$[ebp]
  00455	50		 push	 eax
  00456	e8 00 00 00 00	 call	 ?GetIntPaFromStr@@YAHPADPAH@Z ; GetIntPaFromStr
  0045b	89 84 3e 80 00
	00 00		 mov	 DWORD PTR [esi+edi+128], eax

; 394  : #if __VER >= 11 // __SYS_IDENTIFY
; 395  : 		pMover->m_Bank[nSlot].m_apItem[nExtBankCount].SetRandomOptItemId( GetInt64PaFromStr( ExtBank, &CountStr ) );

  00462	8d 85 e8 b5 ff
	ff		 lea	 eax, DWORD PTR _CountStr$[ebp]
  00468	50		 push	 eax
  00469	8d 85 d8 f3 ff
	ff		 lea	 eax, DWORD PTR _ExtBank$[ebp]
  0046f	50		 push	 eax
  00470	e8 00 00 00 00	 call	 ?GetInt64PaFromStr@@YA_JPADPAH@Z ; GetInt64PaFromStr
  00475	8b b5 e0 b5 ff
	ff		 mov	 esi, DWORD PTR tv1011[ebp]
  0047b	8b 0e		 mov	 ecx, DWORD PTR [esi]
; File C:\IAGOS\server\v18\Source\Source\_Network\Objects\Obj.h

; 195  : 	void	SetRandomOptItemId( __int64 iRandomOptItemId )	{	m_iRandomOptItemId	= iRandomOptItemId;	}

  0047d	89 84 39 88 00
	00 00		 mov	 DWORD PTR [ecx+edi+136], eax
; File C:\IAGOS\server\v18\Source\Source\_Database\DbManagerFun.cpp

; 400  : 		pMover->m_Bank[nSlot].m_apItem[nExtBankCount].m_bTranformVisPet = static_cast<BOOL>( GetIntPaFromStr( ExtBank, &CountStr ) );

  00484	8d 85 e8 b5 ff
	ff		 lea	 eax, DWORD PTR _CountStr$[ebp]
  0048a	50		 push	 eax
  0048b	8d 85 d8 f3 ff
	ff		 lea	 eax, DWORD PTR _ExtBank$[ebp]
; File C:\IAGOS\server\v18\Source\Source\_Network\Objects\Obj.h

; 195  : 	void	SetRandomOptItemId( __int64 iRandomOptItemId )	{	m_iRandomOptItemId	= iRandomOptItemId;	}

  00491	89 94 39 8c 00
	00 00		 mov	 DWORD PTR [ecx+edi+140], edx
; File C:\IAGOS\server\v18\Source\Source\_Database\DbManagerFun.cpp

; 400  : 		pMover->m_Bank[nSlot].m_apItem[nExtBankCount].m_bTranformVisPet = static_cast<BOOL>( GetIntPaFromStr( ExtBank, &CountStr ) );

  00498	8b 36		 mov	 esi, DWORD PTR [esi]
  0049a	50		 push	 eax
  0049b	e8 00 00 00 00	 call	 ?GetIntPaFromStr@@YAHPADPAH@Z ; GetIntPaFromStr
  004a0	89 84 3e 94 00
	00 00		 mov	 DWORD PTR [esi+edi+148], eax
  004a7	83 c4 18	 add	 esp, 24			; 00000018H

; 401  : #endif // __PETVIS
; 402  : 		++CountStr;

  004aa	8b 85 e8 b5 ff
	ff		 mov	 eax, DWORD PTR _CountStr$[ebp]

; 403  : 		++nExtBankCount;

  004b0	81 c7 98 00 00
	00		 add	 edi, 152		; 00000098H
  004b6	40		 inc	 eax
  004b7	89 85 e8 b5 ff
	ff		 mov	 DWORD PTR _CountStr$[ebp], eax
  004bd	80 bc 05 d8 f3
	ff ff 24	 cmp	 BYTE PTR _ExtBank$[ebp+eax], 36 ; 00000024H
  004c5	8b 85 e0 b5 ff
	ff		 mov	 eax, DWORD PTR tv1011[ebp]
  004cb	0f 85 42 ff ff
	ff		 jne	 $LL8@GetBankMov
  004d1	8b bd e4 b5 ff
	ff		 mov	 edi, DWORD PTR $T4[ebp]
$LN9@GetBankMov:
; File C:\IAGOS\server\v18\Source\Source\_database\DbManager.h

; 1305 : 	int len		= strlen( lpString );

  004d7	8d 8d d0 d3 ff
	ff		 lea	 ecx, DWORD PTR _PirecingBank$[ebp]
; File C:\IAGOS\server\v18\Source\Source\_Database\DbManagerFun.cpp

; 406  : 	CountStr	= 0;

  004dd	c7 85 e8 b5 ff
	ff 00 00 00 00	 mov	 DWORD PTR _CountStr$[ebp], 0
; File C:\IAGOS\server\v18\Source\Source\_database\DbManager.h

; 1305 : 	int len		= strlen( lpString );

  004e7	8d 51 01	 lea	 edx, DWORD PTR [ecx+1]
  004ea	66 0f 1f 44 00
	00		 npad	 6
$LL123@GetBankMov:
  004f0	8a 01		 mov	 al, BYTE PTR [ecx]
  004f2	41		 inc	 ecx
  004f3	84 c0		 test	 al, al
  004f5	75 f9		 jne	 SHORT $LL123@GetBankMov
  004f7	2b ca		 sub	 ecx, edx

; 1306 : 	if( len > 0 && lpString[len-1] == '$' )

  004f9	85 c9		 test	 ecx, ecx
  004fb	0f 8e d8 02 00
	00		 jle	 $LN66@GetBankMov
  00501	80 bc 0d cf d3
	ff ff 24	 cmp	 BYTE PTR _PirecingBank$[ebp+ecx-1], 36 ; 00000024H
  00509	0f 85 ca 02 00
	00		 jne	 $LN66@GetBankMov
; File C:\IAGOS\server\v18\Source\Source\_Database\DbManagerFun.cpp

; 409  : 	while( '$' != PirecingBank[CountStr] )

  0050f	80 bd d0 d3 ff
	ff 24		 cmp	 BYTE PTR _PirecingBank$[ebp], 36 ; 00000024H
  00516	74 62		 je	 SHORT $LN11@GetBankMov
  00518	8b 85 dc b5 ff
	ff		 mov	 eax, DWORD PTR _nSlot$GSCopy$1$[ebp]
  0051e	33 f6		 xor	 esi, esi
  00520	8b 8d d8 b5 ff
	ff		 mov	 ecx, DWORD PTR _pMover$GSCopy$1$[ebp]
  00526	89 bd e4 b5 ff
	ff		 mov	 DWORD PTR $T4[ebp], edi
  0052c	8d 04 80	 lea	 eax, DWORD PTR [eax+eax*4]
  0052f	8d 80 fc 0e 00
	00		 lea	 eax, DWORD PTR [eax+3836]
  00535	8d 04 81	 lea	 eax, DWORD PTR [ecx+eax*4]
  00538	8b f8		 mov	 edi, eax
  0053a	66 0f 1f 44 00
	00		 npad	 6
$LL10@GetBankMov:

; 410  : 	{
; 411  : #if __VER >= 12 // __EXT_PIERCING
; 412  : 		LoadPiercingInfo( pMover->m_Bank[nSlot].m_apItem[nPirecingBankCount], PirecingBank, &CountStr );

  00540	8b 8d d4 b5 ff
	ff		 mov	 ecx, DWORD PTR _this$GSCopy$1$[ebp]
  00546	8d 85 e8 b5 ff
	ff		 lea	 eax, DWORD PTR _CountStr$[ebp]
  0054c	50		 push	 eax
  0054d	8d 85 d0 d3 ff
	ff		 lea	 eax, DWORD PTR _PirecingBank$[ebp]
  00553	50		 push	 eax
  00554	8b 07		 mov	 eax, DWORD PTR [edi]
  00556	03 c6		 add	 eax, esi
  00558	50		 push	 eax
  00559	e8 00 00 00 00	 call	 ?LoadPiercingInfo@CDbManager@@QAEXAAVCItemElem@@PADPAH@Z ; CDbManager::LoadPiercingInfo
  0055e	8b 85 e8 b5 ff
	ff		 mov	 eax, DWORD PTR _CountStr$[ebp]

; 413  : #else // __EXT_PIERCING
; 414  : 		int nItemIdCount = 0;
; 415  : 		pMover->m_Bank[nSlot].m_apItem[nPirecingBankCount].SetPiercingSize( GetIntFromStr( PirecingBank, &CountStr ) );
; 416  : 		for( int i = 0 ; i < pMover->m_Bank[nSlot].m_apItem[nPirecingBankCount].GetPiercingSize(); ++i )
; 417  : 		{
; 418  : 			pMover->m_Bank[nSlot].m_apItem[nPirecingBankCount].SetPiercingItem( nItemIdCount, (DWORD)GetIntFromStr( PirecingBank, &CountStr ) );
; 419  : 			++nItemIdCount;
; 420  : 		}
; 421  : #endif // __EXT_PIERCING
; 422  : 		++nPirecingBankCount;

  00564	81 c6 98 00 00
	00		 add	 esi, 152		; 00000098H
  0056a	80 bc 05 d0 d3
	ff ff 24	 cmp	 BYTE PTR _PirecingBank$[ebp+eax], 36 ; 00000024H
  00572	75 cc		 jne	 SHORT $LL10@GetBankMov
  00574	8b bd e4 b5 ff
	ff		 mov	 edi, DWORD PTR $T4[ebp]
$LN11@GetBankMov:
; File C:\IAGOS\server\v18\Source\Source\_database\DbManager.h

; 1305 : 	int len		= strlen( lpString );

  0057a	8d 8d 70 e3 ff
	ff		 lea	 ecx, DWORD PTR _szPet$[ebp]
; File C:\IAGOS\server\v18\Source\Source\_Database\DbManagerFun.cpp

; 425  : 	CountStr	= 0;

  00580	c7 85 e8 b5 ff
	ff 00 00 00 00	 mov	 DWORD PTR _CountStr$[ebp], 0
; File C:\IAGOS\server\v18\Source\Source\_database\DbManager.h

; 1305 : 	int len		= strlen( lpString );

  0058a	8d 51 01	 lea	 edx, DWORD PTR [ecx+1]
  0058d	0f 1f 00	 npad	 3
$LL124@GetBankMov:
  00590	8a 01		 mov	 al, BYTE PTR [ecx]
  00592	41		 inc	 ecx
  00593	84 c0		 test	 al, al
  00595	75 f9		 jne	 SHORT $LL124@GetBankMov
  00597	2b ca		 sub	 ecx, edx

; 1306 : 	if( len > 0 && lpString[len-1] == '$' )

  00599	85 c9		 test	 ecx, ecx
  0059b	0f 8e 31 02 00
	00		 jle	 $LN70@GetBankMov
  005a1	80 bc 0d 6f e3
	ff ff 24	 cmp	 BYTE PTR _szPet$[ebp+ecx-1], 36 ; 00000024H
  005a9	0f 85 23 02 00
	00		 jne	 $LN70@GetBankMov
; File C:\IAGOS\server\v18\Source\Source\_Database\DbManagerFun.cpp

; 428  : 	while( '$' != szPet[CountStr] )

  005af	80 bd 70 e3 ff
	ff 24		 cmp	 BYTE PTR _szPet$[ebp], 36 ; 00000024H
  005b6	0f 84 0f 02 00
	00		 je	 $LN13@GetBankMov
  005bc	33 f6		 xor	 esi, esi
  005be	89 b5 e0 b5 ff
	ff		 mov	 DWORD PTR tv965[ebp], esi
  005c4	0f 1f 40 00 0f
	1f 84 00 00 00
	00 00		 npad	 12
$LL12@GetBankMov:

; 429  : 	{
; 430  : 		BOOL bPet	= (BOOL)GetIntFromStr( szPet, &CountStr );

  005d0	8d 85 e8 b5 ff
	ff		 lea	 eax, DWORD PTR _CountStr$[ebp]
  005d6	50		 push	 eax
  005d7	8d 85 70 e3 ff
	ff		 lea	 eax, DWORD PTR _szPet$[ebp]
  005dd	50		 push	 eax
  005de	e8 00 00 00 00	 call	 ?GetIntFromStr@@YAHPADPAH@Z ; GetIntFromStr
  005e3	83 c4 08	 add	 esp, 8

; 431  : 		if( bPet )

  005e6	85 c0		 test	 eax, eax
  005e8	0f 84 b9 01 00
	00		 je	 $LN125@GetBankMov

; 432  : 		{
; 433  : 			SAFE_DELETE( pMover->m_Bank[nSlot].m_apItem[nId].m_pPet );

  005ee	8b 85 dc b5 ff
	ff		 mov	 eax, DWORD PTR _nSlot$GSCopy$1$[ebp]
  005f4	8b 8d d8 b5 ff
	ff		 mov	 ecx, DWORD PTR _pMover$GSCopy$1$[ebp]
  005fa	8d 04 80	 lea	 eax, DWORD PTR [eax+eax*4]
  005fd	8d 80 fc 0e 00
	00		 lea	 eax, DWORD PTR [eax+3836]
  00603	8d 3c 81	 lea	 edi, DWORD PTR [ecx+eax*4]
  00606	8b 07		 mov	 eax, DWORD PTR [edi]
  00608	89 bd e4 b5 ff
	ff		 mov	 DWORD PTR tv1022[ebp], edi
  0060e	8b 8c 30 90 00
	00 00		 mov	 ecx, DWORD PTR [eax+esi+144]
  00615	85 c9		 test	 ecx, ecx
  00617	74 13		 je	 SHORT $LN28@GetBankMov
  00619	8b 01		 mov	 eax, DWORD PTR [ecx]
  0061b	6a 01		 push	 1
  0061d	ff 10		 call	 DWORD PTR [eax]
  0061f	8b 07		 mov	 eax, DWORD PTR [edi]
  00621	c7 84 30 90 00
	00 00 00 00 00
	00		 mov	 DWORD PTR [eax+esi+144], 0
$LN28@GetBankMov:

; 434  : 			CPet* pPet	= pMover->m_Bank[nSlot].m_apItem[nId].m_pPet		= new CPet;

  0062c	6a 28		 push	 40			; 00000028H
  0062e	e8 00 00 00 00	 call	 ??2@YAPAXI@Z		; operator new
  00633	83 c4 04	 add	 esp, 4
  00636	89 85 cc b5 ff
	ff		 mov	 DWORD PTR $T2[ebp], eax
  0063c	c7 45 fc 01 00
	00 00		 mov	 DWORD PTR __$EHRec$[ebp+8], 1
  00643	85 c0		 test	 eax, eax
  00645	74 0b		 je	 SHORT $LN32@GetBankMov
  00647	8b c8		 mov	 ecx, eax
  00649	e8 00 00 00 00	 call	 ??0CPet@@QAE@XZ		; CPet::CPet
  0064e	8b f8		 mov	 edi, eax
  00650	eb 02		 jmp	 SHORT $LN33@GetBankMov
$LN32@GetBankMov:
  00652	33 ff		 xor	 edi, edi
$LN33@GetBankMov:
  00654	8b 85 e4 b5 ff
	ff		 mov	 eax, DWORD PTR tv1022[ebp]
  0065a	c7 45 fc ff ff
	ff ff		 mov	 DWORD PTR __$EHRec$[ebp+8], -1
  00661	8b 00		 mov	 eax, DWORD PTR [eax]
  00663	89 bc 30 90 00
	00 00		 mov	 DWORD PTR [eax+esi+144], edi

; 435  : 			BYTE nKind	= (BYTE)GetIntFromStr( szPet, &CountStr );

  0066a	8d 85 e8 b5 ff
	ff		 lea	 eax, DWORD PTR _CountStr$[ebp]
  00670	50		 push	 eax
  00671	8d 85 70 e3 ff
	ff		 lea	 eax, DWORD PTR _szPet$[ebp]
  00677	50		 push	 eax
  00678	e8 00 00 00 00	 call	 ?GetIntFromStr@@YAHPADPAH@Z ; GetIntFromStr

; 436  : 			pPet->SetKind( nKind );

  0067d	88 47 04	 mov	 BYTE PTR [edi+4], al

; 437  : 			BYTE nLevel	= (BYTE)GetIntFromStr( szPet, &CountStr );

  00680	8d 85 e8 b5 ff
	ff		 lea	 eax, DWORD PTR _CountStr$[ebp]
  00686	50		 push	 eax
  00687	8d 85 70 e3 ff
	ff		 lea	 eax, DWORD PTR _szPet$[ebp]
  0068d	50		 push	 eax
  0068e	e8 00 00 00 00	 call	 ?GetIntFromStr@@YAHPADPAH@Z ; GetIntFromStr

; 438  : 			pPet->SetLevel( nLevel );

  00693	88 47 05	 mov	 BYTE PTR [edi+5], al

; 439  : 			DWORD dwExp	= (DWORD)GetIntFromStr( szPet, &CountStr );

  00696	8d 85 e8 b5 ff
	ff		 lea	 eax, DWORD PTR _CountStr$[ebp]
  0069c	50		 push	 eax
  0069d	8d 85 70 e3 ff
	ff		 lea	 eax, DWORD PTR _szPet$[ebp]
  006a3	50		 push	 eax
  006a4	e8 00 00 00 00	 call	 ?GetIntFromStr@@YAHPADPAH@Z ; GetIntFromStr
  006a9	83 c4 18	 add	 esp, 24			; 00000018H

; 440  : 			pPet->SetExp( dwExp );

  006ac	8b cf		 mov	 ecx, edi
  006ae	50		 push	 eax
  006af	e8 00 00 00 00	 call	 ?SetExp@CPet@@QAEXK@Z	; CPet::SetExp

; 441  : 			WORD wEnergy	= (WORD)GetIntFromStr( szPet, &CountStr );

  006b4	8d 85 e8 b5 ff
	ff		 lea	 eax, DWORD PTR _CountStr$[ebp]
  006ba	50		 push	 eax
  006bb	8d 85 70 e3 ff
	ff		 lea	 eax, DWORD PTR _szPet$[ebp]
  006c1	50		 push	 eax
  006c2	e8 00 00 00 00	 call	 ?GetIntFromStr@@YAHPADPAH@Z ; GetIntFromStr
  006c7	83 c4 08	 add	 esp, 8
  006ca	0f b7 c0	 movzx	 eax, ax

; 442  : 			pPet->SetEnergy( wEnergy );

  006cd	8b cf		 mov	 ecx, edi
  006cf	50		 push	 eax
  006d0	e8 00 00 00 00	 call	 ?SetEnergy@CPet@@QAEXG@Z ; CPet::SetEnergy

; 443  : #ifdef __PET_1024
; 444  : 			WORD wLife	= (WORD)GetIntPaFromStr( szPet, &CountStr );

  006d5	8d 85 e8 b5 ff
	ff		 lea	 eax, DWORD PTR _CountStr$[ebp]
  006db	50		 push	 eax
  006dc	8d 85 70 e3 ff
	ff		 lea	 eax, DWORD PTR _szPet$[ebp]
  006e2	50		 push	 eax
  006e3	e8 00 00 00 00	 call	 ?GetIntPaFromStr@@YAHPADPAH@Z ; GetIntPaFromStr
  006e8	83 c4 08	 add	 esp, 8

; 445  : 			pPet->SetLife( wLife );

  006eb	66 89 47 0e	 mov	 WORD PTR [edi+14], ax

; 446  : 			for( int i = PL_D; i <= pPet->GetLevel(); i++ )

  006ef	80 7f 05 01	 cmp	 BYTE PTR [edi+5], 1
  006f3	be 01 00 00 00	 mov	 esi, 1
  006f8	72 39		 jb	 SHORT $LN15@GetBankMov
  006fa	66 0f 1f 44 00
	00		 npad	 6
$LL16@GetBankMov:

; 447  : 			{
; 448  : 				BYTE nAvailLevel	= (BYTE)GetIntPaFromStr( szPet, &CountStr );

  00700	8d 85 e8 b5 ff
	ff		 lea	 eax, DWORD PTR _CountStr$[ebp]
  00706	50		 push	 eax
  00707	8d 85 70 e3 ff
	ff		 lea	 eax, DWORD PTR _szPet$[ebp]
  0070d	50		 push	 eax
  0070e	e8 00 00 00 00	 call	 ?GetIntPaFromStr@@YAHPADPAH@Z ; GetIntPaFromStr
  00713	83 c4 08	 add	 esp, 8
  00716	88 85 d0 b5 ff
	ff		 mov	 BYTE PTR _nAvailLevel$3[ebp], al

; 449  : 				pPet->SetAvailLevel( i, nAvailLevel );

  0071c	8b cf		 mov	 ecx, edi
  0071e	ff b5 d0 b5 ff
	ff		 push	 DWORD PTR _nAvailLevel$3[ebp]
  00724	56		 push	 esi
  00725	e8 00 00 00 00	 call	 ?SetAvailLevel@CPet@@QAEXEE@Z ; CPet::SetAvailLevel
  0072a	0f b6 47 05	 movzx	 eax, BYTE PTR [edi+5]
  0072e	46		 inc	 esi
  0072f	3b f0		 cmp	 esi, eax
  00731	7e cd		 jle	 SHORT $LL16@GetBankMov
$LN15@GetBankMov:
; File C:\IAGOS\server\v18\Source\Source\_network\CmnHdr.h

; 106  : 	while(pBuf[*pLocation]!=',' && pBuf[*pLocation]!='/' && pBuf[*pLocation]!=0) {

  00733	8b b5 e8 b5 ff
	ff		 mov	 esi, DWORD PTR _CountStr$[ebp]
  00739	0f 57 c0	 xorps	 xmm0, xmm0

; 101  : }
; 102  : 
; 103  : inline void GetStrFromStr(char *pBuf, char *strReturn, int *pLocation)
; 104  : {
; 105  : 	int count=0;

  0073c	33 c9		 xor	 ecx, ecx
; File C:\IAGOS\server\v18\Source\Source\_Database\DbManagerFun.cpp

; 451  : 			char szFmt[MAX_PET_NAME_FMT]	= { 0,};

  0073e	c6 45 d8 00	 mov	 BYTE PTR _szFmt$7[ebp+32], 0
  00742	0f 11 45 b8	 movups	 XMMWORD PTR _szFmt$7[ebp], xmm0
; File C:\IAGOS\server\v18\Source\Source\_network\CmnHdr.h

; 106  : 	while(pBuf[*pLocation]!=',' && pBuf[*pLocation]!='/' && pBuf[*pLocation]!=0) {

  00746	8a 84 35 70 e3
	ff ff		 mov	 al, BYTE PTR _szPet$[ebp+esi]
; File C:\IAGOS\server\v18\Source\Source\_Database\DbManagerFun.cpp

; 451  : 			char szFmt[MAX_PET_NAME_FMT]	= { 0,};

  0074d	0f 11 45 c8	 movups	 XMMWORD PTR _szFmt$7[ebp+16], xmm0
; File C:\IAGOS\server\v18\Source\Source\_network\CmnHdr.h

; 106  : 	while(pBuf[*pLocation]!=',' && pBuf[*pLocation]!='/' && pBuf[*pLocation]!=0) {

  00751	3c 2c		 cmp	 al, 44			; 0000002cH
  00753	74 19		 je	 SHORT $LN59@GetBankMov
$LL58@GetBankMov:
  00755	3c 2f		 cmp	 al, 47			; 0000002fH
  00757	74 15		 je	 SHORT $LN59@GetBankMov
  00759	84 c0		 test	 al, al
  0075b	74 11		 je	 SHORT $LN59@GetBankMov

; 107  : 		strReturn[count]=pBuf[*pLocation];
; 108  : 		count++; (*pLocation)++;

  0075d	46		 inc	 esi
  0075e	88 44 0d b8	 mov	 BYTE PTR _szFmt$7[ebp+ecx], al
  00762	41		 inc	 ecx
  00763	8a 84 35 70 e3
	ff ff		 mov	 al, BYTE PTR _szPet$[ebp+esi]
  0076a	3c 2c		 cmp	 al, 44			; 0000002cH
  0076c	75 e7		 jne	 SHORT $LL58@GetBankMov
$LN59@GetBankMov:
; File C:\IAGOS\server\v18\Source\Source\_Database\DbManagerFun.cpp

; 454  : 			GetDBFormatStr( szName, MAX_PET_NAME, szFmt );

  0076e	8d 45 b8	 lea	 eax, DWORD PTR _szFmt$7[ebp]
; File C:\IAGOS\server\v18\Source\Source\_network\CmnHdr.h

; 110  : 	strReturn[count]=0;(*pLocation)++;

  00771	c6 44 0d b8 00	 mov	 BYTE PTR _szFmt$7[ebp+ecx], 0
; File C:\IAGOS\server\v18\Source\Source\_Database\DbManagerFun.cpp

; 454  : 			GetDBFormatStr( szName, MAX_PET_NAME, szFmt );

  00776	8b 8d d4 b5 ff
	ff		 mov	 ecx, DWORD PTR _this$GSCopy$1$[ebp]
  0077c	0f 57 c0	 xorps	 xmm0, xmm0
  0077f	50		 push	 eax
  00780	6a 11		 push	 17			; 00000011H
  00782	8d 45 dc	 lea	 eax, DWORD PTR _szName$8[ebp]
  00785	c6 45 ec 00	 mov	 BYTE PTR _szName$8[ebp+16], 0
; File C:\IAGOS\server\v18\Source\Source\_network\CmnHdr.h

; 110  : 	strReturn[count]=0;(*pLocation)++;

  00789	46		 inc	 esi
; File C:\IAGOS\server\v18\Source\Source\_Database\DbManagerFun.cpp

; 454  : 			GetDBFormatStr( szName, MAX_PET_NAME, szFmt );

  0078a	50		 push	 eax
; File C:\IAGOS\server\v18\Source\Source\_network\CmnHdr.h

; 110  : 	strReturn[count]=0;(*pLocation)++;

  0078b	89 b5 e8 b5 ff
	ff		 mov	 DWORD PTR _CountStr$[ebp], esi
; File C:\IAGOS\server\v18\Source\Source\_Database\DbManagerFun.cpp

; 453  : 			char szName[MAX_PET_NAME]	= { 0,};

  00791	0f 11 45 dc	 movups	 XMMWORD PTR _szName$8[ebp], xmm0

; 454  : 			GetDBFormatStr( szName, MAX_PET_NAME, szFmt );

  00795	e8 00 00 00 00	 call	 ?GetDBFormatStr@CDbManager@@AAEXPADHPBD@Z ; CDbManager::GetDBFormatStr

; 455  : 			pPet->SetName( szName );

  0079a	8d 45 dc	 lea	 eax, DWORD PTR _szName$8[ebp]
  0079d	8b cf		 mov	 ecx, edi
  0079f	50		 push	 eax
  007a0	e8 00 00 00 00	 call	 ?SetName@CPet@@QAEXPBD@Z ; CPet::SetName
  007a5	eb 06		 jmp	 SHORT $LN27@GetBankMov
$LN125@GetBankMov:

; 431  : 		if( bPet )

  007a7	8b b5 e8 b5 ff
	ff		 mov	 esi, DWORD PTR _CountStr$[ebp]
$LN27@GetBankMov:

; 456  : #else	// __PET_1024
; 457  : 			WORD wLife	= (WORD)GetIntFromStr( szPet, &CountStr );
; 458  : 			pPet->SetLife( wLife );
; 459  : 			for( int i = PL_D; i <= pPet->GetLevel(); i++ )
; 460  : 			{
; 461  : 				BYTE nAvailLevel	= (BYTE)GetIntFromStr( szPet, &CountStr );
; 462  : 				pPet->SetAvailLevel( i, nAvailLevel );
; 463  : 			}
; 464  : #endif	// __PET_1024
; 465  : 		}
; 466  : 		nId++;

  007ad	81 85 e0 b5 ff
	ff 98 00 00 00	 add	 DWORD PTR tv965[ebp], 152 ; 00000098H
  007b7	80 bc 35 70 e3
	ff ff 24	 cmp	 BYTE PTR _szPet$[ebp+esi], 36 ; 00000024H
  007bf	8b b5 e0 b5 ff
	ff		 mov	 esi, DWORD PTR tv965[ebp]
  007c5	0f 85 05 fe ff
	ff		 jne	 $LL12@GetBankMov
$LN13@GetBankMov:

; 467  : 	}
; 468  : 	return TRUE;

  007cb	b8 01 00 00 00	 mov	 eax, 1
  007d0	eb 41		 jmp	 SHORT $LN1@GetBankMov
$LN70@GetBankMov:
; File C:\IAGOS\server\v18\Source\Source\_database\DbManager.h

; 1308 : 	WriteLog( "%s, %d\t%s", lpFileName, nLine, lpName );

  007d2	b8 ab 01 00 00	 mov	 eax, 427		; 000001abH
  007d7	eb 24		 jmp	 SHORT $LN111@GetBankMov
$LN66@GetBankMov:
  007d9	b8 98 01 00 00	 mov	 eax, 408		; 00000198H
  007de	eb 1d		 jmp	 SHORT $LN111@GetBankMov
$LN62@GetBankMov:
  007e0	b8 83 01 00 00	 mov	 eax, 387		; 00000183H
  007e5	eb 16		 jmp	 SHORT $LN111@GetBankMov
$LN54@GetBankMov:
  007e7	b8 7b 01 00 00	 mov	 eax, 379		; 0000017bH
  007ec	eb 0f		 jmp	 SHORT $LN111@GetBankMov
$LN50@GetBankMov:
  007ee	b8 73 01 00 00	 mov	 eax, 371		; 00000173H
  007f3	eb 08		 jmp	 SHORT $LN111@GetBankMov
$LN44@GetBankMov:
  007f5	b8 5e 01 00 00	 mov	 eax, 350		; 0000015eH
; File C:\IAGOS\server\v18\Source\Source\_Database\DbManagerFun.cpp

; 350  : 	VERIFYSTRING_BANK( Bank, pMover->m_szName );

  007fa	83 c7 6c	 add	 edi, 108		; 0000006cH
$LN111@GetBankMov:

; 426  : 	int	nId	= 0;
; 427  : 	VERIFYSTRING_BANK( szPet, pMover->m_szName );

  007fd	57		 push	 edi
  007fe	50		 push	 eax
  007ff	68 00 00 00 00	 push	 OFFSET ??_C@_0DN@JBKLBOHO@C?3?2IAGOS?2server?2v18?2Source?2Sour@
  00804	68 00 00 00 00	 push	 OFFSET ??_C@_09GBAEEKDE@?$CFs?0?5?$CFd?7?$CFs@
  00809	e8 00 00 00 00	 call	 ?WriteLog@@YAXPBDZZ	; WriteLog
  0080e	83 c4 10	 add	 esp, 16			; 00000010H
$LN129@GetBankMov:

; 469  : }

  00811	33 c0		 xor	 eax, eax
$LN1@GetBankMov:
  00813	8b 4d f4	 mov	 ecx, DWORD PTR __$EHRec$[ebp]
  00816	64 89 0d 00 00
	00 00		 mov	 DWORD PTR fs:0, ecx
  0081d	59		 pop	 ecx
  0081e	5f		 pop	 edi
  0081f	5e		 pop	 esi
  00820	8b 4d f0	 mov	 ecx, DWORD PTR __$ArrayPad$[ebp]
  00823	33 cd		 xor	 ecx, ebp
  00825	e8 00 00 00 00	 call	 @__security_check_cookie@4
  0082a	8b e5		 mov	 esp, ebp
  0082c	5d		 pop	 ebp
  0082d	c2 0c 00	 ret	 12			; 0000000cH
$LN40@GetBankMov:
; File C:\IAGOS\server\v18\Source\Source\_network\CmnHdr.h

; 99   : 	strTemp[count]=0;(*pLocation)++;

  00830	e8 00 00 00 00	 call	 ___report_rangecheckfailure
$LN128@GetBankMov:
  00835	cc		 int	 3
_TEXT	ENDS
;	COMDAT text$x
text$x	SEGMENT
__unwindfunclet$?GetBankMover@CDbManager@@QAEHPAVCMover@@PAVCQuery@@H@Z$0:
  00000	8d 8d ec b5 ff
	ff		 lea	 ecx, DWORD PTR _BufItemElem$5[ebp]
  00006	e9 00 00 00 00	 jmp	 ??1CItemElem@@UAE@XZ	; CItemElem::~CItemElem
__unwindfunclet$?GetBankMover@CDbManager@@QAEHPAVCMover@@PAVCQuery@@H@Z$1:
  0000b	6a 28		 push	 40			; 00000028H
  0000d	8b 85 cc b5 ff
	ff		 mov	 eax, DWORD PTR $T2[ebp]
  00013	50		 push	 eax
  00014	e8 00 00 00 00	 call	 ??3@YAXPAXI@Z		; operator delete
  00019	83 c4 08	 add	 esp, 8
  0001c	c3		 ret	 0
  0001d	cc		 int	 3
  0001e	cc		 int	 3
  0001f	cc		 int	 3
  00020	cc		 int	 3
  00021	cc		 int	 3
__ehhandler$?GetBankMover@CDbManager@@QAEHPAVCMover@@PAVCQuery@@H@Z:
  00022	90		 npad	 1
  00023	90		 npad	 1
  00024	8b 54 24 08	 mov	 edx, DWORD PTR [esp+8]
  00028	8d 42 0c	 lea	 eax, DWORD PTR [edx+12]
  0002b	8b 8a cc b5 ff
	ff		 mov	 ecx, DWORD PTR [edx-18996]
  00031	33 c8		 xor	 ecx, eax
  00033	e8 00 00 00 00	 call	 @__security_check_cookie@4
  00038	8b 4a fc	 mov	 ecx, DWORD PTR [edx-4]
  0003b	33 c8		 xor	 ecx, eax
  0003d	e8 00 00 00 00	 call	 @__security_check_cookie@4
  00042	b8 00 00 00 00	 mov	 eax, OFFSET __ehfuncinfo$?GetBankMover@CDbManager@@QAEHPAVCMover@@PAVCQuery@@H@Z
  00047	e9 00 00 00 00	 jmp	 ___CxxFrameHandler3
text$x	ENDS
?GetBankMover@CDbManager@@QAEHPAVCMover@@PAVCQuery@@H@Z ENDP ; CDbManager::GetBankMover
; Function compile flags: /Ogtp
; File C:\IAGOS\server\v18\Source\Source\_Database\DbManagerFun.cpp
; File C:\IAGOS\server\v18\Source\Source\_network\CmnHdr.h
; File C:\IAGOS\server\v18\Source\Source\_Database\DbManagerFun.cpp
; File C:\IAGOS\server\v18\Source\Source\_network\CmnHdr.h
; File C:\IAGOS\server\v18\Source\Source\_Database\DbManagerFun.cpp
;	COMDAT ?GetOneQuest@CDbManager@@QAEXPAUtagQuest@@PADPAH@Z
_TEXT	SEGMENT
_pQuest$GSCopy$1$ = -64					; size = 4
tv738 = -60						; size = 4
_strTemp$1 = -56					; size = 50
__$ArrayPad$ = -4					; size = 4
_pQuest$ = 8						; size = 4
_pstrQuest$ = 12					; size = 4
_pLocation$ = 16					; size = 4
?GetOneQuest@CDbManager@@QAEXPAUtagQuest@@PADPAH@Z PROC	; CDbManager::GetOneQuest, COMDAT
; _this$ = ecx

; 1484 : {

  00000	55		 push	 ebp
  00001	8b ec		 mov	 ebp, esp
  00003	83 ec 40	 sub	 esp, 64			; 00000040H
  00006	a1 00 00 00 00	 mov	 eax, DWORD PTR ___security_cookie
  0000b	33 c5		 xor	 eax, ebp
  0000d	89 45 fc	 mov	 DWORD PTR __$ArrayPad$[ebp], eax
  00010	53		 push	 ebx
  00011	8b 5d 08	 mov	 ebx, DWORD PTR _pQuest$[ebp]
  00014	56		 push	 esi
  00015	8b 75 0c	 mov	 esi, DWORD PTR _pstrQuest$[ebp]
  00018	57		 push	 edi
  00019	8b 7d 10	 mov	 edi, DWORD PTR _pLocation$[ebp]

; 1485 : 	pQuest->m_wId				= (WORD)GetIntPaFromStr( pstrQuest, pLocation );

  0001c	57		 push	 edi
  0001d	56		 push	 esi
  0001e	89 5d c0	 mov	 DWORD PTR _pQuest$GSCopy$1$[ebp], ebx
  00021	e8 00 00 00 00	 call	 ?GetIntPaFromStr@@YAHPADPAH@Z ; GetIntPaFromStr

; 1486 : 	pQuest->m_nState			= (BYTE)GetIntPaFromStr( pstrQuest, pLocation );

  00026	57		 push	 edi
  00027	56		 push	 esi
  00028	66 89 43 04	 mov	 WORD PTR [ebx+4], ax
  0002c	e8 00 00 00 00	 call	 ?GetIntPaFromStr@@YAHPADPAH@Z ; GetIntPaFromStr

; 1487 : 	pQuest->m_wTime				= (WORD)GetIntPaFromStr( pstrQuest, pLocation );

  00031	57		 push	 edi
  00032	56		 push	 esi
  00033	88 03		 mov	 BYTE PTR [ebx], al
  00035	e8 00 00 00 00	 call	 ?GetIntPaFromStr@@YAHPADPAH@Z ; GetIntPaFromStr
  0003a	66 89 43 02	 mov	 WORD PTR [ebx+2], ax
  0003e	83 c4 18	 add	 esp, 24			; 00000018H
  00041	8b 45 c0	 mov	 eax, DWORD PTR _pQuest$GSCopy$1$[ebp]

; 1488 : 
; 1489 : #ifdef MAX_QUEST_COND_KILL
; 1490 : 	for (int i = 0; i < MAX_QUEST_COND_KILL; ++i)

  00044	33 db		 xor	 ebx, ebx
  00046	83 c0 06	 add	 eax, 6
  00049	89 45 c4	 mov	 DWORD PTR tv738[ebp], eax
  0004c	0f 1f 40 00	 npad	 4
$LL4@GetOneQues:
; File C:\IAGOS\server\v18\Source\Source\_network\CmnHdr.h

; 149  : 	while(pBuf[*pLocation]!=',' && pBuf[*pLocation]!=0)

  00050	8b 07		 mov	 eax, DWORD PTR [edi]
  00052	33 c9		 xor	 ecx, ecx
  00054	80 3c 30 2c	 cmp	 BYTE PTR [eax+esi], 44	; 0000002cH
  00058	74 2d		 je	 SHORT $LN27@GetOneQues
  0005a	66 0f 1f 44 00
	00		 npad	 6
$LL7@GetOneQues:
  00060	8a 14 06	 mov	 dl, BYTE PTR [esi+eax]
  00063	84 d2		 test	 dl, dl
  00065	74 17		 je	 SHORT $LN8@GetOneQues

; 150  : 	{
; 151  : 		if( pBuf[*pLocation]!='/' )

  00067	80 fa 2f	 cmp	 dl, 47			; 0000002fH
  0006a	0f 84 eb 00 00
	00		 je	 $LN9@GetOneQues

; 152  : 		{
; 153  : 			strTemp[count]=pBuf[*pLocation];
; 154  : 			count++; (*pLocation)++;

  00070	40		 inc	 eax
  00071	88 54 0d c8	 mov	 BYTE PTR _strTemp$1[ebp+ecx], dl
  00075	41		 inc	 ecx
  00076	89 07		 mov	 DWORD PTR [edi], eax
  00078	80 3c 30 2c	 cmp	 BYTE PTR [eax+esi], 44	; 0000002cH
  0007c	75 e2		 jne	 SHORT $LL7@GetOneQues
$LN8@GetOneQues:

; 165  : 				return atoi(strTemp);
; 166  : 			}
; 167  : 		}
; 168  : 	}
; 169  : 	strTemp[count]=0;(*pLocation)++;

  0007e	83 f9 32	 cmp	 ecx, 50			; 00000032H
  00081	0f 83 e8 00 00
	00		 jae	 $LN16@GetOneQues
$LN27@GetOneQues:
  00087	40		 inc	 eax
  00088	89 07		 mov	 DWORD PTR [edi], eax
$LN35@GetOneQues:
; File C:\IAGOS\server\v18\Source\Source\_Database\DbManagerFun.cpp

; 1491 : 		pQuest->m_nKillNPCNum[i] = (WORD)GetIntPaFromStr(pstrQuest, pLocation);

  0008a	8d 45 c8	 lea	 eax, DWORD PTR _strTemp$1[ebp]
  0008d	c6 44 0d c8 00	 mov	 BYTE PTR _strTemp$1[ebp+ecx], 0
  00092	50		 push	 eax
  00093	e8 00 00 00 00	 call	 _atoi
  00098	83 c4 04	 add	 esp, 4
$LN6@GetOneQues:
  0009b	8b 55 c4	 mov	 edx, DWORD PTR tv738[ebp]
  0009e	43		 inc	 ebx
  0009f	66 89 02	 mov	 WORD PTR [edx], ax
  000a2	83 c2 02	 add	 edx, 2
  000a5	89 55 c4	 mov	 DWORD PTR tv738[ebp], edx
  000a8	83 fb 02	 cmp	 ebx, 2
  000ab	7c a3		 jl	 SHORT $LL4@GetOneQues

; 1492 : #else
; 1493 : 	pQuest->m_nKillNPCNum[0] = (WORD)GetIntPaFromStr(pstrQuest, pLocation);	// chipi_091015 - NPC Kill Quest °ąĽö Č®Ŕĺ( BYTE -> WORD )
; 1494 : 	pQuest->m_nKillNPCNum[1] = (WORD)GetIntPaFromStr(pstrQuest, pLocation);	// chipi_091015 - NPC Kill Quest °ąĽö Č®Ŕĺ( BYTE -> WORD )
; 1495 : #endif
; 1496 : 
; 1497 : 	pQuest->m_bPatrol			= (BYTE)GetIntPaFromStr( pstrQuest, pLocation );

  000ad	57		 push	 edi
  000ae	56		 push	 esi
  000af	e8 00 00 00 00	 call	 ?GetIntPaFromStr@@YAHPADPAH@Z ; GetIntPaFromStr
  000b4	8b 5d c0	 mov	 ebx, DWORD PTR _pQuest$GSCopy$1$[ebp]

; 1498 : 	pQuest->m_bReserve2			= (BYTE)GetIntPaFromStr( pstrQuest, pLocation );

  000b7	57		 push	 edi
  000b8	56		 push	 esi
  000b9	8a 53 0a	 mov	 dl, BYTE PTR [ebx+10]
  000bc	32 d0		 xor	 dl, al
  000be	80 e2 01	 and	 dl, 1
  000c1	30 53 0a	 xor	 BYTE PTR [ebx+10], dl
  000c4	e8 00 00 00 00	 call	 ?GetIntPaFromStr@@YAHPADPAH@Z ; GetIntPaFromStr
  000c9	02 c0		 add	 al, al
  000cb	32 43 0a	 xor	 al, BYTE PTR [ebx+10]
  000ce	24 02		 and	 al, 2
  000d0	30 43 0a	 xor	 BYTE PTR [ebx+10], al

; 1499 : 	pQuest->m_bReserve3			= (BYTE)GetIntPaFromStr( pstrQuest, pLocation );

  000d3	57		 push	 edi
  000d4	56		 push	 esi
  000d5	e8 00 00 00 00	 call	 ?GetIntPaFromStr@@YAHPADPAH@Z ; GetIntPaFromStr
  000da	c0 e0 02	 shl	 al, 2
  000dd	32 43 0a	 xor	 al, BYTE PTR [ebx+10]
  000e0	24 04		 and	 al, 4
  000e2	30 43 0a	 xor	 BYTE PTR [ebx+10], al

; 1500 : 	pQuest->m_bReserve4			= (BYTE)GetIntPaFromStr( pstrQuest, pLocation );

  000e5	57		 push	 edi
  000e6	56		 push	 esi
  000e7	e8 00 00 00 00	 call	 ?GetIntPaFromStr@@YAHPADPAH@Z ; GetIntPaFromStr
  000ec	c0 e0 03	 shl	 al, 3
  000ef	32 43 0a	 xor	 al, BYTE PTR [ebx+10]
  000f2	24 08		 and	 al, 8
  000f4	30 43 0a	 xor	 BYTE PTR [ebx+10], al

; 1501 : 	pQuest->m_bReserve5			= (BYTE)GetIntPaFromStr( pstrQuest, pLocation );

  000f7	57		 push	 edi
  000f8	56		 push	 esi
  000f9	e8 00 00 00 00	 call	 ?GetIntPaFromStr@@YAHPADPAH@Z ; GetIntPaFromStr
  000fe	c0 e0 04	 shl	 al, 4
  00101	32 43 0a	 xor	 al, BYTE PTR [ebx+10]
  00104	24 10		 and	 al, 16			; 00000010H
  00106	30 43 0a	 xor	 BYTE PTR [ebx+10], al

; 1502 : 	pQuest->m_bReserve6			= (BYTE)GetIntPaFromStr( pstrQuest, pLocation );

  00109	57		 push	 edi
  0010a	56		 push	 esi
  0010b	e8 00 00 00 00	 call	 ?GetIntPaFromStr@@YAHPADPAH@Z ; GetIntPaFromStr
  00110	c0 e0 05	 shl	 al, 5
  00113	32 43 0a	 xor	 al, BYTE PTR [ebx+10]
  00116	24 20		 and	 al, 32			; 00000020H
  00118	30 43 0a	 xor	 BYTE PTR [ebx+10], al

; 1503 : 	pQuest->m_bReserve7			= (BYTE)GetIntPaFromStr( pstrQuest, pLocation );

  0011b	57		 push	 edi
  0011c	56		 push	 esi
  0011d	e8 00 00 00 00	 call	 ?GetIntPaFromStr@@YAHPADPAH@Z ; GetIntPaFromStr
  00122	c0 e0 06	 shl	 al, 6
  00125	32 43 0a	 xor	 al, BYTE PTR [ebx+10]
  00128	24 40		 and	 al, 64			; 00000040H
  0012a	30 43 0a	 xor	 BYTE PTR [ebx+10], al

; 1504 : 	pQuest->m_bReserve8			= (BYTE)GetIntPaFromStr( pstrQuest, pLocation );

  0012d	57		 push	 edi
  0012e	56		 push	 esi
  0012f	e8 00 00 00 00	 call	 ?GetIntPaFromStr@@YAHPADPAH@Z ; GetIntPaFromStr
  00134	0f b6 4b 0a	 movzx	 ecx, BYTE PTR [ebx+10]
  00138	83 c4 40	 add	 esp, 64			; 00000040H
  0013b	80 e1 7f	 and	 cl, 127			; 0000007fH
  0013e	c0 e0 07	 shl	 al, 7
  00141	0a c8		 or	 cl, al
  00143	88 4b 0a	 mov	 BYTE PTR [ebx+10], cl

; 1505 : 
; 1506 : 	++*pLocation;

  00146	ff 07		 inc	 DWORD PTR [edi]

; 1507 : }

  00148	8b 4d fc	 mov	 ecx, DWORD PTR __$ArrayPad$[ebp]
  0014b	5f		 pop	 edi
  0014c	5e		 pop	 esi
  0014d	33 cd		 xor	 ecx, ebp
  0014f	5b		 pop	 ebx
  00150	e8 00 00 00 00	 call	 @__security_check_cookie@4
  00155	8b e5		 mov	 esp, ebp
  00157	5d		 pop	 ebp
  00158	c2 0c 00	 ret	 12			; 0000000cH
$LN9@GetOneQues:
; File C:\IAGOS\server\v18\Source\Source\_network\CmnHdr.h

; 158  : 			if( count == 0 )

  0015b	85 c9		 test	 ecx, ecx
  0015d	75 07		 jne	 SHORT $LN11@GetOneQues

; 159  : 			{
; 160  : 				return 0;

  0015f	33 c0		 xor	 eax, eax
  00161	e9 35 ff ff ff	 jmp	 $LN6@GetOneQues
$LN11@GetOneQues:

; 161  : 			}
; 162  : 			else
; 163  : 			{
; 164  : 				strTemp[count]=0;

  00166	83 f9 32	 cmp	 ecx, 50			; 00000032H
  00169	0f 82 1b ff ff
	ff		 jb	 $LN35@GetOneQues
$LN16@GetOneQues:

; 165  : 				return atoi(strTemp);
; 166  : 			}
; 167  : 		}
; 168  : 	}
; 169  : 	strTemp[count]=0;(*pLocation)++;

  0016f	e8 00 00 00 00	 call	 ___report_rangecheckfailure
$LN34@GetOneQues:
  00174	cc		 int	 3
?GetOneQuest@CDbManager@@QAEXPAUtagQuest@@PADPAH@Z ENDP	; CDbManager::GetOneQuest
_TEXT	ENDS
; Function compile flags: /Ogtp
; File C:\IAGOS\server\v18\Source\Source\_Database\DbManagerFun.cpp
;	COMDAT ?GetOneSkill@CDbManager@@QAEXPAUtagSKILL@@PADPAH@Z
_TEXT	SEGMENT
_pSkill$ = 8						; size = 4
_pstrSkill$ = 12					; size = 4
_pLocation$ = 16					; size = 4
?GetOneSkill@CDbManager@@QAEXPAUtagSKILL@@PADPAH@Z PROC	; CDbManager::GetOneSkill, COMDAT
; _this$ = ecx

; 1474 : {

  00000	55		 push	 ebp
  00001	8b ec		 mov	 ebp, esp
  00003	53		 push	 ebx

; 1475 : 	(DWORD)GetIntPaFromStr( pstrSkill, pLocation );

  00004	8b 5d 10	 mov	 ebx, DWORD PTR _pLocation$[ebp]
  00007	56		 push	 esi
  00008	57		 push	 edi
  00009	8b 7d 0c	 mov	 edi, DWORD PTR _pstrSkill$[ebp]
  0000c	53		 push	 ebx
  0000d	57		 push	 edi
  0000e	e8 00 00 00 00	 call	 ?GetIntPaFromStr@@YAHPADPAH@Z ; GetIntPaFromStr

; 1476 : 	pSkill->dwLevel	= (DWORD)GetIntPaFromStr( pstrSkill, pLocation );

  00013	53		 push	 ebx
  00014	57		 push	 edi
  00015	e8 00 00 00 00	 call	 ?GetIntPaFromStr@@YAHPADPAH@Z ; GetIntPaFromStr
  0001a	8b 75 08	 mov	 esi, DWORD PTR _pSkill$[ebp]

; 1477 : 	pSkill->dwSkill	= (DWORD)GetIntPaFromStr( pstrSkill, pLocation );

  0001d	53		 push	 ebx
  0001e	57		 push	 edi
  0001f	89 46 04	 mov	 DWORD PTR [esi+4], eax
  00022	e8 00 00 00 00	 call	 ?GetIntPaFromStr@@YAHPADPAH@Z ; GetIntPaFromStr

; 1478 : 	(BOOL)GetIntPaFromStr( pstrSkill, pLocation );

  00027	53		 push	 ebx
  00028	57		 push	 edi
  00029	89 06		 mov	 DWORD PTR [esi], eax
  0002b	e8 00 00 00 00	 call	 ?GetIntPaFromStr@@YAHPADPAH@Z ; GetIntPaFromStr
  00030	83 c4 20	 add	 esp, 32			; 00000020H

; 1479 : 	
; 1480 : 	++*pLocation;

  00033	ff 03		 inc	 DWORD PTR [ebx]
  00035	5f		 pop	 edi
  00036	5e		 pop	 esi
  00037	5b		 pop	 ebx

; 1481 : }

  00038	5d		 pop	 ebp
  00039	c2 0c 00	 ret	 12			; 0000000cH
?GetOneSkill@CDbManager@@QAEXPAUtagSKILL@@PADPAH@Z ENDP	; CDbManager::GetOneSkill
_TEXT	ENDS
; Function compile flags: /Ogtp
; File C:\IAGOS\server\v18\Source\Source\_Database\DbManagerFun.cpp
; File C:\IAGOS\server\v18\Source\Source\_network\CmnHdr.h
; File C:\IAGOS\server\v18\Source\Source\_Database\DbManagerFun.cpp
; File C:\IAGOS\server\v18\Source\Source\_network\CmnHdr.h
; File C:\IAGOS\server\v18\Source\Source\_Database\DbManagerFun.cpp
; File C:\IAGOS\server\v18\Source\Source\_network\CmnHdr.h
; File C:\IAGOS\server\v18\Source\Source\_Database\DbManagerFun.cpp
; File C:\IAGOS\server\v18\Source\Source\_Network\Objects\Obj.h
; File C:\IAGOS\server\v18\Source\Source\_Database\DbManagerFun.cpp
; File C:\IAGOS\server\v18\Source\Source\_Network\Mcl\Include\CMclCritSec.h
; File C:\IAGOS\server\v18\Source\Source\_Database\DbManagerFun.cpp
; File C:\IAGOS\server\v18\Source\Source\_Network\Mcl\Include\CMclCritSec.h
; File C:\IAGOS\server\v18\Source\Source\_Database\DbManagerFun.cpp
; File C:\IAGOS\server\v18\Source\Source\_network\CmnHdr.h
; File C:\IAGOS\server\v18\Source\Source\_Database\DbManagerFun.cpp
;	COMDAT ?GetOneItem@CDbManager@@QAEHPAVCItemElem@@PADPAH@Z
_TEXT	SEGMENT
_IndexItem$1$ = -60					; size = 4
_strTemp$1 = -56					; size = 50
__$ArrayPad$ = -4					; size = 4
_pItemElem$ = 8						; size = 4
_pstrItem$ = 12						; size = 4
_pLocation$ = 16					; size = 4
?GetOneItem@CDbManager@@QAEHPAVCItemElem@@PADPAH@Z PROC	; CDbManager::GetOneItem, COMDAT
; _this$ = ecx

; 1427 : {

  00000	55		 push	 ebp
  00001	8b ec		 mov	 ebp, esp
  00003	83 ec 3c	 sub	 esp, 60			; 0000003cH
  00006	a1 00 00 00 00	 mov	 eax, DWORD PTR ___security_cookie
  0000b	33 c5		 xor	 eax, ebp
  0000d	89 45 fc	 mov	 DWORD PTR __$ArrayPad$[ebp], eax
  00010	53		 push	 ebx
  00011	8b 5d 08	 mov	 ebx, DWORD PTR _pItemElem$[ebp]
  00014	56		 push	 esi
  00015	8b 75 10	 mov	 esi, DWORD PTR _pLocation$[ebp]
  00018	57		 push	 edi
  00019	8b 7d 0c	 mov	 edi, DWORD PTR _pstrItem$[ebp]

; 1428 : 	int IndexItem		= 0;
; 1429 : 	IndexItem	= GetIntPaFromStr( pstrItem, pLocation );

  0001c	56		 push	 esi
  0001d	57		 push	 edi
  0001e	e8 00 00 00 00	 call	 ?GetIntPaFromStr@@YAHPADPAH@Z ; GetIntPaFromStr

; 1430 : 	pItemElem->m_dwItemId	= (DWORD)GetIntPaFromStr( pstrItem, pLocation );

  00023	56		 push	 esi
  00024	57		 push	 edi
  00025	89 45 c4	 mov	 DWORD PTR _IndexItem$1$[ebp], eax
  00028	e8 00 00 00 00	 call	 ?GetIntPaFromStr@@YAHPADPAH@Z ; GetIntPaFromStr

; 1431 : 	BOOL bEquip	= GetIntPaFromStr( pstrItem, pLocation );

  0002d	56		 push	 esi
  0002e	57		 push	 edi
  0002f	89 43 08	 mov	 DWORD PTR [ebx+8], eax
  00032	e8 00 00 00 00	 call	 ?GetIntPaFromStr@@YAHPADPAH@Z ; GetIntPaFromStr

; 1432 : 	int nTrade	= GetIntPaFromStr( pstrItem, pLocation );

  00037	56		 push	 esi
  00038	57		 push	 edi
  00039	e8 00 00 00 00	 call	 ?GetIntPaFromStr@@YAHPADPAH@Z ; GetIntPaFromStr
; File C:\IAGOS\server\v18\Source\Source\_network\CmnHdr.h

; 204  : 	while(pBuf[*pLocation]!=',' && pBuf[*pLocation]!=0)

  0003e	8b 06		 mov	 eax, DWORD PTR [esi]
; File C:\IAGOS\server\v18\Source\Source\_Database\DbManagerFun.cpp

; 1432 : 	int nTrade	= GetIntPaFromStr( pstrItem, pLocation );

  00040	83 c4 20	 add	 esp, 32			; 00000020H
; File C:\IAGOS\server\v18\Source\Source\_network\CmnHdr.h

; 203  : 	int count=0;

  00043	33 c9		 xor	 ecx, ecx

; 204  : 	while(pBuf[*pLocation]!=',' && pBuf[*pLocation]!=0)

  00045	80 3c 38 2c	 cmp	 BYTE PTR [eax+edi], 44	; 0000002cH
  00049	74 24		 je	 SHORT $LN8@GetOneItem
  0004b	0f 1f 44 00 00	 npad	 5
$LL7@GetOneItem:
  00050	8a 04 38	 mov	 al, BYTE PTR [eax+edi]
  00053	84 c0		 test	 al, al
  00055	74 18		 je	 SHORT $LN8@GetOneItem

; 205  : 	{
; 206  : 		if( pBuf[*pLocation]!='/' )

  00057	3c 2f		 cmp	 al, 47			; 0000002fH
  00059	0f 84 a6 00 00
	00		 je	 $LN9@GetOneItem

; 207  : 		{
; 208  : 			strReturn[count]=pBuf[*pLocation];

  0005f	88 44 19 0c	 mov	 BYTE PTR [ecx+ebx+12], al

; 209  : 			count++; (*pLocation)++;

  00063	41		 inc	 ecx
  00064	8b 06		 mov	 eax, DWORD PTR [esi]
  00066	40		 inc	 eax
  00067	89 06		 mov	 DWORD PTR [esi], eax
  00069	80 3c 38 2c	 cmp	 BYTE PTR [eax+edi], 44	; 0000002cH
  0006d	75 e1		 jne	 SHORT $LL7@GetOneItem
$LN8@GetOneItem:

; 222  : 		}
; 223  : 	}
; 224  : 	strReturn[count]=0;(*pLocation)++;

  0006f	c6 44 19 0c 00	 mov	 BYTE PTR [ecx+ebx+12], 0
  00074	ff 06		 inc	 DWORD PTR [esi]
$LN6@GetOneItem:
; File C:\IAGOS\server\v18\Source\Source\_Database\DbManagerFun.cpp

; 1434 : 	pItemElem->m_nItemNum	= GetIntPaFromStr( pstrItem, pLocation );

  00076	56		 push	 esi
  00077	57		 push	 edi
  00078	e8 00 00 00 00	 call	 ?GetIntPaFromStr@@YAHPADPAH@Z ; GetIntPaFromStr
  0007d	0f b7 c0	 movzx	 eax, ax

; 1435 : 
; 1436 : 	if( CheckValidItem( pItemElem->m_dwItemId, pItemElem->m_nItemNum ) == FALSE )

  00080	50		 push	 eax
  00081	ff 73 08	 push	 DWORD PTR [ebx+8]
  00084	66 89 43 66	 mov	 WORD PTR [ebx+102], ax
  00088	e8 00 00 00 00	 call	 ?CheckValidItem@@YAHKF@Z ; CheckValidItem
  0008d	83 c4 10	 add	 esp, 16			; 00000010H
  00090	85 c0		 test	 eax, eax
  00092	75 09		 jne	 SHORT $LN2@GetOneItem

; 1437 : 		pItemElem->m_nItemNum	= 1;

  00094	b8 01 00 00 00	 mov	 eax, 1
  00099	66 89 43 66	 mov	 WORD PTR [ebx+102], ax
$LN2@GetOneItem:

; 1438 : 
; 1439 : 	pItemElem->m_nRepairNumber	= (BYTE)GetIntPaFromStr( pstrItem, pLocation );

  0009d	56		 push	 esi
  0009e	57		 push	 edi
  0009f	e8 00 00 00 00	 call	 ?GetIntPaFromStr@@YAHPADPAH@Z ; GetIntPaFromStr

; 1440 : 	pItemElem->m_nHitPoint	= GetIntPaFromStr( pstrItem, pLocation );

  000a4	56		 push	 esi
  000a5	57		 push	 edi
  000a6	88 43 64	 mov	 BYTE PTR [ebx+100], al
  000a9	e8 00 00 00 00	 call	 ?GetIntPaFromStr@@YAHPADPAH@Z ; GetIntPaFromStr

; 1441 : 	pItemElem->m_nRepair	= GetIntPaFromStr( pstrItem, pLocation );

  000ae	56		 push	 esi
  000af	57		 push	 edi
  000b0	89 43 68	 mov	 DWORD PTR [ebx+104], eax
  000b3	e8 00 00 00 00	 call	 ?GetIntPaFromStr@@YAHPADPAH@Z ; GetIntPaFromStr

; 1442 : 	int nMaterial	= GetIntPaFromStr( pstrItem, pLocation );

  000b8	56		 push	 esi
  000b9	57		 push	 edi
  000ba	89 43 60	 mov	 DWORD PTR [ebx+96], eax
  000bd	e8 00 00 00 00	 call	 ?GetIntPaFromStr@@YAHPADPAH@Z ; GetIntPaFromStr

; 1443 : 	pItemElem->m_byFlag		= (BYTE)GetIntPaFromStr( pstrItem, pLocation );

  000c2	56		 push	 esi
  000c3	57		 push	 edi
  000c4	e8 00 00 00 00	 call	 ?GetIntPaFromStr@@YAHPADPAH@Z ; GetIntPaFromStr
  000c9	88 43 65	 mov	 BYTE PTR [ebx+101], al
  000cc	83 c4 28	 add	 esp, 40			; 00000028H
; File C:\IAGOS\server\v18\Source\Source\_network\CmnHdr.h

; 177  : 	while(pBuf[*pLocation]!=',' && pBuf[*pLocation]!=0)

  000cf	8b 06		 mov	 eax, DWORD PTR [esi]
  000d1	33 d2		 xor	 edx, edx
  000d3	80 3c 38 2c	 cmp	 BYTE PTR [eax+edi], 44	; 0000002cH
  000d7	74 54		 je	 SHORT $LN39@GetOneItem
  000d9	0f 1f 80 00 00
	00 00		 npad	 7
$LL15@GetOneItem:
  000e0	8a 0c 07	 mov	 cl, BYTE PTR [edi+eax]
  000e3	84 c9		 test	 cl, cl
  000e5	74 13		 je	 SHORT $LN16@GetOneItem

; 178  : 	{
; 179  : 		if( pBuf[*pLocation]!='/' )

  000e7	80 f9 2f	 cmp	 cl, 47			; 0000002fH
  000ea	74 2e		 je	 SHORT $LN17@GetOneItem

; 180  : 		{
; 181  : 			strTemp[count]=pBuf[*pLocation];
; 182  : 			count++; (*pLocation)++;

  000ec	40		 inc	 eax
  000ed	88 4c 15 c8	 mov	 BYTE PTR _strTemp$1[ebp+edx], cl
  000f1	42		 inc	 edx
  000f2	89 06		 mov	 DWORD PTR [esi], eax
  000f4	80 3c 38 2c	 cmp	 BYTE PTR [eax+edi], 44	; 0000002cH
  000f8	75 e6		 jne	 SHORT $LL15@GetOneItem
$LN16@GetOneItem:

; 197  : 	strTemp[count]=0;(*pLocation)++;

  000fa	83 fa 32	 cmp	 edx, 50			; 00000032H
  000fd	0f 83 dc 00 00
	00		 jae	 $LN24@GetOneItem
  00103	eb 28		 jmp	 SHORT $LN39@GetOneItem
$LN9@GetOneItem:

; 213  : 			if( count == 0 )

  00105	85 c9		 test	 ecx, ecx
  00107	75 08		 jne	 SHORT $LN11@GetOneItem

; 214  : 			{
; 215  : 				strReturn[0] = '\0';

  00109	88 4b 0c	 mov	 BYTE PTR [ebx+12], cl

; 216  : 			}

  0010c	e9 65 ff ff ff	 jmp	 $LN6@GetOneItem
$LN11@GetOneItem:

; 217  : 			else
; 218  : 			{
; 219  : 				strReturn[count]=pBuf[*pLocation];

  00111	88 44 19 0c	 mov	 BYTE PTR [ecx+ebx+12], al

; 220  : 			}
; 221  : 			return;

  00115	e9 5c ff ff ff	 jmp	 $LN6@GetOneItem
$LN17@GetOneItem:

; 186  : 			if( count == 0 )

  0011a	85 d2		 test	 edx, edx
  0011c	75 04		 jne	 SHORT $LN19@GetOneItem

; 187  : 			{
; 188  : 				return (SERIALNUMBER)0;

  0011e	33 c0		 xor	 eax, eax
  00120	eb 1f		 jmp	 SHORT $LN14@GetOneItem
$LN19@GetOneItem:

; 189  : 			}
; 190  : 			else
; 191  : 			{
; 192  : 				strTemp[count]=0;

  00122	83 fa 32	 cmp	 edx, 50			; 00000032H
  00125	0f 83 b4 00 00
	00		 jae	 $LN24@GetOneItem

; 193  : 				return atoi(strTemp);

  0012b	eb 03		 jmp	 SHORT $LN55@GetOneItem
$LN39@GetOneItem:

; 197  : 	strTemp[count]=0;(*pLocation)++;

  0012d	40		 inc	 eax
  0012e	89 06		 mov	 DWORD PTR [esi], eax
$LN55@GetOneItem:
; File C:\IAGOS\server\v18\Source\Source\_Database\DbManagerFun.cpp

; 1444 : 	pItemElem->SetSerialNumber( GetSerialNumberPaFromStr( pstrItem, pLocation ) );

  00130	8d 45 c8	 lea	 eax, DWORD PTR _strTemp$1[ebp]
  00133	c6 44 15 c8 00	 mov	 BYTE PTR _strTemp$1[ebp+edx], 0
  00138	50		 push	 eax
  00139	e8 00 00 00 00	 call	 _atoi
  0013e	83 c4 04	 add	 esp, 4
$LN14@GetOneItem:

; 1445 : 	pItemElem->SetOption( GetIntPaFromStr( pstrItem, pLocation ) );

  00141	56		 push	 esi
  00142	57		 push	 edi
  00143	89 43 30	 mov	 DWORD PTR [ebx+48], eax
  00146	e8 00 00 00 00	 call	 ?GetIntPaFromStr@@YAHPADPAH@Z ; GetIntPaFromStr

; 1446 : 	pItemElem->m_bItemResist	= (BYTE)GetIntPaFromStr( pstrItem, pLocation );

  0014b	56		 push	 esi
  0014c	57		 push	 edi
; File C:\IAGOS\server\v18\Source\Source\_Network\Objects\Obj.h

; 217  : 	void	SetOption( int nOption )	{ m_nAbilityOption = nOption; }

  0014d	89 43 5c	 mov	 DWORD PTR [ebx+92], eax
; File C:\IAGOS\server\v18\Source\Source\_Database\DbManagerFun.cpp

; 1446 : 	pItemElem->m_bItemResist	= (BYTE)GetIntPaFromStr( pstrItem, pLocation );

  00150	e8 00 00 00 00	 call	 ?GetIntPaFromStr@@YAHPADPAH@Z ; GetIntPaFromStr

; 1447 : 	pItemElem->m_nResistAbilityOption	= GetIntPaFromStr( pstrItem, pLocation );

  00155	56		 push	 esi
  00156	57		 push	 edi
  00157	88 43 70	 mov	 BYTE PTR [ebx+112], al
  0015a	e8 00 00 00 00	 call	 ?GetIntPaFromStr@@YAHPADPAH@Z ; GetIntPaFromStr

; 1448 : 	pItemElem->m_idGuild = (u_long)GetIntPaFromStr( pstrItem, pLocation );

  0015f	56		 push	 esi
  00160	57		 push	 edi
  00161	89 43 74	 mov	 DWORD PTR [ebx+116], eax
  00164	e8 00 00 00 00	 call	 ?GetIntPaFromStr@@YAHPADPAH@Z ; GetIntPaFromStr

; 1449 : 	pItemElem->m_nResistSMItemId = GetIntPaFromStr( pstrItem, pLocation );

  00169	56		 push	 esi
  0016a	57		 push	 edi
  0016b	89 43 6c	 mov	 DWORD PTR [ebx+108], eax
  0016e	e8 00 00 00 00	 call	 ?GetIntPaFromStr@@YAHPADPAH@Z ; GetIntPaFromStr

; 1450 : 	pItemElem->m_dwObjId		= IndexItem;

  00173	8b 7d c4	 mov	 edi, DWORD PTR _IndexItem$1$[ebp]
  00176	83 c4 28	 add	 esp, 40			; 00000028H

; 1451 : #if __VER >= 11 // __MA_VER11_05	// ÄÉ¸ŻĹÍ şŔŔÎ °Ĺ·ˇ ±â´É world,database,neuz
; 1452 : 	if( pItemElem->m_dwItemId == II_SYS_SYS_SCR_SEALCHARACTER )

  00179	81 7b 08 6c 67
	00 00		 cmp	 DWORD PTR [ebx+8], 26476 ; 0000676cH
  00180	89 43 78	 mov	 DWORD PTR [ebx+120], eax
  00183	89 7b 04	 mov	 DWORD PTR [ebx+4], edi
  00186	75 40		 jne	 SHORT $LN3@GetOneItem

; 1453 : 	{
; 1454 : 	#if __VER >= 11 // __SYS_PLAYER_DATA
; 1455 : 		CPlayerDataCenter::GetInstance()->m_Access.Enter();

  00188	e8 00 00 00 00	 call	 ?GetInstance@CPlayerDataCenter@@SAPAV1@XZ ; CPlayerDataCenter::GetInstance
; File C:\IAGOS\server\v18\Source\Source\_Network\Mcl\Include\CMclCritSec.h

; 33   : 		::EnterCriticalSection( &m_CritSec );

  0018d	83 c0 18	 add	 eax, 24			; 00000018H
  00190	50		 push	 eax
  00191	ff 15 00 00 00
	00		 call	 DWORD PTR __imp__EnterCriticalSection@4
; File C:\IAGOS\server\v18\Source\Source\_Database\DbManagerFun.cpp

; 1456 : 		const char*	lpszPlayer	= CPlayerDataCenter::GetInstance()->GetPlayerString( pItemElem->m_nHitPoint );

  00197	ff 73 68	 push	 DWORD PTR [ebx+104]
  0019a	e8 00 00 00 00	 call	 ?GetInstance@CPlayerDataCenter@@SAPAV1@XZ ; CPlayerDataCenter::GetInstance
  0019f	8b c8		 mov	 ecx, eax
  001a1	e8 00 00 00 00	 call	 ?GetPlayerString@CPlayerDataCenter@@QAEPBDK@Z ; CPlayerDataCenter::GetPlayerString

; 1457 : 	#else	// __SYS_PLAYER_DATA
; 1458 : 		LPCSTR lpszPlayer	= prj.GetPlayerString( pItemElem->m_nHitPoint );
; 1459 : 	#endif	// __SYS_PLAYER_DATA
; 1460 : 		if( lpszPlayer != NULL)

  001a6	85 c0		 test	 eax, eax
  001a8	74 0f		 je	 SHORT $LN4@GetOneItem

; 1461 : 			memcpy(pItemElem->m_szItemText,lpszPlayer,sizeof(pItemElem->m_szItemText));

  001aa	0f 10 00	 movups	 xmm0, XMMWORD PTR [eax]
  001ad	0f 11 43 0c	 movups	 XMMWORD PTR [ebx+12], xmm0
  001b1	0f 10 40 10	 movups	 xmm0, XMMWORD PTR [eax+16]
  001b5	0f 11 43 1c	 movups	 XMMWORD PTR [ebx+28], xmm0
$LN4@GetOneItem:

; 1462 : 	#if __VER >= 11 // __SYS_PLAYER_DATA
; 1463 : 		CPlayerDataCenter::GetInstance()->m_Access.Leave();

  001b9	e8 00 00 00 00	 call	 ?GetInstance@CPlayerDataCenter@@SAPAV1@XZ ; CPlayerDataCenter::GetInstance
; File C:\IAGOS\server\v18\Source\Source\_Network\Mcl\Include\CMclCritSec.h

; 39   : 		::LeaveCriticalSection( &m_CritSec );

  001be	83 c0 18	 add	 eax, 24			; 00000018H
  001c1	50		 push	 eax
  001c2	ff 15 00 00 00
	00		 call	 DWORD PTR __imp__LeaveCriticalSection@4
$LN3@GetOneItem:
; File C:\IAGOS\server\v18\Source\Source\_Database\DbManagerFun.cpp

; 1469 : 	++*pLocation;

  001c8	ff 06		 inc	 DWORD PTR [esi]

; 1470 : 	return IndexItem;

  001ca	8b c7		 mov	 eax, edi

; 1471 : }

  001cc	8b 4d fc	 mov	 ecx, DWORD PTR __$ArrayPad$[ebp]
  001cf	5f		 pop	 edi
  001d0	5e		 pop	 esi
  001d1	33 cd		 xor	 ecx, ebp
  001d3	5b		 pop	 ebx
  001d4	e8 00 00 00 00	 call	 @__security_check_cookie@4
  001d9	8b e5		 mov	 esp, ebp
  001db	5d		 pop	 ebp
  001dc	c2 0c 00	 ret	 12			; 0000000cH
$LN24@GetOneItem:
; File C:\IAGOS\server\v18\Source\Source\_network\CmnHdr.h

; 197  : 	strTemp[count]=0;(*pLocation)++;

  001df	e8 00 00 00 00	 call	 ___report_rangecheckfailure
$LN54@GetOneItem:
  001e4	cc		 int	 3
?GetOneItem@CDbManager@@QAEHPAVCItemElem@@PADPAH@Z ENDP	; CDbManager::GetOneItem
_TEXT	ENDS
; Function compile flags: /Ogtp
; File C:\IAGOS\server\v18\Source\Source\_Database\DbManagerFun.cpp
; File C:\IAGOS\server\v18\Source\Source\_Network\Objects\Obj.h
; File C:\IAGOS\server\v18\Source\Source\_Database\DbManagerFun.cpp
; File C:\IAGOS\server\v18\Source\Source\_Network\Objects\Obj.h
; File C:\IAGOS\server\v18\Source\Source\_Database\DbManagerFun.cpp
; File C:\IAGOS\server\v18\Source\Source\_Network\Objects\Obj.h
; File C:\IAGOS\server\v18\Source\Source\_Database\DbManagerFun.cpp
; File C:\IAGOS\server\v18\Source\Source\_Network\Objects\Obj.h
; File C:\IAGOS\server\v18\Source\Source\_Database\DbManagerFun.cpp
;	COMDAT ?GetHonor@CDbManager@@QAEXPAVCMover@@PAVCQuery@@PAUtagDB_OVERLAPPED_PLUS@@@Z
_TEXT	SEGMENT
_nCurrentTitleCount$1$ = -41576				; size = 4
_pMover$GSCopy$1$ = -41572				; size = 4
tv923 = -41568						; size = 4
_aTempHonor$ = -41564					; size = 600
_szQuery$ = -40964					; size = 40960
__$ArrayPad$ = -4					; size = 4
_pMover$ = 8						; size = 4
_qry$ = 12						; size = 4
_lpDbOverlappedPlus$ = 16				; size = 4
?GetHonor@CDbManager@@QAEXPAVCMover@@PAVCQuery@@PAUtagDB_OVERLAPPED_PLUS@@@Z PROC ; CDbManager::GetHonor, COMDAT
; _this$ = ecx

; 1107 : {

  00000	55		 push	 ebp
  00001	8b ec		 mov	 ebp, esp
  00003	b8 68 a2 00 00	 mov	 eax, 41576		; 0000a268H
  00008	e8 00 00 00 00	 call	 __chkstk
  0000d	a1 00 00 00 00	 mov	 eax, DWORD PTR ___security_cookie
  00012	33 c5		 xor	 eax, ebp
  00014	89 45 fc	 mov	 DWORD PTR __$ArrayPad$[ebp], eax
  00017	53		 push	 ebx
  00018	8b 5d 08	 mov	 ebx, DWORD PTR _pMover$[ebp]

; 1108 : 	// ł»°ˇ µî·ĎÇŃ ľĆŔĚµđ °ˇÁö°í żŔ±â
; 1109 : 	char szQuery[QUERY_SIZE]	= { 0,};

  0001b	8d 85 fc 5f ff
	ff		 lea	 eax, DWORD PTR _szQuery$[ebp]
  00021	57		 push	 edi
  00022	8b 7d 0c	 mov	 edi, DWORD PTR _qry$[ebp]
  00025	68 00 a0 00 00	 push	 40960			; 0000a000H
  0002a	6a 00		 push	 0
  0002c	50		 push	 eax
  0002d	89 9d 9c 5d ff
	ff		 mov	 DWORD PTR _pMover$GSCopy$1$[ebp], ebx
  00033	e8 00 00 00 00	 call	 _memset

; 1110 : 	sprintf( szQuery,

  00038	ff b3 90 00 00
	00		 push	 DWORD PTR [ebx+144]
  0003e	8d 85 fc 5f ff
	ff		 lea	 eax, DWORD PTR _szQuery$[ebp]
  00044	ff 35 00 00 00
	00		 push	 DWORD PTR ?g_appInfo@@3UAppInfo@@A
  0004a	68 00 00 00 00	 push	 OFFSET ??_C@_0CA@DBOKEMLK@usp_Master_Select?5?8?$CF02d?8?0?8?$CF07d?8@
  0004f	50		 push	 eax
  00050	e8 00 00 00 00	 call	 _sprintf
  00055	83 c4 1c	 add	 esp, 28			; 0000001cH

; 1111 : 		"usp_Master_Select '%02d','%07d'",
; 1112 : 		g_appInfo.dwSys, pMover->m_idPlayer );
; 1113 : 	if( FALSE == qry->Exec( szQuery ) )

  00058	8d 85 fc 5f ff
	ff		 lea	 eax, DWORD PTR _szQuery$[ebp]
  0005e	8b cf		 mov	 ecx, edi
  00060	50		 push	 eax
  00061	e8 00 00 00 00	 call	 ?Exec@CQuery@@QAEHPBD@Z	; CQuery::Exec
  00066	85 c0		 test	 eax, eax
  00068	75 30		 jne	 SHORT $LN7@GetHonor

; 1114 : 	{
; 1115 : 		WriteLog( "%s, %d\t%s", __FILE__, __LINE__, szQuery );

  0006a	8d 85 fc 5f ff
	ff		 lea	 eax, DWORD PTR _szQuery$[ebp]
  00070	50		 push	 eax
  00071	68 5b 04 00 00	 push	 1115			; 0000045bH
  00076	68 00 00 00 00	 push	 OFFSET ??_C@_0DN@JBKLBOHO@C?3?2IAGOS?2server?2v18?2Source?2Sour@
  0007b	68 00 00 00 00	 push	 OFFSET ??_C@_09GBAEEKDE@?$CFs?0?5?$CFd?7?$CFs@
  00080	e8 00 00 00 00	 call	 ?WriteLog@@YAXPBDZZ	; WriteLog
  00085	83 c4 10	 add	 esp, 16			; 00000010H
  00088	5f		 pop	 edi

; 1205 : 		}
; 1206 : 	}
; 1207 : }

  00089	5b		 pop	 ebx
  0008a	8b 4d fc	 mov	 ecx, DWORD PTR __$ArrayPad$[ebp]
  0008d	33 cd		 xor	 ecx, ebp
  0008f	e8 00 00 00 00	 call	 @__security_check_cookie@4
  00094	8b e5		 mov	 esp, ebp
  00096	5d		 pop	 ebp
  00097	c2 0c 00	 ret	 12			; 0000000cH
$LN7@GetHonor:
  0009a	56		 push	 esi

; 1116 : 		return;
; 1117 : 	}
; 1118 : 	
; 1119 : 	int aTempHonor[3][50]={0,};

  0009b	68 58 02 00 00	 push	 600			; 00000258H
  000a0	8d 85 a4 5d ff
	ff		 lea	 eax, DWORD PTR _aTempHonor$[ebp]
  000a6	6a 00		 push	 0
  000a8	50		 push	 eax
  000a9	e8 00 00 00 00	 call	 _memset
  000ae	83 c4 0c	 add	 esp, 12			; 0000000cH

; 1120 : 	int nSec = 0;
; 1121 : 	while( qry->Fetch() )

  000b1	8b cf		 mov	 ecx, edi
  000b3	e8 00 00 00 00	 call	 ?Fetch@CQuery@@QAEHXZ	; CQuery::Fetch
  000b8	85 c0		 test	 eax, eax
  000ba	0f 84 e1 03 00
	00		 je	 $LN3@GetHonor
$LL2@GetHonor:

; 1122 : 	{
; 1123 : 		int nSec = qry->GetInt( "sec" );

  000c0	68 00 00 00 00	 push	 OFFSET ??_C@_03KHPNBODO@sec@
  000c5	8b cf		 mov	 ecx, edi
  000c7	e8 00 00 00 00	 call	 ?GetInt@CQuery@@QAEHPAD@Z ; CQuery::GetInt

; 1124 : 		nSec--;

  000cc	48		 dec	 eax

; 1125 : 		if(nSec > 2 || nSec < 0 )

  000cd	83 f8 02	 cmp	 eax, 2
  000d0	0f 87 55 04 00
	00		 ja	 $LN37@GetHonor

; 1126 : 			return;
; 1127 : 
; 1128 : 		aTempHonor[nSec][0] = qry->GetInt( "c01" );

  000d6	68 00 00 00 00	 push	 OFFSET ??_C@_03BFBOJKCM@c01@
  000db	8b cf		 mov	 ecx, edi
  000dd	69 f0 c8 00 00
	00		 imul	 esi, eax, 200
  000e3	e8 00 00 00 00	 call	 ?GetInt@CQuery@@QAEHPAD@Z ; CQuery::GetInt

; 1129 : 		aTempHonor[nSec][1] = qry->GetInt( "c02" );

  000e8	68 00 00 00 00	 push	 OFFSET ??_C@_03DODDMJOP@c02@
  000ed	8b cf		 mov	 ecx, edi
  000ef	89 84 35 a4 5d
	ff ff		 mov	 DWORD PTR _aTempHonor$[ebp+esi], eax
  000f6	e8 00 00 00 00	 call	 ?GetInt@CQuery@@QAEHPAD@Z ; CQuery::GetInt

; 1130 : 		aTempHonor[nSec][2] = qry->GetInt( "c03" );

  000fb	68 00 00 00 00	 push	 OFFSET ??_C@_03CHCIPIKO@c03@
  00100	8b cf		 mov	 ecx, edi
  00102	89 84 35 a8 5d
	ff ff		 mov	 DWORD PTR _aTempHonor$[ebp+esi+4], eax
  00109	e8 00 00 00 00	 call	 ?GetInt@CQuery@@QAEHPAD@Z ; CQuery::GetInt

; 1131 : 		aTempHonor[nSec][3] = qry->GetInt( "c04" );

  0010e	68 00 00 00 00	 push	 OFFSET ??_C@_03GIGJGOGJ@c04@
  00113	8b cf		 mov	 ecx, edi
  00115	89 84 35 ac 5d
	ff ff		 mov	 DWORD PTR _aTempHonor$[ebp+esi+8], eax
  0011c	e8 00 00 00 00	 call	 ?GetInt@CQuery@@QAEHPAD@Z ; CQuery::GetInt

; 1132 : 		aTempHonor[nSec][4] = qry->GetInt( "c05" );

  00121	68 00 00 00 00	 push	 OFFSET ??_C@_03HBHCFPCI@c05@
  00126	8b cf		 mov	 ecx, edi
  00128	89 84 35 b0 5d
	ff ff		 mov	 DWORD PTR _aTempHonor$[ebp+esi+12], eax
  0012f	e8 00 00 00 00	 call	 ?GetInt@CQuery@@QAEHPAD@Z ; CQuery::GetInt

; 1133 : 		aTempHonor[nSec][5] = qry->GetInt( "c06" );

  00134	68 00 00 00 00	 push	 OFFSET ??_C@_03FKFPAMOL@c06@
  00139	8b cf		 mov	 ecx, edi
  0013b	89 84 35 b4 5d
	ff ff		 mov	 DWORD PTR _aTempHonor$[ebp+esi+16], eax
  00142	e8 00 00 00 00	 call	 ?GetInt@CQuery@@QAEHPAD@Z ; CQuery::GetInt

; 1134 : 		aTempHonor[nSec][6] = qry->GetInt( "c07" );

  00147	68 00 00 00 00	 push	 OFFSET ??_C@_03EDEEDNKK@c07@
  0014c	8b cf		 mov	 ecx, edi
  0014e	89 84 35 b8 5d
	ff ff		 mov	 DWORD PTR _aTempHonor$[ebp+esi+20], eax
  00155	e8 00 00 00 00	 call	 ?GetInt@CQuery@@QAEHPAD@Z ; CQuery::GetInt

; 1135 : 		aTempHonor[nSec][7] = qry->GetInt( "c08" );

  0015a	68 00 00 00 00	 push	 OFFSET ??_C@_03MENMCBGF@c08@
  0015f	8b cf		 mov	 ecx, edi
  00161	89 84 35 bc 5d
	ff ff		 mov	 DWORD PTR _aTempHonor$[ebp+esi+24], eax
  00168	e8 00 00 00 00	 call	 ?GetInt@CQuery@@QAEHPAD@Z ; CQuery::GetInt

; 1136 : 		aTempHonor[nSec][8] = qry->GetInt( "c09" );

  0016d	68 00 00 00 00	 push	 OFFSET ??_C@_03NNMHBACE@c09@
  00172	8b cf		 mov	 ecx, edi
  00174	89 84 35 c0 5d
	ff ff		 mov	 DWORD PTR _aTempHonor$[ebp+esi+28], eax
  0017b	e8 00 00 00 00	 call	 ?GetInt@CQuery@@QAEHPAD@Z ; CQuery::GetInt

; 1137 : 		aTempHonor[nSec][9] = qry->GetInt( "c10" );

  00180	68 00 00 00 00	 push	 OFFSET ??_C@_03NMHMBFK@c10@
  00185	8b cf		 mov	 ecx, edi
  00187	89 84 35 c4 5d
	ff ff		 mov	 DWORD PTR _aTempHonor$[ebp+esi+32], eax
  0018e	e8 00 00 00 00	 call	 ?GetInt@CQuery@@QAEHPAD@Z ; CQuery::GetInt

; 1138 : 
; 1139 : 		aTempHonor[nSec][10] = qry->GetInt( "c11" );

  00193	68 00 00 00 00	 push	 OFFSET ??_C@_03BENMPABL@c11@
  00198	8b cf		 mov	 ecx, edi
  0019a	89 84 35 c8 5d
	ff ff		 mov	 DWORD PTR _aTempHonor$[ebp+esi+36], eax
  001a1	e8 00 00 00 00	 call	 ?GetInt@CQuery@@QAEHPAD@Z ; CQuery::GetInt

; 1140 : 		aTempHonor[nSec][11] = qry->GetInt( "c12" );

  001a6	68 00 00 00 00	 push	 OFFSET ??_C@_03DPPBKDNI@c12@
  001ab	8b cf		 mov	 ecx, edi
  001ad	89 84 35 cc 5d
	ff ff		 mov	 DWORD PTR _aTempHonor$[ebp+esi+40], eax
  001b4	e8 00 00 00 00	 call	 ?GetInt@CQuery@@QAEHPAD@Z ; CQuery::GetInt

; 1141 : 		aTempHonor[nSec][12] = qry->GetInt( "c13" );

  001b9	68 00 00 00 00	 push	 OFFSET ??_C@_03CGOKJCJJ@c13@
  001be	8b cf		 mov	 ecx, edi
  001c0	89 84 35 d0 5d
	ff ff		 mov	 DWORD PTR _aTempHonor$[ebp+esi+44], eax
  001c7	e8 00 00 00 00	 call	 ?GetInt@CQuery@@QAEHPAD@Z ; CQuery::GetInt

; 1142 : 		aTempHonor[nSec][13] = qry->GetInt( "c14" );

  001cc	68 00 00 00 00	 push	 OFFSET ??_C@_03GJKLAEFO@c14@
  001d1	8b cf		 mov	 ecx, edi
  001d3	89 84 35 d4 5d
	ff ff		 mov	 DWORD PTR _aTempHonor$[ebp+esi+48], eax
  001da	e8 00 00 00 00	 call	 ?GetInt@CQuery@@QAEHPAD@Z ; CQuery::GetInt

; 1143 : 		aTempHonor[nSec][14] = qry->GetInt( "c15" );

  001df	68 00 00 00 00	 push	 OFFSET ??_C@_03HALADFBP@c15@
  001e4	8b cf		 mov	 ecx, edi
  001e6	89 84 35 d8 5d
	ff ff		 mov	 DWORD PTR _aTempHonor$[ebp+esi+52], eax
  001ed	e8 00 00 00 00	 call	 ?GetInt@CQuery@@QAEHPAD@Z ; CQuery::GetInt

; 1144 : 		aTempHonor[nSec][15] = qry->GetInt( "c16" );

  001f2	68 00 00 00 00	 push	 OFFSET ??_C@_03FLJNGGNM@c16@
  001f7	8b cf		 mov	 ecx, edi
  001f9	89 84 35 dc 5d
	ff ff		 mov	 DWORD PTR _aTempHonor$[ebp+esi+56], eax
  00200	e8 00 00 00 00	 call	 ?GetInt@CQuery@@QAEHPAD@Z ; CQuery::GetInt

; 1145 : 		aTempHonor[nSec][16] = qry->GetInt( "c17" );

  00205	68 00 00 00 00	 push	 OFFSET ??_C@_03ECIGFHJN@c17@
  0020a	8b cf		 mov	 ecx, edi
  0020c	89 84 35 e0 5d
	ff ff		 mov	 DWORD PTR _aTempHonor$[ebp+esi+60], eax
  00213	e8 00 00 00 00	 call	 ?GetInt@CQuery@@QAEHPAD@Z ; CQuery::GetInt

; 1146 : 		aTempHonor[nSec][17] = qry->GetInt( "c18" );

  00218	68 00 00 00 00	 push	 OFFSET ??_C@_03MFBOELFC@c18@
  0021d	8b cf		 mov	 ecx, edi
  0021f	89 84 35 e4 5d
	ff ff		 mov	 DWORD PTR _aTempHonor$[ebp+esi+64], eax
  00226	e8 00 00 00 00	 call	 ?GetInt@CQuery@@QAEHPAD@Z ; CQuery::GetInt

; 1147 : 		aTempHonor[nSec][18] = qry->GetInt( "c19" );

  0022b	68 00 00 00 00	 push	 OFFSET ??_C@_03NMAFHKBD@c19@
  00230	8b cf		 mov	 ecx, edi
  00232	89 84 35 e8 5d
	ff ff		 mov	 DWORD PTR _aTempHonor$[ebp+esi+68], eax
  00239	e8 00 00 00 00	 call	 ?GetInt@CQuery@@QAEHPAD@Z ; CQuery::GetInt

; 1148 : 		aTempHonor[nSec][19] = qry->GetInt( "c20" );

  0023e	68 00 00 00 00	 push	 OFFSET ??_C@_03PIBHPAD@c20@
  00243	8b cf		 mov	 ecx, edi
  00245	89 84 35 ec 5d
	ff ff		 mov	 DWORD PTR _aTempHonor$[ebp+esi+72], eax
  0024c	e8 00 00 00 00	 call	 ?GetInt@CQuery@@QAEHPAD@Z ; CQuery::GetInt
  00251	89 84 35 f0 5d
	ff ff		 mov	 DWORD PTR _aTempHonor$[ebp+esi+76], eax

; 1149 : 
; 1150 : 		aTempHonor[nSec][20] = qry->GetInt( "c21" );

  00258	68 00 00 00 00	 push	 OFFSET ??_C@_03BGJKEOEC@c21@
  0025d	8b cf		 mov	 ecx, edi
  0025f	e8 00 00 00 00	 call	 ?GetInt@CQuery@@QAEHPAD@Z ; CQuery::GetInt

; 1151 : 		aTempHonor[nSec][21] = qry->GetInt( "c22" );

  00264	68 00 00 00 00	 push	 OFFSET ??_C@_03DNLHBNIB@c22@
  00269	8b cf		 mov	 ecx, edi
  0026b	89 84 35 f4 5d
	ff ff		 mov	 DWORD PTR _aTempHonor$[ebp+esi+80], eax
  00272	e8 00 00 00 00	 call	 ?GetInt@CQuery@@QAEHPAD@Z ; CQuery::GetInt

; 1152 : 		aTempHonor[nSec][22] = qry->GetInt( "c23" );

  00277	68 00 00 00 00	 push	 OFFSET ??_C@_03CEKMCMMA@c23@
  0027c	8b cf		 mov	 ecx, edi
  0027e	89 84 35 f8 5d
	ff ff		 mov	 DWORD PTR _aTempHonor$[ebp+esi+84], eax
  00285	e8 00 00 00 00	 call	 ?GetInt@CQuery@@QAEHPAD@Z ; CQuery::GetInt

; 1153 : 		aTempHonor[nSec][23] = qry->GetInt( "c24" );

  0028a	68 00 00 00 00	 push	 OFFSET ??_C@_03GLONLKAH@c24@
  0028f	8b cf		 mov	 ecx, edi
  00291	89 84 35 fc 5d
	ff ff		 mov	 DWORD PTR _aTempHonor$[ebp+esi+88], eax
  00298	e8 00 00 00 00	 call	 ?GetInt@CQuery@@QAEHPAD@Z ; CQuery::GetInt

; 1154 : 		aTempHonor[nSec][24] = qry->GetInt( "c25" );

  0029d	68 00 00 00 00	 push	 OFFSET ??_C@_03HCPGILEG@c25@
  002a2	8b cf		 mov	 ecx, edi
  002a4	89 84 35 00 5e
	ff ff		 mov	 DWORD PTR _aTempHonor$[ebp+esi+92], eax
  002ab	e8 00 00 00 00	 call	 ?GetInt@CQuery@@QAEHPAD@Z ; CQuery::GetInt

; 1155 : 		aTempHonor[nSec][25] = qry->GetInt( "c26" );

  002b0	68 00 00 00 00	 push	 OFFSET ??_C@_03FJNLNIIF@c26@
  002b5	8b cf		 mov	 ecx, edi
  002b7	89 84 35 04 5e
	ff ff		 mov	 DWORD PTR _aTempHonor$[ebp+esi+96], eax
  002be	e8 00 00 00 00	 call	 ?GetInt@CQuery@@QAEHPAD@Z ; CQuery::GetInt

; 1156 : 		aTempHonor[nSec][26] = qry->GetInt( "c27" );

  002c3	68 00 00 00 00	 push	 OFFSET ??_C@_03EAMAOJME@c27@
  002c8	8b cf		 mov	 ecx, edi
  002ca	89 84 35 08 5e
	ff ff		 mov	 DWORD PTR _aTempHonor$[ebp+esi+100], eax
  002d1	e8 00 00 00 00	 call	 ?GetInt@CQuery@@QAEHPAD@Z ; CQuery::GetInt

; 1157 : 		aTempHonor[nSec][27] = qry->GetInt( "c28" );

  002d6	68 00 00 00 00	 push	 OFFSET ??_C@_03MHFIPFAL@c28@
  002db	8b cf		 mov	 ecx, edi
  002dd	89 84 35 0c 5e
	ff ff		 mov	 DWORD PTR _aTempHonor$[ebp+esi+104], eax
  002e4	e8 00 00 00 00	 call	 ?GetInt@CQuery@@QAEHPAD@Z ; CQuery::GetInt

; 1158 : 		aTempHonor[nSec][28] = qry->GetInt( "c29" );

  002e9	68 00 00 00 00	 push	 OFFSET ??_C@_03NOEDMEEK@c29@
  002ee	8b cf		 mov	 ecx, edi
  002f0	89 84 35 10 5e
	ff ff		 mov	 DWORD PTR _aTempHonor$[ebp+esi+108], eax
  002f7	e8 00 00 00 00	 call	 ?GetInt@CQuery@@QAEHPAD@Z ; CQuery::GetInt

; 1159 : 		aTempHonor[nSec][29] = qry->GetInt( "c30" );

  002fc	68 00 00 00 00	 push	 OFFSET ??_C@_03OEDBFDE@c30@
  00301	8b cf		 mov	 ecx, edi
  00303	89 84 35 14 5e
	ff ff		 mov	 DWORD PTR _aTempHonor$[ebp+esi+112], eax
  0030a	e8 00 00 00 00	 call	 ?GetInt@CQuery@@QAEHPAD@Z ; CQuery::GetInt

; 1160 : 
; 1161 : 		aTempHonor[nSec][30] = qry->GetInt( "c31" );

  0030f	68 00 00 00 00	 push	 OFFSET ??_C@_03BHFICEHF@c31@
  00314	8b cf		 mov	 ecx, edi
  00316	89 84 35 18 5e
	ff ff		 mov	 DWORD PTR _aTempHonor$[ebp+esi+116], eax
  0031d	e8 00 00 00 00	 call	 ?GetInt@CQuery@@QAEHPAD@Z ; CQuery::GetInt

; 1162 : 		aTempHonor[nSec][31] = qry->GetInt( "c32" );

  00322	68 00 00 00 00	 push	 OFFSET ??_C@_03DMHFHHLG@c32@
  00327	8b cf		 mov	 ecx, edi
  00329	89 84 35 1c 5e
	ff ff		 mov	 DWORD PTR _aTempHonor$[ebp+esi+120], eax
  00330	e8 00 00 00 00	 call	 ?GetInt@CQuery@@QAEHPAD@Z ; CQuery::GetInt

; 1163 : 		aTempHonor[nSec][32] = qry->GetInt( "c33" );

  00335	68 00 00 00 00	 push	 OFFSET ??_C@_03CFGOEGPH@c33@
  0033a	8b cf		 mov	 ecx, edi
  0033c	89 84 35 20 5e
	ff ff		 mov	 DWORD PTR _aTempHonor$[ebp+esi+124], eax
  00343	e8 00 00 00 00	 call	 ?GetInt@CQuery@@QAEHPAD@Z ; CQuery::GetInt

; 1164 : 		aTempHonor[nSec][33] = qry->GetInt( "c34" );

  00348	68 00 00 00 00	 push	 OFFSET ??_C@_03GKCPNADA@c34@
  0034d	8b cf		 mov	 ecx, edi
  0034f	89 84 35 24 5e
	ff ff		 mov	 DWORD PTR _aTempHonor$[ebp+esi+128], eax
  00356	e8 00 00 00 00	 call	 ?GetInt@CQuery@@QAEHPAD@Z ; CQuery::GetInt

; 1165 : 		aTempHonor[nSec][34] = qry->GetInt( "c35" );

  0035b	68 00 00 00 00	 push	 OFFSET ??_C@_03HDDEOBHB@c35@
  00360	8b cf		 mov	 ecx, edi
  00362	89 84 35 28 5e
	ff ff		 mov	 DWORD PTR _aTempHonor$[ebp+esi+132], eax
  00369	e8 00 00 00 00	 call	 ?GetInt@CQuery@@QAEHPAD@Z ; CQuery::GetInt

; 1166 : 		aTempHonor[nSec][35] = qry->GetInt( "c36" );

  0036e	68 00 00 00 00	 push	 OFFSET ??_C@_03FIBJLCLC@c36@
  00373	8b cf		 mov	 ecx, edi
  00375	89 84 35 2c 5e
	ff ff		 mov	 DWORD PTR _aTempHonor$[ebp+esi+136], eax
  0037c	e8 00 00 00 00	 call	 ?GetInt@CQuery@@QAEHPAD@Z ; CQuery::GetInt

; 1167 : 		aTempHonor[nSec][36] = qry->GetInt( "c37" );

  00381	68 00 00 00 00	 push	 OFFSET ??_C@_03EBACIDPD@c37@
  00386	8b cf		 mov	 ecx, edi
  00388	89 84 35 30 5e
	ff ff		 mov	 DWORD PTR _aTempHonor$[ebp+esi+140], eax
  0038f	e8 00 00 00 00	 call	 ?GetInt@CQuery@@QAEHPAD@Z ; CQuery::GetInt

; 1168 : 		aTempHonor[nSec][37] = qry->GetInt( "c38" );

  00394	68 00 00 00 00	 push	 OFFSET ??_C@_03MGJKJPDM@c38@
  00399	8b cf		 mov	 ecx, edi
  0039b	89 84 35 34 5e
	ff ff		 mov	 DWORD PTR _aTempHonor$[ebp+esi+144], eax
  003a2	e8 00 00 00 00	 call	 ?GetInt@CQuery@@QAEHPAD@Z ; CQuery::GetInt

; 1169 : 		aTempHonor[nSec][38] = qry->GetInt( "c39" );

  003a7	68 00 00 00 00	 push	 OFFSET ??_C@_03NPIBKOHN@c39@
  003ac	8b cf		 mov	 ecx, edi
  003ae	89 84 35 38 5e
	ff ff		 mov	 DWORD PTR _aTempHonor$[ebp+esi+148], eax
  003b5	e8 00 00 00 00	 call	 ?GetInt@CQuery@@QAEHPAD@Z ; CQuery::GetInt

; 1170 : 		aTempHonor[nSec][39] = qry->GetInt( "c40" );

  003ba	68 00 00 00 00	 push	 OFFSET ??_C@_03LAMADLB@c40@
  003bf	8b cf		 mov	 ecx, edi
  003c1	89 84 35 3c 5e
	ff ff		 mov	 DWORD PTR _aTempHonor$[ebp+esi+152], eax
  003c8	e8 00 00 00 00	 call	 ?GetInt@CQuery@@QAEHPAD@Z ; CQuery::GetInt
  003cd	89 84 35 40 5e
	ff ff		 mov	 DWORD PTR _aTempHonor$[ebp+esi+156], eax

; 1171 : 
; 1172 : 		aTempHonor[nSec][40] = qry->GetInt( "c41" );

  003d4	68 00 00 00 00	 push	 OFFSET ??_C@_03BCBHDCPA@c41@
  003d9	8b cf		 mov	 ecx, edi
  003db	e8 00 00 00 00	 call	 ?GetInt@CQuery@@QAEHPAD@Z ; CQuery::GetInt

; 1173 : 		aTempHonor[nSec][41] = qry->GetInt( "c42" );

  003e0	68 00 00 00 00	 push	 OFFSET ??_C@_03DJDKGBDD@c42@
  003e5	8b cf		 mov	 ecx, edi
  003e7	89 84 35 44 5e
	ff ff		 mov	 DWORD PTR _aTempHonor$[ebp+esi+160], eax
  003ee	e8 00 00 00 00	 call	 ?GetInt@CQuery@@QAEHPAD@Z ; CQuery::GetInt

; 1174 : 		aTempHonor[nSec][42] = qry->GetInt( "c43" );

  003f3	68 00 00 00 00	 push	 OFFSET ??_C@_03CACBFAHC@c43@
  003f8	8b cf		 mov	 ecx, edi
  003fa	89 84 35 48 5e
	ff ff		 mov	 DWORD PTR _aTempHonor$[ebp+esi+164], eax
  00401	e8 00 00 00 00	 call	 ?GetInt@CQuery@@QAEHPAD@Z ; CQuery::GetInt

; 1175 : 		aTempHonor[nSec][43] = qry->GetInt( "c44" );

  00406	68 00 00 00 00	 push	 OFFSET ??_C@_03GPGAMGLF@c44@
  0040b	8b cf		 mov	 ecx, edi
  0040d	89 84 35 4c 5e
	ff ff		 mov	 DWORD PTR _aTempHonor$[ebp+esi+168], eax
  00414	e8 00 00 00 00	 call	 ?GetInt@CQuery@@QAEHPAD@Z ; CQuery::GetInt

; 1176 : 		aTempHonor[nSec][44] = qry->GetInt( "c45" );

  00419	68 00 00 00 00	 push	 OFFSET ??_C@_03HGHLPHPE@c45@
  0041e	8b cf		 mov	 ecx, edi
  00420	89 84 35 50 5e
	ff ff		 mov	 DWORD PTR _aTempHonor$[ebp+esi+172], eax
  00427	e8 00 00 00 00	 call	 ?GetInt@CQuery@@QAEHPAD@Z ; CQuery::GetInt

; 1177 : 		aTempHonor[nSec][45] = qry->GetInt( "c46" );

  0042c	68 00 00 00 00	 push	 OFFSET ??_C@_03FNFGKEDH@c46@
  00431	8b cf		 mov	 ecx, edi
  00433	89 84 35 54 5e
	ff ff		 mov	 DWORD PTR _aTempHonor$[ebp+esi+176], eax
  0043a	e8 00 00 00 00	 call	 ?GetInt@CQuery@@QAEHPAD@Z ; CQuery::GetInt

; 1178 : 		aTempHonor[nSec][46] = qry->GetInt( "c47" );

  0043f	68 00 00 00 00	 push	 OFFSET ??_C@_03EEENJFHG@c47@
  00444	8b cf		 mov	 ecx, edi
  00446	89 84 35 58 5e
	ff ff		 mov	 DWORD PTR _aTempHonor$[ebp+esi+180], eax
  0044d	e8 00 00 00 00	 call	 ?GetInt@CQuery@@QAEHPAD@Z ; CQuery::GetInt

; 1179 : 		aTempHonor[nSec][47] = qry->GetInt( "c48" );

  00452	68 00 00 00 00	 push	 OFFSET ??_C@_03MDNFIJLJ@c48@
  00457	8b cf		 mov	 ecx, edi
  00459	89 84 35 5c 5e
	ff ff		 mov	 DWORD PTR _aTempHonor$[ebp+esi+184], eax
  00460	e8 00 00 00 00	 call	 ?GetInt@CQuery@@QAEHPAD@Z ; CQuery::GetInt

; 1180 : 		aTempHonor[nSec][48] = qry->GetInt( "c49" );

  00465	68 00 00 00 00	 push	 OFFSET ??_C@_03NKMOLIPI@c49@
  0046a	8b cf		 mov	 ecx, edi
  0046c	89 84 35 60 5e
	ff ff		 mov	 DWORD PTR _aTempHonor$[ebp+esi+188], eax
  00473	e8 00 00 00 00	 call	 ?GetInt@CQuery@@QAEHPAD@Z ; CQuery::GetInt

; 1181 : 		aTempHonor[nSec][49] = qry->GetInt( "c50" );

  00478	68 00 00 00 00	 push	 OFFSET ??_C@_03KMOGJIG@c50@
  0047d	8b cf		 mov	 ecx, edi
  0047f	89 84 35 64 5e
	ff ff		 mov	 DWORD PTR _aTempHonor$[ebp+esi+192], eax
  00486	e8 00 00 00 00	 call	 ?GetInt@CQuery@@QAEHPAD@Z ; CQuery::GetInt
  0048b	8b cf		 mov	 ecx, edi
  0048d	89 84 35 68 5e
	ff ff		 mov	 DWORD PTR _aTempHonor$[ebp+esi+196], eax
  00494	e8 00 00 00 00	 call	 ?Fetch@CQuery@@QAEHXZ	; CQuery::Fetch
  00499	85 c0		 test	 eax, eax
  0049b	0f 85 1f fc ff
	ff		 jne	 $LL2@GetHonor
$LN3@GetHonor:

; 1185 : 	int nType = 0;
; 1186 : 	int nCurrentTitleCount =  CTitleManager::Instance()->m_nCurrentTitleCount;

  004a1	e8 00 00 00 00	 call	 ?Instance@CTitleManager@@SAPAV1@XZ ; CTitleManager::Instance
  004a6	33 f6		 xor	 esi, esi
  004a8	8b 40 20	 mov	 eax, DWORD PTR [eax+32]
  004ab	89 85 98 5d ff
	ff		 mov	 DWORD PTR _nCurrentTitleCount$1$[ebp], eax

; 1187 : 	ASSERT( nCurrentTitleCount <= MAX_HONOR_TITLE );
; 1188 : 	for(int i=0;i<nCurrentTitleCount;i++)

  004b1	85 c0		 test	 eax, eax
  004b3	7e 76		 jle	 SHORT $LN37@GetHonor

; 1182 : 	}
; 1183 : 
; 1184 : 	int nMonster = 0,nItem = 0,nEtc = 0;

  004b5	8d 85 34 5f ff
	ff		 lea	 eax, DWORD PTR _aTempHonor$[ebp+400]
  004bb	8d bd a4 5d ff
	ff		 lea	 edi, DWORD PTR _aTempHonor$[ebp]
  004c1	89 85 a0 5d ff
	ff		 mov	 DWORD PTR tv923[ebp], eax
  004c7	8d 9d 6c 5e ff
	ff		 lea	 ebx, DWORD PTR _aTempHonor$[ebp+200]
  004cd	0f 1f 00	 npad	 3
$LL6@GetHonor:

; 1189 : 	{
; 1190 : 		nType = CTitleManager::Instance()->GetIdxType(i);

  004d0	56		 push	 esi
  004d1	e8 00 00 00 00	 call	 ?Instance@CTitleManager@@SAPAV1@XZ ; CTitleManager::Instance
  004d6	8b c8		 mov	 ecx, eax
  004d8	e8 00 00 00 00	 call	 ?GetIdxType@CTitleManager@@QAEHH@Z ; CTitleManager::GetIdxType
  004dd	8b c8		 mov	 ecx, eax

; 1191 : 		if( nType == HI_HUNT_MONSTER)

  004df	83 f9 04	 cmp	 ecx, 4
  004e2	75 1c		 jne	 SHORT $LN10@GetHonor
; File C:\IAGOS\server\v18\Source\Source\_Network\Objects\Obj.h

; 1102 : 	void			SetHonorCount(int nIdx , int nCount )	{	m_aHonorTitle[nIdx] = nCount;	}

  004e4	8b 85 a0 5d ff
	ff		 mov	 eax, DWORD PTR tv923[ebp]
  004ea	8b 08		 mov	 ecx, DWORD PTR [eax]
; File C:\IAGOS\server\v18\Source\Source\_Database\DbManagerFun.cpp

; 1194 : 			nMonster++;

  004ec	83 c0 04	 add	 eax, 4
  004ef	89 85 a0 5d ff
	ff		 mov	 DWORD PTR tv923[ebp], eax
; File C:\IAGOS\server\v18\Source\Source\_Network\Objects\Obj.h

; 1102 : 	void			SetHonorCount(int nIdx , int nCount )	{	m_aHonorTitle[nIdx] = nCount;	}

  004f5	8b 85 9c 5d ff
	ff		 mov	 eax, DWORD PTR _pMover$GSCopy$1$[ebp]
  004fb	8d 04 b0	 lea	 eax, DWORD PTR [eax+esi*4]
; File C:\IAGOS\server\v18\Source\Source\_Database\DbManagerFun.cpp

; 1195 : 		}

  004fe	eb 1a		 jmp	 SHORT $LN38@GetHonor
$LN10@GetHonor:

; 1196 : 		else if( nType == HI_USE_ITEM)

  00500	8b 85 9c 5d ff
	ff		 mov	 eax, DWORD PTR _pMover$GSCopy$1$[ebp]
  00506	8d 04 b0	 lea	 eax, DWORD PTR [eax+esi*4]
  00509	83 f9 05	 cmp	 ecx, 5
  0050c	75 07		 jne	 SHORT $LN12@GetHonor
; File C:\IAGOS\server\v18\Source\Source\_Network\Objects\Obj.h

; 1102 : 	void			SetHonorCount(int nIdx , int nCount )	{	m_aHonorTitle[nIdx] = nCount;	}

  0050e	8b 0b		 mov	 ecx, DWORD PTR [ebx]
; File C:\IAGOS\server\v18\Source\Source\_Database\DbManagerFun.cpp

; 1199 : 			nItem++;

  00510	83 c3 04	 add	 ebx, 4

; 1200 : 		}

  00513	eb 05		 jmp	 SHORT $LN38@GetHonor
$LN12@GetHonor:
; File C:\IAGOS\server\v18\Source\Source\_Network\Objects\Obj.h

; 1102 : 	void			SetHonorCount(int nIdx , int nCount )	{	m_aHonorTitle[nIdx] = nCount;	}

  00515	8b 0f		 mov	 ecx, DWORD PTR [edi]
; File C:\IAGOS\server\v18\Source\Source\_Database\DbManagerFun.cpp

; 1204 : 			nEtc++;

  00517	83 c7 04	 add	 edi, 4
$LN38@GetHonor:

; 1187 : 	ASSERT( nCurrentTitleCount <= MAX_HONOR_TITLE );
; 1188 : 	for(int i=0;i<nCurrentTitleCount;i++)

  0051a	ba 98 3c 00 00	 mov	 edx, 15512		; 00003c98H
  0051f	46		 inc	 esi
  00520	89 0c 10	 mov	 DWORD PTR [eax+edx], ecx
  00523	3b b5 98 5d ff
	ff		 cmp	 esi, DWORD PTR _nCurrentTitleCount$1$[ebp]
  00529	7c a5		 jl	 SHORT $LL6@GetHonor
$LN37@GetHonor:

; 1205 : 		}
; 1206 : 	}
; 1207 : }

  0052b	8b 4d fc	 mov	 ecx, DWORD PTR __$ArrayPad$[ebp]
  0052e	5e		 pop	 esi
  0052f	5f		 pop	 edi
  00530	33 cd		 xor	 ecx, ebp
  00532	5b		 pop	 ebx
  00533	e8 00 00 00 00	 call	 @__security_check_cookie@4
  00538	8b e5		 mov	 esp, ebp
  0053a	5d		 pop	 ebp
  0053b	c2 0c 00	 ret	 12			; 0000000cH
?GetHonor@CDbManager@@QAEXPAVCMover@@PAVCQuery@@PAUtagDB_OVERLAPPED_PLUS@@@Z ENDP ; CDbManager::GetHonor
_TEXT	ENDS
; Function compile flags: /Ogtp
; File C:\IAGOS\server\v18\Source\Source\_Database\DbManagerFun.cpp
; File C:\IAGOS\server\v18\Source\Source\_database\DbManager.h
; File C:\IAGOS\server\v18\Source\Source\_Database\DbManagerFun.cpp
; File C:\IAGOS\server\v18\Source\Source\_network\CmnHdr.h
; File C:\IAGOS\server\v18\Source\Source\_Database\DbManagerFun.cpp
; File C:\IAGOS\server\v18\Source\Source\_network\CmnHdr.h
; File C:\IAGOS\server\v18\Source\Source\_Database\DbManagerFun.cpp
; File C:\IAGOS\server\v18\Source\Source\_network\CmnHdr.h
; File C:\IAGOS\server\v18\Source\Source\_Database\DbManagerFun.cpp
; File C:\IAGOS\server\v18\Source\Source\_network\CmnHdr.h
; File C:\IAGOS\server\v18\Source\Source\_Database\DbManagerFun.cpp
; File C:\IAGOS\server\v18\Source\Source\_network\CmnHdr.h
; File C:\IAGOS\server\v18\Source\Source\_Database\DbManagerFun.cpp
; File C:\IAGOS\server\v18\Source\Source\_network\CmnHdr.h
; File C:\IAGOS\server\v18\Source\Source\_Database\DbManagerFun.cpp
; File C:\IAGOS\server\v18\Source\Source\_network\CmnHdr.h
; File C:\IAGOS\server\v18\Source\Source\_Database\DbManagerFun.cpp
; File C:\IAGOS\server\v18\Source\Source\_Common\buff.h
; File C:\Program Files\Microsoft Visual Studio\2022\Professional\VC\Tools\MSVC\14.44.35207\include\xtree
; File C:\IAGOS\server\v18\Source\Source\_Common\buff.h
; File C:\Program Files\Microsoft Visual Studio\2022\Professional\VC\Tools\MSVC\14.44.35207\include\xtree
; File C:\Program Files\Microsoft Visual Studio\2022\Professional\VC\Tools\MSVC\14.44.35207\include\type_traits
; File C:\Program Files\Microsoft Visual Studio\2022\Professional\VC\Tools\MSVC\14.44.35207\include\xtree
; File C:\Program Files\Microsoft Visual Studio\2022\Professional\VC\Tools\MSVC\14.44.35207\include\type_traits
; File C:\Program Files\Microsoft Visual Studio\2022\Professional\VC\Tools\MSVC\14.44.35207\include\xtree
; File C:\Program Files\Microsoft Visual Studio\2022\Professional\VC\Tools\MSVC\14.44.35207\include\xmemory
; File C:\Program Files\Microsoft Visual Studio\2022\Professional\VC\Tools\MSVC\14.44.35207\include\xtree
; File C:\Program Files\Microsoft Visual Studio\2022\Professional\VC\Tools\MSVC\14.44.35207\include\xmemory
; File C:\Program Files\Microsoft Visual Studio\2022\Professional\VC\Tools\MSVC\14.44.35207\include\xtree
; File C:\Program Files\Microsoft Visual Studio\2022\Professional\VC\Tools\MSVC\14.44.35207\include\xmemory
; File C:\Program Files\Microsoft Visual Studio\2022\Professional\VC\Tools\MSVC\14.44.35207\include\xtree
; File C:\Program Files\Microsoft Visual Studio\2022\Professional\VC\Tools\MSVC\14.44.35207\include\utility
; File C:\Program Files\Microsoft Visual Studio\2022\Professional\VC\Tools\MSVC\14.44.35207\include\xtree
; File C:\IAGOS\server\v18\Source\Source\_Database\DbManagerFun.cpp
; File C:\IAGOS\server\v18\Source\Source\_database\DbManager.h
; File C:\IAGOS\server\v18\Source\Source\_Database\DbManagerFun.cpp
; File C:\Program Files\Microsoft Visual Studio\2022\Professional\VC\Tools\MSVC\14.44.35207\include\xtree
; File C:\IAGOS\server\v18\Source\Source\_Database\DbManagerFun.cpp
;	COMDAT ?GetSKillInfluence@CDbManager@@QAEHPAVCMover@@PAVCQuery@@PAUtagDB_OVERLAPPED_PLUS@@@Z
_TEXT	SEGMENT
$T4 = -7596						; size = 8
_CountStr$1$ = -7588					; size = 4
__Myhead$1$ = -7584					; size = 4
_this$GSCopy$1$ = -7584					; size = 4
$T5 = -7580						; size = 4
_wType$1$ = -7580					; size = 4
_pMover$GSCopy$1$ = -7576				; size = 4
__Loc$1$ = -7572					; size = 4
_wId$1$ = -7572						; size = 4
_szSKillInfluence$ = -7568				; size = 7500
_strTemp$6 = -68					; size = 50
_strTemp$7 = -68					; size = 50
_strTemp$8 = -68					; size = 50
_strTemp$9 = -68					; size = 50
__$ArrayPad$ = -16					; size = 4
__$EHRec$ = -12						; size = 12
_pMover$ = 8						; size = 4
_qry$ = 12						; size = 4
_lpDbOverlappedPlus$ = 16				; size = 4
?GetSKillInfluence@CDbManager@@QAEHPAVCMover@@PAVCQuery@@PAUtagDB_OVERLAPPED_PLUS@@@Z PROC ; CDbManager::GetSKillInfluence, COMDAT
; _this$ = ecx

; 1385 : {

  00000	55		 push	 ebp
  00001	8b ec		 mov	 ebp, esp
  00003	6a ff		 push	 -1
  00005	68 00 00 00 00	 push	 __ehhandler$?GetSKillInfluence@CDbManager@@QAEHPAVCMover@@PAVCQuery@@PAUtagDB_OVERLAPPED_PLUS@@@Z
  0000a	64 a1 00 00 00
	00		 mov	 eax, DWORD PTR fs:0
  00010	50		 push	 eax
  00011	b8 a0 1d 00 00	 mov	 eax, 7584		; 00001da0H
  00016	e8 00 00 00 00	 call	 __chkstk
  0001b	a1 00 00 00 00	 mov	 eax, DWORD PTR ___security_cookie
  00020	33 c5		 xor	 eax, ebp
  00022	89 45 f0	 mov	 DWORD PTR __$ArrayPad$[ebp], eax
  00025	53		 push	 ebx
  00026	56		 push	 esi
  00027	57		 push	 edi
  00028	50		 push	 eax
  00029	8d 45 f4	 lea	 eax, DWORD PTR __$EHRec$[ebp]
  0002c	64 a3 00 00 00
	00		 mov	 DWORD PTR fs:0, eax
  00032	89 8d 60 e2 ff
	ff		 mov	 DWORD PTR _this$GSCopy$1$[ebp], ecx
  00038	8b 45 08	 mov	 eax, DWORD PTR _pMover$[ebp]

; 1386 : 	int CountStr	= 0;

  0003b	33 f6		 xor	 esi, esi
  0003d	8b 7d 0c	 mov	 edi, DWORD PTR _qry$[ebp]
  00040	8b 5d 10	 mov	 ebx, DWORD PTR _lpDbOverlappedPlus$[ebp]

; 1387 : 	int iSkillIndex = 0;
; 1388 : 	char szSKillInfluence[7500]		= {0,};

  00043	68 4c 1d 00 00	 push	 7500			; 00001d4cH
  00048	89 85 68 e2 ff
	ff		 mov	 DWORD PTR _pMover$GSCopy$1$[ebp], eax
  0004e	8d 85 70 e2 ff
	ff		 lea	 eax, DWORD PTR _szSKillInfluence$[ebp]
  00054	56		 push	 esi
  00055	50		 push	 eax
  00056	e8 00 00 00 00	 call	 _memset
  0005b	83 c4 0c	 add	 esp, 12			; 0000000cH

; 1389 : 	qry->GetStr( "SkillInfluence", szSKillInfluence );

  0005e	8d 85 70 e2 ff
	ff		 lea	 eax, DWORD PTR _szSKillInfluence$[ebp]
  00064	8b cf		 mov	 ecx, edi
  00066	50		 push	 eax
  00067	68 00 00 00 00	 push	 OFFSET ??_C@_0P@KFJOMEEC@SkillInfluence@
  0006c	e8 00 00 00 00	 call	 ?GetStr@CQuery@@QAEXPAD0@Z ; CQuery::GetStr
; File C:\IAGOS\server\v18\Source\Source\_database\DbManager.h

; 1305 : 	int len		= strlen( lpString );

  00071	8d 8d 70 e2 ff
	ff		 lea	 ecx, DWORD PTR _szSKillInfluence$[ebp]
  00077	8d 51 01	 lea	 edx, DWORD PTR [ecx+1]
  0007a	66 0f 1f 44 00
	00		 npad	 6
$LL182@GetSKillIn:
  00080	8a 01		 mov	 al, BYTE PTR [ecx]
  00082	41		 inc	 ecx
  00083	84 c0		 test	 al, al
  00085	75 f9		 jne	 SHORT $LL182@GetSKillIn
  00087	2b ca		 sub	 ecx, edx

; 1306 : 	if( len > 0 && lpString[len-1] == '$' )

  00089	85 c9		 test	 ecx, ecx
  0008b	0f 8e 9e 02 00
	00		 jle	 $LN8@GetSKillIn
  00091	80 bc 0d 6f e2
	ff ff 24	 cmp	 BYTE PTR _szSKillInfluence$[ebp+ecx-1], 36 ; 00000024H
  00099	0f 85 90 02 00
	00		 jne	 $LN8@GetSKillIn
; File C:\IAGOS\server\v18\Source\Source\_Database\DbManagerFun.cpp

; 1391 : 	while( '$' != szSKillInfluence[CountStr] )

  0009f	80 bd 70 e2 ff
	ff 24		 cmp	 BYTE PTR _szSKillInfluence$[ebp], 36 ; 00000024H
  000a6	0f 84 7c 02 00
	00		 je	 $LN3@GetSKillIn
  000ac	0f 1f 40 00	 npad	 4
$LL2@GetSKillIn:
; File C:\IAGOS\server\v18\Source\Source\_network\CmnHdr.h

; 95   : 	while(pBuf[*pLocation]!=',' && pBuf[*pLocation]!='/' && pBuf[*pLocation]!=0) {

  000b0	8a 84 35 70 e2
	ff ff		 mov	 al, BYTE PTR _szSKillInfluence$[ebp+esi]
  000b7	33 c9		 xor	 ecx, ecx
  000b9	3c 2c		 cmp	 al, 44			; 0000002cH
  000bb	74 25		 je	 SHORT $LN180@GetSKillIn
  000bd	0f 1f 00	 npad	 3
$LL12@GetSKillIn:
  000c0	3c 2f		 cmp	 al, 47			; 0000002fH
  000c2	74 15		 je	 SHORT $LN13@GetSKillIn
  000c4	84 c0		 test	 al, al
  000c6	74 11		 je	 SHORT $LN13@GetSKillIn

; 96   : 		strTemp[count]=pBuf[*pLocation];
; 97   : 		count++; (*pLocation)++;

  000c8	46		 inc	 esi
  000c9	88 44 0d bc	 mov	 BYTE PTR _strTemp$6[ebp+ecx], al
  000cd	41		 inc	 ecx
  000ce	8a 84 35 70 e2
	ff ff		 mov	 al, BYTE PTR _szSKillInfluence$[ebp+esi]
  000d5	3c 2c		 cmp	 al, 44			; 0000002cH
  000d7	75 e7		 jne	 SHORT $LL12@GetSKillIn
$LN13@GetSKillIn:

; 98   : 	}
; 99   : 	strTemp[count]=0;(*pLocation)++;

  000d9	83 f9 32	 cmp	 ecx, 50			; 00000032H
  000dc	0f 83 9e 02 00
	00		 jae	 $LN15@GetSKillIn
$LN180@GetSKillIn:

; 100  : 	return atoi(strTemp);

  000e2	8d 45 bc	 lea	 eax, DWORD PTR _strTemp$6[ebp]
  000e5	c6 44 0d bc 00	 mov	 BYTE PTR _strTemp$6[ebp+ecx], 0
  000ea	50		 push	 eax
  000eb	46		 inc	 esi
  000ec	e8 00 00 00 00	 call	 _atoi
; File C:\IAGOS\server\v18\Source\Source\_Database\DbManagerFun.cpp

; 1394 : 		WORD wType	= (WORD)GetIntFromStr( szSKillInfluence, &CountStr );

  000f1	0f b7 c0	 movzx	 eax, ax
; File C:\IAGOS\server\v18\Source\Source\_network\CmnHdr.h

; 100  : 	return atoi(strTemp);

  000f4	83 c4 04	 add	 esp, 4
; File C:\IAGOS\server\v18\Source\Source\_Database\DbManagerFun.cpp

; 1394 : 		WORD wType	= (WORD)GetIntFromStr( szSKillInfluence, &CountStr );

  000f7	89 85 64 e2 ff
	ff		 mov	 DWORD PTR _wType$1$[ebp], eax
; File C:\IAGOS\server\v18\Source\Source\_network\CmnHdr.h

; 94   : 	int count=0;

  000fd	33 c9		 xor	 ecx, ecx

; 95   : 	while(pBuf[*pLocation]!=',' && pBuf[*pLocation]!='/' && pBuf[*pLocation]!=0) {

  000ff	8a 84 35 70 e2
	ff ff		 mov	 al, BYTE PTR _szSKillInfluence$[ebp+esi]
  00106	3c 2c		 cmp	 al, 44			; 0000002cH
  00108	74 28		 je	 SHORT $LN179@GetSKillIn
  0010a	66 0f 1f 44 00
	00		 npad	 6
$LL19@GetSKillIn:
  00110	3c 2f		 cmp	 al, 47			; 0000002fH
  00112	74 15		 je	 SHORT $LN20@GetSKillIn
  00114	84 c0		 test	 al, al
  00116	74 11		 je	 SHORT $LN20@GetSKillIn

; 96   : 		strTemp[count]=pBuf[*pLocation];
; 97   : 		count++; (*pLocation)++;

  00118	46		 inc	 esi
  00119	88 44 0d bc	 mov	 BYTE PTR _strTemp$7[ebp+ecx], al
  0011d	41		 inc	 ecx
  0011e	8a 84 35 70 e2
	ff ff		 mov	 al, BYTE PTR _szSKillInfluence$[ebp+esi]
  00125	3c 2c		 cmp	 al, 44			; 0000002cH
  00127	75 e7		 jne	 SHORT $LL19@GetSKillIn
$LN20@GetSKillIn:

; 98   : 	}
; 99   : 	strTemp[count]=0;(*pLocation)++;

  00129	83 f9 32	 cmp	 ecx, 50			; 00000032H
  0012c	0f 83 4e 02 00
	00		 jae	 $LN15@GetSKillIn
$LN179@GetSKillIn:

; 100  : 	return atoi(strTemp);

  00132	8d 45 bc	 lea	 eax, DWORD PTR _strTemp$7[ebp]
  00135	c6 44 0d bc 00	 mov	 BYTE PTR _strTemp$7[ebp+ecx], 0
  0013a	50		 push	 eax
  0013b	46		 inc	 esi
  0013c	e8 00 00 00 00	 call	 _atoi
; File C:\IAGOS\server\v18\Source\Source\_Database\DbManagerFun.cpp

; 1395 : 		WORD wId	= (WORD)GetIntFromStr( szSKillInfluence, &CountStr );

  00141	0f b7 c0	 movzx	 eax, ax
; File C:\IAGOS\server\v18\Source\Source\_network\CmnHdr.h

; 100  : 	return atoi(strTemp);

  00144	83 c4 04	 add	 esp, 4
; File C:\IAGOS\server\v18\Source\Source\_Database\DbManagerFun.cpp

; 1395 : 		WORD wId	= (WORD)GetIntFromStr( szSKillInfluence, &CountStr );

  00147	89 85 6c e2 ff
	ff		 mov	 DWORD PTR _wId$1$[ebp], eax
; File C:\IAGOS\server\v18\Source\Source\_network\CmnHdr.h

; 94   : 	int count=0;

  0014d	33 c9		 xor	 ecx, ecx

; 95   : 	while(pBuf[*pLocation]!=',' && pBuf[*pLocation]!='/' && pBuf[*pLocation]!=0) {

  0014f	8a 84 35 70 e2
	ff ff		 mov	 al, BYTE PTR _szSKillInfluence$[ebp+esi]
  00156	3c 2c		 cmp	 al, 44			; 0000002cH
  00158	74 28		 je	 SHORT $LN178@GetSKillIn
  0015a	66 0f 1f 44 00
	00		 npad	 6
$LL25@GetSKillIn:
  00160	3c 2f		 cmp	 al, 47			; 0000002fH
  00162	74 15		 je	 SHORT $LN26@GetSKillIn
  00164	84 c0		 test	 al, al
  00166	74 11		 je	 SHORT $LN26@GetSKillIn

; 96   : 		strTemp[count]=pBuf[*pLocation];
; 97   : 		count++; (*pLocation)++;

  00168	46		 inc	 esi
  00169	88 44 0d bc	 mov	 BYTE PTR _strTemp$8[ebp+ecx], al
  0016d	41		 inc	 ecx
  0016e	8a 84 35 70 e2
	ff ff		 mov	 al, BYTE PTR _szSKillInfluence$[ebp+esi]
  00175	3c 2c		 cmp	 al, 44			; 0000002cH
  00177	75 e7		 jne	 SHORT $LL25@GetSKillIn
$LN26@GetSKillIn:

; 98   : 	}
; 99   : 	strTemp[count]=0;(*pLocation)++;

  00179	83 f9 32	 cmp	 ecx, 50			; 00000032H
  0017c	0f 83 fe 01 00
	00		 jae	 $LN15@GetSKillIn
$LN178@GetSKillIn:

; 100  : 	return atoi(strTemp);

  00182	8d 45 bc	 lea	 eax, DWORD PTR _strTemp$8[ebp]
  00185	c6 44 0d bc 00	 mov	 BYTE PTR _strTemp$8[ebp+ecx], 0
  0018a	50		 push	 eax
  0018b	46		 inc	 esi
  0018c	e8 00 00 00 00	 call	 _atoi

; 95   : 	while(pBuf[*pLocation]!=',' && pBuf[*pLocation]!='/' && pBuf[*pLocation]!=0) {

  00191	8a 8c 35 70 e2
	ff ff		 mov	 cl, BYTE PTR _szSKillInfluence$[ebp+esi]

; 100  : 	return atoi(strTemp);

  00198	83 c4 04	 add	 esp, 4

; 94   : 	int count=0;

  0019b	33 d2		 xor	 edx, edx
; File C:\IAGOS\server\v18\Source\Source\_Database\DbManagerFun.cpp

; 1396 : 		DWORD dwLevel	= (DWORD)GetIntFromStr( szSKillInfluence, &CountStr );

  0019d	8b d8		 mov	 ebx, eax
; File C:\IAGOS\server\v18\Source\Source\_network\CmnHdr.h

; 95   : 	while(pBuf[*pLocation]!=',' && pBuf[*pLocation]!='/' && pBuf[*pLocation]!=0) {

  0019f	80 f9 2c	 cmp	 cl, 44			; 0000002cH
  001a2	74 24		 je	 SHORT $LN177@GetSKillIn
$LL31@GetSKillIn:
  001a4	80 f9 2f	 cmp	 cl, 47			; 0000002fH
  001a7	74 16		 je	 SHORT $LN32@GetSKillIn
  001a9	84 c9		 test	 cl, cl
  001ab	74 12		 je	 SHORT $LN32@GetSKillIn

; 96   : 		strTemp[count]=pBuf[*pLocation];
; 97   : 		count++; (*pLocation)++;

  001ad	46		 inc	 esi
  001ae	88 4c 15 bc	 mov	 BYTE PTR _strTemp$9[ebp+edx], cl
  001b2	42		 inc	 edx
  001b3	8a 8c 35 70 e2
	ff ff		 mov	 cl, BYTE PTR _szSKillInfluence$[ebp+esi]
  001ba	80 f9 2c	 cmp	 cl, 44			; 0000002cH
  001bd	75 e5		 jne	 SHORT $LL31@GetSKillIn
$LN32@GetSKillIn:

; 98   : 	}
; 99   : 	strTemp[count]=0;(*pLocation)++;

  001bf	83 fa 32	 cmp	 edx, 50			; 00000032H
  001c2	0f 83 b8 01 00
	00		 jae	 $LN15@GetSKillIn
$LN177@GetSKillIn:

; 100  : 	return atoi(strTemp);

  001c8	8d 45 bc	 lea	 eax, DWORD PTR _strTemp$9[ebp]
  001cb	c6 44 15 bc 00	 mov	 BYTE PTR _strTemp$9[ebp+edx], 0
  001d0	46		 inc	 esi
  001d1	50		 push	 eax
  001d2	89 b5 5c e2 ff
	ff		 mov	 DWORD PTR _CountStr$1$[ebp], esi
  001d8	e8 00 00 00 00	 call	 _atoi
; File C:\IAGOS\server\v18\Source\Source\_Database\DbManagerFun.cpp

; 1399 : 		if( wType == 0 && wId == 0 && dwLevel == 0 && tmTotal == 0 )

  001dd	8b 95 64 e2 ff
	ff		 mov	 edx, DWORD PTR _wType$1$[ebp]
; File C:\IAGOS\server\v18\Source\Source\_network\CmnHdr.h

; 100  : 	return atoi(strTemp);

  001e3	83 c4 04	 add	 esp, 4
; File C:\IAGOS\server\v18\Source\Source\_Database\DbManagerFun.cpp

; 1397 : 		DWORD tmTotal	= GetIntFromStr( szSKillInfluence, &CountStr );

  001e6	8b f8		 mov	 edi, eax

; 1399 : 		if( wType == 0 && wId == 0 && dwLevel == 0 && tmTotal == 0 )

  001e8	66 85 d2	 test	 dx, dx
  001eb	75 15		 jne	 SHORT $LN5@GetSKillIn
  001ed	66 39 95 6c e2
	ff ff		 cmp	 WORD PTR _wId$1$[ebp], dx
  001f4	75 0c		 jne	 SHORT $LN5@GetSKillIn
  001f6	85 db		 test	 ebx, ebx
  001f8	75 08		 jne	 SHORT $LN5@GetSKillIn
  001fa	85 ff		 test	 edi, edi
  001fc	0f 84 26 01 00
	00		 je	 $LN3@GetSKillIn
$LN5@GetSKillIn:

; 1400 : 			break;
; 1401 : #endif // __HOUSING
; 1402 : 		IBuff* pBuff	= pMover->m_buffs.CreateBuff( wType );

  00202	8b 8d 68 e2 ff
	ff		 mov	 ecx, DWORD PTR _pMover$GSCopy$1$[ebp]
  00208	81 c1 60 3f 00
	00		 add	 ecx, 16224		; 00003f60H
  0020e	52		 push	 edx
  0020f	8b 01		 mov	 eax, DWORD PTR [ecx]
  00211	ff 50 04	 call	 DWORD PTR [eax+4]
  00214	8b c8		 mov	 ecx, eax

; 1403 : 		pBuff->SetId( wId );

  00216	8b 85 6c e2 ff
	ff		 mov	 eax, DWORD PTR _wId$1$[ebp]

; 1404 : 		pBuff->SetLevel( dwLevel );
; 1405 : 		pBuff->SetTotal( tmTotal );

  0021c	57		 push	 edi
  0021d	89 8d 64 e2 ff
	ff		 mov	 DWORD PTR $T5[ebp], ecx
  00223	66 89 41 06	 mov	 WORD PTR [ecx+6], ax
  00227	89 59 08	 mov	 DWORD PTR [ecx+8], ebx
  0022a	e8 00 00 00 00	 call	 ?SetTotal@IBuff@@QAEXK@Z ; IBuff::SetTotal
; File C:\IAGOS\server\v18\Source\Source\_Common\buff.h

; 212  : 	bool	Add( IBuff* pBuff )	{	return m_mapBuffs.insert( MAPBUFF::value_type( MAKELONG( pBuff->GetId(), pBuff->GetType() ), pBuff ) ).second;	}

  0022f	8b 85 64 e2 ff
	ff		 mov	 eax, DWORD PTR $T5[ebp]
; File C:\Program Files\Microsoft Visual Studio\2022\Professional\VC\Tools\MSVC\14.44.35207\include\xtree

; 1630 :         _Tree_find_result<_Nodeptr> _Result{{_Scary->_Myhead->_Parent, _Tree_child::_Right}, _Scary->_Myhead};

  00235	33 ff		 xor	 edi, edi
; File C:\IAGOS\server\v18\Source\Source\_Common\buff.h

; 212  : 	bool	Add( IBuff* pBuff )	{	return m_mapBuffs.insert( MAPBUFF::value_type( MAKELONG( pBuff->GetId(), pBuff->GetType() ), pBuff ) ).second;	}

  00237	8b 95 68 e2 ff
	ff		 mov	 edx, DWORD PTR _pMover$GSCopy$1$[ebp]
  0023d	81 c2 64 3f 00
	00		 add	 edx, 16228		; 00003f64H
  00243	0f b7 58 04	 movzx	 ebx, WORD PTR [eax+4]
  00247	0f b7 48 06	 movzx	 ecx, WORD PTR [eax+6]
  0024b	c1 e3 10	 shl	 ebx, 16			; 00000010H
  0024e	0b d9		 or	 ebx, ecx
; File C:\Program Files\Microsoft Visual Studio\2022\Professional\VC\Tools\MSVC\14.44.35207\include\xtree

; 1630 :         _Tree_find_result<_Nodeptr> _Result{{_Scary->_Myhead->_Parent, _Tree_child::_Right}, _Scary->_Myhead};

  00250	8b 0a		 mov	 ecx, DWORD PTR [edx]
  00252	89 8d 60 e2 ff
	ff		 mov	 DWORD PTR __Myhead$1$[ebp], ecx
  00258	8b 41 04	 mov	 eax, DWORD PTR [ecx+4]
  0025b	89 85 6c e2 ff
	ff		 mov	 DWORD PTR __Loc$1$[ebp], eax

; 1631 :         _Nodeptr _Trynode = _Result._Location._Parent;
; 1632 :         while (!_Trynode->_Isnil) {

  00261	80 78 0d 00	 cmp	 BYTE PTR [eax+13], 0
  00265	75 30		 jne	 SHORT $LN49@GetSKillIn
  00267	66 0f 1f 84 00
	00 00 00 00	 npad	 9
$LL48@GetSKillIn:

; 1633 :             _Result._Location._Parent = _Trynode;

  00270	89 85 6c e2 ff
	ff		 mov	 DWORD PTR __Loc$1$[ebp], eax
; File C:\Program Files\Microsoft Visual Studio\2022\Professional\VC\Tools\MSVC\14.44.35207\include\type_traits

; 2380 :         return _Left < _Right;

  00276	39 58 10	 cmp	 DWORD PTR [eax+16], ebx
; File C:\Program Files\Microsoft Visual Studio\2022\Professional\VC\Tools\MSVC\14.44.35207\include\xtree

; 1634 :             if (_DEBUG_LT_PRED(_Getcomp(), _Traits::_Kfn(_Trynode->_Myval), _Keyval)) {

  00279	73 07		 jae	 SHORT $LN50@GetSKillIn

; 1635 :                 _Result._Location._Child = _Tree_child::_Right;
; 1636 :                 _Trynode                 = _Trynode->_Right;

  0027b	8b 40 08	 mov	 eax, DWORD PTR [eax+8]
  0027e	33 ff		 xor	 edi, edi

; 1637 :             } else {

  00280	eb 09		 jmp	 SHORT $LN51@GetSKillIn
$LN50@GetSKillIn:

; 1638 :                 _Result._Location._Child = _Tree_child::_Left;
; 1639 :                 _Result._Bound           = _Trynode;

  00282	8b c8		 mov	 ecx, eax
  00284	bf 01 00 00 00	 mov	 edi, 1

; 1640 :                 _Trynode                 = _Trynode->_Left;

  00289	8b 00		 mov	 eax, DWORD PTR [eax]
$LN51@GetSKillIn:

; 1631 :         _Nodeptr _Trynode = _Result._Location._Parent;
; 1632 :         while (!_Trynode->_Isnil) {

  0028b	80 78 0d 00	 cmp	 BYTE PTR [eax+13], 0
  0028f	74 df		 je	 SHORT $LL48@GetSKillIn
  00291	8b b5 5c e2 ff
	ff		 mov	 esi, DWORD PTR _CountStr$1$[ebp]
$LN49@GetSKillIn:

; 1624 :         return !_Bound->_Isnil && !_DEBUG_LT_PRED(_Getcomp(), _Keyval, _Traits::_Kfn(_Bound->_Myval));

  00297	80 79 0d 00	 cmp	 BYTE PTR [ecx+13], 0
  0029b	75 05		 jne	 SHORT $LN44@GetSKillIn
; File C:\Program Files\Microsoft Visual Studio\2022\Professional\VC\Tools\MSVC\14.44.35207\include\type_traits

; 2380 :         return _Left < _Right;

  0029d	3b 59 10	 cmp	 ebx, DWORD PTR [ecx+16]
; File C:\Program Files\Microsoft Visual Studio\2022\Professional\VC\Tools\MSVC\14.44.35207\include\xtree

; 1624 :         return !_Bound->_Isnil && !_DEBUG_LT_PRED(_Getcomp(), _Keyval, _Traits::_Kfn(_Bound->_Myval));

  002a0	73 78		 jae	 SHORT $LN133@GetSKillIn
$LN44@GetSKillIn:

; 1648 :         if (max_size() == _Get_scary()->_Mysize) {

  002a2	81 7a 04 aa aa
	aa 0a		 cmp	 DWORD PTR [edx+4], 178956970 ; 0aaaaaaaH
  002a9	0f 84 d6 00 00
	00		 je	 $LN156@GetSKillIn
; File C:\Program Files\Microsoft Visual Studio\2022\Professional\VC\Tools\MSVC\14.44.35207\include\xmemory

; 1160 :     _CONSTEXPR20 explicit _Alloc_construct_ptr(_Alloc& _Al_) : _Al(_Al_), _Ptr(nullptr) {}

  002af	89 95 54 e2 ff
	ff		 mov	 DWORD PTR $T4[ebp], edx

; 136  :         return ::operator new(_Bytes);

  002b5	6a 18		 push	 24			; 00000018H
; File C:\Program Files\Microsoft Visual Studio\2022\Professional\VC\Tools\MSVC\14.44.35207\include\xtree

; 808  :     explicit _Tree_temp_node_alloc(_Alnode& _Al_) : _Alloc_construct_ptr<_Alnode>(_Al_) {

  002b7	c7 45 fc 00 00
	00 00		 mov	 DWORD PTR __$EHRec$[ebp+8], 0
; File C:\Program Files\Microsoft Visual Studio\2022\Professional\VC\Tools\MSVC\14.44.35207\include\xmemory

; 1167 :         _Ptr = nullptr; // if allocate throws, prevents double-free

  002be	c7 85 58 e2 ff
	ff 00 00 00 00	 mov	 DWORD PTR $T4[ebp+4], 0

; 136  :         return ::operator new(_Bytes);

  002c8	e8 00 00 00 00	 call	 ??2@YAPAXI@Z		; operator new
; File C:\Program Files\Microsoft Visual Studio\2022\Professional\VC\Tools\MSVC\14.44.35207\include\xtree

; 830  :         _Alnode_traits::construct(this->_Al, _STD addressof(this->_Ptr->_Myval), _STD forward<_Valtys>(_Vals)...);

  002cd	8b 8d 64 e2 ff
	ff		 mov	 ecx, DWORD PTR $T5[ebp]
; File C:\Program Files\Microsoft Visual Studio\2022\Professional\VC\Tools\MSVC\14.44.35207\include\xmemory

; 136  :         return ::operator new(_Bytes);

  002d3	83 c4 04	 add	 esp, 4
; File C:\Program Files\Microsoft Visual Studio\2022\Professional\VC\Tools\MSVC\14.44.35207\include\xtree

; 810  :     }

  002d6	c7 45 fc ff ff
	ff ff		 mov	 DWORD PTR __$EHRec$[ebp+8], -1
; File C:\Program Files\Microsoft Visual Studio\2022\Professional\VC\Tools\MSVC\14.44.35207\include\utility

; 774  :     _Val         = static_cast<_Other&&>(_New_val);

  002dd	c7 85 58 e2 ff
	ff 00 00 00 00	 mov	 DWORD PTR $T4[ebp+4], 0
; File C:\Program Files\Microsoft Visual Studio\2022\Professional\VC\Tools\MSVC\14.44.35207\include\xtree

; 830  :         _Alnode_traits::construct(this->_Al, _STD addressof(this->_Ptr->_Myval), _STD forward<_Valtys>(_Vals)...);

  002e7	89 58 10	 mov	 DWORD PTR [eax+16], ebx
  002ea	89 48 14	 mov	 DWORD PTR [eax+20], ecx

; 831  :         _Construct_in_place(this->_Ptr->_Left, _Myhead);

  002ed	8b 8d 60 e2 ff
	ff		 mov	 ecx, DWORD PTR __Myhead$1$[ebp]
  002f3	89 08		 mov	 DWORD PTR [eax], ecx

; 832  :         _Construct_in_place(this->_Ptr->_Parent, _Myhead);

  002f5	89 48 04	 mov	 DWORD PTR [eax+4], ecx

; 833  :         _Construct_in_place(this->_Ptr->_Right, _Myhead);

  002f8	89 48 08	 mov	 DWORD PTR [eax+8], ecx

; 1042 :         return {_Scary->_Insert_node(_Loc._Location, _Inserted), true};

  002fb	8b 8d 68 e2 ff
	ff		 mov	 ecx, DWORD PTR _pMover$GSCopy$1$[ebp]
  00301	50		 push	 eax
  00302	57		 push	 edi
  00303	ff b5 6c e2 ff
	ff		 push	 DWORD PTR __Loc$1$[ebp]
  00309	8d 89 64 3f 00
	00		 lea	 ecx, DWORD PTR [ecx+16228]

; 834  :         this->_Ptr->_Color = _Red;

  0030f	66 c7 40 0c 00
	00		 mov	 WORD PTR [eax+12], 0

; 1042 :         return {_Scary->_Insert_node(_Loc._Location, _Inserted), true};

  00315	e8 00 00 00 00	 call	 ?_Insert_node@?$_Tree_val@U?$_Tree_simple_types@U?$pair@$$CBKPAVIBuff@@@std@@@std@@@std@@QAEPAU?$_Tree_node@U?$pair@$$CBKPAVIBuff@@@std@@PAX@2@U?$_Tree_id@PAU?$_Tree_node@U?$pair@$$CBKPAVIBuff@@@std@@PAX@std@@@2@QAU32@@Z ; std::_Tree_val<std::_Tree_simple_types<std::pair<unsigned long const ,IBuff *> > >::_Insert_node
$LN133@GetSKillIn:
; File C:\IAGOS\server\v18\Source\Source\_Database\DbManagerFun.cpp

; 1391 : 	while( '$' != szSKillInfluence[CountStr] )

  0031a	80 bc 35 70 e2
	ff ff 24	 cmp	 BYTE PTR _szSKillInfluence$[ebp+esi], 36 ; 00000024H
  00322	0f 85 88 fd ff
	ff		 jne	 $LL2@GetSKillIn
$LN3@GetSKillIn:

; 1406 : 		bool bResult	= pMover->m_buffs.Add( pBuff );
; 1407 : 		ASSERT( bResult );
; 1408 : #else	// __BUFF_1107
; 1409 : 		pMover->m_SkillState.m_aSkillInfluence[iSkillIndex].wType = (WORD)GetIntFromStr( szSKillInfluence, &CountStr );
; 1410 : 		pMover->m_SkillState.m_aSkillInfluence[iSkillIndex].wID = (WORD)GetIntFromStr( szSKillInfluence, &CountStr );
; 1411 : 		pMover->m_SkillState.m_aSkillInfluence[iSkillIndex].dwLevel = (DWORD)GetIntFromStr( szSKillInfluence, &CountStr );
; 1412 : 		pMover->m_SkillState.m_aSkillInfluence[iSkillIndex].tmCount = GetIntFromStr( szSKillInfluence, &CountStr );
; 1413 : #if __VER >= 13 // __HOUSING
; 1414 : 		SKILLINFLUENCE* pSkillInfluenece = &pMover->m_SkillState.m_aSkillInfluence[iSkillIndex];
; 1415 : 		if( pSkillInfluenece->wType == 0 && pSkillInfluenece->wID == 0
; 1416 : 			&& pSkillInfluenece->dwLevel == 0 && pSkillInfluenece->tmCount == 0 )
; 1417 : 			break;
; 1418 : #endif // __HOUSING
; 1419 : #endif	// __BUFF_1107
; 1420 : 		
; 1421 : 		++iSkillIndex;
; 1422 : 	}
; 1423 : 	return TRUE;

  00328	b8 01 00 00 00	 mov	 eax, 1
  0032d	eb 33		 jmp	 SHORT $LN1@GetSKillIn
$LN8@GetSKillIn:

; 1390 : 	VERIFYSTRING_RETURN( szSKillInfluence, pMover->m_szName );

  0032f	8b 85 68 e2 ff
	ff		 mov	 eax, DWORD PTR _pMover$GSCopy$1$[ebp]
  00335	83 c0 6c	 add	 eax, 108		; 0000006cH
; File C:\IAGOS\server\v18\Source\Source\_database\DbManager.h

; 1308 : 	WriteLog( "%s, %d\t%s", lpFileName, nLine, lpName );

  00338	50		 push	 eax
  00339	68 6e 05 00 00	 push	 1390			; 0000056eH
  0033e	68 00 00 00 00	 push	 OFFSET ??_C@_0DN@JBKLBOHO@C?3?2IAGOS?2server?2v18?2Source?2Sour@
  00343	68 00 00 00 00	 push	 OFFSET ??_C@_09GBAEEKDE@?$CFs?0?5?$CFd?7?$CFs@
  00348	e8 00 00 00 00	 call	 ?WriteLog@@YAXPBDZZ	; WriteLog
  0034d	83 c4 10	 add	 esp, 16			; 00000010H

; 1309 : 	if( NULL != lpOverlapped )

  00350	85 db		 test	 ebx, ebx
  00352	74 0c		 je	 SHORT $LN181@GetSKillIn

; 1310 : 		FreeRequest( lpOverlapped );

  00354	8b 8d 60 e2 ff
	ff		 mov	 ecx, DWORD PTR _this$GSCopy$1$[ebp]
  0035a	53		 push	 ebx
  0035b	e8 00 00 00 00	 call	 ?FreeRequest@CDbManager@@QAEXPAUtagDB_OVERLAPPED_PLUS@@@Z ; CDbManager::FreeRequest
$LN181@GetSKillIn:
; File C:\IAGOS\server\v18\Source\Source\_Database\DbManagerFun.cpp

; 1390 : 	VERIFYSTRING_RETURN( szSKillInfluence, pMover->m_szName );

  00360	33 c0		 xor	 eax, eax
$LN1@GetSKillIn:

; 1424 : }

  00362	8b 4d f4	 mov	 ecx, DWORD PTR __$EHRec$[ebp]
  00365	64 89 0d 00 00
	00 00		 mov	 DWORD PTR fs:0, ecx
  0036c	59		 pop	 ecx
  0036d	5f		 pop	 edi
  0036e	5e		 pop	 esi
  0036f	5b		 pop	 ebx
  00370	8b 4d f0	 mov	 ecx, DWORD PTR __$ArrayPad$[ebp]
  00373	33 cd		 xor	 ecx, ebp
  00375	e8 00 00 00 00	 call	 @__security_check_cookie@4
  0037a	8b e5		 mov	 esp, ebp
  0037c	5d		 pop	 ebp
  0037d	c2 0c 00	 ret	 12			; 0000000cH
$LN15@GetSKillIn:
  00380	e8 00 00 00 00	 call	 ___report_rangecheckfailure
$LN156@GetSKillIn:
; File C:\Program Files\Microsoft Visual Studio\2022\Professional\VC\Tools\MSVC\14.44.35207\include\xtree

; 1649 :             _Throw_tree_length_error();

  00385	e8 00 00 00 00	 call	 ?_Throw_tree_length_error@std@@YAXXZ ; std::_Throw_tree_length_error
$LN184@GetSKillIn:
  0038a	cc		 int	 3
_TEXT	ENDS
;	COMDAT text$x
text$x	SEGMENT
__unwindfunclet$?GetSKillInfluence@CDbManager@@QAEHPAVCMover@@PAVCQuery@@PAUtagDB_OVERLAPPED_PLUS@@@Z$2:
  00000	8d 8d 54 e2 ff
	ff		 lea	 ecx, DWORD PTR $T4[ebp]
  00006	e9 00 00 00 00	 jmp	 ??1?$_Alloc_construct_ptr@V?$allocator@U?$_Tree_node@U?$pair@$$CBKPAVIBuff@@@std@@PAX@std@@@std@@@std@@QAE@XZ ; std::_Alloc_construct_ptr<std::allocator<std::_Tree_node<std::pair<unsigned long const ,IBuff *>,void *> > >::~_Alloc_construct_ptr<std::allocator<std::_Tree_node<std::pair<unsigned long const ,IBuff *>,void *> > >
  0000b	cc		 int	 3
  0000c	cc		 int	 3
  0000d	cc		 int	 3
  0000e	cc		 int	 3
  0000f	cc		 int	 3
__ehhandler$?GetSKillInfluence@CDbManager@@QAEHPAVCMover@@PAVCQuery@@PAUtagDB_OVERLAPPED_PLUS@@@Z:
  00010	90		 npad	 1
  00011	90		 npad	 1
  00012	8b 54 24 08	 mov	 edx, DWORD PTR [esp+8]
  00016	8d 42 0c	 lea	 eax, DWORD PTR [edx+12]
  00019	8b 8a 50 e2 ff
	ff		 mov	 ecx, DWORD PTR [edx-7600]
  0001f	33 c8		 xor	 ecx, eax
  00021	e8 00 00 00 00	 call	 @__security_check_cookie@4
  00026	8b 4a fc	 mov	 ecx, DWORD PTR [edx-4]
  00029	33 c8		 xor	 ecx, eax
  0002b	e8 00 00 00 00	 call	 @__security_check_cookie@4
  00030	b8 00 00 00 00	 mov	 eax, OFFSET __ehfuncinfo$?GetSKillInfluence@CDbManager@@QAEHPAVCMover@@PAVCQuery@@PAUtagDB_OVERLAPPED_PLUS@@@Z
  00035	e9 00 00 00 00	 jmp	 ___CxxFrameHandler3
text$x	ENDS
?GetSKillInfluence@CDbManager@@QAEHPAVCMover@@PAVCQuery@@PAUtagDB_OVERLAPPED_PLUS@@@Z ENDP ; CDbManager::GetSKillInfluence
; Function compile flags: /Ogtp
; File C:\IAGOS\server\v18\Source\Source\_Database\DbManagerFun.cpp
; File C:\IAGOS\server\v18\Source\Source\_database\DbManager.h
; File C:\IAGOS\server\v18\Source\Source\_Database\DbManagerFun.cpp
; File C:\IAGOS\server\v18\Source\Source\_network\CmnHdr.h
; File C:\IAGOS\server\v18\Source\Source\_Database\DbManagerFun.cpp
; File C:\IAGOS\server\v18\Source\Source\_database\DbManager.h
; File C:\IAGOS\server\v18\Source\Source\_Database\DbManagerFun.cpp
; File C:\IAGOS\server\v18\Source\Source\_network\CmnHdr.h
; File C:\IAGOS\server\v18\Source\Source\_Database\DbManagerFun.cpp
;	COMDAT ?GetSMMode@CDbManager@@QAEHPAVCMover@@PAVCQuery@@PAUtagDB_OVERLAPPED_PLUS@@@Z
_TEXT	SEGMENT
_pMover$GSCopy$1$ = -3136				; size = 4
_CountStr$ = -3132					; size = 4
_this$GSCopy$1$ = -3132					; size = 4
_SMCnt$ = -3128						; size = 3072
_strTemp$1 = -56					; size = 50
__$ArrayPad$ = -4					; size = 4
_pMover$ = 8						; size = 4
_qry$ = 12						; size = 4
_lpDbOverlappedPlus$ = 16				; size = 4
?GetSMMode@CDbManager@@QAEHPAVCMover@@PAVCQuery@@PAUtagDB_OVERLAPPED_PLUS@@@Z PROC ; CDbManager::GetSMMode, COMDAT
; _this$ = ecx

; 1344 : {

  00000	55		 push	 ebp
  00001	8b ec		 mov	 ebp, esp
  00003	81 ec 40 0c 00
	00		 sub	 esp, 3136		; 00000c40H
  00009	a1 00 00 00 00	 mov	 eax, DWORD PTR ___security_cookie
  0000e	33 c5		 xor	 eax, ebp
  00010	89 45 fc	 mov	 DWORD PTR __$ArrayPad$[ebp], eax
  00013	8b 45 08	 mov	 eax, DWORD PTR _pMover$[ebp]
  00016	53		 push	 ebx
  00017	8b 5d 10	 mov	 ebx, DWORD PTR _lpDbOverlappedPlus$[ebp]
  0001a	56		 push	 esi
  0001b	8b 75 0c	 mov	 esi, DWORD PTR _qry$[ebp]
  0001e	57		 push	 edi

; 1345 : 	int CountStr	= 0;
; 1346 : 	int IndexSM	= 0;
; 1347 : 	char SMCnt[3072]		= {0,};

  0001f	68 00 0c 00 00	 push	 3072			; 00000c00H
  00024	89 85 c0 f3 ff
	ff		 mov	 DWORD PTR _pMover$GSCopy$1$[ebp], eax
  0002a	33 ff		 xor	 edi, edi
  0002c	8d 85 c8 f3 ff
	ff		 lea	 eax, DWORD PTR _SMCnt$[ebp]
  00032	89 8d c4 f3 ff
	ff		 mov	 DWORD PTR _this$GSCopy$1$[ebp], ecx
  00038	57		 push	 edi
  00039	50		 push	 eax
  0003a	e8 00 00 00 00	 call	 _memset
  0003f	83 c4 0c	 add	 esp, 12			; 0000000cH

; 1348 : 	qry->GetStr( "m_dwSMTime", SMCnt );

  00042	8d 85 c8 f3 ff
	ff		 lea	 eax, DWORD PTR _SMCnt$[ebp]
  00048	8b ce		 mov	 ecx, esi
  0004a	50		 push	 eax
  0004b	68 00 00 00 00	 push	 OFFSET ??_C@_0L@JCPOPMED@m_dwSMTime@
  00050	e8 00 00 00 00	 call	 ?GetStr@CQuery@@QAEXPAD0@Z ; CQuery::GetStr

; 1349 : 	if( 0 != strcmp( SMCnt, "NULL" ) ) 

  00055	b9 00 00 00 00	 mov	 ecx, OFFSET ??_C@_04HIBGFPH@NULL@
  0005a	8d 85 c8 f3 ff
	ff		 lea	 eax, DWORD PTR _SMCnt$[ebp]
$LL35@GetSMMode:
  00060	8a 10		 mov	 dl, BYTE PTR [eax]
  00062	3a 11		 cmp	 dl, BYTE PTR [ecx]
  00064	75 1a		 jne	 SHORT $LN36@GetSMMode
  00066	84 d2		 test	 dl, dl
  00068	74 12		 je	 SHORT $LN37@GetSMMode
  0006a	8a 50 01	 mov	 dl, BYTE PTR [eax+1]
  0006d	3a 51 01	 cmp	 dl, BYTE PTR [ecx+1]
  00070	75 0e		 jne	 SHORT $LN36@GetSMMode
  00072	83 c0 02	 add	 eax, 2
  00075	83 c1 02	 add	 ecx, 2
  00078	84 d2		 test	 dl, dl
  0007a	75 e4		 jne	 SHORT $LL35@GetSMMode
$LN37@GetSMMode:
  0007c	33 c0		 xor	 eax, eax
  0007e	eb 05		 jmp	 SHORT $LN38@GetSMMode
$LN36@GetSMMode:
  00080	1b c0		 sbb	 eax, eax
  00082	83 c8 01	 or	 eax, 1
$LN38@GetSMMode:
  00085	85 c0		 test	 eax, eax
  00087	0f 84 43 01 00
	00		 je	 $LN3@GetSMMode
; File C:\IAGOS\server\v18\Source\Source\_database\DbManager.h

; 1305 : 	int len		= strlen( lpString );

  0008d	8d 8d c8 f3 ff
	ff		 lea	 ecx, DWORD PTR _SMCnt$[ebp]
  00093	8d 51 01	 lea	 edx, DWORD PTR [ecx+1]
$LL39@GetSMMode:
  00096	8a 01		 mov	 al, BYTE PTR [ecx]
  00098	41		 inc	 ecx
  00099	84 c0		 test	 al, al
  0009b	75 f9		 jne	 SHORT $LL39@GetSMMode
  0009d	2b ca		 sub	 ecx, edx

; 1306 : 	if( len > 0 && lpString[len-1] == '$' )

  0009f	85 c9		 test	 ecx, ecx
  000a1	0f 8e 41 01 00
	00		 jle	 $LN14@GetSMMode
  000a7	80 bc 0d c7 f3
	ff ff 24	 cmp	 BYTE PTR _SMCnt$[ebp+ecx-1], 36 ; 00000024H
  000af	0f 85 33 01 00
	00		 jne	 $LN14@GetSMMode
; File C:\IAGOS\server\v18\Source\Source\_Database\DbManagerFun.cpp

; 1352 : 		while( '$' != SMCnt[CountStr] )

  000b5	80 bd c8 f3 ff
	ff 24		 cmp	 BYTE PTR _SMCnt$[ebp], 36 ; 00000024H
  000bc	0f 84 0e 01 00
	00		 je	 $LN3@GetSMMode
; File C:\IAGOS\server\v18\Source\Source\_network\CmnHdr.h

; 92   : {

  000c2	8b 9d c0 f3 ff
	ff		 mov	 ebx, DWORD PTR _pMover$GSCopy$1$[ebp]
  000c8	be f7 ff ff ff	 mov	 esi, -9			; fffffff7H
  000cd	81 c3 f4 3e 00
	00		 add	 ebx, 16116		; 00003ef4H
$LL2@GetSMMode:

; 93   : 	char strTemp[50];
; 94   : 	int count=0;
; 95   : 	while(pBuf[*pLocation]!=',' && pBuf[*pLocation]!='/' && pBuf[*pLocation]!=0) {

  000d3	8a 84 3d c8 f3
	ff ff		 mov	 al, BYTE PTR _SMCnt$[ebp+edi]
  000da	33 c9		 xor	 ecx, ecx
  000dc	3c 2c		 cmp	 al, 44			; 0000002cH
  000de	74 22		 je	 SHORT $LN32@GetSMMode
$LL18@GetSMMode:
  000e0	3c 2f		 cmp	 al, 47			; 0000002fH
  000e2	74 15		 je	 SHORT $LN19@GetSMMode
  000e4	84 c0		 test	 al, al
  000e6	74 11		 je	 SHORT $LN19@GetSMMode

; 96   : 		strTemp[count]=pBuf[*pLocation];
; 97   : 		count++; (*pLocation)++;

  000e8	47		 inc	 edi
  000e9	88 44 0d c8	 mov	 BYTE PTR _strTemp$1[ebp+ecx], al
  000ed	41		 inc	 ecx
  000ee	8a 84 3d c8 f3
	ff ff		 mov	 al, BYTE PTR _SMCnt$[ebp+edi]
  000f5	3c 2c		 cmp	 al, 44			; 0000002cH
  000f7	75 e7		 jne	 SHORT $LL18@GetSMMode
$LN19@GetSMMode:

; 99   : 	strTemp[count]=0;(*pLocation)++;

  000f9	83 f9 32	 cmp	 ecx, 50			; 00000032H
  000fc	0f 83 2c 01 00
	00		 jae	 $LN21@GetSMMode
$LN32@GetSMMode:

; 100  : 	return atoi(strTemp);

  00102	8d 45 c8	 lea	 eax, DWORD PTR _strTemp$1[ebp]
  00105	c6 44 0d c8 00	 mov	 BYTE PTR _strTemp$1[ebp+ecx], 0
  0010a	47		 inc	 edi
  0010b	50		 push	 eax
  0010c	89 bd c4 f3 ff
	ff		 mov	 DWORD PTR _CountStr$[ebp], edi
  00112	e8 00 00 00 00	 call	 _atoi
  00117	83 c4 04	 add	 esp, 4
; File C:\IAGOS\server\v18\Source\Source\_Database\DbManagerFun.cpp

; 1354 : 			pMover->m_dwSMTime[IndexSM] = (DWORD)GetIntFromStr( SMCnt, &CountStr );

  0011a	89 03		 mov	 DWORD PTR [ebx], eax

; 1355 : 			switch( IndexSM )

  0011c	83 fe 09	 cmp	 esi, 9
  0011f	0f 87 99 00 00
	00		 ja	 $LN4@GetSMMode
  00125	0f b6 86 00 00
	00 00		 movzx	 eax, BYTE PTR $LN40@GetSMMode[esi]
  0012c	ff 24 85 00 00
	00 00		 jmp	 DWORD PTR $LN41@GetSMMode[eax*4]
$LN8@GetSMMode:

; 1356 : 			{
; 1357 : 			case SM_MAX_HP50:
; 1358 : 				{
; 1359 : 					pMover->m_nPlusMaxHitPoint = (LONG)GetIntFromStr( SMCnt, &CountStr );

  00133	8d 85 c4 f3 ff
	ff		 lea	 eax, DWORD PTR _CountStr$[ebp]
  00139	50		 push	 eax
  0013a	8d 85 c8 f3 ff
	ff		 lea	 eax, DWORD PTR _SMCnt$[ebp]
  00140	50		 push	 eax
  00141	e8 00 00 00 00	 call	 ?GetIntFromStr@@YAHPADPAH@Z ; GetIntFromStr
  00146	8b 8d c0 f3 ff
	ff		 mov	 ecx, DWORD PTR _pMover$GSCopy$1$[ebp]
  0014c	89 81 f0 3e 00
	00		 mov	 DWORD PTR [ecx+16112], eax

; 1360 : 				}
; 1361 : 				break;

  00152	eb 61		 jmp	 SHORT $LN56@GetSMMode
$LN9@GetSMMode:

; 1362 : 			case SM_RESIST_ATTACK_LEFT:
; 1363 : 				{
; 1364 : 					pMover->m_nAttackResistLeft = (BYTE)GetIntFromStr( SMCnt, &CountStr );

  00154	8d 85 c4 f3 ff
	ff		 lea	 eax, DWORD PTR _CountStr$[ebp]
  0015a	50		 push	 eax
  0015b	8d 85 c8 f3 ff
	ff		 lea	 eax, DWORD PTR _SMCnt$[ebp]
  00161	50		 push	 eax
  00162	e8 00 00 00 00	 call	 ?GetIntFromStr@@YAHPADPAH@Z ; GetIntFromStr
  00167	8b 8d c0 f3 ff
	ff		 mov	 ecx, DWORD PTR _pMover$GSCopy$1$[ebp]
  0016d	88 81 5c 3f 00
	00		 mov	 BYTE PTR [ecx+16220], al

; 1365 : 				}
; 1366 : 				break;

  00173	eb 40		 jmp	 SHORT $LN56@GetSMMode
$LN10@GetSMMode:

; 1367 : 			case SM_RESIST_ATTACK_RIGHT:
; 1368 : 				{
; 1369 : 					pMover->m_nAttackResistRight = (BYTE)GetIntFromStr( SMCnt, &CountStr );

  00175	8d 85 c4 f3 ff
	ff		 lea	 eax, DWORD PTR _CountStr$[ebp]
  0017b	50		 push	 eax
  0017c	8d 85 c8 f3 ff
	ff		 lea	 eax, DWORD PTR _SMCnt$[ebp]
  00182	50		 push	 eax
  00183	e8 00 00 00 00	 call	 ?GetIntFromStr@@YAHPADPAH@Z ; GetIntFromStr
  00188	8b 8d c0 f3 ff
	ff		 mov	 ecx, DWORD PTR _pMover$GSCopy$1$[ebp]
  0018e	88 81 5d 3f 00
	00		 mov	 BYTE PTR [ecx+16221], al

; 1370 : 				}
; 1371 : 				break;

  00194	eb 1f		 jmp	 SHORT $LN56@GetSMMode
$LN11@GetSMMode:

; 1372 : 			case SM_RESIST_DEFENSE:
; 1373 : 				{
; 1374 : 					pMover->m_nDefenseResist = (BYTE)GetIntFromStr( SMCnt, &CountStr );

  00196	8d 85 c4 f3 ff
	ff		 lea	 eax, DWORD PTR _CountStr$[ebp]
  0019c	50		 push	 eax
  0019d	8d 85 c8 f3 ff
	ff		 lea	 eax, DWORD PTR _SMCnt$[ebp]
  001a3	50		 push	 eax
  001a4	e8 00 00 00 00	 call	 ?GetIntFromStr@@YAHPADPAH@Z ; GetIntFromStr
  001a9	8b 8d c0 f3 ff
	ff		 mov	 ecx, DWORD PTR _pMover$GSCopy$1$[ebp]
  001af	88 81 5e 3f 00
	00		 mov	 BYTE PTR [ecx+16222], al
$LN56@GetSMMode:

; 1375 : 				}
; 1376 : 				break;
; 1377 : 			}
; 1378 : 			++IndexSM;

  001b5	8b bd c4 f3 ff
	ff		 mov	 edi, DWORD PTR _CountStr$[ebp]
  001bb	83 c4 08	 add	 esp, 8
$LN4@GetSMMode:
  001be	83 c3 04	 add	 ebx, 4
  001c1	46		 inc	 esi
  001c2	80 bc 3d c8 f3
	ff ff 24	 cmp	 BYTE PTR _SMCnt$[ebp+edi], 36 ; 00000024H
  001ca	0f 85 03 ff ff
	ff		 jne	 $LL2@GetSMMode
$LN3@GetSMMode:
  001d0	5f		 pop	 edi

; 1382 : }

  001d1	5e		 pop	 esi
  001d2	b8 01 00 00 00	 mov	 eax, 1
  001d7	5b		 pop	 ebx
  001d8	8b 4d fc	 mov	 ecx, DWORD PTR __$ArrayPad$[ebp]
  001db	33 cd		 xor	 ecx, ebp
  001dd	e8 00 00 00 00	 call	 @__security_check_cookie@4
  001e2	8b e5		 mov	 esp, ebp
  001e4	5d		 pop	 ebp
  001e5	c2 0c 00	 ret	 12			; 0000000cH
$LN14@GetSMMode:

; 1350 : 	{
; 1351 : 		VERIFYSTRING_RETURN( SMCnt, pMover->m_szName );

  001e8	8b 85 c0 f3 ff
	ff		 mov	 eax, DWORD PTR _pMover$GSCopy$1$[ebp]
  001ee	83 c0 6c	 add	 eax, 108		; 0000006cH
; File C:\IAGOS\server\v18\Source\Source\_database\DbManager.h

; 1308 : 	WriteLog( "%s, %d\t%s", lpFileName, nLine, lpName );

  001f1	50		 push	 eax
  001f2	68 47 05 00 00	 push	 1351			; 00000547H
  001f7	68 00 00 00 00	 push	 OFFSET ??_C@_0DN@JBKLBOHO@C?3?2IAGOS?2server?2v18?2Source?2Sour@
  001fc	68 00 00 00 00	 push	 OFFSET ??_C@_09GBAEEKDE@?$CFs?0?5?$CFd?7?$CFs@
  00201	e8 00 00 00 00	 call	 ?WriteLog@@YAXPBDZZ	; WriteLog
  00206	83 c4 10	 add	 esp, 16			; 00000010H

; 1309 : 	if( NULL != lpOverlapped )

  00209	85 db		 test	 ebx, ebx
  0020b	74 0c		 je	 SHORT $LN33@GetSMMode

; 1310 : 		FreeRequest( lpOverlapped );

  0020d	8b 8d c4 f3 ff
	ff		 mov	 ecx, DWORD PTR _this$GSCopy$1$[ebp]
  00213	53		 push	 ebx
  00214	e8 00 00 00 00	 call	 ?FreeRequest@CDbManager@@QAEXPAUtagDB_OVERLAPPED_PLUS@@@Z ; CDbManager::FreeRequest
$LN33@GetSMMode:
; File C:\IAGOS\server\v18\Source\Source\_Database\DbManagerFun.cpp

; 1382 : }

  00219	8b 4d fc	 mov	 ecx, DWORD PTR __$ArrayPad$[ebp]
  0021c	33 c0		 xor	 eax, eax
  0021e	5f		 pop	 edi
  0021f	5e		 pop	 esi
  00220	33 cd		 xor	 ecx, ebp
  00222	5b		 pop	 ebx
  00223	e8 00 00 00 00	 call	 @__security_check_cookie@4
  00228	8b e5		 mov	 esp, ebp
  0022a	5d		 pop	 ebp
  0022b	c2 0c 00	 ret	 12			; 0000000cH
$LN21@GetSMMode:
; File C:\IAGOS\server\v18\Source\Source\_network\CmnHdr.h

; 99   : 	strTemp[count]=0;(*pLocation)++;

  0022e	e8 00 00 00 00	 call	 ___report_rangecheckfailure
$LN55@GetSMMode:
  00233	90		 npad	 1
$LN41@GetSMMode:
; File C:\IAGOS\server\v18\Source\Source\_Database\DbManagerFun.cpp

; 1382 : }

  00234	00 00 00 00	 DD	 $LN8@GetSMMode
  00238	00 00 00 00	 DD	 $LN9@GetSMMode
  0023c	00 00 00 00	 DD	 $LN10@GetSMMode
  00240	00 00 00 00	 DD	 $LN11@GetSMMode
  00244	00 00 00 00	 DD	 $LN4@GetSMMode
$LN40@GetSMMode:
  00248	00		 DB	 0
  00249	04		 DB	 4
  0024a	04		 DB	 4
  0024b	04		 DB	 4
  0024c	04		 DB	 4
  0024d	04		 DB	 4
  0024e	04		 DB	 4
  0024f	01		 DB	 1
  00250	02		 DB	 2
  00251	03		 DB	 3
?GetSMMode@CDbManager@@QAEHPAVCMover@@PAVCQuery@@PAUtagDB_OVERLAPPED_PLUS@@@Z ENDP ; CDbManager::GetSMMode
_TEXT	ENDS
; Function compile flags: /Ogtp
; File C:\IAGOS\server\v18\Source\Source\_Database\DbManagerFun.cpp
; File C:\IAGOS\server\v18\Source\Source\_database\DbManager.h
; File C:\IAGOS\server\v18\Source\Source\_Database\DbManagerFun.cpp
; File C:\IAGOS\server\v18\Source\Source\_database\DbManager.h
; File C:\IAGOS\server\v18\Source\Source\_Database\DbManagerFun.cpp
; File C:\IAGOS\server\v18\Source\Source\_database\DbManager.h
; File C:\IAGOS\server\v18\Source\Source\_Database\DbManagerFun.cpp
; File C:\IAGOS\server\v18\Source\Source\_network\CmnHdr.h
; File C:\IAGOS\server\v18\Source\Source\_Database\DbManagerFun.cpp
; File C:\IAGOS\server\v18\Source\Source\_network\CmnHdr.h
; File C:\IAGOS\server\v18\Source\Source\_Database\DbManagerFun.cpp
; File C:\IAGOS\server\v18\Source\Source\_database\DbManager.h
; File C:\IAGOS\server\v18\Source\Source\_Database\DbManagerFun.cpp
; File C:\IAGOS\server\v18\Source\Source\_network\CmnHdr.h
; File C:\IAGOS\server\v18\Source\Source\_Database\DbManagerFun.cpp
; File C:\IAGOS\server\v18\Source\Source\_network\CmnHdr.h
; File C:\IAGOS\server\v18\Source\Source\_Database\DbManagerFun.cpp
; File C:\IAGOS\server\v18\Source\Source\_database\DbManager.h
; File C:\IAGOS\server\v18\Source\Source\_Database\DbManagerFun.cpp
; File C:\IAGOS\server\v18\Source\Source\_database\DbManager.h
; File C:\IAGOS\server\v18\Source\Source\_Database\DbManagerFun.cpp
; File C:\IAGOS\server\v18\Source\Source\_database\DbManager.h
; File C:\IAGOS\server\v18\Source\Source\_Database\DbManagerFun.cpp
;	COMDAT ?GetQuest@CDbManager@@QAEHPAVCMover@@PAVCQuery@@PAUtagDB_OVERLAPPED_PLUS@@@Z
_TEXT	SEGMENT
_pMover$GSCopy$1$ = -4288				; size = 4
tv733 = -4284						; size = 4
tv1250 = -4284						; size = 4
_lpDbOverlappedPlus$GSCopy$1$ = -4284			; size = 4
_i$1$ = -4280						; size = 4
_qry$GSCopy$1$ = -4280					; size = 4
tv1260 = -4276						; size = 4
_this$GSCopy$1$ = -4276					; size = 4
_CountStr$ = -4272					; size = 4
_IndexQuest$2$ = -4272					; size = 4
_IndexQuest$3$ = -4272					; size = 4
tv1282 = -4272						; size = 4
tv1270 = -4268						; size = 4
$T1 = -4268						; size = 4
_BufQuest$2 = -4264					; size = 12
_QuestCnt$ = -4252					; size = 3072
_CompleteQuest$ = -1180					; size = 1024
_CheckedQuest$ = -156					; size = 100
_strTemp$3 = -56					; size = 50
_strTemp$4 = -56					; size = 50
__$ArrayPad$ = -4					; size = 4
_pMover$ = 8						; size = 4
_qry$ = 12						; size = 4
_lpDbOverlappedPlus$ = 16				; size = 4
?GetQuest@CDbManager@@QAEHPAVCMover@@PAVCQuery@@PAUtagDB_OVERLAPPED_PLUS@@@Z PROC ; CDbManager::GetQuest, COMDAT
; _this$ = ecx

; 1241 : {

  00000	55		 push	 ebp
  00001	8b ec		 mov	 ebp, esp
  00003	b8 c0 10 00 00	 mov	 eax, 4288		; 000010c0H
  00008	e8 00 00 00 00	 call	 __chkstk
  0000d	a1 00 00 00 00	 mov	 eax, DWORD PTR ___security_cookie
  00012	33 c5		 xor	 eax, ebp
  00014	89 45 fc	 mov	 DWORD PTR __$ArrayPad$[ebp], eax
  00017	8b 45 0c	 mov	 eax, DWORD PTR _qry$[ebp]
  0001a	53		 push	 ebx
  0001b	56		 push	 esi
  0001c	8b 75 10	 mov	 esi, DWORD PTR _lpDbOverlappedPlus$[ebp]

; 1242 : 	int CountStr	= 0;
; 1243 : 	int IndexQuest	= 0;

  0001f	33 db		 xor	 ebx, ebx
  00021	57		 push	 edi
  00022	8b 7d 08	 mov	 edi, DWORD PTR _pMover$[ebp]

; 1244 : 	char QuestCnt[3072]		= {0,};

  00025	68 00 0c 00 00	 push	 3072			; 00000c00H
  0002a	89 85 48 ef ff
	ff		 mov	 DWORD PTR _qry$GSCopy$1$[ebp], eax
  00030	8d 85 64 ef ff
	ff		 lea	 eax, DWORD PTR _QuestCnt$[ebp]
  00036	53		 push	 ebx
  00037	50		 push	 eax
  00038	89 8d 4c ef ff
	ff		 mov	 DWORD PTR _this$GSCopy$1$[ebp], ecx
  0003e	89 bd 40 ef ff
	ff		 mov	 DWORD PTR _pMover$GSCopy$1$[ebp], edi
  00044	89 b5 44 ef ff
	ff		 mov	 DWORD PTR _lpDbOverlappedPlus$GSCopy$1$[ebp], esi
  0004a	c7 85 50 ef ff
	ff 00 00 00 00	 mov	 DWORD PTR _CountStr$[ebp], 0
  00054	e8 00 00 00 00	 call	 _memset

; 1245 : 	qry->GetStr( "m_lpQuestCntArray", QuestCnt );

  00059	8b 8d 48 ef ff
	ff		 mov	 ecx, DWORD PTR _qry$GSCopy$1$[ebp]
  0005f	8d 85 64 ef ff
	ff		 lea	 eax, DWORD PTR _QuestCnt$[ebp]
  00065	83 c4 0c	 add	 esp, 12			; 0000000cH
  00068	50		 push	 eax
  00069	68 00 00 00 00	 push	 OFFSET ??_C@_0BC@KGPDILGI@m_lpQuestCntArray@
  0006e	e8 00 00 00 00	 call	 ?GetStr@CQuery@@QAEXPAD0@Z ; CQuery::GetStr
; File C:\IAGOS\server\v18\Source\Source\_database\DbManager.h

; 1305 : 	int len		= strlen( lpString );

  00073	8d 8d 64 ef ff
	ff		 lea	 ecx, DWORD PTR _QuestCnt$[ebp]
  00079	8d 51 01	 lea	 edx, DWORD PTR [ecx+1]
  0007c	0f 1f 40 00	 npad	 4
$LL142@GetQuest:
  00080	8a 01		 mov	 al, BYTE PTR [ecx]
  00082	41		 inc	 ecx
  00083	84 c0		 test	 al, al
  00085	75 f9		 jne	 SHORT $LL142@GetQuest
  00087	2b ca		 sub	 ecx, edx

; 1306 : 	if( len > 0 && lpString[len-1] == '$' )

  00089	85 c9		 test	 ecx, ecx
  0008b	0f 8e b6 04 00
	00		 jle	 $LN44@GetQuest
  00091	80 bc 0d 63 ef
	ff ff 24	 cmp	 BYTE PTR _QuestCnt$[ebp+ecx-1], 36 ; 00000024H
  00099	0f 85 a8 04 00
	00		 jne	 $LN44@GetQuest
; File C:\IAGOS\server\v18\Source\Source\_Database\DbManagerFun.cpp

; 1247 : 	while( '$' != QuestCnt[CountStr] )

  0009f	80 bd 64 ef ff
	ff 24		 cmp	 BYTE PTR _QuestCnt$[ebp], 36 ; 00000024H
; File C:\IAGOS\server\v18\Source\Source\_database\DbManager.h

; 1307 : 		return TRUE;

  000a6	8d 47 6c	 lea	 eax, DWORD PTR [edi+108]
  000a9	89 85 54 ef ff
	ff		 mov	 DWORD PTR $T1[ebp], eax
; File C:\IAGOS\server\v18\Source\Source\_Database\DbManagerFun.cpp

; 1247 : 	while( '$' != QuestCnt[CountStr] )

  000af	74 61		 je	 SHORT $LN3@GetQuest
  000b1	33 f6		 xor	 esi, esi
  000b3	89 85 54 ef ff
	ff		 mov	 DWORD PTR $T1[ebp], eax
  000b9	0f 1f 80 00 00
	00 00		 npad	 7
$LL2@GetQuest:

; 1248 : 	{
; 1249 : 		QUEST BufQuest;
; 1250 : 		GetOneQuest( &BufQuest, QuestCnt, &CountStr );

  000c0	8b 8d 4c ef ff
	ff		 mov	 ecx, DWORD PTR _this$GSCopy$1$[ebp]
  000c6	8d 85 50 ef ff
	ff		 lea	 eax, DWORD PTR _CountStr$[ebp]
  000cc	50		 push	 eax
  000cd	8d 85 64 ef ff
	ff		 lea	 eax, DWORD PTR _QuestCnt$[ebp]
  000d3	50		 push	 eax
  000d4	8d 85 58 ef ff
	ff		 lea	 eax, DWORD PTR _BufQuest$2[ebp]
  000da	50		 push	 eax
  000db	e8 00 00 00 00	 call	 ?GetOneQuest@CDbManager@@QAEXPAUtagQuest@@PADPAH@Z ; CDbManager::GetOneQuest

; 1251 : 		pMover->m_aQuest[IndexQuest] = BufQuest;

  000e0	8b 8f ec 40 00
	00		 mov	 ecx, DWORD PTR [edi+16620]

; 1252 : 		IndexQuest++;

  000e6	8d 76 0c	 lea	 esi, DWORD PTR [esi+12]
  000e9	f3 0f 7e 85 58
	ef ff ff	 movq	 xmm0, QWORD PTR _BufQuest$2[ebp]
  000f1	43		 inc	 ebx
  000f2	8b 85 60 ef ff
	ff		 mov	 eax, DWORD PTR _BufQuest$2[ebp+8]
  000f8	66 0f d6 44 31
	f4		 movq	 QWORD PTR [ecx+esi-12], xmm0
  000fe	89 44 31 fc	 mov	 DWORD PTR [ecx+esi-4], eax
  00102	8b 85 50 ef ff
	ff		 mov	 eax, DWORD PTR _CountStr$[ebp]
  00108	80 bc 05 64 ef
	ff ff 24	 cmp	 BYTE PTR _QuestCnt$[ebp+eax], 36 ; 00000024H
  00110	75 ae		 jne	 SHORT $LL2@GetQuest
$LN3@GetQuest:

; 1253 : 	}
; 1254 : 	pMover->m_nQuestSize = IndexQuest;
; 1255 : 
; 1256 : 	int nQuestSize = IndexQuest;
; 1257 : 	CountStr	= 0;

  00112	33 f6		 xor	 esi, esi
  00114	88 9f f4 40 00
	00		 mov	 BYTE PTR [edi+16628], bl

; 1258 : 	IndexQuest	= 0;
; 1259 : 	char CompleteQuest[1024]		= {0,};

  0011a	68 00 04 00 00	 push	 1024			; 00000400H
  0011f	8d 85 64 fb ff
	ff		 lea	 eax, DWORD PTR _CompleteQuest$[ebp]
  00125	89 b5 50 ef ff
	ff		 mov	 DWORD PTR _IndexQuest$2$[ebp], esi
  0012b	56		 push	 esi
  0012c	50		 push	 eax
  0012d	e8 00 00 00 00	 call	 _memset

; 1260 : 	qry->GetStr( "m_aCompleteQuest", CompleteQuest );

  00132	8b 8d 48 ef ff
	ff		 mov	 ecx, DWORD PTR _qry$GSCopy$1$[ebp]
  00138	8d 85 64 fb ff
	ff		 lea	 eax, DWORD PTR _CompleteQuest$[ebp]
  0013e	83 c4 0c	 add	 esp, 12			; 0000000cH
  00141	50		 push	 eax
  00142	68 00 00 00 00	 push	 OFFSET ??_C@_0BB@HNPOCMEF@m_aCompleteQuest@
  00147	e8 00 00 00 00	 call	 ?GetStr@CQuery@@QAEXPAD0@Z ; CQuery::GetStr
; File C:\IAGOS\server\v18\Source\Source\_database\DbManager.h

; 1305 : 	int len		= strlen( lpString );

  0014c	8d 8d 64 fb ff
	ff		 lea	 ecx, DWORD PTR _CompleteQuest$[ebp]
  00152	8d 51 01	 lea	 edx, DWORD PTR [ecx+1]
$LL143@GetQuest:
  00155	8a 01		 mov	 al, BYTE PTR [ecx]
  00157	41		 inc	 ecx
  00158	84 c0		 test	 al, al
  0015a	75 f9		 jne	 SHORT $LL143@GetQuest
  0015c	2b ca		 sub	 ecx, edx

; 1306 : 	if( len > 0 && lpString[len-1] == '$' )

  0015e	85 c9		 test	 ecx, ecx
  00160	0f 8e d4 03 00
	00		 jle	 $LN48@GetQuest
  00166	80 bc 0d 63 fb
	ff ff 24	 cmp	 BYTE PTR _CompleteQuest$[ebp+ecx-1], 36 ; 00000024H
  0016e	0f 85 c6 03 00
	00		 jne	 $LN48@GetQuest
; File C:\IAGOS\server\v18\Source\Source\_Database\DbManagerFun.cpp

; 1262 : 	while( '$' != CompleteQuest[CountStr] )

  00174	8a 85 64 fb ff
	ff		 mov	 al, BYTE PTR _CompleteQuest$[ebp]
  0017a	3c 24		 cmp	 al, 36			; 00000024H
  0017c	74 70		 je	 SHORT $LN147@GetQuest

; 1297 : 				pMover->m_nCompleteQuestSize++;

  0017e	8b 8d 54 ef ff
	ff		 mov	 ecx, DWORD PTR $T1[ebp]
  00184	89 8d 54 ef ff
	ff		 mov	 DWORD PTR $T1[ebp], ecx
  0018a	66 0f 1f 44 00
	00		 npad	 6
$LL4@GetQuest:
; File C:\IAGOS\server\v18\Source\Source\_network\CmnHdr.h

; 94   : 	int count=0;

  00190	33 c9		 xor	 ecx, ecx

; 95   : 	while(pBuf[*pLocation]!=',' && pBuf[*pLocation]!='/' && pBuf[*pLocation]!=0) {

  00192	3c 2c		 cmp	 al, 44			; 0000002cH
  00194	74 22		 je	 SHORT $LN137@GetQuest
$LL52@GetQuest:
  00196	3c 2f		 cmp	 al, 47			; 0000002fH
  00198	74 15		 je	 SHORT $LN53@GetQuest
  0019a	84 c0		 test	 al, al
  0019c	74 11		 je	 SHORT $LN53@GetQuest

; 96   : 		strTemp[count]=pBuf[*pLocation];
; 97   : 		count++; (*pLocation)++;

  0019e	46		 inc	 esi
  0019f	88 44 0d c8	 mov	 BYTE PTR _strTemp$4[ebp+ecx], al
  001a3	41		 inc	 ecx
  001a4	8a 84 35 64 fb
	ff ff		 mov	 al, BYTE PTR _CompleteQuest$[ebp+esi]
  001ab	3c 2c		 cmp	 al, 44			; 0000002cH
  001ad	75 e7		 jne	 SHORT $LL52@GetQuest
$LN53@GetQuest:

; 98   : 	}
; 99   : 	strTemp[count]=0;(*pLocation)++;

  001af	83 f9 32	 cmp	 ecx, 50			; 00000032H
  001b2	0f 83 cf 03 00
	00		 jae	 $LN55@GetQuest
$LN137@GetQuest:

; 100  : 	return atoi(strTemp);

  001b8	8d 45 c8	 lea	 eax, DWORD PTR _strTemp$4[ebp]
  001bb	c6 44 0d c8 00	 mov	 BYTE PTR _strTemp$4[ebp+ecx], 0
  001c0	50		 push	 eax
  001c1	46		 inc	 esi
  001c2	e8 00 00 00 00	 call	 _atoi
; File C:\IAGOS\server\v18\Source\Source\_Database\DbManagerFun.cpp

; 1264 : 		pMover->m_aCompleteQuest[IndexQuest] = (WORD)GetIntFromStr( CompleteQuest, &CountStr ); 

  001c7	8b 95 50 ef ff
	ff		 mov	 edx, DWORD PTR _IndexQuest$2$[ebp]
; File C:\IAGOS\server\v18\Source\Source\_network\CmnHdr.h

; 100  : 	return atoi(strTemp);

  001cd	83 c4 04	 add	 esp, 4
; File C:\IAGOS\server\v18\Source\Source\_Database\DbManagerFun.cpp

; 1264 : 		pMover->m_aCompleteQuest[IndexQuest] = (WORD)GetIntFromStr( CompleteQuest, &CountStr ); 

  001d0	8b 8f f0 40 00
	00		 mov	 ecx, DWORD PTR [edi+16624]
  001d6	66 89 04 51	 mov	 WORD PTR [ecx+edx*2], ax

; 1265 : 		IndexQuest++;

  001da	42		 inc	 edx
  001db	8a 84 35 64 fb
	ff ff		 mov	 al, BYTE PTR _CompleteQuest$[ebp+esi]
  001e2	89 95 50 ef ff
	ff		 mov	 DWORD PTR _IndexQuest$2$[ebp], edx
  001e8	3c 24		 cmp	 al, 36			; 00000024H
  001ea	75 a4		 jne	 SHORT $LL4@GetQuest

; 1262 : 	while( '$' != CompleteQuest[CountStr] )

  001ec	eb 02		 jmp	 SHORT $LN140@GetQuest
$LN147@GetQuest:
  001ee	33 d2		 xor	 edx, edx
$LN140@GetQuest:

; 1266 : 	}
; 1267 : 	pMover->m_nCompleteQuestSize = IndexQuest;
; 1268 : 
; 1269 : #if __VER >= 15 // __IMPROVE_QUEST_INTERFACE
; 1270 : 	CountStr = 0;

  001f0	33 f6		 xor	 esi, esi
  001f2	88 97 f5 40 00
	00		 mov	 BYTE PTR [edi+16629], dl

; 1271 : 	IndexQuest = 0;
; 1272 : 	char CheckedQuest[100] = {0, };

  001f8	6a 64		 push	 100			; 00000064H
  001fa	8d 85 64 ff ff
	ff		 lea	 eax, DWORD PTR _CheckedQuest$[ebp]
  00200	89 b5 50 ef ff
	ff		 mov	 DWORD PTR _IndexQuest$3$[ebp], esi
  00206	56		 push	 esi
  00207	50		 push	 eax
  00208	e8 00 00 00 00	 call	 _memset

; 1273 : 	qry->GetStr( "m_aCheckedQuest", CheckedQuest );

  0020d	8b 8d 48 ef ff
	ff		 mov	 ecx, DWORD PTR _qry$GSCopy$1$[ebp]
  00213	8d 85 64 ff ff
	ff		 lea	 eax, DWORD PTR _CheckedQuest$[ebp]
  00219	83 c4 0c	 add	 esp, 12			; 0000000cH
  0021c	50		 push	 eax
  0021d	68 00 00 00 00	 push	 OFFSET ??_C@_0BA@DPOFAGJ@m_aCheckedQuest@
  00222	e8 00 00 00 00	 call	 ?GetStr@CQuery@@QAEXPAD0@Z ; CQuery::GetStr
; File C:\IAGOS\server\v18\Source\Source\_database\DbManager.h

; 1305 : 	int len		= strlen( lpString );

  00227	8d 8d 64 ff ff
	ff		 lea	 ecx, DWORD PTR _CheckedQuest$[ebp]
  0022d	8d 51 01	 lea	 edx, DWORD PTR [ecx+1]
$LL144@GetQuest:
  00230	8a 01		 mov	 al, BYTE PTR [ecx]
  00232	41		 inc	 ecx
  00233	84 c0		 test	 al, al
  00235	75 f9		 jne	 SHORT $LL144@GetQuest
  00237	2b ca		 sub	 ecx, edx

; 1306 : 	if( len > 0 && lpString[len-1] == '$' )

  00239	85 c9		 test	 ecx, ecx
  0023b	0f 8e cf 02 00
	00		 jle	 $LN59@GetQuest
  00241	80 bc 0d 63 ff
	ff ff 24	 cmp	 BYTE PTR _CheckedQuest$[ebp+ecx-1], 36 ; 00000024H
  00249	0f 85 c1 02 00
	00		 jne	 $LN59@GetQuest
; File C:\IAGOS\server\v18\Source\Source\_Database\DbManagerFun.cpp

; 1275 : 	while( '$' != CheckedQuest[CountStr] )

  0024f	8a 85 64 ff ff
	ff		 mov	 al, BYTE PTR _CheckedQuest$[ebp]
  00255	3c 24		 cmp	 al, 36			; 00000024H
  00257	74 65		 je	 SHORT $LN146@GetQuest
  00259	0f 1f 80 00 00
	00 00		 npad	 7
$LL6@GetQuest:
; File C:\IAGOS\server\v18\Source\Source\_network\CmnHdr.h

; 94   : 	int count=0;

  00260	33 c9		 xor	 ecx, ecx

; 95   : 	while(pBuf[*pLocation]!=',' && pBuf[*pLocation]!='/' && pBuf[*pLocation]!=0) {

  00262	3c 2c		 cmp	 al, 44			; 0000002cH
  00264	74 22		 je	 SHORT $LN135@GetQuest
$LL63@GetQuest:
  00266	3c 2f		 cmp	 al, 47			; 0000002fH
  00268	74 15		 je	 SHORT $LN64@GetQuest
  0026a	84 c0		 test	 al, al
  0026c	74 11		 je	 SHORT $LN64@GetQuest

; 96   : 		strTemp[count]=pBuf[*pLocation];
; 97   : 		count++; (*pLocation)++;

  0026e	46		 inc	 esi
  0026f	88 44 0d c8	 mov	 BYTE PTR _strTemp$3[ebp+ecx], al
  00273	41		 inc	 ecx
  00274	8a 84 35 64 ff
	ff ff		 mov	 al, BYTE PTR _CheckedQuest$[ebp+esi]
  0027b	3c 2c		 cmp	 al, 44			; 0000002cH
  0027d	75 e7		 jne	 SHORT $LL63@GetQuest
$LN64@GetQuest:

; 98   : 	}
; 99   : 	strTemp[count]=0;(*pLocation)++;

  0027f	83 f9 32	 cmp	 ecx, 50			; 00000032H
  00282	0f 83 ff 02 00
	00		 jae	 $LN55@GetQuest
$LN135@GetQuest:

; 100  : 	return atoi(strTemp);

  00288	8d 45 c8	 lea	 eax, DWORD PTR _strTemp$3[ebp]
  0028b	c6 44 0d c8 00	 mov	 BYTE PTR _strTemp$3[ebp+ecx], 0
  00290	50		 push	 eax
  00291	46		 inc	 esi
  00292	e8 00 00 00 00	 call	 _atoi
; File C:\IAGOS\server\v18\Source\Source\_Database\DbManagerFun.cpp

; 1277 : 		pMover->m_aCheckedQuest[IndexQuest] = (WORD)GetIntFromStr( CheckedQuest, &CountStr ); 

  00297	8b 95 50 ef ff
	ff		 mov	 edx, DWORD PTR _IndexQuest$3$[ebp]
; File C:\IAGOS\server\v18\Source\Source\_network\CmnHdr.h

; 100  : 	return atoi(strTemp);

  0029d	83 c4 04	 add	 esp, 4
; File C:\IAGOS\server\v18\Source\Source\_Database\DbManagerFun.cpp

; 1277 : 		pMover->m_aCheckedQuest[IndexQuest] = (WORD)GetIntFromStr( CheckedQuest, &CountStr ); 

  002a0	8b 8f 08 41 00
	00		 mov	 ecx, DWORD PTR [edi+16648]
  002a6	66 89 04 51	 mov	 WORD PTR [ecx+edx*2], ax

; 1278 : 		IndexQuest++;

  002aa	42		 inc	 edx
  002ab	8a 84 35 64 ff
	ff ff		 mov	 al, BYTE PTR _CheckedQuest$[ebp+esi]
  002b2	89 95 50 ef ff
	ff		 mov	 DWORD PTR _IndexQuest$3$[ebp], edx
  002b8	3c 24		 cmp	 al, 36			; 00000024H
  002ba	75 a4		 jne	 SHORT $LL6@GetQuest

; 1275 : 	while( '$' != CheckedQuest[CountStr] )

  002bc	eb 02		 jmp	 SHORT $LN141@GetQuest
$LN146@GetQuest:
  002be	33 d2		 xor	 edx, edx
$LN141@GetQuest:

; 1279 : 	}
; 1280 : 	pMover->m_nCheckedQuestSize = IndexQuest;
; 1281 : #endif // __IMPROVE_QUEST_INTERFACE
; 1282 : 
; 1283 : 	// ±âÁ¸ °ÍÁßżˇ żĎ·áµČ°ÍŔ» żĎ·á ąčż­żˇ łÖ´Â´Ů.
; 1284 : 	for( int i = 0; i < nQuestSize; i++ )

  002c0	33 c0		 xor	 eax, eax
  002c2	88 97 0c 41 00
	00		 mov	 BYTE PTR [edi+16652], dl
  002c8	89 85 48 ef ff
	ff		 mov	 DWORD PTR _i$1$[ebp], eax
  002ce	85 db		 test	 ebx, ebx
  002d0	0f 8e 1c 02 00
	00		 jle	 $LN9@GetQuest

; 1290 : 			{
; 1291 : 				if( pMover->m_aCompleteQuest[ j ] == pMover->m_aQuest[ i ].m_wId )

  002d6	33 c9		 xor	 ecx, ecx
  002d8	c7 85 4c ef ff
	ff 0c 00 00 00	 mov	 DWORD PTR tv1260[ebp], 12 ; 0000000cH
  002e2	89 8d 54 ef ff
	ff		 mov	 DWORD PTR tv1270[ebp], ecx
  002e8	0f 1f 84 00 00
	00 00 00	 npad	 8
$LL10@GetQuest:

; 1285 : 	{
; 1286 : 		if( pMover->m_aQuest[ i ].m_nState == QS_END )

  002f0	8b b7 ec 40 00
	00		 mov	 esi, DWORD PTR [edi+16620]
  002f6	80 3c 0e 0e	 cmp	 BYTE PTR [esi+ecx], 14	; 0000000eH
  002fa	0f 85 34 01 00
	00		 jne	 $LN129@GetQuest

; 1287 : 		{
; 1288 : 			int j = NULL;
; 1289 : 			for( ; j < pMover->m_nCompleteQuestSize; j++ )

  00300	0f b6 97 f5 40
	00 00		 movzx	 edx, BYTE PTR [edi+16629]
  00307	33 c0		 xor	 eax, eax
  00309	85 d2		 test	 edx, edx
  0030b	74 1e		 je	 SHORT $LN81@GetQuest

; 1290 : 			{
; 1291 : 				if( pMover->m_aCompleteQuest[ j ] == pMover->m_aQuest[ i ].m_wId )

  0030d	0f b7 74 0e 04	 movzx	 esi, WORD PTR [esi+ecx+4]
  00312	8b 8f f0 40 00
	00		 mov	 ecx, DWORD PTR [edi+16624]
$LL13@GetQuest:
  00318	66 39 31	 cmp	 WORD PTR [ecx], si
  0031b	74 2d		 je	 SHORT $LN133@GetQuest

; 1287 : 		{
; 1288 : 			int j = NULL;
; 1289 : 			for( ; j < pMover->m_nCompleteQuestSize; j++ )

  0031d	40		 inc	 eax
  0031e	83 c1 02	 add	 ecx, 2
  00321	3b c2		 cmp	 eax, edx
  00323	7c f3		 jl	 SHORT $LL13@GetQuest
  00325	8b b7 ec 40 00
	00		 mov	 esi, DWORD PTR [edi+16620]
$LN81@GetQuest:

; 1292 : 					break;
; 1293 : 			}
; 1294 : 			if( j == pMover->m_nCompleteQuestSize )

  0032b	3b c2		 cmp	 eax, edx
  0032d	75 1b		 jne	 SHORT $LN133@GetQuest

; 1295 : 			{
; 1296 : 				pMover->m_aCompleteQuest[ pMover->m_nCompleteQuestSize ] = pMover->m_aQuest[ i ].m_wId;

  0032f	8b 85 54 ef ff
	ff		 mov	 eax, DWORD PTR tv1270[ebp]
  00335	8b 8f f0 40 00
	00		 mov	 ecx, DWORD PTR [edi+16624]
  0033b	66 8b 44 06 04	 mov	 ax, WORD PTR [esi+eax+4]
  00340	66 89 04 51	 mov	 WORD PTR [ecx+edx*2], ax

; 1297 : 				pMover->m_nCompleteQuestSize++;

  00344	fe 87 f5 40 00
	00		 inc	 BYTE PTR [edi+16629]
$LN133@GetQuest:

; 1298 : 			}
; 1299 : 			for( j = i; j < nQuestSize - 1; j++ )

  0034a	8b 85 48 ef ff
	ff		 mov	 eax, DWORD PTR _i$1$[ebp]
  00350	8d 53 ff	 lea	 edx, DWORD PTR [ebx-1]
  00353	3b c2		 cmp	 eax, edx
  00355	7d 28		 jge	 SHORT $LN15@GetQuest
  00357	8b b5 54 ef ff
	ff		 mov	 esi, DWORD PTR tv1270[ebp]
  0035d	2b d0		 sub	 edx, eax
  0035f	90		 npad	 1
$LL16@GetQuest:

; 1300 : 			{
; 1301 : 				pMover->m_aQuest[ j ] = pMover->m_aQuest[ j + 1 ];

  00360	8b 8f ec 40 00
	00		 mov	 ecx, DWORD PTR [edi+16620]
  00366	03 ce		 add	 ecx, esi
  00368	83 c6 0c	 add	 esi, 12			; 0000000cH
  0036b	f3 0f 7e 41 0c	 movq	 xmm0, QWORD PTR [ecx+12]
  00370	66 0f d6 01	 movq	 QWORD PTR [ecx], xmm0
  00374	8b 41 14	 mov	 eax, DWORD PTR [ecx+20]
  00377	89 41 08	 mov	 DWORD PTR [ecx+8], eax
  0037a	83 ea 01	 sub	 edx, 1
  0037d	75 e1		 jne	 SHORT $LL16@GetQuest
$LN15@GetQuest:

; 1302 : 			}
; 1303 : #if __VER >= 15 // __IMPROVE_QUEST_INTERFACE
; 1304 : 			for( int k = 0; k < pMover->m_nCheckedQuestSize; ++k )

  0037f	8a 8f 0c 41 00
	00		 mov	 cl, BYTE PTR [edi+16652]
  00385	33 d2		 xor	 edx, edx
  00387	84 c9		 test	 cl, cl
  00389	0f 84 86 00 00
	00		 je	 $LN18@GetQuest

; 1305 : 			{
; 1306 : 				if( pMover->m_aCheckedQuest[ k ] == pMover->m_aQuest[ i ].m_wId )

  0038f	8b 87 ec 40 00
	00		 mov	 eax, DWORD PTR [edi+16620]
  00395	8b b5 54 ef ff
	ff		 mov	 esi, DWORD PTR tv1270[ebp]
  0039b	0f b7 44 30 04	 movzx	 eax, WORD PTR [eax+esi+4]
  003a0	89 85 44 ef ff
	ff		 mov	 DWORD PTR tv1250[ebp], eax
  003a6	8b 87 08 41 00
	00		 mov	 eax, DWORD PTR [edi+16648]
  003ac	0f 1f 40 00	 npad	 4
$LL19@GetQuest:
  003b0	8b bd 44 ef ff
	ff		 mov	 edi, DWORD PTR tv1250[ebp]
  003b6	66 39 38	 cmp	 WORD PTR [eax], di
  003b9	8b bd 40 ef ff
	ff		 mov	 edi, DWORD PTR _pMover$GSCopy$1$[ebp]
  003bf	0f b6 f1	 movzx	 esi, cl
  003c2	74 0a		 je	 SHORT $LN82@GetQuest

; 1302 : 			}
; 1303 : #if __VER >= 15 // __IMPROVE_QUEST_INTERFACE
; 1304 : 			for( int k = 0; k < pMover->m_nCheckedQuestSize; ++k )

  003c4	42		 inc	 edx
  003c5	83 c0 02	 add	 eax, 2
  003c8	3b d6		 cmp	 edx, esi
  003ca	7c e4		 jl	 SHORT $LL19@GetQuest

; 1324 : 				{
; 1325 : 					if( pMover->m_aQuest[ j ].m_wId == pMover->m_aQuest[ i ].m_wId )

  003cc	eb 47		 jmp	 SHORT $LN18@GetQuest
$LN82@GetQuest:

; 1307 : 				{
; 1308 : 					for( int l = k; l < pMover->m_nCheckedQuestSize - 1; ++l )

  003ce	8d 46 ff	 lea	 eax, DWORD PTR [esi-1]
  003d1	3b d0		 cmp	 edx, eax
  003d3	7d 29		 jge	 SHORT $LN21@GetQuest
  003d5	8d 34 12	 lea	 esi, DWORD PTR [edx+edx]
  003d8	0f 1f 84 00 00
	00 00 00	 npad	 8
$LL22@GetQuest:

; 1309 : 						pMover->m_aCheckedQuest[ k ] = pMover->m_aCheckedQuest[ k + 1 ];

  003e0	8b 8f 08 41 00
	00		 mov	 ecx, DWORD PTR [edi+16648]
  003e6	42		 inc	 edx
  003e7	66 8b 44 31 02	 mov	 ax, WORD PTR [ecx+esi+2]
  003ec	66 89 04 31	 mov	 WORD PTR [ecx+esi], ax
  003f0	8a 8f 0c 41 00
	00		 mov	 cl, BYTE PTR [edi+16652]
  003f6	0f b6 c1	 movzx	 eax, cl
  003f9	48		 dec	 eax
  003fa	3b d0		 cmp	 edx, eax
  003fc	7c e2		 jl	 SHORT $LL22@GetQuest
$LN21@GetQuest:

; 1310 : 					pMover->m_aCheckedQuest[ --pMover->m_nCheckedQuestSize ] = 0;

  003fe	8b 87 08 41 00
	00		 mov	 eax, DWORD PTR [edi+16648]
  00404	fe c9		 dec	 cl
  00406	88 8f 0c 41 00
	00		 mov	 BYTE PTR [edi+16652], cl
  0040c	33 d2		 xor	 edx, edx
  0040e	0f b6 c9	 movzx	 ecx, cl
  00411	66 89 14 48	 mov	 WORD PTR [eax+ecx*2], dx
$LN18@GetQuest:

; 1311 : 					break;
; 1312 : 				}
; 1313 : 			}
; 1314 : #endif // __IMPROVE_QUEST_INTERFACE
; 1315 : 			nQuestSize--;
; 1316 : 			i--;

  00415	8b 85 48 ef ff
	ff		 mov	 eax, DWORD PTR _i$1$[ebp]
  0041b	4b		 dec	 ebx
  0041c	8b 8d 54 ef ff
	ff		 mov	 ecx, DWORD PTR tv1270[ebp]
  00422	48		 dec	 eax
  00423	8b 95 4c ef ff
	ff		 mov	 edx, DWORD PTR tv1260[ebp]
  00429	83 e9 0c	 sub	 ecx, 12			; 0000000cH
  0042c	83 ea 0c	 sub	 edx, 12			; 0000000cH

; 1317 : 		}

  0042f	e9 9d 00 00 00	 jmp	 $LN24@GetQuest
$LN129@GetQuest:
  00434	40		 inc	 eax
  00435	89 85 50 ef ff
	ff		 mov	 DWORD PTR tv1282[ebp], eax
  0043b	0f 1f 44 00 00	 npad	 5
$LL25@GetQuest:

; 1318 : 		else
; 1319 : 		{
; 1320 : 			int j = 0;
; 1321 : 			do
; 1322 : 			{
; 1323 : 				for( j = i + 1; j < nQuestSize; j++ )

  00440	3b c3		 cmp	 eax, ebx
  00442	7d 20		 jge	 SHORT $LN193@GetQuest

; 1324 : 				{
; 1325 : 					if( pMover->m_aQuest[ j ].m_wId == pMover->m_aQuest[ i ].m_wId )

  00444	8b 97 ec 40 00
	00		 mov	 edx, DWORD PTR [edi+16620]
  0044a	0f b7 74 0a 04	 movzx	 esi, WORD PTR [edx+ecx+4]
  0044f	8b 8d 4c ef ff
	ff		 mov	 ecx, DWORD PTR tv1260[ebp]
$LL28@GetQuest:
  00455	66 39 74 0a 04	 cmp	 WORD PTR [edx+ecx+4], si
  0045a	74 0a		 je	 SHORT $LN134@GetQuest

; 1318 : 		else
; 1319 : 		{
; 1320 : 			int j = 0;
; 1321 : 			do
; 1322 : 			{
; 1323 : 				for( j = i + 1; j < nQuestSize; j++ )

  0045c	40		 inc	 eax
  0045d	83 c1 0c	 add	 ecx, 12			; 0000000cH
  00460	3b c3		 cmp	 eax, ebx
  00462	7c f1		 jl	 SHORT $LL28@GetQuest
$LN193@GetQuest:

; 1326 : 						break;
; 1327 : 				}
; 1328 : 				if( j != nQuestSize )

  00464	74 59		 je	 SHORT $LN145@GetQuest
$LN134@GetQuest:

; 1329 : 				{
; 1330 : 					for( int k = j; k < nQuestSize - 1; k++ )

  00466	8d 4b ff	 lea	 ecx, DWORD PTR [ebx-1]
  00469	3b c1		 cmp	 eax, ecx
  0046b	7d 41		 jge	 SHORT $LN30@GetQuest
  0046d	8b f3		 mov	 esi, ebx
  0046f	8d 14 40	 lea	 edx, DWORD PTR [eax+eax*2]
  00472	2b f0		 sub	 esi, eax
  00474	c1 e2 02	 shl	 edx, 2
  00477	4e		 dec	 esi
  00478	0f 1f 84 00 00
	00 00 00	 npad	 8
$LL31@GetQuest:

; 1331 : 					{
; 1332 : 						pMover->m_aQuest[ k ] = pMover->m_aQuest[ k + 1 ];

  00480	8b 8f ec 40 00
	00		 mov	 ecx, DWORD PTR [edi+16620]
  00486	03 ca		 add	 ecx, edx
  00488	83 c2 0c	 add	 edx, 12			; 0000000cH
  0048b	f3 0f 7e 41 0c	 movq	 xmm0, QWORD PTR [ecx+12]
  00490	66 0f d6 01	 movq	 QWORD PTR [ecx], xmm0
  00494	8b 41 14	 mov	 eax, DWORD PTR [ecx+20]
  00497	89 41 08	 mov	 DWORD PTR [ecx+8], eax
  0049a	83 ee 01	 sub	 esi, 1
  0049d	75 e1		 jne	 SHORT $LL31@GetQuest

; 1297 : 				pMover->m_nCompleteQuestSize++;

  0049f	8b 85 50 ef ff
	ff		 mov	 eax, DWORD PTR tv1282[ebp]
  004a5	4b		 dec	 ebx
  004a6	8b 8d 54 ef ff
	ff		 mov	 ecx, DWORD PTR tv1270[ebp]
  004ac	eb 92		 jmp	 SHORT $LL25@GetQuest
$LN30@GetQuest:

; 1333 : 					}
; 1334 : 					nQuestSize--;
; 1335 : 				}
; 1336 : 			} while( j != nQuestSize );

  004ae	8b 8d 54 ef ff
	ff		 mov	 ecx, DWORD PTR tv1270[ebp]
  004b4	4b		 dec	 ebx
  004b5	3b c3		 cmp	 eax, ebx
  004b7	8b 85 50 ef ff
	ff		 mov	 eax, DWORD PTR tv1282[ebp]
  004bd	75 81		 jne	 SHORT $LL25@GetQuest
$LN145@GetQuest:
  004bf	8b 8d 54 ef ff
	ff		 mov	 ecx, DWORD PTR tv1270[ebp]
  004c5	8b 85 48 ef ff
	ff		 mov	 eax, DWORD PTR _i$1$[ebp]
  004cb	8b 95 4c ef ff
	ff		 mov	 edx, DWORD PTR tv1260[ebp]
$LN24@GetQuest:

; 1279 : 	}
; 1280 : 	pMover->m_nCheckedQuestSize = IndexQuest;
; 1281 : #endif // __IMPROVE_QUEST_INTERFACE
; 1282 : 
; 1283 : 	// ±âÁ¸ °ÍÁßżˇ żĎ·áµČ°ÍŔ» żĎ·á ąčż­żˇ łÖ´Â´Ů.
; 1284 : 	for( int i = 0; i < nQuestSize; i++ )

  004d1	40		 inc	 eax
  004d2	83 c1 0c	 add	 ecx, 12			; 0000000cH
  004d5	83 c2 0c	 add	 edx, 12			; 0000000cH
  004d8	89 85 48 ef ff
	ff		 mov	 DWORD PTR _i$1$[ebp], eax
  004de	89 8d 54 ef ff
	ff		 mov	 DWORD PTR tv1270[ebp], ecx
  004e4	89 95 4c ef ff
	ff		 mov	 DWORD PTR tv1260[ebp], edx
  004ea	3b c3		 cmp	 eax, ebx
  004ec	0f 8c fe fd ff
	ff		 jl	 $LL10@GetQuest
$LN9@GetQuest:

; 1337 : 		}
; 1338 : 	}
; 1339 : 	pMover->m_nQuestSize = nQuestSize;

  004f2	88 9f f4 40 00
	00		 mov	 BYTE PTR [edi+16628], bl

; 1340 : 	return TRUE;

  004f8	b8 01 00 00 00	 mov	 eax, 1
  004fd	5f		 pop	 edi

; 1341 : }

  004fe	5e		 pop	 esi
  004ff	5b		 pop	 ebx
  00500	8b 4d fc	 mov	 ecx, DWORD PTR __$ArrayPad$[ebp]
  00503	33 cd		 xor	 ecx, ebp
  00505	e8 00 00 00 00	 call	 @__security_check_cookie@4
  0050a	8b e5		 mov	 esp, ebp
  0050c	5d		 pop	 ebp
  0050d	c2 0c 00	 ret	 12			; 0000000cH
$LN59@GetQuest:
; File C:\IAGOS\server\v18\Source\Source\_database\DbManager.h

; 1308 : 	WriteLog( "%s, %d\t%s", lpFileName, nLine, lpName );

  00510	ff b5 54 ef ff
	ff		 push	 DWORD PTR $T1[ebp]
  00516	68 fa 04 00 00	 push	 1274			; 000004faH
$LN195@GetQuest:
; File C:\IAGOS\server\v18\Source\Source\_Database\DbManagerFun.cpp

; 1274 : 	VERIFYSTRING_RETURN( CheckedQuest, pMover->m_szName );

  0051b	68 00 00 00 00	 push	 OFFSET ??_C@_0DN@JBKLBOHO@C?3?2IAGOS?2server?2v18?2Source?2Sour@
  00520	68 00 00 00 00	 push	 OFFSET ??_C@_09GBAEEKDE@?$CFs?0?5?$CFd?7?$CFs@
  00525	e8 00 00 00 00	 call	 ?WriteLog@@YAXPBDZZ	; WriteLog
  0052a	8b 85 44 ef ff
	ff		 mov	 eax, DWORD PTR _lpDbOverlappedPlus$GSCopy$1$[ebp]
  00530	83 c4 10	 add	 esp, 16			; 00000010H
  00533	85 c0		 test	 eax, eax
  00535	74 3b		 je	 SHORT $LN136@GetQuest
  00537	50		 push	 eax
  00538	eb 2d		 jmp	 SHORT $LN194@GetQuest
$LN48@GetQuest:
; File C:\IAGOS\server\v18\Source\Source\_database\DbManager.h

; 1308 : 	WriteLog( "%s, %d\t%s", lpFileName, nLine, lpName );

  0053a	ff b5 54 ef ff
	ff		 push	 DWORD PTR $T1[ebp]
  00540	68 ed 04 00 00	 push	 1261			; 000004edH
; File C:\IAGOS\server\v18\Source\Source\_Database\DbManagerFun.cpp

; 1297 : 				pMover->m_nCompleteQuestSize++;

  00545	eb d4		 jmp	 SHORT $LN195@GetQuest
$LN44@GetQuest:

; 1246 : 	VERIFYSTRING_RETURN( QuestCnt, pMover->m_szName );

  00547	8d 47 6c	 lea	 eax, DWORD PTR [edi+108]
; File C:\IAGOS\server\v18\Source\Source\_database\DbManager.h

; 1308 : 	WriteLog( "%s, %d\t%s", lpFileName, nLine, lpName );

  0054a	50		 push	 eax
  0054b	68 de 04 00 00	 push	 1246			; 000004deH
  00550	68 00 00 00 00	 push	 OFFSET ??_C@_0DN@JBKLBOHO@C?3?2IAGOS?2server?2v18?2Source?2Sour@
  00555	68 00 00 00 00	 push	 OFFSET ??_C@_09GBAEEKDE@?$CFs?0?5?$CFd?7?$CFs@
  0055a	e8 00 00 00 00	 call	 ?WriteLog@@YAXPBDZZ	; WriteLog
  0055f	83 c4 10	 add	 esp, 16			; 00000010H

; 1309 : 	if( NULL != lpOverlapped )

  00562	85 f6		 test	 esi, esi
  00564	74 0c		 je	 SHORT $LN136@GetQuest

; 1310 : 		FreeRequest( lpOverlapped );

  00566	56		 push	 esi
$LN194@GetQuest:
; File C:\IAGOS\server\v18\Source\Source\_Database\DbManagerFun.cpp

; 1274 : 	VERIFYSTRING_RETURN( CheckedQuest, pMover->m_szName );

  00567	8b 8d 4c ef ff
	ff		 mov	 ecx, DWORD PTR _this$GSCopy$1$[ebp]
  0056d	e8 00 00 00 00	 call	 ?FreeRequest@CDbManager@@QAEXPAUtagDB_OVERLAPPED_PLUS@@@Z ; CDbManager::FreeRequest
$LN136@GetQuest:

; 1341 : }

  00572	8b 4d fc	 mov	 ecx, DWORD PTR __$ArrayPad$[ebp]
  00575	33 c0		 xor	 eax, eax
  00577	5f		 pop	 edi
  00578	5e		 pop	 esi
  00579	33 cd		 xor	 ecx, ebp
  0057b	5b		 pop	 ebx
  0057c	e8 00 00 00 00	 call	 @__security_check_cookie@4
  00581	8b e5		 mov	 esp, ebp
  00583	5d		 pop	 ebp
  00584	c2 0c 00	 ret	 12			; 0000000cH
$LN55@GetQuest:
  00587	e8 00 00 00 00	 call	 ___report_rangecheckfailure
$LN192@GetQuest:
  0058c	cc		 int	 3
?GetQuest@CDbManager@@QAEHPAVCMover@@PAVCQuery@@PAUtagDB_OVERLAPPED_PLUS@@@Z ENDP ; CDbManager::GetQuest
_TEXT	ENDS
; Function compile flags: /Ogtp
; File C:\IAGOS\server\v18\Source\Source\_Database\DbManagerFun.cpp
;	COMDAT ?GetJobLv@CDbManager@@QAEXPAVCMover@@PAVCQuery@@PAUtagDB_OVERLAPPED_PLUS@@@Z
_TEXT	SEGMENT
_pMover$ = 8						; size = 4
_qry$ = 12						; size = 4
_lpDbOverlappedPlus$ = 16				; size = 4
?GetJobLv@CDbManager@@QAEXPAVCMover@@PAVCQuery@@PAUtagDB_OVERLAPPED_PLUS@@@Z PROC ; CDbManager::GetJobLv, COMDAT
; _this$ = ecx

; 1238 : }

  00000	c2 0c 00	 ret	 12			; 0000000cH
?GetJobLv@CDbManager@@QAEXPAVCMover@@PAVCQuery@@PAUtagDB_OVERLAPPED_PLUS@@@Z ENDP ; CDbManager::GetJobLv
_TEXT	ENDS
; Function compile flags: /Ogtp
; File C:\IAGOS\server\v18\Source\Source\_Database\DbManagerFun.cpp
;	COMDAT ?GetSkill@CDbManager@@QAEHPAVCMover@@PAVCQuery@@PAUtagDB_OVERLAPPED_PLUS@@@Z
_TEXT	SEGMENT
_pMover$GSCopy$1$ = -40968				; size = 4
_szQuery$ = -40964					; size = 40960
__$ArrayPad$ = -4					; size = 4
_pMover$ = 8						; size = 4
_qry$ = 12						; size = 4
_lpDbOverlappedPlus$ = 16				; size = 4
?GetSkill@CDbManager@@QAEHPAVCMover@@PAVCQuery@@PAUtagDB_OVERLAPPED_PLUS@@@Z PROC ; CDbManager::GetSkill, COMDAT
; _this$ = ecx

; 1212 : {

  00000	55		 push	 ebp
  00001	8b ec		 mov	 ebp, esp
  00003	b8 08 a0 00 00	 mov	 eax, 40968		; 0000a008H
  00008	e8 00 00 00 00	 call	 __chkstk
  0000d	a1 00 00 00 00	 mov	 eax, DWORD PTR ___security_cookie
  00012	33 c5		 xor	 eax, ebp
  00014	89 45 fc	 mov	 DWORD PTR __$ArrayPad$[ebp], eax
  00017	53		 push	 ebx
  00018	8b 5d 0c	 mov	 ebx, DWORD PTR _qry$[ebp]

; 1213 : 	// ł»°ˇ µî·ĎÇŃ ľĆŔĚµđ °ˇÁö°í żŔ±â
; 1214 : 	char szQuery[QUERY_SIZE]	= { 0,};

  0001b	8d 85 fc 5f ff
	ff		 lea	 eax, DWORD PTR _szQuery$[ebp]
  00021	56		 push	 esi
  00022	8b 75 08	 mov	 esi, DWORD PTR _pMover$[ebp]
  00025	68 00 a0 00 00	 push	 40960			; 0000a000H
  0002a	6a 00		 push	 0
  0002c	50		 push	 eax
  0002d	89 b5 f8 5f ff
	ff		 mov	 DWORD PTR _pMover$GSCopy$1$[ebp], esi
  00033	e8 00 00 00 00	 call	 _memset

; 1215 : 	sprintf( szQuery,

  00038	ff b6 90 00 00
	00		 push	 DWORD PTR [esi+144]
  0003e	8d 85 fc 5f ff
	ff		 lea	 eax, DWORD PTR _szQuery$[ebp]
  00044	ff 35 00 00 00
	00		 push	 DWORD PTR ?g_appInfo@@3UAppInfo@@A
  0004a	68 00 00 00 00	 push	 OFFSET ??_C@_0CE@IGLOLMFD@uspLoadCharacterSkill?5?8?$CF02d?8?0?8?$CF@
  0004f	50		 push	 eax
  00050	e8 00 00 00 00	 call	 _sprintf
  00055	83 c4 1c	 add	 esp, 28			; 0000001cH

; 1216 : 		"uspLoadCharacterSkill '%02d','%07d'",
; 1217 : 		g_appInfo.dwSys, pMover->m_idPlayer );
; 1218 : 	if( FALSE == qry->Exec( szQuery ) )

  00058	8d 85 fc 5f ff
	ff		 lea	 eax, DWORD PTR _szQuery$[ebp]
  0005e	8b cb		 mov	 ecx, ebx
  00060	50		 push	 eax
  00061	e8 00 00 00 00	 call	 ?Exec@CQuery@@QAEHPBD@Z	; CQuery::Exec
  00066	85 c0		 test	 eax, eax
  00068	75 32		 jne	 SHORT $LN6@GetSkill

; 1219 : 	{
; 1220 : 		WriteLog( "%s, %d\t%s", __FILE__, __LINE__, szQuery );

  0006a	8d 85 fc 5f ff
	ff		 lea	 eax, DWORD PTR _szQuery$[ebp]
  00070	50		 push	 eax
  00071	68 c4 04 00 00	 push	 1220			; 000004c4H
  00076	68 00 00 00 00	 push	 OFFSET ??_C@_0DN@JBKLBOHO@C?3?2IAGOS?2server?2v18?2Source?2Sour@
  0007b	68 00 00 00 00	 push	 OFFSET ??_C@_09GBAEEKDE@?$CFs?0?5?$CFd?7?$CFs@
  00080	e8 00 00 00 00	 call	 ?WriteLog@@YAXPBDZZ	; WriteLog
  00085	83 c4 10	 add	 esp, 16			; 00000010H

; 1221 : 		return FALSE;

  00088	33 c0		 xor	 eax, eax
  0008a	5e		 pop	 esi

; 1232 : 	}
; 1233 : 	return TRUE;
; 1234 : }

  0008b	5b		 pop	 ebx
  0008c	8b 4d fc	 mov	 ecx, DWORD PTR __$ArrayPad$[ebp]
  0008f	33 cd		 xor	 ecx, ebp
  00091	e8 00 00 00 00	 call	 @__security_check_cookie@4
  00096	8b e5		 mov	 esp, ebp
  00098	5d		 pop	 ebp
  00099	c2 0c 00	 ret	 12			; 0000000cH
$LN6@GetSkill:

; 1222 : 	}
; 1223 : 	
; 1224 : 	while( qry->Fetch() )

  0009c	8b cb		 mov	 ecx, ebx
  0009e	e8 00 00 00 00	 call	 ?Fetch@CQuery@@QAEHXZ	; CQuery::Fetch
  000a3	85 c0		 test	 eax, eax
  000a5	74 51		 je	 SHORT $LN3@GetSkill
  000a7	57		 push	 edi
  000a8	0f 1f 84 00 00
	00 00 00	 npad	 8
$LL2@GetSkill:

; 1225 : 	{
; 1226 : 		SKILL BufSkill;
; 1227 : 		DWORD dwSkillPosition;
; 1228 : 		dwSkillPosition = (DWORD)qry->GetInt( "SkillPosition" );

  000b0	68 00 00 00 00	 push	 OFFSET ??_C@_0O@MDJBOIOM@SkillPosition@
  000b5	8b cb		 mov	 ecx, ebx
  000b7	e8 00 00 00 00	 call	 ?GetInt@CQuery@@QAEHPAD@Z ; CQuery::GetInt

; 1229 : 		BufSkill.dwSkill = (DWORD)qry->GetInt( "SkillID" );

  000bc	68 00 00 00 00	 push	 OFFSET ??_C@_07CBFCHMIH@SkillID@
  000c1	8b cb		 mov	 ecx, ebx
  000c3	8b f8		 mov	 edi, eax
  000c5	e8 00 00 00 00	 call	 ?GetInt@CQuery@@QAEHPAD@Z ; CQuery::GetInt

; 1230 : 		BufSkill.dwLevel = (DWORD)qry->GetInt( "SkillLv" );

  000ca	68 00 00 00 00	 push	 OFFSET ??_C@_07MKOJOKBN@SkillLv@
  000cf	8b cb		 mov	 ecx, ebx
  000d1	8b f0		 mov	 esi, eax
  000d3	e8 00 00 00 00	 call	 ?GetInt@CQuery@@QAEHPAD@Z ; CQuery::GetInt

; 1231 : 		pMover->m_aJobSkill[dwSkillPosition] = BufSkill;

  000d8	8b 8d f8 5f ff
	ff		 mov	 ecx, DWORD PTR _pMover$GSCopy$1$[ebp]
  000de	89 b4 f9 00 01
	00 00		 mov	 DWORD PTR [ecx+edi*8+256], esi
  000e5	89 84 f9 04 01
	00 00		 mov	 DWORD PTR [ecx+edi*8+260], eax
  000ec	8b cb		 mov	 ecx, ebx
  000ee	e8 00 00 00 00	 call	 ?Fetch@CQuery@@QAEHXZ	; CQuery::Fetch
  000f3	85 c0		 test	 eax, eax
  000f5	75 b9		 jne	 SHORT $LL2@GetSkill

; 1222 : 	}
; 1223 : 	
; 1224 : 	while( qry->Fetch() )

  000f7	5f		 pop	 edi
$LN3@GetSkill:

; 1232 : 	}
; 1233 : 	return TRUE;
; 1234 : }

  000f8	8b 4d fc	 mov	 ecx, DWORD PTR __$ArrayPad$[ebp]
  000fb	b8 01 00 00 00	 mov	 eax, 1
  00100	5e		 pop	 esi
  00101	33 cd		 xor	 ecx, ebp
  00103	5b		 pop	 ebx
  00104	e8 00 00 00 00	 call	 @__security_check_cookie@4
  00109	8b e5		 mov	 esp, ebp
  0010b	5d		 pop	 ebp
  0010c	c2 0c 00	 ret	 12			; 0000000cH
?GetSkill@CDbManager@@QAEHPAVCMover@@PAVCQuery@@PAUtagDB_OVERLAPPED_PLUS@@@Z ENDP ; CDbManager::GetSkill
_TEXT	ENDS
; Function compile flags: /Ogtp
; File C:\IAGOS\server\v18\Source\Source\_Database\DbManagerFun.cpp
; File C:\IAGOS\server\v18\Source\Source\_Network\Objects\Obj.h
; File C:\IAGOS\server\v18\Source\Source\_Database\DbManagerFun.cpp
; File C:\IAGOS\server\v18\Source\Source\_Network\Objects\Obj.h
; File C:\IAGOS\server\v18\Source\Source\_Database\DbManagerFun.cpp
; File C:\IAGOS\server\v18\Source\Source\_database\Query.h
; File C:\IAGOS\server\v18\Source\Source\_Database\DbManagerFun.cpp
; File C:\IAGOS\server\v18\Source\Source\_database\Query.h
; File C:\IAGOS\server\v18\Source\Source\_Database\DbManagerFun.cpp
; File C:\IAGOS\server\v18\Source\Source\_database\Query.h
; File C:\IAGOS\server\v18\Source\Source\_Database\DbManagerFun.cpp
; File C:\IAGOS\server\v18\Source\Source\_database\Query.h
; File C:\IAGOS\server\v18\Source\Source\_Database\DbManagerFun.cpp
; File C:\IAGOS\server\v18\Source\Source\_database\Query.h
; File C:\IAGOS\server\v18\Source\Source\_Database\DbManagerFun.cpp
; File C:\IAGOS\server\v18\Source\Source\_database\Query.h
; File C:\IAGOS\server\v18\Source\Source\_Database\DbManagerFun.cpp
;	COMDAT ?GetBaseCharacter@CDbManager@@QAEXPAVCMover@@PAVCQuery@@PAUtagDB_OVERLAPPED_PLUS@@@Z
_TEXT	SEGMENT
_CountStr$ = -60					; size = 4
_ActMover$ = -56					; size = 50
__$ArrayPad$ = -4					; size = 4
_pMover$ = 8						; size = 4
_qry$ = 12						; size = 4
_lpDbOverlappedPlus$ = 16				; size = 4
?GetBaseCharacter@CDbManager@@QAEXPAVCMover@@PAVCQuery@@PAUtagDB_OVERLAPPED_PLUS@@@Z PROC ; CDbManager::GetBaseCharacter, COMDAT
; _this$ = ecx

; 1025 : {

  00000	55		 push	 ebp
  00001	8b ec		 mov	 ebp, esp
  00003	83 ec 3c	 sub	 esp, 60			; 0000003cH
  00006	a1 00 00 00 00	 mov	 eax, DWORD PTR ___security_cookie
  0000b	33 c5		 xor	 eax, ebp
  0000d	89 45 fc	 mov	 DWORD PTR __$ArrayPad$[ebp], eax
  00010	53		 push	 ebx
  00011	8b 5d 08	 mov	 ebx, DWORD PTR _pMover$[ebp]
  00014	56		 push	 esi
  00015	57		 push	 edi
  00016	8b 7d 0c	 mov	 edi, DWORD PTR _qry$[ebp]

; 1026 : 	qry->GetStr( "m_szName", pMover->m_szName );

  00019	8b cf		 mov	 ecx, edi
  0001b	8d 43 6c	 lea	 eax, DWORD PTR [ebx+108]
  0001e	50		 push	 eax
  0001f	68 00 00 00 00	 push	 OFFSET ??_C@_08HDDJDJAG@m_szName@
  00024	e8 00 00 00 00	 call	 ?GetStr@CQuery@@QAEXPAD0@Z ; CQuery::GetStr

; 1027 : 	pMover->m_vScale.x		= qry->GetFloat( "m_vScale_x" );

  00029	68 00 00 00 00	 push	 OFFSET ??_C@_0L@LGPNILBK@m_vScale_x@
  0002e	8b cf		 mov	 ecx, edi
  00030	e8 00 00 00 00	 call	 ?GetFloat@CQuery@@QAEMPAD@Z ; CQuery::GetFloat

; 1028 : 	pMover->m_dwMotion		= (DWORD)qry->GetInt( "m_dwMotion" );

  00035	68 00 00 00 00	 push	 OFFSET ??_C@_0L@MOMKJNEM@m_dwMotion@
  0003a	8b cf		 mov	 ecx, edi
  0003c	d9 5b 0c	 fstp	 DWORD PTR [ebx+12]
  0003f	e8 00 00 00 00	 call	 ?GetInt@CQuery@@QAEHPAD@Z ; CQuery::GetInt

; 1029 : 	pMover->m_dwWorldID		= qry->GetInt( "dwWorldID");

  00044	68 00 00 00 00	 push	 OFFSET ??_C@_09DHJEDBNA@dwWorldID@
  00049	8b cf		 mov	 ecx, edi
  0004b	89 43 18	 mov	 DWORD PTR [ebx+24], eax
  0004e	e8 00 00 00 00	 call	 ?GetInt@CQuery@@QAEHPAD@Z ; CQuery::GetInt

; 1030 : 	pMover->m_vPos.x		= qry->GetFloat( "m_vPos_x" );

  00053	68 00 00 00 00	 push	 OFFSET ??_C@_08FJAEPELD@m_vPos_x@
  00058	8b cf		 mov	 ecx, edi
  0005a	89 83 44 3c 00
	00		 mov	 DWORD PTR [ebx+15428], eax
  00060	e8 00 00 00 00	 call	 ?GetFloat@CQuery@@QAEMPAD@Z ; CQuery::GetFloat
  00065	d9 5b 1c	 fstp	 DWORD PTR [ebx+28]

; 1031 : 	pMover->m_vPos.y		= qry->GetFloat( "m_vPos_y" );

  00068	68 00 00 00 00	 push	 OFFSET ??_C@_08EABPMFPC@m_vPos_y@
  0006d	8b cf		 mov	 ecx, edi
  0006f	e8 00 00 00 00	 call	 ?GetFloat@CQuery@@QAEMPAD@Z ; CQuery::GetFloat
  00074	d9 5b 20	 fstp	 DWORD PTR [ebx+32]

; 1032 : 	pMover->m_vPos.z		= qry->GetFloat( "m_vPos_z" );

  00077	68 00 00 00 00	 push	 OFFSET ??_C@_08GLDCJGDB@m_vPos_z@
  0007c	8b cf		 mov	 ecx, edi
  0007e	e8 00 00 00 00	 call	 ?GetFloat@CQuery@@QAEMPAD@Z ; CQuery::GetFloat
  00083	d9 5b 24	 fstp	 DWORD PTR [ebx+36]

; 1033 : 	pMover->m_fAngle		= qry->GetFloat( "m_fAngle" );

  00086	68 00 00 00 00	 push	 OFFSET ??_C@_08MNAKGHOO@m_fAngle@
  0008b	8b cf		 mov	 ecx, edi
  0008d	e8 00 00 00 00	 call	 ?GetFloat@CQuery@@QAEMPAD@Z ; CQuery::GetFloat

; 1034 : 	qry->GetStr( "m_szCharacterKey", pMover->m_szCharacterKey );

  00092	8d 43 38	 lea	 eax, DWORD PTR [ebx+56]
  00095	8b cf		 mov	 ecx, edi
  00097	50		 push	 eax
  00098	68 00 00 00 00	 push	 OFFSET ??_C@_0BB@FJPKIIEM@m_szCharacterKey@
  0009d	d9 5b 28	 fstp	 DWORD PTR [ebx+40]
  000a0	e8 00 00 00 00	 call	 ?GetStr@CQuery@@QAEXPAD0@Z ; CQuery::GetStr

; 1035 : 	pMover->m_nHitPoint		= (LONG)qry->GetInt( "m_nHitPoint" );

  000a5	68 00 00 00 00	 push	 OFFSET ??_C@_0M@PMKOKNNK@m_nHitPoint@
  000aa	8b cf		 mov	 ecx, edi
  000ac	e8 00 00 00 00	 call	 ?GetInt@CQuery@@QAEHPAD@Z ; CQuery::GetInt

; 1036 : 	pMover->m_nManaPoint	= (LONG)qry->GetInt( "m_nManaPoint" );

  000b1	68 00 00 00 00	 push	 OFFSET ??_C@_0N@GFDNJNAL@m_nManaPoint@
  000b6	8b cf		 mov	 ecx, edi
  000b8	89 83 94 00 00
	00		 mov	 DWORD PTR [ebx+148], eax
  000be	e8 00 00 00 00	 call	 ?GetInt@CQuery@@QAEHPAD@Z ; CQuery::GetInt

; 1037 : 	pMover->m_nFatiguePoint		= (LONG)qry->GetInt( "m_nFatiguePoint" );

  000c3	68 00 00 00 00	 push	 OFFSET ??_C@_0BA@COGKPMEJ@m_nFatiguePoint@
  000c8	8b cf		 mov	 ecx, edi
  000ca	89 83 98 00 00
	00		 mov	 DWORD PTR [ebx+152], eax
  000d0	e8 00 00 00 00	 call	 ?GetInt@CQuery@@QAEHPAD@Z ; CQuery::GetInt

; 1038 : 	pMover->m_dwSkinSet		= (DWORD)qry->GetInt( "m_dwSkinSet" );

  000d5	68 00 00 00 00	 push	 OFFSET ??_C@_0M@BCEJBJHD@m_dwSkinSet@
  000da	8b cf		 mov	 ecx, edi
  000dc	89 83 9c 00 00
	00		 mov	 DWORD PTR [ebx+156], eax
  000e2	e8 00 00 00 00	 call	 ?GetInt@CQuery@@QAEHPAD@Z ; CQuery::GetInt

; 1039 : 	pMover->m_dwHairMesh	= (DWORD)qry->GetInt( "m_dwHairMesh" );

  000e7	68 00 00 00 00	 push	 OFFSET ??_C@_0N@HFOELFNC@m_dwHairMesh@
  000ec	8b cf		 mov	 ecx, edi
  000ee	89 83 a0 00 00
	00		 mov	 DWORD PTR [ebx+160], eax
  000f4	e8 00 00 00 00	 call	 ?GetInt@CQuery@@QAEHPAD@Z ; CQuery::GetInt

; 1040 : 	pMover->m_dwHairColor	= (DWORD)qry->GetInt( "m_dwHairColor" );

  000f9	68 00 00 00 00	 push	 OFFSET ??_C@_0O@ICOGEKE@m_dwHairColor@
  000fe	8b cf		 mov	 ecx, edi
  00100	89 83 a4 00 00
	00		 mov	 DWORD PTR [ebx+164], eax
  00106	e8 00 00 00 00	 call	 ?GetInt@CQuery@@QAEHPAD@Z ; CQuery::GetInt

; 1041 : 	pMover->m_dwHeadMesh	= (DWORD)qry->GetInt( "m_dwHeadMesh" );

  0010b	68 00 00 00 00	 push	 OFFSET ??_C@_0N@BHMOBEMJ@m_dwHeadMesh@
  00110	8b cf		 mov	 ecx, edi
  00112	89 83 a8 00 00
	00		 mov	 DWORD PTR [ebx+168], eax
  00118	e8 00 00 00 00	 call	 ?GetInt@CQuery@@QAEHPAD@Z ; CQuery::GetInt

; 1042 : 	pMover->SetSex( (BYTE)qry->GetInt( "m_dwSex" ) );

  0011d	68 00 00 00 00	 push	 OFFSET ??_C@_07KMHLCHEI@m_dwSex@
  00122	8b cf		 mov	 ecx, edi
  00124	89 83 ac 00 00
	00		 mov	 DWORD PTR [ebx+172], eax
  0012a	e8 00 00 00 00	 call	 ?GetInt@CQuery@@QAEHPAD@Z ; CQuery::GetInt

; 1043 : 	pMover->m_dwRideItemIdx		= (DWORD)qry->GetInt( "m_dwRideItemIdx" );

  0012f	68 00 00 00 00	 push	 OFFSET ??_C@_0BA@MHMDKNKE@m_dwRideItemIdx@
  00134	8b cf		 mov	 ecx, edi
; File C:\IAGOS\server\v18\Source\Source\_Network\Objects\Obj.h

; 1194 : 	void	SetSex( BYTE bySex ) { m_bySex = bySex; }

  00136	88 83 b8 00 00
	00		 mov	 BYTE PTR [ebx+184], al
; File C:\IAGOS\server\v18\Source\Source\_Database\DbManagerFun.cpp

; 1043 : 	pMover->m_dwRideItemIdx		= (DWORD)qry->GetInt( "m_dwRideItemIdx" );

  0013c	e8 00 00 00 00	 call	 ?GetInt@CQuery@@QAEHPAD@Z ; CQuery::GetInt
  00141	89 83 bc 00 00
	00		 mov	 DWORD PTR [ebx+188], eax

; 1044 : 	pMover->SetGold( qry->GetInt("m_dwGold") );

  00147	8b cf		 mov	 ecx, edi
  00149	68 00 00 00 00	 push	 OFFSET ??_C@_08JIMIMGKM@m_dwGold@
  0014e	e8 00 00 00 00	 call	 ?GetInt@CQuery@@QAEHPAD@Z ; CQuery::GetInt

; 1045 : 	pMover->m_nJob			= (LONG)qry->GetInt( "m_nJob" );

  00153	68 00 00 00 00	 push	 OFFSET ??_C@_06LDMBEDML@m_nJob@
  00158	8b cf		 mov	 ecx, edi
; File C:\IAGOS\server\v18\Source\Source\_Network\Objects\Obj.h

; 1233 : 	m_dwGold = (DWORD)nGold;

  0015a	89 43 34	 mov	 DWORD PTR [ebx+52], eax
; File C:\IAGOS\server\v18\Source\Source\_Database\DbManagerFun.cpp

; 1045 : 	pMover->m_nJob			= (LONG)qry->GetInt( "m_nJob" );

  0015d	e8 00 00 00 00	 call	 ?GetInt@CQuery@@QAEHPAD@Z ; CQuery::GetInt

; 1046 : 	pMover->m_idparty		= (u_long)qry->GetInt( "m_idparty" );

  00162	68 00 00 00 00	 push	 OFFSET ??_C@_09OGJJHMJA@m_idparty@
  00167	8b cf		 mov	 ecx, edi
  00169	89 83 c4 00 00
	00		 mov	 DWORD PTR [ebx+196], eax
  0016f	e8 00 00 00 00	 call	 ?GetInt@CQuery@@QAEHPAD@Z ; CQuery::GetInt

; 1047 : #if __VER >= 8 // __S8_PK
; 1048 : 	pMover->m_nPKValue			= qry->GetInt( "m_nPKValue" );

  00174	68 00 00 00 00	 push	 OFFSET ??_C@_0L@IFGJAIGP@m_nPKValue@
  00179	8b cf		 mov	 ecx, edi
  0017b	89 83 6c 3b 00
	00		 mov	 DWORD PTR [ebx+15212], eax
  00181	e8 00 00 00 00	 call	 ?GetInt@CQuery@@QAEHPAD@Z ; CQuery::GetInt

; 1049 : 	pMover->m_dwPKPropensity	= qry->GetInt( "m_dwPKPropensity" );

  00186	68 00 00 00 00	 push	 OFFSET ??_C@_0BB@FMCDCCD@m_dwPKPropensity@
  0018b	8b cf		 mov	 ecx, edi
  0018d	89 83 7c 3b 00
	00		 mov	 DWORD PTR [ebx+15228], eax
  00193	e8 00 00 00 00	 call	 ?GetInt@CQuery@@QAEHPAD@Z ; CQuery::GetInt

; 1050 : 	pMover->m_dwPKExp			= qry->GetInt( "m_dwPKExp" );

  00198	68 00 00 00 00	 push	 OFFSET ??_C@_09BCFDFPLE@m_dwPKExp@
  0019d	8b cf		 mov	 ecx, edi
  0019f	89 83 80 3b 00
	00		 mov	 DWORD PTR [ebx+15232], eax
  001a5	e8 00 00 00 00	 call	 ?GetInt@CQuery@@QAEHPAD@Z ; CQuery::GetInt
; File C:\IAGOS\server\v18\Source\Source\_database\Query.h

; 62   : 	EXPINTEGER	GetExpInteger(	char* sCol ) { return GetInt64( sCol ); 	}

  001aa	68 00 00 00 00	 push	 OFFSET ??_C@_0M@IJMKHCEF@m_nAngelExp@
  001af	8b cf		 mov	 ecx, edi
; File C:\IAGOS\server\v18\Source\Source\_Database\DbManagerFun.cpp

; 1050 : 	pMover->m_dwPKExp			= qry->GetInt( "m_dwPKExp" );

  001b1	89 83 84 3b 00
	00		 mov	 DWORD PTR [ebx+15236], eax
; File C:\IAGOS\server\v18\Source\Source\_database\Query.h

; 62   : 	EXPINTEGER	GetExpInteger(	char* sCol ) { return GetInt64( sCol ); 	}

  001b7	e8 00 00 00 00	 call	 ?GetInt64@CQuery@@QAE_JPAD@Z ; CQuery::GetInt64
; File C:\IAGOS\server\v18\Source\Source\_Database\DbManagerFun.cpp

; 1057 : 	pMover->m_nAngelLevel	= qry->GetInt( "m_nAngelLevel" );

  001bc	68 00 00 00 00	 push	 OFFSET ??_C@_0O@COEFFCNN@m_nAngelLevel@
  001c1	8b cf		 mov	 ecx, edi
  001c3	89 83 88 3b 00
	00		 mov	 DWORD PTR [ebx+15240], eax
  001c9	89 93 8c 3b 00
	00		 mov	 DWORD PTR [ebx+15244], edx
  001cf	e8 00 00 00 00	 call	 ?GetInt@CQuery@@QAEHPAD@Z ; CQuery::GetInt

; 1058 : #endif // __CSC_VER8_5
; 1059 : 	
; 1060 : 	pMover->m_idMurderer	= (u_long)qry->GetInt( "m_idMuerderer" );

  001d4	68 00 00 00 00	 push	 OFFSET ??_C@_0O@MHHICKD@m_idMuerderer@
  001d9	8b cf		 mov	 ecx, edi
  001db	89 83 90 3b 00
	00		 mov	 DWORD PTR [ebx+15248], eax
  001e1	e8 00 00 00 00	 call	 ?GetInt@CQuery@@QAEHPAD@Z ; CQuery::GetInt

; 1061 : 	pMover->m_nFame			= qry->GetInt( "m_nFame" );

  001e6	68 00 00 00 00	 push	 OFFSET ??_C@_07DKPMJIJG@m_nFame@
  001eb	8b cf		 mov	 ecx, edi
  001ed	89 83 98 3b 00
	00		 mov	 DWORD PTR [ebx+15256], eax
  001f3	e8 00 00 00 00	 call	 ?GetInt@CQuery@@QAEHPAD@Z ; CQuery::GetInt

; 1062 : 	
; 1063 : 	int CountStr	= 0;
; 1064 : 	char ActMover[50]	= {0,};

  001f8	6a 32		 push	 50			; 00000032H
  001fa	89 83 94 3b 00
	00		 mov	 DWORD PTR [ebx+15252], eax
  00200	8d 45 c8	 lea	 eax, DWORD PTR _ActMover$[ebp]
  00203	6a 00		 push	 0
  00205	50		 push	 eax
  00206	c7 45 c4 00 00
	00 00		 mov	 DWORD PTR _CountStr$[ebp], 0
  0020d	e8 00 00 00 00	 call	 _memset
  00212	83 c4 0c	 add	 esp, 12			; 0000000cH

; 1065 : 	qry->GetStr( "m_pActMover", ActMover );

  00215	8d 45 c8	 lea	 eax, DWORD PTR _ActMover$[ebp]
  00218	8b cf		 mov	 ecx, edi
  0021a	50		 push	 eax
  0021b	68 00 00 00 00	 push	 OFFSET ??_C@_0M@BFJHKIPJ@m_pActMover@
  00220	e8 00 00 00 00	 call	 ?GetStr@CQuery@@QAEXPAD0@Z ; CQuery::GetStr

; 1066 : 	pMover->m_pActMover->m_dwState	= (DWORD)GetIntFromStr( ActMover, &CountStr );

  00225	8b b3 b0 3b 00
	00		 mov	 esi, DWORD PTR [ebx+15280]
  0022b	8d 45 c4	 lea	 eax, DWORD PTR _CountStr$[ebp]
  0022e	50		 push	 eax
  0022f	8d 45 c8	 lea	 eax, DWORD PTR _ActMover$[ebp]
  00232	50		 push	 eax
  00233	e8 00 00 00 00	 call	 ?GetIntFromStr@@YAHPADPAH@Z ; GetIntFromStr
  00238	89 46 04	 mov	 DWORD PTR [esi+4], eax

; 1067 : 	pMover->m_pActMover->m_dwStateFlag	= (DWORD)GetIntFromStr( ActMover, &CountStr );

  0023b	8d 45 c4	 lea	 eax, DWORD PTR _CountStr$[ebp]
  0023e	8b b3 b0 3b 00
	00		 mov	 esi, DWORD PTR [ebx+15280]
  00244	50		 push	 eax
  00245	8d 45 c8	 lea	 eax, DWORD PTR _ActMover$[ebp]
  00248	50		 push	 eax
  00249	e8 00 00 00 00	 call	 ?GetIntFromStr@@YAHPADPAH@Z ; GetIntFromStr
  0024e	83 c4 10	 add	 esp, 16			; 00000010H
  00251	89 46 08	 mov	 DWORD PTR [esi+8], eax

; 1068 : 	
; 1069 : 	CountStr	= 0;
; 1070 : 	pMover->m_nStr	= (LONG)qry->GetInt( "m_nStr" );

  00254	8b cf		 mov	 ecx, edi
  00256	68 00 00 00 00	 push	 OFFSET ??_C@_06MEGBAFBO@m_nStr@
  0025b	e8 00 00 00 00	 call	 ?GetInt@CQuery@@QAEHPAD@Z ; CQuery::GetInt

; 1071 : 	pMover->m_nSta	= (LONG)qry->GetInt( "m_nSta" );

  00260	68 00 00 00 00	 push	 OFFSET ??_C@_06KFIOEEIM@m_nSta@
  00265	8b cf		 mov	 ecx, edi
  00267	89 83 d4 00 00
	00		 mov	 DWORD PTR [ebx+212], eax
  0026d	e8 00 00 00 00	 call	 ?GetInt@CQuery@@QAEHPAD@Z ; CQuery::GetInt

; 1072 : 	pMover->m_nDex	= (LONG)qry->GetInt( "m_nDex" );

  00272	68 00 00 00 00	 push	 OFFSET ??_C@_06OOKEELPF@m_nDex@
  00277	8b cf		 mov	 ecx, edi
  00279	89 83 d8 00 00
	00		 mov	 DWORD PTR [ebx+216], eax
  0027f	e8 00 00 00 00	 call	 ?GetInt@CQuery@@QAEHPAD@Z ; CQuery::GetInt

; 1073 : 	pMover->m_nInt	= (LONG)qry->GetInt( "m_nInt" );

  00284	68 00 00 00 00	 push	 OFFSET ??_C@_06LMCODDMF@m_nInt@
  00289	8b cf		 mov	 ecx, edi
  0028b	89 83 dc 00 00
	00		 mov	 DWORD PTR [ebx+220], eax
  00291	e8 00 00 00 00	 call	 ?GetInt@CQuery@@QAEHPAD@Z ; CQuery::GetInt

; 1074 : 	pMover->m_nLevel	= (LONG)qry->GetInt( "m_nLevel" );

  00296	68 00 00 00 00	 push	 OFFSET ??_C@_08DBNLLHK@m_nLevel@
  0029b	8b cf		 mov	 ecx, edi
  0029d	89 83 e0 00 00
	00		 mov	 DWORD PTR [ebx+224], eax
  002a3	e8 00 00 00 00	 call	 ?GetInt@CQuery@@QAEHPAD@Z ; CQuery::GetInt
; File C:\IAGOS\server\v18\Source\Source\_database\Query.h

; 62   : 	EXPINTEGER	GetExpInteger(	char* sCol ) { return GetInt64( sCol ); 	}

  002a8	68 00 00 00 00	 push	 OFFSET ??_C@_07JKGEFCCA@m_nExp1@
  002ad	8b cf		 mov	 ecx, edi
; File C:\IAGOS\server\v18\Source\Source\_Database\DbManagerFun.cpp

; 1074 : 	pMover->m_nLevel	= (LONG)qry->GetInt( "m_nLevel" );

  002af	89 83 e4 00 00
	00		 mov	 DWORD PTR [ebx+228], eax
; File C:\IAGOS\server\v18\Source\Source\_database\Query.h

; 62   : 	EXPINTEGER	GetExpInteger(	char* sCol ) { return GetInt64( sCol ); 	}

  002b5	e8 00 00 00 00	 call	 ?GetInt64@CQuery@@QAE_JPAD@Z ; CQuery::GetInt64
; File C:\IAGOS\server\v18\Source\Source\_Database\DbManagerFun.cpp

; 1076 : 	pMover->m_nFuel		= qry->GetInt( "m_nFuel" );

  002ba	68 00 00 00 00	 push	 OFFSET ??_C@_07DKFGLCKP@m_nFuel@
  002bf	8b cf		 mov	 ecx, edi
  002c1	89 83 f0 00 00
	00		 mov	 DWORD PTR [ebx+240], eax
  002c7	89 93 f4 00 00
	00		 mov	 DWORD PTR [ebx+244], edx
  002cd	e8 00 00 00 00	 call	 ?GetInt@CQuery@@QAEHPAD@Z ; CQuery::GetInt

; 1077 : 	pMover->m_tmAccFuel	= qry->GetInt( "m_tmAccFuel" );

  002d2	68 00 00 00 00	 push	 OFFSET ??_C@_0M@FGBAAHFN@m_tmAccFuel@
  002d7	8b cf		 mov	 ecx, edi
  002d9	89 83 c0 00 00
	00		 mov	 DWORD PTR [ebx+192], eax
  002df	e8 00 00 00 00	 call	 ?GetInt@CQuery@@QAEHPAD@Z ; CQuery::GetInt

; 1078 : 	
; 1079 : //	pMover->m_dwExpertLv	= (DWORD)qry->GetInt( "m_dwExpertLv");
; 1080 : 	pMover->m_idMarkingWorld	= (DWORD)qry->GetInt( "m_idMarkingWorld");

  002e4	68 00 00 00 00	 push	 OFFSET ??_C@_0BB@IGOJBJIH@m_idMarkingWorld@
  002e9	8b cf		 mov	 ecx, edi
  002eb	89 83 3c 3c 00
	00		 mov	 DWORD PTR [ebx+15420], eax
  002f1	e8 00 00 00 00	 call	 ?GetInt@CQuery@@QAEHPAD@Z ; CQuery::GetInt

; 1081 : 	pMover->m_vMarkingPos.x		= qry->GetFloat( "m_vMarkingPos_x" );

  002f6	68 00 00 00 00	 push	 OFFSET ??_C@_0BA@LIDMOLFI@m_vMarkingPos_x@
  002fb	8b cf		 mov	 ecx, edi
  002fd	89 83 cc 02 00
	00		 mov	 DWORD PTR [ebx+716], eax
  00303	e8 00 00 00 00	 call	 ?GetFloat@CQuery@@QAEMPAD@Z ; CQuery::GetFloat
  00308	d9 9b d0 02 00
	00		 fstp	 DWORD PTR [ebx+720]

; 1082 : 	pMover->m_vMarkingPos.y		= qry->GetFloat( "m_vMarkingPos_y" );

  0030e	68 00 00 00 00	 push	 OFFSET ??_C@_0BA@KBCHNKBJ@m_vMarkingPos_y@
  00313	8b cf		 mov	 ecx, edi
  00315	e8 00 00 00 00	 call	 ?GetFloat@CQuery@@QAEMPAD@Z ; CQuery::GetFloat
  0031a	d9 9b d4 02 00
	00		 fstp	 DWORD PTR [ebx+724]

; 1083 : 	pMover->m_vMarkingPos.z		= qry->GetFloat( "m_vMarkingPos_z" );

  00320	68 00 00 00 00	 push	 OFFSET ??_C@_0BA@IKAKIJNK@m_vMarkingPos_z@
  00325	8b cf		 mov	 ecx, edi
  00327	e8 00 00 00 00	 call	 ?GetFloat@CQuery@@QAEMPAD@Z ; CQuery::GetFloat

; 1084 : 	pMover->m_nRemainGP = (long)qry->GetInt( "m_nRemainGP" );

  0032c	68 00 00 00 00	 push	 OFFSET ??_C@_0M@HLGMCMLP@m_nRemainGP@
  00331	8b cf		 mov	 ecx, edi
  00333	d9 9b d8 02 00
	00		 fstp	 DWORD PTR [ebx+728]
  00339	e8 00 00 00 00	 call	 ?GetInt@CQuery@@QAEHPAD@Z ; CQuery::GetInt

; 1085 : //	pMover->m_nRemainLP = (long)qry->GetInt( "m_nRemainLP" );
; 1086 : #if __VER >= 12 // __MOD_TUTORIAL
; 1087 : 	int nTutorialState	= qry->GetInt( "m_nFlightLv" );

  0033e	68 00 00 00 00	 push	 OFFSET ??_C@_0M@HKFGBBGJ@m_nFlightLv@
  00343	8b cf		 mov	 ecx, edi
  00345	89 83 dc 02 00
	00		 mov	 DWORD PTR [ebx+732], eax
  0034b	e8 00 00 00 00	 call	 ?GetInt@CQuery@@QAEHPAD@Z ; CQuery::GetInt

; 1088 : 	pMover->SetTutorialState( nTutorialState );
; 1089 : #else	// __MOD_TUTORIAL
; 1090 : 	pMover->m_nFlightLv		= (long)qry->GetInt( "m_nFlightLv" );
; 1091 : #endif	// __MOD_TUTORIAL
; 1092 : 	pMover->m_nFxp	= (long)qry->GetInt( "m_nFxp" );

  00350	68 00 00 00 00	 push	 OFFSET ??_C@_06JIIKDJFF@m_nFxp@
  00355	8b cf		 mov	 ecx, edi
  00357	89 83 b0 00 00
	00		 mov	 DWORD PTR [ebx+176], eax
  0035d	e8 00 00 00 00	 call	 ?GetInt@CQuery@@QAEHPAD@Z ; CQuery::GetInt

; 1094 : 	pMover->m_dwMode	= (DWORD)qry->GetInt( "m_dwMode" );

  00362	68 00 00 00 00	 push	 OFFSET ??_C@_08MFHALOPE@m_dwMode@
  00367	8b cf		 mov	 ecx, edi
  00369	89 83 b4 00 00
	00		 mov	 DWORD PTR [ebx+180], eax
  0036f	e8 00 00 00 00	 call	 ?GetInt@CQuery@@QAEHPAD@Z ; CQuery::GetInt
; File C:\IAGOS\server\v18\Source\Source\_database\Query.h

; 62   : 	EXPINTEGER	GetExpInteger(	char* sCol ) { return GetInt64( sCol ); 	}

  00374	68 00 00 00 00	 push	 OFFSET ??_C@_0M@MAONGJJI@m_nDeathExp@
  00379	8b cf		 mov	 ecx, edi
; File C:\IAGOS\server\v18\Source\Source\_Database\DbManagerFun.cpp

; 1094 : 	pMover->m_dwMode	= (DWORD)qry->GetInt( "m_dwMode" );

  0037b	89 83 e4 02 00
	00		 mov	 DWORD PTR [ebx+740], eax

; 1095 : 	pMover->m_bPlayer	= 1;

  00381	c7 83 8c 00 00
	00 01 00 00 00	 mov	 DWORD PTR [ebx+140], 1
; File C:\IAGOS\server\v18\Source\Source\_database\Query.h

; 62   : 	EXPINTEGER	GetExpInteger(	char* sCol ) { return GetInt64( sCol ); 	}

  0038b	e8 00 00 00 00	 call	 ?GetInt64@CQuery@@QAE_JPAD@Z ; CQuery::GetInt64
; File C:\IAGOS\server\v18\Source\Source\_Database\DbManagerFun.cpp

; 1097 : 	pMover->m_nDeathLevel = qry->GetInt( "m_nDeathLevel" );

  00390	68 00 00 00 00	 push	 OFFSET ??_C@_0O@JALGGJEE@m_nDeathLevel@
  00395	8b cf		 mov	 ecx, edi
  00397	89 83 f8 00 00
	00		 mov	 DWORD PTR [ebx+248], eax
  0039d	89 93 fc 00 00
	00		 mov	 DWORD PTR [ebx+252], edx
  003a3	e8 00 00 00 00	 call	 ?GetInt@CQuery@@QAEHPAD@Z ; CQuery::GetInt

; 1098 : 	pMover->m_nSkillLevel	= qry->GetInt( "m_SkillLv" );

  003a8	68 00 00 00 00	 push	 OFFSET ??_C@_09MFLDFMGF@m_SkillLv@
  003ad	8b cf		 mov	 ecx, edi
  003af	89 83 e8 00 00
	00		 mov	 DWORD PTR [ebx+232], eax
  003b5	e8 00 00 00 00	 call	 ?GetInt@CQuery@@QAEHPAD@Z ; CQuery::GetInt

; 1099 : 	pMover->m_nSkillPoint	= qry->GetInt( "m_SkillPoint" );

  003ba	68 00 00 00 00	 push	 OFFSET ??_C@_0N@FMKKCMCC@m_SkillPoint@
  003bf	8b cf		 mov	 ecx, edi
  003c1	89 83 a8 3b 00
	00		 mov	 DWORD PTR [ebx+15272], eax
  003c7	e8 00 00 00 00	 call	 ?GetInt@CQuery@@QAEHPAD@Z ; CQuery::GetInt

; 1100 : #if __VER >= 13 // __HONORABLE_TITLE			// ´ŢŔÎ
; 1101 : 	pMover->m_nHonor	= qry->GetInt( "m_nHonor" );

  003cc	68 00 00 00 00	 push	 OFFSET ??_C@_08JOEHCELE@m_nHonor@
  003d1	8b cf		 mov	 ecx, edi
  003d3	89 83 ac 3b 00
	00		 mov	 DWORD PTR [ebx+15276], eax
  003d9	e8 00 00 00 00	 call	 ?GetInt@CQuery@@QAEHPAD@Z ; CQuery::GetInt

; 1102 : #endif	// __HONORABLE_TITLE			// ´ŢŔÎ
; 1103 : 
; 1104 : }

  003de	8b 4d fc	 mov	 ecx, DWORD PTR __$ArrayPad$[ebp]
  003e1	5f		 pop	 edi
  003e2	5e		 pop	 esi
  003e3	89 83 94 3c 00
	00		 mov	 DWORD PTR [ebx+15508], eax
  003e9	33 cd		 xor	 ecx, ebp
  003eb	5b		 pop	 ebx
  003ec	e8 00 00 00 00	 call	 @__security_check_cookie@4
  003f1	8b e5		 mov	 esp, ebp
  003f3	5d		 pop	 ebp
  003f4	c2 0c 00	 ret	 12			; 0000000cH
?GetBaseCharacter@CDbManager@@QAEXPAVCMover@@PAVCQuery@@PAUtagDB_OVERLAPPED_PLUS@@@Z ENDP ; CDbManager::GetBaseCharacter
_TEXT	ENDS
; Function compile flags: /Ogtp
; File C:\IAGOS\server\v18\Source\Source\_Database\DbManagerFun.cpp
;	COMDAT ?GetCardCube@CDbManager@@QAEXPAVCMover@@PAVCQuery@@PAUtagDB_OVERLAPPED_PLUS@@@Z
_TEXT	SEGMENT
_pMover$ = 8						; size = 4
_qry$ = 12						; size = 4
_lpDbOverlappedPlus$ = 16				; size = 4
?GetCardCube@CDbManager@@QAEXPAVCMover@@PAVCQuery@@PAUtagDB_OVERLAPPED_PLUS@@@Z PROC ; CDbManager::GetCardCube, COMDAT
; _this$ = ecx

; 1021 : }

  00000	c2 0c 00	 ret	 12			; 0000000cH
?GetCardCube@CDbManager@@QAEXPAVCMover@@PAVCQuery@@PAUtagDB_OVERLAPPED_PLUS@@@Z ENDP ; CDbManager::GetCardCube
_TEXT	ENDS
; Function compile flags: /Ogtp
; File C:\IAGOS\server\v18\Source\Source\_Database\DbManagerFun.cpp
; File C:\IAGOS\server\v18\Source\Source\_database\DbManager.h
; File C:\IAGOS\server\v18\Source\Source\_Database\DbManagerFun.cpp
; File C:\IAGOS\server\v18\Source\Source\_database\DbManager.h
; File C:\IAGOS\server\v18\Source\Source\_Database\DbManagerFun.cpp
; File C:\IAGOS\server\v18\Source\Source\_network\CmnHdr.h
; File C:\IAGOS\server\v18\Source\Source\_Database\DbManagerFun.cpp
; File C:\IAGOS\server\v18\Source\Source\_network\CmnHdr.h
; File C:\IAGOS\server\v18\Source\Source\_Database\DbManagerFun.cpp
; File C:\IAGOS\server\v18\Source\Source\_network\CmnHdr.h
; File C:\IAGOS\server\v18\Source\Source\_Database\DbManagerFun.cpp
; File C:\IAGOS\server\v18\Source\Source\_network\CmnHdr.h
; File C:\IAGOS\server\v18\Source\Source\_Database\DbManagerFun.cpp
; File C:\IAGOS\server\v18\Source\Source\_network\CmnHdr.h
; File C:\IAGOS\server\v18\Source\Source\_Database\DbManagerFun.cpp
; File C:\IAGOS\server\v18\Source\Source\_network\CmnHdr.h
; File C:\IAGOS\server\v18\Source\Source\_Database\DbManagerFun.cpp
; File C:\IAGOS\server\v18\Source\Source\_network\CmnHdr.h
; File C:\IAGOS\server\v18\Source\Source\_Database\DbManagerFun.cpp
; File C:\IAGOS\server\v18\Source\Source\_network\CmnHdr.h
; File C:\IAGOS\server\v18\Source\Source\_Database\DbManagerFun.cpp
; File C:\IAGOS\server\v18\Source\Source\_network\CmnHdr.h
; File C:\IAGOS\server\v18\Source\Source\_Database\DbManagerFun.cpp
; File C:\IAGOS\server\v18\Source\Source\_network\CmnHdr.h
; File C:\IAGOS\server\v18\Source\Source\_Database\DbManagerFun.cpp
; File C:\IAGOS\server\v18\Source\Source\_network\CmnHdr.h
; File C:\IAGOS\server\v18\Source\Source\_Database\DbManagerFun.cpp
; File C:\IAGOS\server\v18\Source\Source\_network\CmnHdr.h
; File C:\IAGOS\server\v18\Source\Source\_Database\DbManagerFun.cpp
; File C:\IAGOS\server\v18\Source\Source\_database\DbManager.h
; File C:\IAGOS\server\v18\Source\Source\_Database\DbManagerFun.cpp
; File C:\IAGOS\server\v18\Source\Source\_network\CmnHdr.h
; File C:\IAGOS\server\v18\Source\Source\_Database\DbManagerFun.cpp
; File C:\IAGOS\server\v18\Source\Source\_network\CmnHdr.h
; File C:\IAGOS\server\v18\Source\Source\_Database\DbManagerFun.cpp
; File C:\IAGOS\server\v18\Source\Source\_network\CmnHdr.h
; File C:\IAGOS\server\v18\Source\Source\_Database\DbManagerFun.cpp
; File C:\IAGOS\server\v18\Source\Source\_network\CmnHdr.h
; File C:\IAGOS\server\v18\Source\Source\_Database\DbManagerFun.cpp
; File C:\IAGOS\server\v18\Source\Source\_network\CmnHdr.h
; File C:\IAGOS\server\v18\Source\Source\_Database\DbManagerFun.cpp
; File C:\IAGOS\server\v18\Source\Source\_network\CmnHdr.h
; File C:\IAGOS\server\v18\Source\Source\_Database\DbManagerFun.cpp
; File C:\IAGOS\server\v18\Source\Source\_network\CmnHdr.h
; File C:\IAGOS\server\v18\Source\Source\_Database\DbManagerFun.cpp
; File C:\IAGOS\server\v18\Source\Source\_network\CmnHdr.h
; File C:\IAGOS\server\v18\Source\Source\_Database\DbManagerFun.cpp
; File C:\IAGOS\server\v18\Source\Source\_network\CmnHdr.h
; File C:\IAGOS\server\v18\Source\Source\_Database\DbManagerFun.cpp
; File C:\IAGOS\server\v18\Source\Source\_network\CmnHdr.h
; File C:\IAGOS\server\v18\Source\Source\_Database\DbManagerFun.cpp
; File C:\IAGOS\server\v18\Source\Source\_network\CmnHdr.h
; File C:\IAGOS\server\v18\Source\Source\_Database\DbManagerFun.cpp
; File C:\IAGOS\server\v18\Source\Source\_network\CmnHdr.h
; File C:\IAGOS\server\v18\Source\Source\_Database\DbManagerFun.cpp
; File C:\IAGOS\server\v18\Source\Source\_network\CmnHdr.h
; File C:\IAGOS\server\v18\Source\Source\_Database\DbManagerFun.cpp
; File C:\IAGOS\server\v18\Source\Source\_network\CmnHdr.h
; File C:\IAGOS\server\v18\Source\Source\_Database\DbManagerFun.cpp
; File C:\IAGOS\server\v18\Source\Source\_database\DbManager.h
; File C:\IAGOS\server\v18\Source\Source\_Database\DbManagerFun.cpp
; File C:\IAGOS\server\v18\Source\Source\_network\CmnHdr.h
; File C:\IAGOS\server\v18\Source\Source\_Database\DbManagerFun.cpp
; File C:\IAGOS\server\v18\Source\Source\_network\CmnHdr.h
; File C:\IAGOS\server\v18\Source\Source\_Database\DbManagerFun.cpp
; File C:\IAGOS\server\v18\Source\Source\_network\CmnHdr.h
; File C:\IAGOS\server\v18\Source\Source\_Database\DbManagerFun.cpp
; File C:\IAGOS\server\v18\Source\Source\_network\CmnHdr.h
; File C:\IAGOS\server\v18\Source\Source\_Database\DbManagerFun.cpp
; File C:\IAGOS\server\v18\Source\Source\_network\CmnHdr.h
; File C:\IAGOS\server\v18\Source\Source\_Database\DbManagerFun.cpp
; File C:\IAGOS\server\v18\Source\Source\_network\CmnHdr.h
; File C:\IAGOS\server\v18\Source\Source\_Database\DbManagerFun.cpp
; File C:\IAGOS\server\v18\Source\Source\_network\CmnHdr.h
; File C:\IAGOS\server\v18\Source\Source\_Database\DbManagerFun.cpp
; File C:\IAGOS\server\v18\Source\Source\_network\CmnHdr.h
; File C:\IAGOS\server\v18\Source\Source\_Database\DbManagerFun.cpp
; File C:\IAGOS\server\v18\Source\Source\_network\CmnHdr.h
; File C:\IAGOS\server\v18\Source\Source\_Database\DbManagerFun.cpp
; File C:\IAGOS\server\v18\Source\Source\_network\CmnHdr.h
; File C:\IAGOS\server\v18\Source\Source\_Database\DbManagerFun.cpp
; File C:\IAGOS\server\v18\Source\Source\_network\CmnHdr.h
; File C:\IAGOS\server\v18\Source\Source\_Database\DbManagerFun.cpp
; File C:\IAGOS\server\v18\Source\Source\_network\CmnHdr.h
; File C:\IAGOS\server\v18\Source\Source\_Database\DbManagerFun.cpp
; File C:\IAGOS\server\v18\Source\Source\_database\DbManager.h
; File C:\IAGOS\server\v18\Source\Source\_Database\DbManagerFun.cpp
; File C:\IAGOS\server\v18\Source\Source\_database\DbManager.h
; File C:\IAGOS\server\v18\Source\Source\_Database\DbManagerFun.cpp
;	COMDAT ?GetTaskBar@CDbManager@@QAEHPAVCMover@@PAVCQuery@@PAUtagDB_OVERLAPPED_PLUS@@@Z
_TEXT	SEGMENT
_lpDbOverlappedPlus$GSCopy$1$ = -28108			; size = 4
_qry$GSCopy$1$ = -28104					; size = 4
$T1 = -28100						; size = 4
_pMover$GSCopy$1$ = -28096				; size = 4
tv2747 = -28092						; size = 4
_this$GSCopy$1$ = -28092				; size = 4
_nSlotIndex$1$ = -28088					; size = 4
_CountStr$ = -28088					; size = 4
_nIndex$1$ = -28088					; size = 4
tv2759 = -28088						; size = 4
_nIndex$2$ = -28084					; size = 4
_nIndex$3$ = -28084					; size = 4
tv2906 = -28084						; size = 4
tv2936 = -28084						; size = 4
_ItemTaskBar$ = -28080					; size = 21600
_AppletTaskBar$ = -6480					; size = 5400
_SkillTaskBar$ = -1080					; size = 1024
_strTemp$2 = -56					; size = 50
_strTemp$3 = -56					; size = 50
_strTemp$4 = -56					; size = 50
_strTemp$5 = -56					; size = 50
_strTemp$6 = -56					; size = 50
_strTemp$7 = -56					; size = 50
_strTemp$8 = -56					; size = 50
_strTemp$9 = -56					; size = 50
_strTemp$10 = -56					; size = 50
_strTemp$11 = -56					; size = 50
_strTemp$12 = -56					; size = 50
_strTemp$13 = -56					; size = 50
_strTemp$14 = -56					; size = 50
_strTemp$15 = -56					; size = 50
_strTemp$16 = -56					; size = 50
_strTemp$17 = -56					; size = 50
_strTemp$18 = -56					; size = 50
_strTemp$19 = -56					; size = 50
_strTemp$20 = -56					; size = 50
_strTemp$21 = -56					; size = 50
_strTemp$22 = -56					; size = 50
_strTemp$23 = -56					; size = 50
__$ArrayPad$ = -4					; size = 4
_pMover$ = 8						; size = 4
_qry$ = 12						; size = 4
_lpDbOverlappedPlus$ = 16				; size = 4
?GetTaskBar@CDbManager@@QAEHPAVCMover@@PAVCQuery@@PAUtagDB_OVERLAPPED_PLUS@@@Z PROC ; CDbManager::GetTaskBar, COMDAT
; _this$ = ecx

; 961  : {

  00000	55		 push	 ebp
  00001	8b ec		 mov	 ebp, esp
  00003	b8 cc 6d 00 00	 mov	 eax, 28108		; 00006dccH
  00008	e8 00 00 00 00	 call	 __chkstk
  0000d	a1 00 00 00 00	 mov	 eax, DWORD PTR ___security_cookie
  00012	33 c5		 xor	 eax, ebp
  00014	89 45 fc	 mov	 DWORD PTR __$ArrayPad$[ebp], eax
  00017	8b 45 08	 mov	 eax, DWORD PTR _pMover$[ebp]
  0001a	53		 push	 ebx
  0001b	56		 push	 esi
  0001c	57		 push	 edi
  0001d	8b 7d 10	 mov	 edi, DWORD PTR _lpDbOverlappedPlus$[ebp]

; 962  : 	int CountStr	= 0;

  00020	33 f6		 xor	 esi, esi
  00022	89 85 40 92 ff
	ff		 mov	 DWORD PTR _pMover$GSCopy$1$[ebp], eax
  00028	8b d9		 mov	 ebx, ecx
  0002a	8b 45 0c	 mov	 eax, DWORD PTR _qry$[ebp]

; 963  : 	int nIndex	= 0;
; 964  : 	char AppletTaskBar[MAX_APPLETTASKBAR]	= { 0, };

  0002d	68 18 15 00 00	 push	 5400			; 00001518H
  00032	89 85 38 92 ff
	ff		 mov	 DWORD PTR _qry$GSCopy$1$[ebp], eax
  00038	8d 85 b0 e6 ff
	ff		 lea	 eax, DWORD PTR _AppletTaskBar$[ebp]
  0003e	56		 push	 esi
  0003f	50		 push	 eax
  00040	89 9d 44 92 ff
	ff		 mov	 DWORD PTR _this$GSCopy$1$[ebp], ebx
  00046	89 bd 34 92 ff
	ff		 mov	 DWORD PTR _lpDbOverlappedPlus$GSCopy$1$[ebp], edi
  0004c	e8 00 00 00 00	 call	 _memset

; 965  : 	qry->GetStr( "m_aSlotApplet", AppletTaskBar );

  00051	8b 8d 38 92 ff
	ff		 mov	 ecx, DWORD PTR _qry$GSCopy$1$[ebp]
  00057	8d 85 b0 e6 ff
	ff		 lea	 eax, DWORD PTR _AppletTaskBar$[ebp]
  0005d	83 c4 0c	 add	 esp, 12			; 0000000cH
  00060	50		 push	 eax
  00061	68 00 00 00 00	 push	 OFFSET ??_C@_0O@GNBKFLOM@m_aSlotApplet@
  00066	e8 00 00 00 00	 call	 ?GetStr@CQuery@@QAEXPAD0@Z ; CQuery::GetStr
; File C:\IAGOS\server\v18\Source\Source\_database\DbManager.h

; 1305 : 	int len		= strlen( lpString );

  0006b	8d 8d b0 e6 ff
	ff		 lea	 ecx, DWORD PTR _AppletTaskBar$[ebp]
  00071	8d 51 01	 lea	 edx, DWORD PTR [ecx+1]
$LL285@GetTaskBar:
  00074	8a 01		 mov	 al, BYTE PTR [ecx]
  00076	41		 inc	 ecx
  00077	84 c0		 test	 al, al
  00079	75 f9		 jne	 SHORT $LL285@GetTaskBar
  0007b	2b ca		 sub	 ecx, edx

; 1306 : 	if( len > 0 && lpString[len-1] == '$' )

  0007d	85 c9		 test	 ecx, ecx
  0007f	0f 8e 81 0a 00
	00		 jle	 $LN148@GetTaskBar
  00085	80 bc 0d af e6
	ff ff 24	 cmp	 BYTE PTR _AppletTaskBar$[ebp+ecx-1], 36 ; 00000024H
  0008d	0f 85 73 0a 00
	00		 jne	 $LN148@GetTaskBar
; File C:\IAGOS\server\v18\Source\Source\_Database\DbManagerFun.cpp

; 967  : 	while( '$' != AppletTaskBar[CountStr] )

  00093	80 bd b0 e6 ff
	ff 24		 cmp	 BYTE PTR _AppletTaskBar$[ebp], 36 ; 00000024H
; File C:\IAGOS\server\v18\Source\Source\_database\DbManager.h

; 1307 : 		return TRUE;

  0009a	8d 47 74	 lea	 eax, DWORD PTR [edi+116]
  0009d	89 85 3c 92 ff
	ff		 mov	 DWORD PTR $T1[ebp], eax
; File C:\IAGOS\server\v18\Source\Source\_Database\DbManagerFun.cpp

; 967  : 	while( '$' != AppletTaskBar[CountStr] )

  000a3	0f 84 fe 02 00
	00		 je	 $LN282@GetTaskBar
  000a9	89 85 3c 92 ff
	ff		 mov	 DWORD PTR $T1[ebp], eax
  000af	90		 npad	 1
$LL2@GetTaskBar:
; File C:\IAGOS\server\v18\Source\Source\_network\CmnHdr.h

; 95   : 	while(pBuf[*pLocation]!=',' && pBuf[*pLocation]!='/' && pBuf[*pLocation]!=0) {

  000b0	8a 84 35 b0 e6
	ff ff		 mov	 al, BYTE PTR _AppletTaskBar$[ebp+esi]
  000b7	33 c9		 xor	 ecx, ecx
  000b9	3c 2c		 cmp	 al, 44			; 0000002cH
  000bb	74 25		 je	 SHORT $LN280@GetTaskBar
  000bd	0f 1f 00	 npad	 3
$LL15@GetTaskBar:
  000c0	3c 2f		 cmp	 al, 47			; 0000002fH
  000c2	74 15		 je	 SHORT $LN16@GetTaskBar
  000c4	84 c0		 test	 al, al
  000c6	74 11		 je	 SHORT $LN16@GetTaskBar

; 96   : 		strTemp[count]=pBuf[*pLocation];
; 97   : 		count++; (*pLocation)++;

  000c8	46		 inc	 esi
  000c9	88 44 0d c8	 mov	 BYTE PTR _strTemp$15[ebp+ecx], al
  000cd	41		 inc	 ecx
  000ce	8a 84 35 b0 e6
	ff ff		 mov	 al, BYTE PTR _AppletTaskBar$[ebp+esi]
  000d5	3c 2c		 cmp	 al, 44			; 0000002cH
  000d7	75 e7		 jne	 SHORT $LL15@GetTaskBar
$LN16@GetTaskBar:

; 99   : 	strTemp[count]=0;(*pLocation)++;

  000d9	83 f9 32	 cmp	 ecx, 50			; 00000032H
  000dc	0f 83 60 0a 00
	00		 jae	 $LN18@GetTaskBar
$LN280@GetTaskBar:

; 100  : 	return atoi(strTemp);

  000e2	8d 45 c8	 lea	 eax, DWORD PTR _strTemp$15[ebp]
  000e5	c6 44 0d c8 00	 mov	 BYTE PTR _strTemp$15[ebp+ecx], 0
  000ea	50		 push	 eax
  000eb	46		 inc	 esi
  000ec	e8 00 00 00 00	 call	 _atoi

; 95   : 	while(pBuf[*pLocation]!=',' && pBuf[*pLocation]!='/' && pBuf[*pLocation]!=0) {

  000f1	8a 8c 35 b0 e6
	ff ff		 mov	 cl, BYTE PTR _AppletTaskBar$[ebp+esi]

; 100  : 	return atoi(strTemp);

  000f8	83 c4 04	 add	 esp, 4

; 94   : 	int count=0;

  000fb	33 d2		 xor	 edx, edx
; File C:\IAGOS\server\v18\Source\Source\_Database\DbManagerFun.cpp

; 969  : 		nIndex	= GetIntFromStr( AppletTaskBar, &CountStr );

  000fd	89 85 48 92 ff
	ff		 mov	 DWORD PTR _nIndex$1$[ebp], eax
; File C:\IAGOS\server\v18\Source\Source\_network\CmnHdr.h

; 95   : 	while(pBuf[*pLocation]!=',' && pBuf[*pLocation]!='/' && pBuf[*pLocation]!=0) {

  00103	80 f9 2c	 cmp	 cl, 44			; 0000002cH
  00106	74 3e		 je	 SHORT $LN279@GetTaskBar
  00108	8b de		 mov	 ebx, esi
  0010a	8b c6		 mov	 eax, esi
  0010c	8b fe		 mov	 edi, esi
  0010e	66 90		 npad	 2
$LL22@GetTaskBar:
  00110	8b f0		 mov	 esi, eax
  00112	80 f9 2f	 cmp	 cl, 47			; 0000002fH
  00115	74 20		 je	 SHORT $LN23@GetTaskBar
  00117	8b f7		 mov	 esi, edi
  00119	84 c9		 test	 cl, cl
  0011b	74 1a		 je	 SHORT $LN23@GetTaskBar

; 96   : 		strTemp[count]=pBuf[*pLocation];
; 97   : 		count++; (*pLocation)++;

  0011d	8d 73 01	 lea	 esi, DWORD PTR [ebx+1]
  00120	88 4c 15 c8	 mov	 BYTE PTR _strTemp$16[ebp+edx], cl
  00124	8a 8c 35 b0 e6
	ff ff		 mov	 cl, BYTE PTR _AppletTaskBar$[ebp+esi]
  0012b	42		 inc	 edx
  0012c	8b de		 mov	 ebx, esi
  0012e	8b c6		 mov	 eax, esi
  00130	8b fe		 mov	 edi, esi
  00132	80 f9 2c	 cmp	 cl, 44			; 0000002cH
  00135	75 d9		 jne	 SHORT $LL22@GetTaskBar
$LN23@GetTaskBar:

; 99   : 	strTemp[count]=0;(*pLocation)++;

  00137	83 fa 32	 cmp	 edx, 50			; 00000032H
  0013a	0f 83 02 0a 00
	00		 jae	 $LN18@GetTaskBar
  00140	8b 85 48 92 ff
	ff		 mov	 eax, DWORD PTR _nIndex$1$[ebp]
$LN279@GetTaskBar:
; File C:\IAGOS\server\v18\Source\Source\_Database\DbManagerFun.cpp

; 970  : 		pMover->m_UserTaskBar.m_aSlotApplet[nIndex].m_dwShortcut	= (DWORD)GetIntFromStr( AppletTaskBar, &CountStr );

  00146	69 d8 98 00 00
	00		 imul	 ebx, eax, 152
; File C:\IAGOS\server\v18\Source\Source\_network\CmnHdr.h

; 99   : 	strTemp[count]=0;(*pLocation)++;

  0014c	46		 inc	 esi

; 100  : 	return atoi(strTemp);

  0014d	8d 45 c8	 lea	 eax, DWORD PTR _strTemp$16[ebp]
  00150	c6 44 15 c8 00	 mov	 BYTE PTR _strTemp$16[ebp+edx], 0
  00155	50		 push	 eax
; File C:\IAGOS\server\v18\Source\Source\_Database\DbManagerFun.cpp

; 970  : 		pMover->m_UserTaskBar.m_aSlotApplet[nIndex].m_dwShortcut	= (DWORD)GetIntFromStr( AppletTaskBar, &CountStr );

  00156	03 9d 40 92 ff
	ff		 add	 ebx, DWORD PTR _pMover$GSCopy$1$[ebp]
  0015c	89 9d 4c 92 ff
	ff		 mov	 DWORD PTR tv2906[ebp], ebx
; File C:\IAGOS\server\v18\Source\Source\_network\CmnHdr.h

; 100  : 	return atoi(strTemp);

  00162	e8 00 00 00 00	 call	 _atoi
; File C:\IAGOS\server\v18\Source\Source\_Database\DbManagerFun.cpp

; 970  : 		pMover->m_UserTaskBar.m_aSlotApplet[nIndex].m_dwShortcut	= (DWORD)GetIntFromStr( AppletTaskBar, &CountStr );

  00167	89 83 ec 02 00
	00		 mov	 DWORD PTR [ebx+748], eax
; File C:\IAGOS\server\v18\Source\Source\_network\CmnHdr.h

; 100  : 	return atoi(strTemp);

  0016d	83 c4 04	 add	 esp, 4

; 95   : 	while(pBuf[*pLocation]!=',' && pBuf[*pLocation]!='/' && pBuf[*pLocation]!=0) {

  00170	8a 84 35 b0 e6
	ff ff		 mov	 al, BYTE PTR _AppletTaskBar$[ebp+esi]
  00177	33 c9		 xor	 ecx, ecx
  00179	3c 2c		 cmp	 al, 44			; 0000002cH
  0017b	74 3a		 je	 SHORT $LN278@GetTaskBar
  0017d	8b de		 mov	 ebx, esi
  0017f	8b d6		 mov	 edx, esi
  00181	8b fe		 mov	 edi, esi
$LL28@GetTaskBar:
  00183	8b f2		 mov	 esi, edx
  00185	3c 2f		 cmp	 al, 47			; 0000002fH
  00187	74 1f		 je	 SHORT $LN29@GetTaskBar
  00189	8b f7		 mov	 esi, edi
  0018b	84 c0		 test	 al, al
  0018d	74 19		 je	 SHORT $LN29@GetTaskBar

; 96   : 		strTemp[count]=pBuf[*pLocation];
; 97   : 		count++; (*pLocation)++;

  0018f	8d 73 01	 lea	 esi, DWORD PTR [ebx+1]
  00192	88 44 0d c8	 mov	 BYTE PTR _strTemp$6[ebp+ecx], al
  00196	8a 84 35 b0 e6
	ff ff		 mov	 al, BYTE PTR _AppletTaskBar$[ebp+esi]
  0019d	41		 inc	 ecx
  0019e	8b de		 mov	 ebx, esi
  001a0	8b d6		 mov	 edx, esi
  001a2	8b fe		 mov	 edi, esi
  001a4	3c 2c		 cmp	 al, 44			; 0000002cH
  001a6	75 db		 jne	 SHORT $LL28@GetTaskBar
$LN29@GetTaskBar:

; 99   : 	strTemp[count]=0;(*pLocation)++;

  001a8	83 f9 32	 cmp	 ecx, 50			; 00000032H
  001ab	0f 83 91 09 00
	00		 jae	 $LN18@GetTaskBar
  001b1	8b 9d 4c 92 ff
	ff		 mov	 ebx, DWORD PTR tv2906[ebp]
$LN278@GetTaskBar:

; 100  : 	return atoi(strTemp);

  001b7	8d 45 c8	 lea	 eax, DWORD PTR _strTemp$6[ebp]
  001ba	c6 44 0d c8 00	 mov	 BYTE PTR _strTemp$6[ebp+ecx], 0
  001bf	50		 push	 eax
  001c0	46		 inc	 esi
  001c1	e8 00 00 00 00	 call	 _atoi
; File C:\IAGOS\server\v18\Source\Source\_Database\DbManagerFun.cpp

; 971  : 		pMover->m_UserTaskBar.m_aSlotApplet[nIndex].m_dwId	= (DWORD)GetIntFromStr( AppletTaskBar, &CountStr );

  001c6	89 83 f0 02 00
	00		 mov	 DWORD PTR [ebx+752], eax
; File C:\IAGOS\server\v18\Source\Source\_network\CmnHdr.h

; 100  : 	return atoi(strTemp);

  001cc	83 c4 04	 add	 esp, 4

; 95   : 	while(pBuf[*pLocation]!=',' && pBuf[*pLocation]!='/' && pBuf[*pLocation]!=0) {

  001cf	8a 84 35 b0 e6
	ff ff		 mov	 al, BYTE PTR _AppletTaskBar$[ebp+esi]
  001d6	33 c9		 xor	 ecx, ecx
  001d8	3c 2c		 cmp	 al, 44			; 0000002cH
  001da	74 3a		 je	 SHORT $LN277@GetTaskBar
  001dc	8b de		 mov	 ebx, esi
  001de	8b d6		 mov	 edx, esi
  001e0	8b fe		 mov	 edi, esi
$LL34@GetTaskBar:
  001e2	8b f2		 mov	 esi, edx
  001e4	3c 2f		 cmp	 al, 47			; 0000002fH
  001e6	74 1f		 je	 SHORT $LN35@GetTaskBar
  001e8	8b f7		 mov	 esi, edi
  001ea	84 c0		 test	 al, al
  001ec	74 19		 je	 SHORT $LN35@GetTaskBar

; 96   : 		strTemp[count]=pBuf[*pLocation];
; 97   : 		count++; (*pLocation)++;

  001ee	8d 73 01	 lea	 esi, DWORD PTR [ebx+1]
  001f1	88 44 0d c8	 mov	 BYTE PTR _strTemp$17[ebp+ecx], al
  001f5	8a 84 35 b0 e6
	ff ff		 mov	 al, BYTE PTR _AppletTaskBar$[ebp+esi]
  001fc	41		 inc	 ecx
  001fd	8b de		 mov	 ebx, esi
  001ff	8b d6		 mov	 edx, esi
  00201	8b fe		 mov	 edi, esi
  00203	3c 2c		 cmp	 al, 44			; 0000002cH
  00205	75 db		 jne	 SHORT $LL34@GetTaskBar
$LN35@GetTaskBar:

; 99   : 	strTemp[count]=0;(*pLocation)++;

  00207	83 f9 32	 cmp	 ecx, 50			; 00000032H
  0020a	0f 83 32 09 00
	00		 jae	 $LN18@GetTaskBar
  00210	8b 9d 4c 92 ff
	ff		 mov	 ebx, DWORD PTR tv2906[ebp]
$LN277@GetTaskBar:

; 100  : 	return atoi(strTemp);

  00216	8d 45 c8	 lea	 eax, DWORD PTR _strTemp$17[ebp]
  00219	c6 44 0d c8 00	 mov	 BYTE PTR _strTemp$17[ebp+ecx], 0
  0021e	50		 push	 eax
  0021f	46		 inc	 esi
  00220	e8 00 00 00 00	 call	 _atoi
; File C:\IAGOS\server\v18\Source\Source\_Database\DbManagerFun.cpp

; 972  : 		pMover->m_UserTaskBar.m_aSlotApplet[nIndex].m_dwType	= (DWORD)GetIntFromStr( AppletTaskBar, &CountStr );

  00225	89 83 f4 02 00
	00		 mov	 DWORD PTR [ebx+756], eax
; File C:\IAGOS\server\v18\Source\Source\_network\CmnHdr.h

; 100  : 	return atoi(strTemp);

  0022b	83 c4 04	 add	 esp, 4

; 95   : 	while(pBuf[*pLocation]!=',' && pBuf[*pLocation]!='/' && pBuf[*pLocation]!=0) {

  0022e	8a 84 35 b0 e6
	ff ff		 mov	 al, BYTE PTR _AppletTaskBar$[ebp+esi]
  00235	33 c9		 xor	 ecx, ecx
  00237	3c 2c		 cmp	 al, 44			; 0000002cH
  00239	74 34		 je	 SHORT $LN276@GetTaskBar
  0023b	8b de		 mov	 ebx, esi
  0023d	8b d6		 mov	 edx, esi
  0023f	8b fe		 mov	 edi, esi
$LL40@GetTaskBar:
  00241	8b f2		 mov	 esi, edx
  00243	3c 2f		 cmp	 al, 47			; 0000002fH
  00245	74 1f		 je	 SHORT $LN41@GetTaskBar
  00247	8b f7		 mov	 esi, edi
  00249	84 c0		 test	 al, al
  0024b	74 19		 je	 SHORT $LN41@GetTaskBar

; 96   : 		strTemp[count]=pBuf[*pLocation];
; 97   : 		count++; (*pLocation)++;

  0024d	8d 73 01	 lea	 esi, DWORD PTR [ebx+1]
  00250	88 44 0d c8	 mov	 BYTE PTR _strTemp$19[ebp+ecx], al
  00254	8a 84 35 b0 e6
	ff ff		 mov	 al, BYTE PTR _AppletTaskBar$[ebp+esi]
  0025b	41		 inc	 ecx
  0025c	8b de		 mov	 ebx, esi
  0025e	8b d6		 mov	 edx, esi
  00260	8b fe		 mov	 edi, esi
  00262	3c 2c		 cmp	 al, 44			; 0000002cH
  00264	75 db		 jne	 SHORT $LL40@GetTaskBar
$LN41@GetTaskBar:

; 99   : 	strTemp[count]=0;(*pLocation)++;

  00266	83 f9 32	 cmp	 ecx, 50			; 00000032H
  00269	0f 83 d3 08 00
	00		 jae	 $LN18@GetTaskBar
$LN276@GetTaskBar:

; 100  : 	return atoi(strTemp);

  0026f	8d 45 c8	 lea	 eax, DWORD PTR _strTemp$19[ebp]
  00272	c6 44 0d c8 00	 mov	 BYTE PTR _strTemp$19[ebp+ecx], 0
  00277	50		 push	 eax
  00278	46		 inc	 esi
  00279	e8 00 00 00 00	 call	 _atoi
; File C:\IAGOS\server\v18\Source\Source\_Database\DbManagerFun.cpp

; 973  : 		pMover->m_UserTaskBar.m_aSlotApplet[nIndex].m_dwIndex	= (DWORD)GetIntFromStr( AppletTaskBar, &CountStr );

  0027e	8b 8d 48 92 ff
	ff		 mov	 ecx, DWORD PTR _nIndex$1$[ebp]
; File C:\IAGOS\server\v18\Source\Source\_network\CmnHdr.h

; 100  : 	return atoi(strTemp);

  00284	83 c4 04	 add	 esp, 4
; File C:\IAGOS\server\v18\Source\Source\_Database\DbManagerFun.cpp

; 973  : 		pMover->m_UserTaskBar.m_aSlotApplet[nIndex].m_dwIndex	= (DWORD)GetIntFromStr( AppletTaskBar, &CountStr );

  00287	8b 95 40 92 ff
	ff		 mov	 edx, DWORD PTR _pMover$GSCopy$1$[ebp]
  0028d	83 c1 05	 add	 ecx, 5
  00290	69 c9 98 00 00
	00		 imul	 ecx, ecx, 152
  00296	89 04 11	 mov	 DWORD PTR [ecx+edx], eax
; File C:\IAGOS\server\v18\Source\Source\_network\CmnHdr.h

; 94   : 	int count=0;

  00299	33 c9		 xor	 ecx, ecx

; 95   : 	while(pBuf[*pLocation]!=',' && pBuf[*pLocation]!='/' && pBuf[*pLocation]!=0) {

  0029b	8a 84 35 b0 e6
	ff ff		 mov	 al, BYTE PTR _AppletTaskBar$[ebp+esi]
  002a2	3c 2c		 cmp	 al, 44			; 0000002cH
  002a4	74 38		 je	 SHORT $LN275@GetTaskBar
  002a6	8b de		 mov	 ebx, esi
  002a8	8b d6		 mov	 edx, esi
  002aa	8b fe		 mov	 edi, esi
  002ac	0f 1f 40 00	 npad	 4
$LL46@GetTaskBar:
  002b0	8b f2		 mov	 esi, edx
  002b2	3c 2f		 cmp	 al, 47			; 0000002fH
  002b4	74 1f		 je	 SHORT $LN47@GetTaskBar
  002b6	8b f7		 mov	 esi, edi
  002b8	84 c0		 test	 al, al
  002ba	74 19		 je	 SHORT $LN47@GetTaskBar

; 96   : 		strTemp[count]=pBuf[*pLocation];
; 97   : 		count++; (*pLocation)++;

  002bc	8d 73 01	 lea	 esi, DWORD PTR [ebx+1]
  002bf	88 44 0d c8	 mov	 BYTE PTR _strTemp$20[ebp+ecx], al
  002c3	8a 84 35 b0 e6
	ff ff		 mov	 al, BYTE PTR _AppletTaskBar$[ebp+esi]
  002ca	41		 inc	 ecx
  002cb	8b de		 mov	 ebx, esi
  002cd	8b d6		 mov	 edx, esi
  002cf	8b fe		 mov	 edi, esi
  002d1	3c 2c		 cmp	 al, 44			; 0000002cH
  002d3	75 db		 jne	 SHORT $LL46@GetTaskBar
$LN47@GetTaskBar:

; 99   : 	strTemp[count]=0;(*pLocation)++;

  002d5	83 f9 32	 cmp	 ecx, 50			; 00000032H
  002d8	0f 83 64 08 00
	00		 jae	 $LN18@GetTaskBar
$LN275@GetTaskBar:

; 100  : 	return atoi(strTemp);

  002de	8d 45 c8	 lea	 eax, DWORD PTR _strTemp$20[ebp]
  002e1	c6 44 0d c8 00	 mov	 BYTE PTR _strTemp$20[ebp+ecx], 0
  002e6	50		 push	 eax
  002e7	46		 inc	 esi
  002e8	e8 00 00 00 00	 call	 _atoi
; File C:\IAGOS\server\v18\Source\Source\_Database\DbManagerFun.cpp

; 974  : 		pMover->m_UserTaskBar.m_aSlotApplet[nIndex].m_dwUserId	= (DWORD)GetIntFromStr( AppletTaskBar, &CountStr );

  002ed	8b 8d 4c 92 ff
	ff		 mov	 ecx, DWORD PTR tv2906[ebp]
; File C:\IAGOS\server\v18\Source\Source\_network\CmnHdr.h

; 100  : 	return atoi(strTemp);

  002f3	83 c4 04	 add	 esp, 4
; File C:\IAGOS\server\v18\Source\Source\_Database\DbManagerFun.cpp

; 974  : 		pMover->m_UserTaskBar.m_aSlotApplet[nIndex].m_dwUserId	= (DWORD)GetIntFromStr( AppletTaskBar, &CountStr );

  002f6	89 81 fc 02 00
	00		 mov	 DWORD PTR [ecx+764], eax
; File C:\IAGOS\server\v18\Source\Source\_network\CmnHdr.h

; 94   : 	int count=0;

  002fc	33 c9		 xor	 ecx, ecx

; 95   : 	while(pBuf[*pLocation]!=',' && pBuf[*pLocation]!='/' && pBuf[*pLocation]!=0) {

  002fe	8a 84 35 b0 e6
	ff ff		 mov	 al, BYTE PTR _AppletTaskBar$[ebp+esi]
  00305	3c 2c		 cmp	 al, 44			; 0000002cH
  00307	74 35		 je	 SHORT $LN274@GetTaskBar
  00309	8b de		 mov	 ebx, esi
  0030b	8b d6		 mov	 edx, esi
  0030d	8b fe		 mov	 edi, esi
  0030f	90		 npad	 1
$LL52@GetTaskBar:
  00310	8b f2		 mov	 esi, edx
  00312	3c 2f		 cmp	 al, 47			; 0000002fH
  00314	74 1f		 je	 SHORT $LN53@GetTaskBar
  00316	8b f7		 mov	 esi, edi
  00318	84 c0		 test	 al, al
  0031a	74 19		 je	 SHORT $LN53@GetTaskBar

; 96   : 		strTemp[count]=pBuf[*pLocation];
; 97   : 		count++; (*pLocation)++;

  0031c	8d 73 01	 lea	 esi, DWORD PTR [ebx+1]
  0031f	88 44 0d c8	 mov	 BYTE PTR _strTemp$21[ebp+ecx], al
  00323	8a 84 35 b0 e6
	ff ff		 mov	 al, BYTE PTR _AppletTaskBar$[ebp+esi]
  0032a	41		 inc	 ecx
  0032b	8b de		 mov	 ebx, esi
  0032d	8b d6		 mov	 edx, esi
  0032f	8b fe		 mov	 edi, esi
  00331	3c 2c		 cmp	 al, 44			; 0000002cH
  00333	75 db		 jne	 SHORT $LL52@GetTaskBar
$LN53@GetTaskBar:

; 99   : 	strTemp[count]=0;(*pLocation)++;

  00335	83 f9 32	 cmp	 ecx, 50			; 00000032H
  00338	0f 83 04 08 00
	00		 jae	 $LN18@GetTaskBar
$LN274@GetTaskBar:

; 100  : 	return atoi(strTemp);

  0033e	8d 45 c8	 lea	 eax, DWORD PTR _strTemp$21[ebp]
  00341	c6 44 0d c8 00	 mov	 BYTE PTR _strTemp$21[ebp+ecx], 0
  00346	46		 inc	 esi
  00347	50		 push	 eax
  00348	89 b5 48 92 ff
	ff		 mov	 DWORD PTR _CountStr$[ebp], esi
  0034e	e8 00 00 00 00	 call	 _atoi
; File C:\IAGOS\server\v18\Source\Source\_Database\DbManagerFun.cpp

; 975  : 		pMover->m_UserTaskBar.m_aSlotApplet[nIndex].m_dwData	= (DWORD)GetIntFromStr( AppletTaskBar, &CountStr );

  00353	8b 8d 4c 92 ff
	ff		 mov	 ecx, DWORD PTR tv2906[ebp]
; File C:\IAGOS\server\v18\Source\Source\_network\CmnHdr.h

; 100  : 	return atoi(strTemp);

  00359	83 c4 04	 add	 esp, 4
; File C:\IAGOS\server\v18\Source\Source\_Database\DbManagerFun.cpp

; 976  : 		if( pMover->m_UserTaskBar.m_aSlotApplet[nIndex].m_dwShortcut == SHORTCUT_CHAT )

  0035c	8b 9d 44 92 ff
	ff		 mov	 ebx, DWORD PTR _this$GSCopy$1$[ebp]
  00362	83 b9 ec 02 00
	00 08		 cmp	 DWORD PTR [ecx+748], 8
  00369	89 81 00 03 00
	00		 mov	 DWORD PTR [ecx+768], eax
  0036f	75 22		 jne	 SHORT $LN9@GetTaskBar

; 977  : 			GetStrFromDBFormat( pMover->m_UserTaskBar.m_aSlotApplet[nIndex].m_szString, AppletTaskBar, CountStr );

  00371	8d 85 48 92 ff
	ff		 lea	 eax, DWORD PTR _CountStr$[ebp]
  00377	50		 push	 eax
  00378	8d 85 b0 e6 ff
	ff		 lea	 eax, DWORD PTR _AppletTaskBar$[ebp]
  0037e	50		 push	 eax
  0037f	8d 81 04 03 00
	00		 lea	 eax, DWORD PTR [ecx+772]
  00385	8b cb		 mov	 ecx, ebx
  00387	50		 push	 eax
  00388	e8 00 00 00 00	 call	 ?GetStrFromDBFormat@CDbManager@@AAEXPADPBDAAH@Z ; CDbManager::GetStrFromDBFormat
  0038d	8b b5 48 92 ff
	ff		 mov	 esi, DWORD PTR _CountStr$[ebp]
$LN9@GetTaskBar:

; 967  : 	while( '$' != AppletTaskBar[CountStr] )

  00393	80 bc 35 b0 e6
	ff ff 24	 cmp	 BYTE PTR _AppletTaskBar$[ebp+esi], 36 ; 00000024H
  0039b	0f 85 0f fd ff
	ff		 jne	 $LL2@GetTaskBar
  003a1	8b bd 34 92 ff
	ff		 mov	 edi, DWORD PTR _lpDbOverlappedPlus$GSCopy$1$[ebp]
$LN282@GetTaskBar:

; 978  : 	}
; 979  : 	
; 980  : 	CountStr	= 0;
; 981  : 	nIndex	= 0;
; 982  : 	int nSlotIndex	= 0;
; 983  : 	char ItemTaskBar[MAX_ITEMTASKBAR]	= { 0, };

  003a7	68 60 54 00 00	 push	 21600			; 00005460H
  003ac	33 f6		 xor	 esi, esi
  003ae	8d 85 50 92 ff
	ff		 lea	 eax, DWORD PTR _ItemTaskBar$[ebp]
  003b4	56		 push	 esi
  003b5	50		 push	 eax
  003b6	e8 00 00 00 00	 call	 _memset

; 984  : 	qry->GetStr( "m_aSlotItem", ItemTaskBar );

  003bb	8b 8d 38 92 ff
	ff		 mov	 ecx, DWORD PTR _qry$GSCopy$1$[ebp]
  003c1	8d 85 50 92 ff
	ff		 lea	 eax, DWORD PTR _ItemTaskBar$[ebp]
  003c7	83 c4 0c	 add	 esp, 12			; 0000000cH
  003ca	50		 push	 eax
  003cb	68 00 00 00 00	 push	 OFFSET ??_C@_0M@OJJDLIJE@m_aSlotItem@
  003d0	e8 00 00 00 00	 call	 ?GetStr@CQuery@@QAEXPAD0@Z ; CQuery::GetStr
; File C:\IAGOS\server\v18\Source\Source\_database\DbManager.h

; 1305 : 	int len		= strlen( lpString );

  003d5	8d 8d 50 92 ff
	ff		 lea	 ecx, DWORD PTR _ItemTaskBar$[ebp]
  003db	8d 51 01	 lea	 edx, DWORD PTR [ecx+1]
  003de	66 90		 npad	 2
$LL286@GetTaskBar:
  003e0	8a 01		 mov	 al, BYTE PTR [ecx]
  003e2	41		 inc	 ecx
  003e3	84 c0		 test	 al, al
  003e5	75 f9		 jne	 SHORT $LL286@GetTaskBar
  003e7	2b ca		 sub	 ecx, edx

; 1306 : 	if( len > 0 && lpString[len-1] == '$' )

  003e9	85 c9		 test	 ecx, ecx
  003eb	0f 8e 08 07 00
	00		 jle	 $LN152@GetTaskBar
  003f1	80 bc 0d 4f 92
	ff ff 24	 cmp	 BYTE PTR _ItemTaskBar$[ebp+ecx-1], 36 ; 00000024H
  003f9	0f 85 fa 06 00
	00		 jne	 $LN152@GetTaskBar
; File C:\IAGOS\server\v18\Source\Source\_Database\DbManagerFun.cpp

; 986  : 	while( '$' != ItemTaskBar[CountStr] )

  003ff	80 bd 50 92 ff
	ff 24		 cmp	 BYTE PTR _ItemTaskBar$[ebp], 36 ; 00000024H
  00406	0f 84 75 03 00
	00		 je	 $LN283@GetTaskBar
  0040c	8b 85 3c 92 ff
	ff		 mov	 eax, DWORD PTR $T1[ebp]
  00412	89 85 3c 92 ff
	ff		 mov	 DWORD PTR $T1[ebp], eax
  00418	0f 1f 84 00 00
	00 00 00	 npad	 8
$LL4@GetTaskBar:
; File C:\IAGOS\server\v18\Source\Source\_network\CmnHdr.h

; 95   : 	while(pBuf[*pLocation]!=',' && pBuf[*pLocation]!='/' && pBuf[*pLocation]!=0) {

  00420	8a 84 35 50 92
	ff ff		 mov	 al, BYTE PTR _ItemTaskBar$[ebp+esi]
  00427	33 c9		 xor	 ecx, ecx
  00429	3c 2c		 cmp	 al, 44			; 0000002cH
  0042b	74 25		 je	 SHORT $LN272@GetTaskBar
  0042d	0f 1f 00	 npad	 3
$LL58@GetTaskBar:
  00430	3c 2f		 cmp	 al, 47			; 0000002fH
  00432	74 15		 je	 SHORT $LN59@GetTaskBar
  00434	84 c0		 test	 al, al
  00436	74 11		 je	 SHORT $LN59@GetTaskBar

; 96   : 		strTemp[count]=pBuf[*pLocation];
; 97   : 		count++; (*pLocation)++;

  00438	46		 inc	 esi
  00439	88 44 0d c8	 mov	 BYTE PTR _strTemp$22[ebp+ecx], al
  0043d	41		 inc	 ecx
  0043e	8a 84 35 50 92
	ff ff		 mov	 al, BYTE PTR _ItemTaskBar$[ebp+esi]
  00445	3c 2c		 cmp	 al, 44			; 0000002cH
  00447	75 e7		 jne	 SHORT $LL58@GetTaskBar
$LN59@GetTaskBar:

; 99   : 	strTemp[count]=0;(*pLocation)++;

  00449	83 f9 32	 cmp	 ecx, 50			; 00000032H
  0044c	0f 83 f0 06 00
	00		 jae	 $LN18@GetTaskBar
$LN272@GetTaskBar:

; 100  : 	return atoi(strTemp);

  00452	8d 45 c8	 lea	 eax, DWORD PTR _strTemp$22[ebp]
  00455	c6 44 0d c8 00	 mov	 BYTE PTR _strTemp$22[ebp+ecx], 0
  0045a	50		 push	 eax
  0045b	46		 inc	 esi
  0045c	e8 00 00 00 00	 call	 _atoi

; 95   : 	while(pBuf[*pLocation]!=',' && pBuf[*pLocation]!='/' && pBuf[*pLocation]!=0) {

  00461	8a 8c 35 50 92
	ff ff		 mov	 cl, BYTE PTR _ItemTaskBar$[ebp+esi]

; 100  : 	return atoi(strTemp);

  00468	83 c4 04	 add	 esp, 4

; 94   : 	int count=0;

  0046b	33 d2		 xor	 edx, edx
; File C:\IAGOS\server\v18\Source\Source\_Database\DbManagerFun.cpp

; 988  : 		nSlotIndex	= GetIntFromStr( ItemTaskBar, &CountStr );

  0046d	89 85 48 92 ff
	ff		 mov	 DWORD PTR _nSlotIndex$1$[ebp], eax
; File C:\IAGOS\server\v18\Source\Source\_network\CmnHdr.h

; 95   : 	while(pBuf[*pLocation]!=',' && pBuf[*pLocation]!='/' && pBuf[*pLocation]!=0) {

  00473	80 f9 2c	 cmp	 cl, 44			; 0000002cH
  00476	74 38		 je	 SHORT $LN271@GetTaskBar
  00478	8b de		 mov	 ebx, esi
  0047a	8b c6		 mov	 eax, esi
  0047c	8b fe		 mov	 edi, esi
  0047e	66 90		 npad	 2
$LL64@GetTaskBar:
  00480	8b f0		 mov	 esi, eax
  00482	80 f9 2f	 cmp	 cl, 47			; 0000002fH
  00485	74 20		 je	 SHORT $LN65@GetTaskBar
  00487	8b f7		 mov	 esi, edi
  00489	84 c9		 test	 cl, cl
  0048b	74 1a		 je	 SHORT $LN65@GetTaskBar

; 96   : 		strTemp[count]=pBuf[*pLocation];
; 97   : 		count++; (*pLocation)++;

  0048d	8d 73 01	 lea	 esi, DWORD PTR [ebx+1]
  00490	88 4c 15 c8	 mov	 BYTE PTR _strTemp$23[ebp+edx], cl
  00494	8a 8c 35 50 92
	ff ff		 mov	 cl, BYTE PTR _ItemTaskBar$[ebp+esi]
  0049b	42		 inc	 edx
  0049c	8b de		 mov	 ebx, esi
  0049e	8b c6		 mov	 eax, esi
  004a0	8b fe		 mov	 edi, esi
  004a2	80 f9 2c	 cmp	 cl, 44			; 0000002cH
  004a5	75 d9		 jne	 SHORT $LL64@GetTaskBar
$LN65@GetTaskBar:

; 99   : 	strTemp[count]=0;(*pLocation)++;

  004a7	83 fa 32	 cmp	 edx, 50			; 00000032H
  004aa	0f 83 92 06 00
	00		 jae	 $LN18@GetTaskBar
$LN271@GetTaskBar:

; 100  : 	return atoi(strTemp);

  004b0	8d 45 c8	 lea	 eax, DWORD PTR _strTemp$23[ebp]
  004b3	c6 44 15 c8 00	 mov	 BYTE PTR _strTemp$23[ebp+edx], 0
  004b8	50		 push	 eax
  004b9	46		 inc	 esi
  004ba	e8 00 00 00 00	 call	 _atoi

; 95   : 	while(pBuf[*pLocation]!=',' && pBuf[*pLocation]!='/' && pBuf[*pLocation]!=0) {

  004bf	8a 8c 35 50 92
	ff ff		 mov	 cl, BYTE PTR _ItemTaskBar$[ebp+esi]

; 100  : 	return atoi(strTemp);

  004c6	83 c4 04	 add	 esp, 4

; 94   : 	int count=0;

  004c9	33 d2		 xor	 edx, edx
; File C:\IAGOS\server\v18\Source\Source\_Database\DbManagerFun.cpp

; 989  : 		nIndex	= GetIntFromStr( ItemTaskBar, &CountStr );

  004cb	89 85 4c 92 ff
	ff		 mov	 DWORD PTR _nIndex$2$[ebp], eax
; File C:\IAGOS\server\v18\Source\Source\_network\CmnHdr.h

; 95   : 	while(pBuf[*pLocation]!=',' && pBuf[*pLocation]!='/' && pBuf[*pLocation]!=0) {

  004d1	80 f9 2c	 cmp	 cl, 44			; 0000002cH
  004d4	74 40		 je	 SHORT $LN270@GetTaskBar
  004d6	8b de		 mov	 ebx, esi
  004d8	8b c6		 mov	 eax, esi
  004da	8b fe		 mov	 edi, esi
  004dc	0f 1f 40 00	 npad	 4
$LL70@GetTaskBar:
  004e0	8b f0		 mov	 esi, eax
  004e2	80 f9 2f	 cmp	 cl, 47			; 0000002fH
  004e5	74 20		 je	 SHORT $LN71@GetTaskBar
  004e7	8b f7		 mov	 esi, edi
  004e9	84 c9		 test	 cl, cl
  004eb	74 1a		 je	 SHORT $LN71@GetTaskBar

; 96   : 		strTemp[count]=pBuf[*pLocation];
; 97   : 		count++; (*pLocation)++;

  004ed	8d 73 01	 lea	 esi, DWORD PTR [ebx+1]
  004f0	88 4c 15 c8	 mov	 BYTE PTR _strTemp$2[ebp+edx], cl
  004f4	8a 8c 35 50 92
	ff ff		 mov	 cl, BYTE PTR _ItemTaskBar$[ebp+esi]
  004fb	42		 inc	 edx
  004fc	8b de		 mov	 ebx, esi
  004fe	8b c6		 mov	 eax, esi
  00500	8b fe		 mov	 edi, esi
  00502	80 f9 2c	 cmp	 cl, 44			; 0000002cH
  00505	75 d9		 jne	 SHORT $LL70@GetTaskBar
$LN71@GetTaskBar:

; 99   : 	strTemp[count]=0;(*pLocation)++;

  00507	83 fa 32	 cmp	 edx, 50			; 00000032H
  0050a	0f 83 32 06 00
	00		 jae	 $LN18@GetTaskBar
  00510	8b 85 4c 92 ff
	ff		 mov	 eax, DWORD PTR _nIndex$2$[ebp]
$LN270@GetTaskBar:
; File C:\IAGOS\server\v18\Source\Source\_Database\DbManagerFun.cpp

; 990  : 		pMover->m_UserTaskBar.m_aSlotItem[nSlotIndex][nIndex].m_dwShortcut	= (DWORD)GetIntFromStr( ItemTaskBar, &CountStr );

  00516	8b 8d 48 92 ff
	ff		 mov	 ecx, DWORD PTR _nSlotIndex$1$[ebp]
; File C:\IAGOS\server\v18\Source\Source\_network\CmnHdr.h

; 99   : 	strTemp[count]=0;(*pLocation)++;

  0051c	46		 inc	 esi
  0051d	c6 44 15 c8 00	 mov	 BYTE PTR _strTemp$2[ebp+edx], 0
; File C:\IAGOS\server\v18\Source\Source\_Database\DbManagerFun.cpp

; 990  : 		pMover->m_UserTaskBar.m_aSlotItem[nSlotIndex][nIndex].m_dwShortcut	= (DWORD)GetIntFromStr( ItemTaskBar, &CountStr );

  00522	8d 04 c8	 lea	 eax, DWORD PTR [eax+ecx*8]
  00525	03 c1		 add	 eax, ecx
  00527	69 d8 98 00 00
	00		 imul	 ebx, eax, 152
  0052d	89 85 48 92 ff
	ff		 mov	 DWORD PTR tv2759[ebp], eax
; File C:\IAGOS\server\v18\Source\Source\_network\CmnHdr.h

; 100  : 	return atoi(strTemp);

  00533	8d 45 c8	 lea	 eax, DWORD PTR _strTemp$2[ebp]
  00536	50		 push	 eax
; File C:\IAGOS\server\v18\Source\Source\_Database\DbManagerFun.cpp

; 990  : 		pMover->m_UserTaskBar.m_aSlotItem[nSlotIndex][nIndex].m_dwShortcut	= (DWORD)GetIntFromStr( ItemTaskBar, &CountStr );

  00537	03 9d 40 92 ff
	ff		 add	 ebx, DWORD PTR _pMover$GSCopy$1$[ebp]
  0053d	89 9d 4c 92 ff
	ff		 mov	 DWORD PTR tv2936[ebp], ebx
; File C:\IAGOS\server\v18\Source\Source\_network\CmnHdr.h

; 100  : 	return atoi(strTemp);

  00543	e8 00 00 00 00	 call	 _atoi
; File C:\IAGOS\server\v18\Source\Source\_Database\DbManagerFun.cpp

; 990  : 		pMover->m_UserTaskBar.m_aSlotItem[nSlotIndex][nIndex].m_dwShortcut	= (DWORD)GetIntFromStr( ItemTaskBar, &CountStr );

  00548	89 83 9c 0d 00
	00		 mov	 DWORD PTR [ebx+3484], eax
; File C:\IAGOS\server\v18\Source\Source\_network\CmnHdr.h

; 100  : 	return atoi(strTemp);

  0054e	83 c4 04	 add	 esp, 4

; 95   : 	while(pBuf[*pLocation]!=',' && pBuf[*pLocation]!='/' && pBuf[*pLocation]!=0) {

  00551	8a 84 35 50 92
	ff ff		 mov	 al, BYTE PTR _ItemTaskBar$[ebp+esi]
  00558	33 c9		 xor	 ecx, ecx
  0055a	3c 2c		 cmp	 al, 44			; 0000002cH
  0055c	74 3a		 je	 SHORT $LN269@GetTaskBar
  0055e	8b de		 mov	 ebx, esi
  00560	8b d6		 mov	 edx, esi
  00562	8b fe		 mov	 edi, esi
$LL76@GetTaskBar:
  00564	8b f2		 mov	 esi, edx
  00566	3c 2f		 cmp	 al, 47			; 0000002fH
  00568	74 1f		 je	 SHORT $LN77@GetTaskBar
  0056a	8b f7		 mov	 esi, edi
  0056c	84 c0		 test	 al, al
  0056e	74 19		 je	 SHORT $LN77@GetTaskBar

; 96   : 		strTemp[count]=pBuf[*pLocation];
; 97   : 		count++; (*pLocation)++;

  00570	8d 73 01	 lea	 esi, DWORD PTR [ebx+1]
  00573	88 44 0d c8	 mov	 BYTE PTR _strTemp$3[ebp+ecx], al
  00577	8a 84 35 50 92
	ff ff		 mov	 al, BYTE PTR _ItemTaskBar$[ebp+esi]
  0057e	41		 inc	 ecx
  0057f	8b de		 mov	 ebx, esi
  00581	8b d6		 mov	 edx, esi
  00583	8b fe		 mov	 edi, esi
  00585	3c 2c		 cmp	 al, 44			; 0000002cH
  00587	75 db		 jne	 SHORT $LL76@GetTaskBar
$LN77@GetTaskBar:

; 99   : 	strTemp[count]=0;(*pLocation)++;

  00589	83 f9 32	 cmp	 ecx, 50			; 00000032H
  0058c	0f 83 b0 05 00
	00		 jae	 $LN18@GetTaskBar
  00592	8b 9d 4c 92 ff
	ff		 mov	 ebx, DWORD PTR tv2936[ebp]
$LN269@GetTaskBar:

; 100  : 	return atoi(strTemp);

  00598	8d 45 c8	 lea	 eax, DWORD PTR _strTemp$3[ebp]
  0059b	c6 44 0d c8 00	 mov	 BYTE PTR _strTemp$3[ebp+ecx], 0
  005a0	50		 push	 eax
  005a1	46		 inc	 esi
  005a2	e8 00 00 00 00	 call	 _atoi
; File C:\IAGOS\server\v18\Source\Source\_Database\DbManagerFun.cpp

; 991  : 		pMover->m_UserTaskBar.m_aSlotItem[nSlotIndex][nIndex].m_dwId	= (DWORD)GetIntFromStr( ItemTaskBar, &CountStr );

  005a7	89 83 a0 0d 00
	00		 mov	 DWORD PTR [ebx+3488], eax
; File C:\IAGOS\server\v18\Source\Source\_network\CmnHdr.h

; 100  : 	return atoi(strTemp);

  005ad	83 c4 04	 add	 esp, 4

; 95   : 	while(pBuf[*pLocation]!=',' && pBuf[*pLocation]!='/' && pBuf[*pLocation]!=0) {

  005b0	8a 84 35 50 92
	ff ff		 mov	 al, BYTE PTR _ItemTaskBar$[ebp+esi]
  005b7	33 c9		 xor	 ecx, ecx
  005b9	3c 2c		 cmp	 al, 44			; 0000002cH
  005bb	74 3a		 je	 SHORT $LN268@GetTaskBar
  005bd	8b de		 mov	 ebx, esi
  005bf	8b d6		 mov	 edx, esi
  005c1	8b fe		 mov	 edi, esi
$LL82@GetTaskBar:
  005c3	8b f2		 mov	 esi, edx
  005c5	3c 2f		 cmp	 al, 47			; 0000002fH
  005c7	74 1f		 je	 SHORT $LN83@GetTaskBar
  005c9	8b f7		 mov	 esi, edi
  005cb	84 c0		 test	 al, al
  005cd	74 19		 je	 SHORT $LN83@GetTaskBar

; 96   : 		strTemp[count]=pBuf[*pLocation];
; 97   : 		count++; (*pLocation)++;

  005cf	8d 73 01	 lea	 esi, DWORD PTR [ebx+1]
  005d2	88 44 0d c8	 mov	 BYTE PTR _strTemp$4[ebp+ecx], al
  005d6	8a 84 35 50 92
	ff ff		 mov	 al, BYTE PTR _ItemTaskBar$[ebp+esi]
  005dd	41		 inc	 ecx
  005de	8b de		 mov	 ebx, esi
  005e0	8b d6		 mov	 edx, esi
  005e2	8b fe		 mov	 edi, esi
  005e4	3c 2c		 cmp	 al, 44			; 0000002cH
  005e6	75 db		 jne	 SHORT $LL82@GetTaskBar
$LN83@GetTaskBar:

; 99   : 	strTemp[count]=0;(*pLocation)++;

  005e8	83 f9 32	 cmp	 ecx, 50			; 00000032H
  005eb	0f 83 51 05 00
	00		 jae	 $LN18@GetTaskBar
  005f1	8b 9d 4c 92 ff
	ff		 mov	 ebx, DWORD PTR tv2936[ebp]
$LN268@GetTaskBar:

; 100  : 	return atoi(strTemp);

  005f7	8d 45 c8	 lea	 eax, DWORD PTR _strTemp$4[ebp]
  005fa	c6 44 0d c8 00	 mov	 BYTE PTR _strTemp$4[ebp+ecx], 0
  005ff	50		 push	 eax
  00600	46		 inc	 esi
  00601	e8 00 00 00 00	 call	 _atoi
; File C:\IAGOS\server\v18\Source\Source\_Database\DbManagerFun.cpp

; 992  : 		pMover->m_UserTaskBar.m_aSlotItem[nSlotIndex][nIndex].m_dwType	= (DWORD)GetIntFromStr( ItemTaskBar, &CountStr );

  00606	89 83 a4 0d 00
	00		 mov	 DWORD PTR [ebx+3492], eax
; File C:\IAGOS\server\v18\Source\Source\_network\CmnHdr.h

; 100  : 	return atoi(strTemp);

  0060c	83 c4 04	 add	 esp, 4

; 95   : 	while(pBuf[*pLocation]!=',' && pBuf[*pLocation]!='/' && pBuf[*pLocation]!=0) {

  0060f	8a 84 35 50 92
	ff ff		 mov	 al, BYTE PTR _ItemTaskBar$[ebp+esi]
  00616	33 c9		 xor	 ecx, ecx
  00618	3c 2c		 cmp	 al, 44			; 0000002cH
  0061a	74 34		 je	 SHORT $LN267@GetTaskBar
  0061c	8b de		 mov	 ebx, esi
  0061e	8b d6		 mov	 edx, esi
  00620	8b fe		 mov	 edi, esi
$LL88@GetTaskBar:
  00622	8b f2		 mov	 esi, edx
  00624	3c 2f		 cmp	 al, 47			; 0000002fH
  00626	74 1f		 je	 SHORT $LN89@GetTaskBar
  00628	8b f7		 mov	 esi, edi
  0062a	84 c0		 test	 al, al
  0062c	74 19		 je	 SHORT $LN89@GetTaskBar

; 96   : 		strTemp[count]=pBuf[*pLocation];
; 97   : 		count++; (*pLocation)++;

  0062e	8d 73 01	 lea	 esi, DWORD PTR [ebx+1]
  00631	88 44 0d c8	 mov	 BYTE PTR _strTemp$5[ebp+ecx], al
  00635	8a 84 35 50 92
	ff ff		 mov	 al, BYTE PTR _ItemTaskBar$[ebp+esi]
  0063c	41		 inc	 ecx
  0063d	8b de		 mov	 ebx, esi
  0063f	8b d6		 mov	 edx, esi
  00641	8b fe		 mov	 edi, esi
  00643	3c 2c		 cmp	 al, 44			; 0000002cH
  00645	75 db		 jne	 SHORT $LL88@GetTaskBar
$LN89@GetTaskBar:

; 99   : 	strTemp[count]=0;(*pLocation)++;

  00647	83 f9 32	 cmp	 ecx, 50			; 00000032H
  0064a	0f 83 f2 04 00
	00		 jae	 $LN18@GetTaskBar
$LN267@GetTaskBar:

; 100  : 	return atoi(strTemp);

  00650	8d 45 c8	 lea	 eax, DWORD PTR _strTemp$5[ebp]
  00653	c6 44 0d c8 00	 mov	 BYTE PTR _strTemp$5[ebp+ecx], 0
  00658	50		 push	 eax
  00659	46		 inc	 esi
  0065a	e8 00 00 00 00	 call	 _atoi
; File C:\IAGOS\server\v18\Source\Source\_Database\DbManagerFun.cpp

; 993  : 		pMover->m_UserTaskBar.m_aSlotItem[nSlotIndex][nIndex].m_dwIndex	= (DWORD)GetIntFromStr( ItemTaskBar, &CountStr );

  0065f	8b 8d 48 92 ff
	ff		 mov	 ecx, DWORD PTR tv2759[ebp]
; File C:\IAGOS\server\v18\Source\Source\_network\CmnHdr.h

; 100  : 	return atoi(strTemp);

  00665	83 c4 04	 add	 esp, 4
; File C:\IAGOS\server\v18\Source\Source\_Database\DbManagerFun.cpp

; 993  : 		pMover->m_UserTaskBar.m_aSlotItem[nSlotIndex][nIndex].m_dwIndex	= (DWORD)GetIntFromStr( ItemTaskBar, &CountStr );

  00668	8b 95 40 92 ff
	ff		 mov	 edx, DWORD PTR _pMover$GSCopy$1$[ebp]
  0066e	83 c1 17	 add	 ecx, 23			; 00000017H
  00671	69 c9 98 00 00
	00		 imul	 ecx, ecx, 152
  00677	89 04 11	 mov	 DWORD PTR [ecx+edx], eax
; File C:\IAGOS\server\v18\Source\Source\_network\CmnHdr.h

; 94   : 	int count=0;

  0067a	33 c9		 xor	 ecx, ecx

; 95   : 	while(pBuf[*pLocation]!=',' && pBuf[*pLocation]!='/' && pBuf[*pLocation]!=0) {

  0067c	8a 84 35 50 92
	ff ff		 mov	 al, BYTE PTR _ItemTaskBar$[ebp+esi]
  00683	3c 2c		 cmp	 al, 44			; 0000002cH
  00685	74 37		 je	 SHORT $LN266@GetTaskBar
  00687	8b de		 mov	 ebx, esi
  00689	8b d6		 mov	 edx, esi
  0068b	8b fe		 mov	 edi, esi
  0068d	0f 1f 00	 npad	 3
$LL94@GetTaskBar:
  00690	8b f2		 mov	 esi, edx
  00692	3c 2f		 cmp	 al, 47			; 0000002fH
  00694	74 1f		 je	 SHORT $LN95@GetTaskBar
  00696	8b f7		 mov	 esi, edi
  00698	84 c0		 test	 al, al
  0069a	74 19		 je	 SHORT $LN95@GetTaskBar

; 96   : 		strTemp[count]=pBuf[*pLocation];
; 97   : 		count++; (*pLocation)++;

  0069c	8d 73 01	 lea	 esi, DWORD PTR [ebx+1]
  0069f	88 44 0d c8	 mov	 BYTE PTR _strTemp$18[ebp+ecx], al
  006a3	8a 84 35 50 92
	ff ff		 mov	 al, BYTE PTR _ItemTaskBar$[ebp+esi]
  006aa	41		 inc	 ecx
  006ab	8b de		 mov	 ebx, esi
  006ad	8b d6		 mov	 edx, esi
  006af	8b fe		 mov	 edi, esi
  006b1	3c 2c		 cmp	 al, 44			; 0000002cH
  006b3	75 db		 jne	 SHORT $LL94@GetTaskBar
$LN95@GetTaskBar:

; 99   : 	strTemp[count]=0;(*pLocation)++;

  006b5	83 f9 32	 cmp	 ecx, 50			; 00000032H
  006b8	0f 83 84 04 00
	00		 jae	 $LN18@GetTaskBar
$LN266@GetTaskBar:

; 100  : 	return atoi(strTemp);

  006be	8d 45 c8	 lea	 eax, DWORD PTR _strTemp$18[ebp]
  006c1	c6 44 0d c8 00	 mov	 BYTE PTR _strTemp$18[ebp+ecx], 0
  006c6	50		 push	 eax
  006c7	46		 inc	 esi
  006c8	e8 00 00 00 00	 call	 _atoi
; File C:\IAGOS\server\v18\Source\Source\_Database\DbManagerFun.cpp

; 994  : 		pMover->m_UserTaskBar.m_aSlotItem[nSlotIndex][nIndex].m_dwUserId	= (DWORD)GetIntFromStr( ItemTaskBar, &CountStr );

  006cd	8b 8d 4c 92 ff
	ff		 mov	 ecx, DWORD PTR tv2936[ebp]
; File C:\IAGOS\server\v18\Source\Source\_network\CmnHdr.h

; 100  : 	return atoi(strTemp);

  006d3	83 c4 04	 add	 esp, 4
; File C:\IAGOS\server\v18\Source\Source\_Database\DbManagerFun.cpp

; 994  : 		pMover->m_UserTaskBar.m_aSlotItem[nSlotIndex][nIndex].m_dwUserId	= (DWORD)GetIntFromStr( ItemTaskBar, &CountStr );

  006d6	89 81 ac 0d 00
	00		 mov	 DWORD PTR [ecx+3500], eax
; File C:\IAGOS\server\v18\Source\Source\_network\CmnHdr.h

; 94   : 	int count=0;

  006dc	33 c9		 xor	 ecx, ecx

; 95   : 	while(pBuf[*pLocation]!=',' && pBuf[*pLocation]!='/' && pBuf[*pLocation]!=0) {

  006de	8a 84 35 50 92
	ff ff		 mov	 al, BYTE PTR _ItemTaskBar$[ebp+esi]
  006e5	3c 2c		 cmp	 al, 44			; 0000002cH
  006e7	74 35		 je	 SHORT $LN265@GetTaskBar
  006e9	8b de		 mov	 ebx, esi
  006eb	8b d6		 mov	 edx, esi
  006ed	8b fe		 mov	 edi, esi
  006ef	90		 npad	 1
$LL100@GetTaskBar:
  006f0	8b f2		 mov	 esi, edx
  006f2	3c 2f		 cmp	 al, 47			; 0000002fH
  006f4	74 1f		 je	 SHORT $LN101@GetTaskBar
  006f6	8b f7		 mov	 esi, edi
  006f8	84 c0		 test	 al, al
  006fa	74 19		 je	 SHORT $LN101@GetTaskBar

; 96   : 		strTemp[count]=pBuf[*pLocation];
; 97   : 		count++; (*pLocation)++;

  006fc	8d 73 01	 lea	 esi, DWORD PTR [ebx+1]
  006ff	88 44 0d c8	 mov	 BYTE PTR _strTemp$7[ebp+ecx], al
  00703	8a 84 35 50 92
	ff ff		 mov	 al, BYTE PTR _ItemTaskBar$[ebp+esi]
  0070a	41		 inc	 ecx
  0070b	8b de		 mov	 ebx, esi
  0070d	8b d6		 mov	 edx, esi
  0070f	8b fe		 mov	 edi, esi
  00711	3c 2c		 cmp	 al, 44			; 0000002cH
  00713	75 db		 jne	 SHORT $LL100@GetTaskBar
$LN101@GetTaskBar:

; 99   : 	strTemp[count]=0;(*pLocation)++;

  00715	83 f9 32	 cmp	 ecx, 50			; 00000032H
  00718	0f 83 24 04 00
	00		 jae	 $LN18@GetTaskBar
$LN265@GetTaskBar:

; 100  : 	return atoi(strTemp);

  0071e	8d 45 c8	 lea	 eax, DWORD PTR _strTemp$7[ebp]
  00721	c6 44 0d c8 00	 mov	 BYTE PTR _strTemp$7[ebp+ecx], 0
  00726	46		 inc	 esi
  00727	50		 push	 eax
  00728	89 b5 48 92 ff
	ff		 mov	 DWORD PTR _CountStr$[ebp], esi
  0072e	e8 00 00 00 00	 call	 _atoi
; File C:\IAGOS\server\v18\Source\Source\_Database\DbManagerFun.cpp

; 995  : 		pMover->m_UserTaskBar.m_aSlotItem[nSlotIndex][nIndex].m_dwData	= (DWORD)GetIntFromStr( ItemTaskBar, &CountStr );

  00733	8b 8d 4c 92 ff
	ff		 mov	 ecx, DWORD PTR tv2936[ebp]
; File C:\IAGOS\server\v18\Source\Source\_network\CmnHdr.h

; 100  : 	return atoi(strTemp);

  00739	83 c4 04	 add	 esp, 4
; File C:\IAGOS\server\v18\Source\Source\_Database\DbManagerFun.cpp

; 996  : 		if( pMover->m_UserTaskBar.m_aSlotItem[nSlotIndex][nIndex].m_dwShortcut == SHORTCUT_CHAT )

  0073c	8b 9d 44 92 ff
	ff		 mov	 ebx, DWORD PTR _this$GSCopy$1$[ebp]
  00742	83 b9 9c 0d 00
	00 08		 cmp	 DWORD PTR [ecx+3484], 8
  00749	89 81 b0 0d 00
	00		 mov	 DWORD PTR [ecx+3504], eax
  0074f	75 22		 jne	 SHORT $LN11@GetTaskBar

; 997  : 			GetStrFromDBFormat( pMover->m_UserTaskBar.m_aSlotItem[nSlotIndex][nIndex].m_szString, ItemTaskBar, CountStr );

  00751	8d 85 48 92 ff
	ff		 lea	 eax, DWORD PTR _CountStr$[ebp]
  00757	50		 push	 eax
  00758	8d 85 50 92 ff
	ff		 lea	 eax, DWORD PTR _ItemTaskBar$[ebp]
  0075e	50		 push	 eax
  0075f	8d 81 b4 0d 00
	00		 lea	 eax, DWORD PTR [ecx+3508]
  00765	8b cb		 mov	 ecx, ebx
  00767	50		 push	 eax
  00768	e8 00 00 00 00	 call	 ?GetStrFromDBFormat@CDbManager@@AAEXPADPBDAAH@Z ; CDbManager::GetStrFromDBFormat
  0076d	8b b5 48 92 ff
	ff		 mov	 esi, DWORD PTR _CountStr$[ebp]
$LN11@GetTaskBar:

; 986  : 	while( '$' != ItemTaskBar[CountStr] )

  00773	80 bc 35 50 92
	ff ff 24	 cmp	 BYTE PTR _ItemTaskBar$[ebp+esi], 36 ; 00000024H
  0077b	0f 85 9f fc ff
	ff		 jne	 $LL4@GetTaskBar
$LN283@GetTaskBar:

; 998  : 	}
; 999  : 	
; 1000 : 	CountStr	= 0;
; 1001 : 	nIndex	= 0;
; 1002 : 	char SkillTaskBar[1024]		= { 0, };

  00781	68 00 04 00 00	 push	 1024			; 00000400H
  00786	33 f6		 xor	 esi, esi
  00788	8d 85 c8 fb ff
	ff		 lea	 eax, DWORD PTR _SkillTaskBar$[ebp]
  0078e	56		 push	 esi
  0078f	50		 push	 eax
  00790	e8 00 00 00 00	 call	 _memset

; 1003 : 	qry->GetStr( "m_aSlotQueue", SkillTaskBar );

  00795	8b 8d 38 92 ff
	ff		 mov	 ecx, DWORD PTR _qry$GSCopy$1$[ebp]
  0079b	8d 85 c8 fb ff
	ff		 lea	 eax, DWORD PTR _SkillTaskBar$[ebp]
  007a1	83 c4 0c	 add	 esp, 12			; 0000000cH
  007a4	50		 push	 eax
  007a5	68 00 00 00 00	 push	 OFFSET ??_C@_0N@CPNBAAIJ@m_aSlotQueue@
  007aa	e8 00 00 00 00	 call	 ?GetStr@CQuery@@QAEXPAD0@Z ; CQuery::GetStr
; File C:\IAGOS\server\v18\Source\Source\_database\DbManager.h

; 1305 : 	int len		= strlen( lpString );

  007af	8d 8d c8 fb ff
	ff		 lea	 ecx, DWORD PTR _SkillTaskBar$[ebp]
  007b5	8d 51 01	 lea	 edx, DWORD PTR [ecx+1]
$LL287@GetTaskBar:
  007b8	8a 01		 mov	 al, BYTE PTR [ecx]
  007ba	41		 inc	 ecx
  007bb	84 c0		 test	 al, al
  007bd	75 f9		 jne	 SHORT $LL287@GetTaskBar
  007bf	2b ca		 sub	 ecx, edx

; 1306 : 	if( len > 0 && lpString[len-1] == '$' )

  007c1	85 c9		 test	 ecx, ecx
  007c3	0f 8e 06 03 00
	00		 jle	 $LN156@GetTaskBar
  007c9	80 bc 0d c7 fb
	ff ff 24	 cmp	 BYTE PTR _SkillTaskBar$[ebp+ecx-1], 36 ; 00000024H
  007d1	0f 85 f8 02 00
	00		 jne	 $LN156@GetTaskBar
; File C:\IAGOS\server\v18\Source\Source\_Database\DbManagerFun.cpp

; 1005 : 	while( '$' != SkillTaskBar[CountStr] )

  007d7	8a 85 c8 fb ff
	ff		 mov	 al, BYTE PTR _SkillTaskBar$[ebp]
  007dd	3c 24		 cmp	 al, 36			; 00000024H
  007df	0f 84 b6 02 00
	00		 je	 $LN284@GetTaskBar
$LL6@GetTaskBar:
; File C:\IAGOS\server\v18\Source\Source\_network\CmnHdr.h

; 94   : 	int count=0;

  007e5	33 c9		 xor	 ecx, ecx

; 95   : 	while(pBuf[*pLocation]!=',' && pBuf[*pLocation]!='/' && pBuf[*pLocation]!=0) {

  007e7	3c 2c		 cmp	 al, 44			; 0000002cH
  007e9	74 27		 je	 SHORT $LN263@GetTaskBar
  007eb	0f 1f 44 00 00	 npad	 5
$LL106@GetTaskBar:
  007f0	3c 2f		 cmp	 al, 47			; 0000002fH
  007f2	74 15		 je	 SHORT $LN107@GetTaskBar
  007f4	84 c0		 test	 al, al
  007f6	74 11		 je	 SHORT $LN107@GetTaskBar

; 96   : 		strTemp[count]=pBuf[*pLocation];
; 97   : 		count++; (*pLocation)++;

  007f8	46		 inc	 esi
  007f9	88 44 0d c8	 mov	 BYTE PTR _strTemp$8[ebp+ecx], al
  007fd	41		 inc	 ecx
  007fe	8a 84 35 c8 fb
	ff ff		 mov	 al, BYTE PTR _SkillTaskBar$[ebp+esi]
  00805	3c 2c		 cmp	 al, 44			; 0000002cH
  00807	75 e7		 jne	 SHORT $LL106@GetTaskBar
$LN107@GetTaskBar:

; 99   : 	strTemp[count]=0;(*pLocation)++;

  00809	83 f9 32	 cmp	 ecx, 50			; 00000032H
  0080c	0f 83 30 03 00
	00		 jae	 $LN18@GetTaskBar
$LN263@GetTaskBar:

; 100  : 	return atoi(strTemp);

  00812	8d 45 c8	 lea	 eax, DWORD PTR _strTemp$8[ebp]
  00815	c6 44 0d c8 00	 mov	 BYTE PTR _strTemp$8[ebp+ecx], 0
  0081a	50		 push	 eax
  0081b	46		 inc	 esi
  0081c	e8 00 00 00 00	 call	 _atoi

; 95   : 	while(pBuf[*pLocation]!=',' && pBuf[*pLocation]!='/' && pBuf[*pLocation]!=0) {

  00821	8a 8c 35 c8 fb
	ff ff		 mov	 cl, BYTE PTR _SkillTaskBar$[ebp+esi]

; 100  : 	return atoi(strTemp);

  00828	83 c4 04	 add	 esp, 4

; 94   : 	int count=0;

  0082b	33 d2		 xor	 edx, edx
; File C:\IAGOS\server\v18\Source\Source\_Database\DbManagerFun.cpp

; 1007 : 		nIndex	= GetIntFromStr( SkillTaskBar, &CountStr );

  0082d	89 85 4c 92 ff
	ff		 mov	 DWORD PTR _nIndex$3$[ebp], eax
; File C:\IAGOS\server\v18\Source\Source\_network\CmnHdr.h

; 95   : 	while(pBuf[*pLocation]!=',' && pBuf[*pLocation]!='/' && pBuf[*pLocation]!=0) {

  00833	80 f9 2c	 cmp	 cl, 44			; 0000002cH
  00836	74 3e		 je	 SHORT $LN262@GetTaskBar
  00838	8b de		 mov	 ebx, esi
  0083a	8b c6		 mov	 eax, esi
  0083c	8b fe		 mov	 edi, esi
  0083e	66 90		 npad	 2
$LL112@GetTaskBar:
  00840	8b f0		 mov	 esi, eax
  00842	80 f9 2f	 cmp	 cl, 47			; 0000002fH
  00845	74 20		 je	 SHORT $LN113@GetTaskBar
  00847	8b f7		 mov	 esi, edi
  00849	84 c9		 test	 cl, cl
  0084b	74 1a		 je	 SHORT $LN113@GetTaskBar

; 96   : 		strTemp[count]=pBuf[*pLocation];
; 97   : 		count++; (*pLocation)++;

  0084d	8d 73 01	 lea	 esi, DWORD PTR [ebx+1]
  00850	88 4c 15 c8	 mov	 BYTE PTR _strTemp$9[ebp+edx], cl
  00854	8a 8c 35 c8 fb
	ff ff		 mov	 cl, BYTE PTR _SkillTaskBar$[ebp+esi]
  0085b	42		 inc	 edx
  0085c	8b de		 mov	 ebx, esi
  0085e	8b c6		 mov	 eax, esi
  00860	8b fe		 mov	 edi, esi
  00862	80 f9 2c	 cmp	 cl, 44			; 0000002cH
  00865	75 d9		 jne	 SHORT $LL112@GetTaskBar
$LN113@GetTaskBar:

; 99   : 	strTemp[count]=0;(*pLocation)++;

  00867	83 fa 32	 cmp	 edx, 50			; 00000032H
  0086a	0f 83 d2 02 00
	00		 jae	 $LN18@GetTaskBar
  00870	8b 85 4c 92 ff
	ff		 mov	 eax, DWORD PTR _nIndex$3$[ebp]
$LN262@GetTaskBar:
; File C:\IAGOS\server\v18\Source\Source\_Database\DbManagerFun.cpp

; 1008 : 		pMover->m_UserTaskBar.m_aSlotQueue[nIndex].m_dwShortcut	= (DWORD)GetIntFromStr( SkillTaskBar, &CountStr );

  00876	69 d8 98 00 00
	00		 imul	 ebx, eax, 152
; File C:\IAGOS\server\v18\Source\Source\_network\CmnHdr.h

; 99   : 	strTemp[count]=0;(*pLocation)++;

  0087c	46		 inc	 esi

; 100  : 	return atoi(strTemp);

  0087d	8d 45 c8	 lea	 eax, DWORD PTR _strTemp$9[ebp]
  00880	c6 44 15 c8 00	 mov	 BYTE PTR _strTemp$9[ebp+edx], 0
  00885	50		 push	 eax
; File C:\IAGOS\server\v18\Source\Source\_Database\DbManagerFun.cpp

; 1008 : 		pMover->m_UserTaskBar.m_aSlotQueue[nIndex].m_dwShortcut	= (DWORD)GetIntFromStr( SkillTaskBar, &CountStr );

  00886	03 9d 40 92 ff
	ff		 add	 ebx, DWORD PTR _pMover$GSCopy$1$[ebp]
  0088c	89 9d 44 92 ff
	ff		 mov	 DWORD PTR tv2747[ebp], ebx
; File C:\IAGOS\server\v18\Source\Source\_network\CmnHdr.h

; 100  : 	return atoi(strTemp);

  00892	e8 00 00 00 00	 call	 _atoi
; File C:\IAGOS\server\v18\Source\Source\_Database\DbManagerFun.cpp

; 1008 : 		pMover->m_UserTaskBar.m_aSlotQueue[nIndex].m_dwShortcut	= (DWORD)GetIntFromStr( SkillTaskBar, &CountStr );

  00897	89 83 5c 38 00
	00		 mov	 DWORD PTR [ebx+14428], eax
; File C:\IAGOS\server\v18\Source\Source\_network\CmnHdr.h

; 100  : 	return atoi(strTemp);

  0089d	83 c4 04	 add	 esp, 4

; 95   : 	while(pBuf[*pLocation]!=',' && pBuf[*pLocation]!='/' && pBuf[*pLocation]!=0) {

  008a0	8a 84 35 c8 fb
	ff ff		 mov	 al, BYTE PTR _SkillTaskBar$[ebp+esi]
  008a7	33 c9		 xor	 ecx, ecx
  008a9	3c 2c		 cmp	 al, 44			; 0000002cH
  008ab	74 3a		 je	 SHORT $LN261@GetTaskBar
  008ad	8b de		 mov	 ebx, esi
  008af	8b d6		 mov	 edx, esi
  008b1	8b fe		 mov	 edi, esi
$LL118@GetTaskBar:
  008b3	8b f2		 mov	 esi, edx
  008b5	3c 2f		 cmp	 al, 47			; 0000002fH
  008b7	74 1f		 je	 SHORT $LN119@GetTaskBar
  008b9	8b f7		 mov	 esi, edi
  008bb	84 c0		 test	 al, al
  008bd	74 19		 je	 SHORT $LN119@GetTaskBar

; 96   : 		strTemp[count]=pBuf[*pLocation];
; 97   : 		count++; (*pLocation)++;

  008bf	8d 73 01	 lea	 esi, DWORD PTR [ebx+1]
  008c2	88 44 0d c8	 mov	 BYTE PTR _strTemp$10[ebp+ecx], al
  008c6	8a 84 35 c8 fb
	ff ff		 mov	 al, BYTE PTR _SkillTaskBar$[ebp+esi]
  008cd	41		 inc	 ecx
  008ce	8b de		 mov	 ebx, esi
  008d0	8b d6		 mov	 edx, esi
  008d2	8b fe		 mov	 edi, esi
  008d4	3c 2c		 cmp	 al, 44			; 0000002cH
  008d6	75 db		 jne	 SHORT $LL118@GetTaskBar
$LN119@GetTaskBar:

; 99   : 	strTemp[count]=0;(*pLocation)++;

  008d8	83 f9 32	 cmp	 ecx, 50			; 00000032H
  008db	0f 83 61 02 00
	00		 jae	 $LN18@GetTaskBar
  008e1	8b 9d 44 92 ff
	ff		 mov	 ebx, DWORD PTR tv2747[ebp]
$LN261@GetTaskBar:

; 100  : 	return atoi(strTemp);

  008e7	8d 45 c8	 lea	 eax, DWORD PTR _strTemp$10[ebp]
  008ea	c6 44 0d c8 00	 mov	 BYTE PTR _strTemp$10[ebp+ecx], 0
  008ef	50		 push	 eax
  008f0	46		 inc	 esi
  008f1	e8 00 00 00 00	 call	 _atoi
; File C:\IAGOS\server\v18\Source\Source\_Database\DbManagerFun.cpp

; 1009 : 		pMover->m_UserTaskBar.m_aSlotQueue[nIndex].m_dwId	= (DWORD)GetIntFromStr( SkillTaskBar, &CountStr );

  008f6	89 83 60 38 00
	00		 mov	 DWORD PTR [ebx+14432], eax
; File C:\IAGOS\server\v18\Source\Source\_network\CmnHdr.h

; 100  : 	return atoi(strTemp);

  008fc	83 c4 04	 add	 esp, 4

; 95   : 	while(pBuf[*pLocation]!=',' && pBuf[*pLocation]!='/' && pBuf[*pLocation]!=0) {

  008ff	8a 84 35 c8 fb
	ff ff		 mov	 al, BYTE PTR _SkillTaskBar$[ebp+esi]
  00906	33 c9		 xor	 ecx, ecx
  00908	3c 2c		 cmp	 al, 44			; 0000002cH
  0090a	74 3a		 je	 SHORT $LN260@GetTaskBar
  0090c	8b de		 mov	 ebx, esi
  0090e	8b d6		 mov	 edx, esi
  00910	8b fe		 mov	 edi, esi
$LL124@GetTaskBar:
  00912	8b f2		 mov	 esi, edx
  00914	3c 2f		 cmp	 al, 47			; 0000002fH
  00916	74 1f		 je	 SHORT $LN125@GetTaskBar
  00918	8b f7		 mov	 esi, edi
  0091a	84 c0		 test	 al, al
  0091c	74 19		 je	 SHORT $LN125@GetTaskBar

; 96   : 		strTemp[count]=pBuf[*pLocation];
; 97   : 		count++; (*pLocation)++;

  0091e	8d 73 01	 lea	 esi, DWORD PTR [ebx+1]
  00921	88 44 0d c8	 mov	 BYTE PTR _strTemp$11[ebp+ecx], al
  00925	8a 84 35 c8 fb
	ff ff		 mov	 al, BYTE PTR _SkillTaskBar$[ebp+esi]
  0092c	41		 inc	 ecx
  0092d	8b de		 mov	 ebx, esi
  0092f	8b d6		 mov	 edx, esi
  00931	8b fe		 mov	 edi, esi
  00933	3c 2c		 cmp	 al, 44			; 0000002cH
  00935	75 db		 jne	 SHORT $LL124@GetTaskBar
$LN125@GetTaskBar:

; 99   : 	strTemp[count]=0;(*pLocation)++;

  00937	83 f9 32	 cmp	 ecx, 50			; 00000032H
  0093a	0f 83 02 02 00
	00		 jae	 $LN18@GetTaskBar
  00940	8b 9d 44 92 ff
	ff		 mov	 ebx, DWORD PTR tv2747[ebp]
$LN260@GetTaskBar:

; 100  : 	return atoi(strTemp);

  00946	8d 45 c8	 lea	 eax, DWORD PTR _strTemp$11[ebp]
  00949	c6 44 0d c8 00	 mov	 BYTE PTR _strTemp$11[ebp+ecx], 0
  0094e	50		 push	 eax
  0094f	46		 inc	 esi
  00950	e8 00 00 00 00	 call	 _atoi
; File C:\IAGOS\server\v18\Source\Source\_Database\DbManagerFun.cpp

; 1010 : 		pMover->m_UserTaskBar.m_aSlotQueue[nIndex].m_dwType		= (DWORD)GetIntFromStr( SkillTaskBar, &CountStr );

  00955	89 83 64 38 00
	00		 mov	 DWORD PTR [ebx+14436], eax
; File C:\IAGOS\server\v18\Source\Source\_network\CmnHdr.h

; 100  : 	return atoi(strTemp);

  0095b	83 c4 04	 add	 esp, 4

; 95   : 	while(pBuf[*pLocation]!=',' && pBuf[*pLocation]!='/' && pBuf[*pLocation]!=0) {

  0095e	8a 84 35 c8 fb
	ff ff		 mov	 al, BYTE PTR _SkillTaskBar$[ebp+esi]
  00965	33 c9		 xor	 ecx, ecx
  00967	3c 2c		 cmp	 al, 44			; 0000002cH
  00969	74 34		 je	 SHORT $LN259@GetTaskBar
  0096b	8b de		 mov	 ebx, esi
  0096d	8b d6		 mov	 edx, esi
  0096f	8b fe		 mov	 edi, esi
$LL130@GetTaskBar:
  00971	8b f2		 mov	 esi, edx
  00973	3c 2f		 cmp	 al, 47			; 0000002fH
  00975	74 1f		 je	 SHORT $LN131@GetTaskBar
  00977	8b f7		 mov	 esi, edi
  00979	84 c0		 test	 al, al
  0097b	74 19		 je	 SHORT $LN131@GetTaskBar

; 96   : 		strTemp[count]=pBuf[*pLocation];
; 97   : 		count++; (*pLocation)++;

  0097d	8d 73 01	 lea	 esi, DWORD PTR [ebx+1]
  00980	88 44 0d c8	 mov	 BYTE PTR _strTemp$12[ebp+ecx], al
  00984	8a 84 35 c8 fb
	ff ff		 mov	 al, BYTE PTR _SkillTaskBar$[ebp+esi]
  0098b	41		 inc	 ecx
  0098c	8b de		 mov	 ebx, esi
  0098e	8b d6		 mov	 edx, esi
  00990	8b fe		 mov	 edi, esi
  00992	3c 2c		 cmp	 al, 44			; 0000002cH
  00994	75 db		 jne	 SHORT $LL130@GetTaskBar
$LN131@GetTaskBar:

; 99   : 	strTemp[count]=0;(*pLocation)++;

  00996	83 f9 32	 cmp	 ecx, 50			; 00000032H
  00999	0f 83 a3 01 00
	00		 jae	 $LN18@GetTaskBar
$LN259@GetTaskBar:

; 100  : 	return atoi(strTemp);

  0099f	8d 45 c8	 lea	 eax, DWORD PTR _strTemp$12[ebp]
  009a2	c6 44 0d c8 00	 mov	 BYTE PTR _strTemp$12[ebp+ecx], 0
  009a7	50		 push	 eax
  009a8	46		 inc	 esi
  009a9	e8 00 00 00 00	 call	 _atoi
; File C:\IAGOS\server\v18\Source\Source\_Database\DbManagerFun.cpp

; 1011 : 		pMover->m_UserTaskBar.m_aSlotQueue[nIndex].m_dwIndex	= (DWORD)GetIntFromStr( SkillTaskBar, &CountStr );

  009ae	8b 8d 4c 92 ff
	ff		 mov	 ecx, DWORD PTR _nIndex$3$[ebp]
; File C:\IAGOS\server\v18\Source\Source\_network\CmnHdr.h

; 100  : 	return atoi(strTemp);

  009b4	83 c4 04	 add	 esp, 4
; File C:\IAGOS\server\v18\Source\Source\_Database\DbManagerFun.cpp

; 1011 : 		pMover->m_UserTaskBar.m_aSlotQueue[nIndex].m_dwIndex	= (DWORD)GetIntFromStr( SkillTaskBar, &CountStr );

  009b7	8b 95 40 92 ff
	ff		 mov	 edx, DWORD PTR _pMover$GSCopy$1$[ebp]
  009bd	83 c1 5f	 add	 ecx, 95			; 0000005fH
  009c0	69 c9 98 00 00
	00		 imul	 ecx, ecx, 152
  009c6	89 04 11	 mov	 DWORD PTR [ecx+edx], eax
; File C:\IAGOS\server\v18\Source\Source\_network\CmnHdr.h

; 94   : 	int count=0;

  009c9	33 c9		 xor	 ecx, ecx

; 95   : 	while(pBuf[*pLocation]!=',' && pBuf[*pLocation]!='/' && pBuf[*pLocation]!=0) {

  009cb	8a 84 35 c8 fb
	ff ff		 mov	 al, BYTE PTR _SkillTaskBar$[ebp+esi]
  009d2	3c 2c		 cmp	 al, 44			; 0000002cH
  009d4	74 38		 je	 SHORT $LN258@GetTaskBar
  009d6	8b de		 mov	 ebx, esi
  009d8	8b d6		 mov	 edx, esi
  009da	8b fe		 mov	 edi, esi
  009dc	0f 1f 40 00	 npad	 4
$LL136@GetTaskBar:
  009e0	8b f2		 mov	 esi, edx
  009e2	3c 2f		 cmp	 al, 47			; 0000002fH
  009e4	74 1f		 je	 SHORT $LN137@GetTaskBar
  009e6	8b f7		 mov	 esi, edi
  009e8	84 c0		 test	 al, al
  009ea	74 19		 je	 SHORT $LN137@GetTaskBar

; 96   : 		strTemp[count]=pBuf[*pLocation];
; 97   : 		count++; (*pLocation)++;

  009ec	8d 73 01	 lea	 esi, DWORD PTR [ebx+1]
  009ef	88 44 0d c8	 mov	 BYTE PTR _strTemp$13[ebp+ecx], al
  009f3	8a 84 35 c8 fb
	ff ff		 mov	 al, BYTE PTR _SkillTaskBar$[ebp+esi]
  009fa	41		 inc	 ecx
  009fb	8b de		 mov	 ebx, esi
  009fd	8b d6		 mov	 edx, esi
  009ff	8b fe		 mov	 edi, esi
  00a01	3c 2c		 cmp	 al, 44			; 0000002cH
  00a03	75 db		 jne	 SHORT $LL136@GetTaskBar
$LN137@GetTaskBar:

; 99   : 	strTemp[count]=0;(*pLocation)++;

  00a05	83 f9 32	 cmp	 ecx, 50			; 00000032H
  00a08	0f 83 34 01 00
	00		 jae	 $LN18@GetTaskBar
$LN258@GetTaskBar:

; 100  : 	return atoi(strTemp);

  00a0e	8d 45 c8	 lea	 eax, DWORD PTR _strTemp$13[ebp]
  00a11	c6 44 0d c8 00	 mov	 BYTE PTR _strTemp$13[ebp+ecx], 0
  00a16	50		 push	 eax
  00a17	46		 inc	 esi
  00a18	e8 00 00 00 00	 call	 _atoi
; File C:\IAGOS\server\v18\Source\Source\_Database\DbManagerFun.cpp

; 1012 : 		pMover->m_UserTaskBar.m_aSlotQueue[nIndex].m_dwUserId	= (DWORD)GetIntFromStr( SkillTaskBar, &CountStr );

  00a1d	8b 8d 44 92 ff
	ff		 mov	 ecx, DWORD PTR tv2747[ebp]
; File C:\IAGOS\server\v18\Source\Source\_network\CmnHdr.h

; 100  : 	return atoi(strTemp);

  00a23	83 c4 04	 add	 esp, 4
; File C:\IAGOS\server\v18\Source\Source\_Database\DbManagerFun.cpp

; 1012 : 		pMover->m_UserTaskBar.m_aSlotQueue[nIndex].m_dwUserId	= (DWORD)GetIntFromStr( SkillTaskBar, &CountStr );

  00a26	89 81 6c 38 00
	00		 mov	 DWORD PTR [ecx+14444], eax
; File C:\IAGOS\server\v18\Source\Source\_network\CmnHdr.h

; 94   : 	int count=0;

  00a2c	33 c9		 xor	 ecx, ecx

; 95   : 	while(pBuf[*pLocation]!=',' && pBuf[*pLocation]!='/' && pBuf[*pLocation]!=0) {

  00a2e	8a 84 35 c8 fb
	ff ff		 mov	 al, BYTE PTR _SkillTaskBar$[ebp+esi]
  00a35	3c 2c		 cmp	 al, 44			; 0000002cH
  00a37	74 35		 je	 SHORT $LN257@GetTaskBar
  00a39	8b de		 mov	 ebx, esi
  00a3b	8b d6		 mov	 edx, esi
  00a3d	8b fe		 mov	 edi, esi
  00a3f	90		 npad	 1
$LL142@GetTaskBar:
  00a40	8b f2		 mov	 esi, edx
  00a42	3c 2f		 cmp	 al, 47			; 0000002fH
  00a44	74 1f		 je	 SHORT $LN143@GetTaskBar
  00a46	8b f7		 mov	 esi, edi
  00a48	84 c0		 test	 al, al
  00a4a	74 19		 je	 SHORT $LN143@GetTaskBar

; 96   : 		strTemp[count]=pBuf[*pLocation];
; 97   : 		count++; (*pLocation)++;

  00a4c	8d 73 01	 lea	 esi, DWORD PTR [ebx+1]
  00a4f	88 44 0d c8	 mov	 BYTE PTR _strTemp$14[ebp+ecx], al
  00a53	8a 84 35 c8 fb
	ff ff		 mov	 al, BYTE PTR _SkillTaskBar$[ebp+esi]
  00a5a	41		 inc	 ecx
  00a5b	8b de		 mov	 ebx, esi
  00a5d	8b d6		 mov	 edx, esi
  00a5f	8b fe		 mov	 edi, esi
  00a61	3c 2c		 cmp	 al, 44			; 0000002cH
  00a63	75 db		 jne	 SHORT $LL142@GetTaskBar
$LN143@GetTaskBar:

; 99   : 	strTemp[count]=0;(*pLocation)++;

  00a65	83 f9 32	 cmp	 ecx, 50			; 00000032H
  00a68	0f 83 d4 00 00
	00		 jae	 $LN18@GetTaskBar
$LN257@GetTaskBar:

; 100  : 	return atoi(strTemp);

  00a6e	8d 45 c8	 lea	 eax, DWORD PTR _strTemp$14[ebp]
  00a71	c6 44 0d c8 00	 mov	 BYTE PTR _strTemp$14[ebp+ecx], 0
  00a76	50		 push	 eax
  00a77	46		 inc	 esi
  00a78	e8 00 00 00 00	 call	 _atoi
; File C:\IAGOS\server\v18\Source\Source\_Database\DbManagerFun.cpp

; 1013 : 		pMover->m_UserTaskBar.m_aSlotQueue[nIndex].m_dwData		= (DWORD)GetIntFromStr( SkillTaskBar, &CountStr );

  00a7d	8b 8d 44 92 ff
	ff		 mov	 ecx, DWORD PTR tv2747[ebp]
; File C:\IAGOS\server\v18\Source\Source\_network\CmnHdr.h

; 100  : 	return atoi(strTemp);

  00a83	83 c4 04	 add	 esp, 4
; File C:\IAGOS\server\v18\Source\Source\_Database\DbManagerFun.cpp

; 1013 : 		pMover->m_UserTaskBar.m_aSlotQueue[nIndex].m_dwData		= (DWORD)GetIntFromStr( SkillTaskBar, &CountStr );

  00a86	89 81 70 38 00
	00		 mov	 DWORD PTR [ecx+14448], eax
  00a8c	8a 84 35 c8 fb
	ff ff		 mov	 al, BYTE PTR _SkillTaskBar$[ebp+esi]
  00a93	3c 24		 cmp	 al, 36			; 00000024H
  00a95	0f 85 4a fd ff
	ff		 jne	 $LL6@GetTaskBar
$LN284@GetTaskBar:

; 1014 : 	}
; 1015 : 	pMover->m_UserTaskBar.m_nActionPoint = qry->GetInt( "m_SkillBar" );

  00a9b	8b 8d 38 92 ff
	ff		 mov	 ecx, DWORD PTR _qry$GSCopy$1$[ebp]
  00aa1	68 00 00 00 00	 push	 OFFSET ??_C@_0L@NJKCPPDJ@m_SkillBar@
  00aa6	e8 00 00 00 00	 call	 ?GetInt@CQuery@@QAEHPAD@Z ; CQuery::GetInt
  00aab	8b 8d 40 92 ff
	ff		 mov	 ecx, DWORD PTR _pMover$GSCopy$1$[ebp]
  00ab1	5f		 pop	 edi

; 1016 : 	return TRUE;
; 1017 : }

  00ab2	5e		 pop	 esi
  00ab3	5b		 pop	 ebx
  00ab4	89 81 54 3b 00
	00		 mov	 DWORD PTR [ecx+15188], eax
  00aba	b8 01 00 00 00	 mov	 eax, 1
  00abf	8b 4d fc	 mov	 ecx, DWORD PTR __$ArrayPad$[ebp]
  00ac2	33 cd		 xor	 ecx, ebp
  00ac4	e8 00 00 00 00	 call	 @__security_check_cookie@4
  00ac9	8b e5		 mov	 esp, ebp
  00acb	5d		 pop	 ebp
  00acc	c2 0c 00	 ret	 12			; 0000000cH
$LN156@GetTaskBar:
; File C:\IAGOS\server\v18\Source\Source\_database\DbManager.h

; 1308 : 	WriteLog( "%s, %d\t%s", lpFileName, nLine, lpName );

  00acf	ff b5 3c 92 ff
	ff		 push	 DWORD PTR $T1[ebp]
  00ad5	68 ec 03 00 00	 push	 1004			; 000003ecH
  00ada	68 00 00 00 00	 push	 OFFSET ??_C@_0DN@JBKLBOHO@C?3?2IAGOS?2server?2v18?2Source?2Sour@
  00adf	68 00 00 00 00	 push	 OFFSET ??_C@_09GBAEEKDE@?$CFs?0?5?$CFd?7?$CFs@
  00ae4	e8 00 00 00 00	 call	 ?WriteLog@@YAXPBDZZ	; WriteLog

; 1309 : 	if( NULL != lpOverlapped )

  00ae9	8b 85 34 92 ff
	ff		 mov	 eax, DWORD PTR _lpDbOverlappedPlus$GSCopy$1$[ebp]
  00aef	83 c4 10	 add	 esp, 16			; 00000010H
  00af2	85 c0		 test	 eax, eax
  00af4	74 37		 je	 SHORT $LN264@GetTaskBar

; 1310 : 		FreeRequest( lpOverlapped );

  00af6	50		 push	 eax
  00af7	eb 2d		 jmp	 SHORT $LN406@GetTaskBar
$LN152@GetTaskBar:

; 1308 : 	WriteLog( "%s, %d\t%s", lpFileName, nLine, lpName );

  00af9	ff b5 3c 92 ff
	ff		 push	 DWORD PTR $T1[ebp]
  00aff	68 d9 03 00 00	 push	 985			; 000003d9H
  00b04	eb 09		 jmp	 SHORT $LN408@GetTaskBar
$LN148@GetTaskBar:
; File C:\IAGOS\server\v18\Source\Source\_Database\DbManagerFun.cpp

; 966  : 	VERIFYSTRING_RETURN( AppletTaskBar, lpDbOverlappedPlus->AccountInfo.szPlayer );

  00b06	8d 47 74	 lea	 eax, DWORD PTR [edi+116]
; File C:\IAGOS\server\v18\Source\Source\_database\DbManager.h

; 1308 : 	WriteLog( "%s, %d\t%s", lpFileName, nLine, lpName );

  00b09	50		 push	 eax
  00b0a	68 c6 03 00 00	 push	 966			; 000003c6H
$LN408@GetTaskBar:
; File C:\IAGOS\server\v18\Source\Source\_Database\DbManagerFun.cpp

; 1004 : 	VERIFYSTRING_RETURN( SkillTaskBar, lpDbOverlappedPlus->AccountInfo.szPlayer );

  00b0f	68 00 00 00 00	 push	 OFFSET ??_C@_0DN@JBKLBOHO@C?3?2IAGOS?2server?2v18?2Source?2Sour@
  00b14	68 00 00 00 00	 push	 OFFSET ??_C@_09GBAEEKDE@?$CFs?0?5?$CFd?7?$CFs@
  00b19	e8 00 00 00 00	 call	 ?WriteLog@@YAXPBDZZ	; WriteLog
  00b1e	83 c4 10	 add	 esp, 16			; 00000010H
  00b21	85 ff		 test	 edi, edi
  00b23	74 08		 je	 SHORT $LN264@GetTaskBar
  00b25	57		 push	 edi
$LN406@GetTaskBar:
  00b26	8b cb		 mov	 ecx, ebx
  00b28	e8 00 00 00 00	 call	 ?FreeRequest@CDbManager@@QAEXPAUtagDB_OVERLAPPED_PLUS@@@Z ; CDbManager::FreeRequest
$LN264@GetTaskBar:

; 1016 : 	return TRUE;
; 1017 : }

  00b2d	8b 4d fc	 mov	 ecx, DWORD PTR __$ArrayPad$[ebp]
  00b30	33 c0		 xor	 eax, eax
  00b32	5f		 pop	 edi
  00b33	5e		 pop	 esi
  00b34	33 cd		 xor	 ecx, ebp
  00b36	5b		 pop	 ebx
  00b37	e8 00 00 00 00	 call	 @__security_check_cookie@4
  00b3c	8b e5		 mov	 esp, ebp
  00b3e	5d		 pop	 ebp
  00b3f	c2 0c 00	 ret	 12			; 0000000cH
$LN18@GetTaskBar:
  00b42	e8 00 00 00 00	 call	 ___report_rangecheckfailure
$LN405@GetTaskBar:
  00b47	cc		 int	 3
?GetTaskBar@CDbManager@@QAEHPAVCMover@@PAVCQuery@@PAUtagDB_OVERLAPPED_PLUS@@@Z ENDP ; CDbManager::GetTaskBar
_TEXT	ENDS
; Function compile flags: /Ogtp
; File C:\IAGOS\server\v18\Source\Source\_Database\DbManagerFun.cpp
; File C:\IAGOS\server\v18\Source\Source\_database\DbManager.h
; File C:\IAGOS\server\v18\Source\Source\_Database\DbManagerFun.cpp
; File C:\IAGOS\server\v18\Source\Source\_network\CmnHdr.h
; File C:\IAGOS\server\v18\Source\Source\_Database\DbManagerFun.cpp
; File C:\IAGOS\server\v18\Source\Source\_database\DbManager.h
; File C:\IAGOS\server\v18\Source\Source\_Database\DbManagerFun.cpp
; File C:\IAGOS\server\v18\Source\Source\_network\CmnHdr.h
; File C:\IAGOS\server\v18\Source\Source\_Database\DbManagerFun.cpp
;	COMDAT ?GetEquipment@CDbManager@@QAEHPAVCMover@@PAVCQuery@@PAUtagDB_OVERLAPPED_PLUS@@@Z
_TEXT	SEGMENT
_this$GSCopy$1$ = -568					; size = 4
_lpDbOverlappedPlus$GSCopy$1$ = -564			; size = 4
_pMover$GSCopy$1$ = -560				; size = 4
_Equipment$ = -556					; size = 500
_strTemp$1 = -56					; size = 50
__$ArrayPad$ = -4					; size = 4
_pMover$ = 8						; size = 4
_qry$ = 12						; size = 4
_lpDbOverlappedPlus$ = 16				; size = 4
?GetEquipment@CDbManager@@QAEHPAVCMover@@PAVCQuery@@PAUtagDB_OVERLAPPED_PLUS@@@Z PROC ; CDbManager::GetEquipment, COMDAT
; _this$ = ecx

; 945  : {

  00000	55		 push	 ebp
  00001	8b ec		 mov	 ebp, esp
  00003	81 ec 38 02 00
	00		 sub	 esp, 568		; 00000238H
  00009	a1 00 00 00 00	 mov	 eax, DWORD PTR ___security_cookie
  0000e	33 c5		 xor	 eax, ebp
  00010	89 45 fc	 mov	 DWORD PTR __$ArrayPad$[ebp], eax
  00013	8b 45 08	 mov	 eax, DWORD PTR _pMover$[ebp]
  00016	53		 push	 ebx
  00017	56		 push	 esi
  00018	8b 75 0c	 mov	 esi, DWORD PTR _qry$[ebp]

; 946  : 	int CountStr	= 0;
; 947  : 	int IndexEquipment	= 0;

  0001b	33 db		 xor	 ebx, ebx
  0001d	57		 push	 edi
  0001e	89 85 d0 fd ff
	ff		 mov	 DWORD PTR _pMover$GSCopy$1$[ebp], eax
  00024	33 ff		 xor	 edi, edi
  00026	8b 45 10	 mov	 eax, DWORD PTR _lpDbOverlappedPlus$[ebp]

; 948  : 	char Equipment[500]		= {0,};

  00029	68 f4 01 00 00	 push	 500			; 000001f4H
  0002e	89 85 cc fd ff
	ff		 mov	 DWORD PTR _lpDbOverlappedPlus$GSCopy$1$[ebp], eax
  00034	8d 85 d4 fd ff
	ff		 lea	 eax, DWORD PTR _Equipment$[ebp]
  0003a	53		 push	 ebx
  0003b	50		 push	 eax
  0003c	89 8d c8 fd ff
	ff		 mov	 DWORD PTR _this$GSCopy$1$[ebp], ecx
  00042	e8 00 00 00 00	 call	 _memset
  00047	83 c4 0c	 add	 esp, 12			; 0000000cH

; 949  : 	qry->GetStr( "m_adwEquipment", Equipment );

  0004a	8d 85 d4 fd ff
	ff		 lea	 eax, DWORD PTR _Equipment$[ebp]
  00050	8b ce		 mov	 ecx, esi
  00052	50		 push	 eax
  00053	68 00 00 00 00	 push	 OFFSET ??_C@_0P@MCBMMJCE@m_adwEquipment@
  00058	e8 00 00 00 00	 call	 ?GetStr@CQuery@@QAEXPAD0@Z ; CQuery::GetStr
; File C:\IAGOS\server\v18\Source\Source\_database\DbManager.h

; 1305 : 	int len		= strlen( lpString );

  0005d	8d 8d d4 fd ff
	ff		 lea	 ecx, DWORD PTR _Equipment$[ebp]
  00063	8d 51 01	 lea	 edx, DWORD PTR [ecx+1]
$LL29@GetEquipme:
  00066	8a 01		 mov	 al, BYTE PTR [ecx]
  00068	41		 inc	 ecx
  00069	84 c0		 test	 al, al
  0006b	75 f9		 jne	 SHORT $LL29@GetEquipme
  0006d	2b ca		 sub	 ecx, edx

; 1306 : 	if( len > 0 && lpString[len-1] == '$' )

  0006f	85 c9		 test	 ecx, ecx
  00071	0f 8e 97 00 00
	00		 jle	 $LN8@GetEquipme
  00077	80 bc 0d d3 fd
	ff ff 24	 cmp	 BYTE PTR _Equipment$[ebp+ecx-1], 36 ; 00000024H
  0007f	0f 85 89 00 00
	00		 jne	 $LN8@GetEquipme
; File C:\IAGOS\server\v18\Source\Source\_Database\DbManagerFun.cpp

; 951  : 	while( '$' != Equipment[CountStr] )

  00085	80 bd d4 fd ff
	ff 24		 cmp	 BYTE PTR _Equipment$[ebp], 36 ; 00000024H
  0008c	74 68		 je	 SHORT $LN22@GetEquipme
  0008e	8b b5 d0 fd ff
	ff		 mov	 esi, DWORD PTR _pMover$GSCopy$1$[ebp]
  00094	81 c6 70 3f 00
	00		 add	 esi, 16240		; 00003f70H
  0009a	66 0f 1f 44 00
	00		 npad	 6
$LL2@GetEquipme:

; 952  : 	{
; 953  : 		if( IndexEquipment < MAX_HUMAN_PARTS )

  000a0	83 fb 1f	 cmp	 ebx, 31			; 0000001fH
  000a3	7d 43		 jge	 SHORT $LN5@GetEquipme
; File C:\IAGOS\server\v18\Source\Source\_network\CmnHdr.h

; 95   : 	while(pBuf[*pLocation]!=',' && pBuf[*pLocation]!='/' && pBuf[*pLocation]!=0) {

  000a5	8a 84 3d d4 fd
	ff ff		 mov	 al, BYTE PTR _Equipment$[ebp+edi]
  000ac	33 c9		 xor	 ecx, ecx
  000ae	3c 2c		 cmp	 al, 44			; 0000002cH
  000b0	74 22		 je	 SHORT $LN27@GetEquipme
$LL12@GetEquipme:
  000b2	3c 2f		 cmp	 al, 47			; 0000002fH
  000b4	74 15		 je	 SHORT $LN13@GetEquipme
  000b6	84 c0		 test	 al, al
  000b8	74 11		 je	 SHORT $LN13@GetEquipme

; 96   : 		strTemp[count]=pBuf[*pLocation];
; 97   : 		count++; (*pLocation)++;

  000ba	47		 inc	 edi
  000bb	88 44 0d c8	 mov	 BYTE PTR _strTemp$1[ebp+ecx], al
  000bf	41		 inc	 ecx
  000c0	8a 84 3d d4 fd
	ff ff		 mov	 al, BYTE PTR _Equipment$[ebp+edi]
  000c7	3c 2c		 cmp	 al, 44			; 0000002cH
  000c9	75 e7		 jne	 SHORT $LL12@GetEquipme
$LN13@GetEquipme:

; 99   : 	strTemp[count]=0;(*pLocation)++;

  000cb	83 f9 32	 cmp	 ecx, 50			; 00000032H
  000ce	0f 83 80 00 00
	00		 jae	 $LN15@GetEquipme
$LN27@GetEquipme:

; 100  : 	return atoi(strTemp);

  000d4	8d 45 c8	 lea	 eax, DWORD PTR _strTemp$1[ebp]
  000d7	c6 44 0d c8 00	 mov	 BYTE PTR _strTemp$1[ebp+ecx], 0
  000dc	50		 push	 eax
  000dd	47		 inc	 edi
  000de	e8 00 00 00 00	 call	 _atoi
  000e3	83 c4 04	 add	 esp, 4
; File C:\IAGOS\server\v18\Source\Source\_Database\DbManagerFun.cpp

; 954  : 			pMover->m_aEquipInfo[IndexEquipment].dwId	= (DWORD)GetIntFromStr( Equipment, &CountStr );

  000e6	89 06		 mov	 DWORD PTR [esi], eax
$LN5@GetEquipme:

; 955  : 		IndexEquipment++;

  000e8	43		 inc	 ebx
  000e9	83 c6 0c	 add	 esi, 12			; 0000000cH
  000ec	80 bc 3d d4 fd
	ff ff 24	 cmp	 BYTE PTR _Equipment$[ebp+edi], 36 ; 00000024H
  000f4	75 aa		 jne	 SHORT $LL2@GetEquipme
$LN22@GetEquipme:
  000f6	5f		 pop	 edi

; 958  : }

  000f7	5e		 pop	 esi
  000f8	b8 01 00 00 00	 mov	 eax, 1
  000fd	5b		 pop	 ebx
  000fe	8b 4d fc	 mov	 ecx, DWORD PTR __$ArrayPad$[ebp]
  00101	33 cd		 xor	 ecx, ebp
  00103	e8 00 00 00 00	 call	 @__security_check_cookie@4
  00108	8b e5		 mov	 esp, ebp
  0010a	5d		 pop	 ebp
  0010b	c2 0c 00	 ret	 12			; 0000000cH
$LN8@GetEquipme:

; 950  : 	VERIFYSTRING_RETURN( Equipment, lpDbOverlappedPlus->AccountInfo.szPlayer );

  0010e	8b 9d cc fd ff
	ff		 mov	 ebx, DWORD PTR _lpDbOverlappedPlus$GSCopy$1$[ebp]
  00114	8d 43 74	 lea	 eax, DWORD PTR [ebx+116]
; File C:\IAGOS\server\v18\Source\Source\_database\DbManager.h

; 1308 : 	WriteLog( "%s, %d\t%s", lpFileName, nLine, lpName );

  00117	50		 push	 eax
  00118	68 b6 03 00 00	 push	 950			; 000003b6H
  0011d	68 00 00 00 00	 push	 OFFSET ??_C@_0DN@JBKLBOHO@C?3?2IAGOS?2server?2v18?2Source?2Sour@
  00122	68 00 00 00 00	 push	 OFFSET ??_C@_09GBAEEKDE@?$CFs?0?5?$CFd?7?$CFs@
  00127	e8 00 00 00 00	 call	 ?WriteLog@@YAXPBDZZ	; WriteLog
  0012c	83 c4 10	 add	 esp, 16			; 00000010H

; 1309 : 	if( NULL != lpOverlapped )

  0012f	85 db		 test	 ebx, ebx
  00131	74 0c		 je	 SHORT $LN28@GetEquipme

; 1310 : 		FreeRequest( lpOverlapped );

  00133	8b 8d c8 fd ff
	ff		 mov	 ecx, DWORD PTR _this$GSCopy$1$[ebp]
  00139	53		 push	 ebx
  0013a	e8 00 00 00 00	 call	 ?FreeRequest@CDbManager@@QAEXPAUtagDB_OVERLAPPED_PLUS@@@Z ; CDbManager::FreeRequest
$LN28@GetEquipme:
; File C:\IAGOS\server\v18\Source\Source\_Database\DbManagerFun.cpp

; 958  : }

  0013f	8b 4d fc	 mov	 ecx, DWORD PTR __$ArrayPad$[ebp]
  00142	33 c0		 xor	 eax, eax
  00144	5f		 pop	 edi
  00145	5e		 pop	 esi
  00146	33 cd		 xor	 ecx, ebp
  00148	5b		 pop	 ebx
  00149	e8 00 00 00 00	 call	 @__security_check_cookie@4
  0014e	8b e5		 mov	 esp, ebp
  00150	5d		 pop	 ebp
  00151	c2 0c 00	 ret	 12			; 0000000cH
$LN15@GetEquipme:
; File C:\IAGOS\server\v18\Source\Source\_network\CmnHdr.h

; 99   : 	strTemp[count]=0;(*pLocation)++;

  00154	e8 00 00 00 00	 call	 ___report_rangecheckfailure
$LN39@GetEquipme:
  00159	cc		 int	 3
?GetEquipment@CDbManager@@QAEHPAVCMover@@PAVCQuery@@PAUtagDB_OVERLAPPED_PLUS@@@Z ENDP ; CDbManager::GetEquipment
_TEXT	ENDS
; Function compile flags: /Ogtp
; File C:\IAGOS\server\v18\Source\Source\_Database\DbManagerFun.cpp
; File C:\IAGOS\server\v18\Source\Source\_database\DbManager.h
; File C:\IAGOS\server\v18\Source\Source\_Database\DbManagerFun.cpp
; File C:\IAGOS\server\v18\Source\Source\_Common\pocket.h
; File C:\IAGOS\server\v18\Source\Source\_Database\DbManagerFun.cpp
; File C:\IAGOS\server\v18\Source\Source\_network\CmnHdr.h
; File C:\IAGOS\server\v18\Source\Source\_Database\DbManagerFun.cpp
; File C:\IAGOS\server\v18\Source\Source\_network\CmnHdr.h
; File C:\IAGOS\server\v18\Source\Source\_Database\DbManagerFun.cpp
; File C:\IAGOS\server\v18\Source\Source\_network\CmnHdr.h
; File C:\IAGOS\server\v18\Source\Source\_Database\DbManagerFun.cpp
; File C:\IAGOS\server\v18\Source\Source\_network\CmnHdr.h
; File C:\IAGOS\server\v18\Source\Source\_Database\DbManagerFun.cpp
; File C:\IAGOS\server\v18\Source\Source\_network\CmnHdr.h
; File C:\IAGOS\server\v18\Source\Source\_Database\DbManagerFun.cpp
; File C:\IAGOS\server\v18\Source\Source\_network\CmnHdr.h
; File C:\IAGOS\server\v18\Source\Source\_Database\DbManagerFun.cpp
; File C:\IAGOS\server\v18\Source\Source\_database\DbManager.h
; File C:\IAGOS\server\v18\Source\Source\_Database\DbManagerFun.cpp
;	COMDAT ?GetPocket@CDbManager@@QAEHPAVCMover@@PAVCQuery@@PAUtagDB_OVERLAPPED_PLUS@@@Z
_TEXT	SEGMENT
_pPocket$1$ = -19040					; size = 4
_this$GSCopy$1$ = -19036				; size = 4
_iRandomOptItemId$2 = -19032				; size = 8
tv1005 = -19028						; size = 4
_nAvailLevel$3 = -19028					; size = 1
_bExpired$1$ = -19028					; size = 4
_iRandomOptItemId$1$ = -19028				; size = 4
$T4 = -19024						; size = 4
tv1001 = -19024						; size = 4
tv989 = -19020						; size = 4
tv1009 = -19020						; size = 4
_pMover$GSCopy$1$ = -19020				; size = 4
_iRandomOptItemId$2$ = -19020				; size = 4
_nOffset$5 = -19016					; size = 4
_pQuery$GSCopy$1$ = -19016				; size = 4
_itemElem$6 = -19012					; size = 152
_szItem$ = -18860					; size = 7500
_szPiercing$ = -11360					; size = 4000
_szPet$ = -7360						; size = 4200
_szExt$ = -3160						; size = 2000
_szObjIndex$ = -1160					; size = 512
_szIndex$ = -648					; size = 512
_szPlayerName$ = -136					; size = 64
_szFmt$7 = -72						; size = 33
_szName$8 = -36						; size = 17
__$ArrayPad$ = -16					; size = 4
__$EHRec$ = -12						; size = 12
_pMover$ = 8						; size = 4
_pQuery$ = 12						; size = 4
_lpDbOverlappedPlus$ = 16				; size = 4
?GetPocket@CDbManager@@QAEHPAVCMover@@PAVCQuery@@PAUtagDB_OVERLAPPED_PLUS@@@Z PROC ; CDbManager::GetPocket, COMDAT
; _this$ = ecx

; 591  : {

  00000	55		 push	 ebp
  00001	8b ec		 mov	 ebp, esp
  00003	6a ff		 push	 -1
  00005	68 00 00 00 00	 push	 __ehhandler$?GetPocket@CDbManager@@QAEHPAVCMover@@PAVCQuery@@PAUtagDB_OVERLAPPED_PLUS@@@Z
  0000a	64 a1 00 00 00
	00		 mov	 eax, DWORD PTR fs:0
  00010	50		 push	 eax
  00011	b8 54 4a 00 00	 mov	 eax, 19028		; 00004a54H
  00016	e8 00 00 00 00	 call	 __chkstk
  0001b	a1 00 00 00 00	 mov	 eax, DWORD PTR ___security_cookie
  00020	33 c5		 xor	 eax, ebp
  00022	89 45 f0	 mov	 DWORD PTR __$ArrayPad$[ebp], eax
  00025	56		 push	 esi
  00026	57		 push	 edi
  00027	50		 push	 eax
  00028	8d 45 f4	 lea	 eax, DWORD PTR __$EHRec$[ebp]
  0002b	64 a3 00 00 00
	00		 mov	 DWORD PTR fs:0, eax
  00031	8b f9		 mov	 edi, ecx
  00033	89 bd a4 b5 ff
	ff		 mov	 DWORD PTR _this$GSCopy$1$[ebp], edi
  00039	8b 45 08	 mov	 eax, DWORD PTR _pMover$[ebp]
  0003c	8b 75 10	 mov	 esi, DWORD PTR _lpDbOverlappedPlus$[ebp]
  0003f	89 85 b4 b5 ff
	ff		 mov	 DWORD PTR _pMover$GSCopy$1$[ebp], eax
  00045	8b 45 0c	 mov	 eax, DWORD PTR _pQuery$[ebp]

; 592  : 	char	szItem[7500]	= { 0,};

  00048	68 4c 1d 00 00	 push	 7500			; 00001d4cH
  0004d	89 85 b8 b5 ff
	ff		 mov	 DWORD PTR _pQuery$GSCopy$1$[ebp], eax
  00053	8d 85 54 b6 ff
	ff		 lea	 eax, DWORD PTR _szItem$[ebp]
  00059	6a 00		 push	 0
  0005b	50		 push	 eax
  0005c	e8 00 00 00 00	 call	 _memset

; 593  : 	char	szIndex[512]	= { 0,};

  00061	68 00 02 00 00	 push	 512			; 00000200H
  00066	8d 85 78 fd ff
	ff		 lea	 eax, DWORD PTR _szIndex$[ebp]
  0006c	6a 00		 push	 0
  0006e	50		 push	 eax
  0006f	e8 00 00 00 00	 call	 _memset

; 594  : 	char	szObjIndex[512]	= { 0,};

  00074	68 00 02 00 00	 push	 512			; 00000200H
  00079	8d 85 78 fb ff
	ff		 lea	 eax, DWORD PTR _szObjIndex$[ebp]
  0007f	6a 00		 push	 0
  00081	50		 push	 eax
  00082	e8 00 00 00 00	 call	 _memset

; 595  : 	char	szExt[2000]		= { 0,};

  00087	68 d0 07 00 00	 push	 2000			; 000007d0H
  0008c	8d 85 a8 f3 ff
	ff		 lea	 eax, DWORD PTR _szExt$[ebp]
  00092	6a 00		 push	 0
  00094	50		 push	 eax
  00095	e8 00 00 00 00	 call	 _memset

; 596  : 	char	szPiercing[4000]	= { 0,};

  0009a	68 a0 0f 00 00	 push	 4000			; 00000fa0H
  0009f	8d 85 a0 d3 ff
	ff		 lea	 eax, DWORD PTR _szPiercing$[ebp]
  000a5	6a 00		 push	 0
  000a7	50		 push	 eax
  000a8	e8 00 00 00 00	 call	 _memset

; 597  : #ifdef __PET_1024
; 598  : 	char	szPet[4200]	= { 0,};

  000ad	68 68 10 00 00	 push	 4200			; 00001068H
  000b2	8d 85 40 e3 ff
	ff		 lea	 eax, DWORD PTR _szPet$[ebp]
  000b8	6a 00		 push	 0
  000ba	50		 push	 eax
  000bb	e8 00 00 00 00	 call	 _memset

; 599  : #else	// __PET_1024
; 600  : 	char	szPet[2688]	= { 0,};
; 601  : #endif	// __PET_1024
; 602  : 
; 603  : 	pQuery->GetStr( "szItem", szItem );

  000c0	8b 8d b8 b5 ff
	ff		 mov	 ecx, DWORD PTR _pQuery$GSCopy$1$[ebp]
  000c6	8d 85 54 b6 ff
	ff		 lea	 eax, DWORD PTR _szItem$[ebp]
  000cc	83 c4 48	 add	 esp, 72			; 00000048H
  000cf	50		 push	 eax
  000d0	68 00 00 00 00	 push	 OFFSET ??_C@_06DKFLNFEC@szItem@
  000d5	e8 00 00 00 00	 call	 ?GetStr@CQuery@@QAEXPAD0@Z ; CQuery::GetStr

; 604  : 	pQuery->GetStr( "szIndex", szIndex );

  000da	8b 8d b8 b5 ff
	ff		 mov	 ecx, DWORD PTR _pQuery$GSCopy$1$[ebp]
  000e0	8d 85 78 fd ff
	ff		 lea	 eax, DWORD PTR _szIndex$[ebp]
  000e6	50		 push	 eax
  000e7	68 00 00 00 00	 push	 OFFSET ??_C@_07ODPBDBGJ@szIndex@
  000ec	e8 00 00 00 00	 call	 ?GetStr@CQuery@@QAEXPAD0@Z ; CQuery::GetStr

; 605  : 	pQuery->GetStr( "szObjIndex", szObjIndex );

  000f1	8b 8d b8 b5 ff
	ff		 mov	 ecx, DWORD PTR _pQuery$GSCopy$1$[ebp]
  000f7	8d 85 78 fb ff
	ff		 lea	 eax, DWORD PTR _szObjIndex$[ebp]
  000fd	50		 push	 eax
  000fe	68 00 00 00 00	 push	 OFFSET ??_C@_0L@LNBLBPOC@szObjIndex@
  00103	e8 00 00 00 00	 call	 ?GetStr@CQuery@@QAEXPAD0@Z ; CQuery::GetStr

; 606  : 	pQuery->GetStr( "szExt", szExt );

  00108	8b 8d b8 b5 ff
	ff		 mov	 ecx, DWORD PTR _pQuery$GSCopy$1$[ebp]
  0010e	8d 85 a8 f3 ff
	ff		 lea	 eax, DWORD PTR _szExt$[ebp]
  00114	50		 push	 eax
  00115	68 00 00 00 00	 push	 OFFSET ??_C@_05MNJCPEEI@szExt@
  0011a	e8 00 00 00 00	 call	 ?GetStr@CQuery@@QAEXPAD0@Z ; CQuery::GetStr

; 607  : 	pQuery->GetStr( "szPiercing", szPiercing );

  0011f	8b 8d b8 b5 ff
	ff		 mov	 ecx, DWORD PTR _pQuery$GSCopy$1$[ebp]
  00125	8d 85 a0 d3 ff
	ff		 lea	 eax, DWORD PTR _szPiercing$[ebp]
  0012b	50		 push	 eax
  0012c	68 00 00 00 00	 push	 OFFSET ??_C@_0L@MAAIPEIA@szPiercing@
  00131	e8 00 00 00 00	 call	 ?GetStr@CQuery@@QAEXPAD0@Z ; CQuery::GetStr

; 608  : 	pQuery->GetStr( "szPet", szPet );

  00136	8b 8d b8 b5 ff
	ff		 mov	 ecx, DWORD PTR _pQuery$GSCopy$1$[ebp]
  0013c	8d 85 40 e3 ff
	ff		 lea	 eax, DWORD PTR _szPet$[ebp]
  00142	50		 push	 eax
  00143	68 00 00 00 00	 push	 OFFSET ??_C@_05LOKLGDMG@szPet@
  00148	e8 00 00 00 00	 call	 ?GetStr@CQuery@@QAEXPAD0@Z ; CQuery::GetStr

; 609  : 
; 610  : 	char szPlayerName[64] = {0, };

  0014d	6a 40		 push	 64			; 00000040H
  0014f	8d 85 78 ff ff
	ff		 lea	 eax, DWORD PTR _szPlayerName$[ebp]
  00155	6a 00		 push	 0
  00157	50		 push	 eax
  00158	e8 00 00 00 00	 call	 _memset
  0015d	83 c4 0c	 add	 esp, 12			; 0000000cH

; 611  : 	if( lpDbOverlappedPlus != NULL )

  00160	8d 95 78 ff ff
	ff		 lea	 edx, DWORD PTR _szPlayerName$[ebp]
  00166	85 f6		 test	 esi, esi
  00168	74 15		 je	 SHORT $LN17@GetPocket

; 612  : 	{
; 613  : 		_tcscpy( szPlayerName, lpDbOverlappedPlus->AccountInfo.szPlayer );

  0016a	8d 4e 74	 lea	 ecx, DWORD PTR [esi+116]
  0016d	2b d1		 sub	 edx, ecx
  0016f	90		 npad	 1
$LL35@GetPocket:
  00170	8a 01		 mov	 al, BYTE PTR [ecx]
  00172	8d 49 01	 lea	 ecx, DWORD PTR [ecx+1]
  00175	88 44 0a ff	 mov	 BYTE PTR [edx+ecx-1], al
  00179	84 c0		 test	 al, al
  0017b	75 f3		 jne	 SHORT $LL35@GetPocket

; 614  : 	}

  0017d	eb 1e		 jmp	 SHORT $LN18@GetPocket
$LN17@GetPocket:

; 615  : 	else
; 616  : 	{
; 617  : 		_tcscpy( szPlayerName, pMover->m_szName );

  0017f	8b 8d b4 b5 ff
	ff		 mov	 ecx, DWORD PTR _pMover$GSCopy$1$[ebp]
  00185	83 c1 6c	 add	 ecx, 108		; 0000006cH
  00188	2b d1		 sub	 edx, ecx
  0018a	66 0f 1f 44 00
	00		 npad	 6
$LL36@GetPocket:
  00190	8a 01		 mov	 al, BYTE PTR [ecx]
  00192	8d 49 01	 lea	 ecx, DWORD PTR [ecx+1]
  00195	88 44 0a ff	 mov	 BYTE PTR [edx+ecx-1], al
  00199	84 c0		 test	 al, al
  0019b	75 f3		 jne	 SHORT $LL36@GetPocket
$LN18@GetPocket:
; File C:\IAGOS\server\v18\Source\Source\_database\DbManager.h

; 1305 : 	int len		= strlen( lpString );

  0019d	8d 8d 54 b6 ff
	ff		 lea	 ecx, DWORD PTR _szItem$[ebp]
  001a3	8d 51 01	 lea	 edx, DWORD PTR [ecx+1]
$LL119@GetPocket:
  001a6	8a 01		 mov	 al, BYTE PTR [ecx]
  001a8	41		 inc	 ecx
  001a9	84 c0		 test	 al, al
  001ab	75 f9		 jne	 SHORT $LL119@GetPocket
  001ad	2b ca		 sub	 ecx, edx

; 1306 : 	if( len > 0 && lpString[len-1] == '$' )

  001af	85 c9		 test	 ecx, ecx
  001b1	0f 8e 97 06 00
	00		 jle	 $LN44@GetPocket
  001b7	80 bc 0d 53 b6
	ff ff 24	 cmp	 BYTE PTR _szItem$[ebp+ecx-1], 36 ; 00000024H
  001bf	0f 85 89 06 00
	00		 jne	 $LN44@GetPocket

; 1305 : 	int len		= strlen( lpString );

  001c5	8d 8d 78 fd ff
	ff		 lea	 ecx, DWORD PTR _szIndex$[ebp]
  001cb	8d 51 01	 lea	 edx, DWORD PTR [ecx+1]
  001ce	66 90		 npad	 2
$LL120@GetPocket:
  001d0	8a 01		 mov	 al, BYTE PTR [ecx]
  001d2	41		 inc	 ecx
  001d3	84 c0		 test	 al, al
  001d5	75 f9		 jne	 SHORT $LL120@GetPocket
  001d7	2b ca		 sub	 ecx, edx

; 1306 : 	if( len > 0 && lpString[len-1] == '$' )

  001d9	85 c9		 test	 ecx, ecx
  001db	0f 8e 5f 06 00
	00		 jle	 $LN48@GetPocket
  001e1	80 bc 0d 77 fd
	ff ff 24	 cmp	 BYTE PTR _szIndex$[ebp+ecx-1], 36 ; 00000024H
  001e9	0f 85 51 06 00
	00		 jne	 $LN48@GetPocket

; 1305 : 	int len		= strlen( lpString );

  001ef	8d 8d 78 fb ff
	ff		 lea	 ecx, DWORD PTR _szObjIndex$[ebp]
  001f5	8d 51 01	 lea	 edx, DWORD PTR [ecx+1]
$LL121@GetPocket:
  001f8	8a 01		 mov	 al, BYTE PTR [ecx]
  001fa	41		 inc	 ecx
  001fb	84 c0		 test	 al, al
  001fd	75 f9		 jne	 SHORT $LL121@GetPocket
  001ff	2b ca		 sub	 ecx, edx

; 1306 : 	if( len > 0 && lpString[len-1] == '$' )

  00201	85 c9		 test	 ecx, ecx
  00203	0f 8e 29 06 00
	00		 jle	 $LN52@GetPocket
  00209	80 bc 0d 77 fb
	ff ff 24	 cmp	 BYTE PTR _szObjIndex$[ebp+ecx-1], 36 ; 00000024H
  00211	0f 85 1b 06 00
	00		 jne	 $LN52@GetPocket

; 1305 : 	int len		= strlen( lpString );

  00217	8d 8d a8 f3 ff
	ff		 lea	 ecx, DWORD PTR _szExt$[ebp]
  0021d	8d 51 01	 lea	 edx, DWORD PTR [ecx+1]
$LL122@GetPocket:
  00220	8a 01		 mov	 al, BYTE PTR [ecx]
  00222	41		 inc	 ecx
  00223	84 c0		 test	 al, al
  00225	75 f9		 jne	 SHORT $LL122@GetPocket
  00227	2b ca		 sub	 ecx, edx

; 1306 : 	if( len > 0 && lpString[len-1] == '$' )

  00229	85 c9		 test	 ecx, ecx
  0022b	0f 8e f3 05 00
	00		 jle	 $LN56@GetPocket
  00231	80 bc 0d a7 f3
	ff ff 24	 cmp	 BYTE PTR _szExt$[ebp+ecx-1], 36 ; 00000024H
  00239	0f 85 e5 05 00
	00		 jne	 $LN56@GetPocket

; 1305 : 	int len		= strlen( lpString );

  0023f	8d 8d a0 d3 ff
	ff		 lea	 ecx, DWORD PTR _szPiercing$[ebp]
  00245	8d 51 01	 lea	 edx, DWORD PTR [ecx+1]
$LL123@GetPocket:
  00248	8a 01		 mov	 al, BYTE PTR [ecx]
  0024a	41		 inc	 ecx
  0024b	84 c0		 test	 al, al
  0024d	75 f9		 jne	 SHORT $LL123@GetPocket
  0024f	2b ca		 sub	 ecx, edx

; 1306 : 	if( len > 0 && lpString[len-1] == '$' )

  00251	85 c9		 test	 ecx, ecx
  00253	0f 8e bd 05 00
	00		 jle	 $LN64@GetPocket
  00259	80 bc 0d 9f d3
	ff ff 24	 cmp	 BYTE PTR _szPiercing$[ebp+ecx-1], 36 ; 00000024H
  00261	0f 85 af 05 00
	00		 jne	 $LN64@GetPocket

; 1305 : 	int len		= strlen( lpString );

  00267	8d 8d 40 e3 ff
	ff		 lea	 ecx, DWORD PTR _szPet$[ebp]
  0026d	8d 51 01	 lea	 edx, DWORD PTR [ecx+1]
$LL124@GetPocket:
  00270	8a 01		 mov	 al, BYTE PTR [ecx]
  00272	41		 inc	 ecx
  00273	84 c0		 test	 al, al
  00275	75 f9		 jne	 SHORT $LL124@GetPocket
  00277	2b ca		 sub	 ecx, edx

; 1306 : 	if( len > 0 && lpString[len-1] == '$' )

  00279	85 c9		 test	 ecx, ecx
  0027b	0f 8e 87 05 00
	00		 jle	 $LN68@GetPocket
  00281	80 bc 0d 3f e3
	ff ff 24	 cmp	 BYTE PTR _szPet$[ebp+ecx-1], 36 ; 00000024H
  00289	0f 85 79 05 00
	00		 jne	 $LN68@GetPocket
; File C:\IAGOS\server\v18\Source\Source\_Database\DbManagerFun.cpp

; 626  : 	int nPocket	= pQuery->GetInt( "nPocket" );

  0028f	8b 8d b8 b5 ff
	ff		 mov	 ecx, DWORD PTR _pQuery$GSCopy$1$[ebp]
  00295	68 00 00 00 00	 push	 OFFSET ??_C@_07LCDBAOIB@nPocket@
  0029a	e8 00 00 00 00	 call	 ?GetInt@CQuery@@QAEHPAD@Z ; CQuery::GetInt

; 627  : 	BOOL bExpired	= (BOOL)pQuery->GetInt( "bExpired" );

  0029f	8b 8d b8 b5 ff
	ff		 mov	 ecx, DWORD PTR _pQuery$GSCopy$1$[ebp]
  002a5	8b f8		 mov	 edi, eax
  002a7	68 00 00 00 00	 push	 OFFSET ??_C@_08MECCMHDE@bExpired@
  002ac	e8 00 00 00 00	 call	 ?GetInt@CQuery@@QAEHPAD@Z ; CQuery::GetInt

; 628  : 
; 629  : 	if( szItem[0] != '$' || !bExpired )

  002b1	80 bd 54 b6 ff
	ff 24		 cmp	 BYTE PTR _szItem$[ebp], 36 ; 00000024H
  002b8	89 85 ac b5 ff
	ff		 mov	 DWORD PTR _bExpired$1$[ebp], eax
  002be	75 08		 jne	 SHORT $LN26@GetPocket
  002c0	85 c0		 test	 eax, eax
  002c2	0f 85 39 05 00
	00		 jne	 $LN13@GetPocket
$LN26@GetPocket:

; 630  : 	{
; 631  : 		pMover->m_Pocket.Avail( nPocket );

  002c8	8b b5 b4 b5 ff
	ff		 mov	 esi, DWORD PTR _pMover$GSCopy$1$[ebp]
  002ce	6a 00		 push	 0
  002d0	57		 push	 edi
  002d1	8d 8e c8 3b 00
	00		 lea	 ecx, DWORD PTR [esi+15304]
  002d7	e8 00 00 00 00	 call	 ?Avail@CPocketController@@QAEXHJ@Z ; CPocketController::Avail

; 632  : 		CPocket* pPocket	= pMover->m_Pocket.GetPocket( nPocket );

  002dc	57		 push	 edi
  002dd	8d 8e c8 3b 00
	00		 lea	 ecx, DWORD PTR [esi+15304]
  002e3	e8 00 00 00 00	 call	 ?GetPocket@CPocketController@@QAEPAVCPocket@@H@Z ; CPocketController::GetPocket

; 633  : 		pPocket->SetExpired( bExpired );
; 634  : 		pPocket->SetExpirationDate( (time_t)pQuery->GetInt( "tExpirationDate" ) );

  002e8	8b 8d b8 b5 ff
	ff		 mov	 ecx, DWORD PTR _pQuery$GSCopy$1$[ebp]
  002ee	8b f8		 mov	 edi, eax
  002f0	8b 85 ac b5 ff
	ff		 mov	 eax, DWORD PTR _bExpired$1$[ebp]
  002f6	68 00 00 00 00	 push	 OFFSET ??_C@_0BA@OHENMHDO@tExpirationDate@
  002fb	89 bd a0 b5 ff
	ff		 mov	 DWORD PTR _pPocket$1$[ebp], edi
  00301	89 47 14	 mov	 DWORD PTR [edi+20], eax
  00304	e8 00 00 00 00	 call	 ?GetInt@CQuery@@QAEHPAD@Z ; CQuery::GetInt
; File C:\IAGOS\server\v18\Source\Source\_Common\pocket.h

; 20   : 	void	SetExpirationDate( time_t tExpirationDate )	{	m_tExpirationDate	= tExpirationDate;		}

  00309	89 47 18	 mov	 DWORD PTR [edi+24], eax
; File C:\IAGOS\server\v18\Source\Source\_Database\DbManagerFun.cpp

; 636  : 		while( '$' != szItem[nOffset] )

  0030c	80 bd 54 b6 ff
	ff 24		 cmp	 BYTE PTR _szItem$[ebp], 36 ; 00000024H
  00313	c7 85 b8 b5 ff
	ff 00 00 00 00	 mov	 DWORD PTR _nOffset$5[ebp], 0
  0031d	0f 84 93 00 00
	00		 je	 $LN112@GetPocket
  00323	8b b5 a4 b5 ff
	ff		 mov	 esi, DWORD PTR _this$GSCopy$1$[ebp]
  00329	0f 1f 80 00 00
	00 00		 npad	 7
$LL2@GetPocket:

; 637  : 		{
; 638  : 			CItemElem itemElem;

  00330	8d 8d bc b5 ff
	ff		 lea	 ecx, DWORD PTR _itemElem$6[ebp]
  00336	e8 00 00 00 00	 call	 ??0CItemElem@@QAE@XZ	; CItemElem::CItemElem

; 639  : 			i	= GetOneItem( &itemElem, szItem, &nOffset );

  0033b	8d 85 b8 b5 ff
	ff		 lea	 eax, DWORD PTR _nOffset$5[ebp]
  00341	c7 45 fc 00 00
	00 00		 mov	 DWORD PTR __$EHRec$[ebp+8], 0
  00348	50		 push	 eax
  00349	8d 85 54 b6 ff
	ff		 lea	 eax, DWORD PTR _szItem$[ebp]
  0034f	8b ce		 mov	 ecx, esi
  00351	50		 push	 eax
  00352	8d 85 bc b5 ff
	ff		 lea	 eax, DWORD PTR _itemElem$6[ebp]
  00358	50		 push	 eax
  00359	e8 00 00 00 00	 call	 ?GetOneItem@CDbManager@@QAEHPAVCItemElem@@PADPAH@Z ; CDbManager::GetOneItem

; 640  : 			if( i == -1 )

  0035e	83 f8 ff	 cmp	 eax, -1
  00361	75 0f		 jne	 SHORT $LN27@GetPocket

; 641  : 			{
; 642  : 				Error( "Join:Pocket:Property not found" );

  00363	68 00 00 00 00	 push	 OFFSET ??_C@_0BP@BKCBFKFA@Join?3Pocket?3Property?5not?5found@
  00368	e8 00 00 00 00	 call	 ?Error@@YAPBDPBDZZ	; Error
  0036d	83 c4 04	 add	 esp, 4

; 643  : 			}

  00370	eb 1e		 jmp	 SHORT $LN28@GetPocket
$LN27@GetPocket:

; 644  : 			else
; 645  : 			{
; 646  : 				if( i >= POCKET_SLOT_SIZE_1_2 )

  00372	83 f8 18	 cmp	 eax, 24			; 00000018H
  00375	0f 8d eb 02 00
	00		 jge	 $LN83@GetPocket

; 650  : 				}
; 651  : 				pPocket->m_apItem[i]	= itemElem;

  0037b	69 c8 98 00 00
	00		 imul	 ecx, eax, 152
  00381	8d 95 bc b5 ff
	ff		 lea	 edx, DWORD PTR _itemElem$6[ebp]
  00387	52		 push	 edx
  00388	03 4f 0c	 add	 ecx, DWORD PTR [edi+12]
  0038b	8b 01		 mov	 eax, DWORD PTR [ecx]
  0038d	ff 50 10	 call	 DWORD PTR [eax+16]
$LN28@GetPocket:

; 652  : 			}
; 653  : 		}

  00390	8d 8d bc b5 ff
	ff		 lea	 ecx, DWORD PTR _itemElem$6[ebp]
  00396	c7 45 fc ff ff
	ff ff		 mov	 DWORD PTR __$EHRec$[ebp+8], -1
  0039d	e8 00 00 00 00	 call	 ??1CItemElem@@UAE@XZ	; CItemElem::~CItemElem
  003a2	8b 85 b8 b5 ff
	ff		 mov	 eax, DWORD PTR _nOffset$5[ebp]
  003a8	80 bc 05 54 b6
	ff ff 24	 cmp	 BYTE PTR _szItem$[ebp+eax], 36 ; 00000024H
  003b0	0f 85 7a ff ff
	ff		 jne	 $LL2@GetPocket
$LN112@GetPocket:

; 655  : 		while( '$' != szIndex[nOffset] )

  003b6	80 bd 78 fd ff
	ff 24		 cmp	 BYTE PTR _szIndex$[ebp], 36 ; 00000024H
  003bd	c7 85 b8 b5 ff
	ff 00 00 00 00	 mov	 DWORD PTR _nOffset$5[ebp], 0
  003c7	74 44		 je	 SHORT $LN5@GetPocket

; 654  : 		nOffset		= i	= 0;

  003c9	33 c9		 xor	 ecx, ecx
  003cb	89 8d b4 b5 ff
	ff		 mov	 DWORD PTR tv1009[ebp], ecx
$LL4@GetPocket:

; 656  : 			pPocket->m_apIndex[i++]		= (DWORD)GetIntFromStr( szIndex, &nOffset );

  003d1	8b 77 04	 mov	 esi, DWORD PTR [edi+4]
  003d4	8d 85 b8 b5 ff
	ff		 lea	 eax, DWORD PTR _nOffset$5[ebp]
  003da	50		 push	 eax
  003db	8d 85 78 fd ff
	ff		 lea	 eax, DWORD PTR _szIndex$[ebp]
  003e1	03 f1		 add	 esi, ecx
  003e3	50		 push	 eax
  003e4	e8 00 00 00 00	 call	 ?GetIntFromStr@@YAHPADPAH@Z ; GetIntFromStr
  003e9	8b 8d b4 b5 ff
	ff		 mov	 ecx, DWORD PTR tv1009[ebp]
  003ef	83 c4 08	 add	 esp, 8
  003f2	89 06		 mov	 DWORD PTR [esi], eax
  003f4	83 c1 04	 add	 ecx, 4
  003f7	8b 85 b8 b5 ff
	ff		 mov	 eax, DWORD PTR _nOffset$5[ebp]
  003fd	89 8d b4 b5 ff
	ff		 mov	 DWORD PTR tv1009[ebp], ecx
  00403	80 bc 05 78 fd
	ff ff 24	 cmp	 BYTE PTR _szIndex$[ebp+eax], 36 ; 00000024H
  0040b	75 c4		 jne	 SHORT $LL4@GetPocket
$LN5@GetPocket:

; 658  : 		while( '$' != szObjIndex[nOffset] )

  0040d	80 bd 78 fb ff
	ff 24		 cmp	 BYTE PTR _szObjIndex$[ebp], 36 ; 00000024H
  00414	c7 85 b8 b5 ff
	ff 00 00 00 00	 mov	 DWORD PTR _nOffset$5[ebp], 0
  0041e	74 41		 je	 SHORT $LN7@GetPocket

; 657  : 		nOffset		= i	= 0;

  00420	33 c0		 xor	 eax, eax
$LL6@GetPocket:

; 659  : 			pPocket->m_apItem[i++].m_dwObjIndex	= (DWORD)GetIntFromStr( szObjIndex, &nOffset );

  00422	8b 77 0c	 mov	 esi, DWORD PTR [edi+12]
  00425	03 f0		 add	 esi, eax
  00427	05 98 00 00 00	 add	 eax, 152		; 00000098H
  0042c	89 85 ac b5 ff
	ff		 mov	 DWORD PTR tv1005[ebp], eax
  00432	8d 85 b8 b5 ff
	ff		 lea	 eax, DWORD PTR _nOffset$5[ebp]
  00438	50		 push	 eax
  00439	8d 85 78 fb ff
	ff		 lea	 eax, DWORD PTR _szObjIndex$[ebp]
  0043f	50		 push	 eax
  00440	e8 00 00 00 00	 call	 ?GetIntFromStr@@YAHPADPAH@Z ; GetIntFromStr
  00445	89 46 2c	 mov	 DWORD PTR [esi+44], eax
  00448	83 c4 08	 add	 esp, 8
  0044b	8b 85 b8 b5 ff
	ff		 mov	 eax, DWORD PTR _nOffset$5[ebp]
  00451	80 bc 05 78 fb
	ff ff 24	 cmp	 BYTE PTR _szObjIndex$[ebp+eax], 36 ; 00000024H
  00459	8b 85 ac b5 ff
	ff		 mov	 eax, DWORD PTR tv1005[ebp]
  0045f	75 c1		 jne	 SHORT $LL6@GetPocket
$LN7@GetPocket:

; 661  : 		while( '$' != szExt[nOffset] )

  00461	80 bd a8 f3 ff
	ff 24		 cmp	 BYTE PTR _szExt$[ebp], 36 ; 00000024H
  00468	c7 85 b8 b5 ff
	ff 00 00 00 00	 mov	 DWORD PTR _nOffset$5[ebp], 0
  00472	0f 84 0d 01 00
	00		 je	 $LN9@GetPocket

; 660  : 		nOffset		= i	= 0;

  00478	33 c9		 xor	 ecx, ecx
  0047a	89 8d b0 b5 ff
	ff		 mov	 DWORD PTR tv1001[ebp], ecx
$LL8@GetPocket:

; 662  : 		{
; 663  : 			pPocket->m_apItem[i].m_bCharged		= (BOOL)GetIntPaFromStr( szExt, &nOffset );

  00480	8b 77 0c	 mov	 esi, DWORD PTR [edi+12]
  00483	8d 85 b8 b5 ff
	ff		 lea	 eax, DWORD PTR _nOffset$5[ebp]
  00489	50		 push	 eax
  0048a	8d 85 a8 f3 ff
	ff		 lea	 eax, DWORD PTR _szExt$[ebp]
  00490	03 f1		 add	 esi, ecx
  00492	50		 push	 eax
  00493	e8 00 00 00 00	 call	 ?GetIntPaFromStr@@YAHPADPAH@Z ; GetIntPaFromStr

; 664  : 			if( pPocket->m_apItem[i].m_bCharged != 1 )

  00498	8b 8d b0 b5 ff
	ff		 mov	 ecx, DWORD PTR tv1001[ebp]
  0049e	83 c4 08	 add	 esp, 8
  004a1	89 46 7c	 mov	 DWORD PTR [esi+124], eax
  004a4	8b 47 0c	 mov	 eax, DWORD PTR [edi+12]
  004a7	83 7c 08 7c 01	 cmp	 DWORD PTR [eax+ecx+124], 1
  004ac	74 08		 je	 SHORT $LN30@GetPocket

; 665  : 				pPocket->m_apItem[i].m_bCharged		= 0;

  004ae	c7 44 08 7c 00
	00 00 00	 mov	 DWORD PTR [eax+ecx+124], 0
$LN30@GetPocket:

; 666  : 			pPocket->m_apItem[i].m_dwKeepTime	= (DWORD)GetIntPaFromStr( szExt, &nOffset );

  004b6	8b 77 0c	 mov	 esi, DWORD PTR [edi+12]
  004b9	8d 85 b8 b5 ff
	ff		 lea	 eax, DWORD PTR _nOffset$5[ebp]
  004bf	50		 push	 eax
  004c0	8d 85 a8 f3 ff
	ff		 lea	 eax, DWORD PTR _szExt$[ebp]
  004c6	03 f1		 add	 esi, ecx
  004c8	50		 push	 eax
  004c9	e8 00 00 00 00	 call	 ?GetIntPaFromStr@@YAHPADPAH@Z ; GetIntPaFromStr
  004ce	89 86 80 00 00
	00		 mov	 DWORD PTR [esi+128], eax

; 667  : 			__int64 iRandomOptItemId	= GetInt64PaFromStr( szExt, &nOffset );

  004d4	8d 85 b8 b5 ff
	ff		 lea	 eax, DWORD PTR _nOffset$5[ebp]
  004da	50		 push	 eax
  004db	8d 85 a8 f3 ff
	ff		 lea	 eax, DWORD PTR _szExt$[ebp]
  004e1	50		 push	 eax
  004e2	e8 00 00 00 00	 call	 ?GetInt64PaFromStr@@YA_JPADPAH@Z ; GetInt64PaFromStr

; 668  : #if __VER >= 15 // __PETVIS
; 669  : 			pPocket->m_apItem[i].m_bTranformVisPet = static_cast<BOOL>( GetIntPaFromStr( szExt, &nOffset ) );

  004e7	8b b5 b0 b5 ff
	ff		 mov	 esi, DWORD PTR tv1001[ebp]
  004ed	03 77 0c	 add	 esi, DWORD PTR [edi+12]
  004f0	89 85 b4 b5 ff
	ff		 mov	 DWORD PTR _iRandomOptItemId$2$[ebp], eax
  004f6	8d 85 b8 b5 ff
	ff		 lea	 eax, DWORD PTR _nOffset$5[ebp]
  004fc	50		 push	 eax
  004fd	8d 85 a8 f3 ff
	ff		 lea	 eax, DWORD PTR _szExt$[ebp]
  00503	89 95 ac b5 ff
	ff		 mov	 DWORD PTR _iRandomOptItemId$1$[ebp], edx
  00509	50		 push	 eax
  0050a	e8 00 00 00 00	 call	 ?GetIntPaFromStr@@YAHPADPAH@Z ; GetIntPaFromStr

; 670  : #endif // __PETVIS
; 671  : 			if( iRandomOptItemId == -102 )

  0050f	8b 95 ac b5 ff
	ff		 mov	 edx, DWORD PTR _iRandomOptItemId$1$[ebp]
  00515	83 c4 18	 add	 esp, 24			; 00000018H
  00518	89 86 94 00 00
	00		 mov	 DWORD PTR [esi+148], eax
  0051e	8b b5 b4 b5 ff
	ff		 mov	 esi, DWORD PTR _iRandomOptItemId$2$[ebp]
  00524	83 fe 9a	 cmp	 esi, -102		; ffffff9aH
  00527	75 1e		 jne	 SHORT $LN31@GetPocket
  00529	83 fa ff	 cmp	 edx, -1
  0052c	75 19		 jne	 SHORT $LN31@GetPocket

; 672  : 				iRandomOptItemId	= 0;

  0052e	0f 57 c0	 xorps	 xmm0, xmm0
  00531	66 0f 13 85 a8
	b5 ff ff	 movlpd	 QWORD PTR _iRandomOptItemId$2[ebp], xmm0
  00539	8b 85 a8 b5 ff
	ff		 mov	 eax, DWORD PTR _iRandomOptItemId$2[ebp]
  0053f	8b f0		 mov	 esi, eax
  00541	8b 95 ac b5 ff
	ff		 mov	 edx, DWORD PTR _iRandomOptItemId$2[ebp+4]
$LN31@GetPocket:

; 673  : 			pPocket->m_apItem[i++].SetRandomOptItemId( iRandomOptItemId );

  00547	8b 47 0c	 mov	 eax, DWORD PTR [edi+12]
  0054a	8b 8d b0 b5 ff
	ff		 mov	 ecx, DWORD PTR tv1001[ebp]
  00550	03 c1		 add	 eax, ecx
  00552	81 c1 98 00 00
	00		 add	 ecx, 152		; 00000098H
  00558	89 8d b0 b5 ff
	ff		 mov	 DWORD PTR tv1001[ebp], ecx
  0055e	89 b0 88 00 00
	00		 mov	 DWORD PTR [eax+136], esi
  00564	89 90 8c 00 00
	00		 mov	 DWORD PTR [eax+140], edx

; 674  : 			nOffset++;

  0056a	8b 85 b8 b5 ff
	ff		 mov	 eax, DWORD PTR _nOffset$5[ebp]
  00570	40		 inc	 eax
  00571	89 85 b8 b5 ff
	ff		 mov	 DWORD PTR _nOffset$5[ebp], eax
  00577	80 bc 05 a8 f3
	ff ff 24	 cmp	 BYTE PTR _szExt$[ebp+eax], 36 ; 00000024H
  0057f	0f 85 fb fe ff
	ff		 jne	 $LL8@GetPocket
$LN9@GetPocket:

; 677  : 		while( '$' != szPiercing[nOffset] )

  00585	80 bd a0 d3 ff
	ff 24		 cmp	 BYTE PTR _szPiercing$[ebp], 36 ; 00000024H
  0058c	c7 85 b8 b5 ff
	ff 00 00 00 00	 mov	 DWORD PTR _nOffset$5[ebp], 0
  00596	74 3d		 je	 SHORT $LN11@GetPocket

; 675  : 		}
; 676  : 		nOffset		= i	= 0;

  00598	33 f6		 xor	 esi, esi
  0059a	66 0f 1f 44 00
	00		 npad	 6
$LL10@GetPocket:

; 678  : 		{
; 679  : #if __VER >= 12 // __EXT_PIERCING
; 680  : 			LoadPiercingInfo( pPocket->m_apItem[i], szPiercing, &nOffset );

  005a0	8b 8d a4 b5 ff
	ff		 mov	 ecx, DWORD PTR _this$GSCopy$1$[ebp]
  005a6	8d 85 b8 b5 ff
	ff		 lea	 eax, DWORD PTR _nOffset$5[ebp]
  005ac	50		 push	 eax
  005ad	8d 85 a0 d3 ff
	ff		 lea	 eax, DWORD PTR _szPiercing$[ebp]
  005b3	50		 push	 eax
  005b4	8b 47 0c	 mov	 eax, DWORD PTR [edi+12]
  005b7	03 c6		 add	 eax, esi
  005b9	50		 push	 eax
  005ba	e8 00 00 00 00	 call	 ?LoadPiercingInfo@CDbManager@@QAEXAAVCItemElem@@PADPAH@Z ; CDbManager::LoadPiercingInfo
  005bf	8b 85 b8 b5 ff
	ff		 mov	 eax, DWORD PTR _nOffset$5[ebp]

; 681  : #else // __EXT_PIERCING
; 682  : 			pPocket->m_apItem[i].SetPiercingSize( GetIntFromStr( szPiercing, &nOffset ) );
; 683  : 			for( int j = 0; j < pPocket->m_apItem[i].GetPiercingSize(); j++ )
; 684  : 				pPocket->m_apItem[i].SetPiercingItem( j, (DWORD)GetIntFromStr( szPiercing, &nOffset ) );
; 685  : #endif // __EXT_PIERCING
; 686  : 			i++;

  005c5	81 c6 98 00 00
	00		 add	 esi, 152		; 00000098H
  005cb	80 bc 05 a0 d3
	ff ff 24	 cmp	 BYTE PTR _szPiercing$[ebp+eax], 36 ; 00000024H
  005d3	75 cb		 jne	 SHORT $LL10@GetPocket
$LN11@GetPocket:

; 689  : 		while( '$' != szPet[nOffset] )

  005d5	80 bd 40 e3 ff
	ff 24		 cmp	 BYTE PTR _szPet$[ebp], 36 ; 00000024H
  005dc	c7 85 b8 b5 ff
	ff 00 00 00 00	 mov	 DWORD PTR _nOffset$5[ebp], 0
  005e6	0f 84 15 02 00
	00		 je	 $LN13@GetPocket

; 687  : 		}
; 688  : 		nOffset		= i	= 0;

  005ec	33 f6		 xor	 esi, esi
  005ee	89 b5 b4 b5 ff
	ff		 mov	 DWORD PTR tv989[ebp], esi
  005f4	0f 1f 40 00 0f
	1f 84 00 00 00
	00 00		 npad	 12
$LL12@GetPocket:

; 690  : 		{
; 691  : 			BOOL bPet	= (BOOL)GetIntFromStr( szPet, &nOffset );

  00600	8d 85 b8 b5 ff
	ff		 lea	 eax, DWORD PTR _nOffset$5[ebp]
  00606	50		 push	 eax
  00607	8d 85 40 e3 ff
	ff		 lea	 eax, DWORD PTR _szPet$[ebp]
  0060d	50		 push	 eax
  0060e	e8 00 00 00 00	 call	 ?GetIntFromStr@@YAHPADPAH@Z ; GetIntFromStr
  00613	83 c4 08	 add	 esp, 8

; 692  : 			if( bPet )

  00616	85 c0		 test	 eax, eax
  00618	0f 84 bf 01 00
	00		 je	 $LN125@GetPocket

; 693  : 			{
; 694  : 				SAFE_DELETE( pPocket->m_apItem[i].m_pPet );

  0061e	8b 47 0c	 mov	 eax, DWORD PTR [edi+12]
  00621	8b 8c 30 90 00
	00 00		 mov	 ecx, DWORD PTR [eax+esi+144]
  00628	85 c9		 test	 ecx, ecx
  0062a	74 14		 je	 SHORT $LN33@GetPocket
  0062c	8b 01		 mov	 eax, DWORD PTR [ecx]
  0062e	6a 01		 push	 1
  00630	ff 10		 call	 DWORD PTR [eax]
  00632	8b 47 0c	 mov	 eax, DWORD PTR [edi+12]
  00635	c7 84 06 90 00
	00 00 00 00 00
	00		 mov	 DWORD PTR [esi+eax+144], 0
$LN33@GetPocket:

; 695  : 				CPet* pPet	= pPocket->m_apItem[i].m_pPet	= new CPet;

  00640	6a 28		 push	 40			; 00000028H
  00642	e8 00 00 00 00	 call	 ??2@YAPAXI@Z		; operator new
  00647	83 c4 04	 add	 esp, 4
  0064a	89 85 b0 b5 ff
	ff		 mov	 DWORD PTR $T4[ebp], eax
  00650	c7 45 fc 01 00
	00 00		 mov	 DWORD PTR __$EHRec$[ebp+8], 1
  00657	85 c0		 test	 eax, eax
  00659	74 28		 je	 SHORT $LN39@GetPocket
  0065b	8b c8		 mov	 ecx, eax
  0065d	e8 00 00 00 00	 call	 ??0CPet@@QAE@XZ		; CPet::CPet
  00662	8b f8		 mov	 edi, eax
  00664	eb 1f		 jmp	 SHORT $LN40@GetPocket
$LN83@GetPocket:

; 647  : 				{
; 648  : 					Error( "Join:Pocket:POCKET_SLOT_SIZE_1_2" );

  00666	68 00 00 00 00	 push	 OFFSET ??_C@_0CB@EAAOHIMM@Join?3Pocket?3POCKET_SLOT_SIZE_1_@
  0066b	e8 00 00 00 00	 call	 ?Error@@YAPBDPBDZZ	; Error
  00670	83 c4 04	 add	 esp, 4

; 649  : 					return FALSE;

  00673	8d 8d bc b5 ff
	ff		 lea	 ecx, DWORD PTR _itemElem$6[ebp]
  00679	e8 00 00 00 00	 call	 ??1CItemElem@@UAE@XZ	; CItemElem::~CItemElem
  0067e	e9 f5 01 00 00	 jmp	 $LN113@GetPocket
$LN39@GetPocket:

; 695  : 				CPet* pPet	= pPocket->m_apItem[i].m_pPet	= new CPet;

  00683	33 ff		 xor	 edi, edi
$LN40@GetPocket:
  00685	8b 85 a0 b5 ff
	ff		 mov	 eax, DWORD PTR _pPocket$1$[ebp]
  0068b	c7 45 fc ff ff
	ff ff		 mov	 DWORD PTR __$EHRec$[ebp+8], -1
  00692	8b 40 0c	 mov	 eax, DWORD PTR [eax+12]
  00695	89 bc 06 90 00
	00 00		 mov	 DWORD PTR [esi+eax+144], edi

; 696  : 				BYTE nKind	= (BYTE)GetIntFromStr( szPet, &nOffset );

  0069c	8d 85 b8 b5 ff
	ff		 lea	 eax, DWORD PTR _nOffset$5[ebp]
  006a2	50		 push	 eax
  006a3	8d 85 40 e3 ff
	ff		 lea	 eax, DWORD PTR _szPet$[ebp]
  006a9	50		 push	 eax
  006aa	e8 00 00 00 00	 call	 ?GetIntFromStr@@YAHPADPAH@Z ; GetIntFromStr

; 697  : 				pPet->SetKind( nKind );

  006af	88 47 04	 mov	 BYTE PTR [edi+4], al

; 698  : 				BYTE nLevel	= (BYTE)GetIntFromStr( szPet, &nOffset );

  006b2	8d 85 b8 b5 ff
	ff		 lea	 eax, DWORD PTR _nOffset$5[ebp]
  006b8	50		 push	 eax
  006b9	8d 85 40 e3 ff
	ff		 lea	 eax, DWORD PTR _szPet$[ebp]
  006bf	50		 push	 eax
  006c0	e8 00 00 00 00	 call	 ?GetIntFromStr@@YAHPADPAH@Z ; GetIntFromStr

; 699  : 				pPet->SetLevel( nLevel );

  006c5	88 47 05	 mov	 BYTE PTR [edi+5], al

; 700  : 				DWORD dwExp	= (DWORD)GetIntFromStr( szPet, &nOffset );

  006c8	8d 85 b8 b5 ff
	ff		 lea	 eax, DWORD PTR _nOffset$5[ebp]
  006ce	50		 push	 eax
  006cf	8d 85 40 e3 ff
	ff		 lea	 eax, DWORD PTR _szPet$[ebp]
  006d5	50		 push	 eax
  006d6	e8 00 00 00 00	 call	 ?GetIntFromStr@@YAHPADPAH@Z ; GetIntFromStr
  006db	83 c4 18	 add	 esp, 24			; 00000018H

; 701  : 				pPet->SetExp( dwExp );

  006de	8b cf		 mov	 ecx, edi
  006e0	50		 push	 eax
  006e1	e8 00 00 00 00	 call	 ?SetExp@CPet@@QAEXK@Z	; CPet::SetExp

; 702  : 				WORD wEnergy	= (WORD)GetIntFromStr( szPet, &nOffset );

  006e6	8d 85 b8 b5 ff
	ff		 lea	 eax, DWORD PTR _nOffset$5[ebp]
  006ec	50		 push	 eax
  006ed	8d 85 40 e3 ff
	ff		 lea	 eax, DWORD PTR _szPet$[ebp]
  006f3	50		 push	 eax
  006f4	e8 00 00 00 00	 call	 ?GetIntFromStr@@YAHPADPAH@Z ; GetIntFromStr
  006f9	83 c4 08	 add	 esp, 8
  006fc	0f b7 c0	 movzx	 eax, ax

; 703  : 				pPet->SetEnergy( wEnergy );

  006ff	8b cf		 mov	 ecx, edi
  00701	50		 push	 eax
  00702	e8 00 00 00 00	 call	 ?SetEnergy@CPet@@QAEXG@Z ; CPet::SetEnergy

; 704  : #ifdef __PET_1024
; 705  : 				WORD wLife	= (WORD)GetIntPaFromStr( szPet, &nOffset );

  00707	8d 85 b8 b5 ff
	ff		 lea	 eax, DWORD PTR _nOffset$5[ebp]
  0070d	50		 push	 eax
  0070e	8d 85 40 e3 ff
	ff		 lea	 eax, DWORD PTR _szPet$[ebp]
  00714	50		 push	 eax
  00715	e8 00 00 00 00	 call	 ?GetIntPaFromStr@@YAHPADPAH@Z ; GetIntPaFromStr
  0071a	83 c4 08	 add	 esp, 8

; 706  : 				pPet->SetLife( wLife );

  0071d	66 89 47 0e	 mov	 WORD PTR [edi+14], ax

; 707  : 				for( int j = PL_D; j <= pPet->GetLevel(); j++ )

  00721	80 7f 05 01	 cmp	 BYTE PTR [edi+5], 1
  00725	be 01 00 00 00	 mov	 esi, 1
  0072a	72 37		 jb	 SHORT $LN15@GetPocket
  0072c	0f 1f 40 00	 npad	 4
$LL16@GetPocket:

; 708  : 				{
; 709  : 					BYTE nAvailLevel	= (BYTE)GetIntPaFromStr( szPet, &nOffset );

  00730	8d 85 b8 b5 ff
	ff		 lea	 eax, DWORD PTR _nOffset$5[ebp]
  00736	50		 push	 eax
  00737	8d 85 40 e3 ff
	ff		 lea	 eax, DWORD PTR _szPet$[ebp]
  0073d	50		 push	 eax
  0073e	e8 00 00 00 00	 call	 ?GetIntPaFromStr@@YAHPADPAH@Z ; GetIntPaFromStr
  00743	83 c4 08	 add	 esp, 8
  00746	88 85 ac b5 ff
	ff		 mov	 BYTE PTR _nAvailLevel$3[ebp], al

; 710  : 					pPet->SetAvailLevel( j, nAvailLevel );

  0074c	8b cf		 mov	 ecx, edi
  0074e	ff b5 ac b5 ff
	ff		 push	 DWORD PTR _nAvailLevel$3[ebp]
  00754	56		 push	 esi
  00755	e8 00 00 00 00	 call	 ?SetAvailLevel@CPet@@QAEXEE@Z ; CPet::SetAvailLevel
  0075a	0f b6 47 05	 movzx	 eax, BYTE PTR [edi+5]
  0075e	46		 inc	 esi
  0075f	3b f0		 cmp	 esi, eax
  00761	7e cd		 jle	 SHORT $LL16@GetPocket
$LN15@GetPocket:
; File C:\IAGOS\server\v18\Source\Source\_network\CmnHdr.h

; 106  : 	while(pBuf[*pLocation]!=',' && pBuf[*pLocation]!='/' && pBuf[*pLocation]!=0) {

  00763	8b b5 b8 b5 ff
	ff		 mov	 esi, DWORD PTR _nOffset$5[ebp]
  00769	0f 57 c0	 xorps	 xmm0, xmm0

; 105  : 	int count=0;

  0076c	33 c9		 xor	 ecx, ecx
; File C:\IAGOS\server\v18\Source\Source\_Database\DbManagerFun.cpp

; 712  : 				char szFmt[MAX_PET_NAME_FMT]	= { 0,};

  0076e	c6 45 d8 00	 mov	 BYTE PTR _szFmt$7[ebp+32], 0
  00772	0f 11 45 b8	 movups	 XMMWORD PTR _szFmt$7[ebp], xmm0
; File C:\IAGOS\server\v18\Source\Source\_network\CmnHdr.h

; 106  : 	while(pBuf[*pLocation]!=',' && pBuf[*pLocation]!='/' && pBuf[*pLocation]!=0) {

  00776	8a 84 35 40 e3
	ff ff		 mov	 al, BYTE PTR _szPet$[ebp+esi]
; File C:\IAGOS\server\v18\Source\Source\_Database\DbManagerFun.cpp

; 712  : 				char szFmt[MAX_PET_NAME_FMT]	= { 0,};

  0077d	0f 11 45 c8	 movups	 XMMWORD PTR _szFmt$7[ebp+16], xmm0
; File C:\IAGOS\server\v18\Source\Source\_network\CmnHdr.h

; 106  : 	while(pBuf[*pLocation]!=',' && pBuf[*pLocation]!='/' && pBuf[*pLocation]!=0) {

  00781	3c 2c		 cmp	 al, 44			; 0000002cH
  00783	74 19		 je	 SHORT $LN61@GetPocket
$LL60@GetPocket:
  00785	3c 2f		 cmp	 al, 47			; 0000002fH
  00787	74 15		 je	 SHORT $LN61@GetPocket
  00789	84 c0		 test	 al, al
  0078b	74 11		 je	 SHORT $LN61@GetPocket

; 107  : 		strReturn[count]=pBuf[*pLocation];
; 108  : 		count++; (*pLocation)++;

  0078d	46		 inc	 esi
  0078e	88 44 0d b8	 mov	 BYTE PTR _szFmt$7[ebp+ecx], al
  00792	41		 inc	 ecx
  00793	8a 84 35 40 e3
	ff ff		 mov	 al, BYTE PTR _szPet$[ebp+esi]
  0079a	3c 2c		 cmp	 al, 44			; 0000002cH
  0079c	75 e7		 jne	 SHORT $LL60@GetPocket
$LN61@GetPocket:
; File C:\IAGOS\server\v18\Source\Source\_Database\DbManagerFun.cpp

; 715  : 				GetDBFormatStr( szName, MAX_PET_NAME, szFmt );

  0079e	8d 45 b8	 lea	 eax, DWORD PTR _szFmt$7[ebp]
; File C:\IAGOS\server\v18\Source\Source\_network\CmnHdr.h

; 110  : 	strReturn[count]=0;(*pLocation)++;

  007a1	c6 44 0d b8 00	 mov	 BYTE PTR _szFmt$7[ebp+ecx], 0
; File C:\IAGOS\server\v18\Source\Source\_Database\DbManagerFun.cpp

; 715  : 				GetDBFormatStr( szName, MAX_PET_NAME, szFmt );

  007a6	8b 8d a4 b5 ff
	ff		 mov	 ecx, DWORD PTR _this$GSCopy$1$[ebp]
  007ac	0f 57 c0	 xorps	 xmm0, xmm0
  007af	50		 push	 eax
  007b0	6a 11		 push	 17			; 00000011H
  007b2	8d 45 dc	 lea	 eax, DWORD PTR _szName$8[ebp]
  007b5	c6 45 ec 00	 mov	 BYTE PTR _szName$8[ebp+16], 0
; File C:\IAGOS\server\v18\Source\Source\_network\CmnHdr.h

; 110  : 	strReturn[count]=0;(*pLocation)++;

  007b9	46		 inc	 esi
; File C:\IAGOS\server\v18\Source\Source\_Database\DbManagerFun.cpp

; 715  : 				GetDBFormatStr( szName, MAX_PET_NAME, szFmt );

  007ba	50		 push	 eax
; File C:\IAGOS\server\v18\Source\Source\_network\CmnHdr.h

; 110  : 	strReturn[count]=0;(*pLocation)++;

  007bb	89 b5 b8 b5 ff
	ff		 mov	 DWORD PTR _nOffset$5[ebp], esi
; File C:\IAGOS\server\v18\Source\Source\_Database\DbManagerFun.cpp

; 714  : 				char szName[MAX_PET_NAME]	= { 0,};

  007c1	0f 11 45 dc	 movups	 XMMWORD PTR _szName$8[ebp], xmm0

; 715  : 				GetDBFormatStr( szName, MAX_PET_NAME, szFmt );

  007c5	e8 00 00 00 00	 call	 ?GetDBFormatStr@CDbManager@@AAEXPADHPBD@Z ; CDbManager::GetDBFormatStr

; 716  : 				pPet->SetName( szName );

  007ca	8d 45 dc	 lea	 eax, DWORD PTR _szName$8[ebp]
  007cd	8b cf		 mov	 ecx, edi
  007cf	50		 push	 eax
  007d0	e8 00 00 00 00	 call	 ?SetName@CPet@@QAEXPBD@Z ; CPet::SetName
  007d5	8b bd a0 b5 ff
	ff		 mov	 edi, DWORD PTR _pPocket$1$[ebp]
  007db	eb 06		 jmp	 SHORT $LN32@GetPocket
$LN125@GetPocket:

; 692  : 			if( bPet )

  007dd	8b b5 b8 b5 ff
	ff		 mov	 esi, DWORD PTR _nOffset$5[ebp]
$LN32@GetPocket:

; 717  : #else	// __PET_1024
; 718  : 				WORD wLife	= (WORD)GetIntFromStr( szPet, &nOffset );
; 719  : 				pPet->SetLife( wLife );
; 720  : 				for( int j = PL_D; j <= pPet->GetLevel(); j++ )
; 721  : 				{
; 722  : 					BYTE nAvailLevel	= (BYTE)GetIntFromStr( szPet, &nOffset );
; 723  : 					pPet->SetAvailLevel( j, nAvailLevel );
; 724  : 				}
; 725  : #endif	// __PET_1024
; 726  : 			}
; 727  : 			i++;

  007e3	81 85 b4 b5 ff
	ff 98 00 00 00	 add	 DWORD PTR tv989[ebp], 152 ; 00000098H
  007ed	80 bc 35 40 e3
	ff ff 24	 cmp	 BYTE PTR _szPet$[ebp+esi], 36 ; 00000024H
  007f5	8b b5 b4 b5 ff
	ff		 mov	 esi, DWORD PTR tv989[ebp]
  007fb	0f 85 ff fd ff
	ff		 jne	 $LL12@GetPocket
$LN13@GetPocket:

; 728  : 		}
; 729  : 	}
; 730  : 	return TRUE;

  00801	b8 01 00 00 00	 mov	 eax, 1
  00806	eb 72		 jmp	 SHORT $LN1@GetPocket
$LN68@GetPocket:
; File C:\IAGOS\server\v18\Source\Source\_database\DbManager.h

; 1308 : 	WriteLog( "%s, %d\t%s", lpFileName, nLine, lpName );

  00808	8d 85 78 ff ff
	ff		 lea	 eax, DWORD PTR _szPlayerName$[ebp]
  0080e	50		 push	 eax
  0080f	68 70 02 00 00	 push	 624			; 00000270H
  00814	eb 44		 jmp	 SHORT $LN130@GetPocket
$LN64@GetPocket:
  00816	8d 85 78 ff ff
	ff		 lea	 eax, DWORD PTR _szPlayerName$[ebp]
  0081c	50		 push	 eax
  0081d	68 6f 02 00 00	 push	 623			; 0000026fH
  00822	eb 36		 jmp	 SHORT $LN130@GetPocket
$LN56@GetPocket:
  00824	8d 85 78 ff ff
	ff		 lea	 eax, DWORD PTR _szPlayerName$[ebp]
  0082a	50		 push	 eax
  0082b	68 6e 02 00 00	 push	 622			; 0000026eH
  00830	eb 28		 jmp	 SHORT $LN130@GetPocket
$LN52@GetPocket:
  00832	8d 85 78 ff ff
	ff		 lea	 eax, DWORD PTR _szPlayerName$[ebp]
  00838	50		 push	 eax
  00839	68 6d 02 00 00	 push	 621			; 0000026dH
  0083e	eb 1a		 jmp	 SHORT $LN130@GetPocket
$LN48@GetPocket:
  00840	8d 85 78 ff ff
	ff		 lea	 eax, DWORD PTR _szPlayerName$[ebp]
  00846	50		 push	 eax
  00847	68 6c 02 00 00	 push	 620			; 0000026cH
  0084c	eb 0c		 jmp	 SHORT $LN130@GetPocket
$LN44@GetPocket:
  0084e	8d 85 78 ff ff
	ff		 lea	 eax, DWORD PTR _szPlayerName$[ebp]
  00854	50		 push	 eax
  00855	68 6b 02 00 00	 push	 619			; 0000026bH
$LN130@GetPocket:
; File C:\IAGOS\server\v18\Source\Source\_Database\DbManagerFun.cpp

; 731  : }

  0085a	68 00 00 00 00	 push	 OFFSET ??_C@_0DN@JBKLBOHO@C?3?2IAGOS?2server?2v18?2Source?2Sour@
  0085f	68 00 00 00 00	 push	 OFFSET ??_C@_09GBAEEKDE@?$CFs?0?5?$CFd?7?$CFs@
  00864	e8 00 00 00 00	 call	 ?WriteLog@@YAXPBDZZ	; WriteLog
  00869	83 c4 10	 add	 esp, 16			; 00000010H
  0086c	85 f6		 test	 esi, esi
  0086e	74 08		 je	 SHORT $LN113@GetPocket
  00870	56		 push	 esi
  00871	8b cf		 mov	 ecx, edi
  00873	e8 00 00 00 00	 call	 ?FreeRequest@CDbManager@@QAEXPAUtagDB_OVERLAPPED_PLUS@@@Z ; CDbManager::FreeRequest
$LN113@GetPocket:
  00878	33 c0		 xor	 eax, eax
$LN1@GetPocket:
  0087a	8b 4d f4	 mov	 ecx, DWORD PTR __$EHRec$[ebp]
  0087d	64 89 0d 00 00
	00 00		 mov	 DWORD PTR fs:0, ecx
  00884	59		 pop	 ecx
  00885	5f		 pop	 edi
  00886	5e		 pop	 esi
  00887	8b 4d f0	 mov	 ecx, DWORD PTR __$ArrayPad$[ebp]
  0088a	33 cd		 xor	 ecx, ebp
  0088c	e8 00 00 00 00	 call	 @__security_check_cookie@4
  00891	8b e5		 mov	 esp, ebp
  00893	5d		 pop	 ebp
  00894	c2 0c 00	 ret	 12			; 0000000cH
_TEXT	ENDS
;	COMDAT text$x
text$x	SEGMENT
__unwindfunclet$?GetPocket@CDbManager@@QAEHPAVCMover@@PAVCQuery@@PAUtagDB_OVERLAPPED_PLUS@@@Z$0:
  00000	8d 8d bc b5 ff
	ff		 lea	 ecx, DWORD PTR _itemElem$6[ebp]
  00006	e9 00 00 00 00	 jmp	 ??1CItemElem@@UAE@XZ	; CItemElem::~CItemElem
__unwindfunclet$?GetPocket@CDbManager@@QAEHPAVCMover@@PAVCQuery@@PAUtagDB_OVERLAPPED_PLUS@@@Z$1:
  0000b	6a 28		 push	 40			; 00000028H
  0000d	8b 85 b0 b5 ff
	ff		 mov	 eax, DWORD PTR $T4[ebp]
  00013	50		 push	 eax
  00014	e8 00 00 00 00	 call	 ??3@YAXPAXI@Z		; operator delete
  00019	83 c4 08	 add	 esp, 8
  0001c	c3		 ret	 0
  0001d	cc		 int	 3
  0001e	cc		 int	 3
  0001f	cc		 int	 3
  00020	cc		 int	 3
  00021	cc		 int	 3
__ehhandler$?GetPocket@CDbManager@@QAEHPAVCMover@@PAVCQuery@@PAUtagDB_OVERLAPPED_PLUS@@@Z:
  00022	90		 npad	 1
  00023	90		 npad	 1
  00024	8b 54 24 08	 mov	 edx, DWORD PTR [esp+8]
  00028	8d 42 0c	 lea	 eax, DWORD PTR [edx+12]
  0002b	8b 8a a0 b5 ff
	ff		 mov	 ecx, DWORD PTR [edx-19040]
  00031	33 c8		 xor	 ecx, eax
  00033	e8 00 00 00 00	 call	 @__security_check_cookie@4
  00038	8b 4a fc	 mov	 ecx, DWORD PTR [edx-4]
  0003b	33 c8		 xor	 ecx, eax
  0003d	e8 00 00 00 00	 call	 @__security_check_cookie@4
  00042	b8 00 00 00 00	 mov	 eax, OFFSET __ehfuncinfo$?GetPocket@CDbManager@@QAEHPAVCMover@@PAVCQuery@@PAUtagDB_OVERLAPPED_PLUS@@@Z
  00047	e9 00 00 00 00	 jmp	 ___CxxFrameHandler3
text$x	ENDS
?GetPocket@CDbManager@@QAEHPAVCMover@@PAVCQuery@@PAUtagDB_OVERLAPPED_PLUS@@@Z ENDP ; CDbManager::GetPocket
; Function compile flags: /Ogtp
; File C:\IAGOS\server\v18\Source\Source\_Database\DbManagerFun.cpp
; File C:\IAGOS\server\v18\Source\Source\_Network\Objects\Obj.h
; File C:\IAGOS\server\v18\Source\Source\_Common\Data.h
; File C:\IAGOS\server\v18\Source\Source\_Database\DbManagerFun.cpp
; File C:\IAGOS\server\v18\Source\Source\_Common\ProjectCmn.h
; File C:\IAGOS\server\v18\Source\Source\_Database\DbManagerFun.cpp
; File C:\IAGOS\server\v18\Source\Source\_Network\Objects\Obj.h
; File C:\IAGOS\server\v18\Source\Source\_Database\DbManagerFun.cpp
; File C:\IAGOS\server\v18\Source\Source\_Network\Objects\Obj.h
; File C:\IAGOS\server\v18\Source\Source\_Database\DbManagerFun.cpp
; File C:\IAGOS\server\v18\Source\Source\_Network\Objects\Obj.h
; File C:\IAGOS\server\v18\Source\Source\_Database\DbManagerFun.cpp
; File C:\IAGOS\server\v18\Source\Source\_Network\Objects\Obj.h
; File C:\IAGOS\server\v18\Source\Source\_Database\DbManagerFun.cpp
; File C:\IAGOS\server\v18\Source\Source\_Network\Objects\Obj.h
; File C:\IAGOS\server\v18\Source\Source\_Database\DbManagerFun.cpp
; File C:\IAGOS\server\v18\Source\Source\_Network\Objects\Obj.h
; File C:\IAGOS\server\v18\Source\Source\_Database\DbManagerFun.cpp
; File C:\IAGOS\server\v18\Source\Source\_Network\Objects\Obj.h
; File C:\IAGOS\server\v18\Source\Source\_Database\DbManagerFun.cpp
; File C:\IAGOS\server\v18\Source\Source\_Network\Objects\Obj.h
; File C:\IAGOS\server\v18\Source\Source\_Database\DbManagerFun.cpp
; File C:\IAGOS\server\v18\Source\Source\_Network\Objects\Obj.h
; File C:\IAGOS\server\v18\Source\Source\_Database\DbManagerFun.cpp
; File C:\IAGOS\server\v18\Source\Source\_Network\Objects\Obj.h
; File C:\IAGOS\server\v18\Source\Source\_Database\DbManagerFun.cpp
;	COMDAT ?GetPiercingInfoFromMail@CDbManager@@QAEXPAVCQuery@@PAVCItemElem@@@Z
_TEXT	SEGMENT
_nAddCount$1$ = -40					; size = 4
_i$1$ = -40						; size = 4
_szItem$1 = -36						; size = 32
_szItem$2 = -36						; size = 32
__$ArrayPad$ = -4					; size = 4
_pQuery$ = 8						; size = 4
_pItemElem$ = 12					; size = 4
?GetPiercingInfoFromMail@CDbManager@@QAEXPAVCQuery@@PAVCItemElem@@@Z PROC ; CDbManager::GetPiercingInfoFromMail, COMDAT
; _this$ = ecx

; 918  : {

  00000	55		 push	 ebp
  00001	8b ec		 mov	 ebp, esp
  00003	83 ec 28	 sub	 esp, 40			; 00000028H
  00006	a1 00 00 00 00	 mov	 eax, DWORD PTR ___security_cookie
  0000b	33 c5		 xor	 eax, ebp
  0000d	89 45 fc	 mov	 DWORD PTR __$ArrayPad$[ebp], eax
  00010	53		 push	 ebx
  00011	8b 5d 08	 mov	 ebx, DWORD PTR _pQuery$[ebp]
  00014	56		 push	 esi
  00015	57		 push	 edi
  00016	8b 7d 0c	 mov	 edi, DWORD PTR _pItemElem$[ebp]

; 919  : 	int nAddCount = 1;

  00019	c7 45 d8 01 00
	00 00		 mov	 DWORD PTR _nAddCount$1$[ebp], 1
; File C:\IAGOS\server\v18\Source\Source\_Network\Objects\Obj.h

; 164  : 	ItemProp*	GetProp()	{	return prj.GetItemProp( m_dwItemId );	}

  00020	8b 4f 08	 mov	 ecx, DWORD PTR [edi+8]
; File C:\IAGOS\server\v18\Source\Source\_Common\Data.h

; 270  : 	if( dwIndex >= (DWORD)m_nMaxIndex )

  00023	3b 0d 4c 00 00
	00		 cmp	 ecx, DWORD PTR ?prj@@3VCProject@@A+76
  00029	0f 83 96 00 00
	00		 jae	 $LN8@GetPiercin

; 271  : 		return NULL;
; 272  : 	return (T*) m_apOffset[ dwIndex ];

  0002f	a1 3c 00 00 00	 mov	 eax, DWORD PTR ?prj@@3VCProject@@A+60
  00034	8b 04 88	 mov	 eax, DWORD PTR [eax+ecx*4]
; File C:\IAGOS\server\v18\Source\Source\_Database\DbManagerFun.cpp

; 920  : 	if( pItemElem->GetProp() && pItemElem->GetProp()->IsUltimate() )

  00037	85 c0		 test	 eax, eax
  00039	0f 84 86 00 00
	00		 je	 $LN8@GetPiercin
; File C:\IAGOS\server\v18\Source\Source\_Common\ProjectCmn.h

; 434  : 			return( 

  0003f	8b 48 74	 mov	 ecx, DWORD PTR [eax+116]
  00042	83 f9 02	 cmp	 ecx, 2
  00045	74 05		 je	 SHORT $LN27@GetPiercin
  00047	83 f9 03	 cmp	 ecx, 3
  0004a	75 79		 jne	 SHORT $LN8@GetPiercin
$LN27@GetPiercin:
  0004c	83 b8 d0 01 00
	00 02		 cmp	 DWORD PTR [eax+464], 2
  00053	75 70		 jne	 SHORT $LN8@GetPiercin
; File C:\IAGOS\server\v18\Source\Source\_Database\DbManagerFun.cpp

; 922  : 		pItemElem->SetUltimatePiercingSize( pQuery->GetInt( "nPiercedSize" ) );

  00055	68 00 00 00 00	 push	 OFFSET ??_C@_0N@JGBJEPOF@nPiercedSize@
  0005a	8b cb		 mov	 ecx, ebx
  0005c	e8 00 00 00 00	 call	 ?GetInt@CQuery@@QAEHPAD@Z ; CQuery::GetInt
; File C:\IAGOS\server\v18\Source\Source\_Network\Objects\Obj.h

; 159  : 	void	SetUltimatePiercingSize( int nSize )	{	m_piercing.SetUltimatePiercingSize( nSize );	}

  00061	83 c7 34	 add	 edi, 52			; 00000034H
  00064	50		 push	 eax
  00065	8b cf		 mov	 ecx, edi
  00067	e8 00 00 00 00	 call	 ?SetUltimatePiercingSize@CPiercing@@QAEXH@Z ; CPiercing::SetUltimatePiercingSize
; File C:\IAGOS\server\v18\Source\Source\_Database\DbManagerFun.cpp

; 923  : 		for( int i=0; i<pItemElem->GetUltimatePiercingSize(); i++ )

  0006c	33 f6		 xor	 esi, esi
; File C:\IAGOS\server\v18\Source\Source\_Network\Objects\Obj.h

; 160  : 	int		GetUltimatePiercingSize()	{	return m_piercing.GetUltimatePiercingSize();		}

  0006e	8b cf		 mov	 ecx, edi
; File C:\IAGOS\server\v18\Source\Source\_Database\DbManagerFun.cpp

; 923  : 		for( int i=0; i<pItemElem->GetUltimatePiercingSize(); i++ )

  00070	89 75 d8	 mov	 DWORD PTR _i$1$[ebp], esi
; File C:\IAGOS\server\v18\Source\Source\_Network\Objects\Obj.h

; 160  : 	int		GetUltimatePiercingSize()	{	return m_piercing.GetUltimatePiercingSize();		}

  00073	e8 00 00 00 00	 call	 ?GetUltimatePiercingSize@CPiercing@@QAEHXZ ; CPiercing::GetUltimatePiercingSize
; File C:\IAGOS\server\v18\Source\Source\_Database\DbManagerFun.cpp

; 923  : 		for( int i=0; i<pItemElem->GetUltimatePiercingSize(); i++ )

  00078	85 c0		 test	 eax, eax
  0007a	7e 3b		 jle	 SHORT $LN3@GetPiercin
  0007c	0f 1f 40 00	 npad	 4
$LL4@GetPiercin:

; 924  : 		{
; 925  : 			char szItem[32];
; 926  : 			sprintf( szItem, "dwItemId%d", i + nAddCount );

  00080	46		 inc	 esi
  00081	8d 45 dc	 lea	 eax, DWORD PTR _szItem$1[ebp]
  00084	56		 push	 esi
  00085	68 00 00 00 00	 push	 OFFSET ??_C@_0L@IJJPBAHM@dwItemId?$CFd@
  0008a	50		 push	 eax
  0008b	e8 00 00 00 00	 call	 _sprintf
  00090	83 c4 0c	 add	 esp, 12			; 0000000cH

; 927  : 			pItemElem->SetUltimatePiercingItem( i, pQuery->GetInt( szItem ) );

  00093	8d 45 dc	 lea	 eax, DWORD PTR _szItem$1[ebp]
  00096	8b cb		 mov	 ecx, ebx
  00098	50		 push	 eax
  00099	e8 00 00 00 00	 call	 ?GetInt@CQuery@@QAEHPAD@Z ; CQuery::GetInt
; File C:\IAGOS\server\v18\Source\Source\_Network\Objects\Obj.h

; 161  : 	void	SetUltimatePiercingItem( int nth, DWORD dwItem )	{	m_piercing.SetUltimatePiercingItem( nth, dwItem );	}

  0009e	50		 push	 eax
  0009f	ff 75 d8	 push	 DWORD PTR _i$1$[ebp]
  000a2	8b cf		 mov	 ecx, edi
  000a4	e8 00 00 00 00	 call	 ?SetUltimatePiercingItem@CPiercing@@QAEXHK@Z ; CPiercing::SetUltimatePiercingItem

; 160  : 	int		GetUltimatePiercingSize()	{	return m_piercing.GetUltimatePiercingSize();		}

  000a9	8b cf		 mov	 ecx, edi
; File C:\IAGOS\server\v18\Source\Source\_Database\DbManagerFun.cpp

; 923  : 		for( int i=0; i<pItemElem->GetUltimatePiercingSize(); i++ )

  000ab	89 75 d8	 mov	 DWORD PTR _i$1$[ebp], esi
; File C:\IAGOS\server\v18\Source\Source\_Network\Objects\Obj.h

; 160  : 	int		GetUltimatePiercingSize()	{	return m_piercing.GetUltimatePiercingSize();		}

  000ae	e8 00 00 00 00	 call	 ?GetUltimatePiercingSize@CPiercing@@QAEHXZ ; CPiercing::GetUltimatePiercingSize
; File C:\IAGOS\server\v18\Source\Source\_Database\DbManagerFun.cpp

; 923  : 		for( int i=0; i<pItemElem->GetUltimatePiercingSize(); i++ )

  000b3	3b f0		 cmp	 esi, eax
  000b5	7c c9		 jl	 SHORT $LL4@GetPiercin
$LN3@GetPiercin:

; 928  : 		}
; 929  : 		pItemElem->SetPiercingSize( pQuery->GetInt( "nPiercedSize2" ) );
; 930  : 		nAddCount = 6;

  000b7	c7 45 d8 06 00
	00 00		 mov	 DWORD PTR _nAddCount$1$[ebp], 6
  000be	b8 00 00 00 00	 mov	 eax, OFFSET ??_C@_0O@DNIGFLMJ@nPiercedSize2@

; 931  : 	}

  000c3	eb 08		 jmp	 SHORT $LN59@GetPiercin
$LN8@GetPiercin:
; File C:\IAGOS\server\v18\Source\Source\_Network\Objects\Obj.h

; 150  : 	void	SetPiercingSize( int nSize )	{	m_piercing.SetPiercingSize( nSize ); }

  000c5	83 c7 34	 add	 edi, 52			; 00000034H
  000c8	b8 00 00 00 00	 mov	 eax, OFFSET ??_C@_0N@JGBJEPOF@nPiercedSize@
$LN59@GetPiercin:
; File C:\IAGOS\server\v18\Source\Source\_Database\DbManagerFun.cpp

; 935  : 	for( int i=0; i<pItemElem->GetPiercingSize(); i++ )

  000cd	8b cb		 mov	 ecx, ebx
  000cf	50		 push	 eax
  000d0	e8 00 00 00 00	 call	 ?GetInt@CQuery@@QAEHPAD@Z ; CQuery::GetInt
  000d5	50		 push	 eax
  000d6	8b cf		 mov	 ecx, edi
  000d8	e8 00 00 00 00	 call	 ?SetPiercingSize@CPiercing@@QAEXH@Z ; CPiercing::SetPiercingSize
; File C:\IAGOS\server\v18\Source\Source\_Network\Objects\Obj.h

; 151  : 	int		GetPiercingSize()	{	return m_piercing.GetPiercingSize();		}

  000dd	8b cf		 mov	 ecx, edi
; File C:\IAGOS\server\v18\Source\Source\_Database\DbManagerFun.cpp

; 935  : 	for( int i=0; i<pItemElem->GetPiercingSize(); i++ )

  000df	33 f6		 xor	 esi, esi
; File C:\IAGOS\server\v18\Source\Source\_Network\Objects\Obj.h

; 151  : 	int		GetPiercingSize()	{	return m_piercing.GetPiercingSize();		}

  000e1	e8 00 00 00 00	 call	 ?GetPiercingSize@CPiercing@@QAEHXZ ; CPiercing::GetPiercingSize
; File C:\IAGOS\server\v18\Source\Source\_Database\DbManagerFun.cpp

; 935  : 	for( int i=0; i<pItemElem->GetPiercingSize(); i++ )

  000e6	85 c0		 test	 eax, eax
  000e8	7e 3d		 jle	 SHORT $LN6@GetPiercin
  000ea	66 0f 1f 44 00
	00		 npad	 6
$LL7@GetPiercin:

; 936  : 	{
; 937  : 		char szItem[32];
; 938  : 		sprintf( szItem, "dwItemId%d", i + nAddCount );

  000f0	8b 45 d8	 mov	 eax, DWORD PTR _nAddCount$1$[ebp]
  000f3	03 c6		 add	 eax, esi
  000f5	50		 push	 eax
  000f6	8d 45 dc	 lea	 eax, DWORD PTR _szItem$2[ebp]
  000f9	68 00 00 00 00	 push	 OFFSET ??_C@_0L@IJJPBAHM@dwItemId?$CFd@
  000fe	50		 push	 eax
  000ff	e8 00 00 00 00	 call	 _sprintf
  00104	83 c4 0c	 add	 esp, 12			; 0000000cH

; 939  : 		pItemElem->SetPiercingItem( i, pQuery->GetInt( szItem ) );

  00107	8d 45 dc	 lea	 eax, DWORD PTR _szItem$2[ebp]
  0010a	8b cb		 mov	 ecx, ebx
  0010c	50		 push	 eax
  0010d	e8 00 00 00 00	 call	 ?GetInt@CQuery@@QAEHPAD@Z ; CQuery::GetInt
; File C:\IAGOS\server\v18\Source\Source\_Network\Objects\Obj.h

; 152  : 	void	SetPiercingItem( int nth, DWORD dwItem)	{	m_piercing.SetPiercingItem( nth, dwItem );	}

  00112	50		 push	 eax
  00113	56		 push	 esi
  00114	8b cf		 mov	 ecx, edi
  00116	e8 00 00 00 00	 call	 ?SetPiercingItem@CPiercing@@QAEXHK@Z ; CPiercing::SetPiercingItem

; 151  : 	int		GetPiercingSize()	{	return m_piercing.GetPiercingSize();		}

  0011b	8b cf		 mov	 ecx, edi
; File C:\IAGOS\server\v18\Source\Source\_Database\DbManagerFun.cpp

; 935  : 	for( int i=0; i<pItemElem->GetPiercingSize(); i++ )

  0011d	46		 inc	 esi
; File C:\IAGOS\server\v18\Source\Source\_Network\Objects\Obj.h

; 151  : 	int		GetPiercingSize()	{	return m_piercing.GetPiercingSize();		}

  0011e	e8 00 00 00 00	 call	 ?GetPiercingSize@CPiercing@@QAEHXZ ; CPiercing::GetPiercingSize
; File C:\IAGOS\server\v18\Source\Source\_Database\DbManagerFun.cpp

; 935  : 	for( int i=0; i<pItemElem->GetPiercingSize(); i++ )

  00123	3b f0		 cmp	 esi, eax
  00125	7c c9		 jl	 SHORT $LL7@GetPiercin
$LN6@GetPiercin:

; 940  : 	}
; 941  : }

  00127	8b 4d fc	 mov	 ecx, DWORD PTR __$ArrayPad$[ebp]
  0012a	5f		 pop	 edi
  0012b	5e		 pop	 esi
  0012c	33 cd		 xor	 ecx, ebp
  0012e	5b		 pop	 ebx
  0012f	e8 00 00 00 00	 call	 @__security_check_cookie@4
  00134	8b e5		 mov	 esp, ebp
  00136	5d		 pop	 ebp
  00137	c2 08 00	 ret	 8
?GetPiercingInfoFromMail@CDbManager@@QAEXPAVCQuery@@PAVCItemElem@@@Z ENDP ; CDbManager::GetPiercingInfoFromMail
_TEXT	ENDS
; Function compile flags: /Ogtp
; File C:\IAGOS\server\v18\Source\Source\_Database\DbManagerFun.cpp
; File C:\IAGOS\server\v18\Source\Source\_Network\Objects\Obj.h
; File C:\IAGOS\server\v18\Source\Source\_Database\DbManagerFun.cpp
; File C:\IAGOS\server\v18\Source\Source\_Common\Data.h
; File C:\IAGOS\server\v18\Source\Source\_Database\DbManagerFun.cpp
; File C:\IAGOS\server\v18\Source\Source\_Common\ProjectCmn.h
; File C:\IAGOS\server\v18\Source\Source\_Database\DbManagerFun.cpp
; File C:\IAGOS\server\v18\Source\Source\_Network\Objects\Obj.h
; File C:\IAGOS\server\v18\Source\Source\_Database\DbManagerFun.cpp
; File C:\IAGOS\server\v18\Source\Source\_Network\Objects\Obj.h
; File C:\IAGOS\server\v18\Source\Source\_Database\DbManagerFun.cpp
; File C:\IAGOS\server\v18\Source\Source\_Network\Objects\Obj.h
; File C:\IAGOS\server\v18\Source\Source\_Database\DbManagerFun.cpp
; File C:\IAGOS\server\v18\Source\Source\_network\CmnHdr.h
; File C:\IAGOS\server\v18\Source\Source\_Network\Objects\Obj.h
; File C:\IAGOS\server\v18\Source\Source\_Database\DbManagerFun.cpp
; File C:\IAGOS\server\v18\Source\Source\_Network\Objects\Obj.h
; File C:\IAGOS\server\v18\Source\Source\_Database\DbManagerFun.cpp
; File C:\IAGOS\server\v18\Source\Source\_Network\Objects\Obj.h
; File C:\IAGOS\server\v18\Source\Source\_Database\DbManagerFun.cpp
; File C:\IAGOS\server\v18\Source\Source\_Network\Objects\Obj.h
; File C:\IAGOS\server\v18\Source\Source\_Database\DbManagerFun.cpp
; File C:\IAGOS\server\v18\Source\Source\_Network\Objects\Obj.h
; File C:\IAGOS\server\v18\Source\Source\_Database\DbManagerFun.cpp
; File C:\IAGOS\server\v18\Source\Source\_network\CmnHdr.h
; File C:\IAGOS\server\v18\Source\Source\_Network\Objects\Obj.h
; File C:\IAGOS\server\v18\Source\Source\_network\CmnHdr.h
; File C:\IAGOS\server\v18\Source\Source\_Network\Objects\Obj.h
; File C:\IAGOS\server\v18\Source\Source\_Database\DbManagerFun.cpp
; File C:\IAGOS\server\v18\Source\Source\_Network\Objects\Obj.h
; File C:\IAGOS\server\v18\Source\Source\_Database\DbManagerFun.cpp
; File C:\IAGOS\server\v18\Source\Source\_Network\Objects\Obj.h
; File C:\IAGOS\server\v18\Source\Source\_Common\Data.h
; File C:\IAGOS\server\v18\Source\Source\_Network\Objects\Obj.h
; File C:\IAGOS\server\v18\Source\Source\_Common\ProjectCmn.h
; File C:\IAGOS\server\v18\Source\Source\_Network\Objects\Obj.h
; File C:\Program Files\Microsoft Visual Studio\2022\Professional\VC\Tools\MSVC\14.44.35207\include\vector
; File C:\IAGOS\server\v18\Source\Source\_Common\Piercing.h
; File C:\Program Files\Microsoft Visual Studio\2022\Professional\VC\Tools\MSVC\14.44.35207\include\vector
; File C:\IAGOS\server\v18\Source\Source\_Common\Piercing.h
; File C:\Program Files\Microsoft Visual Studio\2022\Professional\VC\Tools\MSVC\14.44.35207\include\vector
; File C:\IAGOS\server\v18\Source\Source\_Common\Piercing.h
; File C:\Program Files\Microsoft Visual Studio\2022\Professional\VC\Tools\MSVC\14.44.35207\include\vector
; File C:\IAGOS\server\v18\Source\Source\_Network\Objects\Obj.h
; File C:\IAGOS\server\v18\Source\Source\_Database\DbManagerFun.cpp
; File C:\IAGOS\server\v18\Source\Source\_Network\Objects\Obj.h
; File C:\IAGOS\server\v18\Source\Source\_Database\DbManagerFun.cpp
; File C:\IAGOS\server\v18\Source\Source\_network\CmnHdr.h
; File C:\IAGOS\server\v18\Source\Source\_Network\Objects\Obj.h
; File C:\IAGOS\server\v18\Source\Source\_network\CmnHdr.h
; File C:\IAGOS\server\v18\Source\Source\_Network\Objects\Obj.h
; File C:\IAGOS\server\v18\Source\Source\_network\CmnHdr.h
; File C:\IAGOS\server\v18\Source\Source\_Network\Objects\Obj.h
; File C:\IAGOS\server\v18\Source\Source\_Database\DbManagerFun.cpp
; File C:\IAGOS\server\v18\Source\Source\_Network\Objects\Obj.h
; File C:\IAGOS\server\v18\Source\Source\_Database\DbManagerFun.cpp
; File C:\IAGOS\server\v18\Source\Source\_network\CmnHdr.h
; File C:\IAGOS\server\v18\Source\Source\_Database\DbManagerFun.cpp
;	COMDAT ?LoadPiercingInfo@CDbManager@@QAEXAAVCItemElem@@PADPAH@Z
_TEXT	SEGMENT
$T1 = -64						; size = 4
_i$1$ = -64						; size = 4
_i$1$ = -64						; size = 4
_itemElem$GSCopy$1$ = -60				; size = 4
_strTemp$2 = -56					; size = 50
_strTemp$3 = -56					; size = 50
_strTemp$4 = -56					; size = 50
__$ArrayPad$ = -4					; size = 4
_itemElem$ = 8						; size = 4
_szPirecingInven$ = 12					; size = 4
_pLocation$ = 16					; size = 4
?LoadPiercingInfo@CDbManager@@QAEXAAVCItemElem@@PADPAH@Z PROC ; CDbManager::LoadPiercingInfo, COMDAT
; _this$ = ecx

; 892  : {

  00000	55		 push	 ebp
  00001	8b ec		 mov	 ebp, esp
  00003	83 ec 40	 sub	 esp, 64			; 00000040H
  00006	a1 00 00 00 00	 mov	 eax, DWORD PTR ___security_cookie
  0000b	33 c5		 xor	 eax, ebp
  0000d	89 45 fc	 mov	 DWORD PTR __$ArrayPad$[ebp], eax
  00010	8b 45 08	 mov	 eax, DWORD PTR _itemElem$[ebp]
  00013	53		 push	 ebx
  00014	8b 5d 10	 mov	 ebx, DWORD PTR _pLocation$[ebp]
  00017	56		 push	 esi
; File C:\IAGOS\server\v18\Source\Source\_Network\Objects\Obj.h

; 164  : 	ItemProp*	GetProp()	{	return prj.GetItemProp( m_dwItemId );	}

  00018	8b 48 08	 mov	 ecx, DWORD PTR [eax+8]
; File C:\IAGOS\server\v18\Source\Source\_Database\DbManagerFun.cpp

; 892  : {

  0001b	8b 75 0c	 mov	 esi, DWORD PTR _szPirecingInven$[ebp]
  0001e	57		 push	 edi
  0001f	89 45 c4	 mov	 DWORD PTR _itemElem$GSCopy$1$[ebp], eax
; File C:\IAGOS\server\v18\Source\Source\_Common\Data.h

; 270  : 	if( dwIndex >= (DWORD)m_nMaxIndex )

  00022	3b 0d 4c 00 00
	00		 cmp	 ecx, DWORD PTR ?prj@@3VCProject@@A+76
  00028	0f 83 ba 00 00
	00		 jae	 $LN3@LoadPierci

; 271  : 		return NULL;
; 272  : 	return (T*) m_apOffset[ dwIndex ];

  0002e	a1 3c 00 00 00	 mov	 eax, DWORD PTR ?prj@@3VCProject@@A+60
  00033	8b 04 88	 mov	 eax, DWORD PTR [eax+ecx*4]
; File C:\IAGOS\server\v18\Source\Source\_Database\DbManagerFun.cpp

; 894  : 	if( itemProp && itemProp->IsUltimate() )

  00036	85 c0		 test	 eax, eax
  00038	0f 84 aa 00 00
	00		 je	 $LN3@LoadPierci
; File C:\IAGOS\server\v18\Source\Source\_Common\ProjectCmn.h

; 434  : 			return( 

  0003e	8b 48 74	 mov	 ecx, DWORD PTR [eax+116]
  00041	83 f9 02	 cmp	 ecx, 2
  00044	74 09		 je	 SHORT $LN111@LoadPierci
  00046	83 f9 03	 cmp	 ecx, 3
  00049	0f 85 99 00 00
	00		 jne	 $LN3@LoadPierci
$LN111@LoadPierci:
  0004f	83 b8 d0 01 00
	00 02		 cmp	 DWORD PTR [eax+464], 2
  00056	0f 85 8c 00 00
	00		 jne	 $LN3@LoadPierci
; File C:\IAGOS\server\v18\Source\Source\_Database\DbManagerFun.cpp

; 896  : 		itemElem.SetUltimatePiercingSize( GetIntPaFromStr( szPirecingInven, pLocation ) );

  0005c	53		 push	 ebx
  0005d	56		 push	 esi
  0005e	e8 00 00 00 00	 call	 ?GetIntPaFromStr@@YAHPADPAH@Z ; GetIntPaFromStr
; File C:\IAGOS\server\v18\Source\Source\_Network\Objects\Obj.h

; 159  : 	void	SetUltimatePiercingSize( int nSize )	{	m_piercing.SetUltimatePiercingSize( nSize );	}

  00063	8b 4d c4	 mov	 ecx, DWORD PTR _itemElem$GSCopy$1$[ebp]
; File C:\IAGOS\server\v18\Source\Source\_Database\DbManagerFun.cpp

; 896  : 		itemElem.SetUltimatePiercingSize( GetIntPaFromStr( szPirecingInven, pLocation ) );

  00066	83 c4 08	 add	 esp, 8
; File C:\IAGOS\server\v18\Source\Source\_Network\Objects\Obj.h

; 159  : 	void	SetUltimatePiercingSize( int nSize )	{	m_piercing.SetUltimatePiercingSize( nSize );	}

  00069	83 c1 34	 add	 ecx, 52			; 00000034H
  0006c	50		 push	 eax
  0006d	e8 00 00 00 00	 call	 ?SetUltimatePiercingSize@CPiercing@@QAEXH@Z ; CPiercing::SetUltimatePiercingSize

; 160  : 	int		GetUltimatePiercingSize()	{	return m_piercing.GetUltimatePiercingSize();		}

  00072	8b 4d c4	 mov	 ecx, DWORD PTR _itemElem$GSCopy$1$[ebp]
; File C:\IAGOS\server\v18\Source\Source\_Database\DbManagerFun.cpp

; 897  : 		for( int i = 0 ; i < itemElem.GetUltimatePiercingSize(); ++i )

  00075	33 ff		 xor	 edi, edi
; File C:\IAGOS\server\v18\Source\Source\_Network\Objects\Obj.h

; 160  : 	int		GetUltimatePiercingSize()	{	return m_piercing.GetUltimatePiercingSize();		}

  00077	8d 49 34	 lea	 ecx, DWORD PTR [ecx+52]
  0007a	e8 00 00 00 00	 call	 ?GetUltimatePiercingSize@CPiercing@@QAEHXZ ; CPiercing::GetUltimatePiercingSize
; File C:\IAGOS\server\v18\Source\Source\_Database\DbManagerFun.cpp

; 897  : 		for( int i = 0 ; i < itemElem.GetUltimatePiercingSize(); ++i )

  0007f	85 c0		 test	 eax, eax
  00081	7e 65		 jle	 SHORT $LN3@LoadPierci
$LL4@LoadPierci:
; File C:\IAGOS\server\v18\Source\Source\_network\CmnHdr.h

; 149  : 	while(pBuf[*pLocation]!=',' && pBuf[*pLocation]!=0)

  00083	8b 03		 mov	 eax, DWORD PTR [ebx]
  00085	33 d2		 xor	 edx, edx
  00087	80 3c 30 2c	 cmp	 BYTE PTR [eax+esi], 44	; 0000002cH
  0008b	74 2a		 je	 SHORT $LN148@LoadPierci
  0008d	0f 1f 00	 npad	 3
$LL89@LoadPierci:
  00090	8a 0c 06	 mov	 cl, BYTE PTR [esi+eax]
  00093	84 c9		 test	 cl, cl
  00095	74 17		 je	 SHORT $LN90@LoadPierci

; 150  : 	{
; 151  : 		if( pBuf[*pLocation]!='/' )

  00097	80 f9 2f	 cmp	 cl, 47			; 0000002fH
  0009a	0f 84 e1 01 00
	00		 je	 $LN91@LoadPierci

; 152  : 		{
; 153  : 			strTemp[count]=pBuf[*pLocation];
; 154  : 			count++; (*pLocation)++;

  000a0	40		 inc	 eax
  000a1	88 4c 15 c8	 mov	 BYTE PTR _strTemp$4[ebp+edx], cl
  000a5	42		 inc	 edx
  000a6	89 03		 mov	 DWORD PTR [ebx], eax
  000a8	80 3c 30 2c	 cmp	 BYTE PTR [eax+esi], 44	; 0000002cH
  000ac	75 e2		 jne	 SHORT $LL89@LoadPierci
$LN90@LoadPierci:

; 165  : 				return atoi(strTemp);
; 166  : 			}
; 167  : 		}
; 168  : 	}
; 169  : 	strTemp[count]=0;(*pLocation)++;

  000ae	83 fa 32	 cmp	 edx, 50			; 00000032H
  000b1	0f 83 de 01 00
	00		 jae	 $LN98@LoadPierci
$LN148@LoadPierci:
  000b7	40		 inc	 eax
  000b8	89 03		 mov	 DWORD PTR [ebx], eax
$LN180@LoadPierci:
; File C:\IAGOS\server\v18\Source\Source\_Network\Objects\Obj.h

; 161  : 	void	SetUltimatePiercingItem( int nth, DWORD dwItem )	{	m_piercing.SetUltimatePiercingItem( nth, dwItem );	}

  000ba	8d 45 c8	 lea	 eax, DWORD PTR _strTemp$4[ebp]
  000bd	c6 44 15 c8 00	 mov	 BYTE PTR _strTemp$4[ebp+edx], 0
  000c2	50		 push	 eax
  000c3	e8 00 00 00 00	 call	 _atoi
  000c8	83 c4 04	 add	 esp, 4
$LN88@LoadPierci:
  000cb	8b 4d c4	 mov	 ecx, DWORD PTR _itemElem$GSCopy$1$[ebp]
  000ce	50		 push	 eax
  000cf	57		 push	 edi
  000d0	8d 49 34	 lea	 ecx, DWORD PTR [ecx+52]
  000d3	e8 00 00 00 00	 call	 ?SetUltimatePiercingItem@CPiercing@@QAEXHK@Z ; CPiercing::SetUltimatePiercingItem

; 160  : 	int		GetUltimatePiercingSize()	{	return m_piercing.GetUltimatePiercingSize();		}

  000d8	8b 4d c4	 mov	 ecx, DWORD PTR _itemElem$GSCopy$1$[ebp]
; File C:\IAGOS\server\v18\Source\Source\_Database\DbManagerFun.cpp

; 897  : 		for( int i = 0 ; i < itemElem.GetUltimatePiercingSize(); ++i )

  000db	47		 inc	 edi
; File C:\IAGOS\server\v18\Source\Source\_Network\Objects\Obj.h

; 160  : 	int		GetUltimatePiercingSize()	{	return m_piercing.GetUltimatePiercingSize();		}

  000dc	8d 49 34	 lea	 ecx, DWORD PTR [ecx+52]
  000df	e8 00 00 00 00	 call	 ?GetUltimatePiercingSize@CPiercing@@QAEHXZ ; CPiercing::GetUltimatePiercingSize
; File C:\IAGOS\server\v18\Source\Source\_Database\DbManagerFun.cpp

; 897  : 		for( int i = 0 ; i < itemElem.GetUltimatePiercingSize(); ++i )

  000e4	3b f8		 cmp	 edi, eax
  000e6	7c 9b		 jl	 SHORT $LL4@LoadPierci
$LN3@LoadPierci:

; 900  : 	itemElem.SetPiercingSize( GetIntFromStr( szPirecingInven, pLocation ) );

  000e8	53		 push	 ebx
  000e9	56		 push	 esi
  000ea	e8 00 00 00 00	 call	 ?GetIntFromStr@@YAHPADPAH@Z ; GetIntFromStr
; File C:\IAGOS\server\v18\Source\Source\_Network\Objects\Obj.h

; 150  : 	void	SetPiercingSize( int nSize )	{	m_piercing.SetPiercingSize( nSize ); }

  000ef	8b 7d c4	 mov	 edi, DWORD PTR _itemElem$GSCopy$1$[ebp]
; File C:\IAGOS\server\v18\Source\Source\_Database\DbManagerFun.cpp

; 900  : 	itemElem.SetPiercingSize( GetIntFromStr( szPirecingInven, pLocation ) );

  000f2	83 c4 08	 add	 esp, 8
; File C:\IAGOS\server\v18\Source\Source\_Network\Objects\Obj.h

; 150  : 	void	SetPiercingSize( int nSize )	{	m_piercing.SetPiercingSize( nSize ); }

  000f5	50		 push	 eax
  000f6	8d 4f 34	 lea	 ecx, DWORD PTR [edi+52]
  000f9	e8 00 00 00 00	 call	 ?SetPiercingSize@CPiercing@@QAEXH@Z ; CPiercing::SetPiercingSize

; 151  : 	int		GetPiercingSize()	{	return m_piercing.GetPiercingSize();		}

  000fe	8d 4f 34	 lea	 ecx, DWORD PTR [edi+52]
; File C:\IAGOS\server\v18\Source\Source\_Database\DbManagerFun.cpp

; 901  : 	for( int i = 0 ; i < itemElem.GetPiercingSize(); ++i )

  00101	c7 45 c0 00 00
	00 00		 mov	 DWORD PTR _i$1$[ebp], 0
; File C:\IAGOS\server\v18\Source\Source\_Network\Objects\Obj.h

; 151  : 	int		GetPiercingSize()	{	return m_piercing.GetPiercingSize();		}

  00108	e8 00 00 00 00	 call	 ?GetPiercingSize@CPiercing@@QAEHXZ ; CPiercing::GetPiercingSize
; File C:\IAGOS\server\v18\Source\Source\_Database\DbManagerFun.cpp

; 901  : 	for( int i = 0 ; i < itemElem.GetPiercingSize(); ++i )

  0010d	85 c0		 test	 eax, eax
  0010f	7e 6f		 jle	 SHORT $LN151@LoadPierci
$LL7@LoadPierci:
; File C:\IAGOS\server\v18\Source\Source\_network\CmnHdr.h

; 95   : 	while(pBuf[*pLocation]!=',' && pBuf[*pLocation]!='/' && pBuf[*pLocation]!=0) {

  00111	8b 03		 mov	 eax, DWORD PTR [ebx]
  00113	33 ff		 xor	 edi, edi
  00115	80 3c 30 2c	 cmp	 BYTE PTR [eax+esi], 44	; 0000002cH
  00119	74 2e		 je	 SHORT $LN147@LoadPierci
  0011b	8b c8		 mov	 ecx, eax
  0011d	0f 1f 00	 npad	 3
$LL28@LoadPierci:
  00120	8a 14 31	 mov	 dl, BYTE PTR [ecx+esi]
  00123	8b c1		 mov	 eax, ecx
  00125	80 fa 2f	 cmp	 dl, 47			; 0000002fH
  00128	74 16		 je	 SHORT $LN29@LoadPierci
  0012a	84 d2		 test	 dl, dl
  0012c	74 12		 je	 SHORT $LN29@LoadPierci

; 96   : 		strTemp[count]=pBuf[*pLocation];
; 97   : 		count++; (*pLocation)++;

  0012e	8d 41 01	 lea	 eax, DWORD PTR [ecx+1]
  00131	88 54 3d c8	 mov	 BYTE PTR _strTemp$3[ebp+edi], dl
  00135	47		 inc	 edi
  00136	89 03		 mov	 DWORD PTR [ebx], eax
  00138	80 3c 30 2c	 cmp	 BYTE PTR [eax+esi], 44	; 0000002cH
  0013c	8b c8		 mov	 ecx, eax
  0013e	75 e0		 jne	 SHORT $LL28@LoadPierci
$LN29@LoadPierci:

; 98   : 	}
; 99   : 	strTemp[count]=0;(*pLocation)++;

  00140	83 ff 32	 cmp	 edi, 50			; 00000032H
  00143	0f 83 4c 01 00
	00		 jae	 $LN98@LoadPierci
$LN147@LoadPierci:
  00149	40		 inc	 eax
  0014a	c6 44 3d c8 00	 mov	 BYTE PTR _strTemp$3[ebp+edi], 0
  0014f	89 03		 mov	 DWORD PTR [ebx], eax

; 100  : 	return atoi(strTemp);

  00151	8d 45 c8	 lea	 eax, DWORD PTR _strTemp$3[ebp]
  00154	50		 push	 eax
  00155	e8 00 00 00 00	 call	 _atoi
; File C:\IAGOS\server\v18\Source\Source\_Network\Objects\Obj.h

; 152  : 	void	SetPiercingItem( int nth, DWORD dwItem)	{	m_piercing.SetPiercingItem( nth, dwItem );	}

  0015a	8b 4d c4	 mov	 ecx, DWORD PTR _itemElem$GSCopy$1$[ebp]
; File C:\IAGOS\server\v18\Source\Source\_network\CmnHdr.h

; 100  : 	return atoi(strTemp);

  0015d	83 c4 04	 add	 esp, 4
; File C:\IAGOS\server\v18\Source\Source\_Network\Objects\Obj.h

; 152  : 	void	SetPiercingItem( int nth, DWORD dwItem)	{	m_piercing.SetPiercingItem( nth, dwItem );	}

  00160	8b 7d c0	 mov	 edi, DWORD PTR _i$1$[ebp]
  00163	50		 push	 eax
  00164	57		 push	 edi
  00165	8d 49 34	 lea	 ecx, DWORD PTR [ecx+52]
  00168	e8 00 00 00 00	 call	 ?SetPiercingItem@CPiercing@@QAEXHK@Z ; CPiercing::SetPiercingItem

; 151  : 	int		GetPiercingSize()	{	return m_piercing.GetPiercingSize();		}

  0016d	8b 4d c4	 mov	 ecx, DWORD PTR _itemElem$GSCopy$1$[ebp]
; File C:\IAGOS\server\v18\Source\Source\_Database\DbManagerFun.cpp

; 901  : 	for( int i = 0 ; i < itemElem.GetPiercingSize(); ++i )

  00170	47		 inc	 edi
  00171	89 7d c0	 mov	 DWORD PTR _i$1$[ebp], edi
; File C:\IAGOS\server\v18\Source\Source\_Network\Objects\Obj.h

; 151  : 	int		GetPiercingSize()	{	return m_piercing.GetPiercingSize();		}

  00174	8d 49 34	 lea	 ecx, DWORD PTR [ecx+52]
  00177	e8 00 00 00 00	 call	 ?GetPiercingSize@CPiercing@@QAEHXZ ; CPiercing::GetPiercingSize
; File C:\IAGOS\server\v18\Source\Source\_Database\DbManagerFun.cpp

; 901  : 	for( int i = 0 ; i < itemElem.GetPiercingSize(); ++i )

  0017c	3b f8		 cmp	 edi, eax
  0017e	7c 91		 jl	 SHORT $LL7@LoadPierci
$LN151@LoadPierci:
; File C:\IAGOS\server\v18\Source\Source\_Network\Objects\Obj.h

; 164  : 	ItemProp*	GetProp()	{	return prj.GetItemProp( m_dwItemId );	}

  00180	8b 7d c4	 mov	 edi, DWORD PTR _itemElem$GSCopy$1$[ebp]
  00183	8b 4f 08	 mov	 ecx, DWORD PTR [edi+8]
; File C:\IAGOS\server\v18\Source\Source\_Common\Data.h

; 270  : 	if( dwIndex >= (DWORD)m_nMaxIndex )

  00186	3b 0d 4c 00 00
	00		 cmp	 ecx, DWORD PTR ?prj@@3VCProject@@A+76
  0018c	0f 83 dc 00 00
	00		 jae	 $LN152@LoadPierci

; 271  : 		return NULL;
; 272  : 	return (T*) m_apOffset[ dwIndex ];

  00192	8b 15 3c 00 00
	00		 mov	 edx, DWORD PTR ?prj@@3VCProject@@A+60
  00198	8b 04 8a	 mov	 eax, DWORD PTR [edx+ecx*4]
; File C:\IAGOS\server\v18\Source\Source\_Network\Objects\Obj.h

; 234  : 	BOOL	IsVisPet()	{ return ( GetProp() && GetProp()->IsVisPet() ) || IsTransformVisPet() ; }

  0019b	85 c0		 test	 eax, eax
  0019d	0f 84 cb 00 00
	00		 je	 $LN152@LoadPierci
; File C:\IAGOS\server\v18\Source\Source\_Common\ProjectCmn.h

; 456  : 	BOOL	IsVisPet()	{ return (dwItemKind3 == IK3_PET) && (dwReferStat1 == PET_VIS); }

  001a3	83 78 78 64	 cmp	 DWORD PTR [eax+120], 100 ; 00000064H
  001a7	0f 85 c1 00 00
	00		 jne	 $LN152@LoadPierci
  001ad	83 b8 d0 01 00
	00 01		 cmp	 DWORD PTR [eax+464], 1
  001b4	74 17		 je	 SHORT $LN144@LoadPierci
; File C:\IAGOS\server\v18\Source\Source\_Network\Objects\Obj.h

; 238  : 	BOOL	IsTransformVisPet() { return GetProp() && GetProp()->dwItemKind3 == IK3_PET && m_bTranformVisPet; }

  001b6	83 78 78 64	 cmp	 DWORD PTR [eax+120], 100 ; 00000064H
  001ba	0f 85 ae 00 00
	00		 jne	 $LN152@LoadPierci
  001c0	83 bf 94 00 00
	00 00		 cmp	 DWORD PTR [edi+148], 0
  001c7	0f 84 a1 00 00
	00		 je	 $LN152@LoadPierci
$LN144@LoadPierci:

; 151  : 	int		GetPiercingSize()	{	return m_piercing.GetPiercingSize();		}

  001cd	8d 4f 34	 lea	 ecx, DWORD PTR [edi+52]
  001d0	e8 00 00 00 00	 call	 ?GetPiercingSize@CPiercing@@QAEHXZ ; CPiercing::GetPiercingSize
; File C:\Program Files\Microsoft Visual Studio\2022\Professional\VC\Tools\MSVC\14.44.35207\include\vector

; 1635 :         _Resize(_Newsize, _Val);

  001d5	8d 4d c0	 lea	 ecx, DWORD PTR $T1[ebp]
; File C:\IAGOS\server\v18\Source\Source\_Common\Piercing.h

; 40   : 	void	SetVisKeepTimeSize( int nSize )	{ m_vtmPetVis.resize( min( nSize, MAX_VIS ), 0 ); }

  001d8	c7 45 c0 00 00
	00 00		 mov	 DWORD PTR $T1[ebp], 0
; File C:\Program Files\Microsoft Visual Studio\2022\Professional\VC\Tools\MSVC\14.44.35207\include\vector

; 1635 :         _Resize(_Newsize, _Val);

  001df	51		 push	 ecx
; File C:\IAGOS\server\v18\Source\Source\_Common\Piercing.h

; 40   : 	void	SetVisKeepTimeSize( int nSize )	{ m_vtmPetVis.resize( min( nSize, MAX_VIS ), 0 ); }

  001e0	b9 09 00 00 00	 mov	 ecx, 9
  001e5	3b c1		 cmp	 eax, ecx
  001e7	0f 4c c8	 cmovl	 ecx, eax
; File C:\Program Files\Microsoft Visual Studio\2022\Professional\VC\Tools\MSVC\14.44.35207\include\vector

; 1635 :         _Resize(_Newsize, _Val);

  001ea	51		 push	 ecx
; File C:\IAGOS\server\v18\Source\Source\_Common\Piercing.h

; 40   : 	void	SetVisKeepTimeSize( int nSize )	{ m_vtmPetVis.resize( min( nSize, MAX_VIS ), 0 ); }

  001eb	8d 4f 50	 lea	 ecx, DWORD PTR [edi+80]
; File C:\Program Files\Microsoft Visual Studio\2022\Professional\VC\Tools\MSVC\14.44.35207\include\vector

; 1635 :         _Resize(_Newsize, _Val);

  001ee	e8 00 00 00 00	 call	 ??$_Resize@J@?$vector@JV?$allocator@J@std@@@std@@AAEXIABJ@Z ; std::vector<long,std::allocator<long> >::_Resize<long>
; File C:\IAGOS\server\v18\Source\Source\_Network\Objects\Obj.h

; 151  : 	int		GetPiercingSize()	{	return m_piercing.GetPiercingSize();		}

  001f3	8d 4f 34	 lea	 ecx, DWORD PTR [edi+52]
; File C:\IAGOS\server\v18\Source\Source\_Database\DbManagerFun.cpp

; 907  : 		for( int i=0; i<itemElem.GetPiercingSize(); i++ )

  001f6	c7 45 c0 00 00
	00 00		 mov	 DWORD PTR _i$1$[ebp], 0
; File C:\IAGOS\server\v18\Source\Source\_Network\Objects\Obj.h

; 151  : 	int		GetPiercingSize()	{	return m_piercing.GetPiercingSize();		}

  001fd	e8 00 00 00 00	 call	 ?GetPiercingSize@CPiercing@@QAEHXZ ; CPiercing::GetPiercingSize
; File C:\IAGOS\server\v18\Source\Source\_Database\DbManagerFun.cpp

; 907  : 		for( int i=0; i<itemElem.GetPiercingSize(); i++ )

  00202	85 c0		 test	 eax, eax
  00204	7e 68		 jle	 SHORT $LN152@LoadPierci
$LL10@LoadPierci:
; File C:\IAGOS\server\v18\Source\Source\_network\CmnHdr.h

; 95   : 	while(pBuf[*pLocation]!=',' && pBuf[*pLocation]!='/' && pBuf[*pLocation]!=0) {

  00206	8b 03		 mov	 eax, DWORD PTR [ebx]
  00208	33 ff		 xor	 edi, edi
  0020a	80 3c 30 2c	 cmp	 BYTE PTR [eax+esi], 44	; 0000002cH
  0020e	74 27		 je	 SHORT $LN143@LoadPierci
; File C:\IAGOS\server\v18\Source\Source\_Network\Objects\Obj.h

; 234  : 	BOOL	IsVisPet()	{ return ( GetProp() && GetProp()->IsVisPet() ) || IsTransformVisPet() ; }

  00210	8b c8		 mov	 ecx, eax
$LL17@LoadPierci:
; File C:\IAGOS\server\v18\Source\Source\_network\CmnHdr.h

; 95   : 	while(pBuf[*pLocation]!=',' && pBuf[*pLocation]!='/' && pBuf[*pLocation]!=0) {

  00212	8a 14 31	 mov	 dl, BYTE PTR [ecx+esi]
  00215	8b c1		 mov	 eax, ecx
  00217	80 fa 2f	 cmp	 dl, 47			; 0000002fH
  0021a	74 16		 je	 SHORT $LN18@LoadPierci
  0021c	84 d2		 test	 dl, dl
  0021e	74 12		 je	 SHORT $LN18@LoadPierci

; 96   : 		strTemp[count]=pBuf[*pLocation];
; 97   : 		count++; (*pLocation)++;

  00220	8d 41 01	 lea	 eax, DWORD PTR [ecx+1]
  00223	88 54 3d c8	 mov	 BYTE PTR _strTemp$2[ebp+edi], dl
  00227	47		 inc	 edi
  00228	89 03		 mov	 DWORD PTR [ebx], eax
  0022a	80 3c 30 2c	 cmp	 BYTE PTR [eax+esi], 44	; 0000002cH
  0022e	8b c8		 mov	 ecx, eax
  00230	75 e0		 jne	 SHORT $LL17@LoadPierci
$LN18@LoadPierci:

; 98   : 	}
; 99   : 	strTemp[count]=0;(*pLocation)++;

  00232	83 ff 32	 cmp	 edi, 50			; 00000032H
  00235	73 5e		 jae	 SHORT $LN98@LoadPierci
$LN143@LoadPierci:
  00237	40		 inc	 eax
  00238	c6 44 3d c8 00	 mov	 BYTE PTR _strTemp$2[ebp+edi], 0
  0023d	89 03		 mov	 DWORD PTR [ebx], eax

; 100  : 	return atoi(strTemp);

  0023f	8d 45 c8	 lea	 eax, DWORD PTR _strTemp$2[ebp]
  00242	50		 push	 eax
  00243	e8 00 00 00 00	 call	 _atoi
; File C:\IAGOS\server\v18\Source\Source\_Network\Objects\Obj.h

; 236  : 	void	SetVisKeepTime( int nth, time_t tmKeep )	{ m_piercing.SetVisKeepTime( nth, tmKeep ); }

  00248	8b 4d c4	 mov	 ecx, DWORD PTR _itemElem$GSCopy$1$[ebp]
; File C:\IAGOS\server\v18\Source\Source\_network\CmnHdr.h

; 100  : 	return atoi(strTemp);

  0024b	83 c4 04	 add	 esp, 4
; File C:\IAGOS\server\v18\Source\Source\_Network\Objects\Obj.h

; 236  : 	void	SetVisKeepTime( int nth, time_t tmKeep )	{ m_piercing.SetVisKeepTime( nth, tmKeep ); }

  0024e	8b 7d c0	 mov	 edi, DWORD PTR _i$1$[ebp]
  00251	50		 push	 eax
  00252	57		 push	 edi
  00253	8d 49 34	 lea	 ecx, DWORD PTR [ecx+52]
  00256	e8 00 00 00 00	 call	 ?SetVisKeepTime@CPiercing@@QAEXHJ@Z ; CPiercing::SetVisKeepTime

; 151  : 	int		GetPiercingSize()	{	return m_piercing.GetPiercingSize();		}

  0025b	8b 4d c4	 mov	 ecx, DWORD PTR _itemElem$GSCopy$1$[ebp]
; File C:\IAGOS\server\v18\Source\Source\_Database\DbManagerFun.cpp

; 907  : 		for( int i=0; i<itemElem.GetPiercingSize(); i++ )

  0025e	47		 inc	 edi
  0025f	89 7d c0	 mov	 DWORD PTR _i$1$[ebp], edi
; File C:\IAGOS\server\v18\Source\Source\_Network\Objects\Obj.h

; 151  : 	int		GetPiercingSize()	{	return m_piercing.GetPiercingSize();		}

  00262	8d 49 34	 lea	 ecx, DWORD PTR [ecx+52]
  00265	e8 00 00 00 00	 call	 ?GetPiercingSize@CPiercing@@QAEHXZ ; CPiercing::GetPiercingSize
; File C:\IAGOS\server\v18\Source\Source\_Database\DbManagerFun.cpp

; 907  : 		for( int i=0; i<itemElem.GetPiercingSize(); i++ )

  0026a	3b f8		 cmp	 edi, eax
  0026c	7c 98		 jl	 SHORT $LL10@LoadPierci
$LN152@LoadPierci:

; 911  : }

  0026e	8b 4d fc	 mov	 ecx, DWORD PTR __$ArrayPad$[ebp]
  00271	5f		 pop	 edi
  00272	5e		 pop	 esi
  00273	33 cd		 xor	 ecx, ebp
  00275	5b		 pop	 ebx
  00276	e8 00 00 00 00	 call	 @__security_check_cookie@4
  0027b	8b e5		 mov	 esp, ebp
  0027d	5d		 pop	 ebp
  0027e	c2 0c 00	 ret	 12			; 0000000cH
$LN91@LoadPierci:
; File C:\IAGOS\server\v18\Source\Source\_network\CmnHdr.h

; 158  : 			if( count == 0 )

  00281	85 d2		 test	 edx, edx
  00283	75 07		 jne	 SHORT $LN93@LoadPierci

; 159  : 			{
; 160  : 				return 0;

  00285	33 c0		 xor	 eax, eax
  00287	e9 3f fe ff ff	 jmp	 $LN88@LoadPierci
$LN93@LoadPierci:

; 161  : 			}
; 162  : 			else
; 163  : 			{
; 164  : 				strTemp[count]=0;

  0028c	83 fa 32	 cmp	 edx, 50			; 00000032H
  0028f	0f 82 25 fe ff
	ff		 jb	 $LN180@LoadPierci
$LN98@LoadPierci:
; File C:\IAGOS\server\v18\Source\Source\_Database\DbManagerFun.cpp

; 911  : }

  00295	e8 00 00 00 00	 call	 ___report_rangecheckfailure
$LN179@LoadPierci:
  0029a	cc		 int	 3
?LoadPiercingInfo@CDbManager@@QAEXAAVCItemElem@@PADPAH@Z ENDP ; CDbManager::LoadPiercingInfo
_TEXT	ENDS
; Function compile flags: /Ogtp
; File C:\IAGOS\server\v18\Source\Source\_Database\DbManagerFun.cpp
; File C:\IAGOS\server\v18\Source\Source\_database\DbManager.h
; File C:\IAGOS\server\v18\Source\Source\_Database\DbManagerFun.cpp
; File C:\IAGOS\server\v18\Source\Source\_database\DbManager.h
; File C:\IAGOS\server\v18\Source\Source\_Database\DbManagerFun.cpp
; File C:\IAGOS\server\v18\Source\Source\_network\CmnHdr.h
; File C:\IAGOS\server\v18\Source\Source\_Database\DbManagerFun.cpp
; File C:\IAGOS\server\v18\Source\Source\_network\CmnHdr.h
; File C:\IAGOS\server\v18\Source\Source\_Database\DbManagerFun.cpp
; File C:\IAGOS\server\v18\Source\Source\_database\DbManager.h
; File C:\IAGOS\server\v18\Source\Source\_Database\DbManagerFun.cpp
; File C:\IAGOS\server\v18\Source\Source\_database\DbManager.h
; File C:\IAGOS\server\v18\Source\Source\_Database\DbManagerFun.cpp
; File C:\IAGOS\server\v18\Source\Source\_database\DbManager.h
; File C:\IAGOS\server\v18\Source\Source\_Database\DbManagerFun.cpp
; File C:\IAGOS\server\v18\Source\Source\_database\DbManager.h
; File C:\IAGOS\server\v18\Source\Source\_Database\DbManagerFun.cpp
; File C:\IAGOS\server\v18\Source\Source\_network\CmnHdr.h
; File C:\IAGOS\server\v18\Source\Source\_Database\DbManagerFun.cpp
; File C:\IAGOS\server\v18\Source\Source\_network\CmnHdr.h
; File C:\IAGOS\server\v18\Source\Source\_Database\DbManagerFun.cpp
; File C:\IAGOS\server\v18\Source\Source\_network\CmnHdr.h
; File C:\IAGOS\server\v18\Source\Source\_Database\DbManagerFun.cpp
; File C:\IAGOS\server\v18\Source\Source\_network\CmnHdr.h
; File C:\IAGOS\server\v18\Source\Source\_Database\DbManagerFun.cpp
; File C:\IAGOS\server\v18\Source\Source\_network\CmnHdr.h
; File C:\IAGOS\server\v18\Source\Source\_Database\DbManagerFun.cpp
; File C:\IAGOS\server\v18\Source\Source\_network\CmnHdr.h
; File C:\IAGOS\server\v18\Source\Source\_Database\DbManagerFun.cpp
; File C:\IAGOS\server\v18\Source\Source\_database\DbManager.h
; File C:\IAGOS\server\v18\Source\Source\_Database\DbManagerFun.cpp
; File C:\IAGOS\server\v18\Source\Source\_database\DbManager.h
; File C:\IAGOS\server\v18\Source\Source\_Database\DbManagerFun.cpp
; File C:\IAGOS\server\v18\Source\Source\_network\CmnHdr.h
; File C:\IAGOS\server\v18\Source\Source\_Database\DbManagerFun.cpp
;	COMDAT ?GetInventory@CDbManager@@QAEHPAVCMover@@PAVCQuery@@PAUtagDB_OVERLAPPED_PLUS@@@Z
_TEXT	SEGMENT
_iRandomOptItemId$2 = -17560				; size = 8
_pMover$GSCopy$1$ = -17552				; size = 4
_nAvailLevel$3 = -17548					; size = 1
_lpDbOverlappedPlus$GSCopy$1$ = -17548			; size = 4
$T4 = -17544						; size = 4
_qry$GSCopy$1$ = -17544					; size = 4
_this$GSCopy$1$ = -17540				; size = 4
tv1199 = -17536						; size = 4
tv1209 = -17536						; size = 4
tv1212 = -17536						; size = 4
tv1213 = -17536						; size = 4
_CountStr$ = -17532					; size = 4
_BufItemElem$5 = -17528					; size = 152
_Inven$ = -17376					; size = 6000
_PirecingInven$ = -11376				; size = 4000
_szPet$ = -7376						; size = 4200
_ExtInven$ = -3176					; size = 2000
_ObjIndex$ = -1176					; size = 512
_m_apIndex$ = -664					; size = 512
_szPlayerName$ = -152					; size = 64
_strTemp$6 = -88					; size = 50
_szFmt$7 = -72						; size = 33
_szName$8 = -36						; size = 17
__$ArrayPad$ = -16					; size = 4
__$EHRec$ = -12						; size = 12
_pMover$ = 8						; size = 4
_qry$ = 12						; size = 4
_lpDbOverlappedPlus$ = 16				; size = 4
?GetInventory@CDbManager@@QAEHPAVCMover@@PAVCQuery@@PAUtagDB_OVERLAPPED_PLUS@@@Z PROC ; CDbManager::GetInventory, COMDAT
; _this$ = ecx

; 735  : {

  00000	55		 push	 ebp
  00001	8b ec		 mov	 ebp, esp
  00003	6a ff		 push	 -1
  00005	68 00 00 00 00	 push	 __ehhandler$?GetInventory@CDbManager@@QAEHPAVCMover@@PAVCQuery@@PAUtagDB_OVERLAPPED_PLUS@@@Z
  0000a	64 a1 00 00 00
	00		 mov	 eax, DWORD PTR fs:0
  00010	50		 push	 eax
  00011	b8 8c 44 00 00	 mov	 eax, 17548		; 0000448cH
  00016	e8 00 00 00 00	 call	 __chkstk
  0001b	a1 00 00 00 00	 mov	 eax, DWORD PTR ___security_cookie
  00020	33 c5		 xor	 eax, ebp
  00022	89 45 f0	 mov	 DWORD PTR __$ArrayPad$[ebp], eax
  00025	56		 push	 esi
  00026	57		 push	 edi
  00027	50		 push	 eax
  00028	8d 45 f4	 lea	 eax, DWORD PTR __$EHRec$[ebp]
  0002b	64 a3 00 00 00
	00		 mov	 DWORD PTR fs:0, eax
  00031	89 8d 7c bb ff
	ff		 mov	 DWORD PTR _this$GSCopy$1$[ebp], ecx
  00037	8b 45 0c	 mov	 eax, DWORD PTR _qry$[ebp]
  0003a	8b 7d 08	 mov	 edi, DWORD PTR _pMover$[ebp]
  0003d	8b 75 10	 mov	 esi, DWORD PTR _lpDbOverlappedPlus$[ebp]

; 736  : 	int CountStr	= 0;
; 737  : 	int IndexItem	= 0;
; 738  : 	char Inven[6000]	= { 0, };

  00040	68 70 17 00 00	 push	 6000			; 00001770H
  00045	89 85 78 bb ff
	ff		 mov	 DWORD PTR _qry$GSCopy$1$[ebp], eax
  0004b	8d 85 20 bc ff
	ff		 lea	 eax, DWORD PTR _Inven$[ebp]
  00051	6a 00		 push	 0
  00053	50		 push	 eax
  00054	89 bd 70 bb ff
	ff		 mov	 DWORD PTR _pMover$GSCopy$1$[ebp], edi
  0005a	89 b5 74 bb ff
	ff		 mov	 DWORD PTR _lpDbOverlappedPlus$GSCopy$1$[ebp], esi
  00060	c7 85 84 bb ff
	ff 00 00 00 00	 mov	 DWORD PTR _CountStr$[ebp], 0
  0006a	e8 00 00 00 00	 call	 _memset

; 739  : 	char szPlayerName[64] = {0, };

  0006f	6a 40		 push	 64			; 00000040H
  00071	8d 85 68 ff ff
	ff		 lea	 eax, DWORD PTR _szPlayerName$[ebp]
  00077	6a 00		 push	 0
  00079	50		 push	 eax
  0007a	e8 00 00 00 00	 call	 _memset
  0007f	83 c4 18	 add	 esp, 24			; 00000018H

; 740  : 	if( lpDbOverlappedPlus != NULL )

  00082	8d 95 68 ff ff
	ff		 lea	 edx, DWORD PTR _szPlayerName$[ebp]
  00088	85 f6		 test	 esi, esi
  0008a	74 14		 je	 SHORT $LN17@GetInvento

; 741  : 	{
; 742  : 		_tcscpy( szPlayerName, lpDbOverlappedPlus->AccountInfo.szPlayer );

  0008c	8d 4e 74	 lea	 ecx, DWORD PTR [esi+116]
  0008f	2b d1		 sub	 edx, ecx
$LL33@GetInvento:
  00091	8a 01		 mov	 al, BYTE PTR [ecx]
  00093	8d 49 01	 lea	 ecx, DWORD PTR [ecx+1]
  00096	88 44 0a ff	 mov	 BYTE PTR [edx+ecx-1], al
  0009a	84 c0		 test	 al, al
  0009c	75 f3		 jne	 SHORT $LL33@GetInvento

; 743  : 	}

  0009e	eb 12		 jmp	 SHORT $LN18@GetInvento
$LN17@GetInvento:

; 744  : 	else
; 745  : 	{
; 746  : 		_tcscpy( szPlayerName, pMover->m_szName );

  000a0	8d 4f 6c	 lea	 ecx, DWORD PTR [edi+108]
  000a3	2b d1		 sub	 edx, ecx
$LL34@GetInvento:
  000a5	8a 01		 mov	 al, BYTE PTR [ecx]
  000a7	8d 49 01	 lea	 ecx, DWORD PTR [ecx+1]
  000aa	88 44 0a ff	 mov	 BYTE PTR [edx+ecx-1], al
  000ae	84 c0		 test	 al, al
  000b0	75 f3		 jne	 SHORT $LL34@GetInvento
$LN18@GetInvento:

; 747  : 	}
; 748  : 	qry->GetStr("m_Inventory", Inven);

  000b2	8b 8d 78 bb ff
	ff		 mov	 ecx, DWORD PTR _qry$GSCopy$1$[ebp]
  000b8	8d 85 20 bc ff
	ff		 lea	 eax, DWORD PTR _Inven$[ebp]
  000be	50		 push	 eax
  000bf	68 00 00 00 00	 push	 OFFSET ??_C@_0M@GIEPEBGM@m_Inventory@
  000c4	e8 00 00 00 00	 call	 ?GetStr@CQuery@@QAEXPAD0@Z ; CQuery::GetStr
; File C:\IAGOS\server\v18\Source\Source\_database\DbManager.h

; 1305 : 	int len		= strlen( lpString );

  000c9	8d 8d 20 bc ff
	ff		 lea	 ecx, DWORD PTR _Inven$[ebp]
  000cf	8d 51 01	 lea	 edx, DWORD PTR [ecx+1]
$LL127@GetInvento:
  000d2	8a 01		 mov	 al, BYTE PTR [ecx]
  000d4	41		 inc	 ecx
  000d5	84 c0		 test	 al, al
  000d7	75 f9		 jne	 SHORT $LL127@GetInvento
  000d9	2b ca		 sub	 ecx, edx

; 1306 : 	if( len > 0 && lpString[len-1] == '$' )

  000db	85 c9		 test	 ecx, ecx
  000dd	0f 8e 5b 07 00
	00		 jle	 $LN49@GetInvento
  000e3	80 bc 0d 1f bc
	ff ff 24	 cmp	 BYTE PTR _Inven$[ebp+ecx-1], 36 ; 00000024H
  000eb	0f 85 4d 07 00
	00		 jne	 $LN49@GetInvento
; File C:\IAGOS\server\v18\Source\Source\_Database\DbManagerFun.cpp

; 750  : 	while('$' != Inven[CountStr])

  000f1	80 bd 20 bc ff
	ff 24		 cmp	 BYTE PTR _Inven$[ebp], 36 ; 00000024H
  000f8	0f 84 97 00 00
	00		 je	 $LN3@GetInvento
  000fe	8d 77 6c	 lea	 esi, DWORD PTR [edi+108]
$LL2@GetInvento:

; 751  : 	{
; 752  : 		CItemElem BufItemElem;

  00101	8d 8d 88 bb ff
	ff		 lea	 ecx, DWORD PTR _BufItemElem$5[ebp]
  00107	e8 00 00 00 00	 call	 ??0CItemElem@@QAE@XZ	; CItemElem::CItemElem

; 753  : 		IndexItem = GetOneItem( &BufItemElem, Inven, &CountStr );

  0010c	8b 8d 7c bb ff
	ff		 mov	 ecx, DWORD PTR _this$GSCopy$1$[ebp]
  00112	8d 85 84 bb ff
	ff		 lea	 eax, DWORD PTR _CountStr$[ebp]
  00118	50		 push	 eax
  00119	8d 85 20 bc ff
	ff		 lea	 eax, DWORD PTR _Inven$[ebp]
  0011f	c7 45 fc 00 00
	00 00		 mov	 DWORD PTR __$EHRec$[ebp+8], 0
  00126	50		 push	 eax
  00127	8d 85 88 bb ff
	ff		 lea	 eax, DWORD PTR _BufItemElem$5[ebp]
  0012d	50		 push	 eax
  0012e	e8 00 00 00 00	 call	 ?GetOneItem@CDbManager@@QAEHPAVCItemElem@@PADPAH@Z ; CDbManager::GetOneItem

; 754  : 		if( IndexItem == -1 )

  00133	83 f8 ff	 cmp	 eax, -1
  00136	75 16		 jne	 SHORT $LN20@GetInvento

; 755  : 		{
; 756  : 			Error( "Inventory : << ÇÁ·ÎĆŰĆĽ ľřŔ˝. %s, %d", pMover->m_szName, BufItemElem.m_dwItemId );

  00138	ff b5 90 bb ff
	ff		 push	 DWORD PTR _BufItemElem$5[ebp+8]
  0013e	56		 push	 esi
  0013f	68 00 00 00 00	 push	 OFFSET ??_C@_0CF@JJEIFMEB@Inventory?5?3?5?$DM?$DM?5?G?A?$LH?N?F?$NL?F?$LM?5?$LO?x?$MA?$LN?4?5?$CF@
  00144	e8 00 00 00 00	 call	 ?Error@@YAPBDPBDZZ	; Error
  00149	83 c4 0c	 add	 esp, 12			; 0000000cH

; 757  : 		}

  0014c	eb 21		 jmp	 SHORT $LN21@GetInvento
$LN20@GetInvento:

; 758  : 		else
; 759  : 		{
; 760  : 			if( IndexItem >= MAX_INVENTORY + MAX_HUMAN_PARTS)

  0014e	83 f8 49	 cmp	 eax, 73			; 00000049H
  00151	0f 8d c5 04 00
	00		 jge	 $LN87@GetInvento

; 765  : 			}
; 766  : 			pMover->m_Inventory.m_apItem[IndexItem] = BufItemElem;

  00157	69 c8 98 00 00
	00		 imul	 ecx, eax, 152
  0015d	8d 95 88 bb ff
	ff		 lea	 edx, DWORD PTR _BufItemElem$5[ebp]
  00163	52		 push	 edx
  00164	03 8f c0 3b 00
	00		 add	 ecx, DWORD PTR [edi+15296]
  0016a	8b 01		 mov	 eax, DWORD PTR [ecx]
  0016c	ff 50 10	 call	 DWORD PTR [eax+16]
$LN21@GetInvento:

; 767  : 		}
; 768  : 	}

  0016f	8d 8d 88 bb ff
	ff		 lea	 ecx, DWORD PTR _BufItemElem$5[ebp]
  00175	c7 45 fc ff ff
	ff ff		 mov	 DWORD PTR __$EHRec$[ebp+8], -1
  0017c	e8 00 00 00 00	 call	 ??1CItemElem@@UAE@XZ	; CItemElem::~CItemElem
  00181	8b 85 84 bb ff
	ff		 mov	 eax, DWORD PTR _CountStr$[ebp]
  00187	80 bc 05 20 bc
	ff ff 24	 cmp	 BYTE PTR _Inven$[ebp+eax], 36 ; 00000024H
  0018f	0f 85 6c ff ff
	ff		 jne	 $LL2@GetInvento
$LN3@GetInvento:

; 769  : 	
; 770  : 	CountStr	= 0;
; 771  : 	int itemCount	= 0;
; 772  : 	char m_apIndex[512]		= { 0, };

  00195	68 00 02 00 00	 push	 512			; 00000200H
  0019a	33 f6		 xor	 esi, esi
  0019c	8d 85 68 fd ff
	ff		 lea	 eax, DWORD PTR _m_apIndex$[ebp]
  001a2	56		 push	 esi
  001a3	50		 push	 eax
  001a4	e8 00 00 00 00	 call	 _memset

; 773  : 	qry->GetStr( "m_apIndex", m_apIndex );

  001a9	8b 8d 78 bb ff
	ff		 mov	 ecx, DWORD PTR _qry$GSCopy$1$[ebp]
  001af	8d 85 68 fd ff
	ff		 lea	 eax, DWORD PTR _m_apIndex$[ebp]
  001b5	83 c4 0c	 add	 esp, 12			; 0000000cH
  001b8	50		 push	 eax
  001b9	68 00 00 00 00	 push	 OFFSET ??_C@_09HGEFOOAJ@m_apIndex@
  001be	e8 00 00 00 00	 call	 ?GetStr@CQuery@@QAEXPAD0@Z ; CQuery::GetStr
; File C:\IAGOS\server\v18\Source\Source\_database\DbManager.h

; 1305 : 	int len		= strlen( lpString );

  001c3	8d 8d 68 fd ff
	ff		 lea	 ecx, DWORD PTR _m_apIndex$[ebp]
  001c9	8d 51 01	 lea	 edx, DWORD PTR [ecx+1]
  001cc	0f 1f 40 00	 npad	 4
$LL128@GetInvento:
  001d0	8a 01		 mov	 al, BYTE PTR [ecx]
  001d2	41		 inc	 ecx
  001d3	84 c0		 test	 al, al
  001d5	75 f9		 jne	 SHORT $LL128@GetInvento
  001d7	2b ca		 sub	 ecx, edx

; 1306 : 	if( len > 0 && lpString[len-1] == '$' )

  001d9	85 c9		 test	 ecx, ecx
  001db	0f 8e 4f 06 00
	00		 jle	 $LN53@GetInvento
  001e1	80 bc 0d 67 fd
	ff ff 24	 cmp	 BYTE PTR _m_apIndex$[ebp+ecx-1], 36 ; 00000024H
  001e9	0f 85 41 06 00
	00		 jne	 $LN53@GetInvento
; File C:\IAGOS\server\v18\Source\Source\_Database\DbManagerFun.cpp

; 775  : 	while( '$' != m_apIndex[CountStr] )

  001ef	8a 85 68 fd ff
	ff		 mov	 al, BYTE PTR _m_apIndex$[ebp]
  001f5	3c 24		 cmp	 al, 36			; 00000024H
  001f7	74 64		 je	 SHORT $LN126@GetInvento
; File C:\IAGOS\server\v18\Source\Source\_network\CmnHdr.h

; 92   : {

  001f9	89 b5 80 bb ff
	ff		 mov	 DWORD PTR tv1213[ebp], esi
  001ff	90		 npad	 1
$LL4@GetInvento:

; 93   : 	char strTemp[50];
; 94   : 	int count=0;

  00200	33 c9		 xor	 ecx, ecx

; 95   : 	while(pBuf[*pLocation]!=',' && pBuf[*pLocation]!='/' && pBuf[*pLocation]!=0) {

  00202	3c 2c		 cmp	 al, 44			; 0000002cH
  00204	74 22		 je	 SHORT $LN123@GetInvento
$LL42@GetInvento:
  00206	3c 2f		 cmp	 al, 47			; 0000002fH
  00208	74 15		 je	 SHORT $LN43@GetInvento
  0020a	84 c0		 test	 al, al
  0020c	74 11		 je	 SHORT $LN43@GetInvento

; 96   : 		strTemp[count]=pBuf[*pLocation];
; 97   : 		count++; (*pLocation)++;

  0020e	46		 inc	 esi
  0020f	88 44 0d a8	 mov	 BYTE PTR _strTemp$6[ebp+ecx], al
  00213	41		 inc	 ecx
  00214	8a 84 35 68 fd
	ff ff		 mov	 al, BYTE PTR _m_apIndex$[ebp+esi]
  0021b	3c 2c		 cmp	 al, 44			; 0000002cH
  0021d	75 e7		 jne	 SHORT $LL42@GetInvento
$LN43@GetInvento:

; 99   : 	strTemp[count]=0;(*pLocation)++;

  0021f	83 f9 32	 cmp	 ecx, 50			; 00000032H
  00222	0f 83 63 06 00
	00		 jae	 $LN45@GetInvento
$LN123@GetInvento:

; 100  : 	return atoi(strTemp);

  00228	8d 45 a8	 lea	 eax, DWORD PTR _strTemp$6[ebp]
  0022b	c6 44 0d a8 00	 mov	 BYTE PTR _strTemp$6[ebp+ecx], 0
  00230	50		 push	 eax
  00231	46		 inc	 esi
  00232	e8 00 00 00 00	 call	 _atoi
; File C:\IAGOS\server\v18\Source\Source\_Database\DbManagerFun.cpp

; 777  : 		pMover->m_Inventory.m_apIndex[itemCount]	= (DWORD)GetIntFromStr( m_apIndex, &CountStr );

  00237	8b 95 80 bb ff
	ff		 mov	 edx, DWORD PTR tv1213[ebp]
; File C:\IAGOS\server\v18\Source\Source\_network\CmnHdr.h

; 100  : 	return atoi(strTemp);

  0023d	83 c4 04	 add	 esp, 4
; File C:\IAGOS\server\v18\Source\Source\_Database\DbManagerFun.cpp

; 777  : 		pMover->m_Inventory.m_apIndex[itemCount]	= (DWORD)GetIntFromStr( m_apIndex, &CountStr );

  00240	8b 8f b8 3b 00
	00		 mov	 ecx, DWORD PTR [edi+15288]
  00246	89 04 0a	 mov	 DWORD PTR [edx+ecx], eax

; 778  : 		itemCount++;

  00249	83 c2 04	 add	 edx, 4
  0024c	8a 84 35 68 fd
	ff ff		 mov	 al, BYTE PTR _m_apIndex$[ebp+esi]
  00253	89 95 80 bb ff
	ff		 mov	 DWORD PTR tv1213[ebp], edx
  00259	3c 24		 cmp	 al, 36			; 00000024H
  0025b	75 a3		 jne	 SHORT $LL4@GetInvento
$LN126@GetInvento:

; 779  : 	}
; 780  : 	
; 781  : 	CountStr	= 0;
; 782  : 	int IndexObjIndex	= 0;
; 783  : 	char ObjIndex[512]	= {0,};

  0025d	68 00 02 00 00	 push	 512			; 00000200H
  00262	8d 85 68 fb ff
	ff		 lea	 eax, DWORD PTR _ObjIndex$[ebp]
  00268	c7 85 84 bb ff
	ff 00 00 00 00	 mov	 DWORD PTR _CountStr$[ebp], 0
  00272	6a 00		 push	 0
  00274	50		 push	 eax
  00275	e8 00 00 00 00	 call	 _memset

; 784  : 	qry->GetStr( "m_dwObjIndex", ObjIndex );

  0027a	8b 8d 78 bb ff
	ff		 mov	 ecx, DWORD PTR _qry$GSCopy$1$[ebp]
  00280	8d 85 68 fb ff
	ff		 lea	 eax, DWORD PTR _ObjIndex$[ebp]
  00286	83 c4 0c	 add	 esp, 12			; 0000000cH
  00289	50		 push	 eax
  0028a	68 00 00 00 00	 push	 OFFSET ??_C@_0N@KMOLMNCJ@m_dwObjIndex@
  0028f	e8 00 00 00 00	 call	 ?GetStr@CQuery@@QAEXPAD0@Z ; CQuery::GetStr
; File C:\IAGOS\server\v18\Source\Source\_database\DbManager.h

; 1305 : 	int len		= strlen( lpString );

  00294	8d 8d 68 fb ff
	ff		 lea	 ecx, DWORD PTR _ObjIndex$[ebp]
  0029a	8d 51 01	 lea	 edx, DWORD PTR [ecx+1]
  0029d	0f 1f 00	 npad	 3
$LL129@GetInvento:
  002a0	8a 01		 mov	 al, BYTE PTR [ecx]
  002a2	41		 inc	 ecx
  002a3	84 c0		 test	 al, al
  002a5	75 f9		 jne	 SHORT $LL129@GetInvento
  002a7	2b ca		 sub	 ecx, edx

; 1306 : 	if( len > 0 && lpString[len-1] == '$' )

  002a9	85 c9		 test	 ecx, ecx
  002ab	0f 8e 71 05 00
	00		 jle	 $LN57@GetInvento
  002b1	80 bc 0d 67 fb
	ff ff 24	 cmp	 BYTE PTR _ObjIndex$[ebp+ecx-1], 36 ; 00000024H
  002b9	0f 85 63 05 00
	00		 jne	 $LN57@GetInvento
; File C:\IAGOS\server\v18\Source\Source\_Database\DbManagerFun.cpp

; 786  : 	while( '$' != ObjIndex[CountStr] )

  002bf	80 bd 68 fb ff
	ff 24		 cmp	 BYTE PTR _ObjIndex$[ebp], 36 ; 00000024H
  002c6	74 4b		 je	 SHORT $LN7@GetInvento
  002c8	33 c9		 xor	 ecx, ecx
  002ca	89 8d 80 bb ff
	ff		 mov	 DWORD PTR tv1212[ebp], ecx
$LL6@GetInvento:

; 787  : 	{
; 788  : 		pMover->m_Inventory.m_apItem[IndexObjIndex].m_dwObjIndex	= (DWORD)GetIntFromStr( ObjIndex, &CountStr );

  002d0	8b b7 c0 3b 00
	00		 mov	 esi, DWORD PTR [edi+15296]
  002d6	8d 85 84 bb ff
	ff		 lea	 eax, DWORD PTR _CountStr$[ebp]
  002dc	50		 push	 eax
  002dd	8d 85 68 fb ff
	ff		 lea	 eax, DWORD PTR _ObjIndex$[ebp]
  002e3	03 f1		 add	 esi, ecx
  002e5	50		 push	 eax
  002e6	e8 00 00 00 00	 call	 ?GetIntFromStr@@YAHPADPAH@Z ; GetIntFromStr

; 789  : 		IndexObjIndex++;

  002eb	8b 8d 80 bb ff
	ff		 mov	 ecx, DWORD PTR tv1212[ebp]
  002f1	83 c4 08	 add	 esp, 8
  002f4	89 46 2c	 mov	 DWORD PTR [esi+44], eax
  002f7	81 c1 98 00 00
	00		 add	 ecx, 152		; 00000098H
  002fd	8b 85 84 bb ff
	ff		 mov	 eax, DWORD PTR _CountStr$[ebp]
  00303	89 8d 80 bb ff
	ff		 mov	 DWORD PTR tv1212[ebp], ecx
  00309	80 bc 05 68 fb
	ff ff 24	 cmp	 BYTE PTR _ObjIndex$[ebp+eax], 36 ; 00000024H
  00311	75 bd		 jne	 SHORT $LL6@GetInvento
$LN7@GetInvento:

; 790  : 	}
; 791  : 
; 792  : 	CountStr	= 0;
; 793  : 	int nExtInven = 0;
; 794  : 	char ExtInven[2000] = {0,};

  00313	68 d0 07 00 00	 push	 2000			; 000007d0H
  00318	8d 85 98 f3 ff
	ff		 lea	 eax, DWORD PTR _ExtInven$[ebp]
  0031e	c7 85 84 bb ff
	ff 00 00 00 00	 mov	 DWORD PTR _CountStr$[ebp], 0
  00328	6a 00		 push	 0
  0032a	50		 push	 eax
  0032b	e8 00 00 00 00	 call	 _memset

; 795  : 	qry->GetStr( "m_extInventory", ExtInven );

  00330	8b 8d 78 bb ff
	ff		 mov	 ecx, DWORD PTR _qry$GSCopy$1$[ebp]
  00336	8d 85 98 f3 ff
	ff		 lea	 eax, DWORD PTR _ExtInven$[ebp]
  0033c	83 c4 0c	 add	 esp, 12			; 0000000cH
  0033f	50		 push	 eax
  00340	68 00 00 00 00	 push	 OFFSET ??_C@_0P@CJDMDHFC@m_extInventory@
  00345	e8 00 00 00 00	 call	 ?GetStr@CQuery@@QAEXPAD0@Z ; CQuery::GetStr
; File C:\IAGOS\server\v18\Source\Source\_database\DbManager.h

; 1305 : 	int len		= strlen( lpString );

  0034a	8d 8d 98 f3 ff
	ff		 lea	 ecx, DWORD PTR _ExtInven$[ebp]
  00350	8d 51 01	 lea	 edx, DWORD PTR [ecx+1]
$LL130@GetInvento:
  00353	8a 01		 mov	 al, BYTE PTR [ecx]
  00355	41		 inc	 ecx
  00356	84 c0		 test	 al, al
  00358	75 f9		 jne	 SHORT $LL130@GetInvento
  0035a	2b ca		 sub	 ecx, edx

; 1306 : 	if( len > 0 && lpString[len-1] == '$' )

  0035c	85 c9		 test	 ecx, ecx
  0035e	0f 8e b0 04 00
	00		 jle	 $LN65@GetInvento
  00364	80 bc 0d 97 f3
	ff ff 24	 cmp	 BYTE PTR _ExtInven$[ebp+ecx-1], 36 ; 00000024H
  0036c	0f 85 a2 04 00
	00		 jne	 $LN65@GetInvento
; File C:\IAGOS\server\v18\Source\Source\_Database\DbManagerFun.cpp

; 797  : 	while( '$' != ExtInven[CountStr] )

  00372	80 bd 98 f3 ff
	ff 24		 cmp	 BYTE PTR _ExtInven$[ebp], 36 ; 00000024H
  00379	0f 84 12 01 00
	00		 je	 $LN9@GetInvento
  0037f	33 c9		 xor	 ecx, ecx
  00381	89 8d 80 bb ff
	ff		 mov	 DWORD PTR tv1209[ebp], ecx
  00387	66 0f 1f 84 00
	00 00 00 00	 npad	 9
$LL8@GetInvento:

; 798  : 	{
; 799  : 		pMover->m_Inventory.m_apItem[nExtInven].m_bCharged					= (BOOL)GetIntPaFromStr( ExtInven, &CountStr );

  00390	8b b7 c0 3b 00
	00		 mov	 esi, DWORD PTR [edi+15296]
  00396	8d 85 84 bb ff
	ff		 lea	 eax, DWORD PTR _CountStr$[ebp]
  0039c	50		 push	 eax
  0039d	8d 85 98 f3 ff
	ff		 lea	 eax, DWORD PTR _ExtInven$[ebp]
  003a3	03 f1		 add	 esi, ecx
  003a5	50		 push	 eax
  003a6	e8 00 00 00 00	 call	 ?GetIntPaFromStr@@YAHPADPAH@Z ; GetIntPaFromStr

; 800  : 		if( pMover->m_Inventory.m_apItem[nExtInven].m_bCharged != 1 )

  003ab	8b 8d 80 bb ff
	ff		 mov	 ecx, DWORD PTR tv1209[ebp]
  003b1	83 c4 08	 add	 esp, 8
  003b4	89 46 7c	 mov	 DWORD PTR [esi+124], eax
  003b7	8b 87 c0 3b 00
	00		 mov	 eax, DWORD PTR [edi+15296]
  003bd	83 7c 08 7c 01	 cmp	 DWORD PTR [eax+ecx+124], 1
  003c2	74 08		 je	 SHORT $LN26@GetInvento

; 801  : 			pMover->m_Inventory.m_apItem[nExtInven].m_bCharged	= 0;

  003c4	c7 44 08 7c 00
	00 00 00	 mov	 DWORD PTR [eax+ecx+124], 0
$LN26@GetInvento:

; 802  : 		pMover->m_Inventory.m_apItem[nExtInven].m_dwKeepTime				= (DWORD)GetIntPaFromStr( ExtInven, &CountStr );

  003cc	8b b7 c0 3b 00
	00		 mov	 esi, DWORD PTR [edi+15296]
  003d2	8d 85 84 bb ff
	ff		 lea	 eax, DWORD PTR _CountStr$[ebp]
  003d8	50		 push	 eax
  003d9	8d 85 98 f3 ff
	ff		 lea	 eax, DWORD PTR _ExtInven$[ebp]
  003df	03 f1		 add	 esi, ecx
  003e1	50		 push	 eax
  003e2	e8 00 00 00 00	 call	 ?GetIntPaFromStr@@YAHPADPAH@Z ; GetIntPaFromStr
  003e7	89 86 80 00 00
	00		 mov	 DWORD PTR [esi+128], eax

; 803  : #if __VER >= 11 // __SYS_IDENTIFY
; 804  : 		__int64 iRandomOptItemId	= GetInt64PaFromStr( ExtInven, &CountStr );

  003ed	8d 85 84 bb ff
	ff		 lea	 eax, DWORD PTR _CountStr$[ebp]
  003f3	50		 push	 eax
  003f4	8d 85 98 f3 ff
	ff		 lea	 eax, DWORD PTR _ExtInven$[ebp]
  003fa	50		 push	 eax
  003fb	e8 00 00 00 00	 call	 ?GetInt64PaFromStr@@YA_JPADPAH@Z ; GetInt64PaFromStr
  00400	8b f0		 mov	 esi, eax
  00402	83 c4 10	 add	 esp, 16			; 00000010H

; 805  : 		if( iRandomOptItemId == -102 )

  00405	83 fe 9a	 cmp	 esi, -102		; ffffff9aH
  00408	75 1c		 jne	 SHORT $LN27@GetInvento
  0040a	83 fa ff	 cmp	 edx, -1
  0040d	75 17		 jne	 SHORT $LN27@GetInvento

; 806  : 			iRandomOptItemId	= 0;

  0040f	0f 57 c0	 xorps	 xmm0, xmm0
  00412	66 0f 13 85 68
	bb ff ff	 movlpd	 QWORD PTR _iRandomOptItemId$2[ebp], xmm0
  0041a	8b 95 6c bb ff
	ff		 mov	 edx, DWORD PTR _iRandomOptItemId$2[ebp+4]
  00420	8b b5 68 bb ff
	ff		 mov	 esi, DWORD PTR _iRandomOptItemId$2[ebp]
$LN27@GetInvento:

; 807  : 		pMover->m_Inventory.m_apItem[nExtInven].SetRandomOptItemId( iRandomOptItemId );

  00426	8b 87 c0 3b 00
	00		 mov	 eax, DWORD PTR [edi+15296]
  0042c	8b 8d 80 bb ff
	ff		 mov	 ecx, DWORD PTR tv1209[ebp]
  00432	89 b4 08 88 00
	00 00		 mov	 DWORD PTR [eax+ecx+136], esi
  00439	89 94 08 8c 00
	00 00		 mov	 DWORD PTR [eax+ecx+140], edx

; 808  : #if __VER >= 15 // __PETVIS
; 809  : 		pMover->m_Inventory.m_apItem[nExtInven].m_bTranformVisPet = static_cast<BOOL>( GetIntPaFromStr( ExtInven, &CountStr ) );

  00440	8d 85 84 bb ff
	ff		 lea	 eax, DWORD PTR _CountStr$[ebp]
  00446	8b b7 c0 3b 00
	00		 mov	 esi, DWORD PTR [edi+15296]
  0044c	50		 push	 eax
  0044d	8d 85 98 f3 ff
	ff		 lea	 eax, DWORD PTR _ExtInven$[ebp]
  00453	03 f1		 add	 esi, ecx
  00455	50		 push	 eax
  00456	e8 00 00 00 00	 call	 ?GetIntPaFromStr@@YAHPADPAH@Z ; GetIntPaFromStr

; 810  : #endif // __PETVIS
; 811  : #else	// __SYS_IDENTIFY
; 812  : 		pMover->m_Inventory.m_apItem[nExtInven].SetRandomOptItemId( (DWORD)GetIntPaFromStr( ExtInven, &CountStr ) );
; 813  : #endif	// __SYS_IDENTIFY
; 814  : 		++CountStr; 	++nExtInven;

  0045b	8b 8d 80 bb ff
	ff		 mov	 ecx, DWORD PTR tv1209[ebp]
  00461	83 c4 08	 add	 esp, 8
  00464	89 86 94 00 00
	00		 mov	 DWORD PTR [esi+148], eax
  0046a	81 c1 98 00 00
	00		 add	 ecx, 152		; 00000098H
  00470	8b 85 84 bb ff
	ff		 mov	 eax, DWORD PTR _CountStr$[ebp]
  00476	40		 inc	 eax
  00477	89 8d 80 bb ff
	ff		 mov	 DWORD PTR tv1209[ebp], ecx
  0047d	89 85 84 bb ff
	ff		 mov	 DWORD PTR _CountStr$[ebp], eax
  00483	80 bc 05 98 f3
	ff ff 24	 cmp	 BYTE PTR _ExtInven$[ebp+eax], 36 ; 00000024H
  0048b	0f 85 ff fe ff
	ff		 jne	 $LL8@GetInvento
$LN9@GetInvento:

; 815  : 	}
; 816  : 
; 817  : 	CountStr	= 0;
; 818  : 	int nPirecingInven = 0;
; 819  : 	char PirecingInven[4000] = {0,};

  00491	68 a0 0f 00 00	 push	 4000			; 00000fa0H
  00496	8d 85 90 d3 ff
	ff		 lea	 eax, DWORD PTR _PirecingInven$[ebp]
  0049c	c7 85 84 bb ff
	ff 00 00 00 00	 mov	 DWORD PTR _CountStr$[ebp], 0
  004a6	6a 00		 push	 0
  004a8	50		 push	 eax
  004a9	e8 00 00 00 00	 call	 _memset

; 820  : 	qry->GetStr( "m_InventoryPiercing", PirecingInven );

  004ae	8b 8d 78 bb ff
	ff		 mov	 ecx, DWORD PTR _qry$GSCopy$1$[ebp]
  004b4	8d 85 90 d3 ff
	ff		 lea	 eax, DWORD PTR _PirecingInven$[ebp]
  004ba	83 c4 0c	 add	 esp, 12			; 0000000cH
  004bd	50		 push	 eax
  004be	68 00 00 00 00	 push	 OFFSET ??_C@_0BE@OAKPNEDM@m_InventoryPiercing@
  004c3	e8 00 00 00 00	 call	 ?GetStr@CQuery@@QAEXPAD0@Z ; CQuery::GetStr
; File C:\IAGOS\server\v18\Source\Source\_database\DbManager.h

; 1305 : 	int len		= strlen( lpString );

  004c8	8d 8d 90 d3 ff
	ff		 lea	 ecx, DWORD PTR _PirecingInven$[ebp]
  004ce	8d 51 01	 lea	 edx, DWORD PTR [ecx+1]
$LL131@GetInvento:
  004d1	8a 01		 mov	 al, BYTE PTR [ecx]
  004d3	41		 inc	 ecx
  004d4	84 c0		 test	 al, al
  004d6	75 f9		 jne	 SHORT $LL131@GetInvento
  004d8	2b ca		 sub	 ecx, edx

; 1306 : 	if( len > 0 && lpString[len-1] == '$' )

  004da	85 c9		 test	 ecx, ecx
  004dc	0f 8e 24 03 00
	00		 jle	 $LN69@GetInvento
  004e2	80 bc 0d 8f d3
	ff ff 24	 cmp	 BYTE PTR _PirecingInven$[ebp+ecx-1], 36 ; 00000024H
  004ea	0f 85 16 03 00
	00		 jne	 $LN69@GetInvento
; File C:\IAGOS\server\v18\Source\Source\_Database\DbManagerFun.cpp

; 822  : 	while( '$' != PirecingInven[CountStr] )

  004f0	80 bd 90 d3 ff
	ff 24		 cmp	 BYTE PTR _PirecingInven$[ebp], 36 ; 00000024H
  004f7	74 3f		 je	 SHORT $LN11@GetInvento
  004f9	33 f6		 xor	 esi, esi
  004fb	0f 1f 44 00 00	 npad	 5
$LL10@GetInvento:

; 823  : 	{
; 824  : #if __VER >= 12 // __EXT_PIERCING
; 825  : 		LoadPiercingInfo( pMover->m_Inventory.m_apItem[nPirecingInven], PirecingInven, &CountStr );

  00500	8b 8d 7c bb ff
	ff		 mov	 ecx, DWORD PTR _this$GSCopy$1$[ebp]
  00506	8d 85 84 bb ff
	ff		 lea	 eax, DWORD PTR _CountStr$[ebp]
  0050c	50		 push	 eax
  0050d	8d 85 90 d3 ff
	ff		 lea	 eax, DWORD PTR _PirecingInven$[ebp]
  00513	50		 push	 eax
  00514	8b 87 c0 3b 00
	00		 mov	 eax, DWORD PTR [edi+15296]
  0051a	03 c6		 add	 eax, esi
  0051c	50		 push	 eax
  0051d	e8 00 00 00 00	 call	 ?LoadPiercingInfo@CDbManager@@QAEXAAVCItemElem@@PADPAH@Z ; CDbManager::LoadPiercingInfo
  00522	8b 85 84 bb ff
	ff		 mov	 eax, DWORD PTR _CountStr$[ebp]

; 826  : #else // __EXT_PIERCING
; 827  : 		int nItemIdCount = 0;
; 828  : 		pMover->m_Inventory.m_apItem[nPirecingInven].SetPiercingSize( GetIntFromStr( PirecingInven, &CountStr ) );
; 829  : 		for( int i = 0 ; i < pMover->m_Inventory.m_apItem[nPirecingInven].GetPiercingSize(); ++i )
; 830  : 		{
; 831  : 			pMover->m_Inventory.m_apItem[nPirecingInven].SetPiercingItem( nItemIdCount, (DWORD)GetIntFromStr( PirecingInven, &CountStr ) );
; 832  : 			++nItemIdCount;
; 833  : 		}
; 834  : #endif // __EXT_PIERCING
; 835  : 		++nPirecingInven;

  00528	81 c6 98 00 00
	00		 add	 esi, 152		; 00000098H
  0052e	80 bc 05 90 d3
	ff ff 24	 cmp	 BYTE PTR _PirecingInven$[ebp+eax], 36 ; 00000024H
  00536	75 c8		 jne	 SHORT $LL10@GetInvento
$LN11@GetInvento:

; 836  : 	}
; 837  : 
; 838  : 	CountStr	= 0;
; 839  : 	int	nId	= 0;
; 840  : #ifdef __PET_1024
; 841  : 	char szPet[4200]	= { 0, };

  00538	68 68 10 00 00	 push	 4200			; 00001068H
  0053d	8d 85 30 e3 ff
	ff		 lea	 eax, DWORD PTR _szPet$[ebp]
  00543	c7 85 84 bb ff
	ff 00 00 00 00	 mov	 DWORD PTR _CountStr$[ebp], 0
  0054d	6a 00		 push	 0
  0054f	50		 push	 eax
  00550	e8 00 00 00 00	 call	 _memset

; 842  : #else	// __PET_1024
; 843  : 	char szPet[2688]	= { 0, };
; 844  : #endif	// __PET_1024
; 845  : 	qry->GetStr( "szInventoryPet", szPet );

  00555	8b 8d 78 bb ff
	ff		 mov	 ecx, DWORD PTR _qry$GSCopy$1$[ebp]
  0055b	8d 85 30 e3 ff
	ff		 lea	 eax, DWORD PTR _szPet$[ebp]
  00561	83 c4 0c	 add	 esp, 12			; 0000000cH
  00564	50		 push	 eax
  00565	68 00 00 00 00	 push	 OFFSET ??_C@_0P@GAFIDLHN@szInventoryPet@
  0056a	e8 00 00 00 00	 call	 ?GetStr@CQuery@@QAEXPAD0@Z ; CQuery::GetStr
; File C:\IAGOS\server\v18\Source\Source\_database\DbManager.h

; 1305 : 	int len		= strlen( lpString );

  0056f	8d 8d 30 e3 ff
	ff		 lea	 ecx, DWORD PTR _szPet$[ebp]
  00575	8d 51 01	 lea	 edx, DWORD PTR [ecx+1]
$LL132@GetInvento:
  00578	8a 01		 mov	 al, BYTE PTR [ecx]
  0057a	41		 inc	 ecx
  0057b	84 c0		 test	 al, al
  0057d	75 f9		 jne	 SHORT $LL132@GetInvento
  0057f	2b ca		 sub	 ecx, edx

; 1306 : 	if( len > 0 && lpString[len-1] == '$' )

  00581	85 c9		 test	 ecx, ecx
  00583	0f 8e 52 02 00
	00		 jle	 $LN73@GetInvento
  00589	80 bc 0d 2f e3
	ff ff 24	 cmp	 BYTE PTR _szPet$[ebp+ecx-1], 36 ; 00000024H
  00591	0f 85 44 02 00
	00		 jne	 $LN73@GetInvento
; File C:\IAGOS\server\v18\Source\Source\_Database\DbManagerFun.cpp

; 847  : 	while( '$' != szPet[CountStr] )

  00597	80 bd 30 e3 ff
	ff 24		 cmp	 BYTE PTR _szPet$[ebp], 36 ; 00000024H
  0059e	0f 84 2d 02 00
	00		 je	 $LN13@GetInvento
  005a4	33 f6		 xor	 esi, esi
  005a6	89 b5 80 bb ff
	ff		 mov	 DWORD PTR tv1199[ebp], esi
  005ac	0f 1f 40 00	 npad	 4
$LL12@GetInvento:

; 848  : 	{
; 849  : 		BOOL bPet	= (BOOL)GetIntFromStr( szPet, &CountStr );

  005b0	8d 85 84 bb ff
	ff		 lea	 eax, DWORD PTR _CountStr$[ebp]
  005b6	50		 push	 eax
  005b7	8d 85 30 e3 ff
	ff		 lea	 eax, DWORD PTR _szPet$[ebp]
  005bd	50		 push	 eax
  005be	e8 00 00 00 00	 call	 ?GetIntFromStr@@YAHPADPAH@Z ; GetIntFromStr
  005c3	83 c4 08	 add	 esp, 8

; 850  : 		if( bPet )

  005c6	85 c0		 test	 eax, eax
  005c8	0f 84 df 01 00
	00		 je	 $LN133@GetInvento

; 851  : 		{
; 852  : 			SAFE_DELETE( pMover->m_Inventory.m_apItem[nId].m_pPet );

  005ce	8b 87 c0 3b 00
	00		 mov	 eax, DWORD PTR [edi+15296]
  005d4	8b 8c 30 90 00
	00 00		 mov	 ecx, DWORD PTR [eax+esi+144]
  005db	85 c9		 test	 ecx, ecx
  005dd	74 17		 je	 SHORT $LN31@GetInvento
  005df	8b 01		 mov	 eax, DWORD PTR [ecx]
  005e1	6a 01		 push	 1
  005e3	ff 10		 call	 DWORD PTR [eax]
  005e5	8b 87 c0 3b 00
	00		 mov	 eax, DWORD PTR [edi+15296]
  005eb	c7 84 30 90 00
	00 00 00 00 00
	00		 mov	 DWORD PTR [eax+esi+144], 0
$LN31@GetInvento:

; 853  : 			CPet* pPet	= pMover->m_Inventory.m_apItem[nId].m_pPet		= new CPet;

  005f6	6a 28		 push	 40			; 00000028H
  005f8	e8 00 00 00 00	 call	 ??2@YAPAXI@Z		; operator new
  005fd	83 c4 04	 add	 esp, 4
  00600	89 85 78 bb ff
	ff		 mov	 DWORD PTR $T4[ebp], eax
  00606	c7 45 fc 01 00
	00 00		 mov	 DWORD PTR __$EHRec$[ebp+8], 1
  0060d	85 c0		 test	 eax, eax
  0060f	74 3b		 je	 SHORT $LN37@GetInvento
  00611	8b c8		 mov	 ecx, eax
  00613	e8 00 00 00 00	 call	 ??0CPet@@QAE@XZ		; CPet::CPet
  00618	8b f8		 mov	 edi, eax
  0061a	eb 32		 jmp	 SHORT $LN38@GetInvento
$LN87@GetInvento:

; 761  : 			{
; 762  : 				Error( "Join::Inventory : << IndexItem %s, %d", pMover->m_szName, IndexItem );

  0061c	50		 push	 eax
  0061d	56		 push	 esi
  0061e	68 00 00 00 00	 push	 OFFSET ??_C@_0CG@KLFMFNBG@Join?3?3Inventory?5?3?5?$DM?$DM?5IndexItem?5@
  00623	e8 00 00 00 00	 call	 ?Error@@YAPBDPBDZZ	; Error

; 763  : 				Error( "Inventory = %s", Inven );

  00628	8d 85 20 bc ff
	ff		 lea	 eax, DWORD PTR _Inven$[ebp]
  0062e	50		 push	 eax
  0062f	68 00 00 00 00	 push	 OFFSET ??_C@_0P@FEOHFPFP@Inventory?5?$DN?5?$CFs@
  00634	e8 00 00 00 00	 call	 ?Error@@YAPBDPBDZZ	; Error
  00639	83 c4 14	 add	 esp, 20			; 00000014H

; 764  : 				return FALSE;

  0063c	8d 8d 88 bb ff
	ff		 lea	 ecx, DWORD PTR _BufItemElem$5[ebp]
  00642	e8 00 00 00 00	 call	 ??1CItemElem@@UAE@XZ	; CItemElem::~CItemElem
  00647	e9 20 02 00 00	 jmp	 $LN119@GetInvento
$LN37@GetInvento:

; 853  : 			CPet* pPet	= pMover->m_Inventory.m_apItem[nId].m_pPet		= new CPet;

  0064c	33 ff		 xor	 edi, edi
$LN38@GetInvento:
  0064e	8b 85 70 bb ff
	ff		 mov	 eax, DWORD PTR _pMover$GSCopy$1$[ebp]
  00654	c7 45 fc ff ff
	ff ff		 mov	 DWORD PTR __$EHRec$[ebp+8], -1
  0065b	8b 80 c0 3b 00
	00		 mov	 eax, DWORD PTR [eax+15296]
  00661	89 bc 30 90 00
	00 00		 mov	 DWORD PTR [eax+esi+144], edi

; 854  : 			BYTE nKind	= (BYTE)GetIntFromStr( szPet, &CountStr );

  00668	8d 85 84 bb ff
	ff		 lea	 eax, DWORD PTR _CountStr$[ebp]
  0066e	50		 push	 eax
  0066f	8d 85 30 e3 ff
	ff		 lea	 eax, DWORD PTR _szPet$[ebp]
  00675	50		 push	 eax
  00676	e8 00 00 00 00	 call	 ?GetIntFromStr@@YAHPADPAH@Z ; GetIntFromStr

; 855  : 			pPet->SetKind( nKind );

  0067b	88 47 04	 mov	 BYTE PTR [edi+4], al

; 856  : 			BYTE nLevel	= (BYTE)GetIntFromStr( szPet, &CountStr );

  0067e	8d 85 84 bb ff
	ff		 lea	 eax, DWORD PTR _CountStr$[ebp]
  00684	50		 push	 eax
  00685	8d 85 30 e3 ff
	ff		 lea	 eax, DWORD PTR _szPet$[ebp]
  0068b	50		 push	 eax
  0068c	e8 00 00 00 00	 call	 ?GetIntFromStr@@YAHPADPAH@Z ; GetIntFromStr

; 857  : 			pPet->SetLevel( nLevel );

  00691	88 47 05	 mov	 BYTE PTR [edi+5], al

; 858  : 			DWORD dwExp	= (DWORD)GetIntFromStr( szPet, &CountStr );

  00694	8d 85 84 bb ff
	ff		 lea	 eax, DWORD PTR _CountStr$[ebp]
  0069a	50		 push	 eax
  0069b	8d 85 30 e3 ff
	ff		 lea	 eax, DWORD PTR _szPet$[ebp]
  006a1	50		 push	 eax
  006a2	e8 00 00 00 00	 call	 ?GetIntFromStr@@YAHPADPAH@Z ; GetIntFromStr
  006a7	83 c4 18	 add	 esp, 24			; 00000018H

; 859  : 			pPet->SetExp( dwExp );

  006aa	8b cf		 mov	 ecx, edi
  006ac	50		 push	 eax
  006ad	e8 00 00 00 00	 call	 ?SetExp@CPet@@QAEXK@Z	; CPet::SetExp

; 860  : 			WORD wEnergy	= (WORD)GetIntFromStr( szPet, &CountStr );

  006b2	8d 85 84 bb ff
	ff		 lea	 eax, DWORD PTR _CountStr$[ebp]
  006b8	50		 push	 eax
  006b9	8d 85 30 e3 ff
	ff		 lea	 eax, DWORD PTR _szPet$[ebp]
  006bf	50		 push	 eax
  006c0	e8 00 00 00 00	 call	 ?GetIntFromStr@@YAHPADPAH@Z ; GetIntFromStr
  006c5	83 c4 08	 add	 esp, 8
  006c8	0f b7 c0	 movzx	 eax, ax

; 861  : 			pPet->SetEnergy( wEnergy );

  006cb	8b cf		 mov	 ecx, edi
  006cd	50		 push	 eax
  006ce	e8 00 00 00 00	 call	 ?SetEnergy@CPet@@QAEXG@Z ; CPet::SetEnergy

; 862  : #ifdef __PET_1024
; 863  : 			WORD wLife	= (WORD)GetIntPaFromStr( szPet, &CountStr );

  006d3	8d 85 84 bb ff
	ff		 lea	 eax, DWORD PTR _CountStr$[ebp]
  006d9	50		 push	 eax
  006da	8d 85 30 e3 ff
	ff		 lea	 eax, DWORD PTR _szPet$[ebp]
  006e0	50		 push	 eax
  006e1	e8 00 00 00 00	 call	 ?GetIntPaFromStr@@YAHPADPAH@Z ; GetIntPaFromStr
  006e6	83 c4 08	 add	 esp, 8

; 864  : 			pPet->SetLife( wLife );

  006e9	66 89 47 0e	 mov	 WORD PTR [edi+14], ax

; 865  : 			for( int i = PL_D; i <= pPet->GetLevel(); i++ )

  006ed	80 7f 05 01	 cmp	 BYTE PTR [edi+5], 1
  006f1	be 01 00 00 00	 mov	 esi, 1
  006f6	72 3b		 jb	 SHORT $LN15@GetInvento
  006f8	0f 1f 84 00 00
	00 00 00	 npad	 8
$LL16@GetInvento:

; 866  : 			{
; 867  : 				BYTE nAvailLevel	= (BYTE)GetIntPaFromStr( szPet, &CountStr );

  00700	8d 85 84 bb ff
	ff		 lea	 eax, DWORD PTR _CountStr$[ebp]
  00706	50		 push	 eax
  00707	8d 85 30 e3 ff
	ff		 lea	 eax, DWORD PTR _szPet$[ebp]
  0070d	50		 push	 eax
  0070e	e8 00 00 00 00	 call	 ?GetIntPaFromStr@@YAHPADPAH@Z ; GetIntPaFromStr
  00713	83 c4 08	 add	 esp, 8
  00716	88 85 74 bb ff
	ff		 mov	 BYTE PTR _nAvailLevel$3[ebp], al

; 868  : 				pPet->SetAvailLevel( i, nAvailLevel );

  0071c	8b cf		 mov	 ecx, edi
  0071e	ff b5 74 bb ff
	ff		 push	 DWORD PTR _nAvailLevel$3[ebp]
  00724	56		 push	 esi
  00725	e8 00 00 00 00	 call	 ?SetAvailLevel@CPet@@QAEXEE@Z ; CPet::SetAvailLevel
  0072a	0f b6 47 05	 movzx	 eax, BYTE PTR [edi+5]
  0072e	46		 inc	 esi
  0072f	3b f0		 cmp	 esi, eax
  00731	7e cd		 jle	 SHORT $LL16@GetInvento
$LN15@GetInvento:
; File C:\IAGOS\server\v18\Source\Source\_network\CmnHdr.h

; 106  : 	while(pBuf[*pLocation]!=',' && pBuf[*pLocation]!='/' && pBuf[*pLocation]!=0) {

  00733	8b b5 84 bb ff
	ff		 mov	 esi, DWORD PTR _CountStr$[ebp]
  00739	0f 57 c0	 xorps	 xmm0, xmm0

; 101  : }
; 102  : 
; 103  : inline void GetStrFromStr(char *pBuf, char *strReturn, int *pLocation)
; 104  : {
; 105  : 	int count=0;

  0073c	33 c9		 xor	 ecx, ecx
; File C:\IAGOS\server\v18\Source\Source\_Database\DbManagerFun.cpp

; 870  : 			char szFmt[MAX_PET_NAME_FMT]	= { 0,};

  0073e	c6 45 d8 00	 mov	 BYTE PTR _szFmt$7[ebp+32], 0
  00742	0f 11 45 b8	 movups	 XMMWORD PTR _szFmt$7[ebp], xmm0
; File C:\IAGOS\server\v18\Source\Source\_network\CmnHdr.h

; 106  : 	while(pBuf[*pLocation]!=',' && pBuf[*pLocation]!='/' && pBuf[*pLocation]!=0) {

  00746	8a 84 35 30 e3
	ff ff		 mov	 al, BYTE PTR _szPet$[ebp+esi]
; File C:\IAGOS\server\v18\Source\Source\_Database\DbManagerFun.cpp

; 870  : 			char szFmt[MAX_PET_NAME_FMT]	= { 0,};

  0074d	0f 11 45 c8	 movups	 XMMWORD PTR _szFmt$7[ebp+16], xmm0
; File C:\IAGOS\server\v18\Source\Source\_network\CmnHdr.h

; 106  : 	while(pBuf[*pLocation]!=',' && pBuf[*pLocation]!='/' && pBuf[*pLocation]!=0) {

  00751	3c 2c		 cmp	 al, 44			; 0000002cH
  00753	74 19		 je	 SHORT $LN62@GetInvento
$LL61@GetInvento:
  00755	3c 2f		 cmp	 al, 47			; 0000002fH
  00757	74 15		 je	 SHORT $LN62@GetInvento
  00759	84 c0		 test	 al, al
  0075b	74 11		 je	 SHORT $LN62@GetInvento

; 107  : 		strReturn[count]=pBuf[*pLocation];
; 108  : 		count++; (*pLocation)++;

  0075d	46		 inc	 esi
  0075e	88 44 0d b8	 mov	 BYTE PTR _szFmt$7[ebp+ecx], al
  00762	41		 inc	 ecx
  00763	8a 84 35 30 e3
	ff ff		 mov	 al, BYTE PTR _szPet$[ebp+esi]
  0076a	3c 2c		 cmp	 al, 44			; 0000002cH
  0076c	75 e7		 jne	 SHORT $LL61@GetInvento
$LN62@GetInvento:
; File C:\IAGOS\server\v18\Source\Source\_Database\DbManagerFun.cpp

; 873  : 			GetDBFormatStr( szName, MAX_PET_NAME, szFmt );

  0076e	8d 45 b8	 lea	 eax, DWORD PTR _szFmt$7[ebp]
; File C:\IAGOS\server\v18\Source\Source\_network\CmnHdr.h

; 110  : 	strReturn[count]=0;(*pLocation)++;

  00771	c6 44 0d b8 00	 mov	 BYTE PTR _szFmt$7[ebp+ecx], 0
; File C:\IAGOS\server\v18\Source\Source\_Database\DbManagerFun.cpp

; 873  : 			GetDBFormatStr( szName, MAX_PET_NAME, szFmt );

  00776	8b 8d 7c bb ff
	ff		 mov	 ecx, DWORD PTR _this$GSCopy$1$[ebp]
  0077c	0f 57 c0	 xorps	 xmm0, xmm0
  0077f	50		 push	 eax
  00780	6a 11		 push	 17			; 00000011H
  00782	8d 45 dc	 lea	 eax, DWORD PTR _szName$8[ebp]
  00785	c6 45 ec 00	 mov	 BYTE PTR _szName$8[ebp+16], 0
; File C:\IAGOS\server\v18\Source\Source\_network\CmnHdr.h

; 110  : 	strReturn[count]=0;(*pLocation)++;

  00789	46		 inc	 esi
; File C:\IAGOS\server\v18\Source\Source\_Database\DbManagerFun.cpp

; 873  : 			GetDBFormatStr( szName, MAX_PET_NAME, szFmt );

  0078a	50		 push	 eax
; File C:\IAGOS\server\v18\Source\Source\_network\CmnHdr.h

; 110  : 	strReturn[count]=0;(*pLocation)++;

  0078b	89 b5 84 bb ff
	ff		 mov	 DWORD PTR _CountStr$[ebp], esi
; File C:\IAGOS\server\v18\Source\Source\_Database\DbManagerFun.cpp

; 872  : 			char szName[MAX_PET_NAME]	= { 0,};

  00791	0f 11 45 dc	 movups	 XMMWORD PTR _szName$8[ebp], xmm0

; 873  : 			GetDBFormatStr( szName, MAX_PET_NAME, szFmt );

  00795	e8 00 00 00 00	 call	 ?GetDBFormatStr@CDbManager@@AAEXPADHPBD@Z ; CDbManager::GetDBFormatStr

; 874  : 			pPet->SetName( szName );

  0079a	8d 45 dc	 lea	 eax, DWORD PTR _szName$8[ebp]
  0079d	8b cf		 mov	 ecx, edi
  0079f	50		 push	 eax
  007a0	e8 00 00 00 00	 call	 ?SetName@CPet@@QAEXPBD@Z ; CPet::SetName
  007a5	8b bd 70 bb ff
	ff		 mov	 edi, DWORD PTR _pMover$GSCopy$1$[ebp]
  007ab	eb 06		 jmp	 SHORT $LN30@GetInvento
$LN133@GetInvento:

; 850  : 		if( bPet )

  007ad	8b b5 84 bb ff
	ff		 mov	 esi, DWORD PTR _CountStr$[ebp]
$LN30@GetInvento:

; 875  : #else	// __PET_1024
; 876  : 			WORD wLife	= (WORD)GetIntFromStr( szPet, &CountStr );
; 877  : 			pPet->SetLife( wLife );
; 878  : 			for( int i = PL_D; i <= pPet->GetLevel(); i++ )
; 879  : 			{
; 880  : 				BYTE nAvailLevel	= (BYTE)GetIntFromStr( szPet, &CountStr );
; 881  : 				pPet->SetAvailLevel( i, nAvailLevel );
; 882  : 			}
; 883  : #endif	// __PET_1024
; 884  : 		}
; 885  : 		nId++;

  007b3	81 85 80 bb ff
	ff 98 00 00 00	 add	 DWORD PTR tv1199[ebp], 152 ; 00000098H
  007bd	80 bc 35 30 e3
	ff ff 24	 cmp	 BYTE PTR _szPet$[ebp+esi], 36 ; 00000024H
  007c5	8b b5 80 bb ff
	ff		 mov	 esi, DWORD PTR tv1199[ebp]
  007cb	0f 85 df fd ff
	ff		 jne	 $LL12@GetInvento
$LN13@GetInvento:

; 886  : 	}
; 887  : 	return TRUE;

  007d1	b8 01 00 00 00	 mov	 eax, 1
  007d6	e9 93 00 00 00	 jmp	 $LN1@GetInvento
$LN73@GetInvento:
; File C:\IAGOS\server\v18\Source\Source\_database\DbManager.h

; 1308 : 	WriteLog( "%s, %d\t%s", lpFileName, nLine, lpName );

  007db	8d 85 68 ff ff
	ff		 lea	 eax, DWORD PTR _szPlayerName$[ebp]
  007e1	50		 push	 eax
  007e2	68 4e 03 00 00	 push	 846			; 0000034eH
$LN138@GetInvento:
; File C:\IAGOS\server\v18\Source\Source\_Database\DbManagerFun.cpp

; 888  : }

  007e7	68 00 00 00 00	 push	 OFFSET ??_C@_0DN@JBKLBOHO@C?3?2IAGOS?2server?2v18?2Source?2Sour@
  007ec	68 00 00 00 00	 push	 OFFSET ??_C@_09GBAEEKDE@?$CFs?0?5?$CFd?7?$CFs@
  007f1	e8 00 00 00 00	 call	 ?WriteLog@@YAXPBDZZ	; WriteLog
  007f6	8b 85 74 bb ff
	ff		 mov	 eax, DWORD PTR _lpDbOverlappedPlus$GSCopy$1$[ebp]
  007fc	83 c4 10	 add	 esp, 16			; 00000010H
  007ff	85 c0		 test	 eax, eax
  00801	74 69		 je	 SHORT $LN119@GetInvento
  00803	50		 push	 eax
  00804	eb 5b		 jmp	 SHORT $LN137@GetInvento
$LN69@GetInvento:
; File C:\IAGOS\server\v18\Source\Source\_database\DbManager.h

; 1308 : 	WriteLog( "%s, %d\t%s", lpFileName, nLine, lpName );

  00806	8d 85 68 ff ff
	ff		 lea	 eax, DWORD PTR _szPlayerName$[ebp]
  0080c	50		 push	 eax
  0080d	68 35 03 00 00	 push	 821			; 00000335H
  00812	eb d3		 jmp	 SHORT $LN138@GetInvento
$LN65@GetInvento:
  00814	8d 85 68 ff ff
	ff		 lea	 eax, DWORD PTR _szPlayerName$[ebp]
  0081a	50		 push	 eax
  0081b	68 1c 03 00 00	 push	 796			; 0000031cH
  00820	eb c5		 jmp	 SHORT $LN138@GetInvento
$LN57@GetInvento:
  00822	8d 85 68 ff ff
	ff		 lea	 eax, DWORD PTR _szPlayerName$[ebp]
  00828	50		 push	 eax
  00829	68 11 03 00 00	 push	 785			; 00000311H
  0082e	eb b7		 jmp	 SHORT $LN138@GetInvento
$LN53@GetInvento:
  00830	8d 85 68 ff ff
	ff		 lea	 eax, DWORD PTR _szPlayerName$[ebp]
  00836	50		 push	 eax
  00837	68 06 03 00 00	 push	 774			; 00000306H
  0083c	eb a9		 jmp	 SHORT $LN138@GetInvento
$LN49@GetInvento:
  0083e	8d 85 68 ff ff
	ff		 lea	 eax, DWORD PTR _szPlayerName$[ebp]
  00844	50		 push	 eax
  00845	68 ed 02 00 00	 push	 749			; 000002edH
  0084a	68 00 00 00 00	 push	 OFFSET ??_C@_0DN@JBKLBOHO@C?3?2IAGOS?2server?2v18?2Source?2Sour@
  0084f	68 00 00 00 00	 push	 OFFSET ??_C@_09GBAEEKDE@?$CFs?0?5?$CFd?7?$CFs@
  00854	e8 00 00 00 00	 call	 ?WriteLog@@YAXPBDZZ	; WriteLog
  00859	83 c4 10	 add	 esp, 16			; 00000010H

; 1309 : 	if( NULL != lpOverlapped )

  0085c	85 f6		 test	 esi, esi
  0085e	74 0c		 je	 SHORT $LN119@GetInvento

; 1310 : 		FreeRequest( lpOverlapped );

  00860	56		 push	 esi
$LN137@GetInvento:
; File C:\IAGOS\server\v18\Source\Source\_Database\DbManagerFun.cpp

; 888  : }

  00861	8b 8d 7c bb ff
	ff		 mov	 ecx, DWORD PTR _this$GSCopy$1$[ebp]
  00867	e8 00 00 00 00	 call	 ?FreeRequest@CDbManager@@QAEXPAUtagDB_OVERLAPPED_PLUS@@@Z ; CDbManager::FreeRequest
$LN119@GetInvento:
  0086c	33 c0		 xor	 eax, eax
$LN1@GetInvento:
  0086e	8b 4d f4	 mov	 ecx, DWORD PTR __$EHRec$[ebp]
  00871	64 89 0d 00 00
	00 00		 mov	 DWORD PTR fs:0, ecx
  00878	59		 pop	 ecx
  00879	5f		 pop	 edi
  0087a	5e		 pop	 esi
  0087b	8b 4d f0	 mov	 ecx, DWORD PTR __$ArrayPad$[ebp]
  0087e	33 cd		 xor	 ecx, ebp
  00880	e8 00 00 00 00	 call	 @__security_check_cookie@4
  00885	8b e5		 mov	 esp, ebp
  00887	5d		 pop	 ebp
  00888	c2 0c 00	 ret	 12			; 0000000cH
$LN45@GetInvento:
; File C:\IAGOS\server\v18\Source\Source\_network\CmnHdr.h

; 99   : 	strTemp[count]=0;(*pLocation)++;

  0088b	e8 00 00 00 00	 call	 ___report_rangecheckfailure
$LN136@GetInvento:
  00890	cc		 int	 3
_TEXT	ENDS
;	COMDAT text$x
text$x	SEGMENT
__unwindfunclet$?GetInventory@CDbManager@@QAEHPAVCMover@@PAVCQuery@@PAUtagDB_OVERLAPPED_PLUS@@@Z$0:
  00000	8d 8d 88 bb ff
	ff		 lea	 ecx, DWORD PTR _BufItemElem$5[ebp]
  00006	e9 00 00 00 00	 jmp	 ??1CItemElem@@UAE@XZ	; CItemElem::~CItemElem
__unwindfunclet$?GetInventory@CDbManager@@QAEHPAVCMover@@PAVCQuery@@PAUtagDB_OVERLAPPED_PLUS@@@Z$1:
  0000b	6a 28		 push	 40			; 00000028H
  0000d	8b 85 78 bb ff
	ff		 mov	 eax, DWORD PTR $T4[ebp]
  00013	50		 push	 eax
  00014	e8 00 00 00 00	 call	 ??3@YAXPAXI@Z		; operator delete
  00019	83 c4 08	 add	 esp, 8
  0001c	c3		 ret	 0
  0001d	cc		 int	 3
  0001e	cc		 int	 3
  0001f	cc		 int	 3
  00020	cc		 int	 3
  00021	cc		 int	 3
__ehhandler$?GetInventory@CDbManager@@QAEHPAVCMover@@PAVCQuery@@PAUtagDB_OVERLAPPED_PLUS@@@Z:
  00022	90		 npad	 1
  00023	90		 npad	 1
  00024	8b 54 24 08	 mov	 edx, DWORD PTR [esp+8]
  00028	8d 42 0c	 lea	 eax, DWORD PTR [edx+12]
  0002b	8b 8a 68 bb ff
	ff		 mov	 ecx, DWORD PTR [edx-17560]
  00031	33 c8		 xor	 ecx, eax
  00033	e8 00 00 00 00	 call	 @__security_check_cookie@4
  00038	8b 4a fc	 mov	 ecx, DWORD PTR [edx-4]
  0003b	33 c8		 xor	 ecx, eax
  0003d	e8 00 00 00 00	 call	 @__security_check_cookie@4
  00042	b8 00 00 00 00	 mov	 eax, OFFSET __ehfuncinfo$?GetInventory@CDbManager@@QAEHPAVCMover@@PAVCQuery@@PAUtagDB_OVERLAPPED_PLUS@@@Z
  00047	e9 00 00 00 00	 jmp	 ___CxxFrameHandler3
text$x	ENDS
?GetInventory@CDbManager@@QAEHPAVCMover@@PAVCQuery@@PAUtagDB_OVERLAPPED_PLUS@@@Z ENDP ; CDbManager::GetInventory
; Function compile flags: /Ogtp
; File C:\IAGOS\server\v18\Source\Source\_Database\DbManagerFun.cpp
; File C:\IAGOS\server\v18\Source\Source\_database\DbManager.h
; File C:\IAGOS\server\v18\Source\Source\_Database\DbManagerFun.cpp
; File C:\IAGOS\server\v18\Source\Source\_network\CmnHdr.h
; File C:\IAGOS\server\v18\Source\Source\_Database\DbManagerFun.cpp
; File C:\IAGOS\server\v18\Source\Source\_network\CmnHdr.h
; File C:\IAGOS\server\v18\Source\Source\_Database\DbManagerFun.cpp
; File C:\IAGOS\server\v18\Source\Source\_network\CmnHdr.h
; File C:\IAGOS\server\v18\Source\Source\_Database\DbManagerFun.cpp
; File C:\IAGOS\server\v18\Source\Source\_network\CmnHdr.h
; File C:\IAGOS\server\v18\Source\Source\_Database\DbManagerFun.cpp
; File C:\IAGOS\server\v18\Source\Source\_network\CmnHdr.h
; File C:\IAGOS\server\v18\Source\Source\_Database\DbManagerFun.cpp
; File C:\IAGOS\server\v18\Source\Source\_network\CmnHdr.h
; File C:\IAGOS\server\v18\Source\Source\_Database\DbManagerFun.cpp
; File C:\IAGOS\server\v18\Source\Source\_database\DbManager.h
; File C:\IAGOS\server\v18\Source\Source\_Database\DbManagerFun.cpp
; File C:\IAGOS\server\v18\Source\Source\_database\DbManager.h
; File C:\IAGOS\server\v18\Source\Source\_Database\DbManagerFun.cpp
;	COMDAT ?GetBank@CDbManager@@QAEHPAVCMover@@PAVCQuery@@PAUtagDB_OVERLAPPED_PLUS@@H@Z
_TEXT	SEGMENT
_iRandomOptItemId$2 = -18984				; size = 8
$T3 = -18980						; size = 4
_nAvailLevel$4 = -18976					; size = 1
_nSlot$GSCopy$1$ = -18972				; size = 4
_pMover$GSCopy$1$ = -18968				; size = 4
tv988 = -18964						; size = 4
tv985 = -18964						; size = 4
_dwGold$1$ = -18964					; size = 4
tv1009 = -18964						; size = 4
tv990 = -18964						; size = 4
_this$GSCopy$1$ = -18960				; size = 4
tv948 = -18956						; size = 4
tv989 = -18956						; size = 4
_uPlayerid$1$ = -18956					; size = 4
tv969 = -18952						; size = 4
tv972 = -18952						; size = 4
tv976 = -18952						; size = 4
_CountStr$ = -18952					; size = 4
_lpDbOverlappedPlus$GSCopy$1$ = -18952			; size = 4
tv963 = -18952						; size = 4
tv966 = -18952						; size = 4
_BufItemElem$5 = -18948					; size = 152
_Bank$ = -18796						; size = 7500
_PirecingBank$ = -11296					; size = 4000
_szPet$ = -7296						; size = 4200
_ExtBank$ = -3096					; size = 2000
_ObjIndexBank$ = -1096					; size = 512
_m_apIndexBank$ = -584					; size = 512
_szFmt$6 = -72						; size = 33
_szName$7 = -36						; size = 17
__$ArrayPad$ = -16					; size = 4
__$EHRec$ = -12						; size = 12
_pMover$ = 8						; size = 4
_qry$ = 12						; size = 4
_lpDbOverlappedPlus$ = 16				; size = 4
_nSlot$ = 20						; size = 4
?GetBank@CDbManager@@QAEHPAVCMover@@PAVCQuery@@PAUtagDB_OVERLAPPED_PLUS@@H@Z PROC ; CDbManager::GetBank, COMDAT
; _this$ = ecx

; 166  : {

  00000	55		 push	 ebp
  00001	8b ec		 mov	 ebp, esp
  00003	6a ff		 push	 -1
  00005	68 00 00 00 00	 push	 __ehhandler$?GetBank@CDbManager@@QAEHPAVCMover@@PAVCQuery@@PAUtagDB_OVERLAPPED_PLUS@@H@Z
  0000a	64 a1 00 00 00
	00		 mov	 eax, DWORD PTR fs:0
  00010	50		 push	 eax
  00011	b8 1c 4a 00 00	 mov	 eax, 18972		; 00004a1cH
  00016	e8 00 00 00 00	 call	 __chkstk
  0001b	a1 00 00 00 00	 mov	 eax, DWORD PTR ___security_cookie
  00020	33 c5		 xor	 eax, ebp
  00022	89 45 f0	 mov	 DWORD PTR __$ArrayPad$[ebp], eax
  00025	56		 push	 esi
  00026	57		 push	 edi
  00027	50		 push	 eax
  00028	8d 45 f4	 lea	 eax, DWORD PTR __$EHRec$[ebp]
  0002b	64 a3 00 00 00
	00		 mov	 DWORD PTR fs:0, eax
  00031	89 8d f0 b5 ff
	ff		 mov	 DWORD PTR _this$GSCopy$1$[ebp], ecx
  00037	8b 45 08	 mov	 eax, DWORD PTR _pMover$[ebp]
  0003a	8b 7d 14	 mov	 edi, DWORD PTR _nSlot$[ebp]
  0003d	8b 75 0c	 mov	 esi, DWORD PTR _qry$[ebp]
  00040	89 85 e8 b5 ff
	ff		 mov	 DWORD PTR _pMover$GSCopy$1$[ebp], eax
  00046	8b 45 10	 mov	 eax, DWORD PTR _lpDbOverlappedPlus$[ebp]

; 167  : 	int CountStr				= 0;
; 168  : 	int itemCount				= 0;
; 169  : 	int	IndexItem				= 0;
; 170  : 	int IndexObjIndex			= 0;
; 171  : 	int nExtBankCount			= 0;
; 172  : 	int nPirecingBankCount		= 0;
; 173  : 	char Bank[7500]				= { 0, };

  00049	68 4c 1d 00 00	 push	 7500			; 00001d4cH
  0004e	89 85 f8 b5 ff
	ff		 mov	 DWORD PTR _lpDbOverlappedPlus$GSCopy$1$[ebp], eax
  00054	8d 85 94 b6 ff
	ff		 lea	 eax, DWORD PTR _Bank$[ebp]
  0005a	6a 00		 push	 0
  0005c	50		 push	 eax
  0005d	89 bd e4 b5 ff
	ff		 mov	 DWORD PTR _nSlot$GSCopy$1$[ebp], edi
  00063	e8 00 00 00 00	 call	 _memset

; 174  : 	char m_apIndexBank[512]		= { 0, };

  00068	68 00 02 00 00	 push	 512			; 00000200H
  0006d	8d 85 b8 fd ff
	ff		 lea	 eax, DWORD PTR _m_apIndexBank$[ebp]
  00073	6a 00		 push	 0
  00075	50		 push	 eax
  00076	e8 00 00 00 00	 call	 _memset

; 175  : 	char ObjIndexBank[512]		= { 0, };

  0007b	68 00 02 00 00	 push	 512			; 00000200H
  00080	8d 85 b8 fb ff
	ff		 lea	 eax, DWORD PTR _ObjIndexBank$[ebp]
  00086	6a 00		 push	 0
  00088	50		 push	 eax
  00089	e8 00 00 00 00	 call	 _memset

; 176  : 	char ExtBank[2000]			= {0,};	

  0008e	68 d0 07 00 00	 push	 2000			; 000007d0H
  00093	8d 85 e8 f3 ff
	ff		 lea	 eax, DWORD PTR _ExtBank$[ebp]
  00099	6a 00		 push	 0
  0009b	50		 push	 eax
  0009c	e8 00 00 00 00	 call	 _memset

; 177  : 	char PirecingBank[4000]		= {0,};

  000a1	68 a0 0f 00 00	 push	 4000			; 00000fa0H
  000a6	8d 85 e0 d3 ff
	ff		 lea	 eax, DWORD PTR _PirecingBank$[ebp]
  000ac	6a 00		 push	 0
  000ae	50		 push	 eax
  000af	e8 00 00 00 00	 call	 _memset

; 178  : #ifdef __PET_1024
; 179  : 	char szPet[4200]	= { 0,};

  000b4	68 68 10 00 00	 push	 4200			; 00001068H
  000b9	8d 85 80 e3 ff
	ff		 lea	 eax, DWORD PTR _szPet$[ebp]
  000bf	6a 00		 push	 0
  000c1	50		 push	 eax
  000c2	e8 00 00 00 00	 call	 _memset
  000c7	83 c4 48	 add	 esp, 72			; 00000048H

; 180  : #else	// __PET_1024
; 181  : 	char szPet[2688]	= { 0,};
; 182  : #endif	// __PET_1024
; 183  : 
; 184  : 	u_long uPlayerid	= (u_long)qry->GetInt( "m_idPlayer" );

  000ca	8b ce		 mov	 ecx, esi
  000cc	68 00 00 00 00	 push	 OFFSET ??_C@_0L@FONFFEJF@m_idPlayer@
  000d1	e8 00 00 00 00	 call	 ?GetInt@CQuery@@QAEHPAD@Z ; CQuery::GetInt

; 185  : 	DWORD dwGold = qry->GetInt( "m_dwGoldBank" );

  000d6	68 00 00 00 00	 push	 OFFSET ??_C@_0N@KIBMFHG@m_dwGoldBank@
  000db	8b ce		 mov	 ecx, esi
  000dd	89 85 f4 b5 ff
	ff		 mov	 DWORD PTR _uPlayerid$1$[ebp], eax
  000e3	e8 00 00 00 00	 call	 ?GetInt@CQuery@@QAEHPAD@Z ; CQuery::GetInt
  000e8	89 85 ec b5 ff
	ff		 mov	 DWORD PTR _dwGold$1$[ebp], eax

; 186  : 
; 187  : 	qry->GetStr( "m_Bank", Bank );

  000ee	8b ce		 mov	 ecx, esi
  000f0	8d 85 94 b6 ff
	ff		 lea	 eax, DWORD PTR _Bank$[ebp]
  000f6	50		 push	 eax
  000f7	68 00 00 00 00	 push	 OFFSET ??_C@_06BAMDHIIP@m_Bank@
  000fc	e8 00 00 00 00	 call	 ?GetStr@CQuery@@QAEXPAD0@Z ; CQuery::GetStr

; 188  : 	qry->GetStr( "m_apIndex_Bank", m_apIndexBank );

  00101	8d 85 b8 fd ff
	ff		 lea	 eax, DWORD PTR _m_apIndexBank$[ebp]
  00107	8b ce		 mov	 ecx, esi
  00109	50		 push	 eax
  0010a	68 00 00 00 00	 push	 OFFSET ??_C@_0P@KMLFLAAK@m_apIndex_Bank@
  0010f	e8 00 00 00 00	 call	 ?GetStr@CQuery@@QAEXPAD0@Z ; CQuery::GetStr

; 189  : 	qry->GetStr( "m_dwObjIndex_Bank", ObjIndexBank );

  00114	8d 85 b8 fb ff
	ff		 lea	 eax, DWORD PTR _ObjIndexBank$[ebp]
  0011a	8b ce		 mov	 ecx, esi
  0011c	50		 push	 eax
  0011d	68 00 00 00 00	 push	 OFFSET ??_C@_0BC@HHMCMCCB@m_dwObjIndex_Bank@
  00122	e8 00 00 00 00	 call	 ?GetStr@CQuery@@QAEXPAD0@Z ; CQuery::GetStr

; 190  : 	qry->GetStr( "m_extBank", ExtBank );

  00127	8d 85 e8 f3 ff
	ff		 lea	 eax, DWORD PTR _ExtBank$[ebp]
  0012d	8b ce		 mov	 ecx, esi
  0012f	50		 push	 eax
  00130	68 00 00 00 00	 push	 OFFSET ??_C@_09CHFBCGKD@m_extBank@
  00135	e8 00 00 00 00	 call	 ?GetStr@CQuery@@QAEXPAD0@Z ; CQuery::GetStr

; 191  : 	qry->GetStr( "m_BankPiercing", PirecingBank );

  0013a	8d 85 e0 d3 ff
	ff		 lea	 eax, DWORD PTR _PirecingBank$[ebp]
  00140	8b ce		 mov	 ecx, esi
  00142	50		 push	 eax
  00143	68 00 00 00 00	 push	 OFFSET ??_C@_0P@HANLGJJC@m_BankPiercing@
  00148	e8 00 00 00 00	 call	 ?GetStr@CQuery@@QAEXPAD0@Z ; CQuery::GetStr

; 192  : 	qry->GetStr( "szBankPet", szPet );

  0014d	8d 85 80 e3 ff
	ff		 lea	 eax, DWORD PTR _szPet$[ebp]
  00153	8b ce		 mov	 ecx, esi
  00155	50		 push	 eax
  00156	68 00 00 00 00	 push	 OFFSET ??_C@_09DAKBPAHF@szBankPet@
  0015b	e8 00 00 00 00	 call	 ?GetStr@CQuery@@QAEXPAD0@Z ; CQuery::GetStr
; File C:\IAGOS\server\v18\Source\Source\_database\DbManager.h

; 1305 : 	int len		= strlen( lpString );

  00160	8d 8d 94 b6 ff
	ff		 lea	 ecx, DWORD PTR _Bank$[ebp]
  00166	8d 51 01	 lea	 edx, DWORD PTR [ecx+1]
  00169	0f 1f 80 00 00
	00 00		 npad	 7
$LL105@GetBank:
  00170	8a 01		 mov	 al, BYTE PTR [ecx]
  00172	41		 inc	 ecx
  00173	84 c0		 test	 al, al
  00175	75 f9		 jne	 SHORT $LL105@GetBank
  00177	2b ca		 sub	 ecx, edx

; 1306 : 	if( len > 0 && lpString[len-1] == '$' )

  00179	85 c9		 test	 ecx, ecx
  0017b	0f 8e df 06 00
	00		 jle	 $LN38@GetBank
  00181	80 bc 0d 93 b6
	ff ff 24	 cmp	 BYTE PTR _Bank$[ebp+ecx-1], 36 ; 00000024H
  00189	0f 85 d1 06 00
	00		 jne	 $LN38@GetBank

; 1307 : 		return TRUE;

  0018f	8b b5 f8 b5 ff
	ff		 mov	 esi, DWORD PTR _lpDbOverlappedPlus$GSCopy$1$[ebp]

; 1305 : 	int len		= strlen( lpString );

  00195	8d 8d b8 fd ff
	ff		 lea	 ecx, DWORD PTR _m_apIndexBank$[ebp]
  0019b	8d 41 01	 lea	 eax, DWORD PTR [ecx+1]
  0019e	89 85 f8 b5 ff
	ff		 mov	 DWORD PTR tv963[ebp], eax

; 1307 : 		return TRUE;

  001a4	8d 56 74	 lea	 edx, DWORD PTR [esi+116]
$LL106@GetBank:

; 1305 : 	int len		= strlen( lpString );

  001a7	8a 01		 mov	 al, BYTE PTR [ecx]
  001a9	41		 inc	 ecx
  001aa	84 c0		 test	 al, al
  001ac	75 f9		 jne	 SHORT $LL106@GetBank
  001ae	2b 8d f8 b5 ff
	ff		 sub	 ecx, DWORD PTR tv963[ebp]

; 1306 : 	if( len > 0 && lpString[len-1] == '$' )

  001b4	85 c9		 test	 ecx, ecx
  001b6	0f 8e 9c 06 00
	00		 jle	 $LN42@GetBank
  001bc	80 bc 0d b7 fd
	ff ff 24	 cmp	 BYTE PTR _m_apIndexBank$[ebp+ecx-1], 36 ; 00000024H
  001c4	0f 85 8e 06 00
	00		 jne	 $LN42@GetBank

; 1305 : 	int len		= strlen( lpString );

  001ca	8d 8d b8 fb ff
	ff		 lea	 ecx, DWORD PTR _ObjIndexBank$[ebp]
  001d0	8d 41 01	 lea	 eax, DWORD PTR [ecx+1]
  001d3	89 85 f8 b5 ff
	ff		 mov	 DWORD PTR tv966[ebp], eax
  001d9	0f 1f 80 00 00
	00 00		 npad	 7
$LL107@GetBank:
  001e0	8a 01		 mov	 al, BYTE PTR [ecx]
  001e2	41		 inc	 ecx
  001e3	84 c0		 test	 al, al
  001e5	75 f9		 jne	 SHORT $LL107@GetBank
  001e7	2b 8d f8 b5 ff
	ff		 sub	 ecx, DWORD PTR tv966[ebp]

; 1306 : 	if( len > 0 && lpString[len-1] == '$' )

  001ed	85 c9		 test	 ecx, ecx
  001ef	0f 8e 5b 06 00
	00		 jle	 $LN46@GetBank
  001f5	80 bc 0d b7 fb
	ff ff 24	 cmp	 BYTE PTR _ObjIndexBank$[ebp+ecx-1], 36 ; 00000024H
  001fd	0f 85 4d 06 00
	00		 jne	 $LN46@GetBank

; 1305 : 	int len		= strlen( lpString );

  00203	8d 8d e8 f3 ff
	ff		 lea	 ecx, DWORD PTR _ExtBank$[ebp]
  00209	8d 41 01	 lea	 eax, DWORD PTR [ecx+1]
  0020c	89 85 f8 b5 ff
	ff		 mov	 DWORD PTR tv969[ebp], eax
$LL108@GetBank:
  00212	8a 01		 mov	 al, BYTE PTR [ecx]
  00214	41		 inc	 ecx
  00215	84 c0		 test	 al, al
  00217	75 f9		 jne	 SHORT $LL108@GetBank
  00219	2b 8d f8 b5 ff
	ff		 sub	 ecx, DWORD PTR tv969[ebp]

; 1306 : 	if( len > 0 && lpString[len-1] == '$' )

  0021f	85 c9		 test	 ecx, ecx
  00221	0f 8e 21 06 00
	00		 jle	 $LN50@GetBank
  00227	80 bc 0d e7 f3
	ff ff 24	 cmp	 BYTE PTR _ExtBank$[ebp+ecx-1], 36 ; 00000024H
  0022f	0f 85 13 06 00
	00		 jne	 $LN50@GetBank

; 1305 : 	int len		= strlen( lpString );

  00235	8d 8d e0 d3 ff
	ff		 lea	 ecx, DWORD PTR _PirecingBank$[ebp]
  0023b	8d 41 01	 lea	 eax, DWORD PTR [ecx+1]
  0023e	89 85 f8 b5 ff
	ff		 mov	 DWORD PTR tv972[ebp], eax
$LL109@GetBank:
  00244	8a 01		 mov	 al, BYTE PTR [ecx]
  00246	41		 inc	 ecx
  00247	84 c0		 test	 al, al
  00249	75 f9		 jne	 SHORT $LL109@GetBank
  0024b	2b 8d f8 b5 ff
	ff		 sub	 ecx, DWORD PTR tv972[ebp]

; 1306 : 	if( len > 0 && lpString[len-1] == '$' )

  00251	85 c9		 test	 ecx, ecx
  00253	0f 8e e7 05 00
	00		 jle	 $LN58@GetBank
  00259	80 bc 0d df d3
	ff ff 24	 cmp	 BYTE PTR _PirecingBank$[ebp+ecx-1], 36 ; 00000024H
  00261	0f 85 d9 05 00
	00		 jne	 $LN58@GetBank

; 1305 : 	int len		= strlen( lpString );

  00267	8d 8d 80 e3 ff
	ff		 lea	 ecx, DWORD PTR _szPet$[ebp]
  0026d	8d 41 01	 lea	 eax, DWORD PTR [ecx+1]
  00270	89 85 f8 b5 ff
	ff		 mov	 DWORD PTR tv976[ebp], eax
$LL110@GetBank:
  00276	8a 01		 mov	 al, BYTE PTR [ecx]
  00278	41		 inc	 ecx
  00279	84 c0		 test	 al, al
  0027b	75 f9		 jne	 SHORT $LL110@GetBank
  0027d	2b 8d f8 b5 ff
	ff		 sub	 ecx, DWORD PTR tv976[ebp]

; 1306 : 	if( len > 0 && lpString[len-1] == '$' )

  00283	85 c9		 test	 ecx, ecx
  00285	0f 8e ad 05 00
	00		 jle	 $LN62@GetBank
  0028b	80 bc 0d 7f e3
	ff ff 24	 cmp	 BYTE PTR _szPet$[ebp+ecx-1], 36 ; 00000024H
  00293	0f 85 9f 05 00
	00		 jne	 $LN62@GetBank
; File C:\IAGOS\server\v18\Source\Source\_Database\DbManagerFun.cpp

; 201  : 	pMover->m_idPlayerBank[nSlot] = uPlayerid;

  00299	80 bd 94 b6 ff
	ff 24		 cmp	 BYTE PTR _Bank$[ebp], 36 ; 00000024H
  002a0	8b 8d e8 b5 ff
	ff		 mov	 ecx, DWORD PTR _pMover$GSCopy$1$[ebp]
  002a6	8b 85 f4 b5 ff
	ff		 mov	 eax, DWORD PTR _uPlayerid$1$[ebp]

; 202  : 	pMover->m_dwGoldBank[nSlot]	= dwGold;
; 203  : 	
; 204  : 	CountStr	= 0;	IndexItem	= 0;			

  002ac	c7 85 f8 b5 ff
	ff 00 00 00 00	 mov	 DWORD PTR _CountStr$[ebp], 0
  002b6	89 84 b9 d8 3b
	00 00		 mov	 DWORD PTR [ecx+edi*4+15320], eax
  002bd	8b 85 ec b5 ff
	ff		 mov	 eax, DWORD PTR _dwGold$1$[ebp]
  002c3	89 84 b9 20 3c
	00 00		 mov	 DWORD PTR [ecx+edi*4+15392], eax

; 205  : 	while( '$' != Bank[CountStr] )

  002ca	0f 84 be 00 00
	00		 je	 $LN98@GetBank
  002d0	8b b5 f0 b5 ff
	ff		 mov	 esi, DWORD PTR _this$GSCopy$1$[ebp]
  002d6	66 66 0f 1f 84
	00 00 00 00 00	 npad	 10
$LL2@GetBank:

; 206  : 	{
; 207  : 		CItemElem BufItemElem;

  002e0	8d 8d fc b5 ff
	ff		 lea	 ecx, DWORD PTR _BufItemElem$5[ebp]
  002e6	e8 00 00 00 00	 call	 ??0CItemElem@@QAE@XZ	; CItemElem::CItemElem

; 208  : 		IndexItem = GetOneItem( &BufItemElem, Bank, &CountStr );

  002eb	8d 85 f8 b5 ff
	ff		 lea	 eax, DWORD PTR _CountStr$[ebp]
  002f1	c7 45 fc 00 00
	00 00		 mov	 DWORD PTR __$EHRec$[ebp+8], 0
  002f8	50		 push	 eax
  002f9	8d 85 94 b6 ff
	ff		 lea	 eax, DWORD PTR _Bank$[ebp]
  002ff	8b ce		 mov	 ecx, esi
  00301	50		 push	 eax
  00302	8d 85 fc b5 ff
	ff		 lea	 eax, DWORD PTR _BufItemElem$5[ebp]
  00308	50		 push	 eax
  00309	e8 00 00 00 00	 call	 ?GetOneItem@CDbManager@@QAEHPAVCItemElem@@PADPAH@Z ; CDbManager::GetOneItem
  0030e	8b c8		 mov	 ecx, eax

; 209  : 		if( IndexItem == -1 )

  00310	83 f9 ff	 cmp	 ecx, -1
  00313	75 22		 jne	 SHORT $LN23@GetBank

; 210  : 		{
; 211  : 			Error( "Join::Bank : << Not Prop. %d, %d \nBank = %s", uPlayerid, BufItemElem.m_dwItemId, Bank );

  00315	8d 85 94 b6 ff
	ff		 lea	 eax, DWORD PTR _Bank$[ebp]
  0031b	50		 push	 eax
  0031c	ff b5 04 b6 ff
	ff		 push	 DWORD PTR _BufItemElem$5[ebp+8]
  00322	ff b5 f4 b5 ff
	ff		 push	 DWORD PTR _uPlayerid$1$[ebp]
  00328	68 00 00 00 00	 push	 OFFSET ??_C@_0CM@JMMGLGKB@Join?3?3Bank?5?3?5?$DM?$DM?5Not?5Prop?4?5?$CFd?0?5?$CF@
  0032d	e8 00 00 00 00	 call	 ?Error@@YAPBDPBDZZ	; Error
  00332	83 c4 10	 add	 esp, 16			; 00000010H

; 212  : 		}

  00335	eb 2b		 jmp	 SHORT $LN24@GetBank
$LN23@GetBank:

; 213  : 		else
; 214  : 		{
; 215  : 			if( IndexItem >= MAX_BANK )

  00337	83 f9 2a	 cmp	 ecx, 42			; 0000002aH
  0033a	0f 8d 4c 03 00
	00		 jge	 $LN73@GetBank

; 219  : 			}
; 220  : 			pMover->m_Bank[nSlot].m_apItem[IndexItem] = BufItemElem;

  00340	8b 95 e8 b5 ff
	ff		 mov	 edx, DWORD PTR _pMover$GSCopy$1$[ebp]
  00346	8d 04 bf	 lea	 eax, DWORD PTR [edi+edi*4]
  00349	69 c9 98 00 00
	00		 imul	 ecx, ecx, 152
  0034f	03 8c 82 f0 3b
	00 00		 add	 ecx, DWORD PTR [edx+eax*4+15344]
  00356	8d 95 fc b5 ff
	ff		 lea	 edx, DWORD PTR _BufItemElem$5[ebp]
  0035c	52		 push	 edx
  0035d	8b 01		 mov	 eax, DWORD PTR [ecx]
  0035f	ff 50 10	 call	 DWORD PTR [eax+16]
$LN24@GetBank:

; 221  : 		}
; 222  : 	}

  00362	8d 8d fc b5 ff
	ff		 lea	 ecx, DWORD PTR _BufItemElem$5[ebp]
  00368	c7 45 fc ff ff
	ff ff		 mov	 DWORD PTR __$EHRec$[ebp+8], -1
  0036f	e8 00 00 00 00	 call	 ??1CItemElem@@UAE@XZ	; CItemElem::~CItemElem
  00374	8b 85 f8 b5 ff
	ff		 mov	 eax, DWORD PTR _CountStr$[ebp]
  0037a	80 bc 05 94 b6
	ff ff 24	 cmp	 BYTE PTR _Bank$[ebp+eax], 36 ; 00000024H
  00382	0f 85 58 ff ff
	ff		 jne	 $LL2@GetBank

; 213  : 		else
; 214  : 		{
; 215  : 			if( IndexItem >= MAX_BANK )

  00388	8b 8d e8 b5 ff
	ff		 mov	 ecx, DWORD PTR _pMover$GSCopy$1$[ebp]
$LN98@GetBank:

; 225  : 	while( '$' != m_apIndexBank[CountStr] )

  0038e	80 bd b8 fd ff
	ff 24		 cmp	 BYTE PTR _m_apIndexBank$[ebp], 36 ; 00000024H
  00395	c7 85 f8 b5 ff
	ff 00 00 00 00	 mov	 DWORD PTR _CountStr$[ebp], 0
  0039f	74 4e		 je	 SHORT $LN5@GetBank

; 223  : 	
; 224  : 	CountStr	= 0;	itemCount	= 0;

  003a1	8d 04 bd fa 0e
	00 00		 lea	 eax, DWORD PTR [edi*4+3834]
  003a8	03 c7		 add	 eax, edi
  003aa	33 ff		 xor	 edi, edi
  003ac	8d 04 81	 lea	 eax, DWORD PTR [ecx+eax*4]
  003af	89 85 ec b5 ff
	ff		 mov	 DWORD PTR tv985[ebp], eax
$LL4@GetBank:

; 226  : 	{
; 227  : 		pMover->m_Bank[nSlot].m_apIndex[itemCount]						= (DWORD)GetIntFromStr( m_apIndexBank, &CountStr );

  003b5	8b 30		 mov	 esi, DWORD PTR [eax]
  003b7	8d 85 f8 b5 ff
	ff		 lea	 eax, DWORD PTR _CountStr$[ebp]
  003bd	50		 push	 eax
  003be	8d 85 b8 fd ff
	ff		 lea	 eax, DWORD PTR _m_apIndexBank$[ebp]
  003c4	50		 push	 eax
  003c5	e8 00 00 00 00	 call	 ?GetIntFromStr@@YAHPADPAH@Z ; GetIntFromStr
  003ca	89 04 3e	 mov	 DWORD PTR [esi+edi], eax

; 228  : 		itemCount++;

  003cd	8d 7f 04	 lea	 edi, DWORD PTR [edi+4]
  003d0	8b 85 f8 b5 ff
	ff		 mov	 eax, DWORD PTR _CountStr$[ebp]
  003d6	83 c4 08	 add	 esp, 8
  003d9	80 bc 05 b8 fd
	ff ff 24	 cmp	 BYTE PTR _m_apIndexBank$[ebp+eax], 36 ; 00000024H
  003e1	8b 85 ec b5 ff
	ff		 mov	 eax, DWORD PTR tv985[ebp]
  003e7	75 cc		 jne	 SHORT $LL4@GetBank
  003e9	8b bd e4 b5 ff
	ff		 mov	 edi, DWORD PTR _nSlot$GSCopy$1$[ebp]
$LN5@GetBank:

; 232  : 	while( '$' != ObjIndexBank[CountStr] )

  003ef	80 bd b8 fb ff
	ff 24		 cmp	 BYTE PTR _ObjIndexBank$[ebp], 36 ; 00000024H
  003f6	c7 85 f8 b5 ff
	ff 00 00 00 00	 mov	 DWORD PTR _CountStr$[ebp], 0
  00400	74 5c		 je	 SHORT $LN7@GetBank

; 229  : 	}
; 230  : 	
; 231  : 	CountStr	= 0;	IndexObjIndex	= 0;

  00402	8b 8d e8 b5 ff
	ff		 mov	 ecx, DWORD PTR _pMover$GSCopy$1$[ebp]
  00408	8d 87 bf 03 00
	00		 lea	 eax, DWORD PTR [edi+959]
  0040e	8d 04 87	 lea	 eax, DWORD PTR [edi+eax*4]
  00411	33 ff		 xor	 edi, edi
  00413	8d 04 81	 lea	 eax, DWORD PTR [ecx+eax*4]
  00416	89 85 ec b5 ff
	ff		 mov	 DWORD PTR tv990[ebp], eax
  0041c	0f 1f 40 00	 npad	 4
$LL6@GetBank:

; 233  : 	{
; 234  : 		pMover->m_Bank[nSlot].m_apItem[IndexObjIndex].m_dwObjIndex		= (DWORD)GetIntFromStr( ObjIndexBank, &CountStr );

  00420	8b 30		 mov	 esi, DWORD PTR [eax]
  00422	8d 85 f8 b5 ff
	ff		 lea	 eax, DWORD PTR _CountStr$[ebp]
  00428	50		 push	 eax
  00429	8d 85 b8 fb ff
	ff		 lea	 eax, DWORD PTR _ObjIndexBank$[ebp]
  0042f	50		 push	 eax
  00430	e8 00 00 00 00	 call	 ?GetIntFromStr@@YAHPADPAH@Z ; GetIntFromStr
  00435	89 44 3e 2c	 mov	 DWORD PTR [esi+edi+44], eax

; 235  : 		IndexObjIndex++;

  00439	8d bf 98 00 00
	00		 lea	 edi, DWORD PTR [edi+152]
  0043f	8b 85 f8 b5 ff
	ff		 mov	 eax, DWORD PTR _CountStr$[ebp]
  00445	83 c4 08	 add	 esp, 8
  00448	80 bc 05 b8 fb
	ff ff 24	 cmp	 BYTE PTR _ObjIndexBank$[ebp+eax], 36 ; 00000024H
  00450	8b 85 ec b5 ff
	ff		 mov	 eax, DWORD PTR tv990[ebp]
  00456	75 c8		 jne	 SHORT $LL6@GetBank
  00458	8b bd e4 b5 ff
	ff		 mov	 edi, DWORD PTR _nSlot$GSCopy$1$[ebp]
$LN7@GetBank:

; 239  : 	while( '$' != ExtBank[CountStr] )

  0045e	80 bd e8 f3 ff
	ff 24		 cmp	 BYTE PTR _ExtBank$[ebp], 36 ; 00000024H
  00465	c7 85 f8 b5 ff
	ff 00 00 00 00	 mov	 DWORD PTR _CountStr$[ebp], 0
  0046f	0f 84 05 01 00
	00		 je	 $LN9@GetBank

; 236  : 	}
; 237  : 
; 238  : 	CountStr	= 0;	nExtBankCount	= 0;

  00475	8b 8d e8 b5 ff
	ff		 mov	 ecx, DWORD PTR _pMover$GSCopy$1$[ebp]
  0047b	8d 87 bf 03 00
	00		 lea	 eax, DWORD PTR [edi+959]
  00481	8d 04 87	 lea	 eax, DWORD PTR [edi+eax*4]
  00484	33 ff		 xor	 edi, edi
  00486	8d 04 81	 lea	 eax, DWORD PTR [ecx+eax*4]
  00489	89 85 f4 b5 ff
	ff		 mov	 DWORD PTR tv989[ebp], eax
  0048f	90		 npad	 1
$LL8@GetBank:

; 240  : 	{
; 241  : 		pMover->m_Bank[nSlot].m_apItem[nExtBankCount].m_bCharged			= (BOOL)GetIntPaFromStr( ExtBank, &CountStr );

  00490	8b 30		 mov	 esi, DWORD PTR [eax]
  00492	8d 85 f8 b5 ff
	ff		 lea	 eax, DWORD PTR _CountStr$[ebp]
  00498	50		 push	 eax
  00499	8d 85 e8 f3 ff
	ff		 lea	 eax, DWORD PTR _ExtBank$[ebp]
  0049f	50		 push	 eax
  004a0	e8 00 00 00 00	 call	 ?GetIntPaFromStr@@YAHPADPAH@Z ; GetIntPaFromStr

; 242  : 		if( pMover->m_Bank[nSlot].m_apItem[nExtBankCount].m_bCharged != 1 )

  004a5	8b 8d f4 b5 ff
	ff		 mov	 ecx, DWORD PTR tv989[ebp]
  004ab	83 c4 08	 add	 esp, 8
  004ae	89 44 3e 7c	 mov	 DWORD PTR [esi+edi+124], eax
  004b2	8b 01		 mov	 eax, DWORD PTR [ecx]
  004b4	83 7c 38 7c 01	 cmp	 DWORD PTR [eax+edi+124], 1
  004b9	74 08		 je	 SHORT $LN26@GetBank

; 243  : 			pMover->m_Bank[nSlot].m_apItem[nExtBankCount].m_bCharged	= 0;

  004bb	c7 44 38 7c 00
	00 00 00	 mov	 DWORD PTR [eax+edi+124], 0
$LN26@GetBank:

; 244  : 		pMover->m_Bank[nSlot].m_apItem[nExtBankCount].m_dwKeepTime		= (DWORD)GetIntPaFromStr( ExtBank, &CountStr );

  004c3	8b 31		 mov	 esi, DWORD PTR [ecx]
  004c5	8d 85 f8 b5 ff
	ff		 lea	 eax, DWORD PTR _CountStr$[ebp]
  004cb	50		 push	 eax
  004cc	8d 85 e8 f3 ff
	ff		 lea	 eax, DWORD PTR _ExtBank$[ebp]
  004d2	50		 push	 eax
  004d3	e8 00 00 00 00	 call	 ?GetIntPaFromStr@@YAHPADPAH@Z ; GetIntPaFromStr
  004d8	89 84 3e 80 00
	00 00		 mov	 DWORD PTR [esi+edi+128], eax

; 245  : #if __VER >= 11 // __SYS_IDENTIFY
; 246  : 		__int64 iRandomOptItemId	= GetInt64PaFromStr( ExtBank, &CountStr );

  004df	8d 85 f8 b5 ff
	ff		 lea	 eax, DWORD PTR _CountStr$[ebp]
  004e5	50		 push	 eax
  004e6	8d 85 e8 f3 ff
	ff		 lea	 eax, DWORD PTR _ExtBank$[ebp]
  004ec	50		 push	 eax
  004ed	e8 00 00 00 00	 call	 ?GetInt64PaFromStr@@YA_JPADPAH@Z ; GetInt64PaFromStr
  004f2	8b f0		 mov	 esi, eax
  004f4	83 c4 10	 add	 esp, 16			; 00000010H

; 247  : 		if( iRandomOptItemId == -102 )

  004f7	83 fe 9a	 cmp	 esi, -102		; ffffff9aH
  004fa	75 1c		 jne	 SHORT $LN27@GetBank
  004fc	83 fa ff	 cmp	 edx, -1
  004ff	75 17		 jne	 SHORT $LN27@GetBank

; 248  : 			iRandomOptItemId	= 0;

  00501	0f 57 c0	 xorps	 xmm0, xmm0
  00504	66 0f 13 85 d8
	b5 ff ff	 movlpd	 QWORD PTR _iRandomOptItemId$2[ebp], xmm0
  0050c	8b 95 dc b5 ff
	ff		 mov	 edx, DWORD PTR _iRandomOptItemId$2[ebp+4]
  00512	8b b5 d8 b5 ff
	ff		 mov	 esi, DWORD PTR _iRandomOptItemId$2[ebp]
$LN27@GetBank:

; 249  : 		pMover->m_Bank[nSlot].m_apItem[nExtBankCount].SetRandomOptItemId( iRandomOptItemId );

  00518	8b 8d f4 b5 ff
	ff		 mov	 ecx, DWORD PTR tv989[ebp]
  0051e	8b 01		 mov	 eax, DWORD PTR [ecx]
  00520	89 b4 38 88 00
	00 00		 mov	 DWORD PTR [eax+edi+136], esi
  00527	89 94 38 8c 00
	00 00		 mov	 DWORD PTR [eax+edi+140], edx

; 250  : #else	// __SYS_IDENTIFY
; 251  : 		pMover->m_Bank[nSlot].m_apItem[nExtBankCount].SetRandomOptItemId( (DWORD)GetIntPaFromStr( ExtBank, &CountStr ) );
; 252  : #endif	// __SYS_IDENTIFY
; 253  : #if __VER >= 15 // __PETVIS
; 254  : 		pMover->m_Bank[nSlot].m_apItem[nExtBankCount].m_bTranformVisPet = static_cast<BOOL>( GetIntPaFromStr( ExtBank, &CountStr ) );

  0052e	8d 85 f8 b5 ff
	ff		 lea	 eax, DWORD PTR _CountStr$[ebp]
  00534	8b 31		 mov	 esi, DWORD PTR [ecx]
  00536	50		 push	 eax
  00537	8d 85 e8 f3 ff
	ff		 lea	 eax, DWORD PTR _ExtBank$[ebp]
  0053d	50		 push	 eax
  0053e	e8 00 00 00 00	 call	 ?GetIntPaFromStr@@YAHPADPAH@Z ; GetIntPaFromStr
  00543	89 84 3e 94 00
	00 00		 mov	 DWORD PTR [esi+edi+148], eax
  0054a	83 c4 08	 add	 esp, 8

; 255  : #endif // __PETVIS
; 256  : 		++CountStr;

  0054d	8b 85 f8 b5 ff
	ff		 mov	 eax, DWORD PTR _CountStr$[ebp]

; 257  : 
; 258  : 		++nExtBankCount;

  00553	81 c7 98 00 00
	00		 add	 edi, 152		; 00000098H
  00559	40		 inc	 eax
  0055a	89 85 f8 b5 ff
	ff		 mov	 DWORD PTR _CountStr$[ebp], eax
  00560	80 bc 05 e8 f3
	ff ff 24	 cmp	 BYTE PTR _ExtBank$[ebp+eax], 36 ; 00000024H
  00568	8b 85 f4 b5 ff
	ff		 mov	 eax, DWORD PTR tv989[ebp]
  0056e	0f 85 1c ff ff
	ff		 jne	 $LL8@GetBank
  00574	8b bd e4 b5 ff
	ff		 mov	 edi, DWORD PTR _nSlot$GSCopy$1$[ebp]
$LN9@GetBank:

; 262  : 	while( '$' != PirecingBank[CountStr] )

  0057a	80 bd e0 d3 ff
	ff 24		 cmp	 BYTE PTR _PirecingBank$[ebp], 36 ; 00000024H
  00581	c7 85 f8 b5 ff
	ff 00 00 00 00	 mov	 DWORD PTR _CountStr$[ebp], 0
  0058b	74 5f		 je	 SHORT $LN11@GetBank

; 259  : 	}
; 260  : 
; 261  : 	CountStr	= 0;	nPirecingBankCount = 0;

  0058d	8b 8d e8 b5 ff
	ff		 mov	 ecx, DWORD PTR _pMover$GSCopy$1$[ebp]
  00593	8d 87 bf 03 00
	00		 lea	 eax, DWORD PTR [edi+959]
  00599	8d 04 87	 lea	 eax, DWORD PTR [edi+eax*4]
  0059c	33 f6		 xor	 esi, esi
  0059e	8b bd f0 b5 ff
	ff		 mov	 edi, DWORD PTR _this$GSCopy$1$[ebp]
  005a4	8d 04 81	 lea	 eax, DWORD PTR [ecx+eax*4]
  005a7	89 85 ec b5 ff
	ff		 mov	 DWORD PTR tv988[ebp], eax
  005ad	0f 1f 00	 npad	 3
$LL10@GetBank:

; 263  : 	{
; 264  : #if __VER >= 12 // __EXT_PIERCING
; 265  : 		LoadPiercingInfo( pMover->m_Bank[nSlot].m_apItem[nPirecingBankCount], PirecingBank, &CountStr );

  005b0	8b 00		 mov	 eax, DWORD PTR [eax]
  005b2	8d 8d f8 b5 ff
	ff		 lea	 ecx, DWORD PTR _CountStr$[ebp]
  005b8	51		 push	 ecx
  005b9	8d 8d e0 d3 ff
	ff		 lea	 ecx, DWORD PTR _PirecingBank$[ebp]
  005bf	03 c6		 add	 eax, esi
  005c1	51		 push	 ecx
  005c2	50		 push	 eax
  005c3	8b cf		 mov	 ecx, edi
  005c5	e8 00 00 00 00	 call	 ?LoadPiercingInfo@CDbManager@@QAEXAAVCItemElem@@PADPAH@Z ; CDbManager::LoadPiercingInfo
  005ca	8b 85 f8 b5 ff
	ff		 mov	 eax, DWORD PTR _CountStr$[ebp]

; 266  : #else // __EXT_PIERCING
; 267  : 		int nItemIdCount = 0;
; 268  : 		pMover->m_Bank[nSlot].m_apItem[nPirecingBankCount].SetPiercingSize( GetIntFromStr( PirecingBank, &CountStr ) );
; 269  : 		for( int i = 0 ; i < pMover->m_Bank[nSlot].m_apItem[nPirecingBankCount].GetPiercingSize() ; ++i )
; 270  : 		{
; 271  : 			pMover->m_Bank[nSlot].m_apItem[nPirecingBankCount].SetPiercingItem( nItemIdCount, (DWORD)GetIntFromStr( PirecingBank, &CountStr ) );
; 272  : 			++nItemIdCount;
; 273  : 		}
; 274  : #endif // __EXT_PIERCING
; 275  : 		++nPirecingBankCount;

  005d0	81 c6 98 00 00
	00		 add	 esi, 152		; 00000098H
  005d6	80 bc 05 e0 d3
	ff ff 24	 cmp	 BYTE PTR _PirecingBank$[ebp+eax], 36 ; 00000024H
  005de	8b 85 ec b5 ff
	ff		 mov	 eax, DWORD PTR tv988[ebp]
  005e4	75 ca		 jne	 SHORT $LL10@GetBank
  005e6	8b bd e4 b5 ff
	ff		 mov	 edi, DWORD PTR _nSlot$GSCopy$1$[ebp]
$LN11@GetBank:

; 279  : 	int	nId	= 0;
; 280  : 	while( '$' != szPet[CountStr] )

  005ec	80 bd 80 e3 ff
	ff 24		 cmp	 BYTE PTR _szPet$[ebp], 36 ; 00000024H
  005f3	c7 85 f8 b5 ff
	ff 00 00 00 00	 mov	 DWORD PTR _CountStr$[ebp], 0
  005fd	0f 84 2e 02 00
	00		 je	 $LN13@GetBank

; 276  : 	}
; 277  : 
; 278  : 	CountStr	= 0;

  00603	33 f6		 xor	 esi, esi
  00605	89 b5 f4 b5 ff
	ff		 mov	 DWORD PTR tv948[ebp], esi
  0060b	0f 1f 44 00 00	 npad	 5
$LL12@GetBank:

; 281  : 	{
; 282  : 		BOOL bPet	= (BOOL)GetIntFromStr( szPet, &CountStr );

  00610	8d 85 f8 b5 ff
	ff		 lea	 eax, DWORD PTR _CountStr$[ebp]
  00616	50		 push	 eax
  00617	8d 85 80 e3 ff
	ff		 lea	 eax, DWORD PTR _szPet$[ebp]
  0061d	50		 push	 eax
  0061e	e8 00 00 00 00	 call	 ?GetIntFromStr@@YAHPADPAH@Z ; GetIntFromStr
  00623	83 c4 08	 add	 esp, 8

; 283  : 		if( bPet )

  00626	85 c0		 test	 eax, eax
  00628	0f 84 d9 01 00
	00		 je	 $LN111@GetBank

; 284  : 		{
; 285  : 			SAFE_DELETE( pMover->m_Bank[nSlot].m_apItem[nId].m_pPet );

  0062e	8b 8d e8 b5 ff
	ff		 mov	 ecx, DWORD PTR _pMover$GSCopy$1$[ebp]
  00634	8d 87 bf 03 00
	00		 lea	 eax, DWORD PTR [edi+959]
  0063a	8d 04 87	 lea	 eax, DWORD PTR [edi+eax*4]
  0063d	8d 3c 81	 lea	 edi, DWORD PTR [ecx+eax*4]
  00640	8b 07		 mov	 eax, DWORD PTR [edi]
  00642	89 bd ec b5 ff
	ff		 mov	 DWORD PTR tv1009[ebp], edi
  00648	8b 8c 30 90 00
	00 00		 mov	 ecx, DWORD PTR [eax+esi+144]
  0064f	85 c9		 test	 ecx, ecx
  00651	74 13		 je	 SHORT $LN29@GetBank
  00653	8b 01		 mov	 eax, DWORD PTR [ecx]
  00655	6a 01		 push	 1
  00657	ff 10		 call	 DWORD PTR [eax]
  00659	8b 07		 mov	 eax, DWORD PTR [edi]
  0065b	c7 84 30 90 00
	00 00 00 00 00
	00		 mov	 DWORD PTR [eax+esi+144], 0
$LN29@GetBank:

; 286  : 			CPet* pPet	= pMover->m_Bank[nSlot].m_apItem[nId].m_pPet		= new CPet;

  00666	6a 28		 push	 40			; 00000028H
  00668	e8 00 00 00 00	 call	 ??2@YAPAXI@Z		; operator new
  0066d	83 c4 04	 add	 esp, 4
  00670	89 85 dc b5 ff
	ff		 mov	 DWORD PTR $T3[ebp], eax
  00676	c7 45 fc 01 00
	00 00		 mov	 DWORD PTR __$EHRec$[ebp+8], 1
  0067d	85 c0		 test	 eax, eax
  0067f	74 35		 je	 SHORT $LN33@GetBank
  00681	8b c8		 mov	 ecx, eax
  00683	e8 00 00 00 00	 call	 ??0CPet@@QAE@XZ		; CPet::CPet
  00688	8b f8		 mov	 edi, eax
  0068a	eb 2c		 jmp	 SHORT $LN34@GetBank
$LN73@GetBank:

; 216  : 			{
; 217  : 				Error( "Join::Bank : << MAX_BANK %d\nBank = %s", uPlayerid, Bank );

  0068c	8d 85 94 b6 ff
	ff		 lea	 eax, DWORD PTR _Bank$[ebp]
  00692	50		 push	 eax
  00693	ff b5 f4 b5 ff
	ff		 push	 DWORD PTR _uPlayerid$1$[ebp]
  00699	68 00 00 00 00	 push	 OFFSET ??_C@_0CG@GPGFAEMD@Join?3?3Bank?5?3?5?$DM?$DM?5MAX_BANK?5?$CFd?6Ban@
  0069e	e8 00 00 00 00	 call	 ?Error@@YAPBDPBDZZ	; Error
  006a3	83 c4 0c	 add	 esp, 12			; 0000000cH

; 218  : 				return FALSE;

  006a6	8d 8d fc b5 ff
	ff		 lea	 ecx, DWORD PTR _BufItemElem$5[ebp]
  006ac	e8 00 00 00 00	 call	 ??1CItemElem@@UAE@XZ	; CItemElem::~CItemElem
  006b1	e9 db 01 00 00	 jmp	 $LN99@GetBank
$LN33@GetBank:

; 286  : 			CPet* pPet	= pMover->m_Bank[nSlot].m_apItem[nId].m_pPet		= new CPet;

  006b6	33 ff		 xor	 edi, edi
$LN34@GetBank:
  006b8	8b 85 ec b5 ff
	ff		 mov	 eax, DWORD PTR tv1009[ebp]
  006be	c7 45 fc ff ff
	ff ff		 mov	 DWORD PTR __$EHRec$[ebp+8], -1
  006c5	8b 00		 mov	 eax, DWORD PTR [eax]
  006c7	89 bc 30 90 00
	00 00		 mov	 DWORD PTR [eax+esi+144], edi

; 287  : 			BYTE nKind	= (BYTE)GetIntFromStr( szPet, &CountStr );

  006ce	8d 85 f8 b5 ff
	ff		 lea	 eax, DWORD PTR _CountStr$[ebp]
  006d4	50		 push	 eax
  006d5	8d 85 80 e3 ff
	ff		 lea	 eax, DWORD PTR _szPet$[ebp]
  006db	50		 push	 eax
  006dc	e8 00 00 00 00	 call	 ?GetIntFromStr@@YAHPADPAH@Z ; GetIntFromStr

; 288  : 			pPet->SetKind( nKind );

  006e1	88 47 04	 mov	 BYTE PTR [edi+4], al

; 289  : 			BYTE nLevel	= (BYTE)GetIntFromStr( szPet, &CountStr );

  006e4	8d 85 f8 b5 ff
	ff		 lea	 eax, DWORD PTR _CountStr$[ebp]
  006ea	50		 push	 eax
  006eb	8d 85 80 e3 ff
	ff		 lea	 eax, DWORD PTR _szPet$[ebp]
  006f1	50		 push	 eax
  006f2	e8 00 00 00 00	 call	 ?GetIntFromStr@@YAHPADPAH@Z ; GetIntFromStr

; 290  : 			pPet->SetLevel( nLevel );

  006f7	88 47 05	 mov	 BYTE PTR [edi+5], al

; 291  : 			DWORD dwExp	= (DWORD)GetIntFromStr( szPet, &CountStr );

  006fa	8d 85 f8 b5 ff
	ff		 lea	 eax, DWORD PTR _CountStr$[ebp]
  00700	50		 push	 eax
  00701	8d 85 80 e3 ff
	ff		 lea	 eax, DWORD PTR _szPet$[ebp]
  00707	50		 push	 eax
  00708	e8 00 00 00 00	 call	 ?GetIntFromStr@@YAHPADPAH@Z ; GetIntFromStr
  0070d	83 c4 18	 add	 esp, 24			; 00000018H

; 292  : 			pPet->SetExp( dwExp );

  00710	8b cf		 mov	 ecx, edi
  00712	50		 push	 eax
  00713	e8 00 00 00 00	 call	 ?SetExp@CPet@@QAEXK@Z	; CPet::SetExp

; 293  : 			WORD wEnergy	= (WORD)GetIntFromStr( szPet, &CountStr );

  00718	8d 85 f8 b5 ff
	ff		 lea	 eax, DWORD PTR _CountStr$[ebp]
  0071e	50		 push	 eax
  0071f	8d 85 80 e3 ff
	ff		 lea	 eax, DWORD PTR _szPet$[ebp]
  00725	50		 push	 eax
  00726	e8 00 00 00 00	 call	 ?GetIntFromStr@@YAHPADPAH@Z ; GetIntFromStr
  0072b	83 c4 08	 add	 esp, 8
  0072e	0f b7 c0	 movzx	 eax, ax

; 294  : 			pPet->SetEnergy( wEnergy );

  00731	8b cf		 mov	 ecx, edi
  00733	50		 push	 eax
  00734	e8 00 00 00 00	 call	 ?SetEnergy@CPet@@QAEXG@Z ; CPet::SetEnergy

; 295  : #ifdef __PET_1024
; 296  : 			WORD wLife	= (WORD)GetIntPaFromStr( szPet, &CountStr );

  00739	8d 85 f8 b5 ff
	ff		 lea	 eax, DWORD PTR _CountStr$[ebp]
  0073f	50		 push	 eax
  00740	8d 85 80 e3 ff
	ff		 lea	 eax, DWORD PTR _szPet$[ebp]
  00746	50		 push	 eax
  00747	e8 00 00 00 00	 call	 ?GetIntPaFromStr@@YAHPADPAH@Z ; GetIntPaFromStr
  0074c	83 c4 08	 add	 esp, 8

; 297  : 			pPet->SetLife( wLife );

  0074f	66 89 47 0e	 mov	 WORD PTR [edi+14], ax

; 298  : 			for( int i = PL_D; i <= pPet->GetLevel(); i++ )

  00753	80 7f 05 01	 cmp	 BYTE PTR [edi+5], 1
  00757	be 01 00 00 00	 mov	 esi, 1
  0075c	72 35		 jb	 SHORT $LN15@GetBank
  0075e	66 90		 npad	 2
$LL16@GetBank:

; 299  : 			{
; 300  : 				BYTE nAvailLevel	= (BYTE)GetIntPaFromStr( szPet, &CountStr );

  00760	8d 85 f8 b5 ff
	ff		 lea	 eax, DWORD PTR _CountStr$[ebp]
  00766	50		 push	 eax
  00767	8d 85 80 e3 ff
	ff		 lea	 eax, DWORD PTR _szPet$[ebp]
  0076d	50		 push	 eax
  0076e	e8 00 00 00 00	 call	 ?GetIntPaFromStr@@YAHPADPAH@Z ; GetIntPaFromStr
  00773	83 c4 08	 add	 esp, 8
  00776	88 85 e0 b5 ff
	ff		 mov	 BYTE PTR _nAvailLevel$4[ebp], al

; 301  : 				pPet->SetAvailLevel( i, nAvailLevel );

  0077c	8b cf		 mov	 ecx, edi
  0077e	ff b5 e0 b5 ff
	ff		 push	 DWORD PTR _nAvailLevel$4[ebp]
  00784	56		 push	 esi
  00785	e8 00 00 00 00	 call	 ?SetAvailLevel@CPet@@QAEXEE@Z ; CPet::SetAvailLevel
  0078a	0f b6 47 05	 movzx	 eax, BYTE PTR [edi+5]
  0078e	46		 inc	 esi
  0078f	3b f0		 cmp	 esi, eax
  00791	7e cd		 jle	 SHORT $LL16@GetBank
$LN15@GetBank:
; File C:\IAGOS\server\v18\Source\Source\_network\CmnHdr.h

; 106  : 	while(pBuf[*pLocation]!=',' && pBuf[*pLocation]!='/' && pBuf[*pLocation]!=0) {

  00793	8b b5 f8 b5 ff
	ff		 mov	 esi, DWORD PTR _CountStr$[ebp]
  00799	0f 57 c0	 xorps	 xmm0, xmm0

; 105  : 	int count=0;

  0079c	33 c9		 xor	 ecx, ecx
; File C:\IAGOS\server\v18\Source\Source\_Database\DbManagerFun.cpp

; 303  : 			char szFmt[MAX_PET_NAME_FMT]	= { 0,};

  0079e	c6 45 d8 00	 mov	 BYTE PTR _szFmt$6[ebp+32], 0
  007a2	0f 11 45 b8	 movups	 XMMWORD PTR _szFmt$6[ebp], xmm0
; File C:\IAGOS\server\v18\Source\Source\_network\CmnHdr.h

; 106  : 	while(pBuf[*pLocation]!=',' && pBuf[*pLocation]!='/' && pBuf[*pLocation]!=0) {

  007a6	8a 84 35 80 e3
	ff ff		 mov	 al, BYTE PTR _szPet$[ebp+esi]
; File C:\IAGOS\server\v18\Source\Source\_Database\DbManagerFun.cpp

; 303  : 			char szFmt[MAX_PET_NAME_FMT]	= { 0,};

  007ad	0f 11 45 c8	 movups	 XMMWORD PTR _szFmt$6[ebp+16], xmm0
; File C:\IAGOS\server\v18\Source\Source\_network\CmnHdr.h

; 106  : 	while(pBuf[*pLocation]!=',' && pBuf[*pLocation]!='/' && pBuf[*pLocation]!=0) {

  007b1	3c 2c		 cmp	 al, 44			; 0000002cH
  007b3	74 19		 je	 SHORT $LN55@GetBank
$LL54@GetBank:
  007b5	3c 2f		 cmp	 al, 47			; 0000002fH
  007b7	74 15		 je	 SHORT $LN55@GetBank
  007b9	84 c0		 test	 al, al
  007bb	74 11		 je	 SHORT $LN55@GetBank

; 107  : 		strReturn[count]=pBuf[*pLocation];
; 108  : 		count++; (*pLocation)++;

  007bd	46		 inc	 esi
  007be	88 44 0d b8	 mov	 BYTE PTR _szFmt$6[ebp+ecx], al
  007c2	41		 inc	 ecx
  007c3	8a 84 35 80 e3
	ff ff		 mov	 al, BYTE PTR _szPet$[ebp+esi]
  007ca	3c 2c		 cmp	 al, 44			; 0000002cH
  007cc	75 e7		 jne	 SHORT $LL54@GetBank
$LN55@GetBank:
; File C:\IAGOS\server\v18\Source\Source\_Database\DbManagerFun.cpp

; 306  : 			GetDBFormatStr( szName, MAX_PET_NAME, szFmt );

  007ce	8d 45 b8	 lea	 eax, DWORD PTR _szFmt$6[ebp]
; File C:\IAGOS\server\v18\Source\Source\_network\CmnHdr.h

; 110  : 	strReturn[count]=0;(*pLocation)++;

  007d1	c6 44 0d b8 00	 mov	 BYTE PTR _szFmt$6[ebp+ecx], 0
; File C:\IAGOS\server\v18\Source\Source\_Database\DbManagerFun.cpp

; 306  : 			GetDBFormatStr( szName, MAX_PET_NAME, szFmt );

  007d6	8b 8d f0 b5 ff
	ff		 mov	 ecx, DWORD PTR _this$GSCopy$1$[ebp]
  007dc	0f 57 c0	 xorps	 xmm0, xmm0
  007df	50		 push	 eax
  007e0	6a 11		 push	 17			; 00000011H
  007e2	8d 45 dc	 lea	 eax, DWORD PTR _szName$7[ebp]
  007e5	c6 45 ec 00	 mov	 BYTE PTR _szName$7[ebp+16], 0
; File C:\IAGOS\server\v18\Source\Source\_network\CmnHdr.h

; 110  : 	strReturn[count]=0;(*pLocation)++;

  007e9	46		 inc	 esi
; File C:\IAGOS\server\v18\Source\Source\_Database\DbManagerFun.cpp

; 306  : 			GetDBFormatStr( szName, MAX_PET_NAME, szFmt );

  007ea	50		 push	 eax
; File C:\IAGOS\server\v18\Source\Source\_network\CmnHdr.h

; 110  : 	strReturn[count]=0;(*pLocation)++;

  007eb	89 b5 f8 b5 ff
	ff		 mov	 DWORD PTR _CountStr$[ebp], esi
; File C:\IAGOS\server\v18\Source\Source\_Database\DbManagerFun.cpp

; 305  : 			char szName[MAX_PET_NAME]	= { 0,};

  007f1	0f 11 45 dc	 movups	 XMMWORD PTR _szName$7[ebp], xmm0

; 306  : 			GetDBFormatStr( szName, MAX_PET_NAME, szFmt );

  007f5	e8 00 00 00 00	 call	 ?GetDBFormatStr@CDbManager@@AAEXPADHPBD@Z ; CDbManager::GetDBFormatStr

; 307  : 			pPet->SetName( szName );

  007fa	8d 45 dc	 lea	 eax, DWORD PTR _szName$7[ebp]
  007fd	8b cf		 mov	 ecx, edi
  007ff	50		 push	 eax
  00800	e8 00 00 00 00	 call	 ?SetName@CPet@@QAEXPBD@Z ; CPet::SetName
  00805	eb 06		 jmp	 SHORT $LN28@GetBank
$LN111@GetBank:

; 283  : 		if( bPet )

  00807	8b b5 f8 b5 ff
	ff		 mov	 esi, DWORD PTR _CountStr$[ebp]
$LN28@GetBank:

; 308  : #else	// __PET_1024
; 309  : 			WORD wLife	= (WORD)GetIntFromStr( szPet, &CountStr );
; 310  : 			pPet->SetLife( wLife );
; 311  : 			for( int i = PL_D; i <= pPet->GetLevel(); i++ )
; 312  : 			{
; 313  : 				BYTE nAvailLevel	= (BYTE)GetIntFromStr( szPet, &CountStr );
; 314  : 				pPet->SetAvailLevel( i, nAvailLevel );
; 315  : 			}
; 316  : #endif	// __PET_1024
; 317  : 		}
; 318  : 		nId++;

  0080d	81 85 f4 b5 ff
	ff 98 00 00 00	 add	 DWORD PTR tv948[ebp], 152 ; 00000098H
  00817	80 bc 35 80 e3
	ff ff 24	 cmp	 BYTE PTR _szPet$[ebp+esi], 36 ; 00000024H
  0081f	8b bd e4 b5 ff
	ff		 mov	 edi, DWORD PTR _nSlot$GSCopy$1$[ebp]
  00825	8b b5 f4 b5 ff
	ff		 mov	 esi, DWORD PTR tv948[ebp]
  0082b	0f 85 df fd ff
	ff		 jne	 $LL12@GetBank
$LN13@GetBank:

; 319  : 	}
; 320  : 	return TRUE;

  00831	b8 01 00 00 00	 mov	 eax, 1
  00836	eb 5b		 jmp	 SHORT $LN1@GetBank
$LN62@GetBank:
; File C:\IAGOS\server\v18\Source\Source\_database\DbManager.h

; 1308 : 	WriteLog( "%s, %d\t%s", lpFileName, nLine, lpName );

  00838	52		 push	 edx
  00839	68 c7 00 00 00	 push	 199			; 000000c7H
  0083e	eb 2f		 jmp	 SHORT $LN115@GetBank
$LN58@GetBank:
  00840	52		 push	 edx
  00841	68 c6 00 00 00	 push	 198			; 000000c6H
  00846	eb 27		 jmp	 SHORT $LN115@GetBank
$LN50@GetBank:
  00848	52		 push	 edx
  00849	68 c5 00 00 00	 push	 197			; 000000c5H
  0084e	eb 1f		 jmp	 SHORT $LN115@GetBank
$LN46@GetBank:
  00850	52		 push	 edx
  00851	68 c4 00 00 00	 push	 196			; 000000c4H
  00856	eb 17		 jmp	 SHORT $LN115@GetBank
$LN42@GetBank:
  00858	52		 push	 edx
  00859	68 c3 00 00 00	 push	 195			; 000000c3H
  0085e	eb 0f		 jmp	 SHORT $LN115@GetBank
$LN38@GetBank:
; File C:\IAGOS\server\v18\Source\Source\_Database\DbManagerFun.cpp

; 194  : 	VERIFYSTRING_RETURN( Bank, lpDbOverlappedPlus->AccountInfo.szPlayer );

  00860	8b b5 f8 b5 ff
	ff		 mov	 esi, DWORD PTR _lpDbOverlappedPlus$GSCopy$1$[ebp]
  00866	8d 46 74	 lea	 eax, DWORD PTR [esi+116]
; File C:\IAGOS\server\v18\Source\Source\_database\DbManager.h

; 1308 : 	WriteLog( "%s, %d\t%s", lpFileName, nLine, lpName );

  00869	50		 push	 eax
  0086a	68 c2 00 00 00	 push	 194			; 000000c2H
$LN115@GetBank:
; File C:\IAGOS\server\v18\Source\Source\_Database\DbManagerFun.cpp

; 321  : }

  0086f	68 00 00 00 00	 push	 OFFSET ??_C@_0DN@JBKLBOHO@C?3?2IAGOS?2server?2v18?2Source?2Sour@
  00874	68 00 00 00 00	 push	 OFFSET ??_C@_09GBAEEKDE@?$CFs?0?5?$CFd?7?$CFs@
  00879	e8 00 00 00 00	 call	 ?WriteLog@@YAXPBDZZ	; WriteLog
  0087e	83 c4 10	 add	 esp, 16			; 00000010H
  00881	85 f6		 test	 esi, esi
  00883	74 0c		 je	 SHORT $LN99@GetBank
  00885	8b 8d f0 b5 ff
	ff		 mov	 ecx, DWORD PTR _this$GSCopy$1$[ebp]
  0088b	56		 push	 esi
  0088c	e8 00 00 00 00	 call	 ?FreeRequest@CDbManager@@QAEXPAUtagDB_OVERLAPPED_PLUS@@@Z ; CDbManager::FreeRequest
$LN99@GetBank:
  00891	33 c0		 xor	 eax, eax
$LN1@GetBank:
  00893	8b 4d f4	 mov	 ecx, DWORD PTR __$EHRec$[ebp]
  00896	64 89 0d 00 00
	00 00		 mov	 DWORD PTR fs:0, ecx
  0089d	59		 pop	 ecx
  0089e	5f		 pop	 edi
  0089f	5e		 pop	 esi
  008a0	8b 4d f0	 mov	 ecx, DWORD PTR __$ArrayPad$[ebp]
  008a3	33 cd		 xor	 ecx, ebp
  008a5	e8 00 00 00 00	 call	 @__security_check_cookie@4
  008aa	8b e5		 mov	 esp, ebp
  008ac	5d		 pop	 ebp
  008ad	c2 10 00	 ret	 16			; 00000010H
_TEXT	ENDS
;	COMDAT text$x
text$x	SEGMENT
__unwindfunclet$?GetBank@CDbManager@@QAEHPAVCMover@@PAVCQuery@@PAUtagDB_OVERLAPPED_PLUS@@H@Z$0:
  00000	8d 8d fc b5 ff
	ff		 lea	 ecx, DWORD PTR _BufItemElem$5[ebp]
  00006	e9 00 00 00 00	 jmp	 ??1CItemElem@@UAE@XZ	; CItemElem::~CItemElem
__unwindfunclet$?GetBank@CDbManager@@QAEHPAVCMover@@PAVCQuery@@PAUtagDB_OVERLAPPED_PLUS@@H@Z$1:
  0000b	6a 28		 push	 40			; 00000028H
  0000d	8b 85 dc b5 ff
	ff		 mov	 eax, DWORD PTR $T3[ebp]
  00013	50		 push	 eax
  00014	e8 00 00 00 00	 call	 ??3@YAXPAXI@Z		; operator delete
  00019	83 c4 08	 add	 esp, 8
  0001c	c3		 ret	 0
  0001d	cc		 int	 3
  0001e	cc		 int	 3
  0001f	cc		 int	 3
  00020	cc		 int	 3
  00021	cc		 int	 3
__ehhandler$?GetBank@CDbManager@@QAEHPAVCMover@@PAVCQuery@@PAUtagDB_OVERLAPPED_PLUS@@H@Z:
  00022	90		 npad	 1
  00023	90		 npad	 1
  00024	8b 54 24 08	 mov	 edx, DWORD PTR [esp+8]
  00028	8d 42 0c	 lea	 eax, DWORD PTR [edx+12]
  0002b	8b 8a d8 b5 ff
	ff		 mov	 ecx, DWORD PTR [edx-18984]
  00031	33 c8		 xor	 ecx, eax
  00033	e8 00 00 00 00	 call	 @__security_check_cookie@4
  00038	8b 4a fc	 mov	 ecx, DWORD PTR [edx-4]
  0003b	33 c8		 xor	 ecx, eax
  0003d	e8 00 00 00 00	 call	 @__security_check_cookie@4
  00042	b8 00 00 00 00	 mov	 eax, OFFSET __ehfuncinfo$?GetBank@CDbManager@@QAEHPAVCMover@@PAVCQuery@@PAUtagDB_OVERLAPPED_PLUS@@H@Z
  00047	e9 00 00 00 00	 jmp	 ___CxxFrameHandler3
text$x	ENDS
?GetBank@CDbManager@@QAEHPAVCMover@@PAVCQuery@@PAUtagDB_OVERLAPPED_PLUS@@H@Z ENDP ; CDbManager::GetBank
; Function compile flags: /Ogtp
; File C:\IAGOS\server\v18\Source\Source\_Database\DbManagerFun.cpp
; File C:\Program Files\Microsoft Visual Studio\2022\Professional\VC\Tools\MSVC\14.44.35207\include\vector
; File C:\IAGOS\server\v18\Source\Source\_Database\DbManagerFun.cpp
; File C:\Program Files\Microsoft Visual Studio\2022\Professional\VC\Tools\MSVC\14.44.35207\include\vector
; File C:\IAGOS\server\v18\Source\Source\_Database\DbManagerFun.cpp
; File C:\Program Files\Microsoft Visual Studio\2022\Professional\VC\Tools\MSVC\14.44.35207\include\vector
; File C:\IAGOS\server\v18\Source\Source\_Database\DbManagerFun.cpp
; File C:\Program Files\Microsoft Visual Studio\2022\Professional\VC\Tools\MSVC\14.44.35207\include\vector
; File C:\IAGOS\server\v18\Source\Source\_Database\DbManagerFun.cpp
; File C:\Program Files\Microsoft Visual Studio\2022\Professional\VC\Tools\MSVC\14.44.35207\include\vector
; File C:\IAGOS\server\v18\Source\Source\_Database\DbManagerFun.cpp
; File C:\Program Files\Microsoft Visual Studio\2022\Professional\VC\Tools\MSVC\14.44.35207\include\vector
; File C:\IAGOS\server\v18\Source\Source\_Database\DbManagerFun.cpp
; File C:\Program Files\Microsoft Visual Studio\2022\Professional\VC\Tools\MSVC\14.44.35207\include\vector
; File C:\IAGOS\server\v18\Source\Source\_Database\DbManagerFun.cpp
; File C:\Program Files\Microsoft Visual Studio\2022\Professional\VC\Tools\MSVC\14.44.35207\include\vector
; File C:\IAGOS\server\v18\Source\Source\_Database\DbManagerFun.cpp
; File C:\Program Files\Microsoft Visual Studio\2022\Professional\VC\Tools\MSVC\14.44.35207\include\vector
; File C:\IAGOS\server\v18\Source\Source\_Database\DbManagerFun.cpp
; File C:\Program Files\Microsoft Visual Studio\2022\Professional\VC\Tools\MSVC\14.44.35207\include\vector
; File C:\Program Files\Microsoft Visual Studio\2022\Professional\VC\Tools\MSVC\14.44.35207\include\xmemory
; File C:\Program Files\Microsoft Visual Studio\2022\Professional\VC\Tools\MSVC\14.44.35207\include\vector
; File C:\Program Files\Microsoft Visual Studio\2022\Professional\VC\Tools\MSVC\14.44.35207\include\xmemory
; File C:\IAGOS\server\v18\Source\Source\_Database\DbManagerFun.cpp
; File C:\Program Files\Microsoft Visual Studio\2022\Professional\VC\Tools\MSVC\14.44.35207\include\xmemory
; File C:\Program Files\Microsoft Visual Studio\2022\Professional\VC\Tools\MSVC\14.44.35207\include\vector
; File C:\IAGOS\server\v18\Source\Source\_Database\DbManagerFun.cpp
; File C:\Program Files\Microsoft Visual Studio\2022\Professional\VC\Tools\MSVC\14.44.35207\include\xmemory
; File C:\IAGOS\server\v18\Source\Source\_Database\DbManagerFun.cpp
;	COMDAT ?RemoveQuest@CDbManager@@QAEHXZ
_TEXT	SEGMENT
_this$GSCopy$1$ = -28996				; size = 4
$T2 = -28992						; size = 4
_pSql$1$ = -28992					; size = 4
_vecRemoveQuestId$ = -28988				; size = 12
_nQuestId$ = -28976					; size = 4
$T3 = -28976						; size = 4
_mover$4 = -28972					; size = 16720
_s$ = -12252						; size = 7784
_aQuest$ = -4468					; size = 3072
_aCompleteQuest$ = -1396				; size = 1024
_lpOutputString$ = -372					; size = 256
_aCheckedQuest$ = -116					; size = 100
__$ArrayPad$ = -16					; size = 4
__$EHRec$ = -12						; size = 12
?RemoveQuest@CDbManager@@QAEHXZ PROC			; CDbManager::RemoveQuest, COMDAT
; _this$ = ecx

; 1850 : {

  00000	55		 push	 ebp
  00001	8b ec		 mov	 ebp, esp
  00003	6a ff		 push	 -1
  00005	68 00 00 00 00	 push	 __ehhandler$?RemoveQuest@CDbManager@@QAEHXZ
  0000a	64 a1 00 00 00
	00		 mov	 eax, DWORD PTR fs:0
  00010	50		 push	 eax
  00011	b8 38 71 00 00	 mov	 eax, 28984		; 00007138H
  00016	e8 00 00 00 00	 call	 __chkstk
  0001b	a1 00 00 00 00	 mov	 eax, DWORD PTR ___security_cookie
  00020	33 c5		 xor	 eax, ebp
  00022	89 45 f0	 mov	 DWORD PTR __$ArrayPad$[ebp], eax
  00025	53		 push	 ebx
  00026	56		 push	 esi
  00027	57		 push	 edi
  00028	50		 push	 eax
  00029	8d 45 f4	 lea	 eax, DWORD PTR __$EHRec$[ebp]
  0002c	64 a3 00 00 00
	00		 mov	 DWORD PTR fs:0, eax
  00032	8b d9		 mov	 ebx, ecx
  00034	89 9d bc 8e ff
	ff		 mov	 DWORD PTR _this$GSCopy$1$[ebp], ebx

; 1851 : 	// load - removequest.txt
; 1852 : 	CScript s;

  0003a	6a 00		 push	 0
  0003c	8d 8d 24 d0 ff
	ff		 lea	 ecx, DWORD PTR _s$[ebp]
  00042	e8 00 00 00 00	 call	 ??0CScript@@QAE@H@Z	; CScript::CScript

; 1853 : 	OutputDebugString( "call BOOL CDbManager::RemoveQuest" );

  00047	68 00 00 00 00	 push	 OFFSET ??_C@_0CC@JKMJFPOD@call?5BOOL?5CDbManager?3?3RemoveQue@
  0004c	c7 45 fc 00 00
	00 00		 mov	 DWORD PTR __$EHRec$[ebp+8], 0
  00053	ff 15 00 00 00
	00		 call	 DWORD PTR __imp__OutputDebugStringA@4

; 1854 : 	if( FALSE == s.Load( "removequest.txt" ) )

  00059	6a 00		 push	 0
  0005b	6a 01		 push	 1
  0005d	68 00 00 00 00	 push	 OFFSET ??_C@_0BA@DPPBFHPJ@removequest?4txt@
  00062	8d 8d 24 d0 ff
	ff		 lea	 ecx, DWORD PTR _s$[ebp]
  00068	e8 00 00 00 00	 call	 ?Load@CScript@@QAEHPBDHH@Z ; CScript::Load
  0006d	85 c0		 test	 eax, eax
  0006f	75 07		 jne	 SHORT $LN9@RemoveQues
  00071	33 f6		 xor	 esi, esi
  00073	e9 fc 03 00 00	 jmp	 $LN58@RemoveQues
$LN9@RemoveQues:
; File C:\Program Files\Microsoft Visual Studio\2022\Professional\VC\Tools\MSVC\14.44.35207\include\vector

; 400  :     _CONSTEXPR20 _Vector_val() noexcept : _Myfirst(), _Mylast(), _Myend() {}

  00078	c7 85 c4 8e ff
	ff 00 00 00 00	 mov	 DWORD PTR _vecRemoveQuestId$[ebp], 0
  00082	c7 85 c8 8e ff
	ff 00 00 00 00	 mov	 DWORD PTR _vecRemoveQuestId$[ebp+4], 0
  0008c	c7 85 cc 8e ff
	ff 00 00 00 00	 mov	 DWORD PTR _vecRemoveQuestId$[ebp+8], 0
; File C:\IAGOS\server\v18\Source\Source\_Database\DbManagerFun.cpp

; 1857 : 	int	nQuestId	= s.GetNumber();

  00096	6a 00		 push	 0
  00098	8d 8d 24 d0 ff
	ff		 lea	 ecx, DWORD PTR _s$[ebp]
  0009e	c6 45 fc 01	 mov	 BYTE PTR __$EHRec$[ebp+8], 1
  000a2	e8 00 00 00 00	 call	 ?GetNumber@CScanner@@QAEHH@Z ; CScanner::GetNumber

; 1858 : 	while( s.tok != FINISHED )

  000a7	83 bd 68 d8 ff
	ff 15		 cmp	 DWORD PTR _s$[ebp+2116], 21 ; 00000015H
  000ae	8b c8		 mov	 ecx, eax
  000b0	89 8d d0 8e ff
	ff		 mov	 DWORD PTR _nQuestId$[ebp], ecx
  000b6	74 52		 je	 SHORT $LN3@RemoveQues
  000b8	0f 1f 84 00 00
	00 00 00	 npad	 8
$LL2@RemoveQues:
; File C:\Program Files\Microsoft Visual Studio\2022\Professional\VC\Tools\MSVC\14.44.35207\include\vector

; 844  :         if (_Mylast != _My_data._Myend) {

  000c0	8b 85 c8 8e ff
	ff		 mov	 eax, DWORD PTR _vecRemoveQuestId$[ebp+4]
  000c6	3b 85 cc 8e ff
	ff		 cmp	 eax, DWORD PTR _vecRemoveQuestId$[ebp+8]
  000cc	74 0b		 je	 SHORT $LN44@RemoveQues

; 860  :             _STD _Construct_in_place(*_Mylast, _STD forward<_Valty>(_Val)...);

  000ce	89 08		 mov	 DWORD PTR [eax], ecx

; 861  :         } else {
; 862  :             _ASAN_VECTOR_EXTEND_GUARD(static_cast<size_type>(_Mylast - _My_data._Myfirst) + 1);
; 863  :             _Alty_traits::construct(_Getal(), _Unfancy(_Mylast), _STD forward<_Valty>(_Val)...);
; 864  :             _ASAN_VECTOR_RELEASE_GUARD;
; 865  :         }
; 866  : 
; 867  :         _Orphan_range(_Mylast, _Mylast);
; 868  :         _Ty& _Result = *_Mylast;
; 869  :         ++_Mylast;

  000d0	83 85 c8 8e ff
	ff 04		 add	 DWORD PTR _vecRemoveQuestId$[ebp+4], 4

; 845  :             return _Emplace_back_with_unused_capacity(_STD forward<_Valty>(_Val)...);

  000d7	eb 13		 jmp	 SHORT $LN43@RemoveQues
$LN44@RemoveQues:

; 846  :         }
; 847  : 
; 848  :         return *_Emplace_reallocate(_Mylast, _STD forward<_Valty>(_Val)...);

  000d9	8d 8d d0 8e ff
	ff		 lea	 ecx, DWORD PTR _nQuestId$[ebp]
  000df	51		 push	 ecx
  000e0	50		 push	 eax
  000e1	8d 8d c4 8e ff
	ff		 lea	 ecx, DWORD PTR _vecRemoveQuestId$[ebp]
  000e7	e8 00 00 00 00	 call	 ??$_Emplace_reallocate@ABH@?$vector@HV?$allocator@H@std@@@std@@AAEPAHQAHABH@Z ; std::vector<int,std::allocator<int> >::_Emplace_reallocate<int const &>
$LN43@RemoveQues:
; File C:\IAGOS\server\v18\Source\Source\_Database\DbManagerFun.cpp

; 1861 : 		nQuestId	= s.GetNumber();

  000ec	6a 00		 push	 0
  000ee	8d 8d 24 d0 ff
	ff		 lea	 ecx, DWORD PTR _s$[ebp]
  000f4	e8 00 00 00 00	 call	 ?GetNumber@CScanner@@QAEHH@Z ; CScanner::GetNumber
  000f9	83 bd 68 d8 ff
	ff 15		 cmp	 DWORD PTR _s$[ebp+2116], 21 ; 00000015H
  00100	8b c8		 mov	 ecx, eax
  00102	89 8d d0 8e ff
	ff		 mov	 DWORD PTR _nQuestId$[ebp], ecx
  00108	75 b6		 jne	 SHORT $LL2@RemoveQues
$LN3@RemoveQues:

; 1862 : 	}
; 1863 : 
; 1864 : 	char lpOutputString[256];
; 1865 : 	char aQuest[3072]	= { 0,};

  0010a	68 00 0c 00 00	 push	 3072			; 00000c00H
  0010f	8d 85 8c ee ff
	ff		 lea	 eax, DWORD PTR _aQuest$[ebp]
  00115	6a 00		 push	 0
  00117	50		 push	 eax
  00118	e8 00 00 00 00	 call	 _memset

; 1866 : 	char aCompleteQuest[1024]	= { 0,};

  0011d	68 00 04 00 00	 push	 1024			; 00000400H
  00122	8d 85 8c fa ff
	ff		 lea	 eax, DWORD PTR _aCompleteQuest$[ebp]
  00128	6a 00		 push	 0
  0012a	50		 push	 eax
  0012b	e8 00 00 00 00	 call	 _memset

; 1867 : #if __VER >= 15 // __IMPROVE_QUEST_INTERFACE
; 1868 : 	char aCheckedQuest[100]	= {0, };

  00130	6a 64		 push	 100			; 00000064H
  00132	8d 45 8c	 lea	 eax, DWORD PTR _aCheckedQuest$[ebp]
  00135	6a 00		 push	 0
  00137	50		 push	 eax
  00138	e8 00 00 00 00	 call	 _memset

; 1869 : #endif // __IMPROVE_QUEST_INTERFACE
; 1870 : 
; 1871 : 	CQuery* pQuery	= new CQuery;

  0013d	68 10 3d 00 00	 push	 15632			; 00003d10H
  00142	e8 00 00 00 00	 call	 ??2@YAPAXI@Z		; operator new
  00147	83 c4 28	 add	 esp, 40			; 00000028H
  0014a	89 85 c0 8e ff
	ff		 mov	 DWORD PTR $T2[ebp], eax
  00150	c6 45 fc 02	 mov	 BYTE PTR __$EHRec$[ebp+8], 2
  00154	85 c0		 test	 eax, eax
  00156	74 11		 je	 SHORT $LN23@RemoveQues
  00158	8b c8		 mov	 ecx, eax
  0015a	e8 00 00 00 00	 call	 ??0CQuery@@QAE@XZ	; CQuery::CQuery
  0015f	8b f8		 mov	 edi, eax
  00161	89 85 d0 8e ff
	ff		 mov	 DWORD PTR $T3[ebp], eax
  00167	eb 08		 jmp	 SHORT $LN24@RemoveQues
$LN23@RemoveQues:
  00169	33 ff		 xor	 edi, edi
  0016b	89 bd d0 8e ff
	ff		 mov	 DWORD PTR $T3[ebp], edi
$LN24@RemoveQues:

; 1872 : 	if( FALSE == pQuery->Connect( 3, DSN_NAME_CHARACTER01, DB_ADMIN_ID_CHARACTER01, DB_ADMIN_PASS_CHARACTER01 ) )

  00171	8d b3 98 04 00
	00		 lea	 esi, DWORD PTR [ebx+1176]
  00177	c6 45 fc 01	 mov	 BYTE PTR __$EHRec$[ebp+8], 1
  0017b	56		 push	 esi
  0017c	68 00 00 00 00	 push	 OFFSET ?DB_ADMIN_ID_CHARACTER01@@3PADA ; DB_ADMIN_ID_CHARACTER01
  00181	68 00 00 00 00	 push	 OFFSET ?DSN_NAME_CHARACTER01@@3PADA ; DSN_NAME_CHARACTER01
  00186	6a 03		 push	 3
  00188	8b cf		 mov	 ecx, edi
  0018a	e8 00 00 00 00	 call	 ?Connect@CQuery@@QAEHHPAD0PBD@Z ; CQuery::Connect
  0018f	85 c0		 test	 eax, eax
  00191	75 38		 jne	 SHORT $LN10@RemoveQues

; 1873 : 	{
; 1874 : 		sprintf( lpOutputString, "fail to connect: dsn=%s, id=%s, pwd=%s", DSN_NAME_CHARACTER01, DB_ADMIN_ID_CHARACTER01, DB_ADMIN_PASS_CHARACTER01 );

  00193	56		 push	 esi
  00194	68 00 00 00 00	 push	 OFFSET ?DB_ADMIN_ID_CHARACTER01@@3PADA ; DB_ADMIN_ID_CHARACTER01
  00199	68 00 00 00 00	 push	 OFFSET ?DSN_NAME_CHARACTER01@@3PADA ; DSN_NAME_CHARACTER01
  0019e	8d 85 8c fe ff
	ff		 lea	 eax, DWORD PTR _lpOutputString$[ebp]
  001a4	68 00 00 00 00	 push	 OFFSET ??_C@_0CH@EEGILGJF@fail?5to?5connect?3?5dsn?$DN?$CFs?0?5id?$DN?$CFs?0@
  001a9	50		 push	 eax
  001aa	e8 00 00 00 00	 call	 _sprintf
  001af	83 c4 14	 add	 esp, 20			; 00000014H

; 1875 : 		OutputDebugString( lpOutputString );

  001b2	8d 85 8c fe ff
	ff		 lea	 eax, DWORD PTR _lpOutputString$[ebp]
  001b8	50		 push	 eax
  001b9	a1 00 00 00 00	 mov	 eax, DWORD PTR __imp__OutputDebugStringA@4
  001be	ff d0		 call	 eax

; 1876 : 		SAFE_DELETE( pQuery );

  001c0	85 ff		 test	 edi, edi
  001c2	75 70		 jne	 SHORT $LN136@RemoveQues
  001c4	33 f6		 xor	 esi, esi
  001c6	e9 0d 02 00 00	 jmp	 $LN40@RemoveQues
$LN10@RemoveQues:

; 1877 : 		return FALSE;
; 1878 : 	}
; 1879 : 	
; 1880 : #if __VER >= 15 // __IMPROVE_QUEST_INTERFACE
; 1881 : 	char* pSql	=  new char[4296];	// aQuest + aCompleteQuest + aCheckedQuest + 100

  001cb	68 c8 10 00 00	 push	 4296			; 000010c8H
  001d0	e8 00 00 00 00	 call	 ??_U@YAPAXI@Z		; operator new[]

; 1882 : #else // __IMPROVE_QUEST_INTERFACE
; 1883 : 	char* pSql	=  new char[4196];	// aQuest + aCompleteQuest + 100
; 1884 : #endif // __IMPROVE_QUEST_INTERFACE
; 1885 : 
; 1886 : 
; 1887 : #if __VER >= 15 // __IMPROVE_QUEST_INTERFACE
; 1888 : 	sprintf( pSql, "SELECT m_idPlayer, m_lpQuestCntArray, m_aCompleteQuest, m_aCheckedQuest FROM CHARACTER_TBL WHERE serverindex = '%02d'",

  001d5	ff 35 00 00 00
	00		 push	 DWORD PTR ?g_appInfo@@3UAppInfo@@A
  001db	8b d8		 mov	 ebx, eax
  001dd	68 00 00 00 00	 push	 OFFSET ??_C@_0HG@LPNEKFLC@SELECT?5m_idPlayer?0?5m_lpQuestCnt@
  001e2	53		 push	 ebx
  001e3	89 9d c0 8e ff
	ff		 mov	 DWORD PTR _pSql$1$[ebp], ebx
  001e9	e8 00 00 00 00	 call	 _sprintf

; 1889 : 		g_appInfo.dwSys );
; 1890 : #else // __IMPROVE_QUEST_INTERFACE
; 1891 : 	sprintf( pSql, "SELECT m_idPlayer, m_lpQuestCntArray, m_aCompleteQuest FROM CHARACTER_TBL WHERE serverindex = '%02d'",
; 1892 : 		g_appInfo.dwSys );
; 1893 : #endif // __IMPROVE_QUEST_INTERFACE
; 1894 : 
; 1895 : 	sprintf( pSql, "SELECT m_idPlayer, m_lpQuestCntArray, m_aCompleteQuest FROM CHARACTER_TBL WHERE serverindex = '%02d'",

  001ee	ff 35 00 00 00
	00		 push	 DWORD PTR ?g_appInfo@@3UAppInfo@@A
  001f4	68 00 00 00 00	 push	 OFFSET ??_C@_0GF@KIGMAII@SELECT?5m_idPlayer?0?5m_lpQuestCnt@
  001f9	53		 push	 ebx
  001fa	e8 00 00 00 00	 call	 _sprintf
  001ff	83 c4 1c	 add	 esp, 28			; 0000001cH

; 1896 : 		g_appInfo.dwSys );
; 1897 : 	if( FALSE == pQuery->Exec( pSql ) )

  00202	8b cf		 mov	 ecx, edi
  00204	53		 push	 ebx
  00205	e8 00 00 00 00	 call	 ?Exec@CQuery@@QAEHPBD@Z	; CQuery::Exec
  0020a	85 c0		 test	 eax, eax
  0020c	75 42		 jne	 SHORT $LN124@RemoveQues

; 1898 : 	{
; 1899 : 		sprintf( lpOutputString, "query error: %s", pSql );

  0020e	53		 push	 ebx
  0020f	8d 85 8c fe ff
	ff		 lea	 eax, DWORD PTR _lpOutputString$[ebp]
  00215	68 00 00 00 00	 push	 OFFSET ??_C@_0BA@PHPFGNFH@query?5error?3?5?$CFs@
  0021a	50		 push	 eax
  0021b	e8 00 00 00 00	 call	 _sprintf
  00220	83 c4 0c	 add	 esp, 12			; 0000000cH

; 1900 : 		SAFE_DELETE_ARRAY( pSql );

  00223	85 db		 test	 ebx, ebx
  00225	74 09		 je	 SHORT $LN13@RemoveQues
  00227	53		 push	 ebx
  00228	e8 00 00 00 00	 call	 ??_V@YAXPAX@Z		; operator delete[]
  0022d	83 c4 04	 add	 esp, 4
$LN13@RemoveQues:

; 1901 : 		SAFE_DELETE( pQuery );

  00230	85 ff		 test	 edi, edi
  00232	74 15		 je	 SHORT $LN99@RemoveQues
$LN136@RemoveQues:
  00234	8b cf		 mov	 ecx, edi
  00236	e8 00 00 00 00	 call	 ??1CQuery@@QAE@XZ	; CQuery::~CQuery
  0023b	68 10 3d 00 00	 push	 15632			; 00003d10H
  00240	57		 push	 edi
  00241	e8 00 00 00 00	 call	 ??3@YAXPAXI@Z		; operator delete
  00246	83 c4 08	 add	 esp, 8
$LN99@RemoveQues:
  00249	33 f6		 xor	 esi, esi
  0024b	e9 88 01 00 00	 jmp	 $LN40@RemoveQues
$LN124@RemoveQues:

; 1902 : 		return FALSE;
; 1903 : 	}
; 1904 : 	while( pQuery->Fetch() )

  00250	8b cf		 mov	 ecx, edi
  00252	e8 00 00 00 00	 call	 ?Fetch@CQuery@@QAEHXZ	; CQuery::Fetch
  00257	85 c0		 test	 eax, eax
  00259	0f 84 42 01 00
	00		 je	 $LN5@RemoveQues
  0025f	90		 npad	 1
$LL4@RemoveQues:

; 1905 : 	{
; 1906 : 		CMover	mover;

  00260	8d 8d d4 8e ff
	ff		 lea	 ecx, DWORD PTR _mover$4[ebp]
  00266	e8 00 00 00 00	 call	 ??0CMover@@QAE@XZ	; CMover::CMover

; 1907 : 		mover.m_idPlayer	= pQuery->GetInt( "m_idPlayer" );

  0026b	68 00 00 00 00	 push	 OFFSET ??_C@_0L@FONFFEJF@m_idPlayer@
  00270	8b cf		 mov	 ecx, edi
  00272	c6 45 fc 03	 mov	 BYTE PTR __$EHRec$[ebp+8], 3
  00276	e8 00 00 00 00	 call	 ?GetInt@CQuery@@QAEHPAD@Z ; CQuery::GetInt

; 1908 : 		//GetQuest( &mover, pQuery, NULL );
; 1909 : 		// mirchang_100416 VERIFYSTRING use return value
; 1910 : 		if( GetQuest( &mover, pQuery, NULL ) == FALSE )

  0027b	8b 8d bc 8e ff
	ff		 mov	 ecx, DWORD PTR _this$GSCopy$1$[ebp]
  00281	6a 00		 push	 0
  00283	89 85 64 8f ff
	ff		 mov	 DWORD PTR _mover$4[ebp+144], eax
  00289	8d 85 d4 8e ff
	ff		 lea	 eax, DWORD PTR _mover$4[ebp]
  0028f	57		 push	 edi
  00290	50		 push	 eax
  00291	e8 00 00 00 00	 call	 ?GetQuest@CDbManager@@QAEHPAVCMover@@PAVCQuery@@PAUtagDB_OVERLAPPED_PLUS@@@Z ; CDbManager::GetQuest
  00296	85 c0		 test	 eax, eax
  00298	0f 84 73 01 00
	00		 je	 $LN126@RemoveQues
; File C:\Program Files\Microsoft Visual Studio\2022\Professional\VC\Tools\MSVC\14.44.35207\include\vector

; 1915 :         return static_cast<size_type>(_My_data._Mylast - _My_data._Myfirst);

  0029e	8b 85 c8 8e ff
	ff		 mov	 eax, DWORD PTR _vecRemoveQuestId$[ebp+4]
; File C:\IAGOS\server\v18\Source\Source\_Database\DbManagerFun.cpp

; 1918 : 		BOOL bRemove	= FALSE;

  002a4	33 f6		 xor	 esi, esi
; File C:\Program Files\Microsoft Visual Studio\2022\Professional\VC\Tools\MSVC\14.44.35207\include\vector

; 1915 :         return static_cast<size_type>(_My_data._Mylast - _My_data._Myfirst);

  002a6	8b 8d c4 8e ff
	ff		 mov	 ecx, DWORD PTR _vecRemoveQuestId$[ebp]
; File C:\IAGOS\server\v18\Source\Source\_Database\DbManagerFun.cpp

; 1919 : 		for( DWORD i = 0; i < vecRemoveQuestId.size(); i++ )

  002ac	33 db		 xor	 ebx, ebx
; File C:\Program Files\Microsoft Visual Studio\2022\Professional\VC\Tools\MSVC\14.44.35207\include\vector

; 1915 :         return static_cast<size_type>(_My_data._Mylast - _My_data._Myfirst);

  002ae	2b c1		 sub	 eax, ecx
  002b0	c1 f8 02	 sar	 eax, 2
; File C:\IAGOS\server\v18\Source\Source\_Database\DbManagerFun.cpp

; 1919 : 		for( DWORD i = 0; i < vecRemoveQuestId.size(); i++ )

  002b3	85 c0		 test	 eax, eax
  002b5	74 38		 je	 SHORT $LN7@RemoveQues
  002b7	8d 7e 01	 lea	 edi, DWORD PTR [esi+1]
  002ba	66 0f 1f 44 00
	00		 npad	 6
$LL8@RemoveQues:

; 1921 : 			if( mover.RemoveQuest( vecRemoveQuestId[i] ) )

  002c0	ff 34 99	 push	 DWORD PTR [ecx+ebx*4]
  002c3	8d 8d d4 8e ff
	ff		 lea	 ecx, DWORD PTR _mover$4[ebp]
  002c9	e8 00 00 00 00	 call	 ?RemoveQuest@CMover@@QAEHH@Z ; CMover::RemoveQuest
; File C:\Program Files\Microsoft Visual Studio\2022\Professional\VC\Tools\MSVC\14.44.35207\include\vector

; 1915 :         return static_cast<size_type>(_My_data._Mylast - _My_data._Myfirst);

  002ce	8b 8d c4 8e ff
	ff		 mov	 ecx, DWORD PTR _vecRemoveQuestId$[ebp]
; File C:\IAGOS\server\v18\Source\Source\_Database\DbManagerFun.cpp

; 1921 : 			if( mover.RemoveQuest( vecRemoveQuestId[i] ) )

  002d4	85 c0		 test	 eax, eax
; File C:\Program Files\Microsoft Visual Studio\2022\Professional\VC\Tools\MSVC\14.44.35207\include\vector

; 1915 :         return static_cast<size_type>(_My_data._Mylast - _My_data._Myfirst);

  002d6	8b 85 c8 8e ff
	ff		 mov	 eax, DWORD PTR _vecRemoveQuestId$[ebp+4]
; File C:\IAGOS\server\v18\Source\Source\_Database\DbManagerFun.cpp

; 1921 : 			if( mover.RemoveQuest( vecRemoveQuestId[i] ) )

  002dc	0f 45 f7	 cmovne	 esi, edi
; File C:\Program Files\Microsoft Visual Studio\2022\Professional\VC\Tools\MSVC\14.44.35207\include\vector

; 1915 :         return static_cast<size_type>(_My_data._Mylast - _My_data._Myfirst);

  002df	2b c1		 sub	 eax, ecx
; File C:\IAGOS\server\v18\Source\Source\_Database\DbManagerFun.cpp

; 1919 : 		for( DWORD i = 0; i < vecRemoveQuestId.size(); i++ )

  002e1	43		 inc	 ebx
; File C:\Program Files\Microsoft Visual Studio\2022\Professional\VC\Tools\MSVC\14.44.35207\include\vector

; 1915 :         return static_cast<size_type>(_My_data._Mylast - _My_data._Myfirst);

  002e2	c1 f8 02	 sar	 eax, 2
; File C:\IAGOS\server\v18\Source\Source\_Database\DbManagerFun.cpp

; 1919 : 		for( DWORD i = 0; i < vecRemoveQuestId.size(); i++ )

  002e5	3b d8		 cmp	 ebx, eax
  002e7	72 d7		 jb	 SHORT $LL8@RemoveQues
  002e9	8b bd d0 8e ff
	ff		 mov	 edi, DWORD PTR $T3[ebp]
$LN7@RemoveQues:

; 1922 : 				bRemove	= TRUE;
; 1923 : 		}
; 1924 : 		memset( aQuest, 0, sizeof(aQuest) );

  002ef	68 00 0c 00 00	 push	 3072			; 00000c00H
  002f4	8d 85 8c ee ff
	ff		 lea	 eax, DWORD PTR _aQuest$[ebp]
  002fa	6a 00		 push	 0
  002fc	50		 push	 eax
  002fd	e8 00 00 00 00	 call	 _memset

; 1925 : 		memset( aCompleteQuest, 0, sizeof(aCompleteQuest) );

  00302	68 00 04 00 00	 push	 1024			; 00000400H
  00307	8d 85 8c fa ff
	ff		 lea	 eax, DWORD PTR _aCompleteQuest$[ebp]
  0030d	6a 00		 push	 0
  0030f	50		 push	 eax
  00310	e8 00 00 00 00	 call	 _memset

; 1926 : #if __VER >= 15 // __IMPROVE_QUEST_INTERFACE
; 1927 : 		memset( aCheckedQuest, 0, sizeof(aCheckedQuest) );

  00315	6a 64		 push	 100			; 00000064H
  00317	8d 45 8c	 lea	 eax, DWORD PTR _aCheckedQuest$[ebp]
  0031a	6a 00		 push	 0
  0031c	50		 push	 eax
  0031d	e8 00 00 00 00	 call	 _memset
  00322	83 c4 24	 add	 esp, 36			; 00000024H

; 1928 : #endif // __IMPROVE_QUEST_INTERFACE
; 1929 : 		if( bRemove )

  00325	85 f6		 test	 esi, esi
  00327	74 54		 je	 SHORT $LN19@RemoveQues

; 1930 : 		{
; 1931 : #if __VER >= 15 // __IMPROVE_QUEST_INTERFACE
; 1932 : 			SaveQuest( &mover, aQuest, aCompleteQuest, aCheckedQuest );

  00329	8b 8d bc 8e ff
	ff		 mov	 ecx, DWORD PTR _this$GSCopy$1$[ebp]
  0032f	8d 45 8c	 lea	 eax, DWORD PTR _aCheckedQuest$[ebp]
  00332	50		 push	 eax
  00333	8d 85 8c fa ff
	ff		 lea	 eax, DWORD PTR _aCompleteQuest$[ebp]
  00339	50		 push	 eax
  0033a	8d 85 8c ee ff
	ff		 lea	 eax, DWORD PTR _aQuest$[ebp]
  00340	50		 push	 eax
  00341	8d 85 d4 8e ff
	ff		 lea	 eax, DWORD PTR _mover$4[ebp]
  00347	50		 push	 eax
  00348	e8 00 00 00 00	 call	 ?SaveQuest@CDbManager@@QAEXPAVCMover@@PAD11@Z ; CDbManager::SaveQuest

; 1933 : 			FILEOUT( "query_removequest.txt", "UPDATE CHARACTER_TBL SET m_lpQuestCntArray = '%s', m_aCompleteQuest = '%s', m_aCheckedQuest = '%s' WHERE m_idPlayer = '%07d' and serverindex = '%02d'",

  0034d	ff 35 00 00 00
	00		 push	 DWORD PTR ?g_appInfo@@3UAppInfo@@A
  00353	8d 45 8c	 lea	 eax, DWORD PTR _aCheckedQuest$[ebp]
  00356	ff b5 64 8f ff
	ff		 push	 DWORD PTR _mover$4[ebp+144]
  0035c	50		 push	 eax
  0035d	8d 85 8c fa ff
	ff		 lea	 eax, DWORD PTR _aCompleteQuest$[ebp]
  00363	50		 push	 eax
  00364	8d 85 8c ee ff
	ff		 lea	 eax, DWORD PTR _aQuest$[ebp]
  0036a	50		 push	 eax
  0036b	68 00 00 00 00	 push	 OFFSET ??_C@_0JG@EPDAEJAA@UPDATE?5CHARACTER_TBL?5SET?5m_lpQu@
  00370	68 00 00 00 00	 push	 OFFSET ??_C@_0BG@JHIJALBF@query_removequest?4txt@
  00375	e8 00 00 00 00	 call	 ?FILEOUT@@YAXPBD0ZZ	; FILEOUT
  0037a	83 c4 1c	 add	 esp, 28			; 0000001cH
$LN19@RemoveQues:

; 1934 : 				aQuest, aCompleteQuest, aCheckedQuest, mover.m_idPlayer, g_appInfo.dwSys );
; 1935 : #else // __IMPROVE_QUEST_INTERFACE
; 1936 : 			SaveQuest( &mover, aQuest, aCompleteQuest );
; 1937 : 			FILEOUT( "query_removequest.txt", "UPDATE CHARACTER_TBL SET m_lpQuestCntArray = '%s', m_aCompleteQuest = '%s' WHERE m_idPlayer = '%07d' and serverindex = '%02d'",
; 1938 : 				aQuest, aCompleteQuest, mover.m_idPlayer, g_appInfo.dwSys );
; 1939 : #endif // __IMPROVE_QUEST_INTERFACE
; 1940 : 		}
; 1941 : 	}

  0037d	8d 8d d4 8e ff
	ff		 lea	 ecx, DWORD PTR _mover$4[ebp]
  00383	c6 45 fc 01	 mov	 BYTE PTR __$EHRec$[ebp+8], 1
  00387	e8 00 00 00 00	 call	 ??1CMover@@UAE@XZ	; CMover::~CMover
  0038c	8b cf		 mov	 ecx, edi
  0038e	e8 00 00 00 00	 call	 ?Fetch@CQuery@@QAEHXZ	; CQuery::Fetch
  00393	85 c0		 test	 eax, eax
  00395	0f 85 c5 fe ff
	ff		 jne	 $LL4@RemoveQues

; 1908 : 		//GetQuest( &mover, pQuery, NULL );
; 1909 : 		// mirchang_100416 VERIFYSTRING use return value
; 1910 : 		if( GetQuest( &mover, pQuery, NULL ) == FALSE )

  0039b	8b 9d c0 8e ff
	ff		 mov	 ebx, DWORD PTR _pSql$1$[ebp]
$LN5@RemoveQues:

; 1942 : 	OutputDebugString( "RemoveQuest complete" );

  003a1	a1 00 00 00 00	 mov	 eax, DWORD PTR __imp__OutputDebugStringA@4
  003a6	68 00 00 00 00	 push	 OFFSET ??_C@_0BF@KCBBBMFM@RemoveQuest?5complete@
  003ab	ff d0		 call	 eax

; 1943 : 	SAFE_DELETE_ARRAY( pSql );

  003ad	85 db		 test	 ebx, ebx
  003af	74 09		 je	 SHORT $LN20@RemoveQues
  003b1	53		 push	 ebx
  003b2	e8 00 00 00 00	 call	 ??_V@YAXPAX@Z		; operator delete[]
  003b7	83 c4 04	 add	 esp, 4
$LN20@RemoveQues:

; 1944 : 	SAFE_DELETE( pQuery );

  003ba	85 ff		 test	 edi, edi
  003bc	74 15		 je	 SHORT $LN87@RemoveQues
  003be	8b cf		 mov	 ecx, edi
  003c0	e8 00 00 00 00	 call	 ??1CQuery@@QAE@XZ	; CQuery::~CQuery
  003c5	68 10 3d 00 00	 push	 15632			; 00003d10H
  003ca	57		 push	 edi
  003cb	e8 00 00 00 00	 call	 ??3@YAXPAXI@Z		; operator delete
  003d0	83 c4 08	 add	 esp, 8
$LN87@RemoveQues:

; 1945 : 	return TRUE;

  003d3	be 01 00 00 00	 mov	 esi, 1
$LN40@RemoveQues:
; File C:\Program Files\Microsoft Visual Studio\2022\Professional\VC\Tools\MSVC\14.44.35207\include\vector

; 2090 :         if (_Myfirst) { // destroy and deallocate old array

  003d8	8b 95 c4 8e ff
	ff		 mov	 edx, DWORD PTR _vecRemoveQuestId$[ebp]
  003de	85 d2		 test	 edx, edx
  003e0	0f 84 8e 00 00
	00		 je	 $LN58@RemoveQues

; 2093 :             _Al.deallocate(_Myfirst, static_cast<size_type>(_Myend - _Myfirst));

  003e6	8b 8d cc 8e ff
	ff		 mov	 ecx, DWORD PTR _vecRemoveQuestId$[ebp+8]
; File C:\Program Files\Microsoft Visual Studio\2022\Professional\VC\Tools\MSVC\14.44.35207\include\xmemory

; 985  :         _STD _Deallocate<_New_alignof<_Ty>>(_Ptr, sizeof(_Ty) * _Count);

  003ec	8b c2		 mov	 eax, edx
; File C:\Program Files\Microsoft Visual Studio\2022\Professional\VC\Tools\MSVC\14.44.35207\include\vector

; 2093 :             _Al.deallocate(_Myfirst, static_cast<size_type>(_Myend - _Myfirst));

  003ee	2b ca		 sub	 ecx, edx
; File C:\Program Files\Microsoft Visual Studio\2022\Professional\VC\Tools\MSVC\14.44.35207\include\xmemory

; 985  :         _STD _Deallocate<_New_alignof<_Ty>>(_Ptr, sizeof(_Ty) * _Count);

  003f0	83 e1 fc	 and	 ecx, -4			; fffffffcH

; 284  :         if (_Bytes >= _Big_allocation_threshold) {

  003f3	81 f9 00 10 00
	00		 cmp	 ecx, 4096		; 00001000H
  003f9	72 51		 jb	 SHORT $LN71@RemoveQues

; 205  :     const uintptr_t _Ptr_container   = _Ptr_user[-1];

  003fb	8b 50 fc	 mov	 edx, DWORD PTR [eax-4]
  003fe	83 c1 23	 add	 ecx, 35			; 00000023H
  00401	2b c2		 sub	 eax, edx

; 219  :     _STL_VERIFY(_Back_shift >= _Min_back_shift && _Back_shift <= _Non_user_size, "invalid argument");

  00403	83 c0 fc	 add	 eax, -4			; fffffffcH
  00406	83 f8 1f	 cmp	 eax, 31			; 0000001fH
  00409	0f 87 8e 00 00
	00		 ja	 $LN141@RemoveQues
  0040f	eb 3b		 jmp	 SHORT $LN71@RemoveQues
$LN126@RemoveQues:
; File C:\IAGOS\server\v18\Source\Source\_Database\DbManagerFun.cpp

; 1912 : 			SAFE_DELETE_ARRAY( pSql );

  00411	8b 9d c0 8e ff
	ff		 mov	 ebx, DWORD PTR _pSql$1$[ebp]
  00417	85 db		 test	 ebx, ebx
  00419	74 09		 je	 SHORT $LN16@RemoveQues
  0041b	53		 push	 ebx
  0041c	e8 00 00 00 00	 call	 ??_V@YAXPAX@Z		; operator delete[]
  00421	83 c4 04	 add	 esp, 4
$LN16@RemoveQues:

; 1913 : 			SAFE_DELETE( pQuery );

  00424	85 ff		 test	 edi, edi
  00426	74 15		 je	 SHORT $LN91@RemoveQues
  00428	8b cf		 mov	 ecx, edi
  0042a	e8 00 00 00 00	 call	 ??1CQuery@@QAE@XZ	; CQuery::~CQuery
  0042f	68 10 3d 00 00	 push	 15632			; 00003d10H
  00434	57		 push	 edi
  00435	e8 00 00 00 00	 call	 ??3@YAXPAXI@Z		; operator delete
  0043a	83 c4 08	 add	 esp, 8
$LN91@RemoveQues:

; 1914 : 			return FALSE;

  0043d	8d 8d d4 8e ff
	ff		 lea	 ecx, DWORD PTR _mover$4[ebp]
  00443	e8 00 00 00 00	 call	 ??1CMover@@UAE@XZ	; CMover::~CMover
  00448	33 f6		 xor	 esi, esi
  0044a	eb 8c		 jmp	 SHORT $LN40@RemoveQues
$LN71@RemoveQues:
; File C:\Program Files\Microsoft Visual Studio\2022\Professional\VC\Tools\MSVC\14.44.35207\include\xmemory

; 289  :         ::operator delete(_Ptr, _Bytes);

  0044c	51		 push	 ecx
  0044d	52		 push	 edx
  0044e	e8 00 00 00 00	 call	 ??3@YAXPAXI@Z		; operator delete
  00453	83 c4 08	 add	 esp, 8
; File C:\Program Files\Microsoft Visual Studio\2022\Professional\VC\Tools\MSVC\14.44.35207\include\vector

; 2095 :             _Myfirst = nullptr;

  00456	c7 85 c4 8e ff
	ff 00 00 00 00	 mov	 DWORD PTR _vecRemoveQuestId$[ebp], 0

; 2096 :             _Mylast  = nullptr;

  00460	c7 85 c8 8e ff
	ff 00 00 00 00	 mov	 DWORD PTR _vecRemoveQuestId$[ebp+4], 0

; 2097 :             _Myend   = nullptr;

  0046a	c7 85 cc 8e ff
	ff 00 00 00 00	 mov	 DWORD PTR _vecRemoveQuestId$[ebp+8], 0
$LN58@RemoveQues:
; File C:\IAGOS\server\v18\Source\Source\_Database\DbManagerFun.cpp

; 1945 : 	return TRUE;

  00474	8d 8d 24 d0 ff
	ff		 lea	 ecx, DWORD PTR _s$[ebp]
  0047a	e8 00 00 00 00	 call	 ??1CScript@@UAE@XZ	; CScript::~CScript
  0047f	8b c6		 mov	 eax, esi

; 1946 : }

  00481	8b 4d f4	 mov	 ecx, DWORD PTR __$EHRec$[ebp]
  00484	64 89 0d 00 00
	00 00		 mov	 DWORD PTR fs:0, ecx
  0048b	59		 pop	 ecx
  0048c	5f		 pop	 edi
  0048d	5e		 pop	 esi
  0048e	5b		 pop	 ebx
  0048f	8b 4d f0	 mov	 ecx, DWORD PTR __$ArrayPad$[ebp]
  00492	33 cd		 xor	 ecx, ebp
  00494	e8 00 00 00 00	 call	 @__security_check_cookie@4
  00499	8b e5		 mov	 esp, ebp
  0049b	5d		 pop	 ebp
  0049c	c3		 ret	 0
$LN141@RemoveQues:
; File C:\Program Files\Microsoft Visual Studio\2022\Professional\VC\Tools\MSVC\14.44.35207\include\xmemory

; 219  :     _STL_VERIFY(_Back_shift >= _Min_back_shift && _Back_shift <= _Non_user_size, "invalid argument");

  0049d	6a 00		 push	 0
  0049f	6a 00		 push	 0
  004a1	6a 00		 push	 0
  004a3	6a 00		 push	 0
  004a5	6a 00		 push	 0
  004a7	e8 00 00 00 00	 call	 __invoke_watson
$LN139@RemoveQues:
  004ac	cc		 int	 3
_TEXT	ENDS
;	COMDAT text$x
text$x	SEGMENT
__unwindfunclet$?RemoveQuest@CDbManager@@QAEHXZ$0:
  00000	8d 8d 24 d0 ff
	ff		 lea	 ecx, DWORD PTR _s$[ebp]
  00006	e9 00 00 00 00	 jmp	 ??1CScript@@UAE@XZ	; CScript::~CScript
__unwindfunclet$?RemoveQuest@CDbManager@@QAEHXZ$1:
  0000b	8d 8d c4 8e ff
	ff		 lea	 ecx, DWORD PTR _vecRemoveQuestId$[ebp]
  00011	e9 00 00 00 00	 jmp	 ??1?$vector@HV?$allocator@H@std@@@std@@QAE@XZ ; std::vector<int,std::allocator<int> >::~vector<int,std::allocator<int> >
__unwindfunclet$?RemoveQuest@CDbManager@@QAEHXZ$2:
  00016	68 10 3d 00 00	 push	 15632			; 00003d10H
  0001b	8b 85 c0 8e ff
	ff		 mov	 eax, DWORD PTR $T2[ebp]
  00021	50		 push	 eax
  00022	e8 00 00 00 00	 call	 ??3@YAXPAXI@Z		; operator delete
  00027	83 c4 08	 add	 esp, 8
  0002a	c3		 ret	 0
__unwindfunclet$?RemoveQuest@CDbManager@@QAEHXZ$3:
  0002b	8d 8d d4 8e ff
	ff		 lea	 ecx, DWORD PTR _mover$4[ebp]
  00031	e9 00 00 00 00	 jmp	 ??1CMover@@UAE@XZ	; CMover::~CMover
  00036	cc		 int	 3
  00037	cc		 int	 3
  00038	cc		 int	 3
  00039	cc		 int	 3
  0003a	cc		 int	 3
__ehhandler$?RemoveQuest@CDbManager@@QAEHXZ:
  0003b	90		 npad	 1
  0003c	90		 npad	 1
  0003d	8b 54 24 08	 mov	 edx, DWORD PTR [esp+8]
  00041	8d 42 0c	 lea	 eax, DWORD PTR [edx+12]
  00044	8b 8a b8 8e ff
	ff		 mov	 ecx, DWORD PTR [edx-29000]
  0004a	33 c8		 xor	 ecx, eax
  0004c	e8 00 00 00 00	 call	 @__security_check_cookie@4
  00051	8b 4a fc	 mov	 ecx, DWORD PTR [edx-4]
  00054	33 c8		 xor	 ecx, eax
  00056	e8 00 00 00 00	 call	 @__security_check_cookie@4
  0005b	b8 00 00 00 00	 mov	 eax, OFFSET __ehfuncinfo$?RemoveQuest@CDbManager@@QAEHXZ
  00060	e9 00 00 00 00	 jmp	 ___CxxFrameHandler3
text$x	ENDS
?RemoveQuest@CDbManager@@QAEHXZ ENDP			; CDbManager::RemoveQuest
; Function compile flags: /Ogtp
; File C:\IAGOS\server\v18\Source\Source\_Network\Objects\Obj.h
;	COMDAT ?UnEquip@?$CItemContainer@VCItemElem@@@@QAEHK@Z
_TEXT	SEGMENT
_dwId$1$ = -4						; size = 4
_dwIndex$ = 8						; size = 4
tv380 = 8						; size = 4
?UnEquip@?$CItemContainer@VCItemElem@@@@QAEHK@Z PROC	; CItemContainer<CItemElem>::UnEquip, COMDAT
; _this$ = ecx

; 743  : { 

  00000	55		 push	 ebp
  00001	8b ec		 mov	 ebp, esp
  00003	51		 push	 ecx

; 744  : 	dwIndex		+= m_dwIndexNum;

  00004	8b 45 08	 mov	 eax, DWORD PTR _dwIndex$[ebp]
  00007	53		 push	 ebx
  00008	56		 push	 esi
  00009	57		 push	 edi
  0000a	8b f9		 mov	 edi, ecx
  0000c	8b 5f 08	 mov	 ebx, DWORD PTR [edi+8]
  0000f	03 c3		 add	 eax, ebx

; 745  : 	if( dwIndex >= m_dwItemMax )

  00011	8b 4f 10	 mov	 ecx, DWORD PTR [edi+16]
  00014	3b c1		 cmp	 eax, ecx
  00016	73 3a		 jae	 SHORT $LN15@UnEquip

; 746  : 		return FALSE;
; 747  : 
; 748  : 	DWORD dwId	= m_apIndex[dwIndex];

  00018	8b 77 04	 mov	 esi, DWORD PTR [edi+4]
  0001b	c1 e0 02	 shl	 eax, 2
  0001e	89 45 08	 mov	 DWORD PTR tv380[ebp], eax
  00021	8b 04 06	 mov	 eax, DWORD PTR [esi+eax]
  00024	89 45 fc	 mov	 DWORD PTR _dwId$1$[ebp], eax

; 749  : 
; 750  : 	if( dwId >= m_dwItemMax )

  00027	3b c1		 cmp	 eax, ecx
  00029	73 27		 jae	 SHORT $LN15@UnEquip

; 751  : 		return FALSE;
; 752  : 
; 753  : 	for( DWORD i = 0; i < m_dwIndexNum; i++ )

  0002b	33 d2		 xor	 edx, edx
  0002d	85 db		 test	 ebx, ebx
  0002f	74 21		 je	 SHORT $LN15@UnEquip
$LL4@UnEquip:

; 754  : 	{
; 755  : 		if( m_apIndex[i] >= m_dwItemMax )

  00031	8b 06		 mov	 eax, DWORD PTR [esi]
  00033	3b c1		 cmp	 eax, ecx
  00035	73 13		 jae	 SHORT $LN2@UnEquip

; 756  : 			continue;
; 757  : 
; 758  : 		if( m_apItem[m_apIndex[i]].IsEmpty() )

  00037	69 c8 98 00 00
	00		 imul	 ecx, eax, 152

; 131  : 	BOOL	IsEmpty()	{	return m_dwItemId ? FALSE : TRUE;	}

  0003d	8b 47 0c	 mov	 eax, DWORD PTR [edi+12]
  00040	83 7c 08 08 00	 cmp	 DWORD PTR [eax+ecx+8], 0

; 756  : 			continue;
; 757  : 
; 758  : 		if( m_apItem[m_apIndex[i]].IsEmpty() )

  00045	74 16		 je	 SHORT $LN13@UnEquip
  00047	8b 4f 10	 mov	 ecx, DWORD PTR [edi+16]
$LN2@UnEquip:

; 751  : 		return FALSE;
; 752  : 
; 753  : 	for( DWORD i = 0; i < m_dwIndexNum; i++ )

  0004a	42		 inc	 edx
  0004b	83 c6 04	 add	 esi, 4
  0004e	3b d3		 cmp	 edx, ebx
  00050	72 df		 jb	 SHORT $LL4@UnEquip
$LN15@UnEquip:
  00052	5f		 pop	 edi

; 765  : 		}
; 766  : 	}
; 767  : 	return FALSE;
; 768  : }

  00053	5e		 pop	 esi
  00054	33 c0		 xor	 eax, eax
  00056	5b		 pop	 ebx
  00057	8b e5		 mov	 esp, ebp
  00059	5d		 pop	 ebp
  0005a	c2 04 00	 ret	 4
$LN13@UnEquip:

; 759  : 		{
; 760  : 			m_apItem[m_apIndex[i]].m_dwObjIndex		= NULL_ID;
; 761  : 			m_apIndex[dwIndex]	= NULL_ID;
; 762  : 			m_apItem[dwId].m_dwObjIndex		= i;

  0005d	8b 75 fc	 mov	 esi, DWORD PTR _dwId$1$[ebp]
  00060	c7 44 08 2c ff
	ff ff ff	 mov	 DWORD PTR [eax+ecx+44], -1
  00068	8b 47 04	 mov	 eax, DWORD PTR [edi+4]
  0006b	8b 4d 08	 mov	 ecx, DWORD PTR tv380[ebp]
  0006e	c7 04 01 ff ff
	ff ff		 mov	 DWORD PTR [ecx+eax], -1
  00075	8b 47 0c	 mov	 eax, DWORD PTR [edi+12]
  00078	69 ce 98 00 00
	00		 imul	 ecx, esi, 152
  0007e	89 54 01 2c	 mov	 DWORD PTR [ecx+eax+44], edx

; 763  : 			m_apIndex[i]	= dwId;

  00082	8b 47 04	 mov	 eax, DWORD PTR [edi+4]
  00085	5f		 pop	 edi
  00086	89 34 90	 mov	 DWORD PTR [eax+edx*4], esi

; 764  : 			return TRUE;

  00089	b8 01 00 00 00	 mov	 eax, 1

; 765  : 		}
; 766  : 	}
; 767  : 	return FALSE;
; 768  : }

  0008e	5e		 pop	 esi
  0008f	5b		 pop	 ebx
  00090	8b e5		 mov	 esp, ebp
  00092	5d		 pop	 ebp
  00093	c2 04 00	 ret	 4
?UnEquip@?$CItemContainer@VCItemElem@@@@QAEHK@Z ENDP	; CItemContainer<CItemElem>::UnEquip
_TEXT	ENDS
; Function compile flags: /Ogtp
; File C:\IAGOS\server\v18\Source\Source\_Network\Objects\Obj.h
;	COMDAT ?RemoveAt@?$CItemContainer@VCItemElem@@@@QAEXK@Z
_TEXT	SEGMENT
_dwIndex$ = 8						; size = 4
?RemoveAt@?$CItemContainer@VCItemElem@@@@QAEXK@Z PROC	; CItemContainer<CItemElem>::RemoveAt, COMDAT
; _this$ = ecx

; 711  : {

  00000	55		 push	 ebp
  00001	8b ec		 mov	 ebp, esp
  00003	56		 push	 esi

; 712  : 	m_apItem[ m_apIndex[ dwIndex ] ].Empty();

  00004	8b 75 08	 mov	 esi, DWORD PTR _dwIndex$[ebp]
  00007	57		 push	 edi
  00008	8b f9		 mov	 edi, ecx
  0000a	8b 47 04	 mov	 eax, DWORD PTR [edi+4]
  0000d	69 0c b0 98 00
	00 00		 imul	 ecx, DWORD PTR [eax+esi*4], 152
  00014	03 4f 0c	 add	 ecx, DWORD PTR [edi+12]
  00017	8b 01		 mov	 eax, DWORD PTR [ecx]
  00019	ff 50 04	 call	 DWORD PTR [eax+4]

; 713  : 	if( dwIndex >= m_dwIndexNum )

  0001c	3b 77 08	 cmp	 esi, DWORD PTR [edi+8]
  0001f	72 1f		 jb	 SHORT $LN2@RemoveAt

; 714  : 	{
; 715  : 		m_apItem[ m_apIndex[ dwIndex ] ].m_dwObjIndex = NULL_ID;

  00021	8b 47 04	 mov	 eax, DWORD PTR [edi+4]
  00024	69 0c b0 98 00
	00 00		 imul	 ecx, DWORD PTR [eax+esi*4], 152
  0002b	8b 47 0c	 mov	 eax, DWORD PTR [edi+12]
  0002e	c7 44 01 2c ff
	ff ff ff	 mov	 DWORD PTR [ecx+eax+44], -1

; 716  : 		m_apIndex[ dwIndex ] = NULL_ID;

  00036	8b 47 04	 mov	 eax, DWORD PTR [edi+4]
  00039	c7 04 b0 ff ff
	ff ff		 mov	 DWORD PTR [eax+esi*4], -1
$LN2@RemoveAt:

; 717  : 	}
; 718  : 	//for( int i = dwIndex; i < m_dwIndexNum - 1; i++ )
; 719  : 	//	m_apIndex[ i ] = m_apIndex[ i + 1 ];
; 720  : 	//m_dwIndexNum--;
; 721  : }

  00040	5f		 pop	 edi
  00041	5e		 pop	 esi
  00042	5d		 pop	 ebp
  00043	c2 04 00	 ret	 4
?RemoveAt@?$CItemContainer@VCItemElem@@@@QAEXK@Z ENDP	; CItemContainer<CItemElem>::RemoveAt
_TEXT	ENDS
; Function compile flags: /Ogtp
; File C:\IAGOS\server\v18\Source\Source\_Network\Objects\Obj.h
;	COMDAT ?IsEquip@?$CItemContainer@VCItemElem@@@@QAEHK@Z
_TEXT	SEGMENT
_dwObjId$ = 8						; size = 4
?IsEquip@?$CItemContainer@VCItemElem@@@@QAEHK@Z PROC	; CItemContainer<CItemElem>::IsEquip, COMDAT
; _this$ = ecx

; 705  : {

  00000	55		 push	 ebp
  00001	8b ec		 mov	 ebp, esp

; 706  : 	if( m_apItem[ dwObjId ].m_dwObjIndex >= m_dwIndexNum )

  00003	69 55 08 98 00
	00 00		 imul	 edx, DWORD PTR _dwObjId$[ebp], 152
  0000a	8b 41 0c	 mov	 eax, DWORD PTR [ecx+12]
  0000d	8b 44 02 2c	 mov	 eax, DWORD PTR [edx+eax+44]
  00011	3b 41 08	 cmp	 eax, DWORD PTR [ecx+8]
  00014	1b c0		 sbb	 eax, eax
  00016	40		 inc	 eax

; 707  : 		return TRUE;
; 708  : 	return FALSE;
; 709  : }

  00017	5d		 pop	 ebp
  00018	c2 04 00	 ret	 4
?IsEquip@?$CItemContainer@VCItemElem@@@@QAEHK@Z ENDP	; CItemContainer<CItemElem>::IsEquip
_TEXT	ENDS
; Function compile flags: /Ogtp
; File C:\IAGOS\server\v18\Source\Source\_Network\Objects\Obj.h
;	COMDAT ?GetItem@?$CItemContainer@VCItemElem@@@@QAEPAVCItemElem@@PAUItemProp@@HHH@Z
_TEXT	SEGMENT
_pItemProp$ = 8						; size = 4
_nAbilityOption$ = 12					; size = 4
_nItemResist$ = 16					; size = 4
_nResistAbilityOption$ = 20				; size = 4
?GetItem@?$CItemContainer@VCItemElem@@@@QAEPAVCItemElem@@PAUItemProp@@HHH@Z PROC ; CItemContainer<CItemElem>::GetItem, COMDAT
; _this$ = ecx

; 687  : {

  00000	55		 push	 ebp
  00001	8b ec		 mov	 ebp, esp
  00003	53		 push	 ebx
  00004	8b d9		 mov	 ebx, ecx

; 688  : 	int nId;
; 689  : 	for( DWORD i = 0 ; i < m_dwItemMax ; i++ )

  00006	33 d2		 xor	 edx, edx
  00008	56		 push	 esi
  00009	57		 push	 edi
  0000a	8b 7b 10	 mov	 edi, DWORD PTR [ebx+16]
  0000d	85 ff		 test	 edi, edi
  0000f	74 46		 je	 SHORT $LN13@GetItem

; 690  : 	{
; 691  : 		nId		= m_apIndex[i];

  00011	8b 73 04	 mov	 esi, DWORD PTR [ebx+4]
$LL4@GetItem:
  00014	8b 06		 mov	 eax, DWORD PTR [esi]

; 692  : 		if( 0 <= nId && m_apItem[nId].IsEmpty() == FALSE )

  00016	85 c0		 test	 eax, eax
  00018	78 35		 js	 SHORT $LN2@GetItem
  0001a	69 c8 98 00 00
	00		 imul	 ecx, eax, 152

; 131  : 	BOOL	IsEmpty()	{	return m_dwItemId ? FALSE : TRUE;	}

  00020	8b 43 0c	 mov	 eax, DWORD PTR [ebx+12]
  00023	03 c1		 add	 eax, ecx
  00025	8b 48 08	 mov	 ecx, DWORD PTR [eax+8]
  00028	85 c9		 test	 ecx, ecx

; 692  : 		if( 0 <= nId && m_apItem[nId].IsEmpty() == FALSE )

  0002a	74 23		 je	 SHORT $LN2@GetItem

; 693  : 		{
; 694  : 			T* pItemElem = &m_apItem[nId];
; 695  : 			if( pItemElem->m_dwItemId == pItemProp->dwID && pItemElem->GetOption() == nAbilityOption && pItemElem->m_bItemResist == nItemResist && pItemElem->m_nResistAbilityOption == nResistAbilityOption )

  0002c	8b 7d 08	 mov	 edi, DWORD PTR _pItemProp$[ebp]
  0002f	3b 0f		 cmp	 ecx, DWORD PTR [edi]
  00031	8b 7b 10	 mov	 edi, DWORD PTR [ebx+16]
  00034	75 19		 jne	 SHORT $LN2@GetItem
  00036	8b 4d 0c	 mov	 ecx, DWORD PTR _nAbilityOption$[ebp]
  00039	39 48 5c	 cmp	 DWORD PTR [eax+92], ecx
  0003c	75 11		 jne	 SHORT $LN2@GetItem
  0003e	0f b6 48 70	 movzx	 ecx, BYTE PTR [eax+112]
  00042	3b 4d 10	 cmp	 ecx, DWORD PTR _nItemResist$[ebp]
  00045	75 08		 jne	 SHORT $LN2@GetItem
  00047	8b 4d 14	 mov	 ecx, DWORD PTR _nResistAbilityOption$[ebp]
  0004a	39 48 74	 cmp	 DWORD PTR [eax+116], ecx
  0004d	74 0a		 je	 SHORT $LN1@GetItem
$LN2@GetItem:

; 688  : 	int nId;
; 689  : 	for( DWORD i = 0 ; i < m_dwItemMax ; i++ )

  0004f	42		 inc	 edx
  00050	83 c6 04	 add	 esi, 4
  00053	3b d7		 cmp	 edx, edi
  00055	72 bd		 jb	 SHORT $LL4@GetItem
$LN13@GetItem:

; 696  : 			{
; 697  : 				return pItemElem;
; 698  : 			}
; 699  : 		}
; 700  : 	}
; 701  : 	return NULL;

  00057	33 c0		 xor	 eax, eax
$LN1@GetItem:
  00059	5f		 pop	 edi

; 702  : }

  0005a	5e		 pop	 esi
  0005b	5b		 pop	 ebx
  0005c	5d		 pop	 ebp
  0005d	c2 10 00	 ret	 16			; 00000010H
?GetItem@?$CItemContainer@VCItemElem@@@@QAEPAVCItemElem@@PAUItemProp@@HHH@Z ENDP ; CItemContainer<CItemElem>::GetItem
_TEXT	ENDS
; Function compile flags: /Ogtp
; File C:\Program Files\Microsoft Visual Studio\2022\Professional\VC\Tools\MSVC\14.44.35207\include\vector
;	COMDAT ?_Xlength@?$vector@JV?$allocator@J@std@@@std@@CAXXZ
_TEXT	SEGMENT
?_Xlength@?$vector@JV?$allocator@J@std@@@std@@CAXXZ PROC ; std::vector<long,std::allocator<long> >::_Xlength, COMDAT

; 2184 :         _Xlength_error("vector too long");

  00000	68 00 00 00 00	 push	 OFFSET ??_C@_0BA@FOIKENOD@vector?5too?5long@
  00005	e8 00 00 00 00	 call	 ?_Xlength_error@std@@YAXPBD@Z ; std::_Xlength_error
$LN3@Xlength:
  0000a	cc		 int	 3
?_Xlength@?$vector@JV?$allocator@J@std@@@std@@CAXXZ ENDP ; std::vector<long,std::allocator<long> >::_Xlength
_TEXT	ENDS
; Function compile flags: /Ogtp
; File C:\Program Files\Microsoft Visual Studio\2022\Professional\VC\Tools\MSVC\14.44.35207\include\xtree
;	COMDAT ?_Insert_node@?$_Tree_val@U?$_Tree_simple_types@U?$pair@$$CBKPAVIBuff@@@std@@@std@@@std@@QAEPAU?$_Tree_node@U?$pair@$$CBKPAVIBuff@@@std@@PAX@2@U?$_Tree_id@PAU?$_Tree_node@U?$pair@$$CBKPAVIBuff@@@std@@PAX@std@@@2@QAU32@@Z
_TEXT	SEGMENT
__Head$1$ = -4						; size = 4
__Loc$ = 8						; size = 8
__Newnode$ = 16						; size = 4
?_Insert_node@?$_Tree_val@U?$_Tree_simple_types@U?$pair@$$CBKPAVIBuff@@@std@@@std@@@std@@QAEPAU?$_Tree_node@U?$pair@$$CBKPAVIBuff@@@std@@PAX@2@U?$_Tree_id@PAU?$_Tree_node@U?$pair@$$CBKPAVIBuff@@@std@@PAX@std@@@2@QAU32@@Z PROC ; std::_Tree_val<std::_Tree_simple_types<std::pair<unsigned long const ,IBuff *> > >::_Insert_node, COMDAT
; _this$ = ecx

; 669  :     _Nodeptr _Insert_node(const _Tree_id<_Nodeptr> _Loc, const _Nodeptr _Newnode) noexcept {

  00000	55		 push	 ebp
  00001	8b ec		 mov	 ebp, esp
  00003	51		 push	 ecx

; 670  :         ++_Mysize;
; 671  :         const auto _Head  = _Myhead;
; 672  :         _Newnode->_Parent = _Loc._Parent;

  00004	8b 55 08	 mov	 edx, DWORD PTR __Loc$[ebp]
  00007	53		 push	 ebx
  00008	8b d9		 mov	 ebx, ecx
  0000a	57		 push	 edi
  0000b	8b 7d 10	 mov	 edi, DWORD PTR __Newnode$[ebp]
  0000e	8b 03		 mov	 eax, DWORD PTR [ebx]
  00010	ff 43 04	 inc	 DWORD PTR [ebx+4]
  00013	89 45 fc	 mov	 DWORD PTR __Head$1$[ebp], eax
  00016	89 57 04	 mov	 DWORD PTR [edi+4], edx

; 673  :         if (_Loc._Parent == _Head) { // first node in tree, just set head values

  00019	3b d0		 cmp	 edx, eax
  0001b	75 16		 jne	 SHORT $LN5@Insert_nod

; 674  :             _Head->_Left     = _Newnode;

  0001d	89 38		 mov	 DWORD PTR [eax], edi

; 675  :             _Head->_Parent   = _Newnode;

  0001f	89 78 04	 mov	 DWORD PTR [eax+4], edi

; 676  :             _Head->_Right    = _Newnode;

  00022	89 78 08	 mov	 DWORD PTR [eax+8], edi

; 735  :         return _Newnode;
; 736  :     }

  00025	8b c7		 mov	 eax, edi
  00027	c6 47 0c 01	 mov	 BYTE PTR [edi+12], 1
  0002b	5f		 pop	 edi
  0002c	5b		 pop	 ebx
  0002d	8b e5		 mov	 esp, ebp
  0002f	5d		 pop	 ebp
  00030	c2 0c 00	 ret	 12			; 0000000cH
$LN5@Insert_nod:

; 677  :             _Newnode->_Color = _Black; // the root is black
; 678  :             return _Newnode;
; 679  :         }
; 680  : 
; 681  :         _STL_INTERNAL_CHECK(_Loc._Child != _Tree_child::_Unused);
; 682  :         if (_Loc._Child == _Tree_child::_Right) { // add to right of _Loc._Parent

  00033	83 7d 0c 00	 cmp	 DWORD PTR __Loc$[ebp+4], 0
  00037	75 0d		 jne	 SHORT $LN6@Insert_nod

; 683  :             _STL_INTERNAL_CHECK(_Loc._Parent->_Right->_Isnil);
; 684  :             _Loc._Parent->_Right = _Newnode;

  00039	89 7a 08	 mov	 DWORD PTR [edx+8], edi

; 685  :             if (_Loc._Parent == _Head->_Right) { // remember rightmost node

  0003c	3b 50 08	 cmp	 edx, DWORD PTR [eax+8]
  0003f	75 0d		 jne	 SHORT $LN9@Insert_nod

; 686  :                 _Head->_Right = _Newnode;

  00041	89 78 08	 mov	 DWORD PTR [eax+8], edi

; 687  :             }
; 688  :         } else { // add to left of _Loc._Parent

  00044	eb 08		 jmp	 SHORT $LN9@Insert_nod
$LN6@Insert_nod:

; 689  :             _STL_INTERNAL_CHECK(_Loc._Parent->_Left->_Isnil);
; 690  :             _Loc._Parent->_Left = _Newnode;

  00046	89 3a		 mov	 DWORD PTR [edx], edi

; 691  :             if (_Loc._Parent == _Head->_Left) { // remember leftmost node

  00048	3b 10		 cmp	 edx, DWORD PTR [eax]
  0004a	75 02		 jne	 SHORT $LN9@Insert_nod

; 692  :                 _Head->_Left = _Newnode;

  0004c	89 38		 mov	 DWORD PTR [eax], edi
$LN9@Insert_nod:

; 693  :             }
; 694  :         }
; 695  : 
; 696  :         for (_Nodeptr _Pnode = _Newnode; _Pnode->_Parent->_Color == _Red;) {

  0004e	8b 4f 04	 mov	 ecx, DWORD PTR [edi+4]
  00051	8b c7		 mov	 eax, edi
  00053	80 79 0c 00	 cmp	 BYTE PTR [ecx+12], 0
  00057	0f 85 7d 01 00
	00		 jne	 $LN3@Insert_nod
  0005d	56		 push	 esi
  0005e	66 90		 npad	 2
$LL4@Insert_nod:

; 697  :             if (_Pnode->_Parent == _Pnode->_Parent->_Parent->_Left) { // fixup red-red in left subtree

  00060	8b 50 04	 mov	 edx, DWORD PTR [eax+4]
  00063	8b 72 04	 mov	 esi, DWORD PTR [edx+4]
  00066	8b 0e		 mov	 ecx, DWORD PTR [esi]
  00068	3b d1		 cmp	 edx, ecx
  0006a	0f 85 aa 00 00
	00		 jne	 $LN10@Insert_nod

; 698  :                 const auto _Parent_sibling = _Pnode->_Parent->_Parent->_Right;

  00070	8b 4e 08	 mov	 ecx, DWORD PTR [esi+8]

; 699  :                 if (_Parent_sibling->_Color == _Red) { // parent's sibling has two red children, blacken both

  00073	80 79 0c 00	 cmp	 BYTE PTR [ecx+12], 0
  00077	0f 84 a3 00 00
	00		 je	 $LN82@Insert_nod

; 700  :                     _Pnode->_Parent->_Color          = _Black;
; 701  :                     _Parent_sibling->_Color          = _Black;
; 702  :                     _Pnode->_Parent->_Parent->_Color = _Red;
; 703  :                     _Pnode                           = _Pnode->_Parent->_Parent;
; 704  :                 } else { // parent's sibling has red and black children
; 705  :                     if (_Pnode == _Pnode->_Parent->_Right) { // rotate right child to left

  0007d	8b 72 08	 mov	 esi, DWORD PTR [edx+8]
  00080	3b c6		 cmp	 eax, esi
  00082	75 37		 jne	 SHORT $LN57@Insert_nod

; 485  :         _Wherenode->_Right = _Pnode->_Left;

  00084	8b 0e		 mov	 ecx, DWORD PTR [esi]

; 706  :                         _Pnode = _Pnode->_Parent;

  00086	8b c2		 mov	 eax, edx

; 485  :         _Wherenode->_Right = _Pnode->_Left;

  00088	89 4a 08	 mov	 DWORD PTR [edx+8], ecx

; 486  : 
; 487  :         if (!_Pnode->_Left->_Isnil) {

  0008b	8b 0e		 mov	 ecx, DWORD PTR [esi]
  0008d	80 79 0d 00	 cmp	 BYTE PTR [ecx+13], 0
  00091	75 03		 jne	 SHORT $LN21@Insert_nod

; 488  :             _Pnode->_Left->_Parent = _Wherenode;

  00093	89 41 04	 mov	 DWORD PTR [ecx+4], eax
$LN21@Insert_nod:

; 489  :         }
; 490  : 
; 491  :         _Pnode->_Parent = _Wherenode->_Parent;

  00096	8b 4a 04	 mov	 ecx, DWORD PTR [edx+4]
  00099	89 4e 04	 mov	 DWORD PTR [esi+4], ecx

; 492  : 
; 493  :         if (_Wherenode == _Myhead->_Parent) {

  0009c	8b 0b		 mov	 ecx, DWORD PTR [ebx]
  0009e	3b 41 04	 cmp	 eax, DWORD PTR [ecx+4]
  000a1	75 05		 jne	 SHORT $LN22@Insert_nod

; 494  :             _Myhead->_Parent = _Pnode;

  000a3	89 71 04	 mov	 DWORD PTR [ecx+4], esi
  000a6	eb 0e		 jmp	 SHORT $LN25@Insert_nod
$LN22@Insert_nod:

; 495  :         } else if (_Wherenode == _Wherenode->_Parent->_Left) {

  000a8	8b 4a 04	 mov	 ecx, DWORD PTR [edx+4]
  000ab	3b 01		 cmp	 eax, DWORD PTR [ecx]
  000ad	75 04		 jne	 SHORT $LN24@Insert_nod

; 496  :             _Wherenode->_Parent->_Left = _Pnode;

  000af	89 31		 mov	 DWORD PTR [ecx], esi

; 497  :         } else {

  000b1	eb 03		 jmp	 SHORT $LN25@Insert_nod
$LN24@Insert_nod:

; 498  :             _Wherenode->_Parent->_Right = _Pnode;

  000b3	89 71 08	 mov	 DWORD PTR [ecx+8], esi
$LN25@Insert_nod:

; 499  :         }
; 500  : 
; 501  :         _Pnode->_Left       = _Wherenode;

  000b6	89 06		 mov	 DWORD PTR [esi], eax

; 502  :         _Wherenode->_Parent = _Pnode;

  000b8	89 70 04	 mov	 DWORD PTR [eax+4], esi
$LN57@Insert_nod:

; 707  :                         _Lrotate(_Pnode);
; 708  :                     }
; 709  : 
; 710  :                     _Pnode->_Parent->_Color          = _Black; // propagate red up

  000bb	8b 48 04	 mov	 ecx, DWORD PTR [eax+4]
  000be	c6 41 0c 01	 mov	 BYTE PTR [ecx+12], 1

; 711  :                     _Pnode->_Parent->_Parent->_Color = _Red;

  000c2	8b 48 04	 mov	 ecx, DWORD PTR [eax+4]
  000c5	8b 49 04	 mov	 ecx, DWORD PTR [ecx+4]
  000c8	c6 41 0c 00	 mov	 BYTE PTR [ecx+12], 0

; 712  :                     _Rrotate(_Pnode->_Parent->_Parent);

  000cc	8b 48 04	 mov	 ecx, DWORD PTR [eax+4]
  000cf	8b 51 04	 mov	 edx, DWORD PTR [ecx+4]

; 506  :         _Nodeptr _Pnode   = _Wherenode->_Left;

  000d2	8b 32		 mov	 esi, DWORD PTR [edx]

; 507  :         _Wherenode->_Left = _Pnode->_Right;

  000d4	8b 4e 08	 mov	 ecx, DWORD PTR [esi+8]
  000d7	89 0a		 mov	 DWORD PTR [edx], ecx

; 508  : 
; 509  :         if (!_Pnode->_Right->_Isnil) {

  000d9	8b 4e 08	 mov	 ecx, DWORD PTR [esi+8]
  000dc	80 79 0d 00	 cmp	 BYTE PTR [ecx+13], 0
  000e0	75 03		 jne	 SHORT $LN29@Insert_nod

; 510  :             _Pnode->_Right->_Parent = _Wherenode;

  000e2	89 51 04	 mov	 DWORD PTR [ecx+4], edx
$LN29@Insert_nod:

; 511  :         }
; 512  : 
; 513  :         _Pnode->_Parent = _Wherenode->_Parent;

  000e5	8b 4a 04	 mov	 ecx, DWORD PTR [edx+4]
  000e8	89 4e 04	 mov	 DWORD PTR [esi+4], ecx

; 514  : 
; 515  :         if (_Wherenode == _Myhead->_Parent) {

  000eb	8b 0b		 mov	 ecx, DWORD PTR [ebx]
  000ed	3b 51 04	 cmp	 edx, DWORD PTR [ecx+4]
  000f0	75 0b		 jne	 SHORT $LN30@Insert_nod

; 516  :             _Myhead->_Parent = _Pnode;

  000f2	89 71 04	 mov	 DWORD PTR [ecx+4], esi

; 521  :         }
; 522  : 
; 523  :         _Pnode->_Right      = _Wherenode;

  000f5	89 56 08	 mov	 DWORD PTR [esi+8], edx

; 713  :                 }
; 714  :             } else { // fixup red-red in right subtree

  000f8	e9 cc 00 00 00	 jmp	 $LN81@Insert_nod
$LN30@Insert_nod:

; 517  :         } else if (_Wherenode == _Wherenode->_Parent->_Right) {

  000fd	8b 4a 04	 mov	 ecx, DWORD PTR [edx+4]
  00100	3b 51 08	 cmp	 edx, DWORD PTR [ecx+8]
  00103	75 0b		 jne	 SHORT $LN32@Insert_nod

; 518  :             _Wherenode->_Parent->_Right = _Pnode;

  00105	89 71 08	 mov	 DWORD PTR [ecx+8], esi

; 521  :         }
; 522  : 
; 523  :         _Pnode->_Right      = _Wherenode;

  00108	89 56 08	 mov	 DWORD PTR [esi+8], edx

; 713  :                 }
; 714  :             } else { // fixup red-red in right subtree

  0010b	e9 b9 00 00 00	 jmp	 $LN81@Insert_nod
$LN32@Insert_nod:

; 520  :             _Wherenode->_Parent->_Left = _Pnode;

  00110	89 31		 mov	 DWORD PTR [ecx], esi

; 521  :         }
; 522  : 
; 523  :         _Pnode->_Right      = _Wherenode;

  00112	89 56 08	 mov	 DWORD PTR [esi+8], edx

; 713  :                 }
; 714  :             } else { // fixup red-red in right subtree

  00115	e9 af 00 00 00	 jmp	 $LN81@Insert_nod
$LN10@Insert_nod:

; 715  :                 const auto _Parent_sibling = _Pnode->_Parent->_Parent->_Left;
; 716  :                 if (_Parent_sibling->_Color == _Red) { // parent's sibling has two red children, blacken both

  0011a	80 79 0c 00	 cmp	 BYTE PTR [ecx+12], 0
  0011e	75 1d		 jne	 SHORT $LN15@Insert_nod
$LN82@Insert_nod:

; 693  :             }
; 694  :         }
; 695  : 
; 696  :         for (_Nodeptr _Pnode = _Newnode; _Pnode->_Parent->_Color == _Red;) {

  00120	c6 42 0c 01	 mov	 BYTE PTR [edx+12], 1
  00124	c6 41 0c 01	 mov	 BYTE PTR [ecx+12], 1
  00128	8b 48 04	 mov	 ecx, DWORD PTR [eax+4]
  0012b	8b 49 04	 mov	 ecx, DWORD PTR [ecx+4]
  0012e	c6 41 0c 00	 mov	 BYTE PTR [ecx+12], 0
  00132	8b 48 04	 mov	 ecx, DWORD PTR [eax+4]
  00135	8b 41 04	 mov	 eax, DWORD PTR [ecx+4]
  00138	e9 8f 00 00 00	 jmp	 $LN2@Insert_nod
$LN15@Insert_nod:

; 717  :                     _Pnode->_Parent->_Color          = _Black;
; 718  :                     _Parent_sibling->_Color          = _Black;
; 719  :                     _Pnode->_Parent->_Parent->_Color = _Red;
; 720  :                     _Pnode                           = _Pnode->_Parent->_Parent;
; 721  :                 } else { // parent's sibling has red and black children
; 722  :                     if (_Pnode == _Pnode->_Parent->_Left) { // rotate left child to right

  0013d	8b 32		 mov	 esi, DWORD PTR [edx]
  0013f	3b c6		 cmp	 eax, esi
  00141	75 3a		 jne	 SHORT $LN42@Insert_nod

; 507  :         _Wherenode->_Left = _Pnode->_Right;

  00143	8b 4e 08	 mov	 ecx, DWORD PTR [esi+8]

; 723  :                         _Pnode = _Pnode->_Parent;

  00146	8b c2		 mov	 eax, edx

; 507  :         _Wherenode->_Left = _Pnode->_Right;

  00148	89 08		 mov	 DWORD PTR [eax], ecx

; 508  : 
; 509  :         if (!_Pnode->_Right->_Isnil) {

  0014a	8b 4e 08	 mov	 ecx, DWORD PTR [esi+8]
  0014d	80 79 0d 00	 cmp	 BYTE PTR [ecx+13], 0
  00151	75 03		 jne	 SHORT $LN37@Insert_nod

; 510  :             _Pnode->_Right->_Parent = _Wherenode;

  00153	89 41 04	 mov	 DWORD PTR [ecx+4], eax
$LN37@Insert_nod:

; 511  :         }
; 512  : 
; 513  :         _Pnode->_Parent = _Wherenode->_Parent;

  00156	8b 4a 04	 mov	 ecx, DWORD PTR [edx+4]
  00159	89 4e 04	 mov	 DWORD PTR [esi+4], ecx

; 514  : 
; 515  :         if (_Wherenode == _Myhead->_Parent) {

  0015c	8b 0b		 mov	 ecx, DWORD PTR [ebx]
  0015e	3b 41 04	 cmp	 eax, DWORD PTR [ecx+4]
  00161	75 05		 jne	 SHORT $LN38@Insert_nod

; 516  :             _Myhead->_Parent = _Pnode;

  00163	89 71 04	 mov	 DWORD PTR [ecx+4], esi
  00166	eb 0f		 jmp	 SHORT $LN41@Insert_nod
$LN38@Insert_nod:

; 517  :         } else if (_Wherenode == _Wherenode->_Parent->_Right) {

  00168	8b 4a 04	 mov	 ecx, DWORD PTR [edx+4]
  0016b	3b 41 08	 cmp	 eax, DWORD PTR [ecx+8]
  0016e	75 05		 jne	 SHORT $LN40@Insert_nod

; 518  :             _Wherenode->_Parent->_Right = _Pnode;

  00170	89 71 08	 mov	 DWORD PTR [ecx+8], esi

; 519  :         } else {

  00173	eb 02		 jmp	 SHORT $LN41@Insert_nod
$LN40@Insert_nod:

; 520  :             _Wherenode->_Parent->_Left = _Pnode;

  00175	89 31		 mov	 DWORD PTR [ecx], esi
$LN41@Insert_nod:

; 521  :         }
; 522  : 
; 523  :         _Pnode->_Right      = _Wherenode;

  00177	89 46 08	 mov	 DWORD PTR [esi+8], eax

; 524  :         _Wherenode->_Parent = _Pnode;

  0017a	89 70 04	 mov	 DWORD PTR [eax+4], esi
$LN42@Insert_nod:

; 724  :                         _Rrotate(_Pnode);
; 725  :                     }
; 726  : 
; 727  :                     _Pnode->_Parent->_Color          = _Black; // propagate red up

  0017d	8b 48 04	 mov	 ecx, DWORD PTR [eax+4]
  00180	c6 41 0c 01	 mov	 BYTE PTR [ecx+12], 1

; 728  :                     _Pnode->_Parent->_Parent->_Color = _Red;

  00184	8b 48 04	 mov	 ecx, DWORD PTR [eax+4]
  00187	8b 49 04	 mov	 ecx, DWORD PTR [ecx+4]
  0018a	c6 41 0c 00	 mov	 BYTE PTR [ecx+12], 0

; 729  :                     _Lrotate(_Pnode->_Parent->_Parent);

  0018e	8b 48 04	 mov	 ecx, DWORD PTR [eax+4]
  00191	8b 51 04	 mov	 edx, DWORD PTR [ecx+4]

; 484  :         _Nodeptr _Pnode    = _Wherenode->_Right;

  00194	8b 72 08	 mov	 esi, DWORD PTR [edx+8]

; 485  :         _Wherenode->_Right = _Pnode->_Left;

  00197	8b 0e		 mov	 ecx, DWORD PTR [esi]
  00199	89 4a 08	 mov	 DWORD PTR [edx+8], ecx

; 486  : 
; 487  :         if (!_Pnode->_Left->_Isnil) {

  0019c	8b 0e		 mov	 ecx, DWORD PTR [esi]
  0019e	80 79 0d 00	 cmp	 BYTE PTR [ecx+13], 0
  001a2	75 03		 jne	 SHORT $LN45@Insert_nod

; 488  :             _Pnode->_Left->_Parent = _Wherenode;

  001a4	89 51 04	 mov	 DWORD PTR [ecx+4], edx
$LN45@Insert_nod:

; 489  :         }
; 490  : 
; 491  :         _Pnode->_Parent = _Wherenode->_Parent;

  001a7	8b 4a 04	 mov	 ecx, DWORD PTR [edx+4]
  001aa	89 4e 04	 mov	 DWORD PTR [esi+4], ecx

; 492  : 
; 493  :         if (_Wherenode == _Myhead->_Parent) {

  001ad	8b 0b		 mov	 ecx, DWORD PTR [ebx]
  001af	3b 51 04	 cmp	 edx, DWORD PTR [ecx+4]
  001b2	75 05		 jne	 SHORT $LN46@Insert_nod

; 494  :             _Myhead->_Parent = _Pnode;

  001b4	89 71 04	 mov	 DWORD PTR [ecx+4], esi
  001b7	eb 0e		 jmp	 SHORT $LN49@Insert_nod
$LN46@Insert_nod:

; 495  :         } else if (_Wherenode == _Wherenode->_Parent->_Left) {

  001b9	8b 4a 04	 mov	 ecx, DWORD PTR [edx+4]
  001bc	3b 11		 cmp	 edx, DWORD PTR [ecx]
  001be	75 04		 jne	 SHORT $LN48@Insert_nod

; 496  :             _Wherenode->_Parent->_Left = _Pnode;

  001c0	89 31		 mov	 DWORD PTR [ecx], esi

; 497  :         } else {

  001c2	eb 03		 jmp	 SHORT $LN49@Insert_nod
$LN48@Insert_nod:

; 498  :             _Wherenode->_Parent->_Right = _Pnode;

  001c4	89 71 08	 mov	 DWORD PTR [ecx+8], esi
$LN49@Insert_nod:

; 499  :         }
; 500  : 
; 501  :         _Pnode->_Left       = _Wherenode;

  001c7	89 16		 mov	 DWORD PTR [esi], edx
$LN81@Insert_nod:

; 693  :             }
; 694  :         }
; 695  : 
; 696  :         for (_Nodeptr _Pnode = _Newnode; _Pnode->_Parent->_Color == _Red;) {

  001c9	89 72 04	 mov	 DWORD PTR [edx+4], esi
$LN2@Insert_nod:
  001cc	8b 48 04	 mov	 ecx, DWORD PTR [eax+4]
  001cf	80 79 0c 00	 cmp	 BYTE PTR [ecx+12], 0
  001d3	0f 84 87 fe ff
	ff		 je	 $LL4@Insert_nod
  001d9	5e		 pop	 esi
$LN3@Insert_nod:

; 730  :                 }
; 731  :             }
; 732  :         }
; 733  : 
; 734  :         _Head->_Parent->_Color = _Black; // root is always black

  001da	8b 45 fc	 mov	 eax, DWORD PTR __Head$1$[ebp]
  001dd	8b 40 04	 mov	 eax, DWORD PTR [eax+4]
  001e0	c6 40 0c 01	 mov	 BYTE PTR [eax+12], 1

; 735  :         return _Newnode;
; 736  :     }

  001e4	8b c7		 mov	 eax, edi
  001e6	5f		 pop	 edi
  001e7	5b		 pop	 ebx
  001e8	8b e5		 mov	 esp, ebp
  001ea	5d		 pop	 ebp
  001eb	c2 0c 00	 ret	 12			; 0000000cH
?_Insert_node@?$_Tree_val@U?$_Tree_simple_types@U?$pair@$$CBKPAVIBuff@@@std@@@std@@@std@@QAEPAU?$_Tree_node@U?$pair@$$CBKPAVIBuff@@@std@@PAX@2@U?$_Tree_id@PAU?$_Tree_node@U?$pair@$$CBKPAVIBuff@@@std@@PAX@std@@@2@QAU32@@Z ENDP ; std::_Tree_val<std::_Tree_simple_types<std::pair<unsigned long const ,IBuff *> > >::_Insert_node
_TEXT	ENDS
; Function compile flags: /Ogtp
; File C:\IAGOS\server\v18\Source\Source\DatabaseServer\Project.h
; File C:\Program Files\Microsoft Visual Studio\2022\Professional\VC\Tools\MSVC\14.44.35207\include\__msvc_string_view.hpp
; File C:\IAGOS\server\v18\Source\Source\DatabaseServer\Project.h
; File C:\Program Files\Microsoft Visual Studio\2022\Professional\VC\Tools\MSVC\14.44.35207\include\xstring
; File C:\Program Files\Microsoft Visual Studio\2022\Professional\VC\Tools\MSVC\14.44.35207\include\__msvc_string_view.hpp
; File C:\Program Files\Microsoft Visual Studio\2022\Professional\VC\Tools\MSVC\14.44.35207\include\xstring
; File C:\Program Files\Microsoft Visual Studio\2022\Professional\VC\Tools\MSVC\14.44.35207\include\__msvc_string_view.hpp
; File C:\Program Files\Microsoft Visual Studio\2022\Professional\VC\Tools\MSVC\14.44.35207\include\xstring
; File C:\Program Files\Microsoft Visual Studio\2022\Professional\VC\Tools\MSVC\14.44.35207\include\__msvc_string_view.hpp
; File C:\Program Files\Microsoft Visual Studio\2022\Professional\VC\Tools\MSVC\14.44.35207\include\xstring
; File C:\Program Files\Microsoft Visual Studio\2022\Professional\VC\Tools\MSVC\14.44.35207\include\__msvc_string_view.hpp
; File C:\Program Files\Microsoft Visual Studio\2022\Professional\VC\Tools\MSVC\14.44.35207\include\xstring
; File C:\Program Files\Microsoft Visual Studio\2022\Professional\VC\Tools\MSVC\14.44.35207\include\xmemory
; File C:\Program Files\Microsoft Visual Studio\2022\Professional\VC\Tools\MSVC\14.44.35207\include\xstring
; File C:\Program Files\Microsoft Visual Studio\2022\Professional\VC\Tools\MSVC\14.44.35207\include\xmemory
; File C:\Program Files\Microsoft Visual Studio\2022\Professional\VC\Tools\MSVC\14.44.35207\include\xstring
; File C:\Program Files\Microsoft Visual Studio\2022\Professional\VC\Tools\MSVC\14.44.35207\include\__msvc_string_view.hpp
; File C:\Program Files\Microsoft Visual Studio\2022\Professional\VC\Tools\MSVC\14.44.35207\include\xstring
; File C:\Program Files\Microsoft Visual Studio\2022\Professional\VC\Tools\MSVC\14.44.35207\include\__msvc_string_view.hpp
; File C:\Program Files\Microsoft Visual Studio\2022\Professional\VC\Tools\MSVC\14.44.35207\include\xstring
; File C:\Program Files\Microsoft Visual Studio\2022\Professional\VC\Tools\MSVC\14.44.35207\include\__msvc_string_view.hpp
; File C:\Program Files\Microsoft Visual Studio\2022\Professional\VC\Tools\MSVC\14.44.35207\include\xstring
; File C:\Program Files\Microsoft Visual Studio\2022\Professional\VC\Tools\MSVC\14.44.35207\include\xtree
; File C:\Program Files\Microsoft Visual Studio\2022\Professional\VC\Tools\MSVC\14.44.35207\include\type_traits
; File C:\Program Files\Microsoft Visual Studio\2022\Professional\VC\Tools\MSVC\14.44.35207\include\xtree
; File C:\Program Files\Microsoft Visual Studio\2022\Professional\VC\Tools\MSVC\14.44.35207\include\type_traits
; File C:\Program Files\Microsoft Visual Studio\2022\Professional\VC\Tools\MSVC\14.44.35207\include\xtree
; File C:\Program Files\Microsoft Visual Studio\2022\Professional\VC\Tools\MSVC\14.44.35207\include\type_traits
; File C:\Program Files\Microsoft Visual Studio\2022\Professional\VC\Tools\MSVC\14.44.35207\include\xtree
; File C:\Program Files\Microsoft Visual Studio\2022\Professional\VC\Tools\MSVC\14.44.35207\include\xstring
; File C:\Program Files\Microsoft Visual Studio\2022\Professional\VC\Tools\MSVC\14.44.35207\include\xmemory
; File C:\Program Files\Microsoft Visual Studio\2022\Professional\VC\Tools\MSVC\14.44.35207\include\xstring
; File C:\Program Files\Microsoft Visual Studio\2022\Professional\VC\Tools\MSVC\14.44.35207\include\xmemory
; File C:\Program Files\Microsoft Visual Studio\2022\Professional\VC\Tools\MSVC\14.44.35207\include\xtree
; File C:\IAGOS\server\v18\Source\Source\DatabaseServer\Project.h
; File C:\IAGOS\server\v18\Source\Source\_Common\Data.h
; File C:\IAGOS\server\v18\Source\Source\DatabaseServer\Project.h
; File C:\IAGOS\server\v18\Source\Source\_Common\Data.h
; File C:\IAGOS\server\v18\Source\Source\DatabaseServer\Project.h
; File C:\Program Files\Microsoft Visual Studio\2022\Professional\VC\Tools\MSVC\14.44.35207\include\xstring
; File C:\Program Files\Microsoft Visual Studio\2022\Professional\VC\Tools\MSVC\14.44.35207\include\xmemory
; File C:\IAGOS\server\v18\Source\Source\DatabaseServer\Project.h
;	COMDAT ?GetItemProp@CProject@@QAEPAUItemProp@@PBD@Z
_TEXT	SEGMENT
_lpszItem$GSCopy$1$ = -40				; size = 4
_this$1$ = -36						; size = 4
__Ptr$1$ = -32						; size = 4
$T2 = -28						; size = 24
__$ArrayPad$ = -4					; size = 4
_lpszItem$ = 8						; size = 4
?GetItemProp@CProject@@QAEPAUItemProp@@PBD@Z PROC	; CProject::GetItemProp, COMDAT
; _this$ = ecx

; 255  : {

  00000	55		 push	 ebp
  00001	8b ec		 mov	 ebp, esp
  00003	83 ec 28	 sub	 esp, 40			; 00000028H
  00006	a1 00 00 00 00	 mov	 eax, DWORD PTR ___security_cookie
  0000b	33 c5		 xor	 eax, ebp
  0000d	89 45 fc	 mov	 DWORD PTR __$ArrayPad$[ebp], eax
  00010	53		 push	 ebx
  00011	8b 5d 08	 mov	 ebx, DWORD PTR _lpszItem$[ebp]
  00014	0f 57 c0	 xorps	 xmm0, xmm0
  00017	56		 push	 esi
; File C:\Program Files\Microsoft Visual Studio\2022\Professional\VC\Tools\MSVC\14.44.35207\include\__msvc_string_view.hpp

; 459  :         return _CSTD strlen(reinterpret_cast<const char*>(_First));

  00018	8b f3		 mov	 esi, ebx
; File C:\IAGOS\server\v18\Source\Source\DatabaseServer\Project.h

; 255  : {

  0001a	89 4d dc	 mov	 DWORD PTR _this$1$[ebp], ecx
  0001d	89 5d d8	 mov	 DWORD PTR _lpszItem$GSCopy$1$[ebp], ebx
; File C:\Program Files\Microsoft Visual Studio\2022\Professional\VC\Tools\MSVC\14.44.35207\include\xstring

; 493  :         _CONSTEXPR20 _Bxty() noexcept : _Buf() {} // user-provided, for fancy pointers

  00020	0f 11 45 e4	 movups	 XMMWORD PTR $T2[ebp], xmm0
; File C:\Program Files\Microsoft Visual Studio\2022\Professional\VC\Tools\MSVC\14.44.35207\include\__msvc_string_view.hpp

; 459  :         return _CSTD strlen(reinterpret_cast<const char*>(_First));

  00024	8d 4e 01	 lea	 ecx, DWORD PTR [esi+1]
$LL153@GetItemPro:
  00027	8a 06		 mov	 al, BYTE PTR [esi]
  00029	46		 inc	 esi
  0002a	84 c0		 test	 al, al
  0002c	75 f9		 jne	 SHORT $LL153@GetItemPro
  0002e	2b f1		 sub	 esi, ecx
; File C:\Program Files\Microsoft Visual Studio\2022\Professional\VC\Tools\MSVC\14.44.35207\include\xstring

; 881  :         if (_Count > max_size()) {

  00030	81 fe ff ff ff
	7f		 cmp	 esi, 2147483647		; 7fffffffH
  00036	0f 87 69 01 00
	00		 ja	 $LN172@GetItemPro
  0003c	57		 push	 edi

; 883  :         }
; 884  : 
; 885  :         auto& _Al       = _Getal();
; 886  :         auto&& _Alproxy = _GET_PROXY_ALLOCATOR(_Alty, _Al);
; 887  :         _Container_proxy_ptr<_Alty> _Proxy(_Alproxy, _My_data);
; 888  : 
; 889  :         if (_Count <= _Small_string_capacity) {

  0003d	83 fe 0f	 cmp	 esi, 15			; 0000000fH
  00040	77 25		 ja	 SHORT $LN25@GetItemPro
; File C:\Program Files\Microsoft Visual Studio\2022\Professional\VC\Tools\MSVC\14.44.35207\include\__msvc_string_view.hpp

; 121  :         _CSTD memcpy(_First1, _First2, _Count * sizeof(_Elem));

  00042	56		 push	 esi
  00043	8d 45 e4	 lea	 eax, DWORD PTR $T2[ebp]
; File C:\Program Files\Microsoft Visual Studio\2022\Professional\VC\Tools\MSVC\14.44.35207\include\xstring

; 890  :             _My_data._Mysize = _Count;

  00046	89 75 f4	 mov	 DWORD PTR $T2[ebp+16], esi
; File C:\Program Files\Microsoft Visual Studio\2022\Professional\VC\Tools\MSVC\14.44.35207\include\__msvc_string_view.hpp

; 121  :         _CSTD memcpy(_First1, _First2, _Count * sizeof(_Elem));

  00049	53		 push	 ebx
  0004a	50		 push	 eax
; File C:\Program Files\Microsoft Visual Studio\2022\Professional\VC\Tools\MSVC\14.44.35207\include\xstring

; 891  :             _My_data._Myres  = _Small_string_capacity;

  0004b	c7 45 f8 0f 00
	00 00		 mov	 DWORD PTR $T2[ebp+20], 15 ; 0000000fH
; File C:\Program Files\Microsoft Visual Studio\2022\Professional\VC\Tools\MSVC\14.44.35207\include\__msvc_string_view.hpp

; 121  :         _CSTD memcpy(_First1, _First2, _Count * sizeof(_Elem));

  00052	e8 00 00 00 00	 call	 _memcpy
; File C:\Program Files\Microsoft Visual Studio\2022\Professional\VC\Tools\MSVC\14.44.35207\include\xstring

; 898  :                 _Traits::assign(_My_data._Bx._Buf[_Count], _Elem());

  00057	c6 44 35 e4 00	 mov	 BYTE PTR $T2[ebp+esi], 0

; 899  :             } else { // _Strat == _Construct_strategy::_From_string
; 900  : #ifdef _INSERT_STRING_ANNOTATION
; 901  :                 _Traits::copy(_My_data._Bx._Buf, _Arg, _Count + 1);
; 902  : #else // ^^^ _INSERT_STRING_ANNOTATION / !_INSERT_STRING_ANNOTATION vvv
; 903  :                 _Traits::copy(_My_data._Bx._Buf, _Arg, _BUF_SIZE);
; 904  : #endif // ^^^ !_INSERT_STRING_ANNOTATION ^^^
; 905  :             }
; 906  : 
; 907  :             _Proxy._Release();
; 908  :             return;

  0005c	8b 45 e4	 mov	 eax, DWORD PTR $T2[ebp]
  0005f	8b 7d f8	 mov	 edi, DWORD PTR $T2[ebp+20]
  00062	89 45 e0	 mov	 DWORD PTR __Ptr$1$[ebp], eax
  00065	eb 75		 jmp	 SHORT $LN169@GetItemPro
$LN25@GetItemPro:

; 2978 :         const size_type _Masked = _Requested | _Alloc_mask;

  00067	8b fe		 mov	 edi, esi
  00069	83 cf 0f	 or	 edi, 15			; 0000000fH
  0006c	81 ff ff ff ff
	7f		 cmp	 edi, 2147483647		; 7fffffffH

; 2979 :         if (_Masked > _Max) { // the mask overflows, settle for max_size()

  00072	76 17		 jbe	 SHORT $LN31@GetItemPro

; 2980 :             return _Max;

  00074	b8 00 00 00 80	 mov	 eax, -2147483648	; 80000000H
  00079	bf ff ff ff 7f	 mov	 edi, 2147483647		; 7fffffffH
; File C:\Program Files\Microsoft Visual Studio\2022\Professional\VC\Tools\MSVC\14.44.35207\include\xmemory

; 253  :             return _Allocate_manually_vector_aligned<_Traits>(_Bytes);

  0007e	50		 push	 eax
  0007f	e8 00 00 00 00	 call	 ??$_Allocate_manually_vector_aligned@U_Default_allocate_traits@std@@@std@@YAPAXI@Z ; std::_Allocate_manually_vector_aligned<std::_Default_allocate_traits>
  00084	8b d8		 mov	 ebx, eax
  00086	89 5d e0	 mov	 DWORD PTR __Ptr$1$[ebp], ebx
  00089	eb 37		 jmp	 SHORT $LN170@GetItemPro
$LN31@GetItemPro:
; File C:\Program Files\Microsoft Visual Studio\2022\Professional\VC\Tools\MSVC\14.44.35207\include\xstring

; 2987 :         return (_STD max)(_Masked, _Old + _Old / 2);

  0008b	b8 16 00 00 00	 mov	 eax, 22			; 00000016H
  00090	3b f8		 cmp	 edi, eax
  00092	0f 42 f8	 cmovb	 edi, eax

; 825  :         ++_Capacity; // Take null terminator into consideration

  00095	8d 47 01	 lea	 eax, DWORD PTR [edi+1]
; File C:\Program Files\Microsoft Visual Studio\2022\Professional\VC\Tools\MSVC\14.44.35207\include\xmemory

; 227  :     if (_Bytes == 0) {

  00098	85 c0		 test	 eax, eax
  0009a	75 07		 jne	 SHORT $LN45@GetItemPro

; 228  :         return nullptr;

  0009c	33 db		 xor	 ebx, ebx
  0009e	89 5d e0	 mov	 DWORD PTR __Ptr$1$[ebp], ebx
  000a1	eb 22		 jmp	 SHORT $LN44@GetItemPro
$LN45@GetItemPro:

; 229  :     }
; 230  : 
; 231  : #if _HAS_CXX20 // TRANSITION, GH-1532
; 232  :     if (_STD is_constant_evaluated()) {
; 233  :         return _Traits::_Allocate(_Bytes);
; 234  :     }
; 235  : #endif // _HAS_CXX20
; 236  : 
; 237  : #ifdef __cpp_aligned_new
; 238  :     if constexpr (_Align > __STDCPP_DEFAULT_NEW_ALIGNMENT__) {
; 239  :         size_t _Passed_align = _Align;
; 240  : #if defined(_M_IX86) || defined(_M_X64)
; 241  :         if (_Bytes >= _Big_allocation_threshold) {
; 242  :             // boost the alignment of big allocations to help autovectorization
; 243  :             _Passed_align = (_STD max)(_Align, _Big_allocation_alignment);
; 244  :         }
; 245  : #endif // defined(_M_IX86) || defined(_M_X64)
; 246  :         return _Traits::_Allocate_aligned(_Bytes, _Passed_align);
; 247  :     } else
; 248  : #endif // defined(__cpp_aligned_new)
; 249  :     {
; 250  : #if defined(_M_IX86) || defined(_M_X64)
; 251  :         if (_Bytes >= _Big_allocation_threshold) {

  000a3	3d 00 10 00 00	 cmp	 eax, 4096		; 00001000H
  000a8	72 0d		 jb	 SHORT $LN46@GetItemPro

; 253  :             return _Allocate_manually_vector_aligned<_Traits>(_Bytes);

  000aa	50		 push	 eax
  000ab	e8 00 00 00 00	 call	 ??$_Allocate_manually_vector_aligned@U_Default_allocate_traits@std@@@std@@YAPAXI@Z ; std::_Allocate_manually_vector_aligned<std::_Default_allocate_traits>
  000b0	8b d8		 mov	 ebx, eax
  000b2	89 5d e0	 mov	 DWORD PTR __Ptr$1$[ebp], ebx
  000b5	eb 0b		 jmp	 SHORT $LN170@GetItemPro
$LN46@GetItemPro:

; 136  :         return ::operator new(_Bytes);

  000b7	50		 push	 eax
  000b8	e8 00 00 00 00	 call	 ??2@YAPAXI@Z		; operator new

; 256  :         return _Traits::_Allocate(_Bytes);

  000bd	8b d8		 mov	 ebx, eax
  000bf	89 45 e0	 mov	 DWORD PTR __Ptr$1$[ebp], eax
$LN170@GetItemPro:
; File C:\Program Files\Microsoft Visual Studio\2022\Professional\VC\Tools\MSVC\14.44.35207\include\xstring

; 913  :         _Construct_in_place(_My_data._Bx._Ptr, _New_ptr);

  000c2	83 c4 04	 add	 esp, 4
$LN44@GetItemPro:
; File C:\Program Files\Microsoft Visual Studio\2022\Professional\VC\Tools\MSVC\14.44.35207\include\__msvc_string_view.hpp

; 121  :         _CSTD memcpy(_First1, _First2, _Count * sizeof(_Elem));

  000c5	56		 push	 esi
  000c6	ff 75 d8	 push	 DWORD PTR _lpszItem$GSCopy$1$[ebp]
; File C:\Program Files\Microsoft Visual Studio\2022\Professional\VC\Tools\MSVC\14.44.35207\include\xstring

; 913  :         _Construct_in_place(_My_data._Bx._Ptr, _New_ptr);

  000c9	89 5d e4	 mov	 DWORD PTR $T2[ebp], ebx
; File C:\Program Files\Microsoft Visual Studio\2022\Professional\VC\Tools\MSVC\14.44.35207\include\__msvc_string_view.hpp

; 121  :         _CSTD memcpy(_First1, _First2, _Count * sizeof(_Elem));

  000cc	53		 push	 ebx
; File C:\Program Files\Microsoft Visual Studio\2022\Professional\VC\Tools\MSVC\14.44.35207\include\xstring

; 915  :         _My_data._Mysize = _Count;

  000cd	89 75 f4	 mov	 DWORD PTR $T2[ebp+16], esi

; 916  :         _My_data._Myres  = _New_capacity;

  000d0	89 7d f8	 mov	 DWORD PTR $T2[ebp+20], edi
; File C:\Program Files\Microsoft Visual Studio\2022\Professional\VC\Tools\MSVC\14.44.35207\include\__msvc_string_view.hpp

; 121  :         _CSTD memcpy(_First1, _First2, _Count * sizeof(_Elem));

  000d3	e8 00 00 00 00	 call	 _memcpy
; File C:\Program Files\Microsoft Visual Studio\2022\Professional\VC\Tools\MSVC\14.44.35207\include\xstring

; 922  :             _Traits::assign(_Unfancy(_New_ptr)[_Count], _Elem());

  000d8	c6 04 33 00	 mov	 BYTE PTR [ebx+esi], 0
$LN169@GetItemPro:
; File C:\Program Files\Microsoft Visual Studio\2022\Professional\VC\Tools\MSVC\14.44.35207\include\xtree

; 1630 :         _Tree_find_result<_Nodeptr> _Result{{_Scary->_Myhead->_Parent, _Tree_child::_Right}, _Scary->_Myhead};

  000dc	8b 45 dc	 mov	 eax, DWORD PTR _this$1$[ebp]
  000df	83 c4 0c	 add	 esp, 12			; 0000000cH
  000e2	8b 40 08	 mov	 eax, DWORD PTR [eax+8]
  000e5	8b d8		 mov	 ebx, eax
  000e7	8b 70 04	 mov	 esi, DWORD PTR [eax+4]

; 1631 :         _Nodeptr _Trynode = _Result._Location._Parent;
; 1632 :         while (!_Trynode->_Isnil) {

  000ea	80 7e 0d 00	 cmp	 BYTE PTR [esi+13], 0
  000ee	75 23		 jne	 SHORT $LN62@GetItemPro
$LL61@GetItemPro:
; File C:\Program Files\Microsoft Visual Studio\2022\Professional\VC\Tools\MSVC\14.44.35207\include\type_traits

; 2380 :         return _Left < _Right;

  000f0	8d 45 e4	 lea	 eax, DWORD PTR $T2[ebp]
  000f3	50		 push	 eax
; File C:\Program Files\Microsoft Visual Studio\2022\Professional\VC\Tools\MSVC\14.44.35207\include\xtree

; 1634 :             if (_DEBUG_LT_PRED(_Getcomp(), _Traits::_Kfn(_Trynode->_Myval), _Keyval)) {

  000f4	8d 46 10	 lea	 eax, DWORD PTR [esi+16]
; File C:\Program Files\Microsoft Visual Studio\2022\Professional\VC\Tools\MSVC\14.44.35207\include\type_traits

; 2380 :         return _Left < _Right;

  000f7	50		 push	 eax
  000f8	e8 00 00 00 00	 call	 ??$?MDU?$char_traits@D@std@@V?$allocator@D@1@@std@@YA_NABV?$basic_string@DU?$char_traits@D@std@@V?$allocator@D@2@@0@0@Z ; std::operator<<char,std::char_traits<char>,std::allocator<char> >
  000fd	83 c4 08	 add	 esp, 8
; File C:\Program Files\Microsoft Visual Studio\2022\Professional\VC\Tools\MSVC\14.44.35207\include\xtree

; 1634 :             if (_DEBUG_LT_PRED(_Getcomp(), _Traits::_Kfn(_Trynode->_Myval), _Keyval)) {

  00100	84 c0		 test	 al, al
  00102	74 05		 je	 SHORT $LN63@GetItemPro

; 1635 :                 _Result._Location._Child = _Tree_child::_Right;
; 1636 :                 _Trynode                 = _Trynode->_Right;

  00104	8b 76 08	 mov	 esi, DWORD PTR [esi+8]

; 1637 :             } else {

  00107	eb 04		 jmp	 SHORT $LN64@GetItemPro
$LN63@GetItemPro:

; 1638 :                 _Result._Location._Child = _Tree_child::_Left;
; 1639 :                 _Result._Bound           = _Trynode;

  00109	8b de		 mov	 ebx, esi

; 1640 :                 _Trynode                 = _Trynode->_Left;

  0010b	8b 36		 mov	 esi, DWORD PTR [esi]
$LN64@GetItemPro:

; 1631 :         _Nodeptr _Trynode = _Result._Location._Parent;
; 1632 :         while (!_Trynode->_Isnil) {

  0010d	80 7e 0d 00	 cmp	 BYTE PTR [esi+13], 0
  00111	74 dd		 je	 SHORT $LL61@GetItemPro
$LN62@GetItemPro:

; 1624 :         return !_Bound->_Isnil && !_DEBUG_LT_PRED(_Getcomp(), _Keyval, _Traits::_Kfn(_Bound->_Myval));

  00113	80 7b 0d 00	 cmp	 BYTE PTR [ebx+13], 0
  00117	75 19		 jne	 SHORT $LN58@GetItemPro
  00119	8d 43 10	 lea	 eax, DWORD PTR [ebx+16]
; File C:\Program Files\Microsoft Visual Studio\2022\Professional\VC\Tools\MSVC\14.44.35207\include\type_traits

; 2380 :         return _Left < _Right;

  0011c	50		 push	 eax
  0011d	8d 45 e4	 lea	 eax, DWORD PTR $T2[ebp]
  00120	50		 push	 eax
  00121	e8 00 00 00 00	 call	 ??$?MDU?$char_traits@D@std@@V?$allocator@D@1@@std@@YA_NABV?$basic_string@DU?$char_traits@D@std@@V?$allocator@D@2@@0@0@Z ; std::operator<<char,std::char_traits<char>,std::allocator<char> >
  00126	83 c4 08	 add	 esp, 8
; File C:\Program Files\Microsoft Visual Studio\2022\Professional\VC\Tools\MSVC\14.44.35207\include\xtree

; 1624 :         return !_Bound->_Isnil && !_DEBUG_LT_PRED(_Getcomp(), _Keyval, _Traits::_Kfn(_Bound->_Myval));

  00129	84 c0		 test	 al, al
  0012b	75 05		 jne	 SHORT $LN58@GetItemPro

; 1386 :             return _Loc._Bound;

  0012d	8b 75 dc	 mov	 esi, DWORD PTR _this$1$[ebp]
  00130	eb 06		 jmp	 SHORT $LN57@GetItemPro
$LN58@GetItemPro:

; 1387 :         }
; 1388 : 
; 1389 :         return _Get_scary()->_Myhead;

  00132	8b 75 dc	 mov	 esi, DWORD PTR _this$1$[ebp]
  00135	8b 5e 08	 mov	 ebx, DWORD PTR [esi+8]
$LN57@GetItemPro:
; File C:\Program Files\Microsoft Visual Studio\2022\Professional\VC\Tools\MSVC\14.44.35207\include\xstring

; 453  :         return _Myres > _Small_string_capacity;

  00138	83 ff 0f	 cmp	 edi, 15			; 0000000fH

; 3083 :         if (_My_data._Large_mode_engaged()) {

  0013b	76 2e		 jbe	 SHORT $LN105@GetItemPro
; File C:\Program Files\Microsoft Visual Studio\2022\Professional\VC\Tools\MSVC\14.44.35207\include\xmemory

; 985  :         _STD _Deallocate<_New_alignof<_Ty>>(_Ptr, sizeof(_Ty) * _Count);

  0013d	8b 45 e0	 mov	 eax, DWORD PTR __Ptr$1$[ebp]
; File C:\Program Files\Microsoft Visual Studio\2022\Professional\VC\Tools\MSVC\14.44.35207\include\xstring

; 852  :         _Al.deallocate(_Old_ptr, _Capacity + 1); // +1 for null terminator

  00140	47		 inc	 edi
; File C:\Program Files\Microsoft Visual Studio\2022\Professional\VC\Tools\MSVC\14.44.35207\include\xmemory

; 985  :         _STD _Deallocate<_New_alignof<_Ty>>(_Ptr, sizeof(_Ty) * _Count);

  00141	8b c8		 mov	 ecx, eax

; 284  :         if (_Bytes >= _Big_allocation_threshold) {

  00143	81 ff 00 10 00
	00		 cmp	 edi, 4096		; 00001000H
  00149	72 16		 jb	 SHORT $LN110@GetItemPro

; 205  :     const uintptr_t _Ptr_container   = _Ptr_user[-1];

  0014b	8b 41 fc	 mov	 eax, DWORD PTR [ecx-4]
  0014e	83 c7 23	 add	 edi, 35			; 00000023H
  00151	2b c8		 sub	 ecx, eax
  00153	89 45 e0	 mov	 DWORD PTR __Ptr$1$[ebp], eax

; 219  :     _STL_VERIFY(_Back_shift >= _Min_back_shift && _Back_shift <= _Non_user_size, "invalid argument");

  00156	8d 41 fc	 lea	 eax, DWORD PTR [ecx-4]
  00159	83 f8 1f	 cmp	 eax, 31			; 0000001fH
  0015c	77 4c		 ja	 SHORT $LN109@GetItemPro

; 220  :     _Ptr = reinterpret_cast<void*>(_Ptr_container);

  0015e	8b 45 e0	 mov	 eax, DWORD PTR __Ptr$1$[ebp]
$LN110@GetItemPro:

; 289  :         ::operator delete(_Ptr, _Bytes);

  00161	57		 push	 edi
  00162	50		 push	 eax
  00163	e8 00 00 00 00	 call	 ??3@YAXPAXI@Z		; operator delete
  00168	83 c4 08	 add	 esp, 8
$LN105@GetItemPro:
; File C:\Program Files\Microsoft Visual Studio\2022\Professional\VC\Tools\MSVC\14.44.35207\include\xtree

; 37   :     _Tree_unchecked_const_iterator(_Nodeptr _Pnode, const _Mytree* _Plist) noexcept : _Ptr(_Pnode) {

  0016b	5f		 pop	 edi
  0016c	3b 5e 08	 cmp	 ebx, DWORD PTR [esi+8]
; File C:\IAGOS\server\v18\Source\Source\DatabaseServer\Project.h

; 257  : 	if( i != m_mapII.end() )

  0016f	74 20		 je	 SHORT $LN2@GetItemPro

; 258  : 		return GetItemProp( i->second );

  00171	8b 4b 28	 mov	 ecx, DWORD PTR [ebx+40]
; File C:\IAGOS\server\v18\Source\Source\_Common\Data.h

; 270  : 	if( dwIndex >= (DWORD)m_nMaxIndex )

  00174	3b 4e 4c	 cmp	 ecx, DWORD PTR [esi+76]
  00177	73 18		 jae	 SHORT $LN2@GetItemPro

; 272  : 	return (T*) m_apOffset[ dwIndex ];

  00179	8b 46 3c	 mov	 eax, DWORD PTR [esi+60]
  0017c	5e		 pop	 esi
; File C:\IAGOS\server\v18\Source\Source\DatabaseServer\Project.h

; 260  : }

  0017d	5b		 pop	 ebx
; File C:\IAGOS\server\v18\Source\Source\_Common\Data.h

; 272  : 	return (T*) m_apOffset[ dwIndex ];

  0017e	8b 04 88	 mov	 eax, DWORD PTR [eax+ecx*4]
; File C:\IAGOS\server\v18\Source\Source\DatabaseServer\Project.h

; 260  : }

  00181	8b 4d fc	 mov	 ecx, DWORD PTR __$ArrayPad$[ebp]
  00184	33 cd		 xor	 ecx, ebp
  00186	e8 00 00 00 00	 call	 @__security_check_cookie@4
  0018b	8b e5		 mov	 esp, ebp
  0018d	5d		 pop	 ebp
  0018e	c2 04 00	 ret	 4
$LN2@GetItemPro:
  00191	8b 4d fc	 mov	 ecx, DWORD PTR __$ArrayPad$[ebp]
  00194	33 c0		 xor	 eax, eax
  00196	5e		 pop	 esi
  00197	33 cd		 xor	 ecx, ebp
  00199	5b		 pop	 ebx
  0019a	e8 00 00 00 00	 call	 @__security_check_cookie@4
  0019f	8b e5		 mov	 esp, ebp
  001a1	5d		 pop	 ebp
  001a2	c2 04 00	 ret	 4
$LN172@GetItemPro:
; File C:\Program Files\Microsoft Visual Studio\2022\Professional\VC\Tools\MSVC\14.44.35207\include\xstring

; 882  :             _Xlen_string(); // result too long

  001a5	e8 00 00 00 00	 call	 ?_Xlen_string@std@@YAXXZ ; std::_Xlen_string
$LN109@GetItemPro:
; File C:\Program Files\Microsoft Visual Studio\2022\Professional\VC\Tools\MSVC\14.44.35207\include\xmemory

; 219  :     _STL_VERIFY(_Back_shift >= _Min_back_shift && _Back_shift <= _Non_user_size, "invalid argument");

  001aa	6a 00		 push	 0
  001ac	6a 00		 push	 0
  001ae	6a 00		 push	 0
  001b0	6a 00		 push	 0
  001b2	6a 00		 push	 0
  001b4	e8 00 00 00 00	 call	 __invoke_watson
$LN168@GetItemPro:
  001b9	cc		 int	 3
?GetItemProp@CProject@@QAEPAUItemProp@@PBD@Z ENDP	; CProject::GetItemProp
_TEXT	ENDS
; Function compile flags: /Ogtp
; File C:\IAGOS\server\v18\Source\Source\_network\CmnHdr.h
;	COMDAT ?GetIntPaFromStr@@YAHPADPAH@Z
_TEXT	SEGMENT
_strTemp$ = -56						; size = 50
__$ArrayPad$ = -4					; size = 4
_pBuf$ = 8						; size = 4
_pLocation$ = 12					; size = 4
?GetIntPaFromStr@@YAHPADPAH@Z PROC			; GetIntPaFromStr, COMDAT

; 146  : {

  00000	55		 push	 ebp
  00001	8b ec		 mov	 ebp, esp
  00003	83 ec 38	 sub	 esp, 56			; 00000038H
  00006	a1 00 00 00 00	 mov	 eax, DWORD PTR ___security_cookie
  0000b	33 c5		 xor	 eax, ebp
  0000d	89 45 fc	 mov	 DWORD PTR __$ArrayPad$[ebp], eax
  00010	56		 push	 esi
  00011	8b 75 08	 mov	 esi, DWORD PTR _pBuf$[ebp]

; 147  : 	char strTemp[50];
; 148  : 	int count=0;

  00014	33 c9		 xor	 ecx, ecx
  00016	57		 push	 edi
  00017	8b 7d 0c	 mov	 edi, DWORD PTR _pLocation$[ebp]

; 149  : 	while(pBuf[*pLocation]!=',' && pBuf[*pLocation]!=0)

  0001a	8b 07		 mov	 eax, DWORD PTR [edi]
  0001c	80 3c 30 2c	 cmp	 BYTE PTR [eax+esi], 44	; 0000002cH
  00020	74 3e		 je	 SHORT $LN16@GetIntPaFr
$LL2@GetIntPaFr:
  00022	8a 14 06	 mov	 dl, BYTE PTR [esi+eax]
  00025	84 d2		 test	 dl, dl
  00027	74 13		 je	 SHORT $LN3@GetIntPaFr

; 150  : 	{
; 151  : 		if( pBuf[*pLocation]!='/' )

  00029	80 fa 2f	 cmp	 dl, 47			; 0000002fH
  0002c	74 15		 je	 SHORT $LN4@GetIntPaFr

; 152  : 		{
; 153  : 			strTemp[count]=pBuf[*pLocation];
; 154  : 			count++; (*pLocation)++;

  0002e	40		 inc	 eax
  0002f	88 54 0d c8	 mov	 BYTE PTR _strTemp$[ebp+ecx], dl
  00033	41		 inc	 ecx
  00034	89 07		 mov	 DWORD PTR [edi], eax
  00036	80 3c 30 2c	 cmp	 BYTE PTR [eax+esi], 44	; 0000002cH
  0003a	75 e6		 jne	 SHORT $LL2@GetIntPaFr
$LN3@GetIntPaFr:

; 166  : 			}
; 167  : 		}
; 168  : 	}
; 169  : 	strTemp[count]=0;(*pLocation)++;

  0003c	83 f9 32	 cmp	 ecx, 50			; 00000032H
  0003f	73 43		 jae	 SHORT $LN11@GetIntPaFr
  00041	eb 1d		 jmp	 SHORT $LN16@GetIntPaFr
$LN4@GetIntPaFr:

; 155  : 		}
; 156  : 		else
; 157  : 		{
; 158  : 			if( count == 0 )

  00043	85 c9		 test	 ecx, ecx
  00045	75 12		 jne	 SHORT $LN6@GetIntPaFr

; 159  : 			{
; 160  : 				return 0;

  00047	5f		 pop	 edi
  00048	33 c0		 xor	 eax, eax

; 170  : 	return atoi(strTemp);
; 171  : }

  0004a	5e		 pop	 esi
  0004b	8b 4d fc	 mov	 ecx, DWORD PTR __$ArrayPad$[ebp]
  0004e	33 cd		 xor	 ecx, ebp
  00050	e8 00 00 00 00	 call	 @__security_check_cookie@4
  00055	8b e5		 mov	 esp, ebp
  00057	5d		 pop	 ebp
  00058	c3		 ret	 0
$LN6@GetIntPaFr:

; 161  : 			}
; 162  : 			else
; 163  : 			{
; 164  : 				strTemp[count]=0;

  00059	83 f9 32	 cmp	 ecx, 50			; 00000032H
  0005c	73 26		 jae	 SHORT $LN11@GetIntPaFr

; 165  : 				return atoi(strTemp);

  0005e	eb 03		 jmp	 SHORT $LN24@GetIntPaFr
$LN16@GetIntPaFr:

; 166  : 			}
; 167  : 		}
; 168  : 	}
; 169  : 	strTemp[count]=0;(*pLocation)++;

  00060	40		 inc	 eax
  00061	89 07		 mov	 DWORD PTR [edi], eax
$LN24@GetIntPaFr:

; 170  : 	return atoi(strTemp);
; 171  : }

  00063	8d 45 c8	 lea	 eax, DWORD PTR _strTemp$[ebp]
  00066	c6 44 0d c8 00	 mov	 BYTE PTR _strTemp$[ebp+ecx], 0
  0006b	50		 push	 eax
  0006c	e8 00 00 00 00	 call	 _atoi
  00071	8b 4d fc	 mov	 ecx, DWORD PTR __$ArrayPad$[ebp]
  00074	83 c4 04	 add	 esp, 4
  00077	33 cd		 xor	 ecx, ebp
  00079	5f		 pop	 edi
  0007a	5e		 pop	 esi
  0007b	e8 00 00 00 00	 call	 @__security_check_cookie@4
  00080	8b e5		 mov	 esp, ebp
  00082	5d		 pop	 ebp
  00083	c3		 ret	 0
$LN11@GetIntPaFr:

; 166  : 			}
; 167  : 		}
; 168  : 	}
; 169  : 	strTemp[count]=0;(*pLocation)++;

  00084	e8 00 00 00 00	 call	 ___report_rangecheckfailure
$LN23@GetIntPaFr:
  00089	cc		 int	 3
?GetIntPaFromStr@@YAHPADPAH@Z ENDP			; GetIntPaFromStr
_TEXT	ENDS
; Function compile flags: /Ogtp
; File C:\IAGOS\server\v18\Source\Source\_network\CmnHdr.h
;	COMDAT ?GetInt64PaFromStr@@YA_JPADPAH@Z
_TEXT	SEGMENT
_strTemp$ = -56						; size = 50
__$ArrayPad$ = -4					; size = 4
_pBuf$ = 8						; size = 4
_pLocation$ = 12					; size = 4
?GetInt64PaFromStr@@YA_JPADPAH@Z PROC			; GetInt64PaFromStr, COMDAT

; 115  : {

  00000	55		 push	 ebp
  00001	8b ec		 mov	 ebp, esp
  00003	83 ec 38	 sub	 esp, 56			; 00000038H
  00006	a1 00 00 00 00	 mov	 eax, DWORD PTR ___security_cookie
  0000b	33 c5		 xor	 eax, ebp
  0000d	89 45 fc	 mov	 DWORD PTR __$ArrayPad$[ebp], eax
  00010	56		 push	 esi
  00011	8b 75 08	 mov	 esi, DWORD PTR _pBuf$[ebp]

; 116  : 	char strTemp[50];
; 117  : 	int count	=0;

  00014	33 d2		 xor	 edx, edx
  00016	57		 push	 edi
  00017	8b 7d 0c	 mov	 edi, DWORD PTR _pLocation$[ebp]

; 118  : 	while( pBuf[*pLocation] != ',' && pBuf[*pLocation] != 0 )

  0001a	8b 07		 mov	 eax, DWORD PTR [edi]
  0001c	80 3c 30 2c	 cmp	 BYTE PTR [eax+esi], 44	; 0000002cH
  00020	74 3e		 je	 SHORT $LN16@GetInt64Pa
$LL2@GetInt64Pa:
  00022	8a 0c 06	 mov	 cl, BYTE PTR [esi+eax]
  00025	84 c9		 test	 cl, cl
  00027	74 13		 je	 SHORT $LN3@GetInt64Pa

; 119  : 	{
; 120  : 		if( pBuf[*pLocation] != '/' )

  00029	80 f9 2f	 cmp	 cl, 47			; 0000002fH
  0002c	74 15		 je	 SHORT $LN4@GetInt64Pa

; 121  : 		{
; 122  : 			strTemp[count]	=pBuf[*pLocation];
; 123  : 			count++;	( *pLocation )++;

  0002e	40		 inc	 eax
  0002f	88 4c 15 c8	 mov	 BYTE PTR _strTemp$[ebp+edx], cl
  00033	42		 inc	 edx
  00034	89 07		 mov	 DWORD PTR [edi], eax
  00036	80 3c 30 2c	 cmp	 BYTE PTR [eax+esi], 44	; 0000002cH
  0003a	75 e6		 jne	 SHORT $LL2@GetInt64Pa
$LN3@GetInt64Pa:

; 135  : 			}
; 136  : 		}
; 137  : 	}
; 138  : 	strTemp[count]	=0;	( *pLocation )++;

  0003c	83 fa 32	 cmp	 edx, 50			; 00000032H
  0003f	73 43		 jae	 SHORT $LN11@GetInt64Pa
  00041	eb 1d		 jmp	 SHORT $LN16@GetInt64Pa
$LN4@GetInt64Pa:

; 124  : 		}
; 125  : 		else
; 126  : 		{
; 127  : 			if( count == 0 )

  00043	85 d2		 test	 edx, edx
  00045	75 12		 jne	 SHORT $LN6@GetInt64Pa

; 128  : 			{
; 129  : 				return 0;

  00047	5f		 pop	 edi
  00048	33 c0		 xor	 eax, eax

; 139  : 	return _atoi64( strTemp );
; 140  : }

  0004a	5e		 pop	 esi
  0004b	8b 4d fc	 mov	 ecx, DWORD PTR __$ArrayPad$[ebp]
  0004e	33 cd		 xor	 ecx, ebp
  00050	e8 00 00 00 00	 call	 @__security_check_cookie@4
  00055	8b e5		 mov	 esp, ebp
  00057	5d		 pop	 ebp
  00058	c3		 ret	 0
$LN6@GetInt64Pa:

; 130  : 			}
; 131  : 			else
; 132  : 			{
; 133  : 				strTemp[count]	=0;

  00059	83 fa 32	 cmp	 edx, 50			; 00000032H
  0005c	73 26		 jae	 SHORT $LN11@GetInt64Pa

; 134  : 				return _atoi64( strTemp );

  0005e	eb 03		 jmp	 SHORT $LN24@GetInt64Pa
$LN16@GetInt64Pa:

; 135  : 			}
; 136  : 		}
; 137  : 	}
; 138  : 	strTemp[count]	=0;	( *pLocation )++;

  00060	40		 inc	 eax
  00061	89 07		 mov	 DWORD PTR [edi], eax
$LN24@GetInt64Pa:

; 139  : 	return _atoi64( strTemp );
; 140  : }

  00063	8d 45 c8	 lea	 eax, DWORD PTR _strTemp$[ebp]
  00066	c6 44 15 c8 00	 mov	 BYTE PTR _strTemp$[ebp+edx], 0
  0006b	50		 push	 eax
  0006c	e8 00 00 00 00	 call	 __atoi64
  00071	8b 4d fc	 mov	 ecx, DWORD PTR __$ArrayPad$[ebp]
  00074	83 c4 04	 add	 esp, 4
  00077	33 cd		 xor	 ecx, ebp
  00079	5f		 pop	 edi
  0007a	5e		 pop	 esi
  0007b	e8 00 00 00 00	 call	 @__security_check_cookie@4
  00080	8b e5		 mov	 esp, ebp
  00082	5d		 pop	 ebp
  00083	c3		 ret	 0
$LN11@GetInt64Pa:

; 135  : 			}
; 136  : 		}
; 137  : 	}
; 138  : 	strTemp[count]	=0;	( *pLocation )++;

  00084	e8 00 00 00 00	 call	 ___report_rangecheckfailure
$LN23@GetInt64Pa:
  00089	cc		 int	 3
?GetInt64PaFromStr@@YA_JPADPAH@Z ENDP			; GetInt64PaFromStr
_TEXT	ENDS
; Function compile flags: /Ogtp
; File C:\IAGOS\server\v18\Source\Source\_network\CmnHdr.h
;	COMDAT ?GetIntFromStr@@YAHPADPAH@Z
_TEXT	SEGMENT
_strTemp$ = -56						; size = 50
__$ArrayPad$ = -4					; size = 4
_pBuf$ = 8						; size = 4
_pLocation$ = 12					; size = 4
?GetIntFromStr@@YAHPADPAH@Z PROC			; GetIntFromStr, COMDAT

; 92   : {

  00000	55		 push	 ebp
  00001	8b ec		 mov	 ebp, esp
  00003	83 ec 38	 sub	 esp, 56			; 00000038H
  00006	a1 00 00 00 00	 mov	 eax, DWORD PTR ___security_cookie
  0000b	33 c5		 xor	 eax, ebp
  0000d	89 45 fc	 mov	 DWORD PTR __$ArrayPad$[ebp], eax
  00010	53		 push	 ebx
  00011	8b 5d 0c	 mov	 ebx, DWORD PTR _pLocation$[ebp]
  00014	56		 push	 esi
  00015	57		 push	 edi
  00016	8b 7d 08	 mov	 edi, DWORD PTR _pBuf$[ebp]

; 93   : 	char strTemp[50];
; 94   : 	int count=0;

  00019	33 f6		 xor	 esi, esi

; 95   : 	while(pBuf[*pLocation]!=',' && pBuf[*pLocation]!='/' && pBuf[*pLocation]!=0) {

  0001b	8b 03		 mov	 eax, DWORD PTR [ebx]
  0001d	80 3c 38 2c	 cmp	 BYTE PTR [eax+edi], 44	; 0000002cH
  00021	74 27		 je	 SHORT $LN11@GetIntFrom
  00023	8b c8		 mov	 ecx, eax
$LL2@GetIntFrom:
  00025	8a 14 0f	 mov	 dl, BYTE PTR [edi+ecx]
  00028	8b c1		 mov	 eax, ecx
  0002a	80 fa 2f	 cmp	 dl, 47			; 0000002fH
  0002d	74 16		 je	 SHORT $LN3@GetIntFrom
  0002f	84 d2		 test	 dl, dl
  00031	74 12		 je	 SHORT $LN3@GetIntFrom

; 96   : 		strTemp[count]=pBuf[*pLocation];
; 97   : 		count++; (*pLocation)++;

  00033	8d 41 01	 lea	 eax, DWORD PTR [ecx+1]
  00036	88 54 35 c8	 mov	 BYTE PTR _strTemp$[ebp+esi], dl
  0003a	46		 inc	 esi
  0003b	89 03		 mov	 DWORD PTR [ebx], eax
  0003d	80 3c 38 2c	 cmp	 BYTE PTR [eax+edi], 44	; 0000002cH
  00041	8b c8		 mov	 ecx, eax
  00043	75 e0		 jne	 SHORT $LL2@GetIntFrom
$LN3@GetIntFrom:

; 98   : 	}
; 99   : 	strTemp[count]=0;(*pLocation)++;

  00045	83 fe 32	 cmp	 esi, 50			; 00000032H
  00048	73 25		 jae	 SHORT $LN18@GetIntFrom
$LN11@GetIntFrom:
  0004a	40		 inc	 eax
  0004b	c6 44 35 c8 00	 mov	 BYTE PTR _strTemp$[ebp+esi], 0
  00050	89 03		 mov	 DWORD PTR [ebx], eax

; 100  : 	return atoi(strTemp);

  00052	8d 45 c8	 lea	 eax, DWORD PTR _strTemp$[ebp]
  00055	50		 push	 eax
  00056	e8 00 00 00 00	 call	 _atoi

; 101  : }

  0005b	8b 4d fc	 mov	 ecx, DWORD PTR __$ArrayPad$[ebp]
  0005e	83 c4 04	 add	 esp, 4
  00061	33 cd		 xor	 ecx, ebp
  00063	5f		 pop	 edi
  00064	5e		 pop	 esi
  00065	5b		 pop	 ebx
  00066	e8 00 00 00 00	 call	 @__security_check_cookie@4
  0006b	8b e5		 mov	 esp, ebp
  0006d	5d		 pop	 ebp
  0006e	c3		 ret	 0
$LN18@GetIntFrom:

; 98   : 	}
; 99   : 	strTemp[count]=0;(*pLocation)++;

  0006f	e8 00 00 00 00	 call	 ___report_rangecheckfailure
$LN16@GetIntFrom:
  00074	cc		 int	 3
?GetIntFromStr@@YAHPADPAH@Z ENDP			; GetIntFromStr
_TEXT	ENDS
; Function compile flags: /Ogtp
; File C:\Program Files\Microsoft Visual Studio\2022\Professional\VC\Tools\MSVC\14.44.35207\include\xtree
;	COMDAT ?_Throw_tree_length_error@std@@YAXXZ
_TEXT	SEGMENT
?_Throw_tree_length_error@std@@YAXXZ PROC		; std::_Throw_tree_length_error, COMDAT

; 417  :     _Xlength_error("map/set too long");

  00000	68 00 00 00 00	 push	 OFFSET ??_C@_0BB@GCADKGJO@map?1set?5too?5long@
  00005	e8 00 00 00 00	 call	 ?_Xlength_error@std@@YAXPBD@Z ; std::_Xlength_error
$LN3@Throw_tree:
  0000a	cc		 int	 3
?_Throw_tree_length_error@std@@YAXXZ ENDP		; std::_Throw_tree_length_error
_TEXT	ENDS
; Function compile flags: /Ogtp
; File C:\Program Files\Microsoft Visual Studio\2022\Professional\VC\Tools\MSVC\14.44.35207\include\xstring
;	COMDAT ?_Xlen_string@std@@YAXXZ
_TEXT	SEGMENT
?_Xlen_string@std@@YAXXZ PROC				; std::_Xlen_string, COMDAT

; 531  :     _Xlength_error("string too long");

  00000	68 00 00 00 00	 push	 OFFSET ??_C@_0BA@JFNIOLAK@string?5too?5long@
  00005	e8 00 00 00 00	 call	 ?_Xlength_error@std@@YAXPBD@Z ; std::_Xlength_error
$LN3@Xlen_strin:
  0000a	cc		 int	 3
?_Xlen_string@std@@YAXXZ ENDP				; std::_Xlen_string
_TEXT	ENDS
; Function compile flags: /Ogtp
; File C:\Program Files\Microsoft Visual Studio\2022\Professional\VC\Tools\MSVC\14.44.35207\include\xmemory
;	COMDAT ?_Throw_bad_array_new_length@std@@YAXXZ
_TEXT	SEGMENT
$T1 = -12						; size = 12
?_Throw_bad_array_new_length@std@@YAXXZ PROC		; std::_Throw_bad_array_new_length, COMDAT

; 107  : [[noreturn]] inline void _Throw_bad_array_new_length() {

  00000	55		 push	 ebp
  00001	8b ec		 mov	 ebp, esp
  00003	83 ec 0c	 sub	 esp, 12			; 0000000cH

; 108  :     _THROW(bad_array_new_length{});

  00006	8d 4d f4	 lea	 ecx, DWORD PTR $T1[ebp]
  00009	e8 00 00 00 00	 call	 ??0bad_array_new_length@std@@QAE@XZ ; std::bad_array_new_length::bad_array_new_length
  0000e	68 00 00 00 00	 push	 OFFSET __TI3?AVbad_array_new_length@std@@
  00013	8d 45 f4	 lea	 eax, DWORD PTR $T1[ebp]
  00016	50		 push	 eax
  00017	e8 00 00 00 00	 call	 __CxxThrowException@8
$LN3@Throw_bad_:
  0001c	cc		 int	 3
?_Throw_bad_array_new_length@std@@YAXXZ ENDP		; std::_Throw_bad_array_new_length
_TEXT	ENDS
; Function compile flags: /Ogtp
; File C:\Program Files\Microsoft Visual Studio\2022\Professional\VC\Tools\MSVC\14.44.35207\include\vcruntime_exception.h
;	COMDAT ??_Gbad_array_new_length@std@@UAEPAXI@Z
_TEXT	SEGMENT
___flags$ = 8						; size = 4
??_Gbad_array_new_length@std@@UAEPAXI@Z PROC		; std::bad_array_new_length::`scalar deleting destructor', COMDAT
; _this$ = ecx
  00000	55		 push	 ebp
  00001	8b ec		 mov	 ebp, esp

; 90   :     {

  00003	56		 push	 esi
  00004	8b f1		 mov	 esi, ecx

; 91   :         __std_exception_destroy(&_Data);

  00006	8d 46 04	 lea	 eax, DWORD PTR [esi+4]
  00009	c7 06 00 00 00
	00		 mov	 DWORD PTR [esi], OFFSET ??_7exception@std@@6B@
  0000f	50		 push	 eax
  00010	e8 00 00 00 00	 call	 ___std_exception_destroy
  00015	83 c4 04	 add	 esp, 4
  00018	f6 45 08 01	 test	 BYTE PTR ___flags$[ebp], 1
  0001c	74 0b		 je	 SHORT $LN18@scalar
  0001e	6a 0c		 push	 12			; 0000000cH
  00020	56		 push	 esi
  00021	e8 00 00 00 00	 call	 ??3@YAXPAXI@Z		; operator delete
  00026	83 c4 08	 add	 esp, 8
$LN18@scalar:
  00029	8b c6		 mov	 eax, esi
  0002b	5e		 pop	 esi
  0002c	5d		 pop	 ebp
  0002d	c2 04 00	 ret	 4
??_Gbad_array_new_length@std@@UAEPAXI@Z ENDP		; std::bad_array_new_length::`scalar deleting destructor'
_TEXT	ENDS
; Function compile flags: /Ogtp
; File C:\Program Files\Microsoft Visual Studio\2022\Professional\VC\Tools\MSVC\14.44.35207\include\vcruntime_exception.h
;	COMDAT ??0bad_array_new_length@std@@QAE@ABV01@@Z
_TEXT	SEGMENT
___that$ = 8						; size = 4
??0bad_array_new_length@std@@QAE@ABV01@@Z PROC		; std::bad_array_new_length::bad_array_new_length, COMDAT
; _this$ = ecx
  00000	55		 push	 ebp
  00001	8b ec		 mov	 ebp, esp

; 73   :     {

  00003	56		 push	 esi
  00004	8b f1		 mov	 esi, ecx
  00006	0f 57 c0	 xorps	 xmm0, xmm0

; 72   :         : _Data()

  00009	8d 46 04	 lea	 eax, DWORD PTR [esi+4]

; 74   :         __std_exception_copy(&_Other._Data, &_Data);

  0000c	50		 push	 eax
  0000d	c7 06 00 00 00
	00		 mov	 DWORD PTR [esi], OFFSET ??_7exception@std@@6B@
  00013	66 0f d6 00	 movq	 QWORD PTR [eax], xmm0
  00017	8b 45 08	 mov	 eax, DWORD PTR ___that$[ebp]
  0001a	83 c0 04	 add	 eax, 4
  0001d	50		 push	 eax
  0001e	e8 00 00 00 00	 call	 ___std_exception_copy
  00023	83 c4 08	 add	 esp, 8
  00026	c7 06 00 00 00
	00		 mov	 DWORD PTR [esi], OFFSET ??_7bad_array_new_length@std@@6B@
  0002c	8b c6		 mov	 eax, esi
  0002e	5e		 pop	 esi
  0002f	5d		 pop	 ebp
  00030	c2 04 00	 ret	 4
??0bad_array_new_length@std@@QAE@ABV01@@Z ENDP		; std::bad_array_new_length::bad_array_new_length
_TEXT	ENDS
; Function compile flags: /Ogtp
; File C:\Program Files\Microsoft Visual Studio\2022\Professional\VC\Tools\MSVC\14.44.35207\include\vcruntime_exception.h
;	COMDAT ??1bad_array_new_length@std@@UAE@XZ
_TEXT	SEGMENT
??1bad_array_new_length@std@@UAE@XZ PROC		; std::bad_array_new_length::~bad_array_new_length, COMDAT
; _this$ = ecx

; 91   :         __std_exception_destroy(&_Data);

  00000	8d 41 04	 lea	 eax, DWORD PTR [ecx+4]
  00003	c7 01 00 00 00
	00		 mov	 DWORD PTR [ecx], OFFSET ??_7exception@std@@6B@
  00009	50		 push	 eax
  0000a	e8 00 00 00 00	 call	 ___std_exception_destroy
  0000f	59		 pop	 ecx
  00010	c3		 ret	 0
??1bad_array_new_length@std@@UAE@XZ ENDP		; std::bad_array_new_length::~bad_array_new_length
_TEXT	ENDS
; Function compile flags: /Ogtp
; File C:\Program Files\Microsoft Visual Studio\2022\Professional\VC\Tools\MSVC\14.44.35207\include\vcruntime_exception.h
;	COMDAT ??0bad_array_new_length@std@@QAE@XZ
_TEXT	SEGMENT
??0bad_array_new_length@std@@QAE@XZ PROC		; std::bad_array_new_length::bad_array_new_length, COMDAT
; _this$ = ecx

; 144  :     {

  00000	0f 57 c0	 xorps	 xmm0, xmm0

; 145  :     }

  00003	8b c1		 mov	 eax, ecx

; 66   :         : _Data()

  00005	66 0f d6 41 04	 movq	 QWORD PTR [ecx+4], xmm0

; 67   :     {
; 68   :         _Data._What = _Message;

  0000a	c7 41 04 00 00
	00 00		 mov	 DWORD PTR [ecx+4], OFFSET ??_C@_0BF@KINCDENJ@bad?5array?5new?5length@

; 144  :     {

  00011	c7 01 00 00 00
	00		 mov	 DWORD PTR [ecx], OFFSET ??_7bad_array_new_length@std@@6B@

; 145  :     }

  00017	c3		 ret	 0
??0bad_array_new_length@std@@QAE@XZ ENDP		; std::bad_array_new_length::bad_array_new_length
_TEXT	ENDS
; Function compile flags: /Ogtp
; File C:\Program Files\Microsoft Visual Studio\2022\Professional\VC\Tools\MSVC\14.44.35207\include\vcruntime_exception.h
;	COMDAT ??_Gbad_alloc@std@@UAEPAXI@Z
_TEXT	SEGMENT
___flags$ = 8						; size = 4
??_Gbad_alloc@std@@UAEPAXI@Z PROC			; std::bad_alloc::`scalar deleting destructor', COMDAT
; _this$ = ecx
  00000	55		 push	 ebp
  00001	8b ec		 mov	 ebp, esp

; 90   :     {

  00003	56		 push	 esi
  00004	8b f1		 mov	 esi, ecx

; 91   :         __std_exception_destroy(&_Data);

  00006	8d 46 04	 lea	 eax, DWORD PTR [esi+4]
  00009	c7 06 00 00 00
	00		 mov	 DWORD PTR [esi], OFFSET ??_7exception@std@@6B@
  0000f	50		 push	 eax
  00010	e8 00 00 00 00	 call	 ___std_exception_destroy
  00015	83 c4 04	 add	 esp, 4
  00018	f6 45 08 01	 test	 BYTE PTR ___flags$[ebp], 1
  0001c	74 0b		 je	 SHORT $LN13@scalar
  0001e	6a 0c		 push	 12			; 0000000cH
  00020	56		 push	 esi
  00021	e8 00 00 00 00	 call	 ??3@YAXPAXI@Z		; operator delete
  00026	83 c4 08	 add	 esp, 8
$LN13@scalar:
  00029	8b c6		 mov	 eax, esi
  0002b	5e		 pop	 esi
  0002c	5d		 pop	 ebp
  0002d	c2 04 00	 ret	 4
??_Gbad_alloc@std@@UAEPAXI@Z ENDP			; std::bad_alloc::`scalar deleting destructor'
_TEXT	ENDS
; Function compile flags: /Ogtp
; File C:\Program Files\Microsoft Visual Studio\2022\Professional\VC\Tools\MSVC\14.44.35207\include\vcruntime_exception.h
;	COMDAT ??0bad_alloc@std@@QAE@ABV01@@Z
_TEXT	SEGMENT
___that$ = 8						; size = 4
??0bad_alloc@std@@QAE@ABV01@@Z PROC			; std::bad_alloc::bad_alloc, COMDAT
; _this$ = ecx
  00000	55		 push	 ebp
  00001	8b ec		 mov	 ebp, esp

; 73   :     {

  00003	56		 push	 esi
  00004	8b f1		 mov	 esi, ecx
  00006	0f 57 c0	 xorps	 xmm0, xmm0

; 72   :         : _Data()

  00009	8d 46 04	 lea	 eax, DWORD PTR [esi+4]

; 74   :         __std_exception_copy(&_Other._Data, &_Data);

  0000c	50		 push	 eax
  0000d	c7 06 00 00 00
	00		 mov	 DWORD PTR [esi], OFFSET ??_7exception@std@@6B@
  00013	66 0f d6 00	 movq	 QWORD PTR [eax], xmm0
  00017	8b 45 08	 mov	 eax, DWORD PTR ___that$[ebp]
  0001a	83 c0 04	 add	 eax, 4
  0001d	50		 push	 eax
  0001e	e8 00 00 00 00	 call	 ___std_exception_copy
  00023	83 c4 08	 add	 esp, 8
  00026	c7 06 00 00 00
	00		 mov	 DWORD PTR [esi], OFFSET ??_7bad_alloc@std@@6B@
  0002c	8b c6		 mov	 eax, esi
  0002e	5e		 pop	 esi
  0002f	5d		 pop	 ebp
  00030	c2 04 00	 ret	 4
??0bad_alloc@std@@QAE@ABV01@@Z ENDP			; std::bad_alloc::bad_alloc
_TEXT	ENDS
; Function compile flags: /Ogtp
; File C:\Program Files\Microsoft Visual Studio\2022\Professional\VC\Tools\MSVC\14.44.35207\include\vcruntime_exception.h
;	COMDAT ??_Gexception@std@@UAEPAXI@Z
_TEXT	SEGMENT
___flags$ = 8						; size = 4
??_Gexception@std@@UAEPAXI@Z PROC			; std::exception::`scalar deleting destructor', COMDAT
; _this$ = ecx
  00000	55		 push	 ebp
  00001	8b ec		 mov	 ebp, esp

; 90   :     {

  00003	56		 push	 esi
  00004	8b f1		 mov	 esi, ecx

; 91   :         __std_exception_destroy(&_Data);

  00006	8d 46 04	 lea	 eax, DWORD PTR [esi+4]
  00009	c7 06 00 00 00
	00		 mov	 DWORD PTR [esi], OFFSET ??_7exception@std@@6B@
  0000f	50		 push	 eax
  00010	e8 00 00 00 00	 call	 ___std_exception_destroy
  00015	83 c4 04	 add	 esp, 4
  00018	f6 45 08 01	 test	 BYTE PTR ___flags$[ebp], 1
  0001c	74 0b		 je	 SHORT $LN8@scalar
  0001e	6a 0c		 push	 12			; 0000000cH
  00020	56		 push	 esi
  00021	e8 00 00 00 00	 call	 ??3@YAXPAXI@Z		; operator delete
  00026	83 c4 08	 add	 esp, 8
$LN8@scalar:
  00029	8b c6		 mov	 eax, esi
  0002b	5e		 pop	 esi
  0002c	5d		 pop	 ebp
  0002d	c2 04 00	 ret	 4
??_Gexception@std@@UAEPAXI@Z ENDP			; std::exception::`scalar deleting destructor'
_TEXT	ENDS
; Function compile flags: /Ogtp
; File C:\Program Files\Microsoft Visual Studio\2022\Professional\VC\Tools\MSVC\14.44.35207\include\vcruntime_exception.h
;	COMDAT ?what@exception@std@@UBEPBDXZ
_TEXT	SEGMENT
?what@exception@std@@UBEPBDXZ PROC			; std::exception::what, COMDAT
; _this$ = ecx

; 96   :         return _Data._What ? _Data._What : "Unknown exception";

  00000	8b 49 04	 mov	 ecx, DWORD PTR [ecx+4]
  00003	b8 00 00 00 00	 mov	 eax, OFFSET ??_C@_0BC@EOODALEL@Unknown?5exception@
  00008	85 c9		 test	 ecx, ecx
  0000a	0f 45 c1	 cmovne	 eax, ecx

; 97   :     }

  0000d	c3		 ret	 0
?what@exception@std@@UBEPBDXZ ENDP			; std::exception::what
_TEXT	ENDS
; Function compile flags: /Ogtp
; File C:\Program Files\Microsoft Visual Studio\2022\Professional\VC\Tools\MSVC\14.44.35207\include\vcruntime_exception.h
;	COMDAT ??1exception@std@@UAE@XZ
_TEXT	SEGMENT
??1exception@std@@UAE@XZ PROC				; std::exception::~exception, COMDAT
; _this$ = ecx

; 91   :         __std_exception_destroy(&_Data);

  00000	8d 41 04	 lea	 eax, DWORD PTR [ecx+4]
  00003	c7 01 00 00 00
	00		 mov	 DWORD PTR [ecx], OFFSET ??_7exception@std@@6B@
  00009	50		 push	 eax
  0000a	e8 00 00 00 00	 call	 ___std_exception_destroy
  0000f	59		 pop	 ecx

; 92   :     }

  00010	c3		 ret	 0
??1exception@std@@UAE@XZ ENDP				; std::exception::~exception
_TEXT	ENDS
; Function compile flags: /Ogtp
; File C:\Program Files\Microsoft Visual Studio\2022\Professional\VC\Tools\MSVC\14.44.35207\include\vcruntime_exception.h
;	COMDAT ??0exception@std@@QAE@ABV01@@Z
_TEXT	SEGMENT
__Other$ = 8						; size = 4
??0exception@std@@QAE@ABV01@@Z PROC			; std::exception::exception, COMDAT
; _this$ = ecx

; 73   :     {

  00000	55		 push	 ebp
  00001	8b ec		 mov	 ebp, esp
  00003	56		 push	 esi
  00004	8b f1		 mov	 esi, ecx
  00006	0f 57 c0	 xorps	 xmm0, xmm0
  00009	8d 46 04	 lea	 eax, DWORD PTR [esi+4]

; 74   :         __std_exception_copy(&_Other._Data, &_Data);

  0000c	50		 push	 eax
  0000d	c7 06 00 00 00
	00		 mov	 DWORD PTR [esi], OFFSET ??_7exception@std@@6B@
  00013	66 0f d6 00	 movq	 QWORD PTR [eax], xmm0
  00017	8b 45 08	 mov	 eax, DWORD PTR __Other$[ebp]
  0001a	83 c0 04	 add	 eax, 4
  0001d	50		 push	 eax
  0001e	e8 00 00 00 00	 call	 ___std_exception_copy
  00023	83 c4 08	 add	 esp, 8

; 75   :     }

  00026	8b c6		 mov	 eax, esi
  00028	5e		 pop	 esi
  00029	5d		 pop	 ebp
  0002a	c2 04 00	 ret	 4
??0exception@std@@QAE@ABV01@@Z ENDP			; std::exception::exception
_TEXT	ENDS
; Function compile flags: /Ogtp
; File C:\Program Files\Microsoft Visual Studio\2022\Professional\VC\Tools\MSVC\14.44.35207\atlmfc\include\atlexcept.h
;	COMDAT ?AtlThrowImpl@ATL@@YGXJ@Z
_TEXT	SEGMENT
_hr$ = 8						; size = 4
?AtlThrowImpl@ATL@@YGXJ@Z PROC				; ATL::AtlThrowImpl, COMDAT

; 69   : {

  00000	55		 push	 ebp
  00001	8b ec		 mov	 ebp, esp

; 70   : 	ATLTRACE(atlTraceException, 0, _T("AtlThrow: hr = 0x%x\n"), hr );
; 71   : #ifdef _AFX
; 72   : 	if( hr == E_OUTOFMEMORY )

  00003	8b 45 08	 mov	 eax, DWORD PTR _hr$[ebp]
  00006	3d 0e 00 07 80	 cmp	 eax, -2147024882	; 8007000eH
  0000b	75 05		 jne	 SHORT $LN2@AtlThrowIm

; 73   : 	{
; 74   : 		AfxThrowMemoryException();

  0000d	e8 00 00 00 00	 call	 ?AfxThrowMemoryException@@YGXXZ ; AfxThrowMemoryException
$LN2@AtlThrowIm:

; 75   : 	}
; 76   : 	else
; 77   : 	{
; 78   : 		AfxThrowOleException( hr );

  00012	50		 push	 eax
  00013	e8 00 00 00 00	 call	 ?AfxThrowOleException@@YGXJ@Z ; AfxThrowOleException
$LN5@AtlThrowIm:
  00018	cc		 int	 3
?AtlThrowImpl@ATL@@YGXJ@Z ENDP				; ATL::AtlThrowImpl
_TEXT	ENDS
; Function compile flags: /Ogtp
; File C:\Program Files (x86)\Windows Kits\10\Include\10.0.26100.0\ucrt\stdio.h
;	COMDAT _sscanf
_TEXT	SEGMENT
__Buffer$ = 8						; size = 4
__Format$ = 12						; size = 4
_sscanf	PROC						; COMDAT

; 2247 :     {

  00000	55		 push	 ebp
  00001	8b ec		 mov	 ebp, esp

; 2153 :         return __stdio_common_vsscanf(

  00003	8d 45 10	 lea	 eax, DWORD PTR __Format$[ebp+4]
  00006	50		 push	 eax
  00007	6a 00		 push	 0
  00009	ff 75 0c	 push	 DWORD PTR __Format$[ebp]
  0000c	6a ff		 push	 -1
  0000e	ff 75 08	 push	 DWORD PTR __Buffer$[ebp]
  00011	e8 00 00 00 00	 call	 ___local_stdio_scanf_options
  00016	ff 70 04	 push	 DWORD PTR [eax+4]
  00019	ff 30		 push	 DWORD PTR [eax]
  0001b	e8 00 00 00 00	 call	 ___stdio_common_vsscanf
  00020	83 c4 1c	 add	 esp, 28			; 0000001cH

; 2248 :         int _Result;
; 2249 :         va_list _ArgList;
; 2250 :         __crt_va_start(_ArgList, _Format);
; 2251 :         _Result = _vsscanf_l(_Buffer, _Format, NULL, _ArgList);
; 2252 :         __crt_va_end(_ArgList);
; 2253 :         return _Result;
; 2254 :     }

  00023	5d		 pop	 ebp
  00024	c3		 ret	 0
_sscanf	ENDP
_TEXT	ENDS
; Function compile flags: /Ogtp
; File C:\Program Files (x86)\Windows Kits\10\Include\10.0.26100.0\ucrt\stdio.h
;	COMDAT _sprintf
_TEXT	SEGMENT
__Buffer$ = 8						; size = 4
__Format$ = 12						; size = 4
_sprintf PROC						; COMDAT

; 1771 :     {

  00000	55		 push	 ebp
  00001	8b ec		 mov	 ebp, esp

; 1392 :         int const _Result = __stdio_common_vsprintf(

  00003	8d 45 10	 lea	 eax, DWORD PTR __Format$[ebp+4]
  00006	50		 push	 eax
  00007	6a 00		 push	 0
  00009	ff 75 0c	 push	 DWORD PTR __Format$[ebp]
  0000c	6a ff		 push	 -1
  0000e	ff 75 08	 push	 DWORD PTR __Buffer$[ebp]
  00011	e8 00 00 00 00	 call	 ___local_stdio_printf_options
  00016	8b 08		 mov	 ecx, DWORD PTR [eax]
  00018	ff 70 04	 push	 DWORD PTR [eax+4]
  0001b	83 c9 01	 or	 ecx, 1
  0001e	51		 push	 ecx
  0001f	e8 00 00 00 00	 call	 ___stdio_common_vsprintf

; 1393 :             _CRT_INTERNAL_LOCAL_PRINTF_OPTIONS | _CRT_INTERNAL_PRINTF_LEGACY_VSPRINTF_NULL_TERMINATION,
; 1394 :             _Buffer, _BufferCount, _Format, _Locale, _ArgList);
; 1395 : 
; 1396 :         return _Result < 0 ? -1 : _Result;

  00024	83 c9 ff	 or	 ecx, -1
  00027	83 c4 1c	 add	 esp, 28			; 0000001cH
  0002a	85 c0		 test	 eax, eax
  0002c	0f 48 c1	 cmovs	 eax, ecx

; 1772 :         int _Result;
; 1773 :         va_list _ArgList;
; 1774 :         __crt_va_start(_ArgList, _Format);
; 1775 : 
; 1776 :         _Result = _vsprintf_l(_Buffer, _Format, NULL, _ArgList);
; 1777 : 
; 1778 :         __crt_va_end(_ArgList);
; 1779 :         return _Result;
; 1780 :     }

  0002f	5d		 pop	 ebp
  00030	c3		 ret	 0
_sprintf ENDP
_TEXT	ENDS
; Function compile flags: /Ogtp
; File C:\Program Files (x86)\Windows Kits\10\Include\10.0.26100.0\ucrt\corecrt_stdio_config.h
;	COMDAT ___local_stdio_scanf_options
_TEXT	SEGMENT
___local_stdio_scanf_options PROC			; COMDAT

; 101  :         static unsigned __int64 _OptionsStorage;
; 102  :         return &_OptionsStorage;

  00000	b8 00 00 00 00	 mov	 eax, OFFSET ?_OptionsStorage@?1??__local_stdio_scanf_options@@9@4_KA ; `__local_stdio_scanf_options'::`2'::_OptionsStorage

; 103  :     }

  00005	c3		 ret	 0
___local_stdio_scanf_options ENDP
_TEXT	ENDS
; Function compile flags: /Ogtp
; File C:\Program Files (x86)\Windows Kits\10\Include\10.0.26100.0\ucrt\corecrt_stdio_config.h
;	COMDAT ___local_stdio_printf_options
_TEXT	SEGMENT
___local_stdio_printf_options PROC			; COMDAT

; 91   :         static unsigned __int64 _OptionsStorage;
; 92   :         return &_OptionsStorage;

  00000	b8 00 00 00 00	 mov	 eax, OFFSET ?_OptionsStorage@?1??__local_stdio_printf_options@@9@4_KA ; `__local_stdio_printf_options'::`2'::_OptionsStorage

; 93   :     }

  00005	c3		 ret	 0
___local_stdio_printf_options ENDP
_TEXT	ENDS
; Function compile flags: /Ogtp
; File C:\IAGOS\server\v18\Source\Source\_Database\DbManagerFun.cpp
;	COMDAT ?__empty_global_delete@@YAXPAXI@Z
_TEXT	SEGMENT
___formal$ = 8						; size = 4
___formal$ = 12						; size = 4
?__empty_global_delete@@YAXPAXI@Z PROC			; __empty_global_delete, COMDAT

  00000	c2 00 00	 ret	 0
?__empty_global_delete@@YAXPAXI@Z ENDP			; __empty_global_delete
_TEXT	ENDS
; Function compile flags: /Ogtp
; File C:\IAGOS\server\v18\Source\Source\_Database\DbManagerFun.cpp
;	COMDAT ?__empty_global_delete@@YAXPAX@Z
_TEXT	SEGMENT
___formal$ = 8						; size = 4
?__empty_global_delete@@YAXPAX@Z PROC			; __empty_global_delete, COMDAT

  00000	c2 00 00	 ret	 0
?__empty_global_delete@@YAXPAX@Z ENDP			; __empty_global_delete
_TEXT	ENDS
END
