; Listing generated by Microsoft (R) Optimizing Compiler Version 19.44.35225.0 

	TITLE	C:\IAGOS\server\v18\Source\Output\DatabaseServer\Release\DbManagerFun.obj
	.686P
	.XMM
	include listing.inc
	.model	flat

INCLUDELIB LIBCMT
INCLUDELIB OLDNAMES

PUBLIC	?__empty_global_delete@@YAXPAX@Z		; __empty_global_delete
PUBLIC	?__empty_global_delete@@YAXPAXI@Z		; __empty_global_delete
PUBLIC	___local_stdio_printf_options
PUBLIC	___local_stdio_scanf_options
PUBLIC	_sprintf
PUBLIC	_sscanf
PUBLIC	?AtlThrowImpl@ATL@@YGXJ@Z			; ATL::AtlThrowImpl
PUBLIC	??0exception@std@@QAE@ABV01@@Z			; std::exception::exception
PUBLIC	??1exception@std@@UAE@XZ			; std::exception::~exception
PUBLIC	?what@exception@std@@UBEPBDXZ			; std::exception::what
PUBLIC	??_Gexception@std@@UAEPAXI@Z			; std::exception::`scalar deleting destructor'
PUBLIC	??0bad_alloc@std@@QAE@ABV01@@Z			; std::bad_alloc::bad_alloc
PUBLIC	??_Gbad_alloc@std@@UAEPAXI@Z			; std::bad_alloc::`scalar deleting destructor'
PUBLIC	??0bad_array_new_length@std@@QAE@XZ		; std::bad_array_new_length::bad_array_new_length
PUBLIC	??1bad_array_new_length@std@@UAE@XZ		; std::bad_array_new_length::~bad_array_new_length
PUBLIC	??0bad_array_new_length@std@@QAE@ABV01@@Z	; std::bad_array_new_length::bad_array_new_length
PUBLIC	??_Gbad_array_new_length@std@@UAEPAXI@Z		; std::bad_array_new_length::`scalar deleting destructor'
PUBLIC	?_Throw_bad_array_new_length@std@@YAXXZ		; std::_Throw_bad_array_new_length
PUBLIC	?_Xlen_string@std@@YAXXZ			; std::_Xlen_string
PUBLIC	?_Throw_tree_length_error@std@@YAXXZ		; std::_Throw_tree_length_error
PUBLIC	?GetIntFromStr@@YAHPADPAH@Z			; GetIntFromStr
PUBLIC	?GetInt64PaFromStr@@YA_JPADPAH@Z		; GetInt64PaFromStr
PUBLIC	?GetIntPaFromStr@@YAHPADPAH@Z			; GetIntPaFromStr
PUBLIC	?GetItemProp@CProject@@QAEPAUItemProp@@PBD@Z	; CProject::GetItemProp
PUBLIC	?_Insert_node@?$_Tree_val@U?$_Tree_simple_types@U?$pair@$$CBKPAVIBuff@@@std@@@std@@@std@@QAEPAU?$_Tree_node@U?$pair@$$CBKPAVIBuff@@@std@@PAX@2@U?$_Tree_id@PAU?$_Tree_node@U?$pair@$$CBKPAVIBuff@@@std@@PAX@std@@@2@QAU32@@Z ; std::_Tree_val<std::_Tree_simple_types<std::pair<unsigned long const ,IBuff *> > >::_Insert_node
PUBLIC	?_Xlength@?$vector@JV?$allocator@J@std@@@std@@CAXXZ ; std::vector<long,std::allocator<long> >::_Xlength
PUBLIC	?GetItem@?$CItemContainer@VCItemElem@@@@QAEPAVCItemElem@@PAUItemProp@@HHH@Z ; CItemContainer<CItemElem>::GetItem
PUBLIC	?IsEquip@?$CItemContainer@VCItemElem@@@@QAEHK@Z	; CItemContainer<CItemElem>::IsEquip
PUBLIC	?RemoveAt@?$CItemContainer@VCItemElem@@@@QAEXK@Z ; CItemContainer<CItemElem>::RemoveAt
PUBLIC	?UnEquip@?$CItemContainer@VCItemElem@@@@QAEHK@Z	; CItemContainer<CItemElem>::UnEquip
PUBLIC	?RemoveQuest@CDbManager@@QAEHXZ			; CDbManager::RemoveQuest
PUBLIC	?GetBank@CDbManager@@QAEHPAVCMover@@PAVCQuery@@PAUtagDB_OVERLAPPED_PLUS@@H@Z ; CDbManager::GetBank
PUBLIC	?GetInventory@CDbManager@@QAEHPAVCMover@@PAVCQuery@@PAUtagDB_OVERLAPPED_PLUS@@@Z ; CDbManager::GetInventory
PUBLIC	?LoadPiercingInfo@CDbManager@@QAEXAAVCItemElem@@PADPAH@Z ; CDbManager::LoadPiercingInfo
PUBLIC	?GetPiercingInfoFromMail@CDbManager@@QAEXPAVCQuery@@PAVCItemElem@@@Z ; CDbManager::GetPiercingInfoFromMail
PUBLIC	?GetPocket@CDbManager@@QAEHPAVCMover@@PAVCQuery@@PAUtagDB_OVERLAPPED_PLUS@@@Z ; CDbManager::GetPocket
PUBLIC	?GetEquipment@CDbManager@@QAEHPAVCMover@@PAVCQuery@@PAUtagDB_OVERLAPPED_PLUS@@@Z ; CDbManager::GetEquipment
PUBLIC	?GetTaskBar@CDbManager@@QAEHPAVCMover@@PAVCQuery@@PAUtagDB_OVERLAPPED_PLUS@@@Z ; CDbManager::GetTaskBar
PUBLIC	?GetCardCube@CDbManager@@QAEXPAVCMover@@PAVCQuery@@PAUtagDB_OVERLAPPED_PLUS@@@Z ; CDbManager::GetCardCube
PUBLIC	?GetBaseCharacter@CDbManager@@QAEXPAVCMover@@PAVCQuery@@PAUtagDB_OVERLAPPED_PLUS@@@Z ; CDbManager::GetBaseCharacter
PUBLIC	?GetSkill@CDbManager@@QAEHPAVCMover@@PAVCQuery@@PAUtagDB_OVERLAPPED_PLUS@@@Z ; CDbManager::GetSkill
PUBLIC	?GetJobLv@CDbManager@@QAEXPAVCMover@@PAVCQuery@@PAUtagDB_OVERLAPPED_PLUS@@@Z ; CDbManager::GetJobLv
PUBLIC	?GetQuest@CDbManager@@QAEHPAVCMover@@PAVCQuery@@PAUtagDB_OVERLAPPED_PLUS@@@Z ; CDbManager::GetQuest
PUBLIC	?GetSMMode@CDbManager@@QAEHPAVCMover@@PAVCQuery@@PAUtagDB_OVERLAPPED_PLUS@@@Z ; CDbManager::GetSMMode
PUBLIC	?GetSKillInfluence@CDbManager@@QAEHPAVCMover@@PAVCQuery@@PAUtagDB_OVERLAPPED_PLUS@@@Z ; CDbManager::GetSKillInfluence
PUBLIC	?GetHonor@CDbManager@@QAEXPAVCMover@@PAVCQuery@@PAUtagDB_OVERLAPPED_PLUS@@@Z ; CDbManager::GetHonor
PUBLIC	?GetOneItem@CDbManager@@QAEHPAVCItemElem@@PADPAH@Z ; CDbManager::GetOneItem
PUBLIC	?GetOneSkill@CDbManager@@QAEXPAUtagSKILL@@PADPAH@Z ; CDbManager::GetOneSkill
PUBLIC	?GetOneQuest@CDbManager@@QAEXPAUtagQuest@@PADPAH@Z ; CDbManager::GetOneQuest
PUBLIC	?GetBankMover@CDbManager@@QAEHPAVCMover@@PAVCQuery@@H@Z ; CDbManager::GetBankMover
PUBLIC	?GetGuildBank@CDbManager@@QAEXPAV?$CItemContainer@VCItemElem@@@@PAVCQuery@@@Z ; CDbManager::GetGuildBank
PUBLIC	?IsAbnormalPlayerData@CDbManager@@AAEHPAVCMover@@@Z ; CDbManager::IsAbnormalPlayerData
PUBLIC	?NormalizePlayerData@CDbManager@@AAEHPAVCMover@@@Z ; CDbManager::NormalizePlayerData
PUBLIC	?GetStrTime@CDbManager@@AAEXPAVCTime@ATL@@PBD@Z	; CDbManager::GetStrTime
PUBLIC	?RemovePenya@CDbManager@@AAEHPAVCQuery@@PADPAVCMover@@HHD@Z ; CDbManager::RemovePenya
PUBLIC	?RemoveItem@CDbManager@@AAEKPAVCQuery@@PADHPAVCMover@@1HHHHD@Z ; CDbManager::RemoveItem
PUBLIC	?RemoveItemBank@CDbManager@@AAEKPAUItemProp@@PAVCMover@@HHHH@Z ; CDbManager::RemoveItemBank
PUBLIC	?RemoveItemPocket@CDbManager@@AAEKPAUItemProp@@PAVCMover@@HHHH@Z ; CDbManager::RemoveItemPocket
PUBLIC	?RemoveItemInventory@CDbManager@@AAEKPAUItemProp@@PAVCMover@@HHHH@Z ; CDbManager::RemoveItemInventory
PUBLIC	?GetRemoveItem@CDbManager@@AAEHPAVCQuery@@AAHPAD1111AAD@Z ; CDbManager::GetRemoveItem
PUBLIC	?GetStrFromDBFormat@CDbManager@@AAEXPADPBDAAH@Z	; CDbManager::GetStrFromDBFormat
PUBLIC	?GetDBFormatStr@CDbManager@@AAEXPADHPBD@Z	; CDbManager::GetDBFormatStr
PUBLIC	?SetDBFormatStr@CDbManager@@AAEXPADHPBD@Z	; CDbManager::SetDBFormatStr
PUBLIC	??$_Resize@J@?$vector@JV?$allocator@J@std@@@std@@AAEXIABJ@Z ; std::vector<long,std::allocator<long> >::_Resize<long>
PUBLIC	??1?$_Alloc_construct_ptr@V?$allocator@U?$_Tree_node@U?$pair@$$CBKPAVIBuff@@@std@@PAX@std@@@std@@@std@@QAE@XZ ; std::_Alloc_construct_ptr<std::allocator<std::_Tree_node<std::pair<unsigned long const ,IBuff *>,void *> > >::~_Alloc_construct_ptr<std::allocator<std::_Tree_node<std::pair<unsigned long const ,IBuff *>,void *> > >
PUBLIC	??$_Uninitialized_fill_n@V?$allocator@J@std@@@std@@YAPAJPAJIABJAAV?$allocator@J@0@@Z ; std::_Uninitialized_fill_n<std::allocator<long> >
PUBLIC	??$_Is_all_bits_zero@J@std@@YA_NABJ@Z		; std::_Is_all_bits_zero<long>
PUBLIC	??$_Fill_zero_memset@PAJ@std@@YAXPAJI@Z		; std::_Fill_zero_memset<long *>
PUBLIC	??$?MDU?$char_traits@D@std@@V?$allocator@D@1@@std@@YA_NABV?$basic_string@DU?$char_traits@D@std@@V?$allocator@D@2@@0@0@Z ; std::operator<<char,std::char_traits<char>,std::allocator<char> >
PUBLIC	??$_Copy_memmove@PAJPAJ@std@@YAPAJPAJ00@Z	; std::_Copy_memmove<long *,long *>
PUBLIC	??$_Copy_memmove_tail@PAJ@std@@YAPAJQBDQAJII@Z	; std::_Copy_memmove_tail<long *>
PUBLIC	??$_Allocate_manually_vector_aligned@U_Default_allocate_traits@std@@@std@@YAPAXI@Z ; std::_Allocate_manually_vector_aligned<std::_Default_allocate_traits>
PUBLIC	??0?$vector@HV?$allocator@H@std@@@std@@QAE@XZ	; std::vector<int,std::allocator<int> >::vector<int,std::allocator<int> >
PUBLIC	??1?$vector@HV?$allocator@H@std@@@std@@QAE@XZ	; std::vector<int,std::allocator<int> >::~vector<int,std::allocator<int> >
PUBLIC	?_Xlength@?$vector@HV?$allocator@H@std@@@std@@CAXXZ ; std::vector<int,std::allocator<int> >::_Xlength
PUBLIC	??$_Emplace_reallocate@ABH@?$vector@HV?$allocator@H@std@@@std@@AAEPAHQAHABH@Z ; std::vector<int,std::allocator<int> >::_Emplace_reallocate<int const &>
PUBLIC	??$_Copy_memmove@PAHPAH@std@@YAPAHPAH00@Z	; std::_Copy_memmove<int *,int *>
PUBLIC	??$_Copy_memmove_tail@PAH@std@@YAPAHQBDQAHII@Z	; std::_Copy_memmove_tail<int *>
PUBLIC	?_OptionsStorage@?1??__local_stdio_printf_options@@9@4_KA ; `__local_stdio_printf_options'::`2'::_OptionsStorage
PUBLIC	?_OptionsStorage@?1??__local_stdio_scanf_options@@9@4_KA ; `__local_stdio_scanf_options'::`2'::_OptionsStorage
PUBLIC	??_7exception@std@@6B@				; std::exception::`vftable'
PUBLIC	??_C@_0BC@EOODALEL@Unknown?5exception@		; `string'
PUBLIC	??_7bad_alloc@std@@6B@				; std::bad_alloc::`vftable'
PUBLIC	??_7bad_array_new_length@std@@6B@		; std::bad_array_new_length::`vftable'
PUBLIC	??_C@_0BF@KINCDENJ@bad?5array?5new?5length@	; `string'
PUBLIC	??_R0?AVexception@std@@@8			; std::exception `RTTI Type Descriptor'
PUBLIC	__CT??_R0?AVexception@std@@@8??0exception@std@@QAE@ABV01@@Z12
PUBLIC	__TI3?AVbad_array_new_length@std@@
PUBLIC	__CTA3?AVbad_array_new_length@std@@
PUBLIC	??_R0?AVbad_array_new_length@std@@@8		; std::bad_array_new_length `RTTI Type Descriptor'
PUBLIC	__CT??_R0?AVbad_array_new_length@std@@@8??0bad_array_new_length@std@@QAE@ABV01@@Z12
PUBLIC	??_R0?AVbad_alloc@std@@@8			; std::bad_alloc `RTTI Type Descriptor'
PUBLIC	__CT??_R0?AVbad_alloc@std@@@8??0bad_alloc@std@@QAE@ABV01@@Z12
PUBLIC	??_C@_0BA@JFNIOLAK@string?5too?5long@		; `string'
PUBLIC	??_C@_0BB@GCADKGJO@map?1set?5too?5long@		; `string'
PUBLIC	??_C@_09GBAEEKDE@?$CFs?0?5?$CFd?7?$CFs@		; `string'
PUBLIC	??_C@_0BA@FOIKENOD@vector?5too?5long@		; `string'
PUBLIC	??_R4exception@std@@6B@				; std::exception::`RTTI Complete Object Locator'
PUBLIC	??_R3exception@std@@8				; std::exception::`RTTI Class Hierarchy Descriptor'
PUBLIC	??_R2exception@std@@8				; std::exception::`RTTI Base Class Array'
PUBLIC	??_R1A@?0A@EA@exception@std@@8			; std::exception::`RTTI Base Class Descriptor at (0,-1,0,64)'
PUBLIC	??_R4bad_array_new_length@std@@6B@		; std::bad_array_new_length::`RTTI Complete Object Locator'
PUBLIC	??_R3bad_array_new_length@std@@8		; std::bad_array_new_length::`RTTI Class Hierarchy Descriptor'
PUBLIC	??_R2bad_array_new_length@std@@8		; std::bad_array_new_length::`RTTI Base Class Array'
PUBLIC	??_R1A@?0A@EA@bad_array_new_length@std@@8	; std::bad_array_new_length::`RTTI Base Class Descriptor at (0,-1,0,64)'
PUBLIC	??_R1A@?0A@EA@bad_alloc@std@@8			; std::bad_alloc::`RTTI Base Class Descriptor at (0,-1,0,64)'
PUBLIC	??_R3bad_alloc@std@@8				; std::bad_alloc::`RTTI Class Hierarchy Descriptor'
PUBLIC	??_R2bad_alloc@std@@8				; std::bad_alloc::`RTTI Base Class Array'
PUBLIC	??_R4bad_alloc@std@@6B@				; std::bad_alloc::`RTTI Complete Object Locator'
PUBLIC	??_C@_0CI@IEFGPJMF@GetDBFormatStr?3?5nLen?5?$DN?5?$CFd?0?5nMax@ ; `string'
PUBLIC	??_C@_03BMNKJJEN@?$CF2X@			; `string'
PUBLIC	??_C@_0CI@KADALJOE@SetDBFormatStr?3?5nLen?5?$DN?5?$CFd?0?5nMax@ ; `string'
PUBLIC	??_C@_0L@FONFFEJF@m_idPlayer@			; `string'
PUBLIC	??_C@_0N@KIBMFHG@m_dwGoldBank@			; `string'
PUBLIC	??_C@_06BAMDHIIP@m_Bank@			; `string'
PUBLIC	??_C@_0P@KMLFLAAK@m_apIndex_Bank@		; `string'
PUBLIC	??_C@_0BC@HHMCMCCB@m_dwObjIndex_Bank@		; `string'
PUBLIC	??_C@_09CHFBCGKD@m_extBank@			; `string'
PUBLIC	??_C@_0P@HANLGJJC@m_BankPiercing@		; `string'
PUBLIC	??_C@_09DAKBPAHF@szBankPet@			; `string'
PUBLIC	??_C@_0DN@JBKLBOHO@C?3?2IAGOS?2server?2v18?2Source?2Sour@ ; `string'
PUBLIC	??_C@_0CM@JMMGLGKB@Join?3?3Bank?5?3?5?$DM?$DM?5Not?5Prop?4?5?$CFd?0?5?$CF@ ; `string'
PUBLIC	??_C@_0CG@GPGFAEMD@Join?3?3Bank?5?3?5?$DM?$DM?5MAX_BANK?5?$CFd?6Ban@ ; `string'
PUBLIC	??_C@_09EFEJAHGE@Bank?5?$DN?5?$CFs@		; `string'
PUBLIC	??_C@_0M@GKPNPIJD@m_GuildBank@			; `string'
PUBLIC	??_C@_0P@KBFNBDP@GuildBank?5?$DN?5?$CFs@	; `string'
PUBLIC	??_C@_0P@CLIOIOKN@m_extGuildBank@		; `string'
PUBLIC	??_C@_0BE@FOMLDJLH@m_GuildBankPiercing@		; `string'
PUBLIC	??_C@_0P@MOKIMIMD@szGuildBankPet@		; `string'
PUBLIC	??_C@_06DKFLNFEC@szItem@			; `string'
PUBLIC	??_C@_07ODPBDBGJ@szIndex@			; `string'
PUBLIC	??_C@_0L@LNBLBPOC@szObjIndex@			; `string'
PUBLIC	??_C@_05MNJCPEEI@szExt@				; `string'
PUBLIC	??_C@_0L@MAAIPEIA@szPiercing@			; `string'
PUBLIC	??_C@_05LOKLGDMG@szPet@				; `string'
PUBLIC	??_C@_07LCDBAOIB@nPocket@			; `string'
PUBLIC	??_C@_08MECCMHDE@bExpired@			; `string'
PUBLIC	??_C@_0BA@OHENMHDO@tExpirationDate@		; `string'
PUBLIC	??_C@_0BP@BKCBFKFA@Join?3Pocket?3Property?5not?5found@ ; `string'
PUBLIC	??_C@_0CB@EAAOHIMM@Join?3Pocket?3POCKET_SLOT_SIZE_1_@ ; `string'
PUBLIC	??_C@_0M@GIEPEBGM@m_Inventory@			; `string'
PUBLIC	??_C@_0CF@JJEIFMEB@Inventory?5?3?5?$DM?$DM?5?G?A?$LH?N?F?$NL?F?$LM?5?$LO?x?$MA?$LN?4?5?$CF@ ; `string'
PUBLIC	??_C@_0CG@KLFMFNBG@Join?3?3Inventory?5?3?5?$DM?$DM?5IndexItem?5@ ; `string'
PUBLIC	??_C@_0P@FEOHFPFP@Inventory?5?$DN?5?$CFs@	; `string'
PUBLIC	??_C@_09HGEFOOAJ@m_apIndex@			; `string'
PUBLIC	??_C@_0N@KMOLMNCJ@m_dwObjIndex@			; `string'
PUBLIC	??_C@_0P@CJDMDHFC@m_extInventory@		; `string'
PUBLIC	??_C@_0BE@OAKPNEDM@m_InventoryPiercing@		; `string'
PUBLIC	??_C@_0P@GAFIDLHN@szInventoryPet@		; `string'
PUBLIC	??_C@_0N@JGBJEPOF@nPiercedSize@			; `string'
PUBLIC	??_C@_0L@IJJPBAHM@dwItemId?$CFd@		; `string'
PUBLIC	??_C@_0O@DNIGFLMJ@nPiercedSize2@		; `string'
PUBLIC	??_C@_0P@MCBMMJCE@m_adwEquipment@		; `string'
PUBLIC	??_C@_0O@GNBKFLOM@m_aSlotApplet@		; `string'
PUBLIC	??_C@_0M@OJJDLIJE@m_aSlotItem@			; `string'
PUBLIC	??_C@_0N@CPNBAAIJ@m_aSlotQueue@			; `string'
PUBLIC	??_C@_0L@NJKCPPDJ@m_SkillBar@			; `string'
PUBLIC	??_C@_08HDDJDJAG@m_szName@			; `string'
PUBLIC	??_C@_0L@LGPNILBK@m_vScale_x@			; `string'
PUBLIC	??_C@_0L@MOMKJNEM@m_dwMotion@			; `string'
PUBLIC	??_C@_09DHJEDBNA@dwWorldID@			; `string'
PUBLIC	??_C@_08FJAEPELD@m_vPos_x@			; `string'
PUBLIC	??_C@_08EABPMFPC@m_vPos_y@			; `string'
PUBLIC	??_C@_08GLDCJGDB@m_vPos_z@			; `string'
PUBLIC	??_C@_08MNAKGHOO@m_fAngle@			; `string'
PUBLIC	??_C@_0BB@FJPKIIEM@m_szCharacterKey@		; `string'
PUBLIC	??_C@_0M@PMKOKNNK@m_nHitPoint@			; `string'
PUBLIC	??_C@_0N@GFDNJNAL@m_nManaPoint@			; `string'
PUBLIC	??_C@_0BA@COGKPMEJ@m_nFatiguePoint@		; `string'
PUBLIC	??_C@_0M@BCEJBJHD@m_dwSkinSet@			; `string'
PUBLIC	??_C@_0N@HFOELFNC@m_dwHairMesh@			; `string'
PUBLIC	??_C@_0O@ICOGEKE@m_dwHairColor@			; `string'
PUBLIC	??_C@_0N@BHMOBEMJ@m_dwHeadMesh@			; `string'
PUBLIC	??_C@_07KMHLCHEI@m_dwSex@			; `string'
PUBLIC	??_C@_0BA@MHMDKNKE@m_dwRideItemIdx@		; `string'
PUBLIC	??_C@_08JIMIMGKM@m_dwGold@			; `string'
PUBLIC	??_C@_06LDMBEDML@m_nJob@			; `string'
PUBLIC	??_C@_09OGJJHMJA@m_idparty@			; `string'
PUBLIC	??_C@_0L@IFGJAIGP@m_nPKValue@			; `string'
PUBLIC	??_C@_0BB@FMCDCCD@m_dwPKPropensity@		; `string'
PUBLIC	??_C@_09BCFDFPLE@m_dwPKExp@			; `string'
PUBLIC	??_C@_0M@IJMKHCEF@m_nAngelExp@			; `string'
PUBLIC	??_C@_0O@COEFFCNN@m_nAngelLevel@		; `string'
PUBLIC	??_C@_0O@MHHICKD@m_idMuerderer@			; `string'
PUBLIC	??_C@_07DKPMJIJG@m_nFame@			; `string'
PUBLIC	??_C@_0M@BFJHKIPJ@m_pActMover@			; `string'
PUBLIC	??_C@_06MEGBAFBO@m_nStr@			; `string'
PUBLIC	??_C@_06KFIOEEIM@m_nSta@			; `string'
PUBLIC	??_C@_06OOKEELPF@m_nDex@			; `string'
PUBLIC	??_C@_06LMCODDMF@m_nInt@			; `string'
PUBLIC	??_C@_08DBNLLHK@m_nLevel@			; `string'
PUBLIC	??_C@_07JKGEFCCA@m_nExp1@			; `string'
PUBLIC	??_C@_07DKFGLCKP@m_nFuel@			; `string'
PUBLIC	??_C@_0M@FGBAAHFN@m_tmAccFuel@			; `string'
PUBLIC	??_C@_0BB@IGOJBJIH@m_idMarkingWorld@		; `string'
PUBLIC	??_C@_0BA@LIDMOLFI@m_vMarkingPos_x@		; `string'
PUBLIC	??_C@_0BA@KBCHNKBJ@m_vMarkingPos_y@		; `string'
PUBLIC	??_C@_0BA@IKAKIJNK@m_vMarkingPos_z@		; `string'
PUBLIC	??_C@_0M@HLGMCMLP@m_nRemainGP@			; `string'
PUBLIC	??_C@_0M@HKFGBBGJ@m_nFlightLv@			; `string'
PUBLIC	??_C@_06JIIKDJFF@m_nFxp@			; `string'
PUBLIC	??_C@_08MFHALOPE@m_dwMode@			; `string'
PUBLIC	??_C@_0M@MAONGJJI@m_nDeathExp@			; `string'
PUBLIC	??_C@_0O@JALGGJEE@m_nDeathLevel@		; `string'
PUBLIC	??_C@_09MFLDFMGF@m_SkillLv@			; `string'
PUBLIC	??_C@_0N@FMKKCMCC@m_SkillPoint@			; `string'
PUBLIC	??_C@_08JOEHCELE@m_nHonor@			; `string'
PUBLIC	??_C@_0CA@DBOKEMLK@usp_Master_Select?5?8?$CF02d?8?0?8?$CF07d?8@ ; `string'
PUBLIC	??_C@_03KHPNBODO@sec@				; `string'
PUBLIC	??_C@_03BFBOJKCM@c01@				; `string'
PUBLIC	??_C@_03DODDMJOP@c02@				; `string'
PUBLIC	??_C@_03CHCIPIKO@c03@				; `string'
PUBLIC	??_C@_03GIGJGOGJ@c04@				; `string'
PUBLIC	??_C@_03HBHCFPCI@c05@				; `string'
PUBLIC	??_C@_03FKFPAMOL@c06@				; `string'
PUBLIC	??_C@_03EDEEDNKK@c07@				; `string'
PUBLIC	??_C@_03MENMCBGF@c08@				; `string'
PUBLIC	??_C@_03NNMHBACE@c09@				; `string'
PUBLIC	??_C@_03NMHMBFK@c10@				; `string'
PUBLIC	??_C@_03BENMPABL@c11@				; `string'
PUBLIC	??_C@_03DPPBKDNI@c12@				; `string'
PUBLIC	??_C@_03CGOKJCJJ@c13@				; `string'
PUBLIC	??_C@_03GJKLAEFO@c14@				; `string'
PUBLIC	??_C@_03HALADFBP@c15@				; `string'
PUBLIC	??_C@_03FLJNGGNM@c16@				; `string'
PUBLIC	??_C@_03ECIGFHJN@c17@				; `string'
PUBLIC	??_C@_03MFBOELFC@c18@				; `string'
PUBLIC	??_C@_03NMAFHKBD@c19@				; `string'
PUBLIC	??_C@_03PIBHPAD@c20@				; `string'
PUBLIC	??_C@_03BGJKEOEC@c21@				; `string'
PUBLIC	??_C@_03DNLHBNIB@c22@				; `string'
PUBLIC	??_C@_03CEKMCMMA@c23@				; `string'
PUBLIC	??_C@_03GLONLKAH@c24@				; `string'
PUBLIC	??_C@_03HCPGILEG@c25@				; `string'
PUBLIC	??_C@_03FJNLNIIF@c26@				; `string'
PUBLIC	??_C@_03EAMAOJME@c27@				; `string'
PUBLIC	??_C@_03MHFIPFAL@c28@				; `string'
PUBLIC	??_C@_03NOEDMEEK@c29@				; `string'
PUBLIC	??_C@_03OEDBFDE@c30@				; `string'
PUBLIC	??_C@_03BHFICEHF@c31@				; `string'
PUBLIC	??_C@_03DMHFHHLG@c32@				; `string'
PUBLIC	??_C@_03CFGOEGPH@c33@				; `string'
PUBLIC	??_C@_03GKCPNADA@c34@				; `string'
PUBLIC	??_C@_03HDDEOBHB@c35@				; `string'
PUBLIC	??_C@_03FIBJLCLC@c36@				; `string'
PUBLIC	??_C@_03EBACIDPD@c37@				; `string'
PUBLIC	??_C@_03MGJKJPDM@c38@				; `string'
PUBLIC	??_C@_03NPIBKOHN@c39@				; `string'
PUBLIC	??_C@_03LAMADLB@c40@				; `string'
PUBLIC	??_C@_03BCBHDCPA@c41@				; `string'
PUBLIC	??_C@_03DJDKGBDD@c42@				; `string'
PUBLIC	??_C@_03CACBFAHC@c43@				; `string'
PUBLIC	??_C@_03GPGAMGLF@c44@				; `string'
PUBLIC	??_C@_03HGHLPHPE@c45@				; `string'
PUBLIC	??_C@_03FNFGKEDH@c46@				; `string'
PUBLIC	??_C@_03EEENJFHG@c47@				; `string'
PUBLIC	??_C@_03MDNFIJLJ@c48@				; `string'
PUBLIC	??_C@_03NKMOLIPI@c49@				; `string'
PUBLIC	??_C@_03KMOGJIG@c50@				; `string'
PUBLIC	??_C@_0CE@IGLOLMFD@uspLoadCharacterSkill?5?8?$CF02d?8?0?8?$CF@ ; `string'
PUBLIC	??_C@_0O@MDJBOIOM@SkillPosition@		; `string'
PUBLIC	??_C@_07CBFCHMIH@SkillID@			; `string'
PUBLIC	??_C@_07MKOJOKBN@SkillLv@			; `string'
PUBLIC	??_C@_0BC@KGPDILGI@m_lpQuestCntArray@		; `string'
PUBLIC	??_C@_0BB@HNPOCMEF@m_aCompleteQuest@		; `string'
PUBLIC	??_C@_0BA@DPOFAGJ@m_aCheckedQuest@		; `string'
PUBLIC	??_C@_0L@JCPOPMED@m_dwSMTime@			; `string'
PUBLIC	??_C@_04HIBGFPH@NULL@				; `string'
PUBLIC	??_C@_0P@KFJOMEEC@SkillInfluence@		; `string'
PUBLIC	??_C@_05DIMENFA@m_nNo@				; `string'
PUBLIC	??_C@_09GAPLKBDN@Item_Name@			; `string'
PUBLIC	??_C@_0L@IOKBDDFK@Item_count@			; `string'
PUBLIC	??_C@_0BB@JLNDCIFJ@m_nAbilityOption@		; `string'
PUBLIC	??_C@_05JNKNAC@State@				; `string'
PUBLIC	??_C@_0O@PJIGDEIK@m_bItemResist@		; `string'
PUBLIC	??_C@_0BH@DKIALLAG@m_nResistAbilityOption@	; `string'
PUBLIC	??_C@_0BL@GOICAOCF@Remove?5NULL?5Item_Name?5?3?5?$CFs@ ; `string'
PUBLIC	??_C@_0BL@DMKMHKMC@Remove?5Not?5Data?5State?5?3?5?$CFc@ ; `string'
PUBLIC	??_C@_0BG@EGBCIKAA@Not?5UnEquip?5?3?5?$CFs?0?5?$CFs?5@ ; `string'
PUBLIC	??_C@_0BI@OFGDADEH@Not?5Inventory?5?3?5?$CFs?0?5?$CFs?5@ ; `string'
PUBLIC	??_C@_0BP@MKOBOPPN@item?5not?5found?5?9?5bank?3?5?$CFs?0?5?$CFs?5@ ; `string'
PUBLIC	??_C@_0CB@HEHGABA@item?5not?5found?5?9?5Pocket?3?5?$CFs?0?5?$CFs@ ; `string'
PUBLIC	??_C@_0CC@JKMJFPOD@call?5BOOL?5CDbManager?3?3RemoveQue@ ; `string'
PUBLIC	??_C@_0BA@DPPBFHPJ@removequest?4txt@		; `string'
PUBLIC	??_C@_0CH@EEGILGJF@fail?5to?5connect?3?5dsn?$DN?$CFs?0?5id?$DN?$CFs?0@ ; `string'
PUBLIC	??_C@_0HG@LPNEKFLC@SELECT?5m_idPlayer?0?5m_lpQuestCnt@ ; `string'
PUBLIC	??_C@_0GF@KIGMAII@SELECT?5m_idPlayer?0?5m_lpQuestCnt@ ; `string'
PUBLIC	??_C@_0BA@PHPFGNFH@query?5error?3?5?$CFs@	; `string'
PUBLIC	??_C@_0JG@EPDAEJAA@UPDATE?5CHARACTER_TBL?5SET?5m_lpQu@ ; `string'
PUBLIC	??_C@_0BG@JHIJALBF@query_removequest?4txt@	; `string'
PUBLIC	??_C@_0BF@KCBBBMFM@RemoveQuest?5complete@	; `string'
PUBLIC	__real@4f000000
EXTRN	??2@YAPAXI@Z:PROC				; operator new
EXTRN	??3@YAXPAXI@Z:PROC				; operator delete
EXTRN	??_U@YAPAXI@Z:PROC				; operator new[]
EXTRN	??_V@YAXPAX@Z:PROC				; operator delete[]
EXTRN	___report_rangecheckfailure:PROC
EXTRN	__invoke_watson:PROC
EXTRN	_strncpy:PROC
EXTRN	__imp__OutputDebugStringA@4:PROC
EXTRN	__imp__EnterCriticalSection@4:PROC
EXTRN	__imp__LeaveCriticalSection@4:PROC
EXTRN	___stdio_common_vsprintf:PROC
EXTRN	___stdio_common_vsscanf:PROC
EXTRN	_atoi:PROC
EXTRN	__atoi64:PROC
EXTRN	__mktime64:PROC
EXTRN	?AfxThrowMemoryException@@YGXXZ:PROC		; AfxThrowMemoryException
EXTRN	?AfxThrowOleException@@YGXJ@Z:PROC		; AfxThrowOleException
EXTRN	?_Xlength_error@std@@YAXPBD@Z:PROC		; std::_Xlength_error
EXTRN	___std_exception_copy:PROC
EXTRN	___std_exception_destroy:PROC
EXTRN	??_Eexception@std@@UAEPAXI@Z:PROC		; std::exception::`vector deleting destructor'
EXTRN	??_Ebad_alloc@std@@UAEPAXI@Z:PROC		; std::bad_alloc::`vector deleting destructor'
EXTRN	??_Ebad_array_new_length@std@@UAEPAXI@Z:PROC	; std::bad_array_new_length::`vector deleting destructor'
EXTRN	?Error@@YAPBDPBDZZ:PROC				; Error
EXTRN	?GetNumber@CScanner@@QAEHH@Z:PROC		; CScanner::GetNumber
EXTRN	??0CScript@@QAE@H@Z:PROC			; CScript::CScript
EXTRN	??1CScript@@UAE@XZ:PROC				; CScript::~CScript
EXTRN	?Load@CScript@@QAEHPBDHH@Z:PROC			; CScript::Load
EXTRN	?FILEOUT@@YAXPBD0ZZ:PROC			; FILEOUT
EXTRN	?WriteLog@@YAXPBDZZ:PROC			; WriteLog
EXTRN	??0CQuery@@QAE@XZ:PROC				; CQuery::CQuery
EXTRN	??1CQuery@@QAE@XZ:PROC				; CQuery::~CQuery
EXTRN	?Connect@CQuery@@QAEHHPAD0PBD@Z:PROC		; CQuery::Connect
EXTRN	?Exec@CQuery@@QAEHPBD@Z:PROC			; CQuery::Exec
EXTRN	?Fetch@CQuery@@QAEHXZ:PROC			; CQuery::Fetch
EXTRN	?GetInt@CQuery@@QAEHPAD@Z:PROC			; CQuery::GetInt
EXTRN	?GetInt64@CQuery@@QAE_JPAD@Z:PROC		; CQuery::GetInt64
EXTRN	?GetFloat@CQuery@@QAEMPAD@Z:PROC		; CQuery::GetFloat
EXTRN	?GetChar@CQuery@@QAEDPAD@Z:PROC			; CQuery::GetChar
EXTRN	?GetStr@CQuery@@QAEXPAD0@Z:PROC			; CQuery::GetStr
EXTRN	?SetTotal@IBuff@@QAEXK@Z:PROC			; IBuff::SetTotal
EXTRN	??0CPet@@QAE@XZ:PROC				; CPet::CPet
EXTRN	?SetAvailLevel@CPet@@QAEXEE@Z:PROC		; CPet::SetAvailLevel
EXTRN	?SetExp@CPet@@QAEXK@Z:PROC			; CPet::SetExp
EXTRN	?SetEnergy@CPet@@QAEXG@Z:PROC			; CPet::SetEnergy
EXTRN	?SetName@CPet@@QAEXPBD@Z:PROC			; CPet::SetName
EXTRN	?SetPiercingSize@CPiercing@@QAEXH@Z:PROC	; CPiercing::SetPiercingSize
EXTRN	?GetPiercingSize@CPiercing@@QAEHXZ:PROC		; CPiercing::GetPiercingSize
EXTRN	?SetPiercingItem@CPiercing@@QAEXHK@Z:PROC	; CPiercing::SetPiercingItem
EXTRN	?SetUltimatePiercingSize@CPiercing@@QAEXH@Z:PROC ; CPiercing::SetUltimatePiercingSize
EXTRN	?GetUltimatePiercingSize@CPiercing@@QAEHXZ:PROC	; CPiercing::GetUltimatePiercingSize
EXTRN	?SetUltimatePiercingItem@CPiercing@@QAEXHK@Z:PROC ; CPiercing::SetUltimatePiercingItem
EXTRN	?SetVisKeepTime@CPiercing@@QAEXHJ@Z:PROC	; CPiercing::SetVisKeepTime
EXTRN	??0CItemElem@@QAE@XZ:PROC			; CItemElem::CItemElem
EXTRN	??1CItemElem@@UAE@XZ:PROC			; CItemElem::~CItemElem
EXTRN	?Avail@CPocketController@@QAEXHJ@Z:PROC		; CPocketController::Avail
EXTRN	?GetPocket@CPocketController@@QAEPAVCPocket@@H@Z:PROC ; CPocketController::GetPocket
EXTRN	??0CMover@@QAE@XZ:PROC				; CMover::CMover
EXTRN	??1CMover@@UAE@XZ:PROC				; CMover::~CMover
EXTRN	?RemoveQuest@CMover@@QAEHH@Z:PROC		; CMover::RemoveQuest
EXTRN	?FreeRequest@CDbManager@@QAEXPAUtagDB_OVERLAPPED_PLUS@@@Z:PROC ; CDbManager::FreeRequest
EXTRN	?SaveQuest@CDbManager@@QAEXPAVCMover@@PAD11@Z:PROC ; CDbManager::SaveQuest
EXTRN	?RemoveItemDeleteQuery@CDbManager@@AAEHPAVCQuery@@PADH@Z:PROC ; CDbManager::RemoveItemDeleteQuery
EXTRN	?GetInstance@CPlayerDataCenter@@SAPAV1@XZ:PROC	; CPlayerDataCenter::GetInstance
EXTRN	?GetPlayerString@CPlayerDataCenter@@QAEPBDK@Z:PROC ; CPlayerDataCenter::GetPlayerString
EXTRN	?CheckValidItem@@YAHKF@Z:PROC			; CheckValidItem
EXTRN	?Instance@CTitleManager@@SAPAV1@XZ:PROC		; CTitleManager::Instance
EXTRN	?GetIdxType@CTitleManager@@QAEHH@Z:PROC		; CTitleManager::GetIdxType
EXTRN	@__security_check_cookie@4:PROC
EXTRN	__CxxThrowException@8:PROC
EXTRN	___CxxFrameHandler3:PROC
EXTRN	__chkstk:PROC
EXTRN	_memcpy:PROC
EXTRN	_memmove:PROC
EXTRN	_memset:PROC
EXTRN	??_7type_info@@6B@:QWORD			; type_info::`vftable'
EXTRN	?prj@@3VCProject@@A:BYTE			; prj
EXTRN	?DSN_NAME_CHARACTER01@@3PADA:BYTE		; DSN_NAME_CHARACTER01
EXTRN	?DB_ADMIN_ID_CHARACTER01@@3PADA:BYTE		; DB_ADMIN_ID_CHARACTER01
EXTRN	?g_appInfo@@3UAppInfo@@A:QWORD			; g_appInfo
EXTRN	___security_cookie:DWORD
EXTRN	__fltused:DWORD
;	COMDAT ?_OptionsStorage@?1??__local_stdio_printf_options@@9@4_KA
_BSS	SEGMENT
?_OptionsStorage@?1??__local_stdio_printf_options@@9@4_KA DQ 01H DUP (?) ; `__local_stdio_printf_options'::`2'::_OptionsStorage
_BSS	ENDS
;	COMDAT ?_OptionsStorage@?1??__local_stdio_scanf_options@@9@4_KA
_BSS	SEGMENT
?_OptionsStorage@?1??__local_stdio_scanf_options@@9@4_KA DQ 01H DUP (?) ; `__local_stdio_scanf_options'::`2'::_OptionsStorage
_BSS	ENDS
;	COMDAT __real@4f000000
CONST	SEGMENT
__real@4f000000 DD 04f000000r			; 2.14748e+09
CONST	ENDS
;	COMDAT ??_C@_0BF@KCBBBMFM@RemoveQuest?5complete@
CONST	SEGMENT
??_C@_0BF@KCBBBMFM@RemoveQuest?5complete@ DB 'RemoveQuest complete', 00H ; `string'
CONST	ENDS
;	COMDAT ??_C@_0BG@JHIJALBF@query_removequest?4txt@
CONST	SEGMENT
??_C@_0BG@JHIJALBF@query_removequest?4txt@ DB 'query_removequest.txt', 00H ; `string'
CONST	ENDS
;	COMDAT ??_C@_0JG@EPDAEJAA@UPDATE?5CHARACTER_TBL?5SET?5m_lpQu@
CONST	SEGMENT
??_C@_0JG@EPDAEJAA@UPDATE?5CHARACTER_TBL?5SET?5m_lpQu@ DB 'UPDATE CHARACT'
	DB	'ER_TBL SET m_lpQuestCntArray = ''%s'', m_aCompleteQuest = ''%'
	DB	's'', m_aCheckedQuest = ''%s'' WHERE m_idPlayer = ''%07d'' and'
	DB	' serverindex = ''%02d''', 00H		; `string'
CONST	ENDS
;	COMDAT ??_C@_0BA@PHPFGNFH@query?5error?3?5?$CFs@
CONST	SEGMENT
??_C@_0BA@PHPFGNFH@query?5error?3?5?$CFs@ DB 'query error: %s', 00H ; `string'
CONST	ENDS
;	COMDAT ??_C@_0GF@KIGMAII@SELECT?5m_idPlayer?0?5m_lpQuestCnt@
CONST	SEGMENT
??_C@_0GF@KIGMAII@SELECT?5m_idPlayer?0?5m_lpQuestCnt@ DB 'SELECT m_idPlay'
	DB	'er, m_lpQuestCntArray, m_aCompleteQuest FROM CHARACTER_TBL WH'
	DB	'ERE serverindex = ''%02d''', 00H		; `string'
CONST	ENDS
;	COMDAT ??_C@_0HG@LPNEKFLC@SELECT?5m_idPlayer?0?5m_lpQuestCnt@
CONST	SEGMENT
??_C@_0HG@LPNEKFLC@SELECT?5m_idPlayer?0?5m_lpQuestCnt@ DB 'SELECT m_idPla'
	DB	'yer, m_lpQuestCntArray, m_aCompleteQuest, m_aCheckedQuest FRO'
	DB	'M CHARACTER_TBL WHERE serverindex = ''%02d''', 00H ; `string'
CONST	ENDS
;	COMDAT ??_C@_0CH@EEGILGJF@fail?5to?5connect?3?5dsn?$DN?$CFs?0?5id?$DN?$CFs?0@
CONST	SEGMENT
??_C@_0CH@EEGILGJF@fail?5to?5connect?3?5dsn?$DN?$CFs?0?5id?$DN?$CFs?0@ DB 'f'
	DB	'ail to connect: dsn=%s, id=%s, pwd=%s', 00H	; `string'
CONST	ENDS
;	COMDAT ??_C@_0BA@DPPBFHPJ@removequest?4txt@
CONST	SEGMENT
??_C@_0BA@DPPBFHPJ@removequest?4txt@ DB 'removequest.txt', 00H ; `string'
CONST	ENDS
;	COMDAT ??_C@_0CC@JKMJFPOD@call?5BOOL?5CDbManager?3?3RemoveQue@
CONST	SEGMENT
??_C@_0CC@JKMJFPOD@call?5BOOL?5CDbManager?3?3RemoveQue@ DB 'call BOOL CDb'
	DB	'Manager::RemoveQuest', 00H			; `string'
CONST	ENDS
;	COMDAT ??_C@_0CB@HEHGABA@item?5not?5found?5?9?5Pocket?3?5?$CFs?0?5?$CFs@
CONST	SEGMENT
??_C@_0CB@HEHGABA@item?5not?5found?5?9?5Pocket?3?5?$CFs?0?5?$CFs@ DB 'ite'
	DB	'm not found - Pocket: %s, %s ', 00H		; `string'
CONST	ENDS
;	COMDAT ??_C@_0BP@MKOBOPPN@item?5not?5found?5?9?5bank?3?5?$CFs?0?5?$CFs?5@
CONST	SEGMENT
??_C@_0BP@MKOBOPPN@item?5not?5found?5?9?5bank?3?5?$CFs?0?5?$CFs?5@ DB 'it'
	DB	'em not found - bank: %s, %s ', 00H		; `string'
CONST	ENDS
;	COMDAT ??_C@_0BI@OFGDADEH@Not?5Inventory?5?3?5?$CFs?0?5?$CFs?5@
CONST	SEGMENT
??_C@_0BI@OFGDADEH@Not?5Inventory?5?3?5?$CFs?0?5?$CFs?5@ DB 'Not Inventor'
	DB	'y : %s, %s ', 00H				; `string'
CONST	ENDS
;	COMDAT ??_C@_0BG@EGBCIKAA@Not?5UnEquip?5?3?5?$CFs?0?5?$CFs?5@
CONST	SEGMENT
??_C@_0BG@EGBCIKAA@Not?5UnEquip?5?3?5?$CFs?0?5?$CFs?5@ DB 'Not UnEquip : '
	DB	'%s, %s ', 00H				; `string'
CONST	ENDS
;	COMDAT ??_C@_0BL@DMKMHKMC@Remove?5Not?5Data?5State?5?3?5?$CFc@
CONST	SEGMENT
??_C@_0BL@DMKMHKMC@Remove?5Not?5Data?5State?5?3?5?$CFc@ DB 'Remove Not Da'
	DB	'ta State : %c', 00H				; `string'
CONST	ENDS
;	COMDAT ??_C@_0BL@GOICAOCF@Remove?5NULL?5Item_Name?5?3?5?$CFs@
CONST	SEGMENT
??_C@_0BL@GOICAOCF@Remove?5NULL?5Item_Name?5?3?5?$CFs@ DB 'Remove NULL It'
	DB	'em_Name : %s', 00H				; `string'
CONST	ENDS
;	COMDAT ??_C@_0BH@DKIALLAG@m_nResistAbilityOption@
CONST	SEGMENT
??_C@_0BH@DKIALLAG@m_nResistAbilityOption@ DB 'm_nResistAbilityOption', 00H ; `string'
CONST	ENDS
;	COMDAT ??_C@_0O@PJIGDEIK@m_bItemResist@
CONST	SEGMENT
??_C@_0O@PJIGDEIK@m_bItemResist@ DB 'm_bItemResist', 00H ; `string'
CONST	ENDS
;	COMDAT ??_C@_05JNKNAC@State@
CONST	SEGMENT
??_C@_05JNKNAC@State@ DB 'State', 00H			; `string'
CONST	ENDS
;	COMDAT ??_C@_0BB@JLNDCIFJ@m_nAbilityOption@
CONST	SEGMENT
??_C@_0BB@JLNDCIFJ@m_nAbilityOption@ DB 'm_nAbilityOption', 00H ; `string'
CONST	ENDS
;	COMDAT ??_C@_0L@IOKBDDFK@Item_count@
CONST	SEGMENT
??_C@_0L@IOKBDDFK@Item_count@ DB 'Item_count', 00H	; `string'
CONST	ENDS
;	COMDAT ??_C@_09GAPLKBDN@Item_Name@
CONST	SEGMENT
??_C@_09GAPLKBDN@Item_Name@ DB 'Item_Name', 00H		; `string'
CONST	ENDS
;	COMDAT ??_C@_05DIMENFA@m_nNo@
CONST	SEGMENT
??_C@_05DIMENFA@m_nNo@ DB 'm_nNo', 00H			; `string'
CONST	ENDS
;	COMDAT ??_C@_0P@KFJOMEEC@SkillInfluence@
CONST	SEGMENT
??_C@_0P@KFJOMEEC@SkillInfluence@ DB 'SkillInfluence', 00H ; `string'
CONST	ENDS
;	COMDAT ??_C@_04HIBGFPH@NULL@
CONST	SEGMENT
??_C@_04HIBGFPH@NULL@ DB 'NULL', 00H			; `string'
CONST	ENDS
;	COMDAT ??_C@_0L@JCPOPMED@m_dwSMTime@
CONST	SEGMENT
??_C@_0L@JCPOPMED@m_dwSMTime@ DB 'm_dwSMTime', 00H	; `string'
CONST	ENDS
;	COMDAT ??_C@_0BA@DPOFAGJ@m_aCheckedQuest@
CONST	SEGMENT
??_C@_0BA@DPOFAGJ@m_aCheckedQuest@ DB 'm_aCheckedQuest', 00H ; `string'
CONST	ENDS
;	COMDAT ??_C@_0BB@HNPOCMEF@m_aCompleteQuest@
CONST	SEGMENT
??_C@_0BB@HNPOCMEF@m_aCompleteQuest@ DB 'm_aCompleteQuest', 00H ; `string'
CONST	ENDS
;	COMDAT ??_C@_0BC@KGPDILGI@m_lpQuestCntArray@
CONST	SEGMENT
??_C@_0BC@KGPDILGI@m_lpQuestCntArray@ DB 'm_lpQuestCntArray', 00H ; `string'
CONST	ENDS
;	COMDAT ??_C@_07MKOJOKBN@SkillLv@
CONST	SEGMENT
??_C@_07MKOJOKBN@SkillLv@ DB 'SkillLv', 00H		; `string'
CONST	ENDS
;	COMDAT ??_C@_07CBFCHMIH@SkillID@
CONST	SEGMENT
??_C@_07CBFCHMIH@SkillID@ DB 'SkillID', 00H		; `string'
CONST	ENDS
;	COMDAT ??_C@_0O@MDJBOIOM@SkillPosition@
CONST	SEGMENT
??_C@_0O@MDJBOIOM@SkillPosition@ DB 'SkillPosition', 00H ; `string'
CONST	ENDS
;	COMDAT ??_C@_0CE@IGLOLMFD@uspLoadCharacterSkill?5?8?$CF02d?8?0?8?$CF@
CONST	SEGMENT
??_C@_0CE@IGLOLMFD@uspLoadCharacterSkill?5?8?$CF02d?8?0?8?$CF@ DB 'uspLoa'
	DB	'dCharacterSkill ''%02d'',''%07d''', 00H	; `string'
CONST	ENDS
;	COMDAT ??_C@_03KMOGJIG@c50@
CONST	SEGMENT
??_C@_03KMOGJIG@c50@ DB 'c50', 00H			; `string'
CONST	ENDS
;	COMDAT ??_C@_03NKMOLIPI@c49@
CONST	SEGMENT
??_C@_03NKMOLIPI@c49@ DB 'c49', 00H			; `string'
CONST	ENDS
;	COMDAT ??_C@_03MDNFIJLJ@c48@
CONST	SEGMENT
??_C@_03MDNFIJLJ@c48@ DB 'c48', 00H			; `string'
CONST	ENDS
;	COMDAT ??_C@_03EEENJFHG@c47@
CONST	SEGMENT
??_C@_03EEENJFHG@c47@ DB 'c47', 00H			; `string'
CONST	ENDS
;	COMDAT ??_C@_03FNFGKEDH@c46@
CONST	SEGMENT
??_C@_03FNFGKEDH@c46@ DB 'c46', 00H			; `string'
CONST	ENDS
;	COMDAT ??_C@_03HGHLPHPE@c45@
CONST	SEGMENT
??_C@_03HGHLPHPE@c45@ DB 'c45', 00H			; `string'
CONST	ENDS
;	COMDAT ??_C@_03GPGAMGLF@c44@
CONST	SEGMENT
??_C@_03GPGAMGLF@c44@ DB 'c44', 00H			; `string'
CONST	ENDS
;	COMDAT ??_C@_03CACBFAHC@c43@
CONST	SEGMENT
??_C@_03CACBFAHC@c43@ DB 'c43', 00H			; `string'
CONST	ENDS
;	COMDAT ??_C@_03DJDKGBDD@c42@
CONST	SEGMENT
??_C@_03DJDKGBDD@c42@ DB 'c42', 00H			; `string'
CONST	ENDS
;	COMDAT ??_C@_03BCBHDCPA@c41@
CONST	SEGMENT
??_C@_03BCBHDCPA@c41@ DB 'c41', 00H			; `string'
CONST	ENDS
;	COMDAT ??_C@_03LAMADLB@c40@
CONST	SEGMENT
??_C@_03LAMADLB@c40@ DB 'c40', 00H			; `string'
CONST	ENDS
;	COMDAT ??_C@_03NPIBKOHN@c39@
CONST	SEGMENT
??_C@_03NPIBKOHN@c39@ DB 'c39', 00H			; `string'
CONST	ENDS
;	COMDAT ??_C@_03MGJKJPDM@c38@
CONST	SEGMENT
??_C@_03MGJKJPDM@c38@ DB 'c38', 00H			; `string'
CONST	ENDS
;	COMDAT ??_C@_03EBACIDPD@c37@
CONST	SEGMENT
??_C@_03EBACIDPD@c37@ DB 'c37', 00H			; `string'
CONST	ENDS
;	COMDAT ??_C@_03FIBJLCLC@c36@
CONST	SEGMENT
??_C@_03FIBJLCLC@c36@ DB 'c36', 00H			; `string'
CONST	ENDS
;	COMDAT ??_C@_03HDDEOBHB@c35@
CONST	SEGMENT
??_C@_03HDDEOBHB@c35@ DB 'c35', 00H			; `string'
CONST	ENDS
;	COMDAT ??_C@_03GKCPNADA@c34@
CONST	SEGMENT
??_C@_03GKCPNADA@c34@ DB 'c34', 00H			; `string'
CONST	ENDS
;	COMDAT ??_C@_03CFGOEGPH@c33@
CONST	SEGMENT
??_C@_03CFGOEGPH@c33@ DB 'c33', 00H			; `string'
CONST	ENDS
;	COMDAT ??_C@_03DMHFHHLG@c32@
CONST	SEGMENT
??_C@_03DMHFHHLG@c32@ DB 'c32', 00H			; `string'
CONST	ENDS
;	COMDAT ??_C@_03BHFICEHF@c31@
CONST	SEGMENT
??_C@_03BHFICEHF@c31@ DB 'c31', 00H			; `string'
CONST	ENDS
;	COMDAT ??_C@_03OEDBFDE@c30@
CONST	SEGMENT
??_C@_03OEDBFDE@c30@ DB 'c30', 00H			; `string'
CONST	ENDS
;	COMDAT ??_C@_03NOEDMEEK@c29@
CONST	SEGMENT
??_C@_03NOEDMEEK@c29@ DB 'c29', 00H			; `string'
CONST	ENDS
;	COMDAT ??_C@_03MHFIPFAL@c28@
CONST	SEGMENT
??_C@_03MHFIPFAL@c28@ DB 'c28', 00H			; `string'
CONST	ENDS
;	COMDAT ??_C@_03EAMAOJME@c27@
CONST	SEGMENT
??_C@_03EAMAOJME@c27@ DB 'c27', 00H			; `string'
CONST	ENDS
;	COMDAT ??_C@_03FJNLNIIF@c26@
CONST	SEGMENT
??_C@_03FJNLNIIF@c26@ DB 'c26', 00H			; `string'
CONST	ENDS
;	COMDAT ??_C@_03HCPGILEG@c25@
CONST	SEGMENT
??_C@_03HCPGILEG@c25@ DB 'c25', 00H			; `string'
CONST	ENDS
;	COMDAT ??_C@_03GLONLKAH@c24@
CONST	SEGMENT
??_C@_03GLONLKAH@c24@ DB 'c24', 00H			; `string'
CONST	ENDS
;	COMDAT ??_C@_03CEKMCMMA@c23@
CONST	SEGMENT
??_C@_03CEKMCMMA@c23@ DB 'c23', 00H			; `string'
CONST	ENDS
;	COMDAT ??_C@_03DNLHBNIB@c22@
CONST	SEGMENT
??_C@_03DNLHBNIB@c22@ DB 'c22', 00H			; `string'
CONST	ENDS
;	COMDAT ??_C@_03BGJKEOEC@c21@
CONST	SEGMENT
??_C@_03BGJKEOEC@c21@ DB 'c21', 00H			; `string'
CONST	ENDS
;	COMDAT ??_C@_03PIBHPAD@c20@
CONST	SEGMENT
??_C@_03PIBHPAD@c20@ DB 'c20', 00H			; `string'
CONST	ENDS
;	COMDAT ??_C@_03NMAFHKBD@c19@
CONST	SEGMENT
??_C@_03NMAFHKBD@c19@ DB 'c19', 00H			; `string'
CONST	ENDS
;	COMDAT ??_C@_03MFBOELFC@c18@
CONST	SEGMENT
??_C@_03MFBOELFC@c18@ DB 'c18', 00H			; `string'
CONST	ENDS
;	COMDAT ??_C@_03ECIGFHJN@c17@
CONST	SEGMENT
??_C@_03ECIGFHJN@c17@ DB 'c17', 00H			; `string'
CONST	ENDS
;	COMDAT ??_C@_03FLJNGGNM@c16@
CONST	SEGMENT
??_C@_03FLJNGGNM@c16@ DB 'c16', 00H			; `string'
CONST	ENDS
;	COMDAT ??_C@_03HALADFBP@c15@
CONST	SEGMENT
??_C@_03HALADFBP@c15@ DB 'c15', 00H			; `string'
CONST	ENDS
;	COMDAT ??_C@_03GJKLAEFO@c14@
CONST	SEGMENT
??_C@_03GJKLAEFO@c14@ DB 'c14', 00H			; `string'
CONST	ENDS
;	COMDAT ??_C@_03CGOKJCJJ@c13@
CONST	SEGMENT
??_C@_03CGOKJCJJ@c13@ DB 'c13', 00H			; `string'
CONST	ENDS
;	COMDAT ??_C@_03DPPBKDNI@c12@
CONST	SEGMENT
??_C@_03DPPBKDNI@c12@ DB 'c12', 00H			; `string'
CONST	ENDS
;	COMDAT ??_C@_03BENMPABL@c11@
CONST	SEGMENT
??_C@_03BENMPABL@c11@ DB 'c11', 00H			; `string'
CONST	ENDS
;	COMDAT ??_C@_03NMHMBFK@c10@
CONST	SEGMENT
??_C@_03NMHMBFK@c10@ DB 'c10', 00H			; `string'
CONST	ENDS
;	COMDAT ??_C@_03NNMHBACE@c09@
CONST	SEGMENT
??_C@_03NNMHBACE@c09@ DB 'c09', 00H			; `string'
CONST	ENDS
;	COMDAT ??_C@_03MENMCBGF@c08@
CONST	SEGMENT
??_C@_03MENMCBGF@c08@ DB 'c08', 00H			; `string'
CONST	ENDS
;	COMDAT ??_C@_03EDEEDNKK@c07@
CONST	SEGMENT
??_C@_03EDEEDNKK@c07@ DB 'c07', 00H			; `string'
CONST	ENDS
;	COMDAT ??_C@_03FKFPAMOL@c06@
CONST	SEGMENT
??_C@_03FKFPAMOL@c06@ DB 'c06', 00H			; `string'
CONST	ENDS
;	COMDAT ??_C@_03HBHCFPCI@c05@
CONST	SEGMENT
??_C@_03HBHCFPCI@c05@ DB 'c05', 00H			; `string'
CONST	ENDS
;	COMDAT ??_C@_03GIGJGOGJ@c04@
CONST	SEGMENT
??_C@_03GIGJGOGJ@c04@ DB 'c04', 00H			; `string'
CONST	ENDS
;	COMDAT ??_C@_03CHCIPIKO@c03@
CONST	SEGMENT
??_C@_03CHCIPIKO@c03@ DB 'c03', 00H			; `string'
CONST	ENDS
;	COMDAT ??_C@_03DODDMJOP@c02@
CONST	SEGMENT
??_C@_03DODDMJOP@c02@ DB 'c02', 00H			; `string'
CONST	ENDS
;	COMDAT ??_C@_03BFBOJKCM@c01@
CONST	SEGMENT
??_C@_03BFBOJKCM@c01@ DB 'c01', 00H			; `string'
CONST	ENDS
;	COMDAT ??_C@_03KHPNBODO@sec@
CONST	SEGMENT
??_C@_03KHPNBODO@sec@ DB 'sec', 00H			; `string'
CONST	ENDS
;	COMDAT ??_C@_0CA@DBOKEMLK@usp_Master_Select?5?8?$CF02d?8?0?8?$CF07d?8@
CONST	SEGMENT
??_C@_0CA@DBOKEMLK@usp_Master_Select?5?8?$CF02d?8?0?8?$CF07d?8@ DB 'usp_M'
	DB	'aster_Select ''%02d'',''%07d''', 00H	; `string'
CONST	ENDS
;	COMDAT ??_C@_08JOEHCELE@m_nHonor@
CONST	SEGMENT
??_C@_08JOEHCELE@m_nHonor@ DB 'm_nHonor', 00H		; `string'
CONST	ENDS
;	COMDAT ??_C@_0N@FMKKCMCC@m_SkillPoint@
CONST	SEGMENT
??_C@_0N@FMKKCMCC@m_SkillPoint@ DB 'm_SkillPoint', 00H	; `string'
CONST	ENDS
;	COMDAT ??_C@_09MFLDFMGF@m_SkillLv@
CONST	SEGMENT
??_C@_09MFLDFMGF@m_SkillLv@ DB 'm_SkillLv', 00H		; `string'
CONST	ENDS
;	COMDAT ??_C@_0O@JALGGJEE@m_nDeathLevel@
CONST	SEGMENT
??_C@_0O@JALGGJEE@m_nDeathLevel@ DB 'm_nDeathLevel', 00H ; `string'
CONST	ENDS
;	COMDAT ??_C@_0M@MAONGJJI@m_nDeathExp@
CONST	SEGMENT
??_C@_0M@MAONGJJI@m_nDeathExp@ DB 'm_nDeathExp', 00H	; `string'
CONST	ENDS
;	COMDAT ??_C@_08MFHALOPE@m_dwMode@
CONST	SEGMENT
??_C@_08MFHALOPE@m_dwMode@ DB 'm_dwMode', 00H		; `string'
CONST	ENDS
;	COMDAT ??_C@_06JIIKDJFF@m_nFxp@
CONST	SEGMENT
??_C@_06JIIKDJFF@m_nFxp@ DB 'm_nFxp', 00H		; `string'
CONST	ENDS
;	COMDAT ??_C@_0M@HKFGBBGJ@m_nFlightLv@
CONST	SEGMENT
??_C@_0M@HKFGBBGJ@m_nFlightLv@ DB 'm_nFlightLv', 00H	; `string'
CONST	ENDS
;	COMDAT ??_C@_0M@HLGMCMLP@m_nRemainGP@
CONST	SEGMENT
??_C@_0M@HLGMCMLP@m_nRemainGP@ DB 'm_nRemainGP', 00H	; `string'
CONST	ENDS
;	COMDAT ??_C@_0BA@IKAKIJNK@m_vMarkingPos_z@
CONST	SEGMENT
??_C@_0BA@IKAKIJNK@m_vMarkingPos_z@ DB 'm_vMarkingPos_z', 00H ; `string'
CONST	ENDS
;	COMDAT ??_C@_0BA@KBCHNKBJ@m_vMarkingPos_y@
CONST	SEGMENT
??_C@_0BA@KBCHNKBJ@m_vMarkingPos_y@ DB 'm_vMarkingPos_y', 00H ; `string'
CONST	ENDS
;	COMDAT ??_C@_0BA@LIDMOLFI@m_vMarkingPos_x@
CONST	SEGMENT
??_C@_0BA@LIDMOLFI@m_vMarkingPos_x@ DB 'm_vMarkingPos_x', 00H ; `string'
CONST	ENDS
;	COMDAT ??_C@_0BB@IGOJBJIH@m_idMarkingWorld@
CONST	SEGMENT
??_C@_0BB@IGOJBJIH@m_idMarkingWorld@ DB 'm_idMarkingWorld', 00H ; `string'
CONST	ENDS
;	COMDAT ??_C@_0M@FGBAAHFN@m_tmAccFuel@
CONST	SEGMENT
??_C@_0M@FGBAAHFN@m_tmAccFuel@ DB 'm_tmAccFuel', 00H	; `string'
CONST	ENDS
;	COMDAT ??_C@_07DKFGLCKP@m_nFuel@
CONST	SEGMENT
??_C@_07DKFGLCKP@m_nFuel@ DB 'm_nFuel', 00H		; `string'
CONST	ENDS
;	COMDAT ??_C@_07JKGEFCCA@m_nExp1@
CONST	SEGMENT
??_C@_07JKGEFCCA@m_nExp1@ DB 'm_nExp1', 00H		; `string'
CONST	ENDS
;	COMDAT ??_C@_08DBNLLHK@m_nLevel@
CONST	SEGMENT
??_C@_08DBNLLHK@m_nLevel@ DB 'm_nLevel', 00H		; `string'
CONST	ENDS
;	COMDAT ??_C@_06LMCODDMF@m_nInt@
CONST	SEGMENT
??_C@_06LMCODDMF@m_nInt@ DB 'm_nInt', 00H		; `string'
CONST	ENDS
;	COMDAT ??_C@_06OOKEELPF@m_nDex@
CONST	SEGMENT
??_C@_06OOKEELPF@m_nDex@ DB 'm_nDex', 00H		; `string'
CONST	ENDS
;	COMDAT ??_C@_06KFIOEEIM@m_nSta@
CONST	SEGMENT
??_C@_06KFIOEEIM@m_nSta@ DB 'm_nSta', 00H		; `string'
CONST	ENDS
;	COMDAT ??_C@_06MEGBAFBO@m_nStr@
CONST	SEGMENT
??_C@_06MEGBAFBO@m_nStr@ DB 'm_nStr', 00H		; `string'
CONST	ENDS
;	COMDAT ??_C@_0M@BFJHKIPJ@m_pActMover@
CONST	SEGMENT
??_C@_0M@BFJHKIPJ@m_pActMover@ DB 'm_pActMover', 00H	; `string'
CONST	ENDS
;	COMDAT ??_C@_07DKPMJIJG@m_nFame@
CONST	SEGMENT
??_C@_07DKPMJIJG@m_nFame@ DB 'm_nFame', 00H		; `string'
CONST	ENDS
;	COMDAT ??_C@_0O@MHHICKD@m_idMuerderer@
CONST	SEGMENT
??_C@_0O@MHHICKD@m_idMuerderer@ DB 'm_idMuerderer', 00H	; `string'
CONST	ENDS
;	COMDAT ??_C@_0O@COEFFCNN@m_nAngelLevel@
CONST	SEGMENT
??_C@_0O@COEFFCNN@m_nAngelLevel@ DB 'm_nAngelLevel', 00H ; `string'
CONST	ENDS
;	COMDAT ??_C@_0M@IJMKHCEF@m_nAngelExp@
CONST	SEGMENT
??_C@_0M@IJMKHCEF@m_nAngelExp@ DB 'm_nAngelExp', 00H	; `string'
CONST	ENDS
;	COMDAT ??_C@_09BCFDFPLE@m_dwPKExp@
CONST	SEGMENT
??_C@_09BCFDFPLE@m_dwPKExp@ DB 'm_dwPKExp', 00H		; `string'
CONST	ENDS
;	COMDAT ??_C@_0BB@FMCDCCD@m_dwPKPropensity@
CONST	SEGMENT
??_C@_0BB@FMCDCCD@m_dwPKPropensity@ DB 'm_dwPKPropensity', 00H ; `string'
CONST	ENDS
;	COMDAT ??_C@_0L@IFGJAIGP@m_nPKValue@
CONST	SEGMENT
??_C@_0L@IFGJAIGP@m_nPKValue@ DB 'm_nPKValue', 00H	; `string'
CONST	ENDS
;	COMDAT ??_C@_09OGJJHMJA@m_idparty@
CONST	SEGMENT
??_C@_09OGJJHMJA@m_idparty@ DB 'm_idparty', 00H		; `string'
CONST	ENDS
;	COMDAT ??_C@_06LDMBEDML@m_nJob@
CONST	SEGMENT
??_C@_06LDMBEDML@m_nJob@ DB 'm_nJob', 00H		; `string'
CONST	ENDS
;	COMDAT ??_C@_08JIMIMGKM@m_dwGold@
CONST	SEGMENT
??_C@_08JIMIMGKM@m_dwGold@ DB 'm_dwGold', 00H		; `string'
CONST	ENDS
;	COMDAT ??_C@_0BA@MHMDKNKE@m_dwRideItemIdx@
CONST	SEGMENT
??_C@_0BA@MHMDKNKE@m_dwRideItemIdx@ DB 'm_dwRideItemIdx', 00H ; `string'
CONST	ENDS
;	COMDAT ??_C@_07KMHLCHEI@m_dwSex@
CONST	SEGMENT
??_C@_07KMHLCHEI@m_dwSex@ DB 'm_dwSex', 00H		; `string'
CONST	ENDS
;	COMDAT ??_C@_0N@BHMOBEMJ@m_dwHeadMesh@
CONST	SEGMENT
??_C@_0N@BHMOBEMJ@m_dwHeadMesh@ DB 'm_dwHeadMesh', 00H	; `string'
CONST	ENDS
;	COMDAT ??_C@_0O@ICOGEKE@m_dwHairColor@
CONST	SEGMENT
??_C@_0O@ICOGEKE@m_dwHairColor@ DB 'm_dwHairColor', 00H	; `string'
CONST	ENDS
;	COMDAT ??_C@_0N@HFOELFNC@m_dwHairMesh@
CONST	SEGMENT
??_C@_0N@HFOELFNC@m_dwHairMesh@ DB 'm_dwHairMesh', 00H	; `string'
CONST	ENDS
;	COMDAT ??_C@_0M@BCEJBJHD@m_dwSkinSet@
CONST	SEGMENT
??_C@_0M@BCEJBJHD@m_dwSkinSet@ DB 'm_dwSkinSet', 00H	; `string'
CONST	ENDS
;	COMDAT ??_C@_0BA@COGKPMEJ@m_nFatiguePoint@
CONST	SEGMENT
??_C@_0BA@COGKPMEJ@m_nFatiguePoint@ DB 'm_nFatiguePoint', 00H ; `string'
CONST	ENDS
;	COMDAT ??_C@_0N@GFDNJNAL@m_nManaPoint@
CONST	SEGMENT
??_C@_0N@GFDNJNAL@m_nManaPoint@ DB 'm_nManaPoint', 00H	; `string'
CONST	ENDS
;	COMDAT ??_C@_0M@PMKOKNNK@m_nHitPoint@
CONST	SEGMENT
??_C@_0M@PMKOKNNK@m_nHitPoint@ DB 'm_nHitPoint', 00H	; `string'
CONST	ENDS
;	COMDAT ??_C@_0BB@FJPKIIEM@m_szCharacterKey@
CONST	SEGMENT
??_C@_0BB@FJPKIIEM@m_szCharacterKey@ DB 'm_szCharacterKey', 00H ; `string'
CONST	ENDS
;	COMDAT ??_C@_08MNAKGHOO@m_fAngle@
CONST	SEGMENT
??_C@_08MNAKGHOO@m_fAngle@ DB 'm_fAngle', 00H		; `string'
CONST	ENDS
;	COMDAT ??_C@_08GLDCJGDB@m_vPos_z@
CONST	SEGMENT
??_C@_08GLDCJGDB@m_vPos_z@ DB 'm_vPos_z', 00H		; `string'
CONST	ENDS
;	COMDAT ??_C@_08EABPMFPC@m_vPos_y@
CONST	SEGMENT
??_C@_08EABPMFPC@m_vPos_y@ DB 'm_vPos_y', 00H		; `string'
CONST	ENDS
;	COMDAT ??_C@_08FJAEPELD@m_vPos_x@
CONST	SEGMENT
??_C@_08FJAEPELD@m_vPos_x@ DB 'm_vPos_x', 00H		; `string'
CONST	ENDS
;	COMDAT ??_C@_09DHJEDBNA@dwWorldID@
CONST	SEGMENT
??_C@_09DHJEDBNA@dwWorldID@ DB 'dwWorldID', 00H		; `string'
CONST	ENDS
;	COMDAT ??_C@_0L@MOMKJNEM@m_dwMotion@
CONST	SEGMENT
??_C@_0L@MOMKJNEM@m_dwMotion@ DB 'm_dwMotion', 00H	; `string'
CONST	ENDS
;	COMDAT ??_C@_0L@LGPNILBK@m_vScale_x@
CONST	SEGMENT
??_C@_0L@LGPNILBK@m_vScale_x@ DB 'm_vScale_x', 00H	; `string'
CONST	ENDS
;	COMDAT ??_C@_08HDDJDJAG@m_szName@
CONST	SEGMENT
??_C@_08HDDJDJAG@m_szName@ DB 'm_szName', 00H		; `string'
CONST	ENDS
;	COMDAT ??_C@_0L@NJKCPPDJ@m_SkillBar@
CONST	SEGMENT
??_C@_0L@NJKCPPDJ@m_SkillBar@ DB 'm_SkillBar', 00H	; `string'
CONST	ENDS
;	COMDAT ??_C@_0N@CPNBAAIJ@m_aSlotQueue@
CONST	SEGMENT
??_C@_0N@CPNBAAIJ@m_aSlotQueue@ DB 'm_aSlotQueue', 00H	; `string'
CONST	ENDS
;	COMDAT ??_C@_0M@OJJDLIJE@m_aSlotItem@
CONST	SEGMENT
??_C@_0M@OJJDLIJE@m_aSlotItem@ DB 'm_aSlotItem', 00H	; `string'
CONST	ENDS
;	COMDAT ??_C@_0O@GNBKFLOM@m_aSlotApplet@
CONST	SEGMENT
??_C@_0O@GNBKFLOM@m_aSlotApplet@ DB 'm_aSlotApplet', 00H ; `string'
CONST	ENDS
;	COMDAT ??_C@_0P@MCBMMJCE@m_adwEquipment@
CONST	SEGMENT
??_C@_0P@MCBMMJCE@m_adwEquipment@ DB 'm_adwEquipment', 00H ; `string'
CONST	ENDS
;	COMDAT ??_C@_0O@DNIGFLMJ@nPiercedSize2@
CONST	SEGMENT
??_C@_0O@DNIGFLMJ@nPiercedSize2@ DB 'nPiercedSize2', 00H ; `string'
CONST	ENDS
;	COMDAT ??_C@_0L@IJJPBAHM@dwItemId?$CFd@
CONST	SEGMENT
??_C@_0L@IJJPBAHM@dwItemId?$CFd@ DB 'dwItemId%d', 00H	; `string'
CONST	ENDS
;	COMDAT ??_C@_0N@JGBJEPOF@nPiercedSize@
CONST	SEGMENT
??_C@_0N@JGBJEPOF@nPiercedSize@ DB 'nPiercedSize', 00H	; `string'
CONST	ENDS
;	COMDAT ??_C@_0P@GAFIDLHN@szInventoryPet@
CONST	SEGMENT
??_C@_0P@GAFIDLHN@szInventoryPet@ DB 'szInventoryPet', 00H ; `string'
CONST	ENDS
;	COMDAT ??_C@_0BE@OAKPNEDM@m_InventoryPiercing@
CONST	SEGMENT
??_C@_0BE@OAKPNEDM@m_InventoryPiercing@ DB 'm_InventoryPiercing', 00H ; `string'
CONST	ENDS
;	COMDAT ??_C@_0P@CJDMDHFC@m_extInventory@
CONST	SEGMENT
??_C@_0P@CJDMDHFC@m_extInventory@ DB 'm_extInventory', 00H ; `string'
CONST	ENDS
;	COMDAT ??_C@_0N@KMOLMNCJ@m_dwObjIndex@
CONST	SEGMENT
??_C@_0N@KMOLMNCJ@m_dwObjIndex@ DB 'm_dwObjIndex', 00H	; `string'
CONST	ENDS
;	COMDAT ??_C@_09HGEFOOAJ@m_apIndex@
CONST	SEGMENT
??_C@_09HGEFOOAJ@m_apIndex@ DB 'm_apIndex', 00H		; `string'
CONST	ENDS
;	COMDAT ??_C@_0P@FEOHFPFP@Inventory?5?$DN?5?$CFs@
CONST	SEGMENT
??_C@_0P@FEOHFPFP@Inventory?5?$DN?5?$CFs@ DB 'Inventory = %s', 00H ; `string'
CONST	ENDS
;	COMDAT ??_C@_0CG@KLFMFNBG@Join?3?3Inventory?5?3?5?$DM?$DM?5IndexItem?5@
CONST	SEGMENT
??_C@_0CG@KLFMFNBG@Join?3?3Inventory?5?3?5?$DM?$DM?5IndexItem?5@ DB 'Join'
	DB	'::Inventory : << IndexItem %s, %d', 00H	; `string'
CONST	ENDS
;	COMDAT ??_C@_0CF@JJEIFMEB@Inventory?5?3?5?$DM?$DM?5?G?A?$LH?N?F?$NL?F?$LM?5?$LO?x?$MA?$LN?4?5?$CF@
CONST	SEGMENT
??_C@_0CF@JJEIFMEB@Inventory?5?3?5?$DM?$DM?5?G?A?$LH?N?F?$NL?F?$LM?5?$LO?x?$MA?$LN?4?5?$CF@ DB 'I'
	DB	'nventory : << ', 0c7H, 0c1H, 0b7H, 0ceH, 0c6H, 0dbH, 0c6H, 0bcH
	DB	' ', 0beH, 0f8H, 0c0H, 0bdH, '. %s, %d', 00H	; `string'
CONST	ENDS
;	COMDAT ??_C@_0M@GIEPEBGM@m_Inventory@
CONST	SEGMENT
??_C@_0M@GIEPEBGM@m_Inventory@ DB 'm_Inventory', 00H	; `string'
CONST	ENDS
;	COMDAT ??_C@_0CB@EAAOHIMM@Join?3Pocket?3POCKET_SLOT_SIZE_1_@
CONST	SEGMENT
??_C@_0CB@EAAOHIMM@Join?3Pocket?3POCKET_SLOT_SIZE_1_@ DB 'Join:Pocket:POC'
	DB	'KET_SLOT_SIZE_1_2', 00H			; `string'
CONST	ENDS
;	COMDAT ??_C@_0BP@BKCBFKFA@Join?3Pocket?3Property?5not?5found@
CONST	SEGMENT
??_C@_0BP@BKCBFKFA@Join?3Pocket?3Property?5not?5found@ DB 'Join:Pocket:Pr'
	DB	'operty not found', 00H			; `string'
CONST	ENDS
;	COMDAT ??_C@_0BA@OHENMHDO@tExpirationDate@
CONST	SEGMENT
??_C@_0BA@OHENMHDO@tExpirationDate@ DB 'tExpirationDate', 00H ; `string'
CONST	ENDS
;	COMDAT ??_C@_08MECCMHDE@bExpired@
CONST	SEGMENT
??_C@_08MECCMHDE@bExpired@ DB 'bExpired', 00H		; `string'
CONST	ENDS
;	COMDAT ??_C@_07LCDBAOIB@nPocket@
CONST	SEGMENT
??_C@_07LCDBAOIB@nPocket@ DB 'nPocket', 00H		; `string'
CONST	ENDS
;	COMDAT ??_C@_05LOKLGDMG@szPet@
CONST	SEGMENT
??_C@_05LOKLGDMG@szPet@ DB 'szPet', 00H			; `string'
CONST	ENDS
;	COMDAT ??_C@_0L@MAAIPEIA@szPiercing@
CONST	SEGMENT
??_C@_0L@MAAIPEIA@szPiercing@ DB 'szPiercing', 00H	; `string'
CONST	ENDS
;	COMDAT ??_C@_05MNJCPEEI@szExt@
CONST	SEGMENT
??_C@_05MNJCPEEI@szExt@ DB 'szExt', 00H			; `string'
CONST	ENDS
;	COMDAT ??_C@_0L@LNBLBPOC@szObjIndex@
CONST	SEGMENT
??_C@_0L@LNBLBPOC@szObjIndex@ DB 'szObjIndex', 00H	; `string'
CONST	ENDS
;	COMDAT ??_C@_07ODPBDBGJ@szIndex@
CONST	SEGMENT
??_C@_07ODPBDBGJ@szIndex@ DB 'szIndex', 00H		; `string'
CONST	ENDS
;	COMDAT ??_C@_06DKFLNFEC@szItem@
CONST	SEGMENT
??_C@_06DKFLNFEC@szItem@ DB 'szItem', 00H		; `string'
CONST	ENDS
;	COMDAT ??_C@_0P@MOKIMIMD@szGuildBankPet@
CONST	SEGMENT
??_C@_0P@MOKIMIMD@szGuildBankPet@ DB 'szGuildBankPet', 00H ; `string'
CONST	ENDS
;	COMDAT ??_C@_0BE@FOMLDJLH@m_GuildBankPiercing@
CONST	SEGMENT
??_C@_0BE@FOMLDJLH@m_GuildBankPiercing@ DB 'm_GuildBankPiercing', 00H ; `string'
CONST	ENDS
;	COMDAT ??_C@_0P@CLIOIOKN@m_extGuildBank@
CONST	SEGMENT
??_C@_0P@CLIOIOKN@m_extGuildBank@ DB 'm_extGuildBank', 00H ; `string'
CONST	ENDS
;	COMDAT ??_C@_0P@KBFNBDP@GuildBank?5?$DN?5?$CFs@
CONST	SEGMENT
??_C@_0P@KBFNBDP@GuildBank?5?$DN?5?$CFs@ DB 'GuildBank = %s', 00H ; `string'
CONST	ENDS
;	COMDAT ??_C@_0M@GKPNPIJD@m_GuildBank@
CONST	SEGMENT
??_C@_0M@GKPNPIJD@m_GuildBank@ DB 'm_GuildBank', 00H	; `string'
CONST	ENDS
;	COMDAT ??_C@_09EFEJAHGE@Bank?5?$DN?5?$CFs@
CONST	SEGMENT
??_C@_09EFEJAHGE@Bank?5?$DN?5?$CFs@ DB 'Bank = %s', 00H	; `string'
CONST	ENDS
;	COMDAT ??_C@_0CG@GPGFAEMD@Join?3?3Bank?5?3?5?$DM?$DM?5MAX_BANK?5?$CFd?6Ban@
CONST	SEGMENT
??_C@_0CG@GPGFAEMD@Join?3?3Bank?5?3?5?$DM?$DM?5MAX_BANK?5?$CFd?6Ban@ DB 'J'
	DB	'oin::Bank : << MAX_BANK %d', 0aH, 'Bank = %s', 00H ; `string'
CONST	ENDS
;	COMDAT ??_C@_0CM@JMMGLGKB@Join?3?3Bank?5?3?5?$DM?$DM?5Not?5Prop?4?5?$CFd?0?5?$CF@
CONST	SEGMENT
??_C@_0CM@JMMGLGKB@Join?3?3Bank?5?3?5?$DM?$DM?5Not?5Prop?4?5?$CFd?0?5?$CF@ DB 'J'
	DB	'oin::Bank : << Not Prop. %d, %d ', 0aH, 'Bank = %s', 00H ; `string'
CONST	ENDS
;	COMDAT ??_C@_0DN@JBKLBOHO@C?3?2IAGOS?2server?2v18?2Source?2Sour@
CONST	SEGMENT
??_C@_0DN@JBKLBOHO@C?3?2IAGOS?2server?2v18?2Source?2Sour@ DB 'C:\IAGOS\se'
	DB	'rver\v18\Source\Source\_Database\DbManagerFun.cpp', 00H ; `string'
CONST	ENDS
;	COMDAT ??_C@_09DAKBPAHF@szBankPet@
CONST	SEGMENT
??_C@_09DAKBPAHF@szBankPet@ DB 'szBankPet', 00H		; `string'
CONST	ENDS
;	COMDAT ??_C@_0P@HANLGJJC@m_BankPiercing@
CONST	SEGMENT
??_C@_0P@HANLGJJC@m_BankPiercing@ DB 'm_BankPiercing', 00H ; `string'
CONST	ENDS
;	COMDAT ??_C@_09CHFBCGKD@m_extBank@
CONST	SEGMENT
??_C@_09CHFBCGKD@m_extBank@ DB 'm_extBank', 00H		; `string'
CONST	ENDS
;	COMDAT ??_C@_0BC@HHMCMCCB@m_dwObjIndex_Bank@
CONST	SEGMENT
??_C@_0BC@HHMCMCCB@m_dwObjIndex_Bank@ DB 'm_dwObjIndex_Bank', 00H ; `string'
CONST	ENDS
;	COMDAT ??_C@_0P@KMLFLAAK@m_apIndex_Bank@
CONST	SEGMENT
??_C@_0P@KMLFLAAK@m_apIndex_Bank@ DB 'm_apIndex_Bank', 00H ; `string'
CONST	ENDS
;	COMDAT ??_C@_06BAMDHIIP@m_Bank@
CONST	SEGMENT
??_C@_06BAMDHIIP@m_Bank@ DB 'm_Bank', 00H		; `string'
CONST	ENDS
;	COMDAT ??_C@_0N@KIBMFHG@m_dwGoldBank@
CONST	SEGMENT
??_C@_0N@KIBMFHG@m_dwGoldBank@ DB 'm_dwGoldBank', 00H	; `string'
CONST	ENDS
;	COMDAT ??_C@_0L@FONFFEJF@m_idPlayer@
CONST	SEGMENT
??_C@_0L@FONFFEJF@m_idPlayer@ DB 'm_idPlayer', 00H	; `string'
CONST	ENDS
;	COMDAT ??_C@_0CI@KADALJOE@SetDBFormatStr?3?5nLen?5?$DN?5?$CFd?0?5nMax@
CONST	SEGMENT
??_C@_0CI@KADALJOE@SetDBFormatStr?3?5nLen?5?$DN?5?$CFd?0?5nMax@ DB 'SetDB'
	DB	'FormatStr: nLen = %d, nMaxLen = %d', 00H	; `string'
CONST	ENDS
;	COMDAT ??_C@_03BMNKJJEN@?$CF2X@
CONST	SEGMENT
??_C@_03BMNKJJEN@?$CF2X@ DB '%2X', 00H			; `string'
CONST	ENDS
;	COMDAT ??_C@_0CI@IEFGPJMF@GetDBFormatStr?3?5nLen?5?$DN?5?$CFd?0?5nMax@
CONST	SEGMENT
??_C@_0CI@IEFGPJMF@GetDBFormatStr?3?5nLen?5?$DN?5?$CFd?0?5nMax@ DB 'GetDB'
	DB	'FormatStr: nLen = %d, nMaxLen = %d', 00H	; `string'
CONST	ENDS
;	COMDAT ??_R4bad_alloc@std@@6B@
rdata$r	SEGMENT
??_R4bad_alloc@std@@6B@ DD 00H				; std::bad_alloc::`RTTI Complete Object Locator'
	DD	00H
	DD	00H
	DD	FLAT:??_R0?AVbad_alloc@std@@@8
	DD	FLAT:??_R3bad_alloc@std@@8
rdata$r	ENDS
;	COMDAT ??_R2bad_alloc@std@@8
rdata$r	SEGMENT
??_R2bad_alloc@std@@8 DD FLAT:??_R1A@?0A@EA@bad_alloc@std@@8 ; std::bad_alloc::`RTTI Base Class Array'
	DD	FLAT:??_R1A@?0A@EA@exception@std@@8
rdata$r	ENDS
;	COMDAT ??_R3bad_alloc@std@@8
rdata$r	SEGMENT
??_R3bad_alloc@std@@8 DD 00H				; std::bad_alloc::`RTTI Class Hierarchy Descriptor'
	DD	00H
	DD	02H
	DD	FLAT:??_R2bad_alloc@std@@8
rdata$r	ENDS
;	COMDAT ??_R1A@?0A@EA@bad_alloc@std@@8
rdata$r	SEGMENT
??_R1A@?0A@EA@bad_alloc@std@@8 DD FLAT:??_R0?AVbad_alloc@std@@@8 ; std::bad_alloc::`RTTI Base Class Descriptor at (0,-1,0,64)'
	DD	01H
	DD	00H
	DD	0ffffffffH
	DD	00H
	DD	040H
	DD	FLAT:??_R3bad_alloc@std@@8
rdata$r	ENDS
;	COMDAT ??_R1A@?0A@EA@bad_array_new_length@std@@8
rdata$r	SEGMENT
??_R1A@?0A@EA@bad_array_new_length@std@@8 DD FLAT:??_R0?AVbad_array_new_length@std@@@8 ; std::bad_array_new_length::`RTTI Base Class Descriptor at (0,-1,0,64)'
	DD	02H
	DD	00H
	DD	0ffffffffH
	DD	00H
	DD	040H
	DD	FLAT:??_R3bad_array_new_length@std@@8
rdata$r	ENDS
;	COMDAT ??_R2bad_array_new_length@std@@8
rdata$r	SEGMENT
??_R2bad_array_new_length@std@@8 DD FLAT:??_R1A@?0A@EA@bad_array_new_length@std@@8 ; std::bad_array_new_length::`RTTI Base Class Array'
	DD	FLAT:??_R1A@?0A@EA@bad_alloc@std@@8
	DD	FLAT:??_R1A@?0A@EA@exception@std@@8
rdata$r	ENDS
;	COMDAT ??_R3bad_array_new_length@std@@8
rdata$r	SEGMENT
??_R3bad_array_new_length@std@@8 DD 00H			; std::bad_array_new_length::`RTTI Class Hierarchy Descriptor'
	DD	00H
	DD	03H
	DD	FLAT:??_R2bad_array_new_length@std@@8
rdata$r	ENDS
;	COMDAT ??_R4bad_array_new_length@std@@6B@
rdata$r	SEGMENT
??_R4bad_array_new_length@std@@6B@ DD 00H		; std::bad_array_new_length::`RTTI Complete Object Locator'
	DD	00H
	DD	00H
	DD	FLAT:??_R0?AVbad_array_new_length@std@@@8
	DD	FLAT:??_R3bad_array_new_length@std@@8
rdata$r	ENDS
;	COMDAT ??_R1A@?0A@EA@exception@std@@8
rdata$r	SEGMENT
??_R1A@?0A@EA@exception@std@@8 DD FLAT:??_R0?AVexception@std@@@8 ; std::exception::`RTTI Base Class Descriptor at (0,-1,0,64)'
	DD	00H
	DD	00H
	DD	0ffffffffH
	DD	00H
	DD	040H
	DD	FLAT:??_R3exception@std@@8
rdata$r	ENDS
;	COMDAT ??_R2exception@std@@8
rdata$r	SEGMENT
??_R2exception@std@@8 DD FLAT:??_R1A@?0A@EA@exception@std@@8 ; std::exception::`RTTI Base Class Array'
rdata$r	ENDS
;	COMDAT ??_R3exception@std@@8
rdata$r	SEGMENT
??_R3exception@std@@8 DD 00H				; std::exception::`RTTI Class Hierarchy Descriptor'
	DD	00H
	DD	01H
	DD	FLAT:??_R2exception@std@@8
rdata$r	ENDS
;	COMDAT ??_R4exception@std@@6B@
rdata$r	SEGMENT
??_R4exception@std@@6B@ DD 00H				; std::exception::`RTTI Complete Object Locator'
	DD	00H
	DD	00H
	DD	FLAT:??_R0?AVexception@std@@@8
	DD	FLAT:??_R3exception@std@@8
rdata$r	ENDS
;	COMDAT ??_C@_0BA@FOIKENOD@vector?5too?5long@
CONST	SEGMENT
??_C@_0BA@FOIKENOD@vector?5too?5long@ DB 'vector too long', 00H ; `string'
CONST	ENDS
;	COMDAT ??_C@_09GBAEEKDE@?$CFs?0?5?$CFd?7?$CFs@
CONST	SEGMENT
??_C@_09GBAEEKDE@?$CFs?0?5?$CFd?7?$CFs@ DB '%s, %d', 09H, '%s', 00H ; `string'
CONST	ENDS
;	COMDAT ??_C@_0BB@GCADKGJO@map?1set?5too?5long@
CONST	SEGMENT
??_C@_0BB@GCADKGJO@map?1set?5too?5long@ DB 'map/set too long', 00H ; `string'
CONST	ENDS
;	COMDAT ??_C@_0BA@JFNIOLAK@string?5too?5long@
CONST	SEGMENT
??_C@_0BA@JFNIOLAK@string?5too?5long@ DB 'string too long', 00H ; `string'
CONST	ENDS
;	COMDAT __CT??_R0?AVbad_alloc@std@@@8??0bad_alloc@std@@QAE@ABV01@@Z12
xdata$x	SEGMENT
__CT??_R0?AVbad_alloc@std@@@8??0bad_alloc@std@@QAE@ABV01@@Z12 DD 010H
	DD	FLAT:??_R0?AVbad_alloc@std@@@8
	DD	00H
	DD	0ffffffffH
	ORG $+4
	DD	0cH
	DD	FLAT:??0bad_alloc@std@@QAE@ABV01@@Z
xdata$x	ENDS
;	COMDAT ??_R0?AVbad_alloc@std@@@8
data$r	SEGMENT
??_R0?AVbad_alloc@std@@@8 DD FLAT:??_7type_info@@6B@	; std::bad_alloc `RTTI Type Descriptor'
	DD	00H
	DB	'.?AVbad_alloc@std@@', 00H
data$r	ENDS
;	COMDAT __CT??_R0?AVbad_array_new_length@std@@@8??0bad_array_new_length@std@@QAE@ABV01@@Z12
xdata$x	SEGMENT
__CT??_R0?AVbad_array_new_length@std@@@8??0bad_array_new_length@std@@QAE@ABV01@@Z12 DD 00H
	DD	FLAT:??_R0?AVbad_array_new_length@std@@@8
	DD	00H
	DD	0ffffffffH
	ORG $+4
	DD	0cH
	DD	FLAT:??0bad_array_new_length@std@@QAE@ABV01@@Z
xdata$x	ENDS
;	COMDAT ??_R0?AVbad_array_new_length@std@@@8
data$r	SEGMENT
??_R0?AVbad_array_new_length@std@@@8 DD FLAT:??_7type_info@@6B@ ; std::bad_array_new_length `RTTI Type Descriptor'
	DD	00H
	DB	'.?AVbad_array_new_length@std@@', 00H
data$r	ENDS
;	COMDAT __CTA3?AVbad_array_new_length@std@@
xdata$x	SEGMENT
__CTA3?AVbad_array_new_length@std@@ DD 03H
	DD	FLAT:__CT??_R0?AVbad_array_new_length@std@@@8??0bad_array_new_length@std@@QAE@ABV01@@Z12
	DD	FLAT:__CT??_R0?AVbad_alloc@std@@@8??0bad_alloc@std@@QAE@ABV01@@Z12
	DD	FLAT:__CT??_R0?AVexception@std@@@8??0exception@std@@QAE@ABV01@@Z12
xdata$x	ENDS
;	COMDAT __TI3?AVbad_array_new_length@std@@
xdata$x	SEGMENT
__TI3?AVbad_array_new_length@std@@ DD 00H
	DD	FLAT:??1bad_array_new_length@std@@UAE@XZ
	DD	00H
	DD	FLAT:__CTA3?AVbad_array_new_length@std@@
xdata$x	ENDS
;	COMDAT __CT??_R0?AVexception@std@@@8??0exception@std@@QAE@ABV01@@Z12
xdata$x	SEGMENT
__CT??_R0?AVexception@std@@@8??0exception@std@@QAE@ABV01@@Z12 DD 00H
	DD	FLAT:??_R0?AVexception@std@@@8
	DD	00H
	DD	0ffffffffH
	ORG $+4
	DD	0cH
	DD	FLAT:??0exception@std@@QAE@ABV01@@Z
xdata$x	ENDS
;	COMDAT ??_R0?AVexception@std@@@8
data$r	SEGMENT
??_R0?AVexception@std@@@8 DD FLAT:??_7type_info@@6B@	; std::exception `RTTI Type Descriptor'
	DD	00H
	DB	'.?AVexception@std@@', 00H
data$r	ENDS
;	COMDAT ??_C@_0BF@KINCDENJ@bad?5array?5new?5length@
CONST	SEGMENT
??_C@_0BF@KINCDENJ@bad?5array?5new?5length@ DB 'bad array new length', 00H ; `string'
CONST	ENDS
;	COMDAT ??_7bad_array_new_length@std@@6B@
CONST	SEGMENT
??_7bad_array_new_length@std@@6B@ DD FLAT:??_R4bad_array_new_length@std@@6B@ ; std::bad_array_new_length::`vftable'
	DD	FLAT:??_Ebad_array_new_length@std@@UAEPAXI@Z
	DD	FLAT:?what@exception@std@@UBEPBDXZ
CONST	ENDS
;	COMDAT ??_7bad_alloc@std@@6B@
CONST	SEGMENT
??_7bad_alloc@std@@6B@ DD FLAT:??_R4bad_alloc@std@@6B@	; std::bad_alloc::`vftable'
	DD	FLAT:??_Ebad_alloc@std@@UAEPAXI@Z
	DD	FLAT:?what@exception@std@@UBEPBDXZ
CONST	ENDS
;	COMDAT ??_C@_0BC@EOODALEL@Unknown?5exception@
CONST	SEGMENT
??_C@_0BC@EOODALEL@Unknown?5exception@ DB 'Unknown exception', 00H ; `string'
CONST	ENDS
;	COMDAT ??_7exception@std@@6B@
CONST	SEGMENT
??_7exception@std@@6B@ DD FLAT:??_R4exception@std@@6B@	; std::exception::`vftable'
	DD	FLAT:??_Eexception@std@@UAEPAXI@Z
	DD	FLAT:?what@exception@std@@UBEPBDXZ
CONST	ENDS
;	COMDAT xdata$x
xdata$x	SEGMENT
__unwindtable$??$?0U?$pair@$$CBKPAVIBuff@@@std@@@?$_Tree_temp_node@V?$allocator@U?$_Tree_node@U?$pair@$$CBKPAVIBuff@@@std@@PAX@std@@@std@@@std@@QAE@AAV?$allocator@U?$_Tree_node@U?$pair@$$CBKPAVIBuff@@@std@@PAX@std@@@1@PAU?$_Tree_node@U?$pair@$$CBKPAVIBuff@@@std@@PAX@1@$$QAU?$pair@$$CBKPAVIBuff@@@1@@Z DD 0ffffffffH
	DD	FLAT:__unwindfunclet$??$?0U?$pair@$$CBKPAVIBuff@@@std@@@?$_Tree_temp_node@V?$allocator@U?$_Tree_node@U?$pair@$$CBKPAVIBuff@@@std@@PAX@std@@@std@@@std@@QAE@AAV?$allocator@U?$_Tree_node@U?$pair@$$CBKPAVIBuff@@@std@@PAX@std@@@1@PAU?$_Tree_node@U?$pair@$$CBKPAVIBuff@@@std@@PAX@1@$$QAU?$pair@$$CBKPAVIBuff@@@1@@Z$1
__ehfuncinfo$??$?0U?$pair@$$CBKPAVIBuff@@@std@@@?$_Tree_temp_node@V?$allocator@U?$_Tree_node@U?$pair@$$CBKPAVIBuff@@@std@@PAX@std@@@std@@@std@@QAE@AAV?$allocator@U?$_Tree_node@U?$pair@$$CBKPAVIBuff@@@std@@PAX@std@@@1@PAU?$_Tree_node@U?$pair@$$CBKPAVIBuff@@@std@@PAX@1@$$QAU?$pair@$$CBKPAVIBuff@@@1@@Z DD 019930522H
	DD	01H
	DD	FLAT:__unwindtable$??$?0U?$pair@$$CBKPAVIBuff@@@std@@@?$_Tree_temp_node@V?$allocator@U?$_Tree_node@U?$pair@$$CBKPAVIBuff@@@std@@PAX@std@@@std@@@std@@QAE@AAV?$allocator@U?$_Tree_node@U?$pair@$$CBKPAVIBuff@@@std@@PAX@std@@@1@PAU?$_Tree_node@U?$pair@$$CBKPAVIBuff@@@std@@PAX@1@$$QAU?$pair@$$CBKPAVIBuff@@@1@@Z
	DD	2 DUP(00H)
	DD	2 DUP(00H)
	DD	00H
	DD	01H
xdata$x	ENDS
;	COMDAT xdata$x
xdata$x	SEGMENT
__unwindtable$??0?$_Tree_temp_node_alloc@V?$allocator@U?$_Tree_node@U?$pair@$$CBKPAVIBuff@@@std@@PAX@std@@@std@@@std@@QAE@AAV?$allocator@U?$_Tree_node@U?$pair@$$CBKPAVIBuff@@@std@@PAX@std@@@1@@Z DD 0ffffffffH
	DD	FLAT:__unwindfunclet$??0?$_Tree_temp_node_alloc@V?$allocator@U?$_Tree_node@U?$pair@$$CBKPAVIBuff@@@std@@PAX@std@@@std@@@std@@QAE@AAV?$allocator@U?$_Tree_node@U?$pair@$$CBKPAVIBuff@@@std@@PAX@std@@@1@@Z$0
__ehfuncinfo$??0?$_Tree_temp_node_alloc@V?$allocator@U?$_Tree_node@U?$pair@$$CBKPAVIBuff@@@std@@PAX@std@@@std@@@std@@QAE@AAV?$allocator@U?$_Tree_node@U?$pair@$$CBKPAVIBuff@@@std@@PAX@std@@@1@@Z DD 019930522H
	DD	01H
	DD	FLAT:__unwindtable$??0?$_Tree_temp_node_alloc@V?$allocator@U?$_Tree_node@U?$pair@$$CBKPAVIBuff@@@std@@PAX@std@@@std@@@std@@QAE@AAV?$allocator@U?$_Tree_node@U?$pair@$$CBKPAVIBuff@@@std@@PAX@std@@@1@@Z
	DD	2 DUP(00H)
	DD	2 DUP(00H)
	DD	00H
	DD	01H
xdata$x	ENDS
;	COMDAT xdata$x
xdata$x	SEGMENT
__unwindtable$??$_Emplace@U?$pair@$$CBKPAVIBuff@@@std@@@?$_Tree@V?$_Tmap_traits@KPAVIBuff@@U?$less@K@std@@V?$allocator@U?$pair@$$CBKPAVIBuff@@@std@@@3@$0A@@std@@@std@@IAE?AU?$pair@PAU?$_Tree_node@U?$pair@$$CBKPAVIBuff@@@std@@PAX@std@@_N@1@$$QAU?$pair@$$CBKPAVIBuff@@@1@@Z DD 0ffffffffH
	DD	FLAT:__unwindfunclet$??$_Emplace@U?$pair@$$CBKPAVIBuff@@@std@@@?$_Tree@V?$_Tmap_traits@KPAVIBuff@@U?$less@K@std@@V?$allocator@U?$pair@$$CBKPAVIBuff@@@std@@@3@$0A@@std@@@std@@IAE?AU?$pair@PAU?$_Tree_node@U?$pair@$$CBKPAVIBuff@@@std@@PAX@std@@_N@1@$$QAU?$pair@$$CBKPAVIBuff@@@1@@Z$2
__ehfuncinfo$??$_Emplace@U?$pair@$$CBKPAVIBuff@@@std@@@?$_Tree@V?$_Tmap_traits@KPAVIBuff@@U?$less@K@std@@V?$allocator@U?$pair@$$CBKPAVIBuff@@@std@@@3@$0A@@std@@@std@@IAE?AU?$pair@PAU?$_Tree_node@U?$pair@$$CBKPAVIBuff@@@std@@PAX@std@@_N@1@$$QAU?$pair@$$CBKPAVIBuff@@@1@@Z DD 019930522H
	DD	01H
	DD	FLAT:__unwindtable$??$_Emplace@U?$pair@$$CBKPAVIBuff@@@std@@@?$_Tree@V?$_Tmap_traits@KPAVIBuff@@U?$less@K@std@@V?$allocator@U?$pair@$$CBKPAVIBuff@@@std@@@3@$0A@@std@@@std@@IAE?AU?$pair@PAU?$_Tree_node@U?$pair@$$CBKPAVIBuff@@@std@@PAX@std@@_N@1@$$QAU?$pair@$$CBKPAVIBuff@@@1@@Z
	DD	2 DUP(00H)
	DD	2 DUP(00H)
	DD	00H
	DD	01H
xdata$x	ENDS
;	COMDAT xdata$x
xdata$x	SEGMENT
__unwindtable$?GetGuildBank@CDbManager@@QAEXPAV?$CItemContainer@VCItemElem@@@@PAVCQuery@@@Z DD 0ffffffffH
	DD	FLAT:__unwindfunclet$?GetGuildBank@CDbManager@@QAEXPAV?$CItemContainer@VCItemElem@@@@PAVCQuery@@@Z$0
	DD	0ffffffffH
	DD	FLAT:__unwindfunclet$?GetGuildBank@CDbManager@@QAEXPAV?$CItemContainer@VCItemElem@@@@PAVCQuery@@@Z$1
__ehfuncinfo$?GetGuildBank@CDbManager@@QAEXPAV?$CItemContainer@VCItemElem@@@@PAVCQuery@@@Z DD 019930522H
	DD	02H
	DD	FLAT:__unwindtable$?GetGuildBank@CDbManager@@QAEXPAV?$CItemContainer@VCItemElem@@@@PAVCQuery@@@Z
	DD	2 DUP(00H)
	DD	2 DUP(00H)
	DD	00H
	DD	01H
xdata$x	ENDS
;	COMDAT xdata$x
xdata$x	SEGMENT
__unwindtable$?GetBankMover@CDbManager@@QAEHPAVCMover@@PAVCQuery@@H@Z DD 0ffffffffH
	DD	FLAT:__unwindfunclet$?GetBankMover@CDbManager@@QAEHPAVCMover@@PAVCQuery@@H@Z$0
	DD	0ffffffffH
	DD	FLAT:__unwindfunclet$?GetBankMover@CDbManager@@QAEHPAVCMover@@PAVCQuery@@H@Z$1
__ehfuncinfo$?GetBankMover@CDbManager@@QAEHPAVCMover@@PAVCQuery@@H@Z DD 019930522H
	DD	02H
	DD	FLAT:__unwindtable$?GetBankMover@CDbManager@@QAEHPAVCMover@@PAVCQuery@@H@Z
	DD	2 DUP(00H)
	DD	2 DUP(00H)
	DD	00H
	DD	01H
xdata$x	ENDS
;	COMDAT xdata$x
xdata$x	SEGMENT
__unwindtable$?GetSKillInfluence@CDbManager@@QAEHPAVCMover@@PAVCQuery@@PAUtagDB_OVERLAPPED_PLUS@@@Z DD 0ffffffffH
	DD	FLAT:__unwindfunclet$?GetSKillInfluence@CDbManager@@QAEHPAVCMover@@PAVCQuery@@PAUtagDB_OVERLAPPED_PLUS@@@Z$2
__ehfuncinfo$?GetSKillInfluence@CDbManager@@QAEHPAVCMover@@PAVCQuery@@PAUtagDB_OVERLAPPED_PLUS@@@Z DD 019930522H
	DD	01H
	DD	FLAT:__unwindtable$?GetSKillInfluence@CDbManager@@QAEHPAVCMover@@PAVCQuery@@PAUtagDB_OVERLAPPED_PLUS@@@Z
	DD	2 DUP(00H)
	DD	2 DUP(00H)
	DD	00H
	DD	01H
xdata$x	ENDS
;	COMDAT xdata$x
xdata$x	SEGMENT
__unwindtable$?GetPocket@CDbManager@@QAEHPAVCMover@@PAVCQuery@@PAUtagDB_OVERLAPPED_PLUS@@@Z DD 0ffffffffH
	DD	FLAT:__unwindfunclet$?GetPocket@CDbManager@@QAEHPAVCMover@@PAVCQuery@@PAUtagDB_OVERLAPPED_PLUS@@@Z$0
	DD	0ffffffffH
	DD	FLAT:__unwindfunclet$?GetPocket@CDbManager@@QAEHPAVCMover@@PAVCQuery@@PAUtagDB_OVERLAPPED_PLUS@@@Z$1
__ehfuncinfo$?GetPocket@CDbManager@@QAEHPAVCMover@@PAVCQuery@@PAUtagDB_OVERLAPPED_PLUS@@@Z DD 019930522H
	DD	02H
	DD	FLAT:__unwindtable$?GetPocket@CDbManager@@QAEHPAVCMover@@PAVCQuery@@PAUtagDB_OVERLAPPED_PLUS@@@Z
	DD	2 DUP(00H)
	DD	2 DUP(00H)
	DD	00H
	DD	01H
xdata$x	ENDS
;	COMDAT xdata$x
xdata$x	SEGMENT
__unwindtable$?GetInventory@CDbManager@@QAEHPAVCMover@@PAVCQuery@@PAUtagDB_OVERLAPPED_PLUS@@@Z DD 0ffffffffH
	DD	FLAT:__unwindfunclet$?GetInventory@CDbManager@@QAEHPAVCMover@@PAVCQuery@@PAUtagDB_OVERLAPPED_PLUS@@@Z$0
	DD	0ffffffffH
	DD	FLAT:__unwindfunclet$?GetInventory@CDbManager@@QAEHPAVCMover@@PAVCQuery@@PAUtagDB_OVERLAPPED_PLUS@@@Z$1
__ehfuncinfo$?GetInventory@CDbManager@@QAEHPAVCMover@@PAVCQuery@@PAUtagDB_OVERLAPPED_PLUS@@@Z DD 019930522H
	DD	02H
	DD	FLAT:__unwindtable$?GetInventory@CDbManager@@QAEHPAVCMover@@PAVCQuery@@PAUtagDB_OVERLAPPED_PLUS@@@Z
	DD	2 DUP(00H)
	DD	2 DUP(00H)
	DD	00H
	DD	01H
xdata$x	ENDS
;	COMDAT xdata$x
xdata$x	SEGMENT
__unwindtable$?GetBank@CDbManager@@QAEHPAVCMover@@PAVCQuery@@PAUtagDB_OVERLAPPED_PLUS@@H@Z DD 0ffffffffH
	DD	FLAT:__unwindfunclet$?GetBank@CDbManager@@QAEHPAVCMover@@PAVCQuery@@PAUtagDB_OVERLAPPED_PLUS@@H@Z$0
	DD	0ffffffffH
	DD	FLAT:__unwindfunclet$?GetBank@CDbManager@@QAEHPAVCMover@@PAVCQuery@@PAUtagDB_OVERLAPPED_PLUS@@H@Z$1
__ehfuncinfo$?GetBank@CDbManager@@QAEHPAVCMover@@PAVCQuery@@PAUtagDB_OVERLAPPED_PLUS@@H@Z DD 019930522H
	DD	02H
	DD	FLAT:__unwindtable$?GetBank@CDbManager@@QAEHPAVCMover@@PAVCQuery@@PAUtagDB_OVERLAPPED_PLUS@@H@Z
	DD	2 DUP(00H)
	DD	2 DUP(00H)
	DD	00H
	DD	01H
xdata$x	ENDS
;	COMDAT xdata$x
xdata$x	SEGMENT
__unwindtable$?RemoveQuest@CDbManager@@QAEHXZ DD 0ffffffffH
	DD	FLAT:__unwindfunclet$?RemoveQuest@CDbManager@@QAEHXZ$0
	DD	00H
	DD	FLAT:__unwindfunclet$?RemoveQuest@CDbManager@@QAEHXZ$1
	DD	01H
	DD	FLAT:__unwindfunclet$?RemoveQuest@CDbManager@@QAEHXZ$2
	DD	01H
	DD	FLAT:__unwindfunclet$?RemoveQuest@CDbManager@@QAEHXZ$3
__ehfuncinfo$?RemoveQuest@CDbManager@@QAEHXZ DD 019930522H
	DD	04H
	DD	FLAT:__unwindtable$?RemoveQuest@CDbManager@@QAEHXZ
	DD	2 DUP(00H)
	DD	2 DUP(00H)
	DD	00H
	DD	01H
xdata$x	ENDS
;	COMDAT xdata$x
xdata$x	SEGMENT
__unwindtable$??$insert@$0A@$0A@@?$_Tree@V?$_Tmap_traits@KPAVIBuff@@U?$less@K@std@@V?$allocator@U?$pair@$$CBKPAVIBuff@@@std@@@3@$0A@@std@@@std@@QAE?AU?$pair@V?$_Tree_iterator@V?$_Tree_val@U?$_Tree_simple_types@U?$pair@$$CBKPAVIBuff@@@std@@@std@@@std@@@std@@_N@1@$$QAU?$pair@$$CBKPAVIBuff@@@1@@Z DD 0ffffffffH
	DD	FLAT:__unwindfunclet$??$insert@$0A@$0A@@?$_Tree@V?$_Tmap_traits@KPAVIBuff@@U?$less@K@std@@V?$allocator@U?$pair@$$CBKPAVIBuff@@@std@@@3@$0A@@std@@@std@@QAE?AU?$pair@V?$_Tree_iterator@V?$_Tree_val@U?$_Tree_simple_types@U?$pair@$$CBKPAVIBuff@@@std@@@std@@@std@@@std@@_N@1@$$QAU?$pair@$$CBKPAVIBuff@@@1@@Z$2
__ehfuncinfo$??$insert@$0A@$0A@@?$_Tree@V?$_Tmap_traits@KPAVIBuff@@U?$less@K@std@@V?$allocator@U?$pair@$$CBKPAVIBuff@@@std@@@3@$0A@@std@@@std@@QAE?AU?$pair@V?$_Tree_iterator@V?$_Tree_val@U?$_Tree_simple_types@U?$pair@$$CBKPAVIBuff@@@std@@@std@@@std@@@std@@_N@1@$$QAU?$pair@$$CBKPAVIBuff@@@1@@Z DD 019930522H
	DD	01H
	DD	FLAT:__unwindtable$??$insert@$0A@$0A@@?$_Tree@V?$_Tmap_traits@KPAVIBuff@@U?$less@K@std@@V?$allocator@U?$pair@$$CBKPAVIBuff@@@std@@@3@$0A@@std@@@std@@QAE?AU?$pair@V?$_Tree_iterator@V?$_Tree_val@U?$_Tree_simple_types@U?$pair@$$CBKPAVIBuff@@@std@@@std@@@std@@@std@@_N@1@$$QAU?$pair@$$CBKPAVIBuff@@@1@@Z
	DD	2 DUP(00H)
	DD	2 DUP(00H)
	DD	00H
	DD	01H
xdata$x	ENDS
;	COMDAT xdata$x
xdata$x	SEGMENT
__unwindtable$?Add@CBuffMgr@@QAE_NPAVIBuff@@@Z DD 0ffffffffH
	DD	FLAT:__unwindfunclet$?Add@CBuffMgr@@QAE_NPAVIBuff@@@Z$2
__ehfuncinfo$?Add@CBuffMgr@@QAE_NPAVIBuff@@@Z DD 019930522H
	DD	01H
	DD	FLAT:__unwindtable$?Add@CBuffMgr@@QAE_NPAVIBuff@@@Z
	DD	2 DUP(00H)
	DD	2 DUP(00H)
	DD	00H
	DD	01H
xdata$x	ENDS
; Function compile flags: /Ogtp
; File C:\Program Files\Microsoft Visual Studio\2022\Professional\VC\Tools\MSVC\14.44.35207\include\xutility
;	COMDAT ??$_Copy_memmove_tail@PAH@std@@YAPAHQBDQAHII@Z
_TEXT	SEGMENT
__First_ch$ = 8						; size = 4
__Dest$ = 12						; size = 4
__Byte_count$ = 16					; size = 4
__Object_count$ = 20					; size = 4
??$_Copy_memmove_tail@PAH@std@@YAPAHQBDQAHII@Z PROC	; std::_Copy_memmove_tail<int *>, COMDAT

; 4747 :     const char* const _First_ch, const _OutCtgIt _Dest, const size_t _Byte_count, const size_t _Object_count) {

  00000	55		 push	 ebp
  00001	8b ec		 mov	 ebp, esp
  00003	56		 push	 esi

; 4748 :     _STL_INTERNAL_CHECK(_Byte_count == _Object_count * sizeof(*_Dest));
; 4749 :     const auto _Dest_ptr = _STD _To_address(_Dest);
; 4750 :     const auto _Dest_ch  = const_cast<char*>(reinterpret_cast<const volatile char*>(_Dest_ptr));
; 4751 :     _CSTD memmove(_Dest_ch, _First_ch, _Byte_count);

  00004	8b 75 0c	 mov	 esi, DWORD PTR __Dest$[ebp]
  00007	57		 push	 edi
  00008	8b 7d 10	 mov	 edi, DWORD PTR __Byte_count$[ebp]
  0000b	57		 push	 edi
  0000c	ff 75 08	 push	 DWORD PTR __First_ch$[ebp]
  0000f	56		 push	 esi
  00010	e8 00 00 00 00	 call	 _memmove
  00015	83 c4 0c	 add	 esp, 12			; 0000000cH

; 4752 :     if constexpr (is_pointer_v<_OutCtgIt>) {
; 4753 :         (void) _Object_count;
; 4754 :         // CodeQL [SM02986] This cast is correct: we're bypassing pointer arithmetic for performance.
; 4755 :         return reinterpret_cast<_OutCtgIt>(_Dest_ch + _Byte_count);

  00018	8d 04 3e	 lea	 eax, DWORD PTR [esi+edi]
  0001b	5f		 pop	 edi
  0001c	5e		 pop	 esi

; 4756 :     } else {
; 4757 :         return _Dest + static_cast<_Iter_diff_t<_OutCtgIt>>(_Object_count);
; 4758 :     }
; 4759 : }

  0001d	5d		 pop	 ebp
  0001e	c3		 ret	 0
??$_Copy_memmove_tail@PAH@std@@YAPAHQBDQAHII@Z ENDP	; std::_Copy_memmove_tail<int *>
_TEXT	ENDS
; Function compile flags: /Ogtp
; File C:\Program Files\Microsoft Visual Studio\2022\Professional\VC\Tools\MSVC\14.44.35207\include\xutility
;	COMDAT ??$_Copy_memmove@PAHPAH@std@@YAPAHPAH00@Z
_TEXT	SEGMENT
__First$ = 8						; size = 4
__Last$ = 12						; size = 4
__Dest$ = 16						; size = 4
??$_Copy_memmove@PAHPAH@std@@YAPAHPAH00@Z PROC		; std::_Copy_memmove<int *,int *>, COMDAT

; 4762 : _OutCtgIt _Copy_memmove(_CtgIt _First, _CtgIt _Last, _OutCtgIt _Dest) {

  00000	55		 push	 ebp
  00001	8b ec		 mov	 ebp, esp

; 4763 :     _STL_INTERNAL_CHECK(_First <= _Last);
; 4764 :     const auto _First_ptr    = _STD _To_address(_First);
; 4765 :     const auto _Last_ptr     = _STD _To_address(_Last);
; 4766 :     const auto _Object_count = static_cast<size_t>(_Last_ptr - _First_ptr);

  00003	8b 55 08	 mov	 edx, DWORD PTR __First$[ebp]
  00006	8b 4d 0c	 mov	 ecx, DWORD PTR __Last$[ebp]
  00009	2b ca		 sub	 ecx, edx
  0000b	8b c1		 mov	 eax, ecx
  0000d	c1 f8 02	 sar	 eax, 2

; 4767 :     const auto _First_ch     = const_cast<const char*>(reinterpret_cast<const volatile char*>(_First_ptr));
; 4768 :     const auto _Last_ch      = const_cast<const char*>(reinterpret_cast<const volatile char*>(_Last_ptr));
; 4769 :     const auto _Byte_count   = static_cast<size_t>(_Last_ch - _First_ch);
; 4770 :     return _STD _Copy_memmove_tail(_First_ch, _STD move(_Dest), _Byte_count, _Object_count);

  00010	50		 push	 eax
  00011	51		 push	 ecx
  00012	ff 75 10	 push	 DWORD PTR __Dest$[ebp]
  00015	52		 push	 edx
  00016	e8 00 00 00 00	 call	 ??$_Copy_memmove_tail@PAH@std@@YAPAHQBDQAHII@Z ; std::_Copy_memmove_tail<int *>
  0001b	83 c4 10	 add	 esp, 16			; 00000010H

; 4771 : }

  0001e	5d		 pop	 ebp
  0001f	c3		 ret	 0
??$_Copy_memmove@PAHPAH@std@@YAPAHPAH00@Z ENDP		; std::_Copy_memmove<int *,int *>
_TEXT	ENDS
; Function compile flags: /Ogtp
; File C:\Program Files\Microsoft Visual Studio\2022\Professional\VC\Tools\MSVC\14.44.35207\include\vector
; File C:\Program Files\Microsoft Visual Studio\2022\Professional\VC\Tools\MSVC\14.44.35207\include\xmemory
; File C:\Program Files\Microsoft Visual Studio\2022\Professional\VC\Tools\MSVC\14.44.35207\include\vector
; File C:\Program Files\Microsoft Visual Studio\2022\Professional\VC\Tools\MSVC\14.44.35207\include\xmemory
; File C:\Program Files\Microsoft Visual Studio\2022\Professional\VC\Tools\MSVC\14.44.35207\include\vector
; File C:\Program Files\Microsoft Visual Studio\2022\Professional\VC\Tools\MSVC\14.44.35207\include\xmemory
; File C:\Program Files\Microsoft Visual Studio\2022\Professional\VC\Tools\MSVC\14.44.35207\include\vector
; File C:\Program Files\Microsoft Visual Studio\2022\Professional\VC\Tools\MSVC\14.44.35207\include\xmemory
; File C:\Program Files\Microsoft Visual Studio\2022\Professional\VC\Tools\MSVC\14.44.35207\include\vector
; File C:\Program Files\Microsoft Visual Studio\2022\Professional\VC\Tools\MSVC\14.44.35207\include\xmemory
; File C:\Program Files\Microsoft Visual Studio\2022\Professional\VC\Tools\MSVC\14.44.35207\include\vector
; File C:\Program Files\Microsoft Visual Studio\2022\Professional\VC\Tools\MSVC\14.44.35207\include\xmemory
; File C:\Program Files\Microsoft Visual Studio\2022\Professional\VC\Tools\MSVC\14.44.35207\include\vector
; File C:\Program Files\Microsoft Visual Studio\2022\Professional\VC\Tools\MSVC\14.44.35207\include\xmemory
; File C:\Program Files\Microsoft Visual Studio\2022\Professional\VC\Tools\MSVC\14.44.35207\include\vector
; File C:\Program Files\Microsoft Visual Studio\2022\Professional\VC\Tools\MSVC\14.44.35207\include\xmemory
; File C:\Program Files\Microsoft Visual Studio\2022\Professional\VC\Tools\MSVC\14.44.35207\include\vector
;	COMDAT ??$_Emplace_reallocate@ABH@?$vector@HV?$allocator@H@std@@@std@@AAEPAHQAHABH@Z
_TEXT	SEGMENT
__Newsize$1$ = -12					; size = 4
tv652 = -8						; size = 4
tv650 = -4						; size = 4
__Whereptr$ = 8						; size = 4
_<_Val_0>$ = 12						; size = 4
??$_Emplace_reallocate@ABH@?$vector@HV?$allocator@H@std@@@std@@AAEPAHQAHABH@Z PROC ; std::vector<int,std::allocator<int> >::_Emplace_reallocate<int const &>, COMDAT
; _this$ = ecx

; 875  :     _CONSTEXPR20 pointer _Emplace_reallocate(const pointer _Whereptr, _Valty&&... _Val) {

  00000	55		 push	 ebp
  00001	8b ec		 mov	 ebp, esp
  00003	83 ec 0c	 sub	 esp, 12			; 0000000cH
  00006	53		 push	 ebx

; 876  :         // reallocate and insert by perfectly forwarding _Val at _Whereptr
; 877  :         _Alty& _Al        = _Getal();
; 878  :         auto& _My_data    = _Mypair._Myval2;
; 879  :         pointer& _Myfirst = _My_data._Myfirst;
; 880  :         pointer& _Mylast  = _My_data._Mylast;
; 881  : 
; 882  :         _STL_INTERNAL_CHECK(_Mylast == _My_data._Myend); // check that we have no unused capacity
; 883  : 
; 884  :         const auto _Whereoff = static_cast<size_type>(_Whereptr - _Myfirst);

  00007	8b 5d 08	 mov	 ebx, DWORD PTR __Whereptr$[ebp]
  0000a	56		 push	 esi
  0000b	8b f1		 mov	 esi, ecx
  0000d	57		 push	 edi
  0000e	8b 0e		 mov	 ecx, DWORD PTR [esi]
  00010	2b d9		 sub	 ebx, ecx

; 885  :         const auto _Oldsize  = static_cast<size_type>(_Mylast - _Myfirst);

  00012	8b 46 04	 mov	 eax, DWORD PTR [esi+4]
  00015	2b c1		 sub	 eax, ecx
  00017	c1 fb 02	 sar	 ebx, 2
  0001a	c1 f8 02	 sar	 eax, 2

; 886  : 
; 887  :         if (_Oldsize == max_size()) {

  0001d	3d ff ff ff 3f	 cmp	 eax, 1073741823		; 3fffffffH
  00022	0f 84 13 01 00
	00		 je	 $LN111@Emplace_re

; 1924 :         return static_cast<size_type>(_My_data._Myend - _My_data._Myfirst);

  00028	8b 56 08	 mov	 edx, DWORD PTR [esi+8]

; 889  :         }
; 890  : 
; 891  :         const size_type _Newsize = _Oldsize + 1;

  0002b	8d 78 01	 lea	 edi, DWORD PTR [eax+1]

; 1924 :         return static_cast<size_type>(_My_data._Myend - _My_data._Myfirst);

  0002e	2b d1		 sub	 edx, ecx

; 889  :         }
; 890  : 
; 891  :         const size_type _Newsize = _Oldsize + 1;

  00030	89 7d f4	 mov	 DWORD PTR __Newsize$1$[ebp], edi

; 1924 :         return static_cast<size_type>(_My_data._Myend - _My_data._Myfirst);

  00033	c1 fa 02	 sar	 edx, 2

; 2011 :         if (_Oldcapacity > _Max - _Oldcapacity / 2) {

  00036	b8 ff ff ff 3f	 mov	 eax, 1073741823		; 3fffffffH
  0003b	8b ca		 mov	 ecx, edx
  0003d	d1 e9		 shr	 ecx, 1
  0003f	2b c1		 sub	 eax, ecx
  00041	3b d0		 cmp	 edx, eax
  00043	76 14		 jbe	 SHORT $LN8@Emplace_re

; 2012 :             return _Max; // geometric growth would overflow

  00045	b8 fc ff ff ff	 mov	 eax, -4			; fffffffcH
  0004a	c7 45 f8 fc ff
	ff ff		 mov	 DWORD PTR tv652[ebp], -4 ; fffffffcH
; File C:\Program Files\Microsoft Visual Studio\2022\Professional\VC\Tools\MSVC\14.44.35207\include\xmemory

; 253  :             return _Allocate_manually_vector_aligned<_Traits>(_Bytes);

  00051	50		 push	 eax
  00052	e8 00 00 00 00	 call	 ??$_Allocate_manually_vector_aligned@U_Default_allocate_traits@std@@@std@@YAPAXI@Z ; std::_Allocate_manually_vector_aligned<std::_Default_allocate_traits>
  00057	eb 3d		 jmp	 SHORT $LN109@Emplace_re
$LN8@Emplace_re:
; File C:\Program Files\Microsoft Visual Studio\2022\Professional\VC\Tools\MSVC\14.44.35207\include\vector

; 2015 :         const size_type _Geometric = _Oldcapacity + _Oldcapacity / 2;

  00059	8d 04 11	 lea	 eax, DWORD PTR [ecx+edx]
; File C:\Program Files\Microsoft Visual Studio\2022\Professional\VC\Tools\MSVC\14.44.35207\include\xmemory

; 117  :         if (_Count > _Max_possible) {

  0005c	8b cf		 mov	 ecx, edi
  0005e	3b c7		 cmp	 eax, edi
  00060	0f 43 c8	 cmovae	 ecx, eax
  00063	81 f9 ff ff ff
	3f		 cmp	 ecx, 1073741823		; 3fffffffH
  00069	0f 87 d1 00 00
	00		 ja	 $LN112@Emplace_re

; 119  :         }
; 120  :     }
; 121  : 
; 122  :     return _Count * _Ty_size;

  0006f	8d 04 8d 00 00
	00 00		 lea	 eax, DWORD PTR [ecx*4]
  00076	89 45 f8	 mov	 DWORD PTR tv652[ebp], eax

; 227  :     if (_Bytes == 0) {

  00079	85 c0		 test	 eax, eax
  0007b	75 04		 jne	 SHORT $LN23@Emplace_re

; 228  :         return nullptr;

  0007d	33 ff		 xor	 edi, edi
  0007f	eb 1a		 jmp	 SHORT $LN22@Emplace_re
$LN23@Emplace_re:

; 229  :     }
; 230  : 
; 231  : #if _HAS_CXX20 // TRANSITION, GH-1532
; 232  :     if (_STD is_constant_evaluated()) {
; 233  :         return _Traits::_Allocate(_Bytes);
; 234  :     }
; 235  : #endif // _HAS_CXX20
; 236  : 
; 237  : #ifdef __cpp_aligned_new
; 238  :     if constexpr (_Align > __STDCPP_DEFAULT_NEW_ALIGNMENT__) {
; 239  :         size_t _Passed_align = _Align;
; 240  : #if defined(_M_IX86) || defined(_M_X64)
; 241  :         if (_Bytes >= _Big_allocation_threshold) {
; 242  :             // boost the alignment of big allocations to help autovectorization
; 243  :             _Passed_align = (_STD max)(_Align, _Big_allocation_alignment);
; 244  :         }
; 245  : #endif // defined(_M_IX86) || defined(_M_X64)
; 246  :         return _Traits::_Allocate_aligned(_Bytes, _Passed_align);
; 247  :     } else
; 248  : #endif // defined(__cpp_aligned_new)
; 249  :     {
; 250  : #if defined(_M_IX86) || defined(_M_X64)
; 251  :         if (_Bytes >= _Big_allocation_threshold) {

  00081	3d 00 10 00 00	 cmp	 eax, 4096		; 00001000H
  00086	72 08		 jb	 SHORT $LN24@Emplace_re

; 253  :             return _Allocate_manually_vector_aligned<_Traits>(_Bytes);

  00088	50		 push	 eax
  00089	e8 00 00 00 00	 call	 ??$_Allocate_manually_vector_aligned@U_Default_allocate_traits@std@@@std@@YAPAXI@Z ; std::_Allocate_manually_vector_aligned<std::_Default_allocate_traits>
  0008e	eb 06		 jmp	 SHORT $LN109@Emplace_re
$LN24@Emplace_re:

; 136  :         return ::operator new(_Bytes);

  00090	50		 push	 eax
  00091	e8 00 00 00 00	 call	 ??2@YAPAXI@Z		; operator new
$LN109@Emplace_re:
; File C:\Program Files\Microsoft Visual Studio\2022\Professional\VC\Tools\MSVC\14.44.35207\include\vector

; 900  :         _Alty_traits::construct(_Al, _STD _Unfancy(_Newvec + _Whereoff), _STD forward<_Valty>(_Val)...);

  00096	8b f8		 mov	 edi, eax
  00098	83 c4 04	 add	 esp, 4
$LN22@Emplace_re:
  0009b	8b 45 0c	 mov	 eax, DWORD PTR _<_Val_0>$[ebp]
  0009e	8d 0c 9f	 lea	 ecx, DWORD PTR [edi+ebx*4]

; 901  :         _Constructed_first = _Newvec + _Whereoff;
; 902  : 
; 903  :         if (_Whereptr == _Mylast) { // at back, provide strong guarantee

  000a1	8b 5d 08	 mov	 ebx, DWORD PTR __Whereptr$[ebp]
  000a4	89 4d fc	 mov	 DWORD PTR tv650[ebp], ecx
  000a7	8b 00		 mov	 eax, DWORD PTR [eax]
  000a9	89 01		 mov	 DWORD PTR [ecx], eax
  000ab	8b 46 04	 mov	 eax, DWORD PTR [esi+4]
  000ae	8b 0e		 mov	 ecx, DWORD PTR [esi]
  000b0	3b d8		 cmp	 ebx, eax
  000b2	75 07		 jne	 SHORT $LN3@Emplace_re

; 909  :         } else { // provide basic guarantee

  000b4	8b 5d fc	 mov	 ebx, DWORD PTR tv650[ebp]
; File C:\Program Files\Microsoft Visual Studio\2022\Professional\VC\Tools\MSVC\14.44.35207\include\xmemory

; 1992 :             _STD _Copy_memmove(_UFirst, _ULast, _STD _Unfancy(_Dest));

  000b7	8b d7		 mov	 edx, edi
; File C:\Program Files\Microsoft Visual Studio\2022\Professional\VC\Tools\MSVC\14.44.35207\include\vector

; 909  :         } else { // provide basic guarantee

  000b9	eb 16		 jmp	 SHORT $LN52@Emplace_re
$LN3@Emplace_re:
; File C:\Program Files\Microsoft Visual Studio\2022\Professional\VC\Tools\MSVC\14.44.35207\include\xmemory

; 1992 :             _STD _Copy_memmove(_UFirst, _ULast, _STD _Unfancy(_Dest));

  000bb	57		 push	 edi
  000bc	53		 push	 ebx
  000bd	51		 push	 ecx
  000be	e8 00 00 00 00	 call	 ??$_Copy_memmove@PAHPAH@std@@YAPAHPAH00@Z ; std::_Copy_memmove<int *,int *>
  000c3	8b 46 04	 mov	 eax, DWORD PTR [esi+4]
  000c6	8b cb		 mov	 ecx, ebx
; File C:\Program Files\Microsoft Visual Studio\2022\Professional\VC\Tools\MSVC\14.44.35207\include\vector

; 912  :             _STD _Uninitialized_move(_Whereptr, _Mylast, _Newvec + _Whereoff + 1, _Al);

  000c8	8b 5d fc	 mov	 ebx, DWORD PTR tv650[ebp]
; File C:\Program Files\Microsoft Visual Studio\2022\Professional\VC\Tools\MSVC\14.44.35207\include\xmemory

; 1992 :             _STD _Copy_memmove(_UFirst, _ULast, _STD _Unfancy(_Dest));

  000cb	83 c4 0c	 add	 esp, 12			; 0000000cH
; File C:\Program Files\Microsoft Visual Studio\2022\Professional\VC\Tools\MSVC\14.44.35207\include\vector

; 912  :             _STD _Uninitialized_move(_Whereptr, _Mylast, _Newvec + _Whereoff + 1, _Al);

  000ce	8d 53 04	 lea	 edx, DWORD PTR [ebx+4]
$LN52@Emplace_re:

; 913  :         }
; 914  : 
; 915  :         _Guard._New_begin = nullptr;

  000d1	52		 push	 edx
  000d2	50		 push	 eax
  000d3	51		 push	 ecx
  000d4	e8 00 00 00 00	 call	 ??$_Copy_memmove@PAHPAH@std@@YAPAHPAH00@Z ; std::_Copy_memmove<int *,int *>

; 2069 :         if (_Myfirst) { // destroy and deallocate old array

  000d9	8b 06		 mov	 eax, DWORD PTR [esi]

; 913  :         }
; 914  : 
; 915  :         _Guard._New_begin = nullptr;

  000db	83 c4 0c	 add	 esp, 12			; 0000000cH

; 2069 :         if (_Myfirst) { // destroy and deallocate old array

  000de	85 c0		 test	 eax, eax
  000e0	74 2c		 je	 SHORT $LN72@Emplace_re

; 2070 :             _STD _Destroy_range(_Myfirst, _Mylast, _Al);
; 2071 :             _ASAN_VECTOR_REMOVE;
; 2072 :             _Al.deallocate(_Myfirst, static_cast<size_type>(_Myend - _Myfirst));

  000e2	8b 4e 08	 mov	 ecx, DWORD PTR [esi+8]
  000e5	2b c8		 sub	 ecx, eax
; File C:\Program Files\Microsoft Visual Studio\2022\Professional\VC\Tools\MSVC\14.44.35207\include\xmemory

; 985  :         _STD _Deallocate<_New_alignof<_Ty>>(_Ptr, sizeof(_Ty) * _Count);

  000e7	83 e1 fc	 and	 ecx, -4			; fffffffcH

; 284  :         if (_Bytes >= _Big_allocation_threshold) {

  000ea	81 f9 00 10 00
	00		 cmp	 ecx, 4096		; 00001000H
  000f0	72 12		 jb	 SHORT $LN77@Emplace_re

; 205  :     const uintptr_t _Ptr_container   = _Ptr_user[-1];

  000f2	8b 50 fc	 mov	 edx, DWORD PTR [eax-4]
  000f5	83 c1 23	 add	 ecx, 35			; 00000023H

; 206  : 
; 207  :     // If the following asserts, it likely means that we are performing
; 208  :     // an aligned delete on memory coming from an unaligned allocation.
; 209  :     _STL_ASSERT(_Ptr_user[-2] == _Big_allocation_sentinel, "invalid argument");
; 210  : 
; 211  :     // Extra paranoia on aligned allocation/deallocation; ensure _Ptr_container is
; 212  :     // in range [_Min_back_shift, _Non_user_size]
; 213  : #ifdef _DEBUG
; 214  :     constexpr uintptr_t _Min_back_shift = 2 * sizeof(void*);
; 215  : #else // ^^^ defined(_DEBUG) / !defined(_DEBUG) vvv
; 216  :     constexpr uintptr_t _Min_back_shift = sizeof(void*);
; 217  : #endif // ^^^ !defined(_DEBUG) ^^^
; 218  :     const uintptr_t _Back_shift = reinterpret_cast<uintptr_t>(_Ptr) - _Ptr_container;

  000f8	2b c2		 sub	 eax, edx

; 219  :     _STL_VERIFY(_Back_shift >= _Min_back_shift && _Back_shift <= _Non_user_size, "invalid argument");

  000fa	83 c0 fc	 add	 eax, -4			; fffffffcH
  000fd	83 f8 1f	 cmp	 eax, 31			; 0000001fH
  00100	77 2a		 ja	 SHORT $LN76@Emplace_re

; 220  :     _Ptr = reinterpret_cast<void*>(_Ptr_container);

  00102	8b c2		 mov	 eax, edx
$LN77@Emplace_re:

; 289  :         ::operator delete(_Ptr, _Bytes);

  00104	51		 push	 ecx
  00105	50		 push	 eax
  00106	e8 00 00 00 00	 call	 ??3@YAXPAXI@Z		; operator delete
  0010b	83 c4 08	 add	 esp, 8
$LN72@Emplace_re:
; File C:\Program Files\Microsoft Visual Studio\2022\Professional\VC\Tools\MSVC\14.44.35207\include\vector

; 2076 :         _Mylast  = _Newvec + _Newsize;

  0010e	8b 45 f4	 mov	 eax, DWORD PTR __Newsize$1$[ebp]
  00111	89 3e		 mov	 DWORD PTR [esi], edi
  00113	8d 0c 87	 lea	 ecx, DWORD PTR [edi+eax*4]

; 916  :         _Change_array(_Newvec, _Newsize, _Newcapacity);
; 917  :         return _Newvec + _Whereoff;

  00116	8b c3		 mov	 eax, ebx

; 2076 :         _Mylast  = _Newvec + _Newsize;

  00118	89 4e 04	 mov	 DWORD PTR [esi+4], ecx

; 2077 :         _Myend   = _Newvec + _Newcapacity;

  0011b	8b 4d f8	 mov	 ecx, DWORD PTR tv652[ebp]
  0011e	03 cf		 add	 ecx, edi

; 918  :     }

  00120	5f		 pop	 edi

; 2077 :         _Myend   = _Newvec + _Newcapacity;

  00121	89 4e 08	 mov	 DWORD PTR [esi+8], ecx

; 918  :     }

  00124	5e		 pop	 esi
  00125	5b		 pop	 ebx
  00126	8b e5		 mov	 esp, ebp
  00128	5d		 pop	 ebp
  00129	c2 08 00	 ret	 8
$LN76@Emplace_re:
; File C:\Program Files\Microsoft Visual Studio\2022\Professional\VC\Tools\MSVC\14.44.35207\include\xmemory

; 219  :     _STL_VERIFY(_Back_shift >= _Min_back_shift && _Back_shift <= _Non_user_size, "invalid argument");

  0012c	6a 00		 push	 0
  0012e	6a 00		 push	 0
  00130	6a 00		 push	 0
  00132	6a 00		 push	 0
  00134	6a 00		 push	 0
  00136	e8 00 00 00 00	 call	 __invoke_watson
$LN111@Emplace_re:
; File C:\Program Files\Microsoft Visual Studio\2022\Professional\VC\Tools\MSVC\14.44.35207\include\vector

; 888  :             _Xlength();

  0013b	e8 00 00 00 00	 call	 ?_Xlength@?$vector@HV?$allocator@H@std@@@std@@CAXXZ ; std::vector<int,std::allocator<int> >::_Xlength
$LN112@Emplace_re:
; File C:\Program Files\Microsoft Visual Studio\2022\Professional\VC\Tools\MSVC\14.44.35207\include\xmemory

; 118  :             _Throw_bad_array_new_length(); // multiply overflow

  00140	e8 00 00 00 00	 call	 ?_Throw_bad_array_new_length@std@@YAXXZ ; std::_Throw_bad_array_new_length
$LN108@Emplace_re:
  00145	cc		 int	 3
??$_Emplace_reallocate@ABH@?$vector@HV?$allocator@H@std@@@std@@AAEPAHQAHABH@Z ENDP ; std::vector<int,std::allocator<int> >::_Emplace_reallocate<int const &>
_TEXT	ENDS
; Function compile flags: /Ogtp
; File C:\Program Files\Microsoft Visual Studio\2022\Professional\VC\Tools\MSVC\14.44.35207\include\vector
;	COMDAT ?_Xlength@?$vector@HV?$allocator@H@std@@@std@@CAXXZ
_TEXT	SEGMENT
?_Xlength@?$vector@HV?$allocator@H@std@@@std@@CAXXZ PROC ; std::vector<int,std::allocator<int> >::_Xlength, COMDAT

; 2184 :         _Xlength_error("vector too long");

  00000	68 00 00 00 00	 push	 OFFSET ??_C@_0BA@FOIKENOD@vector?5too?5long@
  00005	e8 00 00 00 00	 call	 ?_Xlength_error@std@@YAXPBD@Z ; std::_Xlength_error
$LN3@Xlength:
  0000a	cc		 int	 3
?_Xlength@?$vector@HV?$allocator@H@std@@@std@@CAXXZ ENDP ; std::vector<int,std::allocator<int> >::_Xlength
_TEXT	ENDS
; Function compile flags: /Ogtp
; File C:\Program Files\Microsoft Visual Studio\2022\Professional\VC\Tools\MSVC\14.44.35207\include\vector
; File C:\Program Files\Microsoft Visual Studio\2022\Professional\VC\Tools\MSVC\14.44.35207\include\xmemory
; File C:\Program Files\Microsoft Visual Studio\2022\Professional\VC\Tools\MSVC\14.44.35207\include\vector
; File C:\Program Files\Microsoft Visual Studio\2022\Professional\VC\Tools\MSVC\14.44.35207\include\xmemory
; File C:\Program Files\Microsoft Visual Studio\2022\Professional\VC\Tools\MSVC\14.44.35207\include\vector
; File C:\Program Files\Microsoft Visual Studio\2022\Professional\VC\Tools\MSVC\14.44.35207\include\xmemory
; File C:\Program Files\Microsoft Visual Studio\2022\Professional\VC\Tools\MSVC\14.44.35207\include\vector
;	COMDAT ??1?$vector@HV?$allocator@H@std@@@std@@QAE@XZ
_TEXT	SEGMENT
??1?$vector@HV?$allocator@H@std@@@std@@QAE@XZ PROC	; std::vector<int,std::allocator<int> >::~vector<int,std::allocator<int> >, COMDAT
; _this$ = ecx

; 829  :     _CONSTEXPR20 ~vector() noexcept {

  00000	56		 push	 esi
  00001	8b f1		 mov	 esi, ecx

; 2090 :         if (_Myfirst) { // destroy and deallocate old array

  00003	8b 06		 mov	 eax, DWORD PTR [esi]
  00005	85 c0		 test	 eax, eax
  00007	74 40		 je	 SHORT $LN5@vector

; 2091 :             _STD _Destroy_range(_Myfirst, _Mylast, _Al);
; 2092 :             _ASAN_VECTOR_REMOVE;
; 2093 :             _Al.deallocate(_Myfirst, static_cast<size_type>(_Myend - _Myfirst));

  00009	8b 4e 08	 mov	 ecx, DWORD PTR [esi+8]
  0000c	2b c8		 sub	 ecx, eax
; File C:\Program Files\Microsoft Visual Studio\2022\Professional\VC\Tools\MSVC\14.44.35207\include\xmemory

; 985  :         _STD _Deallocate<_New_alignof<_Ty>>(_Ptr, sizeof(_Ty) * _Count);

  0000e	83 e1 fc	 and	 ecx, -4			; fffffffcH

; 284  :         if (_Bytes >= _Big_allocation_threshold) {

  00011	81 f9 00 10 00
	00		 cmp	 ecx, 4096		; 00001000H
  00017	72 12		 jb	 SHORT $LN18@vector

; 205  :     const uintptr_t _Ptr_container   = _Ptr_user[-1];

  00019	8b 50 fc	 mov	 edx, DWORD PTR [eax-4]
  0001c	83 c1 23	 add	 ecx, 35			; 00000023H

; 206  : 
; 207  :     // If the following asserts, it likely means that we are performing
; 208  :     // an aligned delete on memory coming from an unaligned allocation.
; 209  :     _STL_ASSERT(_Ptr_user[-2] == _Big_allocation_sentinel, "invalid argument");
; 210  : 
; 211  :     // Extra paranoia on aligned allocation/deallocation; ensure _Ptr_container is
; 212  :     // in range [_Min_back_shift, _Non_user_size]
; 213  : #ifdef _DEBUG
; 214  :     constexpr uintptr_t _Min_back_shift = 2 * sizeof(void*);
; 215  : #else // ^^^ defined(_DEBUG) / !defined(_DEBUG) vvv
; 216  :     constexpr uintptr_t _Min_back_shift = sizeof(void*);
; 217  : #endif // ^^^ !defined(_DEBUG) ^^^
; 218  :     const uintptr_t _Back_shift = reinterpret_cast<uintptr_t>(_Ptr) - _Ptr_container;

  0001f	2b c2		 sub	 eax, edx

; 219  :     _STL_VERIFY(_Back_shift >= _Min_back_shift && _Back_shift <= _Non_user_size, "invalid argument");

  00021	83 c0 fc	 add	 eax, -4			; fffffffcH
  00024	83 f8 1f	 cmp	 eax, 31			; 0000001fH
  00027	77 22		 ja	 SHORT $LN17@vector

; 220  :     _Ptr = reinterpret_cast<void*>(_Ptr_container);

  00029	8b c2		 mov	 eax, edx
$LN18@vector:

; 289  :         ::operator delete(_Ptr, _Bytes);

  0002b	51		 push	 ecx
  0002c	50		 push	 eax
  0002d	e8 00 00 00 00	 call	 ??3@YAXPAXI@Z		; operator delete
; File C:\Program Files\Microsoft Visual Studio\2022\Professional\VC\Tools\MSVC\14.44.35207\include\vector

; 2095 :             _Myfirst = nullptr;

  00032	c7 06 00 00 00
	00		 mov	 DWORD PTR [esi], 0
; File C:\Program Files\Microsoft Visual Studio\2022\Professional\VC\Tools\MSVC\14.44.35207\include\xmemory

; 289  :         ::operator delete(_Ptr, _Bytes);

  00038	83 c4 08	 add	 esp, 8
; File C:\Program Files\Microsoft Visual Studio\2022\Professional\VC\Tools\MSVC\14.44.35207\include\vector

; 2096 :             _Mylast  = nullptr;

  0003b	c7 46 04 00 00
	00 00		 mov	 DWORD PTR [esi+4], 0

; 2097 :             _Myend   = nullptr;

  00042	c7 46 08 00 00
	00 00		 mov	 DWORD PTR [esi+8], 0
$LN5@vector:
  00049	5e		 pop	 esi

; 835  :     }

  0004a	c3		 ret	 0
$LN17@vector:
; File C:\Program Files\Microsoft Visual Studio\2022\Professional\VC\Tools\MSVC\14.44.35207\include\xmemory

; 219  :     _STL_VERIFY(_Back_shift >= _Min_back_shift && _Back_shift <= _Non_user_size, "invalid argument");

  0004b	6a 00		 push	 0
  0004d	6a 00		 push	 0
  0004f	6a 00		 push	 0
  00051	6a 00		 push	 0
  00053	6a 00		 push	 0
  00055	e8 00 00 00 00	 call	 __invoke_watson
$LN26@vector:
  0005a	cc		 int	 3
??1?$vector@HV?$allocator@H@std@@@std@@QAE@XZ ENDP	; std::vector<int,std::allocator<int> >::~vector<int,std::allocator<int> >
_TEXT	ENDS
; Function compile flags: /Ogtp
; File C:\Program Files\Microsoft Visual Studio\2022\Professional\VC\Tools\MSVC\14.44.35207\include\vector
;	COMDAT ??0?$vector@HV?$allocator@H@std@@@std@@QAE@XZ
_TEXT	SEGMENT
??0?$vector@HV?$allocator@H@std@@@std@@QAE@XZ PROC	; std::vector<int,std::allocator<int> >::vector<int,std::allocator<int> >, COMDAT
; _this$ = ecx

; 400  :     _CONSTEXPR20 _Vector_val() noexcept : _Myfirst(), _Mylast(), _Myend() {}

  00000	c7 01 00 00 00
	00		 mov	 DWORD PTR [ecx], 0

; 671  :         _Mypair._Myval2._Alloc_proxy(_GET_PROXY_ALLOCATOR(_Alty, _Getal()));
; 672  :     }

  00006	8b c1		 mov	 eax, ecx

; 400  :     _CONSTEXPR20 _Vector_val() noexcept : _Myfirst(), _Mylast(), _Myend() {}

  00008	c7 41 04 00 00
	00 00		 mov	 DWORD PTR [ecx+4], 0
  0000f	c7 41 08 00 00
	00 00		 mov	 DWORD PTR [ecx+8], 0

; 671  :         _Mypair._Myval2._Alloc_proxy(_GET_PROXY_ALLOCATOR(_Alty, _Getal()));
; 672  :     }

  00016	c3		 ret	 0
??0?$vector@HV?$allocator@H@std@@@std@@QAE@XZ ENDP	; std::vector<int,std::allocator<int> >::vector<int,std::allocator<int> >
_TEXT	ENDS
; Function compile flags: /Ogtp
; File C:\Program Files\Microsoft Visual Studio\2022\Professional\VC\Tools\MSVC\14.44.35207\include\xmemory
;	COMDAT ??$_Allocate_manually_vector_aligned@U_Default_allocate_traits@std@@@std@@YAPAXI@Z
_TEXT	SEGMENT
__Bytes$ = 8						; size = 4
??$_Allocate_manually_vector_aligned@U_Default_allocate_traits@std@@@std@@YAPAXI@Z PROC ; std::_Allocate_manually_vector_aligned<std::_Default_allocate_traits>, COMDAT

; 182  : __declspec(allocator) void* _Allocate_manually_vector_aligned(const size_t _Bytes) {

  00000	55		 push	 ebp
  00001	8b ec		 mov	 ebp, esp

; 183  :     // allocate _Bytes manually aligned to at least _Big_allocation_alignment
; 184  :     const size_t _Block_size = _Non_user_size + _Bytes;

  00003	8b 45 08	 mov	 eax, DWORD PTR __Bytes$[ebp]
  00006	8d 48 23	 lea	 ecx, DWORD PTR [eax+35]

; 185  :     if (_Block_size <= _Bytes) {

  00009	3b c8		 cmp	 ecx, eax
  0000b	0f 86 00 00 00
	00		 jbe	 ?_Throw_bad_array_new_length@std@@YAXXZ ; std::_Throw_bad_array_new_length

; 136  :         return ::operator new(_Bytes);

  00011	51		 push	 ecx
  00012	e8 00 00 00 00	 call	 ??2@YAPAXI@Z		; operator new

; 186  :         _Throw_bad_array_new_length(); // add overflow
; 187  :     }
; 188  : 
; 189  :     const uintptr_t _Ptr_container = reinterpret_cast<uintptr_t>(_Traits::_Allocate(_Block_size));

  00017	8b c8		 mov	 ecx, eax

; 136  :         return ::operator new(_Bytes);

  00019	83 c4 04	 add	 esp, 4

; 190  :     _STL_VERIFY(_Ptr_container != 0, "invalid argument"); // validate even in release since we're doing p[-1]

  0001c	85 c9		 test	 ecx, ecx
  0001e	74 0b		 je	 SHORT $LN9@Allocate_m

; 191  :     void* const _Ptr = reinterpret_cast<void*>((_Ptr_container + _Non_user_size) & ~(_Big_allocation_alignment - 1));

  00020	8d 41 23	 lea	 eax, DWORD PTR [ecx+35]
  00023	83 e0 e0	 and	 eax, -32		; ffffffe0H

; 192  :     static_cast<uintptr_t*>(_Ptr)[-1] = _Ptr_container;

  00026	89 48 fc	 mov	 DWORD PTR [eax-4], ecx

; 193  : 
; 194  : #ifdef _DEBUG
; 195  :     static_cast<uintptr_t*>(_Ptr)[-2] = _Big_allocation_sentinel;
; 196  : #endif // defined(_DEBUG)
; 197  :     return _Ptr;
; 198  : }

  00029	5d		 pop	 ebp
  0002a	c3		 ret	 0
$LN9@Allocate_m:

; 190  :     _STL_VERIFY(_Ptr_container != 0, "invalid argument"); // validate even in release since we're doing p[-1]

  0002b	6a 00		 push	 0
  0002d	6a 00		 push	 0
  0002f	6a 00		 push	 0
  00031	6a 00		 push	 0
  00033	6a 00		 push	 0
  00035	e8 00 00 00 00	 call	 __invoke_watson
$LN7@Allocate_m:
  0003a	cc		 int	 3
??$_Allocate_manually_vector_aligned@U_Default_allocate_traits@std@@@std@@YAPAXI@Z ENDP ; std::_Allocate_manually_vector_aligned<std::_Default_allocate_traits>
_TEXT	ENDS
; Function compile flags: /Ogtp
; File C:\Program Files\Microsoft Visual Studio\2022\Professional\VC\Tools\MSVC\14.44.35207\include\xutility
;	COMDAT ??$_Copy_memmove_tail@PAJ@std@@YAPAJQBDQAJII@Z
_TEXT	SEGMENT
__First_ch$ = 8						; size = 4
__Dest$ = 12						; size = 4
__Byte_count$ = 16					; size = 4
__Object_count$ = 20					; size = 4
??$_Copy_memmove_tail@PAJ@std@@YAPAJQBDQAJII@Z PROC	; std::_Copy_memmove_tail<long *>, COMDAT

; 4747 :     const char* const _First_ch, const _OutCtgIt _Dest, const size_t _Byte_count, const size_t _Object_count) {

  00000	55		 push	 ebp
  00001	8b ec		 mov	 ebp, esp
  00003	56		 push	 esi

; 4748 :     _STL_INTERNAL_CHECK(_Byte_count == _Object_count * sizeof(*_Dest));
; 4749 :     const auto _Dest_ptr = _STD _To_address(_Dest);
; 4750 :     const auto _Dest_ch  = const_cast<char*>(reinterpret_cast<const volatile char*>(_Dest_ptr));
; 4751 :     _CSTD memmove(_Dest_ch, _First_ch, _Byte_count);

  00004	8b 75 0c	 mov	 esi, DWORD PTR __Dest$[ebp]
  00007	57		 push	 edi
  00008	8b 7d 10	 mov	 edi, DWORD PTR __Byte_count$[ebp]
  0000b	57		 push	 edi
  0000c	ff 75 08	 push	 DWORD PTR __First_ch$[ebp]
  0000f	56		 push	 esi
  00010	e8 00 00 00 00	 call	 _memmove
  00015	83 c4 0c	 add	 esp, 12			; 0000000cH

; 4752 :     if constexpr (is_pointer_v<_OutCtgIt>) {
; 4753 :         (void) _Object_count;
; 4754 :         // CodeQL [SM02986] This cast is correct: we're bypassing pointer arithmetic for performance.
; 4755 :         return reinterpret_cast<_OutCtgIt>(_Dest_ch + _Byte_count);

  00018	8d 04 3e	 lea	 eax, DWORD PTR [esi+edi]
  0001b	5f		 pop	 edi
  0001c	5e		 pop	 esi

; 4756 :     } else {
; 4757 :         return _Dest + static_cast<_Iter_diff_t<_OutCtgIt>>(_Object_count);
; 4758 :     }
; 4759 : }

  0001d	5d		 pop	 ebp
  0001e	c3		 ret	 0
??$_Copy_memmove_tail@PAJ@std@@YAPAJQBDQAJII@Z ENDP	; std::_Copy_memmove_tail<long *>
_TEXT	ENDS
; Function compile flags: /Ogtp
; File C:\Program Files\Microsoft Visual Studio\2022\Professional\VC\Tools\MSVC\14.44.35207\include\xutility
;	COMDAT ??$_Copy_memmove@PAJPAJ@std@@YAPAJPAJ00@Z
_TEXT	SEGMENT
__First$ = 8						; size = 4
__Last$ = 12						; size = 4
__Dest$ = 16						; size = 4
??$_Copy_memmove@PAJPAJ@std@@YAPAJPAJ00@Z PROC		; std::_Copy_memmove<long *,long *>, COMDAT

; 4762 : _OutCtgIt _Copy_memmove(_CtgIt _First, _CtgIt _Last, _OutCtgIt _Dest) {

  00000	55		 push	 ebp
  00001	8b ec		 mov	 ebp, esp

; 4763 :     _STL_INTERNAL_CHECK(_First <= _Last);
; 4764 :     const auto _First_ptr    = _STD _To_address(_First);
; 4765 :     const auto _Last_ptr     = _STD _To_address(_Last);
; 4766 :     const auto _Object_count = static_cast<size_t>(_Last_ptr - _First_ptr);

  00003	8b 55 08	 mov	 edx, DWORD PTR __First$[ebp]
  00006	8b 4d 0c	 mov	 ecx, DWORD PTR __Last$[ebp]
  00009	2b ca		 sub	 ecx, edx
  0000b	8b c1		 mov	 eax, ecx
  0000d	c1 f8 02	 sar	 eax, 2

; 4767 :     const auto _First_ch     = const_cast<const char*>(reinterpret_cast<const volatile char*>(_First_ptr));
; 4768 :     const auto _Last_ch      = const_cast<const char*>(reinterpret_cast<const volatile char*>(_Last_ptr));
; 4769 :     const auto _Byte_count   = static_cast<size_t>(_Last_ch - _First_ch);
; 4770 :     return _STD _Copy_memmove_tail(_First_ch, _STD move(_Dest), _Byte_count, _Object_count);

  00010	50		 push	 eax
  00011	51		 push	 ecx
  00012	ff 75 10	 push	 DWORD PTR __Dest$[ebp]
  00015	52		 push	 edx
  00016	e8 00 00 00 00	 call	 ??$_Copy_memmove_tail@PAJ@std@@YAPAJQBDQAJII@Z ; std::_Copy_memmove_tail<long *>
  0001b	83 c4 10	 add	 esp, 16			; 00000010H

; 4771 : }

  0001e	5d		 pop	 ebp
  0001f	c3		 ret	 0
??$_Copy_memmove@PAJPAJ@std@@YAPAJPAJ00@Z ENDP		; std::_Copy_memmove<long *,long *>
_TEXT	ENDS
; Function compile flags: /Ogtp
; File C:\Program Files\Microsoft Visual Studio\2022\Professional\VC\Tools\MSVC\14.44.35207\include\xstring
; File C:\Program Files\Microsoft Visual Studio\2022\Professional\VC\Tools\MSVC\14.44.35207\include\__msvc_string_view.hpp
; File C:\Program Files\Microsoft Visual Studio\2022\Professional\VC\Tools\MSVC\14.44.35207\include\xstring
; File C:\Program Files\Microsoft Visual Studio\2022\Professional\VC\Tools\MSVC\14.44.35207\include\__msvc_string_view.hpp
; File C:\Program Files\Microsoft Visual Studio\2022\Professional\VC\Tools\MSVC\14.44.35207\include\xstring
; File C:\Program Files\Microsoft Visual Studio\2022\Professional\VC\Tools\MSVC\14.44.35207\include\__msvc_string_view.hpp
; File C:\Program Files\Microsoft Visual Studio\2022\Professional\VC\Tools\MSVC\14.44.35207\include\xstring
;	COMDAT ??$?MDU?$char_traits@D@std@@V?$allocator@D@1@@std@@YA_NABV?$basic_string@DU?$char_traits@D@std@@V?$allocator@D@2@@0@0@Z
_TEXT	SEGMENT
__Left$ = 8						; size = 4
__Right$ = 12						; size = 4
??$?MDU?$char_traits@D@std@@V?$allocator@D@1@@std@@YA_NABV?$basic_string@DU?$char_traits@D@std@@V?$allocator@D@2@@0@0@Z PROC ; std::operator<<char,std::char_traits<char>,std::allocator<char> >, COMDAT

; 3307 :     const basic_string<_Elem, _Traits, _Alloc>& _Left, const basic_string<_Elem, _Traits, _Alloc>& _Right) noexcept {

  00000	55		 push	 ebp
  00001	8b ec		 mov	 ebp, esp

; 444  :         const value_type* _Result = _Bx._Buf;

  00003	8b 45 0c	 mov	 eax, DWORD PTR __Right$[ebp]
  00006	8b c8		 mov	 ecx, eax

; 453  :         return _Myres > _Small_string_capacity;

  00008	83 78 14 0f	 cmp	 DWORD PTR [eax+20], 15	; 0000000fH

; 445  :         if (_Large_mode_engaged()) {

  0000c	76 02		 jbe	 SHORT $LN8@operator

; 446  :             _Result = _Unfancy(_Bx._Ptr);

  0000e	8b 08		 mov	 ecx, DWORD PTR [eax]
$LN8@operator:
  00010	53		 push	 ebx
  00011	56		 push	 esi

; 444  :         const value_type* _Result = _Bx._Buf;

  00012	8b 75 08	 mov	 esi, DWORD PTR __Left$[ebp]
  00015	8b d6		 mov	 edx, esi
  00017	57		 push	 edi

; 453  :         return _Myres > _Small_string_capacity;

  00018	83 7e 14 0f	 cmp	 DWORD PTR [esi+20], 15	; 0000000fH

; 445  :         if (_Large_mode_engaged()) {

  0001c	76 02		 jbe	 SHORT $LN15@operator

; 446  :             _Result = _Unfancy(_Bx._Ptr);

  0001e	8b 16		 mov	 edx, DWORD PTR [esi]
$LN15@operator:

; 2890 :         return _Traits_compare<_Traits>(_Mypair._Myval2._Myptr(), _Mypair._Myval2._Mysize,

  00020	8b 5e 10	 mov	 ebx, DWORD PTR [esi+16]
  00023	8b f3		 mov	 esi, ebx
  00025	8b 78 10	 mov	 edi, DWORD PTR [eax+16]
  00028	3b fb		 cmp	 edi, ebx
  0002a	0f 42 f7	 cmovb	 esi, edi
; File C:\Program Files\Microsoft Visual Studio\2022\Professional\VC\Tools\MSVC\14.44.35207\include\__msvc_string_view.hpp

; 439  :         return _CSTD memcmp(_First1, _First2, _Count);

  0002d	83 ee 04	 sub	 esi, 4
  00030	72 11		 jb	 SHORT $LN35@operator
$LL36@operator:
  00032	8b 02		 mov	 eax, DWORD PTR [edx]
  00034	3b 01		 cmp	 eax, DWORD PTR [ecx]
  00036	75 10		 jne	 SHORT $LN34@operator
  00038	83 c2 04	 add	 edx, 4
  0003b	83 c1 04	 add	 ecx, 4
  0003e	83 ee 04	 sub	 esi, 4
  00041	73 ef		 jae	 SHORT $LL36@operator
$LN35@operator:
  00043	83 fe fc	 cmp	 esi, -4			; fffffffcH
  00046	74 34		 je	 SHORT $LN33@operator
$LN34@operator:
  00048	8a 02		 mov	 al, BYTE PTR [edx]
  0004a	3a 01		 cmp	 al, BYTE PTR [ecx]
  0004c	75 27		 jne	 SHORT $LN37@operator
  0004e	83 fe fd	 cmp	 esi, -3			; fffffffdH
  00051	74 29		 je	 SHORT $LN33@operator
  00053	8a 42 01	 mov	 al, BYTE PTR [edx+1]
  00056	3a 41 01	 cmp	 al, BYTE PTR [ecx+1]
  00059	75 1a		 jne	 SHORT $LN37@operator
  0005b	83 fe fe	 cmp	 esi, -2			; fffffffeH
  0005e	74 1c		 je	 SHORT $LN33@operator
  00060	8a 42 02	 mov	 al, BYTE PTR [edx+2]
  00063	3a 41 02	 cmp	 al, BYTE PTR [ecx+2]
  00066	75 0d		 jne	 SHORT $LN37@operator
  00068	83 fe ff	 cmp	 esi, -1
  0006b	74 0f		 je	 SHORT $LN33@operator
  0006d	8a 42 03	 mov	 al, BYTE PTR [edx+3]
  00070	3a 41 03	 cmp	 al, BYTE PTR [ecx+3]
  00073	74 07		 je	 SHORT $LN33@operator
$LN37@operator:
  00075	1b c0		 sbb	 eax, eax
  00077	83 c8 01	 or	 eax, 1
  0007a	eb 02		 jmp	 SHORT $LN38@operator
$LN33@operator:
  0007c	33 c0		 xor	 eax, eax
$LN38@operator:

; 621  :     if (_Ans != 0) {

  0007e	85 c0		 test	 eax, eax
  00080	75 13		 jne	 SHORT $LN24@operator

; 622  :         return _Ans;
; 623  :     }
; 624  : 
; 625  :     if (_Left_size < _Right_size) {

  00082	3b fb		 cmp	 edi, ebx
  00084	76 0b		 jbe	 SHORT $LN51@operator
; File C:\Program Files\Microsoft Visual Studio\2022\Professional\VC\Tools\MSVC\14.44.35207\include\xstring

; 3308 :     return _Left.compare(_Right) < 0;

  00086	5f		 pop	 edi
; File C:\Program Files\Microsoft Visual Studio\2022\Professional\VC\Tools\MSVC\14.44.35207\include\__msvc_string_view.hpp

; 626  :         return -1;

  00087	83 c8 ff	 or	 eax, -1
; File C:\Program Files\Microsoft Visual Studio\2022\Professional\VC\Tools\MSVC\14.44.35207\include\xstring

; 3308 :     return _Left.compare(_Right) < 0;

  0008a	5e		 pop	 esi
  0008b	c1 e8 1f	 shr	 eax, 31			; 0000001fH
  0008e	5b		 pop	 ebx

; 3309 : }

  0008f	5d		 pop	 ebp
  00090	c3		 ret	 0
$LN51@operator:
; File C:\Program Files\Microsoft Visual Studio\2022\Professional\VC\Tools\MSVC\14.44.35207\include\__msvc_string_view.hpp

; 629  :     if (_Left_size > _Right_size) {

  00091	1b c0		 sbb	 eax, eax
  00093	f7 d8		 neg	 eax
$LN24@operator:
; File C:\Program Files\Microsoft Visual Studio\2022\Professional\VC\Tools\MSVC\14.44.35207\include\xstring

; 3308 :     return _Left.compare(_Right) < 0;

  00095	5f		 pop	 edi
  00096	5e		 pop	 esi
  00097	c1 e8 1f	 shr	 eax, 31			; 0000001fH
  0009a	5b		 pop	 ebx

; 3309 : }

  0009b	5d		 pop	 ebp
  0009c	c3		 ret	 0
??$?MDU?$char_traits@D@std@@V?$allocator@D@1@@std@@YA_NABV?$basic_string@DU?$char_traits@D@std@@V?$allocator@D@2@@0@0@Z ENDP ; std::operator<<char,std::char_traits<char>,std::allocator<char> >
_TEXT	ENDS
; Function compile flags: /Ogtp
; File C:\Program Files\Microsoft Visual Studio\2022\Professional\VC\Tools\MSVC\14.44.35207\include\xutility
;	COMDAT ??$_Fill_zero_memset@PAJ@std@@YAXPAJI@Z
_TEXT	SEGMENT
__Dest$ = 8						; size = 4
__Count$ = 12						; size = 4
??$_Fill_zero_memset@PAJ@std@@YAXPAJI@Z PROC		; std::_Fill_zero_memset<long *>, COMDAT

; 5269 : void _Fill_zero_memset(_CtgIt _Dest, const size_t _Count) {

  00000	55		 push	 ebp
  00001	8b ec		 mov	 ebp, esp

; 5270 :     _CSTD memset(_STD _To_address(_Dest), 0, _Count * sizeof(_Iter_value_t<_CtgIt>));

  00003	8b 45 0c	 mov	 eax, DWORD PTR __Count$[ebp]
  00006	c1 e0 02	 shl	 eax, 2
  00009	50		 push	 eax
  0000a	6a 00		 push	 0
  0000c	ff 75 08	 push	 DWORD PTR __Dest$[ebp]
  0000f	e8 00 00 00 00	 call	 _memset
  00014	83 c4 0c	 add	 esp, 12			; 0000000cH

; 5271 : }

  00017	5d		 pop	 ebp
  00018	c3		 ret	 0
??$_Fill_zero_memset@PAJ@std@@YAXPAJI@Z ENDP		; std::_Fill_zero_memset<long *>
_TEXT	ENDS
; Function compile flags: /Ogtp
; File C:\Program Files\Microsoft Visual Studio\2022\Professional\VC\Tools\MSVC\14.44.35207\include\xutility
;	COMDAT ??$_Is_all_bits_zero@J@std@@YA_NABJ@Z
_TEXT	SEGMENT
__Zero$1 = -4						; size = 4
__Val$ = 8						; size = 4
??$_Is_all_bits_zero@J@std@@YA_NABJ@Z PROC		; std::_Is_all_bits_zero<long>, COMDAT

; 5274 : _NODISCARD bool _Is_all_bits_zero(const _Ty& _Val) {

  00000	55		 push	 ebp
  00001	8b ec		 mov	 ebp, esp
  00003	51		 push	 ecx

; 5275 :     // checks if scalar type has all bits set to zero
; 5276 :     _STL_INTERNAL_STATIC_ASSERT(is_scalar_v<_Ty> && !is_member_pointer_v<_Ty>);
; 5277 :     if constexpr (is_same_v<_Ty, nullptr_t>) {
; 5278 :         return true;
; 5279 :     } else {
; 5280 :         constexpr _Ty _Zero{};
; 5281 :         return _CSTD memcmp(&_Val, &_Zero, sizeof(_Ty)) == 0;

  00004	8b 45 08	 mov	 eax, DWORD PTR __Val$[ebp]
  00007	8d 4d fc	 lea	 ecx, DWORD PTR __Zero$1[ebp]
  0000a	c7 45 fc 00 00
	00 00		 mov	 DWORD PTR __Zero$1[ebp], 0
  00011	8b 00		 mov	 eax, DWORD PTR [eax]
  00013	3b 01		 cmp	 eax, DWORD PTR [ecx]
  00015	0f 94 c0	 sete	 al

; 5282 :     }
; 5283 : }

  00018	8b e5		 mov	 esp, ebp
  0001a	5d		 pop	 ebp
  0001b	c3		 ret	 0
??$_Is_all_bits_zero@J@std@@YA_NABJ@Z ENDP		; std::_Is_all_bits_zero<long>
_TEXT	ENDS
; Function compile flags: /Ogtp
; File C:\Program Files\Microsoft Visual Studio\2022\Professional\VC\Tools\MSVC\14.44.35207\include\xmemory
;	COMDAT ??$_Uninitialized_fill_n@V?$allocator@J@std@@@std@@YAPAJPAJIABJAAV?$allocator@J@0@@Z
_TEXT	SEGMENT
__First$ = 8						; size = 4
__Count$ = 12						; size = 4
__Val$ = 16						; size = 4
__Al$ = 20						; size = 4
??$_Uninitialized_fill_n@V?$allocator@J@std@@@std@@YAPAJPAJIABJAAV?$allocator@J@0@@Z PROC ; std::_Uninitialized_fill_n<std::allocator<long> >, COMDAT

; 2007 :     _Alloc_ptr_t<_Alloc> _First, _Alloc_size_t<_Alloc> _Count, const typename _Alloc::value_type& _Val, _Alloc& _Al) {

  00000	55		 push	 ebp
  00001	8b ec		 mov	 ebp, esp
  00003	56		 push	 esi

; 2008 :     // copy _Count copies of _Val to raw _First, using _Al
; 2009 :     using _Ty = typename _Alloc::value_type;
; 2010 :     if constexpr (_Fill_memset_is_safe<_Ty*, _Ty> && _Uses_default_construct<_Alloc, _Ty*, _Ty>::value) {
; 2011 : #if _HAS_CXX20
; 2012 :         if (!_STD is_constant_evaluated())
; 2013 : #endif // _HAS_CXX20
; 2014 :         {
; 2015 :             _Fill_memset(_Unfancy(_First), _Val, static_cast<size_t>(_Count));
; 2016 :             return _First + _Count;
; 2017 :         }
; 2018 :     } else if constexpr (_Fill_zero_memset_is_safe<_Ty*, _Ty> && _Uses_default_construct<_Alloc, _Ty*, _Ty>::value) {
; 2019 : #if _HAS_CXX20
; 2020 :         if (!_STD is_constant_evaluated())
; 2021 : #endif // _HAS_CXX20
; 2022 :         {
; 2023 :             if (_Is_all_bits_zero(_Val)) {

  00004	8b 75 10	 mov	 esi, DWORD PTR __Val$[ebp]
  00007	56		 push	 esi
  00008	e8 00 00 00 00	 call	 ??$_Is_all_bits_zero@J@std@@YA_NABJ@Z ; std::_Is_all_bits_zero<long>
  0000d	83 c4 04	 add	 esp, 4
  00010	84 c0		 test	 al, al
  00012	74 18		 je	 SHORT $LN5@Uninitiali

; 2024 :                 _Fill_zero_memset(_Unfancy(_First), static_cast<size_t>(_Count));

  00014	8b 75 08	 mov	 esi, DWORD PTR __First$[ebp]
  00017	57		 push	 edi
  00018	8b 7d 0c	 mov	 edi, DWORD PTR __Count$[ebp]
  0001b	57		 push	 edi
  0001c	56		 push	 esi
  0001d	e8 00 00 00 00	 call	 ??$_Fill_zero_memset@PAJ@std@@YAXPAJI@Z ; std::_Fill_zero_memset<long *>
  00022	83 c4 08	 add	 esp, 8

; 2025 :                 return _First + _Count;

  00025	8d 04 be	 lea	 eax, DWORD PTR [esi+edi*4]
  00028	5f		 pop	 edi
  00029	5e		 pop	 esi

; 2032 :         _Backout._Emplace_back(_Val);
; 2033 :     }
; 2034 : 
; 2035 :     return _Backout._Release();
; 2036 : }

  0002a	5d		 pop	 ebp
  0002b	c3		 ret	 0
$LN5@Uninitiali:

; 2026 :             }
; 2027 :         }
; 2028 :     }
; 2029 : 
; 2030 :     _Uninitialized_backout_al<_Alloc> _Backout{_First, _Al};
; 2031 :     for (; 0 < _Count; --_Count) {

  0002c	8b 55 0c	 mov	 edx, DWORD PTR __Count$[ebp]

; 1833 :     _CONSTEXPR20 _Uninitialized_backout_al(pointer _Dest, _Alloc& _Al_) : _First(_Dest), _Last(_Dest), _Al(_Al_) {}

  0002f	8b 45 08	 mov	 eax, DWORD PTR __First$[ebp]

; 2026 :             }
; 2027 :         }
; 2028 :     }
; 2029 : 
; 2030 :     _Uninitialized_backout_al<_Alloc> _Backout{_First, _Al};
; 2031 :     for (; 0 < _Count; --_Count) {

  00032	85 d2		 test	 edx, edx
  00034	74 0c		 je	 SHORT $LN1@Uninitiali
$LL4@Uninitiali:

; 1844 :         allocator_traits<_Alloc>::construct(_Al, _STD _Unfancy(_Last), _STD forward<_Types>(_Vals)...);

  00036	8b 0e		 mov	 ecx, DWORD PTR [esi]
  00038	89 08		 mov	 DWORD PTR [eax], ecx

; 1845 :         ++_Last;

  0003a	83 c0 04	 add	 eax, 4

; 2026 :             }
; 2027 :         }
; 2028 :     }
; 2029 : 
; 2030 :     _Uninitialized_backout_al<_Alloc> _Backout{_First, _Al};
; 2031 :     for (; 0 < _Count; --_Count) {

  0003d	83 ea 01	 sub	 edx, 1
  00040	75 f4		 jne	 SHORT $LL4@Uninitiali
$LN1@Uninitiali:
  00042	5e		 pop	 esi

; 2032 :         _Backout._Emplace_back(_Val);
; 2033 :     }
; 2034 : 
; 2035 :     return _Backout._Release();
; 2036 : }

  00043	5d		 pop	 ebp
  00044	c3		 ret	 0
??$_Uninitialized_fill_n@V?$allocator@J@std@@@std@@YAPAJPAJIABJAAV?$allocator@J@0@@Z ENDP ; std::_Uninitialized_fill_n<std::allocator<long> >
_TEXT	ENDS
; Function compile flags: /Ogtp
; File C:\Program Files\Microsoft Visual Studio\2022\Professional\VC\Tools\MSVC\14.44.35207\include\xmemory
;	COMDAT ??1?$_Alloc_construct_ptr@V?$allocator@U?$_Tree_node@U?$pair@$$CBKPAVIBuff@@@std@@PAX@std@@@std@@@std@@QAE@XZ
_TEXT	SEGMENT
??1?$_Alloc_construct_ptr@V?$allocator@U?$_Tree_node@U?$pair@$$CBKPAVIBuff@@@std@@PAX@std@@@std@@@std@@QAE@XZ PROC ; std::_Alloc_construct_ptr<std::allocator<std::_Tree_node<std::pair<unsigned long const ,IBuff *>,void *> > >::~_Alloc_construct_ptr<std::allocator<std::_Tree_node<std::pair<unsigned long const ,IBuff *>,void *> > >, COMDAT
; _this$ = ecx

; 1172 :         if (_Ptr) {

  00000	8b 41 04	 mov	 eax, DWORD PTR [ecx+4]
  00003	85 c0		 test	 eax, eax
  00005	74 0b		 je	 SHORT $LN10@Alloc_cons

; 289  :         ::operator delete(_Ptr, _Bytes);

  00007	6a 18		 push	 24			; 00000018H
  00009	50		 push	 eax
  0000a	e8 00 00 00 00	 call	 ??3@YAXPAXI@Z		; operator delete
  0000f	83 c4 08	 add	 esp, 8
$LN10@Alloc_cons:

; 1173 :             _Al.deallocate(_Ptr, 1);
; 1174 :         }
; 1175 :     }

  00012	c3		 ret	 0
??1?$_Alloc_construct_ptr@V?$allocator@U?$_Tree_node@U?$pair@$$CBKPAVIBuff@@@std@@PAX@std@@@std@@@std@@QAE@XZ ENDP ; std::_Alloc_construct_ptr<std::allocator<std::_Tree_node<std::pair<unsigned long const ,IBuff *>,void *> > >::~_Alloc_construct_ptr<std::allocator<std::_Tree_node<std::pair<unsigned long const ,IBuff *>,void *> > >
_TEXT	ENDS
; Function compile flags: /Ogtp
; File C:\Program Files\Microsoft Visual Studio\2022\Professional\VC\Tools\MSVC\14.44.35207\include\vector
; File C:\Program Files\Microsoft Visual Studio\2022\Professional\VC\Tools\MSVC\14.44.35207\include\xmemory
; File C:\Program Files\Microsoft Visual Studio\2022\Professional\VC\Tools\MSVC\14.44.35207\include\vector
; File C:\Program Files\Microsoft Visual Studio\2022\Professional\VC\Tools\MSVC\14.44.35207\include\xmemory
; File C:\Program Files\Microsoft Visual Studio\2022\Professional\VC\Tools\MSVC\14.44.35207\include\vector
; File C:\Program Files\Microsoft Visual Studio\2022\Professional\VC\Tools\MSVC\14.44.35207\include\xmemory
; File C:\Program Files\Microsoft Visual Studio\2022\Professional\VC\Tools\MSVC\14.44.35207\include\vector
; File C:\Program Files\Microsoft Visual Studio\2022\Professional\VC\Tools\MSVC\14.44.35207\include\xmemory
; File C:\Program Files\Microsoft Visual Studio\2022\Professional\VC\Tools\MSVC\14.44.35207\include\vector
; File C:\Program Files\Microsoft Visual Studio\2022\Professional\VC\Tools\MSVC\14.44.35207\include\xmemory
; File C:\Program Files\Microsoft Visual Studio\2022\Professional\VC\Tools\MSVC\14.44.35207\include\vector
; File C:\Program Files\Microsoft Visual Studio\2022\Professional\VC\Tools\MSVC\14.44.35207\include\xmemory
; File C:\Program Files\Microsoft Visual Studio\2022\Professional\VC\Tools\MSVC\14.44.35207\include\vector
;	COMDAT ??$_Resize@J@?$vector@JV?$allocator@J@std@@@std@@AAEXIABJ@Z
_TEXT	SEGMENT
tv575 = -4						; size = 4
__Newsize$ = 8						; size = 4
$T2 = 8							; size = 4
__Val$ = 12						; size = 4
??$_Resize@J@?$vector@JV?$allocator@J@std@@@std@@AAEXIABJ@Z PROC ; std::vector<long,std::allocator<long> >::_Resize<long>, COMDAT
; _this$ = ecx

; 1589 :     _CONSTEXPR20 void _Resize(const size_type _Newsize, const _Ty2& _Val) {

  00000	55		 push	 ebp
  00001	8b ec		 mov	 ebp, esp
  00003	51		 push	 ecx
  00004	53		 push	 ebx
  00005	56		 push	 esi

; 1590 :         // trim or append elements, provide strong guarantee
; 1591 :         auto& _Al           = _Getal();
; 1592 :         auto& _My_data      = _Mypair._Myval2;
; 1593 :         pointer& _Myfirst   = _My_data._Myfirst;
; 1594 :         pointer& _Mylast    = _My_data._Mylast;
; 1595 :         const auto _Oldsize = static_cast<size_type>(_Mylast - _Myfirst);
; 1596 :         if (_Newsize < _Oldsize) { // trim

  00006	8b 75 08	 mov	 esi, DWORD PTR __Newsize$[ebp]
  00009	57		 push	 edi
  0000a	8b f9		 mov	 edi, ecx
  0000c	8b 57 04	 mov	 edx, DWORD PTR [edi+4]
  0000f	8b da		 mov	 ebx, edx
  00011	8b 07		 mov	 eax, DWORD PTR [edi]
  00013	2b d8		 sub	 ebx, eax
  00015	c1 fb 02	 sar	 ebx, 2
  00018	3b f3		 cmp	 esi, ebx
  0001a	73 0f		 jae	 SHORT $LN2@Resize

; 1597 :             const pointer _Newlast = _Myfirst + _Newsize;

  0001c	8d 04 b0	 lea	 eax, DWORD PTR [eax+esi*4]

; 1625 :     }

  0001f	89 47 04	 mov	 DWORD PTR [edi+4], eax
  00022	5f		 pop	 edi
  00023	5e		 pop	 esi
  00024	5b		 pop	 ebx
  00025	8b e5		 mov	 esp, ebp
  00027	5d		 pop	 ebp
  00028	c2 08 00	 ret	 8
$LN2@Resize:

; 1598 :             _Orphan_range(_Newlast, _Mylast);
; 1599 :             _Destroy_range(_Newlast, _Mylast, _Al);
; 1600 :             _ASAN_VECTOR_MODIFY(static_cast<difference_type>(_Newsize - _Oldsize));
; 1601 :             _Mylast = _Newlast;
; 1602 :             return;
; 1603 :         }
; 1604 : 
; 1605 :         if (_Newsize > _Oldsize) { // append

  0002b	0f 86 0e 01 00
	00		 jbe	 $LN3@Resize

; 1606 :             const auto _Oldcapacity = static_cast<size_type>(_My_data._Myend - _Myfirst);

  00031	8b 4f 08	 mov	 ecx, DWORD PTR [edi+8]
  00034	2b c8		 sub	 ecx, eax
  00036	c1 f9 02	 sar	 ecx, 2

; 1607 :             if (_Newsize > _Oldcapacity) { // reallocate

  00039	3b f1		 cmp	 esi, ecx
  0003b	0f 86 eb 00 00
	00		 jbe	 $LN4@Resize

; 1553 :         if (_Newsize > max_size()) {

  00041	81 fe ff ff ff
	3f		 cmp	 esi, 1073741823		; 3fffffffH
  00047	0f 87 fb 00 00
	00		 ja	 $LN97@Resize

; 2011 :         if (_Oldcapacity > _Max - _Oldcapacity / 2) {

  0004d	8b d1		 mov	 edx, ecx
  0004f	b8 ff ff ff 3f	 mov	 eax, 1073741823		; 3fffffffH
  00054	d1 ea		 shr	 edx, 1
  00056	2b c2		 sub	 eax, edx
  00058	3b c8		 cmp	 ecx, eax
  0005a	76 19		 jbe	 SHORT $LN11@Resize

; 2012 :             return _Max; // geometric growth would overflow

  0005c	b8 fc ff ff ff	 mov	 eax, -4			; fffffffcH
  00061	c7 45 fc fc ff
	ff ff		 mov	 DWORD PTR tv575[ebp], -4 ; fffffffcH
; File C:\Program Files\Microsoft Visual Studio\2022\Professional\VC\Tools\MSVC\14.44.35207\include\xmemory

; 253  :             return _Allocate_manually_vector_aligned<_Traits>(_Bytes);

  00068	50		 push	 eax
  00069	e8 00 00 00 00	 call	 ??$_Allocate_manually_vector_aligned@U_Default_allocate_traits@std@@@std@@YAPAXI@Z ; std::_Allocate_manually_vector_aligned<std::_Default_allocate_traits>
  0006e	8b c8		 mov	 ecx, eax
  00070	89 4d 08	 mov	 DWORD PTR $T2[ebp], ecx
  00073	eb 46		 jmp	 SHORT $LN95@Resize
$LN11@Resize:
; File C:\Program Files\Microsoft Visual Studio\2022\Professional\VC\Tools\MSVC\14.44.35207\include\vector

; 2015 :         const size_type _Geometric = _Oldcapacity + _Oldcapacity / 2;

  00075	8d 04 0a	 lea	 eax, DWORD PTR [edx+ecx]

; 2016 : 
; 2017 :         if (_Geometric < _Newsize) {

  00078	3b c6		 cmp	 eax, esi
  0007a	73 13		 jae	 SHORT $LN12@Resize

; 2018 :             return _Newsize; // geometric growth would be insufficient

  0007c	8b c6		 mov	 eax, esi
$LN22@Resize:
; File C:\Program Files\Microsoft Visual Studio\2022\Professional\VC\Tools\MSVC\14.44.35207\include\xmemory

; 122  :     return _Count * _Ty_size;

  0007e	c1 e0 02	 shl	 eax, 2
  00081	89 45 fc	 mov	 DWORD PTR tv575[ebp], eax

; 227  :     if (_Bytes == 0) {

  00084	85 c0		 test	 eax, eax
  00086	75 14		 jne	 SHORT $LN26@Resize

; 228  :         return nullptr;

  00088	33 c9		 xor	 ecx, ecx
  0008a	89 4d 08	 mov	 DWORD PTR $T2[ebp], ecx
  0008d	eb 2f		 jmp	 SHORT $LN25@Resize
$LN12@Resize:

; 117  :         if (_Count > _Max_possible) {

  0008f	3d ff ff ff 3f	 cmp	 eax, 1073741823		; 3fffffffH
  00094	0f 87 b3 00 00
	00		 ja	 $LN98@Resize
  0009a	eb e2		 jmp	 SHORT $LN22@Resize
$LN26@Resize:

; 251  :         if (_Bytes >= _Big_allocation_threshold) {

  0009c	3d 00 10 00 00	 cmp	 eax, 4096		; 00001000H
  000a1	72 0d		 jb	 SHORT $LN27@Resize

; 253  :             return _Allocate_manually_vector_aligned<_Traits>(_Bytes);

  000a3	50		 push	 eax
  000a4	e8 00 00 00 00	 call	 ??$_Allocate_manually_vector_aligned@U_Default_allocate_traits@std@@@std@@YAPAXI@Z ; std::_Allocate_manually_vector_aligned<std::_Default_allocate_traits>
  000a9	8b c8		 mov	 ecx, eax
  000ab	89 4d 08	 mov	 DWORD PTR $T2[ebp], ecx
  000ae	eb 0b		 jmp	 SHORT $LN95@Resize
$LN27@Resize:

; 136  :         return ::operator new(_Bytes);

  000b0	50		 push	 eax
  000b1	e8 00 00 00 00	 call	 ??2@YAPAXI@Z		; operator new

; 256  :         return _Traits::_Allocate(_Bytes);

  000b6	8b c8		 mov	 ecx, eax
  000b8	89 45 08	 mov	 DWORD PTR $T2[ebp], eax
$LN95@Resize:
; File C:\Program Files\Microsoft Visual Studio\2022\Professional\VC\Tools\MSVC\14.44.35207\include\vector

; 1572 :             _Appended_last = _Uninitialized_fill_n(_Appended_first, _Newsize - _Oldsize, _Val, _Al);

  000bb	83 c4 04	 add	 esp, 4
$LN25@Resize:
  000be	57		 push	 edi
  000bf	ff 75 0c	 push	 DWORD PTR __Val$[ebp]
  000c2	8b c6		 mov	 eax, esi
  000c4	2b c3		 sub	 eax, ebx
  000c6	50		 push	 eax
  000c7	8d 04 99	 lea	 eax, DWORD PTR [ecx+ebx*4]
  000ca	50		 push	 eax
  000cb	e8 00 00 00 00	 call	 ??$_Uninitialized_fill_n@V?$allocator@J@std@@@std@@YAPAJPAJIABJAAV?$allocator@J@0@@Z ; std::_Uninitialized_fill_n<std::allocator<long> >
; File C:\Program Files\Microsoft Visual Studio\2022\Professional\VC\Tools\MSVC\14.44.35207\include\xmemory

; 1992 :             _STD _Copy_memmove(_UFirst, _ULast, _STD _Unfancy(_Dest));

  000d0	8b 5d 08	 mov	 ebx, DWORD PTR $T2[ebp]
  000d3	53		 push	 ebx
  000d4	ff 77 04	 push	 DWORD PTR [edi+4]
  000d7	ff 37		 push	 DWORD PTR [edi]
  000d9	e8 00 00 00 00	 call	 ??$_Copy_memmove@PAJPAJ@std@@YAPAJPAJ00@Z ; std::_Copy_memmove<long *,long *>
; File C:\Program Files\Microsoft Visual Studio\2022\Professional\VC\Tools\MSVC\14.44.35207\include\vector

; 2069 :         if (_Myfirst) { // destroy and deallocate old array

  000de	8b 07		 mov	 eax, DWORD PTR [edi]
; File C:\Program Files\Microsoft Visual Studio\2022\Professional\VC\Tools\MSVC\14.44.35207\include\xmemory

; 1992 :             _STD _Copy_memmove(_UFirst, _ULast, _STD _Unfancy(_Dest));

  000e0	83 c4 1c	 add	 esp, 28			; 0000001cH
; File C:\Program Files\Microsoft Visual Studio\2022\Professional\VC\Tools\MSVC\14.44.35207\include\vector

; 2069 :         if (_Myfirst) { // destroy and deallocate old array

  000e3	85 c0		 test	 eax, eax
  000e5	74 2c		 je	 SHORT $LN53@Resize

; 2070 :             _STD _Destroy_range(_Myfirst, _Mylast, _Al);
; 2071 :             _ASAN_VECTOR_REMOVE;
; 2072 :             _Al.deallocate(_Myfirst, static_cast<size_type>(_Myend - _Myfirst));

  000e7	8b 4f 08	 mov	 ecx, DWORD PTR [edi+8]
  000ea	2b c8		 sub	 ecx, eax
; File C:\Program Files\Microsoft Visual Studio\2022\Professional\VC\Tools\MSVC\14.44.35207\include\xmemory

; 985  :         _STD _Deallocate<_New_alignof<_Ty>>(_Ptr, sizeof(_Ty) * _Count);

  000ec	83 e1 fc	 and	 ecx, -4			; fffffffcH

; 284  :         if (_Bytes >= _Big_allocation_threshold) {

  000ef	81 f9 00 10 00
	00		 cmp	 ecx, 4096		; 00001000H
  000f5	72 12		 jb	 SHORT $LN58@Resize

; 205  :     const uintptr_t _Ptr_container   = _Ptr_user[-1];

  000f7	8b 50 fc	 mov	 edx, DWORD PTR [eax-4]
  000fa	83 c1 23	 add	 ecx, 35			; 00000023H

; 206  : 
; 207  :     // If the following asserts, it likely means that we are performing
; 208  :     // an aligned delete on memory coming from an unaligned allocation.
; 209  :     _STL_ASSERT(_Ptr_user[-2] == _Big_allocation_sentinel, "invalid argument");
; 210  : 
; 211  :     // Extra paranoia on aligned allocation/deallocation; ensure _Ptr_container is
; 212  :     // in range [_Min_back_shift, _Non_user_size]
; 213  : #ifdef _DEBUG
; 214  :     constexpr uintptr_t _Min_back_shift = 2 * sizeof(void*);
; 215  : #else // ^^^ defined(_DEBUG) / !defined(_DEBUG) vvv
; 216  :     constexpr uintptr_t _Min_back_shift = sizeof(void*);
; 217  : #endif // ^^^ !defined(_DEBUG) ^^^
; 218  :     const uintptr_t _Back_shift = reinterpret_cast<uintptr_t>(_Ptr) - _Ptr_container;

  000fd	2b c2		 sub	 eax, edx

; 219  :     _STL_VERIFY(_Back_shift >= _Min_back_shift && _Back_shift <= _Non_user_size, "invalid argument");

  000ff	83 c0 fc	 add	 eax, -4			; fffffffcH
  00102	83 f8 1f	 cmp	 eax, 31			; 0000001fH
  00105	77 4b		 ja	 SHORT $LN57@Resize

; 220  :     _Ptr = reinterpret_cast<void*>(_Ptr_container);

  00107	8b c2		 mov	 eax, edx
$LN58@Resize:

; 289  :         ::operator delete(_Ptr, _Bytes);

  00109	51		 push	 ecx
  0010a	50		 push	 eax
  0010b	e8 00 00 00 00	 call	 ??3@YAXPAXI@Z		; operator delete
  00110	83 c4 08	 add	 esp, 8
$LN53@Resize:
; File C:\Program Files\Microsoft Visual Studio\2022\Professional\VC\Tools\MSVC\14.44.35207\include\vector

; 2076 :         _Mylast  = _Newvec + _Newsize;

  00113	8d 04 b3	 lea	 eax, DWORD PTR [ebx+esi*4]
  00116	89 1f		 mov	 DWORD PTR [edi], ebx
  00118	89 47 04	 mov	 DWORD PTR [edi+4], eax

; 2077 :         _Myend   = _Newvec + _Newcapacity;

  0011b	8b 45 fc	 mov	 eax, DWORD PTR tv575[ebp]
  0011e	03 c3		 add	 eax, ebx
  00120	89 47 08	 mov	 DWORD PTR [edi+8], eax
  00123	5f		 pop	 edi

; 1625 :     }

  00124	5e		 pop	 esi
  00125	5b		 pop	 ebx
  00126	8b e5		 mov	 esp, ebp
  00128	5d		 pop	 ebp
  00129	c2 08 00	 ret	 8
$LN4@Resize:

; 1608 :                 _Resize_reallocate(_Newsize, _Val);
; 1609 :                 return;
; 1610 :             }
; 1611 : 
; 1612 :             _ASAN_VECTOR_EXTEND_GUARD(_Newsize);
; 1613 :             const pointer _Oldlast = _Mylast;
; 1614 :             if constexpr (is_same_v<_Ty2, _Ty>) {
; 1615 :                 _Mylast = _Uninitialized_fill_n(_Oldlast, _Newsize - _Oldsize, _Val, _Al);

  0012c	57		 push	 edi
  0012d	ff 75 0c	 push	 DWORD PTR __Val$[ebp]
  00130	2b f3		 sub	 esi, ebx
  00132	56		 push	 esi
  00133	52		 push	 edx
  00134	e8 00 00 00 00	 call	 ??$_Uninitialized_fill_n@V?$allocator@J@std@@@std@@YAPAJPAJIABJAAV?$allocator@J@0@@Z ; std::_Uninitialized_fill_n<std::allocator<long> >
  00139	83 c4 10	 add	 esp, 16			; 00000010H

; 1625 :     }

  0013c	89 47 04	 mov	 DWORD PTR [edi+4], eax
$LN3@Resize:
  0013f	5f		 pop	 edi
  00140	5e		 pop	 esi
  00141	5b		 pop	 ebx
  00142	8b e5		 mov	 esp, ebp
  00144	5d		 pop	 ebp
  00145	c2 08 00	 ret	 8
$LN97@Resize:

; 1554 :             _Xlength();

  00148	e8 00 00 00 00	 call	 ?_Xlength@?$vector@JV?$allocator@J@std@@@std@@CAXXZ ; std::vector<long,std::allocator<long> >::_Xlength
$LN98@Resize:
; File C:\Program Files\Microsoft Visual Studio\2022\Professional\VC\Tools\MSVC\14.44.35207\include\xmemory

; 118  :             _Throw_bad_array_new_length(); // multiply overflow

  0014d	e8 00 00 00 00	 call	 ?_Throw_bad_array_new_length@std@@YAXXZ ; std::_Throw_bad_array_new_length
$LN57@Resize:

; 219  :     _STL_VERIFY(_Back_shift >= _Min_back_shift && _Back_shift <= _Non_user_size, "invalid argument");

  00152	6a 00		 push	 0
  00154	6a 00		 push	 0
  00156	6a 00		 push	 0
  00158	6a 00		 push	 0
  0015a	6a 00		 push	 0
  0015c	e8 00 00 00 00	 call	 __invoke_watson
$LN93@Resize:
  00161	cc		 int	 3
??$_Resize@J@?$vector@JV?$allocator@J@std@@@std@@AAEXIABJ@Z ENDP ; std::vector<long,std::allocator<long> >::_Resize<long>
_TEXT	ENDS
; Function compile flags: /Ogtp
; File C:\IAGOS\server\v18\Source\Source\_Database\DbManagerFun.cpp
;	COMDAT ?SetDBFormatStr@CDbManager@@AAEXPADHPBD@Z
_TEXT	SEGMENT
_szDst$ = 8						; size = 4
_nMaxLen$ = 12						; size = 4
_szSrc$ = 16						; size = 4
?SetDBFormatStr@CDbManager@@AAEXPADHPBD@Z PROC		; CDbManager::SetDBFormatStr, COMDAT
; _this$ = ecx

; 116  : {

  00000	55		 push	 ebp
  00001	8b ec		 mov	 ebp, esp
  00003	57		 push	 edi

; 117  : 	int nLen	= strlen( szSrc );

  00004	8b 7d 10	 mov	 edi, DWORD PTR _szSrc$[ebp]
  00007	8b cf		 mov	 ecx, edi
  00009	8d 51 01	 lea	 edx, DWORD PTR [ecx+1]
  0000c	0f 1f 40 00	 npad	 4
$LL10@SetDBForma:
  00010	8a 01		 mov	 al, BYTE PTR [ecx]
  00012	41		 inc	 ecx
  00013	84 c0		 test	 al, al
  00015	75 f9		 jne	 SHORT $LL10@SetDBForma
  00017	2b ca		 sub	 ecx, edx

; 118  : 	if( nMaxLen < nLen * 2 + 1 )

  00019	8b 55 0c	 mov	 edx, DWORD PTR _nMaxLen$[ebp]
  0001c	8d 04 4d 01 00
	00 00		 lea	 eax, DWORD PTR [ecx*2+1]
  00023	3b d0		 cmp	 edx, eax
  00025	7d 1a		 jge	 SHORT $LN4@SetDBForma

; 119  : 	{
; 120  : 		Error( "SetDBFormatStr: nLen = %d, nMaxLen = %d", nLen, nMaxLen );

  00027	52		 push	 edx
  00028	51		 push	 ecx
  00029	68 00 00 00 00	 push	 OFFSET ??_C@_0CI@KADALJOE@SetDBFormatStr?3?5nLen?5?$DN?5?$CFd?0?5nMax@
  0002e	e8 00 00 00 00	 call	 ?Error@@YAPBDPBDZZ	; Error

; 121  : 		*szDst	= '\0';

  00033	8b 45 08	 mov	 eax, DWORD PTR _szDst$[ebp]
  00036	83 c4 0c	 add	 esp, 12			; 0000000cH
  00039	c6 00 00	 mov	 BYTE PTR [eax], 0
  0003c	5f		 pop	 edi

; 133  : }

  0003d	5d		 pop	 ebp
  0003e	c2 0c 00	 ret	 12			; 0000000cH
$LN4@SetDBForma:

; 122  : 		return;
; 123  : 	}
; 124  : 
; 125  : 	char* pCur	= szDst;
; 126  : 	while( *szSrc )

  00041	8a 07		 mov	 al, BYTE PTR [edi]
  00043	56		 push	 esi
  00044	8b 75 08	 mov	 esi, DWORD PTR _szDst$[ebp]
  00047	84 c0		 test	 al, al
  00049	74 24		 je	 SHORT $LN3@SetDBForma
  0004b	0f 1f 44 00 00	 npad	 5
$LL2@SetDBForma:

; 127  : 	{
; 128  : 		sprintf( pCur, "%2X",  (BYTE)*szSrc );

  00050	0f b6 c0	 movzx	 eax, al
  00053	50		 push	 eax
  00054	68 00 00 00 00	 push	 OFFSET ??_C@_03BMNKJJEN@?$CF2X@
  00059	56		 push	 esi
  0005a	e8 00 00 00 00	 call	 _sprintf
  0005f	8a 47 01	 mov	 al, BYTE PTR [edi+1]

; 129  : 		pCur	+= 2;
; 130  : 		szSrc++;

  00062	8d 7f 01	 lea	 edi, DWORD PTR [edi+1]
  00065	83 c4 0c	 add	 esp, 12			; 0000000cH
  00068	83 c6 02	 add	 esi, 2
  0006b	84 c0		 test	 al, al
  0006d	75 e1		 jne	 SHORT $LL2@SetDBForma
$LN3@SetDBForma:

; 131  : 	}
; 132  : 	*pCur	= '\0';

  0006f	c6 06 00	 mov	 BYTE PTR [esi], 0
  00072	5e		 pop	 esi
  00073	5f		 pop	 edi

; 133  : }

  00074	5d		 pop	 ebp
  00075	c2 0c 00	 ret	 12			; 0000000cH
?SetDBFormatStr@CDbManager@@AAEXPADHPBD@Z ENDP		; CDbManager::SetDBFormatStr
_TEXT	ENDS
; Function compile flags: /Ogtp
; File C:\IAGOS\server\v18\Source\Source\_Database\DbManagerFun.cpp
;	COMDAT ?GetDBFormatStr@CDbManager@@AAEXPADHPBD@Z
_TEXT	SEGMENT
_szDigit$ = -4						; size = 3
_szDst$ = 8						; size = 4
_nMaxLen$ = 12						; size = 4
_szSrc$ = 16						; size = 4
_ch2$ = 16						; size = 4
?GetDBFormatStr@CDbManager@@AAEXPADHPBD@Z PROC		; CDbManager::GetDBFormatStr, COMDAT
; _this$ = ecx

; 79   : {

  00000	55		 push	 ebp
  00001	8b ec		 mov	 ebp, esp
  00003	51		 push	 ecx
  00004	56		 push	 esi

; 80   : 	char szDigit[3] = {0, };
; 81   : #ifdef __VS2003
; 82   : 	int ch2;
; 83   : #else	// __VS2003
; 84   : 	char ch;
; 85   : #endif // __VS2003
; 86   : 	char* pCur	= const_cast<char*>( szSrc );

  00005	8b 75 10	 mov	 esi, DWORD PTR _szSrc$[ebp]

; 87   : 	int nLen	= strlen( pCur );

  00008	8b ce		 mov	 ecx, esi
  0000a	c6 45 fe 00	 mov	 BYTE PTR _szDigit$[ebp+2], 0
  0000e	8d 51 01	 lea	 edx, DWORD PTR [ecx+1]
$LL11@GetDBForma:
  00011	8a 01		 mov	 al, BYTE PTR [ecx]
  00013	41		 inc	 ecx
  00014	84 c0		 test	 al, al
  00016	75 f9		 jne	 SHORT $LL11@GetDBForma
  00018	2b ca		 sub	 ecx, edx

; 88   : 	if( nLen % 2 != 0 )

  0001a	f6 c1 01	 test	 cl, 1
  0001d	74 05		 je	 SHORT $LN4@GetDBForma

; 89   : 	{
; 90   : 		pCur[nLen-1]	= '\0';

  0001f	88 44 31 ff	 mov	 BYTE PTR [ecx+esi-1], al

; 91   : 		nLen--;

  00023	49		 dec	 ecx
$LN4@GetDBForma:

; 92   : 	}
; 93   : 	if( nLen >= nMaxLen * 2 )

  00024	8b 55 0c	 mov	 edx, DWORD PTR _nMaxLen$[ebp]
  00027	8d 04 12	 lea	 eax, DWORD PTR [edx+edx]
  0002a	3b c8		 cmp	 ecx, eax
  0002c	7c 1c		 jl	 SHORT $LN7@GetDBForma

; 94   : 	{
; 95   : 		Error( "GetDBFormatStr: nLen = %d, nMaxLen = %d", nLen, nMaxLen );

  0002e	52		 push	 edx
  0002f	51		 push	 ecx
  00030	68 00 00 00 00	 push	 OFFSET ??_C@_0CI@IEFGPJMF@GetDBFormatStr?3?5nLen?5?$DN?5?$CFd?0?5nMax@
  00035	e8 00 00 00 00	 call	 ?Error@@YAPBDPBDZZ	; Error

; 96   : 		*szDst	= '\0';

  0003a	8b 45 08	 mov	 eax, DWORD PTR _szDst$[ebp]
  0003d	83 c4 0c	 add	 esp, 12			; 0000000cH
  00040	c6 00 00	 mov	 BYTE PTR [eax], 0
  00043	5e		 pop	 esi

; 113  : }

  00044	8b e5		 mov	 esp, ebp
  00046	5d		 pop	 ebp
  00047	c2 0c 00	 ret	 12			; 0000000cH
$LN7@GetDBForma:

; 97   : 		return;
; 98   : 	}
; 99   : 	while( *pCur )

  0004a	8a 06		 mov	 al, BYTE PTR [esi]
  0004c	57		 push	 edi
  0004d	8b 7d 08	 mov	 edi, DWORD PTR _szDst$[ebp]
  00050	84 c0		 test	 al, al
  00052	74 2f		 je	 SHORT $LN3@GetDBForma
$LL2@GetDBForma:

; 100  : 	{
; 101  : 		szDigit[0]	= pCur[0];

  00054	88 45 fc	 mov	 BYTE PTR _szDigit$[ebp], al

; 102  : 		szDigit[1]	= pCur[1];
; 103  : 		pCur	+= 2;

  00057	8d 76 02	 lea	 esi, DWORD PTR [esi+2]
  0005a	0f b6 46 ff	 movzx	 eax, BYTE PTR [esi-1]
  0005e	88 45 fd	 mov	 BYTE PTR _szDigit$[ebp+1], al

; 104  : #ifdef __VS2003
; 105  : 		sscanf( szDigit, "%2X", &ch2 );

  00061	8d 45 10	 lea	 eax, DWORD PTR _ch2$[ebp]
  00064	50		 push	 eax
  00065	8d 45 fc	 lea	 eax, DWORD PTR _szDigit$[ebp]
  00068	68 00 00 00 00	 push	 OFFSET ??_C@_03BMNKJJEN@?$CF2X@
  0006d	50		 push	 eax
  0006e	e8 00 00 00 00	 call	 _sscanf

; 106  : 		*szDst++	= ch2;

  00073	0f b6 45 10	 movzx	 eax, BYTE PTR _ch2$[ebp]
  00077	83 c4 0c	 add	 esp, 12			; 0000000cH
  0007a	88 07		 mov	 BYTE PTR [edi], al
  0007c	47		 inc	 edi
  0007d	8a 06		 mov	 al, BYTE PTR [esi]
  0007f	84 c0		 test	 al, al
  00081	75 d1		 jne	 SHORT $LL2@GetDBForma
$LN3@GetDBForma:

; 107  : #else // __VS2003
; 108  : 		sscanf( szDigit, "%2X", &ch );
; 109  : 		*szDst++	= ch;
; 110  : #endif // __VS2003
; 111  : 	}
; 112  : 	*szDst	= '\0';

  00083	c6 07 00	 mov	 BYTE PTR [edi], 0
  00086	5f		 pop	 edi
  00087	5e		 pop	 esi

; 113  : }

  00088	8b e5		 mov	 esp, ebp
  0008a	5d		 pop	 ebp
  0008b	c2 0c 00	 ret	 12			; 0000000cH
?GetDBFormatStr@CDbManager@@AAEXPADHPBD@Z ENDP		; CDbManager::GetDBFormatStr
_TEXT	ENDS
; Function compile flags: /Ogtp
; File C:\IAGOS\server\v18\Source\Source\_Database\DbManagerFun.cpp
;	COMDAT ?GetStrFromDBFormat@CDbManager@@AAEXPADPBDAAH@Z
_TEXT	SEGMENT
_szDigit$ = -4						; size = 3
_szDst$ = 8						; size = 4
_ch2$ = 8						; size = 4
_szSrc$ = 12						; size = 4
_n$ = 16						; size = 4
?GetStrFromDBFormat@CDbManager@@AAEXPADPBDAAH@Z PROC	; CDbManager::GetStrFromDBFormat, COMDAT
; _this$ = ecx

; 139  : {

  00000	55		 push	 ebp
  00001	8b ec		 mov	 ebp, esp
  00003	51		 push	 ecx
  00004	53		 push	 ebx

; 140  : 	char szDigit[3] = {0, };
; 141  : 	char ch;
; 142  : #ifdef __VS2003
; 143  : 	int ch2;
; 144  : #endif // __VS2003
; 145  : 	
; 146  : 	const char* pCur = szSrc + n;

  00005	8b 5d 10	 mov	 ebx, DWORD PTR _n$[ebp]
  00008	33 c0		 xor	 eax, eax
  0000a	56		 push	 esi
  0000b	66 89 45 fc	 mov	 WORD PTR _szDigit$[ebp], ax
  0000f	88 45 fe	 mov	 BYTE PTR _szDigit$[ebp+2], al
  00012	8b 33		 mov	 esi, DWORD PTR [ebx]
  00014	03 75 0c	 add	 esi, DWORD PTR _szSrc$[ebp]
  00017	57		 push	 edi

; 147  : 	while( *pCur != '/' && *pCur )		// ą®ŔÚż­Ŕş '/' ·Î łˇł­´Ů. ľČŔüÇĎ°Ô NULLµµ °Ë»ç 

  00018	8b 7d 08	 mov	 edi, DWORD PTR _szDst$[ebp]
  0001b	8a 06		 mov	 al, BYTE PTR [esi]
  0001d	3c 2f		 cmp	 al, 47			; 0000002fH
  0001f	74 38		 je	 SHORT $LN3@GetStrFrom
  00021	8a c8		 mov	 cl, al
$LL2@GetStrFrom:
  00023	84 c0		 test	 al, al
  00025	74 32		 je	 SHORT $LN3@GetStrFrom

; 148  : 	{
; 149  : 		szDigit[0] = pCur[0];

  00027	88 4d fc	 mov	 BYTE PTR _szDigit$[ebp], cl

; 150  : 		szDigit[1] = pCur[1];

  0002a	0f b6 46 01	 movzx	 eax, BYTE PTR [esi+1]

; 151  : 		pCur += 2;

  0002e	83 c6 02	 add	 esi, 2
  00031	88 45 fd	 mov	 BYTE PTR _szDigit$[ebp+1], al

; 152  : 		
; 153  : #ifdef __VS2003
; 154  : 		sscanf( szDigit, "%2X", &ch2 );

  00034	8d 45 08	 lea	 eax, DWORD PTR _ch2$[ebp]
  00037	50		 push	 eax
  00038	8d 45 fc	 lea	 eax, DWORD PTR _szDigit$[ebp]
  0003b	68 00 00 00 00	 push	 OFFSET ??_C@_03BMNKJJEN@?$CF2X@
  00040	50		 push	 eax
  00041	e8 00 00 00 00	 call	 _sscanf

; 155  : 		ch = ch2;
; 156  : #else // __VS2003
; 157  : 		sscanf( szDigit, "%2X", &ch );
; 158  : #endif // __VS2003
; 159  : 		*szDst++ = ch;

  00046	0f b6 45 08	 movzx	 eax, BYTE PTR _ch2$[ebp]
  0004a	83 c4 0c	 add	 esp, 12			; 0000000cH
  0004d	88 07		 mov	 BYTE PTR [edi], al
  0004f	47		 inc	 edi
  00050	8a 0e		 mov	 cl, BYTE PTR [esi]
  00052	8a c1		 mov	 al, cl
  00054	80 f9 2f	 cmp	 cl, 47			; 0000002fH
  00057	75 ca		 jne	 SHORT $LL2@GetStrFrom
$LN3@GetStrFrom:

; 160  : 	}
; 161  : 	*szDst = '\0';
; 162  : 	n = (pCur - szSrc) + 1;				// +1Ŕş '/'¸¦ ą«˝ĂÇĎ±â Ŕ§ÇŘĽ­ 

  00059	2b 75 0c	 sub	 esi, DWORD PTR _szSrc$[ebp]
  0005c	c6 07 00	 mov	 BYTE PTR [edi], 0
  0005f	46		 inc	 esi
  00060	5f		 pop	 edi
  00061	89 33		 mov	 DWORD PTR [ebx], esi
  00063	5e		 pop	 esi
  00064	5b		 pop	 ebx

; 163  : }

  00065	8b e5		 mov	 esp, ebp
  00067	5d		 pop	 ebp
  00068	c2 0c 00	 ret	 12			; 0000000cH
?GetStrFromDBFormat@CDbManager@@AAEXPADPBDAAH@Z ENDP	; CDbManager::GetStrFromDBFormat
_TEXT	ENDS
; Function compile flags: /Ogtp
; File C:\IAGOS\server\v18\Source\Source\_Database\DbManagerFun.cpp
;	COMDAT ?GetRemoveItem@CDbManager@@AAEHPAVCQuery@@AAHPAD1111AAD@Z
_TEXT	SEGMENT
_pQry$ = 8						; size = 4
_nNo$ = 12						; size = 4
_pOneItem$ = 16						; size = 4
_nItem_Count$ = 20					; size = 4
_nAbilityOption$ = 24					; size = 4
_nItemResist$ = 28					; size = 4
_nResistAbilityOption$ = 32				; size = 4
_chState$ = 36						; size = 4
?GetRemoveItem@CDbManager@@AAEHPAVCQuery@@AAHPAD1111AAD@Z PROC ; CDbManager::GetRemoveItem, COMDAT
; _this$ = ecx

; 1511 : {

  00000	55		 push	 ebp
  00001	8b ec		 mov	 ebp, esp
  00003	53		 push	 ebx
  00004	56		 push	 esi

; 1512 : 	nNo = pQry->GetInt( "m_nNo" );									// ŔŻ´ĎĹ© łŃąö

  00005	8b 75 08	 mov	 esi, DWORD PTR _pQry$[ebp]
  00008	8b ce		 mov	 ecx, esi
  0000a	57		 push	 edi
  0000b	68 00 00 00 00	 push	 OFFSET ??_C@_05DIMENFA@m_nNo@
  00010	e8 00 00 00 00	 call	 ?GetInt@CQuery@@QAEHPAD@Z ; CQuery::GetInt
  00015	8b 4d 0c	 mov	 ecx, DWORD PTR _nNo$[ebp]

; 1513 : 	pQry->GetStr( "Item_Name", pOneItem );							// ŔĚ¸§

  00018	ff 75 10	 push	 DWORD PTR _pOneItem$[ebp]
  0001b	68 00 00 00 00	 push	 OFFSET ??_C@_09GAPLKBDN@Item_Name@
  00020	89 01		 mov	 DWORD PTR [ecx], eax
  00022	8b ce		 mov	 ecx, esi
  00024	e8 00 00 00 00	 call	 ?GetStr@CQuery@@QAEXPAD0@Z ; CQuery::GetStr

; 1514 : 	
; 1515 : 	nItem_Count	= pQry->GetInt( "Item_count" );						// °ąĽö

  00029	68 00 00 00 00	 push	 OFFSET ??_C@_0L@IOKBDDFK@Item_count@
  0002e	8b ce		 mov	 ecx, esi
  00030	e8 00 00 00 00	 call	 ?GetInt@CQuery@@QAEHPAD@Z ; CQuery::GetInt
  00035	8b 4d 14	 mov	 ecx, DWORD PTR _nItem_Count$[ebp]

; 1516 : 	nAbilityOption = pQry->GetInt( "m_nAbilityOption" );			// AbilityOption ( + ) Option

  00038	68 00 00 00 00	 push	 OFFSET ??_C@_0BB@JLNDCIFJ@m_nAbilityOption@
  0003d	89 01		 mov	 DWORD PTR [ecx], eax
  0003f	8b ce		 mov	 ecx, esi
  00041	e8 00 00 00 00	 call	 ?GetInt@CQuery@@QAEHPAD@Z ; CQuery::GetInt
  00046	8b 5d 18	 mov	 ebx, DWORD PTR _nAbilityOption$[ebp]

; 1517 : 	chState = pQry->GetChar( "State" );

  00049	8b ce		 mov	 ecx, esi
  0004b	68 00 00 00 00	 push	 OFFSET ??_C@_05JNKNAC@State@
  00050	89 03		 mov	 DWORD PTR [ebx], eax
  00052	e8 00 00 00 00	 call	 ?GetChar@CQuery@@QAEDPAD@Z ; CQuery::GetChar
  00057	8b 4d 24	 mov	 ecx, DWORD PTR _chState$[ebp]

; 1518 : 	nItemResist = pQry->GetInt( "m_bItemResist" );					// ĽÓĽş°Ş	

  0005a	68 00 00 00 00	 push	 OFFSET ??_C@_0O@PJIGDEIK@m_bItemResist@
  0005f	88 01		 mov	 BYTE PTR [ecx], al
  00061	8b ce		 mov	 ecx, esi
  00063	e8 00 00 00 00	 call	 ?GetInt@CQuery@@QAEHPAD@Z ; CQuery::GetInt
  00068	8b 7d 1c	 mov	 edi, DWORD PTR _nItemResist$[ebp]

; 1519 : 	nResistAbilityOption = pQry->GetInt( "m_nResistAbilityOption" );// ĽÓĽşżˇ ´ëÇŃ Option°Ş

  0006b	8b ce		 mov	 ecx, esi
  0006d	68 00 00 00 00	 push	 OFFSET ??_C@_0BH@DKIALLAG@m_nResistAbilityOption@
  00072	89 07		 mov	 DWORD PTR [edi], eax
  00074	e8 00 00 00 00	 call	 ?GetInt@CQuery@@QAEHPAD@Z ; CQuery::GetInt
  00079	8b 75 20	 mov	 esi, DWORD PTR _nResistAbilityOption$[ebp]

; 1520 : 	
; 1521 : 	if( 0 == strcmp( pOneItem, "NULL") )

  0007c	b9 00 00 00 00	 mov	 ecx, OFFSET ??_C@_04HIBGFPH@NULL@
  00081	89 06		 mov	 DWORD PTR [esi], eax
  00083	8b 45 10	 mov	 eax, DWORD PTR _pOneItem$[ebp]
$LL10@GetRemoveI:
  00086	8a 10		 mov	 dl, BYTE PTR [eax]
  00088	3a 11		 cmp	 dl, BYTE PTR [ecx]
  0008a	75 1a		 jne	 SHORT $LN11@GetRemoveI
  0008c	84 d2		 test	 dl, dl
  0008e	74 12		 je	 SHORT $LN12@GetRemoveI
  00090	8a 50 01	 mov	 dl, BYTE PTR [eax+1]
  00093	3a 51 01	 cmp	 dl, BYTE PTR [ecx+1]
  00096	75 0e		 jne	 SHORT $LN11@GetRemoveI
  00098	83 c0 02	 add	 eax, 2
  0009b	83 c1 02	 add	 ecx, 2
  0009e	84 d2		 test	 dl, dl
  000a0	75 e4		 jne	 SHORT $LL10@GetRemoveI
$LN12@GetRemoveI:
  000a2	33 c0		 xor	 eax, eax
  000a4	eb 05		 jmp	 SHORT $LN13@GetRemoveI
$LN11@GetRemoveI:
  000a6	1b c0		 sbb	 eax, eax
  000a8	83 c8 01	 or	 eax, 1
$LN13@GetRemoveI:
  000ab	85 c0		 test	 eax, eax
  000ad	75 19		 jne	 SHORT $LN2@GetRemoveI

; 1522 : 	{
; 1523 : 		WriteLog( "Remove NULL Item_Name : %s", pOneItem );

  000af	ff 75 10	 push	 DWORD PTR _pOneItem$[ebp]
  000b2	68 00 00 00 00	 push	 OFFSET ??_C@_0BL@GOICAOCF@Remove?5NULL?5Item_Name?5?3?5?$CFs@
  000b7	e8 00 00 00 00	 call	 ?WriteLog@@YAXPBDZZ	; WriteLog
  000bc	83 c4 08	 add	 esp, 8

; 1524 : 		return FALSE;

  000bf	33 c0		 xor	 eax, eax
  000c1	5f		 pop	 edi

; 1549 : 
; 1550 : 	
; 1551 : 	return TRUE;
; 1552 : }

  000c2	5e		 pop	 esi
  000c3	5b		 pop	 ebx
  000c4	5d		 pop	 ebp
  000c5	c2 20 00	 ret	 32			; 00000020H
$LN2@GetRemoveI:

; 1525 : 	}
; 1526 : 
; 1527 : 	if( chState != 'I' && chState != 'B'
; 1528 : #ifdef __REMOVEITEM_POCKET
; 1529 : 		&& chState != 'P'

  000c8	8b 45 24	 mov	 eax, DWORD PTR _chState$[ebp]
  000cb	8a 00		 mov	 al, BYTE PTR [eax]
  000cd	3c 49		 cmp	 al, 73			; 00000049H
  000cf	74 22		 je	 SHORT $LN3@GetRemoveI
  000d1	3c 42		 cmp	 al, 66			; 00000042H
  000d3	74 1e		 je	 SHORT $LN3@GetRemoveI
  000d5	3c 50		 cmp	 al, 80			; 00000050H
  000d7	74 1a		 je	 SHORT $LN3@GetRemoveI

; 1530 : #endif // __REMOVEITEM_POCKET
; 1531 : 		)
; 1532 : 	{
; 1533 : 		WriteLog( "Remove Not Data State : %c", chState );

  000d9	0f be c0	 movsx	 eax, al
  000dc	50		 push	 eax
  000dd	68 00 00 00 00	 push	 OFFSET ??_C@_0BL@DMKMHKMC@Remove?5Not?5Data?5State?5?3?5?$CFc@
  000e2	e8 00 00 00 00	 call	 ?WriteLog@@YAXPBDZZ	; WriteLog
  000e7	83 c4 08	 add	 esp, 8

; 1534 : 		return FALSE;

  000ea	33 c0		 xor	 eax, eax
  000ec	5f		 pop	 edi

; 1549 : 
; 1550 : 	
; 1551 : 	return TRUE;
; 1552 : }

  000ed	5e		 pop	 esi
  000ee	5b		 pop	 ebx
  000ef	5d		 pop	 ebp
  000f0	c2 20 00	 ret	 32			; 00000020H
$LN3@GetRemoveI:

; 1535 : 	}
; 1536 : 
; 1537 : 	
; 1538 : 	if( nItem_Count == -100 || nItem_Count == 0 )

  000f3	8b 4d 14	 mov	 ecx, DWORD PTR _nItem_Count$[ebp]
  000f6	8b 01		 mov	 eax, DWORD PTR [ecx]
  000f8	83 f8 9c	 cmp	 eax, -100		; ffffff9cH
  000fb	74 04		 je	 SHORT $LN5@GetRemoveI
  000fd	85 c0		 test	 eax, eax
  000ff	75 06		 jne	 SHORT $LN4@GetRemoveI
$LN5@GetRemoveI:

; 1539 : 		nItem_Count = 1;

  00101	c7 01 01 00 00
	00		 mov	 DWORD PTR [ecx], 1
$LN4@GetRemoveI:

; 1540 : 	
; 1541 : 	if( nAbilityOption == -100 )

  00107	83 3b 9c	 cmp	 DWORD PTR [ebx], -100	; ffffff9cH
  0010a	75 06		 jne	 SHORT $LN6@GetRemoveI

; 1542 : 		nAbilityOption = 0;

  0010c	c7 03 00 00 00
	00		 mov	 DWORD PTR [ebx], 0
$LN6@GetRemoveI:

; 1543 : 	
; 1544 : 	if( nItemResist == -100 )

  00112	83 3f 9c	 cmp	 DWORD PTR [edi], -100	; ffffff9cH
  00115	75 06		 jne	 SHORT $LN7@GetRemoveI

; 1545 : 		nItemResist = 0;

  00117	c7 07 00 00 00
	00		 mov	 DWORD PTR [edi], 0
$LN7@GetRemoveI:

; 1546 : 	
; 1547 : 	if( nResistAbilityOption == -100 )

  0011d	83 3e 9c	 cmp	 DWORD PTR [esi], -100	; ffffff9cH
  00120	75 06		 jne	 SHORT $LN8@GetRemoveI

; 1548 : 		nResistAbilityOption = 0;

  00122	c7 06 00 00 00
	00		 mov	 DWORD PTR [esi], 0
$LN8@GetRemoveI:
  00128	5f		 pop	 edi

; 1549 : 
; 1550 : 	
; 1551 : 	return TRUE;
; 1552 : }

  00129	5e		 pop	 esi
  0012a	b8 01 00 00 00	 mov	 eax, 1
  0012f	5b		 pop	 ebx
  00130	5d		 pop	 ebp
  00131	c2 20 00	 ret	 32			; 00000020H
?GetRemoveItem@CDbManager@@AAEHPAVCQuery@@AAHPAD1111AAD@Z ENDP ; CDbManager::GetRemoveItem
_TEXT	ENDS
; Function compile flags: /Ogtp
; File C:\IAGOS\server\v18\Source\Source\_Database\DbManagerFun.cpp
;	COMDAT ?RemoveItemInventory@CDbManager@@AAEKPAUItemProp@@PAVCMover@@HHHH@Z
_TEXT	SEGMENT
_pItemProp$ = 8						; size = 4
_pMover$ = 12						; size = 4
_iSerialNumber$1$ = 12					; size = 4
_nAbilityOption$ = 16					; size = 4
_nItemResist$ = 20					; size = 4
_nResistAbilityOption$ = 24				; size = 4
_nItemCount$ = 28					; size = 4
?RemoveItemInventory@CDbManager@@AAEKPAUItemProp@@PAVCMover@@HHHH@Z PROC ; CDbManager::RemoveItemInventory, COMDAT
; _this$ = ecx

; 1630 : {

  00000	55		 push	 ebp
  00001	8b ec		 mov	 ebp, esp
  00003	53		 push	 ebx

; 1631 : 	SERIALNUMBER iSerialNumber = 0;
; 1632 : 	CItemElem *pItemElem = pMover->m_Inventory.GetItem( pItemProp, nAbilityOption, nItemResist, nResistAbilityOption );

  00004	8b 5d 0c	 mov	 ebx, DWORD PTR _pMover$[ebp]
  00007	56		 push	 esi
  00008	57		 push	 edi
  00009	ff 75 18	 push	 DWORD PTR _nResistAbilityOption$[ebp]
  0000c	8b 7d 08	 mov	 edi, DWORD PTR _pItemProp$[ebp]
  0000f	8d 8b b4 3b 00
	00		 lea	 ecx, DWORD PTR [ebx+15284]
  00015	ff 75 14	 push	 DWORD PTR _nItemResist$[ebp]
  00018	ff 75 10	 push	 DWORD PTR _nAbilityOption$[ebp]
  0001b	57		 push	 edi
  0001c	e8 00 00 00 00	 call	 ?GetItem@?$CItemContainer@VCItemElem@@@@QAEPAVCItemElem@@PAUItemProp@@HHH@Z ; CItemContainer<CItemElem>::GetItem
  00021	8b f0		 mov	 esi, eax

; 1633 : 	
; 1634 : 	if( pItemElem != NULL ) // ŔÎşĄĹä¸®żˇ ľĆŔĚĹŰŔĚ ŔÖŔ˝Ŕ» °Ë»ç.

  00023	85 f6		 test	 esi, esi
  00025	0f 84 95 00 00
	00		 je	 $LN2@RemoveItem

; 1635 : 	{
; 1636 : 		iSerialNumber = pItemElem->GetSerialNumber();

  0002b	8b 46 30	 mov	 eax, DWORD PTR [esi+48]

; 1637 : 		if( pMover->m_Inventory.IsEquip( pItemElem->m_dwObjId ) )	// Ŕĺşń¸¦ ÂřżëÇĎ°í ŔÖ´ÂÁö °Ë»ç

  0002e	8d 8b b4 3b 00
	00		 lea	 ecx, DWORD PTR [ebx+15284]
  00034	ff 76 04	 push	 DWORD PTR [esi+4]
  00037	89 45 0c	 mov	 DWORD PTR _iSerialNumber$1$[ebp], eax
  0003a	e8 00 00 00 00	 call	 ?IsEquip@?$CItemContainer@VCItemElem@@@@QAEHK@Z ; CItemContainer<CItemElem>::IsEquip
  0003f	85 c0		 test	 eax, eax
  00041	74 47		 je	 SHORT $LN6@RemoveItem

; 1638 : 		{
; 1639 : 			if( !pMover->m_Inventory.UnEquip( pItemProp->dwParts ) ) // Ŕĺşń ÇŘÁ¦

  00043	ff b7 a8 00 00
	00		 push	 DWORD PTR [edi+168]
  00049	8d 8b b4 3b 00
	00		 lea	 ecx, DWORD PTR [ebx+15284]
  0004f	e8 00 00 00 00	 call	 ?UnEquip@?$CItemContainer@VCItemElem@@@@QAEHK@Z ; CItemContainer<CItemElem>::UnEquip
  00054	85 c0		 test	 eax, eax
  00056	75 1e		 jne	 SHORT $LN5@RemoveItem

; 1640 : 			{
; 1641 : 				WriteLog( "Not UnEquip : %s, %s ", pMover->m_szName, pItemProp->szName );

  00058	8d 47 04	 lea	 eax, DWORD PTR [edi+4]
  0005b	50		 push	 eax
  0005c	8d 43 6c	 lea	 eax, DWORD PTR [ebx+108]
  0005f	50		 push	 eax
  00060	68 00 00 00 00	 push	 OFFSET ??_C@_0BG@EGBCIKAA@Not?5UnEquip?5?3?5?$CFs?0?5?$CFs?5@

; 1658 : 		return 0;
; 1659 : 	}
; 1660 : 	return 0;
; 1661 : }

  00065	e8 00 00 00 00	 call	 ?WriteLog@@YAXPBDZZ	; WriteLog
  0006a	83 c4 0c	 add	 esp, 12			; 0000000cH
  0006d	33 c0		 xor	 eax, eax
  0006f	5f		 pop	 edi
  00070	5e		 pop	 esi
  00071	5b		 pop	 ebx
  00072	5d		 pop	 ebp
  00073	c2 18 00	 ret	 24			; 00000018H
$LN5@RemoveItem:

; 1642 : 				return (SERIALNUMBER)0;
; 1643 : 			}
; 1644 : 			else
; 1645 : 				pMover->m_aEquipInfo[pItemProp->dwParts].dwId	= NULL_ID;

  00076	8b 87 a8 00 00
	00		 mov	 eax, DWORD PTR [edi+168]
  0007c	8d 04 40	 lea	 eax, DWORD PTR [eax+eax*2]
  0007f	c7 84 83 70 3f
	00 00 ff ff ff
	ff		 mov	 DWORD PTR [ebx+eax*4+16240], -1
$LN6@RemoveItem:

; 1646 : 		}
; 1647 : 
; 1648 : 		if( pItemElem->m_nItemNum <= nItemCount )

  0008a	0f b7 56 66	 movzx	 edx, WORD PTR [esi+102]
  0008e	8b 4d 1c	 mov	 ecx, DWORD PTR _nItemCount$[ebp]
  00091	0f bf c2	 movsx	 eax, dx
  00094	3b c1		 cmp	 eax, ecx
  00096	7f 18		 jg	 SHORT $LN7@RemoveItem

; 1649 : 			pMover->m_Inventory.RemoveAt( pItemElem->m_dwObjIndex );

  00098	ff 76 2c	 push	 DWORD PTR [esi+44]
  0009b	8d 8b b4 3b 00
	00		 lea	 ecx, DWORD PTR [ebx+15284]
  000a1	e8 00 00 00 00	 call	 ?RemoveAt@?$CItemContainer@VCItemElem@@@@QAEXK@Z ; CItemContainer<CItemElem>::RemoveAt

; 1650 : 		else
; 1651 : 			pItemElem->m_nItemNum -= nItemCount;
; 1652 : 		
; 1653 : 		return iSerialNumber;

  000a6	8b 45 0c	 mov	 eax, DWORD PTR _iSerialNumber$1$[ebp]
  000a9	5f		 pop	 edi

; 1658 : 		return 0;
; 1659 : 	}
; 1660 : 	return 0;
; 1661 : }

  000aa	5e		 pop	 esi
  000ab	5b		 pop	 ebx
  000ac	5d		 pop	 ebp
  000ad	c2 18 00	 ret	 24			; 00000018H
$LN7@RemoveItem:

; 1650 : 		else
; 1651 : 			pItemElem->m_nItemNum -= nItemCount;
; 1652 : 		
; 1653 : 		return iSerialNumber;

  000b0	8b 45 0c	 mov	 eax, DWORD PTR _iSerialNumber$1$[ebp]
  000b3	2b d1		 sub	 edx, ecx
  000b5	5f		 pop	 edi
  000b6	66 89 56 66	 mov	 WORD PTR [esi+102], dx

; 1658 : 		return 0;
; 1659 : 	}
; 1660 : 	return 0;
; 1661 : }

  000ba	5e		 pop	 esi
  000bb	5b		 pop	 ebx
  000bc	5d		 pop	 ebp
  000bd	c2 18 00	 ret	 24			; 00000018H
$LN2@RemoveItem:

; 1654 : 	}
; 1655 : 	else
; 1656 : 	{
; 1657 : 		WriteLog( "Not Inventory : %s, %s ", pMover->m_szName, pItemProp->szName );

  000c0	8d 47 04	 lea	 eax, DWORD PTR [edi+4]
  000c3	50		 push	 eax
  000c4	8d 43 6c	 lea	 eax, DWORD PTR [ebx+108]
  000c7	50		 push	 eax
  000c8	68 00 00 00 00	 push	 OFFSET ??_C@_0BI@OFGDADEH@Not?5Inventory?5?3?5?$CFs?0?5?$CFs?5@

; 1658 : 		return 0;
; 1659 : 	}
; 1660 : 	return 0;
; 1661 : }

  000cd	e8 00 00 00 00	 call	 ?WriteLog@@YAXPBDZZ	; WriteLog
  000d2	83 c4 0c	 add	 esp, 12			; 0000000cH
  000d5	33 c0		 xor	 eax, eax
  000d7	5f		 pop	 edi
  000d8	5e		 pop	 esi
  000d9	5b		 pop	 ebx
  000da	5d		 pop	 ebp
  000db	c2 18 00	 ret	 24			; 00000018H
?RemoveItemInventory@CDbManager@@AAEKPAUItemProp@@PAVCMover@@HHHH@Z ENDP ; CDbManager::RemoveItemInventory
_TEXT	ENDS
; Function compile flags: /Ogtp
; File C:\IAGOS\server\v18\Source\Source\_Database\DbManagerFun.cpp
;	COMDAT ?RemoveItemPocket@CDbManager@@AAEKPAUItemProp@@PAVCMover@@HHHH@Z
_TEXT	SEGMENT
tv188 = -4						; size = 4
_pItemProp$ = 8						; size = 4
_pMover$ = 12						; size = 4
_nAbilityOption$ = 16					; size = 4
_nItemResist$ = 20					; size = 4
_nResistAbilityOption$ = 24				; size = 4
_nItemCount$ = 28					; size = 4
?RemoveItemPocket@CDbManager@@AAEKPAUItemProp@@PAVCMover@@HHHH@Z PROC ; CDbManager::RemoveItemPocket, COMDAT
; _this$ = ecx

; 1689 : {

  00000	55		 push	 ebp
  00001	8b ec		 mov	 ebp, esp
  00003	51		 push	 ecx
  00004	8b 45 0c	 mov	 eax, DWORD PTR _pMover$[ebp]
  00007	53		 push	 ebx

; 1690 : 	SERIALNUMBER iSerialNumber = 0;
; 1691 : 	for( int i=0; i<MAX_POCKET; i++ )

  00008	8b 5d 08	 mov	 ebx, DWORD PTR _pItemProp$[ebp]
  0000b	56		 push	 esi
  0000c	33 f6		 xor	 esi, esi
  0000e	05 c8 3b 00 00	 add	 eax, 15304		; 00003bc8H
  00013	57		 push	 edi
  00014	89 45 fc	 mov	 DWORD PTR tv188[ebp], eax
$LL4@RemoveItem:

; 1692 : 	{
; 1693 : 		CPocket* pPocket = pMover->m_Pocket.GetPocket( i );

  00017	56		 push	 esi
  00018	8b c8		 mov	 ecx, eax
  0001a	e8 00 00 00 00	 call	 ?GetPocket@CPocketController@@QAEPAVCPocket@@H@Z ; CPocketController::GetPocket
  0001f	8b f8		 mov	 edi, eax

; 1694 : 		if( pPocket )

  00021	85 ff		 test	 edi, edi
  00023	74 17		 je	 SHORT $LN2@RemoveItem

; 1695 : 		{
; 1696 : 			CItemElem* pItemElem = pPocket->GetItem( pItemProp, nAbilityOption, nItemResist, nResistAbilityOption );

  00025	ff 75 18	 push	 DWORD PTR _nResistAbilityOption$[ebp]
  00028	8b cf		 mov	 ecx, edi
  0002a	ff 75 14	 push	 DWORD PTR _nItemResist$[ebp]
  0002d	ff 75 10	 push	 DWORD PTR _nAbilityOption$[ebp]
  00030	53		 push	 ebx
  00031	e8 00 00 00 00	 call	 ?GetItem@?$CItemContainer@VCItemElem@@@@QAEPAVCItemElem@@PAUItemProp@@HHH@Z ; CItemContainer<CItemElem>::GetItem
  00036	8b c8		 mov	 ecx, eax

; 1697 : 			if( pItemElem != NULL )

  00038	85 c9		 test	 ecx, ecx
  0003a	75 0b		 jne	 SHORT $LN11@RemoveItem
$LN2@RemoveItem:

; 1690 : 	SERIALNUMBER iSerialNumber = 0;
; 1691 : 	for( int i=0; i<MAX_POCKET; i++ )

  0003c	46		 inc	 esi
  0003d	83 fe 03	 cmp	 esi, 3
  00040	7d 3c		 jge	 SHORT $LN13@RemoveItem
  00042	8b 45 fc	 mov	 eax, DWORD PTR tv188[ebp]
  00045	eb d0		 jmp	 SHORT $LL4@RemoveItem
$LN11@RemoveItem:

; 1698 : 			{
; 1699 : 				iSerialNumber	= pItemElem->GetSerialNumber();
; 1700 : 
; 1701 : 				if( pItemElem->m_nItemNum <= nItemCount )

  00047	0f b7 51 66	 movzx	 edx, WORD PTR [ecx+102]
  0004b	8b 75 1c	 mov	 esi, DWORD PTR _nItemCount$[ebp]
  0004e	8b 59 30	 mov	 ebx, DWORD PTR [ecx+48]
  00051	0f bf c2	 movsx	 eax, dx
  00054	3b c6		 cmp	 eax, esi
  00056	7f 15		 jg	 SHORT $LN7@RemoveItem

; 1702 : 					pPocket->RemoveAt( pItemElem->m_dwObjIndex );

  00058	ff 71 2c	 push	 DWORD PTR [ecx+44]
  0005b	8b cf		 mov	 ecx, edi
  0005d	e8 00 00 00 00	 call	 ?RemoveAt@?$CItemContainer@VCItemElem@@@@QAEXK@Z ; CItemContainer<CItemElem>::RemoveAt
  00062	5f		 pop	 edi

; 1713 : }

  00063	5e		 pop	 esi
  00064	8b c3		 mov	 eax, ebx
  00066	5b		 pop	 ebx
  00067	8b e5		 mov	 esp, ebp
  00069	5d		 pop	 ebp
  0006a	c2 18 00	 ret	 24			; 00000018H
$LN7@RemoveItem:
  0006d	5f		 pop	 edi

; 1703 : 				else
; 1704 : 					pItemElem->m_nItemNum -= nItemCount;

  0006e	2b d6		 sub	 edx, esi

; 1705 : 
; 1706 : 				return iSerialNumber;

  00070	8b c3		 mov	 eax, ebx

; 1713 : }

  00072	5e		 pop	 esi
  00073	66 89 51 66	 mov	 WORD PTR [ecx+102], dx
  00077	5b		 pop	 ebx
  00078	8b e5		 mov	 esp, ebp
  0007a	5d		 pop	 ebp
  0007b	c2 18 00	 ret	 24			; 00000018H
$LN13@RemoveItem:

; 1707 : 			}
; 1708 : 		}
; 1709 : 	}
; 1710 : 
; 1711 : 	WriteLog( "item not found - Pocket: %s, %s ", pMover->m_szName, pItemProp->szName );

  0007e	8d 43 04	 lea	 eax, DWORD PTR [ebx+4]
  00081	50		 push	 eax
  00082	8b 45 0c	 mov	 eax, DWORD PTR _pMover$[ebp]
  00085	83 c0 6c	 add	 eax, 108		; 0000006cH
  00088	50		 push	 eax
  00089	68 00 00 00 00	 push	 OFFSET ??_C@_0CB@HEHGABA@item?5not?5found?5?9?5Pocket?3?5?$CFs?0?5?$CFs@
  0008e	e8 00 00 00 00	 call	 ?WriteLog@@YAXPBDZZ	; WriteLog
  00093	83 c4 0c	 add	 esp, 12			; 0000000cH

; 1712 : 	return 0;

  00096	33 c0		 xor	 eax, eax
  00098	5f		 pop	 edi

; 1713 : }

  00099	5e		 pop	 esi
  0009a	5b		 pop	 ebx
  0009b	8b e5		 mov	 esp, ebp
  0009d	5d		 pop	 ebp
  0009e	c2 18 00	 ret	 24			; 00000018H
?RemoveItemPocket@CDbManager@@AAEKPAUItemProp@@PAVCMover@@HHHH@Z ENDP ; CDbManager::RemoveItemPocket
_TEXT	ENDS
; Function compile flags: /Ogtp
; File C:\IAGOS\server\v18\Source\Source\_Database\DbManagerFun.cpp
;	COMDAT ?RemoveItemBank@CDbManager@@AAEKPAUItemProp@@PAVCMover@@HHHH@Z
_TEXT	SEGMENT
_pItemProp$ = 8						; size = 4
_pMover$ = 12						; size = 4
tv179 = 12						; size = 4
_nAbilityOption$ = 16					; size = 4
_nItemResist$ = 20					; size = 4
_nResistAbilityOption$ = 24				; size = 4
_nItemCount$ = 28					; size = 4
?RemoveItemBank@CDbManager@@AAEKPAUItemProp@@PAVCMover@@HHHH@Z PROC ; CDbManager::RemoveItemBank, COMDAT
; _this$ = ecx

; 1664 : {

  00000	55		 push	 ebp
  00001	8b ec		 mov	 ebp, esp
  00003	56		 push	 esi

; 1665 : 	SERIALNUMBER iSerialNumber = 0;
; 1666 : 	CItemElem *pItemElem	= pMover->m_Bank[pMover->m_nSlot].GetItem( pItemProp, nAbilityOption, nItemResist, nResistAbilityOption );

  00004	8b 75 0c	 mov	 esi, DWORD PTR _pMover$[ebp]
  00007	57		 push	 edi
  00008	ff 75 18	 push	 DWORD PTR _nResistAbilityOption$[ebp]
  0000b	8b 7d 08	 mov	 edi, DWORD PTR _pItemProp$[ebp]
  0000e	0f b6 86 c8 00
	00 00		 movzx	 eax, BYTE PTR [esi+200]
  00015	ff 75 14	 push	 DWORD PTR _nItemResist$[ebp]
  00018	ff 75 10	 push	 DWORD PTR _nAbilityOption$[ebp]
  0001b	8d 04 80	 lea	 eax, DWORD PTR [eax+eax*4]
  0001e	8d 80 f9 0e 00
	00		 lea	 eax, DWORD PTR [eax+3833]
  00024	8d 04 86	 lea	 eax, DWORD PTR [esi+eax*4]
  00027	57		 push	 edi
  00028	8b c8		 mov	 ecx, eax
  0002a	89 45 0c	 mov	 DWORD PTR tv179[ebp], eax
  0002d	e8 00 00 00 00	 call	 ?GetItem@?$CItemContainer@VCItemElem@@@@QAEPAVCItemElem@@PAUItemProp@@HHH@Z ; CItemContainer<CItemElem>::GetItem

; 1667 : 
; 1668 : 	if( pItemElem != NULL )

  00032	85 c0		 test	 eax, eax
  00034	74 35		 je	 SHORT $LN2@RemoveItem

; 1669 : 	{
; 1670 : 		iSerialNumber	= pItemElem->GetSerialNumber();
; 1671 : 
; 1672 : 		if( pItemElem->m_nItemNum <= nItemCount )

  00036	0f b7 70 66	 movzx	 esi, WORD PTR [eax+102]
  0003a	8b 7d 1c	 mov	 edi, DWORD PTR _nItemCount$[ebp]
  0003d	0f bf d6	 movsx	 edx, si
  00040	53		 push	 ebx
  00041	8b 58 30	 mov	 ebx, DWORD PTR [eax+48]
  00044	3b d7		 cmp	 edx, edi
  00046	7f 14		 jg	 SHORT $LN4@RemoveItem

; 1673 : 			pMover->m_Bank[pMover->m_nSlot].RemoveAt( pItemElem->m_dwObjIndex );

  00048	ff 70 2c	 push	 DWORD PTR [eax+44]
  0004b	8b 4d 0c	 mov	 ecx, DWORD PTR tv179[ebp]
  0004e	e8 00 00 00 00	 call	 ?RemoveAt@?$CItemContainer@VCItemElem@@@@QAEXK@Z ; CItemContainer<CItemElem>::RemoveAt

; 1676 : 
; 1677 : 		return iSerialNumber;

  00053	8b c3		 mov	 eax, ebx
  00055	5b		 pop	 ebx
  00056	5f		 pop	 edi

; 1683 : 	}
; 1684 : 	return 0;
; 1685 : }

  00057	5e		 pop	 esi
  00058	5d		 pop	 ebp
  00059	c2 18 00	 ret	 24			; 00000018H
$LN4@RemoveItem:

; 1674 : 		else
; 1675 : 			pItemElem->m_nItemNum -= nItemCount;

  0005c	2b f7		 sub	 esi, edi
  0005e	66 89 70 66	 mov	 WORD PTR [eax+102], si

; 1676 : 
; 1677 : 		return iSerialNumber;

  00062	8b c3		 mov	 eax, ebx
  00064	5b		 pop	 ebx
  00065	5f		 pop	 edi

; 1683 : 	}
; 1684 : 	return 0;
; 1685 : }

  00066	5e		 pop	 esi
  00067	5d		 pop	 ebp
  00068	c2 18 00	 ret	 24			; 00000018H
$LN2@RemoveItem:

; 1678 : 	}
; 1679 : 	else
; 1680 : 	{
; 1681 : 		WriteLog( "item not found - bank: %s, %s ", pMover->m_szName, pItemProp->szName );

  0006b	8d 47 04	 lea	 eax, DWORD PTR [edi+4]
  0006e	50		 push	 eax
  0006f	8d 46 6c	 lea	 eax, DWORD PTR [esi+108]
  00072	50		 push	 eax
  00073	68 00 00 00 00	 push	 OFFSET ??_C@_0BP@MKOBOPPN@item?5not?5found?5?9?5bank?3?5?$CFs?0?5?$CFs?5@
  00078	e8 00 00 00 00	 call	 ?WriteLog@@YAXPBDZZ	; WriteLog
  0007d	83 c4 0c	 add	 esp, 12			; 0000000cH

; 1682 : 		return 0;

  00080	33 c0		 xor	 eax, eax
  00082	5f		 pop	 edi

; 1683 : 	}
; 1684 : 	return 0;
; 1685 : }

  00083	5e		 pop	 esi
  00084	5d		 pop	 ebp
  00085	c2 18 00	 ret	 24			; 00000018H
?RemoveItemBank@CDbManager@@AAEKPAUItemProp@@PAVCMover@@HHHH@Z ENDP ; CDbManager::RemoveItemBank
_TEXT	ENDS
; Function compile flags: /Ogtp
; File C:\IAGOS\server\v18\Source\Source\_Database\DbManagerFun.cpp
; File C:\IAGOS\server\v18\Source\Source\_Common\Data.h
; File C:\IAGOS\server\v18\Source\Source\_Database\DbManagerFun.cpp
;	COMDAT ?RemoveItem@CDbManager@@AAEKPAVCQuery@@PADHPAVCMover@@1HHHHD@Z
_TEXT	SEGMENT
_pQry$ = 8						; size = 4
_szSql$ = 12						; size = 4
_nNo$ = 16						; size = 4
_pMover$ = 20						; size = 4
_szItemName$ = 24					; size = 4
_nItemCount$ = 28					; size = 4
_nAbilityOption$ = 32					; size = 4
_nItemResist$ = 36					; size = 4
_nResistAbilityOption$ = 40				; size = 4
_chState$ = 44						; size = 1
?RemoveItem@CDbManager@@AAEKPAVCQuery@@PADHPAVCMover@@1HHHHD@Z PROC ; CDbManager::RemoveItem, COMDAT
; _this$ = ecx

; 1575 : {

  00000	55		 push	 ebp
  00001	8b ec		 mov	 ebp, esp
  00003	53		 push	 ebx
  00004	56		 push	 esi

; 1576 : 	SERIALNUMBER iSerialNumber = 0;
; 1577 : 
; 1578 : 	int nIndex = atoi( szItemName );

  00005	ff 75 18	 push	 DWORD PTR _szItemName$[ebp]
  00008	8b d9		 mov	 ebx, ecx
  0000a	e8 00 00 00 00	 call	 _atoi
  0000f	8b f0		 mov	 esi, eax
  00011	83 c4 04	 add	 esp, 4

; 1579 : 	ItemProp* pItemProp = NULL;
; 1580 : 	if( nIndex > 0 )

  00014	85 f6		 test	 esi, esi
  00016	7e 16		 jle	 SHORT $LN4@RemoveItem
; File C:\IAGOS\server\v18\Source\Source\_Common\Data.h

; 270  : 	if( dwIndex >= (DWORD)m_nMaxIndex )

  00018	3b 35 4c 00 00
	00		 cmp	 esi, DWORD PTR ?prj@@3VCProject@@A+76
  0001e	72 04		 jb	 SHORT $LN18@RemoveItem

; 271  : 		return NULL;

  00020	33 f6		 xor	 esi, esi
  00022	eb 19		 jmp	 SHORT $LN5@RemoveItem
$LN18@RemoveItem:

; 272  : 	return (T*) m_apOffset[ dwIndex ];

  00024	a1 3c 00 00 00	 mov	 eax, DWORD PTR ?prj@@3VCProject@@A+60
  00029	8b 34 b0	 mov	 esi, DWORD PTR [eax+esi*4]
; File C:\IAGOS\server\v18\Source\Source\_Database\DbManagerFun.cpp

; 1581 : 		pItemProp = prj.GetItemProp( nIndex );	

  0002c	eb 0f		 jmp	 SHORT $LN5@RemoveItem
$LN4@RemoveItem:

; 1582 : 	else
; 1583 : 		pItemProp = prj.GetItemProp( szItemName );	

  0002e	ff 75 18	 push	 DWORD PTR _szItemName$[ebp]
  00031	b9 00 00 00 00	 mov	 ecx, OFFSET ?prj@@3VCProject@@A ; prj
  00036	e8 00 00 00 00	 call	 ?GetItemProp@CProject@@QAEPAUItemProp@@PBD@Z ; CProject::GetItemProp
  0003b	8b f0		 mov	 esi, eax
$LN5@RemoveItem:

; 1584 : 
; 1585 : 	if( pItemProp )

  0003d	85 f6		 test	 esi, esi
  0003f	74 70		 je	 SHORT $LN6@RemoveItem

; 1586 : 	{
; 1587 : 		if( RemoveItemDeleteQuery( pQry, szSql, nNo ) == FALSE )

  00041	ff 75 10	 push	 DWORD PTR _nNo$[ebp]
  00044	8b cb		 mov	 ecx, ebx
  00046	ff 75 0c	 push	 DWORD PTR _szSql$[ebp]
  00049	ff 75 08	 push	 DWORD PTR _pQry$[ebp]
  0004c	e8 00 00 00 00	 call	 ?RemoveItemDeleteQuery@CDbManager@@AAEHPAVCQuery@@PADH@Z ; CDbManager::RemoveItemDeleteQuery
  00051	85 c0		 test	 eax, eax
  00053	74 5c		 je	 SHORT $LN6@RemoveItem

; 1588 : 			return 0;
; 1589 : 
; 1590 : #ifdef __REMOVEITEM_POCKET
; 1591 : 		switch( chState )

  00055	8a 45 2c	 mov	 al, BYTE PTR _chState$[ebp]
  00058	3c 42		 cmp	 al, 66			; 00000042H
  0005a	74 3a		 je	 SHORT $LN10@RemoveItem
  0005c	3c 49		 cmp	 al, 73			; 00000049H
  0005e	74 1d		 je	 SHORT $LN9@RemoveItem
  00060	3c 50		 cmp	 al, 80			; 00000050H
  00062	75 4d		 jne	 SHORT $LN6@RemoveItem

; 1599 : 				break;
; 1600 : 
; 1601 : 			case 'P' :
; 1602 : 				iSerialNumber	= RemoveItemPocket( pItemProp, pMover, nAbilityOption, nItemResist, nResistAbilityOption, nItemCount );

  00064	ff 75 1c	 push	 DWORD PTR _nItemCount$[ebp]
  00067	8b cb		 mov	 ecx, ebx
  00069	ff 75 28	 push	 DWORD PTR _nResistAbilityOption$[ebp]
  0006c	ff 75 24	 push	 DWORD PTR _nItemResist$[ebp]
  0006f	ff 75 20	 push	 DWORD PTR _nAbilityOption$[ebp]
  00072	ff 75 14	 push	 DWORD PTR _pMover$[ebp]
  00075	56		 push	 esi
  00076	e8 00 00 00 00	 call	 ?RemoveItemPocket@CDbManager@@AAEKPAUItemProp@@PAVCMover@@HHHH@Z ; CDbManager::RemoveItemPocket
  0007b	eb 30		 jmp	 SHORT $LN2@RemoveItem
$LN9@RemoveItem:

; 1592 : 		{
; 1593 : 			case 'I' :
; 1594 : 				iSerialNumber	= RemoveItemInventory( pItemProp, pMover, nAbilityOption, nItemResist, nResistAbilityOption, nItemCount );

  0007d	ff 75 1c	 push	 DWORD PTR _nItemCount$[ebp]
  00080	8b cb		 mov	 ecx, ebx
  00082	ff 75 28	 push	 DWORD PTR _nResistAbilityOption$[ebp]
  00085	ff 75 24	 push	 DWORD PTR _nItemResist$[ebp]
  00088	ff 75 20	 push	 DWORD PTR _nAbilityOption$[ebp]
  0008b	ff 75 14	 push	 DWORD PTR _pMover$[ebp]
  0008e	56		 push	 esi
  0008f	e8 00 00 00 00	 call	 ?RemoveItemInventory@CDbManager@@AAEKPAUItemProp@@PAVCMover@@HHHH@Z ; CDbManager::RemoveItemInventory

; 1595 : 				break;

  00094	eb 17		 jmp	 SHORT $LN2@RemoveItem
$LN10@RemoveItem:

; 1596 : 			
; 1597 : 			case 'B' :
; 1598 : 				iSerialNumber	= RemoveItemBank( pItemProp, pMover, nAbilityOption, nItemResist, nResistAbilityOption, nItemCount );

  00096	ff 75 1c	 push	 DWORD PTR _nItemCount$[ebp]
  00099	8b cb		 mov	 ecx, ebx
  0009b	ff 75 28	 push	 DWORD PTR _nResistAbilityOption$[ebp]
  0009e	ff 75 24	 push	 DWORD PTR _nItemResist$[ebp]
  000a1	ff 75 20	 push	 DWORD PTR _nAbilityOption$[ebp]
  000a4	ff 75 14	 push	 DWORD PTR _pMover$[ebp]
  000a7	56		 push	 esi
  000a8	e8 00 00 00 00	 call	 ?RemoveItemBank@CDbManager@@AAEKPAUItemProp@@PAVCMover@@HHHH@Z ; CDbManager::RemoveItemBank
$LN2@RemoveItem:

; 1603 : 				break;
; 1604 : 		}
; 1605 : #else // __REMOVEITEM_POCKET
; 1606 : 		if( chState == 'I' )
; 1607 : 		{
; 1608 : 			iSerialNumber	= RemoveItemInventory( pItemProp, pMover, nAbilityOption, nItemResist, nResistAbilityOption, nItemCount );
; 1609 : 		}
; 1610 : 		else
; 1611 : 		{
; 1612 : 			iSerialNumber	= RemoveItemBank( pItemProp, pMover, nAbilityOption, nItemResist, nResistAbilityOption, nItemCount );
; 1613 : 		}
; 1614 : #endif // __REMOVEITEM_POCKET
; 1615 : 
; 1616 : 		
; 1617 : 		if( iSerialNumber == 0 )

  000ad	85 c0		 test	 eax, eax
  000af	75 02		 jne	 SHORT $LN1@RemoveItem
$LN6@RemoveItem:

; 1618 : 			return 0;
; 1619 : 		else
; 1620 : 			return iSerialNumber;
; 1621 : 	}
; 1622 : 	else
; 1623 : 	{	// no propItem		
; 1624 : 		return 0;

  000b1	33 c0		 xor	 eax, eax
$LN1@RemoveItem:
  000b3	5e		 pop	 esi

; 1625 : 	}
; 1626 : 	return 0;
; 1627 : }

  000b4	5b		 pop	 ebx
  000b5	5d		 pop	 ebp
  000b6	c2 28 00	 ret	 40			; 00000028H
?RemoveItem@CDbManager@@AAEKPAVCQuery@@PADHPAVCMover@@1HHHHD@Z ENDP ; CDbManager::RemoveItem
_TEXT	ENDS
; Function compile flags: /Ogtp
; File C:\IAGOS\server\v18\Source\Source\_Database\DbManagerFun.cpp
; File C:\IAGOS\server\v18\Source\Source\_Network\Objects\Obj.h
; File C:\IAGOS\server\v18\Source\Source\_Database\DbManagerFun.cpp
; File C:\IAGOS\server\v18\Source\Source\_Network\Objects\Obj.h
; File C:\IAGOS\server\v18\Source\Source\_Database\DbManagerFun.cpp
;	COMDAT ?RemovePenya@CDbManager@@AAEHPAVCQuery@@PADPAVCMover@@HHD@Z
_TEXT	SEGMENT
_pQry$ = 8						; size = 4
_szSql$ = 12						; size = 4
_pMover$ = 16						; size = 4
_nItem_Count$ = 20					; size = 4
_nNo$ = 24						; size = 4
_chState$ = 28						; size = 1
?RemovePenya@CDbManager@@AAEHPAVCQuery@@PADPAVCMover@@HHD@Z PROC ; CDbManager::RemovePenya, COMDAT
; _this$ = ecx

; 1555 : {

  00000	55		 push	 ebp
  00001	8b ec		 mov	 ebp, esp

; 1556 : 	if( RemoveItemDeleteQuery( pQry, szSql, nNo ) == FALSE )

  00003	ff 75 18	 push	 DWORD PTR _nNo$[ebp]
  00006	ff 75 0c	 push	 DWORD PTR _szSql$[ebp]
  00009	ff 75 08	 push	 DWORD PTR _pQry$[ebp]
  0000c	e8 00 00 00 00	 call	 ?RemoveItemDeleteQuery@CDbManager@@AAEHPAVCQuery@@PADH@Z ; CDbManager::RemoveItemDeleteQuery
  00011	85 c0		 test	 eax, eax
  00013	75 04		 jne	 SHORT $LN2@RemovePeny

; 1572 : }

  00015	5d		 pop	 ebp
  00016	c2 18 00	 ret	 24			; 00000018H
$LN2@RemovePeny:

; 1557 : 		return FALSE;
; 1558 : 
; 1559 : 	if( chState == 'I' )	// Inventory

  00019	80 7d 1c 49	 cmp	 BYTE PTR _chState$[ebp], 73 ; 00000049H
  0001d	75 59		 jne	 SHORT $LN3@RemovePeny

; 1560 : 	{
; 1561 : 		pMover->AddGold( -nItem_Count, FALSE );

  0001f	8b 45 14	 mov	 eax, DWORD PTR _nItem_Count$[ebp]
  00022	f7 d8		 neg	 eax
; File C:\IAGOS\server\v18\Source\Source\_Network\Objects\Obj.h

; 1238 : 	if( nGold == 0 )

  00024	0f 84 88 00 00
	00		 je	 $LN5@RemovePeny

; 1239 : 		return TRUE;
; 1240 : 
; 1241 : #ifdef __PERIN_BUY_BUG
; 1242 : 	float fTotal = static_cast<float>( GetGold() ) + static_cast<float>( nGold );

  0002a	8b 4d 10	 mov	 ecx, DWORD PTR _pMover$[ebp]
  0002d	66 0f 6e c8	 movd	 xmm1, eax
  00031	0f 5b c9	 cvtdq2ps xmm1, xmm1
  00034	66 0f 6e 41 34	 movd	 xmm0, DWORD PTR [ecx+52]
  00039	0f 5b c0	 cvtdq2ps xmm0, xmm0
  0003c	f3 0f 58 c8	 addss	 xmm1, xmm0

; 1243 : 	if( fTotal > static_cast<float>( INT_MAX ) )

  00040	f3 0f 10 05 00
	00 00 00	 movss	 xmm0, DWORD PTR __real@4f000000
  00048	0f 2f c8	 comiss	 xmm1, xmm0
  0004b	76 13		 jbe	 SHORT $LN9@RemovePeny

; 1244 : 		fTotal = static_cast<float>( INT_MAX );

  0004d	0f 28 c8	 movaps	 xmm1, xmm0

; 1246 : 		return FALSE;
; 1247 : 
; 1248 : 	SetGold( static_cast<int>( fTotal ) );

  00050	f3 0f 2c c1	 cvttss2si eax, xmm1
  00054	89 41 34	 mov	 DWORD PTR [ecx+52], eax
; File C:\IAGOS\server\v18\Source\Source\_Database\DbManagerFun.cpp

; 1571 : 	return TRUE;

  00057	b8 01 00 00 00	 mov	 eax, 1

; 1572 : }

  0005c	5d		 pop	 ebp
  0005d	c2 18 00	 ret	 24			; 00000018H
$LN9@RemovePeny:
  00060	0f 57 c0	 xorps	 xmm0, xmm0
; File C:\IAGOS\server\v18\Source\Source\_Network\Objects\Obj.h

; 1245 : 	else if( fTotal < 0.0f )

  00063	0f 2f c1	 comiss	 xmm0, xmm1
  00066	77 4a		 ja	 SHORT $LN5@RemovePeny

; 1246 : 		return FALSE;
; 1247 : 
; 1248 : 	SetGold( static_cast<int>( fTotal ) );

  00068	f3 0f 2c c1	 cvttss2si eax, xmm1
  0006c	89 41 34	 mov	 DWORD PTR [ecx+52], eax
; File C:\IAGOS\server\v18\Source\Source\_Database\DbManagerFun.cpp

; 1571 : 	return TRUE;

  0006f	b8 01 00 00 00	 mov	 eax, 1

; 1572 : }

  00074	5d		 pop	 ebp
  00075	c2 18 00	 ret	 24			; 00000018H
$LN3@RemovePeny:
  00078	56		 push	 esi

; 1562 : 	}
; 1563 : 	else	// Bank
; 1564 : 	{
; 1565 : 		DWORD dwGoldBank	= pMover->m_dwGoldBank[pMover->m_nSlot];

  00079	8b 75 10	 mov	 esi, DWORD PTR _pMover$[ebp]
  0007c	0f b6 8e c8 00
	00 00		 movzx	 ecx, BYTE PTR [esi+200]
  00083	8b 94 8e 20 3c
	00 00		 mov	 edx, DWORD PTR [esi+ecx*4+15392]

; 1566 : 		pMover->m_dwGoldBank[pMover->m_nSlot]	-= nItem_Count;

  0008a	8b c2		 mov	 eax, edx
  0008c	2b 45 14	 sub	 eax, DWORD PTR _nItem_Count$[ebp]
  0008f	89 84 8e 20 3c
	00 00		 mov	 DWORD PTR [esi+ecx*4+15392], eax

; 1567 : 		if( dwGoldBank < pMover->m_dwGoldBank[pMover->m_nSlot] )

  00096	0f b6 86 c8 00
	00 00		 movzx	 eax, BYTE PTR [esi+200]
  0009d	3b 94 86 20 3c
	00 00		 cmp	 edx, DWORD PTR [esi+eax*4+15392]
  000a4	73 0b		 jae	 SHORT $LN19@RemovePeny

; 1568 : 			pMover->m_dwGoldBank[pMover->m_nSlot]	= 0;

  000a6	c7 84 86 20 3c
	00 00 00 00 00
	00		 mov	 DWORD PTR [esi+eax*4+15392], 0
$LN19@RemovePeny:
  000b1	5e		 pop	 esi
$LN5@RemovePeny:

; 1571 : 	return TRUE;

  000b2	b8 01 00 00 00	 mov	 eax, 1

; 1572 : }

  000b7	5d		 pop	 ebp
  000b8	c2 18 00	 ret	 24			; 00000018H
?RemovePenya@CDbManager@@AAEHPAVCQuery@@PADPAVCMover@@HHD@Z ENDP ; CDbManager::RemovePenya
_TEXT	ENDS
; Function compile flags: /Ogtp
; File C:\IAGOS\server\v18\Source\Source\_Database\DbManagerFun.cpp
; File C:\Program Files\Microsoft Visual Studio\2022\Professional\VC\Tools\MSVC\14.44.35207\atlmfc\include\atltime.h
; File C:\IAGOS\server\v18\Source\Source\_Database\DbManagerFun.cpp
; File C:\Program Files\Microsoft Visual Studio\2022\Professional\VC\Tools\MSVC\14.44.35207\atlmfc\include\atltime.h
; File C:\IAGOS\server\v18\Source\Source\_Database\DbManagerFun.cpp
;	COMDAT ?GetStrTime@CDbManager@@AAEXPAVCTime@ATL@@PBD@Z
_TEXT	SEGMENT
_nYear$1$ = -76						; size = 4
_nDay$1$ = -72						; size = 4
_nMonth$1$ = -68					; size = 4
_cMonth$ = -64						; size = 3
_cDay$ = -60						; size = 3
_cHour$ = -56						; size = 3
_cMin$ = -52						; size = 3
_atm$1 = -48						; size = 36
_cYear$ = -12						; size = 5
__$ArrayPad$ = -4					; size = 4
_time$ = 8						; size = 4
_strbuf$ = 12						; size = 4
?GetStrTime@CDbManager@@AAEXPAVCTime@ATL@@PBD@Z PROC	; CDbManager::GetStrTime, COMDAT
; _this$ = ecx

; 60   : {

  00000	55		 push	 ebp
  00001	8b ec		 mov	 ebp, esp
  00003	83 ec 4c	 sub	 esp, 76			; 0000004cH
  00006	a1 00 00 00 00	 mov	 eax, DWORD PTR ___security_cookie
  0000b	33 c5		 xor	 eax, ebp
  0000d	89 45 fc	 mov	 DWORD PTR __$ArrayPad$[ebp], eax
  00010	53		 push	 ebx

; 61   : 	char cYear[5] = {0,};
; 62   : 	char cMonth[3] = {0,};

  00011	33 c0		 xor	 eax, eax
  00013	c7 45 f4 00 00
	00 00		 mov	 DWORD PTR _cYear$[ebp], 0
  0001a	56		 push	 esi
  0001b	8b 75 0c	 mov	 esi, DWORD PTR _strbuf$[ebp]
  0001e	57		 push	 edi
  0001f	8b 7d 08	 mov	 edi, DWORD PTR _time$[ebp]

; 63   : 	char cDay[3] = {0,};
; 64   : 	char cHour[3] = {0,};
; 65   : 	char cMin[3] = {0,};
; 66   : 	
; 67   : 	strncpy(cYear, strbuf, 4);

  00022	6a 04		 push	 4
  00024	66 89 45 c0	 mov	 WORD PTR _cMonth$[ebp], ax
  00028	88 45 c2	 mov	 BYTE PTR _cMonth$[ebp+2], al
  0002b	66 89 45 c4	 mov	 WORD PTR _cDay$[ebp], ax
  0002f	88 45 c6	 mov	 BYTE PTR _cDay$[ebp+2], al
  00032	66 89 45 c8	 mov	 WORD PTR _cHour$[ebp], ax
  00036	88 45 ca	 mov	 BYTE PTR _cHour$[ebp+2], al
  00039	66 89 45 cc	 mov	 WORD PTR _cMin$[ebp], ax
  0003d	88 45 ce	 mov	 BYTE PTR _cMin$[ebp+2], al
  00040	8d 45 f4	 lea	 eax, DWORD PTR _cYear$[ebp]
  00043	56		 push	 esi
  00044	50		 push	 eax
  00045	c6 45 f8 00	 mov	 BYTE PTR _cYear$[ebp+4], 0
  00049	e8 00 00 00 00	 call	 _strncpy

; 68   : 	strncpy(cMonth, strbuf + 4, 2 );

  0004e	6a 02		 push	 2
  00050	8d 46 04	 lea	 eax, DWORD PTR [esi+4]
  00053	50		 push	 eax
  00054	8d 45 c0	 lea	 eax, DWORD PTR _cMonth$[ebp]
  00057	50		 push	 eax
  00058	e8 00 00 00 00	 call	 _strncpy

; 69   : 	strncpy(cDay, strbuf + 6, 2 );

  0005d	6a 02		 push	 2
  0005f	8d 46 06	 lea	 eax, DWORD PTR [esi+6]
  00062	50		 push	 eax
  00063	8d 45 c4	 lea	 eax, DWORD PTR _cDay$[ebp]
  00066	50		 push	 eax
  00067	e8 00 00 00 00	 call	 _strncpy

; 70   : 	strncpy(cHour, strbuf + 8, 2 );

  0006c	6a 02		 push	 2
  0006e	8d 46 08	 lea	 eax, DWORD PTR [esi+8]
  00071	50		 push	 eax
  00072	8d 45 c8	 lea	 eax, DWORD PTR _cHour$[ebp]
  00075	50		 push	 eax
  00076	e8 00 00 00 00	 call	 _strncpy

; 71   : 	strncpy(cMin, strbuf + 10, 2 );

  0007b	6a 02		 push	 2
  0007d	8d 46 0a	 lea	 eax, DWORD PTR [esi+10]
  00080	50		 push	 eax
  00081	8d 45 cc	 lea	 eax, DWORD PTR _cMin$[ebp]
  00084	50		 push	 eax
  00085	e8 00 00 00 00	 call	 _strncpy

; 72   : 	
; 73   : 	CTime Timebuf( atoi(cYear), atoi(cMonth), atoi(cDay), atoi(cHour), atoi(cMin), 0 );

  0008a	8d 45 cc	 lea	 eax, DWORD PTR _cMin$[ebp]
  0008d	50		 push	 eax
  0008e	e8 00 00 00 00	 call	 _atoi
  00093	83 c4 40	 add	 esp, 64			; 00000040H
  00096	8b f0		 mov	 esi, eax
  00098	8d 45 c8	 lea	 eax, DWORD PTR _cHour$[ebp]
  0009b	50		 push	 eax
  0009c	e8 00 00 00 00	 call	 _atoi
  000a1	8b d8		 mov	 ebx, eax
  000a3	8d 45 c4	 lea	 eax, DWORD PTR _cDay$[ebp]
  000a6	50		 push	 eax
  000a7	e8 00 00 00 00	 call	 _atoi
  000ac	89 45 b8	 mov	 DWORD PTR _nDay$1$[ebp], eax
  000af	8d 45 c0	 lea	 eax, DWORD PTR _cMonth$[ebp]
  000b2	50		 push	 eax
  000b3	e8 00 00 00 00	 call	 _atoi
  000b8	89 45 bc	 mov	 DWORD PTR _nMonth$1$[ebp], eax
  000bb	8d 45 f4	 lea	 eax, DWORD PTR _cYear$[ebp]
  000be	50		 push	 eax
  000bf	e8 00 00 00 00	 call	 _atoi
  000c4	83 c4 10	 add	 esp, 16			; 00000010H
  000c7	89 45 b4	 mov	 DWORD PTR _nYear$1$[ebp], eax
; File C:\Program Files\Microsoft Visual Studio\2022\Professional\VC\Tools\MSVC\14.44.35207\atlmfc\include\atltime.h

; 436  : 	ATLENSURE( nYear >= 1970 );

  000ca	3d b2 07 00 00	 cmp	 eax, 1970		; 000007b2H
  000cf	7c 70		 jl	 SHORT $LN62@GetStrTime

; 437  : 	ATLENSURE( nMonth >= 1 && nMonth <= 12 );

  000d1	8b 4d bc	 mov	 ecx, DWORD PTR _nMonth$1$[ebp]
  000d4	49		 dec	 ecx
  000d5	83 f9 0b	 cmp	 ecx, 11			; 0000000bH
  000d8	77 67		 ja	 SHORT $LN62@GetStrTime

; 438  : 	ATLENSURE( nDay >= 1 && nDay <= 31 );

  000da	8b 55 b8	 mov	 edx, DWORD PTR _nDay$1$[ebp]
  000dd	8d 42 ff	 lea	 eax, DWORD PTR [edx-1]
  000e0	83 f8 1e	 cmp	 eax, 30			; 0000001eH
  000e3	77 5c		 ja	 SHORT $LN62@GetStrTime

; 439  : 	ATLENSURE( nHour >= 0 && nHour <= 23 );

  000e5	83 fb 17	 cmp	 ebx, 23			; 00000017H
  000e8	77 57		 ja	 SHORT $LN62@GetStrTime

; 440  : 	ATLENSURE( nMin >= 0 && nMin <= 59 );

  000ea	83 fe 3b	 cmp	 esi, 59			; 0000003bH
  000ed	77 52		 ja	 SHORT $LN62@GetStrTime

; 441  : 	ATLENSURE( nSec >= 0 && nSec <= 59 );
; 442  : 
; 443  : #pragma warning (pop)
; 444  : 
; 445  : 	struct tm atm;
; 446  : 
; 447  : 	atm.tm_sec = nSec;
; 448  : 	atm.tm_min = nMin;
; 449  : 	atm.tm_hour = nHour;
; 450  : 	atm.tm_mday = nDay;
; 451  : 	atm.tm_mon = nMonth - 1;        // tm_mon is 0 based
; 452  : 	atm.tm_year = nYear - 1900;     // tm_year is 1900 based

  000ef	8b 45 b4	 mov	 eax, DWORD PTR _nYear$1$[ebp]
  000f2	05 94 f8 ff ff	 add	 eax, -1900		; fffff894H
  000f7	c7 45 d0 00 00
	00 00		 mov	 DWORD PTR _atm$1[ebp], 0
  000fe	89 45 e4	 mov	 DWORD PTR _atm$1[ebp+20], eax

; 453  : 	atm.tm_isdst = nDST;
; 454  : 
; 455  : 	m_time = _mktime64(&atm);

  00101	8d 45 d0	 lea	 eax, DWORD PTR _atm$1[ebp]
  00104	50		 push	 eax
  00105	89 75 d4	 mov	 DWORD PTR _atm$1[ebp+4], esi
  00108	89 5d d8	 mov	 DWORD PTR _atm$1[ebp+8], ebx
  0010b	89 55 dc	 mov	 DWORD PTR _atm$1[ebp+12], edx
  0010e	89 4d e0	 mov	 DWORD PTR _atm$1[ebp+16], ecx
  00111	c7 45 f0 ff ff
	ff ff		 mov	 DWORD PTR _atm$1[ebp+32], -1
  00118	e8 00 00 00 00	 call	 __mktime64

; 456  : 	ATLASSUME(m_time != -1);       // indicates an illegal input time
; 457  : 	if(m_time == -1)

  0011d	8b c8		 mov	 ecx, eax
  0011f	83 c4 04	 add	 esp, 4
  00122	23 ca		 and	 ecx, edx
  00124	83 f9 ff	 cmp	 ecx, -1
  00127	74 22		 je	 SHORT $LN75@GetStrTime
; File C:\IAGOS\server\v18\Source\Source\_Database\DbManagerFun.cpp

; 74   : 	*time = Timebuf;

  00129	8b 4d fc	 mov	 ecx, DWORD PTR __$ArrayPad$[ebp]
  0012c	89 07		 mov	 DWORD PTR [edi], eax

; 75   : }

  0012e	33 cd		 xor	 ecx, ebp
  00130	89 57 04	 mov	 DWORD PTR [edi+4], edx
  00133	5f		 pop	 edi
  00134	5e		 pop	 esi
  00135	5b		 pop	 ebx
  00136	e8 00 00 00 00	 call	 @__security_check_cookie@4
  0013b	8b e5		 mov	 esp, ebp
  0013d	5d		 pop	 ebp
  0013e	c2 08 00	 ret	 8
$LN62@GetStrTime:
; File C:\Program Files\Microsoft Visual Studio\2022\Professional\VC\Tools\MSVC\14.44.35207\atlmfc\include\atltime.h

; 440  : 	ATLENSURE( nMin >= 0 && nMin <= 59 );

  00141	68 05 40 00 80	 push	 -2147467259		; 80004005H
  00146	e8 00 00 00 00	 call	 ?AtlThrowImpl@ATL@@YGXJ@Z ; ATL::AtlThrowImpl
$LN75@GetStrTime:

; 458  : 	{
; 459  : 		AtlThrow(E_INVALIDARG);

  0014b	68 57 00 07 80	 push	 -2147024809		; 80070057H
  00150	e8 00 00 00 00	 call	 ?AtlThrowImpl@ATL@@YGXJ@Z ; ATL::AtlThrowImpl
$LN73@GetStrTime:
  00155	cc		 int	 3
?GetStrTime@CDbManager@@AAEXPAVCTime@ATL@@PBD@Z ENDP	; CDbManager::GetStrTime
_TEXT	ENDS
; Function compile flags: /Ogtp
; File C:\IAGOS\server\v18\Source\Source\_Database\DbManagerFun.cpp
;	COMDAT ?NormalizePlayerData@CDbManager@@AAEHPAVCMover@@@Z
_TEXT	SEGMENT
tv805 = -140						; size = 4
_nNumberofIndex$1$ = -136				; size = 4
_pMover$GSCopy$1$ = -132				; size = 4
_adwEquipment$ = -128					; size = 124
__$ArrayPad$ = -4					; size = 4
_pMover$ = 8						; size = 4
?NormalizePlayerData@CDbManager@@AAEHPAVCMover@@@Z PROC	; CDbManager::NormalizePlayerData, COMDAT
; _this$ = ecx

; 1769 : {

  00000	55		 push	 ebp
  00001	8b ec		 mov	 ebp, esp
  00003	81 ec 8c 00 00
	00		 sub	 esp, 140		; 0000008cH
  00009	a1 00 00 00 00	 mov	 eax, DWORD PTR ___security_cookie
  0000e	33 c5		 xor	 eax, ebp
  00010	89 45 fc	 mov	 DWORD PTR __$ArrayPad$[ebp], eax
  00013	53		 push	 ebx
  00014	8b 5d 08	 mov	 ebx, DWORD PTR _pMover$[ebp]

; 1770 : 	int nMax	= pMover->m_Inventory.m_dwItemMax;
; 1771 : 	int nNumberofIndex	= pMover->m_Inventory.m_dwIndexNum;
; 1772 : 	DWORD dwId;
; 1773 : 	for( int i = 0; i < nMax; i++ )

  00017	33 d2		 xor	 edx, edx
  00019	56		 push	 esi
  0001a	57		 push	 edi
  0001b	89 9d 7c ff ff
	ff		 mov	 DWORD PTR _pMover$GSCopy$1$[ebp], ebx
  00021	8b b3 c4 3b 00
	00		 mov	 esi, DWORD PTR [ebx+15300]
  00027	8b bb bc 3b 00
	00		 mov	 edi, DWORD PTR [ebx+15292]
  0002d	89 bd 78 ff ff
	ff		 mov	 DWORD PTR _nNumberofIndex$1$[ebp], edi
  00033	85 f6		 test	 esi, esi
  00035	0f 8e f4 00 00
	00		 jle	 $LN12@NormalizeP
  0003b	0f 1f 44 00 00	 npad	 5
$LL4@NormalizeP:

; 1774 : 	{
; 1775 : 		dwId	= pMover->m_Inventory.m_apIndex[i];

  00040	8b 83 b8 3b 00
	00		 mov	 eax, DWORD PTR [ebx+15288]
  00046	8d 3c 90	 lea	 edi, DWORD PTR [eax+edx*4]
  00049	8b 07		 mov	 eax, DWORD PTR [edi]

; 1776 : 		if( dwId != NULL_ID )

  0004b	83 f8 ff	 cmp	 eax, -1
  0004e	0f 84 8c 00 00
	00		 je	 $LN2@NormalizeP

; 1777 : 		{
; 1778 : 			if( pMover->m_Inventory.m_apItem[dwId].m_dwObjIndex != i )

  00054	8b 8b c0 3b 00
	00		 mov	 ecx, DWORD PTR [ebx+15296]
  0005a	69 c0 98 00 00
	00		 imul	 eax, eax, 152
  00060	39 54 08 2c	 cmp	 DWORD PTR [eax+ecx+44], edx
  00064	74 7a		 je	 SHORT $LN2@NormalizeP

; 1779 : 			{
; 1780 : 
; 1781 : 				DWORD dwIndex	= NULL_ID;
; 1782 : 				for( int j = 0; j < nMax; j++ )

  00066	33 c0		 xor	 eax, eax

; 1783 : 				{	
; 1784 : 					if( pMover->m_Inventory.m_apItem[j].m_dwObjIndex == i )

  00068	83 c1 2c	 add	 ecx, 44			; 0000002cH
  0006b	0f 1f 44 00 00	 npad	 5
$LL7@NormalizeP:
  00070	39 11		 cmp	 DWORD PTR [ecx], edx
  00072	74 6a		 je	 SHORT $LN40@NormalizeP

; 1779 : 			{
; 1780 : 
; 1781 : 				DWORD dwIndex	= NULL_ID;
; 1782 : 				for( int j = 0; j < nMax; j++ )

  00074	40		 inc	 eax
  00075	81 c1 98 00 00
	00		 add	 ecx, 152		; 00000098H
  0007b	3b c6		 cmp	 eax, esi
  0007d	7c f1		 jl	 SHORT $LL7@NormalizeP

; 1793 : 				}
; 1794 : 				else
; 1795 : 				{
; 1796 : 					if( i >= nNumberofIndex )

  0007f	3b 95 78 ff ff
	ff		 cmp	 edx, DWORD PTR _nNumberofIndex$1$[ebp]
  00085	7c 08		 jl	 SHORT $LN25@NormalizeP

; 1797 : 					{
; 1798 : 						pMover->m_Inventory.m_apIndex[i]	= NULL_ID;

  00087	c7 07 ff ff ff
	ff		 mov	 DWORD PTR [edi], -1

; 1799 : 					}

  0008d	eb 51		 jmp	 SHORT $LN2@NormalizeP
$LN25@NormalizeP:

; 1800 : 					else
; 1801 : 					{
; 1802 : 						int j = NULL;

  0008f	8b bb c0 3b 00
	00		 mov	 edi, DWORD PTR [ebx+15296]
  00095	33 c0		 xor	 eax, eax
  00097	8d 4f 2c	 lea	 ecx, DWORD PTR [edi+44]
  0009a	66 0f 1f 44 00
	00		 npad	 6
$LL10@NormalizeP:

; 1804 : 						{
; 1805 : 							if( pMover->m_Inventory.m_apItem[j].m_dwObjIndex == NULL_ID )

  000a0	83 39 ff	 cmp	 DWORD PTR [ecx], -1
  000a3	74 0d		 je	 SHORT $LN41@NormalizeP

; 1803 : 						for( ; j < nMax; j++ )

  000a5	40		 inc	 eax
  000a6	81 c1 98 00 00
	00		 add	 ecx, 152		; 00000098H
  000ac	3b c6		 cmp	 eax, esi
  000ae	7c f0		 jl	 SHORT $LL10@NormalizeP

; 1809 : 								break;
; 1810 : 							}
; 1811 : 						}
; 1812 : 						if( j == nMax ) {

  000b0	eb 13		 jmp	 SHORT $LN9@NormalizeP
$LN41@NormalizeP:

; 1806 : 							{
; 1807 : 								pMover->m_Inventory.m_apItem[j].m_dwObjIndex	= i;

  000b2	69 c8 98 00 00
	00		 imul	 ecx, eax, 152
  000b8	89 54 39 2c	 mov	 DWORD PTR [ecx+edi+44], edx

; 1808 : 								pMover->m_Inventory.m_apIndex[i]	= j;

  000bc	8b 8b b8 3b 00
	00		 mov	 ecx, DWORD PTR [ebx+15288]
  000c2	89 04 91	 mov	 DWORD PTR [ecx+edx*4], eax
$LN9@NormalizeP:

; 1809 : 								break;
; 1810 : 							}
; 1811 : 						}
; 1812 : 						if( j == nMax ) {

  000c5	3b c6		 cmp	 eax, esi
  000c7	75 17		 jne	 SHORT $LN2@NormalizeP

; 1845 : 	}
; 1846 : 	return TRUE;
; 1847 : }

  000c9	5f		 pop	 edi
  000ca	5e		 pop	 esi
  000cb	33 c0		 xor	 eax, eax
  000cd	5b		 pop	 ebx
  000ce	8b 4d fc	 mov	 ecx, DWORD PTR __$ArrayPad$[ebp]
  000d1	33 cd		 xor	 ecx, ebp
  000d3	e8 00 00 00 00	 call	 @__security_check_cookie@4
  000d8	8b e5		 mov	 esp, ebp
  000da	5d		 pop	 ebp
  000db	c2 04 00	 ret	 4
$LN40@NormalizeP:

; 1785 : 					{
; 1786 : 						dwIndex	= j;
; 1787 : 						break;
; 1788 : 					}
; 1789 : 				}
; 1790 : 				if( dwIndex != NULL_ID )
; 1791 : 				{
; 1792 : 					pMover->m_Inventory.m_apIndex[i]	= dwIndex;

  000de	89 07		 mov	 DWORD PTR [edi], eax
$LN2@NormalizeP:

; 1770 : 	int nMax	= pMover->m_Inventory.m_dwItemMax;
; 1771 : 	int nNumberofIndex	= pMover->m_Inventory.m_dwIndexNum;
; 1772 : 	DWORD dwId;
; 1773 : 	for( int i = 0; i < nMax; i++ )

  000e0	42		 inc	 edx
  000e1	3b d6		 cmp	 edx, esi
  000e3	0f 8c 57 ff ff
	ff		 jl	 $LL4@NormalizeP

; 1813 : 							ASSERT( 0 );
; 1814 : 							return FALSE;
; 1815 : 						}
; 1816 : 					}
; 1817 : 				}
; 1818 : 			}
; 1819 : 		}
; 1820 : 	}
; 1821 : 
; 1822 : 	DWORD dwObjIndex;
; 1823 : 	for( int i = 0; i < nMax; i++ )

  000e9	33 c9		 xor	 ecx, ecx
  000eb	33 d2		 xor	 edx, edx
  000ed	0f 1f 00	 npad	 3
$LL13@NormalizeP:

; 1824 : 	{
; 1825 : 		dwObjIndex	= pMover->m_Inventory.m_apItem[i].m_dwObjIndex;

  000f0	8b bb c0 3b 00
	00		 mov	 edi, DWORD PTR [ebx+15296]
  000f6	8b 5c 17 2c	 mov	 ebx, DWORD PTR [edi+edx+44]

; 1826 : 		if( dwObjIndex != NULL_ID )

  000fa	83 fb ff	 cmp	 ebx, -1
  000fd	74 19		 je	 SHORT $LN11@NormalizeP

; 1827 : 		{
; 1828 : 			if( pMover->m_Inventory.m_apIndex[dwObjIndex] != i )

  000ff	8b 85 7c ff ff
	ff		 mov	 eax, DWORD PTR _pMover$GSCopy$1$[ebp]
  00105	8b 80 b8 3b 00
	00		 mov	 eax, DWORD PTR [eax+15288]
  0010b	39 0c 98	 cmp	 DWORD PTR [eax+ebx*4], ecx
  0010e	74 08		 je	 SHORT $LN11@NormalizeP

; 1829 : 				pMover->m_Inventory.m_apItem[i].m_dwObjIndex	= NULL_ID;

  00110	c7 44 17 2c ff
	ff ff ff	 mov	 DWORD PTR [edi+edx+44], -1
$LN11@NormalizeP:

; 1813 : 							ASSERT( 0 );
; 1814 : 							return FALSE;
; 1815 : 						}
; 1816 : 					}
; 1817 : 				}
; 1818 : 			}
; 1819 : 		}
; 1820 : 	}
; 1821 : 
; 1822 : 	DWORD dwObjIndex;
; 1823 : 	for( int i = 0; i < nMax; i++ )

  00118	8b 9d 7c ff ff
	ff		 mov	 ebx, DWORD PTR _pMover$GSCopy$1$[ebp]
  0011e	41		 inc	 ecx
  0011f	81 c2 98 00 00
	00		 add	 edx, 152		; 00000098H
  00125	3b ce		 cmp	 ecx, esi
  00127	7c c7		 jl	 SHORT $LL13@NormalizeP
  00129	8b bd 78 ff ff
	ff		 mov	 edi, DWORD PTR _nNumberofIndex$1$[ebp]
$LN12@NormalizeP:

; 1830 : 		}
; 1831 : 	}
; 1832 : 
; 1833 : 	DWORD adwEquipment[MAX_HUMAN_PARTS];
; 1834 : 	memset( adwEquipment, 0xff, sizeof(DWORD) * MAX_HUMAN_PARTS );

  0012f	6a 7c		 push	 124			; 0000007cH
  00131	8d 45 80	 lea	 eax, DWORD PTR _adwEquipment$[ebp]
  00134	68 ff 00 00 00	 push	 255			; 000000ffH
  00139	50		 push	 eax
  0013a	e8 00 00 00 00	 call	 _memset
  0013f	83 c4 0c	 add	 esp, 12			; 0000000cH

; 1835 : 	for( int i = nNumberofIndex; i < nMax; i++ )

  00142	3b fe		 cmp	 edi, esi
  00144	7d 22		 jge	 SHORT $LN15@NormalizeP

; 1836 : 	{
; 1837 : 		dwId	= pMover->m_Inventory.m_apIndex[i];

  00146	8b 83 b8 3b 00
	00		 mov	 eax, DWORD PTR [ebx+15288]
  0014c	8d 4d 80	 lea	 ecx, DWORD PTR _adwEquipment$[ebp]
  0014f	2b f7		 sub	 esi, edi
  00151	8d 04 b8	 lea	 eax, DWORD PTR [eax+edi*4]
$LL50@NormalizeP:
  00154	8b 10		 mov	 edx, DWORD PTR [eax]

; 1838 : 		if( dwId != NULL_ID )

  00156	83 fa ff	 cmp	 edx, -1
  00159	74 02		 je	 SHORT $LN51@NormalizeP

; 1839 : 			adwEquipment[i - nNumberofIndex]	= dwId;

  0015b	89 11		 mov	 DWORD PTR [ecx], edx
$LN51@NormalizeP:

; 1835 : 	for( int i = nNumberofIndex; i < nMax; i++ )

  0015d	83 c0 04	 add	 eax, 4
  00160	83 c1 04	 add	 ecx, 4
  00163	83 ee 01	 sub	 esi, 1
  00166	75 ec		 jne	 SHORT $LL50@NormalizeP
$LN15@NormalizeP:

; 1840 : 	}
; 1841 : 	for( int i = 0; i < MAX_HUMAN_PARTS; i++ )

  00168	33 c0		 xor	 eax, eax
  0016a	8d 8b 70 3f 00
	00		 lea	 ecx, DWORD PTR [ebx+16240]
$LL19@NormalizeP:

; 1842 : 	{
; 1843 : 		if( pMover->m_aEquipInfo[i].dwId != adwEquipment[i] )

  00170	8b 54 85 80	 mov	 edx, DWORD PTR _adwEquipment$[ebp+eax*4]
  00174	39 11		 cmp	 DWORD PTR [ecx], edx
  00176	74 02		 je	 SHORT $LN17@NormalizeP

; 1844 : 			pMover->m_aEquipInfo[i].dwId	= adwEquipment[i];			

  00178	89 11		 mov	 DWORD PTR [ecx], edx
$LN17@NormalizeP:

; 1840 : 	}
; 1841 : 	for( int i = 0; i < MAX_HUMAN_PARTS; i++ )

  0017a	40		 inc	 eax
  0017b	83 c1 0c	 add	 ecx, 12			; 0000000cH
  0017e	83 f8 1f	 cmp	 eax, 31			; 0000001fH
  00181	7c ed		 jl	 SHORT $LL19@NormalizeP

; 1845 : 	}
; 1846 : 	return TRUE;
; 1847 : }

  00183	8b 4d fc	 mov	 ecx, DWORD PTR __$ArrayPad$[ebp]
  00186	b8 01 00 00 00	 mov	 eax, 1
  0018b	5f		 pop	 edi
  0018c	5e		 pop	 esi
  0018d	33 cd		 xor	 ecx, ebp
  0018f	5b		 pop	 ebx
  00190	e8 00 00 00 00	 call	 @__security_check_cookie@4
  00195	8b e5		 mov	 esp, ebp
  00197	5d		 pop	 ebp
  00198	c2 04 00	 ret	 4
?NormalizePlayerData@CDbManager@@AAEHPAVCMover@@@Z ENDP	; CDbManager::NormalizePlayerData
_TEXT	ENDS
; Function compile flags: /Ogtp
; File C:\IAGOS\server\v18\Source\Source\_Database\DbManagerFun.cpp
; File C:\IAGOS\server\v18\Source\Source\_Network\Objects\Obj.h
; File C:\IAGOS\server\v18\Source\Source\_Database\DbManagerFun.cpp
; File C:\IAGOS\server\v18\Source\Source\_Common\Data.h
; File C:\IAGOS\server\v18\Source\Source\_Database\DbManagerFun.cpp
;	COMDAT ?IsAbnormalPlayerData@CDbManager@@AAEHPAVCMover@@@Z
_TEXT	SEGMENT
_adwEquipment$ = -128					; size = 124
__$ArrayPad$ = -4					; size = 4
_pMover$ = 8						; size = 4
?IsAbnormalPlayerData@CDbManager@@AAEHPAVCMover@@@Z PROC ; CDbManager::IsAbnormalPlayerData, COMDAT
; _this$ = ecx

; 1717 : {

  00000	55		 push	 ebp
  00001	8b ec		 mov	 ebp, esp
  00003	81 ec 80 00 00
	00		 sub	 esp, 128		; 00000080H
  00009	a1 00 00 00 00	 mov	 eax, DWORD PTR ___security_cookie
  0000e	33 c5		 xor	 eax, ebp
  00010	89 45 fc	 mov	 DWORD PTR __$ArrayPad$[ebp], eax
  00013	53		 push	 ebx
  00014	8b 5d 08	 mov	 ebx, DWORD PTR _pMover$[ebp]

; 1718 : 	DWORD dwId;
; 1719 : 	int nMax	= pMover->m_Inventory.m_dwItemMax;
; 1720 : 	int nNumberofIndex	= pMover->m_Inventory.m_dwIndexNum;
; 1721 : 
; 1722 : 	for( int i = 0; i < nMax; i++ )

  00017	33 d2		 xor	 edx, edx
  00019	56		 push	 esi
  0001a	57		 push	 edi
  0001b	8b b3 c4 3b 00
	00		 mov	 esi, DWORD PTR [ebx+15300]
  00021	8b bb bc 3b 00
	00		 mov	 edi, DWORD PTR [ebx+15292]
  00027	85 f6		 test	 esi, esi
  00029	0f 8e 8b 00 00
	00		 jle	 $LN43@IsAbnormal

; 1723 : 	{
; 1724 : 		dwId	= pMover->m_Inventory.m_apIndex[i];

  0002f	8b bb b8 3b 00
	00		 mov	 edi, DWORD PTR [ebx+15288]
$LL4@IsAbnormal:
  00035	8b 07		 mov	 eax, DWORD PTR [edi]

; 1725 : 		if( dwId != NULL_ID )

  00037	83 f8 ff	 cmp	 eax, -1
  0003a	74 16		 je	 SHORT $LN2@IsAbnormal

; 1726 : 		{
; 1727 : 			if( pMover->m_Inventory.m_apItem[dwId].m_dwObjIndex != i )

  0003c	69 c8 98 00 00
	00		 imul	 ecx, eax, 152
  00042	8b 83 c0 3b 00
	00		 mov	 eax, DWORD PTR [ebx+15296]
  00048	39 54 01 2c	 cmp	 DWORD PTR [ecx+eax+44], edx
  0004c	0f 85 d4 00 00
	00		 jne	 $LN37@IsAbnormal
$LN2@IsAbnormal:

; 1718 : 	DWORD dwId;
; 1719 : 	int nMax	= pMover->m_Inventory.m_dwItemMax;
; 1720 : 	int nNumberofIndex	= pMover->m_Inventory.m_dwIndexNum;
; 1721 : 
; 1722 : 	for( int i = 0; i < nMax; i++ )

  00052	42		 inc	 edx
  00053	83 c7 04	 add	 edi, 4
  00056	3b d6		 cmp	 edx, esi
  00058	7c db		 jl	 SHORT $LL4@IsAbnormal

; 1734 : 	{
; 1735 : 		dwObjIndex	= pMover->m_Inventory.m_apItem[i].m_dwObjIndex;

  0005a	8b 8b c0 3b 00
	00		 mov	 ecx, DWORD PTR [ebx+15296]
  00060	33 d2		 xor	 edx, edx
  00062	83 c1 08	 add	 ecx, 8
$LL7@IsAbnormal:
  00065	8b 79 24	 mov	 edi, DWORD PTR [ecx+36]

; 1736 : 		if( dwObjIndex != NULL_ID )

  00068	83 ff ff	 cmp	 edi, -1
  0006b	74 0f		 je	 SHORT $LN59@IsAbnormal

; 1737 : 		{
; 1738 : 			if( pMover->m_Inventory.m_apIndex[dwObjIndex] != i )

  0006d	8b 83 b8 3b 00
	00		 mov	 eax, DWORD PTR [ebx+15288]
  00073	39 14 b8	 cmp	 DWORD PTR [eax+edi*4], edx
  00076	0f 85 aa 00 00
	00		 jne	 $LN37@IsAbnormal
$LN59@IsAbnormal:
; File C:\IAGOS\server\v18\Source\Source\_Network\Objects\Obj.h

; 131  : 	BOOL	IsEmpty()	{	return m_dwItemId ? FALSE : TRUE;	}

  0007c	8b 01		 mov	 eax, DWORD PTR [ecx]
  0007e	85 c0		 test	 eax, eax
; File C:\IAGOS\server\v18\Source\Source\_Database\DbManagerFun.cpp

; 1741 : 		if( FALSE == pMover->m_Inventory.m_apItem[i].IsEmpty() )

  00080	74 27		 je	 SHORT $LN5@IsAbnormal
; File C:\IAGOS\server\v18\Source\Source\_Common\Data.h

; 270  : 	if( dwIndex >= (DWORD)m_nMaxIndex )

  00082	3b 05 4c 00 00
	00		 cmp	 eax, DWORD PTR ?prj@@3VCProject@@A+76
  00088	0f 83 98 00 00
	00		 jae	 $LN37@IsAbnormal

; 271  : 		return NULL;
; 272  : 	return (T*) m_apOffset[ dwIndex ];

  0008e	8b 3d 3c 00 00
	00		 mov	 edi, DWORD PTR ?prj@@3VCProject@@A+60
  00094	8b 04 87	 mov	 eax, DWORD PTR [edi+eax*4]
; File C:\IAGOS\server\v18\Source\Source\_Database\DbManagerFun.cpp

; 1746 : 				|| pItemProp->dwItemKind3 == IK3_VIRTUAL/*It is monster's virtual weapon*/ )

  00097	85 c0		 test	 eax, eax
  00099	0f 84 87 00 00
	00		 je	 $LN37@IsAbnormal
  0009f	83 78 78 0a	 cmp	 DWORD PTR [eax+120], 10	; 0000000aH
  000a3	0f 84 7d 00 00
	00		 je	 $LN37@IsAbnormal
$LN5@IsAbnormal:

; 1728 : 				return TRUE;
; 1729 : 		}
; 1730 : 	}
; 1731 : 
; 1732 : 	DWORD dwObjIndex;
; 1733 : 	for( int i = 0; i < nMax; i++ )

  000a9	42		 inc	 edx
  000aa	81 c1 98 00 00
	00		 add	 ecx, 152		; 00000098H
  000b0	3b d6		 cmp	 edx, esi
  000b2	7c b1		 jl	 SHORT $LL7@IsAbnormal
  000b4	8b bb bc 3b 00
	00		 mov	 edi, DWORD PTR [ebx+15292]
$LN43@IsAbnormal:

; 1747 : 				return TRUE;
; 1748 : 		}
; 1749 : 	}
; 1750 : 
; 1751 : 	DWORD adwEquipment[MAX_HUMAN_PARTS];
; 1752 : 	memset( adwEquipment, 0xff, sizeof(DWORD) * MAX_HUMAN_PARTS );

  000ba	6a 7c		 push	 124			; 0000007cH
  000bc	8d 45 80	 lea	 eax, DWORD PTR _adwEquipment$[ebp]
  000bf	68 ff 00 00 00	 push	 255			; 000000ffH
  000c4	50		 push	 eax
  000c5	e8 00 00 00 00	 call	 _memset
  000ca	83 c4 0c	 add	 esp, 12			; 0000000cH

; 1753 : 	for( int i = nNumberofIndex; i < nMax; i++ )

  000cd	3b fe		 cmp	 edi, esi
  000cf	7d 23		 jge	 SHORT $LN9@IsAbnormal

; 1754 : 	{
; 1755 : 		dwId	= pMover->m_Inventory.m_apIndex[i];

  000d1	8b 83 b8 3b 00
	00		 mov	 eax, DWORD PTR [ebx+15288]
  000d7	8d 4d 80	 lea	 ecx, DWORD PTR _adwEquipment$[ebp]
  000da	2b f7		 sub	 esi, edi
  000dc	8d 04 b8	 lea	 eax, DWORD PTR [eax+edi*4]
  000df	90		 npad	 1
$LL44@IsAbnormal:
  000e0	8b 10		 mov	 edx, DWORD PTR [eax]

; 1756 : 		if( dwId != NULL_ID )

  000e2	83 fa ff	 cmp	 edx, -1
  000e5	74 02		 je	 SHORT $LN45@IsAbnormal

; 1757 : 			adwEquipment[i - nNumberofIndex]	= dwId;

  000e7	89 11		 mov	 DWORD PTR [ecx], edx
$LN45@IsAbnormal:

; 1753 : 	for( int i = nNumberofIndex; i < nMax; i++ )

  000e9	83 c0 04	 add	 eax, 4
  000ec	83 c1 04	 add	 ecx, 4
  000ef	83 ee 01	 sub	 esi, 1
  000f2	75 ec		 jne	 SHORT $LL44@IsAbnormal
$LN9@IsAbnormal:

; 1758 : 	}
; 1759 : 	for( int i = 0; i < MAX_HUMAN_PARTS; i++ )

  000f4	33 c9		 xor	 ecx, ecx
  000f6	8d 93 70 3f 00
	00		 lea	 edx, DWORD PTR [ebx+16240]
  000fc	0f 1f 40 00	 npad	 4
$LL13@IsAbnormal:

; 1760 : 	{
; 1761 : 		if( adwEquipment[i] != pMover->m_aEquipInfo[i].dwId )

  00100	8b 44 8d 80	 mov	 eax, DWORD PTR _adwEquipment$[ebp+ecx*4]
  00104	3b 02		 cmp	 eax, DWORD PTR [edx]
  00106	75 1e		 jne	 SHORT $LN37@IsAbnormal

; 1758 : 	}
; 1759 : 	for( int i = 0; i < MAX_HUMAN_PARTS; i++ )

  00108	41		 inc	 ecx
  00109	83 c2 0c	 add	 edx, 12			; 0000000cH
  0010c	83 f9 1f	 cmp	 ecx, 31			; 0000001fH
  0010f	7c ef		 jl	 SHORT $LL13@IsAbnormal

; 1762 : 			return TRUE;
; 1763 : 	}
; 1764 : 
; 1765 : 	return FALSE;
; 1766 : }

  00111	5f		 pop	 edi
  00112	5e		 pop	 esi
  00113	33 c0		 xor	 eax, eax
  00115	5b		 pop	 ebx
  00116	8b 4d fc	 mov	 ecx, DWORD PTR __$ArrayPad$[ebp]
  00119	33 cd		 xor	 ecx, ebp
  0011b	e8 00 00 00 00	 call	 @__security_check_cookie@4
  00120	8b e5		 mov	 esp, ebp
  00122	5d		 pop	 ebp
  00123	c2 04 00	 ret	 4
$LN37@IsAbnormal:
  00126	8b 4d fc	 mov	 ecx, DWORD PTR __$ArrayPad$[ebp]
  00129	b8 01 00 00 00	 mov	 eax, 1
  0012e	5f		 pop	 edi
  0012f	5e		 pop	 esi
  00130	33 cd		 xor	 ecx, ebp
  00132	5b		 pop	 ebx
  00133	e8 00 00 00 00	 call	 @__security_check_cookie@4
  00138	8b e5		 mov	 esp, ebp
  0013a	5d		 pop	 ebp
  0013b	c2 04 00	 ret	 4
?IsAbnormalPlayerData@CDbManager@@AAEHPAVCMover@@@Z ENDP ; CDbManager::IsAbnormalPlayerData
_TEXT	ENDS
; Function compile flags: /Ogtp
; File C:\IAGOS\server\v18\Source\Source\_Database\DbManagerFun.cpp
; File C:\IAGOS\server\v18\Source\Source\_network\CmnHdr.h
; File C:\IAGOS\server\v18\Source\Source\_Database\DbManagerFun.cpp
; File C:\IAGOS\server\v18\Source\Source\_network\CmnHdr.h
; File C:\IAGOS\server\v18\Source\Source\_Database\DbManagerFun.cpp
; File C:\IAGOS\server\v18\Source\Source\_network\CmnHdr.h
; File C:\IAGOS\server\v18\Source\Source\_Database\DbManagerFun.cpp
; File C:\IAGOS\server\v18\Source\Source\_network\CmnHdr.h
; File C:\IAGOS\server\v18\Source\Source\_Database\DbManagerFun.cpp
; File C:\IAGOS\server\v18\Source\Source\_network\CmnHdr.h
; File C:\IAGOS\server\v18\Source\Source\_Database\DbManagerFun.cpp
; File C:\IAGOS\server\v18\Source\Source\_network\CmnHdr.h
; File C:\IAGOS\server\v18\Source\Source\_Database\DbManagerFun.cpp
; File C:\IAGOS\server\v18\Source\Source\_network\CmnHdr.h
; File C:\IAGOS\server\v18\Source\Source\_Database\DbManagerFun.cpp
; File C:\IAGOS\server\v18\Source\Source\_network\CmnHdr.h
; File C:\IAGOS\server\v18\Source\Source\_Database\DbManagerFun.cpp
; File C:\IAGOS\server\v18\Source\Source\_network\CmnHdr.h
; File C:\IAGOS\server\v18\Source\Source\_Database\DbManagerFun.cpp
; File C:\IAGOS\server\v18\Source\Source\_network\CmnHdr.h
; File C:\IAGOS\server\v18\Source\Source\_Database\DbManagerFun.cpp
; File C:\IAGOS\server\v18\Source\Source\_network\CmnHdr.h
; File C:\IAGOS\server\v18\Source\Source\_Database\DbManagerFun.cpp
; File C:\IAGOS\server\v18\Source\Source\_network\CmnHdr.h
; File C:\IAGOS\server\v18\Source\Source\_Database\DbManagerFun.cpp
; File C:\IAGOS\server\v18\Source\Source\_network\CmnHdr.h
; File C:\IAGOS\server\v18\Source\Source\_Database\DbManagerFun.cpp
; File C:\IAGOS\server\v18\Source\Source\_network\CmnHdr.h
; File C:\IAGOS\server\v18\Source\Source\_Database\DbManagerFun.cpp
; File C:\IAGOS\server\v18\Source\Source\_network\CmnHdr.h
; File C:\IAGOS\server\v18\Source\Source\_Database\DbManagerFun.cpp
; File C:\IAGOS\server\v18\Source\Source\_network\CmnHdr.h
; File C:\IAGOS\server\v18\Source\Source\_Database\DbManagerFun.cpp
; File C:\IAGOS\server\v18\Source\Source\_network\CmnHdr.h
; File C:\IAGOS\server\v18\Source\Source\_Database\DbManagerFun.cpp
; File C:\IAGOS\server\v18\Source\Source\_network\CmnHdr.h
; File C:\IAGOS\server\v18\Source\Source\_Database\DbManagerFun.cpp
; File C:\IAGOS\server\v18\Source\Source\_network\CmnHdr.h
; File C:\IAGOS\server\v18\Source\Source\_Database\DbManagerFun.cpp
; File C:\IAGOS\server\v18\Source\Source\_network\CmnHdr.h
; File C:\IAGOS\server\v18\Source\Source\_Database\DbManagerFun.cpp
; File C:\IAGOS\server\v18\Source\Source\_network\CmnHdr.h
; File C:\IAGOS\server\v18\Source\Source\_Database\DbManagerFun.cpp
; File C:\IAGOS\server\v18\Source\Source\_network\CmnHdr.h
; File C:\IAGOS\server\v18\Source\Source\_Database\DbManagerFun.cpp
; File C:\IAGOS\server\v18\Source\Source\_network\CmnHdr.h
; File C:\IAGOS\server\v18\Source\Source\_Database\DbManagerFun.cpp
;	COMDAT ?GetGuildBank@CDbManager@@QAEXPAV?$CItemContainer@VCItemElem@@@@PAVCQuery@@@Z
_TEXT	SEGMENT
_iRandomOptItemId$2 = -18072				; size = 8
$T3 = -18068						; size = 4
_this$GSCopy$1$ = -18064				; size = 4
$T4 = -18060						; size = 4
$T5 = -18060						; size = 4
$T6 = -18060						; size = 4
tv1915 = -18056						; size = 4
_qry$GSCopy$1$ = -18056					; size = 4
_GuildBank$GSCopy$1$ = -18052				; size = 4
_CountStr$ = -18048					; size = 4
$T7 = -18048						; size = 4
_BufItemElem$8 = -18044					; size = 152
_Bank$ = -17892						; size = 7500
_PirecingBank$ = -10392					; size = 4000
_szPet$ = -6392						; size = 4200
_ExtBank$ = -2192					; size = 2000
_strTemp$9 = -192					; size = 50
_strTemp$10 = -192					; size = 50
_szName$11 = -140					; size = 17
_strTemp$12 = -120					; size = 50
_strTemp$13 = -120					; size = 50
_strTemp$14 = -120					; size = 50
_strTemp$15 = -120					; size = 50
_strTemp$16 = -68					; size = 50
_strTemp$17 = -68					; size = 50
_strTemp$18 = -68					; size = 50
_strTemp$19 = -68					; size = 50
_strTemp$20 = -68					; size = 50
_szFmt$21 = -52						; size = 33
__$ArrayPad$ = -16					; size = 4
__$EHRec$ = -12						; size = 12
_GuildBank$ = 8						; size = 4
_qry$ = 12						; size = 4
?GetGuildBank@CDbManager@@QAEXPAV?$CItemContainer@VCItemElem@@@@PAVCQuery@@@Z PROC ; CDbManager::GetGuildBank, COMDAT
; _this$ = ecx

; 472  : {

  00000	55		 push	 ebp
  00001	8b ec		 mov	 ebp, esp
  00003	6a ff		 push	 -1
  00005	68 00 00 00 00	 push	 __ehhandler$?GetGuildBank@CDbManager@@QAEXPAV?$CItemContainer@VCItemElem@@@@PAVCQuery@@@Z
  0000a	64 a1 00 00 00
	00		 mov	 eax, DWORD PTR fs:0
  00010	50		 push	 eax
  00011	b8 8c 46 00 00	 mov	 eax, 18060		; 0000468cH
  00016	e8 00 00 00 00	 call	 __chkstk
  0001b	a1 00 00 00 00	 mov	 eax, DWORD PTR ___security_cookie
  00020	33 c5		 xor	 eax, ebp
  00022	89 45 f0	 mov	 DWORD PTR __$ArrayPad$[ebp], eax
  00025	56		 push	 esi
  00026	57		 push	 edi
  00027	50		 push	 eax
  00028	8d 45 f4	 lea	 eax, DWORD PTR __$EHRec$[ebp]
  0002b	64 a3 00 00 00
	00		 mov	 DWORD PTR fs:0, eax
  00031	89 8d 70 b9 ff
	ff		 mov	 DWORD PTR _this$GSCopy$1$[ebp], ecx
  00037	8b 75 08	 mov	 esi, DWORD PTR _GuildBank$[ebp]

; 473  : 	int CountStr		= 0;
; 474  : 	int IndexItem		= 0;
; 475  : 	char	Bank[7500]		= { 0, };

  0003a	8d 85 1c ba ff
	ff		 lea	 eax, DWORD PTR _Bank$[ebp]
  00040	8b 7d 0c	 mov	 edi, DWORD PTR _qry$[ebp]
  00043	68 4c 1d 00 00	 push	 7500			; 00001d4cH
  00048	6a 00		 push	 0
  0004a	50		 push	 eax
  0004b	89 b5 7c b9 ff
	ff		 mov	 DWORD PTR _GuildBank$GSCopy$1$[ebp], esi
  00051	89 bd 78 b9 ff
	ff		 mov	 DWORD PTR _qry$GSCopy$1$[ebp], edi
  00057	c7 85 80 b9 ff
	ff 00 00 00 00	 mov	 DWORD PTR _CountStr$[ebp], 0
  00061	e8 00 00 00 00	 call	 _memset
  00066	83 c4 0c	 add	 esp, 12			; 0000000cH

; 476  : 	qry->GetStr( "m_GuildBank", Bank );

  00069	8d 85 1c ba ff
	ff		 lea	 eax, DWORD PTR _Bank$[ebp]
  0006f	8b cf		 mov	 ecx, edi
  00071	50		 push	 eax
  00072	68 00 00 00 00	 push	 OFFSET ??_C@_0M@GKPNPIJD@m_GuildBank@
  00077	e8 00 00 00 00	 call	 ?GetStr@CQuery@@QAEXPAD0@Z ; CQuery::GetStr

; 477  : 	while( '$' != Bank[CountStr] )

  0007c	80 bd 1c ba ff
	ff 24		 cmp	 BYTE PTR _Bank$[ebp], 36 ; 00000024H
  00083	74 77		 je	 SHORT $LN163@GetGuildBa
$LL2@GetGuildBa:

; 478  : 	{
; 479  : 		CItemElem BufItemElem;

  00085	8d 8d 84 b9 ff
	ff		 lea	 ecx, DWORD PTR _BufItemElem$8[ebp]
  0008b	e8 00 00 00 00	 call	 ??0CItemElem@@QAE@XZ	; CItemElem::CItemElem

; 480  : 		IndexItem = GetOneItem( &BufItemElem, Bank, &CountStr );

  00090	8b 8d 70 b9 ff
	ff		 mov	 ecx, DWORD PTR _this$GSCopy$1$[ebp]
  00096	8d 85 80 b9 ff
	ff		 lea	 eax, DWORD PTR _CountStr$[ebp]
  0009c	50		 push	 eax
  0009d	8d 85 1c ba ff
	ff		 lea	 eax, DWORD PTR _Bank$[ebp]
  000a3	c7 45 fc 00 00
	00 00		 mov	 DWORD PTR __$EHRec$[ebp+8], 0
  000aa	50		 push	 eax
  000ab	8d 85 84 b9 ff
	ff		 lea	 eax, DWORD PTR _BufItemElem$8[ebp]
  000b1	50		 push	 eax
  000b2	e8 00 00 00 00	 call	 ?GetOneItem@CDbManager@@QAEHPAVCItemElem@@PADPAH@Z ; CDbManager::GetOneItem

; 481  : 		if( IndexItem == -1 )

  000b7	83 f8 ff	 cmp	 eax, -1
  000ba	74 1e		 je	 SHORT $LN201@GetGuildBa

; 482  : 		{
; 483  : 			
; 484  : 		}
; 485  : 		else
; 486  : 		{
; 487  : 			if( IndexItem >= MAX_GUILDBANK )

  000bc	83 f8 2a	 cmp	 eax, 42			; 0000002aH
  000bf	0f 8d b8 03 00
	00		 jge	 $LN151@GetGuildBa

; 491  : 			}
; 492  : 			GuildBank->m_apItem[IndexItem] = BufItemElem;

  000c5	69 c8 98 00 00
	00		 imul	 ecx, eax, 152
  000cb	8d 95 84 b9 ff
	ff		 lea	 edx, DWORD PTR _BufItemElem$8[ebp]
  000d1	52		 push	 edx
  000d2	03 4e 0c	 add	 ecx, DWORD PTR [esi+12]
  000d5	8b 01		 mov	 eax, DWORD PTR [ecx]
  000d7	ff 50 10	 call	 DWORD PTR [eax+16]
$LN201@GetGuildBa:

; 493  : 		}
; 494  : 	}

  000da	8d 8d 84 b9 ff
	ff		 lea	 ecx, DWORD PTR _BufItemElem$8[ebp]
  000e0	c7 45 fc ff ff
	ff ff		 mov	 DWORD PTR __$EHRec$[ebp+8], -1
  000e7	e8 00 00 00 00	 call	 ??1CItemElem@@UAE@XZ	; CItemElem::~CItemElem
  000ec	8b 85 80 b9 ff
	ff		 mov	 eax, DWORD PTR _CountStr$[ebp]
  000f2	80 bc 05 1c ba
	ff ff 24	 cmp	 BYTE PTR _Bank$[ebp+eax], 36 ; 00000024H
  000fa	75 89		 jne	 SHORT $LL2@GetGuildBa
$LN163@GetGuildBa:

; 495  : 	CountStr	= 0;
; 496  : 	int nExtBank = 0;
; 497  : 	char ExtBank[2000] = {0,};

  000fc	68 d0 07 00 00	 push	 2000			; 000007d0H
  00101	33 f6		 xor	 esi, esi
  00103	8d 85 70 f7 ff
	ff		 lea	 eax, DWORD PTR _ExtBank$[ebp]
  00109	56		 push	 esi
  0010a	50		 push	 eax
  0010b	e8 00 00 00 00	 call	 _memset
  00110	83 c4 0c	 add	 esp, 12			; 0000000cH

; 498  : 	qry->GetStr( "m_extGuildBank", ExtBank );

  00113	8d 85 70 f7 ff
	ff		 lea	 eax, DWORD PTR _ExtBank$[ebp]
  00119	8b cf		 mov	 ecx, edi
  0011b	50		 push	 eax
  0011c	68 00 00 00 00	 push	 OFFSET ??_C@_0P@CLIOIOKN@m_extGuildBank@
  00121	e8 00 00 00 00	 call	 ?GetStr@CQuery@@QAEXPAD0@Z ; CQuery::GetStr

; 499  : 	while( '$' != ExtBank[CountStr] )

  00126	80 bd 70 f7 ff
	ff 24		 cmp	 BYTE PTR _ExtBank$[ebp], 36 ; 00000024H
  0012d	0f 84 cc 01 00
	00		 je	 $LN5@GetGuildBa
  00133	33 d2		 xor	 edx, edx
  00135	33 ff		 xor	 edi, edi
  00137	33 c0		 xor	 eax, eax
  00139	0f 1f 80 00 00
	00 00		 npad	 7
$LL4@GetGuildBa:
; File C:\IAGOS\server\v18\Source\Source\_network\CmnHdr.h

; 149  : 	while(pBuf[*pLocation]!=',' && pBuf[*pLocation]!=0)

  00140	8a 84 05 70 f7
	ff ff		 mov	 al, BYTE PTR _ExtBank$[ebp+eax]
  00147	33 c9		 xor	 ecx, ecx
  00149	3c 2c		 cmp	 al, 44			; 0000002cH
  0014b	74 2d		 je	 SHORT $LN212@GetGuildBa
  0014d	0f 1f 00	 npad	 3
$LL45@GetGuildBa:
  00150	84 c0		 test	 al, al
  00152	74 1d		 je	 SHORT $LN46@GetGuildBa

; 150  : 	{
; 151  : 		if( pBuf[*pLocation]!='/' )

  00154	3c 2f		 cmp	 al, 47			; 0000002fH
  00156	0f 84 45 03 00
	00		 je	 $LN47@GetGuildBa

; 152  : 		{
; 153  : 			strTemp[count]=pBuf[*pLocation];
; 154  : 			count++; (*pLocation)++;

  0015c	8d 72 01	 lea	 esi, DWORD PTR [edx+1]
  0015f	88 44 0d bc	 mov	 BYTE PTR _strTemp$17[ebp+ecx], al
  00163	8a 84 35 70 f7
	ff ff		 mov	 al, BYTE PTR _ExtBank$[ebp+esi]
  0016a	41		 inc	 ecx
  0016b	8b d6		 mov	 edx, esi
  0016d	3c 2c		 cmp	 al, 44			; 0000002cH
  0016f	75 df		 jne	 SHORT $LL45@GetGuildBa
$LN46@GetGuildBa:

; 166  : 			}
; 167  : 		}
; 168  : 	}
; 169  : 	strTemp[count]=0;(*pLocation)++;

  00171	83 f9 32	 cmp	 ecx, 50			; 00000032H
  00174	0f 83 00 07 00
	00		 jae	 $LN54@GetGuildBa
$LN212@GetGuildBa:
  0017a	46		 inc	 esi
$LN217@GetGuildBa:
; File C:\IAGOS\server\v18\Source\Source\_Database\DbManagerFun.cpp

; 501  : 		GuildBank->m_apItem[nExtBank].m_bCharged				= (BOOL)GetIntPaFromStr( ExtBank, &CountStr );

  0017b	8d 45 bc	 lea	 eax, DWORD PTR _strTemp$17[ebp]
  0017e	c6 44 0d bc 00	 mov	 BYTE PTR _strTemp$17[ebp+ecx], 0
  00183	50		 push	 eax
  00184	e8 00 00 00 00	 call	 _atoi
  00189	8b c8		 mov	 ecx, eax
  0018b	83 c4 04	 add	 esp, 4
$LN44@GetGuildBa:
  0018e	8b 95 7c b9 ff
	ff		 mov	 edx, DWORD PTR _GuildBank$GSCopy$1$[ebp]
  00194	8b 42 0c	 mov	 eax, DWORD PTR [edx+12]
  00197	89 4c 07 7c	 mov	 DWORD PTR [edi+eax+124], ecx

; 502  : 		if( GuildBank->m_apItem[nExtBank].m_bCharged != 1 )

  0019b	8b 42 0c	 mov	 eax, DWORD PTR [edx+12]
  0019e	83 7c 07 7c 01	 cmp	 DWORD PTR [edi+eax+124], 1
  001a3	74 08		 je	 SHORT $LN16@GetGuildBa

; 503  : 			GuildBank->m_apItem[nExtBank].m_bCharged	= 0;

  001a5	c7 44 07 7c 00
	00 00 00	 mov	 DWORD PTR [edi+eax+124], 0
$LN16@GetGuildBa:
; File C:\IAGOS\server\v18\Source\Source\_network\CmnHdr.h

; 149  : 	while(pBuf[*pLocation]!=',' && pBuf[*pLocation]!=0)

  001ad	8a 84 35 70 f7
	ff ff		 mov	 al, BYTE PTR _ExtBank$[ebp+esi]
  001b4	33 c9		 xor	 ecx, ecx
  001b6	3c 2c		 cmp	 al, 44			; 0000002cH
  001b8	74 2c		 je	 SHORT $LN211@GetGuildBa
  001ba	66 0f 1f 44 00
	00		 npad	 6
$LL57@GetGuildBa:
  001c0	84 c0		 test	 al, al
  001c2	74 19		 je	 SHORT $LN58@GetGuildBa

; 150  : 	{
; 151  : 		if( pBuf[*pLocation]!='/' )

  001c4	3c 2f		 cmp	 al, 47			; 0000002fH
  001c6	0f 84 eb 02 00
	00		 je	 $LN59@GetGuildBa

; 152  : 		{
; 153  : 			strTemp[count]=pBuf[*pLocation];
; 154  : 			count++; (*pLocation)++;

  001cc	46		 inc	 esi
  001cd	88 44 0d bc	 mov	 BYTE PTR _strTemp$18[ebp+ecx], al
  001d1	41		 inc	 ecx
  001d2	8a 84 35 70 f7
	ff ff		 mov	 al, BYTE PTR _ExtBank$[ebp+esi]
  001d9	3c 2c		 cmp	 al, 44			; 0000002cH
  001db	75 e3		 jne	 SHORT $LL57@GetGuildBa
$LN58@GetGuildBa:

; 166  : 			}
; 167  : 		}
; 168  : 	}
; 169  : 	strTemp[count]=0;(*pLocation)++;

  001dd	83 f9 32	 cmp	 ecx, 50			; 00000032H
  001e0	0f 83 94 06 00
	00		 jae	 $LN54@GetGuildBa
$LN211@GetGuildBa:
  001e6	46		 inc	 esi
$LN218@GetGuildBa:
; File C:\IAGOS\server\v18\Source\Source\_Database\DbManagerFun.cpp

; 504  : 		GuildBank->m_apItem[nExtBank].m_dwKeepTime				= (DWORD)GetIntPaFromStr( ExtBank, &CountStr );

  001e7	8d 45 bc	 lea	 eax, DWORD PTR _strTemp$18[ebp]
  001ea	c6 44 0d bc 00	 mov	 BYTE PTR _strTemp$18[ebp+ecx], 0
  001ef	50		 push	 eax
  001f0	e8 00 00 00 00	 call	 _atoi
  001f5	8b c8		 mov	 ecx, eax
  001f7	83 c4 04	 add	 esp, 4
$LN56@GetGuildBa:
  001fa	8b 85 7c b9 ff
	ff		 mov	 eax, DWORD PTR _GuildBank$GSCopy$1$[ebp]
  00200	8b 40 0c	 mov	 eax, DWORD PTR [eax+12]
  00203	89 8c 07 80 00
	00 00		 mov	 DWORD PTR [edi+eax+128], ecx
; File C:\IAGOS\server\v18\Source\Source\_network\CmnHdr.h

; 117  : 	int count	=0;

  0020a	33 c9		 xor	 ecx, ecx

; 118  : 	while( pBuf[*pLocation] != ',' && pBuf[*pLocation] != 0 )

  0020c	8a 84 35 70 f7
	ff ff		 mov	 al, BYTE PTR _ExtBank$[ebp+esi]
  00213	3c 2c		 cmp	 al, 44			; 0000002cH
  00215	74 26		 je	 SHORT $LN210@GetGuildBa
$LL69@GetGuildBa:
  00217	84 c0		 test	 al, al
  00219	74 19		 je	 SHORT $LN70@GetGuildBa

; 119  : 	{
; 120  : 		if( pBuf[*pLocation] != '/' )

  0021b	3c 2f		 cmp	 al, 47			; 0000002fH
  0021d	0f 84 aa 02 00
	00		 je	 $LN71@GetGuildBa

; 121  : 		{
; 122  : 			strTemp[count]	=pBuf[*pLocation];
; 123  : 			count++;	( *pLocation )++;

  00223	46		 inc	 esi
  00224	88 44 0d bc	 mov	 BYTE PTR _strTemp$19[ebp+ecx], al
  00228	41		 inc	 ecx
  00229	8a 84 35 70 f7
	ff ff		 mov	 al, BYTE PTR _ExtBank$[ebp+esi]
  00230	3c 2c		 cmp	 al, 44			; 0000002cH
  00232	75 e3		 jne	 SHORT $LL69@GetGuildBa
$LN70@GetGuildBa:

; 135  : 			}
; 136  : 		}
; 137  : 	}
; 138  : 	strTemp[count]	=0;	( *pLocation )++;

  00234	83 f9 32	 cmp	 ecx, 50			; 00000032H
  00237	0f 83 3d 06 00
	00		 jae	 $LN54@GetGuildBa
$LN210@GetGuildBa:
  0023d	46		 inc	 esi
$LN220@GetGuildBa:
; File C:\IAGOS\server\v18\Source\Source\_Database\DbManagerFun.cpp

; 506  : 		__int64 iRandomOptItemId	= GetInt64PaFromStr( ExtBank, &CountStr );

  0023e	8d 45 bc	 lea	 eax, DWORD PTR _strTemp$19[ebp]
  00241	c6 44 0d bc 00	 mov	 BYTE PTR _strTemp$19[ebp+ecx], 0
  00246	50		 push	 eax
  00247	e8 00 00 00 00	 call	 __atoi64
  0024c	8b c8		 mov	 ecx, eax
  0024e	83 c4 04	 add	 esp, 4

; 507  : 		if( iRandomOptItemId == -102 )

  00251	83 f9 9a	 cmp	 ecx, -102		; ffffff9aH
  00254	75 1c		 jne	 SHORT $LN17@GetGuildBa
  00256	83 fa ff	 cmp	 edx, -1
  00259	75 17		 jne	 SHORT $LN17@GetGuildBa
$LN219@GetGuildBa:

; 509  : 		GuildBank->m_apItem[nExtBank].SetRandomOptItemId( iRandomOptItemId );

  0025b	0f 57 c0	 xorps	 xmm0, xmm0
  0025e	66 0f 13 85 68
	b9 ff ff	 movlpd	 QWORD PTR _iRandomOptItemId$2[ebp], xmm0
  00266	8b 8d 68 b9 ff
	ff		 mov	 ecx, DWORD PTR _iRandomOptItemId$2[ebp]
  0026c	8b 95 6c b9 ff
	ff		 mov	 edx, DWORD PTR _iRandomOptItemId$2[ebp+4]
$LN17@GetGuildBa:
  00272	8b 85 7c b9 ff
	ff		 mov	 eax, DWORD PTR _GuildBank$GSCopy$1$[ebp]
  00278	8b 40 0c	 mov	 eax, DWORD PTR [eax+12]
  0027b	89 8c 07 88 00
	00 00		 mov	 DWORD PTR [edi+eax+136], ecx
; File C:\IAGOS\server\v18\Source\Source\_network\CmnHdr.h

; 148  : 	int count=0;

  00282	33 c9		 xor	 ecx, ecx
; File C:\IAGOS\server\v18\Source\Source\_Database\DbManagerFun.cpp

; 509  : 		GuildBank->m_apItem[nExtBank].SetRandomOptItemId( iRandomOptItemId );

  00284	89 94 07 8c 00
	00 00		 mov	 DWORD PTR [edi+eax+140], edx
; File C:\IAGOS\server\v18\Source\Source\_network\CmnHdr.h

; 149  : 	while(pBuf[*pLocation]!=',' && pBuf[*pLocation]!=0)

  0028b	8a 84 35 70 f7
	ff ff		 mov	 al, BYTE PTR _ExtBank$[ebp+esi]
  00292	3c 2c		 cmp	 al, 44			; 0000002cH
  00294	74 26		 je	 SHORT $LN209@GetGuildBa
$LL81@GetGuildBa:
  00296	84 c0		 test	 al, al
  00298	74 19		 je	 SHORT $LN82@GetGuildBa

; 150  : 	{
; 151  : 		if( pBuf[*pLocation]!='/' )

  0029a	3c 2f		 cmp	 al, 47			; 0000002fH
  0029c	0f 84 41 02 00
	00		 je	 $LN83@GetGuildBa

; 152  : 		{
; 153  : 			strTemp[count]=pBuf[*pLocation];
; 154  : 			count++; (*pLocation)++;

  002a2	46		 inc	 esi
  002a3	88 44 0d bc	 mov	 BYTE PTR _strTemp$20[ebp+ecx], al
  002a7	41		 inc	 ecx
  002a8	8a 84 35 70 f7
	ff ff		 mov	 al, BYTE PTR _ExtBank$[ebp+esi]
  002af	3c 2c		 cmp	 al, 44			; 0000002cH
  002b1	75 e3		 jne	 SHORT $LL81@GetGuildBa
$LN82@GetGuildBa:

; 166  : 			}
; 167  : 		}
; 168  : 	}
; 169  : 	strTemp[count]=0;(*pLocation)++;

  002b3	83 f9 32	 cmp	 ecx, 50			; 00000032H
  002b6	0f 83 be 05 00
	00		 jae	 $LN54@GetGuildBa
$LN209@GetGuildBa:
  002bc	46		 inc	 esi
$LN221@GetGuildBa:
; File C:\IAGOS\server\v18\Source\Source\_Database\DbManagerFun.cpp

; 514  : 		GuildBank->m_apItem[nExtBank].m_bTranformVisPet = static_cast<BOOL>( GetIntPaFromStr( ExtBank, &CountStr ) );

  002bd	8d 45 bc	 lea	 eax, DWORD PTR _strTemp$20[ebp]
  002c0	c6 44 0d bc 00	 mov	 BYTE PTR _strTemp$20[ebp+ecx], 0
  002c5	50		 push	 eax
  002c6	e8 00 00 00 00	 call	 _atoi
  002cb	8b c8		 mov	 ecx, eax
  002cd	83 c4 04	 add	 esp, 4
$LN80@GetGuildBa:
  002d0	8b 85 7c b9 ff
	ff		 mov	 eax, DWORD PTR _GuildBank$GSCopy$1$[ebp]

; 515  : #endif // __PETVIS
; 516  : 		++CountStr; 		++nExtBank;

  002d6	46		 inc	 esi
  002d7	8b d6		 mov	 edx, esi
  002d9	8b 40 0c	 mov	 eax, DWORD PTR [eax+12]
  002dc	89 8c 07 94 00
	00 00		 mov	 DWORD PTR [edi+eax+148], ecx
  002e3	8b c6		 mov	 eax, esi
  002e5	81 c7 98 00 00
	00		 add	 edi, 152		; 00000098H
  002eb	80 bc 05 70 f7
	ff ff 24	 cmp	 BYTE PTR _ExtBank$[ebp+eax], 36 ; 00000024H
  002f3	0f 85 47 fe ff
	ff		 jne	 $LL4@GetGuildBa

; 499  : 	while( '$' != ExtBank[CountStr] )

  002f9	8b bd 78 b9 ff
	ff		 mov	 edi, DWORD PTR _qry$GSCopy$1$[ebp]
$LN5@GetGuildBa:

; 520  : 	int nPirecingBank = 0;
; 521  : 	char PirecingBank[4000] = {0,};

  002ff	68 a0 0f 00 00	 push	 4000			; 00000fa0H
  00304	8d 85 68 d7 ff
	ff		 lea	 eax, DWORD PTR _PirecingBank$[ebp]
  0030a	c7 85 80 b9 ff
	ff 00 00 00 00	 mov	 DWORD PTR _CountStr$[ebp], 0
  00314	6a 00		 push	 0
  00316	50		 push	 eax
  00317	e8 00 00 00 00	 call	 _memset
  0031c	83 c4 0c	 add	 esp, 12			; 0000000cH

; 522  : 	qry->GetStr( "m_GuildBankPiercing", PirecingBank );

  0031f	8d 85 68 d7 ff
	ff		 lea	 eax, DWORD PTR _PirecingBank$[ebp]
  00325	8b cf		 mov	 ecx, edi
  00327	50		 push	 eax
  00328	68 00 00 00 00	 push	 OFFSET ??_C@_0BE@FOMLDJLH@m_GuildBankPiercing@
  0032d	e8 00 00 00 00	 call	 ?GetStr@CQuery@@QAEXPAD0@Z ; CQuery::GetStr

; 523  : 	while( '$' != PirecingBank[CountStr] )

  00332	80 bd 68 d7 ff
	ff 24		 cmp	 BYTE PTR _PirecingBank$[ebp], 36 ; 00000024H
  00339	74 43		 je	 SHORT $LN7@GetGuildBa

; 517  : 	}
; 518  : 	
; 519  : 	CountStr	= 0;

  0033b	8b bd 7c b9 ff
	ff		 mov	 edi, DWORD PTR _GuildBank$GSCopy$1$[ebp]
  00341	33 f6		 xor	 esi, esi
$LL6@GetGuildBa:

; 524  : 	{
; 525  : #if __VER >= 12 // __EXT_PIERCING
; 526  : 		LoadPiercingInfo( GuildBank->m_apItem[nPirecingBank], PirecingBank, &CountStr );

  00343	8b 8d 70 b9 ff
	ff		 mov	 ecx, DWORD PTR _this$GSCopy$1$[ebp]
  00349	8d 85 80 b9 ff
	ff		 lea	 eax, DWORD PTR _CountStr$[ebp]
  0034f	50		 push	 eax
  00350	8d 85 68 d7 ff
	ff		 lea	 eax, DWORD PTR _PirecingBank$[ebp]
  00356	50		 push	 eax
  00357	8b 47 0c	 mov	 eax, DWORD PTR [edi+12]
  0035a	03 c6		 add	 eax, esi
  0035c	50		 push	 eax
  0035d	e8 00 00 00 00	 call	 ?LoadPiercingInfo@CDbManager@@QAEXAAVCItemElem@@PADPAH@Z ; CDbManager::LoadPiercingInfo
  00362	8b 85 80 b9 ff
	ff		 mov	 eax, DWORD PTR _CountStr$[ebp]

; 527  : #else // __EXT_PIERCING
; 528  : 		int nItemIdCount = 0;
; 529  : 		GuildBank->m_apItem[nPirecingBank].SetPiercingSize( GetIntFromStr( PirecingBank, &CountStr ) );
; 530  : 		for( int i = 0 ; i < GuildBank->m_apItem[nPirecingBank].GetPiercingSize() ; ++i )
; 531  : 		{
; 532  : 			GuildBank->m_apItem[nPirecingBank].SetPiercingItem( nItemIdCount, (DWORD)GetIntFromStr( PirecingBank, &CountStr ) );
; 533  : 			++nItemIdCount;
; 534  : 		}
; 535  : #endif // __EXT_PIERCING
; 536  : 		++nPirecingBank;

  00368	81 c6 98 00 00
	00		 add	 esi, 152		; 00000098H
  0036e	80 bc 05 68 d7
	ff ff 24	 cmp	 BYTE PTR _PirecingBank$[ebp+eax], 36 ; 00000024H
  00376	75 cb		 jne	 SHORT $LL6@GetGuildBa
  00378	8b bd 78 b9 ff
	ff		 mov	 edi, DWORD PTR _qry$GSCopy$1$[ebp]
$LN7@GetGuildBa:

; 540  : 	int	nId	= 0;
; 541  : #ifdef __PET_1024
; 542  : 	char szPet[4200]	= { 0, };

  0037e	68 68 10 00 00	 push	 4200			; 00001068H
  00383	33 f6		 xor	 esi, esi
  00385	8d 85 08 e7 ff
	ff		 lea	 eax, DWORD PTR _szPet$[ebp]
  0038b	56		 push	 esi
  0038c	50		 push	 eax
  0038d	e8 00 00 00 00	 call	 _memset
  00392	83 c4 0c	 add	 esp, 12			; 0000000cH

; 543  : #else	// __PET_1024
; 544  : 	char szPet[2688]	= { 0, };
; 545  : #endif	// __PET_1024
; 546  : 	qry->GetStr( "szGuildBankPet", szPet );

  00395	8d 85 08 e7 ff
	ff		 lea	 eax, DWORD PTR _szPet$[ebp]
  0039b	8b cf		 mov	 ecx, edi
  0039d	50		 push	 eax
  0039e	68 00 00 00 00	 push	 OFFSET ??_C@_0P@MOKIMIMD@szGuildBankPet@
  003a3	e8 00 00 00 00	 call	 ?GetStr@CQuery@@QAEXPAD0@Z ; CQuery::GetStr

; 547  : 	while( '$' != szPet[CountStr] )

  003a8	80 bd 08 e7 ff
	ff 24		 cmp	 BYTE PTR _szPet$[ebp], 36 ; 00000024H
  003af	0f 84 7e 04 00
	00		 je	 $LN9@GetGuildBa

; 537  : 	}
; 538  : 
; 539  : 	CountStr	= 0;

  003b5	89 b5 78 b9 ff
	ff		 mov	 DWORD PTR tv1915[ebp], esi
  003bb	33 ff		 xor	 edi, edi
  003bd	0f 1f 00	 npad	 3
$LL8@GetGuildBa:
; File C:\IAGOS\server\v18\Source\Source\_network\CmnHdr.h

; 95   : 	while(pBuf[*pLocation]!=',' && pBuf[*pLocation]!='/' && pBuf[*pLocation]!=0) {

  003c0	8a 84 3d 08 e7
	ff ff		 mov	 al, BYTE PTR _szPet$[ebp+edi]
  003c7	33 c9		 xor	 ecx, ecx
  003c9	3c 2c		 cmp	 al, 44			; 0000002cH
  003cb	74 25		 je	 SHORT $LN208@GetGuildBa
  003cd	0f 1f 00	 npad	 3
$LL93@GetGuildBa:
  003d0	3c 2f		 cmp	 al, 47			; 0000002fH
  003d2	74 15		 je	 SHORT $LN94@GetGuildBa
  003d4	84 c0		 test	 al, al
  003d6	74 11		 je	 SHORT $LN94@GetGuildBa

; 96   : 		strTemp[count]=pBuf[*pLocation];
; 97   : 		count++; (*pLocation)++;

  003d8	46		 inc	 esi
  003d9	88 44 0d bc	 mov	 BYTE PTR _strTemp$16[ebp+ecx], al
  003dd	41		 inc	 ecx
  003de	8a 84 35 08 e7
	ff ff		 mov	 al, BYTE PTR _szPet$[ebp+esi]
  003e5	3c 2c		 cmp	 al, 44			; 0000002cH
  003e7	75 e7		 jne	 SHORT $LL93@GetGuildBa
$LN94@GetGuildBa:

; 98   : 	}
; 99   : 	strTemp[count]=0;(*pLocation)++;

  003e9	83 f9 32	 cmp	 ecx, 50			; 00000032H
  003ec	0f 83 88 04 00
	00		 jae	 $LN54@GetGuildBa
$LN208@GetGuildBa:

; 100  : 	return atoi(strTemp);

  003f2	8d 45 bc	 lea	 eax, DWORD PTR _strTemp$16[ebp]
  003f5	c6 44 0d bc 00	 mov	 BYTE PTR _strTemp$16[ebp+ecx], 0
  003fa	46		 inc	 esi
  003fb	50		 push	 eax
  003fc	8b fe		 mov	 edi, esi
  003fe	e8 00 00 00 00	 call	 _atoi
  00403	83 c4 04	 add	 esp, 4
; File C:\IAGOS\server\v18\Source\Source\_Database\DbManagerFun.cpp

; 551  : 		{

  00406	8b cf		 mov	 ecx, edi
  00408	85 c0		 test	 eax, eax
  0040a	0f 84 0b 04 00
	00		 je	 $LN18@GetGuildBa

; 552  : 			SAFE_DELETE( GuildBank->m_apItem[nId].m_pPet );

  00410	8b 85 7c b9 ff
	ff		 mov	 eax, DWORD PTR _GuildBank$GSCopy$1$[ebp]
  00416	8b 8d 78 b9 ff
	ff		 mov	 ecx, DWORD PTR tv1915[ebp]
  0041c	8b 40 0c	 mov	 eax, DWORD PTR [eax+12]
  0041f	8b 8c 01 90 00
	00 00		 mov	 ecx, DWORD PTR [ecx+eax+144]
  00426	85 c9		 test	 ecx, ecx
  00428	74 20		 je	 SHORT $LN19@GetGuildBa
  0042a	8b 01		 mov	 eax, DWORD PTR [ecx]
  0042c	6a 01		 push	 1
  0042e	ff 10		 call	 DWORD PTR [eax]
  00430	8b 95 7c b9 ff
	ff		 mov	 edx, DWORD PTR _GuildBank$GSCopy$1$[ebp]
  00436	8b 8d 78 b9 ff
	ff		 mov	 ecx, DWORD PTR tv1915[ebp]
  0043c	8b 42 0c	 mov	 eax, DWORD PTR [edx+12]
  0043f	c7 84 01 90 00
	00 00 00 00 00
	00		 mov	 DWORD PTR [ecx+eax+144], 0
$LN19@GetGuildBa:

; 553  : 			CPet* pPet	= GuildBank->m_apItem[nId].m_pPet		= new CPet;

  0044a	6a 28		 push	 40			; 00000028H
  0044c	e8 00 00 00 00	 call	 ??2@YAPAXI@Z		; operator new
  00451	83 c4 04	 add	 esp, 4
  00454	89 85 6c b9 ff
	ff		 mov	 DWORD PTR $T3[ebp], eax
  0045a	c7 45 fc 01 00
	00 00		 mov	 DWORD PTR __$EHRec$[ebp+8], 1
  00461	85 c0		 test	 eax, eax
  00463	0f 84 90 00 00
	00		 je	 $LN23@GetGuildBa
  00469	8b c8		 mov	 ecx, eax
  0046b	e8 00 00 00 00	 call	 ??0CPet@@QAE@XZ		; CPet::CPet
  00470	8b c8		 mov	 ecx, eax
  00472	89 85 80 b9 ff
	ff		 mov	 DWORD PTR $T7[ebp], eax
  00478	e9 84 00 00 00	 jmp	 $LN24@GetGuildBa
$LN151@GetGuildBa:

; 488  : 			{
; 489  : 				Error( "GuildBank = %s", Bank );

  0047d	8d 85 1c ba ff
	ff		 lea	 eax, DWORD PTR _Bank$[ebp]
  00483	50		 push	 eax
  00484	68 00 00 00 00	 push	 OFFSET ??_C@_0P@KBFNBDP@GuildBank?5?$DN?5?$CFs@
  00489	e8 00 00 00 00	 call	 ?Error@@YAPBDPBDZZ	; Error
  0048e	83 c4 08	 add	 esp, 8

; 490  : 				return;

  00491	8d 8d 84 b9 ff
	ff		 lea	 ecx, DWORD PTR _BufItemElem$8[ebp]
  00497	e8 00 00 00 00	 call	 ??1CItemElem@@UAE@XZ	; CItemElem::~CItemElem
  0049c	e9 92 03 00 00	 jmp	 $LN9@GetGuildBa
$LN47@GetGuildBa:
; File C:\IAGOS\server\v18\Source\Source\_network\CmnHdr.h

; 158  : 			if( count == 0 )

  004a1	85 c9		 test	 ecx, ecx
  004a3	0f 84 e5 fc ff
	ff		 je	 $LN44@GetGuildBa
$LN49@GetGuildBa:

; 161  : 			}
; 162  : 			else
; 163  : 			{
; 164  : 				strTemp[count]=0;

  004a9	83 f9 32	 cmp	 ecx, 50			; 00000032H
  004ac	0f 83 c8 03 00
	00		 jae	 $LN54@GetGuildBa
  004b2	e9 c4 fc ff ff	 jmp	 $LN217@GetGuildBa
$LN59@GetGuildBa:

; 158  : 			if( count == 0 )

  004b7	85 c9		 test	 ecx, ecx
  004b9	0f 84 3b fd ff
	ff		 je	 $LN56@GetGuildBa
$LN61@GetGuildBa:

; 161  : 			}
; 162  : 			else
; 163  : 			{
; 164  : 				strTemp[count]=0;

  004bf	83 f9 32	 cmp	 ecx, 50			; 00000032H
  004c2	0f 83 b2 03 00
	00		 jae	 $LN54@GetGuildBa

; 165  : 				return atoi(strTemp);

  004c8	e9 1a fd ff ff	 jmp	 $LN218@GetGuildBa
$LN71@GetGuildBa:

; 127  : 			if( count == 0 )

  004cd	85 c9		 test	 ecx, ecx
  004cf	0f 84 86 fd ff
	ff		 je	 $LN219@GetGuildBa

; 128  : 			{
; 129  : 				return 0;
; 130  : 			}
; 131  : 			else
; 132  : 			{
; 133  : 				strTemp[count]	=0;

  004d5	83 f9 32	 cmp	 ecx, 50			; 00000032H
  004d8	0f 83 9c 03 00
	00		 jae	 $LN54@GetGuildBa

; 134  : 				return _atoi64( strTemp );

  004de	e9 5b fd ff ff	 jmp	 $LN220@GetGuildBa
$LN83@GetGuildBa:

; 158  : 			if( count == 0 )

  004e3	85 c9		 test	 ecx, ecx
  004e5	0f 84 e5 fd ff
	ff		 je	 $LN80@GetGuildBa
$LN85@GetGuildBa:

; 161  : 			}
; 162  : 			else
; 163  : 			{
; 164  : 				strTemp[count]=0;

  004eb	83 f9 32	 cmp	 ecx, 50			; 00000032H
  004ee	0f 83 86 03 00
	00		 jae	 $LN54@GetGuildBa

; 165  : 				return atoi(strTemp);

  004f4	e9 c4 fd ff ff	 jmp	 $LN221@GetGuildBa
$LN23@GetGuildBa:
; File C:\IAGOS\server\v18\Source\Source\_Database\DbManagerFun.cpp

; 553  : 			CPet* pPet	= GuildBank->m_apItem[nId].m_pPet		= new CPet;

  004f9	33 c9		 xor	 ecx, ecx
  004fb	89 8d 80 b9 ff
	ff		 mov	 DWORD PTR $T7[ebp], ecx
$LN24@GetGuildBa:
  00501	8b 85 7c b9 ff
	ff		 mov	 eax, DWORD PTR _GuildBank$GSCopy$1$[ebp]
  00507	8b 95 78 b9 ff
	ff		 mov	 edx, DWORD PTR tv1915[ebp]
  0050d	c7 45 fc ff ff
	ff ff		 mov	 DWORD PTR __$EHRec$[ebp+8], -1
  00514	8b 40 0c	 mov	 eax, DWORD PTR [eax+12]
  00517	89 8c 02 90 00
	00 00		 mov	 DWORD PTR [edx+eax+144], ecx
; File C:\IAGOS\server\v18\Source\Source\_network\CmnHdr.h

; 94   : 	int count=0;

  0051e	33 c9		 xor	 ecx, ecx

; 95   : 	while(pBuf[*pLocation]!=',' && pBuf[*pLocation]!='/' && pBuf[*pLocation]!=0) {

  00520	8a 84 3d 08 e7
	ff ff		 mov	 al, BYTE PTR _szPet$[ebp+edi]
  00527	3c 2c		 cmp	 al, 44			; 0000002cH
  00529	74 27		 je	 SHORT $LN207@GetGuildBa
  0052b	0f 1f 44 00 00	 npad	 5
$LL99@GetGuildBa:
  00530	3c 2f		 cmp	 al, 47			; 0000002fH
  00532	74 15		 je	 SHORT $LN100@GetGuildBa
  00534	84 c0		 test	 al, al
  00536	74 11		 je	 SHORT $LN100@GetGuildBa

; 96   : 		strTemp[count]=pBuf[*pLocation];
; 97   : 		count++; (*pLocation)++;

  00538	46		 inc	 esi
  00539	88 44 0d 88	 mov	 BYTE PTR _strTemp$14[ebp+ecx], al
  0053d	41		 inc	 ecx
  0053e	8a 84 35 08 e7
	ff ff		 mov	 al, BYTE PTR _szPet$[ebp+esi]
  00545	3c 2c		 cmp	 al, 44			; 0000002cH
  00547	75 e7		 jne	 SHORT $LL99@GetGuildBa
$LN100@GetGuildBa:

; 98   : 	}
; 99   : 	strTemp[count]=0;(*pLocation)++;

  00549	83 f9 32	 cmp	 ecx, 50			; 00000032H
  0054c	0f 83 28 03 00
	00		 jae	 $LN54@GetGuildBa
$LN207@GetGuildBa:

; 100  : 	return atoi(strTemp);

  00552	8d 45 88	 lea	 eax, DWORD PTR _strTemp$14[ebp]
  00555	c6 44 0d 88 00	 mov	 BYTE PTR _strTemp$14[ebp+ecx], 0
  0055a	50		 push	 eax
  0055b	46		 inc	 esi
  0055c	e8 00 00 00 00	 call	 _atoi
; File C:\IAGOS\server\v18\Source\Source\_Database\DbManagerFun.cpp

; 555  : 			pPet->SetKind( nKind );

  00561	8b 8d 80 b9 ff
	ff		 mov	 ecx, DWORD PTR $T7[ebp]
; File C:\IAGOS\server\v18\Source\Source\_network\CmnHdr.h

; 100  : 	return atoi(strTemp);

  00567	83 c4 04	 add	 esp, 4
; File C:\IAGOS\server\v18\Source\Source\_Database\DbManagerFun.cpp

; 555  : 			pPet->SetKind( nKind );

  0056a	88 41 04	 mov	 BYTE PTR [ecx+4], al
; File C:\IAGOS\server\v18\Source\Source\_network\CmnHdr.h

; 94   : 	int count=0;

  0056d	33 c9		 xor	 ecx, ecx

; 95   : 	while(pBuf[*pLocation]!=',' && pBuf[*pLocation]!='/' && pBuf[*pLocation]!=0) {

  0056f	8a 84 35 08 e7
	ff ff		 mov	 al, BYTE PTR _szPet$[ebp+esi]
  00576	3c 2c		 cmp	 al, 44			; 0000002cH
  00578	74 40		 je	 SHORT $LN206@GetGuildBa
  0057a	89 b5 74 b9 ff
	ff		 mov	 DWORD PTR $T5[ebp], esi
  00580	8b d6		 mov	 edx, esi
  00582	8b fe		 mov	 edi, esi
$LL105@GetGuildBa:
  00584	8b f2		 mov	 esi, edx
  00586	3c 2f		 cmp	 al, 47			; 0000002fH
  00588	74 27		 je	 SHORT $LN106@GetGuildBa
  0058a	8b f7		 mov	 esi, edi
  0058c	84 c0		 test	 al, al
  0058e	74 21		 je	 SHORT $LN106@GetGuildBa

; 96   : 		strTemp[count]=pBuf[*pLocation];
; 97   : 		count++; (*pLocation)++;

  00590	8b b5 74 b9 ff
	ff		 mov	 esi, DWORD PTR $T5[ebp]
  00596	46		 inc	 esi
  00597	88 44 0d 88	 mov	 BYTE PTR _strTemp$13[ebp+ecx], al
  0059b	41		 inc	 ecx
  0059c	89 b5 74 b9 ff
	ff		 mov	 DWORD PTR $T5[ebp], esi
  005a2	8b d6		 mov	 edx, esi
  005a4	8b fe		 mov	 edi, esi
  005a6	8a 84 35 08 e7
	ff ff		 mov	 al, BYTE PTR _szPet$[ebp+esi]
  005ad	3c 2c		 cmp	 al, 44			; 0000002cH
  005af	75 d3		 jne	 SHORT $LL105@GetGuildBa
$LN106@GetGuildBa:

; 98   : 	}
; 99   : 	strTemp[count]=0;(*pLocation)++;

  005b1	83 f9 32	 cmp	 ecx, 50			; 00000032H
  005b4	0f 83 c0 02 00
	00		 jae	 $LN54@GetGuildBa
$LN206@GetGuildBa:

; 100  : 	return atoi(strTemp);

  005ba	8d 45 88	 lea	 eax, DWORD PTR _strTemp$13[ebp]
  005bd	c6 44 0d 88 00	 mov	 BYTE PTR _strTemp$13[ebp+ecx], 0
  005c2	50		 push	 eax
  005c3	46		 inc	 esi
  005c4	e8 00 00 00 00	 call	 _atoi
; File C:\IAGOS\server\v18\Source\Source\_Database\DbManagerFun.cpp

; 557  : 			pPet->SetLevel( nLevel );

  005c9	8b 8d 80 b9 ff
	ff		 mov	 ecx, DWORD PTR $T7[ebp]
; File C:\IAGOS\server\v18\Source\Source\_network\CmnHdr.h

; 100  : 	return atoi(strTemp);

  005cf	83 c4 04	 add	 esp, 4
; File C:\IAGOS\server\v18\Source\Source\_Database\DbManagerFun.cpp

; 557  : 			pPet->SetLevel( nLevel );

  005d2	88 41 05	 mov	 BYTE PTR [ecx+5], al
; File C:\IAGOS\server\v18\Source\Source\_network\CmnHdr.h

; 94   : 	int count=0;

  005d5	33 c9		 xor	 ecx, ecx

; 95   : 	while(pBuf[*pLocation]!=',' && pBuf[*pLocation]!='/' && pBuf[*pLocation]!=0) {

  005d7	8a 84 35 08 e7
	ff ff		 mov	 al, BYTE PTR _szPet$[ebp+esi]
  005de	3c 2c		 cmp	 al, 44			; 0000002cH
  005e0	74 44		 je	 SHORT $LN205@GetGuildBa
  005e2	89 b5 74 b9 ff
	ff		 mov	 DWORD PTR $T6[ebp], esi
  005e8	8b d6		 mov	 edx, esi
  005ea	8b fe		 mov	 edi, esi
  005ec	0f 1f 40 00	 npad	 4
$LL111@GetGuildBa:
  005f0	8b f2		 mov	 esi, edx
  005f2	3c 2f		 cmp	 al, 47			; 0000002fH
  005f4	74 27		 je	 SHORT $LN112@GetGuildBa
  005f6	8b f7		 mov	 esi, edi
  005f8	84 c0		 test	 al, al
  005fa	74 21		 je	 SHORT $LN112@GetGuildBa

; 96   : 		strTemp[count]=pBuf[*pLocation];
; 97   : 		count++; (*pLocation)++;

  005fc	8b b5 74 b9 ff
	ff		 mov	 esi, DWORD PTR $T6[ebp]
  00602	46		 inc	 esi
  00603	88 44 0d 88	 mov	 BYTE PTR _strTemp$12[ebp+ecx], al
  00607	41		 inc	 ecx
  00608	89 b5 74 b9 ff
	ff		 mov	 DWORD PTR $T6[ebp], esi
  0060e	8b d6		 mov	 edx, esi
  00610	8b fe		 mov	 edi, esi
  00612	8a 84 35 08 e7
	ff ff		 mov	 al, BYTE PTR _szPet$[ebp+esi]
  00619	3c 2c		 cmp	 al, 44			; 0000002cH
  0061b	75 d3		 jne	 SHORT $LL111@GetGuildBa
$LN112@GetGuildBa:

; 98   : 	}
; 99   : 	strTemp[count]=0;(*pLocation)++;

  0061d	83 f9 32	 cmp	 ecx, 50			; 00000032H
  00620	0f 83 54 02 00
	00		 jae	 $LN54@GetGuildBa
$LN205@GetGuildBa:

; 100  : 	return atoi(strTemp);

  00626	8d 45 88	 lea	 eax, DWORD PTR _strTemp$12[ebp]
  00629	c6 44 0d 88 00	 mov	 BYTE PTR _strTemp$12[ebp+ecx], 0
  0062e	50		 push	 eax
  0062f	46		 inc	 esi
  00630	e8 00 00 00 00	 call	 _atoi
; File C:\IAGOS\server\v18\Source\Source\_Database\DbManagerFun.cpp

; 559  : 			pPet->SetExp( dwExp );

  00635	8b 8d 80 b9 ff
	ff		 mov	 ecx, DWORD PTR $T7[ebp]
; File C:\IAGOS\server\v18\Source\Source\_network\CmnHdr.h

; 100  : 	return atoi(strTemp);

  0063b	83 c4 04	 add	 esp, 4
; File C:\IAGOS\server\v18\Source\Source\_Database\DbManagerFun.cpp

; 559  : 			pPet->SetExp( dwExp );

  0063e	50		 push	 eax
  0063f	e8 00 00 00 00	 call	 ?SetExp@CPet@@QAEXK@Z	; CPet::SetExp
; File C:\IAGOS\server\v18\Source\Source\_network\CmnHdr.h

; 95   : 	while(pBuf[*pLocation]!=',' && pBuf[*pLocation]!='/' && pBuf[*pLocation]!=0) {

  00644	8a 84 35 08 e7
	ff ff		 mov	 al, BYTE PTR _szPet$[ebp+esi]
  0064b	33 c9		 xor	 ecx, ecx
  0064d	3c 2c		 cmp	 al, 44			; 0000002cH
  0064f	74 45		 je	 SHORT $LN204@GetGuildBa
  00651	89 b5 74 b9 ff
	ff		 mov	 DWORD PTR $T4[ebp], esi
  00657	8b d6		 mov	 edx, esi
  00659	8b fe		 mov	 edi, esi
  0065b	0f 1f 44 00 00	 npad	 5
$LL117@GetGuildBa:
  00660	8b f2		 mov	 esi, edx
  00662	3c 2f		 cmp	 al, 47			; 0000002fH
  00664	74 27		 je	 SHORT $LN118@GetGuildBa
  00666	8b f7		 mov	 esi, edi
  00668	84 c0		 test	 al, al
  0066a	74 21		 je	 SHORT $LN118@GetGuildBa

; 96   : 		strTemp[count]=pBuf[*pLocation];
; 97   : 		count++; (*pLocation)++;

  0066c	8b b5 74 b9 ff
	ff		 mov	 esi, DWORD PTR $T4[ebp]
  00672	46		 inc	 esi
  00673	88 44 0d 88	 mov	 BYTE PTR _strTemp$15[ebp+ecx], al
  00677	41		 inc	 ecx
  00678	89 b5 74 b9 ff
	ff		 mov	 DWORD PTR $T4[ebp], esi
  0067e	8b d6		 mov	 edx, esi
  00680	8b fe		 mov	 edi, esi
  00682	8a 84 35 08 e7
	ff ff		 mov	 al, BYTE PTR _szPet$[ebp+esi]
  00689	3c 2c		 cmp	 al, 44			; 0000002cH
  0068b	75 d3		 jne	 SHORT $LL117@GetGuildBa
$LN118@GetGuildBa:

; 98   : 	}
; 99   : 	strTemp[count]=0;(*pLocation)++;

  0068d	83 f9 32	 cmp	 ecx, 50			; 00000032H
  00690	0f 83 e4 01 00
	00		 jae	 $LN54@GetGuildBa
$LN204@GetGuildBa:

; 100  : 	return atoi(strTemp);

  00696	8d 45 88	 lea	 eax, DWORD PTR _strTemp$15[ebp]
  00699	c6 44 0d 88 00	 mov	 BYTE PTR _strTemp$15[ebp+ecx], 0
  0069e	50		 push	 eax
  0069f	46		 inc	 esi
  006a0	e8 00 00 00 00	 call	 _atoi
; File C:\IAGOS\server\v18\Source\Source\_Database\DbManagerFun.cpp

; 561  : 			pPet->SetEnergy( wEnergy );

  006a5	8b 8d 80 b9 ff
	ff		 mov	 ecx, DWORD PTR $T7[ebp]
; File C:\IAGOS\server\v18\Source\Source\_network\CmnHdr.h

; 100  : 	return atoi(strTemp);

  006ab	83 c4 04	 add	 esp, 4
; File C:\IAGOS\server\v18\Source\Source\_Database\DbManagerFun.cpp

; 560  : 			WORD wEnergy	= (WORD)GetIntFromStr( szPet, &CountStr );

  006ae	0f b7 c0	 movzx	 eax, ax

; 561  : 			pPet->SetEnergy( wEnergy );

  006b1	50		 push	 eax
  006b2	e8 00 00 00 00	 call	 ?SetEnergy@CPet@@QAEXG@Z ; CPet::SetEnergy
; File C:\IAGOS\server\v18\Source\Source\_network\CmnHdr.h

; 149  : 	while(pBuf[*pLocation]!=',' && pBuf[*pLocation]!=0)

  006b7	8a 84 35 08 e7
	ff ff		 mov	 al, BYTE PTR _szPet$[ebp+esi]
  006be	33 c9		 xor	 ecx, ecx
  006c0	8b d6		 mov	 edx, esi
  006c2	3c 2c		 cmp	 al, 44			; 0000002cH
  006c4	74 31		 je	 SHORT $LN203@GetGuildBa
  006c6	8b fe		 mov	 edi, esi
$LL123@GetGuildBa:
  006c8	84 c0		 test	 al, al
  006ca	74 22		 je	 SHORT $LN124@GetGuildBa

; 150  : 	{
; 151  : 		if( pBuf[*pLocation]!='/' )

  006cc	3c 2f		 cmp	 al, 47			; 0000002fH
  006ce	0f 84 7c 01 00
	00		 je	 $LN125@GetGuildBa

; 152  : 		{
; 153  : 			strTemp[count]=pBuf[*pLocation];
; 154  : 			count++; (*pLocation)++;

  006d4	8d 77 01	 lea	 esi, DWORD PTR [edi+1]
  006d7	88 84 0d 40 ff
	ff ff		 mov	 BYTE PTR _strTemp$10[ebp+ecx], al
  006de	8a 84 35 08 e7
	ff ff		 mov	 al, BYTE PTR _szPet$[ebp+esi]
  006e5	41		 inc	 ecx
  006e6	8b d6		 mov	 edx, esi
  006e8	8b fe		 mov	 edi, esi
  006ea	3c 2c		 cmp	 al, 44			; 0000002cH
  006ec	75 da		 jne	 SHORT $LL123@GetGuildBa
$LN124@GetGuildBa:

; 166  : 			}
; 167  : 		}
; 168  : 	}
; 169  : 	strTemp[count]=0;(*pLocation)++;

  006ee	83 f9 32	 cmp	 ecx, 50			; 00000032H
  006f1	0f 83 83 01 00
	00		 jae	 $LN54@GetGuildBa
$LN203@GetGuildBa:
  006f7	8d 72 01	 lea	 esi, DWORD PTR [edx+1]
$LN222@GetGuildBa:
; File C:\IAGOS\server\v18\Source\Source\_Database\DbManagerFun.cpp

; 564  : 			pPet->SetLife( wLife );

  006fa	8d 85 40 ff ff
	ff		 lea	 eax, DWORD PTR _strTemp$10[ebp]
  00700	c6 84 0d 40 ff
	ff ff 00	 mov	 BYTE PTR _strTemp$10[ebp+ecx], 0
  00708	50		 push	 eax
  00709	e8 00 00 00 00	 call	 _atoi
  0070e	83 c4 04	 add	 esp, 4
$LN122@GetGuildBa:
  00711	8b 8d 80 b9 ff
	ff		 mov	 ecx, DWORD PTR $T7[ebp]

; 565  : 			for( int i = PL_D; i <= pPet->GetLevel(); i++ )

  00717	bf 01 00 00 00	 mov	 edi, 1
  0071c	80 79 05 01	 cmp	 BYTE PTR [ecx+5], 1
  00720	66 89 41 0e	 mov	 WORD PTR [ecx+14], ax
  00724	72 77		 jb	 SHORT $LN11@GetGuildBa
  00726	66 66 0f 1f 84
	00 00 00 00 00	 npad	 10
$LL12@GetGuildBa:
; File C:\IAGOS\server\v18\Source\Source\_network\CmnHdr.h

; 149  : 	while(pBuf[*pLocation]!=',' && pBuf[*pLocation]!=0)

  00730	8a 84 35 08 e7
	ff ff		 mov	 al, BYTE PTR _szPet$[ebp+esi]
  00737	33 c9		 xor	 ecx, ecx
  00739	3c 2c		 cmp	 al, 44			; 0000002cH
  0073b	74 2c		 je	 SHORT $LN202@GetGuildBa
  0073d	0f 1f 00	 npad	 3
$LL28@GetGuildBa:
  00740	84 c0		 test	 al, al
  00742	74 1c		 je	 SHORT $LN29@GetGuildBa

; 150  : 	{
; 151  : 		if( pBuf[*pLocation]!='/' )

  00744	3c 2f		 cmp	 al, 47			; 0000002fH
  00746	0f 84 19 01 00
	00		 je	 $LN30@GetGuildBa

; 152  : 		{
; 153  : 			strTemp[count]=pBuf[*pLocation];
; 154  : 			count++; (*pLocation)++;

  0074c	46		 inc	 esi
  0074d	88 84 0d 40 ff
	ff ff		 mov	 BYTE PTR _strTemp$9[ebp+ecx], al
  00754	41		 inc	 ecx
  00755	8a 84 35 08 e7
	ff ff		 mov	 al, BYTE PTR _szPet$[ebp+esi]
  0075c	3c 2c		 cmp	 al, 44			; 0000002cH
  0075e	75 e0		 jne	 SHORT $LL28@GetGuildBa
$LN29@GetGuildBa:

; 166  : 			}
; 167  : 		}
; 168  : 	}
; 169  : 	strTemp[count]=0;(*pLocation)++;

  00760	83 f9 32	 cmp	 ecx, 50			; 00000032H
  00763	0f 83 11 01 00
	00		 jae	 $LN54@GetGuildBa
$LN202@GetGuildBa:
  00769	46		 inc	 esi
$LN223@GetGuildBa:
; File C:\IAGOS\server\v18\Source\Source\_Database\DbManagerFun.cpp

; 568  : 				pPet->SetAvailLevel( i, nAvailLevel );

  0076a	8d 85 40 ff ff
	ff		 lea	 eax, DWORD PTR _strTemp$9[ebp]
  00770	c6 84 0d 40 ff
	ff ff 00	 mov	 BYTE PTR _strTemp$9[ebp+ecx], 0
  00778	50		 push	 eax
  00779	e8 00 00 00 00	 call	 _atoi
  0077e	83 c4 04	 add	 esp, 4
$LN27@GetGuildBa:
  00781	8b 8d 80 b9 ff
	ff		 mov	 ecx, DWORD PTR $T7[ebp]
  00787	50		 push	 eax
  00788	57		 push	 edi
  00789	e8 00 00 00 00	 call	 ?SetAvailLevel@CPet@@QAEXEE@Z ; CPet::SetAvailLevel
  0078e	8b 85 80 b9 ff
	ff		 mov	 eax, DWORD PTR $T7[ebp]
  00794	47		 inc	 edi
  00795	0f b6 40 05	 movzx	 eax, BYTE PTR [eax+5]
  00799	3b f8		 cmp	 edi, eax
  0079b	7e 93		 jle	 SHORT $LL12@GetGuildBa
$LN11@GetGuildBa:
; File C:\IAGOS\server\v18\Source\Source\_network\CmnHdr.h

; 106  : 	while(pBuf[*pLocation]!=',' && pBuf[*pLocation]!='/' && pBuf[*pLocation]!=0) {

  0079d	8a 84 35 08 e7
	ff ff		 mov	 al, BYTE PTR _szPet$[ebp+esi]
  007a4	0f 57 c0	 xorps	 xmm0, xmm0

; 101  : }
; 102  : 
; 103  : inline void GetStrFromStr(char *pBuf, char *strReturn, int *pLocation)
; 104  : {
; 105  : 	int count=0;

  007a7	33 c9		 xor	 ecx, ecx
; File C:\IAGOS\server\v18\Source\Source\_Database\DbManagerFun.cpp

; 570  : 			char szFmt[MAX_PET_NAME_FMT]	= { 0,};

  007a9	c6 45 ec 00	 mov	 BYTE PTR _szFmt$21[ebp+32], 0
  007ad	0f 11 45 cc	 movups	 XMMWORD PTR _szFmt$21[ebp], xmm0
  007b1	0f 11 45 dc	 movups	 XMMWORD PTR _szFmt$21[ebp+16], xmm0
; File C:\IAGOS\server\v18\Source\Source\_network\CmnHdr.h

; 106  : 	while(pBuf[*pLocation]!=',' && pBuf[*pLocation]!='/' && pBuf[*pLocation]!=0) {

  007b5	3c 2c		 cmp	 al, 44			; 0000002cH
  007b7	74 20		 je	 SHORT $LN42@GetGuildBa
  007b9	0f 1f 80 00 00
	00 00		 npad	 7
$LL41@GetGuildBa:
  007c0	3c 2f		 cmp	 al, 47			; 0000002fH
  007c2	74 15		 je	 SHORT $LN42@GetGuildBa
  007c4	84 c0		 test	 al, al
  007c6	74 11		 je	 SHORT $LN42@GetGuildBa

; 107  : 		strReturn[count]=pBuf[*pLocation];
; 108  : 		count++; (*pLocation)++;

  007c8	46		 inc	 esi
  007c9	88 44 0d cc	 mov	 BYTE PTR _szFmt$21[ebp+ecx], al
  007cd	41		 inc	 ecx
  007ce	8a 84 35 08 e7
	ff ff		 mov	 al, BYTE PTR _szPet$[ebp+esi]
  007d5	3c 2c		 cmp	 al, 44			; 0000002cH
  007d7	75 e7		 jne	 SHORT $LL41@GetGuildBa
$LN42@GetGuildBa:
; File C:\IAGOS\server\v18\Source\Source\_Database\DbManagerFun.cpp

; 573  : 			GetDBFormatStr( szName, MAX_PET_NAME, szFmt );

  007d9	8d 45 cc	 lea	 eax, DWORD PTR _szFmt$21[ebp]
; File C:\IAGOS\server\v18\Source\Source\_network\CmnHdr.h

; 110  : 	strReturn[count]=0;(*pLocation)++;

  007dc	c6 44 0d cc 00	 mov	 BYTE PTR _szFmt$21[ebp+ecx], 0
; File C:\IAGOS\server\v18\Source\Source\_Database\DbManagerFun.cpp

; 573  : 			GetDBFormatStr( szName, MAX_PET_NAME, szFmt );

  007e1	8b 8d 70 b9 ff
	ff		 mov	 ecx, DWORD PTR _this$GSCopy$1$[ebp]
  007e7	0f 57 c0	 xorps	 xmm0, xmm0
  007ea	50		 push	 eax
  007eb	6a 11		 push	 17			; 00000011H
  007ed	8d 85 74 ff ff
	ff		 lea	 eax, DWORD PTR _szName$11[ebp]
  007f3	c6 45 84 00	 mov	 BYTE PTR _szName$11[ebp+16], 0
; File C:\IAGOS\server\v18\Source\Source\_network\CmnHdr.h

; 110  : 	strReturn[count]=0;(*pLocation)++;

  007f7	46		 inc	 esi
; File C:\IAGOS\server\v18\Source\Source\_Database\DbManagerFun.cpp

; 573  : 			GetDBFormatStr( szName, MAX_PET_NAME, szFmt );

  007f8	50		 push	 eax
; File C:\IAGOS\server\v18\Source\Source\_network\CmnHdr.h

; 110  : 	strReturn[count]=0;(*pLocation)++;

  007f9	8b fe		 mov	 edi, esi
; File C:\IAGOS\server\v18\Source\Source\_Database\DbManagerFun.cpp

; 572  : 			char szName[MAX_PET_NAME]	= { 0,};

  007fb	0f 11 85 74 ff
	ff ff		 movups	 XMMWORD PTR _szName$11[ebp], xmm0

; 573  : 			GetDBFormatStr( szName, MAX_PET_NAME, szFmt );

  00802	e8 00 00 00 00	 call	 ?GetDBFormatStr@CDbManager@@AAEXPADHPBD@Z ; CDbManager::GetDBFormatStr

; 574  : 			pPet->SetName( szName );

  00807	8b 8d 80 b9 ff
	ff		 mov	 ecx, DWORD PTR $T7[ebp]
  0080d	8d 85 74 ff ff
	ff		 lea	 eax, DWORD PTR _szName$11[ebp]
  00813	50		 push	 eax
  00814	e8 00 00 00 00	 call	 ?SetName@CPet@@QAEXPBD@Z ; CPet::SetName
  00819	8b ce		 mov	 ecx, esi
$LN18@GetGuildBa:

; 575  : #else	// __PET_1024
; 576  : 			WORD wLife	= (WORD)GetIntFromStr( szPet, &CountStr );
; 577  : 			pPet->SetLife( wLife );
; 578  : 			for( int i = PL_D; i <= pPet->GetLevel(); i++ )
; 579  : 			{
; 580  : 				BYTE nAvailLevel	= (BYTE)GetIntFromStr( szPet, &CountStr );
; 581  : 				pPet->SetAvailLevel( i, nAvailLevel );
; 582  : 			}
; 583  : #endif	// __PET_1024
; 584  : 		}
; 585  : 		nId++;

  0081b	81 85 78 b9 ff
	ff 98 00 00 00	 add	 DWORD PTR tv1915[ebp], 152 ; 00000098H
  00825	80 bc 0d 08 e7
	ff ff 24	 cmp	 BYTE PTR _szPet$[ebp+ecx], 36 ; 00000024H
  0082d	0f 85 8d fb ff
	ff		 jne	 $LL8@GetGuildBa
$LN9@GetGuildBa:

; 587  : }

  00833	8b 4d f4	 mov	 ecx, DWORD PTR __$EHRec$[ebp]
  00836	64 89 0d 00 00
	00 00		 mov	 DWORD PTR fs:0, ecx
  0083d	59		 pop	 ecx
  0083e	5f		 pop	 edi
  0083f	5e		 pop	 esi
  00840	8b 4d f0	 mov	 ecx, DWORD PTR __$ArrayPad$[ebp]
  00843	33 cd		 xor	 ecx, ebp
  00845	e8 00 00 00 00	 call	 @__security_check_cookie@4
  0084a	8b e5		 mov	 esp, ebp
  0084c	5d		 pop	 ebp
  0084d	c2 08 00	 ret	 8
$LN125@GetGuildBa:
; File C:\IAGOS\server\v18\Source\Source\_network\CmnHdr.h

; 158  : 			if( count == 0 )

  00850	85 c9		 test	 ecx, ecx
  00852	75 07		 jne	 SHORT $LN127@GetGuildBa

; 159  : 			{
; 160  : 				return 0;

  00854	33 c0		 xor	 eax, eax
  00856	e9 b6 fe ff ff	 jmp	 $LN122@GetGuildBa
$LN127@GetGuildBa:

; 161  : 			}
; 162  : 			else
; 163  : 			{
; 164  : 				strTemp[count]=0;

  0085b	83 f9 32	 cmp	 ecx, 50			; 00000032H
  0085e	73 1a		 jae	 SHORT $LN54@GetGuildBa

; 165  : 				return atoi(strTemp);

  00860	e9 95 fe ff ff	 jmp	 $LN222@GetGuildBa
$LN30@GetGuildBa:

; 158  : 			if( count == 0 )

  00865	85 c9		 test	 ecx, ecx
  00867	75 07		 jne	 SHORT $LN32@GetGuildBa

; 159  : 			{
; 160  : 				return 0;

  00869	33 c0		 xor	 eax, eax
  0086b	e9 11 ff ff ff	 jmp	 $LN27@GetGuildBa
$LN32@GetGuildBa:

; 161  : 			}
; 162  : 			else
; 163  : 			{
; 164  : 				strTemp[count]=0;

  00870	83 f9 32	 cmp	 ecx, 50			; 00000032H
  00873	73 05		 jae	 SHORT $LN54@GetGuildBa

; 165  : 				return atoi(strTemp);

  00875	e9 f0 fe ff ff	 jmp	 $LN223@GetGuildBa
$LN54@GetGuildBa:
; File C:\IAGOS\server\v18\Source\Source\_Database\DbManagerFun.cpp

; 587  : }

  0087a	e8 00 00 00 00	 call	 ___report_rangecheckfailure
$LN216@GetGuildBa:
  0087f	cc		 int	 3
_TEXT	ENDS
;	COMDAT text$x
text$x	SEGMENT
__unwindfunclet$?GetGuildBank@CDbManager@@QAEXPAV?$CItemContainer@VCItemElem@@@@PAVCQuery@@@Z$0:
  00000	8d 8d 84 b9 ff
	ff		 lea	 ecx, DWORD PTR _BufItemElem$8[ebp]
  00006	e9 00 00 00 00	 jmp	 ??1CItemElem@@UAE@XZ	; CItemElem::~CItemElem
__unwindfunclet$?GetGuildBank@CDbManager@@QAEXPAV?$CItemContainer@VCItemElem@@@@PAVCQuery@@@Z$1:
  0000b	6a 28		 push	 40			; 00000028H
  0000d	8b 85 6c b9 ff
	ff		 mov	 eax, DWORD PTR $T3[ebp]
  00013	50		 push	 eax
  00014	e8 00 00 00 00	 call	 ??3@YAXPAXI@Z		; operator delete
  00019	83 c4 08	 add	 esp, 8
  0001c	c3		 ret	 0
  0001d	cc		 int	 3
  0001e	cc		 int	 3
  0001f	cc		 int	 3
  00020	cc		 int	 3
  00021	cc		 int	 3
__ehhandler$?GetGuildBank@CDbManager@@QAEXPAV?$CItemContainer@VCItemElem@@@@PAVCQuery@@@Z:
  00022	90		 npad	 1
  00023	90		 npad	 1
  00024	8b 54 24 08	 mov	 edx, DWORD PTR [esp+8]
  00028	8d 42 0c	 lea	 eax, DWORD PTR [edx+12]
  0002b	8b 8a 68 b9 ff
	ff		 mov	 ecx, DWORD PTR [edx-18072]
  00031	33 c8		 xor	 ecx, eax
  00033	e8 00 00 00 00	 call	 @__security_check_cookie@4
  00038	8b 4a fc	 mov	 ecx, DWORD PTR [edx-4]
  0003b	33 c8		 xor	 ecx, eax
  0003d	e8 00 00 00 00	 call	 @__security_check_cookie@4
  00042	b8 00 00 00 00	 mov	 eax, OFFSET __ehfuncinfo$?GetGuildBank@CDbManager@@QAEXPAV?$CItemContainer@VCItemElem@@@@PAVCQuery@@@Z
  00047	e9 00 00 00 00	 jmp	 ___CxxFrameHandler3
text$x	ENDS
?GetGuildBank@CDbManager@@QAEXPAV?$CItemContainer@VCItemElem@@@@PAVCQuery@@@Z ENDP ; CDbManager::GetGuildBank
; Function compile flags: /Ogtp
; File C:\IAGOS\server\v18\Source\Source\_Database\DbManagerFun.cpp
; File C:\IAGOS\server\v18\Source\Source\_database\DbManager.h
; File C:\IAGOS\server\v18\Source\Source\_Database\DbManagerFun.cpp
; File C:\IAGOS\server\v18\Source\Source\_database\DbManager.h
; File C:\IAGOS\server\v18\Source\Source\_Database\DbManagerFun.cpp
; File C:\IAGOS\server\v18\Source\Source\_database\DbManager.h
; File C:\IAGOS\server\v18\Source\Source\_Database\DbManagerFun.cpp
; File C:\IAGOS\server\v18\Source\Source\_database\DbManager.h
; File C:\IAGOS\server\v18\Source\Source\_Database\DbManagerFun.cpp
; File C:\IAGOS\server\v18\Source\Source\_database\DbManager.h
; File C:\IAGOS\server\v18\Source\Source\_Database\DbManagerFun.cpp
; File C:\IAGOS\server\v18\Source\Source\_network\CmnHdr.h
; File C:\IAGOS\server\v18\Source\Source\_Database\DbManagerFun.cpp
; File C:\IAGOS\server\v18\Source\Source\_network\CmnHdr.h
; File C:\IAGOS\server\v18\Source\Source\_Database\DbManagerFun.cpp
; File C:\IAGOS\server\v18\Source\Source\_database\DbManager.h
; File C:\IAGOS\server\v18\Source\Source\_Database\DbManagerFun.cpp
; File C:\IAGOS\server\v18\Source\Source\_database\DbManager.h
; File C:\IAGOS\server\v18\Source\Source\_Database\DbManagerFun.cpp
; File C:\IAGOS\server\v18\Source\Source\_database\DbManager.h
; File C:\IAGOS\server\v18\Source\Source\_Database\DbManagerFun.cpp
; File C:\IAGOS\server\v18\Source\Source\_database\DbManager.h
; File C:\IAGOS\server\v18\Source\Source\_Database\DbManagerFun.cpp
; File C:\IAGOS\server\v18\Source\Source\_Network\Objects\Obj.h
; File C:\IAGOS\server\v18\Source\Source\_Database\DbManagerFun.cpp
; File C:\IAGOS\server\v18\Source\Source\_Network\Objects\Obj.h
; File C:\IAGOS\server\v18\Source\Source\_Database\DbManagerFun.cpp
; File C:\IAGOS\server\v18\Source\Source\_database\DbManager.h
; File C:\IAGOS\server\v18\Source\Source\_Database\DbManagerFun.cpp
; File C:\IAGOS\server\v18\Source\Source\_database\DbManager.h
; File C:\IAGOS\server\v18\Source\Source\_Database\DbManagerFun.cpp
; File C:\IAGOS\server\v18\Source\Source\_database\DbManager.h
; File C:\IAGOS\server\v18\Source\Source\_Database\DbManagerFun.cpp
; File C:\IAGOS\server\v18\Source\Source\_database\DbManager.h
; File C:\IAGOS\server\v18\Source\Source\_Database\DbManagerFun.cpp
; File C:\IAGOS\server\v18\Source\Source\_network\CmnHdr.h
; File C:\IAGOS\server\v18\Source\Source\_Database\DbManagerFun.cpp
; File C:\IAGOS\server\v18\Source\Source\_network\CmnHdr.h
; File C:\IAGOS\server\v18\Source\Source\_Database\DbManagerFun.cpp
; File C:\IAGOS\server\v18\Source\Source\_network\CmnHdr.h
; File C:\IAGOS\server\v18\Source\Source\_Database\DbManagerFun.cpp
; File C:\IAGOS\server\v18\Source\Source\_network\CmnHdr.h
; File C:\IAGOS\server\v18\Source\Source\_Database\DbManagerFun.cpp
; File C:\IAGOS\server\v18\Source\Source\_network\CmnHdr.h
; File C:\IAGOS\server\v18\Source\Source\_Database\DbManagerFun.cpp
; File C:\IAGOS\server\v18\Source\Source\_network\CmnHdr.h
; File C:\IAGOS\server\v18\Source\Source\_Database\DbManagerFun.cpp
; File C:\IAGOS\server\v18\Source\Source\_database\DbManager.h
; File C:\IAGOS\server\v18\Source\Source\_Database\DbManagerFun.cpp
; File C:\IAGOS\server\v18\Source\Source\_network\CmnHdr.h
; File C:\IAGOS\server\v18\Source\Source\_Database\DbManagerFun.cpp
;	COMDAT ?GetBankMover@CDbManager@@QAEHPAVCMover@@PAVCQuery@@H@Z
_TEXT	SEGMENT
$T2 = -18996						; size = 4
_nAvailLevel$3 = -18992					; size = 1
_this$GSCopy$1$ = -18988				; size = 4
_pMover$GSCopy$1$ = -18984				; size = 4
_nSlot$GSCopy$1$ = -18980				; size = 4
tv965 = -18976						; size = 4
tv1010 = -18976						; size = 4
tv1011 = -18976						; size = 4
tv1012 = -18976						; size = 4
tv977 = -18972						; size = 4
tv1022 = -18972						; size = 4
$T4 = -18972						; size = 4
_CountStr$ = -18968					; size = 4
_BufItemElem$5 = -18964					; size = 152
_Bank$ = -18812						; size = 7500
_PirecingBank$ = -11312					; size = 4000
_szPet$ = -7312						; size = 4200
_ExtBank$ = -3112					; size = 2000
_ObjIndexBank$ = -1112					; size = 512
_m_apIndexBank$ = -600					; size = 512
_strTemp$6 = -88					; size = 50
_szFmt$7 = -72						; size = 33
_szName$8 = -36						; size = 17
__$ArrayPad$ = -16					; size = 4
__$EHRec$ = -12						; size = 12
_pMover$ = 8						; size = 4
_qry$ = 12						; size = 4
_nSlot$ = 16						; size = 4
?GetBankMover@CDbManager@@QAEHPAVCMover@@PAVCQuery@@H@Z PROC ; CDbManager::GetBankMover, COMDAT
; _this$ = ecx

; 324  : {

  00000	55		 push	 ebp
  00001	8b ec		 mov	 ebp, esp
  00003	6a ff		 push	 -1
  00005	68 00 00 00 00	 push	 __ehhandler$?GetBankMover@CDbManager@@QAEHPAVCMover@@PAVCQuery@@H@Z
  0000a	64 a1 00 00 00
	00		 mov	 eax, DWORD PTR fs:0
  00010	50		 push	 eax
  00011	b8 28 4a 00 00	 mov	 eax, 18984		; 00004a28H
  00016	e8 00 00 00 00	 call	 __chkstk
  0001b	a1 00 00 00 00	 mov	 eax, DWORD PTR ___security_cookie
  00020	33 c5		 xor	 eax, ebp
  00022	89 45 f0	 mov	 DWORD PTR __$ArrayPad$[ebp], eax
  00025	56		 push	 esi
  00026	57		 push	 edi
  00027	50		 push	 eax
  00028	8d 45 f4	 lea	 eax, DWORD PTR __$EHRec$[ebp]
  0002b	64 a3 00 00 00
	00		 mov	 DWORD PTR fs:0, eax
  00031	89 8d d4 b5 ff
	ff		 mov	 DWORD PTR _this$GSCopy$1$[ebp], ecx
  00037	8b 45 10	 mov	 eax, DWORD PTR _nSlot$[ebp]
  0003a	8b 7d 08	 mov	 edi, DWORD PTR _pMover$[ebp]
  0003d	8b 75 0c	 mov	 esi, DWORD PTR _qry$[ebp]

; 325  : 	int CountStr	= 0;
; 326  : 	int itemCount	= 0;
; 327  : 	int	IndexItem	= 0;
; 328  : 	int IndexObjIndex	= 0;
; 329  : 	int nExtBankCount = 0;
; 330  : 	int nPirecingBankCount = 0;
; 331  : 	char Bank[7500]		= { 0, };

  00040	68 4c 1d 00 00	 push	 7500			; 00001d4cH
  00045	89 85 dc b5 ff
	ff		 mov	 DWORD PTR _nSlot$GSCopy$1$[ebp], eax
  0004b	8d 85 84 b6 ff
	ff		 lea	 eax, DWORD PTR _Bank$[ebp]
  00051	6a 00		 push	 0
  00053	50		 push	 eax
  00054	89 bd d8 b5 ff
	ff		 mov	 DWORD PTR _pMover$GSCopy$1$[ebp], edi
  0005a	e8 00 00 00 00	 call	 _memset

; 332  : 	char m_apIndexBank[512]		= { 0, };

  0005f	68 00 02 00 00	 push	 512			; 00000200H
  00064	8d 85 a8 fd ff
	ff		 lea	 eax, DWORD PTR _m_apIndexBank$[ebp]
  0006a	6a 00		 push	 0
  0006c	50		 push	 eax
  0006d	e8 00 00 00 00	 call	 _memset

; 333  : 	char ObjIndexBank[512]	= { 0, };

  00072	68 00 02 00 00	 push	 512			; 00000200H
  00077	8d 85 a8 fb ff
	ff		 lea	 eax, DWORD PTR _ObjIndexBank$[ebp]
  0007d	6a 00		 push	 0
  0007f	50		 push	 eax
  00080	e8 00 00 00 00	 call	 _memset

; 334  : 	char ExtBank[2000] = {0,};	

  00085	68 d0 07 00 00	 push	 2000			; 000007d0H
  0008a	8d 85 d8 f3 ff
	ff		 lea	 eax, DWORD PTR _ExtBank$[ebp]
  00090	6a 00		 push	 0
  00092	50		 push	 eax
  00093	e8 00 00 00 00	 call	 _memset

; 335  : 	char PirecingBank[4000] = {0,};

  00098	68 a0 0f 00 00	 push	 4000			; 00000fa0H
  0009d	8d 85 d0 d3 ff
	ff		 lea	 eax, DWORD PTR _PirecingBank$[ebp]
  000a3	6a 00		 push	 0
  000a5	50		 push	 eax
  000a6	e8 00 00 00 00	 call	 _memset

; 336  : #ifdef __PET_1024
; 337  : 	char szPet[4200]	= { 0,};

  000ab	68 68 10 00 00	 push	 4200			; 00001068H
  000b0	8d 85 70 e3 ff
	ff		 lea	 eax, DWORD PTR _szPet$[ebp]
  000b6	6a 00		 push	 0
  000b8	50		 push	 eax
  000b9	e8 00 00 00 00	 call	 _memset
  000be	83 c4 48	 add	 esp, 72			; 00000048H

; 338  : #else	// __PET_1024
; 339  : 	char szPet[2688]	= { 0,};
; 340  : #endif	// __PET_1024
; 341  : 	
; 342  : 	qry->GetStr( "m_Bank", Bank );

  000c1	8d 85 84 b6 ff
	ff		 lea	 eax, DWORD PTR _Bank$[ebp]
  000c7	8b ce		 mov	 ecx, esi
  000c9	50		 push	 eax
  000ca	68 00 00 00 00	 push	 OFFSET ??_C@_06BAMDHIIP@m_Bank@
  000cf	e8 00 00 00 00	 call	 ?GetStr@CQuery@@QAEXPAD0@Z ; CQuery::GetStr

; 343  : 	qry->GetStr( "m_apIndex_Bank", m_apIndexBank );

  000d4	8d 85 a8 fd ff
	ff		 lea	 eax, DWORD PTR _m_apIndexBank$[ebp]
  000da	8b ce		 mov	 ecx, esi
  000dc	50		 push	 eax
  000dd	68 00 00 00 00	 push	 OFFSET ??_C@_0P@KMLFLAAK@m_apIndex_Bank@
  000e2	e8 00 00 00 00	 call	 ?GetStr@CQuery@@QAEXPAD0@Z ; CQuery::GetStr

; 344  : 	qry->GetStr("m_dwObjIndex_Bank", ObjIndexBank );

  000e7	8d 85 a8 fb ff
	ff		 lea	 eax, DWORD PTR _ObjIndexBank$[ebp]
  000ed	8b ce		 mov	 ecx, esi
  000ef	50		 push	 eax
  000f0	68 00 00 00 00	 push	 OFFSET ??_C@_0BC@HHMCMCCB@m_dwObjIndex_Bank@
  000f5	e8 00 00 00 00	 call	 ?GetStr@CQuery@@QAEXPAD0@Z ; CQuery::GetStr

; 345  : 	qry->GetStr( "m_extBank", ExtBank );

  000fa	8d 85 d8 f3 ff
	ff		 lea	 eax, DWORD PTR _ExtBank$[ebp]
  00100	8b ce		 mov	 ecx, esi
  00102	50		 push	 eax
  00103	68 00 00 00 00	 push	 OFFSET ??_C@_09CHFBCGKD@m_extBank@
  00108	e8 00 00 00 00	 call	 ?GetStr@CQuery@@QAEXPAD0@Z ; CQuery::GetStr

; 346  : 	qry->GetStr( "m_BankPiercing", PirecingBank );

  0010d	8d 85 d0 d3 ff
	ff		 lea	 eax, DWORD PTR _PirecingBank$[ebp]
  00113	8b ce		 mov	 ecx, esi
  00115	50		 push	 eax
  00116	68 00 00 00 00	 push	 OFFSET ??_C@_0P@HANLGJJC@m_BankPiercing@
  0011b	e8 00 00 00 00	 call	 ?GetStr@CQuery@@QAEXPAD0@Z ; CQuery::GetStr

; 347  : 	qry->GetStr( "szBankPet", szPet );

  00120	8d 85 70 e3 ff
	ff		 lea	 eax, DWORD PTR _szPet$[ebp]
  00126	8b ce		 mov	 ecx, esi
  00128	50		 push	 eax
  00129	68 00 00 00 00	 push	 OFFSET ??_C@_09DAKBPAHF@szBankPet@
  0012e	e8 00 00 00 00	 call	 ?GetStr@CQuery@@QAEXPAD0@Z ; CQuery::GetStr
; File C:\IAGOS\server\v18\Source\Source\_database\DbManager.h

; 1305 : 	int len		= strlen( lpString );

  00133	8d 8d 84 b6 ff
	ff		 lea	 ecx, DWORD PTR _Bank$[ebp]
; File C:\IAGOS\server\v18\Source\Source\_Database\DbManagerFun.cpp

; 349  : 	CountStr	= 0;	IndexItem	= 0;			

  00139	c7 85 e8 b5 ff
	ff 00 00 00 00	 mov	 DWORD PTR _CountStr$[ebp], 0
; File C:\IAGOS\server\v18\Source\Source\_database\DbManager.h

; 1305 : 	int len		= strlen( lpString );

  00143	8d 51 01	 lea	 edx, DWORD PTR [ecx+1]
$LL119@GetBankMov:
  00146	8a 01		 mov	 al, BYTE PTR [ecx]
  00148	41		 inc	 ecx
  00149	84 c0		 test	 al, al
  0014b	75 f9		 jne	 SHORT $LL119@GetBankMov
  0014d	2b ca		 sub	 ecx, edx

; 1306 : 	if( len > 0 && lpString[len-1] == '$' )

  0014f	85 c9		 test	 ecx, ecx
  00151	0f 8e 9e 06 00
	00		 jle	 $LN44@GetBankMov
  00157	80 bc 0d 83 b6
	ff ff 24	 cmp	 BYTE PTR _Bank$[ebp+ecx-1], 36 ; 00000024H
  0015f	0f 85 90 06 00
	00		 jne	 $LN44@GetBankMov
; File C:\IAGOS\server\v18\Source\Source\_Database\DbManagerFun.cpp

; 351  : 	while( '$' != Bank[CountStr] )

  00165	80 bd 84 b6 ff
