; Listing generated by Microsoft (R) Optimizing Compiler Version 19.44.35225.0 

	TITLE	C:\IAGOS\server\v18\Source\Output\DatabaseServer\Release\DbManagerJoin.obj
	.686P
	.XMM
	include listing.inc
	.model	flat

INCLUDELIB LIBCMT
INCLUDELIB OLDNAMES

PUBLIC	?__empty_global_delete@@YAXPAX@Z		; __empty_global_delete
PUBLIC	?__empty_global_delete@@YAXPAXI@Z		; __empty_global_delete
PUBLIC	___local_stdio_printf_options
PUBLIC	_sprintf
PUBLIC	??0exception@std@@QAE@ABV01@@Z			; std::exception::exception
PUBLIC	??1exception@std@@UAE@XZ			; std::exception::~exception
PUBLIC	?what@exception@std@@UBEPBDXZ			; std::exception::what
PUBLIC	??_Gexception@std@@UAEPAXI@Z			; std::exception::`scalar deleting destructor'
PUBLIC	??0bad_alloc@std@@QAE@ABV01@@Z			; std::bad_alloc::bad_alloc
PUBLIC	??_Gbad_alloc@std@@UAEPAXI@Z			; std::bad_alloc::`scalar deleting destructor'
PUBLIC	??0bad_array_new_length@std@@QAE@XZ		; std::bad_array_new_length::bad_array_new_length
PUBLIC	??1bad_array_new_length@std@@UAE@XZ		; std::bad_array_new_length::~bad_array_new_length
PUBLIC	??0bad_array_new_length@std@@QAE@ABV01@@Z	; std::bad_array_new_length::bad_array_new_length
PUBLIC	??_Gbad_array_new_length@std@@UAEPAXI@Z		; std::bad_array_new_length::`scalar deleting destructor'
PUBLIC	?_Throw_bad_array_new_length@std@@YAXXZ		; std::_Throw_bad_array_new_length
PUBLIC	?push_back@?$list@PAXV?$allocator@PAX@std@@@std@@QAEXABQAX@Z ; std::list<void *,std::allocator<void *> >::push_back
PUBLIC	?Copy@?$CItemContainer@VCItemElem@@@@QAEXAAV1@@Z ; CItemContainer<CItemElem>::Copy
PUBLIC	??2CMover@@SAPAXI@Z				; CMover::operator new
PUBLIC	??3CMover@@SAXPAX@Z				; CMover::operator delete
PUBLIC	?SendJoin@CDbManager@@QAEXPAVCMover@@PAUtagDB_OVERLAPPED_PLUS@@KKPBD2KKHHPAUTAG_ENTRY@@2@Z ; CDbManager::SendJoin
PUBLIC	?Join@CDbManager@@QAEXPAVCQuery@@00PAUtagDB_OVERLAPPED_PLUS@@@Z ; CDbManager::Join
PUBLIC	??1?$_Alloc_construct_ptr@V?$allocator@U?$_List_node@PAXPAX@std@@@std@@@std@@QAE@XZ ; std::_Alloc_construct_ptr<std::allocator<std::_List_node<void *,void *> > >::~_Alloc_construct_ptr<std::allocator<std::_List_node<void *,void *> > >
PUBLIC	??$_Allocate_manually_vector_aligned@U_Default_allocate_traits@std@@@std@@YAPAXI@Z ; std::_Allocate_manually_vector_aligned<std::_Default_allocate_traits>
PUBLIC	??$?6H@CAr@@QAEAAV0@ABH@Z			; CAr::operator<<<int>
PUBLIC	??$?6K@CAr@@QAEAAV0@ABK@Z			; CAr::operator<<<unsigned long>
PUBLIC	??$?6J@CAr@@QAEAAV0@ABJ@Z			; CAr::operator<<<long>
PUBLIC	??$?6UD3DXVECTOR3@@@CAr@@QAEAAV0@ABUD3DXVECTOR3@@@Z ; CAr::operator<<<D3DXVECTOR3>
PUBLIC	??$?5K@CAr@@QAEAAV0@AAK@Z			; CAr::operator>><unsigned long>
PUBLIC	??$?6UtagPLAY_ACCOUNT@@@CAr@@QAEAAV0@ABUtagPLAY_ACCOUNT@@@Z ; CAr::operator<<<tagPLAY_ACCOUNT>
PUBLIC	??$?6_J@CAr@@QAEAAV0@AB_J@Z			; CAr::operator<<<__int64>
PUBLIC	??$?5E@CAr@@QAEAAV0@AAE@Z			; CAr::operator>><unsigned char>
PUBLIC	?_OptionsStorage@?1??__local_stdio_printf_options@@9@4_KA ; `__local_stdio_printf_options'::`2'::_OptionsStorage
PUBLIC	??_7exception@std@@6B@				; std::exception::`vftable'
PUBLIC	??_C@_0BC@EOODALEL@Unknown?5exception@		; `string'
PUBLIC	??_7bad_alloc@std@@6B@				; std::bad_alloc::`vftable'
PUBLIC	??_7bad_array_new_length@std@@6B@		; std::bad_array_new_length::`vftable'
PUBLIC	??_C@_0BF@KINCDENJ@bad?5array?5new?5length@	; `string'
PUBLIC	??_R0?AVexception@std@@@8			; std::exception `RTTI Type Descriptor'
PUBLIC	__CT??_R0?AVexception@std@@@8??0exception@std@@QAE@ABV01@@Z12
PUBLIC	__TI3?AVbad_array_new_length@std@@
PUBLIC	__CTA3?AVbad_array_new_length@std@@
PUBLIC	??_R0?AVbad_array_new_length@std@@@8		; std::bad_array_new_length `RTTI Type Descriptor'
PUBLIC	__CT??_R0?AVbad_array_new_length@std@@@8??0bad_array_new_length@std@@QAE@ABV01@@Z12
PUBLIC	??_R0?AVbad_alloc@std@@@8			; std::bad_alloc `RTTI Type Descriptor'
PUBLIC	__CT??_R0?AVbad_alloc@std@@@8??0bad_alloc@std@@QAE@ABV01@@Z12
PUBLIC	??_C@_09PKKCPLIP@bad?5alloc@			; `string'
PUBLIC	??_C@_0O@NKNMEGII@list?5too?5long@		; `string'
PUBLIC	??_R4exception@std@@6B@				; std::exception::`RTTI Complete Object Locator'
PUBLIC	??_R3exception@std@@8				; std::exception::`RTTI Class Hierarchy Descriptor'
PUBLIC	??_R2exception@std@@8				; std::exception::`RTTI Base Class Array'
PUBLIC	??_R1A@?0A@EA@exception@std@@8			; std::exception::`RTTI Base Class Descriptor at (0,-1,0,64)'
PUBLIC	??_R4bad_array_new_length@std@@6B@		; std::bad_array_new_length::`RTTI Complete Object Locator'
PUBLIC	??_R3bad_array_new_length@std@@8		; std::bad_array_new_length::`RTTI Class Hierarchy Descriptor'
PUBLIC	??_R2bad_array_new_length@std@@8		; std::bad_array_new_length::`RTTI Base Class Array'
PUBLIC	??_R1A@?0A@EA@bad_array_new_length@std@@8	; std::bad_array_new_length::`RTTI Base Class Descriptor at (0,-1,0,64)'
PUBLIC	??_R1A@?0A@EA@bad_alloc@std@@8			; std::bad_alloc::`RTTI Base Class Descriptor at (0,-1,0,64)'
PUBLIC	??_R3bad_alloc@std@@8				; std::bad_alloc::`RTTI Class Hierarchy Descriptor'
PUBLIC	??_R2bad_alloc@std@@8				; std::bad_alloc::`RTTI Base Class Array'
PUBLIC	??_R4bad_alloc@std@@6B@				; std::bad_alloc::`RTTI Complete Object Locator'
PUBLIC	??_C@_0CE@DOPOPHPI@DATABASESERVER?4EXE?7?1?1?5JOIN_1?7?1?1@ ; `string'
PUBLIC	??_C@_0CE@CJIFODLL@DATABASESERVER?4EXE?7?1?1?5JOIN_0?7?1?1@ ; `string'
PUBLIC	??_C@_02HJNLAKPP@S8@				; `string'
PUBLIC	??_C@_08HDDJDJAG@m_szName@			; `string'
PUBLIC	??_C@_0L@BLIMKIB@playerslot@			; `string'
PUBLIC	??_C@_09PLACNOOD@m_dwIndex@			; `string'
PUBLIC	??_C@_0L@FONFFEJF@m_idPlayer@			; `string'
PUBLIC	??_C@_0M@FNJGDDDM@m_idCompany@			; `string'
PUBLIC	??_C@_0BC@IEAFGFF@m_nMessengerState@		; `string'
PUBLIC	??_C@_0BC@MIOGNHI@m_dwReturnWorldID@		; `string'
PUBLIC	??_C@_0P@JCFLJGGL@m_vReturnPos_x@		; `string'
PUBLIC	??_C@_0P@ILEAKHCK@m_vReturnPos_y@		; `string'
PUBLIC	??_C@_0P@KAGNPEOJ@m_vReturnPos_z@		; `string'
PUBLIC	??_C@_0O@GDGPCDJB@TotalPlayTime@		; `string'
PUBLIC	??_C@_0M@MJKONAGD@m_dwFlyTime@			; `string'
PUBLIC	??_C@_0BA@NNOIPPOE@m_nMaximumLevel@		; `string'
PUBLIC	??_C@_0P@ELDJOFJA@m_tGuildMember@		; `string'
PUBLIC	??_C@_0BD@CKCGLHFA@m_chLoginAuthority@		; `string'
PUBLIC	??_C@_0O@EENGJBPN@m_chAuthority@		; `string'
PUBLIC	??_C@_0N@NIOAJHOA@last_connect@			; `string'
PUBLIC	??_C@_09MHDEIN@m_idGuild@			; `string'
PUBLIC	??_C@_07EFCBAOMF@m_idWar@			; `string'
PUBLIC	??_C@_0M@JFJGDALJ@dwEventFlag@			; `string'
PUBLIC	??_C@_0M@IDEEJPIP@dwEventTime@			; `string'
PUBLIC	??_C@_0P@GGONCBOD@dwEventElapsed@		; `string'
PUBLIC	??_C@_09CPDCAJOH@m_dwPetId@			; `string'
PUBLIC	??_C@_09OAIDIHCC@m_nExpLog@			; `string'
PUBLIC	??_C@_0P@KIBMOJIA@m_nAngelExpLog@		; `string'
PUBLIC	??_C@_09DOFPPDBL@m_nCoupon@			; `string'
PUBLIC	??_C@_08HKLPDCDD@m_nLayer@			; `string'
PUBLIC	??_C@_0P@HAGDFNOH@m_nCampusPoint@		; `string'
PUBLIC	??_C@_08FHGJFCBK@idCampus@			; `string'
PUBLIC	??_C@_0N@DMCMIBPB@m_nRestPoint@			; `string'
PUBLIC	??_C@_0N@DOGBIIJB@m_LogOutTime@			; `string'
PUBLIC	??_C@_08OOAHKMMI@m_BankPw@			; `string'
PUBLIC	??_C@_0L@LJLIEKDC@bResult?3?51@			; `string'
EXTRN	??2@YAPAXI@Z:PROC				; operator new
EXTRN	??3@YAXPAXI@Z:PROC				; operator delete
EXTRN	__invoke_watson:PROC
EXTRN	__imp__OutputDebugStringA@4:PROC
EXTRN	__imp__EnterCriticalSection@4:PROC
EXTRN	__imp__LeaveCriticalSection@4:PROC
EXTRN	__imp__GetLocalTime@4:PROC
EXTRN	__imp__VirtualAlloc@16:PROC
EXTRN	___stdio_common_vsprintf:PROC
EXTRN	__time32:PROC
EXTRN	?_Xlength_error@std@@YAXPBD@Z:PROC		; std::_Xlength_error
EXTRN	___std_exception_copy:PROC
EXTRN	___std_exception_destroy:PROC
EXTRN	??_Eexception@std@@UAEPAXI@Z:PROC		; std::exception::`vector deleting destructor'
EXTRN	??_Ebad_alloc@std@@UAEPAXI@Z:PROC		; std::bad_alloc::`vector deleting destructor'
EXTRN	??_Ebad_array_new_length@std@@UAEPAXI@Z:PROC	; std::bad_array_new_length::`vector deleting destructor'
EXTRN	?Error@@YAPBDPBDZZ:PROC				; Error
EXTRN	?Exec@CQuery@@QAEHPBD@Z:PROC			; CQuery::Exec
EXTRN	?Fetch@CQuery@@QAEHXZ:PROC			; CQuery::Fetch
EXTRN	?GetInt@CQuery@@QAEHPAD@Z:PROC			; CQuery::GetInt
EXTRN	?GetInt64@CQuery@@QAE_JPAD@Z:PROC		; CQuery::GetInt64
EXTRN	?GetFloat@CQuery@@QAEMPAD@Z:PROC		; CQuery::GetFloat
EXTRN	?GetChar@CQuery@@QAEDPAD@Z:PROC			; CQuery::GetChar
EXTRN	?GetStr@CQuery@@QAEXPAD0@Z:PROC			; CQuery::GetStr
EXTRN	?MoreResults@CQuery@@QAEHXZ:PROC		; CQuery::MoreResults
EXTRN	??0CAr@@QAE@PAXI@Z:PROC				; CAr::CAr
EXTRN	??1CAr@@QAE@XZ:PROC				; CAr::~CAr
EXTRN	?CheckBuf@CAr@@QAEXI@Z:PROC			; CAr::CheckBuf
EXTRN	?WriteString@CAr@@QAEXPBD@Z:PROC		; CAr::WriteString
EXTRN	?ReadString@CAr@@QAEPADPADH@Z:PROC		; CAr::ReadString
EXTRN	?GetBuffer@CAr@@QAEPAEPAH@Z:PROC		; CAr::GetBuffer
EXTRN	?Send@CDPSock@@QAEHPADKK@Z:PROC			; CDPSock::Send
EXTRN	?Serialize@CUserTaskBar@@QAEXAAVCAr@@@Z:PROC	; CUserTaskBar::Serialize
EXTRN	?Serialize@CRTMessenger@@QAEHAAVCAr@@@Z:PROC	; CRTMessenger::Serialize
EXTRN	??0CMover@@QAE@XZ:PROC				; CMover::CMover
EXTRN	??1CMover@@UAE@XZ:PROC				; CMover::~CMover
EXTRN	?InitProp@CMover@@QAEXXZ:PROC			; CMover::InitProp
EXTRN	?RemoveItemIK3@CMover@@QAEHXZ:PROC		; CMover::RemoveItemIK3
EXTRN	?Copy@CMover@@QAEXPAV1@H@Z:PROC			; CMover::Copy
EXTRN	?PeriodTick@CMover@@QAEXXZ:PROC			; CMover::PeriodTick
EXTRN	?Find@CAccountCacheMgr@@QAEPAUACCOUNT_CACHE@@PBD@Z:PROC ; CAccountCacheMgr::Find
EXTRN	?AddAccount@CAccountCacheMgr@@QAEXKPBDHPAUACCOUNT_CACHE@@@Z:PROC ; CAccountCacheMgr::AddAccount
EXTRN	?GetAccount@CAccountCacheMgr@@QAEPAUACCOUNT_CACHE@@PBDPAH@Z:PROC ; CAccountCacheMgr::GetAccount
EXTRN	?FreeRequest@CDbManager@@QAEXPAUtagDB_OVERLAPPED_PLUS@@@Z:PROC ; CDbManager::FreeRequest
EXTRN	?GetMyPartyName@CDbManager@@QAEHPAVCQuery@@PAUtagDB_OVERLAPPED_PLUS@@KPAD@Z:PROC ; CDbManager::GetMyPartyName
EXTRN	?GetBank@CDbManager@@QAEHPAVCMover@@PAVCQuery@@PAUtagDB_OVERLAPPED_PLUS@@H@Z:PROC ; CDbManager::GetBank
EXTRN	?GetInventory@CDbManager@@QAEHPAVCMover@@PAVCQuery@@PAUtagDB_OVERLAPPED_PLUS@@@Z:PROC ; CDbManager::GetInventory
EXTRN	?GetPocket@CDbManager@@QAEHPAVCMover@@PAVCQuery@@PAUtagDB_OVERLAPPED_PLUS@@@Z:PROC ; CDbManager::GetPocket
EXTRN	?GetEquipment@CDbManager@@QAEHPAVCMover@@PAVCQuery@@PAUtagDB_OVERLAPPED_PLUS@@@Z:PROC ; CDbManager::GetEquipment
EXTRN	?GetTaskBar@CDbManager@@QAEHPAVCMover@@PAVCQuery@@PAUtagDB_OVERLAPPED_PLUS@@@Z:PROC ; CDbManager::GetTaskBar
EXTRN	?GetCardCube@CDbManager@@QAEXPAVCMover@@PAVCQuery@@PAUtagDB_OVERLAPPED_PLUS@@@Z:PROC ; CDbManager::GetCardCube
EXTRN	?GetBaseCharacter@CDbManager@@QAEXPAVCMover@@PAVCQuery@@PAUtagDB_OVERLAPPED_PLUS@@@Z:PROC ; CDbManager::GetBaseCharacter
EXTRN	?GetSkill@CDbManager@@QAEHPAVCMover@@PAVCQuery@@PAUtagDB_OVERLAPPED_PLUS@@@Z:PROC ; CDbManager::GetSkill
EXTRN	?GetJobLv@CDbManager@@QAEXPAVCMover@@PAVCQuery@@PAUtagDB_OVERLAPPED_PLUS@@@Z:PROC ; CDbManager::GetJobLv
EXTRN	?GetQuest@CDbManager@@QAEHPAVCMover@@PAVCQuery@@PAUtagDB_OVERLAPPED_PLUS@@@Z:PROC ; CDbManager::GetQuest
EXTRN	?GetSMMode@CDbManager@@QAEHPAVCMover@@PAVCQuery@@PAUtagDB_OVERLAPPED_PLUS@@@Z:PROC ; CDbManager::GetSMMode
EXTRN	?GetSKillInfluence@CDbManager@@QAEHPAVCMover@@PAVCQuery@@PAUtagDB_OVERLAPPED_PLUS@@@Z:PROC ; CDbManager::GetSKillInfluence
EXTRN	?GetHonor@CDbManager@@QAEXPAVCMover@@PAVCQuery@@PAUtagDB_OVERLAPPED_PLUS@@@Z:PROC ; CDbManager::GetHonor
EXTRN	?DBQryCharacter@CDbManager@@QAEXPAD0KH00HKKMMM0KKKKKMKMHHHKKH0HHHHH_J1000KHMMMHHHHH0DKHHH1HKKH0000000000000H000KHH00K00000KMMMHKK1J00KHHHHHHK0@Z:PROC ; CDbManager::DBQryCharacter
EXTRN	?LoadMessenger@CDbManager@@AAEXPAVCMover@@PAVCQuery@@@Z:PROC ; CDbManager::LoadMessenger
EXTRN	?SelectTag@CDbManager@@AAEHPAVCQuery@@PAUtagDB_OVERLAPPED_PLUS@@KPAUTAG_ENTRY@@@Z:PROC ; CDbManager::SelectTag
EXTRN	?WriteTag@CDbManager@@AAEXAAVCAr@@HPBUTAG_ENTRY@@@Z:PROC ; CDbManager::WriteTag
EXTRN	?PutExpLog@CDbManager@@AAEXPAVCQuery@@PAVCMover@@D@Z:PROC ; CDbManager::PutExpLog
EXTRN	?SendItemtoCharacter@CDbManager@@AAEHHPAVCMover@@PAVCQuery@@11PAUtagDB_OVERLAPPED_PLUS@@@Z:PROC ; CDbManager::SendItemtoCharacter
EXTRN	?RemoveItemtoCharacter@CDbManager@@AAEHPAVCMover@@PAVCQuery@@11PAUtagDB_OVERLAPPED_PLUS@@@Z:PROC ; CDbManager::RemoveItemtoCharacter
EXTRN	?CanJoin@CDbManager@@AAEHPBDPAUACCOUNT_CACHE@@@Z:PROC ; CDbManager::CanJoin
EXTRN	?SendMemberTime@CDPCoreSrvr@@QAEXKPBD@Z:PROC	; CDPCoreSrvr::SendMemberTime
EXTRN	?GetInstance@CDPTrans@@SAPAV1@XZ:PROC		; CDPTrans::GetInstance
EXTRN	@__security_check_cookie@4:PROC
EXTRN	__CxxThrowException@8:PROC
EXTRN	___CxxFrameHandler3:PROC
EXTRN	__chkstk:PROC
EXTRN	_memcpy:PROC
EXTRN	_memset:PROC
EXTRN	??_7type_info@@6B@:QWORD			; type_info::`vftable'
EXTRN	?m_pPool@CMover@@2PAV?$MemPooler@VCMover@@@@A:DWORD ; CMover::m_pPool
EXTRN	?g_appInfo@@3UAppInfo@@A:QWORD			; g_appInfo
EXTRN	?g_dpCoreSrvr@@3VCDPCoreSrvr@@A:BYTE		; g_dpCoreSrvr
EXTRN	___security_cookie:DWORD
EXTRN	__fltused:DWORD
;	COMDAT ?_OptionsStorage@?1??__local_stdio_printf_options@@9@4_KA
_BSS	SEGMENT
?_OptionsStorage@?1??__local_stdio_printf_options@@9@4_KA DQ 01H DUP (?) ; `__local_stdio_printf_options'::`2'::_OptionsStorage
_BSS	ENDS
;	COMDAT ??_C@_0L@LJLIEKDC@bResult?3?51@
CONST	SEGMENT
??_C@_0L@LJLIEKDC@bResult?3?51@ DB 'bResult: 1', 00H	; `string'
CONST	ENDS
;	COMDAT ??_C@_08OOAHKMMI@m_BankPw@
CONST	SEGMENT
??_C@_08OOAHKMMI@m_BankPw@ DB 'm_BankPw', 00H		; `string'
CONST	ENDS
;	COMDAT ??_C@_0N@DOGBIIJB@m_LogOutTime@
CONST	SEGMENT
??_C@_0N@DOGBIIJB@m_LogOutTime@ DB 'm_LogOutTime', 00H	; `string'
CONST	ENDS
;	COMDAT ??_C@_0N@DMCMIBPB@m_nRestPoint@
CONST	SEGMENT
??_C@_0N@DMCMIBPB@m_nRestPoint@ DB 'm_nRestPoint', 00H	; `string'
CONST	ENDS
;	COMDAT ??_C@_08FHGJFCBK@idCampus@
CONST	SEGMENT
??_C@_08FHGJFCBK@idCampus@ DB 'idCampus', 00H		; `string'
CONST	ENDS
;	COMDAT ??_C@_0P@HAGDFNOH@m_nCampusPoint@
CONST	SEGMENT
??_C@_0P@HAGDFNOH@m_nCampusPoint@ DB 'm_nCampusPoint', 00H ; `string'
CONST	ENDS
;	COMDAT ??_C@_08HKLPDCDD@m_nLayer@
CONST	SEGMENT
??_C@_08HKLPDCDD@m_nLayer@ DB 'm_nLayer', 00H		; `string'
CONST	ENDS
;	COMDAT ??_C@_09DOFPPDBL@m_nCoupon@
CONST	SEGMENT
??_C@_09DOFPPDBL@m_nCoupon@ DB 'm_nCoupon', 00H		; `string'
CONST	ENDS
;	COMDAT ??_C@_0P@KIBMOJIA@m_nAngelExpLog@
CONST	SEGMENT
??_C@_0P@KIBMOJIA@m_nAngelExpLog@ DB 'm_nAngelExpLog', 00H ; `string'
CONST	ENDS
;	COMDAT ??_C@_09OAIDIHCC@m_nExpLog@
CONST	SEGMENT
??_C@_09OAIDIHCC@m_nExpLog@ DB 'm_nExpLog', 00H		; `string'
CONST	ENDS
;	COMDAT ??_C@_09CPDCAJOH@m_dwPetId@
CONST	SEGMENT
??_C@_09CPDCAJOH@m_dwPetId@ DB 'm_dwPetId', 00H		; `string'
CONST	ENDS
;	COMDAT ??_C@_0P@GGONCBOD@dwEventElapsed@
CONST	SEGMENT
??_C@_0P@GGONCBOD@dwEventElapsed@ DB 'dwEventElapsed', 00H ; `string'
CONST	ENDS
;	COMDAT ??_C@_0M@IDEEJPIP@dwEventTime@
CONST	SEGMENT
??_C@_0M@IDEEJPIP@dwEventTime@ DB 'dwEventTime', 00H	; `string'
CONST	ENDS
;	COMDAT ??_C@_0M@JFJGDALJ@dwEventFlag@
CONST	SEGMENT
??_C@_0M@JFJGDALJ@dwEventFlag@ DB 'dwEventFlag', 00H	; `string'
CONST	ENDS
;	COMDAT ??_C@_07EFCBAOMF@m_idWar@
CONST	SEGMENT
??_C@_07EFCBAOMF@m_idWar@ DB 'm_idWar', 00H		; `string'
CONST	ENDS
;	COMDAT ??_C@_09MHDEIN@m_idGuild@
CONST	SEGMENT
??_C@_09MHDEIN@m_idGuild@ DB 'm_idGuild', 00H		; `string'
CONST	ENDS
;	COMDAT ??_C@_0N@NIOAJHOA@last_connect@
CONST	SEGMENT
??_C@_0N@NIOAJHOA@last_connect@ DB 'last_connect', 00H	; `string'
CONST	ENDS
;	COMDAT ??_C@_0O@EENGJBPN@m_chAuthority@
CONST	SEGMENT
??_C@_0O@EENGJBPN@m_chAuthority@ DB 'm_chAuthority', 00H ; `string'
CONST	ENDS
;	COMDAT ??_C@_0BD@CKCGLHFA@m_chLoginAuthority@
CONST	SEGMENT
??_C@_0BD@CKCGLHFA@m_chLoginAuthority@ DB 'm_chLoginAuthority', 00H ; `string'
CONST	ENDS
;	COMDAT ??_C@_0P@ELDJOFJA@m_tGuildMember@
CONST	SEGMENT
??_C@_0P@ELDJOFJA@m_tGuildMember@ DB 'm_tGuildMember', 00H ; `string'
CONST	ENDS
;	COMDAT ??_C@_0BA@NNOIPPOE@m_nMaximumLevel@
CONST	SEGMENT
??_C@_0BA@NNOIPPOE@m_nMaximumLevel@ DB 'm_nMaximumLevel', 00H ; `string'
CONST	ENDS
;	COMDAT ??_C@_0M@MJKONAGD@m_dwFlyTime@
CONST	SEGMENT
??_C@_0M@MJKONAGD@m_dwFlyTime@ DB 'm_dwFlyTime', 00H	; `string'
CONST	ENDS
;	COMDAT ??_C@_0O@GDGPCDJB@TotalPlayTime@
CONST	SEGMENT
??_C@_0O@GDGPCDJB@TotalPlayTime@ DB 'TotalPlayTime', 00H ; `string'
CONST	ENDS
;	COMDAT ??_C@_0P@KAGNPEOJ@m_vReturnPos_z@
CONST	SEGMENT
??_C@_0P@KAGNPEOJ@m_vReturnPos_z@ DB 'm_vReturnPos_z', 00H ; `string'
CONST	ENDS
;	COMDAT ??_C@_0P@ILEAKHCK@m_vReturnPos_y@
CONST	SEGMENT
??_C@_0P@ILEAKHCK@m_vReturnPos_y@ DB 'm_vReturnPos_y', 00H ; `string'
CONST	ENDS
;	COMDAT ??_C@_0P@JCFLJGGL@m_vReturnPos_x@
CONST	SEGMENT
??_C@_0P@JCFLJGGL@m_vReturnPos_x@ DB 'm_vReturnPos_x', 00H ; `string'
CONST	ENDS
;	COMDAT ??_C@_0BC@MIOGNHI@m_dwReturnWorldID@
CONST	SEGMENT
??_C@_0BC@MIOGNHI@m_dwReturnWorldID@ DB 'm_dwReturnWorldID', 00H ; `string'
CONST	ENDS
;	COMDAT ??_C@_0BC@IEAFGFF@m_nMessengerState@
CONST	SEGMENT
??_C@_0BC@IEAFGFF@m_nMessengerState@ DB 'm_nMessengerState', 00H ; `string'
CONST	ENDS
;	COMDAT ??_C@_0M@FNJGDDDM@m_idCompany@
CONST	SEGMENT
??_C@_0M@FNJGDDDM@m_idCompany@ DB 'm_idCompany', 00H	; `string'
CONST	ENDS
;	COMDAT ??_C@_0L@FONFFEJF@m_idPlayer@
CONST	SEGMENT
??_C@_0L@FONFFEJF@m_idPlayer@ DB 'm_idPlayer', 00H	; `string'
CONST	ENDS
;	COMDAT ??_C@_09PLACNOOD@m_dwIndex@
CONST	SEGMENT
??_C@_09PLACNOOD@m_dwIndex@ DB 'm_dwIndex', 00H		; `string'
CONST	ENDS
;	COMDAT ??_C@_0L@BLIMKIB@playerslot@
CONST	SEGMENT
??_C@_0L@BLIMKIB@playerslot@ DB 'playerslot', 00H	; `string'
CONST	ENDS
;	COMDAT ??_C@_08HDDJDJAG@m_szName@
CONST	SEGMENT
??_C@_08HDDJDJAG@m_szName@ DB 'm_szName', 00H		; `string'
CONST	ENDS
;	COMDAT ??_C@_02HJNLAKPP@S8@
CONST	SEGMENT
??_C@_02HJNLAKPP@S8@ DB 'S8', 00H			; `string'
CONST	ENDS
;	COMDAT ??_C@_0CE@CJIFODLL@DATABASESERVER?4EXE?7?1?1?5JOIN_0?7?1?1@
CONST	SEGMENT
??_C@_0CE@CJIFODLL@DATABASESERVER?4EXE?7?1?1?5JOIN_0?7?1?1@ DB 'DATABASES'
	DB	'ERVER.EXE', 09H, '// JOIN_0', 09H, '// %d', 0aH, 00H ; `string'
CONST	ENDS
;	COMDAT ??_C@_0CE@DOPOPHPI@DATABASESERVER?4EXE?7?1?1?5JOIN_1?7?1?1@
CONST	SEGMENT
??_C@_0CE@DOPOPHPI@DATABASESERVER?4EXE?7?1?1?5JOIN_1?7?1?1@ DB 'DATABASES'
	DB	'ERVER.EXE', 09H, '// JOIN_1', 09H, '// %d', 0aH, 00H ; `string'
CONST	ENDS
;	COMDAT ??_R4bad_alloc@std@@6B@
rdata$r	SEGMENT
??_R4bad_alloc@std@@6B@ DD 00H				; std::bad_alloc::`RTTI Complete Object Locator'
	DD	00H
	DD	00H
	DD	FLAT:??_R0?AVbad_alloc@std@@@8
	DD	FLAT:??_R3bad_alloc@std@@8
rdata$r	ENDS
;	COMDAT ??_R2bad_alloc@std@@8
rdata$r	SEGMENT
??_R2bad_alloc@std@@8 DD FLAT:??_R1A@?0A@EA@bad_alloc@std@@8 ; std::bad_alloc::`RTTI Base Class Array'
	DD	FLAT:??_R1A@?0A@EA@exception@std@@8
rdata$r	ENDS
;	COMDAT ??_R3bad_alloc@std@@8
rdata$r	SEGMENT
??_R3bad_alloc@std@@8 DD 00H				; std::bad_alloc::`RTTI Class Hierarchy Descriptor'
	DD	00H
	DD	02H
	DD	FLAT:??_R2bad_alloc@std@@8
rdata$r	ENDS
;	COMDAT ??_R1A@?0A@EA@bad_alloc@std@@8
rdata$r	SEGMENT
??_R1A@?0A@EA@bad_alloc@std@@8 DD FLAT:??_R0?AVbad_alloc@std@@@8 ; std::bad_alloc::`RTTI Base Class Descriptor at (0,-1,0,64)'
	DD	01H
	DD	00H
	DD	0ffffffffH
	DD	00H
	DD	040H
	DD	FLAT:??_R3bad_alloc@std@@8
rdata$r	ENDS
;	COMDAT ??_R1A@?0A@EA@bad_array_new_length@std@@8
rdata$r	SEGMENT
??_R1A@?0A@EA@bad_array_new_length@std@@8 DD FLAT:??_R0?AVbad_array_new_length@std@@@8 ; std::bad_array_new_length::`RTTI Base Class Descriptor at (0,-1,0,64)'
	DD	02H
	DD	00H
	DD	0ffffffffH
	DD	00H
	DD	040H
	DD	FLAT:??_R3bad_array_new_length@std@@8
rdata$r	ENDS
;	COMDAT ??_R2bad_array_new_length@std@@8
rdata$r	SEGMENT
??_R2bad_array_new_length@std@@8 DD FLAT:??_R1A@?0A@EA@bad_array_new_length@std@@8 ; std::bad_array_new_length::`RTTI Base Class Array'
	DD	FLAT:??_R1A@?0A@EA@bad_alloc@std@@8
	DD	FLAT:??_R1A@?0A@EA@exception@std@@8
rdata$r	ENDS
;	COMDAT ??_R3bad_array_new_length@std@@8
rdata$r	SEGMENT
??_R3bad_array_new_length@std@@8 DD 00H			; std::bad_array_new_length::`RTTI Class Hierarchy Descriptor'
	DD	00H
	DD	03H
	DD	FLAT:??_R2bad_array_new_length@std@@8
rdata$r	ENDS
;	COMDAT ??_R4bad_array_new_length@std@@6B@
rdata$r	SEGMENT
??_R4bad_array_new_length@std@@6B@ DD 00H		; std::bad_array_new_length::`RTTI Complete Object Locator'
	DD	00H
	DD	00H
	DD	FLAT:??_R0?AVbad_array_new_length@std@@@8
	DD	FLAT:??_R3bad_array_new_length@std@@8
rdata$r	ENDS
;	COMDAT ??_R1A@?0A@EA@exception@std@@8
rdata$r	SEGMENT
??_R1A@?0A@EA@exception@std@@8 DD FLAT:??_R0?AVexception@std@@@8 ; std::exception::`RTTI Base Class Descriptor at (0,-1,0,64)'
	DD	00H
	DD	00H
	DD	0ffffffffH
	DD	00H
	DD	040H
	DD	FLAT:??_R3exception@std@@8
rdata$r	ENDS
;	COMDAT ??_R2exception@std@@8
rdata$r	SEGMENT
??_R2exception@std@@8 DD FLAT:??_R1A@?0A@EA@exception@std@@8 ; std::exception::`RTTI Base Class Array'
rdata$r	ENDS
;	COMDAT ??_R3exception@std@@8
rdata$r	SEGMENT
??_R3exception@std@@8 DD 00H				; std::exception::`RTTI Class Hierarchy Descriptor'
	DD	00H
	DD	01H
	DD	FLAT:??_R2exception@std@@8
rdata$r	ENDS
;	COMDAT ??_R4exception@std@@6B@
rdata$r	SEGMENT
??_R4exception@std@@6B@ DD 00H				; std::exception::`RTTI Complete Object Locator'
	DD	00H
	DD	00H
	DD	FLAT:??_R0?AVexception@std@@@8
	DD	FLAT:??_R3exception@std@@8
rdata$r	ENDS
;	COMDAT ??_C@_0O@NKNMEGII@list?5too?5long@
CONST	SEGMENT
??_C@_0O@NKNMEGII@list?5too?5long@ DB 'list too long', 00H ; `string'
CONST	ENDS
;	COMDAT ??_C@_09PKKCPLIP@bad?5alloc@
CONST	SEGMENT
??_C@_09PKKCPLIP@bad?5alloc@ DB 'bad alloc', 00H	; `string'
CONST	ENDS
;	COMDAT __CT??_R0?AVbad_alloc@std@@@8??0bad_alloc@std@@QAE@ABV01@@Z12
xdata$x	SEGMENT
__CT??_R0?AVbad_alloc@std@@@8??0bad_alloc@std@@QAE@ABV01@@Z12 DD 010H
	DD	FLAT:??_R0?AVbad_alloc@std@@@8
	DD	00H
	DD	0ffffffffH
	ORG $+4
	DD	0cH
	DD	FLAT:??0bad_alloc@std@@QAE@ABV01@@Z
xdata$x	ENDS
;	COMDAT ??_R0?AVbad_alloc@std@@@8
data$r	SEGMENT
??_R0?AVbad_alloc@std@@@8 DD FLAT:??_7type_info@@6B@	; std::bad_alloc `RTTI Type Descriptor'
	DD	00H
	DB	'.?AVbad_alloc@std@@', 00H
data$r	ENDS
;	COMDAT __CT??_R0?AVbad_array_new_length@std@@@8??0bad_array_new_length@std@@QAE@ABV01@@Z12
xdata$x	SEGMENT
__CT??_R0?AVbad_array_new_length@std@@@8??0bad_array_new_length@std@@QAE@ABV01@@Z12 DD 00H
	DD	FLAT:??_R0?AVbad_array_new_length@std@@@8
	DD	00H
	DD	0ffffffffH
	ORG $+4
	DD	0cH
	DD	FLAT:??0bad_array_new_length@std@@QAE@ABV01@@Z
xdata$x	ENDS
;	COMDAT ??_R0?AVbad_array_new_length@std@@@8
data$r	SEGMENT
??_R0?AVbad_array_new_length@std@@@8 DD FLAT:??_7type_info@@6B@ ; std::bad_array_new_length `RTTI Type Descriptor'
	DD	00H
	DB	'.?AVbad_array_new_length@std@@', 00H
data$r	ENDS
;	COMDAT __CTA3?AVbad_array_new_length@std@@
xdata$x	SEGMENT
__CTA3?AVbad_array_new_length@std@@ DD 03H
	DD	FLAT:__CT??_R0?AVbad_array_new_length@std@@@8??0bad_array_new_length@std@@QAE@ABV01@@Z12
	DD	FLAT:__CT??_R0?AVbad_alloc@std@@@8??0bad_alloc@std@@QAE@ABV01@@Z12
	DD	FLAT:__CT??_R0?AVexception@std@@@8??0exception@std@@QAE@ABV01@@Z12
xdata$x	ENDS
;	COMDAT __TI3?AVbad_array_new_length@std@@
xdata$x	SEGMENT
__TI3?AVbad_array_new_length@std@@ DD 00H
	DD	FLAT:??1bad_array_new_length@std@@UAE@XZ
	DD	00H
	DD	FLAT:__CTA3?AVbad_array_new_length@std@@
xdata$x	ENDS
;	COMDAT __CT??_R0?AVexception@std@@@8??0exception@std@@QAE@ABV01@@Z12
xdata$x	SEGMENT
__CT??_R0?AVexception@std@@@8??0exception@std@@QAE@ABV01@@Z12 DD 00H
	DD	FLAT:??_R0?AVexception@std@@@8
	DD	00H
	DD	0ffffffffH
	ORG $+4
	DD	0cH
	DD	FLAT:??0exception@std@@QAE@ABV01@@Z
xdata$x	ENDS
;	COMDAT ??_R0?AVexception@std@@@8
data$r	SEGMENT
??_R0?AVexception@std@@@8 DD FLAT:??_7type_info@@6B@	; std::exception `RTTI Type Descriptor'
	DD	00H
	DB	'.?AVexception@std@@', 00H
data$r	ENDS
;	COMDAT ??_C@_0BF@KINCDENJ@bad?5array?5new?5length@
CONST	SEGMENT
??_C@_0BF@KINCDENJ@bad?5array?5new?5length@ DB 'bad array new length', 00H ; `string'
CONST	ENDS
;	COMDAT ??_7bad_array_new_length@std@@6B@
CONST	SEGMENT
??_7bad_array_new_length@std@@6B@ DD FLAT:??_R4bad_array_new_length@std@@6B@ ; std::bad_array_new_length::`vftable'
	DD	FLAT:??_Ebad_array_new_length@std@@UAEPAXI@Z
	DD	FLAT:?what@exception@std@@UBEPBDXZ
CONST	ENDS
;	COMDAT ??_7bad_alloc@std@@6B@
CONST	SEGMENT
??_7bad_alloc@std@@6B@ DD FLAT:??_R4bad_alloc@std@@6B@	; std::bad_alloc::`vftable'
	DD	FLAT:??_Ebad_alloc@std@@UAEPAXI@Z
	DD	FLAT:?what@exception@std@@UBEPBDXZ
CONST	ENDS
;	COMDAT ??_C@_0BC@EOODALEL@Unknown?5exception@
CONST	SEGMENT
??_C@_0BC@EOODALEL@Unknown?5exception@ DB 'Unknown exception', 00H ; `string'
CONST	ENDS
;	COMDAT ??_7exception@std@@6B@
CONST	SEGMENT
??_7exception@std@@6B@ DD FLAT:??_R4exception@std@@6B@	; std::exception::`vftable'
	DD	FLAT:??_Eexception@std@@UAEPAXI@Z
	DD	FLAT:?what@exception@std@@UBEPBDXZ
CONST	ENDS
;	COMDAT xdata$x
xdata$x	SEGMENT
__unwindtable$??$?0ABQAX@?$_List_node_emplace_op2@V?$allocator@U?$_List_node@PAXPAX@std@@@std@@@std@@QAE@AAV?$allocator@U?$_List_node@PAXPAX@std@@@1@ABQAX@Z DD 0ffffffffH
	DD	FLAT:__unwindfunclet$??$?0ABQAX@?$_List_node_emplace_op2@V?$allocator@U?$_List_node@PAXPAX@std@@@std@@@std@@QAE@AAV?$allocator@U?$_List_node@PAXPAX@std@@@1@ABQAX@Z$0
__ehfuncinfo$??$?0ABQAX@?$_List_node_emplace_op2@V?$allocator@U?$_List_node@PAXPAX@std@@@std@@@std@@QAE@AAV?$allocator@U?$_List_node@PAXPAX@std@@@1@ABQAX@Z DD 019930522H
	DD	01H
	DD	FLAT:__unwindtable$??$?0ABQAX@?$_List_node_emplace_op2@V?$allocator@U?$_List_node@PAXPAX@std@@@std@@@std@@QAE@AAV?$allocator@U?$_List_node@PAXPAX@std@@@1@ABQAX@Z
	DD	2 DUP(00H)
	DD	2 DUP(00H)
	DD	00H
	DD	01H
xdata$x	ENDS
;	COMDAT xdata$x
xdata$x	SEGMENT
__unwindtable$??$_Emplace@ABQAX@?$list@PAXV?$allocator@PAX@std@@@std@@QAEPAU?$_List_node@PAXPAX@1@QAU21@ABQAX@Z DD 0ffffffffH
	DD	FLAT:__unwindfunclet$??$_Emplace@ABQAX@?$list@PAXV?$allocator@PAX@std@@@std@@QAEPAU?$_List_node@PAXPAX@1@QAU21@ABQAX@Z$1
__ehfuncinfo$??$_Emplace@ABQAX@?$list@PAXV?$allocator@PAX@std@@@std@@QAEPAU?$_List_node@PAXPAX@1@QAU21@ABQAX@Z DD 019930522H
	DD	01H
	DD	FLAT:__unwindtable$??$_Emplace@ABQAX@?$list@PAXV?$allocator@PAX@std@@@std@@QAEPAU?$_List_node@PAXPAX@1@QAU21@ABQAX@Z
	DD	2 DUP(00H)
	DD	2 DUP(00H)
	DD	00H
	DD	01H
xdata$x	ENDS
;	COMDAT xdata$x
xdata$x	SEGMENT
__unwindtable$?Join@CDbManager@@QAEXPAVCQuery@@00PAUtagDB_OVERLAPPED_PLUS@@@Z DD 0ffffffffH
	DD	FLAT:__unwindfunclet$?Join@CDbManager@@QAEXPAVCQuery@@00PAUtagDB_OVERLAPPED_PLUS@@@Z$0
	DD	00H
	DD	FLAT:__unwindfunclet$?Join@CDbManager@@QAEXPAVCQuery@@00PAUtagDB_OVERLAPPED_PLUS@@@Z$1
	DD	01H
	DD	FLAT:__unwindfunclet$?Join@CDbManager@@QAEXPAVCQuery@@00PAUtagDB_OVERLAPPED_PLUS@@@Z$2
	DD	01H
	DD	FLAT:__unwindfunclet$?Join@CDbManager@@QAEXPAVCQuery@@00PAUtagDB_OVERLAPPED_PLUS@@@Z$3
__ehfuncinfo$?Join@CDbManager@@QAEXPAVCQuery@@00PAUtagDB_OVERLAPPED_PLUS@@@Z DD 019930522H
	DD	04H
	DD	FLAT:__unwindtable$?Join@CDbManager@@QAEXPAVCQuery@@00PAUtagDB_OVERLAPPED_PLUS@@@Z
	DD	2 DUP(00H)
	DD	2 DUP(00H)
	DD	00H
	DD	01H
xdata$x	ENDS
;	COMDAT xdata$x
xdata$x	SEGMENT
__unwindtable$?SendJoin@CDbManager@@QAEXPAVCMover@@PAUtagDB_OVERLAPPED_PLUS@@KKPBD2KKHHPAUTAG_ENTRY@@2@Z DD 0ffffffffH
	DD	FLAT:__unwindfunclet$?SendJoin@CDbManager@@QAEXPAVCMover@@PAUtagDB_OVERLAPPED_PLUS@@KKPBD2KKHHPAUTAG_ENTRY@@2@Z$0
__ehfuncinfo$?SendJoin@CDbManager@@QAEXPAVCMover@@PAUtagDB_OVERLAPPED_PLUS@@KKPBD2KKHHPAUTAG_ENTRY@@2@Z DD 019930522H
	DD	01H
	DD	FLAT:__unwindtable$?SendJoin@CDbManager@@QAEXPAVCMover@@PAUtagDB_OVERLAPPED_PLUS@@KKPBD2KKHHPAUTAG_ENTRY@@2@Z
	DD	2 DUP(00H)
	DD	2 DUP(00H)
	DD	00H
	DD	01H
xdata$x	ENDS
;	COMDAT xdata$x
xdata$x	SEGMENT
__unwindtable$?push_back@?$list@PAXV?$allocator@PAX@std@@@std@@QAEXABQAX@Z DD 0ffffffffH
	DD	FLAT:__unwindfunclet$?push_back@?$list@PAXV?$allocator@PAX@std@@@std@@QAEXABQAX@Z$1
__ehfuncinfo$?push_back@?$list@PAXV?$allocator@PAX@std@@@std@@QAEXABQAX@Z DD 019930522H
	DD	01H
	DD	FLAT:__unwindtable$?push_back@?$list@PAXV?$allocator@PAX@std@@@std@@QAEXABQAX@Z
	DD	2 DUP(00H)
	DD	2 DUP(00H)
	DD	00H
	DD	01H
xdata$x	ENDS
; Function compile flags: /Ogtp
; File C:\IAGOS\server\v18\Source\Source\_Network\Misc\Include\Ar.h
;	COMDAT ??$?5E@CAr@@QAEAAV0@AAE@Z
_TEXT	SEGMENT
_t$ = 8							; size = 4
??$?5E@CAr@@QAEAAV0@AAE@Z PROC				; CAr::operator>><unsigned char>, COMDAT
; _this$ = ecx

; 302  : {

  00000	55		 push	 ebp
  00001	8b ec		 mov	 ebp, esp
  00003	8b d1		 mov	 edx, ecx

; 303  : 	if (m_lpBufCur + sizeof(T) <= m_lpBufMax)

  00005	8b 4a 08	 mov	 ecx, DWORD PTR [edx+8]
  00008	8d 41 01	 lea	 eax, DWORD PTR [ecx+1]
  0000b	3b 42 0c	 cmp	 eax, DWORD PTR [edx+12]
  0000e	8b 45 08	 mov	 eax, DWORD PTR _t$[ebp]
  00011	77 0d		 ja	 SHORT $LN2@operator

; 304  : 	{
; 305  : 		t = *(UNALIGNED T*)m_lpBufCur;

  00013	8a 09		 mov	 cl, BYTE PTR [ecx]
  00015	88 08		 mov	 BYTE PTR [eax], cl

; 312  : 	}
; 313  : 	return *this;
; 314  : }

  00017	8b c2		 mov	 eax, edx
  00019	ff 42 08	 inc	 DWORD PTR [edx+8]
  0001c	5d		 pop	 ebp
  0001d	c2 04 00	 ret	 4
$LN2@operator:

; 306  : 		m_lpBufCur += sizeof(T);
; 307  : 	}
; 308  : 	else
; 309  : 	{
; 310  : 		t = T();

  00020	c6 00 00	 mov	 BYTE PTR [eax], 0

; 311  : 		m_lpBufCur = m_lpBufMax;

  00023	8b 42 0c	 mov	 eax, DWORD PTR [edx+12]
  00026	89 42 08	 mov	 DWORD PTR [edx+8], eax

; 312  : 	}
; 313  : 	return *this;
; 314  : }

  00029	8b c2		 mov	 eax, edx
  0002b	5d		 pop	 ebp
  0002c	c2 04 00	 ret	 4
??$?5E@CAr@@QAEAAV0@AAE@Z ENDP				; CAr::operator>><unsigned char>
_TEXT	ENDS
; Function compile flags: /Ogtp
; File C:\IAGOS\server\v18\Source\Source\_Network\Misc\Include\Ar.h
;	COMDAT ??$?6_J@CAr@@QAEAAV0@AB_J@Z
_TEXT	SEGMENT
_t$ = 8							; size = 4
??$?6_J@CAr@@QAEAAV0@AB_J@Z PROC			; CAr::operator<<<__int64>, COMDAT
; _this$ = ecx

; 255  : {

  00000	55		 push	 ebp
  00001	8b ec		 mov	 ebp, esp
  00003	56		 push	 esi
  00004	57		 push	 edi

; 256  : 	CheckBuf(sizeof(T));

  00005	6a 08		 push	 8
  00007	8b f9		 mov	 edi, ecx
  00009	e8 00 00 00 00	 call	 ?CheckBuf@CAr@@QAEXI@Z	; CAr::CheckBuf

; 257  : 	*(UNALIGNED T*)m_lpBufCur = t;

  0000e	8b 45 08	 mov	 eax, DWORD PTR _t$[ebp]
  00011	8b 70 04	 mov	 esi, DWORD PTR [eax+4]
  00014	8b 10		 mov	 edx, DWORD PTR [eax]
  00016	8b 47 08	 mov	 eax, DWORD PTR [edi+8]
  00019	89 10		 mov	 DWORD PTR [eax], edx
  0001b	89 70 04	 mov	 DWORD PTR [eax+4], esi

; 258  : 	m_lpBufCur += sizeof(T);
; 259  : 	return *this;

  0001e	8b c7		 mov	 eax, edi
  00020	83 47 08 08	 add	 DWORD PTR [edi+8], 8
  00024	5f		 pop	 edi
  00025	5e		 pop	 esi

; 260  : }

  00026	5d		 pop	 ebp
  00027	c2 04 00	 ret	 4
??$?6_J@CAr@@QAEAAV0@AB_J@Z ENDP			; CAr::operator<<<__int64>
_TEXT	ENDS
; Function compile flags: /Ogtp
; File C:\IAGOS\server\v18\Source\Source\_Network\Misc\Include\Ar.h
;	COMDAT ??$?6UtagPLAY_ACCOUNT@@@CAr@@QAEAAV0@ABUtagPLAY_ACCOUNT@@@Z
_TEXT	SEGMENT
_t$ = 8							; size = 4
??$?6UtagPLAY_ACCOUNT@@@CAr@@QAEAAV0@ABUtagPLAY_ACCOUNT@@@Z PROC ; CAr::operator<<<tagPLAY_ACCOUNT>, COMDAT
; _this$ = ecx

; 255  : {

  00000	55		 push	 ebp
  00001	8b ec		 mov	 ebp, esp
  00003	56		 push	 esi

; 256  : 	CheckBuf(sizeof(T));

  00004	6a 44		 push	 68			; 00000044H
  00006	8b f1		 mov	 esi, ecx
  00008	e8 00 00 00 00	 call	 ?CheckBuf@CAr@@QAEXI@Z	; CAr::CheckBuf

; 257  : 	*(UNALIGNED T*)m_lpBufCur = t;

  0000d	8b 45 08	 mov	 eax, DWORD PTR _t$[ebp]
  00010	8b 56 08	 mov	 edx, DWORD PTR [esi+8]
  00013	0f 10 00	 movups	 xmm0, XMMWORD PTR [eax]
  00016	0f 11 02	 movups	 XMMWORD PTR [edx], xmm0
  00019	0f 10 40 10	 movups	 xmm0, XMMWORD PTR [eax+16]
  0001d	0f 11 42 10	 movups	 XMMWORD PTR [edx+16], xmm0
  00021	0f 10 40 20	 movups	 xmm0, XMMWORD PTR [eax+32]
  00025	0f 11 42 20	 movups	 XMMWORD PTR [edx+32], xmm0
  00029	0f 10 40 30	 movups	 xmm0, XMMWORD PTR [eax+48]
  0002d	0f 11 42 30	 movups	 XMMWORD PTR [edx+48], xmm0
  00031	8b 40 40	 mov	 eax, DWORD PTR [eax+64]
  00034	89 42 40	 mov	 DWORD PTR [edx+64], eax

; 258  : 	m_lpBufCur += sizeof(T);
; 259  : 	return *this;

  00037	8b c6		 mov	 eax, esi
  00039	83 46 08 44	 add	 DWORD PTR [esi+8], 68	; 00000044H
  0003d	5e		 pop	 esi

; 260  : }

  0003e	5d		 pop	 ebp
  0003f	c2 04 00	 ret	 4
??$?6UtagPLAY_ACCOUNT@@@CAr@@QAEAAV0@ABUtagPLAY_ACCOUNT@@@Z ENDP ; CAr::operator<<<tagPLAY_ACCOUNT>
_TEXT	ENDS
; Function compile flags: /Ogtp
; File C:\IAGOS\server\v18\Source\Source\_Network\Misc\Include\Ar.h
;	COMDAT ??$?5K@CAr@@QAEAAV0@AAK@Z
_TEXT	SEGMENT
_t$ = 8							; size = 4
??$?5K@CAr@@QAEAAV0@AAK@Z PROC				; CAr::operator>><unsigned long>, COMDAT
; _this$ = ecx

; 302  : {

  00000	55		 push	 ebp
  00001	8b ec		 mov	 ebp, esp
  00003	8b d1		 mov	 edx, ecx

; 303  : 	if (m_lpBufCur + sizeof(T) <= m_lpBufMax)

  00005	8b 4a 08	 mov	 ecx, DWORD PTR [edx+8]
  00008	8d 41 04	 lea	 eax, DWORD PTR [ecx+4]
  0000b	3b 42 0c	 cmp	 eax, DWORD PTR [edx+12]
  0000e	8b 45 08	 mov	 eax, DWORD PTR _t$[ebp]
  00011	77 0e		 ja	 SHORT $LN2@operator

; 304  : 	{
; 305  : 		t = *(UNALIGNED T*)m_lpBufCur;

  00013	8b 09		 mov	 ecx, DWORD PTR [ecx]
  00015	89 08		 mov	 DWORD PTR [eax], ecx

; 312  : 	}
; 313  : 	return *this;
; 314  : }

  00017	8b c2		 mov	 eax, edx
  00019	83 42 08 04	 add	 DWORD PTR [edx+8], 4
  0001d	5d		 pop	 ebp
  0001e	c2 04 00	 ret	 4
$LN2@operator:

; 306  : 		m_lpBufCur += sizeof(T);
; 307  : 	}
; 308  : 	else
; 309  : 	{
; 310  : 		t = T();

  00021	c7 00 00 00 00
	00		 mov	 DWORD PTR [eax], 0

; 311  : 		m_lpBufCur = m_lpBufMax;

  00027	8b 42 0c	 mov	 eax, DWORD PTR [edx+12]
  0002a	89 42 08	 mov	 DWORD PTR [edx+8], eax

; 312  : 	}
; 313  : 	return *this;
; 314  : }

  0002d	8b c2		 mov	 eax, edx
  0002f	5d		 pop	 ebp
  00030	c2 04 00	 ret	 4
??$?5K@CAr@@QAEAAV0@AAK@Z ENDP				; CAr::operator>><unsigned long>
_TEXT	ENDS
; Function compile flags: /Ogtp
; File C:\IAGOS\server\v18\Source\Source\_Network\Misc\Include\Ar.h
;	COMDAT ??$?6UD3DXVECTOR3@@@CAr@@QAEAAV0@ABUD3DXVECTOR3@@@Z
_TEXT	SEGMENT
_t$ = 8							; size = 4
??$?6UD3DXVECTOR3@@@CAr@@QAEAAV0@ABUD3DXVECTOR3@@@Z PROC ; CAr::operator<<<D3DXVECTOR3>, COMDAT
; _this$ = ecx

; 255  : {

  00000	55		 push	 ebp
  00001	8b ec		 mov	 ebp, esp
  00003	56		 push	 esi

; 256  : 	CheckBuf(sizeof(T));

  00004	6a 0c		 push	 12			; 0000000cH
  00006	8b f1		 mov	 esi, ecx
  00008	e8 00 00 00 00	 call	 ?CheckBuf@CAr@@QAEXI@Z	; CAr::CheckBuf

; 257  : 	*(UNALIGNED T*)m_lpBufCur = t;

  0000d	8b 56 08	 mov	 edx, DWORD PTR [esi+8]
  00010	8b 45 08	 mov	 eax, DWORD PTR _t$[ebp]
  00013	f3 0f 7e 00	 movq	 xmm0, QWORD PTR [eax]
  00017	66 0f d6 02	 movq	 QWORD PTR [edx], xmm0
  0001b	8b 40 08	 mov	 eax, DWORD PTR [eax+8]
  0001e	89 42 08	 mov	 DWORD PTR [edx+8], eax

; 258  : 	m_lpBufCur += sizeof(T);
; 259  : 	return *this;

  00021	8b c6		 mov	 eax, esi
  00023	83 46 08 0c	 add	 DWORD PTR [esi+8], 12	; 0000000cH
  00027	5e		 pop	 esi

; 260  : }

  00028	5d		 pop	 ebp
  00029	c2 04 00	 ret	 4
??$?6UD3DXVECTOR3@@@CAr@@QAEAAV0@ABUD3DXVECTOR3@@@Z ENDP ; CAr::operator<<<D3DXVECTOR3>
_TEXT	ENDS
; Function compile flags: /Ogtp
; File C:\IAGOS\server\v18\Source\Source\_Network\Misc\Include\Ar.h
;	COMDAT ??$?6J@CAr@@QAEAAV0@ABJ@Z
_TEXT	SEGMENT
_t$ = 8							; size = 4
??$?6J@CAr@@QAEAAV0@ABJ@Z PROC				; CAr::operator<<<long>, COMDAT
; _this$ = ecx

; 255  : {

  00000	55		 push	 ebp
  00001	8b ec		 mov	 ebp, esp
  00003	56		 push	 esi

; 256  : 	CheckBuf(sizeof(T));

  00004	6a 04		 push	 4
  00006	8b f1		 mov	 esi, ecx
  00008	e8 00 00 00 00	 call	 ?CheckBuf@CAr@@QAEXI@Z	; CAr::CheckBuf

; 257  : 	*(UNALIGNED T*)m_lpBufCur = t;

  0000d	8b 56 08	 mov	 edx, DWORD PTR [esi+8]
  00010	8b 45 08	 mov	 eax, DWORD PTR _t$[ebp]
  00013	8b 00		 mov	 eax, DWORD PTR [eax]
  00015	89 02		 mov	 DWORD PTR [edx], eax

; 258  : 	m_lpBufCur += sizeof(T);
; 259  : 	return *this;

  00017	8b c6		 mov	 eax, esi
  00019	83 46 08 04	 add	 DWORD PTR [esi+8], 4
  0001d	5e		 pop	 esi

; 260  : }

  0001e	5d		 pop	 ebp
  0001f	c2 04 00	 ret	 4
??$?6J@CAr@@QAEAAV0@ABJ@Z ENDP				; CAr::operator<<<long>
_TEXT	ENDS
; Function compile flags: /Ogtp
; File C:\IAGOS\server\v18\Source\Source\_Network\Misc\Include\Ar.h
;	COMDAT ??$?6K@CAr@@QAEAAV0@ABK@Z
_TEXT	SEGMENT
_t$ = 8							; size = 4
??$?6K@CAr@@QAEAAV0@ABK@Z PROC				; CAr::operator<<<unsigned long>, COMDAT
; _this$ = ecx

; 255  : {

  00000	55		 push	 ebp
  00001	8b ec		 mov	 ebp, esp
  00003	56		 push	 esi

; 256  : 	CheckBuf(sizeof(T));

  00004	6a 04		 push	 4
  00006	8b f1		 mov	 esi, ecx
  00008	e8 00 00 00 00	 call	 ?CheckBuf@CAr@@QAEXI@Z	; CAr::CheckBuf

; 257  : 	*(UNALIGNED T*)m_lpBufCur = t;

  0000d	8b 56 08	 mov	 edx, DWORD PTR [esi+8]
  00010	8b 45 08	 mov	 eax, DWORD PTR _t$[ebp]
  00013	8b 00		 mov	 eax, DWORD PTR [eax]
  00015	89 02		 mov	 DWORD PTR [edx], eax

; 258  : 	m_lpBufCur += sizeof(T);
; 259  : 	return *this;

  00017	8b c6		 mov	 eax, esi
  00019	83 46 08 04	 add	 DWORD PTR [esi+8], 4
  0001d	5e		 pop	 esi

; 260  : }

  0001e	5d		 pop	 ebp
  0001f	c2 04 00	 ret	 4
??$?6K@CAr@@QAEAAV0@ABK@Z ENDP				; CAr::operator<<<unsigned long>
_TEXT	ENDS
; Function compile flags: /Ogtp
; File C:\IAGOS\server\v18\Source\Source\_Network\Misc\Include\Ar.h
;	COMDAT ??$?6H@CAr@@QAEAAV0@ABH@Z
_TEXT	SEGMENT
_t$ = 8							; size = 4
??$?6H@CAr@@QAEAAV0@ABH@Z PROC				; CAr::operator<<<int>, COMDAT
; _this$ = ecx

; 255  : {

  00000	55		 push	 ebp
  00001	8b ec		 mov	 ebp, esp
  00003	56		 push	 esi

; 256  : 	CheckBuf(sizeof(T));

  00004	6a 04		 push	 4
  00006	8b f1		 mov	 esi, ecx
  00008	e8 00 00 00 00	 call	 ?CheckBuf@CAr@@QAEXI@Z	; CAr::CheckBuf

; 257  : 	*(UNALIGNED T*)m_lpBufCur = t;

  0000d	8b 56 08	 mov	 edx, DWORD PTR [esi+8]
  00010	8b 45 08	 mov	 eax, DWORD PTR _t$[ebp]
  00013	8b 00		 mov	 eax, DWORD PTR [eax]
  00015	89 02		 mov	 DWORD PTR [edx], eax

; 258  : 	m_lpBufCur += sizeof(T);
; 259  : 	return *this;

  00017	8b c6		 mov	 eax, esi
  00019	83 46 08 04	 add	 DWORD PTR [esi+8], 4
  0001d	5e		 pop	 esi

; 260  : }

  0001e	5d		 pop	 ebp
  0001f	c2 04 00	 ret	 4
??$?6H@CAr@@QAEAAV0@ABH@Z ENDP				; CAr::operator<<<int>
_TEXT	ENDS
; Function compile flags: /Ogtp
; File C:\Program Files\Microsoft Visual Studio\2022\Professional\VC\Tools\MSVC\14.44.35207\include\xmemory
;	COMDAT ??$_Allocate_manually_vector_aligned@U_Default_allocate_traits@std@@@std@@YAPAXI@Z
_TEXT	SEGMENT
__Bytes$ = 8						; size = 4
??$_Allocate_manually_vector_aligned@U_Default_allocate_traits@std@@@std@@YAPAXI@Z PROC ; std::_Allocate_manually_vector_aligned<std::_Default_allocate_traits>, COMDAT

; 182  : __declspec(allocator) void* _Allocate_manually_vector_aligned(const size_t _Bytes) {

  00000	55		 push	 ebp
  00001	8b ec		 mov	 ebp, esp

; 183  :     // allocate _Bytes manually aligned to at least _Big_allocation_alignment
; 184  :     const size_t _Block_size = _Non_user_size + _Bytes;

  00003	8b 45 08	 mov	 eax, DWORD PTR __Bytes$[ebp]
  00006	8d 48 23	 lea	 ecx, DWORD PTR [eax+35]

; 185  :     if (_Block_size <= _Bytes) {

  00009	3b c8		 cmp	 ecx, eax
  0000b	0f 86 00 00 00
	00		 jbe	 ?_Throw_bad_array_new_length@std@@YAXXZ ; std::_Throw_bad_array_new_length

; 136  :         return ::operator new(_Bytes);

  00011	51		 push	 ecx
  00012	e8 00 00 00 00	 call	 ??2@YAPAXI@Z		; operator new

; 186  :         _Throw_bad_array_new_length(); // add overflow
; 187  :     }
; 188  : 
; 189  :     const uintptr_t _Ptr_container = reinterpret_cast<uintptr_t>(_Traits::_Allocate(_Block_size));

  00017	8b c8		 mov	 ecx, eax

; 136  :         return ::operator new(_Bytes);

  00019	83 c4 04	 add	 esp, 4

; 190  :     _STL_VERIFY(_Ptr_container != 0, "invalid argument"); // validate even in release since we're doing p[-1]

  0001c	85 c9		 test	 ecx, ecx
  0001e	74 0b		 je	 SHORT $LN9@Allocate_m

; 191  :     void* const _Ptr = reinterpret_cast<void*>((_Ptr_container + _Non_user_size) & ~(_Big_allocation_alignment - 1));

  00020	8d 41 23	 lea	 eax, DWORD PTR [ecx+35]
  00023	83 e0 e0	 and	 eax, -32		; ffffffe0H

; 192  :     static_cast<uintptr_t*>(_Ptr)[-1] = _Ptr_container;

  00026	89 48 fc	 mov	 DWORD PTR [eax-4], ecx

; 193  : 
; 194  : #ifdef _DEBUG
; 195  :     static_cast<uintptr_t*>(_Ptr)[-2] = _Big_allocation_sentinel;
; 196  : #endif // defined(_DEBUG)
; 197  :     return _Ptr;
; 198  : }

  00029	5d		 pop	 ebp
  0002a	c3		 ret	 0
$LN9@Allocate_m:

; 190  :     _STL_VERIFY(_Ptr_container != 0, "invalid argument"); // validate even in release since we're doing p[-1]

  0002b	6a 00		 push	 0
  0002d	6a 00		 push	 0
  0002f	6a 00		 push	 0
  00031	6a 00		 push	 0
  00033	6a 00		 push	 0
  00035	e8 00 00 00 00	 call	 __invoke_watson
$LN7@Allocate_m:
  0003a	cc		 int	 3
??$_Allocate_manually_vector_aligned@U_Default_allocate_traits@std@@@std@@YAPAXI@Z ENDP ; std::_Allocate_manually_vector_aligned<std::_Default_allocate_traits>
_TEXT	ENDS
; Function compile flags: /Ogtp
; File C:\Program Files\Microsoft Visual Studio\2022\Professional\VC\Tools\MSVC\14.44.35207\include\xmemory
;	COMDAT ??1?$_Alloc_construct_ptr@V?$allocator@U?$_List_node@PAXPAX@std@@@std@@@std@@QAE@XZ
_TEXT	SEGMENT
??1?$_Alloc_construct_ptr@V?$allocator@U?$_List_node@PAXPAX@std@@@std@@@std@@QAE@XZ PROC ; std::_Alloc_construct_ptr<std::allocator<std::_List_node<void *,void *> > >::~_Alloc_construct_ptr<std::allocator<std::_List_node<void *,void *> > >, COMDAT
; _this$ = ecx

; 1172 :         if (_Ptr) {

  00000	8b 41 04	 mov	 eax, DWORD PTR [ecx+4]
  00003	85 c0		 test	 eax, eax
  00005	74 0b		 je	 SHORT $LN10@Alloc_cons

; 289  :         ::operator delete(_Ptr, _Bytes);

  00007	6a 0c		 push	 12			; 0000000cH
  00009	50		 push	 eax
  0000a	e8 00 00 00 00	 call	 ??3@YAXPAXI@Z		; operator delete
  0000f	83 c4 08	 add	 esp, 8
$LN10@Alloc_cons:

; 1173 :             _Al.deallocate(_Ptr, 1);
; 1174 :         }
; 1175 :     }

  00012	c3		 ret	 0
??1?$_Alloc_construct_ptr@V?$allocator@U?$_List_node@PAXPAX@std@@@std@@@std@@QAE@XZ ENDP ; std::_Alloc_construct_ptr<std::allocator<std::_List_node<void *,void *> > >::~_Alloc_construct_ptr<std::allocator<std::_List_node<void *,void *> > >
_TEXT	ENDS
; Function compile flags: /Ogtp
; File C:\IAGOS\server\v18\Source\Source\_Database\DbManagerJoin.cpp
; File C:\IAGOS\server\v18\Source\Source\_Network\Mcl\Include\CMclCritSec.h
; File C:\IAGOS\server\v18\Source\Source\_Database\DbManagerJoin.cpp
; File C:\IAGOS\server\v18\Source\Source\_Network\Mcl\Include\CMclCritSec.h
; File C:\IAGOS\server\v18\Source\Source\_Database\DbManagerJoin.cpp
; File C:\IAGOS\server\v18\Source\Source\_Common\rtmessenger.h
; File C:\IAGOS\server\v18\Source\Source\_Database\DbManagerJoin.cpp
; File C:\IAGOS\server\v18\Source\Source\_Network\Objects\Obj.h
; File C:\IAGOS\server\v18\Source\Source\_Database\DbManagerJoin.cpp
; File C:\IAGOS\server\v18\Source\Source\_Network\Objects\Obj.h
; File C:\IAGOS\server\v18\Source\Source\_Database\DbManagerJoin.cpp
; File C:\IAGOS\server\v18\Source\Source\_Network\Objects\Obj.h
; File C:\IAGOS\server\v18\Source\Source\_Database\DbManagerJoin.cpp
; File C:\Program Files (x86)\Windows Kits\10\Include\10.0.26100.0\ucrt\time.h
; File C:\IAGOS\server\v18\Source\Source\_Database\DbManagerJoin.cpp
; File C:\Program Files (x86)\Windows Kits\10\Include\10.0.26100.0\ucrt\time.h
; File C:\IAGOS\server\v18\Source\Source\_Database\DbManagerJoin.cpp
; File C:\IAGOS\server\v18\Source\Source\_network\CmnHdr.h
; File C:\IAGOS\server\v18\Source\Source\_Database\DbManagerJoin.cpp
; File C:\IAGOS\server\v18\Source\Source\_Network\Mcl\Include\CMclCritSec.h
; File C:\IAGOS\server\v18\Source\Source\_Database\DbManagerJoin.cpp
; File C:\IAGOS\server\v18\Source\Source\_Network\Mcl\Include\CMclCritSec.h
; File C:\IAGOS\server\v18\Source\Source\_Database\DbManagerJoin.cpp
; File C:\IAGOS\server\v18\Source\Source\_Network\Mcl\Include\CMclCritSec.h
; File C:\IAGOS\server\v18\Source\Source\_Database\DbManagerJoin.cpp
; File C:\IAGOS\server\v18\Source\Source\_Network\Mcl\Include\CMclCritSec.h
; File C:\IAGOS\server\v18\Source\Source\_Database\DbManagerJoin.cpp
; File C:\IAGOS\server\v18\Source\Source\_Network\Mcl\Include\CMclCritSec.h
; File C:\IAGOS\server\v18\Source\Source\_Database\DbManagerJoin.cpp
; File C:\IAGOS\server\v18\Source\Source\_Network\Mcl\Include\CMclCritSec.h
; File C:\IAGOS\server\v18\Source\Source\_Database\DbManagerJoin.cpp
; File C:\IAGOS\server\v18\Source\Source\_Network\Mcl\Include\CMclCritSec.h
; File C:\IAGOS\server\v18\Source\Source\_Database\DbManagerJoin.cpp
; File C:\IAGOS\server\v18\Source\Source\_Network\Mcl\Include\CMclCritSec.h
; File C:\IAGOS\server\v18\Source\Source\_Database\DbManagerJoin.cpp
; File C:\IAGOS\server\v18\Source\Source\_Network\Mcl\Include\CMclCritSec.h
; File C:\IAGOS\server\v18\Source\Source\_Database\DbManagerJoin.cpp
;	COMDAT ?Join@CDbManager@@QAEXPAVCQuery@@00PAUtagDB_OVERLAPPED_PLUS@@@Z
_TEXT	SEGMENT
_dwAuthKey$ = -79632					; size = 4
_nMaximumLevel$1$ = -79628				; size = 4
_nTags$1$ = -79624					; size = 4
_qry1$GSCopy$1$ = -79620				; size = 4
_qrylog$GSCopy$1$ = -79616				; size = 4
_bCacheHit$ = -79612					; size = 4
_bRefresh$2$ = -79608					; size = 4
_qry$GSCopy$1$ = -79604					; size = 4
_bResult$1$ = -79604					; size = 4
_pMover$1$ = -79604					; size = 4
tv1083 = -79600						; size = 4
_dwPlayTime$1$ = -79600					; size = 4
_idPlayer$ = -79600					; size = 4
_this$GSCopy$1$ = -79596				; size = 4
_pCache$1$ = -79592					; size = 4
tv1067 = -79588						; size = 4
tv1081 = -79588						; size = 4
_bExists$1$ = -79588					; size = 4
_dwPCBangClass$ = -79588				; size = 4
tv970 = -79584						; size = 4
tv1055 = -79584						; size = 4
tv1075 = -79584						; size = 4
$T2 = -79584						; size = 4
_nPlayerSlot$1$ = -79584				; size = 4
tv1079 = -79580						; size = 4
$T3 = -79580						; size = 4
$T4 = -79580						; size = 4
_lpDBOP$GSCopy$1$ = -79576				; size = 4
__nSlot$ = -79569					; size = 1
_nSlot$1$ = -79569					; size = 1
_arRead$ = -79568					; size = 16404
_mover$ = -63164					; size = 16720
_tags$ = -46444						; size = 5280
_szQuery$ = -41164					; size = 40960
_lpOutputString$ = -204					; size = 128
_szPartyName$ = -76					; size = 36
_szTimeGuild$ = -40					; size = 15
_szBankPass$ = -24					; size = 5
__$ArrayPad$ = -16					; size = 4
__$EHRec$ = -12						; size = 12
_qry$ = 8						; size = 4
_qry1$ = 12						; size = 4
_qrylog$ = 16						; size = 4
_lpDBOP$ = 20						; size = 4
?Join@CDbManager@@QAEXPAVCQuery@@00PAUtagDB_OVERLAPPED_PLUS@@@Z PROC ; CDbManager::Join, COMDAT
; _this$ = ecx

; 127  : {

  00000	55		 push	 ebp
  00001	8b ec		 mov	 ebp, esp
  00003	6a ff		 push	 -1
  00005	68 00 00 00 00	 push	 __ehhandler$?Join@CDbManager@@QAEXPAVCQuery@@00PAUtagDB_OVERLAPPED_PLUS@@@Z
  0000a	64 a1 00 00 00
	00		 mov	 eax, DWORD PTR fs:0
  00010	50		 push	 eax
  00011	b8 04 37 01 00	 mov	 eax, 79620		; 00013704H
  00016	e8 00 00 00 00	 call	 __chkstk
  0001b	a1 00 00 00 00	 mov	 eax, DWORD PTR ___security_cookie
  00020	33 c5		 xor	 eax, ebp
  00022	89 45 f0	 mov	 DWORD PTR __$ArrayPad$[ebp], eax
  00025	56		 push	 esi
  00026	57		 push	 edi
  00027	50		 push	 eax
  00028	8d 45 f4	 lea	 eax, DWORD PTR __$EHRec$[ebp]
  0002b	64 a3 00 00 00
	00		 mov	 DWORD PTR fs:0, eax
  00031	89 8d 14 c9 fe
	ff		 mov	 DWORD PTR _this$GSCopy$1$[ebp], ecx
  00037	8b 75 14	 mov	 esi, DWORD PTR _lpDBOP$[ebp]

; 128  : 	BYTE	_nSlot;
; 129  : 	u_long	idPlayer;
; 130  : 	DWORD	dwAuthKey, dwBillingClass		= 0;
; 131  : 	char	szBankPass[5]	= { 0, };
; 132  : 	char	szPartyName[36]	= { 0, };
; 133  : 	char	szTimeGuild[15]	= { 0, };
; 134  : 	TAG_ENTRY tags[MAX_TAGS];
; 135  : 
; 136  : 	CAr arRead( lpDBOP->lpBuf, lpDBOP->uBufSize );

  0003a	8d 8d 30 c9 fe
	ff		 lea	 ecx, DWORD PTR _arRead$[ebp]
  00040	8b 45 0c	 mov	 eax, DWORD PTR _qry1$[ebp]
  00043	0f 57 c0	 xorps	 xmm0, xmm0
  00046	8b 7d 08	 mov	 edi, DWORD PTR _qry$[ebp]
  00049	89 85 fc c8 fe
	ff		 mov	 DWORD PTR _qry1$GSCopy$1$[ebp], eax
  0004f	ff 76 1c	 push	 DWORD PTR [esi+28]
  00052	8b 45 10	 mov	 eax, DWORD PTR _qrylog$[ebp]
  00055	ff 76 18	 push	 DWORD PTR [esi+24]
  00058	89 bd 0c c9 fe
	ff		 mov	 DWORD PTR _qry$GSCopy$1$[ebp], edi
  0005e	89 85 00 c9 fe
	ff		 mov	 DWORD PTR _qrylog$GSCopy$1$[ebp], eax
  00064	89 b5 28 c9 fe
	ff		 mov	 DWORD PTR _lpDBOP$GSCopy$1$[ebp], esi
  0006a	c7 45 e8 00 00
	00 00		 mov	 DWORD PTR _szBankPass$[ebp], 0
  00071	c6 45 ec 00	 mov	 BYTE PTR _szBankPass$[ebp+4], 0
  00075	0f 11 45 b4	 movups	 XMMWORD PTR _szPartyName$[ebp], xmm0
  00079	c7 45 d4 00 00
	00 00		 mov	 DWORD PTR _szPartyName$[ebp+32], 0
  00080	0f 11 45 c4	 movups	 XMMWORD PTR _szPartyName$[ebp+16], xmm0
  00084	c7 45 e0 00 00
	00 00		 mov	 DWORD PTR _szTimeGuild$[ebp+8], 0
  0008b	66 0f d6 45 d8	 movq	 QWORD PTR _szTimeGuild$[ebp], xmm0
  00090	66 c7 45 e4 00
	00		 mov	 WORD PTR _szTimeGuild$[ebp+12], 0
  00096	c6 45 e6 00	 mov	 BYTE PTR _szTimeGuild$[ebp+14], 0
  0009a	e8 00 00 00 00	 call	 ??0CAr@@QAE@PAXI@Z	; CAr::CAr

; 137  : 	arRead >> dwAuthKey;	// o

  0009f	8d 85 f0 c8 fe
	ff		 lea	 eax, DWORD PTR _dwAuthKey$[ebp]
  000a5	c7 45 fc 00 00
	00 00		 mov	 DWORD PTR __$EHRec$[ebp+8], 0
  000ac	50		 push	 eax
  000ad	8d 8d 30 c9 fe
	ff		 lea	 ecx, DWORD PTR _arRead$[ebp]
  000b3	e8 00 00 00 00	 call	 ??$?5K@CAr@@QAEAAV0@AAK@Z ; CAr::operator>><unsigned long>

; 138  : 	arRead.ReadString( lpDBOP->AccountInfo.szAccount, MAX_ACCOUNT );

  000b8	8d 46 20	 lea	 eax, DWORD PTR [esi+32]
  000bb	6a 2a		 push	 42			; 0000002aH
  000bd	50		 push	 eax
  000be	8d 8d 30 c9 fe
	ff		 lea	 ecx, DWORD PTR _arRead$[ebp]
  000c4	89 85 24 c9 fe
	ff		 mov	 DWORD PTR tv1079[ebp], eax
  000ca	e8 00 00 00 00	 call	 ?ReadString@CAr@@QAEPADPADH@Z ; CAr::ReadString

; 139  : 	arRead.ReadString( lpDBOP->AccountInfo.szPassword, MAX_PASSWORD );

  000cf	6a 2a		 push	 42			; 0000002aH
  000d1	8d 46 4a	 lea	 eax, DWORD PTR [esi+74]
  000d4	50		 push	 eax
  000d5	8d 8d 30 c9 fe
	ff		 lea	 ecx, DWORD PTR _arRead$[ebp]
  000db	e8 00 00 00 00	 call	 ?ReadString@CAr@@QAEPADPADH@Z ; CAr::ReadString

; 140  : 	arRead >> _nSlot >> idPlayer;

  000e0	8d 85 10 c9 fe
	ff		 lea	 eax, DWORD PTR _idPlayer$[ebp]
  000e6	50		 push	 eax
  000e7	8d 85 2f c9 fe
	ff		 lea	 eax, DWORD PTR __nSlot$[ebp]
  000ed	50		 push	 eax
  000ee	8d 8d 30 c9 fe
	ff		 lea	 ecx, DWORD PTR _arRead$[ebp]
  000f4	e8 00 00 00 00	 call	 ??$?5E@CAr@@QAEAAV0@AAE@Z ; CAr::operator>><unsigned char>
  000f9	8b c8		 mov	 ecx, eax
  000fb	e8 00 00 00 00	 call	 ??$?5K@CAr@@QAEAAV0@AAK@Z ; CAr::operator>><unsigned long>

; 141  : 	lpDBOP->AccountInfo.nPlayerSlot		= _nSlot;
; 142  : 
; 143  : 	arRead >> lpDBOP->dpid >> lpDBOP->dpidCache >> lpDBOP->dpidUser;

  00100	8b 8d 28 c9 fe
	ff		 mov	 ecx, DWORD PTR _lpDBOP$GSCopy$1$[ebp]
  00106	0f b6 85 2f c9
	fe ff		 movzx	 eax, BYTE PTR __nSlot$[ebp]
  0010d	89 86 a4 00 00
	00		 mov	 DWORD PTR [esi+164], eax
  00113	81 c6 a8 00 00
	00		 add	 esi, 168		; 000000a8H
  00119	8d 81 b0 00 00
	00		 lea	 eax, DWORD PTR [ecx+176]
  0011f	50		 push	 eax
  00120	8d 81 ac 00 00
	00		 lea	 eax, DWORD PTR [ecx+172]
  00126	50		 push	 eax
  00127	56		 push	 esi
  00128	8d 8d 30 c9 fe
	ff		 lea	 ecx, DWORD PTR _arRead$[ebp]
  0012e	e8 00 00 00 00	 call	 ??$?5K@CAr@@QAEAAV0@AAK@Z ; CAr::operator>><unsigned long>
  00133	8b c8		 mov	 ecx, eax
  00135	e8 00 00 00 00	 call	 ??$?5K@CAr@@QAEAAV0@AAK@Z ; CAr::operator>><unsigned long>
  0013a	8b c8		 mov	 ecx, eax
  0013c	e8 00 00 00 00	 call	 ??$?5K@CAr@@QAEAAV0@AAK@Z ; CAr::operator>><unsigned long>

; 144  : #ifdef __BILLING0712
; 145  : 	arRead >> dwBillingClass;
; 146  : #endif	// __BILLING0712
; 147  : #if __VER >= 14 // __PCBANG
; 148  : 	DWORD dwPCBangClass;
; 149  : 	arRead >> dwPCBangClass;

  00141	8d 85 1c c9 fe
	ff		 lea	 eax, DWORD PTR _dwPCBangClass$[ebp]
  00147	50		 push	 eax
  00148	8d 8d 30 c9 fe
	ff		 lea	 ecx, DWORD PTR _arRead$[ebp]
  0014e	e8 00 00 00 00	 call	 ??$?5K@CAr@@QAEAAV0@AAK@Z ; CAr::operator>><unsigned long>

; 150  : #endif // __PCBANG
; 151  : 	char lpOutputString[128]	= { 0, };

  00153	68 80 00 00 00	 push	 128			; 00000080H
  00158	8d 85 34 ff ff
	ff		 lea	 eax, DWORD PTR _lpOutputString$[ebp]
  0015e	6a 00		 push	 0
  00160	50		 push	 eax
  00161	e8 00 00 00 00	 call	 _memset

; 152  : 	sprintf( lpOutputString, "DATABASESERVER.EXE\t// JOIN_0\t// %d\n", lpDBOP->dpid );

  00166	ff 36		 push	 DWORD PTR [esi]
  00168	8d 85 34 ff ff
	ff		 lea	 eax, DWORD PTR _lpOutputString$[ebp]
  0016e	68 00 00 00 00	 push	 OFFSET ??_C@_0CE@CJIFODLL@DATABASESERVER?4EXE?7?1?1?5JOIN_0?7?1?1@
  00173	50		 push	 eax
  00174	e8 00 00 00 00	 call	 _sprintf
  00179	83 c4 18	 add	 esp, 24			; 00000018H

; 153  : 	OutputDebugString( lpOutputString );

  0017c	8d 85 34 ff ff
	ff		 lea	 eax, DWORD PTR _lpOutputString$[ebp]
  00182	50		 push	 eax
  00183	ff 15 00 00 00
	00		 call	 DWORD PTR __imp__OutputDebugStringA@4

; 154  : 
; 155  : 	// CHARACTER_STR 'S8',@im_idPlayer,@iserverindex,@account
; 156  : 	// CHARACTER_STR 'S8','000001','01','Č«±ćµż'
; 157  : 	char szQuery[QUERY_SIZE]	= { 0,};

  00189	68 00 a0 00 00	 push	 40960			; 0000a000H
  0018e	8d 85 34 5f ff
	ff		 lea	 eax, DWORD PTR _szQuery$[ebp]
  00194	6a 00		 push	 0
  00196	50		 push	 eax
  00197	e8 00 00 00 00	 call	 _memset
  0019c	83 c4 0c	 add	 esp, 12			; 0000000cH

; 158  : 	DBQryCharacter( szQuery, "S8", idPlayer, g_appInfo.dwSys, lpDBOP->AccountInfo.szAccount );

  0019f	6a 00		 push	 0
  001a1	6a 00		 push	 0
  001a3	6a 00		 push	 0
  001a5	6a 00		 push	 0
  001a7	6a ff		 push	 -1
  001a9	6a 00		 push	 0
  001ab	6a 00		 push	 0
  001ad	6a 00		 push	 0
  001af	6a 00		 push	 0
  001b1	6a 00		 push	 0
  001b3	6a 00		 push	 0
  001b5	6a 00		 push	 0
  001b7	6a 00		 push	 0
  001b9	6a 00		 push	 0
  001bb	6a 00		 push	 0
  001bd	6a 00		 push	 0
  001bf	6a 00		 push	 0
  001c1	83 ec 0c	 sub	 esp, 12			; 0000000cH
  001c4	c7 44 24 08 00
	00 00 00	 mov	 DWORD PTR [esp+8], 0
  001cc	c7 44 24 04 00
	00 00 00	 mov	 DWORD PTR [esp+4], 0
  001d4	c7 04 24 00 00
	00 00		 mov	 DWORD PTR [esp], 0
  001db	6a 00		 push	 0
  001dd	6a 00		 push	 0
  001df	6a 00		 push	 0
  001e1	6a 00		 push	 0
  001e3	6a 00		 push	 0
  001e5	6a 00		 push	 0
  001e7	6a 00		 push	 0
  001e9	6a 00		 push	 0
  001eb	6a 00		 push	 0
  001ed	6a 00		 push	 0
  001ef	6a 00		 push	 0
  001f1	6a 00		 push	 0
  001f3	6a 00		 push	 0
  001f5	6a 00		 push	 0
  001f7	6a 00		 push	 0
  001f9	6a 00		 push	 0
  001fb	6a 00		 push	 0
  001fd	6a 00		 push	 0
  001ff	6a 00		 push	 0
  00201	6a 00		 push	 0
  00203	6a 00		 push	 0
  00205	6a 00		 push	 0
  00207	6a 00		 push	 0
  00209	6a 00		 push	 0
  0020b	6a 00		 push	 0
  0020d	6a 00		 push	 0
  0020f	6a 00		 push	 0
  00211	6a 00		 push	 0
  00213	6a 00		 push	 0
  00215	6a 00		 push	 0
  00217	6a 00		 push	 0
  00219	6a 00		 push	 0
  0021b	6a 00		 push	 0
  0021d	6a 00		 push	 0
  0021f	6a 00		 push	 0
  00221	6a 00		 push	 0
  00223	6a 00		 push	 0
  00225	6a 00		 push	 0
  00227	6a 00		 push	 0
  00229	6a 46		 push	 70			; 00000046H
  0022b	6a 00		 push	 0
  0022d	6a 00		 push	 0
  0022f	6a 00		 push	 0
  00231	6a 00		 push	 0
  00233	6a 00		 push	 0
  00235	6a 00		 push	 0
  00237	83 ec 0c	 sub	 esp, 12			; 0000000cH
  0023a	c7 44 24 08 00
	00 00 00	 mov	 DWORD PTR [esp+8], 0
  00242	c7 44 24 04 00
	00 00 00	 mov	 DWORD PTR [esp+4], 0
  0024a	c7 04 24 00 00
	00 00		 mov	 DWORD PTR [esp], 0
  00251	6a 00		 push	 0
  00253	6a 00		 push	 0
  00255	6a 00		 push	 0
  00257	6a 00		 push	 0
  00259	6a 00		 push	 0
  0025b	6a 00		 push	 0
  0025d	6a 00		 push	 0
  0025f	6a 00		 push	 0
  00261	6a 00		 push	 0
  00263	6a 00		 push	 0
  00265	6a 00		 push	 0
  00267	6a 00		 push	 0
  00269	6a 00		 push	 0
  0026b	6a 00		 push	 0
  0026d	6a 00		 push	 0
  0026f	6a 00		 push	 0
  00271	6a 00		 push	 0
  00273	6a 00		 push	 0
  00275	6a 00		 push	 0
  00277	6a 00		 push	 0
  00279	6a 00		 push	 0
  0027b	51		 push	 ecx
  0027c	c7 04 24 00 00
	00 00		 mov	 DWORD PTR [esp], 0
  00283	8d 85 34 5f ff
	ff		 lea	 eax, DWORD PTR _szQuery$[ebp]
  00289	6a 00		 push	 0
  0028b	51		 push	 ecx
  0028c	c7 04 24 00 00
	00 00		 mov	 DWORD PTR [esp], 0
  00293	6a 00		 push	 0
  00295	6a 00		 push	 0
  00297	6a 00		 push	 0
  00299	6a 00		 push	 0
  0029b	6a 00		 push	 0
  0029d	6a 00		 push	 0
  0029f	83 ec 0c	 sub	 esp, 12			; 0000000cH
  002a2	8b b5 14 c9 fe
	ff		 mov	 esi, DWORD PTR _this$GSCopy$1$[ebp]
  002a8	8b ce		 mov	 ecx, esi
  002aa	c7 44 24 08 00
	00 00 00	 mov	 DWORD PTR [esp+8], 0
  002b2	c7 44 24 04 00
	00 00 00	 mov	 DWORD PTR [esp+4], 0
  002ba	c7 04 24 00 00
	00 00		 mov	 DWORD PTR [esp], 0
  002c1	6a 00		 push	 0
  002c3	6a 00		 push	 0
  002c5	6a 00		 push	 0
  002c7	6a 00		 push	 0
  002c9	ff b5 24 c9 fe
	ff		 push	 DWORD PTR tv1079[ebp]
  002cf	ff 35 00 00 00
	00		 push	 DWORD PTR ?g_appInfo@@3UAppInfo@@A
  002d5	ff b5 10 c9 fe
	ff		 push	 DWORD PTR _idPlayer$[ebp]
  002db	68 00 00 00 00	 push	 OFFSET ??_C@_02HJNLAKPP@S8@
  002e0	50		 push	 eax
  002e1	e8 00 00 00 00	 call	 ?DBQryCharacter@CDbManager@@QAEXPAD0KH00HKKMMM0KKKKKMKMHHHKKH0HHHHH_J1000KHMMMHHHHH0DKHHH1HKKH0000000000000H000KHH00K00000KMMMHKK1J00KHHHHHHK0@Z ; CDbManager::DBQryCharacter

; 159  : 
; 160  : 	if( !qry->Exec( szQuery ) )

  002e6	8d 85 34 5f ff
	ff		 lea	 eax, DWORD PTR _szQuery$[ebp]
  002ec	8b cf		 mov	 ecx, edi
  002ee	50		 push	 eax
  002ef	e8 00 00 00 00	 call	 ?Exec@CQuery@@QAEHPBD@Z	; CQuery::Exec
  002f4	85 c0		 test	 eax, eax
  002f6	0f 84 10 0a 00
	00		 je	 $LN54@Join

; 161  : 	{
; 162  : 		FreeRequest( lpDBOP );
; 163  : 		return;
; 164  : 	}
; 165  : 	if( !qry->Fetch() )

  002fc	8b cf		 mov	 ecx, edi
  002fe	e8 00 00 00 00	 call	 ?Fetch@CQuery@@QAEHXZ	; CQuery::Fetch
  00303	85 c0		 test	 eax, eax
  00305	0f 84 01 0a 00
	00		 je	 $LN54@Join

; 166  : 	{
; 167  : 		FreeRequest( lpDBOP );
; 168  : 		return;
; 169  : 	}
; 170  : 	qry->GetStr( "m_szName", lpDBOP->AccountInfo.szPlayer );

  0030b	8b 85 28 c9 fe
	ff		 mov	 eax, DWORD PTR _lpDBOP$GSCopy$1$[ebp]
  00311	8b cf		 mov	 ecx, edi
  00313	83 c0 74	 add	 eax, 116		; 00000074H
  00316	50		 push	 eax
  00317	68 00 00 00 00	 push	 OFFSET ??_C@_08HDDJDJAG@m_szName@
  0031c	89 85 10 c9 fe
	ff		 mov	 DWORD PTR tv1083[ebp], eax
  00322	e8 00 00 00 00	 call	 ?GetStr@CQuery@@QAEXPAD0@Z ; CQuery::GetStr
; File C:\IAGOS\server\v18\Source\Source\_Network\Mcl\Include\CMclCritSec.h

; 33   : 		::EnterCriticalSection( &m_CritSec );

  00327	8d 46 50	 lea	 eax, DWORD PTR [esi+80]
  0032a	50		 push	 eax
  0032b	ff 15 00 00 00
	00		 call	 DWORD PTR __imp__EnterCriticalSection@4
; File C:\IAGOS\server\v18\Source\Source\_Database\DbManagerJoin.cpp

; 172  : 	strcpy( m_aszJoin[m_nJoin], lpDBOP->AccountInfo.szPlayer );

  00331	6b 96 08 03 00
	00 2a		 imul	 edx, DWORD PTR [esi+776], 42
  00338	8b 8d 10 c9 fe
	ff		 mov	 ecx, DWORD PTR tv1083[ebp]
  0033e	83 c2 68	 add	 edx, 104		; 00000068H
  00341	03 d6		 add	 edx, esi
$LL39@Join:
  00343	8a 01		 mov	 al, BYTE PTR [ecx]
  00345	8d 49 01	 lea	 ecx, DWORD PTR [ecx+1]
  00348	88 02		 mov	 BYTE PTR [edx], al
  0034a	8d 52 01	 lea	 edx, DWORD PTR [edx+1]
  0034d	84 c0		 test	 al, al
  0034f	75 f2		 jne	 SHORT $LL39@Join

; 173  : 	m_nJoin	= ( m_nJoin + 1 ) % MAX_JOIN_SIZE;

  00351	8b 86 08 03 00
	00		 mov	 eax, DWORD PTR [esi+776]
  00357	40		 inc	 eax
  00358	25 0f 00 00 80	 and	 eax, -2147483633	; 8000000fH
  0035d	79 05		 jns	 SHORT $LN141@Join
  0035f	48		 dec	 eax
  00360	83 c8 f0	 or	 eax, -16		; fffffff0H
  00363	40		 inc	 eax
$LN141@Join:
  00364	89 86 08 03 00
	00		 mov	 DWORD PTR [esi+776], eax
; File C:\IAGOS\server\v18\Source\Source\_Network\Mcl\Include\CMclCritSec.h

; 39   : 		::LeaveCriticalSection( &m_CritSec );

  0036a	8d 46 50	 lea	 eax, DWORD PTR [esi+80]
  0036d	50		 push	 eax
  0036e	ff 15 00 00 00
	00		 call	 DWORD PTR __imp__LeaveCriticalSection@4
; File C:\IAGOS\server\v18\Source\Source\_Database\DbManagerJoin.cpp

; 177  : 	BYTE nSlot = (BYTE)qry->GetInt( "playerslot" );

  00374	68 00 00 00 00	 push	 OFFSET ??_C@_0L@BLIMKIB@playerslot@
  00379	8b cf		 mov	 ecx, edi
  0037b	e8 00 00 00 00	 call	 ?GetInt@CQuery@@QAEHPAD@Z ; CQuery::GetInt

; 178  : 
; 179  : 	// ŔÓ˝Ă şŻĽöżˇ Äő¸® °á°ú¸¦ ŔúŔĺÇŃ´Ů
; 180  : 	CMover	mover;

  00380	8d 8d 44 09 ff
	ff		 lea	 ecx, DWORD PTR _mover$[ebp]
  00386	88 85 2f c9 fe
	ff		 mov	 BYTE PTR _nSlot$1$[ebp], al
  0038c	e8 00 00 00 00	 call	 ??0CMover@@QAE@XZ	; CMover::CMover

; 181  : 	mover.m_nSlot	= nSlot;

  00391	8a 8d 2f c9 fe
	ff		 mov	 cl, BYTE PTR _nSlot$1$[ebp]
  00397	88 8d 0c 0a ff
	ff		 mov	 BYTE PTR _mover$[ebp+200], cl

; 182  : #if __VER >= 14 // __PCBANG
; 183  : 	mover.m_dwPCBangClass = dwPCBangClass;

  0039d	8b 8d 1c c9 fe
	ff		 mov	 ecx, DWORD PTR _dwPCBangClass$[ebp]
  003a3	89 8d 48 4a ff
	ff		 mov	 DWORD PTR _mover$[ebp+16644], ecx

; 184  : #endif // __PCBANG
; 185  : 	mover.m_dwIndex	= (DWORD)qry->GetInt( "m_dwIndex" );

  003a9	8b cf		 mov	 ecx, edi
  003ab	68 00 00 00 00	 push	 OFFSET ??_C@_09PLACNOOD@m_dwIndex@
  003b0	c6 45 fc 01	 mov	 BYTE PTR __$EHRec$[ebp+8], 1
  003b4	e8 00 00 00 00	 call	 ?GetInt@CQuery@@QAEHPAD@Z ; CQuery::GetInt

; 186  : 	mover.InitProp();

  003b9	8d 8d 44 09 ff
	ff		 lea	 ecx, DWORD PTR _mover$[ebp]
  003bf	89 85 4c 09 ff
	ff		 mov	 DWORD PTR _mover$[ebp+8], eax
  003c5	e8 00 00 00 00	 call	 ?InitProp@CMover@@QAEXXZ ; CMover::InitProp

; 187  : 	mover.m_idPlayer	= (u_long)qry->GetInt( "m_idPlayer" );

  003ca	68 00 00 00 00	 push	 OFFSET ??_C@_0L@FONFFEJF@m_idPlayer@
  003cf	8b cf		 mov	 ecx, edi
  003d1	e8 00 00 00 00	 call	 ?GetInt@CQuery@@QAEHPAD@Z ; CQuery::GetInt

; 188  : 
; 189  : 	BOOL bRefresh	= FALSE;
; 190  : 	if( qry->GetInt( "m_idCompany" ) > 0 )

  003d6	68 00 00 00 00	 push	 OFFSET ??_C@_0M@FNJGDDDM@m_idCompany@
  003db	8b cf		 mov	 ecx, edi
  003dd	89 85 d4 09 ff
	ff		 mov	 DWORD PTR _mover$[ebp+144], eax
  003e3	e8 00 00 00 00	 call	 ?GetInt@CQuery@@QAEHPAD@Z ; CQuery::GetInt

; 191  : 		bRefresh	= TRUE;
; 192  : 
; 193  : 	/*GetInventory( &mover, qry, lpDBOP );
; 194  : 	GetEquipment( &mover, qry, lpDBOP );
; 195  : 	GetTaskBar( &mover, qry, lpDBOP );
; 196  : 	GetCardCube( &mover, qry, lpDBOP );
; 197  : 	GetBaseCharacter( &mover, qry, lpDBOP );
; 198  : 	GetJobLv( &mover, qry, lpDBOP );
; 199  : 	GetQuest( &mover, qry, lpDBOP );
; 200  : 	GetSMMode( &mover, qry, lpDBOP );
; 201  : 	GetSKillInfluence( &mover, qry, lpDBOP );*/
; 202  : 	// mirchang_100416 VERIFYSTRING use return value
; 203  : 	GetBaseCharacter( &mover, qry, lpDBOP );

  003e8	ff b5 28 c9 fe
	ff		 push	 DWORD PTR _lpDBOP$GSCopy$1$[ebp]
  003ee	33 c9		 xor	 ecx, ecx
  003f0	85 c0		 test	 eax, eax
  003f2	57		 push	 edi
  003f3	0f 9f c1	 setg	 cl
  003f6	8d 85 44 09 ff
	ff		 lea	 eax, DWORD PTR _mover$[ebp]
  003fc	89 8d 08 c9 fe
	ff		 mov	 DWORD PTR _bRefresh$2$[ebp], ecx
  00402	8b ce		 mov	 ecx, esi
  00404	50		 push	 eax
  00405	e8 00 00 00 00	 call	 ?GetBaseCharacter@CDbManager@@QAEXPAVCMover@@PAVCQuery@@PAUtagDB_OVERLAPPED_PLUS@@@Z ; CDbManager::GetBaseCharacter

; 204  : 	if( GetInventory( &mover, qry, lpDBOP ) == FALSE
; 205  : 		|| GetEquipment( &mover, qry, lpDBOP ) == FALSE
; 206  : 		|| GetTaskBar( &mover, qry, lpDBOP ) == FALSE
; 207  : 		|| GetQuest( &mover, qry, lpDBOP ) == FALSE
; 208  : 		|| GetSMMode( &mover, qry, lpDBOP ) == FALSE
; 209  : 		|| GetSKillInfluence( &mover, qry, lpDBOP ) == FALSE )

  0040a	ff b5 28 c9 fe
	ff		 push	 DWORD PTR _lpDBOP$GSCopy$1$[ebp]
  00410	8d 85 44 09 ff
	ff		 lea	 eax, DWORD PTR _mover$[ebp]
  00416	8b ce		 mov	 ecx, esi
  00418	57		 push	 edi
  00419	50		 push	 eax
  0041a	e8 00 00 00 00	 call	 ?GetInventory@CDbManager@@QAEHPAVCMover@@PAVCQuery@@PAUtagDB_OVERLAPPED_PLUS@@@Z ; CDbManager::GetInventory
  0041f	85 c0		 test	 eax, eax
  00421	0f 84 d8 08 00
	00		 je	 $LN16@Join
  00427	ff b5 28 c9 fe
	ff		 push	 DWORD PTR _lpDBOP$GSCopy$1$[ebp]
  0042d	8d 85 44 09 ff
	ff		 lea	 eax, DWORD PTR _mover$[ebp]
  00433	8b ce		 mov	 ecx, esi
  00435	57		 push	 edi
  00436	50		 push	 eax
  00437	e8 00 00 00 00	 call	 ?GetEquipment@CDbManager@@QAEHPAVCMover@@PAVCQuery@@PAUtagDB_OVERLAPPED_PLUS@@@Z ; CDbManager::GetEquipment
  0043c	85 c0		 test	 eax, eax
  0043e	0f 84 bb 08 00
	00		 je	 $LN16@Join
  00444	ff b5 28 c9 fe
	ff		 push	 DWORD PTR _lpDBOP$GSCopy$1$[ebp]
  0044a	8d 85 44 09 ff
	ff		 lea	 eax, DWORD PTR _mover$[ebp]
  00450	8b ce		 mov	 ecx, esi
  00452	57		 push	 edi
  00453	50		 push	 eax
  00454	e8 00 00 00 00	 call	 ?GetTaskBar@CDbManager@@QAEHPAVCMover@@PAVCQuery@@PAUtagDB_OVERLAPPED_PLUS@@@Z ; CDbManager::GetTaskBar
  00459	85 c0		 test	 eax, eax
  0045b	0f 84 9e 08 00
	00		 je	 $LN16@Join
  00461	ff b5 28 c9 fe
	ff		 push	 DWORD PTR _lpDBOP$GSCopy$1$[ebp]
  00467	8d 85 44 09 ff
	ff		 lea	 eax, DWORD PTR _mover$[ebp]
  0046d	8b ce		 mov	 ecx, esi
  0046f	57		 push	 edi
  00470	50		 push	 eax
  00471	e8 00 00 00 00	 call	 ?GetQuest@CDbManager@@QAEHPAVCMover@@PAVCQuery@@PAUtagDB_OVERLAPPED_PLUS@@@Z ; CDbManager::GetQuest
  00476	85 c0		 test	 eax, eax
  00478	0f 84 81 08 00
	00		 je	 $LN16@Join
  0047e	ff b5 28 c9 fe
	ff		 push	 DWORD PTR _lpDBOP$GSCopy$1$[ebp]
  00484	8d 85 44 09 ff
	ff		 lea	 eax, DWORD PTR _mover$[ebp]
  0048a	8b ce		 mov	 ecx, esi
  0048c	57		 push	 edi
  0048d	50		 push	 eax
  0048e	e8 00 00 00 00	 call	 ?GetSMMode@CDbManager@@QAEHPAVCMover@@PAVCQuery@@PAUtagDB_OVERLAPPED_PLUS@@@Z ; CDbManager::GetSMMode
  00493	85 c0		 test	 eax, eax
  00495	0f 84 64 08 00
	00		 je	 $LN16@Join
  0049b	ff b5 28 c9 fe
	ff		 push	 DWORD PTR _lpDBOP$GSCopy$1$[ebp]
  004a1	8d 85 44 09 ff
	ff		 lea	 eax, DWORD PTR _mover$[ebp]
  004a7	8b ce		 mov	 ecx, esi
  004a9	57		 push	 edi
  004aa	50		 push	 eax
  004ab	e8 00 00 00 00	 call	 ?GetSKillInfluence@CDbManager@@QAEHPAVCMover@@PAVCQuery@@PAUtagDB_OVERLAPPED_PLUS@@@Z ; CDbManager::GetSKillInfluence
  004b0	85 c0		 test	 eax, eax
  004b2	0f 84 47 08 00
	00		 je	 $LN16@Join

; 210  : 	{
; 211  : 		return;
; 212  : 	}
; 213  : 	GetCardCube( &mover, qry, lpDBOP );

  004b8	ff b5 28 c9 fe
	ff		 push	 DWORD PTR _lpDBOP$GSCopy$1$[ebp]
  004be	8d 85 44 09 ff
	ff		 lea	 eax, DWORD PTR _mover$[ebp]
  004c4	8b ce		 mov	 ecx, esi
  004c6	57		 push	 edi
  004c7	50		 push	 eax
  004c8	e8 00 00 00 00	 call	 ?GetCardCube@CDbManager@@QAEXPAVCMover@@PAVCQuery@@PAUtagDB_OVERLAPPED_PLUS@@@Z ; CDbManager::GetCardCube

; 214  : 	GetJobLv( &mover, qry, lpDBOP );

  004cd	ff b5 28 c9 fe
	ff		 push	 DWORD PTR _lpDBOP$GSCopy$1$[ebp]
  004d3	8d 85 44 09 ff
	ff		 lea	 eax, DWORD PTR _mover$[ebp]
  004d9	8b ce		 mov	 ecx, esi
  004db	57		 push	 edi
  004dc	50		 push	 eax
  004dd	e8 00 00 00 00	 call	 ?GetJobLv@CDbManager@@QAEXPAVCMover@@PAVCQuery@@PAUtagDB_OVERLAPPED_PLUS@@@Z ; CDbManager::GetJobLv

; 215  : 	// mirchang_100416
; 216  : 
; 217  : #ifdef __RT_1025
; 218  : 	mover.m_RTMessenger.SetState( (DWORD)qry->GetInt( "m_nMessengerState" ) );

  004e2	68 00 00 00 00	 push	 OFFSET ??_C@_0BC@IEAFGFF@m_nMessengerState@
  004e7	8b cf		 mov	 ecx, edi
  004e9	e8 00 00 00 00	 call	 ?GetInt@CQuery@@QAEHPAD@Z ; CQuery::GetInt

; 222  : 	mover.m_dwReturnWorldID		= qry->GetInt( "m_dwReturnWorldID" );

  004ee	68 00 00 00 00	 push	 OFFSET ??_C@_0BC@MIOGNHI@m_dwReturnWorldID@
  004f3	8b cf		 mov	 ecx, edi
; File C:\IAGOS\server\v18\Source\Source\_Common\rtmessenger.h

; 32   : 	void	SetState( DWORD dwState )	{	m_dwState	= dwState;	}

  004f5	89 85 ac 44 ff
	ff		 mov	 DWORD PTR _mover$[ebp+15208], eax
; File C:\IAGOS\server\v18\Source\Source\_Database\DbManagerJoin.cpp

; 222  : 	mover.m_dwReturnWorldID		= qry->GetInt( "m_dwReturnWorldID" );

  004fb	e8 00 00 00 00	 call	 ?GetInt@CQuery@@QAEHPAD@Z ; CQuery::GetInt

; 223  : 	mover.m_vReturnPos.x	= qry->GetFloat( "m_vReturnPos_x" );

  00500	68 00 00 00 00	 push	 OFFSET ??_C@_0P@JCFLJGGL@m_vReturnPos_x@
  00505	8b cf		 mov	 ecx, edi
  00507	89 85 7c 45 ff
	ff		 mov	 DWORD PTR _mover$[ebp+15416], eax
  0050d	e8 00 00 00 00	 call	 ?GetFloat@CQuery@@QAEMPAD@Z ; CQuery::GetFloat
  00512	d9 9d 70 45 ff
	ff		 fstp	 DWORD PTR _mover$[ebp+15404]

; 224  : 	mover.m_vReturnPos.y	= qry->GetFloat( "m_vReturnPos_y" );

  00518	68 00 00 00 00	 push	 OFFSET ??_C@_0P@ILEAKHCK@m_vReturnPos_y@
  0051d	8b cf		 mov	 ecx, edi
  0051f	e8 00 00 00 00	 call	 ?GetFloat@CQuery@@QAEMPAD@Z ; CQuery::GetFloat
  00524	d9 9d 74 45 ff
	ff		 fstp	 DWORD PTR _mover$[ebp+15408]

; 225  : 	mover.m_vReturnPos.z	= qry->GetFloat( "m_vReturnPos_z" );

  0052a	68 00 00 00 00	 push	 OFFSET ??_C@_0P@KAGNPEOJ@m_vReturnPos_z@
  0052f	8b cf		 mov	 ecx, edi
  00531	e8 00 00 00 00	 call	 ?GetFloat@CQuery@@QAEMPAD@Z ; CQuery::GetFloat

; 226  : 	
; 227  : 	DWORD dwPlayTime	= qry->GetInt( "TotalPlayTime" );

  00536	68 00 00 00 00	 push	 OFFSET ??_C@_0O@GDGPCDJB@TotalPlayTime@
  0053b	8b cf		 mov	 ecx, edi
  0053d	d9 9d 78 45 ff
	ff		 fstp	 DWORD PTR _mover$[ebp+15412]
  00543	e8 00 00 00 00	 call	 ?GetInt@CQuery@@QAEHPAD@Z ; CQuery::GetInt

; 228  : #ifdef __JEFF_9_20
; 229  : 	mover.m_dwMute		= qry->GetInt( "m_dwFlyTime" );

  00548	68 00 00 00 00	 push	 OFFSET ??_C@_0M@MJKONAGD@m_dwFlyTime@
  0054d	8b cf		 mov	 ecx, edi
  0054f	89 85 10 c9 fe
	ff		 mov	 DWORD PTR _dwPlayTime$1$[ebp], eax
  00555	e8 00 00 00 00	 call	 ?GetInt@CQuery@@QAEHPAD@Z ; CQuery::GetInt

; 230  : 	DWORD dwFlyTime		= 0;	//
; 231  : #else	// __JEFF_9_20
; 232  : 	DWORD dwFlyTime		= qry->GetInt( "m_dwFlyTime" );
; 233  : #endif	// __JEFF_9_20
; 234  : 	int nMaximumLevel	= qry->GetInt( "m_nMaximumLevel" );

  0055a	68 00 00 00 00	 push	 OFFSET ??_C@_0BA@NNOIPPOE@m_nMaximumLevel@
  0055f	8b cf		 mov	 ecx, edi
  00561	89 85 84 45 ff
	ff		 mov	 DWORD PTR _mover$[ebp+15424], eax
  00567	e8 00 00 00 00	 call	 ?GetInt@CQuery@@QAEHPAD@Z ; CQuery::GetInt
  0056c	89 85 f4 c8 fe
	ff		 mov	 DWORD PTR _nMaximumLevel$1$[ebp], eax

; 235  : 	qry->GetStr( "m_tGuildMember", szTimeGuild );

  00572	8b cf		 mov	 ecx, edi
  00574	8d 45 d8	 lea	 eax, DWORD PTR _szTimeGuild$[ebp]
  00577	50		 push	 eax
  00578	68 00 00 00 00	 push	 OFFSET ??_C@_0P@ELDJOFJA@m_tGuildMember@
  0057d	e8 00 00 00 00	 call	 ?GetStr@CQuery@@QAEXPAD0@Z ; CQuery::GetStr

; 236  : 	
; 237  : 	char cAuth = qry->GetChar( "m_chLoginAuthority" );

  00582	68 00 00 00 00	 push	 OFFSET ??_C@_0BD@CKCGLHFA@m_chLoginAuthority@
  00587	8b cf		 mov	 ecx, edi
  00589	e8 00 00 00 00	 call	 ?GetChar@CQuery@@QAEDPAD@Z ; CQuery::GetChar

; 238  : 	if( cAuth == 'F' )

  0058e	3c 46		 cmp	 al, 70			; 00000046H
  00590	75 0c		 jne	 SHORT $LN17@Join

; 239  : 		cAuth = qry->GetChar( "m_chAuthority" );	

  00592	68 00 00 00 00	 push	 OFFSET ??_C@_0O@EENGJBPN@m_chAuthority@
  00597	8b cf		 mov	 ecx, edi
  00599	e8 00 00 00 00	 call	 ?GetChar@CQuery@@QAEDPAD@Z ; CQuery::GetChar
$LN17@Join:

; 240  : 	mover.m_dwAuthorization = (DWORD)cAuth;
; 241  : 	mover.m_dwMode	&= ~( EVENT_OLDBOY_MODE );

  0059e	81 a5 28 0c ff
	ff ff ff fe ff	 and	 DWORD PTR _mover$[ebp+740], -65537 ; fffeffffH

; 242  : 	if( qry->GetInt( "last_connect" ) == 0 )

  005a8	8b cf		 mov	 ecx, edi
  005aa	0f be c0	 movsx	 eax, al
  005ad	68 00 00 00 00	 push	 OFFSET ??_C@_0N@NIOAJHOA@last_connect@
  005b2	89 85 24 0c ff
	ff		 mov	 DWORD PTR _mover$[ebp+736], eax
  005b8	e8 00 00 00 00	 call	 ?GetInt@CQuery@@QAEHPAD@Z ; CQuery::GetInt
  005bd	85 c0		 test	 eax, eax
  005bf	75 0a		 jne	 SHORT $LN18@Join

; 243  : 		mover.m_dwMode	|= EVENT_OLDBOY_MODE;

  005c1	81 8d 28 0c ff
	ff 00 00 01 00	 or	 DWORD PTR _mover$[ebp+740], 65536 ; 00010000H
$LN18@Join:

; 244  : 	mover.m_idGuild		= (u_long)qry->GetInt( "m_idGuild" );

  005cb	68 00 00 00 00	 push	 OFFSET ??_C@_09MHDEIN@m_idGuild@
  005d0	8b cf		 mov	 ecx, edi
  005d2	e8 00 00 00 00	 call	 ?GetInt@CQuery@@QAEHPAD@Z ; CQuery::GetInt

; 245  : 	mover.m_idWar	= (u_long)qry->GetInt( "m_idWar" );

  005d7	68 00 00 00 00	 push	 OFFSET ??_C@_07EFCBAOMF@m_idWar@
  005dc	8b cf		 mov	 ecx, edi
  005de	89 85 b4 44 ff
	ff		 mov	 DWORD PTR _mover$[ebp+15216], eax
  005e4	e8 00 00 00 00	 call	 ?GetInt@CQuery@@QAEHPAD@Z ; CQuery::GetInt

; 246  : 
; 247  : #ifdef __EVENT_1101
; 248  : #ifdef __EVENT_1101_2
; 249  : 	mover.m_nEventFlag	= qry->GetInt64( "dwEventFlag" );

  005e9	68 00 00 00 00	 push	 OFFSET ??_C@_0M@JFJGDALJ@dwEventFlag@
  005ee	8b cf		 mov	 ecx, edi
  005f0	89 85 b8 44 ff
	ff		 mov	 DWORD PTR _mover$[ebp+15220], eax
  005f6	e8 00 00 00 00	 call	 ?GetInt64@CQuery@@QAE_JPAD@Z ; CQuery::GetInt64

; 250  : #else // __EVENT_1101_2
; 251  : 	mover.m_dwEventFlag	= (DWORD)qry->GetInt( "dwEventFlag" );
; 252  : #endif // __EVENT_1101_2
; 253  : 	mover.m_dwEventTime	= (DWORD)qry->GetInt( "dwEventTime" );

  005fb	68 00 00 00 00	 push	 OFFSET ??_C@_0M@IDEEJPIP@dwEventTime@
  00600	8b cf		 mov	 ecx, edi
  00602	89 85 ac 45 ff
	ff		 mov	 DWORD PTR _mover$[ebp+15464], eax
  00608	89 95 b0 45 ff
	ff		 mov	 DWORD PTR _mover$[ebp+15468], edx
  0060e	e8 00 00 00 00	 call	 ?GetInt@CQuery@@QAEHPAD@Z ; CQuery::GetInt

; 254  : 	mover.m_dwEventElapsed	= (DWORD)qry->GetInt( "dwEventElapsed" );

  00613	68 00 00 00 00	 push	 OFFSET ??_C@_0P@GGONCBOD@dwEventElapsed@
  00618	8b cf		 mov	 ecx, edi
  0061a	89 85 b4 45 ff
	ff		 mov	 DWORD PTR _mover$[ebp+15472], eax
  00620	e8 00 00 00 00	 call	 ?GetInt@CQuery@@QAEHPAD@Z ; CQuery::GetInt

; 255  : #endif	// __EVENT1101
; 256  : 
; 257  : 	DWORD dwPetId	= (DWORD)qry->GetInt( "m_dwPetId" );

  00625	68 00 00 00 00	 push	 OFFSET ??_C@_09CPDCAJOH@m_dwPetId@
  0062a	8b cf		 mov	 ecx, edi
  0062c	89 85 b8 45 ff
	ff		 mov	 DWORD PTR _mover$[ebp+15476], eax
  00632	e8 00 00 00 00	 call	 ?GetInt@CQuery@@QAEHPAD@Z ; CQuery::GetInt

; 258  : 	mover.SetPetId( dwPetId );
; 259  : 
; 260  : #ifdef __EXP_ANGELEXP_LOG
; 261  : 	mover.m_nExpLog			= qry->GetInt( "m_nExpLog" );

  00637	68 00 00 00 00	 push	 OFFSET ??_C@_09OAIDIHCC@m_nExpLog@
  0063c	8b cf		 mov	 ecx, edi
  0063e	89 85 c4 45 ff
	ff		 mov	 DWORD PTR _mover$[ebp+15488], eax
  00644	e8 00 00 00 00	 call	 ?GetInt@CQuery@@QAEHPAD@Z ; CQuery::GetInt

; 262  : 	mover.m_nAngelExpLog	= qry->GetInt( "m_nAngelExpLog" );

  00649	68 00 00 00 00	 push	 OFFSET ??_C@_0P@KIBMOJIA@m_nAngelExpLog@
  0064e	8b cf		 mov	 ecx, edi
  00650	89 85 cc 45 ff
	ff		 mov	 DWORD PTR _mover$[ebp+15496], eax
  00656	e8 00 00 00 00	 call	 ?GetInt@CQuery@@QAEHPAD@Z ; CQuery::GetInt

; 263  : #endif // __EXP_ANGELEXP_LOG
; 264  : 
; 265  : #ifdef __EVENTLUA_COUPON
; 266  : 	mover.m_nCoupon = qry->GetInt( "m_nCoupon" );

  0065b	68 00 00 00 00	 push	 OFFSET ??_C@_09DOFPPDBL@m_nCoupon@
  00660	8b cf		 mov	 ecx, edi
  00662	89 85 d0 45 ff
	ff		 mov	 DWORD PTR _mover$[ebp+15500], eax
  00668	e8 00 00 00 00	 call	 ?GetInt@CQuery@@QAEHPAD@Z ; CQuery::GetInt

; 267  : #endif // __EVENTLUA_COUPON
; 268  : 
; 269  : #ifdef __LAYER_1015
; 270  : 	mover.SetLayer( qry->GetInt( "m_nLayer" ) );

  0066d	68 00 00 00 00	 push	 OFFSET ??_C@_08HKLPDCDD@m_nLayer@
  00672	8b cf		 mov	 ecx, edi
  00674	89 85 d4 45 ff
	ff		 mov	 DWORD PTR _mover$[ebp+15504], eax
  0067a	e8 00 00 00 00	 call	 ?GetInt@CQuery@@QAEHPAD@Z ; CQuery::GetInt

; 274  : 	mover.SetCampusPoint( qry->GetInt( "m_nCampusPoint" ) );

  0067f	68 00 00 00 00	 push	 OFFSET ??_C@_0P@HAGDFNOH@m_nCampusPoint@
  00684	8b cf		 mov	 ecx, edi
; File C:\IAGOS\server\v18\Source\Source\_Network\Objects\Obj.h

; 91   : 	void	SetLayer( int nLayer )	{	m_nLayer	= nLayer;	}

  00686	89 85 70 09 ff
	ff		 mov	 DWORD PTR _mover$[ebp+44], eax
; File C:\IAGOS\server\v18\Source\Source\_Database\DbManagerJoin.cpp

; 274  : 	mover.SetCampusPoint( qry->GetInt( "m_nCampusPoint" ) );

  0068c	e8 00 00 00 00	 call	 ?GetInt@CQuery@@QAEHPAD@Z ; CQuery::GetInt

; 275  : 	mover.SetCampusId( qry->GetInt( "idCampus" ) );

  00691	68 00 00 00 00	 push	 OFFSET ??_C@_08FHGJFCBK@idCampus@
  00696	8b cf		 mov	 ecx, edi
; File C:\IAGOS\server\v18\Source\Source\_Network\Objects\Obj.h

; 1149 : 	void	SetCampusPoint( int nMPPoint )		{	m_nCampusPoint = nMPPoint;	}

  00698	89 85 58 4a ff
	ff		 mov	 DWORD PTR _mover$[ebp+16660], eax
; File C:\IAGOS\server\v18\Source\Source\_Database\DbManagerJoin.cpp

; 275  : 	mover.SetCampusId( qry->GetInt( "idCampus" ) );

  0069e	e8 00 00 00 00	 call	 ?GetInt@CQuery@@QAEHPAD@Z ; CQuery::GetInt

; 279  : 	mover.m_nRestPoint = qry->GetInt( "m_nRestPoint" );

  006a3	68 00 00 00 00	 push	 OFFSET ??_C@_0N@DMCMIBPB@m_nRestPoint@
  006a8	8b cf		 mov	 ecx, edi
; File C:\IAGOS\server\v18\Source\Source\_Network\Objects\Obj.h

; 1147 : 	void	SetCampusId( u_long idCampus )	{	m_idCampus = idCampus;	}

  006aa	89 85 54 4a ff
	ff		 mov	 DWORD PTR _mover$[ebp+16656], eax
; File C:\IAGOS\server\v18\Source\Source\_Database\DbManagerJoin.cpp

; 279  : 	mover.m_nRestPoint = qry->GetInt( "m_nRestPoint" );

  006b0	e8 00 00 00 00	 call	 ?GetInt@CQuery@@QAEHPAD@Z ; CQuery::GetInt
; File C:\Program Files (x86)\Windows Kits\10\Include\10.0.26100.0\ucrt\time.h

; 428  :             return _time32(_Time);

  006b5	6a 00		 push	 0
; File C:\IAGOS\server\v18\Source\Source\_Database\DbManagerJoin.cpp

; 279  : 	mover.m_nRestPoint = qry->GetInt( "m_nRestPoint" );

  006b7	89 85 5c 4a ff
	ff		 mov	 DWORD PTR _mover$[ebp+16664], eax
; File C:\Program Files (x86)\Windows Kits\10\Include\10.0.26100.0\ucrt\time.h

; 428  :             return _time32(_Time);

  006bd	e8 00 00 00 00	 call	 __time32
  006c2	83 c4 04	 add	 esp, 4
; File C:\IAGOS\server\v18\Source\Source\_Database\DbManagerJoin.cpp

; 280  : 	mover.m_tLogOut = time_null() - qry->GetInt( "m_LogOutTime" );

  006c5	8b cf		 mov	 ecx, edi
; File C:\IAGOS\server\v18\Source\Source\_network\CmnHdr.h

; 699  : 	return time( NULL );

  006c7	8b f0		 mov	 esi, eax
; File C:\IAGOS\server\v18\Source\Source\_Database\DbManagerJoin.cpp

; 280  : 	mover.m_tLogOut = time_null() - qry->GetInt( "m_LogOutTime" );

  006c9	68 00 00 00 00	 push	 OFFSET ??_C@_0N@DOGBIIJB@m_LogOutTime@
  006ce	e8 00 00 00 00	 call	 ?GetInt@CQuery@@QAEHPAD@Z ; CQuery::GetInt
  006d3	2b f0		 sub	 esi, eax

; 281  : #endif // __GUILD_HOUSE
; 282  : 
; 283  : 	if( !qry->MoreResults() )

  006d5	8b cf		 mov	 ecx, edi
  006d7	89 b5 60 4a ff
	ff		 mov	 DWORD PTR _mover$[ebp+16668], esi
  006dd	e8 00 00 00 00	 call	 ?MoreResults@CQuery@@QAEHXZ ; CQuery::MoreResults
  006e2	85 c0		 test	 eax, eax
  006e4	0f 84 02 06 00
	00		 je	 $LN136@Join

; 284  : 	{
; 285  : 		FreeRequest( lpDBOP );
; 286  : 		return;
; 287  : 	}
; 288  : 	while( qry->Fetch() )

  006ea	8b cf		 mov	 ecx, edi
  006ec	e8 00 00 00 00	 call	 ?Fetch@CQuery@@QAEHXZ	; CQuery::Fetch
  006f1	8b b5 14 c9 fe
	ff		 mov	 esi, DWORD PTR _this$GSCopy$1$[ebp]
  006f7	85 c0		 test	 eax, eax
  006f9	74 6e		 je	 SHORT $LN125@Join
  006fb	0f b6 85 2f c9
	fe ff		 movzx	 eax, BYTE PTR _nSlot$1$[ebp]
  00702	89 85 1c c9 fe
	ff		 mov	 DWORD PTR tv1067[ebp], eax
  00708	0f 1f 84 00 00
	00 00 00	 npad	 8
$LL2@Join:

; 289  : 	{
; 290  : 		int nPlayerSlot = qry->GetInt( "playerslot" );

  00710	68 00 00 00 00	 push	 OFFSET ??_C@_0L@BLIMKIB@playerslot@
  00715	8b cf		 mov	 ecx, edi
  00717	e8 00 00 00 00	 call	 ?GetInt@CQuery@@QAEHPAD@Z ; CQuery::GetInt
  0071c	89 85 20 c9 fe
	ff		 mov	 DWORD PTR _nPlayerSlot$1$[ebp], eax

; 291  : 		if( nSlot == nPlayerSlot )

  00722	39 85 1c c9 fe
	ff		 cmp	 DWORD PTR tv1067[ebp], eax
  00728	75 16		 jne	 SHORT $LN20@Join

; 292  : 			qry->GetStr( "m_BankPw", szBankPass );

  0072a	8d 45 e8	 lea	 eax, DWORD PTR _szBankPass$[ebp]
  0072d	8b cf		 mov	 ecx, edi
  0072f	50		 push	 eax
  00730	68 00 00 00 00	 push	 OFFSET ??_C@_08OOAHKMMI@m_BankPw@
  00735	e8 00 00 00 00	 call	 ?GetStr@CQuery@@QAEXPAD0@Z ; CQuery::GetStr
  0073a	8b 85 20 c9 fe
	ff		 mov	 eax, DWORD PTR _nPlayerSlot$1$[ebp]
$LN20@Join:

; 293  : 		//GetBank( &mover, qry, lpDBOP, nPlayerSlot );
; 294  : 		// mirchang_100416 VERIFYSTRING use return value
; 295  : 		if( GetBank( &mover, qry, lpDBOP, nPlayerSlot ) == FALSE )

  00740	50		 push	 eax
  00741	ff b5 28 c9 fe
	ff		 push	 DWORD PTR _lpDBOP$GSCopy$1$[ebp]
  00747	8d 85 44 09 ff
	ff		 lea	 eax, DWORD PTR _mover$[ebp]
  0074d	8b ce		 mov	 ecx, esi
  0074f	57		 push	 edi
  00750	50		 push	 eax
  00751	e8 00 00 00 00	 call	 ?GetBank@CDbManager@@QAEHPAVCMover@@PAVCQuery@@PAUtagDB_OVERLAPPED_PLUS@@H@Z ; CDbManager::GetBank
  00756	85 c0		 test	 eax, eax
  00758	0f 84 a1 05 00
	00		 je	 $LN16@Join

; 284  : 	{
; 285  : 		FreeRequest( lpDBOP );
; 286  : 		return;
; 287  : 	}
; 288  : 	while( qry->Fetch() )

  0075e	8b cf		 mov	 ecx, edi
  00760	e8 00 00 00 00	 call	 ?Fetch@CQuery@@QAEHXZ	; CQuery::Fetch
  00765	85 c0		 test	 eax, eax
  00767	75 a7		 jne	 SHORT $LL2@Join
$LN125@Join:

; 296  : 		{
; 297  : 			return;
; 298  : 		}
; 299  : 		// mirchang_100416
; 300  : 	}
; 301  : 
; 302  : #if __VER >= 11 // __SYS_POCKET
; 303  : 	if( qry->MoreResults() )

  00769	8b cf		 mov	 ecx, edi
  0076b	e8 00 00 00 00	 call	 ?MoreResults@CQuery@@QAEHXZ ; CQuery::MoreResults
  00770	85 c0		 test	 eax, eax
  00772	74 34		 je	 SHORT $LN5@Join

; 304  : 	{
; 305  : 		while( qry->Fetch() )

  00774	8b cf		 mov	 ecx, edi
  00776	e8 00 00 00 00	 call	 ?Fetch@CQuery@@QAEHXZ	; CQuery::Fetch
  0077b	85 c0		 test	 eax, eax
  0077d	74 29		 je	 SHORT $LN5@Join
  0077f	90		 npad	 1
$LL4@Join:

; 306  : 		{
; 307  : 			//GetPocket( &mover, qry, lpDBOP );
; 308  : 			// mirchang_100416 VERIFYSTRING use return value
; 309  : 			if( GetPocket( &mover, qry, lpDBOP ) == FALSE )

  00780	ff b5 28 c9 fe
	ff		 push	 DWORD PTR _lpDBOP$GSCopy$1$[ebp]
  00786	8d 85 44 09 ff
	ff		 lea	 eax, DWORD PTR _mover$[ebp]
  0078c	8b ce		 mov	 ecx, esi
  0078e	57		 push	 edi
  0078f	50		 push	 eax
  00790	e8 00 00 00 00	 call	 ?GetPocket@CDbManager@@QAEHPAVCMover@@PAVCQuery@@PAUtagDB_OVERLAPPED_PLUS@@@Z ; CDbManager::GetPocket
  00795	85 c0		 test	 eax, eax
  00797	0f 84 62 05 00
	00		 je	 $LN16@Join

; 304  : 	{
; 305  : 		while( qry->Fetch() )

  0079d	8b cf		 mov	 ecx, edi
  0079f	e8 00 00 00 00	 call	 ?Fetch@CQuery@@QAEHXZ	; CQuery::Fetch
  007a4	85 c0		 test	 eax, eax
  007a6	75 d8		 jne	 SHORT $LL4@Join
$LN5@Join:

; 310  : 			{
; 311  : 				return;
; 312  : 			}
; 313  : 			// mirchang_100416
; 314  : 		}
; 315  : 	}
; 316  : #endif	// __SYS_POCKET
; 317  : 
; 318  : 	GetMyPartyName( qry, lpDBOP, mover.m_idPlayer, szPartyName );

  007a8	8d 45 b4	 lea	 eax, DWORD PTR _szPartyName$[ebp]
  007ab	8b ce		 mov	 ecx, esi
  007ad	50		 push	 eax
  007ae	ff b5 d4 09 ff
	ff		 push	 DWORD PTR _mover$[ebp+144]
  007b4	ff b5 28 c9 fe
	ff		 push	 DWORD PTR _lpDBOP$GSCopy$1$[ebp]
  007ba	57		 push	 edi
  007bb	e8 00 00 00 00	 call	 ?GetMyPartyName@CDbManager@@QAEHPAVCQuery@@PAUtagDB_OVERLAPPED_PLUS@@KPAD@Z ; CDbManager::GetMyPartyName

; 319  : 	int nTags = SelectTag( qry, lpDBOP, mover.m_idPlayer, tags );

  007c0	8d 85 94 4a ff
	ff		 lea	 eax, DWORD PTR _tags$[ebp]
  007c6	8b ce		 mov	 ecx, esi
  007c8	50		 push	 eax
  007c9	ff b5 d4 09 ff
	ff		 push	 DWORD PTR _mover$[ebp+144]
  007cf	ff b5 28 c9 fe
	ff		 push	 DWORD PTR _lpDBOP$GSCopy$1$[ebp]
  007d5	57		 push	 edi
  007d6	e8 00 00 00 00	 call	 ?SelectTag@CDbManager@@AAEHPAVCQuery@@PAUtagDB_OVERLAPPED_PLUS@@KPAUTAG_ENTRY@@@Z ; CDbManager::SelectTag
  007db	89 85 f8 c8 fe
	ff		 mov	 DWORD PTR _nTags$1$[ebp], eax

; 320  : #ifdef __RT_1025
; 321  : 	LoadMessenger( &mover, qry );

  007e1	8b ce		 mov	 ecx, esi
  007e3	57		 push	 edi
  007e4	8d 85 44 09 ff
	ff		 lea	 eax, DWORD PTR _mover$[ebp]
  007ea	50		 push	 eax
  007eb	e8 00 00 00 00	 call	 ?LoadMessenger@CDbManager@@AAEXPAVCMover@@PAVCQuery@@@Z ; CDbManager::LoadMessenger

; 322  : #else	// __RT_1025
; 323  : 	GetMessengerFriend( &mover, qry, lpDBOP );
; 324  : #endif	// __RT_1025
; 325  : 
; 326  : #if __VER >= 13 // __HONORABLE_TITLE			// ´ŢŔÎ
; 327  : 	GetHonor( &mover, qry, lpDBOP );

  007f0	ff b5 28 c9 fe
	ff		 push	 DWORD PTR _lpDBOP$GSCopy$1$[ebp]
  007f6	8d 85 44 09 ff
	ff		 lea	 eax, DWORD PTR _mover$[ebp]
  007fc	8b ce		 mov	 ecx, esi
  007fe	57		 push	 edi
  007ff	50		 push	 eax
  00800	e8 00 00 00 00	 call	 ?GetHonor@CDbManager@@QAEXPAVCMover@@PAVCQuery@@PAUtagDB_OVERLAPPED_PLUS@@@Z ; CDbManager::GetHonor

; 328  : #endif	// __HONORABLE_TITLE			// ´ŢŔÎ
; 329  : 
; 330  : 	if( !GetSkill( &mover, qry, lpDBOP ) )

  00805	ff b5 28 c9 fe
	ff		 push	 DWORD PTR _lpDBOP$GSCopy$1$[ebp]
  0080b	8d 85 44 09 ff
	ff		 lea	 eax, DWORD PTR _mover$[ebp]
  00811	8b ce		 mov	 ecx, esi
  00813	57		 push	 edi
  00814	50		 push	 eax
  00815	e8 00 00 00 00	 call	 ?GetSkill@CDbManager@@QAEHPAVCMover@@PAVCQuery@@PAUtagDB_OVERLAPPED_PLUS@@@Z ; CDbManager::GetSkill
  0081a	85 c0		 test	 eax, eax
  0081c	0f 84 d0 04 00
	00		 je	 $LN129@Join
; File C:\IAGOS\server\v18\Source\Source\_Network\Mcl\Include\CMclCritSec.h

; 33   : 		::EnterCriticalSection( &m_CritSec );

  00822	8d 46 2c	 lea	 eax, DWORD PTR [esi+44]
  00825	50		 push	 eax
  00826	ff 15 00 00 00
	00		 call	 DWORD PTR __imp__EnterCriticalSection@4
; File C:\IAGOS\server\v18\Source\Source\_Database\DbManagerJoin.cpp

; 339  : 	ACCOUNT_CACHE* pCache	= m_AccountCacheMgr.GetAccount( lpDBOP->AccountInfo.szAccount, &bCacheHit ); 

  0082c	8d 85 04 c9 fe
	ff		 lea	 eax, DWORD PTR _bCacheHit$[ebp]
  00832	c7 85 04 c9 fe
	ff 00 00 00 00	 mov	 DWORD PTR _bCacheHit$[ebp], 0
  0083c	50		 push	 eax
  0083d	ff b5 24 c9 fe
	ff		 push	 DWORD PTR tv1079[ebp]
  00843	8d 4e 10	 lea	 ecx, DWORD PTR [esi+16]
  00846	c7 85 1c c9 fe
	ff 00 00 00 00	 mov	 DWORD PTR _bExists$1$[ebp], 0
  00850	e8 00 00 00 00	 call	 ?GetAccount@CAccountCacheMgr@@QAEPAUACCOUNT_CACHE@@PBDPAH@Z ; CAccountCacheMgr::GetAccount

; 340  : 	if( bCacheHit  )

  00855	83 bd 04 c9 fe
	ff 00		 cmp	 DWORD PTR _bCacheHit$[ebp], 0
  0085c	89 85 18 c9 fe
	ff		 mov	 DWORD PTR _pCache$1$[ebp], eax
  00862	0f 84 a3 00 00
	00		 je	 $LN25@Join

; 341  : 	{
; 342  : 		if( CanJoin( lpDBOP->AccountInfo.szAccount, pCache ) == FALSE )

  00868	50		 push	 eax
  00869	ff b5 24 c9 fe
	ff		 push	 DWORD PTR tv1079[ebp]
  0086f	8b ce		 mov	 ecx, esi
  00871	e8 00 00 00 00	 call	 ?CanJoin@CDbManager@@AAEHPBDPAUACCOUNT_CACHE@@@Z ; CDbManager::CanJoin
  00876	85 c0		 test	 eax, eax
  00878	75 10		 jne	 SHORT $LN27@Join
; File C:\IAGOS\server\v18\Source\Source\_Network\Mcl\Include\CMclCritSec.h

; 39   : 		::LeaveCriticalSection( &m_CritSec );

  0087a	8d 46 2c	 lea	 eax, DWORD PTR [esi+44]
  0087d	50		 push	 eax
  0087e	a1 00 00 00 00	 mov	 eax, DWORD PTR __imp__LeaveCriticalSection@4
  00883	ff d0		 call	 eax
; File C:\IAGOS\server\v18\Source\Source\_Database\DbManagerJoin.cpp

; 345  : 			FreeRequest( lpDBOP );

  00885	e9 68 04 00 00	 jmp	 $LN129@Join
$LN27@Join:

; 346  : 			return;
; 347  : 		}
; 348  : 		if( pCache->pMover[nSlot] == NULL )

  0088a	0f b6 85 2f c9
	fe ff		 movzx	 eax, BYTE PTR _nSlot$1$[ebp]
  00891	8b 95 18 c9 fe
	ff		 mov	 edx, DWORD PTR _pCache$1$[ebp]
  00897	89 85 20 c9 fe
	ff		 mov	 DWORD PTR tv970[ebp], eax
  0089d	8b 44 82 04	 mov	 eax, DWORD PTR [edx+eax*4+4]
  008a1	89 85 24 c9 fe
	ff		 mov	 DWORD PTR $T4[ebp], eax
  008a7	85 c0		 test	 eax, eax
  008a9	75 54		 jne	 SHORT $LN28@Join

; 349  : 			pCache->pMover[nSlot]	= new CMover;

  008ab	68 50 41 00 00	 push	 16720			; 00004150H
  008b0	e8 00 00 00 00	 call	 ??2CMover@@SAPAXI@Z	; CMover::operator new
  008b5	83 c4 04	 add	 esp, 4
  008b8	89 85 24 c9 fe
	ff		 mov	 DWORD PTR $T3[ebp], eax
  008be	c6 45 fc 02	 mov	 BYTE PTR __$EHRec$[ebp+8], 2
  008c2	85 c0		 test	 eax, eax
  008c4	74 1f		 je	 SHORT $LN40@Join
  008c6	8b c8		 mov	 ecx, eax
  008c8	e8 00 00 00 00	 call	 ??0CMover@@QAE@XZ	; CMover::CMover
  008cd	8b 95 18 c9 fe
	ff		 mov	 edx, DWORD PTR _pCache$1$[ebp]
  008d3	8b 8d 20 c9 fe
	ff		 mov	 ecx, DWORD PTR tv970[ebp]
  008d9	89 85 24 c9 fe
	ff		 mov	 DWORD PTR $T4[ebp], eax
  008df	89 44 8a 04	 mov	 DWORD PTR [edx+ecx*4+4], eax
  008e3	eb 6b		 jmp	 SHORT $LN143@Join
$LN40@Join:
  008e5	8b 95 18 c9 fe
	ff		 mov	 edx, DWORD PTR _pCache$1$[ebp]
  008eb	33 c0		 xor	 eax, eax
  008ed	8b 8d 20 c9 fe
	ff		 mov	 ecx, DWORD PTR tv970[ebp]
  008f3	89 85 24 c9 fe
	ff		 mov	 DWORD PTR $T4[ebp], eax
  008f9	89 44 8a 04	 mov	 DWORD PTR [edx+ecx*4+4], eax
  008fd	eb 51		 jmp	 SHORT $LN143@Join
$LN28@Join:

; 350  : 		else
; 351  : 			bExists		= TRUE;		// Äł˝Ăżˇ ł˛ľĆŔÖ´Â Äł¸ŻĹÍ¸é Äł˝Ă Á¤ş¸¸¦ »çżëÇŃ´Ů

  008ff	c7 85 1c c9 fe
	ff 01 00 00 00	 mov	 DWORD PTR _bExists$1$[ebp], 1

; 352  : 	}

  00909	eb 49		 jmp	 SHORT $LN26@Join
$LN25@Join:

; 353  : 	else
; 354  : 		pCache->pMover[nSlot] = new CMover;

  0090b	68 50 41 00 00	 push	 16720			; 00004150H
  00910	e8 00 00 00 00	 call	 ??2CMover@@SAPAXI@Z	; CMover::operator new
  00915	83 c4 04	 add	 esp, 4
  00918	89 85 20 c9 fe
	ff		 mov	 DWORD PTR $T2[ebp], eax
  0091e	c6 45 fc 03	 mov	 BYTE PTR __$EHRec$[ebp+8], 3
  00922	85 c0		 test	 eax, eax
  00924	74 11		 je	 SHORT $LN42@Join
  00926	8b c8		 mov	 ecx, eax
  00928	e8 00 00 00 00	 call	 ??0CMover@@QAE@XZ	; CMover::CMover
  0092d	8b c8		 mov	 ecx, eax
  0092f	89 85 24 c9 fe
	ff		 mov	 DWORD PTR $T4[ebp], eax
  00935	eb 08		 jmp	 SHORT $LN43@Join
$LN42@Join:
  00937	33 c9		 xor	 ecx, ecx
  00939	89 8d 24 c9 fe
	ff		 mov	 DWORD PTR $T4[ebp], ecx
$LN43@Join:
  0093f	0f b6 85 2f c9
	fe ff		 movzx	 eax, BYTE PTR _nSlot$1$[ebp]
  00946	8b 95 18 c9 fe
	ff		 mov	 edx, DWORD PTR _pCache$1$[ebp]
  0094c	89 4c 82 04	 mov	 DWORD PTR [edx+eax*4+4], ecx
$LN143@Join:

; 355  : 	
; 356  : 	CMover* pMover	= pCache->pMover[nSlot];
; 357  : 
; 358  : #if __VER >= 11 // __MA_VER11_05	// ÄÉ¸ŻĹÍ şŔŔÎ °Ĺ·ˇ ±â´É world,database,neuz
; 359  : 	if( memcmp( pCache->m_idPlayerBank, mover.m_idPlayerBank, sizeof(u_long) * 3 ) )

  00950	c6 45 fc 01	 mov	 BYTE PTR __$EHRec$[ebp+8], 1
$LN26@Join:
  00954	8d 4a 10	 lea	 ecx, DWORD PTR [edx+16]
  00957	c7 85 20 c9 fe
	ff 08 00 00 00	 mov	 DWORD PTR tv1055[ebp], 8
  00961	8d 95 1c 45 ff
	ff		 lea	 edx, DWORD PTR _mover$[ebp+15320]
$LL133@Join:
  00967	8b 01		 mov	 eax, DWORD PTR [ecx]
  00969	3b 02		 cmp	 eax, DWORD PTR [edx]
  0096b	75 13		 jne	 SHORT $LN132@Join
  0096d	83 c1 04	 add	 ecx, 4
  00970	83 c2 04	 add	 edx, 4
  00973	83 ad 20 c9 fe
	ff 04		 sub	 DWORD PTR tv1055[ebp], 4
  0097a	73 eb		 jae	 SHORT $LL133@Join
  0097c	33 c0		 xor	 eax, eax
  0097e	eb 27		 jmp	 SHORT $LN135@Join
$LN132@Join:
  00980	8a 01		 mov	 al, BYTE PTR [ecx]
  00982	3a 02		 cmp	 al, BYTE PTR [edx]
  00984	75 1c		 jne	 SHORT $LN134@Join
  00986	8a 41 01	 mov	 al, BYTE PTR [ecx+1]
  00989	3a 42 01	 cmp	 al, BYTE PTR [edx+1]
  0098c	75 14		 jne	 SHORT $LN134@Join
  0098e	8a 41 02	 mov	 al, BYTE PTR [ecx+2]
  00991	3a 42 02	 cmp	 al, BYTE PTR [edx+2]
  00994	75 0c		 jne	 SHORT $LN134@Join
  00996	8a 41 03	 mov	 al, BYTE PTR [ecx+3]
  00999	3a 42 03	 cmp	 al, BYTE PTR [edx+3]
  0099c	75 04		 jne	 SHORT $LN134@Join
  0099e	33 c0		 xor	 eax, eax
  009a0	eb 05		 jmp	 SHORT $LN135@Join
$LN134@Join:
  009a2	1b c0		 sbb	 eax, eax
  009a4	83 c8 01	 or	 eax, 1
$LN135@Join:
  009a7	8b 95 08 c9 fe
	ff		 mov	 edx, DWORD PTR _bRefresh$2$[ebp]
  009ad	85 c0		 test	 eax, eax
  009af	b9 01 00 00 00	 mov	 ecx, 1
  009b4	0f 45 d1	 cmovne	 edx, ecx

; 360  : 	{
; 361  : 		bRefresh = TRUE;
; 362  : 	}
; 363  : 	if( dwPlayTime == 0 || pMover->m_idPlayer != mover.m_idPlayer )	

  009b7	83 bd 10 c9 fe
	ff 00		 cmp	 DWORD PTR _dwPlayTime$1$[ebp], 0
  009be	89 95 08 c9 fe
	ff		 mov	 DWORD PTR _bRefresh$2$[ebp], edx
  009c4	74 14		 je	 SHORT $LN127@Join
  009c6	8b 8d 24 c9 fe
	ff		 mov	 ecx, DWORD PTR $T4[ebp]
  009cc	8b 81 90 00 00
	00		 mov	 eax, DWORD PTR [ecx+144]
  009d2	3b 85 d4 09 ff
	ff		 cmp	 eax, DWORD PTR _mover$[ebp+144]
  009d8	74 0b		 je	 SHORT $LN31@Join
$LN127@Join:

; 364  : 		bRefresh = TRUE;

  009da	ba 01 00 00 00	 mov	 edx, 1
  009df	89 95 08 c9 fe
	ff		 mov	 DWORD PTR _bRefresh$2$[ebp], edx
$LN31@Join:

; 365  : #endif // __MA_VER11_05	// ÄÉ¸ŻĹÍ şŔŔÎ °Ĺ·ˇ ±â´É world,database,neuz
; 366  : 
; 367  : 
; 368  : 	// ĂłŔ˝ Á˘ĽÓÇĎ´Â °čÁ¤ŔĚ°ĹłŞ »ő·Î°íÄ§ŔĚ ĽłÁ¤µÇľî ŔÖ´Â
; 369  : 	// Äł¸ŻĹÍŔÇ °ćżě ľîÄ«żîĆ® Äł˝Ăżˇ ŔşÇŕŔ» şą»çÇŃ´Ů
; 370  : 	if( !bCacheHit || bRefresh )

  009e5	83 bd 04 c9 fe
	ff 00		 cmp	 DWORD PTR _bCacheHit$[ebp], 0
  009ec	74 04		 je	 SHORT $LN34@Join
  009ee	85 d2		 test	 edx, edx
  009f0	74 69		 je	 SHORT $LN139@Join
$LN34@Join:

; 371  : 	{
; 372  : 		for( int j = 0 ; j < 3 ; j++ )

  009f2	8b bd 18 c9 fe
	ff		 mov	 edi, DWORD PTR _pCache$1$[ebp]
  009f8	8d b5 28 45 ff
	ff		 lea	 esi, DWORD PTR _mover$[ebp+15332]
  009fe	83 c7 1c	 add	 edi, 28			; 0000001cH
  00a01	c7 85 20 c9 fe
	ff 03 00 00 00	 mov	 DWORD PTR tv1075[ebp], 3
  00a0b	0f 1f 44 00 00	 npad	 5
$LL8@Join:

; 373  : 			pCache->m_Bank[j].Copy( mover.m_Bank[j] );

  00a10	56		 push	 esi
  00a11	8b cf		 mov	 ecx, edi
  00a13	e8 00 00 00 00	 call	 ?Copy@?$CItemContainer@VCItemElem@@@@QAEXAAV1@@Z ; CItemContainer<CItemElem>::Copy
  00a18	83 c6 14	 add	 esi, 20			; 00000014H
  00a1b	83 c7 14	 add	 edi, 20			; 00000014H
  00a1e	83 ad 20 c9 fe
	ff 01		 sub	 DWORD PTR tv1075[ebp], 1
  00a25	75 e9		 jne	 SHORT $LL8@Join

; 374  : 		memcpy( pCache->m_idPlayerBank, mover.m_idPlayerBank, sizeof(u_long) * 3 );

  00a27	8b bd 18 c9 fe
	ff		 mov	 edi, DWORD PTR _pCache$1$[ebp]
  00a2d	f3 0f 7e 85 1c
	45 ff ff	 movq	 xmm0, QWORD PTR _mover$[ebp+15320]
  00a35	66 0f d6 47 10	 movq	 QWORD PTR [edi+16], xmm0
  00a3a	8b 85 24 45 ff
	ff		 mov	 eax, DWORD PTR _mover$[ebp+15328]
  00a40	89 47 18	 mov	 DWORD PTR [edi+24], eax

; 375  : 		memcpy( pCache->m_dwGoldBank, mover.m_dwGoldBank, sizeof(DWORD) * 3 );

  00a43	f3 0f 7e 85 64
	45 ff ff	 movq	 xmm0, QWORD PTR _mover$[ebp+15392]
  00a4b	66 0f d6 47 58	 movq	 QWORD PTR [edi+88], xmm0
  00a50	8b 85 6c 45 ff
	ff		 mov	 eax, DWORD PTR _mover$[ebp+15400]
  00a56	89 47 60	 mov	 DWORD PTR [edi+96], eax
  00a59	eb 06		 jmp	 SHORT $LN126@Join
$LN139@Join:

; 365  : #endif // __MA_VER11_05	// ÄÉ¸ŻĹÍ şŔŔÎ °Ĺ·ˇ ±â´É world,database,neuz
; 366  : 
; 367  : 
; 368  : 	// ĂłŔ˝ Á˘ĽÓÇĎ´Â °čÁ¤ŔĚ°ĹłŞ »ő·Î°íÄ§ŔĚ ĽłÁ¤µÇľî ŔÖ´Â
; 369  : 	// Äł¸ŻĹÍŔÇ °ćżě ľîÄ«żîĆ® Äł˝Ăżˇ ŔşÇŕŔ» şą»çÇŃ´Ů
; 370  : 	if( !bCacheHit || bRefresh )

  00a5b	8b bd 18 c9 fe
	ff		 mov	 edi, DWORD PTR _pCache$1$[ebp]
$LN126@Join:
; File C:\IAGOS\server\v18\Source\Source\_Network\Mcl\Include\CMclCritSec.h

; 33   : 		::EnterCriticalSection( &m_CritSec );

  00a61	8b 85 24 c9 fe
	ff		 mov	 eax, DWORD PTR $T4[ebp]
  00a67	05 4c 3c 00 00	 add	 eax, 15436		; 00003c4cH
  00a6c	50		 push	 eax
  00a6d	ff 15 00 00 00
	00		 call	 DWORD PTR __imp__EnterCriticalSection@4
; File C:\IAGOS\server\v18\Source\Source\_Database\DbManagerJoin.cpp

; 381  : 	pMover->Copy( &mover, !bExists || bRefresh );

  00a73	83 bd 1c c9 fe
	ff 00		 cmp	 DWORD PTR _bExists$1$[ebp], 0
  00a7a	74 0d		 je	 SHORT $LN44@Join
  00a7c	83 bd 08 c9 fe
	ff 00		 cmp	 DWORD PTR _bRefresh$2$[ebp], 0
  00a83	75 04		 jne	 SHORT $LN44@Join
  00a85	33 c0		 xor	 eax, eax
  00a87	eb 05		 jmp	 SHORT $LN45@Join
$LN44@Join:
  00a89	b8 01 00 00 00	 mov	 eax, 1
$LN45@Join:
  00a8e	8b 8d 24 c9 fe
	ff		 mov	 ecx, DWORD PTR $T4[ebp]
  00a94	50		 push	 eax
  00a95	8d 85 44 09 ff
	ff		 lea	 eax, DWORD PTR _mover$[ebp]
  00a9b	50		 push	 eax
  00a9c	e8 00 00 00 00	 call	 ?Copy@CMover@@QAEXPAV1@H@Z ; CMover::Copy
  00aa1	8b b5 24 c9 fe
	ff		 mov	 esi, DWORD PTR $T4[ebp]
  00aa7	81 c6 e4 3b 00
	00		 add	 esi, 15332		; 00003be4H
  00aad	c7 85 1c c9 fe
	ff 03 00 00 00	 mov	 DWORD PTR tv1081[ebp], 3
  00ab7	83 c7 1c	 add	 edi, 28			; 0000001cH
  00aba	66 0f 1f 44 00
	00		 npad	 6
$LL11@Join:

; 382  : 	// Äł¸ŻĹÍżˇ ŔşÇŕŔ» şą»çÇŃ´Ů
; 383  : 	for( int j = 0 ; j < 3 ; j++ )
; 384  : 		pMover->m_Bank[j].Copy( pCache->m_Bank[j] );

  00ac0	57		 push	 edi
  00ac1	8b ce		 mov	 ecx, esi
  00ac3	e8 00 00 00 00	 call	 ?Copy@?$CItemContainer@VCItemElem@@@@QAEXAAV1@@Z ; CItemContainer<CItemElem>::Copy
  00ac8	83 c7 14	 add	 edi, 20			; 00000014H
  00acb	83 c6 14	 add	 esi, 20			; 00000014H
  00ace	83 ad 1c c9 fe
	ff 01		 sub	 DWORD PTR tv1081[ebp], 1
  00ad5	75 e9		 jne	 SHORT $LL11@Join

; 385  : 	memcpy( pMover->m_idPlayerBank, pCache->m_idPlayerBank, sizeof(u_long) * 3 );

  00ad7	8b b5 18 c9 fe
	ff		 mov	 esi, DWORD PTR _pCache$1$[ebp]
  00add	8b 8d 24 c9 fe
	ff		 mov	 ecx, DWORD PTR $T4[ebp]
  00ae3	f3 0f 7e 46 10	 movq	 xmm0, QWORD PTR [esi+16]
  00ae8	66 0f d6 81 d8
	3b 00 00	 movq	 QWORD PTR [ecx+15320], xmm0
  00af0	8b 46 18	 mov	 eax, DWORD PTR [esi+24]
  00af3	89 81 e0 3b 00
	00		 mov	 DWORD PTR [ecx+15328], eax

; 386  : 	memcpy( pMover->m_dwGoldBank, pCache->m_dwGoldBank, sizeof(DWORD) * 3 );

  00af9	f3 0f 7e 46 58	 movq	 xmm0, QWORD PTR [esi+88]
  00afe	66 0f d6 81 20
	3c 00 00	 movq	 QWORD PTR [ecx+15392], xmm0
  00b06	8b 46 60	 mov	 eax, DWORD PTR [esi+96]
  00b09	89 81 28 3c 00
	00		 mov	 DWORD PTR [ecx+15400], eax

; 387  : 
; 388  : 	pMover->PeriodTick();

  00b0f	e8 00 00 00 00	 call	 ?PeriodTick@CMover@@QAEXXZ ; CMover::PeriodTick

; 389  : 	// ŔÓ˝Ă şŻĽöżˇ ¸đµç Á¤ş¸¸¦ şą»çÇŃ´Ů.
; 390  : 	// ŔĚ°ÍŔş ¶ôŔĚ ľř´Â »óĹÂżˇĽ­ Äő¸®¸¦ ˝ÇÇŕÇĎ±â Ŕ§ÇŘĽ­ŔĚ´Ů
; 391  : 	mover.Copy( pMover, TRUE );

  00b14	6a 01		 push	 1
  00b16	ff b5 24 c9 fe
	ff		 push	 DWORD PTR $T4[ebp]
  00b1c	8d 8d 44 09 ff
	ff		 lea	 ecx, DWORD PTR _mover$[ebp]
  00b22	e8 00 00 00 00	 call	 ?Copy@CMover@@QAEXPAV1@H@Z ; CMover::Copy
; File C:\IAGOS\server\v18\Source\Source\_Network\Mcl\Include\CMclCritSec.h

; 39   : 		::LeaveCriticalSection( &m_CritSec );

  00b27	8b 85 24 c9 fe
	ff		 mov	 eax, DWORD PTR $T4[ebp]
  00b2d	8b 3d 00 00 00
	00		 mov	 edi, DWORD PTR __imp__LeaveCriticalSection@4
  00b33	05 4c 3c 00 00	 add	 eax, 15436		; 00003c4cH
  00b38	50		 push	 eax
  00b39	ff d7		 call	 edi
; File C:\IAGOS\server\v18\Source\Source\_Database\DbManagerJoin.cpp

; 394  : 	m_AccountCacheMgr.AddAccount( pMover->m_idPlayer, lpDBOP->AccountInfo.szAccount, bCacheHit, pCache );

  00b3b	8b 85 28 c9 fe
	ff		 mov	 eax, DWORD PTR _lpDBOP$GSCopy$1$[ebp]
  00b41	56		 push	 esi
  00b42	ff b5 04 c9 fe
	ff		 push	 DWORD PTR _bCacheHit$[ebp]
  00b48	8b b5 14 c9 fe
	ff		 mov	 esi, DWORD PTR _this$GSCopy$1$[ebp]
  00b4e	83 c0 20	 add	 eax, 32			; 00000020H
  00b51	50		 push	 eax
  00b52	8b 85 24 c9 fe
	ff		 mov	 eax, DWORD PTR $T4[ebp]
  00b58	8d 4e 10	 lea	 ecx, DWORD PTR [esi+16]
  00b5b	ff b0 90 00 00
	00		 push	 DWORD PTR [eax+144]
  00b61	e8 00 00 00 00	 call	 ?AddAccount@CAccountCacheMgr@@QAEXKPBDHPAUACCOUNT_CACHE@@@Z ; CAccountCacheMgr::AddAccount
; File C:\IAGOS\server\v18\Source\Source\_Network\Mcl\Include\CMclCritSec.h

; 39   : 		::LeaveCriticalSection( &m_CritSec );

  00b66	8d 46 2c	 lea	 eax, DWORD PTR [esi+44]
  00b69	50		 push	 eax
  00b6a	ff d7		 call	 edi
; File C:\IAGOS\server\v18\Source\Source\_Database\DbManagerJoin.cpp

; 400  : 	bResult

  00b6c	ff b5 28 c9 fe
	ff		 push	 DWORD PTR _lpDBOP$GSCopy$1$[ebp]
  00b72	8b bd 0c c9 fe
	ff		 mov	 edi, DWORD PTR _qry$GSCopy$1$[ebp]
  00b78	8d 85 44 09 ff
	ff		 lea	 eax, DWORD PTR _mover$[ebp]
  00b7e	ff b5 00 c9 fe
	ff		 push	 DWORD PTR _qrylog$GSCopy$1$[ebp]
  00b84	8b ce		 mov	 ecx, esi
  00b86	ff b5 fc c8 fe
	ff		 push	 DWORD PTR _qry1$GSCopy$1$[ebp]
  00b8c	57		 push	 edi
  00b8d	50		 push	 eax
  00b8e	0f b6 85 2f c9
	fe ff		 movzx	 eax, BYTE PTR _nSlot$1$[ebp]
  00b95	50		 push	 eax
  00b96	e8 00 00 00 00	 call	 ?SendItemtoCharacter@CDbManager@@AAEHHPAVCMover@@PAVCQuery@@11PAUtagDB_OVERLAPPED_PLUS@@@Z ; CDbManager::SendItemtoCharacter

; 401  : 		= SendItemtoCharacter( nSlot, &mover, qry, qry1, qrylog, lpDBOP );
; 402  : 	bResult

  00b9b	ff b5 28 c9 fe
	ff		 push	 DWORD PTR _lpDBOP$GSCopy$1$[ebp]
  00ba1	89 85 0c c9 fe
	ff		 mov	 DWORD PTR _bResult$1$[ebp], eax
  00ba7	8b ce		 mov	 ecx, esi
  00ba9	ff b5 00 c9 fe
	ff		 push	 DWORD PTR _qrylog$GSCopy$1$[ebp]
  00baf	8d 85 44 09 ff
	ff		 lea	 eax, DWORD PTR _mover$[ebp]
  00bb5	ff b5 fc c8 fe
	ff		 push	 DWORD PTR _qry1$GSCopy$1$[ebp]
  00bbb	57		 push	 edi
  00bbc	50		 push	 eax
  00bbd	e8 00 00 00 00	 call	 ?RemoveItemtoCharacter@CDbManager@@AAEHPAVCMover@@PAVCQuery@@11PAUtagDB_OVERLAPPED_PLUS@@@Z ; CDbManager::RemoveItemtoCharacter
  00bc2	85 c0		 test	 eax, eax
  00bc4	75 0c		 jne	 SHORT $LN46@Join
  00bc6	39 85 0c c9 fe
	ff		 cmp	 DWORD PTR _bResult$1$[ebp], eax
  00bcc	75 04		 jne	 SHORT $LN46@Join
  00bce	33 ff		 xor	 edi, edi
  00bd0	eb 05		 jmp	 SHORT $LN47@Join
$LN46@Join:
  00bd2	bf 01 00 00 00	 mov	 edi, 1
$LN47@Join:

; 406  : 	bResult	= mover.RemoveItemIK3()

  00bd7	8d 8d 44 09 ff
	ff		 lea	 ecx, DWORD PTR _mover$[ebp]
  00bdd	e8 00 00 00 00	 call	 ?RemoveItemIK3@CMover@@QAEHXZ ; CMover::RemoveItemIK3
  00be2	85 c0		 test	 eax, eax
  00be4	75 08		 jne	 SHORT $LN128@Join
  00be6	85 ff		 test	 edi, edi
  00be8	0f 84 7b 00 00
	00		 je	 $LN138@Join
$LN128@Join:
; File C:\IAGOS\server\v18\Source\Source\_Network\Mcl\Include\CMclCritSec.h

; 33   : 		::EnterCriticalSection( &m_CritSec );

  00bee	8d 46 2c	 lea	 eax, DWORD PTR [esi+44]
  00bf1	50		 push	 eax
  00bf2	ff 15 00 00 00
	00		 call	 DWORD PTR __imp__EnterCriticalSection@4
; File C:\IAGOS\server\v18\Source\Source\_Database\DbManagerJoin.cpp

; 422  : 		pCache	= m_AccountCacheMgr.Find( lpDBOP->AccountInfo.szAccount );

  00bf8	8b bd 28 c9 fe
	ff		 mov	 edi, DWORD PTR _lpDBOP$GSCopy$1$[ebp]
  00bfe	8d 4e 10	 lea	 ecx, DWORD PTR [esi+16]
  00c01	8d 47 20	 lea	 eax, DWORD PTR [edi+32]
  00c04	50		 push	 eax
  00c05	e8 00 00 00 00	 call	 ?Find@CAccountCacheMgr@@QAEPAUACCOUNT_CACHE@@PBD@Z ; CAccountCacheMgr::Find

; 423  : 		if( pCache )

  00c0a	85 c0		 test	 eax, eax
  00c0c	74 4f		 je	 SHORT $LN37@Join

; 424  : 		{
; 425  : 			pMover	= pCache->pMover[nSlot];

  00c0e	0f b6 8d 2f c9
	fe ff		 movzx	 ecx, BYTE PTR _nSlot$1$[ebp]
  00c15	8b 44 88 04	 mov	 eax, DWORD PTR [eax+ecx*4+4]
  00c19	89 85 0c c9 fe
	ff		 mov	 DWORD PTR _pMover$1$[ebp], eax

; 426  : 			if( pMover )

  00c1f	85 c0		 test	 eax, eax
  00c21	74 3a		 je	 SHORT $LN37@Join
; File C:\IAGOS\server\v18\Source\Source\_Network\Mcl\Include\CMclCritSec.h

; 33   : 		::EnterCriticalSection( &m_CritSec );

  00c23	8d b0 4c 3c 00
	00		 lea	 esi, DWORD PTR [eax+15436]
  00c29	56		 push	 esi
  00c2a	ff 15 00 00 00
	00		 call	 DWORD PTR __imp__EnterCriticalSection@4
; File C:\IAGOS\server\v18\Source\Source\_Database\DbManagerJoin.cpp

; 429  : 				pMover->Copy( &mover, TRUE );

  00c30	8b 8d 0c c9 fe
	ff		 mov	 ecx, DWORD PTR _pMover$1$[ebp]
  00c36	8d 85 44 09 ff
	ff		 lea	 eax, DWORD PTR _mover$[ebp]
  00c3c	6a 01		 push	 1
  00c3e	50		 push	 eax
  00c3f	e8 00 00 00 00	 call	 ?Copy@CMover@@QAEXPAV1@H@Z ; CMover::Copy
; File C:\IAGOS\server\v18\Source\Source\_Network\Mcl\Include\CMclCritSec.h

; 39   : 		::LeaveCriticalSection( &m_CritSec );

  00c44	a1 00 00 00 00	 mov	 eax, DWORD PTR __imp__LeaveCriticalSection@4
  00c49	56		 push	 esi
  00c4a	ff d0		 call	 eax
; File C:\IAGOS\server\v18\Source\Source\_Database\DbManagerJoin.cpp

; 431  : 				OutputDebugString( "bResult: 1" );

  00c4c	68 00 00 00 00	 push	 OFFSET ??_C@_0L@LJLIEKDC@bResult?3?51@
  00c51	ff 15 00 00 00
	00		 call	 DWORD PTR __imp__OutputDebugStringA@4
  00c57	8b b5 14 c9 fe
	ff		 mov	 esi, DWORD PTR _this$GSCopy$1$[ebp]
$LN37@Join:
; File C:\IAGOS\server\v18\Source\Source\_Network\Mcl\Include\CMclCritSec.h

; 39   : 		::LeaveCriticalSection( &m_CritSec );

  00c5d	8d 46 2c	 lea	 eax, DWORD PTR [esi+44]
  00c60	50		 push	 eax
  00c61	ff 15 00 00 00
	00		 call	 DWORD PTR __imp__LeaveCriticalSection@4
; File C:\IAGOS\server\v18\Source\Source\_Database\DbManagerJoin.cpp

; 406  : 	bResult	= mover.RemoveItemIK3()

  00c67	eb 06		 jmp	 SHORT $LN35@Join
$LN138@Join:
  00c69	8b bd 28 c9 fe
	ff		 mov	 edi, DWORD PTR _lpDBOP$GSCopy$1$[ebp]
$LN35@Join:

; 432  : 			}
; 433  : 		}
; 434  : 		m_AddRemoveLock.Leave();
; 435  : 	}
; 436  : 	
; 437  : 	PutExpLog( qrylog, &mover, 'I' );

  00c6f	6a 49		 push	 73			; 00000049H
  00c71	8d 85 44 09 ff
	ff		 lea	 eax, DWORD PTR _mover$[ebp]
  00c77	8b ce		 mov	 ecx, esi
  00c79	50		 push	 eax
  00c7a	ff b5 00 c9 fe
	ff		 push	 DWORD PTR _qrylog$GSCopy$1$[ebp]
  00c80	e8 00 00 00 00	 call	 ?PutExpLog@CDbManager@@AAEXPAVCQuery@@PAVCMover@@D@Z ; CDbManager::PutExpLog

; 438  : 	SendJoin( &mover, lpDBOP, dwAuthKey, dwBillingClass, szPartyName, szBankPass, dwPlayTime, dwFlyTime, nMaximumLevel, nTags, tags, szTimeGuild );

  00c85	8d 45 d8	 lea	 eax, DWORD PTR _szTimeGuild$[ebp]
  00c88	8b ce		 mov	 ecx, esi
  00c8a	50		 push	 eax
  00c8b	8d 85 94 4a ff
	ff		 lea	 eax, DWORD PTR _tags$[ebp]
  00c91	50		 push	 eax
  00c92	ff b5 f8 c8 fe
	ff		 push	 DWORD PTR _nTags$1$[ebp]
  00c98	8d 45 e8	 lea	 eax, DWORD PTR _szBankPass$[ebp]
  00c9b	ff b5 f4 c8 fe
	ff		 push	 DWORD PTR _nMaximumLevel$1$[ebp]
  00ca1	6a 00		 push	 0
  00ca3	ff b5 10 c9 fe
	ff		 push	 DWORD PTR _dwPlayTime$1$[ebp]
  00ca9	50		 push	 eax
  00caa	8d 45 b4	 lea	 eax, DWORD PTR _szPartyName$[ebp]
  00cad	50		 push	 eax
  00cae	6a 00		 push	 0
  00cb0	ff b5 f0 c8 fe
	ff		 push	 DWORD PTR _dwAuthKey$[ebp]
  00cb6	8d 85 44 09 ff
	ff		 lea	 eax, DWORD PTR _mover$[ebp]
  00cbc	57		 push	 edi
  00cbd	50		 push	 eax
  00cbe	e8 00 00 00 00	 call	 ?SendJoin@CDbManager@@QAEXPAVCMover@@PAUtagDB_OVERLAPPED_PLUS@@KKPBD2KKHHPAUTAG_ENTRY@@2@Z ; CDbManager::SendJoin

; 439  : 	g_dpCoreSrvr.SendMemberTime( mover.m_idPlayer, szTimeGuild );

  00cc3	8d 45 d8	 lea	 eax, DWORD PTR _szTimeGuild$[ebp]
  00cc6	b9 00 00 00 00	 mov	 ecx, OFFSET ?g_dpCoreSrvr@@3VCDPCoreSrvr@@A ; g_dpCoreSrvr
  00ccb	50		 push	 eax
  00ccc	ff b5 d4 09 ff
	ff		 push	 DWORD PTR _mover$[ebp+144]
  00cd2	e8 00 00 00 00	 call	 ?SendMemberTime@CDPCoreSrvr@@QAEXKPBD@Z ; CDPCoreSrvr::SendMemberTime

; 440  : 	FreeRequest( lpDBOP );

  00cd7	57		 push	 edi

; 441  : }

  00cd8	8b ce		 mov	 ecx, esi
  00cda	e8 00 00 00 00	 call	 ?FreeRequest@CDbManager@@QAEXPAUtagDB_OVERLAPPED_PLUS@@@Z ; CDbManager::FreeRequest
  00cdf	8d 8d 44 09 ff
	ff		 lea	 ecx, DWORD PTR _mover$[ebp]
  00ce5	e8 00 00 00 00	 call	 ??1CMover@@UAE@XZ	; CMover::~CMover
  00cea	eb 2d		 jmp	 SHORT $LN55@Join
$LN136@Join:

; 281  : #endif // __GUILD_HOUSE
; 282  : 
; 283  : 	if( !qry->MoreResults() )

  00cec	8b b5 14 c9 fe
	ff		 mov	 esi, DWORD PTR _this$GSCopy$1$[ebp]
$LN129@Join:

; 441  : }

  00cf2	ff b5 28 c9 fe
	ff		 push	 DWORD PTR _lpDBOP$GSCopy$1$[ebp]
  00cf8	8b ce		 mov	 ecx, esi
  00cfa	e8 00 00 00 00	 call	 ?FreeRequest@CDbManager@@QAEXPAUtagDB_OVERLAPPED_PLUS@@@Z ; CDbManager::FreeRequest
$LN16@Join:
  00cff	8d 8d 44 09 ff
	ff		 lea	 ecx, DWORD PTR _mover$[ebp]
  00d05	e8 00 00 00 00	 call	 ??1CMover@@UAE@XZ	; CMover::~CMover
  00d0a	eb 0d		 jmp	 SHORT $LN55@Join
$LN54@Join:
  00d0c	ff b5 28 c9 fe
	ff		 push	 DWORD PTR _lpDBOP$GSCopy$1$[ebp]
  00d12	8b ce		 mov	 ecx, esi
  00d14	e8 00 00 00 00	 call	 ?FreeRequest@CDbManager@@QAEXPAUtagDB_OVERLAPPED_PLUS@@@Z ; CDbManager::FreeRequest
$LN55@Join:
  00d19	8d 8d 30 c9 fe
	ff		 lea	 ecx, DWORD PTR _arRead$[ebp]
  00d1f	e8 00 00 00 00	 call	 ??1CAr@@QAE@XZ		; CAr::~CAr
  00d24	8b 4d f4	 mov	 ecx, DWORD PTR __$EHRec$[ebp]
  00d27	64 89 0d 00 00
	00 00		 mov	 DWORD PTR fs:0, ecx
  00d2e	59		 pop	 ecx
  00d2f	5f		 pop	 edi
  00d30	5e		 pop	 esi
  00d31	8b 4d f0	 mov	 ecx, DWORD PTR __$ArrayPad$[ebp]
  00d34	33 cd		 xor	 ecx, ebp
  00d36	e8 00 00 00 00	 call	 @__security_check_cookie@4
  00d3b	8b e5		 mov	 esp, ebp
  00d3d	5d		 pop	 ebp
  00d3e	c2 10 00	 ret	 16			; 00000010H
_TEXT	ENDS
;	COMDAT text$x
text$x	SEGMENT
__unwindfunclet$?Join@CDbManager@@QAEXPAVCQuery@@00PAUtagDB_OVERLAPPED_PLUS@@@Z$0:
  00000	8d 8d 30 c9 fe
	ff		 lea	 ecx, DWORD PTR _arRead$[ebp]
  00006	e9 00 00 00 00	 jmp	 ??1CAr@@QAE@XZ		; CAr::~CAr
__unwindfunclet$?Join@CDbManager@@QAEXPAVCQuery@@00PAUtagDB_OVERLAPPED_PLUS@@@Z$1:
  0000b	8d 8d 44 09 ff
	ff		 lea	 ecx, DWORD PTR _mover$[ebp]
  00011	e9 00 00 00 00	 jmp	 ??1CMover@@UAE@XZ	; CMover::~CMover
__unwindfunclet$?Join@CDbManager@@QAEXPAVCQuery@@00PAUtagDB_OVERLAPPED_PLUS@@@Z$2:
  00016	8b 85 24 c9 fe
	ff		 mov	 eax, DWORD PTR $T3[ebp]
  0001c	50		 push	 eax
  0001d	e8 00 00 00 00	 call	 ??3CMover@@SAXPAX@Z	; CMover::operator delete
  00022	59		 pop	 ecx
  00023	c3		 ret	 0
__unwindfunclet$?Join@CDbManager@@QAEXPAVCQuery@@00PAUtagDB_OVERLAPPED_PLUS@@@Z$3:
  00024	8b 85 20 c9 fe
	ff		 mov	 eax, DWORD PTR $T2[ebp]
  0002a	50		 push	 eax
  0002b	e8 00 00 00 00	 call	 ??3CMover@@SAXPAX@Z	; CMover::operator delete
  00030	59		 pop	 ecx
  00031	c3		 ret	 0
  00032	cc		 int	 3
  00033	cc		 int	 3
  00034	cc		 int	 3
  00035	cc		 int	 3
  00036	cc		 int	 3
__ehhandler$?Join@CDbManager@@QAEXPAVCQuery@@00PAUtagDB_OVERLAPPED_PLUS@@@Z:
  00037	90		 npad	 1
  00038	90		 npad	 1
  00039	8b 54 24 08	 mov	 edx, DWORD PTR [esp+8]
  0003d	8d 42 0c	 lea	 eax, DWORD PTR [edx+12]
  00040	8b 8a f0 c8 fe
	ff		 mov	 ecx, DWORD PTR [edx-79632]
  00046	33 c8		 xor	 ecx, eax
  00048	e8 00 00 00 00	 call	 @__security_check_cookie@4
  0004d	8b 4a fc	 mov	 ecx, DWORD PTR [edx-4]
  00050	33 c8		 xor	 ecx, eax
  00052	e8 00 00 00 00	 call	 @__security_check_cookie@4
  00057	b8 00 00 00 00	 mov	 eax, OFFSET __ehfuncinfo$?Join@CDbManager@@QAEXPAVCQuery@@00PAUtagDB_OVERLAPPED_PLUS@@@Z
  0005c	e9 00 00 00 00	 jmp	 ___CxxFrameHandler3
text$x	ENDS
?Join@CDbManager@@QAEXPAVCQuery@@00PAUtagDB_OVERLAPPED_PLUS@@@Z ENDP ; CDbManager::Join
; Function compile flags: /Ogtp
; File C:\IAGOS\server\v18\Source\Source\_Database\DbManagerJoin.cpp
; File C:\Program Files (x86)\Windows Kits\10\Include\10.0.26100.0\ucrt\time.h
; File C:\IAGOS\server\v18\Source\Source\_Database\DbManagerJoin.cpp
; File C:\IAGOS\server\v18\Source\Source\_Network\Net\Include\DPMng.h
; File C:\IAGOS\server\v18\Source\Source\_Database\DbManagerJoin.cpp
;	COMDAT ?SendJoin@CDbManager@@QAEXPAVCMover@@PAUtagDB_OVERLAPPED_PLUS@@KKPBD2KKHHPAUTAG_ENTRY@@2@Z
_TEXT	SEGMENT
_nBufSize$ = -16640					; size = 4
_tags$GSCopy$1$ = -16636				; size = 4
_szBankPass$GSCopy$1$ = -16632				; size = 4
_szPartyName$GSCopy$1$ = -16628				; size = 4
$T2 = -16624						; size = 4
$T3 = -16624						; size = 4
$T4 = -16620						; size = 4
_dwDataSize$1$ = -16620					; size = 4
_szTimeGuild$GSCopy$1$ = -16620				; size = 4
_ar$ = -16616						; size = 16404
_playAccount$ = -212					; size = 68
_lpOutputString$ = -144					; size = 128
__$ArrayPad$ = -16					; size = 4
__$EHRec$ = -12						; size = 12
_pMover$ = 8						; size = 4
_lpDBOP$ = 12						; size = 4
_dwAuthKey$ = 16					; size = 4
_dwBillingClass$ = 20					; size = 4
_szPartyName$ = 24					; size = 4
_szBankPass$ = 28					; size = 4
_dwPlayTime$ = 32					; size = 4
_dwFlyTime$ = 36					; size = 4
_nMaximumLevel$ = 40					; size = 4
_nTags$ = 44						; size = 4
_tags$ = 48						; size = 4
_szTimeGuild$ = 52					; size = 4
?SendJoin@CDbManager@@QAEXPAVCMover@@PAUtagDB_OVERLAPPED_PLUS@@KKPBD2KKHHPAUTAG_ENTRY@@2@Z PROC ; CDbManager::SendJoin, COMDAT
; _this$ = ecx

; 47   : {

  00000	55		 push	 ebp
  00001	8b ec		 mov	 ebp, esp
  00003	6a ff		 push	 -1
  00005	68 00 00 00 00	 push	 __ehhandler$?SendJoin@CDbManager@@QAEXPAVCMover@@PAUtagDB_OVERLAPPED_PLUS@@KKPBD2KKHHPAUTAG_ENTRY@@2@Z
  0000a	64 a1 00 00 00
	00		 mov	 eax, DWORD PTR fs:0
  00010	50		 push	 eax
  00011	b8 f4 40 00 00	 mov	 eax, 16628		; 000040f4H
  00016	e8 00 00 00 00	 call	 __chkstk
  0001b	a1 00 00 00 00	 mov	 eax, DWORD PTR ___security_cookie
  00020	33 c5		 xor	 eax, ebp
  00022	89 45 f0	 mov	 DWORD PTR __$ArrayPad$[ebp], eax
  00025	53		 push	 ebx
  00026	56		 push	 esi
  00027	57		 push	 edi
  00028	50		 push	 eax
  00029	8d 45 f4	 lea	 eax, DWORD PTR __$EHRec$[ebp]
  0002c	64 a3 00 00 00
	00		 mov	 DWORD PTR fs:0, eax
  00032	8b d9		 mov	 ebx, ecx
  00034	8b 45 18	 mov	 eax, DWORD PTR _szPartyName$[ebp]

; 48   : 	PLAY_ACCOUNT playAccount;
; 49   : 	_tcscpy( playAccount.lpszAccount, lpDBOP->AccountInfo.szAccount );

  00037	8d 95 2c ff ff
	ff		 lea	 edx, DWORD PTR _playAccount$[ebp]
  0003d	8b 7d 0c	 mov	 edi, DWORD PTR _lpDBOP$[ebp]
  00040	8b 75 08	 mov	 esi, DWORD PTR _pMover$[ebp]
  00043	89 85 0c bf ff
	ff		 mov	 DWORD PTR _szPartyName$GSCopy$1$[ebp], eax
  00049	8b 45 1c	 mov	 eax, DWORD PTR _szBankPass$[ebp]
  0004c	89 85 08 bf ff
	ff		 mov	 DWORD PTR _szBankPass$GSCopy$1$[ebp], eax
  00052	8b 45 30	 mov	 eax, DWORD PTR _tags$[ebp]
  00055	89 85 04 bf ff
	ff		 mov	 DWORD PTR _tags$GSCopy$1$[ebp], eax
  0005b	8b 45 34	 mov	 eax, DWORD PTR _szTimeGuild$[ebp]
  0005e	89 85 14 bf ff
	ff		 mov	 DWORD PTR _szTimeGuild$GSCopy$1$[ebp], eax
  00064	8d 47 20	 lea	 eax, DWORD PTR [edi+32]
  00067	2b d0		 sub	 edx, eax
  00069	0f 1f 80 00 00
	00 00		 npad	 7
$LL3@SendJoin:
  00070	8a 08		 mov	 cl, BYTE PTR [eax]
  00072	8d 40 01	 lea	 eax, DWORD PTR [eax+1]
  00075	88 4c 02 ff	 mov	 BYTE PTR [edx+eax-1], cl
  00079	84 c9		 test	 cl, cl
  0007b	75 f3		 jne	 SHORT $LL3@SendJoin

; 50   : 	GetLocalTime( &playAccount.m_stLogin );

  0007d	8d 85 50 ff ff
	ff		 lea	 eax, DWORD PTR _playAccount$[ebp+36]
  00083	50		 push	 eax
  00084	ff 15 00 00 00
	00		 call	 DWORD PTR __imp__GetLocalTime@4

; 51   : #ifdef __BILLING0712
; 52   : 	playAccount.dwBillingClass	= dwBillingClass;
; 53   : #endif	// __BILLING0712
; 54   : 
; 55   : 	BEFORESENDDUAL( ar, PACKETTYPE_JOIN, lpDBOP->dpidCache, lpDBOP->dpidUser );

  0008a	6a 00		 push	 0
  0008c	6a 00		 push	 0
  0008e	8d 8d 18 bf ff
	ff		 lea	 ecx, DWORD PTR _ar$[ebp]
  00094	e8 00 00 00 00	 call	 ??0CAr@@QAE@PAXI@Z	; CAr::CAr
  00099	8d 85 10 bf ff
	ff		 lea	 eax, DWORD PTR $T2[ebp]
  0009f	c7 45 fc 00 00
	00 00		 mov	 DWORD PTR __$EHRec$[ebp+8], 0
  000a6	50		 push	 eax
  000a7	8d 87 b0 00 00
	00		 lea	 eax, DWORD PTR [edi+176]
  000ad	c7 85 10 bf ff
	ff 00 ff 00 00	 mov	 DWORD PTR $T2[ebp], 65280 ; 0000ff00H
  000b7	50		 push	 eax
  000b8	8d 87 ac 00 00
	00		 lea	 eax, DWORD PTR [edi+172]
  000be	50		 push	 eax
  000bf	8d 8d 18 bf ff
	ff		 lea	 ecx, DWORD PTR _ar$[ebp]
  000c5	e8 00 00 00 00	 call	 ??$?6K@CAr@@QAEAAV0@ABK@Z ; CAr::operator<<<unsigned long>
  000ca	8b c8		 mov	 ecx, eax
  000cc	e8 00 00 00 00	 call	 ??$?6K@CAr@@QAEAAV0@ABK@Z ; CAr::operator<<<unsigned long>
  000d1	8b c8		 mov	 ecx, eax
  000d3	e8 00 00 00 00	 call	 ??$?6K@CAr@@QAEAAV0@ABK@Z ; CAr::operator<<<unsigned long>

; 56   : 	ar << dwAuthKey;

  000d8	8d 45 10	 lea	 eax, DWORD PTR _dwAuthKey$[ebp]
  000db	50		 push	 eax
  000dc	8d 8d 18 bf ff
	ff		 lea	 ecx, DWORD PTR _ar$[ebp]
  000e2	e8 00 00 00 00	 call	 ??$?6K@CAr@@QAEAAV0@ABK@Z ; CAr::operator<<<unsigned long>

; 57   : 	ar << playAccount;

  000e7	8d 85 2c ff ff
	ff		 lea	 eax, DWORD PTR _playAccount$[ebp]
  000ed	50		 push	 eax
  000ee	8d 8d 18 bf ff
	ff		 lea	 ecx, DWORD PTR _ar$[ebp]
  000f4	e8 00 00 00 00	 call	 ??$?6UtagPLAY_ACCOUNT@@@CAr@@QAEAAV0@ABUtagPLAY_ACCOUNT@@@Z ; CAr::operator<<<tagPLAY_ACCOUNT>

; 58   : 	ar << pMover->m_dwWorldID;

  000f9	8d 86 44 3c 00
	00		 lea	 eax, DWORD PTR [esi+15428]
  000ff	50		 push	 eax
  00100	8d 8d 18 bf ff
	ff		 lea	 ecx, DWORD PTR _ar$[ebp]
  00106	e8 00 00 00 00	 call	 ??$?6K@CAr@@QAEAAV0@ABK@Z ; CAr::operator<<<unsigned long>

; 59   : #ifdef __LAYER_1015
; 60   : 	ar << pMover->GetLayer();

  0010b	8b 46 2c	 mov	 eax, DWORD PTR [esi+44]
  0010e	8d 8d 18 bf ff
	ff		 lea	 ecx, DWORD PTR _ar$[ebp]
  00114	89 85 10 bf ff
	ff		 mov	 DWORD PTR $T3[ebp], eax
  0011a	8d 85 10 bf ff
	ff		 lea	 eax, DWORD PTR $T3[ebp]
  00120	50		 push	 eax
  00121	e8 00 00 00 00	 call	 ??$?6H@CAr@@QAEAAV0@ABH@Z ; CAr::operator<<<int>

; 61   : #endif	// __LAYER_1015
; 62   : 	ar << pMover->m_dwIndex;

  00126	8d 46 08	 lea	 eax, DWORD PTR [esi+8]
  00129	50		 push	 eax
  0012a	8d 8d 18 bf ff
	ff		 lea	 ecx, DWORD PTR _ar$[ebp]
  00130	e8 00 00 00 00	 call	 ??$?6K@CAr@@QAEAAV0@ABK@Z ; CAr::operator<<<unsigned long>

; 63   : 	pMover->Serialize( ar );			

  00135	8b 06		 mov	 eax, DWORD PTR [esi]
  00137	8d 8d 18 bf ff
	ff		 lea	 ecx, DWORD PTR _ar$[ebp]
  0013d	51		 push	 ecx
  0013e	8b ce		 mov	 ecx, esi
  00140	ff 50 04	 call	 DWORD PTR [eax+4]

; 64   : 	pMover->m_UserTaskBar.Serialize( ar );

  00143	8d 85 18 bf ff
	ff		 lea	 eax, DWORD PTR _ar$[ebp]
  00149	50		 push	 eax
  0014a	8d 8e e8 02 00
	00		 lea	 ecx, DWORD PTR [esi+744]
  00150	e8 00 00 00 00	 call	 ?Serialize@CUserTaskBar@@QAEXAAVCAr@@@Z ; CUserTaskBar::Serialize

; 65   : #ifdef __RT_1025
; 66   : 	pMover->m_RTMessenger.Serialize( ar );

  00155	8d 85 18 bf ff
	ff		 lea	 eax, DWORD PTR _ar$[ebp]
  0015b	50		 push	 eax
  0015c	8d 8e 5c 3b 00
	00		 lea	 ecx, DWORD PTR [esi+15196]
  00162	e8 00 00 00 00	 call	 ?Serialize@CRTMessenger@@QAEHAAVCAr@@@Z ; CRTMessenger::Serialize

; 67   : #else	// __RT_1025
; 68   : 	pMover->m_Messenger.Serialize( ar );
; 69   : #endif	// __RT_1025
; 70   : 	ar.WriteString( szPartyName );

  00167	ff b5 0c bf ff
	ff		 push	 DWORD PTR _szPartyName$GSCopy$1$[ebp]
  0016d	8d 8d 18 bf ff
	ff		 lea	 ecx, DWORD PTR _ar$[ebp]
  00173	e8 00 00 00 00	 call	 ?WriteString@CAr@@QAEXPBD@Z ; CAr::WriteString

; 71   : 	ar.WriteString( szBankPass );

  00178	ff b5 08 bf ff
	ff		 push	 DWORD PTR _szBankPass$GSCopy$1$[ebp]
  0017e	8d 8d 18 bf ff
	ff		 lea	 ecx, DWORD PTR _ar$[ebp]
  00184	e8 00 00 00 00	 call	 ?WriteString@CAr@@QAEXPBD@Z ; CAr::WriteString

; 72   : 	ar << dwPlayTime;

  00189	8d 45 20	 lea	 eax, DWORD PTR _dwPlayTime$[ebp]
  0018c	50		 push	 eax
  0018d	8d 8d 18 bf ff
	ff		 lea	 ecx, DWORD PTR _ar$[ebp]
  00193	e8 00 00 00 00	 call	 ??$?6K@CAr@@QAEAAV0@ABK@Z ; CAr::operator<<<unsigned long>

; 73   : #ifndef __JEFF_9_20
; 74   : 	ar << dwFlyTime;
; 75   : #endif	// __JEFF_9_20
; 76   : 	ar << nMaximumLevel;

  00198	8d 45 28	 lea	 eax, DWORD PTR _nMaximumLevel$[ebp]
  0019b	50		 push	 eax
  0019c	8d 8d 18 bf ff
	ff		 lea	 ecx, DWORD PTR _ar$[ebp]
  001a2	e8 00 00 00 00	 call	 ??$?6H@CAr@@QAEAAV0@ABH@Z ; CAr::operator<<<int>

; 77   : 	WriteTag(ar, nTags, tags);	// ÂĘÁö ľ˛±â 

  001a7	ff b5 04 bf ff
	ff		 push	 DWORD PTR _tags$GSCopy$1$[ebp]
  001ad	8d 85 18 bf ff
	ff		 lea	 eax, DWORD PTR _ar$[ebp]
  001b3	8b cb		 mov	 ecx, ebx
  001b5	ff 75 2c	 push	 DWORD PTR _nTags$[ebp]
  001b8	50		 push	 eax
  001b9	e8 00 00 00 00	 call	 ?WriteTag@CDbManager@@AAEXAAVCAr@@HPBUTAG_ENTRY@@@Z ; CDbManager::WriteTag

; 78   : 	ar.WriteString( szTimeGuild );

  001be	ff b5 14 bf ff
	ff		 push	 DWORD PTR _szTimeGuild$GSCopy$1$[ebp]
  001c4	8d 8d 18 bf ff
	ff		 lea	 ecx, DWORD PTR _ar$[ebp]
  001ca	e8 00 00 00 00	 call	 ?WriteString@CAr@@QAEXPBD@Z ; CAr::WriteString

; 79   : 	ar << pMover->m_dwReturnWorldID;

  001cf	8d 86 38 3c 00
	00		 lea	 eax, DWORD PTR [esi+15416]
  001d5	50		 push	 eax
  001d6	8d 8d 18 bf ff
	ff		 lea	 ecx, DWORD PTR _ar$[ebp]
  001dc	e8 00 00 00 00	 call	 ??$?6K@CAr@@QAEAAV0@ABK@Z ; CAr::operator<<<unsigned long>

; 80   : 	ar << pMover->m_vReturnPos;

  001e1	8d 86 2c 3c 00
	00		 lea	 eax, DWORD PTR [esi+15404]
  001e7	50		 push	 eax
  001e8	8d 8d 18 bf ff
	ff		 lea	 ecx, DWORD PTR _ar$[ebp]
  001ee	e8 00 00 00 00	 call	 ??$?6UD3DXVECTOR3@@@CAr@@QAEAAV0@ABUD3DXVECTOR3@@@Z ; CAr::operator<<<D3DXVECTOR3>

; 81   : 
; 82   : #ifdef __EVENT_1101
; 83   : #ifdef __EVENT_1101_2
; 84   : 	ar << pMover->m_nEventFlag;

  001f3	8d 86 68 3c 00
	00		 lea	 eax, DWORD PTR [esi+15464]
  001f9	50		 push	 eax
  001fa	8d 8d 18 bf ff
	ff		 lea	 ecx, DWORD PTR _ar$[ebp]
  00200	e8 00 00 00 00	 call	 ??$?6_J@CAr@@QAEAAV0@AB_J@Z ; CAr::operator<<<__int64>

; 85   : #else // __EVENT_1101_2
; 86   : 	ar << pMover->m_dwEventFlag;
; 87   : #endif // __EVENT_1101_2
; 88   : 	ar << pMover->m_dwEventTime;

  00205	8d 86 70 3c 00
	00		 lea	 eax, DWORD PTR [esi+15472]
  0020b	50		 push	 eax
  0020c	8d 8d 18 bf ff
	ff		 lea	 ecx, DWORD PTR _ar$[ebp]
  00212	e8 00 00 00 00	 call	 ??$?6K@CAr@@QAEAAV0@ABK@Z ; CAr::operator<<<unsigned long>

; 89   : 	ar << pMover->m_dwEventElapsed;

  00217	8d 86 74 3c 00
	00		 lea	 eax, DWORD PTR [esi+15476]
  0021d	50		 push	 eax
  0021e	8d 8d 18 bf ff
	ff		 lea	 ecx, DWORD PTR _ar$[ebp]
  00224	e8 00 00 00 00	 call	 ??$?6K@CAr@@QAEAAV0@ABK@Z ; CAr::operator<<<unsigned long>

; 90   : #endif	// __EVENT_1101
; 91   : 
; 92   : #ifdef __EXP_ANGELEXP_LOG
; 93   : 	ar << pMover->m_nExpLog;

  00229	8d 86 88 3c 00
	00		 lea	 eax, DWORD PTR [esi+15496]
  0022f	50		 push	 eax
  00230	8d 8d 18 bf ff
	ff		 lea	 ecx, DWORD PTR _ar$[ebp]
  00236	e8 00 00 00 00	 call	 ??$?6H@CAr@@QAEAAV0@ABH@Z ; CAr::operator<<<int>

; 94   : 	ar << pMover->m_nAngelExpLog;

  0023b	8d 86 8c 3c 00
	00		 lea	 eax, DWORD PTR [esi+15500]
  00241	50		 push	 eax
  00242	8d 8d 18 bf ff
	ff		 lea	 ecx, DWORD PTR _ar$[ebp]
  00248	e8 00 00 00 00	 call	 ??$?6H@CAr@@QAEAAV0@ABH@Z ; CAr::operator<<<int>

; 95   : #endif // __EXP_ANGELEXP_LOG
; 96   : 
; 97   : #ifdef __EVENTLUA_COUPON
; 98   : 	ar << pMover->m_nCoupon;

  0024d	8d 86 90 3c 00
	00		 lea	 eax, DWORD PTR [esi+15504]
  00253	50		 push	 eax
  00254	8d 8d 18 bf ff
	ff		 lea	 ecx, DWORD PTR _ar$[ebp]
  0025a	e8 00 00 00 00	 call	 ??$?6H@CAr@@QAEAAV0@ABH@Z ; CAr::operator<<<int>

; 99   : #endif // __EVENTLUA_COUPON
; 100  : #if __VER >= 14 // __PCBANG
; 101  : 	ar << pMover->m_dwPCBangClass;

  0025f	8d 86 04 41 00
	00		 lea	 eax, DWORD PTR [esi+16644]
  00265	50		 push	 eax
  00266	8d 8d 18 bf ff
	ff		 lea	 ecx, DWORD PTR _ar$[ebp]
  0026c	e8 00 00 00 00	 call	 ??$?6K@CAr@@QAEAAV0@ABK@Z ; CAr::operator<<<unsigned long>

; 104  : 	ar << pMover->m_nRestPoint << static_cast<time_t>( pMover->m_tLogOut ? time_null() - pMover->m_tLogOut : 0 );

  00271	83 be 1c 41 00
	00 00		 cmp	 DWORD PTR [esi+16668], 0
  00278	74 12		 je	 SHORT $LN4@SendJoin
; File C:\Program Files (x86)\Windows Kits\10\Include\10.0.26100.0\ucrt\time.h

; 428  :             return _time32(_Time);

  0027a	6a 00		 push	 0
  0027c	e8 00 00 00 00	 call	 __time32
  00281	83 c4 04	 add	 esp, 4
; File C:\IAGOS\server\v18\Source\Source\_Database\DbManagerJoin.cpp

; 104  : 	ar << pMover->m_nRestPoint << static_cast<time_t>( pMover->m_tLogOut ? time_null() - pMover->m_tLogOut : 0 );

  00284	2b 86 1c 41 00
	00		 sub	 eax, DWORD PTR [esi+16668]
  0028a	eb 02		 jmp	 SHORT $LN5@SendJoin
$LN4@SendJoin:
  0028c	33 c0		 xor	 eax, eax
$LN5@SendJoin:
  0028e	89 85 14 bf ff
	ff		 mov	 DWORD PTR $T4[ebp], eax
  00294	8d 8d 18 bf ff
	ff		 lea	 ecx, DWORD PTR _ar$[ebp]
  0029a	8d 85 14 bf ff
	ff		 lea	 eax, DWORD PTR $T4[ebp]
  002a0	50		 push	 eax
  002a1	8d 86 18 41 00
	00		 lea	 eax, DWORD PTR [esi+16664]
  002a7	50		 push	 eax
  002a8	e8 00 00 00 00	 call	 ??$?6H@CAr@@QAEAAV0@ABH@Z ; CAr::operator<<<int>
  002ad	8b c8		 mov	 ecx, eax
  002af	e8 00 00 00 00	 call	 ??$?6J@CAr@@QAEAAV0@ABJ@Z ; CAr::operator<<<long>

; 105  : #endif // __GUILD_HOUSE
; 106  : 	SEND( ar, CDPTrans::GetInstance(), lpDBOP->dpid );

  002b4	8d 85 00 bf ff
	ff		 lea	 eax, DWORD PTR _nBufSize$[ebp]
  002ba	50		 push	 eax
  002bb	8d 8d 18 bf ff
	ff		 lea	 ecx, DWORD PTR _ar$[ebp]
  002c1	e8 00 00 00 00	 call	 ?GetBuffer@CAr@@QAEPAEPAH@Z ; CAr::GetBuffer
  002c6	8b 9f a8 00 00
	00		 mov	 ebx, DWORD PTR [edi+168]
  002cc	8b f0		 mov	 esi, eax
  002ce	8b 85 00 bf ff
	ff		 mov	 eax, DWORD PTR _nBufSize$[ebp]
  002d4	89 85 14 bf ff
	ff		 mov	 DWORD PTR _dwDataSize$1$[ebp], eax
  002da	e8 00 00 00 00	 call	 ?GetInstance@CDPTrans@@SAPAV1@XZ ; CDPTrans::GetInstance
; File C:\IAGOS\server\v18\Source\Source\_Network\Net\Include\DPMng.h

; 171  : 	if( !m_pDPSock )

  002df	8b 48 04	 mov	 ecx, DWORD PTR [eax+4]
  002e2	85 c9		 test	 ecx, ecx
  002e4	74 0d		 je	 SHORT $LN11@SendJoin

; 172  : 		return FALSE;
; 173  : 	return m_pDPSock->Send( (char*)lpData, dwDataSize, dpidTo );

  002e6	53		 push	 ebx
  002e7	ff b5 14 bf ff
	ff		 push	 DWORD PTR _dwDataSize$1$[ebp]
  002ed	56		 push	 esi
  002ee	e8 00 00 00 00	 call	 ?Send@CDPSock@@QAEHPADKK@Z ; CDPSock::Send
$LN11@SendJoin:
; File C:\IAGOS\server\v18\Source\Source\_Database\DbManagerJoin.cpp

; 108  : 	char lpOutputString[128]	= { 0, };

  002f3	68 80 00 00 00	 push	 128			; 00000080H
  002f8	8d 85 70 ff ff
	ff		 lea	 eax, DWORD PTR _lpOutputString$[ebp]
  002fe	6a 00		 push	 0
  00300	50		 push	 eax
  00301	e8 00 00 00 00	 call	 _memset

; 109  : 	sprintf( lpOutputString, "DATABASESERVER.EXE\t// JOIN_1\t// %d\n", lpDBOP->dpid );

  00306	ff b7 a8 00 00
	00		 push	 DWORD PTR [edi+168]
  0030c	8d 85 70 ff ff
	ff		 lea	 eax, DWORD PTR _lpOutputString$[ebp]
  00312	68 00 00 00 00	 push	 OFFSET ??_C@_0CE@DOPOPHPI@DATABASESERVER?4EXE?7?1?1?5JOIN_1?7?1?1@
  00317	50		 push	 eax
  00318	e8 00 00 00 00	 call	 _sprintf
  0031d	83 c4 18	 add	 esp, 24			; 00000018H

; 110  : 	OutputDebugString( lpOutputString );

  00320	8d 85 70 ff ff
	ff		 lea	 eax, DWORD PTR _lpOutputString$[ebp]
  00326	50		 push	 eax
  00327	ff 15 00 00 00
	00		 call	 DWORD PTR __imp__OutputDebugStringA@4

; 111  : }

  0032d	8d 8d 18 bf ff
	ff		 lea	 ecx, DWORD PTR _ar$[ebp]
  00333	e8 00 00 00 00	 call	 ??1CAr@@QAE@XZ		; CAr::~CAr
  00338	8b 4d f4	 mov	 ecx, DWORD PTR __$EHRec$[ebp]
  0033b	64 89 0d 00 00
	00 00		 mov	 DWORD PTR fs:0, ecx
  00342	59		 pop	 ecx
  00343	5f		 pop	 edi
  00344	5e		 pop	 esi
  00345	5b		 pop	 ebx
  00346	8b 4d f0	 mov	 ecx, DWORD PTR __$ArrayPad$[ebp]
  00349	33 cd		 xor	 ecx, ebp
  0034b	e8 00 00 00 00	 call	 @__security_check_cookie@4
  00350	8b e5		 mov	 esp, ebp
  00352	5d		 pop	 ebp
  00353	c2 30 00	 ret	 48			; 00000030H
_TEXT	ENDS
;	COMDAT text$x
text$x	SEGMENT
__unwindfunclet$?SendJoin@CDbManager@@QAEXPAVCMover@@PAUtagDB_OVERLAPPED_PLUS@@KKPBD2KKHHPAUTAG_ENTRY@@2@Z$0:
  00000	8d 8d 18 bf ff
	ff		 lea	 ecx, DWORD PTR _ar$[ebp]
  00006	e9 00 00 00 00	 jmp	 ??1CAr@@QAE@XZ		; CAr::~CAr
  0000b	cc		 int	 3
  0000c	cc		 int	 3
  0000d	cc		 int	 3
  0000e	cc		 int	 3
  0000f	cc		 int	 3
__ehhandler$?SendJoin@CDbManager@@QAEXPAVCMover@@PAUtagDB_OVERLAPPED_PLUS@@KKPBD2KKHHPAUTAG_ENTRY@@2@Z:
  00010	90		 npad	 1
  00011	90		 npad	 1
  00012	8b 54 24 08	 mov	 edx, DWORD PTR [esp+8]
  00016	8d 42 0c	 lea	 eax, DWORD PTR [edx+12]
  00019	8b 8a fc be ff
	ff		 mov	 ecx, DWORD PTR [edx-16644]
  0001f	33 c8		 xor	 ecx, eax
  00021	e8 00 00 00 00	 call	 @__security_check_cookie@4
  00026	8b 4a fc	 mov	 ecx, DWORD PTR [edx-4]
  00029	33 c8		 xor	 ecx, eax
  0002b	e8 00 00 00 00	 call	 @__security_check_cookie@4
  00030	b8 00 00 00 00	 mov	 eax, OFFSET __ehfuncinfo$?SendJoin@CDbManager@@QAEXPAVCMover@@PAUtagDB_OVERLAPPED_PLUS@@KKPBD2KKHHPAUTAG_ENTRY@@2@Z
  00035	e9 00 00 00 00	 jmp	 ___CxxFrameHandler3
text$x	ENDS
?SendJoin@CDbManager@@QAEXPAVCMover@@PAUtagDB_OVERLAPPED_PLUS@@KKPBD2KKHHPAUTAG_ENTRY@@2@Z ENDP ; CDbManager::SendJoin
; Function compile flags: /Ogtp
; File C:\IAGOS\server\v18\Source\Source\_Network\Objects\Obj.h
; File C:\IAGOS\server\v18\Source\Source\_Network\Misc\Include\mempooler.h
; File C:\IAGOS\server\v18\Source\Source\_Network\Objects\Obj.h
;	COMDAT ??3CMover@@SAXPAX@Z
_TEXT	SEGMENT
_lpMem$ = 8						; size = 4
??3CMover@@SAXPAX@Z PROC				; CMover::operator delete, COMDAT

; 1215 : 	void	operator delete( void* lpMem )	{	CMover::m_pPool->Free( (CMover*)lpMem );	}

  00000	55		 push	 ebp
  00001	8b ec		 mov	 ebp, esp
  00003	56		 push	 esi
  00004	8b 35 00 00 00
	00		 mov	 esi, DWORD PTR ?m_pPool@CMover@@2PAV?$MemPooler@VCMover@@@@A ; CMover::m_pPool
  0000a	57		 push	 edi
; File C:\IAGOS\server\v18\Source\Source\_Network\Misc\Include\mempooler.h

; 88   : 			EnterCriticalSection( &m_cs );

  0000b	8d 7e 18	 lea	 edi, DWORD PTR [esi+24]
  0000e	57		 push	 edi
  0000f	ff 15 00 00 00
	00		 call	 DWORD PTR __imp__EnterCriticalSection@4

; 89   : 
; 90   : 			pNode	= ( reinterpret_cast<BlockNode*>( lpMem ) ) - 1;
; 91   : 			if( m_nAllocCount > 0 )

  00015	83 7e 14 00	 cmp	 DWORD PTR [esi+20], 0
  00019	8b 4d 08	 mov	 ecx, DWORD PTR _lpMem$[ebp]
  0001c	8d 51 fc	 lea	 edx, DWORD PTR [ecx-4]
  0001f	7e 09		 jle	 SHORT $LN5@operator

; 92   : 			{
; 93   : 				pNode->pNext	= m_pFreeList;

  00021	8b 06		 mov	 eax, DWORD PTR [esi]
  00023	89 02		 mov	 DWORD PTR [edx], eax

; 94   : 				m_pFreeList		= pNode;
; 95   : 				m_nAllocCount--;

  00025	ff 4e 14	 dec	 DWORD PTR [esi+20]
  00028	89 16		 mov	 DWORD PTR [esi], edx
$LN5@operator:

; 96   : 			}
; 97   : 
; 98   : 			//	mulcom	BEGIN100422	¸Ţ¸đ¸®Ç® ĂĘ±âČ­
; 99   : 			::memset( lpMem, 0, sizeof(T) );

  0002a	68 50 41 00 00	 push	 16720			; 00004150H
  0002f	6a 00		 push	 0
  00031	51		 push	 ecx
  00032	e8 00 00 00 00	 call	 _memset
  00037	83 c4 0c	 add	 esp, 12			; 0000000cH

; 100  : 			//	mulcom	END100422	¸Ţ¸đ¸®Ç® ĂĘ±âČ­
; 101  : 
; 102  : 			LeaveCriticalSection( &m_cs );

  0003a	57		 push	 edi
  0003b	ff 15 00 00 00
	00		 call	 DWORD PTR __imp__LeaveCriticalSection@4
  00041	5f		 pop	 edi
  00042	5e		 pop	 esi
; File C:\IAGOS\server\v18\Source\Source\_Network\Objects\Obj.h

; 1215 : 	void	operator delete( void* lpMem )	{	CMover::m_pPool->Free( (CMover*)lpMem );	}

  00043	5d		 pop	 ebp
  00044	c3		 ret	 0
??3CMover@@SAXPAX@Z ENDP				; CMover::operator delete
_TEXT	ENDS
; Function compile flags: /Ogtp
; File C:\IAGOS\server\v18\Source\Source\_Network\Objects\Obj.h
; File C:\IAGOS\server\v18\Source\Source\_Network\Misc\Include\mempooler.h
; File C:\IAGOS\server\v18\Source\Source\_Network\Objects\Obj.h
;	COMDAT ??2CMover@@SAPAXI@Z
_TEXT	SEGMENT
_pMemBlock$1 = -4					; size = 4
_nSize$ = 8						; size = 4
??2CMover@@SAPAXI@Z PROC				; CMover::operator new, COMDAT

; 1213 : 	void*	operator new( size_t nSize )	{	return CMover::m_pPool->Alloc();	}

  00000	55		 push	 ebp
  00001	8b ec		 mov	 ebp, esp
  00003	51		 push	 ecx
  00004	53		 push	 ebx
  00005	56		 push	 esi
  00006	8b 35 00 00 00
	00		 mov	 esi, DWORD PTR ?m_pPool@CMover@@2PAV?$MemPooler@VCMover@@@@A ; CMover::m_pPool
  0000c	57		 push	 edi
; File C:\IAGOS\server\v18\Source\Source\_Network\Misc\Include\mempooler.h

; 64   : 			EnterCriticalSection( &m_cs );

  0000d	8d 5e 18	 lea	 ebx, DWORD PTR [esi+24]
  00010	53		 push	 ebx
  00011	ff 15 00 00 00
	00		 call	 DWORD PTR __imp__EnterCriticalSection@4

; 65   : 
; 66   : 			if( !m_pFreeList )

  00017	83 3e 00	 cmp	 DWORD PTR [esi], 0
  0001a	75 56		 jne	 SHORT $LN8@operator

; 127  : 			const int AllocationSize	= m_nListBlockSize * m_nNumOfBlock;

  0001c	8b 46 0c	 mov	 eax, DWORD PTR [esi+12]
  0001f	0f af 46 10	 imul	 eax, DWORD PTR [esi+16]

; 128  : 			void* pMemBlock		= VirtualAlloc( NULL, AllocationSize, MEM_RESERVE | MEM_COMMIT, PAGE_READWRITE );

  00023	6a 04		 push	 4
  00025	68 00 30 00 00	 push	 12288			; 00003000H
  0002a	50		 push	 eax
  0002b	6a 00		 push	 0
  0002d	ff 15 00 00 00
	00		 call	 DWORD PTR __imp__VirtualAlloc@16
  00033	89 45 fc	 mov	 DWORD PTR _pMemBlock$1[ebp], eax
  00036	85 c0		 test	 eax, eax

; 129  : 			ASSERT( pMemBlock );
; 130  : 			if( !pMemBlock )

  00038	75 0d		 jne	 SHORT $LN10@operator

; 131  : 				Error( "bad alloc" );

  0003a	68 00 00 00 00	 push	 OFFSET ??_C@_09PKKCPLIP@bad?5alloc@
  0003f	e8 00 00 00 00	 call	 ?Error@@YAPBDPBDZZ	; Error
  00044	83 c4 04	 add	 esp, 4
$LN10@operator:

; 132  : 			m_ListOfMemBlockPtr.push_back( pMemBlock );

  00047	8d 45 fc	 lea	 eax, DWORD PTR _pMemBlock$1[ebp]
  0004a	50		 push	 eax
  0004b	8d 4e 04	 lea	 ecx, DWORD PTR [esi+4]
  0004e	e8 00 00 00 00	 call	 ?push_back@?$list@PAXV?$allocator@PAX@std@@@std@@QAEXABQAX@Z ; std::list<void *,std::allocator<void *> >::push_back

; 133  : 			BlockNode* pNode	= reinterpret_cast<BlockNode*>(pMemBlock);
; 134  : 			pNode	= reinterpret_cast<BlockNode*>( ( reinterpret_cast<DWORD>( pNode ) ) + ( m_nNumOfBlock - 1 ) * ( m_nListBlockSize ) );	// set pNode to last

  00053	8b 56 0c	 mov	 edx, DWORD PTR [esi+12]
  00056	8b 4e 10	 mov	 ecx, DWORD PTR [esi+16]
  00059	4a		 dec	 edx
  0005a	0f af ca	 imul	 ecx, edx
  0005d	03 4d fc	 add	 ecx, DWORD PTR _pMemBlock$1[ebp]

; 135  : 			for( int i = m_nNumOfBlock - 1; i >= 0; i-- )

  00060	85 d2		 test	 edx, edx
  00062	78 0e		 js	 SHORT $LN8@operator
$LL9@operator:

; 136  : 			{
; 137  : 				pNode->pNext	= m_pFreeList;

  00064	8b 06		 mov	 eax, DWORD PTR [esi]
  00066	89 01		 mov	 DWORD PTR [ecx], eax

; 138  : 				m_pFreeList	= pNode;

  00068	89 0e		 mov	 DWORD PTR [esi], ecx

; 139  : 				pNode	= reinterpret_cast<BlockNode*>( ( reinterpret_cast<DWORD>( pNode ) ) - m_nListBlockSize );	// set pNode to previous

  0006a	2b 4e 10	 sub	 ecx, DWORD PTR [esi+16]
  0006d	83 ea 01	 sub	 edx, 1
  00070	79 f2		 jns	 SHORT $LL9@operator
$LN8@operator:

; 69   : 			pNode	= m_pFreeList;

  00072	8b 3e		 mov	 edi, DWORD PTR [esi]

; 70   : 			m_pFreeList		= m_pFreeList->pNext;
; 71   : 			m_nAllocCount++;
; 72   : 			lpMem	= reinterpret_cast<T*>( pNode + 1 );
; 73   : 
; 74   : 			LeaveCriticalSection( &m_cs );

  00074	53		 push	 ebx
  00075	8b 07		 mov	 eax, DWORD PTR [edi]
  00077	ff 46 14	 inc	 DWORD PTR [esi+20]
  0007a	89 06		 mov	 DWORD PTR [esi], eax
  0007c	ff 15 00 00 00
	00		 call	 DWORD PTR __imp__LeaveCriticalSection@4
  00082	8d 47 04	 lea	 eax, DWORD PTR [edi+4]
; File C:\IAGOS\server\v18\Source\Source\_Network\Objects\Obj.h

; 1213 : 	void*	operator new( size_t nSize )	{	return CMover::m_pPool->Alloc();	}

  00085	5f		 pop	 edi
  00086	5e		 pop	 esi
  00087	5b		 pop	 ebx
  00088	8b e5		 mov	 esp, ebp
  0008a	5d		 pop	 ebp
  0008b	c3		 ret	 0
??2CMover@@SAPAXI@Z ENDP				; CMover::operator new
_TEXT	ENDS
; Function compile flags: /Ogtp
; File C:\IAGOS\server\v18\Source\Source\_Network\Objects\Obj.h
;	COMDAT ?Copy@?$CItemContainer@VCItemElem@@@@QAEXAAV1@@Z
_TEXT	SEGMENT
_rItemContainer$ = 8					; size = 4
?Copy@?$CItemContainer@VCItemElem@@@@QAEXAAV1@@Z PROC	; CItemContainer<CItemElem>::Copy, COMDAT
; _this$ = ecx

; 787  : {

  00000	55		 push	 ebp
  00001	8b ec		 mov	 ebp, esp
  00003	53		 push	 ebx
  00004	8b d9		 mov	 ebx, ecx

; 788  : 	m_dwIndexNum	= rItemContainer.m_dwIndexNum;

  00006	8b 4d 08	 mov	 ecx, DWORD PTR _rItemContainer$[ebp]
  00009	57		 push	 edi
  0000a	8b 41 08	 mov	 eax, DWORD PTR [ecx+8]
  0000d	89 43 08	 mov	 DWORD PTR [ebx+8], eax

; 789  : 	memcpy( (void*)m_apIndex, (void*)rItemContainer.m_apIndex, sizeof(DWORD) * m_dwItemMax );

  00010	8b 43 10	 mov	 eax, DWORD PTR [ebx+16]
  00013	c1 e0 02	 shl	 eax, 2
  00016	50		 push	 eax
  00017	ff 71 04	 push	 DWORD PTR [ecx+4]
  0001a	ff 73 04	 push	 DWORD PTR [ebx+4]
  0001d	e8 00 00 00 00	 call	 _memcpy

; 790  : 	for( u_long i = 0; i < m_dwItemMax; i++ )

  00022	33 ff		 xor	 edi, edi
  00024	83 c4 0c	 add	 esp, 12			; 0000000cH
  00027	39 7b 10	 cmp	 DWORD PTR [ebx+16], edi
  0002a	76 4c		 jbe	 SHORT $LN3@Copy

; 788  : 	m_dwIndexNum	= rItemContainer.m_dwIndexNum;

  0002c	56		 push	 esi
  0002d	33 f6		 xor	 esi, esi
  0002f	90		 npad	 1
$LL4@Copy:

; 791  : 	{
; 792  : 		m_apItem[i].m_dwObjId	= rItemContainer.m_apItem[i].m_dwObjId;

  00030	8b 55 08	 mov	 edx, DWORD PTR _rItemContainer$[ebp]
  00033	8b 4b 0c	 mov	 ecx, DWORD PTR [ebx+12]
  00036	8b 42 0c	 mov	 eax, DWORD PTR [edx+12]
  00039	8b 44 30 04	 mov	 eax, DWORD PTR [eax+esi+4]
  0003d	89 44 31 04	 mov	 DWORD PTR [ecx+esi+4], eax

; 793  : 		m_apItem[i].m_dwObjIndex	= rItemContainer.m_apItem[i].m_dwObjIndex;

  00041	8b 42 0c	 mov	 eax, DWORD PTR [edx+12]
  00044	8b 4b 0c	 mov	 ecx, DWORD PTR [ebx+12]
  00047	8b 44 30 2c	 mov	 eax, DWORD PTR [eax+esi+44]
  0004b	89 44 31 2c	 mov	 DWORD PTR [ecx+esi+44], eax

; 131  : 	BOOL	IsEmpty()	{	return m_dwItemId ? FALSE : TRUE;	}

  0004f	8b 52 0c	 mov	 edx, DWORD PTR [edx+12]
  00052	8b 43 0c	 mov	 eax, DWORD PTR [ebx+12]
  00055	03 d6		 add	 edx, esi
  00057	83 7a 08 00	 cmp	 DWORD PTR [edx+8], 0

; 794  : 		if( rItemContainer.m_apItem[i].IsEmpty() == FALSE )

  0005b	8d 0c 06	 lea	 ecx, DWORD PTR [esi+eax]
  0005e	8b 01		 mov	 eax, DWORD PTR [ecx]
  00060	74 06		 je	 SHORT $LN5@Copy

; 795  : 			m_apItem[i]		= rItemContainer.m_apItem[i];

  00062	52		 push	 edx
  00063	ff 50 10	 call	 DWORD PTR [eax+16]
  00066	eb 03		 jmp	 SHORT $LN2@Copy
$LN5@Copy:

; 796  : 		else
; 797  : 			m_apItem[i].Empty();

  00068	ff 50 04	 call	 DWORD PTR [eax+4]
$LN2@Copy:

; 790  : 	for( u_long i = 0; i < m_dwItemMax; i++ )

  0006b	47		 inc	 edi
  0006c	81 c6 98 00 00
	00		 add	 esi, 152		; 00000098H
  00072	3b 7b 10	 cmp	 edi, DWORD PTR [ebx+16]
  00075	72 b9		 jb	 SHORT $LL4@Copy
  00077	5e		 pop	 esi
$LN3@Copy:
  00078	5f		 pop	 edi

; 798  : 	}
; 799  : }

  00079	5b		 pop	 ebx
  0007a	5d		 pop	 ebp
  0007b	c2 04 00	 ret	 4
?Copy@?$CItemContainer@VCItemElem@@@@QAEXAAV1@@Z ENDP	; CItemContainer<CItemElem>::Copy
_TEXT	ENDS
; Function compile flags: /Ogtp
; File C:\Program Files\Microsoft Visual Studio\2022\Professional\VC\Tools\MSVC\14.44.35207\include\list
; File C:\Program Files\Microsoft Visual Studio\2022\Professional\VC\Tools\MSVC\14.44.35207\include\xmemory
; File C:\Program Files\Microsoft Visual Studio\2022\Professional\VC\Tools\MSVC\14.44.35207\include\list
; File C:\Program Files\Microsoft Visual Studio\2022\Professional\VC\Tools\MSVC\14.44.35207\include\xmemory
; File C:\Program Files\Microsoft Visual Studio\2022\Professional\VC\Tools\MSVC\14.44.35207\include\list
; File C:\Program Files\Microsoft Visual Studio\2022\Professional\VC\Tools\MSVC\14.44.35207\include\xmemory
; File C:\Program Files\Microsoft Visual Studio\2022\Professional\VC\Tools\MSVC\14.44.35207\include\list
;	COMDAT ?push_back@?$list@PAXV?$allocator@PAX@std@@@std@@QAEXABQAX@Z
_TEXT	SEGMENT
__Op$2 = -20						; size = 8
__$EHRec$ = -12						; size = 12
__Val$ = 8						; size = 4
?push_back@?$list@PAXV?$allocator@PAX@std@@@std@@QAEXABQAX@Z PROC ; std::list<void *,std::allocator<void *> >::push_back, COMDAT
; _this$ = ecx

; 1273 :     void push_back(const _Ty& _Val) {

  00000	55		 push	 ebp
  00001	8b ec		 mov	 ebp, esp
  00003	6a ff		 push	 -1
  00005	68 00 00 00 00	 push	 __ehhandler$?push_back@?$list@PAXV?$allocator@PAX@std@@@std@@QAEXABQAX@Z
  0000a	64 a1 00 00 00
	00		 mov	 eax, DWORD PTR fs:0
  00010	50		 push	 eax
  00011	83 ec 08	 sub	 esp, 8
  00014	56		 push	 esi
  00015	57		 push	 edi
  00016	a1 00 00 00 00	 mov	 eax, DWORD PTR ___security_cookie
  0001b	33 c5		 xor	 eax, ebp
  0001d	50		 push	 eax
  0001e	8d 45 f4	 lea	 eax, DWORD PTR __$EHRec$[ebp]
  00021	64 a3 00 00 00
	00		 mov	 DWORD PTR fs:0, eax
  00027	8b f1		 mov	 esi, ecx

; 1030 :         if (_Mysize == max_size()) {

  00029	81 7e 04 55 55
	55 15		 cmp	 DWORD PTR [esi+4], 357913941 ; 15555555H

; 1274 :         _Emplace(_Mypair._Myval2._Myhead, _Val);

  00030	8b 3e		 mov	 edi, DWORD PTR [esi]

; 1030 :         if (_Mysize == max_size()) {

  00032	74 46		 je	 SHORT $LN61@push_back
; File C:\Program Files\Microsoft Visual Studio\2022\Professional\VC\Tools\MSVC\14.44.35207\include\xmemory

; 1160 :     _CONSTEXPR20 explicit _Alloc_construct_ptr(_Alloc& _Al_) : _Al(_Al_), _Ptr(nullptr) {}

  00034	89 75 ec	 mov	 DWORD PTR __Op$2[ebp], esi

; 136  :         return ::operator new(_Bytes);

  00037	6a 0c		 push	 12			; 0000000cH
; File C:\Program Files\Microsoft Visual Studio\2022\Professional\VC\Tools\MSVC\14.44.35207\include\list

; 593  :     explicit _List_node_emplace_op2(_Alnode& _Al_, _Valtys&&... _Vals) : _Alloc_construct_ptr<_Alnode>(_Al_) {

  00039	c7 45 fc 00 00
	00 00		 mov	 DWORD PTR __$EHRec$[ebp+8], 0
; File C:\Program Files\Microsoft Visual Studio\2022\Professional\VC\Tools\MSVC\14.44.35207\include\xmemory

; 1167 :         _Ptr = nullptr; // if allocate throws, prevents double-free

  00040	c7 45 f0 00 00
	00 00		 mov	 DWORD PTR __Op$2[ebp+4], 0

; 136  :         return ::operator new(_Bytes);

  00047	e8 00 00 00 00	 call	 ??2@YAPAXI@Z		; operator new
; File C:\Program Files\Microsoft Visual Studio\2022\Professional\VC\Tools\MSVC\14.44.35207\include\list

; 595  :         _Alnode_traits::construct(this->_Al, _STD addressof(this->_Ptr->_Myval), _STD forward<_Valtys>(_Vals)...);

  0004c	8b 4d 08	 mov	 ecx, DWORD PTR __Val$[ebp]
; File C:\Program Files\Microsoft Visual Studio\2022\Professional\VC\Tools\MSVC\14.44.35207\include\xmemory

; 136  :         return ::operator new(_Bytes);

  0004f	83 c4 04	 add	 esp, 4
; File C:\Program Files\Microsoft Visual Studio\2022\Professional\VC\Tools\MSVC\14.44.35207\include\list

; 595  :         _Alnode_traits::construct(this->_Al, _STD addressof(this->_Ptr->_Myval), _STD forward<_Valtys>(_Vals)...);

  00052	8b 09		 mov	 ecx, DWORD PTR [ecx]
  00054	89 48 08	 mov	 DWORD PTR [eax+8], ecx

; 1035 :         ++_Mysize;

  00057	ff 46 04	 inc	 DWORD PTR [esi+4]

; 608  :         const pointer _Insert_after = _Insert_before->_Prev;

  0005a	8b 4f 04	 mov	 ecx, DWORD PTR [edi+4]

; 609  :         _Construct_in_place(this->_Ptr->_Next, _Insert_before);

  0005d	89 38		 mov	 DWORD PTR [eax], edi

; 610  :         _Construct_in_place(this->_Ptr->_Prev, _Insert_after);

  0005f	89 48 04	 mov	 DWORD PTR [eax+4], ecx

; 611  :         const auto _Result    = this->_Ptr;
; 612  :         this->_Ptr            = pointer{};
; 613  :         _Insert_before->_Prev = _Result;

  00062	89 47 04	 mov	 DWORD PTR [edi+4], eax

; 614  :         _Insert_after->_Next  = _Result;

  00065	89 01		 mov	 DWORD PTR [ecx], eax

; 1275 :     }

  00067	8b 4d f4	 mov	 ecx, DWORD PTR __$EHRec$[ebp]
  0006a	64 89 0d 00 00
	00 00		 mov	 DWORD PTR fs:0, ecx
  00071	59		 pop	 ecx
  00072	5f		 pop	 edi
  00073	5e		 pop	 esi
  00074	8b e5		 mov	 esp, ebp
  00076	5d		 pop	 ebp
  00077	c2 04 00	 ret	 4
$LN61@push_back:

; 1031 :             _Xlength_error("list too long");

  0007a	68 00 00 00 00	 push	 OFFSET ??_C@_0O@NKNMEGII@list?5too?5long@
  0007f	e8 00 00 00 00	 call	 ?_Xlength_error@std@@YAXPBD@Z ; std::_Xlength_error
$LN59@push_back:
  00084	cc		 int	 3
_TEXT	ENDS
;	COMDAT text$x
text$x	SEGMENT
__unwindfunclet$?push_back@?$list@PAXV?$allocator@PAX@std@@@std@@QAEXABQAX@Z$1:
  00000	8d 4d ec	 lea	 ecx, DWORD PTR __Op$2[ebp]
  00003	e9 00 00 00 00	 jmp	 ??1?$_Alloc_construct_ptr@V?$allocator@U?$_List_node@PAXPAX@std@@@std@@@std@@QAE@XZ ; std::_Alloc_construct_ptr<std::allocator<std::_List_node<void *,void *> > >::~_Alloc_construct_ptr<std::allocator<std::_List_node<void *,void *> > >
  00008	cc		 int	 3
  00009	cc		 int	 3
  0000a	cc		 int	 3
  0000b	cc		 int	 3
  0000c	cc		 int	 3
__ehhandler$?push_back@?$list@PAXV?$allocator@PAX@std@@@std@@QAEXABQAX@Z:
  0000d	90		 npad	 1
  0000e	90		 npad	 1
  0000f	8b 54 24 08	 mov	 edx, DWORD PTR [esp+8]
  00013	8d 42 0c	 lea	 eax, DWORD PTR [edx+12]
  00016	8b 4a ec	 mov	 ecx, DWORD PTR [edx-20]
  00019	33 c8		 xor	 ecx, eax
  0001b	e8 00 00 00 00	 call	 @__security_check_cookie@4
  00020	b8 00 00 00 00	 mov	 eax, OFFSET __ehfuncinfo$?push_back@?$list@PAXV?$allocator@PAX@std@@@std@@QAEXABQAX@Z
  00025	e9 00 00 00 00	 jmp	 ___CxxFrameHandler3
text$x	ENDS
?push_back@?$list@PAXV?$allocator@PAX@std@@@std@@QAEXABQAX@Z ENDP ; std::list<void *,std::allocator<void *> >::push_back
; Function compile flags: /Ogtp
; File C:\Program Files\Microsoft Visual Studio\2022\Professional\VC\Tools\MSVC\14.44.35207\include\xmemory
;	COMDAT ?_Throw_bad_array_new_length@std@@YAXXZ
_TEXT	SEGMENT
$T1 = -12						; size = 12
?_Throw_bad_array_new_length@std@@YAXXZ PROC		; std::_Throw_bad_array_new_length, COMDAT

; 107  : [[noreturn]] inline void _Throw_bad_array_new_length() {

  00000	55		 push	 ebp
  00001	8b ec		 mov	 ebp, esp
  00003	83 ec 0c	 sub	 esp, 12			; 0000000cH

; 108  :     _THROW(bad_array_new_length{});

  00006	8d 4d f4	 lea	 ecx, DWORD PTR $T1[ebp]
  00009	e8 00 00 00 00	 call	 ??0bad_array_new_length@std@@QAE@XZ ; std::bad_array_new_length::bad_array_new_length
  0000e	68 00 00 00 00	 push	 OFFSET __TI3?AVbad_array_new_length@std@@
  00013	8d 45 f4	 lea	 eax, DWORD PTR $T1[ebp]
  00016	50		 push	 eax
  00017	e8 00 00 00 00	 call	 __CxxThrowException@8
$LN3@Throw_bad_:
  0001c	cc		 int	 3
?_Throw_bad_array_new_length@std@@YAXXZ ENDP		; std::_Throw_bad_array_new_length
_TEXT	ENDS
; Function compile flags: /Ogtp
; File C:\Program Files\Microsoft Visual Studio\2022\Professional\VC\Tools\MSVC\14.44.35207\include\vcruntime_exception.h
;	COMDAT ??_Gbad_array_new_length@std@@UAEPAXI@Z
_TEXT	SEGMENT
___flags$ = 8						; size = 4
??_Gbad_array_new_length@std@@UAEPAXI@Z PROC		; std::bad_array_new_length::`scalar deleting destructor', COMDAT
; _this$ = ecx
  00000	55		 push	 ebp
  00001	8b ec		 mov	 ebp, esp

; 90   :     {

  00003	56		 push	 esi
  00004	8b f1		 mov	 esi, ecx

; 91   :         __std_exception_destroy(&_Data);

  00006	8d 46 04	 lea	 eax, DWORD PTR [esi+4]
  00009	c7 06 00 00 00
	00		 mov	 DWORD PTR [esi], OFFSET ??_7exception@std@@6B@
  0000f	50		 push	 eax
  00010	e8 00 00 00 00	 call	 ___std_exception_destroy
  00015	83 c4 04	 add	 esp, 4
  00018	f6 45 08 01	 test	 BYTE PTR ___flags$[ebp], 1
  0001c	74 0b		 je	 SHORT $LN18@scalar
  0001e	6a 0c		 push	 12			; 0000000cH
  00020	56		 push	 esi
  00021	e8 00 00 00 00	 call	 ??3@YAXPAXI@Z		; operator delete
  00026	83 c4 08	 add	 esp, 8
$LN18@scalar:
  00029	8b c6		 mov	 eax, esi
  0002b	5e		 pop	 esi
  0002c	5d		 pop	 ebp
  0002d	c2 04 00	 ret	 4
??_Gbad_array_new_length@std@@UAEPAXI@Z ENDP		; std::bad_array_new_length::`scalar deleting destructor'
_TEXT	ENDS
; Function compile flags: /Ogtp
; File C:\Program Files\Microsoft Visual Studio\2022\Professional\VC\Tools\MSVC\14.44.35207\include\vcruntime_exception.h
;	COMDAT ??0bad_array_new_length@std@@QAE@ABV01@@Z
_TEXT	SEGMENT
___that$ = 8						; size = 4
??0bad_array_new_length@std@@QAE@ABV01@@Z PROC		; std::bad_array_new_length::bad_array_new_length, COMDAT
; _this$ = ecx
  00000	55		 push	 ebp
  00001	8b ec		 mov	 ebp, esp

; 73   :     {

  00003	56		 push	 esi
  00004	8b f1		 mov	 esi, ecx
  00006	0f 57 c0	 xorps	 xmm0, xmm0

; 72   :         : _Data()

  00009	8d 46 04	 lea	 eax, DWORD PTR [esi+4]

; 74   :         __std_exception_copy(&_Other._Data, &_Data);

  0000c	50		 push	 eax
  0000d	c7 06 00 00 00
	00		 mov	 DWORD PTR [esi], OFFSET ??_7exception@std@@6B@
  00013	66 0f d6 00	 movq	 QWORD PTR [eax], xmm0
  00017	8b 45 08	 mov	 eax, DWORD PTR ___that$[ebp]
  0001a	83 c0 04	 add	 eax, 4
  0001d	50		 push	 eax
  0001e	e8 00 00 00 00	 call	 ___std_exception_copy
  00023	83 c4 08	 add	 esp, 8
  00026	c7 06 00 00 00
	00		 mov	 DWORD PTR [esi], OFFSET ??_7bad_array_new_length@std@@6B@
  0002c	8b c6		 mov	 eax, esi
  0002e	5e		 pop	 esi
  0002f	5d		 pop	 ebp
  00030	c2 04 00	 ret	 4
??0bad_array_new_length@std@@QAE@ABV01@@Z ENDP		; std::bad_array_new_length::bad_array_new_length
_TEXT	ENDS
; Function compile flags: /Ogtp
; File C:\Program Files\Microsoft Visual Studio\2022\Professional\VC\Tools\MSVC\14.44.35207\include\vcruntime_exception.h
;	COMDAT ??1bad_array_new_length@std@@UAE@XZ
_TEXT	SEGMENT
??1bad_array_new_length@std@@UAE@XZ PROC		; std::bad_array_new_length::~bad_array_new_length, COMDAT
; _this$ = ecx

; 91   :         __std_exception_destroy(&_Data);

  00000	8d 41 04	 lea	 eax, DWORD PTR [ecx+4]
  00003	c7 01 00 00 00
	00		 mov	 DWORD PTR [ecx], OFFSET ??_7exception@std@@6B@
  00009	50		 push	 eax
  0000a	e8 00 00 00 00	 call	 ___std_exception_destroy
  0000f	59		 pop	 ecx
  00010	c3		 ret	 0
??1bad_array_new_length@std@@UAE@XZ ENDP		; std::bad_array_new_length::~bad_array_new_length
_TEXT	ENDS
; Function compile flags: /Ogtp
; File C:\Program Files\Microsoft Visual Studio\2022\Professional\VC\Tools\MSVC\14.44.35207\include\vcruntime_exception.h
;	COMDAT ??0bad_array_new_length@std@@QAE@XZ
_TEXT	SEGMENT
??0bad_array_new_length@std@@QAE@XZ PROC		; std::bad_array_new_length::bad_array_new_length, COMDAT
; _this$ = ecx

; 144  :     {

  00000	0f 57 c0	 xorps	 xmm0, xmm0

; 145  :     }

  00003	8b c1		 mov	 eax, ecx

; 66   :         : _Data()

  00005	66 0f d6 41 04	 movq	 QWORD PTR [ecx+4], xmm0

; 67   :     {
; 68   :         _Data._What = _Message;

  0000a	c7 41 04 00 00
	00 00		 mov	 DWORD PTR [ecx+4], OFFSET ??_C@_0BF@KINCDENJ@bad?5array?5new?5length@

; 144  :     {

  00011	c7 01 00 00 00
	00		 mov	 DWORD PTR [ecx], OFFSET ??_7bad_array_new_length@std@@6B@

; 145  :     }

  00017	c3		 ret	 0
??0bad_array_new_length@std@@QAE@XZ ENDP		; std::bad_array_new_length::bad_array_new_length
_TEXT	ENDS
; Function compile flags: /Ogtp
; File C:\Program Files\Microsoft Visual Studio\2022\Professional\VC\Tools\MSVC\14.44.35207\include\vcruntime_exception.h
;	COMDAT ??_Gbad_alloc@std@@UAEPAXI@Z
_TEXT	SEGMENT
___flags$ = 8						; size = 4
??_Gbad_alloc@std@@UAEPAXI@Z PROC			; std::bad_alloc::`scalar deleting destructor', COMDAT
; _this$ = ecx
  00000	55		 push	 ebp
  00001	8b ec		 mov	 ebp, esp

; 90   :     {

  00003	56		 push	 esi
  00004	8b f1		 mov	 esi, ecx

; 91   :         __std_exception_destroy(&_Data);

  00006	8d 46 04	 lea	 eax, DWORD PTR [esi+4]
  00009	c7 06 00 00 00
	00		 mov	 DWORD PTR [esi], OFFSET ??_7exception@std@@6B@
  0000f	50		 push	 eax
  00010	e8 00 00 00 00	 call	 ___std_exception_destroy
  00015	83 c4 04	 add	 esp, 4
  00018	f6 45 08 01	 test	 BYTE PTR ___flags$[ebp], 1
  0001c	74 0b		 je	 SHORT $LN13@scalar
  0001e	6a 0c		 push	 12			; 0000000cH
  00020	56		 push	 esi
  00021	e8 00 00 00 00	 call	 ??3@YAXPAXI@Z		; operator delete
  00026	83 c4 08	 add	 esp, 8
$LN13@scalar:
  00029	8b c6		 mov	 eax, esi
  0002b	5e		 pop	 esi
  0002c	5d		 pop	 ebp
  0002d	c2 04 00	 ret	 4
??_Gbad_alloc@std@@UAEPAXI@Z ENDP			; std::bad_alloc::`scalar deleting destructor'
_TEXT	ENDS
; Function compile flags: /Ogtp
; File C:\Program Files\Microsoft Visual Studio\2022\Professional\VC\Tools\MSVC\14.44.35207\include\vcruntime_exception.h
;	COMDAT ??0bad_alloc@std@@QAE@ABV01@@Z
_TEXT	SEGMENT
___that$ = 8						; size = 4
??0bad_alloc@std@@QAE@ABV01@@Z PROC			; std::bad_alloc::bad_alloc, COMDAT
; _this$ = ecx
  00000	55		 push	 ebp
  00001	8b ec		 mov	 ebp, esp

; 73   :     {

  00003	56		 push	 esi
  00004	8b f1		 mov	 esi, ecx
  00006	0f 57 c0	 xorps	 xmm0, xmm0

; 72   :         : _Data()

  00009	8d 46 04	 lea	 eax, DWORD PTR [esi+4]

; 74   :         __std_exception_copy(&_Other._Data, &_Data);

  0000c	50		 push	 eax
  0000d	c7 06 00 00 00
	00		 mov	 DWORD PTR [esi], OFFSET ??_7exception@std@@6B@
  00013	66 0f d6 00	 movq	 QWORD PTR [eax], xmm0
  00017	8b 45 08	 mov	 eax, DWORD PTR ___that$[ebp]
  0001a	83 c0 04	 add	 eax, 4
  0001d	50		 push	 eax
  0001e	e8 00 00 00 00	 call	 ___std_exception_copy
  00023	83 c4 08	 add	 esp, 8
  00026	c7 06 00 00 00
	00		 mov	 DWORD PTR [esi], OFFSET ??_7bad_alloc@std@@6B@
  0002c	8b c6		 mov	 eax, esi
  0002e	5e		 pop	 esi
  0002f	5d		 pop	 ebp
  00030	c2 04 00	 ret	 4
??0bad_alloc@std@@QAE@ABV01@@Z ENDP			; std::bad_alloc::bad_alloc
_TEXT	ENDS
; Function compile flags: /Ogtp
; File C:\Program Files\Microsoft Visual Studio\2022\Professional\VC\Tools\MSVC\14.44.35207\include\vcruntime_exception.h
;	COMDAT ??_Gexception@std@@UAEPAXI@Z
_TEXT	SEGMENT
___flags$ = 8						; size = 4
??_Gexception@std@@UAEPAXI@Z PROC			; std::exception::`scalar deleting destructor', COMDAT
; _this$ = ecx
  00000	55		 push	 ebp
  00001	8b ec		 mov	 ebp, esp

; 90   :     {

  00003	56		 push	 esi
  00004	8b f1		 mov	 esi, ecx

; 91   :         __std_exception_destroy(&_Data);

  00006	8d 46 04	 lea	 eax, DWORD PTR [esi+4]
  00009	c7 06 00 00 00
	00		 mov	 DWORD PTR [esi], OFFSET ??_7exception@std@@6B@
  0000f	50		 push	 eax
  00010	e8 00 00 00 00	 call	 ___std_exception_destroy
  00015	83 c4 04	 add	 esp, 4
  00018	f6 45 08 01	 test	 BYTE PTR ___flags$[ebp], 1
  0001c	74 0b		 je	 SHORT $LN8@scalar
  0001e	6a 0c		 push	 12			; 0000000cH
  00020	56		 push	 esi
  00021	e8 00 00 00 00	 call	 ??3@YAXPAXI@Z		; operator delete
  00026	83 c4 08	 add	 esp, 8
$LN8@scalar:
  00029	8b c6		 mov	 eax, esi
  0002b	5e		 pop	 esi
  0002c	5d		 pop	 ebp
  0002d	c2 04 00	 ret	 4
??_Gexception@std@@UAEPAXI@Z ENDP			; std::exception::`scalar deleting destructor'
_TEXT	ENDS
; Function compile flags: /Ogtp
; File C:\Program Files\Microsoft Visual Studio\2022\Professional\VC\Tools\MSVC\14.44.35207\include\vcruntime_exception.h
;	COMDAT ?what@exception@std@@UBEPBDXZ
_TEXT	SEGMENT
?what@exception@std@@UBEPBDXZ PROC			; std::exception::what, COMDAT
; _this$ = ecx

; 96   :         return _Data._What ? _Data._What : "Unknown exception";

  00000	8b 49 04	 mov	 ecx, DWORD PTR [ecx+4]
  00003	b8 00 00 00 00	 mov	 eax, OFFSET ??_C@_0BC@EOODALEL@Unknown?5exception@
  00008	85 c9		 test	 ecx, ecx
  0000a	0f 45 c1	 cmovne	 eax, ecx

; 97   :     }

  0000d	c3		 ret	 0
?what@exception@std@@UBEPBDXZ ENDP			; std::exception::what
_TEXT	ENDS
; Function compile flags: /Ogtp
; File C:\Program Files\Microsoft Visual Studio\2022\Professional\VC\Tools\MSVC\14.44.35207\include\vcruntime_exception.h
;	COMDAT ??1exception@std@@UAE@XZ
_TEXT	SEGMENT
??1exception@std@@UAE@XZ PROC				; std::exception::~exception, COMDAT
; _this$ = ecx

; 91   :         __std_exception_destroy(&_Data);

  00000	8d 41 04	 lea	 eax, DWORD PTR [ecx+4]
  00003	c7 01 00 00 00
	00		 mov	 DWORD PTR [ecx], OFFSET ??_7exception@std@@6B@
  00009	50		 push	 eax
  0000a	e8 00 00 00 00	 call	 ___std_exception_destroy
  0000f	59		 pop	 ecx

; 92   :     }

  00010	c3		 ret	 0
??1exception@std@@UAE@XZ ENDP				; std::exception::~exception
_TEXT	ENDS
; Function compile flags: /Ogtp
; File C:\Program Files\Microsoft Visual Studio\2022\Professional\VC\Tools\MSVC\14.44.35207\include\vcruntime_exception.h
;	COMDAT ??0exception@std@@QAE@ABV01@@Z
_TEXT	SEGMENT
__Other$ = 8						; size = 4
??0exception@std@@QAE@ABV01@@Z PROC			; std::exception::exception, COMDAT
; _this$ = ecx

; 73   :     {

  00000	55		 push	 ebp
  00001	8b ec		 mov	 ebp, esp
  00003	56		 push	 esi
  00004	8b f1		 mov	 esi, ecx
  00006	0f 57 c0	 xorps	 xmm0, xmm0
  00009	8d 46 04	 lea	 eax, DWORD PTR [esi+4]

; 74   :         __std_exception_copy(&_Other._Data, &_Data);

  0000c	50		 push	 eax
  0000d	c7 06 00 00 00
	00		 mov	 DWORD PTR [esi], OFFSET ??_7exception@std@@6B@
  00013	66 0f d6 00	 movq	 QWORD PTR [eax], xmm0
  00017	8b 45 08	 mov	 eax, DWORD PTR __Other$[ebp]
  0001a	83 c0 04	 add	 eax, 4
  0001d	50		 push	 eax
  0001e	e8 00 00 00 00	 call	 ___std_exception_copy
  00023	83 c4 08	 add	 esp, 8

; 75   :     }

  00026	8b c6		 mov	 eax, esi
  00028	5e		 pop	 esi
  00029	5d		 pop	 ebp
  0002a	c2 04 00	 ret	 4
??0exception@std@@QAE@ABV01@@Z ENDP			; std::exception::exception
_TEXT	ENDS
; Function compile flags: /Ogtp
; File C:\Program Files (x86)\Windows Kits\10\Include\10.0.26100.0\ucrt\stdio.h
;	COMDAT _sprintf
_TEXT	SEGMENT
__Buffer$ = 8						; size = 4
__Format$ = 12						; size = 4
_sprintf PROC						; COMDAT

; 1771 :     {

  00000	55		 push	 ebp
  00001	8b ec		 mov	 ebp, esp

; 1392 :         int const _Result = __stdio_common_vsprintf(

  00003	8d 45 10	 lea	 eax, DWORD PTR __Format$[ebp+4]
  00006	50		 push	 eax
  00007	6a 00		 push	 0
  00009	ff 75 0c	 push	 DWORD PTR __Format$[ebp]
  0000c	6a ff		 push	 -1
  0000e	ff 75 08	 push	 DWORD PTR __Buffer$[ebp]
  00011	e8 00 00 00 00	 call	 ___local_stdio_printf_options
  00016	8b 08		 mov	 ecx, DWORD PTR [eax]
  00018	ff 70 04	 push	 DWORD PTR [eax+4]
  0001b	83 c9 01	 or	 ecx, 1
  0001e	51		 push	 ecx
  0001f	e8 00 00 00 00	 call	 ___stdio_common_vsprintf

; 1393 :             _CRT_INTERNAL_LOCAL_PRINTF_OPTIONS | _CRT_INTERNAL_PRINTF_LEGACY_VSPRINTF_NULL_TERMINATION,
; 1394 :             _Buffer, _BufferCount, _Format, _Locale, _ArgList);
; 1395 : 
; 1396 :         return _Result < 0 ? -1 : _Result;

  00024	83 c9 ff	 or	 ecx, -1
  00027	83 c4 1c	 add	 esp, 28			; 0000001cH
  0002a	85 c0		 test	 eax, eax
  0002c	0f 48 c1	 cmovs	 eax, ecx

; 1772 :         int _Result;
; 1773 :         va_list _ArgList;
; 1774 :         __crt_va_start(_ArgList, _Format);
; 1775 : 
; 1776 :         _Result = _vsprintf_l(_Buffer, _Format, NULL, _ArgList);
; 1777 : 
; 1778 :         __crt_va_end(_ArgList);
; 1779 :         return _Result;
; 1780 :     }

  0002f	5d		 pop	 ebp
  00030	c3		 ret	 0
_sprintf ENDP
_TEXT	ENDS
; Function compile flags: /Ogtp
; File C:\Program Files (x86)\Windows Kits\10\Include\10.0.26100.0\ucrt\corecrt_stdio_config.h
;	COMDAT ___local_stdio_printf_options
_TEXT	SEGMENT
___local_stdio_printf_options PROC			; COMDAT

; 91   :         static unsigned __int64 _OptionsStorage;
; 92   :         return &_OptionsStorage;

  00000	b8 00 00 00 00	 mov	 eax, OFFSET ?_OptionsStorage@?1??__local_stdio_printf_options@@9@4_KA ; `__local_stdio_printf_options'::`2'::_OptionsStorage

; 93   :     }

  00005	c3		 ret	 0
___local_stdio_printf_options ENDP
_TEXT	ENDS
; Function compile flags: /Ogtp
; File C:\IAGOS\server\v18\Source\Source\_Database\DbManagerJoin.cpp
;	COMDAT ?__empty_global_delete@@YAXPAXI@Z
_TEXT	SEGMENT
___formal$ = 8						; size = 4
___formal$ = 12						; size = 4
?__empty_global_delete@@YAXPAXI@Z PROC			; __empty_global_delete, COMDAT

  00000	c2 00 00	 ret	 0
?__empty_global_delete@@YAXPAXI@Z ENDP			; __empty_global_delete
_TEXT	ENDS
; Function compile flags: /Ogtp
; File C:\IAGOS\server\v18\Source\Source\_Database\DbManagerJoin.cpp
;	COMDAT ?__empty_global_delete@@YAXPAX@Z
_TEXT	SEGMENT
___formal$ = 8						; size = 4
?__empty_global_delete@@YAXPAX@Z PROC			; __empty_global_delete, COMDAT

  00000	c2 00 00	 ret	 0
?__empty_global_delete@@YAXPAX@Z ENDP			; __empty_global_delete
_TEXT	ENDS
END
