; Listing generated by Microsoft (R) Optimizing Compiler Version 19.44.35225.0 

	TITLE	C:\IAGOS\server\v18\Source\Output\DatabaseServer\Release\DbManagerLog.obj
	.686P
	.XMM
	include listing.inc
	.model	flat

INCLUDELIB LIBCMT
INCLUDELIB OLDNAMES

PUBLIC	?__empty_global_delete@@YAXPAX@Z		; __empty_global_delete
PUBLIC	?__empty_global_delete@@YAXPAXI@Z		; __empty_global_delete
PUBLIC	___local_stdio_printf_options
PUBLIC	_sprintf
PUBLIC	?AfxCrtErrorCheck@@YAHH@Z			; AfxCrtErrorCheck
PUBLIC	?AtlThrowImpl@ATL@@YGXJ@Z			; ATL::AtlThrowImpl
PUBLIC	??1?$CSimpleStringT@D$0A@@ATL@@QAE@XZ		; ATL::CSimpleStringT<char,0>::~CSimpleStringT<char,0>
PUBLIC	?SetString@?$CSimpleStringT@D$0A@@ATL@@QAEXPBDH@Z ; ATL::CSimpleStringT<char,0>::SetString
PUBLIC	?ThrowMemoryException@?$CSimpleStringT@D$0A@@ATL@@KAXXZ ; ATL::CSimpleStringT<char,0>::ThrowMemoryException
PUBLIC	?Fork@?$CSimpleStringT@D$0A@@ATL@@AAEXH@Z	; ATL::CSimpleStringT<char,0>::Fork
PUBLIC	?PrepareWrite2@?$CSimpleStringT@D$0A@@ATL@@AAEXH@Z ; ATL::CSimpleStringT<char,0>::PrepareWrite2
PUBLIC	?Reallocate@?$CSimpleStringT@D$0A@@ATL@@AAEXH@Z	; ATL::CSimpleStringT<char,0>::Reallocate
PUBLIC	??1?$CStringT@DV?$StrTraitMFC@DV?$ChTraitsCRT@D@ATL@@@@@ATL@@QAE@XZ ; ATL::CStringT<char,StrTraitMFC<char,ATL::ChTraitsCRT<char> > >::~CStringT<char,StrTraitMFC<char,ATL::ChTraitsCRT<char> > >
PUBLIC	?Replace@?$CStringT@DV?$StrTraitMFC@DV?$ChTraitsCRT@D@ATL@@@@@ATL@@QAEHDD@Z ; ATL::CStringT<char,StrTraitMFC<char,ATL::ChTraitsCRT<char> > >::Replace
PUBLIC	?Replace@?$CStringT@DV?$StrTraitMFC@DV?$ChTraitsCRT@D@ATL@@@@@ATL@@QAEHPBD0@Z ; ATL::CStringT<char,StrTraitMFC<char,ATL::ChTraitsCRT<char> > >::Replace
PUBLIC	?LoadStringA@?$CStringT@DV?$StrTraitMFC@DV?$ChTraitsCRT@D@ATL@@@@@ATL@@QAEHI@Z ; ATL::CStringT<char,StrTraitMFC<char,ATL::ChTraitsCRT<char> > >::LoadStringA
PUBLIC	?Format@CTime@ATL@@QBE?AV?$CStringT@DV?$StrTraitMFC@DV?$ChTraitsCRT@D@ATL@@@@@2@PBD@Z ; ATL::CTime::Format
PUBLIC	??0_LogItemInfo@@QAE@XZ				; _LogItemInfo::_LogItemInfo
PUBLIC	?Gamema_Chat@CDbManager@@QAEXPAVCQuery@@PAUtagDB_OVERLAPPED_PLUS@@@Z ; CDbManager::Gamema_Chat
PUBLIC	?call_uspLoggingTrade@CDbManager@@QAEHPAVCQuery@@HHKKKPBDHHHKHHHH_J@Z ; CDbManager::call_uspLoggingTrade
PUBLIC	?DBQryLog@CDbManager@@QAEXPAD0KH_JHHHHHHHHHHDH0MMMHH0KHH0HHH0H0HK@Z ; CDbManager::DBQryLog
PUBLIC	?DBQryNewItemLog@CDbManager@@QAEXPADABU_LogItemInfo@@@Z ; CDbManager::DBQryNewItemLog
PUBLIC	?LogPlayDeath@CDbManager@@AAEXPAVCQuery@@PAUtagDB_OVERLAPPED_PLUS@@@Z ; CDbManager::LogPlayDeath
PUBLIC	?LogLevelUp@CDbManager@@AAEXPAVCQuery@@PAUtagDB_OVERLAPPED_PLUS@@@Z ; CDbManager::LogLevelUp
PUBLIC	?LogServerDeath@CDbManager@@AAEXPAVCQuery@@PAUtagDB_OVERLAPPED_PLUS@@@Z ; CDbManager::LogServerDeath
PUBLIC	?LogUniqueItem@CDbManager@@AAEXPAVCQuery@@PAUtagDB_OVERLAPPED_PLUS@@@Z ; CDbManager::LogUniqueItem
PUBLIC	?LogQuest@CDbManager@@AAEXPAVCQuery@@PAUtagDB_OVERLAPPED_PLUS@@@Z ; CDbManager::LogQuest
PUBLIC	?LogPkPvp@CDbManager@@AAEXPAVCQuery@@PAUtagDB_OVERLAPPED_PLUS@@@Z ; CDbManager::LogPkPvp
PUBLIC	?LogSchool@CDbManager@@AAEXPAVCQuery@@PAUtagDB_OVERLAPPED_PLUS@@@Z ; CDbManager::LogSchool
PUBLIC	?LogSkillPoint@CDbManager@@AAEXPAVCQuery@@PAUtagDB_OVERLAPPED_PLUS@@@Z ; CDbManager::LogSkillPoint
PUBLIC	?LogItem@CDbManager@@AAEXPAVCQuery@@PAUtagDB_OVERLAPPED_PLUS@@@Z ; CDbManager::LogItem
PUBLIC	?LogConcurrentUserNumber@CDbManager@@AAEXPAVCQuery@@PAUtagDB_OVERLAPPED_PLUS@@@Z ; CDbManager::LogConcurrentUserNumber
PUBLIC	?LogInstanceDungeon@CDbManager@@AAEXPAVCQuery@@PAUtagDB_OVERLAPPED_PLUS@@@Z ; CDbManager::LogInstanceDungeon
PUBLIC	?LogError@CDbManager@@AAEXPAVCQuery@@PAUtagDB_OVERLAPPED_PLUS@@@Z ; CDbManager::LogError
PUBLIC	?LogGuildFurniture@CDbManager@@AAEXPAVCQuery@@PAUtagDB_OVERLAPPED_PLUS@@@Z ; CDbManager::LogGuildFurniture
PUBLIC	?LogGetHonorTime@CDbManager@@AAEXPAVCQuery@@PAUtagDB_OVERLAPPED_PLUS@@@Z ; CDbManager::LogGetHonorTime
PUBLIC	?LogExpBox@CDbManager@@AAEXPAVCQuery@@PAUtagDB_OVERLAPPED_PLUS@@@Z ; CDbManager::LogExpBox
PUBLIC	??$?5H@CAr@@QAEAAV0@AAH@Z			; CAr::operator>><int>
PUBLIC	??$?5K@CAr@@QAEAAV0@AAK@Z			; CAr::operator>><unsigned long>
PUBLIC	??$?5UD3DXVECTOR3@@@CAr@@QAEAAV0@AAUD3DXVECTOR3@@@Z ; CAr::operator>><D3DXVECTOR3>
PUBLIC	??$?5F@CAr@@QAEAAV0@AAF@Z			; CAr::operator>><short>
PUBLIC	??$?5_J@CAr@@QAEAAV0@AA_J@Z			; CAr::operator>><__int64>
PUBLIC	??$?5E@CAr@@QAEAAV0@AAE@Z			; CAr::operator>><unsigned char>
PUBLIC	??$?5G@CAr@@QAEAAV0@AAG@Z			; CAr::operator>><unsigned short>
PUBLIC	??$?5D@CAr@@QAEAAV0@AAD@Z			; CAr::operator>><char>
PUBLIC	?_OptionsStorage@?1??__local_stdio_printf_options@@9@4_KA ; `__local_stdio_printf_options'::`2'::_OptionsStorage
PUBLIC	??_C@_02DPKJAMEF@?$CFd@				; `string'
PUBLIC	??_C@_00CNPNBAHC@@				; `string'
PUBLIC	??_C@_09GBAEEKDE@?$CFs?0?5?$CFd?7?$CFs@		; `string'
PUBLIC	??_C@_0DN@OEMKJAPO@C?3?2IAGOS?2server?2v18?2Source?2Sour@ ; `string'
PUBLIC	??_C@_0O@MCAKDACP@?$CFs?0?5?$CFd?7?$CFs?0?5?$CFs@ ; `string'
PUBLIC	??_C@_0BG@BLEGKHDP@LogItem?5?$CFs?0?5?$CFd?7?$CFs?0?5?$CFs@ ; `string'
PUBLIC	??_C@_0BF@KEJHODAO@?5LogItem?5Qyery?5?$DN?$DO?5?$CFs@ ; `string'
PUBLIC	??_C@_01CLKCMJKC@?5@				; `string'
PUBLIC	??_C@_01GEODFPGF@?8@				; `string'
PUBLIC	??_C@_02JEEOAGDI@L2@				; `string'
PUBLIC	??_C@_09GEIHMOKC@?$CFs?0?5?$CFd?7?$CFd@		; `string'
PUBLIC	??_C@_09CLMGFIGF@?$CFs?0?5?$CFd?7?$CFc@		; `string'
PUBLIC	??_C@_02LPGDFFPL@L1@				; `string'
PUBLIC	??_C@_0O@NMNJACAM@?$CFs?0?5?$CFd?7?$CFd?0?5?$CFs@ ; `string'
PUBLIC	??_C@_0N@BNMNAMM@?$CFY?$CFm?$CFd?$CFH?$CFM?$CFS@ ; `string'
PUBLIC	??_C@_02GOKBOOLC@L8@				; `string'
PUBLIC	??_C@_0DO@JFEBANLH@uspHonorLog?5?$EAserverindex?$DN?8?$CF02d?8@ ; `string'
PUBLIC	??_C@_02MCBEKBLO@L4@				; `string'
PUBLIC	??_C@_02PACCMDDM@L6@				; `string'
PUBLIC	??_C@_02OJDJPCHN@L7@				; `string'
PUBLIC	??_C@_0CDJ@CLHOMLPK@LOG_STR?5?8?$CFs?8?0?$EAim_idPlayer?$DN?8?$CF07d@ ; `string'
PUBLIC	??_C@_02BAABKJLB@?9?9@				; `string'
PUBLIC	??_C@_02FMMEOLBI@?1?$CK@			; `string'
PUBLIC	??_C@_02CHHINNLG@?$CK?1@			; `string'
PUBLIC	??_C@_0EL@OGOADBGI@LOG_GAMEMASTER_STR?5?$EAim_idPlayer@ ; `string'
PUBLIC	??_C@_0BM@PFNCDNBM@LOG_USER_CNT_STR?5?8?$CF02d?8?0?5?$CFd@ ; `string'
PUBLIC	??_C@_04KCMJEPHB@?0?5?$CFd@			; `string'
PUBLIC	??_C@_02JAFMCMAN@LA@				; `string'
PUBLIC	??_C@_0EO@NODPKHNH@LOG_EVENT_STR?5?$EAim_idPlayer?5?$DN?5?8?$CF@ ; `string'
PUBLIC	??_C@_0EC@CBOOBAOL@uspLoggingAcquireSkillPoint?5?8?$CF0@ ; `string'
PUBLIC	??_C@_0EC@DIPFCBKK@uspLoggingAcquireSkillPoint?5?8?$CF0@ ; `string'
PUBLIC	??_C@_0EA@PKCEFONH@uspLoggingUsingSkillPoint?5?8?$CF02d@ ; `string'
PUBLIC	??_C@_0DDM@PEJILMGA@LOG_ITEM_STR?5?$EAim_szName?$DN?8?$CFs?8?0?$EAi@ ; `string'
PUBLIC	??_C@_0EL@JGHMGDLE@uspLoggingTrade?5?$EApFlag?$DN0?0?5?$EApTra@ ; `string'
PUBLIC	??_C@_0JF@NEPENEDF@uspLoggingTrade?5?$EApFlag?$DN1?0?5?$EApTra@ ; `string'
PUBLIC	??_C@_0MP@KFMPAGF@uspLoggingTrade?5?$EApFlag?$DN2?0?5?$EApTra@ ; `string'
PUBLIC	??_C@_0L@EBJDFKBI@?$CFs?0?5?$CFd?3?7?$CFs@	; `string'
PUBLIC	??_C@_0FN@JANPKKBA@uspLogExpBox?5?$EApserverindex?$DN?8?$CF02@ ; `string'
PUBLIC	??_C@_0IJ@FAMDIIKP@usp_Log_Ins_Dungeon_Insert?5?$EAser@ ; `string'
PUBLIC	??_C@_0ID@PMGIPGNI@usp_SystemError_Insert?5?$EAm_idPla@ ; `string'
PUBLIC	??_C@_0IN@GLPAOOJ@usp_GuildFurniture_Log?5?$EAserveri@ ; `string'
PUBLIC	__xmm@00000000000000000000006400000064
EXTRN	__invalid_parameter_noinfo:PROC
EXTRN	__errno:PROC
EXTRN	__imp__LoadResource@8:PROC
EXTRN	__imp__LockResource@4:PROC
EXTRN	__imp__SizeofResource@8:PROC
EXTRN	__imp__FindResourceW@12:PROC
EXTRN	__imp__lstrcpyA@8:PROC
EXTRN	__imp__WideCharToMultiByte@32:PROC
EXTRN	__mbsinc:PROC
EXTRN	__mbsnbcpy:PROC
EXTRN	__mbsstr:PROC
EXTRN	___stdio_common_vsprintf:PROC
EXTRN	__localtime64_s:PROC
EXTRN	__mktime64:PROC
EXTRN	_strftime:PROC
EXTRN	__time64:PROC
EXTRN	?AfxThrowMemoryException@@YGXXZ:PROC		; AfxThrowMemoryException
EXTRN	?AfxThrowInvalidArgException@@YGXXZ:PROC	; AfxThrowInvalidArgException
EXTRN	?AfxThrowOleException@@YGXJ@Z:PROC		; AfxThrowOleException
EXTRN	?AfxFindStringResourceHandle@@YGPAUHINSTANCE__@@I@Z:PROC ; AfxFindStringResourceHandle
EXTRN	?AfxGetStringManager@@YGPAUIAtlStringMgr@ATL@@XZ:PROC ; AfxGetStringManager
EXTRN	?WriteLog@@YAXPBDZZ:PROC			; WriteLog
EXTRN	?Exec@CQuery@@QAEHPBD@Z:PROC			; CQuery::Exec
EXTRN	?Execute@CQuery@@QAAHPBDZZ:PROC			; CQuery::Execute
EXTRN	??0CAr@@QAE@PAXI@Z:PROC				; CAr::CAr
EXTRN	??1CAr@@QAE@XZ:PROC				; CAr::~CAr
EXTRN	?Read@CAr@@QAEXPAXI@Z:PROC			; CAr::Read
EXTRN	?ReadString@CAr@@QAEPADPADH@Z:PROC		; CAr::ReadString
EXTRN	?FreeRequest@CDbManager@@QAEXPAUtagDB_OVERLAPPED_PLUS@@@Z:PROC ; CDbManager::FreeRequest
EXTRN	?GetTradeNo@CDbManager@@QAEHXZ:PROC		; CDbManager::GetTradeNo
EXTRN	??0GuildHouse_Furniture_Info@CGuildHouseBase@@QAE@KHUD3DXVECTOR3@@MJ@Z:PROC ; CGuildHouseBase::GuildHouse_Furniture_Info::GuildHouse_Furniture_Info
EXTRN	?Serialize@GuildHouse_Furniture_Info@CGuildHouseBase@@QAEXAAVCAr@@@Z:PROC ; CGuildHouseBase::GuildHouse_Furniture_Info::Serialize
EXTRN	@__security_check_cookie@4:PROC
EXTRN	___CxxFrameHandler3:PROC
EXTRN	__chkstk:PROC
EXTRN	_memcpy:PROC
EXTRN	_memmove:PROC
EXTRN	_memset:PROC
EXTRN	?g_appInfo@@3UAppInfo@@A:QWORD			; g_appInfo
EXTRN	___security_cookie:DWORD
EXTRN	__fltused:DWORD
;	COMDAT ?_OptionsStorage@?1??__local_stdio_printf_options@@9@4_KA
_BSS	SEGMENT
?_OptionsStorage@?1??__local_stdio_printf_options@@9@4_KA DQ 01H DUP (?) ; `__local_stdio_printf_options'::`2'::_OptionsStorage
_BSS	ENDS
;	COMDAT __xmm@00000000000000000000006400000064
CONST	SEGMENT
__xmm@00000000000000000000006400000064 DB 'd', 00H, 00H, 00H, 'd', 00H, 00H
	DB	00H, 00H, 00H, 00H, 00H, 00H, 00H, 00H, 00H
CONST	ENDS
;	COMDAT ??_C@_0IN@GLPAOOJ@usp_GuildFurniture_Log?5?$EAserveri@
CONST	SEGMENT
??_C@_0IN@GLPAOOJ@usp_GuildFurniture_Log?5?$EAserveri@ DB 'usp_GuildFurni'
	DB	'ture_Log @serverindex = ''%02d'', @m_idGuild = ''%06d'', @SEQ'
	DB	' = %d, @ItemIndex = %d, @tKeepTime = %d, @bSetup = %d, @nStat'
	DB	'e = ''%c''', 00H				; `string'
CONST	ENDS
;	COMDAT ??_C@_0ID@PMGIPGNI@usp_SystemError_Insert?5?$EAm_idPla@
CONST	SEGMENT
??_C@_0ID@PMGIPGNI@usp_SystemError_Insert?5?$EAm_idPla@ DB 'usp_SystemErr'
	DB	'or_Insert @m_idPlayer = ''%07d'', @serverindex = ''%02d'', @a'
	DB	'ccount = %s, @nChannel = %d, @chType = ''%c'', @szError = ''%'
	DB	's''', 00H					; `string'
CONST	ENDS
;	COMDAT ??_C@_0IJ@FAMDIIKP@usp_Log_Ins_Dungeon_Insert?5?$EAser@
CONST	SEGMENT
??_C@_0IJ@FAMDIIKP@usp_Log_Ins_Dungeon_Insert?5?$EAser@ DB 'usp_Log_Ins_D'
	DB	'ungeon_Insert @serverindex = ''%02d'', @m_DungeonID = ''%07d'''
	DB	', @m_WorldID = %d, @m_channel = %d, @m_Type = %d, @m_State = '
	DB	'''%c''', 00H				; `string'
CONST	ENDS
;	COMDAT ??_C@_0FN@JANPKKBA@uspLogExpBox?5?$EApserverindex?$DN?8?$CF02@
CONST	SEGMENT
??_C@_0FN@JANPKKBA@uspLogExpBox?5?$EApserverindex?$DN?8?$CF02@ DB 'uspLog'
	DB	'ExpBox @pserverindex=''%02d'', @pidPlayer=''%07d'', @pobjid=%'
	DB	'd, @piExp=%I64d, @pState=''%c''', 00H	; `string'
CONST	ENDS
;	COMDAT ??_C@_0L@EBJDFKBI@?$CFs?0?5?$CFd?3?7?$CFs@
CONST	SEGMENT
??_C@_0L@EBJDFKBI@?$CFs?0?5?$CFd?3?7?$CFs@ DB '%s, %d:', 09H, '%s', 00H ; `string'
CONST	ENDS
;	COMDAT ??_C@_0MP@KFMPAGF@uspLoggingTrade?5?$EApFlag?$DN2?0?5?$EApTra@
CONST	SEGMENT
??_C@_0MP@KFMPAGF@uspLoggingTrade?5?$EApFlag?$DN2?0?5?$EApTra@ DB 'uspLog'
	DB	'gingTrade @pFlag=2, @pTradeID=%d, @pserverindex=''%02d'', @pi'
	DB	'dPlayer=''%07d'', @pItemIndex=''%d'', @pItemSerialNum=%d, @pI'
	DB	'temCnt=%d, @pAbilityOpt=%d, @pItemResist=%d, @pResistAbilityO'
	DB	'pt=%d,@pRandomOpt=%I64d', 00H		; `string'
CONST	ENDS
;	COMDAT ??_C@_0JF@NEPENEDF@uspLoggingTrade?5?$EApFlag?$DN1?0?5?$EApTra@
CONST	SEGMENT
??_C@_0JF@NEPENEDF@uspLoggingTrade?5?$EApFlag?$DN1?0?5?$EApTra@ DB 'uspLo'
	DB	'ggingTrade @pFlag=1, @pTradeID=%d, @pserverindex=''%02d'', @p'
	DB	'WorldID=%d, @pidPlayer=''%07d'', @pTradeGold=%d, @pPlayerIP='''
	DB	'%s'', @pLevel=%d, @pJob=%d', 00H		; `string'
CONST	ENDS
;	COMDAT ??_C@_0EL@JGHMGDLE@uspLoggingTrade?5?$EApFlag?$DN0?0?5?$EApTra@
CONST	SEGMENT
??_C@_0EL@JGHMGDLE@uspLoggingTrade?5?$EApFlag?$DN0?0?5?$EApTra@ DB 'uspLo'
	DB	'ggingTrade @pFlag=0, @pTradeID=%d, @pserverindex=''%02d'', @p'
	DB	'WorldID=%d', 00H				; `string'
CONST	ENDS
;	COMDAT ??_C@_0DDM@PEJILMGA@LOG_ITEM_STR?5?$EAim_szName?$DN?8?$CFs?8?0?$EAi@
CONST	SEGMENT
??_C@_0DDM@PEJILMGA@LOG_ITEM_STR?5?$EAim_szName?$DN?8?$CFs?8?0?$EAi@ DB 'L'
	DB	'OG_ITEM_STR @im_szName=''%s'',@iserverindex=''%02d'',@im_Gets'
	DB	'zName=''%s'',@idwWorldID=%d,@im_dwGold=%d,@im_nRemainGold=%d,'
	DB	'@iItem_UniqueNo=%d,@iItem_Name=''%s'',@iItem_durability=%d,@i'
	DB	'm_nAbilityOption=%d,@Im_GetdwGold=%d,@iItem_count=%d,@iState='
	DB	'''%s'',@im_nSlot0=%d,@im_nSlot1=%d,@im_bItemResist=%d,@im_nRe'
	DB	'sistAbilityOption=%d,@im_bCharged=%d,@im_dwKeepTime=%d,@im_nR'
	DB	'andomOptItemId=%I64d,@inPiercedSize=%d,@iadwItemId0=%d,@iadwI'
	DB	'temId1=%d,@iadwItemId2=%d,@iadwItemId3=%d,@iadwItemId4=%d,@iM'
	DB	'axDurability=%d,@inPetKind=%d,@inPetLevel=%d,@idwPetExp=%d,@i'
	DB	'wPetEnergy=%d,@iwPetLife=%d,@inPetAL_D=%d,@inPetAL_C=%d,@inPe'
	DB	'tAL_B=%d,@inPetAL_A=%d,@inPetAL_S=%d,@iadwItemId5=%d,@iadwIte'
	DB	'mId6=%d,@iadwItemId7=%d,@iadwItemId8=%d,@iadwItemId9=%d,@inUM'
	DB	'PiercedSize=%d,@iadwUMItemId0=%d,@iadwUMItemId1=%d,@iadwUMIte'
	DB	'mId2=%d,@iadwUMItemId3=%d,@iadwUMItemId4=%d', 00H ; `string'
CONST	ENDS
;	COMDAT ??_C@_0EA@PKCEFONH@uspLoggingUsingSkillPoint?5?8?$CF02d@
CONST	SEGMENT
??_C@_0EA@PKCEFONH@uspLoggingUsingSkillPoint?5?8?$CF02d@ DB 'uspLoggingUs'
	DB	'ingSkillPoint ''%02d'',''%07d'',%d,%d,%d,%d,%d,%I64d,20', 00H ; `string'
CONST	ENDS
;	COMDAT ??_C@_0EC@DIPFCBKK@uspLoggingAcquireSkillPoint?5?8?$CF0@
CONST	SEGMENT
??_C@_0EC@DIPFCBKK@uspLoggingAcquireSkillPoint?5?8?$CF0@ DB 'uspLoggingAc'
	DB	'quireSkillPoint ''%02d'',''%07d'',%d,%d,%d,%d,%d,%I64d,11', 00H ; `string'
CONST	ENDS
;	COMDAT ??_C@_0EC@CBOOBAOL@uspLoggingAcquireSkillPoint?5?8?$CF0@
CONST	SEGMENT
??_C@_0EC@CBOOBAOL@uspLoggingAcquireSkillPoint?5?8?$CF0@ DB 'uspLoggingAc'
	DB	'quireSkillPoint ''%02d'',''%07d'',%d,%d,%d,%d,%d,%I64d,10', 00H ; `string'
CONST	ENDS
;	COMDAT ??_C@_0EO@NODPKHNH@LOG_EVENT_STR?5?$EAim_idPlayer?5?$DN?5?8?$CF@
CONST	SEGMENT
??_C@_0EO@NODPKHNH@LOG_EVENT_STR?5?$EAim_idPlayer?5?$DN?5?8?$CF@ DB 'LOG_'
	DB	'EVENT_STR @im_idPlayer = ''%07d'',@iserverindex = ''%02d'', @'
	DB	'im_szName = ''%s''', 00H			; `string'
CONST	ENDS
;	COMDAT ??_C@_02JAFMCMAN@LA@
CONST	SEGMENT
??_C@_02JAFMCMAN@LA@ DB 'LA', 00H			; `string'
CONST	ENDS
;	COMDAT ??_C@_04KCMJEPHB@?0?5?$CFd@
CONST	SEGMENT
??_C@_04KCMJEPHB@?0?5?$CFd@ DB ', %d', 00H		; `string'
CONST	ENDS
;	COMDAT ??_C@_0BM@PFNCDNBM@LOG_USER_CNT_STR?5?8?$CF02d?8?0?5?$CFd@
CONST	SEGMENT
??_C@_0BM@PFNCDNBM@LOG_USER_CNT_STR?5?8?$CF02d?8?0?5?$CFd@ DB 'LOG_USER_C'
	DB	'NT_STR ''%02d'', %d', 00H			; `string'
CONST	ENDS
;	COMDAT ??_C@_0EL@OGOADBGI@LOG_GAMEMASTER_STR?5?$EAim_idPlayer@
CONST	SEGMENT
??_C@_0EL@OGOADBGI@LOG_GAMEMASTER_STR?5?$EAim_idPlayer@ DB 'LOG_GAMEMASTE'
	DB	'R_STR @im_idPlayer=''%07d'',@iserverindex=''%02d'',@iszWords='
	DB	'''%s''', 00H				; `string'
CONST	ENDS
;	COMDAT ??_C@_02CHHINNLG@?$CK?1@
CONST	SEGMENT
??_C@_02CHHINNLG@?$CK?1@ DB '*/', 00H			; `string'
CONST	ENDS
;	COMDAT ??_C@_02FMMEOLBI@?1?$CK@
CONST	SEGMENT
??_C@_02FMMEOLBI@?1?$CK@ DB '/*', 00H			; `string'
CONST	ENDS
;	COMDAT ??_C@_02BAABKJLB@?9?9@
CONST	SEGMENT
??_C@_02BAABKJLB@?9?9@ DB '--', 00H			; `string'
CONST	ENDS
;	COMDAT ??_C@_0CDJ@CLHOMLPK@LOG_STR?5?8?$CFs?8?0?$EAim_idPlayer?$DN?8?$CF07d@
CONST	SEGMENT
??_C@_0CDJ@CLHOMLPK@LOG_STR?5?8?$CFs?8?0?$EAim_idPlayer?$DN?8?$CF07d@ DB 'L'
	DB	'OG_STR ''%s'',@im_idPlayer=''%07d'',@iserverindex=''%02d'',@i'
	DB	'm_nExp1=%I64d,@im_nLevel=%d,@im_nJob=%d,@im_nJobLv=%d,@im_nFl'
	DB	'ightLv=%d,@im_nStr=%d,@im_nDex=%d,@im_nInt=%d,@im_nSta=%d,@im'
	DB	'_nRemainGP=%d,@im_nRemainLP=%d,@iState=''%c'',@idwWorldID=%d,'
	DB	'@ikilled_m_szName=''%s'',@im_vPos_x=%f,@im_vPos_y=%f,@im_vPos'
	DB	'_z=%f,@iattackPower=%d,@imax_HP=%d,@im_GetszName=''%s'',@im_d'
	DB	'wGold=%d,@im_nRemainGold=%d,@iItem_UniqueNo=%d,@iItem_Name='''
	DB	'%s'',@iItem_durability=%d,@iItem_count=%d,@iItem_AddLv=%d,@iS'
	DB	'tart_Time=''%s'',@iTotalPlayTime=%d,@iremoteIP=''%s'',@iQuest'
	DB	'_Index=%d,@ikilled_m_idPlayer=''%07d''', 00H ; `string'
CONST	ENDS
;	COMDAT ??_C@_02OJDJPCHN@L7@
CONST	SEGMENT
??_C@_02OJDJPCHN@L7@ DB 'L7', 00H			; `string'
CONST	ENDS
;	COMDAT ??_C@_02PACCMDDM@L6@
CONST	SEGMENT
??_C@_02PACCMDDM@L6@ DB 'L6', 00H			; `string'
CONST	ENDS
;	COMDAT ??_C@_02MCBEKBLO@L4@
CONST	SEGMENT
??_C@_02MCBEKBLO@L4@ DB 'L4', 00H			; `string'
CONST	ENDS
;	COMDAT ??_C@_0DO@JFEBANLH@uspHonorLog?5?$EAserverindex?$DN?8?$CF02d?8@
CONST	SEGMENT
??_C@_0DO@JFEBANLH@uspHonorLog?5?$EAserverindex?$DN?8?$CF02d?8@ DB 'uspHo'
	DB	'norLog @serverindex=''%02d'',@idPlayer=''%07d'',@nHonor=''%d'''
	DB	00H						; `string'
CONST	ENDS
;	COMDAT ??_C@_02GOKBOOLC@L8@
CONST	SEGMENT
??_C@_02GOKBOOLC@L8@ DB 'L8', 00H			; `string'
CONST	ENDS
;	COMDAT ??_C@_0N@BNMNAMM@?$CFY?$CFm?$CFd?$CFH?$CFM?$CFS@
CONST	SEGMENT
??_C@_0N@BNMNAMM@?$CFY?$CFm?$CFd?$CFH?$CFM?$CFS@ DB '%Y%m%d%H%M%S', 00H ; `string'
CONST	ENDS
;	COMDAT ??_C@_0O@NMNJACAM@?$CFs?0?5?$CFd?7?$CFd?0?5?$CFs@
CONST	SEGMENT
??_C@_0O@NMNJACAM@?$CFs?0?5?$CFd?7?$CFd?0?5?$CFs@ DB '%s, %d', 09H, '%d, '
	DB	'%s', 00H					; `string'
CONST	ENDS
;	COMDAT ??_C@_02LPGDFFPL@L1@
CONST	SEGMENT
??_C@_02LPGDFFPL@L1@ DB 'L1', 00H			; `string'
CONST	ENDS
;	COMDAT ??_C@_09CLMGFIGF@?$CFs?0?5?$CFd?7?$CFc@
CONST	SEGMENT
??_C@_09CLMGFIGF@?$CFs?0?5?$CFd?7?$CFc@ DB '%s, %d', 09H, '%c', 00H ; `string'
CONST	ENDS
;	COMDAT ??_C@_09GEIHMOKC@?$CFs?0?5?$CFd?7?$CFd@
CONST	SEGMENT
??_C@_09GEIHMOKC@?$CFs?0?5?$CFd?7?$CFd@ DB '%s, %d', 09H, '%d', 00H ; `string'
CONST	ENDS
;	COMDAT ??_C@_02JEEOAGDI@L2@
CONST	SEGMENT
??_C@_02JEEOAGDI@L2@ DB 'L2', 00H			; `string'
CONST	ENDS
;	COMDAT ??_C@_01GEODFPGF@?8@
CONST	SEGMENT
??_C@_01GEODFPGF@?8@ DB '''', 00H			; `string'
CONST	ENDS
;	COMDAT ??_C@_01CLKCMJKC@?5@
CONST	SEGMENT
??_C@_01CLKCMJKC@?5@ DB ' ', 00H			; `string'
CONST	ENDS
;	COMDAT ??_C@_0BF@KEJHODAO@?5LogItem?5Qyery?5?$DN?$DO?5?$CFs@
CONST	SEGMENT
??_C@_0BF@KEJHODAO@?5LogItem?5Qyery?5?$DN?$DO?5?$CFs@ DB ' LogItem Qyery '
	DB	'=> %s', 00H					; `string'
CONST	ENDS
;	COMDAT ??_C@_0BG@BLEGKHDP@LogItem?5?$CFs?0?5?$CFd?7?$CFs?0?5?$CFs@
CONST	SEGMENT
??_C@_0BG@BLEGKHDP@LogItem?5?$CFs?0?5?$CFd?7?$CFs?0?5?$CFs@ DB 'LogItem %'
	DB	's, %d', 09H, '%s, %s', 00H			; `string'
CONST	ENDS
;	COMDAT ??_C@_0O@MCAKDACP@?$CFs?0?5?$CFd?7?$CFs?0?5?$CFs@
CONST	SEGMENT
??_C@_0O@MCAKDACP@?$CFs?0?5?$CFd?7?$CFs?0?5?$CFs@ DB '%s, %d', 09H, '%s, '
	DB	'%s', 00H					; `string'
CONST	ENDS
;	COMDAT ??_C@_0DN@OEMKJAPO@C?3?2IAGOS?2server?2v18?2Source?2Sour@
CONST	SEGMENT
??_C@_0DN@OEMKJAPO@C?3?2IAGOS?2server?2v18?2Source?2Sour@ DB 'C:\IAGOS\se'
	DB	'rver\v18\Source\Source\_Database\DbManagerLog.cpp', 00H ; `string'
CONST	ENDS
;	COMDAT ??_C@_09GBAEEKDE@?$CFs?0?5?$CFd?7?$CFs@
CONST	SEGMENT
??_C@_09GBAEEKDE@?$CFs?0?5?$CFd?7?$CFs@ DB '%s, %d', 09H, '%s', 00H ; `string'
CONST	ENDS
;	COMDAT ??_C@_00CNPNBAHC@@
CONST	SEGMENT
??_C@_00CNPNBAHC@@ DB 00H				; `string'
CONST	ENDS
;	COMDAT ??_C@_02DPKJAMEF@?$CFd@
CONST	SEGMENT
??_C@_02DPKJAMEF@?$CFd@ DB '%d', 00H			; `string'
CONST	ENDS
;	COMDAT xdata$x
xdata$x	SEGMENT
__unwindtable$?LogExpBox@CDbManager@@AAEXPAVCQuery@@PAUtagDB_OVERLAPPED_PLUS@@@Z DD 0ffffffffH
	DD	FLAT:__unwindfunclet$?LogExpBox@CDbManager@@AAEXPAVCQuery@@PAUtagDB_OVERLAPPED_PLUS@@@Z$0
__ehfuncinfo$?LogExpBox@CDbManager@@AAEXPAVCQuery@@PAUtagDB_OVERLAPPED_PLUS@@@Z DD 019930522H
	DD	01H
	DD	FLAT:__unwindtable$?LogExpBox@CDbManager@@AAEXPAVCQuery@@PAUtagDB_OVERLAPPED_PLUS@@@Z
	DD	2 DUP(00H)
	DD	2 DUP(00H)
	DD	00H
	DD	01H
xdata$x	ENDS
;	COMDAT xdata$x
xdata$x	SEGMENT
__unwindtable$?LogGetHonorTime@CDbManager@@AAEXPAVCQuery@@PAUtagDB_OVERLAPPED_PLUS@@@Z DD 0ffffffffH
	DD	FLAT:__unwindfunclet$?LogGetHonorTime@CDbManager@@AAEXPAVCQuery@@PAUtagDB_OVERLAPPED_PLUS@@@Z$0
__ehfuncinfo$?LogGetHonorTime@CDbManager@@AAEXPAVCQuery@@PAUtagDB_OVERLAPPED_PLUS@@@Z DD 019930522H
	DD	01H
	DD	FLAT:__unwindtable$?LogGetHonorTime@CDbManager@@AAEXPAVCQuery@@PAUtagDB_OVERLAPPED_PLUS@@@Z
	DD	2 DUP(00H)
	DD	2 DUP(00H)
	DD	00H
	DD	01H
xdata$x	ENDS
;	COMDAT xdata$x
xdata$x	SEGMENT
__unwindtable$?LogGuildFurniture@CDbManager@@AAEXPAVCQuery@@PAUtagDB_OVERLAPPED_PLUS@@@Z DD 0ffffffffH
	DD	FLAT:__unwindfunclet$?LogGuildFurniture@CDbManager@@AAEXPAVCQuery@@PAUtagDB_OVERLAPPED_PLUS@@@Z$0
__ehfuncinfo$?LogGuildFurniture@CDbManager@@AAEXPAVCQuery@@PAUtagDB_OVERLAPPED_PLUS@@@Z DD 019930522H
	DD	01H
	DD	FLAT:__unwindtable$?LogGuildFurniture@CDbManager@@AAEXPAVCQuery@@PAUtagDB_OVERLAPPED_PLUS@@@Z
	DD	2 DUP(00H)
	DD	2 DUP(00H)
	DD	00H
	DD	01H
xdata$x	ENDS
;	COMDAT xdata$x
xdata$x	SEGMENT
__unwindtable$?LogError@CDbManager@@AAEXPAVCQuery@@PAUtagDB_OVERLAPPED_PLUS@@@Z DD 0ffffffffH
	DD	FLAT:__unwindfunclet$?LogError@CDbManager@@AAEXPAVCQuery@@PAUtagDB_OVERLAPPED_PLUS@@@Z$0
__ehfuncinfo$?LogError@CDbManager@@AAEXPAVCQuery@@PAUtagDB_OVERLAPPED_PLUS@@@Z DD 019930522H
	DD	01H
	DD	FLAT:__unwindtable$?LogError@CDbManager@@AAEXPAVCQuery@@PAUtagDB_OVERLAPPED_PLUS@@@Z
	DD	2 DUP(00H)
	DD	2 DUP(00H)
	DD	00H
	DD	01H
xdata$x	ENDS
;	COMDAT xdata$x
xdata$x	SEGMENT
__unwindtable$?LogInstanceDungeon@CDbManager@@AAEXPAVCQuery@@PAUtagDB_OVERLAPPED_PLUS@@@Z DD 0ffffffffH
	DD	FLAT:__unwindfunclet$?LogInstanceDungeon@CDbManager@@AAEXPAVCQuery@@PAUtagDB_OVERLAPPED_PLUS@@@Z$0
__ehfuncinfo$?LogInstanceDungeon@CDbManager@@AAEXPAVCQuery@@PAUtagDB_OVERLAPPED_PLUS@@@Z DD 019930522H
	DD	01H
	DD	FLAT:__unwindtable$?LogInstanceDungeon@CDbManager@@AAEXPAVCQuery@@PAUtagDB_OVERLAPPED_PLUS@@@Z
	DD	2 DUP(00H)
	DD	2 DUP(00H)
	DD	00H
	DD	01H
xdata$x	ENDS
;	COMDAT xdata$x
xdata$x	SEGMENT
__unwindtable$?LogConcurrentUserNumber@CDbManager@@AAEXPAVCQuery@@PAUtagDB_OVERLAPPED_PLUS@@@Z DD 0ffffffffH
	DD	FLAT:__unwindfunclet$?LogConcurrentUserNumber@CDbManager@@AAEXPAVCQuery@@PAUtagDB_OVERLAPPED_PLUS@@@Z$0
__ehfuncinfo$?LogConcurrentUserNumber@CDbManager@@AAEXPAVCQuery@@PAUtagDB_OVERLAPPED_PLUS@@@Z DD 019930522H
	DD	01H
	DD	FLAT:__unwindtable$?LogConcurrentUserNumber@CDbManager@@AAEXPAVCQuery@@PAUtagDB_OVERLAPPED_PLUS@@@Z
	DD	2 DUP(00H)
	DD	2 DUP(00H)
	DD	00H
	DD	01H
xdata$x	ENDS
;	COMDAT xdata$x
xdata$x	SEGMENT
__ehfuncinfo$?LogItem@CDbManager@@AAEXPAVCQuery@@PAUtagDB_OVERLAPPED_PLUS@@@Z DD 019930522H
	DD	0bH
	DD	FLAT:__unwindtable$?LogItem@CDbManager@@AAEXPAVCQuery@@PAUtagDB_OVERLAPPED_PLUS@@@Z
	DD	2 DUP(00H)
	DD	2 DUP(00H)
	DD	00H
	DD	01H
__unwindtable$?LogItem@CDbManager@@AAEXPAVCQuery@@PAUtagDB_OVERLAPPED_PLUS@@@Z DD 0ffffffffH
	DD	FLAT:__unwindfunclet$?LogItem@CDbManager@@AAEXPAVCQuery@@PAUtagDB_OVERLAPPED_PLUS@@@Z$0
	DD	00H
	DD	FLAT:__unwindfunclet$?LogItem@CDbManager@@AAEXPAVCQuery@@PAUtagDB_OVERLAPPED_PLUS@@@Z$8
	DD	00H
	DD	FLAT:__unwindfunclet$?LogItem@CDbManager@@AAEXPAVCQuery@@PAUtagDB_OVERLAPPED_PLUS@@@Z$1
	DD	02H
	DD	FLAT:__unwindfunclet$?LogItem@CDbManager@@AAEXPAVCQuery@@PAUtagDB_OVERLAPPED_PLUS@@@Z$9
	DD	02H
	DD	FLAT:__unwindfunclet$?LogItem@CDbManager@@AAEXPAVCQuery@@PAUtagDB_OVERLAPPED_PLUS@@@Z$2
	DD	04H
	DD	FLAT:__unwindfunclet$?LogItem@CDbManager@@AAEXPAVCQuery@@PAUtagDB_OVERLAPPED_PLUS@@@Z$7
	DD	04H
	DD	FLAT:__unwindfunclet$?LogItem@CDbManager@@AAEXPAVCQuery@@PAUtagDB_OVERLAPPED_PLUS@@@Z$3
	DD	04H
	DD	FLAT:__unwindfunclet$?LogItem@CDbManager@@AAEXPAVCQuery@@PAUtagDB_OVERLAPPED_PLUS@@@Z$6
	DD	04H
	DD	FLAT:__unwindfunclet$?LogItem@CDbManager@@AAEXPAVCQuery@@PAUtagDB_OVERLAPPED_PLUS@@@Z$4
	DD	04H
	DD	FLAT:__unwindfunclet$?LogItem@CDbManager@@AAEXPAVCQuery@@PAUtagDB_OVERLAPPED_PLUS@@@Z$10
	DD	04H
	DD	FLAT:__unwindfunclet$?LogItem@CDbManager@@AAEXPAVCQuery@@PAUtagDB_OVERLAPPED_PLUS@@@Z$5
xdata$x	ENDS
;	COMDAT xdata$x
xdata$x	SEGMENT
__unwindtable$?LogSkillPoint@CDbManager@@AAEXPAVCQuery@@PAUtagDB_OVERLAPPED_PLUS@@@Z DD 0ffffffffH
	DD	FLAT:__unwindfunclet$?LogSkillPoint@CDbManager@@AAEXPAVCQuery@@PAUtagDB_OVERLAPPED_PLUS@@@Z$0
__ehfuncinfo$?LogSkillPoint@CDbManager@@AAEXPAVCQuery@@PAUtagDB_OVERLAPPED_PLUS@@@Z DD 019930522H
	DD	01H
	DD	FLAT:__unwindtable$?LogSkillPoint@CDbManager@@AAEXPAVCQuery@@PAUtagDB_OVERLAPPED_PLUS@@@Z
	DD	2 DUP(00H)
	DD	2 DUP(00H)
	DD	00H
	DD	01H
xdata$x	ENDS
;	COMDAT xdata$x
xdata$x	SEGMENT
__unwindtable$?LogSchool@CDbManager@@AAEXPAVCQuery@@PAUtagDB_OVERLAPPED_PLUS@@@Z DD 0ffffffffH
	DD	FLAT:__unwindfunclet$?LogSchool@CDbManager@@AAEXPAVCQuery@@PAUtagDB_OVERLAPPED_PLUS@@@Z$0
__ehfuncinfo$?LogSchool@CDbManager@@AAEXPAVCQuery@@PAUtagDB_OVERLAPPED_PLUS@@@Z DD 019930522H
	DD	01H
	DD	FLAT:__unwindtable$?LogSchool@CDbManager@@AAEXPAVCQuery@@PAUtagDB_OVERLAPPED_PLUS@@@Z
	DD	2 DUP(00H)
	DD	2 DUP(00H)
	DD	00H
	DD	01H
xdata$x	ENDS
;	COMDAT xdata$x
xdata$x	SEGMENT
__unwindtable$?LogPkPvp@CDbManager@@AAEXPAVCQuery@@PAUtagDB_OVERLAPPED_PLUS@@@Z DD 0ffffffffH
	DD	FLAT:__unwindfunclet$?LogPkPvp@CDbManager@@AAEXPAVCQuery@@PAUtagDB_OVERLAPPED_PLUS@@@Z$0
__ehfuncinfo$?LogPkPvp@CDbManager@@AAEXPAVCQuery@@PAUtagDB_OVERLAPPED_PLUS@@@Z DD 019930522H
	DD	01H
	DD	FLAT:__unwindtable$?LogPkPvp@CDbManager@@AAEXPAVCQuery@@PAUtagDB_OVERLAPPED_PLUS@@@Z
	DD	2 DUP(00H)
	DD	2 DUP(00H)
	DD	00H
	DD	01H
xdata$x	ENDS
;	COMDAT xdata$x
xdata$x	SEGMENT
__unwindtable$?LogQuest@CDbManager@@AAEXPAVCQuery@@PAUtagDB_OVERLAPPED_PLUS@@@Z DD 0ffffffffH
	DD	FLAT:__unwindfunclet$?LogQuest@CDbManager@@AAEXPAVCQuery@@PAUtagDB_OVERLAPPED_PLUS@@@Z$0
	DD	00H
	DD	FLAT:__unwindfunclet$?LogQuest@CDbManager@@AAEXPAVCQuery@@PAUtagDB_OVERLAPPED_PLUS@@@Z$1
__ehfuncinfo$?LogQuest@CDbManager@@AAEXPAVCQuery@@PAUtagDB_OVERLAPPED_PLUS@@@Z DD 019930522H
	DD	02H
	DD	FLAT:__unwindtable$?LogQuest@CDbManager@@AAEXPAVCQuery@@PAUtagDB_OVERLAPPED_PLUS@@@Z
	DD	2 DUP(00H)
	DD	2 DUP(00H)
	DD	00H
	DD	01H
xdata$x	ENDS
;	COMDAT xdata$x
xdata$x	SEGMENT
__unwindtable$?LogUniqueItem@CDbManager@@AAEXPAVCQuery@@PAUtagDB_OVERLAPPED_PLUS@@@Z DD 0ffffffffH
	DD	FLAT:__unwindfunclet$?LogUniqueItem@CDbManager@@AAEXPAVCQuery@@PAUtagDB_OVERLAPPED_PLUS@@@Z$0
__ehfuncinfo$?LogUniqueItem@CDbManager@@AAEXPAVCQuery@@PAUtagDB_OVERLAPPED_PLUS@@@Z DD 019930522H
	DD	01H
	DD	FLAT:__unwindtable$?LogUniqueItem@CDbManager@@AAEXPAVCQuery@@PAUtagDB_OVERLAPPED_PLUS@@@Z
	DD	2 DUP(00H)
	DD	2 DUP(00H)
	DD	00H
	DD	01H
xdata$x	ENDS
;	COMDAT xdata$x
xdata$x	SEGMENT
__unwindtable$?LogServerDeath@CDbManager@@AAEXPAVCQuery@@PAUtagDB_OVERLAPPED_PLUS@@@Z DD 0ffffffffH
	DD	FLAT:__unwindfunclet$?LogServerDeath@CDbManager@@AAEXPAVCQuery@@PAUtagDB_OVERLAPPED_PLUS@@@Z$0
	DD	00H
	DD	FLAT:__unwindfunclet$?LogServerDeath@CDbManager@@AAEXPAVCQuery@@PAUtagDB_OVERLAPPED_PLUS@@@Z$1
__ehfuncinfo$?LogServerDeath@CDbManager@@AAEXPAVCQuery@@PAUtagDB_OVERLAPPED_PLUS@@@Z DD 019930522H
	DD	02H
	DD	FLAT:__unwindtable$?LogServerDeath@CDbManager@@AAEXPAVCQuery@@PAUtagDB_OVERLAPPED_PLUS@@@Z
	DD	2 DUP(00H)
	DD	2 DUP(00H)
	DD	00H
	DD	01H
xdata$x	ENDS
;	COMDAT xdata$x
xdata$x	SEGMENT
__unwindtable$?LogLevelUp@CDbManager@@AAEXPAVCQuery@@PAUtagDB_OVERLAPPED_PLUS@@@Z DD 0ffffffffH
	DD	FLAT:__unwindfunclet$?LogLevelUp@CDbManager@@AAEXPAVCQuery@@PAUtagDB_OVERLAPPED_PLUS@@@Z$0
__ehfuncinfo$?LogLevelUp@CDbManager@@AAEXPAVCQuery@@PAUtagDB_OVERLAPPED_PLUS@@@Z DD 019930522H
	DD	01H
	DD	FLAT:__unwindtable$?LogLevelUp@CDbManager@@AAEXPAVCQuery@@PAUtagDB_OVERLAPPED_PLUS@@@Z
	DD	2 DUP(00H)
	DD	2 DUP(00H)
	DD	00H
	DD	01H
xdata$x	ENDS
;	COMDAT xdata$x
xdata$x	SEGMENT
__unwindtable$?LogPlayDeath@CDbManager@@AAEXPAVCQuery@@PAUtagDB_OVERLAPPED_PLUS@@@Z DD 0ffffffffH
	DD	FLAT:__unwindfunclet$?LogPlayDeath@CDbManager@@AAEXPAVCQuery@@PAUtagDB_OVERLAPPED_PLUS@@@Z$0
	DD	00H
	DD	FLAT:__unwindfunclet$?LogPlayDeath@CDbManager@@AAEXPAVCQuery@@PAUtagDB_OVERLAPPED_PLUS@@@Z$2
	DD	00H
	DD	FLAT:__unwindfunclet$?LogPlayDeath@CDbManager@@AAEXPAVCQuery@@PAUtagDB_OVERLAPPED_PLUS@@@Z$1
__ehfuncinfo$?LogPlayDeath@CDbManager@@AAEXPAVCQuery@@PAUtagDB_OVERLAPPED_PLUS@@@Z DD 019930522H
	DD	03H
	DD	FLAT:__unwindtable$?LogPlayDeath@CDbManager@@AAEXPAVCQuery@@PAUtagDB_OVERLAPPED_PLUS@@@Z
	DD	2 DUP(00H)
	DD	2 DUP(00H)
	DD	00H
	DD	01H
xdata$x	ENDS
;	COMDAT xdata$x
xdata$x	SEGMENT
__unwindtable$?DBQryLog@CDbManager@@QAEXPAD0KH_JHHHHHHHHHHDH0MMMHH0KHH0HHH0H0HK@Z DD 0ffffffffH
	DD	FLAT:__unwindfunclet$?DBQryLog@CDbManager@@QAEXPAD0KH_JHHHHHHHHHHDH0MMMHH0KHH0HHH0H0HK@Z$1
	DD	0ffffffffH
	DD	FLAT:__unwindfunclet$?DBQryLog@CDbManager@@QAEXPAD0KH_JHHHHHHHHHHDH0MMMHH0KHH0HHH0H0HK@Z$0
__ehfuncinfo$?DBQryLog@CDbManager@@QAEXPAD0KH_JHHHHHHHHHHDH0MMMHH0KHH0HHH0H0HK@Z DD 019930522H
	DD	02H
	DD	FLAT:__unwindtable$?DBQryLog@CDbManager@@QAEXPAD0KH_JHHHHHHHHHHDH0MMMHH0KHH0HHH0H0HK@Z
	DD	2 DUP(00H)
	DD	2 DUP(00H)
	DD	00H
	DD	01H
xdata$x	ENDS
;	COMDAT xdata$x
xdata$x	SEGMENT
__unwindtable$?Gamema_Chat@CDbManager@@QAEXPAVCQuery@@PAUtagDB_OVERLAPPED_PLUS@@@Z DD 0ffffffffH
	DD	FLAT:__unwindfunclet$?Gamema_Chat@CDbManager@@QAEXPAVCQuery@@PAUtagDB_OVERLAPPED_PLUS@@@Z$0
	DD	00H
	DD	FLAT:__unwindfunclet$?Gamema_Chat@CDbManager@@QAEXPAVCQuery@@PAUtagDB_OVERLAPPED_PLUS@@@Z$2
	DD	00H
	DD	FLAT:__unwindfunclet$?Gamema_Chat@CDbManager@@QAEXPAVCQuery@@PAUtagDB_OVERLAPPED_PLUS@@@Z$1
__ehfuncinfo$?Gamema_Chat@CDbManager@@QAEXPAVCQuery@@PAUtagDB_OVERLAPPED_PLUS@@@Z DD 019930522H
	DD	03H
	DD	FLAT:__unwindtable$?Gamema_Chat@CDbManager@@QAEXPAVCQuery@@PAUtagDB_OVERLAPPED_PLUS@@@Z
	DD	2 DUP(00H)
	DD	2 DUP(00H)
	DD	00H
	DD	01H
xdata$x	ENDS
;	COMDAT xdata$x
xdata$x	SEGMENT
__unwindtable$?Format@CTime@ATL@@QBE?AV?$CStringT@DV?$StrTraitMFC@DV?$ChTraitsCRT@D@ATL@@@@@2@PBD@Z DD 0ffffffffH
	DD	FLAT:__unwindfunclet$?Format@CTime@ATL@@QBE?AV?$CStringT@DV?$StrTraitMFC@DV?$ChTraitsCRT@D@ATL@@@@@2@PBD@Z$1
	DD	0ffffffffH
	DD	FLAT:__unwindfunclet$?Format@CTime@ATL@@QBE?AV?$CStringT@DV?$StrTraitMFC@DV?$ChTraitsCRT@D@ATL@@@@@2@PBD@Z$2
__ehfuncinfo$?Format@CTime@ATL@@QBE?AV?$CStringT@DV?$StrTraitMFC@DV?$ChTraitsCRT@D@ATL@@@@@2@PBD@Z DD 019930522H
	DD	02H
	DD	FLAT:__unwindtable$?Format@CTime@ATL@@QBE?AV?$CStringT@DV?$StrTraitMFC@DV?$ChTraitsCRT@D@ATL@@@@@2@PBD@Z
	DD	2 DUP(00H)
	DD	2 DUP(00H)
	DD	00H
	DD	01H
xdata$x	ENDS
;	COMDAT xdata$x
xdata$x	SEGMENT
__unwindtable$??0?$CStringT@DV?$StrTraitMFC@DV?$ChTraitsCRT@D@ATL@@@@@ATL@@QAE@PBD@Z DD 0ffffffffH
	DD	FLAT:__unwindfunclet$??0?$CStringT@DV?$StrTraitMFC@DV?$ChTraitsCRT@D@ATL@@@@@ATL@@QAE@PBD@Z$0
__ehfuncinfo$??0?$CStringT@DV?$StrTraitMFC@DV?$ChTraitsCRT@D@ATL@@@@@ATL@@QAE@PBD@Z DD 019930522H
	DD	01H
	DD	FLAT:__unwindtable$??0?$CStringT@DV?$StrTraitMFC@DV?$ChTraitsCRT@D@ATL@@@@@ATL@@QAE@PBD@Z
	DD	2 DUP(00H)
	DD	2 DUP(00H)
	DD	00H
	DD	01H
xdata$x	ENDS
; Function compile flags: /Ogtp
; File C:\IAGOS\server\v18\Source\Source\_Network\Misc\Include\Ar.h
;	COMDAT ??$?5D@CAr@@QAEAAV0@AAD@Z
_TEXT	SEGMENT
_t$ = 8							; size = 4
??$?5D@CAr@@QAEAAV0@AAD@Z PROC				; CAr::operator>><char>, COMDAT
; _this$ = ecx

; 302  : {

  00000	55		 push	 ebp
  00001	8b ec		 mov	 ebp, esp
  00003	8b d1		 mov	 edx, ecx

; 303  : 	if (m_lpBufCur + sizeof(T) <= m_lpBufMax)

  00005	8b 4a 08	 mov	 ecx, DWORD PTR [edx+8]
  00008	8d 41 01	 lea	 eax, DWORD PTR [ecx+1]
  0000b	3b 42 0c	 cmp	 eax, DWORD PTR [edx+12]
  0000e	8b 45 08	 mov	 eax, DWORD PTR _t$[ebp]
  00011	77 0d		 ja	 SHORT $LN2@operator

; 304  : 	{
; 305  : 		t = *(UNALIGNED T*)m_lpBufCur;

  00013	8a 09		 mov	 cl, BYTE PTR [ecx]
  00015	88 08		 mov	 BYTE PTR [eax], cl

; 312  : 	}
; 313  : 	return *this;
; 314  : }

  00017	8b c2		 mov	 eax, edx
  00019	ff 42 08	 inc	 DWORD PTR [edx+8]
  0001c	5d		 pop	 ebp
  0001d	c2 04 00	 ret	 4
$LN2@operator:

; 306  : 		m_lpBufCur += sizeof(T);
; 307  : 	}
; 308  : 	else
; 309  : 	{
; 310  : 		t = T();

  00020	c6 00 00	 mov	 BYTE PTR [eax], 0

; 311  : 		m_lpBufCur = m_lpBufMax;

  00023	8b 42 0c	 mov	 eax, DWORD PTR [edx+12]
  00026	89 42 08	 mov	 DWORD PTR [edx+8], eax

; 312  : 	}
; 313  : 	return *this;
; 314  : }

  00029	8b c2		 mov	 eax, edx
  0002b	5d		 pop	 ebp
  0002c	c2 04 00	 ret	 4
??$?5D@CAr@@QAEAAV0@AAD@Z ENDP				; CAr::operator>><char>
_TEXT	ENDS
; Function compile flags: /Ogtp
; File C:\IAGOS\server\v18\Source\Source\_Network\Misc\Include\Ar.h
;	COMDAT ??$?5G@CAr@@QAEAAV0@AAG@Z
_TEXT	SEGMENT
_t$ = 8							; size = 4
??$?5G@CAr@@QAEAAV0@AAG@Z PROC				; CAr::operator>><unsigned short>, COMDAT
; _this$ = ecx

; 302  : {

  00000	55		 push	 ebp
  00001	8b ec		 mov	 ebp, esp
  00003	8b d1		 mov	 edx, ecx

; 303  : 	if (m_lpBufCur + sizeof(T) <= m_lpBufMax)

  00005	8b 4a 08	 mov	 ecx, DWORD PTR [edx+8]
  00008	8d 41 02	 lea	 eax, DWORD PTR [ecx+2]
  0000b	3b 42 0c	 cmp	 eax, DWORD PTR [edx+12]
  0000e	8b 45 08	 mov	 eax, DWORD PTR _t$[ebp]
  00011	77 10		 ja	 SHORT $LN2@operator

; 304  : 	{
; 305  : 		t = *(UNALIGNED T*)m_lpBufCur;

  00013	66 8b 09	 mov	 cx, WORD PTR [ecx]
  00016	66 89 08	 mov	 WORD PTR [eax], cx

; 312  : 	}
; 313  : 	return *this;
; 314  : }

  00019	8b c2		 mov	 eax, edx
  0001b	83 42 08 02	 add	 DWORD PTR [edx+8], 2
  0001f	5d		 pop	 ebp
  00020	c2 04 00	 ret	 4
$LN2@operator:

; 306  : 		m_lpBufCur += sizeof(T);
; 307  : 	}
; 308  : 	else
; 309  : 	{
; 310  : 		t = T();

  00023	33 c9		 xor	 ecx, ecx
  00025	66 89 08	 mov	 WORD PTR [eax], cx

; 311  : 		m_lpBufCur = m_lpBufMax;

  00028	8b 42 0c	 mov	 eax, DWORD PTR [edx+12]
  0002b	89 42 08	 mov	 DWORD PTR [edx+8], eax

; 312  : 	}
; 313  : 	return *this;
; 314  : }

  0002e	8b c2		 mov	 eax, edx
  00030	5d		 pop	 ebp
  00031	c2 04 00	 ret	 4
??$?5G@CAr@@QAEAAV0@AAG@Z ENDP				; CAr::operator>><unsigned short>
_TEXT	ENDS
; Function compile flags: /Ogtp
; File C:\IAGOS\server\v18\Source\Source\_Network\Misc\Include\Ar.h
;	COMDAT ??$?5E@CAr@@QAEAAV0@AAE@Z
_TEXT	SEGMENT
_t$ = 8							; size = 4
??$?5E@CAr@@QAEAAV0@AAE@Z PROC				; CAr::operator>><unsigned char>, COMDAT
; _this$ = ecx

; 302  : {

  00000	55		 push	 ebp
  00001	8b ec		 mov	 ebp, esp
  00003	8b d1		 mov	 edx, ecx

; 303  : 	if (m_lpBufCur + sizeof(T) <= m_lpBufMax)

  00005	8b 4a 08	 mov	 ecx, DWORD PTR [edx+8]
  00008	8d 41 01	 lea	 eax, DWORD PTR [ecx+1]
  0000b	3b 42 0c	 cmp	 eax, DWORD PTR [edx+12]
  0000e	8b 45 08	 mov	 eax, DWORD PTR _t$[ebp]
  00011	77 0d		 ja	 SHORT $LN2@operator

; 304  : 	{
; 305  : 		t = *(UNALIGNED T*)m_lpBufCur;

  00013	8a 09		 mov	 cl, BYTE PTR [ecx]
  00015	88 08		 mov	 BYTE PTR [eax], cl

; 312  : 	}
; 313  : 	return *this;
; 314  : }

  00017	8b c2		 mov	 eax, edx
  00019	ff 42 08	 inc	 DWORD PTR [edx+8]
  0001c	5d		 pop	 ebp
  0001d	c2 04 00	 ret	 4
$LN2@operator:

; 306  : 		m_lpBufCur += sizeof(T);
; 307  : 	}
; 308  : 	else
; 309  : 	{
; 310  : 		t = T();

  00020	c6 00 00	 mov	 BYTE PTR [eax], 0

; 311  : 		m_lpBufCur = m_lpBufMax;

  00023	8b 42 0c	 mov	 eax, DWORD PTR [edx+12]
  00026	89 42 08	 mov	 DWORD PTR [edx+8], eax

; 312  : 	}
; 313  : 	return *this;
; 314  : }

  00029	8b c2		 mov	 eax, edx
  0002b	5d		 pop	 ebp
  0002c	c2 04 00	 ret	 4
??$?5E@CAr@@QAEAAV0@AAE@Z ENDP				; CAr::operator>><unsigned char>
_TEXT	ENDS
; Function compile flags: /Ogtp
; File C:\IAGOS\server\v18\Source\Source\_Network\Misc\Include\Ar.h
;	COMDAT ??$?5_J@CAr@@QAEAAV0@AA_J@Z
_TEXT	SEGMENT
_t$ = 8							; size = 4
??$?5_J@CAr@@QAEAAV0@AA_J@Z PROC			; CAr::operator>><__int64>, COMDAT
; _this$ = ecx

; 302  : {

  00000	55		 push	 ebp
  00001	8b ec		 mov	 ebp, esp
  00003	56		 push	 esi
  00004	8b f1		 mov	 esi, ecx

; 303  : 	if (m_lpBufCur + sizeof(T) <= m_lpBufMax)

  00006	8b 56 08	 mov	 edx, DWORD PTR [esi+8]
  00009	8d 42 08	 lea	 eax, DWORD PTR [edx+8]
  0000c	3b 46 0c	 cmp	 eax, DWORD PTR [esi+12]
  0000f	8b 45 08	 mov	 eax, DWORD PTR _t$[ebp]
  00012	77 15		 ja	 SHORT $LN2@operator

; 304  : 	{
; 305  : 		t = *(UNALIGNED T*)m_lpBufCur;

  00014	8b 0a		 mov	 ecx, DWORD PTR [edx]
  00016	8b 52 04	 mov	 edx, DWORD PTR [edx+4]
  00019	89 08		 mov	 DWORD PTR [eax], ecx
  0001b	89 50 04	 mov	 DWORD PTR [eax+4], edx

; 312  : 	}
; 313  : 	return *this;
; 314  : }

  0001e	8b c6		 mov	 eax, esi
  00020	83 46 08 08	 add	 DWORD PTR [esi+8], 8
  00024	5e		 pop	 esi
  00025	5d		 pop	 ebp
  00026	c2 04 00	 ret	 4
$LN2@operator:

; 306  : 		m_lpBufCur += sizeof(T);
; 307  : 	}
; 308  : 	else
; 309  : 	{
; 310  : 		t = T();

  00029	c7 00 00 00 00
	00		 mov	 DWORD PTR [eax], 0
  0002f	c7 40 04 00 00
	00 00		 mov	 DWORD PTR [eax+4], 0

; 311  : 		m_lpBufCur = m_lpBufMax;

  00036	8b 46 0c	 mov	 eax, DWORD PTR [esi+12]
  00039	89 46 08	 mov	 DWORD PTR [esi+8], eax

; 312  : 	}
; 313  : 	return *this;
; 314  : }

  0003c	8b c6		 mov	 eax, esi
  0003e	5e		 pop	 esi
  0003f	5d		 pop	 ebp
  00040	c2 04 00	 ret	 4
??$?5_J@CAr@@QAEAAV0@AA_J@Z ENDP			; CAr::operator>><__int64>
_TEXT	ENDS
; Function compile flags: /Ogtp
; File C:\IAGOS\server\v18\Source\Source\_Network\Misc\Include\Ar.h
;	COMDAT ??$?5F@CAr@@QAEAAV0@AAF@Z
_TEXT	SEGMENT
_t$ = 8							; size = 4
??$?5F@CAr@@QAEAAV0@AAF@Z PROC				; CAr::operator>><short>, COMDAT
; _this$ = ecx

; 302  : {

  00000	55		 push	 ebp
  00001	8b ec		 mov	 ebp, esp
  00003	8b d1		 mov	 edx, ecx

; 303  : 	if (m_lpBufCur + sizeof(T) <= m_lpBufMax)

  00005	8b 4a 08	 mov	 ecx, DWORD PTR [edx+8]
  00008	8d 41 02	 lea	 eax, DWORD PTR [ecx+2]
  0000b	3b 42 0c	 cmp	 eax, DWORD PTR [edx+12]
  0000e	8b 45 08	 mov	 eax, DWORD PTR _t$[ebp]
  00011	77 10		 ja	 SHORT $LN2@operator

; 304  : 	{
; 305  : 		t = *(UNALIGNED T*)m_lpBufCur;

  00013	66 8b 09	 mov	 cx, WORD PTR [ecx]
  00016	66 89 08	 mov	 WORD PTR [eax], cx

; 312  : 	}
; 313  : 	return *this;
; 314  : }

  00019	8b c2		 mov	 eax, edx
  0001b	83 42 08 02	 add	 DWORD PTR [edx+8], 2
  0001f	5d		 pop	 ebp
  00020	c2 04 00	 ret	 4
$LN2@operator:

; 306  : 		m_lpBufCur += sizeof(T);
; 307  : 	}
; 308  : 	else
; 309  : 	{
; 310  : 		t = T();

  00023	33 c9		 xor	 ecx, ecx
  00025	66 89 08	 mov	 WORD PTR [eax], cx

; 311  : 		m_lpBufCur = m_lpBufMax;

  00028	8b 42 0c	 mov	 eax, DWORD PTR [edx+12]
  0002b	89 42 08	 mov	 DWORD PTR [edx+8], eax

; 312  : 	}
; 313  : 	return *this;
; 314  : }

  0002e	8b c2		 mov	 eax, edx
  00030	5d		 pop	 ebp
  00031	c2 04 00	 ret	 4
??$?5F@CAr@@QAEAAV0@AAF@Z ENDP				; CAr::operator>><short>
_TEXT	ENDS
; Function compile flags: /Ogtp
; File C:\IAGOS\server\v18\Source\Source\_Network\Misc\Include\Ar.h
;	COMDAT ??$?5UD3DXVECTOR3@@@CAr@@QAEAAV0@AAUD3DXVECTOR3@@@Z
_TEXT	SEGMENT
$T1 = -12						; size = 12
_t$ = 8							; size = 4
??$?5UD3DXVECTOR3@@@CAr@@QAEAAV0@AAUD3DXVECTOR3@@@Z PROC ; CAr::operator>><D3DXVECTOR3>, COMDAT
; _this$ = ecx

; 302  : {

  00000	55		 push	 ebp
  00001	8b ec		 mov	 ebp, esp
  00003	83 ec 0c	 sub	 esp, 12			; 0000000cH
  00006	8b d1		 mov	 edx, ecx

; 303  : 	if (m_lpBufCur + sizeof(T) <= m_lpBufMax)

  00008	8b 4d 08	 mov	 ecx, DWORD PTR _t$[ebp]
  0000b	56		 push	 esi
  0000c	8b 72 08	 mov	 esi, DWORD PTR [edx+8]
  0000f	8d 46 0c	 lea	 eax, DWORD PTR [esi+12]
  00012	3b 42 0c	 cmp	 eax, DWORD PTR [edx+12]
  00015	77 1b		 ja	 SHORT $LN2@operator

; 304  : 	{
; 305  : 		t = *(UNALIGNED T*)m_lpBufCur;

  00017	f3 0f 7e 06	 movq	 xmm0, QWORD PTR [esi]
  0001b	66 0f d6 01	 movq	 QWORD PTR [ecx], xmm0
  0001f	8b 46 08	 mov	 eax, DWORD PTR [esi+8]
  00022	89 41 08	 mov	 DWORD PTR [ecx+8], eax

; 312  : 	}
; 313  : 	return *this;
; 314  : }

  00025	8b c2		 mov	 eax, edx
  00027	83 42 08 0c	 add	 DWORD PTR [edx+8], 12	; 0000000cH
  0002b	5e		 pop	 esi
  0002c	8b e5		 mov	 esp, ebp
  0002e	5d		 pop	 ebp
  0002f	c2 04 00	 ret	 4
$LN2@operator:

; 306  : 		m_lpBufCur += sizeof(T);
; 307  : 	}
; 308  : 	else
; 309  : 	{
; 310  : 		t = T();

  00032	f3 0f 7e 45 f4	 movq	 xmm0, QWORD PTR $T1[ebp]
  00037	8b 45 fc	 mov	 eax, DWORD PTR $T1[ebp+8]
  0003a	66 0f d6 01	 movq	 QWORD PTR [ecx], xmm0
  0003e	89 41 08	 mov	 DWORD PTR [ecx+8], eax

; 311  : 		m_lpBufCur = m_lpBufMax;

  00041	8b 42 0c	 mov	 eax, DWORD PTR [edx+12]
  00044	89 42 08	 mov	 DWORD PTR [edx+8], eax

; 312  : 	}
; 313  : 	return *this;
; 314  : }

  00047	8b c2		 mov	 eax, edx
  00049	5e		 pop	 esi
  0004a	8b e5		 mov	 esp, ebp
  0004c	5d		 pop	 ebp
  0004d	c2 04 00	 ret	 4
??$?5UD3DXVECTOR3@@@CAr@@QAEAAV0@AAUD3DXVECTOR3@@@Z ENDP ; CAr::operator>><D3DXVECTOR3>
_TEXT	ENDS
; Function compile flags: /Ogtp
; File C:\IAGOS\server\v18\Source\Source\_Network\Misc\Include\Ar.h
;	COMDAT ??$?5K@CAr@@QAEAAV0@AAK@Z
_TEXT	SEGMENT
_t$ = 8							; size = 4
??$?5K@CAr@@QAEAAV0@AAK@Z PROC				; CAr::operator>><unsigned long>, COMDAT
; _this$ = ecx

; 302  : {

  00000	55		 push	 ebp
  00001	8b ec		 mov	 ebp, esp
  00003	8b d1		 mov	 edx, ecx

; 303  : 	if (m_lpBufCur + sizeof(T) <= m_lpBufMax)

  00005	8b 4a 08	 mov	 ecx, DWORD PTR [edx+8]
  00008	8d 41 04	 lea	 eax, DWORD PTR [ecx+4]
  0000b	3b 42 0c	 cmp	 eax, DWORD PTR [edx+12]
  0000e	8b 45 08	 mov	 eax, DWORD PTR _t$[ebp]
  00011	77 0e		 ja	 SHORT $LN2@operator

; 304  : 	{
; 305  : 		t = *(UNALIGNED T*)m_lpBufCur;

  00013	8b 09		 mov	 ecx, DWORD PTR [ecx]
  00015	89 08		 mov	 DWORD PTR [eax], ecx

; 312  : 	}
; 313  : 	return *this;
; 314  : }

  00017	8b c2		 mov	 eax, edx
  00019	83 42 08 04	 add	 DWORD PTR [edx+8], 4
  0001d	5d		 pop	 ebp
  0001e	c2 04 00	 ret	 4
$LN2@operator:

; 306  : 		m_lpBufCur += sizeof(T);
; 307  : 	}
; 308  : 	else
; 309  : 	{
; 310  : 		t = T();

  00021	c7 00 00 00 00
	00		 mov	 DWORD PTR [eax], 0

; 311  : 		m_lpBufCur = m_lpBufMax;

  00027	8b 42 0c	 mov	 eax, DWORD PTR [edx+12]
  0002a	89 42 08	 mov	 DWORD PTR [edx+8], eax

; 312  : 	}
; 313  : 	return *this;
; 314  : }

  0002d	8b c2		 mov	 eax, edx
  0002f	5d		 pop	 ebp
  00030	c2 04 00	 ret	 4
??$?5K@CAr@@QAEAAV0@AAK@Z ENDP				; CAr::operator>><unsigned long>
_TEXT	ENDS
; Function compile flags: /Ogtp
; File C:\IAGOS\server\v18\Source\Source\_Network\Misc\Include\Ar.h
;	COMDAT ??$?5H@CAr@@QAEAAV0@AAH@Z
_TEXT	SEGMENT
_t$ = 8							; size = 4
??$?5H@CAr@@QAEAAV0@AAH@Z PROC				; CAr::operator>><int>, COMDAT
; _this$ = ecx

; 302  : {

  00000	55		 push	 ebp
  00001	8b ec		 mov	 ebp, esp
  00003	8b d1		 mov	 edx, ecx

; 303  : 	if (m_lpBufCur + sizeof(T) <= m_lpBufMax)

  00005	8b 4a 08	 mov	 ecx, DWORD PTR [edx+8]
  00008	8d 41 04	 lea	 eax, DWORD PTR [ecx+4]
  0000b	3b 42 0c	 cmp	 eax, DWORD PTR [edx+12]
  0000e	8b 45 08	 mov	 eax, DWORD PTR _t$[ebp]
  00011	77 0e		 ja	 SHORT $LN2@operator

; 304  : 	{
; 305  : 		t = *(UNALIGNED T*)m_lpBufCur;

  00013	8b 09		 mov	 ecx, DWORD PTR [ecx]
  00015	89 08		 mov	 DWORD PTR [eax], ecx

; 312  : 	}
; 313  : 	return *this;
; 314  : }

  00017	8b c2		 mov	 eax, edx
  00019	83 42 08 04	 add	 DWORD PTR [edx+8], 4
  0001d	5d		 pop	 ebp
  0001e	c2 04 00	 ret	 4
$LN2@operator:

; 306  : 		m_lpBufCur += sizeof(T);
; 307  : 	}
; 308  : 	else
; 309  : 	{
; 310  : 		t = T();

  00021	c7 00 00 00 00
	00		 mov	 DWORD PTR [eax], 0

; 311  : 		m_lpBufCur = m_lpBufMax;

  00027	8b 42 0c	 mov	 eax, DWORD PTR [edx+12]
  0002a	89 42 08	 mov	 DWORD PTR [edx+8], eax

; 312  : 	}
; 313  : 	return *this;
; 314  : }

  0002d	8b c2		 mov	 eax, edx
  0002f	5d		 pop	 ebp
  00030	c2 04 00	 ret	 4
??$?5H@CAr@@QAEAAV0@AAH@Z ENDP				; CAr::operator>><int>
_TEXT	ENDS
; Function compile flags: /Ogtp
; File C:\IAGOS\server\v18\Source\Source\_Database\DbManagerLog.cpp
;	COMDAT ?LogExpBox@CDbManager@@AAEXPAVCQuery@@PAUtagDB_OVERLAPPED_PLUS@@@Z
_TEXT	SEGMENT
_iExp$ = -17464						; size = 8
_idPlayer$ = -17456					; size = 4
_objid$ = -17452					; size = 4
_bGet$ = -17448						; size = 4
_ar$ = -17444						; size = 16404
_pszQuery$ = -1040					; size = 1024
__$ArrayPad$ = -16					; size = 4
__$EHRec$ = -12						; size = 12
_pQuery$ = 8						; size = 4
_pov$ = 12						; size = 4
?LogExpBox@CDbManager@@AAEXPAVCQuery@@PAUtagDB_OVERLAPPED_PLUS@@@Z PROC ; CDbManager::LogExpBox, COMDAT
; _this$ = ecx

; 1124 : {

  00000	55		 push	 ebp
  00001	8b ec		 mov	 ebp, esp
  00003	6a ff		 push	 -1
  00005	68 00 00 00 00	 push	 __ehhandler$?LogExpBox@CDbManager@@AAEXPAVCQuery@@PAUtagDB_OVERLAPPED_PLUS@@@Z
  0000a	64 a1 00 00 00
	00		 mov	 eax, DWORD PTR fs:0
  00010	50		 push	 eax
  00011	b8 2c 44 00 00	 mov	 eax, 17452		; 0000442cH
  00016	e8 00 00 00 00	 call	 __chkstk
  0001b	a1 00 00 00 00	 mov	 eax, DWORD PTR ___security_cookie
  00020	33 c5		 xor	 eax, ebp
  00022	89 45 f0	 mov	 DWORD PTR __$ArrayPad$[ebp], eax
  00025	53		 push	 ebx
  00026	56		 push	 esi
  00027	57		 push	 edi
  00028	50		 push	 eax
  00029	8d 45 f4	 lea	 eax, DWORD PTR __$EHRec$[ebp]
  0002c	64 a3 00 00 00
	00		 mov	 DWORD PTR fs:0, eax
  00032	8b d9		 mov	 ebx, ecx
  00034	8b 7d 0c	 mov	 edi, DWORD PTR _pov$[ebp]

; 1125 : 	u_long idPlayer;
; 1126 : 	OBJID objid;
; 1127 : 	EXPINTEGER iExp;
; 1128 : 	BOOL bGet;
; 1129 : 
; 1130 : 	CAr ar( pov->lpBuf, pov->uBufSize );

  00037	8d 8d dc bb ff
	ff		 lea	 ecx, DWORD PTR _ar$[ebp]
  0003d	8b 75 08	 mov	 esi, DWORD PTR _pQuery$[ebp]
  00040	ff 77 1c	 push	 DWORD PTR [edi+28]
  00043	ff 77 18	 push	 DWORD PTR [edi+24]
  00046	e8 00 00 00 00	 call	 ??0CAr@@QAE@PAXI@Z	; CAr::CAr

; 1131 : 	ar >> idPlayer >> objid >> iExp >> bGet;

  0004b	8d 85 d8 bb ff
	ff		 lea	 eax, DWORD PTR _bGet$[ebp]
  00051	c7 45 fc 00 00
	00 00		 mov	 DWORD PTR __$EHRec$[ebp+8], 0
  00058	50		 push	 eax
  00059	8d 85 c8 bb ff
	ff		 lea	 eax, DWORD PTR _iExp$[ebp]
  0005f	50		 push	 eax
  00060	8d 85 d4 bb ff
	ff		 lea	 eax, DWORD PTR _objid$[ebp]
  00066	50		 push	 eax
  00067	8d 85 d0 bb ff
	ff		 lea	 eax, DWORD PTR _idPlayer$[ebp]
  0006d	50		 push	 eax
  0006e	8d 8d dc bb ff
	ff		 lea	 ecx, DWORD PTR _ar$[ebp]
  00074	e8 00 00 00 00	 call	 ??$?5K@CAr@@QAEAAV0@AAK@Z ; CAr::operator>><unsigned long>
  00079	8b c8		 mov	 ecx, eax
  0007b	e8 00 00 00 00	 call	 ??$?5K@CAr@@QAEAAV0@AAK@Z ; CAr::operator>><unsigned long>
  00080	8b c8		 mov	 ecx, eax
  00082	e8 00 00 00 00	 call	 ??$?5_J@CAr@@QAEAAV0@AA_J@Z ; CAr::operator>><__int64>
  00087	8b c8		 mov	 ecx, eax
  00089	e8 00 00 00 00	 call	 ??$?5H@CAr@@QAEAAV0@AAH@Z ; CAr::operator>><int>

; 1132 : 	char pszQuery[1024]	= { 0, };

  0008e	68 00 04 00 00	 push	 1024			; 00000400H
  00093	8d 85 f0 fb ff
	ff		 lea	 eax, DWORD PTR _pszQuery$[ebp]
  00099	6a 00		 push	 0
  0009b	50		 push	 eax
  0009c	e8 00 00 00 00	 call	 _memset

; 1133 : 
; 1134 : 	sprintf( pszQuery, "uspLogExpBox @pserverindex='%02d', @pidPlayer='%07d', @pobjid=%d, @piExp=%I64d, @pState='%c'",

  000a1	83 bd d8 bb ff
	ff 00		 cmp	 DWORD PTR _bGet$[ebp], 0
  000a8	b9 47 00 00 00	 mov	 ecx, 71			; 00000047H
  000ad	b8 44 00 00 00	 mov	 eax, 68			; 00000044H
  000b2	0f 45 c1	 cmovne	 eax, ecx
  000b5	50		 push	 eax
  000b6	ff b5 cc bb ff
	ff		 push	 DWORD PTR _iExp$[ebp+4]
  000bc	8d 85 f0 fb ff
	ff		 lea	 eax, DWORD PTR _pszQuery$[ebp]
  000c2	ff b5 c8 bb ff
	ff		 push	 DWORD PTR _iExp$[ebp]
  000c8	ff b5 d4 bb ff
	ff		 push	 DWORD PTR _objid$[ebp]
  000ce	ff b5 d0 bb ff
	ff		 push	 DWORD PTR _idPlayer$[ebp]
  000d4	ff 35 00 00 00
	00		 push	 DWORD PTR ?g_appInfo@@3UAppInfo@@A
  000da	68 00 00 00 00	 push	 OFFSET ??_C@_0FN@JANPKKBA@uspLogExpBox?5?$EApserverindex?$DN?8?$CF02@
  000df	50		 push	 eax
  000e0	e8 00 00 00 00	 call	 _sprintf
  000e5	83 c4 2c	 add	 esp, 44			; 0000002cH

; 1135 : 		g_appInfo.dwSys, idPlayer, objid, iExp, ( bGet? 'G': 'D' ) );
; 1136 : 
; 1137 : 	if ( FALSE == pQuery->Exec( pszQuery ) )

  000e8	8d 85 f0 fb ff
	ff		 lea	 eax, DWORD PTR _pszQuery$[ebp]
  000ee	8b ce		 mov	 ecx, esi
  000f0	50		 push	 eax
  000f1	e8 00 00 00 00	 call	 ?Exec@CQuery@@QAEHPBD@Z	; CQuery::Exec
  000f6	85 c0		 test	 eax, eax
  000f8	75 1e		 jne	 SHORT $LN2@LogExpBox

; 1138 : 		WriteLog( "%s, %d:\t%s", __FILE__, __LINE__, pszQuery );

  000fa	8d 85 f0 fb ff
	ff		 lea	 eax, DWORD PTR _pszQuery$[ebp]
  00100	50		 push	 eax
  00101	68 72 04 00 00	 push	 1138			; 00000472H
  00106	68 00 00 00 00	 push	 OFFSET ??_C@_0DN@OEMKJAPO@C?3?2IAGOS?2server?2v18?2Source?2Sour@
  0010b	68 00 00 00 00	 push	 OFFSET ??_C@_0L@EBJDFKBI@?$CFs?0?5?$CFd?3?7?$CFs@
  00110	e8 00 00 00 00	 call	 ?WriteLog@@YAXPBDZZ	; WriteLog
  00115	83 c4 10	 add	 esp, 16			; 00000010H
$LN2@LogExpBox:

; 1139 : 	FreeRequest( pov );

  00118	57		 push	 edi
  00119	8b cb		 mov	 ecx, ebx
  0011b	e8 00 00 00 00	 call	 ?FreeRequest@CDbManager@@QAEXPAUtagDB_OVERLAPPED_PLUS@@@Z ; CDbManager::FreeRequest

; 1140 : //	OutputDebugString( pszQuery );
; 1141 : }

  00120	8d 8d dc bb ff
	ff		 lea	 ecx, DWORD PTR _ar$[ebp]
  00126	e8 00 00 00 00	 call	 ??1CAr@@QAE@XZ		; CAr::~CAr
  0012b	8b 4d f4	 mov	 ecx, DWORD PTR __$EHRec$[ebp]
  0012e	64 89 0d 00 00
	00 00		 mov	 DWORD PTR fs:0, ecx
  00135	59		 pop	 ecx
  00136	5f		 pop	 edi
  00137	5e		 pop	 esi
  00138	5b		 pop	 ebx
  00139	8b 4d f0	 mov	 ecx, DWORD PTR __$ArrayPad$[ebp]
  0013c	33 cd		 xor	 ecx, ebp
  0013e	e8 00 00 00 00	 call	 @__security_check_cookie@4
  00143	8b e5		 mov	 esp, ebp
  00145	5d		 pop	 ebp
  00146	c2 08 00	 ret	 8
_TEXT	ENDS
;	COMDAT text$x
text$x	SEGMENT
__unwindfunclet$?LogExpBox@CDbManager@@AAEXPAVCQuery@@PAUtagDB_OVERLAPPED_PLUS@@@Z$0:
  00000	8d 8d dc bb ff
	ff		 lea	 ecx, DWORD PTR _ar$[ebp]
  00006	e9 00 00 00 00	 jmp	 ??1CAr@@QAE@XZ		; CAr::~CAr
  0000b	cc		 int	 3
  0000c	cc		 int	 3
  0000d	cc		 int	 3
  0000e	cc		 int	 3
  0000f	cc		 int	 3
__ehhandler$?LogExpBox@CDbManager@@AAEXPAVCQuery@@PAUtagDB_OVERLAPPED_PLUS@@@Z:
  00010	90		 npad	 1
  00011	90		 npad	 1
  00012	8b 54 24 08	 mov	 edx, DWORD PTR [esp+8]
  00016	8d 42 0c	 lea	 eax, DWORD PTR [edx+12]
  00019	8b 8a c4 bb ff
	ff		 mov	 ecx, DWORD PTR [edx-17468]
  0001f	33 c8		 xor	 ecx, eax
  00021	e8 00 00 00 00	 call	 @__security_check_cookie@4
  00026	8b 4a fc	 mov	 ecx, DWORD PTR [edx-4]
  00029	33 c8		 xor	 ecx, eax
  0002b	e8 00 00 00 00	 call	 @__security_check_cookie@4
  00030	b8 00 00 00 00	 mov	 eax, OFFSET __ehfuncinfo$?LogExpBox@CDbManager@@AAEXPAVCQuery@@PAUtagDB_OVERLAPPED_PLUS@@@Z
  00035	e9 00 00 00 00	 jmp	 ___CxxFrameHandler3
text$x	ENDS
?LogExpBox@CDbManager@@AAEXPAVCQuery@@PAUtagDB_OVERLAPPED_PLUS@@@Z ENDP ; CDbManager::LogExpBox
; Function compile flags: /Ogtp
; File C:\IAGOS\server\v18\Source\Source\_Database\DbManagerLog.cpp
;	COMDAT ?LogGetHonorTime@CDbManager@@AAEXPAVCQuery@@PAUtagDB_OVERLAPPED_PLUS@@@Z
_TEXT	SEGMENT
_uidPlayer$ = -57388					; size = 4
_nGetHonor$ = -57384					; size = 4
_arRead$ = -57380					; size = 16404
_szQuery$ = -40976					; size = 40960
__$ArrayPad$ = -16					; size = 4
__$EHRec$ = -12						; size = 12
_qry$ = 8						; size = 4
_lpDbOverlappedPlus$ = 12				; size = 4
?LogGetHonorTime@CDbManager@@AAEXPAVCQuery@@PAUtagDB_OVERLAPPED_PLUS@@@Z PROC ; CDbManager::LogGetHonorTime, COMDAT
; _this$ = ecx

; 616  : {

  00000	55		 push	 ebp
  00001	8b ec		 mov	 ebp, esp
  00003	6a ff		 push	 -1
  00005	68 00 00 00 00	 push	 __ehhandler$?LogGetHonorTime@CDbManager@@AAEXPAVCQuery@@PAUtagDB_OVERLAPPED_PLUS@@@Z
  0000a	64 a1 00 00 00
	00		 mov	 eax, DWORD PTR fs:0
  00010	50		 push	 eax
  00011	b8 20 e0 00 00	 mov	 eax, 57376		; 0000e020H
  00016	e8 00 00 00 00	 call	 __chkstk
  0001b	a1 00 00 00 00	 mov	 eax, DWORD PTR ___security_cookie
  00020	33 c5		 xor	 eax, ebp
  00022	89 45 f0	 mov	 DWORD PTR __$ArrayPad$[ebp], eax
  00025	53		 push	 ebx
  00026	56		 push	 esi
  00027	57		 push	 edi
  00028	50		 push	 eax
  00029	8d 45 f4	 lea	 eax, DWORD PTR __$EHRec$[ebp]
  0002c	64 a3 00 00 00
	00		 mov	 DWORD PTR fs:0, eax
  00032	8b d9		 mov	 ebx, ecx
  00034	8b 7d 0c	 mov	 edi, DWORD PTR _lpDbOverlappedPlus$[ebp]

; 617  : 	CAr arRead( lpDbOverlappedPlus->lpBuf, lpDbOverlappedPlus->uBufSize );

  00037	8d 8d dc 1f ff
	ff		 lea	 ecx, DWORD PTR _arRead$[ebp]
  0003d	8b 75 08	 mov	 esi, DWORD PTR _qry$[ebp]
  00040	ff 77 1c	 push	 DWORD PTR [edi+28]
  00043	ff 77 18	 push	 DWORD PTR [edi+24]
  00046	e8 00 00 00 00	 call	 ??0CAr@@QAE@PAXI@Z	; CAr::CAr

; 618  : 
; 619  : 	int			iServer_No;							// Ľ­ąö ąřČŁ
; 620  : 	u_long		uidPlayer;
; 621  : 	int			nGetHonor;
; 622  : 	
; 623  : 	iServer_No	= g_appInfo.dwSys;
; 624  : 	arRead >> nGetHonor;

  0004b	8d 85 d8 1f ff
	ff		 lea	 eax, DWORD PTR _nGetHonor$[ebp]
  00051	c7 45 fc 00 00
	00 00		 mov	 DWORD PTR __$EHRec$[ebp+8], 0
  00058	50		 push	 eax
  00059	8d 8d dc 1f ff
	ff		 lea	 ecx, DWORD PTR _arRead$[ebp]
  0005f	e8 00 00 00 00	 call	 ??$?5H@CAr@@QAEAAV0@AAH@Z ; CAr::operator>><int>

; 625  : 	arRead >> uidPlayer;

  00064	8d 85 d4 1f ff
	ff		 lea	 eax, DWORD PTR _uidPlayer$[ebp]
  0006a	50		 push	 eax
  0006b	8d 8d dc 1f ff
	ff		 lea	 ecx, DWORD PTR _arRead$[ebp]
  00071	e8 00 00 00 00	 call	 ??$?5K@CAr@@QAEAAV0@AAK@Z ; CAr::operator>><unsigned long>

; 626  : 
; 627  : 	char szQuery[QUERY_SIZE]	= { 0,};

  00076	68 00 a0 00 00	 push	 40960			; 0000a000H
  0007b	8d 85 f0 5f ff
	ff		 lea	 eax, DWORD PTR _szQuery$[ebp]
  00081	6a 00		 push	 0
  00083	50		 push	 eax
  00084	e8 00 00 00 00	 call	 _memset

; 628  : 	sprintf( szQuery,

  00089	ff b5 d8 1f ff
	ff		 push	 DWORD PTR _nGetHonor$[ebp]
  0008f	8d 85 f0 5f ff
	ff		 lea	 eax, DWORD PTR _szQuery$[ebp]
  00095	ff b5 d4 1f ff
	ff		 push	 DWORD PTR _uidPlayer$[ebp]
  0009b	ff 35 00 00 00
	00		 push	 DWORD PTR ?g_appInfo@@3UAppInfo@@A
  000a1	68 00 00 00 00	 push	 OFFSET ??_C@_0DO@JFEBANLH@uspHonorLog?5?$EAserverindex?$DN?8?$CF02d?8@
  000a6	50		 push	 eax
  000a7	e8 00 00 00 00	 call	 _sprintf
  000ac	83 c4 20	 add	 esp, 32			; 00000020H

; 629  : 		"uspHonorLog @serverindex='%02d',@idPlayer='%07d',@nHonor='%d'",  g_appInfo.dwSys,uidPlayer, nGetHonor );
; 630  : //	qry->Clear();
; 631  : 	if ( FALSE == qry->Exec( szQuery ) )

  000af	8d 85 f0 5f ff
	ff		 lea	 eax, DWORD PTR _szQuery$[ebp]
  000b5	8b ce		 mov	 ecx, esi
  000b7	50		 push	 eax
  000b8	e8 00 00 00 00	 call	 ?Exec@CQuery@@QAEHPBD@Z	; CQuery::Exec
  000bd	85 c0		 test	 eax, eax
  000bf	75 1e		 jne	 SHORT $LN2@LogGetHono

; 632  : 	{
; 633  : 		WriteLog( "%s, %d\t%s", __FILE__, __LINE__, szQuery );

  000c1	8d 85 f0 5f ff
	ff		 lea	 eax, DWORD PTR _szQuery$[ebp]
  000c7	50		 push	 eax
  000c8	68 79 02 00 00	 push	 633			; 00000279H
  000cd	68 00 00 00 00	 push	 OFFSET ??_C@_0DN@OEMKJAPO@C?3?2IAGOS?2server?2v18?2Source?2Sour@
  000d2	68 00 00 00 00	 push	 OFFSET ??_C@_09GBAEEKDE@?$CFs?0?5?$CFd?7?$CFs@
  000d7	e8 00 00 00 00	 call	 ?WriteLog@@YAXPBDZZ	; WriteLog
  000dc	83 c4 10	 add	 esp, 16			; 00000010H
$LN2@LogGetHono:

; 634  : //		qry->Clear();
; 635  : 		FreeRequest( lpDbOverlappedPlus );
; 636  : 		return;
; 637  : 	}
; 638  : 
; 639  : //	qry->Clear();
; 640  : 	FreeRequest( lpDbOverlappedPlus );;
; 641  : }

  000df	57		 push	 edi
  000e0	8b cb		 mov	 ecx, ebx
  000e2	e8 00 00 00 00	 call	 ?FreeRequest@CDbManager@@QAEXPAUtagDB_OVERLAPPED_PLUS@@@Z ; CDbManager::FreeRequest
  000e7	8d 8d dc 1f ff
	ff		 lea	 ecx, DWORD PTR _arRead$[ebp]
  000ed	e8 00 00 00 00	 call	 ??1CAr@@QAE@XZ		; CAr::~CAr
  000f2	8b 4d f4	 mov	 ecx, DWORD PTR __$EHRec$[ebp]
  000f5	64 89 0d 00 00
	00 00		 mov	 DWORD PTR fs:0, ecx
  000fc	59		 pop	 ecx
  000fd	5f		 pop	 edi
  000fe	5e		 pop	 esi
  000ff	5b		 pop	 ebx
  00100	8b 4d f0	 mov	 ecx, DWORD PTR __$ArrayPad$[ebp]
  00103	33 cd		 xor	 ecx, ebp
  00105	e8 00 00 00 00	 call	 @__security_check_cookie@4
  0010a	8b e5		 mov	 esp, ebp
  0010c	5d		 pop	 ebp
  0010d	c2 08 00	 ret	 8
_TEXT	ENDS
;	COMDAT text$x
text$x	SEGMENT
__unwindfunclet$?LogGetHonorTime@CDbManager@@AAEXPAVCQuery@@PAUtagDB_OVERLAPPED_PLUS@@@Z$0:
  00000	8d 8d dc 1f ff
	ff		 lea	 ecx, DWORD PTR _arRead$[ebp]
  00006	e9 00 00 00 00	 jmp	 ??1CAr@@QAE@XZ		; CAr::~CAr
  0000b	cc		 int	 3
  0000c	cc		 int	 3
  0000d	cc		 int	 3
  0000e	cc		 int	 3
  0000f	cc		 int	 3
__ehhandler$?LogGetHonorTime@CDbManager@@AAEXPAVCQuery@@PAUtagDB_OVERLAPPED_PLUS@@@Z:
  00010	90		 npad	 1
  00011	90		 npad	 1
  00012	8b 54 24 08	 mov	 edx, DWORD PTR [esp+8]
  00016	8d 42 0c	 lea	 eax, DWORD PTR [edx+12]
  00019	8b 8a d0 1f ff
	ff		 mov	 ecx, DWORD PTR [edx-57392]
  0001f	33 c8		 xor	 ecx, eax
  00021	e8 00 00 00 00	 call	 @__security_check_cookie@4
  00026	8b 4a fc	 mov	 ecx, DWORD PTR [edx-4]
  00029	33 c8		 xor	 ecx, eax
  0002b	e8 00 00 00 00	 call	 @__security_check_cookie@4
  00030	b8 00 00 00 00	 mov	 eax, OFFSET __ehfuncinfo$?LogGetHonorTime@CDbManager@@AAEXPAVCQuery@@PAUtagDB_OVERLAPPED_PLUS@@@Z
  00035	e9 00 00 00 00	 jmp	 ___CxxFrameHandler3
text$x	ENDS
?LogGetHonorTime@CDbManager@@AAEXPAVCQuery@@PAUtagDB_OVERLAPPED_PLUS@@@Z ENDP ; CDbManager::LogGetHonorTime
; Function compile flags: /Ogtp
; File C:\IAGOS\server\v18\Source\Source\_Database\DbManagerLog.cpp
; File C:\IAGOS\server\v18\Source\Source\DX_SDK\d3dx9math.inl
; File C:\IAGOS\server\v18\Source\Source\_Database\DbManagerLog.cpp
;	COMDAT ?LogGuildFurniture@CDbManager@@AAEXPAVCQuery@@PAUtagDB_OVERLAPPED_PLUS@@@Z
_TEXT	SEGMENT
$T2 = -16476						; size = 12
_dwGuildId$ = -16464					; size = 4
_chState$ = -16457					; size = 1
_arRead$ = -16456					; size = 16404
_gfi$ = -52						; size = 36
__$ArrayPad$ = -16					; size = 4
__$EHRec$ = -12						; size = 12
_pQuery$ = 8						; size = 4
_lpDbOverlappedPlus$ = 12				; size = 4
?LogGuildFurniture@CDbManager@@AAEXPAVCQuery@@PAUtagDB_OVERLAPPED_PLUS@@@Z PROC ; CDbManager::LogGuildFurniture, COMDAT
; _this$ = ecx

; 1186 : {

  00000	55		 push	 ebp
  00001	8b ec		 mov	 ebp, esp
  00003	6a ff		 push	 -1
  00005	68 00 00 00 00	 push	 __ehhandler$?LogGuildFurniture@CDbManager@@AAEXPAVCQuery@@PAUtagDB_OVERLAPPED_PLUS@@@Z
  0000a	64 a1 00 00 00
	00		 mov	 eax, DWORD PTR fs:0
  00010	50		 push	 eax
  00011	b8 50 40 00 00	 mov	 eax, 16464		; 00004050H
  00016	e8 00 00 00 00	 call	 __chkstk
  0001b	a1 00 00 00 00	 mov	 eax, DWORD PTR ___security_cookie
  00020	33 c5		 xor	 eax, ebp
  00022	89 45 f0	 mov	 DWORD PTR __$ArrayPad$[ebp], eax
  00025	53		 push	 ebx
  00026	56		 push	 esi
  00027	57		 push	 edi
  00028	50		 push	 eax
  00029	8d 45 f4	 lea	 eax, DWORD PTR __$EHRec$[ebp]
  0002c	64 a3 00 00 00
	00		 mov	 DWORD PTR fs:0, eax
  00032	8b d9		 mov	 ebx, ecx
  00034	8b 7d 0c	 mov	 edi, DWORD PTR _lpDbOverlappedPlus$[ebp]

; 1187 : 	CAr arRead( lpDbOverlappedPlus->lpBuf, lpDbOverlappedPlus->uBufSize );

  00037	8d 8d b8 bf ff
	ff		 lea	 ecx, DWORD PTR _arRead$[ebp]
  0003d	8b 75 08	 mov	 esi, DWORD PTR _pQuery$[ebp]
  00040	ff 77 1c	 push	 DWORD PTR [edi+28]
  00043	ff 77 18	 push	 DWORD PTR [edi+24]
  00046	e8 00 00 00 00	 call	 ??0CAr@@QAE@PAXI@Z	; CAr::CAr

; 1190 : 	GH_Fntr_Info gfi;

  0004b	6a 00		 push	 0
  0004d	83 ec 10	 sub	 esp, 16			; 00000010H
; File C:\IAGOS\server\v18\Source\Source\DX_SDK\d3dx9math.inl

; 302  :     z = fz;

  00050	c7 85 ac bf ff
	ff 00 00 00 00	 mov	 DWORD PTR $T2[ebp+8], 0
; File C:\IAGOS\server\v18\Source\Source\_Database\DbManagerLog.cpp

; 1190 : 	GH_Fntr_Info gfi;

  0005a	8b 85 ac bf ff
	ff		 mov	 eax, DWORD PTR $T2[ebp+8]
  00060	8b cc		 mov	 ecx, esp
  00062	0f 57 c0	 xorps	 xmm0, xmm0
  00065	c7 45 fc 00 00
	00 00		 mov	 DWORD PTR __$EHRec$[ebp+8], 0
  0006c	0f 14 c0	 unpcklps xmm0, xmm0
  0006f	c7 44 24 0c 00
	00 00 00	 mov	 DWORD PTR [esp+12], 0
  00077	66 0f d6 01	 movq	 QWORD PTR [ecx], xmm0
  0007b	6a 00		 push	 0
  0007d	89 41 08	 mov	 DWORD PTR [ecx+8], eax
  00080	8d 4d cc	 lea	 ecx, DWORD PTR _gfi$[ebp]
  00083	6a ff		 push	 -1
  00085	e8 00 00 00 00	 call	 ??0GuildHouse_Furniture_Info@CGuildHouseBase@@QAE@KHUD3DXVECTOR3@@MJ@Z ; CGuildHouseBase::GuildHouse_Furniture_Info::GuildHouse_Furniture_Info

; 1191 : 	char chState;
; 1192 : 
; 1193 : 	arRead >> dwGuildId;

  0008a	8d 85 b0 bf ff
	ff		 lea	 eax, DWORD PTR _dwGuildId$[ebp]
  00090	50		 push	 eax
  00091	8d 8d b8 bf ff
	ff		 lea	 ecx, DWORD PTR _arRead$[ebp]
  00097	e8 00 00 00 00	 call	 ??$?5K@CAr@@QAEAAV0@AAK@Z ; CAr::operator>><unsigned long>

; 1194 : 	gfi.Serialize( arRead );

  0009c	8d 85 b8 bf ff
	ff		 lea	 eax, DWORD PTR _arRead$[ebp]
  000a2	50		 push	 eax
  000a3	8d 4d cc	 lea	 ecx, DWORD PTR _gfi$[ebp]
  000a6	e8 00 00 00 00	 call	 ?Serialize@GuildHouse_Furniture_Info@CGuildHouseBase@@QAEXAAVCAr@@@Z ; CGuildHouseBase::GuildHouse_Furniture_Info::Serialize

; 1195 : 	arRead >> chState;

  000ab	8d 85 b7 bf ff
	ff		 lea	 eax, DWORD PTR _chState$[ebp]
  000b1	50		 push	 eax
  000b2	8d 8d b8 bf ff
	ff		 lea	 ecx, DWORD PTR _arRead$[ebp]
  000b8	e8 00 00 00 00	 call	 ??$?5D@CAr@@QAEAAV0@AAD@Z ; CAr::operator>><char>

; 1196 : 
; 1197 : 	pQuery->Execute( "usp_GuildFurniture_Log @serverindex = '%02d', @m_idGuild = '%06d', @SEQ = %d, @ItemIndex = %d, @tKeepTime = %d, @bSetup = %d, @nState = '%c'", 

  000bd	0f be 85 b7 bf
	ff ff		 movsx	 eax, BYTE PTR _chState$[ebp]
  000c4	50		 push	 eax
  000c5	ff 75 d0	 push	 DWORD PTR _gfi$[ebp+4]
  000c8	ff 75 e8	 push	 DWORD PTR _gfi$[ebp+28]
  000cb	ff 75 cc	 push	 DWORD PTR _gfi$[ebp]
  000ce	ff 75 ec	 push	 DWORD PTR _gfi$[ebp+32]
  000d1	ff b5 b0 bf ff
	ff		 push	 DWORD PTR _dwGuildId$[ebp]
  000d7	ff 35 00 00 00
	00		 push	 DWORD PTR ?g_appInfo@@3UAppInfo@@A
  000dd	68 00 00 00 00	 push	 OFFSET ??_C@_0IN@GLPAOOJ@usp_GuildFurniture_Log?5?$EAserveri@
  000e2	56		 push	 esi
  000e3	e8 00 00 00 00	 call	 ?Execute@CQuery@@QAAHPBDZZ ; CQuery::Execute
  000e8	83 c4 24	 add	 esp, 36			; 00000024H

; 1198 : 		g_appInfo.dwSys, dwGuildId, gfi.nSeqNum, gfi.dwItemId, gfi.tKeepTime, static_cast<int>( gfi.bSetup ), chState );
; 1199 : 
; 1200 : 	FreeRequest( lpDbOverlappedPlus );

  000eb	8b cb		 mov	 ecx, ebx
  000ed	57		 push	 edi
  000ee	e8 00 00 00 00	 call	 ?FreeRequest@CDbManager@@QAEXPAUtagDB_OVERLAPPED_PLUS@@@Z ; CDbManager::FreeRequest

; 1201 : }

  000f3	8d 8d b8 bf ff
	ff		 lea	 ecx, DWORD PTR _arRead$[ebp]
  000f9	e8 00 00 00 00	 call	 ??1CAr@@QAE@XZ		; CAr::~CAr
  000fe	8b 4d f4	 mov	 ecx, DWORD PTR __$EHRec$[ebp]
  00101	64 89 0d 00 00
	00 00		 mov	 DWORD PTR fs:0, ecx
  00108	59		 pop	 ecx
  00109	5f		 pop	 edi
  0010a	5e		 pop	 esi
  0010b	5b		 pop	 ebx
  0010c	8b 4d f0	 mov	 ecx, DWORD PTR __$ArrayPad$[ebp]
  0010f	33 cd		 xor	 ecx, ebp
  00111	e8 00 00 00 00	 call	 @__security_check_cookie@4
  00116	8b e5		 mov	 esp, ebp
  00118	5d		 pop	 ebp
  00119	c2 08 00	 ret	 8
_TEXT	ENDS
;	COMDAT text$x
text$x	SEGMENT
__unwindfunclet$?LogGuildFurniture@CDbManager@@AAEXPAVCQuery@@PAUtagDB_OVERLAPPED_PLUS@@@Z$0:
  00000	8d 8d b8 bf ff
	ff		 lea	 ecx, DWORD PTR _arRead$[ebp]
  00006	e9 00 00 00 00	 jmp	 ??1CAr@@QAE@XZ		; CAr::~CAr
  0000b	cc		 int	 3
  0000c	cc		 int	 3
  0000d	cc		 int	 3
  0000e	cc		 int	 3
  0000f	cc		 int	 3
__ehhandler$?LogGuildFurniture@CDbManager@@AAEXPAVCQuery@@PAUtagDB_OVERLAPPED_PLUS@@@Z:
  00010	90		 npad	 1
  00011	90		 npad	 1
  00012	8b 54 24 08	 mov	 edx, DWORD PTR [esp+8]
  00016	8d 42 0c	 lea	 eax, DWORD PTR [edx+12]
  00019	8b 8a a0 bf ff
	ff		 mov	 ecx, DWORD PTR [edx-16480]
  0001f	33 c8		 xor	 ecx, eax
  00021	e8 00 00 00 00	 call	 @__security_check_cookie@4
  00026	8b 4a fc	 mov	 ecx, DWORD PTR [edx-4]
  00029	33 c8		 xor	 ecx, eax
  0002b	e8 00 00 00 00	 call	 @__security_check_cookie@4
  00030	b8 00 00 00 00	 mov	 eax, OFFSET __ehfuncinfo$?LogGuildFurniture@CDbManager@@AAEXPAVCQuery@@PAUtagDB_OVERLAPPED_PLUS@@@Z
  00035	e9 00 00 00 00	 jmp	 ___CxxFrameHandler3
text$x	ENDS
?LogGuildFurniture@CDbManager@@AAEXPAVCQuery@@PAUtagDB_OVERLAPPED_PLUS@@@Z ENDP ; CDbManager::LogGuildFurniture
; Function compile flags: /Ogtp
; File C:\IAGOS\server\v18\Source\Source\_Database\DbManagerLog.cpp
;	COMDAT ?LogError@CDbManager@@AAEXPAVCQuery@@PAUtagDB_OVERLAPPED_PLUS@@@Z
_TEXT	SEGMENT
_idPlayer$ = -17500					; size = 4
_idChannel$ = -17496					; size = 4
_chType$ = -17489					; size = 1
_arRead$ = -17488					; size = 16404
_szError$ = -1084					; size = 1024
_szAccount$ = -60					; size = 42
__$ArrayPad$ = -16					; size = 4
__$EHRec$ = -12						; size = 12
_pQuery$ = 8						; size = 4
_lpDbOverlappedPlus$ = 12				; size = 4
?LogError@CDbManager@@AAEXPAVCQuery@@PAUtagDB_OVERLAPPED_PLUS@@@Z PROC ; CDbManager::LogError, COMDAT
; _this$ = ecx

; 1164 : {

  00000	55		 push	 ebp
  00001	8b ec		 mov	 ebp, esp
  00003	6a ff		 push	 -1
  00005	68 00 00 00 00	 push	 __ehhandler$?LogError@CDbManager@@AAEXPAVCQuery@@PAUtagDB_OVERLAPPED_PLUS@@@Z
  0000a	64 a1 00 00 00
	00		 mov	 eax, DWORD PTR fs:0
  00010	50		 push	 eax
  00011	b8 50 44 00 00	 mov	 eax, 17488		; 00004450H
  00016	e8 00 00 00 00	 call	 __chkstk
  0001b	a1 00 00 00 00	 mov	 eax, DWORD PTR ___security_cookie
  00020	33 c5		 xor	 eax, ebp
  00022	89 45 f0	 mov	 DWORD PTR __$ArrayPad$[ebp], eax
  00025	53		 push	 ebx
  00026	56		 push	 esi
  00027	57		 push	 edi
  00028	50		 push	 eax
  00029	8d 45 f4	 lea	 eax, DWORD PTR __$EHRec$[ebp]
  0002c	64 a3 00 00 00
	00		 mov	 DWORD PTR fs:0, eax
  00032	8b d9		 mov	 ebx, ecx
  00034	8b 7d 0c	 mov	 edi, DWORD PTR _lpDbOverlappedPlus$[ebp]

; 1165 : 	CAr arRead( lpDbOverlappedPlus->lpBuf, lpDbOverlappedPlus->uBufSize );

  00037	8d 8d b0 bb ff
	ff		 lea	 ecx, DWORD PTR _arRead$[ebp]
  0003d	8b 75 08	 mov	 esi, DWORD PTR _pQuery$[ebp]
  00040	ff 77 1c	 push	 DWORD PTR [edi+28]
  00043	ff 77 18	 push	 DWORD PTR [edi+24]
  00046	e8 00 00 00 00	 call	 ??0CAr@@QAE@PAXI@Z	; CAr::CAr

; 1166 : 
; 1167 : 	u_long idPlayer, idChannel;
; 1168 : 	char szAccount[MAX_ACCOUNT] = {0, };

  0004b	6a 2a		 push	 42			; 0000002aH
  0004d	8d 45 c4	 lea	 eax, DWORD PTR _szAccount$[ebp]
  00050	c7 45 fc 00 00
	00 00		 mov	 DWORD PTR __$EHRec$[ebp+8], 0
  00057	6a 00		 push	 0
  00059	50		 push	 eax
  0005a	e8 00 00 00 00	 call	 _memset

; 1169 : 	char chType;
; 1170 : 	char szError[1024] = {0, };

  0005f	68 00 04 00 00	 push	 1024			; 00000400H
  00064	8d 85 c4 fb ff
	ff		 lea	 eax, DWORD PTR _szError$[ebp]
  0006a	6a 00		 push	 0
  0006c	50		 push	 eax
  0006d	e8 00 00 00 00	 call	 _memset
  00072	83 c4 18	 add	 esp, 24			; 00000018H

; 1171 : 
; 1172 : 	arRead >> idPlayer;

  00075	8d 85 a4 bb ff
	ff		 lea	 eax, DWORD PTR _idPlayer$[ebp]
  0007b	8d 8d b0 bb ff
	ff		 lea	 ecx, DWORD PTR _arRead$[ebp]
  00081	50		 push	 eax
  00082	e8 00 00 00 00	 call	 ??$?5K@CAr@@QAEAAV0@AAK@Z ; CAr::operator>><unsigned long>

; 1173 : 	arRead.ReadString( szAccount, MAX_ACCOUNT );

  00087	6a 2a		 push	 42			; 0000002aH
  00089	8d 45 c4	 lea	 eax, DWORD PTR _szAccount$[ebp]
  0008c	50		 push	 eax
  0008d	8d 8d b0 bb ff
	ff		 lea	 ecx, DWORD PTR _arRead$[ebp]
  00093	e8 00 00 00 00	 call	 ?ReadString@CAr@@QAEPADPADH@Z ; CAr::ReadString

; 1174 : 	arRead >> idChannel >> chType;

  00098	8d 85 af bb ff
	ff		 lea	 eax, DWORD PTR _chType$[ebp]
  0009e	50		 push	 eax
  0009f	8d 85 a8 bb ff
	ff		 lea	 eax, DWORD PTR _idChannel$[ebp]
  000a5	50		 push	 eax
  000a6	8d 8d b0 bb ff
	ff		 lea	 ecx, DWORD PTR _arRead$[ebp]
  000ac	e8 00 00 00 00	 call	 ??$?5K@CAr@@QAEAAV0@AAK@Z ; CAr::operator>><unsigned long>
  000b1	8b c8		 mov	 ecx, eax
  000b3	e8 00 00 00 00	 call	 ??$?5D@CAr@@QAEAAV0@AAD@Z ; CAr::operator>><char>

; 1175 : 	arRead.ReadString( szError, 1024 );

  000b8	68 00 04 00 00	 push	 1024			; 00000400H
  000bd	8d 85 c4 fb ff
	ff		 lea	 eax, DWORD PTR _szError$[ebp]
  000c3	50		 push	 eax
  000c4	8d 8d b0 bb ff
	ff		 lea	 ecx, DWORD PTR _arRead$[ebp]
  000ca	e8 00 00 00 00	 call	 ?ReadString@CAr@@QAEPADPADH@Z ; CAr::ReadString

; 1176 : 	
; 1177 : 	pQuery->Execute( "usp_SystemError_Insert @m_idPlayer = '%07d', @serverindex = '%02d', @account = %s, @nChannel = %d, @chType = '%c', @szError = '%s'", 

  000cf	8d 85 c4 fb ff
	ff		 lea	 eax, DWORD PTR _szError$[ebp]
  000d5	50		 push	 eax
  000d6	0f be 85 af bb
	ff ff		 movsx	 eax, BYTE PTR _chType$[ebp]
  000dd	50		 push	 eax
  000de	ff b5 a8 bb ff
	ff		 push	 DWORD PTR _idChannel$[ebp]
  000e4	8d 45 c4	 lea	 eax, DWORD PTR _szAccount$[ebp]
  000e7	50		 push	 eax
  000e8	ff 35 00 00 00
	00		 push	 DWORD PTR ?g_appInfo@@3UAppInfo@@A
  000ee	ff b5 a4 bb ff
	ff		 push	 DWORD PTR _idPlayer$[ebp]
  000f4	68 00 00 00 00	 push	 OFFSET ??_C@_0ID@PMGIPGNI@usp_SystemError_Insert?5?$EAm_idPla@
  000f9	56		 push	 esi
  000fa	e8 00 00 00 00	 call	 ?Execute@CQuery@@QAAHPBDZZ ; CQuery::Execute
  000ff	83 c4 20	 add	 esp, 32			; 00000020H

; 1178 : 	idPlayer, g_appInfo.dwSys, szAccount, idChannel, chType, szError );
; 1179 : 	
; 1180 : 	FreeRequest( lpDbOverlappedPlus );

  00102	8b cb		 mov	 ecx, ebx
  00104	57		 push	 edi
  00105	e8 00 00 00 00	 call	 ?FreeRequest@CDbManager@@QAEXPAUtagDB_OVERLAPPED_PLUS@@@Z ; CDbManager::FreeRequest

; 1181 : }

  0010a	8d 8d b0 bb ff
	ff		 lea	 ecx, DWORD PTR _arRead$[ebp]
  00110	e8 00 00 00 00	 call	 ??1CAr@@QAE@XZ		; CAr::~CAr
  00115	8b 4d f4	 mov	 ecx, DWORD PTR __$EHRec$[ebp]
  00118	64 89 0d 00 00
	00 00		 mov	 DWORD PTR fs:0, ecx
  0011f	59		 pop	 ecx
  00120	5f		 pop	 edi
  00121	5e		 pop	 esi
  00122	5b		 pop	 ebx
  00123	8b 4d f0	 mov	 ecx, DWORD PTR __$ArrayPad$[ebp]
  00126	33 cd		 xor	 ecx, ebp
  00128	e8 00 00 00 00	 call	 @__security_check_cookie@4
  0012d	8b e5		 mov	 esp, ebp
  0012f	5d		 pop	 ebp
  00130	c2 08 00	 ret	 8
_TEXT	ENDS
;	COMDAT text$x
text$x	SEGMENT
__unwindfunclet$?LogError@CDbManager@@AAEXPAVCQuery@@PAUtagDB_OVERLAPPED_PLUS@@@Z$0:
  00000	8d 8d b0 bb ff
	ff		 lea	 ecx, DWORD PTR _arRead$[ebp]
  00006	e9 00 00 00 00	 jmp	 ??1CAr@@QAE@XZ		; CAr::~CAr
  0000b	cc		 int	 3
  0000c	cc		 int	 3
  0000d	cc		 int	 3
  0000e	cc		 int	 3
  0000f	cc		 int	 3
__ehhandler$?LogError@CDbManager@@AAEXPAVCQuery@@PAUtagDB_OVERLAPPED_PLUS@@@Z:
  00010	90		 npad	 1
  00011	90		 npad	 1
  00012	8b 54 24 08	 mov	 edx, DWORD PTR [esp+8]
  00016	8d 42 0c	 lea	 eax, DWORD PTR [edx+12]
  00019	8b 8a a0 bb ff
	ff		 mov	 ecx, DWORD PTR [edx-17504]
  0001f	33 c8		 xor	 ecx, eax
  00021	e8 00 00 00 00	 call	 @__security_check_cookie@4
  00026	8b 4a fc	 mov	 ecx, DWORD PTR [edx-4]
  00029	33 c8		 xor	 ecx, eax
  0002b	e8 00 00 00 00	 call	 @__security_check_cookie@4
  00030	b8 00 00 00 00	 mov	 eax, OFFSET __ehfuncinfo$?LogError@CDbManager@@AAEXPAVCQuery@@PAUtagDB_OVERLAPPED_PLUS@@@Z
  00035	e9 00 00 00 00	 jmp	 ___CxxFrameHandler3
text$x	ENDS
?LogError@CDbManager@@AAEXPAVCQuery@@PAUtagDB_OVERLAPPED_PLUS@@@Z ENDP ; CDbManager::LogError
; Function compile flags: /Ogtp
; File C:\IAGOS\server\v18\Source\Source\_Database\DbManagerLog.cpp
;	COMDAT ?LogInstanceDungeon@CDbManager@@AAEXPAVCQuery@@PAUtagDB_OVERLAPPED_PLUS@@@Z
_TEXT	SEGMENT
_dwDungeonId$ = -16440					; size = 4
_dwWorldId$ = -16436					; size = 4
_uChannel$ = -16432					; size = 4
_nDungeonType$ = -16428					; size = 4
_chState$ = -16421					; size = 1
_arRead$ = -16420					; size = 16404
__$ArrayPad$ = -16					; size = 4
__$EHRec$ = -12						; size = 12
_pQuery$ = 8						; size = 4
_lpDbOverlappedPlus$ = 12				; size = 4
?LogInstanceDungeon@CDbManager@@AAEXPAVCQuery@@PAUtagDB_OVERLAPPED_PLUS@@@Z PROC ; CDbManager::LogInstanceDungeon, COMDAT
; _this$ = ecx

; 1145 : {

  00000	55		 push	 ebp
  00001	8b ec		 mov	 ebp, esp
  00003	6a ff		 push	 -1
  00005	68 00 00 00 00	 push	 __ehhandler$?LogInstanceDungeon@CDbManager@@AAEXPAVCQuery@@PAUtagDB_OVERLAPPED_PLUS@@@Z
  0000a	64 a1 00 00 00
	00		 mov	 eax, DWORD PTR fs:0
  00010	50		 push	 eax
  00011	b8 2c 40 00 00	 mov	 eax, 16428		; 0000402cH
  00016	e8 00 00 00 00	 call	 __chkstk
  0001b	a1 00 00 00 00	 mov	 eax, DWORD PTR ___security_cookie
  00020	33 c5		 xor	 eax, ebp
  00022	89 45 f0	 mov	 DWORD PTR __$ArrayPad$[ebp], eax
  00025	53		 push	 ebx
  00026	56		 push	 esi
  00027	57		 push	 edi
  00028	50		 push	 eax
  00029	8d 45 f4	 lea	 eax, DWORD PTR __$EHRec$[ebp]
  0002c	64 a3 00 00 00
	00		 mov	 DWORD PTR fs:0, eax
  00032	8b d9		 mov	 ebx, ecx
  00034	8b 7d 0c	 mov	 edi, DWORD PTR _lpDbOverlappedPlus$[ebp]

; 1146 : 	CAr arRead( lpDbOverlappedPlus->lpBuf, lpDbOverlappedPlus->uBufSize );

  00037	8d 8d dc bf ff
	ff		 lea	 ecx, DWORD PTR _arRead$[ebp]
  0003d	8b 75 08	 mov	 esi, DWORD PTR _pQuery$[ebp]
  00040	ff 77 1c	 push	 DWORD PTR [edi+28]
  00043	ff 77 18	 push	 DWORD PTR [edi+24]
  00046	e8 00 00 00 00	 call	 ??0CAr@@QAE@PAXI@Z	; CAr::CAr

; 1147 : 
; 1148 : 	DWORD dwDungeonId, dwWorldId;
; 1149 : 	u_long uChannel;
; 1150 : 	int	nDungeonType;
; 1151 : 	char chState;
; 1152 : 
; 1153 : 	arRead >> dwDungeonId >> dwWorldId >> uChannel >> nDungeonType >> chState;

  0004b	8d 85 db bf ff
	ff		 lea	 eax, DWORD PTR _chState$[ebp]
  00051	c7 45 fc 00 00
	00 00		 mov	 DWORD PTR __$EHRec$[ebp+8], 0
  00058	50		 push	 eax
  00059	8d 85 d4 bf ff
	ff		 lea	 eax, DWORD PTR _nDungeonType$[ebp]
  0005f	50		 push	 eax
  00060	8d 85 d0 bf ff
	ff		 lea	 eax, DWORD PTR _uChannel$[ebp]
  00066	50		 push	 eax
  00067	8d 85 cc bf ff
	ff		 lea	 eax, DWORD PTR _dwWorldId$[ebp]
  0006d	50		 push	 eax
  0006e	8d 85 c8 bf ff
	ff		 lea	 eax, DWORD PTR _dwDungeonId$[ebp]
  00074	50		 push	 eax
  00075	8d 8d dc bf ff
	ff		 lea	 ecx, DWORD PTR _arRead$[ebp]
  0007b	e8 00 00 00 00	 call	 ??$?5K@CAr@@QAEAAV0@AAK@Z ; CAr::operator>><unsigned long>
  00080	8b c8		 mov	 ecx, eax
  00082	e8 00 00 00 00	 call	 ??$?5K@CAr@@QAEAAV0@AAK@Z ; CAr::operator>><unsigned long>
  00087	8b c8		 mov	 ecx, eax
  00089	e8 00 00 00 00	 call	 ??$?5K@CAr@@QAEAAV0@AAK@Z ; CAr::operator>><unsigned long>
  0008e	8b c8		 mov	 ecx, eax
  00090	e8 00 00 00 00	 call	 ??$?5H@CAr@@QAEAAV0@AAH@Z ; CAr::operator>><int>
  00095	8b c8		 mov	 ecx, eax
  00097	e8 00 00 00 00	 call	 ??$?5D@CAr@@QAEAAV0@AAD@Z ; CAr::operator>><char>

; 1154 : 	
; 1155 : 	pQuery->Execute( "usp_Log_Ins_Dungeon_Insert @serverindex = '%02d', @m_DungeonID = '%07d', @m_WorldID = %d, @m_channel = %d, @m_Type = %d, @m_State = '%c'", 

  0009c	0f be 85 db bf
	ff ff		 movsx	 eax, BYTE PTR _chState$[ebp]
  000a3	50		 push	 eax
  000a4	ff b5 d4 bf ff
	ff		 push	 DWORD PTR _nDungeonType$[ebp]
  000aa	ff b5 d0 bf ff
	ff		 push	 DWORD PTR _uChannel$[ebp]
  000b0	ff b5 cc bf ff
	ff		 push	 DWORD PTR _dwWorldId$[ebp]
  000b6	ff b5 c8 bf ff
	ff		 push	 DWORD PTR _dwDungeonId$[ebp]
  000bc	ff 35 00 00 00
	00		 push	 DWORD PTR ?g_appInfo@@3UAppInfo@@A
  000c2	68 00 00 00 00	 push	 OFFSET ??_C@_0IJ@FAMDIIKP@usp_Log_Ins_Dungeon_Insert?5?$EAser@
  000c7	56		 push	 esi
  000c8	e8 00 00 00 00	 call	 ?Execute@CQuery@@QAAHPBDZZ ; CQuery::Execute
  000cd	83 c4 20	 add	 esp, 32			; 00000020H

; 1156 : 	g_appInfo.dwSys, dwDungeonId, dwWorldId, uChannel, nDungeonType, chState );
; 1157 : 	
; 1158 : 	FreeRequest( lpDbOverlappedPlus );

  000d0	8b cb		 mov	 ecx, ebx
  000d2	57		 push	 edi
  000d3	e8 00 00 00 00	 call	 ?FreeRequest@CDbManager@@QAEXPAUtagDB_OVERLAPPED_PLUS@@@Z ; CDbManager::FreeRequest

; 1159 : }

  000d8	8d 8d dc bf ff
	ff		 lea	 ecx, DWORD PTR _arRead$[ebp]
  000de	e8 00 00 00 00	 call	 ??1CAr@@QAE@XZ		; CAr::~CAr
  000e3	8b 4d f4	 mov	 ecx, DWORD PTR __$EHRec$[ebp]
  000e6	64 89 0d 00 00
	00 00		 mov	 DWORD PTR fs:0, ecx
  000ed	59		 pop	 ecx
  000ee	5f		 pop	 edi
  000ef	5e		 pop	 esi
  000f0	5b		 pop	 ebx
  000f1	8b 4d f0	 mov	 ecx, DWORD PTR __$ArrayPad$[ebp]
  000f4	33 cd		 xor	 ecx, ebp
  000f6	e8 00 00 00 00	 call	 @__security_check_cookie@4
  000fb	8b e5		 mov	 esp, ebp
  000fd	5d		 pop	 ebp
  000fe	c2 08 00	 ret	 8
_TEXT	ENDS
;	COMDAT text$x
text$x	SEGMENT
__unwindfunclet$?LogInstanceDungeon@CDbManager@@AAEXPAVCQuery@@PAUtagDB_OVERLAPPED_PLUS@@@Z$0:
  00000	8d 8d dc bf ff
	ff		 lea	 ecx, DWORD PTR _arRead$[ebp]
  00006	e9 00 00 00 00	 jmp	 ??1CAr@@QAE@XZ		; CAr::~CAr
  0000b	cc		 int	 3
  0000c	cc		 int	 3
  0000d	cc		 int	 3
  0000e	cc		 int	 3
  0000f	cc		 int	 3
__ehhandler$?LogInstanceDungeon@CDbManager@@AAEXPAVCQuery@@PAUtagDB_OVERLAPPED_PLUS@@@Z:
  00010	90		 npad	 1
  00011	90		 npad	 1
  00012	8b 54 24 08	 mov	 edx, DWORD PTR [esp+8]
  00016	8d 42 0c	 lea	 eax, DWORD PTR [edx+12]
  00019	8b 8a c4 bf ff
	ff		 mov	 ecx, DWORD PTR [edx-16444]
  0001f	33 c8		 xor	 ecx, eax
  00021	e8 00 00 00 00	 call	 @__security_check_cookie@4
  00026	8b 4a fc	 mov	 ecx, DWORD PTR [edx-4]
  00029	33 c8		 xor	 ecx, eax
  0002b	e8 00 00 00 00	 call	 @__security_check_cookie@4
  00030	b8 00 00 00 00	 mov	 eax, OFFSET __ehfuncinfo$?LogInstanceDungeon@CDbManager@@AAEXPAVCQuery@@PAUtagDB_OVERLAPPED_PLUS@@@Z
  00035	e9 00 00 00 00	 jmp	 ___CxxFrameHandler3
text$x	ENDS
?LogInstanceDungeon@CDbManager@@AAEXPAVCQuery@@PAUtagDB_OVERLAPPED_PLUS@@@Z ENDP ; CDbManager::LogInstanceDungeon
; Function compile flags: /Ogtp
; File C:\IAGOS\server\v18\Source\Source\_Database\DbManagerLog.cpp
;	COMDAT ?LogConcurrentUserNumber@CDbManager@@AAEXPAVCQuery@@PAUtagDB_OVERLAPPED_PLUS@@@Z
_TEXT	SEGMENT
_this$GSCopy$1$ = -57668				; size = 4
_lpDbOverlappedPlus$GSCopy$1$ = -57664			; size = 4
_qry$GSCopy$1$ = -57660					; size = 4
_nChannel$ = -57656					; size = 4
_cbSize$ = -57652					; size = 4
_ar$ = -57648						; size = 16404
_anCount$ = -41244					; size = 256
_szQuery$ = -40988					; size = 40960
_szCount$ = -28						; size = 10
__$ArrayPad$ = -16					; size = 4
__$EHRec$ = -12						; size = 12
_qry$ = 8						; size = 4
_lpDbOverlappedPlus$ = 12				; size = 4
?LogConcurrentUserNumber@CDbManager@@AAEXPAVCQuery@@PAUtagDB_OVERLAPPED_PLUS@@@Z PROC ; CDbManager::LogConcurrentUserNumber, COMDAT
; _this$ = ecx

; 793  : {

  00000	55		 push	 ebp
  00001	8b ec		 mov	 ebp, esp
  00003	6a ff		 push	 -1
  00005	68 00 00 00 00	 push	 __ehhandler$?LogConcurrentUserNumber@CDbManager@@AAEXPAVCQuery@@PAUtagDB_OVERLAPPED_PLUS@@@Z
  0000a	64 a1 00 00 00
	00		 mov	 eax, DWORD PTR fs:0
  00010	50		 push	 eax
  00011	b8 38 e1 00 00	 mov	 eax, 57656		; 0000e138H
  00016	e8 00 00 00 00	 call	 __chkstk
  0001b	a1 00 00 00 00	 mov	 eax, DWORD PTR ___security_cookie
  00020	33 c5		 xor	 eax, ebp
  00022	89 45 f0	 mov	 DWORD PTR __$ArrayPad$[ebp], eax
  00025	53		 push	 ebx
  00026	56		 push	 esi
  00027	57		 push	 edi
  00028	50		 push	 eax
  00029	8d 45 f4	 lea	 eax, DWORD PTR __$EHRec$[ebp]
  0002c	64 a3 00 00 00
	00		 mov	 DWORD PTR fs:0, eax
  00032	89 8d bc 1e ff
	ff		 mov	 DWORD PTR _this$GSCopy$1$[ebp], ecx
  00038	8b 45 08	 mov	 eax, DWORD PTR _qry$[ebp]

; 794  : 	CAr ar( lpDbOverlappedPlus->lpBuf, lpDbOverlappedPlus->uBufSize );

  0003b	8d 8d d0 1e ff
	ff		 lea	 ecx, DWORD PTR _ar$[ebp]
  00041	89 85 c4 1e ff
	ff		 mov	 DWORD PTR _qry$GSCopy$1$[ebp], eax
  00047	8b 45 0c	 mov	 eax, DWORD PTR _lpDbOverlappedPlus$[ebp]
  0004a	89 85 c0 1e ff
	ff		 mov	 DWORD PTR _lpDbOverlappedPlus$GSCopy$1$[ebp], eax
  00050	ff 70 1c	 push	 DWORD PTR [eax+28]
  00053	ff 70 18	 push	 DWORD PTR [eax+24]
  00056	e8 00 00 00 00	 call	 ??0CAr@@QAE@PAXI@Z	; CAr::CAr

; 795  : 	
; 796  : 	//	qry->Clear();
; 797  : 	
; 798  : 	int cbSize;
; 799  : 	int anCount[64];
; 800  : #ifdef __LOG_PLAYERCOUNT_CHANNEL
; 801  : 	int nChannel;
; 802  : 	ar >> nChannel;

  0005b	8d 85 c8 1e ff
	ff		 lea	 eax, DWORD PTR _nChannel$[ebp]
  00061	c7 45 fc 00 00
	00 00		 mov	 DWORD PTR __$EHRec$[ebp+8], 0
  00068	50		 push	 eax
  00069	8d 8d d0 1e ff
	ff		 lea	 ecx, DWORD PTR _ar$[ebp]
  0006f	e8 00 00 00 00	 call	 ??$?5H@CAr@@QAEAAV0@AAH@Z ; CAr::operator>><int>

; 803  : #endif // __LOG_PLAYERCOUNT_CHANNEL
; 804  : 	ar >> cbSize;

  00074	8d 85 cc 1e ff
	ff		 lea	 eax, DWORD PTR _cbSize$[ebp]
  0007a	50		 push	 eax
  0007b	8d 8d d0 1e ff
	ff		 lea	 ecx, DWORD PTR _ar$[ebp]
  00081	e8 00 00 00 00	 call	 ??$?5H@CAr@@QAEAAV0@AAH@Z ; CAr::operator>><int>

; 805  : 	//	memset( (void*)anCount, 0, sizeof(int) * 64 );
; 806  : 	ar.Read( (void*)anCount, sizeof(int) * cbSize );

  00086	8b b5 cc 1e ff
	ff		 mov	 esi, DWORD PTR _cbSize$[ebp]
  0008c	8d 8d d0 1e ff
	ff		 lea	 ecx, DWORD PTR _ar$[ebp]
  00092	8d 04 b5 00 00
	00 00		 lea	 eax, DWORD PTR [esi*4]
  00099	50		 push	 eax
  0009a	8d 85 e4 5e ff
	ff		 lea	 eax, DWORD PTR _anCount$[ebp]
  000a0	50		 push	 eax
  000a1	e8 00 00 00 00	 call	 ?Read@CAr@@QAEXPAXI@Z	; CAr::Read

; 807  : 	//	LOG_USER_CNT_STR '00', 0, 0, 0, 0
; 808  : 	char szQuery[QUERY_SIZE]	= { 0,};

  000a6	68 00 a0 00 00	 push	 40960			; 0000a000H
  000ab	8d 85 e4 5f ff
	ff		 lea	 eax, DWORD PTR _szQuery$[ebp]
  000b1	6a 00		 push	 0
  000b3	50		 push	 eax
  000b4	e8 00 00 00 00	 call	 _memset

; 809  : #ifdef __LOG_PLAYERCOUNT_CHANNEL
; 810  : 	sprintf( szQuery, "LOG_USER_CNT_STR '%02d', %d", g_appInfo.dwSys, nChannel );

  000b9	ff b5 c8 1e ff
	ff		 push	 DWORD PTR _nChannel$[ebp]
  000bf	8d 85 e4 5f ff
	ff		 lea	 eax, DWORD PTR _szQuery$[ebp]
  000c5	ff 35 00 00 00
	00		 push	 DWORD PTR ?g_appInfo@@3UAppInfo@@A
  000cb	68 00 00 00 00	 push	 OFFSET ??_C@_0BM@PFNCDNBM@LOG_USER_CNT_STR?5?8?$CF02d?8?0?5?$CFd@
  000d0	50		 push	 eax
  000d1	e8 00 00 00 00	 call	 _sprintf
  000d6	83 c4 1c	 add	 esp, 28			; 0000001cH
  000d9	33 db		 xor	 ebx, ebx

; 811  : #else // __LOG_PLAYERCOUNT_CHANNEL
; 812  : 	sprintf( szQuery, "LOG_USER_CNT_STR '%02d'", g_appInfo.dwSys );
; 813  : #endif // __LOG_PLAYERCOUNT_CHANNEL
; 814  : 	
; 815  : 	char szCount[10];
; 816  : 	for( int i = 0; i < cbSize; i++ )

  000db	85 f6		 test	 esi, esi
  000dd	7e 50		 jle	 SHORT $LN3@LogConcurr
  000df	90		 npad	 1
$LL4@LogConcurr:

; 817  : 	{
; 818  : 		sprintf( szCount, ", %d", anCount[i] );

  000e0	ff b4 9d e4 5e
	ff ff		 push	 DWORD PTR _anCount$[ebp+ebx*4]
  000e7	8d 45 e4	 lea	 eax, DWORD PTR _szCount$[ebp]
  000ea	68 00 00 00 00	 push	 OFFSET ??_C@_04KCMJEPHB@?0?5?$CFd@
  000ef	50		 push	 eax
  000f0	e8 00 00 00 00	 call	 _sprintf

; 819  : 		strcat( szQuery, szCount );

  000f5	8d 45 e4	 lea	 eax, DWORD PTR _szCount$[ebp]
  000f8	83 c4 0c	 add	 esp, 12			; 0000000cH
  000fb	8b f0		 mov	 esi, eax
  000fd	0f 1f 00	 npad	 3
$LL11@LogConcurr:
  00100	8a 08		 mov	 cl, BYTE PTR [eax]
  00102	40		 inc	 eax
  00103	84 c9		 test	 cl, cl
  00105	75 f9		 jne	 SHORT $LL11@LogConcurr
  00107	8d bd e4 5f ff
	ff		 lea	 edi, DWORD PTR _szQuery$[ebp]
  0010d	2b c6		 sub	 eax, esi
  0010f	4f		 dec	 edi
$LL12@LogConcurr:
  00110	8a 4f 01	 mov	 cl, BYTE PTR [edi+1]
  00113	47		 inc	 edi
  00114	84 c9		 test	 cl, cl
  00116	75 f8		 jne	 SHORT $LL12@LogConcurr
  00118	8b c8		 mov	 ecx, eax
  0011a	43		 inc	 ebx
  0011b	c1 e9 02	 shr	 ecx, 2
  0011e	f3 a5		 rep movsd
  00120	8b c8		 mov	 ecx, eax
  00122	83 e1 03	 and	 ecx, 3
  00125	f3 a4		 rep movsb
  00127	3b 9d cc 1e ff
	ff		 cmp	 ebx, DWORD PTR _cbSize$[ebp]
  0012d	7c b1		 jl	 SHORT $LL4@LogConcurr
$LN3@LogConcurr:

; 820  : 	}
; 821  : 	
; 822  : 	qry->Exec( szQuery );

  0012f	8b 8d c4 1e ff
	ff		 mov	 ecx, DWORD PTR _qry$GSCopy$1$[ebp]
  00135	8d 85 e4 5f ff
	ff		 lea	 eax, DWORD PTR _szQuery$[ebp]
  0013b	50		 push	 eax
  0013c	e8 00 00 00 00	 call	 ?Exec@CQuery@@QAEHPBD@Z	; CQuery::Exec

; 823  : 	
; 824  : 	//	qry->Clear();
; 825  : 	
; 826  : 	FreeRequest( lpDbOverlappedPlus );

  00141	ff b5 c0 1e ff
	ff		 push	 DWORD PTR _lpDbOverlappedPlus$GSCopy$1$[ebp]
  00147	8b 8d bc 1e ff
	ff		 mov	 ecx, DWORD PTR _this$GSCopy$1$[ebp]
  0014d	e8 00 00 00 00	 call	 ?FreeRequest@CDbManager@@QAEXPAUtagDB_OVERLAPPED_PLUS@@@Z ; CDbManager::FreeRequest

; 827  : }

  00152	8d 8d d0 1e ff
	ff		 lea	 ecx, DWORD PTR _ar$[ebp]
  00158	e8 00 00 00 00	 call	 ??1CAr@@QAE@XZ		; CAr::~CAr
  0015d	8b 4d f4	 mov	 ecx, DWORD PTR __$EHRec$[ebp]
  00160	64 89 0d 00 00
	00 00		 mov	 DWORD PTR fs:0, ecx
  00167	59		 pop	 ecx
  00168	5f		 pop	 edi
  00169	5e		 pop	 esi
  0016a	5b		 pop	 ebx
  0016b	8b 4d f0	 mov	 ecx, DWORD PTR __$ArrayPad$[ebp]
  0016e	33 cd		 xor	 ecx, ebp
  00170	e8 00 00 00 00	 call	 @__security_check_cookie@4
  00175	8b e5		 mov	 esp, ebp
  00177	5d		 pop	 ebp
  00178	c2 08 00	 ret	 8
_TEXT	ENDS
;	COMDAT text$x
text$x	SEGMENT
__unwindfunclet$?LogConcurrentUserNumber@CDbManager@@AAEXPAVCQuery@@PAUtagDB_OVERLAPPED_PLUS@@@Z$0:
  00000	8d 8d d0 1e ff
	ff		 lea	 ecx, DWORD PTR _ar$[ebp]
  00006	e9 00 00 00 00	 jmp	 ??1CAr@@QAE@XZ		; CAr::~CAr
  0000b	cc		 int	 3
  0000c	cc		 int	 3
  0000d	cc		 int	 3
  0000e	cc		 int	 3
  0000f	cc		 int	 3
__ehhandler$?LogConcurrentUserNumber@CDbManager@@AAEXPAVCQuery@@PAUtagDB_OVERLAPPED_PLUS@@@Z:
  00010	90		 npad	 1
  00011	90		 npad	 1
  00012	8b 54 24 08	 mov	 edx, DWORD PTR [esp+8]
  00016	8d 42 0c	 lea	 eax, DWORD PTR [edx+12]
  00019	8b 8a b8 1e ff
	ff		 mov	 ecx, DWORD PTR [edx-57672]
  0001f	33 c8		 xor	 ecx, eax
  00021	e8 00 00 00 00	 call	 @__security_check_cookie@4
  00026	8b 4a fc	 mov	 ecx, DWORD PTR [edx-4]
  00029	33 c8		 xor	 ecx, eax
  0002b	e8 00 00 00 00	 call	 @__security_check_cookie@4
  00030	b8 00 00 00 00	 mov	 eax, OFFSET __ehfuncinfo$?LogConcurrentUserNumber@CDbManager@@AAEXPAVCQuery@@PAUtagDB_OVERLAPPED_PLUS@@@Z
  00035	e9 00 00 00 00	 jmp	 ___CxxFrameHandler3
text$x	ENDS
?LogConcurrentUserNumber@CDbManager@@AAEXPAVCQuery@@PAUtagDB_OVERLAPPED_PLUS@@@Z ENDP ; CDbManager::LogConcurrentUserNumber
; Function compile flags: /Ogtp
; File C:\IAGOS\server\v18\Source\Source\_Database\DbManagerLog.cpp
; File C:\Program Files\Microsoft Visual Studio\2022\Professional\VC\Tools\MSVC\14.44.35207\atlmfc\include\afxstr.h
; File C:\Program Files\Microsoft Visual Studio\2022\Professional\VC\Tools\MSVC\14.44.35207\atlmfc\include\atlsimpstr.h
; File C:\Program Files\Microsoft Visual Studio\2022\Professional\VC\Tools\MSVC\14.44.35207\atlmfc\include\cstringt.h
; File C:\Program Files\Microsoft Visual Studio\2022\Professional\VC\Tools\MSVC\14.44.35207\atlmfc\include\atlsimpstr.h
; File C:\IAGOS\server\v18\Source\Source\_Database\DbManagerLog.cpp
; File C:\Program Files\Microsoft Visual Studio\2022\Professional\VC\Tools\MSVC\14.44.35207\atlmfc\include\afxstr.h
; File C:\Program Files\Microsoft Visual Studio\2022\Professional\VC\Tools\MSVC\14.44.35207\atlmfc\include\atlsimpstr.h
; File C:\Program Files\Microsoft Visual Studio\2022\Professional\VC\Tools\MSVC\14.44.35207\atlmfc\include\cstringt.h
; File C:\Program Files\Microsoft Visual Studio\2022\Professional\VC\Tools\MSVC\14.44.35207\atlmfc\include\atlsimpstr.h
; File C:\IAGOS\server\v18\Source\Source\_Database\DbManagerLog.cpp
; File C:\Program Files\Microsoft Visual Studio\2022\Professional\VC\Tools\MSVC\14.44.35207\atlmfc\include\afxstr.h
; File C:\Program Files\Microsoft Visual Studio\2022\Professional\VC\Tools\MSVC\14.44.35207\atlmfc\include\atlsimpstr.h
; File C:\Program Files\Microsoft Visual Studio\2022\Professional\VC\Tools\MSVC\14.44.35207\atlmfc\include\cstringt.h
; File C:\Program Files\Microsoft Visual Studio\2022\Professional\VC\Tools\MSVC\14.44.35207\atlmfc\include\atlsimpstr.h
; File C:\IAGOS\server\v18\Source\Source\_Database\DbManagerLog.cpp
; File C:\Program Files (x86)\Windows Kits\10\Include\10.0.26100.0\ucrt\tchar.h
; File C:\IAGOS\server\v18\Source\Source\_Database\DbManagerLog.cpp
; File C:\Program Files (x86)\Windows Kits\10\Include\10.0.26100.0\ucrt\tchar.h
; File C:\IAGOS\server\v18\Source\Source\_Database\DbManagerLog.cpp
; File C:\Program Files\Microsoft Visual Studio\2022\Professional\VC\Tools\MSVC\14.44.35207\atlmfc\include\atlsimpstr.h
; File C:\IAGOS\server\v18\Source\Source\_Database\DbManagerLog.cpp
; File C:\Program Files\Microsoft Visual Studio\2022\Professional\VC\Tools\MSVC\14.44.35207\atlmfc\include\atlsimpstr.h
; File C:\IAGOS\server\v18\Source\Source\_Database\DbManagerLog.cpp
; File C:\Program Files\Microsoft Visual Studio\2022\Professional\VC\Tools\MSVC\14.44.35207\atlmfc\include\atlsimpstr.h
; File C:\IAGOS\server\v18\Source\Source\_Database\DbManagerLog.cpp
; File C:\Program Files\Microsoft Visual Studio\2022\Professional\VC\Tools\MSVC\14.44.35207\atlmfc\include\atlsimpstr.h
; File C:\IAGOS\server\v18\Source\Source\_Database\DbManagerLog.cpp
; File C:\Program Files\Microsoft Visual Studio\2022\Professional\VC\Tools\MSVC\14.44.35207\atlmfc\include\afxstr.h
; File C:\Program Files\Microsoft Visual Studio\2022\Professional\VC\Tools\MSVC\14.44.35207\atlmfc\include\atlsimpstr.h
; File C:\Program Files\Microsoft Visual Studio\2022\Professional\VC\Tools\MSVC\14.44.35207\atlmfc\include\cstringt.h
; File C:\Program Files\Microsoft Visual Studio\2022\Professional\VC\Tools\MSVC\14.44.35207\atlmfc\include\atlsimpstr.h
; File C:\Program Files\Microsoft Visual Studio\2022\Professional\VC\Tools\MSVC\14.44.35207\atlmfc\include\cstringt.h
; File C:\IAGOS\server\v18\Source\Source\_Database\DbManagerLog.cpp
; File C:\Program Files\Microsoft Visual Studio\2022\Professional\VC\Tools\MSVC\14.44.35207\atlmfc\include\cstringt.h
; File C:\Program Files\Microsoft Visual Studio\2022\Professional\VC\Tools\MSVC\14.44.35207\atlmfc\include\atlsimpstr.h
; File C:\Program Files\Microsoft Visual Studio\2022\Professional\VC\Tools\MSVC\14.44.35207\atlmfc\include\cstringt.h
; File C:\Program Files\Microsoft Visual Studio\2022\Professional\VC\Tools\MSVC\14.44.35207\atlmfc\include\atlsimpstr.h
; File C:\Program Files\Microsoft Visual Studio\2022\Professional\VC\Tools\MSVC\14.44.35207\atlmfc\include\cstringt.h
; File C:\Program Files\Microsoft Visual Studio\2022\Professional\VC\Tools\MSVC\14.44.35207\atlmfc\include\atlsimpstr.h
; File C:\IAGOS\server\v18\Source\Source\_Database\DbManagerLog.cpp
; File C:\IAGOS\server\v18\Source\Source\_network\CmnHdr.h
; File C:\IAGOS\server\v18\Source\Source\_Database\DbManagerLog.cpp
; File C:\Program Files (x86)\Windows Kits\10\Include\10.0.26100.0\ucrt\tchar.h
; File C:\IAGOS\server\v18\Source\Source\_network\CmnHdr.h
; File C:\Program Files (x86)\Windows Kits\10\Include\10.0.26100.0\ucrt\tchar.h
; File C:\IAGOS\server\v18\Source\Source\_network\CmnHdr.h
; File C:\Program Files (x86)\Windows Kits\10\Include\10.0.26100.0\ucrt\tchar.h
; File C:\IAGOS\server\v18\Source\Source\_network\CmnHdr.h
; File C:\Program Files (x86)\Windows Kits\10\Include\10.0.26100.0\ucrt\tchar.h
; File C:\IAGOS\server\v18\Source\Source\_network\CmnHdr.h
; File C:\Program Files (x86)\Windows Kits\10\Include\10.0.26100.0\ucrt\tchar.h
; File C:\IAGOS\server\v18\Source\Source\_network\CmnHdr.h
; File C:\Program Files (x86)\Windows Kits\10\Include\10.0.26100.0\ucrt\tchar.h
; File C:\IAGOS\server\v18\Source\Source\_Database\DbManagerLog.cpp
; File C:\Program Files (x86)\Windows Kits\10\Include\10.0.26100.0\ucrt\tchar.h
; File C:\IAGOS\server\v18\Source\Source\_Database\DbManagerLog.cpp
; File C:\Program Files\Microsoft Visual Studio\2022\Professional\VC\Tools\MSVC\14.44.35207\atlmfc\include\atlsimpstr.h
; File C:\IAGOS\server\v18\Source\Source\_Database\DbManagerLog.cpp
; File C:\Program Files\Microsoft Visual Studio\2022\Professional\VC\Tools\MSVC\14.44.35207\atlmfc\include\afxstr.h
; File C:\Program Files\Microsoft Visual Studio\2022\Professional\VC\Tools\MSVC\14.44.35207\atlmfc\include\atlsimpstr.h
; File C:\Program Files\Microsoft Visual Studio\2022\Professional\VC\Tools\MSVC\14.44.35207\atlmfc\include\cstringt.h
; File C:\IAGOS\server\v18\Source\Source\_Database\DbManagerLog.cpp
; File C:\Program Files\Microsoft Visual Studio\2022\Professional\VC\Tools\MSVC\14.44.35207\atlmfc\include\atlsimpstr.h
; File C:\Program Files\Microsoft Visual Studio\2022\Professional\VC\Tools\MSVC\14.44.35207\atlmfc\include\cstringt.h
; File C:\IAGOS\server\v18\Source\Source\_Database\DbManagerLog.cpp
; File C:\Program Files\Microsoft Visual Studio\2022\Professional\VC\Tools\MSVC\14.44.35207\atlmfc\include\cstringt.h
; File C:\Program Files\Microsoft Visual Studio\2022\Professional\VC\Tools\MSVC\14.44.35207\atlmfc\include\atlsimpstr.h
; File C:\Program Files\Microsoft Visual Studio\2022\Professional\VC\Tools\MSVC\14.44.35207\atlmfc\include\cstringt.h
; File C:\Program Files\Microsoft Visual Studio\2022\Professional\VC\Tools\MSVC\14.44.35207\atlmfc\include\atlsimpstr.h
; File C:\Program Files\Microsoft Visual Studio\2022\Professional\VC\Tools\MSVC\14.44.35207\atlmfc\include\cstringt.h
; File C:\Program Files\Microsoft Visual Studio\2022\Professional\VC\Tools\MSVC\14.44.35207\atlmfc\include\atlsimpstr.h
; File C:\IAGOS\server\v18\Source\Source\_Database\DbManagerLog.cpp
; File C:\IAGOS\server\v18\Source\Source\_network\CmnHdr.h
; File C:\IAGOS\server\v18\Source\Source\_Database\DbManagerLog.cpp
; File C:\Program Files (x86)\Windows Kits\10\Include\10.0.26100.0\ucrt\tchar.h
; File C:\IAGOS\server\v18\Source\Source\_network\CmnHdr.h
; File C:\Program Files (x86)\Windows Kits\10\Include\10.0.26100.0\ucrt\tchar.h
; File C:\IAGOS\server\v18\Source\Source\_network\CmnHdr.h
; File C:\Program Files (x86)\Windows Kits\10\Include\10.0.26100.0\ucrt\tchar.h
; File C:\IAGOS\server\v18\Source\Source\_network\CmnHdr.h
; File C:\Program Files (x86)\Windows Kits\10\Include\10.0.26100.0\ucrt\tchar.h
; File C:\IAGOS\server\v18\Source\Source\_network\CmnHdr.h
; File C:\Program Files (x86)\Windows Kits\10\Include\10.0.26100.0\ucrt\tchar.h
; File C:\IAGOS\server\v18\Source\Source\_network\CmnHdr.h
; File C:\Program Files (x86)\Windows Kits\10\Include\10.0.26100.0\ucrt\tchar.h
; File C:\IAGOS\server\v18\Source\Source\_Database\DbManagerLog.cpp
; File C:\Program Files (x86)\Windows Kits\10\Include\10.0.26100.0\ucrt\tchar.h
; File C:\IAGOS\server\v18\Source\Source\_Database\DbManagerLog.cpp
; File C:\Program Files\Microsoft Visual Studio\2022\Professional\VC\Tools\MSVC\14.44.35207\atlmfc\include\atlsimpstr.h
; File C:\IAGOS\server\v18\Source\Source\_Database\DbManagerLog.cpp
; File C:\Program Files\Microsoft Visual Studio\2022\Professional\VC\Tools\MSVC\14.44.35207\atlmfc\include\atlsimpstr.h
; File C:\IAGOS\server\v18\Source\Source\_Database\DbManagerLog.cpp
;	COMDAT ?LogItem@CDbManager@@AAEXPAVCQuery@@PAUtagDB_OVERLAPPED_PLUS@@@Z
_TEXT	SEGMENT
_idPlayer1$2 = -58004					; size = 4
_nNegudo$3 = -58000					; size = 4
_iSeed1$ = -57996					; size = 4
_idPlayer2$4 = -57992					; size = 4
_nMaxNegudo$5 = -57992					; size = 4
_dwItemId$6 = -57988					; size = 4
_iSerialNumber$7 = -57988				; size = 4
_iChar$1$ = -57984					; size = 4
_nSlot1$8 = -57984					; size = 4
_strPlayer1$ = -57980					; size = 4
_uSize2$9 = -57976					; size = 4
_ItemNo$10 = -57976					; size = 4
_nJob1$11 = -57976					; size = 4
_lpDbOverlappedPlus$GSCopy$1$ = -57972			; size = 4
_iSeed2$ = -57968					; size = 4
_dwWorldID$ = -57964					; size = 4
_dwGold_1$12 = -57960					; size = 4
_iReMainder2$ = -57960					; size = 4
_iReMainder1$ = -57956					; size = 4
_nMaxNegudo$13 = -57956					; size = 4
_i$1$ = -57952						; size = 4
_nJob2$14 = -57952					; size = 4
_nNegudo$15 = -57952					; size = 4
_dwItemId$16 = -57948					; size = 4
_nLevel2$17 = -57948					; size = 4
_iSerialNumber$18 = -57948				; size = 4
_nTradeID$1$ = -57944					; size = 4
_nSlot$19 = -57944					; size = 4
_i$1$ = -57940						; size = 4
_k$2$ = -57940						; size = 4
_k$1$ = -57940						; size = 4
_nMaxNegudo$20 = -57940					; size = 4
_nLength$1$ = -57936					; size = 4
_nItemNum$21 = -57936					; size = 4
_nItemNum$22 = -57936					; size = 2
_nItemNum$23 = -57932					; size = 2
_nNegudo$24 = -57932					; size = 4
_nLength$1$ = -57932					; size = 4
_nResistAbilityOption$25 = -57928			; size = 4
_nAbilityOption$26 = -57928				; size = 4
_nResistAbilityOption$27 = -57928			; size = 4
_nItemResist$28 = -57924				; size = 4
_nItemResist$29 = -57924				; size = 4
_nItemResist$30 = -57924				; size = 4
_nAbilityOption$31 = -57920				; size = 4
_nAbilityOption$32 = -57920				; size = 4
_nResistAbilityOption$33 = -57920			; size = 4
_qry$GSCopy$1$ = -57916					; size = 4
_strPlayer2$ = -57912					; size = 4
_uSize1$34 = -57908					; size = 4
_iChar$1$ = -57908					; size = 4
_nLevel1$35 = -57908					; size = 4
_i$1$ = -57908						; size = 4
_i$1$ = -57908						; size = 4
_this$GSCopy$1$ = -57904				; size = 4
_chAction$ = -57900					; size = 2
_strItem$36 = -57896					; size = 4
_strItem$37 = -57896					; size = 4
_strItem$38 = -57896					; size = 4
_chswitch$1$ = -57889					; size = 1
_bCopied$1$ = -57889					; size = 1
_bCopied$1$ = -57889					; size = 1
_aLogItem$39 = -57888					; size = 200
_aLogItem$40 = -57888					; size = 200
_aLogItem$41 = -57888					; size = 200
_aLogItem$42 = -57888					; size = 200
_aLogItem$43 = -57888					; size = 200
_arRead$ = -57688					; size = 16404
_szQuery$ = -41284					; size = 40960
_lpAddr1$44 = -324					; size = 100
_lpAddr2$45 = -224					; size = 100
_lpszPlayer2$ = -124					; size = 36
_lpszPlayer1$ = -88					; size = 36
_lpszItemText$ = -52					; size = 36
__$ArrayPad$ = -16					; size = 4
__$EHRec$ = -12						; size = 12
_qry$ = 8						; size = 4
_lpDbOverlappedPlus$ = 12				; size = 4
?LogItem@CDbManager@@AAEXPAVCQuery@@PAUtagDB_OVERLAPPED_PLUS@@@Z PROC ; CDbManager::LogItem, COMDAT
; _this$ = ecx

; 42   : {

  00000	55		 push	 ebp
  00001	8b ec		 mov	 ebp, esp
  00003	6a ff		 push	 -1
  00005	68 00 00 00 00	 push	 __ehhandler$?LogItem@CDbManager@@AAEXPAVCQuery@@PAUtagDB_OVERLAPPED_PLUS@@@Z
  0000a	64 a1 00 00 00
	00		 mov	 eax, DWORD PTR fs:0
  00010	50		 push	 eax
  00011	b8 88 e2 00 00	 mov	 eax, 57992		; 0000e288H
  00016	e8 00 00 00 00	 call	 __chkstk
  0001b	a1 00 00 00 00	 mov	 eax, DWORD PTR ___security_cookie
  00020	33 c5		 xor	 eax, ebp
  00022	89 45 f0	 mov	 DWORD PTR __$ArrayPad$[ebp], eax
  00025	56		 push	 esi
  00026	57		 push	 edi
  00027	50		 push	 eax
  00028	8d 45 f4	 lea	 eax, DWORD PTR __$EHRec$[ebp]
  0002b	64 a3 00 00 00
	00		 mov	 DWORD PTR fs:0, eax
  00031	8b f1		 mov	 esi, ecx
  00033	89 b5 d0 1d ff
	ff		 mov	 DWORD PTR _this$GSCopy$1$[ebp], esi
  00039	8b 45 08	 mov	 eax, DWORD PTR _qry$[ebp]

; 43   : 	CAr arRead( lpDbOverlappedPlus->lpBuf, lpDbOverlappedPlus->uBufSize );

  0003c	8d 8d a8 1e ff
	ff		 lea	 ecx, DWORD PTR _arRead$[ebp]
  00042	89 85 c4 1d ff
	ff		 mov	 DWORD PTR _qry$GSCopy$1$[ebp], eax
  00048	8b 45 0c	 mov	 eax, DWORD PTR _lpDbOverlappedPlus$[ebp]
  0004b	89 85 8c 1d ff
	ff		 mov	 DWORD PTR _lpDbOverlappedPlus$GSCopy$1$[ebp], eax
  00051	ff 70 1c	 push	 DWORD PTR [eax+28]
  00054	ff 70 18	 push	 DWORD PTR [eax+24]
  00057	e8 00 00 00 00	 call	 ??0CAr@@QAE@PAXI@Z	; CAr::CAr

; 44   : 
; 45   : 	// ŔĚ°÷ŔĚ Database serverŔÇ ÇÚµé·Ż şÎşĐŔĚ¶ó¸é, 
; 46   : 	//	ACTION + Äł¸ŻĹÍ1 + Äł¸ŻĹÍ2 + ŔĺĽŇ + ˝Ăµĺ1 + ˝Ăµĺ2 + ŔÜľ×1 + ŔÜľ×2 +
; 47   : 	//	ľĆŔĚĹŰ°łĽö1 + ľĆŔĚĹŰ°łĽö2 + ( ľĆŔĚĹŰ°íŔŻąřČŁ + ľĆŔĚĹŰŔĚ¸§ + °łĽö )1 + .... + ( ľĆŔĚĹŰ°íŔŻąřČŁ + ľĆŔĚĹŰŔĚ¸§ + °łĽö )2 + .....
; 48   : 	char chAction[2];
; 49   : 	char lpszPlayer1[36], lpszPlayer2[36], lpszItemText[36];
; 50   : 	arRead.ReadString( chAction, 2 );

  0005c	6a 02		 push	 2
  0005e	8d 85 d4 1d ff
	ff		 lea	 eax, DWORD PTR _chAction$[ebp]
  00064	c7 45 fc 00 00
	00 00		 mov	 DWORD PTR __$EHRec$[ebp+8], 0
  0006b	50		 push	 eax
  0006c	8d 8d a8 1e ff
	ff		 lea	 ecx, DWORD PTR _arRead$[ebp]
  00072	e8 00 00 00 00	 call	 ?ReadString@CAr@@QAEPADPADH@Z ; CAr::ReadString

; 51   : 	char chswitch = chAction[0];

  00077	8a 85 d4 1d ff
	ff		 mov	 al, BYTE PTR _chAction$[ebp]

; 52   : 	arRead.ReadString( lpszPlayer1, 36 );

  0007d	8d 8d a8 1e ff
	ff		 lea	 ecx, DWORD PTR _arRead$[ebp]
  00083	88 85 df 1d ff
	ff		 mov	 BYTE PTR _chswitch$1$[ebp], al
  00089	8d 45 a8	 lea	 eax, DWORD PTR _lpszPlayer1$[ebp]
  0008c	6a 24		 push	 36			; 00000024H
  0008e	50		 push	 eax
  0008f	e8 00 00 00 00	 call	 ?ReadString@CAr@@QAEPADPADH@Z ; CAr::ReadString

; 53   : 	arRead.ReadString( lpszPlayer2, 36 );

  00094	6a 24		 push	 36			; 00000024H
  00096	8d 45 84	 lea	 eax, DWORD PTR _lpszPlayer2$[ebp]
  00099	50		 push	 eax
  0009a	8d 8d a8 1e ff
	ff		 lea	 ecx, DWORD PTR _arRead$[ebp]
  000a0	e8 00 00 00 00	 call	 ?ReadString@CAr@@QAEPADPADH@Z ; CAr::ReadString
; File C:\Program Files\Microsoft Visual Studio\2022\Professional\VC\Tools\MSVC\14.44.35207\atlmfc\include\afxstr.h

; 56   : 		return( AfxGetStringManager() );

  000a5	e8 00 00 00 00	 call	 ?AfxGetStringManager@@YGPAUIAtlStringMgr@ATL@@XZ ; AfxGetStringManager
  000aa	8b c8		 mov	 ecx, eax
; File C:\Program Files\Microsoft Visual Studio\2022\Professional\VC\Tools\MSVC\14.44.35207\atlmfc\include\atlsimpstr.h

; 209  : 		ATLENSURE( pStringMgr != NULL );

  000ac	85 c9		 test	 ecx, ecx
  000ae	0f 84 ce 16 00
	00		 je	 $LN367@LogItem

; 210  : 		CStringData* pData = pStringMgr->GetNilString();

  000b4	8b 01		 mov	 eax, DWORD PTR [ecx]
  000b6	8b 40 0c	 mov	 eax, DWORD PTR [eax+12]
  000b9	ff d0		 call	 eax

; 211  : 		Attach( pData );

  000bb	83 c0 10	 add	 eax, 16			; 00000010H
  000be	89 85 84 1d ff
	ff		 mov	 DWORD PTR _strPlayer1$[ebp], eax
; File C:\Program Files\Microsoft Visual Studio\2022\Professional\VC\Tools\MSVC\14.44.35207\atlmfc\include\cstringt.h

; 2712 : 		if( (pv != NULL) && IS_INTRESOURCE( pv ) )

  000c4	8d 45 a8	 lea	 eax, DWORD PTR _lpszPlayer1$[ebp]

; 1052 : 		CThisSimpleString( StringTraits::GetDefaultManager() )

  000c7	c6 45 fc 01	 mov	 BYTE PTR __$EHRec$[ebp+8], 1

; 2712 : 		if( (pv != NULL) && IS_INTRESOURCE( pv ) )

  000cb	a9 00 00 ff ff	 test	 eax, -65536		; ffff0000H
  000d0	75 11		 jne	 SHORT $LN406@LogItem

; 2713 : 		{
; 2714 : 			UINT nID = LOWORD( reinterpret_cast< DWORD_PTR >( pv ) );

  000d2	0f b7 c0	 movzx	 eax, ax

; 2715 : 			(nID);
; 2716 : #ifdef _ATL_USE_WINAPI_FAMILY_DESKTOP_APP
; 2717 : 			if( !LoadString( nID ) )

  000d5	8d 8d 84 1d ff
	ff		 lea	 ecx, DWORD PTR _strPlayer1$[ebp]
  000db	50		 push	 eax
  000dc	e8 00 00 00 00	 call	 ?LoadStringA@?$CStringT@DV?$StrTraitMFC@DV?$ChTraitsCRT@D@ATL@@@@@ATL@@QAEHI@Z ; ATL::CStringT<char,StrTraitMFC<char,ATL::ChTraitsCRT<char> > >::LoadStringA

; 1054 : 		if( !CheckImplicitLoad( pszSrc ) )

  000e1	eb 26		 jmp	 SHORT $LN262@LogItem
$LN406@LogItem:
; File C:\Program Files\Microsoft Visual Studio\2022\Professional\VC\Tools\MSVC\14.44.35207\atlmfc\include\atlsimpstr.h

; 730  : 		return( int( strlen( psz ) ) );

  000e3	8d 4d a8	 lea	 ecx, DWORD PTR _lpszPlayer1$[ebp]
  000e6	8d 51 01	 lea	 edx, DWORD PTR [ecx+1]
  000e9	0f 1f 80 00 00
	00 00		 npad	 7
$LL412@LogItem:
  000f0	8a 01		 mov	 al, BYTE PTR [ecx]
  000f2	41		 inc	 ecx
  000f3	84 c0		 test	 al, al
  000f5	75 f9		 jne	 SHORT $LL412@LogItem
  000f7	2b ca		 sub	 ecx, edx

; 606  : 		SetString( pszSrc, StringLength( pszSrc ) );

  000f9	8d 45 a8	 lea	 eax, DWORD PTR _lpszPlayer1$[ebp]
  000fc	51		 push	 ecx
  000fd	50		 push	 eax
  000fe	8d 8d 84 1d ff
	ff		 lea	 ecx, DWORD PTR _strPlayer1$[ebp]
  00104	e8 00 00 00 00	 call	 ?SetString@?$CSimpleStringT@D$0A@@ATL@@QAEXPBDH@Z ; ATL::CSimpleStringT<char,0>::SetString
$LN262@LogItem:
; File C:\IAGOS\server\v18\Source\Source\_Database\DbManagerLog.cpp

; 55   : 	CString strPlayer1	= lpszPlayer1;

  00109	c6 45 fc 02	 mov	 BYTE PTR __$EHRec$[ebp+8], 2
; File C:\Program Files\Microsoft Visual Studio\2022\Professional\VC\Tools\MSVC\14.44.35207\atlmfc\include\afxstr.h

; 56   : 		return( AfxGetStringManager() );

  0010d	e8 00 00 00 00	 call	 ?AfxGetStringManager@@YGPAUIAtlStringMgr@ATL@@XZ ; AfxGetStringManager
  00112	8b c8		 mov	 ecx, eax
; File C:\Program Files\Microsoft Visual Studio\2022\Professional\VC\Tools\MSVC\14.44.35207\atlmfc\include\atlsimpstr.h

; 209  : 		ATLENSURE( pStringMgr != NULL );

  00114	85 c9		 test	 ecx, ecx
  00116	0f 84 70 16 00
	00		 je	 $LN426@LogItem

; 210  : 		CStringData* pData = pStringMgr->GetNilString();

  0011c	8b 01		 mov	 eax, DWORD PTR [ecx]
  0011e	8b 40 0c	 mov	 eax, DWORD PTR [eax+12]
  00121	ff d0		 call	 eax

; 211  : 		Attach( pData );

  00123	83 c0 10	 add	 eax, 16			; 00000010H
  00126	89 85 c8 1d ff
	ff		 mov	 DWORD PTR _strPlayer2$[ebp], eax
; File C:\Program Files\Microsoft Visual Studio\2022\Professional\VC\Tools\MSVC\14.44.35207\atlmfc\include\cstringt.h

; 2712 : 		if( (pv != NULL) && IS_INTRESOURCE( pv ) )

  0012c	8d 45 84	 lea	 eax, DWORD PTR _lpszPlayer2$[ebp]

; 1052 : 		CThisSimpleString( StringTraits::GetDefaultManager() )

  0012f	c6 45 fc 03	 mov	 BYTE PTR __$EHRec$[ebp+8], 3

; 2712 : 		if( (pv != NULL) && IS_INTRESOURCE( pv ) )

  00133	a9 00 00 ff ff	 test	 eax, -65536		; ffff0000H
  00138	75 11		 jne	 SHORT $LN407@LogItem

; 2713 : 		{
; 2714 : 			UINT nID = LOWORD( reinterpret_cast< DWORD_PTR >( pv ) );

  0013a	0f b7 c0	 movzx	 eax, ax

; 2715 : 			(nID);
; 2716 : #ifdef _ATL_USE_WINAPI_FAMILY_DESKTOP_APP
; 2717 : 			if( !LoadString( nID ) )

  0013d	8d 8d c8 1d ff
	ff		 lea	 ecx, DWORD PTR _strPlayer2$[ebp]
  00143	50		 push	 eax
  00144	e8 00 00 00 00	 call	 ?LoadStringA@?$CStringT@DV?$StrTraitMFC@DV?$ChTraitsCRT@D@ATL@@@@@ATL@@QAEHI@Z ; ATL::CStringT<char,StrTraitMFC<char,ATL::ChTraitsCRT<char> > >::LoadStringA

; 1054 : 		if( !CheckImplicitLoad( pszSrc ) )

  00149	eb 1f		 jmp	 SHORT $LN291@LogItem
$LN407@LogItem:
; File C:\Program Files\Microsoft Visual Studio\2022\Professional\VC\Tools\MSVC\14.44.35207\atlmfc\include\atlsimpstr.h

; 730  : 		return( int( strlen( psz ) ) );

  0014b	8d 4d 84	 lea	 ecx, DWORD PTR _lpszPlayer2$[ebp]
  0014e	8d 51 01	 lea	 edx, DWORD PTR [ecx+1]
$LL413@LogItem:
  00151	8a 01		 mov	 al, BYTE PTR [ecx]
  00153	41		 inc	 ecx
  00154	84 c0		 test	 al, al
  00156	75 f9		 jne	 SHORT $LL413@LogItem
  00158	2b ca		 sub	 ecx, edx

; 606  : 		SetString( pszSrc, StringLength( pszSrc ) );

  0015a	8d 45 84	 lea	 eax, DWORD PTR _lpszPlayer2$[ebp]
  0015d	51		 push	 ecx
  0015e	50		 push	 eax
  0015f	8d 8d c8 1d ff
	ff		 lea	 ecx, DWORD PTR _strPlayer2$[ebp]
  00165	e8 00 00 00 00	 call	 ?SetString@?$CSimpleStringT@D$0A@@ATL@@QAEXPBDH@Z ; ATL::CSimpleStringT<char,0>::SetString
$LN291@LogItem:
; File C:\IAGOS\server\v18\Source\Source\_Database\DbManagerLog.cpp

; 57   : 	strPlayer1.Replace( '\'', ' ' );

  0016a	6a 20		 push	 32			; 00000020H
  0016c	6a 27		 push	 39			; 00000027H
  0016e	8d 8d 84 1d ff
	ff		 lea	 ecx, DWORD PTR _strPlayer1$[ebp]
  00174	c6 45 fc 04	 mov	 BYTE PTR __$EHRec$[ebp+8], 4
  00178	e8 00 00 00 00	 call	 ?Replace@?$CStringT@DV?$StrTraitMFC@DV?$ChTraitsCRT@D@ATL@@@@@ATL@@QAEHDD@Z ; ATL::CStringT<char,StrTraitMFC<char,ATL::ChTraitsCRT<char> > >::Replace

; 58   : 	lstrcpy( lpszPlayer1, (LPCSTR)strPlayer1 );

  0017d	ff b5 84 1d ff
	ff		 push	 DWORD PTR _strPlayer1$[ebp]
  00183	8d 45 a8	 lea	 eax, DWORD PTR _lpszPlayer1$[ebp]
  00186	50		 push	 eax
  00187	ff 15 00 00 00
	00		 call	 DWORD PTR __imp__lstrcpyA@8

; 59   : 	strPlayer2.Replace( '\'', ' ' );

  0018d	6a 20		 push	 32			; 00000020H
  0018f	6a 27		 push	 39			; 00000027H
  00191	8d 8d c8 1d ff
	ff		 lea	 ecx, DWORD PTR _strPlayer2$[ebp]
  00197	e8 00 00 00 00	 call	 ?Replace@?$CStringT@DV?$StrTraitMFC@DV?$ChTraitsCRT@D@ATL@@@@@ATL@@QAEHDD@Z ; ATL::CStringT<char,StrTraitMFC<char,ATL::ChTraitsCRT<char> > >::Replace

; 60   : 	lstrcpy( lpszPlayer2, (LPCSTR)strPlayer2 );

  0019c	8b bd c8 1d ff
	ff		 mov	 edi, DWORD PTR _strPlayer2$[ebp]
  001a2	8d 45 84	 lea	 eax, DWORD PTR _lpszPlayer2$[ebp]
  001a5	57		 push	 edi
  001a6	50		 push	 eax
  001a7	ff 15 00 00 00
	00		 call	 DWORD PTR __imp__lstrcpyA@8

; 61   : 
; 62   : 	DWORD dwWorldID;
; 63   : 	arRead >> dwWorldID;

  001ad	8d 85 94 1d ff
	ff		 lea	 eax, DWORD PTR _dwWorldID$[ebp]
  001b3	50		 push	 eax
  001b4	8d 8d a8 1e ff
	ff		 lea	 ecx, DWORD PTR _arRead$[ebp]
  001ba	e8 00 00 00 00	 call	 ??$?5K@CAr@@QAEAAV0@AAK@Z ; CAr::operator>><unsigned long>

; 64   : 	
; 65   : 	int iSeed1, iSeed2;
; 66   : 	int iReMainder1, iReMainder2;
; 67   : 	arRead >> iSeed1 >> iSeed2;

  001bf	8d 85 90 1d ff
	ff		 lea	 eax, DWORD PTR _iSeed2$[ebp]
  001c5	50		 push	 eax
  001c6	8d 85 74 1d ff
	ff		 lea	 eax, DWORD PTR _iSeed1$[ebp]
  001cc	50		 push	 eax
  001cd	8d 8d a8 1e ff
	ff		 lea	 ecx, DWORD PTR _arRead$[ebp]
  001d3	e8 00 00 00 00	 call	 ??$?5H@CAr@@QAEAAV0@AAH@Z ; CAr::operator>><int>
  001d8	8b c8		 mov	 ecx, eax
  001da	e8 00 00 00 00	 call	 ??$?5H@CAr@@QAEAAV0@AAH@Z ; CAr::operator>><int>

; 68   : 
; 69   : 	char szQuery[QUERY_SIZE]	= { 0,};

  001df	68 00 a0 00 00	 push	 40960			; 0000a000H
  001e4	8d 85 bc 5e ff
	ff		 lea	 eax, DWORD PTR _szQuery$[ebp]
  001ea	6a 00		 push	 0
  001ec	50		 push	 eax
  001ed	e8 00 00 00 00	 call	 _memset
  001f2	83 c4 0c	 add	 esp, 12			; 0000000cH

; 70   : 
; 71   : 	switch( chswitch )

  001f5	80 bd df 1d ff
	ff 54		 cmp	 BYTE PTR _chswitch$1$[ebp], 84 ; 00000054H
  001fc	0f 84 65 05 00
	00		 je	 $LN28@LogItem

; 333  : 					return;
; 334  : 				}	
; 335  : 			}
; 336  : 			break;
; 337  : 		}
; 338  : 	default:
; 339  : 		{
; 340  : 			memset( lpszItemText, 0, sizeof( lpszItemText ) );

  00202	0f 57 c0	 xorps	 xmm0, xmm0
  00205	c7 45 ec 00 00
	00 00		 mov	 DWORD PTR _lpszItemText$[ebp+32], 0

; 341  : 			SERIALNUMBER	ItemNo;
; 342  : 			DWORD nItemNum = 0;
; 343  : 			int nNegudo = 0; // ł»±¸µµ
; 344  : 			int nMaxNegudo	= 0; 
; 345  : 			int	  nAbilityOption = 0;
; 346  : 			DWORD dwGold_1 = 0;
; 347  : 			int nSlot = 0;
; 348  : 			int nSlot1 = 0;
; 349  : 			int nItemResist = 0;
; 350  : 			int nResistAbilityOption = 0;
; 351  : 			
; 352  : 			arRead >> ItemNo;

  0020c	8d 85 88 1d ff
	ff		 lea	 eax, DWORD PTR _ItemNo$10[ebp]
  00212	c7 85 b0 1d ff
	ff 00 00 00 00	 mov	 DWORD PTR _nItemNum$21[ebp], 0
  0021c	50		 push	 eax
  0021d	8d 8d a8 1e ff
	ff		 lea	 ecx, DWORD PTR _arRead$[ebp]
  00223	c7 85 b4 1d ff
	ff 00 00 00 00	 mov	 DWORD PTR _nNegudo$24[ebp], 0
  0022d	0f 11 45 cc	 movups	 XMMWORD PTR _lpszItemText$[ebp], xmm0
  00231	c7 85 9c 1d ff
	ff 00 00 00 00	 mov	 DWORD PTR _nMaxNegudo$13[ebp], 0
  0023b	0f 11 45 dc	 movups	 XMMWORD PTR _lpszItemText$[ebp+16], xmm0
  0023f	c7 85 c0 1d ff
	ff 00 00 00 00	 mov	 DWORD PTR _nAbilityOption$32[ebp], 0
  00249	c7 85 98 1d ff
	ff 00 00 00 00	 mov	 DWORD PTR _dwGold_1$12[ebp], 0
  00253	c7 85 a8 1d ff
	ff 00 00 00 00	 mov	 DWORD PTR _nSlot$19[ebp], 0
  0025d	c7 85 80 1d ff
	ff 00 00 00 00	 mov	 DWORD PTR _nSlot1$8[ebp], 0
  00267	c7 85 bc 1d ff
	ff 00 00 00 00	 mov	 DWORD PTR _nItemResist$29[ebp], 0
  00271	c7 85 b8 1d ff
	ff 00 00 00 00	 mov	 DWORD PTR _nResistAbilityOption$27[ebp], 0
  0027b	e8 00 00 00 00	 call	 ??$?5K@CAr@@QAEAAV0@AAK@Z ; CAr::operator>><unsigned long>

; 353  : 			arRead >> nNegudo;

  00280	8d 85 b4 1d ff
	ff		 lea	 eax, DWORD PTR _nNegudo$24[ebp]
  00286	50		 push	 eax
  00287	8d 8d a8 1e ff
	ff		 lea	 ecx, DWORD PTR _arRead$[ebp]
  0028d	e8 00 00 00 00	 call	 ??$?5H@CAr@@QAEAAV0@AAH@Z ; CAr::operator>><int>

; 354  : 			arRead >> nMaxNegudo;

  00292	8d 85 9c 1d ff
	ff		 lea	 eax, DWORD PTR _nMaxNegudo$13[ebp]
  00298	50		 push	 eax
  00299	8d 8d a8 1e ff
	ff		 lea	 ecx, DWORD PTR _arRead$[ebp]
  0029f	e8 00 00 00 00	 call	 ??$?5H@CAr@@QAEAAV0@AAH@Z ; CAr::operator>><int>

; 355  : 			arRead.ReadString( lpszItemText, 36 );

  002a4	6a 24		 push	 36			; 00000024H
  002a6	8d 45 cc	 lea	 eax, DWORD PTR _lpszItemText$[ebp]
  002a9	50		 push	 eax
  002aa	8d 8d a8 1e ff
	ff		 lea	 ecx, DWORD PTR _arRead$[ebp]
  002b0	e8 00 00 00 00	 call	 ?ReadString@CAr@@QAEPADPADH@Z ; CAr::ReadString
; File C:\Program Files\Microsoft Visual Studio\2022\Professional\VC\Tools\MSVC\14.44.35207\atlmfc\include\afxstr.h

; 56   : 		return( AfxGetStringManager() );

  002b5	e8 00 00 00 00	 call	 ?AfxGetStringManager@@YGPAUIAtlStringMgr@ATL@@XZ ; AfxGetStringManager
  002ba	8b c8		 mov	 ecx, eax
; File C:\Program Files\Microsoft Visual Studio\2022\Professional\VC\Tools\MSVC\14.44.35207\atlmfc\include\atlsimpstr.h

; 209  : 		ATLENSURE( pStringMgr != NULL );

  002bc	85 c9		 test	 ecx, ecx
  002be	0f 84 d2 14 00
	00		 je	 $LN427@LogItem

; 210  : 		CStringData* pData = pStringMgr->GetNilString();

  002c4	8b 01		 mov	 eax, DWORD PTR [ecx]
  002c6	8b 40 0c	 mov	 eax, DWORD PTR [eax+12]
  002c9	ff d0		 call	 eax

; 211  : 		Attach( pData );

  002cb	83 c0 10	 add	 eax, 16			; 00000010H
  002ce	89 85 d8 1d ff
	ff		 mov	 DWORD PTR _strItem$37[ebp], eax
; File C:\Program Files\Microsoft Visual Studio\2022\Professional\VC\Tools\MSVC\14.44.35207\atlmfc\include\cstringt.h

; 2712 : 		if( (pv != NULL) && IS_INTRESOURCE( pv ) )

  002d4	8d 45 cc	 lea	 eax, DWORD PTR _lpszItemText$[ebp]

; 1052 : 		CThisSimpleString( StringTraits::GetDefaultManager() )

  002d7	c6 45 fc 09	 mov	 BYTE PTR __$EHRec$[ebp+8], 9

; 2712 : 		if( (pv != NULL) && IS_INTRESOURCE( pv ) )

  002db	a9 00 00 ff ff	 test	 eax, -65536		; ffff0000H
  002e0	75 11		 jne	 SHORT $LN408@LogItem

; 2713 : 		{
; 2714 : 			UINT nID = LOWORD( reinterpret_cast< DWORD_PTR >( pv ) );

  002e2	0f b7 c0	 movzx	 eax, ax

; 2715 : 			(nID);
; 2716 : #ifdef _ATL_USE_WINAPI_FAMILY_DESKTOP_APP
; 2717 : 			if( !LoadString( nID ) )

  002e5	8d 8d d8 1d ff
	ff		 lea	 ecx, DWORD PTR _strItem$37[ebp]
  002eb	50		 push	 eax
  002ec	e8 00 00 00 00	 call	 ?LoadStringA@?$CStringT@DV?$StrTraitMFC@DV?$ChTraitsCRT@D@ATL@@@@@ATL@@QAEHI@Z ; ATL::CStringT<char,StrTraitMFC<char,ATL::ChTraitsCRT<char> > >::LoadStringA

; 1054 : 		if( !CheckImplicitLoad( pszSrc ) )

  002f1	eb 26		 jmp	 SHORT $LN324@LogItem
$LN408@LogItem:
; File C:\Program Files\Microsoft Visual Studio\2022\Professional\VC\Tools\MSVC\14.44.35207\atlmfc\include\atlsimpstr.h

; 730  : 		return( int( strlen( psz ) ) );

  002f3	8d 4d cc	 lea	 ecx, DWORD PTR _lpszItemText$[ebp]
  002f6	8d 51 01	 lea	 edx, DWORD PTR [ecx+1]
  002f9	0f 1f 80 00 00
	00 00		 npad	 7
$LL414@LogItem:
  00300	8a 01		 mov	 al, BYTE PTR [ecx]
  00302	41		 inc	 ecx
  00303	84 c0		 test	 al, al
  00305	75 f9		 jne	 SHORT $LL414@LogItem
  00307	2b ca		 sub	 ecx, edx

; 606  : 		SetString( pszSrc, StringLength( pszSrc ) );

  00309	8d 45 cc	 lea	 eax, DWORD PTR _lpszItemText$[ebp]
  0030c	51		 push	 ecx
  0030d	50		 push	 eax
  0030e	8d 8d d8 1d ff
	ff		 lea	 ecx, DWORD PTR _strItem$37[ebp]
  00314	e8 00 00 00 00	 call	 ?SetString@?$CSimpleStringT@D$0A@@ATL@@QAEXPBDH@Z ; ATL::CSimpleStringT<char,0>::SetString
$LN324@LogItem:
; File C:\IAGOS\server\v18\Source\Source\_Database\DbManagerLog.cpp

; 357  : 			strItem.Replace( '\'', ' ' );

  00319	6a 20		 push	 32			; 00000020H
  0031b	6a 27		 push	 39			; 00000027H
  0031d	8d 8d d8 1d ff
	ff		 lea	 ecx, DWORD PTR _strItem$37[ebp]
  00323	c6 45 fc 0a	 mov	 BYTE PTR __$EHRec$[ebp+8], 10 ; 0000000aH
  00327	e8 00 00 00 00	 call	 ?Replace@?$CStringT@DV?$StrTraitMFC@DV?$ChTraitsCRT@D@ATL@@@@@ATL@@QAEHDD@Z ; ATL::CStringT<char,StrTraitMFC<char,ATL::ChTraitsCRT<char> > >::Replace

; 358  : 			lstrcpy( lpszItemText, (LPCSTR)strItem );

  0032c	8b b5 d8 1d ff
	ff		 mov	 esi, DWORD PTR _strItem$37[ebp]
  00332	8d 45 cc	 lea	 eax, DWORD PTR _lpszItemText$[ebp]
  00335	56		 push	 esi
  00336	50		 push	 eax
  00337	ff 15 00 00 00
	00		 call	 DWORD PTR __imp__lstrcpyA@8

; 359  : 			arRead >> nItemNum;

  0033d	8d 85 b0 1d ff
	ff		 lea	 eax, DWORD PTR _nItemNum$21[ebp]
  00343	50		 push	 eax
  00344	8d 8d a8 1e ff
	ff		 lea	 ecx, DWORD PTR _arRead$[ebp]
  0034a	e8 00 00 00 00	 call	 ??$?5K@CAr@@QAEAAV0@AAK@Z ; CAr::operator>><unsigned long>

; 360  : 			arRead >> nAbilityOption;

  0034f	8d 85 c0 1d ff
	ff		 lea	 eax, DWORD PTR _nAbilityOption$32[ebp]
  00355	50		 push	 eax
  00356	8d 8d a8 1e ff
	ff		 lea	 ecx, DWORD PTR _arRead$[ebp]
  0035c	e8 00 00 00 00	 call	 ??$?5H@CAr@@QAEAAV0@AAH@Z ; CAr::operator>><int>

; 361  : 			arRead >> dwGold_1;

  00361	8d 85 98 1d ff
	ff		 lea	 eax, DWORD PTR _dwGold_1$12[ebp]
  00367	50		 push	 eax
  00368	8d 8d a8 1e ff
	ff		 lea	 ecx, DWORD PTR _arRead$[ebp]
  0036e	e8 00 00 00 00	 call	 ??$?5K@CAr@@QAEAAV0@AAK@Z ; CAr::operator>><unsigned long>

; 362  : 			arRead >> nSlot;

  00373	8d 85 a8 1d ff
	ff		 lea	 eax, DWORD PTR _nSlot$19[ebp]
  00379	50		 push	 eax
  0037a	8d 8d a8 1e ff
	ff		 lea	 ecx, DWORD PTR _arRead$[ebp]
  00380	e8 00 00 00 00	 call	 ??$?5H@CAr@@QAEAAV0@AAH@Z ; CAr::operator>><int>

; 363  : 			arRead >> nSlot1;

  00385	8d 85 80 1d ff
	ff		 lea	 eax, DWORD PTR _nSlot1$8[ebp]
  0038b	50		 push	 eax
  0038c	8d 8d a8 1e ff
	ff		 lea	 ecx, DWORD PTR _arRead$[ebp]
  00392	e8 00 00 00 00	 call	 ??$?5H@CAr@@QAEAAV0@AAH@Z ; CAr::operator>><int>

; 364  : 			arRead >> nItemResist;

  00397	8d 85 bc 1d ff
	ff		 lea	 eax, DWORD PTR _nItemResist$29[ebp]
  0039d	50		 push	 eax
  0039e	8d 8d a8 1e ff
	ff		 lea	 ecx, DWORD PTR _arRead$[ebp]
  003a4	e8 00 00 00 00	 call	 ??$?5H@CAr@@QAEAAV0@AAH@Z ; CAr::operator>><int>

; 365  : 			arRead >> nResistAbilityOption;

  003a9	8d 85 b8 1d ff
	ff		 lea	 eax, DWORD PTR _nResistAbilityOption$27[ebp]
  003af	50		 push	 eax
  003b0	8d 8d a8 1e ff
	ff		 lea	 ecx, DWORD PTR _arRead$[ebp]
  003b6	e8 00 00 00 00	 call	 ??$?5H@CAr@@QAEAAV0@AAH@Z ; CAr::operator>><int>

; 366  : 
; 367  : 			LogItemInfo aLogItem;

  003bb	8d 8d e0 1d ff
	ff		 lea	 ecx, DWORD PTR _aLogItem$43[ebp]
  003c1	e8 00 00 00 00	 call	 ??0_LogItemInfo@@QAE@XZ	; _LogItemInfo::_LogItemInfo

; 368  : 			::memset( &(aLogItem), 0, sizeof( &(aLogItem) ) );
; 369  : 			aLogItem.SendName = lpszPlayer1;

  003c6	8d 45 a8	 lea	 eax, DWORD PTR _lpszPlayer1$[ebp]
  003c9	c7 85 e0 1d ff
	ff 00 00 00 00	 mov	 DWORD PTR _aLogItem$43[ebp], 0
  003d3	89 85 e4 1d ff
	ff		 mov	 DWORD PTR _aLogItem$43[ebp+4], eax

; 370  : 			aLogItem.RecvName = lpszPlayer2;

  003d9	8d 45 84	 lea	 eax, DWORD PTR _lpszPlayer2$[ebp]
  003dc	89 85 e8 1d ff
	ff		 mov	 DWORD PTR _aLogItem$43[ebp+8], eax

; 371  : 			aLogItem.WorldId = dwWorldID;

  003e2	8b 85 94 1d ff
	ff		 mov	 eax, DWORD PTR _dwWorldID$[ebp]
  003e8	89 85 ec 1d ff
	ff		 mov	 DWORD PTR _aLogItem$43[ebp+12], eax

; 372  : 			aLogItem.Gold = iSeed1;

  003ee	8b 85 74 1d ff
	ff		 mov	 eax, DWORD PTR _iSeed1$[ebp]
  003f4	89 85 f0 1d ff
	ff		 mov	 DWORD PTR _aLogItem$43[ebp+16], eax

; 373  : 			aLogItem.Gold2 = iSeed2;

  003fa	8b 85 90 1d ff
	ff		 mov	 eax, DWORD PTR _iSeed2$[ebp]
  00400	89 85 f4 1d ff
	ff		 mov	 DWORD PTR _aLogItem$43[ebp+20], eax

; 374  : 			aLogItem.ItemNo		= ItemNo;

  00406	8b 85 88 1d ff
	ff		 mov	 eax, DWORD PTR _ItemNo$10[ebp]
  0040c	89 85 f8 1d ff
	ff		 mov	 DWORD PTR _aLogItem$43[ebp+24], eax
; File C:\Program Files (x86)\Windows Kits\10\Include\10.0.26100.0\ucrt\tchar.h

; 1528 :     return (char *)_mbsnbcpy((unsigned char *)_Dst,(const unsigned char *)_Source,_Count);

  00412	8d 45 cc	 lea	 eax, DWORD PTR _lpszItemText$[ebp]
  00415	6a 1e		 push	 30			; 0000001eH
  00417	50		 push	 eax
  00418	8d 85 04 1e ff
	ff		 lea	 eax, DWORD PTR _aLogItem$43[ebp+36]
  0041e	50		 push	 eax
  0041f	e8 00 00 00 00	 call	 __mbsnbcpy
; File C:\IAGOS\server\v18\Source\Source\_Database\DbManagerLog.cpp

; 378  : 			aLogItem.itemNumber = nItemNum;

  00424	8b 85 b0 1d ff
	ff		 mov	 eax, DWORD PTR _nItemNum$21[ebp]
; File C:\Program Files (x86)\Windows Kits\10\Include\10.0.26100.0\ucrt\tchar.h

; 1528 :     return (char *)_mbsnbcpy((unsigned char *)_Dst,(const unsigned char *)_Source,_Count);

  0042a	83 c4 0c	 add	 esp, 12			; 0000000cH
; File C:\IAGOS\server\v18\Source\Source\_Database\DbManagerLog.cpp

; 378  : 			aLogItem.itemNumber = nItemNum;

  0042d	89 85 24 1e ff
	ff		 mov	 DWORD PTR _aLogItem$43[ebp+68], eax

; 379  : 			aLogItem.nAbilityOption = nAbilityOption;

  00433	8b 85 c0 1d ff
	ff		 mov	 eax, DWORD PTR _nAbilityOption$32[ebp]
  00439	89 85 28 1e ff
	ff		 mov	 DWORD PTR _aLogItem$43[ebp+72], eax

; 380  : 			aLogItem.nItemResist = nItemResist;

  0043f	8b 85 bc 1d ff
	ff		 mov	 eax, DWORD PTR _nItemResist$29[ebp]
  00445	89 85 38 1e ff
	ff		 mov	 DWORD PTR _aLogItem$43[ebp+88], eax

; 381  : 			aLogItem.nResistAbilityOption = nResistAbilityOption;

  0044b	8b 85 b8 1d ff
	ff		 mov	 eax, DWORD PTR _nResistAbilityOption$27[ebp]
  00451	89 85 3c 1e ff
	ff		 mov	 DWORD PTR _aLogItem$43[ebp+92], eax

; 382  : 			aLogItem.Negudo = nNegudo;

  00457	8b 85 b4 1d ff
	ff		 mov	 eax, DWORD PTR _nNegudo$24[ebp]
  0045d	89 85 fc 1d ff
	ff		 mov	 DWORD PTR _aLogItem$43[ebp+28], eax

; 383  : 			aLogItem.MaxNegudo	= nMaxNegudo;

  00463	8b 85 9c 1d ff
	ff		 mov	 eax, DWORD PTR _nMaxNegudo$13[ebp]
  00469	89 85 00 1e ff
	ff		 mov	 DWORD PTR _aLogItem$43[ebp+32], eax

; 384  : 			aLogItem.Gold_1 = dwGold_1;

  0046f	8b 85 98 1d ff
	ff		 mov	 eax, DWORD PTR _dwGold_1$12[ebp]
  00475	89 85 2c 1e ff
	ff		 mov	 DWORD PTR _aLogItem$43[ebp+76], eax

; 385  : 			aLogItem.nSlot = nSlot;

  0047b	8b 85 a8 1d ff
	ff		 mov	 eax, DWORD PTR _nSlot$19[ebp]
  00481	89 85 30 1e ff
	ff		 mov	 DWORD PTR _aLogItem$43[ebp+80], eax

; 386  : 			aLogItem.nSlot1 = nSlot1;

  00487	8b 85 80 1d ff
	ff		 mov	 eax, DWORD PTR _nSlot1$8[ebp]
  0048d	89 85 34 1e ff
	ff		 mov	 DWORD PTR _aLogItem$43[ebp+84], eax

; 387  : 			aLogItem.Action = chAction;

  00493	8d 85 d4 1d ff
	ff		 lea	 eax, DWORD PTR _chAction$[ebp]
  00499	89 85 e0 1d ff
	ff		 mov	 DWORD PTR _aLogItem$43[ebp], eax

; 388  : 
; 389  : 			arRead >> aLogItem.m_bCharged;

  0049f	8d 85 40 1e ff
	ff		 lea	 eax, DWORD PTR _aLogItem$43[ebp+96]
  004a5	50		 push	 eax
  004a6	8d 8d a8 1e ff
	ff		 lea	 ecx, DWORD PTR _arRead$[ebp]
  004ac	e8 00 00 00 00	 call	 ??$?5H@CAr@@QAEAAV0@AAH@Z ; CAr::operator>><int>

; 390  : 			arRead >> aLogItem.m_dwKeepTime;

  004b1	8d 85 44 1e ff
	ff		 lea	 eax, DWORD PTR _aLogItem$43[ebp+100]
  004b7	50		 push	 eax
  004b8	8d 8d a8 1e ff
	ff		 lea	 ecx, DWORD PTR _arRead$[ebp]
  004be	e8 00 00 00 00	 call	 ??$?5K@CAr@@QAEAAV0@AAK@Z ; CAr::operator>><unsigned long>

; 391  : #if __VER >= 12 // __EXT_PIERCING
; 392  : 			arRead >> aLogItem.nPiercedSize;

  004c3	8d 85 50 1e ff
	ff		 lea	 eax, DWORD PTR _aLogItem$43[ebp+112]
  004c9	50		 push	 eax
  004ca	8d 8d a8 1e ff
	ff		 lea	 ecx, DWORD PTR _arRead$[ebp]
  004d0	e8 00 00 00 00	 call	 ??$?5H@CAr@@QAEAAV0@AAH@Z ; CAr::operator>><int>

; 393  : 			for( int i=0; i<aLogItem.nPiercedSize; i++ )

  004d5	83 bd 50 1e ff
	ff 00		 cmp	 DWORD PTR _aLogItem$43[ebp+112], 0
  004dc	7e 36		 jle	 SHORT $LN23@LogItem

; 356  : 			CString strItem	= lpszItemText;

  004de	8d bd 54 1e ff
	ff		 lea	 edi, DWORD PTR _aLogItem$43[ebp+116]
  004e4	33 f6		 xor	 esi, esi
  004e6	66 66 0f 1f 84
	00 00 00 00 00	 npad	 10
$LL24@LogItem:

; 394  : 				arRead >> aLogItem.adwItemId[i];

  004f0	57		 push	 edi
  004f1	8d 8d a8 1e ff
	ff		 lea	 ecx, DWORD PTR _arRead$[ebp]
  004f7	e8 00 00 00 00	 call	 ??$?5H@CAr@@QAEAAV0@AAH@Z ; CAr::operator>><int>
  004fc	46		 inc	 esi
  004fd	83 c7 04	 add	 edi, 4
  00500	3b b5 50 1e ff
	ff		 cmp	 esi, DWORD PTR _aLogItem$43[ebp+112]
  00506	7c e8		 jl	 SHORT $LL24@LogItem
  00508	8b b5 d8 1d ff
	ff		 mov	 esi, DWORD PTR _strItem$37[ebp]
  0050e	8b bd c8 1d ff
	ff		 mov	 edi, DWORD PTR _strPlayer2$[ebp]
$LN23@LogItem:

; 395  : 			arRead >> aLogItem.nUMPiercedSize;

  00514	8d 85 7c 1e ff
	ff		 lea	 eax, DWORD PTR _aLogItem$43[ebp+156]
  0051a	50		 push	 eax
  0051b	8d 8d a8 1e ff
	ff		 lea	 ecx, DWORD PTR _arRead$[ebp]
  00521	e8 00 00 00 00	 call	 ??$?5H@CAr@@QAEAAV0@AAH@Z ; CAr::operator>><int>

; 396  : 			for( int i=0; i<aLogItem.nUMPiercedSize; i++ )

  00526	83 bd 7c 1e ff
	ff 00		 cmp	 DWORD PTR _aLogItem$43[ebp+156], 0
  0052d	7e 35		 jle	 SHORT $LN26@LogItem

; 395  : 			arRead >> aLogItem.nUMPiercedSize;

  0052f	8d bd 80 1e ff
	ff		 lea	 edi, DWORD PTR _aLogItem$43[ebp+160]
  00535	33 f6		 xor	 esi, esi
  00537	66 0f 1f 84 00
	00 00 00 00	 npad	 9
$LL27@LogItem:

; 397  : 				arRead >> aLogItem.adwUMItemId[i];

  00540	57		 push	 edi
  00541	8d 8d a8 1e ff
	ff		 lea	 ecx, DWORD PTR _arRead$[ebp]
  00547	e8 00 00 00 00	 call	 ??$?5H@CAr@@QAEAAV0@AAH@Z ; CAr::operator>><int>
  0054c	46		 inc	 esi
  0054d	83 c7 04	 add	 edi, 4
  00550	3b b5 7c 1e ff
	ff		 cmp	 esi, DWORD PTR _aLogItem$43[ebp+156]
  00556	7c e8		 jl	 SHORT $LL27@LogItem
  00558	8b b5 d8 1d ff
	ff		 mov	 esi, DWORD PTR _strItem$37[ebp]
  0055e	8b bd c8 1d ff
	ff		 mov	 edi, DWORD PTR _strPlayer2$[ebp]
$LN26@LogItem:

; 398  : #else // __EXT_PIERCING
; 399  : 			arRead >> aLogItem.nPiercedSize;
; 400  : 			arRead >> aLogItem.adwItemId0;
; 401  : 			arRead >> aLogItem.adwItemId1;
; 402  : 			arRead >> aLogItem.adwItemId2;
; 403  : 			arRead >> aLogItem.adwItemId3;
; 404  : #if __VER >= 9 // __ULTIMATE
; 405  : 			arRead >> aLogItem.adwItemId4;
; 406  : #endif // __ULTIMATE
; 407  : #endif // __EXT_PIERCING
; 408  : 
; 409  : #if __VER >= 11 // __SYS_IDENTIFY
; 410  : 			arRead >> aLogItem.m_iRandomOptItemId;

  00564	8d 85 48 1e ff
	ff		 lea	 eax, DWORD PTR _aLogItem$43[ebp+104]
  0056a	50		 push	 eax
  0056b	8d 8d a8 1e ff
	ff		 lea	 ecx, DWORD PTR _arRead$[ebp]
  00571	e8 00 00 00 00	 call	 ??$?5_J@CAr@@QAEAAV0@AA_J@Z ; CAr::operator>><__int64>

; 411  : #else	// __SYS_IDENTIFY
; 412  : 			arRead >> aLogItem.m_nRandomOptItemId;
; 413  : #endif	// __SYS_IDENTIFY
; 414  : 
; 415  : #if __VER >= 9 // __PET_0410
; 416  : 			arRead >> aLogItem.nPetKind;

  00576	8d 85 94 1e ff
	ff		 lea	 eax, DWORD PTR _aLogItem$43[ebp+180]
  0057c	50		 push	 eax
  0057d	8d 8d a8 1e ff
	ff		 lea	 ecx, DWORD PTR _arRead$[ebp]
  00583	e8 00 00 00 00	 call	 ??$?5E@CAr@@QAEAAV0@AAE@Z ; CAr::operator>><unsigned char>

; 417  : 			arRead >> aLogItem.nPetLevel;

  00588	8d 85 95 1e ff
	ff		 lea	 eax, DWORD PTR _aLogItem$43[ebp+181]
  0058e	50		 push	 eax
  0058f	8d 8d a8 1e ff
	ff		 lea	 ecx, DWORD PTR _arRead$[ebp]
  00595	e8 00 00 00 00	 call	 ??$?5E@CAr@@QAEAAV0@AAE@Z ; CAr::operator>><unsigned char>

; 418  : 			arRead >> aLogItem.dwPetExp;

  0059a	8d 85 98 1e ff
	ff		 lea	 eax, DWORD PTR _aLogItem$43[ebp+184]
  005a0	50		 push	 eax
  005a1	8d 8d a8 1e ff
	ff		 lea	 ecx, DWORD PTR _arRead$[ebp]
  005a7	e8 00 00 00 00	 call	 ??$?5K@CAr@@QAEAAV0@AAK@Z ; CAr::operator>><unsigned long>

; 419  : 			arRead >> aLogItem.wPetEnergy;

  005ac	8d 85 9c 1e ff
	ff		 lea	 eax, DWORD PTR _aLogItem$43[ebp+188]
  005b2	50		 push	 eax
  005b3	8d 8d a8 1e ff
	ff		 lea	 ecx, DWORD PTR _arRead$[ebp]
  005b9	e8 00 00 00 00	 call	 ??$?5G@CAr@@QAEAAV0@AAG@Z ; CAr::operator>><unsigned short>

; 420  : 			arRead >> aLogItem.wPetLife;

  005be	8d 85 9e 1e ff
	ff		 lea	 eax, DWORD PTR _aLogItem$43[ebp+190]
  005c4	50		 push	 eax
  005c5	8d 8d a8 1e ff
	ff		 lea	 ecx, DWORD PTR _arRead$[ebp]
  005cb	e8 00 00 00 00	 call	 ??$?5G@CAr@@QAEAAV0@AAG@Z ; CAr::operator>><unsigned short>

; 421  : 			arRead >> aLogItem.nPetAL_D;

  005d0	8d 85 a0 1e ff
	ff		 lea	 eax, DWORD PTR _aLogItem$43[ebp+192]
  005d6	50		 push	 eax
  005d7	8d 8d a8 1e ff
	ff		 lea	 ecx, DWORD PTR _arRead$[ebp]
  005dd	e8 00 00 00 00	 call	 ??$?5E@CAr@@QAEAAV0@AAE@Z ; CAr::operator>><unsigned char>

; 422  : 			arRead >> aLogItem.nPetAL_C;

  005e2	8d 85 a1 1e ff
	ff		 lea	 eax, DWORD PTR _aLogItem$43[ebp+193]
  005e8	50		 push	 eax
  005e9	8d 8d a8 1e ff
	ff		 lea	 ecx, DWORD PTR _arRead$[ebp]
  005ef	e8 00 00 00 00	 call	 ??$?5E@CAr@@QAEAAV0@AAE@Z ; CAr::operator>><unsigned char>

; 423  : 			arRead >> aLogItem.nPetAL_B;

  005f4	8d 85 a2 1e ff
	ff		 lea	 eax, DWORD PTR _aLogItem$43[ebp+194]
  005fa	50		 push	 eax
  005fb	8d 8d a8 1e ff
	ff		 lea	 ecx, DWORD PTR _arRead$[ebp]
  00601	e8 00 00 00 00	 call	 ??$?5E@CAr@@QAEAAV0@AAE@Z ; CAr::operator>><unsigned char>

; 424  : 			arRead >> aLogItem.nPetAL_A;

  00606	8d 85 a3 1e ff
	ff		 lea	 eax, DWORD PTR _aLogItem$43[ebp+195]
  0060c	50		 push	 eax
  0060d	8d 8d a8 1e ff
	ff		 lea	 ecx, DWORD PTR _arRead$[ebp]
  00613	e8 00 00 00 00	 call	 ??$?5E@CAr@@QAEAAV0@AAE@Z ; CAr::operator>><unsigned char>

; 425  : 			arRead >> aLogItem.nPetAL_S;

  00618	8d 85 a4 1e ff
	ff		 lea	 eax, DWORD PTR _aLogItem$43[ebp+196]
  0061e	50		 push	 eax
  0061f	8d 8d a8 1e ff
	ff		 lea	 ecx, DWORD PTR _arRead$[ebp]
  00625	e8 00 00 00 00	 call	 ??$?5E@CAr@@QAEAAV0@AAE@Z ; CAr::operator>><unsigned char>

; 426  : #endif // __PET_0410
; 427  : 			DBQryNewItemLog( szQuery, aLogItem );

  0062a	8b 8d d0 1d ff
	ff		 mov	 ecx, DWORD PTR _this$GSCopy$1$[ebp]
  00630	8d 85 e0 1d ff
	ff		 lea	 eax, DWORD PTR _aLogItem$43[ebp]
  00636	50		 push	 eax
  00637	8d 85 bc 5e ff
	ff		 lea	 eax, DWORD PTR _szQuery$[ebp]
  0063d	50		 push	 eax
  0063e	e8 00 00 00 00	 call	 ?DBQryNewItemLog@CDbManager@@QAEXPADABU_LogItemInfo@@@Z ; CDbManager::DBQryNewItemLog

; 428  : 
; 429  : 			if ( FALSE == qry->Exec( szQuery ) )

  00643	8b 8d c4 1d ff
	ff		 mov	 ecx, DWORD PTR _qry$GSCopy$1$[ebp]
  00649	8d 85 bc 5e ff
	ff		 lea	 eax, DWORD PTR _szQuery$[ebp]
  0064f	50		 push	 eax
  00650	e8 00 00 00 00	 call	 ?Exec@CQuery@@QAEHPBD@Z	; CQuery::Exec
  00655	85 c0		 test	 eax, eax
  00657	75 7c		 jne	 SHORT $LN36@LogItem

; 430  : 			{
; 431  : 				WriteLog( "LogItem %s, %d\t%s, %s", __FILE__, __LINE__, lpszPlayer1, lpszPlayer2 );

  00659	8d 45 84	 lea	 eax, DWORD PTR _lpszPlayer2$[ebp]
  0065c	50		 push	 eax
  0065d	8d 45 a8	 lea	 eax, DWORD PTR _lpszPlayer1$[ebp]
  00660	50		 push	 eax
  00661	68 af 01 00 00	 push	 431			; 000001afH
  00666	68 00 00 00 00	 push	 OFFSET ??_C@_0DN@OEMKJAPO@C?3?2IAGOS?2server?2v18?2Source?2Sour@
  0066b	68 00 00 00 00	 push	 OFFSET ??_C@_0BG@BLEGKHDP@LogItem?5?$CFs?0?5?$CFd?7?$CFs?0?5?$CFs@
  00670	e8 00 00 00 00	 call	 ?WriteLog@@YAXPBDZZ	; WriteLog

; 432  : 				if( strlen( szQuery ) < 4096 )

  00675	8d 8d bc 5e ff
	ff		 lea	 ecx, DWORD PTR _szQuery$[ebp]
  0067b	83 c4 14	 add	 esp, 20			; 00000014H
  0067e	8d 51 01	 lea	 edx, DWORD PTR [ecx+1]
$LL415@LogItem:
  00681	8a 01		 mov	 al, BYTE PTR [ecx]
  00683	41		 inc	 ecx
  00684	84 c0		 test	 al, al
  00686	75 f9		 jne	 SHORT $LL415@LogItem
  00688	2b ca		 sub	 ecx, edx
  0068a	81 f9 00 10 00
	00		 cmp	 ecx, 4096		; 00001000H
  00690	73 14		 jae	 SHORT $LN37@LogItem

; 433  : 					WriteLog( " LogItem Qyery => %s", szQuery );

  00692	8d 85 bc 5e ff
	ff		 lea	 eax, DWORD PTR _szQuery$[ebp]
  00698	50		 push	 eax
  00699	68 00 00 00 00	 push	 OFFSET ??_C@_0BF@KEJHODAO@?5LogItem?5Qyery?5?$DN?$DO?5?$CFs@
  0069e	e8 00 00 00 00	 call	 ?WriteLog@@YAXPBDZZ	; WriteLog
  006a3	83 c4 08	 add	 esp, 8
$LN37@LogItem:

; 441  : }

  006a6	ff b5 8c 1d ff
	ff		 push	 DWORD PTR _lpDbOverlappedPlus$GSCopy$1$[ebp]
  006ac	8b 8d d0 1d ff
	ff		 mov	 ecx, DWORD PTR _this$GSCopy$1$[ebp]
  006b2	e8 00 00 00 00	 call	 ?FreeRequest@CDbManager@@QAEXPAUtagDB_OVERLAPPED_PLUS@@@Z ; CDbManager::FreeRequest
  006b7	c6 45 fc 04	 mov	 BYTE PTR __$EHRec$[ebp+8], 4
  006bb	83 c6 f0	 add	 esi, -16		; fffffff0H
  006be	83 c8 ff	 or	 eax, -1
  006c1	f0 0f c1 46 0c	 lock	  xadd	 DWORD PTR [esi+12], eax
  006c6	48		 dec	 eax
  006c7	85 c0		 test	 eax, eax
  006c9	7f 37		 jg	 SHORT $LN49@LogItem
  006cb	8b 0e		 mov	 ecx, DWORD PTR [esi]
  006cd	56		 push	 esi
  006ce	8b 01		 mov	 eax, DWORD PTR [ecx]
  006d0	ff 50 04	 call	 DWORD PTR [eax+4]
  006d3	eb 2d		 jmp	 SHORT $LN49@LogItem
$LN36@LogItem:

; 434  : 				FreeRequest( lpDbOverlappedPlus );
; 435  : 				return;
; 436  : 			}
; 437  : 			break;

  006d5	c6 45 fc 04	 mov	 BYTE PTR __$EHRec$[ebp+8], 4
; File C:\Program Files\Microsoft Visual Studio\2022\Professional\VC\Tools\MSVC\14.44.35207\atlmfc\include\atlsimpstr.h

; 804  : 		return( reinterpret_cast< CStringData* >( m_pszData )-1 );

  006d9	83 c6 f0	 add	 esi, -16		; fffffff0H

; 92   : 		if( _InterlockedDecrement( &nRefs ) <= 0 )

  006dc	83 c8 ff	 or	 eax, -1
  006df	f0 0f c1 46 0c	 lock	  xadd	 DWORD PTR [esi+12], eax
  006e4	48		 dec	 eax
  006e5	85 c0		 test	 eax, eax
  006e7	7f 08		 jg	 SHORT $LN34@LogItem

; 93   : 		{
; 94   : 			pStringMgr->Free( this );

  006e9	8b 0e		 mov	 ecx, DWORD PTR [esi]
  006eb	56		 push	 esi
  006ec	8b 01		 mov	 eax, DWORD PTR [ecx]
  006ee	ff 50 04	 call	 DWORD PTR [eax+4]
$LN34@LogItem:
; File C:\IAGOS\server\v18\Source\Source\_Database\DbManagerLog.cpp

; 440  : 	FreeRequest( lpDbOverlappedPlus );

  006f1	8b 8d d0 1d ff
	ff		 mov	 ecx, DWORD PTR _this$GSCopy$1$[ebp]
$LN423@LogItem:

; 441  : }

  006f7	ff b5 8c 1d ff
	ff		 push	 DWORD PTR _lpDbOverlappedPlus$GSCopy$1$[ebp]
  006fd	e8 00 00 00 00	 call	 ?FreeRequest@CDbManager@@QAEXPAUtagDB_OVERLAPPED_PLUS@@@Z ; CDbManager::FreeRequest
$LN49@LogItem:
; File C:\Program Files\Microsoft Visual Studio\2022\Professional\VC\Tools\MSVC\14.44.35207\atlmfc\include\atlsimpstr.h

; 92   : 		if( _InterlockedDecrement( &nRefs ) <= 0 )

  00702	83 ce ff	 or	 esi, -1
; File C:\IAGOS\server\v18\Source\Source\_Database\DbManagerLog.cpp

; 441  : }

  00705	c6 45 fc 02	 mov	 BYTE PTR __$EHRec$[ebp+8], 2
; File C:\Program Files\Microsoft Visual Studio\2022\Professional\VC\Tools\MSVC\14.44.35207\atlmfc\include\atlsimpstr.h

; 804  : 		return( reinterpret_cast< CStringData* >( m_pszData )-1 );

  00709	83 c7 f0	 add	 edi, -16		; fffffff0H

; 92   : 		if( _InterlockedDecrement( &nRefs ) <= 0 )

  0070c	8b c6		 mov	 eax, esi
  0070e	f0 0f c1 47 0c	 lock	  xadd	 DWORD PTR [edi+12], eax
  00713	48		 dec	 eax
  00714	85 c0		 test	 eax, eax
  00716	7f 08		 jg	 SHORT $LN66@LogItem

; 93   : 		{
; 94   : 			pStringMgr->Free( this );

  00718	8b 0f		 mov	 ecx, DWORD PTR [edi]
  0071a	57		 push	 edi
  0071b	8b 01		 mov	 eax, DWORD PTR [ecx]
  0071d	ff 50 04	 call	 DWORD PTR [eax+4]
$LN66@LogItem:

; 804  : 		return( reinterpret_cast< CStringData* >( m_pszData )-1 );

  00720	8b 95 84 1d ff
	ff		 mov	 edx, DWORD PTR _strPlayer1$[ebp]
; File C:\IAGOS\server\v18\Source\Source\_Database\DbManagerLog.cpp

; 441  : }

  00726	c6 45 fc 00	 mov	 BYTE PTR __$EHRec$[ebp+8], 0
; File C:\Program Files\Microsoft Visual Studio\2022\Professional\VC\Tools\MSVC\14.44.35207\atlmfc\include\atlsimpstr.h

; 804  : 		return( reinterpret_cast< CStringData* >( m_pszData )-1 );

  0072a	83 c2 f0	 add	 edx, -16		; fffffff0H

; 92   : 		if( _InterlockedDecrement( &nRefs ) <= 0 )

  0072d	f0 0f c1 72 0c	 lock	  xadd	 DWORD PTR [edx+12], esi
  00732	4e		 dec	 esi
  00733	85 f6		 test	 esi, esi
  00735	7f 08		 jg	 SHORT $LN57@LogItem

; 93   : 		{
; 94   : 			pStringMgr->Free( this );

  00737	8b 0a		 mov	 ecx, DWORD PTR [edx]
  00739	52		 push	 edx
  0073a	8b 01		 mov	 eax, DWORD PTR [ecx]
  0073c	ff 50 04	 call	 DWORD PTR [eax+4]
$LN57@LogItem:
; File C:\IAGOS\server\v18\Source\Source\_Database\DbManagerLog.cpp

; 441  : }

  0073f	8d 8d a8 1e ff
	ff		 lea	 ecx, DWORD PTR _arRead$[ebp]
  00745	e8 00 00 00 00	 call	 ??1CAr@@QAE@XZ		; CAr::~CAr
  0074a	8b 4d f4	 mov	 ecx, DWORD PTR __$EHRec$[ebp]
  0074d	64 89 0d 00 00
	00 00		 mov	 DWORD PTR fs:0, ecx
  00754	59		 pop	 ecx
  00755	5f		 pop	 edi
  00756	5e		 pop	 esi
  00757	8b 4d f0	 mov	 ecx, DWORD PTR __$ArrayPad$[ebp]
  0075a	33 cd		 xor	 ecx, ebp
  0075c	e8 00 00 00 00	 call	 @__security_check_cookie@4
  00761	8b e5		 mov	 esp, ebp
  00763	5d		 pop	 ebp
  00764	c2 08 00	 ret	 8
$LN28@LogItem:

; 72   : 	{
; 73   : 	case 'T':
; 74   : 		{
; 75   : 			int nTradeID	= GetTradeNo();

  00767	8b ce		 mov	 ecx, esi
  00769	e8 00 00 00 00	 call	 ?GetTradeNo@CDbManager@@QAEHXZ ; CDbManager::GetTradeNo

; 76   : 			// 0. tblTradeLog. Ć®·ąŔĚµĺ ´ÜŔ§żˇ ´ëÇŃ ŔúŔĺŔÔ´Ď´Ů. (TradeID, ˝Ă°Ł, ŔĺĽŇ°ˇ ŔúŔĺµË´Ď´Ů)
; 77   : 			call_uspLoggingTrade( qry, 0, nTradeID, dwWorldID );

  0076e	6a 00		 push	 0
  00770	6a 00		 push	 0
  00772	6a 00		 push	 0
  00774	6a 00		 push	 0
  00776	6a 00		 push	 0
  00778	6a 00		 push	 0
  0077a	6a 00		 push	 0
  0077c	6a 00		 push	 0
  0077e	6a 00		 push	 0
  00780	6a 00		 push	 0
  00782	68 00 00 00 00	 push	 OFFSET ??_C@_00CNPNBAHC@@
  00787	6a 00		 push	 0
  00789	6a 00		 push	 0
  0078b	ff b5 94 1d ff
	ff		 push	 DWORD PTR _dwWorldID$[ebp]
  00791	8b ce		 mov	 ecx, esi
  00793	89 85 a8 1d ff
	ff		 mov	 DWORD PTR _nTradeID$1$[ebp], eax
  00799	50		 push	 eax
  0079a	6a 00		 push	 0
  0079c	ff b5 c4 1d ff
	ff		 push	 DWORD PTR _qry$GSCopy$1$[ebp]
  007a2	e8 00 00 00 00	 call	 ?call_uspLoggingTrade@CDbManager@@QAEHPAVCQuery@@HHKKKPBDHHHKHHHH_J@Z ; CDbManager::call_uspLoggingTrade

; 78   : 			arRead >> iReMainder1 >> iReMainder2;

  007a7	8d 85 98 1d ff
	ff		 lea	 eax, DWORD PTR _iReMainder2$[ebp]
  007ad	50		 push	 eax
  007ae	8d 85 9c 1d ff
	ff		 lea	 eax, DWORD PTR _iReMainder1$[ebp]
  007b4	50		 push	 eax
  007b5	8d 8d a8 1e ff
	ff		 lea	 ecx, DWORD PTR _arRead$[ebp]
  007bb	e8 00 00 00 00	 call	 ??$?5H@CAr@@QAEAAV0@AAH@Z ; CAr::operator>><int>
  007c0	8b c8		 mov	 ecx, eax
  007c2	e8 00 00 00 00	 call	 ??$?5H@CAr@@QAEAAV0@AAH@Z ; CAr::operator>><int>

; 79   : 			u_long idPlayer1, idPlayer2;
; 80   : 			int nLevel1, nLevel2, nJob1, nJob2;
; 81   : 			arRead >> idPlayer1 >> nLevel1 >> nJob1;

  007c7	8d 85 88 1d ff
	ff		 lea	 eax, DWORD PTR _nJob1$11[ebp]
  007cd	50		 push	 eax
  007ce	8d 85 cc 1d ff
	ff		 lea	 eax, DWORD PTR _nLevel1$35[ebp]
  007d4	50		 push	 eax
  007d5	8d 85 6c 1d ff
	ff		 lea	 eax, DWORD PTR _idPlayer1$2[ebp]
  007db	50		 push	 eax
  007dc	8d 8d a8 1e ff
	ff		 lea	 ecx, DWORD PTR _arRead$[ebp]
  007e2	e8 00 00 00 00	 call	 ??$?5K@CAr@@QAEAAV0@AAK@Z ; CAr::operator>><unsigned long>
  007e7	8b c8		 mov	 ecx, eax
  007e9	e8 00 00 00 00	 call	 ??$?5H@CAr@@QAEAAV0@AAH@Z ; CAr::operator>><int>
  007ee	8b c8		 mov	 ecx, eax
  007f0	e8 00 00 00 00	 call	 ??$?5H@CAr@@QAEAAV0@AAH@Z ; CAr::operator>><int>

; 82   : 			arRead >> idPlayer2 >> nLevel2 >> nJob2;

  007f5	8d 85 a0 1d ff
	ff		 lea	 eax, DWORD PTR _nJob2$14[ebp]
  007fb	50		 push	 eax
  007fc	8d 85 a4 1d ff
	ff		 lea	 eax, DWORD PTR _nLevel2$17[ebp]
  00802	50		 push	 eax
  00803	8d 85 78 1d ff
	ff		 lea	 eax, DWORD PTR _idPlayer2$4[ebp]
  00809	50		 push	 eax
  0080a	8d 8d a8 1e ff
	ff		 lea	 ecx, DWORD PTR _arRead$[ebp]
  00810	e8 00 00 00 00	 call	 ??$?5K@CAr@@QAEAAV0@AAK@Z ; CAr::operator>><unsigned long>
  00815	8b c8		 mov	 ecx, eax
  00817	e8 00 00 00 00	 call	 ??$?5H@CAr@@QAEAAV0@AAH@Z ; CAr::operator>><int>
  0081c	8b c8		 mov	 ecx, eax
  0081e	e8 00 00 00 00	 call	 ??$?5H@CAr@@QAEAAV0@AAH@Z ; CAr::operator>><int>

; 83   : 			char lpAddr1[100]	= { 0, };

  00823	6a 64		 push	 100			; 00000064H
  00825	8d 85 bc fe ff
	ff		 lea	 eax, DWORD PTR _lpAddr1$44[ebp]
  0082b	6a 00		 push	 0
  0082d	50		 push	 eax
  0082e	e8 00 00 00 00	 call	 _memset

; 84   : 			char lpAddr2[100]	= { 0, };

  00833	6a 64		 push	 100			; 00000064H
  00835	8d 85 20 ff ff
	ff		 lea	 eax, DWORD PTR _lpAddr2$45[ebp]
  0083b	6a 00		 push	 0
  0083d	50		 push	 eax
  0083e	e8 00 00 00 00	 call	 _memset
  00843	83 c4 18	 add	 esp, 24			; 00000018H

; 85   : 			arRead.ReadString( lpAddr1, 100 );

  00846	8d 85 bc fe ff
	ff		 lea	 eax, DWORD PTR _lpAddr1$44[ebp]
  0084c	8d 8d a8 1e ff
	ff		 lea	 ecx, DWORD PTR _arRead$[ebp]
  00852	6a 64		 push	 100			; 00000064H
  00854	50		 push	 eax
  00855	e8 00 00 00 00	 call	 ?ReadString@CAr@@QAEPADPADH@Z ; CAr::ReadString

; 86   : 			arRead.ReadString( lpAddr2, 100 );

  0085a	6a 64		 push	 100			; 00000064H
  0085c	8d 85 20 ff ff
	ff		 lea	 eax, DWORD PTR _lpAddr2$45[ebp]
  00862	50		 push	 eax
  00863	8d 8d a8 1e ff
	ff		 lea	 ecx, DWORD PTR _arRead$[ebp]
  00869	e8 00 00 00 00	 call	 ?ReadString@CAr@@QAEPADPADH@Z ; CAr::ReadString

; 87   : 			// 1. tblTradeDetailLog. Ć®·ąŔĚµĺŔÇ »ç¶÷ş° Á¤ş¸ŔÔ´Ď´Ů. (idPlayer, IP µî)
; 88   : 			call_uspLoggingTrade( qry, 1, nTradeID, 0, idPlayer1, iSeed1, lpAddr1, nLevel1, nJob1 );

  0086e	6a 00		 push	 0
  00870	6a 00		 push	 0
  00872	6a 00		 push	 0
  00874	6a 00		 push	 0
  00876	6a 00		 push	 0
  00878	6a 00		 push	 0
  0087a	6a 00		 push	 0
  0087c	6a 00		 push	 0
  0087e	ff b5 88 1d ff
	ff		 push	 DWORD PTR _nJob1$11[ebp]
  00884	8d 85 bc fe ff
	ff		 lea	 eax, DWORD PTR _lpAddr1$44[ebp]
  0088a	8b ce		 mov	 ecx, esi
  0088c	ff b5 cc 1d ff
	ff		 push	 DWORD PTR _nLevel1$35[ebp]
  00892	50		 push	 eax
  00893	ff b5 74 1d ff
	ff		 push	 DWORD PTR _iSeed1$[ebp]
  00899	ff b5 6c 1d ff
	ff		 push	 DWORD PTR _idPlayer1$2[ebp]
  0089f	6a 00		 push	 0
  008a1	ff b5 a8 1d ff
	ff		 push	 DWORD PTR _nTradeID$1$[ebp]
  008a7	6a 01		 push	 1
  008a9	ff b5 c4 1d ff
	ff		 push	 DWORD PTR _qry$GSCopy$1$[ebp]
  008af	e8 00 00 00 00	 call	 ?call_uspLoggingTrade@CDbManager@@QAEHPAVCQuery@@HHKKKPBDHHHKHHHH_J@Z ; CDbManager::call_uspLoggingTrade

; 89   : 			call_uspLoggingTrade( qry, 1, nTradeID, 0, idPlayer2, iSeed2, lpAddr2, nLevel2, nJob2 );

  008b4	6a 00		 push	 0
  008b6	6a 00		 push	 0
  008b8	6a 00		 push	 0
  008ba	6a 00		 push	 0
  008bc	6a 00		 push	 0
  008be	6a 00		 push	 0
  008c0	6a 00		 push	 0
  008c2	6a 00		 push	 0
  008c4	ff b5 a0 1d ff
	ff		 push	 DWORD PTR _nJob2$14[ebp]
  008ca	8d 85 20 ff ff
	ff		 lea	 eax, DWORD PTR _lpAddr2$45[ebp]
  008d0	8b ce		 mov	 ecx, esi
  008d2	ff b5 a4 1d ff
	ff		 push	 DWORD PTR _nLevel2$17[ebp]
  008d8	50		 push	 eax
  008d9	ff b5 90 1d ff
	ff		 push	 DWORD PTR _iSeed2$[ebp]
  008df	ff b5 78 1d ff
	ff		 push	 DWORD PTR _idPlayer2$4[ebp]
  008e5	6a 00		 push	 0
  008e7	ff b5 a8 1d ff
	ff		 push	 DWORD PTR _nTradeID$1$[ebp]
  008ed	6a 01		 push	 1
  008ef	ff b5 c4 1d ff
	ff		 push	 DWORD PTR _qry$GSCopy$1$[ebp]
  008f5	e8 00 00 00 00	 call	 ?call_uspLoggingTrade@CDbManager@@QAEHPAVCQuery@@HHKKKPBDHHHKHHHH_J@Z ; CDbManager::call_uspLoggingTrade

; 90   : 			u_long uSize1, uSize2;
; 91   : 			arRead >> uSize1 >> uSize2;

  008fa	8d 85 88 1d ff
	ff		 lea	 eax, DWORD PTR _uSize2$9[ebp]
  00900	50		 push	 eax
  00901	8d 85 cc 1d ff
	ff		 lea	 eax, DWORD PTR _uSize1$34[ebp]
  00907	50		 push	 eax
  00908	8d 8d a8 1e ff
	ff		 lea	 ecx, DWORD PTR _arRead$[ebp]
  0090e	e8 00 00 00 00	 call	 ??$?5K@CAr@@QAEAAV0@AAK@Z ; CAr::operator>><unsigned long>
  00913	8b c8		 mov	 ecx, eax
  00915	e8 00 00 00 00	 call	 ??$?5K@CAr@@QAEAAV0@AAK@Z ; CAr::operator>><unsigned long>

; 92   : 			for( DWORD i = 0; i < uSize1; i++ )

  0091a	83 bd cc 1d ff
	ff 00		 cmp	 DWORD PTR _uSize1$34[ebp], 0
  00921	c7 85 a0 1d ff
	ff 00 00 00 00	 mov	 DWORD PTR _i$1$[ebp], 0
  0092b	0f 86 1f 06 00
	00		 jbe	 $LN411@LogItem
  00931	0f 1f 40 00 66
	66 66 0f 1f 84
	00 00 00 00 00	 npad	 15
$LL6@LogItem:
  00940	0f 57 c0	 xorps	 xmm0, xmm0

; 93   : 			{
; 94   : 				memset( lpszItemText, 0, sizeof( lpszItemText ) );

  00943	c7 45 ec 00 00
	00 00		 mov	 DWORD PTR _lpszItemText$[ebp+32], 0

; 95   : 				SERIALNUMBER iSerialNumber;
; 96   : 				short nItemNum = 0;
; 97   : 				int	  nAbilityOption = 0;
; 98   : 				int	  nItemResist = 0;
; 99   : 				int	  nResistAbilityOption = 0;
; 100  : 				int   nNegudo = 0;
; 101  : 				int	  nMaxNegudo = 0;
; 102  : 				DWORD dwItemId	= 0;
; 103  : 				arRead >> dwItemId;

  0094a	8d 85 a4 1d ff
	ff		 lea	 eax, DWORD PTR _dwItemId$16[ebp]
  00950	c7 85 b0 1d ff
	ff 00 00 00 00	 mov	 DWORD PTR _nItemNum$22[ebp], 0
  0095a	50		 push	 eax
  0095b	8d 8d a8 1e ff
	ff		 lea	 ecx, DWORD PTR _arRead$[ebp]
  00961	c7 85 c0 1d ff
	ff 00 00 00 00	 mov	 DWORD PTR _nAbilityOption$31[ebp], 0
  0096b	0f 11 45 cc	 movups	 XMMWORD PTR _lpszItemText$[ebp], xmm0
  0096f	c7 85 bc 1d ff
	ff 00 00 00 00	 mov	 DWORD PTR _nItemResist$28[ebp], 0
  00979	0f 11 45 dc	 movups	 XMMWORD PTR _lpszItemText$[ebp+16], xmm0
  0097d	c7 85 b8 1d ff
	ff 00 00 00 00	 mov	 DWORD PTR _nResistAbilityOption$25[ebp], 0
  00987	c7 85 70 1d ff
	ff 00 00 00 00	 mov	 DWORD PTR _nNegudo$3[ebp], 0
  00991	c7 85 ac 1d ff
	ff 00 00 00 00	 mov	 DWORD PTR _nMaxNegudo$20[ebp], 0
  0099b	c7 85 a4 1d ff
	ff 00 00 00 00	 mov	 DWORD PTR _dwItemId$16[ebp], 0
  009a5	e8 00 00 00 00	 call	 ??$?5K@CAr@@QAEAAV0@AAK@Z ; CAr::operator>><unsigned long>

; 104  : 				arRead >> iSerialNumber;

  009aa	8d 85 7c 1d ff
	ff		 lea	 eax, DWORD PTR _iSerialNumber$7[ebp]
  009b0	50		 push	 eax
  009b1	8d 8d a8 1e ff
	ff		 lea	 ecx, DWORD PTR _arRead$[ebp]
  009b7	e8 00 00 00 00	 call	 ??$?5K@CAr@@QAEAAV0@AAK@Z ; CAr::operator>><unsigned long>

; 105  : 				arRead.ReadString( lpszItemText, 36 );

  009bc	6a 24		 push	 36			; 00000024H
  009be	8d 45 cc	 lea	 eax, DWORD PTR _lpszItemText$[ebp]
  009c1	50		 push	 eax
  009c2	8d 8d a8 1e ff
	ff		 lea	 ecx, DWORD PTR _arRead$[ebp]
  009c8	e8 00 00 00 00	 call	 ?ReadString@CAr@@QAEPADPADH@Z ; CAr::ReadString
; File C:\Program Files\Microsoft Visual Studio\2022\Professional\VC\Tools\MSVC\14.44.35207\atlmfc\include\afxstr.h

; 56   : 		return( AfxGetStringManager() );

  009cd	e8 00 00 00 00	 call	 ?AfxGetStringManager@@YGPAUIAtlStringMgr@ATL@@XZ ; AfxGetStringManager
  009d2	8b c8		 mov	 ecx, eax
; File C:\Program Files\Microsoft Visual Studio\2022\Professional\VC\Tools\MSVC\14.44.35207\atlmfc\include\atlsimpstr.h

; 209  : 		ATLENSURE( pStringMgr != NULL );

  009d4	85 c9		 test	 ecx, ecx
  009d6	0f 84 a6 0d 00
	00		 je	 $LN367@LogItem

; 210  : 		CStringData* pData = pStringMgr->GetNilString();

  009dc	8b 01		 mov	 eax, DWORD PTR [ecx]
  009de	8b 40 0c	 mov	 eax, DWORD PTR [eax+12]
  009e1	ff d0		 call	 eax

; 211  : 		Attach( pData );

  009e3	83 c0 10	 add	 eax, 16			; 00000010H
  009e6	89 85 d8 1d ff
	ff		 mov	 DWORD PTR _strItem$38[ebp], eax
; File C:\Program Files\Microsoft Visual Studio\2022\Professional\VC\Tools\MSVC\14.44.35207\atlmfc\include\cstringt.h

; 2712 : 		if( (pv != NULL) && IS_INTRESOURCE( pv ) )

  009ec	8d 45 cc	 lea	 eax, DWORD PTR _lpszItemText$[ebp]

; 1052 : 		CThisSimpleString( StringTraits::GetDefaultManager() )

  009ef	c6 45 fc 05	 mov	 BYTE PTR __$EHRec$[ebp+8], 5

; 2712 : 		if( (pv != NULL) && IS_INTRESOURCE( pv ) )

  009f3	a9 00 00 ff ff	 test	 eax, -65536		; ffff0000H
  009f8	75 11		 jne	 SHORT $LN409@LogItem

; 2713 : 		{
; 2714 : 			UINT nID = LOWORD( reinterpret_cast< DWORD_PTR >( pv ) );

  009fa	0f b7 c0	 movzx	 eax, ax

; 2715 : 			(nID);
; 2716 : #ifdef _ATL_USE_WINAPI_FAMILY_DESKTOP_APP
; 2717 : 			if( !LoadString( nID ) )

  009fd	8d 8d d8 1d ff
	ff		 lea	 ecx, DWORD PTR _strItem$38[ebp]
  00a03	50		 push	 eax
  00a04	e8 00 00 00 00	 call	 ?LoadStringA@?$CStringT@DV?$StrTraitMFC@DV?$ChTraitsCRT@D@ATL@@@@@ATL@@QAEHI@Z ; ATL::CStringT<char,StrTraitMFC<char,ATL::ChTraitsCRT<char> > >::LoadStringA

; 1054 : 		if( !CheckImplicitLoad( pszSrc ) )

  00a09	eb 1f		 jmp	 SHORT $LN194@LogItem
$LN409@LogItem:
; File C:\Program Files\Microsoft Visual Studio\2022\Professional\VC\Tools\MSVC\14.44.35207\atlmfc\include\atlsimpstr.h

; 730  : 		return( int( strlen( psz ) ) );

  00a0b	8d 4d cc	 lea	 ecx, DWORD PTR _lpszItemText$[ebp]
  00a0e	8d 51 01	 lea	 edx, DWORD PTR [ecx+1]
$LL416@LogItem:
  00a11	8a 01		 mov	 al, BYTE PTR [ecx]
  00a13	41		 inc	 ecx
  00a14	84 c0		 test	 al, al
  00a16	75 f9		 jne	 SHORT $LL416@LogItem
  00a18	2b ca		 sub	 ecx, edx

; 606  : 		SetString( pszSrc, StringLength( pszSrc ) );

  00a1a	8d 45 cc	 lea	 eax, DWORD PTR _lpszItemText$[ebp]
  00a1d	51		 push	 ecx
  00a1e	50		 push	 eax
  00a1f	8d 8d d8 1d ff
	ff		 lea	 ecx, DWORD PTR _strItem$38[ebp]
  00a25	e8 00 00 00 00	 call	 ?SetString@?$CSimpleStringT@D$0A@@ATL@@QAEXPBDH@Z ; ATL::CSimpleStringT<char,0>::SetString
$LN194@LogItem:
; File C:\Program Files\Microsoft Visual Studio\2022\Professional\VC\Tools\MSVC\14.44.35207\atlmfc\include\cstringt.h

; 1579 : 			int nLength = this->GetLength();

  00a2a	8b b5 d8 1d ff
	ff		 mov	 esi, DWORD PTR _strItem$38[ebp]
  00a30	32 c9		 xor	 cl, cl

; 1580 : 			int iChar = 0;

  00a32	33 d2		 xor	 edx, edx
; File C:\IAGOS\server\v18\Source\Source\_Database\DbManagerLog.cpp

; 106  : 				CString strItem	= lpszItemText;

  00a34	c6 45 fc 06	 mov	 BYTE PTR __$EHRec$[ebp+8], 6
; File C:\Program Files\Microsoft Visual Studio\2022\Professional\VC\Tools\MSVC\14.44.35207\atlmfc\include\cstringt.h

; 1576 : 			bool bCopied = false;

  00a38	88 8d df 1d ff
	ff		 mov	 BYTE PTR _bCopied$1$[ebp], cl

; 1580 : 			int iChar = 0;

  00a3e	89 95 80 1d ff
	ff		 mov	 DWORD PTR _iChar$1$[ebp], edx
  00a44	8b 46 f4	 mov	 eax, DWORD PTR [esi-12]
  00a47	89 85 b4 1d ff
	ff		 mov	 DWORD PTR _nLength$1$[ebp], eax

; 1581 : 			while( iChar < nLength )

  00a4d	85 c0		 test	 eax, eax
  00a4f	0f 8e 91 00 00
	00		 jle	 $LN251@LogItem
  00a55	eb 0f		 jmp	 SHORT $LN223@LogItem
  00a57	66 0f 1f 84 00
	00 00 00 00	 npad	 9
$LL419@LogItem:
  00a60	8a 8d df 1d ff
	ff		 mov	 cl, BYTE PTR _bCopied$1$[ebp]
$LN223@LogItem:

; 1582 : 			{
; 1583 : 				// replace instances of the specified character only
; 1584 : 				if( pszBuffer[iChar] == chOld )

  00a66	80 3c 32 27	 cmp	 BYTE PTR [edx+esi], 39	; 00000027H
  00a6a	75 41		 jne	 SHORT $LN226@LogItem

; 1585 : 				{
; 1586 : 					if( !bCopied )

  00a6c	84 c9		 test	 cl, cl
  00a6e	75 39		 jne	 SHORT $LN238@LogItem
; File C:\Program Files\Microsoft Visual Studio\2022\Professional\VC\Tools\MSVC\14.44.35207\atlmfc\include\atlsimpstr.h

; 813  : 		int nTooShort = pOldData->nAllocLength-nLength;  // nTooShort < 0 means true, >= 0 means false

  00a70	8b 46 f8	 mov	 eax, DWORD PTR [esi-8]
  00a73	b9 01 00 00 00	 mov	 ecx, 1
  00a78	2b 4e fc	 sub	 ecx, DWORD PTR [esi-4]
  00a7b	2b 85 b4 1d ff
	ff		 sub	 eax, DWORD PTR _nLength$1$[ebp]

; 814  : 		if( (nShared|nTooShort) < 0 )  // If either sign bit is set (i.e. either is less than zero), we need to copy data

  00a81	0b c1		 or	 eax, ecx
; File C:\Program Files\Microsoft Visual Studio\2022\Professional\VC\Tools\MSVC\14.44.35207\atlmfc\include\cstringt.h

; 1588 : 						bCopied = true;

  00a83	c6 85 df 1d ff
	ff 01		 mov	 BYTE PTR _bCopied$1$[ebp], 1
; File C:\Program Files\Microsoft Visual Studio\2022\Professional\VC\Tools\MSVC\14.44.35207\atlmfc\include\atlsimpstr.h

; 814  : 		if( (nShared|nTooShort) < 0 )  // If either sign bit is set (i.e. either is less than zero), we need to copy data

  00a8a	7d 1d		 jge	 SHORT $LN238@LogItem

; 815  : 		{
; 816  : 			PrepareWrite2( nLength );

  00a8c	ff b5 b4 1d ff
	ff		 push	 DWORD PTR _nLength$1$[ebp]
  00a92	8d 8d d8 1d ff
	ff		 lea	 ecx, DWORD PTR _strItem$38[ebp]
  00a98	e8 00 00 00 00	 call	 ?PrepareWrite2@?$CSimpleStringT@D$0A@@ATL@@AAEXH@Z ; ATL::CSimpleStringT<char,0>::PrepareWrite2
  00a9d	8b b5 d8 1d ff
	ff		 mov	 esi, DWORD PTR _strItem$38[ebp]
  00aa3	8b 95 80 1d ff
	ff		 mov	 edx, DWORD PTR _iChar$1$[ebp]
$LN238@LogItem:
; File C:\Program Files\Microsoft Visual Studio\2022\Professional\VC\Tools\MSVC\14.44.35207\atlmfc\include\cstringt.h

; 1591 : 					pszBuffer[iChar] = chNew;

  00aa9	c6 04 32 20	 mov	 BYTE PTR [edx+esi], 32	; 00000020H
$LN226@LogItem:

; 1592 : 					nCount++;
; 1593 : 				}
; 1594 : 				iChar = int( StringTraits::CharNext( pszBuffer+iChar )-pszBuffer );

  00aad	8d 04 32	 lea	 eax, DWORD PTR [edx+esi]

; 167  : 		return reinterpret_cast< char* >( _mbsinc( reinterpret_cast< const unsigned char* >( p ) ) );

  00ab0	50		 push	 eax
  00ab1	e8 00 00 00 00	 call	 __mbsinc
  00ab6	8b d0		 mov	 edx, eax
  00ab8	83 c4 04	 add	 esp, 4

; 1581 : 			while( iChar < nLength )

  00abb	8b 85 b4 1d ff
	ff		 mov	 eax, DWORD PTR _nLength$1$[ebp]

; 1592 : 					nCount++;
; 1593 : 				}
; 1594 : 				iChar = int( StringTraits::CharNext( pszBuffer+iChar )-pszBuffer );

  00ac1	2b d6		 sub	 edx, esi
  00ac3	89 95 80 1d ff
	ff		 mov	 DWORD PTR _iChar$1$[ebp], edx
  00ac9	3b d0		 cmp	 edx, eax
  00acb	7c 93		 jl	 SHORT $LL419@LogItem

; 1595 : 			}
; 1596 : 			if( bCopied )

  00acd	80 bd df 1d ff
	ff 00		 cmp	 BYTE PTR _bCopied$1$[ebp], 0
  00ad4	74 10		 je	 SHORT $LN251@LogItem
; File C:\Program Files\Microsoft Visual Studio\2022\Professional\VC\Tools\MSVC\14.44.35207\atlmfc\include\atlsimpstr.h

; 875  : 		if( nLength < 0 || nLength > GetData()->nAllocLength)

  00ad6	3b 46 f8	 cmp	 eax, DWORD PTR [esi-8]
  00ad9	0f 8f c1 0c 00
	00		 jg	 $LN368@LogItem

; 876  : 			AtlThrow(E_INVALIDARG);
; 877  : 
; 878  : 		GetData()->nDataLength = nLength;

  00adf	89 46 f4	 mov	 DWORD PTR [esi-12], eax

; 879  : 		m_pszData[nLength] = 0;

  00ae2	c6 04 30 00	 mov	 BYTE PTR [eax+esi], 0
$LN251@LogItem:
; File C:\IAGOS\server\v18\Source\Source\_Database\DbManagerLog.cpp

; 108  : 				lstrcpy( lpszItemText, (LPCSTR)strItem );

  00ae6	56		 push	 esi
  00ae7	8d 45 cc	 lea	 eax, DWORD PTR _lpszItemText$[ebp]
  00aea	50		 push	 eax
  00aeb	ff 15 00 00 00
	00		 call	 DWORD PTR __imp__lstrcpyA@8

; 109  : 				arRead >> nItemNum;

  00af1	8d 85 b0 1d ff
	ff		 lea	 eax, DWORD PTR _nItemNum$22[ebp]
  00af7	50		 push	 eax
  00af8	8d 8d a8 1e ff
	ff		 lea	 ecx, DWORD PTR _arRead$[ebp]
  00afe	e8 00 00 00 00	 call	 ??$?5F@CAr@@QAEAAV0@AAF@Z ; CAr::operator>><short>

; 110  : 				arRead >> nAbilityOption;

  00b03	8d 85 c0 1d ff
	ff		 lea	 eax, DWORD PTR _nAbilityOption$31[ebp]
  00b09	50		 push	 eax
  00b0a	8d 8d a8 1e ff
	ff		 lea	 ecx, DWORD PTR _arRead$[ebp]
  00b10	e8 00 00 00 00	 call	 ??$?5H@CAr@@QAEAAV0@AAH@Z ; CAr::operator>><int>

; 111  : 				arRead >> nItemResist;

  00b15	8d 85 bc 1d ff
	ff		 lea	 eax, DWORD PTR _nItemResist$28[ebp]
  00b1b	50		 push	 eax
  00b1c	8d 8d a8 1e ff
	ff		 lea	 ecx, DWORD PTR _arRead$[ebp]
  00b22	e8 00 00 00 00	 call	 ??$?5H@CAr@@QAEAAV0@AAH@Z ; CAr::operator>><int>

; 112  : 				arRead >> nResistAbilityOption;

  00b27	8d 85 b8 1d ff
	ff		 lea	 eax, DWORD PTR _nResistAbilityOption$25[ebp]
  00b2d	50		 push	 eax
  00b2e	8d 8d a8 1e ff
	ff		 lea	 ecx, DWORD PTR _arRead$[ebp]
  00b34	e8 00 00 00 00	 call	 ??$?5H@CAr@@QAEAAV0@AAH@Z ; CAr::operator>><int>

; 113  : 				arRead >> nNegudo;

  00b39	8d 85 70 1d ff
	ff		 lea	 eax, DWORD PTR _nNegudo$3[ebp]
  00b3f	50		 push	 eax
  00b40	8d 8d a8 1e ff
	ff		 lea	 ecx, DWORD PTR _arRead$[ebp]
  00b46	e8 00 00 00 00	 call	 ??$?5H@CAr@@QAEAAV0@AAH@Z ; CAr::operator>><int>

; 114  : 				arRead >> nMaxNegudo;

  00b4b	8d 85 ac 1d ff
	ff		 lea	 eax, DWORD PTR _nMaxNegudo$20[ebp]
  00b51	50		 push	 eax
  00b52	8d 8d a8 1e ff
	ff		 lea	 ecx, DWORD PTR _arRead$[ebp]
  00b58	e8 00 00 00 00	 call	 ??$?5H@CAr@@QAEAAV0@AAH@Z ; CAr::operator>><int>
; File C:\IAGOS\server\v18\Source\Source\_network\CmnHdr.h

; 683  : 		wPetEnergy = 0;

  00b5d	33 c0		 xor	 eax, eax
  00b5f	c7 85 fc 1d ff
	ff 00 00 00 00	 mov	 DWORD PTR _aLogItem$39[ebp+28], 0
  00b69	89 85 9c 1e ff
	ff		 mov	 DWORD PTR _aLogItem$39[ebp+188], eax
  00b6f	0f 57 c0	 xorps	 xmm0, xmm0

; 684  : 		wPetLife = 0;
; 685  : 		nPetAL_D = 0;

  00b72	89 85 a0 1e ff
	ff		 mov	 DWORD PTR _aLogItem$39[ebp+192], eax

; 686  : 		nPetAL_C = 0;
; 687  : 		nPetAL_B = 0;
; 688  : 		nPetAL_A = 0;
; 689  : 		nPetAL_S = 0;

  00b78	88 85 a4 1e ff
	ff		 mov	 BYTE PTR _aLogItem$39[ebp+196], al
; File C:\IAGOS\server\v18\Source\Source\_Database\DbManagerLog.cpp

; 117  : 				::memset( &(aLogItem), 0, sizeof( &(aLogItem) ) );

  00b7e	89 85 e0 1d ff
	ff		 mov	 DWORD PTR _aLogItem$39[ebp], eax

; 118  : 				aLogItem.SendName = lpszPlayer1;

  00b84	8d 45 a8	 lea	 eax, DWORD PTR _lpszPlayer1$[ebp]
  00b87	89 85 e4 1d ff
	ff		 mov	 DWORD PTR _aLogItem$39[ebp+4], eax

; 119  : 				aLogItem.RecvName = lpszPlayer2;

  00b8d	8d 45 84	 lea	 eax, DWORD PTR _lpszPlayer2$[ebp]
  00b90	89 85 e8 1d ff
	ff		 mov	 DWORD PTR _aLogItem$39[ebp+8], eax

; 120  : 				aLogItem.WorldId = dwWorldID;

  00b96	8b 85 94 1d ff
	ff		 mov	 eax, DWORD PTR _dwWorldID$[ebp]
  00b9c	89 85 ec 1d ff
	ff		 mov	 DWORD PTR _aLogItem$39[ebp+12], eax

; 121  : 				aLogItem.Gold = iReMainder1 + iSeed1;

  00ba2	8b 85 9c 1d ff
	ff		 mov	 eax, DWORD PTR _iReMainder1$[ebp]
  00ba8	03 85 74 1d ff
	ff		 add	 eax, DWORD PTR _iSeed1$[ebp]
  00bae	89 85 f0 1d ff
	ff		 mov	 DWORD PTR _aLogItem$39[ebp+16], eax

; 122  : 				aLogItem.Gold2 = iReMainder1 + iSeed1;

  00bb4	89 85 f4 1d ff
	ff		 mov	 DWORD PTR _aLogItem$39[ebp+20], eax

; 123  : 				aLogItem.ItemNo = iSerialNumber;

  00bba	8b 85 7c 1d ff
	ff		 mov	 eax, DWORD PTR _iSerialNumber$7[ebp]
  00bc0	89 85 f8 1d ff
	ff		 mov	 DWORD PTR _aLogItem$39[ebp+24], eax
; File C:\Program Files (x86)\Windows Kits\10\Include\10.0.26100.0\ucrt\tchar.h

; 1528 :     return (char *)_mbsnbcpy((unsigned char *)_Dst,(const unsigned char *)_Source,_Count);

  00bc6	8d 45 cc	 lea	 eax, DWORD PTR _lpszItemText$[ebp]
; File C:\IAGOS\server\v18\Source\Source\_network\CmnHdr.h

; 645  : 		::memset( szItemName, 0, sizeof(szItemName) );

  00bc9	0f 11 85 04 1e
	ff ff		 movups	 XMMWORD PTR _aLogItem$39[ebp+36], xmm0
; File C:\Program Files (x86)\Windows Kits\10\Include\10.0.26100.0\ucrt\tchar.h

; 1528 :     return (char *)_mbsnbcpy((unsigned char *)_Dst,(const unsigned char *)_Source,_Count);

  00bd0	6a 1e		 push	 30			; 0000001eH
; File C:\IAGOS\server\v18\Source\Source\_network\CmnHdr.h

; 645  : 		::memset( szItemName, 0, sizeof(szItemName) );

  00bd2	0f 11 85 14 1e
	ff ff		 movups	 XMMWORD PTR _aLogItem$39[ebp+52], xmm0
; File C:\Program Files (x86)\Windows Kits\10\Include\10.0.26100.0\ucrt\tchar.h

; 1528 :     return (char *)_mbsnbcpy((unsigned char *)_Dst,(const unsigned char *)_Source,_Count);

  00bd9	50		 push	 eax
; File C:\IAGOS\server\v18\Source\Source\_network\CmnHdr.h

; 649  : 		nSlot = 100;

  00bda	0f 28 05 00 00
	00 00		 movaps	 xmm0, XMMWORD PTR __xmm@00000000000000000000006400000064
; File C:\Program Files (x86)\Windows Kits\10\Include\10.0.26100.0\ucrt\tchar.h

; 1528 :     return (char *)_mbsnbcpy((unsigned char *)_Dst,(const unsigned char *)_Source,_Count);

  00be1	8d 85 04 1e ff
	ff		 lea	 eax, DWORD PTR _aLogItem$39[ebp+36]
; File C:\IAGOS\server\v18\Source\Source\_network\CmnHdr.h

; 649  : 		nSlot = 100;

  00be7	0f 11 85 30 1e
	ff ff		 movups	 XMMWORD PTR _aLogItem$39[ebp+80], xmm0
  00bee	c7 85 00 1e ff
	ff 00 00 00 00	 mov	 DWORD PTR _aLogItem$39[ebp+32], 0
  00bf8	0f 57 c0	 xorps	 xmm0, xmm0

; 646  : 		itemNumber = 0;

  00bfb	c7 85 24 1e ff
	ff 00 00 00 00	 mov	 DWORD PTR _aLogItem$39[ebp+68], 0
; File C:\Program Files (x86)\Windows Kits\10\Include\10.0.26100.0\ucrt\tchar.h

; 1528 :     return (char *)_mbsnbcpy((unsigned char *)_Dst,(const unsigned char *)_Source,_Count);

  00c05	50		 push	 eax
; File C:\IAGOS\server\v18\Source\Source\_network\CmnHdr.h

; 647  : 		nAbilityOption = 0;

  00c06	c7 85 28 1e ff
	ff 00 00 00 00	 mov	 DWORD PTR _aLogItem$39[ebp+72], 0

; 648  : 		Gold_1 = 0;

  00c10	c7 85 2c 1e ff
	ff 00 00 00 00	 mov	 DWORD PTR _aLogItem$39[ebp+76], 0

; 650  : 		nSlot1 = 100;
; 651  : 		nItemResist = 0;
; 652  : 		nResistAbilityOption = 0;
; 653  : 		m_bCharged = FALSE;

  00c1a	c7 85 40 1e ff
	ff 00 00 00 00	 mov	 DWORD PTR _aLogItem$39[ebp+96], 0

; 654  : 		m_dwKeepTime = 0;

  00c24	c7 85 44 1e ff
	ff 00 00 00 00	 mov	 DWORD PTR _aLogItem$39[ebp+100], 0

; 655  : #if __VER >= 11 // __SYS_IDENTIFY
; 656  : 		m_iRandomOptItemId = 0;

  00c2e	66 0f 13 85 48
	1e ff ff	 movlpd	 QWORD PTR _aLogItem$39[ebp+104], xmm0

; 657  : #else	//__SYS_IDENTIFY
; 658  : 		m_nRandomOptItemId = 0;
; 659  : #endif	// __SYS_IDENTIFY
; 660  : #if __VER >= 12 // __EXT_PIERCING
; 661  : 		nPiercedSize = 0;

  00c36	c7 85 50 1e ff
	ff 00 00 00 00	 mov	 DWORD PTR _aLogItem$39[ebp+112], 0

; 662  : //		for( int i=0; i<MAX_PIERCING_WEAPON; i++ )
; 663  : //			adwItemId[i] = 0;
; 664  : 		memset( adwItemId, 0, sizeof(adwItemId) );

  00c40	0f 11 85 54 1e
	ff ff		 movups	 XMMWORD PTR _aLogItem$39[ebp+116], xmm0

; 665  : 		nUMPiercedSize = 0;

  00c47	c7 85 7c 1e ff
	ff 00 00 00 00	 mov	 DWORD PTR _aLogItem$39[ebp+156], 0
  00c51	0f 11 85 64 1e
	ff ff		 movups	 XMMWORD PTR _aLogItem$39[ebp+132], xmm0

; 666  : //		for( i=0; i<MAX_PIERCING_ULTIMATE; i++ )
; 667  : //	adwUMItemId[i] = 0;
; 668  : 		memset( adwUMItemId, 0, sizeof(adwUMItemId) );

  00c58	c7 85 90 1e ff
	ff 00 00 00 00	 mov	 DWORD PTR _aLogItem$39[ebp+176], 0
  00c62	66 0f d6 85 74
	1e ff ff	 movq	 QWORD PTR _aLogItem$39[ebp+148], xmm0
  00c6a	0f 11 85 80 1e
	ff ff		 movups	 XMMWORD PTR _aLogItem$39[ebp+160], xmm0

; 669  : #else // __EXT_PIERCING
; 670  : 		nPiercedSize = 0;
; 671  : 		adwItemId0 = 0;
; 672  : 		adwItemId1 = 0;
; 673  : 		adwItemId2 = 0;
; 674  : 		adwItemId3 = 0;
; 675  : #if __VER >= 9 // __ULTIMATE
; 676  : 		adwItemId4 = 0;
; 677  : #endif // __ULTIMATE
; 678  : #endif // __EXT_PIERCING
; 679  : #if __VER >= 9 // __PET_0410
; 680  : 		nPetKind = 0;

  00c71	66 c7 85 94 1e
	ff ff 00 00	 mov	 WORD PTR _aLogItem$39[ebp+180], 0

; 681  : 		nPetLevel = 0;
; 682  : 		dwPetExp = 0;

  00c7a	c7 85 98 1e ff
	ff 00 00 00 00	 mov	 DWORD PTR _aLogItem$39[ebp+184], 0
; File C:\Program Files (x86)\Windows Kits\10\Include\10.0.26100.0\ucrt\tchar.h

; 1528 :     return (char *)_mbsnbcpy((unsigned char *)_Dst,(const unsigned char *)_Source,_Count);

  00c84	e8 00 00 00 00	 call	 __mbsnbcpy
; File C:\IAGOS\server\v18\Source\Source\_Database\DbManagerLog.cpp

; 127  : 				aLogItem.itemNumber = nItemNum;

  00c89	0f bf 85 b0 1d
	ff ff		 movsx	 eax, WORD PTR _nItemNum$22[ebp]
; File C:\Program Files (x86)\Windows Kits\10\Include\10.0.26100.0\ucrt\tchar.h

; 1528 :     return (char *)_mbsnbcpy((unsigned char *)_Dst,(const unsigned char *)_Source,_Count);

  00c90	83 c4 0c	 add	 esp, 12			; 0000000cH
; File C:\IAGOS\server\v18\Source\Source\_Database\DbManagerLog.cpp

; 127  : 				aLogItem.itemNumber = nItemNum;

  00c93	89 85 24 1e ff
	ff		 mov	 DWORD PTR _aLogItem$39[ebp+68], eax

; 128  : 				aLogItem.nAbilityOption = nAbilityOption;

  00c99	8b 85 c0 1d ff
	ff		 mov	 eax, DWORD PTR _nAbilityOption$31[ebp]
  00c9f	89 85 28 1e ff
	ff		 mov	 DWORD PTR _aLogItem$39[ebp+72], eax

; 129  : 				aLogItem.nItemResist = nItemResist;

  00ca5	8b 85 bc 1d ff
	ff		 mov	 eax, DWORD PTR _nItemResist$28[ebp]
  00cab	89 85 38 1e ff
	ff		 mov	 DWORD PTR _aLogItem$39[ebp+88], eax

; 130  : 				aLogItem.nResistAbilityOption = nResistAbilityOption;

  00cb1	8b 85 b8 1d ff
	ff		 mov	 eax, DWORD PTR _nResistAbilityOption$25[ebp]

; 131  : 				aLogItem.Negudo = nNegudo;
; 132  : 				aLogItem.MaxNegudo = nMaxNegudo;
; 133  : 				aLogItem.Gold_1 = iReMainder2;
; 134  : 				aLogItem.Action = chAction;
; 135  : 
; 136  : 				arRead >> aLogItem.m_bCharged;

  00cb7	8d 8d a8 1e ff
	ff		 lea	 ecx, DWORD PTR _arRead$[ebp]
  00cbd	89 85 3c 1e ff
	ff		 mov	 DWORD PTR _aLogItem$39[ebp+92], eax
  00cc3	8b 85 70 1d ff
	ff		 mov	 eax, DWORD PTR _nNegudo$3[ebp]
  00cc9	89 85 fc 1d ff
	ff		 mov	 DWORD PTR _aLogItem$39[ebp+28], eax
  00ccf	8b 85 ac 1d ff
	ff		 mov	 eax, DWORD PTR _nMaxNegudo$20[ebp]
  00cd5	89 85 00 1e ff
	ff		 mov	 DWORD PTR _aLogItem$39[ebp+32], eax
  00cdb	8b 85 98 1d ff
	ff		 mov	 eax, DWORD PTR _iReMainder2$[ebp]
  00ce1	89 85 2c 1e ff
	ff		 mov	 DWORD PTR _aLogItem$39[ebp+76], eax
  00ce7	8d 85 d4 1d ff
	ff		 lea	 eax, DWORD PTR _chAction$[ebp]
  00ced	89 85 e0 1d ff
	ff		 mov	 DWORD PTR _aLogItem$39[ebp], eax
  00cf3	8d 85 40 1e ff
	ff		 lea	 eax, DWORD PTR _aLogItem$39[ebp+96]
  00cf9	50		 push	 eax
  00cfa	e8 00 00 00 00	 call	 ??$?5H@CAr@@QAEAAV0@AAH@Z ; CAr::operator>><int>

; 137  : 				arRead >> aLogItem.m_dwKeepTime;

  00cff	8d 85 44 1e ff
	ff		 lea	 eax, DWORD PTR _aLogItem$39[ebp+100]
  00d05	50		 push	 eax
  00d06	8d 8d a8 1e ff
	ff		 lea	 ecx, DWORD PTR _arRead$[ebp]
  00d0c	e8 00 00 00 00	 call	 ??$?5K@CAr@@QAEAAV0@AAK@Z ; CAr::operator>><unsigned long>

; 138  : #if __VER >= 12 // __EXT_PIERCING
; 139  : 				arRead >> aLogItem.nPiercedSize;

  00d11	8d 85 50 1e ff
	ff		 lea	 eax, DWORD PTR _aLogItem$39[ebp+112]
  00d17	50		 push	 eax
  00d18	8d 8d a8 1e ff
	ff		 lea	 ecx, DWORD PTR _arRead$[ebp]
  00d1e	e8 00 00 00 00	 call	 ??$?5H@CAr@@QAEAAV0@AAH@Z ; CAr::operator>><int>

; 140  : 				
; 141  : 				int	k = 0;
; 142  : 				
; 143  : 				for( k=0; k<aLogItem.nPiercedSize; k++ )

  00d23	83 bd 50 1e ff
	ff 00		 cmp	 DWORD PTR _aLogItem$39[ebp+112], 0
  00d2a	c7 85 ac 1d ff
	ff 00 00 00 00	 mov	 DWORD PTR _k$1$[ebp], 0
  00d34	7e 30		 jle	 SHORT $LN8@LogItem

; 108  : 				lstrcpy( lpszItemText, (LPCSTR)strItem );

  00d36	8b b5 ac 1d ff
	ff		 mov	 esi, DWORD PTR _k$1$[ebp]
  00d3c	8d bd 54 1e ff
	ff		 lea	 edi, DWORD PTR _aLogItem$39[ebp+116]
$LL9@LogItem:

; 144  : 					arRead >> aLogItem.adwItemId[k];

  00d42	57		 push	 edi
  00d43	8d 8d a8 1e ff
	ff		 lea	 ecx, DWORD PTR _arRead$[ebp]
  00d49	e8 00 00 00 00	 call	 ??$?5H@CAr@@QAEAAV0@AAH@Z ; CAr::operator>><int>
  00d4e	46		 inc	 esi
  00d4f	83 c7 04	 add	 edi, 4
  00d52	3b b5 50 1e ff
	ff		 cmp	 esi, DWORD PTR _aLogItem$39[ebp+112]
  00d58	7c e8		 jl	 SHORT $LL9@LogItem
  00d5a	8b b5 d8 1d ff
	ff		 mov	 esi, DWORD PTR _strItem$38[ebp]
  00d60	8b bd c8 1d ff
	ff		 mov	 edi, DWORD PTR _strPlayer2$[ebp]
$LN8@LogItem:

; 145  : 				arRead >> aLogItem.nUMPiercedSize;

  00d66	8d 85 7c 1e ff
	ff		 lea	 eax, DWORD PTR _aLogItem$39[ebp+156]
  00d6c	50		 push	 eax
  00d6d	8d 8d a8 1e ff
	ff		 lea	 ecx, DWORD PTR _arRead$[ebp]
  00d73	e8 00 00 00 00	 call	 ??$?5H@CAr@@QAEAAV0@AAH@Z ; CAr::operator>><int>

; 146  : 				for( k=0; k<aLogItem.nUMPiercedSize; k++ )

  00d78	83 bd 7c 1e ff
	ff 00		 cmp	 DWORD PTR _aLogItem$39[ebp+156], 0
  00d7f	c7 85 ac 1d ff
	ff 00 00 00 00	 mov	 DWORD PTR _k$2$[ebp], 0
  00d89	7e 39		 jle	 SHORT $LN11@LogItem

; 145  : 				arRead >> aLogItem.nUMPiercedSize;

  00d8b	8b bd ac 1d ff
	ff		 mov	 edi, DWORD PTR _k$2$[ebp]
  00d91	8d b5 80 1e ff
	ff		 lea	 esi, DWORD PTR _aLogItem$39[ebp+160]
  00d97	66 0f 1f 84 00
	00 00 00 00	 npad	 9
$LL12@LogItem:

; 147  : 					arRead >> aLogItem.adwUMItemId[k];

  00da0	56		 push	 esi
  00da1	8d 8d a8 1e ff
	ff		 lea	 ecx, DWORD PTR _arRead$[ebp]
  00da7	e8 00 00 00 00	 call	 ??$?5H@CAr@@QAEAAV0@AAH@Z ; CAr::operator>><int>
  00dac	47		 inc	 edi
  00dad	83 c6 04	 add	 esi, 4
  00db0	3b bd 7c 1e ff
	ff		 cmp	 edi, DWORD PTR _aLogItem$39[ebp+156]
  00db6	7c e8		 jl	 SHORT $LL12@LogItem
  00db8	8b b5 d8 1d ff
	ff		 mov	 esi, DWORD PTR _strItem$38[ebp]
  00dbe	8b bd c8 1d ff
	ff		 mov	 edi, DWORD PTR _strPlayer2$[ebp]
$LN11@LogItem:

; 148  : #else // __EXT_PIERCING
; 149  : 				arRead >> aLogItem.nPiercedSize;
; 150  : 				arRead >> aLogItem.adwItemId0;
; 151  : 				arRead >> aLogItem.adwItemId1;
; 152  : 				arRead >> aLogItem.adwItemId2;
; 153  : 				arRead >> aLogItem.adwItemId3;
; 154  : #if __VER >= 9 // __ULTIMATE
; 155  : 				arRead >> aLogItem.adwItemId4;
; 156  : #endif // __ULTIMATE
; 157  : #endif // __EXT_PIERCING
; 158  : #if __VER >= 11 // __SYS_IDENTIFY
; 159  : 				arRead >> aLogItem.m_iRandomOptItemId;

  00dc4	8d 85 48 1e ff
	ff		 lea	 eax, DWORD PTR _aLogItem$39[ebp+104]
  00dca	50		 push	 eax
  00dcb	8d 8d a8 1e ff
	ff		 lea	 ecx, DWORD PTR _arRead$[ebp]
  00dd1	e8 00 00 00 00	 call	 ??$?5_J@CAr@@QAEAAV0@AA_J@Z ; CAr::operator>><__int64>

; 160  : #else	// __SYS_IDENTIFY
; 161  : 				arRead >> aLogItem.m_nRandomOptItemId;
; 162  : #endif	// __SYS_IDENTIFY
; 163  : 				
; 164  : #if __VER >= 9 // __PET_0410
; 165  : 				arRead >> aLogItem.nPetKind;

  00dd6	8d 85 94 1e ff
	ff		 lea	 eax, DWORD PTR _aLogItem$39[ebp+180]
  00ddc	50		 push	 eax
  00ddd	8d 8d a8 1e ff
	ff		 lea	 ecx, DWORD PTR _arRead$[ebp]
  00de3	e8 00 00 00 00	 call	 ??$?5E@CAr@@QAEAAV0@AAE@Z ; CAr::operator>><unsigned char>

; 166  : 				arRead >> aLogItem.nPetLevel;

  00de8	8d 85 95 1e ff
	ff		 lea	 eax, DWORD PTR _aLogItem$39[ebp+181]
  00dee	50		 push	 eax
  00def	8d 8d a8 1e ff
	ff		 lea	 ecx, DWORD PTR _arRead$[ebp]
  00df5	e8 00 00 00 00	 call	 ??$?5E@CAr@@QAEAAV0@AAE@Z ; CAr::operator>><unsigned char>

; 167  : 				arRead >> aLogItem.dwPetExp;

  00dfa	8d 85 98 1e ff
	ff		 lea	 eax, DWORD PTR _aLogItem$39[ebp+184]
  00e00	50		 push	 eax
  00e01	8d 8d a8 1e ff
	ff		 lea	 ecx, DWORD PTR _arRead$[ebp]
  00e07	e8 00 00 00 00	 call	 ??$?5K@CAr@@QAEAAV0@AAK@Z ; CAr::operator>><unsigned long>

; 168  : 				arRead >> aLogItem.wPetEnergy;

  00e0c	8d 85 9c 1e ff
	ff		 lea	 eax, DWORD PTR _aLogItem$39[ebp+188]
  00e12	50		 push	 eax
  00e13	8d 8d a8 1e ff
	ff		 lea	 ecx, DWORD PTR _arRead$[ebp]
  00e19	e8 00 00 00 00	 call	 ??$?5G@CAr@@QAEAAV0@AAG@Z ; CAr::operator>><unsigned short>

; 169  : 				arRead >> aLogItem.wPetLife;

  00e1e	8d 85 9e 1e ff
	ff		 lea	 eax, DWORD PTR _aLogItem$39[ebp+190]
  00e24	50		 push	 eax
  00e25	8d 8d a8 1e ff
	ff		 lea	 ecx, DWORD PTR _arRead$[ebp]
  00e2b	e8 00 00 00 00	 call	 ??$?5G@CAr@@QAEAAV0@AAG@Z ; CAr::operator>><unsigned short>

; 170  : 				arRead >> aLogItem.nPetAL_D;

  00e30	8d 85 a0 1e ff
	ff		 lea	 eax, DWORD PTR _aLogItem$39[ebp+192]
  00e36	50		 push	 eax
  00e37	8d 8d a8 1e ff
	ff		 lea	 ecx, DWORD PTR _arRead$[ebp]
  00e3d	e8 00 00 00 00	 call	 ??$?5E@CAr@@QAEAAV0@AAE@Z ; CAr::operator>><unsigned char>

; 171  : 				arRead >> aLogItem.nPetAL_C;

  00e42	8d 85 a1 1e ff
	ff		 lea	 eax, DWORD PTR _aLogItem$39[ebp+193]
  00e48	50		 push	 eax
  00e49	8d 8d a8 1e ff
	ff		 lea	 ecx, DWORD PTR _arRead$[ebp]
  00e4f	e8 00 00 00 00	 call	 ??$?5E@CAr@@QAEAAV0@AAE@Z ; CAr::operator>><unsigned char>

; 172  : 				arRead >> aLogItem.nPetAL_B;

  00e54	8d 85 a2 1e ff
	ff		 lea	 eax, DWORD PTR _aLogItem$39[ebp+194]
  00e5a	50		 push	 eax
  00e5b	8d 8d a8 1e ff
	ff		 lea	 ecx, DWORD PTR _arRead$[ebp]
  00e61	e8 00 00 00 00	 call	 ??$?5E@CAr@@QAEAAV0@AAE@Z ; CAr::operator>><unsigned char>

; 173  : 				arRead >> aLogItem.nPetAL_A;

  00e66	8d 85 a3 1e ff
	ff		 lea	 eax, DWORD PTR _aLogItem$39[ebp+195]
  00e6c	50		 push	 eax
  00e6d	8d 8d a8 1e ff
	ff		 lea	 ecx, DWORD PTR _arRead$[ebp]
  00e73	e8 00 00 00 00	 call	 ??$?5E@CAr@@QAEAAV0@AAE@Z ; CAr::operator>><unsigned char>

; 174  : 				arRead >> aLogItem.nPetAL_S;

  00e78	8d 85 a4 1e ff
	ff		 lea	 eax, DWORD PTR _aLogItem$39[ebp+196]
  00e7e	50		 push	 eax
  00e7f	8d 8d a8 1e ff
	ff		 lea	 ecx, DWORD PTR _arRead$[ebp]
  00e85	e8 00 00 00 00	 call	 ??$?5E@CAr@@QAEAAV0@AAE@Z ; CAr::operator>><unsigned char>

; 175  : #endif // __PET_0410
; 176  : 
; 177  : 				DBQryNewItemLog( szQuery, aLogItem );

  00e8a	8b 8d d0 1d ff
	ff		 mov	 ecx, DWORD PTR _this$GSCopy$1$[ebp]
  00e90	8d 85 e0 1d ff
	ff		 lea	 eax, DWORD PTR _aLogItem$39[ebp]
  00e96	50		 push	 eax
  00e97	8d 85 bc 5e ff
	ff		 lea	 eax, DWORD PTR _szQuery$[ebp]
  00e9d	50		 push	 eax
  00e9e	e8 00 00 00 00	 call	 ?DBQryNewItemLog@CDbManager@@QAEXPADABU_LogItemInfo@@@Z ; CDbManager::DBQryNewItemLog

; 178  : 
; 179  : 				if ( FALSE == qry->Exec( szQuery ) )

  00ea3	8b 8d c4 1d ff
	ff		 mov	 ecx, DWORD PTR _qry$GSCopy$1$[ebp]
  00ea9	8d 85 bc 5e ff
	ff		 lea	 eax, DWORD PTR _szQuery$[ebp]
  00eaf	50		 push	 eax
  00eb0	e8 00 00 00 00	 call	 ?Exec@CQuery@@QAEHPBD@Z	; CQuery::Exec
  00eb5	85 c0		 test	 eax, eax
  00eb7	0f 84 7e 01 00
	00		 je	 $LN369@LogItem

; 182  : 					FreeRequest( lpDbOverlappedPlus );
; 183  : 					return;
; 184  : 				}
; 185  : 				// 2. tblTradeItemLog. Ć®·ąŔĚµĺ ´ë»ó ľĆŔĚĹŰ Á¤ş¸ŔÔ´Ď´Ů. (ItemIndex, SerialNo żÜ)
; 186  : #if __VER >= 11 // __SYS_IDENTIFY
; 187  : 				call_uspLoggingTrade( qry, 2, nTradeID, 0, idPlayer2, 0, "", 0, 0, dwItemId, iSerialNumber, nItemNum, nAbilityOption, nItemResist, nResistAbilityOption, aLogItem.m_iRandomOptItemId );

  00ebd	ff b5 4c 1e ff
	ff		 push	 DWORD PTR _aLogItem$39[ebp+108]
  00ec3	0f bf 85 b0 1d
	ff ff		 movsx	 eax, WORD PTR _nItemNum$22[ebp]
  00eca	ff b5 48 1e ff
	ff		 push	 DWORD PTR _aLogItem$39[ebp+104]
  00ed0	8b 8d d0 1d ff
	ff		 mov	 ecx, DWORD PTR _this$GSCopy$1$[ebp]
  00ed6	ff b5 b8 1d ff
	ff		 push	 DWORD PTR _nResistAbilityOption$25[ebp]
  00edc	ff b5 bc 1d ff
	ff		 push	 DWORD PTR _nItemResist$28[ebp]
  00ee2	ff b5 c0 1d ff
	ff		 push	 DWORD PTR _nAbilityOption$31[ebp]
  00ee8	50		 push	 eax
  00ee9	ff b5 7c 1d ff
	ff		 push	 DWORD PTR _iSerialNumber$7[ebp]
  00eef	ff b5 a4 1d ff
	ff		 push	 DWORD PTR _dwItemId$16[ebp]
  00ef5	6a 00		 push	 0
  00ef7	6a 00		 push	 0
  00ef9	68 00 00 00 00	 push	 OFFSET ??_C@_00CNPNBAHC@@
  00efe	6a 00		 push	 0
  00f00	ff b5 78 1d ff
	ff		 push	 DWORD PTR _idPlayer2$4[ebp]
  00f06	6a 00		 push	 0
  00f08	ff b5 a8 1d ff
	ff		 push	 DWORD PTR _nTradeID$1$[ebp]
  00f0e	6a 02		 push	 2
  00f10	ff b5 c4 1d ff
	ff		 push	 DWORD PTR _qry$GSCopy$1$[ebp]
  00f16	e8 00 00 00 00	 call	 ?call_uspLoggingTrade@CDbManager@@QAEHPAVCQuery@@HHKKKPBDHHHKHHHH_J@Z ; CDbManager::call_uspLoggingTrade

; 188  : #else	// __SYS_IDENTIFY
; 189  : 				call_uspLoggingTrade( qry, 2, nTradeID, 0, idPlayer2, 0, "", 0, 0, dwItemId, iSerialNumber, nItemNum, nAbilityOption, nItemResist, nResistAbilityOption, aLogItem.m_nRandomOptItemId );
; 190  : #endif	// __SYS_IDENTIFY
; 191  : 			}

  00f1b	c6 45 fc 04	 mov	 BYTE PTR __$EHRec$[ebp+8], 4
; File C:\Program Files\Microsoft Visual Studio\2022\Professional\VC\Tools\MSVC\14.44.35207\atlmfc\include\atlsimpstr.h

; 804  : 		return( reinterpret_cast< CStringData* >( m_pszData )-1 );

  00f1f	83 c6 f0	 add	 esi, -16		; fffffff0H

; 92   : 		if( _InterlockedDecrement( &nRefs ) <= 0 )

  00f22	83 c8 ff	 or	 eax, -1
  00f25	f0 0f c1 46 0c	 lock	  xadd	 DWORD PTR [esi+12], eax
  00f2a	48		 dec	 eax
  00f2b	85 c0		 test	 eax, eax
  00f2d	7f 08		 jg	 SHORT $LN4@LogItem

; 93   : 		{
; 94   : 			pStringMgr->Free( this );

  00f2f	8b 0e		 mov	 ecx, DWORD PTR [esi]
  00f31	56		 push	 esi
  00f32	8b 01		 mov	 eax, DWORD PTR [ecx]
  00f34	ff 50 04	 call	 DWORD PTR [eax+4]
$LN4@LogItem:
; File C:\IAGOS\server\v18\Source\Source\_Database\DbManagerLog.cpp

; 92   : 			for( DWORD i = 0; i < uSize1; i++ )

  00f37	8b b5 a0 1d ff
	ff		 mov	 esi, DWORD PTR _i$1$[ebp]
  00f3d	46		 inc	 esi
  00f3e	89 b5 a0 1d ff
	ff		 mov	 DWORD PTR _i$1$[ebp], esi
  00f44	3b b5 cc 1d ff
	ff		 cmp	 esi, DWORD PTR _uSize1$34[ebp]
  00f4a	0f 82 f0 f9 ff
	ff		 jb	 $LL6@LogItem
$LN411@LogItem:

; 192  : 			for( int i = 0; i < uSize2; i++ )

  00f50	83 bd 88 1d ff
	ff 00		 cmp	 DWORD PTR _uSize2$9[ebp], 0
  00f57	c7 85 ac 1d ff
	ff 00 00 00 00	 mov	 DWORD PTR _i$1$[ebp], 0
  00f61	0f 86 39 06 00
	00		 jbe	 $LN14@LogItem
  00f67	66 0f 1f 84 00
	00 00 00 00	 npad	 9
$LL15@LogItem:
  00f70	0f 57 c0	 xorps	 xmm0, xmm0

; 193  : 			{
; 194  : 				memset( lpszItemText, 0, sizeof( lpszItemText ) );

  00f73	c7 45 ec 00 00
	00 00		 mov	 DWORD PTR _lpszItemText$[ebp+32], 0

; 195  : 				SERIALNUMBER iSerialNumber;
; 196  : 				short nItemNum = 0;
; 197  : 				int	  nAbilityOption = 0;
; 198  : 				int	  nItemResist = 0;
; 199  : 				int	  nResistAbilityOption = 0;
; 200  : 				int   nNegudo = 0;
; 201  : 				int		nMaxNegudo	= 0;
; 202  : 				DWORD dwItemId	= 0;
; 203  : 				arRead >> dwItemId;

  00f7a	8d 85 7c 1d ff
	ff		 lea	 eax, DWORD PTR _dwItemId$6[ebp]
  00f80	c7 85 b4 1d ff
	ff 00 00 00 00	 mov	 DWORD PTR _nItemNum$23[ebp], 0
  00f8a	50		 push	 eax
  00f8b	8d 8d a8 1e ff
	ff		 lea	 ecx, DWORD PTR _arRead$[ebp]
  00f91	c7 85 b8 1d ff
	ff 00 00 00 00	 mov	 DWORD PTR _nAbilityOption$26[ebp], 0
  00f9b	0f 11 45 cc	 movups	 XMMWORD PTR _lpszItemText$[ebp], xmm0
  00f9f	c7 85 bc 1d ff
	ff 00 00 00 00	 mov	 DWORD PTR _nItemResist$30[ebp], 0
  00fa9	0f 11 45 dc	 movups	 XMMWORD PTR _lpszItemText$[ebp+16], xmm0
  00fad	c7 85 c0 1d ff
	ff 00 00 00 00	 mov	 DWORD PTR _nResistAbilityOption$33[ebp], 0
  00fb7	c7 85 a0 1d ff
	ff 00 00 00 00	 mov	 DWORD PTR _nNegudo$15[ebp], 0
  00fc1	c7 85 78 1d ff
	ff 00 00 00 00	 mov	 DWORD PTR _nMaxNegudo$5[ebp], 0
  00fcb	c7 85 7c 1d ff
	ff 00 00 00 00	 mov	 DWORD PTR _dwItemId$6[ebp], 0
  00fd5	e8 00 00 00 00	 call	 ??$?5K@CAr@@QAEAAV0@AAK@Z ; CAr::operator>><unsigned long>

; 204  : 				arRead >> iSerialNumber;

  00fda	8d 85 a4 1d ff
	ff		 lea	 eax, DWORD PTR _iSerialNumber$18[ebp]
  00fe0	50		 push	 eax
  00fe1	8d 8d a8 1e ff
	ff		 lea	 ecx, DWORD PTR _arRead$[ebp]
  00fe7	e8 00 00 00 00	 call	 ??$?5K@CAr@@QAEAAV0@AAK@Z ; CAr::operator>><unsigned long>

; 205  : 				arRead.ReadString( lpszItemText, 36 );

  00fec	6a 24		 push	 36			; 00000024H
  00fee	8d 45 cc	 lea	 eax, DWORD PTR _lpszItemText$[ebp]
  00ff1	50		 push	 eax
  00ff2	8d 8d a8 1e ff
	ff		 lea	 ecx, DWORD PTR _arRead$[ebp]
  00ff8	e8 00 00 00 00	 call	 ?ReadString@CAr@@QAEPADPADH@Z ; CAr::ReadString
; File C:\Program Files\Microsoft Visual Studio\2022\Professional\VC\Tools\MSVC\14.44.35207\atlmfc\include\afxstr.h

; 56   : 		return( AfxGetStringManager() );

  00ffd	e8 00 00 00 00	 call	 ?AfxGetStringManager@@YGPAUIAtlStringMgr@ATL@@XZ ; AfxGetStringManager
  01002	8b c8		 mov	 ecx, eax
; File C:\Program Files\Microsoft Visual Studio\2022\Professional\VC\Tools\MSVC\14.44.35207\atlmfc\include\atlsimpstr.h

; 209  : 		ATLENSURE( pStringMgr != NULL );

  01004	85 c9		 test	 ecx, ecx
  01006	0f 84 76 07 00
	00		 je	 $LN367@LogItem

; 210  : 		CStringData* pData = pStringMgr->GetNilString();

  0100c	8b 01		 mov	 eax, DWORD PTR [ecx]
  0100e	8b 40 0c	 mov	 eax, DWORD PTR [eax+12]
  01011	ff d0		 call	 eax

; 211  : 		Attach( pData );

  01013	83 c0 10	 add	 eax, 16			; 00000010H
  01016	89 85 d8 1d ff
	ff		 mov	 DWORD PTR _strItem$36[ebp], eax
; File C:\Program Files\Microsoft Visual Studio\2022\Professional\VC\Tools\MSVC\14.44.35207\atlmfc\include\cstringt.h

; 2712 : 		if( (pv != NULL) && IS_INTRESOURCE( pv ) )

  0101c	8d 45 cc	 lea	 eax, DWORD PTR _lpszItemText$[ebp]

; 1052 : 		CThisSimpleString( StringTraits::GetDefaultManager() )

  0101f	c6 45 fc 07	 mov	 BYTE PTR __$EHRec$[ebp+8], 7

; 2712 : 		if( (pv != NULL) && IS_INTRESOURCE( pv ) )

  01023	a9 00 00 ff ff	 test	 eax, -65536		; ffff0000H
  01028	75 35		 jne	 SHORT $LN410@LogItem

; 2713 : 		{
; 2714 : 			UINT nID = LOWORD( reinterpret_cast< DWORD_PTR >( pv ) );

  0102a	0f b7 c0	 movzx	 eax, ax

; 2715 : 			(nID);
; 2716 : #ifdef _ATL_USE_WINAPI_FAMILY_DESKTOP_APP
; 2717 : 			if( !LoadString( nID ) )

  0102d	8d 8d d8 1d ff
	ff		 lea	 ecx, DWORD PTR _strItem$36[ebp]
  01033	50		 push	 eax
  01034	e8 00 00 00 00	 call	 ?LoadStringA@?$CStringT@DV?$StrTraitMFC@DV?$ChTraitsCRT@D@ATL@@@@@ATL@@QAEHI@Z ; ATL::CStringT<char,StrTraitMFC<char,ATL::ChTraitsCRT<char> > >::LoadStringA

; 1054 : 		if( !CheckImplicitLoad( pszSrc ) )

  01039	eb 43		 jmp	 SHORT $LN105@LogItem
$LN369@LogItem:
; File C:\IAGOS\server\v18\Source\Source\_Database\DbManagerLog.cpp

; 181  : 					WriteLog( "%s, %d\t%s, %s", __FILE__, __LINE__, lpszPlayer1, lpszPlayer2 );

  0103b	8d 45 84	 lea	 eax, DWORD PTR _lpszPlayer2$[ebp]
  0103e	50		 push	 eax
  0103f	8d 45 a8	 lea	 eax, DWORD PTR _lpszPlayer1$[ebp]
  01042	50		 push	 eax
  01043	68 b5 00 00 00	 push	 181			; 000000b5H
$LN424@LogItem:

; 441  : }

  01048	68 00 00 00 00	 push	 OFFSET ??_C@_0DN@OEMKJAPO@C?3?2IAGOS?2server?2v18?2Source?2Sour@
  0104d	68 00 00 00 00	 push	 OFFSET ??_C@_0O@MCAKDACP@?$CFs?0?5?$CFd?7?$CFs?0?5?$CFs@
  01052	e8 00 00 00 00	 call	 ?WriteLog@@YAXPBDZZ	; WriteLog
  01057	83 c4 14	 add	 esp, 20			; 00000014H
  0105a	e9 47 f6 ff ff	 jmp	 $LN37@LogItem
$LN410@LogItem:
; File C:\Program Files\Microsoft Visual Studio\2022\Professional\VC\Tools\MSVC\14.44.35207\atlmfc\include\atlsimpstr.h

; 730  : 		return( int( strlen( psz ) ) );

  0105f	8d 4d cc	 lea	 ecx, DWORD PTR _lpszItemText$[ebp]
  01062	8d 51 01	 lea	 edx, DWORD PTR [ecx+1]
$LL417@LogItem:
  01065	8a 01		 mov	 al, BYTE PTR [ecx]
  01067	41		 inc	 ecx
  01068	84 c0		 test	 al, al
  0106a	75 f9		 jne	 SHORT $LL417@LogItem
  0106c	2b ca		 sub	 ecx, edx

; 606  : 		SetString( pszSrc, StringLength( pszSrc ) );

  0106e	8d 45 cc	 lea	 eax, DWORD PTR _lpszItemText$[ebp]
  01071	51		 push	 ecx
  01072	50		 push	 eax
  01073	8d 8d d8 1d ff
	ff		 lea	 ecx, DWORD PTR _strItem$36[ebp]
  01079	e8 00 00 00 00	 call	 ?SetString@?$CSimpleStringT@D$0A@@ATL@@QAEXPBDH@Z ; ATL::CSimpleStringT<char,0>::SetString
$LN105@LogItem:
; File C:\Program Files\Microsoft Visual Studio\2022\Professional\VC\Tools\MSVC\14.44.35207\atlmfc\include\cstringt.h

; 1579 : 			int nLength = this->GetLength();

  0107e	8b b5 d8 1d ff
	ff		 mov	 esi, DWORD PTR _strItem$36[ebp]
  01084	32 d2		 xor	 dl, dl

; 1580 : 			int iChar = 0;

  01086	33 c0		 xor	 eax, eax
; File C:\IAGOS\server\v18\Source\Source\_Database\DbManagerLog.cpp

; 206  : 				CString strItem	= lpszItemText;

  01088	c6 45 fc 08	 mov	 BYTE PTR __$EHRec$[ebp+8], 8
; File C:\Program Files\Microsoft Visual Studio\2022\Professional\VC\Tools\MSVC\14.44.35207\atlmfc\include\cstringt.h

; 1576 : 			bool bCopied = false;

  0108c	88 95 df 1d ff
	ff		 mov	 BYTE PTR _bCopied$1$[ebp], dl

; 1580 : 			int iChar = 0;

  01092	89 85 cc 1d ff
	ff		 mov	 DWORD PTR _iChar$1$[ebp], eax
  01098	8b 4e f4	 mov	 ecx, DWORD PTR [esi-12]
  0109b	89 8d b0 1d ff
	ff		 mov	 DWORD PTR _nLength$1$[ebp], ecx

; 1581 : 			while( iChar < nLength )

  010a1	85 c9		 test	 ecx, ecx
  010a3	0f 8e 8a 00 00
	00		 jle	 $LN163@LogItem
  010a9	eb 0b		 jmp	 SHORT $LN135@LogItem
  010ab	0f 1f 44 00 00	 npad	 5
$LL418@LogItem:
  010b0	8a 95 df 1d ff
	ff		 mov	 dl, BYTE PTR _bCopied$1$[ebp]
$LN135@LogItem:

; 1582 : 			{
; 1583 : 				// replace instances of the specified character only
; 1584 : 				if( pszBuffer[iChar] == chOld )

  010b6	80 3c 30 27	 cmp	 BYTE PTR [eax+esi], 39	; 00000027H
  010ba	75 41		 jne	 SHORT $LN138@LogItem

; 1585 : 				{
; 1586 : 					if( !bCopied )

  010bc	84 d2		 test	 dl, dl
  010be	75 39		 jne	 SHORT $LN150@LogItem
; File C:\Program Files\Microsoft Visual Studio\2022\Professional\VC\Tools\MSVC\14.44.35207\atlmfc\include\atlsimpstr.h

; 813  : 		int nTooShort = pOldData->nAllocLength-nLength;  // nTooShort < 0 means true, >= 0 means false

  010c0	8b 4e f8	 mov	 ecx, DWORD PTR [esi-8]
  010c3	ba 01 00 00 00	 mov	 edx, 1
  010c8	2b 56 fc	 sub	 edx, DWORD PTR [esi-4]
  010cb	2b 8d b0 1d ff
	ff		 sub	 ecx, DWORD PTR _nLength$1$[ebp]

; 814  : 		if( (nShared|nTooShort) < 0 )  // If either sign bit is set (i.e. either is less than zero), we need to copy data

  010d1	0b ca		 or	 ecx, edx
; File C:\Program Files\Microsoft Visual Studio\2022\Professional\VC\Tools\MSVC\14.44.35207\atlmfc\include\cstringt.h

; 1588 : 						bCopied = true;

  010d3	c6 85 df 1d ff
	ff 01		 mov	 BYTE PTR _bCopied$1$[ebp], 1
; File C:\Program Files\Microsoft Visual Studio\2022\Professional\VC\Tools\MSVC\14.44.35207\atlmfc\include\atlsimpstr.h

; 814  : 		if( (nShared|nTooShort) < 0 )  // If either sign bit is set (i.e. either is less than zero), we need to copy data

  010da	7d 1d		 jge	 SHORT $LN150@LogItem

; 815  : 		{
; 816  : 			PrepareWrite2( nLength );

  010dc	ff b5 b0 1d ff
	ff		 push	 DWORD PTR _nLength$1$[ebp]
  010e2	8d 8d d8 1d ff
	ff		 lea	 ecx, DWORD PTR _strItem$36[ebp]
  010e8	e8 00 00 00 00	 call	 ?PrepareWrite2@?$CSimpleStringT@D$0A@@ATL@@AAEXH@Z ; ATL::CSimpleStringT<char,0>::PrepareWrite2
  010ed	8b b5 d8 1d ff
	ff		 mov	 esi, DWORD PTR _strItem$36[ebp]
  010f3	8b 85 cc 1d ff
	ff		 mov	 eax, DWORD PTR _iChar$1$[ebp]
$LN150@LogItem:
; File C:\Program Files\Microsoft Visual Studio\2022\Professional\VC\Tools\MSVC\14.44.35207\atlmfc\include\cstringt.h

; 1591 : 					pszBuffer[iChar] = chNew;

  010f9	c6 04 30 20	 mov	 BYTE PTR [eax+esi], 32	; 00000020H
$LN138@LogItem:

; 1592 : 					nCount++;
; 1593 : 				}
; 1594 : 				iChar = int( StringTraits::CharNext( pszBuffer+iChar )-pszBuffer );

  010fd	03 c6		 add	 eax, esi

; 167  : 		return reinterpret_cast< char* >( _mbsinc( reinterpret_cast< const unsigned char* >( p ) ) );

  010ff	50		 push	 eax
  01100	e8 00 00 00 00	 call	 __mbsinc

; 1581 : 			while( iChar < nLength )

  01105	8b 8d b0 1d ff
	ff		 mov	 ecx, DWORD PTR _nLength$1$[ebp]

; 1592 : 					nCount++;
; 1593 : 				}
; 1594 : 				iChar = int( StringTraits::CharNext( pszBuffer+iChar )-pszBuffer );

  0110b	2b c6		 sub	 eax, esi

; 167  : 		return reinterpret_cast< char* >( _mbsinc( reinterpret_cast< const unsigned char* >( p ) ) );

  0110d	83 c4 04	 add	 esp, 4

; 1594 : 				iChar = int( StringTraits::CharNext( pszBuffer+iChar )-pszBuffer );

  01110	89 85 cc 1d ff
	ff		 mov	 DWORD PTR _iChar$1$[ebp], eax
  01116	3b c1		 cmp	 eax, ecx
  01118	7c 96		 jl	 SHORT $LL418@LogItem

; 1595 : 			}
; 1596 : 			if( bCopied )

  0111a	80 bd df 1d ff
	ff 00		 cmp	 BYTE PTR _bCopied$1$[ebp], 0
  01121	74 10		 je	 SHORT $LN163@LogItem
; File C:\Program Files\Microsoft Visual Studio\2022\Professional\VC\Tools\MSVC\14.44.35207\atlmfc\include\atlsimpstr.h

; 875  : 		if( nLength < 0 || nLength > GetData()->nAllocLength)

  01123	3b 4e f8	 cmp	 ecx, DWORD PTR [esi-8]
  01126	0f 8f 74 06 00
	00		 jg	 $LN368@LogItem

; 876  : 			AtlThrow(E_INVALIDARG);
; 877  : 
; 878  : 		GetData()->nDataLength = nLength;

  0112c	89 4e f4	 mov	 DWORD PTR [esi-12], ecx

; 879  : 		m_pszData[nLength] = 0;

  0112f	c6 04 31 00	 mov	 BYTE PTR [ecx+esi], 0
$LN163@LogItem:
; File C:\IAGOS\server\v18\Source\Source\_Database\DbManagerLog.cpp

; 208  : 				lstrcpy( lpszItemText, (LPCSTR)strItem );

  01133	56		 push	 esi
  01134	8d 45 cc	 lea	 eax, DWORD PTR _lpszItemText$[ebp]
  01137	50		 push	 eax
  01138	ff 15 00 00 00
	00		 call	 DWORD PTR __imp__lstrcpyA@8

; 209  : 				arRead >> nItemNum;

  0113e	8d 85 b4 1d ff
	ff		 lea	 eax, DWORD PTR _nItemNum$23[ebp]
  01144	50		 push	 eax
  01145	8d 8d a8 1e ff
	ff		 lea	 ecx, DWORD PTR _arRead$[ebp]
  0114b	e8 00 00 00 00	 call	 ??$?5F@CAr@@QAEAAV0@AAF@Z ; CAr::operator>><short>

; 210  : 				arRead >> nAbilityOption;

  01150	8d 85 b8 1d ff
	ff		 lea	 eax, DWORD PTR _nAbilityOption$26[ebp]
  01156	50		 push	 eax
  01157	8d 8d a8 1e ff
	ff		 lea	 ecx, DWORD PTR _arRead$[ebp]
  0115d	e8 00 00 00 00	 call	 ??$?5H@CAr@@QAEAAV0@AAH@Z ; CAr::operator>><int>

; 211  : 				arRead >> nItemResist;

  01162	8d 85 bc 1d ff
	ff		 lea	 eax, DWORD PTR _nItemResist$30[ebp]
  01168	50		 push	 eax
  01169	8d 8d a8 1e ff
	ff		 lea	 ecx, DWORD PTR _arRead$[ebp]
  0116f	e8 00 00 00 00	 call	 ??$?5H@CAr@@QAEAAV0@AAH@Z ; CAr::operator>><int>

; 212  : 				arRead >> nResistAbilityOption;

  01174	8d 85 c0 1d ff
	ff		 lea	 eax, DWORD PTR _nResistAbilityOption$33[ebp]
  0117a	50		 push	 eax
  0117b	8d 8d a8 1e ff
	ff		 lea	 ecx, DWORD PTR _arRead$[ebp]
  01181	e8 00 00 00 00	 call	 ??$?5H@CAr@@QAEAAV0@AAH@Z ; CAr::operator>><int>

; 213  : 				arRead >> nNegudo;

  01186	8d 85 a0 1d ff
	ff		 lea	 eax, DWORD PTR _nNegudo$15[ebp]
  0118c	50		 push	 eax
  0118d	8d 8d a8 1e ff
	ff		 lea	 ecx, DWORD PTR _arRead$[ebp]
  01193	e8 00 00 00 00	 call	 ??$?5H@CAr@@QAEAAV0@AAH@Z ; CAr::operator>><int>

; 214  : 				arRead >> nMaxNegudo;

  01198	8d 85 78 1d ff
	ff		 lea	 eax, DWORD PTR _nMaxNegudo$5[ebp]
  0119e	50		 push	 eax
  0119f	8d 8d a8 1e ff
	ff		 lea	 ecx, DWORD PTR _arRead$[ebp]
  011a5	e8 00 00 00 00	 call	 ??$?5H@CAr@@QAEAAV0@AAH@Z ; CAr::operator>><int>
; File C:\IAGOS\server\v18\Source\Source\_network\CmnHdr.h

; 683  : 		wPetEnergy = 0;

  011aa	33 c0		 xor	 eax, eax
  011ac	c7 85 fc 1d ff
	ff 00 00 00 00	 mov	 DWORD PTR _aLogItem$41[ebp+28], 0
  011b6	89 85 9c 1e ff
	ff		 mov	 DWORD PTR _aLogItem$41[ebp+188], eax
  011bc	0f 57 c0	 xorps	 xmm0, xmm0

; 684  : 		wPetLife = 0;
; 685  : 		nPetAL_D = 0;

  011bf	89 85 a0 1e ff
	ff		 mov	 DWORD PTR _aLogItem$41[ebp+192], eax

; 686  : 		nPetAL_C = 0;
; 687  : 		nPetAL_B = 0;
; 688  : 		nPetAL_A = 0;
; 689  : 		nPetAL_S = 0;

  011c5	88 85 a4 1e ff
	ff		 mov	 BYTE PTR _aLogItem$41[ebp+196], al
; File C:\IAGOS\server\v18\Source\Source\_Database\DbManagerLog.cpp

; 217  : 				::memset( &(aLogItem), 0, sizeof( &(aLogItem) ) );

  011cb	89 85 e0 1d ff
	ff		 mov	 DWORD PTR _aLogItem$41[ebp], eax

; 218  : 				aLogItem.SendName = lpszPlayer2;

  011d1	8d 45 84	 lea	 eax, DWORD PTR _lpszPlayer2$[ebp]
  011d4	89 85 e4 1d ff
	ff		 mov	 DWORD PTR _aLogItem$41[ebp+4], eax

; 219  : 				aLogItem.RecvName = lpszPlayer1;

  011da	8d 45 a8	 lea	 eax, DWORD PTR _lpszPlayer1$[ebp]
  011dd	89 85 e8 1d ff
	ff		 mov	 DWORD PTR _aLogItem$41[ebp+8], eax

; 220  : 				aLogItem.WorldId = dwWorldID;

  011e3	8b 85 94 1d ff
	ff		 mov	 eax, DWORD PTR _dwWorldID$[ebp]
  011e9	89 85 ec 1d ff
	ff		 mov	 DWORD PTR _aLogItem$41[ebp+12], eax

; 221  : 				aLogItem.Gold = iReMainder2 + iSeed2;

  011ef	8b 85 98 1d ff
	ff		 mov	 eax, DWORD PTR _iReMainder2$[ebp]
  011f5	03 85 90 1d ff
	ff		 add	 eax, DWORD PTR _iSeed2$[ebp]
  011fb	89 85 f0 1d ff
	ff		 mov	 DWORD PTR _aLogItem$41[ebp+16], eax

; 222  : 				aLogItem.Gold2 = iReMainder2 + iSeed2;

  01201	89 85 f4 1d ff
	ff		 mov	 DWORD PTR _aLogItem$41[ebp+20], eax

; 223  : 				aLogItem.ItemNo = iSerialNumber;

  01207	8b 85 a4 1d ff
	ff		 mov	 eax, DWORD PTR _iSerialNumber$18[ebp]
  0120d	89 85 f8 1d ff
	ff		 mov	 DWORD PTR _aLogItem$41[ebp+24], eax
; File C:\Program Files (x86)\Windows Kits\10\Include\10.0.26100.0\ucrt\tchar.h

; 1528 :     return (char *)_mbsnbcpy((unsigned char *)_Dst,(const unsigned char *)_Source,_Count);

  01213	8d 45 cc	 lea	 eax, DWORD PTR _lpszItemText$[ebp]
; File C:\IAGOS\server\v18\Source\Source\_network\CmnHdr.h

; 645  : 		::memset( szItemName, 0, sizeof(szItemName) );

  01216	0f 11 85 04 1e
	ff ff		 movups	 XMMWORD PTR _aLogItem$41[ebp+36], xmm0
; File C:\Program Files (x86)\Windows Kits\10\Include\10.0.26100.0\ucrt\tchar.h

; 1528 :     return (char *)_mbsnbcpy((unsigned char *)_Dst,(const unsigned char *)_Source,_Count);

  0121d	6a 1e		 push	 30			; 0000001eH
; File C:\IAGOS\server\v18\Source\Source\_network\CmnHdr.h

; 645  : 		::memset( szItemName, 0, sizeof(szItemName) );

  0121f	0f 11 85 14 1e
	ff ff		 movups	 XMMWORD PTR _aLogItem$41[ebp+52], xmm0
; File C:\Program Files (x86)\Windows Kits\10\Include\10.0.26100.0\ucrt\tchar.h

; 1528 :     return (char *)_mbsnbcpy((unsigned char *)_Dst,(const unsigned char *)_Source,_Count);

  01226	50		 push	 eax
; File C:\IAGOS\server\v18\Source\Source\_network\CmnHdr.h

; 649  : 		nSlot = 100;

  01227	0f 28 05 00 00
	00 00		 movaps	 xmm0, XMMWORD PTR __xmm@00000000000000000000006400000064
; File C:\Program Files (x86)\Windows Kits\10\Include\10.0.26100.0\ucrt\tchar.h

; 1528 :     return (char *)_mbsnbcpy((unsigned char *)_Dst,(const unsigned char *)_Source,_Count);

  0122e	8d 85 04 1e ff
	ff		 lea	 eax, DWORD PTR _aLogItem$41[ebp+36]
; File C:\IAGOS\server\v18\Source\Source\_network\CmnHdr.h

; 649  : 		nSlot = 100;

  01234	0f 11 85 30 1e
	ff ff		 movups	 XMMWORD PTR _aLogItem$41[ebp+80], xmm0
  0123b	c7 85 00 1e ff
	ff 00 00 00 00	 mov	 DWORD PTR _aLogItem$41[ebp+32], 0
  01245	0f 57 c0	 xorps	 xmm0, xmm0

; 646  : 		itemNumber = 0;

  01248	c7 85 24 1e ff
	ff 00 00 00 00	 mov	 DWORD PTR _aLogItem$41[ebp+68], 0
; File C:\Program Files (x86)\Windows Kits\10\Include\10.0.26100.0\ucrt\tchar.h

; 1528 :     return (char *)_mbsnbcpy((unsigned char *)_Dst,(const unsigned char *)_Source,_Count);

  01252	50		 push	 eax
; File C:\IAGOS\server\v18\Source\Source\_network\CmnHdr.h

; 647  : 		nAbilityOption = 0;

  01253	c7 85 28 1e ff
	ff 00 00 00 00	 mov	 DWORD PTR _aLogItem$41[ebp+72], 0

; 648  : 		Gold_1 = 0;

  0125d	c7 85 2c 1e ff
	ff 00 00 00 00	 mov	 DWORD PTR _aLogItem$41[ebp+76], 0

; 650  : 		nSlot1 = 100;
; 651  : 		nItemResist = 0;
; 652  : 		nResistAbilityOption = 0;
; 653  : 		m_bCharged = FALSE;

  01267	c7 85 40 1e ff
	ff 00 00 00 00	 mov	 DWORD PTR _aLogItem$41[ebp+96], 0

; 654  : 		m_dwKeepTime = 0;

  01271	c7 85 44 1e ff
	ff 00 00 00 00	 mov	 DWORD PTR _aLogItem$41[ebp+100], 0

; 655  : #if __VER >= 11 // __SYS_IDENTIFY
; 656  : 		m_iRandomOptItemId = 0;

  0127b	66 0f 13 85 48
	1e ff ff	 movlpd	 QWORD PTR _aLogItem$41[ebp+104], xmm0

; 657  : #else	//__SYS_IDENTIFY
; 658  : 		m_nRandomOptItemId = 0;
; 659  : #endif	// __SYS_IDENTIFY
; 660  : #if __VER >= 12 // __EXT_PIERCING
; 661  : 		nPiercedSize = 0;

  01283	c7 85 50 1e ff
	ff 00 00 00 00	 mov	 DWORD PTR _aLogItem$41[ebp+112], 0

; 662  : //		for( int i=0; i<MAX_PIERCING_WEAPON; i++ )
; 663  : //			adwItemId[i] = 0;
; 664  : 		memset( adwItemId, 0, sizeof(adwItemId) );

  0128d	0f 11 85 54 1e
	ff ff		 movups	 XMMWORD PTR _aLogItem$41[ebp+116], xmm0

; 665  : 		nUMPiercedSize = 0;

  01294	c7 85 7c 1e ff
	ff 00 00 00 00	 mov	 DWORD PTR _aLogItem$41[ebp+156], 0
  0129e	0f 11 85 64 1e
	ff ff		 movups	 XMMWORD PTR _aLogItem$41[ebp+132], xmm0

; 666  : //		for( i=0; i<MAX_PIERCING_ULTIMATE; i++ )
; 667  : //	adwUMItemId[i] = 0;
; 668  : 		memset( adwUMItemId, 0, sizeof(adwUMItemId) );

  012a5	c7 85 90 1e ff
	ff 00 00 00 00	 mov	 DWORD PTR _aLogItem$41[ebp+176], 0
  012af	66 0f d6 85 74
	1e ff ff	 movq	 QWORD PTR _aLogItem$41[ebp+148], xmm0
  012b7	0f 11 85 80 1e
	ff ff		 movups	 XMMWORD PTR _aLogItem$41[ebp+160], xmm0

; 669  : #else // __EXT_PIERCING
; 670  : 		nPiercedSize = 0;
; 671  : 		adwItemId0 = 0;
; 672  : 		adwItemId1 = 0;
; 673  : 		adwItemId2 = 0;
; 674  : 		adwItemId3 = 0;
; 675  : #if __VER >= 9 // __ULTIMATE
; 676  : 		adwItemId4 = 0;
; 677  : #endif // __ULTIMATE
; 678  : #endif // __EXT_PIERCING
; 679  : #if __VER >= 9 // __PET_0410
; 680  : 		nPetKind = 0;

  012be	66 c7 85 94 1e
	ff ff 00 00	 mov	 WORD PTR _aLogItem$41[ebp+180], 0

; 681  : 		nPetLevel = 0;
; 682  : 		dwPetExp = 0;

  012c7	c7 85 98 1e ff
	ff 00 00 00 00	 mov	 DWORD PTR _aLogItem$41[ebp+184], 0
; File C:\Program Files (x86)\Windows Kits\10\Include\10.0.26100.0\ucrt\tchar.h

; 1528 :     return (char *)_mbsnbcpy((unsigned char *)_Dst,(const unsigned char *)_Source,_Count);

  012d1	e8 00 00 00 00	 call	 __mbsnbcpy
; File C:\IAGOS\server\v18\Source\Source\_Database\DbManagerLog.cpp

; 227  : 				aLogItem.itemNumber = nItemNum;

  012d6	0f bf 85 b4 1d
	ff ff		 movsx	 eax, WORD PTR _nItemNum$23[ebp]
; File C:\Program Files (x86)\Windows Kits\10\Include\10.0.26100.0\ucrt\tchar.h

; 1528 :     return (char *)_mbsnbcpy((unsigned char *)_Dst,(const unsigned char *)_Source,_Count);

  012dd	83 c4 0c	 add	 esp, 12			; 0000000cH
; File C:\IAGOS\server\v18\Source\Source\_Database\DbManagerLog.cpp

; 227  : 				aLogItem.itemNumber = nItemNum;

  012e0	89 85 24 1e ff
	ff		 mov	 DWORD PTR _aLogItem$41[ebp+68], eax

; 228  : 				aLogItem.nAbilityOption = nAbilityOption;

  012e6	8b 85 b8 1d ff
	ff		 mov	 eax, DWORD PTR _nAbilityOption$26[ebp]
  012ec	89 85 28 1e ff
	ff		 mov	 DWORD PTR _aLogItem$41[ebp+72], eax

; 229  : 				aLogItem.nItemResist = nItemResist;

  012f2	8b 85 bc 1d ff
	ff		 mov	 eax, DWORD PTR _nItemResist$30[ebp]
  012f8	89 85 38 1e ff
	ff		 mov	 DWORD PTR _aLogItem$41[ebp+88], eax

; 230  : 				aLogItem.nResistAbilityOption = nResistAbilityOption;

  012fe	8b 85 c0 1d ff
	ff		 mov	 eax, DWORD PTR _nResistAbilityOption$33[ebp]

; 231  : 				aLogItem.Negudo = nNegudo;
; 232  : 				aLogItem.MaxNegudo	= nMaxNegudo;
; 233  : 				aLogItem.Gold_1 = iReMainder1;
; 234  : 				aLogItem.Action = chAction;
; 235  : 				
; 236  : 				arRead >> aLogItem.m_bCharged;

  01304	8d 8d a8 1e ff
	ff		 lea	 ecx, DWORD PTR _arRead$[ebp]
  0130a	89 85 3c 1e ff
	ff		 mov	 DWORD PTR _aLogItem$41[ebp+92], eax
  01310	8b 85 a0 1d ff
	ff		 mov	 eax, DWORD PTR _nNegudo$15[ebp]
  01316	89 85 fc 1d ff
	ff		 mov	 DWORD PTR _aLogItem$41[ebp+28], eax
  0131c	8b 85 78 1d ff
	ff		 mov	 eax, DWORD PTR _nMaxNegudo$5[ebp]
  01322	89 85 00 1e ff
	ff		 mov	 DWORD PTR _aLogItem$41[ebp+32], eax
  01328	8b 85 9c 1d ff
	ff		 mov	 eax, DWORD PTR _iReMainder1$[ebp]
  0132e	89 85 2c 1e ff
	ff		 mov	 DWORD PTR _aLogItem$41[ebp+76], eax
  01334	8d 85 d4 1d ff
	ff		 lea	 eax, DWORD PTR _chAction$[ebp]
  0133a	89 85 e0 1d ff
	ff		 mov	 DWORD PTR _aLogItem$41[ebp], eax
  01340	8d 85 40 1e ff
	ff		 lea	 eax, DWORD PTR _aLogItem$41[ebp+96]
  01346	50		 push	 eax
  01347	e8 00 00 00 00	 call	 ??$?5H@CAr@@QAEAAV0@AAH@Z ; CAr::operator>><int>

; 237  : 				arRead >> aLogItem.m_dwKeepTime;

  0134c	8d 85 44 1e ff
	ff		 lea	 eax, DWORD PTR _aLogItem$41[ebp+100]
  01352	50		 push	 eax
  01353	8d 8d a8 1e ff
	ff		 lea	 ecx, DWORD PTR _arRead$[ebp]
  01359	e8 00 00 00 00	 call	 ??$?5K@CAr@@QAEAAV0@AAK@Z ; CAr::operator>><unsigned long>

; 238  : #if __VER >= 12 // __EXT_PIERCING
; 239  : 				arRead >> aLogItem.nPiercedSize;

  0135e	8d 85 50 1e ff
	ff		 lea	 eax, DWORD PTR _aLogItem$41[ebp+112]
  01364	50		 push	 eax
  01365	8d 8d a8 1e ff
	ff		 lea	 ecx, DWORD PTR _arRead$[ebp]
  0136b	e8 00 00 00 00	 call	 ??$?5H@CAr@@QAEAAV0@AAH@Z ; CAr::operator>><int>

; 240  : 				for( int i=0; i<aLogItem.nPiercedSize; i++ )

  01370	83 bd 50 1e ff
	ff 00		 cmp	 DWORD PTR _aLogItem$41[ebp+112], 0
  01377	c7 85 cc 1d ff
	ff 00 00 00 00	 mov	 DWORD PTR _i$1$[ebp], 0
  01381	7e 31		 jle	 SHORT $LN17@LogItem

; 208  : 				lstrcpy( lpszItemText, (LPCSTR)strItem );

  01383	8b b5 cc 1d ff
	ff		 mov	 esi, DWORD PTR _i$1$[ebp]
  01389	8d bd 54 1e ff
	ff		 lea	 edi, DWORD PTR _aLogItem$41[ebp+116]
  0138f	90		 npad	 1
$LL18@LogItem:

; 241  : 					arRead >> aLogItem.adwItemId[i];

  01390	57		 push	 edi
  01391	8d 8d a8 1e ff
	ff		 lea	 ecx, DWORD PTR _arRead$[ebp]
  01397	e8 00 00 00 00	 call	 ??$?5H@CAr@@QAEAAV0@AAH@Z ; CAr::operator>><int>
  0139c	46		 inc	 esi
  0139d	83 c7 04	 add	 edi, 4
  013a0	3b b5 50 1e ff
	ff		 cmp	 esi, DWORD PTR _aLogItem$41[ebp+112]
  013a6	7c e8		 jl	 SHORT $LL18@LogItem
  013a8	8b b5 d8 1d ff
	ff		 mov	 esi, DWORD PTR _strItem$36[ebp]
  013ae	8b bd c8 1d ff
	ff		 mov	 edi, DWORD PTR _strPlayer2$[ebp]
$LN17@LogItem:

; 242  : 				arRead >> aLogItem.nUMPiercedSize;

  013b4	8d 85 7c 1e ff
	ff		 lea	 eax, DWORD PTR _aLogItem$41[ebp+156]
  013ba	50		 push	 eax
  013bb	8d 8d a8 1e ff
	ff		 lea	 ecx, DWORD PTR _arRead$[ebp]
  013c1	e8 00 00 00 00	 call	 ??$?5H@CAr@@QAEAAV0@AAH@Z ; CAr::operator>><int>

; 243  : 				for( int i=0; i<aLogItem.nUMPiercedSize; i++ )

  013c6	83 bd 7c 1e ff
	ff 00		 cmp	 DWORD PTR _aLogItem$41[ebp+156], 0
  013cd	c7 85 cc 1d ff
	ff 00 00 00 00	 mov	 DWORD PTR _i$1$[ebp], 0
  013d7	7e 3b		 jle	 SHORT $LN20@LogItem

; 242  : 				arRead >> aLogItem.nUMPiercedSize;

  013d9	8b bd cc 1d ff
	ff		 mov	 edi, DWORD PTR _i$1$[ebp]
  013df	8d b5 80 1e ff
	ff		 lea	 esi, DWORD PTR _aLogItem$41[ebp+160]
  013e5	66 66 66 0f 1f
	84 00 00 00 00
	00		 npad	 11
$LL21@LogItem:

; 244  : 					arRead >> aLogItem.adwUMItemId[i];

  013f0	56		 push	 esi
  013f1	8d 8d a8 1e ff
	ff		 lea	 ecx, DWORD PTR _arRead$[ebp]
  013f7	e8 00 00 00 00	 call	 ??$?5H@CAr@@QAEAAV0@AAH@Z ; CAr::operator>><int>
  013fc	47		 inc	 edi
  013fd	83 c6 04	 add	 esi, 4
  01400	3b bd 7c 1e ff
	ff		 cmp	 edi, DWORD PTR _aLogItem$41[ebp+156]
  01406	7c e8		 jl	 SHORT $LL21@LogItem
  01408	8b b5 d8 1d ff
	ff		 mov	 esi, DWORD PTR _strItem$36[ebp]
  0140e	8b bd c8 1d ff
	ff		 mov	 edi, DWORD PTR _strPlayer2$[ebp]
$LN20@LogItem:

; 245  : #else // __EXT_PIERCING
; 246  : 				arRead >> aLogItem.nPiercedSize;
; 247  : 				arRead >> aLogItem.adwItemId0;
; 248  : 				arRead >> aLogItem.adwItemId1;
; 249  : 				arRead >> aLogItem.adwItemId2;
; 250  : 				arRead >> aLogItem.adwItemId3;
; 251  : #if __VER >= 9 // __ULTIMATE
; 252  : 				arRead >> aLogItem.adwItemId4;
; 253  : #endif // __ULTIMATE
; 254  : #endif // __EXT_PIERCING
; 255  : 
; 256  : #if __VER >= 11 // __SYS_IDENTIFY
; 257  : 				arRead >> aLogItem.m_iRandomOptItemId;

  01414	8d 85 48 1e ff
	ff		 lea	 eax, DWORD PTR _aLogItem$41[ebp+104]
  0141a	50		 push	 eax
  0141b	8d 8d a8 1e ff
	ff		 lea	 ecx, DWORD PTR _arRead$[ebp]
  01421	e8 00 00 00 00	 call	 ??$?5_J@CAr@@QAEAAV0@AA_J@Z ; CAr::operator>><__int64>

; 258  : #else	// __SYS_IDENTIFY
; 259  : 				arRead >> aLogItem.m_nRandomOptItemId;
; 260  : #endif	// __SYS_IDENTIFY
; 261  : 
; 262  : #if __VER >= 9 // __PET_0410
; 263  : 				arRead >> aLogItem.nPetKind;

  01426	8d 85 94 1e ff
	ff		 lea	 eax, DWORD PTR _aLogItem$41[ebp+180]
  0142c	50		 push	 eax
  0142d	8d 8d a8 1e ff
	ff		 lea	 ecx, DWORD PTR _arRead$[ebp]
  01433	e8 00 00 00 00	 call	 ??$?5E@CAr@@QAEAAV0@AAE@Z ; CAr::operator>><unsigned char>

; 264  : 				arRead >> aLogItem.nPetLevel;

  01438	8d 85 95 1e ff
	ff		 lea	 eax, DWORD PTR _aLogItem$41[ebp+181]
  0143e	50		 push	 eax
  0143f	8d 8d a8 1e ff
	ff		 lea	 ecx, DWORD PTR _arRead$[ebp]
  01445	e8 00 00 00 00	 call	 ??$?5E@CAr@@QAEAAV0@AAE@Z ; CAr::operator>><unsigned char>

; 265  : 				arRead >> aLogItem.dwPetExp;

  0144a	8d 85 98 1e ff
	ff		 lea	 eax, DWORD PTR _aLogItem$41[ebp+184]
  01450	50		 push	 eax
  01451	8d 8d a8 1e ff
	ff		 lea	 ecx, DWORD PTR _arRead$[ebp]
  01457	e8 00 00 00 00	 call	 ??$?5K@CAr@@QAEAAV0@AAK@Z ; CAr::operator>><unsigned long>

; 266  : 				arRead >> aLogItem.wPetEnergy;

  0145c	8d 85 9c 1e ff
	ff		 lea	 eax, DWORD PTR _aLogItem$41[ebp+188]
  01462	50		 push	 eax
  01463	8d 8d a8 1e ff
	ff		 lea	 ecx, DWORD PTR _arRead$[ebp]
  01469	e8 00 00 00 00	 call	 ??$?5G@CAr@@QAEAAV0@AAG@Z ; CAr::operator>><unsigned short>

; 267  : 				arRead >> aLogItem.wPetLife;

  0146e	8d 85 9e 1e ff
	ff		 lea	 eax, DWORD PTR _aLogItem$41[ebp+190]
  01474	50		 push	 eax
  01475	8d 8d a8 1e ff
	ff		 lea	 ecx, DWORD PTR _arRead$[ebp]
  0147b	e8 00 00 00 00	 call	 ??$?5G@CAr@@QAEAAV0@AAG@Z ; CAr::operator>><unsigned short>

; 268  : 				arRead >> aLogItem.nPetAL_D;

  01480	8d 85 a0 1e ff
	ff		 lea	 eax, DWORD PTR _aLogItem$41[ebp+192]
  01486	50		 push	 eax
  01487	8d 8d a8 1e ff
	ff		 lea	 ecx, DWORD PTR _arRead$[ebp]
  0148d	e8 00 00 00 00	 call	 ??$?5E@CAr@@QAEAAV0@AAE@Z ; CAr::operator>><unsigned char>

; 269  : 				arRead >> aLogItem.nPetAL_C;

  01492	8d 85 a1 1e ff
	ff		 lea	 eax, DWORD PTR _aLogItem$41[ebp+193]
  01498	50		 push	 eax
  01499	8d 8d a8 1e ff
	ff		 lea	 ecx, DWORD PTR _arRead$[ebp]
  0149f	e8 00 00 00 00	 call	 ??$?5E@CAr@@QAEAAV0@AAE@Z ; CAr::operator>><unsigned char>

; 270  : 				arRead >> aLogItem.nPetAL_B;

  014a4	8d 85 a2 1e ff
	ff		 lea	 eax, DWORD PTR _aLogItem$41[ebp+194]
  014aa	50		 push	 eax
  014ab	8d 8d a8 1e ff
	ff		 lea	 ecx, DWORD PTR _arRead$[ebp]
  014b1	e8 00 00 00 00	 call	 ??$?5E@CAr@@QAEAAV0@AAE@Z ; CAr::operator>><unsigned char>

; 271  : 				arRead >> aLogItem.nPetAL_A;

  014b6	8d 85 a3 1e ff
	ff		 lea	 eax, DWORD PTR _aLogItem$41[ebp+195]
  014bc	50		 push	 eax
  014bd	8d 8d a8 1e ff
	ff		 lea	 ecx, DWORD PTR _arRead$[ebp]
  014c3	e8 00 00 00 00	 call	 ??$?5E@CAr@@QAEAAV0@AAE@Z ; CAr::operator>><unsigned char>

; 272  : 				arRead >> aLogItem.nPetAL_S;

  014c8	8d 85 a4 1e ff
	ff		 lea	 eax, DWORD PTR _aLogItem$41[ebp+196]
  014ce	50		 push	 eax
  014cf	8d 8d a8 1e ff
	ff		 lea	 ecx, DWORD PTR _arRead$[ebp]
  014d5	e8 00 00 00 00	 call	 ??$?5E@CAr@@QAEAAV0@AAE@Z ; CAr::operator>><unsigned char>

; 273  : #endif // __PET_0410
; 274  : 
; 275  : 				DBQryNewItemLog( szQuery, aLogItem );

  014da	8b 8d d0 1d ff
	ff		 mov	 ecx, DWORD PTR _this$GSCopy$1$[ebp]
  014e0	8d 85 e0 1d ff
	ff		 lea	 eax, DWORD PTR _aLogItem$41[ebp]
  014e6	50		 push	 eax
  014e7	8d 85 bc 5e ff
	ff		 lea	 eax, DWORD PTR _szQuery$[ebp]
  014ed	50		 push	 eax
  014ee	e8 00 00 00 00	 call	 ?DBQryNewItemLog@CDbManager@@QAEXPADABU_LogItemInfo@@@Z ; CDbManager::DBQryNewItemLog

; 276  : 
; 277  : 				if ( FALSE == qry->Exec( szQuery ) )

  014f3	8b 8d c4 1d ff
	ff		 mov	 ecx, DWORD PTR _qry$GSCopy$1$[ebp]
  014f9	8d 85 bc 5e ff
	ff		 lea	 eax, DWORD PTR _szQuery$[ebp]
  014ff	50		 push	 eax
  01500	e8 00 00 00 00	 call	 ?Exec@CQuery@@QAEHPBD@Z	; CQuery::Exec
  01505	85 c0		 test	 eax, eax
  01507	0f 84 74 01 00
	00		 je	 $LN373@LogItem

; 280  : 					FreeRequest( lpDbOverlappedPlus );
; 281  : 					return;
; 282  : 				}
; 283  : 				// 2. tblTradeItemLog. Ć®·ąŔĚµĺ ´ë»ó ľĆŔĚĹŰ Á¤ş¸ŔÔ´Ď´Ů. (ItemIndex, SerialNo żÜ)
; 284  : #if __VER >= 11 // __SYS_IDENTIFY
; 285  : 				call_uspLoggingTrade( qry, 2, nTradeID, 0, idPlayer1, 0, "", 0, 0, dwItemId, iSerialNumber, nItemNum, nAbilityOption, nItemResist, nResistAbilityOption, aLogItem.m_iRandomOptItemId );

  0150d	ff b5 4c 1e ff
	ff		 push	 DWORD PTR _aLogItem$41[ebp+108]
  01513	0f bf 85 b4 1d
	ff ff		 movsx	 eax, WORD PTR _nItemNum$23[ebp]
  0151a	ff b5 48 1e ff
	ff		 push	 DWORD PTR _aLogItem$41[ebp+104]
  01520	8b 8d d0 1d ff
	ff		 mov	 ecx, DWORD PTR _this$GSCopy$1$[ebp]
  01526	ff b5 c0 1d ff
	ff		 push	 DWORD PTR _nResistAbilityOption$33[ebp]
  0152c	ff b5 bc 1d ff
	ff		 push	 DWORD PTR _nItemResist$30[ebp]
  01532	ff b5 b8 1d ff
	ff		 push	 DWORD PTR _nAbilityOption$26[ebp]
  01538	50		 push	 eax
  01539	ff b5 a4 1d ff
	ff		 push	 DWORD PTR _iSerialNumber$18[ebp]
  0153f	ff b5 7c 1d ff
	ff		 push	 DWORD PTR _dwItemId$6[ebp]
  01545	6a 00		 push	 0
  01547	6a 00		 push	 0
  01549	68 00 00 00 00	 push	 OFFSET ??_C@_00CNPNBAHC@@
  0154e	6a 00		 push	 0
  01550	ff b5 6c 1d ff
	ff		 push	 DWORD PTR _idPlayer1$2[ebp]
  01556	6a 00		 push	 0
  01558	ff b5 a8 1d ff
	ff		 push	 DWORD PTR _nTradeID$1$[ebp]
  0155e	6a 02		 push	 2
  01560	ff b5 c4 1d ff
	ff		 push	 DWORD PTR _qry$GSCopy$1$[ebp]
  01566	e8 00 00 00 00	 call	 ?call_uspLoggingTrade@CDbManager@@QAEHPAVCQuery@@HHKKKPBDHHHKHHHH_J@Z ; CDbManager::call_uspLoggingTrade

; 286  : #else	// __SYS_IDENTIFY
; 287  : 				call_uspLoggingTrade( qry, 2, nTradeID, 0, idPlayer1, 0, "", 0, 0, dwItemId, iSerialNumber, nItemNum, nAbilityOption, nItemResist, nResistAbilityOption, aLogItem.m_nRandomOptItemId );
; 288  : #endif	// __SYS_IDENTIFY
; 289  : 			}

  0156b	c6 45 fc 04	 mov	 BYTE PTR __$EHRec$[ebp+8], 4
; File C:\Program Files\Microsoft Visual Studio\2022\Professional\VC\Tools\MSVC\14.44.35207\atlmfc\include\atlsimpstr.h

; 804  : 		return( reinterpret_cast< CStringData* >( m_pszData )-1 );

  0156f	83 c6 f0	 add	 esi, -16		; fffffff0H

; 92   : 		if( _InterlockedDecrement( &nRefs ) <= 0 )

  01572	83 c8 ff	 or	 eax, -1
  01575	f0 0f c1 46 0c	 lock	  xadd	 DWORD PTR [esi+12], eax
  0157a	48		 dec	 eax
  0157b	85 c0		 test	 eax, eax
  0157d	7f 08		 jg	 SHORT $LN13@LogItem

; 93   : 		{
; 94   : 			pStringMgr->Free( this );

  0157f	8b 0e		 mov	 ecx, DWORD PTR [esi]
  01581	56		 push	 esi
  01582	8b 01		 mov	 eax, DWORD PTR [ecx]
  01584	ff 50 04	 call	 DWORD PTR [eax+4]
$LN13@LogItem:
; File C:\IAGOS\server\v18\Source\Source\_Database\DbManagerLog.cpp

; 192  : 			for( int i = 0; i < uSize2; i++ )

  01587	8b b5 ac 1d ff
	ff		 mov	 esi, DWORD PTR _i$1$[ebp]
  0158d	46		 inc	 esi
  0158e	89 b5 ac 1d ff
	ff		 mov	 DWORD PTR _i$1$[ebp], esi
  01594	3b b5 88 1d ff
	ff		 cmp	 esi, DWORD PTR _uSize2$9[ebp]
  0159a	0f 82 d0 f9 ff
	ff		 jb	 $LL15@LogItem
$LN14@LogItem:

; 290  : 			if( iSeed1 > 0 )

  015a0	8b b5 74 1d ff
	ff		 mov	 esi, DWORD PTR _iSeed1$[ebp]
  015a6	85 f6		 test	 esi, esi
  015a8	0f 8e e5 00 00
	00		 jle	 $LN420@LogItem

; 291  : 			{
; 292  : 				LogItemInfo aLogItem;

  015ae	8d 8d e0 1d ff
	ff		 lea	 ecx, DWORD PTR _aLogItem$40[ebp]
  015b4	e8 00 00 00 00	 call	 ??0_LogItemInfo@@QAE@XZ	; _LogItemInfo::_LogItemInfo

; 293  : 				::memset( &(aLogItem), 0, sizeof( &(aLogItem) ) );
; 294  : 				aLogItem.SendName = lpszPlayer1;
; 295  : 				aLogItem.RecvName = lpszPlayer2;
; 296  : 				aLogItem.WorldId = dwWorldID;
; 297  : 				aLogItem.Gold = iReMainder1 + iSeed1;

  015b9	8b 8d 9c 1d ff
	ff		 mov	 ecx, DWORD PTR _iReMainder1$[ebp]
  015bf	8d 45 a8	 lea	 eax, DWORD PTR _lpszPlayer1$[ebp]
  015c2	89 85 e4 1d ff
	ff		 mov	 DWORD PTR _aLogItem$40[ebp+4], eax
  015c8	8d 45 84	 lea	 eax, DWORD PTR _lpszPlayer2$[ebp]
  015cb	89 85 e8 1d ff
	ff		 mov	 DWORD PTR _aLogItem$40[ebp+8], eax
  015d1	8b 85 94 1d ff
	ff		 mov	 eax, DWORD PTR _dwWorldID$[ebp]
  015d7	89 85 ec 1d ff
	ff		 mov	 DWORD PTR _aLogItem$40[ebp+12], eax
  015dd	8d 04 31	 lea	 eax, DWORD PTR [ecx+esi]

; 298  : 				aLogItem.Gold2 = iReMainder1;
; 299  : 				//aLogItem.ItemName = "SEED";
; 300  : 				_stprintf( aLogItem.szItemName, "%d", II_GOLD_SEED1 );

  015e0	6a 0c		 push	 12			; 0000000cH
  015e2	89 85 f0 1d ff
	ff		 mov	 DWORD PTR _aLogItem$40[ebp+16], eax
  015e8	8d 85 04 1e ff
	ff		 lea	 eax, DWORD PTR _aLogItem$40[ebp+36]
  015ee	68 00 00 00 00	 push	 OFFSET ??_C@_02DPKJAMEF@?$CFd@
  015f3	50		 push	 eax
  015f4	c7 85 e0 1d ff
	ff 00 00 00 00	 mov	 DWORD PTR _aLogItem$40[ebp], 0
  015fe	89 8d f4 1d ff
	ff		 mov	 DWORD PTR _aLogItem$40[ebp+20], ecx
  01604	e8 00 00 00 00	 call	 _sprintf

; 301  : 				aLogItem.itemNumber = iSeed1;
; 302  : 				aLogItem.Gold_1 = iReMainder2;

  01609	8b 85 98 1d ff
	ff		 mov	 eax, DWORD PTR _iReMainder2$[ebp]
  0160f	83 c4 0c	 add	 esp, 12			; 0000000cH
  01612	89 85 2c 1e ff
	ff		 mov	 DWORD PTR _aLogItem$40[ebp+76], eax

; 303  : 				aLogItem.Action = chAction;

  01618	8d 85 d4 1d ff
	ff		 lea	 eax, DWORD PTR _chAction$[ebp]
  0161e	89 85 e0 1d ff
	ff		 mov	 DWORD PTR _aLogItem$40[ebp], eax

; 304  : 				DBQryNewItemLog( szQuery, aLogItem );

  01624	8d 85 e0 1d ff
	ff		 lea	 eax, DWORD PTR _aLogItem$40[ebp]
  0162a	89 b5 24 1e ff
	ff		 mov	 DWORD PTR _aLogItem$40[ebp+68], esi
  01630	8b b5 d0 1d ff
	ff		 mov	 esi, DWORD PTR _this$GSCopy$1$[ebp]
  01636	8b ce		 mov	 ecx, esi
  01638	50		 push	 eax
  01639	8d 85 bc 5e ff
	ff		 lea	 eax, DWORD PTR _szQuery$[ebp]
  0163f	50		 push	 eax
  01640	e8 00 00 00 00	 call	 ?DBQryNewItemLog@CDbManager@@QAEXPADABU_LogItemInfo@@@Z ; CDbManager::DBQryNewItemLog

; 305  : 
; 306  : 				if ( FALSE == qry->Exec( szQuery ) )

  01645	8b 8d c4 1d ff
	ff		 mov	 ecx, DWORD PTR _qry$GSCopy$1$[ebp]
  0164b	8d 85 bc 5e ff
	ff		 lea	 eax, DWORD PTR _szQuery$[ebp]
  01651	50		 push	 eax
  01652	e8 00 00 00 00	 call	 ?Exec@CQuery@@QAEHPBD@Z	; CQuery::Exec
  01657	85 c0		 test	 eax, eax
  01659	75 3e		 jne	 SHORT $LN32@LogItem

; 307  : 				{
; 308  : 					WriteLog( "%s, %d\t%s, %s", __FILE__, __LINE__, lpszPlayer1, lpszPlayer2 );

  0165b	8d 45 84	 lea	 eax, DWORD PTR _lpszPlayer2$[ebp]
  0165e	50		 push	 eax
  0165f	8d 45 a8	 lea	 eax, DWORD PTR _lpszPlayer1$[ebp]
  01662	50		 push	 eax
  01663	68 34 01 00 00	 push	 308			; 00000134H
  01668	68 00 00 00 00	 push	 OFFSET ??_C@_0DN@OEMKJAPO@C?3?2IAGOS?2server?2v18?2Source?2Sour@
  0166d	68 00 00 00 00	 push	 OFFSET ??_C@_0O@MCAKDACP@?$CFs?0?5?$CFd?7?$CFs?0?5?$CFs@
  01672	e8 00 00 00 00	 call	 ?WriteLog@@YAXPBDZZ	; WriteLog
  01677	83 c4 14	 add	 esp, 20			; 00000014H

; 309  : 					FreeRequest( lpDbOverlappedPlus );

  0167a	8b ce		 mov	 ecx, esi
  0167c	e9 76 f0 ff ff	 jmp	 $LN423@LogItem
$LN373@LogItem:

; 278  : 				{
; 279  : 					WriteLog( "%s, %d\t%s, %s", __FILE__, __LINE__, lpszPlayer1, lpszPlayer2 );

  01681	8d 45 84	 lea	 eax, DWORD PTR _lpszPlayer2$[ebp]
  01684	50		 push	 eax
  01685	8d 45 a8	 lea	 eax, DWORD PTR _lpszPlayer1$[ebp]
  01688	50		 push	 eax
  01689	68 17 01 00 00	 push	 279			; 00000117H
  0168e	e9 b5 f9 ff ff	 jmp	 $LN424@LogItem
$LN420@LogItem:

; 290  : 			if( iSeed1 > 0 )

  01693	8b b5 d0 1d ff
	ff		 mov	 esi, DWORD PTR _this$GSCopy$1$[ebp]
$LN32@LogItem:

; 310  : 					return;
; 311  : 				}
; 312  : 			}
; 313  : 			if( iSeed2 > 0 )

  01699	83 bd 90 1d ff
	ff 00		 cmp	 DWORD PTR _iSeed2$[ebp], 0
  016a0	0f 8e 4b f0 ff
	ff		 jle	 $LN34@LogItem

; 314  : 			{
; 315  : 				LogItemInfo aLogItem;

  016a6	8d 8d e0 1d ff
	ff		 lea	 ecx, DWORD PTR _aLogItem$42[ebp]
  016ac	e8 00 00 00 00	 call	 ??0_LogItemInfo@@QAE@XZ	; _LogItemInfo::_LogItemInfo

; 316  : 				::memset( &(aLogItem), 0, sizeof( &(aLogItem) ) );
; 317  : 				aLogItem.SendName = lpszPlayer2;
; 318  : 				aLogItem.RecvName = lpszPlayer1;
; 319  : 				aLogItem.WorldId = dwWorldID;
; 320  : 				aLogItem.Gold = iReMainder2 + iSeed2;

  016b1	8b 8d 98 1d ff
	ff		 mov	 ecx, DWORD PTR _iReMainder2$[ebp]
  016b7	8d 45 84	 lea	 eax, DWORD PTR _lpszPlayer2$[ebp]
  016ba	89 85 e4 1d ff
	ff		 mov	 DWORD PTR _aLogItem$42[ebp+4], eax
  016c0	8d 45 a8	 lea	 eax, DWORD PTR _lpszPlayer1$[ebp]
  016c3	89 85 e8 1d ff
	ff		 mov	 DWORD PTR _aLogItem$42[ebp+8], eax
  016c9	8b 85 94 1d ff
	ff		 mov	 eax, DWORD PTR _dwWorldID$[ebp]
  016cf	89 85 ec 1d ff
	ff		 mov	 DWORD PTR _aLogItem$42[ebp+12], eax
  016d5	8b 85 90 1d ff
	ff		 mov	 eax, DWORD PTR _iSeed2$[ebp]
  016db	03 c1		 add	 eax, ecx
  016dd	c7 85 e0 1d ff
	ff 00 00 00 00	 mov	 DWORD PTR _aLogItem$42[ebp], 0

; 321  : 				aLogItem.Gold2 = iReMainder2;
; 322  : 				//aLogItem.ItemName = "SEED";
; 323  : 				_stprintf( aLogItem.szItemName, "%d", II_GOLD_SEED1 );

  016e7	6a 0c		 push	 12			; 0000000cH
  016e9	89 85 f0 1d ff
	ff		 mov	 DWORD PTR _aLogItem$42[ebp+16], eax
  016ef	8d 85 04 1e ff
	ff		 lea	 eax, DWORD PTR _aLogItem$42[ebp+36]
  016f5	68 00 00 00 00	 push	 OFFSET ??_C@_02DPKJAMEF@?$CFd@
  016fa	50		 push	 eax
  016fb	89 8d f4 1d ff
	ff		 mov	 DWORD PTR _aLogItem$42[ebp+20], ecx
  01701	e8 00 00 00 00	 call	 _sprintf

; 324  : 				aLogItem.itemNumber = iSeed2;

  01706	8b 85 90 1d ff
	ff		 mov	 eax, DWORD PTR _iSeed2$[ebp]
  0170c	83 c4 0c	 add	 esp, 12			; 0000000cH
  0170f	89 85 24 1e ff
	ff		 mov	 DWORD PTR _aLogItem$42[ebp+68], eax

; 325  : 				aLogItem.Gold_1 = iReMainder1;
; 326  : 				aLogItem.Action = chAction;
; 327  : 				DBQryNewItemLog( szQuery, aLogItem );

  01715	8b ce		 mov	 ecx, esi
  01717	8b 85 9c 1d ff
	ff		 mov	 eax, DWORD PTR _iReMainder1$[ebp]
  0171d	89 85 2c 1e ff
	ff		 mov	 DWORD PTR _aLogItem$42[ebp+76], eax
  01723	8d 85 d4 1d ff
	ff		 lea	 eax, DWORD PTR _chAction$[ebp]
  01729	89 85 e0 1d ff
	ff		 mov	 DWORD PTR _aLogItem$42[ebp], eax
  0172f	8d 85 e0 1d ff
	ff		 lea	 eax, DWORD PTR _aLogItem$42[ebp]
  01735	50		 push	 eax
  01736	8d 85 bc 5e ff
	ff		 lea	 eax, DWORD PTR _szQuery$[ebp]
  0173c	50		 push	 eax
  0173d	e8 00 00 00 00	 call	 ?DBQryNewItemLog@CDbManager@@QAEXPADABU_LogItemInfo@@@Z ; CDbManager::DBQryNewItemLog

; 328  : 
; 329  : 				if ( FALSE == qry->Exec( szQuery ) )

  01742	8b 8d c4 1d ff
	ff		 mov	 ecx, DWORD PTR _qry$GSCopy$1$[ebp]
  01748	8d 85 bc 5e ff
	ff		 lea	 eax, DWORD PTR _szQuery$[ebp]
  0174e	50		 push	 eax
  0174f	e8 00 00 00 00	 call	 ?Exec@CQuery@@QAEHPBD@Z	; CQuery::Exec
  01754	85 c0		 test	 eax, eax
  01756	0f 85 95 ef ff
	ff		 jne	 $LN34@LogItem

; 330  : 				{
; 331  : 					WriteLog( "%s, %d\t%s, %s", __FILE__, __LINE__, lpszPlayer1, lpszPlayer2 );

  0175c	8d 45 84	 lea	 eax, DWORD PTR _lpszPlayer2$[ebp]
  0175f	50		 push	 eax
  01760	8d 45 a8	 lea	 eax, DWORD PTR _lpszPlayer1$[ebp]
  01763	50		 push	 eax
  01764	68 4b 01 00 00	 push	 331			; 0000014bH
  01769	68 00 00 00 00	 push	 OFFSET ??_C@_0DN@OEMKJAPO@C?3?2IAGOS?2server?2v18?2Source?2Sour@
  0176e	68 00 00 00 00	 push	 OFFSET ??_C@_0O@MCAKDACP@?$CFs?0?5?$CFd?7?$CFs?0?5?$CFs@
  01773	e8 00 00 00 00	 call	 ?WriteLog@@YAXPBDZZ	; WriteLog
  01778	83 c4 14	 add	 esp, 20			; 00000014H

; 332  : 					FreeRequest( lpDbOverlappedPlus );

  0177b	8b ce		 mov	 ecx, esi
  0177d	e9 75 ef ff ff	 jmp	 $LN423@LogItem
$LN367@LogItem:

; 441  : }

  01782	68 05 40 00 80	 push	 -2147467259		; 80004005H
  01787	e8 00 00 00 00	 call	 ?AtlThrowImpl@ATL@@YGXJ@Z ; ATL::AtlThrowImpl
$LN426@LogItem:
; File C:\Program Files\Microsoft Visual Studio\2022\Professional\VC\Tools\MSVC\14.44.35207\atlmfc\include\atlsimpstr.h

; 209  : 		ATLENSURE( pStringMgr != NULL );

  0178c	68 05 40 00 80	 push	 -2147467259		; 80004005H
  01791	e8 00 00 00 00	 call	 ?AtlThrowImpl@ATL@@YGXJ@Z ; ATL::AtlThrowImpl
$LN427@LogItem:
  01796	68 05 40 00 80	 push	 -2147467259		; 80004005H
  0179b	e8 00 00 00 00	 call	 ?AtlThrowImpl@ATL@@YGXJ@Z ; ATL::AtlThrowImpl
$LN368@LogItem:
; File C:\IAGOS\server\v18\Source\Source\_Database\DbManagerLog.cpp

; 441  : }

  017a0	68 57 00 07 80	 push	 -2147024809		; 80070057H
  017a5	e8 00 00 00 00	 call	 ?AtlThrowImpl@ATL@@YGXJ@Z ; ATL::AtlThrowImpl
$LN422@LogItem:
  017aa	cc		 int	 3
_TEXT	ENDS
;	COMDAT text$x
text$x	SEGMENT
__unwindfunclet$?LogItem@CDbManager@@AAEXPAVCQuery@@PAUtagDB_OVERLAPPED_PLUS@@@Z$0:
  00000	8d 8d a8 1e ff
	ff		 lea	 ecx, DWORD PTR _arRead$[ebp]
  00006	e9 00 00 00 00	 jmp	 ??1CAr@@QAE@XZ		; CAr::~CAr
__unwindfunclet$?LogItem@CDbManager@@AAEXPAVCQuery@@PAUtagDB_OVERLAPPED_PLUS@@@Z$8:
  0000b	8d 8d 84 1d ff
	ff		 lea	 ecx, DWORD PTR _strPlayer1$[ebp]
  00011	e9 00 00 00 00	 jmp	 ??1?$CSimpleStringT@D$0A@@ATL@@QAE@XZ ; ATL::CSimpleStringT<char,0>::~CSimpleStringT<char,0>
__unwindfunclet$?LogItem@CDbManager@@AAEXPAVCQuery@@PAUtagDB_OVERLAPPED_PLUS@@@Z$1:
  00016	8d 8d 84 1d ff
	ff		 lea	 ecx, DWORD PTR _strPlayer1$[ebp]
  0001c	e9 00 00 00 00	 jmp	 ??1?$CStringT@DV?$StrTraitMFC@DV?$ChTraitsCRT@D@ATL@@@@@ATL@@QAE@XZ ; ATL::CStringT<char,StrTraitMFC<char,ATL::ChTraitsCRT<char> > >::~CStringT<char,StrTraitMFC<char,ATL::ChTraitsCRT<char> > >
__unwindfunclet$?LogItem@CDbManager@@AAEXPAVCQuery@@PAUtagDB_OVERLAPPED_PLUS@@@Z$9:
  00021	8d 8d c8 1d ff
	ff		 lea	 ecx, DWORD PTR _strPlayer2$[ebp]
  00027	e9 00 00 00 00	 jmp	 ??1?$CSimpleStringT@D$0A@@ATL@@QAE@XZ ; ATL::CSimpleStringT<char,0>::~CSimpleStringT<char,0>
__unwindfunclet$?LogItem@CDbManager@@AAEXPAVCQuery@@PAUtagDB_OVERLAPPED_PLUS@@@Z$2:
  0002c	8d 8d c8 1d ff
	ff		 lea	 ecx, DWORD PTR _strPlayer2$[ebp]
  00032	e9 00 00 00 00	 jmp	 ??1?$CStringT@DV?$StrTraitMFC@DV?$ChTraitsCRT@D@ATL@@@@@ATL@@QAE@XZ ; ATL::CStringT<char,StrTraitMFC<char,ATL::ChTraitsCRT<char> > >::~CStringT<char,StrTraitMFC<char,ATL::ChTraitsCRT<char> > >
__unwindfunclet$?LogItem@CDbManager@@AAEXPAVCQuery@@PAUtagDB_OVERLAPPED_PLUS@@@Z$10:
  00037	8d 8d d8 1d ff
	ff		 lea	 ecx, DWORD PTR _strItem$37[ebp]
  0003d	e9 00 00 00 00	 jmp	 ??1?$CSimpleStringT@D$0A@@ATL@@QAE@XZ ; ATL::CSimpleStringT<char,0>::~CSimpleStringT<char,0>
__unwindfunclet$?LogItem@CDbManager@@AAEXPAVCQuery@@PAUtagDB_OVERLAPPED_PLUS@@@Z$5:
  00042	8d 8d d8 1d ff
	ff		 lea	 ecx, DWORD PTR _strItem$37[ebp]
  00048	e9 00 00 00 00	 jmp	 ??1?$CStringT@DV?$StrTraitMFC@DV?$ChTraitsCRT@D@ATL@@@@@ATL@@QAE@XZ ; ATL::CStringT<char,StrTraitMFC<char,ATL::ChTraitsCRT<char> > >::~CStringT<char,StrTraitMFC<char,ATL::ChTraitsCRT<char> > >
__unwindfunclet$?LogItem@CDbManager@@AAEXPAVCQuery@@PAUtagDB_OVERLAPPED_PLUS@@@Z$7:
  0004d	8d 8d d8 1d ff
	ff		 lea	 ecx, DWORD PTR _strItem$38[ebp]
  00053	e9 00 00 00 00	 jmp	 ??1?$CSimpleStringT@D$0A@@ATL@@QAE@XZ ; ATL::CSimpleStringT<char,0>::~CSimpleStringT<char,0>
__unwindfunclet$?LogItem@CDbManager@@AAEXPAVCQuery@@PAUtagDB_OVERLAPPED_PLUS@@@Z$3:
  00058	8d 8d d8 1d ff
	ff		 lea	 ecx, DWORD PTR _strItem$38[ebp]
  0005e	e9 00 00 00 00	 jmp	 ??1?$CStringT@DV?$StrTraitMFC@DV?$ChTraitsCRT@D@ATL@@@@@ATL@@QAE@XZ ; ATL::CStringT<char,StrTraitMFC<char,ATL::ChTraitsCRT<char> > >::~CStringT<char,StrTraitMFC<char,ATL::ChTraitsCRT<char> > >
__unwindfunclet$?LogItem@CDbManager@@AAEXPAVCQuery@@PAUtagDB_OVERLAPPED_PLUS@@@Z$6:
  00063	8d 8d d8 1d ff
	ff		 lea	 ecx, DWORD PTR _strItem$36[ebp]
  00069	e9 00 00 00 00	 jmp	 ??1?$CSimpleStringT@D$0A@@ATL@@QAE@XZ ; ATL::CSimpleStringT<char,0>::~CSimpleStringT<char,0>
__unwindfunclet$?LogItem@CDbManager@@AAEXPAVCQuery@@PAUtagDB_OVERLAPPED_PLUS@@@Z$4:
  0006e	8d 8d d8 1d ff
	ff		 lea	 ecx, DWORD PTR _strItem$36[ebp]
  00074	e9 00 00 00 00	 jmp	 ??1?$CStringT@DV?$StrTraitMFC@DV?$ChTraitsCRT@D@ATL@@@@@ATL@@QAE@XZ ; ATL::CStringT<char,StrTraitMFC<char,ATL::ChTraitsCRT<char> > >::~CStringT<char,StrTraitMFC<char,ATL::ChTraitsCRT<char> > >
  00079	cc		 int	 3
  0007a	cc		 int	 3
  0007b	cc		 int	 3
  0007c	cc		 int	 3
  0007d	cc		 int	 3
__ehhandler$?LogItem@CDbManager@@AAEXPAVCQuery@@PAUtagDB_OVERLAPPED_PLUS@@@Z:
  0007e	90		 npad	 1
  0007f	90		 npad	 1
  00080	8b 54 24 08	 mov	 edx, DWORD PTR [esp+8]
  00084	8d 42 0c	 lea	 eax, DWORD PTR [edx+12]
  00087	8b 8a 6c 1d ff
	ff		 mov	 ecx, DWORD PTR [edx-58004]
  0008d	33 c8		 xor	 ecx, eax
  0008f	e8 00 00 00 00	 call	 @__security_check_cookie@4
  00094	8b 4a fc	 mov	 ecx, DWORD PTR [edx-4]
  00097	33 c8		 xor	 ecx, eax
  00099	e8 00 00 00 00	 call	 @__security_check_cookie@4
  0009e	b8 00 00 00 00	 mov	 eax, OFFSET __ehfuncinfo$?LogItem@CDbManager@@AAEXPAVCQuery@@PAUtagDB_OVERLAPPED_PLUS@@@Z
  000a3	e9 00 00 00 00	 jmp	 ___CxxFrameHandler3
text$x	ENDS
?LogItem@CDbManager@@AAEXPAVCQuery@@PAUtagDB_OVERLAPPED_PLUS@@@Z ENDP ; CDbManager::LogItem
; Function compile flags: /Ogtp
; File C:\IAGOS\server\v18\Source\Source\_Database\DbManagerLog.cpp
;	COMDAT ?LogSkillPoint@CDbManager@@AAEXPAVCQuery@@PAUtagDB_OVERLAPPED_PLUS@@@Z
_TEXT	SEGMENT
_nAction$ = -57408					; size = 4
_uidPlayer$ = -57404					; size = 4
_dwSkillID$ = -57400					; size = 4
_dwLevel$ = -57396					; size = 4
_nPoint$ = -57392					; size = 4
_nSkillPoint$ = -57388					; size = 4
_nSkillLevel$ = -57384					; size = 4
_arRead$ = -57380					; size = 16404
_szQuery$ = -40976					; size = 40960
__$ArrayPad$ = -16					; size = 4
__$EHRec$ = -12						; size = 12
_pQuery$ = 8						; size = 4
_lpDbOverlappedPlus$ = 12				; size = 4
?LogSkillPoint@CDbManager@@AAEXPAVCQuery@@PAUtagDB_OVERLAPPED_PLUS@@@Z PROC ; CDbManager::LogSkillPoint, COMDAT
; _this$ = ecx

; 969  : {

  00000	55		 push	 ebp
  00001	8b ec		 mov	 ebp, esp
  00003	6a ff		 push	 -1
  00005	68 00 00 00 00	 push	 __ehhandler$?LogSkillPoint@CDbManager@@AAEXPAVCQuery@@PAUtagDB_OVERLAPPED_PLUS@@@Z
  0000a	64 a1 00 00 00
	00		 mov	 eax, DWORD PTR fs:0
  00010	50		 push	 eax
  00011	b8 34 e0 00 00	 mov	 eax, 57396		; 0000e034H
  00016	e8 00 00 00 00	 call	 __chkstk
  0001b	a1 00 00 00 00	 mov	 eax, DWORD PTR ___security_cookie
  00020	33 c5		 xor	 eax, ebp
  00022	89 45 f0	 mov	 DWORD PTR __$ArrayPad$[ebp], eax
  00025	53		 push	 ebx
  00026	56		 push	 esi
  00027	57		 push	 edi
  00028	50		 push	 eax
  00029	8d 45 f4	 lea	 eax, DWORD PTR __$EHRec$[ebp]
  0002c	64 a3 00 00 00
	00		 mov	 DWORD PTR fs:0, eax
  00032	8b d9		 mov	 ebx, ecx
  00034	8b 7d 0c	 mov	 edi, DWORD PTR _lpDbOverlappedPlus$[ebp]

; 970  : 	CAr arRead( lpDbOverlappedPlus->lpBuf, lpDbOverlappedPlus->uBufSize );

  00037	8d 8d dc 1f ff
	ff		 lea	 ecx, DWORD PTR _arRead$[ebp]
  0003d	8b 75 08	 mov	 esi, DWORD PTR _pQuery$[ebp]
  00040	ff 77 1c	 push	 DWORD PTR [edi+28]
  00043	ff 77 18	 push	 DWORD PTR [edi+24]
  00046	e8 00 00 00 00	 call	 ??0CAr@@QAE@PAXI@Z	; CAr::CAr

; 971  : 	
; 972  : 	u_long			uidPlayer;						// ÇĂ·ąŔĚľî ľĆŔĚµđ
; 973  : 	int				nAction;						// Çŕµż
; 974  : 	EXPINTEGER		nSkillExp = 0;						// ˝şĹł°ćÇčÄˇ
; 975  : 	int				nSkillPoint;					// SP
; 976  : 	int				nSkillLevel = 0;					// Áö±Ý±îÁö żĂ¸° ˝şĹł·ąş§
; 977  : 	DWORD			dwSkillID;						// ˝şĹł ľĆŔĚµđ
; 978  : 	DWORD			dwLevel;						// Ŕ§˝şĹłżˇ ´ëÇŃ ·ąş§
; 979  : 	int				nPoint;							// »çżëÇŃ ˝şĹł Ć÷ŔÎĆ®
; 980  : 	
; 981  : 	arRead >> nAction;

  0004b	8d 85 c0 1f ff
	ff		 lea	 eax, DWORD PTR _nAction$[ebp]
  00051	c7 45 fc 00 00
	00 00		 mov	 DWORD PTR __$EHRec$[ebp+8], 0
  00058	50		 push	 eax
  00059	8d 8d dc 1f ff
	ff		 lea	 ecx, DWORD PTR _arRead$[ebp]
  0005f	c7 85 d8 1f ff
	ff 00 00 00 00	 mov	 DWORD PTR _nSkillLevel$[ebp], 0
  00069	e8 00 00 00 00	 call	 ??$?5H@CAr@@QAEAAV0@AAH@Z ; CAr::operator>><int>

; 982  : 	arRead >> uidPlayer;

  0006e	8d 85 c4 1f ff
	ff		 lea	 eax, DWORD PTR _uidPlayer$[ebp]
  00074	50		 push	 eax
  00075	8d 8d dc 1f ff
	ff		 lea	 ecx, DWORD PTR _arRead$[ebp]
  0007b	e8 00 00 00 00	 call	 ??$?5K@CAr@@QAEAAV0@AAK@Z ; CAr::operator>><unsigned long>

; 983  : 	arRead >> nSkillLevel;

  00080	8d 85 d8 1f ff
	ff		 lea	 eax, DWORD PTR _nSkillLevel$[ebp]
  00086	50		 push	 eax
  00087	8d 8d dc 1f ff
	ff		 lea	 ecx, DWORD PTR _arRead$[ebp]
  0008d	e8 00 00 00 00	 call	 ??$?5H@CAr@@QAEAAV0@AAH@Z ; CAr::operator>><int>

; 984  : 	arRead >> nSkillPoint;

  00092	8d 85 d4 1f ff
	ff		 lea	 eax, DWORD PTR _nSkillPoint$[ebp]
  00098	50		 push	 eax
  00099	8d 8d dc 1f ff
	ff		 lea	 ecx, DWORD PTR _arRead$[ebp]
  0009f	e8 00 00 00 00	 call	 ??$?5H@CAr@@QAEAAV0@AAH@Z ; CAr::operator>><int>

; 985  : 	arRead >> dwSkillID;

  000a4	8d 85 c8 1f ff
	ff		 lea	 eax, DWORD PTR _dwSkillID$[ebp]
  000aa	50		 push	 eax
  000ab	8d 8d dc 1f ff
	ff		 lea	 ecx, DWORD PTR _arRead$[ebp]
  000b1	e8 00 00 00 00	 call	 ??$?5K@CAr@@QAEAAV0@AAK@Z ; CAr::operator>><unsigned long>

; 986  : 	arRead >> dwLevel;

  000b6	8d 85 cc 1f ff
	ff		 lea	 eax, DWORD PTR _dwLevel$[ebp]
  000bc	50		 push	 eax
  000bd	8d 8d dc 1f ff
	ff		 lea	 ecx, DWORD PTR _arRead$[ebp]
  000c3	e8 00 00 00 00	 call	 ??$?5K@CAr@@QAEAAV0@AAK@Z ; CAr::operator>><unsigned long>

; 987  : 	arRead >> nPoint;

  000c8	8d 85 d0 1f ff
	ff		 lea	 eax, DWORD PTR _nPoint$[ebp]
  000ce	50		 push	 eax
  000cf	8d 8d dc 1f ff
	ff		 lea	 ecx, DWORD PTR _arRead$[ebp]
  000d5	e8 00 00 00 00	 call	 ??$?5H@CAr@@QAEAAV0@AAH@Z ; CAr::operator>><int>

; 988  : 
; 989  : 	char szQuery[QUERY_SIZE]	= { 0,};

  000da	68 00 a0 00 00	 push	 40960			; 0000a000H
  000df	8d 85 f0 5f ff
	ff		 lea	 eax, DWORD PTR _szQuery$[ebp]
  000e5	6a 00		 push	 0
  000e7	50		 push	 eax
  000e8	e8 00 00 00 00	 call	 _memset

; 990  : 
; 991  : 	if( nAction == LOG_SKILLPOINT_GET_QUEST )

  000ed	8b 85 c0 1f ff
	ff		 mov	 eax, DWORD PTR _nAction$[ebp]
  000f3	83 c4 0c	 add	 esp, 12			; 0000000cH
  000f6	85 c0		 test	 eax, eax
  000f8	75 33		 jne	 SHORT $LN2@LogSkillPo

; 992  : 	{
; 993  : 		sprintf( szQuery, "uspLoggingAcquireSkillPoint '%02d','%07d',%d,%d,%d,%d,%d,%I64d,10", 

  000fa	50		 push	 eax
  000fb	50		 push	 eax
  000fc	ff b5 d8 1f ff
	ff		 push	 DWORD PTR _nSkillLevel$[ebp]
  00102	ff b5 d4 1f ff
	ff		 push	 DWORD PTR _nSkillPoint$[ebp]
  00108	ff b5 d0 1f ff
	ff		 push	 DWORD PTR _nPoint$[ebp]
  0010e	ff b5 cc 1f ff
	ff		 push	 DWORD PTR _dwLevel$[ebp]
  00114	ff b5 c8 1f ff
	ff		 push	 DWORD PTR _dwSkillID$[ebp]
  0011a	ff b5 c4 1f ff
	ff		 push	 DWORD PTR _uidPlayer$[ebp]
  00120	ff 35 00 00 00
	00		 push	 DWORD PTR ?g_appInfo@@3UAppInfo@@A
  00126	68 00 00 00 00	 push	 OFFSET ??_C@_0EC@CBOOBAOL@uspLoggingAcquireSkillPoint?5?8?$CF0@

; 994  : 			g_appInfo.dwSys, uidPlayer, dwSkillID, dwLevel, nPoint, nSkillPoint, nSkillLevel, nSkillExp );
; 995  : 	}

  0012b	eb 72		 jmp	 SHORT $LN12@LogSkillPo
$LN2@LogSkillPo:

; 996  : 	else if( nAction == LOG_SKILLPOINT_GET_HUNT )

  0012d	83 f8 01	 cmp	 eax, 1
  00130	75 35		 jne	 SHORT $LN4@LogSkillPo

; 997  : 	{
; 998  : 		sprintf( szQuery, "uspLoggingAcquireSkillPoint '%02d','%07d',%d,%d,%d,%d,%d,%I64d,11", 

  00132	6a 00		 push	 0
  00134	6a 00		 push	 0
  00136	ff b5 d8 1f ff
	ff		 push	 DWORD PTR _nSkillLevel$[ebp]
  0013c	ff b5 d4 1f ff
	ff		 push	 DWORD PTR _nSkillPoint$[ebp]
  00142	ff b5 d0 1f ff
	ff		 push	 DWORD PTR _nPoint$[ebp]
  00148	ff b5 cc 1f ff
	ff		 push	 DWORD PTR _dwLevel$[ebp]
  0014e	ff b5 c8 1f ff
	ff		 push	 DWORD PTR _dwSkillID$[ebp]
  00154	ff b5 c4 1f ff
	ff		 push	 DWORD PTR _uidPlayer$[ebp]
  0015a	ff 35 00 00 00
	00		 push	 DWORD PTR ?g_appInfo@@3UAppInfo@@A
  00160	68 00 00 00 00	 push	 OFFSET ??_C@_0EC@DIPFCBKK@uspLoggingAcquireSkillPoint?5?8?$CF0@

; 999  : 			g_appInfo.dwSys, uidPlayer, dwSkillID, dwLevel, nPoint, nSkillPoint, nSkillLevel, nSkillExp );
; 1000 : 	}

  00165	eb 38		 jmp	 SHORT $LN12@LogSkillPo
$LN4@LogSkillPo:

; 1001 : 	else if( nAction == LOG_SKILLPOINT_USE )

  00167	83 f8 10	 cmp	 eax, 16			; 00000010H
  0016a	75 42		 jne	 SHORT $LN6@LogSkillPo

; 1002 : 	{
; 1003 : 		sprintf( szQuery, "uspLoggingUsingSkillPoint '%02d','%07d',%d,%d,%d,%d,%d,%I64d,20", 

  0016c	6a 00		 push	 0
  0016e	6a 00		 push	 0
  00170	ff b5 d8 1f ff
	ff		 push	 DWORD PTR _nSkillLevel$[ebp]
  00176	ff b5 d4 1f ff
	ff		 push	 DWORD PTR _nSkillPoint$[ebp]
  0017c	ff b5 d0 1f ff
	ff		 push	 DWORD PTR _nPoint$[ebp]
  00182	ff b5 cc 1f ff
	ff		 push	 DWORD PTR _dwLevel$[ebp]
  00188	ff b5 c8 1f ff
	ff		 push	 DWORD PTR _dwSkillID$[ebp]
  0018e	ff b5 c4 1f ff
	ff		 push	 DWORD PTR _uidPlayer$[ebp]
  00194	ff 35 00 00 00
	00		 push	 DWORD PTR ?g_appInfo@@3UAppInfo@@A
  0019a	68 00 00 00 00	 push	 OFFSET ??_C@_0EA@PKCEFONH@uspLoggingUsingSkillPoint?5?8?$CF02d@
$LN12@LogSkillPo:

; 1004 : 			g_appInfo.dwSys, uidPlayer, dwSkillID, dwLevel, nPoint, nSkillPoint, nSkillLevel, nSkillExp );
; 1005 : 	}
; 1006 : 
; 1007 : 	if ( FALSE == pQuery->Exec( szQuery ) )

  0019f	8d 85 f0 5f ff
	ff		 lea	 eax, DWORD PTR _szQuery$[ebp]
  001a5	50		 push	 eax
  001a6	e8 00 00 00 00	 call	 _sprintf
  001ab	83 c4 2c	 add	 esp, 44			; 0000002cH
$LN6@LogSkillPo:
  001ae	8d 85 f0 5f ff
	ff		 lea	 eax, DWORD PTR _szQuery$[ebp]
  001b4	8b ce		 mov	 ecx, esi
  001b6	50		 push	 eax
  001b7	e8 00 00 00 00	 call	 ?Exec@CQuery@@QAEHPBD@Z	; CQuery::Exec
  001bc	85 c0		 test	 eax, eax
  001be	75 18		 jne	 SHORT $LN7@LogSkillPo

; 1008 : 	{
; 1009 : 		WriteLog( "%s, %d\t%s", __FILE__, __LINE__, pQuery );

  001c0	56		 push	 esi
  001c1	68 f1 03 00 00	 push	 1009			; 000003f1H
  001c6	68 00 00 00 00	 push	 OFFSET ??_C@_0DN@OEMKJAPO@C?3?2IAGOS?2server?2v18?2Source?2Sour@
  001cb	68 00 00 00 00	 push	 OFFSET ??_C@_09GBAEEKDE@?$CFs?0?5?$CFd?7?$CFs@
  001d0	e8 00 00 00 00	 call	 ?WriteLog@@YAXPBDZZ	; WriteLog
  001d5	83 c4 10	 add	 esp, 16			; 00000010H
$LN7@LogSkillPo:

; 1010 : 		FreeRequest( lpDbOverlappedPlus );
; 1011 : 		return;
; 1012 : 	}
; 1013 : 	FreeRequest( lpDbOverlappedPlus );
; 1014 : }

  001d8	57		 push	 edi
  001d9	8b cb		 mov	 ecx, ebx
  001db	e8 00 00 00 00	 call	 ?FreeRequest@CDbManager@@QAEXPAUtagDB_OVERLAPPED_PLUS@@@Z ; CDbManager::FreeRequest
  001e0	8d 8d dc 1f ff
	ff		 lea	 ecx, DWORD PTR _arRead$[ebp]
  001e6	e8 00 00 00 00	 call	 ??1CAr@@QAE@XZ		; CAr::~CAr
  001eb	8b 4d f4	 mov	 ecx, DWORD PTR __$EHRec$[ebp]
  001ee	64 89 0d 00 00
	00 00		 mov	 DWORD PTR fs:0, ecx
  001f5	59		 pop	 ecx
  001f6	5f		 pop	 edi
  001f7	5e		 pop	 esi
  001f8	5b		 pop	 ebx
  001f9	8b 4d f0	 mov	 ecx, DWORD PTR __$ArrayPad$[ebp]
  001fc	33 cd		 xor	 ecx, ebp
  001fe	e8 00 00 00 00	 call	 @__security_check_cookie@4
  00203	8b e5		 mov	 esp, ebp
  00205	5d		 pop	 ebp
  00206	c2 08 00	 ret	 8
_TEXT	ENDS
;	COMDAT text$x
text$x	SEGMENT
__unwindfunclet$?LogSkillPoint@CDbManager@@AAEXPAVCQuery@@PAUtagDB_OVERLAPPED_PLUS@@@Z$0:
  00000	8d 8d dc 1f ff
	ff		 lea	 ecx, DWORD PTR _arRead$[ebp]
  00006	e9 00 00 00 00	 jmp	 ??1CAr@@QAE@XZ		; CAr::~CAr
  0000b	cc		 int	 3
  0000c	cc		 int	 3
  0000d	cc		 int	 3
  0000e	cc		 int	 3
  0000f	cc		 int	 3
__ehhandler$?LogSkillPoint@CDbManager@@AAEXPAVCQuery@@PAUtagDB_OVERLAPPED_PLUS@@@Z:
  00010	90		 npad	 1
  00011	90		 npad	 1
  00012	8b 54 24 08	 mov	 edx, DWORD PTR [esp+8]
  00016	8d 42 0c	 lea	 eax, DWORD PTR [edx+12]
  00019	8b 8a bc 1f ff
	ff		 mov	 ecx, DWORD PTR [edx-57412]
  0001f	33 c8		 xor	 ecx, eax
  00021	e8 00 00 00 00	 call	 @__security_check_cookie@4
  00026	8b 4a fc	 mov	 ecx, DWORD PTR [edx-4]
  00029	33 c8		 xor	 ecx, eax
  0002b	e8 00 00 00 00	 call	 @__security_check_cookie@4
  00030	b8 00 00 00 00	 mov	 eax, OFFSET __ehfuncinfo$?LogSkillPoint@CDbManager@@AAEXPAVCQuery@@PAUtagDB_OVERLAPPED_PLUS@@@Z
  00035	e9 00 00 00 00	 jmp	 ___CxxFrameHandler3
text$x	ENDS
?LogSkillPoint@CDbManager@@AAEXPAVCQuery@@PAUtagDB_OVERLAPPED_PLUS@@@Z ENDP ; CDbManager::LogSkillPoint
; Function compile flags: /Ogtp
; File C:\IAGOS\server\v18\Source\Source\_Database\DbManagerLog.cpp
;	COMDAT ?LogSchool@CDbManager@@AAEXPAVCQuery@@PAUtagDB_OVERLAPPED_PLUS@@@Z
_TEXT	SEGMENT
_uidPlayer$ = -57512					; size = 4
_arRead$ = -57508					; size = 16404
_szQuery$ = -41104					; size = 40960
_szName$ = -144						; size = 128
__$ArrayPad$ = -16					; size = 4
__$EHRec$ = -12						; size = 12
_qry$ = 8						; size = 4
_lpDbOverlappedPlus$ = 12				; size = 4
?LogSchool@CDbManager@@AAEXPAVCQuery@@PAUtagDB_OVERLAPPED_PLUS@@@Z PROC ; CDbManager::LogSchool, COMDAT
; _this$ = ecx

; 943  : {

  00000	55		 push	 ebp
  00001	8b ec		 mov	 ebp, esp
  00003	6a ff		 push	 -1
  00005	68 00 00 00 00	 push	 __ehhandler$?LogSchool@CDbManager@@AAEXPAVCQuery@@PAUtagDB_OVERLAPPED_PLUS@@@Z
  0000a	64 a1 00 00 00
	00		 mov	 eax, DWORD PTR fs:0
  00010	50		 push	 eax
  00011	b8 9c e0 00 00	 mov	 eax, 57500		; 0000e09cH
  00016	e8 00 00 00 00	 call	 __chkstk
  0001b	a1 00 00 00 00	 mov	 eax, DWORD PTR ___security_cookie
  00020	33 c5		 xor	 eax, ebp
  00022	89 45 f0	 mov	 DWORD PTR __$ArrayPad$[ebp], eax
  00025	53		 push	 ebx
  00026	56		 push	 esi
  00027	57		 push	 edi
  00028	50		 push	 eax
  00029	8d 45 f4	 lea	 eax, DWORD PTR __$EHRec$[ebp]
  0002c	64 a3 00 00 00
	00		 mov	 DWORD PTR fs:0, eax
  00032	8b d9		 mov	 ebx, ecx
  00034	8b 75 0c	 mov	 esi, DWORD PTR _lpDbOverlappedPlus$[ebp]

; 944  : 	CAr arRead( lpDbOverlappedPlus->lpBuf, lpDbOverlappedPlus->uBufSize );

  00037	8d 8d 5c 1f ff
	ff		 lea	 ecx, DWORD PTR _arRead$[ebp]
  0003d	8b 7d 08	 mov	 edi, DWORD PTR _qry$[ebp]
  00040	ff 76 1c	 push	 DWORD PTR [esi+28]
  00043	ff 76 18	 push	 DWORD PTR [esi+24]
  00046	e8 00 00 00 00	 call	 ??0CAr@@QAE@PAXI@Z	; CAr::CAr

; 945  : 	
; 946  : 	u_long uidPlayer;
; 947  : 	char szName[128];
; 948  : 		
; 949  : 	arRead >> uidPlayer;

  0004b	8d 85 58 1f ff
	ff		 lea	 eax, DWORD PTR _uidPlayer$[ebp]
  00051	c7 45 fc 00 00
	00 00		 mov	 DWORD PTR __$EHRec$[ebp+8], 0
  00058	50		 push	 eax
  00059	8d 8d 5c 1f ff
	ff		 lea	 ecx, DWORD PTR _arRead$[ebp]
  0005f	e8 00 00 00 00	 call	 ??$?5K@CAr@@QAEAAV0@AAK@Z ; CAr::operator>><unsigned long>

; 950  : 	arRead.ReadString( szName, 128 );

  00064	68 80 00 00 00	 push	 128			; 00000080H
  00069	8d 85 70 ff ff
	ff		 lea	 eax, DWORD PTR _szName$[ebp]
  0006f	50		 push	 eax
  00070	8d 8d 5c 1f ff
	ff		 lea	 ecx, DWORD PTR _arRead$[ebp]
  00076	e8 00 00 00 00	 call	 ?ReadString@CAr@@QAEPADPADH@Z ; CAr::ReadString

; 951  : 	
; 952  : 	//LOG_EVENT_STR @im_idPlayer = '000001',@iserverindex = '00'
; 953  : 	char szQuery[QUERY_SIZE]	= { 0,};

  0007b	68 00 a0 00 00	 push	 40960			; 0000a000H
  00080	8d 85 70 5f ff
	ff		 lea	 eax, DWORD PTR _szQuery$[ebp]
  00086	6a 00		 push	 0
  00088	50		 push	 eax
  00089	e8 00 00 00 00	 call	 _memset

; 954  : 	sprintf( szQuery, "LOG_EVENT_STR @im_idPlayer = '%07d',@iserverindex = '%02d', @im_szName = '%s'", uidPlayer, g_appInfo.dwSys, szName );

  0008e	8d 85 70 ff ff
	ff		 lea	 eax, DWORD PTR _szName$[ebp]
  00094	50		 push	 eax
  00095	ff 35 00 00 00
	00		 push	 DWORD PTR ?g_appInfo@@3UAppInfo@@A
  0009b	8d 85 70 5f ff
	ff		 lea	 eax, DWORD PTR _szQuery$[ebp]
  000a1	ff b5 58 1f ff
	ff		 push	 DWORD PTR _uidPlayer$[ebp]
  000a7	68 00 00 00 00	 push	 OFFSET ??_C@_0EO@NODPKHNH@LOG_EVENT_STR?5?$EAim_idPlayer?5?$DN?5?8?$CF@
  000ac	50		 push	 eax
  000ad	e8 00 00 00 00	 call	 _sprintf
  000b2	83 c4 20	 add	 esp, 32			; 00000020H

; 955  : 
; 956  : 	if ( FALSE == qry->Exec( szQuery ) )

  000b5	8d 85 70 5f ff
	ff		 lea	 eax, DWORD PTR _szQuery$[ebp]
  000bb	8b cf		 mov	 ecx, edi
  000bd	50		 push	 eax
  000be	e8 00 00 00 00	 call	 ?Exec@CQuery@@QAEHPBD@Z	; CQuery::Exec
  000c3	85 c0		 test	 eax, eax
  000c5	75 18		 jne	 SHORT $LN2@LogSchool

; 957  : 	{
; 958  : 		WriteLog( "%s, %d\t%s", __FILE__, __LINE__, qry );

  000c7	57		 push	 edi
  000c8	68 be 03 00 00	 push	 958			; 000003beH
  000cd	68 00 00 00 00	 push	 OFFSET ??_C@_0DN@OEMKJAPO@C?3?2IAGOS?2server?2v18?2Source?2Sour@
  000d2	68 00 00 00 00	 push	 OFFSET ??_C@_09GBAEEKDE@?$CFs?0?5?$CFd?7?$CFs@
  000d7	e8 00 00 00 00	 call	 ?WriteLog@@YAXPBDZZ	; WriteLog
  000dc	83 c4 10	 add	 esp, 16			; 00000010H
$LN2@LogSchool:

; 959  : 		FreeRequest( lpDbOverlappedPlus );
; 960  : 		return;
; 961  : 	}
; 962  : 			
; 963  : //	qry->Clear();
; 964  : 		
; 965  : 	FreeRequest( lpDbOverlappedPlus );
; 966  : }

  000df	56		 push	 esi
  000e0	8b cb		 mov	 ecx, ebx
  000e2	e8 00 00 00 00	 call	 ?FreeRequest@CDbManager@@QAEXPAUtagDB_OVERLAPPED_PLUS@@@Z ; CDbManager::FreeRequest
  000e7	8d 8d 5c 1f ff
	ff		 lea	 ecx, DWORD PTR _arRead$[ebp]
  000ed	e8 00 00 00 00	 call	 ??1CAr@@QAE@XZ		; CAr::~CAr
  000f2	8b 4d f4	 mov	 ecx, DWORD PTR __$EHRec$[ebp]
  000f5	64 89 0d 00 00
	00 00		 mov	 DWORD PTR fs:0, ecx
  000fc	59		 pop	 ecx
  000fd	5f		 pop	 edi
  000fe	5e		 pop	 esi
  000ff	5b		 pop	 ebx
  00100	8b 4d f0	 mov	 ecx, DWORD PTR __$ArrayPad$[ebp]
  00103	33 cd		 xor	 ecx, ebp
  00105	e8 00 00 00 00	 call	 @__security_check_cookie@4
  0010a	8b e5		 mov	 esp, ebp
  0010c	5d		 pop	 ebp
  0010d	c2 08 00	 ret	 8
_TEXT	ENDS
;	COMDAT text$x
text$x	SEGMENT
__unwindfunclet$?LogSchool@CDbManager@@AAEXPAVCQuery@@PAUtagDB_OVERLAPPED_PLUS@@@Z$0:
  00000	8d 8d 5c 1f ff
	ff		 lea	 ecx, DWORD PTR _arRead$[ebp]
  00006	e9 00 00 00 00	 jmp	 ??1CAr@@QAE@XZ		; CAr::~CAr
  0000b	cc		 int	 3
  0000c	cc		 int	 3
  0000d	cc		 int	 3
  0000e	cc		 int	 3
  0000f	cc		 int	 3
__ehhandler$?LogSchool@CDbManager@@AAEXPAVCQuery@@PAUtagDB_OVERLAPPED_PLUS@@@Z:
  00010	90		 npad	 1
  00011	90		 npad	 1
  00012	8b 54 24 08	 mov	 edx, DWORD PTR [esp+8]
  00016	8d 42 0c	 lea	 eax, DWORD PTR [edx+12]
  00019	8b 8a 54 1f ff
	ff		 mov	 ecx, DWORD PTR [edx-57516]
  0001f	33 c8		 xor	 ecx, eax
  00021	e8 00 00 00 00	 call	 @__security_check_cookie@4
  00026	8b 4a fc	 mov	 ecx, DWORD PTR [edx-4]
  00029	33 c8		 xor	 ecx, eax
  0002b	e8 00 00 00 00	 call	 @__security_check_cookie@4
  00030	b8 00 00 00 00	 mov	 eax, OFFSET __ehfuncinfo$?LogSchool@CDbManager@@AAEXPAVCQuery@@PAUtagDB_OVERLAPPED_PLUS@@@Z
  00035	e9 00 00 00 00	 jmp	 ___CxxFrameHandler3
text$x	ENDS
?LogSchool@CDbManager@@AAEXPAVCQuery@@PAUtagDB_OVERLAPPED_PLUS@@@Z ENDP ; CDbManager::LogSchool
; Function compile flags: /Ogtp
; File C:\IAGOS\server\v18\Source\Source\_Database\DbManagerLog.cpp
;	COMDAT ?LogPkPvp@CDbManager@@AAEXPAVCQuery@@PAUtagDB_OVERLAPPED_PLUS@@@Z
_TEXT	SEGMENT
_vLosePos$ = -57456					; size = 12
_vPos$ = -57444						; size = 12
_lpDbOverlappedPlus$GSCopy$1$ = -57432			; size = 4
_iLoseServer_No$ = -57428				; size = 4
_nLosePKValue$ = -57428					; size = 4
_uidPlayer$ = -57424					; size = 4
_dwPKPropensity$ = -57420				; size = 4
_nPKValue$ = -57416					; size = 4
_nFame$ = -57412					; size = 4
_nLoseLevel$ = -57408					; size = 4
_dwLosePKPropensity$ = -57404				; size = 4
_nLoseFame$ = -57400					; size = 4
_iServer_No$ = -57396					; size = 4
_nLevel$ = -57396					; size = 4
_nPoint$ = -57392					; size = 4
_chState$ = -57388					; size = 1
_nSendBuf$ = -57384					; size = 4
_uLoseidPlayer$ = -57384				; size = 4
_arRead$ = -57380					; size = 16404
_szQuery$ = -40976					; size = 40960
__$ArrayPad$ = -16					; size = 4
__$EHRec$ = -12						; size = 12
_qry$ = 8						; size = 4
_lpDbOverlappedPlus$ = 12				; size = 4
?LogPkPvp@CDbManager@@AAEXPAVCQuery@@PAUtagDB_OVERLAPPED_PLUS@@@Z PROC ; CDbManager::LogPkPvp, COMDAT
; _this$ = ecx

; 830  : {

  00000	55		 push	 ebp
  00001	8b ec		 mov	 ebp, esp
  00003	6a ff		 push	 -1
  00005	68 00 00 00 00	 push	 __ehhandler$?LogPkPvp@CDbManager@@AAEXPAVCQuery@@PAUtagDB_OVERLAPPED_PLUS@@@Z
  0000a	64 a1 00 00 00
	00		 mov	 eax, DWORD PTR fs:0
  00010	50		 push	 eax
  00011	b8 64 e0 00 00	 mov	 eax, 57444		; 0000e064H
  00016	e8 00 00 00 00	 call	 __chkstk
  0001b	a1 00 00 00 00	 mov	 eax, DWORD PTR ___security_cookie
  00020	33 c5		 xor	 eax, ebp
  00022	89 45 f0	 mov	 DWORD PTR __$ArrayPad$[ebp], eax
  00025	53		 push	 ebx
  00026	56		 push	 esi
  00027	57		 push	 edi
  00028	50		 push	 eax
  00029	8d 45 f4	 lea	 eax, DWORD PTR __$EHRec$[ebp]
  0002c	64 a3 00 00 00
	00		 mov	 DWORD PTR fs:0, eax
  00032	8b f9		 mov	 edi, ecx
  00034	8b 45 0c	 mov	 eax, DWORD PTR _lpDbOverlappedPlus$[ebp]

; 831  : 	CAr arRead( lpDbOverlappedPlus->lpBuf, lpDbOverlappedPlus->uBufSize );

  00037	8d 8d dc 1f ff
	ff		 lea	 ecx, DWORD PTR _arRead$[ebp]
  0003d	8b 5d 08	 mov	 ebx, DWORD PTR _qry$[ebp]
  00040	89 85 a8 1f ff
	ff		 mov	 DWORD PTR _lpDbOverlappedPlus$GSCopy$1$[ebp], eax
  00046	ff 70 1c	 push	 DWORD PTR [eax+28]
  00049	ff 70 18	 push	 DWORD PTR [eax+24]
  0004c	e8 00 00 00 00	 call	 ??0CAr@@QAE@PAXI@Z	; CAr::CAr

; 832  : 
; 833  : 	int nSendBuf = 0;
; 834  : 	u_long uidPlayer, uLoseidPlayer;
; 835  : 	int iServer_No, iLoseServer_No;
; 836  : 	int nLevel, nLoseLevel;
; 837  : 	int nPoint;
; 838  : #if __VER >= 8 // __S8_PK
; 839  : 	int nPKValue, nLosePKValue;
; 840  : 	DWORD dwPKPropensity, dwLosePKPropensity;
; 841  : #else // __VER >= 8 // __S8_PK
; 842  : 	int nSlaughter, nLoseSlaughter;
; 843  : 	int nKillNum, nLoseKillNum;
; 844  : #endif // __VER >= 8 // __S8_PK
; 845  : 	int nFame, nLoseFame;
; 846  : 	char chState;
; 847  : 	D3DXVECTOR3 vPos, vLosePos;
; 848  : 
; 849  : 	arRead >> nSendBuf;

  00051	8d 85 d8 1f ff
	ff		 lea	 eax, DWORD PTR _nSendBuf$[ebp]
  00057	c7 45 fc 00 00
	00 00		 mov	 DWORD PTR __$EHRec$[ebp+8], 0
  0005e	50		 push	 eax
  0005f	8d 8d dc 1f ff
	ff		 lea	 ecx, DWORD PTR _arRead$[ebp]
  00065	c7 85 d8 1f ff
	ff 00 00 00 00	 mov	 DWORD PTR _nSendBuf$[ebp], 0
  0006f	e8 00 00 00 00	 call	 ??$?5H@CAr@@QAEAAV0@AAH@Z ; CAr::operator>><int>

; 850  : 	arRead >> nPoint;

  00074	8d 85 d0 1f ff
	ff		 lea	 eax, DWORD PTR _nPoint$[ebp]
  0007a	50		 push	 eax
  0007b	8d 8d dc 1f ff
	ff		 lea	 ecx, DWORD PTR _arRead$[ebp]
  00081	e8 00 00 00 00	 call	 ??$?5H@CAr@@QAEAAV0@AAH@Z ; CAr::operator>><int>

; 851  : 	arRead >> chState;

  00086	8d 85 d4 1f ff
	ff		 lea	 eax, DWORD PTR _chState$[ebp]
  0008c	50		 push	 eax
  0008d	8d 8d dc 1f ff
	ff		 lea	 ecx, DWORD PTR _arRead$[ebp]
  00093	e8 00 00 00 00	 call	 ??$?5D@CAr@@QAEAAV0@AAD@Z ; CAr::operator>><char>

; 852  : 	
; 853  : 	if( nSendBuf == 1 || nSendBuf == 3 )

  00098	8b b5 d8 1f ff
	ff		 mov	 esi, DWORD PTR _nSendBuf$[ebp]
  0009e	83 fe 01	 cmp	 esi, 1
  000a1	74 05		 je	 SHORT $LN3@LogPkPvp
  000a3	83 fe 03	 cmp	 esi, 3
  000a6	75 7e		 jne	 SHORT $LN2@LogPkPvp
$LN3@LogPkPvp:

; 854  : 	{
; 855  : 		arRead >> uLoseidPlayer;

  000a8	8d 85 d8 1f ff
	ff		 lea	 eax, DWORD PTR _uLoseidPlayer$[ebp]
  000ae	50		 push	 eax
  000af	8d 8d dc 1f ff
	ff		 lea	 ecx, DWORD PTR _arRead$[ebp]
  000b5	e8 00 00 00 00	 call	 ??$?5K@CAr@@QAEAAV0@AAK@Z ; CAr::operator>><unsigned long>

; 856  : 		arRead >> iLoseServer_No;

  000ba	8d 85 ac 1f ff
	ff		 lea	 eax, DWORD PTR _iLoseServer_No$[ebp]
  000c0	50		 push	 eax
  000c1	8d 8d dc 1f ff
	ff		 lea	 ecx, DWORD PTR _arRead$[ebp]
  000c7	e8 00 00 00 00	 call	 ??$?5H@CAr@@QAEAAV0@AAH@Z ; CAr::operator>><int>

; 857  : 		arRead >> nLoseLevel;

  000cc	8d 85 c0 1f ff
	ff		 lea	 eax, DWORD PTR _nLoseLevel$[ebp]
  000d2	50		 push	 eax
  000d3	8d 8d dc 1f ff
	ff		 lea	 ecx, DWORD PTR _arRead$[ebp]
  000d9	e8 00 00 00 00	 call	 ??$?5H@CAr@@QAEAAV0@AAH@Z ; CAr::operator>><int>

; 858  : 		arRead >> vLosePos;

  000de	8d 85 90 1f ff
	ff		 lea	 eax, DWORD PTR _vLosePos$[ebp]
  000e4	50		 push	 eax
  000e5	8d 8d dc 1f ff
	ff		 lea	 ecx, DWORD PTR _arRead$[ebp]
  000eb	e8 00 00 00 00	 call	 ??$?5UD3DXVECTOR3@@@CAr@@QAEAAV0@AAUD3DXVECTOR3@@@Z ; CAr::operator>><D3DXVECTOR3>

; 859  : 		arRead >> nLoseFame;

  000f0	8d 85 c8 1f ff
	ff		 lea	 eax, DWORD PTR _nLoseFame$[ebp]
  000f6	50		 push	 eax
  000f7	8d 8d dc 1f ff
	ff		 lea	 ecx, DWORD PTR _arRead$[ebp]
  000fd	e8 00 00 00 00	 call	 ??$?5H@CAr@@QAEAAV0@AAH@Z ; CAr::operator>><int>

; 860  : #if __VER >= 8 // __S8_PK
; 861  : 		arRead >> nLosePKValue;

  00102	8d 85 ac 1f ff
	ff		 lea	 eax, DWORD PTR _nLosePKValue$[ebp]
  00108	50		 push	 eax
  00109	8d 8d dc 1f ff
	ff		 lea	 ecx, DWORD PTR _arRead$[ebp]
  0010f	e8 00 00 00 00	 call	 ??$?5H@CAr@@QAEAAV0@AAH@Z ; CAr::operator>><int>

; 862  : 		arRead >> dwLosePKPropensity;

  00114	8d 85 c4 1f ff
	ff		 lea	 eax, DWORD PTR _dwLosePKPropensity$[ebp]
  0011a	50		 push	 eax
  0011b	8d 8d dc 1f ff
	ff		 lea	 ecx, DWORD PTR _arRead$[ebp]
  00121	e8 00 00 00 00	 call	 ??$?5K@CAr@@QAEAAV0@AAK@Z ; CAr::operator>><unsigned long>
$LN2@LogPkPvp:

; 863  : #else // __VER >= 8 // __S8_PK
; 864  : 		arRead >> nLoseKillNum;
; 865  : 		arRead >> nLoseSlaughter;
; 866  : #endif // __VER >= 8 // __S8_PK
; 867  : 	}
; 868  : 	
; 869  : 	if( nSendBuf == 2 || nSendBuf == 3 )

  00126	83 fe 02	 cmp	 esi, 2
  00129	74 05		 je	 SHORT $LN5@LogPkPvp
  0012b	83 fe 03	 cmp	 esi, 3
  0012e	75 7e		 jne	 SHORT $LN4@LogPkPvp
$LN5@LogPkPvp:

; 870  : 	{
; 871  : 		arRead >> uidPlayer;

  00130	8d 85 b0 1f ff
	ff		 lea	 eax, DWORD PTR _uidPlayer$[ebp]
  00136	50		 push	 eax
  00137	8d 8d dc 1f ff
	ff		 lea	 ecx, DWORD PTR _arRead$[ebp]
  0013d	e8 00 00 00 00	 call	 ??$?5K@CAr@@QAEAAV0@AAK@Z ; CAr::operator>><unsigned long>

; 872  : 		arRead >> iServer_No;

  00142	8d 85 cc 1f ff
	ff		 lea	 eax, DWORD PTR _iServer_No$[ebp]
  00148	50		 push	 eax
  00149	8d 8d dc 1f ff
	ff		 lea	 ecx, DWORD PTR _arRead$[ebp]
  0014f	e8 00 00 00 00	 call	 ??$?5H@CAr@@QAEAAV0@AAH@Z ; CAr::operator>><int>

; 873  : 		arRead >> nLevel;

  00154	8d 85 cc 1f ff
	ff		 lea	 eax, DWORD PTR _nLevel$[ebp]
  0015a	50		 push	 eax
  0015b	8d 8d dc 1f ff
	ff		 lea	 ecx, DWORD PTR _arRead$[ebp]
  00161	e8 00 00 00 00	 call	 ??$?5H@CAr@@QAEAAV0@AAH@Z ; CAr::operator>><int>

; 874  : 		arRead >> vPos;

  00166	8d 85 9c 1f ff
	ff		 lea	 eax, DWORD PTR _vPos$[ebp]
  0016c	50		 push	 eax
  0016d	8d 8d dc 1f ff
	ff		 lea	 ecx, DWORD PTR _arRead$[ebp]
  00173	e8 00 00 00 00	 call	 ??$?5UD3DXVECTOR3@@@CAr@@QAEAAV0@AAUD3DXVECTOR3@@@Z ; CAr::operator>><D3DXVECTOR3>

; 875  : 		arRead >> nFame;

  00178	8d 85 bc 1f ff
	ff		 lea	 eax, DWORD PTR _nFame$[ebp]
  0017e	50		 push	 eax
  0017f	8d 8d dc 1f ff
	ff		 lea	 ecx, DWORD PTR _arRead$[ebp]
  00185	e8 00 00 00 00	 call	 ??$?5H@CAr@@QAEAAV0@AAH@Z ; CAr::operator>><int>

; 876  : #if __VER >= 8 // __S8_PK
; 877  : 		arRead >> nPKValue;

  0018a	8d 85 b8 1f ff
	ff		 lea	 eax, DWORD PTR _nPKValue$[ebp]
  00190	50		 push	 eax
  00191	8d 8d dc 1f ff
	ff		 lea	 ecx, DWORD PTR _arRead$[ebp]
  00197	e8 00 00 00 00	 call	 ??$?5H@CAr@@QAEAAV0@AAH@Z ; CAr::operator>><int>

; 878  : 		arRead >> dwPKPropensity;

  0019c	8d 85 b4 1f ff
	ff		 lea	 eax, DWORD PTR _dwPKPropensity$[ebp]
  001a2	50		 push	 eax
  001a3	8d 8d dc 1f ff
	ff		 lea	 ecx, DWORD PTR _arRead$[ebp]
  001a9	e8 00 00 00 00	 call	 ??$?5K@CAr@@QAEAAV0@AAK@Z ; CAr::operator>><unsigned long>
$LN4@LogPkPvp:

; 879  : #else // __VER >= 8 // __S8_PK
; 880  : 		arRead >> nKillNum;
; 881  : 		arRead >> nSlaughter;
; 882  : #endif // __VER >= 8 // __S8_PK
; 883  : 	}
; 884  : 
; 885  : 	char szQuery[QUERY_SIZE]	= { 0,};

  001ae	68 00 a0 00 00	 push	 40960			; 0000a000H
  001b3	8d 85 f0 5f ff
	ff		 lea	 eax, DWORD PTR _szQuery$[ebp]
  001b9	6a 00		 push	 0
  001bb	50		 push	 eax
  001bc	e8 00 00 00 00	 call	 _memset
  001c1	83 c4 0c	 add	 esp, 12			; 0000000cH

; 886  : #if __VER >= 8 // __S8_PK
; 887  : 	if( nSendBuf == 3 )

  001c4	83 fe 03	 cmp	 esi, 3
  001c7	0f 85 90 00 00
	00		 jne	 $LN6@LogPkPvp

; 888  : 	{
; 889  : 		DBQryLog( szQuery, "LA", uidPlayer, g_appInfo.dwSys, nLoseLevel, nLevel, nPoint, dwPKPropensity, nPKValue,

  001cd	ff b5 d8 1f ff
	ff		 push	 DWORD PTR _uLoseidPlayer$[ebp]
  001d3	f3 0f 10 85 a4
	1f ff ff	 movss	 xmm0, DWORD PTR _vPos$[ebp+8]
  001db	6a 00		 push	 0
  001dd	6a 00		 push	 0
  001df	6a 00		 push	 0
  001e1	6a 00		 push	 0
  001e3	6a 00		 push	 0
  001e5	6a 00		 push	 0
  001e7	6a 00		 push	 0
  001e9	6a 00		 push	 0
  001eb	6a 00		 push	 0
  001ed	6a 00		 push	 0
  001ef	6a 00		 push	 0
  001f1	6a 00		 push	 0
  001f3	6a 00		 push	 0
  001f5	6a 00		 push	 0
  001f7	83 ec 0c	 sub	 esp, 12			; 0000000cH
  001fa	8b 85 c0 1f ff
	ff		 mov	 eax, DWORD PTR _nLoseLevel$[ebp]
  00200	99		 cdq
  00201	f3 0f 11 44 24
	08		 movss	 DWORD PTR [esp+8], xmm0
  00207	f3 0f 10 85 9c
	1f ff ff	 movss	 xmm0, DWORD PTR _vPos$[ebp]
  0020f	c7 44 24 04 00
	00 00 00	 mov	 DWORD PTR [esp+4], 0
  00217	f3 0f 11 04 24	 movss	 DWORD PTR [esp], xmm0
  0021c	6a 00		 push	 0
  0021e	6a 00		 push	 0
  00220	ff b5 d4 1f ff
	ff		 push	 DWORD PTR _chState$[ebp]
  00226	6a 00		 push	 0
  00228	6a 00		 push	 0
  0022a	6a 00		 push	 0
  0022c	ff b5 c8 1f ff
	ff		 push	 DWORD PTR _nLoseFame$[ebp]
  00232	ff b5 c4 1f ff
	ff		 push	 DWORD PTR _dwLosePKPropensity$[ebp]
  00238	ff b5 bc 1f ff
	ff		 push	 DWORD PTR _nFame$[ebp]
  0023e	ff b5 b8 1f ff
	ff		 push	 DWORD PTR _nPKValue$[ebp]
  00244	ff b5 b4 1f ff
	ff		 push	 DWORD PTR _dwPKPropensity$[ebp]
  0024a	ff b5 d0 1f ff
	ff		 push	 DWORD PTR _nPoint$[ebp]
  00250	ff b5 cc 1f ff
	ff		 push	 DWORD PTR _nLevel$[ebp]
  00256	52		 push	 edx
  00257	50		 push	 eax

; 890  : 			nFame, dwLosePKPropensity, nLoseFame, 0, 0, 0, chState, 0, '\0', vPos.x, 0.0f, vPos.z, 0, 0,
; 891  : 			'\0', 0, 0, 0, '\0', 0, 0, 0, 
; 892  : 			'\0', 0, '\0', 0, uLoseidPlayer );
; 893  : 	}

  00258	e9 0f 01 00 00	 jmp	 $LN15@LogPkPvp
$LN6@LogPkPvp:

; 894  : 	else if( nSendBuf == 1 )

  0025d	83 fe 01	 cmp	 esi, 1
  00260	0f 85 8c 00 00
	00		 jne	 $LN8@LogPkPvp

; 895  : 	{
; 896  : 		DBQryLog( szQuery, "LA", 0, g_appInfo.dwSys, nLoseLevel, 0, nPoint, 0, nLosePKValue,

  00266	ff b5 d8 1f ff
	ff		 push	 DWORD PTR _uLoseidPlayer$[ebp]
  0026c	f3 0f 10 85 98
	1f ff ff	 movss	 xmm0, DWORD PTR _vLosePos$[ebp+8]
  00274	6a 00		 push	 0
  00276	6a 00		 push	 0
  00278	6a 00		 push	 0
  0027a	6a 00		 push	 0
  0027c	6a 00		 push	 0
  0027e	6a 00		 push	 0
  00280	6a 00		 push	 0
  00282	6a 00		 push	 0
  00284	6a 00		 push	 0
  00286	6a 00		 push	 0
  00288	6a 00		 push	 0
  0028a	6a 00		 push	 0
  0028c	6a 00		 push	 0
  0028e	6a 00		 push	 0
  00290	83 ec 0c	 sub	 esp, 12			; 0000000cH
  00293	8b 85 c0 1f ff
	ff		 mov	 eax, DWORD PTR _nLoseLevel$[ebp]
  00299	99		 cdq
  0029a	f3 0f 11 44 24
	08		 movss	 DWORD PTR [esp+8], xmm0
  002a0	f3 0f 10 85 90
	1f ff ff	 movss	 xmm0, DWORD PTR _vLosePos$[ebp]
  002a8	c7 44 24 04 00
	00 00 00	 mov	 DWORD PTR [esp+4], 0
  002b0	f3 0f 11 04 24	 movss	 DWORD PTR [esp], xmm0
  002b5	6a 00		 push	 0
  002b7	6a 00		 push	 0
  002b9	ff b5 d4 1f ff
	ff		 push	 DWORD PTR _chState$[ebp]
  002bf	6a 00		 push	 0
  002c1	6a 00		 push	 0
  002c3	6a 00		 push	 0
  002c5	ff b5 c8 1f ff
	ff		 push	 DWORD PTR _nLoseFame$[ebp]
  002cb	ff b5 c4 1f ff
	ff		 push	 DWORD PTR _dwLosePKPropensity$[ebp]
  002d1	6a 00		 push	 0
  002d3	ff b5 ac 1f ff
	ff		 push	 DWORD PTR _nLosePKValue$[ebp]
  002d9	6a 00		 push	 0
  002db	ff b5 d0 1f ff
	ff		 push	 DWORD PTR _nPoint$[ebp]
  002e1	6a 00		 push	 0
  002e3	52		 push	 edx
  002e4	50		 push	 eax
  002e5	ff 35 00 00 00
	00		 push	 DWORD PTR ?g_appInfo@@3UAppInfo@@A
  002eb	6a 00		 push	 0

; 897  : 			0, dwLosePKPropensity, nLoseFame, 0, 0, 0, chState, 0, '\0', vLosePos.x, 0.0f, vLosePos.z, 0, 0,
; 898  : 			'\0', 0, 0, 0, '\0', 0, 0, 0, 
; 899  : 			'\0', 0, '\0', 0, uLoseidPlayer );
; 900  : 	}

  002ed	e9 86 00 00 00	 jmp	 $LN16@LogPkPvp
$LN8@LogPkPvp:

; 901  : 	else
; 902  : 	{
; 903  : 		DBQryLog( szQuery, "LA", uidPlayer, g_appInfo.dwSys, 0, nLevel, nPoint, dwPKPropensity, nPKValue,

  002f2	6a 00		 push	 0
  002f4	6a 00		 push	 0
  002f6	6a 00		 push	 0
  002f8	6a 00		 push	 0
  002fa	6a 00		 push	 0
  002fc	6a 00		 push	 0
  002fe	6a 00		 push	 0
  00300	6a 00		 push	 0
  00302	6a 00		 push	 0
  00304	6a 00		 push	 0
  00306	f3 0f 10 85 a4
	1f ff ff	 movss	 xmm0, DWORD PTR _vPos$[ebp+8]
  0030e	6a 00		 push	 0
  00310	6a 00		 push	 0
  00312	6a 00		 push	 0
  00314	6a 00		 push	 0
  00316	6a 00		 push	 0
  00318	83 ec 0c	 sub	 esp, 12			; 0000000cH
  0031b	f3 0f 11 44 24
	08		 movss	 DWORD PTR [esp+8], xmm0
  00321	f3 0f 10 85 9c
	1f ff ff	 movss	 xmm0, DWORD PTR _vPos$[ebp]
  00329	c7 44 24 04 00
	00 00 00	 mov	 DWORD PTR [esp+4], 0
  00331	f3 0f 11 04 24	 movss	 DWORD PTR [esp], xmm0
  00336	6a 00		 push	 0
  00338	6a 00		 push	 0
  0033a	ff b5 d4 1f ff
	ff		 push	 DWORD PTR _chState$[ebp]
  00340	6a 00		 push	 0
  00342	6a 00		 push	 0
  00344	6a 00		 push	 0
  00346	6a 00		 push	 0
  00348	6a 00		 push	 0
  0034a	ff b5 bc 1f ff
	ff		 push	 DWORD PTR _nFame$[ebp]
  00350	ff b5 b8 1f ff
	ff		 push	 DWORD PTR _nPKValue$[ebp]
  00356	ff b5 b4 1f ff
	ff		 push	 DWORD PTR _dwPKPropensity$[ebp]
  0035c	ff b5 d0 1f ff
	ff		 push	 DWORD PTR _nPoint$[ebp]
  00362	ff b5 cc 1f ff
	ff		 push	 DWORD PTR _nLevel$[ebp]
  00368	6a 00		 push	 0
  0036a	6a 00		 push	 0
$LN15@LogPkPvp:

; 904  : 			nFame, 0, 0, 0, 0, 0, chState, 0, '\0', vPos.x, 0.0f, vPos.z, 0, 0,
; 905  : 			'\0', 0, 0, 0, '\0', 0, 0, 0, 
; 906  : 			'\0', 0, '\0', 0, 0 );
; 907  : 	}
; 908  : #else // __VER >= 8 // __S8_PK
; 909  : 	if( nSendBuf == 3 )
; 910  : 	{
; 911  : 		DBQryLog( szQuery, "LA", uidPlayer, g_appInfo.dwSys, nLoseLevel, nLevel, nPoint, nSlaughter, nKillNum,
; 912  : 			nFame, nLoseSlaughter, nLoseFame, 0, 0, 0, chState, 0, '\0', vPos.x, 0.0f, vPos.z, 0, 0,
; 913  : 			'\0', 0, 0, 0, '\0', 0, 0, 0, 
; 914  : 			'\0', 0, '\0', 0, uLoseidPlayer );
; 915  : 	}
; 916  : 	else if( nSendBuf == 1 )
; 917  : 	{
; 918  : 		DBQryLog( szQuery, "LA", 0, g_appInfo.dwSys, nLoseLevel, 0, nPoint, 0, nLoseKillNum,
; 919  : 			0, nLoseSlaughter, nLoseFame, 0, 0, 0, chState, 0, '\0', vLosePos.x, 0.0f, vLosePos.z, 0, 0,
; 920  : 			'\0', 0, 0, 0, '\0', 0, 0, 0, 
; 921  : 			'\0', 0, '\0', 0, uLoseidPlayer );
; 922  : 	}
; 923  : 	else
; 924  : 	{
; 925  : 		DBQryLog( szQuery, "LA", uidPlayer, g_appInfo.dwSys, 0, nLevel, nPoint, nSlaughter, nKillNum,
; 926  : 			nFame, 0, 0, 0, 0, 0, chState, 0, '\0', vPos.x, 0.0f, vPos.z, 0, 0,
; 927  : 			'\0', 0, 0, 0, '\0', 0, 0, 0, 
; 928  : 			'\0', 0, '\0', 0, 0 );
; 929  : 	}
; 930  : #endif // __VER >= 8 // __S8_PK
; 931  : 
; 932  : 	if ( FALSE == qry->Exec( szQuery ) )

  0036c	ff 35 00 00 00
	00		 push	 DWORD PTR ?g_appInfo@@3UAppInfo@@A
  00372	ff b5 b0 1f ff
	ff		 push	 DWORD PTR _uidPlayer$[ebp]
$LN16@LogPkPvp:
  00378	68 00 00 00 00	 push	 OFFSET ??_C@_02JAFMCMAN@LA@
  0037d	8d 85 f0 5f ff
	ff		 lea	 eax, DWORD PTR _szQuery$[ebp]
  00383	8b cf		 mov	 ecx, edi
  00385	50		 push	 eax
  00386	e8 00 00 00 00	 call	 ?DBQryLog@CDbManager@@QAEXPAD0KH_JHHHHHHHHHHDH0MMMHH0KHH0HHH0H0HK@Z ; CDbManager::DBQryLog
  0038b	8d 85 f0 5f ff
	ff		 lea	 eax, DWORD PTR _szQuery$[ebp]
  00391	8b cb		 mov	 ecx, ebx
  00393	50		 push	 eax
  00394	e8 00 00 00 00	 call	 ?Exec@CQuery@@QAEHPBD@Z	; CQuery::Exec
  00399	85 c0		 test	 eax, eax
  0039b	75 18		 jne	 SHORT $LN10@LogPkPvp

; 933  : 	{
; 934  : 		WriteLog( "%s, %d\t%s", __FILE__, __LINE__, qry );

  0039d	53		 push	 ebx
  0039e	68 a6 03 00 00	 push	 934			; 000003a6H
  003a3	68 00 00 00 00	 push	 OFFSET ??_C@_0DN@OEMKJAPO@C?3?2IAGOS?2server?2v18?2Source?2Sour@
  003a8	68 00 00 00 00	 push	 OFFSET ??_C@_09GBAEEKDE@?$CFs?0?5?$CFd?7?$CFs@
  003ad	e8 00 00 00 00	 call	 ?WriteLog@@YAXPBDZZ	; WriteLog
  003b2	83 c4 10	 add	 esp, 16			; 00000010H
$LN10@LogPkPvp:

; 935  : 		FreeRequest( lpDbOverlappedPlus );
; 936  : 		return;
; 937  : 	}
; 938  : 
; 939  : 	FreeRequest( lpDbOverlappedPlus );
; 940  : }

  003b5	ff b5 a8 1f ff
	ff		 push	 DWORD PTR _lpDbOverlappedPlus$GSCopy$1$[ebp]
  003bb	8b cf		 mov	 ecx, edi
  003bd	e8 00 00 00 00	 call	 ?FreeRequest@CDbManager@@QAEXPAUtagDB_OVERLAPPED_PLUS@@@Z ; CDbManager::FreeRequest
  003c2	8d 8d dc 1f ff
	ff		 lea	 ecx, DWORD PTR _arRead$[ebp]
  003c8	e8 00 00 00 00	 call	 ??1CAr@@QAE@XZ		; CAr::~CAr
  003cd	8b 4d f4	 mov	 ecx, DWORD PTR __$EHRec$[ebp]
  003d0	64 89 0d 00 00
	00 00		 mov	 DWORD PTR fs:0, ecx
  003d7	59		 pop	 ecx
  003d8	5f		 pop	 edi
  003d9	5e		 pop	 esi
  003da	5b		 pop	 ebx
  003db	8b 4d f0	 mov	 ecx, DWORD PTR __$ArrayPad$[ebp]
  003de	33 cd		 xor	 ecx, ebp
  003e0	e8 00 00 00 00	 call	 @__security_check_cookie@4
  003e5	8b e5		 mov	 esp, ebp
  003e7	5d		 pop	 ebp
  003e8	c2 08 00	 ret	 8
_TEXT	ENDS
;	COMDAT text$x
text$x	SEGMENT
__unwindfunclet$?LogPkPvp@CDbManager@@AAEXPAVCQuery@@PAUtagDB_OVERLAPPED_PLUS@@@Z$0:
  00000	8d 8d dc 1f ff
	ff		 lea	 ecx, DWORD PTR _arRead$[ebp]
  00006	e9 00 00 00 00	 jmp	 ??1CAr@@QAE@XZ		; CAr::~CAr
  0000b	cc		 int	 3
  0000c	cc		 int	 3
  0000d	cc		 int	 3
  0000e	cc		 int	 3
  0000f	cc		 int	 3
__ehhandler$?LogPkPvp@CDbManager@@AAEXPAVCQuery@@PAUtagDB_OVERLAPPED_PLUS@@@Z:
  00010	90		 npad	 1
  00011	90		 npad	 1
  00012	8b 54 24 08	 mov	 edx, DWORD PTR [esp+8]
  00016	8d 42 0c	 lea	 eax, DWORD PTR [edx+12]
  00019	8b 8a 8c 1f ff
	ff		 mov	 ecx, DWORD PTR [edx-57460]
  0001f	33 c8		 xor	 ecx, eax
  00021	e8 00 00 00 00	 call	 @__security_check_cookie@4
  00026	8b 4a fc	 mov	 ecx, DWORD PTR [edx-4]
  00029	33 c8		 xor	 ecx, eax
  0002b	e8 00 00 00 00	 call	 @__security_check_cookie@4
  00030	b8 00 00 00 00	 mov	 eax, OFFSET __ehfuncinfo$?LogPkPvp@CDbManager@@AAEXPAVCQuery@@PAUtagDB_OVERLAPPED_PLUS@@@Z
  00035	e9 00 00 00 00	 jmp	 ___CxxFrameHandler3
text$x	ENDS
?LogPkPvp@CDbManager@@AAEXPAVCQuery@@PAUtagDB_OVERLAPPED_PLUS@@@Z ENDP ; CDbManager::LogPkPvp
; Function compile flags: /Ogtp
; File C:\IAGOS\server\v18\Source\Source\_Database\DbManagerLog.cpp
; File C:\Program Files\Microsoft Visual Studio\2022\Professional\VC\Tools\MSVC\14.44.35207\atlmfc\include\atltime.h
; File C:\IAGOS\server\v18\Source\Source\_Database\DbManagerLog.cpp
; File C:\Program Files\Microsoft Visual Studio\2022\Professional\VC\Tools\MSVC\14.44.35207\atlmfc\include\atltime.h
; File C:\IAGOS\server\v18\Source\Source\_Database\DbManagerLog.cpp
; File C:\Program Files\Microsoft Visual Studio\2022\Professional\VC\Tools\MSVC\14.44.35207\atlmfc\include\atltime.h
; File C:\IAGOS\server\v18\Source\Source\_Database\DbManagerLog.cpp
; File C:\Program Files\Microsoft Visual Studio\2022\Professional\VC\Tools\MSVC\14.44.35207\atlmfc\include\atlsimpstr.h
; File C:\IAGOS\server\v18\Source\Source\_Database\DbManagerLog.cpp
; File C:\Program Files\Microsoft Visual Studio\2022\Professional\VC\Tools\MSVC\14.44.35207\atlmfc\include\atlsimpstr.h
; File C:\IAGOS\server\v18\Source\Source\_Database\DbManagerLog.cpp
; File C:\Program Files\Microsoft Visual Studio\2022\Professional\VC\Tools\MSVC\14.44.35207\atlmfc\include\atlsimpstr.h
; File C:\IAGOS\server\v18\Source\Source\_Database\DbManagerLog.cpp
; File C:\Program Files\Microsoft Visual Studio\2022\Professional\VC\Tools\MSVC\14.44.35207\atlmfc\include\atlsimpstr.h
; File C:\IAGOS\server\v18\Source\Source\_Database\DbManagerLog.cpp
; File C:\Program Files\Microsoft Visual Studio\2022\Professional\VC\Tools\MSVC\14.44.35207\atlmfc\include\atlsimpstr.h
; File C:\IAGOS\server\v18\Source\Source\_Database\DbManagerLog.cpp
;	COMDAT ?LogQuest@CDbManager@@AAEXPAVCQuery@@PAUtagDB_OVERLAPPED_PLUS@@@Z
_TEXT	SEGMENT
_tQuest$ = -57436					; size = 8
_Action$ = -57428					; size = 4
_lpDbOverlappedPlus$GSCopy$1$ = -57424			; size = 4
_qry$GSCopy$1$ = -57420					; size = 4
_uidPlayer$ = -57416					; size = 4
_iServer_No$1$ = -57412					; size = 4
_nQuest$ = -57408					; size = 4
_strQuestTime$ = -57404					; size = 4
_arRead$ = -57400					; size = 16404
_szQuery$ = -40996					; size = 40960
_cName$ = -36						; size = 17
__$ArrayPad$ = -16					; size = 4
__$EHRec$ = -12						; size = 12
_qry$ = 8						; size = 4
_lpDbOverlappedPlus$ = 12				; size = 4
?LogQuest@CDbManager@@AAEXPAVCQuery@@PAUtagDB_OVERLAPPED_PLUS@@@Z PROC ; CDbManager::LogQuest, COMDAT
; _this$ = ecx

; 674  : {

  00000	55		 push	 ebp
  00001	8b ec		 mov	 ebp, esp
  00003	6a ff		 push	 -1
  00005	68 00 00 00 00	 push	 __ehhandler$?LogQuest@CDbManager@@AAEXPAVCQuery@@PAUtagDB_OVERLAPPED_PLUS@@@Z
  0000a	64 a1 00 00 00
	00		 mov	 eax, DWORD PTR fs:0
  00010	50		 push	 eax
  00011	b8 50 e0 00 00	 mov	 eax, 57424		; 0000e050H
  00016	e8 00 00 00 00	 call	 __chkstk
  0001b	a1 00 00 00 00	 mov	 eax, DWORD PTR ___security_cookie
  00020	33 c5		 xor	 eax, ebp
  00022	89 45 f0	 mov	 DWORD PTR __$ArrayPad$[ebp], eax
  00025	56		 push	 esi
  00026	57		 push	 edi
  00027	50		 push	 eax
  00028	8d 45 f4	 lea	 eax, DWORD PTR __$EHRec$[ebp]
  0002b	64 a3 00 00 00
	00		 mov	 DWORD PTR fs:0, eax
  00031	8b f9		 mov	 edi, ecx
  00033	8b 45 08	 mov	 eax, DWORD PTR _qry$[ebp]

; 675  : 	CAr arRead( lpDbOverlappedPlus->lpBuf, lpDbOverlappedPlus->uBufSize );

  00036	8d 8d c8 1f ff
	ff		 lea	 ecx, DWORD PTR _arRead$[ebp]
  0003c	89 85 b4 1f ff
	ff		 mov	 DWORD PTR _qry$GSCopy$1$[ebp], eax
  00042	8b 45 0c	 mov	 eax, DWORD PTR _lpDbOverlappedPlus$[ebp]
  00045	89 85 b0 1f ff
	ff		 mov	 DWORD PTR _lpDbOverlappedPlus$GSCopy$1$[ebp], eax
  0004b	ff 70 1c	 push	 DWORD PTR [eax+28]
  0004e	ff 70 18	 push	 DWORD PTR [eax+24]
  00051	e8 00 00 00 00	 call	 ??0CAr@@QAE@PAXI@Z	; CAr::CAr
  00056	0f 57 c0	 xorps	 xmm0, xmm0
  00059	c7 45 fc 00 00
	00 00		 mov	 DWORD PTR __$EHRec$[ebp+8], 0
; File C:\Program Files\Microsoft Visual Studio\2022\Professional\VC\Tools\MSVC\14.44.35207\atlmfc\include\atltime.h

; 377  : 	return( CTime( ::_time64( NULL ) ) );

  00060	6a 00		 push	 0
; File C:\IAGOS\server\v18\Source\Source\_Database\DbManagerLog.cpp

; 678  : 	char cName[17] = {0,};

  00062	0f 11 45 dc	 movups	 XMMWORD PTR _cName$[ebp], xmm0
  00066	c6 45 ec 00	 mov	 BYTE PTR _cName$[ebp+16], 0
; File C:\Program Files\Microsoft Visual Studio\2022\Professional\VC\Tools\MSVC\14.44.35207\atlmfc\include\atltime.h

; 377  : 	return( CTime( ::_time64( NULL ) ) );

  0006a	e8 00 00 00 00	 call	 __time64
  0006f	83 c4 04	 add	 esp, 4

; 420  : 	m_time( time )

  00072	89 85 a4 1f ff
	ff		 mov	 DWORD PTR _tQuest$[ebp], eax
; File C:\IAGOS\server\v18\Source\Source\_Database\DbManagerLog.cpp

; 684  : 	iServer_No	= g_appInfo.dwSys;

  00078	a1 00 00 00 00	 mov	 eax, DWORD PTR ?g_appInfo@@3UAppInfo@@A

; 685  : 	CString strQuestTime	= tQuest.Format( "%Y%m%d%H%M%S" );

  0007d	8d 8d a4 1f ff
	ff		 lea	 ecx, DWORD PTR _tQuest$[ebp]
  00083	89 85 bc 1f ff
	ff		 mov	 DWORD PTR _iServer_No$1$[ebp], eax
  00089	8d 85 c4 1f ff
	ff		 lea	 eax, DWORD PTR _strQuestTime$[ebp]
; File C:\Program Files\Microsoft Visual Studio\2022\Professional\VC\Tools\MSVC\14.44.35207\atlmfc\include\atltime.h

; 420  : 	m_time( time )

  0008f	89 95 a8 1f ff
	ff		 mov	 DWORD PTR _tQuest$[ebp+4], edx
; File C:\IAGOS\server\v18\Source\Source\_Database\DbManagerLog.cpp

; 685  : 	CString strQuestTime	= tQuest.Format( "%Y%m%d%H%M%S" );

  00095	68 00 00 00 00	 push	 OFFSET ??_C@_0N@BNMNAMM@?$CFY?$CFm?$CFd?$CFH?$CFM?$CFS@
  0009a	50		 push	 eax
  0009b	e8 00 00 00 00	 call	 ?Format@CTime@ATL@@QBE?AV?$CStringT@DV?$StrTraitMFC@DV?$ChTraitsCRT@D@ATL@@@@@2@PBD@Z ; ATL::CTime::Format

; 686  : 
; 687  : 	arRead >> Action;

  000a0	8d 85 ac 1f ff
	ff		 lea	 eax, DWORD PTR _Action$[ebp]
  000a6	c6 45 fc 01	 mov	 BYTE PTR __$EHRec$[ebp+8], 1
  000aa	50		 push	 eax
  000ab	8d 8d c8 1f ff
	ff		 lea	 ecx, DWORD PTR _arRead$[ebp]
  000b1	e8 00 00 00 00	 call	 ??$?5H@CAr@@QAEAAV0@AAH@Z ; CAr::operator>><int>

; 688  : 	arRead.ReadString( cName, 17 );

  000b6	6a 11		 push	 17			; 00000011H
  000b8	8d 45 dc	 lea	 eax, DWORD PTR _cName$[ebp]
  000bb	50		 push	 eax
  000bc	8d 8d c8 1f ff
	ff		 lea	 ecx, DWORD PTR _arRead$[ebp]
  000c2	e8 00 00 00 00	 call	 ?ReadString@CAr@@QAEPADPADH@Z ; CAr::ReadString

; 689  : 	arRead >> nQuest;

  000c7	8d 85 c0 1f ff
	ff		 lea	 eax, DWORD PTR _nQuest$[ebp]
  000cd	50		 push	 eax
  000ce	8d 8d c8 1f ff
	ff		 lea	 ecx, DWORD PTR _arRead$[ebp]
  000d4	e8 00 00 00 00	 call	 ??$?5H@CAr@@QAEAAV0@AAH@Z ; CAr::operator>><int>

; 690  : 	arRead >> uidPlayer;

  000d9	8d 85 b8 1f ff
	ff		 lea	 eax, DWORD PTR _uidPlayer$[ebp]
  000df	50		 push	 eax
  000e0	8d 8d c8 1f ff
	ff		 lea	 ecx, DWORD PTR _arRead$[ebp]
  000e6	e8 00 00 00 00	 call	 ??$?5K@CAr@@QAEAAV0@AAK@Z ; CAr::operator>><unsigned long>

; 691  : 	
; 692  : 	char szQuery[QUERY_SIZE]	= { 0,};

  000eb	68 00 a0 00 00	 push	 40960			; 0000a000H
  000f0	8d 85 dc 5f ff
	ff		 lea	 eax, DWORD PTR _szQuery$[ebp]
  000f6	6a 00		 push	 0
  000f8	50		 push	 eax
  000f9	e8 00 00 00 00	 call	 _memset

; 693  : 
; 694  : //	qry->Clear();
; 695  : 	if( Action == 1 ) // Äů˝şĆ® ˝ĂŔŰ

  000fe	8b 85 c4 1f ff
	ff		 mov	 eax, DWORD PTR _strQuestTime$[ebp]
  00104	83 c4 0c	 add	 esp, 12			; 0000000cH
  00107	83 bd ac 1f ff
	ff 01		 cmp	 DWORD PTR _Action$[ebp], 1
  0010e	8b 70 f4	 mov	 esi, DWORD PTR [eax-12]
  00111	0f 85 c7 00 00
	00		 jne	 $LN2@LogQuest
; File C:\Program Files\Microsoft Visual Studio\2022\Professional\VC\Tools\MSVC\14.44.35207\atlmfc\include\atlsimpstr.h

; 808  : 		if (nLength < 0)

  00117	85 f6		 test	 esi, esi
  00119	0f 88 ee 01 00
	00		 js	 $LN51@LogQuest

; 810  : 
; 811  : 		CStringData* pOldData = GetData();
; 812  : 		int nShared = 1-pOldData->nRefs;  // nShared < 0 means true, >= 0 means false
; 813  : 		int nTooShort = pOldData->nAllocLength-nLength;  // nTooShort < 0 means true, >= 0 means false

  0011f	8b 48 f8	 mov	 ecx, DWORD PTR [eax-8]
  00122	ba 01 00 00 00	 mov	 edx, 1
  00127	2b 50 fc	 sub	 edx, DWORD PTR [eax-4]
  0012a	2b ce		 sub	 ecx, esi

; 814  : 		if( (nShared|nTooShort) < 0 )  // If either sign bit is set (i.e. either is less than zero), we need to copy data

  0012c	0b ca		 or	 ecx, edx
  0012e	7d 12		 jge	 SHORT $LN23@LogQuest

; 815  : 		{
; 816  : 			PrepareWrite2( nLength );

  00130	56		 push	 esi
  00131	8d 8d c4 1f ff
	ff		 lea	 ecx, DWORD PTR _strQuestTime$[ebp]
  00137	e8 00 00 00 00	 call	 ?PrepareWrite2@?$CSimpleStringT@D$0A@@ATL@@AAEXH@Z ; ATL::CSimpleStringT<char,0>::PrepareWrite2
  0013c	8b 85 c4 1f ff
	ff		 mov	 eax, DWORD PTR _strQuestTime$[ebp]
$LN23@LogQuest:
; File C:\IAGOS\server\v18\Source\Source\_Database\DbManagerLog.cpp

; 697  : 		DBQryLog( szQuery, "L6", uidPlayer, iServer_No, 0, 0, 0, 0, 0, 

  00142	6a 00		 push	 0
  00144	ff b5 c0 1f ff
	ff		 push	 DWORD PTR _nQuest$[ebp]
  0014a	8b cf		 mov	 ecx, edi
  0014c	6a 00		 push	 0
  0014e	6a 00		 push	 0
  00150	50		 push	 eax
  00151	6a 00		 push	 0
  00153	6a 00		 push	 0
  00155	6a 00		 push	 0
  00157	6a 00		 push	 0
  00159	6a 00		 push	 0
  0015b	6a 00		 push	 0
  0015d	6a 00		 push	 0
  0015f	6a 00		 push	 0
  00161	6a 00		 push	 0
  00163	6a 00		 push	 0
  00165	83 ec 0c	 sub	 esp, 12			; 0000000cH
  00168	8d 85 dc 5f ff
	ff		 lea	 eax, DWORD PTR _szQuery$[ebp]
  0016e	c7 44 24 08 00
	00 00 00	 mov	 DWORD PTR [esp+8], 0
  00176	c7 44 24 04 00
	00 00 00	 mov	 DWORD PTR [esp+4], 0
  0017e	c7 04 24 00 00
	00 00		 mov	 DWORD PTR [esp], 0
  00185	6a 00		 push	 0
  00187	6a 00		 push	 0
  00189	6a 43		 push	 67			; 00000043H
  0018b	6a 00		 push	 0
  0018d	6a 00		 push	 0
  0018f	6a 00		 push	 0
  00191	6a 00		 push	 0
  00193	6a 00		 push	 0
  00195	6a 00		 push	 0
  00197	6a 00		 push	 0
  00199	6a 00		 push	 0
  0019b	6a 00		 push	 0
  0019d	6a 00		 push	 0
  0019f	6a 00		 push	 0
  001a1	6a 00		 push	 0
  001a3	ff b5 bc 1f ff
	ff		 push	 DWORD PTR _iServer_No$1$[ebp]
  001a9	ff b5 b8 1f ff
	ff		 push	 DWORD PTR _uidPlayer$[ebp]
  001af	68 00 00 00 00	 push	 OFFSET ??_C@_02PACCMDDM@L6@
  001b4	50		 push	 eax
  001b5	e8 00 00 00 00	 call	 ?DBQryLog@CDbManager@@QAEXPAD0KH_JHHHHHHHHHHDH0MMMHH0KHH0HHH0H0HK@Z ; CDbManager::DBQryLog

; 698  : 			0, 0, 0, 0, 0, 0, 'C', 0, '\0', 0.0f, 0.0f, 0.0f, 0, 0, 0,
; 699  : 			0, 0, 0, '\0', 0, 0, 0, strQuestTime.GetBuffer( strQuestTime.GetLength() ), 0, '\0', nQuest );
; 700  : 
; 701  : 		if ( FALSE == qry->Exec( szQuery ) )

  001ba	8b 8d b4 1f ff
	ff		 mov	 ecx, DWORD PTR _qry$GSCopy$1$[ebp]
  001c0	8d 85 dc 5f ff
	ff		 lea	 eax, DWORD PTR _szQuery$[ebp]
  001c6	50		 push	 eax
  001c7	e8 00 00 00 00	 call	 ?Exec@CQuery@@QAEHPBD@Z	; CQuery::Exec
  001cc	85 c0		 test	 eax, eax
  001ce	0f 85 e2 00 00
	00		 jne	 $LN5@LogQuest

; 702  : 		{
; 703  : 			WriteLog( "%s, %d\t%s", __FILE__, __LINE__, szQuery );
; 704  : 			FreeRequest( lpDbOverlappedPlus );

  001d4	b8 bf 02 00 00	 mov	 eax, 703		; 000002bfH
  001d9	e9 be 00 00 00	 jmp	 $LN9@LogQuest
$LN2@LogQuest:
; File C:\Program Files\Microsoft Visual Studio\2022\Professional\VC\Tools\MSVC\14.44.35207\atlmfc\include\atlsimpstr.h

; 808  : 		if (nLength < 0)

  001de	85 f6		 test	 esi, esi
  001e0	0f 88 27 01 00
	00		 js	 $LN51@LogQuest

; 810  : 
; 811  : 		CStringData* pOldData = GetData();
; 812  : 		int nShared = 1-pOldData->nRefs;  // nShared < 0 means true, >= 0 means false
; 813  : 		int nTooShort = pOldData->nAllocLength-nLength;  // nTooShort < 0 means true, >= 0 means false

  001e6	8b 48 f8	 mov	 ecx, DWORD PTR [eax-8]
  001e9	ba 01 00 00 00	 mov	 edx, 1
  001ee	2b 50 fc	 sub	 edx, DWORD PTR [eax-4]
  001f1	2b ce		 sub	 ecx, esi

; 814  : 		if( (nShared|nTooShort) < 0 )  // If either sign bit is set (i.e. either is less than zero), we need to copy data

  001f3	0b ca		 or	 ecx, edx
  001f5	7d 12		 jge	 SHORT $LN37@LogQuest

; 815  : 		{
; 816  : 			PrepareWrite2( nLength );

  001f7	56		 push	 esi
  001f8	8d 8d c4 1f ff
	ff		 lea	 ecx, DWORD PTR _strQuestTime$[ebp]
  001fe	e8 00 00 00 00	 call	 ?PrepareWrite2@?$CSimpleStringT@D$0A@@ATL@@AAEXH@Z ; ATL::CSimpleStringT<char,0>::PrepareWrite2
  00203	8b 85 c4 1f ff
	ff		 mov	 eax, DWORD PTR _strQuestTime$[ebp]
$LN37@LogQuest:
; File C:\IAGOS\server\v18\Source\Source\_Database\DbManagerLog.cpp

; 712  : 		DBQryLog( szQuery, "L7", uidPlayer, iServer_No, 0, 0, 0, 0, 0, 

  00209	6a 00		 push	 0
  0020b	ff b5 c0 1f ff
	ff		 push	 DWORD PTR _nQuest$[ebp]
  00211	8b cf		 mov	 ecx, edi
  00213	6a 00		 push	 0
  00215	6a 00		 push	 0
  00217	50		 push	 eax
  00218	6a 00		 push	 0
  0021a	6a 00		 push	 0
  0021c	6a 00		 push	 0
  0021e	6a 00		 push	 0
  00220	6a 00		 push	 0
  00222	6a 00		 push	 0
  00224	6a 00		 push	 0
  00226	6a 00		 push	 0
  00228	6a 00		 push	 0
  0022a	6a 00		 push	 0
  0022c	83 ec 0c	 sub	 esp, 12			; 0000000cH
  0022f	8d 85 dc 5f ff
	ff		 lea	 eax, DWORD PTR _szQuery$[ebp]
  00235	c7 44 24 08 00
	00 00 00	 mov	 DWORD PTR [esp+8], 0
  0023d	c7 44 24 04 00
	00 00 00	 mov	 DWORD PTR [esp+4], 0
  00245	c7 04 24 00 00
	00 00		 mov	 DWORD PTR [esp], 0
  0024c	6a 00		 push	 0
  0024e	6a 00		 push	 0
  00250	6a 41		 push	 65			; 00000041H
  00252	6a 00		 push	 0
  00254	6a 00		 push	 0
  00256	6a 00		 push	 0
  00258	6a 00		 push	 0
  0025a	6a 00		 push	 0
  0025c	6a 00		 push	 0
  0025e	6a 00		 push	 0
  00260	6a 00		 push	 0
  00262	6a 00		 push	 0
  00264	6a 00		 push	 0
  00266	6a 00		 push	 0
  00268	6a 00		 push	 0
  0026a	ff b5 bc 1f ff
	ff		 push	 DWORD PTR _iServer_No$1$[ebp]
  00270	ff b5 b8 1f ff
	ff		 push	 DWORD PTR _uidPlayer$[ebp]
  00276	68 00 00 00 00	 push	 OFFSET ??_C@_02OJDJPCHN@L7@
  0027b	50		 push	 eax
  0027c	e8 00 00 00 00	 call	 ?DBQryLog@CDbManager@@QAEXPAD0KH_JHHHHHHHHHHDH0MMMHH0KHH0HHH0H0HK@Z ; CDbManager::DBQryLog

; 713  : 			0, 0, 0, 0, 0, 0, 'A', 0, '\0', 0.0f, 0.0f, 0.0f, 0, 0, 0,
; 714  : 			0, 0, 0, '\0', 0, 0, 0, strQuestTime.GetBuffer( strQuestTime.GetLength() ), 0, '\0', nQuest );
; 715  : 
; 716  : 		if ( FALSE == qry->Exec( szQuery ) )

  00281	8b 8d b4 1f ff
	ff		 mov	 ecx, DWORD PTR _qry$GSCopy$1$[ebp]
  00287	8d 85 dc 5f ff
	ff		 lea	 eax, DWORD PTR _szQuery$[ebp]
  0028d	50		 push	 eax
  0028e	e8 00 00 00 00	 call	 ?Exec@CQuery@@QAEHPBD@Z	; CQuery::Exec
  00293	85 c0		 test	 eax, eax
  00295	75 1f		 jne	 SHORT $LN5@LogQuest

; 717  : 		{
; 718  : 			WriteLog( "%s, %d\t%s", __FILE__, __LINE__, szQuery );
; 719  : 			FreeRequest( lpDbOverlappedPlus );

  00297	b8 ce 02 00 00	 mov	 eax, 718		; 000002ceH
$LN9@LogQuest:
  0029c	8d 8d dc 5f ff
	ff		 lea	 ecx, DWORD PTR _szQuery$[ebp]
  002a2	51		 push	 ecx
  002a3	50		 push	 eax
  002a4	68 00 00 00 00	 push	 OFFSET ??_C@_0DN@OEMKJAPO@C?3?2IAGOS?2server?2v18?2Source?2Sour@
  002a9	68 00 00 00 00	 push	 OFFSET ??_C@_09GBAEEKDE@?$CFs?0?5?$CFd?7?$CFs@
  002ae	e8 00 00 00 00	 call	 ?WriteLog@@YAXPBDZZ	; WriteLog
  002b3	83 c4 10	 add	 esp, 16			; 00000010H
$LN5@LogQuest:

; 726  : }

  002b6	ff b5 b0 1f ff
	ff		 push	 DWORD PTR _lpDbOverlappedPlus$GSCopy$1$[ebp]
  002bc	8b cf		 mov	 ecx, edi
  002be	e8 00 00 00 00	 call	 ?FreeRequest@CDbManager@@QAEXPAUtagDB_OVERLAPPED_PLUS@@@Z ; CDbManager::FreeRequest
; File C:\Program Files\Microsoft Visual Studio\2022\Professional\VC\Tools\MSVC\14.44.35207\atlmfc\include\atlsimpstr.h

; 804  : 		return( reinterpret_cast< CStringData* >( m_pszData )-1 );

  002c3	8b 95 c4 1f ff
	ff		 mov	 edx, DWORD PTR _strQuestTime$[ebp]

; 92   : 		if( _InterlockedDecrement( &nRefs ) <= 0 )

  002c9	83 c8 ff	 or	 eax, -1
; File C:\IAGOS\server\v18\Source\Source\_Database\DbManagerLog.cpp

; 726  : }

  002cc	c6 45 fc 00	 mov	 BYTE PTR __$EHRec$[ebp+8], 0
; File C:\Program Files\Microsoft Visual Studio\2022\Professional\VC\Tools\MSVC\14.44.35207\atlmfc\include\atlsimpstr.h

; 804  : 		return( reinterpret_cast< CStringData* >( m_pszData )-1 );

  002d0	83 c2 f0	 add	 edx, -16		; fffffff0H

; 92   : 		if( _InterlockedDecrement( &nRefs ) <= 0 )

  002d3	f0 0f c1 42 0c	 lock	  xadd	 DWORD PTR [edx+12], eax
  002d8	48		 dec	 eax
  002d9	85 c0		 test	 eax, eax
  002db	7f 08		 jg	 SHORT $LN49@LogQuest

; 93   : 		{
; 94   : 			pStringMgr->Free( this );

  002dd	8b 0a		 mov	 ecx, DWORD PTR [edx]
  002df	52		 push	 edx
  002e0	8b 01		 mov	 eax, DWORD PTR [ecx]
  002e2	ff 50 04	 call	 DWORD PTR [eax+4]
$LN49@LogQuest:
; File C:\IAGOS\server\v18\Source\Source\_Database\DbManagerLog.cpp

; 726  : }

  002e5	8d 8d c8 1f ff
	ff		 lea	 ecx, DWORD PTR _arRead$[ebp]
  002eb	e8 00 00 00 00	 call	 ??1CAr@@QAE@XZ		; CAr::~CAr
  002f0	8b 4d f4	 mov	 ecx, DWORD PTR __$EHRec$[ebp]
  002f3	64 89 0d 00 00
	00 00		 mov	 DWORD PTR fs:0, ecx
  002fa	59		 pop	 ecx
  002fb	5f		 pop	 edi
  002fc	5e		 pop	 esi
  002fd	8b 4d f0	 mov	 ecx, DWORD PTR __$ArrayPad$[ebp]
  00300	33 cd		 xor	 ecx, ebp
  00302	e8 00 00 00 00	 call	 @__security_check_cookie@4
  00307	8b e5		 mov	 esp, ebp
  00309	5d		 pop	 ebp
  0030a	c2 08 00	 ret	 8
$LN51@LogQuest:
; File C:\Program Files\Microsoft Visual Studio\2022\Professional\VC\Tools\MSVC\14.44.35207\atlmfc\include\atlsimpstr.h

; 809  : 			AtlThrow(E_INVALIDARG);

  0030d	68 57 00 07 80	 push	 -2147024809		; 80070057H
  00312	e8 00 00 00 00	 call	 ?AtlThrowImpl@ATL@@YGXJ@Z ; ATL::AtlThrowImpl
$LN54@LogQuest:
  00317	cc		 int	 3
_TEXT	ENDS
;	COMDAT text$x
text$x	SEGMENT
__unwindfunclet$?LogQuest@CDbManager@@AAEXPAVCQuery@@PAUtagDB_OVERLAPPED_PLUS@@@Z$0:
  00000	8d 8d c8 1f ff
	ff		 lea	 ecx, DWORD PTR _arRead$[ebp]
  00006	e9 00 00 00 00	 jmp	 ??1CAr@@QAE@XZ		; CAr::~CAr
__unwindfunclet$?LogQuest@CDbManager@@AAEXPAVCQuery@@PAUtagDB_OVERLAPPED_PLUS@@@Z$1:
  0000b	8d 8d c4 1f ff
	ff		 lea	 ecx, DWORD PTR _strQuestTime$[ebp]
  00011	e9 00 00 00 00	 jmp	 ??1?$CStringT@DV?$StrTraitMFC@DV?$ChTraitsCRT@D@ATL@@@@@ATL@@QAE@XZ ; ATL::CStringT<char,StrTraitMFC<char,ATL::ChTraitsCRT<char> > >::~CStringT<char,StrTraitMFC<char,ATL::ChTraitsCRT<char> > >
  00016	cc		 int	 3
  00017	cc		 int	 3
  00018	cc		 int	 3
  00019	cc		 int	 3
  0001a	cc		 int	 3
__ehhandler$?LogQuest@CDbManager@@AAEXPAVCQuery@@PAUtagDB_OVERLAPPED_PLUS@@@Z:
  0001b	90		 npad	 1
  0001c	90		 npad	 1
  0001d	8b 54 24 08	 mov	 edx, DWORD PTR [esp+8]
  00021	8d 42 0c	 lea	 eax, DWORD PTR [edx+12]
  00024	8b 8a a4 1f ff
	ff		 mov	 ecx, DWORD PTR [edx-57436]
  0002a	33 c8		 xor	 ecx, eax
  0002c	e8 00 00 00 00	 call	 @__security_check_cookie@4
  00031	8b 4a fc	 mov	 ecx, DWORD PTR [edx-4]
  00034	33 c8		 xor	 ecx, eax
  00036	e8 00 00 00 00	 call	 @__security_check_cookie@4
  0003b	b8 00 00 00 00	 mov	 eax, OFFSET __ehfuncinfo$?LogQuest@CDbManager@@AAEXPAVCQuery@@PAUtagDB_OVERLAPPED_PLUS@@@Z
  00040	e9 00 00 00 00	 jmp	 ___CxxFrameHandler3
text$x	ENDS
?LogQuest@CDbManager@@AAEXPAVCQuery@@PAUtagDB_OVERLAPPED_PLUS@@@Z ENDP ; CDbManager::LogQuest
; Function compile flags: /Ogtp
; File C:\IAGOS\server\v18\Source\Source\_Database\DbManagerLog.cpp
;	COMDAT ?LogUniqueItem@CDbManager@@AAEXPAVCQuery@@PAUtagDB_OVERLAPPED_PLUS@@@Z
_TEXT	SEGMENT
_Pos$ = -57484						; size = 12
_lpDbOverlappedPlus$GSCopy$1$ = -57472			; size = 4
_this$GSCopy$1$ = -57468				; size = 4
_uidPlayer$ = -57464					; size = 4
_iWorld$ = -57460					; size = 4
_cItemAddLevel$ = -57456				; size = 4
_arRead$ = -57452					; size = 16404
_szQuery$ = -41048					; size = 40960
_cUniqueName$ = -88					; size = 51
_cCrateMan$ = -36					; size = 17
__$ArrayPad$ = -16					; size = 4
__$EHRec$ = -12						; size = 12
_qry$ = 8						; size = 4
_lpDbOverlappedPlus$ = 12				; size = 4
?LogUniqueItem@CDbManager@@AAEXPAVCQuery@@PAUtagDB_OVERLAPPED_PLUS@@@Z PROC ; CDbManager::LogUniqueItem, COMDAT
; _this$ = ecx

; 644  : {

  00000	55		 push	 ebp
  00001	8b ec		 mov	 ebp, esp
  00003	6a ff		 push	 -1
  00005	68 00 00 00 00	 push	 __ehhandler$?LogUniqueItem@CDbManager@@AAEXPAVCQuery@@PAUtagDB_OVERLAPPED_PLUS@@@Z
  0000a	64 a1 00 00 00
	00		 mov	 eax, DWORD PTR fs:0
  00010	50		 push	 eax
  00011	b8 80 e0 00 00	 mov	 eax, 57472		; 0000e080H
  00016	e8 00 00 00 00	 call	 __chkstk
  0001b	a1 00 00 00 00	 mov	 eax, DWORD PTR ___security_cookie
  00020	33 c5		 xor	 eax, ebp
  00022	89 45 f0	 mov	 DWORD PTR __$ArrayPad$[ebp], eax
  00025	56		 push	 esi
  00026	57		 push	 edi
  00027	50		 push	 eax
  00028	8d 45 f4	 lea	 eax, DWORD PTR __$EHRec$[ebp]
  0002b	64 a3 00 00 00
	00		 mov	 DWORD PTR fs:0, eax
  00031	89 8d 84 1f ff
	ff		 mov	 DWORD PTR _this$GSCopy$1$[ebp], ecx
  00037	8b 45 0c	 mov	 eax, DWORD PTR _lpDbOverlappedPlus$[ebp]

; 645  : 	CAr arRead( lpDbOverlappedPlus->lpBuf, lpDbOverlappedPlus->uBufSize );

  0003a	8d 8d 94 1f ff
	ff		 lea	 ecx, DWORD PTR _arRead$[ebp]
  00040	8b 7d 08	 mov	 edi, DWORD PTR _qry$[ebp]
  00043	89 85 80 1f ff
	ff		 mov	 DWORD PTR _lpDbOverlappedPlus$GSCopy$1$[ebp], eax
  00049	ff 70 1c	 push	 DWORD PTR [eax+28]
  0004c	ff 70 18	 push	 DWORD PTR [eax+24]
  0004f	e8 00 00 00 00	 call	 ??0CAr@@QAE@PAXI@Z	; CAr::CAr

; 646  : 
; 647  : 	int			iServer_No;							// Ľ­ąö ąřČŁ
; 648  : 	char		cCrateMan[17] = {0,};				// »ýĽşŔÚ
; 649  : 	int			iWorld;								// żůµĺąřČŁ
; 650  : 	D3DXVECTOR3	Pos;								// ÁÂÇĄ
; 651  : 	char		cUniqueName[51] = {0,};				// ľĆŔĚĹŰ ¸í

  00054	6a 33		 push	 51			; 00000033H
  00056	8d 45 a8	 lea	 eax, DWORD PTR _cUniqueName$[ebp]
  00059	c7 45 fc 00 00
	00 00		 mov	 DWORD PTR __$EHRec$[ebp+8], 0
  00060	0f 57 c0	 xorps	 xmm0, xmm0
  00063	c6 45 ec 00	 mov	 BYTE PTR _cCrateMan$[ebp+16], 0
  00067	6a 00		 push	 0
  00069	50		 push	 eax
  0006a	0f 11 45 dc	 movups	 XMMWORD PTR _cCrateMan$[ebp], xmm0
  0006e	e8 00 00 00 00	 call	 _memset

; 652  : 	int			cItemAddLevel;						// ľĆŔĚĹŰ Ăß°ˇ·ąş§
; 653  : 	u_long		uidPlayer;
; 654  : 	
; 655  : 	iServer_No	= g_appInfo.dwSys;

  00073	8b 35 00 00 00
	00		 mov	 esi, DWORD PTR ?g_appInfo@@3UAppInfo@@A

; 656  : 	arRead.ReadString( cCrateMan, 17 );

  00079	8d 45 dc	 lea	 eax, DWORD PTR _cCrateMan$[ebp]
  0007c	83 c4 0c	 add	 esp, 12			; 0000000cH
  0007f	8d 8d 94 1f ff
	ff		 lea	 ecx, DWORD PTR _arRead$[ebp]
  00085	6a 11		 push	 17			; 00000011H
  00087	50		 push	 eax
  00088	e8 00 00 00 00	 call	 ?ReadString@CAr@@QAEPADPADH@Z ; CAr::ReadString

; 657  : 	arRead >> iWorld;

  0008d	8d 85 8c 1f ff
	ff		 lea	 eax, DWORD PTR _iWorld$[ebp]
  00093	50		 push	 eax
  00094	8d 8d 94 1f ff
	ff		 lea	 ecx, DWORD PTR _arRead$[ebp]
  0009a	e8 00 00 00 00	 call	 ??$?5H@CAr@@QAEAAV0@AAH@Z ; CAr::operator>><int>

; 658  : 	arRead >> Pos;

  0009f	8d 85 74 1f ff
	ff		 lea	 eax, DWORD PTR _Pos$[ebp]
  000a5	50		 push	 eax
  000a6	8d 8d 94 1f ff
	ff		 lea	 ecx, DWORD PTR _arRead$[ebp]
  000ac	e8 00 00 00 00	 call	 ??$?5UD3DXVECTOR3@@@CAr@@QAEAAV0@AAUD3DXVECTOR3@@@Z ; CAr::operator>><D3DXVECTOR3>

; 659  : 	arRead.ReadString( cUniqueName, 51 );

  000b1	6a 33		 push	 51			; 00000033H
  000b3	8d 45 a8	 lea	 eax, DWORD PTR _cUniqueName$[ebp]
  000b6	50		 push	 eax
  000b7	8d 8d 94 1f ff
	ff		 lea	 ecx, DWORD PTR _arRead$[ebp]
  000bd	e8 00 00 00 00	 call	 ?ReadString@CAr@@QAEPADPADH@Z ; CAr::ReadString

; 660  : 	arRead >> cItemAddLevel;

  000c2	8d 85 90 1f ff
	ff		 lea	 eax, DWORD PTR _cItemAddLevel$[ebp]
  000c8	50		 push	 eax
  000c9	8d 8d 94 1f ff
	ff		 lea	 ecx, DWORD PTR _arRead$[ebp]
  000cf	e8 00 00 00 00	 call	 ??$?5H@CAr@@QAEAAV0@AAH@Z ; CAr::operator>><int>

; 661  : 	arRead >> uidPlayer;

  000d4	8d 85 88 1f ff
	ff		 lea	 eax, DWORD PTR _uidPlayer$[ebp]
  000da	50		 push	 eax
  000db	8d 8d 94 1f ff
	ff		 lea	 ecx, DWORD PTR _arRead$[ebp]
  000e1	e8 00 00 00 00	 call	 ??$?5K@CAr@@QAEAAV0@AAK@Z ; CAr::operator>><unsigned long>

; 662  : 
; 663  : 	char szQuery[QUERY_SIZE]	= { 0,};

  000e6	68 00 a0 00 00	 push	 40960			; 0000a000H
  000eb	8d 85 a8 5f ff
	ff		 lea	 eax, DWORD PTR _szQuery$[ebp]
  000f1	6a 00		 push	 0
  000f3	50		 push	 eax
  000f4	e8 00 00 00 00	 call	 _memset
  000f9	83 c4 0c	 add	 esp, 12			; 0000000cH

; 664  : 	DBQryLog( szQuery, "L4", uidPlayer, iServer_No, 0, 0, 0, 0, 0,

  000fc	f3 0f 10 85 7c
	1f ff ff	 movss	 xmm0, DWORD PTR _Pos$[ebp+8]
  00104	8d 45 a8	 lea	 eax, DWORD PTR _cUniqueName$[ebp]
  00107	6a 00		 push	 0
  00109	6a 00		 push	 0
  0010b	6a 00		 push	 0
  0010d	6a 00		 push	 0
  0010f	6a 00		 push	 0
  00111	ff b5 90 1f ff
	ff		 push	 DWORD PTR _cItemAddLevel$[ebp]
  00117	6a 00		 push	 0
  00119	6a 00		 push	 0
  0011b	50		 push	 eax
  0011c	6a 00		 push	 0
  0011e	6a 00		 push	 0
  00120	6a 00		 push	 0
  00122	6a 00		 push	 0
  00124	6a 00		 push	 0
  00126	6a 00		 push	 0
  00128	83 ec 0c	 sub	 esp, 12			; 0000000cH
  0012b	f3 0f 11 44 24
	08		 movss	 DWORD PTR [esp+8], xmm0
  00131	f3 0f 10 85 78
	1f ff ff	 movss	 xmm0, DWORD PTR _Pos$[ebp+4]
  00139	f3 0f 11 44 24
	04		 movss	 DWORD PTR [esp+4], xmm0
  0013f	f3 0f 10 85 74
	1f ff ff	 movss	 xmm0, DWORD PTR _Pos$[ebp]
  00147	f3 0f 11 04 24	 movss	 DWORD PTR [esp], xmm0
  0014c	6a 00		 push	 0
  0014e	ff b5 8c 1f ff
	ff		 push	 DWORD PTR _iWorld$[ebp]
  00154	6a 41		 push	 65			; 00000041H
  00156	6a 00		 push	 0
  00158	6a 00		 push	 0
  0015a	6a 00		 push	 0
  0015c	6a 00		 push	 0
  0015e	6a 00		 push	 0
  00160	8b 8d 84 1f ff
	ff		 mov	 ecx, DWORD PTR _this$GSCopy$1$[ebp]
  00166	8d 85 a8 5f ff
	ff		 lea	 eax, DWORD PTR _szQuery$[ebp]
  0016c	6a 00		 push	 0
  0016e	6a 00		 push	 0
  00170	6a 00		 push	 0
  00172	6a 00		 push	 0
  00174	6a 00		 push	 0
  00176	6a 00		 push	 0
  00178	6a 00		 push	 0
  0017a	56		 push	 esi
  0017b	ff b5 88 1f ff
	ff		 push	 DWORD PTR _uidPlayer$[ebp]
  00181	68 00 00 00 00	 push	 OFFSET ??_C@_02MCBEKBLO@L4@
  00186	50		 push	 eax
  00187	e8 00 00 00 00	 call	 ?DBQryLog@CDbManager@@QAEXPAD0KH_JHHHHHHHHHHDH0MMMHH0KHH0HHH0H0HK@Z ; CDbManager::DBQryLog

; 665  : 		0, 0, 0, 0, 0, 0, 'A',
; 666  : 		iWorld, '\0', Pos.x, Pos.y, Pos.z, 0, 0, '\0', 0, 0, 0, cUniqueName, 0, 0, cItemAddLevel );
; 667  : 
; 668  : 	qry->Exec( szQuery );

  0018c	8d 85 a8 5f ff
	ff		 lea	 eax, DWORD PTR _szQuery$[ebp]
  00192	8b cf		 mov	 ecx, edi
  00194	50		 push	 eax
  00195	e8 00 00 00 00	 call	 ?Exec@CQuery@@QAEHPBD@Z	; CQuery::Exec

; 669  : 
; 670  : 	FreeRequest( lpDbOverlappedPlus );

  0019a	ff b5 80 1f ff
	ff		 push	 DWORD PTR _lpDbOverlappedPlus$GSCopy$1$[ebp]
  001a0	8b 8d 84 1f ff
	ff		 mov	 ecx, DWORD PTR _this$GSCopy$1$[ebp]
  001a6	e8 00 00 00 00	 call	 ?FreeRequest@CDbManager@@QAEXPAUtagDB_OVERLAPPED_PLUS@@@Z ; CDbManager::FreeRequest

; 671  : }

  001ab	8d 8d 94 1f ff
	ff		 lea	 ecx, DWORD PTR _arRead$[ebp]
  001b1	e8 00 00 00 00	 call	 ??1CAr@@QAE@XZ		; CAr::~CAr
  001b6	8b 4d f4	 mov	 ecx, DWORD PTR __$EHRec$[ebp]
  001b9	64 89 0d 00 00
	00 00		 mov	 DWORD PTR fs:0, ecx
  001c0	59		 pop	 ecx
  001c1	5f		 pop	 edi
  001c2	5e		 pop	 esi
  001c3	8b 4d f0	 mov	 ecx, DWORD PTR __$ArrayPad$[ebp]
  001c6	33 cd		 xor	 ecx, ebp
  001c8	e8 00 00 00 00	 call	 @__security_check_cookie@4
  001cd	8b e5		 mov	 esp, ebp
  001cf	5d		 pop	 ebp
  001d0	c2 08 00	 ret	 8
_TEXT	ENDS
;	COMDAT text$x
text$x	SEGMENT
__unwindfunclet$?LogUniqueItem@CDbManager@@AAEXPAVCQuery@@PAUtagDB_OVERLAPPED_PLUS@@@Z$0:
  00000	8d 8d 94 1f ff
	ff		 lea	 ecx, DWORD PTR _arRead$[ebp]
  00006	e9 00 00 00 00	 jmp	 ??1CAr@@QAE@XZ		; CAr::~CAr
  0000b	cc		 int	 3
  0000c	cc		 int	 3
  0000d	cc		 int	 3
  0000e	cc		 int	 3
  0000f	cc		 int	 3
__ehhandler$?LogUniqueItem@CDbManager@@AAEXPAVCQuery@@PAUtagDB_OVERLAPPED_PLUS@@@Z:
  00010	90		 npad	 1
  00011	90		 npad	 1
  00012	8b 54 24 08	 mov	 edx, DWORD PTR [esp+8]
  00016	8d 42 0c	 lea	 eax, DWORD PTR [edx+12]
  00019	8b 8a 74 1f ff
	ff		 mov	 ecx, DWORD PTR [edx-57484]
  0001f	33 c8		 xor	 ecx, eax
  00021	e8 00 00 00 00	 call	 @__security_check_cookie@4
  00026	8b 4a fc	 mov	 ecx, DWORD PTR [edx-4]
  00029	33 c8		 xor	 ecx, eax
  0002b	e8 00 00 00 00	 call	 @__security_check_cookie@4
  00030	b8 00 00 00 00	 mov	 eax, OFFSET __ehfuncinfo$?LogUniqueItem@CDbManager@@AAEXPAVCQuery@@PAUtagDB_OVERLAPPED_PLUS@@@Z
  00035	e9 00 00 00 00	 jmp	 ___CxxFrameHandler3
text$x	ENDS
?LogUniqueItem@CDbManager@@AAEXPAVCQuery@@PAUtagDB_OVERLAPPED_PLUS@@@Z ENDP ; CDbManager::LogUniqueItem
; Function compile flags: /Ogtp
; File C:\IAGOS\server\v18\Source\Source\_Database\DbManagerLog.cpp
; File C:\Program Files\Microsoft Visual Studio\2022\Professional\VC\Tools\MSVC\14.44.35207\atlmfc\include\atltime.h
; File C:\IAGOS\server\v18\Source\Source\_Database\DbManagerLog.cpp
; File C:\Program Files\Microsoft Visual Studio\2022\Professional\VC\Tools\MSVC\14.44.35207\atlmfc\include\atlsimpstr.h
; File C:\IAGOS\server\v18\Source\Source\_Database\DbManagerLog.cpp
; File C:\Program Files\Microsoft Visual Studio\2022\Professional\VC\Tools\MSVC\14.44.35207\atlmfc\include\atlsimpstr.h
; File C:\IAGOS\server\v18\Source\Source\_Database\DbManagerLog.cpp
; File C:\Program Files\Microsoft Visual Studio\2022\Professional\VC\Tools\MSVC\14.44.35207\atlmfc\include\atlsimpstr.h
; File C:\IAGOS\server\v18\Source\Source\_Database\DbManagerLog.cpp
; File C:\Program Files\Microsoft Visual Studio\2022\Professional\VC\Tools\MSVC\14.44.35207\atlmfc\include\atltime.h
; File C:\Program Files\Microsoft Visual Studio\2022\Professional\VC\Tools\MSVC\14.44.35207\atlmfc\include\atlsimpstr.h
; File C:\IAGOS\server\v18\Source\Source\_Database\DbManagerLog.cpp
;	COMDAT ?LogServerDeath@CDbManager@@AAEXPAVCQuery@@PAUtagDB_OVERLAPPED_PLUS@@@Z
_TEXT	SEGMENT
_tStart$ = -57456					; size = 8
_qry$GSCopy$1$ = -57448					; size = 4
_iServer_No$1$ = -57444					; size = 4
_nYear$1$ = -57440					; size = 4
_strStart$ = -57436					; size = 4
_arRead$ = -57432					; size = 16404
_atm$2 = -41028						; size = 36
_siStart$ = -40992					; size = 16
_szQuery$ = -40976					; size = 40960
__$ArrayPad$ = -16					; size = 4
__$EHRec$ = -12						; size = 12
_qry$ = 8						; size = 4
_lpDbOverlappedPlus$ = 12				; size = 4
?LogServerDeath@CDbManager@@AAEXPAVCQuery@@PAUtagDB_OVERLAPPED_PLUS@@@Z PROC ; CDbManager::LogServerDeath, COMDAT
; _this$ = ecx

; 587  : {

  00000	55		 push	 ebp
  00001	8b ec		 mov	 ebp, esp
  00003	6a ff		 push	 -1
  00005	68 00 00 00 00	 push	 __ehhandler$?LogServerDeath@CDbManager@@AAEXPAVCQuery@@PAUtagDB_OVERLAPPED_PLUS@@@Z
  0000a	64 a1 00 00 00
	00		 mov	 eax, DWORD PTR fs:0
  00010	50		 push	 eax
  00011	b8 64 e0 00 00	 mov	 eax, 57444		; 0000e064H
  00016	e8 00 00 00 00	 call	 __chkstk
  0001b	a1 00 00 00 00	 mov	 eax, DWORD PTR ___security_cookie
  00020	33 c5		 xor	 eax, ebp
  00022	89 45 f0	 mov	 DWORD PTR __$ArrayPad$[ebp], eax
  00025	53		 push	 ebx
  00026	56		 push	 esi
  00027	57		 push	 edi
  00028	50		 push	 eax
  00029	8d 45 f4	 lea	 eax, DWORD PTR __$EHRec$[ebp]
  0002c	64 a3 00 00 00
	00		 mov	 DWORD PTR fs:0, eax
  00032	8b d9		 mov	 ebx, ecx
  00034	8b 7d 0c	 mov	 edi, DWORD PTR _lpDbOverlappedPlus$[ebp]

; 588  : 	CAr arRead( lpDbOverlappedPlus->lpBuf, lpDbOverlappedPlus->uBufSize );

  00037	8d 8d a8 1f ff
	ff		 lea	 ecx, DWORD PTR _arRead$[ebp]
  0003d	8b 45 08	 mov	 eax, DWORD PTR _qry$[ebp]
  00040	89 85 98 1f ff
	ff		 mov	 DWORD PTR _qry$GSCopy$1$[ebp], eax
  00046	ff 77 1c	 push	 DWORD PTR [edi+28]
  00049	ff 77 18	 push	 DWORD PTR [edi+24]
  0004c	e8 00 00 00 00	 call	 ??0CAr@@QAE@PAXI@Z	; CAr::CAr

; 589  : 
; 590  : 	int			iServer_No;							// Ľ­ąö ąřČŁ
; 591  : 	SYSTEMTIME	siStart;
; 592  : 		
; 593  : 	iServer_No	= g_appInfo.dwSys;

  00051	a1 00 00 00 00	 mov	 eax, DWORD PTR ?g_appInfo@@3UAppInfo@@A

; 594  : 	arRead.Read( &siStart, sizeof(SYSTEMTIME) );

  00056	8d 8d a8 1f ff
	ff		 lea	 ecx, DWORD PTR _arRead$[ebp]
  0005c	89 85 9c 1f ff
	ff		 mov	 DWORD PTR _iServer_No$1$[ebp], eax
  00062	8d 85 e0 5f ff
	ff		 lea	 eax, DWORD PTR _siStart$[ebp]
  00068	6a 10		 push	 16			; 00000010H
  0006a	50		 push	 eax
  0006b	c7 45 fc 00 00
	00 00		 mov	 DWORD PTR __$EHRec$[ebp+8], 0
  00072	e8 00 00 00 00	 call	 ?Read@CAr@@QAEXPAXI@Z	; CAr::Read
; File C:\Program Files\Microsoft Visual Studio\2022\Professional\VC\Tools\MSVC\14.44.35207\atlmfc\include\atltime.h

; 489  : 	if (sysTime.wYear < 1900)

  00077	66 8b 85 e0 5f
	ff ff		 mov	 ax, WORD PTR _siStart$[ebp]
  0007e	b9 6c 07 00 00	 mov	 ecx, 1900		; 0000076cH
  00083	66 3b c1	 cmp	 ax, cx
  00086	73 10		 jae	 SHORT $LN8@LogServerD
  00088	0f 57 c0	 xorps	 xmm0, xmm0

; 490  : 	{
; 491  : 		__time64_t time0 = 0L;
; 492  : 		CTime timeT(time0);
; 493  : 		*this = timeT;

  0008b	66 0f 13 85 90
	1f ff ff	 movlpd	 QWORD PTR _tStart$[ebp], xmm0

; 494  : 	}

  00093	e9 d7 00 00 00	 jmp	 $LN9@LogServerD
$LN8@LogServerD:

; 495  : 	else
; 496  : 	{
; 497  : 		CTime timeT(

  00098	0f b7 b5 ea 5f
	ff ff		 movzx	 esi, WORD PTR _siStart$[ebp+10]
  0009f	0f b7 8d e6 5f
	ff ff		 movzx	 ecx, WORD PTR _siStart$[ebp+6]

; 436  : 	ATLENSURE( nYear >= 1970 );

  000a6	0f b7 95 ec 5f
	ff ff		 movzx	 edx, WORD PTR _siStart$[ebp+12]

; 497  : 		CTime timeT(

  000ad	0f b7 c0	 movzx	 eax, ax
  000b0	89 85 a0 1f ff
	ff		 mov	 DWORD PTR _nYear$1$[ebp], eax

; 436  : 	ATLENSURE( nYear >= 1970 );

  000b6	3d b2 07 00 00	 cmp	 eax, 1970		; 000007b2H
  000bb	0f 82 0a 02 00
	00		 jb	 $LN95@LogServerD

; 437  : 	ATLENSURE( nMonth >= 1 && nMonth <= 12 );

  000c1	0f b7 85 e2 5f
	ff ff		 movzx	 eax, WORD PTR _siStart$[ebp+2]
  000c8	48		 dec	 eax
  000c9	83 f8 0b	 cmp	 eax, 11			; 0000000bH
  000cc	0f 87 f9 01 00
	00		 ja	 $LN95@LogServerD

; 438  : 	ATLENSURE( nDay >= 1 && nDay <= 31 );

  000d2	83 f9 01	 cmp	 ecx, 1
  000d5	0f 82 f0 01 00
	00		 jb	 $LN95@LogServerD
  000db	83 f9 1f	 cmp	 ecx, 31			; 0000001fH
  000de	0f 87 e7 01 00
	00		 ja	 $LN95@LogServerD

; 439  : 	ATLENSURE( nHour >= 0 && nHour <= 23 );

  000e4	0f b7 85 e8 5f
	ff ff		 movzx	 eax, WORD PTR _siStart$[ebp+8]
  000eb	83 f8 17	 cmp	 eax, 23			; 00000017H
  000ee	0f 87 d7 01 00
	00		 ja	 $LN95@LogServerD

; 440  : 	ATLENSURE( nMin >= 0 && nMin <= 59 );

  000f4	83 fe 3b	 cmp	 esi, 59			; 0000003bH
  000f7	0f 87 ce 01 00
	00		 ja	 $LN95@LogServerD

; 441  : 	ATLENSURE( nSec >= 0 && nSec <= 59 );

  000fd	83 fa 3b	 cmp	 edx, 59			; 0000003bH
  00100	0f 87 c5 01 00
	00		 ja	 $LN95@LogServerD

; 442  : 
; 443  : #pragma warning (pop)
; 444  : 
; 445  : 	struct tm atm;
; 446  : 
; 447  : 	atm.tm_sec = nSec;
; 448  : 	atm.tm_min = nMin;
; 449  : 	atm.tm_hour = nHour;

  00106	89 85 c4 5f ff
	ff		 mov	 DWORD PTR _atm$2[ebp+8], eax

; 450  : 	atm.tm_mday = nDay;
; 451  : 	atm.tm_mon = nMonth - 1;        // tm_mon is 0 based

  0010c	0f b7 85 e2 5f
	ff ff		 movzx	 eax, WORD PTR _siStart$[ebp+2]
  00113	48		 dec	 eax
  00114	89 95 bc 5f ff
	ff		 mov	 DWORD PTR _atm$2[ebp], edx
  0011a	89 85 cc 5f ff
	ff		 mov	 DWORD PTR _atm$2[ebp+16], eax

; 452  : 	atm.tm_year = nYear - 1900;     // tm_year is 1900 based

  00120	8b 85 a0 1f ff
	ff		 mov	 eax, DWORD PTR _nYear$1$[ebp]
  00126	05 94 f8 ff ff	 add	 eax, -1900		; fffff894H
  0012b	89 b5 c0 5f ff
	ff		 mov	 DWORD PTR _atm$2[ebp+4], esi
  00131	89 85 d0 5f ff
	ff		 mov	 DWORD PTR _atm$2[ebp+20], eax

; 453  : 	atm.tm_isdst = nDST;
; 454  : 
; 455  : 	m_time = _mktime64(&atm);

  00137	8d 85 bc 5f ff
	ff		 lea	 eax, DWORD PTR _atm$2[ebp]
  0013d	50		 push	 eax
  0013e	89 8d c8 5f ff
	ff		 mov	 DWORD PTR _atm$2[ebp+12], ecx
  00144	c7 85 dc 5f ff
	ff ff ff ff ff	 mov	 DWORD PTR _atm$2[ebp+32], -1
  0014e	e8 00 00 00 00	 call	 __mktime64

; 456  : 	ATLASSUME(m_time != -1);       // indicates an illegal input time
; 457  : 	if(m_time == -1)

  00153	8b c8		 mov	 ecx, eax
  00155	83 c4 04	 add	 esp, 4
  00158	23 ca		 and	 ecx, edx
  0015a	83 f9 ff	 cmp	 ecx, -1
  0015d	0f 84 72 01 00
	00		 je	 $LN104@LogServerD

; 501  : 		*this = timeT;

  00163	89 85 90 1f ff
	ff		 mov	 DWORD PTR _tStart$[ebp], eax
  00169	89 95 94 1f ff
	ff		 mov	 DWORD PTR _tStart$[ebp+4], edx
$LN9@LogServerD:
; File C:\IAGOS\server\v18\Source\Source\_Database\DbManagerLog.cpp

; 597  : 	CString strStart = tStart.Format( "%Y%m%d%H%M%S" );

  0016f	68 00 00 00 00	 push	 OFFSET ??_C@_0N@BNMNAMM@?$CFY?$CFm?$CFd?$CFH?$CFM?$CFS@
  00174	8d 85 a4 1f ff
	ff		 lea	 eax, DWORD PTR _strStart$[ebp]
  0017a	50		 push	 eax
  0017b	8d 8d 90 1f ff
	ff		 lea	 ecx, DWORD PTR _tStart$[ebp]
  00181	e8 00 00 00 00	 call	 ?Format@CTime@ATL@@QBE?AV?$CStringT@DV?$StrTraitMFC@DV?$ChTraitsCRT@D@ATL@@@@@2@PBD@Z ; ATL::CTime::Format

; 598  : 	char szQuery[QUERY_SIZE]	= { 0,};

  00186	68 00 a0 00 00	 push	 40960			; 0000a000H
  0018b	8d 85 f0 5f ff
	ff		 lea	 eax, DWORD PTR _szQuery$[ebp]
  00191	c6 45 fc 01	 mov	 BYTE PTR __$EHRec$[ebp+8], 1
  00195	6a 00		 push	 0
  00197	50		 push	 eax
  00198	e8 00 00 00 00	 call	 _memset

; 599  : 	DBQryLog( szQuery, "L8", 0, iServer_No, 0, 0, 0, 0, 0,

  0019d	8b 85 a4 1f ff
	ff		 mov	 eax, DWORD PTR _strStart$[ebp]
  001a3	83 c4 0c	 add	 esp, 12			; 0000000cH
  001a6	8b 70 f4	 mov	 esi, DWORD PTR [eax-12]
; File C:\Program Files\Microsoft Visual Studio\2022\Professional\VC\Tools\MSVC\14.44.35207\atlmfc\include\atlsimpstr.h

; 808  : 		if (nLength < 0)

  001a9	85 f6		 test	 esi, esi
  001ab	0f 88 2e 01 00
	00		 js	 $LN105@LogServerD

; 810  : 
; 811  : 		CStringData* pOldData = GetData();
; 812  : 		int nShared = 1-pOldData->nRefs;  // nShared < 0 means true, >= 0 means false
; 813  : 		int nTooShort = pOldData->nAllocLength-nLength;  // nTooShort < 0 means true, >= 0 means false

  001b1	8b 48 f8	 mov	 ecx, DWORD PTR [eax-8]
  001b4	ba 01 00 00 00	 mov	 edx, 1
  001b9	2b 50 fc	 sub	 edx, DWORD PTR [eax-4]
  001bc	2b ce		 sub	 ecx, esi

; 814  : 		if( (nShared|nTooShort) < 0 )  // If either sign bit is set (i.e. either is less than zero), we need to copy data

  001be	0b ca		 or	 ecx, edx
  001c0	7d 12		 jge	 SHORT $LN81@LogServerD

; 815  : 		{
; 816  : 			PrepareWrite2( nLength );

  001c2	56		 push	 esi
  001c3	8d 8d a4 1f ff
	ff		 lea	 ecx, DWORD PTR _strStart$[ebp]
  001c9	e8 00 00 00 00	 call	 ?PrepareWrite2@?$CSimpleStringT@D$0A@@ATL@@AAEXH@Z ; ATL::CSimpleStringT<char,0>::PrepareWrite2
  001ce	8b 85 a4 1f ff
	ff		 mov	 eax, DWORD PTR _strStart$[ebp]
$LN81@LogServerD:
; File C:\IAGOS\server\v18\Source\Source\_Database\DbManagerLog.cpp

; 599  : 	DBQryLog( szQuery, "L8", 0, iServer_No, 0, 0, 0, 0, 0,

  001d4	6a 00		 push	 0
  001d6	6a 00		 push	 0
  001d8	6a 00		 push	 0
  001da	6a 00		 push	 0
  001dc	50		 push	 eax
  001dd	6a 00		 push	 0
  001df	6a 00		 push	 0
  001e1	6a 00		 push	 0
  001e3	6a 00		 push	 0
  001e5	6a 00		 push	 0
  001e7	6a 00		 push	 0
  001e9	6a 00		 push	 0
  001eb	6a 00		 push	 0
  001ed	6a 00		 push	 0
  001ef	6a 00		 push	 0
  001f1	83 ec 0c	 sub	 esp, 12			; 0000000cH
  001f4	8d 85 f0 5f ff
	ff		 lea	 eax, DWORD PTR _szQuery$[ebp]
  001fa	8b cb		 mov	 ecx, ebx
  001fc	c7 44 24 08 00
	00 00 00	 mov	 DWORD PTR [esp+8], 0
  00204	c7 44 24 04 00
	00 00 00	 mov	 DWORD PTR [esp+4], 0
  0020c	c7 04 24 00 00
	00 00		 mov	 DWORD PTR [esp], 0
  00213	6a 00		 push	 0
  00215	6a 00		 push	 0
  00217	6a 41		 push	 65			; 00000041H
  00219	6a 00		 push	 0
  0021b	6a 00		 push	 0
  0021d	6a 00		 push	 0
  0021f	6a 00		 push	 0
  00221	6a 00		 push	 0
  00223	6a 00		 push	 0
  00225	6a 00		 push	 0
  00227	6a 00		 push	 0
  00229	6a 00		 push	 0
  0022b	6a 00		 push	 0
  0022d	6a 00		 push	 0
  0022f	6a 00		 push	 0
  00231	ff b5 9c 1f ff
	ff		 push	 DWORD PTR _iServer_No$1$[ebp]
  00237	6a 00		 push	 0
  00239	68 00 00 00 00	 push	 OFFSET ??_C@_02GOKBOOLC@L8@
  0023e	50		 push	 eax
  0023f	e8 00 00 00 00	 call	 ?DBQryLog@CDbManager@@QAEXPAD0KH_JHHHHHHHHHHDH0MMMHH0KHH0HHH0H0HK@Z ; CDbManager::DBQryLog

; 600  : 		0, 0, 0, 0, 0, 0, 'A',
; 601  : 		0, '\0', 0.0f, 0.0f, 0.0f, 0, 0,
; 602  : 		0, 0, 0, 0, '\0', 0, 0,
; 603  : 		0, strStart.GetBuffer( strStart.GetLength() ) );
; 604  : 
; 605  : 	if ( FALSE == qry->Exec( szQuery ) )

  00244	8b 8d 98 1f ff
	ff		 mov	 ecx, DWORD PTR _qry$GSCopy$1$[ebp]
  0024a	8d 85 f0 5f ff
	ff		 lea	 eax, DWORD PTR _szQuery$[ebp]
  00250	50		 push	 eax
  00251	e8 00 00 00 00	 call	 ?Exec@CQuery@@QAEHPBD@Z	; CQuery::Exec
  00256	85 c0		 test	 eax, eax
  00258	75 1e		 jne	 SHORT $LN2@LogServerD

; 606  : 	{
; 607  : 		WriteLog( "%s, %d\t%s", __FILE__, __LINE__, szQuery );

  0025a	8d 85 f0 5f ff
	ff		 lea	 eax, DWORD PTR _szQuery$[ebp]
  00260	50		 push	 eax
  00261	68 5f 02 00 00	 push	 607			; 0000025fH
  00266	68 00 00 00 00	 push	 OFFSET ??_C@_0DN@OEMKJAPO@C?3?2IAGOS?2server?2v18?2Source?2Sour@
  0026b	68 00 00 00 00	 push	 OFFSET ??_C@_09GBAEEKDE@?$CFs?0?5?$CFd?7?$CFs@
  00270	e8 00 00 00 00	 call	 ?WriteLog@@YAXPBDZZ	; WriteLog
  00275	83 c4 10	 add	 esp, 16			; 00000010H
$LN2@LogServerD:

; 613  : }

  00278	57		 push	 edi
  00279	8b cb		 mov	 ecx, ebx
  0027b	e8 00 00 00 00	 call	 ?FreeRequest@CDbManager@@QAEXPAUtagDB_OVERLAPPED_PLUS@@@Z ; CDbManager::FreeRequest
; File C:\Program Files\Microsoft Visual Studio\2022\Professional\VC\Tools\MSVC\14.44.35207\atlmfc\include\atlsimpstr.h

; 804  : 		return( reinterpret_cast< CStringData* >( m_pszData )-1 );

  00280	8b 95 a4 1f ff
	ff		 mov	 edx, DWORD PTR _strStart$[ebp]

; 92   : 		if( _InterlockedDecrement( &nRefs ) <= 0 )

  00286	83 c8 ff	 or	 eax, -1
; File C:\IAGOS\server\v18\Source\Source\_Database\DbManagerLog.cpp

; 613  : }

  00289	c6 45 fc 00	 mov	 BYTE PTR __$EHRec$[ebp+8], 0
; File C:\Program Files\Microsoft Visual Studio\2022\Professional\VC\Tools\MSVC\14.44.35207\atlmfc\include\atlsimpstr.h

; 804  : 		return( reinterpret_cast< CStringData* >( m_pszData )-1 );

  0028d	83 c2 f0	 add	 edx, -16		; fffffff0H

; 92   : 		if( _InterlockedDecrement( &nRefs ) <= 0 )

  00290	f0 0f c1 42 0c	 lock	  xadd	 DWORD PTR [edx+12], eax
  00295	48		 dec	 eax
  00296	85 c0		 test	 eax, eax
  00298	7f 08		 jg	 SHORT $LN93@LogServerD

; 93   : 		{
; 94   : 			pStringMgr->Free( this );

  0029a	8b 0a		 mov	 ecx, DWORD PTR [edx]
  0029c	52		 push	 edx
  0029d	8b 01		 mov	 eax, DWORD PTR [ecx]
  0029f	ff 50 04	 call	 DWORD PTR [eax+4]
$LN93@LogServerD:
; File C:\IAGOS\server\v18\Source\Source\_Database\DbManagerLog.cpp

; 613  : }

  002a2	8d 8d a8 1f ff
	ff		 lea	 ecx, DWORD PTR _arRead$[ebp]
  002a8	e8 00 00 00 00	 call	 ??1CAr@@QAE@XZ		; CAr::~CAr
  002ad	8b 4d f4	 mov	 ecx, DWORD PTR __$EHRec$[ebp]
  002b0	64 89 0d 00 00
	00 00		 mov	 DWORD PTR fs:0, ecx
  002b7	59		 pop	 ecx
  002b8	5f		 pop	 edi
  002b9	5e		 pop	 esi
  002ba	5b		 pop	 ebx
  002bb	8b 4d f0	 mov	 ecx, DWORD PTR __$ArrayPad$[ebp]
  002be	33 cd		 xor	 ecx, ebp
  002c0	e8 00 00 00 00	 call	 @__security_check_cookie@4
  002c5	8b e5		 mov	 esp, ebp
  002c7	5d		 pop	 ebp
  002c8	c2 08 00	 ret	 8
$LN95@LogServerD:
; File C:\Program Files\Microsoft Visual Studio\2022\Professional\VC\Tools\MSVC\14.44.35207\atlmfc\include\atltime.h

; 441  : 	ATLENSURE( nSec >= 0 && nSec <= 59 );

  002cb	68 05 40 00 80	 push	 -2147467259		; 80004005H
  002d0	e8 00 00 00 00	 call	 ?AtlThrowImpl@ATL@@YGXJ@Z ; ATL::AtlThrowImpl
$LN104@LogServerD:

; 458  : 	{
; 459  : 		AtlThrow(E_INVALIDARG);

  002d5	68 57 00 07 80	 push	 -2147024809		; 80070057H
  002da	e8 00 00 00 00	 call	 ?AtlThrowImpl@ATL@@YGXJ@Z ; ATL::AtlThrowImpl
$LN105@LogServerD:
; File C:\Program Files\Microsoft Visual Studio\2022\Professional\VC\Tools\MSVC\14.44.35207\atlmfc\include\atlsimpstr.h

; 809  : 			AtlThrow(E_INVALIDARG);

  002df	68 57 00 07 80	 push	 -2147024809		; 80070057H
  002e4	e8 00 00 00 00	 call	 ?AtlThrowImpl@ATL@@YGXJ@Z ; ATL::AtlThrowImpl
$LN102@LogServerD:
  002e9	cc		 int	 3
_TEXT	ENDS
;	COMDAT text$x
text$x	SEGMENT
__unwindfunclet$?LogServerDeath@CDbManager@@AAEXPAVCQuery@@PAUtagDB_OVERLAPPED_PLUS@@@Z$0:
  00000	8d 8d a8 1f ff
	ff		 lea	 ecx, DWORD PTR _arRead$[ebp]
  00006	e9 00 00 00 00	 jmp	 ??1CAr@@QAE@XZ		; CAr::~CAr
__unwindfunclet$?LogServerDeath@CDbManager@@AAEXPAVCQuery@@PAUtagDB_OVERLAPPED_PLUS@@@Z$1:
  0000b	8d 8d a4 1f ff
	ff		 lea	 ecx, DWORD PTR _strStart$[ebp]
  00011	e9 00 00 00 00	 jmp	 ??1?$CStringT@DV?$StrTraitMFC@DV?$ChTraitsCRT@D@ATL@@@@@ATL@@QAE@XZ ; ATL::CStringT<char,StrTraitMFC<char,ATL::ChTraitsCRT<char> > >::~CStringT<char,StrTraitMFC<char,ATL::ChTraitsCRT<char> > >
  00016	cc		 int	 3
  00017	cc		 int	 3
  00018	cc		 int	 3
  00019	cc		 int	 3
  0001a	cc		 int	 3
__ehhandler$?LogServerDeath@CDbManager@@AAEXPAVCQuery@@PAUtagDB_OVERLAPPED_PLUS@@@Z:
  0001b	90		 npad	 1
  0001c	90		 npad	 1
  0001d	8b 54 24 08	 mov	 edx, DWORD PTR [esp+8]
  00021	8d 42 0c	 lea	 eax, DWORD PTR [edx+12]
  00024	8b 8a 8c 1f ff
	ff		 mov	 ecx, DWORD PTR [edx-57460]
  0002a	33 c8		 xor	 ecx, eax
  0002c	e8 00 00 00 00	 call	 @__security_check_cookie@4
  00031	8b 4a fc	 mov	 ecx, DWORD PTR [edx-4]
  00034	33 c8		 xor	 ecx, eax
  00036	e8 00 00 00 00	 call	 @__security_check_cookie@4
  0003b	b8 00 00 00 00	 mov	 eax, OFFSET __ehfuncinfo$?LogServerDeath@CDbManager@@AAEXPAVCQuery@@PAUtagDB_OVERLAPPED_PLUS@@@Z
  00040	e9 00 00 00 00	 jmp	 ___CxxFrameHandler3
text$x	ENDS
?LogServerDeath@CDbManager@@AAEXPAVCQuery@@PAUtagDB_OVERLAPPED_PLUS@@@Z ENDP ; CDbManager::LogServerDeath
; Function compile flags: /Ogtp
; File C:\IAGOS\server\v18\Source\Source\_Database\DbManagerLog.cpp
;	COMDAT ?LogLevelUp@CDbManager@@AAEXPAVCQuery@@PAUtagDB_OVERLAPPED_PLUS@@@Z
_TEXT	SEGMENT
_iExp1$ = -57448					; size = 8
_qry$GSCopy$1$ = -57440					; size = 4
_iLevel$ = -57436					; size = 4
_iPlayJob$ = -57432					; size = 4
_iJobLevel$ = -57428					; size = 4
_iFlightLevel$ = -57424					; size = 4
_iStr$ = -57420						; size = 4
_iDex$ = -57416						; size = 4
_iInt$ = -57412						; size = 4
_iSta$ = -57408						; size = 4
_iGP$ = -57404						; size = 4
_iLP$ = -57400						; size = 4
_dwGold$ = -57396					; size = 4
_dwPlayerTime$ = -57392					; size = 4
_uidPlayer$ = -57388					; size = 4
_iAction$ = -57384					; size = 4
_cAction$ = -57384					; size = 1
_arRead$ = -57380					; size = 16404
_szQuery$ = -40976					; size = 40960
__$ArrayPad$ = -16					; size = 4
__$EHRec$ = -12						; size = 12
_qry$ = 8						; size = 4
_lpDbOverlappedPlus$ = 12				; size = 4
?LogLevelUp@CDbManager@@AAEXPAVCQuery@@PAUtagDB_OVERLAPPED_PLUS@@@Z PROC ; CDbManager::LogLevelUp, COMDAT
; _this$ = ecx

; 493  : {

  00000	55		 push	 ebp
  00001	8b ec		 mov	 ebp, esp
  00003	6a ff		 push	 -1
  00005	68 00 00 00 00	 push	 __ehhandler$?LogLevelUp@CDbManager@@AAEXPAVCQuery@@PAUtagDB_OVERLAPPED_PLUS@@@Z
  0000a	64 a1 00 00 00
	00		 mov	 eax, DWORD PTR fs:0
  00010	50		 push	 eax
  00011	b8 5c e0 00 00	 mov	 eax, 57436		; 0000e05cH
  00016	e8 00 00 00 00	 call	 __chkstk
  0001b	a1 00 00 00 00	 mov	 eax, DWORD PTR ___security_cookie
  00020	33 c5		 xor	 eax, ebp
  00022	89 45 f0	 mov	 DWORD PTR __$ArrayPad$[ebp], eax
  00025	53		 push	 ebx
  00026	57		 push	 edi
  00027	50		 push	 eax
  00028	8d 45 f4	 lea	 eax, DWORD PTR __$EHRec$[ebp]
  0002b	64 a3 00 00 00
	00		 mov	 DWORD PTR fs:0, eax
  00031	8b f9		 mov	 edi, ecx
  00033	8b 5d 0c	 mov	 ebx, DWORD PTR _lpDbOverlappedPlus$[ebp]

; 494  : 	CAr arRead( lpDbOverlappedPlus->lpBuf, lpDbOverlappedPlus->uBufSize );

  00036	8d 8d dc 1f ff
	ff		 lea	 ecx, DWORD PTR _arRead$[ebp]
  0003c	8b 45 08	 mov	 eax, DWORD PTR _qry$[ebp]
  0003f	89 85 a0 1f ff
	ff		 mov	 DWORD PTR _qry$GSCopy$1$[ebp], eax
  00045	ff 73 1c	 push	 DWORD PTR [ebx+28]
  00048	ff 73 18	 push	 DWORD PTR [ebx+24]
  0004b	e8 00 00 00 00	 call	 ??0CAr@@QAE@PAXI@Z	; CAr::CAr

; 495  : 
; 496  : 	char		cPlay[17] = {0,};					// Äł¸ŻĹÍ ľĆŔĚµđ
; 497  : 	int			iServer_No;							// Ľ­ąö ąřČŁ
; 498  : 	int			iLevel;								// Äł¸ŻĹÍ ·ąş§
; 499  : 	int			iPlayJob;							// Á÷ľ÷_No
; 500  : 	int			iJobLevel;							// Á÷ľ÷ ·ąş§
; 501  : 	int			iStr;								// Čű
; 502  : 	int			iDex;								// ąÎĂ¸
; 503  : 	int			iInt;								// Áö´É
; 504  : 	int			iSta;								// ĂĽ·Â
; 505  : 	int			iGP;								// GP(ĽşŔĺĆ÷ŔÎĆ®)
; 506  : 	int			iLP;								// LP(±łŔ°Ć÷ŔÎĆ®)
; 507  : 	EXPINTEGER	iExp1;								// Exp(°ćÇčÄˇ)
; 508  : 	int			iFlightLevel;						// şńÇŕ·ąş§
; 509  : 	char		cAction;							// Çŕµż( ¸ó˝şĹÍ¸¦ Á×ż©Ľ­ ·ľľ÷Ŕ» ÇĎż©ż´´ÂÁö, Äů˝şĆ®¸¦ ŔĚżëÇĎż© ·ľľ÷Ŕ» ÇĎż´´ÂÁö¸¦ łŞĹ¸łż
; 510  : 	u_long		uidPlayer;							
; 511  : 	DWORD		dwGold;
; 512  : 	DWORD		dwPlayerTime;	
; 513  : 
; 514  : 	iServer_No	= g_appInfo.dwSys;
; 515  : 
; 516  : 	arRead >> iExp1;

  00050	8d 85 98 1f ff
	ff		 lea	 eax, DWORD PTR _iExp1$[ebp]
  00056	c7 45 fc 00 00
	00 00		 mov	 DWORD PTR __$EHRec$[ebp+8], 0
  0005d	50		 push	 eax
  0005e	8d 8d dc 1f ff
	ff		 lea	 ecx, DWORD PTR _arRead$[ebp]
  00064	e8 00 00 00 00	 call	 ??$?5_J@CAr@@QAEAAV0@AA_J@Z ; CAr::operator>><__int64>

; 517  : 	arRead >> iFlightLevel;

  00069	8d 85 b0 1f ff
	ff		 lea	 eax, DWORD PTR _iFlightLevel$[ebp]
  0006f	50		 push	 eax
  00070	8d 8d dc 1f ff
	ff		 lea	 ecx, DWORD PTR _arRead$[ebp]
  00076	e8 00 00 00 00	 call	 ??$?5H@CAr@@QAEAAV0@AAH@Z ; CAr::operator>><int>

; 518  : 	arRead >> iLevel;

  0007b	8d 85 a4 1f ff
	ff		 lea	 eax, DWORD PTR _iLevel$[ebp]
  00081	50		 push	 eax
  00082	8d 8d dc 1f ff
	ff		 lea	 ecx, DWORD PTR _arRead$[ebp]
  00088	e8 00 00 00 00	 call	 ??$?5H@CAr@@QAEAAV0@AAH@Z ; CAr::operator>><int>

; 519  : 	arRead >> iPlayJob;

  0008d	8d 85 a8 1f ff
	ff		 lea	 eax, DWORD PTR _iPlayJob$[ebp]
  00093	50		 push	 eax
  00094	8d 8d dc 1f ff
	ff		 lea	 ecx, DWORD PTR _arRead$[ebp]
  0009a	e8 00 00 00 00	 call	 ??$?5H@CAr@@QAEAAV0@AAH@Z ; CAr::operator>><int>

; 520  : 	arRead >> iJobLevel;

  0009f	8d 85 ac 1f ff
	ff		 lea	 eax, DWORD PTR _iJobLevel$[ebp]
  000a5	50		 push	 eax
  000a6	8d 8d dc 1f ff
	ff		 lea	 ecx, DWORD PTR _arRead$[ebp]
  000ac	e8 00 00 00 00	 call	 ??$?5H@CAr@@QAEAAV0@AAH@Z ; CAr::operator>><int>

; 521  : 	arRead >> iStr;

  000b1	8d 85 b4 1f ff
	ff		 lea	 eax, DWORD PTR _iStr$[ebp]
  000b7	50		 push	 eax
  000b8	8d 8d dc 1f ff
	ff		 lea	 ecx, DWORD PTR _arRead$[ebp]
  000be	e8 00 00 00 00	 call	 ??$?5H@CAr@@QAEAAV0@AAH@Z ; CAr::operator>><int>

; 522  : 	arRead >> iDex;

  000c3	8d 85 b8 1f ff
	ff		 lea	 eax, DWORD PTR _iDex$[ebp]
  000c9	50		 push	 eax
  000ca	8d 8d dc 1f ff
	ff		 lea	 ecx, DWORD PTR _arRead$[ebp]
  000d0	e8 00 00 00 00	 call	 ??$?5H@CAr@@QAEAAV0@AAH@Z ; CAr::operator>><int>

; 523  : 	arRead >> iInt;

  000d5	8d 85 bc 1f ff
	ff		 lea	 eax, DWORD PTR _iInt$[ebp]
  000db	50		 push	 eax
  000dc	8d 8d dc 1f ff
	ff		 lea	 ecx, DWORD PTR _arRead$[ebp]
  000e2	e8 00 00 00 00	 call	 ??$?5H@CAr@@QAEAAV0@AAH@Z ; CAr::operator>><int>

; 524  : 	arRead >> iSta;

  000e7	8d 85 c0 1f ff
	ff		 lea	 eax, DWORD PTR _iSta$[ebp]
  000ed	50		 push	 eax
  000ee	8d 8d dc 1f ff
	ff		 lea	 ecx, DWORD PTR _arRead$[ebp]
  000f4	e8 00 00 00 00	 call	 ??$?5H@CAr@@QAEAAV0@AAH@Z ; CAr::operator>><int>

; 525  : 	arRead >> iGP;

  000f9	8d 85 c4 1f ff
	ff		 lea	 eax, DWORD PTR _iGP$[ebp]
  000ff	50		 push	 eax
  00100	8d 8d dc 1f ff
	ff		 lea	 ecx, DWORD PTR _arRead$[ebp]
  00106	e8 00 00 00 00	 call	 ??$?5H@CAr@@QAEAAV0@AAH@Z ; CAr::operator>><int>

; 526  : 	arRead >> iLP;

  0010b	8d 85 c8 1f ff
	ff		 lea	 eax, DWORD PTR _iLP$[ebp]
  00111	50		 push	 eax
  00112	8d 8d dc 1f ff
	ff		 lea	 ecx, DWORD PTR _arRead$[ebp]
  00118	e8 00 00 00 00	 call	 ??$?5H@CAr@@QAEAAV0@AAH@Z ; CAr::operator>><int>

; 527  : 	arRead >> dwGold;

  0011d	8d 85 cc 1f ff
	ff		 lea	 eax, DWORD PTR _dwGold$[ebp]
  00123	50		 push	 eax
  00124	8d 8d dc 1f ff
	ff		 lea	 ecx, DWORD PTR _arRead$[ebp]
  0012a	e8 00 00 00 00	 call	 ??$?5K@CAr@@QAEAAV0@AAK@Z ; CAr::operator>><unsigned long>

; 528  : 	arRead >> dwPlayerTime;

  0012f	8d 85 d0 1f ff
	ff		 lea	 eax, DWORD PTR _dwPlayerTime$[ebp]
  00135	50		 push	 eax
  00136	8d 8d dc 1f ff
	ff		 lea	 ecx, DWORD PTR _arRead$[ebp]
  0013c	e8 00 00 00 00	 call	 ??$?5K@CAr@@QAEAAV0@AAK@Z ; CAr::operator>><unsigned long>

; 529  : 	
; 530  : 	int iAction;
; 531  : 	arRead >> iAction;

  00141	8d 85 d8 1f ff
	ff		 lea	 eax, DWORD PTR _iAction$[ebp]
  00147	50		 push	 eax
  00148	8d 8d dc 1f ff
	ff		 lea	 ecx, DWORD PTR _arRead$[ebp]
  0014e	e8 00 00 00 00	 call	 ??$?5H@CAr@@QAEAAV0@AAH@Z ; CAr::operator>><int>

; 532  : 	arRead >> uidPlayer;

  00153	8d 85 d4 1f ff
	ff		 lea	 eax, DWORD PTR _uidPlayer$[ebp]
  00159	50		 push	 eax
  0015a	8d 8d dc 1f ff
	ff		 lea	 ecx, DWORD PTR _arRead$[ebp]
  00160	e8 00 00 00 00	 call	 ??$?5K@CAr@@QAEAAV0@AAK@Z ; CAr::operator>><unsigned long>

; 533  : 	switch( iAction )

  00165	8b 85 d8 1f ff
	ff		 mov	 eax, DWORD PTR _iAction$[ebp]
  0016b	8d 48 ff	 lea	 ecx, DWORD PTR [eax-1]
  0016e	83 f9 09	 cmp	 ecx, 9
  00171	0f 87 62 01 00
	00		 ja	 $LN14@LogLevelUp
  00177	ff 24 8d 00 00
	00 00		 jmp	 DWORD PTR $LN20@LogLevelUp[ecx*4]
$LN4@LogLevelUp:

; 534  : 	{
; 535  : 	case 1:					// ·ąş§ ľ÷
; 536  : 		cAction = 'L';

  0017e	c6 85 d8 1f ff
	ff 4c		 mov	 BYTE PTR _cAction$[ebp], 76 ; 0000004cH

; 537  : 		break;

  00185	eb 4f		 jmp	 SHORT $LN2@LogLevelUp
$LN5@LogLevelUp:

; 538  : 	case 2:					// ˝şĹČ ľ÷
; 539  : 		cAction = 'S';

  00187	c6 85 d8 1f ff
	ff 53		 mov	 BYTE PTR _cAction$[ebp], 83 ; 00000053H

; 540  : 		break;

  0018e	eb 46		 jmp	 SHORT $LN2@LogLevelUp
$LN6@LogLevelUp:

; 541  : 	case 3:					// Ŕâ(Á÷ľ÷)·ąş§ ľ÷
; 542  : 		cAction = 'J';

  00190	c6 85 d8 1f ff
	ff 4a		 mov	 BYTE PTR _cAction$[ebp], 74 ; 0000004aH

; 543  : 		break;

  00197	eb 3d		 jmp	 SHORT $LN2@LogLevelUp
$LN7@LogLevelUp:

; 544  : 	case 4:					// ŔüÁ÷
; 545  : 		cAction = 'C';

  00199	c6 85 d8 1f ff
	ff 43		 mov	 BYTE PTR _cAction$[ebp], 67 ; 00000043H

; 546  : 		break;

  001a0	eb 34		 jmp	 SHORT $LN2@LogLevelUp
$LN8@LogLevelUp:

; 547  : 	case 5:					// °ćÇčÄˇ ·ľ 5ŔĚ»ó 20%´ÜŔ§
; 548  : 		cAction = 'E';

  001a2	c6 85 d8 1f ff
	ff 45		 mov	 BYTE PTR _cAction$[ebp], 69 ; 00000045H

; 549  : 		break;

  001a9	eb 2b		 jmp	 SHORT $LN2@LogLevelUp
$LN9@LogLevelUp:

; 550  : 	case 6:
; 551  : 		cAction = 'D';		// °ćÇčÄˇ ´Ůżî˝Ă ·ľµű

  001ab	c6 85 d8 1f ff
	ff 44		 mov	 BYTE PTR _cAction$[ebp], 68 ; 00000044H

; 552  : 		break;

  001b2	eb 22		 jmp	 SHORT $LN2@LogLevelUp
$LN10@LogLevelUp:

; 553  : 	case 7:
; 554  : 		cAction = 'M';		// °ćÇčÄˇ ´Ůżî

  001b4	c6 85 d8 1f ff
	ff 4d		 mov	 BYTE PTR _cAction$[ebp], 77 ; 0000004dH

; 555  : 		break;

  001bb	eb 19		 jmp	 SHORT $LN2@LogLevelUp
$LN11@LogLevelUp:

; 556  : 	case 8:
; 557  : 		cAction = '1';		// ·Îµĺ¶óŔĚĆ®

  001bd	c6 85 d8 1f ff
	ff 31		 mov	 BYTE PTR _cAction$[ebp], 49 ; 00000031H

; 558  : 		break;

  001c4	eb 10		 jmp	 SHORT $LN2@LogLevelUp
$LN12@LogLevelUp:

; 559  : 	case 9:
; 560  : 		cAction = '2';		// ·Îµĺ˝şĹ¸

  001c6	c6 85 d8 1f ff
	ff 32		 mov	 BYTE PTR _cAction$[ebp], 50 ; 00000032H

; 561  : 		break;

  001cd	eb 07		 jmp	 SHORT $LN2@LogLevelUp
$LN13@LogLevelUp:

; 562  : 	case 10:
; 563  : 		cAction = '3';		// ´©±ş°ˇ°ˇ şÎČ°Ŕ» ÇŘÁÖľúµű

  001cf	c6 85 d8 1f ff
	ff 33		 mov	 BYTE PTR _cAction$[ebp], 51 ; 00000033H
$LN2@LogLevelUp:

; 568  : 			FreeRequest( lpDbOverlappedPlus );
; 569  : 			return;
; 570  : 		}
; 571  : 	}
; 572  : 
; 573  : 	char szQuery[QUERY_SIZE]	= { 0,};

  001d6	68 00 a0 00 00	 push	 40960			; 0000a000H
  001db	8d 85 f0 5f ff
	ff		 lea	 eax, DWORD PTR _szQuery$[ebp]
  001e1	6a 00		 push	 0
  001e3	50		 push	 eax
  001e4	e8 00 00 00 00	 call	 _memset
  001e9	83 c4 0c	 add	 esp, 12			; 0000000cH

; 574  : 	DBQryLog( szQuery, "L1", uidPlayer, iServer_No, iExp1, iLevel, iPlayJob, iJobLevel, iFlightLevel, iStr, iDex, iInt, iSta, iGP, iLP, cAction, 0, '\0', 0, 0, 0, dwGold, dwPlayerTime );

  001ec	8d 85 f0 5f ff
	ff		 lea	 eax, DWORD PTR _szQuery$[ebp]
  001f2	8b cf		 mov	 ecx, edi
  001f4	6a 00		 push	 0
  001f6	6a 00		 push	 0
  001f8	6a 00		 push	 0
  001fa	6a 00		 push	 0
  001fc	6a 00		 push	 0
  001fe	6a 00		 push	 0
  00200	6a 00		 push	 0
  00202	6a 00		 push	 0
  00204	6a 00		 push	 0
  00206	6a 00		 push	 0
  00208	6a 00		 push	 0
  0020a	6a 00		 push	 0
  0020c	6a 00		 push	 0
  0020e	ff b5 d0 1f ff
	ff		 push	 DWORD PTR _dwPlayerTime$[ebp]
  00214	ff b5 cc 1f ff
	ff		 push	 DWORD PTR _dwGold$[ebp]
  0021a	83 ec 0c	 sub	 esp, 12			; 0000000cH
  0021d	c7 44 24 08 00
	00 00 00	 mov	 DWORD PTR [esp+8], 0
  00225	c7 44 24 04 00
	00 00 00	 mov	 DWORD PTR [esp+4], 0
  0022d	c7 04 24 00 00
	00 00		 mov	 DWORD PTR [esp], 0
  00234	6a 00		 push	 0
  00236	6a 00		 push	 0
  00238	ff b5 d8 1f ff
	ff		 push	 DWORD PTR _cAction$[ebp]
  0023e	ff b5 c8 1f ff
	ff		 push	 DWORD PTR _iLP$[ebp]
  00244	ff b5 c4 1f ff
	ff		 push	 DWORD PTR _iGP$[ebp]
  0024a	ff b5 c0 1f ff
	ff		 push	 DWORD PTR _iSta$[ebp]
  00250	ff b5 bc 1f ff
	ff		 push	 DWORD PTR _iInt$[ebp]
  00256	ff b5 b8 1f ff
	ff		 push	 DWORD PTR _iDex$[ebp]
  0025c	ff b5 b4 1f ff
	ff		 push	 DWORD PTR _iStr$[ebp]
  00262	ff b5 b0 1f ff
	ff		 push	 DWORD PTR _iFlightLevel$[ebp]
  00268	ff b5 ac 1f ff
	ff		 push	 DWORD PTR _iJobLevel$[ebp]
  0026e	ff b5 a8 1f ff
	ff		 push	 DWORD PTR _iPlayJob$[ebp]
  00274	ff b5 a4 1f ff
	ff		 push	 DWORD PTR _iLevel$[ebp]
  0027a	ff b5 9c 1f ff
	ff		 push	 DWORD PTR _iExp1$[ebp+4]
  00280	ff b5 98 1f ff
	ff		 push	 DWORD PTR _iExp1$[ebp]
  00286	ff 35 00 00 00
	00		 push	 DWORD PTR ?g_appInfo@@3UAppInfo@@A
  0028c	ff b5 d4 1f ff
	ff		 push	 DWORD PTR _uidPlayer$[ebp]
  00292	68 00 00 00 00	 push	 OFFSET ??_C@_02LPGDFFPL@L1@
  00297	50		 push	 eax
  00298	e8 00 00 00 00	 call	 ?DBQryLog@CDbManager@@QAEXPAD0KH_JHHHHHHHHHHDH0MMMHH0KHH0HHH0H0HK@Z ; CDbManager::DBQryLog

; 575  : 
; 576  : 	if ( FALSE == qry->Exec( szQuery ) )

  0029d	8b 8d a0 1f ff
	ff		 mov	 ecx, DWORD PTR _qry$GSCopy$1$[ebp]
  002a3	8d 85 f0 5f ff
	ff		 lea	 eax, DWORD PTR _szQuery$[ebp]
  002a9	50		 push	 eax
  002aa	e8 00 00 00 00	 call	 ?Exec@CQuery@@QAEHPBD@Z	; CQuery::Exec
  002af	85 c0		 test	 eax, eax
  002b1	75 3e		 jne	 SHORT $LN18@LogLevelUp

; 577  : 	{
; 578  : 		WriteLog( "%s, %d\t%d, %s", __FILE__, __LINE__, uidPlayer, szQuery );

  002b3	8d 85 f0 5f ff
	ff		 lea	 eax, DWORD PTR _szQuery$[ebp]
  002b9	50		 push	 eax
  002ba	ff b5 d4 1f ff
	ff		 push	 DWORD PTR _uidPlayer$[ebp]
  002c0	68 42 02 00 00	 push	 578			; 00000242H
  002c5	68 00 00 00 00	 push	 OFFSET ??_C@_0DN@OEMKJAPO@C?3?2IAGOS?2server?2v18?2Source?2Sour@
  002ca	68 00 00 00 00	 push	 OFFSET ??_C@_0O@NMNJACAM@?$CFs?0?5?$CFd?7?$CFd?0?5?$CFs@
  002cf	e8 00 00 00 00	 call	 ?WriteLog@@YAXPBDZZ	; WriteLog
  002d4	83 c4 14	 add	 esp, 20			; 00000014H

; 579  : 		FreeRequest( lpDbOverlappedPlus );

  002d7	eb 18		 jmp	 SHORT $LN18@LogLevelUp
$LN14@LogLevelUp:

; 564  : 		break;		
; 565  : 	default:
; 566  : 		{
; 567  : 			WriteLog( "%s, %d\t%c", __FILE__, __LINE__, iAction );

  002d9	50		 push	 eax
  002da	68 37 02 00 00	 push	 567			; 00000237H
  002df	68 00 00 00 00	 push	 OFFSET ??_C@_0DN@OEMKJAPO@C?3?2IAGOS?2server?2v18?2Source?2Sour@
  002e4	68 00 00 00 00	 push	 OFFSET ??_C@_09CLMGFIGF@?$CFs?0?5?$CFd?7?$CFc@
  002e9	e8 00 00 00 00	 call	 ?WriteLog@@YAXPBDZZ	; WriteLog
  002ee	83 c4 10	 add	 esp, 16			; 00000010H
$LN18@LogLevelUp:

; 580  : 		return;
; 581  : 	}
; 582  : 
; 583  : 	FreeRequest( lpDbOverlappedPlus );
; 584  : }

  002f1	53		 push	 ebx
  002f2	8b cf		 mov	 ecx, edi
  002f4	e8 00 00 00 00	 call	 ?FreeRequest@CDbManager@@QAEXPAUtagDB_OVERLAPPED_PLUS@@@Z ; CDbManager::FreeRequest
  002f9	8d 8d dc 1f ff
	ff		 lea	 ecx, DWORD PTR _arRead$[ebp]
  002ff	e8 00 00 00 00	 call	 ??1CAr@@QAE@XZ		; CAr::~CAr
  00304	8b 4d f4	 mov	 ecx, DWORD PTR __$EHRec$[ebp]
  00307	64 89 0d 00 00
	00 00		 mov	 DWORD PTR fs:0, ecx
  0030e	59		 pop	 ecx
  0030f	5f		 pop	 edi
  00310	5b		 pop	 ebx
  00311	8b 4d f0	 mov	 ecx, DWORD PTR __$ArrayPad$[ebp]
  00314	33 cd		 xor	 ecx, ebp
  00316	e8 00 00 00 00	 call	 @__security_check_cookie@4
  0031b	8b e5		 mov	 esp, ebp
  0031d	5d		 pop	 ebp
  0031e	c2 08 00	 ret	 8
  00321	0f 1f 00	 npad	 3
$LN20@LogLevelUp:
  00324	00 00 00 00	 DD	 $LN4@LogLevelUp
  00328	00 00 00 00	 DD	 $LN5@LogLevelUp
  0032c	00 00 00 00	 DD	 $LN6@LogLevelUp
  00330	00 00 00 00	 DD	 $LN7@LogLevelUp
  00334	00 00 00 00	 DD	 $LN8@LogLevelUp
  00338	00 00 00 00	 DD	 $LN9@LogLevelUp
  0033c	00 00 00 00	 DD	 $LN10@LogLevelUp
  00340	00 00 00 00	 DD	 $LN11@LogLevelUp
  00344	00 00 00 00	 DD	 $LN12@LogLevelUp
  00348	00 00 00 00	 DD	 $LN13@LogLevelUp
_TEXT	ENDS
;	COMDAT text$x
text$x	SEGMENT
__unwindfunclet$?LogLevelUp@CDbManager@@AAEXPAVCQuery@@PAUtagDB_OVERLAPPED_PLUS@@@Z$0:
  00000	8d 8d dc 1f ff
	ff		 lea	 ecx, DWORD PTR _arRead$[ebp]
  00006	e9 00 00 00 00	 jmp	 ??1CAr@@QAE@XZ		; CAr::~CAr
  0000b	cc		 int	 3
  0000c	cc		 int	 3
  0000d	cc		 int	 3
  0000e	cc		 int	 3
  0000f	cc		 int	 3
__ehhandler$?LogLevelUp@CDbManager@@AAEXPAVCQuery@@PAUtagDB_OVERLAPPED_PLUS@@@Z:
  00010	90		 npad	 1
  00011	90		 npad	 1
  00012	8b 54 24 08	 mov	 edx, DWORD PTR [esp+8]
  00016	8d 42 0c	 lea	 eax, DWORD PTR [edx+12]
  00019	8b 8a 98 1f ff
	ff		 mov	 ecx, DWORD PTR [edx-57448]
  0001f	33 c8		 xor	 ecx, eax
  00021	e8 00 00 00 00	 call	 @__security_check_cookie@4
  00026	8b 4a fc	 mov	 ecx, DWORD PTR [edx-4]
  00029	33 c8		 xor	 ecx, eax
  0002b	e8 00 00 00 00	 call	 @__security_check_cookie@4
  00030	b8 00 00 00 00	 mov	 eax, OFFSET __ehfuncinfo$?LogLevelUp@CDbManager@@AAEXPAVCQuery@@PAUtagDB_OVERLAPPED_PLUS@@@Z
  00035	e9 00 00 00 00	 jmp	 ___CxxFrameHandler3
text$x	ENDS
?LogLevelUp@CDbManager@@AAEXPAVCQuery@@PAUtagDB_OVERLAPPED_PLUS@@@Z ENDP ; CDbManager::LogLevelUp
; Function compile flags: /Ogtp
; File C:\IAGOS\server\v18\Source\Source\_Database\DbManagerLog.cpp
; File C:\Program Files\Microsoft Visual Studio\2022\Professional\VC\Tools\MSVC\14.44.35207\atlmfc\include\afxstr.h
; File C:\Program Files\Microsoft Visual Studio\2022\Professional\VC\Tools\MSVC\14.44.35207\atlmfc\include\atlsimpstr.h
; File C:\Program Files\Microsoft Visual Studio\2022\Professional\VC\Tools\MSVC\14.44.35207\atlmfc\include\cstringt.h
; File C:\Program Files\Microsoft Visual Studio\2022\Professional\VC\Tools\MSVC\14.44.35207\atlmfc\include\atlsimpstr.h
; File C:\IAGOS\server\v18\Source\Source\_Database\DbManagerLog.cpp
; File C:\Program Files\Microsoft Visual Studio\2022\Professional\VC\Tools\MSVC\14.44.35207\atlmfc\include\atlsimpstr.h
; File C:\IAGOS\server\v18\Source\Source\_Database\DbManagerLog.cpp
; File C:\Program Files\Microsoft Visual Studio\2022\Professional\VC\Tools\MSVC\14.44.35207\atlmfc\include\atlsimpstr.h
; File C:\IAGOS\server\v18\Source\Source\_Database\DbManagerLog.cpp
; File C:\Program Files\Microsoft Visual Studio\2022\Professional\VC\Tools\MSVC\14.44.35207\atlmfc\include\atlsimpstr.h
; File C:\IAGOS\server\v18\Source\Source\_Database\DbManagerLog.cpp
;	COMDAT ?LogPlayDeath@CDbManager@@AAEXPAVCQuery@@PAUtagDB_OVERLAPPED_PLUS@@@Z
_TEXT	SEGMENT
_Pos$ = -57532						; size = 12
_qry$GSCopy$1$ = -57520					; size = 4
_uidPlayer$ = -57516					; size = 4
_iLevel$ = -57512					; size = 4
_dWorld_No$ = -57508					; size = 4
_iAttackDmg$ = -57504					; size = 4
_iMaxHP$ = -57500					; size = 4
_lpDbOverlappedPlus$GSCopy$1$ = -57496			; size = 4
_strMurderName$ = -57492				; size = 4
_arRead$ = -57488					; size = 16404
_szQuery$ = -41084					; size = 40960
_cPlay$ = -124						; size = 42
_cMurder$ = -80						; size = 64
__$ArrayPad$ = -16					; size = 4
__$EHRec$ = -12						; size = 12
_qry$ = 8						; size = 4
_lpDbOverlappedPlus$ = 12				; size = 4
?LogPlayDeath@CDbManager@@AAEXPAVCQuery@@PAUtagDB_OVERLAPPED_PLUS@@@Z PROC ; CDbManager::LogPlayDeath, COMDAT
; _this$ = ecx

; 444  : {

  00000	55		 push	 ebp
  00001	8b ec		 mov	 ebp, esp
  00003	6a ff		 push	 -1
  00005	68 00 00 00 00	 push	 __ehhandler$?LogPlayDeath@CDbManager@@AAEXPAVCQuery@@PAUtagDB_OVERLAPPED_PLUS@@@Z
  0000a	64 a1 00 00 00
	00		 mov	 eax, DWORD PTR fs:0
  00010	50		 push	 eax
  00011	b8 b0 e0 00 00	 mov	 eax, 57520		; 0000e0b0H
  00016	e8 00 00 00 00	 call	 __chkstk
  0001b	a1 00 00 00 00	 mov	 eax, DWORD PTR ___security_cookie
  00020	33 c5		 xor	 eax, ebp
  00022	89 45 f0	 mov	 DWORD PTR __$ArrayPad$[ebp], eax
  00025	53		 push	 ebx
  00026	56		 push	 esi
  00027	57		 push	 edi
  00028	50		 push	 eax
  00029	8d 45 f4	 lea	 eax, DWORD PTR __$EHRec$[ebp]
  0002c	64 a3 00 00 00
	00		 mov	 DWORD PTR fs:0, eax
  00032	8b f9		 mov	 edi, ecx
  00034	8b 45 08	 mov	 eax, DWORD PTR _qry$[ebp]

; 445  : 	CAr arRead( lpDbOverlappedPlus->lpBuf, lpDbOverlappedPlus->uBufSize );

  00037	8d 8d 70 1f ff
	ff		 lea	 ecx, DWORD PTR _arRead$[ebp]
  0003d	89 85 50 1f ff
	ff		 mov	 DWORD PTR _qry$GSCopy$1$[ebp], eax
  00043	8b 45 0c	 mov	 eax, DWORD PTR _lpDbOverlappedPlus$[ebp]
  00046	89 85 68 1f ff
	ff		 mov	 DWORD PTR _lpDbOverlappedPlus$GSCopy$1$[ebp], eax
  0004c	ff 70 1c	 push	 DWORD PTR [eax+28]
  0004f	ff 70 18	 push	 DWORD PTR [eax+24]
  00052	e8 00 00 00 00	 call	 ??0CAr@@QAE@PAXI@Z	; CAr::CAr

; 446  : 
; 447  : 	char		cPlay[MAX_PLAYER] = { 0, };					// Äł¸ŻĹÍ ľĆŔĚµđ

  00057	6a 2a		 push	 42			; 0000002aH
  00059	8d 45 84	 lea	 eax, DWORD PTR _cPlay$[ebp]
  0005c	c7 45 fc 00 00
	00 00		 mov	 DWORD PTR __$EHRec$[ebp+8], 0
  00063	6a 00		 push	 0
  00065	50		 push	 eax
  00066	e8 00 00 00 00	 call	 _memset

; 448  : 	int			iServer_No;							// Ľ­ąö ąřČŁ
; 449  : 	DWORD		dWorld_No;							// żůµĺ ąřČŁ
; 450  : 	D3DXVECTOR3	Pos;								// ÁÂÇĄ
; 451  : 	int			iLevel;								// ·ąş§
; 452  : 	int			iAttackDmg;							// ĂÖ´ë°ř°Ý·Â
; 453  : 	int			iMaxHP;								// ĂÖ´ë HP
; 454  : 	char		cMurder[64] = { 0, };				// »ěŔÎŔÚ (¸ó˝şĹÍłŞ Äł¸Ż, Ć®¸Ż)

  0006b	6a 40		 push	 64			; 00000040H
  0006d	8d 45 b0	 lea	 eax, DWORD PTR _cMurder$[ebp]
  00070	6a 00		 push	 0
  00072	50		 push	 eax
  00073	e8 00 00 00 00	 call	 _memset
  00078	83 c4 18	 add	 esp, 24			; 00000018H

; 455  : 	u_long		uidPlayer;
; 456  : 
; 457  : 
; 458  : 	arRead.ReadString( cPlay, MAX_PLAYER );

  0007b	8d 45 84	 lea	 eax, DWORD PTR _cPlay$[ebp]
  0007e	8d 8d 70 1f ff
	ff		 lea	 ecx, DWORD PTR _arRead$[ebp]
  00084	6a 2a		 push	 42			; 0000002aH
  00086	50		 push	 eax
  00087	e8 00 00 00 00	 call	 ?ReadString@CAr@@QAEPADPADH@Z ; CAr::ReadString

; 459  : 	iServer_No	= g_appInfo.dwSys;

  0008c	8b 1d 00 00 00
	00		 mov	 ebx, DWORD PTR ?g_appInfo@@3UAppInfo@@A

; 460  : 	arRead >> dWorld_No;

  00092	8d 85 5c 1f ff
	ff		 lea	 eax, DWORD PTR _dWorld_No$[ebp]
  00098	50		 push	 eax
  00099	8d 8d 70 1f ff
	ff		 lea	 ecx, DWORD PTR _arRead$[ebp]
  0009f	e8 00 00 00 00	 call	 ??$?5K@CAr@@QAEAAV0@AAK@Z ; CAr::operator>><unsigned long>

; 461  : 	arRead >> Pos;

  000a4	8d 85 44 1f ff
	ff		 lea	 eax, DWORD PTR _Pos$[ebp]
  000aa	50		 push	 eax
  000ab	8d 8d 70 1f ff
	ff		 lea	 ecx, DWORD PTR _arRead$[ebp]
  000b1	e8 00 00 00 00	 call	 ??$?5UD3DXVECTOR3@@@CAr@@QAEAAV0@AAUD3DXVECTOR3@@@Z ; CAr::operator>><D3DXVECTOR3>

; 462  : 	arRead >> iLevel;

  000b6	8d 85 58 1f ff
	ff		 lea	 eax, DWORD PTR _iLevel$[ebp]
  000bc	50		 push	 eax
  000bd	8d 8d 70 1f ff
	ff		 lea	 ecx, DWORD PTR _arRead$[ebp]
  000c3	e8 00 00 00 00	 call	 ??$?5H@CAr@@QAEAAV0@AAH@Z ; CAr::operator>><int>

; 463  : 	arRead >> iAttackDmg;

  000c8	8d 85 60 1f ff
	ff		 lea	 eax, DWORD PTR _iAttackDmg$[ebp]
  000ce	50		 push	 eax
  000cf	8d 8d 70 1f ff
	ff		 lea	 ecx, DWORD PTR _arRead$[ebp]
  000d5	e8 00 00 00 00	 call	 ??$?5H@CAr@@QAEAAV0@AAH@Z ; CAr::operator>><int>

; 464  : 	arRead >> iMaxHP;

  000da	8d 85 64 1f ff
	ff		 lea	 eax, DWORD PTR _iMaxHP$[ebp]
  000e0	50		 push	 eax
  000e1	8d 8d 70 1f ff
	ff		 lea	 ecx, DWORD PTR _arRead$[ebp]
  000e7	e8 00 00 00 00	 call	 ??$?5H@CAr@@QAEAAV0@AAH@Z ; CAr::operator>><int>

; 465  : 	arRead.ReadString( cMurder, 64 );

  000ec	6a 40		 push	 64			; 00000040H
  000ee	8d 45 b0	 lea	 eax, DWORD PTR _cMurder$[ebp]
  000f1	50		 push	 eax
  000f2	8d 8d 70 1f ff
	ff		 lea	 ecx, DWORD PTR _arRead$[ebp]
  000f8	e8 00 00 00 00	 call	 ?ReadString@CAr@@QAEPADPADH@Z ; CAr::ReadString

; 466  : 	arRead >> uidPlayer;

  000fd	8d 85 54 1f ff
	ff		 lea	 eax, DWORD PTR _uidPlayer$[ebp]
  00103	50		 push	 eax
  00104	8d 8d 70 1f ff
	ff		 lea	 ecx, DWORD PTR _arRead$[ebp]
  0010a	e8 00 00 00 00	 call	 ??$?5K@CAr@@QAEAAV0@AAK@Z ; CAr::operator>><unsigned long>

; 467  : 
; 468  : 	
; 469  : 	char szQuery[QUERY_SIZE]	= { 0,};

  0010f	68 00 a0 00 00	 push	 40960			; 0000a000H
  00114	8d 85 84 5f ff
	ff		 lea	 eax, DWORD PTR _szQuery$[ebp]
  0011a	6a 00		 push	 0
  0011c	50		 push	 eax
  0011d	e8 00 00 00 00	 call	 _memset
  00122	83 c4 0c	 add	 esp, 12			; 0000000cH
; File C:\Program Files\Microsoft Visual Studio\2022\Professional\VC\Tools\MSVC\14.44.35207\atlmfc\include\afxstr.h

; 56   : 		return( AfxGetStringManager() );

  00125	e8 00 00 00 00	 call	 ?AfxGetStringManager@@YGPAUIAtlStringMgr@ATL@@XZ ; AfxGetStringManager
  0012a	8b c8		 mov	 ecx, eax
; File C:\Program Files\Microsoft Visual Studio\2022\Professional\VC\Tools\MSVC\14.44.35207\atlmfc\include\atlsimpstr.h

; 209  : 		ATLENSURE( pStringMgr != NULL );

  0012c	85 c9		 test	 ecx, ecx
  0012e	0f 84 97 01 00
	00		 je	 $LN58@LogPlayDea

; 210  : 		CStringData* pData = pStringMgr->GetNilString();

  00134	8b 01		 mov	 eax, DWORD PTR [ecx]
  00136	ff 50 0c	 call	 DWORD PTR [eax+12]

; 211  : 		Attach( pData );

  00139	83 c0 10	 add	 eax, 16			; 00000010H
  0013c	89 85 6c 1f ff
	ff		 mov	 DWORD PTR _strMurderName$[ebp], eax
; File C:\Program Files\Microsoft Visual Studio\2022\Professional\VC\Tools\MSVC\14.44.35207\atlmfc\include\cstringt.h

; 2712 : 		if( (pv != NULL) && IS_INTRESOURCE( pv ) )

  00142	8d 45 b0	 lea	 eax, DWORD PTR _cMurder$[ebp]

; 1052 : 		CThisSimpleString( StringTraits::GetDefaultManager() )

  00145	c6 45 fc 01	 mov	 BYTE PTR __$EHRec$[ebp+8], 1

; 2712 : 		if( (pv != NULL) && IS_INTRESOURCE( pv ) )

  00149	a9 00 00 ff ff	 test	 eax, -65536		; ffff0000H
  0014e	75 11		 jne	 SHORT $LN53@LogPlayDea

; 2713 : 		{
; 2714 : 			UINT nID = LOWORD( reinterpret_cast< DWORD_PTR >( pv ) );

  00150	0f b7 c0	 movzx	 eax, ax

; 2715 : 			(nID);
; 2716 : #ifdef _ATL_USE_WINAPI_FAMILY_DESKTOP_APP
; 2717 : 			if( !LoadString( nID ) )

  00153	8d 8d 6c 1f ff
	ff		 lea	 ecx, DWORD PTR _strMurderName$[ebp]
  00159	50		 push	 eax
  0015a	e8 00 00 00 00	 call	 ?LoadStringA@?$CStringT@DV?$StrTraitMFC@DV?$ChTraitsCRT@D@ATL@@@@@ATL@@QAEHI@Z ; ATL::CStringT<char,StrTraitMFC<char,ATL::ChTraitsCRT<char> > >::LoadStringA

; 1054 : 		if( !CheckImplicitLoad( pszSrc ) )

  0015f	eb 1f		 jmp	 SHORT $LN8@LogPlayDea
$LN53@LogPlayDea:
; File C:\Program Files\Microsoft Visual Studio\2022\Professional\VC\Tools\MSVC\14.44.35207\atlmfc\include\atlsimpstr.h

; 730  : 		return( int( strlen( psz ) ) );

  00161	8d 4d b0	 lea	 ecx, DWORD PTR _cMurder$[ebp]
  00164	8d 51 01	 lea	 edx, DWORD PTR [ecx+1]
$LL54@LogPlayDea:
  00167	8a 01		 mov	 al, BYTE PTR [ecx]
  00169	41		 inc	 ecx
  0016a	84 c0		 test	 al, al
  0016c	75 f9		 jne	 SHORT $LL54@LogPlayDea
  0016e	2b ca		 sub	 ecx, edx

; 606  : 		SetString( pszSrc, StringLength( pszSrc ) );

  00170	8d 45 b0	 lea	 eax, DWORD PTR _cMurder$[ebp]
  00173	51		 push	 ecx
  00174	50		 push	 eax
  00175	8d 8d 6c 1f ff
	ff		 lea	 ecx, DWORD PTR _strMurderName$[ebp]
  0017b	e8 00 00 00 00	 call	 ?SetString@?$CSimpleStringT@D$0A@@ATL@@QAEXPBDH@Z ; ATL::CSimpleStringT<char,0>::SetString
$LN8@LogPlayDea:
; File C:\IAGOS\server\v18\Source\Source\_Database\DbManagerLog.cpp

; 474  : 	strMurderName.Replace( "'", " " );

  00180	68 00 00 00 00	 push	 OFFSET ??_C@_01CLKCMJKC@?5@
  00185	68 00 00 00 00	 push	 OFFSET ??_C@_01GEODFPGF@?8@
  0018a	8d 8d 6c 1f ff
	ff		 lea	 ecx, DWORD PTR _strMurderName$[ebp]
  00190	c6 45 fc 02	 mov	 BYTE PTR __$EHRec$[ebp+8], 2
  00194	e8 00 00 00 00	 call	 ?Replace@?$CStringT@DV?$StrTraitMFC@DV?$ChTraitsCRT@D@ATL@@@@@ATL@@QAEHPBD0@Z ; ATL::CStringT<char,StrTraitMFC<char,ATL::ChTraitsCRT<char> > >::Replace
; File C:\Program Files\Microsoft Visual Studio\2022\Professional\VC\Tools\MSVC\14.44.35207\atlmfc\include\atlsimpstr.h

; 804  : 		return( reinterpret_cast< CStringData* >( m_pszData )-1 );

  00199	8b b5 6c 1f ff
	ff		 mov	 esi, DWORD PTR _strMurderName$[ebp]

; 77   : 		return( nRefs > 1 );

  0019f	83 7e fc 01	 cmp	 DWORD PTR [esi-4], 1

; 503  : 		if( pData->IsShared() )

  001a3	7e 14		 jle	 SHORT $LN38@LogPlayDea

; 504  : 		{
; 505  : 			Fork( pData->nDataLength );

  001a5	ff 76 f4	 push	 DWORD PTR [esi-12]
  001a8	8d 8d 6c 1f ff
	ff		 lea	 ecx, DWORD PTR _strMurderName$[ebp]
  001ae	e8 00 00 00 00	 call	 ?Fork@?$CSimpleStringT@D$0A@@ATL@@AAEXH@Z ; ATL::CSimpleStringT<char,0>::Fork
  001b3	8b b5 6c 1f ff
	ff		 mov	 esi, DWORD PTR _strMurderName$[ebp]
$LN38@LogPlayDea:
; File C:\IAGOS\server\v18\Source\Source\_Database\DbManagerLog.cpp

; 476  : 	DBQryLog( szQuery, "L2", uidPlayer, iServer_No, 0, iLevel, 0, 0, 0,

  001b9	6a 00		 push	 0
  001bb	6a 00		 push	 0
  001bd	6a 00		 push	 0
  001bf	6a 00		 push	 0
  001c1	6a 00		 push	 0
  001c3	6a 00		 push	 0
  001c5	6a 00		 push	 0
  001c7	6a 00		 push	 0
  001c9	6a 00		 push	 0
  001cb	6a 00		 push	 0
  001cd	6a 00		 push	 0
  001cf	6a 00		 push	 0
  001d1	f3 0f 10 85 4c
	1f ff ff	 movss	 xmm0, DWORD PTR _Pos$[ebp+8]
  001d9	8d 85 84 5f ff
	ff		 lea	 eax, DWORD PTR _szQuery$[ebp]
  001df	6a 00		 push	 0
  001e1	ff b5 64 1f ff
	ff		 push	 DWORD PTR _iMaxHP$[ebp]
  001e7	8b cf		 mov	 ecx, edi
  001e9	ff b5 60 1f ff
	ff		 push	 DWORD PTR _iAttackDmg$[ebp]
  001ef	83 ec 0c	 sub	 esp, 12			; 0000000cH
  001f2	f3 0f 11 44 24
	08		 movss	 DWORD PTR [esp+8], xmm0
  001f8	f3 0f 10 85 48
	1f ff ff	 movss	 xmm0, DWORD PTR _Pos$[ebp+4]
  00200	f3 0f 11 44 24
	04		 movss	 DWORD PTR [esp+4], xmm0
  00206	f3 0f 10 85 44
	1f ff ff	 movss	 xmm0, DWORD PTR _Pos$[ebp]
  0020e	f3 0f 11 04 24	 movss	 DWORD PTR [esp], xmm0
  00213	56		 push	 esi
  00214	ff b5 5c 1f ff
	ff		 push	 DWORD PTR _dWorld_No$[ebp]
  0021a	6a 41		 push	 65			; 00000041H
  0021c	6a 00		 push	 0
  0021e	6a 00		 push	 0
  00220	6a 00		 push	 0
  00222	6a 00		 push	 0
  00224	6a 00		 push	 0
  00226	6a 00		 push	 0
  00228	6a 00		 push	 0
  0022a	6a 00		 push	 0
  0022c	6a 00		 push	 0
  0022e	ff b5 58 1f ff
	ff		 push	 DWORD PTR _iLevel$[ebp]
  00234	6a 00		 push	 0
  00236	6a 00		 push	 0
  00238	53		 push	 ebx
  00239	8b 9d 54 1f ff
	ff		 mov	 ebx, DWORD PTR _uidPlayer$[ebp]
  0023f	53		 push	 ebx
  00240	68 00 00 00 00	 push	 OFFSET ??_C@_02JEEOAGDI@L2@
  00245	50		 push	 eax
  00246	e8 00 00 00 00	 call	 ?DBQryLog@CDbManager@@QAEXPAD0KH_JHHHHHHHHHHDH0MMMHH0KHH0HHH0H0HK@Z ; CDbManager::DBQryLog

; 477  : 		0, 0, 0, 0, 0, 0, 'A', dWorld_No, strMurderName.GetBuffer(), Pos.x, Pos.y, Pos.z, iAttackDmg, iMaxHP );
; 478  : 	//	mulcom	BEGIN100407	LOG_STR L2 cMurder quotation mark Á¦°Ĺ
; 479  : 
; 480  : 	/// ·ąş§Ŕ» Ăß°ˇÇŘľßÇÔ
; 481  : 	if ( FALSE == qry->Exec( szQuery ) )

  0024b	8b 8d 50 1f ff
	ff		 mov	 ecx, DWORD PTR _qry$GSCopy$1$[ebp]
  00251	8d 85 84 5f ff
	ff		 lea	 eax, DWORD PTR _szQuery$[ebp]
  00257	50		 push	 eax
  00258	e8 00 00 00 00	 call	 ?Exec@CQuery@@QAEHPBD@Z	; CQuery::Exec
  0025d	85 c0		 test	 eax, eax
  0025f	75 18		 jne	 SHORT $LN2@LogPlayDea

; 482  : 	{
; 483  : 		WriteLog( "%s, %d\t%d", __FILE__, __LINE__, uidPlayer );

  00261	53		 push	 ebx
  00262	68 e3 01 00 00	 push	 483			; 000001e3H
  00267	68 00 00 00 00	 push	 OFFSET ??_C@_0DN@OEMKJAPO@C?3?2IAGOS?2server?2v18?2Source?2Sour@
  0026c	68 00 00 00 00	 push	 OFFSET ??_C@_09GEIHMOKC@?$CFs?0?5?$CFd?7?$CFd@
  00271	e8 00 00 00 00	 call	 ?WriteLog@@YAXPBDZZ	; WriteLog
  00276	83 c4 10	 add	 esp, 16			; 00000010H
$LN2@LogPlayDea:

; 490  : }

  00279	ff b5 68 1f ff
	ff		 push	 DWORD PTR _lpDbOverlappedPlus$GSCopy$1$[ebp]
  0027f	8b cf		 mov	 ecx, edi
  00281	e8 00 00 00 00	 call	 ?FreeRequest@CDbManager@@QAEXPAUtagDB_OVERLAPPED_PLUS@@@Z ; CDbManager::FreeRequest
  00286	c6 45 fc 00	 mov	 BYTE PTR __$EHRec$[ebp+8], 0
; File C:\Program Files\Microsoft Visual Studio\2022\Professional\VC\Tools\MSVC\14.44.35207\atlmfc\include\atlsimpstr.h

; 804  : 		return( reinterpret_cast< CStringData* >( m_pszData )-1 );

  0028a	83 c6 f0	 add	 esi, -16		; fffffff0H

; 92   : 		if( _InterlockedDecrement( &nRefs ) <= 0 )

  0028d	83 c8 ff	 or	 eax, -1
  00290	f0 0f c1 46 0c	 lock	  xadd	 DWORD PTR [esi+12], eax
  00295	48		 dec	 eax
  00296	85 c0		 test	 eax, eax
  00298	7f 08		 jg	 SHORT $LN51@LogPlayDea

; 93   : 		{
; 94   : 			pStringMgr->Free( this );

  0029a	8b 0e		 mov	 ecx, DWORD PTR [esi]
  0029c	56		 push	 esi
  0029d	8b 01		 mov	 eax, DWORD PTR [ecx]
  0029f	ff 50 04	 call	 DWORD PTR [eax+4]
$LN51@LogPlayDea:
; File C:\IAGOS\server\v18\Source\Source\_Database\DbManagerLog.cpp

; 490  : }

  002a2	8d 8d 70 1f ff
	ff		 lea	 ecx, DWORD PTR _arRead$[ebp]
  002a8	e8 00 00 00 00	 call	 ??1CAr@@QAE@XZ		; CAr::~CAr
  002ad	8b 4d f4	 mov	 ecx, DWORD PTR __$EHRec$[ebp]
  002b0	64 89 0d 00 00
	00 00		 mov	 DWORD PTR fs:0, ecx
  002b7	59		 pop	 ecx
  002b8	5f		 pop	 edi
  002b9	5e		 pop	 esi
  002ba	5b		 pop	 ebx
  002bb	8b 4d f0	 mov	 ecx, DWORD PTR __$ArrayPad$[ebp]
  002be	33 cd		 xor	 ecx, ebp
  002c0	e8 00 00 00 00	 call	 @__security_check_cookie@4
  002c5	8b e5		 mov	 esp, ebp
  002c7	5d		 pop	 ebp
  002c8	c2 08 00	 ret	 8
$LN58@LogPlayDea:
; File C:\Program Files\Microsoft Visual Studio\2022\Professional\VC\Tools\MSVC\14.44.35207\atlmfc\include\atlsimpstr.h

; 209  : 		ATLENSURE( pStringMgr != NULL );

  002cb	68 05 40 00 80	 push	 -2147467259		; 80004005H
  002d0	e8 00 00 00 00	 call	 ?AtlThrowImpl@ATL@@YGXJ@Z ; ATL::AtlThrowImpl
$LN56@LogPlayDea:
  002d5	cc		 int	 3
_TEXT	ENDS
;	COMDAT text$x
text$x	SEGMENT
__unwindfunclet$?LogPlayDeath@CDbManager@@AAEXPAVCQuery@@PAUtagDB_OVERLAPPED_PLUS@@@Z$0:
  00000	8d 8d 70 1f ff
	ff		 lea	 ecx, DWORD PTR _arRead$[ebp]
  00006	e9 00 00 00 00	 jmp	 ??1CAr@@QAE@XZ		; CAr::~CAr
__unwindfunclet$?LogPlayDeath@CDbManager@@AAEXPAVCQuery@@PAUtagDB_OVERLAPPED_PLUS@@@Z$2:
  0000b	8d 8d 6c 1f ff
	ff		 lea	 ecx, DWORD PTR _strMurderName$[ebp]
  00011	e9 00 00 00 00	 jmp	 ??1?$CSimpleStringT@D$0A@@ATL@@QAE@XZ ; ATL::CSimpleStringT<char,0>::~CSimpleStringT<char,0>
__unwindfunclet$?LogPlayDeath@CDbManager@@AAEXPAVCQuery@@PAUtagDB_OVERLAPPED_PLUS@@@Z$1:
  00016	8d 8d 6c 1f ff
	ff		 lea	 ecx, DWORD PTR _strMurderName$[ebp]
  0001c	e9 00 00 00 00	 jmp	 ??1?$CStringT@DV?$StrTraitMFC@DV?$ChTraitsCRT@D@ATL@@@@@ATL@@QAE@XZ ; ATL::CStringT<char,StrTraitMFC<char,ATL::ChTraitsCRT<char> > >::~CStringT<char,StrTraitMFC<char,ATL::ChTraitsCRT<char> > >
  00021	cc		 int	 3
  00022	cc		 int	 3
  00023	cc		 int	 3
  00024	cc		 int	 3
  00025	cc		 int	 3
__ehhandler$?LogPlayDeath@CDbManager@@AAEXPAVCQuery@@PAUtagDB_OVERLAPPED_PLUS@@@Z:
  00026	90		 npad	 1
  00027	90		 npad	 1
  00028	8b 54 24 08	 mov	 edx, DWORD PTR [esp+8]
  0002c	8d 42 0c	 lea	 eax, DWORD PTR [edx+12]
  0002f	8b 8a 40 1f ff
	ff		 mov	 ecx, DWORD PTR [edx-57536]
  00035	33 c8		 xor	 ecx, eax
  00037	e8 00 00 00 00	 call	 @__security_check_cookie@4
  0003c	8b 4a fc	 mov	 ecx, DWORD PTR [edx-4]
  0003f	33 c8		 xor	 ecx, eax
  00041	e8 00 00 00 00	 call	 @__security_check_cookie@4
  00046	b8 00 00 00 00	 mov	 eax, OFFSET __ehfuncinfo$?LogPlayDeath@CDbManager@@AAEXPAVCQuery@@PAUtagDB_OVERLAPPED_PLUS@@@Z
  0004b	e9 00 00 00 00	 jmp	 ___CxxFrameHandler3
text$x	ENDS
?LogPlayDeath@CDbManager@@AAEXPAVCQuery@@PAUtagDB_OVERLAPPED_PLUS@@@Z ENDP ; CDbManager::LogPlayDeath
; Function compile flags: /Ogtp
; File C:\IAGOS\server\v18\Source\Source\_Database\DbManagerLog.cpp
;	COMDAT ?DBQryNewItemLog@CDbManager@@QAEXPADABU_LogItemInfo@@@Z
_TEXT	SEGMENT
_qryLog$ = 8						; size = 4
_info$ = 12						; size = 4
?DBQryNewItemLog@CDbManager@@QAEXPADABU_LogItemInfo@@@Z PROC ; CDbManager::DBQryNewItemLog, COMDAT
; _this$ = ecx

; 1017 : {

  00000	55		 push	 ebp
  00001	8b ec		 mov	 ebp, esp

; 1018 : 	sprintf( qryLog, "LOG_ITEM_STR "

  00003	8b 4d 0c	 mov	 ecx, DWORD PTR _info$[ebp]
  00006	ff b1 b0 00 00
	00		 push	 DWORD PTR [ecx+176]
  0000c	0f b6 81 c4 00
	00 00		 movzx	 eax, BYTE PTR [ecx+196]
  00013	ff b1 ac 00 00
	00		 push	 DWORD PTR [ecx+172]
  00019	ff b1 a8 00 00
	00		 push	 DWORD PTR [ecx+168]
  0001f	ff b1 a4 00 00
	00		 push	 DWORD PTR [ecx+164]
  00025	ff b1 a0 00 00
	00		 push	 DWORD PTR [ecx+160]
  0002b	ff b1 9c 00 00
	00		 push	 DWORD PTR [ecx+156]
  00031	ff b1 98 00 00
	00		 push	 DWORD PTR [ecx+152]
  00037	ff b1 94 00 00
	00		 push	 DWORD PTR [ecx+148]
  0003d	ff b1 90 00 00
	00		 push	 DWORD PTR [ecx+144]
  00043	ff b1 8c 00 00
	00		 push	 DWORD PTR [ecx+140]
  00049	ff b1 88 00 00
	00		 push	 DWORD PTR [ecx+136]
  0004f	50		 push	 eax
  00050	0f b6 81 c3 00
	00 00		 movzx	 eax, BYTE PTR [ecx+195]
  00057	50		 push	 eax
  00058	0f b6 81 c2 00
	00 00		 movzx	 eax, BYTE PTR [ecx+194]
  0005f	50		 push	 eax
  00060	0f b6 81 c1 00
	00 00		 movzx	 eax, BYTE PTR [ecx+193]
  00067	50		 push	 eax
  00068	0f b6 81 c0 00
	00 00		 movzx	 eax, BYTE PTR [ecx+192]
  0006f	50		 push	 eax
  00070	0f b7 81 be 00
	00 00		 movzx	 eax, WORD PTR [ecx+190]
  00077	50		 push	 eax
  00078	0f b7 81 bc 00
	00 00		 movzx	 eax, WORD PTR [ecx+188]
  0007f	50		 push	 eax
  00080	ff b1 b8 00 00
	00		 push	 DWORD PTR [ecx+184]
  00086	0f b6 81 b5 00
	00 00		 movzx	 eax, BYTE PTR [ecx+181]
  0008d	50		 push	 eax
  0008e	0f b6 81 b4 00
	00 00		 movzx	 eax, BYTE PTR [ecx+180]
  00095	50		 push	 eax
  00096	ff 71 20	 push	 DWORD PTR [ecx+32]
  00099	8d 41 24	 lea	 eax, DWORD PTR [ecx+36]
  0009c	ff b1 84 00 00
	00		 push	 DWORD PTR [ecx+132]
  000a2	ff b1 80 00 00
	00		 push	 DWORD PTR [ecx+128]
  000a8	ff 71 7c	 push	 DWORD PTR [ecx+124]
  000ab	ff 71 78	 push	 DWORD PTR [ecx+120]
  000ae	ff 71 74	 push	 DWORD PTR [ecx+116]
  000b1	ff 71 70	 push	 DWORD PTR [ecx+112]
  000b4	ff 71 6c	 push	 DWORD PTR [ecx+108]
  000b7	ff 71 68	 push	 DWORD PTR [ecx+104]
  000ba	ff 71 64	 push	 DWORD PTR [ecx+100]
  000bd	ff 71 60	 push	 DWORD PTR [ecx+96]
  000c0	ff 71 5c	 push	 DWORD PTR [ecx+92]
  000c3	ff 71 58	 push	 DWORD PTR [ecx+88]
  000c6	ff 71 54	 push	 DWORD PTR [ecx+84]
  000c9	ff 71 50	 push	 DWORD PTR [ecx+80]
  000cc	ff 31		 push	 DWORD PTR [ecx]
  000ce	ff 71 44	 push	 DWORD PTR [ecx+68]
  000d1	ff 71 4c	 push	 DWORD PTR [ecx+76]
  000d4	ff 71 48	 push	 DWORD PTR [ecx+72]
  000d7	ff 71 1c	 push	 DWORD PTR [ecx+28]
  000da	50		 push	 eax
  000db	ff 71 18	 push	 DWORD PTR [ecx+24]
  000de	ff 71 14	 push	 DWORD PTR [ecx+20]
  000e1	ff 71 10	 push	 DWORD PTR [ecx+16]
  000e4	ff 71 0c	 push	 DWORD PTR [ecx+12]
  000e7	ff 71 08	 push	 DWORD PTR [ecx+8]
  000ea	ff 35 00 00 00
	00		 push	 DWORD PTR ?g_appInfo@@3UAppInfo@@A
  000f0	ff 71 04	 push	 DWORD PTR [ecx+4]
  000f3	68 00 00 00 00	 push	 OFFSET ??_C@_0DDM@PEJILMGA@LOG_ITEM_STR?5?$EAim_szName?$DN?8?$CFs?8?0?$EAi@
  000f8	ff 75 08	 push	 DWORD PTR _qryLog$[ebp]
  000fb	e8 00 00 00 00	 call	 _sprintf
  00100	81 c4 cc 00 00
	00		 add	 esp, 204		; 000000ccH

; 1019 : 		"@im_szName='%s',@iserverindex='%02d',@im_GetszName='%s',@idwWorldID=%d,@im_dwGold=%d,@im_nRemainGold=%d,"
; 1020 : 		"@iItem_UniqueNo=%d,@iItem_Name='%s',@iItem_durability=%d,@im_nAbilityOption=%d,@Im_GetdwGold=%d,"
; 1021 : 		"@iItem_count=%d,@iState='%s',@im_nSlot0=%d,@im_nSlot1=%d,@im_bItemResist=%d,@im_nResistAbilityOption=%d"
; 1022 : 		",@im_bCharged=%d,@im_dwKeepTime=%d,"
; 1023 : #if __VER >= 11 // __SYS_IDENTIFY
; 1024 : 		"@im_nRandomOptItemId=%I64d"
; 1025 : #else	// __SYS_IDENTIFY
; 1026 : 		"@im_nRandomOptItemId=%d"
; 1027 : #endif	// __SYS_IDENTIFY
; 1028 : 		",@inPiercedSize=%d,@iadwItemId0=%d,@iadwItemId1=%d,@iadwItemId2=%d,@iadwItemId3=%d"
; 1029 : #if __VER >= 9 // __ULTIMATE
; 1030 : 		",@iadwItemId4=%d"
; 1031 : #endif // __ULTIMATE
; 1032 : 
; 1033 : 		",@iMaxDurability=%d"
; 1034 : 
; 1035 : #if __VER >= 9 // __PET_0410
; 1036 : 		",@inPetKind=%d,@inPetLevel=%d,@idwPetExp=%d,@iwPetEnergy=%d,@iwPetLife=%d"
; 1037 : 		",@inPetAL_D=%d,@inPetAL_C=%d,@inPetAL_B=%d,@inPetAL_A=%d,@inPetAL_S=%d"
; 1038 : #endif // __PET_0410
; 1039 : #if __VER >= 12 // __EXT_PIERCING
; 1040 : 		",@iadwItemId5=%d,@iadwItemId6=%d,@iadwItemId7=%d,@iadwItemId8=%d,@iadwItemId9=%d"
; 1041 : 		",@inUMPiercedSize=%d,@iadwUMItemId0=%d,@iadwUMItemId1=%d,@iadwUMItemId2=%d,@iadwUMItemId3=%d,@iadwUMItemId4=%d"
; 1042 : #endif // __EXT_PIERCING
; 1043 : 		,
; 1044 : 		info.SendName, g_appInfo.dwSys, info.RecvName, info.WorldId, info.Gold, info.Gold2, 
; 1045 : 		info.ItemNo, info.szItemName, info.Negudo, info.nAbilityOption, info.Gold_1,
; 1046 : 		info.itemNumber, info.Action, info.nSlot, info.nSlot1, info.nItemResist, info.nResistAbilityOption
; 1047 : 		, info.m_bCharged, info.m_dwKeepTime,
; 1048 : #if __VER >= 11 // __SYS_IDENTIFY
; 1049 : 		info.m_iRandomOptItemId
; 1050 : #else	// __SYS_IDENTIFY
; 1051 : 		info.m_nRandomOptItemId
; 1052 : #endif	// __SYS_IDENTIFY
; 1053 : #if __VER >= 12 // __EXT_PIERCING
; 1054 : 		, info.nPiercedSize, info.adwItemId[0], info.adwItemId[1], info.adwItemId[2], info.adwItemId[3]
; 1055 : 		, info.adwItemId[4]
; 1056 : #else // __EXT_PIERCING
; 1057 : 		, info.nPiercedSize, info.adwItemId0, info.adwItemId1, info.adwItemId2, info.adwItemId3
; 1058 : #if __VER >= 9 // __ULTIMATE
; 1059 : 		, info.adwItemId4
; 1060 : #endif // __ULTIMATE
; 1061 : #endif // __EXT_PIERCING
; 1062 : 		, info.MaxNegudo
; 1063 : #if __VER >= 9 // __PET_0410
; 1064 : 		, info.nPetKind, info.nPetLevel, info.dwPetExp, info.wPetEnergy, info.wPetLife
; 1065 : 		, info.nPetAL_D, info.nPetAL_C, info.nPetAL_B, info.nPetAL_A, info.nPetAL_S
; 1066 : #endif // __PET_0410
; 1067 : #if __VER >= 12 // __EXT_PIERCING
; 1068 : 		, info.adwItemId[5], info.adwItemId[6], info.adwItemId[7], info.adwItemId[8], info.adwItemId[9]
; 1069 : 		, info.nUMPiercedSize, info.adwUMItemId[0], info.adwUMItemId[1], info.adwUMItemId[2], info.adwUMItemId[3], info.adwUMItemId[4]
; 1070 : #endif // __EXT_PIERCING
; 1071 : 		);	
; 1072 : 	if( strlen(qryLog) > 40960 )
; 1073 : 		ASSERT(0);
; 1074 : ///	TRACE("%s\n", qryLog);
; 1075 : }

  00106	5d		 pop	 ebp
  00107	c2 08 00	 ret	 8
?DBQryNewItemLog@CDbManager@@QAEXPADABU_LogItemInfo@@@Z ENDP ; CDbManager::DBQryNewItemLog
_TEXT	ENDS
; Function compile flags: /Ogtp
; File C:\IAGOS\server\v18\Source\Source\_Database\DbManagerLog.cpp
; File C:\Program Files\Microsoft Visual Studio\2022\Professional\VC\Tools\MSVC\14.44.35207\atlmfc\include\afxstr.h
; File C:\Program Files\Microsoft Visual Studio\2022\Professional\VC\Tools\MSVC\14.44.35207\atlmfc\include\atlsimpstr.h
; File C:\Program Files\Microsoft Visual Studio\2022\Professional\VC\Tools\MSVC\14.44.35207\atlmfc\include\cstringt.h
; File C:\Program Files\Microsoft Visual Studio\2022\Professional\VC\Tools\MSVC\14.44.35207\atlmfc\include\atlsimpstr.h
; File C:\IAGOS\server\v18\Source\Source\_Database\DbManagerLog.cpp
; File C:\Program Files\Microsoft Visual Studio\2022\Professional\VC\Tools\MSVC\14.44.35207\atlmfc\include\atlsimpstr.h
; File C:\IAGOS\server\v18\Source\Source\_Database\DbManagerLog.cpp
; File C:\Program Files\Microsoft Visual Studio\2022\Professional\VC\Tools\MSVC\14.44.35207\atlmfc\include\atlsimpstr.h
; File C:\IAGOS\server\v18\Source\Source\_Database\DbManagerLog.cpp
;	COMDAT ?DBQryLog@CDbManager@@QAEXPAD0KH_JHHHHHHHHHHDH0MMMHH0KHH0HHH0H0HK@Z
_TEXT	SEGMENT
_strItem$ = -16						; size = 4
__$EHRec$ = -12						; size = 12
_qryLog$ = 8						; size = 4
_Gu$ = 12						; size = 4
_idPlayer$ = 16						; size = 4
_nserverindex$ = 20					; size = 4
_nExp1$ = 24						; size = 8
_nLevel$ = 32						; size = 4
_nJob$ = 36						; size = 4
_JobLv$ = 40						; size = 4
_FlightLv$ = 44						; size = 4
_nStr$ = 48						; size = 4
_nDex$ = 52						; size = 4
_nInt$ = 56						; size = 4
_nSta$ = 60						; size = 4
_nRemainGP$ = 64					; size = 4
_nRemainLP$ = 68					; size = 4
_szState$ = 72						; size = 1
_WorldID$ = 76						; size = 4
_szkilled_szName$ = 80					; size = 4
_vPos_x$ = 84						; size = 4
_vPos_y$ = 88						; size = 4
_vPos_z$ = 92						; size = 4
_nAttackPower$ = 96					; size = 4
_nMax_HP$ = 100						; size = 4
_uGetidPlayer$ = 104					; size = 4
_dwGold$ = 108						; size = 4
_nRemainGold$ = 112					; size = 4
_nItem_UniqueNo$ = 116					; size = 4
_szItem_Name$ = 120					; size = 4
_Item_durability$ = 124					; size = 4
_Item_count$ = 128					; size = 4
_ItemAddLv$ = 132					; size = 4
_szStart_Time$ = 136					; size = 4
_TotalPlayerTime$ = 140					; size = 4
_szRemoteIP$ = 144					; size = 4
_nQuest_Index$ = 148					; size = 4
_uKill_idPlayer$ = 152					; size = 4
?DBQryLog@CDbManager@@QAEXPAD0KH_JHHHHHHHHHHDH0MMMHH0KHH0HHH0H0HK@Z PROC ; CDbManager::DBQryLog, COMDAT
; _this$ = ecx

; 735  : {

  00000	55		 push	 ebp
  00001	8b ec		 mov	 ebp, esp
  00003	6a ff		 push	 -1
  00005	68 00 00 00 00	 push	 __ehhandler$?DBQryLog@CDbManager@@QAEXPAD0KH_JHHHHHHHHHHDH0MMMHH0KHH0HHH0H0HK@Z
  0000a	64 a1 00 00 00
	00		 mov	 eax, DWORD PTR fs:0
  00010	50		 push	 eax
  00011	51		 push	 ecx
  00012	56		 push	 esi
  00013	a1 00 00 00 00	 mov	 eax, DWORD PTR ___security_cookie
  00018	33 c5		 xor	 eax, ebp
  0001a	50		 push	 eax
  0001b	8d 45 f4	 lea	 eax, DWORD PTR __$EHRec$[ebp]
  0001e	64 a3 00 00 00
	00		 mov	 DWORD PTR fs:0, eax
; File C:\Program Files\Microsoft Visual Studio\2022\Professional\VC\Tools\MSVC\14.44.35207\atlmfc\include\afxstr.h

; 56   : 		return( AfxGetStringManager() );

  00024	e8 00 00 00 00	 call	 ?AfxGetStringManager@@YGPAUIAtlStringMgr@ATL@@XZ ; AfxGetStringManager
  00029	8b c8		 mov	 ecx, eax
; File C:\Program Files\Microsoft Visual Studio\2022\Professional\VC\Tools\MSVC\14.44.35207\atlmfc\include\atlsimpstr.h

; 209  : 		ATLENSURE( pStringMgr != NULL );

  0002b	85 c9		 test	 ecx, ecx
  0002d	0f 84 49 01 00
	00		 je	 $LN52@DBQryLog

; 210  : 		CStringData* pData = pStringMgr->GetNilString();

  00033	8b 01		 mov	 eax, DWORD PTR [ecx]
  00035	ff 50 0c	 call	 DWORD PTR [eax+12]

; 211  : 		Attach( pData );

  00038	83 c0 10	 add	 eax, 16			; 00000010H
  0003b	89 45 f0	 mov	 DWORD PTR _strItem$[ebp], eax
; File C:\Program Files\Microsoft Visual Studio\2022\Professional\VC\Tools\MSVC\14.44.35207\atlmfc\include\cstringt.h

; 2712 : 		if( (pv != NULL) && IS_INTRESOURCE( pv ) )

  0003e	8b 55 78	 mov	 edx, DWORD PTR _szItem_Name$[ebp]

; 1052 : 		CThisSimpleString( StringTraits::GetDefaultManager() )

  00041	c7 45 fc 00 00
	00 00		 mov	 DWORD PTR __$EHRec$[ebp+8], 0

; 2712 : 		if( (pv != NULL) && IS_INTRESOURCE( pv ) )

  00048	85 d2		 test	 edx, edx
  0004a	74 26		 je	 SHORT $LN47@DBQryLog
  0004c	f7 c2 00 00 ff
	ff		 test	 edx, -65536		; ffff0000H
  00052	75 0e		 jne	 SHORT $LN32@DBQryLog

; 2713 : 		{
; 2714 : 			UINT nID = LOWORD( reinterpret_cast< DWORD_PTR >( pv ) );

  00054	0f b7 c2	 movzx	 eax, dx

; 2715 : 			(nID);
; 2716 : #ifdef _ATL_USE_WINAPI_FAMILY_DESKTOP_APP
; 2717 : 			if( !LoadString( nID ) )

  00057	8d 4d f0	 lea	 ecx, DWORD PTR _strItem$[ebp]
  0005a	50		 push	 eax
  0005b	e8 00 00 00 00	 call	 ?LoadStringA@?$CStringT@DV?$StrTraitMFC@DV?$ChTraitsCRT@D@ATL@@@@@ATL@@QAEHI@Z ; ATL::CStringT<char,StrTraitMFC<char,ATL::ChTraitsCRT<char> > >::LoadStringA

; 1054 : 		if( !CheckImplicitLoad( pszSrc ) )

  00060	eb 1c		 jmp	 SHORT $LN6@DBQryLog
$LN32@DBQryLog:
; File C:\Program Files\Microsoft Visual Studio\2022\Professional\VC\Tools\MSVC\14.44.35207\atlmfc\include\atlsimpstr.h

; 730  : 		return( int( strlen( psz ) ) );

  00062	8b ca		 mov	 ecx, edx
  00064	8d 71 01	 lea	 esi, DWORD PTR [ecx+1]
$LL48@DBQryLog:
  00067	8a 01		 mov	 al, BYTE PTR [ecx]
  00069	41		 inc	 ecx
  0006a	84 c0		 test	 al, al
  0006c	75 f9		 jne	 SHORT $LL48@DBQryLog
  0006e	2b ce		 sub	 ecx, esi
  00070	eb 02		 jmp	 SHORT $LN31@DBQryLog
$LN47@DBQryLog:

; 607  : 	}
; 608  : 	void SetString(
; 609  : 		_In_reads_opt_(nLength) PCXSTR pszSrc,
; 610  : 		_In_ int nLength)
; 611  : 	{
; 612  : 		if( nLength == 0 )
; 613  : 		{
; 614  : 			Empty();
; 615  : 		}
; 616  : 		else
; 617  : 		{
; 618  : 			// It is possible that pszSrc points to a location inside of our
; 619  : 			// buffer.  GetBuffer() might change m_pszData if (1) the buffer
; 620  : 			// is shared or (2) the buffer is too small to hold the new
; 621  : 			// string.  We detect this aliasing, and modify pszSrc to point
; 622  : 			// into the newly allocated buffer instead.
; 623  : 
; 624  : 			if(pszSrc == NULL)
; 625  : 				AtlThrow(E_INVALIDARG);
; 626  : 
; 627  : 			UINT nOldLength = GetLength();
; 628  : 			UINT_PTR nOffset = pszSrc-GetString();
; 629  : 			// If 0 <= nOffset <= nOldLength, then pszSrc points into our
; 630  : 			// buffer
; 631  : 
; 632  : 			PXSTR pszBuffer = GetBuffer( nLength );
; 633  : 			if( nOffset <= nOldLength )
; 634  : 			{
; 635  : 				CopyCharsOverlapped( pszBuffer, GetAllocLength(),
; 636  : 					pszBuffer+nOffset, nLength );
; 637  : 			}
; 638  : 			else
; 639  : 			{
; 640  : 				memcpy_s( pszBuffer, GetAllocLength() * sizeof( XCHAR ), pszSrc, nLength * sizeof( XCHAR ));
; 641  : 			}
; 642  : 			ReleaseBufferSetLength( nLength );
; 643  : 		}
; 644  : 	}
; 645  : 
; 646  : public:
; 647  : 	friend CSimpleStringT operator+(
; 648  : 		_In_ const CSimpleStringT& str1,
; 649  : 		_In_ const CSimpleStringT& str2)
; 650  : 	{
; 651  : 		CSimpleStringT s( str1.GetManager() );
; 652  : 
; 653  : 		Concatenate( s, str1, str1.GetLength(), str2, str2.GetLength() );
; 654  : 
; 655  : 		return( s );
; 656  : 	}
; 657  : 
; 658  : 	friend CSimpleStringT operator+(
; 659  : 		_In_ const CSimpleStringT& str1,
; 660  : 		_In_z_ PCXSTR psz2)
; 661  : 	{
; 662  : 		CSimpleStringT s( str1.GetManager() );
; 663  : 
; 664  : 		Concatenate( s, str1, str1.GetLength(), psz2, StringLength( psz2 ) );
; 665  : 
; 666  : 		return( s );
; 667  : 	}
; 668  : 
; 669  : 	friend CSimpleStringT operator+(
; 670  : 		_In_z_ PCXSTR psz1,
; 671  : 		_In_ const CSimpleStringT& str2)
; 672  : 	{
; 673  : 		CSimpleStringT s( str2.GetManager() );
; 674  : 
; 675  : 		Concatenate( s, psz1, StringLength( psz1 ), str2, str2.GetLength() );
; 676  : 
; 677  : 		return( s );
; 678  : 	}
; 679  : 
; 680  : 	_ATL_INSECURE_DEPRECATE("CSimpleStringT::CopyChars must be passed a buffer size")
; 681  : 	static void __cdecl CopyChars(
; 682  : 		_Out_writes_(nChars) XCHAR* pchDest,
; 683  : 		_In_reads_opt_(nChars) const XCHAR* pchSrc,
; 684  : 		_In_ int nChars) throw()
; 685  : 	{
; 686  : 		if (pchSrc != NULL)
; 687  : 		{
; 688  : 			#pragma warning (push)
; 689  : 			#pragma warning(disable : 4996)
; 690  : 			memcpy( pchDest, pchSrc, nChars*sizeof( XCHAR ) );
; 691  : 			#pragma warning (pop)
; 692  : 		}
; 693  : 	}
; 694  : 	static void __cdecl CopyChars(
; 695  : 		_Out_writes_to_(nDestLen,nChars) XCHAR* pchDest,
; 696  : 		_In_ size_t nDestLen,
; 697  : 		_In_reads_opt_(nChars) const XCHAR* pchSrc,
; 698  : 		_In_ int nChars) throw()
; 699  : 	{
; 700  : 		memcpy_s( pchDest, nDestLen*sizeof( XCHAR ),
; 701  : 			pchSrc, nChars*sizeof( XCHAR ) );
; 702  : 	}
; 703  : 
; 704  : 	_ATL_INSECURE_DEPRECATE("CSimpleStringT::CopyCharsOverlapped must be passed a buffer size")
; 705  : 	static void __cdecl CopyCharsOverlapped(
; 706  : 		_Out_writes_(nChars) XCHAR* pchDest,
; 707  : 		_In_reads_(nChars) const XCHAR* pchSrc,
; 708  : 		_In_ int nChars) throw()
; 709  : 	{
; 710  : 		#pragma warning (push)
; 711  : 		#pragma warning(disable : 4996)
; 712  : 		memmove( pchDest, pchSrc, nChars*sizeof( XCHAR ) );
; 713  : 		#pragma warning (pop)
; 714  : 	}
; 715  : 	static void __cdecl CopyCharsOverlapped(
; 716  : 		_Out_writes_to_(nDestLen, nDestLen) XCHAR* pchDest,
; 717  : 		_In_ size_t nDestLen,
; 718  : 		_In_reads_(nChars) const XCHAR* pchSrc,
; 719  : 		_In_ int nChars) throw()
; 720  : 	{
; 721  : 		memmove_s( pchDest, nDestLen*sizeof( XCHAR ),
; 722  : 			pchSrc, nChars*sizeof( XCHAR ) );
; 723  : 	}
; 724  : 	static int __cdecl StringLength(_In_opt_z_ const char* psz) throw()
; 725  : 	{
; 726  : 		if( psz == NULL )
; 727  : 		{
; 728  : 			return( 0 );

  00072	33 c9		 xor	 ecx, ecx
$LN31@DBQryLog:

; 606  : 		SetString( pszSrc, StringLength( pszSrc ) );

  00074	51		 push	 ecx
  00075	52		 push	 edx
  00076	8d 4d f0	 lea	 ecx, DWORD PTR _strItem$[ebp]
  00079	e8 00 00 00 00	 call	 ?SetString@?$CSimpleStringT@D$0A@@ATL@@QAEXPBDH@Z ; ATL::CSimpleStringT<char,0>::SetString
$LN6@DBQryLog:
; File C:\IAGOS\server\v18\Source\Source\_Database\DbManagerLog.cpp

; 737  : 	strItem.Replace( '\'', ' ' );

  0007e	6a 20		 push	 32			; 00000020H
  00080	6a 27		 push	 39			; 00000027H
  00082	8d 4d f0	 lea	 ecx, DWORD PTR _strItem$[ebp]
  00085	c7 45 fc 01 00
	00 00		 mov	 DWORD PTR __$EHRec$[ebp+8], 1
  0008c	e8 00 00 00 00	 call	 ?Replace@?$CStringT@DV?$StrTraitMFC@DV?$ChTraitsCRT@D@ATL@@@@@ATL@@QAEHDD@Z ; ATL::CStringT<char,StrTraitMFC<char,ATL::ChTraitsCRT<char> > >::Replace

; 738  : 	sprintf( qryLog, "LOG_STR '%s',@im_idPlayer='%07d',@iserverindex='%02d',@im_nExp1=%I64d,@im_nLevel=%d,"

  00091	ff b5 98 00 00
	00		 push	 DWORD PTR _uKill_idPlayer$[ebp]
  00097	8b 75 f0	 mov	 esi, DWORD PTR _strItem$[ebp]
  0009a	ff b5 94 00 00
	00		 push	 DWORD PTR _nQuest_Index$[ebp]
  000a0	f3 0f 10 45 5c	 movss	 xmm0, DWORD PTR _vPos_z$[ebp]
  000a5	ff b5 90 00 00
	00		 push	 DWORD PTR _szRemoteIP$[ebp]
  000ab	0f 5a c0	 cvtps2pd xmm0, xmm0
  000ae	0f be 45 48	 movsx	 eax, BYTE PTR _szState$[ebp]
  000b2	ff b5 8c 00 00
	00		 push	 DWORD PTR _TotalPlayerTime$[ebp]
  000b8	ff b5 88 00 00
	00		 push	 DWORD PTR _szStart_Time$[ebp]
  000be	ff b5 84 00 00
	00		 push	 DWORD PTR _ItemAddLv$[ebp]
  000c4	ff b5 80 00 00
	00		 push	 DWORD PTR _Item_count$[ebp]
  000ca	ff 75 7c	 push	 DWORD PTR _Item_durability$[ebp]
  000cd	56		 push	 esi
  000ce	ff 75 74	 push	 DWORD PTR _nItem_UniqueNo$[ebp]
  000d1	ff 75 70	 push	 DWORD PTR _nRemainGold$[ebp]
  000d4	ff 75 6c	 push	 DWORD PTR _dwGold$[ebp]
  000d7	ff 75 68	 push	 DWORD PTR _uGetidPlayer$[ebp]
  000da	ff 75 64	 push	 DWORD PTR _nMax_HP$[ebp]
  000dd	ff 75 60	 push	 DWORD PTR _nAttackPower$[ebp]
  000e0	83 ec 18	 sub	 esp, 24			; 00000018H
  000e3	f2 0f 11 44 24
	10		 movsd	 QWORD PTR [esp+16], xmm0
  000e9	f3 0f 10 45 58	 movss	 xmm0, DWORD PTR _vPos_y$[ebp]
  000ee	0f 5a c0	 cvtps2pd xmm0, xmm0
  000f1	f2 0f 11 44 24
	08		 movsd	 QWORD PTR [esp+8], xmm0
  000f7	f3 0f 10 45 54	 movss	 xmm0, DWORD PTR _vPos_x$[ebp]
  000fc	0f 5a c0	 cvtps2pd xmm0, xmm0
  000ff	f2 0f 11 04 24	 movsd	 QWORD PTR [esp], xmm0
  00104	ff 75 50	 push	 DWORD PTR _szkilled_szName$[ebp]
  00107	ff 75 4c	 push	 DWORD PTR _WorldID$[ebp]
  0010a	50		 push	 eax
  0010b	ff 75 44	 push	 DWORD PTR _nRemainLP$[ebp]
  0010e	ff 75 40	 push	 DWORD PTR _nRemainGP$[ebp]
  00111	ff 75 3c	 push	 DWORD PTR _nSta$[ebp]
  00114	ff 75 38	 push	 DWORD PTR _nInt$[ebp]
  00117	ff 75 34	 push	 DWORD PTR _nDex$[ebp]
  0011a	ff 75 30	 push	 DWORD PTR _nStr$[ebp]
  0011d	ff 75 2c	 push	 DWORD PTR _FlightLv$[ebp]
  00120	ff 75 28	 push	 DWORD PTR _JobLv$[ebp]
  00123	ff 75 24	 push	 DWORD PTR _nJob$[ebp]
  00126	ff 75 20	 push	 DWORD PTR _nLevel$[ebp]
  00129	ff 75 1c	 push	 DWORD PTR _nExp1$[ebp+4]
  0012c	ff 75 18	 push	 DWORD PTR _nExp1$[ebp]
  0012f	ff 75 14	 push	 DWORD PTR _nserverindex$[ebp]
  00132	ff 75 10	 push	 DWORD PTR _idPlayer$[ebp]
  00135	ff 75 0c	 push	 DWORD PTR _Gu$[ebp]
  00138	68 00 00 00 00	 push	 OFFSET ??_C@_0CDJ@CLHOMLPK@LOG_STR?5?8?$CFs?8?0?$EAim_idPlayer?$DN?8?$CF07d@
  0013d	ff 75 08	 push	 DWORD PTR _qryLog$[ebp]
  00140	e8 00 00 00 00	 call	 _sprintf
  00145	81 c4 a4 00 00
	00		 add	 esp, 164		; 000000a4H

; 756  : }

  0014b	c7 45 fc ff ff
	ff ff		 mov	 DWORD PTR __$EHRec$[ebp+8], -1
; File C:\Program Files\Microsoft Visual Studio\2022\Professional\VC\Tools\MSVC\14.44.35207\atlmfc\include\atlsimpstr.h

; 804  : 		return( reinterpret_cast< CStringData* >( m_pszData )-1 );

  00152	83 c6 f0	 add	 esi, -16		; fffffff0H

; 92   : 		if( _InterlockedDecrement( &nRefs ) <= 0 )

  00155	83 c8 ff	 or	 eax, -1
  00158	f0 0f c1 46 0c	 lock	  xadd	 DWORD PTR [esi+12], eax
  0015d	48		 dec	 eax
  0015e	85 c0		 test	 eax, eax
  00160	7f 08		 jg	 SHORT $LN44@DBQryLog

; 93   : 		{
; 94   : 			pStringMgr->Free( this );

  00162	8b 0e		 mov	 ecx, DWORD PTR [esi]
  00164	56		 push	 esi
  00165	8b 01		 mov	 eax, DWORD PTR [ecx]
  00167	ff 50 04	 call	 DWORD PTR [eax+4]
$LN44@DBQryLog:
; File C:\IAGOS\server\v18\Source\Source\_Database\DbManagerLog.cpp

; 756  : }

  0016a	8b 4d f4	 mov	 ecx, DWORD PTR __$EHRec$[ebp]
  0016d	64 89 0d 00 00
	00 00		 mov	 DWORD PTR fs:0, ecx
  00174	59		 pop	 ecx
  00175	5e		 pop	 esi
  00176	8b e5		 mov	 esp, ebp
  00178	5d		 pop	 ebp
  00179	c2 94 00	 ret	 148			; 00000094H
$LN52@DBQryLog:
; File C:\Program Files\Microsoft Visual Studio\2022\Professional\VC\Tools\MSVC\14.44.35207\atlmfc\include\atlsimpstr.h

; 209  : 		ATLENSURE( pStringMgr != NULL );

  0017c	68 05 40 00 80	 push	 -2147467259		; 80004005H
  00181	e8 00 00 00 00	 call	 ?AtlThrowImpl@ATL@@YGXJ@Z ; ATL::AtlThrowImpl
$LN50@DBQryLog:
  00186	cc		 int	 3
_TEXT	ENDS
;	COMDAT text$x
text$x	SEGMENT
__unwindfunclet$?DBQryLog@CDbManager@@QAEXPAD0KH_JHHHHHHHHHHDH0MMMHH0KHH0HHH0H0HK@Z$1:
  00000	8d 4d f0	 lea	 ecx, DWORD PTR _strItem$[ebp]
  00003	e9 00 00 00 00	 jmp	 ??1?$CSimpleStringT@D$0A@@ATL@@QAE@XZ ; ATL::CSimpleStringT<char,0>::~CSimpleStringT<char,0>
__unwindfunclet$?DBQryLog@CDbManager@@QAEXPAD0KH_JHHHHHHHHHHDH0MMMHH0KHH0HHH0H0HK@Z$0:
  00008	8d 4d f0	 lea	 ecx, DWORD PTR _strItem$[ebp]
  0000b	e9 00 00 00 00	 jmp	 ??1?$CStringT@DV?$StrTraitMFC@DV?$ChTraitsCRT@D@ATL@@@@@ATL@@QAE@XZ ; ATL::CStringT<char,StrTraitMFC<char,ATL::ChTraitsCRT<char> > >::~CStringT<char,StrTraitMFC<char,ATL::ChTraitsCRT<char> > >
  00010	cc		 int	 3
  00011	cc		 int	 3
  00012	cc		 int	 3
  00013	cc		 int	 3
  00014	cc		 int	 3
__ehhandler$?DBQryLog@CDbManager@@QAEXPAD0KH_JHHHHHHHHHHDH0MMMHH0KHH0HHH0H0HK@Z:
  00015	90		 npad	 1
  00016	90		 npad	 1
  00017	8b 54 24 08	 mov	 edx, DWORD PTR [esp+8]
  0001b	8d 42 0c	 lea	 eax, DWORD PTR [edx+12]
  0001e	8b 4a f4	 mov	 ecx, DWORD PTR [edx-12]
  00021	33 c8		 xor	 ecx, eax
  00023	e8 00 00 00 00	 call	 @__security_check_cookie@4
  00028	b8 00 00 00 00	 mov	 eax, OFFSET __ehfuncinfo$?DBQryLog@CDbManager@@QAEXPAD0KH_JHHHHHHHHHHDH0MMMHH0KHH0HHH0H0HK@Z
  0002d	e9 00 00 00 00	 jmp	 ___CxxFrameHandler3
text$x	ENDS
?DBQryLog@CDbManager@@QAEXPAD0KH_JHHHHHHHHHHDH0MMMHH0KHH0HHH0H0HK@Z ENDP ; CDbManager::DBQryLog
; Function compile flags: /Ogtp
; File C:\IAGOS\server\v18\Source\Source\_Database\DbManagerLog.cpp
;	COMDAT ?call_uspLoggingTrade@CDbManager@@QAEHPAVCQuery@@HHKKKPBDHHHKHHHH_J@Z
_TEXT	SEGMENT
_pszQuery$ = -1028					; size = 1024
__$ArrayPad$ = -4					; size = 4
_pQuery$ = 8						; size = 4
_nFlag$ = 12						; size = 4
_nTradeID$ = 16						; size = 4
_dwWorldID$ = 20					; size = 4
_idPlayer$ = 24						; size = 4
_dwTradeGold$ = 28					; size = 4
_lpAddr$ = 32						; size = 4
_nLevel$ = 36						; size = 4
_nJob$ = 40						; size = 4
_nItemIndex$ = 44					; size = 4
_iItemSerialNum$ = 48					; size = 4
_nItemCnt$ = 52						; size = 4
_nAbilityOpt$ = 56					; size = 4
_nItemResist$ = 60					; size = 4
_nResistAbilityOpt$ = 64				; size = 4
_iRandomOpt$ = 68					; size = 8
?call_uspLoggingTrade@CDbManager@@QAEHPAVCQuery@@HHKKKPBDHHHKHHHH_J@Z PROC ; CDbManager::call_uspLoggingTrade, COMDAT
; _this$ = ecx

; 1082 : {

  00000	55		 push	 ebp
  00001	8b ec		 mov	 ebp, esp
  00003	81 ec 04 04 00
	00		 sub	 esp, 1028		; 00000404H
  00009	a1 00 00 00 00	 mov	 eax, DWORD PTR ___security_cookie
  0000e	33 c5		 xor	 eax, ebp
  00010	89 45 fc	 mov	 DWORD PTR __$ArrayPad$[ebp], eax
  00013	56		 push	 esi
  00014	8b 75 08	 mov	 esi, DWORD PTR _pQuery$[ebp]

; 1083 : 	char pszQuery[1024]	= { 0, };

  00017	8d 85 fc fb ff
	ff		 lea	 eax, DWORD PTR _pszQuery$[ebp]
  0001d	57		 push	 edi
  0001e	8b 7d 20	 mov	 edi, DWORD PTR _lpAddr$[ebp]
  00021	68 00 04 00 00	 push	 1024			; 00000400H
  00026	6a 00		 push	 0
  00028	50		 push	 eax
  00029	e8 00 00 00 00	 call	 _memset

; 1084 : 	switch( nFlag )

  0002e	8b 45 0c	 mov	 eax, DWORD PTR _nFlag$[ebp]
  00031	83 c4 0c	 add	 esp, 12			; 0000000cH
  00034	83 e8 00	 sub	 eax, 0
  00037	74 77		 je	 SHORT $LN4@call_uspLo
  00039	83 e8 01	 sub	 eax, 1
  0003c	74 43		 je	 SHORT $LN5@call_uspLo
  0003e	83 e8 01	 sub	 eax, 1
  00041	0f 85 89 00 00
	00		 jne	 $LN2@call_uspLo

; 1097 : 			}
; 1098 : 		case 2:
; 1099 : 			{
; 1100 : 				sprintf( pszQuery, "uspLoggingTrade @pFlag=2, @pTradeID=%d, @pserverindex='%02d', @pidPlayer='%07d', @pItemIndex='%d', @pItemSerialNum=%d, @pItemCnt=%d, @pAbilityOpt=%d, @pItemResist=%d, @pResistAbilityOpt=%d,"

  00047	ff 75 48	 push	 DWORD PTR _iRandomOpt$[ebp+4]
  0004a	8d 85 fc fb ff
	ff		 lea	 eax, DWORD PTR _pszQuery$[ebp]
  00050	ff 75 44	 push	 DWORD PTR _iRandomOpt$[ebp]
  00053	ff 75 40	 push	 DWORD PTR _nResistAbilityOpt$[ebp]
  00056	ff 75 3c	 push	 DWORD PTR _nItemResist$[ebp]
  00059	ff 75 38	 push	 DWORD PTR _nAbilityOpt$[ebp]
  0005c	ff 75 34	 push	 DWORD PTR _nItemCnt$[ebp]
  0005f	ff 75 30	 push	 DWORD PTR _iItemSerialNum$[ebp]
  00062	ff 75 2c	 push	 DWORD PTR _nItemIndex$[ebp]
  00065	ff 75 18	 push	 DWORD PTR _idPlayer$[ebp]
  00068	ff 35 00 00 00
	00		 push	 DWORD PTR ?g_appInfo@@3UAppInfo@@A
  0006e	ff 75 10	 push	 DWORD PTR _nTradeID$[ebp]
  00071	68 00 00 00 00	 push	 OFFSET ??_C@_0MP@KFMPAGF@uspLoggingTrade?5?$EApFlag?$DN2?0?5?$EApTra@
  00076	50		 push	 eax
  00077	e8 00 00 00 00	 call	 _sprintf
  0007c	83 c4 34	 add	 esp, 52			; 00000034H
  0007f	eb 4f		 jmp	 SHORT $LN2@call_uspLo
$LN5@call_uspLo:

; 1089 : 					nTradeID, g_appInfo.dwSys, dwWorldID );
; 1090 : 				break;
; 1091 : 			}
; 1092 : 		case 1:
; 1093 : 			{
; 1094 : 				sprintf( pszQuery, "uspLoggingTrade @pFlag=1, @pTradeID=%d, @pserverindex='%02d', @pWorldID=%d, @pidPlayer='%07d', @pTradeGold=%d, @pPlayerIP='%s', @pLevel=%d, @pJob=%d",

  00081	ff 75 28	 push	 DWORD PTR _nJob$[ebp]
  00084	8d 85 fc fb ff
	ff		 lea	 eax, DWORD PTR _pszQuery$[ebp]
  0008a	ff 75 24	 push	 DWORD PTR _nLevel$[ebp]
  0008d	57		 push	 edi
  0008e	ff 75 1c	 push	 DWORD PTR _dwTradeGold$[ebp]
  00091	ff 75 18	 push	 DWORD PTR _idPlayer$[ebp]
  00094	ff 75 14	 push	 DWORD PTR _dwWorldID$[ebp]
  00097	ff 35 00 00 00
	00		 push	 DWORD PTR ?g_appInfo@@3UAppInfo@@A
  0009d	ff 75 10	 push	 DWORD PTR _nTradeID$[ebp]
  000a0	68 00 00 00 00	 push	 OFFSET ??_C@_0JF@NEPENEDF@uspLoggingTrade?5?$EApFlag?$DN1?0?5?$EApTra@
  000a5	50		 push	 eax
  000a6	e8 00 00 00 00	 call	 _sprintf
  000ab	83 c4 28	 add	 esp, 40			; 00000028H

; 1095 : 					nTradeID, g_appInfo.dwSys, dwWorldID, idPlayer, dwTradeGold, lpAddr, nLevel, nJob );
; 1096 : 				break;

  000ae	eb 20		 jmp	 SHORT $LN2@call_uspLo
$LN4@call_uspLo:

; 1085 : 	{
; 1086 : 		case 0:
; 1087 : 			{
; 1088 : 				sprintf( pszQuery, "uspLoggingTrade @pFlag=0, @pTradeID=%d, @pserverindex='%02d', @pWorldID=%d",

  000b0	ff 75 14	 push	 DWORD PTR _dwWorldID$[ebp]
  000b3	8d 85 fc fb ff
	ff		 lea	 eax, DWORD PTR _pszQuery$[ebp]
  000b9	ff 35 00 00 00
	00		 push	 DWORD PTR ?g_appInfo@@3UAppInfo@@A
  000bf	ff 75 10	 push	 DWORD PTR _nTradeID$[ebp]
  000c2	68 00 00 00 00	 push	 OFFSET ??_C@_0EL@JGHMGDLE@uspLoggingTrade?5?$EApFlag?$DN0?0?5?$EApTra@
  000c7	50		 push	 eax
  000c8	e8 00 00 00 00	 call	 _sprintf
  000cd	83 c4 14	 add	 esp, 20			; 00000014H
$LN2@call_uspLo:

; 1101 : #if __VER >= 11 // __SYS_IDENTIFY
; 1102 : 						"@pRandomOpt=%I64d",
; 1103 : #else	// __SYS_IDENTIFY
; 1104 : 						"@pRandomOpt=%d",
; 1105 : #endif	// __SYS_IDENTIFY
; 1106 : #if __VER >= 11 // __SYS_IDENTIFY
; 1107 : 					nTradeID, g_appInfo.dwSys, idPlayer, nItemIndex, iItemSerialNum, nItemCnt, nAbilityOpt, nItemResist, nResistAbilityOpt, iRandomOpt );
; 1108 : #else	// __SYS_IDENTIFY
; 1109 : 					nTradeID, g_appInfo.dwSys, idPlayer, nItemIndex, iItemSerialNum, nItemCnt, nAbilityOpt, nItemResist, nResistAbilityOpt, nRandomOpt );
; 1110 : #endif	// __SYS_IDENTIFY
; 1111 : 				break;
; 1112 : 			}
; 1113 : 	}
; 1114 : 	if ( FALSE == pQuery->Exec( pszQuery ) )

  000d0	8d 85 fc fb ff
	ff		 lea	 eax, DWORD PTR _pszQuery$[ebp]
  000d6	8b ce		 mov	 ecx, esi
  000d8	50		 push	 eax
  000d9	e8 00 00 00 00	 call	 ?Exec@CQuery@@QAEHPBD@Z	; CQuery::Exec
  000de	5f		 pop	 edi
  000df	5e		 pop	 esi
  000e0	85 c0		 test	 eax, eax
  000e2	75 30		 jne	 SHORT $LN7@call_uspLo

; 1115 : 	{
; 1116 : 		WriteLog( "%s, %d:\t%s", __FILE__, __LINE__, pszQuery );

  000e4	8d 85 fc fb ff
	ff		 lea	 eax, DWORD PTR _pszQuery$[ebp]
  000ea	50		 push	 eax
  000eb	68 5c 04 00 00	 push	 1116			; 0000045cH
  000f0	68 00 00 00 00	 push	 OFFSET ??_C@_0DN@OEMKJAPO@C?3?2IAGOS?2server?2v18?2Source?2Sour@
  000f5	68 00 00 00 00	 push	 OFFSET ??_C@_0L@EBJDFKBI@?$CFs?0?5?$CFd?3?7?$CFs@
  000fa	e8 00 00 00 00	 call	 ?WriteLog@@YAXPBDZZ	; WriteLog
  000ff	83 c4 10	 add	 esp, 16			; 00000010H

; 1117 : 		return FALSE;

  00102	33 c0		 xor	 eax, eax

; 1118 : 	}
; 1119 : //	OutputDebugString( pszQuery );
; 1120 : 	return TRUE;
; 1121 : }

  00104	8b 4d fc	 mov	 ecx, DWORD PTR __$ArrayPad$[ebp]
  00107	33 cd		 xor	 ecx, ebp
  00109	e8 00 00 00 00	 call	 @__security_check_cookie@4
  0010e	8b e5		 mov	 esp, ebp
  00110	5d		 pop	 ebp
  00111	c2 44 00	 ret	 68			; 00000044H
$LN7@call_uspLo:
  00114	8b 4d fc	 mov	 ecx, DWORD PTR __$ArrayPad$[ebp]
  00117	b8 01 00 00 00	 mov	 eax, 1
  0011c	33 cd		 xor	 ecx, ebp
  0011e	e8 00 00 00 00	 call	 @__security_check_cookie@4
  00123	8b e5		 mov	 esp, ebp
  00125	5d		 pop	 ebp
  00126	c2 44 00	 ret	 68			; 00000044H
?call_uspLoggingTrade@CDbManager@@QAEHPAVCQuery@@HHKKKPBDHHHKHHHH_J@Z ENDP ; CDbManager::call_uspLoggingTrade
_TEXT	ENDS
; Function compile flags: /Ogtp
; File C:\IAGOS\server\v18\Source\Source\_Database\DbManagerLog.cpp
; File C:\Program Files\Microsoft Visual Studio\2022\Professional\VC\Tools\MSVC\14.44.35207\atlmfc\include\afxstr.h
; File C:\Program Files\Microsoft Visual Studio\2022\Professional\VC\Tools\MSVC\14.44.35207\atlmfc\include\atlsimpstr.h
; File C:\Program Files\Microsoft Visual Studio\2022\Professional\VC\Tools\MSVC\14.44.35207\atlmfc\include\cstringt.h
; File C:\Program Files\Microsoft Visual Studio\2022\Professional\VC\Tools\MSVC\14.44.35207\atlmfc\include\atlsimpstr.h
; File C:\IAGOS\server\v18\Source\Source\_Database\DbManagerLog.cpp
; File C:\Program Files\Microsoft Visual Studio\2022\Professional\VC\Tools\MSVC\14.44.35207\atlmfc\include\atlsimpstr.h
; File C:\IAGOS\server\v18\Source\Source\_Database\DbManagerLog.cpp
; File C:\Program Files\Microsoft Visual Studio\2022\Professional\VC\Tools\MSVC\14.44.35207\atlmfc\include\atlsimpstr.h
; File C:\IAGOS\server\v18\Source\Source\_Database\DbManagerLog.cpp
;	COMDAT ?Gamema_Chat@CDbManager@@QAEXPAVCQuery@@PAUtagDB_OVERLAPPED_PLUS@@@Z
_TEXT	SEGMENT
_qry$GSCopy$1$ = -58416					; size = 4
_uidPlayer$ = -58412					; size = 4
_strBuf$ = -58408					; size = 4
_arRead$ = -58404					; size = 16404
_szQuery$ = -42000					; size = 40960
_szGamema$ = -1040					; size = 1024
__$ArrayPad$ = -16					; size = 4
__$EHRec$ = -12						; size = 12
_qry$ = 8						; size = 4
_lpDbOverlappedPlus$ = 12				; size = 4
?Gamema_Chat@CDbManager@@QAEXPAVCQuery@@PAUtagDB_OVERLAPPED_PLUS@@@Z PROC ; CDbManager::Gamema_Chat, COMDAT
; _this$ = ecx

; 759  : {

  00000	55		 push	 ebp
  00001	8b ec		 mov	 ebp, esp
  00003	6a ff		 push	 -1
  00005	68 00 00 00 00	 push	 __ehhandler$?Gamema_Chat@CDbManager@@QAEXPAVCQuery@@PAUtagDB_OVERLAPPED_PLUS@@@Z
  0000a	64 a1 00 00 00
	00		 mov	 eax, DWORD PTR fs:0
  00010	50		 push	 eax
  00011	b8 24 e4 00 00	 mov	 eax, 58404		; 0000e424H
  00016	e8 00 00 00 00	 call	 __chkstk
  0001b	a1 00 00 00 00	 mov	 eax, DWORD PTR ___security_cookie
  00020	33 c5		 xor	 eax, ebp
  00022	89 45 f0	 mov	 DWORD PTR __$ArrayPad$[ebp], eax
  00025	53		 push	 ebx
  00026	56		 push	 esi
  00027	57		 push	 edi
  00028	50		 push	 eax
  00029	8d 45 f4	 lea	 eax, DWORD PTR __$EHRec$[ebp]
  0002c	64 a3 00 00 00
	00		 mov	 DWORD PTR fs:0, eax
  00032	8b d9		 mov	 ebx, ecx
  00034	8b 7d 0c	 mov	 edi, DWORD PTR _lpDbOverlappedPlus$[ebp]

; 760  : 	CAr arRead( lpDbOverlappedPlus->lpBuf, lpDbOverlappedPlus->uBufSize );

  00037	8d 8d dc 1b ff
	ff		 lea	 ecx, DWORD PTR _arRead$[ebp]
  0003d	8b 45 08	 mov	 eax, DWORD PTR _qry$[ebp]
  00040	89 85 d0 1b ff
	ff		 mov	 DWORD PTR _qry$GSCopy$1$[ebp], eax
  00046	ff 77 1c	 push	 DWORD PTR [edi+28]
  00049	ff 77 18	 push	 DWORD PTR [edi+24]
  0004c	e8 00 00 00 00	 call	 ??0CAr@@QAE@PAXI@Z	; CAr::CAr

; 761  : 
; 762  : 	char szGamema[1024];
; 763  : 	u_long uidPlayer;
; 764  : 
; 765  : 	arRead >> uidPlayer;

  00051	8d 85 d4 1b ff
	ff		 lea	 eax, DWORD PTR _uidPlayer$[ebp]
  00057	c7 45 fc 00 00
	00 00		 mov	 DWORD PTR __$EHRec$[ebp+8], 0
  0005e	50		 push	 eax
  0005f	8d 8d dc 1b ff
	ff		 lea	 ecx, DWORD PTR _arRead$[ebp]
  00065	e8 00 00 00 00	 call	 ??$?5K@CAr@@QAEAAV0@AAK@Z ; CAr::operator>><unsigned long>

; 766  : 	arRead.ReadString( szGamema, 1024 );

  0006a	68 00 04 00 00	 push	 1024			; 00000400H
  0006f	8d 85 f0 fb ff
	ff		 lea	 eax, DWORD PTR _szGamema$[ebp]
  00075	50		 push	 eax
  00076	8d 8d dc 1b ff
	ff		 lea	 ecx, DWORD PTR _arRead$[ebp]
  0007c	e8 00 00 00 00	 call	 ?ReadString@CAr@@QAEPADPADH@Z ; CAr::ReadString
; File C:\Program Files\Microsoft Visual Studio\2022\Professional\VC\Tools\MSVC\14.44.35207\atlmfc\include\afxstr.h

; 56   : 		return( AfxGetStringManager() );

  00081	e8 00 00 00 00	 call	 ?AfxGetStringManager@@YGPAUIAtlStringMgr@ATL@@XZ ; AfxGetStringManager
  00086	8b c8		 mov	 ecx, eax
; File C:\Program Files\Microsoft Visual Studio\2022\Professional\VC\Tools\MSVC\14.44.35207\atlmfc\include\atlsimpstr.h

; 209  : 		ATLENSURE( pStringMgr != NULL );

  00088	85 c9		 test	 ecx, ecx
  0008a	0f 84 6f 01 00
	00		 je	 $LN51@Gamema_Cha

; 210  : 		CStringData* pData = pStringMgr->GetNilString();

  00090	8b 01		 mov	 eax, DWORD PTR [ecx]
  00092	ff 50 0c	 call	 DWORD PTR [eax+12]

; 211  : 		Attach( pData );

  00095	83 c0 10	 add	 eax, 16			; 00000010H
  00098	89 85 d8 1b ff
	ff		 mov	 DWORD PTR _strBuf$[ebp], eax
; File C:\Program Files\Microsoft Visual Studio\2022\Professional\VC\Tools\MSVC\14.44.35207\atlmfc\include\cstringt.h

; 2712 : 		if( (pv != NULL) && IS_INTRESOURCE( pv ) )

  0009e	8d 85 f0 fb ff
	ff		 lea	 eax, DWORD PTR _szGamema$[ebp]

; 1052 : 		CThisSimpleString( StringTraits::GetDefaultManager() )

  000a4	c6 45 fc 01	 mov	 BYTE PTR __$EHRec$[ebp+8], 1

; 2712 : 		if( (pv != NULL) && IS_INTRESOURCE( pv ) )

  000a8	a9 00 00 ff ff	 test	 eax, -65536		; ffff0000H
  000ad	75 11		 jne	 SHORT $LN46@Gamema_Cha

; 2713 : 		{
; 2714 : 			UINT nID = LOWORD( reinterpret_cast< DWORD_PTR >( pv ) );

  000af	0f b7 c0	 movzx	 eax, ax

; 2715 : 			(nID);
; 2716 : #ifdef _ATL_USE_WINAPI_FAMILY_DESKTOP_APP
; 2717 : 			if( !LoadString( nID ) )

  000b2	8d 8d d8 1b ff
	ff		 lea	 ecx, DWORD PTR _strBuf$[ebp]
  000b8	50		 push	 eax
  000b9	e8 00 00 00 00	 call	 ?LoadStringA@?$CStringT@DV?$StrTraitMFC@DV?$ChTraitsCRT@D@ATL@@@@@ATL@@QAEHI@Z ; ATL::CStringT<char,StrTraitMFC<char,ATL::ChTraitsCRT<char> > >::LoadStringA

; 1054 : 		if( !CheckImplicitLoad( pszSrc ) )

  000be	eb 2c		 jmp	 SHORT $LN8@Gamema_Cha
$LN46@Gamema_Cha:
; File C:\Program Files\Microsoft Visual Studio\2022\Professional\VC\Tools\MSVC\14.44.35207\atlmfc\include\atlsimpstr.h

; 730  : 		return( int( strlen( psz ) ) );

  000c0	8d 8d f0 fb ff
	ff		 lea	 ecx, DWORD PTR _szGamema$[ebp]
  000c6	8d 51 01	 lea	 edx, DWORD PTR [ecx+1]
  000c9	0f 1f 80 00 00
	00 00		 npad	 7
$LL47@Gamema_Cha:
  000d0	8a 01		 mov	 al, BYTE PTR [ecx]
  000d2	41		 inc	 ecx
  000d3	84 c0		 test	 al, al
  000d5	75 f9		 jne	 SHORT $LL47@Gamema_Cha
  000d7	2b ca		 sub	 ecx, edx

; 606  : 		SetString( pszSrc, StringLength( pszSrc ) );

  000d9	8d 85 f0 fb ff
	ff		 lea	 eax, DWORD PTR _szGamema$[ebp]
  000df	51		 push	 ecx
  000e0	50		 push	 eax
  000e1	8d 8d d8 1b ff
	ff		 lea	 ecx, DWORD PTR _strBuf$[ebp]
  000e7	e8 00 00 00 00	 call	 ?SetString@?$CSimpleStringT@D$0A@@ATL@@QAEXPBDH@Z ; ATL::CSimpleStringT<char,0>::SetString
$LN8@Gamema_Cha:
; File C:\IAGOS\server\v18\Source\Source\_Database\DbManagerLog.cpp

; 769  : 	strBuf.Replace( "--", "" );

  000ec	68 00 00 00 00	 push	 OFFSET ??_C@_00CNPNBAHC@@
  000f1	68 00 00 00 00	 push	 OFFSET ??_C@_02BAABKJLB@?9?9@
  000f6	8d 8d d8 1b ff
	ff		 lea	 ecx, DWORD PTR _strBuf$[ebp]
  000fc	c6 45 fc 02	 mov	 BYTE PTR __$EHRec$[ebp+8], 2
  00100	e8 00 00 00 00	 call	 ?Replace@?$CStringT@DV?$StrTraitMFC@DV?$ChTraitsCRT@D@ATL@@@@@ATL@@QAEHPBD0@Z ; ATL::CStringT<char,StrTraitMFC<char,ATL::ChTraitsCRT<char> > >::Replace

; 770  : 	strBuf.Replace( "'", "" );

  00105	68 00 00 00 00	 push	 OFFSET ??_C@_00CNPNBAHC@@
  0010a	68 00 00 00 00	 push	 OFFSET ??_C@_01GEODFPGF@?8@
  0010f	8d 8d d8 1b ff
	ff		 lea	 ecx, DWORD PTR _strBuf$[ebp]
  00115	e8 00 00 00 00	 call	 ?Replace@?$CStringT@DV?$StrTraitMFC@DV?$ChTraitsCRT@D@ATL@@@@@ATL@@QAEHPBD0@Z ; ATL::CStringT<char,StrTraitMFC<char,ATL::ChTraitsCRT<char> > >::Replace

; 771  : 	strBuf.Replace( "/*", "" );

  0011a	68 00 00 00 00	 push	 OFFSET ??_C@_00CNPNBAHC@@
  0011f	68 00 00 00 00	 push	 OFFSET ??_C@_02FMMEOLBI@?1?$CK@
  00124	8d 8d d8 1b ff
	ff		 lea	 ecx, DWORD PTR _strBuf$[ebp]
  0012a	e8 00 00 00 00	 call	 ?Replace@?$CStringT@DV?$StrTraitMFC@DV?$ChTraitsCRT@D@ATL@@@@@ATL@@QAEHPBD0@Z ; ATL::CStringT<char,StrTraitMFC<char,ATL::ChTraitsCRT<char> > >::Replace

; 772  : 	strBuf.Replace( "*/", "" );

  0012f	68 00 00 00 00	 push	 OFFSET ??_C@_00CNPNBAHC@@
  00134	68 00 00 00 00	 push	 OFFSET ??_C@_02CHHINNLG@?$CK?1@
  00139	8d 8d d8 1b ff
	ff		 lea	 ecx, DWORD PTR _strBuf$[ebp]
  0013f	e8 00 00 00 00	 call	 ?Replace@?$CStringT@DV?$StrTraitMFC@DV?$ChTraitsCRT@D@ATL@@@@@ATL@@QAEHPBD0@Z ; ATL::CStringT<char,StrTraitMFC<char,ATL::ChTraitsCRT<char> > >::Replace

; 773  : 
; 774  : 	// LOG_GAMEMASTER_STR '%s','%s','%s'
; 775  : 	char szQuery[QUERY_SIZE]	= { 0,};

  00144	68 00 a0 00 00	 push	 40960			; 0000a000H
  00149	8d 85 f0 5b ff
	ff		 lea	 eax, DWORD PTR _szQuery$[ebp]
  0014f	6a 00		 push	 0
  00151	50		 push	 eax
  00152	e8 00 00 00 00	 call	 _memset

; 776  : 	sprintf( szQuery,

  00157	8b b5 d8 1b ff
	ff		 mov	 esi, DWORD PTR _strBuf$[ebp]
  0015d	8d 85 f0 5b ff
	ff		 lea	 eax, DWORD PTR _szQuery$[ebp]
  00163	56		 push	 esi
  00164	ff 35 00 00 00
	00		 push	 DWORD PTR ?g_appInfo@@3UAppInfo@@A
  0016a	ff b5 d4 1b ff
	ff		 push	 DWORD PTR _uidPlayer$[ebp]
  00170	68 00 00 00 00	 push	 OFFSET ??_C@_0EL@OGOADBGI@LOG_GAMEMASTER_STR?5?$EAim_idPlayer@
  00175	50		 push	 eax
  00176	e8 00 00 00 00	 call	 _sprintf

; 777  : 		"LOG_GAMEMASTER_STR @im_idPlayer='%07d',@iserverindex='%02d',@iszWords='%s'", uidPlayer, g_appInfo.dwSys, strBuf );
; 778  : 
; 779  : //	qry->Clear();
; 780  : 	if ( FALSE == qry->Exec( szQuery ) )

  0017b	8b 8d d0 1b ff
	ff		 mov	 ecx, DWORD PTR _qry$GSCopy$1$[ebp]
  00181	8d 85 f0 5b ff
	ff		 lea	 eax, DWORD PTR _szQuery$[ebp]
  00187	83 c4 20	 add	 esp, 32			; 00000020H
  0018a	50		 push	 eax
  0018b	e8 00 00 00 00	 call	 ?Exec@CQuery@@QAEHPBD@Z	; CQuery::Exec
  00190	85 c0		 test	 eax, eax
  00192	75 1e		 jne	 SHORT $LN2@Gamema_Cha

; 781  : 	{
; 782  : 		WriteLog( "%s, %d\t%s", __FILE__, __LINE__, szQuery );

  00194	8d 85 f0 5b ff
	ff		 lea	 eax, DWORD PTR _szQuery$[ebp]
  0019a	50		 push	 eax
  0019b	68 0e 03 00 00	 push	 782			; 0000030eH
  001a0	68 00 00 00 00	 push	 OFFSET ??_C@_0DN@OEMKJAPO@C?3?2IAGOS?2server?2v18?2Source?2Sour@
  001a5	68 00 00 00 00	 push	 OFFSET ??_C@_09GBAEEKDE@?$CFs?0?5?$CFd?7?$CFs@
  001aa	e8 00 00 00 00	 call	 ?WriteLog@@YAXPBDZZ	; WriteLog
  001af	83 c4 10	 add	 esp, 16			; 00000010H
$LN2@Gamema_Cha:

; 790  : }

  001b2	57		 push	 edi
  001b3	8b cb		 mov	 ecx, ebx
  001b5	e8 00 00 00 00	 call	 ?FreeRequest@CDbManager@@QAEXPAUtagDB_OVERLAPPED_PLUS@@@Z ; CDbManager::FreeRequest
  001ba	c6 45 fc 00	 mov	 BYTE PTR __$EHRec$[ebp+8], 0
; File C:\Program Files\Microsoft Visual Studio\2022\Professional\VC\Tools\MSVC\14.44.35207\atlmfc\include\atlsimpstr.h

; 804  : 		return( reinterpret_cast< CStringData* >( m_pszData )-1 );

  001be	83 c6 f0	 add	 esi, -16		; fffffff0H

; 92   : 		if( _InterlockedDecrement( &nRefs ) <= 0 )

  001c1	83 c8 ff	 or	 eax, -1
  001c4	f0 0f c1 46 0c	 lock	  xadd	 DWORD PTR [esi+12], eax
  001c9	48		 dec	 eax
  001ca	85 c0		 test	 eax, eax
  001cc	7f 08		 jg	 SHORT $LN44@Gamema_Cha

; 93   : 		{
; 94   : 			pStringMgr->Free( this );

  001ce	8b 0e		 mov	 ecx, DWORD PTR [esi]
  001d0	56		 push	 esi
  001d1	8b 01		 mov	 eax, DWORD PTR [ecx]
  001d3	ff 50 04	 call	 DWORD PTR [eax+4]
$LN44@Gamema_Cha:
; File C:\IAGOS\server\v18\Source\Source\_Database\DbManagerLog.cpp

; 790  : }

  001d6	8d 8d dc 1b ff
	ff		 lea	 ecx, DWORD PTR _arRead$[ebp]
  001dc	e8 00 00 00 00	 call	 ??1CAr@@QAE@XZ		; CAr::~CAr
  001e1	8b 4d f4	 mov	 ecx, DWORD PTR __$EHRec$[ebp]
  001e4	64 89 0d 00 00
	00 00		 mov	 DWORD PTR fs:0, ecx
  001eb	59		 pop	 ecx
  001ec	5f		 pop	 edi
  001ed	5e		 pop	 esi
  001ee	5b		 pop	 ebx
  001ef	8b 4d f0	 mov	 ecx, DWORD PTR __$ArrayPad$[ebp]
  001f2	33 cd		 xor	 ecx, ebp
  001f4	e8 00 00 00 00	 call	 @__security_check_cookie@4
  001f9	8b e5		 mov	 esp, ebp
  001fb	5d		 pop	 ebp
  001fc	c2 08 00	 ret	 8
$LN51@Gamema_Cha:
; File C:\Program Files\Microsoft Visual Studio\2022\Professional\VC\Tools\MSVC\14.44.35207\atlmfc\include\atlsimpstr.h

; 209  : 		ATLENSURE( pStringMgr != NULL );

  001ff	68 05 40 00 80	 push	 -2147467259		; 80004005H
  00204	e8 00 00 00 00	 call	 ?AtlThrowImpl@ATL@@YGXJ@Z ; ATL::AtlThrowImpl
$LN49@Gamema_Cha:
  00209	cc		 int	 3
_TEXT	ENDS
;	COMDAT text$x
text$x	SEGMENT
__unwindfunclet$?Gamema_Chat@CDbManager@@QAEXPAVCQuery@@PAUtagDB_OVERLAPPED_PLUS@@@Z$0:
  00000	8d 8d dc 1b ff
	ff		 lea	 ecx, DWORD PTR _arRead$[ebp]
  00006	e9 00 00 00 00	 jmp	 ??1CAr@@QAE@XZ		; CAr::~CAr
__unwindfunclet$?Gamema_Chat@CDbManager@@QAEXPAVCQuery@@PAUtagDB_OVERLAPPED_PLUS@@@Z$2:
  0000b	8d 8d d8 1b ff
	ff		 lea	 ecx, DWORD PTR _strBuf$[ebp]
  00011	e9 00 00 00 00	 jmp	 ??1?$CSimpleStringT@D$0A@@ATL@@QAE@XZ ; ATL::CSimpleStringT<char,0>::~CSimpleStringT<char,0>
__unwindfunclet$?Gamema_Chat@CDbManager@@QAEXPAVCQuery@@PAUtagDB_OVERLAPPED_PLUS@@@Z$1:
  00016	8d 8d d8 1b ff
	ff		 lea	 ecx, DWORD PTR _strBuf$[ebp]
  0001c	e9 00 00 00 00	 jmp	 ??1?$CStringT@DV?$StrTraitMFC@DV?$ChTraitsCRT@D@ATL@@@@@ATL@@QAE@XZ ; ATL::CStringT<char,StrTraitMFC<char,ATL::ChTraitsCRT<char> > >::~CStringT<char,StrTraitMFC<char,ATL::ChTraitsCRT<char> > >
  00021	cc		 int	 3
  00022	cc		 int	 3
  00023	cc		 int	 3
  00024	cc		 int	 3
  00025	cc		 int	 3
__ehhandler$?Gamema_Chat@CDbManager@@QAEXPAVCQuery@@PAUtagDB_OVERLAPPED_PLUS@@@Z:
  00026	90		 npad	 1
  00027	90		 npad	 1
  00028	8b 54 24 08	 mov	 edx, DWORD PTR [esp+8]
  0002c	8d 42 0c	 lea	 eax, DWORD PTR [edx+12]
  0002f	8b 8a cc 1b ff
	ff		 mov	 ecx, DWORD PTR [edx-58420]
  00035	33 c8		 xor	 ecx, eax
  00037	e8 00 00 00 00	 call	 @__security_check_cookie@4
  0003c	8b 4a fc	 mov	 ecx, DWORD PTR [edx-4]
  0003f	33 c8		 xor	 ecx, eax
  00041	e8 00 00 00 00	 call	 @__security_check_cookie@4
  00046	b8 00 00 00 00	 mov	 eax, OFFSET __ehfuncinfo$?Gamema_Chat@CDbManager@@QAEXPAVCQuery@@PAUtagDB_OVERLAPPED_PLUS@@@Z
  0004b	e9 00 00 00 00	 jmp	 ___CxxFrameHandler3
text$x	ENDS
?Gamema_Chat@CDbManager@@QAEXPAVCQuery@@PAUtagDB_OVERLAPPED_PLUS@@@Z ENDP ; CDbManager::Gamema_Chat
; Function compile flags: /Ogtp
; File C:\IAGOS\server\v18\Source\Source\_network\CmnHdr.h
;	COMDAT ??0_LogItemInfo@@QAE@XZ
_TEXT	SEGMENT
??0_LogItemInfo@@QAE@XZ PROC				; _LogItemInfo::_LogItemInfo, COMDAT
; _this$ = ecx

; 636  : 	{
; 637  : 		Action = _T("");

  00000	c7 01 00 00 00
	00		 mov	 DWORD PTR [ecx], OFFSET ??_C@_00CNPNBAHC@@
  00006	0f 57 c0	 xorps	 xmm0, xmm0

; 638  : 		SendName = _T("");

  00009	c7 41 04 00 00
	00 00		 mov	 DWORD PTR [ecx+4], OFFSET ??_C@_00CNPNBAHC@@

; 639  : 		RecvName = _T("");
; 640  : 		WorldId = Gold = Gold2 = 0;
; 641  : 		Negudo = 0;
; 642  : 		MaxNegudo = 0;
; 643  : 		ItemNo = 0;
; 644  : 		//ItemName = _T("");
; 645  : 		::memset( szItemName, 0, sizeof(szItemName) );
; 646  : 		itemNumber = 0;
; 647  : 		nAbilityOption = 0;
; 648  : 		Gold_1 = 0;
; 649  : 		nSlot = 100;
; 650  : 		nSlot1 = 100;
; 651  : 		nItemResist = 0;
; 652  : 		nResistAbilityOption = 0;
; 653  : 		m_bCharged = FALSE;
; 654  : 		m_dwKeepTime = 0;
; 655  : #if __VER >= 11 // __SYS_IDENTIFY
; 656  : 		m_iRandomOptItemId = 0;
; 657  : #else	//__SYS_IDENTIFY
; 658  : 		m_nRandomOptItemId = 0;
; 659  : #endif	// __SYS_IDENTIFY
; 660  : #if __VER >= 12 // __EXT_PIERCING
; 661  : 		nPiercedSize = 0;
; 662  : //		for( int i=0; i<MAX_PIERCING_WEAPON; i++ )
; 663  : //			adwItemId[i] = 0;
; 664  : 		memset( adwItemId, 0, sizeof(adwItemId) );
; 665  : 		nUMPiercedSize = 0;
; 666  : //		for( i=0; i<MAX_PIERCING_ULTIMATE; i++ )
; 667  : //	adwUMItemId[i] = 0;
; 668  : 		memset( adwUMItemId, 0, sizeof(adwUMItemId) );
; 669  : #else // __EXT_PIERCING
; 670  : 		nPiercedSize = 0;
; 671  : 		adwItemId0 = 0;
; 672  : 		adwItemId1 = 0;
; 673  : 		adwItemId2 = 0;
; 674  : 		adwItemId3 = 0;
; 675  : #if __VER >= 9 // __ULTIMATE
; 676  : 		adwItemId4 = 0;
; 677  : #endif // __ULTIMATE
; 678  : #endif // __EXT_PIERCING
; 679  : #if __VER >= 9 // __PET_0410
; 680  : 		nPetKind = 0;
; 681  : 		nPetLevel = 0;
; 682  : 		dwPetExp = 0;
; 683  : 		wPetEnergy = 0;

  00010	33 c0		 xor	 eax, eax
  00012	c7 41 08 00 00
	00 00		 mov	 DWORD PTR [ecx+8], OFFSET ??_C@_00CNPNBAHC@@
  00019	c7 41 14 00 00
	00 00		 mov	 DWORD PTR [ecx+20], 0
  00020	c7 41 10 00 00
	00 00		 mov	 DWORD PTR [ecx+16], 0
  00027	c7 41 0c 00 00
	00 00		 mov	 DWORD PTR [ecx+12], 0
  0002e	c7 41 1c 00 00
	00 00		 mov	 DWORD PTR [ecx+28], 0
  00035	c7 41 20 00 00
	00 00		 mov	 DWORD PTR [ecx+32], 0
  0003c	c7 41 18 00 00
	00 00		 mov	 DWORD PTR [ecx+24], 0
  00043	0f 11 41 24	 movups	 XMMWORD PTR [ecx+36], xmm0
  00047	0f 11 41 34	 movups	 XMMWORD PTR [ecx+52], xmm0
  0004b	c7 41 44 00 00
	00 00		 mov	 DWORD PTR [ecx+68], 0
  00052	c7 41 48 00 00
	00 00		 mov	 DWORD PTR [ecx+72], 0
  00059	c7 41 4c 00 00
	00 00		 mov	 DWORD PTR [ecx+76], 0
  00060	c7 41 50 64 00
	00 00		 mov	 DWORD PTR [ecx+80], 100	; 00000064H
  00067	c7 41 54 64 00
	00 00		 mov	 DWORD PTR [ecx+84], 100	; 00000064H
  0006e	c7 41 58 00 00
	00 00		 mov	 DWORD PTR [ecx+88], 0
  00075	c7 41 5c 00 00
	00 00		 mov	 DWORD PTR [ecx+92], 0
  0007c	c7 41 60 00 00
	00 00		 mov	 DWORD PTR [ecx+96], 0
  00083	c7 41 64 00 00
	00 00		 mov	 DWORD PTR [ecx+100], 0
  0008a	c7 41 68 00 00
	00 00		 mov	 DWORD PTR [ecx+104], 0
  00091	c7 41 6c 00 00
	00 00		 mov	 DWORD PTR [ecx+108], 0
  00098	c7 41 70 00 00
	00 00		 mov	 DWORD PTR [ecx+112], 0
  0009f	0f 11 41 74	 movups	 XMMWORD PTR [ecx+116], xmm0
  000a3	0f 11 81 84 00
	00 00		 movups	 XMMWORD PTR [ecx+132], xmm0
  000aa	66 0f d6 81 94
	00 00 00	 movq	 QWORD PTR [ecx+148], xmm0
  000b2	c7 81 9c 00 00
	00 00 00 00 00	 mov	 DWORD PTR [ecx+156], 0
  000bc	0f 11 81 a0 00
	00 00		 movups	 XMMWORD PTR [ecx+160], xmm0
  000c3	c7 81 b0 00 00
	00 00 00 00 00	 mov	 DWORD PTR [ecx+176], 0
  000cd	89 81 bc 00 00
	00		 mov	 DWORD PTR [ecx+188], eax

; 684  : 		wPetLife = 0;
; 685  : 		nPetAL_D = 0;

  000d3	89 81 c0 00 00
	00		 mov	 DWORD PTR [ecx+192], eax

; 686  : 		nPetAL_C = 0;
; 687  : 		nPetAL_B = 0;
; 688  : 		nPetAL_A = 0;
; 689  : 		nPetAL_S = 0;

  000d9	88 81 c4 00 00
	00		 mov	 BYTE PTR [ecx+196], al

; 690  : #endif // __PET_0410
; 691  : 	}

  000df	8b c1		 mov	 eax, ecx
  000e1	66 c7 81 b4 00
	00 00 00 00	 mov	 WORD PTR [ecx+180], 0
  000ea	c7 81 b8 00 00
	00 00 00 00 00	 mov	 DWORD PTR [ecx+184], 0
  000f4	c3		 ret	 0
??0_LogItemInfo@@QAE@XZ ENDP				; _LogItemInfo::_LogItemInfo
_TEXT	ENDS
; Function compile flags: /Ogtp
; File C:\Program Files\Microsoft Visual Studio\2022\Professional\VC\Tools\MSVC\14.44.35207\atlmfc\include\atltime.h
; File C:\Program Files\Microsoft Visual Studio\2022\Professional\VC\Tools\MSVC\14.44.35207\atlmfc\include\afxstr.h
; File C:\Program Files\Microsoft Visual Studio\2022\Professional\VC\Tools\MSVC\14.44.35207\atlmfc\include\atlsimpstr.h
; File C:\Program Files\Microsoft Visual Studio\2022\Professional\VC\Tools\MSVC\14.44.35207\atlmfc\include\cstringt.h
; File C:\Program Files\Microsoft Visual Studio\2022\Professional\VC\Tools\MSVC\14.44.35207\atlmfc\include\atlsimpstr.h
; File C:\Program Files\Microsoft Visual Studio\2022\Professional\VC\Tools\MSVC\14.44.35207\atlmfc\include\atltime.h
; File C:\Program Files\Microsoft Visual Studio\2022\Professional\VC\Tools\MSVC\14.44.35207\atlmfc\include\afxstr.h
; File C:\Program Files\Microsoft Visual Studio\2022\Professional\VC\Tools\MSVC\14.44.35207\atlmfc\include\atlsimpstr.h
; File C:\Program Files\Microsoft Visual Studio\2022\Professional\VC\Tools\MSVC\14.44.35207\atlmfc\include\cstringt.h
; File C:\Program Files\Microsoft Visual Studio\2022\Professional\VC\Tools\MSVC\14.44.35207\atlmfc\include\atlsimpstr.h
; File C:\Program Files\Microsoft Visual Studio\2022\Professional\VC\Tools\MSVC\14.44.35207\atlmfc\include\atltime.h
; File C:\Program Files\Microsoft Visual Studio\2022\Professional\VC\Tools\MSVC\14.44.35207\atlmfc\include\atlsimpstr.h
; File C:\Program Files\Microsoft Visual Studio\2022\Professional\VC\Tools\MSVC\14.44.35207\atlmfc\include\atltime.h
;	COMDAT ?Format@CTime@ATL@@QBE?AV?$CStringT@DV?$StrTraitMFC@DV?$ChTraitsCRT@D@ATL@@@@@2@PBD@Z
_TEXT	SEGMENT
___$ReturnUdt$GSCopy$ = -184				; size = 4
_ptmTemp$ = -180					; size = 36
_szBuffer$ = -144					; size = 128
__$ArrayPad$ = -16					; size = 4
__$EHRec$ = -12						; size = 12
___$ReturnUdt$ = 8					; size = 4
_pFormat$ = 12						; size = 4
?Format@CTime@ATL@@QBE?AV?$CStringT@DV?$StrTraitMFC@DV?$ChTraitsCRT@D@ATL@@@@@2@PBD@Z PROC ; ATL::CTime::Format, COMDAT
; _this$ = ecx

; 1060 : {

  00000	55		 push	 ebp
  00001	8b ec		 mov	 ebp, esp
  00003	6a ff		 push	 -1
  00005	68 00 00 00 00	 push	 __ehhandler$?Format@CTime@ATL@@QBE?AV?$CStringT@DV?$StrTraitMFC@DV?$ChTraitsCRT@D@ATL@@@@@2@PBD@Z
  0000a	64 a1 00 00 00
	00		 mov	 eax, DWORD PTR fs:0
  00010	50		 push	 eax
  00011	81 ec b0 00 00
	00		 sub	 esp, 176		; 000000b0H
  00017	a1 00 00 00 00	 mov	 eax, DWORD PTR ___security_cookie
  0001c	33 c5		 xor	 eax, ebp
  0001e	89 45 f0	 mov	 DWORD PTR __$ArrayPad$[ebp], eax
  00021	56		 push	 esi
  00022	57		 push	 edi
  00023	50		 push	 eax
  00024	8d 45 f4	 lea	 eax, DWORD PTR __$EHRec$[ebp]
  00027	64 a3 00 00 00
	00		 mov	 DWORD PTR fs:0, eax
  0002d	8b 7d 0c	 mov	 edi, DWORD PTR _pFormat$[ebp]
  00030	8b 75 08	 mov	 esi, DWORD PTR ___$ReturnUdt$[ebp]
  00033	89 b5 48 ff ff
	ff		 mov	 DWORD PTR ___$ReturnUdt$GSCopy$[ebp], esi

; 1061 : 	if(pFormat == NULL)

  00039	85 ff		 test	 edi, edi
  0003b	75 23		 jne	 SHORT $LN2@Format
; File C:\Program Files\Microsoft Visual Studio\2022\Professional\VC\Tools\MSVC\14.44.35207\atlmfc\include\afxstr.h

; 56   : 		return( AfxGetStringManager() );

  0003d	e8 00 00 00 00	 call	 ?AfxGetStringManager@@YGPAUIAtlStringMgr@ATL@@XZ ; AfxGetStringManager
  00042	8b c8		 mov	 ecx, eax
; File C:\Program Files\Microsoft Visual Studio\2022\Professional\VC\Tools\MSVC\14.44.35207\atlmfc\include\atlsimpstr.h

; 209  : 		ATLENSURE( pStringMgr != NULL );

  00044	85 c9		 test	 ecx, ecx
  00046	0f 84 d5 00 00
	00		 je	 $LN72@Format

; 210  : 		CStringData* pData = pStringMgr->GetNilString();

  0004c	8b 01		 mov	 eax, DWORD PTR [ecx]
  0004e	ff 50 0c	 call	 DWORD PTR [eax+12]

; 211  : 		Attach( pData );

  00051	83 c0 10	 add	 eax, 16			; 00000010H
  00054	89 06		 mov	 DWORD PTR [esi], eax

; 606  : 		SetString( pszSrc, StringLength( pszSrc ) );

  00056	57		 push	 edi
; File C:\Program Files\Microsoft Visual Studio\2022\Professional\VC\Tools\MSVC\14.44.35207\atlmfc\include\cstringt.h

; 1052 : 		CThisSimpleString( StringTraits::GetDefaultManager() )

  00057	89 7d fc	 mov	 DWORD PTR __$EHRec$[ebp+8], edi
; File C:\Program Files\Microsoft Visual Studio\2022\Professional\VC\Tools\MSVC\14.44.35207\atlmfc\include\atlsimpstr.h

; 606  : 		SetString( pszSrc, StringLength( pszSrc ) );

  0005a	57		 push	 edi
; File C:\Program Files\Microsoft Visual Studio\2022\Professional\VC\Tools\MSVC\14.44.35207\atlmfc\include\atltime.h

; 1063 : 		return pFormat;

  0005b	e9 91 00 00 00	 jmp	 $LN77@Format
$LN2@Format:

; 1064 : 	}
; 1065 : 
; 1066 : 	TCHAR szBuffer[maxTimeBufferSize];
; 1067 : 	struct tm ptmTemp;
; 1068 : 
; 1069 : 	if (_localtime64_s(&ptmTemp, &m_time) != 0)

  00060	51		 push	 ecx
  00061	8d 85 4c ff ff
	ff		 lea	 eax, DWORD PTR _ptmTemp$[ebp]
  00067	50		 push	 eax
  00068	e8 00 00 00 00	 call	 __localtime64_s
  0006d	83 c4 08	 add	 esp, 8
  00070	85 c0		 test	 eax, eax
  00072	0f 85 9f 00 00
	00		 jne	 $LN79@Format

; 1072 : 	}
; 1073 : 
; 1074 : 	if (!_tcsftime(szBuffer, maxTimeBufferSize, pFormat, &ptmTemp))

  00078	8d 85 4c ff ff
	ff		 lea	 eax, DWORD PTR _ptmTemp$[ebp]
  0007e	50		 push	 eax
  0007f	57		 push	 edi
  00080	8d 85 70 ff ff
	ff		 lea	 eax, DWORD PTR _szBuffer$[ebp]
  00086	68 80 00 00 00	 push	 128			; 00000080H
  0008b	50		 push	 eax
  0008c	e8 00 00 00 00	 call	 _strftime
  00091	83 c4 10	 add	 esp, 16			; 00000010H
  00094	85 c0		 test	 eax, eax
  00096	75 06		 jne	 SHORT $LN4@Format

; 1075 : 	{
; 1076 : 		szBuffer[0] = '\0';

  00098	88 85 70 ff ff
	ff		 mov	 BYTE PTR _szBuffer$[ebp], al
$LN4@Format:
; File C:\Program Files\Microsoft Visual Studio\2022\Professional\VC\Tools\MSVC\14.44.35207\atlmfc\include\afxstr.h

; 56   : 		return( AfxGetStringManager() );

  0009e	e8 00 00 00 00	 call	 ?AfxGetStringManager@@YGPAUIAtlStringMgr@ATL@@XZ ; AfxGetStringManager
  000a3	8b c8		 mov	 ecx, eax
; File C:\Program Files\Microsoft Visual Studio\2022\Professional\VC\Tools\MSVC\14.44.35207\atlmfc\include\atlsimpstr.h

; 209  : 		ATLENSURE( pStringMgr != NULL );

  000a5	85 c9		 test	 ecx, ecx
  000a7	74 78		 je	 SHORT $LN72@Format

; 210  : 		CStringData* pData = pStringMgr->GetNilString();

  000a9	8b 01		 mov	 eax, DWORD PTR [ecx]
  000ab	ff 50 0c	 call	 DWORD PTR [eax+12]

; 211  : 		Attach( pData );

  000ae	83 c0 10	 add	 eax, 16			; 00000010H
  000b1	89 06		 mov	 DWORD PTR [esi], eax
; File C:\Program Files\Microsoft Visual Studio\2022\Professional\VC\Tools\MSVC\14.44.35207\atlmfc\include\cstringt.h

; 2712 : 		if( (pv != NULL) && IS_INTRESOURCE( pv ) )

  000b3	8d 85 70 ff ff
	ff		 lea	 eax, DWORD PTR _szBuffer$[ebp]

; 1052 : 		CThisSimpleString( StringTraits::GetDefaultManager() )

  000b9	c7 45 fc 01 00
	00 00		 mov	 DWORD PTR __$EHRec$[ebp+8], 1

; 2712 : 		if( (pv != NULL) && IS_INTRESOURCE( pv ) )

  000c0	a9 00 00 ff ff	 test	 eax, -65536		; ffff0000H
  000c5	75 0d		 jne	 SHORT $LN71@Format

; 2713 : 		{
; 2714 : 			UINT nID = LOWORD( reinterpret_cast< DWORD_PTR >( pv ) );

  000c7	0f b7 c0	 movzx	 eax, ax

; 2715 : 			(nID);
; 2716 : #ifdef _ATL_USE_WINAPI_FAMILY_DESKTOP_APP
; 2717 : 			if( !LoadString( nID ) )

  000ca	8b ce		 mov	 ecx, esi
  000cc	50		 push	 eax
  000cd	e8 00 00 00 00	 call	 ?LoadStringA@?$CStringT@DV?$StrTraitMFC@DV?$ChTraitsCRT@D@ATL@@@@@ATL@@QAEHI@Z ; ATL::CStringT<char,StrTraitMFC<char,ATL::ChTraitsCRT<char> > >::LoadStringA

; 1054 : 		if( !CheckImplicitLoad( pszSrc ) )

  000d2	eb 24		 jmp	 SHORT $LN41@Format
$LN71@Format:
; File C:\Program Files\Microsoft Visual Studio\2022\Professional\VC\Tools\MSVC\14.44.35207\atlmfc\include\atlsimpstr.h

; 730  : 		return( int( strlen( psz ) ) );

  000d4	8d 8d 70 ff ff
	ff		 lea	 ecx, DWORD PTR _szBuffer$[ebp]
  000da	8d 51 01	 lea	 edx, DWORD PTR [ecx+1]
  000dd	0f 1f 00	 npad	 3
$LL74@Format:
  000e0	8a 01		 mov	 al, BYTE PTR [ecx]
  000e2	41		 inc	 ecx
  000e3	84 c0		 test	 al, al
  000e5	75 f9		 jne	 SHORT $LL74@Format
  000e7	2b ca		 sub	 ecx, edx

; 606  : 		SetString( pszSrc, StringLength( pszSrc ) );

  000e9	8d 85 70 ff ff
	ff		 lea	 eax, DWORD PTR _szBuffer$[ebp]
  000ef	51		 push	 ecx
  000f0	50		 push	 eax
$LN77@Format:
; File C:\Program Files\Microsoft Visual Studio\2022\Professional\VC\Tools\MSVC\14.44.35207\atlmfc\include\atltime.h

; 1080 : }

  000f1	8b ce		 mov	 ecx, esi
  000f3	e8 00 00 00 00	 call	 ?SetString@?$CSimpleStringT@D$0A@@ATL@@QAEXPBDH@Z ; ATL::CSimpleStringT<char,0>::SetString
$LN41@Format:
  000f8	8b c6		 mov	 eax, esi
  000fa	8b 4d f4	 mov	 ecx, DWORD PTR __$EHRec$[ebp]
  000fd	64 89 0d 00 00
	00 00		 mov	 DWORD PTR fs:0, ecx
  00104	59		 pop	 ecx
  00105	5f		 pop	 edi
  00106	5e		 pop	 esi
  00107	8b 4d f0	 mov	 ecx, DWORD PTR __$ArrayPad$[ebp]
  0010a	33 cd		 xor	 ecx, ebp
  0010c	e8 00 00 00 00	 call	 @__security_check_cookie@4
  00111	8b e5		 mov	 esp, ebp
  00113	5d		 pop	 ebp
  00114	c2 08 00	 ret	 8
$LN79@Format:

; 1070 : 	{
; 1071 : 		AtlThrow(E_INVALIDARG);

  00117	68 57 00 07 80	 push	 -2147024809		; 80070057H
  0011c	e8 00 00 00 00	 call	 ?AtlThrowImpl@ATL@@YGXJ@Z ; ATL::AtlThrowImpl
$LN72@Format:
; File C:\Program Files\Microsoft Visual Studio\2022\Professional\VC\Tools\MSVC\14.44.35207\atlmfc\include\atlsimpstr.h

; 209  : 		ATLENSURE( pStringMgr != NULL );

  00121	68 05 40 00 80	 push	 -2147467259		; 80004005H
  00126	e8 00 00 00 00	 call	 ?AtlThrowImpl@ATL@@YGXJ@Z ; ATL::AtlThrowImpl
$LN76@Format:
  0012b	cc		 int	 3
_TEXT	ENDS
;	COMDAT text$x
text$x	SEGMENT
__unwindfunclet$?Format@CTime@ATL@@QBE?AV?$CStringT@DV?$StrTraitMFC@DV?$ChTraitsCRT@D@ATL@@@@@2@PBD@Z$1:
  00000	8b 8d 48 ff ff
	ff		 mov	 ecx, DWORD PTR ___$ReturnUdt$GSCopy$[ebp]
  00006	e9 00 00 00 00	 jmp	 ??1?$CSimpleStringT@D$0A@@ATL@@QAE@XZ ; ATL::CSimpleStringT<char,0>::~CSimpleStringT<char,0>
__unwindfunclet$?Format@CTime@ATL@@QBE?AV?$CStringT@DV?$StrTraitMFC@DV?$ChTraitsCRT@D@ATL@@@@@2@PBD@Z$2:
  0000b	8b 8d 48 ff ff
	ff		 mov	 ecx, DWORD PTR ___$ReturnUdt$GSCopy$[ebp]
  00011	e9 00 00 00 00	 jmp	 ??1?$CSimpleStringT@D$0A@@ATL@@QAE@XZ ; ATL::CSimpleStringT<char,0>::~CSimpleStringT<char,0>
  00016	cc		 int	 3
  00017	cc		 int	 3
  00018	cc		 int	 3
  00019	cc		 int	 3
  0001a	cc		 int	 3
__ehhandler$?Format@CTime@ATL@@QBE?AV?$CStringT@DV?$StrTraitMFC@DV?$ChTraitsCRT@D@ATL@@@@@2@PBD@Z:
  0001b	90		 npad	 1
  0001c	90		 npad	 1
  0001d	8b 54 24 08	 mov	 edx, DWORD PTR [esp+8]
  00021	8d 42 0c	 lea	 eax, DWORD PTR [edx+12]
  00024	8b 8a 44 ff ff
	ff		 mov	 ecx, DWORD PTR [edx-188]
  0002a	33 c8		 xor	 ecx, eax
  0002c	e8 00 00 00 00	 call	 @__security_check_cookie@4
  00031	8b 4a fc	 mov	 ecx, DWORD PTR [edx-4]
  00034	33 c8		 xor	 ecx, eax
  00036	e8 00 00 00 00	 call	 @__security_check_cookie@4
  0003b	b8 00 00 00 00	 mov	 eax, OFFSET __ehfuncinfo$?Format@CTime@ATL@@QBE?AV?$CStringT@DV?$StrTraitMFC@DV?$ChTraitsCRT@D@ATL@@@@@2@PBD@Z
  00040	e9 00 00 00 00	 jmp	 ___CxxFrameHandler3
text$x	ENDS
?Format@CTime@ATL@@QBE?AV?$CStringT@DV?$StrTraitMFC@DV?$ChTraitsCRT@D@ATL@@@@@2@PBD@Z ENDP ; ATL::CTime::Format
; Function compile flags: /Ogtp
; File C:\Program Files\Microsoft Visual Studio\2022\Professional\VC\Tools\MSVC\14.44.35207\atlmfc\include\cstringt.h
; File C:\Program Files\Microsoft Visual Studio\2022\Professional\VC\Tools\MSVC\14.44.35207\atlmfc\include\afxstr.h
; File C:\Program Files\Microsoft Visual Studio\2022\Professional\VC\Tools\MSVC\14.44.35207\atlmfc\include\cstringt.h
; File C:\Program Files\Microsoft Visual Studio\2022\Professional\VC\Tools\MSVC\14.44.35207\atlmfc\include\afxstr.h
; File C:\Program Files\Microsoft Visual Studio\2022\Professional\VC\Tools\MSVC\14.44.35207\atlmfc\include\cstringt.h
; File C:\Program Files\Microsoft Visual Studio\2022\Professional\VC\Tools\MSVC\14.44.35207\atlmfc\include\atlcore.h
; File C:\Program Files\Microsoft Visual Studio\2022\Professional\VC\Tools\MSVC\14.44.35207\atlmfc\include\cstringt.h
; File C:\Program Files\Microsoft Visual Studio\2022\Professional\VC\Tools\MSVC\14.44.35207\atlmfc\include\atlsimpstr.h
; File C:\Program Files\Microsoft Visual Studio\2022\Professional\VC\Tools\MSVC\14.44.35207\atlmfc\include\cstringt.h
; File C:\Program Files\Microsoft Visual Studio\2022\Professional\VC\Tools\MSVC\14.44.35207\atlmfc\include\atlsimpstr.h
; File C:\Program Files\Microsoft Visual Studio\2022\Professional\VC\Tools\MSVC\14.44.35207\atlmfc\include\cstringt.h
; File C:\Program Files\Microsoft Visual Studio\2022\Professional\VC\Tools\MSVC\14.44.35207\atlmfc\include\atlsimpstr.h
; File C:\Program Files\Microsoft Visual Studio\2022\Professional\VC\Tools\MSVC\14.44.35207\atlmfc\include\cstringt.h
; File C:\Program Files\Microsoft Visual Studio\2022\Professional\VC\Tools\MSVC\14.44.35207\atlmfc\include\atlsimpstr.h
; File C:\Program Files\Microsoft Visual Studio\2022\Professional\VC\Tools\MSVC\14.44.35207\atlmfc\include\cstringt.h
;	COMDAT ?LoadStringA@?$CStringT@DV?$StrTraitMFC@DV?$ChTraitsCRT@D@ATL@@@@@ATL@@QAEHI@Z
_TEXT	SEGMENT
_this$1$ = -4						; size = 4
_nID$ = 8						; size = 4
_hResource$1$ = 8					; size = 4
?LoadStringA@?$CStringT@DV?$StrTraitMFC@DV?$ChTraitsCRT@D@ATL@@@@@ATL@@QAEHI@Z PROC ; ATL::CStringT<char,StrTraitMFC<char,ATL::ChTraitsCRT<char> > >::LoadStringA, COMDAT
; _this$ = ecx

; 2340 : 	{

  00000	55		 push	 ebp
  00001	8b ec		 mov	 ebp, esp
  00003	51		 push	 ecx
  00004	53		 push	 ebx
  00005	57		 push	 edi
; File C:\Program Files\Microsoft Visual Studio\2022\Professional\VC\Tools\MSVC\14.44.35207\atlmfc\include\afxstr.h

; 51   : 		return( AfxFindStringResourceHandle( nID ) );

  00006	8b 7d 08	 mov	 edi, DWORD PTR _nID$[ebp]
  00009	57		 push	 edi
; File C:\Program Files\Microsoft Visual Studio\2022\Professional\VC\Tools\MSVC\14.44.35207\atlmfc\include\cstringt.h

; 2340 : 	{

  0000a	89 4d fc	 mov	 DWORD PTR _this$1$[ebp], ecx
; File C:\Program Files\Microsoft Visual Studio\2022\Professional\VC\Tools\MSVC\14.44.35207\atlmfc\include\afxstr.h

; 51   : 		return( AfxFindStringResourceHandle( nID ) );

  0000d	e8 00 00 00 00	 call	 ?AfxFindStringResourceHandle@@YGPAUHINSTANCE__@@I@Z ; AfxFindStringResourceHandle
; File C:\Program Files\Microsoft Visual Studio\2022\Professional\VC\Tools\MSVC\14.44.35207\atlmfc\include\cstringt.h

; 2341 : 		HINSTANCE hInstance = StringTraits::FindStringResourceInstance( nID );

  00012	8b d8		 mov	 ebx, eax

; 2342 : 		if( hInstance == NULL )

  00014	85 db		 test	 ebx, ebx
  00016	75 08		 jne	 SHORT $LN2@LoadString

; 2348 : 	}

  00018	5f		 pop	 edi
  00019	5b		 pop	 ebx
  0001a	8b e5		 mov	 esp, ebp
  0001c	5d		 pop	 ebp
  0001d	c2 04 00	 ret	 4
$LN2@LoadString:
; File C:\Program Files\Microsoft Visual Studio\2022\Professional\VC\Tools\MSVC\14.44.35207\atlmfc\include\atlcore.h

; 380  : 	hResource = ::FindResourceW(hInstance, MAKEINTRESOURCEW( (((id>>4)+1) & static_cast<WORD>(~0)) ), (LPWSTR) RT_STRING);

  00020	8b c7		 mov	 eax, edi
  00022	c1 e8 04	 shr	 eax, 4
  00025	56		 push	 esi
  00026	40		 inc	 eax
  00027	6a 06		 push	 6
  00029	0f b7 c0	 movzx	 eax, ax
  0002c	50		 push	 eax
  0002d	53		 push	 ebx
  0002e	ff 15 00 00 00
	00		 call	 DWORD PTR __imp__FindResourceW@12
  00034	89 45 08	 mov	 DWORD PTR _hResource$1$[ebp], eax

; 381  : 	if( hResource == NULL )

  00037	85 c0		 test	 eax, eax
  00039	0f 84 cc 00 00
	00		 je	 $LN51@LoadString

; 338  : 	hGlobal = ::LoadResource( hInstance, hResource );

  0003f	50		 push	 eax
  00040	53		 push	 ebx
  00041	ff 15 00 00 00
	00		 call	 DWORD PTR __imp__LoadResource@8

; 339  : 	if( hGlobal == NULL )

  00047	85 c0		 test	 eax, eax
  00049	75 04		 jne	 SHORT $LN15@LoadString

; 340  : 	{
; 341  : 		return( NULL );

  0004b	33 f6		 xor	 esi, esi
  0004d	eb 43		 jmp	 SHORT $LN18@LoadString
$LN15@LoadString:

; 342  : 	}
; 343  : 
; 344  : 	pImage = (const ATLSTRINGRESOURCEIMAGE*)::LockResource( hGlobal );

  0004f	50		 push	 eax
  00050	ff 15 00 00 00
	00		 call	 DWORD PTR __imp__LockResource@4
  00056	8b f0		 mov	 esi, eax

; 345  : 	if( pImage == NULL )

  00058	85 f6		 test	 esi, esi
  0005a	74 36		 je	 SHORT $LN18@LoadString
$LN16@LoadString:

; 346  : 	{
; 347  : 		return( NULL );
; 348  : 	}
; 349  : 
; 350  : 	nResourceSize = ::SizeofResource( hInstance, hResource );

  0005c	ff 75 08	 push	 DWORD PTR _hResource$1$[ebp]
  0005f	53		 push	 ebx
  00060	ff 15 00 00 00
	00		 call	 DWORD PTR __imp__SizeofResource@8

; 351  : 	pImageEnd = (const ATLSTRINGRESOURCEIMAGE*)(LPBYTE( pImage )+nResourceSize);

  00066	8d 0c 06	 lea	 ecx, DWORD PTR [esi+eax]

; 352  : 	iIndex = id&0x000f;

  00069	83 e7 0f	 and	 edi, 15			; 0000000fH

; 353  : 
; 354  : 	while( (iIndex > 0) && (pImage < pImageEnd) )

  0006c	76 14		 jbe	 SHORT $LN14@LoadString
  0006e	66 90		 npad	 2
$LL13@LoadString:
  00070	3b f1		 cmp	 esi, ecx
  00072	73 12		 jae	 SHORT $LN50@LoadString

; 355  : 	{
; 356  : 		pImage = (const ATLSTRINGRESOURCEIMAGE*)(LPBYTE( pImage )+(sizeof( ATLSTRINGRESOURCEIMAGE )+(pImage->nLength*sizeof( WCHAR ))));

  00074	0f b7 06	 movzx	 eax, WORD PTR [esi]
  00077	8d 34 46	 lea	 esi, DWORD PTR [esi+eax*2]
  0007a	83 c6 02	 add	 esi, 2

; 357  : 		iIndex--;

  0007d	83 ef 01	 sub	 edi, 1
  00080	75 ee		 jne	 SHORT $LL13@LoadString
$LN14@LoadString:

; 358  : 	}
; 359  : 	if( pImage >= pImageEnd )

  00082	3b f1		 cmp	 esi, ecx
  00084	72 04		 jb	 SHORT $LN17@LoadString
$LN50@LoadString:

; 360  : 	{
; 361  : 		return( NULL );

  00086	33 f6		 xor	 esi, esi
  00088	eb 08		 jmp	 SHORT $LN18@LoadString
$LN17@LoadString:

; 362  : 	}
; 363  : 	if( pImage->nLength == 0 )

  0008a	33 c0		 xor	 eax, eax
  0008c	66 39 06	 cmp	 WORD PTR [esi], ax
  0008f	0f 44 f0	 cmove	 esi, eax
$LN18@LoadString:
; File C:\Program Files\Microsoft Visual Studio\2022\Professional\VC\Tools\MSVC\14.44.35207\atlmfc\include\cstringt.h

; 2356 : 		if( pImage == NULL )

  00092	85 f6		 test	 esi, esi
  00094	74 75		 je	 SHORT $LN51@LoadString

; 2359 : 		}
; 2360 : 
; 2361 : 		int nLength = StringTraits::GetBaseTypeLength( pImage->achString, pImage->nLength );

  00096	0f b7 06	 movzx	 eax, WORD PTR [esi]
  00099	8d 4e 02	 lea	 ecx, DWORD PTR [esi+2]

; 350  : 		return ::WideCharToMultiByte( _AtlGetConversionACP(), 0, pszSource, nLength, NULL, 0, NULL, NULL );

  0009c	6a 00		 push	 0
  0009e	6a 00		 push	 0
  000a0	6a 00		 push	 0
  000a2	6a 00		 push	 0
  000a4	50		 push	 eax
  000a5	51		 push	 ecx
  000a6	6a 00		 push	 0
  000a8	6a 03		 push	 3
  000aa	ff 15 00 00 00
	00		 call	 DWORD PTR __imp__WideCharToMultiByte@32

; 2361 : 		int nLength = StringTraits::GetBaseTypeLength( pImage->achString, pImage->nLength );

  000b0	8b f8		 mov	 edi, eax
; File C:\Program Files\Microsoft Visual Studio\2022\Professional\VC\Tools\MSVC\14.44.35207\atlmfc\include\atlsimpstr.h

; 808  : 		if (nLength < 0)

  000b2	85 ff		 test	 edi, edi
  000b4	78 60		 js	 SHORT $LN38@LoadString

; 804  : 		return( reinterpret_cast< CStringData* >( m_pszData )-1 );

  000b6	8b 5d fc	 mov	 ebx, DWORD PTR _this$1$[ebp]

; 812  : 		int nShared = 1-pOldData->nRefs;  // nShared < 0 means true, >= 0 means false

  000b9	ba 01 00 00 00	 mov	 edx, 1

; 804  : 		return( reinterpret_cast< CStringData* >( m_pszData )-1 );

  000be	8b 0b		 mov	 ecx, DWORD PTR [ebx]

; 812  : 		int nShared = 1-pOldData->nRefs;  // nShared < 0 means true, >= 0 means false

  000c0	2b 51 fc	 sub	 edx, DWORD PTR [ecx-4]

; 813  : 		int nTooShort = pOldData->nAllocLength-nLength;  // nTooShort < 0 means true, >= 0 means false

  000c3	8b 49 f8	 mov	 ecx, DWORD PTR [ecx-8]
  000c6	2b cf		 sub	 ecx, edi

; 814  : 		if( (nShared|nTooShort) < 0 )  // If either sign bit is set (i.e. either is less than zero), we need to copy data

  000c8	0b d1		 or	 edx, ecx
  000ca	7d 08		 jge	 SHORT $LN26@LoadString

; 815  : 		{
; 816  : 			PrepareWrite2( nLength );

  000cc	57		 push	 edi
  000cd	8b cb		 mov	 ecx, ebx
  000cf	e8 00 00 00 00	 call	 ?PrepareWrite2@?$CSimpleStringT@D$0A@@ATL@@AAEXH@Z ; ATL::CSimpleStringT<char,0>::PrepareWrite2
$LN26@LoadString:
; File C:\Program Files\Microsoft Visual Studio\2022\Professional\VC\Tools\MSVC\14.44.35207\atlmfc\include\cstringt.h

; 2363 : 		StringTraits::ConvertToBaseType( pszBuffer, nLength, pImage->achString, pImage->nLength );

  000d4	0f b7 06	 movzx	 eax, WORD PTR [esi]

; 372  : 		::WideCharToMultiByte( _AtlGetConversionACP(), 0, pszSrc, nSrcLength, pszDest, nDestLength, NULL, NULL );

  000d7	6a 00		 push	 0
  000d9	6a 00		 push	 0
  000db	57		 push	 edi
  000dc	ff 33		 push	 DWORD PTR [ebx]
  000de	50		 push	 eax
  000df	8d 46 02	 lea	 eax, DWORD PTR [esi+2]
  000e2	50		 push	 eax
  000e3	6a 00		 push	 0
  000e5	6a 03		 push	 3
  000e7	ff 15 00 00 00
	00		 call	 DWORD PTR __imp__WideCharToMultiByte@32
; File C:\Program Files\Microsoft Visual Studio\2022\Professional\VC\Tools\MSVC\14.44.35207\atlmfc\include\atlsimpstr.h

; 875  : 		if( nLength < 0 || nLength > GetData()->nAllocLength)

  000ed	8b 03		 mov	 eax, DWORD PTR [ebx]
  000ef	3b 78 f8	 cmp	 edi, DWORD PTR [eax-8]
  000f2	7f 22		 jg	 SHORT $LN38@LoadString

; 877  : 
; 878  : 		GetData()->nDataLength = nLength;

  000f4	89 78 f4	 mov	 DWORD PTR [eax-12], edi

; 879  : 		m_pszData[nLength] = 0;

  000f7	8b 03		 mov	 eax, DWORD PTR [ebx]
; File C:\Program Files\Microsoft Visual Studio\2022\Professional\VC\Tools\MSVC\14.44.35207\atlmfc\include\cstringt.h

; 2347 : 		return( LoadString( hInstance, nID ) );

  000f9	5e		 pop	 esi
; File C:\Program Files\Microsoft Visual Studio\2022\Professional\VC\Tools\MSVC\14.44.35207\atlmfc\include\atlsimpstr.h

; 879  : 		m_pszData[nLength] = 0;

  000fa	c6 04 07 00	 mov	 BYTE PTR [edi+eax], 0
; File C:\Program Files\Microsoft Visual Studio\2022\Professional\VC\Tools\MSVC\14.44.35207\atlmfc\include\cstringt.h

; 2366 : 		return( TRUE );

  000fe	b8 01 00 00 00	 mov	 eax, 1
  00103	5f		 pop	 edi

; 2348 : 	}

  00104	5b		 pop	 ebx
  00105	8b e5		 mov	 esp, ebp
  00107	5d		 pop	 ebp
  00108	c2 04 00	 ret	 4
$LN51@LoadString:

; 2347 : 		return( LoadString( hInstance, nID ) );

  0010b	5e		 pop	 esi
  0010c	5f		 pop	 edi

; 2358 : 			return( FALSE );

  0010d	33 c0		 xor	 eax, eax

; 2348 : 	}

  0010f	5b		 pop	 ebx
  00110	8b e5		 mov	 esp, ebp
  00112	5d		 pop	 ebp
  00113	c2 04 00	 ret	 4
$LN38@LoadString:
; File C:\Program Files\Microsoft Visual Studio\2022\Professional\VC\Tools\MSVC\14.44.35207\atlmfc\include\atlsimpstr.h

; 876  : 			AtlThrow(E_INVALIDARG);

  00116	68 57 00 07 80	 push	 -2147024809		; 80070057H
  0011b	e8 00 00 00 00	 call	 ?AtlThrowImpl@ATL@@YGXJ@Z ; ATL::AtlThrowImpl
$LN63@LoadString:
  00120	cc		 int	 3
?LoadStringA@?$CStringT@DV?$StrTraitMFC@DV?$ChTraitsCRT@D@ATL@@@@@ATL@@QAEHI@Z ENDP ; ATL::CStringT<char,StrTraitMFC<char,ATL::ChTraitsCRT<char> > >::LoadStringA
_TEXT	ENDS
; Function compile flags: /Ogtp
; File C:\Program Files\Microsoft Visual Studio\2022\Professional\VC\Tools\MSVC\14.44.35207\atlmfc\include\cstringt.h
; File C:\Program Files\Microsoft Visual Studio\2022\Professional\VC\Tools\MSVC\14.44.35207\atlmfc\include\atlsimpstr.h
; File C:\Program Files\Microsoft Visual Studio\2022\Professional\VC\Tools\MSVC\14.44.35207\atlmfc\include\cstringt.h
; File C:\Program Files\Microsoft Visual Studio\2022\Professional\VC\Tools\MSVC\14.44.35207\atlmfc\include\atlsimpstr.h
; File C:\Program Files\Microsoft Visual Studio\2022\Professional\VC\Tools\MSVC\14.44.35207\atlmfc\include\cstringt.h
; File C:\Program Files\Microsoft Visual Studio\2022\Professional\VC\Tools\MSVC\14.44.35207\atlmfc\include\atlsimpstr.h
; File C:\Program Files\Microsoft Visual Studio\2022\Professional\VC\Tools\MSVC\14.44.35207\atlmfc\include\cstringt.h
; File C:\Program Files (x86)\Windows Kits\10\Include\10.0.26100.0\ucrt\corecrt_memcpy_s.h
; File C:\Program Files\Microsoft Visual Studio\2022\Professional\VC\Tools\MSVC\14.44.35207\atlmfc\include\atlchecked.h
; File C:\Program Files (x86)\Windows Kits\10\Include\10.0.26100.0\ucrt\corecrt_memcpy_s.h
; File C:\Program Files\Microsoft Visual Studio\2022\Professional\VC\Tools\MSVC\14.44.35207\atlmfc\include\atlchecked.h
; File C:\Program Files (x86)\Windows Kits\10\Include\10.0.26100.0\ucrt\corecrt_memcpy_s.h
; File C:\Program Files\Microsoft Visual Studio\2022\Professional\VC\Tools\MSVC\14.44.35207\atlmfc\include\atlchecked.h
; File C:\Program Files\Microsoft Visual Studio\2022\Professional\VC\Tools\MSVC\14.44.35207\atlmfc\include\cstringt.h
; File C:\Program Files\Microsoft Visual Studio\2022\Professional\VC\Tools\MSVC\14.44.35207\atlmfc\include\atlsimpstr.h
; File C:\Program Files\Microsoft Visual Studio\2022\Professional\VC\Tools\MSVC\14.44.35207\atlmfc\include\cstringt.h
; File C:\Program Files\Microsoft Visual Studio\2022\Professional\VC\Tools\MSVC\14.44.35207\atlmfc\include\atlsimpstr.h
; File C:\Program Files\Microsoft Visual Studio\2022\Professional\VC\Tools\MSVC\14.44.35207\atlmfc\include\cstringt.h
; File C:\Program Files\Microsoft Visual Studio\2022\Professional\VC\Tools\MSVC\14.44.35207\atlmfc\include\atlsimpstr.h
; File C:\Program Files\Microsoft Visual Studio\2022\Professional\VC\Tools\MSVC\14.44.35207\atlmfc\include\cstringt.h
;	COMDAT ?Replace@?$CStringT@DV?$StrTraitMFC@DV?$ChTraitsCRT@D@ATL@@@@@ATL@@QAEHPBD0@Z
_TEXT	SEGMENT
_pszEnd$1$ = -32					; size = 4
__S1$1$ = -28						; size = 4
_pszBuffer$1$ = -24					; size = 4
$T1 = -20						; size = 4
_nNewLength$1$ = -16					; size = 4
$T2 = -16						; size = 4
_pszEnd$1$ = -12					; size = 4
_nOldLength$1$ = -12					; size = 4
_nCount$1$ = -8						; size = 4
_this$1$ = -4						; size = 4
_pszOld$ = 8						; size = 4
_pszNew$ = 12						; size = 4
?Replace@?$CStringT@DV?$StrTraitMFC@DV?$ChTraitsCRT@D@ATL@@@@@ATL@@QAEHPBD0@Z PROC ; ATL::CStringT<char,StrTraitMFC<char,ATL::ChTraitsCRT<char> > >::Replace, COMDAT
; _this$ = ecx

; 1609 : 	{

  00000	55		 push	 ebp
  00001	8b ec		 mov	 ebp, esp
  00003	83 ec 20	 sub	 esp, 32			; 00000020H
  00006	56		 push	 esi
  00007	8b f1		 mov	 esi, ecx

; 495  : 		return (psz != NULL) ? int( strlen( psz ) ) : 0;

  00009	8b 4d 08	 mov	 ecx, DWORD PTR _pszOld$[ebp]

; 1609 : 	{

  0000c	89 75 fc	 mov	 DWORD PTR _this$1$[ebp], esi
  0000f	57		 push	 edi

; 495  : 		return (psz != NULL) ? int( strlen( psz ) ) : 0;

  00010	85 c9		 test	 ecx, ecx
  00012	0f 84 3c 02 00
	00		 je	 $LN98@Replace
  00018	8b f9		 mov	 edi, ecx
  0001a	8d 57 01	 lea	 edx, DWORD PTR [edi+1]
  0001d	0f 1f 00	 npad	 3
$LL100@Replace:
  00020	8a 07		 mov	 al, BYTE PTR [edi]
  00022	47		 inc	 edi
  00023	84 c0		 test	 al, al
  00025	75 f9		 jne	 SHORT $LL100@Replace
  00027	2b fa		 sub	 edi, edx
  00029	89 7d ec	 mov	 DWORD PTR $T1[ebp], edi

; 1610 : 		// can't have empty or NULL lpszOld
; 1611 : 
; 1612 : 		// nSourceLen is in XCHARs
; 1613 : 		int nSourceLen = StringTraits::SafeStringLen( pszOld );
; 1614 : 		if( nSourceLen == 0 )

  0002c	0f 84 22 02 00
	00		 je	 $LN98@Replace
  00032	53		 push	 ebx

; 495  : 		return (psz != NULL) ? int( strlen( psz ) ) : 0;

  00033	8b 5d 0c	 mov	 ebx, DWORD PTR _pszNew$[ebp]
  00036	85 db		 test	 ebx, ebx
  00038	74 14		 je	 SHORT $LN19@Replace
  0003a	8d 4b 01	 lea	 ecx, DWORD PTR [ebx+1]
  0003d	0f 1f 00	 npad	 3
$LL101@Replace:
  00040	8a 03		 mov	 al, BYTE PTR [ebx]
  00042	43		 inc	 ebx
  00043	84 c0		 test	 al, al
  00045	75 f9		 jne	 SHORT $LL101@Replace
  00047	2b d9		 sub	 ebx, ecx
  00049	8b 4d 08	 mov	 ecx, DWORD PTR _pszOld$[ebp]
  0004c	eb 02		 jmp	 SHORT $LN135@Replace
$LN19@Replace:
  0004e	33 db		 xor	 ebx, ebx
$LN135@Replace:

; 1616 : 		// nReplacementLen is in XCHARs
; 1617 : 		int nReplacementLen = StringTraits::SafeStringLen( pszNew );
; 1618 : 
; 1619 : 		// loop once to figure out the size of the result string
; 1620 : 		int nCount = 0;
; 1621 : 		{
; 1622 : 			PCXSTR pszStart = this->GetString();

  00050	8b 36		 mov	 esi, DWORD PTR [esi]
  00052	89 5d f0	 mov	 DWORD PTR $T2[ebp], ebx
  00055	c7 45 f8 00 00
	00 00		 mov	 DWORD PTR _nCount$1$[ebp], 0

; 1623 : 			PCXSTR pszEnd = pszStart + this->GetLength();

  0005c	8b 46 f4	 mov	 eax, DWORD PTR [esi-12]
  0005f	03 c6		 add	 eax, esi
  00061	89 45 f4	 mov	 DWORD PTR _pszEnd$1$[ebp], eax

; 1624 : 			while( pszStart < pszEnd )

  00064	3b f0		 cmp	 esi, eax
  00066	0f 83 db 01 00
	00		 jae	 $LN105@Replace
  0006c	8b d8		 mov	 ebx, eax
  0006e	eb 03		 jmp	 SHORT $LN2@Replace
$LL104@Replace:
  00070	8b 4d 08	 mov	 ecx, DWORD PTR _pszOld$[ebp]
$LN2@Replace:

; 212  : 		return reinterpret_cast< LPCSTR >( _mbsstr( reinterpret_cast< const unsigned char* >( pszBlock ),

  00073	51		 push	 ecx
  00074	56		 push	 esi
  00075	e8 00 00 00 00	 call	 __mbsstr
  0007a	83 c4 08	 add	 esp, 8

; 1625 : 			{
; 1626 : 				PCXSTR pszTarget;
; 1627 : 				while( (pszTarget = StringTraits::StringFindString( pszStart, pszOld ) ) != NULL)

  0007d	85 c0		 test	 eax, eax
  0007f	74 1d		 je	 SHORT $LN5@Replace
  00081	8b 5d f8	 mov	 ebx, DWORD PTR _nCount$1$[ebp]
$LL4@Replace:

; 212  : 		return reinterpret_cast< LPCSTR >( _mbsstr( reinterpret_cast< const unsigned char* >( pszBlock ),

  00084	ff 75 08	 push	 DWORD PTR _pszOld$[ebp]

; 1628 : 				{
; 1629 : 					nCount++;
; 1630 : 					pszStart = pszTarget+nSourceLen;

  00087	8d 34 07	 lea	 esi, DWORD PTR [edi+eax]
  0008a	43		 inc	 ebx

; 212  : 		return reinterpret_cast< LPCSTR >( _mbsstr( reinterpret_cast< const unsigned char* >( pszBlock ),

  0008b	56		 push	 esi
  0008c	e8 00 00 00 00	 call	 __mbsstr
  00091	83 c4 08	 add	 esp, 8

; 1625 : 			{
; 1626 : 				PCXSTR pszTarget;
; 1627 : 				while( (pszTarget = StringTraits::StringFindString( pszStart, pszOld ) ) != NULL)

  00094	85 c0		 test	 eax, eax
  00096	75 ec		 jne	 SHORT $LL4@Replace
  00098	89 5d f8	 mov	 DWORD PTR _nCount$1$[ebp], ebx
  0009b	8b 5d f4	 mov	 ebx, DWORD PTR _pszEnd$1$[ebp]
$LN5@Replace:

; 495  : 		return (psz != NULL) ? int( strlen( psz ) ) : 0;

  0009e	85 f6		 test	 esi, esi
  000a0	74 10		 je	 SHORT $LN29@Replace
  000a2	8b c6		 mov	 eax, esi
  000a4	8d 50 01	 lea	 edx, DWORD PTR [eax+1]
$LL102@Replace:
  000a7	8a 08		 mov	 cl, BYTE PTR [eax]
  000a9	40		 inc	 eax
  000aa	84 c9		 test	 cl, cl
  000ac	75 f9		 jne	 SHORT $LL102@Replace
  000ae	2b c2		 sub	 eax, edx
  000b0	eb 02		 jmp	 SHORT $LN30@Replace
$LN29@Replace:
  000b2	33 c0		 xor	 eax, eax
$LN30@Replace:

; 1631 : 				}
; 1632 : 				pszStart += StringTraits::SafeStringLen( pszStart )+1;

  000b4	46		 inc	 esi
  000b5	03 f0		 add	 esi, eax
  000b7	3b f3		 cmp	 esi, ebx
  000b9	72 b5		 jb	 SHORT $LL104@Replace

; 1633 : 			}
; 1634 : 		}
; 1635 : 
; 1636 : 		// if any changes were made, make them
; 1637 : 		if( nCount > 0 )

  000bb	8b 4d f8	 mov	 ecx, DWORD PTR _nCount$1$[ebp]
  000be	8b 5d f0	 mov	 ebx, DWORD PTR $T2[ebp]
  000c1	85 c9		 test	 ecx, ecx
  000c3	0f 8e 80 01 00
	00		 jle	 $LN76@Replace
; File C:\Program Files\Microsoft Visual Studio\2022\Professional\VC\Tools\MSVC\14.44.35207\atlmfc\include\atlsimpstr.h

; 523  : 		return( GetData()->nDataLength );

  000c9	8b 45 fc	 mov	 eax, DWORD PTR _this$1$[ebp]
; File C:\Program Files\Microsoft Visual Studio\2022\Professional\VC\Tools\MSVC\14.44.35207\atlmfc\include\cstringt.h

; 1642 : 			int nNewLength = nOldLength+(nReplacementLen-nSourceLen)*nCount;

  000cc	8b d3		 mov	 edx, ebx
  000ce	2b d7		 sub	 edx, edi
  000d0	0f af d1	 imul	 edx, ecx
; File C:\Program Files\Microsoft Visual Studio\2022\Professional\VC\Tools\MSVC\14.44.35207\atlmfc\include\atlsimpstr.h

; 523  : 		return( GetData()->nDataLength );

  000d3	8b 00		 mov	 eax, DWORD PTR [eax]
; File C:\Program Files\Microsoft Visual Studio\2022\Professional\VC\Tools\MSVC\14.44.35207\atlmfc\include\cstringt.h

; 1641 : 			int nOldLength = this->GetLength();

  000d5	8b 70 f4	 mov	 esi, DWORD PTR [eax-12]

; 1642 : 			int nNewLength = nOldLength+(nReplacementLen-nSourceLen)*nCount;

  000d8	03 d6		 add	 edx, esi
  000da	89 55 f0	 mov	 DWORD PTR _nNewLength$1$[ebp], edx

; 1644 : 			PXSTR pszBuffer = this->GetBuffer( __max( nNewLength, nOldLength ) );

  000dd	8b d6		 mov	 edx, esi
  000df	39 75 f0	 cmp	 DWORD PTR _nNewLength$1$[ebp], esi
  000e2	89 75 f4	 mov	 DWORD PTR _nOldLength$1$[ebp], esi
  000e5	0f 4f 55 f0	 cmovg	 edx, DWORD PTR _nNewLength$1$[ebp]
; File C:\Program Files\Microsoft Visual Studio\2022\Professional\VC\Tools\MSVC\14.44.35207\atlmfc\include\atlsimpstr.h

; 808  : 		if (nLength < 0)

  000e9	85 d2		 test	 edx, edx
  000eb	0f 88 6d 01 00
	00		 js	 $LN75@Replace

; 809  : 			AtlThrow(E_INVALIDARG);
; 810  : 
; 811  : 		CStringData* pOldData = GetData();
; 812  : 		int nShared = 1-pOldData->nRefs;  // nShared < 0 means true, >= 0 means false

  000f1	b9 01 00 00 00	 mov	 ecx, 1
  000f6	2b 48 fc	 sub	 ecx, DWORD PTR [eax-4]

; 813  : 		int nTooShort = pOldData->nAllocLength-nLength;  // nTooShort < 0 means true, >= 0 means false

  000f9	8b 40 f8	 mov	 eax, DWORD PTR [eax-8]
  000fc	2b c2		 sub	 eax, edx

; 814  : 		if( (nShared|nTooShort) < 0 )  // If either sign bit is set (i.e. either is less than zero), we need to copy data

  000fe	0b c8		 or	 ecx, eax
  00100	7d 09		 jge	 SHORT $LN39@Replace

; 815  : 		{
; 816  : 			PrepareWrite2( nLength );

  00102	8b 4d fc	 mov	 ecx, DWORD PTR _this$1$[ebp]
  00105	52		 push	 edx
  00106	e8 00 00 00 00	 call	 ?PrepareWrite2@?$CSimpleStringT@D$0A@@ATL@@AAEXH@Z ; ATL::CSimpleStringT<char,0>::PrepareWrite2
$LN39@Replace:
; File C:\Program Files\Microsoft Visual Studio\2022\Professional\VC\Tools\MSVC\14.44.35207\atlmfc\include\cstringt.h

; 1644 : 			PXSTR pszBuffer = this->GetBuffer( __max( nNewLength, nOldLength ) );

  0010b	8b 55 fc	 mov	 edx, DWORD PTR _this$1$[ebp]
  0010e	8b 02		 mov	 eax, DWORD PTR [edx]

; 1645 : 
; 1646 : 			PXSTR pszStart = pszBuffer;

  00110	8b f8		 mov	 edi, eax
  00112	89 45 e8	 mov	 DWORD PTR _pszBuffer$1$[ebp], eax

; 1647 : 			PXSTR pszEnd = pszStart+nOldLength;

  00115	8d 0c 30	 lea	 ecx, DWORD PTR [eax+esi]
  00118	89 4d e0	 mov	 DWORD PTR _pszEnd$1$[ebp], ecx

; 1648 : 
; 1649 : 			// loop again to actually do the work
; 1650 : 			while( pszStart < pszEnd )

  0011b	3b c1		 cmp	 eax, ecx
  0011d	0f 83 ff 00 00
	00		 jae	 $LN7@Replace
$LL6@Replace:

; 212  : 		return reinterpret_cast< LPCSTR >( _mbsstr( reinterpret_cast< const unsigned char* >( pszBlock ),

  00123	ff 75 08	 push	 DWORD PTR _pszOld$[ebp]
  00126	57		 push	 edi
  00127	e8 00 00 00 00	 call	 __mbsstr

; 1651 : 			{
; 1652 : 				PXSTR pszTarget;
; 1653 : 				while( (pszTarget = StringTraits::StringFindString( pszStart, pszOld ) ) != NULL )

  0012c	8b f0		 mov	 esi, eax

; 212  : 		return reinterpret_cast< LPCSTR >( _mbsstr( reinterpret_cast< const unsigned char* >( pszBlock ),

  0012e	83 c4 08	 add	 esp, 8

; 1651 : 			{
; 1652 : 				PXSTR pszTarget;
; 1653 : 				while( (pszTarget = StringTraits::StringFindString( pszStart, pszOld ) ) != NULL )

  00131	85 f6		 test	 esi, esi
  00133	0f 84 c4 00 00
	00		 je	 $LN9@Replace
  00139	0f 1f 80 00 00
	00 00		 npad	 7
$LL8@Replace:

; 1654 : 				{
; 1655 : 					int nBalance = nOldLength-int(pszTarget-pszBuffer+nSourceLen);

  00140	8b 7d e8	 mov	 edi, DWORD PTR _pszBuffer$1$[ebp]

; 1656 : 					Checked::memmove_s( pszTarget+nReplacementLen, nBalance*sizeof( XCHAR ),

  00143	8d 0c 33	 lea	 ecx, DWORD PTR [ebx+esi]
  00146	8b 45 ec	 mov	 eax, DWORD PTR $T1[ebp]
  00149	2b f8		 sub	 edi, eax
  0014b	2b fe		 sub	 edi, esi
  0014d	89 4d e4	 mov	 DWORD PTR __S1$1$[ebp], ecx
  00150	8d 04 30	 lea	 eax, DWORD PTR [eax+esi]
  00153	03 7d f4	 add	 edi, DWORD PTR _nOldLength$1$[ebp]
; File C:\Program Files (x86)\Windows Kits\10\Include\10.0.26100.0\ucrt\corecrt_memcpy_s.h

; 76   :         if (_SourceSize == 0)

  00156	74 2a		 je	 SHORT $LN136@Replace

; 77   :         {
; 78   :             return 0;
; 79   :         }
; 80   : 
; 81   :         _CRT_MEMCPY_S_VALIDATE_RETURN_ERRCODE(_Destination != NULL,            EINVAL);

  00158	85 c9		 test	 ecx, ecx
  0015a	75 17		 jne	 SHORT $LN53@Replace
$LN137@Replace:
; File C:\Program Files\Microsoft Visual Studio\2022\Professional\VC\Tools\MSVC\14.44.35207\atlmfc\include\atlchecked.h

; 91   : 	ATLMFC_CRT_ERRORCHECK(::memmove_s(_S1, _S1max, _S2, _N));

  0015c	e8 00 00 00 00	 call	 __errno
  00161	c7 00 16 00 00
	00		 mov	 DWORD PTR [eax], 22	; 00000016H
  00167	e8 00 00 00 00	 call	 __invalid_parameter_noinfo
  0016c	b8 16 00 00 00	 mov	 eax, 22			; 00000016H
  00171	eb 11		 jmp	 SHORT $LN51@Replace
$LN53@Replace:
; File C:\Program Files (x86)\Windows Kits\10\Include\10.0.26100.0\ucrt\corecrt_memcpy_s.h

; 82   :         _CRT_MEMCPY_S_VALIDATE_RETURN_ERRCODE(_Source != NULL,                 EINVAL);

  00173	85 c0		 test	 eax, eax
  00175	74 e5		 je	 SHORT $LN137@Replace

; 83   :         _CRT_MEMCPY_S_VALIDATE_RETURN_ERRCODE(_DestinationSize >= _SourceSize, ERANGE);
; 84   : 
; 85   :         memmove(_Destination, _Source, _SourceSize);

  00177	57		 push	 edi
  00178	50		 push	 eax
  00179	51		 push	 ecx
  0017a	e8 00 00 00 00	 call	 _memmove
  0017f	83 c4 0c	 add	 esp, 12			; 0000000cH
$LN136@Replace:
; File C:\Program Files\Microsoft Visual Studio\2022\Professional\VC\Tools\MSVC\14.44.35207\atlmfc\include\atlchecked.h

; 91   : 	ATLMFC_CRT_ERRORCHECK(::memmove_s(_S1, _S1max, _S2, _N));

  00182	33 c0		 xor	 eax, eax
$LN51@Replace:
  00184	50		 push	 eax
  00185	e8 00 00 00 00	 call	 ?AfxCrtErrorCheck@@YAHH@Z ; AfxCrtErrorCheck
  0018a	83 c4 04	 add	 esp, 4
; File C:\Program Files (x86)\Windows Kits\10\Include\10.0.26100.0\ucrt\corecrt_memcpy_s.h

; 47   :         if (_SourceSize == 0)

  0018d	85 db		 test	 ebx, ebx
  0018f	75 04		 jne	 SHORT $LN60@Replace

; 48   :         {
; 49   :             return 0;

  00191	33 c0		 xor	 eax, eax
  00193	eb 3a		 jmp	 SHORT $LN59@Replace
$LN60@Replace:

; 50   :         }
; 51   : 
; 52   :         _CRT_MEMCPY_S_VALIDATE_RETURN_ERRCODE(_Destination != NULL, EINVAL);

  00195	85 f6		 test	 esi, esi
  00197	74 21		 je	 SHORT $LN138@Replace

; 53   :         if (_Source == NULL || _DestinationSize < _SourceSize)

  00199	8b 45 0c	 mov	 eax, DWORD PTR _pszNew$[ebp]
  0019c	53		 push	 ebx
  0019d	85 c0		 test	 eax, eax
  0019f	74 0e		 je	 SHORT $LN63@Replace

; 56   : 
; 57   :             _CRT_MEMCPY_S_VALIDATE_RETURN_ERRCODE(_Source != NULL,                 EINVAL);
; 58   :             _CRT_MEMCPY_S_VALIDATE_RETURN_ERRCODE(_DestinationSize >= _SourceSize, ERANGE);
; 59   : 
; 60   :             // Unreachable, but required to suppress /analyze warnings:
; 61   :             return EINVAL;
; 62   :         }
; 63   :         memcpy(_Destination, _Source, _SourceSize);

  001a1	50		 push	 eax
  001a2	56		 push	 esi
  001a3	e8 00 00 00 00	 call	 _memcpy
  001a8	83 c4 0c	 add	 esp, 12			; 0000000cH

; 64   :         return 0;

  001ab	33 c0		 xor	 eax, eax
  001ad	eb 20		 jmp	 SHORT $LN59@Replace
$LN63@Replace:

; 54   :         {
; 55   :             memset(_Destination, 0, _DestinationSize);

  001af	6a 00		 push	 0
  001b1	56		 push	 esi
  001b2	e8 00 00 00 00	 call	 _memset
  001b7	83 c4 0c	 add	 esp, 12			; 0000000cH
$LN138@Replace:
; File C:\Program Files\Microsoft Visual Studio\2022\Professional\VC\Tools\MSVC\14.44.35207\atlmfc\include\atlchecked.h

; 73   : 	ATLMFC_CRT_ERRORCHECK(::memcpy_s(_S1, _S1max, _S2, _N));

  001ba	e8 00 00 00 00	 call	 __errno
  001bf	c7 00 16 00 00
	00		 mov	 DWORD PTR [eax], 22	; 00000016H
  001c5	e8 00 00 00 00	 call	 __invalid_parameter_noinfo
  001ca	b8 16 00 00 00	 mov	 eax, 22			; 00000016H
$LN59@Replace:
  001cf	50		 push	 eax
  001d0	e8 00 00 00 00	 call	 ?AfxCrtErrorCheck@@YAHH@Z ; AfxCrtErrorCheck
; File C:\Program Files\Microsoft Visual Studio\2022\Professional\VC\Tools\MSVC\14.44.35207\atlmfc\include\cstringt.h

; 212  : 		return reinterpret_cast< LPCSTR >( _mbsstr( reinterpret_cast< const unsigned char* >( pszBlock ),

  001d5	ff 75 08	 push	 DWORD PTR _pszOld$[ebp]

; 1657 : 						pszTarget+nSourceLen, nBalance*sizeof( XCHAR ) );
; 1658 : 					Checked::memcpy_s( pszTarget, nReplacementLen*sizeof( XCHAR ),
; 1659 : 						pszNew, nReplacementLen*sizeof( XCHAR ) );
; 1660 : 					pszStart = pszTarget+nReplacementLen;
; 1661 : 					pszTarget[nReplacementLen+nBalance] = 0;

  001d8	8d 04 3b	 lea	 eax, DWORD PTR [ebx+edi]

; 212  : 		return reinterpret_cast< LPCSTR >( _mbsstr( reinterpret_cast< const unsigned char* >( pszBlock ),

  001db	8b 7d e4	 mov	 edi, DWORD PTR __S1$1$[ebp]

; 1657 : 						pszTarget+nSourceLen, nBalance*sizeof( XCHAR ) );
; 1658 : 					Checked::memcpy_s( pszTarget, nReplacementLen*sizeof( XCHAR ),
; 1659 : 						pszNew, nReplacementLen*sizeof( XCHAR ) );
; 1660 : 					pszStart = pszTarget+nReplacementLen;
; 1661 : 					pszTarget[nReplacementLen+nBalance] = 0;

  001de	c6 04 30 00	 mov	 BYTE PTR [eax+esi], 0

; 1662 : 					nOldLength += (nReplacementLen-nSourceLen);

  001e2	8b c3		 mov	 eax, ebx
  001e4	2b 45 ec	 sub	 eax, DWORD PTR $T1[ebp]
  001e7	01 45 f4	 add	 DWORD PTR _nOldLength$1$[ebp], eax

; 212  : 		return reinterpret_cast< LPCSTR >( _mbsstr( reinterpret_cast< const unsigned char* >( pszBlock ),

  001ea	57		 push	 edi
  001eb	e8 00 00 00 00	 call	 __mbsstr

; 1651 : 			{
; 1652 : 				PXSTR pszTarget;
; 1653 : 				while( (pszTarget = StringTraits::StringFindString( pszStart, pszOld ) ) != NULL )

  001f0	8b f0		 mov	 esi, eax

; 212  : 		return reinterpret_cast< LPCSTR >( _mbsstr( reinterpret_cast< const unsigned char* >( pszBlock ),

  001f2	83 c4 0c	 add	 esp, 12			; 0000000cH

; 1651 : 			{
; 1652 : 				PXSTR pszTarget;
; 1653 : 				while( (pszTarget = StringTraits::StringFindString( pszStart, pszOld ) ) != NULL )

  001f5	85 f6		 test	 esi, esi
  001f7	0f 85 43 ff ff
	ff		 jne	 $LL8@Replace
$LN9@Replace:

; 495  : 		return (psz != NULL) ? int( strlen( psz ) ) : 0;

  001fd	85 ff		 test	 edi, edi
  001ff	74 10		 je	 SHORT $LN69@Replace
  00201	8b cf		 mov	 ecx, edi
  00203	8d 51 01	 lea	 edx, DWORD PTR [ecx+1]
$LL103@Replace:
  00206	8a 01		 mov	 al, BYTE PTR [ecx]
  00208	41		 inc	 ecx
  00209	84 c0		 test	 al, al
  0020b	75 f9		 jne	 SHORT $LL103@Replace
  0020d	2b ca		 sub	 ecx, edx
  0020f	eb 02		 jmp	 SHORT $LN70@Replace
$LN69@Replace:
  00211	33 c9		 xor	 ecx, ecx
$LN70@Replace:

; 1663 : 				}
; 1664 : 				pszStart += StringTraits::SafeStringLen( pszStart )+1;

  00213	47		 inc	 edi
  00214	03 f9		 add	 edi, ecx
  00216	3b 7d e0	 cmp	 edi, DWORD PTR _pszEnd$1$[ebp]
  00219	0f 82 04 ff ff
	ff		 jb	 $LL6@Replace
  0021f	8b 55 fc	 mov	 edx, DWORD PTR _this$1$[ebp]
$LN7@Replace:
; File C:\Program Files\Microsoft Visual Studio\2022\Professional\VC\Tools\MSVC\14.44.35207\atlmfc\include\atlsimpstr.h

; 875  : 		if( nLength < 0 || nLength > GetData()->nAllocLength)

  00222	8b 4d f0	 mov	 ecx, DWORD PTR _nNewLength$1$[ebp]
  00225	85 c9		 test	 ecx, ecx
  00227	78 35		 js	 SHORT $LN75@Replace
  00229	8b 02		 mov	 eax, DWORD PTR [edx]
  0022b	3b 48 f8	 cmp	 ecx, DWORD PTR [eax-8]
  0022e	7f 2e		 jg	 SHORT $LN75@Replace

; 877  : 
; 878  : 		GetData()->nDataLength = nLength;

  00230	89 48 f4	 mov	 DWORD PTR [eax-12], ecx

; 879  : 		m_pszData[nLength] = 0;

  00233	8b 02		 mov	 eax, DWORD PTR [edx]
; File C:\Program Files\Microsoft Visual Studio\2022\Professional\VC\Tools\MSVC\14.44.35207\atlmfc\include\cstringt.h

; 1670 : 		return( nCount );

  00235	5b		 pop	 ebx
  00236	5f		 pop	 edi

; 1671 : 	}

  00237	5e		 pop	 esi
; File C:\Program Files\Microsoft Visual Studio\2022\Professional\VC\Tools\MSVC\14.44.35207\atlmfc\include\atlsimpstr.h

; 879  : 		m_pszData[nLength] = 0;

  00238	c6 04 01 00	 mov	 BYTE PTR [ecx+eax], 0
  0023c	8b 4d f8	 mov	 ecx, DWORD PTR _nCount$1$[ebp]
; File C:\Program Files\Microsoft Visual Studio\2022\Professional\VC\Tools\MSVC\14.44.35207\atlmfc\include\cstringt.h

; 1670 : 		return( nCount );

  0023f	8b c1		 mov	 eax, ecx

; 1671 : 	}

  00241	8b e5		 mov	 esp, ebp
  00243	5d		 pop	 ebp
  00244	c2 08 00	 ret	 8
$LN105@Replace:

; 1624 : 			while( pszStart < pszEnd )

  00247	33 c9		 xor	 ecx, ecx
$LN76@Replace:

; 1670 : 		return( nCount );

  00249	5b		 pop	 ebx
  0024a	5f		 pop	 edi
  0024b	8b c1		 mov	 eax, ecx

; 1671 : 	}

  0024d	5e		 pop	 esi
  0024e	8b e5		 mov	 esp, ebp
  00250	5d		 pop	 ebp
  00251	c2 08 00	 ret	 8
$LN98@Replace:
  00254	5f		 pop	 edi

; 1615 : 			return( 0 );

  00255	33 c0		 xor	 eax, eax

; 1671 : 	}

  00257	5e		 pop	 esi
  00258	8b e5		 mov	 esp, ebp
  0025a	5d		 pop	 ebp
  0025b	c2 08 00	 ret	 8
$LN75@Replace:
; File C:\Program Files\Microsoft Visual Studio\2022\Professional\VC\Tools\MSVC\14.44.35207\atlmfc\include\atlsimpstr.h

; 876  : 			AtlThrow(E_INVALIDARG);

  0025e	68 57 00 07 80	 push	 -2147024809		; 80070057H
  00263	e8 00 00 00 00	 call	 ?AtlThrowImpl@ATL@@YGXJ@Z ; ATL::AtlThrowImpl
$LN134@Replace:
  00268	cc		 int	 3
?Replace@?$CStringT@DV?$StrTraitMFC@DV?$ChTraitsCRT@D@ATL@@@@@ATL@@QAEHPBD0@Z ENDP ; ATL::CStringT<char,StrTraitMFC<char,ATL::ChTraitsCRT<char> > >::Replace
_TEXT	ENDS
; Function compile flags: /Ogtp
; File C:\Program Files\Microsoft Visual Studio\2022\Professional\VC\Tools\MSVC\14.44.35207\atlmfc\include\cstringt.h
; File C:\Program Files\Microsoft Visual Studio\2022\Professional\VC\Tools\MSVC\14.44.35207\atlmfc\include\atlsimpstr.h
; File C:\Program Files\Microsoft Visual Studio\2022\Professional\VC\Tools\MSVC\14.44.35207\atlmfc\include\cstringt.h
; File C:\Program Files\Microsoft Visual Studio\2022\Professional\VC\Tools\MSVC\14.44.35207\atlmfc\include\atlsimpstr.h
; File C:\Program Files\Microsoft Visual Studio\2022\Professional\VC\Tools\MSVC\14.44.35207\atlmfc\include\cstringt.h
; File C:\Program Files\Microsoft Visual Studio\2022\Professional\VC\Tools\MSVC\14.44.35207\atlmfc\include\atlsimpstr.h
; File C:\Program Files\Microsoft Visual Studio\2022\Professional\VC\Tools\MSVC\14.44.35207\atlmfc\include\cstringt.h
; File C:\Program Files\Microsoft Visual Studio\2022\Professional\VC\Tools\MSVC\14.44.35207\atlmfc\include\atlsimpstr.h
; File C:\Program Files\Microsoft Visual Studio\2022\Professional\VC\Tools\MSVC\14.44.35207\atlmfc\include\cstringt.h
;	COMDAT ?Replace@?$CStringT@DV?$StrTraitMFC@DV?$ChTraitsCRT@D@ATL@@@@@ATL@@QAEHDD@Z
_TEXT	SEGMENT
_nLength$1$ = -12					; size = 4
_nCount$1$ = -8						; size = 4
_bCopied$1$ = -1					; size = 1
_chOld$ = 8						; size = 1
_chNew$ = 12						; size = 1
?Replace@?$CStringT@DV?$StrTraitMFC@DV?$ChTraitsCRT@D@ATL@@@@@ATL@@QAEHDD@Z PROC ; ATL::CStringT<char,StrTraitMFC<char,ATL::ChTraitsCRT<char> > >::Replace, COMDAT
; _this$ = ecx

; 1569 : 	{

  00000	55		 push	 ebp
  00001	8b ec		 mov	 ebp, esp
  00003	83 ec 0c	 sub	 esp, 12			; 0000000cH
  00006	53		 push	 ebx
  00007	8b d9		 mov	 ebx, ecx

; 1570 : 		int nCount = 0;

  00009	33 c0		 xor	 eax, eax

; 1571 : 
; 1572 : 		// short-circuit the nop case
; 1573 : 		if( chOld != chNew )

  0000b	8a 6d 08	 mov	 ch, BYTE PTR _chOld$[ebp]
  0000e	89 45 f8	 mov	 DWORD PTR _nCount$1$[ebp], eax
  00011	3a 6d 0c	 cmp	 ch, BYTE PTR _chNew$[ebp]
  00014	0f 84 89 00 00
	00		 je	 $LN30@Replace

; 1574 : 		{
; 1575 : 			// otherwise modify each character that matches in the string
; 1576 : 			bool bCopied = false;
; 1577 : 			PXSTR pszBuffer = const_cast< PXSTR >( this->GetString() );  // We don't actually write to pszBuffer until we've called GetBuffer().

  0001a	56		 push	 esi
  0001b	8b 33		 mov	 esi, DWORD PTR [ebx]
  0001d	32 c9		 xor	 cl, cl
  0001f	57		 push	 edi

; 1578 : 
; 1579 : 			int nLength = this->GetLength();
; 1580 : 			int iChar = 0;

  00020	33 ff		 xor	 edi, edi
  00022	88 4d ff	 mov	 BYTE PTR _bCopied$1$[ebp], cl
  00025	8b 56 f4	 mov	 edx, DWORD PTR [esi-12]
  00028	89 55 f4	 mov	 DWORD PTR _nLength$1$[ebp], edx

; 1581 : 			while( iChar < nLength )

  0002b	85 d2		 test	 edx, edx
  0002d	7e 72		 jle	 SHORT $LN54@Replace
  0002f	eb 03		 jmp	 SHORT $LN2@Replace
$LL46@Replace:
  00031	8a 4d ff	 mov	 cl, BYTE PTR _bCopied$1$[ebp]
$LN2@Replace:

; 1582 : 			{
; 1583 : 				// replace instances of the specified character only
; 1584 : 				if( pszBuffer[iChar] == chOld )

  00034	38 2c 37	 cmp	 BYTE PTR [edi+esi], ch
  00037	75 32		 jne	 SHORT $LN5@Replace

; 1585 : 				{
; 1586 : 					if( !bCopied )

  00039	84 c9		 test	 cl, cl
  0003b	75 24		 jne	 SHORT $LN44@Replace
; File C:\Program Files\Microsoft Visual Studio\2022\Professional\VC\Tools\MSVC\14.44.35207\atlmfc\include\atlsimpstr.h

; 804  : 		return( reinterpret_cast< CStringData* >( m_pszData )-1 );

  0003d	8b 03		 mov	 eax, DWORD PTR [ebx]

; 812  : 		int nShared = 1-pOldData->nRefs;  // nShared < 0 means true, >= 0 means false

  0003f	b9 01 00 00 00	 mov	 ecx, 1
; File C:\Program Files\Microsoft Visual Studio\2022\Professional\VC\Tools\MSVC\14.44.35207\atlmfc\include\cstringt.h

; 1588 : 						bCopied = true;

  00044	c6 45 ff 01	 mov	 BYTE PTR _bCopied$1$[ebp], 1
; File C:\Program Files\Microsoft Visual Studio\2022\Professional\VC\Tools\MSVC\14.44.35207\atlmfc\include\atlsimpstr.h

; 812  : 		int nShared = 1-pOldData->nRefs;  // nShared < 0 means true, >= 0 means false

  00048	2b 48 fc	 sub	 ecx, DWORD PTR [eax-4]

; 813  : 		int nTooShort = pOldData->nAllocLength-nLength;  // nTooShort < 0 means true, >= 0 means false

  0004b	8b 40 f8	 mov	 eax, DWORD PTR [eax-8]
  0004e	2b c2		 sub	 eax, edx

; 814  : 		if( (nShared|nTooShort) < 0 )  // If either sign bit is set (i.e. either is less than zero), we need to copy data

  00050	0b c8		 or	 ecx, eax
  00052	7d 08		 jge	 SHORT $LN17@Replace

; 815  : 		{
; 816  : 			PrepareWrite2( nLength );

  00054	52		 push	 edx
  00055	8b cb		 mov	 ecx, ebx
  00057	e8 00 00 00 00	 call	 ?PrepareWrite2@?$CSimpleStringT@D$0A@@ATL@@AAEXH@Z ; ATL::CSimpleStringT<char,0>::PrepareWrite2
$LN17@Replace:
; File C:\Program Files\Microsoft Visual Studio\2022\Professional\VC\Tools\MSVC\14.44.35207\atlmfc\include\cstringt.h

; 1589 : 						pszBuffer = this->GetBuffer( nLength );

  0005c	8b 33		 mov	 esi, DWORD PTR [ebx]
  0005e	8b 45 f8	 mov	 eax, DWORD PTR _nCount$1$[ebp]
$LN44@Replace:

; 1590 : 					}
; 1591 : 					pszBuffer[iChar] = chNew;

  00061	8a 4d 0c	 mov	 cl, BYTE PTR _chNew$[ebp]

; 1592 : 					nCount++;

  00064	40		 inc	 eax
  00065	88 0c 37	 mov	 BYTE PTR [edi+esi], cl
  00068	89 45 f8	 mov	 DWORD PTR _nCount$1$[ebp], eax
$LN5@Replace:

; 1593 : 				}
; 1594 : 				iChar = int( StringTraits::CharNext( pszBuffer+iChar )-pszBuffer );

  0006b	8d 04 37	 lea	 eax, DWORD PTR [edi+esi]

; 167  : 		return reinterpret_cast< char* >( _mbsinc( reinterpret_cast< const unsigned char* >( p ) ) );

  0006e	50		 push	 eax
  0006f	e8 00 00 00 00	 call	 __mbsinc

; 1581 : 			while( iChar < nLength )

  00074	8b 55 f4	 mov	 edx, DWORD PTR _nLength$1$[ebp]

; 167  : 		return reinterpret_cast< char* >( _mbsinc( reinterpret_cast< const unsigned char* >( p ) ) );

  00077	8b f8		 mov	 edi, eax

; 1581 : 			while( iChar < nLength )

  00079	8b 45 f8	 mov	 eax, DWORD PTR _nCount$1$[ebp]

; 1593 : 				}
; 1594 : 				iChar = int( StringTraits::CharNext( pszBuffer+iChar )-pszBuffer );

  0007c	2b fe		 sub	 edi, esi
  0007e	8a 6d 08	 mov	 ch, BYTE PTR _chOld$[ebp]

; 167  : 		return reinterpret_cast< char* >( _mbsinc( reinterpret_cast< const unsigned char* >( p ) ) );

  00081	83 c4 04	 add	 esp, 4

; 1581 : 			while( iChar < nLength )

  00084	3b fa		 cmp	 edi, edx
  00086	7c a9		 jl	 SHORT $LL46@Replace

; 1596 : 			if( bCopied )

  00088	80 7d ff 00	 cmp	 BYTE PTR _bCopied$1$[ebp], 0
  0008c	74 10		 je	 SHORT $LN45@Replace
; File C:\Program Files\Microsoft Visual Studio\2022\Professional\VC\Tools\MSVC\14.44.35207\atlmfc\include\atlsimpstr.h

; 875  : 		if( nLength < 0 || nLength > GetData()->nAllocLength)

  0008e	8b 03		 mov	 eax, DWORD PTR [ebx]
  00090	3b 50 f8	 cmp	 edx, DWORD PTR [eax-8]
  00093	7f 15		 jg	 SHORT $LN29@Replace

; 877  : 
; 878  : 		GetData()->nDataLength = nLength;

  00095	89 50 f4	 mov	 DWORD PTR [eax-12], edx

; 879  : 		m_pszData[nLength] = 0;

  00098	8b 03		 mov	 eax, DWORD PTR [ebx]
  0009a	c6 04 02 00	 mov	 BYTE PTR [edx+eax], 0
$LN45@Replace:
; File C:\Program Files\Microsoft Visual Studio\2022\Professional\VC\Tools\MSVC\14.44.35207\atlmfc\include\cstringt.h

; 1596 : 			if( bCopied )

  0009e	8b 45 f8	 mov	 eax, DWORD PTR _nCount$1$[ebp]
$LN54@Replace:
  000a1	5f		 pop	 edi
  000a2	5e		 pop	 esi
$LN30@Replace:

; 1597 : 			{
; 1598 : 				this->ReleaseBufferSetLength( nLength );
; 1599 : 			}
; 1600 : 		}
; 1601 : 
; 1602 : 		return( nCount );

  000a3	5b		 pop	 ebx

; 1603 : 	}

  000a4	8b e5		 mov	 esp, ebp
  000a6	5d		 pop	 ebp
  000a7	c2 08 00	 ret	 8
$LN29@Replace:
; File C:\Program Files\Microsoft Visual Studio\2022\Professional\VC\Tools\MSVC\14.44.35207\atlmfc\include\atlsimpstr.h

; 876  : 			AtlThrow(E_INVALIDARG);

  000aa	68 57 00 07 80	 push	 -2147024809		; 80070057H
  000af	e8 00 00 00 00	 call	 ?AtlThrowImpl@ATL@@YGXJ@Z ; ATL::AtlThrowImpl
$LN56@Replace:
  000b4	cc		 int	 3
?Replace@?$CStringT@DV?$StrTraitMFC@DV?$ChTraitsCRT@D@ATL@@@@@ATL@@QAEHDD@Z ENDP ; ATL::CStringT<char,StrTraitMFC<char,ATL::ChTraitsCRT<char> > >::Replace
_TEXT	ENDS
; Function compile flags: /Ogtp
; File C:\Program Files\Microsoft Visual Studio\2022\Professional\VC\Tools\MSVC\14.44.35207\atlmfc\include\cstringt.h
; File C:\Program Files\Microsoft Visual Studio\2022\Professional\VC\Tools\MSVC\14.44.35207\atlmfc\include\atlsimpstr.h
; File C:\Program Files\Microsoft Visual Studio\2022\Professional\VC\Tools\MSVC\14.44.35207\atlmfc\include\cstringt.h
;	COMDAT ??1?$CStringT@DV?$StrTraitMFC@DV?$ChTraitsCRT@D@ATL@@@@@ATL@@QAE@XZ
_TEXT	SEGMENT
??1?$CStringT@DV?$StrTraitMFC@DV?$ChTraitsCRT@D@ATL@@@@@ATL@@QAE@XZ PROC ; ATL::CStringT<char,StrTraitMFC<char,ATL::ChTraitsCRT<char> > >::~CStringT<char,StrTraitMFC<char,ATL::ChTraitsCRT<char> > >, COMDAT
; _this$ = ecx
; File C:\Program Files\Microsoft Visual Studio\2022\Professional\VC\Tools\MSVC\14.44.35207\atlmfc\include\atlsimpstr.h

; 804  : 		return( reinterpret_cast< CStringData* >( m_pszData )-1 );

  00000	8b 11		 mov	 edx, DWORD PTR [ecx]

; 92   : 		if( _InterlockedDecrement( &nRefs ) <= 0 )

  00002	83 c8 ff	 or	 eax, -1

; 804  : 		return( reinterpret_cast< CStringData* >( m_pszData )-1 );

  00005	83 ea 10	 sub	 edx, 16			; 00000010H

; 92   : 		if( _InterlockedDecrement( &nRefs ) <= 0 )

  00008	f0 0f c1 42 0c	 lock	  xadd	 DWORD PTR [edx+12], eax
  0000d	48		 dec	 eax
  0000e	85 c0		 test	 eax, eax
  00010	7f 08		 jg	 SHORT $LN8@CStringT

; 93   : 		{
; 94   : 			pStringMgr->Free( this );

  00012	8b 0a		 mov	 ecx, DWORD PTR [edx]
  00014	52		 push	 edx
  00015	8b 01		 mov	 eax, DWORD PTR [ecx]
  00017	ff 50 04	 call	 DWORD PTR [eax+4]
$LN8@CStringT:
; File C:\Program Files\Microsoft Visual Studio\2022\Professional\VC\Tools\MSVC\14.44.35207\atlmfc\include\cstringt.h

; 1303 : 	}

  0001a	c3		 ret	 0
??1?$CStringT@DV?$StrTraitMFC@DV?$ChTraitsCRT@D@ATL@@@@@ATL@@QAE@XZ ENDP ; ATL::CStringT<char,StrTraitMFC<char,ATL::ChTraitsCRT<char> > >::~CStringT<char,StrTraitMFC<char,ATL::ChTraitsCRT<char> > >
_TEXT	ENDS
; Function compile flags: /Ogtp
; File C:\Program Files\Microsoft Visual Studio\2022\Professional\VC\Tools\MSVC\14.44.35207\atlmfc\include\atlsimpstr.h
;	COMDAT ?Reallocate@?$CSimpleStringT@D$0A@@ATL@@AAEXH@Z
_TEXT	SEGMENT
_nLength$ = 8						; size = 4
?Reallocate@?$CSimpleStringT@D$0A@@ATL@@AAEXH@Z PROC	; ATL::CSimpleStringT<char,0>::Reallocate, COMDAT
; _this$ = ecx

; 853  : 	{

  00000	55		 push	 ebp
  00001	8b ec		 mov	 ebp, esp
  00003	56		 push	 esi

; 854  : 		CStringData* pOldData = GetData();
; 855  : 		ATLASSERT( pOldData->nAllocLength < nLength );
; 856  : 		IAtlStringMgr* pStringMgr = pOldData->pStringMgr;
; 857  : 		if ( pOldData->nAllocLength >= nLength || nLength <= 0)

  00004	8b 75 08	 mov	 esi, DWORD PTR _nLength$[ebp]
  00007	57		 push	 edi
  00008	8b f9		 mov	 edi, ecx

; 804  : 		return( reinterpret_cast< CStringData* >( m_pszData )-1 );

  0000a	8b 17		 mov	 edx, DWORD PTR [edi]
  0000c	83 ea 10	 sub	 edx, 16			; 00000010H

; 854  : 		CStringData* pOldData = GetData();
; 855  : 		ATLASSERT( pOldData->nAllocLength < nLength );
; 856  : 		IAtlStringMgr* pStringMgr = pOldData->pStringMgr;
; 857  : 		if ( pOldData->nAllocLength >= nLength || nLength <= 0)

  0000f	39 72 08	 cmp	 DWORD PTR [edx+8], esi
  00012	7d 1e		 jge	 SHORT $LN3@Reallocate
  00014	85 f6		 test	 esi, esi
  00016	7e 1a		 jle	 SHORT $LN3@Reallocate

; 860  : 			return;
; 861  : 		}
; 862  : 		CStringData* pNewData = pStringMgr->Reallocate( pOldData, nLength, sizeof( XCHAR ) );

  00018	8b 0a		 mov	 ecx, DWORD PTR [edx]
  0001a	6a 01		 push	 1
  0001c	56		 push	 esi
  0001d	52		 push	 edx
  0001e	8b 01		 mov	 eax, DWORD PTR [ecx]
  00020	ff 50 08	 call	 DWORD PTR [eax+8]

; 863  : 		if( pNewData == NULL )

  00023	85 c0		 test	 eax, eax
  00025	74 0b		 je	 SHORT $LN3@Reallocate

; 864  : 		{
; 865  : 			ThrowMemoryException();
; 866  : 		}
; 867  : 		Attach( pNewData );

  00027	83 c0 10	 add	 eax, 16			; 00000010H
  0002a	89 07		 mov	 DWORD PTR [edi], eax
  0002c	5f		 pop	 edi
  0002d	5e		 pop	 esi

; 868  : 	}

  0002e	5d		 pop	 ebp
  0002f	c2 04 00	 ret	 4
$LN3@Reallocate:

; 858  : 		{
; 859  : 			ThrowMemoryException();

  00032	e8 00 00 00 00	 call	 ?ThrowMemoryException@?$CSimpleStringT@D$0A@@ATL@@KAXXZ ; ATL::CSimpleStringT<char,0>::ThrowMemoryException
$LN12@Reallocate:
  00037	cc		 int	 3
?Reallocate@?$CSimpleStringT@D$0A@@ATL@@AAEXH@Z ENDP	; ATL::CSimpleStringT<char,0>::Reallocate
_TEXT	ENDS
; Function compile flags: /Ogtp
; File C:\Program Files\Microsoft Visual Studio\2022\Professional\VC\Tools\MSVC\14.44.35207\atlmfc\include\atlsimpstr.h
;	COMDAT ?PrepareWrite2@?$CSimpleStringT@D$0A@@ATL@@AAEXH@Z
_TEXT	SEGMENT
_nLength$ = 8						; size = 4
?PrepareWrite2@?$CSimpleStringT@D$0A@@ATL@@AAEXH@Z PROC	; ATL::CSimpleStringT<char,0>::PrepareWrite2, COMDAT
; _this$ = ecx

; 822  : 	{

  00000	55		 push	 ebp
  00001	8b ec		 mov	 ebp, esp
  00003	56		 push	 esi

; 823  : 		CStringData* pOldData = GetData();
; 824  : 		if( pOldData->nDataLength > nLength )

  00004	8b 75 08	 mov	 esi, DWORD PTR _nLength$[ebp]
  00007	57		 push	 edi
  00008	8b f9		 mov	 edi, ecx

; 804  : 		return( reinterpret_cast< CStringData* >( m_pszData )-1 );

  0000a	8b 0f		 mov	 ecx, DWORD PTR [edi]

; 823  : 		CStringData* pOldData = GetData();
; 824  : 		if( pOldData->nDataLength > nLength )

  0000c	39 71 f4	 cmp	 DWORD PTR [ecx-12], esi
  0000f	0f 4f 71 f4	 cmovg	 esi, DWORD PTR [ecx-12]

; 77   : 		return( nRefs > 1 );

  00013	83 79 fc 01	 cmp	 DWORD PTR [ecx-4], 1

; 825  : 		{
; 826  : 			nLength = pOldData->nDataLength;
; 827  : 		}
; 828  : 		if( pOldData->IsShared() )

  00017	7e 0e		 jle	 SHORT $LN3@PrepareWri

; 829  : 		{
; 830  : 			Fork( nLength );

  00019	56		 push	 esi
  0001a	8b cf		 mov	 ecx, edi
  0001c	e8 00 00 00 00	 call	 ?Fork@?$CSimpleStringT@D$0A@@ATL@@AAEXH@Z ; ATL::CSimpleStringT<char,0>::Fork
  00021	5f		 pop	 edi

; 850  : 		}
; 851  : 	}

  00022	5e		 pop	 esi
  00023	5d		 pop	 ebp
  00024	c2 04 00	 ret	 4
$LN3@PrepareWri:

; 831  : 		}
; 832  : 		else if( pOldData->nAllocLength < nLength )

  00027	8b 49 f8	 mov	 ecx, DWORD PTR [ecx-8]
  0002a	3b ce		 cmp	 ecx, esi
  0002c	7d 25		 jge	 SHORT $LN5@PrepareWri

; 833  : 		{
; 834  : 			// Grow exponentially, until we hit 1G, then by 1M thereafter.
; 835  : 			int nNewLength = pOldData->nAllocLength;
; 836  : 			if( nNewLength > 1024 * 1024 * 1024 )

  0002e	81 f9 00 00 00
	40		 cmp	 ecx, 1073741824		; 40000000H
  00034	7e 07		 jle	 SHORT $LN6@PrepareWri

; 837  : 			{
; 838  : 				nNewLength += 1024 * 1024;

  00036	b8 00 00 10 00	 mov	 eax, 1048576		; 00100000H

; 839  : 			}

  0003b	eb 07		 jmp	 SHORT $LN7@PrepareWri
$LN6@PrepareWri:

; 840  : 			else
; 841  : 			{
; 842  : 				// Exponential growth factor is 1.5.
; 843  : 				nNewLength = nNewLength + nNewLength / 2;

  0003d	8b c1		 mov	 eax, ecx
  0003f	99		 cdq
  00040	2b c2		 sub	 eax, edx
  00042	d1 f8		 sar	 eax, 1
$LN7@PrepareWri:

; 844  : 			}
; 845  : 			if( nNewLength < nLength )

  00044	03 c1		 add	 eax, ecx

; 846  : 			{
; 847  : 				nNewLength = nLength;
; 848  : 			}
; 849  : 			Reallocate( nNewLength );

  00046	8b cf		 mov	 ecx, edi
  00048	3b c6		 cmp	 eax, esi
  0004a	0f 4d f0	 cmovge	 esi, eax
  0004d	56		 push	 esi
  0004e	e8 00 00 00 00	 call	 ?Reallocate@?$CSimpleStringT@D$0A@@ATL@@AAEXH@Z ; ATL::CSimpleStringT<char,0>::Reallocate
$LN5@PrepareWri:

; 850  : 		}
; 851  : 	}

  00053	5f		 pop	 edi
  00054	5e		 pop	 esi
  00055	5d		 pop	 ebp
  00056	c2 04 00	 ret	 4
?PrepareWrite2@?$CSimpleStringT@D$0A@@ATL@@AAEXH@Z ENDP	; ATL::CSimpleStringT<char,0>::PrepareWrite2
_TEXT	ENDS
; Function compile flags: /Ogtp
; File C:\Program Files\Microsoft Visual Studio\2022\Professional\VC\Tools\MSVC\14.44.35207\atlmfc\include\atlsimpstr.h
; File C:\Program Files (x86)\Windows Kits\10\Include\10.0.26100.0\ucrt\corecrt_memcpy_s.h
; File C:\Program Files\Microsoft Visual Studio\2022\Professional\VC\Tools\MSVC\14.44.35207\atlmfc\include\atlsimpstr.h
;	COMDAT ?Fork@?$CSimpleStringT@D$0A@@ATL@@AAEXH@Z
_TEXT	SEGMENT
_this$1$ = -12						; size = 4
_nOldLength$1$ = -8					; size = 4
__Source$1$ = -4					; size = 4
_nLength$ = 8						; size = 4
_pNewData$1$ = 8					; size = 4
?Fork@?$CSimpleStringT@D$0A@@ATL@@AAEXH@Z PROC		; ATL::CSimpleStringT<char,0>::Fork, COMDAT
; _this$ = ecx

; 787  : 	{

  00000	55		 push	 ebp
  00001	8b ec		 mov	 ebp, esp
  00003	83 ec 0c	 sub	 esp, 12			; 0000000cH
  00006	8b c1		 mov	 eax, ecx
  00008	89 45 f4	 mov	 DWORD PTR _this$1$[ebp], eax
  0000b	53		 push	 ebx
  0000c	56		 push	 esi

; 804  : 		return( reinterpret_cast< CStringData* >( m_pszData )-1 );

  0000d	8b 00		 mov	 eax, DWORD PTR [eax]

; 790  : 		CStringData* pNewData = pOldData->pStringMgr->Clone()->Allocate( nLength, sizeof( XCHAR ) );

  0000f	8b 48 f0	 mov	 ecx, DWORD PTR [eax-16]

; 804  : 		return( reinterpret_cast< CStringData* >( m_pszData )-1 );

  00012	8d 58 f0	 lea	 ebx, DWORD PTR [eax-16]
  00015	89 45 fc	 mov	 DWORD PTR __Source$1$[ebp], eax

; 787  : 	{

  00018	57		 push	 edi

; 788  : 		CStringData* pOldData = GetData();
; 789  : 		int nOldLength = pOldData->nDataLength;

  00019	8b 7b 04	 mov	 edi, DWORD PTR [ebx+4]

; 790  : 		CStringData* pNewData = pOldData->pStringMgr->Clone()->Allocate( nLength, sizeof( XCHAR ) );

  0001c	8b 01		 mov	 eax, DWORD PTR [ecx]
  0001e	89 7d f8	 mov	 DWORD PTR _nOldLength$1$[ebp], edi
  00021	ff 50 10	 call	 DWORD PTR [eax+16]
  00024	8b 75 08	 mov	 esi, DWORD PTR _nLength$[ebp]
  00027	8b c8		 mov	 ecx, eax
  00029	6a 01		 push	 1
  0002b	56		 push	 esi
  0002c	8b 10		 mov	 edx, DWORD PTR [eax]
  0002e	ff 12		 call	 DWORD PTR [edx]
  00030	89 45 08	 mov	 DWORD PTR _pNewData$1$[ebp], eax

; 791  : 		if( pNewData == NULL )

  00033	85 c0		 test	 eax, eax
  00035	74 6c		 je	 SHORT $LN25@Fork

; 794  : 		}
; 795  : 		int nCharsToCopy = ((nOldLength < nLength) ? nOldLength : nLength)+1;  // Copy '\0'

  00037	3b fe		 cmp	 edi, esi
  00039	0f 4c f7	 cmovl	 esi, edi

; 796  : 		memcpy_s( PXSTR( pNewData->data() ), nCharsToCopy * sizeof( XCHAR ),

  0003c	8d 78 10	 lea	 edi, DWORD PTR [eax+16]
  0003f	83 c6 01	 add	 esi, 1
; File C:\Program Files (x86)\Windows Kits\10\Include\10.0.26100.0\ucrt\corecrt_memcpy_s.h

; 47   :         if (_SourceSize == 0)

  00042	74 33		 je	 SHORT $LN11@Fork

; 48   :         {
; 49   :             return 0;
; 50   :         }
; 51   : 
; 52   :         _CRT_MEMCPY_S_VALIDATE_RETURN_ERRCODE(_Destination != NULL, EINVAL);

  00044	85 ff		 test	 edi, edi
  00046	74 1f		 je	 SHORT $LN23@Fork

; 53   :         if (_Source == NULL || _DestinationSize < _SourceSize)

  00048	8b 45 fc	 mov	 eax, DWORD PTR __Source$1$[ebp]
  0004b	56		 push	 esi
  0004c	85 c0		 test	 eax, eax
  0004e	74 0c		 je	 SHORT $LN10@Fork

; 56   : 
; 57   :             _CRT_MEMCPY_S_VALIDATE_RETURN_ERRCODE(_Source != NULL,                 EINVAL);
; 58   :             _CRT_MEMCPY_S_VALIDATE_RETURN_ERRCODE(_DestinationSize >= _SourceSize, ERANGE);
; 59   : 
; 60   :             // Unreachable, but required to suppress /analyze warnings:
; 61   :             return EINVAL;
; 62   :         }
; 63   :         memcpy(_Destination, _Source, _SourceSize);

  00050	50		 push	 eax
  00051	57		 push	 edi
  00052	e8 00 00 00 00	 call	 _memcpy
  00057	83 c4 0c	 add	 esp, 12			; 0000000cH
  0005a	eb 1b		 jmp	 SHORT $LN11@Fork
$LN10@Fork:

; 54   :         {
; 55   :             memset(_Destination, 0, _DestinationSize);

  0005c	6a 00		 push	 0
  0005e	57		 push	 edi
  0005f	e8 00 00 00 00	 call	 _memset
  00064	83 c4 0c	 add	 esp, 12			; 0000000cH
$LN23@Fork:
; File C:\Program Files\Microsoft Visual Studio\2022\Professional\VC\Tools\MSVC\14.44.35207\atlmfc\include\atlsimpstr.h

; 798  : 		pNewData->nDataLength = nOldLength;

  00067	e8 00 00 00 00	 call	 __errno
  0006c	c7 00 16 00 00
	00		 mov	 DWORD PTR [eax], 22	; 00000016H
  00072	e8 00 00 00 00	 call	 __invalid_parameter_noinfo
$LN11@Fork:
  00077	8b 4d 08	 mov	 ecx, DWORD PTR _pNewData$1$[ebp]
  0007a	8b 45 f8	 mov	 eax, DWORD PTR _nOldLength$1$[ebp]
  0007d	89 41 04	 mov	 DWORD PTR [ecx+4], eax

; 92   : 		if( _InterlockedDecrement( &nRefs ) <= 0 )

  00080	83 c8 ff	 or	 eax, -1
  00083	f0 0f c1 43 0c	 lock	  xadd	 DWORD PTR [ebx+12], eax
  00088	48		 dec	 eax
  00089	85 c0		 test	 eax, eax
  0008b	7f 08		 jg	 SHORT $LN15@Fork

; 93   : 		{
; 94   : 			pStringMgr->Free( this );

  0008d	8b 0b		 mov	 ecx, DWORD PTR [ebx]
  0008f	53		 push	 ebx
  00090	8b 01		 mov	 eax, DWORD PTR [ecx]
  00092	ff 50 04	 call	 DWORD PTR [eax+4]
$LN15@Fork:

; 799  : 		pOldData->Release();
; 800  : 		Attach( pNewData );

  00095	8b 45 f4	 mov	 eax, DWORD PTR _this$1$[ebp]
  00098	89 38		 mov	 DWORD PTR [eax], edi

; 801  : 	}

  0009a	5f		 pop	 edi
  0009b	5e		 pop	 esi
  0009c	5b		 pop	 ebx
  0009d	8b e5		 mov	 esp, ebp
  0009f	5d		 pop	 ebp
  000a0	c2 04 00	 ret	 4
$LN25@Fork:

; 792  : 		{
; 793  : 			ThrowMemoryException();

  000a3	e8 00 00 00 00	 call	 ?ThrowMemoryException@?$CSimpleStringT@D$0A@@ATL@@KAXXZ ; ATL::CSimpleStringT<char,0>::ThrowMemoryException
$LN22@Fork:
  000a8	cc		 int	 3
?Fork@?$CSimpleStringT@D$0A@@ATL@@AAEXH@Z ENDP		; ATL::CSimpleStringT<char,0>::Fork
_TEXT	ENDS
; Function compile flags: /Ogtp
; File C:\Program Files\Microsoft Visual Studio\2022\Professional\VC\Tools\MSVC\14.44.35207\atlmfc\include\atlsimpstr.h
;	COMDAT ?ThrowMemoryException@?$CSimpleStringT@D$0A@@ATL@@KAXXZ
_TEXT	SEGMENT
?ThrowMemoryException@?$CSimpleStringT@D$0A@@ATL@@KAXXZ PROC ; ATL::CSimpleStringT<char,0>::ThrowMemoryException, COMDAT

; 777  : 		AtlThrow( E_OUTOFMEMORY );

  00000	68 0e 00 07 80	 push	 -2147024882		; 8007000eH
  00005	e8 00 00 00 00	 call	 ?AtlThrowImpl@ATL@@YGXJ@Z ; ATL::AtlThrowImpl
$LN3@ThrowMemor:
  0000a	cc		 int	 3
?ThrowMemoryException@?$CSimpleStringT@D$0A@@ATL@@KAXXZ ENDP ; ATL::CSimpleStringT<char,0>::ThrowMemoryException
_TEXT	ENDS
; Function compile flags: /Ogtp
; File C:\Program Files\Microsoft Visual Studio\2022\Professional\VC\Tools\MSVC\14.44.35207\atlmfc\include\atlsimpstr.h
; File C:\Program Files (x86)\Windows Kits\10\Include\10.0.26100.0\ucrt\corecrt_memcpy_s.h
; File C:\Program Files\Microsoft Visual Studio\2022\Professional\VC\Tools\MSVC\14.44.35207\atlmfc\include\atlsimpstr.h
; File C:\Program Files (x86)\Windows Kits\10\Include\10.0.26100.0\ucrt\corecrt_memcpy_s.h
; File C:\Program Files\Microsoft Visual Studio\2022\Professional\VC\Tools\MSVC\14.44.35207\atlmfc\include\atlsimpstr.h
;	COMDAT ?SetString@?$CSimpleStringT@D$0A@@ATL@@QAEXPBDH@Z
_TEXT	SEGMENT
_pszSrc$ = 8						; size = 4
_nOldLength$1$ = 8					; size = 4
_nLength$ = 12						; size = 4
_nOffset$1$ = 12					; size = 4
?SetString@?$CSimpleStringT@D$0A@@ATL@@QAEXPBDH@Z PROC	; ATL::CSimpleStringT<char,0>::SetString, COMDAT
; _this$ = ecx

; 611  : 	{

  00000	55		 push	 ebp
  00001	8b ec		 mov	 ebp, esp
  00003	56		 push	 esi

; 612  : 		if( nLength == 0 )

  00004	8b 75 0c	 mov	 esi, DWORD PTR _nLength$[ebp]
  00007	57		 push	 edi
  00008	8b f9		 mov	 edi, ecx
  0000a	85 f6		 test	 esi, esi
  0000c	75 58		 jne	 SHORT $LN2@SetString

; 804  : 		return( reinterpret_cast< CStringData* >( m_pszData )-1 );

  0000e	8b 07		 mov	 eax, DWORD PTR [edi]

; 443  : 		if( pOldData->nDataLength == 0 )

  00010	83 78 f4 00	 cmp	 DWORD PTR [eax-12], 0

; 804  : 		return( reinterpret_cast< CStringData* >( m_pszData )-1 );

  00014	8d 50 f0	 lea	 edx, DWORD PTR [eax-16]

; 442  : 		IAtlStringMgr* pStringMgr = pOldData->pStringMgr;

  00017	8b 32		 mov	 esi, DWORD PTR [edx]

; 443  : 		if( pOldData->nDataLength == 0 )

  00019	74 1f		 je	 SHORT $LN72@SetString

; 73   : 		return nRefs < 0;

  0001b	83 7a 0c 00	 cmp	 DWORD PTR [edx+12], 0
  0001f	8d 4a 0c	 lea	 ecx, DWORD PTR [edx+12]

; 448  : 		if( pOldData->IsLocked() )

  00022	7d 1c		 jge	 SHORT $LN10@SetString

; 875  : 		if( nLength < 0 || nLength > GetData()->nAllocLength)

  00024	83 78 f8 00	 cmp	 DWORD PTR [eax-8], 0
  00028	0f 8c 0b 01 00
	00		 jl	 $LN71@SetString

; 877  : 
; 878  : 		GetData()->nDataLength = nLength;

  0002e	c7 40 f4 00 00
	00 00		 mov	 DWORD PTR [eax-12], 0

; 879  : 		m_pszData[nLength] = 0;

  00035	8b 07		 mov	 eax, DWORD PTR [edi]
  00037	c6 00 00	 mov	 BYTE PTR [eax], 0
$LN72@SetString:
  0003a	5f		 pop	 edi

; 638  : 			else
; 639  : 			{
; 640  : 				memcpy_s( pszBuffer, GetAllocLength() * sizeof( XCHAR ), pszSrc, nLength * sizeof( XCHAR ));
; 641  : 			}
; 642  : 			ReleaseBufferSetLength( nLength );
; 643  : 		}
; 644  : 	}

  0003b	5e		 pop	 esi
  0003c	5d		 pop	 ebp
  0003d	c2 08 00	 ret	 8
$LN10@SetString:

; 92   : 		if( _InterlockedDecrement( &nRefs ) <= 0 )

  00040	83 c8 ff	 or	 eax, -1
  00043	f0 0f c1 01	 lock	  xadd	 DWORD PTR [ecx], eax
  00047	48		 dec	 eax
  00048	85 c0		 test	 eax, eax
  0004a	7f 08		 jg	 SHORT $LN27@SetString

; 93   : 		{
; 94   : 			pStringMgr->Free( this );

  0004c	8b 0a		 mov	 ecx, DWORD PTR [edx]
  0004e	52		 push	 edx
  0004f	8b 01		 mov	 eax, DWORD PTR [ecx]
  00051	ff 50 04	 call	 DWORD PTR [eax+4]
$LN27@SetString:

; 456  : 			CStringData* pNewData = pStringMgr->GetNilString();

  00054	8b 06		 mov	 eax, DWORD PTR [esi]
  00056	8b ce		 mov	 ecx, esi
  00058	ff 50 0c	 call	 DWORD PTR [eax+12]

; 457  : 			Attach( pNewData );

  0005b	83 c0 10	 add	 eax, 16			; 00000010H
  0005e	89 07		 mov	 DWORD PTR [edi], eax
  00060	5f		 pop	 edi

; 638  : 			else
; 639  : 			{
; 640  : 				memcpy_s( pszBuffer, GetAllocLength() * sizeof( XCHAR ), pszSrc, nLength * sizeof( XCHAR ));
; 641  : 			}
; 642  : 			ReleaseBufferSetLength( nLength );
; 643  : 		}
; 644  : 	}

  00061	5e		 pop	 esi
  00062	5d		 pop	 ebp
  00063	c2 08 00	 ret	 8
$LN2@SetString:
  00066	53		 push	 ebx

; 613  : 		{
; 614  : 			Empty();
; 615  : 		}
; 616  : 		else
; 617  : 		{
; 618  : 			// It is possible that pszSrc points to a location inside of our
; 619  : 			// buffer.  GetBuffer() might change m_pszData if (1) the buffer
; 620  : 			// is shared or (2) the buffer is too small to hold the new
; 621  : 			// string.  We detect this aliasing, and modify pszSrc to point
; 622  : 			// into the newly allocated buffer instead.
; 623  : 
; 624  : 			if(pszSrc == NULL)

  00067	8b 5d 08	 mov	 ebx, DWORD PTR _pszSrc$[ebp]
  0006a	85 db		 test	 ebx, ebx
  0006c	0f 84 c7 00 00
	00		 je	 $LN71@SetString

; 523  : 		return( GetData()->nDataLength );

  00072	8b 07		 mov	 eax, DWORD PTR [edi]

; 625  : 				AtlThrow(E_INVALIDARG);
; 626  : 
; 627  : 			UINT nOldLength = GetLength();
; 628  : 			UINT_PTR nOffset = pszSrc-GetString();

  00074	8b d3		 mov	 edx, ebx
  00076	2b d0		 sub	 edx, eax
  00078	89 55 0c	 mov	 DWORD PTR _nOffset$1$[ebp], edx
  0007b	8b 48 f4	 mov	 ecx, DWORD PTR [eax-12]
  0007e	89 4d 08	 mov	 DWORD PTR _nOldLength$1$[ebp], ecx

; 808  : 		if (nLength < 0)

  00081	85 f6		 test	 esi, esi
  00083	0f 88 b0 00 00
	00		 js	 $LN71@SetString

; 809  : 			AtlThrow(E_INVALIDARG);
; 810  : 
; 811  : 		CStringData* pOldData = GetData();
; 812  : 		int nShared = 1-pOldData->nRefs;  // nShared < 0 means true, >= 0 means false

  00089	b9 01 00 00 00	 mov	 ecx, 1
  0008e	2b 48 fc	 sub	 ecx, DWORD PTR [eax-4]

; 813  : 		int nTooShort = pOldData->nAllocLength-nLength;  // nTooShort < 0 means true, >= 0 means false

  00091	8b 40 f8	 mov	 eax, DWORD PTR [eax-8]
  00094	2b c6		 sub	 eax, esi

; 814  : 		if( (nShared|nTooShort) < 0 )  // If either sign bit is set (i.e. either is less than zero), we need to copy data

  00096	0b c8		 or	 ecx, eax
  00098	7d 0b		 jge	 SHORT $LN38@SetString

; 815  : 		{
; 816  : 			PrepareWrite2( nLength );

  0009a	56		 push	 esi
  0009b	8b cf		 mov	 ecx, edi
  0009d	e8 00 00 00 00	 call	 ?PrepareWrite2@?$CSimpleStringT@D$0A@@ATL@@AAEXH@Z ; ATL::CSimpleStringT<char,0>::PrepareWrite2
  000a2	8b 55 0c	 mov	 edx, DWORD PTR _nOffset$1$[ebp]
$LN38@SetString:

; 629  : 			// If 0 <= nOffset <= nOldLength, then pszSrc points into our
; 630  : 			// buffer
; 631  : 
; 632  : 			PXSTR pszBuffer = GetBuffer( nLength );

  000a5	8b 07		 mov	 eax, DWORD PTR [edi]
  000a7	8b 48 f8	 mov	 ecx, DWORD PTR [eax-8]

; 633  : 			if( nOffset <= nOldLength )

  000aa	3b 55 08	 cmp	 edx, DWORD PTR _nOldLength$1$[ebp]
  000ad	77 35		 ja	 SHORT $LN5@SetString

; 634  : 			{
; 635  : 				CopyCharsOverlapped( pszBuffer, GetAllocLength(),

  000af	03 d0		 add	 edx, eax
; File C:\Program Files (x86)\Windows Kits\10\Include\10.0.26100.0\ucrt\corecrt_memcpy_s.h

; 81   :         _CRT_MEMCPY_S_VALIDATE_RETURN_ERRCODE(_Destination != NULL,            EINVAL);

  000b1	85 c0		 test	 eax, eax
  000b3	75 0d		 jne	 SHORT $LN51@SetString
  000b5	e8 00 00 00 00	 call	 __errno
  000ba	c7 00 16 00 00
	00		 mov	 DWORD PTR [eax], 22	; 00000016H
  000c0	eb 5b		 jmp	 SHORT $LN97@SetString
$LN51@SetString:

; 82   :         _CRT_MEMCPY_S_VALIDATE_RETURN_ERRCODE(_Source != NULL,                 EINVAL);

  000c2	85 d2		 test	 edx, edx
  000c4	75 0d		 jne	 SHORT $LN52@SetString
  000c6	e8 00 00 00 00	 call	 __errno
  000cb	c7 00 16 00 00
	00		 mov	 DWORD PTR [eax], 22	; 00000016H
  000d1	eb 4a		 jmp	 SHORT $LN97@SetString
$LN52@SetString:

; 83   :         _CRT_MEMCPY_S_VALIDATE_RETURN_ERRCODE(_DestinationSize >= _SourceSize, ERANGE);

  000d3	3b ce		 cmp	 ecx, esi
  000d5	72 3b		 jb	 SHORT $LN98@SetString

; 84   : 
; 85   :         memmove(_Destination, _Source, _SourceSize);

  000d7	56		 push	 esi
  000d8	52		 push	 edx
  000d9	50		 push	 eax
  000da	e8 00 00 00 00	 call	 _memmove
  000df	83 c4 0c	 add	 esp, 12			; 0000000cH
; File C:\Program Files\Microsoft Visual Studio\2022\Professional\VC\Tools\MSVC\14.44.35207\atlmfc\include\atlsimpstr.h

; 637  : 			}

  000e2	eb 3e		 jmp	 SHORT $LN65@SetString
$LN5@SetString:
; File C:\Program Files (x86)\Windows Kits\10\Include\10.0.26100.0\ucrt\corecrt_memcpy_s.h

; 52   :         _CRT_MEMCPY_S_VALIDATE_RETURN_ERRCODE(_Destination != NULL, EINVAL);

  000e4	85 c0		 test	 eax, eax
  000e6	75 0d		 jne	 SHORT $LN61@SetString
  000e8	e8 00 00 00 00	 call	 __errno
  000ed	c7 00 16 00 00
	00		 mov	 DWORD PTR [eax], 22	; 00000016H
  000f3	eb 28		 jmp	 SHORT $LN97@SetString
$LN61@SetString:

; 53   :         if (_Source == NULL || _DestinationSize < _SourceSize)

  000f5	3b ce		 cmp	 ecx, esi
  000f7	72 0d		 jb	 SHORT $LN63@SetString

; 56   : 
; 57   :             _CRT_MEMCPY_S_VALIDATE_RETURN_ERRCODE(_Source != NULL,                 EINVAL);
; 58   :             _CRT_MEMCPY_S_VALIDATE_RETURN_ERRCODE(_DestinationSize >= _SourceSize, ERANGE);
; 59   : 
; 60   :             // Unreachable, but required to suppress /analyze warnings:
; 61   :             return EINVAL;
; 62   :         }
; 63   :         memcpy(_Destination, _Source, _SourceSize);

  000f9	56		 push	 esi
  000fa	53		 push	 ebx
  000fb	50		 push	 eax
  000fc	e8 00 00 00 00	 call	 _memcpy
  00101	83 c4 0c	 add	 esp, 12			; 0000000cH
  00104	eb 1c		 jmp	 SHORT $LN65@SetString
$LN63@SetString:

; 54   :         {
; 55   :             memset(_Destination, 0, _DestinationSize);

  00106	51		 push	 ecx
  00107	6a 00		 push	 0
  00109	50		 push	 eax
  0010a	e8 00 00 00 00	 call	 _memset
  0010f	83 c4 0c	 add	 esp, 12			; 0000000cH
$LN98@SetString:
; File C:\Program Files\Microsoft Visual Studio\2022\Professional\VC\Tools\MSVC\14.44.35207\atlmfc\include\atlsimpstr.h

; 875  : 		if( nLength < 0 || nLength > GetData()->nAllocLength)

  00112	e8 00 00 00 00	 call	 __errno
  00117	c7 00 22 00 00
	00		 mov	 DWORD PTR [eax], 34	; 00000022H
$LN97@SetString:
  0011d	e8 00 00 00 00	 call	 __invalid_parameter_noinfo
$LN65@SetString:
  00122	8b 07		 mov	 eax, DWORD PTR [edi]
  00124	5b		 pop	 ebx
  00125	3b 70 f8	 cmp	 esi, DWORD PTR [eax-8]
  00128	7f 0f		 jg	 SHORT $LN71@SetString

; 877  : 
; 878  : 		GetData()->nDataLength = nLength;

  0012a	89 70 f4	 mov	 DWORD PTR [eax-12], esi

; 879  : 		m_pszData[nLength] = 0;

  0012d	8b 07		 mov	 eax, DWORD PTR [edi]
  0012f	5f		 pop	 edi
  00130	c6 04 06 00	 mov	 BYTE PTR [esi+eax], 0

; 638  : 			else
; 639  : 			{
; 640  : 				memcpy_s( pszBuffer, GetAllocLength() * sizeof( XCHAR ), pszSrc, nLength * sizeof( XCHAR ));
; 641  : 			}
; 642  : 			ReleaseBufferSetLength( nLength );
; 643  : 		}
; 644  : 	}

  00134	5e		 pop	 esi
  00135	5d		 pop	 ebp
  00136	c2 08 00	 ret	 8
$LN71@SetString:

; 876  : 			AtlThrow(E_INVALIDARG);

  00139	68 57 00 07 80	 push	 -2147024809		; 80070057H
  0013e	e8 00 00 00 00	 call	 ?AtlThrowImpl@ATL@@YGXJ@Z ; ATL::AtlThrowImpl
$LN96@SetString:
  00143	cc		 int	 3
?SetString@?$CSimpleStringT@D$0A@@ATL@@QAEXPBDH@Z ENDP	; ATL::CSimpleStringT<char,0>::SetString
_TEXT	ENDS
; Function compile flags: /Ogtp
; File C:\Program Files\Microsoft Visual Studio\2022\Professional\VC\Tools\MSVC\14.44.35207\atlmfc\include\atlsimpstr.h
;	COMDAT ??1?$CSimpleStringT@D$0A@@ATL@@QAE@XZ
_TEXT	SEGMENT
??1?$CSimpleStringT@D$0A@@ATL@@QAE@XZ PROC		; ATL::CSimpleStringT<char,0>::~CSimpleStringT<char,0>, COMDAT
; _this$ = ecx

; 804  : 		return( reinterpret_cast< CStringData* >( m_pszData )-1 );

  00000	8b 11		 mov	 edx, DWORD PTR [ecx]

; 92   : 		if( _InterlockedDecrement( &nRefs ) <= 0 )

  00002	83 c8 ff	 or	 eax, -1

; 804  : 		return( reinterpret_cast< CStringData* >( m_pszData )-1 );

  00005	83 ea 10	 sub	 edx, 16			; 00000010H

; 92   : 		if( _InterlockedDecrement( &nRefs ) <= 0 )

  00008	f0 0f c1 42 0c	 lock	  xadd	 DWORD PTR [edx+12], eax
  0000d	48		 dec	 eax
  0000e	85 c0		 test	 eax, eax
  00010	7f 08		 jg	 SHORT $LN6@CSimpleStr

; 93   : 		{
; 94   : 			pStringMgr->Free( this );

  00012	8b 0a		 mov	 ecx, DWORD PTR [edx]
  00014	52		 push	 edx
  00015	8b 01		 mov	 eax, DWORD PTR [ecx]
  00017	ff 50 04	 call	 DWORD PTR [eax+4]
$LN6@CSimpleStr:

; 265  : 		CStringData* pData = GetData();
; 266  : 		pData->Release();
; 267  : 	}

  0001a	c3		 ret	 0
??1?$CSimpleStringT@D$0A@@ATL@@QAE@XZ ENDP		; ATL::CSimpleStringT<char,0>::~CSimpleStringT<char,0>
_TEXT	ENDS
; Function compile flags: /Ogtp
; File C:\Program Files\Microsoft Visual Studio\2022\Professional\VC\Tools\MSVC\14.44.35207\atlmfc\include\atlexcept.h
;	COMDAT ?AtlThrowImpl@ATL@@YGXJ@Z
_TEXT	SEGMENT
_hr$ = 8						; size = 4
?AtlThrowImpl@ATL@@YGXJ@Z PROC				; ATL::AtlThrowImpl, COMDAT

; 69   : {

  00000	55		 push	 ebp
  00001	8b ec		 mov	 ebp, esp

; 70   : 	ATLTRACE(atlTraceException, 0, _T("AtlThrow: hr = 0x%x\n"), hr );
; 71   : #ifdef _AFX
; 72   : 	if( hr == E_OUTOFMEMORY )

  00003	8b 45 08	 mov	 eax, DWORD PTR _hr$[ebp]
  00006	3d 0e 00 07 80	 cmp	 eax, -2147024882	; 8007000eH
  0000b	75 05		 jne	 SHORT $LN2@AtlThrowIm

; 73   : 	{
; 74   : 		AfxThrowMemoryException();

  0000d	e8 00 00 00 00	 call	 ?AfxThrowMemoryException@@YGXXZ ; AfxThrowMemoryException
$LN2@AtlThrowIm:

; 75   : 	}
; 76   : 	else
; 77   : 	{
; 78   : 		AfxThrowOleException( hr );

  00012	50		 push	 eax
  00013	e8 00 00 00 00	 call	 ?AfxThrowOleException@@YGXJ@Z ; AfxThrowOleException
$LN5@AtlThrowIm:
  00018	cc		 int	 3
?AtlThrowImpl@ATL@@YGXJ@Z ENDP				; ATL::AtlThrowImpl
_TEXT	ENDS
; Function compile flags: /Ogtp
; File C:\Program Files\Microsoft Visual Studio\2022\Professional\VC\Tools\MSVC\14.44.35207\atlmfc\include\afx.h
;	COMDAT ?AfxCrtErrorCheck@@YAHH@Z
_TEXT	SEGMENT
_error$ = 8						; size = 4
?AfxCrtErrorCheck@@YAHH@Z PROC				; AfxCrtErrorCheck, COMDAT

; 510  : {

  00000	55		 push	 ebp
  00001	8b ec		 mov	 ebp, esp

; 511  : 	switch(error)

  00003	8b 4d 08	 mov	 ecx, DWORD PTR _error$[ebp]
  00006	83 f9 50	 cmp	 ecx, 80			; 00000050H
  00009	77 17		 ja	 SHORT $LN9@AfxCrtErro
  0000b	0f b6 81 00 00
	00 00		 movzx	 eax, BYTE PTR $LN11@AfxCrtErro[ecx]
  00012	ff 24 85 00 00
	00 00		 jmp	 DWORD PTR $LN12@AfxCrtErro[eax*4]
$LN4@AfxCrtErro:

; 512  : 	{
; 513  : 	case ENOMEM:
; 514  : 		AfxThrowMemoryException();

  00019	e9 00 00 00 00	 jmp	 ?AfxThrowMemoryException@@YGXXZ ; AfxThrowMemoryException
$LN7@AfxCrtErro:

; 525  : 		break;
; 526  : 	}
; 527  : 	return error;

  0001e	8b c1		 mov	 eax, ecx

; 528  : }

  00020	5d		 pop	 ebp
  00021	c3		 ret	 0
$LN9@AfxCrtErro:

; 515  : 		break;
; 516  : 	case EINVAL:
; 517  : 	case ERANGE:
; 518  : 		AfxThrowInvalidArgException();
; 519  : 		break;
; 520  : 	case STRUNCATE:
; 521  : 	case 0:
; 522  : 		break;
; 523  : 	default:
; 524  : 		AfxThrowInvalidArgException();

  00022	e9 00 00 00 00	 jmp	 ?AfxThrowInvalidArgException@@YGXXZ ; AfxThrowInvalidArgException
  00027	90		 npad	 1
$LN12@AfxCrtErro:

; 528  : }

  00028	00 00 00 00	 DD	 $LN7@AfxCrtErro
  0002c	00 00 00 00	 DD	 $LN4@AfxCrtErro
  00030	00 00 00 00	 DD	 $LN9@AfxCrtErro
  00034	00 00 00 00	 DD	 $LN9@AfxCrtErro
$LN11@AfxCrtErro:
  00038	00		 DB	 0
  00039	03		 DB	 3
  0003a	03		 DB	 3
  0003b	03		 DB	 3
  0003c	03		 DB	 3
  0003d	03		 DB	 3
  0003e	03		 DB	 3
  0003f	03		 DB	 3
  00040	03		 DB	 3
  00041	03		 DB	 3
  00042	03		 DB	 3
  00043	03		 DB	 3
  00044	01		 DB	 1
  00045	03		 DB	 3
  00046	03		 DB	 3
  00047	03		 DB	 3
  00048	03		 DB	 3
  00049	03		 DB	 3
  0004a	03		 DB	 3
  0004b	03		 DB	 3
  0004c	03		 DB	 3
  0004d	03		 DB	 3
  0004e	02		 DB	 2
  0004f	03		 DB	 3
  00050	03		 DB	 3
  00051	03		 DB	 3
  00052	03		 DB	 3
  00053	03		 DB	 3
  00054	03		 DB	 3
  00055	03		 DB	 3
  00056	03		 DB	 3
  00057	03		 DB	 3
  00058	03		 DB	 3
  00059	03		 DB	 3
  0005a	02		 DB	 2
  0005b	03		 DB	 3
  0005c	03		 DB	 3
  0005d	03		 DB	 3
  0005e	03		 DB	 3
  0005f	03		 DB	 3
  00060	03		 DB	 3
  00061	03		 DB	 3
  00062	03		 DB	 3
  00063	03		 DB	 3
  00064	03		 DB	 3
  00065	03		 DB	 3
  00066	03		 DB	 3
  00067	03		 DB	 3
  00068	03		 DB	 3
  00069	03		 DB	 3
  0006a	03		 DB	 3
  0006b	03		 DB	 3
  0006c	03		 DB	 3
  0006d	03		 DB	 3
  0006e	03		 DB	 3
  0006f	03		 DB	 3
  00070	03		 DB	 3
  00071	03		 DB	 3
  00072	03		 DB	 3
  00073	03		 DB	 3
  00074	03		 DB	 3
  00075	03		 DB	 3
  00076	03		 DB	 3
  00077	03		 DB	 3
  00078	03		 DB	 3
  00079	03		 DB	 3
  0007a	03		 DB	 3
  0007b	03		 DB	 3
  0007c	03		 DB	 3
  0007d	03		 DB	 3
  0007e	03		 DB	 3
  0007f	03		 DB	 3
  00080	03		 DB	 3
  00081	03		 DB	 3
  00082	03		 DB	 3
  00083	03		 DB	 3
  00084	03		 DB	 3
  00085	03		 DB	 3
  00086	03		 DB	 3
  00087	03		 DB	 3
  00088	00		 DB	 0
?AfxCrtErrorCheck@@YAHH@Z ENDP				; AfxCrtErrorCheck
_TEXT	ENDS
; Function compile flags: /Ogtp
; File C:\Program Files (x86)\Windows Kits\10\Include\10.0.26100.0\ucrt\stdio.h
;	COMDAT _sprintf
_TEXT	SEGMENT
__Buffer$ = 8						; size = 4
__Format$ = 12						; size = 4
_sprintf PROC						; COMDAT

; 1771 :     {

  00000	55		 push	 ebp
  00001	8b ec		 mov	 ebp, esp

; 1392 :         int const _Result = __stdio_common_vsprintf(

  00003	8d 45 10	 lea	 eax, DWORD PTR __Format$[ebp+4]
  00006	50		 push	 eax
  00007	6a 00		 push	 0
  00009	ff 75 0c	 push	 DWORD PTR __Format$[ebp]
  0000c	6a ff		 push	 -1
  0000e	ff 75 08	 push	 DWORD PTR __Buffer$[ebp]
  00011	e8 00 00 00 00	 call	 ___local_stdio_printf_options
  00016	8b 08		 mov	 ecx, DWORD PTR [eax]
  00018	ff 70 04	 push	 DWORD PTR [eax+4]
  0001b	83 c9 01	 or	 ecx, 1
  0001e	51		 push	 ecx
  0001f	e8 00 00 00 00	 call	 ___stdio_common_vsprintf

; 1393 :             _CRT_INTERNAL_LOCAL_PRINTF_OPTIONS | _CRT_INTERNAL_PRINTF_LEGACY_VSPRINTF_NULL_TERMINATION,
; 1394 :             _Buffer, _BufferCount, _Format, _Locale, _ArgList);
; 1395 : 
; 1396 :         return _Result < 0 ? -1 : _Result;

  00024	83 c9 ff	 or	 ecx, -1
  00027	83 c4 1c	 add	 esp, 28			; 0000001cH
  0002a	85 c0		 test	 eax, eax
  0002c	0f 48 c1	 cmovs	 eax, ecx

; 1772 :         int _Result;
; 1773 :         va_list _ArgList;
; 1774 :         __crt_va_start(_ArgList, _Format);
; 1775 : 
; 1776 :         _Result = _vsprintf_l(_Buffer, _Format, NULL, _ArgList);
; 1777 : 
; 1778 :         __crt_va_end(_ArgList);
; 1779 :         return _Result;
; 1780 :     }

  0002f	5d		 pop	 ebp
  00030	c3		 ret	 0
_sprintf ENDP
_TEXT	ENDS
; Function compile flags: /Ogtp
; File C:\Program Files (x86)\Windows Kits\10\Include\10.0.26100.0\ucrt\corecrt_stdio_config.h
;	COMDAT ___local_stdio_printf_options
_TEXT	SEGMENT
___local_stdio_printf_options PROC			; COMDAT

; 91   :         static unsigned __int64 _OptionsStorage;
; 92   :         return &_OptionsStorage;

  00000	b8 00 00 00 00	 mov	 eax, OFFSET ?_OptionsStorage@?1??__local_stdio_printf_options@@9@4_KA ; `__local_stdio_printf_options'::`2'::_OptionsStorage

; 93   :     }

  00005	c3		 ret	 0
___local_stdio_printf_options ENDP
_TEXT	ENDS
; Function compile flags: /Ogtp
; File C:\IAGOS\server\v18\Source\Source\_Database\DbManagerLog.cpp
;	COMDAT ?__empty_global_delete@@YAXPAXI@Z
_TEXT	SEGMENT
___formal$ = 8						; size = 4
___formal$ = 12						; size = 4
?__empty_global_delete@@YAXPAXI@Z PROC			; __empty_global_delete, COMDAT

  00000	c2 00 00	 ret	 0
?__empty_global_delete@@YAXPAXI@Z ENDP			; __empty_global_delete
_TEXT	ENDS
; Function compile flags: /Ogtp
; File C:\IAGOS\server\v18\Source\Source\_Database\DbManagerLog.cpp
;	COMDAT ?__empty_global_delete@@YAXPAX@Z
_TEXT	SEGMENT
___formal$ = 8						; size = 4
?__empty_global_delete@@YAXPAX@Z PROC			; __empty_global_delete, COMDAT

  00000	c2 00 00	 ret	 0
?__empty_global_delete@@YAXPAX@Z ENDP			; __empty_global_delete
_TEXT	ENDS
END
