; Listing generated by Microsoft (R) Optimizing Compiler Version 19.44.35225.0 

	TITLE	C:\IAGOS\server\v18\Source\Output\DatabaseServer\Release\DbManager.obj
	.686P
	.XMM
	include listing.inc
	.model	flat

INCLUDELIB LIBCMT
INCLUDELIB OLDNAMES

PUBLIC	?s_hHandle@@3PAXA				; s_hHandle
_BSS	SEGMENT
?s_hHandle@@3PAXA DD 01H DUP (?)			; s_hHandle
_BSS	ENDS
PUBLIC	??_H@YGXPAXIIP6EPAX0@Z@Z			; `vector constructor iterator'
PUBLIC	?__empty_global_delete@@YAXPAX@Z		; __empty_global_delete
PUBLIC	?__empty_global_delete@@YAXPAXI@Z		; __empty_global_delete
PUBLIC	___local_stdio_printf_options
PUBLIC	_fprintf
PUBLIC	_sprintf
PUBLIC	?AfxCrtErrorCheck@@YAHH@Z			; AfxCrtErrorCheck
PUBLIC	?AtlThrowImpl@ATL@@YGXJ@Z			; ATL::AtlThrowImpl
PUBLIC	??1?$CSimpleStringT@D$0A@@ATL@@QAE@XZ		; ATL::CSimpleStringT<char,0>::~CSimpleStringT<char,0>
PUBLIC	?SetString@?$CSimpleStringT@D$0A@@ATL@@QAEXPBDH@Z ; ATL::CSimpleStringT<char,0>::SetString
PUBLIC	?ThrowMemoryException@?$CSimpleStringT@D$0A@@ATL@@KAXXZ ; ATL::CSimpleStringT<char,0>::ThrowMemoryException
PUBLIC	?Fork@?$CSimpleStringT@D$0A@@ATL@@AAEXH@Z	; ATL::CSimpleStringT<char,0>::Fork
PUBLIC	?PrepareWrite2@?$CSimpleStringT@D$0A@@ATL@@AAEXH@Z ; ATL::CSimpleStringT<char,0>::PrepareWrite2
PUBLIC	?Reallocate@?$CSimpleStringT@D$0A@@ATL@@AAEXH@Z	; ATL::CSimpleStringT<char,0>::Reallocate
PUBLIC	??1?$CStringT@DV?$StrTraitMFC@DV?$ChTraitsCRT@D@ATL@@@@@ATL@@QAE@XZ ; ATL::CStringT<char,StrTraitMFC<char,ATL::ChTraitsCRT<char> > >::~CStringT<char,StrTraitMFC<char,ATL::ChTraitsCRT<char> > >
PUBLIC	?Replace@?$CStringT@DV?$StrTraitMFC@DV?$ChTraitsCRT@D@ATL@@@@@ATL@@QAEHPBD0@Z ; ATL::CStringT<char,StrTraitMFC<char,ATL::ChTraitsCRT<char> > >::Replace
PUBLIC	?LoadStringA@?$CStringT@DV?$StrTraitMFC@DV?$ChTraitsCRT@D@ATL@@@@@ATL@@QAEHI@Z ; ATL::CStringT<char,StrTraitMFC<char,ATL::ChTraitsCRT<char> > >::LoadStringA
PUBLIC	??0CTime@ATL@@QAE@HHHHHHH@Z			; ATL::CTime::CTime
PUBLIC	?Format@CTime@ATL@@QBE?AV?$CStringT@DV?$StrTraitMFC@DV?$ChTraitsCRT@D@ATL@@@@@2@PBD@Z ; ATL::CTime::Format
PUBLIC	??0exception@std@@QAE@ABV01@@Z			; std::exception::exception
PUBLIC	??1exception@std@@UAE@XZ			; std::exception::~exception
PUBLIC	?what@exception@std@@UBEPBDXZ			; std::exception::what
PUBLIC	??_Gexception@std@@UAEPAXI@Z			; std::exception::`scalar deleting destructor'
PUBLIC	??0bad_alloc@std@@QAE@ABV01@@Z			; std::bad_alloc::bad_alloc
PUBLIC	??_Gbad_alloc@std@@UAEPAXI@Z			; std::bad_alloc::`scalar deleting destructor'
PUBLIC	??0bad_array_new_length@std@@QAE@XZ		; std::bad_array_new_length::bad_array_new_length
PUBLIC	??1bad_array_new_length@std@@UAE@XZ		; std::bad_array_new_length::~bad_array_new_length
PUBLIC	??0bad_array_new_length@std@@QAE@ABV01@@Z	; std::bad_array_new_length::bad_array_new_length
PUBLIC	??_Gbad_array_new_length@std@@UAEPAXI@Z		; std::bad_array_new_length::`scalar deleting destructor'
PUBLIC	?_Throw_bad_array_new_length@std@@YAXXZ		; std::_Throw_bad_array_new_length
PUBLIC	?_Xlen_string@std@@YAXXZ			; std::_Xlen_string
PUBLIC	??0?$basic_string@DU?$char_traits@D@std@@V?$allocator@D@2@@std@@QAE@QBD@Z ; std::basic_string<char,std::char_traits<char>,std::allocator<char> >::basic_string<char,std::char_traits<char>,std::allocator<char> >
PUBLIC	??1?$basic_string@DU?$char_traits@D@std@@V?$allocator@D@2@@std@@QAE@XZ ; std::basic_string<char,std::char_traits<char>,std::allocator<char> >::~basic_string<char,std::char_traits<char>,std::allocator<char> >
PUBLIC	?_Throw_tree_length_error@std@@YAXXZ		; std::_Throw_tree_length_error
PUBLIC	??1CMclCritSec@@UAE@XZ				; CMclCritSec::~CMclCritSec
PUBLIC	??_GCMclCritSec@@UAEPAXI@Z			; CMclCritSec::`scalar deleting destructor'
PUBLIC	??1CMclAutoLock@@QAE@XZ				; CMclAutoLock::~CMclAutoLock
PUBLIC	?GetIntFromStr@@YAHPADPAH@Z			; GetIntFromStr
PUBLIC	?GetIntPaFromStr@@YAHPADPAH@Z			; GetIntPaFromStr
PUBLIC	??0_LogItemInfo@@QAE@XZ				; _LogItemInfo::_LogItemInfo
PUBLIC	??0D3DXVECTOR3@@QAE@XZ				; D3DXVECTOR3::D3DXVECTOR3
PUBLIC	??1?$vector@KV?$allocator@K@std@@@std@@QAE@XZ	; std::vector<unsigned long,std::allocator<unsigned long> >::~vector<unsigned long,std::allocator<unsigned long> >
PUBLIC	?_Change_array@?$vector@KV?$allocator@K@std@@@std@@AAEXQAKII@Z ; std::vector<unsigned long,std::allocator<unsigned long> >::_Change_array
PUBLIC	?_Tidy@?$vector@KV?$allocator@K@std@@@std@@AAEXXZ ; std::vector<unsigned long,std::allocator<unsigned long> >::_Tidy
PUBLIC	?_Xlength@?$vector@KV?$allocator@K@std@@@std@@CAXXZ ; std::vector<unsigned long,std::allocator<unsigned long> >::_Xlength
PUBLIC	??1__GC1TO1TENDER@CGuildCombat1to1Mng@@QAE@XZ	; CGuildCombat1to1Mng::__GC1TO1TENDER::~__GC1TO1TENDER
PUBLIC	?GetItemProp@CProject@@QAEPAUItemProp@@PBD@Z	; CProject::GetItemProp
PUBLIC	??1?$set@V?$basic_string@DU?$char_traits@D@std@@V?$allocator@D@2@@std@@U?$less@V?$basic_string@DU?$char_traits@D@std@@V?$allocator@D@2@@std@@@2@V?$allocator@V?$basic_string@DU?$char_traits@D@std@@V?$allocator@D@2@@std@@@2@@std@@QAE@XZ ; std::set<std::basic_string<char,std::char_traits<char>,std::allocator<char> >,std::less<std::basic_string<char,std::char_traits<char>,std::allocator<char> > >,std::allocator<std::basic_string<char,std::char_traits<char>,std::allocator<char> > > >::~set<std::basic_string<char,std::char_traits<char>,std::allocator<char> >,std::less<std::basic_string<char,std::char_traits<char>,std::allocator<char> > >,std::allocator<std::basic_string<char,std::char_traits<char>,std::allocator<char> > > >
PUBLIC	??1?$list@PAXV?$allocator@PAX@std@@@std@@QAE@XZ	; std::list<void *,std::allocator<void *> >::~list<void *,std::allocator<void *> >
PUBLIC	?push_back@?$list@PAXV?$allocator@PAX@std@@@std@@QAEXABQAX@Z ; std::list<void *,std::allocator<void *> >::push_back
PUBLIC	??0?$CItemContainer@VCItemElem@@@@QAE@XZ	; CItemContainer<CItemElem>::CItemContainer<CItemElem>
PUBLIC	??1?$CItemContainer@VCItemElem@@@@UAE@XZ	; CItemContainer<CItemElem>::~CItemContainer<CItemElem>
PUBLIC	?SetItemContainer@?$CItemContainer@VCItemElem@@@@QAEXKKK@Z ; CItemContainer<CItemElem>::SetItemContainer
PUBLIC	?Add@?$CItemContainer@VCItemElem@@@@QAEHPAVCItemElem@@PAEPAF1@Z ; CItemContainer<CItemElem>::Add
PUBLIC	?IsFull@?$CItemContainer@VCItemElem@@@@QAEHPAUItemProp@@FH@Z ; CItemContainer<CItemElem>::IsFull
PUBLIC	?GetAt@?$CItemContainer@VCItemElem@@@@QAEPAVCItemElem@@K@Z ; CItemContainer<CItemElem>::GetAt
PUBLIC	?GetAtId@?$CItemContainer@VCItemElem@@@@QAEPAVCItemElem@@K@Z ; CItemContainer<CItemElem>::GetAtId
PUBLIC	?RemoveAtId@?$CItemContainer@VCItemElem@@@@QAEXK@Z ; CItemContainer<CItemElem>::RemoveAtId
PUBLIC	?GetEquip@?$CItemContainer@VCItemElem@@@@QAEPAVCItemElem@@K@Z ; CItemContainer<CItemElem>::GetEquip
PUBLIC	?Serialize@?$CItemContainer@VCItemElem@@@@QAEXAAVCAr@@@Z ; CItemContainer<CItemElem>::Serialize
PUBLIC	??_G?$CItemContainer@VCItemElem@@@@UAEPAXI@Z	; CItemContainer<CItemElem>::`scalar deleting destructor'
PUBLIC	??2CMover@@SAPAXI@Z				; CMover::operator new
PUBLIC	??3CMover@@SAXPAX@Z				; CMover::operator delete
PUBLIC	??1CAccountCacheMgr@@QAE@XZ			; CAccountCacheMgr::~CAccountCacheMgr
PUBLIC	??0MAIL_QUERYINFO@@QAE@PBD@Z			; MAIL_QUERYINFO::MAIL_QUERYINFO
PUBLIC	??0GUILDLOG_QUERYINFO@@QAE@PBD@Z		; GUILDLOG_QUERYINFO::GUILDLOG_QUERYINFO
PUBLIC	??0WAR_QUERYINFO@@QAE@PBD@Z			; WAR_QUERYINFO::WAR_QUERYINFO
PUBLIC	??0_PocketStruct@@QAE@XZ			; _PocketStruct::_PocketStruct
PUBLIC	??1__SendItemContents@CDbManager@@QAE@XZ	; CDbManager::__SendItemContents::~__SendItemContents
PUBLIC	??1?$map@HV?$basic_string@DU?$char_traits@D@std@@V?$allocator@D@2@@std@@U?$less@H@2@V?$allocator@U?$pair@$$CBHV?$basic_string@DU?$char_traits@D@std@@V?$allocator@D@2@@std@@@std@@@2@@std@@QAE@XZ ; std::map<int,std::basic_string<char,std::char_traits<char>,std::allocator<char> >,std::less<int>,std::allocator<std::pair<int const ,std::basic_string<char,std::char_traits<char>,std::allocator<char> > > > >::~map<int,std::basic_string<char,std::char_traits<char>,std::allocator<char> >,std::less<int>,std::allocator<std::pair<int const ,std::basic_string<char,std::char_traits<char>,std::allocator<char> > > > >
PUBLIC	?_Lrotate@?$_Tree_val@U?$_Tree_simple_types@U?$pair@$$CBKV?$basic_string@DU?$char_traits@D@std@@V?$allocator@D@2@@std@@@std@@@std@@@std@@QAEXPAU?$_Tree_node@U?$pair@$$CBKV?$basic_string@DU?$char_traits@D@std@@V?$allocator@D@2@@std@@@std@@PAX@2@@Z ; std::_Tree_val<std::_Tree_simple_types<std::pair<unsigned long const ,std::basic_string<char,std::char_traits<char>,std::allocator<char> > > > >::_Lrotate
PUBLIC	?_Rrotate@?$_Tree_val@U?$_Tree_simple_types@U?$pair@$$CBKV?$basic_string@DU?$char_traits@D@std@@V?$allocator@D@2@@std@@@std@@@std@@@std@@QAEXPAU?$_Tree_node@U?$pair@$$CBKV?$basic_string@DU?$char_traits@D@std@@V?$allocator@D@2@@std@@@std@@PAX@2@@Z ; std::_Tree_val<std::_Tree_simple_types<std::pair<unsigned long const ,std::basic_string<char,std::char_traits<char>,std::allocator<char> > > > >::_Rrotate
PUBLIC	?_Extract@?$_Tree_val@U?$_Tree_simple_types@U?$pair@$$CBKV?$basic_string@DU?$char_traits@D@std@@V?$allocator@D@2@@std@@@std@@@std@@@std@@QAEPAU?$_Tree_node@U?$pair@$$CBKV?$basic_string@DU?$char_traits@D@std@@V?$allocator@D@2@@std@@@std@@PAX@2@V?$_Tree_unchecked_const_iterator@V?$_Tree_val@U?$_Tree_simple_types@U?$pair@$$CBKV?$basic_string@DU?$char_traits@D@std@@V?$allocator@D@2@@std@@@std@@@std@@@std@@U_Iterator_base0@2@@2@@Z ; std::_Tree_val<std::_Tree_simple_types<std::pair<unsigned long const ,std::basic_string<char,std::char_traits<char>,std::allocator<char> > > > >::_Extract
PUBLIC	?_Insert_node@?$_Tree_val@U?$_Tree_simple_types@U?$pair@$$CBKV?$basic_string@DU?$char_traits@D@std@@V?$allocator@D@2@@std@@@std@@@std@@@std@@QAEPAU?$_Tree_node@U?$pair@$$CBKV?$basic_string@DU?$char_traits@D@std@@V?$allocator@D@2@@std@@@std@@PAX@2@U?$_Tree_id@PAU?$_Tree_node@U?$pair@$$CBKV?$basic_string@DU?$char_traits@D@std@@V?$allocator@D@2@@std@@@std@@PAX@std@@@2@QAU32@@Z ; std::_Tree_val<std::_Tree_simple_types<std::pair<unsigned long const ,std::basic_string<char,std::char_traits<char>,std::allocator<char> > > > >::_Insert_node
PUBLIC	??1?$map@KV?$basic_string@DU?$char_traits@D@std@@V?$allocator@D@2@@std@@U?$less@K@2@V?$allocator@U?$pair@$$CBKV?$basic_string@DU?$char_traits@D@std@@V?$allocator@D@2@@std@@@std@@@2@@std@@QAE@XZ ; std::map<unsigned long,std::basic_string<char,std::char_traits<char>,std::allocator<char> >,std::less<unsigned long>,std::allocator<std::pair<unsigned long const ,std::basic_string<char,std::char_traits<char>,std::allocator<char> > > > >::~map<unsigned long,std::basic_string<char,std::char_traits<char>,std::allocator<char> >,std::less<unsigned long>,std::allocator<std::pair<unsigned long const ,std::basic_string<char,std::char_traits<char>,std::allocator<char> > > > >
PUBLIC	??1?$_Tree@V?$_Tmap_traits@KHU?$less@K@std@@V?$allocator@U?$pair@$$CBKH@std@@@2@$0A@@std@@@std@@QAE@XZ ; std::_Tree<std::_Tmap_traits<unsigned long,int,std::less<unsigned long>,std::allocator<std::pair<unsigned long const ,int> >,0> >::~_Tree<std::_Tmap_traits<unsigned long,int,std::less<unsigned long>,std::allocator<std::pair<unsigned long const ,int> >,0> >
PUBLIC	?_Lrotate@?$_Tree_val@U?$_Tree_simple_types@U?$pair@$$CBKH@std@@@std@@@std@@QAEXPAU?$_Tree_node@U?$pair@$$CBKH@std@@PAX@2@@Z ; std::_Tree_val<std::_Tree_simple_types<std::pair<unsigned long const ,int> > >::_Lrotate
PUBLIC	?_Rrotate@?$_Tree_val@U?$_Tree_simple_types@U?$pair@$$CBKH@std@@@std@@@std@@QAEXPAU?$_Tree_node@U?$pair@$$CBKH@std@@PAX@2@@Z ; std::_Tree_val<std::_Tree_simple_types<std::pair<unsigned long const ,int> > >::_Rrotate
PUBLIC	?_Extract@?$_Tree_val@U?$_Tree_simple_types@U?$pair@$$CBKH@std@@@std@@@std@@QAEPAU?$_Tree_node@U?$pair@$$CBKH@std@@PAX@2@V?$_Tree_unchecked_const_iterator@V?$_Tree_val@U?$_Tree_simple_types@U?$pair@$$CBKH@std@@@std@@@std@@U_Iterator_base0@2@@2@@Z ; std::_Tree_val<std::_Tree_simple_types<std::pair<unsigned long const ,int> > >::_Extract
PUBLIC	?_Insert_node@?$_Tree_val@U?$_Tree_simple_types@U?$pair@$$CBKH@std@@@std@@@std@@QAEPAU?$_Tree_node@U?$pair@$$CBKH@std@@PAX@2@U?$_Tree_id@PAU?$_Tree_node@U?$pair@$$CBKH@std@@PAX@std@@@2@QAU32@@Z ; std::_Tree_val<std::_Tree_simple_types<std::pair<unsigned long const ,int> > >::_Insert_node
PUBLIC	??1?$map@KHU?$less@K@std@@V?$allocator@U?$pair@$$CBKH@std@@@2@@std@@QAE@XZ ; std::map<unsigned long,int,std::less<unsigned long>,std::allocator<std::pair<unsigned long const ,int> > >::~map<unsigned long,int,std::less<unsigned long>,std::allocator<std::pair<unsigned long const ,int> > >
PUBLIC	?AllocRequest@CDbManager@@QAEPAUtagDB_OVERLAPPED_PLUS@@XZ ; CDbManager::AllocRequest
PUBLIC	?FreeRequest@CDbManager@@QAEXPAUtagDB_OVERLAPPED_PLUS@@@Z ; CDbManager::FreeRequest
PUBLIC	?MakeRequest@CDbManager@@QAEXPAUtagDB_OVERLAPPED_PLUS@@PAEK@Z ; CDbManager::MakeRequest
PUBLIC	??1?$vector@U__GCRESULTVALUEGUILD@CDbManager@@V?$allocator@U__GCRESULTVALUEGUILD@CDbManager@@@std@@@std@@QAE@XZ ; std::vector<CDbManager::__GCRESULTVALUEGUILD,std::allocator<CDbManager::__GCRESULTVALUEGUILD> >::~vector<CDbManager::__GCRESULTVALUEGUILD,std::allocator<CDbManager::__GCRESULTVALUEGUILD> >
PUBLIC	?_Xlength@?$vector@U__GCRESULTVALUEGUILD@CDbManager@@V?$allocator@U__GCRESULTVALUEGUILD@CDbManager@@@std@@@std@@CAXXZ ; std::vector<CDbManager::__GCRESULTVALUEGUILD,std::allocator<CDbManager::__GCRESULTVALUEGUILD> >::_Xlength
PUBLIC	??1?$vector@U__GCRESULTVALUEPLAYER@CDbManager@@V?$allocator@U__GCRESULTVALUEPLAYER@CDbManager@@@std@@@std@@QAE@XZ ; std::vector<CDbManager::__GCRESULTVALUEPLAYER,std::allocator<CDbManager::__GCRESULTVALUEPLAYER> >::~vector<CDbManager::__GCRESULTVALUEPLAYER,std::allocator<CDbManager::__GCRESULTVALUEPLAYER> >
PUBLIC	?_Xlength@?$vector@U__GCRESULTVALUEPLAYER@CDbManager@@V?$allocator@U__GCRESULTVALUEPLAYER@CDbManager@@@std@@@std@@CAXXZ ; std::vector<CDbManager::__GCRESULTVALUEPLAYER,std::allocator<CDbManager::__GCRESULTVALUEPLAYER> >::_Xlength
PUBLIC	??1?$vector@U__GCPLAYERPOINT@CDbManager@@V?$allocator@U__GCPLAYERPOINT@CDbManager@@@std@@@std@@QAE@XZ ; std::vector<CDbManager::__GCPLAYERPOINT,std::allocator<CDbManager::__GCPLAYERPOINT> >::~vector<CDbManager::__GCPLAYERPOINT,std::allocator<CDbManager::__GCPLAYERPOINT> >
PUBLIC	?_Xlength@?$vector@U__GCPLAYERPOINT@CDbManager@@V?$allocator@U__GCPLAYERPOINT@CDbManager@@@std@@@std@@CAXXZ ; std::vector<CDbManager::__GCPLAYERPOINT,std::allocator<CDbManager::__GCPLAYERPOINT> >::_Xlength
PUBLIC	??1?$vector@U__GUILDCOMBATJOIN@CDbManager@@V?$allocator@U__GUILDCOMBATJOIN@CDbManager@@@std@@@std@@QAE@XZ ; std::vector<CDbManager::__GUILDCOMBATJOIN,std::allocator<CDbManager::__GUILDCOMBATJOIN> >::~vector<CDbManager::__GUILDCOMBATJOIN,std::allocator<CDbManager::__GUILDCOMBATJOIN> >
PUBLIC	?_Xlength@?$vector@U__GUILDCOMBATJOIN@CDbManager@@V?$allocator@U__GUILDCOMBATJOIN@CDbManager@@@std@@@std@@CAXXZ ; std::vector<CDbManager::__GUILDCOMBATJOIN,std::allocator<CDbManager::__GUILDCOMBATJOIN> >::_Xlength
PUBLIC	?GetInstance@CDbManager@@SAAAV1@XZ		; CDbManager::GetInstance
PUBLIC	??1CDbManager@@QAE@XZ				; CDbManager::~CDbManager
PUBLIC	?SendPlayerList@CDbManager@@QAEXPAVCQuery@@PAUtagDB_OVERLAPPED_PLUS@@@Z ; CDbManager::SendPlayerList
PUBLIC	?CreatePlayer@CDbManager@@QAEXPAVCQuery@@PAUtagDB_OVERLAPPED_PLUS@@@Z ; CDbManager::CreatePlayer
PUBLIC	?RemovePlayer@CDbManager@@QAEXPAVCQuery@@PAUtagDB_OVERLAPPED_PLUS@@@Z ; CDbManager::RemovePlayer
PUBLIC	?ChangeBankPass@CDbManager@@QAEXPAVCQuery@@PAUtagDB_OVERLAPPED_PLUS@@@Z ; CDbManager::ChangeBankPass
PUBLIC	?LoadPlayerData@CDbManager@@QAEHXZ		; CDbManager::LoadPlayerData
PUBLIC	?GetPartyName@CDbManager@@QAEHXZ		; CDbManager::GetPartyName
PUBLIC	?SerializeGuildCombat@CDbManager@@QAEXAAVCAr@@@Z ; CDbManager::SerializeGuildCombat
PUBLIC	?SerializeResultValue@CDbManager@@QAEXAAVCAr@@@Z ; CDbManager::SerializeResultValue
PUBLIC	?SerializePlayerPoint@CDbManager@@QAEXAAVCAr@@@Z ; CDbManager::SerializePlayerPoint
PUBLIC	?OpenGuildCombat@CDbManager@@QAEHXZ		; CDbManager::OpenGuildCombat
PUBLIC	?LoadPost@CDbManager@@QAEHXZ			; CDbManager::LoadPost
PUBLIC	?GetItemFromMail@CDbManager@@QAEXPAVCQuery@@PAVCItemElem@@@Z ; CDbManager::GetItemFromMail
PUBLIC	?RemoveMail@CDbManager@@QAEXAAV?$list@PAVCMail@@V?$allocator@PAVCMail@@@std@@@std@@@Z ; CDbManager::RemoveMail
PUBLIC	?QueryRemoveGuildBankTbl@CDbManager@@QAEHXZ	; CDbManager::QueryRemoveGuildBankTbl
PUBLIC	?DeleteRemoveGuildBankTbl@CDbManager@@QAEXPAVCQuery@@PAUtagDB_OVERLAPPED_PLUS@@@Z ; CDbManager::DeleteRemoveGuildBankTbl
PUBLIC	?call_uspLoggingQuest@CDbManager@@QAEXPAVCQuery@@PAUtagDB_OVERLAPPED_PLUS@@@Z ; CDbManager::call_uspLoggingQuest
PUBLIC	?QueryGetMailRealTime@CDbManager@@QAEHPAVCQuery@@@Z ; CDbManager::QueryGetMailRealTime
PUBLIC	?LoadGC1to1TenderGuild@CDbManager@@QAEXPAVCQuery@@PAUtagDB_OVERLAPPED_PLUS@@K@Z ; CDbManager::LoadGC1to1TenderGuild
PUBLIC	?GC1to1State@CDbManager@@QAEXPAVCQuery@@PAUtagDB_OVERLAPPED_PLUS@@@Z ; CDbManager::GC1to1State
PUBLIC	?GC1to1Tender@CDbManager@@QAEXPAVCQuery@@PAUtagDB_OVERLAPPED_PLUS@@@Z ; CDbManager::GC1to1Tender
PUBLIC	?GC1to1LineUp@CDbManager@@QAEXPAVCQuery@@PAUtagDB_OVERLAPPED_PLUS@@@Z ; CDbManager::GC1to1LineUp
PUBLIC	?GC1to1WarPerson@CDbManager@@QAEXPAVCQuery@@PAUtagDB_OVERLAPPED_PLUS@@@Z ; CDbManager::GC1to1WarPerson
PUBLIC	?GC1to1WarGuild@CDbManager@@QAEXPAVCQuery@@PAUtagDB_OVERLAPPED_PLUS@@@Z ; CDbManager::GC1to1WarGuild
PUBLIC	?GuildBankLogView@CDbManager@@QAEXPAVCQuery@@PAUtagDB_OVERLAPPED_PLUS@@@Z ; CDbManager::GuildBankLogView
PUBLIC	?SealChar@CDbManager@@QAEXPAVCQuery@@PAUtagDB_OVERLAPPED_PLUS@@@Z ; CDbManager::SealChar
PUBLIC	?SealCharConm@CDbManager@@QAEXPAVCQuery@@PAUtagDB_OVERLAPPED_PLUS@@@Z ; CDbManager::SealCharConm
PUBLIC	?SealCharGet@CDbManager@@QAEXPAVCQuery@@PAUtagDB_OVERLAPPED_PLUS@@@Z ; CDbManager::SealCharGet
PUBLIC	?SealCharSet@CDbManager@@QAEXPAVCQuery@@PAUtagDB_OVERLAPPED_PLUS@@@Z ; CDbManager::SealCharSet
PUBLIC	?CalluspPetLog@CDbManager@@QAEXPAVCQuery@@PAUtagDB_OVERLAPPED_PLUS@@@Z ; CDbManager::CalluspPetLog
PUBLIC	?GetMyPartyName@CDbManager@@QAEHPAVCQuery@@PAUtagDB_OVERLAPPED_PLUS@@KPAD@Z ; CDbManager::GetMyPartyName
PUBLIC	?BankToItemSendTbl@CDbManager@@QAEHPBD@Z	; CDbManager::BankToItemSendTbl
PUBLIC	?InventoryToItemSendTbl@CDbManager@@QAEHPBD@Z	; CDbManager::InventoryToItemSendTbl
PUBLIC	?ItemRemove0203@CDbManager@@QAEHPBD@Z		; CDbManager::ItemRemove0203
PUBLIC	?RemoveInvalidItem@CDbManager@@QAEHXZ		; CDbManager::RemoveInvalidItem
PUBLIC	?Conv@CDbManager@@QAEHPBD@Z			; CDbManager::Conv
PUBLIC	?ConvInventory@CDbManager@@QAEHAAV?$map@KU_CONV_RESULT_ITEM@@U?$less@K@std@@V?$allocator@U?$pair@$$CBKU_CONV_RESULT_ITEM@@@std@@@3@@std@@@Z ; CDbManager::ConvInventory
PUBLIC	?ConvBank@CDbManager@@QAEHAAV?$map@KU_CONV_RESULT_ITEM@@U?$less@K@std@@V?$allocator@U?$pair@$$CBKU_CONV_RESULT_ITEM@@@std@@@3@@std@@@Z ; CDbManager::ConvBank
PUBLIC	?ConvGuildBank@CDbManager@@QAEHAAV?$map@KU_CONV_RESULT_ITEM@@U?$less@K@std@@V?$allocator@U?$pair@$$CBKU_CONV_RESULT_ITEM@@@std@@@3@@std@@@Z ; CDbManager::ConvGuildBank
PUBLIC	?CreateCharQuery@CDbManager@@QAEPAVCQuery@@XZ	; CDbManager::CreateCharQuery
PUBLIC	?ConvertPocket@CDbManager@@QAEHAAV?$map@KU_CONV_RESULT_ITEM@@U?$less@K@std@@V?$allocator@U?$pair@$$CBKU_CONV_RESULT_ITEM@@@std@@@3@@std@@@Z ; CDbManager::ConvertPocket
PUBLIC	?RestorePet@CDbManager@@QAEHPBD@Z		; CDbManager::RestorePet
PUBLIC	?RestorePetInventory@CDbManager@@QAEHAAV?$map@KHU?$less@K@std@@V?$allocator@U?$pair@$$CBKH@std@@@2@@std@@@Z ; CDbManager::RestorePetInventory
PUBLIC	?RestorePetBank@CDbManager@@QAEHAAV?$map@KHU?$less@K@std@@V?$allocator@U?$pair@$$CBKH@std@@@2@@std@@@Z ; CDbManager::RestorePetBank
PUBLIC	?RestorePetGuildBank@CDbManager@@QAEHAAV?$map@KHU?$less@K@std@@V?$allocator@U?$pair@$$CBKH@std@@@2@@std@@@Z ; CDbManager::RestorePetGuildBank
PUBLIC	?CreateGuild@CDbManager@@QAEXPAVCQuery@@0PAUtagDB_OVERLAPPED_PLUS@@@Z ; CDbManager::CreateGuild
PUBLIC	?DestroyGuild@CDbManager@@QAEXPAVCQuery@@0PAUtagDB_OVERLAPPED_PLUS@@@Z ; CDbManager::DestroyGuild
PUBLIC	?AddGuildMember@CDbManager@@QAEXPAVCQuery@@0PAUtagDB_OVERLAPPED_PLUS@@@Z ; CDbManager::AddGuildMember
PUBLIC	?RemoveGuildMember@CDbManager@@QAEXPAVCQuery@@0PAUtagDB_OVERLAPPED_PLUS@@@Z ; CDbManager::RemoveGuildMember
PUBLIC	?OpenGuild@CDbManager@@QAEXXZ			; CDbManager::OpenGuild
PUBLIC	?UpdateGuildMemberLv@CDbManager@@QAEXPAVCQuery@@PAUtagDB_OVERLAPPED_PLUS@@@Z ; CDbManager::UpdateGuildMemberLv
PUBLIC	?UpdateGuildClass@CDbManager@@QAEXPAVCQuery@@PAUtagDB_OVERLAPPED_PLUS@@@Z ; CDbManager::UpdateGuildClass
PUBLIC	?UpdateGuildNickName@CDbManager@@QAEXPAVCQuery@@PAUtagDB_OVERLAPPED_PLUS@@@Z ; CDbManager::UpdateGuildNickName
PUBLIC	?UpdateGuildMaster@CDbManager@@QAEXPAVCQuery@@PAUtagDB_OVERLAPPED_PLUS@@@Z ; CDbManager::UpdateGuildMaster
PUBLIC	?UpdateGuildLogo@CDbManager@@QAEXPAVCQuery@@PAUtagDB_OVERLAPPED_PLUS@@@Z ; CDbManager::UpdateGuildLogo
PUBLIC	?UpdateGuildContribution@CDbManager@@QAEXPAVCQuery@@0PAUtagDB_OVERLAPPED_PLUS@@@Z ; CDbManager::UpdateGuildContribution
PUBLIC	?UpdateGuildNotice@CDbManager@@QAEXPAVCQuery@@PAUtagDB_OVERLAPPED_PLUS@@@Z ; CDbManager::UpdateGuildNotice
PUBLIC	?UpdateGuildAuthority@CDbManager@@QAEXPAVCQuery@@PAUtagDB_OVERLAPPED_PLUS@@@Z ; CDbManager::UpdateGuildAuthority
PUBLIC	?UpdateGuildPenya@CDbManager@@QAEXPAVCQuery@@PAUtagDB_OVERLAPPED_PLUS@@@Z ; CDbManager::UpdateGuildPenya
PUBLIC	?UpdateGuildRealPay@CDbManager@@QAEXPAVCQuery@@0PAUtagDB_OVERLAPPED_PLUS@@@Z ; CDbManager::UpdateGuildRealPay
PUBLIC	?UpdateGuildSetName@CDbManager@@QAEXPAVCQuery@@PAUtagDB_OVERLAPPED_PLUS@@@Z ; CDbManager::UpdateGuildSetName
PUBLIC	?UpdateGuildBankUpdate@CDbManager@@QAEXPAVCQuery@@0PAUtagDB_OVERLAPPED_PLUS@@@Z ; CDbManager::UpdateGuildBankUpdate
PUBLIC	?OpenQueryGuildBank@CDbManager@@QAEXPAVCQuery@@PAUtagDB_OVERLAPPED_PLUS@@@Z ; CDbManager::OpenQueryGuildBank
PUBLIC	?AddGuildVote@CDbManager@@QAEXPAVCQuery@@PAUtagDB_OVERLAPPED_PLUS@@@Z ; CDbManager::AddGuildVote
PUBLIC	?RemoveGuildVote@CDbManager@@QAEXPAVCQuery@@PAUtagDB_OVERLAPPED_PLUS@@@Z ; CDbManager::RemoveGuildVote
PUBLIC	?CloseGuildVote@CDbManager@@QAEXPAVCQuery@@PAUtagDB_OVERLAPPED_PLUS@@@Z ; CDbManager::CloseGuildVote
PUBLIC	?CastGuildVote@CDbManager@@QAEXPAVCQuery@@PAUtagDB_OVERLAPPED_PLUS@@@Z ; CDbManager::CastGuildVote
PUBLIC	?AcptWar@CDbManager@@QAEXPAVCQuery@@PAUtagDB_OVERLAPPED_PLUS@@@Z ; CDbManager::AcptWar
PUBLIC	?WarEnd@CDbManager@@QAEXPAVCQuery@@0PAUtagDB_OVERLAPPED_PLUS@@@Z ; CDbManager::WarEnd
PUBLIC	?Surrender@CDbManager@@QAEXPAVCQuery@@PAUtagDB_OVERLAPPED_PLUS@@@Z ; CDbManager::Surrender
PUBLIC	?WarDead@CDbManager@@QAEXPAVCQuery@@PAUtagDB_OVERLAPPED_PLUS@@@Z ; CDbManager::WarDead
PUBLIC	?WarMasterAbsent@CDbManager@@QAEXPAVCQuery@@PAUtagDB_OVERLAPPED_PLUS@@@Z ; CDbManager::WarMasterAbsent
PUBLIC	?AddPartyName@CDbManager@@QAEXPAVCQuery@@PAUtagDB_OVERLAPPED_PLUS@@@Z ; CDbManager::AddPartyName
PUBLIC	?GetTradeNo@CDbManager@@QAEHXZ			; CDbManager::GetTradeNo
PUBLIC	?call_uspXXXMultiServer@CDbManager@@QAEXPAVCQuery@@PAUtagDB_OVERLAPPED_PLUS@@@Z ; CDbManager::call_uspXXXMultiServer
PUBLIC	?CreateDbWorkers@CDbManager@@QAEHXZ		; CDbManager::CreateDbWorkers
PUBLIC	?CloseDbWorkers@CDbManager@@QAEXXZ		; CDbManager::CloseDbWorkers
PUBLIC	?GetThread@CDbManager@@QAEXXZ			; CDbManager::GetThread
PUBLIC	?PutThread@CDbManager@@QAEXXZ			; CDbManager::PutThread
PUBLIC	?SPThread@CDbManager@@QAEXXZ			; CDbManager::SPThread
PUBLIC	?UpdateThread@CDbManager@@QAEXXZ		; CDbManager::UpdateThread
PUBLIC	?GuildThread@CDbManager@@QAEXXZ			; CDbManager::GuildThread
PUBLIC	?_GetThread@CDbManager@@SAIPAX@Z		; CDbManager::_GetThread
PUBLIC	?_PutThread@CDbManager@@SAIPAX@Z		; CDbManager::_PutThread
PUBLIC	?_SPThread@CDbManager@@SAIPAX@Z			; CDbManager::_SPThread
PUBLIC	?_UpdateThread@CDbManager@@SAIPAX@Z		; CDbManager::_UpdateThread
PUBLIC	?_GuildThread@CDbManager@@SAIPAX@Z		; CDbManager::_GuildThread
PUBLIC	?_BackSystem@CDbManager@@SAIPAX@Z		; CDbManager::_BackSystem
PUBLIC	?_ItemUpdateThread@CDbManager@@SAIPAX@Z		; CDbManager::_ItemUpdateThread
PUBLIC	?Clear@CDbManager@@QAEXXZ			; CDbManager::Clear
PUBLIC	?DBQryCharacter@CDbManager@@QAEXPAD0KH00HKKMMM0KKKKKMKMHHHKKH0HHHHH_J1000KHMMMHHHHH0DKHHH1HKKH0000000000000H000KHH00K00000KMMMHKK1J00KHHHHHHK0@Z ; CDbManager::DBQryCharacter
PUBLIC	?DBQryGuild@CDbManager@@QAEXPADABUGUILD_QUERYINFO@@@Z ; CDbManager::DBQryGuild
PUBLIC	?DBQryVote@CDbManager@@QAEXPADABUVOTE_QUERYINFO@@@Z ; CDbManager::DBQryVote
PUBLIC	?DBQryGuildLog@CDbManager@@QAEXPADABUGUILDLOG_QUERYINFO@@@Z ; CDbManager::DBQryGuildLog
PUBLIC	?DBQryWar@CDbManager@@QAEXPADABUWAR_QUERYINFO@@@Z ; CDbManager::DBQryWar
PUBLIC	?OpenWanted@CDbManager@@QAEHAAVCAr@@@Z		; CDbManager::OpenWanted
PUBLIC	?MakeQueryAddMail@CDbManager@@SAXPADPAVCMail@@K@Z ; CDbManager::MakeQueryAddMail
PUBLIC	??0CDbManager@@AAE@XZ				; CDbManager::CDbManager
PUBLIC	?LoadMessenger@CDbManager@@AAEXPAVCMover@@PAVCQuery@@@Z ; CDbManager::LoadMessenger
PUBLIC	?AddMessenger@CDbManager@@AAEXPAVCQuery@@PAUtagDB_OVERLAPPED_PLUS@@@Z ; CDbManager::AddMessenger
PUBLIC	?DeleteMessenger@CDbManager@@AAEXPAVCQuery@@PAUtagDB_OVERLAPPED_PLUS@@@Z ; CDbManager::DeleteMessenger
PUBLIC	?UpdateMessenger@CDbManager@@AAEXPAVCQuery@@PAUtagDB_OVERLAPPED_PLUS@@@Z ; CDbManager::UpdateMessenger
PUBLIC	?SelectTag@CDbManager@@AAEHPAVCQuery@@PAUtagDB_OVERLAPPED_PLUS@@KPAUTAG_ENTRY@@@Z ; CDbManager::SelectTag
PUBLIC	?WriteTag@CDbManager@@AAEXAAVCAr@@HPBUTAG_ENTRY@@@Z ; CDbManager::WriteTag
PUBLIC	?InsertTag@CDbManager@@AAEXPAVCQuery@@PAUtagDB_OVERLAPPED_PLUS@@@Z ; CDbManager::InsertTag
PUBLIC	?LogPlayConnect@CDbManager@@AAEXPAVCQuery@@PAUtagDB_OVERLAPPED_PLUS@@@Z ; CDbManager::LogPlayConnect
PUBLIC	?SetPlayerName@CDbManager@@AAEXPAVCQuery@@0PAUtagDB_OVERLAPPED_PLUS@@@Z ; CDbManager::SetPlayerName
PUBLIC	?SnoopGuild@CDbManager@@AAEXPAVCQuery@@PAUtagDB_OVERLAPPED_PLUS@@@Z ; CDbManager::SnoopGuild
PUBLIC	?PutExpLog@CDbManager@@AAEXPAVCQuery@@PAVCMover@@D@Z ; CDbManager::PutExpLog
PUBLIC	?QueryGuildQuest@CDbManager@@AAEXPAVCQuery@@PAUtagDB_OVERLAPPED_PLUS@@@Z ; CDbManager::QueryGuildQuest
PUBLIC	?InsertGuildQuest@CDbManager@@AAEXPAVCQuery@@PAUtagDB_OVERLAPPED_PLUS@@@Z ; CDbManager::InsertGuildQuest
PUBLIC	?UpdateGuildQuest@CDbManager@@AAEXPAVCQuery@@PAUtagDB_OVERLAPPED_PLUS@@@Z ; CDbManager::UpdateGuildQuest
PUBLIC	?SendItemtoCharacter@CDbManager@@AAEHHPAVCMover@@PAVCQuery@@11PAUtagDB_OVERLAPPED_PLUS@@@Z ; CDbManager::SendItemtoCharacter
PUBLIC	?RemoveItemtoCharacter@CDbManager@@AAEHPAVCMover@@PAVCQuery@@11PAUtagDB_OVERLAPPED_PLUS@@@Z ; CDbManager::RemoveItemtoCharacter
PUBLIC	?SchoolReport@CDbManager@@AAEXPAVCQuery@@PAUtagDB_OVERLAPPED_PLUS@@@Z ; CDbManager::SchoolReport
PUBLIC	?GetSendItem@CDbManager@@AAEHPAVCQuery@@PAU__SendItemContents@1@@Z ; CDbManager::GetSendItem
PUBLIC	?SendItem@CDbManager@@AAEKPAVCQuery@@PADPAVCMover@@AAU__SendItemContents@1@@Z ; CDbManager::SendItem
PUBLIC	?SendPenya@CDbManager@@AAEHPAVCQuery@@PADPAVCMover@@HH@Z ; CDbManager::SendPenya
PUBLIC	?SendItemDeleteQuery@CDbManager@@AAEHPAVCQuery@@PADH@Z ; CDbManager::SendItemDeleteQuery
PUBLIC	?ItemLogQuery@CDbManager@@AAEHPAVCQuery@@PADABU_LogItemInfo@@KH1@Z ; CDbManager::ItemLogQuery
PUBLIC	?RemoveItemDeleteQuery@CDbManager@@AAEHPAVCQuery@@PADH@Z ; CDbManager::RemoveItemDeleteQuery
PUBLIC	?RecommendEve@CDbManager@@AAEXPAVCQuery@@PAUtagDB_OVERLAPPED_PLUS@@@Z ; CDbManager::RecommendEve
PUBLIC	?AddMail@CDbManager@@AAEXPAVCQuery@@PAUtagDB_OVERLAPPED_PLUS@@@Z ; CDbManager::AddMail
PUBLIC	?RemoveMail@CDbManager@@AAEXPAVCQuery@@PAUtagDB_OVERLAPPED_PLUS@@@Z ; CDbManager::RemoveMail
PUBLIC	?RemoveMailItem@CDbManager@@AAEXPAVCQuery@@PAUtagDB_OVERLAPPED_PLUS@@@Z ; CDbManager::RemoveMailItem
PUBLIC	?RemoveMailGold@CDbManager@@AAEXPAVCQuery@@PAUtagDB_OVERLAPPED_PLUS@@@Z ; CDbManager::RemoveMailGold
PUBLIC	?ReadMail@CDbManager@@AAEXPAVCQuery@@PAUtagDB_OVERLAPPED_PLUS@@@Z ; CDbManager::ReadMail
PUBLIC	?DbQryMail@CDbManager@@AAEXPADABUMAIL_QUERYINFO@@@Z ; CDbManager::DbQryMail
PUBLIC	?OnWantedQuery@CDbManager@@AAEHPAVCQuery@@AAUWANTED_QUERYINFO@@@Z ; CDbManager::OnWantedQuery
PUBLIC	?SerializeWanted@CDbManager@@AAEXPAVCQuery@@AAVCAr@@@Z ; CDbManager::SerializeWanted
PUBLIC	?WantedOperation@CDbManager@@AAEXPAVCQuery@@PAUtagDB_OVERLAPPED_PLUS@@@Z ; CDbManager::WantedOperation
PUBLIC	?CanJoin@CDbManager@@AAEHPBDPAUACCOUNT_CACHE@@@Z ; CDbManager::CanJoin
PUBLIC	?StartGuildCombat@CDbManager@@AAEXPAVCQuery@@PAUtagDB_OVERLAPPED_PLUS@@@Z ; CDbManager::StartGuildCombat
PUBLIC	?InGuildCombat@CDbManager@@AAEXPAVCQuery@@PAUtagDB_OVERLAPPED_PLUS@@@Z ; CDbManager::InGuildCombat
PUBLIC	?OutGuildCombat@CDbManager@@AAEXPAVCQuery@@PAUtagDB_OVERLAPPED_PLUS@@@Z ; CDbManager::OutGuildCombat
PUBLIC	?ResultGuildCombat@CDbManager@@AAEXPAVCQuery@@PAUtagDB_OVERLAPPED_PLUS@@@Z ; CDbManager::ResultGuildCombat
PUBLIC	?GetPenyaGuildGC@CDbManager@@AAEXPAVCQuery@@PAUtagDB_OVERLAPPED_PLUS@@@Z ; CDbManager::GetPenyaGuildGC
PUBLIC	?GetPenyaPlayerGC@CDbManager@@AAEXPAVCQuery@@PAUtagDB_OVERLAPPED_PLUS@@@Z ; CDbManager::GetPenyaPlayerGC
PUBLIC	?ContinueGC@CDbManager@@AAEXPAVCQuery@@PAUtagDB_OVERLAPPED_PLUS@@@Z ; CDbManager::ContinueGC
PUBLIC	?SetStrDBFormat@CDbManager@@AAEXPADPBD@Z	; CDbManager::SetStrDBFormat
PUBLIC	?LoginProtectCert@CDbManager@@AAEXPAVCQuery@@PAUtagDB_OVERLAPPED_PLUS@@@Z ; CDbManager::LoginProtectCert
PUBLIC	??$?MDU?$char_traits@D@std@@V?$allocator@D@1@@std@@YA_NABV?$basic_string@DU?$char_traits@D@std@@V?$allocator@D@2@@0@0@Z ; std::operator<<char,std::char_traits<char>,std::allocator<char> >
PUBLIC	??1?$_Alloc_construct_ptr@V?$allocator@U?$_List_node@PAXPAX@std@@@std@@@std@@QAE@XZ ; std::_Alloc_construct_ptr<std::allocator<std::_List_node<void *,void *> > >::~_Alloc_construct_ptr<std::allocator<std::_List_node<void *,void *> > >
PUBLIC	??$_Erase_tree@V?$allocator@U?$_Tree_node@U?$pair@$$CBKU_Friend@@@std@@PAX@std@@@std@@@?$_Tree_val@U?$_Tree_simple_types@U?$pair@$$CBKU_Friend@@@std@@@std@@@std@@QAEXAAV?$allocator@U?$_Tree_node@U?$pair@$$CBKU_Friend@@@std@@PAX@std@@@1@PAU?$_Tree_node@U?$pair@$$CBKU_Friend@@@std@@PAX@1@@Z ; std::_Tree_val<std::_Tree_simple_types<std::pair<unsigned long const ,_Friend> > >::_Erase_tree<std::allocator<std::_Tree_node<std::pair<unsigned long const ,_Friend>,void *> > >
PUBLIC	??$_Allocate_manually_vector_aligned@U_Default_allocate_traits@std@@@std@@YAPAXI@Z ; std::_Allocate_manually_vector_aligned<std::_Default_allocate_traits>
PUBLIC	??0_GUILDQUEST@@QAE@XZ				; _GUILDQUEST::_GUILDQUEST
PUBLIC	??3CGuildMember@@SAXPAX@Z			; CGuildMember::operator delete
PUBLIC	??0_GUILD_MEMBER_INFO@@QAE@XZ			; _GUILD_MEMBER_INFO::_GUILD_MEMBER_INFO
PUBLIC	??3CGuild@@SAXPAX@Z				; CGuild::operator delete
PUBLIC	??$?6H@CAr@@QAEAAV0@ABH@Z			; CAr::operator<<<int>
PUBLIC	??$?5H@CAr@@QAEAAV0@AAH@Z			; CAr::operator>><int>
PUBLIC	??$?6K@CAr@@QAEAAV0@ABK@Z			; CAr::operator<<<unsigned long>
PUBLIC	??$?6J@CAr@@QAEAAV0@ABJ@Z			; CAr::operator<<<long>
PUBLIC	??$?6UD3DXVECTOR3@@@CAr@@QAEAAV0@ABUD3DXVECTOR3@@@Z ; CAr::operator<<<D3DXVECTOR3>
PUBLIC	??$?5K@CAr@@QAEAAV0@AAK@Z			; CAr::operator>><unsigned long>
PUBLIC	??$?5J@CAr@@QAEAAV0@AAJ@Z			; CAr::operator>><long>
PUBLIC	??0_SCHOOL_ENTRY@@QAE@XZ			; _SCHOOL_ENTRY::_SCHOOL_ENTRY
PUBLIC	??1?$_Tree@V?$_Tmap_traits@KKU?$less@K@std@@V?$allocator@U?$pair@$$CBKK@std@@@2@$0A@@std@@@std@@QAE@XZ ; std::_Tree<std::_Tmap_traits<unsigned long,unsigned long,std::less<unsigned long>,std::allocator<std::pair<unsigned long const ,unsigned long> >,0> >::~_Tree<std::_Tmap_traits<unsigned long,unsigned long,std::less<unsigned long>,std::allocator<std::pair<unsigned long const ,unsigned long> >,0> >
PUBLIC	?_Insert_node@?$_Tree_val@U?$_Tree_simple_types@U?$pair@$$CBKK@std@@@std@@@std@@QAEPAU?$_Tree_node@U?$pair@$$CBKK@std@@PAX@2@U?$_Tree_id@PAU?$_Tree_node@U?$pair@$$CBKK@std@@PAX@std@@@2@QAU32@@Z ; std::_Tree_val<std::_Tree_simple_types<std::pair<unsigned long const ,unsigned long> > >::_Insert_node
PUBLIC	??1?$map@KKU?$less@K@std@@V?$allocator@U?$pair@$$CBKK@std@@@2@@std@@QAE@XZ ; std::map<unsigned long,unsigned long,std::less<unsigned long>,std::allocator<std::pair<unsigned long const ,unsigned long> > >::~map<unsigned long,unsigned long,std::less<unsigned long>,std::allocator<std::pair<unsigned long const ,unsigned long> > >
PUBLIC	?Create@?$MemPooler@UtagDB_OVERLAPPED_PLUS@@@@IAEXXZ ; MemPooler<tagDB_OVERLAPPED_PLUS>::Create
PUBLIC	??$?5E@CAr@@QAEAAV0@AAE@Z			; CAr::operator>><unsigned char>
PUBLIC	??$?5I@CAr@@QAEAAV0@AAI@Z			; CAr::operator>><unsigned int>
PUBLIC	??$?6E@CAr@@QAEAAV0@ABE@Z			; CAr::operator<<<unsigned char>
PUBLIC	??1?$pair@$$CBKV?$basic_string@DU?$char_traits@D@std@@V?$allocator@D@2@@std@@@std@@QAE@XZ ; std::pair<unsigned long const ,std::basic_string<char,std::char_traits<char>,std::allocator<char> > >::~pair<unsigned long const ,std::basic_string<char,std::char_traits<char>,std::allocator<char> > >
PUBLIC	??$insert@$0A@$0A@@?$_Tree@V?$_Tmap_traits@KV?$basic_string@DU?$char_traits@D@std@@V?$allocator@D@2@@std@@U?$less@K@2@V?$allocator@U?$pair@$$CBKV?$basic_string@DU?$char_traits@D@std@@V?$allocator@D@2@@std@@@std@@@2@$0A@@std@@@std@@QAE?AU?$pair@V?$_Tree_iterator@V?$_Tree_val@U?$_Tree_simple_types@U?$pair@$$CBKV?$basic_string@DU?$char_traits@D@std@@V?$allocator@D@2@@std@@@std@@@std@@@std@@@std@@_N@1@$$QAU?$pair@$$CBKV?$basic_string@DU?$char_traits@D@std@@V?$allocator@D@2@@std@@@1@@Z ; std::_Tree<std::_Tmap_traits<unsigned long,std::basic_string<char,std::char_traits<char>,std::allocator<char> >,std::less<unsigned long>,std::allocator<std::pair<unsigned long const ,std::basic_string<char,std::char_traits<char>,std::allocator<char> > > >,0> >::insert<0,0>
PUBLIC	??E?$_Tree_unchecked_const_iterator@V?$_Tree_val@U?$_Tree_simple_types@U?$pair@$$CBKV?$basic_string@DU?$char_traits@D@std@@V?$allocator@D@2@@std@@@std@@@std@@@std@@U_Iterator_base0@2@@std@@QAEAAV01@XZ ; std::_Tree_unchecked_const_iterator<std::_Tree_val<std::_Tree_simple_types<std::pair<unsigned long const ,std::basic_string<char,std::char_traits<char>,std::allocator<char> > > > >,std::_Iterator_base0>::operator++
PUBLIC	??$?6I@CAr@@QAEAAV0@ABI@Z			; CAr::operator<<<unsigned int>
PUBLIC	??$?5F@CAr@@QAEAAV0@AAF@Z			; CAr::operator>><short>
PUBLIC	??$?6F@CAr@@QAEAAV0@ABF@Z			; CAr::operator<<<short>
PUBLIC	??$?6_J@CAr@@QAEAAV0@AB_J@Z			; CAr::operator<<<__int64>
PUBLIC	??$?5_J@CAr@@QAEAAV0@AA_J@Z			; CAr::operator>><__int64>
PUBLIC	?CheckValidItem@@YAHKF@Z			; CheckValidItem
PUBLIC	??1?$_Tree@V?$_Tset_traits@HU?$less@H@std@@V?$allocator@H@2@$0A@@std@@@std@@QAE@XZ ; std::_Tree<std::_Tset_traits<int,std::less<int>,std::allocator<int>,0> >::~_Tree<std::_Tset_traits<int,std::less<int>,std::allocator<int>,0> >
PUBLIC	?_Insert_node@?$_Tree_val@U?$_Tree_simple_types@H@std@@@std@@QAEPAU?$_Tree_node@HPAX@2@U?$_Tree_id@PAU?$_Tree_node@HPAX@std@@@2@QAU32@@Z ; std::_Tree_val<std::_Tree_simple_types<int> >::_Insert_node
PUBLIC	??1?$set@HU?$less@H@std@@V?$allocator@H@2@@std@@QAE@XZ ; std::set<int,std::less<int>,std::allocator<int> >::~set<int,std::less<int>,std::allocator<int> >
PUBLIC	??E?$_Tree_unchecked_const_iterator@V?$_Tree_val@U?$_Tree_simple_types@U?$pair@$$CBKH@std@@@std@@@std@@U_Iterator_base0@2@@std@@QAEAAV01@XZ ; std::_Tree_unchecked_const_iterator<std::_Tree_val<std::_Tree_simple_types<std::pair<unsigned long const ,int> > >,std::_Iterator_base0>::operator++
PUBLIC	??1?$_Tree@V?$_Tmap_traits@KU_CONV_RESULT_ITEM@@U?$less@K@std@@V?$allocator@U?$pair@$$CBKU_CONV_RESULT_ITEM@@@std@@@3@$0A@@std@@@std@@QAE@XZ ; std::_Tree<std::_Tmap_traits<unsigned long,_CONV_RESULT_ITEM,std::less<unsigned long>,std::allocator<std::pair<unsigned long const ,_CONV_RESULT_ITEM> >,0> >::~_Tree<std::_Tmap_traits<unsigned long,_CONV_RESULT_ITEM,std::less<unsigned long>,std::allocator<std::pair<unsigned long const ,_CONV_RESULT_ITEM> >,0> >
PUBLIC	?_Insert_node@?$_Tree_val@U?$_Tree_simple_types@U?$pair@$$CBKU_CONV_RESULT_ITEM@@@std@@@std@@@std@@QAEPAU?$_Tree_node@U?$pair@$$CBKU_CONV_RESULT_ITEM@@@std@@PAX@2@U?$_Tree_id@PAU?$_Tree_node@U?$pair@$$CBKU_CONV_RESULT_ITEM@@@std@@PAX@std@@@2@QAU32@@Z ; std::_Tree_val<std::_Tree_simple_types<std::pair<unsigned long const ,_CONV_RESULT_ITEM> > >::_Insert_node
PUBLIC	??1?$map@KU_CONV_RESULT_ITEM@@U?$less@K@std@@V?$allocator@U?$pair@$$CBKU_CONV_RESULT_ITEM@@@std@@@3@@std@@QAE@XZ ; std::map<unsigned long,_CONV_RESULT_ITEM,std::less<unsigned long>,std::allocator<std::pair<unsigned long const ,_CONV_RESULT_ITEM> > >::~map<unsigned long,_CONV_RESULT_ITEM,std::less<unsigned long>,std::allocator<std::pair<unsigned long const ,_CONV_RESULT_ITEM> > >
PUBLIC	??1?$vector@U__MAIL_REALTIME@CDbManager@@V?$allocator@U__MAIL_REALTIME@CDbManager@@@std@@@std@@QAE@XZ ; std::vector<CDbManager::__MAIL_REALTIME,std::allocator<CDbManager::__MAIL_REALTIME> >::~vector<CDbManager::__MAIL_REALTIME,std::allocator<CDbManager::__MAIL_REALTIME> >
PUBLIC	?_Xlength@?$vector@U__MAIL_REALTIME@CDbManager@@V?$allocator@U__MAIL_REALTIME@CDbManager@@@std@@@std@@CAXXZ ; std::vector<CDbManager::__MAIL_REALTIME,std::allocator<CDbManager::__MAIL_REALTIME> >::_Xlength
PUBLIC	??1?$vector@U__GC1TO1TENDER@CGuildCombat1to1Mng@@V?$allocator@U__GC1TO1TENDER@CGuildCombat1to1Mng@@@std@@@std@@QAE@XZ ; std::vector<CGuildCombat1to1Mng::__GC1TO1TENDER,std::allocator<CGuildCombat1to1Mng::__GC1TO1TENDER> >::~vector<CGuildCombat1to1Mng::__GC1TO1TENDER,std::allocator<CGuildCombat1to1Mng::__GC1TO1TENDER> >
PUBLIC	?_Xlength@?$vector@U__GC1TO1TENDER@CGuildCombat1to1Mng@@V?$allocator@U__GC1TO1TENDER@CGuildCombat1to1Mng@@@std@@@std@@CAXXZ ; std::vector<CGuildCombat1to1Mng::__GC1TO1TENDER,std::allocator<CGuildCombat1to1Mng::__GC1TO1TENDER> >::_Xlength
PUBLIC	??$?5D@CAr@@QAEAAV0@AAD@Z			; CAr::operator>><char>
PUBLIC	??$_Erase_tree@V?$allocator@U?$_Tree_node@V?$basic_string@DU?$char_traits@D@std@@V?$allocator@D@2@@std@@PAX@std@@@std@@@?$_Tree_val@U?$_Tree_simple_types@V?$basic_string@DU?$char_traits@D@std@@V?$allocator@D@2@@std@@@std@@@std@@QAEXAAV?$allocator@U?$_Tree_node@V?$basic_string@DU?$char_traits@D@std@@V?$allocator@D@2@@std@@PAX@std@@@1@PAU?$_Tree_node@V?$basic_string@DU?$char_traits@D@std@@V?$allocator@D@2@@std@@PAX@1@@Z ; std::_Tree_val<std::_Tree_simple_types<std::basic_string<char,std::char_traits<char>,std::allocator<char> > > >::_Erase_tree<std::allocator<std::_Tree_node<std::basic_string<char,std::char_traits<char>,std::allocator<char> >,void *> > >
PUBLIC	??$_Find_lower_bound@K@?$_Tree@V?$_Tmap_traits@KV?$basic_string@DU?$char_traits@D@std@@V?$allocator@D@2@@std@@U?$less@K@2@V?$allocator@U?$pair@$$CBKV?$basic_string@DU?$char_traits@D@std@@V?$allocator@D@2@@std@@@std@@@2@$0A@@std@@@std@@IBE?AU?$_Tree_find_result@PAU?$_Tree_node@U?$pair@$$CBKV?$basic_string@DU?$char_traits@D@std@@V?$allocator@D@2@@std@@@std@@PAX@std@@@1@ABK@Z ; std::_Tree<std::_Tmap_traits<unsigned long,std::basic_string<char,std::char_traits<char>,std::allocator<char> >,std::less<unsigned long>,std::allocator<std::pair<unsigned long const ,std::basic_string<char,std::char_traits<char>,std::allocator<char> > > >,0> >::_Find_lower_bound<unsigned long>
PUBLIC	??1?$_Alloc_construct_ptr@V?$allocator@U?$_Tree_node@U?$pair@$$CBKV?$basic_string@DU?$char_traits@D@std@@V?$allocator@D@2@@std@@@std@@PAX@std@@@std@@@std@@QAE@XZ ; std::_Alloc_construct_ptr<std::allocator<std::_Tree_node<std::pair<unsigned long const ,std::basic_string<char,std::char_traits<char>,std::allocator<char> > >,void *> > >::~_Alloc_construct_ptr<std::allocator<std::_Tree_node<std::pair<unsigned long const ,std::basic_string<char,std::char_traits<char>,std::allocator<char> > >,void *> > >
PUBLIC	??1?$_Alloc_construct_ptr@V?$allocator@U?$_Tree_node@HPAX@std@@@std@@@std@@QAE@XZ ; std::_Alloc_construct_ptr<std::allocator<std::_Tree_node<int,void *> > >::~_Alloc_construct_ptr<std::allocator<std::_Tree_node<int,void *> > >
PUBLIC	??$_Find_lower_bound@K@?$_Tree@V?$_Tmap_traits@KHU?$less@K@std@@V?$allocator@U?$pair@$$CBKH@std@@@2@$0A@@std@@@std@@IBE?AU?$_Tree_find_result@PAU?$_Tree_node@U?$pair@$$CBKH@std@@PAX@std@@@1@ABK@Z ; std::_Tree<std::_Tmap_traits<unsigned long,int,std::less<unsigned long>,std::allocator<std::pair<unsigned long const ,int> >,0> >::_Find_lower_bound<unsigned long>
PUBLIC	??1?$_Alloc_construct_ptr@V?$allocator@U?$_Tree_node@U?$pair@$$CBKH@std@@PAX@std@@@std@@@std@@QAE@XZ ; std::_Alloc_construct_ptr<std::allocator<std::_Tree_node<std::pair<unsigned long const ,int>,void *> > >::~_Alloc_construct_ptr<std::allocator<std::_Tree_node<std::pair<unsigned long const ,int>,void *> > >
PUBLIC	??$_Find_lower_bound@K@?$_Tree@V?$_Tmap_traits@KU_CONV_RESULT_ITEM@@U?$less@K@std@@V?$allocator@U?$pair@$$CBKU_CONV_RESULT_ITEM@@@std@@@3@$0A@@std@@@std@@IBE?AU?$_Tree_find_result@PAU?$_Tree_node@U?$pair@$$CBKU_CONV_RESULT_ITEM@@@std@@PAX@std@@@1@ABK@Z ; std::_Tree<std::_Tmap_traits<unsigned long,_CONV_RESULT_ITEM,std::less<unsigned long>,std::allocator<std::pair<unsigned long const ,_CONV_RESULT_ITEM> >,0> >::_Find_lower_bound<unsigned long>
PUBLIC	??1?$_Alloc_construct_ptr@V?$allocator@U?$_Tree_node@U?$pair@$$CBKU_CONV_RESULT_ITEM@@@std@@PAX@std@@@std@@@std@@QAE@XZ ; std::_Alloc_construct_ptr<std::allocator<std::_Tree_node<std::pair<unsigned long const ,_CONV_RESULT_ITEM>,void *> > >::~_Alloc_construct_ptr<std::allocator<std::_Tree_node<std::pair<unsigned long const ,_CONV_RESULT_ITEM>,void *> > >
PUBLIC	??$_Find_lower_bound@K@?$_Tree@V?$_Tmap_traits@KKU?$less@K@std@@V?$allocator@U?$pair@$$CBKK@std@@@2@$0A@@std@@@std@@IBE?AU?$_Tree_find_result@PAU?$_Tree_node@U?$pair@$$CBKK@std@@PAX@std@@@1@ABK@Z ; std::_Tree<std::_Tmap_traits<unsigned long,unsigned long,std::less<unsigned long>,std::allocator<std::pair<unsigned long const ,unsigned long> >,0> >::_Find_lower_bound<unsigned long>
PUBLIC	??1?$_Alloc_construct_ptr@V?$allocator@U?$_Tree_node@U?$pair@$$CBKK@std@@PAX@std@@@std@@@std@@QAE@XZ ; std::_Alloc_construct_ptr<std::allocator<std::_Tree_node<std::pair<unsigned long const ,unsigned long>,void *> > >::~_Alloc_construct_ptr<std::allocator<std::_Tree_node<std::pair<unsigned long const ,unsigned long>,void *> > >
PUBLIC	??$_Emplace_reallocate@ABU__MAIL_REALTIME@CDbManager@@@?$vector@U__MAIL_REALTIME@CDbManager@@V?$allocator@U__MAIL_REALTIME@CDbManager@@@std@@@std@@AAEPAU__MAIL_REALTIME@CDbManager@@QAU23@ABU23@@Z ; std::vector<CDbManager::__MAIL_REALTIME,std::allocator<CDbManager::__MAIL_REALTIME> >::_Emplace_reallocate<CDbManager::__MAIL_REALTIME const &>
PUBLIC	??$_Erase_tree@V?$allocator@U?$_Tree_node@U?$pair@$$CBKU_CONV_RESULT_ITEM@@@std@@PAX@std@@@std@@@?$_Tree_val@U?$_Tree_simple_types@U?$pair@$$CBKU_CONV_RESULT_ITEM@@@std@@@std@@@std@@QAEXAAV?$allocator@U?$_Tree_node@U?$pair@$$CBKU_CONV_RESULT_ITEM@@@std@@PAX@std@@@1@PAU?$_Tree_node@U?$pair@$$CBKU_CONV_RESULT_ITEM@@@std@@PAX@1@@Z ; std::_Tree_val<std::_Tree_simple_types<std::pair<unsigned long const ,_CONV_RESULT_ITEM> > >::_Erase_tree<std::allocator<std::_Tree_node<std::pair<unsigned long const ,_CONV_RESULT_ITEM>,void *> > >
PUBLIC	??$_Erase_tree@V?$allocator@U?$_Tree_node@HPAX@std@@@std@@@?$_Tree_val@U?$_Tree_simple_types@H@std@@@std@@QAEXAAV?$allocator@U?$_Tree_node@HPAX@std@@@1@PAU?$_Tree_node@HPAX@1@@Z ; std::_Tree_val<std::_Tree_simple_types<int> >::_Erase_tree<std::allocator<std::_Tree_node<int,void *> > >
PUBLIC	??$_Erase_tree@V?$allocator@U?$_Tree_node@U?$pair@$$CBKK@std@@PAX@std@@@std@@@?$_Tree_val@U?$_Tree_simple_types@U?$pair@$$CBKK@std@@@std@@@std@@QAEXAAV?$allocator@U?$_Tree_node@U?$pair@$$CBKK@std@@PAX@std@@@1@PAU?$_Tree_node@U?$pair@$$CBKK@std@@PAX@1@@Z ; std::_Tree_val<std::_Tree_simple_types<std::pair<unsigned long const ,unsigned long> > >::_Erase_tree<std::allocator<std::_Tree_node<std::pair<unsigned long const ,unsigned long>,void *> > >
PUBLIC	??$_Emplace_reallocate@ABU__GC1TO1TENDER@CGuildCombat1to1Mng@@@?$vector@U__GC1TO1TENDER@CGuildCombat1to1Mng@@V?$allocator@U__GC1TO1TENDER@CGuildCombat1to1Mng@@@std@@@std@@AAEPAU__GC1TO1TENDER@CGuildCombat1to1Mng@@QAU23@ABU23@@Z ; std::vector<CGuildCombat1to1Mng::__GC1TO1TENDER,std::allocator<CGuildCombat1to1Mng::__GC1TO1TENDER> >::_Emplace_reallocate<CGuildCombat1to1Mng::__GC1TO1TENDER const &>
PUBLIC	??$_Emplace_reallocate@ABU__GUILDCOMBATJOIN@CDbManager@@@?$vector@U__GUILDCOMBATJOIN@CDbManager@@V?$allocator@U__GUILDCOMBATJOIN@CDbManager@@@std@@@std@@AAEPAU__GUILDCOMBATJOIN@CDbManager@@QAU23@ABU23@@Z ; std::vector<CDbManager::__GUILDCOMBATJOIN,std::allocator<CDbManager::__GUILDCOMBATJOIN> >::_Emplace_reallocate<CDbManager::__GUILDCOMBATJOIN const &>
PUBLIC	??$_Emplace_reallocate@ABU__GCPLAYERPOINT@CDbManager@@@?$vector@U__GCPLAYERPOINT@CDbManager@@V?$allocator@U__GCPLAYERPOINT@CDbManager@@@std@@@std@@AAEPAU__GCPLAYERPOINT@CDbManager@@QAU23@ABU23@@Z ; std::vector<CDbManager::__GCPLAYERPOINT,std::allocator<CDbManager::__GCPLAYERPOINT> >::_Emplace_reallocate<CDbManager::__GCPLAYERPOINT const &>
PUBLIC	??$_Copy_memmove@PAU__GCRESULTVALUEPLAYER@CDbManager@@PAU12@@std@@YAPAU__GCRESULTVALUEPLAYER@CDbManager@@PAU12@00@Z ; std::_Copy_memmove<CDbManager::__GCRESULTVALUEPLAYER *,CDbManager::__GCRESULTVALUEPLAYER *>
PUBLIC	??$_Emplace_reallocate@ABU__GCRESULTVALUEPLAYER@CDbManager@@@?$vector@U__GCRESULTVALUEPLAYER@CDbManager@@V?$allocator@U__GCRESULTVALUEPLAYER@CDbManager@@@std@@@std@@AAEPAU__GCRESULTVALUEPLAYER@CDbManager@@QAU23@ABU23@@Z ; std::vector<CDbManager::__GCRESULTVALUEPLAYER,std::allocator<CDbManager::__GCRESULTVALUEPLAYER> >::_Emplace_reallocate<CDbManager::__GCRESULTVALUEPLAYER const &>
PUBLIC	??$_Copy_memmove@PAU__GCRESULTVALUEGUILD@CDbManager@@PAU12@@std@@YAPAU__GCRESULTVALUEGUILD@CDbManager@@PAU12@00@Z ; std::_Copy_memmove<CDbManager::__GCRESULTVALUEGUILD *,CDbManager::__GCRESULTVALUEGUILD *>
PUBLIC	??$_Emplace_reallocate@ABU__GCRESULTVALUEGUILD@CDbManager@@@?$vector@U__GCRESULTVALUEGUILD@CDbManager@@V?$allocator@U__GCRESULTVALUEGUILD@CDbManager@@@std@@@std@@AAEPAU__GCRESULTVALUEGUILD@CDbManager@@QAU23@ABU23@@Z ; std::vector<CDbManager::__GCRESULTVALUEGUILD,std::allocator<CDbManager::__GCRESULTVALUEGUILD> >::_Emplace_reallocate<CDbManager::__GCRESULTVALUEGUILD const &>
PUBLIC	??$_Erase_tree@V?$allocator@U?$_Tree_node@U?$pair@$$CBKH@std@@PAX@std@@@std@@@?$_Tree_val@U?$_Tree_simple_types@U?$pair@$$CBKH@std@@@std@@@std@@QAEXAAV?$allocator@U?$_Tree_node@U?$pair@$$CBKH@std@@PAX@std@@@1@PAU?$_Tree_node@U?$pair@$$CBKH@std@@PAX@1@@Z ; std::_Tree_val<std::_Tree_simple_types<std::pair<unsigned long const ,int> > >::_Erase_tree<std::allocator<std::_Tree_node<std::pair<unsigned long const ,int>,void *> > >
PUBLIC	??$_Erase_tree@V?$allocator@U?$_Tree_node@U?$pair@$$CBKV?$basic_string@DU?$char_traits@D@std@@V?$allocator@D@2@@std@@@std@@PAX@std@@@std@@@?$_Tree_val@U?$_Tree_simple_types@U?$pair@$$CBKV?$basic_string@DU?$char_traits@D@std@@V?$allocator@D@2@@std@@@std@@@std@@@std@@QAEXAAV?$allocator@U?$_Tree_node@U?$pair@$$CBKV?$basic_string@DU?$char_traits@D@std@@V?$allocator@D@2@@std@@@std@@PAX@std@@@1@PAU?$_Tree_node@U?$pair@$$CBKV?$basic_string@DU?$char_traits@D@std@@V?$allocator@D@2@@std@@@std@@PAX@1@@Z ; std::_Tree_val<std::_Tree_simple_types<std::pair<unsigned long const ,std::basic_string<char,std::char_traits<char>,std::allocator<char> > > > >::_Erase_tree<std::allocator<std::_Tree_node<std::pair<unsigned long const ,std::basic_string<char,std::char_traits<char>,std::allocator<char> > >,void *> > >
PUBLIC	??$_Erase_tree@V?$allocator@U?$_Tree_node@U?$pair@$$CBHV?$basic_string@DU?$char_traits@D@std@@V?$allocator@D@2@@std@@@std@@PAX@std@@@std@@@?$_Tree_val@U?$_Tree_simple_types@U?$pair@$$CBHV?$basic_string@DU?$char_traits@D@std@@V?$allocator@D@2@@std@@@std@@@std@@@std@@QAEXAAV?$allocator@U?$_Tree_node@U?$pair@$$CBHV?$basic_string@DU?$char_traits@D@std@@V?$allocator@D@2@@std@@@std@@PAX@std@@@1@PAU?$_Tree_node@U?$pair@$$CBHV?$basic_string@DU?$char_traits@D@std@@V?$allocator@D@2@@std@@@std@@PAX@1@@Z ; std::_Tree_val<std::_Tree_simple_types<std::pair<int const ,std::basic_string<char,std::char_traits<char>,std::allocator<char> > > > >::_Erase_tree<std::allocator<std::_Tree_node<std::pair<int const ,std::basic_string<char,std::char_traits<char>,std::allocator<char> > >,void *> > >
PUBLIC	??$_Erase_tree@V?$allocator@U?$_Tree_node@U?$pair@$$CBV?$basic_string@DU?$char_traits@D@std@@V?$allocator@D@2@@std@@PAUACCOUNT_CACHE@@@std@@PAX@std@@@std@@@?$_Tree_val@U?$_Tree_simple_types@U?$pair@$$CBV?$basic_string@DU?$char_traits@D@std@@V?$allocator@D@2@@std@@PAUACCOUNT_CACHE@@@std@@@std@@@std@@QAEXAAV?$allocator@U?$_Tree_node@U?$pair@$$CBV?$basic_string@DU?$char_traits@D@std@@V?$allocator@D@2@@std@@PAUACCOUNT_CACHE@@@std@@PAX@std@@@1@PAU?$_Tree_node@U?$pair@$$CBV?$basic_string@DU?$char_traits@D@std@@V?$allocator@D@2@@std@@PAUACCOUNT_CACHE@@@std@@PAX@1@@Z ; std::_Tree_val<std::_Tree_simple_types<std::pair<std::basic_string<char,std::char_traits<char>,std::allocator<char> > const ,ACCOUNT_CACHE *> > >::_Erase_tree<std::allocator<std::_Tree_node<std::pair<std::basic_string<char,std::char_traits<char>,std::allocator<char> > const ,ACCOUNT_CACHE *>,void *> > >
PUBLIC	??$construct@U__GC1TO1TENDER@CGuildCombat1to1Mng@@ABU12@@?$_Default_allocator_traits@V?$allocator@U__GC1TO1TENDER@CGuildCombat1to1Mng@@@std@@@std@@SAXAAV?$allocator@U__GC1TO1TENDER@CGuildCombat1to1Mng@@@1@QAU__GC1TO1TENDER@CGuildCombat1to1Mng@@ABU34@@Z ; std::_Default_allocator_traits<std::allocator<CGuildCombat1to1Mng::__GC1TO1TENDER> >::construct<CGuildCombat1to1Mng::__GC1TO1TENDER,CGuildCombat1to1Mng::__GC1TO1TENDER const &>
PUBLIC	??1_Reallocation_guard@?$vector@U__GC1TO1TENDER@CGuildCombat1to1Mng@@V?$allocator@U__GC1TO1TENDER@CGuildCombat1to1Mng@@@std@@@std@@QAE@XZ ; std::vector<CGuildCombat1to1Mng::__GC1TO1TENDER,std::allocator<CGuildCombat1to1Mng::__GC1TO1TENDER> >::_Reallocation_guard::~_Reallocation_guard
PUBLIC	??$_Uninitialized_move@PAU__GC1TO1TENDER@CGuildCombat1to1Mng@@V?$allocator@U__GC1TO1TENDER@CGuildCombat1to1Mng@@@std@@@std@@YAPAU__GC1TO1TENDER@CGuildCombat1to1Mng@@QAU12@0PAU12@AAV?$allocator@U__GC1TO1TENDER@CGuildCombat1to1Mng@@@0@@Z ; std::_Uninitialized_move<CGuildCombat1to1Mng::__GC1TO1TENDER *,std::allocator<CGuildCombat1to1Mng::__GC1TO1TENDER> >
PUBLIC	??$_Copy_memmove_tail@PAU__GCRESULTVALUEPLAYER@CDbManager@@@std@@YAPAU__GCRESULTVALUEPLAYER@CDbManager@@QBDQAU12@II@Z ; std::_Copy_memmove_tail<CDbManager::__GCRESULTVALUEPLAYER *>
PUBLIC	??$_Copy_memmove_tail@PAU__GCRESULTVALUEGUILD@CDbManager@@@std@@YAPAU__GCRESULTVALUEGUILD@CDbManager@@QBDQAU12@II@Z ; std::_Copy_memmove_tail<CDbManager::__GCRESULTVALUEGUILD *>
PUBLIC	??$_Copy_memmove@PAU__MAIL_REALTIME@CDbManager@@PAU12@@std@@YAPAU__MAIL_REALTIME@CDbManager@@PAU12@00@Z ; std::_Copy_memmove<CDbManager::__MAIL_REALTIME *,CDbManager::__MAIL_REALTIME *>
PUBLIC	??$_Copy_memmove@PAU__GUILDCOMBATJOIN@CDbManager@@PAU12@@std@@YAPAU__GUILDCOMBATJOIN@CDbManager@@PAU12@00@Z ; std::_Copy_memmove<CDbManager::__GUILDCOMBATJOIN *,CDbManager::__GUILDCOMBATJOIN *>
PUBLIC	??$_Copy_memmove@PAU__GCPLAYERPOINT@CDbManager@@PAU12@@std@@YAPAU__GCPLAYERPOINT@CDbManager@@PAU12@00@Z ; std::_Copy_memmove<CDbManager::__GCPLAYERPOINT *,CDbManager::__GCPLAYERPOINT *>
PUBLIC	??$_Copy_memmove@PAKPAK@std@@YAPAKPAK00@Z	; std::_Copy_memmove<unsigned long *,unsigned long *>
PUBLIC	??$_Copy_memmove_tail@PAU__MAIL_REALTIME@CDbManager@@@std@@YAPAU__MAIL_REALTIME@CDbManager@@QBDQAU12@II@Z ; std::_Copy_memmove_tail<CDbManager::__MAIL_REALTIME *>
PUBLIC	??$_Copy_memmove_tail@PAU__GUILDCOMBATJOIN@CDbManager@@@std@@YAPAU__GUILDCOMBATJOIN@CDbManager@@QBDQAU12@II@Z ; std::_Copy_memmove_tail<CDbManager::__GUILDCOMBATJOIN *>
PUBLIC	??$_Copy_memmove_tail@PAU__GCPLAYERPOINT@CDbManager@@@std@@YAPAU__GCPLAYERPOINT@CDbManager@@QBDQAU12@II@Z ; std::_Copy_memmove_tail<CDbManager::__GCPLAYERPOINT *>
PUBLIC	??$_Copy_memmove_tail@PAK@std@@YAPAKQBDQAKII@Z	; std::_Copy_memmove_tail<unsigned long *>
PUBLIC	?_OptionsStorage@?1??__local_stdio_printf_options@@9@4_KA ; `__local_stdio_printf_options'::`2'::_OptionsStorage
PUBLIC	??_C@_02DPKJAMEF@?$CFd@				; `string'
PUBLIC	??_C@_01CPLAODJH@S@				; `string'
PUBLIC	??_C@_01CKDDGHAB@D@				; `string'
PUBLIC	??_C@_00CNPNBAHC@@				; `string'
PUBLIC	??_7exception@std@@6B@				; std::exception::`vftable'
PUBLIC	??_C@_0BC@EOODALEL@Unknown?5exception@		; `string'
PUBLIC	??_7bad_alloc@std@@6B@				; std::bad_alloc::`vftable'
PUBLIC	??_7bad_array_new_length@std@@6B@		; std::bad_array_new_length::`vftable'
PUBLIC	??_C@_0BF@KINCDENJ@bad?5array?5new?5length@	; `string'
PUBLIC	??_R0?AVexception@std@@@8			; std::exception `RTTI Type Descriptor'
PUBLIC	__CT??_R0?AVexception@std@@@8??0exception@std@@QAE@ABV01@@Z12
PUBLIC	__TI3?AVbad_array_new_length@std@@
PUBLIC	__CTA3?AVbad_array_new_length@std@@
PUBLIC	??_R0?AVbad_array_new_length@std@@@8		; std::bad_array_new_length `RTTI Type Descriptor'
PUBLIC	__CT??_R0?AVbad_array_new_length@std@@@8??0bad_array_new_length@std@@QAE@ABV01@@Z12
PUBLIC	??_R0?AVbad_alloc@std@@@8			; std::bad_alloc `RTTI Type Descriptor'
PUBLIC	__CT??_R0?AVbad_alloc@std@@@8??0bad_alloc@std@@QAE@ABV01@@Z12
PUBLIC	??_C@_0BA@JFNIOLAK@string?5too?5long@		; `string'
PUBLIC	??_C@_0BB@GCADKGJO@map?1set?5too?5long@		; `string'
PUBLIC	??_7CMclCritSec@@6B@				; CMclCritSec::`vftable'
PUBLIC	??_7?$CItemContainer@VCItemElem@@@@6B@		; CItemContainer<CItemElem>::`vftable'
PUBLIC	??_C@_09GBAEEKDE@?$CFs?0?5?$CFd?7?$CFs@		; `string'
PUBLIC	?g_DbManager@@3AAVCDbManager@@A			; g_DbManager
PUBLIC	??_C@_09PKKCPLIP@bad?5alloc@			; `string'
PUBLIC	??_C@_0O@NKNMEGII@list?5too?5long@		; `string'
PUBLIC	??_C@_0BA@FOIKENOD@vector?5too?5long@		; `string'
PUBLIC	??_R4exception@std@@6B@				; std::exception::`RTTI Complete Object Locator'
PUBLIC	??_R3exception@std@@8				; std::exception::`RTTI Class Hierarchy Descriptor'
PUBLIC	??_R2exception@std@@8				; std::exception::`RTTI Base Class Array'
PUBLIC	??_R1A@?0A@EA@exception@std@@8			; std::exception::`RTTI Base Class Descriptor at (0,-1,0,64)'
PUBLIC	??_R4bad_array_new_length@std@@6B@		; std::bad_array_new_length::`RTTI Complete Object Locator'
PUBLIC	??_R3bad_array_new_length@std@@8		; std::bad_array_new_length::`RTTI Class Hierarchy Descriptor'
PUBLIC	??_R2bad_array_new_length@std@@8		; std::bad_array_new_length::`RTTI Base Class Array'
PUBLIC	??_R1A@?0A@EA@bad_array_new_length@std@@8	; std::bad_array_new_length::`RTTI Base Class Descriptor at (0,-1,0,64)'
PUBLIC	??_R1A@?0A@EA@bad_alloc@std@@8			; std::bad_alloc::`RTTI Base Class Descriptor at (0,-1,0,64)'
PUBLIC	??_R3bad_alloc@std@@8				; std::bad_alloc::`RTTI Class Hierarchy Descriptor'
PUBLIC	??_R2bad_alloc@std@@8				; std::bad_alloc::`RTTI Base Class Array'
PUBLIC	??_R4bad_alloc@std@@6B@				; std::bad_alloc::`RTTI Complete Object Locator'
PUBLIC	??_R4CMclCritSec@@6B@				; CMclCritSec::`RTTI Complete Object Locator'
PUBLIC	??_R0?AVCMclCritSec@@@8				; CMclCritSec `RTTI Type Descriptor'
PUBLIC	??_R3CMclCritSec@@8				; CMclCritSec::`RTTI Class Hierarchy Descriptor'
PUBLIC	??_R2CMclCritSec@@8				; CMclCritSec::`RTTI Base Class Array'
PUBLIC	??_R1A@?0A@EA@CMclCritSec@@8			; CMclCritSec::`RTTI Base Class Descriptor at (0,-1,0,64)'
PUBLIC	??_R4?$CItemContainer@VCItemElem@@@@6B@		; CItemContainer<CItemElem>::`RTTI Complete Object Locator'
PUBLIC	??_R0?AV?$CItemContainer@VCItemElem@@@@@8	; CItemContainer<CItemElem> `RTTI Type Descriptor'
PUBLIC	??_R3?$CItemContainer@VCItemElem@@@@8		; CItemContainer<CItemElem>::`RTTI Class Hierarchy Descriptor'
PUBLIC	??_R2?$CItemContainer@VCItemElem@@@@8		; CItemContainer<CItemElem>::`RTTI Base Class Array'
PUBLIC	??_R1A@?0A@EA@?$CItemContainer@VCItemElem@@@@8	; CItemContainer<CItemElem>::`RTTI Base Class Descriptor at (0,-1,0,64)'
PUBLIC	??_C@_0EP@COOPOMGF@SELECT?5?$CK?5FROM?5ACCOUNT_DBF?4dbo?4A@ ; `string'
PUBLIC	??_C@_0DK@JDGIDAFH@C?3?2IAGOS?2server?2v18?2Source?2Sour@ ; `string'
PUBLIC	??_C@_0M@MLDFCOHI@?$CFs?0?5?$CFd?$AN?6?7?$CFs@	; `string'
PUBLIC	??_C@_0DA@JBGMBOA@nBankPW?5is?5Invalid?$CB?5szPlayer?5?3?5@ ; `string'
PUBLIC	??_C@_02LJKIJHBA@I1@				; `string'
PUBLIC	??_C@_06MJMGIOFA@fError@			; `string'
PUBLIC	??_C@_0L@FONFFEJF@m_idPlayer@			; `string'
PUBLIC	??_C@_0CF@MFMPPGKF@BANK_STR?5?8U?8?0?5?8?$CF07d?8?0?5?8?$CF02d?8?0?5?8@ ; `string'
PUBLIC	??_C@_02LBHAAEED@D1@				; `string'
PUBLIC	??_C@_0BD@NFMAHED@?$CFs?0?5?$CFd?7?$CFs?$AN?6?7?$CFs?0?5?$CFs@ ; `string'
PUBLIC	??_C@_05EAEKFJDL@fText@				; `string'
PUBLIC	??_C@_0CK@IFOAIHKE@uspDeleteMessenger?5?8?$CF02d?8?0?5?8?$CF07@ ; `string'
PUBLIC	??_C@_0CD@POFEPDKP@BANK_STR?5?8U?8?0?5?8?$CF07d?8?0?5?8?$CF02d?8?0?5?8@ ; `string'
PUBLIC	??_C@_02IDDEOCHF@S2@				; `string'
PUBLIC	??_C@_0BM@DKDAGLAJ@?$CFs?0?5?$CFd?7?$CFs?5?3?5countPlayer?5?$DO?52@ ; `string'
PUBLIC	??_C@_0BC@MIKLFGHN@?$CFs?0?5?$CFd?7?$CFs?0?5?$CFs?0?5?$CFd@ ; `string'
PUBLIC	??_C@_0L@BLIMKIB@playerslot@			; `string'
PUBLIC	??_C@_0BP@FCJMJGOI@?$CFs?0?5?$CFd?7?$CFs?5SlotError?5islot?5?$FL?$CFd?$FN@ ; `string'
PUBLIC	??_C@_0CF@BDIOPENM@?$CFs?0?5?$CFd?7?$CFs?5nslot?$FLnSlotCount?$FN?5?$DN?$DN?5@ ; `string'
PUBLIC	??_C@_0M@FNJGDDDM@m_idCompany@			; `string'
PUBLIC	??_C@_09DHJEDBNA@dwWorldID@			; `string'
PUBLIC	??_C@_08FJAEPELD@m_vPos_x@			; `string'
PUBLIC	??_C@_08EABPMFPC@m_vPos_y@			; `string'
PUBLIC	??_C@_08GLDCJGDB@m_vPos_z@			; `string'
PUBLIC	??_C@_0N@NIOAJHOA@last_connect@			; `string'
PUBLIC	??_C@_08HDDJDJAG@m_szName@			; `string'
PUBLIC	??_C@_09DOPDDPEB@BlockTime@			; `string'
PUBLIC	??_C@_09PLACNOOD@m_dwIndex@			; `string'
PUBLIC	??_C@_09OGJJHMJA@m_idparty@			; `string'
PUBLIC	??_C@_09MHDEIN@m_idGuild@			; `string'
PUBLIC	??_C@_07EFCBAOMF@m_idWar@			; `string'
PUBLIC	??_C@_0M@BCEJBJHD@m_dwSkinSet@			; `string'
PUBLIC	??_C@_0N@HFOELFNC@m_dwHairMesh@			; `string'
PUBLIC	??_C@_0N@BHMOBEMJ@m_dwHeadMesh@			; `string'
PUBLIC	??_C@_0O@ICOGEKE@m_dwHairColor@			; `string'
PUBLIC	??_C@_07KMHLCHEI@m_dwSex@			; `string'
PUBLIC	??_C@_06LDMBEDML@m_nJob@			; `string'
PUBLIC	??_C@_08DBNLLHK@m_nLevel@			; `string'
PUBLIC	??_C@_06MEGBAFBO@m_nStr@			; `string'
PUBLIC	??_C@_06KFIOEEIM@m_nSta@			; `string'
PUBLIC	??_C@_06OOKEELPF@m_nDex@			; `string'
PUBLIC	??_C@_06LMCODDMF@m_nInt@			; `string'
PUBLIC	??_C@_0M@GIEPEBGM@m_Inventory@			; `string'
PUBLIC	??_C@_0CF@JJEIFMEB@Inventory?5?3?5?$DM?$DM?5?G?A?$LH?N?F?$NL?F?$LM?5?$LO?x?$MA?$LN?4?5?$CF@ ; `string'
PUBLIC	??_C@_0DA@PGBKCGJ@SendPlayerList?3?3Inventory?5?3?5?$DM?$DM?5@ ; `string'
PUBLIC	??_C@_0P@FEOHFPFP@Inventory?5?$DN?5?$CFs@	; `string'
PUBLIC	??_C@_09HGEFOOAJ@m_apIndex@			; `string'
PUBLIC	??_C@_0P@MCBMMJCE@m_adwEquipment@		; `string'
PUBLIC	??_C@_0BC@IEAFGFF@m_nMessengerState@		; `string'
PUBLIC	??_C@_06OJLEAOEG@?$CFs?0?5?$CFd@		; `string'
PUBLIC	??_C@_0CB@DEEFGDJC@Error?5?3?5Not?5Connect?5Character?5D@ ; `string'
PUBLIC	??_C@_0BK@NJHPGAGP@uspLoadMaxCombatID?5?8?$CF02d?8@ ; `string'
PUBLIC	??_C@_06LEOHNDJG@MaxNum@			; `string'
PUBLIC	??_C@_0BN@DFPHIGHC@uspLoadCombatInfo?5?$CFd?0?5?8?$CF02d?8@ ; `string'
PUBLIC	??_C@_06PGDKHFME@Status@			; `string'
PUBLIC	??_C@_0BK@DAAGCGIL@uspAddNewCombat?5?$CFd?0?8?$CF02d?8@ ; `string'
PUBLIC	??_C@_0CB@OGADDGFN@uspLoadWinnerGuildInfo?5?$CFd?0?8?$CF02d@ ; `string'
PUBLIC	??_C@_07CLPGIMCK@GuildID@			; `string'
PUBLIC	??_C@_0M@LLHCNDAB@StraightWin@			; `string'
PUBLIC	??_C@_0CC@LKMFJMPC@uspLoadCombatBestPlayer?5?$CFd?0?8?$CF02@ ; `string'
PUBLIC	??_C@_08JGLGKIOP@PlayerID@			; `string'
PUBLIC	??_C@_0CC@ELOFEMPB@uspLoadCombatGuildList?5?$CFd?0?5?8?$CF02@ ; `string'
PUBLIC	??_C@_09JKPGIGMB@CombatFee@			; `string'
PUBLIC	??_C@_0BP@JHGCPLHP@uspLoadCombatUnpaidList?5?8?$CF02d?8@ ; `string'
PUBLIC	??_C@_04PMDHLBMH@Flag@				; `string'
PUBLIC	??_C@_08PDCOLAII@CombatID@			; `string'
PUBLIC	??_C@_0BA@DFEMOCBB@ReturnCombatFee@		; `string'
PUBLIC	??_C@_06BAGMPINC@Reward@			; `string'
PUBLIC	??_C@_0CA@GEGADPKJ@uspRankGuildCombatPlayer?5?8?$CF02d?8@ ; `string'
PUBLIC	??_C@_03DOFCBNIC@Job@				; `string'
PUBLIC	??_C@_0N@HABMDJOE@PointSummary@			; `string'
PUBLIC	??_C@_0CL@IECFNJKH@LoadPlayerData?3?5can?8t?5connect?5c@ ; `string'
PUBLIC	??_C@_0BL@OFCBKIMA@can?8t?5connect?5character?5db@ ; `string'
PUBLIC	??_C@_0BJ@LBLFICEK@uspLoadPlayerData?5?8?$CF02d?8@ ; `string'
PUBLIC	??_C@_0BL@EGIIKACN@LoadPlayerData?5?9?5query?3?5?$CFs@ ; `string'
PUBLIC	??_C@_0BJ@NKMIJFPO@PARTY_STR?5?8S2?8?0?8?8?0?8?$CF02d?8@ ; `string'
PUBLIC	??_C@_09IGEGCHPB@partyname@			; `string'
PUBLIC	??_C@_0BN@OKLNAAJP@PARTY_STR?5?8S1?8?0?8?$CF07d?8?0?8?$CF02d?8@ ; `string'
PUBLIC	??_C@_0N@BNMNAMM@?$CFY?$CFm?$CFd?$CFH?$CFM?$CFS@ ; `string'
PUBLIC	??_C@_0EJ@MEEOOOPP@uspLoggingLogin?5?8?$CF07d?8?0?5?8?$CF02d?8?0@ ; `string'
PUBLIC	??_C@_0CC@MOLEJOHI@PARTY_STR?5?8A1?8?0?8?$CF07d?8?0?8?$CF02d?8?0?8?$CF@ ; `string'
PUBLIC	??_C@_02NFGOEFPD@S4@				; `string'
PUBLIC	??_C@_0EA@LOGHMOOK@SendItem?3?3GetSendItem?5PlayerNam@ ; `string'
PUBLIC	??_C@_05OIPCCCKJ@penya@				; `string'
PUBLIC	??_C@_0DO@NGNJDDDN@SendItem?3?3SendPenya?5PlayerName?5@ ; `string'
PUBLIC	??_C@_02LFGCCOHG@DB@				; `string'
PUBLIC	??_C@_01HJOKEEBB@U@				; `string'
PUBLIC	??_C@_02KCGKEOIP@LC@				; `string'
PUBLIC	??_C@_05DIMENFA@m_nNo@				; `string'
PUBLIC	??_C@_09GAPLKBDN@Item_Name@			; `string'
PUBLIC	??_C@_0L@IOKBDDFK@Item_count@			; `string'
PUBLIC	??_C@_0BB@JLNDCIFJ@m_nAbilityOption@		; `string'
PUBLIC	??_C@_0O@PJIGDEIK@m_bItemResist@		; `string'
PUBLIC	??_C@_0GA@FDDOAELN@CDbManager?3?3GetSendItem?5?9?5Trans@ ; `string'
PUBLIC	??_C@_0BH@DKIALLAG@m_nResistAbilityOption@	; `string'
PUBLIC	??_C@_0L@IDDPCBMF@m_bCharged@			; `string'
PUBLIC	??_C@_0N@MGHLPGOO@m_dwKeepTime@			; `string'
PUBLIC	??_C@_0BB@OIALCABB@nRandomOptItemId@		; `string'
PUBLIC	??_C@_0N@JGBJEPOF@nPiercedSize@			; `string'
PUBLIC	??_C@_0M@CKDKEHJI@adwItemId?$CFd@		; `string'
PUBLIC	??_C@_0P@EMOPNFNN@nUMPiercedSize@		; `string'
PUBLIC	??_C@_0O@CKNMOIJG@adwUMItemId?$CFd@		; `string'
PUBLIC	??_C@_0FD@ENJJMBEA@Error?5dwKeepTime?5Over?5IdPlayer?5@ ; `string'
PUBLIC	??_C@_0BA@MDFHOBOH@?4?4?2SendItem?4log@		; `string'
PUBLIC	??_C@_0HN@IMBPIBGL@Error?5Not?5IK3_SOCKETCARD?5or?5IK3@ ; `string'
PUBLIC	??_C@_0GI@FIONNFMB@Error?5Not?5IK3_ULTIMATE?5Piercing@ ; `string'
PUBLIC	??_C@_0DJ@EFBCKMJH@Error?5Full?5IdPlayer?5?$DN?5?$CFd?0?5Playe@ ; `string'
PUBLIC	??_C@_02MMHFHELC@S5@				; `string'
PUBLIC	??_C@_0CA@KKFFOAIO@SendItemDeleteQuery?5?3?3?5nNo?5?$DN?5?$CFd@ ; `string'
PUBLIC	??_C@_01LOCGONAA@?$AA@				; `string'
PUBLIC	??_C@_0CA@NNMFHJHB@?$CFs?0?5?$CFd?7SendItemLogQuery?5LC?5?$DN?5?$CFs@ ; `string'
PUBLIC	??_C@_02OHFICHHB@S6@				; `string'
PUBLIC	??_C@_0FA@FBEKNGOJ@RemoveItem?3?3RemovePenya?5PlayerN@ ; `string'
PUBLIC	??_C@_01JPJNBJEM@I@				; `string'
PUBLIC	??_C@_01KNKLHLMO@K@				; `string'
PUBLIC	??_C@_02ONCLNIEI@LD@				; `string'
PUBLIC	??_C@_02POEDBGDA@S7@				; `string'
PUBLIC	??_C@_0CC@JAIICIEH@RemoveItemDeleteQuery?5?3?3?5nNo?5?$DN?5@ ; `string'
PUBLIC	??_C@_0CH@KMCLKLNM@DATABASESERVER?4EXE?7?1?1?5TIMEOUT?7?1@ ; `string'
PUBLIC	??_C@_0BD@HBPLBGFJ@MAX_QUERY_RESERVED@		; `string'
PUBLIC	??_C@_0BL@NNPLFPGA@?$CFs?0?5?$CFd?5CharacterDB?5Connect@ ; `string'
PUBLIC	??_C@_0BF@EDMIDCAN@?$CFs?0?5?$CFd?5LogDB?5Connect@ ; `string'
PUBLIC	??_C@_09GEIHMOKC@?$CFs?0?5?$CFd?7?$CFd@		; `string'
PUBLIC	??_C@_02LHLLMGKI@A1@				; `string'
PUBLIC	??_C@_06PKCJMADH@nError@			; `string'
PUBLIC	??_C@_02JMJGJFGL@A2@				; `string'
PUBLIC	??_C@_02INFFDHHJ@L3@				; `string'
PUBLIC	??_C@_02LPGDFFPL@L1@				; `string'
PUBLIC	??_C@_01BBODEMC@G@				; `string'
PUBLIC	??_C@_01DDCIFGEA@E@				; `string'
PUBLIC	??_C@_01LELAEKIP@J@				; `string'
PUBLIC	??_C@_02JKFNFHIA@D2@				; `string'
PUBLIC	??_C@_01OCOKONAJ@L@				; `string'
PUBLIC	??_C@_01DGKLNCNG@R@				; `string'
PUBLIC	??_C@_02IHLJJOMH@U2@				; `string'
PUBLIC	??_C@_02GEENEHAM@U9@				; `string'
PUBLIC	??_C@_02IDKLLEPC@UA@				; `string'
PUBLIC	??_C@_0BD@IPNMBMBH@DB?5open?5failed?3?5?$CFs@	; `string'
PUBLIC	??_C@_02KIBJLBLG@S1@				; `string'
PUBLIC	??_C@_0O@DJCBJIJC@sql?5error?3?5?$CFs@		; `string'
PUBLIC	??_C@_0M@PLIGOAEL@m_nGuildPxp@			; `string'
PUBLIC	??_C@_08LJMBJH@m_dwLogo@			; `string'
PUBLIC	??_C@_04ELDHCMNF@Lv_1@				; `string'
PUBLIC	??_C@_04GABKHPBG@Lv_2@				; `string'
PUBLIC	??_C@_04HJABEOFH@Lv_3@				; `string'
PUBLIC	??_C@_04DGEANIJA@Lv_4@				; `string'
PUBLIC	??_C@_05EIHALIDO@Pay_0@				; `string'
PUBLIC	??_C@_05FBGLIJHP@Pay_1@				; `string'
PUBLIC	??_C@_05HKEGNKLM@Pay_2@				; `string'
PUBLIC	??_C@_05GDFNOLPN@Pay_3@				; `string'
PUBLIC	??_C@_05CMBMHNDK@Pay_4@				; `string'
PUBLIC	??_C@_05MNGIIDJE@isuse@				; `string'
PUBLIC	??_C@_0L@EGGIJNBH@m_szNotice@			; `string'
PUBLIC	??_C@_09NKFNPOPN@m_szGuild@			; `string'
PUBLIC	??_C@_0N@OKFGMOPL@m_nGuildGold@			; `string'
PUBLIC	??_C@_06LJIKPPDH@m_nWin@			; `string'
PUBLIC	??_C@_0N@BBOGLCAO@m_nSurrender@			; `string'
PUBLIC	??_C@_07IGCLHJHO@m_nLose@			; `string'
PUBLIC	??_C@_0M@JODFLKFC@m_nMemberLv@			; `string'
PUBLIC	??_C@_0M@HNKDBIBK@m_nGiveGold@			; `string'
PUBLIC	??_C@_0L@NMIJIJEA@m_nGivePxp@			; `string'
PUBLIC	??_C@_06CPMNBCKA@m_nPay@			; `string'
PUBLIC	??_C@_08OHGENFKE@m_nClass@			; `string'
PUBLIC	??_C@_09GMKPPPNG@m_szAlias@			; `string'
PUBLIC	??_C@_0CP@CDEBBMEN@OpenGuild?$CI?$CJ?3?5Player?8s?5guild?5not@ ; `string'
PUBLIC	??_C@_08CEAAMJFI@m_nCount@			; `string'
PUBLIC	??_C@_08FLAIFKHC@m_nDeath@			; `string'
PUBLIC	??_C@_09EMDGDDAN@m_nAbsent@			; `string'
PUBLIC	??_C@_09PICHMPHK@f_idGuild@			; `string'
PUBLIC	??_C@_08KGFFFHIF@f_nCount@			; `string'
PUBLIC	??_C@_0N@PGCPANKN@f_nSurrender@			; `string'
PUBLIC	??_C@_08NJFNMEKP@f_nDeath@			; `string'
PUBLIC	??_C@_09LENGMIPK@f_nAbsent@			; `string'
PUBLIC	??_C@_05JNKNAC@State@				; `string'
PUBLIC	??_C@_09MHCEAAPI@StartTime@			; `string'
PUBLIC	??_C@_0M@CMDFKDOO@Max_m_idWar@			; `string'
PUBLIC	??_C@_02JOKCKPIG@U3@				; `string'
PUBLIC	??_C@_02NBODDJEB@U4@				; `string'
PUBLIC	??_C@_02JEEOAGDI@L2@				; `string'
PUBLIC	??_C@_02MCBEKBLO@L4@				; `string'
PUBLIC	??_C@_01EJNLAFE@P@				; `string'
PUBLIC	??_C@_02MIPIAIAA@U5@				; `string'
PUBLIC	??_C@_02KMJEMNAE@U1@				; `string'
PUBLIC	??_C@_02ODNFFLMD@U6@				; `string'
PUBLIC	??_C@_02PKMOGKIC@U7@				; `string'
PUBLIC	??_C@_02HNFGHGEN@U8@				; `string'
PUBLIC	??_C@_0BP@GKELCFPL@GUILD_BANK_STR?5?8S1?8?0?80?8?0?8?$CF02d?8@ ; `string'
PUBLIC	??_C@_0N@KMOLMNCJ@m_dwObjIndex@			; `string'
PUBLIC	??_C@_0M@GKPNPIJD@m_GuildBank@			; `string'
PUBLIC	??_C@_0DA@ILOCNCBH@OpenQuery?3?3GuildBank?5?3?5?$DM?$DM?5?G?A?$LH?N?F@ ; `string'
PUBLIC	??_C@_0DE@EMEGDAIE@OpenQueryGuildBank?3?3GuildBank?5?3@ ; `string'
PUBLIC	??_C@_0P@KBFNBDP@GuildBank?5?$DN?5?$CFs@	; `string'
PUBLIC	??_C@_0P@CLIOIOKN@m_extGuildBank@		; `string'
PUBLIC	??_C@_0BE@FOMLDJLH@m_GuildBankPiercing@		; `string'
PUBLIC	??_C@_0P@MOKIMIMD@szGuildBankPet@		; `string'
PUBLIC	??_C@_0EM@IIMCPEG@GUILD_BANK_STR?5?8U1?8?0?8?$CF06d?8?0?8?$CF02@ ; `string'
PUBLIC	??_C@_0BG@IEDKPGOM@update?5guild?5bank?3?$CFs?5@ ; `string'
PUBLIC	??_C@_01FHEEJDEE@A@				; `string'
PUBLIC	??_C@_01GFHCPBMG@C@				; `string'
PUBLIC	??_C@_01MJMHLOMK@O@				; `string'
PUBLIC	??_C@_0EG@JNIHMPIN@?$HLcall?5GUILD_VOTE_STR?$CI?8A1?8?0?5?8?$CF02@ ; `string'
PUBLIC	??_C@_08CKPDKKOC@m_idVote@			; `string'
PUBLIC	??_C@_01HIHLOKLC@1@				; `string'
PUBLIC	??_C@_01BMBHCPLG@5@				; `string'
PUBLIC	??_C@_01FDFGLJHB@2@				; `string'
PUBLIC	??_C@_01DHDKHMHF@6@				; `string'
PUBLIC	??_C@_01LAKCGALK@9@				; `string'
PUBLIC	??_C@_02NLAPJAPP@L5@				; `string'
PUBLIC	??_C@_0BL@KDGFHAAM@TAG_STR?5?8S1?8?0?8?$CF07d?8?0?8?$CF02d?8@ ; `string'
PUBLIC	??_C@_0L@HNPENDNB@f_idPlayer@			; `string'
PUBLIC	??_C@_0L@LAPNHMFE@CreateTime@			; `string'
PUBLIC	??_C@_09BLNNBFMB@m_Message@			; `string'
PUBLIC	??_C@_0DA@NNHGJBFH@?$HLcall?5TAG_STR?$CI?8A1?8?0?5?8?$CF07d?8?0?5?8?$CF0@ ; `string'
PUBLIC	??_C@_0DN@CKKFLCDF@MAIL_STR_REALTIME?5?8I1?8?0?5?8?$CF02d?8?0@ ; `string'
PUBLIC	??_C@_0BN@PDPGDDAD@EVENT_FINAL_STR?5?$CFd?0?5?8?$CFs?8?0?5?$CFd@ ; `string'
PUBLIC	??_C@_02DKCKIIND@?$CFs@				; `string'
PUBLIC	??_C@_03BMNKJJEN@?$CF2X@			; `string'
PUBLIC	??_C@_0CN@LNCMOBHM@GUILD_STR?5?8?$CFs?8?0?5?8?$CF07d?8?0?5?8?$CF02d?8?0@ ; `string'
PUBLIC	??_C@_0FJ@HHKHPFCF@?$HL?5call?5GUILD_STR?$CI?8?$CFs?8?0?8?$CF07d?8?0?8?$CF@ ; `string'
PUBLIC	??_C@_0BAO@JKIGAOFG@GUILD_STR?5?8?$CFs?8?0?$EAim_idPlayer?$DN?8?$CF0@ ; `string'
PUBLIC	??_C@_0MK@MCIFOGJG@GUILD_VOTE_STR?5?8?$CFs?8?0?$EAiserverind@ ; `string'
PUBLIC	??_C@_0CKG@MADPJMIC@MAIL_STR?5?8?$CFs?8?0?5?$EAnMail?$DN?$CFd?0?5?$EAserv@ ; `string'
PUBLIC	??_C@_0OE@KCDNCHPE@?$HLcall?5MAIL_STR?$CI?8A1?8?0?5?$CFd?0?5?8?$CF02d?8@ ; `string'
PUBLIC	??_C@_0BCE@MMOBOKBO@LOG_GUILD_STR?5?8?$CFs?8?0?5?$EAim_idGuild@ ; `string'
PUBLIC	??_C@_0KO@DDIBDPG@GUILD_WAR_STR?5?8?$CFs?8?0?5?$EAim_idGuild@ ; `string'
PUBLIC	??_C@_0DP@DCDKAHLJ@GUILD_QUEST_STR?5?8S1?8?0?5?$EAim_idGui@ ; `string'
PUBLIC	??_C@_04PCGLMGNG@n_Id@				; `string'
PUBLIC	??_C@_06PHLKOEGH@nState@			; `string'
PUBLIC	??_C@_0FA@FDANEHMA@GUILD_QUEST_STR?5?8A1?8?0?5?$EAim_idGui@ ; `string'
PUBLIC	??_C@_0GA@CLKCMNNA@GUILD_QUEST_STR?5?8U1?8?0?5?$EAim_idGui@ ; `string'
PUBLIC	??_C@_0BH@GAPFOFID@?$CFs?0?5?$CFd?5GuildDB?5Connect@ ; `string'
PUBLIC	??_C@_06OGJBEOJA@s_date@			; `string'
PUBLIC	??_C@_05GFJMHCNE@szMsg@				; `string'
PUBLIC	??_C@_0DB@KOHEIOIA@?$HLcall?5WANTED_STR?$CI?8?$CFs?8?0?5?8?$CF07d?8?0?5@ ; `string'
PUBLIC	??_C@_0CM@EJCKDEFK@uspJoinGuildToCombat?5?$CFd?0?8?$CF02d?8?0@ ; `string'
PUBLIC	??_C@_0BA@IIAEJKPG@InGuildCombat?$CI?$CJ@	; `string'
PUBLIC	??_C@_0CI@EJAHEGHN@uspCancelGuildToCombat?5?$CFd?0?8?$CF02d@ ; `string'
PUBLIC	??_C@_0BB@EDMDACEN@OutGuildCombat?$CI?$CJ@	; `string'
PUBLIC	??_C@_0CO@BNIBLMPA@uspExpireCombatReward?5?$CFd?0?8?$CF02d?8@ ; `string'
PUBLIC	??_C@_0BD@PNIGBKED@StartGuildCombat?$CI?$CJ@	; `string'
PUBLIC	??_C@_0BJ@CLBMDGDM@uspStartCombat?5?$CFd?0?8?$CF02d?8@ ; `string'
PUBLIC	??_C@_0BH@MKFOPHIL@uspEndCombat?5?$CFd?0?8?$CF02d?8@ ; `string'
PUBLIC	??_C@_0BE@NMGDAPPA@ResultGuildCombat?$CI?$CJ@	; `string'
PUBLIC	??_C@_0DE@EEINKKMK@uspGradeCombatGuild?5?$CFd?0?8?$CF02d?8?0?8@ ; `string'
PUBLIC	??_C@_0DG@MGFCFIEM@uspGradeCombatPlayer?5?$CFd?0?8?$CF02d?8?0@ ; `string'
PUBLIC	??_C@_0CG@LDEOKNJJ@uspRewardCombatGuild?5?$CFd?0?8?$CF02d?8?0@ ; `string'
PUBLIC	??_C@_0BL@IGFAIGBP@GetPenyaGuildGuildCombat?$CI?$CJ@ ; `string'
PUBLIC	??_C@_0CO@OINAGGIG@uspRewardCombatPlayer?5?$CFd?0?8?$CF02d?8@ ; `string'
PUBLIC	??_C@_0CG@NOPCGOFE@uspCombatContinue?5?$CFd?0?8?$CF02d?8?0?8?$CF0@ ; `string'
PUBLIC	??_C@_0BE@KMMJEDHC@CanJoin?5?9?5time?5over@	; `string'
PUBLIC	??_C@_0BC@FNOOOHFC@CanJoin?5?9?5playing@	; `string'
PUBLIC	??_C@_0BN@FNDLJFJF@CanJoin?5?9?5cur?3?$CFd?5prevent?3?$CFd?6@ ; `string'
PUBLIC	??_C@_0DC@NHEFPHKG@DATABASESERVER?4EXE?7?1?1?5QM_SET_PL@ ; `string'
PUBLIC	??_C@_0DB@MCIALMAF@DATABASESERVER?4EXE?7?1?1?5QM_SET_PL@ ; `string'
PUBLIC	??_C@_0FN@KPKFIGLG@uspChangeNameLog?5?$EApserverindex?5@ ; `string'
PUBLIC	??_C@_0BB@OFMJHKHO@query?5failed?3?5?$CFs@	; `string'
PUBLIC	??_C@_02BAABKJLB@?9?9@				; `string'
PUBLIC	??_C@_01GEODFPGF@?8@				; `string'
PUBLIC	??_C@_02FMMEOLBI@?1?$CK@			; `string'
PUBLIC	??_C@_02CHHINNLG@?$CK?1@			; `string'
PUBLIC	??_C@_0CF@ELOMHAGM@DATABASESERVER?4EXE?7?1?1?5QM_SNOOPG@ ; `string'
PUBLIC	??_C@_0FP@EJDDILN@LOG_GAMEMASTER_STR?5?5?8?$EAim_idPlay@ ; `string'
PUBLIC	??_C@_0BD@PFKACCAG@CHARACTER_STR?5?8?$CFs?8@	; `string'
PUBLIC	??_C@_0DJ@LJFJGNAH@?0?$EAim_idPlayer?$DN?8?$CF07d?8?0?$EAiserverin@ ; `string'
PUBLIC	??_C@_0FL@NCAPLAPN@?0?$EAim_szName?$DN?8?$CFs?8?0?$EAiplayerslot?$DN?$CF@ ; `string'
PUBLIC	??_C@_0KK@HNNIBLOG@?0?$EAim_vPos_z?$DN?$CFf?0?$EAim_szCharacterK@ ; `string'
PUBLIC	??_C@_0JP@DGKOHOMP@?0?$EAim_nHitPoint?$DN?$CFd?0?$EAim_nManaPoin@ ; `string'
PUBLIC	??_C@_0LC@ODPEDFFA@?0?$EAim_nInt?$DN?$CFd?0?$EAim_nLevel?$DN?$CFd?0?$EAim_@ ; `string'
PUBLIC	??_C@_0LC@FIOHKONH@?0?$EAim_vMarkingPos_y?$DN?$CFf?0?$EAim_vMark@ ; `string'
PUBLIC	??_C@_0JC@GMDCCAGD@?0?$EAim_idparty?$DN?$CFd?0?$EAim_idMuerderer@ ; `string'
PUBLIC	??_C@_0MB@FOFPDGBJ@?0?$EAim_Card?$DN?8?$CFs?8?0?$EAim_Index_Card?$DN?8@ ; `string'
PUBLIC	??_C@_0KJ@DJDBFKF@?0?$EAim_aSlotApplet?$DN?8?$CFs?8?0?$EAim_aSlot@ ; `string'
PUBLIC	??_C@_0BC@EDMPNKPP@?0?$EAim_tmAccFuel?$DN?$CFd@	; `string'
PUBLIC	??_C@_0BD@KHHFKGDJ@?0?$EAim_dwSMTime?$DN?8?$CFs?8@ ; `string'
PUBLIC	??_C@_0BH@EDEAODML@?0?$EAiSkillInfluence?$DN?8?$CFs?8@ ; `string'
PUBLIC	??_C@_0BJ@BDOACMMJ@?0?$EAim_aCompleteQuest?$DN?8?$CFs?8@ ; `string'
PUBLIC	??_C@_0FK@JAPGNBAO@?0?$EAim_extInventory?$DN?8?$CFs?8?0?$EAim_Inve@ ; `string'
PUBLIC	??_C@_0FE@ICFAFHCC@?0?$EAim_dwReturnWorldID?$DN?$CFd?0?$EAim_vRe@ ; `string'
PUBLIC	??_C@_0DG@CEHLEBAH@?0?$EAim_nPKValue?$DN?$CFd?0?$EAim_dwPKPropen@ ; `string'
PUBLIC	??_C@_0CI@GMBADEAJ@?0?$EAim_nAngelExp?$DN?$CFI64d?0?$EAim_nAngel@ ; `string'
PUBLIC	??_C@_0DI@PBKCLAFF@?0?$EAiszInventoryPet?$DN?8?$CFs?8?0?$EAiszBank@ ; `string'
PUBLIC	??_C@_0CF@NIIHNAO@?0?$EAim_nExpLog?$DN?$CFd?0?5?$EAim_nAngelExpL@ ; `string'
PUBLIC	??_C@_0BA@FCMCBGBG@?0?$EAim_nCoupon?$DN?$CFd@	; `string'
PUBLIC	??_C@_0P@EPLIBMKG@?0?$EAim_nHonor?$DN?$CFd@	; `string'
PUBLIC	??_C@_0P@EDMNOLO@?0?$EAim_nLayer?$DN?$CFd@	; `string'
PUBLIC	??_C@_0BF@EMLOFKFO@?0?$EAim_nCampusPoint?$DN?$CFd@ ; `string'
PUBLIC	??_C@_0BB@JGGKBODG@?0?$EAim_idCampus?$DN?$CFd@	; `string'
PUBLIC	??_C@_0BI@FFKLHCEE@?0?$EAim_aCheckedQuest?$DN?8?$CFs?8@ ; `string'
PUBLIC	??_C@_0CC@LDFDNPIJ@CDbManager?3?3BankToItemSendTblLi@ ; `string'
PUBLIC	??_C@_0BAN@GJDOADPE@select?5a?4m_idPlayer?0?5a?4serverin@ ; `string'
PUBLIC	??_C@_04HIJGGAH@Exec@				; `string'
PUBLIC	??_C@_05MFAGOMAN@Fetch@				; `string'
PUBLIC	??_C@_0EA@DEFMDJID@idPlayer?3?$CF07d?7Item?3?$CFs?$CI?$CFd?$CJ?7nItem@ ; `string'
PUBLIC	??_C@_0BJ@PCPIAEMP@?4?4?2BankToItemSendTbl?4log@ ; `string'
PUBLIC	??_C@_0BB@JODCJAP@adwItemId?$FL?$CFd?$FN?3?$CFd@ ; `string'
PUBLIC	??_C@_0MF@BFPKDDCH@insert?5ITEM_SEND_TBL?5?$CIm_idPlaye@ ; `string'
PUBLIC	??_C@_0BF@BKMLAAOE@insert?5ITEM_SEND_TBL@	; `string'
PUBLIC	??_C@_0IG@OELLNNGM@UPDATE?5BANK_TBL?5SET?5m_Bank?5?$DN?5?8?$CF@ ; `string'
PUBLIC	??_C@_0BA@HFOKCGBB@UPDATE?5BANK_TBL@		; `string'
PUBLIC	??_C@_0HD@HOMCPDMG@UPDATE?5BANK_EXT_TBL?5SET?5m_extBa@ ; `string'
PUBLIC	??_C@_0BE@BNFPHPPG@UPDATE?5BANK_EXT_TBL@	; `string'
PUBLIC	??_C@_0CH@PBNBEFFM@CDbManager?3?3InventoryToItemSend@ ; `string'
PUBLIC	??_C@_0BIN@CNDOPEGJ@select?5a?4m_idPlayer?0?5a?4serverin@ ; `string'
PUBLIC	??_C@_08JIMIMGKM@m_dwGold@			; `string'
PUBLIC	??_C@_0GK@CBFEPGLL@insert?5ITEM_SEND_TBL?5?$CIm_idPlaye@ ; `string'
PUBLIC	??_C@_0FJ@NHANCDN@UPDATE?5CHARACTER_TBL?5SET?5m_dwGo@ ; `string'
PUBLIC	??_C@_0BO@KJCAOGEE@?4?4?2InventoryToItemSendTbl?4log@ ; `string'
PUBLIC	??_C@_0IG@DEIOPEPG@UPDATE?5INVENTORY_TBL?5SET?5m_Inve@ ; `string'
PUBLIC	??_C@_0BF@IADJBACK@UPDATE?5INVENTORY_TBL@	; `string'
PUBLIC	??_C@_0IC@GOCAMAFG@UPDATE?5INVENTORY_EXT_TBL?5SET?5m_@ ; `string'
PUBLIC	??_C@_0BJ@HNFBAJDL@UPDATE?5INVENTORY_EXT_TBL@	; `string'
PUBLIC	??_C@_0BO@DDHKBCOE@Error?5?3?5Can?8t?5connect?5CHAR_DB@ ; `string'
PUBLIC	??_C@_0BF@PHJIKFAC@QUERY?3?5MAIL_STR?5?8S1?8@	; `string'
PUBLIC	??_C@_0L@MIEGLFNJ@idReceiver@			; `string'
PUBLIC	??_C@_05NBHEOIOM@nMail@				; `string'
PUBLIC	??_C@_08DGMAKEOL@idSender@			; `string'
PUBLIC	??_C@_08LAFHOFHA@GoldFlag@			; `string'
PUBLIC	??_C@_05LFAJMPJN@nGold@				; `string'
PUBLIC	??_C@_08FFGEDIPJ@tmCreate@			; `string'
PUBLIC	??_C@_06FEDILFGK@byRead@			; `string'
PUBLIC	??_C@_07EODNPMDA@szTitle@			; `string'
PUBLIC	??_C@_06MFHACPLA@szText@			; `string'
PUBLIC	??_C@_08OLNDAHIE@ItemFlag@			; `string'
PUBLIC	??_C@_08BJIIBDAC@dwItemId@			; `string'
PUBLIC	??_C@_0CA@CMMNIEML@CDbManager?4LoadPost?3?5duplicated@ ; `string'
PUBLIC	??_C@_0BJ@FKNELFCI@ERROR?3?5LoadPost?3?5AddMail@ ; `string'
PUBLIC	??_C@_0CG@DHJGMPFF@uspLoadMaxMailID?5?$EApserverindex?$DN@ ; `string'
PUBLIC	??_C@_0BI@DPOGOKDO@QUERY?3?5uspLoadMaxMailID@	; `string'
PUBLIC	??_C@_09KLGEKNNE@MaxMailID@			; `string'
PUBLIC	??_C@_06HOEPIFBB@nCount@			; `string'
PUBLIC	??_C@_0DG@PNAACHHM@CDbManager?4LoadPost?3?5count?5?9?$DO?5c@ ; `string'
PUBLIC	??_C@_0BH@EKOCNHPB@MaxMailID?5is?5not?5valid@	; `string'
PUBLIC	??_C@_08NNOOICHN@bCharged@			; `string'
PUBLIC	??_C@_0M@EGDFJGBE@bItemResist@			; `string'
PUBLIC	??_C@_06JHHNJIGB@byFlag@			; `string'
PUBLIC	??_C@_0L@KFLIHONN@dwKeepTime@			; `string'
PUBLIC	??_C@_0P@MANOGNLM@dwSerialNumber@		; `string'
PUBLIC	??_C@_07PJNICPF@idGuild@			; `string'
PUBLIC	??_C@_07BEFEKOPM@nOption@			; `string'
PUBLIC	??_C@_09DJEKEHMH@nHitPoint@			; `string'
PUBLIC	??_C@_0N@DEIHLBJE@nMaxHitPoint@			; `string'
PUBLIC	??_C@_08GDJLCBND@nItemNum@			; `string'
PUBLIC	??_C@_0O@ICNEFFIB@nRepairNumber@		; `string'
PUBLIC	??_C@_0BF@CKLODGMG@nResistAbilityOption@	; `string'
PUBLIC	??_C@_0BA@FAGCDGFP@nResistSMItemId@		; `string'
PUBLIC	??_C@_04BEGNJGFE@bPet@				; `string'
PUBLIC	??_C@_05FGBGKJCO@nKind@				; `string'
PUBLIC	??_C@_06FJFCPHDD@nLevel@			; `string'
PUBLIC	??_C@_05EPLNMHNO@dwExp@				; `string'
PUBLIC	??_C@_07DLAEADNL@wEnergy@			; `string'
PUBLIC	??_C@_05NHOHEGJE@wLife@				; `string'
PUBLIC	??_C@_0P@JACMMJEE@anAvailLevel_D@		; `string'
PUBLIC	??_C@_0P@NPGNFPID@anAvailLevel_C@		; `string'
PUBLIC	??_C@_0P@MGHGGOMC@anAvailLevel_B@		; `string'
PUBLIC	??_C@_0P@ONFLDNAB@anAvailLevel_A@		; `string'
PUBLIC	??_C@_0P@JFKPENNC@anAvailLevel_S@		; `string'
PUBLIC	??_C@_09EEEBIONF@szPetName@			; `string'
PUBLIC	??_C@_04HIBGFPH@NULL@				; `string'
PUBLIC	??_C@_0CA@ECEDHJA@QUERY?3?5PACKETTYPE_QUERYPOSTMAIL@ ; `string'
PUBLIC	??_C@_0CD@KPIPNEMM@idSender?5?3?5?$CFd?0?5pMail?9?$DOm_nMail?5?3@ ; `string'
PUBLIC	??_C@_0CC@BJEEPENO@QUERY?3?5PACKETTYPE_QUERYREMOVEMA@ ; `string'
PUBLIC	??_C@_0CD@KCADOMMI@QUERY?3?5PACKETTYPE_QUERYGETMAILI@ ; `string'
PUBLIC	??_C@_0BL@CALLEKMB@QUERY?3?5PACKETTYPE_READMAIL@ ; `string'
PUBLIC	??_C@_0DL@HHOALFKH@CDbManager?3?3ReadMail?5?9?5pMailBox@ ; `string'
PUBLIC	??_C@_07LEPKGKEM@?$CF07d?7?$CFd@		; `string'
PUBLIC	??_C@_0O@OACAKGLM@?4?4?1result?4txt@		; `string'
PUBLIC	??_C@_0HH@DDKDALIE@SELECT?5?$CK?5FROM?5INVENTORY_TBL?5a?0?5@ ; `string'
PUBLIC	??_C@_0DK@GKGMKIJO@m_idPlayer?7serverindex?7m_Invent@ ; `string'
PUBLIC	??_C@_0BF@JIBKJJCL@?4?4?1INVENTORY_TBL?4txt@	; `string'
PUBLIC	??_C@_0EJ@DGGHAJNG@m_idPlayer?7serverindex?7m_extInv@ ; `string'
PUBLIC	??_C@_0BJ@FFBMFPIF@?4?4?1INVENTORY_EXT_TBL?4txt@ ; `string'
PUBLIC	??_C@_0M@HAMDNNBG@serverindex@			; `string'
PUBLIC	??_C@_0BD@LHGEEOKG@?$CF07d?7?$CF02d?7?$CFs?7?$CFs?7?$CFs@ ; `string'
PUBLIC	??_C@_0GN@BCBCENKE@SELECT?5?$CK?5FROM?5BANK_TBL?5a?0?5BANK_@ ; `string'
PUBLIC	??_C@_0DP@CMACDDNJ@m_idPlayer?7serverindex?7m_Bank?7m@ ; `string'
PUBLIC	??_C@_0BA@BCFIDMBA@?4?4?1BANK_TBL?4txt@		; `string'
PUBLIC	??_C@_0DK@IJEACFPL@m_idPlayer?7serverindex?7m_extBan@ ; `string'
PUBLIC	??_C@_0BE@GCKHPIBH@?4?4?1BANK_EXT_TBL?4txt@	; `string'
PUBLIC	??_C@_0HH@JAIOEOEA@SELECT?5?$CK?5FROM?5GUILD_BANK_TBL?5a?0@ ; `string'
PUBLIC	??_C@_0DJ@OBFCJGNM@m_idGuild?7serverindex?7m_apIndex@ ; `string'
PUBLIC	??_C@_0BG@NCOMJCF@?4?4?1GUILD_BANK_TBL?4txt@	; `string'
PUBLIC	??_C@_0EI@GHICJNOK@m_idGuild?7serverindex?7m_extGuil@ ; `string'
PUBLIC	??_C@_0BK@OCDAJCDK@?4?4?1GUILD_BANK_EXT_TBL?4txt@ ; `string'
PUBLIC	??_C@_0BD@DAMCIFOF@?$CF06d?7?$CF02d?7?$CFs?7?$CFs?7?$CFs@ ; `string'
PUBLIC	??_C@_0KD@MNBFCJME@SELECT?5?$CK?5FROM?5tblPocket?5A?0?5tblP@ ; `string'
PUBLIC	??_C@_0DH@GGHKPBNC@serverindex?7idPlayer?7nPocket?7sz@ ; `string'
PUBLIC	??_C@_0BB@HAEOEKEN@?4?4?1tblPocket?4txt@	; `string'
PUBLIC	??_C@_0DE@LAEMGOFC@serverindex?7idPlayer?7nPocket?7sz@ ; `string'
PUBLIC	??_C@_0BE@FJBMKGKC@?4?4?1tblPocketExt?4txt@	; `string'
PUBLIC	??_C@_08EPHCN@idPlayer@				; `string'
PUBLIC	??_C@_07LCDBAOIB@nPocket@			; `string'
PUBLIC	??_C@_0BG@CBIMLIMH@?$CF02d?7?$CF07d?7?$CFd?7?$CFs?7?$CFs?7?$CFs@ ; `string'
PUBLIC	??_C@_0CL@LFKEKIPO@CDbManager?4ConvertPocket?3?5Creat@ ; `string'
PUBLIC	??_C@_0CK@DDAJLKOF@CDbManager?4ConvertPocket?3?5CQuer@ ; `string'
PUBLIC	??_C@_0CE@CPGGFAKH@serverindex?7idPlayer?7nPocket?7sz@ ; `string'
PUBLIC	??_C@_0BA@MDMAPKMI@?$CF02d?7?$CF07d?7?$CFd?7?$CFs@ ; `string'
PUBLIC	??_C@_0BK@FIGGLKOA@CDbManager?3?3ConvInventory@	; `string'
PUBLIC	??_C@_0CD@MKJMHBED@serverindex?7m_idPlayer?7m_Invent@ ; `string'
PUBLIC	??_C@_0N@GFPOFJFP@?$CF02d?7?$CF07d?7?$CFs@	; `string'
PUBLIC	??_C@_0BF@CMCNBL@CDbManager?3?3ConvBank@	; `string'
PUBLIC	??_C@_0GN@JDBFMHMA@SELECT?5?$CK?5FROM?5BANK_TBL?5a?0?5BANK_@ ; `string'
PUBLIC	??_C@_0BO@PEHNHEDG@serverindex?7m_idPlayer?7m_Bank@ ; `string'
PUBLIC	??_C@_0BK@FKNEADBP@CDbManager?3?3ConvGuildBank@	; `string'
PUBLIC	??_C@_0CC@COOJDPKE@serverindex?7m_idGuild?7m_GuildBa@ ; `string'
PUBLIC	??_C@_0N@KOKCIKPK@?$CF02d?7?$CF06d?7?$CFs@	; `string'
PUBLIC	??_C@_0BF@MMPPICOH@mapItemRemove?4insert@	; `string'
PUBLIC	??_C@_0BH@OPHLOKH@CDbManager?3?3ItemRemove@	; `string'
PUBLIC	??_C@_0BGH@KPGJKMCJ@select?5a?4m_idPlayer?0?5a?4serverin@ ; `string'
PUBLIC	??_C@_0DJ@PBBHLOPB@inventory?3?5idPlayer?5?$DN?5?$CFd?0?5dwID?5@ ; `string'
PUBLIC	??_C@_06LBEKKGMJ@ir?4txt@			; `string'
PUBLIC	??_C@_01MCMALHOG@a@				; `string'
PUBLIC	??_C@_0N@LKAEPFJD@?4?4?1query?4txt@		; `string'
PUBLIC	??_C@_04EINJHBMM@?6?$CFs?6@			; `string'
PUBLIC	??_C@_0PD@OEMJFGPG@select?5a?4m_idPlayer?0?5a?4serverin@ ; `string'
PUBLIC	??_C@_0DE@GPOKEEID@bank?3?5idPlayer?5?$DN?5?$CFd?0?5dwID?5?$DN?5?$CFd?0@ ; `string'
PUBLIC	??_C@_0NG@PHBJMPIL@select?5a?4m_idGuild?0?5a?4m_GuildBa@ ; `string'
PUBLIC	??_C@_0DI@GEFIEHGN@guildbank?3?5idGuild?5?$DN?5?$CFd?0?5dwID?5?$DN@ ; `string'
PUBLIC	??_C@_0FP@DEDGGBGG@UPDATE?5GUILD_BANK_TBL?5SET?5m_Gui@ ; `string'
PUBLIC	??_C@_0IC@KHIDFCII@UPDATE?5GUILD_BANK_EXT_TBL?5SET?5m@ ; `string'
PUBLIC	??_C@_0BP@KOPLDONM@MAIL_STR_REALTIME?5?8S1?8?0?5?8?$CF02d?8@ ; `string'
PUBLIC	??_C@_0DE@EKKMGPFE@CDbManager?3?3QueryGetMailRealTim@ ; `string'
PUBLIC	??_C@_0EF@BJPFLODJ@MAIL_STR_REALTIME?5?8U1?8?0?5?8?$CF02d?8?0@ ; `string'
PUBLIC	??_C@_0DG@DMKGMKOD@uspLoadRemoveItemFromGuildBank?5@ ; `string'
PUBLIC	??_C@_09BCMGNEG@query?3?5?$CFs@			; `string'
PUBLIC	??_C@_04OGHNFBJB@nNum@				; `string'
PUBLIC	??_C@_09LCBEKCCJ@ItemIndex@			; `string'
PUBLIC	??_C@_0O@ECBDOICL@ItemSerialNum@		; `string'
PUBLIC	??_C@_0BB@FCOKAIDL@DeleteRequestCnt@		; `string'
PUBLIC	??_C@_0EO@DKAHJDFB@uspRemoveItemFromGuildBank?5?$EApse@ ; `string'
PUBLIC	??_C@_0GF@LOJEILLI@uspLoggingQuest?5?$EApserverindex?$DN?8@ ; `string'
PUBLIC	??_C@_0EP@MIHLCFHN@uspChangeMultiServer?5?$EApserverin@ ; `string'
PUBLIC	??_C@_0DK@KDNCKHOO@uspInitMultiServer?5?$EApserverinde@ ; `string'
PUBLIC	??_C@_0CB@DMBKHGMN@MakeRequest?5uBufSize?5Error?4?5?$FL?$CFd@ ; `string'
PUBLIC	??_C@_0OG@KMFCLIJI@uspPetLog?5?$EAserverindex?$DN?8?$CF02d?8?0?5@ ; `string'
PUBLIC	??_C@_0BM@HLDLDGNI@start?5?9?5RestorePetInventory@ ; `string'
PUBLIC	??_C@_0CA@JAHJBJJ@CDbManager?3?3RestorePetInventory@ ; `string'
PUBLIC	??_C@_0FP@OHDIOOFM@UPDATE?5INVENTORY_TBL?5SET?5m_Inve@ ; `string'
PUBLIC	??_C@_0BH@BJANLFIN@?4?4?1queryRestorePet?4txt@	; `string'
PUBLIC	??_C@_0GG@HFCIKCGD@UPDATE?5INVENTORY_EXT_TBL?5SET?5sz@ ; `string'
PUBLIC	??_C@_0BK@ONMHOHHK@end?5?9?5RestorePetInventory@ ; `string'
PUBLIC	??_C@_0BH@ENINMJJ@start?5?9?5RestorePetBank@	; `string'
PUBLIC	??_C@_0BL@HNKNAFDN@CDbManager?3?3RestorePetBank@ ; `string'
PUBLIC	??_C@_0FF@DFEDHFCM@UPDATE?5BANK_TBL?5SET?5m_Bank?5?$DN?5?8?$CF@ ; `string'
PUBLIC	??_C@_0FM@PKPOFIFO@UPDATE?5BANK_EXT_TBL?5SET?5szBankP@ ; `string'
PUBLIC	??_C@_0BF@MCAIFGLF@end?5?9?5RestorePetBank@	; `string'
PUBLIC	??_C@_0BM@HJIJIPCH@start?5?9?5RestorePetGuildBank@ ; `string'
PUBLIC	??_C@_0CA@LLFCIGG@CDbManager?3?3RestorePetGuildBank@ ; `string'
PUBLIC	??_C@_0GG@GFGBICBP@UPDATE?5GUILD_BANK_EXT_TBL?5SET?5s@ ; `string'
PUBLIC	??_C@_0BK@OPHFFOIF@end?5?9?5RestorePetGuildBank@ ; `string'
PUBLIC	??_C@_0CA@PDNDPAMH@uspLoadMessenger?5?8?$CF02d?8?0?5?8?$CF07d?8@ ; `string'
PUBLIC	??_C@_08HKEMEOC@idFriend@			; `string'
PUBLIC	??_C@_06MPDFGMCG@bBlock@			; `string'
PUBLIC	??_C@_0BG@GGFFMFCN@TOO?5MANY?5FRIEND?3?5?$CF07d@ ; `string'
PUBLIC	??_C@_0CH@GBFJOBCN@uspAddMessenger?5?8?$CF02d?8?0?5?8?$CF07d?8?0@ ; `string'
PUBLIC	??_C@_0CO@DFECOHGC@uspUpdateMessenger?5?8?$CF02d?8?0?5?8?$CF07@ ; `string'
PUBLIC	??_C@_0CG@PBHEGNLO@usp_Guild_Combat_1to1_CombatID?5@ ; `string'
PUBLIC	??_C@_0EA@ILDJOCIO@usp_Guild_Combat_1to1_Tender?5?8?$CF@ ; `string'
PUBLIC	??_C@_08ECDGCCLD@m_nPenya@			; `string'
PUBLIC	??_C@_0EP@KOOMDGDB@usp_Guild_Combat_1to1_Battle_Pe@ ; `string'
PUBLIC	??_C@_0EA@IJNHPDJL@usp_Guild_Combat_1to1_Tender?5?8?$CF@ ; `string'
PUBLIC	??_C@_0EA@JDBIBLLM@usp_Guild_Combat_1to1_Tender?5?8?$CF@ ; `string'
PUBLIC	??_C@_0EI@DGFNPOKD@usp_Guild_Combat_1to1_Battle?5?8?$CF@ ; `string'
PUBLIC	??_C@_0DN@JBFEHHGD@LOGGING_01_DBF?4dbo?4usp_guildban@ ; `string'
PUBLIC	??_C@_02JKCPNDDE@S3@				; `string'
PUBLIC	??_C@_06FKNLKGFE@m_Item@			; `string'
PUBLIC	??_C@_0BM@MKCMNEMP@uspLoadSealChar?5?8?$CF02d?8?0?8?$CFs?8@ ; `string'
PUBLIC	??_C@_0BN@FEMGGHOI@uspSetSealChar?5?8?$CF02d?8?0?8?$CF07d?8@ ; `string'
PUBLIC	??_C@_0DE@FFNJAEOO@uspSetSealCharUpdate?5?8?$CF02d?8?0?8?$CF0@ ; `string'
PUBLIC	??_C@_0CI@FCPAJADN@usp_BankPW_Check?5?8?$CF02d?8?0?5?8?$CF07d?8@ ; `string'
PUBLIC	??_C@_07LOIGJBKI@f_check@			; `string'
PUBLIC	__real@4f000000
PUBLIC	__xmm@00000000000000000000006400000064
EXTRN	??_L@YGXPAXIIP6EX0@Z1@Z:PROC			; `eh vector constructor iterator'
EXTRN	??2@YAPAXI@Z:PROC				; operator new
EXTRN	??3@YAXPAXI@Z:PROC				; operator delete
EXTRN	??_U@YAPAXI@Z:PROC				; operator new[]
EXTRN	??_V@YAXPAX@Z:PROC				; operator delete[]
EXTRN	??_V@YAXPAXI@Z:PROC				; operator delete[]
EXTRN	_atexit:PROC
EXTRN	___report_rangecheckfailure:PROC
EXTRN	__Init_thread_header:PROC
EXTRN	__Init_thread_abort:PROC
EXTRN	__Init_thread_footer:PROC
EXTRN	__invalid_parameter_noinfo:PROC
EXTRN	__invoke_watson:PROC
EXTRN	__errno:PROC
EXTRN	_strncat:PROC
EXTRN	_strncpy:PROC
EXTRN	__imp__OutputDebugStringA@4:PROC
EXTRN	__imp__CloseHandle@4:PROC
EXTRN	__imp__CreateIoCompletionPort@16:PROC
EXTRN	__imp__GetQueuedCompletionStatus@20:PROC
EXTRN	__imp__PostQueuedCompletionStatus@16:PROC
EXTRN	__imp__InitializeCriticalSection@4:PROC
EXTRN	__imp__EnterCriticalSection@4:PROC
EXTRN	__imp__LeaveCriticalSection@4:PROC
EXTRN	__imp__InitializeCriticalSectionAndSpinCount@8:PROC
EXTRN	__imp__DeleteCriticalSection@4:PROC
EXTRN	__imp__SetEvent@4:PROC
EXTRN	__imp__WaitForSingleObject@8:PROC
EXTRN	__imp__CreateEventA@16:PROC
EXTRN	__imp__WaitForMultipleObjects@16:PROC
EXTRN	__imp__SetThreadPriority@8:PROC
EXTRN	__imp__GetTickCount@0:PROC
EXTRN	__imp__VirtualAlloc@16:PROC
EXTRN	__imp__VirtualFree@12:PROC
EXTRN	__imp__LoadResource@8:PROC
EXTRN	__imp__LockResource@4:PROC
EXTRN	__imp__SizeofResource@8:PROC
EXTRN	__imp__FindResourceW@12:PROC
EXTRN	__imp__lstrcmpA@8:PROC
EXTRN	__imp__lstrcpyA@8:PROC
EXTRN	__imp__lstrlenA@4:PROC
EXTRN	__imp__WideCharToMultiByte@32:PROC
EXTRN	__mbsstr:PROC
EXTRN	_fclose:PROC
EXTRN	_fopen:PROC
EXTRN	___stdio_common_vfprintf:PROC
EXTRN	___stdio_common_vsprintf:PROC
EXTRN	_atoi:PROC
EXTRN	__atoi64:PROC
EXTRN	__ultoa:PROC
EXTRN	__localtime64_s:PROC
EXTRN	__mktime64:PROC
EXTRN	_strftime:PROC
EXTRN	__time32:PROC
EXTRN	__time64:PROC
EXTRN	?AfxThrowMemoryException@@YGXXZ:PROC		; AfxThrowMemoryException
EXTRN	?AfxThrowInvalidArgException@@YGXXZ:PROC	; AfxThrowInvalidArgException
EXTRN	?AfxThrowOleException@@YGXJ@Z:PROC		; AfxThrowOleException
EXTRN	?AfxFindStringResourceHandle@@YGPAUHINSTANCE__@@I@Z:PROC ; AfxFindStringResourceHandle
EXTRN	?AfxGetStringManager@@YGPAUIAtlStringMgr@ATL@@XZ:PROC ; AfxGetStringManager
EXTRN	__beginthreadex:PROC
EXTRN	?AfxMessageBox@@YGHPBDII@Z:PROC			; AfxMessageBox
EXTRN	?_Xlength_error@std@@YAXPBD@Z:PROC		; std::_Xlength_error
EXTRN	___std_exception_copy:PROC
EXTRN	___std_exception_destroy:PROC
EXTRN	??_Eexception@std@@UAEPAXI@Z:PROC		; std::exception::`vector deleting destructor'
EXTRN	??_Ebad_alloc@std@@UAEPAXI@Z:PROC		; std::bad_alloc::`vector deleting destructor'
EXTRN	??_Ebad_array_new_length@std@@UAEPAXI@Z:PROC	; std::bad_array_new_length::`vector deleting destructor'
EXTRN	??_ECMclCritSec@@UAEPAXI@Z:PROC			; CMclCritSec::`vector deleting destructor'
EXTRN	?Error@@YAPBDPBDZZ:PROC				; Error
EXTRN	?StringTrimRight@@YAXPAD@Z:PROC			; StringTrimRight
EXTRN	??0CScanner@@QAE@H@Z:PROC			; CScanner::CScanner
EXTRN	??1CScanner@@UAE@XZ:PROC			; CScanner::~CScanner
EXTRN	?GetToken@CScanner@@UAEHH@Z:PROC		; CScanner::GetToken
EXTRN	?Load@CScanner@@QAEHPBDH@Z:PROC			; CScanner::Load
EXTRN	?GetNumber@CScanner@@QAEHH@Z:PROC		; CScanner::GetNumber
EXTRN	?GetSerialNumber@CScanner@@QAEKH@Z:PROC		; CScanner::GetSerialNumber
EXTRN	??0CScript@@QAE@H@Z:PROC			; CScript::CScript
EXTRN	??1CScript@@UAE@XZ:PROC				; CScript::~CScript
EXTRN	?Load@CScript@@QAEHPBDHH@Z:PROC			; CScript::Load
EXTRN	?IsInvalidName@CProject@@QAEHPBD@Z:PROC		; CProject::IsInvalidName
EXTRN	?IsAllowedLetter@CProject@@QAEHPBDH@Z:PROC	; CProject::IsAllowedLetter
EXTRN	?Formalize@CProject@@QAEXPAD@Z:PROC		; CProject::Formalize
EXTRN	?GetRandomBeginPos@CProject@@QAEHKPAUD3DXVECTOR3@@@Z:PROC ; CProject::GetRandomBeginPos
EXTRN	?FILEOUT@@YAXPBD0ZZ:PROC			; FILEOUT
EXTRN	?WriteLog@@YAXPBDZZ:PROC			; WriteLog
EXTRN	?MakeFileNameDate@@YAPBDPBD@Z:PROC		; MakeFileNameDate
EXTRN	??0CQuery@@QAE@XZ:PROC				; CQuery::CQuery
EXTRN	??1CQuery@@QAE@XZ:PROC				; CQuery::~CQuery
EXTRN	?Connect@CQuery@@QAEHHPAD0PBD@Z:PROC		; CQuery::Connect
EXTRN	?Exec@CQuery@@QAEHPBD@Z:PROC			; CQuery::Exec
EXTRN	?Execute@CQuery@@QAAHPBDZZ:PROC			; CQuery::Execute
EXTRN	?Fetch@CQuery@@QAEHXZ:PROC			; CQuery::Fetch
EXTRN	?Clear@CQuery@@QAEXXZ:PROC			; CQuery::Clear
EXTRN	?GetInt@CQuery@@QAEHPAD@Z:PROC			; CQuery::GetInt
EXTRN	?GetInt64@CQuery@@QAE_JPAD@Z:PROC		; CQuery::GetInt64
EXTRN	?GetFloat@CQuery@@QAEMPAD@Z:PROC		; CQuery::GetFloat
EXTRN	?GetChar@CQuery@@QAEDPAD@Z:PROC			; CQuery::GetChar
EXTRN	?GetStr@CQuery@@QAEXPAD0@Z:PROC			; CQuery::GetStr
EXTRN	?BindParameter@CQuery@@QAEHGFFFKFPAXJPAJ@Z:PROC	; CQuery::BindParameter
EXTRN	??0CAr@@QAE@PAXI@Z:PROC				; CAr::CAr
EXTRN	??1CAr@@QAE@XZ:PROC				; CAr::~CAr
EXTRN	?Read@CAr@@QAEXPAXI@Z:PROC			; CAr::Read
EXTRN	?Write@CAr@@QAEXPBXI@Z:PROC			; CAr::Write
EXTRN	?CheckBuf@CAr@@QAEXI@Z:PROC			; CAr::CheckBuf
EXTRN	?WriteString@CAr@@QAEXPBD@Z:PROC		; CAr::WriteString
EXTRN	?ReadString@CAr@@QAEPADPADH@Z:PROC		; CAr::ReadString
EXTRN	?GetBuffer@CAr@@QAEPAEPAH@Z:PROC		; CAr::GetBuffer
EXTRN	?Send@CDPSock@@QAEHPADKK@Z:PROC			; CDPSock::Send
EXTRN	?SetFriend@CRTMessenger@@QAEXKPAU_Friend@@@Z:PROC ; CRTMessenger::SetFriend
EXTRN	?Serialize@CRTMessenger@@QAEHAAVCAr@@@Z:PROC	; CRTMessenger::Serialize
EXTRN	?GetMaxEnergy@CPetProperty@@QAEGE@Z:PROC	; CPetProperty::GetMaxEnergy
EXTRN	?GetInstance@CPetProperty@@SAPAV1@XZ:PROC	; CPetProperty::GetInstance
EXTRN	??0CPet@@QAE@XZ:PROC				; CPet::CPet
EXTRN	??1CPet@@UAE@XZ:PROC				; CPet::~CPet
EXTRN	?Serialize@CPet@@QAEXAAVCAr@@@Z:PROC		; CPet::Serialize
EXTRN	?SetAvailLevel@CPet@@QAEXEE@Z:PROC		; CPet::SetAvailLevel
EXTRN	?GetAvailLevel@CPet@@QAEEE@Z:PROC		; CPet::GetAvailLevel
EXTRN	?SetExp@CPet@@QAEXK@Z:PROC			; CPet::SetExp
EXTRN	?GetLife@CPet@@QAEGXZ:PROC			; CPet::GetLife
EXTRN	?SetEnergy@CPet@@QAEXG@Z:PROC			; CPet::SetEnergy
EXTRN	?SetName@CPet@@QAEXPBD@Z:PROC			; CPet::SetName
EXTRN	??4CPet@@QAEAAV0@AAV0@@Z:PROC			; CPet::operator=
EXTRN	?SetPiercingSize@CPiercing@@QAEXH@Z:PROC	; CPiercing::SetPiercingSize
EXTRN	?GetPiercingSize@CPiercing@@QAEHXZ:PROC		; CPiercing::GetPiercingSize
EXTRN	?SetPiercingItem@CPiercing@@QAEXHK@Z:PROC	; CPiercing::SetPiercingItem
EXTRN	?GetPiercingItem@CPiercing@@QAEKH@Z:PROC	; CPiercing::GetPiercingItem
EXTRN	?IsPiercedItem@CPiercing@@QAEHXZ:PROC		; CPiercing::IsPiercedItem
EXTRN	?SetUltimatePiercingSize@CPiercing@@QAEXH@Z:PROC ; CPiercing::SetUltimatePiercingSize
EXTRN	?GetUltimatePiercingSize@CPiercing@@QAEHXZ:PROC	; CPiercing::GetUltimatePiercingSize
EXTRN	?SetUltimatePiercingItem@CPiercing@@QAEXHK@Z:PROC ; CPiercing::SetUltimatePiercingItem
EXTRN	?GetUltimatePiercingItem@CPiercing@@QAEKH@Z:PROC ; CPiercing::GetUltimatePiercingItem
EXTRN	?IsPierceAble@CItemElem@@QAEHKH@Z:PROC		; CItemElem::IsPierceAble
EXTRN	??0CItemElem@@QAE@XZ:PROC			; CItemElem::CItemElem
EXTRN	??1CItemElem@@UAE@XZ:PROC			; CItemElem::~CItemElem
EXTRN	?IsInvalid@CItemElem@@QAEHXZ:PROC		; CItemElem::IsInvalid
EXTRN	??_E?$CItemContainer@VCItemElem@@@@UAEPAXI@Z:PROC ; CItemContainer<CItemElem>::`vector deleting destructor'
EXTRN	?GetPocket@CPocketController@@QAEPAVCPocket@@H@Z:PROC ; CPocketController::GetPocket
EXTRN	??0CMover@@QAE@XZ:PROC				; CMover::CMover
EXTRN	??1CMover@@UAE@XZ:PROC				; CMover::~CMover
EXTRN	?InitProp@CMover@@QAEXXZ:PROC			; CMover::InitProp
EXTRN	??0CAccountCacheMgr@@QAE@XZ:PROC		; CAccountCacheMgr::CAccountCacheMgr
EXTRN	?Find@CAccountCacheMgr@@QAEPAUACCOUNT_CACHE@@PBD@Z:PROC ; CAccountCacheMgr::Find
EXTRN	?Clear@CAccountCacheMgr@@QAEXXZ:PROC		; CAccountCacheMgr::Clear
EXTRN	?AddMover@CAccountCacheMgr@@QAEXKPBDH@Z:PROC	; CAccountCacheMgr::AddMover
EXTRN	?RemoveMover@CAccountCacheMgr@@QAEXKPBD@Z:PROC	; CAccountCacheMgr::RemoveMover
EXTRN	?ChangeMultiServer@CAccountCacheMgr@@QAEXPBDK@Z:PROC ; CAccountCacheMgr::ChangeMultiServer
EXTRN	?SavePlayer@CDbManager@@QAEXPAVCQuery@@0PAVCMover@@PAD@Z:PROC ; CDbManager::SavePlayer
EXTRN	?SavePlayTime@CDbManager@@QAEXPAVCQuery@@PAUtagDB_OVERLAPPED_PLUS@@@Z:PROC ; CDbManager::SavePlayTime
EXTRN	?SaveInventory@CDbManager@@QAEXPAVCMover@@PAU_ItemContainerStruct@@@Z:PROC ; CDbManager::SaveInventory
EXTRN	?SaveBank@CDbManager@@QAEXPAVCMover@@PAV?$CItemContainer@VCItemElem@@@@PAU_ItemContainerStruct@@@Z:PROC ; CDbManager::SaveBank
EXTRN	?SaveGuildBank@CDbManager@@QAEXPAV?$CItemContainer@VCItemElem@@@@PAU_ItemContainerStruct@@@Z:PROC ; CDbManager::SaveGuildBank
EXTRN	?Join@CDbManager@@QAEXPAVCQuery@@00PAUtagDB_OVERLAPPED_PLUS@@@Z:PROC ; CDbManager::Join
EXTRN	?Gamema_Chat@CDbManager@@QAEXPAVCQuery@@PAUtagDB_OVERLAPPED_PLUS@@@Z:PROC ; CDbManager::Gamema_Chat
EXTRN	?BackSystem@CDbManager@@QAEXXZ:PROC		; CDbManager::BackSystem
EXTRN	?ItemUpdateThread@CDbManager@@QAEXXZ:PROC	; CDbManager::ItemUpdateThread
EXTRN	?GetInventory@CDbManager@@QAEHPAVCMover@@PAVCQuery@@PAUtagDB_OVERLAPPED_PLUS@@@Z:PROC ; CDbManager::GetInventory
EXTRN	?LoadPiercingInfo@CDbManager@@QAEXAAVCItemElem@@PADPAH@Z:PROC ; CDbManager::LoadPiercingInfo
EXTRN	?GetPiercingInfoFromMail@CDbManager@@QAEXPAVCQuery@@PAVCItemElem@@@Z:PROC ; CDbManager::GetPiercingInfoFromMail
EXTRN	?GetPocket@CDbManager@@QAEHPAVCMover@@PAVCQuery@@PAUtagDB_OVERLAPPED_PLUS@@@Z:PROC ; CDbManager::GetPocket
EXTRN	?SavePocket@CDbManager@@QAEXPAVCMover@@PAU_PocketStruct@@@Z:PROC ; CDbManager::SavePocket
EXTRN	?DBQryLog@CDbManager@@QAEXPAD0KH_JHHHHHHHHHHDH0MMMHH0KHH0HHH0H0HK@Z:PROC ; CDbManager::DBQryLog
EXTRN	?DBQryNewItemLog@CDbManager@@QAEXPADABU_LogItemInfo@@@Z:PROC ; CDbManager::DBQryNewItemLog
EXTRN	?GetOneItem@CDbManager@@QAEHPAVCItemElem@@PADPAH@Z:PROC ; CDbManager::GetOneItem
EXTRN	?GetBankMover@CDbManager@@QAEHPAVCMover@@PAVCQuery@@H@Z:PROC ; CDbManager::GetBankMover
EXTRN	?GetGuildBank@CDbManager@@QAEXPAV?$CItemContainer@VCItemElem@@@@PAVCQuery@@@Z:PROC ; CDbManager::GetGuildBank
EXTRN	?GetStrTime@CDbManager@@AAEXPAVCTime@ATL@@PBD@Z:PROC ; CDbManager::GetStrTime
EXTRN	?LogPlayDeath@CDbManager@@AAEXPAVCQuery@@PAUtagDB_OVERLAPPED_PLUS@@@Z:PROC ; CDbManager::LogPlayDeath
EXTRN	?LogLevelUp@CDbManager@@AAEXPAVCQuery@@PAUtagDB_OVERLAPPED_PLUS@@@Z:PROC ; CDbManager::LogLevelUp
EXTRN	?LogServerDeath@CDbManager@@AAEXPAVCQuery@@PAUtagDB_OVERLAPPED_PLUS@@@Z:PROC ; CDbManager::LogServerDeath
EXTRN	?LogUniqueItem@CDbManager@@AAEXPAVCQuery@@PAUtagDB_OVERLAPPED_PLUS@@@Z:PROC ; CDbManager::LogUniqueItem
EXTRN	?LogQuest@CDbManager@@AAEXPAVCQuery@@PAUtagDB_OVERLAPPED_PLUS@@@Z:PROC ; CDbManager::LogQuest
EXTRN	?LogPkPvp@CDbManager@@AAEXPAVCQuery@@PAUtagDB_OVERLAPPED_PLUS@@@Z:PROC ; CDbManager::LogPkPvp
EXTRN	?LogSchool@CDbManager@@AAEXPAVCQuery@@PAUtagDB_OVERLAPPED_PLUS@@@Z:PROC ; CDbManager::LogSchool
EXTRN	?LogSkillPoint@CDbManager@@AAEXPAVCQuery@@PAUtagDB_OVERLAPPED_PLUS@@@Z:PROC ; CDbManager::LogSkillPoint
EXTRN	?LogItem@CDbManager@@AAEXPAVCQuery@@PAUtagDB_OVERLAPPED_PLUS@@@Z:PROC ; CDbManager::LogItem
EXTRN	?LogConcurrentUserNumber@CDbManager@@AAEXPAVCQuery@@PAUtagDB_OVERLAPPED_PLUS@@@Z:PROC ; CDbManager::LogConcurrentUserNumber
EXTRN	?LogInstanceDungeon@CDbManager@@AAEXPAVCQuery@@PAUtagDB_OVERLAPPED_PLUS@@@Z:PROC ; CDbManager::LogInstanceDungeon
EXTRN	?LogError@CDbManager@@AAEXPAVCQuery@@PAUtagDB_OVERLAPPED_PLUS@@@Z:PROC ; CDbManager::LogError
EXTRN	?LogGuildFurniture@CDbManager@@AAEXPAVCQuery@@PAUtagDB_OVERLAPPED_PLUS@@@Z:PROC ; CDbManager::LogGuildFurniture
EXTRN	?RemovePenya@CDbManager@@AAEHPAVCQuery@@PADPAVCMover@@HHD@Z:PROC ; CDbManager::RemovePenya
EXTRN	?RemoveItem@CDbManager@@AAEKPAVCQuery@@PADHPAVCMover@@1HHHHD@Z:PROC ; CDbManager::RemoveItem
EXTRN	?GetRemoveItem@CDbManager@@AAEHPAVCQuery@@AAHPAD1111AAD@Z:PROC ; CDbManager::GetRemoveItem
EXTRN	?LogGetHonorTime@CDbManager@@AAEXPAVCQuery@@PAUtagDB_OVERLAPPED_PLUS@@@Z:PROC ; CDbManager::LogGetHonorTime
EXTRN	?LogExpBox@CDbManager@@AAEXPAVCQuery@@PAUtagDB_OVERLAPPED_PLUS@@@Z:PROC ; CDbManager::LogExpBox
EXTRN	?GetDBFormatStr@CDbManager@@AAEXPADHPBD@Z:PROC	; CDbManager::GetDBFormatStr
EXTRN	?SendPlayerList@CDPLoginSrvr@@QAEXPBD0KK@Z:PROC	; CDPLoginSrvr::SendPlayerList
EXTRN	?SendError@CDPLoginSrvr@@QAEXJK@Z:PROC		; CDPLoginSrvr::SendError
EXTRN	?SendLoginProtect@CDPLoginSrvr@@QAEXPBD0KHK@Z:PROC ; CDPLoginSrvr::SendLoginProtect
EXTRN	??5@YAAAVCAr@@AAV0@AAUCONTRIBUTION_CHANGED_INFO@@@Z:PROC ; operator>>
EXTRN	??0CGuildMember@@QAE@XZ:PROC			; CGuildMember::CGuildMember
EXTRN	??0CGuild@@QAE@XZ:PROC				; CGuild::CGuild
EXTRN	?AddMember@CGuild@@QAEHPAVCGuildMember@@@Z:PROC	; CGuild::AddMember
EXTRN	?Clear@CGuildMng@@QAEXXZ:PROC			; CGuildMng::Clear
EXTRN	?AddGuild@CGuildMng@@QAEKPAVCGuild@@@Z:PROC	; CGuildMng::AddGuild
EXTRN	?GetGuild@CGuildMng@@QAEPAVCGuild@@K@Z:PROC	; CGuildMng::GetGuild
EXTRN	?GetInstance@CPlayerDataCenter@@SAPAV1@XZ:PROC	; CPlayerDataCenter::GetInstance
EXTRN	?AddPlayerData@CPlayerDataCenter@@QAEPAU_PlayerData@@KAAU2@@Z:PROC ; CPlayerDataCenter::AddPlayerData
EXTRN	?DeletePlayerData@CPlayerDataCenter@@QAEHK@Z:PROC ; CPlayerDataCenter::DeletePlayerData
EXTRN	?GetPlayerString@CPlayerDataCenter@@QAEPBDK@Z:PROC ; CPlayerDataCenter::GetPlayerString
EXTRN	?ReplacePlayerString@CPlayerDataCenter@@QAEXKPAD0@Z:PROC ; CPlayerDataCenter::ReplacePlayerString
EXTRN	?SendTagResult@CDPCoreSrvr@@QAEXKE@Z:PROC	; CDPCoreSrvr::SendTagResult
EXTRN	?SendAddVoteResult@CDPCoreSrvr@@QAEXAAUVOTE_INSERTED_INFO@@@Z:PROC ; CDPCoreSrvr::SendAddVoteResult
EXTRN	?SendDelPlayer@CDPCoreSrvr@@QAEXKK@Z:PROC	; CDPCoreSrvr::SendDelPlayer
EXTRN	?SendSetPlayerName@CDPCoreSrvr@@QAEXKPBDKH@Z:PROC ; CDPCoreSrvr::SendSetPlayerName
EXTRN	?SendRemovePlayerFriend@CDPCoreSrvr@@QAEXKK@Z:PROC ; CDPCoreSrvr::SendRemovePlayerFriend
EXTRN	?SendAllGuildCombat@CDPTrans@@QAEXK@Z:PROC	; CDPTrans::SendAllGuildCombat
EXTRN	?GetInstance@CDPTrans@@SAPAV1@XZ:PROC		; CDPTrans::GetInstance
EXTRN	?SendAllPlayerData@CDPTrans@@QAEXK@Z:PROC	; CDPTrans::SendAllPlayerData
EXTRN	?SendAddPlayerData@CDPTrans@@QAEXKPAU_PlayerData@@@Z:PROC ; CDPTrans::SendAddPlayerData
EXTRN	?SendDeletePlayerData@CDPTrans@@QAEXK@Z:PROC	; CDPTrans::SendDeletePlayerData
EXTRN	?SendGC1to1TenderGuild@CDPTrans@@QAEXAAV?$vector@U__GC1TO1TENDER@CGuildCombat1to1Mng@@V?$allocator@U__GC1TO1TENDER@CGuildCombat1to1Mng@@@std@@@std@@0K@Z:PROC ; CDPTrans::SendGC1to1TenderGuild
EXTRN	?SendMailBoxReq@CDPTrans@@QAEXKKHPAVCMailBox@@@Z:PROC ; CDPTrans::SendMailBoxReq
EXTRN	?SendMailBox@CDPTrans@@QAEXPAVCMailBox@@K@Z:PROC ; CDPTrans::SendMailBox
EXTRN	?SendAllMail@CDPTrans@@QAEXK@Z:PROC		; CDPTrans::SendAllMail
EXTRN	?SendPostMail@CDPTrans@@QAEXHKPAVCMail@@@Z:PROC	; CDPTrans::SendPostMail
EXTRN	?SendRemoveMail@CDPTrans@@QAEXKK@Z:PROC		; CDPTrans::SendRemoveMail
EXTRN	?SendGetMailItem@CDPTrans@@QAEXKKK@Z:PROC	; CDPTrans::SendGetMailItem
EXTRN	?SendGetMailGold@CDPTrans@@QAEXKKK@Z:PROC	; CDPTrans::SendGetMailGold
EXTRN	?SendReadMail@CDPTrans@@QAEXKK@Z:PROC		; CDPTrans::SendReadMail
EXTRN	?SendInGuildCombat@CDPTrans@@QAEXKKK@Z:PROC	; CDPTrans::SendInGuildCombat
EXTRN	?SendOutGuildCombat@CDPTrans@@QAEXK@Z:PROC	; CDPTrans::SendOutGuildCombat
EXTRN	?SendResultGuildCombat@CDPTrans@@QAEXXZ:PROC	; CDPTrans::SendResultGuildCombat
EXTRN	?SendPlayerPointGuildCombat@CDPTrans@@QAEXXZ:PROC ; CDPTrans::SendPlayerPointGuildCombat
EXTRN	?SendGetPenyaGuildGC@CDPTrans@@QAEXKHK@Z:PROC	; CDPTrans::SendGetPenyaGuildGC
EXTRN	?SendGetPenyaPlayerGC@CDPTrans@@QAEXKHK@Z:PROC	; CDPTrans::SendGetPenyaPlayerGC
EXTRN	?SendContinueGC@CDPTrans@@QAEXXZ:PROC		; CDPTrans::SendContinueGC
EXTRN	?SendQueryRemoveGuildBankTbl@CDPTrans@@QAEXHKKKK@Z:PROC ; CDPTrans::SendQueryRemoveGuildBankTbl
EXTRN	??0CGuildWar@@QAE@XZ:PROC			; CGuildWar::CGuildWar
EXTRN	?Clear@CGuildWarMng@@QAEXXZ:PROC		; CGuildWarMng::Clear
EXTRN	?AddWar@CGuildWarMng@@QAEKPAVCGuildWar@@@Z:PROC	; CGuildWarMng::AddWar
EXTRN	?Get@CSerialNumber@@QAEKXZ:PROC			; CSerialNumber::Get
EXTRN	?GetInstance@CSerialNumber@@SAPAV1@XZ:PROC	; CSerialNumber::GetInstance
EXTRN	??0CMail@@QAE@XZ:PROC				; CMail::CMail
EXTRN	?RemoveMail@CMailBox@@QAEHK@Z:PROC		; CMailBox::RemoveMail
EXTRN	?RemoveMailItem@CMailBox@@QAEHK@Z:PROC		; CMailBox::RemoveMailItem
EXTRN	?RemoveMailGold@CMailBox@@QAEHK@Z:PROC		; CMailBox::RemoveMailGold
EXTRN	?ReadMail@CMailBox@@QAEHK@Z:PROC		; CMailBox::ReadMail
EXTRN	?AddMail@CPost@@QAEKKPAVCMail@@@Z:PROC		; CPost::AddMail
EXTRN	?GetMailBox@CPost@@QAEPAVCMailBox@@K@Z:PROC	; CPost::GetMailBox
EXTRN	?GetInstance@CPost@@SAPAV1@XZ:PROC		; CPost::GetInstance
EXTRN	?PostRequest@CDbController@@QAEHHPAEHK@Z:PROC	; CDbController::PostRequest
EXTRN	?GetInstance@CGuildHouseDBMng@@SAPAV1@XZ:PROC	; CGuildHouseDBMng::GetInstance
EXTRN	?IsMember@CCampus@@QAEHK@Z:PROC			; CCampus::IsMember
EXTRN	?GetCampus@CCampusMng@@QAEPAVCCampus@@K@Z:PROC	; CCampusMng::GetCampus
EXTRN	?GetCampusIdByPlayerId@CCampusMng@@QAEKK@Z:PROC	; CCampusMng::GetCampusIdByPlayerId
EXTRN	?GetInstance@CCampusHelper@@SAPAV1@XZ:PROC	; CCampusHelper::GetInstance
EXTRN	@__security_check_cookie@4:PROC
EXTRN	__CxxThrowException@8:PROC
EXTRN	___CxxFrameHandler3:PROC
EXTRN	__alldvrm:PROC
EXTRN	__chkstk:PROC
EXTRN	_memcpy:PROC
EXTRN	_memmove:PROC
EXTRN	_memset:PROC
EXTRN	__Init_thread_epoch:DWORD
EXTRN	??_7type_info@@6B@:QWORD			; type_info::`vftable'
EXTRN	?prj@@3VCProject@@A:BYTE			; prj
EXTRN	?m_pPool@CMover@@2PAV?$MemPooler@VCMover@@@@A:DWORD ; CMover::m_pPool
EXTRN	?DSN_NAME_CHARACTER01@@3PADA:BYTE		; DSN_NAME_CHARACTER01
EXTRN	?DB_ADMIN_ID_CHARACTER01@@3PADA:BYTE		; DB_ADMIN_ID_CHARACTER01
EXTRN	?DSN_NAME_LOG@@3PADA:BYTE			; DSN_NAME_LOG
EXTRN	?DB_ADMIN_ID_LOG@@3PADA:BYTE			; DB_ADMIN_ID_LOG
EXTRN	?sm_pPool@CGuildMember@@2PAV?$MemPooler@VCGuildMember@@@@A:DWORD ; CGuildMember::sm_pPool
EXTRN	?sm_pPool@CGuild@@2PAV?$MemPooler@VCGuild@@@@A:DWORD ; CGuild::sm_pPool
EXTRN	?g_appInfo@@3UAppInfo@@A:QWORD			; g_appInfo
EXTRN	?g_GuildMng@@3VCGuildMng@@A:BYTE		; g_GuildMng
EXTRN	?g_GuildWarMng@@3VCGuildWarMng@@A:BYTE		; g_GuildWarMng
EXTRN	?s_nMail@CMail@@2KA:DWORD			; CMail::s_nMail
EXTRN	?g_dpCoreSrvr@@3VCDPCoreSrvr@@A:BYTE		; g_dpCoreSrvr
EXTRN	?g_dpLoginSrvr@@3VCDPLoginSrvr@@A:BYTE		; g_dpLoginSrvr
EXTRN	___security_cookie:DWORD
EXTRN	__fltused:DWORD
EXTRN	__tls_array:DWORD
EXTRN	__tls_index:DWORD
;	COMDAT ?_OptionsStorage@?1??__local_stdio_printf_options@@9@4_KA
_BSS	SEGMENT
?_OptionsStorage@?1??__local_stdio_printf_options@@9@4_KA DQ 01H DUP (?) ; `__local_stdio_printf_options'::`2'::_OptionsStorage
_BSS	ENDS
_BSS	SEGMENT
?g_DbManager@@3AAVCDbManager@@A DD 01H DUP (?)		; g_DbManager
_BSS	ENDS
;	COMDAT ?DbManager@?1??GetInstance@CDbManager@@SAAAV2@XZ@4V2@A
_BSS	SEGMENT
?DbManager@?1??GetInstance@CDbManager@@SAAAV2@XZ@4V2@A DB 04548H DUP (?) ; `CDbManager::GetInstance'::`2'::DbManager
_BSS	ENDS
;	COMDAT ?$TSS0@?1??GetInstance@CDbManager@@SAAAV2@XZ@4HA
_BSS	SEGMENT
?$TSS0@?1??GetInstance@CDbManager@@SAAAV2@XZ@4HA DD 01H DUP (?) ; `CDbManager::GetInstance'::`2'::$TSS0
_BSS	ENDS
CRT$XCU	SEGMENT
?g_DbManager$initializer$@@3P6AXXZA DD FLAT:??__Eg_DbManager@@YAXXZ ; g_DbManager$initializer$
CRT$XCU	ENDS
;	COMDAT __xmm@00000000000000000000006400000064
CONST	SEGMENT
__xmm@00000000000000000000006400000064 DB 'd', 00H, 00H, 00H, 'd', 00H, 00H
	DB	00H, 00H, 00H, 00H, 00H, 00H, 00H, 00H, 00H
CONST	ENDS
;	COMDAT __real@4f000000
CONST	SEGMENT
__real@4f000000 DD 04f000000r			; 2.14748e+09
CONST	ENDS
;	COMDAT ??_C@_07LOIGJBKI@f_check@
CONST	SEGMENT
??_C@_07LOIGJBKI@f_check@ DB 'f_check', 00H		; `string'
CONST	ENDS
;	COMDAT ??_C@_0CI@FCPAJADN@usp_BankPW_Check?5?8?$CF02d?8?0?5?8?$CF07d?8@
CONST	SEGMENT
??_C@_0CI@FCPAJADN@usp_BankPW_Check?5?8?$CF02d?8?0?5?8?$CF07d?8@ DB 'usp_'
	DB	'BankPW_Check ''%02d'', ''%07d'', ''%04d''', 00H ; `string'
CONST	ENDS
;	COMDAT ??_C@_0DE@FFNJAEOO@uspSetSealCharUpdate?5?8?$CF02d?8?0?8?$CF0@
CONST	SEGMENT
??_C@_0DE@FFNJAEOO@uspSetSealCharUpdate?5?8?$CF02d?8?0?8?$CF0@ DB 'uspSet'
	DB	'SealCharUpdate ''%02d'',''%07d'',''%s'',''%d'',''%07d''', 00H ; `string'
CONST	ENDS
;	COMDAT ??_C@_0BN@FEMGGHOI@uspSetSealChar?5?8?$CF02d?8?0?8?$CF07d?8@
CONST	SEGMENT
??_C@_0BN@FEMGGHOI@uspSetSealChar?5?8?$CF02d?8?0?8?$CF07d?8@ DB 'uspSetSe'
	DB	'alChar ''%02d'',''%07d''', 00H		; `string'
CONST	ENDS
;	COMDAT ??_C@_0BM@MKCMNEMP@uspLoadSealChar?5?8?$CF02d?8?0?8?$CFs?8@
CONST	SEGMENT
??_C@_0BM@MKCMNEMP@uspLoadSealChar?5?8?$CF02d?8?0?8?$CFs?8@ DB 'uspLoadSe'
	DB	'alChar ''%02d'',''%s''', 00H		; `string'
CONST	ENDS
;	COMDAT ??_C@_06FKNLKGFE@m_Item@
CONST	SEGMENT
??_C@_06FKNLKGFE@m_Item@ DB 'm_Item', 00H		; `string'
CONST	ENDS
;	COMDAT ??_C@_02JKCPNDDE@S3@
CONST	SEGMENT
??_C@_02JKCPNDDE@S3@ DB 'S3', 00H			; `string'
CONST	ENDS
;	COMDAT ??_C@_0DN@JBFEHHGD@LOGGING_01_DBF?4dbo?4usp_guildban@
CONST	SEGMENT
??_C@_0DN@JBFEHHGD@LOGGING_01_DBF?4dbo?4usp_guildban@ DB 'LOGGING_01_DBF.'
	DB	'dbo.usp_guildbank_log_view ''%s'',''%06d'',''%02d''', 00H ; `string'
CONST	ENDS
;	COMDAT ??_C@_0EI@DGFNPOKD@usp_Guild_Combat_1to1_Battle?5?8?$CF@
CONST	SEGMENT
??_C@_0EI@DGFNPOKD@usp_Guild_Combat_1to1_Battle?5?8?$CF@ DB 'usp_Guild_Co'
	DB	'mbat_1to1_Battle ''%02d'', %d, %d, ''%06d'', ''%06d'', ''%c'''
	DB	', ''%s''', 00H				; `string'
CONST	ENDS
;	COMDAT ??_C@_0EA@JDBIBLLM@usp_Guild_Combat_1to1_Tender?5?8?$CF@
CONST	SEGMENT
??_C@_0EA@JDBIBLLM@usp_Guild_Combat_1to1_Tender?5?8?$CF@ DB 'usp_Guild_Co'
	DB	'mbat_1to1_Tender ''%02d'', %d, ''%06d'', %d, ''%c'', ''U1''', 00H ; `string'
CONST	ENDS
;	COMDAT ??_C@_0EA@IJNHPDJL@usp_Guild_Combat_1to1_Tender?5?8?$CF@
CONST	SEGMENT
??_C@_0EA@IJNHPDJL@usp_Guild_Combat_1to1_Tender?5?8?$CF@ DB 'usp_Guild_Co'
	DB	'mbat_1to1_Tender ''%02d'', %d, ''%06d'', %d, ''%c'', ''I1''', 00H ; `string'
CONST	ENDS
;	COMDAT ??_C@_0EP@KOOMDGDB@usp_Guild_Combat_1to1_Battle_Pe@
CONST	SEGMENT
??_C@_0EP@KOOMDGDB@usp_Guild_Combat_1to1_Battle_Pe@ DB 'usp_Guild_Combat_'
	DB	'1to1_Battle_Person ''%02d'', %d, ''%06d'', ''%07d'', %d, ''%c'
	DB	''', ''%s''', 00H				; `string'
CONST	ENDS
;	COMDAT ??_C@_08ECDGCCLD@m_nPenya@
CONST	SEGMENT
??_C@_08ECDGCCLD@m_nPenya@ DB 'm_nPenya', 00H		; `string'
CONST	ENDS
;	COMDAT ??_C@_0EA@ILDJOCIO@usp_Guild_Combat_1to1_Tender?5?8?$CF@
CONST	SEGMENT
??_C@_0EA@ILDJOCIO@usp_Guild_Combat_1to1_Tender?5?8?$CF@ DB 'usp_Guild_Co'
	DB	'mbat_1to1_Tender ''%02d'', %d, ''%06d'', %d, ''%c'', ''%s''', 00H ; `string'
CONST	ENDS
;	COMDAT ??_C@_0CG@PBHEGNLO@usp_Guild_Combat_1to1_CombatID?5@
CONST	SEGMENT
??_C@_0CG@PBHEGNLO@usp_Guild_Combat_1to1_CombatID?5@ DB 'usp_Guild_Combat'
	DB	'_1to1_CombatID ''%02d''', 00H		; `string'
CONST	ENDS
;	COMDAT ??_C@_0CO@DFECOHGC@uspUpdateMessenger?5?8?$CF02d?8?0?5?8?$CF07@
CONST	SEGMENT
??_C@_0CO@DFECOHGC@uspUpdateMessenger?5?8?$CF02d?8?0?5?8?$CF07@ DB 'uspUp'
	DB	'dateMessenger ''%02d'', ''%07d'', ''%07d'', %d', 00H ; `string'
CONST	ENDS
;	COMDAT ??_C@_0CH@GBFJOBCN@uspAddMessenger?5?8?$CF02d?8?0?5?8?$CF07d?8?0@
CONST	SEGMENT
??_C@_0CH@GBFJOBCN@uspAddMessenger?5?8?$CF02d?8?0?5?8?$CF07d?8?0@ DB 'usp'
	DB	'AddMessenger ''%02d'', ''%07d'', ''%07d''', 00H ; `string'
CONST	ENDS
;	COMDAT ??_C@_0BG@GGFFMFCN@TOO?5MANY?5FRIEND?3?5?$CF07d@
CONST	SEGMENT
??_C@_0BG@GGFFMFCN@TOO?5MANY?5FRIEND?3?5?$CF07d@ DB 'TOO MANY FRIEND: %07'
	DB	'd', 00H					; `string'
CONST	ENDS
;	COMDAT ??_C@_06MPDFGMCG@bBlock@
CONST	SEGMENT
??_C@_06MPDFGMCG@bBlock@ DB 'bBlock', 00H		; `string'
CONST	ENDS
;	COMDAT ??_C@_08HKEMEOC@idFriend@
CONST	SEGMENT
??_C@_08HKEMEOC@idFriend@ DB 'idFriend', 00H		; `string'
CONST	ENDS
;	COMDAT ??_C@_0CA@PDNDPAMH@uspLoadMessenger?5?8?$CF02d?8?0?5?8?$CF07d?8@
CONST	SEGMENT
??_C@_0CA@PDNDPAMH@uspLoadMessenger?5?8?$CF02d?8?0?5?8?$CF07d?8@ DB 'uspL'
	DB	'oadMessenger ''%02d'', ''%07d''', 00H	; `string'
CONST	ENDS
;	COMDAT ??_C@_0BK@OPHFFOIF@end?5?9?5RestorePetGuildBank@
CONST	SEGMENT
??_C@_0BK@OPHFFOIF@end?5?9?5RestorePetGuildBank@ DB 'end - RestorePetGuil'
	DB	'dBank', 00H					; `string'
CONST	ENDS
;	COMDAT ??_C@_0GG@GFGBICBP@UPDATE?5GUILD_BANK_EXT_TBL?5SET?5s@
CONST	SEGMENT
??_C@_0GG@GFGBICBP@UPDATE?5GUILD_BANK_EXT_TBL?5SET?5s@ DB 'UPDATE GUILD_B'
	DB	'ANK_EXT_TBL SET szGuildBankPet = ''%s'' where m_idGuild = ''%'
	DB	'06d'' and serverindex = ''%02d''', 00H	; `string'
CONST	ENDS
;	COMDAT ??_C@_0CA@LLFCIGG@CDbManager?3?3RestorePetGuildBank@
CONST	SEGMENT
??_C@_0CA@LLFCIGG@CDbManager?3?3RestorePetGuildBank@ DB 'CDbManager::Rest'
	DB	'orePetGuildBank', 00H			; `string'
CONST	ENDS
;	COMDAT ??_C@_0BM@HJIJIPCH@start?5?9?5RestorePetGuildBank@
CONST	SEGMENT
??_C@_0BM@HJIJIPCH@start?5?9?5RestorePetGuildBank@ DB 'start - RestorePet'
	DB	'GuildBank', 00H				; `string'
CONST	ENDS
;	COMDAT ??_C@_0BF@MCAIFGLF@end?5?9?5RestorePetBank@
CONST	SEGMENT
??_C@_0BF@MCAIFGLF@end?5?9?5RestorePetBank@ DB 'end - RestorePetBank', 00H ; `string'
CONST	ENDS
;	COMDAT ??_C@_0FM@PKPOFIFO@UPDATE?5BANK_EXT_TBL?5SET?5szBankP@
CONST	SEGMENT
??_C@_0FM@PKPOFIFO@UPDATE?5BANK_EXT_TBL?5SET?5szBankP@ DB 'UPDATE BANK_EX'
	DB	'T_TBL SET szBankPet = ''%s'' where m_idPlayer = ''%07d'' and '
	DB	'serverindex = ''%02d''', 00H		; `string'
CONST	ENDS
;	COMDAT ??_C@_0FF@DFEDHFCM@UPDATE?5BANK_TBL?5SET?5m_Bank?5?$DN?5?8?$CF@
CONST	SEGMENT
??_C@_0FF@DFEDHFCM@UPDATE?5BANK_TBL?5SET?5m_Bank?5?$DN?5?8?$CF@ DB 'UPDAT'
	DB	'E BANK_TBL SET m_Bank = ''%s'' where m_idPlayer = ''%07d'' an'
	DB	'd serverindex = ''%02d''', 00H		; `string'
CONST	ENDS
;	COMDAT ??_C@_0BL@HNKNAFDN@CDbManager?3?3RestorePetBank@
CONST	SEGMENT
??_C@_0BL@HNKNAFDN@CDbManager?3?3RestorePetBank@ DB 'CDbManager::RestoreP'
	DB	'etBank', 00H				; `string'
CONST	ENDS
;	COMDAT ??_C@_0BH@ENINMJJ@start?5?9?5RestorePetBank@
CONST	SEGMENT
??_C@_0BH@ENINMJJ@start?5?9?5RestorePetBank@ DB 'start - RestorePetBank', 00H ; `string'
CONST	ENDS
;	COMDAT ??_C@_0BK@ONMHOHHK@end?5?9?5RestorePetInventory@
CONST	SEGMENT
??_C@_0BK@ONMHOHHK@end?5?9?5RestorePetInventory@ DB 'end - RestorePetInve'
	DB	'ntory', 00H					; `string'
CONST	ENDS
;	COMDAT ??_C@_0GG@HFCIKCGD@UPDATE?5INVENTORY_EXT_TBL?5SET?5sz@
CONST	SEGMENT
??_C@_0GG@HFCIKCGD@UPDATE?5INVENTORY_EXT_TBL?5SET?5sz@ DB 'UPDATE INVENTO'
	DB	'RY_EXT_TBL SET szInventoryPet = ''%s'' where m_idPlayer = ''%'
	DB	'07d'' and serverindex = ''%02d''', 00H	; `string'
CONST	ENDS
;	COMDAT ??_C@_0BH@BJANLFIN@?4?4?1queryRestorePet?4txt@
CONST	SEGMENT
??_C@_0BH@BJANLFIN@?4?4?1queryRestorePet?4txt@ DB '../queryRestorePet.txt'
	DB	00H						; `string'
CONST	ENDS
;	COMDAT ??_C@_0FP@OHDIOOFM@UPDATE?5INVENTORY_TBL?5SET?5m_Inve@
CONST	SEGMENT
??_C@_0FP@OHDIOOFM@UPDATE?5INVENTORY_TBL?5SET?5m_Inve@ DB 'UPDATE INVENTO'
	DB	'RY_TBL SET m_Inventory = ''%s'' where m_idPlayer = ''%07d'' a'
	DB	'nd serverindex = ''%02d''', 00H		; `string'
CONST	ENDS
;	COMDAT ??_C@_0CA@JAHJBJJ@CDbManager?3?3RestorePetInventory@
CONST	SEGMENT
??_C@_0CA@JAHJBJJ@CDbManager?3?3RestorePetInventory@ DB 'CDbManager::Rest'
	DB	'orePetInventory', 00H			; `string'
CONST	ENDS
;	COMDAT ??_C@_0BM@HLDLDGNI@start?5?9?5RestorePetInventory@
CONST	SEGMENT
??_C@_0BM@HLDLDGNI@start?5?9?5RestorePetInventory@ DB 'start - RestorePet'
	DB	'Inventory', 00H				; `string'
CONST	ENDS
;	COMDAT ??_C@_0OG@KMFCLIJI@uspPetLog?5?$EAserverindex?$DN?8?$CF02d?8?0?5@
CONST	SEGMENT
??_C@_0OG@KMFCLIJI@uspPetLog?5?$EAserverindex?$DN?8?$CF02d?8?0?5@ DB 'usp'
	DB	'PetLog @serverindex=''%02d'', @idPlayer=''%07d'', @iSerial=%d'
	DB	', @nType=%d, @dwData=%d, @nKind=%d,@nLevel=%d, @wLife=%d, @wE'
	DB	'nergy=%d, @dwExp=%d,@nAvailParam1=%d, @nAvailParam2=%d, @nAva'
	DB	'ilParam3=%d, @nAvailParam4=%d, @nAvailParam5=%d', 00H ; `string'
CONST	ENDS
;	COMDAT ??_C@_0CB@DMBKHGMN@MakeRequest?5uBufSize?5Error?4?5?$FL?$CFd@
CONST	SEGMENT
??_C@_0CB@DMBKHGMN@MakeRequest?5uBufSize?5Error?4?5?$FL?$CFd@ DB 'MakeReq'
	DB	'uest uBufSize Error. [%d]', 00H		; `string'
CONST	ENDS
;	COMDAT ??_C@_0DK@KDNCKHOO@uspInitMultiServer?5?$EApserverinde@
CONST	SEGMENT
??_C@_0DK@KDNCKHOO@uspInitMultiServer?5?$EApserverinde@ DB 'uspInitMultiS'
	DB	'erver @pserverindex=''%02d'', @pMultiServer=%d', 00H ; `string'
CONST	ENDS
;	COMDAT ??_C@_0EP@MIHLCFHN@uspChangeMultiServer?5?$EApserverin@
CONST	SEGMENT
??_C@_0EP@MIHLCFHN@uspChangeMultiServer?5?$EApserverin@ DB 'uspChangeMult'
	DB	'iServer @pserverindex=''%02d'', @pidPlayer=''%07d'', @pMultiS'
	DB	'erver=%d', 00H				; `string'
CONST	ENDS
;	COMDAT ??_C@_0GF@LOJEILLI@uspLoggingQuest?5?$EApserverindex?$DN?8@
CONST	SEGMENT
??_C@_0GF@LOJEILLI@uspLoggingQuest?5?$EApserverindex?$DN?8@ DB 'uspLoggin'
	DB	'gQuest @pserverindex=''%02d'', @pidPlayer=''%07d'', @pQuestIn'
	DB	'dex=%d, @pState=%d, @pComment=''%s''', 00H	; `string'
CONST	ENDS
;	COMDAT ??_C@_0EO@DKAHJDFB@uspRemoveItemFromGuildBank?5?$EApse@
CONST	SEGMENT
??_C@_0EO@DKAHJDFB@uspRemoveItemFromGuildBank?5?$EApse@ DB 'uspRemoveItem'
	DB	'FromGuildBank @pserverindex = ''%02d'', @pNum = %d, @pDeleteC'
	DB	'nt=%d', 00H					; `string'
CONST	ENDS
;	COMDAT ??_C@_0BB@FCOKAIDL@DeleteRequestCnt@
CONST	SEGMENT
??_C@_0BB@FCOKAIDL@DeleteRequestCnt@ DB 'DeleteRequestCnt', 00H ; `string'
CONST	ENDS
;	COMDAT ??_C@_0O@ECBDOICL@ItemSerialNum@
CONST	SEGMENT
??_C@_0O@ECBDOICL@ItemSerialNum@ DB 'ItemSerialNum', 00H ; `string'
CONST	ENDS
;	COMDAT ??_C@_09LCBEKCCJ@ItemIndex@
CONST	SEGMENT
??_C@_09LCBEKCCJ@ItemIndex@ DB 'ItemIndex', 00H		; `string'
CONST	ENDS
;	COMDAT ??_C@_04OGHNFBJB@nNum@
CONST	SEGMENT
??_C@_04OGHNFBJB@nNum@ DB 'nNum', 00H			; `string'
CONST	ENDS
;	COMDAT ??_C@_09BCMGNEG@query?3?5?$CFs@
CONST	SEGMENT
??_C@_09BCMGNEG@query?3?5?$CFs@ DB 'query: %s', 00H	; `string'
CONST	ENDS
;	COMDAT ??_C@_0DG@DMKGMKOD@uspLoadRemoveItemFromGuildBank?5@
CONST	SEGMENT
??_C@_0DG@DMKGMKOD@uspLoadRemoveItemFromGuildBank?5@ DB 'uspLoadRemoveIte'
	DB	'mFromGuildBank @pserverindex = ''%02d''', 00H ; `string'
CONST	ENDS
;	COMDAT ??_C@_0EF@BJPFLODJ@MAIL_STR_REALTIME?5?8U1?8?0?5?8?$CF02d?8?0@
CONST	SEGMENT
??_C@_0EF@BJPFLODJ@MAIL_STR_REALTIME?5?8U1?8?0?5?8?$CF02d?8?0@ DB 'MAIL_S'
	DB	'TR_REALTIME ''U1'', ''%02d'', %d, %d, ''%07d'', %d, ''%s'', %'
	DB	'd, %d, %d', 00H				; `string'
CONST	ENDS
;	COMDAT ??_C@_0DE@EKKMGPFE@CDbManager?3?3QueryGetMailRealTim@
CONST	SEGMENT
??_C@_0DE@EKKMGPFE@CDbManager?3?3QueryGetMailRealTim@ DB 'CDbManager::Que'
	DB	'ryGetMailRealTime: Not ItemProp = %d', 00H	; `string'
CONST	ENDS
;	COMDAT ??_C@_0BP@KOPLDONM@MAIL_STR_REALTIME?5?8S1?8?0?5?8?$CF02d?8@
CONST	SEGMENT
??_C@_0BP@KOPLDONM@MAIL_STR_REALTIME?5?8S1?8?0?5?8?$CF02d?8@ DB 'MAIL_STR'
	DB	'_REALTIME ''S1'', ''%02d''', 00H		; `string'
CONST	ENDS
;	COMDAT ??_C@_0IC@KHIDFCII@UPDATE?5GUILD_BANK_EXT_TBL?5SET?5m@
CONST	SEGMENT
??_C@_0IC@KHIDFCII@UPDATE?5GUILD_BANK_EXT_TBL?5SET?5m@ DB 'UPDATE GUILD_B'
	DB	'ANK_EXT_TBL SET m_extGuildBank = ''%s'', m_GuildBankPiercing '
	DB	'= ''%s'' where m_idGuild = ''%06d'' and serverindex = ''%02d'''
	DB	00H						; `string'
CONST	ENDS
;	COMDAT ??_C@_0FP@DEDGGBGG@UPDATE?5GUILD_BANK_TBL?5SET?5m_Gui@
CONST	SEGMENT
??_C@_0FP@DEDGGBGG@UPDATE?5GUILD_BANK_TBL?5SET?5m_Gui@ DB 'UPDATE GUILD_B'
	DB	'ANK_TBL SET m_GuildBank = ''%s'' where m_idGuild = ''%06d'' a'
	DB	'nd serverindex = ''%02d''', 00H		; `string'
CONST	ENDS
;	COMDAT ??_C@_0DI@GEFIEHGN@guildbank?3?5idGuild?5?$DN?5?$CFd?0?5dwID?5?$DN@
CONST	SEGMENT
??_C@_0DI@GEFIEHGN@guildbank?3?5idGuild?5?$DN?5?$CFd?0?5dwID?5?$DN@ DB 'g'
	DB	'uildbank: idGuild = %d, dwID = %d, liSerialNumber = %d', 00H ; `string'
CONST	ENDS
;	COMDAT ??_C@_0NG@PHBJMPIL@select?5a?4m_idGuild?0?5a?4m_GuildBa@
CONST	SEGMENT
??_C@_0NG@PHBJMPIL@select?5a?4m_idGuild?0?5a?4m_GuildBa@ DB 'select a.m_i'
	DB	'dGuild, a.m_GuildBank, b.m_extGuildBank , b.m_GuildBankPierci'
	DB	'ng from  GUILD_BANK_TBL a, GUILD_BANK_EXT_TBL b where a.serve'
	DB	'rindex = b.serverindex and b.serverindex = ''%02d'' and a.m_i'
	DB	'dGuild = b.m_idGuild', 00H			; `string'
CONST	ENDS
;	COMDAT ??_C@_0DE@GPOKEEID@bank?3?5idPlayer?5?$DN?5?$CFd?0?5dwID?5?$DN?5?$CFd?0@
CONST	SEGMENT
??_C@_0DE@GPOKEEID@bank?3?5idPlayer?5?$DN?5?$CFd?0?5dwID?5?$DN?5?$CFd?0@ DB 'b'
	DB	'ank: idPlayer = %d, dwID = %d, liSerialNumber = %d', 00H ; `string'
CONST	ENDS
;	COMDAT ??_C@_0PD@OEMJFGPG@select?5a?4m_idPlayer?0?5a?4serverin@
CONST	SEGMENT
??_C@_0PD@OEMJFGPG@select?5a?4m_idPlayer?0?5a?4serverin@ DB 'select a.m_i'
	DB	'dPlayer, a.serverindex, a.m_Bank, a.m_apIndex_Bank, a.m_dwObj'
	DB	'Index_Bank, b.m_extBank, b.m_BankPiercing  from BANK_TBL a, B'
	DB	'ANK_EXT_TBL b where a.m_idPlayer = b.m_idPlayer and a.serveri'
	DB	'ndex = b.serverindex and b.serverindex = ''%02d''', 00H ; `string'
CONST	ENDS
;	COMDAT ??_C@_04EINJHBMM@?6?$CFs?6@
CONST	SEGMENT
??_C@_04EINJHBMM@?6?$CFs?6@ DB 0aH, '%s', 0aH, 00H	; `string'
CONST	ENDS
;	COMDAT ??_C@_0N@LKAEPFJD@?4?4?1query?4txt@
CONST	SEGMENT
??_C@_0N@LKAEPFJD@?4?4?1query?4txt@ DB '../query.txt', 00H ; `string'
CONST	ENDS
;	COMDAT ??_C@_01MCMALHOG@a@
CONST	SEGMENT
??_C@_01MCMALHOG@a@ DB 'a', 00H				; `string'
CONST	ENDS
;	COMDAT ??_C@_06LBEKKGMJ@ir?4txt@
CONST	SEGMENT
??_C@_06LBEKKGMJ@ir?4txt@ DB 'ir.txt', 00H		; `string'
CONST	ENDS
;	COMDAT ??_C@_0DJ@PBBHLOPB@inventory?3?5idPlayer?5?$DN?5?$CFd?0?5dwID?5@
CONST	SEGMENT
??_C@_0DJ@PBBHLOPB@inventory?3?5idPlayer?5?$DN?5?$CFd?0?5dwID?5@ DB 'inve'
	DB	'ntory: idPlayer = %d, dwID = %d, liSerialNumber = %d', 00H ; `string'
CONST	ENDS
;	COMDAT ??_C@_0BGH@KPGJKMCJ@select?5a?4m_idPlayer?0?5a?4serverin@
CONST	SEGMENT
??_C@_0BGH@KPGJKMCJ@select?5a?4m_idPlayer?0?5a?4serverin@ DB 'select a.m_'
	DB	'idPlayer, a.serverindex, a.m_Inventory, a.m_apIndex, a.m_dwOb'
	DB	'jIndex, a.m_adwEquipment, b.m_extInventory, b.m_InventoryPier'
	DB	'cing  from INVENTORY_TBL a, INVENTORY_EXT_TBL b, CHARACTER_TB'
	DB	'L c where a.m_idPlayer = b.m_idPlayer and b.m_idPlayer = c.m_'
	DB	'idPlayer and a.serverindex = b.serverindex and b.serverindex '
	DB	'= c.serverindex and a.serverindex = ''%02d''', 00H ; `string'
CONST	ENDS
;	COMDAT ??_C@_0BH@OPHLOKH@CDbManager?3?3ItemRemove@
CONST	SEGMENT
??_C@_0BH@OPHLOKH@CDbManager?3?3ItemRemove@ DB 'CDbManager::ItemRemove', 00H ; `string'
CONST	ENDS
;	COMDAT ??_C@_0BF@MMPPICOH@mapItemRemove?4insert@
CONST	SEGMENT
??_C@_0BF@MMPPICOH@mapItemRemove?4insert@ DB 'mapItemRemove.insert', 00H ; `string'
CONST	ENDS
;	COMDAT ??_C@_0N@KOKCIKPK@?$CF02d?7?$CF06d?7?$CFs@
CONST	SEGMENT
??_C@_0N@KOKCIKPK@?$CF02d?7?$CF06d?7?$CFs@ DB '%02d', 09H, '%06d', 09H, '%'
	DB	's', 00H					; `string'
CONST	ENDS
;	COMDAT ??_C@_0CC@COOJDPKE@serverindex?7m_idGuild?7m_GuildBa@
CONST	SEGMENT
??_C@_0CC@COOJDPKE@serverindex?7m_idGuild?7m_GuildBa@ DB 'serverindex', 09H
	DB	'm_idGuild', 09H, 'm_GuildBank', 00H		; `string'
CONST	ENDS
;	COMDAT ??_C@_0BK@FKNEADBP@CDbManager?3?3ConvGuildBank@
CONST	SEGMENT
??_C@_0BK@FKNEADBP@CDbManager?3?3ConvGuildBank@ DB 'CDbManager::ConvGuild'
	DB	'Bank', 00H					; `string'
CONST	ENDS
;	COMDAT ??_C@_0BO@PEHNHEDG@serverindex?7m_idPlayer?7m_Bank@
CONST	SEGMENT
??_C@_0BO@PEHNHEDG@serverindex?7m_idPlayer?7m_Bank@ DB 'serverindex', 09H
	DB	'm_idPlayer', 09H, 'm_Bank', 00H		; `string'
CONST	ENDS
;	COMDAT ??_C@_0GN@JDBFMHMA@SELECT?5?$CK?5FROM?5BANK_TBL?5a?0?5BANK_@
CONST	SEGMENT
??_C@_0GN@JDBFMHMA@SELECT?5?$CK?5FROM?5BANK_TBL?5a?0?5BANK_@ DB 'SELECT *'
	DB	' FROM BANK_TBL a, BANK_EXT_TBL b WHERE a.serverindex = b.serv'
	DB	'erindex and a.m_idPlayer = b.m_idPlayer', 00H ; `string'
CONST	ENDS
;	COMDAT ??_C@_0BF@CMCNBL@CDbManager?3?3ConvBank@
CONST	SEGMENT
??_C@_0BF@CMCNBL@CDbManager?3?3ConvBank@ DB 'CDbManager::ConvBank', 00H ; `string'
CONST	ENDS
;	COMDAT ??_C@_0N@GFPOFJFP@?$CF02d?7?$CF07d?7?$CFs@
CONST	SEGMENT
??_C@_0N@GFPOFJFP@?$CF02d?7?$CF07d?7?$CFs@ DB '%02d', 09H, '%07d', 09H, '%'
	DB	's', 00H					; `string'
CONST	ENDS
;	COMDAT ??_C@_0CD@MKJMHBED@serverindex?7m_idPlayer?7m_Invent@
CONST	SEGMENT
??_C@_0CD@MKJMHBED@serverindex?7m_idPlayer?7m_Invent@ DB 'serverindex', 09H
	DB	'm_idPlayer', 09H, 'm_Inventory', 00H	; `string'
CONST	ENDS
;	COMDAT ??_C@_0BK@FIGGLKOA@CDbManager?3?3ConvInventory@
CONST	SEGMENT
??_C@_0BK@FIGGLKOA@CDbManager?3?3ConvInventory@ DB 'CDbManager::ConvInven'
	DB	'tory', 00H					; `string'
CONST	ENDS
;	COMDAT ??_C@_0BA@MDMAPKMI@?$CF02d?7?$CF07d?7?$CFd?7?$CFs@
CONST	SEGMENT
??_C@_0BA@MDMAPKMI@?$CF02d?7?$CF07d?7?$CFd?7?$CFs@ DB '%02d', 09H, '%07d', 09H
	DB	'%d', 09H, '%s', 00H				; `string'
CONST	ENDS
;	COMDAT ??_C@_0CE@CPGGFAKH@serverindex?7idPlayer?7nPocket?7sz@
CONST	SEGMENT
??_C@_0CE@CPGGFAKH@serverindex?7idPlayer?7nPocket?7sz@ DB 'serverindex', 09H
	DB	'idPlayer', 09H, 'nPocket', 09H, 'szItem', 00H ; `string'
CONST	ENDS
;	COMDAT ??_C@_0CK@DDAJLKOF@CDbManager?4ConvertPocket?3?5CQuer@
CONST	SEGMENT
??_C@_0CK@DDAJLKOF@CDbManager?4ConvertPocket?3?5CQuer@ DB 'CDbManager.Con'
	DB	'vertPocket: CQuery.Execute:', 00H		; `string'
CONST	ENDS
;	COMDAT ??_C@_0CL@LFKEKIPO@CDbManager?4ConvertPocket?3?5Creat@
CONST	SEGMENT
??_C@_0CL@LFKEKIPO@CDbManager?4ConvertPocket?3?5Creat@ DB 'CDbManager.Con'
	DB	'vertPocket: CreateCharQuery:', 00H		; `string'
CONST	ENDS
;	COMDAT ??_C@_0BG@CBIMLIMH@?$CF02d?7?$CF07d?7?$CFd?7?$CFs?7?$CFs?7?$CFs@
CONST	SEGMENT
??_C@_0BG@CBIMLIMH@?$CF02d?7?$CF07d?7?$CFd?7?$CFs?7?$CFs?7?$CFs@ DB '%02d'
	DB	09H, '%07d', 09H, '%d', 09H, '%s', 09H, '%s', 09H, '%s', 00H ; `string'
CONST	ENDS
;	COMDAT ??_C@_07LCDBAOIB@nPocket@
CONST	SEGMENT
??_C@_07LCDBAOIB@nPocket@ DB 'nPocket', 00H		; `string'
CONST	ENDS
;	COMDAT ??_C@_08EPHCN@idPlayer@
CONST	SEGMENT
??_C@_08EPHCN@idPlayer@ DB 'idPlayer', 00H		; `string'
CONST	ENDS
;	COMDAT ??_C@_0BE@FJBMKGKC@?4?4?1tblPocketExt?4txt@
CONST	SEGMENT
??_C@_0BE@FJBMKGKC@?4?4?1tblPocketExt?4txt@ DB '../tblPocketExt.txt', 00H ; `string'
CONST	ENDS
;	COMDAT ??_C@_0DE@LAEMGOFC@serverindex?7idPlayer?7nPocket?7sz@
CONST	SEGMENT
??_C@_0DE@LAEMGOFC@serverindex?7idPlayer?7nPocket?7sz@ DB 'serverindex', 09H
	DB	'idPlayer', 09H, 'nPocket', 09H, 'szExt', 09H, 'szPiercing', 09H
	DB	'szPet', 00H					; `string'
CONST	ENDS
;	COMDAT ??_C@_0BB@HAEOEKEN@?4?4?1tblPocket?4txt@
CONST	SEGMENT
??_C@_0BB@HAEOEKEN@?4?4?1tblPocket?4txt@ DB '../tblPocket.txt', 00H ; `string'
CONST	ENDS
;	COMDAT ??_C@_0DH@GGHKPBNC@serverindex?7idPlayer?7nPocket?7sz@
CONST	SEGMENT
??_C@_0DH@GGHKPBNC@serverindex?7idPlayer?7nPocket?7sz@ DB 'serverindex', 09H
	DB	'idPlayer', 09H, 'nPocket', 09H, 'szItem', 09H, 'szIndex', 09H
	DB	'szObjIndex', 00H				; `string'
CONST	ENDS
;	COMDAT ??_C@_0KD@MNBFCJME@SELECT?5?$CK?5FROM?5tblPocket?5A?0?5tblP@
CONST	SEGMENT
??_C@_0KD@MNBFCJME@SELECT?5?$CK?5FROM?5tblPocket?5A?0?5tblP@ DB 'SELECT *'
	DB	' FROM tblPocket A, tblPocketExt B WHERE A.serverindex = B.ser'
	DB	'verindex AND A.idPlayer = B.idPlayer AND A.nPocket = B.nPocke'
	DB	't ORDER BY A.idPlayer, A.nPocket', 00H	; `string'
CONST	ENDS
;	COMDAT ??_C@_0BD@DAMCIFOF@?$CF06d?7?$CF02d?7?$CFs?7?$CFs?7?$CFs@
CONST	SEGMENT
??_C@_0BD@DAMCIFOF@?$CF06d?7?$CF02d?7?$CFs?7?$CFs?7?$CFs@ DB '%06d', 09H, '%'
	DB	'02d', 09H, '%s', 09H, '%s', 09H, '%s', 00H	; `string'
CONST	ENDS
;	COMDAT ??_C@_0BK@OCDAJCDK@?4?4?1GUILD_BANK_EXT_TBL?4txt@
CONST	SEGMENT
??_C@_0BK@OCDAJCDK@?4?4?1GUILD_BANK_EXT_TBL?4txt@ DB '../GUILD_BANK_EXT_T'
	DB	'BL.txt', 00H				; `string'
CONST	ENDS
;	COMDAT ??_C@_0EI@GHICJNOK@m_idGuild?7serverindex?7m_extGuil@
CONST	SEGMENT
??_C@_0EI@GHICJNOK@m_idGuild?7serverindex?7m_extGuil@ DB 'm_idGuild', 09H
	DB	'serverindex', 09H, 'm_extGuildBank', 09H, 'm_GuildBankPiercin'
	DB	'g', 09H, 'szGuildBankPet', 00H		; `string'
CONST	ENDS
;	COMDAT ??_C@_0BG@NCOMJCF@?4?4?1GUILD_BANK_TBL?4txt@
CONST	SEGMENT
??_C@_0BG@NCOMJCF@?4?4?1GUILD_BANK_TBL?4txt@ DB '../GUILD_BANK_TBL.txt', 00H ; `string'
CONST	ENDS
;	COMDAT ??_C@_0DJ@OBFCJGNM@m_idGuild?7serverindex?7m_apIndex@
CONST	SEGMENT
??_C@_0DJ@OBFCJGNM@m_idGuild?7serverindex?7m_apIndex@ DB 'm_idGuild', 09H
	DB	'serverindex', 09H, 'm_apIndex', 09H, 'm_dwObjIndex', 09H, 'm_'
	DB	'GuildBank', 00H				; `string'
CONST	ENDS
;	COMDAT ??_C@_0HH@JAIOEOEA@SELECT?5?$CK?5FROM?5GUILD_BANK_TBL?5a?0@
CONST	SEGMENT
??_C@_0HH@JAIOEOEA@SELECT?5?$CK?5FROM?5GUILD_BANK_TBL?5a?0@ DB 'SELECT * '
	DB	'FROM GUILD_BANK_TBL a, GUILD_BANK_EXT_TBL b WHERE a.serverind'
	DB	'ex = b.serverindex and a.m_idGuild = b.m_idGuild', 00H ; `string'
CONST	ENDS
;	COMDAT ??_C@_0BE@GCKHPIBH@?4?4?1BANK_EXT_TBL?4txt@
CONST	SEGMENT
??_C@_0BE@GCKHPIBH@?4?4?1BANK_EXT_TBL?4txt@ DB '../BANK_EXT_TBL.txt', 00H ; `string'
CONST	ENDS
;	COMDAT ??_C@_0DK@IJEACFPL@m_idPlayer?7serverindex?7m_extBan@
CONST	SEGMENT
??_C@_0DK@IJEACFPL@m_idPlayer?7serverindex?7m_extBan@ DB 'm_idPlayer', 09H
	DB	'serverindex', 09H, 'm_extBank', 09H, 'm_BankPiercing', 09H, 's'
	DB	'zBankPet', 00H				; `string'
CONST	ENDS
;	COMDAT ??_C@_0BA@BCFIDMBA@?4?4?1BANK_TBL?4txt@
CONST	SEGMENT
??_C@_0BA@BCFIDMBA@?4?4?1BANK_TBL?4txt@ DB '../BANK_TBL.txt', 00H ; `string'
CONST	ENDS
;	COMDAT ??_C@_0DP@CMACDDNJ@m_idPlayer?7serverindex?7m_Bank?7m@
CONST	SEGMENT
??_C@_0DP@CMACDDNJ@m_idPlayer?7serverindex?7m_Bank?7m@ DB 'm_idPlayer', 09H
	DB	'serverindex', 09H, 'm_Bank', 09H, 'm_apIndex_Bank', 09H, 'm_d'
	DB	'wObjIndex_Bank', 00H			; `string'
CONST	ENDS
;	COMDAT ??_C@_0GN@BCBCENKE@SELECT?5?$CK?5FROM?5BANK_TBL?5a?0?5BANK_@
CONST	SEGMENT
??_C@_0GN@BCBCENKE@SELECT?5?$CK?5FROM?5BANK_TBL?5a?0?5BANK_@ DB 'SELECT *'
	DB	' FROM BANK_TBL a, BANK_EXT_TBL b WHERE b.serverindex = a.serv'
	DB	'erindex and a.m_idPlayer = b.m_idPlayer', 00H ; `string'
CONST	ENDS
;	COMDAT ??_C@_0BD@LHGEEOKG@?$CF07d?7?$CF02d?7?$CFs?7?$CFs?7?$CFs@
CONST	SEGMENT
??_C@_0BD@LHGEEOKG@?$CF07d?7?$CF02d?7?$CFs?7?$CFs?7?$CFs@ DB '%07d', 09H, '%'
	DB	'02d', 09H, '%s', 09H, '%s', 09H, '%s', 00H	; `string'
CONST	ENDS
;	COMDAT ??_C@_0M@HAMDNNBG@serverindex@
CONST	SEGMENT
??_C@_0M@HAMDNNBG@serverindex@ DB 'serverindex', 00H	; `string'
CONST	ENDS
;	COMDAT ??_C@_0BJ@FFBMFPIF@?4?4?1INVENTORY_EXT_TBL?4txt@
CONST	SEGMENT
??_C@_0BJ@FFBMFPIF@?4?4?1INVENTORY_EXT_TBL?4txt@ DB '../INVENTORY_EXT_TBL'
	DB	'.txt', 00H					; `string'
CONST	ENDS
;	COMDAT ??_C@_0EJ@DGGHAJNG@m_idPlayer?7serverindex?7m_extInv@
CONST	SEGMENT
??_C@_0EJ@DGGHAJNG@m_idPlayer?7serverindex?7m_extInv@ DB 'm_idPlayer', 09H
	DB	'serverindex', 09H, 'm_extInventory', 09H, 'm_InventoryPiercin'
	DB	'g', 09H, 'szInventoryPet', 00H		; `string'
CONST	ENDS
;	COMDAT ??_C@_0BF@JIBKJJCL@?4?4?1INVENTORY_TBL?4txt@
CONST	SEGMENT
??_C@_0BF@JIBKJJCL@?4?4?1INVENTORY_TBL?4txt@ DB '../INVENTORY_TBL.txt', 00H ; `string'
CONST	ENDS
;	COMDAT ??_C@_0DK@GKGMKIJO@m_idPlayer?7serverindex?7m_Invent@
CONST	SEGMENT
??_C@_0DK@GKGMKIJO@m_idPlayer?7serverindex?7m_Invent@ DB 'm_idPlayer', 09H
	DB	'serverindex', 09H, 'm_Inventory', 09H, 'm_apIndex', 09H, 'm_d'
	DB	'wObjIndex', 00H				; `string'
CONST	ENDS
;	COMDAT ??_C@_0HH@DDKDALIE@SELECT?5?$CK?5FROM?5INVENTORY_TBL?5a?0?5@
CONST	SEGMENT
??_C@_0HH@DDKDALIE@SELECT?5?$CK?5FROM?5INVENTORY_TBL?5a?0?5@ DB 'SELECT *'
	DB	' FROM INVENTORY_TBL a, INVENTORY_EXT_TBL b WHERE b.serverinde'
	DB	'x = a.serverindex and a.m_idPlayer = b.m_idPlayer', 00H ; `string'
CONST	ENDS
;	COMDAT ??_C@_0O@OACAKGLM@?4?4?1result?4txt@
CONST	SEGMENT
??_C@_0O@OACAKGLM@?4?4?1result?4txt@ DB '../result.txt', 00H ; `string'
CONST	ENDS
;	COMDAT ??_C@_07LEPKGKEM@?$CF07d?7?$CFd@
CONST	SEGMENT
??_C@_07LEPKGKEM@?$CF07d?7?$CFd@ DB '%07d', 09H, '%d', 00H ; `string'
CONST	ENDS
;	COMDAT ??_C@_0DL@HHOALFKH@CDbManager?3?3ReadMail?5?9?5pMailBox@
CONST	SEGMENT
??_C@_0DL@HHOALFKH@CDbManager?3?3ReadMail?5?9?5pMailBox@ DB 'CDbManager::'
	DB	'ReadMail - pMailBox is NULL. idReceiver : %07d', 00H ; `string'
CONST	ENDS
;	COMDAT ??_C@_0BL@CALLEKMB@QUERY?3?5PACKETTYPE_READMAIL@
CONST	SEGMENT
??_C@_0BL@CALLEKMB@QUERY?3?5PACKETTYPE_READMAIL@ DB 'QUERY: PACKETTYPE_RE'
	DB	'ADMAIL', 00H				; `string'
CONST	ENDS
;	COMDAT ??_C@_0CD@KCADOMMI@QUERY?3?5PACKETTYPE_QUERYGETMAILI@
CONST	SEGMENT
??_C@_0CD@KCADOMMI@QUERY?3?5PACKETTYPE_QUERYGETMAILI@ DB 'QUERY: PACKETTY'
	DB	'PE_QUERYGETMAILITEM', 00H			; `string'
CONST	ENDS
;	COMDAT ??_C@_0CC@BJEEPENO@QUERY?3?5PACKETTYPE_QUERYREMOVEMA@
CONST	SEGMENT
??_C@_0CC@BJEEPENO@QUERY?3?5PACKETTYPE_QUERYREMOVEMA@ DB 'QUERY: PACKETTY'
	DB	'PE_QUERYREMOVEMAIL', 00H			; `string'
CONST	ENDS
;	COMDAT ??_C@_0CD@KPIPNEMM@idSender?5?3?5?$CFd?0?5pMail?9?$DOm_nMail?5?3@
CONST	SEGMENT
??_C@_0CD@KPIPNEMM@idSender?5?3?5?$CFd?0?5pMail?9?$DOm_nMail?5?3@ DB 'idS'
	DB	'ender : %d, pMail->m_nMail : %d', 00H	; `string'
CONST	ENDS
;	COMDAT ??_C@_0CA@ECEDHJA@QUERY?3?5PACKETTYPE_QUERYPOSTMAIL@
CONST	SEGMENT
??_C@_0CA@ECEDHJA@QUERY?3?5PACKETTYPE_QUERYPOSTMAIL@ DB 'QUERY: PACKETTYP'
	DB	'E_QUERYPOSTMAIL', 00H			; `string'
CONST	ENDS
;	COMDAT ??_C@_04HIBGFPH@NULL@
CONST	SEGMENT
??_C@_04HIBGFPH@NULL@ DB 'NULL', 00H			; `string'
CONST	ENDS
;	COMDAT ??_C@_09EEEBIONF@szPetName@
CONST	SEGMENT
??_C@_09EEEBIONF@szPetName@ DB 'szPetName', 00H		; `string'
CONST	ENDS
;	COMDAT ??_C@_0P@JFKPENNC@anAvailLevel_S@
CONST	SEGMENT
??_C@_0P@JFKPENNC@anAvailLevel_S@ DB 'anAvailLevel_S', 00H ; `string'
CONST	ENDS
;	COMDAT ??_C@_0P@ONFLDNAB@anAvailLevel_A@
CONST	SEGMENT
??_C@_0P@ONFLDNAB@anAvailLevel_A@ DB 'anAvailLevel_A', 00H ; `string'
CONST	ENDS
;	COMDAT ??_C@_0P@MGHGGOMC@anAvailLevel_B@
CONST	SEGMENT
??_C@_0P@MGHGGOMC@anAvailLevel_B@ DB 'anAvailLevel_B', 00H ; `string'
CONST	ENDS
;	COMDAT ??_C@_0P@NPGNFPID@anAvailLevel_C@
CONST	SEGMENT
??_C@_0P@NPGNFPID@anAvailLevel_C@ DB 'anAvailLevel_C', 00H ; `string'
CONST	ENDS
;	COMDAT ??_C@_0P@JACMMJEE@anAvailLevel_D@
CONST	SEGMENT
??_C@_0P@JACMMJEE@anAvailLevel_D@ DB 'anAvailLevel_D', 00H ; `string'
CONST	ENDS
;	COMDAT ??_C@_05NHOHEGJE@wLife@
CONST	SEGMENT
??_C@_05NHOHEGJE@wLife@ DB 'wLife', 00H			; `string'
CONST	ENDS
;	COMDAT ??_C@_07DLAEADNL@wEnergy@
CONST	SEGMENT
??_C@_07DLAEADNL@wEnergy@ DB 'wEnergy', 00H		; `string'
CONST	ENDS
;	COMDAT ??_C@_05EPLNMHNO@dwExp@
CONST	SEGMENT
??_C@_05EPLNMHNO@dwExp@ DB 'dwExp', 00H			; `string'
CONST	ENDS
;	COMDAT ??_C@_06FJFCPHDD@nLevel@
CONST	SEGMENT
??_C@_06FJFCPHDD@nLevel@ DB 'nLevel', 00H		; `string'
CONST	ENDS
;	COMDAT ??_C@_05FGBGKJCO@nKind@
CONST	SEGMENT
??_C@_05FGBGKJCO@nKind@ DB 'nKind', 00H			; `string'
CONST	ENDS
;	COMDAT ??_C@_04BEGNJGFE@bPet@
CONST	SEGMENT
??_C@_04BEGNJGFE@bPet@ DB 'bPet', 00H			; `string'
CONST	ENDS
;	COMDAT ??_C@_0BA@FAGCDGFP@nResistSMItemId@
CONST	SEGMENT
??_C@_0BA@FAGCDGFP@nResistSMItemId@ DB 'nResistSMItemId', 00H ; `string'
CONST	ENDS
;	COMDAT ??_C@_0BF@CKLODGMG@nResistAbilityOption@
CONST	SEGMENT
??_C@_0BF@CKLODGMG@nResistAbilityOption@ DB 'nResistAbilityOption', 00H ; `string'
CONST	ENDS
;	COMDAT ??_C@_0O@ICNEFFIB@nRepairNumber@
CONST	SEGMENT
??_C@_0O@ICNEFFIB@nRepairNumber@ DB 'nRepairNumber', 00H ; `string'
CONST	ENDS
;	COMDAT ??_C@_08GDJLCBND@nItemNum@
CONST	SEGMENT
??_C@_08GDJLCBND@nItemNum@ DB 'nItemNum', 00H		; `string'
CONST	ENDS
;	COMDAT ??_C@_0N@DEIHLBJE@nMaxHitPoint@
CONST	SEGMENT
??_C@_0N@DEIHLBJE@nMaxHitPoint@ DB 'nMaxHitPoint', 00H	; `string'
CONST	ENDS
;	COMDAT ??_C@_09DJEKEHMH@nHitPoint@
CONST	SEGMENT
??_C@_09DJEKEHMH@nHitPoint@ DB 'nHitPoint', 00H		; `string'
CONST	ENDS
;	COMDAT ??_C@_07BEFEKOPM@nOption@
CONST	SEGMENT
??_C@_07BEFEKOPM@nOption@ DB 'nOption', 00H		; `string'
CONST	ENDS
;	COMDAT ??_C@_07PJNICPF@idGuild@
CONST	SEGMENT
??_C@_07PJNICPF@idGuild@ DB 'idGuild', 00H		; `string'
CONST	ENDS
;	COMDAT ??_C@_0P@MANOGNLM@dwSerialNumber@
CONST	SEGMENT
??_C@_0P@MANOGNLM@dwSerialNumber@ DB 'dwSerialNumber', 00H ; `string'
CONST	ENDS
;	COMDAT ??_C@_0L@KFLIHONN@dwKeepTime@
CONST	SEGMENT
??_C@_0L@KFLIHONN@dwKeepTime@ DB 'dwKeepTime', 00H	; `string'
CONST	ENDS
;	COMDAT ??_C@_06JHHNJIGB@byFlag@
CONST	SEGMENT
??_C@_06JHHNJIGB@byFlag@ DB 'byFlag', 00H		; `string'
CONST	ENDS
;	COMDAT ??_C@_0M@EGDFJGBE@bItemResist@
CONST	SEGMENT
??_C@_0M@EGDFJGBE@bItemResist@ DB 'bItemResist', 00H	; `string'
CONST	ENDS
;	COMDAT ??_C@_08NNOOICHN@bCharged@
CONST	SEGMENT
??_C@_08NNOOICHN@bCharged@ DB 'bCharged', 00H		; `string'
CONST	ENDS
;	COMDAT ??_C@_0BH@EKOCNHPB@MaxMailID?5is?5not?5valid@
CONST	SEGMENT
??_C@_0BH@EKOCNHPB@MaxMailID?5is?5not?5valid@ DB 'MaxMailID is not valid', 00H ; `string'
CONST	ENDS
;	COMDAT ??_C@_0DG@PNAACHHM@CDbManager?4LoadPost?3?5count?5?9?$DO?5c@
CONST	SEGMENT
??_C@_0DG@PNAACHHM@CDbManager?4LoadPost?3?5count?5?9?$DO?5c@ DB 'CDbManag'
	DB	'er.LoadPost: count -> count : %d, nTotal : %d', 00H ; `string'
CONST	ENDS
;	COMDAT ??_C@_06HOEPIFBB@nCount@
CONST	SEGMENT
??_C@_06HOEPIFBB@nCount@ DB 'nCount', 00H		; `string'
CONST	ENDS
;	COMDAT ??_C@_09KLGEKNNE@MaxMailID@
CONST	SEGMENT
??_C@_09KLGEKNNE@MaxMailID@ DB 'MaxMailID', 00H		; `string'
CONST	ENDS
;	COMDAT ??_C@_0BI@DPOGOKDO@QUERY?3?5uspLoadMaxMailID@
CONST	SEGMENT
??_C@_0BI@DPOGOKDO@QUERY?3?5uspLoadMaxMailID@ DB 'QUERY: uspLoadMaxMailID'
	DB	00H						; `string'
CONST	ENDS
;	COMDAT ??_C@_0CG@DHJGMPFF@uspLoadMaxMailID?5?$EApserverindex?$DN@
CONST	SEGMENT
??_C@_0CG@DHJGMPFF@uspLoadMaxMailID?5?$EApserverindex?$DN@ DB 'uspLoadMax'
	DB	'MailID @pserverindex=''%02d''', 00H		; `string'
CONST	ENDS
;	COMDAT ??_C@_0BJ@FKNELFCI@ERROR?3?5LoadPost?3?5AddMail@
CONST	SEGMENT
??_C@_0BJ@FKNELFCI@ERROR?3?5LoadPost?3?5AddMail@ DB 'ERROR: LoadPost: Add'
	DB	'Mail', 00H					; `string'
CONST	ENDS
;	COMDAT ??_C@_0CA@CMMNIEML@CDbManager?4LoadPost?3?5duplicated@
CONST	SEGMENT
??_C@_0CA@CMMNIEML@CDbManager?4LoadPost?3?5duplicated@ DB 'CDbManager.Loa'
	DB	'dPost: duplicated', 00H			; `string'
CONST	ENDS
;	COMDAT ??_C@_08BJIIBDAC@dwItemId@
CONST	SEGMENT
??_C@_08BJIIBDAC@dwItemId@ DB 'dwItemId', 00H		; `string'
CONST	ENDS
;	COMDAT ??_C@_08OLNDAHIE@ItemFlag@
CONST	SEGMENT
??_C@_08OLNDAHIE@ItemFlag@ DB 'ItemFlag', 00H		; `string'
CONST	ENDS
;	COMDAT ??_C@_06MFHACPLA@szText@
CONST	SEGMENT
??_C@_06MFHACPLA@szText@ DB 'szText', 00H		; `string'
CONST	ENDS
;	COMDAT ??_C@_07EODNPMDA@szTitle@
CONST	SEGMENT
??_C@_07EODNPMDA@szTitle@ DB 'szTitle', 00H		; `string'
CONST	ENDS
;	COMDAT ??_C@_06FEDILFGK@byRead@
CONST	SEGMENT
??_C@_06FEDILFGK@byRead@ DB 'byRead', 00H		; `string'
CONST	ENDS
;	COMDAT ??_C@_08FFGEDIPJ@tmCreate@
CONST	SEGMENT
??_C@_08FFGEDIPJ@tmCreate@ DB 'tmCreate', 00H		; `string'
CONST	ENDS
;	COMDAT ??_C@_05LFAJMPJN@nGold@
CONST	SEGMENT
??_C@_05LFAJMPJN@nGold@ DB 'nGold', 00H			; `string'
CONST	ENDS
;	COMDAT ??_C@_08LAFHOFHA@GoldFlag@
CONST	SEGMENT
??_C@_08LAFHOFHA@GoldFlag@ DB 'GoldFlag', 00H		; `string'
CONST	ENDS
;	COMDAT ??_C@_08DGMAKEOL@idSender@
CONST	SEGMENT
??_C@_08DGMAKEOL@idSender@ DB 'idSender', 00H		; `string'
CONST	ENDS
;	COMDAT ??_C@_05NBHEOIOM@nMail@
CONST	SEGMENT
??_C@_05NBHEOIOM@nMail@ DB 'nMail', 00H			; `string'
CONST	ENDS
;	COMDAT ??_C@_0L@MIEGLFNJ@idReceiver@
CONST	SEGMENT
??_C@_0L@MIEGLFNJ@idReceiver@ DB 'idReceiver', 00H	; `string'
CONST	ENDS
;	COMDAT ??_C@_0BF@PHJIKFAC@QUERY?3?5MAIL_STR?5?8S1?8@
CONST	SEGMENT
??_C@_0BF@PHJIKFAC@QUERY?3?5MAIL_STR?5?8S1?8@ DB 'QUERY: MAIL_STR ''S1''', 00H ; `string'
CONST	ENDS
;	COMDAT ??_C@_0BO@DDHKBCOE@Error?5?3?5Can?8t?5connect?5CHAR_DB@
CONST	SEGMENT
??_C@_0BO@DDHKBCOE@Error?5?3?5Can?8t?5connect?5CHAR_DB@ DB 'Error : Can'''
	DB	't connect CHAR_DB', 00H			; `string'
CONST	ENDS
;	COMDAT ??_C@_0BJ@HNFBAJDL@UPDATE?5INVENTORY_EXT_TBL@
CONST	SEGMENT
??_C@_0BJ@HNFBAJDL@UPDATE?5INVENTORY_EXT_TBL@ DB 'UPDATE INVENTORY_EXT_TB'
	DB	'L', 00H					; `string'
CONST	ENDS
;	COMDAT ??_C@_0IC@GOCAMAFG@UPDATE?5INVENTORY_EXT_TBL?5SET?5m_@
CONST	SEGMENT
??_C@_0IC@GOCAMAFG@UPDATE?5INVENTORY_EXT_TBL?5SET?5m_@ DB 'UPDATE INVENTO'
	DB	'RY_EXT_TBL SET m_extInventory = ''%s'', m_InventoryPiercing ='
	DB	' ''%s'' where m_idPlayer = ''%07d'' and serverindex = ''%02d'''
	DB	00H						; `string'
CONST	ENDS
;	COMDAT ??_C@_0BF@IADJBACK@UPDATE?5INVENTORY_TBL@
CONST	SEGMENT
??_C@_0BF@IADJBACK@UPDATE?5INVENTORY_TBL@ DB 'UPDATE INVENTORY_TBL', 00H ; `string'
CONST	ENDS
;	COMDAT ??_C@_0IG@DEIOPEPG@UPDATE?5INVENTORY_TBL?5SET?5m_Inve@
CONST	SEGMENT
??_C@_0IG@DEIOPEPG@UPDATE?5INVENTORY_TBL?5SET?5m_Inve@ DB 'UPDATE INVENTO'
	DB	'RY_TBL SET m_Inventory = ''%s'', m_apIndex = ''%s'', m_dwObjI'
	DB	'ndex = ''%s'' where m_idPlayer = ''%07d'' and serverindex = '''
	DB	'%02d''', 00H				; `string'
CONST	ENDS
;	COMDAT ??_C@_0BO@KJCAOGEE@?4?4?2InventoryToItemSendTbl?4log@
CONST	SEGMENT
??_C@_0BO@KJCAOGEE@?4?4?2InventoryToItemSendTbl?4log@ DB '..\InventoryToI'
	DB	'temSendTbl.log', 00H			; `string'
CONST	ENDS
;	COMDAT ??_C@_0FJ@NHANCDN@UPDATE?5CHARACTER_TBL?5SET?5m_dwGo@
CONST	SEGMENT
??_C@_0FJ@NHANCDN@UPDATE?5CHARACTER_TBL?5SET?5m_dwGo@ DB 'UPDATE CHARACTE'
	DB	'R_TBL SET m_dwGold = 0 where m_idPlayer = ''%07d'' and server'
	DB	'index = ''%02d''', 00H			; `string'
CONST	ENDS
;	COMDAT ??_C@_0GK@CBFEPGLL@insert?5ITEM_SEND_TBL?5?$CIm_idPlaye@
CONST	SEGMENT
??_C@_0GK@CBFEPGLL@insert?5ITEM_SEND_TBL?5?$CIm_idPlaye@ DB 'insert ITEM_'
	DB	'SEND_TBL (m_idPlayer, serverindex, Item_Name, Item_count ) VA'
	DB	'LUES (''%07d'',''%02d'',''penya'', %d)', 00H ; `string'
CONST	ENDS
;	COMDAT ??_C@_08JIMIMGKM@m_dwGold@
CONST	SEGMENT
??_C@_08JIMIMGKM@m_dwGold@ DB 'm_dwGold', 00H		; `string'
CONST	ENDS
;	COMDAT ??_C@_0BIN@CNDOPEGJ@select?5a?4m_idPlayer?0?5a?4serverin@
CONST	SEGMENT
??_C@_0BIN@CNDOPEGJ@select?5a?4m_idPlayer?0?5a?4serverin@ DB 'select a.m_'
	DB	'idPlayer, a.serverindex, c.m_dwGold, a.m_Inventory, a.m_apInd'
	DB	'ex, a.m_dwObjIndex, a.m_adwEquipment, b.m_extInventory, b.m_I'
	DB	'nventoryPiercing  from INVENTORY_TBL a, INVENTORY_EXT_TBL b, '
	DB	'CHARACTER_TBL c where a.m_idPlayer = b.m_idPlayer and b.m_idP'
	DB	'layer = c.m_idPlayer and a.serverindex = b.serverindex and b.'
	DB	'serverindex = c.serverindex and a.m_idPlayer = ''%07d'' and a'
	DB	'.serverindex = ''%02d''', 00H		; `string'
CONST	ENDS
;	COMDAT ??_C@_0CH@PBNBEFFM@CDbManager?3?3InventoryToItemSend@
CONST	SEGMENT
??_C@_0CH@PBNBEFFM@CDbManager?3?3InventoryToItemSend@ DB 'CDbManager::Inv'
	DB	'entoryToItemSendTblList', 00H		; `string'
CONST	ENDS
;	COMDAT ??_C@_0BE@BNFPHPPG@UPDATE?5BANK_EXT_TBL@
CONST	SEGMENT
??_C@_0BE@BNFPHPPG@UPDATE?5BANK_EXT_TBL@ DB 'UPDATE BANK_EXT_TBL', 00H ; `string'
CONST	ENDS
;	COMDAT ??_C@_0HD@HOMCPDMG@UPDATE?5BANK_EXT_TBL?5SET?5m_extBa@
CONST	SEGMENT
??_C@_0HD@HOMCPDMG@UPDATE?5BANK_EXT_TBL?5SET?5m_extBa@ DB 'UPDATE BANK_EX'
	DB	'T_TBL SET m_extBank = ''%s'', m_BankPiercing = ''%s'' where m'
	DB	'_idPlayer = ''%07d'' and serverindex = ''%02d''', 00H ; `string'
CONST	ENDS
;	COMDAT ??_C@_0BA@HFOKCGBB@UPDATE?5BANK_TBL@
CONST	SEGMENT
??_C@_0BA@HFOKCGBB@UPDATE?5BANK_TBL@ DB 'UPDATE BANK_TBL', 00H ; `string'
CONST	ENDS
;	COMDAT ??_C@_0IG@OELLNNGM@UPDATE?5BANK_TBL?5SET?5m_Bank?5?$DN?5?8?$CF@
CONST	SEGMENT
??_C@_0IG@OELLNNGM@UPDATE?5BANK_TBL?5SET?5m_Bank?5?$DN?5?8?$CF@ DB 'UPDAT'
	DB	'E BANK_TBL SET m_Bank = ''%s'', m_apIndex_Bank = ''%s'', m_dw'
	DB	'ObjIndex_Bank = ''%s'' where m_idPlayer = ''%07d'' and server'
	DB	'index = ''%02d''', 00H			; `string'
CONST	ENDS
;	COMDAT ??_C@_0BF@BKMLAAOE@insert?5ITEM_SEND_TBL@
CONST	SEGMENT
??_C@_0BF@BKMLAAOE@insert?5ITEM_SEND_TBL@ DB 'insert ITEM_SEND_TBL', 00H ; `string'
CONST	ENDS
;	COMDAT ??_C@_0MF@BFPKDDCH@insert?5ITEM_SEND_TBL?5?$CIm_idPlaye@
CONST	SEGMENT
??_C@_0MF@BFPKDDCH@insert?5ITEM_SEND_TBL?5?$CIm_idPlaye@ DB 'insert ITEM_'
	DB	'SEND_TBL (m_idPlayer, serverindex, Item_Name, Item_count, m_n'
	DB	'AbilityOption,  End_Time, m_bItemResist, m_nResistAbilityOpti'
	DB	'on, m_bCharged) VALUES (''%07d'',''%02d'',''%d'',%d,%d,NULL,%'
	DB	'd,%d,1)', 00H				; `string'
CONST	ENDS
;	COMDAT ??_C@_0BB@JODCJAP@adwItemId?$FL?$CFd?$FN?3?$CFd@
CONST	SEGMENT
??_C@_0BB@JODCJAP@adwItemId?$FL?$CFd?$FN?3?$CFd@ DB 'adwItemId[%d]:%d', 00H ; `string'
CONST	ENDS
;	COMDAT ??_C@_0BJ@PCPIAEMP@?4?4?2BankToItemSendTbl?4log@
CONST	SEGMENT
??_C@_0BJ@PCPIAEMP@?4?4?2BankToItemSendTbl?4log@ DB '..\BankToItemSendTbl'
	DB	'.log', 00H					; `string'
CONST	ENDS
;	COMDAT ??_C@_0EA@DEFMDJID@idPlayer?3?$CF07d?7Item?3?$CFs?$CI?$CFd?$CJ?7nItem@
CONST	SEGMENT
??_C@_0EA@DEFMDJID@idPlayer?3?$CF07d?7Item?3?$CFs?$CI?$CFd?$CJ?7nItem@ DB 'i'
	DB	'dPlayer:%07d', 09H, 'Item:%s(%d)', 09H, 'nItemNum:%d', 09H, 'n'
	DB	'PiercedSize:%d', 09H, 'dwTime:%d', 00H	; `string'
CONST	ENDS
;	COMDAT ??_C@_05MFAGOMAN@Fetch@
CONST	SEGMENT
??_C@_05MFAGOMAN@Fetch@ DB 'Fetch', 00H			; `string'
CONST	ENDS
;	COMDAT ??_C@_04HIJGGAH@Exec@
CONST	SEGMENT
??_C@_04HIJGGAH@Exec@ DB 'Exec', 00H			; `string'
CONST	ENDS
;	COMDAT ??_C@_0BAN@GJDOADPE@select?5a?4m_idPlayer?0?5a?4serverin@
CONST	SEGMENT
??_C@_0BAN@GJDOADPE@select?5a?4m_idPlayer?0?5a?4serverin@ DB 'select a.m_'
	DB	'idPlayer, a.serverindex, a.m_Bank, a.m_apIndex_Bank, a.m_dwOb'
	DB	'jIndex_Bank, b.m_extBank, b.m_BankPiercing  from BANK_TBL a, '
	DB	'BANK_EXT_TBL b where a.m_idPlayer = b.m_idPlayer and a.m_idPl'
	DB	'ayer = ''%07d'' and a.serverindex = b.serverindex and b.serve'
	DB	'rindex = ''%02d''', 00H			; `string'
CONST	ENDS
;	COMDAT ??_C@_0CC@LDFDNPIJ@CDbManager?3?3BankToItemSendTblLi@
CONST	SEGMENT
??_C@_0CC@LDFDNPIJ@CDbManager?3?3BankToItemSendTblLi@ DB 'CDbManager::Ban'
	DB	'kToItemSendTblList', 00H			; `string'
CONST	ENDS
;	COMDAT ??_C@_0BI@FFKLHCEE@?0?$EAim_aCheckedQuest?$DN?8?$CFs?8@
CONST	SEGMENT
??_C@_0BI@FFKLHCEE@?0?$EAim_aCheckedQuest?$DN?8?$CFs?8@ DB ',@im_aChecked'
	DB	'Quest=''%s''', 00H				; `string'
CONST	ENDS
;	COMDAT ??_C@_0BB@JGGKBODG@?0?$EAim_idCampus?$DN?$CFd@
CONST	SEGMENT
??_C@_0BB@JGGKBODG@?0?$EAim_idCampus?$DN?$CFd@ DB ',@im_idCampus=%d', 00H ; `string'
CONST	ENDS
;	COMDAT ??_C@_0BF@EMLOFKFO@?0?$EAim_nCampusPoint?$DN?$CFd@
CONST	SEGMENT
??_C@_0BF@EMLOFKFO@?0?$EAim_nCampusPoint?$DN?$CFd@ DB ',@im_nCampusPoint='
	DB	'%d', 00H					; `string'
CONST	ENDS
;	COMDAT ??_C@_0P@EDMNOLO@?0?$EAim_nLayer?$DN?$CFd@
CONST	SEGMENT
??_C@_0P@EDMNOLO@?0?$EAim_nLayer?$DN?$CFd@ DB ',@im_nLayer=%d', 00H ; `string'
CONST	ENDS
;	COMDAT ??_C@_0P@EPLIBMKG@?0?$EAim_nHonor?$DN?$CFd@
CONST	SEGMENT
??_C@_0P@EPLIBMKG@?0?$EAim_nHonor?$DN?$CFd@ DB ',@im_nHonor=%d', 00H ; `string'
CONST	ENDS
;	COMDAT ??_C@_0BA@FCMCBGBG@?0?$EAim_nCoupon?$DN?$CFd@
CONST	SEGMENT
??_C@_0BA@FCMCBGBG@?0?$EAim_nCoupon?$DN?$CFd@ DB ',@im_nCoupon=%d', 00H ; `string'
CONST	ENDS
;	COMDAT ??_C@_0CF@NIIHNAO@?0?$EAim_nExpLog?$DN?$CFd?0?5?$EAim_nAngelExpL@
CONST	SEGMENT
??_C@_0CF@NIIHNAO@?0?$EAim_nExpLog?$DN?$CFd?0?5?$EAim_nAngelExpL@ DB ',@i'
	DB	'm_nExpLog=%d, @im_nAngelExpLog=%d', 00H	; `string'
CONST	ENDS
;	COMDAT ??_C@_0DI@PBKCLAFF@?0?$EAiszInventoryPet?$DN?8?$CFs?8?0?$EAiszBank@
CONST	SEGMENT
??_C@_0DI@PBKCLAFF@?0?$EAiszInventoryPet?$DN?8?$CFs?8?0?$EAiszBank@ DB ','
	DB	'@iszInventoryPet=''%s'',@iszBankPet=''%s'', @im_dwPetId=%d', 00H ; `string'
CONST	ENDS
;	COMDAT ??_C@_0CI@GMBADEAJ@?0?$EAim_nAngelExp?$DN?$CFI64d?0?$EAim_nAngel@
CONST	SEGMENT
??_C@_0CI@GMBADEAJ@?0?$EAim_nAngelExp?$DN?$CFI64d?0?$EAim_nAngel@ DB ',@i'
	DB	'm_nAngelExp=%I64d,@im_nAngelLevel=%d', 00H	; `string'
CONST	ENDS
;	COMDAT ??_C@_0DG@CEHLEBAH@?0?$EAim_nPKValue?$DN?$CFd?0?$EAim_dwPKPropen@
CONST	SEGMENT
??_C@_0DG@CEHLEBAH@?0?$EAim_nPKValue?$DN?$CFd?0?$EAim_dwPKPropen@ DB ',@i'
	DB	'm_nPKValue=%d,@im_dwPKPropensity=%d,@im_dwPKExp=%d', 00H ; `string'
CONST	ENDS
;	COMDAT ??_C@_0FE@ICFAFHCC@?0?$EAim_dwReturnWorldID?$DN?$CFd?0?$EAim_vRe@
CONST	SEGMENT
??_C@_0FE@ICFAFHCC@?0?$EAim_dwReturnWorldID?$DN?$CFd?0?$EAim_vRe@ DB ',@i'
	DB	'm_dwReturnWorldID=%d,@im_vReturnPos_x=%f,@im_vReturnPos_y=%f,'
	DB	'@im_vReturnPos_z=%f', 00H			; `string'
CONST	ENDS
;	COMDAT ??_C@_0FK@JAPGNBAO@?0?$EAim_extInventory?$DN?8?$CFs?8?0?$EAim_Inve@
CONST	SEGMENT
??_C@_0FK@JAPGNBAO@?0?$EAim_extInventory?$DN?8?$CFs?8?0?$EAim_Inve@ DB ','
	DB	'@im_extInventory=''%s'',@im_InventoryPiercing=''%s'',@im_extB'
	DB	'ank=''%s'',@im_BankPiercing =''%s''', 00H	; `string'
CONST	ENDS
;	COMDAT ??_C@_0BJ@BDOACMMJ@?0?$EAim_aCompleteQuest?$DN?8?$CFs?8@
CONST	SEGMENT
??_C@_0BJ@BDOACMMJ@?0?$EAim_aCompleteQuest?$DN?8?$CFs?8@ DB ',@im_aComple'
	DB	'teQuest=''%s''', 00H			; `string'
CONST	ENDS
;	COMDAT ??_C@_0BH@EDEAODML@?0?$EAiSkillInfluence?$DN?8?$CFs?8@
CONST	SEGMENT
??_C@_0BH@EDEAODML@?0?$EAiSkillInfluence?$DN?8?$CFs?8@ DB ',@iSkillInflue'
	DB	'nce=''%s''', 00H				; `string'
CONST	ENDS
;	COMDAT ??_C@_0BD@KHHFKGDJ@?0?$EAim_dwSMTime?$DN?8?$CFs?8@
CONST	SEGMENT
??_C@_0BD@KHHFKGDJ@?0?$EAim_dwSMTime?$DN?8?$CFs?8@ DB ',@im_dwSMTime=''%s'
	DB	'''', 00H					; `string'
CONST	ENDS
;	COMDAT ??_C@_0BC@EDMPNKPP@?0?$EAim_tmAccFuel?$DN?$CFd@
CONST	SEGMENT
??_C@_0BC@EDMPNKPP@?0?$EAim_tmAccFuel?$DN?$CFd@ DB ',@im_tmAccFuel=%d', 00H ; `string'
CONST	ENDS
;	COMDAT ??_C@_0KJ@DJDBFKF@?0?$EAim_aSlotApplet?$DN?8?$CFs?8?0?$EAim_aSlot@
CONST	SEGMENT
??_C@_0KJ@DJDBFKF@?0?$EAim_aSlotApplet?$DN?8?$CFs?8?0?$EAim_aSlot@ DB ',@'
	DB	'im_aSlotApplet=''%s'',@im_aSlotItem=''%s'',@im_aSlotQueue=''%'
	DB	's'',@im_SkillBar=%d,@im_Bank=''%s'',@im_apIndex_Bank=''%s'',@'
	DB	'im_dwObjIndex_Bank=''%s'',@im_dwGoldBank=%d,@im_nFuel=%d', 00H ; `string'
CONST	ENDS
;	COMDAT ??_C@_0MB@FOFPDGBJ@?0?$EAim_Card?$DN?8?$CFs?8?0?$EAim_Index_Card?$DN?8@
CONST	SEGMENT
??_C@_0MB@FOFPDGBJ@?0?$EAim_Card?$DN?8?$CFs?8?0?$EAim_Index_Card?$DN?8@ DB ','
	DB	'@im_Card=''%s'',@im_Index_Card=''%s'',@im_ObjIndex_Card=''%s'''
	DB	',@im_Cube=''%s'',@im_Index_Cube=''%s'',@im_ObjIndex_Cube=''%s'
	DB	''',@im_Inventory=''%s'',@im_apIndex=''%s'',@im_adwEquipment='''
	DB	'%s'',@im_dwObjIndex=''%s''', 00H		; `string'
CONST	ENDS
;	COMDAT ??_C@_0JC@GMDCCAGD@?0?$EAim_idparty?$DN?$CFd?0?$EAim_idMuerderer@
CONST	SEGMENT
??_C@_0JC@GMDCCAGD@?0?$EAim_idparty?$DN?$CFd?0?$EAim_idMuerderer@ DB ',@i'
	DB	'm_idparty=%d,@im_idMuerderer=%d,@im_nFame=%d,@im_nDeathExp=%I'
	DB	'64d,@im_nDeathLevel=%d,@im_dwFlyTime=%d,@im_nMessengerState=%'
	DB	'd,@iTotalPlayTime=%d', 00H			; `string'
CONST	ENDS
;	COMDAT ??_C@_0LC@FIOHKONH@?0?$EAim_vMarkingPos_y?$DN?$CFf?0?$EAim_vMark@
CONST	SEGMENT
??_C@_0LC@FIOHKONH@?0?$EAim_vMarkingPos_y?$DN?$CFf?0?$EAim_vMark@ DB ',@i'
	DB	'm_vMarkingPos_y=%f,@im_vMarkingPos_z=%f,@im_nRemainGP=%d,@im_'
	DB	'nRemainLP=%d,@im_nFlightLv=%d,@im_nFxp=%d,@im_nTxp=%d,@im_lpQ'
	DB	'uestCntArray=''%s'',@im_chAuthority=''%c'',@im_dwMode=%d', 00H ; `string'
CONST	ENDS
;	COMDAT ??_C@_0LC@ODPEDFFA@?0?$EAim_nInt?$DN?$CFd?0?$EAim_nLevel?$DN?$CFd?0?$EAim_@
CONST	SEGMENT
??_C@_0LC@ODPEDFFA@?0?$EAim_nInt?$DN?$CFd?0?$EAim_nLevel?$DN?$CFd?0?$EAim_@ DB ','
	DB	'@im_nInt=%d,@im_nLevel=%d,@im_nExp1=%I64d,@im_nExp2=%I64d,@im'
	DB	'_aJobSkill=''%s'',@im_aLicenseSkill=''%s'',@im_aJobLv=''%s'','
	DB	'@im_dwExpertLv=%d,@im_idMarkingWorld=%d,@im_vMarkingPos_x=%f', 00H ; `string'
CONST	ENDS
;	COMDAT ??_C@_0JP@DGKOHOMP@?0?$EAim_nHitPoint?$DN?$CFd?0?$EAim_nManaPoin@
CONST	SEGMENT
??_C@_0JP@DGKOHOMP@?0?$EAim_nHitPoint?$DN?$CFd?0?$EAim_nManaPoin@ DB ',@i'
	DB	'm_nHitPoint=%d,@im_nManaPoint=%d,@im_nFatiguePoint=%d,@im_dwR'
	DB	'ideItemIdx=%d,@im_dwGold=%d,@im_nJob=%d,@im_pActMover=''%s'','
	DB	'@im_nStr=%d,@im_nSta=%d,@im_nDex=%d', 00H	; `string'
CONST	ENDS
;	COMDAT ??_C@_0KK@HNNIBLOG@?0?$EAim_vPos_z?$DN?$CFf?0?$EAim_szCharacterK@
CONST	SEGMENT
??_C@_0KK@HNNIBLOG@?0?$EAim_vPos_z?$DN?$CFf?0?$EAim_szCharacterK@ DB ',@i'
	DB	'm_vPos_z=%f,@im_szCharacterKey=''%s'',@im_dwSkinSet=%d,@im_dw'
	DB	'HairMesh=%d,@im_dwHairColor=%d,@im_dwHeadMesh=%d,@im_dwSex=%d'
	DB	',@im_vScale_x=%f,@im_dwMotion=%d,@im_fAngle=%f', 00H ; `string'
CONST	ENDS
;	COMDAT ??_C@_0FL@NCAPLAPN@?0?$EAim_szName?$DN?8?$CFs?8?0?$EAiplayerslot?$DN?$CF@
CONST	SEGMENT
??_C@_0FL@NCAPLAPN@?0?$EAim_szName?$DN?8?$CFs?8?0?$EAiplayerslot?$DN?$CF@ DB ','
	DB	'@im_szName=''%s'',@iplayerslot=%d,@idwWorldID=%d,@im_dwIndex='
	DB	'%d,@im_vPos_x=%f,@im_vPos_y=%f', 00H	; `string'
CONST	ENDS
;	COMDAT ??_C@_0DJ@LJFJGNAH@?0?$EAim_idPlayer?$DN?8?$CF07d?8?0?$EAiserverin@
CONST	SEGMENT
??_C@_0DJ@LJFJGNAH@?0?$EAim_idPlayer?$DN?8?$CF07d?8?0?$EAiserverin@ DB ','
	DB	'@im_idPlayer=''%07d'',@iserverindex=''%02d'',@iaccount=''%s'''
	DB	00H						; `string'
CONST	ENDS
;	COMDAT ??_C@_0BD@PFKACCAG@CHARACTER_STR?5?8?$CFs?8@
CONST	SEGMENT
??_C@_0BD@PFKACCAG@CHARACTER_STR?5?8?$CFs?8@ DB 'CHARACTER_STR ''%s''', 00H ; `string'
CONST	ENDS
;	COMDAT ??_C@_0FP@EJDDILN@LOG_GAMEMASTER_STR?5?5?8?$EAim_idPlay@
CONST	SEGMENT
??_C@_0FP@EJDDILN@LOG_GAMEMASTER_STR?5?5?8?$EAim_idPlay@ DB 'LOG_GAMEMAST'
	DB	'ER_STR  ''@im_idPlayer=%07d'',@iserverindex=''%02d'',@iszWord'
	DB	's=''%s'',@im_idGuild=''%06d''', 00H		; `string'
CONST	ENDS
;	COMDAT ??_C@_0CF@ELOMHAGM@DATABASESERVER?4EXE?7?1?1?5QM_SNOOPG@
CONST	SEGMENT
??_C@_0CF@ELOMHAGM@DATABASESERVER?4EXE?7?1?1?5QM_SNOOPG@ DB 'DATABASESERV'
	DB	'ER.EXE', 09H, '// QM_SNOOPGUILD', 0aH, 00H	; `string'
CONST	ENDS
;	COMDAT ??_C@_02CHHINNLG@?$CK?1@
CONST	SEGMENT
??_C@_02CHHINNLG@?$CK?1@ DB '*/', 00H			; `string'
CONST	ENDS
;	COMDAT ??_C@_02FMMEOLBI@?1?$CK@
CONST	SEGMENT
??_C@_02FMMEOLBI@?1?$CK@ DB '/*', 00H			; `string'
CONST	ENDS
;	COMDAT ??_C@_01GEODFPGF@?8@
CONST	SEGMENT
??_C@_01GEODFPGF@?8@ DB '''', 00H			; `string'
CONST	ENDS
;	COMDAT ??_C@_02BAABKJLB@?9?9@
CONST	SEGMENT
??_C@_02BAABKJLB@?9?9@ DB '--', 00H			; `string'
CONST	ENDS
;	COMDAT ??_C@_0BB@OFMJHKHO@query?5failed?3?5?$CFs@
CONST	SEGMENT
??_C@_0BB@OFMJHKHO@query?5failed?3?5?$CFs@ DB 'query failed: %s', 00H ; `string'
CONST	ENDS
;	COMDAT ??_C@_0FN@KPKFIGLG@uspChangeNameLog?5?$EApserverindex?5@
CONST	SEGMENT
??_C@_0FN@KPKFIGLG@uspChangeNameLog?5?$EApserverindex?5@ DB 'uspChangeNam'
	DB	'eLog @pserverindex = ''%02d'', @pidPlayer = ''%07d'', @pOldNa'
	DB	'me=''%s'', @pNewName=''%s''', 00H		; `string'
CONST	ENDS
;	COMDAT ??_C@_0DB@MCIALMAF@DATABASESERVER?4EXE?7?1?1?5QM_SET_PL@
CONST	SEGMENT
??_C@_0DB@MCIALMAF@DATABASESERVER?4EXE?7?1?1?5QM_SET_PL@ DB 'DATABASESERV'
	DB	'ER.EXE', 09H, '// QM_SET_PLAYER_NAME', 09H, '//0(0)', 0aH, 00H ; `string'
CONST	ENDS
;	COMDAT ??_C@_0DC@NHEFPHKG@DATABASESERVER?4EXE?7?1?1?5QM_SET_PL@
CONST	SEGMENT
??_C@_0DC@NHEFPHKG@DATABASESERVER?4EXE?7?1?1?5QM_SET_PL@ DB 'DATABASESERV'
	DB	'ER.EXE', 09H, '// QM_SET_PLAYER_NAME', 09H, '//1(%d)', 0aH, 00H ; `string'
CONST	ENDS
;	COMDAT ??_C@_0BN@FNDLJFJF@CanJoin?5?9?5cur?3?$CFd?5prevent?3?$CFd?6@
CONST	SEGMENT
??_C@_0BN@FNDLJFJF@CanJoin?5?9?5cur?3?$CFd?5prevent?3?$CFd?6@ DB 'CanJoin'
	DB	' - cur:%d prevent:%d', 0aH, 00H		; `string'
CONST	ENDS
;	COMDAT ??_C@_0BC@FNOOOHFC@CanJoin?5?9?5playing@
CONST	SEGMENT
??_C@_0BC@FNOOOHFC@CanJoin?5?9?5playing@ DB 'CanJoin - playing', 00H ; `string'
CONST	ENDS
;	COMDAT ??_C@_0BE@KMMJEDHC@CanJoin?5?9?5time?5over@
CONST	SEGMENT
??_C@_0BE@KMMJEDHC@CanJoin?5?9?5time?5over@ DB 'CanJoin - time over', 00H ; `string'
CONST	ENDS
;	COMDAT ??_C@_0CG@NOPCGOFE@uspCombatContinue?5?$CFd?0?8?$CF02d?8?0?8?$CF0@
CONST	SEGMENT
??_C@_0CG@NOPCGOFE@uspCombatContinue?5?$CFd?0?8?$CF02d?8?0?8?$CF0@ DB 'us'
	DB	'pCombatContinue %d,''%02d'',''%06d'',%d', 00H ; `string'
CONST	ENDS
;	COMDAT ??_C@_0CO@OINAGGIG@uspRewardCombatPlayer?5?$CFd?0?8?$CF02d?8@
CONST	SEGMENT
??_C@_0CO@OINAGGIG@uspRewardCombatPlayer?5?$CFd?0?8?$CF02d?8@ DB 'uspRewa'
	DB	'rdCombatPlayer %d,''%02d'',''%06d'',''%07d''', 00H ; `string'
CONST	ENDS
;	COMDAT ??_C@_0BL@IGFAIGBP@GetPenyaGuildGuildCombat?$CI?$CJ@
CONST	SEGMENT
??_C@_0BL@IGFAIGBP@GetPenyaGuildGuildCombat?$CI?$CJ@ DB 'GetPenyaGuildGui'
	DB	'ldCombat()', 00H				; `string'
CONST	ENDS
;	COMDAT ??_C@_0CG@LDEOKNJJ@uspRewardCombatGuild?5?$CFd?0?8?$CF02d?8?0@
CONST	SEGMENT
??_C@_0CG@LDEOKNJJ@uspRewardCombatGuild?5?$CFd?0?8?$CF02d?8?0@ DB 'uspRew'
	DB	'ardCombatGuild %d,''%02d'',''%06d''', 00H	; `string'
CONST	ENDS
;	COMDAT ??_C@_0DG@MGFCFIEM@uspGradeCombatPlayer?5?$CFd?0?8?$CF02d?8?0@
CONST	SEGMENT
??_C@_0DG@MGFCFIEM@uspGradeCombatPlayer?5?$CFd?0?8?$CF02d?8?0@ DB 'uspGra'
	DB	'deCombatPlayer %d,''%02d'',''%06d'',''%07d'',%d,%I64d', 00H ; `string'
CONST	ENDS
;	COMDAT ??_C@_0DE@EEINKKMK@uspGradeCombatGuild?5?$CFd?0?8?$CF02d?8?0?8@
CONST	SEGMENT
??_C@_0DE@EEINKKMK@uspGradeCombatGuild?5?$CFd?0?8?$CF02d?8?0?8@ DB 'uspGr'
	DB	'adeCombatGuild %d,''%02d'',''%06d'',%d,%d,%I64d,%d', 00H ; `string'
CONST	ENDS
;	COMDAT ??_C@_0BE@NMGDAPPA@ResultGuildCombat?$CI?$CJ@
CONST	SEGMENT
??_C@_0BE@NMGDAPPA@ResultGuildCombat?$CI?$CJ@ DB 'ResultGuildCombat()', 00H ; `string'
CONST	ENDS
;	COMDAT ??_C@_0BH@MKFOPHIL@uspEndCombat?5?$CFd?0?8?$CF02d?8@
CONST	SEGMENT
??_C@_0BH@MKFOPHIL@uspEndCombat?5?$CFd?0?8?$CF02d?8@ DB 'uspEndCombat %d,'
	DB	'''%02d''', 00H				; `string'
CONST	ENDS
;	COMDAT ??_C@_0BJ@CLBMDGDM@uspStartCombat?5?$CFd?0?8?$CF02d?8@
CONST	SEGMENT
??_C@_0BJ@CLBMDGDM@uspStartCombat?5?$CFd?0?8?$CF02d?8@ DB 'uspStartCombat'
	DB	' %d,''%02d''', 00H				; `string'
CONST	ENDS
;	COMDAT ??_C@_0BD@PNIGBKED@StartGuildCombat?$CI?$CJ@
CONST	SEGMENT
??_C@_0BD@PNIGBKED@StartGuildCombat?$CI?$CJ@ DB 'StartGuildCombat()', 00H ; `string'
CONST	ENDS
;	COMDAT ??_C@_0CO@BNIBLMPA@uspExpireCombatReward?5?$CFd?0?8?$CF02d?8@
CONST	SEGMENT
??_C@_0CO@BNIBLMPA@uspExpireCombatReward?5?$CFd?0?8?$CF02d?8@ DB 'uspExpi'
	DB	'reCombatReward %d,''%02d'',''%06d'',''%07d''', 00H ; `string'
CONST	ENDS
;	COMDAT ??_C@_0BB@EDMDACEN@OutGuildCombat?$CI?$CJ@
CONST	SEGMENT
??_C@_0BB@EDMDACEN@OutGuildCombat?$CI?$CJ@ DB 'OutGuildCombat()', 00H ; `string'
CONST	ENDS
;	COMDAT ??_C@_0CI@EJAHEGHN@uspCancelGuildToCombat?5?$CFd?0?8?$CF02d@
CONST	SEGMENT
??_C@_0CI@EJAHEGHN@uspCancelGuildToCombat?5?$CFd?0?8?$CF02d@ DB 'uspCance'
	DB	'lGuildToCombat %d,''%02d'',''%06d''', 00H	; `string'
CONST	ENDS
;	COMDAT ??_C@_0BA@IIAEJKPG@InGuildCombat?$CI?$CJ@
CONST	SEGMENT
??_C@_0BA@IIAEJKPG@InGuildCombat?$CI?$CJ@ DB 'InGuildCombat()', 00H ; `string'
CONST	ENDS
;	COMDAT ??_C@_0CM@EJCKDEFK@uspJoinGuildToCombat?5?$CFd?0?8?$CF02d?8?0@
CONST	SEGMENT
??_C@_0CM@EJCKDEFK@uspJoinGuildToCombat?5?$CFd?0?8?$CF02d?8?0@ DB 'uspJoi'
	DB	'nGuildToCombat %d,''%02d'',''%06d'',%d,%d', 00H ; `string'
CONST	ENDS
;	COMDAT ??_C@_0DB@KOHEIOIA@?$HLcall?5WANTED_STR?$CI?8?$CFs?8?0?5?8?$CF07d?8?0?5@
CONST	SEGMENT
??_C@_0DB@KOHEIOIA@?$HLcall?5WANTED_STR?$CI?8?$CFs?8?0?5?8?$CF07d?8?0?5@ DB '{'
	DB	'call WANTED_STR(''%s'', ''%07d'', ''%02d'', ''%d'', ?)}', 00H ; `string'
CONST	ENDS
;	COMDAT ??_C@_05GFJMHCNE@szMsg@
CONST	SEGMENT
??_C@_05GFJMHCNE@szMsg@ DB 'szMsg', 00H			; `string'
CONST	ENDS
;	COMDAT ??_C@_06OGJBEOJA@s_date@
CONST	SEGMENT
??_C@_06OGJBEOJA@s_date@ DB 's_date', 00H		; `string'
CONST	ENDS
;	COMDAT ??_C@_0BH@GAPFOFID@?$CFs?0?5?$CFd?5GuildDB?5Connect@
CONST	SEGMENT
??_C@_0BH@GAPFOFID@?$CFs?0?5?$CFd?5GuildDB?5Connect@ DB '%s, %d GuildDB C'
	DB	'onnect', 00H				; `string'
CONST	ENDS
;	COMDAT ??_C@_0GA@CLKCMNNA@GUILD_QUEST_STR?5?8U1?8?0?5?$EAim_idGui@
CONST	SEGMENT
??_C@_0GA@CLKCMNNA@GUILD_QUEST_STR?5?8U1?8?0?5?$EAim_idGui@ DB 'GUILD_QUE'
	DB	'ST_STR ''U1'', @im_idGuild = ''%06d'', @iserverindex = ''%02d'
	DB	''', @in_Id = %d, @in_State = %d', 00H	; `string'
CONST	ENDS
;	COMDAT ??_C@_0FA@FDANEHMA@GUILD_QUEST_STR?5?8A1?8?0?5?$EAim_idGui@
CONST	SEGMENT
??_C@_0FA@FDANEHMA@GUILD_QUEST_STR?5?8A1?8?0?5?$EAim_idGui@ DB 'GUILD_QUE'
	DB	'ST_STR ''A1'', @im_idGuild = ''%06d'', @iserverindex = ''%02d'
	DB	''', @in_Id = %d', 00H			; `string'
CONST	ENDS
;	COMDAT ??_C@_06PHLKOEGH@nState@
CONST	SEGMENT
??_C@_06PHLKOEGH@nState@ DB 'nState', 00H		; `string'
CONST	ENDS
;	COMDAT ??_C@_04PCGLMGNG@n_Id@
CONST	SEGMENT
??_C@_04PCGLMGNG@n_Id@ DB 'n_Id', 00H			; `string'
CONST	ENDS
;	COMDAT ??_C@_0DP@DCDKAHLJ@GUILD_QUEST_STR?5?8S1?8?0?5?$EAim_idGui@
CONST	SEGMENT
??_C@_0DP@DCDKAHLJ@GUILD_QUEST_STR?5?8S1?8?0?5?$EAim_idGui@ DB 'GUILD_QUE'
	DB	'ST_STR ''S1'', @im_idGuild = '''', @iserverindex = ''%02d''', 00H ; `string'
CONST	ENDS
;	COMDAT ??_C@_0KO@DDIBDPG@GUILD_WAR_STR?5?8?$CFs?8?0?5?$EAim_idGuild@
CONST	SEGMENT
??_C@_0KO@DDIBDPG@GUILD_WAR_STR?5?8?$CFs?8?0?5?$EAim_idGuild@ DB 'GUILD_W'
	DB	'AR_STR ''%s'', @im_idGuild=''%06d'', @iserverindex=''%02d'', '
	DB	'@im_idWar=''%06d'', @iState=''%c'', @if_idGuild=''%06d'', @im'
	DB	'_idPlayer=''%07d'', @im_nWinPoint = %d, @if_nWinPoint = %d', 00H ; `string'
CONST	ENDS
;	COMDAT ??_C@_0BCE@MMOBOKBO@LOG_GUILD_STR?5?8?$CFs?8?0?5?$EAim_idGuild@
CONST	SEGMENT
??_C@_0BCE@MMOBOKBO@LOG_GUILD_STR?5?8?$CFs?8?0?5?$EAim_idGuild@ DB 'LOG_G'
	DB	'UILD_STR ''%s'', @im_idGuild=''%06d'', @im_idPlayer=''%07d'','
	DB	' @iserverindex=''%02d'',@im_nGuildGold=%d, @im_nLevel=%d, @im'
	DB	'_GuildLv=%d, @iGuildPoint=%d,@iDo_m_idPlayer=''%07d'', @iStat'
	DB	'e=''%s'', @im_Item=%d, @im_GuildBank=''%s'',@im_nAbilityOptio'
	DB	'n=%d, @iItem_count=%d, @iItem_UniqueNo=%d, @is_date=''%s''', 00H ; `string'
CONST	ENDS
;	COMDAT ??_C@_0OE@KCDNCHPE@?$HLcall?5MAIL_STR?$CI?8A1?8?0?5?$CFd?0?5?8?$CF02d?8@
CONST	SEGMENT
??_C@_0OE@KCDNCHPE@?$HLcall?5MAIL_STR?$CI?8A1?8?0?5?$CFd?0?5?8?$CF02d?8@ DB '{'
	DB	'call MAIL_STR(''A1'', %d, ''%02d'', ''%07d'', ''%07d'', %d, %'
	DB	'd, %d, ?, ?,%d, %d, %d, %d, %d, %d, %d, %d,%d, %d, %d, %d, %d'
	DB	', %d, %d,%I64d,%d, %d, %d, %d, %d,%d,%d,%d,%d,%d,%d,%d,%d,%d,'
	DB	'%d,%d,%d,%d, %d, %d, %d, %d,%d, %d, %d, %d, %d,%d)}', 00H ; `string'
CONST	ENDS
;	COMDAT ??_C@_0CKG@MADPJMIC@MAIL_STR?5?8?$CFs?8?0?5?$EAnMail?$DN?$CFd?0?5?$EAserv@
CONST	SEGMENT
??_C@_0CKG@MADPJMIC@MAIL_STR?5?8?$CFs?8?0?5?$EAnMail?$DN?$CFd?0?5?$EAserv@ DB 'M'
	DB	'AIL_STR ''%s'', @nMail=%d, @serverindex=''%02d'', @idReceiver'
	DB	'=''%07d'', @idSender=''%07d'', @nGold=%d, @tmCreate=%d, @byRe'
	DB	'ad=%d, @szTitle=''%s'', @szText=''%s'',@dwItemId=%d, @nItemNu'
	DB	'm=%d, @nRepairNumber=%d, @nHitPoint=%d, @nMaxHitPoint=%d, @nM'
	DB	'aterial=%d, @byFlag=%d, @dwSerialNumber=%d,@nOption=%d, @bIte'
	DB	'mResist=%d, @nResistAbilityOption=%d, @idGuild=%d, @nResistSM'
	DB	'ItemId=%d, @bCharged=%d, @dwKeepTime=%d,@nRandomOptItemId=%I6'
	DB	'4d,@nPiercedSize=%d, @dwItemId1=%d, @dwItemId2=%d, @dwItemId3'
	DB	'=%d, @dwItemId4=%d, @bPet=%d, @nKind=%d, @nLevel=%d, @dwExp=%'
	DB	'd, @wEnergy=%d, @wLife=%d,@anAvailLevel_D=%d, @anAvailLevel_C'
	DB	'=%d, @anAvailLevel_B=%d, @anAvailLevel_A=%d, @anAvailLevel_S='
	DB	'%d, @dwItemId5=%d', 00H			; `string'
CONST	ENDS
;	COMDAT ??_C@_0MK@MCIFOGJG@GUILD_VOTE_STR?5?8?$CFs?8?0?$EAiserverind@
CONST	SEGMENT
??_C@_0MK@MCIFOGJG@GUILD_VOTE_STR?5?8?$CFs?8?0?$EAiserverind@ DB 'GUILD_V'
	DB	'OTE_STR ''%s'',@iserverindex=''%02d'',@im_idGuild=''%06d'',@i'
	DB	'm_idVote=%d,@im_szTitle=''%s'',@im_szQuestion=''%s'',@im_szSt'
	DB	'ring1=''%s'',@im_szString2=''%s'',@im_szString3=''%s'',@im_sz'
	DB	'String4=''%s'',@im_cbCount=%d', 00H		; `string'
CONST	ENDS
;	COMDAT ??_C@_0BAO@JKIGAOFG@GUILD_STR?5?8?$CFs?8?0?$EAim_idPlayer?$DN?8?$CF0@
CONST	SEGMENT
??_C@_0BAO@JKIGAOFG@GUILD_STR?5?8?$CFs?8?0?$EAim_idPlayer?$DN?8?$CF0@ DB 'G'
	DB	'UILD_STR ''%s'',@im_idPlayer=''%07d'',@iserverindex=''%02d'','
	DB	'@im_idGuild=''%06d'',@im_szGuild=''%s'',@iLv_1=%d,@iLv_2=%d,@'
	DB	'iLv_3=%d,@iLv_4=%d,@im_nLevel=%d,@im_nGuildGold=%d,@im_nGuild'
	DB	'Pxp=%d,@im_nWin=%d,@im_nLose=%d,@im_nSurrender=%d,@im_dwLogo='
	DB	'%d,@im_szNotice=''%s'',@im_nClass=%d', 00H	; `string'
CONST	ENDS
;	COMDAT ??_C@_0FJ@HHKHPFCF@?$HL?5call?5GUILD_STR?$CI?8?$CFs?8?0?8?$CF07d?8?0?8?$CF@
CONST	SEGMENT
??_C@_0FJ@HHKHPFCF@?$HL?5call?5GUILD_STR?$CI?8?$CFs?8?0?8?$CF07d?8?0?8?$CF@ DB '{'
	DB	' call GUILD_STR(''%s'',''%07d'',''%02d'',''%06d'',''%s'',%d,%'
	DB	'd,%d,%d,%d,%d,%d,%d,%d,%d,%d,?,%d) }', 00H	; `string'
CONST	ENDS
;	COMDAT ??_C@_0CN@LNCMOBHM@GUILD_STR?5?8?$CFs?8?0?5?8?$CF07d?8?0?5?8?$CF02d?8?0@
CONST	SEGMENT
??_C@_0CN@LNCMOBHM@GUILD_STR?5?8?$CFs?8?0?5?8?$CF07d?8?0?5?8?$CF02d?8?0@ DB 'G'
	DB	'UILD_STR ''%s'', ''%07d'', ''%02d'', ''%06d'', ''%s''', 00H ; `string'
CONST	ENDS
;	COMDAT ??_C@_03BMNKJJEN@?$CF2X@
CONST	SEGMENT
??_C@_03BMNKJJEN@?$CF2X@ DB '%2X', 00H			; `string'
CONST	ENDS
;	COMDAT ??_C@_02DKCKIIND@?$CFs@
CONST	SEGMENT
??_C@_02DKCKIIND@?$CFs@ DB '%s', 00H			; `string'
CONST	ENDS
;	COMDAT ??_C@_0BN@PDPGDDAD@EVENT_FINAL_STR?5?$CFd?0?5?8?$CFs?8?0?5?$CFd@
CONST	SEGMENT
??_C@_0BN@PDPGDDAD@EVENT_FINAL_STR?5?$CFd?0?5?8?$CFs?8?0?5?$CFd@ DB 'EVEN'
	DB	'T_FINAL_STR %d, ''%s'', %d', 00H		; `string'
CONST	ENDS
;	COMDAT ??_C@_0DN@CKKFLCDF@MAIL_STR_REALTIME?5?8I1?8?0?5?8?$CF02d?8?0@
CONST	SEGMENT
??_C@_0DN@CKKFLCDF@MAIL_STR_REALTIME?5?8I1?8?0?5?8?$CF02d?8?0@ DB 'MAIL_S'
	DB	'TR_REALTIME ''I1'', ''%02d'', %d, %d, ''%07d'', %d, ''%s'', %'
	DB	'd', 00H					; `string'
CONST	ENDS
;	COMDAT ??_C@_0DA@NNHGJBFH@?$HLcall?5TAG_STR?$CI?8A1?8?0?5?8?$CF07d?8?0?5?8?$CF0@
CONST	SEGMENT
??_C@_0DA@NNHGJBFH@?$HLcall?5TAG_STR?$CI?8A1?8?0?5?8?$CF07d?8?0?5?8?$CF0@ DB '{'
	DB	'call TAG_STR(''A1'', ''%07d'', ''%02d'', ''%07d'', ?)}', 00H ; `string'
CONST	ENDS
;	COMDAT ??_C@_09BLNNBFMB@m_Message@
CONST	SEGMENT
??_C@_09BLNNBFMB@m_Message@ DB 'm_Message', 00H		; `string'
CONST	ENDS
;	COMDAT ??_C@_0L@LAPNHMFE@CreateTime@
CONST	SEGMENT
??_C@_0L@LAPNHMFE@CreateTime@ DB 'CreateTime', 00H	; `string'
CONST	ENDS
;	COMDAT ??_C@_0L@HNPENDNB@f_idPlayer@
CONST	SEGMENT
??_C@_0L@HNPENDNB@f_idPlayer@ DB 'f_idPlayer', 00H	; `string'
CONST	ENDS
;	COMDAT ??_C@_0BL@KDGFHAAM@TAG_STR?5?8S1?8?0?8?$CF07d?8?0?8?$CF02d?8@
CONST	SEGMENT
??_C@_0BL@KDGFHAAM@TAG_STR?5?8S1?8?0?8?$CF07d?8?0?8?$CF02d?8@ DB 'TAG_STR'
	DB	' ''S1'',''%07d'',''%02d''', 00H		; `string'
CONST	ENDS
;	COMDAT ??_C@_02NLAPJAPP@L5@
CONST	SEGMENT
??_C@_02NLAPJAPP@L5@ DB 'L5', 00H			; `string'
CONST	ENDS
;	COMDAT ??_C@_01LAKCGALK@9@
CONST	SEGMENT
??_C@_01LAKCGALK@9@ DB '9', 00H				; `string'
CONST	ENDS
;	COMDAT ??_C@_01DHDKHMHF@6@
CONST	SEGMENT
??_C@_01DHDKHMHF@6@ DB '6', 00H				; `string'
CONST	ENDS
;	COMDAT ??_C@_01FDFGLJHB@2@
CONST	SEGMENT
??_C@_01FDFGLJHB@2@ DB '2', 00H				; `string'
CONST	ENDS
;	COMDAT ??_C@_01BMBHCPLG@5@
CONST	SEGMENT
??_C@_01BMBHCPLG@5@ DB '5', 00H				; `string'
CONST	ENDS
;	COMDAT ??_C@_01HIHLOKLC@1@
CONST	SEGMENT
??_C@_01HIHLOKLC@1@ DB '1', 00H				; `string'
CONST	ENDS
;	COMDAT ??_C@_08CKPDKKOC@m_idVote@
CONST	SEGMENT
??_C@_08CKPDKKOC@m_idVote@ DB 'm_idVote', 00H		; `string'
CONST	ENDS
;	COMDAT ??_C@_0EG@JNIHMPIN@?$HLcall?5GUILD_VOTE_STR?$CI?8A1?8?0?5?8?$CF02@
CONST	SEGMENT
??_C@_0EG@JNIHMPIN@?$HLcall?5GUILD_VOTE_STR?$CI?8A1?8?0?5?8?$CF02@ DB '{c'
	DB	'all GUILD_VOTE_STR(''A1'', ''%02d'', ''%06d'', %d, ?, ?, ?, ?'
	DB	', ?, ?, %d)}', 00H				; `string'
CONST	ENDS
;	COMDAT ??_C@_01MJMHLOMK@O@
CONST	SEGMENT
??_C@_01MJMHLOMK@O@ DB 'O', 00H				; `string'
CONST	ENDS
;	COMDAT ??_C@_01GFHCPBMG@C@
CONST	SEGMENT
??_C@_01GFHCPBMG@C@ DB 'C', 00H				; `string'
CONST	ENDS
;	COMDAT ??_C@_01FHEEJDEE@A@
CONST	SEGMENT
??_C@_01FHEEJDEE@A@ DB 'A', 00H				; `string'
CONST	ENDS
;	COMDAT ??_C@_0BG@IEDKPGOM@update?5guild?5bank?3?$CFs?5@
CONST	SEGMENT
??_C@_0BG@IEDKPGOM@update?5guild?5bank?3?$CFs?5@ DB 'update guild bank:%s'
	DB	' ', 00H					; `string'
CONST	ENDS
;	COMDAT ??_C@_0EM@IIMCPEG@GUILD_BANK_STR?5?8U1?8?0?8?$CF06d?8?0?8?$CF02@
CONST	SEGMENT
??_C@_0EM@IIMCPEG@GUILD_BANK_STR?5?8U1?8?0?8?$CF06d?8?0?8?$CF02@ DB 'GUIL'
	DB	'D_BANK_STR ''U1'',''%06d'',''%02d'',''%d'',''%s'',''%s'',''%s'
	DB	''',''%07d'',''%s'',''%s'',''%s''', 00H	; `string'
CONST	ENDS
;	COMDAT ??_C@_0P@MOKIMIMD@szGuildBankPet@
CONST	SEGMENT
??_C@_0P@MOKIMIMD@szGuildBankPet@ DB 'szGuildBankPet', 00H ; `string'
CONST	ENDS
;	COMDAT ??_C@_0BE@FOMLDJLH@m_GuildBankPiercing@
CONST	SEGMENT
??_C@_0BE@FOMLDJLH@m_GuildBankPiercing@ DB 'm_GuildBankPiercing', 00H ; `string'
CONST	ENDS
;	COMDAT ??_C@_0P@CLIOIOKN@m_extGuildBank@
CONST	SEGMENT
??_C@_0P@CLIOIOKN@m_extGuildBank@ DB 'm_extGuildBank', 00H ; `string'
CONST	ENDS
;	COMDAT ??_C@_0P@KBFNBDP@GuildBank?5?$DN?5?$CFs@
CONST	SEGMENT
??_C@_0P@KBFNBDP@GuildBank?5?$DN?5?$CFs@ DB 'GuildBank = %s', 00H ; `string'
CONST	ENDS
;	COMDAT ??_C@_0DE@EMEGDAIE@OpenQueryGuildBank?3?3GuildBank?5?3@
CONST	SEGMENT
??_C@_0DE@EMEGDAIE@OpenQueryGuildBank?3?3GuildBank?5?3@ DB 'OpenQueryGuil'
	DB	'dBank::GuildBank : << IndexItem %d, %d', 00H ; `string'
CONST	ENDS
;	COMDAT ??_C@_0DA@ILOCNCBH@OpenQuery?3?3GuildBank?5?3?5?$DM?$DM?5?G?A?$LH?N?F@
CONST	SEGMENT
??_C@_0DA@ILOCNCBH@OpenQuery?3?3GuildBank?5?3?5?$DM?$DM?5?G?A?$LH?N?F@ DB 'O'
	DB	'penQuery::GuildBank : << ', 0c7H, 0c1H, 0b7H, 0ceH, 0c6H, 0dbH
	DB	0c6H, 0bcH, ' ', 0beH, 0f8H, 0c0H, 0bdH, '. %d, %d', 00H ; `string'
CONST	ENDS
;	COMDAT ??_C@_0M@GKPNPIJD@m_GuildBank@
CONST	SEGMENT
??_C@_0M@GKPNPIJD@m_GuildBank@ DB 'm_GuildBank', 00H	; `string'
CONST	ENDS
;	COMDAT ??_C@_0N@KMOLMNCJ@m_dwObjIndex@
CONST	SEGMENT
??_C@_0N@KMOLMNCJ@m_dwObjIndex@ DB 'm_dwObjIndex', 00H	; `string'
CONST	ENDS
;	COMDAT ??_C@_0BP@GKELCFPL@GUILD_BANK_STR?5?8S1?8?0?80?8?0?8?$CF02d?8@
CONST	SEGMENT
??_C@_0BP@GKELCFPL@GUILD_BANK_STR?5?8S1?8?0?80?8?0?8?$CF02d?8@ DB 'GUILD_'
	DB	'BANK_STR ''S1'',''0'',''%02d''', 00H	; `string'
CONST	ENDS
;	COMDAT ??_C@_02HNFGHGEN@U8@
CONST	SEGMENT
??_C@_02HNFGHGEN@U8@ DB 'U8', 00H			; `string'
CONST	ENDS
;	COMDAT ??_C@_02PKMOGKIC@U7@
CONST	SEGMENT
??_C@_02PKMOGKIC@U7@ DB 'U7', 00H			; `string'
CONST	ENDS
;	COMDAT ??_C@_02ODNFFLMD@U6@
CONST	SEGMENT
??_C@_02ODNFFLMD@U6@ DB 'U6', 00H			; `string'
CONST	ENDS
;	COMDAT ??_C@_02KMJEMNAE@U1@
CONST	SEGMENT
??_C@_02KMJEMNAE@U1@ DB 'U1', 00H			; `string'
CONST	ENDS
;	COMDAT ??_C@_02MIPIAIAA@U5@
CONST	SEGMENT
??_C@_02MIPIAIAA@U5@ DB 'U5', 00H			; `string'
CONST	ENDS
;	COMDAT ??_C@_01EJNLAFE@P@
CONST	SEGMENT
??_C@_01EJNLAFE@P@ DB 'P', 00H				; `string'
CONST	ENDS
;	COMDAT ??_C@_02MCBEKBLO@L4@
CONST	SEGMENT
??_C@_02MCBEKBLO@L4@ DB 'L4', 00H			; `string'
CONST	ENDS
;	COMDAT ??_C@_02JEEOAGDI@L2@
CONST	SEGMENT
??_C@_02JEEOAGDI@L2@ DB 'L2', 00H			; `string'
CONST	ENDS
;	COMDAT ??_C@_02NBODDJEB@U4@
CONST	SEGMENT
??_C@_02NBODDJEB@U4@ DB 'U4', 00H			; `string'
CONST	ENDS
;	COMDAT ??_C@_02JOKCKPIG@U3@
CONST	SEGMENT
??_C@_02JOKCKPIG@U3@ DB 'U3', 00H			; `string'
CONST	ENDS
;	COMDAT ??_C@_0M@CMDFKDOO@Max_m_idWar@
CONST	SEGMENT
??_C@_0M@CMDFKDOO@Max_m_idWar@ DB 'Max_m_idWar', 00H	; `string'
CONST	ENDS
;	COMDAT ??_C@_09MHCEAAPI@StartTime@
CONST	SEGMENT
??_C@_09MHCEAAPI@StartTime@ DB 'StartTime', 00H		; `string'
CONST	ENDS
;	COMDAT ??_C@_05JNKNAC@State@
CONST	SEGMENT
??_C@_05JNKNAC@State@ DB 'State', 00H			; `string'
CONST	ENDS
;	COMDAT ??_C@_09LENGMIPK@f_nAbsent@
CONST	SEGMENT
??_C@_09LENGMIPK@f_nAbsent@ DB 'f_nAbsent', 00H		; `string'
CONST	ENDS
;	COMDAT ??_C@_08NJFNMEKP@f_nDeath@
CONST	SEGMENT
??_C@_08NJFNMEKP@f_nDeath@ DB 'f_nDeath', 00H		; `string'
CONST	ENDS
;	COMDAT ??_C@_0N@PGCPANKN@f_nSurrender@
CONST	SEGMENT
??_C@_0N@PGCPANKN@f_nSurrender@ DB 'f_nSurrender', 00H	; `string'
CONST	ENDS
;	COMDAT ??_C@_08KGFFFHIF@f_nCount@
CONST	SEGMENT
??_C@_08KGFFFHIF@f_nCount@ DB 'f_nCount', 00H		; `string'
CONST	ENDS
;	COMDAT ??_C@_09PICHMPHK@f_idGuild@
CONST	SEGMENT
??_C@_09PICHMPHK@f_idGuild@ DB 'f_idGuild', 00H		; `string'
CONST	ENDS
;	COMDAT ??_C@_09EMDGDDAN@m_nAbsent@
CONST	SEGMENT
??_C@_09EMDGDDAN@m_nAbsent@ DB 'm_nAbsent', 00H		; `string'
CONST	ENDS
;	COMDAT ??_C@_08FLAIFKHC@m_nDeath@
CONST	SEGMENT
??_C@_08FLAIFKHC@m_nDeath@ DB 'm_nDeath', 00H		; `string'
CONST	ENDS
;	COMDAT ??_C@_08CEAAMJFI@m_nCount@
CONST	SEGMENT
??_C@_08CEAAMJFI@m_nCount@ DB 'm_nCount', 00H		; `string'
CONST	ENDS
;	COMDAT ??_C@_0CP@CDEBBMEN@OpenGuild?$CI?$CJ?3?5Player?8s?5guild?5not@
CONST	SEGMENT
??_C@_0CP@CDEBBMEN@OpenGuild?$CI?$CJ?3?5Player?8s?5guild?5not@ DB 'OpenGu'
	DB	'ild(): Player''s guild not found - %d, %d', 00H ; `string'
CONST	ENDS
;	COMDAT ??_C@_09GMKPPPNG@m_szAlias@
CONST	SEGMENT
??_C@_09GMKPPPNG@m_szAlias@ DB 'm_szAlias', 00H		; `string'
CONST	ENDS
;	COMDAT ??_C@_08OHGENFKE@m_nClass@
CONST	SEGMENT
??_C@_08OHGENFKE@m_nClass@ DB 'm_nClass', 00H		; `string'
CONST	ENDS
;	COMDAT ??_C@_06CPMNBCKA@m_nPay@
CONST	SEGMENT
??_C@_06CPMNBCKA@m_nPay@ DB 'm_nPay', 00H		; `string'
CONST	ENDS
;	COMDAT ??_C@_0L@NMIJIJEA@m_nGivePxp@
CONST	SEGMENT
??_C@_0L@NMIJIJEA@m_nGivePxp@ DB 'm_nGivePxp', 00H	; `string'
CONST	ENDS
;	COMDAT ??_C@_0M@HNKDBIBK@m_nGiveGold@
CONST	SEGMENT
??_C@_0M@HNKDBIBK@m_nGiveGold@ DB 'm_nGiveGold', 00H	; `string'
CONST	ENDS
;	COMDAT ??_C@_0M@JODFLKFC@m_nMemberLv@
CONST	SEGMENT
??_C@_0M@JODFLKFC@m_nMemberLv@ DB 'm_nMemberLv', 00H	; `string'
CONST	ENDS
;	COMDAT ??_C@_07IGCLHJHO@m_nLose@
CONST	SEGMENT
??_C@_07IGCLHJHO@m_nLose@ DB 'm_nLose', 00H		; `string'
CONST	ENDS
;	COMDAT ??_C@_0N@BBOGLCAO@m_nSurrender@
CONST	SEGMENT
??_C@_0N@BBOGLCAO@m_nSurrender@ DB 'm_nSurrender', 00H	; `string'
CONST	ENDS
;	COMDAT ??_C@_06LJIKPPDH@m_nWin@
CONST	SEGMENT
??_C@_06LJIKPPDH@m_nWin@ DB 'm_nWin', 00H		; `string'
CONST	ENDS
;	COMDAT ??_C@_0N@OKFGMOPL@m_nGuildGold@
CONST	SEGMENT
??_C@_0N@OKFGMOPL@m_nGuildGold@ DB 'm_nGuildGold', 00H	; `string'
CONST	ENDS
;	COMDAT ??_C@_09NKFNPOPN@m_szGuild@
CONST	SEGMENT
??_C@_09NKFNPOPN@m_szGuild@ DB 'm_szGuild', 00H		; `string'
CONST	ENDS
;	COMDAT ??_C@_0L@EGGIJNBH@m_szNotice@
CONST	SEGMENT
??_C@_0L@EGGIJNBH@m_szNotice@ DB 'm_szNotice', 00H	; `string'
CONST	ENDS
;	COMDAT ??_C@_05MNGIIDJE@isuse@
CONST	SEGMENT
??_C@_05MNGIIDJE@isuse@ DB 'isuse', 00H			; `string'
CONST	ENDS
;	COMDAT ??_C@_05CMBMHNDK@Pay_4@
CONST	SEGMENT
??_C@_05CMBMHNDK@Pay_4@ DB 'Pay_4', 00H			; `string'
CONST	ENDS
;	COMDAT ??_C@_05GDFNOLPN@Pay_3@
CONST	SEGMENT
??_C@_05GDFNOLPN@Pay_3@ DB 'Pay_3', 00H			; `string'
CONST	ENDS
;	COMDAT ??_C@_05HKEGNKLM@Pay_2@
CONST	SEGMENT
??_C@_05HKEGNKLM@Pay_2@ DB 'Pay_2', 00H			; `string'
CONST	ENDS
;	COMDAT ??_C@_05FBGLIJHP@Pay_1@
CONST	SEGMENT
??_C@_05FBGLIJHP@Pay_1@ DB 'Pay_1', 00H			; `string'
CONST	ENDS
;	COMDAT ??_C@_05EIHALIDO@Pay_0@
CONST	SEGMENT
??_C@_05EIHALIDO@Pay_0@ DB 'Pay_0', 00H			; `string'
CONST	ENDS
;	COMDAT ??_C@_04DGEANIJA@Lv_4@
CONST	SEGMENT
??_C@_04DGEANIJA@Lv_4@ DB 'Lv_4', 00H			; `string'
CONST	ENDS
;	COMDAT ??_C@_04HJABEOFH@Lv_3@
CONST	SEGMENT
??_C@_04HJABEOFH@Lv_3@ DB 'Lv_3', 00H			; `string'
CONST	ENDS
;	COMDAT ??_C@_04GABKHPBG@Lv_2@
CONST	SEGMENT
??_C@_04GABKHPBG@Lv_2@ DB 'Lv_2', 00H			; `string'
CONST	ENDS
;	COMDAT ??_C@_04ELDHCMNF@Lv_1@
CONST	SEGMENT
??_C@_04ELDHCMNF@Lv_1@ DB 'Lv_1', 00H			; `string'
CONST	ENDS
;	COMDAT ??_C@_08LJMBJH@m_dwLogo@
CONST	SEGMENT
??_C@_08LJMBJH@m_dwLogo@ DB 'm_dwLogo', 00H		; `string'
CONST	ENDS
;	COMDAT ??_C@_0M@PLIGOAEL@m_nGuildPxp@
CONST	SEGMENT
??_C@_0M@PLIGOAEL@m_nGuildPxp@ DB 'm_nGuildPxp', 00H	; `string'
CONST	ENDS
;	COMDAT ??_C@_0O@DJCBJIJC@sql?5error?3?5?$CFs@
CONST	SEGMENT
??_C@_0O@DJCBJIJC@sql?5error?3?5?$CFs@ DB 'sql error: %s', 00H ; `string'
CONST	ENDS
;	COMDAT ??_C@_02KIBJLBLG@S1@
CONST	SEGMENT
??_C@_02KIBJLBLG@S1@ DB 'S1', 00H			; `string'
CONST	ENDS
;	COMDAT ??_C@_0BD@IPNMBMBH@DB?5open?5failed?3?5?$CFs@
CONST	SEGMENT
??_C@_0BD@IPNMBMBH@DB?5open?5failed?3?5?$CFs@ DB 'DB open failed: %s', 00H ; `string'
CONST	ENDS
;	COMDAT ??_C@_02IDKLLEPC@UA@
CONST	SEGMENT
??_C@_02IDKLLEPC@UA@ DB 'UA', 00H			; `string'
CONST	ENDS
;	COMDAT ??_C@_02GEENEHAM@U9@
CONST	SEGMENT
??_C@_02GEENEHAM@U9@ DB 'U9', 00H			; `string'
CONST	ENDS
;	COMDAT ??_C@_02IHLJJOMH@U2@
CONST	SEGMENT
??_C@_02IHLJJOMH@U2@ DB 'U2', 00H			; `string'
CONST	ENDS
;	COMDAT ??_C@_01DGKLNCNG@R@
CONST	SEGMENT
??_C@_01DGKLNCNG@R@ DB 'R', 00H				; `string'
CONST	ENDS
;	COMDAT ??_C@_01OCOKONAJ@L@
CONST	SEGMENT
??_C@_01OCOKONAJ@L@ DB 'L', 00H				; `string'
CONST	ENDS
;	COMDAT ??_C@_02JKFNFHIA@D2@
CONST	SEGMENT
??_C@_02JKFNFHIA@D2@ DB 'D2', 00H			; `string'
CONST	ENDS
;	COMDAT ??_C@_01LELAEKIP@J@
CONST	SEGMENT
??_C@_01LELAEKIP@J@ DB 'J', 00H				; `string'
CONST	ENDS
;	COMDAT ??_C@_01DDCIFGEA@E@
CONST	SEGMENT
??_C@_01DDCIFGEA@E@ DB 'E', 00H				; `string'
CONST	ENDS
;	COMDAT ??_C@_01BBODEMC@G@
CONST	SEGMENT
??_C@_01BBODEMC@G@ DB 'G', 00H				; `string'
CONST	ENDS
;	COMDAT ??_C@_02LPGDFFPL@L1@
CONST	SEGMENT
??_C@_02LPGDFFPL@L1@ DB 'L1', 00H			; `string'
CONST	ENDS
;	COMDAT ??_C@_02INFFDHHJ@L3@
CONST	SEGMENT
??_C@_02INFFDHHJ@L3@ DB 'L3', 00H			; `string'
CONST	ENDS
;	COMDAT ??_C@_02JMJGJFGL@A2@
CONST	SEGMENT
??_C@_02JMJGJFGL@A2@ DB 'A2', 00H			; `string'
CONST	ENDS
;	COMDAT ??_C@_06PKCJMADH@nError@
CONST	SEGMENT
??_C@_06PKCJMADH@nError@ DB 'nError', 00H		; `string'
CONST	ENDS
;	COMDAT ??_C@_02LHLLMGKI@A1@
CONST	SEGMENT
??_C@_02LHLLMGKI@A1@ DB 'A1', 00H			; `string'
CONST	ENDS
;	COMDAT ??_C@_09GEIHMOKC@?$CFs?0?5?$CFd?7?$CFd@
CONST	SEGMENT
??_C@_09GEIHMOKC@?$CFs?0?5?$CFd?7?$CFd@ DB '%s, %d', 09H, '%d', 00H ; `string'
CONST	ENDS
;	COMDAT ??_C@_0BF@EDMIDCAN@?$CFs?0?5?$CFd?5LogDB?5Connect@
CONST	SEGMENT
??_C@_0BF@EDMIDCAN@?$CFs?0?5?$CFd?5LogDB?5Connect@ DB '%s, %d LogDB Conne'
	DB	'ct', 00H					; `string'
CONST	ENDS
;	COMDAT ??_C@_0BL@NNPLFPGA@?$CFs?0?5?$CFd?5CharacterDB?5Connect@
CONST	SEGMENT
??_C@_0BL@NNPLFPGA@?$CFs?0?5?$CFd?5CharacterDB?5Connect@ DB '%s, %d Chara'
	DB	'cterDB Connect', 00H			; `string'
CONST	ENDS
;	COMDAT ??_C@_0BD@HBPLBGFJ@MAX_QUERY_RESERVED@
CONST	SEGMENT
??_C@_0BD@HBPLBGFJ@MAX_QUERY_RESERVED@ DB 'MAX_QUERY_RESERVED', 00H ; `string'
CONST	ENDS
;	COMDAT ??_C@_0CH@KMCLKLNM@DATABASESERVER?4EXE?7?1?1?5TIMEOUT?7?1@
CONST	SEGMENT
??_C@_0CH@KMCLKLNM@DATABASESERVER?4EXE?7?1?1?5TIMEOUT?7?1@ DB 'DATABASESE'
	DB	'RVER.EXE', 09H, '// TIMEOUT', 09H, '// ODBC', 0aH, 00H ; `string'
CONST	ENDS
;	COMDAT ??_C@_0CC@JAIICIEH@RemoveItemDeleteQuery?5?3?3?5nNo?5?$DN?5@
CONST	SEGMENT
??_C@_0CC@JAIICIEH@RemoveItemDeleteQuery?5?3?3?5nNo?5?$DN?5@ DB 'RemoveIt'
	DB	'emDeleteQuery :: nNo = %d', 00H		; `string'
CONST	ENDS
;	COMDAT ??_C@_02POEDBGDA@S7@
CONST	SEGMENT
??_C@_02POEDBGDA@S7@ DB 'S7', 00H			; `string'
CONST	ENDS
;	COMDAT ??_C@_02ONCLNIEI@LD@
CONST	SEGMENT
??_C@_02ONCLNIEI@LD@ DB 'LD', 00H			; `string'
CONST	ENDS
;	COMDAT ??_C@_01KNKLHLMO@K@
CONST	SEGMENT
??_C@_01KNKLHLMO@K@ DB 'K', 00H				; `string'
CONST	ENDS
;	COMDAT ??_C@_01JPJNBJEM@I@
CONST	SEGMENT
??_C@_01JPJNBJEM@I@ DB 'I', 00H				; `string'
CONST	ENDS
;	COMDAT ??_C@_0FA@FBEKNGOJ@RemoveItem?3?3RemovePenya?5PlayerN@
CONST	SEGMENT
??_C@_0FA@FBEKNGOJ@RemoveItem?3?3RemovePenya?5PlayerN@ DB 'RemoveItem::Re'
	DB	'movePenya PlayerName = %s, Item_Count = %d, State = %c, Qry1 '
	DB	'= %s', 00H					; `string'
CONST	ENDS
;	COMDAT ??_C@_02OHFICHHB@S6@
CONST	SEGMENT
??_C@_02OHFICHHB@S6@ DB 'S6', 00H			; `string'
CONST	ENDS
;	COMDAT ??_C@_0CA@NNMFHJHB@?$CFs?0?5?$CFd?7SendItemLogQuery?5LC?5?$DN?5?$CFs@
CONST	SEGMENT
??_C@_0CA@NNMFHJHB@?$CFs?0?5?$CFd?7SendItemLogQuery?5LC?5?$DN?5?$CFs@ DB '%'
	DB	's, %d', 09H, 'SendItemLogQuery LC = %s', 00H ; `string'
CONST	ENDS
;	COMDAT ??_C@_01LOCGONAA@?$AA@
CONST	SEGMENT
??_C@_01LOCGONAA@?$AA@ DB 00H, 00H			; `string'
CONST	ENDS
;	COMDAT ??_C@_0CA@KKFFOAIO@SendItemDeleteQuery?5?3?3?5nNo?5?$DN?5?$CFd@
CONST	SEGMENT
??_C@_0CA@KKFFOAIO@SendItemDeleteQuery?5?3?3?5nNo?5?$DN?5?$CFd@ DB 'SendI'
	DB	'temDeleteQuery :: nNo = %d', 00H		; `string'
CONST	ENDS
;	COMDAT ??_C@_02MMHFHELC@S5@
CONST	SEGMENT
??_C@_02MMHFHELC@S5@ DB 'S5', 00H			; `string'
CONST	ENDS
;	COMDAT ??_C@_0DJ@EFBCKMJH@Error?5Full?5IdPlayer?5?$DN?5?$CFd?0?5Playe@
CONST	SEGMENT
??_C@_0DJ@EFBCKMJH@Error?5Full?5IdPlayer?5?$DN?5?$CFd?0?5Playe@ DB 'Error'
	DB	' Full IdPlayer = %d, PlayerName = %s, ItemName : %s', 00H ; `string'
CONST	ENDS
;	COMDAT ??_C@_0GI@FIONNFMB@Error?5Not?5IK3_ULTIMATE?5Piercing@
CONST	SEGMENT
??_C@_0GI@FIONNFMB@Error?5Not?5IK3_ULTIMATE?5Piercing@ DB 'Error Not IK3_'
	DB	'ULTIMATE Piercing Over IdPlayer = %d, PlayerName = %s, ItemNa'
	DB	'me : %s, PiercingItemId = %d', 00H		; `string'
CONST	ENDS
;	COMDAT ??_C@_0HN@IMBPIBGL@Error?5Not?5IK3_SOCKETCARD?5or?5IK3@
CONST	SEGMENT
??_C@_0HN@IMBPIBGL@Error?5Not?5IK3_SOCKETCARD?5or?5IK3@ DB 'Error Not IK3'
	DB	'_SOCKETCARD or IK3_SOCKETCARD2 Piercing Over IdPlayer = %d, P'
	DB	'layerName = %s, ItemName : %s, PiercingItemId = %d', 00H ; `string'
CONST	ENDS
;	COMDAT ??_C@_0BA@MDFHOBOH@?4?4?2SendItem?4log@
CONST	SEGMENT
??_C@_0BA@MDFHOBOH@?4?4?2SendItem?4log@ DB '..\SendItem.log', 00H ; `string'
CONST	ENDS
;	COMDAT ??_C@_0FD@ENJJMBEA@Error?5dwKeepTime?5Over?5IdPlayer?5@
CONST	SEGMENT
??_C@_0FD@ENJJMBEA@Error?5dwKeepTime?5Over?5IdPlayer?5@ DB 'Error dwKeepT'
	DB	'ime Over IdPlayer = %d, PlayerName = %s, ItemName : %s, KeepT'
	DB	'ime = %d', 00H				; `string'
CONST	ENDS
;	COMDAT ??_C@_0O@CKNMOIJG@adwUMItemId?$CFd@
CONST	SEGMENT
??_C@_0O@CKNMOIJG@adwUMItemId?$CFd@ DB 'adwUMItemId%d', 00H ; `string'
CONST	ENDS
;	COMDAT ??_C@_0P@EMOPNFNN@nUMPiercedSize@
CONST	SEGMENT
??_C@_0P@EMOPNFNN@nUMPiercedSize@ DB 'nUMPiercedSize', 00H ; `string'
CONST	ENDS
;	COMDAT ??_C@_0M@CKDKEHJI@adwItemId?$CFd@
CONST	SEGMENT
??_C@_0M@CKDKEHJI@adwItemId?$CFd@ DB 'adwItemId%d', 00H	; `string'
CONST	ENDS
;	COMDAT ??_C@_0N@JGBJEPOF@nPiercedSize@
CONST	SEGMENT
??_C@_0N@JGBJEPOF@nPiercedSize@ DB 'nPiercedSize', 00H	; `string'
CONST	ENDS
;	COMDAT ??_C@_0BB@OIALCABB@nRandomOptItemId@
CONST	SEGMENT
??_C@_0BB@OIALCABB@nRandomOptItemId@ DB 'nRandomOptItemId', 00H ; `string'
CONST	ENDS
;	COMDAT ??_C@_0N@MGHLPGOO@m_dwKeepTime@
CONST	SEGMENT
??_C@_0N@MGHLPGOO@m_dwKeepTime@ DB 'm_dwKeepTime', 00H	; `string'
CONST	ENDS
;	COMDAT ??_C@_0L@IDDPCBMF@m_bCharged@
CONST	SEGMENT
??_C@_0L@IDDPCBMF@m_bCharged@ DB 'm_bCharged', 00H	; `string'
CONST	ENDS
;	COMDAT ??_C@_0BH@DKIALLAG@m_nResistAbilityOption@
CONST	SEGMENT
??_C@_0BH@DKIALLAG@m_nResistAbilityOption@ DB 'm_nResistAbilityOption', 00H ; `string'
CONST	ENDS
;	COMDAT ??_C@_0GA@FDDOAELN@CDbManager?3?3GetSendItem?5?9?5Trans@
CONST	SEGMENT
??_C@_0GA@FDDOAELN@CDbManager?3?3GetSendItem?5?9?5Trans@ DB 'CDbManager::'
	DB	'GetSendItem - TransformVisPet ItemId is Different. ItemId : ['
	DB	'%d], ItemResist : [%d]', 00H		; `string'
CONST	ENDS
;	COMDAT ??_C@_0O@PJIGDEIK@m_bItemResist@
CONST	SEGMENT
??_C@_0O@PJIGDEIK@m_bItemResist@ DB 'm_bItemResist', 00H ; `string'
CONST	ENDS
;	COMDAT ??_C@_0BB@JLNDCIFJ@m_nAbilityOption@
CONST	SEGMENT
??_C@_0BB@JLNDCIFJ@m_nAbilityOption@ DB 'm_nAbilityOption', 00H ; `string'
CONST	ENDS
;	COMDAT ??_C@_0L@IOKBDDFK@Item_count@
CONST	SEGMENT
??_C@_0L@IOKBDDFK@Item_count@ DB 'Item_count', 00H	; `string'
CONST	ENDS
;	COMDAT ??_C@_09GAPLKBDN@Item_Name@
CONST	SEGMENT
??_C@_09GAPLKBDN@Item_Name@ DB 'Item_Name', 00H		; `string'
CONST	ENDS
;	COMDAT ??_C@_05DIMENFA@m_nNo@
CONST	SEGMENT
??_C@_05DIMENFA@m_nNo@ DB 'm_nNo', 00H			; `string'
CONST	ENDS
;	COMDAT ??_C@_02KCGKEOIP@LC@
CONST	SEGMENT
??_C@_02KCGKEOIP@LC@ DB 'LC', 00H			; `string'
CONST	ENDS
;	COMDAT ??_C@_01HJOKEEBB@U@
CONST	SEGMENT
??_C@_01HJOKEEBB@U@ DB 'U', 00H				; `string'
CONST	ENDS
;	COMDAT ??_C@_02LFGCCOHG@DB@
CONST	SEGMENT
??_C@_02LFGCCOHG@DB@ DB 'DB', 00H			; `string'
CONST	ENDS
;	COMDAT ??_C@_0DO@NGNJDDDN@SendItem?3?3SendPenya?5PlayerName?5@
CONST	SEGMENT
??_C@_0DO@NGNJDDDN@SendItem?3?3SendPenya?5PlayerName?5@ DB 'SendItem::Sen'
	DB	'dPenya PlayerName = %s, Item_Count = %d Qry = %s', 00H ; `string'
CONST	ENDS
;	COMDAT ??_C@_05OIPCCCKJ@penya@
CONST	SEGMENT
??_C@_05OIPCCCKJ@penya@ DB 'penya', 00H			; `string'
CONST	ENDS
;	COMDAT ??_C@_0EA@LOGHMOOK@SendItem?3?3GetSendItem?5PlayerNam@
CONST	SEGMENT
??_C@_0EA@LOGHMOOK@SendItem?3?3GetSendItem?5PlayerNam@ DB 'SendItem::GetS'
	DB	'endItem PlayerName = %s, Item_Count = %d Qry = %s', 00H ; `string'
CONST	ENDS
;	COMDAT ??_C@_02NFGOEFPD@S4@
CONST	SEGMENT
??_C@_02NFGOEFPD@S4@ DB 'S4', 00H			; `string'
CONST	ENDS
;	COMDAT ??_C@_0CC@MOLEJOHI@PARTY_STR?5?8A1?8?0?8?$CF07d?8?0?8?$CF02d?8?0?8?$CF@
CONST	SEGMENT
??_C@_0CC@MOLEJOHI@PARTY_STR?5?8A1?8?0?8?$CF07d?8?0?8?$CF02d?8?0?8?$CF@ DB 'P'
	DB	'ARTY_STR ''A1'',''%07d'',''%02d'',''%s''', 00H ; `string'
CONST	ENDS
;	COMDAT ??_C@_0EJ@MEEOOOPP@uspLoggingLogin?5?8?$CF07d?8?0?5?8?$CF02d?8?0@
CONST	SEGMENT
??_C@_0EJ@MEEOOOPP@uspLoggingLogin?5?8?$CF07d?8?0?5?8?$CF02d?8?0@ DB 'usp'
	DB	'LoggingLogin ''%07d'', ''%02d'', ''%s'', %d, %d, %d, %d, ''%s'
	DB	''', %d, ''%s'', %d', 00H			; `string'
CONST	ENDS
;	COMDAT ??_C@_0N@BNMNAMM@?$CFY?$CFm?$CFd?$CFH?$CFM?$CFS@
CONST	SEGMENT
??_C@_0N@BNMNAMM@?$CFY?$CFm?$CFd?$CFH?$CFM?$CFS@ DB '%Y%m%d%H%M%S', 00H ; `string'
CONST	ENDS
;	COMDAT ??_C@_0BN@OKLNAAJP@PARTY_STR?5?8S1?8?0?8?$CF07d?8?0?8?$CF02d?8@
CONST	SEGMENT
??_C@_0BN@OKLNAAJP@PARTY_STR?5?8S1?8?0?8?$CF07d?8?0?8?$CF02d?8@ DB 'PARTY'
	DB	'_STR ''S1'',''%07d'',''%02d''', 00H		; `string'
CONST	ENDS
;	COMDAT ??_C@_09IGEGCHPB@partyname@
CONST	SEGMENT
??_C@_09IGEGCHPB@partyname@ DB 'partyname', 00H		; `string'
CONST	ENDS
;	COMDAT ??_C@_0BJ@NKMIJFPO@PARTY_STR?5?8S2?8?0?8?8?0?8?$CF02d?8@
CONST	SEGMENT
??_C@_0BJ@NKMIJFPO@PARTY_STR?5?8S2?8?0?8?8?0?8?$CF02d?8@ DB 'PARTY_STR '''
	DB	'S2'','''',''%02d''', 00H			; `string'
CONST	ENDS
;	COMDAT ??_C@_0BL@EGIIKACN@LoadPlayerData?5?9?5query?3?5?$CFs@
CONST	SEGMENT
??_C@_0BL@EGIIKACN@LoadPlayerData?5?9?5query?3?5?$CFs@ DB 'LoadPlayerData'
	DB	' - query: %s', 00H				; `string'
CONST	ENDS
;	COMDAT ??_C@_0BJ@LBLFICEK@uspLoadPlayerData?5?8?$CF02d?8@
CONST	SEGMENT
??_C@_0BJ@LBLFICEK@uspLoadPlayerData?5?8?$CF02d?8@ DB 'uspLoadPlayerData '
	DB	'''%02d''', 00H				; `string'
CONST	ENDS
;	COMDAT ??_C@_0BL@OFCBKIMA@can?8t?5connect?5character?5db@
CONST	SEGMENT
??_C@_0BL@OFCBKIMA@can?8t?5connect?5character?5db@ DB 'can''t connect cha'
	DB	'racter db', 00H				; `string'
CONST	ENDS
;	COMDAT ??_C@_0CL@IECFNJKH@LoadPlayerData?3?5can?8t?5connect?5c@
CONST	SEGMENT
??_C@_0CL@IECFNJKH@LoadPlayerData?3?5can?8t?5connect?5c@ DB 'LoadPlayerDa'
	DB	'ta: can''t connect character db', 00H	; `string'
CONST	ENDS
;	COMDAT ??_C@_0N@HABMDJOE@PointSummary@
CONST	SEGMENT
??_C@_0N@HABMDJOE@PointSummary@ DB 'PointSummary', 00H	; `string'
CONST	ENDS
;	COMDAT ??_C@_03DOFCBNIC@Job@
CONST	SEGMENT
??_C@_03DOFCBNIC@Job@ DB 'Job', 00H			; `string'
CONST	ENDS
;	COMDAT ??_C@_0CA@GEGADPKJ@uspRankGuildCombatPlayer?5?8?$CF02d?8@
CONST	SEGMENT
??_C@_0CA@GEGADPKJ@uspRankGuildCombatPlayer?5?8?$CF02d?8@ DB 'uspRankGuil'
	DB	'dCombatPlayer ''%02d''', 00H		; `string'
CONST	ENDS
;	COMDAT ??_C@_06BAGMPINC@Reward@
CONST	SEGMENT
??_C@_06BAGMPINC@Reward@ DB 'Reward', 00H		; `string'
CONST	ENDS
;	COMDAT ??_C@_0BA@DFEMOCBB@ReturnCombatFee@
CONST	SEGMENT
??_C@_0BA@DFEMOCBB@ReturnCombatFee@ DB 'ReturnCombatFee', 00H ; `string'
CONST	ENDS
;	COMDAT ??_C@_08PDCOLAII@CombatID@
CONST	SEGMENT
??_C@_08PDCOLAII@CombatID@ DB 'CombatID', 00H		; `string'
CONST	ENDS
;	COMDAT ??_C@_04PMDHLBMH@Flag@
CONST	SEGMENT
??_C@_04PMDHLBMH@Flag@ DB 'Flag', 00H			; `string'
CONST	ENDS
;	COMDAT ??_C@_0BP@JHGCPLHP@uspLoadCombatUnpaidList?5?8?$CF02d?8@
CONST	SEGMENT
??_C@_0BP@JHGCPLHP@uspLoadCombatUnpaidList?5?8?$CF02d?8@ DB 'uspLoadComba'
	DB	'tUnpaidList ''%02d''', 00H			; `string'
CONST	ENDS
;	COMDAT ??_C@_09JKPGIGMB@CombatFee@
CONST	SEGMENT
??_C@_09JKPGIGMB@CombatFee@ DB 'CombatFee', 00H		; `string'
CONST	ENDS
;	COMDAT ??_C@_0CC@ELOFEMPB@uspLoadCombatGuildList?5?$CFd?0?5?8?$CF02@
CONST	SEGMENT
??_C@_0CC@ELOFEMPB@uspLoadCombatGuildList?5?$CFd?0?5?8?$CF02@ DB 'uspLoad'
	DB	'CombatGuildList %d, ''%02d''', 00H		; `string'
CONST	ENDS
;	COMDAT ??_C@_08JGLGKIOP@PlayerID@
CONST	SEGMENT
??_C@_08JGLGKIOP@PlayerID@ DB 'PlayerID', 00H		; `string'
CONST	ENDS
;	COMDAT ??_C@_0CC@LKMFJMPC@uspLoadCombatBestPlayer?5?$CFd?0?8?$CF02@
CONST	SEGMENT
??_C@_0CC@LKMFJMPC@uspLoadCombatBestPlayer?5?$CFd?0?8?$CF02@ DB 'uspLoadC'
	DB	'ombatBestPlayer %d,''%02d''', 00H		; `string'
CONST	ENDS
;	COMDAT ??_C@_0M@LLHCNDAB@StraightWin@
CONST	SEGMENT
??_C@_0M@LLHCNDAB@StraightWin@ DB 'StraightWin', 00H	; `string'
CONST	ENDS
;	COMDAT ??_C@_07CLPGIMCK@GuildID@
CONST	SEGMENT
??_C@_07CLPGIMCK@GuildID@ DB 'GuildID', 00H		; `string'
CONST	ENDS
;	COMDAT ??_C@_0CB@OGADDGFN@uspLoadWinnerGuildInfo?5?$CFd?0?8?$CF02d@
CONST	SEGMENT
??_C@_0CB@OGADDGFN@uspLoadWinnerGuildInfo?5?$CFd?0?8?$CF02d@ DB 'uspLoadW'
	DB	'innerGuildInfo %d,''%02d''', 00H		; `string'
CONST	ENDS
;	COMDAT ??_C@_0BK@DAAGCGIL@uspAddNewCombat?5?$CFd?0?8?$CF02d?8@
CONST	SEGMENT
??_C@_0BK@DAAGCGIL@uspAddNewCombat?5?$CFd?0?8?$CF02d?8@ DB 'uspAddNewComb'
	DB	'at %d,''%02d''', 00H			; `string'
CONST	ENDS
;	COMDAT ??_C@_06PGDKHFME@Status@
CONST	SEGMENT
??_C@_06PGDKHFME@Status@ DB 'Status', 00H		; `string'
CONST	ENDS
;	COMDAT ??_C@_0BN@DFPHIGHC@uspLoadCombatInfo?5?$CFd?0?5?8?$CF02d?8@
CONST	SEGMENT
??_C@_0BN@DFPHIGHC@uspLoadCombatInfo?5?$CFd?0?5?8?$CF02d?8@ DB 'uspLoadCo'
	DB	'mbatInfo %d, ''%02d''', 00H			; `string'
CONST	ENDS
;	COMDAT ??_C@_06LEOHNDJG@MaxNum@
CONST	SEGMENT
??_C@_06LEOHNDJG@MaxNum@ DB 'MaxNum', 00H		; `string'
CONST	ENDS
;	COMDAT ??_C@_0BK@NJHPGAGP@uspLoadMaxCombatID?5?8?$CF02d?8@
CONST	SEGMENT
??_C@_0BK@NJHPGAGP@uspLoadMaxCombatID?5?8?$CF02d?8@ DB 'uspLoadMaxCombatI'
	DB	'D ''%02d''', 00H				; `string'
CONST	ENDS
;	COMDAT ??_C@_0CB@DEEFGDJC@Error?5?3?5Not?5Connect?5Character?5D@
CONST	SEGMENT
??_C@_0CB@DEEFGDJC@Error?5?3?5Not?5Connect?5Character?5D@ DB 'Error : Not'
	DB	' Connect Character DB', 00H			; `string'
CONST	ENDS
;	COMDAT ??_C@_06OJLEAOEG@?$CFs?0?5?$CFd@
CONST	SEGMENT
??_C@_06OJLEAOEG@?$CFs?0?5?$CFd@ DB '%s, %d', 00H	; `string'
CONST	ENDS
;	COMDAT ??_C@_0BC@IEAFGFF@m_nMessengerState@
CONST	SEGMENT
??_C@_0BC@IEAFGFF@m_nMessengerState@ DB 'm_nMessengerState', 00H ; `string'
CONST	ENDS
;	COMDAT ??_C@_0P@MCBMMJCE@m_adwEquipment@
CONST	SEGMENT
??_C@_0P@MCBMMJCE@m_adwEquipment@ DB 'm_adwEquipment', 00H ; `string'
CONST	ENDS
;	COMDAT ??_C@_09HGEFOOAJ@m_apIndex@
CONST	SEGMENT
??_C@_09HGEFOOAJ@m_apIndex@ DB 'm_apIndex', 00H		; `string'
CONST	ENDS
;	COMDAT ??_C@_0P@FEOHFPFP@Inventory?5?$DN?5?$CFs@
CONST	SEGMENT
??_C@_0P@FEOHFPFP@Inventory?5?$DN?5?$CFs@ DB 'Inventory = %s', 00H ; `string'
CONST	ENDS
;	COMDAT ??_C@_0DA@PGBKCGJ@SendPlayerList?3?3Inventory?5?3?5?$DM?$DM?5@
CONST	SEGMENT
??_C@_0DA@PGBKCGJ@SendPlayerList?3?3Inventory?5?3?5?$DM?$DM?5@ DB 'SendPl'
	DB	'ayerList::Inventory : << IndexItem %s, %d', 00H ; `string'
CONST	ENDS
;	COMDAT ??_C@_0CF@JJEIFMEB@Inventory?5?3?5?$DM?$DM?5?G?A?$LH?N?F?$NL?F?$LM?5?$LO?x?$MA?$LN?4?5?$CF@
CONST	SEGMENT
??_C@_0CF@JJEIFMEB@Inventory?5?3?5?$DM?$DM?5?G?A?$LH?N?F?$NL?F?$LM?5?$LO?x?$MA?$LN?4?5?$CF@ DB 'I'
	DB	'nventory : << ', 0c7H, 0c1H, 0b7H, 0ceH, 0c6H, 0dbH, 0c6H, 0bcH
	DB	' ', 0beH, 0f8H, 0c0H, 0bdH, '. %s, %d', 00H	; `string'
CONST	ENDS
;	COMDAT ??_C@_0M@GIEPEBGM@m_Inventory@
CONST	SEGMENT
??_C@_0M@GIEPEBGM@m_Inventory@ DB 'm_Inventory', 00H	; `string'
CONST	ENDS
;	COMDAT ??_C@_06LMCODDMF@m_nInt@
CONST	SEGMENT
??_C@_06LMCODDMF@m_nInt@ DB 'm_nInt', 00H		; `string'
CONST	ENDS
;	COMDAT ??_C@_06OOKEELPF@m_nDex@
CONST	SEGMENT
??_C@_06OOKEELPF@m_nDex@ DB 'm_nDex', 00H		; `string'
CONST	ENDS
;	COMDAT ??_C@_06KFIOEEIM@m_nSta@
CONST	SEGMENT
??_C@_06KFIOEEIM@m_nSta@ DB 'm_nSta', 00H		; `string'
CONST	ENDS
;	COMDAT ??_C@_06MEGBAFBO@m_nStr@
CONST	SEGMENT
??_C@_06MEGBAFBO@m_nStr@ DB 'm_nStr', 00H		; `string'
CONST	ENDS
;	COMDAT ??_C@_08DBNLLHK@m_nLevel@
CONST	SEGMENT
??_C@_08DBNLLHK@m_nLevel@ DB 'm_nLevel', 00H		; `string'
CONST	ENDS
;	COMDAT ??_C@_06LDMBEDML@m_nJob@
CONST	SEGMENT
??_C@_06LDMBEDML@m_nJob@ DB 'm_nJob', 00H		; `string'
CONST	ENDS
;	COMDAT ??_C@_07KMHLCHEI@m_dwSex@
CONST	SEGMENT
??_C@_07KMHLCHEI@m_dwSex@ DB 'm_dwSex', 00H		; `string'
CONST	ENDS
;	COMDAT ??_C@_0O@ICOGEKE@m_dwHairColor@
CONST	SEGMENT
??_C@_0O@ICOGEKE@m_dwHairColor@ DB 'm_dwHairColor', 00H	; `string'
CONST	ENDS
;	COMDAT ??_C@_0N@BHMOBEMJ@m_dwHeadMesh@
CONST	SEGMENT
??_C@_0N@BHMOBEMJ@m_dwHeadMesh@ DB 'm_dwHeadMesh', 00H	; `string'
CONST	ENDS
;	COMDAT ??_C@_0N@HFOELFNC@m_dwHairMesh@
CONST	SEGMENT
??_C@_0N@HFOELFNC@m_dwHairMesh@ DB 'm_dwHairMesh', 00H	; `string'
CONST	ENDS
;	COMDAT ??_C@_0M@BCEJBJHD@m_dwSkinSet@
CONST	SEGMENT
??_C@_0M@BCEJBJHD@m_dwSkinSet@ DB 'm_dwSkinSet', 00H	; `string'
CONST	ENDS
;	COMDAT ??_C@_07EFCBAOMF@m_idWar@
CONST	SEGMENT
??_C@_07EFCBAOMF@m_idWar@ DB 'm_idWar', 00H		; `string'
CONST	ENDS
;	COMDAT ??_C@_09MHDEIN@m_idGuild@
CONST	SEGMENT
??_C@_09MHDEIN@m_idGuild@ DB 'm_idGuild', 00H		; `string'
CONST	ENDS
;	COMDAT ??_C@_09OGJJHMJA@m_idparty@
CONST	SEGMENT
??_C@_09OGJJHMJA@m_idparty@ DB 'm_idparty', 00H		; `string'
CONST	ENDS
;	COMDAT ??_C@_09PLACNOOD@m_dwIndex@
CONST	SEGMENT
??_C@_09PLACNOOD@m_dwIndex@ DB 'm_dwIndex', 00H		; `string'
CONST	ENDS
;	COMDAT ??_C@_09DOPDDPEB@BlockTime@
CONST	SEGMENT
??_C@_09DOPDDPEB@BlockTime@ DB 'BlockTime', 00H		; `string'
CONST	ENDS
;	COMDAT ??_C@_08HDDJDJAG@m_szName@
CONST	SEGMENT
??_C@_08HDDJDJAG@m_szName@ DB 'm_szName', 00H		; `string'
CONST	ENDS
;	COMDAT ??_C@_0N@NIOAJHOA@last_connect@
CONST	SEGMENT
??_C@_0N@NIOAJHOA@last_connect@ DB 'last_connect', 00H	; `string'
CONST	ENDS
;	COMDAT ??_C@_08GLDCJGDB@m_vPos_z@
CONST	SEGMENT
??_C@_08GLDCJGDB@m_vPos_z@ DB 'm_vPos_z', 00H		; `string'
CONST	ENDS
;	COMDAT ??_C@_08EABPMFPC@m_vPos_y@
CONST	SEGMENT
??_C@_08EABPMFPC@m_vPos_y@ DB 'm_vPos_y', 00H		; `string'
CONST	ENDS
;	COMDAT ??_C@_08FJAEPELD@m_vPos_x@
CONST	SEGMENT
??_C@_08FJAEPELD@m_vPos_x@ DB 'm_vPos_x', 00H		; `string'
CONST	ENDS
;	COMDAT ??_C@_09DHJEDBNA@dwWorldID@
CONST	SEGMENT
??_C@_09DHJEDBNA@dwWorldID@ DB 'dwWorldID', 00H		; `string'
CONST	ENDS
;	COMDAT ??_C@_0M@FNJGDDDM@m_idCompany@
CONST	SEGMENT
??_C@_0M@FNJGDDDM@m_idCompany@ DB 'm_idCompany', 00H	; `string'
CONST	ENDS
;	COMDAT ??_C@_0CF@BDIOPENM@?$CFs?0?5?$CFd?7?$CFs?5nslot?$FLnSlotCount?$FN?5?$DN?$DN?5@
CONST	SEGMENT
??_C@_0CF@BDIOPENM@?$CFs?0?5?$CFd?7?$CFs?5nslot?$FLnSlotCount?$FN?5?$DN?$DN?5@ DB '%'
	DB	's, %d', 09H, '%s nslot[nSlotCount] == islot', 00H ; `string'
CONST	ENDS
;	COMDAT ??_C@_0BP@FCJMJGOI@?$CFs?0?5?$CFd?7?$CFs?5SlotError?5islot?5?$FL?$CFd?$FN@
CONST	SEGMENT
??_C@_0BP@FCJMJGOI@?$CFs?0?5?$CFd?7?$CFs?5SlotError?5islot?5?$FL?$CFd?$FN@ DB '%'
	DB	's, %d', 09H, '%s SlotError islot [%d]', 00H	; `string'
CONST	ENDS
;	COMDAT ??_C@_0L@BLIMKIB@playerslot@
CONST	SEGMENT
??_C@_0L@BLIMKIB@playerslot@ DB 'playerslot', 00H	; `string'
CONST	ENDS
;	COMDAT ??_C@_0BC@MIKLFGHN@?$CFs?0?5?$CFd?7?$CFs?0?5?$CFs?0?5?$CFd@
CONST	SEGMENT
??_C@_0BC@MIKLFGHN@?$CFs?0?5?$CFd?7?$CFs?0?5?$CFs?0?5?$CFd@ DB '%s, %d', 09H
	DB	'%s, %s, %d', 00H				; `string'
CONST	ENDS
;	COMDAT ??_C@_0BM@DKDAGLAJ@?$CFs?0?5?$CFd?7?$CFs?5?3?5countPlayer?5?$DO?52@
CONST	SEGMENT
??_C@_0BM@DKDAGLAJ@?$CFs?0?5?$CFd?7?$CFs?5?3?5countPlayer?5?$DO?52@ DB '%'
	DB	's, %d', 09H, '%s : countPlayer > 2', 00H	; `string'
CONST	ENDS
;	COMDAT ??_C@_02IDDEOCHF@S2@
CONST	SEGMENT
??_C@_02IDDEOCHF@S2@ DB 'S2', 00H			; `string'
CONST	ENDS
;	COMDAT ??_C@_0CD@POFEPDKP@BANK_STR?5?8U?8?0?5?8?$CF07d?8?0?5?8?$CF02d?8?0?5?8@
CONST	SEGMENT
??_C@_0CD@POFEPDKP@BANK_STR?5?8U?8?0?5?8?$CF07d?8?0?5?8?$CF02d?8?0?5?8@ DB 'B'
	DB	'ANK_STR ''U'', ''%07d'', ''%02d'', ''%s''', 00H ; `string'
CONST	ENDS
;	COMDAT ??_C@_0CK@IFOAIHKE@uspDeleteMessenger?5?8?$CF02d?8?0?5?8?$CF07@
CONST	SEGMENT
??_C@_0CK@IFOAIHKE@uspDeleteMessenger?5?8?$CF02d?8?0?5?8?$CF07@ DB 'uspDe'
	DB	'leteMessenger ''%02d'', ''%07d'', ''%07d''', 00H ; `string'
CONST	ENDS
;	COMDAT ??_C@_05EAEKFJDL@fText@
CONST	SEGMENT
??_C@_05EAEKFJDL@fText@ DB 'fText', 00H			; `string'
CONST	ENDS
;	COMDAT ??_C@_0BD@NFMAHED@?$CFs?0?5?$CFd?7?$CFs?$AN?6?7?$CFs?0?5?$CFs@
CONST	SEGMENT
??_C@_0BD@NFMAHED@?$CFs?0?5?$CFd?7?$CFs?$AN?6?7?$CFs?0?5?$CFs@ DB '%s, %d'
	DB	09H, '%s', 0dH, 0aH, 09H, '%s, %s', 00H	; `string'
CONST	ENDS
;	COMDAT ??_C@_02LBHAAEED@D1@
CONST	SEGMENT
??_C@_02LBHAAEED@D1@ DB 'D1', 00H			; `string'
CONST	ENDS
;	COMDAT ??_C@_0CF@MFMPPGKF@BANK_STR?5?8U?8?0?5?8?$CF07d?8?0?5?8?$CF02d?8?0?5?8@
CONST	SEGMENT
??_C@_0CF@MFMPPGKF@BANK_STR?5?8U?8?0?5?8?$CF07d?8?0?5?8?$CF02d?8?0?5?8@ DB 'B'
	DB	'ANK_STR ''U'', ''%07d'', ''%02d'', ''%04d''', 00H ; `string'
CONST	ENDS
;	COMDAT ??_C@_0L@FONFFEJF@m_idPlayer@
CONST	SEGMENT
??_C@_0L@FONFFEJF@m_idPlayer@ DB 'm_idPlayer', 00H	; `string'
CONST	ENDS
;	COMDAT ??_C@_06MJMGIOFA@fError@
CONST	SEGMENT
??_C@_06MJMGIOFA@fError@ DB 'fError', 00H		; `string'
CONST	ENDS
;	COMDAT ??_C@_02LJKIJHBA@I1@
CONST	SEGMENT
??_C@_02LJKIJHBA@I1@ DB 'I1', 00H			; `string'
CONST	ENDS
;	COMDAT ??_C@_0DA@JBGMBOA@nBankPW?5is?5Invalid?$CB?5szPlayer?5?3?5@
CONST	SEGMENT
??_C@_0DA@JBGMBOA@nBankPW?5is?5Invalid?$CB?5szPlayer?5?3?5@ DB 'nBankPW i'
	DB	's Invalid! szPlayer : %s, nBankPW : %d', 00H ; `string'
CONST	ENDS
;	COMDAT ??_C@_0M@MLDFCOHI@?$CFs?0?5?$CFd?$AN?6?7?$CFs@
CONST	SEGMENT
??_C@_0M@MLDFCOHI@?$CFs?0?5?$CFd?$AN?6?7?$CFs@ DB '%s, %d', 0dH, 0aH, 09H
	DB	'%s', 00H					; `string'
CONST	ENDS
;	COMDAT ??_C@_0DK@JDGIDAFH@C?3?2IAGOS?2server?2v18?2Source?2Sour@
CONST	SEGMENT
??_C@_0DK@JDGIDAFH@C?3?2IAGOS?2server?2v18?2Source?2Sour@ DB 'C:\IAGOS\se'
	DB	'rver\v18\Source\Source\_database\DbManager.cpp', 00H ; `string'
CONST	ENDS
;	COMDAT ??_C@_0EP@COOPOMGF@SELECT?5?$CK?5FROM?5ACCOUNT_DBF?4dbo?4A@
CONST	SEGMENT
??_C@_0EP@COOPOMGF@SELECT?5?$CK?5FROM?5ACCOUNT_DBF?4dbo?4A@ DB 'SELECT * '
	DB	'FROM ACCOUNT_DBF.dbo.ACCOUNT_TBL WHERE account=''%s'' AND pas'
	DB	'sword=''%s''', 00H				; `string'
CONST	ENDS
;	COMDAT ??_R1A@?0A@EA@?$CItemContainer@VCItemElem@@@@8
rdata$r	SEGMENT
??_R1A@?0A@EA@?$CItemContainer@VCItemElem@@@@8 DD FLAT:??_R0?AV?$CItemContainer@VCItemElem@@@@@8 ; CItemContainer<CItemElem>::`RTTI Base Class Descriptor at (0,-1,0,64)'
	DD	00H
	DD	00H
	DD	0ffffffffH
	DD	00H
	DD	040H
	DD	FLAT:??_R3?$CItemContainer@VCItemElem@@@@8
rdata$r	ENDS
;	COMDAT ??_R2?$CItemContainer@VCItemElem@@@@8
rdata$r	SEGMENT
??_R2?$CItemContainer@VCItemElem@@@@8 DD FLAT:??_R1A@?0A@EA@?$CItemContainer@VCItemElem@@@@8 ; CItemContainer<CItemElem>::`RTTI Base Class Array'
rdata$r	ENDS
;	COMDAT ??_R3?$CItemContainer@VCItemElem@@@@8
rdata$r	SEGMENT
??_R3?$CItemContainer@VCItemElem@@@@8 DD 00H		; CItemContainer<CItemElem>::`RTTI Class Hierarchy Descriptor'
	DD	00H
	DD	01H
	DD	FLAT:??_R2?$CItemContainer@VCItemElem@@@@8
rdata$r	ENDS
;	COMDAT ??_R0?AV?$CItemContainer@VCItemElem@@@@@8
data$rs	SEGMENT
??_R0?AV?$CItemContainer@VCItemElem@@@@@8 DD FLAT:??_7type_info@@6B@ ; CItemContainer<CItemElem> `RTTI Type Descriptor'
	DD	00H
	DB	'.?AV?$CItemContainer@VCItemElem@@@@', 00H
data$rs	ENDS
;	COMDAT ??_R4?$CItemContainer@VCItemElem@@@@6B@
rdata$r	SEGMENT
??_R4?$CItemContainer@VCItemElem@@@@6B@ DD 00H		; CItemContainer<CItemElem>::`RTTI Complete Object Locator'
	DD	00H
	DD	00H
	DD	FLAT:??_R0?AV?$CItemContainer@VCItemElem@@@@@8
	DD	FLAT:??_R3?$CItemContainer@VCItemElem@@@@8
rdata$r	ENDS
;	COMDAT ??_R1A@?0A@EA@CMclCritSec@@8
rdata$r	SEGMENT
??_R1A@?0A@EA@CMclCritSec@@8 DD FLAT:??_R0?AVCMclCritSec@@@8 ; CMclCritSec::`RTTI Base Class Descriptor at (0,-1,0,64)'
	DD	00H
	DD	00H
	DD	0ffffffffH
	DD	00H
	DD	040H
	DD	FLAT:??_R3CMclCritSec@@8
rdata$r	ENDS
;	COMDAT ??_R2CMclCritSec@@8
rdata$r	SEGMENT
??_R2CMclCritSec@@8 DD FLAT:??_R1A@?0A@EA@CMclCritSec@@8 ; CMclCritSec::`RTTI Base Class Array'
rdata$r	ENDS
;	COMDAT ??_R3CMclCritSec@@8
rdata$r	SEGMENT
??_R3CMclCritSec@@8 DD 00H				; CMclCritSec::`RTTI Class Hierarchy Descriptor'
	DD	00H
	DD	01H
	DD	FLAT:??_R2CMclCritSec@@8
rdata$r	ENDS
;	COMDAT ??_R0?AVCMclCritSec@@@8
data$rs	SEGMENT
??_R0?AVCMclCritSec@@@8 DD FLAT:??_7type_info@@6B@	; CMclCritSec `RTTI Type Descriptor'
	DD	00H
	DB	'.?AVCMclCritSec@@', 00H
data$rs	ENDS
;	COMDAT ??_R4CMclCritSec@@6B@
rdata$r	SEGMENT
??_R4CMclCritSec@@6B@ DD 00H				; CMclCritSec::`RTTI Complete Object Locator'
	DD	00H
	DD	00H
	DD	FLAT:??_R0?AVCMclCritSec@@@8
	DD	FLAT:??_R3CMclCritSec@@8
rdata$r	ENDS
;	COMDAT ??_R4bad_alloc@std@@6B@
rdata$r	SEGMENT
??_R4bad_alloc@std@@6B@ DD 00H				; std::bad_alloc::`RTTI Complete Object Locator'
	DD	00H
	DD	00H
	DD	FLAT:??_R0?AVbad_alloc@std@@@8
	DD	FLAT:??_R3bad_alloc@std@@8
rdata$r	ENDS
;	COMDAT ??_R2bad_alloc@std@@8
rdata$r	SEGMENT
??_R2bad_alloc@std@@8 DD FLAT:??_R1A@?0A@EA@bad_alloc@std@@8 ; std::bad_alloc::`RTTI Base Class Array'
	DD	FLAT:??_R1A@?0A@EA@exception@std@@8
rdata$r	ENDS
;	COMDAT ??_R3bad_alloc@std@@8
rdata$r	SEGMENT
??_R3bad_alloc@std@@8 DD 00H				; std::bad_alloc::`RTTI Class Hierarchy Descriptor'
	DD	00H
	DD	02H
	DD	FLAT:??_R2bad_alloc@std@@8
rdata$r	ENDS
;	COMDAT ??_R1A@?0A@EA@bad_alloc@std@@8
rdata$r	SEGMENT
??_R1A@?0A@EA@bad_alloc@std@@8 DD FLAT:??_R0?AVbad_alloc@std@@@8 ; std::bad_alloc::`RTTI Base Class Descriptor at (0,-1,0,64)'
	DD	01H
	DD	00H
	DD	0ffffffffH
	DD	00H
	DD	040H
	DD	FLAT:??_R3bad_alloc@std@@8
rdata$r	ENDS
;	COMDAT ??_R1A@?0A@EA@bad_array_new_length@std@@8
rdata$r	SEGMENT
??_R1A@?0A@EA@bad_array_new_length@std@@8 DD FLAT:??_R0?AVbad_array_new_length@std@@@8 ; std::bad_array_new_length::`RTTI Base Class Descriptor at (0,-1,0,64)'
	DD	02H
	DD	00H
	DD	0ffffffffH
	DD	00H
	DD	040H
	DD	FLAT:??_R3bad_array_new_length@std@@8
rdata$r	ENDS
;	COMDAT ??_R2bad_array_new_length@std@@8
rdata$r	SEGMENT
??_R2bad_array_new_length@std@@8 DD FLAT:??_R1A@?0A@EA@bad_array_new_length@std@@8 ; std::bad_array_new_length::`RTTI Base Class Array'
	DD	FLAT:??_R1A@?0A@EA@bad_alloc@std@@8
	DD	FLAT:??_R1A@?0A@EA@exception@std@@8
rdata$r	ENDS
;	COMDAT ??_R3bad_array_new_length@std@@8
rdata$r	SEGMENT
??_R3bad_array_new_length@std@@8 DD 00H			; std::bad_array_new_length::`RTTI Class Hierarchy Descriptor'
	DD	00H
	DD	03H
	DD	FLAT:??_R2bad_array_new_length@std@@8
rdata$r	ENDS
;	COMDAT ??_R4bad_array_new_length@std@@6B@
rdata$r	SEGMENT
??_R4bad_array_new_length@std@@6B@ DD 00H		; std::bad_array_new_length::`RTTI Complete Object Locator'
	DD	00H
	DD	00H
	DD	FLAT:??_R0?AVbad_array_new_length@std@@@8
	DD	FLAT:??_R3bad_array_new_length@std@@8
rdata$r	ENDS
;	COMDAT ??_R1A@?0A@EA@exception@std@@8
rdata$r	SEGMENT
??_R1A@?0A@EA@exception@std@@8 DD FLAT:??_R0?AVexception@std@@@8 ; std::exception::`RTTI Base Class Descriptor at (0,-1,0,64)'
	DD	00H
	DD	00H
	DD	0ffffffffH
	DD	00H
	DD	040H
	DD	FLAT:??_R3exception@std@@8
rdata$r	ENDS
;	COMDAT ??_R2exception@std@@8
rdata$r	SEGMENT
??_R2exception@std@@8 DD FLAT:??_R1A@?0A@EA@exception@std@@8 ; std::exception::`RTTI Base Class Array'
rdata$r	ENDS
;	COMDAT ??_R3exception@std@@8
rdata$r	SEGMENT
??_R3exception@std@@8 DD 00H				; std::exception::`RTTI Class Hierarchy Descriptor'
	DD	00H
	DD	01H
	DD	FLAT:??_R2exception@std@@8
rdata$r	ENDS
;	COMDAT ??_R4exception@std@@6B@
rdata$r	SEGMENT
??_R4exception@std@@6B@ DD 00H				; std::exception::`RTTI Complete Object Locator'
	DD	00H
	DD	00H
	DD	FLAT:??_R0?AVexception@std@@@8
	DD	FLAT:??_R3exception@std@@8
rdata$r	ENDS
;	COMDAT ??_C@_0BA@FOIKENOD@vector?5too?5long@
CONST	SEGMENT
??_C@_0BA@FOIKENOD@vector?5too?5long@ DB 'vector too long', 00H ; `string'
CONST	ENDS
;	COMDAT ??_C@_0O@NKNMEGII@list?5too?5long@
CONST	SEGMENT
??_C@_0O@NKNMEGII@list?5too?5long@ DB 'list too long', 00H ; `string'
CONST	ENDS
;	COMDAT ??_C@_09PKKCPLIP@bad?5alloc@
CONST	SEGMENT
??_C@_09PKKCPLIP@bad?5alloc@ DB 'bad alloc', 00H	; `string'
CONST	ENDS
;	COMDAT ??_C@_09GBAEEKDE@?$CFs?0?5?$CFd?7?$CFs@
CONST	SEGMENT
??_C@_09GBAEEKDE@?$CFs?0?5?$CFd?7?$CFs@ DB '%s, %d', 09H, '%s', 00H ; `string'
CONST	ENDS
;	COMDAT ??_7?$CItemContainer@VCItemElem@@@@6B@
CONST	SEGMENT
??_7?$CItemContainer@VCItemElem@@@@6B@ DD FLAT:??_R4?$CItemContainer@VCItemElem@@@@6B@ ; CItemContainer<CItemElem>::`vftable'
	DD	FLAT:??_E?$CItemContainer@VCItemElem@@@@UAEPAXI@Z
CONST	ENDS
;	COMDAT ??_7CMclCritSec@@6B@
CONST	SEGMENT
??_7CMclCritSec@@6B@ DD FLAT:??_R4CMclCritSec@@6B@	; CMclCritSec::`vftable'
	DD	FLAT:??_ECMclCritSec@@UAEPAXI@Z
CONST	ENDS
;	COMDAT ??_C@_0BB@GCADKGJO@map?1set?5too?5long@
CONST	SEGMENT
??_C@_0BB@GCADKGJO@map?1set?5too?5long@ DB 'map/set too long', 00H ; `string'
CONST	ENDS
;	COMDAT ??_C@_0BA@JFNIOLAK@string?5too?5long@
CONST	SEGMENT
??_C@_0BA@JFNIOLAK@string?5too?5long@ DB 'string too long', 00H ; `string'
CONST	ENDS
;	COMDAT __CT??_R0?AVbad_alloc@std@@@8??0bad_alloc@std@@QAE@ABV01@@Z12
xdata$x	SEGMENT
__CT??_R0?AVbad_alloc@std@@@8??0bad_alloc@std@@QAE@ABV01@@Z12 DD 010H
	DD	FLAT:??_R0?AVbad_alloc@std@@@8
	DD	00H
	DD	0ffffffffH
	ORG $+4
	DD	0cH
	DD	FLAT:??0bad_alloc@std@@QAE@ABV01@@Z
xdata$x	ENDS
;	COMDAT ??_R0?AVbad_alloc@std@@@8
data$r	SEGMENT
??_R0?AVbad_alloc@std@@@8 DD FLAT:??_7type_info@@6B@	; std::bad_alloc `RTTI Type Descriptor'
	DD	00H
	DB	'.?AVbad_alloc@std@@', 00H
data$r	ENDS
;	COMDAT __CT??_R0?AVbad_array_new_length@std@@@8??0bad_array_new_length@std@@QAE@ABV01@@Z12
xdata$x	SEGMENT
__CT??_R0?AVbad_array_new_length@std@@@8??0bad_array_new_length@std@@QAE@ABV01@@Z12 DD 00H
	DD	FLAT:??_R0?AVbad_array_new_length@std@@@8
	DD	00H
	DD	0ffffffffH
	ORG $+4
	DD	0cH
	DD	FLAT:??0bad_array_new_length@std@@QAE@ABV01@@Z
xdata$x	ENDS
;	COMDAT ??_R0?AVbad_array_new_length@std@@@8
data$r	SEGMENT
??_R0?AVbad_array_new_length@std@@@8 DD FLAT:??_7type_info@@6B@ ; std::bad_array_new_length `RTTI Type Descriptor'
	DD	00H
	DB	'.?AVbad_array_new_length@std@@', 00H
data$r	ENDS
;	COMDAT __CTA3?AVbad_array_new_length@std@@
xdata$x	SEGMENT
__CTA3?AVbad_array_new_length@std@@ DD 03H
	DD	FLAT:__CT??_R0?AVbad_array_new_length@std@@@8??0bad_array_new_length@std@@QAE@ABV01@@Z12
	DD	FLAT:__CT??_R0?AVbad_alloc@std@@@8??0bad_alloc@std@@QAE@ABV01@@Z12
	DD	FLAT:__CT??_R0?AVexception@std@@@8??0exception@std@@QAE@ABV01@@Z12
xdata$x	ENDS
;	COMDAT __TI3?AVbad_array_new_length@std@@
xdata$x	SEGMENT
__TI3?AVbad_array_new_length@std@@ DD 00H
	DD	FLAT:??1bad_array_new_length@std@@UAE@XZ
	DD	00H
	DD	FLAT:__CTA3?AVbad_array_new_length@std@@
xdata$x	ENDS
;	COMDAT __CT??_R0?AVexception@std@@@8??0exception@std@@QAE@ABV01@@Z12
xdata$x	SEGMENT
__CT??_R0?AVexception@std@@@8??0exception@std@@QAE@ABV01@@Z12 DD 00H
	DD	FLAT:??_R0?AVexception@std@@@8
	DD	00H
	DD	0ffffffffH
	ORG $+4
	DD	0cH
	DD	FLAT:??0exception@std@@QAE@ABV01@@Z
xdata$x	ENDS
;	COMDAT ??_R0?AVexception@std@@@8
data$r	SEGMENT
??_R0?AVexception@std@@@8 DD FLAT:??_7type_info@@6B@	; std::exception `RTTI Type Descriptor'
	DD	00H
	DB	'.?AVexception@std@@', 00H
data$r	ENDS
;	COMDAT ??_C@_0BF@KINCDENJ@bad?5array?5new?5length@
CONST	SEGMENT
??_C@_0BF@KINCDENJ@bad?5array?5new?5length@ DB 'bad array new length', 00H ; `string'
CONST	ENDS
;	COMDAT ??_7bad_array_new_length@std@@6B@
CONST	SEGMENT
??_7bad_array_new_length@std@@6B@ DD FLAT:??_R4bad_array_new_length@std@@6B@ ; std::bad_array_new_length::`vftable'
	DD	FLAT:??_Ebad_array_new_length@std@@UAEPAXI@Z
	DD	FLAT:?what@exception@std@@UBEPBDXZ
CONST	ENDS
;	COMDAT ??_7bad_alloc@std@@6B@
CONST	SEGMENT
??_7bad_alloc@std@@6B@ DD FLAT:??_R4bad_alloc@std@@6B@	; std::bad_alloc::`vftable'
	DD	FLAT:??_Ebad_alloc@std@@UAEPAXI@Z
	DD	FLAT:?what@exception@std@@UBEPBDXZ
CONST	ENDS
;	COMDAT ??_C@_0BC@EOODALEL@Unknown?5exception@
CONST	SEGMENT
??_C@_0BC@EOODALEL@Unknown?5exception@ DB 'Unknown exception', 00H ; `string'
CONST	ENDS
;	COMDAT ??_7exception@std@@6B@
CONST	SEGMENT
??_7exception@std@@6B@ DD FLAT:??_R4exception@std@@6B@	; std::exception::`vftable'
	DD	FLAT:??_Eexception@std@@UAEPAXI@Z
	DD	FLAT:?what@exception@std@@UBEPBDXZ
CONST	ENDS
;	COMDAT ??_C@_00CNPNBAHC@@
CONST	SEGMENT
??_C@_00CNPNBAHC@@ DB 00H				; `string'
CONST	ENDS
;	COMDAT ??_C@_01CKDDGHAB@D@
CONST	SEGMENT
??_C@_01CKDDGHAB@D@ DB 'D', 00H				; `string'
CONST	ENDS
;	COMDAT ??_C@_01CPLAODJH@S@
CONST	SEGMENT
??_C@_01CPLAODJH@S@ DB 'S', 00H				; `string'
CONST	ENDS
;	COMDAT ??_C@_02DPKJAMEF@?$CFd@
CONST	SEGMENT
??_C@_02DPKJAMEF@?$CFd@ DB '%d', 00H			; `string'
CONST	ENDS
;	COMDAT xdata$x
xdata$x	SEGMENT
__unwindtable$??$_Emplace_reallocate@ABU__GC1TO1TENDER@CGuildCombat1to1Mng@@@?$vector@U__GC1TO1TENDER@CGuildCombat1to1Mng@@V?$allocator@U__GC1TO1TENDER@CGuildCombat1to1Mng@@@std@@@std@@AAEPAU__GC1TO1TENDER@CGuildCombat1to1Mng@@QAU23@ABU23@@Z DD 0ffffffffH
	DD	FLAT:__unwindfunclet$??$_Emplace_reallocate@ABU__GC1TO1TENDER@CGuildCombat1to1Mng@@@?$vector@U__GC1TO1TENDER@CGuildCombat1to1Mng@@V?$allocator@U__GC1TO1TENDER@CGuildCombat1to1Mng@@@std@@@std@@AAEPAU__GC1TO1TENDER@CGuildCombat1to1Mng@@QAU23@ABU23@@Z$0
__ehfuncinfo$??$_Emplace_reallocate@ABU__GC1TO1TENDER@CGuildCombat1to1Mng@@@?$vector@U__GC1TO1TENDER@CGuildCombat1to1Mng@@V?$allocator@U__GC1TO1TENDER@CGuildCombat1to1Mng@@@std@@@std@@AAEPAU__GC1TO1TENDER@CGuildCombat1to1Mng@@QAU23@ABU23@@Z DD 019930522H
	DD	01H
	DD	FLAT:__unwindtable$??$_Emplace_reallocate@ABU__GC1TO1TENDER@CGuildCombat1to1Mng@@@?$vector@U__GC1TO1TENDER@CGuildCombat1to1Mng@@V?$allocator@U__GC1TO1TENDER@CGuildCombat1to1Mng@@@std@@@std@@AAEPAU__GC1TO1TENDER@CGuildCombat1to1Mng@@QAU23@ABU23@@Z
	DD	2 DUP(00H)
	DD	2 DUP(00H)
	DD	00H
	DD	01H
xdata$x	ENDS
;	COMDAT xdata$x
xdata$x	SEGMENT
__unwindtable$??$?0U?$pair@$$CBKK@std@@@?$_Tree_temp_node@V?$allocator@U?$_Tree_node@U?$pair@$$CBKK@std@@PAX@std@@@std@@@std@@QAE@AAV?$allocator@U?$_Tree_node@U?$pair@$$CBKK@std@@PAX@std@@@1@PAU?$_Tree_node@U?$pair@$$CBKK@std@@PAX@1@$$QAU?$pair@$$CBKK@1@@Z DD 0ffffffffH
	DD	FLAT:__unwindfunclet$??$?0U?$pair@$$CBKK@std@@@?$_Tree_temp_node@V?$allocator@U?$_Tree_node@U?$pair@$$CBKK@std@@PAX@std@@@std@@@std@@QAE@AAV?$allocator@U?$_Tree_node@U?$pair@$$CBKK@std@@PAX@std@@@1@PAU?$_Tree_node@U?$pair@$$CBKK@std@@PAX@1@$$QAU?$pair@$$CBKK@1@@Z$1
__ehfuncinfo$??$?0U?$pair@$$CBKK@std@@@?$_Tree_temp_node@V?$allocator@U?$_Tree_node@U?$pair@$$CBKK@std@@PAX@std@@@std@@@std@@QAE@AAV?$allocator@U?$_Tree_node@U?$pair@$$CBKK@std@@PAX@std@@@1@PAU?$_Tree_node@U?$pair@$$CBKK@std@@PAX@1@$$QAU?$pair@$$CBKK@1@@Z DD 019930522H
	DD	01H
	DD	FLAT:__unwindtable$??$?0U?$pair@$$CBKK@std@@@?$_Tree_temp_node@V?$allocator@U?$_Tree_node@U?$pair@$$CBKK@std@@PAX@std@@@std@@@std@@QAE@AAV?$allocator@U?$_Tree_node@U?$pair@$$CBKK@std@@PAX@std@@@1@PAU?$_Tree_node@U?$pair@$$CBKK@std@@PAX@1@$$QAU?$pair@$$CBKK@1@@Z
	DD	2 DUP(00H)
	DD	2 DUP(00H)
	DD	00H
	DD	01H
xdata$x	ENDS
;	COMDAT xdata$x
xdata$x	SEGMENT
__unwindtable$??0?$_Tree_temp_node_alloc@V?$allocator@U?$_Tree_node@U?$pair@$$CBKK@std@@PAX@std@@@std@@@std@@QAE@AAV?$allocator@U?$_Tree_node@U?$pair@$$CBKK@std@@PAX@std@@@1@@Z DD 0ffffffffH
	DD	FLAT:__unwindfunclet$??0?$_Tree_temp_node_alloc@V?$allocator@U?$_Tree_node@U?$pair@$$CBKK@std@@PAX@std@@@std@@@std@@QAE@AAV?$allocator@U?$_Tree_node@U?$pair@$$CBKK@std@@PAX@std@@@1@@Z$0
__ehfuncinfo$??0?$_Tree_temp_node_alloc@V?$allocator@U?$_Tree_node@U?$pair@$$CBKK@std@@PAX@std@@@std@@@std@@QAE@AAV?$allocator@U?$_Tree_node@U?$pair@$$CBKK@std@@PAX@std@@@1@@Z DD 019930522H
	DD	01H
	DD	FLAT:__unwindtable$??0?$_Tree_temp_node_alloc@V?$allocator@U?$_Tree_node@U?$pair@$$CBKK@std@@PAX@std@@@std@@@std@@QAE@AAV?$allocator@U?$_Tree_node@U?$pair@$$CBKK@std@@PAX@std@@@1@@Z
	DD	2 DUP(00H)
	DD	2 DUP(00H)
	DD	00H
	DD	01H
xdata$x	ENDS
;	COMDAT xdata$x
xdata$x	SEGMENT
__unwindtable$??$?0U?$pair@$$CBKU_CONV_RESULT_ITEM@@@std@@@?$_Tree_temp_node@V?$allocator@U?$_Tree_node@U?$pair@$$CBKU_CONV_RESULT_ITEM@@@std@@PAX@std@@@std@@@std@@QAE@AAV?$allocator@U?$_Tree_node@U?$pair@$$CBKU_CONV_RESULT_ITEM@@@std@@PAX@std@@@1@PAU?$_Tree_node@U?$pair@$$CBKU_CONV_RESULT_ITEM@@@std@@PAX@1@$$QAU?$pair@$$CBKU_CONV_RESULT_ITEM@@@1@@Z DD 0ffffffffH
	DD	FLAT:__unwindfunclet$??$?0U?$pair@$$CBKU_CONV_RESULT_ITEM@@@std@@@?$_Tree_temp_node@V?$allocator@U?$_Tree_node@U?$pair@$$CBKU_CONV_RESULT_ITEM@@@std@@PAX@std@@@std@@@std@@QAE@AAV?$allocator@U?$_Tree_node@U?$pair@$$CBKU_CONV_RESULT_ITEM@@@std@@PAX@std@@@1@PAU?$_Tree_node@U?$pair@$$CBKU_CONV_RESULT_ITEM@@@std@@PAX@1@$$QAU?$pair@$$CBKU_CONV_RESULT_ITEM@@@1@@Z$1
__ehfuncinfo$??$?0U?$pair@$$CBKU_CONV_RESULT_ITEM@@@std@@@?$_Tree_temp_node@V?$allocator@U?$_Tree_node@U?$pair@$$CBKU_CONV_RESULT_ITEM@@@std@@PAX@std@@@std@@@std@@QAE@AAV?$allocator@U?$_Tree_node@U?$pair@$$CBKU_CONV_RESULT_ITEM@@@std@@PAX@std@@@1@PAU?$_Tree_node@U?$pair@$$CBKU_CONV_RESULT_ITEM@@@std@@PAX@1@$$QAU?$pair@$$CBKU_CONV_RESULT_ITEM@@@1@@Z DD 019930522H
	DD	01H
	DD	FLAT:__unwindtable$??$?0U?$pair@$$CBKU_CONV_RESULT_ITEM@@@std@@@?$_Tree_temp_node@V?$allocator@U?$_Tree_node@U?$pair@$$CBKU_CONV_RESULT_ITEM@@@std@@PAX@std@@@std@@@std@@QAE@AAV?$allocator@U?$_Tree_node@U?$pair@$$CBKU_CONV_RESULT_ITEM@@@std@@PAX@std@@@1@PAU?$_Tree_node@U?$pair@$$CBKU_CONV_RESULT_ITEM@@@std@@PAX@1@$$QAU?$pair@$$CBKU_CONV_RESULT_ITEM@@@1@@Z
	DD	2 DUP(00H)
	DD	2 DUP(00H)
	DD	00H
	DD	01H
xdata$x	ENDS
;	COMDAT xdata$x
xdata$x	SEGMENT
__unwindtable$??0?$_Tree_temp_node_alloc@V?$allocator@U?$_Tree_node@U?$pair@$$CBKU_CONV_RESULT_ITEM@@@std@@PAX@std@@@std@@@std@@QAE@AAV?$allocator@U?$_Tree_node@U?$pair@$$CBKU_CONV_RESULT_ITEM@@@std@@PAX@std@@@1@@Z DD 0ffffffffH
	DD	FLAT:__unwindfunclet$??0?$_Tree_temp_node_alloc@V?$allocator@U?$_Tree_node@U?$pair@$$CBKU_CONV_RESULT_ITEM@@@std@@PAX@std@@@std@@@std@@QAE@AAV?$allocator@U?$_Tree_node@U?$pair@$$CBKU_CONV_RESULT_ITEM@@@std@@PAX@std@@@1@@Z$0
__ehfuncinfo$??0?$_Tree_temp_node_alloc@V?$allocator@U?$_Tree_node@U?$pair@$$CBKU_CONV_RESULT_ITEM@@@std@@PAX@std@@@std@@@std@@QAE@AAV?$allocator@U?$_Tree_node@U?$pair@$$CBKU_CONV_RESULT_ITEM@@@std@@PAX@std@@@1@@Z DD 019930522H
	DD	01H
	DD	FLAT:__unwindtable$??0?$_Tree_temp_node_alloc@V?$allocator@U?$_Tree_node@U?$pair@$$CBKU_CONV_RESULT_ITEM@@@std@@PAX@std@@@std@@@std@@QAE@AAV?$allocator@U?$_Tree_node@U?$pair@$$CBKU_CONV_RESULT_ITEM@@@std@@PAX@std@@@1@@Z
	DD	2 DUP(00H)
	DD	2 DUP(00H)
	DD	00H
	DD	01H
xdata$x	ENDS
;	COMDAT xdata$x
xdata$x	SEGMENT
__unwindtable$??$?0U?$pair@$$CBKH@std@@@?$_Tree_temp_node@V?$allocator@U?$_Tree_node@U?$pair@$$CBKH@std@@PAX@std@@@std@@@std@@QAE@AAV?$allocator@U?$_Tree_node@U?$pair@$$CBKH@std@@PAX@std@@@1@PAU?$_Tree_node@U?$pair@$$CBKH@std@@PAX@1@$$QAU?$pair@$$CBKH@1@@Z DD 0ffffffffH
	DD	FLAT:__unwindfunclet$??$?0U?$pair@$$CBKH@std@@@?$_Tree_temp_node@V?$allocator@U?$_Tree_node@U?$pair@$$CBKH@std@@PAX@std@@@std@@@std@@QAE@AAV?$allocator@U?$_Tree_node@U?$pair@$$CBKH@std@@PAX@std@@@1@PAU?$_Tree_node@U?$pair@$$CBKH@std@@PAX@1@$$QAU?$pair@$$CBKH@1@@Z$1
__ehfuncinfo$??$?0U?$pair@$$CBKH@std@@@?$_Tree_temp_node@V?$allocator@U?$_Tree_node@U?$pair@$$CBKH@std@@PAX@std@@@std@@@std@@QAE@AAV?$allocator@U?$_Tree_node@U?$pair@$$CBKH@std@@PAX@std@@@1@PAU?$_Tree_node@U?$pair@$$CBKH@std@@PAX@1@$$QAU?$pair@$$CBKH@1@@Z DD 019930522H
	DD	01H
	DD	FLAT:__unwindtable$??$?0U?$pair@$$CBKH@std@@@?$_Tree_temp_node@V?$allocator@U?$_Tree_node@U?$pair@$$CBKH@std@@PAX@std@@@std@@@std@@QAE@AAV?$allocator@U?$_Tree_node@U?$pair@$$CBKH@std@@PAX@std@@@1@PAU?$_Tree_node@U?$pair@$$CBKH@std@@PAX@1@$$QAU?$pair@$$CBKH@1@@Z
	DD	2 DUP(00H)
	DD	2 DUP(00H)
	DD	00H
	DD	01H
xdata$x	ENDS
;	COMDAT xdata$x
xdata$x	SEGMENT
__unwindtable$??0?$_Tree_temp_node_alloc@V?$allocator@U?$_Tree_node@U?$pair@$$CBKH@std@@PAX@std@@@std@@@std@@QAE@AAV?$allocator@U?$_Tree_node@U?$pair@$$CBKH@std@@PAX@std@@@1@@Z DD 0ffffffffH
	DD	FLAT:__unwindfunclet$??0?$_Tree_temp_node_alloc@V?$allocator@U?$_Tree_node@U?$pair@$$CBKH@std@@PAX@std@@@std@@@std@@QAE@AAV?$allocator@U?$_Tree_node@U?$pair@$$CBKH@std@@PAX@std@@@1@@Z$0
__ehfuncinfo$??0?$_Tree_temp_node_alloc@V?$allocator@U?$_Tree_node@U?$pair@$$CBKH@std@@PAX@std@@@std@@@std@@QAE@AAV?$allocator@U?$_Tree_node@U?$pair@$$CBKH@std@@PAX@std@@@1@@Z DD 019930522H
	DD	01H
	DD	FLAT:__unwindtable$??0?$_Tree_temp_node_alloc@V?$allocator@U?$_Tree_node@U?$pair@$$CBKH@std@@PAX@std@@@std@@@std@@QAE@AAV?$allocator@U?$_Tree_node@U?$pair@$$CBKH@std@@PAX@std@@@1@@Z
	DD	2 DUP(00H)
	DD	2 DUP(00H)
	DD	00H
	DD	01H
xdata$x	ENDS
;	COMDAT xdata$x
xdata$x	SEGMENT
__unwindtable$??$?0H@?$_Tree_temp_node@V?$allocator@U?$_Tree_node@HPAX@std@@@std@@@std@@QAE@AAV?$allocator@U?$_Tree_node@HPAX@std@@@1@PAU?$_Tree_node@HPAX@1@$$QAH@Z DD 0ffffffffH
	DD	FLAT:__unwindfunclet$??$?0H@?$_Tree_temp_node@V?$allocator@U?$_Tree_node@HPAX@std@@@std@@@std@@QAE@AAV?$allocator@U?$_Tree_node@HPAX@std@@@1@PAU?$_Tree_node@HPAX@1@$$QAH@Z$1
__ehfuncinfo$??$?0H@?$_Tree_temp_node@V?$allocator@U?$_Tree_node@HPAX@std@@@std@@@std@@QAE@AAV?$allocator@U?$_Tree_node@HPAX@std@@@1@PAU?$_Tree_node@HPAX@1@$$QAH@Z DD 019930522H
	DD	01H
	DD	FLAT:__unwindtable$??$?0H@?$_Tree_temp_node@V?$allocator@U?$_Tree_node@HPAX@std@@@std@@@std@@QAE@AAV?$allocator@U?$_Tree_node@HPAX@std@@@1@PAU?$_Tree_node@HPAX@1@$$QAH@Z
	DD	2 DUP(00H)
	DD	2 DUP(00H)
	DD	00H
	DD	01H
xdata$x	ENDS
;	COMDAT xdata$x
xdata$x	SEGMENT
__unwindtable$??0?$_Tree_temp_node_alloc@V?$allocator@U?$_Tree_node@HPAX@std@@@std@@@std@@QAE@AAV?$allocator@U?$_Tree_node@HPAX@std@@@1@@Z DD 0ffffffffH
	DD	FLAT:__unwindfunclet$??0?$_Tree_temp_node_alloc@V?$allocator@U?$_Tree_node@HPAX@std@@@std@@@std@@QAE@AAV?$allocator@U?$_Tree_node@HPAX@std@@@1@@Z$0
__ehfuncinfo$??0?$_Tree_temp_node_alloc@V?$allocator@U?$_Tree_node@HPAX@std@@@std@@@std@@QAE@AAV?$allocator@U?$_Tree_node@HPAX@std@@@1@@Z DD 019930522H
	DD	01H
	DD	FLAT:__unwindtable$??0?$_Tree_temp_node_alloc@V?$allocator@U?$_Tree_node@HPAX@std@@@std@@@std@@QAE@AAV?$allocator@U?$_Tree_node@HPAX@std@@@1@@Z
	DD	2 DUP(00H)
	DD	2 DUP(00H)
	DD	00H
	DD	01H
xdata$x	ENDS
;	COMDAT xdata$x
xdata$x	SEGMENT
__unwindtable$??$?0U?$pair@$$CBKV?$basic_string@DU?$char_traits@D@std@@V?$allocator@D@2@@std@@@std@@@?$_Tree_temp_node@V?$allocator@U?$_Tree_node@U?$pair@$$CBKV?$basic_string@DU?$char_traits@D@std@@V?$allocator@D@2@@std@@@std@@PAX@std@@@std@@@std@@QAE@AAV?$allocator@U?$_Tree_node@U?$pair@$$CBKV?$basic_string@DU?$char_traits@D@std@@V?$allocator@D@2@@std@@@std@@PAX@std@@@1@PAU?$_Tree_node@U?$pair@$$CBKV?$basic_string@DU?$char_traits@D@std@@V?$allocator@D@2@@std@@@std@@PAX@1@$$QAU?$pair@$$CBKV?$basic_string@DU?$char_traits@D@std@@V?$allocator@D@2@@std@@@1@@Z DD 0ffffffffH
	DD	FLAT:__unwindfunclet$??$?0U?$pair@$$CBKV?$basic_string@DU?$char_traits@D@std@@V?$allocator@D@2@@std@@@std@@@?$_Tree_temp_node@V?$allocator@U?$_Tree_node@U?$pair@$$CBKV?$basic_string@DU?$char_traits@D@std@@V?$allocator@D@2@@std@@@std@@PAX@std@@@std@@@std@@QAE@AAV?$allocator@U?$_Tree_node@U?$pair@$$CBKV?$basic_string@DU?$char_traits@D@std@@V?$allocator@D@2@@std@@@std@@PAX@std@@@1@PAU?$_Tree_node@U?$pair@$$CBKV?$basic_string@DU?$char_traits@D@std@@V?$allocator@D@2@@std@@@std@@PAX@1@$$QAU?$pair@$$CBKV?$basic_string@DU?$char_traits@D@std@@V?$allocator@D@2@@std@@@1@@Z$1
__ehfuncinfo$??$?0U?$pair@$$CBKV?$basic_string@DU?$char_traits@D@std@@V?$allocator@D@2@@std@@@std@@@?$_Tree_temp_node@V?$allocator@U?$_Tree_node@U?$pair@$$CBKV?$basic_string@DU?$char_traits@D@std@@V?$allocator@D@2@@std@@@std@@PAX@std@@@std@@@std@@QAE@AAV?$allocator@U?$_Tree_node@U?$pair@$$CBKV?$basic_string@DU?$char_traits@D@std@@V?$allocator@D@2@@std@@@std@@PAX@std@@@1@PAU?$_Tree_node@U?$pair@$$CBKV?$basic_string@DU?$char_traits@D@std@@V?$allocator@D@2@@std@@@std@@PAX@1@$$QAU?$pair@$$CBKV?$basic_string@DU?$char_traits@D@std@@V?$allocator@D@2@@std@@@1@@Z DD 019930522H
	DD	01H
	DD	FLAT:__unwindtable$??$?0U?$pair@$$CBKV?$basic_string@DU?$char_traits@D@std@@V?$allocator@D@2@@std@@@std@@@?$_Tree_temp_node@V?$allocator@U?$_Tree_node@U?$pair@$$CBKV?$basic_string@DU?$char_traits@D@std@@V?$allocator@D@2@@std@@@std@@PAX@std@@@std@@@std@@QAE@AAV?$allocator@U?$_Tree_node@U?$pair@$$CBKV?$basic_string@DU?$char_traits@D@std@@V?$allocator@D@2@@std@@@std@@PAX@std@@@1@PAU?$_Tree_node@U?$pair@$$CBKV?$basic_string@DU?$char_traits@D@std@@V?$allocator@D@2@@std@@@std@@PAX@1@$$QAU?$pair@$$CBKV?$basic_string@DU?$char_traits@D@std@@V?$allocator@D@2@@std@@@1@@Z
	DD	2 DUP(00H)
	DD	2 DUP(00H)
	DD	00H
	DD	01H
xdata$x	ENDS
;	COMDAT xdata$x
xdata$x	SEGMENT
__unwindtable$??0?$_Tree_temp_node_alloc@V?$allocator@U?$_Tree_node@U?$pair@$$CBKV?$basic_string@DU?$char_traits@D@std@@V?$allocator@D@2@@std@@@std@@PAX@std@@@std@@@std@@QAE@AAV?$allocator@U?$_Tree_node@U?$pair@$$CBKV?$basic_string@DU?$char_traits@D@std@@V?$allocator@D@2@@std@@@std@@PAX@std@@@1@@Z DD 0ffffffffH
	DD	FLAT:__unwindfunclet$??0?$_Tree_temp_node_alloc@V?$allocator@U?$_Tree_node@U?$pair@$$CBKV?$basic_string@DU?$char_traits@D@std@@V?$allocator@D@2@@std@@@std@@PAX@std@@@std@@@std@@QAE@AAV?$allocator@U?$_Tree_node@U?$pair@$$CBKV?$basic_string@DU?$char_traits@D@std@@V?$allocator@D@2@@std@@@std@@PAX@std@@@1@@Z$0
__ehfuncinfo$??0?$_Tree_temp_node_alloc@V?$allocator@U?$_Tree_node@U?$pair@$$CBKV?$basic_string@DU?$char_traits@D@std@@V?$allocator@D@2@@std@@@std@@PAX@std@@@std@@@std@@QAE@AAV?$allocator@U?$_Tree_node@U?$pair@$$CBKV?$basic_string@DU?$char_traits@D@std@@V?$allocator@D@2@@std@@@std@@PAX@std@@@1@@Z DD 019930522H
	DD	01H
	DD	FLAT:__unwindtable$??0?$_Tree_temp_node_alloc@V?$allocator@U?$_Tree_node@U?$pair@$$CBKV?$basic_string@DU?$char_traits@D@std@@V?$allocator@D@2@@std@@@std@@PAX@std@@@std@@@std@@QAE@AAV?$allocator@U?$_Tree_node@U?$pair@$$CBKV?$basic_string@DU?$char_traits@D@std@@V?$allocator@D@2@@std@@@std@@PAX@std@@@1@@Z
	DD	2 DUP(00H)
	DD	2 DUP(00H)
	DD	00H
	DD	01H
xdata$x	ENDS
;	COMDAT xdata$x
xdata$x	SEGMENT
__unwindtable$??$_Emplace@U?$pair@$$CBKK@std@@@?$_Tree@V?$_Tmap_traits@KKU?$less@K@std@@V?$allocator@U?$pair@$$CBKK@std@@@2@$0A@@std@@@std@@IAE?AU?$pair@PAU?$_Tree_node@U?$pair@$$CBKK@std@@PAX@std@@_N@1@$$QAU?$pair@$$CBKK@1@@Z DD 0ffffffffH
	DD	FLAT:__unwindfunclet$??$_Emplace@U?$pair@$$CBKK@std@@@?$_Tree@V?$_Tmap_traits@KKU?$less@K@std@@V?$allocator@U?$pair@$$CBKK@std@@@2@$0A@@std@@@std@@IAE?AU?$pair@PAU?$_Tree_node@U?$pair@$$CBKK@std@@PAX@std@@_N@1@$$QAU?$pair@$$CBKK@1@@Z$2
__ehfuncinfo$??$_Emplace@U?$pair@$$CBKK@std@@@?$_Tree@V?$_Tmap_traits@KKU?$less@K@std@@V?$allocator@U?$pair@$$CBKK@std@@@2@$0A@@std@@@std@@IAE?AU?$pair@PAU?$_Tree_node@U?$pair@$$CBKK@std@@PAX@std@@_N@1@$$QAU?$pair@$$CBKK@1@@Z DD 019930522H
	DD	01H
	DD	FLAT:__unwindtable$??$_Emplace@U?$pair@$$CBKK@std@@@?$_Tree@V?$_Tmap_traits@KKU?$less@K@std@@V?$allocator@U?$pair@$$CBKK@std@@@2@$0A@@std@@@std@@IAE?AU?$pair@PAU?$_Tree_node@U?$pair@$$CBKK@std@@PAX@std@@_N@1@$$QAU?$pair@$$CBKK@1@@Z
	DD	2 DUP(00H)
	DD	2 DUP(00H)
	DD	00H
	DD	01H
xdata$x	ENDS
;	COMDAT xdata$x
xdata$x	SEGMENT
__unwindtable$??$_Emplace@U?$pair@$$CBKU_CONV_RESULT_ITEM@@@std@@@?$_Tree@V?$_Tmap_traits@KU_CONV_RESULT_ITEM@@U?$less@K@std@@V?$allocator@U?$pair@$$CBKU_CONV_RESULT_ITEM@@@std@@@3@$0A@@std@@@std@@IAE?AU?$pair@PAU?$_Tree_node@U?$pair@$$CBKU_CONV_RESULT_ITEM@@@std@@PAX@std@@_N@1@$$QAU?$pair@$$CBKU_CONV_RESULT_ITEM@@@1@@Z DD 0ffffffffH
	DD	FLAT:__unwindfunclet$??$_Emplace@U?$pair@$$CBKU_CONV_RESULT_ITEM@@@std@@@?$_Tree@V?$_Tmap_traits@KU_CONV_RESULT_ITEM@@U?$less@K@std@@V?$allocator@U?$pair@$$CBKU_CONV_RESULT_ITEM@@@std@@@3@$0A@@std@@@std@@IAE?AU?$pair@PAU?$_Tree_node@U?$pair@$$CBKU_CONV_RESULT_ITEM@@@std@@PAX@std@@_N@1@$$QAU?$pair@$$CBKU_CONV_RESULT_ITEM@@@1@@Z$2
__ehfuncinfo$??$_Emplace@U?$pair@$$CBKU_CONV_RESULT_ITEM@@@std@@@?$_Tree@V?$_Tmap_traits@KU_CONV_RESULT_ITEM@@U?$less@K@std@@V?$allocator@U?$pair@$$CBKU_CONV_RESULT_ITEM@@@std@@@3@$0A@@std@@@std@@IAE?AU?$pair@PAU?$_Tree_node@U?$pair@$$CBKU_CONV_RESULT_ITEM@@@std@@PAX@std@@_N@1@$$QAU?$pair@$$CBKU_CONV_RESULT_ITEM@@@1@@Z DD 019930522H
	DD	01H
	DD	FLAT:__unwindtable$??$_Emplace@U?$pair@$$CBKU_CONV_RESULT_ITEM@@@std@@@?$_Tree@V?$_Tmap_traits@KU_CONV_RESULT_ITEM@@U?$less@K@std@@V?$allocator@U?$pair@$$CBKU_CONV_RESULT_ITEM@@@std@@@3@$0A@@std@@@std@@IAE?AU?$pair@PAU?$_Tree_node@U?$pair@$$CBKU_CONV_RESULT_ITEM@@@std@@PAX@std@@_N@1@$$QAU?$pair@$$CBKU_CONV_RESULT_ITEM@@@1@@Z
	DD	2 DUP(00H)
	DD	2 DUP(00H)
	DD	00H
	DD	01H
xdata$x	ENDS
;	COMDAT xdata$x
xdata$x	SEGMENT
__unwindtable$??$_Emplace@U?$pair@$$CBKH@std@@@?$_Tree@V?$_Tmap_traits@KHU?$less@K@std@@V?$allocator@U?$pair@$$CBKH@std@@@2@$0A@@std@@@std@@IAE?AU?$pair@PAU?$_Tree_node@U?$pair@$$CBKH@std@@PAX@std@@_N@1@$$QAU?$pair@$$CBKH@1@@Z DD 0ffffffffH
	DD	FLAT:__unwindfunclet$??$_Emplace@U?$pair@$$CBKH@std@@@?$_Tree@V?$_Tmap_traits@KHU?$less@K@std@@V?$allocator@U?$pair@$$CBKH@std@@@2@$0A@@std@@@std@@IAE?AU?$pair@PAU?$_Tree_node@U?$pair@$$CBKH@std@@PAX@std@@_N@1@$$QAU?$pair@$$CBKH@1@@Z$2
__ehfuncinfo$??$_Emplace@U?$pair@$$CBKH@std@@@?$_Tree@V?$_Tmap_traits@KHU?$less@K@std@@V?$allocator@U?$pair@$$CBKH@std@@@2@$0A@@std@@@std@@IAE?AU?$pair@PAU?$_Tree_node@U?$pair@$$CBKH@std@@PAX@std@@_N@1@$$QAU?$pair@$$CBKH@1@@Z DD 019930522H
	DD	01H
	DD	FLAT:__unwindtable$??$_Emplace@U?$pair@$$CBKH@std@@@?$_Tree@V?$_Tmap_traits@KHU?$less@K@std@@V?$allocator@U?$pair@$$CBKH@std@@@2@$0A@@std@@@std@@IAE?AU?$pair@PAU?$_Tree_node@U?$pair@$$CBKH@std@@PAX@std@@_N@1@$$QAU?$pair@$$CBKH@1@@Z
	DD	2 DUP(00H)
	DD	2 DUP(00H)
	DD	00H
	DD	01H
xdata$x	ENDS
;	COMDAT xdata$x
xdata$x	SEGMENT
__unwindtable$??$_Emplace@H@?$_Tree@V?$_Tset_traits@HU?$less@H@std@@V?$allocator@H@2@$0A@@std@@@std@@IAE?AU?$pair@PAU?$_Tree_node@HPAX@std@@_N@1@$$QAH@Z DD 0ffffffffH
	DD	FLAT:__unwindfunclet$??$_Emplace@H@?$_Tree@V?$_Tset_traits@HU?$less@H@std@@V?$allocator@H@2@$0A@@std@@@std@@IAE?AU?$pair@PAU?$_Tree_node@HPAX@std@@_N@1@$$QAH@Z$2
__ehfuncinfo$??$_Emplace@H@?$_Tree@V?$_Tset_traits@HU?$less@H@std@@V?$allocator@H@2@$0A@@std@@@std@@IAE?AU?$pair@PAU?$_Tree_node@HPAX@std@@_N@1@$$QAH@Z DD 019930522H
	DD	01H
	DD	FLAT:__unwindtable$??$_Emplace@H@?$_Tree@V?$_Tset_traits@HU?$less@H@std@@V?$allocator@H@2@$0A@@std@@@std@@IAE?AU?$pair@PAU?$_Tree_node@HPAX@std@@_N@1@$$QAH@Z
	DD	2 DUP(00H)
	DD	2 DUP(00H)
	DD	00H
	DD	01H
xdata$x	ENDS
;	COMDAT xdata$x
xdata$x	SEGMENT
__unwindtable$??$_Emplace@U?$pair@$$CBKV?$basic_string@DU?$char_traits@D@std@@V?$allocator@D@2@@std@@@std@@@?$_Tree@V?$_Tmap_traits@KV?$basic_string@DU?$char_traits@D@std@@V?$allocator@D@2@@std@@U?$less@K@2@V?$allocator@U?$pair@$$CBKV?$basic_string@DU?$char_traits@D@std@@V?$allocator@D@2@@std@@@std@@@2@$0A@@std@@@std@@IAE?AU?$pair@PAU?$_Tree_node@U?$pair@$$CBKV?$basic_string@DU?$char_traits@D@std@@V?$allocator@D@2@@std@@@std@@PAX@std@@_N@1@$$QAU?$pair@$$CBKV?$basic_string@DU?$char_traits@D@std@@V?$allocator@D@2@@std@@@1@@Z DD 0ffffffffH
	DD	FLAT:__unwindfunclet$??$_Emplace@U?$pair@$$CBKV?$basic_string@DU?$char_traits@D@std@@V?$allocator@D@2@@std@@@std@@@?$_Tree@V?$_Tmap_traits@KV?$basic_string@DU?$char_traits@D@std@@V?$allocator@D@2@@std@@U?$less@K@2@V?$allocator@U?$pair@$$CBKV?$basic_string@DU?$char_traits@D@std@@V?$allocator@D@2@@std@@@std@@@2@$0A@@std@@@std@@IAE?AU?$pair@PAU?$_Tree_node@U?$pair@$$CBKV?$basic_string@DU?$char_traits@D@std@@V?$allocator@D@2@@std@@@std@@PAX@std@@_N@1@$$QAU?$pair@$$CBKV?$basic_string@DU?$char_traits@D@std@@V?$allocator@D@2@@std@@@1@@Z$2
__ehfuncinfo$??$_Emplace@U?$pair@$$CBKV?$basic_string@DU?$char_traits@D@std@@V?$allocator@D@2@@std@@@std@@@?$_Tree@V?$_Tmap_traits@KV?$basic_string@DU?$char_traits@D@std@@V?$allocator@D@2@@std@@U?$less@K@2@V?$allocator@U?$pair@$$CBKV?$basic_string@DU?$char_traits@D@std@@V?$allocator@D@2@@std@@@std@@@2@$0A@@std@@@std@@IAE?AU?$pair@PAU?$_Tree_node@U?$pair@$$CBKV?$basic_string@DU?$char_traits@D@std@@V?$allocator@D@2@@std@@@std@@PAX@std@@_N@1@$$QAU?$pair@$$CBKV?$basic_string@DU?$char_traits@D@std@@V?$allocator@D@2@@std@@@1@@Z DD 019930522H
	DD	01H
	DD	FLAT:__unwindtable$??$_Emplace@U?$pair@$$CBKV?$basic_string@DU?$char_traits@D@std@@V?$allocator@D@2@@std@@@std@@@?$_Tree@V?$_Tmap_traits@KV?$basic_string@DU?$char_traits@D@std@@V?$allocator@D@2@@std@@U?$less@K@2@V?$allocator@U?$pair@$$CBKV?$basic_string@DU?$char_traits@D@std@@V?$allocator@D@2@@std@@@std@@@2@$0A@@std@@@std@@IAE?AU?$pair@PAU?$_Tree_node@U?$pair@$$CBKV?$basic_string@DU?$char_traits@D@std@@V?$allocator@D@2@@std@@@std@@PAX@std@@_N@1@$$QAU?$pair@$$CBKV?$basic_string@DU?$char_traits@D@std@@V?$allocator@D@2@@std@@@1@@Z
	DD	2 DUP(00H)
	DD	2 DUP(00H)
	DD	00H
	DD	01H
xdata$x	ENDS
;	COMDAT xdata$x
xdata$x	SEGMENT
__unwindtable$??$insert@$0A@$0A@@?$_Tree@V?$_Tmap_traits@KKU?$less@K@std@@V?$allocator@U?$pair@$$CBKK@std@@@2@$0A@@std@@@std@@QAE?AU?$pair@V?$_Tree_iterator@V?$_Tree_val@U?$_Tree_simple_types@U?$pair@$$CBKK@std@@@std@@@std@@@std@@_N@1@$$QAU?$pair@$$CBKK@1@@Z DD 0ffffffffH
	DD	FLAT:__unwindfunclet$??$insert@$0A@$0A@@?$_Tree@V?$_Tmap_traits@KKU?$less@K@std@@V?$allocator@U?$pair@$$CBKK@std@@@2@$0A@@std@@@std@@QAE?AU?$pair@V?$_Tree_iterator@V?$_Tree_val@U?$_Tree_simple_types@U?$pair@$$CBKK@std@@@std@@@std@@@std@@_N@1@$$QAU?$pair@$$CBKK@1@@Z$2
__ehfuncinfo$??$insert@$0A@$0A@@?$_Tree@V?$_Tmap_traits@KKU?$less@K@std@@V?$allocator@U?$pair@$$CBKK@std@@@2@$0A@@std@@@std@@QAE?AU?$pair@V?$_Tree_iterator@V?$_Tree_val@U?$_Tree_simple_types@U?$pair@$$CBKK@std@@@std@@@std@@@std@@_N@1@$$QAU?$pair@$$CBKK@1@@Z DD 019930522H
	DD	01H
	DD	FLAT:__unwindtable$??$insert@$0A@$0A@@?$_Tree@V?$_Tmap_traits@KKU?$less@K@std@@V?$allocator@U?$pair@$$CBKK@std@@@2@$0A@@std@@@std@@QAE?AU?$pair@V?$_Tree_iterator@V?$_Tree_val@U?$_Tree_simple_types@U?$pair@$$CBKK@std@@@std@@@std@@@std@@_N@1@$$QAU?$pair@$$CBKK@1@@Z
	DD	2 DUP(00H)
	DD	2 DUP(00H)
	DD	00H
	DD	01H
xdata$x	ENDS
;	COMDAT xdata$x
xdata$x	SEGMENT
__unwindtable$??$insert@$0A@$0A@@?$_Tree@V?$_Tmap_traits@KU_CONV_RESULT_ITEM@@U?$less@K@std@@V?$allocator@U?$pair@$$CBKU_CONV_RESULT_ITEM@@@std@@@3@$0A@@std@@@std@@QAE?AU?$pair@V?$_Tree_iterator@V?$_Tree_val@U?$_Tree_simple_types@U?$pair@$$CBKU_CONV_RESULT_ITEM@@@std@@@std@@@std@@@std@@_N@1@$$QAU?$pair@$$CBKU_CONV_RESULT_ITEM@@@1@@Z DD 0ffffffffH
	DD	FLAT:__unwindfunclet$??$insert@$0A@$0A@@?$_Tree@V?$_Tmap_traits@KU_CONV_RESULT_ITEM@@U?$less@K@std@@V?$allocator@U?$pair@$$CBKU_CONV_RESULT_ITEM@@@std@@@3@$0A@@std@@@std@@QAE?AU?$pair@V?$_Tree_iterator@V?$_Tree_val@U?$_Tree_simple_types@U?$pair@$$CBKU_CONV_RESULT_ITEM@@@std@@@std@@@std@@@std@@_N@1@$$QAU?$pair@$$CBKU_CONV_RESULT_ITEM@@@1@@Z$2
__ehfuncinfo$??$insert@$0A@$0A@@?$_Tree@V?$_Tmap_traits@KU_CONV_RESULT_ITEM@@U?$less@K@std@@V?$allocator@U?$pair@$$CBKU_CONV_RESULT_ITEM@@@std@@@3@$0A@@std@@@std@@QAE?AU?$pair@V?$_Tree_iterator@V?$_Tree_val@U?$_Tree_simple_types@U?$pair@$$CBKU_CONV_RESULT_ITEM@@@std@@@std@@@std@@@std@@_N@1@$$QAU?$pair@$$CBKU_CONV_RESULT_ITEM@@@1@@Z DD 019930522H
	DD	01H
	DD	FLAT:__unwindtable$??$insert@$0A@$0A@@?$_Tree@V?$_Tmap_traits@KU_CONV_RESULT_ITEM@@U?$less@K@std@@V?$allocator@U?$pair@$$CBKU_CONV_RESULT_ITEM@@@std@@@3@$0A@@std@@@std@@QAE?AU?$pair@V?$_Tree_iterator@V?$_Tree_val@U?$_Tree_simple_types@U?$pair@$$CBKU_CONV_RESULT_ITEM@@@std@@@std@@@std@@@std@@_N@1@$$QAU?$pair@$$CBKU_CONV_RESULT_ITEM@@@1@@Z
	DD	2 DUP(00H)
	DD	2 DUP(00H)
	DD	00H
	DD	01H
xdata$x	ENDS
;	COMDAT xdata$x
xdata$x	SEGMENT
__unwindtable$??$insert@$0A@$0A@@?$_Tree@V?$_Tmap_traits@KHU?$less@K@std@@V?$allocator@U?$pair@$$CBKH@std@@@2@$0A@@std@@@std@@QAE?AU?$pair@V?$_Tree_iterator@V?$_Tree_val@U?$_Tree_simple_types@U?$pair@$$CBKH@std@@@std@@@std@@@std@@_N@1@$$QAU?$pair@$$CBKH@1@@Z DD 0ffffffffH
	DD	FLAT:__unwindfunclet$??$insert@$0A@$0A@@?$_Tree@V?$_Tmap_traits@KHU?$less@K@std@@V?$allocator@U?$pair@$$CBKH@std@@@2@$0A@@std@@@std@@QAE?AU?$pair@V?$_Tree_iterator@V?$_Tree_val@U?$_Tree_simple_types@U?$pair@$$CBKH@std@@@std@@@std@@@std@@_N@1@$$QAU?$pair@$$CBKH@1@@Z$2
__ehfuncinfo$??$insert@$0A@$0A@@?$_Tree@V?$_Tmap_traits@KHU?$less@K@std@@V?$allocator@U?$pair@$$CBKH@std@@@2@$0A@@std@@@std@@QAE?AU?$pair@V?$_Tree_iterator@V?$_Tree_val@U?$_Tree_simple_types@U?$pair@$$CBKH@std@@@std@@@std@@@std@@_N@1@$$QAU?$pair@$$CBKH@1@@Z DD 019930522H
	DD	01H
	DD	FLAT:__unwindtable$??$insert@$0A@$0A@@?$_Tree@V?$_Tmap_traits@KHU?$less@K@std@@V?$allocator@U?$pair@$$CBKH@std@@@2@$0A@@std@@@std@@QAE?AU?$pair@V?$_Tree_iterator@V?$_Tree_val@U?$_Tree_simple_types@U?$pair@$$CBKH@std@@@std@@@std@@@std@@_N@1@$$QAU?$pair@$$CBKH@1@@Z
	DD	2 DUP(00H)
	DD	2 DUP(00H)
	DD	00H
	DD	01H
xdata$x	ENDS
;	COMDAT xdata$x
xdata$x	SEGMENT
__unwindtable$??$insert@$0A@$0A@@?$_Tree@V?$_Tset_traits@HU?$less@H@std@@V?$allocator@H@2@$0A@@std@@@std@@QAE?AU?$pair@V?$_Tree_const_iterator@V?$_Tree_val@U?$_Tree_simple_types@H@std@@@std@@@std@@_N@1@$$QAH@Z DD 0ffffffffH
	DD	FLAT:__unwindfunclet$??$insert@$0A@$0A@@?$_Tree@V?$_Tset_traits@HU?$less@H@std@@V?$allocator@H@2@$0A@@std@@@std@@QAE?AU?$pair@V?$_Tree_const_iterator@V?$_Tree_val@U?$_Tree_simple_types@H@std@@@std@@@std@@_N@1@$$QAH@Z$2
__ehfuncinfo$??$insert@$0A@$0A@@?$_Tree@V?$_Tset_traits@HU?$less@H@std@@V?$allocator@H@2@$0A@@std@@@std@@QAE?AU?$pair@V?$_Tree_const_iterator@V?$_Tree_val@U?$_Tree_simple_types@H@std@@@std@@@std@@_N@1@$$QAH@Z DD 019930522H
	DD	01H
	DD	FLAT:__unwindtable$??$insert@$0A@$0A@@?$_Tree@V?$_Tset_traits@HU?$less@H@std@@V?$allocator@H@2@$0A@@std@@@std@@QAE?AU?$pair@V?$_Tree_const_iterator@V?$_Tree_val@U?$_Tree_simple_types@H@std@@@std@@@std@@_N@1@$$QAH@Z
	DD	2 DUP(00H)
	DD	2 DUP(00H)
	DD	00H
	DD	01H
xdata$x	ENDS
;	COMDAT xdata$x
xdata$x	SEGMENT
__unwindtable$??$insert@$0A@$0A@@?$_Tree@V?$_Tmap_traits@KV?$basic_string@DU?$char_traits@D@std@@V?$allocator@D@2@@std@@U?$less@K@2@V?$allocator@U?$pair@$$CBKV?$basic_string@DU?$char_traits@D@std@@V?$allocator@D@2@@std@@@std@@@2@$0A@@std@@@std@@QAE?AU?$pair@V?$_Tree_iterator@V?$_Tree_val@U?$_Tree_simple_types@U?$pair@$$CBKV?$basic_string@DU?$char_traits@D@std@@V?$allocator@D@2@@std@@@std@@@std@@@std@@@std@@_N@1@$$QAU?$pair@$$CBKV?$basic_string@DU?$char_traits@D@std@@V?$allocator@D@2@@std@@@1@@Z DD 0ffffffffH
	DD	FLAT:__unwindfunclet$??$insert@$0A@$0A@@?$_Tree@V?$_Tmap_traits@KV?$basic_string@DU?$char_traits@D@std@@V?$allocator@D@2@@std@@U?$less@K@2@V?$allocator@U?$pair@$$CBKV?$basic_string@DU?$char_traits@D@std@@V?$allocator@D@2@@std@@@std@@@2@$0A@@std@@@std@@QAE?AU?$pair@V?$_Tree_iterator@V?$_Tree_val@U?$_Tree_simple_types@U?$pair@$$CBKV?$basic_string@DU?$char_traits@D@std@@V?$allocator@D@2@@std@@@std@@@std@@@std@@@std@@_N@1@$$QAU?$pair@$$CBKV?$basic_string@DU?$char_traits@D@std@@V?$allocator@D@2@@std@@@1@@Z$2
__ehfuncinfo$??$insert@$0A@$0A@@?$_Tree@V?$_Tmap_traits@KV?$basic_string@DU?$char_traits@D@std@@V?$allocator@D@2@@std@@U?$less@K@2@V?$allocator@U?$pair@$$CBKV?$basic_string@DU?$char_traits@D@std@@V?$allocator@D@2@@std@@@std@@@2@$0A@@std@@@std@@QAE?AU?$pair@V?$_Tree_iterator@V?$_Tree_val@U?$_Tree_simple_types@U?$pair@$$CBKV?$basic_string@DU?$char_traits@D@std@@V?$allocator@D@2@@std@@@std@@@std@@@std@@@std@@_N@1@$$QAU?$pair@$$CBKV?$basic_string@DU?$char_traits@D@std@@V?$allocator@D@2@@std@@@1@@Z DD 019930522H
	DD	01H
	DD	FLAT:__unwindtable$??$insert@$0A@$0A@@?$_Tree@V?$_Tmap_traits@KV?$basic_string@DU?$char_traits@D@std@@V?$allocator@D@2@@std@@U?$less@K@2@V?$allocator@U?$pair@$$CBKV?$basic_string@DU?$char_traits@D@std@@V?$allocator@D@2@@std@@@std@@@2@$0A@@std@@@std@@QAE?AU?$pair@V?$_Tree_iterator@V?$_Tree_val@U?$_Tree_simple_types@U?$pair@$$CBKV?$basic_string@DU?$char_traits@D@std@@V?$allocator@D@2@@std@@@std@@@std@@@std@@@std@@_N@1@$$QAU?$pair@$$CBKV?$basic_string@DU?$char_traits@D@std@@V?$allocator@D@2@@std@@@1@@Z
	DD	2 DUP(00H)
	DD	2 DUP(00H)
	DD	00H
	DD	01H
xdata$x	ENDS
;	COMDAT xdata$x
xdata$x	SEGMENT
__unwindtable$??0?$MemPooler@UtagDB_OVERLAPPED_PLUS@@@@QAE@H@Z DD 0ffffffffH
	DD	FLAT:__unwindfunclet$??0?$MemPooler@UtagDB_OVERLAPPED_PLUS@@@@QAE@H@Z$0
__ehfuncinfo$??0?$MemPooler@UtagDB_OVERLAPPED_PLUS@@@@QAE@H@Z DD 019930522H
	DD	01H
	DD	FLAT:__unwindtable$??0?$MemPooler@UtagDB_OVERLAPPED_PLUS@@@@QAE@H@Z
	DD	2 DUP(00H)
	DD	2 DUP(00H)
	DD	00H
	DD	01H
xdata$x	ENDS
;	COMDAT xdata$x
xdata$x	SEGMENT
__unwindtable$??$?0ABQAX@?$_List_node_emplace_op2@V?$allocator@U?$_List_node@PAXPAX@std@@@std@@@std@@QAE@AAV?$allocator@U?$_List_node@PAXPAX@std@@@1@ABQAX@Z DD 0ffffffffH
	DD	FLAT:__unwindfunclet$??$?0ABQAX@?$_List_node_emplace_op2@V?$allocator@U?$_List_node@PAXPAX@std@@@std@@@std@@QAE@AAV?$allocator@U?$_List_node@PAXPAX@std@@@1@ABQAX@Z$0
__ehfuncinfo$??$?0ABQAX@?$_List_node_emplace_op2@V?$allocator@U?$_List_node@PAXPAX@std@@@std@@@std@@QAE@AAV?$allocator@U?$_List_node@PAXPAX@std@@@1@ABQAX@Z DD 019930522H
	DD	01H
	DD	FLAT:__unwindtable$??$?0ABQAX@?$_List_node_emplace_op2@V?$allocator@U?$_List_node@PAXPAX@std@@@std@@@std@@QAE@AAV?$allocator@U?$_List_node@PAXPAX@std@@@1@ABQAX@Z
	DD	2 DUP(00H)
	DD	2 DUP(00H)
	DD	00H
	DD	01H
xdata$x	ENDS
;	COMDAT xdata$x
xdata$x	SEGMENT
__unwindtable$??$_Emplace@ABQAX@?$list@PAXV?$allocator@PAX@std@@@std@@QAEPAU?$_List_node@PAXPAX@1@QAU21@ABQAX@Z DD 0ffffffffH
	DD	FLAT:__unwindfunclet$??$_Emplace@ABQAX@?$list@PAXV?$allocator@PAX@std@@@std@@QAEPAU?$_List_node@PAXPAX@1@QAU21@ABQAX@Z$1
__ehfuncinfo$??$_Emplace@ABQAX@?$list@PAXV?$allocator@PAX@std@@@std@@QAEPAU?$_List_node@PAXPAX@1@QAU21@ABQAX@Z DD 019930522H
	DD	01H
	DD	FLAT:__unwindtable$??$_Emplace@ABQAX@?$list@PAXV?$allocator@PAX@std@@@std@@QAEPAU?$_List_node@PAXPAX@1@QAU21@ABQAX@Z
	DD	2 DUP(00H)
	DD	2 DUP(00H)
	DD	00H
	DD	01H
xdata$x	ENDS
;	COMDAT xdata$x
xdata$x	SEGMENT
__unwindtable$?LoginProtectCert@CDbManager@@AAEXPAVCQuery@@PAUtagDB_OVERLAPPED_PLUS@@@Z DD 0ffffffffH
	DD	FLAT:__unwindfunclet$?LoginProtectCert@CDbManager@@AAEXPAVCQuery@@PAUtagDB_OVERLAPPED_PLUS@@@Z$0
__ehfuncinfo$?LoginProtectCert@CDbManager@@AAEXPAVCQuery@@PAUtagDB_OVERLAPPED_PLUS@@@Z DD 019930522H
	DD	01H
	DD	FLAT:__unwindtable$?LoginProtectCert@CDbManager@@AAEXPAVCQuery@@PAUtagDB_OVERLAPPED_PLUS@@@Z
	DD	2 DUP(00H)
	DD	2 DUP(00H)
	DD	00H
	DD	01H
xdata$x	ENDS
;	COMDAT xdata$x
xdata$x	SEGMENT
__unwindtable$?ContinueGC@CDbManager@@AAEXPAVCQuery@@PAUtagDB_OVERLAPPED_PLUS@@@Z DD 0ffffffffH
	DD	FLAT:__unwindfunclet$?ContinueGC@CDbManager@@AAEXPAVCQuery@@PAUtagDB_OVERLAPPED_PLUS@@@Z$0
__ehfuncinfo$?ContinueGC@CDbManager@@AAEXPAVCQuery@@PAUtagDB_OVERLAPPED_PLUS@@@Z DD 019930522H
	DD	01H
	DD	FLAT:__unwindtable$?ContinueGC@CDbManager@@AAEXPAVCQuery@@PAUtagDB_OVERLAPPED_PLUS@@@Z
	DD	2 DUP(00H)
	DD	2 DUP(00H)
	DD	00H
	DD	01H
xdata$x	ENDS
;	COMDAT xdata$x
xdata$x	SEGMENT
__unwindtable$?GetPenyaPlayerGC@CDbManager@@AAEXPAVCQuery@@PAUtagDB_OVERLAPPED_PLUS@@@Z DD 0ffffffffH
	DD	FLAT:__unwindfunclet$?GetPenyaPlayerGC@CDbManager@@AAEXPAVCQuery@@PAUtagDB_OVERLAPPED_PLUS@@@Z$0
__ehfuncinfo$?GetPenyaPlayerGC@CDbManager@@AAEXPAVCQuery@@PAUtagDB_OVERLAPPED_PLUS@@@Z DD 019930522H
	DD	01H
	DD	FLAT:__unwindtable$?GetPenyaPlayerGC@CDbManager@@AAEXPAVCQuery@@PAUtagDB_OVERLAPPED_PLUS@@@Z
	DD	2 DUP(00H)
	DD	2 DUP(00H)
	DD	00H
	DD	01H
xdata$x	ENDS
;	COMDAT xdata$x
xdata$x	SEGMENT
__unwindtable$?GetPenyaGuildGC@CDbManager@@AAEXPAVCQuery@@PAUtagDB_OVERLAPPED_PLUS@@@Z DD 0ffffffffH
	DD	FLAT:__unwindfunclet$?GetPenyaGuildGC@CDbManager@@AAEXPAVCQuery@@PAUtagDB_OVERLAPPED_PLUS@@@Z$0
__ehfuncinfo$?GetPenyaGuildGC@CDbManager@@AAEXPAVCQuery@@PAUtagDB_OVERLAPPED_PLUS@@@Z DD 019930522H
	DD	01H
	DD	FLAT:__unwindtable$?GetPenyaGuildGC@CDbManager@@AAEXPAVCQuery@@PAUtagDB_OVERLAPPED_PLUS@@@Z
	DD	2 DUP(00H)
	DD	2 DUP(00H)
	DD	00H
	DD	01H
xdata$x	ENDS
;	COMDAT xdata$x
xdata$x	SEGMENT
__unwindtable$?ResultGuildCombat@CDbManager@@AAEXPAVCQuery@@PAUtagDB_OVERLAPPED_PLUS@@@Z DD 0ffffffffH
	DD	FLAT:__unwindfunclet$?ResultGuildCombat@CDbManager@@AAEXPAVCQuery@@PAUtagDB_OVERLAPPED_PLUS@@@Z$0
__ehfuncinfo$?ResultGuildCombat@CDbManager@@AAEXPAVCQuery@@PAUtagDB_OVERLAPPED_PLUS@@@Z DD 019930522H
	DD	01H
	DD	FLAT:__unwindtable$?ResultGuildCombat@CDbManager@@AAEXPAVCQuery@@PAUtagDB_OVERLAPPED_PLUS@@@Z
	DD	2 DUP(00H)
	DD	2 DUP(00H)
	DD	00H
	DD	01H
xdata$x	ENDS
;	COMDAT xdata$x
xdata$x	SEGMENT
__unwindtable$?OutGuildCombat@CDbManager@@AAEXPAVCQuery@@PAUtagDB_OVERLAPPED_PLUS@@@Z DD 0ffffffffH
	DD	FLAT:__unwindfunclet$?OutGuildCombat@CDbManager@@AAEXPAVCQuery@@PAUtagDB_OVERLAPPED_PLUS@@@Z$0
__ehfuncinfo$?OutGuildCombat@CDbManager@@AAEXPAVCQuery@@PAUtagDB_OVERLAPPED_PLUS@@@Z DD 019930522H
	DD	01H
	DD	FLAT:__unwindtable$?OutGuildCombat@CDbManager@@AAEXPAVCQuery@@PAUtagDB_OVERLAPPED_PLUS@@@Z
	DD	2 DUP(00H)
	DD	2 DUP(00H)
	DD	00H
	DD	01H
xdata$x	ENDS
;	COMDAT xdata$x
xdata$x	SEGMENT
__unwindtable$?InGuildCombat@CDbManager@@AAEXPAVCQuery@@PAUtagDB_OVERLAPPED_PLUS@@@Z DD 0ffffffffH
	DD	FLAT:__unwindfunclet$?InGuildCombat@CDbManager@@AAEXPAVCQuery@@PAUtagDB_OVERLAPPED_PLUS@@@Z$0
__ehfuncinfo$?InGuildCombat@CDbManager@@AAEXPAVCQuery@@PAUtagDB_OVERLAPPED_PLUS@@@Z DD 019930522H
	DD	01H
	DD	FLAT:__unwindtable$?InGuildCombat@CDbManager@@AAEXPAVCQuery@@PAUtagDB_OVERLAPPED_PLUS@@@Z
	DD	2 DUP(00H)
	DD	2 DUP(00H)
	DD	00H
	DD	01H
xdata$x	ENDS
;	COMDAT xdata$x
xdata$x	SEGMENT
__unwindtable$?StartGuildCombat@CDbManager@@AAEXPAVCQuery@@PAUtagDB_OVERLAPPED_PLUS@@@Z DD 0ffffffffH
	DD	FLAT:__unwindfunclet$?StartGuildCombat@CDbManager@@AAEXPAVCQuery@@PAUtagDB_OVERLAPPED_PLUS@@@Z$0
__ehfuncinfo$?StartGuildCombat@CDbManager@@AAEXPAVCQuery@@PAUtagDB_OVERLAPPED_PLUS@@@Z DD 019930522H
	DD	01H
	DD	FLAT:__unwindtable$?StartGuildCombat@CDbManager@@AAEXPAVCQuery@@PAUtagDB_OVERLAPPED_PLUS@@@Z
	DD	2 DUP(00H)
	DD	2 DUP(00H)
	DD	00H
	DD	01H
xdata$x	ENDS
;	COMDAT xdata$x
xdata$x	SEGMENT
__unwindtable$?WantedOperation@CDbManager@@AAEXPAVCQuery@@PAUtagDB_OVERLAPPED_PLUS@@@Z DD 0ffffffffH
	DD	FLAT:__unwindfunclet$?WantedOperation@CDbManager@@AAEXPAVCQuery@@PAUtagDB_OVERLAPPED_PLUS@@@Z$0
	DD	00H
	DD	FLAT:__unwindfunclet$?WantedOperation@CDbManager@@AAEXPAVCQuery@@PAUtagDB_OVERLAPPED_PLUS@@@Z$1
__ehfuncinfo$?WantedOperation@CDbManager@@AAEXPAVCQuery@@PAUtagDB_OVERLAPPED_PLUS@@@Z DD 019930522H
	DD	02H
	DD	FLAT:__unwindtable$?WantedOperation@CDbManager@@AAEXPAVCQuery@@PAUtagDB_OVERLAPPED_PLUS@@@Z
	DD	2 DUP(00H)
	DD	2 DUP(00H)
	DD	00H
	DD	01H
xdata$x	ENDS
;	COMDAT xdata$x
xdata$x	SEGMENT
__unwindtable$?ReadMail@CDbManager@@AAEXPAVCQuery@@PAUtagDB_OVERLAPPED_PLUS@@@Z DD 0ffffffffH
	DD	FLAT:__unwindfunclet$?ReadMail@CDbManager@@AAEXPAVCQuery@@PAUtagDB_OVERLAPPED_PLUS@@@Z$0
__ehfuncinfo$?ReadMail@CDbManager@@AAEXPAVCQuery@@PAUtagDB_OVERLAPPED_PLUS@@@Z DD 019930522H
	DD	01H
	DD	FLAT:__unwindtable$?ReadMail@CDbManager@@AAEXPAVCQuery@@PAUtagDB_OVERLAPPED_PLUS@@@Z
	DD	2 DUP(00H)
	DD	2 DUP(00H)
	DD	00H
	DD	01H
xdata$x	ENDS
;	COMDAT xdata$x
xdata$x	SEGMENT
__unwindtable$?RemoveMailGold@CDbManager@@AAEXPAVCQuery@@PAUtagDB_OVERLAPPED_PLUS@@@Z DD 0ffffffffH
	DD	FLAT:__unwindfunclet$?RemoveMailGold@CDbManager@@AAEXPAVCQuery@@PAUtagDB_OVERLAPPED_PLUS@@@Z$0
__ehfuncinfo$?RemoveMailGold@CDbManager@@AAEXPAVCQuery@@PAUtagDB_OVERLAPPED_PLUS@@@Z DD 019930522H
	DD	01H
	DD	FLAT:__unwindtable$?RemoveMailGold@CDbManager@@AAEXPAVCQuery@@PAUtagDB_OVERLAPPED_PLUS@@@Z
	DD	2 DUP(00H)
	DD	2 DUP(00H)
	DD	00H
	DD	01H
xdata$x	ENDS
;	COMDAT xdata$x
xdata$x	SEGMENT
__unwindtable$?RemoveMailItem@CDbManager@@AAEXPAVCQuery@@PAUtagDB_OVERLAPPED_PLUS@@@Z DD 0ffffffffH
	DD	FLAT:__unwindfunclet$?RemoveMailItem@CDbManager@@AAEXPAVCQuery@@PAUtagDB_OVERLAPPED_PLUS@@@Z$0
__ehfuncinfo$?RemoveMailItem@CDbManager@@AAEXPAVCQuery@@PAUtagDB_OVERLAPPED_PLUS@@@Z DD 019930522H
	DD	01H
	DD	FLAT:__unwindtable$?RemoveMailItem@CDbManager@@AAEXPAVCQuery@@PAUtagDB_OVERLAPPED_PLUS@@@Z
	DD	2 DUP(00H)
	DD	2 DUP(00H)
	DD	00H
	DD	01H
xdata$x	ENDS
;	COMDAT xdata$x
xdata$x	SEGMENT
__unwindtable$?RemoveMail@CDbManager@@AAEXPAVCQuery@@PAUtagDB_OVERLAPPED_PLUS@@@Z DD 0ffffffffH
	DD	FLAT:__unwindfunclet$?RemoveMail@CDbManager@@AAEXPAVCQuery@@PAUtagDB_OVERLAPPED_PLUS@@@Z$0
__ehfuncinfo$?RemoveMail@CDbManager@@AAEXPAVCQuery@@PAUtagDB_OVERLAPPED_PLUS@@@Z DD 019930522H
	DD	01H
	DD	FLAT:__unwindtable$?RemoveMail@CDbManager@@AAEXPAVCQuery@@PAUtagDB_OVERLAPPED_PLUS@@@Z
	DD	2 DUP(00H)
	DD	2 DUP(00H)
	DD	00H
	DD	01H
xdata$x	ENDS
;	COMDAT xdata$x
xdata$x	SEGMENT
__unwindtable$?AddMail@CDbManager@@AAEXPAVCQuery@@PAUtagDB_OVERLAPPED_PLUS@@@Z DD 0ffffffffH
	DD	FLAT:__unwindfunclet$?AddMail@CDbManager@@AAEXPAVCQuery@@PAUtagDB_OVERLAPPED_PLUS@@@Z$0
	DD	00H
	DD	FLAT:__unwindfunclet$?AddMail@CDbManager@@AAEXPAVCQuery@@PAUtagDB_OVERLAPPED_PLUS@@@Z$1
	DD	00H
	DD	FLAT:__unwindfunclet$?AddMail@CDbManager@@AAEXPAVCQuery@@PAUtagDB_OVERLAPPED_PLUS@@@Z$2
__ehfuncinfo$?AddMail@CDbManager@@AAEXPAVCQuery@@PAUtagDB_OVERLAPPED_PLUS@@@Z DD 019930522H
	DD	03H
	DD	FLAT:__unwindtable$?AddMail@CDbManager@@AAEXPAVCQuery@@PAUtagDB_OVERLAPPED_PLUS@@@Z
	DD	2 DUP(00H)
	DD	2 DUP(00H)
	DD	00H
	DD	01H
xdata$x	ENDS
;	COMDAT xdata$x
xdata$x	SEGMENT
__unwindtable$?RecommendEve@CDbManager@@AAEXPAVCQuery@@PAUtagDB_OVERLAPPED_PLUS@@@Z DD 0ffffffffH
	DD	FLAT:__unwindfunclet$?RecommendEve@CDbManager@@AAEXPAVCQuery@@PAUtagDB_OVERLAPPED_PLUS@@@Z$0
__ehfuncinfo$?RecommendEve@CDbManager@@AAEXPAVCQuery@@PAUtagDB_OVERLAPPED_PLUS@@@Z DD 019930522H
	DD	01H
	DD	FLAT:__unwindtable$?RecommendEve@CDbManager@@AAEXPAVCQuery@@PAUtagDB_OVERLAPPED_PLUS@@@Z
	DD	2 DUP(00H)
	DD	2 DUP(00H)
	DD	00H
	DD	01H
xdata$x	ENDS
;	COMDAT voltbl
voltbl	SEGMENT
_volmd	DB	04dH
voltbl	ENDS
;	COMDAT xdata$x
xdata$x	SEGMENT
__unwindtable$?SchoolReport@CDbManager@@AAEXPAVCQuery@@PAUtagDB_OVERLAPPED_PLUS@@@Z DD 0ffffffffH
	DD	FLAT:__unwindfunclet$?SchoolReport@CDbManager@@AAEXPAVCQuery@@PAUtagDB_OVERLAPPED_PLUS@@@Z$0
__ehfuncinfo$?SchoolReport@CDbManager@@AAEXPAVCQuery@@PAUtagDB_OVERLAPPED_PLUS@@@Z DD 019930522H
	DD	01H
	DD	FLAT:__unwindtable$?SchoolReport@CDbManager@@AAEXPAVCQuery@@PAUtagDB_OVERLAPPED_PLUS@@@Z
	DD	2 DUP(00H)
	DD	2 DUP(00H)
	DD	00H
	DD	01H
xdata$x	ENDS
;	COMDAT xdata$x
xdata$x	SEGMENT
__unwindtable$?SendItemtoCharacter@CDbManager@@AAEHHPAVCMover@@PAVCQuery@@11PAUtagDB_OVERLAPPED_PLUS@@@Z DD 0ffffffffH
	DD	FLAT:__unwindfunclet$?SendItemtoCharacter@CDbManager@@AAEHHPAVCMover@@PAVCQuery@@11PAUtagDB_OVERLAPPED_PLUS@@@Z$0
__ehfuncinfo$?SendItemtoCharacter@CDbManager@@AAEHHPAVCMover@@PAVCQuery@@11PAUtagDB_OVERLAPPED_PLUS@@@Z DD 019930522H
	DD	01H
	DD	FLAT:__unwindtable$?SendItemtoCharacter@CDbManager@@AAEHHPAVCMover@@PAVCQuery@@11PAUtagDB_OVERLAPPED_PLUS@@@Z
	DD	2 DUP(00H)
	DD	2 DUP(00H)
	DD	00H
	DD	01H
xdata$x	ENDS
;	COMDAT xdata$x
xdata$x	SEGMENT
__unwindtable$?UpdateGuildQuest@CDbManager@@AAEXPAVCQuery@@PAUtagDB_OVERLAPPED_PLUS@@@Z DD 0ffffffffH
	DD	FLAT:__unwindfunclet$?UpdateGuildQuest@CDbManager@@AAEXPAVCQuery@@PAUtagDB_OVERLAPPED_PLUS@@@Z$0
__ehfuncinfo$?UpdateGuildQuest@CDbManager@@AAEXPAVCQuery@@PAUtagDB_OVERLAPPED_PLUS@@@Z DD 019930522H
	DD	01H
	DD	FLAT:__unwindtable$?UpdateGuildQuest@CDbManager@@AAEXPAVCQuery@@PAUtagDB_OVERLAPPED_PLUS@@@Z
	DD	2 DUP(00H)
	DD	2 DUP(00H)
	DD	00H
	DD	01H
xdata$x	ENDS
;	COMDAT xdata$x
xdata$x	SEGMENT
__unwindtable$?InsertGuildQuest@CDbManager@@AAEXPAVCQuery@@PAUtagDB_OVERLAPPED_PLUS@@@Z DD 0ffffffffH
	DD	FLAT:__unwindfunclet$?InsertGuildQuest@CDbManager@@AAEXPAVCQuery@@PAUtagDB_OVERLAPPED_PLUS@@@Z$0
__ehfuncinfo$?InsertGuildQuest@CDbManager@@AAEXPAVCQuery@@PAUtagDB_OVERLAPPED_PLUS@@@Z DD 019930522H
	DD	01H
	DD	FLAT:__unwindtable$?InsertGuildQuest@CDbManager@@AAEXPAVCQuery@@PAUtagDB_OVERLAPPED_PLUS@@@Z
	DD	2 DUP(00H)
	DD	2 DUP(00H)
	DD	00H
	DD	01H
xdata$x	ENDS
;	COMDAT xdata$x
xdata$x	SEGMENT
__unwindtable$?QueryGuildQuest@CDbManager@@AAEXPAVCQuery@@PAUtagDB_OVERLAPPED_PLUS@@@Z DD 0ffffffffH
	DD	FLAT:__unwindfunclet$?QueryGuildQuest@CDbManager@@AAEXPAVCQuery@@PAUtagDB_OVERLAPPED_PLUS@@@Z$0
__ehfuncinfo$?QueryGuildQuest@CDbManager@@AAEXPAVCQuery@@PAUtagDB_OVERLAPPED_PLUS@@@Z DD 019930522H
	DD	01H
	DD	FLAT:__unwindtable$?QueryGuildQuest@CDbManager@@AAEXPAVCQuery@@PAUtagDB_OVERLAPPED_PLUS@@@Z
	DD	2 DUP(00H)
	DD	2 DUP(00H)
	DD	00H
	DD	01H
xdata$x	ENDS
;	COMDAT xdata$x
xdata$x	SEGMENT
__unwindtable$?SnoopGuild@CDbManager@@AAEXPAVCQuery@@PAUtagDB_OVERLAPPED_PLUS@@@Z DD 0ffffffffH
	DD	FLAT:__unwindfunclet$?SnoopGuild@CDbManager@@AAEXPAVCQuery@@PAUtagDB_OVERLAPPED_PLUS@@@Z$0
	DD	00H
	DD	FLAT:__unwindfunclet$?SnoopGuild@CDbManager@@AAEXPAVCQuery@@PAUtagDB_OVERLAPPED_PLUS@@@Z$2
	DD	00H
	DD	FLAT:__unwindfunclet$?SnoopGuild@CDbManager@@AAEXPAVCQuery@@PAUtagDB_OVERLAPPED_PLUS@@@Z$1
__ehfuncinfo$?SnoopGuild@CDbManager@@AAEXPAVCQuery@@PAUtagDB_OVERLAPPED_PLUS@@@Z DD 019930522H
	DD	03H
	DD	FLAT:__unwindtable$?SnoopGuild@CDbManager@@AAEXPAVCQuery@@PAUtagDB_OVERLAPPED_PLUS@@@Z
	DD	2 DUP(00H)
	DD	2 DUP(00H)
	DD	00H
	DD	01H
xdata$x	ENDS
;	COMDAT xdata$x
xdata$x	SEGMENT
__unwindtable$?SetPlayerName@CDbManager@@AAEXPAVCQuery@@0PAUtagDB_OVERLAPPED_PLUS@@@Z DD 0ffffffffH
	DD	FLAT:__unwindfunclet$?SetPlayerName@CDbManager@@AAEXPAVCQuery@@0PAUtagDB_OVERLAPPED_PLUS@@@Z$0
__ehfuncinfo$?SetPlayerName@CDbManager@@AAEXPAVCQuery@@0PAUtagDB_OVERLAPPED_PLUS@@@Z DD 019930522H
	DD	01H
	DD	FLAT:__unwindtable$?SetPlayerName@CDbManager@@AAEXPAVCQuery@@0PAUtagDB_OVERLAPPED_PLUS@@@Z
	DD	2 DUP(00H)
	DD	2 DUP(00H)
	DD	00H
	DD	01H
xdata$x	ENDS
;	COMDAT xdata$x
xdata$x	SEGMENT
__unwindtable$?LogPlayConnect@CDbManager@@AAEXPAVCQuery@@PAUtagDB_OVERLAPPED_PLUS@@@Z DD 0ffffffffH
	DD	FLAT:__unwindfunclet$?LogPlayConnect@CDbManager@@AAEXPAVCQuery@@PAUtagDB_OVERLAPPED_PLUS@@@Z$0
	DD	00H
	DD	FLAT:__unwindfunclet$?LogPlayConnect@CDbManager@@AAEXPAVCQuery@@PAUtagDB_OVERLAPPED_PLUS@@@Z$1
	DD	01H
	DD	FLAT:__unwindfunclet$?LogPlayConnect@CDbManager@@AAEXPAVCQuery@@PAUtagDB_OVERLAPPED_PLUS@@@Z$2
__ehfuncinfo$?LogPlayConnect@CDbManager@@AAEXPAVCQuery@@PAUtagDB_OVERLAPPED_PLUS@@@Z DD 019930522H
	DD	03H
	DD	FLAT:__unwindtable$?LogPlayConnect@CDbManager@@AAEXPAVCQuery@@PAUtagDB_OVERLAPPED_PLUS@@@Z
	DD	2 DUP(00H)
	DD	2 DUP(00H)
	DD	00H
	DD	01H
xdata$x	ENDS
;	COMDAT xdata$x
xdata$x	SEGMENT
__unwindtable$?InsertTag@CDbManager@@AAEXPAVCQuery@@PAUtagDB_OVERLAPPED_PLUS@@@Z DD 0ffffffffH
	DD	FLAT:__unwindfunclet$?InsertTag@CDbManager@@AAEXPAVCQuery@@PAUtagDB_OVERLAPPED_PLUS@@@Z$0
__ehfuncinfo$?InsertTag@CDbManager@@AAEXPAVCQuery@@PAUtagDB_OVERLAPPED_PLUS@@@Z DD 019930522H
	DD	01H
	DD	FLAT:__unwindtable$?InsertTag@CDbManager@@AAEXPAVCQuery@@PAUtagDB_OVERLAPPED_PLUS@@@Z
	DD	2 DUP(00H)
	DD	2 DUP(00H)
	DD	00H
	DD	01H
xdata$x	ENDS
;	COMDAT xdata$x
xdata$x	SEGMENT
__unwindtable$?UpdateMessenger@CDbManager@@AAEXPAVCQuery@@PAUtagDB_OVERLAPPED_PLUS@@@Z DD 0ffffffffH
	DD	FLAT:__unwindfunclet$?UpdateMessenger@CDbManager@@AAEXPAVCQuery@@PAUtagDB_OVERLAPPED_PLUS@@@Z$0
__ehfuncinfo$?UpdateMessenger@CDbManager@@AAEXPAVCQuery@@PAUtagDB_OVERLAPPED_PLUS@@@Z DD 019930522H
	DD	01H
	DD	FLAT:__unwindtable$?UpdateMessenger@CDbManager@@AAEXPAVCQuery@@PAUtagDB_OVERLAPPED_PLUS@@@Z
	DD	2 DUP(00H)
	DD	2 DUP(00H)
	DD	00H
	DD	01H
xdata$x	ENDS
;	COMDAT xdata$x
xdata$x	SEGMENT
__unwindtable$?DeleteMessenger@CDbManager@@AAEXPAVCQuery@@PAUtagDB_OVERLAPPED_PLUS@@@Z DD 0ffffffffH
	DD	FLAT:__unwindfunclet$?DeleteMessenger@CDbManager@@AAEXPAVCQuery@@PAUtagDB_OVERLAPPED_PLUS@@@Z$0
__ehfuncinfo$?DeleteMessenger@CDbManager@@AAEXPAVCQuery@@PAUtagDB_OVERLAPPED_PLUS@@@Z DD 019930522H
	DD	01H
	DD	FLAT:__unwindtable$?DeleteMessenger@CDbManager@@AAEXPAVCQuery@@PAUtagDB_OVERLAPPED_PLUS@@@Z
	DD	2 DUP(00H)
	DD	2 DUP(00H)
	DD	00H
	DD	01H
xdata$x	ENDS
;	COMDAT xdata$x
xdata$x	SEGMENT
__unwindtable$?AddMessenger@CDbManager@@AAEXPAVCQuery@@PAUtagDB_OVERLAPPED_PLUS@@@Z DD 0ffffffffH
	DD	FLAT:__unwindfunclet$?AddMessenger@CDbManager@@AAEXPAVCQuery@@PAUtagDB_OVERLAPPED_PLUS@@@Z$0
__ehfuncinfo$?AddMessenger@CDbManager@@AAEXPAVCQuery@@PAUtagDB_OVERLAPPED_PLUS@@@Z DD 019930522H
	DD	01H
	DD	FLAT:__unwindtable$?AddMessenger@CDbManager@@AAEXPAVCQuery@@PAUtagDB_OVERLAPPED_PLUS@@@Z
	DD	2 DUP(00H)
	DD	2 DUP(00H)
	DD	00H
	DD	01H
xdata$x	ENDS
;	COMDAT xdata$x
xdata$x	SEGMENT
__ehfuncinfo$??0CDbManager@@AAE@XZ DD 019930522H
	DD	0fH
	DD	FLAT:__unwindtable$??0CDbManager@@AAE@XZ
	DD	2 DUP(00H)
	DD	2 DUP(00H)
	DD	00H
	DD	01H
__unwindtable$??0CDbManager@@AAE@XZ DD 0ffffffffH
	DD	FLAT:__unwindfunclet$??0CDbManager@@AAE@XZ$0
	DD	00H
	DD	FLAT:__unwindfunclet$??0CDbManager@@AAE@XZ$1
	DD	01H
	DD	FLAT:__unwindfunclet$??0CDbManager@@AAE@XZ$2
	DD	02H
	DD	FLAT:__unwindfunclet$??0CDbManager@@AAE@XZ$3
	DD	03H
	DD	FLAT:__unwindfunclet$??0CDbManager@@AAE@XZ$4
	DD	04H
	DD	FLAT:__unwindfunclet$??0CDbManager@@AAE@XZ$5
	DD	05H
	DD	FLAT:__unwindfunclet$??0CDbManager@@AAE@XZ$6
	DD	06H
	DD	FLAT:__unwindfunclet$??0CDbManager@@AAE@XZ$7
	DD	07H
	DD	FLAT:__unwindfunclet$??0CDbManager@@AAE@XZ$8
	DD	08H
	DD	FLAT:__unwindfunclet$??0CDbManager@@AAE@XZ$9
	DD	09H
	DD	FLAT:__unwindfunclet$??0CDbManager@@AAE@XZ$10
	DD	0aH
	DD	FLAT:__unwindfunclet$??0CDbManager@@AAE@XZ$11
	DD	0bH
	DD	FLAT:__unwindfunclet$??0CDbManager@@AAE@XZ$12
	DD	0cH
	DD	FLAT:__unwindfunclet$??0CDbManager@@AAE@XZ$13
	DD	0dH
	DD	FLAT:__unwindfunclet$??0CDbManager@@AAE@XZ$18
xdata$x	ENDS
;	COMDAT xdata$x
xdata$x	SEGMENT
__unwindtable$?MakeQueryAddMail@CDbManager@@SAXPADPAVCMail@@K@Z DD 0ffffffffH
	DD	FLAT:__unwindfunclet$?MakeQueryAddMail@CDbManager@@SAXPADPAVCMail@@K@Z$0
	DD	00H
	DD	FLAT:__unwindfunclet$?MakeQueryAddMail@CDbManager@@SAXPADPAVCMail@@K@Z$1
__ehfuncinfo$?MakeQueryAddMail@CDbManager@@SAXPADPAVCMail@@K@Z DD 019930522H
	DD	02H
	DD	FLAT:__unwindtable$?MakeQueryAddMail@CDbManager@@SAXPADPAVCMail@@K@Z
	DD	2 DUP(00H)
	DD	2 DUP(00H)
	DD	00H
	DD	01H
xdata$x	ENDS
;	COMDAT xdata$x
xdata$x	SEGMENT
__unwindtable$?OpenWanted@CDbManager@@QAEHAAVCAr@@@Z DD 0ffffffffH
	DD	FLAT:__unwindfunclet$?OpenWanted@CDbManager@@QAEHAAVCAr@@@Z$0
__ehfuncinfo$?OpenWanted@CDbManager@@QAEHAAVCAr@@@Z DD 019930522H
	DD	01H
	DD	FLAT:__unwindtable$?OpenWanted@CDbManager@@QAEHAAVCAr@@@Z
	DD	2 DUP(00H)
	DD	2 DUP(00H)
	DD	00H
	DD	01H
xdata$x	ENDS
;	COMDAT xdata$x
xdata$x	SEGMENT
__unwindtable$?Clear@CDbManager@@QAEXXZ DD 0ffffffffH
	DD	FLAT:__unwindfunclet$?Clear@CDbManager@@QAEXXZ$0
__ehfuncinfo$?Clear@CDbManager@@QAEXXZ DD 019930522H
	DD	01H
	DD	FLAT:__unwindtable$?Clear@CDbManager@@QAEXXZ
	DD	2 DUP(00H)
	DD	2 DUP(00H)
	DD	00H
	DD	01H
xdata$x	ENDS
;	COMDAT xdata$x
xdata$x	SEGMENT
__unwindtable$?GuildThread@CDbManager@@QAEXXZ DD 0ffffffffH
	DD	FLAT:__unwindfunclet$?GuildThread@CDbManager@@QAEXXZ$0
	DD	0ffffffffH
	DD	FLAT:__unwindfunclet$?GuildThread@CDbManager@@QAEXXZ$1
	DD	0ffffffffH
	DD	FLAT:__unwindfunclet$?GuildThread@CDbManager@@QAEXXZ$2
	DD	02H
	DD	FLAT:__unwindfunclet$?GuildThread@CDbManager@@QAEXXZ$3
__ehfuncinfo$?GuildThread@CDbManager@@QAEXXZ DD 019930522H
	DD	04H
	DD	FLAT:__unwindtable$?GuildThread@CDbManager@@QAEXXZ
	DD	2 DUP(00H)
	DD	2 DUP(00H)
	DD	00H
	DD	01H
xdata$x	ENDS
;	COMDAT xdata$x
xdata$x	SEGMENT
__unwindtable$?UpdateThread@CDbManager@@QAEXXZ DD 0ffffffffH
	DD	FLAT:__unwindfunclet$?UpdateThread@CDbManager@@QAEXXZ$0
	DD	0ffffffffH
	DD	FLAT:__unwindfunclet$?UpdateThread@CDbManager@@QAEXXZ$1
__ehfuncinfo$?UpdateThread@CDbManager@@QAEXXZ DD 019930522H
	DD	02H
	DD	FLAT:__unwindtable$?UpdateThread@CDbManager@@QAEXXZ
	DD	2 DUP(00H)
	DD	2 DUP(00H)
	DD	00H
	DD	01H
xdata$x	ENDS
;	COMDAT xdata$x
xdata$x	SEGMENT
__unwindtable$?PutThread@CDbManager@@QAEXXZ DD 0ffffffffH
	DD	FLAT:__unwindfunclet$?PutThread@CDbManager@@QAEXXZ$0
	DD	0ffffffffH
	DD	FLAT:__unwindfunclet$?PutThread@CDbManager@@QAEXXZ$1
__ehfuncinfo$?PutThread@CDbManager@@QAEXXZ DD 019930522H
	DD	02H
	DD	FLAT:__unwindtable$?PutThread@CDbManager@@QAEXXZ
	DD	2 DUP(00H)
	DD	2 DUP(00H)
	DD	00H
	DD	01H
xdata$x	ENDS
;	COMDAT xdata$x
xdata$x	SEGMENT
__unwindtable$?GetThread@CDbManager@@QAEXXZ DD 0ffffffffH
	DD	FLAT:__unwindfunclet$?GetThread@CDbManager@@QAEXXZ$0
	DD	0ffffffffH
	DD	FLAT:__unwindfunclet$?GetThread@CDbManager@@QAEXXZ$1
	DD	0ffffffffH
	DD	FLAT:__unwindfunclet$?GetThread@CDbManager@@QAEXXZ$2
__ehfuncinfo$?GetThread@CDbManager@@QAEXXZ DD 019930522H
	DD	03H
	DD	FLAT:__unwindtable$?GetThread@CDbManager@@QAEXXZ
	DD	2 DUP(00H)
	DD	2 DUP(00H)
	DD	00H
	DD	01H
xdata$x	ENDS
;	COMDAT xdata$x
xdata$x	SEGMENT
__unwindtable$?CreateDbWorkers@CDbManager@@QAEHXZ DD 0ffffffffH
	DD	FLAT:__unwindfunclet$?CreateDbWorkers@CDbManager@@QAEHXZ$0
__ehfuncinfo$?CreateDbWorkers@CDbManager@@QAEHXZ DD 019930522H
	DD	01H
	DD	FLAT:__unwindtable$?CreateDbWorkers@CDbManager@@QAEHXZ
	DD	2 DUP(00H)
	DD	2 DUP(00H)
	DD	00H
	DD	01H
xdata$x	ENDS
;	COMDAT xdata$x
xdata$x	SEGMENT
__unwindtable$?call_uspXXXMultiServer@CDbManager@@QAEXPAVCQuery@@PAUtagDB_OVERLAPPED_PLUS@@@Z DD 0ffffffffH
	DD	FLAT:__unwindfunclet$?call_uspXXXMultiServer@CDbManager@@QAEXPAVCQuery@@PAUtagDB_OVERLAPPED_PLUS@@@Z$0
__ehfuncinfo$?call_uspXXXMultiServer@CDbManager@@QAEXPAVCQuery@@PAUtagDB_OVERLAPPED_PLUS@@@Z DD 019930522H
	DD	01H
	DD	FLAT:__unwindtable$?call_uspXXXMultiServer@CDbManager@@QAEXPAVCQuery@@PAUtagDB_OVERLAPPED_PLUS@@@Z
	DD	2 DUP(00H)
	DD	2 DUP(00H)
	DD	00H
	DD	01H
xdata$x	ENDS
;	COMDAT xdata$x
xdata$x	SEGMENT
__unwindtable$?AddPartyName@CDbManager@@QAEXPAVCQuery@@PAUtagDB_OVERLAPPED_PLUS@@@Z DD 0ffffffffH
	DD	FLAT:__unwindfunclet$?AddPartyName@CDbManager@@QAEXPAVCQuery@@PAUtagDB_OVERLAPPED_PLUS@@@Z$0
	DD	00H
	DD	FLAT:__unwindfunclet$?AddPartyName@CDbManager@@QAEXPAVCQuery@@PAUtagDB_OVERLAPPED_PLUS@@@Z$1
__ehfuncinfo$?AddPartyName@CDbManager@@QAEXPAVCQuery@@PAUtagDB_OVERLAPPED_PLUS@@@Z DD 019930522H
	DD	02H
	DD	FLAT:__unwindtable$?AddPartyName@CDbManager@@QAEXPAVCQuery@@PAUtagDB_OVERLAPPED_PLUS@@@Z
	DD	2 DUP(00H)
	DD	2 DUP(00H)
	DD	00H
	DD	01H
xdata$x	ENDS
;	COMDAT xdata$x
xdata$x	SEGMENT
__unwindtable$?WarMasterAbsent@CDbManager@@QAEXPAVCQuery@@PAUtagDB_OVERLAPPED_PLUS@@@Z DD 0ffffffffH
	DD	FLAT:__unwindfunclet$?WarMasterAbsent@CDbManager@@QAEXPAVCQuery@@PAUtagDB_OVERLAPPED_PLUS@@@Z$0
__ehfuncinfo$?WarMasterAbsent@CDbManager@@QAEXPAVCQuery@@PAUtagDB_OVERLAPPED_PLUS@@@Z DD 019930522H
	DD	01H
	DD	FLAT:__unwindtable$?WarMasterAbsent@CDbManager@@QAEXPAVCQuery@@PAUtagDB_OVERLAPPED_PLUS@@@Z
	DD	2 DUP(00H)
	DD	2 DUP(00H)
	DD	00H
	DD	01H
xdata$x	ENDS
;	COMDAT xdata$x
xdata$x	SEGMENT
__unwindtable$?WarDead@CDbManager@@QAEXPAVCQuery@@PAUtagDB_OVERLAPPED_PLUS@@@Z DD 0ffffffffH
	DD	FLAT:__unwindfunclet$?WarDead@CDbManager@@QAEXPAVCQuery@@PAUtagDB_OVERLAPPED_PLUS@@@Z$0
__ehfuncinfo$?WarDead@CDbManager@@QAEXPAVCQuery@@PAUtagDB_OVERLAPPED_PLUS@@@Z DD 019930522H
	DD	01H
	DD	FLAT:__unwindtable$?WarDead@CDbManager@@QAEXPAVCQuery@@PAUtagDB_OVERLAPPED_PLUS@@@Z
	DD	2 DUP(00H)
	DD	2 DUP(00H)
	DD	00H
	DD	01H
xdata$x	ENDS
;	COMDAT xdata$x
xdata$x	SEGMENT
__unwindtable$?Surrender@CDbManager@@QAEXPAVCQuery@@PAUtagDB_OVERLAPPED_PLUS@@@Z DD 0ffffffffH
	DD	FLAT:__unwindfunclet$?Surrender@CDbManager@@QAEXPAVCQuery@@PAUtagDB_OVERLAPPED_PLUS@@@Z$0
__ehfuncinfo$?Surrender@CDbManager@@QAEXPAVCQuery@@PAUtagDB_OVERLAPPED_PLUS@@@Z DD 019930522H
	DD	01H
	DD	FLAT:__unwindtable$?Surrender@CDbManager@@QAEXPAVCQuery@@PAUtagDB_OVERLAPPED_PLUS@@@Z
	DD	2 DUP(00H)
	DD	2 DUP(00H)
	DD	00H
	DD	01H
xdata$x	ENDS
;	COMDAT xdata$x
xdata$x	SEGMENT
__unwindtable$?WarEnd@CDbManager@@QAEXPAVCQuery@@0PAUtagDB_OVERLAPPED_PLUS@@@Z DD 0ffffffffH
	DD	FLAT:__unwindfunclet$?WarEnd@CDbManager@@QAEXPAVCQuery@@0PAUtagDB_OVERLAPPED_PLUS@@@Z$0
__ehfuncinfo$?WarEnd@CDbManager@@QAEXPAVCQuery@@0PAUtagDB_OVERLAPPED_PLUS@@@Z DD 019930522H
	DD	01H
