; Listing generated by Microsoft (R) Optimizing Compiler Version 19.44.35225.0 

	TITLE	C:\IAGOS\server\v18\Source\Output\DatabaseServer\Release\debug.obj
	.686P
	.XMM
	include listing.inc
	.model	flat

INCLUDELIB LIBCMT
INCLUDELIB OLDNAMES

CONST	SEGMENT
?g_szERROR@@3QBDB DB '..\error.log', 00H		; g_szERROR
	ORG $+3
?g_szEH@@3QBDB DB '..\eh.log', 00H			; g_szEH
CONST	ENDS
PUBLIC	?__empty_global_delete@@YAXPAX@Z		; __empty_global_delete
PUBLIC	?__empty_global_delete@@YAXPAXI@Z		; __empty_global_delete
PUBLIC	___local_stdio_printf_options
PUBLIC	_fprintf
PUBLIC	_sprintf
PUBLIC	?DEBUGOUT2@@YAXPBD0@Z				; DEBUGOUT2
PUBLIC	?FILEOUT@@YAXPBD0ZZ				; FILEOUT
PUBLIC	?WriteLog@@YAXPBDZZ				; WriteLog
PUBLIC	?WriteError@@YAXPBDZZ				; WriteError
PUBLIC	?OUTPUTDEBUGSTRING@@YAXPBDZZ			; OUTPUTDEBUGSTRING
PUBLIC	?MakeFileNameDate@@YAPBDPBD@Z			; MakeFileNameDate
PUBLIC	?_OptionsStorage@?1??__local_stdio_printf_options@@9@4_KA ; `__local_stdio_printf_options'::`2'::_OptionsStorage
PUBLIC	??_C@_01MCMALHOG@a@				; `string'
PUBLIC	??_C@_0BL@OPOBLKAC@?$CFd?1?$CF2d?1?$CF2d?5?$CF02d?3?$CF02d?3?$CF02d?6@ ; `string'
PUBLIC	??_C@_03OFAPEBGM@?$CFs?6@			; `string'
PUBLIC	??_C@_0M@NLEENBFM@_?$CFd?$CF02d?$CF02d@		; `string'
EXTRN	__imp__OutputDebugStringA@4:PROC
EXTRN	__imp__GetLocalTime@4:PROC
EXTRN	__mbsrchr:PROC
EXTRN	_fclose:PROC
EXTRN	_fopen:PROC
EXTRN	___stdio_common_vfprintf:PROC
EXTRN	___stdio_common_vsprintf:PROC
EXTRN	@__security_check_cookie@4:PROC
EXTRN	__chkstk:PROC
EXTRN	_memset:PROC
EXTRN	___security_cookie:DWORD
;	COMDAT ?_OptionsStorage@?1??__local_stdio_printf_options@@9@4_KA
_BSS	SEGMENT
?_OptionsStorage@?1??__local_stdio_printf_options@@9@4_KA DQ 01H DUP (?) ; `__local_stdio_printf_options'::`2'::_OptionsStorage
_BSS	ENDS
;	COMDAT ?szFullFileName@?1??MakeFileNameDate@@YAPBDPBD@Z@4PADA
_BSS	SEGMENT
?szFullFileName@?1??MakeFileNameDate@@YAPBDPBD@Z@4PADA DB 0204H DUP (?) ; `MakeFileNameDate'::`2'::szFullFileName
_BSS	ENDS
;	COMDAT ??_C@_0M@NLEENBFM@_?$CFd?$CF02d?$CF02d@
CONST	SEGMENT
??_C@_0M@NLEENBFM@_?$CFd?$CF02d?$CF02d@ DB '_%d%02d%02d', 00H ; `string'
CONST	ENDS
;	COMDAT ??_C@_03OFAPEBGM@?$CFs?6@
CONST	SEGMENT
??_C@_03OFAPEBGM@?$CFs?6@ DB '%s', 0aH, 00H		; `string'
CONST	ENDS
;	COMDAT ??_C@_0BL@OPOBLKAC@?$CFd?1?$CF2d?1?$CF2d?5?$CF02d?3?$CF02d?3?$CF02d?6@
CONST	SEGMENT
??_C@_0BL@OPOBLKAC@?$CFd?1?$CF2d?1?$CF2d?5?$CF02d?3?$CF02d?3?$CF02d?6@ DB '%'
	DB	'd/%2d/%2d %02d:%02d:%02d', 0aH, 00H		; `string'
CONST	ENDS
;	COMDAT ??_C@_01MCMALHOG@a@
CONST	SEGMENT
??_C@_01MCMALHOG@a@ DB 'a', 00H				; `string'
CONST	ENDS
; Function compile flags: /Ogtp
; File C:\IAGOS\server\v18\Source\Source\_common\debug.cpp
; File C:\Program Files (x86)\Windows Kits\10\Include\10.0.26100.0\ucrt\stdio.h
; File C:\IAGOS\server\v18\Source\Source\_common\debug.cpp
;	COMDAT ?FileOutV@@YAXW4LOG_TYPE@@PBD1PAD@Z
_TEXT	SEGMENT
_szBuffer$ = -4100					; size = 4096
__$ArrayPad$ = -4					; size = 4
_logType$ = 8						; size = 4
_lpszFileName$ = 12					; size = 4
_lpszFormat$ = 16					; size = 4
_args$ = 20						; size = 4
?FileOutV@@YAXW4LOG_TYPE@@PBD1PAD@Z PROC		; FileOutV, COMDAT

; 45   : {

  00000	55		 push	 ebp
  00001	8b ec		 mov	 ebp, esp
  00003	b8 04 10 00 00	 mov	 eax, 4100		; 00001004H
  00008	e8 00 00 00 00	 call	 __chkstk
  0000d	a1 00 00 00 00	 mov	 eax, DWORD PTR ___security_cookie
  00012	33 c5		 xor	 eax, ebp
  00014	89 45 fc	 mov	 DWORD PTR __$ArrayPad$[ebp], eax
  00017	8b 45 14	 mov	 eax, DWORD PTR _args$[ebp]
  0001a	8b 4d 10	 mov	 ecx, DWORD PTR _lpszFormat$[ebp]
  0001d	56		 push	 esi
  0001e	8b 75 0c	 mov	 esi, DWORD PTR _lpszFileName$[ebp]
; File C:\Program Files (x86)\Windows Kits\10\Include\10.0.26100.0\ucrt\stdio.h

; 1392 :         int const _Result = __stdio_common_vsprintf(

  00021	50		 push	 eax
  00022	6a 00		 push	 0
  00024	51		 push	 ecx
  00025	8d 85 fc ef ff
	ff		 lea	 eax, DWORD PTR _szBuffer$[ebp]
  0002b	68 ff 0f 00 00	 push	 4095			; 00000fffH
  00030	50		 push	 eax
  00031	e8 00 00 00 00	 call	 ___local_stdio_printf_options
  00036	8b 08		 mov	 ecx, DWORD PTR [eax]
  00038	ff 70 04	 push	 DWORD PTR [eax+4]
  0003b	83 c9 01	 or	 ecx, 1
  0003e	51		 push	 ecx
  0003f	e8 00 00 00 00	 call	 ___stdio_common_vsprintf

; 1393 :             _CRT_INTERNAL_LOCAL_PRINTF_OPTIONS | _CRT_INTERNAL_PRINTF_LEGACY_VSPRINTF_NULL_TERMINATION,
; 1394 :             _Buffer, _BufferCount, _Format, _Locale, _ArgList);
; 1395 : 
; 1396 :         return _Result < 0 ? -1 : _Result;

  00044	83 c9 ff	 or	 ecx, -1
  00047	83 c4 1c	 add	 esp, 28			; 0000001cH
  0004a	85 c0		 test	 eax, eax
  0004c	0f 48 c1	 cmovs	 eax, ecx
; File C:\IAGOS\server\v18\Source\Source\_common\debug.cpp

; 50   : 	if( n > 0 )

  0004f	85 c0		 test	 eax, eax
  00051	7e 13		 jle	 SHORT $LN2@FileOutV

; 51   : 		LogFile( szBuffer, lpszFileName, logType );

  00053	ff 75 08	 push	 DWORD PTR _logType$[ebp]
  00056	8d 85 fc ef ff
	ff		 lea	 eax, DWORD PTR _szBuffer$[ebp]
  0005c	56		 push	 esi
  0005d	50		 push	 eax
  0005e	e8 00 00 00 00	 call	 ?LogFile@@YAXPBD0W4LOG_TYPE@@@Z ; LogFile
  00063	83 c4 0c	 add	 esp, 12			; 0000000cH
$LN2@FileOutV:

; 52   : }

  00066	8b 4d fc	 mov	 ecx, DWORD PTR __$ArrayPad$[ebp]
  00069	33 cd		 xor	 ecx, ebp
  0006b	5e		 pop	 esi
  0006c	e8 00 00 00 00	 call	 @__security_check_cookie@4
  00071	8b e5		 mov	 esp, ebp
  00073	5d		 pop	 ebp
  00074	c3		 ret	 0
?FileOutV@@YAXW4LOG_TYPE@@PBD1PAD@Z ENDP		; FileOutV
_TEXT	ENDS
; Function compile flags: /Ogtp
; File C:\IAGOS\server\v18\Source\Source\_common\debug.cpp
;	COMDAT ?LogFile@@YAXPBD0W4LOG_TYPE@@@Z
_TEXT	SEGMENT
_time$1 = -52						; size = 16
_szTime$2 = -36						; size = 32
__$ArrayPad$ = -4					; size = 4
_szString$ = 8						; size = 4
_szFileName$ = 12					; size = 4
_type$ = 16						; size = 4
?LogFile@@YAXPBD0W4LOG_TYPE@@@Z PROC			; LogFile, COMDAT

; 20   : {

  00000	55		 push	 ebp
  00001	8b ec		 mov	 ebp, esp
  00003	83 ec 34	 sub	 esp, 52			; 00000034H
  00006	a1 00 00 00 00	 mov	 eax, DWORD PTR ___security_cookie
  0000b	33 c5		 xor	 eax, ebp
  0000d	89 45 fc	 mov	 DWORD PTR __$ArrayPad$[ebp], eax
  00010	8b 45 0c	 mov	 eax, DWORD PTR _szFileName$[ebp]
  00013	56		 push	 esi
  00014	57		 push	 edi
  00015	8b 7d 08	 mov	 edi, DWORD PTR _szString$[ebp]

; 21   : 	FILE* fp;
; 22   : 	fp = fopen( MakeFileNameDate( szFileName ), "a" );

  00018	68 00 00 00 00	 push	 OFFSET ??_C@_01MCMALHOG@a@
  0001d	50		 push	 eax
  0001e	e8 00 00 00 00	 call	 ?MakeFileNameDate@@YAPBDPBD@Z ; MakeFileNameDate
  00023	83 c4 04	 add	 esp, 4
  00026	50		 push	 eax
  00027	e8 00 00 00 00	 call	 _fopen
  0002c	8b f0		 mov	 esi, eax
  0002e	83 c4 08	 add	 esp, 8

; 23   : 	if( fp == NULL )

  00031	85 f6		 test	 esi, esi
  00033	74 5e		 je	 SHORT $LN1@LogFile

; 24   : 		return;
; 25   : 
; 26   : 	if( type == LOG_DATE )

  00035	83 7d 10 01	 cmp	 DWORD PTR _type$[ebp], 1
  00039	75 43		 jne	 SHORT $LN3@LogFile

; 27   : 	{
; 28   : 		SYSTEMTIME	time;
; 29   : 		GetLocalTime( &time );

  0003b	8d 45 cc	 lea	 eax, DWORD PTR _time$1[ebp]
  0003e	50		 push	 eax
  0003f	ff 15 00 00 00
	00		 call	 DWORD PTR __imp__GetLocalTime@4

; 30   : 
; 31   : 		char szTime[32];
; 32   : 		sprintf( szTime, 

  00045	0f b7 45 d8	 movzx	 eax, WORD PTR _time$1[ebp+12]
  00049	50		 push	 eax
  0004a	0f b7 45 d6	 movzx	 eax, WORD PTR _time$1[ebp+10]
  0004e	50		 push	 eax
  0004f	0f b7 45 d4	 movzx	 eax, WORD PTR _time$1[ebp+8]
  00053	50		 push	 eax
  00054	0f b7 45 d2	 movzx	 eax, WORD PTR _time$1[ebp+6]
  00058	50		 push	 eax
  00059	0f b7 45 ce	 movzx	 eax, WORD PTR _time$1[ebp+2]
  0005d	50		 push	 eax
  0005e	0f b7 45 cc	 movzx	 eax, WORD PTR _time$1[ebp]
  00062	50		 push	 eax
  00063	8d 45 dc	 lea	 eax, DWORD PTR _szTime$2[ebp]
  00066	68 00 00 00 00	 push	 OFFSET ??_C@_0BL@OPOBLKAC@?$CFd?1?$CF2d?1?$CF2d?5?$CF02d?3?$CF02d?3?$CF02d?6@
  0006b	50		 push	 eax
  0006c	e8 00 00 00 00	 call	 _sprintf

; 33   : 				 "%d/%2d/%2d %02d:%02d:%02d\n", 
; 34   : 				 time.wYear, time.wMonth, time.wDay, 
; 35   : 				 time.wHour, time.wMinute, time.wSecond );
; 36   : 
; 37   : 		fprintf( fp, szTime );

  00071	8d 45 dc	 lea	 eax, DWORD PTR _szTime$2[ebp]
  00074	50		 push	 eax
  00075	56		 push	 esi
  00076	e8 00 00 00 00	 call	 _fprintf
  0007b	83 c4 28	 add	 esp, 40			; 00000028H
$LN3@LogFile:

; 38   : 	}
; 39   : 
; 40   : 	fprintf( fp,"%s\n", szString );

  0007e	57		 push	 edi
  0007f	68 00 00 00 00	 push	 OFFSET ??_C@_03OFAPEBGM@?$CFs?6@
  00084	56		 push	 esi
  00085	e8 00 00 00 00	 call	 _fprintf

; 41   : 	fclose(fp);

  0008a	56		 push	 esi
  0008b	e8 00 00 00 00	 call	 _fclose
  00090	83 c4 10	 add	 esp, 16			; 00000010H
$LN1@LogFile:

; 42   : }

  00093	8b 4d fc	 mov	 ecx, DWORD PTR __$ArrayPad$[ebp]
  00096	5f		 pop	 edi
  00097	33 cd		 xor	 ecx, ebp
  00099	5e		 pop	 esi
  0009a	e8 00 00 00 00	 call	 @__security_check_cookie@4
  0009f	8b e5		 mov	 esp, ebp
  000a1	5d		 pop	 ebp
  000a2	c3		 ret	 0
?LogFile@@YAXPBD0W4LOG_TYPE@@@Z ENDP			; LogFile
_TEXT	ENDS
; Function compile flags: /Ogtp
; File C:\IAGOS\server\v18\Source\Source\_common\debug.cpp
; File C:\Program Files (x86)\Windows Kits\10\Include\10.0.26100.0\ucrt\tchar.h
; File C:\IAGOS\server\v18\Source\Source\_common\debug.cpp
; File C:\Program Files (x86)\Windows Kits\10\Include\10.0.26100.0\ucrt\tchar.h
; File C:\IAGOS\server\v18\Source\Source\_common\debug.cpp
;	COMDAT ?MakeFileNameDate@@YAPBDPBD@Z
_TEXT	SEGMENT
_time$1 = -40						; size = 16
_szDate$2 = -24						; size = 10
_szExt$3 = -12						; size = 5
__$ArrayPad$ = -4					; size = 4
_lpszFileName$ = 8					; size = 4
?MakeFileNameDate@@YAPBDPBD@Z PROC			; MakeFileNameDate, COMDAT

; 102  : {

  00000	55		 push	 ebp
  00001	8b ec		 mov	 ebp, esp
  00003	83 ec 28	 sub	 esp, 40			; 00000028H
  00006	a1 00 00 00 00	 mov	 eax, DWORD PTR ___security_cookie
  0000b	33 c5		 xor	 eax, ebp
  0000d	89 45 fc	 mov	 DWORD PTR __$ArrayPad$[ebp], eax
  00010	56		 push	 esi
  00011	57		 push	 edi

; 103  : 	static char szFullFileName[_MAX_PATH+_MAX_FNAME];
; 104  : 	::memset( szFullFileName, 0, sizeof( szFullFileName ) );

  00012	68 04 02 00 00	 push	 516			; 00000204H
  00017	6a 00		 push	 0
  00019	68 00 00 00 00	 push	 OFFSET ?szFullFileName@?1??MakeFileNameDate@@YAPBDPBD@Z@4PADA
  0001e	e8 00 00 00 00	 call	 _memset

; 105  : 
; 106  : #ifdef __CLIENT
; 107  : 	::GetCurrentDirectory( _MAX_PATH, szFullFileName );
; 108  : 	_tcscat( szFullFileName, "\\Log\\" );
; 109  : 	::CreateDirectory( szFullFileName, NULL );
; 110  : 	_tcscat( szFullFileName, lpszFileName );
; 111  : #else // __CLIENT
; 112  : 	_tcscpy( szFullFileName, lpszFileName );

  00023	8b 7d 08	 mov	 edi, DWORD PTR _lpszFileName$[ebp]
  00026	ba 00 00 00 00	 mov	 edx, OFFSET ?szFullFileName@?1??MakeFileNameDate@@YAPBDPBD@Z@4PADA
  0002b	83 c4 0c	 add	 esp, 12			; 0000000cH
  0002e	8b cf		 mov	 ecx, edi
  00030	2b d7		 sub	 edx, edi
$LL4@MakeFileNa:
  00032	8a 01		 mov	 al, BYTE PTR [ecx]
  00034	8d 49 01	 lea	 ecx, DWORD PTR [ecx+1]
  00037	88 44 0a ff	 mov	 BYTE PTR [edx+ecx-1], al
  0003b	84 c0		 test	 al, al
  0003d	75 f3		 jne	 SHORT $LL4@MakeFileNa
; File C:\Program Files (x86)\Windows Kits\10\Include\10.0.26100.0\ucrt\tchar.h

; 1548 : _Check_return_ __inline _CRPC _tcsrchr(_In_z_ _CPC _s1,_In_ _UI _c) {return (_CRPC)_mbsrchr((_CPUC)_s1,_c);}

  0003f	6a 2e		 push	 46			; 0000002eH
  00041	68 00 00 00 00	 push	 OFFSET ?szFullFileName@?1??MakeFileNameDate@@YAPBDPBD@Z@4PADA
  00046	e8 00 00 00 00	 call	 __mbsrchr
; File C:\IAGOS\server\v18\Source\Source\_common\debug.cpp

; 115  : 	char* ptr = _tcsrchr( szFullFileName, '.' );

  0004b	8b f0		 mov	 esi, eax
; File C:\Program Files (x86)\Windows Kits\10\Include\10.0.26100.0\ucrt\tchar.h

; 1548 : _Check_return_ __inline _CRPC _tcsrchr(_In_z_ _CPC _s1,_In_ _UI _c) {return (_CRPC)_mbsrchr((_CPUC)_s1,_c);}

  0004d	83 c4 08	 add	 esp, 8
; File C:\IAGOS\server\v18\Source\Source\_common\debug.cpp

; 116  : 	if( ptr != NULL )

  00050	85 f6		 test	 esi, esi
  00052	0f 84 d3 00 00
	00		 je	 $LN2@MakeFileNa

; 117  : 	{
; 118  : 		char szExt[5] = {0, };

  00058	8d 55 f4	 lea	 edx, DWORD PTR _szExt$3[ebp]
  0005b	c7 45 f4 00 00
	00 00		 mov	 DWORD PTR _szExt$3[ebp], 0
  00062	c6 45 f8 00	 mov	 BYTE PTR _szExt$3[ebp+4], 0

; 119  : 		_tcscpy( szExt, ptr );

  00066	8b ce		 mov	 ecx, esi
  00068	2b d6		 sub	 edx, esi
  0006a	66 0f 1f 44 00
	00		 npad	 6
$LL5@MakeFileNa:
  00070	8a 01		 mov	 al, BYTE PTR [ecx]
  00072	8d 49 01	 lea	 ecx, DWORD PTR [ecx+1]
  00075	88 44 0a ff	 mov	 BYTE PTR [edx+ecx-1], al
  00079	84 c0		 test	 al, al
  0007b	75 f3		 jne	 SHORT $LL5@MakeFileNa

; 120  : 		*ptr = '\0';

  0007d	88 06		 mov	 BYTE PTR [esi], al
  0007f	0f 57 c0	 xorps	 xmm0, xmm0

; 121  : 		char szDate[10] = {0, };
; 122  : 		SYSTEMTIME	time;
; 123  : 		GetLocalTime( &time );

  00082	8d 45 d8	 lea	 eax, DWORD PTR _time$1[ebp]
  00085	66 0f d6 45 e8	 movq	 QWORD PTR _szDate$2[ebp], xmm0
  0008a	50		 push	 eax
  0008b	66 c7 45 f0 00
	00		 mov	 WORD PTR _szDate$2[ebp+8], 0
  00091	ff 15 00 00 00
	00		 call	 DWORD PTR __imp__GetLocalTime@4

; 124  : 		_stprintf( szDate, "_%d%02d%02d", time.wYear, time.wMonth, time.wDay );

  00097	0f b7 45 de	 movzx	 eax, WORD PTR _time$1[ebp+6]
  0009b	50		 push	 eax
  0009c	0f b7 45 da	 movzx	 eax, WORD PTR _time$1[ebp+2]
  000a0	50		 push	 eax
  000a1	0f b7 45 d8	 movzx	 eax, WORD PTR _time$1[ebp]
  000a5	50		 push	 eax
  000a6	8d 45 e8	 lea	 eax, DWORD PTR _szDate$2[ebp]
  000a9	68 00 00 00 00	 push	 OFFSET ??_C@_0M@NLEENBFM@_?$CFd?$CF02d?$CF02d@
  000ae	50		 push	 eax
  000af	e8 00 00 00 00	 call	 _sprintf

; 125  : 		_tcscat( szFullFileName, szDate );

  000b4	8d 55 e8	 lea	 edx, DWORD PTR _szDate$2[ebp]
  000b7	83 c4 14	 add	 esp, 20			; 00000014H
  000ba	8b f2		 mov	 esi, edx
  000bc	0f 1f 40 00	 npad	 4
$LL16@MakeFileNa:
  000c0	8a 02		 mov	 al, BYTE PTR [edx]
  000c2	42		 inc	 edx
  000c3	84 c0		 test	 al, al
  000c5	75 f9		 jne	 SHORT $LL16@MakeFileNa
  000c7	bf 00 00 00 00	 mov	 edi, OFFSET ?szFullFileName@?1??MakeFileNameDate@@YAPBDPBD@Z@4PADA
  000cc	2b d6		 sub	 edx, esi
  000ce	4f		 dec	 edi
  000cf	90		 npad	 1
$LL17@MakeFileNa:
  000d0	8a 47 01	 mov	 al, BYTE PTR [edi+1]
  000d3	47		 inc	 edi
  000d4	84 c0		 test	 al, al
  000d6	75 f8		 jne	 SHORT $LL17@MakeFileNa
  000d8	8b ca		 mov	 ecx, edx
  000da	c1 e9 02	 shr	 ecx, 2
  000dd	f3 a5		 rep movsd
  000df	8b ca		 mov	 ecx, edx

; 126  : 		_tcscat( szFullFileName, szExt );

  000e1	8d 55 f4	 lea	 edx, DWORD PTR _szExt$3[ebp]
  000e4	83 e1 03	 and	 ecx, 3
  000e7	f3 a4		 rep movsb
  000e9	8b f2		 mov	 esi, edx
  000eb	0f 1f 44 00 00	 npad	 5
$LL18@MakeFileNa:
  000f0	8a 02		 mov	 al, BYTE PTR [edx]
  000f2	42		 inc	 edx
  000f3	84 c0		 test	 al, al
  000f5	75 f9		 jne	 SHORT $LL18@MakeFileNa
  000f7	bf 00 00 00 00	 mov	 edi, OFFSET ?szFullFileName@?1??MakeFileNameDate@@YAPBDPBD@Z@4PADA
  000fc	2b d6		 sub	 edx, esi
  000fe	4f		 dec	 edi
  000ff	90		 npad	 1
$LL19@MakeFileNa:
  00100	8a 47 01	 mov	 al, BYTE PTR [edi+1]
  00103	47		 inc	 edi
  00104	84 c0		 test	 al, al
  00106	75 f8		 jne	 SHORT $LL19@MakeFileNa
  00108	8b ca		 mov	 ecx, edx

; 127  : 
; 128  : 		return szFullFileName;

  0010a	b8 00 00 00 00	 mov	 eax, OFFSET ?szFullFileName@?1??MakeFileNameDate@@YAPBDPBD@Z@4PADA
  0010f	c1 e9 02	 shr	 ecx, 2
  00112	f3 a5		 rep movsd
  00114	8b ca		 mov	 ecx, edx
  00116	83 e1 03	 and	 ecx, 3
  00119	f3 a4		 rep movsb
  0011b	5f		 pop	 edi

; 129  : 	}
; 130  : 	return lpszFileName;
; 131  : }

  0011c	5e		 pop	 esi
  0011d	8b 4d fc	 mov	 ecx, DWORD PTR __$ArrayPad$[ebp]
  00120	33 cd		 xor	 ecx, ebp
  00122	e8 00 00 00 00	 call	 @__security_check_cookie@4
  00127	8b e5		 mov	 esp, ebp
  00129	5d		 pop	 ebp
  0012a	c3		 ret	 0
$LN2@MakeFileNa:
  0012b	8b 4d fc	 mov	 ecx, DWORD PTR __$ArrayPad$[ebp]
  0012e	8b c7		 mov	 eax, edi
  00130	5f		 pop	 edi
  00131	33 cd		 xor	 ecx, ebp
  00133	5e		 pop	 esi
  00134	e8 00 00 00 00	 call	 @__security_check_cookie@4
  00139	8b e5		 mov	 esp, ebp
  0013b	5d		 pop	 ebp
  0013c	c3		 ret	 0
?MakeFileNameDate@@YAPBDPBD@Z ENDP			; MakeFileNameDate
_TEXT	ENDS
; Function compile flags: /Ogtp
; File C:\IAGOS\server\v18\Source\Source\_common\debug.cpp
; File C:\Program Files (x86)\Windows Kits\10\Include\10.0.26100.0\ucrt\stdio.h
; File C:\IAGOS\server\v18\Source\Source\_common\debug.cpp
;	COMDAT ?OUTPUTDEBUGSTRING@@YAXPBDZZ
_TEXT	SEGMENT
_lpString$ = -1028					; size = 1024
__$ArrayPad$ = -4					; size = 4
_lpszFormat$ = 8					; size = 4
?OUTPUTDEBUGSTRING@@YAXPBDZZ PROC			; OUTPUTDEBUGSTRING, COMDAT

; 91   : {

  00000	55		 push	 ebp
  00001	8b ec		 mov	 ebp, esp
  00003	81 ec 04 04 00
	00		 sub	 esp, 1028		; 00000404H
  00009	a1 00 00 00 00	 mov	 eax, DWORD PTR ___security_cookie
  0000e	33 c5		 xor	 eax, ebp
  00010	89 45 fc	 mov	 DWORD PTR __$ArrayPad$[ebp], eax

; 92   : 	char lpString[1024]		= { 0,};

  00013	68 00 04 00 00	 push	 1024			; 00000400H
  00018	8d 85 fc fb ff
	ff		 lea	 eax, DWORD PTR _lpString$[ebp]
  0001e	6a 00		 push	 0
  00020	50		 push	 eax
  00021	e8 00 00 00 00	 call	 _memset
  00026	83 c4 0c	 add	 esp, 12			; 0000000cH
; File C:\Program Files (x86)\Windows Kits\10\Include\10.0.26100.0\ucrt\stdio.h

; 1392 :         int const _Result = __stdio_common_vsprintf(

  00029	8d 45 0c	 lea	 eax, DWORD PTR _lpszFormat$[ebp+4]
  0002c	50		 push	 eax
  0002d	6a 00		 push	 0
  0002f	ff 75 08	 push	 DWORD PTR _lpszFormat$[ebp]
  00032	8d 85 fc fb ff
	ff		 lea	 eax, DWORD PTR _lpString$[ebp]
  00038	68 00 04 00 00	 push	 1024			; 00000400H
  0003d	50		 push	 eax
  0003e	e8 00 00 00 00	 call	 ___local_stdio_printf_options
  00043	8b 08		 mov	 ecx, DWORD PTR [eax]
  00045	ff 70 04	 push	 DWORD PTR [eax+4]
  00048	83 c9 01	 or	 ecx, 1
  0004b	51		 push	 ecx
  0004c	e8 00 00 00 00	 call	 ___stdio_common_vsprintf

; 1393 :             _CRT_INTERNAL_LOCAL_PRINTF_OPTIONS | _CRT_INTERNAL_PRINTF_LEGACY_VSPRINTF_NULL_TERMINATION,
; 1394 :             _Buffer, _BufferCount, _Format, _Locale, _ArgList);
; 1395 : 
; 1396 :         return _Result < 0 ? -1 : _Result;

  00051	83 c9 ff	 or	 ecx, -1
  00054	83 c4 1c	 add	 esp, 28			; 0000001cH
  00057	85 c0		 test	 eax, eax
  00059	0f 48 c1	 cmovs	 eax, ecx
; File C:\IAGOS\server\v18\Source\Source\_common\debug.cpp

; 97   : 	if( n > 0 )

  0005c	85 c0		 test	 eax, eax
  0005e	7e 0d		 jle	 SHORT $LN2@OUTPUTDEBU

; 98   : 		::OutputDebugString( lpString );

  00060	8d 85 fc fb ff
	ff		 lea	 eax, DWORD PTR _lpString$[ebp]
  00066	50		 push	 eax
  00067	ff 15 00 00 00
	00		 call	 DWORD PTR __imp__OutputDebugStringA@4
$LN2@OUTPUTDEBU:

; 99   : }

  0006d	8b 4d fc	 mov	 ecx, DWORD PTR __$ArrayPad$[ebp]
  00070	33 cd		 xor	 ecx, ebp
  00072	e8 00 00 00 00	 call	 @__security_check_cookie@4
  00077	8b e5		 mov	 esp, ebp
  00079	5d		 pop	 ebp
  0007a	c3		 ret	 0
?OUTPUTDEBUGSTRING@@YAXPBDZZ ENDP			; OUTPUTDEBUGSTRING
_TEXT	ENDS
; Function compile flags: /Ogtp
; File C:\IAGOS\server\v18\Source\Source\_common\debug.cpp
;	COMDAT ?WriteError@@YAXPBDZZ
_TEXT	SEGMENT
_lpszFormat$ = 8					; size = 4
?WriteError@@YAXPBDZZ PROC				; WriteError, COMDAT

; 81   : {

  00000	55		 push	 ebp
  00001	8b ec		 mov	 ebp, esp

; 82   : 	va_list args;
; 83   : 	va_start(args, lpszFormat);
; 84   : 
; 85   : 	FileOutV( LOG_DATE, g_szEH, lpszFormat, args );

  00003	8d 45 0c	 lea	 eax, DWORD PTR _lpszFormat$[ebp+4]
  00006	50		 push	 eax
  00007	ff 75 08	 push	 DWORD PTR _lpszFormat$[ebp]
  0000a	68 00 00 00 00	 push	 OFFSET ?g_szEH@@3QBDB
  0000f	6a 01		 push	 1
  00011	e8 00 00 00 00	 call	 ?FileOutV@@YAXW4LOG_TYPE@@PBD1PAD@Z ; FileOutV
  00016	83 c4 10	 add	 esp, 16			; 00000010H

; 86   : 
; 87   : 	va_end(args);
; 88   : }

  00019	5d		 pop	 ebp
  0001a	c3		 ret	 0
?WriteError@@YAXPBDZZ ENDP				; WriteError
_TEXT	ENDS
; Function compile flags: /Ogtp
; File C:\IAGOS\server\v18\Source\Source\_common\debug.cpp
;	COMDAT ?WriteLog@@YAXPBDZZ
_TEXT	SEGMENT
_lpszFormat$ = 8					; size = 4
?WriteLog@@YAXPBDZZ PROC				; WriteLog, COMDAT

; 71   : {

  00000	55		 push	 ebp
  00001	8b ec		 mov	 ebp, esp

; 72   : 	va_list args;
; 73   : 	va_start(args, lpszFormat);
; 74   : 
; 75   : 	FileOutV( LOG_DATE, g_szERROR, lpszFormat, args );

  00003	8d 45 0c	 lea	 eax, DWORD PTR _lpszFormat$[ebp+4]
  00006	50		 push	 eax
  00007	ff 75 08	 push	 DWORD PTR _lpszFormat$[ebp]
  0000a	68 00 00 00 00	 push	 OFFSET ?g_szERROR@@3QBDB
  0000f	6a 01		 push	 1
  00011	e8 00 00 00 00	 call	 ?FileOutV@@YAXW4LOG_TYPE@@PBD1PAD@Z ; FileOutV
  00016	83 c4 10	 add	 esp, 16			; 00000010H

; 76   : 
; 77   : 	va_end(args);
; 78   : }

  00019	5d		 pop	 ebp
  0001a	c3		 ret	 0
?WriteLog@@YAXPBDZZ ENDP				; WriteLog
_TEXT	ENDS
; Function compile flags: /Ogtp
; File C:\IAGOS\server\v18\Source\Source\_common\debug.cpp
;	COMDAT ?FILEOUT@@YAXPBD0ZZ
_TEXT	SEGMENT
_lpszFileName$ = 8					; size = 4
_lpszFormat$ = 12					; size = 4
?FILEOUT@@YAXPBD0ZZ PROC				; FILEOUT, COMDAT

; 60   : {

  00000	55		 push	 ebp
  00001	8b ec		 mov	 ebp, esp

; 61   : 	va_list args;
; 62   : 	va_start(args, lpszFormat);
; 63   : 
; 64   : 	FileOutV( LOG_SIMPLE, lpszFileName, lpszFormat, args );

  00003	8d 45 10	 lea	 eax, DWORD PTR _lpszFormat$[ebp+4]
  00006	50		 push	 eax
  00007	ff 75 0c	 push	 DWORD PTR _lpszFormat$[ebp]
  0000a	ff 75 08	 push	 DWORD PTR _lpszFileName$[ebp]
  0000d	6a 00		 push	 0
  0000f	e8 00 00 00 00	 call	 ?FileOutV@@YAXW4LOG_TYPE@@PBD1PAD@Z ; FileOutV
  00014	83 c4 10	 add	 esp, 16			; 00000010H

; 65   : 
; 66   : 	va_end(args);
; 67   : }

  00017	5d		 pop	 ebp
  00018	c3		 ret	 0
?FILEOUT@@YAXPBD0ZZ ENDP				; FILEOUT
_TEXT	ENDS
; Function compile flags: /Ogtp
; File C:\IAGOS\server\v18\Source\Source\_common\debug.cpp
;	COMDAT ?DEBUGOUT2@@YAXPBD0@Z
_TEXT	SEGMENT
_szString$ = 8						; size = 4
_szFileName$ = 12					; size = 4
?DEBUGOUT2@@YAXPBD0@Z PROC				; DEBUGOUT2, COMDAT

; 55   : {

  00000	55		 push	 ebp
  00001	8b ec		 mov	 ebp, esp

; 56   : 	LogFile( szString, szFileName, LOG_SIMPLE );	

  00003	6a 00		 push	 0
  00005	ff 75 0c	 push	 DWORD PTR _szFileName$[ebp]
  00008	ff 75 08	 push	 DWORD PTR _szString$[ebp]
  0000b	e8 00 00 00 00	 call	 ?LogFile@@YAXPBD0W4LOG_TYPE@@@Z ; LogFile
  00010	83 c4 0c	 add	 esp, 12			; 0000000cH

; 57   : }

  00013	5d		 pop	 ebp
  00014	c3		 ret	 0
?DEBUGOUT2@@YAXPBD0@Z ENDP				; DEBUGOUT2
_TEXT	ENDS
; Function compile flags: /Ogtp
; File C:\Program Files (x86)\Windows Kits\10\Include\10.0.26100.0\ucrt\stdio.h
;	COMDAT _sprintf
_TEXT	SEGMENT
__Buffer$ = 8						; size = 4
__Format$ = 12						; size = 4
_sprintf PROC						; COMDAT

; 1771 :     {

  00000	55		 push	 ebp
  00001	8b ec		 mov	 ebp, esp

; 1392 :         int const _Result = __stdio_common_vsprintf(

  00003	8d 45 10	 lea	 eax, DWORD PTR __Format$[ebp+4]
  00006	50		 push	 eax
  00007	6a 00		 push	 0
  00009	ff 75 0c	 push	 DWORD PTR __Format$[ebp]
  0000c	6a ff		 push	 -1
  0000e	ff 75 08	 push	 DWORD PTR __Buffer$[ebp]
  00011	e8 00 00 00 00	 call	 ___local_stdio_printf_options
  00016	8b 08		 mov	 ecx, DWORD PTR [eax]
  00018	ff 70 04	 push	 DWORD PTR [eax+4]
  0001b	83 c9 01	 or	 ecx, 1
  0001e	51		 push	 ecx
  0001f	e8 00 00 00 00	 call	 ___stdio_common_vsprintf

; 1393 :             _CRT_INTERNAL_LOCAL_PRINTF_OPTIONS | _CRT_INTERNAL_PRINTF_LEGACY_VSPRINTF_NULL_TERMINATION,
; 1394 :             _Buffer, _BufferCount, _Format, _Locale, _ArgList);
; 1395 : 
; 1396 :         return _Result < 0 ? -1 : _Result;

  00024	83 c9 ff	 or	 ecx, -1
  00027	83 c4 1c	 add	 esp, 28			; 0000001cH
  0002a	85 c0		 test	 eax, eax
  0002c	0f 48 c1	 cmovs	 eax, ecx

; 1772 :         int _Result;
; 1773 :         va_list _ArgList;
; 1774 :         __crt_va_start(_ArgList, _Format);
; 1775 : 
; 1776 :         _Result = _vsprintf_l(_Buffer, _Format, NULL, _ArgList);
; 1777 : 
; 1778 :         __crt_va_end(_ArgList);
; 1779 :         return _Result;
; 1780 :     }

  0002f	5d		 pop	 ebp
  00030	c3		 ret	 0
_sprintf ENDP
_TEXT	ENDS
; Function compile flags: /Ogtp
; File C:\Program Files (x86)\Windows Kits\10\Include\10.0.26100.0\ucrt\stdio.h
;	COMDAT _fprintf
_TEXT	SEGMENT
__Stream$ = 8						; size = 4
__Format$ = 12						; size = 4
_fprintf PROC						; COMDAT

; 837  :     {

  00000	55		 push	 ebp
  00001	8b ec		 mov	 ebp, esp

; 645  :         return __stdio_common_vfprintf(_CRT_INTERNAL_LOCAL_PRINTF_OPTIONS, _Stream, _Format, _Locale, _ArgList);

  00003	8d 45 10	 lea	 eax, DWORD PTR __Format$[ebp+4]
  00006	50		 push	 eax
  00007	6a 00		 push	 0
  00009	ff 75 0c	 push	 DWORD PTR __Format$[ebp]
  0000c	ff 75 08	 push	 DWORD PTR __Stream$[ebp]
  0000f	e8 00 00 00 00	 call	 ___local_stdio_printf_options
  00014	ff 70 04	 push	 DWORD PTR [eax+4]
  00017	ff 30		 push	 DWORD PTR [eax]
  00019	e8 00 00 00 00	 call	 ___stdio_common_vfprintf
  0001e	83 c4 18	 add	 esp, 24			; 00000018H

; 838  :         int _Result;
; 839  :         va_list _ArgList;
; 840  :         __crt_va_start(_ArgList, _Format);
; 841  :         _Result = _vfprintf_l(_Stream, _Format, NULL, _ArgList);
; 842  :         __crt_va_end(_ArgList);
; 843  :         return _Result;
; 844  :     }

  00021	5d		 pop	 ebp
  00022	c3		 ret	 0
_fprintf ENDP
_TEXT	ENDS
; Function compile flags: /Ogtp
; File C:\Program Files (x86)\Windows Kits\10\Include\10.0.26100.0\ucrt\corecrt_stdio_config.h
;	COMDAT ___local_stdio_printf_options
_TEXT	SEGMENT
___local_stdio_printf_options PROC			; COMDAT

; 91   :         static unsigned __int64 _OptionsStorage;
; 92   :         return &_OptionsStorage;

  00000	b8 00 00 00 00	 mov	 eax, OFFSET ?_OptionsStorage@?1??__local_stdio_printf_options@@9@4_KA ; `__local_stdio_printf_options'::`2'::_OptionsStorage

; 93   :     }

  00005	c3		 ret	 0
___local_stdio_printf_options ENDP
_TEXT	ENDS
; Function compile flags: /Ogtp
; File C:\IAGOS\server\v18\Source\Source\_common\debug.cpp
;	COMDAT ?__empty_global_delete@@YAXPAXI@Z
_TEXT	SEGMENT
___formal$ = 8						; size = 4
___formal$ = 12						; size = 4
?__empty_global_delete@@YAXPAXI@Z PROC			; __empty_global_delete, COMDAT

  00000	c2 00 00	 ret	 0
?__empty_global_delete@@YAXPAXI@Z ENDP			; __empty_global_delete
_TEXT	ENDS
; Function compile flags: /Ogtp
; File C:\IAGOS\server\v18\Source\Source\_common\debug.cpp
;	COMDAT ?__empty_global_delete@@YAXPAX@Z
_TEXT	SEGMENT
___formal$ = 8						; size = 4
?__empty_global_delete@@YAXPAX@Z PROC			; __empty_global_delete, COMDAT

  00000	c2 00 00	 ret	 0
?__empty_global_delete@@YAXPAX@Z ENDP			; __empty_global_delete
_TEXT	ENDS
END
