; Listing generated by Microsoft (R) Optimizing Compiler Version 19.44.35225.0 

	TITLE	C:\IAGOS\server\v18\Source\Output\DatabaseServer\Release\dpaccountclient.obj
	.686P
	.XMM
	include listing.inc
	.model	flat

INCLUDELIB LIBCMT
INCLUDELIB OLDNAMES

PUBLIC	?__empty_global_delete@@YAXPAX@Z		; __empty_global_delete
PUBLIC	?__empty_global_delete@@YAXPAXI@Z		; __empty_global_delete
PUBLIC	??0exception@std@@QAE@ABV01@@Z			; std::exception::exception
PUBLIC	??1exception@std@@UAE@XZ			; std::exception::~exception
PUBLIC	?what@exception@std@@UBEPBDXZ			; std::exception::what
PUBLIC	??_Gexception@std@@UAEPAXI@Z			; std::exception::`scalar deleting destructor'
PUBLIC	??0bad_alloc@std@@QAE@ABV01@@Z			; std::bad_alloc::bad_alloc
PUBLIC	??_Gbad_alloc@std@@UAEPAXI@Z			; std::bad_alloc::`scalar deleting destructor'
PUBLIC	??0bad_array_new_length@std@@QAE@XZ		; std::bad_array_new_length::bad_array_new_length
PUBLIC	??1bad_array_new_length@std@@UAE@XZ		; std::bad_array_new_length::~bad_array_new_length
PUBLIC	??0bad_array_new_length@std@@QAE@ABV01@@Z	; std::bad_array_new_length::bad_array_new_length
PUBLIC	??_Gbad_array_new_length@std@@UAEPAXI@Z		; std::bad_array_new_length::`scalar deleting destructor'
PUBLIC	?_Throw_bad_array_new_length@std@@YAXXZ		; std::_Throw_bad_array_new_length
PUBLIC	?_Throw_tree_length_error@std@@YAXXZ		; std::_Throw_tree_length_error
PUBLIC	??$_Allocate_manually_vector_aligned@U_Default_allocate_traits@std@@@std@@YAPAXI@Z ; std::_Allocate_manually_vector_aligned<std::_Default_allocate_traits>
PUBLIC	??0CDPAccountClient@@QAE@XZ			; CDPAccountClient::CDPAccountClient
PUBLIC	??1CDPAccountClient@@UAE@XZ			; CDPAccountClient::~CDPAccountClient
PUBLIC	?SysMessageHandler@CDPAccountClient@@UAEXPAUDPMSG_GENERIC@@KK@Z ; CDPAccountClient::SysMessageHandler
PUBLIC	?UserMessageHandler@CDPAccountClient@@UAEXPAUDPMSG_GENERIC@@KK@Z ; CDPAccountClient::UserMessageHandler
PUBLIC	?SendAddIdofServer@CDPAccountClient@@QAEXK@Z	; CDPAccountClient::SendAddIdofServer
PUBLIC	?SendRemoveAccount@CDPAccountClient@@QAEXPAD@Z	; CDPAccountClient::SendRemoveAccount
PUBLIC	?SendRemoveAllAccounts@CDPAccountClient@@QAEXXZ	; CDPAccountClient::SendRemoveAllAccounts
PUBLIC	?SendBuyingInfo@CDPAccountClient@@QAEXPAU_BUYING_INFO2@@K@Z ; CDPAccountClient::SendBuyingInfo
PUBLIC	??1?$_Tree@V?$_Tmap_traits@KP8CDPAccountClient@@AEXAAVCAr@@PAEK@ZU?$less@K@std@@V?$allocator@U?$pair@$$CBKP8CDPAccountClient@@AEXAAVCAr@@PAEK@Z@std@@@4@$0A@@std@@@std@@QAE@XZ ; std::_Tree<std::_Tmap_traits<unsigned long,void (__thiscall CDPAccountClient::*)(CAr &,unsigned char *,unsigned long),std::less<unsigned long>,std::allocator<std::pair<unsigned long const ,void (__thiscall CDPAccountClient::*)(CAr &,unsigned char *,unsigned long)> >,0> >::~_Tree<std::_Tmap_traits<unsigned long,void (__thiscall CDPAccountClient::*)(CAr &,unsigned char *,unsigned long),std::less<unsigned long>,std::allocator<std::pair<unsigned long const ,void (__thiscall CDPAccountClient::*)(CAr &,unsigned char *,unsigned long)> >,0> >
PUBLIC	?_Insert_node@?$_Tree_val@U?$_Tree_simple_types@U?$pair@$$CBKP8CDPAccountClient@@AEXAAVCAr@@PAEK@Z@std@@@std@@@std@@QAEPAU?$_Tree_node@U?$pair@$$CBKP8CDPAccountClient@@AEXAAVCAr@@PAEK@Z@std@@PAX@2@U?$_Tree_id@PAU?$_Tree_node@U?$pair@$$CBKP8CDPAccountClient@@AEXAAVCAr@@PAEK@Z@std@@PAX@std@@@2@QAU32@@Z ; std::_Tree_val<std::_Tree_simple_types<std::pair<unsigned long const ,void (__thiscall CDPAccountClient::*)(CAr &,unsigned char *,unsigned long)> > >::_Insert_node
PUBLIC	??1?$map@KP8CDPAccountClient@@AEXAAVCAr@@PAEK@ZU?$less@K@std@@V?$allocator@U?$pair@$$CBKP8CDPAccountClient@@AEXAAVCAr@@PAEK@Z@std@@@4@@std@@QAE@XZ ; std::map<unsigned long,void (__thiscall CDPAccountClient::*)(CAr &,unsigned char *,unsigned long),std::less<unsigned long>,std::allocator<std::pair<unsigned long const ,void (__thiscall CDPAccountClient::*)(CAr &,unsigned char *,unsigned long)> > >::~map<unsigned long,void (__thiscall CDPAccountClient::*)(CAr &,unsigned char *,unsigned long),std::less<unsigned long>,std::allocator<std::pair<unsigned long const ,void (__thiscall CDPAccountClient::*)(CAr &,unsigned char *,unsigned long)> > >
PUBLIC	?OnGetPlayerList@CDPAccountClient@@AAEXAAVCAr@@PAEK@Z ; CDPAccountClient::OnGetPlayerList
PUBLIC	?OnRemovePlayer@CDPAccountClient@@AAEXAAVCAr@@PAEK@Z ; CDPAccountClient::OnRemovePlayer
PUBLIC	?OnJoin@CDPAccountClient@@AAEXAAVCAr@@PAEK@Z	; CDPAccountClient::OnJoin
PUBLIC	?OnPlayerCount@CDPAccountClient@@AAEXAAVCAr@@PAEK@Z ; CDPAccountClient::OnPlayerCount
PUBLIC	?OnCloseExistingConnection@CDPAccountClient@@AAEXAAVCAr@@PAEK@Z ; CDPAccountClient::OnCloseExistingConnection
PUBLIC	?OnOneHourNotify@CDPAccountClient@@AAEXAAVCAr@@PAEK@Z ; CDPAccountClient::OnOneHourNotify
PUBLIC	?OnFail@CDPAccountClient@@AAEXAAVCAr@@PAEK@Z	; CDPAccountClient::OnFail
PUBLIC	?OnBuyingInfo@CDPAccountClient@@AAEXAAVCAr@@PAEK@Z ; CDPAccountClient::OnBuyingInfo
PUBLIC	??_GCDPAccountClient@@UAEPAXI@Z			; CDPAccountClient::`scalar deleting destructor'
PUBLIC	??$?5K@CAr@@QAEAAV0@AAK@Z			; CAr::operator>><unsigned long>
PUBLIC	??$?6K@CAr@@QAEAAV0@ABK@Z			; CAr::operator<<<unsigned long>
PUBLIC	??$?5J@CAr@@QAEAAV0@AAJ@Z			; CAr::operator>><long>
PUBLIC	??$_Find_lower_bound@K@?$_Tree@V?$_Tmap_traits@KP8CDPAccountClient@@AEXAAVCAr@@PAEK@ZU?$less@K@std@@V?$allocator@U?$pair@$$CBKP8CDPAccountClient@@AEXAAVCAr@@PAEK@Z@std@@@4@$0A@@std@@@std@@IBE?AU?$_Tree_find_result@PAU?$_Tree_node@U?$pair@$$CBKP8CDPAccountClient@@AEXAAVCAr@@PAEK@Z@std@@PAX@std@@@1@ABK@Z ; std::_Tree<std::_Tmap_traits<unsigned long,void (__thiscall CDPAccountClient::*)(CAr &,unsigned char *,unsigned long),std::less<unsigned long>,std::allocator<std::pair<unsigned long const ,void (__thiscall CDPAccountClient::*)(CAr &,unsigned char *,unsigned long)> >,0> >::_Find_lower_bound<unsigned long>
PUBLIC	??1?$_Alloc_construct_ptr@V?$allocator@U?$_Tree_node@U?$pair@$$CBKP8CDPAccountClient@@AEXAAVCAr@@PAEK@Z@std@@PAX@std@@@std@@@std@@QAE@XZ ; std::_Alloc_construct_ptr<std::allocator<std::_Tree_node<std::pair<unsigned long const ,void (__thiscall CDPAccountClient::*)(CAr &,unsigned char *,unsigned long)>,void *> > >::~_Alloc_construct_ptr<std::allocator<std::_Tree_node<std::pair<unsigned long const ,void (__thiscall CDPAccountClient::*)(CAr &,unsigned char *,unsigned long)>,void *> > >
PUBLIC	??$_Erase_tree@V?$allocator@U?$_Tree_node@U?$pair@$$CBKP8CDPAccountClient@@AEXAAVCAr@@PAEK@Z@std@@PAX@std@@@std@@@?$_Tree_val@U?$_Tree_simple_types@U?$pair@$$CBKP8CDPAccountClient@@AEXAAVCAr@@PAEK@Z@std@@@std@@@std@@QAEXAAV?$allocator@U?$_Tree_node@U?$pair@$$CBKP8CDPAccountClient@@AEXAAVCAr@@PAEK@Z@std@@PAX@std@@@1@PAU?$_Tree_node@U?$pair@$$CBKP8CDPAccountClient@@AEXAAVCAr@@PAEK@Z@std@@PAX@1@@Z ; std::_Tree_val<std::_Tree_simple_types<std::pair<unsigned long const ,void (__thiscall CDPAccountClient::*)(CAr &,unsigned char *,unsigned long)> > >::_Erase_tree<std::allocator<std::_Tree_node<std::pair<unsigned long const ,void (__thiscall CDPAccountClient::*)(CAr &,unsigned char *,unsigned long)>,void *> > >
PUBLIC	??_7exception@std@@6B@				; std::exception::`vftable'
PUBLIC	??_C@_0BC@EOODALEL@Unknown?5exception@		; `string'
PUBLIC	??_7bad_alloc@std@@6B@				; std::bad_alloc::`vftable'
PUBLIC	??_7bad_array_new_length@std@@6B@		; std::bad_array_new_length::`vftable'
PUBLIC	??_C@_0BF@KINCDENJ@bad?5array?5new?5length@	; `string'
PUBLIC	??_R0?AVexception@std@@@8			; std::exception `RTTI Type Descriptor'
PUBLIC	__CT??_R0?AVexception@std@@@8??0exception@std@@QAE@ABV01@@Z12
PUBLIC	__TI3?AVbad_array_new_length@std@@
PUBLIC	__CTA3?AVbad_array_new_length@std@@
PUBLIC	??_R0?AVbad_array_new_length@std@@@8		; std::bad_array_new_length `RTTI Type Descriptor'
PUBLIC	__CT??_R0?AVbad_array_new_length@std@@@8??0bad_array_new_length@std@@QAE@ABV01@@Z12
PUBLIC	??_R0?AVbad_alloc@std@@@8			; std::bad_alloc `RTTI Type Descriptor'
PUBLIC	__CT??_R0?AVbad_alloc@std@@@8??0bad_alloc@std@@QAE@ABV01@@Z12
PUBLIC	??_C@_0BB@GCADKGJO@map?1set?5too?5long@		; `string'
PUBLIC	??_R4exception@std@@6B@				; std::exception::`RTTI Complete Object Locator'
PUBLIC	??_R3exception@std@@8				; std::exception::`RTTI Class Hierarchy Descriptor'
PUBLIC	??_R2exception@std@@8				; std::exception::`RTTI Base Class Array'
PUBLIC	??_R1A@?0A@EA@exception@std@@8			; std::exception::`RTTI Base Class Descriptor at (0,-1,0,64)'
PUBLIC	??_R4bad_array_new_length@std@@6B@		; std::bad_array_new_length::`RTTI Complete Object Locator'
PUBLIC	??_R3bad_array_new_length@std@@8		; std::bad_array_new_length::`RTTI Class Hierarchy Descriptor'
PUBLIC	??_R2bad_array_new_length@std@@8		; std::bad_array_new_length::`RTTI Base Class Array'
PUBLIC	??_R1A@?0A@EA@bad_array_new_length@std@@8	; std::bad_array_new_length::`RTTI Base Class Descriptor at (0,-1,0,64)'
PUBLIC	??_R1A@?0A@EA@bad_alloc@std@@8			; std::bad_alloc::`RTTI Base Class Descriptor at (0,-1,0,64)'
PUBLIC	??_R3bad_alloc@std@@8				; std::bad_alloc::`RTTI Class Hierarchy Descriptor'
PUBLIC	??_R2bad_alloc@std@@8				; std::bad_alloc::`RTTI Base Class Array'
PUBLIC	??_R4bad_alloc@std@@6B@				; std::bad_alloc::`RTTI Complete Object Locator'
PUBLIC	??_7CDPAccountClient@@6B@			; CDPAccountClient::`vftable'
PUBLIC	??_C@_0CJ@KOMJOOLJ@DATABASESERVER?4EXE?7?1?1?5recv?5from@ ; `string'
PUBLIC	?g_dpAccountClient@@3VCDPAccountClient@@A	; g_dpAccountClient
PUBLIC	??_R4CDPAccountClient@@6B@			; CDPAccountClient::`RTTI Complete Object Locator'
PUBLIC	??_R0?AVCDPAccountClient@@@8			; CDPAccountClient `RTTI Type Descriptor'
PUBLIC	??_R3CDPAccountClient@@8			; CDPAccountClient::`RTTI Class Hierarchy Descriptor'
PUBLIC	??_R2CDPAccountClient@@8			; CDPAccountClient::`RTTI Base Class Array'
PUBLIC	??_R1A@?0A@EA@CDPAccountClient@@8		; CDPAccountClient::`RTTI Base Class Descriptor at (0,-1,0,64)'
PUBLIC	??_R1A@?0A@EA@CDPMng@@8				; CDPMng::`RTTI Base Class Descriptor at (0,-1,0,64)'
PUBLIC	??_R0?AVCDPMng@@@8				; CDPMng `RTTI Type Descriptor'
PUBLIC	??_R3CDPMng@@8					; CDPMng::`RTTI Class Hierarchy Descriptor'
PUBLIC	??_R2CDPMng@@8					; CDPMng::`RTTI Base Class Array'
EXTRN	??2@YAPAXI@Z:PROC				; operator new
EXTRN	??3@YAXPAXI@Z:PROC				; operator delete
EXTRN	_atexit:PROC
EXTRN	__invoke_watson:PROC
EXTRN	__imp__OutputDebugStringA@4:PROC
EXTRN	__imp__PostQueuedCompletionStatus@16:PROC
EXTRN	?_Xlength_error@std@@YAXPBD@Z:PROC		; std::_Xlength_error
EXTRN	___std_exception_copy:PROC
EXTRN	___std_exception_destroy:PROC
EXTRN	??_Eexception@std@@UAEPAXI@Z:PROC		; std::exception::`vector deleting destructor'
EXTRN	??_Ebad_alloc@std@@UAEPAXI@Z:PROC		; std::bad_alloc::`vector deleting destructor'
EXTRN	??_Ebad_array_new_length@std@@UAEPAXI@Z:PROC	; std::bad_array_new_length::`vector deleting destructor'
EXTRN	??0CAr@@QAE@PAXI@Z:PROC				; CAr::CAr
EXTRN	??1CAr@@QAE@XZ:PROC				; CAr::~CAr
EXTRN	?Read@CAr@@QAEXPAXI@Z:PROC			; CAr::Read
EXTRN	?Write@CAr@@QAEXPBXI@Z:PROC			; CAr::Write
EXTRN	?CheckBuf@CAr@@QAEXI@Z:PROC			; CAr::CheckBuf
EXTRN	?WriteString@CAr@@QAEXPBD@Z:PROC		; CAr::WriteString
EXTRN	?ReadString@CAr@@QAEPADPADH@Z:PROC		; CAr::ReadString
EXTRN	?GetBuffer@CAr@@QAEPAEPAH@Z:PROC		; CAr::GetBuffer
EXTRN	?Send@CDPSock@@QAEHPADKK@Z:PROC			; CDPSock::Send
EXTRN	??0CDPMng@@QAE@XZ:PROC				; CDPMng::CDPMng
EXTRN	??1CDPMng@@UAE@XZ:PROC				; CDPMng::~CDPMng
EXTRN	?AllocRequest@CDbManager@@QAEPAUtagDB_OVERLAPPED_PLUS@@XZ:PROC ; CDbManager::AllocRequest
EXTRN	?MakeRequest@CDbManager@@QAEXPAUtagDB_OVERLAPPED_PLUS@@PAEK@Z:PROC ; CDbManager::MakeRequest
EXTRN	?SendCloseExistingConnection@CDPLoginSrvr@@QAEXPBDJ@Z:PROC ; CDPLoginSrvr::SendCloseExistingConnection
EXTRN	?SendFail@CDPLoginSrvr@@QAEXJPBD@Z:PROC		; CDPLoginSrvr::SendFail
EXTRN	?SendOneHourNotify@CDPLoginSrvr@@QAEXPBD@Z:PROC	; CDPLoginSrvr::SendOneHourNotify
EXTRN	?SendBuyingInfo@CDPCoreSrvr@@QAEXPAU_BUYING_INFO2@@@Z:PROC ; CDPCoreSrvr::SendBuyingInfo
EXTRN	??_ECDPAccountClient@@UAEPAXI@Z:PROC		; CDPAccountClient::`vector deleting destructor'
EXTRN	@__security_check_cookie@4:PROC
EXTRN	__CxxThrowException@8:PROC
EXTRN	___CxxFrameHandler3:PROC
EXTRN	__chkstk:PROC
EXTRN	_memset:PROC
EXTRN	??_7type_info@@6B@:QWORD			; type_info::`vftable'
EXTRN	?g_DbManager@@3AAVCDbManager@@A:DWORD		; g_DbManager
EXTRN	?g_dpLoginSrvr@@3VCDPLoginSrvr@@A:BYTE		; g_dpLoginSrvr
EXTRN	?g_appInfo@@3UAppInfo@@A:QWORD			; g_appInfo
EXTRN	?g_dpCoreSrvr@@3VCDPCoreSrvr@@A:BYTE		; g_dpCoreSrvr
EXTRN	___security_cookie:DWORD
_BSS	SEGMENT
?g_dpAccountClient@@3VCDPAccountClient@@A DB 018H DUP (?) ; g_dpAccountClient
_BSS	ENDS
CRT$XCU	SEGMENT
?g_dpAccountClient$initializer$@@3P6AXXZA DD FLAT:??__Eg_dpAccountClient@@YAXXZ ; g_dpAccountClient$initializer$
CRT$XCU	ENDS
;	COMDAT ??_R2CDPMng@@8
rdata$r	SEGMENT
??_R2CDPMng@@8 DD FLAT:??_R1A@?0A@EA@CDPMng@@8		; CDPMng::`RTTI Base Class Array'
rdata$r	ENDS
;	COMDAT ??_R3CDPMng@@8
rdata$r	SEGMENT
??_R3CDPMng@@8 DD 00H					; CDPMng::`RTTI Class Hierarchy Descriptor'
	DD	00H
	DD	01H
	DD	FLAT:??_R2CDPMng@@8
rdata$r	ENDS
;	COMDAT ??_R0?AVCDPMng@@@8
data$rs	SEGMENT
??_R0?AVCDPMng@@@8 DD FLAT:??_7type_info@@6B@		; CDPMng `RTTI Type Descriptor'
	DD	00H
	DB	'.?AVCDPMng@@', 00H
data$rs	ENDS
;	COMDAT ??_R1A@?0A@EA@CDPMng@@8
rdata$r	SEGMENT
??_R1A@?0A@EA@CDPMng@@8 DD FLAT:??_R0?AVCDPMng@@@8	; CDPMng::`RTTI Base Class Descriptor at (0,-1,0,64)'
	DD	00H
	DD	00H
	DD	0ffffffffH
	DD	00H
	DD	040H
	DD	FLAT:??_R3CDPMng@@8
rdata$r	ENDS
;	COMDAT ??_R1A@?0A@EA@CDPAccountClient@@8
rdata$r	SEGMENT
??_R1A@?0A@EA@CDPAccountClient@@8 DD FLAT:??_R0?AVCDPAccountClient@@@8 ; CDPAccountClient::`RTTI Base Class Descriptor at (0,-1,0,64)'
	DD	01H
	DD	00H
	DD	0ffffffffH
	DD	00H
	DD	040H
	DD	FLAT:??_R3CDPAccountClient@@8
rdata$r	ENDS
;	COMDAT ??_R2CDPAccountClient@@8
rdata$r	SEGMENT
??_R2CDPAccountClient@@8 DD FLAT:??_R1A@?0A@EA@CDPAccountClient@@8 ; CDPAccountClient::`RTTI Base Class Array'
	DD	FLAT:??_R1A@?0A@EA@CDPMng@@8
rdata$r	ENDS
;	COMDAT ??_R3CDPAccountClient@@8
rdata$r	SEGMENT
??_R3CDPAccountClient@@8 DD 00H				; CDPAccountClient::`RTTI Class Hierarchy Descriptor'
	DD	00H
	DD	02H
	DD	FLAT:??_R2CDPAccountClient@@8
rdata$r	ENDS
;	COMDAT ??_R0?AVCDPAccountClient@@@8
data$rs	SEGMENT
??_R0?AVCDPAccountClient@@@8 DD FLAT:??_7type_info@@6B@	; CDPAccountClient `RTTI Type Descriptor'
	DD	00H
	DB	'.?AVCDPAccountClient@@', 00H
data$rs	ENDS
;	COMDAT ??_R4CDPAccountClient@@6B@
rdata$r	SEGMENT
??_R4CDPAccountClient@@6B@ DD 00H			; CDPAccountClient::`RTTI Complete Object Locator'
	DD	00H
	DD	00H
	DD	FLAT:??_R0?AVCDPAccountClient@@@8
	DD	FLAT:??_R3CDPAccountClient@@8
rdata$r	ENDS
;	COMDAT ??_C@_0CJ@KOMJOOLJ@DATABASESERVER?4EXE?7?1?1?5recv?5from@
CONST	SEGMENT
??_C@_0CJ@KOMJOOLJ@DATABASESERVER?4EXE?7?1?1?5recv?5from@ DB 'DATABASESER'
	DB	'VER.EXE', 09H, '// recv from account', 0aH, 00H ; `string'
CONST	ENDS
;	COMDAT ??_7CDPAccountClient@@6B@
CONST	SEGMENT
??_7CDPAccountClient@@6B@ DD FLAT:??_R4CDPAccountClient@@6B@ ; CDPAccountClient::`vftable'
	DD	FLAT:??_ECDPAccountClient@@UAEPAXI@Z
	DD	FLAT:?SysMessageHandler@CDPAccountClient@@UAEXPAUDPMSG_GENERIC@@KK@Z
	DD	FLAT:?UserMessageHandler@CDPAccountClient@@UAEXPAUDPMSG_GENERIC@@KK@Z
CONST	ENDS
;	COMDAT ??_R4bad_alloc@std@@6B@
rdata$r	SEGMENT
??_R4bad_alloc@std@@6B@ DD 00H				; std::bad_alloc::`RTTI Complete Object Locator'
	DD	00H
	DD	00H
	DD	FLAT:??_R0?AVbad_alloc@std@@@8
	DD	FLAT:??_R3bad_alloc@std@@8
rdata$r	ENDS
;	COMDAT ??_R2bad_alloc@std@@8
rdata$r	SEGMENT
??_R2bad_alloc@std@@8 DD FLAT:??_R1A@?0A@EA@bad_alloc@std@@8 ; std::bad_alloc::`RTTI Base Class Array'
	DD	FLAT:??_R1A@?0A@EA@exception@std@@8
rdata$r	ENDS
;	COMDAT ??_R3bad_alloc@std@@8
rdata$r	SEGMENT
??_R3bad_alloc@std@@8 DD 00H				; std::bad_alloc::`RTTI Class Hierarchy Descriptor'
	DD	00H
	DD	02H
	DD	FLAT:??_R2bad_alloc@std@@8
rdata$r	ENDS
;	COMDAT ??_R1A@?0A@EA@bad_alloc@std@@8
rdata$r	SEGMENT
??_R1A@?0A@EA@bad_alloc@std@@8 DD FLAT:??_R0?AVbad_alloc@std@@@8 ; std::bad_alloc::`RTTI Base Class Descriptor at (0,-1,0,64)'
	DD	01H
	DD	00H
	DD	0ffffffffH
	DD	00H
	DD	040H
	DD	FLAT:??_R3bad_alloc@std@@8
rdata$r	ENDS
;	COMDAT ??_R1A@?0A@EA@bad_array_new_length@std@@8
rdata$r	SEGMENT
??_R1A@?0A@EA@bad_array_new_length@std@@8 DD FLAT:??_R0?AVbad_array_new_length@std@@@8 ; std::bad_array_new_length::`RTTI Base Class Descriptor at (0,-1,0,64)'
	DD	02H
	DD	00H
	DD	0ffffffffH
	DD	00H
	DD	040H
	DD	FLAT:??_R3bad_array_new_length@std@@8
rdata$r	ENDS
;	COMDAT ??_R2bad_array_new_length@std@@8
rdata$r	SEGMENT
??_R2bad_array_new_length@std@@8 DD FLAT:??_R1A@?0A@EA@bad_array_new_length@std@@8 ; std::bad_array_new_length::`RTTI Base Class Array'
	DD	FLAT:??_R1A@?0A@EA@bad_alloc@std@@8
	DD	FLAT:??_R1A@?0A@EA@exception@std@@8
rdata$r	ENDS
;	COMDAT ??_R3bad_array_new_length@std@@8
rdata$r	SEGMENT
??_R3bad_array_new_length@std@@8 DD 00H			; std::bad_array_new_length::`RTTI Class Hierarchy Descriptor'
	DD	00H
	DD	03H
	DD	FLAT:??_R2bad_array_new_length@std@@8
rdata$r	ENDS
;	COMDAT ??_R4bad_array_new_length@std@@6B@
rdata$r	SEGMENT
??_R4bad_array_new_length@std@@6B@ DD 00H		; std::bad_array_new_length::`RTTI Complete Object Locator'
	DD	00H
	DD	00H
	DD	FLAT:??_R0?AVbad_array_new_length@std@@@8
	DD	FLAT:??_R3bad_array_new_length@std@@8
rdata$r	ENDS
;	COMDAT ??_R1A@?0A@EA@exception@std@@8
rdata$r	SEGMENT
??_R1A@?0A@EA@exception@std@@8 DD FLAT:??_R0?AVexception@std@@@8 ; std::exception::`RTTI Base Class Descriptor at (0,-1,0,64)'
	DD	00H
	DD	00H
	DD	0ffffffffH
	DD	00H
	DD	040H
	DD	FLAT:??_R3exception@std@@8
rdata$r	ENDS
;	COMDAT ??_R2exception@std@@8
rdata$r	SEGMENT
??_R2exception@std@@8 DD FLAT:??_R1A@?0A@EA@exception@std@@8 ; std::exception::`RTTI Base Class Array'
rdata$r	ENDS
;	COMDAT ??_R3exception@std@@8
rdata$r	SEGMENT
??_R3exception@std@@8 DD 00H				; std::exception::`RTTI Class Hierarchy Descriptor'
	DD	00H
	DD	01H
	DD	FLAT:??_R2exception@std@@8
rdata$r	ENDS
;	COMDAT ??_R4exception@std@@6B@
rdata$r	SEGMENT
??_R4exception@std@@6B@ DD 00H				; std::exception::`RTTI Complete Object Locator'
	DD	00H
	DD	00H
	DD	FLAT:??_R0?AVexception@std@@@8
	DD	FLAT:??_R3exception@std@@8
rdata$r	ENDS
;	COMDAT ??_C@_0BB@GCADKGJO@map?1set?5too?5long@
CONST	SEGMENT
??_C@_0BB@GCADKGJO@map?1set?5too?5long@ DB 'map/set too long', 00H ; `string'
CONST	ENDS
;	COMDAT __CT??_R0?AVbad_alloc@std@@@8??0bad_alloc@std@@QAE@ABV01@@Z12
xdata$x	SEGMENT
__CT??_R0?AVbad_alloc@std@@@8??0bad_alloc@std@@QAE@ABV01@@Z12 DD 010H
	DD	FLAT:??_R0?AVbad_alloc@std@@@8
	DD	00H
	DD	0ffffffffH
	ORG $+4
	DD	0cH
	DD	FLAT:??0bad_alloc@std@@QAE@ABV01@@Z
xdata$x	ENDS
;	COMDAT ??_R0?AVbad_alloc@std@@@8
data$r	SEGMENT
??_R0?AVbad_alloc@std@@@8 DD FLAT:??_7type_info@@6B@	; std::bad_alloc `RTTI Type Descriptor'
	DD	00H
	DB	'.?AVbad_alloc@std@@', 00H
data$r	ENDS
;	COMDAT __CT??_R0?AVbad_array_new_length@std@@@8??0bad_array_new_length@std@@QAE@ABV01@@Z12
xdata$x	SEGMENT
__CT??_R0?AVbad_array_new_length@std@@@8??0bad_array_new_length@std@@QAE@ABV01@@Z12 DD 00H
	DD	FLAT:??_R0?AVbad_array_new_length@std@@@8
	DD	00H
	DD	0ffffffffH
	ORG $+4
	DD	0cH
	DD	FLAT:??0bad_array_new_length@std@@QAE@ABV01@@Z
xdata$x	ENDS
;	COMDAT ??_R0?AVbad_array_new_length@std@@@8
data$r	SEGMENT
??_R0?AVbad_array_new_length@std@@@8 DD FLAT:??_7type_info@@6B@ ; std::bad_array_new_length `RTTI Type Descriptor'
	DD	00H
	DB	'.?AVbad_array_new_length@std@@', 00H
data$r	ENDS
;	COMDAT __CTA3?AVbad_array_new_length@std@@
xdata$x	SEGMENT
__CTA3?AVbad_array_new_length@std@@ DD 03H
	DD	FLAT:__CT??_R0?AVbad_array_new_length@std@@@8??0bad_array_new_length@std@@QAE@ABV01@@Z12
	DD	FLAT:__CT??_R0?AVbad_alloc@std@@@8??0bad_alloc@std@@QAE@ABV01@@Z12
	DD	FLAT:__CT??_R0?AVexception@std@@@8??0exception@std@@QAE@ABV01@@Z12
xdata$x	ENDS
;	COMDAT __TI3?AVbad_array_new_length@std@@
xdata$x	SEGMENT
__TI3?AVbad_array_new_length@std@@ DD 00H
	DD	FLAT:??1bad_array_new_length@std@@UAE@XZ
	DD	00H
	DD	FLAT:__CTA3?AVbad_array_new_length@std@@
xdata$x	ENDS
;	COMDAT __CT??_R0?AVexception@std@@@8??0exception@std@@QAE@ABV01@@Z12
xdata$x	SEGMENT
__CT??_R0?AVexception@std@@@8??0exception@std@@QAE@ABV01@@Z12 DD 00H
	DD	FLAT:??_R0?AVexception@std@@@8
	DD	00H
	DD	0ffffffffH
	ORG $+4
	DD	0cH
	DD	FLAT:??0exception@std@@QAE@ABV01@@Z
xdata$x	ENDS
;	COMDAT ??_R0?AVexception@std@@@8
data$r	SEGMENT
??_R0?AVexception@std@@@8 DD FLAT:??_7type_info@@6B@	; std::exception `RTTI Type Descriptor'
	DD	00H
	DB	'.?AVexception@std@@', 00H
data$r	ENDS
;	COMDAT ??_C@_0BF@KINCDENJ@bad?5array?5new?5length@
CONST	SEGMENT
??_C@_0BF@KINCDENJ@bad?5array?5new?5length@ DB 'bad array new length', 00H ; `string'
CONST	ENDS
;	COMDAT ??_7bad_array_new_length@std@@6B@
CONST	SEGMENT
??_7bad_array_new_length@std@@6B@ DD FLAT:??_R4bad_array_new_length@std@@6B@ ; std::bad_array_new_length::`vftable'
	DD	FLAT:??_Ebad_array_new_length@std@@UAEPAXI@Z
	DD	FLAT:?what@exception@std@@UBEPBDXZ
CONST	ENDS
;	COMDAT ??_7bad_alloc@std@@6B@
CONST	SEGMENT
??_7bad_alloc@std@@6B@ DD FLAT:??_R4bad_alloc@std@@6B@	; std::bad_alloc::`vftable'
	DD	FLAT:??_Ebad_alloc@std@@UAEPAXI@Z
	DD	FLAT:?what@exception@std@@UBEPBDXZ
CONST	ENDS
;	COMDAT ??_C@_0BC@EOODALEL@Unknown?5exception@
CONST	SEGMENT
??_C@_0BC@EOODALEL@Unknown?5exception@ DB 'Unknown exception', 00H ; `string'
CONST	ENDS
;	COMDAT ??_7exception@std@@6B@
CONST	SEGMENT
??_7exception@std@@6B@ DD FLAT:??_R4exception@std@@6B@	; std::exception::`vftable'
	DD	FLAT:??_Eexception@std@@UAEPAXI@Z
	DD	FLAT:?what@exception@std@@UBEPBDXZ
CONST	ENDS
;	COMDAT xdata$x
xdata$x	SEGMENT
__unwindtable$??$?0U?$pair@$$CBKP8CDPAccountClient@@AEXAAVCAr@@PAEK@Z@std@@@?$_Tree_temp_node@V?$allocator@U?$_Tree_node@U?$pair@$$CBKP8CDPAccountClient@@AEXAAVCAr@@PAEK@Z@std@@PAX@std@@@std@@@std@@QAE@AAV?$allocator@U?$_Tree_node@U?$pair@$$CBKP8CDPAccountClient@@AEXAAVCAr@@PAEK@Z@std@@PAX@std@@@1@PAU?$_Tree_node@U?$pair@$$CBKP8CDPAccountClient@@AEXAAVCAr@@PAEK@Z@std@@PAX@1@$$QAU?$pair@$$CBKP8CDPAccountClient@@AEXAAVCAr@@PAEK@Z@1@@Z DD 0ffffffffH
	DD	FLAT:__unwindfunclet$??$?0U?$pair@$$CBKP8CDPAccountClient@@AEXAAVCAr@@PAEK@Z@std@@@?$_Tree_temp_node@V?$allocator@U?$_Tree_node@U?$pair@$$CBKP8CDPAccountClient@@AEXAAVCAr@@PAEK@Z@std@@PAX@std@@@std@@@std@@QAE@AAV?$allocator@U?$_Tree_node@U?$pair@$$CBKP8CDPAccountClient@@AEXAAVCAr@@PAEK@Z@std@@PAX@std@@@1@PAU?$_Tree_node@U?$pair@$$CBKP8CDPAccountClient@@AEXAAVCAr@@PAEK@Z@std@@PAX@1@$$QAU?$pair@$$CBKP8CDPAccountClient@@AEXAAVCAr@@PAEK@Z@1@@Z$1
__ehfuncinfo$??$?0U?$pair@$$CBKP8CDPAccountClient@@AEXAAVCAr@@PAEK@Z@std@@@?$_Tree_temp_node@V?$allocator@U?$_Tree_node@U?$pair@$$CBKP8CDPAccountClient@@AEXAAVCAr@@PAEK@Z@std@@PAX@std@@@std@@@std@@QAE@AAV?$allocator@U?$_Tree_node@U?$pair@$$CBKP8CDPAccountClient@@AEXAAVCAr@@PAEK@Z@std@@PAX@std@@@1@PAU?$_Tree_node@U?$pair@$$CBKP8CDPAccountClient@@AEXAAVCAr@@PAEK@Z@std@@PAX@1@$$QAU?$pair@$$CBKP8CDPAccountClient@@AEXAAVCAr@@PAEK@Z@1@@Z DD 019930522H
	DD	01H
	DD	FLAT:__unwindtable$??$?0U?$pair@$$CBKP8CDPAccountClient@@AEXAAVCAr@@PAEK@Z@std@@@?$_Tree_temp_node@V?$allocator@U?$_Tree_node@U?$pair@$$CBKP8CDPAccountClient@@AEXAAVCAr@@PAEK@Z@std@@PAX@std@@@std@@@std@@QAE@AAV?$allocator@U?$_Tree_node@U?$pair@$$CBKP8CDPAccountClient@@AEXAAVCAr@@PAEK@Z@std@@PAX@std@@@1@PAU?$_Tree_node@U?$pair@$$CBKP8CDPAccountClient@@AEXAAVCAr@@PAEK@Z@std@@PAX@1@$$QAU?$pair@$$CBKP8CDPAccountClient@@AEXAAVCAr@@PAEK@Z@1@@Z
	DD	2 DUP(00H)
	DD	2 DUP(00H)
	DD	00H
	DD	01H
xdata$x	ENDS
;	COMDAT xdata$x
xdata$x	SEGMENT
__unwindtable$??0?$_Tree_temp_node_alloc@V?$allocator@U?$_Tree_node@U?$pair@$$CBKP8CDPAccountClient@@AEXAAVCAr@@PAEK@Z@std@@PAX@std@@@std@@@std@@QAE@AAV?$allocator@U?$_Tree_node@U?$pair@$$CBKP8CDPAccountClient@@AEXAAVCAr@@PAEK@Z@std@@PAX@std@@@1@@Z DD 0ffffffffH
	DD	FLAT:__unwindfunclet$??0?$_Tree_temp_node_alloc@V?$allocator@U?$_Tree_node@U?$pair@$$CBKP8CDPAccountClient@@AEXAAVCAr@@PAEK@Z@std@@PAX@std@@@std@@@std@@QAE@AAV?$allocator@U?$_Tree_node@U?$pair@$$CBKP8CDPAccountClient@@AEXAAVCAr@@PAEK@Z@std@@PAX@std@@@1@@Z$0
__ehfuncinfo$??0?$_Tree_temp_node_alloc@V?$allocator@U?$_Tree_node@U?$pair@$$CBKP8CDPAccountClient@@AEXAAVCAr@@PAEK@Z@std@@PAX@std@@@std@@@std@@QAE@AAV?$allocator@U?$_Tree_node@U?$pair@$$CBKP8CDPAccountClient@@AEXAAVCAr@@PAEK@Z@std@@PAX@std@@@1@@Z DD 019930522H
	DD	01H
	DD	FLAT:__unwindtable$??0?$_Tree_temp_node_alloc@V?$allocator@U?$_Tree_node@U?$pair@$$CBKP8CDPAccountClient@@AEXAAVCAr@@PAEK@Z@std@@PAX@std@@@std@@@std@@QAE@AAV?$allocator@U?$_Tree_node@U?$pair@$$CBKP8CDPAccountClient@@AEXAAVCAr@@PAEK@Z@std@@PAX@std@@@1@@Z
	DD	2 DUP(00H)
	DD	2 DUP(00H)
	DD	00H
	DD	01H
xdata$x	ENDS
;	COMDAT xdata$x
xdata$x	SEGMENT
__unwindtable$??$_Emplace@U?$pair@$$CBKP8CDPAccountClient@@AEXAAVCAr@@PAEK@Z@std@@@?$_Tree@V?$_Tmap_traits@KP8CDPAccountClient@@AEXAAVCAr@@PAEK@ZU?$less@K@std@@V?$allocator@U?$pair@$$CBKP8CDPAccountClient@@AEXAAVCAr@@PAEK@Z@std@@@4@$0A@@std@@@std@@IAE?AU?$pair@PAU?$_Tree_node@U?$pair@$$CBKP8CDPAccountClient@@AEXAAVCAr@@PAEK@Z@std@@PAX@std@@_N@1@$$QAU?$pair@$$CBKP8CDPAccountClient@@AEXAAVCAr@@PAEK@Z@1@@Z DD 0ffffffffH
	DD	FLAT:__unwindfunclet$??$_Emplace@U?$pair@$$CBKP8CDPAccountClient@@AEXAAVCAr@@PAEK@Z@std@@@?$_Tree@V?$_Tmap_traits@KP8CDPAccountClient@@AEXAAVCAr@@PAEK@ZU?$less@K@std@@V?$allocator@U?$pair@$$CBKP8CDPAccountClient@@AEXAAVCAr@@PAEK@Z@std@@@4@$0A@@std@@@std@@IAE?AU?$pair@PAU?$_Tree_node@U?$pair@$$CBKP8CDPAccountClient@@AEXAAVCAr@@PAEK@Z@std@@PAX@std@@_N@1@$$QAU?$pair@$$CBKP8CDPAccountClient@@AEXAAVCAr@@PAEK@Z@1@@Z$2
__ehfuncinfo$??$_Emplace@U?$pair@$$CBKP8CDPAccountClient@@AEXAAVCAr@@PAEK@Z@std@@@?$_Tree@V?$_Tmap_traits@KP8CDPAccountClient@@AEXAAVCAr@@PAEK@ZU?$less@K@std@@V?$allocator@U?$pair@$$CBKP8CDPAccountClient@@AEXAAVCAr@@PAEK@Z@std@@@4@$0A@@std@@@std@@IAE?AU?$pair@PAU?$_Tree_node@U?$pair@$$CBKP8CDPAccountClient@@AEXAAVCAr@@PAEK@Z@std@@PAX@std@@_N@1@$$QAU?$pair@$$CBKP8CDPAccountClient@@AEXAAVCAr@@PAEK@Z@1@@Z DD 019930522H
	DD	01H
	DD	FLAT:__unwindtable$??$_Emplace@U?$pair@$$CBKP8CDPAccountClient@@AEXAAVCAr@@PAEK@Z@std@@@?$_Tree@V?$_Tmap_traits@KP8CDPAccountClient@@AEXAAVCAr@@PAEK@ZU?$less@K@std@@V?$allocator@U?$pair@$$CBKP8CDPAccountClient@@AEXAAVCAr@@PAEK@Z@std@@@4@$0A@@std@@@std@@IAE?AU?$pair@PAU?$_Tree_node@U?$pair@$$CBKP8CDPAccountClient@@AEXAAVCAr@@PAEK@Z@std@@PAX@std@@_N@1@$$QAU?$pair@$$CBKP8CDPAccountClient@@AEXAAVCAr@@PAEK@Z@1@@Z
	DD	2 DUP(00H)
	DD	2 DUP(00H)
	DD	00H
	DD	01H
xdata$x	ENDS
;	COMDAT xdata$x
xdata$x	SEGMENT
__unwindtable$??$insert@$0A@$0A@@?$_Tree@V?$_Tmap_traits@KP8CDPAccountClient@@AEXAAVCAr@@PAEK@ZU?$less@K@std@@V?$allocator@U?$pair@$$CBKP8CDPAccountClient@@AEXAAVCAr@@PAEK@Z@std@@@4@$0A@@std@@@std@@QAE?AU?$pair@V?$_Tree_iterator@V?$_Tree_val@U?$_Tree_simple_types@U?$pair@$$CBKP8CDPAccountClient@@AEXAAVCAr@@PAEK@Z@std@@@std@@@std@@@std@@_N@1@$$QAU?$pair@$$CBKP8CDPAccountClient@@AEXAAVCAr@@PAEK@Z@1@@Z DD 0ffffffffH
	DD	FLAT:__unwindfunclet$??$insert@$0A@$0A@@?$_Tree@V?$_Tmap_traits@KP8CDPAccountClient@@AEXAAVCAr@@PAEK@ZU?$less@K@std@@V?$allocator@U?$pair@$$CBKP8CDPAccountClient@@AEXAAVCAr@@PAEK@Z@std@@@4@$0A@@std@@@std@@QAE?AU?$pair@V?$_Tree_iterator@V?$_Tree_val@U?$_Tree_simple_types@U?$pair@$$CBKP8CDPAccountClient@@AEXAAVCAr@@PAEK@Z@std@@@std@@@std@@@std@@_N@1@$$QAU?$pair@$$CBKP8CDPAccountClient@@AEXAAVCAr@@PAEK@Z@1@@Z$2
__ehfuncinfo$??$insert@$0A@$0A@@?$_Tree@V?$_Tmap_traits@KP8CDPAccountClient@@AEXAAVCAr@@PAEK@ZU?$less@K@std@@V?$allocator@U?$pair@$$CBKP8CDPAccountClient@@AEXAAVCAr@@PAEK@Z@std@@@4@$0A@@std@@@std@@QAE?AU?$pair@V?$_Tree_iterator@V?$_Tree_val@U?$_Tree_simple_types@U?$pair@$$CBKP8CDPAccountClient@@AEXAAVCAr@@PAEK@Z@std@@@std@@@std@@@std@@_N@1@$$QAU?$pair@$$CBKP8CDPAccountClient@@AEXAAVCAr@@PAEK@Z@1@@Z DD 019930522H
	DD	01H
	DD	FLAT:__unwindtable$??$insert@$0A@$0A@@?$_Tree@V?$_Tmap_traits@KP8CDPAccountClient@@AEXAAVCAr@@PAEK@ZU?$less@K@std@@V?$allocator@U?$pair@$$CBKP8CDPAccountClient@@AEXAAVCAr@@PAEK@Z@std@@@4@$0A@@std@@@std@@QAE?AU?$pair@V?$_Tree_iterator@V?$_Tree_val@U?$_Tree_simple_types@U?$pair@$$CBKP8CDPAccountClient@@AEXAAVCAr@@PAEK@Z@std@@@std@@@std@@@std@@_N@1@$$QAU?$pair@$$CBKP8CDPAccountClient@@AEXAAVCAr@@PAEK@Z@1@@Z
	DD	2 DUP(00H)
	DD	2 DUP(00H)
	DD	00H
	DD	01H
xdata$x	ENDS
;	COMDAT xdata$x
xdata$x	SEGMENT
__unwindtable$?SendBuyingInfo@CDPAccountClient@@QAEXPAU_BUYING_INFO2@@K@Z DD 0ffffffffH
	DD	FLAT:__unwindfunclet$?SendBuyingInfo@CDPAccountClient@@QAEXPAU_BUYING_INFO2@@K@Z$0
__ehfuncinfo$?SendBuyingInfo@CDPAccountClient@@QAEXPAU_BUYING_INFO2@@K@Z DD 019930522H
	DD	01H
	DD	FLAT:__unwindtable$?SendBuyingInfo@CDPAccountClient@@QAEXPAU_BUYING_INFO2@@K@Z
	DD	2 DUP(00H)
	DD	2 DUP(00H)
	DD	00H
	DD	01H
xdata$x	ENDS
;	COMDAT xdata$x
xdata$x	SEGMENT
__unwindtable$?SendRemoveAllAccounts@CDPAccountClient@@QAEXXZ DD 0ffffffffH
	DD	FLAT:__unwindfunclet$?SendRemoveAllAccounts@CDPAccountClient@@QAEXXZ$0
__ehfuncinfo$?SendRemoveAllAccounts@CDPAccountClient@@QAEXXZ DD 019930522H
	DD	01H
	DD	FLAT:__unwindtable$?SendRemoveAllAccounts@CDPAccountClient@@QAEXXZ
	DD	2 DUP(00H)
	DD	2 DUP(00H)
	DD	00H
	DD	01H
xdata$x	ENDS
;	COMDAT xdata$x
xdata$x	SEGMENT
__unwindtable$?SendRemoveAccount@CDPAccountClient@@QAEXPAD@Z DD 0ffffffffH
	DD	FLAT:__unwindfunclet$?SendRemoveAccount@CDPAccountClient@@QAEXPAD@Z$0
__ehfuncinfo$?SendRemoveAccount@CDPAccountClient@@QAEXPAD@Z DD 019930522H
	DD	01H
	DD	FLAT:__unwindtable$?SendRemoveAccount@CDPAccountClient@@QAEXPAD@Z
	DD	2 DUP(00H)
	DD	2 DUP(00H)
	DD	00H
	DD	01H
xdata$x	ENDS
;	COMDAT xdata$x
xdata$x	SEGMENT
__unwindtable$?SendAddIdofServer@CDPAccountClient@@QAEXK@Z DD 0ffffffffH
	DD	FLAT:__unwindfunclet$?SendAddIdofServer@CDPAccountClient@@QAEXK@Z$0
__ehfuncinfo$?SendAddIdofServer@CDPAccountClient@@QAEXK@Z DD 019930522H
	DD	01H
	DD	FLAT:__unwindtable$?SendAddIdofServer@CDPAccountClient@@QAEXK@Z
	DD	2 DUP(00H)
	DD	2 DUP(00H)
	DD	00H
	DD	01H
xdata$x	ENDS
;	COMDAT xdata$x
xdata$x	SEGMENT
__unwindtable$?UserMessageHandler@CDPAccountClient@@UAEXPAUDPMSG_GENERIC@@KK@Z DD 0ffffffffH
	DD	FLAT:__unwindfunclet$?UserMessageHandler@CDPAccountClient@@UAEXPAUDPMSG_GENERIC@@KK@Z$0
__ehfuncinfo$?UserMessageHandler@CDPAccountClient@@UAEXPAUDPMSG_GENERIC@@KK@Z DD 019930522H
	DD	01H
	DD	FLAT:__unwindtable$?UserMessageHandler@CDPAccountClient@@UAEXPAUDPMSG_GENERIC@@KK@Z
	DD	2 DUP(00H)
	DD	2 DUP(00H)
	DD	00H
	DD	01H
xdata$x	ENDS
;	COMDAT xdata$x
xdata$x	SEGMENT
__ehfuncinfo$??0CDPAccountClient@@QAE@XZ DD 019930522H
	DD	0aH
	DD	FLAT:__unwindtable$??0CDPAccountClient@@QAE@XZ
	DD	2 DUP(00H)
	DD	2 DUP(00H)
	DD	00H
	DD	01H
__unwindtable$??0CDPAccountClient@@QAE@XZ DD 0ffffffffH
	DD	FLAT:__unwindfunclet$??0CDPAccountClient@@QAE@XZ$0
	DD	00H
	DD	FLAT:__unwindfunclet$??0CDPAccountClient@@QAE@XZ$1
	DD	01H
	DD	FLAT:__unwindfunclet$??0CDPAccountClient@@QAE@XZ$5
	DD	01H
	DD	FLAT:__unwindfunclet$??0CDPAccountClient@@QAE@XZ$10
	DD	01H
	DD	FLAT:__unwindfunclet$??0CDPAccountClient@@QAE@XZ$15
	DD	01H
	DD	FLAT:__unwindfunclet$??0CDPAccountClient@@QAE@XZ$20
	DD	01H
	DD	FLAT:__unwindfunclet$??0CDPAccountClient@@QAE@XZ$25
	DD	01H
	DD	FLAT:__unwindfunclet$??0CDPAccountClient@@QAE@XZ$30
	DD	01H
	DD	FLAT:__unwindfunclet$??0CDPAccountClient@@QAE@XZ$35
	DD	01H
	DD	FLAT:__unwindfunclet$??0CDPAccountClient@@QAE@XZ$40
xdata$x	ENDS
; Function compile flags: /Ogtp
; File C:\Program Files\Microsoft Visual Studio\2022\Professional\VC\Tools\MSVC\14.44.35207\include\xtree
; File C:\Program Files\Microsoft Visual Studio\2022\Professional\VC\Tools\MSVC\14.44.35207\include\utility
; File C:\Program Files\Microsoft Visual Studio\2022\Professional\VC\Tools\MSVC\14.44.35207\include\xmemory
; File C:\Program Files\Microsoft Visual Studio\2022\Professional\VC\Tools\MSVC\14.44.35207\include\xtree
;	COMDAT ??$_Erase_tree@V?$allocator@U?$_Tree_node@U?$pair@$$CBKP8CDPAccountClient@@AEXAAVCAr@@PAEK@Z@std@@PAX@std@@@std@@@?$_Tree_val@U?$_Tree_simple_types@U?$pair@$$CBKP8CDPAccountClient@@AEXAAVCAr@@PAEK@Z@std@@@std@@@std@@QAEXAAV?$allocator@U?$_Tree_node@U?$pair@$$CBKP8CDPAccountClient@@AEXAAVCAr@@PAEK@Z@std@@PAX@std@@@1@PAU?$_Tree_node@U?$pair@$$CBKP8CDPAccountClient@@AEXAAVCAr@@PAEK@Z@std@@PAX@1@@Z
_TEXT	SEGMENT
__Al$ = 8						; size = 4
__Rootnode$ = 12					; size = 4
??$_Erase_tree@V?$allocator@U?$_Tree_node@U?$pair@$$CBKP8CDPAccountClient@@AEXAAVCAr@@PAEK@Z@std@@PAX@std@@@std@@@?$_Tree_val@U?$_Tree_simple_types@U?$pair@$$CBKP8CDPAccountClient@@AEXAAVCAr@@PAEK@Z@std@@@std@@@std@@QAEXAAV?$allocator@U?$_Tree_node@U?$pair@$$CBKP8CDPAccountClient@@AEXAAVCAr@@PAEK@Z@std@@PAX@std@@@1@PAU?$_Tree_node@U?$pair@$$CBKP8CDPAccountClient@@AEXAAVCAr@@PAEK@Z@std@@PAX@1@@Z PROC ; std::_Tree_val<std::_Tree_simple_types<std::pair<unsigned long const ,void (__thiscall CDPAccountClient::*)(CAr &,unsigned char *,unsigned long)> > >::_Erase_tree<std::allocator<std::_Tree_node<std::pair<unsigned long const ,void (__thiscall CDPAccountClient::*)(CAr &,unsigned char *,unsigned long)>,void *> > >, COMDAT
; _this$ = ecx

; 767  :     void _Erase_tree(_Alnode& _Al, _Nodeptr _Rootnode) noexcept {

  00000	55		 push	 ebp
  00001	8b ec		 mov	 ebp, esp
  00003	53		 push	 ebx
  00004	56		 push	 esi

; 768  :         while (!_Rootnode->_Isnil) { // free subtrees, then node

  00005	8b 75 0c	 mov	 esi, DWORD PTR __Rootnode$[ebp]
  00008	8b d9		 mov	 ebx, ecx
  0000a	80 7e 0d 00	 cmp	 BYTE PTR [esi+13], 0
  0000e	75 25		 jne	 SHORT $LN34@Erase_tree
  00010	57		 push	 edi
  00011	8b 7d 08	 mov	 edi, DWORD PTR __Al$[ebp]
$LL2@Erase_tree:

; 769  :             _Erase_tree(_Al, _Rootnode->_Right);

  00014	ff 76 08	 push	 DWORD PTR [esi+8]
  00017	8b cb		 mov	 ecx, ebx
  00019	57		 push	 edi
  0001a	e8 00 00 00 00	 call	 ??$_Erase_tree@V?$allocator@U?$_Tree_node@U?$pair@$$CBKP8CDPAccountClient@@AEXAAVCAr@@PAEK@Z@std@@PAX@std@@@std@@@?$_Tree_val@U?$_Tree_simple_types@U?$pair@$$CBKP8CDPAccountClient@@AEXAAVCAr@@PAEK@Z@std@@@std@@@std@@QAEXAAV?$allocator@U?$_Tree_node@U?$pair@$$CBKP8CDPAccountClient@@AEXAAVCAr@@PAEK@Z@std@@PAX@std@@@1@PAU?$_Tree_node@U?$pair@$$CBKP8CDPAccountClient@@AEXAAVCAr@@PAEK@Z@std@@PAX@1@@Z ; std::_Tree_val<std::_Tree_simple_types<std::pair<unsigned long const ,void (__thiscall CDPAccountClient::*)(CAr &,unsigned char *,unsigned long)> > >::_Erase_tree<std::allocator<std::_Tree_node<std::pair<unsigned long const ,void (__thiscall CDPAccountClient::*)(CAr &,unsigned char *,unsigned long)>,void *> > >
; File C:\Program Files\Microsoft Visual Studio\2022\Professional\VC\Tools\MSVC\14.44.35207\include\utility

; 773  :     _Ty _Old_val = static_cast<_Ty&&>(_Val);

  0001f	8b c6		 mov	 eax, esi

; 774  :     _Val         = static_cast<_Other&&>(_New_val);

  00021	8b 36		 mov	 esi, DWORD PTR [esi]
; File C:\Program Files\Microsoft Visual Studio\2022\Professional\VC\Tools\MSVC\14.44.35207\include\xmemory

; 289  :         ::operator delete(_Ptr, _Bytes);

  00023	6a 18		 push	 24			; 00000018H
  00025	50		 push	 eax
  00026	e8 00 00 00 00	 call	 ??3@YAXPAXI@Z		; operator delete
  0002b	83 c4 08	 add	 esp, 8
; File C:\Program Files\Microsoft Visual Studio\2022\Professional\VC\Tools\MSVC\14.44.35207\include\xtree

; 768  :         while (!_Rootnode->_Isnil) { // free subtrees, then node

  0002e	80 7e 0d 00	 cmp	 BYTE PTR [esi+13], 0
  00032	74 e0		 je	 SHORT $LL2@Erase_tree
  00034	5f		 pop	 edi
$LN34@Erase_tree:
  00035	5e		 pop	 esi

; 770  :             _Alnode::value_type::_Freenode(_Al, _STD exchange(_Rootnode, _Rootnode->_Left));
; 771  :         }
; 772  :     }

  00036	5b		 pop	 ebx
  00037	5d		 pop	 ebp
  00038	c2 08 00	 ret	 8
??$_Erase_tree@V?$allocator@U?$_Tree_node@U?$pair@$$CBKP8CDPAccountClient@@AEXAAVCAr@@PAEK@Z@std@@PAX@std@@@std@@@?$_Tree_val@U?$_Tree_simple_types@U?$pair@$$CBKP8CDPAccountClient@@AEXAAVCAr@@PAEK@Z@std@@@std@@@std@@QAEXAAV?$allocator@U?$_Tree_node@U?$pair@$$CBKP8CDPAccountClient@@AEXAAVCAr@@PAEK@Z@std@@PAX@std@@@1@PAU?$_Tree_node@U?$pair@$$CBKP8CDPAccountClient@@AEXAAVCAr@@PAEK@Z@std@@PAX@1@@Z ENDP ; std::_Tree_val<std::_Tree_simple_types<std::pair<unsigned long const ,void (__thiscall CDPAccountClient::*)(CAr &,unsigned char *,unsigned long)> > >::_Erase_tree<std::allocator<std::_Tree_node<std::pair<unsigned long const ,void (__thiscall CDPAccountClient::*)(CAr &,unsigned char *,unsigned long)>,void *> > >
_TEXT	ENDS
; Function compile flags: /Ogtp
; File C:\Program Files\Microsoft Visual Studio\2022\Professional\VC\Tools\MSVC\14.44.35207\include\xmemory
;	COMDAT ??1?$_Alloc_construct_ptr@V?$allocator@U?$_Tree_node@U?$pair@$$CBKP8CDPAccountClient@@AEXAAVCAr@@PAEK@Z@std@@PAX@std@@@std@@@std@@QAE@XZ
_TEXT	SEGMENT
??1?$_Alloc_construct_ptr@V?$allocator@U?$_Tree_node@U?$pair@$$CBKP8CDPAccountClient@@AEXAAVCAr@@PAEK@Z@std@@PAX@std@@@std@@@std@@QAE@XZ PROC ; std::_Alloc_construct_ptr<std::allocator<std::_Tree_node<std::pair<unsigned long const ,void (__thiscall CDPAccountClient::*)(CAr &,unsigned char *,unsigned long)>,void *> > >::~_Alloc_construct_ptr<std::allocator<std::_Tree_node<std::pair<unsigned long const ,void (__thiscall CDPAccountClient::*)(CAr &,unsigned char *,unsigned long)>,void *> > >, COMDAT
; _this$ = ecx

; 1172 :         if (_Ptr) {

  00000	8b 41 04	 mov	 eax, DWORD PTR [ecx+4]
  00003	85 c0		 test	 eax, eax
  00005	74 0b		 je	 SHORT $LN10@Alloc_cons

; 289  :         ::operator delete(_Ptr, _Bytes);

  00007	6a 18		 push	 24			; 00000018H
  00009	50		 push	 eax
  0000a	e8 00 00 00 00	 call	 ??3@YAXPAXI@Z		; operator delete
  0000f	83 c4 08	 add	 esp, 8
$LN10@Alloc_cons:

; 1173 :             _Al.deallocate(_Ptr, 1);
; 1174 :         }
; 1175 :     }

  00012	c3		 ret	 0
??1?$_Alloc_construct_ptr@V?$allocator@U?$_Tree_node@U?$pair@$$CBKP8CDPAccountClient@@AEXAAVCAr@@PAEK@Z@std@@PAX@std@@@std@@@std@@QAE@XZ ENDP ; std::_Alloc_construct_ptr<std::allocator<std::_Tree_node<std::pair<unsigned long const ,void (__thiscall CDPAccountClient::*)(CAr &,unsigned char *,unsigned long)>,void *> > >::~_Alloc_construct_ptr<std::allocator<std::_Tree_node<std::pair<unsigned long const ,void (__thiscall CDPAccountClient::*)(CAr &,unsigned char *,unsigned long)>,void *> > >
_TEXT	ENDS
; Function compile flags: /Ogtp
; File C:\Program Files\Microsoft Visual Studio\2022\Professional\VC\Tools\MSVC\14.44.35207\include\xtree
; File C:\Program Files\Microsoft Visual Studio\2022\Professional\VC\Tools\MSVC\14.44.35207\include\type_traits
; File C:\Program Files\Microsoft Visual Studio\2022\Professional\VC\Tools\MSVC\14.44.35207\include\xtree
; File C:\Program Files\Microsoft Visual Studio\2022\Professional\VC\Tools\MSVC\14.44.35207\include\type_traits
; File C:\Program Files\Microsoft Visual Studio\2022\Professional\VC\Tools\MSVC\14.44.35207\include\xtree
;	COMDAT ??$_Find_lower_bound@K@?$_Tree@V?$_Tmap_traits@KP8CDPAccountClient@@AEXAAVCAr@@PAEK@ZU?$less@K@std@@V?$allocator@U?$pair@$$CBKP8CDPAccountClient@@AEXAAVCAr@@PAEK@Z@std@@@4@$0A@@std@@@std@@IBE?AU?$_Tree_find_result@PAU?$_Tree_node@U?$pair@$$CBKP8CDPAccountClient@@AEXAAVCAr@@PAEK@Z@std@@PAX@std@@@1@ABK@Z
_TEXT	SEGMENT
___$ReturnUdt$ = 8					; size = 4
__Keyval$ = 12						; size = 4
??$_Find_lower_bound@K@?$_Tree@V?$_Tmap_traits@KP8CDPAccountClient@@AEXAAVCAr@@PAEK@ZU?$less@K@std@@V?$allocator@U?$pair@$$CBKP8CDPAccountClient@@AEXAAVCAr@@PAEK@Z@std@@@4@$0A@@std@@@std@@IBE?AU?$_Tree_find_result@PAU?$_Tree_node@U?$pair@$$CBKP8CDPAccountClient@@AEXAAVCAr@@PAEK@Z@std@@PAX@std@@@1@ABK@Z PROC ; std::_Tree<std::_Tmap_traits<unsigned long,void (__thiscall CDPAccountClient::*)(CAr &,unsigned char *,unsigned long),std::less<unsigned long>,std::allocator<std::pair<unsigned long const ,void (__thiscall CDPAccountClient::*)(CAr &,unsigned char *,unsigned long)> >,0> >::_Find_lower_bound<unsigned long>, COMDAT
; _this$ = ecx

; 1628 :     _Tree_find_result<_Nodeptr> _Find_lower_bound(const _Keyty& _Keyval) const {

  00000	55		 push	 ebp
  00001	8b ec		 mov	 ebp, esp

; 1629 :         const auto _Scary = _Get_scary();
; 1630 :         _Tree_find_result<_Nodeptr> _Result{{_Scary->_Myhead->_Parent, _Tree_child::_Right}, _Scary->_Myhead};

  00003	8b 09		 mov	 ecx, DWORD PTR [ecx]
  00005	8b 55 08	 mov	 edx, DWORD PTR ___$ReturnUdt$[ebp]
  00008	8b 41 04	 mov	 eax, DWORD PTR [ecx+4]
  0000b	89 02		 mov	 DWORD PTR [edx], eax
  0000d	c7 42 04 00 00
	00 00		 mov	 DWORD PTR [edx+4], 0
  00014	89 4a 08	 mov	 DWORD PTR [edx+8], ecx

; 1631 :         _Nodeptr _Trynode = _Result._Location._Parent;
; 1632 :         while (!_Trynode->_Isnil) {

  00017	80 78 0d 00	 cmp	 BYTE PTR [eax+13], 0
  0001b	75 28		 jne	 SHORT $LN13@Find_lower
; File C:\Program Files\Microsoft Visual Studio\2022\Professional\VC\Tools\MSVC\14.44.35207\include\type_traits

; 2380 :         return _Left < _Right;

  0001d	8b 4d 0c	 mov	 ecx, DWORD PTR __Keyval$[ebp]
  00020	56		 push	 esi
  00021	8b 31		 mov	 esi, DWORD PTR [ecx]
$LL2@Find_lower:
; File C:\Program Files\Microsoft Visual Studio\2022\Professional\VC\Tools\MSVC\14.44.35207\include\xtree

; 1633 :             _Result._Location._Parent = _Trynode;

  00023	89 02		 mov	 DWORD PTR [edx], eax
; File C:\Program Files\Microsoft Visual Studio\2022\Professional\VC\Tools\MSVC\14.44.35207\include\type_traits

; 2380 :         return _Left < _Right;

  00025	39 70 10	 cmp	 DWORD PTR [eax+16], esi
; File C:\Program Files\Microsoft Visual Studio\2022\Professional\VC\Tools\MSVC\14.44.35207\include\xtree

; 1634 :             if (_DEBUG_LT_PRED(_Getcomp(), _Traits::_Kfn(_Trynode->_Myval), _Keyval)) {

  00028	73 07		 jae	 SHORT $LN4@Find_lower

; 1635 :                 _Result._Location._Child = _Tree_child::_Right;
; 1636 :                 _Trynode                 = _Trynode->_Right;

  0002a	8b 40 08	 mov	 eax, DWORD PTR [eax+8]
  0002d	33 c9		 xor	 ecx, ecx

; 1637 :             } else {

  0002f	eb 0a		 jmp	 SHORT $LN5@Find_lower
$LN4@Find_lower:

; 1638 :                 _Result._Location._Child = _Tree_child::_Left;
; 1639 :                 _Result._Bound           = _Trynode;

  00031	89 42 08	 mov	 DWORD PTR [edx+8], eax

; 1640 :                 _Trynode                 = _Trynode->_Left;

  00034	b9 01 00 00 00	 mov	 ecx, 1
  00039	8b 00		 mov	 eax, DWORD PTR [eax]
$LN5@Find_lower:

; 1631 :         _Nodeptr _Trynode = _Result._Location._Parent;
; 1632 :         while (!_Trynode->_Isnil) {

  0003b	89 4a 04	 mov	 DWORD PTR [edx+4], ecx
  0003e	80 78 0d 00	 cmp	 BYTE PTR [eax+13], 0
  00042	74 df		 je	 SHORT $LL2@Find_lower
  00044	5e		 pop	 esi
$LN13@Find_lower:

; 1641 :             }
; 1642 :         }
; 1643 : 
; 1644 :         return _Result;
; 1645 :     }

  00045	8b c2		 mov	 eax, edx
  00047	5d		 pop	 ebp
  00048	c2 08 00	 ret	 8
??$_Find_lower_bound@K@?$_Tree@V?$_Tmap_traits@KP8CDPAccountClient@@AEXAAVCAr@@PAEK@ZU?$less@K@std@@V?$allocator@U?$pair@$$CBKP8CDPAccountClient@@AEXAAVCAr@@PAEK@Z@std@@@4@$0A@@std@@@std@@IBE?AU?$_Tree_find_result@PAU?$_Tree_node@U?$pair@$$CBKP8CDPAccountClient@@AEXAAVCAr@@PAEK@Z@std@@PAX@std@@@1@ABK@Z ENDP ; std::_Tree<std::_Tmap_traits<unsigned long,void (__thiscall CDPAccountClient::*)(CAr &,unsigned char *,unsigned long),std::less<unsigned long>,std::allocator<std::pair<unsigned long const ,void (__thiscall CDPAccountClient::*)(CAr &,unsigned char *,unsigned long)> >,0> >::_Find_lower_bound<unsigned long>
_TEXT	ENDS
; Function compile flags: /Ogtp
;	COMDAT ??__Fg_dpAccountClient@@YAXXZ
text$yd	SEGMENT
??__Fg_dpAccountClient@@YAXXZ PROC			; `dynamic atexit destructor for 'g_dpAccountClient'', COMDAT
  00000	b9 00 00 00 00	 mov	 ecx, OFFSET ?g_dpAccountClient@@3VCDPAccountClient@@A ; g_dpAccountClient
  00005	e9 00 00 00 00	 jmp	 ??1CDPAccountClient@@UAE@XZ ; CDPAccountClient::~CDPAccountClient
??__Fg_dpAccountClient@@YAXXZ ENDP			; `dynamic atexit destructor for 'g_dpAccountClient''
text$yd	ENDS
; Function compile flags: /Ogtp
; File C:\IAGOS\server\v18\Source\Source\DatabaseServer\dpaccountclient.cpp
;	COMDAT ??__Eg_dpAccountClient@@YAXXZ
text$di	SEGMENT
??__Eg_dpAccountClient@@YAXXZ PROC			; `dynamic initializer for 'g_dpAccountClient'', COMDAT

; 258  : CDPAccountClient	g_dpAccountClient;

  00000	b9 00 00 00 00	 mov	 ecx, OFFSET ?g_dpAccountClient@@3VCDPAccountClient@@A ; g_dpAccountClient
  00005	e8 00 00 00 00	 call	 ??0CDPAccountClient@@QAE@XZ ; CDPAccountClient::CDPAccountClient
  0000a	68 00 00 00 00	 push	 OFFSET ??__Fg_dpAccountClient@@YAXXZ ; `dynamic atexit destructor for 'g_dpAccountClient''
  0000f	e8 00 00 00 00	 call	 _atexit
  00014	59		 pop	 ecx
  00015	c3		 ret	 0
??__Eg_dpAccountClient@@YAXXZ ENDP			; `dynamic initializer for 'g_dpAccountClient''
text$di	ENDS
; Function compile flags: /Ogtp
; File C:\IAGOS\server\v18\Source\Source\_Network\Misc\Include\Ar.h
;	COMDAT ??$?5J@CAr@@QAEAAV0@AAJ@Z
_TEXT	SEGMENT
_t$ = 8							; size = 4
??$?5J@CAr@@QAEAAV0@AAJ@Z PROC				; CAr::operator>><long>, COMDAT
; _this$ = ecx

; 302  : {

  00000	55		 push	 ebp
  00001	8b ec		 mov	 ebp, esp
  00003	8b d1		 mov	 edx, ecx

; 303  : 	if (m_lpBufCur + sizeof(T) <= m_lpBufMax)

  00005	8b 4a 08	 mov	 ecx, DWORD PTR [edx+8]
  00008	8d 41 04	 lea	 eax, DWORD PTR [ecx+4]
  0000b	3b 42 0c	 cmp	 eax, DWORD PTR [edx+12]
  0000e	8b 45 08	 mov	 eax, DWORD PTR _t$[ebp]
  00011	77 0e		 ja	 SHORT $LN2@operator

; 304  : 	{
; 305  : 		t = *(UNALIGNED T*)m_lpBufCur;

  00013	8b 09		 mov	 ecx, DWORD PTR [ecx]
  00015	89 08		 mov	 DWORD PTR [eax], ecx

; 312  : 	}
; 313  : 	return *this;
; 314  : }

  00017	8b c2		 mov	 eax, edx
  00019	83 42 08 04	 add	 DWORD PTR [edx+8], 4
  0001d	5d		 pop	 ebp
  0001e	c2 04 00	 ret	 4
$LN2@operator:

; 306  : 		m_lpBufCur += sizeof(T);
; 307  : 	}
; 308  : 	else
; 309  : 	{
; 310  : 		t = T();

  00021	c7 00 00 00 00
	00		 mov	 DWORD PTR [eax], 0

; 311  : 		m_lpBufCur = m_lpBufMax;

  00027	8b 42 0c	 mov	 eax, DWORD PTR [edx+12]
  0002a	89 42 08	 mov	 DWORD PTR [edx+8], eax

; 312  : 	}
; 313  : 	return *this;
; 314  : }

  0002d	8b c2		 mov	 eax, edx
  0002f	5d		 pop	 ebp
  00030	c2 04 00	 ret	 4
??$?5J@CAr@@QAEAAV0@AAJ@Z ENDP				; CAr::operator>><long>
_TEXT	ENDS
; Function compile flags: /Ogtp
; File C:\IAGOS\server\v18\Source\Source\_Network\Misc\Include\Ar.h
;	COMDAT ??$?6K@CAr@@QAEAAV0@ABK@Z
_TEXT	SEGMENT
_t$ = 8							; size = 4
??$?6K@CAr@@QAEAAV0@ABK@Z PROC				; CAr::operator<<<unsigned long>, COMDAT
; _this$ = ecx

; 255  : {

  00000	55		 push	 ebp
  00001	8b ec		 mov	 ebp, esp
  00003	56		 push	 esi

; 256  : 	CheckBuf(sizeof(T));

  00004	6a 04		 push	 4
  00006	8b f1		 mov	 esi, ecx
  00008	e8 00 00 00 00	 call	 ?CheckBuf@CAr@@QAEXI@Z	; CAr::CheckBuf

; 257  : 	*(UNALIGNED T*)m_lpBufCur = t;

  0000d	8b 56 08	 mov	 edx, DWORD PTR [esi+8]
  00010	8b 45 08	 mov	 eax, DWORD PTR _t$[ebp]
  00013	8b 00		 mov	 eax, DWORD PTR [eax]
  00015	89 02		 mov	 DWORD PTR [edx], eax

; 258  : 	m_lpBufCur += sizeof(T);
; 259  : 	return *this;

  00017	8b c6		 mov	 eax, esi
  00019	83 46 08 04	 add	 DWORD PTR [esi+8], 4
  0001d	5e		 pop	 esi

; 260  : }

  0001e	5d		 pop	 ebp
  0001f	c2 04 00	 ret	 4
??$?6K@CAr@@QAEAAV0@ABK@Z ENDP				; CAr::operator<<<unsigned long>
_TEXT	ENDS
; Function compile flags: /Ogtp
; File C:\IAGOS\server\v18\Source\Source\_Network\Misc\Include\Ar.h
;	COMDAT ??$?5K@CAr@@QAEAAV0@AAK@Z
_TEXT	SEGMENT
_t$ = 8							; size = 4
??$?5K@CAr@@QAEAAV0@AAK@Z PROC				; CAr::operator>><unsigned long>, COMDAT
; _this$ = ecx

; 302  : {

  00000	55		 push	 ebp
  00001	8b ec		 mov	 ebp, esp
  00003	8b d1		 mov	 edx, ecx

; 303  : 	if (m_lpBufCur + sizeof(T) <= m_lpBufMax)

  00005	8b 4a 08	 mov	 ecx, DWORD PTR [edx+8]
  00008	8d 41 04	 lea	 eax, DWORD PTR [ecx+4]
  0000b	3b 42 0c	 cmp	 eax, DWORD PTR [edx+12]
  0000e	8b 45 08	 mov	 eax, DWORD PTR _t$[ebp]
  00011	77 0e		 ja	 SHORT $LN2@operator

; 304  : 	{
; 305  : 		t = *(UNALIGNED T*)m_lpBufCur;

  00013	8b 09		 mov	 ecx, DWORD PTR [ecx]
  00015	89 08		 mov	 DWORD PTR [eax], ecx

; 312  : 	}
; 313  : 	return *this;
; 314  : }

  00017	8b c2		 mov	 eax, edx
  00019	83 42 08 04	 add	 DWORD PTR [edx+8], 4
  0001d	5d		 pop	 ebp
  0001e	c2 04 00	 ret	 4
$LN2@operator:

; 306  : 		m_lpBufCur += sizeof(T);
; 307  : 	}
; 308  : 	else
; 309  : 	{
; 310  : 		t = T();

  00021	c7 00 00 00 00
	00		 mov	 DWORD PTR [eax], 0

; 311  : 		m_lpBufCur = m_lpBufMax;

  00027	8b 42 0c	 mov	 eax, DWORD PTR [edx+12]
  0002a	89 42 08	 mov	 DWORD PTR [edx+8], eax

; 312  : 	}
; 313  : 	return *this;
; 314  : }

  0002d	8b c2		 mov	 eax, edx
  0002f	5d		 pop	 ebp
  00030	c2 04 00	 ret	 4
??$?5K@CAr@@QAEAAV0@AAK@Z ENDP				; CAr::operator>><unsigned long>
_TEXT	ENDS
; Function compile flags: /Ogtp
;	COMDAT ??_GCDPAccountClient@@UAEPAXI@Z
_TEXT	SEGMENT
___flags$ = 8						; size = 4
??_GCDPAccountClient@@UAEPAXI@Z PROC			; CDPAccountClient::`scalar deleting destructor', COMDAT
; _this$ = ecx
  00000	55		 push	 ebp
  00001	8b ec		 mov	 ebp, esp
  00003	56		 push	 esi
  00004	8b f1		 mov	 esi, ecx
  00006	e8 00 00 00 00	 call	 ??1CDPAccountClient@@UAE@XZ ; CDPAccountClient::~CDPAccountClient
  0000b	f6 45 08 01	 test	 BYTE PTR ___flags$[ebp], 1
  0000f	74 0b		 je	 SHORT $LN5@scalar
  00011	6a 18		 push	 24			; 00000018H
  00013	56		 push	 esi
  00014	e8 00 00 00 00	 call	 ??3@YAXPAXI@Z		; operator delete
  00019	83 c4 08	 add	 esp, 8
$LN5@scalar:
  0001c	8b c6		 mov	 eax, esi
  0001e	5e		 pop	 esi
  0001f	5d		 pop	 ebp
  00020	c2 04 00	 ret	 4
??_GCDPAccountClient@@UAEPAXI@Z ENDP			; CDPAccountClient::`scalar deleting destructor'
_TEXT	ENDS
; Function compile flags: /Ogtp
; File C:\IAGOS\server\v18\Source\Source\DatabaseServer\dpaccountclient.cpp
; File C:\IAGOS\server\v18\Source\Source\_Common\buyinginfo.h
; File C:\IAGOS\server\v18\Source\Source\DatabaseServer\dpaccountclient.cpp
; File C:\IAGOS\server\v18\Source\Source\_Common\buyinginfo.h
; File C:\IAGOS\server\v18\Source\Source\DatabaseServer\dpaccountclient.cpp
;	COMDAT ?OnBuyingInfo@CDPAccountClient@@AAEXAAVCAr@@PAEK@Z
_TEXT	SEGMENT
_bi2$ = -60						; size = 56
__$ArrayPad$ = -4					; size = 4
_ar$ = 8						; size = 4
_lpBuf$ = 12						; size = 4
_uBufSize$ = 16						; size = 4
?OnBuyingInfo@CDPAccountClient@@AAEXAAVCAr@@PAEK@Z PROC	; CDPAccountClient::OnBuyingInfo, COMDAT
; _this$ = ecx

; 180  : {

  00000	55		 push	 ebp
  00001	8b ec		 mov	 ebp, esp
  00003	83 ec 3c	 sub	 esp, 60			; 0000003cH
  00006	a1 00 00 00 00	 mov	 eax, DWORD PTR ___security_cookie
  0000b	33 c5		 xor	 eax, ebp
  0000d	89 45 fc	 mov	 DWORD PTR __$ArrayPad$[ebp], eax
  00010	56		 push	 esi
  00011	8b 75 08	 mov	 esi, DWORD PTR _ar$[ebp]

; 181  : 	OutputDebugString( "DATABASESERVER.EXE\t// recv from account\n" );

  00014	68 00 00 00 00	 push	 OFFSET ??_C@_0CJ@KOMJOOLJ@DATABASESERVER?4EXE?7?1?1?5recv?5from@
  00019	ff 15 00 00 00
	00		 call	 DWORD PTR __imp__OutputDebugStringA@4

; 184  : 	ar.Read( &bi2, sizeof(BUYING_INFO2) );

  0001f	6a 38		 push	 56			; 00000038H
  00021	8d 45 c4	 lea	 eax, DWORD PTR _bi2$[ebp]
; File C:\IAGOS\server\v18\Source\Source\_Common\buyinginfo.h

; 16   : 		dwServerIndex	= 0;

  00024	c7 45 c4 00 00
	00 00		 mov	 DWORD PTR _bi2$[ebp], 0
  0002b	0f 57 c0	 xorps	 xmm0, xmm0

; 17   : 		dwPlayerId	= 0;

  0002e	c7 45 c8 00 00
	00 00		 mov	 DWORD PTR _bi2$[ebp+4], 0
; File C:\IAGOS\server\v18\Source\Source\DatabaseServer\dpaccountclient.cpp

; 184  : 	ar.Read( &bi2, sizeof(BUYING_INFO2) );

  00035	50		 push	 eax
  00036	8b ce		 mov	 ecx, esi
; File C:\IAGOS\server\v18\Source\Source\_Common\buyinginfo.h

; 18   : 		dwItemId	= 0;

  00038	c7 45 d0 00 00
	00 00		 mov	 DWORD PTR _bi2$[ebp+12], 0

; 19   : 		dwItemNum	= 0;

  0003f	c7 45 d4 00 00
	00 00		 mov	 DWORD PTR _bi2$[ebp+16], 0

; 20   : 		dwRetVal	= 0;

  00046	c7 45 f0 00 00
	00 00		 mov	 DWORD PTR _bi2$[ebp+44], 0

; 21   : 		ZeroMemory( szBxaid, sizeof(char)*21 );

  0004d	0f 11 45 d8	 movups	 XMMWORD PTR _bi2$[ebp+20], xmm0
  00051	c7 45 e8 00 00
	00 00		 mov	 DWORD PTR _bi2$[ebp+36], 0
  00058	c6 45 ec 00	 mov	 BYTE PTR _bi2$[ebp+40], 0

; 22   : 		dwSenderId	= 0;

  0005c	c7 45 cc 00 00
	00 00		 mov	 DWORD PTR _bi2$[ebp+8], 0

; 33   : 			dpid	= 0xFFFFFFFF;

  00063	c7 45 f4 ff ff
	ff ff		 mov	 DWORD PTR _bi2$[ebp+48], -1

; 34   : 			dwKey	= 0;

  0006a	c7 45 f8 00 00
	00 00		 mov	 DWORD PTR _bi2$[ebp+52], 0
; File C:\IAGOS\server\v18\Source\Source\DatabaseServer\dpaccountclient.cpp

; 184  : 	ar.Read( &bi2, sizeof(BUYING_INFO2) );

  00071	e8 00 00 00 00	 call	 ?Read@CAr@@QAEXPAXI@Z	; CAr::Read

; 185  : 	if( bi2.dwServerIndex == g_appInfo.dwSys )

  00076	8b 45 c4	 mov	 eax, DWORD PTR _bi2$[ebp]
  00079	5e		 pop	 esi
  0007a	3b 05 00 00 00
	00		 cmp	 eax, DWORD PTR ?g_appInfo@@3UAppInfo@@A
  00080	75 0e		 jne	 SHORT $LN2@OnBuyingIn

; 186  : 		g_dpCoreSrvr.SendBuyingInfo( &bi2 );

  00082	8d 45 c4	 lea	 eax, DWORD PTR _bi2$[ebp]
  00085	b9 00 00 00 00	 mov	 ecx, OFFSET ?g_dpCoreSrvr@@3VCDPCoreSrvr@@A ; g_dpCoreSrvr
  0008a	50		 push	 eax
  0008b	e8 00 00 00 00	 call	 ?SendBuyingInfo@CDPCoreSrvr@@QAEXPAU_BUYING_INFO2@@@Z ; CDPCoreSrvr::SendBuyingInfo
$LN2@OnBuyingIn:

; 187  : }

  00090	8b 4d fc	 mov	 ecx, DWORD PTR __$ArrayPad$[ebp]
  00093	33 cd		 xor	 ecx, ebp
  00095	e8 00 00 00 00	 call	 @__security_check_cookie@4
  0009a	8b e5		 mov	 esp, ebp
  0009c	5d		 pop	 ebp
  0009d	c2 0c 00	 ret	 12			; 0000000cH
?OnBuyingInfo@CDPAccountClient@@AAEXAAVCAr@@PAEK@Z ENDP	; CDPAccountClient::OnBuyingInfo
_TEXT	ENDS
; Function compile flags: /Ogtp
; File C:\IAGOS\server\v18\Source\Source\DatabaseServer\dpaccountclient.cpp
;	COMDAT ?OnFail@CDPAccountClient@@AAEXAAVCAr@@PAEK@Z
_TEXT	SEGMENT
_lError$ = -52						; size = 4
_lpszAccount$ = -48					; size = 42
__$ArrayPad$ = -4					; size = 4
_ar$ = 8						; size = 4
___formal$ = 12						; size = 4
___formal$ = 16						; size = 4
?OnFail@CDPAccountClient@@AAEXAAVCAr@@PAEK@Z PROC	; CDPAccountClient::OnFail, COMDAT
; _this$ = ecx

; 164  : {

  00000	55		 push	 ebp
  00001	8b ec		 mov	 ebp, esp
  00003	83 ec 34	 sub	 esp, 52			; 00000034H
  00006	a1 00 00 00 00	 mov	 eax, DWORD PTR ___security_cookie
  0000b	33 c5		 xor	 eax, ebp
  0000d	89 45 fc	 mov	 DWORD PTR __$ArrayPad$[ebp], eax
  00010	56		 push	 esi
  00011	8b 75 08	 mov	 esi, DWORD PTR _ar$[ebp]

; 165  : 	long lError;
; 166  : 	char lpszAccount[MAX_ACCOUNT]	= { 0, };

  00014	8d 45 d0	 lea	 eax, DWORD PTR _lpszAccount$[ebp]
  00017	6a 2a		 push	 42			; 0000002aH
  00019	6a 00		 push	 0
  0001b	50		 push	 eax
  0001c	e8 00 00 00 00	 call	 _memset
  00021	83 c4 0c	 add	 esp, 12			; 0000000cH

; 167  : 	ar >> lError;

  00024	8d 45 cc	 lea	 eax, DWORD PTR _lError$[ebp]
  00027	8b ce		 mov	 ecx, esi
  00029	50		 push	 eax
  0002a	e8 00 00 00 00	 call	 ??$?5J@CAr@@QAEAAV0@AAJ@Z ; CAr::operator>><long>

; 168  : 	ar.ReadString( lpszAccount, MAX_ACCOUNT );

  0002f	6a 2a		 push	 42			; 0000002aH
  00031	8d 45 d0	 lea	 eax, DWORD PTR _lpszAccount$[ebp]
  00034	8b ce		 mov	 ecx, esi
  00036	50		 push	 eax
  00037	e8 00 00 00 00	 call	 ?ReadString@CAr@@QAEPADPADH@Z ; CAr::ReadString

; 169  : 	switch( lError )

  0003c	83 7d cc 79	 cmp	 DWORD PTR _lError$[ebp], 121 ; 00000079H
  00040	5e		 pop	 esi
  00041	75 10		 jne	 SHORT $LN2@OnFail

; 170  : 	{
; 171  : 		case ERROR_FLYFF_ACCOUNT:
; 172  : 			{
; 173  : 				g_dpLoginSrvr.SendFail( lError, lpszAccount );

  00043	8d 45 d0	 lea	 eax, DWORD PTR _lpszAccount$[ebp]
  00046	b9 00 00 00 00	 mov	 ecx, OFFSET ?g_dpLoginSrvr@@3VCDPLoginSrvr@@A ; g_dpLoginSrvr
  0004b	50		 push	 eax
  0004c	6a 79		 push	 121			; 00000079H
  0004e	e8 00 00 00 00	 call	 ?SendFail@CDPLoginSrvr@@QAEXJPBD@Z ; CDPLoginSrvr::SendFail
$LN2@OnFail:

; 174  : 				break;
; 175  : 			}
; 176  : 	}
; 177  : }

  00053	8b 4d fc	 mov	 ecx, DWORD PTR __$ArrayPad$[ebp]
  00056	33 cd		 xor	 ecx, ebp
  00058	e8 00 00 00 00	 call	 @__security_check_cookie@4
  0005d	8b e5		 mov	 esp, ebp
  0005f	5d		 pop	 ebp
  00060	c2 0c 00	 ret	 12			; 0000000cH
?OnFail@CDPAccountClient@@AAEXAAVCAr@@PAEK@Z ENDP	; CDPAccountClient::OnFail
_TEXT	ENDS
; Function compile flags: /Ogtp
; File C:\IAGOS\server\v18\Source\Source\DatabaseServer\dpaccountclient.cpp
;	COMDAT ?OnOneHourNotify@CDPAccountClient@@AAEXAAVCAr@@PAEK@Z
_TEXT	SEGMENT
_lpszAccount$ = -48					; size = 42
__$ArrayPad$ = -4					; size = 4
_ar$ = 8						; size = 4
_lpBuf$ = 12						; size = 4
_uBufSize$ = 16						; size = 4
?OnOneHourNotify@CDPAccountClient@@AAEXAAVCAr@@PAEK@Z PROC ; CDPAccountClient::OnOneHourNotify, COMDAT
; _this$ = ecx

; 157  : {

  00000	55		 push	 ebp
  00001	8b ec		 mov	 ebp, esp
  00003	83 ec 30	 sub	 esp, 48			; 00000030H
  00006	a1 00 00 00 00	 mov	 eax, DWORD PTR ___security_cookie
  0000b	33 c5		 xor	 eax, ebp
  0000d	89 45 fc	 mov	 DWORD PTR __$ArrayPad$[ebp], eax
  00010	56		 push	 esi
  00011	8b 75 08	 mov	 esi, DWORD PTR _ar$[ebp]

; 158  : 	char lpszAccount[MAX_ACCOUNT]	= { 0, };

  00014	8d 45 d0	 lea	 eax, DWORD PTR _lpszAccount$[ebp]
  00017	6a 2a		 push	 42			; 0000002aH
  00019	6a 00		 push	 0
  0001b	50		 push	 eax
  0001c	e8 00 00 00 00	 call	 _memset
  00021	83 c4 0c	 add	 esp, 12			; 0000000cH

; 159  : 	ar.ReadString( lpszAccount, MAX_ACCOUNT );

  00024	8d 45 d0	 lea	 eax, DWORD PTR _lpszAccount$[ebp]
  00027	8b ce		 mov	 ecx, esi
  00029	6a 2a		 push	 42			; 0000002aH
  0002b	50		 push	 eax
  0002c	e8 00 00 00 00	 call	 ?ReadString@CAr@@QAEPADPADH@Z ; CAr::ReadString

; 160  : 	g_dpLoginSrvr.SendOneHourNotify( lpszAccount );

  00031	8d 45 d0	 lea	 eax, DWORD PTR _lpszAccount$[ebp]
  00034	b9 00 00 00 00	 mov	 ecx, OFFSET ?g_dpLoginSrvr@@3VCDPLoginSrvr@@A ; g_dpLoginSrvr
  00039	50		 push	 eax
  0003a	e8 00 00 00 00	 call	 ?SendOneHourNotify@CDPLoginSrvr@@QAEXPBD@Z ; CDPLoginSrvr::SendOneHourNotify

; 161  : }

  0003f	8b 4d fc	 mov	 ecx, DWORD PTR __$ArrayPad$[ebp]
  00042	33 cd		 xor	 ecx, ebp
  00044	5e		 pop	 esi
  00045	e8 00 00 00 00	 call	 @__security_check_cookie@4
  0004a	8b e5		 mov	 esp, ebp
  0004c	5d		 pop	 ebp
  0004d	c2 0c 00	 ret	 12			; 0000000cH
?OnOneHourNotify@CDPAccountClient@@AAEXAAVCAr@@PAEK@Z ENDP ; CDPAccountClient::OnOneHourNotify
_TEXT	ENDS
; Function compile flags: /Ogtp
; File C:\IAGOS\server\v18\Source\Source\DatabaseServer\dpaccountclient.cpp
;	COMDAT ?OnCloseExistingConnection@CDPAccountClient@@AAEXAAVCAr@@PAEK@Z
_TEXT	SEGMENT
_lpszAccount$ = -48					; size = 42
__$ArrayPad$ = -4					; size = 4
_ar$ = 8						; size = 4
_lpBuf$ = 12						; size = 4
_uBufSize$ = 16						; size = 4
?OnCloseExistingConnection@CDPAccountClient@@AAEXAAVCAr@@PAEK@Z PROC ; CDPAccountClient::OnCloseExistingConnection, COMDAT
; _this$ = ecx

; 142  : {

  00000	55		 push	 ebp
  00001	8b ec		 mov	 ebp, esp
  00003	83 ec 30	 sub	 esp, 48			; 00000030H
  00006	a1 00 00 00 00	 mov	 eax, DWORD PTR ___security_cookie
  0000b	33 c5		 xor	 eax, ebp
  0000d	89 45 fc	 mov	 DWORD PTR __$ArrayPad$[ebp], eax
  00010	56		 push	 esi
  00011	8b 75 08	 mov	 esi, DWORD PTR _ar$[ebp]

; 143  : 	char lpszAccount[MAX_ACCOUNT]	= { 0, };

  00014	8d 45 d0	 lea	 eax, DWORD PTR _lpszAccount$[ebp]
  00017	6a 2a		 push	 42			; 0000002aH
  00019	6a 00		 push	 0
  0001b	50		 push	 eax
  0001c	e8 00 00 00 00	 call	 _memset
  00021	83 c4 0c	 add	 esp, 12			; 0000000cH

; 144  : 	LONG lError = 0;
; 145  : 
; 146  : 	ar.ReadString( lpszAccount, MAX_ACCOUNT );

  00024	8d 45 d0	 lea	 eax, DWORD PTR _lpszAccount$[ebp]
  00027	8b ce		 mov	 ecx, esi
  00029	6a 2a		 push	 42			; 0000002aH
  0002b	50		 push	 eax
  0002c	e8 00 00 00 00	 call	 ?ReadString@CAr@@QAEPADPADH@Z ; CAr::ReadString

; 147  : /*
; 148  : #if defined( __BILLING0712 ) || defined( __S0114_RELOADPRO )
; 149  : 	ar >> lError;
; 150  : #endif // defined( __BILLING0712 ) || defined( __S0114_RELOADPRO )
; 151  : */
; 152  : 	g_dpLoginSrvr.SendCloseExistingConnection( lpszAccount, lError );

  00031	6a 00		 push	 0
  00033	8d 45 d0	 lea	 eax, DWORD PTR _lpszAccount$[ebp]
  00036	b9 00 00 00 00	 mov	 ecx, OFFSET ?g_dpLoginSrvr@@3VCDPLoginSrvr@@A ; g_dpLoginSrvr
  0003b	50		 push	 eax
  0003c	e8 00 00 00 00	 call	 ?SendCloseExistingConnection@CDPLoginSrvr@@QAEXPBDJ@Z ; CDPLoginSrvr::SendCloseExistingConnection

; 153  : }

  00041	8b 4d fc	 mov	 ecx, DWORD PTR __$ArrayPad$[ebp]
  00044	33 cd		 xor	 ecx, ebp
  00046	5e		 pop	 esi
  00047	e8 00 00 00 00	 call	 @__security_check_cookie@4
  0004c	8b e5		 mov	 esp, ebp
  0004e	5d		 pop	 ebp
  0004f	c2 0c 00	 ret	 12			; 0000000cH
?OnCloseExistingConnection@CDPAccountClient@@AAEXAAVCAr@@PAEK@Z ENDP ; CDPAccountClient::OnCloseExistingConnection
_TEXT	ENDS
; Function compile flags: /Ogtp
; File C:\IAGOS\server\v18\Source\Source\DatabaseServer\dpaccountclient.cpp
;	COMDAT ?OnPlayerCount@CDPAccountClient@@AAEXAAVCAr@@PAEK@Z
_TEXT	SEGMENT
_ar$ = 8						; size = 4
_lpBuf$ = 12						; size = 4
_uBufSize$ = 16						; size = 4
?OnPlayerCount@CDPAccountClient@@AAEXAAVCAr@@PAEK@Z PROC ; CDPAccountClient::OnPlayerCount, COMDAT
; _this$ = ecx

; 134  : {

  00000	55		 push	 ebp
  00001	8b ec		 mov	 ebp, esp

; 135  : 	LPDB_OVERLAPPED_PLUS lpDbOverlappedPlus		= g_DbManager.AllocRequest();

  00003	8b 0d 00 00 00
	00		 mov	 ecx, DWORD PTR ?g_DbManager@@3AAVCDbManager@@A ; g_DbManager
  00009	56		 push	 esi
  0000a	e8 00 00 00 00	 call	 ?AllocRequest@CDbManager@@QAEPAUtagDB_OVERLAPPED_PLUS@@XZ ; CDbManager::AllocRequest

; 136  : 	g_DbManager.MakeRequest( lpDbOverlappedPlus, lpBuf, uBufSize );

  0000f	ff 75 10	 push	 DWORD PTR _uBufSize$[ebp]
  00012	8b 0d 00 00 00
	00		 mov	 ecx, DWORD PTR ?g_DbManager@@3AAVCDbManager@@A ; g_DbManager
  00018	8b f0		 mov	 esi, eax
  0001a	ff 75 0c	 push	 DWORD PTR _lpBuf$[ebp]
  0001d	56		 push	 esi
  0001e	e8 00 00 00 00	 call	 ?MakeRequest@CDbManager@@QAEXPAUtagDB_OVERLAPPED_PLUS@@PAEK@Z ; CDbManager::MakeRequest

; 137  : 	lpDbOverlappedPlus->nQueryMode	= SAVECONCURRENTUSERNUMBER;
; 138  : 	PostQueuedCompletionStatus( g_DbManager.m_hIOCPPut, 1, NULL, &lpDbOverlappedPlus->Overlapped );

  00023	56		 push	 esi
  00024	c7 46 14 0a 00
	00 00		 mov	 DWORD PTR [esi+20], 10	; 0000000aH
  0002b	a1 00 00 00 00	 mov	 eax, DWORD PTR ?g_DbManager@@3AAVCDbManager@@A ; g_DbManager
  00030	6a 00		 push	 0
  00032	6a 01		 push	 1
  00034	ff b0 34 03 00
	00		 push	 DWORD PTR [eax+820]
  0003a	ff 15 00 00 00
	00		 call	 DWORD PTR __imp__PostQueuedCompletionStatus@16
  00040	5e		 pop	 esi

; 139  : }

  00041	5d		 pop	 ebp
  00042	c2 0c 00	 ret	 12			; 0000000cH
?OnPlayerCount@CDPAccountClient@@AAEXAAVCAr@@PAEK@Z ENDP ; CDPAccountClient::OnPlayerCount
_TEXT	ENDS
; Function compile flags: /Ogtp
; File C:\IAGOS\server\v18\Source\Source\DatabaseServer\dpaccountclient.cpp
;	COMDAT ?OnJoin@CDPAccountClient@@AAEXAAVCAr@@PAEK@Z
_TEXT	SEGMENT
_ar$ = 8						; size = 4
_lpBuf$ = 12						; size = 4
_uBufSize$ = 16						; size = 4
?OnJoin@CDPAccountClient@@AAEXAAVCAr@@PAEK@Z PROC	; CDPAccountClient::OnJoin, COMDAT
; _this$ = ecx

; 126  : {

  00000	55		 push	 ebp
  00001	8b ec		 mov	 ebp, esp

; 127  : 	LPDB_OVERLAPPED_PLUS lpDbOverlappedPlus = g_DbManager.AllocRequest();

  00003	8b 0d 00 00 00
	00		 mov	 ecx, DWORD PTR ?g_DbManager@@3AAVCDbManager@@A ; g_DbManager
  00009	56		 push	 esi
  0000a	e8 00 00 00 00	 call	 ?AllocRequest@CDbManager@@QAEPAUtagDB_OVERLAPPED_PLUS@@XZ ; CDbManager::AllocRequest

; 128  : 	g_DbManager.MakeRequest( lpDbOverlappedPlus, lpBuf, uBufSize );

  0000f	ff 75 10	 push	 DWORD PTR _uBufSize$[ebp]
  00012	8b 0d 00 00 00
	00		 mov	 ecx, DWORD PTR ?g_DbManager@@3AAVCDbManager@@A ; g_DbManager
  00018	8b f0		 mov	 esi, eax
  0001a	ff 75 0c	 push	 DWORD PTR _lpBuf$[ebp]
  0001d	56		 push	 esi
  0001e	e8 00 00 00 00	 call	 ?MakeRequest@CDbManager@@QAEXPAUtagDB_OVERLAPPED_PLUS@@PAEK@Z ; CDbManager::MakeRequest

; 129  : 	lpDbOverlappedPlus->nQueryMode	= JOIN;
; 130  : 	PostQueuedCompletionStatus( g_DbManager.m_hIOCPGet, 1, NULL, &lpDbOverlappedPlus->Overlapped );

  00023	56		 push	 esi
  00024	c7 46 14 08 00
	00 00		 mov	 DWORD PTR [esi+20], 8
  0002b	a1 00 00 00 00	 mov	 eax, DWORD PTR ?g_DbManager@@3AAVCDbManager@@A ; g_DbManager
  00030	6a 00		 push	 0
  00032	6a 01		 push	 1
  00034	ff b0 30 03 00
	00		 push	 DWORD PTR [eax+816]
  0003a	ff 15 00 00 00
	00		 call	 DWORD PTR __imp__PostQueuedCompletionStatus@16
  00040	5e		 pop	 esi

; 131  : }

  00041	5d		 pop	 ebp
  00042	c2 0c 00	 ret	 12			; 0000000cH
?OnJoin@CDPAccountClient@@AAEXAAVCAr@@PAEK@Z ENDP	; CDPAccountClient::OnJoin
_TEXT	ENDS
; Function compile flags: /Ogtp
; File C:\IAGOS\server\v18\Source\Source\DatabaseServer\dpaccountclient.cpp
;	COMDAT ?OnRemovePlayer@CDPAccountClient@@AAEXAAVCAr@@PAEK@Z
_TEXT	SEGMENT
_ar$ = 8						; size = 4
_lpBuf$ = 12						; size = 4
_uBufSize$ = 16						; size = 4
?OnRemovePlayer@CDPAccountClient@@AAEXAAVCAr@@PAEK@Z PROC ; CDPAccountClient::OnRemovePlayer, COMDAT
; _this$ = ecx

; 94   : {

  00000	55		 push	 ebp
  00001	8b ec		 mov	 ebp, esp

; 95   : 	LPDB_OVERLAPPED_PLUS lpDbOverlappedPlus = g_DbManager.AllocRequest();

  00003	8b 0d 00 00 00
	00		 mov	 ecx, DWORD PTR ?g_DbManager@@3AAVCDbManager@@A ; g_DbManager
  00009	56		 push	 esi
  0000a	e8 00 00 00 00	 call	 ?AllocRequest@CDbManager@@QAEPAUtagDB_OVERLAPPED_PLUS@@XZ ; CDbManager::AllocRequest

; 96   : 	g_DbManager.MakeRequest( lpDbOverlappedPlus, lpBuf, uBufSize );

  0000f	ff 75 10	 push	 DWORD PTR _uBufSize$[ebp]
  00012	8b 0d 00 00 00
	00		 mov	 ecx, DWORD PTR ?g_DbManager@@3AAVCDbManager@@A ; g_DbManager
  00018	8b f0		 mov	 esi, eax
  0001a	ff 75 0c	 push	 DWORD PTR _lpBuf$[ebp]
  0001d	56		 push	 esi
  0001e	e8 00 00 00 00	 call	 ?MakeRequest@CDbManager@@QAEXPAUtagDB_OVERLAPPED_PLUS@@PAEK@Z ; CDbManager::MakeRequest

; 97   : 	lpDbOverlappedPlus->nQueryMode = REMOVEPLAYER;
; 98   : 	PostQueuedCompletionStatus( g_DbManager.m_hIOCPGet, 1, NULL, &lpDbOverlappedPlus->Overlapped );

  00023	56		 push	 esi
  00024	c7 46 14 05 00
	00 00		 mov	 DWORD PTR [esi+20], 5
  0002b	a1 00 00 00 00	 mov	 eax, DWORD PTR ?g_DbManager@@3AAVCDbManager@@A ; g_DbManager
  00030	6a 00		 push	 0
  00032	6a 01		 push	 1
  00034	ff b0 30 03 00
	00		 push	 DWORD PTR [eax+816]
  0003a	ff 15 00 00 00
	00		 call	 DWORD PTR __imp__PostQueuedCompletionStatus@16
  00040	5e		 pop	 esi

; 99   : /*
; 100  : 	account
; 101  : 	password
; 102  : 	szNo
; 103  : 	idPlayer
; 104  : 	dwAuthKey
; 105  : 	dpid
; 106  : */
; 107  : }

  00041	5d		 pop	 ebp
  00042	c2 0c 00	 ret	 12			; 0000000cH
?OnRemovePlayer@CDPAccountClient@@AAEXAAVCAr@@PAEK@Z ENDP ; CDPAccountClient::OnRemovePlayer
_TEXT	ENDS
; Function compile flags: /Ogtp
; File C:\IAGOS\server\v18\Source\Source\DatabaseServer\dpaccountclient.cpp
;	COMDAT ?OnGetPlayerList@CDPAccountClient@@AAEXAAVCAr@@PAEK@Z
_TEXT	SEGMENT
_dwAuthKey$ = -4					; size = 4
_ar$ = 8						; size = 4
_uIdofMulti$ = 8					; size = 4
___formal$ = 12						; size = 4
___formal$ = 16						; size = 4
?OnGetPlayerList@CDPAccountClient@@AAEXAAVCAr@@PAEK@Z PROC ; CDPAccountClient::OnGetPlayerList, COMDAT
; _this$ = ecx

; 111  : {

  00000	55		 push	 ebp
  00001	8b ec		 mov	 ebp, esp
  00003	51		 push	 ecx
  00004	56		 push	 esi
  00005	57		 push	 edi

; 112  : 	DWORD dwAuthKey;
; 113  : 	ar >> dwAuthKey;

  00006	8b 7d 08	 mov	 edi, DWORD PTR _ar$[ebp]
  00009	8d 45 fc	 lea	 eax, DWORD PTR _dwAuthKey$[ebp]
  0000c	50		 push	 eax
  0000d	8b cf		 mov	 ecx, edi
  0000f	e8 00 00 00 00	 call	 ??$?5K@CAr@@QAEAAV0@AAK@Z ; CAr::operator>><unsigned long>

; 114  : 	u_long uIdofMulti;
; 115  : 	ar >> uIdofMulti;

  00014	8d 45 08	 lea	 eax, DWORD PTR _uIdofMulti$[ebp]
  00017	8b cf		 mov	 ecx, edi
  00019	50		 push	 eax
  0001a	e8 00 00 00 00	 call	 ??$?5K@CAr@@QAEAAV0@AAK@Z ; CAr::operator>><unsigned long>

; 116  : 	LPDB_OVERLAPPED_PLUS lpDbOverlappedPlus		= g_DbManager.AllocRequest();

  0001f	8b 0d 00 00 00
	00		 mov	 ecx, DWORD PTR ?g_DbManager@@3AAVCDbManager@@A ; g_DbManager
  00025	e8 00 00 00 00	 call	 ?AllocRequest@CDbManager@@QAEPAUtagDB_OVERLAPPED_PLUS@@XZ ; CDbManager::AllocRequest
  0002a	8b f0		 mov	 esi, eax

; 117  : 	ar.ReadString( lpDbOverlappedPlus->AccountInfo.szAccount, MAX_ACCOUNT );

  0002c	6a 2a		 push	 42			; 0000002aH
  0002e	8d 4e 20	 lea	 ecx, DWORD PTR [esi+32]
  00031	51		 push	 ecx
  00032	8b cf		 mov	 ecx, edi
  00034	e8 00 00 00 00	 call	 ?ReadString@CAr@@QAEPADPADH@Z ; CAr::ReadString

; 118  : 	ar.ReadString( lpDbOverlappedPlus->AccountInfo.szPassword, MAX_PASSWORD );

  00039	6a 2a		 push	 42			; 0000002aH
  0003b	8d 56 4a	 lea	 edx, DWORD PTR [esi+74]
  0003e	8b cf		 mov	 ecx, edi
  00040	52		 push	 edx
  00041	e8 00 00 00 00	 call	 ?ReadString@CAr@@QAEPADPADH@Z ; CAr::ReadString

; 119  : 	ar >> lpDbOverlappedPlus->dpid;

  00046	8d 86 a8 00 00
	00		 lea	 eax, DWORD PTR [esi+168]
  0004c	8b cf		 mov	 ecx, edi
  0004e	50		 push	 eax
  0004f	e8 00 00 00 00	 call	 ??$?5K@CAr@@QAEAAV0@AAK@Z ; CAr::operator>><unsigned long>

; 120  : 	lpDbOverlappedPlus->nQueryMode	= SENDPLAYERLIST;
; 121  : 	lpDbOverlappedPlus->dwAuthKey	= dwAuthKey;

  00054	8b 45 fc	 mov	 eax, DWORD PTR _dwAuthKey$[ebp]

; 122  : 	PostQueuedCompletionStatus( g_DbManager.m_hIOCPGet, 1, NULL, &lpDbOverlappedPlus->Overlapped );

  00057	56		 push	 esi
  00058	c7 46 14 07 00
	00 00		 mov	 DWORD PTR [esi+20], 7
  0005f	89 86 b4 00 00
	00		 mov	 DWORD PTR [esi+180], eax
  00065	a1 00 00 00 00	 mov	 eax, DWORD PTR ?g_DbManager@@3AAVCDbManager@@A ; g_DbManager
  0006a	6a 00		 push	 0
  0006c	6a 01		 push	 1
  0006e	ff b0 30 03 00
	00		 push	 DWORD PTR [eax+816]
  00074	ff 15 00 00 00
	00		 call	 DWORD PTR __imp__PostQueuedCompletionStatus@16
  0007a	5f		 pop	 edi
  0007b	5e		 pop	 esi

; 123  : }

  0007c	8b e5		 mov	 esp, ebp
  0007e	5d		 pop	 ebp
  0007f	c2 0c 00	 ret	 12			; 0000000cH
?OnGetPlayerList@CDPAccountClient@@AAEXAAVCAr@@PAEK@Z ENDP ; CDPAccountClient::OnGetPlayerList
_TEXT	ENDS
; Function compile flags: /Ogtp
;	COMDAT ??1?$map@KP8CDPAccountClient@@AEXAAVCAr@@PAEK@ZU?$less@K@std@@V?$allocator@U?$pair@$$CBKP8CDPAccountClient@@AEXAAVCAr@@PAEK@Z@std@@@4@@std@@QAE@XZ
_TEXT	SEGMENT
??1?$map@KP8CDPAccountClient@@AEXAAVCAr@@PAEK@ZU?$less@K@std@@V?$allocator@U?$pair@$$CBKP8CDPAccountClient@@AEXAAVCAr@@PAEK@Z@std@@@4@@std@@QAE@XZ PROC ; std::map<unsigned long,void (__thiscall CDPAccountClient::*)(CAr &,unsigned char *,unsigned long),std::less<unsigned long>,std::allocator<std::pair<unsigned long const ,void (__thiscall CDPAccountClient::*)(CAr &,unsigned char *,unsigned long)> > >::~map<unsigned long,void (__thiscall CDPAccountClient::*)(CAr &,unsigned char *,unsigned long),std::less<unsigned long>,std::allocator<std::pair<unsigned long const ,void (__thiscall CDPAccountClient::*)(CAr &,unsigned char *,unsigned long)> > >, COMDAT
; _this$ = ecx
  00000	e9 00 00 00 00	 jmp	 ??1?$_Tree@V?$_Tmap_traits@KP8CDPAccountClient@@AEXAAVCAr@@PAEK@ZU?$less@K@std@@V?$allocator@U?$pair@$$CBKP8CDPAccountClient@@AEXAAVCAr@@PAEK@Z@std@@@4@$0A@@std@@@std@@QAE@XZ ; std::_Tree<std::_Tmap_traits<unsigned long,void (__thiscall CDPAccountClient::*)(CAr &,unsigned char *,unsigned long),std::less<unsigned long>,std::allocator<std::pair<unsigned long const ,void (__thiscall CDPAccountClient::*)(CAr &,unsigned char *,unsigned long)> >,0> >::~_Tree<std::_Tmap_traits<unsigned long,void (__thiscall CDPAccountClient::*)(CAr &,unsigned char *,unsigned long),std::less<unsigned long>,std::allocator<std::pair<unsigned long const ,void (__thiscall CDPAccountClient::*)(CAr &,unsigned char *,unsigned long)> >,0> >
??1?$map@KP8CDPAccountClient@@AEXAAVCAr@@PAEK@ZU?$less@K@std@@V?$allocator@U?$pair@$$CBKP8CDPAccountClient@@AEXAAVCAr@@PAEK@Z@std@@@4@@std@@QAE@XZ ENDP ; std::map<unsigned long,void (__thiscall CDPAccountClient::*)(CAr &,unsigned char *,unsigned long),std::less<unsigned long>,std::allocator<std::pair<unsigned long const ,void (__thiscall CDPAccountClient::*)(CAr &,unsigned char *,unsigned long)> > >::~map<unsigned long,void (__thiscall CDPAccountClient::*)(CAr &,unsigned char *,unsigned long),std::less<unsigned long>,std::allocator<std::pair<unsigned long const ,void (__thiscall CDPAccountClient::*)(CAr &,unsigned char *,unsigned long)> > >
_TEXT	ENDS
; Function compile flags: /Ogtp
; File C:\Program Files\Microsoft Visual Studio\2022\Professional\VC\Tools\MSVC\14.44.35207\include\xtree
;	COMDAT ?_Insert_node@?$_Tree_val@U?$_Tree_simple_types@U?$pair@$$CBKP8CDPAccountClient@@AEXAAVCAr@@PAEK@Z@std@@@std@@@std@@QAEPAU?$_Tree_node@U?$pair@$$CBKP8CDPAccountClient@@AEXAAVCAr@@PAEK@Z@std@@PAX@2@U?$_Tree_id@PAU?$_Tree_node@U?$pair@$$CBKP8CDPAccountClient@@AEXAAVCAr@@PAEK@Z@std@@PAX@std@@@2@QAU32@@Z
_TEXT	SEGMENT
__Head$1$ = -4						; size = 4
__Loc$ = 8						; size = 8
__Newnode$ = 16						; size = 4
?_Insert_node@?$_Tree_val@U?$_Tree_simple_types@U?$pair@$$CBKP8CDPAccountClient@@AEXAAVCAr@@PAEK@Z@std@@@std@@@std@@QAEPAU?$_Tree_node@U?$pair@$$CBKP8CDPAccountClient@@AEXAAVCAr@@PAEK@Z@std@@PAX@2@U?$_Tree_id@PAU?$_Tree_node@U?$pair@$$CBKP8CDPAccountClient@@AEXAAVCAr@@PAEK@Z@std@@PAX@std@@@2@QAU32@@Z PROC ; std::_Tree_val<std::_Tree_simple_types<std::pair<unsigned long const ,void (__thiscall CDPAccountClient::*)(CAr &,unsigned char *,unsigned long)> > >::_Insert_node, COMDAT
; _this$ = ecx

; 669  :     _Nodeptr _Insert_node(const _Tree_id<_Nodeptr> _Loc, const _Nodeptr _Newnode) noexcept {

  00000	55		 push	 ebp
  00001	8b ec		 mov	 ebp, esp
  00003	51		 push	 ecx

; 670  :         ++_Mysize;
; 671  :         const auto _Head  = _Myhead;
; 672  :         _Newnode->_Parent = _Loc._Parent;

  00004	8b 55 08	 mov	 edx, DWORD PTR __Loc$[ebp]
  00007	53		 push	 ebx
  00008	8b d9		 mov	 ebx, ecx
  0000a	57		 push	 edi
  0000b	8b 7d 10	 mov	 edi, DWORD PTR __Newnode$[ebp]
  0000e	8b 03		 mov	 eax, DWORD PTR [ebx]
  00010	ff 43 04	 inc	 DWORD PTR [ebx+4]
  00013	89 45 fc	 mov	 DWORD PTR __Head$1$[ebp], eax
  00016	89 57 04	 mov	 DWORD PTR [edi+4], edx

; 673  :         if (_Loc._Parent == _Head) { // first node in tree, just set head values

  00019	3b d0		 cmp	 edx, eax
  0001b	75 16		 jne	 SHORT $LN5@Insert_nod

; 674  :             _Head->_Left     = _Newnode;

  0001d	89 38		 mov	 DWORD PTR [eax], edi

; 675  :             _Head->_Parent   = _Newnode;

  0001f	89 78 04	 mov	 DWORD PTR [eax+4], edi

; 676  :             _Head->_Right    = _Newnode;

  00022	89 78 08	 mov	 DWORD PTR [eax+8], edi

; 735  :         return _Newnode;
; 736  :     }

  00025	8b c7		 mov	 eax, edi
  00027	c6 47 0c 01	 mov	 BYTE PTR [edi+12], 1
  0002b	5f		 pop	 edi
  0002c	5b		 pop	 ebx
  0002d	8b e5		 mov	 esp, ebp
  0002f	5d		 pop	 ebp
  00030	c2 0c 00	 ret	 12			; 0000000cH
$LN5@Insert_nod:

; 677  :             _Newnode->_Color = _Black; // the root is black
; 678  :             return _Newnode;
; 679  :         }
; 680  : 
; 681  :         _STL_INTERNAL_CHECK(_Loc._Child != _Tree_child::_Unused);
; 682  :         if (_Loc._Child == _Tree_child::_Right) { // add to right of _Loc._Parent

  00033	83 7d 0c 00	 cmp	 DWORD PTR __Loc$[ebp+4], 0
  00037	75 0d		 jne	 SHORT $LN6@Insert_nod

; 683  :             _STL_INTERNAL_CHECK(_Loc._Parent->_Right->_Isnil);
; 684  :             _Loc._Parent->_Right = _Newnode;

  00039	89 7a 08	 mov	 DWORD PTR [edx+8], edi

; 685  :             if (_Loc._Parent == _Head->_Right) { // remember rightmost node

  0003c	3b 50 08	 cmp	 edx, DWORD PTR [eax+8]
  0003f	75 0d		 jne	 SHORT $LN9@Insert_nod

; 686  :                 _Head->_Right = _Newnode;

  00041	89 78 08	 mov	 DWORD PTR [eax+8], edi

; 687  :             }
; 688  :         } else { // add to left of _Loc._Parent

  00044	eb 08		 jmp	 SHORT $LN9@Insert_nod
$LN6@Insert_nod:

; 689  :             _STL_INTERNAL_CHECK(_Loc._Parent->_Left->_Isnil);
; 690  :             _Loc._Parent->_Left = _Newnode;

  00046	89 3a		 mov	 DWORD PTR [edx], edi

; 691  :             if (_Loc._Parent == _Head->_Left) { // remember leftmost node

  00048	3b 10		 cmp	 edx, DWORD PTR [eax]
  0004a	75 02		 jne	 SHORT $LN9@Insert_nod

; 692  :                 _Head->_Left = _Newnode;

  0004c	89 38		 mov	 DWORD PTR [eax], edi
$LN9@Insert_nod:

; 693  :             }
; 694  :         }
; 695  : 
; 696  :         for (_Nodeptr _Pnode = _Newnode; _Pnode->_Parent->_Color == _Red;) {

  0004e	8b 4f 04	 mov	 ecx, DWORD PTR [edi+4]
  00051	8b c7		 mov	 eax, edi
  00053	80 79 0c 00	 cmp	 BYTE PTR [ecx+12], 0
  00057	0f 85 7d 01 00
	00		 jne	 $LN3@Insert_nod
  0005d	56		 push	 esi
  0005e	66 90		 npad	 2
$LL4@Insert_nod:

; 697  :             if (_Pnode->_Parent == _Pnode->_Parent->_Parent->_Left) { // fixup red-red in left subtree

  00060	8b 50 04	 mov	 edx, DWORD PTR [eax+4]
  00063	8b 72 04	 mov	 esi, DWORD PTR [edx+4]
  00066	8b 0e		 mov	 ecx, DWORD PTR [esi]
  00068	3b d1		 cmp	 edx, ecx
  0006a	0f 85 aa 00 00
	00		 jne	 $LN10@Insert_nod

; 698  :                 const auto _Parent_sibling = _Pnode->_Parent->_Parent->_Right;

  00070	8b 4e 08	 mov	 ecx, DWORD PTR [esi+8]

; 699  :                 if (_Parent_sibling->_Color == _Red) { // parent's sibling has two red children, blacken both

  00073	80 79 0c 00	 cmp	 BYTE PTR [ecx+12], 0
  00077	0f 84 a3 00 00
	00		 je	 $LN82@Insert_nod

; 700  :                     _Pnode->_Parent->_Color          = _Black;
; 701  :                     _Parent_sibling->_Color          = _Black;
; 702  :                     _Pnode->_Parent->_Parent->_Color = _Red;
; 703  :                     _Pnode                           = _Pnode->_Parent->_Parent;
; 704  :                 } else { // parent's sibling has red and black children
; 705  :                     if (_Pnode == _Pnode->_Parent->_Right) { // rotate right child to left

  0007d	8b 72 08	 mov	 esi, DWORD PTR [edx+8]
  00080	3b c6		 cmp	 eax, esi
  00082	75 37		 jne	 SHORT $LN57@Insert_nod

; 485  :         _Wherenode->_Right = _Pnode->_Left;

  00084	8b 0e		 mov	 ecx, DWORD PTR [esi]

; 706  :                         _Pnode = _Pnode->_Parent;

  00086	8b c2		 mov	 eax, edx

; 485  :         _Wherenode->_Right = _Pnode->_Left;

  00088	89 4a 08	 mov	 DWORD PTR [edx+8], ecx

; 486  : 
; 487  :         if (!_Pnode->_Left->_Isnil) {

  0008b	8b 0e		 mov	 ecx, DWORD PTR [esi]
  0008d	80 79 0d 00	 cmp	 BYTE PTR [ecx+13], 0
  00091	75 03		 jne	 SHORT $LN21@Insert_nod

; 488  :             _Pnode->_Left->_Parent = _Wherenode;

  00093	89 41 04	 mov	 DWORD PTR [ecx+4], eax
$LN21@Insert_nod:

; 489  :         }
; 490  : 
; 491  :         _Pnode->_Parent = _Wherenode->_Parent;

  00096	8b 4a 04	 mov	 ecx, DWORD PTR [edx+4]
  00099	89 4e 04	 mov	 DWORD PTR [esi+4], ecx

; 492  : 
; 493  :         if (_Wherenode == _Myhead->_Parent) {

  0009c	8b 0b		 mov	 ecx, DWORD PTR [ebx]
  0009e	3b 41 04	 cmp	 eax, DWORD PTR [ecx+4]
  000a1	75 05		 jne	 SHORT $LN22@Insert_nod

; 494  :             _Myhead->_Parent = _Pnode;

  000a3	89 71 04	 mov	 DWORD PTR [ecx+4], esi
  000a6	eb 0e		 jmp	 SHORT $LN25@Insert_nod
$LN22@Insert_nod:

; 495  :         } else if (_Wherenode == _Wherenode->_Parent->_Left) {

  000a8	8b 4a 04	 mov	 ecx, DWORD PTR [edx+4]
  000ab	3b 01		 cmp	 eax, DWORD PTR [ecx]
  000ad	75 04		 jne	 SHORT $LN24@Insert_nod

; 496  :             _Wherenode->_Parent->_Left = _Pnode;

  000af	89 31		 mov	 DWORD PTR [ecx], esi

; 497  :         } else {

  000b1	eb 03		 jmp	 SHORT $LN25@Insert_nod
$LN24@Insert_nod:

; 498  :             _Wherenode->_Parent->_Right = _Pnode;

  000b3	89 71 08	 mov	 DWORD PTR [ecx+8], esi
$LN25@Insert_nod:

; 499  :         }
; 500  : 
; 501  :         _Pnode->_Left       = _Wherenode;

  000b6	89 06		 mov	 DWORD PTR [esi], eax

; 502  :         _Wherenode->_Parent = _Pnode;

  000b8	89 70 04	 mov	 DWORD PTR [eax+4], esi
$LN57@Insert_nod:

; 707  :                         _Lrotate(_Pnode);
; 708  :                     }
; 709  : 
; 710  :                     _Pnode->_Parent->_Color          = _Black; // propagate red up

  000bb	8b 48 04	 mov	 ecx, DWORD PTR [eax+4]
  000be	c6 41 0c 01	 mov	 BYTE PTR [ecx+12], 1

; 711  :                     _Pnode->_Parent->_Parent->_Color = _Red;

  000c2	8b 48 04	 mov	 ecx, DWORD PTR [eax+4]
  000c5	8b 49 04	 mov	 ecx, DWORD PTR [ecx+4]
  000c8	c6 41 0c 00	 mov	 BYTE PTR [ecx+12], 0

; 712  :                     _Rrotate(_Pnode->_Parent->_Parent);

  000cc	8b 48 04	 mov	 ecx, DWORD PTR [eax+4]
  000cf	8b 51 04	 mov	 edx, DWORD PTR [ecx+4]

; 506  :         _Nodeptr _Pnode   = _Wherenode->_Left;

  000d2	8b 32		 mov	 esi, DWORD PTR [edx]

; 507  :         _Wherenode->_Left = _Pnode->_Right;

  000d4	8b 4e 08	 mov	 ecx, DWORD PTR [esi+8]
  000d7	89 0a		 mov	 DWORD PTR [edx], ecx

; 508  : 
; 509  :         if (!_Pnode->_Right->_Isnil) {

  000d9	8b 4e 08	 mov	 ecx, DWORD PTR [esi+8]
  000dc	80 79 0d 00	 cmp	 BYTE PTR [ecx+13], 0
  000e0	75 03		 jne	 SHORT $LN29@Insert_nod

; 510  :             _Pnode->_Right->_Parent = _Wherenode;

  000e2	89 51 04	 mov	 DWORD PTR [ecx+4], edx
$LN29@Insert_nod:

; 511  :         }
; 512  : 
; 513  :         _Pnode->_Parent = _Wherenode->_Parent;

  000e5	8b 4a 04	 mov	 ecx, DWORD PTR [edx+4]
  000e8	89 4e 04	 mov	 DWORD PTR [esi+4], ecx

; 514  : 
; 515  :         if (_Wherenode == _Myhead->_Parent) {

  000eb	8b 0b		 mov	 ecx, DWORD PTR [ebx]
  000ed	3b 51 04	 cmp	 edx, DWORD PTR [ecx+4]
  000f0	75 0b		 jne	 SHORT $LN30@Insert_nod

; 516  :             _Myhead->_Parent = _Pnode;

  000f2	89 71 04	 mov	 DWORD PTR [ecx+4], esi

; 521  :         }
; 522  : 
; 523  :         _Pnode->_Right      = _Wherenode;

  000f5	89 56 08	 mov	 DWORD PTR [esi+8], edx

; 713  :                 }
; 714  :             } else { // fixup red-red in right subtree

  000f8	e9 cc 00 00 00	 jmp	 $LN81@Insert_nod
$LN30@Insert_nod:

; 517  :         } else if (_Wherenode == _Wherenode->_Parent->_Right) {

  000fd	8b 4a 04	 mov	 ecx, DWORD PTR [edx+4]
  00100	3b 51 08	 cmp	 edx, DWORD PTR [ecx+8]
  00103	75 0b		 jne	 SHORT $LN32@Insert_nod

; 518  :             _Wherenode->_Parent->_Right = _Pnode;

  00105	89 71 08	 mov	 DWORD PTR [ecx+8], esi

; 521  :         }
; 522  : 
; 523  :         _Pnode->_Right      = _Wherenode;

  00108	89 56 08	 mov	 DWORD PTR [esi+8], edx

; 713  :                 }
; 714  :             } else { // fixup red-red in right subtree

  0010b	e9 b9 00 00 00	 jmp	 $LN81@Insert_nod
$LN32@Insert_nod:

; 520  :             _Wherenode->_Parent->_Left = _Pnode;

  00110	89 31		 mov	 DWORD PTR [ecx], esi

; 521  :         }
; 522  : 
; 523  :         _Pnode->_Right      = _Wherenode;

  00112	89 56 08	 mov	 DWORD PTR [esi+8], edx

; 713  :                 }
; 714  :             } else { // fixup red-red in right subtree

  00115	e9 af 00 00 00	 jmp	 $LN81@Insert_nod
$LN10@Insert_nod:

; 715  :                 const auto _Parent_sibling = _Pnode->_Parent->_Parent->_Left;
; 716  :                 if (_Parent_sibling->_Color == _Red) { // parent's sibling has two red children, blacken both

  0011a	80 79 0c 00	 cmp	 BYTE PTR [ecx+12], 0
  0011e	75 1d		 jne	 SHORT $LN15@Insert_nod
$LN82@Insert_nod:

; 693  :             }
; 694  :         }
; 695  : 
; 696  :         for (_Nodeptr _Pnode = _Newnode; _Pnode->_Parent->_Color == _Red;) {

  00120	c6 42 0c 01	 mov	 BYTE PTR [edx+12], 1
  00124	c6 41 0c 01	 mov	 BYTE PTR [ecx+12], 1
  00128	8b 48 04	 mov	 ecx, DWORD PTR [eax+4]
  0012b	8b 49 04	 mov	 ecx, DWORD PTR [ecx+4]
  0012e	c6 41 0c 00	 mov	 BYTE PTR [ecx+12], 0
  00132	8b 48 04	 mov	 ecx, DWORD PTR [eax+4]
  00135	8b 41 04	 mov	 eax, DWORD PTR [ecx+4]
  00138	e9 8f 00 00 00	 jmp	 $LN2@Insert_nod
$LN15@Insert_nod:

; 717  :                     _Pnode->_Parent->_Color          = _Black;
; 718  :                     _Parent_sibling->_Color          = _Black;
; 719  :                     _Pnode->_Parent->_Parent->_Color = _Red;
; 720  :                     _Pnode                           = _Pnode->_Parent->_Parent;
; 721  :                 } else { // parent's sibling has red and black children
; 722  :                     if (_Pnode == _Pnode->_Parent->_Left) { // rotate left child to right

  0013d	8b 32		 mov	 esi, DWORD PTR [edx]
  0013f	3b c6		 cmp	 eax, esi
  00141	75 3a		 jne	 SHORT $LN42@Insert_nod

; 507  :         _Wherenode->_Left = _Pnode->_Right;

  00143	8b 4e 08	 mov	 ecx, DWORD PTR [esi+8]

; 723  :                         _Pnode = _Pnode->_Parent;

  00146	8b c2		 mov	 eax, edx

; 507  :         _Wherenode->_Left = _Pnode->_Right;

  00148	89 08		 mov	 DWORD PTR [eax], ecx

; 508  : 
; 509  :         if (!_Pnode->_Right->_Isnil) {

  0014a	8b 4e 08	 mov	 ecx, DWORD PTR [esi+8]
  0014d	80 79 0d 00	 cmp	 BYTE PTR [ecx+13], 0
  00151	75 03		 jne	 SHORT $LN37@Insert_nod

; 510  :             _Pnode->_Right->_Parent = _Wherenode;

  00153	89 41 04	 mov	 DWORD PTR [ecx+4], eax
$LN37@Insert_nod:

; 511  :         }
; 512  : 
; 513  :         _Pnode->_Parent = _Wherenode->_Parent;

  00156	8b 4a 04	 mov	 ecx, DWORD PTR [edx+4]
  00159	89 4e 04	 mov	 DWORD PTR [esi+4], ecx

; 514  : 
; 515  :         if (_Wherenode == _Myhead->_Parent) {

  0015c	8b 0b		 mov	 ecx, DWORD PTR [ebx]
  0015e	3b 41 04	 cmp	 eax, DWORD PTR [ecx+4]
  00161	75 05		 jne	 SHORT $LN38@Insert_nod

; 516  :             _Myhead->_Parent = _Pnode;

  00163	89 71 04	 mov	 DWORD PTR [ecx+4], esi
  00166	eb 0f		 jmp	 SHORT $LN41@Insert_nod
$LN38@Insert_nod:

; 517  :         } else if (_Wherenode == _Wherenode->_Parent->_Right) {

  00168	8b 4a 04	 mov	 ecx, DWORD PTR [edx+4]
  0016b	3b 41 08	 cmp	 eax, DWORD PTR [ecx+8]
  0016e	75 05		 jne	 SHORT $LN40@Insert_nod

; 518  :             _Wherenode->_Parent->_Right = _Pnode;

  00170	89 71 08	 mov	 DWORD PTR [ecx+8], esi

; 519  :         } else {

  00173	eb 02		 jmp	 SHORT $LN41@Insert_nod
$LN40@Insert_nod:

; 520  :             _Wherenode->_Parent->_Left = _Pnode;

  00175	89 31		 mov	 DWORD PTR [ecx], esi
$LN41@Insert_nod:

; 521  :         }
; 522  : 
; 523  :         _Pnode->_Right      = _Wherenode;

  00177	89 46 08	 mov	 DWORD PTR [esi+8], eax

; 524  :         _Wherenode->_Parent = _Pnode;

  0017a	89 70 04	 mov	 DWORD PTR [eax+4], esi
$LN42@Insert_nod:

; 724  :                         _Rrotate(_Pnode);
; 725  :                     }
; 726  : 
; 727  :                     _Pnode->_Parent->_Color          = _Black; // propagate red up

  0017d	8b 48 04	 mov	 ecx, DWORD PTR [eax+4]
  00180	c6 41 0c 01	 mov	 BYTE PTR [ecx+12], 1

; 728  :                     _Pnode->_Parent->_Parent->_Color = _Red;

  00184	8b 48 04	 mov	 ecx, DWORD PTR [eax+4]
  00187	8b 49 04	 mov	 ecx, DWORD PTR [ecx+4]
  0018a	c6 41 0c 00	 mov	 BYTE PTR [ecx+12], 0

; 729  :                     _Lrotate(_Pnode->_Parent->_Parent);

  0018e	8b 48 04	 mov	 ecx, DWORD PTR [eax+4]
  00191	8b 51 04	 mov	 edx, DWORD PTR [ecx+4]

; 484  :         _Nodeptr _Pnode    = _Wherenode->_Right;

  00194	8b 72 08	 mov	 esi, DWORD PTR [edx+8]

; 485  :         _Wherenode->_Right = _Pnode->_Left;

  00197	8b 0e		 mov	 ecx, DWORD PTR [esi]
  00199	89 4a 08	 mov	 DWORD PTR [edx+8], ecx

; 486  : 
; 487  :         if (!_Pnode->_Left->_Isnil) {

  0019c	8b 0e		 mov	 ecx, DWORD PTR [esi]
  0019e	80 79 0d 00	 cmp	 BYTE PTR [ecx+13], 0
  001a2	75 03		 jne	 SHORT $LN45@Insert_nod

; 488  :             _Pnode->_Left->_Parent = _Wherenode;

  001a4	89 51 04	 mov	 DWORD PTR [ecx+4], edx
$LN45@Insert_nod:

; 489  :         }
; 490  : 
; 491  :         _Pnode->_Parent = _Wherenode->_Parent;

  001a7	8b 4a 04	 mov	 ecx, DWORD PTR [edx+4]
  001aa	89 4e 04	 mov	 DWORD PTR [esi+4], ecx

; 492  : 
; 493  :         if (_Wherenode == _Myhead->_Parent) {

  001ad	8b 0b		 mov	 ecx, DWORD PTR [ebx]
  001af	3b 51 04	 cmp	 edx, DWORD PTR [ecx+4]
  001b2	75 05		 jne	 SHORT $LN46@Insert_nod

; 494  :             _Myhead->_Parent = _Pnode;

  001b4	89 71 04	 mov	 DWORD PTR [ecx+4], esi
  001b7	eb 0e		 jmp	 SHORT $LN49@Insert_nod
$LN46@Insert_nod:

; 495  :         } else if (_Wherenode == _Wherenode->_Parent->_Left) {

  001b9	8b 4a 04	 mov	 ecx, DWORD PTR [edx+4]
  001bc	3b 11		 cmp	 edx, DWORD PTR [ecx]
  001be	75 04		 jne	 SHORT $LN48@Insert_nod

; 496  :             _Wherenode->_Parent->_Left = _Pnode;

  001c0	89 31		 mov	 DWORD PTR [ecx], esi

; 497  :         } else {

  001c2	eb 03		 jmp	 SHORT $LN49@Insert_nod
$LN48@Insert_nod:

; 498  :             _Wherenode->_Parent->_Right = _Pnode;

  001c4	89 71 08	 mov	 DWORD PTR [ecx+8], esi
$LN49@Insert_nod:

; 499  :         }
; 500  : 
; 501  :         _Pnode->_Left       = _Wherenode;

  001c7	89 16		 mov	 DWORD PTR [esi], edx
$LN81@Insert_nod:

; 693  :             }
; 694  :         }
; 695  : 
; 696  :         for (_Nodeptr _Pnode = _Newnode; _Pnode->_Parent->_Color == _Red;) {

  001c9	89 72 04	 mov	 DWORD PTR [edx+4], esi
$LN2@Insert_nod:
  001cc	8b 48 04	 mov	 ecx, DWORD PTR [eax+4]
  001cf	80 79 0c 00	 cmp	 BYTE PTR [ecx+12], 0
  001d3	0f 84 87 fe ff
	ff		 je	 $LL4@Insert_nod
  001d9	5e		 pop	 esi
$LN3@Insert_nod:

; 730  :                 }
; 731  :             }
; 732  :         }
; 733  : 
; 734  :         _Head->_Parent->_Color = _Black; // root is always black

  001da	8b 45 fc	 mov	 eax, DWORD PTR __Head$1$[ebp]
  001dd	8b 40 04	 mov	 eax, DWORD PTR [eax+4]
  001e0	c6 40 0c 01	 mov	 BYTE PTR [eax+12], 1

; 735  :         return _Newnode;
; 736  :     }

  001e4	8b c7		 mov	 eax, edi
  001e6	5f		 pop	 edi
  001e7	5b		 pop	 ebx
  001e8	8b e5		 mov	 esp, ebp
  001ea	5d		 pop	 ebp
  001eb	c2 0c 00	 ret	 12			; 0000000cH
?_Insert_node@?$_Tree_val@U?$_Tree_simple_types@U?$pair@$$CBKP8CDPAccountClient@@AEXAAVCAr@@PAEK@Z@std@@@std@@@std@@QAEPAU?$_Tree_node@U?$pair@$$CBKP8CDPAccountClient@@AEXAAVCAr@@PAEK@Z@std@@PAX@2@U?$_Tree_id@PAU?$_Tree_node@U?$pair@$$CBKP8CDPAccountClient@@AEXAAVCAr@@PAEK@Z@std@@PAX@std@@@2@QAU32@@Z ENDP ; std::_Tree_val<std::_Tree_simple_types<std::pair<unsigned long const ,void (__thiscall CDPAccountClient::*)(CAr &,unsigned char *,unsigned long)> > >::_Insert_node
_TEXT	ENDS
; Function compile flags: /Ogtp
; File C:\Program Files\Microsoft Visual Studio\2022\Professional\VC\Tools\MSVC\14.44.35207\include\xtree
; File C:\Program Files\Microsoft Visual Studio\2022\Professional\VC\Tools\MSVC\14.44.35207\include\utility
; File C:\Program Files\Microsoft Visual Studio\2022\Professional\VC\Tools\MSVC\14.44.35207\include\xmemory
; File C:\Program Files\Microsoft Visual Studio\2022\Professional\VC\Tools\MSVC\14.44.35207\include\xtree
; File C:\Program Files\Microsoft Visual Studio\2022\Professional\VC\Tools\MSVC\14.44.35207\include\xmemory
; File C:\Program Files\Microsoft Visual Studio\2022\Professional\VC\Tools\MSVC\14.44.35207\include\xtree
;	COMDAT ??1?$_Tree@V?$_Tmap_traits@KP8CDPAccountClient@@AEXAAVCAr@@PAEK@ZU?$less@K@std@@V?$allocator@U?$pair@$$CBKP8CDPAccountClient@@AEXAAVCAr@@PAEK@Z@std@@@4@$0A@@std@@@std@@QAE@XZ
_TEXT	SEGMENT
??1?$_Tree@V?$_Tmap_traits@KP8CDPAccountClient@@AEXAAVCAr@@PAEK@ZU?$less@K@std@@V?$allocator@U?$pair@$$CBKP8CDPAccountClient@@AEXAAVCAr@@PAEK@Z@std@@@4@$0A@@std@@@std@@QAE@XZ PROC ; std::_Tree<std::_Tmap_traits<unsigned long,void (__thiscall CDPAccountClient::*)(CAr &,unsigned char *,unsigned long),std::less<unsigned long>,std::allocator<std::pair<unsigned long const ,void (__thiscall CDPAccountClient::*)(CAr &,unsigned char *,unsigned long)> >,0> >::~_Tree<std::_Tmap_traits<unsigned long,void (__thiscall CDPAccountClient::*)(CAr &,unsigned char *,unsigned long),std::less<unsigned long>,std::allocator<std::pair<unsigned long const ,void (__thiscall CDPAccountClient::*)(CAr &,unsigned char *,unsigned long)> >,0> >, COMDAT
; _this$ = ecx

; 1095 :     ~_Tree() noexcept {

  00000	56		 push	 esi
  00001	57		 push	 edi
  00002	8b f9		 mov	 edi, ecx

; 777  :         _Erase_tree(_Al, _Myhead->_Parent);

  00004	8b 37		 mov	 esi, DWORD PTR [edi]
  00006	8b 76 04	 mov	 esi, DWORD PTR [esi+4]

; 768  :         while (!_Rootnode->_Isnil) { // free subtrees, then node

  00009	80 7e 0d 00	 cmp	 BYTE PTR [esi+13], 0
  0000d	75 21		 jne	 SHORT $LN61@Tree
  0000f	90		 npad	 1
$LL8@Tree:

; 769  :             _Erase_tree(_Al, _Rootnode->_Right);

  00010	ff 76 08	 push	 DWORD PTR [esi+8]
  00013	8b cf		 mov	 ecx, edi
  00015	57		 push	 edi
  00016	e8 00 00 00 00	 call	 ??$_Erase_tree@V?$allocator@U?$_Tree_node@U?$pair@$$CBKP8CDPAccountClient@@AEXAAVCAr@@PAEK@Z@std@@PAX@std@@@std@@@?$_Tree_val@U?$_Tree_simple_types@U?$pair@$$CBKP8CDPAccountClient@@AEXAAVCAr@@PAEK@Z@std@@@std@@@std@@QAEXAAV?$allocator@U?$_Tree_node@U?$pair@$$CBKP8CDPAccountClient@@AEXAAVCAr@@PAEK@Z@std@@PAX@std@@@1@PAU?$_Tree_node@U?$pair@$$CBKP8CDPAccountClient@@AEXAAVCAr@@PAEK@Z@std@@PAX@1@@Z ; std::_Tree_val<std::_Tree_simple_types<std::pair<unsigned long const ,void (__thiscall CDPAccountClient::*)(CAr &,unsigned char *,unsigned long)> > >::_Erase_tree<std::allocator<std::_Tree_node<std::pair<unsigned long const ,void (__thiscall CDPAccountClient::*)(CAr &,unsigned char *,unsigned long)>,void *> > >
; File C:\Program Files\Microsoft Visual Studio\2022\Professional\VC\Tools\MSVC\14.44.35207\include\utility

; 773  :     _Ty _Old_val = static_cast<_Ty&&>(_Val);

  0001b	8b c6		 mov	 eax, esi

; 774  :     _Val         = static_cast<_Other&&>(_New_val);

  0001d	8b 36		 mov	 esi, DWORD PTR [esi]
; File C:\Program Files\Microsoft Visual Studio\2022\Professional\VC\Tools\MSVC\14.44.35207\include\xmemory

; 289  :         ::operator delete(_Ptr, _Bytes);

  0001f	6a 18		 push	 24			; 00000018H
  00021	50		 push	 eax
  00022	e8 00 00 00 00	 call	 ??3@YAXPAXI@Z		; operator delete
  00027	83 c4 08	 add	 esp, 8
; File C:\Program Files\Microsoft Visual Studio\2022\Professional\VC\Tools\MSVC\14.44.35207\include\xtree

; 768  :         while (!_Rootnode->_Isnil) { // free subtrees, then node

  0002a	80 7e 0d 00	 cmp	 BYTE PTR [esi+13], 0
  0002e	74 e0		 je	 SHORT $LL8@Tree
$LN61@Tree:
; File C:\Program Files\Microsoft Visual Studio\2022\Professional\VC\Tools\MSVC\14.44.35207\include\xmemory

; 289  :         ::operator delete(_Ptr, _Bytes);

  00030	6a 18		 push	 24			; 00000018H
  00032	ff 37		 push	 DWORD PTR [edi]
  00034	e8 00 00 00 00	 call	 ??3@YAXPAXI@Z		; operator delete
  00039	83 c4 08	 add	 esp, 8
  0003c	5f		 pop	 edi
  0003d	5e		 pop	 esi
; File C:\Program Files\Microsoft Visual Studio\2022\Professional\VC\Tools\MSVC\14.44.35207\include\xtree

; 1102 :     }

  0003e	c3		 ret	 0
??1?$_Tree@V?$_Tmap_traits@KP8CDPAccountClient@@AEXAAVCAr@@PAEK@ZU?$less@K@std@@V?$allocator@U?$pair@$$CBKP8CDPAccountClient@@AEXAAVCAr@@PAEK@Z@std@@@4@$0A@@std@@@std@@QAE@XZ ENDP ; std::_Tree<std::_Tmap_traits<unsigned long,void (__thiscall CDPAccountClient::*)(CAr &,unsigned char *,unsigned long),std::less<unsigned long>,std::allocator<std::pair<unsigned long const ,void (__thiscall CDPAccountClient::*)(CAr &,unsigned char *,unsigned long)> >,0> >::~_Tree<std::_Tmap_traits<unsigned long,void (__thiscall CDPAccountClient::*)(CAr &,unsigned char *,unsigned long),std::less<unsigned long>,std::allocator<std::pair<unsigned long const ,void (__thiscall CDPAccountClient::*)(CAr &,unsigned char *,unsigned long)> >,0> >
_TEXT	ENDS
; Function compile flags: /Ogtp
; File C:\IAGOS\server\v18\Source\Source\DatabaseServer\dpaccountclient.cpp
; File C:\IAGOS\server\v18\Source\Source\_Network\Net\Include\DPMng.h
; File C:\IAGOS\server\v18\Source\Source\DatabaseServer\dpaccountclient.cpp
;	COMDAT ?SendBuyingInfo@CDPAccountClient@@QAEXPAU_BUYING_INFO2@@K@Z
_TEXT	SEGMENT
_nBufSize$ = -16428					; size = 4
$T2 = -16424						; size = 4
_ar$ = -16420						; size = 16404
__$ArrayPad$ = -16					; size = 4
__$EHRec$ = -12						; size = 12
_pbi2$ = 8						; size = 4
_iSerialNumber$ = 12					; size = 4
?SendBuyingInfo@CDPAccountClient@@QAEXPAU_BUYING_INFO2@@K@Z PROC ; CDPAccountClient::SendBuyingInfo, COMDAT
; _this$ = ecx

; 190  : {

  00000	55		 push	 ebp
  00001	8b ec		 mov	 ebp, esp
  00003	6a ff		 push	 -1
  00005	68 00 00 00 00	 push	 __ehhandler$?SendBuyingInfo@CDPAccountClient@@QAEXPAU_BUYING_INFO2@@K@Z
  0000a	64 a1 00 00 00
	00		 mov	 eax, DWORD PTR fs:0
  00010	50		 push	 eax
  00011	b8 20 40 00 00	 mov	 eax, 16416		; 00004020H
  00016	e8 00 00 00 00	 call	 __chkstk
  0001b	a1 00 00 00 00	 mov	 eax, DWORD PTR ___security_cookie
  00020	33 c5		 xor	 eax, ebp
  00022	89 45 f0	 mov	 DWORD PTR __$ArrayPad$[ebp], eax
  00025	56		 push	 esi
  00026	57		 push	 edi
  00027	50		 push	 eax
  00028	8d 45 f4	 lea	 eax, DWORD PTR __$EHRec$[ebp]
  0002b	64 a3 00 00 00
	00		 mov	 DWORD PTR fs:0, eax
  00031	8b f9		 mov	 edi, ecx
  00033	8b 75 08	 mov	 esi, DWORD PTR _pbi2$[ebp]

; 191  : 	BEFORESEND( ar, PACKETTYPE_BUYING_INFO );

  00036	8d 8d dc bf ff
	ff		 lea	 ecx, DWORD PTR _ar$[ebp]
  0003c	6a 00		 push	 0
  0003e	6a 00		 push	 0
  00040	e8 00 00 00 00	 call	 ??0CAr@@QAE@PAXI@Z	; CAr::CAr
  00045	8d 85 d8 bf ff
	ff		 lea	 eax, DWORD PTR $T2[ebp]
  0004b	c7 45 fc 00 00
	00 00		 mov	 DWORD PTR __$EHRec$[ebp+8], 0
  00052	50		 push	 eax
  00053	8d 8d dc bf ff
	ff		 lea	 ecx, DWORD PTR _ar$[ebp]
  00059	c7 85 d8 bf ff
	ff 52 b0 00 f0	 mov	 DWORD PTR $T2[ebp], -268390318 ; f000b052H
  00063	e8 00 00 00 00	 call	 ??$?6K@CAr@@QAEAAV0@ABK@Z ; CAr::operator<<<unsigned long>

; 192  : 	ar.Write( (void*)pbi2, sizeof(BUYING_INFO2) );

  00068	6a 38		 push	 56			; 00000038H
  0006a	56		 push	 esi
  0006b	8d 8d dc bf ff
	ff		 lea	 ecx, DWORD PTR _ar$[ebp]
  00071	e8 00 00 00 00	 call	 ?Write@CAr@@QAEXPBXI@Z	; CAr::Write

; 193  : 	ar << iSerialNumber;

  00076	8d 45 0c	 lea	 eax, DWORD PTR _iSerialNumber$[ebp]
  00079	50		 push	 eax
  0007a	8d 8d dc bf ff
	ff		 lea	 ecx, DWORD PTR _ar$[ebp]
  00080	e8 00 00 00 00	 call	 ??$?6K@CAr@@QAEAAV0@ABK@Z ; CAr::operator<<<unsigned long>

; 194  : 	SEND( ar, this, DPID_SERVERPLAYER );

  00085	8d 85 d4 bf ff
	ff		 lea	 eax, DWORD PTR _nBufSize$[ebp]
  0008b	50		 push	 eax
  0008c	8d 8d dc bf ff
	ff		 lea	 ecx, DWORD PTR _ar$[ebp]
  00092	e8 00 00 00 00	 call	 ?GetBuffer@CAr@@QAEPAEPAH@Z ; CAr::GetBuffer
; File C:\IAGOS\server\v18\Source\Source\_Network\Net\Include\DPMng.h

; 171  : 	if( !m_pDPSock )

  00097	8b 4f 04	 mov	 ecx, DWORD PTR [edi+4]
  0009a	85 c9		 test	 ecx, ecx
  0009c	74 0e		 je	 SHORT $LN4@SendBuying

; 172  : 		return FALSE;
; 173  : 	return m_pDPSock->Send( (char*)lpData, dwDataSize, dpidTo );

  0009e	6a 01		 push	 1
  000a0	ff b5 d4 bf ff
	ff		 push	 DWORD PTR _nBufSize$[ebp]
  000a6	50		 push	 eax
  000a7	e8 00 00 00 00	 call	 ?Send@CDPSock@@QAEHPADKK@Z ; CDPSock::Send
$LN4@SendBuying:
; File C:\IAGOS\server\v18\Source\Source\DatabaseServer\dpaccountclient.cpp

; 195  : }

  000ac	8d 8d dc bf ff
	ff		 lea	 ecx, DWORD PTR _ar$[ebp]
  000b2	e8 00 00 00 00	 call	 ??1CAr@@QAE@XZ		; CAr::~CAr
  000b7	8b 4d f4	 mov	 ecx, DWORD PTR __$EHRec$[ebp]
  000ba	64 89 0d 00 00
	00 00		 mov	 DWORD PTR fs:0, ecx
  000c1	59		 pop	 ecx
  000c2	5f		 pop	 edi
  000c3	5e		 pop	 esi
  000c4	8b 4d f0	 mov	 ecx, DWORD PTR __$ArrayPad$[ebp]
  000c7	33 cd		 xor	 ecx, ebp
  000c9	e8 00 00 00 00	 call	 @__security_check_cookie@4
  000ce	8b e5		 mov	 esp, ebp
  000d0	5d		 pop	 ebp
  000d1	c2 08 00	 ret	 8
_TEXT	ENDS
;	COMDAT text$x
text$x	SEGMENT
__unwindfunclet$?SendBuyingInfo@CDPAccountClient@@QAEXPAU_BUYING_INFO2@@K@Z$0:
  00000	8d 8d dc bf ff
	ff		 lea	 ecx, DWORD PTR _ar$[ebp]
  00006	e9 00 00 00 00	 jmp	 ??1CAr@@QAE@XZ		; CAr::~CAr
  0000b	cc		 int	 3
  0000c	cc		 int	 3
  0000d	cc		 int	 3
  0000e	cc		 int	 3
  0000f	cc		 int	 3
__ehhandler$?SendBuyingInfo@CDPAccountClient@@QAEXPAU_BUYING_INFO2@@K@Z:
  00010	90		 npad	 1
  00011	90		 npad	 1
  00012	8b 54 24 08	 mov	 edx, DWORD PTR [esp+8]
  00016	8d 42 0c	 lea	 eax, DWORD PTR [edx+12]
  00019	8b 8a d4 bf ff
	ff		 mov	 ecx, DWORD PTR [edx-16428]
  0001f	33 c8		 xor	 ecx, eax
  00021	e8 00 00 00 00	 call	 @__security_check_cookie@4
  00026	8b 4a fc	 mov	 ecx, DWORD PTR [edx-4]
  00029	33 c8		 xor	 ecx, eax
  0002b	e8 00 00 00 00	 call	 @__security_check_cookie@4
  00030	b8 00 00 00 00	 mov	 eax, OFFSET __ehfuncinfo$?SendBuyingInfo@CDPAccountClient@@QAEXPAU_BUYING_INFO2@@K@Z
  00035	e9 00 00 00 00	 jmp	 ___CxxFrameHandler3
text$x	ENDS
?SendBuyingInfo@CDPAccountClient@@QAEXPAU_BUYING_INFO2@@K@Z ENDP ; CDPAccountClient::SendBuyingInfo
; Function compile flags: /Ogtp
; File C:\IAGOS\server\v18\Source\Source\DatabaseServer\dpaccountclient.cpp
; File C:\IAGOS\server\v18\Source\Source\_Network\Net\Include\DPMng.h
; File C:\IAGOS\server\v18\Source\Source\DatabaseServer\dpaccountclient.cpp
;	COMDAT ?SendRemoveAllAccounts@CDPAccountClient@@QAEXXZ
_TEXT	SEGMENT
_nBufSize$ = -16428					; size = 4
$T2 = -16424						; size = 4
_ar$ = -16420						; size = 16404
__$ArrayPad$ = -16					; size = 4
__$EHRec$ = -12						; size = 12
?SendRemoveAllAccounts@CDPAccountClient@@QAEXXZ PROC	; CDPAccountClient::SendRemoveAllAccounts, COMDAT
; _this$ = ecx

; 87   : {

  00000	55		 push	 ebp
  00001	8b ec		 mov	 ebp, esp
  00003	6a ff		 push	 -1
  00005	68 00 00 00 00	 push	 __ehhandler$?SendRemoveAllAccounts@CDPAccountClient@@QAEXXZ
  0000a	64 a1 00 00 00
	00		 mov	 eax, DWORD PTR fs:0
  00010	50		 push	 eax
  00011	b8 20 40 00 00	 mov	 eax, 16416		; 00004020H
  00016	e8 00 00 00 00	 call	 __chkstk
  0001b	a1 00 00 00 00	 mov	 eax, DWORD PTR ___security_cookie
  00020	33 c5		 xor	 eax, ebp
  00022	89 45 f0	 mov	 DWORD PTR __$ArrayPad$[ebp], eax
  00025	56		 push	 esi
  00026	50		 push	 eax
  00027	8d 45 f4	 lea	 eax, DWORD PTR __$EHRec$[ebp]
  0002a	64 a3 00 00 00
	00		 mov	 DWORD PTR fs:0, eax
  00030	8b f1		 mov	 esi, ecx

; 88   : 	BEFORESEND( ar, PACKETTYPE_REMOVE_ALLACCOUNTS );

  00032	6a 00		 push	 0
  00034	6a 00		 push	 0
  00036	8d 8d dc bf ff
	ff		 lea	 ecx, DWORD PTR _ar$[ebp]
  0003c	e8 00 00 00 00	 call	 ??0CAr@@QAE@PAXI@Z	; CAr::CAr
  00041	8d 85 d8 bf ff
	ff		 lea	 eax, DWORD PTR $T2[ebp]
  00047	c7 45 fc 00 00
	00 00		 mov	 DWORD PTR __$EHRec$[ebp+8], 0
  0004e	50		 push	 eax
  0004f	8d 8d dc bf ff
	ff		 lea	 ecx, DWORD PTR _ar$[ebp]
  00055	c7 85 d8 bf ff
	ff 03 ff 00 00	 mov	 DWORD PTR $T2[ebp], 65283 ; 0000ff03H
  0005f	e8 00 00 00 00	 call	 ??$?6K@CAr@@QAEAAV0@ABK@Z ; CAr::operator<<<unsigned long>

; 89   : 	SEND( ar, this, DPID_SERVERPLAYER );

  00064	8d 85 d4 bf ff
	ff		 lea	 eax, DWORD PTR _nBufSize$[ebp]
  0006a	50		 push	 eax
  0006b	8d 8d dc bf ff
	ff		 lea	 ecx, DWORD PTR _ar$[ebp]
  00071	e8 00 00 00 00	 call	 ?GetBuffer@CAr@@QAEPAEPAH@Z ; CAr::GetBuffer
; File C:\IAGOS\server\v18\Source\Source\_Network\Net\Include\DPMng.h

; 171  : 	if( !m_pDPSock )

  00076	8b 4e 04	 mov	 ecx, DWORD PTR [esi+4]
  00079	85 c9		 test	 ecx, ecx
  0007b	74 0e		 je	 SHORT $LN4@SendRemove

; 172  : 		return FALSE;
; 173  : 	return m_pDPSock->Send( (char*)lpData, dwDataSize, dpidTo );

  0007d	6a 01		 push	 1
  0007f	ff b5 d4 bf ff
	ff		 push	 DWORD PTR _nBufSize$[ebp]
  00085	50		 push	 eax
  00086	e8 00 00 00 00	 call	 ?Send@CDPSock@@QAEHPADKK@Z ; CDPSock::Send
$LN4@SendRemove:
; File C:\IAGOS\server\v18\Source\Source\DatabaseServer\dpaccountclient.cpp

; 90   : }

  0008b	8d 8d dc bf ff
	ff		 lea	 ecx, DWORD PTR _ar$[ebp]
  00091	e8 00 00 00 00	 call	 ??1CAr@@QAE@XZ		; CAr::~CAr
  00096	8b 4d f4	 mov	 ecx, DWORD PTR __$EHRec$[ebp]
  00099	64 89 0d 00 00
	00 00		 mov	 DWORD PTR fs:0, ecx
  000a0	59		 pop	 ecx
  000a1	5e		 pop	 esi
  000a2	8b 4d f0	 mov	 ecx, DWORD PTR __$ArrayPad$[ebp]
  000a5	33 cd		 xor	 ecx, ebp
  000a7	e8 00 00 00 00	 call	 @__security_check_cookie@4
  000ac	8b e5		 mov	 esp, ebp
  000ae	5d		 pop	 ebp
  000af	c3		 ret	 0
_TEXT	ENDS
;	COMDAT text$x
text$x	SEGMENT
__unwindfunclet$?SendRemoveAllAccounts@CDPAccountClient@@QAEXXZ$0:
  00000	8d 8d dc bf ff
	ff		 lea	 ecx, DWORD PTR _ar$[ebp]
  00006	e9 00 00 00 00	 jmp	 ??1CAr@@QAE@XZ		; CAr::~CAr
  0000b	cc		 int	 3
  0000c	cc		 int	 3
  0000d	cc		 int	 3
  0000e	cc		 int	 3
  0000f	cc		 int	 3
__ehhandler$?SendRemoveAllAccounts@CDPAccountClient@@QAEXXZ:
  00010	90		 npad	 1
  00011	90		 npad	 1
  00012	8b 54 24 08	 mov	 edx, DWORD PTR [esp+8]
  00016	8d 42 0c	 lea	 eax, DWORD PTR [edx+12]
  00019	8b 8a d8 bf ff
	ff		 mov	 ecx, DWORD PTR [edx-16424]
  0001f	33 c8		 xor	 ecx, eax
  00021	e8 00 00 00 00	 call	 @__security_check_cookie@4
  00026	8b 4a fc	 mov	 ecx, DWORD PTR [edx-4]
  00029	33 c8		 xor	 ecx, eax
  0002b	e8 00 00 00 00	 call	 @__security_check_cookie@4
  00030	b8 00 00 00 00	 mov	 eax, OFFSET __ehfuncinfo$?SendRemoveAllAccounts@CDPAccountClient@@QAEXXZ
  00035	e9 00 00 00 00	 jmp	 ___CxxFrameHandler3
text$x	ENDS
?SendRemoveAllAccounts@CDPAccountClient@@QAEXXZ ENDP	; CDPAccountClient::SendRemoveAllAccounts
; Function compile flags: /Ogtp
; File C:\IAGOS\server\v18\Source\Source\DatabaseServer\dpaccountclient.cpp
; File C:\IAGOS\server\v18\Source\Source\_Network\Net\Include\DPMng.h
; File C:\IAGOS\server\v18\Source\Source\DatabaseServer\dpaccountclient.cpp
;	COMDAT ?SendRemoveAccount@CDPAccountClient@@QAEXPAD@Z
_TEXT	SEGMENT
_nBufSize$ = -16428					; size = 4
$T2 = -16424						; size = 4
_ar$ = -16420						; size = 16404
__$ArrayPad$ = -16					; size = 4
__$EHRec$ = -12						; size = 12
_lpszAccount$ = 8					; size = 4
?SendRemoveAccount@CDPAccountClient@@QAEXPAD@Z PROC	; CDPAccountClient::SendRemoveAccount, COMDAT
; _this$ = ecx

; 80   : {

  00000	55		 push	 ebp
  00001	8b ec		 mov	 ebp, esp
  00003	6a ff		 push	 -1
  00005	68 00 00 00 00	 push	 __ehhandler$?SendRemoveAccount@CDPAccountClient@@QAEXPAD@Z
  0000a	64 a1 00 00 00
	00		 mov	 eax, DWORD PTR fs:0
  00010	50		 push	 eax
  00011	b8 20 40 00 00	 mov	 eax, 16416		; 00004020H
  00016	e8 00 00 00 00	 call	 __chkstk
  0001b	a1 00 00 00 00	 mov	 eax, DWORD PTR ___security_cookie
  00020	33 c5		 xor	 eax, ebp
  00022	89 45 f0	 mov	 DWORD PTR __$ArrayPad$[ebp], eax
  00025	56		 push	 esi
  00026	57		 push	 edi
  00027	50		 push	 eax
  00028	8d 45 f4	 lea	 eax, DWORD PTR __$EHRec$[ebp]
  0002b	64 a3 00 00 00
	00		 mov	 DWORD PTR fs:0, eax
  00031	8b f9		 mov	 edi, ecx
  00033	8b 75 08	 mov	 esi, DWORD PTR _lpszAccount$[ebp]

; 81   : 	BEFORESEND( ar, PACKETTYPE_REMOVE_ACCOUNT );

  00036	8d 8d dc bf ff
	ff		 lea	 ecx, DWORD PTR _ar$[ebp]
  0003c	6a 00		 push	 0
  0003e	6a 00		 push	 0
  00040	e8 00 00 00 00	 call	 ??0CAr@@QAE@PAXI@Z	; CAr::CAr
  00045	8d 85 d8 bf ff
	ff		 lea	 eax, DWORD PTR $T2[ebp]
  0004b	c7 45 fc 00 00
	00 00		 mov	 DWORD PTR __$EHRec$[ebp+8], 0
  00052	50		 push	 eax
  00053	8d 8d dc bf ff
	ff		 lea	 ecx, DWORD PTR _ar$[ebp]
  00059	c7 85 d8 bf ff
	ff 01 b0 00 f0	 mov	 DWORD PTR $T2[ebp], -268390399 ; f000b001H
  00063	e8 00 00 00 00	 call	 ??$?6K@CAr@@QAEAAV0@ABK@Z ; CAr::operator<<<unsigned long>

; 82   : 	ar.WriteString( lpszAccount );

  00068	56		 push	 esi
  00069	8d 8d dc bf ff
	ff		 lea	 ecx, DWORD PTR _ar$[ebp]
  0006f	e8 00 00 00 00	 call	 ?WriteString@CAr@@QAEXPBD@Z ; CAr::WriteString

; 83   : 	SEND( ar, this, DPID_SERVERPLAYER );

  00074	8d 85 d4 bf ff
	ff		 lea	 eax, DWORD PTR _nBufSize$[ebp]
  0007a	50		 push	 eax
  0007b	8d 8d dc bf ff
	ff		 lea	 ecx, DWORD PTR _ar$[ebp]
  00081	e8 00 00 00 00	 call	 ?GetBuffer@CAr@@QAEPAEPAH@Z ; CAr::GetBuffer
; File C:\IAGOS\server\v18\Source\Source\_Network\Net\Include\DPMng.h

; 171  : 	if( !m_pDPSock )

  00086	8b 4f 04	 mov	 ecx, DWORD PTR [edi+4]
  00089	85 c9		 test	 ecx, ecx
  0008b	74 0e		 je	 SHORT $LN4@SendRemove

; 172  : 		return FALSE;
; 173  : 	return m_pDPSock->Send( (char*)lpData, dwDataSize, dpidTo );

  0008d	6a 01		 push	 1
  0008f	ff b5 d4 bf ff
	ff		 push	 DWORD PTR _nBufSize$[ebp]
  00095	50		 push	 eax
  00096	e8 00 00 00 00	 call	 ?Send@CDPSock@@QAEHPADKK@Z ; CDPSock::Send
$LN4@SendRemove:
; File C:\IAGOS\server\v18\Source\Source\DatabaseServer\dpaccountclient.cpp

; 84   : }

  0009b	8d 8d dc bf ff
	ff		 lea	 ecx, DWORD PTR _ar$[ebp]
  000a1	e8 00 00 00 00	 call	 ??1CAr@@QAE@XZ		; CAr::~CAr
  000a6	8b 4d f4	 mov	 ecx, DWORD PTR __$EHRec$[ebp]
  000a9	64 89 0d 00 00
	00 00		 mov	 DWORD PTR fs:0, ecx
  000b0	59		 pop	 ecx
  000b1	5f		 pop	 edi
  000b2	5e		 pop	 esi
  000b3	8b 4d f0	 mov	 ecx, DWORD PTR __$ArrayPad$[ebp]
  000b6	33 cd		 xor	 ecx, ebp
  000b8	e8 00 00 00 00	 call	 @__security_check_cookie@4
  000bd	8b e5		 mov	 esp, ebp
  000bf	5d		 pop	 ebp
  000c0	c2 04 00	 ret	 4
_TEXT	ENDS
;	COMDAT text$x
text$x	SEGMENT
__unwindfunclet$?SendRemoveAccount@CDPAccountClient@@QAEXPAD@Z$0:
  00000	8d 8d dc bf ff
	ff		 lea	 ecx, DWORD PTR _ar$[ebp]
  00006	e9 00 00 00 00	 jmp	 ??1CAr@@QAE@XZ		; CAr::~CAr
  0000b	cc		 int	 3
  0000c	cc		 int	 3
  0000d	cc		 int	 3
  0000e	cc		 int	 3
  0000f	cc		 int	 3
__ehhandler$?SendRemoveAccount@CDPAccountClient@@QAEXPAD@Z:
  00010	90		 npad	 1
  00011	90		 npad	 1
  00012	8b 54 24 08	 mov	 edx, DWORD PTR [esp+8]
  00016	8d 42 0c	 lea	 eax, DWORD PTR [edx+12]
  00019	8b 8a d4 bf ff
	ff		 mov	 ecx, DWORD PTR [edx-16428]
  0001f	33 c8		 xor	 ecx, eax
  00021	e8 00 00 00 00	 call	 @__security_check_cookie@4
  00026	8b 4a fc	 mov	 ecx, DWORD PTR [edx-4]
  00029	33 c8		 xor	 ecx, eax
  0002b	e8 00 00 00 00	 call	 @__security_check_cookie@4
  00030	b8 00 00 00 00	 mov	 eax, OFFSET __ehfuncinfo$?SendRemoveAccount@CDPAccountClient@@QAEXPAD@Z
  00035	e9 00 00 00 00	 jmp	 ___CxxFrameHandler3
text$x	ENDS
?SendRemoveAccount@CDPAccountClient@@QAEXPAD@Z ENDP	; CDPAccountClient::SendRemoveAccount
; Function compile flags: /Ogtp
; File C:\IAGOS\server\v18\Source\Source\DatabaseServer\dpaccountclient.cpp
; File C:\IAGOS\server\v18\Source\Source\_Network\Net\Include\DPMng.h
; File C:\IAGOS\server\v18\Source\Source\DatabaseServer\dpaccountclient.cpp
;	COMDAT ?SendAddIdofServer@CDPAccountClient@@QAEXK@Z
_TEXT	SEGMENT
_nBufSize$ = -16428					; size = 4
$T2 = -16424						; size = 4
_ar$ = -16420						; size = 16404
__$ArrayPad$ = -16					; size = 4
__$EHRec$ = -12						; size = 12
_dwIdofServer$ = 8					; size = 4
?SendAddIdofServer@CDPAccountClient@@QAEXK@Z PROC	; CDPAccountClient::SendAddIdofServer, COMDAT
; _this$ = ecx

; 73   : {

  00000	55		 push	 ebp
  00001	8b ec		 mov	 ebp, esp
  00003	6a ff		 push	 -1
  00005	68 00 00 00 00	 push	 __ehhandler$?SendAddIdofServer@CDPAccountClient@@QAEXK@Z
  0000a	64 a1 00 00 00
	00		 mov	 eax, DWORD PTR fs:0
  00010	50		 push	 eax
  00011	b8 20 40 00 00	 mov	 eax, 16416		; 00004020H
  00016	e8 00 00 00 00	 call	 __chkstk
  0001b	a1 00 00 00 00	 mov	 eax, DWORD PTR ___security_cookie
  00020	33 c5		 xor	 eax, ebp
  00022	89 45 f0	 mov	 DWORD PTR __$ArrayPad$[ebp], eax
  00025	56		 push	 esi
  00026	50		 push	 eax
  00027	8d 45 f4	 lea	 eax, DWORD PTR __$EHRec$[ebp]
  0002a	64 a3 00 00 00
	00		 mov	 DWORD PTR fs:0, eax
  00030	8b f1		 mov	 esi, ecx

; 74   : 	BEFORESEND( ar, PACKETTYPE_MYREG );

  00032	6a 00		 push	 0
  00034	6a 00		 push	 0
  00036	8d 8d dc bf ff
	ff		 lea	 ecx, DWORD PTR _ar$[ebp]
  0003c	e8 00 00 00 00	 call	 ??0CAr@@QAE@PAXI@Z	; CAr::CAr
  00041	8d 85 d8 bf ff
	ff		 lea	 eax, DWORD PTR $T2[ebp]
  00047	c7 45 fc 00 00
	00 00		 mov	 DWORD PTR __$EHRec$[ebp+8], 0
  0004e	50		 push	 eax
  0004f	8d 8d dc bf ff
	ff		 lea	 ecx, DWORD PTR _ar$[ebp]
  00055	c7 85 d8 bf ff
	ff 01 00 00 00	 mov	 DWORD PTR $T2[ebp], 1
  0005f	e8 00 00 00 00	 call	 ??$?6K@CAr@@QAEAAV0@ABK@Z ; CAr::operator<<<unsigned long>

; 75   : 	ar << dwIdofServer;

  00064	8d 45 08	 lea	 eax, DWORD PTR _dwIdofServer$[ebp]
  00067	50		 push	 eax
  00068	8d 8d dc bf ff
	ff		 lea	 ecx, DWORD PTR _ar$[ebp]
  0006e	e8 00 00 00 00	 call	 ??$?6K@CAr@@QAEAAV0@ABK@Z ; CAr::operator<<<unsigned long>

; 76   : 	SEND( ar, this, DPID_SERVERPLAYER );

  00073	8d 85 d4 bf ff
	ff		 lea	 eax, DWORD PTR _nBufSize$[ebp]
  00079	50		 push	 eax
  0007a	8d 8d dc bf ff
	ff		 lea	 ecx, DWORD PTR _ar$[ebp]
  00080	e8 00 00 00 00	 call	 ?GetBuffer@CAr@@QAEPAEPAH@Z ; CAr::GetBuffer
; File C:\IAGOS\server\v18\Source\Source\_Network\Net\Include\DPMng.h

; 171  : 	if( !m_pDPSock )

  00085	8b 4e 04	 mov	 ecx, DWORD PTR [esi+4]
  00088	85 c9		 test	 ecx, ecx
  0008a	74 0e		 je	 SHORT $LN4@SendAddIdo

; 172  : 		return FALSE;
; 173  : 	return m_pDPSock->Send( (char*)lpData, dwDataSize, dpidTo );

  0008c	6a 01		 push	 1
  0008e	ff b5 d4 bf ff
	ff		 push	 DWORD PTR _nBufSize$[ebp]
  00094	50		 push	 eax
  00095	e8 00 00 00 00	 call	 ?Send@CDPSock@@QAEHPADKK@Z ; CDPSock::Send
$LN4@SendAddIdo:
; File C:\IAGOS\server\v18\Source\Source\DatabaseServer\dpaccountclient.cpp

; 77   : }

  0009a	8d 8d dc bf ff
	ff		 lea	 ecx, DWORD PTR _ar$[ebp]
  000a0	e8 00 00 00 00	 call	 ??1CAr@@QAE@XZ		; CAr::~CAr
  000a5	8b 4d f4	 mov	 ecx, DWORD PTR __$EHRec$[ebp]
  000a8	64 89 0d 00 00
	00 00		 mov	 DWORD PTR fs:0, ecx
  000af	59		 pop	 ecx
  000b0	5e		 pop	 esi
  000b1	8b 4d f0	 mov	 ecx, DWORD PTR __$ArrayPad$[ebp]
  000b4	33 cd		 xor	 ecx, ebp
  000b6	e8 00 00 00 00	 call	 @__security_check_cookie@4
  000bb	8b e5		 mov	 esp, ebp
  000bd	5d		 pop	 ebp
  000be	c2 04 00	 ret	 4
_TEXT	ENDS
;	COMDAT text$x
text$x	SEGMENT
__unwindfunclet$?SendAddIdofServer@CDPAccountClient@@QAEXK@Z$0:
  00000	8d 8d dc bf ff
	ff		 lea	 ecx, DWORD PTR _ar$[ebp]
  00006	e9 00 00 00 00	 jmp	 ??1CAr@@QAE@XZ		; CAr::~CAr
  0000b	cc		 int	 3
  0000c	cc		 int	 3
  0000d	cc		 int	 3
  0000e	cc		 int	 3
  0000f	cc		 int	 3
__ehhandler$?SendAddIdofServer@CDPAccountClient@@QAEXK@Z:
  00010	90		 npad	 1
  00011	90		 npad	 1
  00012	8b 54 24 08	 mov	 edx, DWORD PTR [esp+8]
  00016	8d 42 0c	 lea	 eax, DWORD PTR [edx+12]
  00019	8b 8a d8 bf ff
	ff		 mov	 ecx, DWORD PTR [edx-16424]
  0001f	33 c8		 xor	 ecx, eax
  00021	e8 00 00 00 00	 call	 @__security_check_cookie@4
  00026	8b 4a fc	 mov	 ecx, DWORD PTR [edx-4]
  00029	33 c8		 xor	 ecx, eax
  0002b	e8 00 00 00 00	 call	 @__security_check_cookie@4
  00030	b8 00 00 00 00	 mov	 eax, OFFSET __ehfuncinfo$?SendAddIdofServer@CDPAccountClient@@QAEXK@Z
  00035	e9 00 00 00 00	 jmp	 ___CxxFrameHandler3
text$x	ENDS
?SendAddIdofServer@CDPAccountClient@@QAEXK@Z ENDP	; CDPAccountClient::SendAddIdofServer
; Function compile flags: /Ogtp
; File C:\IAGOS\server\v18\Source\Source\DatabaseServer\dpaccountclient.cpp
; File C:\Program Files\Microsoft Visual Studio\2022\Professional\VC\Tools\MSVC\14.44.35207\include\xtree
; File C:\IAGOS\server\v18\Source\Source\DatabaseServer\dpaccountclient.cpp
; File C:\Program Files\Microsoft Visual Studio\2022\Professional\VC\Tools\MSVC\14.44.35207\include\xtree
; File C:\Program Files\Microsoft Visual Studio\2022\Professional\VC\Tools\MSVC\14.44.35207\include\type_traits
; File C:\Program Files\Microsoft Visual Studio\2022\Professional\VC\Tools\MSVC\14.44.35207\include\xtree
; File C:\IAGOS\server\v18\Source\Source\DatabaseServer\dpaccountclient.h
; File C:\IAGOS\server\v18\Source\Source\DatabaseServer\dpaccountclient.cpp
;	COMDAT ?UserMessageHandler@CDPAccountClient@@UAEXPAUDPMSG_GENERIC@@KK@Z
_TEXT	SEGMENT
__Loc$2 = -16444					; size = 12
_lpMsg$GSCopy$1$ = -16432				; size = 4
_dwMsgSize$GSCopy$1$ = -16428				; size = 4
_dw$ = -16424						; size = 4
_dwType$ = -16424					; size = 4
_ar$ = -16420						; size = 16404
__$ArrayPad$ = -16					; size = 4
__$EHRec$ = -12						; size = 12
_lpMsg$ = 8						; size = 4
_dwMsgSize$ = 12					; size = 4
_idFrom$ = 16						; size = 4
?UserMessageHandler@CDPAccountClient@@UAEXPAUDPMSG_GENERIC@@KK@Z PROC ; CDPAccountClient::UserMessageHandler, COMDAT
; _this$ = ecx

; 54   : {

  00000	55		 push	 ebp
  00001	8b ec		 mov	 ebp, esp
  00003	6a ff		 push	 -1
  00005	68 00 00 00 00	 push	 __ehhandler$?UserMessageHandler@CDPAccountClient@@UAEXPAUDPMSG_GENERIC@@KK@Z
  0000a	64 a1 00 00 00
	00		 mov	 eax, DWORD PTR fs:0
  00010	50		 push	 eax
  00011	b8 30 40 00 00	 mov	 eax, 16432		; 00004030H
  00016	e8 00 00 00 00	 call	 __chkstk
  0001b	a1 00 00 00 00	 mov	 eax, DWORD PTR ___security_cookie
  00020	33 c5		 xor	 eax, ebp
  00022	89 45 f0	 mov	 DWORD PTR __$ArrayPad$[ebp], eax
  00025	53		 push	 ebx
  00026	56		 push	 esi
  00027	57		 push	 edi
  00028	50		 push	 eax
  00029	8d 45 f4	 lea	 eax, DWORD PTR __$EHRec$[ebp]
  0002c	64 a3 00 00 00
	00		 mov	 DWORD PTR fs:0, eax
  00032	8b d9		 mov	 ebx, ecx
  00034	8b 4d 0c	 mov	 ecx, DWORD PTR _dwMsgSize$[ebp]
  00037	8b 45 08	 mov	 eax, DWORD PTR _lpMsg$[ebp]

; 55   : 	CAr ar( (LPBYTE)lpMsg, dwMsgSize );

  0003a	51		 push	 ecx
  0003b	89 8d d4 bf ff
	ff		 mov	 DWORD PTR _dwMsgSize$GSCopy$1$[ebp], ecx
  00041	8d 8d dc bf ff
	ff		 lea	 ecx, DWORD PTR _ar$[ebp]
  00047	50		 push	 eax
  00048	89 85 d0 bf ff
	ff		 mov	 DWORD PTR _lpMsg$GSCopy$1$[ebp], eax
  0004e	e8 00 00 00 00	 call	 ??0CAr@@QAE@PAXI@Z	; CAr::CAr

; 56   : 	GETTYPE( ar );

  00053	8d 85 d8 bf ff
	ff		 lea	 eax, DWORD PTR _dw$[ebp]
  00059	c7 45 fc 00 00
	00 00		 mov	 DWORD PTR __$EHRec$[ebp+8], 0
  00060	50		 push	 eax
  00061	8d 8d dc bf ff
	ff		 lea	 ecx, DWORD PTR _ar$[ebp]
  00067	e8 00 00 00 00	 call	 ??$?5K@CAr@@QAEAAV0@AAK@Z ; CAr::operator>><unsigned long>

; 58   : 		=	GetHandler( dw );

  0006c	8b b5 d8 bf ff
	ff		 mov	 esi, DWORD PTR _dw$[ebp]
; File C:\Program Files\Microsoft Visual Studio\2022\Professional\VC\Tools\MSVC\14.44.35207\include\xtree

; 1384 :         const _Tree_find_result<_Nodeptr> _Loc = _Find_lower_bound(_Keyval);

  00072	8d 85 d8 bf ff
	ff		 lea	 eax, DWORD PTR _dwType$[ebp]
  00078	50		 push	 eax
  00079	8d 85 c4 bf ff
	ff		 lea	 eax, DWORD PTR __Loc$2[ebp]
; File C:\IAGOS\server\v18\Source\Source\DatabaseServer\dpaccountclient.cpp

; 58   : 		=	GetHandler( dw );

  0007f	89 b5 d8 bf ff
	ff		 mov	 DWORD PTR _dwType$[ebp], esi
; File C:\Program Files\Microsoft Visual Studio\2022\Professional\VC\Tools\MSVC\14.44.35207\include\xtree

; 1384 :         const _Tree_find_result<_Nodeptr> _Loc = _Find_lower_bound(_Keyval);

  00085	50		 push	 eax
  00086	8d 4b 10	 lea	 ecx, DWORD PTR [ebx+16]
  00089	e8 00 00 00 00	 call	 ??$_Find_lower_bound@K@?$_Tree@V?$_Tmap_traits@KP8CDPAccountClient@@AEXAAVCAr@@PAEK@ZU?$less@K@std@@V?$allocator@U?$pair@$$CBKP8CDPAccountClient@@AEXAAVCAr@@PAEK@Z@std@@@4@$0A@@std@@@std@@IBE?AU?$_Tree_find_result@PAU?$_Tree_node@U?$pair@$$CBKP8CDPAccountClient@@AEXAAVCAr@@PAEK@Z@std@@PAX@std@@@1@ABK@Z ; std::_Tree<std::_Tmap_traits<unsigned long,void (__thiscall CDPAccountClient::*)(CAr &,unsigned char *,unsigned long),std::less<unsigned long>,std::allocator<std::pair<unsigned long const ,void (__thiscall CDPAccountClient::*)(CAr &,unsigned char *,unsigned long)> >,0> >::_Find_lower_bound<unsigned long>

; 1624 :         return !_Bound->_Isnil && !_DEBUG_LT_PRED(_Getcomp(), _Keyval, _Traits::_Kfn(_Bound->_Myval));

  0008e	8b 85 cc bf ff
	ff		 mov	 eax, DWORD PTR __Loc$2[ebp+8]
  00094	80 78 0d 00	 cmp	 BYTE PTR [eax+13], 0
  00098	75 0f		 jne	 SHORT $LN5@UserMessag
; File C:\Program Files\Microsoft Visual Studio\2022\Professional\VC\Tools\MSVC\14.44.35207\include\type_traits

; 2380 :         return _Left < _Right;

  0009a	3b 70 10	 cmp	 esi, DWORD PTR [eax+16]
; File C:\Program Files\Microsoft Visual Studio\2022\Professional\VC\Tools\MSVC\14.44.35207\include\xtree

; 1624 :         return !_Bound->_Isnil && !_DEBUG_LT_PRED(_Getcomp(), _Keyval, _Traits::_Kfn(_Bound->_Myval));

  0009d	72 0a		 jb	 SHORT $LN5@UserMessag

; 37   :     _Tree_unchecked_const_iterator(_Nodeptr _Pnode, const _Mytree* _Plist) noexcept : _Ptr(_Pnode) {

  0009f	3b 43 10	 cmp	 eax, DWORD PTR [ebx+16]
; File C:\IAGOS\server\v18\Source\Source\DatabaseServer\dpaccountclient.h

; 43   : 	USES_PFNENTRIES;

  000a2	74 05		 je	 SHORT $LN5@UserMessag
  000a4	8b 50 14	 mov	 edx, DWORD PTR [eax+20]
  000a7	eb 02		 jmp	 SHORT $LN4@UserMessag
$LN5@UserMessag:
  000a9	33 d2		 xor	 edx, edx
$LN4@UserMessag:
; File C:\IAGOS\server\v18\Source\Source\DatabaseServer\dpaccountclient.cpp

; 60   : 	( this->*( pfn ) )( ar, (LPBYTE)lpMsg + sizeof(DWORD), dwMsgSize - sizeof(DWORD) );

  000ab	8b 85 d4 bf ff
	ff		 mov	 eax, DWORD PTR _dwMsgSize$GSCopy$1$[ebp]
  000b1	8b cb		 mov	 ecx, ebx
  000b3	83 c0 fc	 add	 eax, -4			; fffffffcH
  000b6	50		 push	 eax
  000b7	8b 85 d0 bf ff
	ff		 mov	 eax, DWORD PTR _lpMsg$GSCopy$1$[ebp]
  000bd	83 c0 04	 add	 eax, 4
  000c0	50		 push	 eax
  000c1	8d 85 dc bf ff
	ff		 lea	 eax, DWORD PTR _ar$[ebp]
  000c7	50		 push	 eax
  000c8	ff d2		 call	 edx

; 61   : }

  000ca	8d 8d dc bf ff
	ff		 lea	 ecx, DWORD PTR _ar$[ebp]
  000d0	e8 00 00 00 00	 call	 ??1CAr@@QAE@XZ		; CAr::~CAr
  000d5	8b 4d f4	 mov	 ecx, DWORD PTR __$EHRec$[ebp]
  000d8	64 89 0d 00 00
	00 00		 mov	 DWORD PTR fs:0, ecx
  000df	59		 pop	 ecx
  000e0	5f		 pop	 edi
  000e1	5e		 pop	 esi
  000e2	5b		 pop	 ebx
  000e3	8b 4d f0	 mov	 ecx, DWORD PTR __$ArrayPad$[ebp]
  000e6	33 cd		 xor	 ecx, ebp
  000e8	e8 00 00 00 00	 call	 @__security_check_cookie@4
  000ed	8b e5		 mov	 esp, ebp
  000ef	5d		 pop	 ebp
  000f0	c2 0c 00	 ret	 12			; 0000000cH
_TEXT	ENDS
;	COMDAT text$x
text$x	SEGMENT
__unwindfunclet$?UserMessageHandler@CDPAccountClient@@UAEXPAUDPMSG_GENERIC@@KK@Z$0:
  00000	8d 8d dc bf ff
	ff		 lea	 ecx, DWORD PTR _ar$[ebp]
  00006	e9 00 00 00 00	 jmp	 ??1CAr@@QAE@XZ		; CAr::~CAr
  0000b	cc		 int	 3
  0000c	cc		 int	 3
  0000d	cc		 int	 3
  0000e	cc		 int	 3
  0000f	cc		 int	 3
__ehhandler$?UserMessageHandler@CDPAccountClient@@UAEXPAUDPMSG_GENERIC@@KK@Z:
  00010	90		 npad	 1
  00011	90		 npad	 1
  00012	8b 54 24 08	 mov	 edx, DWORD PTR [esp+8]
  00016	8d 42 0c	 lea	 eax, DWORD PTR [edx+12]
  00019	8b 8a c0 bf ff
	ff		 mov	 ecx, DWORD PTR [edx-16448]
  0001f	33 c8		 xor	 ecx, eax
  00021	e8 00 00 00 00	 call	 @__security_check_cookie@4
  00026	8b 4a fc	 mov	 ecx, DWORD PTR [edx-4]
  00029	33 c8		 xor	 ecx, eax
  0002b	e8 00 00 00 00	 call	 @__security_check_cookie@4
  00030	b8 00 00 00 00	 mov	 eax, OFFSET __ehfuncinfo$?UserMessageHandler@CDPAccountClient@@UAEXPAUDPMSG_GENERIC@@KK@Z
  00035	e9 00 00 00 00	 jmp	 ___CxxFrameHandler3
text$x	ENDS
?UserMessageHandler@CDPAccountClient@@UAEXPAUDPMSG_GENERIC@@KK@Z ENDP ; CDPAccountClient::UserMessageHandler
; Function compile flags: /Ogtp
; File C:\IAGOS\server\v18\Source\Source\DatabaseServer\dpaccountclient.cpp
;	COMDAT ?SysMessageHandler@CDPAccountClient@@UAEXPAUDPMSG_GENERIC@@KK@Z
_TEXT	SEGMENT
_lpMsg$ = 8						; size = 4
_dwMsgSize$ = 12					; size = 4
_idFrom$ = 16						; size = 4
?SysMessageHandler@CDPAccountClient@@UAEXPAUDPMSG_GENERIC@@KK@Z PROC ; CDPAccountClient::SysMessageHandler, COMDAT
; _this$ = ecx

; 46   : 	switch( lpMsg->dwType )
; 47   : 	{
; 48   : 		case DPSYS_DESTROYPLAYERORGROUP:
; 49   : 				break;
; 50   : 	}
; 51   : }

  00000	c2 0c 00	 ret	 12			; 0000000cH
?SysMessageHandler@CDPAccountClient@@UAEXPAUDPMSG_GENERIC@@KK@Z ENDP ; CDPAccountClient::SysMessageHandler
_TEXT	ENDS
; Function compile flags: /Ogtp
; File C:\IAGOS\server\v18\Source\Source\DatabaseServer\dpaccountclient.cpp
;	COMDAT ??1CDPAccountClient@@UAE@XZ
_TEXT	SEGMENT
??1CDPAccountClient@@UAE@XZ PROC			; CDPAccountClient::~CDPAccountClient, COMDAT
; _this$ = ecx

; 41   : {

  00000	56		 push	 esi
  00001	8b f1		 mov	 esi, ecx

; 42   : }

  00003	8d 4e 10	 lea	 ecx, DWORD PTR [esi+16]
  00006	c7 06 00 00 00
	00		 mov	 DWORD PTR [esi], OFFSET ??_7CDPAccountClient@@6B@
  0000c	e8 00 00 00 00	 call	 ??1?$_Tree@V?$_Tmap_traits@KP8CDPAccountClient@@AEXAAVCAr@@PAEK@ZU?$less@K@std@@V?$allocator@U?$pair@$$CBKP8CDPAccountClient@@AEXAAVCAr@@PAEK@Z@std@@@4@$0A@@std@@@std@@QAE@XZ ; std::_Tree<std::_Tmap_traits<unsigned long,void (__thiscall CDPAccountClient::*)(CAr &,unsigned char *,unsigned long),std::less<unsigned long>,std::allocator<std::pair<unsigned long const ,void (__thiscall CDPAccountClient::*)(CAr &,unsigned char *,unsigned long)> >,0> >::~_Tree<std::_Tmap_traits<unsigned long,void (__thiscall CDPAccountClient::*)(CAr &,unsigned char *,unsigned long),std::less<unsigned long>,std::allocator<std::pair<unsigned long const ,void (__thiscall CDPAccountClient::*)(CAr &,unsigned char *,unsigned long)> >,0> >
  00011	8b ce		 mov	 ecx, esi
  00013	5e		 pop	 esi
  00014	e9 00 00 00 00	 jmp	 ??1CDPMng@@UAE@XZ	; CDPMng::~CDPMng
??1CDPAccountClient@@UAE@XZ ENDP			; CDPAccountClient::~CDPAccountClient
_TEXT	ENDS
; Function compile flags: /Ogtp
; File C:\IAGOS\server\v18\Source\Source\DatabaseServer\dpaccountclient.cpp
; File C:\Program Files\Microsoft Visual Studio\2022\Professional\VC\Tools\MSVC\14.44.35207\include\xmemory
; File C:\IAGOS\server\v18\Source\Source\DatabaseServer\dpaccountclient.cpp
; File C:\Program Files\Microsoft Visual Studio\2022\Professional\VC\Tools\MSVC\14.44.35207\include\xtree
; File C:\Program Files\Microsoft Visual Studio\2022\Professional\VC\Tools\MSVC\14.44.35207\include\xmemory
; File C:\Program Files\Microsoft Visual Studio\2022\Professional\VC\Tools\MSVC\14.44.35207\include\xtree
; File C:\IAGOS\server\v18\Source\Source\DatabaseServer\dpaccountclient.cpp
; File C:\Program Files\Microsoft Visual Studio\2022\Professional\VC\Tools\MSVC\14.44.35207\include\xtree
; File C:\Program Files\Microsoft Visual Studio\2022\Professional\VC\Tools\MSVC\14.44.35207\include\utility
; File C:\Program Files\Microsoft Visual Studio\2022\Professional\VC\Tools\MSVC\14.44.35207\include\xtree
; File C:\Program Files\Microsoft Visual Studio\2022\Professional\VC\Tools\MSVC\14.44.35207\include\utility
; File C:\Program Files\Microsoft Visual Studio\2022\Professional\VC\Tools\MSVC\14.44.35207\include\xtree
; File C:\Program Files\Microsoft Visual Studio\2022\Professional\VC\Tools\MSVC\14.44.35207\include\type_traits
; File C:\Program Files\Microsoft Visual Studio\2022\Professional\VC\Tools\MSVC\14.44.35207\include\xtree
; File C:\Program Files\Microsoft Visual Studio\2022\Professional\VC\Tools\MSVC\14.44.35207\include\xmemory
; File C:\Program Files\Microsoft Visual Studio\2022\Professional\VC\Tools\MSVC\14.44.35207\include\xtree
; File C:\Program Files\Microsoft Visual Studio\2022\Professional\VC\Tools\MSVC\14.44.35207\include\xmemory
; File C:\Program Files\Microsoft Visual Studio\2022\Professional\VC\Tools\MSVC\14.44.35207\include\xtree
; File C:\Program Files\Microsoft Visual Studio\2022\Professional\VC\Tools\MSVC\14.44.35207\include\utility
; File C:\Program Files\Microsoft Visual Studio\2022\Professional\VC\Tools\MSVC\14.44.35207\include\xtree
; File C:\Program Files\Microsoft Visual Studio\2022\Professional\VC\Tools\MSVC\14.44.35207\include\utility
; File C:\Program Files\Microsoft Visual Studio\2022\Professional\VC\Tools\MSVC\14.44.35207\include\xtree
; File C:\Program Files\Microsoft Visual Studio\2022\Professional\VC\Tools\MSVC\14.44.35207\include\type_traits
; File C:\Program Files\Microsoft Visual Studio\2022\Professional\VC\Tools\MSVC\14.44.35207\include\xtree
; File C:\Program Files\Microsoft Visual Studio\2022\Professional\VC\Tools\MSVC\14.44.35207\include\xmemory
; File C:\Program Files\Microsoft Visual Studio\2022\Professional\VC\Tools\MSVC\14.44.35207\include\xtree
; File C:\Program Files\Microsoft Visual Studio\2022\Professional\VC\Tools\MSVC\14.44.35207\include\xmemory
; File C:\Program Files\Microsoft Visual Studio\2022\Professional\VC\Tools\MSVC\14.44.35207\include\xtree
; File C:\Program Files\Microsoft Visual Studio\2022\Professional\VC\Tools\MSVC\14.44.35207\include\utility
; File C:\Program Files\Microsoft Visual Studio\2022\Professional\VC\Tools\MSVC\14.44.35207\include\xtree
; File C:\Program Files\Microsoft Visual Studio\2022\Professional\VC\Tools\MSVC\14.44.35207\include\utility
; File C:\Program Files\Microsoft Visual Studio\2022\Professional\VC\Tools\MSVC\14.44.35207\include\xtree
; File C:\Program Files\Microsoft Visual Studio\2022\Professional\VC\Tools\MSVC\14.44.35207\include\type_traits
; File C:\Program Files\Microsoft Visual Studio\2022\Professional\VC\Tools\MSVC\14.44.35207\include\xtree
; File C:\Program Files\Microsoft Visual Studio\2022\Professional\VC\Tools\MSVC\14.44.35207\include\xmemory
; File C:\Program Files\Microsoft Visual Studio\2022\Professional\VC\Tools\MSVC\14.44.35207\include\xtree
; File C:\Program Files\Microsoft Visual Studio\2022\Professional\VC\Tools\MSVC\14.44.35207\include\xmemory
; File C:\Program Files\Microsoft Visual Studio\2022\Professional\VC\Tools\MSVC\14.44.35207\include\xtree
; File C:\Program Files\Microsoft Visual Studio\2022\Professional\VC\Tools\MSVC\14.44.35207\include\utility
; File C:\Program Files\Microsoft Visual Studio\2022\Professional\VC\Tools\MSVC\14.44.35207\include\xtree
; File C:\Program Files\Microsoft Visual Studio\2022\Professional\VC\Tools\MSVC\14.44.35207\include\utility
; File C:\Program Files\Microsoft Visual Studio\2022\Professional\VC\Tools\MSVC\14.44.35207\include\xtree
; File C:\Program Files\Microsoft Visual Studio\2022\Professional\VC\Tools\MSVC\14.44.35207\include\type_traits
; File C:\Program Files\Microsoft Visual Studio\2022\Professional\VC\Tools\MSVC\14.44.35207\include\xtree
; File C:\Program Files\Microsoft Visual Studio\2022\Professional\VC\Tools\MSVC\14.44.35207\include\xmemory
; File C:\Program Files\Microsoft Visual Studio\2022\Professional\VC\Tools\MSVC\14.44.35207\include\xtree
; File C:\Program Files\Microsoft Visual Studio\2022\Professional\VC\Tools\MSVC\14.44.35207\include\xmemory
; File C:\Program Files\Microsoft Visual Studio\2022\Professional\VC\Tools\MSVC\14.44.35207\include\xtree
; File C:\Program Files\Microsoft Visual Studio\2022\Professional\VC\Tools\MSVC\14.44.35207\include\utility
; File C:\Program Files\Microsoft Visual Studio\2022\Professional\VC\Tools\MSVC\14.44.35207\include\xtree
; File C:\Program Files\Microsoft Visual Studio\2022\Professional\VC\Tools\MSVC\14.44.35207\include\utility
; File C:\Program Files\Microsoft Visual Studio\2022\Professional\VC\Tools\MSVC\14.44.35207\include\xtree
; File C:\Program Files\Microsoft Visual Studio\2022\Professional\VC\Tools\MSVC\14.44.35207\include\type_traits
; File C:\Program Files\Microsoft Visual Studio\2022\Professional\VC\Tools\MSVC\14.44.35207\include\xtree
; File C:\Program Files\Microsoft Visual Studio\2022\Professional\VC\Tools\MSVC\14.44.35207\include\xmemory
; File C:\Program Files\Microsoft Visual Studio\2022\Professional\VC\Tools\MSVC\14.44.35207\include\xtree
; File C:\Program Files\Microsoft Visual Studio\2022\Professional\VC\Tools\MSVC\14.44.35207\include\xmemory
; File C:\Program Files\Microsoft Visual Studio\2022\Professional\VC\Tools\MSVC\14.44.35207\include\xtree
; File C:\Program Files\Microsoft Visual Studio\2022\Professional\VC\Tools\MSVC\14.44.35207\include\utility
; File C:\Program Files\Microsoft Visual Studio\2022\Professional\VC\Tools\MSVC\14.44.35207\include\xtree
; File C:\Program Files\Microsoft Visual Studio\2022\Professional\VC\Tools\MSVC\14.44.35207\include\utility
; File C:\Program Files\Microsoft Visual Studio\2022\Professional\VC\Tools\MSVC\14.44.35207\include\xtree
; File C:\Program Files\Microsoft Visual Studio\2022\Professional\VC\Tools\MSVC\14.44.35207\include\type_traits
; File C:\Program Files\Microsoft Visual Studio\2022\Professional\VC\Tools\MSVC\14.44.35207\include\xtree
; File C:\Program Files\Microsoft Visual Studio\2022\Professional\VC\Tools\MSVC\14.44.35207\include\xmemory
; File C:\Program Files\Microsoft Visual Studio\2022\Professional\VC\Tools\MSVC\14.44.35207\include\xtree
; File C:\Program Files\Microsoft Visual Studio\2022\Professional\VC\Tools\MSVC\14.44.35207\include\xmemory
; File C:\Program Files\Microsoft Visual Studio\2022\Professional\VC\Tools\MSVC\14.44.35207\include\xtree
; File C:\Program Files\Microsoft Visual Studio\2022\Professional\VC\Tools\MSVC\14.44.35207\include\utility
; File C:\Program Files\Microsoft Visual Studio\2022\Professional\VC\Tools\MSVC\14.44.35207\include\xtree
; File C:\Program Files\Microsoft Visual Studio\2022\Professional\VC\Tools\MSVC\14.44.35207\include\utility
; File C:\Program Files\Microsoft Visual Studio\2022\Professional\VC\Tools\MSVC\14.44.35207\include\xtree
; File C:\Program Files\Microsoft Visual Studio\2022\Professional\VC\Tools\MSVC\14.44.35207\include\type_traits
; File C:\Program Files\Microsoft Visual Studio\2022\Professional\VC\Tools\MSVC\14.44.35207\include\xtree
; File C:\Program Files\Microsoft Visual Studio\2022\Professional\VC\Tools\MSVC\14.44.35207\include\xmemory
; File C:\Program Files\Microsoft Visual Studio\2022\Professional\VC\Tools\MSVC\14.44.35207\include\xtree
; File C:\Program Files\Microsoft Visual Studio\2022\Professional\VC\Tools\MSVC\14.44.35207\include\xmemory
; File C:\Program Files\Microsoft Visual Studio\2022\Professional\VC\Tools\MSVC\14.44.35207\include\xtree
; File C:\Program Files\Microsoft Visual Studio\2022\Professional\VC\Tools\MSVC\14.44.35207\include\utility
; File C:\Program Files\Microsoft Visual Studio\2022\Professional\VC\Tools\MSVC\14.44.35207\include\xtree
; File C:\Program Files\Microsoft Visual Studio\2022\Professional\VC\Tools\MSVC\14.44.35207\include\utility
; File C:\Program Files\Microsoft Visual Studio\2022\Professional\VC\Tools\MSVC\14.44.35207\include\xtree
; File C:\Program Files\Microsoft Visual Studio\2022\Professional\VC\Tools\MSVC\14.44.35207\include\type_traits
; File C:\Program Files\Microsoft Visual Studio\2022\Professional\VC\Tools\MSVC\14.44.35207\include\xtree
; File C:\Program Files\Microsoft Visual Studio\2022\Professional\VC\Tools\MSVC\14.44.35207\include\xmemory
; File C:\Program Files\Microsoft Visual Studio\2022\Professional\VC\Tools\MSVC\14.44.35207\include\xtree
; File C:\Program Files\Microsoft Visual Studio\2022\Professional\VC\Tools\MSVC\14.44.35207\include\xmemory
; File C:\Program Files\Microsoft Visual Studio\2022\Professional\VC\Tools\MSVC\14.44.35207\include\xtree
; File C:\IAGOS\server\v18\Source\Source\DatabaseServer\dpaccountclient.cpp
; File C:\Program Files\Microsoft Visual Studio\2022\Professional\VC\Tools\MSVC\14.44.35207\include\xtree
; File C:\IAGOS\server\v18\Source\Source\DatabaseServer\dpaccountclient.cpp
;	COMDAT ??0CDPAccountClient@@QAE@XZ
_TEXT	SEGMENT
$T2 = -48						; size = 12
$T3 = -48						; size = 12
$T4 = -48						; size = 12
$T5 = -48						; size = 12
$T6 = -48						; size = 12
$T7 = -48						; size = 12
$T8 = -48						; size = 12
$T9 = -48						; size = 12
__Loc$10 = -36						; size = 12
__Loc$11 = -36						; size = 12
__Loc$12 = -36						; size = 12
__Loc$13 = -36						; size = 12
__Loc$14 = -36						; size = 12
__Loc$15 = -36						; size = 12
__Loc$16 = -36						; size = 12
__Loc$17 = -36						; size = 12
$T18 = -24						; size = 8
$T19 = -24						; size = 8
$T20 = -24						; size = 8
$T21 = -24						; size = 8
$T22 = -24						; size = 8
$T23 = -24						; size = 8
$T24 = -24						; size = 8
$T25 = -24						; size = 8
$T26 = -24						; size = 8
$T27 = -24						; size = 8
$T28 = -24						; size = 8
$T29 = -24						; size = 8
$T30 = -24						; size = 8
$T31 = -24						; size = 8
$T32 = -24						; size = 8
$T33 = -24						; size = 8
_this$ = -20						; size = 4
_this$ = -16						; size = 4
__$EHRec$ = -12						; size = 12
??0CDPAccountClient@@QAE@XZ PROC			; CDPAccountClient::CDPAccountClient, COMDAT
; _this$ = ecx

; 14   : {

  00000	55		 push	 ebp
  00001	8b ec		 mov	 ebp, esp
  00003	6a ff		 push	 -1
  00005	68 00 00 00 00	 push	 __ehhandler$??0CDPAccountClient@@QAE@XZ
  0000a	64 a1 00 00 00
	00		 mov	 eax, DWORD PTR fs:0
  00010	50		 push	 eax
  00011	83 ec 24	 sub	 esp, 36			; 00000024H
  00014	53		 push	 ebx
  00015	56		 push	 esi
  00016	57		 push	 edi
  00017	a1 00 00 00 00	 mov	 eax, DWORD PTR ___security_cookie
  0001c	33 c5		 xor	 eax, ebp
  0001e	50		 push	 eax
  0001f	8d 45 f4	 lea	 eax, DWORD PTR __$EHRec$[ebp]
  00022	64 a3 00 00 00
	00		 mov	 DWORD PTR fs:0, eax
  00028	8b d9		 mov	 ebx, ecx
  0002a	89 5d f0	 mov	 DWORD PTR _this$[ebp], ebx
  0002d	e8 00 00 00 00	 call	 ??0CDPMng@@QAE@XZ	; CDPMng::CDPMng
  00032	8d 7b 10	 lea	 edi, DWORD PTR [ebx+16]
  00035	c7 03 00 00 00
	00		 mov	 DWORD PTR [ebx], OFFSET ??_7CDPAccountClient@@6B@
  0003b	89 7d ec	 mov	 DWORD PTR _this$[ebp], edi
; File C:\Program Files\Microsoft Visual Studio\2022\Professional\VC\Tools\MSVC\14.44.35207\include\xmemory

; 136  :         return ::operator new(_Bytes);

  0003e	6a 18		 push	 24			; 00000018H
; File C:\IAGOS\server\v18\Source\Source\DatabaseServer\dpaccountclient.cpp

; 14   : {

  00040	c7 45 fc 00 00
	00 00		 mov	 DWORD PTR __$EHRec$[ebp+8], 0
; File C:\Program Files\Microsoft Visual Studio\2022\Professional\VC\Tools\MSVC\14.44.35207\include\xtree

; 450  :     _Tree_val() noexcept : _Myhead(), _Mysize(0) {}

  00047	c7 07 00 00 00
	00		 mov	 DWORD PTR [edi], 0
  0004d	c7 47 04 00 00
	00 00		 mov	 DWORD PTR [edi+4], 0
; File C:\Program Files\Microsoft Visual Studio\2022\Professional\VC\Tools\MSVC\14.44.35207\include\xmemory

; 136  :         return ::operator new(_Bytes);

  00054	e8 00 00 00 00	 call	 ??2@YAPAXI@Z		; operator new
  00059	83 c4 04	 add	 esp, 4
; File C:\Program Files\Microsoft Visual Studio\2022\Professional\VC\Tools\MSVC\14.44.35207\include\xtree

; 346  :         _Construct_in_place(_Pnode->_Left, _Pnode);

  0005c	89 00		 mov	 DWORD PTR [eax], eax

; 347  :         _Construct_in_place(_Pnode->_Parent, _Pnode);

  0005e	89 40 04	 mov	 DWORD PTR [eax+4], eax

; 348  :         _Construct_in_place(_Pnode->_Right, _Pnode);

  00061	89 40 08	 mov	 DWORD PTR [eax+8], eax

; 349  :         _Pnode->_Color = _Black;

  00064	66 c7 40 0c 01
	01		 mov	 WORD PTR [eax+12], 257	; 00000101H

; 1957 :         _Scary->_Myhead = _Node::_Buyheadnode(_Getal());

  0006a	89 07		 mov	 DWORD PTR [edi], eax

; 1017 :             _Loc                = _Find_lower_bound(_Keyval);

  0006c	8d 45 e8	 lea	 eax, DWORD PTR $T21[ebp]
; File C:\IAGOS\server\v18\Source\Source\DatabaseServer\dpaccountclient.cpp

; 14   : {

  0006f	c6 45 fc 01	 mov	 BYTE PTR __$EHRec$[ebp+8], 1
; File C:\Program Files\Microsoft Visual Studio\2022\Professional\VC\Tools\MSVC\14.44.35207\include\xtree

; 1017 :             _Loc                = _Find_lower_bound(_Keyval);

  00073	50		 push	 eax
  00074	8d 45 d0	 lea	 eax, DWORD PTR $T4[ebp]
; File C:\Program Files\Microsoft Visual Studio\2022\Professional\VC\Tools\MSVC\14.44.35207\include\utility

; 274  :         : first(_STD forward<_Other1>(_Val1)), second(_STD forward<_Other2>(_Val2)) {

  00077	c7 45 e8 f6 00
	00 00		 mov	 DWORD PTR $T21[ebp], 246 ; 000000f6H
; File C:\Program Files\Microsoft Visual Studio\2022\Professional\VC\Tools\MSVC\14.44.35207\include\xtree

; 1017 :             _Loc                = _Find_lower_bound(_Keyval);

  0007e	50		 push	 eax
  0007f	8b cf		 mov	 ecx, edi
; File C:\Program Files\Microsoft Visual Studio\2022\Professional\VC\Tools\MSVC\14.44.35207\include\utility

; 274  :         : first(_STD forward<_Other1>(_Val1)), second(_STD forward<_Other2>(_Val2)) {

  00081	c7 45 ec 00 00
	00 00		 mov	 DWORD PTR $T21[ebp+4], OFFSET ?OnGetPlayerList@CDPAccountClient@@AAEXAAVCAr@@PAEK@Z ; CDPAccountClient::OnGetPlayerList
; File C:\Program Files\Microsoft Visual Studio\2022\Professional\VC\Tools\MSVC\14.44.35207\include\xtree

; 1017 :             _Loc                = _Find_lower_bound(_Keyval);

  00088	e8 00 00 00 00	 call	 ??$_Find_lower_bound@K@?$_Tree@V?$_Tmap_traits@KP8CDPAccountClient@@AEXAAVCAr@@PAEK@ZU?$less@K@std@@V?$allocator@U?$pair@$$CBKP8CDPAccountClient@@AEXAAVCAr@@PAEK@Z@std@@@4@$0A@@std@@@std@@IBE?AU?$_Tree_find_result@PAU?$_Tree_node@U?$pair@$$CBKP8CDPAccountClient@@AEXAAVCAr@@PAEK@Z@std@@PAX@std@@@1@ABK@Z ; std::_Tree<std::_Tmap_traits<unsigned long,void (__thiscall CDPAccountClient::*)(CAr &,unsigned char *,unsigned long),std::less<unsigned long>,std::allocator<std::pair<unsigned long const ,void (__thiscall CDPAccountClient::*)(CAr &,unsigned char *,unsigned long)> >,0> >::_Find_lower_bound<unsigned long>
  0008d	f3 0f 7e 00	 movq	 xmm0, QWORD PTR [eax]
  00091	8b 40 08	 mov	 eax, DWORD PTR [eax+8]
  00094	66 0f d6 45 dc	 movq	 QWORD PTR __Loc$12[ebp], xmm0

; 1624 :         return !_Bound->_Isnil && !_DEBUG_LT_PRED(_Getcomp(), _Keyval, _Traits::_Kfn(_Bound->_Myval));

  00099	80 78 0d 00	 cmp	 BYTE PTR [eax+13], 0
  0009d	75 09		 jne	 SHORT $LN51@CDPAccount
; File C:\Program Files\Microsoft Visual Studio\2022\Professional\VC\Tools\MSVC\14.44.35207\include\type_traits

; 2380 :         return _Left < _Right;

  0009f	81 78 10 f6 00
	00 00		 cmp	 DWORD PTR [eax+16], 246	; 000000f6H
; File C:\Program Files\Microsoft Visual Studio\2022\Professional\VC\Tools\MSVC\14.44.35207\include\xtree

; 1624 :         return !_Bound->_Isnil && !_DEBUG_LT_PRED(_Getcomp(), _Keyval, _Traits::_Kfn(_Bound->_Myval));

  000a6	76 55		 jbe	 SHORT $LN126@CDPAccount
$LN51@CDPAccount:

; 1648 :         if (max_size() == _Get_scary()->_Mysize) {

  000a8	81 7f 04 aa aa
	aa 0a		 cmp	 DWORD PTR [edi+4], 178956970 ; 0aaaaaaaH
  000af	0f 84 29 04 00
	00		 je	 $LN856@CDPAccount

; 1023 :             _Inserted = _Tree_temp_node<_Alnode>(_Getal(), _Scary->_Myhead, _STD forward<_Valtys>(_Vals)...)._Release();

  000b5	8b 37		 mov	 esi, DWORD PTR [edi]
; File C:\Program Files\Microsoft Visual Studio\2022\Professional\VC\Tools\MSVC\14.44.35207\include\xmemory

; 1160 :     _CONSTEXPR20 explicit _Alloc_construct_ptr(_Alloc& _Al_) : _Al(_Al_), _Ptr(nullptr) {}

  000b7	89 7d e8	 mov	 DWORD PTR $T33[ebp], edi

; 136  :         return ::operator new(_Bytes);

  000ba	6a 18		 push	 24			; 00000018H
; File C:\Program Files\Microsoft Visual Studio\2022\Professional\VC\Tools\MSVC\14.44.35207\include\xtree

; 808  :     explicit _Tree_temp_node_alloc(_Alnode& _Al_) : _Alloc_construct_ptr<_Alnode>(_Al_) {

  000bc	c6 45 fc 02	 mov	 BYTE PTR __$EHRec$[ebp+8], 2
; File C:\Program Files\Microsoft Visual Studio\2022\Professional\VC\Tools\MSVC\14.44.35207\include\xmemory

; 1167 :         _Ptr = nullptr; // if allocate throws, prevents double-free

  000c0	c7 45 ec 00 00
	00 00		 mov	 DWORD PTR $T33[ebp+4], 0

; 136  :         return ::operator new(_Bytes);

  000c7	e8 00 00 00 00	 call	 ??2@YAPAXI@Z		; operator new
  000cc	83 c4 04	 add	 esp, 4
; File C:\Program Files\Microsoft Visual Studio\2022\Professional\VC\Tools\MSVC\14.44.35207\include\xtree

; 810  :     }

  000cf	c6 45 fc 01	 mov	 BYTE PTR __$EHRec$[ebp+8], 1

; 1042 :         return {_Scary->_Insert_node(_Loc._Location, _Inserted), true};

  000d3	8b cf		 mov	 ecx, edi

; 830  :         _Alnode_traits::construct(this->_Al, _STD addressof(this->_Ptr->_Myval), _STD forward<_Valtys>(_Vals)...);

  000d5	c7 40 10 f6 00
	00 00		 mov	 DWORD PTR [eax+16], 246	; 000000f6H

; 1042 :         return {_Scary->_Insert_node(_Loc._Location, _Inserted), true};

  000dc	50		 push	 eax
  000dd	ff 75 e0	 push	 DWORD PTR __Loc$12[ebp+4]

; 830  :         _Alnode_traits::construct(this->_Al, _STD addressof(this->_Ptr->_Myval), _STD forward<_Valtys>(_Vals)...);

  000e0	c7 40 14 00 00
	00 00		 mov	 DWORD PTR [eax+20], OFFSET ?OnGetPlayerList@CDPAccountClient@@AAEXAAVCAr@@PAEK@Z ; CDPAccountClient::OnGetPlayerList

; 1042 :         return {_Scary->_Insert_node(_Loc._Location, _Inserted), true};

  000e7	ff 75 dc	 push	 DWORD PTR __Loc$12[ebp]

; 831  :         _Construct_in_place(this->_Ptr->_Left, _Myhead);

  000ea	89 30		 mov	 DWORD PTR [eax], esi

; 832  :         _Construct_in_place(this->_Ptr->_Parent, _Myhead);

  000ec	89 70 04	 mov	 DWORD PTR [eax+4], esi

; 833  :         _Construct_in_place(this->_Ptr->_Right, _Myhead);

  000ef	89 70 08	 mov	 DWORD PTR [eax+8], esi

; 834  :         this->_Ptr->_Color = _Red;

  000f2	66 c7 40 0c 00
	00		 mov	 WORD PTR [eax+12], 0

; 1042 :         return {_Scary->_Insert_node(_Loc._Location, _Inserted), true};

  000f8	e8 00 00 00 00	 call	 ?_Insert_node@?$_Tree_val@U?$_Tree_simple_types@U?$pair@$$CBKP8CDPAccountClient@@AEXAAVCAr@@PAEK@Z@std@@@std@@@std@@QAEPAU?$_Tree_node@U?$pair@$$CBKP8CDPAccountClient@@AEXAAVCAr@@PAEK@Z@std@@PAX@2@U?$_Tree_id@PAU?$_Tree_node@U?$pair@$$CBKP8CDPAccountClient@@AEXAAVCAr@@PAEK@Z@std@@PAX@std@@@2@QAU32@@Z ; std::_Tree_val<std::_Tree_simple_types<std::pair<unsigned long const ,void (__thiscall CDPAccountClient::*)(CAr &,unsigned char *,unsigned long)> > >::_Insert_node
$LN126@CDPAccount:

; 1017 :             _Loc                = _Find_lower_bound(_Keyval);

  000fd	8d 45 e8	 lea	 eax, DWORD PTR $T23[ebp]
; File C:\Program Files\Microsoft Visual Studio\2022\Professional\VC\Tools\MSVC\14.44.35207\include\utility

; 274  :         : first(_STD forward<_Other1>(_Val1)), second(_STD forward<_Other2>(_Val2)) {

  00100	c7 45 e8 f5 00
	00 00		 mov	 DWORD PTR $T23[ebp], 245 ; 000000f5H
; File C:\Program Files\Microsoft Visual Studio\2022\Professional\VC\Tools\MSVC\14.44.35207\include\xtree

; 1017 :             _Loc                = _Find_lower_bound(_Keyval);

  00107	50		 push	 eax
  00108	8d 45 d0	 lea	 eax, DWORD PTR $T3[ebp]
; File C:\Program Files\Microsoft Visual Studio\2022\Professional\VC\Tools\MSVC\14.44.35207\include\utility

; 274  :         : first(_STD forward<_Other1>(_Val1)), second(_STD forward<_Other2>(_Val2)) {

  0010b	c7 45 ec 00 00
	00 00		 mov	 DWORD PTR $T23[ebp+4], OFFSET ?OnRemovePlayer@CDPAccountClient@@AAEXAAVCAr@@PAEK@Z ; CDPAccountClient::OnRemovePlayer
; File C:\Program Files\Microsoft Visual Studio\2022\Professional\VC\Tools\MSVC\14.44.35207\include\xtree

; 1017 :             _Loc                = _Find_lower_bound(_Keyval);

  00112	50		 push	 eax
  00113	8b cf		 mov	 ecx, edi
  00115	e8 00 00 00 00	 call	 ??$_Find_lower_bound@K@?$_Tree@V?$_Tmap_traits@KP8CDPAccountClient@@AEXAAVCAr@@PAEK@ZU?$less@K@std@@V?$allocator@U?$pair@$$CBKP8CDPAccountClient@@AEXAAVCAr@@PAEK@Z@std@@@4@$0A@@std@@@std@@IBE?AU?$_Tree_find_result@PAU?$_Tree_node@U?$pair@$$CBKP8CDPAccountClient@@AEXAAVCAr@@PAEK@Z@std@@PAX@std@@@1@ABK@Z ; std::_Tree<std::_Tmap_traits<unsigned long,void (__thiscall CDPAccountClient::*)(CAr &,unsigned char *,unsigned long),std::less<unsigned long>,std::allocator<std::pair<unsigned long const ,void (__thiscall CDPAccountClient::*)(CAr &,unsigned char *,unsigned long)> >,0> >::_Find_lower_bound<unsigned long>
  0011a	f3 0f 7e 00	 movq	 xmm0, QWORD PTR [eax]
  0011e	8b 40 08	 mov	 eax, DWORD PTR [eax+8]
  00121	66 0f d6 45 dc	 movq	 QWORD PTR __Loc$10[ebp], xmm0

; 1624 :         return !_Bound->_Isnil && !_DEBUG_LT_PRED(_Getcomp(), _Keyval, _Traits::_Kfn(_Bound->_Myval));

  00126	80 78 0d 00	 cmp	 BYTE PTR [eax+13], 0
  0012a	75 09		 jne	 SHORT $LN152@CDPAccount
; File C:\Program Files\Microsoft Visual Studio\2022\Professional\VC\Tools\MSVC\14.44.35207\include\type_traits

; 2380 :         return _Left < _Right;

  0012c	81 78 10 f5 00
	00 00		 cmp	 DWORD PTR [eax+16], 245	; 000000f5H
; File C:\Program Files\Microsoft Visual Studio\2022\Professional\VC\Tools\MSVC\14.44.35207\include\xtree

; 1624 :         return !_Bound->_Isnil && !_DEBUG_LT_PRED(_Getcomp(), _Keyval, _Traits::_Kfn(_Bound->_Myval));

  00133	76 55		 jbe	 SHORT $LN227@CDPAccount
$LN152@CDPAccount:

; 1648 :         if (max_size() == _Get_scary()->_Mysize) {

  00135	81 7f 04 aa aa
	aa 0a		 cmp	 DWORD PTR [edi+4], 178956970 ; 0aaaaaaaH
  0013c	0f 84 9c 03 00
	00		 je	 $LN856@CDPAccount

; 1023 :             _Inserted = _Tree_temp_node<_Alnode>(_Getal(), _Scary->_Myhead, _STD forward<_Valtys>(_Vals)...)._Release();

  00142	8b 37		 mov	 esi, DWORD PTR [edi]
; File C:\Program Files\Microsoft Visual Studio\2022\Professional\VC\Tools\MSVC\14.44.35207\include\xmemory

; 1160 :     _CONSTEXPR20 explicit _Alloc_construct_ptr(_Alloc& _Al_) : _Al(_Al_), _Ptr(nullptr) {}

  00144	89 7d e8	 mov	 DWORD PTR $T18[ebp], edi

; 136  :         return ::operator new(_Bytes);

  00147	6a 18		 push	 24			; 00000018H
; File C:\Program Files\Microsoft Visual Studio\2022\Professional\VC\Tools\MSVC\14.44.35207\include\xtree

; 808  :     explicit _Tree_temp_node_alloc(_Alnode& _Al_) : _Alloc_construct_ptr<_Alnode>(_Al_) {

  00149	c6 45 fc 03	 mov	 BYTE PTR __$EHRec$[ebp+8], 3
; File C:\Program Files\Microsoft Visual Studio\2022\Professional\VC\Tools\MSVC\14.44.35207\include\xmemory

; 1167 :         _Ptr = nullptr; // if allocate throws, prevents double-free

  0014d	c7 45 ec 00 00
	00 00		 mov	 DWORD PTR $T18[ebp+4], 0

; 136  :         return ::operator new(_Bytes);

  00154	e8 00 00 00 00	 call	 ??2@YAPAXI@Z		; operator new
  00159	83 c4 04	 add	 esp, 4
; File C:\Program Files\Microsoft Visual Studio\2022\Professional\VC\Tools\MSVC\14.44.35207\include\xtree

; 810  :     }

  0015c	c6 45 fc 01	 mov	 BYTE PTR __$EHRec$[ebp+8], 1

; 1042 :         return {_Scary->_Insert_node(_Loc._Location, _Inserted), true};

  00160	8b cf		 mov	 ecx, edi

; 830  :         _Alnode_traits::construct(this->_Al, _STD addressof(this->_Ptr->_Myval), _STD forward<_Valtys>(_Vals)...);

  00162	c7 40 10 f5 00
	00 00		 mov	 DWORD PTR [eax+16], 245	; 000000f5H

; 1042 :         return {_Scary->_Insert_node(_Loc._Location, _Inserted), true};

  00169	50		 push	 eax
  0016a	ff 75 e0	 push	 DWORD PTR __Loc$10[ebp+4]

; 830  :         _Alnode_traits::construct(this->_Al, _STD addressof(this->_Ptr->_Myval), _STD forward<_Valtys>(_Vals)...);

  0016d	c7 40 14 00 00
	00 00		 mov	 DWORD PTR [eax+20], OFFSET ?OnRemovePlayer@CDPAccountClient@@AAEXAAVCAr@@PAEK@Z ; CDPAccountClient::OnRemovePlayer

; 1042 :         return {_Scary->_Insert_node(_Loc._Location, _Inserted), true};

  00174	ff 75 dc	 push	 DWORD PTR __Loc$10[ebp]

; 831  :         _Construct_in_place(this->_Ptr->_Left, _Myhead);

  00177	89 30		 mov	 DWORD PTR [eax], esi

; 832  :         _Construct_in_place(this->_Ptr->_Parent, _Myhead);

  00179	89 70 04	 mov	 DWORD PTR [eax+4], esi

; 833  :         _Construct_in_place(this->_Ptr->_Right, _Myhead);

  0017c	89 70 08	 mov	 DWORD PTR [eax+8], esi

; 834  :         this->_Ptr->_Color = _Red;

  0017f	66 c7 40 0c 00
	00		 mov	 WORD PTR [eax+12], 0

; 1042 :         return {_Scary->_Insert_node(_Loc._Location, _Inserted), true};

  00185	e8 00 00 00 00	 call	 ?_Insert_node@?$_Tree_val@U?$_Tree_simple_types@U?$pair@$$CBKP8CDPAccountClient@@AEXAAVCAr@@PAEK@Z@std@@@std@@@std@@QAEPAU?$_Tree_node@U?$pair@$$CBKP8CDPAccountClient@@AEXAAVCAr@@PAEK@Z@std@@PAX@2@U?$_Tree_id@PAU?$_Tree_node@U?$pair@$$CBKP8CDPAccountClient@@AEXAAVCAr@@PAEK@Z@std@@PAX@std@@@2@QAU32@@Z ; std::_Tree_val<std::_Tree_simple_types<std::pair<unsigned long const ,void (__thiscall CDPAccountClient::*)(CAr &,unsigned char *,unsigned long)> > >::_Insert_node
$LN227@CDPAccount:

; 1017 :             _Loc                = _Find_lower_bound(_Keyval);

  0018a	8d 45 e8	 lea	 eax, DWORD PTR $T24[ebp]
; File C:\Program Files\Microsoft Visual Studio\2022\Professional\VC\Tools\MSVC\14.44.35207\include\utility

; 274  :         : first(_STD forward<_Other1>(_Val1)), second(_STD forward<_Other2>(_Val2)) {

  0018d	c7 45 e8 00 ff
	00 00		 mov	 DWORD PTR $T24[ebp], 65280 ; 0000ff00H
; File C:\Program Files\Microsoft Visual Studio\2022\Professional\VC\Tools\MSVC\14.44.35207\include\xtree

; 1017 :             _Loc                = _Find_lower_bound(_Keyval);

  00194	50		 push	 eax
  00195	8d 45 d0	 lea	 eax, DWORD PTR $T2[ebp]
; File C:\Program Files\Microsoft Visual Studio\2022\Professional\VC\Tools\MSVC\14.44.35207\include\utility

; 274  :         : first(_STD forward<_Other1>(_Val1)), second(_STD forward<_Other2>(_Val2)) {

  00198	c7 45 ec 00 00
	00 00		 mov	 DWORD PTR $T24[ebp+4], OFFSET ?OnJoin@CDPAccountClient@@AAEXAAVCAr@@PAEK@Z ; CDPAccountClient::OnJoin
; File C:\Program Files\Microsoft Visual Studio\2022\Professional\VC\Tools\MSVC\14.44.35207\include\xtree

; 1017 :             _Loc                = _Find_lower_bound(_Keyval);

  0019f	50		 push	 eax
  001a0	8b cf		 mov	 ecx, edi
  001a2	e8 00 00 00 00	 call	 ??$_Find_lower_bound@K@?$_Tree@V?$_Tmap_traits@KP8CDPAccountClient@@AEXAAVCAr@@PAEK@ZU?$less@K@std@@V?$allocator@U?$pair@$$CBKP8CDPAccountClient@@AEXAAVCAr@@PAEK@Z@std@@@4@$0A@@std@@@std@@IBE?AU?$_Tree_find_result@PAU?$_Tree_node@U?$pair@$$CBKP8CDPAccountClient@@AEXAAVCAr@@PAEK@Z@std@@PAX@std@@@1@ABK@Z ; std::_Tree<std::_Tmap_traits<unsigned long,void (__thiscall CDPAccountClient::*)(CAr &,unsigned char *,unsigned long),std::less<unsigned long>,std::allocator<std::pair<unsigned long const ,void (__thiscall CDPAccountClient::*)(CAr &,unsigned char *,unsigned long)> >,0> >::_Find_lower_bound<unsigned long>
  001a7	f3 0f 7e 00	 movq	 xmm0, QWORD PTR [eax]
  001ab	8b 40 08	 mov	 eax, DWORD PTR [eax+8]
  001ae	66 0f d6 45 dc	 movq	 QWORD PTR __Loc$13[ebp], xmm0

; 1624 :         return !_Bound->_Isnil && !_DEBUG_LT_PRED(_Getcomp(), _Keyval, _Traits::_Kfn(_Bound->_Myval));

  001b3	80 78 0d 00	 cmp	 BYTE PTR [eax+13], 0
  001b7	75 09		 jne	 SHORT $LN253@CDPAccount
; File C:\Program Files\Microsoft Visual Studio\2022\Professional\VC\Tools\MSVC\14.44.35207\include\type_traits

; 2380 :         return _Left < _Right;

  001b9	81 78 10 00 ff
	00 00		 cmp	 DWORD PTR [eax+16], 65280 ; 0000ff00H
; File C:\Program Files\Microsoft Visual Studio\2022\Professional\VC\Tools\MSVC\14.44.35207\include\xtree

; 1624 :         return !_Bound->_Isnil && !_DEBUG_LT_PRED(_Getcomp(), _Keyval, _Traits::_Kfn(_Bound->_Myval));

  001c0	76 55		 jbe	 SHORT $LN328@CDPAccount
$LN253@CDPAccount:

; 1648 :         if (max_size() == _Get_scary()->_Mysize) {

  001c2	81 7f 04 aa aa
	aa 0a		 cmp	 DWORD PTR [edi+4], 178956970 ; 0aaaaaaaH
  001c9	0f 84 0f 03 00
	00		 je	 $LN856@CDPAccount

; 1023 :             _Inserted = _Tree_temp_node<_Alnode>(_Getal(), _Scary->_Myhead, _STD forward<_Valtys>(_Vals)...)._Release();

  001cf	8b 37		 mov	 esi, DWORD PTR [edi]
; File C:\Program Files\Microsoft Visual Studio\2022\Professional\VC\Tools\MSVC\14.44.35207\include\xmemory

; 1160 :     _CONSTEXPR20 explicit _Alloc_construct_ptr(_Alloc& _Al_) : _Al(_Al_), _Ptr(nullptr) {}

  001d1	89 7d e8	 mov	 DWORD PTR $T20[ebp], edi

; 136  :         return ::operator new(_Bytes);

  001d4	6a 18		 push	 24			; 00000018H
; File C:\Program Files\Microsoft Visual Studio\2022\Professional\VC\Tools\MSVC\14.44.35207\include\xtree

; 808  :     explicit _Tree_temp_node_alloc(_Alnode& _Al_) : _Alloc_construct_ptr<_Alnode>(_Al_) {

  001d6	c6 45 fc 04	 mov	 BYTE PTR __$EHRec$[ebp+8], 4
; File C:\Program Files\Microsoft Visual Studio\2022\Professional\VC\Tools\MSVC\14.44.35207\include\xmemory

; 1167 :         _Ptr = nullptr; // if allocate throws, prevents double-free

  001da	c7 45 ec 00 00
	00 00		 mov	 DWORD PTR $T20[ebp+4], 0

; 136  :         return ::operator new(_Bytes);

  001e1	e8 00 00 00 00	 call	 ??2@YAPAXI@Z		; operator new
  001e6	83 c4 04	 add	 esp, 4
; File C:\Program Files\Microsoft Visual Studio\2022\Professional\VC\Tools\MSVC\14.44.35207\include\xtree

; 810  :     }

  001e9	c6 45 fc 01	 mov	 BYTE PTR __$EHRec$[ebp+8], 1

; 1042 :         return {_Scary->_Insert_node(_Loc._Location, _Inserted), true};

  001ed	8b cf		 mov	 ecx, edi

; 830  :         _Alnode_traits::construct(this->_Al, _STD addressof(this->_Ptr->_Myval), _STD forward<_Valtys>(_Vals)...);

  001ef	c7 40 10 00 ff
	00 00		 mov	 DWORD PTR [eax+16], 65280 ; 0000ff00H

; 1042 :         return {_Scary->_Insert_node(_Loc._Location, _Inserted), true};

  001f6	50		 push	 eax
  001f7	ff 75 e0	 push	 DWORD PTR __Loc$13[ebp+4]

; 830  :         _Alnode_traits::construct(this->_Al, _STD addressof(this->_Ptr->_Myval), _STD forward<_Valtys>(_Vals)...);

  001fa	c7 40 14 00 00
	00 00		 mov	 DWORD PTR [eax+20], OFFSET ?OnJoin@CDPAccountClient@@AAEXAAVCAr@@PAEK@Z ; CDPAccountClient::OnJoin

; 1042 :         return {_Scary->_Insert_node(_Loc._Location, _Inserted), true};

  00201	ff 75 dc	 push	 DWORD PTR __Loc$13[ebp]

; 831  :         _Construct_in_place(this->_Ptr->_Left, _Myhead);

  00204	89 30		 mov	 DWORD PTR [eax], esi

; 832  :         _Construct_in_place(this->_Ptr->_Parent, _Myhead);

  00206	89 70 04	 mov	 DWORD PTR [eax+4], esi

; 833  :         _Construct_in_place(this->_Ptr->_Right, _Myhead);

  00209	89 70 08	 mov	 DWORD PTR [eax+8], esi

; 834  :         this->_Ptr->_Color = _Red;

  0020c	66 c7 40 0c 00
	00		 mov	 WORD PTR [eax+12], 0

; 1042 :         return {_Scary->_Insert_node(_Loc._Location, _Inserted), true};

  00212	e8 00 00 00 00	 call	 ?_Insert_node@?$_Tree_val@U?$_Tree_simple_types@U?$pair@$$CBKP8CDPAccountClient@@AEXAAVCAr@@PAEK@Z@std@@@std@@@std@@QAEPAU?$_Tree_node@U?$pair@$$CBKP8CDPAccountClient@@AEXAAVCAr@@PAEK@Z@std@@PAX@2@U?$_Tree_id@PAU?$_Tree_node@U?$pair@$$CBKP8CDPAccountClient@@AEXAAVCAr@@PAEK@Z@std@@PAX@std@@@2@QAU32@@Z ; std::_Tree_val<std::_Tree_simple_types<std::pair<unsigned long const ,void (__thiscall CDPAccountClient::*)(CAr &,unsigned char *,unsigned long)> > >::_Insert_node
$LN328@CDPAccount:

; 1017 :             _Loc                = _Find_lower_bound(_Keyval);

  00217	8d 45 e8	 lea	 eax, DWORD PTR $T26[ebp]
; File C:\Program Files\Microsoft Visual Studio\2022\Professional\VC\Tools\MSVC\14.44.35207\include\utility

; 274  :         : first(_STD forward<_Other1>(_Val1)), second(_STD forward<_Other2>(_Val2)) {

  0021a	c7 45 e8 f3 0f
	00 00		 mov	 DWORD PTR $T26[ebp], 4083 ; 00000ff3H
; File C:\Program Files\Microsoft Visual Studio\2022\Professional\VC\Tools\MSVC\14.44.35207\include\xtree

; 1017 :             _Loc                = _Find_lower_bound(_Keyval);

  00221	50		 push	 eax
  00222	8d 45 d0	 lea	 eax, DWORD PTR $T5[ebp]
; File C:\Program Files\Microsoft Visual Studio\2022\Professional\VC\Tools\MSVC\14.44.35207\include\utility

; 274  :         : first(_STD forward<_Other1>(_Val1)), second(_STD forward<_Other2>(_Val2)) {

  00225	c7 45 ec 00 00
	00 00		 mov	 DWORD PTR $T26[ebp+4], OFFSET ?OnPlayerCount@CDPAccountClient@@AAEXAAVCAr@@PAEK@Z ; CDPAccountClient::OnPlayerCount
; File C:\Program Files\Microsoft Visual Studio\2022\Professional\VC\Tools\MSVC\14.44.35207\include\xtree

; 1017 :             _Loc                = _Find_lower_bound(_Keyval);

  0022c	50		 push	 eax
  0022d	8b cf		 mov	 ecx, edi
  0022f	e8 00 00 00 00	 call	 ??$_Find_lower_bound@K@?$_Tree@V?$_Tmap_traits@KP8CDPAccountClient@@AEXAAVCAr@@PAEK@ZU?$less@K@std@@V?$allocator@U?$pair@$$CBKP8CDPAccountClient@@AEXAAVCAr@@PAEK@Z@std@@@4@$0A@@std@@@std@@IBE?AU?$_Tree_find_result@PAU?$_Tree_node@U?$pair@$$CBKP8CDPAccountClient@@AEXAAVCAr@@PAEK@Z@std@@PAX@std@@@1@ABK@Z ; std::_Tree<std::_Tmap_traits<unsigned long,void (__thiscall CDPAccountClient::*)(CAr &,unsigned char *,unsigned long),std::less<unsigned long>,std::allocator<std::pair<unsigned long const ,void (__thiscall CDPAccountClient::*)(CAr &,unsigned char *,unsigned long)> >,0> >::_Find_lower_bound<unsigned long>
  00234	f3 0f 7e 00	 movq	 xmm0, QWORD PTR [eax]
  00238	8b 40 08	 mov	 eax, DWORD PTR [eax+8]
  0023b	66 0f d6 45 dc	 movq	 QWORD PTR __Loc$11[ebp], xmm0

; 1624 :         return !_Bound->_Isnil && !_DEBUG_LT_PRED(_Getcomp(), _Keyval, _Traits::_Kfn(_Bound->_Myval));

  00240	80 78 0d 00	 cmp	 BYTE PTR [eax+13], 0
  00244	75 09		 jne	 SHORT $LN354@CDPAccount
; File C:\Program Files\Microsoft Visual Studio\2022\Professional\VC\Tools\MSVC\14.44.35207\include\type_traits

; 2380 :         return _Left < _Right;

  00246	81 78 10 f3 0f
	00 00		 cmp	 DWORD PTR [eax+16], 4083 ; 00000ff3H
; File C:\Program Files\Microsoft Visual Studio\2022\Professional\VC\Tools\MSVC\14.44.35207\include\xtree

; 1624 :         return !_Bound->_Isnil && !_DEBUG_LT_PRED(_Getcomp(), _Keyval, _Traits::_Kfn(_Bound->_Myval));

  0024d	76 55		 jbe	 SHORT $LN429@CDPAccount
$LN354@CDPAccount:

; 1648 :         if (max_size() == _Get_scary()->_Mysize) {

  0024f	81 7f 04 aa aa
	aa 0a		 cmp	 DWORD PTR [edi+4], 178956970 ; 0aaaaaaaH
  00256	0f 84 82 02 00
	00		 je	 $LN856@CDPAccount

; 1023 :             _Inserted = _Tree_temp_node<_Alnode>(_Getal(), _Scary->_Myhead, _STD forward<_Valtys>(_Vals)...)._Release();

  0025c	8b 37		 mov	 esi, DWORD PTR [edi]
; File C:\Program Files\Microsoft Visual Studio\2022\Professional\VC\Tools\MSVC\14.44.35207\include\xmemory

; 1160 :     _CONSTEXPR20 explicit _Alloc_construct_ptr(_Alloc& _Al_) : _Al(_Al_), _Ptr(nullptr) {}

  0025e	89 7d e8	 mov	 DWORD PTR $T22[ebp], edi

; 136  :         return ::operator new(_Bytes);

  00261	6a 18		 push	 24			; 00000018H
; File C:\Program Files\Microsoft Visual Studio\2022\Professional\VC\Tools\MSVC\14.44.35207\include\xtree

; 808  :     explicit _Tree_temp_node_alloc(_Alnode& _Al_) : _Alloc_construct_ptr<_Alnode>(_Al_) {

  00263	c6 45 fc 05	 mov	 BYTE PTR __$EHRec$[ebp+8], 5
; File C:\Program Files\Microsoft Visual Studio\2022\Professional\VC\Tools\MSVC\14.44.35207\include\xmemory

; 1167 :         _Ptr = nullptr; // if allocate throws, prevents double-free

  00267	c7 45 ec 00 00
	00 00		 mov	 DWORD PTR $T22[ebp+4], 0

; 136  :         return ::operator new(_Bytes);

  0026e	e8 00 00 00 00	 call	 ??2@YAPAXI@Z		; operator new
  00273	83 c4 04	 add	 esp, 4
; File C:\Program Files\Microsoft Visual Studio\2022\Professional\VC\Tools\MSVC\14.44.35207\include\xtree

; 810  :     }

  00276	c6 45 fc 01	 mov	 BYTE PTR __$EHRec$[ebp+8], 1

; 1042 :         return {_Scary->_Insert_node(_Loc._Location, _Inserted), true};

  0027a	8b cf		 mov	 ecx, edi

; 830  :         _Alnode_traits::construct(this->_Al, _STD addressof(this->_Ptr->_Myval), _STD forward<_Valtys>(_Vals)...);

  0027c	c7 40 10 f3 0f
	00 00		 mov	 DWORD PTR [eax+16], 4083 ; 00000ff3H

; 1042 :         return {_Scary->_Insert_node(_Loc._Location, _Inserted), true};

  00283	50		 push	 eax
  00284	ff 75 e0	 push	 DWORD PTR __Loc$11[ebp+4]

; 830  :         _Alnode_traits::construct(this->_Al, _STD addressof(this->_Ptr->_Myval), _STD forward<_Valtys>(_Vals)...);

  00287	c7 40 14 00 00
	00 00		 mov	 DWORD PTR [eax+20], OFFSET ?OnPlayerCount@CDPAccountClient@@AAEXAAVCAr@@PAEK@Z ; CDPAccountClient::OnPlayerCount

; 1042 :         return {_Scary->_Insert_node(_Loc._Location, _Inserted), true};

  0028e	ff 75 dc	 push	 DWORD PTR __Loc$11[ebp]

; 831  :         _Construct_in_place(this->_Ptr->_Left, _Myhead);

  00291	89 30		 mov	 DWORD PTR [eax], esi

; 832  :         _Construct_in_place(this->_Ptr->_Parent, _Myhead);

  00293	89 70 04	 mov	 DWORD PTR [eax+4], esi

; 833  :         _Construct_in_place(this->_Ptr->_Right, _Myhead);

  00296	89 70 08	 mov	 DWORD PTR [eax+8], esi

; 834  :         this->_Ptr->_Color = _Red;

  00299	66 c7 40 0c 00
	00		 mov	 WORD PTR [eax+12], 0

; 1042 :         return {_Scary->_Insert_node(_Loc._Location, _Inserted), true};

  0029f	e8 00 00 00 00	 call	 ?_Insert_node@?$_Tree_val@U?$_Tree_simple_types@U?$pair@$$CBKP8CDPAccountClient@@AEXAAVCAr@@PAEK@Z@std@@@std@@@std@@QAEPAU?$_Tree_node@U?$pair@$$CBKP8CDPAccountClient@@AEXAAVCAr@@PAEK@Z@std@@PAX@2@U?$_Tree_id@PAU?$_Tree_node@U?$pair@$$CBKP8CDPAccountClient@@AEXAAVCAr@@PAEK@Z@std@@PAX@std@@@2@QAU32@@Z ; std::_Tree_val<std::_Tree_simple_types<std::pair<unsigned long const ,void (__thiscall CDPAccountClient::*)(CAr &,unsigned char *,unsigned long)> > >::_Insert_node
$LN429@CDPAccount:

; 1017 :             _Loc                = _Find_lower_bound(_Keyval);

  002a4	8d 45 e8	 lea	 eax, DWORD PTR $T27[ebp]
; File C:\Program Files\Microsoft Visual Studio\2022\Professional\VC\Tools\MSVC\14.44.35207\include\utility

; 274  :         : first(_STD forward<_Other1>(_Val1)), second(_STD forward<_Other2>(_Val2)) {

  002a7	c7 45 e8 16 00
	00 00		 mov	 DWORD PTR $T27[ebp], 22	; 00000016H
; File C:\Program Files\Microsoft Visual Studio\2022\Professional\VC\Tools\MSVC\14.44.35207\include\xtree

; 1017 :             _Loc                = _Find_lower_bound(_Keyval);

  002ae	50		 push	 eax
  002af	8d 45 d0	 lea	 eax, DWORD PTR $T6[ebp]
; File C:\Program Files\Microsoft Visual Studio\2022\Professional\VC\Tools\MSVC\14.44.35207\include\utility

; 274  :         : first(_STD forward<_Other1>(_Val1)), second(_STD forward<_Other2>(_Val2)) {

  002b2	c7 45 ec 00 00
	00 00		 mov	 DWORD PTR $T27[ebp+4], OFFSET ?OnCloseExistingConnection@CDPAccountClient@@AAEXAAVCAr@@PAEK@Z ; CDPAccountClient::OnCloseExistingConnection
; File C:\Program Files\Microsoft Visual Studio\2022\Professional\VC\Tools\MSVC\14.44.35207\include\xtree

; 1017 :             _Loc                = _Find_lower_bound(_Keyval);

  002b9	50		 push	 eax
  002ba	8b cf		 mov	 ecx, edi
  002bc	e8 00 00 00 00	 call	 ??$_Find_lower_bound@K@?$_Tree@V?$_Tmap_traits@KP8CDPAccountClient@@AEXAAVCAr@@PAEK@ZU?$less@K@std@@V?$allocator@U?$pair@$$CBKP8CDPAccountClient@@AEXAAVCAr@@PAEK@Z@std@@@4@$0A@@std@@@std@@IBE?AU?$_Tree_find_result@PAU?$_Tree_node@U?$pair@$$CBKP8CDPAccountClient@@AEXAAVCAr@@PAEK@Z@std@@PAX@std@@@1@ABK@Z ; std::_Tree<std::_Tmap_traits<unsigned long,void (__thiscall CDPAccountClient::*)(CAr &,unsigned char *,unsigned long),std::less<unsigned long>,std::allocator<std::pair<unsigned long const ,void (__thiscall CDPAccountClient::*)(CAr &,unsigned char *,unsigned long)> >,0> >::_Find_lower_bound<unsigned long>
  002c1	f3 0f 7e 00	 movq	 xmm0, QWORD PTR [eax]
  002c5	8b 40 08	 mov	 eax, DWORD PTR [eax+8]
  002c8	66 0f d6 45 dc	 movq	 QWORD PTR __Loc$14[ebp], xmm0

; 1624 :         return !_Bound->_Isnil && !_DEBUG_LT_PRED(_Getcomp(), _Keyval, _Traits::_Kfn(_Bound->_Myval));

  002cd	80 78 0d 00	 cmp	 BYTE PTR [eax+13], 0
  002d1	75 06		 jne	 SHORT $LN455@CDPAccount
; File C:\Program Files\Microsoft Visual Studio\2022\Professional\VC\Tools\MSVC\14.44.35207\include\type_traits

; 2380 :         return _Left < _Right;

  002d3	83 78 10 16	 cmp	 DWORD PTR [eax+16], 22	; 00000016H
; File C:\Program Files\Microsoft Visual Studio\2022\Professional\VC\Tools\MSVC\14.44.35207\include\xtree

; 1624 :         return !_Bound->_Isnil && !_DEBUG_LT_PRED(_Getcomp(), _Keyval, _Traits::_Kfn(_Bound->_Myval));

  002d7	76 55		 jbe	 SHORT $LN530@CDPAccount
$LN455@CDPAccount:

; 1648 :         if (max_size() == _Get_scary()->_Mysize) {

  002d9	81 7f 04 aa aa
	aa 0a		 cmp	 DWORD PTR [edi+4], 178956970 ; 0aaaaaaaH
  002e0	0f 84 f8 01 00
	00		 je	 $LN856@CDPAccount

; 1023 :             _Inserted = _Tree_temp_node<_Alnode>(_Getal(), _Scary->_Myhead, _STD forward<_Valtys>(_Vals)...)._Release();

  002e6	8b 37		 mov	 esi, DWORD PTR [edi]
; File C:\Program Files\Microsoft Visual Studio\2022\Professional\VC\Tools\MSVC\14.44.35207\include\xmemory

; 1160 :     _CONSTEXPR20 explicit _Alloc_construct_ptr(_Alloc& _Al_) : _Al(_Al_), _Ptr(nullptr) {}

  002e8	89 7d e8	 mov	 DWORD PTR $T25[ebp], edi

; 136  :         return ::operator new(_Bytes);

  002eb	6a 18		 push	 24			; 00000018H
; File C:\Program Files\Microsoft Visual Studio\2022\Professional\VC\Tools\MSVC\14.44.35207\include\xtree

; 808  :     explicit _Tree_temp_node_alloc(_Alnode& _Al_) : _Alloc_construct_ptr<_Alnode>(_Al_) {

  002ed	c6 45 fc 06	 mov	 BYTE PTR __$EHRec$[ebp+8], 6
; File C:\Program Files\Microsoft Visual Studio\2022\Professional\VC\Tools\MSVC\14.44.35207\include\xmemory

; 1167 :         _Ptr = nullptr; // if allocate throws, prevents double-free

  002f1	c7 45 ec 00 00
	00 00		 mov	 DWORD PTR $T25[ebp+4], 0

; 136  :         return ::operator new(_Bytes);

  002f8	e8 00 00 00 00	 call	 ??2@YAPAXI@Z		; operator new
  002fd	83 c4 04	 add	 esp, 4
; File C:\Program Files\Microsoft Visual Studio\2022\Professional\VC\Tools\MSVC\14.44.35207\include\xtree

; 810  :     }

  00300	c6 45 fc 01	 mov	 BYTE PTR __$EHRec$[ebp+8], 1

; 1042 :         return {_Scary->_Insert_node(_Loc._Location, _Inserted), true};

  00304	8b cf		 mov	 ecx, edi

; 830  :         _Alnode_traits::construct(this->_Al, _STD addressof(this->_Ptr->_Myval), _STD forward<_Valtys>(_Vals)...);

  00306	c7 40 10 16 00
	00 00		 mov	 DWORD PTR [eax+16], 22	; 00000016H

; 1042 :         return {_Scary->_Insert_node(_Loc._Location, _Inserted), true};

  0030d	50		 push	 eax
  0030e	ff 75 e0	 push	 DWORD PTR __Loc$14[ebp+4]

; 830  :         _Alnode_traits::construct(this->_Al, _STD addressof(this->_Ptr->_Myval), _STD forward<_Valtys>(_Vals)...);

  00311	c7 40 14 00 00
	00 00		 mov	 DWORD PTR [eax+20], OFFSET ?OnCloseExistingConnection@CDPAccountClient@@AAEXAAVCAr@@PAEK@Z ; CDPAccountClient::OnCloseExistingConnection

; 1042 :         return {_Scary->_Insert_node(_Loc._Location, _Inserted), true};

  00318	ff 75 dc	 push	 DWORD PTR __Loc$14[ebp]

; 831  :         _Construct_in_place(this->_Ptr->_Left, _Myhead);

  0031b	89 30		 mov	 DWORD PTR [eax], esi

; 832  :         _Construct_in_place(this->_Ptr->_Parent, _Myhead);

  0031d	89 70 04	 mov	 DWORD PTR [eax+4], esi

; 833  :         _Construct_in_place(this->_Ptr->_Right, _Myhead);

  00320	89 70 08	 mov	 DWORD PTR [eax+8], esi

; 834  :         this->_Ptr->_Color = _Red;

  00323	66 c7 40 0c 00
	00		 mov	 WORD PTR [eax+12], 0

; 1042 :         return {_Scary->_Insert_node(_Loc._Location, _Inserted), true};

  00329	e8 00 00 00 00	 call	 ?_Insert_node@?$_Tree_val@U?$_Tree_simple_types@U?$pair@$$CBKP8CDPAccountClient@@AEXAAVCAr@@PAEK@Z@std@@@std@@@std@@QAEPAU?$_Tree_node@U?$pair@$$CBKP8CDPAccountClient@@AEXAAVCAr@@PAEK@Z@std@@PAX@2@U?$_Tree_id@PAU?$_Tree_node@U?$pair@$$CBKP8CDPAccountClient@@AEXAAVCAr@@PAEK@Z@std@@PAX@std@@@2@QAU32@@Z ; std::_Tree_val<std::_Tree_simple_types<std::pair<unsigned long const ,void (__thiscall CDPAccountClient::*)(CAr &,unsigned char *,unsigned long)> > >::_Insert_node
$LN530@CDPAccount:

; 1017 :             _Loc                = _Find_lower_bound(_Keyval);

  0032e	8d 45 e8	 lea	 eax, DWORD PTR $T29[ebp]
; File C:\Program Files\Microsoft Visual Studio\2022\Professional\VC\Tools\MSVC\14.44.35207\include\utility

; 274  :         : first(_STD forward<_Other1>(_Val1)), second(_STD forward<_Other2>(_Val2)) {

  00331	c7 45 e8 17 00
	00 00		 mov	 DWORD PTR $T29[ebp], 23	; 00000017H
; File C:\Program Files\Microsoft Visual Studio\2022\Professional\VC\Tools\MSVC\14.44.35207\include\xtree

; 1017 :             _Loc                = _Find_lower_bound(_Keyval);

  00338	50		 push	 eax
  00339	8d 45 d0	 lea	 eax, DWORD PTR $T7[ebp]
; File C:\Program Files\Microsoft Visual Studio\2022\Professional\VC\Tools\MSVC\14.44.35207\include\utility

; 274  :         : first(_STD forward<_Other1>(_Val1)), second(_STD forward<_Other2>(_Val2)) {

  0033c	c7 45 ec 00 00
	00 00		 mov	 DWORD PTR $T29[ebp+4], OFFSET ?OnOneHourNotify@CDPAccountClient@@AAEXAAVCAr@@PAEK@Z ; CDPAccountClient::OnOneHourNotify
; File C:\Program Files\Microsoft Visual Studio\2022\Professional\VC\Tools\MSVC\14.44.35207\include\xtree

; 1017 :             _Loc                = _Find_lower_bound(_Keyval);

  00343	50		 push	 eax
  00344	8b cf		 mov	 ecx, edi
  00346	e8 00 00 00 00	 call	 ??$_Find_lower_bound@K@?$_Tree@V?$_Tmap_traits@KP8CDPAccountClient@@AEXAAVCAr@@PAEK@ZU?$less@K@std@@V?$allocator@U?$pair@$$CBKP8CDPAccountClient@@AEXAAVCAr@@PAEK@Z@std@@@4@$0A@@std@@@std@@IBE?AU?$_Tree_find_result@PAU?$_Tree_node@U?$pair@$$CBKP8CDPAccountClient@@AEXAAVCAr@@PAEK@Z@std@@PAX@std@@@1@ABK@Z ; std::_Tree<std::_Tmap_traits<unsigned long,void (__thiscall CDPAccountClient::*)(CAr &,unsigned char *,unsigned long),std::less<unsigned long>,std::allocator<std::pair<unsigned long const ,void (__thiscall CDPAccountClient::*)(CAr &,unsigned char *,unsigned long)> >,0> >::_Find_lower_bound<unsigned long>
  0034b	f3 0f 7e 00	 movq	 xmm0, QWORD PTR [eax]
  0034f	8b 40 08	 mov	 eax, DWORD PTR [eax+8]
  00352	66 0f d6 45 dc	 movq	 QWORD PTR __Loc$15[ebp], xmm0

; 1624 :         return !_Bound->_Isnil && !_DEBUG_LT_PRED(_Getcomp(), _Keyval, _Traits::_Kfn(_Bound->_Myval));

  00357	80 78 0d 00	 cmp	 BYTE PTR [eax+13], 0
  0035b	75 06		 jne	 SHORT $LN556@CDPAccount
; File C:\Program Files\Microsoft Visual Studio\2022\Professional\VC\Tools\MSVC\14.44.35207\include\type_traits

; 2380 :         return _Left < _Right;

  0035d	83 78 10 17	 cmp	 DWORD PTR [eax+16], 23	; 00000017H
; File C:\Program Files\Microsoft Visual Studio\2022\Professional\VC\Tools\MSVC\14.44.35207\include\xtree

; 1624 :         return !_Bound->_Isnil && !_DEBUG_LT_PRED(_Getcomp(), _Keyval, _Traits::_Kfn(_Bound->_Myval));

  00361	76 55		 jbe	 SHORT $LN631@CDPAccount
$LN556@CDPAccount:

; 1648 :         if (max_size() == _Get_scary()->_Mysize) {

  00363	81 7f 04 aa aa
	aa 0a		 cmp	 DWORD PTR [edi+4], 178956970 ; 0aaaaaaaH
  0036a	0f 84 6e 01 00
	00		 je	 $LN856@CDPAccount

; 1023 :             _Inserted = _Tree_temp_node<_Alnode>(_Getal(), _Scary->_Myhead, _STD forward<_Valtys>(_Vals)...)._Release();

  00370	8b 37		 mov	 esi, DWORD PTR [edi]
; File C:\Program Files\Microsoft Visual Studio\2022\Professional\VC\Tools\MSVC\14.44.35207\include\xmemory

; 1160 :     _CONSTEXPR20 explicit _Alloc_construct_ptr(_Alloc& _Al_) : _Al(_Al_), _Ptr(nullptr) {}

  00372	89 7d e8	 mov	 DWORD PTR $T28[ebp], edi

; 136  :         return ::operator new(_Bytes);

  00375	6a 18		 push	 24			; 00000018H
; File C:\Program Files\Microsoft Visual Studio\2022\Professional\VC\Tools\MSVC\14.44.35207\include\xtree

; 808  :     explicit _Tree_temp_node_alloc(_Alnode& _Al_) : _Alloc_construct_ptr<_Alnode>(_Al_) {

  00377	c6 45 fc 07	 mov	 BYTE PTR __$EHRec$[ebp+8], 7
; File C:\Program Files\Microsoft Visual Studio\2022\Professional\VC\Tools\MSVC\14.44.35207\include\xmemory

; 1167 :         _Ptr = nullptr; // if allocate throws, prevents double-free

  0037b	c7 45 ec 00 00
	00 00		 mov	 DWORD PTR $T28[ebp+4], 0

; 136  :         return ::operator new(_Bytes);

  00382	e8 00 00 00 00	 call	 ??2@YAPAXI@Z		; operator new
  00387	83 c4 04	 add	 esp, 4
; File C:\Program Files\Microsoft Visual Studio\2022\Professional\VC\Tools\MSVC\14.44.35207\include\xtree

; 810  :     }

  0038a	c6 45 fc 01	 mov	 BYTE PTR __$EHRec$[ebp+8], 1

; 1042 :         return {_Scary->_Insert_node(_Loc._Location, _Inserted), true};

  0038e	8b cf		 mov	 ecx, edi

; 830  :         _Alnode_traits::construct(this->_Al, _STD addressof(this->_Ptr->_Myval), _STD forward<_Valtys>(_Vals)...);

  00390	c7 40 10 17 00
	00 00		 mov	 DWORD PTR [eax+16], 23	; 00000017H

; 1042 :         return {_Scary->_Insert_node(_Loc._Location, _Inserted), true};

  00397	50		 push	 eax
  00398	ff 75 e0	 push	 DWORD PTR __Loc$15[ebp+4]

; 830  :         _Alnode_traits::construct(this->_Al, _STD addressof(this->_Ptr->_Myval), _STD forward<_Valtys>(_Vals)...);

  0039b	c7 40 14 00 00
	00 00		 mov	 DWORD PTR [eax+20], OFFSET ?OnOneHourNotify@CDPAccountClient@@AAEXAAVCAr@@PAEK@Z ; CDPAccountClient::OnOneHourNotify

; 1042 :         return {_Scary->_Insert_node(_Loc._Location, _Inserted), true};

  003a2	ff 75 dc	 push	 DWORD PTR __Loc$15[ebp]

; 831  :         _Construct_in_place(this->_Ptr->_Left, _Myhead);

  003a5	89 30		 mov	 DWORD PTR [eax], esi

; 832  :         _Construct_in_place(this->_Ptr->_Parent, _Myhead);

  003a7	89 70 04	 mov	 DWORD PTR [eax+4], esi

; 833  :         _Construct_in_place(this->_Ptr->_Right, _Myhead);

  003aa	89 70 08	 mov	 DWORD PTR [eax+8], esi

; 834  :         this->_Ptr->_Color = _Red;

  003ad	66 c7 40 0c 00
	00		 mov	 WORD PTR [eax+12], 0

; 1042 :         return {_Scary->_Insert_node(_Loc._Location, _Inserted), true};

  003b3	e8 00 00 00 00	 call	 ?_Insert_node@?$_Tree_val@U?$_Tree_simple_types@U?$pair@$$CBKP8CDPAccountClient@@AEXAAVCAr@@PAEK@Z@std@@@std@@@std@@QAEPAU?$_Tree_node@U?$pair@$$CBKP8CDPAccountClient@@AEXAAVCAr@@PAEK@Z@std@@PAX@2@U?$_Tree_id@PAU?$_Tree_node@U?$pair@$$CBKP8CDPAccountClient@@AEXAAVCAr@@PAEK@Z@std@@PAX@std@@@2@QAU32@@Z ; std::_Tree_val<std::_Tree_simple_types<std::pair<unsigned long const ,void (__thiscall CDPAccountClient::*)(CAr &,unsigned char *,unsigned long)> > >::_Insert_node
$LN631@CDPAccount:

; 1017 :             _Loc                = _Find_lower_bound(_Keyval);

  003b8	8d 45 e8	 lea	 eax, DWORD PTR $T30[ebp]
; File C:\Program Files\Microsoft Visual Studio\2022\Professional\VC\Tools\MSVC\14.44.35207\include\utility

; 274  :         : first(_STD forward<_Other1>(_Val1)), second(_STD forward<_Other2>(_Val2)) {

  003bb	c7 45 e8 f5 0f
	00 00		 mov	 DWORD PTR $T30[ebp], 4085 ; 00000ff5H
; File C:\Program Files\Microsoft Visual Studio\2022\Professional\VC\Tools\MSVC\14.44.35207\include\xtree

; 1017 :             _Loc                = _Find_lower_bound(_Keyval);

  003c2	50		 push	 eax
  003c3	8d 45 d0	 lea	 eax, DWORD PTR $T8[ebp]
; File C:\Program Files\Microsoft Visual Studio\2022\Professional\VC\Tools\MSVC\14.44.35207\include\utility

; 274  :         : first(_STD forward<_Other1>(_Val1)), second(_STD forward<_Other2>(_Val2)) {

  003c6	c7 45 ec 00 00
	00 00		 mov	 DWORD PTR $T30[ebp+4], OFFSET ?OnFail@CDPAccountClient@@AAEXAAVCAr@@PAEK@Z ; CDPAccountClient::OnFail
; File C:\Program Files\Microsoft Visual Studio\2022\Professional\VC\Tools\MSVC\14.44.35207\include\xtree

; 1017 :             _Loc                = _Find_lower_bound(_Keyval);

  003cd	50		 push	 eax
  003ce	8b cf		 mov	 ecx, edi
  003d0	e8 00 00 00 00	 call	 ??$_Find_lower_bound@K@?$_Tree@V?$_Tmap_traits@KP8CDPAccountClient@@AEXAAVCAr@@PAEK@ZU?$less@K@std@@V?$allocator@U?$pair@$$CBKP8CDPAccountClient@@AEXAAVCAr@@PAEK@Z@std@@@4@$0A@@std@@@std@@IBE?AU?$_Tree_find_result@PAU?$_Tree_node@U?$pair@$$CBKP8CDPAccountClient@@AEXAAVCAr@@PAEK@Z@std@@PAX@std@@@1@ABK@Z ; std::_Tree<std::_Tmap_traits<unsigned long,void (__thiscall CDPAccountClient::*)(CAr &,unsigned char *,unsigned long),std::less<unsigned long>,std::allocator<std::pair<unsigned long const ,void (__thiscall CDPAccountClient::*)(CAr &,unsigned char *,unsigned long)> >,0> >::_Find_lower_bound<unsigned long>
  003d5	f3 0f 7e 00	 movq	 xmm0, QWORD PTR [eax]
  003d9	8b 40 08	 mov	 eax, DWORD PTR [eax+8]
  003dc	66 0f d6 45 dc	 movq	 QWORD PTR __Loc$16[ebp], xmm0

; 1624 :         return !_Bound->_Isnil && !_DEBUG_LT_PRED(_Getcomp(), _Keyval, _Traits::_Kfn(_Bound->_Myval));

  003e1	80 78 0d 00	 cmp	 BYTE PTR [eax+13], 0
  003e5	75 09		 jne	 SHORT $LN657@CDPAccount
; File C:\Program Files\Microsoft Visual Studio\2022\Professional\VC\Tools\MSVC\14.44.35207\include\type_traits

; 2380 :         return _Left < _Right;

  003e7	81 78 10 f5 0f
	00 00		 cmp	 DWORD PTR [eax+16], 4085 ; 00000ff5H
; File C:\Program Files\Microsoft Visual Studio\2022\Professional\VC\Tools\MSVC\14.44.35207\include\xtree

; 1624 :         return !_Bound->_Isnil && !_DEBUG_LT_PRED(_Getcomp(), _Keyval, _Traits::_Kfn(_Bound->_Myval));

  003ee	76 55		 jbe	 SHORT $LN732@CDPAccount
$LN657@CDPAccount:

; 1648 :         if (max_size() == _Get_scary()->_Mysize) {

  003f0	81 7f 04 aa aa
	aa 0a		 cmp	 DWORD PTR [edi+4], 178956970 ; 0aaaaaaaH
  003f7	0f 84 e1 00 00
	00		 je	 $LN856@CDPAccount

; 1023 :             _Inserted = _Tree_temp_node<_Alnode>(_Getal(), _Scary->_Myhead, _STD forward<_Valtys>(_Vals)...)._Release();

  003fd	8b 37		 mov	 esi, DWORD PTR [edi]
; File C:\Program Files\Microsoft Visual Studio\2022\Professional\VC\Tools\MSVC\14.44.35207\include\xmemory

; 1160 :     _CONSTEXPR20 explicit _Alloc_construct_ptr(_Alloc& _Al_) : _Al(_Al_), _Ptr(nullptr) {}

  003ff	89 7d e8	 mov	 DWORD PTR $T31[ebp], edi

; 136  :         return ::operator new(_Bytes);

  00402	6a 18		 push	 24			; 00000018H
; File C:\Program Files\Microsoft Visual Studio\2022\Professional\VC\Tools\MSVC\14.44.35207\include\xtree

; 808  :     explicit _Tree_temp_node_alloc(_Alnode& _Al_) : _Alloc_construct_ptr<_Alnode>(_Al_) {

  00404	c6 45 fc 08	 mov	 BYTE PTR __$EHRec$[ebp+8], 8
; File C:\Program Files\Microsoft Visual Studio\2022\Professional\VC\Tools\MSVC\14.44.35207\include\xmemory

; 1167 :         _Ptr = nullptr; // if allocate throws, prevents double-free

  00408	c7 45 ec 00 00
	00 00		 mov	 DWORD PTR $T31[ebp+4], 0

; 136  :         return ::operator new(_Bytes);

  0040f	e8 00 00 00 00	 call	 ??2@YAPAXI@Z		; operator new
  00414	83 c4 04	 add	 esp, 4
; File C:\Program Files\Microsoft Visual Studio\2022\Professional\VC\Tools\MSVC\14.44.35207\include\xtree

; 810  :     }

  00417	c6 45 fc 01	 mov	 BYTE PTR __$EHRec$[ebp+8], 1

; 1042 :         return {_Scary->_Insert_node(_Loc._Location, _Inserted), true};

  0041b	8b cf		 mov	 ecx, edi

; 830  :         _Alnode_traits::construct(this->_Al, _STD addressof(this->_Ptr->_Myval), _STD forward<_Valtys>(_Vals)...);

  0041d	c7 40 10 f5 0f
	00 00		 mov	 DWORD PTR [eax+16], 4085 ; 00000ff5H

; 1042 :         return {_Scary->_Insert_node(_Loc._Location, _Inserted), true};

  00424	50		 push	 eax
  00425	ff 75 e0	 push	 DWORD PTR __Loc$16[ebp+4]

; 830  :         _Alnode_traits::construct(this->_Al, _STD addressof(this->_Ptr->_Myval), _STD forward<_Valtys>(_Vals)...);

  00428	c7 40 14 00 00
	00 00		 mov	 DWORD PTR [eax+20], OFFSET ?OnFail@CDPAccountClient@@AAEXAAVCAr@@PAEK@Z ; CDPAccountClient::OnFail

; 1042 :         return {_Scary->_Insert_node(_Loc._Location, _Inserted), true};

  0042f	ff 75 dc	 push	 DWORD PTR __Loc$16[ebp]

; 831  :         _Construct_in_place(this->_Ptr->_Left, _Myhead);

  00432	89 30		 mov	 DWORD PTR [eax], esi

; 832  :         _Construct_in_place(this->_Ptr->_Parent, _Myhead);

  00434	89 70 04	 mov	 DWORD PTR [eax+4], esi

; 833  :         _Construct_in_place(this->_Ptr->_Right, _Myhead);

  00437	89 70 08	 mov	 DWORD PTR [eax+8], esi

; 834  :         this->_Ptr->_Color = _Red;

  0043a	66 c7 40 0c 00
	00		 mov	 WORD PTR [eax+12], 0

; 1042 :         return {_Scary->_Insert_node(_Loc._Location, _Inserted), true};

  00440	e8 00 00 00 00	 call	 ?_Insert_node@?$_Tree_val@U?$_Tree_simple_types@U?$pair@$$CBKP8CDPAccountClient@@AEXAAVCAr@@PAEK@Z@std@@@std@@@std@@QAEPAU?$_Tree_node@U?$pair@$$CBKP8CDPAccountClient@@AEXAAVCAr@@PAEK@Z@std@@PAX@2@U?$_Tree_id@PAU?$_Tree_node@U?$pair@$$CBKP8CDPAccountClient@@AEXAAVCAr@@PAEK@Z@std@@PAX@std@@@2@QAU32@@Z ; std::_Tree_val<std::_Tree_simple_types<std::pair<unsigned long const ,void (__thiscall CDPAccountClient::*)(CAr &,unsigned char *,unsigned long)> > >::_Insert_node
$LN732@CDPAccount:

; 1017 :             _Loc                = _Find_lower_bound(_Keyval);

  00445	8d 45 e8	 lea	 eax, DWORD PTR $T32[ebp]
; File C:\Program Files\Microsoft Visual Studio\2022\Professional\VC\Tools\MSVC\14.44.35207\include\utility

; 274  :         : first(_STD forward<_Other1>(_Val1)), second(_STD forward<_Other2>(_Val2)) {

  00448	c7 45 e8 52 b0
	00 f0		 mov	 DWORD PTR $T32[ebp], -268390318 ; f000b052H
; File C:\Program Files\Microsoft Visual Studio\2022\Professional\VC\Tools\MSVC\14.44.35207\include\xtree

; 1017 :             _Loc                = _Find_lower_bound(_Keyval);

  0044f	50		 push	 eax
  00450	8d 45 d0	 lea	 eax, DWORD PTR $T9[ebp]
; File C:\Program Files\Microsoft Visual Studio\2022\Professional\VC\Tools\MSVC\14.44.35207\include\utility

; 274  :         : first(_STD forward<_Other1>(_Val1)), second(_STD forward<_Other2>(_Val2)) {

  00453	c7 45 ec 00 00
	00 00		 mov	 DWORD PTR $T32[ebp+4], OFFSET ?OnBuyingInfo@CDPAccountClient@@AAEXAAVCAr@@PAEK@Z ; CDPAccountClient::OnBuyingInfo
; File C:\Program Files\Microsoft Visual Studio\2022\Professional\VC\Tools\MSVC\14.44.35207\include\xtree

; 1017 :             _Loc                = _Find_lower_bound(_Keyval);

  0045a	50		 push	 eax
  0045b	8b cf		 mov	 ecx, edi
  0045d	e8 00 00 00 00	 call	 ??$_Find_lower_bound@K@?$_Tree@V?$_Tmap_traits@KP8CDPAccountClient@@AEXAAVCAr@@PAEK@ZU?$less@K@std@@V?$allocator@U?$pair@$$CBKP8CDPAccountClient@@AEXAAVCAr@@PAEK@Z@std@@@4@$0A@@std@@@std@@IBE?AU?$_Tree_find_result@PAU?$_Tree_node@U?$pair@$$CBKP8CDPAccountClient@@AEXAAVCAr@@PAEK@Z@std@@PAX@std@@@1@ABK@Z ; std::_Tree<std::_Tmap_traits<unsigned long,void (__thiscall CDPAccountClient::*)(CAr &,unsigned char *,unsigned long),std::less<unsigned long>,std::allocator<std::pair<unsigned long const ,void (__thiscall CDPAccountClient::*)(CAr &,unsigned char *,unsigned long)> >,0> >::_Find_lower_bound<unsigned long>
  00462	f3 0f 7e 00	 movq	 xmm0, QWORD PTR [eax]
  00466	8b 40 08	 mov	 eax, DWORD PTR [eax+8]
  00469	66 0f d6 45 dc	 movq	 QWORD PTR __Loc$17[ebp], xmm0

; 1624 :         return !_Bound->_Isnil && !_DEBUG_LT_PRED(_Getcomp(), _Keyval, _Traits::_Kfn(_Bound->_Myval));

  0046e	80 78 0d 00	 cmp	 BYTE PTR [eax+13], 0
  00472	75 09		 jne	 SHORT $LN758@CDPAccount
; File C:\Program Files\Microsoft Visual Studio\2022\Professional\VC\Tools\MSVC\14.44.35207\include\type_traits

; 2380 :         return _Left < _Right;

  00474	81 78 10 52 b0
	00 f0		 cmp	 DWORD PTR [eax+16], -268390318 ; f000b052H
; File C:\Program Files\Microsoft Visual Studio\2022\Professional\VC\Tools\MSVC\14.44.35207\include\xtree

; 1624 :         return !_Bound->_Isnil && !_DEBUG_LT_PRED(_Getcomp(), _Keyval, _Traits::_Kfn(_Bound->_Myval));

  0047b	76 4d		 jbe	 SHORT $LN833@CDPAccount
$LN758@CDPAccount:

; 1648 :         if (max_size() == _Get_scary()->_Mysize) {

  0047d	81 7f 04 aa aa
	aa 0a		 cmp	 DWORD PTR [edi+4], 178956970 ; 0aaaaaaaH
  00484	74 58		 je	 SHORT $LN856@CDPAccount

; 1023 :             _Inserted = _Tree_temp_node<_Alnode>(_Getal(), _Scary->_Myhead, _STD forward<_Valtys>(_Vals)...)._Release();

  00486	8b 37		 mov	 esi, DWORD PTR [edi]
; File C:\Program Files\Microsoft Visual Studio\2022\Professional\VC\Tools\MSVC\14.44.35207\include\xmemory

; 1160 :     _CONSTEXPR20 explicit _Alloc_construct_ptr(_Alloc& _Al_) : _Al(_Al_), _Ptr(nullptr) {}

  00488	89 7d e8	 mov	 DWORD PTR $T19[ebp], edi

; 136  :         return ::operator new(_Bytes);

  0048b	6a 18		 push	 24			; 00000018H
; File C:\Program Files\Microsoft Visual Studio\2022\Professional\VC\Tools\MSVC\14.44.35207\include\xtree

; 808  :     explicit _Tree_temp_node_alloc(_Alnode& _Al_) : _Alloc_construct_ptr<_Alnode>(_Al_) {

  0048d	c6 45 fc 09	 mov	 BYTE PTR __$EHRec$[ebp+8], 9
; File C:\Program Files\Microsoft Visual Studio\2022\Professional\VC\Tools\MSVC\14.44.35207\include\xmemory

; 1167 :         _Ptr = nullptr; // if allocate throws, prevents double-free

  00491	c7 45 ec 00 00
	00 00		 mov	 DWORD PTR $T19[ebp+4], 0

; 136  :         return ::operator new(_Bytes);

  00498	e8 00 00 00 00	 call	 ??2@YAPAXI@Z		; operator new
  0049d	83 c4 04	 add	 esp, 4
; File C:\Program Files\Microsoft Visual Studio\2022\Professional\VC\Tools\MSVC\14.44.35207\include\xtree

; 1042 :         return {_Scary->_Insert_node(_Loc._Location, _Inserted), true};

  004a0	8b cf		 mov	 ecx, edi

; 830  :         _Alnode_traits::construct(this->_Al, _STD addressof(this->_Ptr->_Myval), _STD forward<_Valtys>(_Vals)...);

  004a2	c7 40 10 52 b0
	00 f0		 mov	 DWORD PTR [eax+16], -268390318 ; f000b052H

; 1042 :         return {_Scary->_Insert_node(_Loc._Location, _Inserted), true};

  004a9	50		 push	 eax
  004aa	ff 75 e0	 push	 DWORD PTR __Loc$17[ebp+4]

; 830  :         _Alnode_traits::construct(this->_Al, _STD addressof(this->_Ptr->_Myval), _STD forward<_Valtys>(_Vals)...);

  004ad	c7 40 14 00 00
	00 00		 mov	 DWORD PTR [eax+20], OFFSET ?OnBuyingInfo@CDPAccountClient@@AAEXAAVCAr@@PAEK@Z ; CDPAccountClient::OnBuyingInfo

; 1042 :         return {_Scary->_Insert_node(_Loc._Location, _Inserted), true};

  004b4	ff 75 dc	 push	 DWORD PTR __Loc$17[ebp]

; 831  :         _Construct_in_place(this->_Ptr->_Left, _Myhead);

  004b7	89 30		 mov	 DWORD PTR [eax], esi

; 832  :         _Construct_in_place(this->_Ptr->_Parent, _Myhead);

  004b9	89 70 04	 mov	 DWORD PTR [eax+4], esi

; 833  :         _Construct_in_place(this->_Ptr->_Right, _Myhead);

  004bc	89 70 08	 mov	 DWORD PTR [eax+8], esi

; 834  :         this->_Ptr->_Color = _Red;

  004bf	66 c7 40 0c 00
	00		 mov	 WORD PTR [eax+12], 0

; 1042 :         return {_Scary->_Insert_node(_Loc._Location, _Inserted), true};

  004c5	e8 00 00 00 00	 call	 ?_Insert_node@?$_Tree_val@U?$_Tree_simple_types@U?$pair@$$CBKP8CDPAccountClient@@AEXAAVCAr@@PAEK@Z@std@@@std@@@std@@QAEPAU?$_Tree_node@U?$pair@$$CBKP8CDPAccountClient@@AEXAAVCAr@@PAEK@Z@std@@PAX@2@U?$_Tree_id@PAU?$_Tree_node@U?$pair@$$CBKP8CDPAccountClient@@AEXAAVCAr@@PAEK@Z@std@@PAX@std@@@2@QAU32@@Z ; std::_Tree_val<std::_Tree_simple_types<std::pair<unsigned long const ,void (__thiscall CDPAccountClient::*)(CAr &,unsigned char *,unsigned long)> > >::_Insert_node
$LN833@CDPAccount:
; File C:\IAGOS\server\v18\Source\Source\DatabaseServer\dpaccountclient.cpp

; 38   : }

  004ca	8b c3		 mov	 eax, ebx
  004cc	8b 4d f4	 mov	 ecx, DWORD PTR __$EHRec$[ebp]
  004cf	64 89 0d 00 00
	00 00		 mov	 DWORD PTR fs:0, ecx
  004d6	59		 pop	 ecx
  004d7	5f		 pop	 edi
  004d8	5e		 pop	 esi
  004d9	5b		 pop	 ebx
  004da	8b e5		 mov	 esp, ebp
  004dc	5d		 pop	 ebp
  004dd	c3		 ret	 0
$LN856@CDPAccount:
; File C:\Program Files\Microsoft Visual Studio\2022\Professional\VC\Tools\MSVC\14.44.35207\include\xtree

; 1649 :             _Throw_tree_length_error();

  004de	e8 00 00 00 00	 call	 ?_Throw_tree_length_error@std@@YAXXZ ; std::_Throw_tree_length_error
$LN865@CDPAccount:
  004e3	cc		 int	 3
_TEXT	ENDS
;	COMDAT text$x
text$x	SEGMENT
__unwindfunclet$??0CDPAccountClient@@QAE@XZ$0:
  00000	8b 4d f0	 mov	 ecx, DWORD PTR _this$[ebp]
  00003	e9 00 00 00 00	 jmp	 ??1CDPMng@@UAE@XZ	; CDPMng::~CDPMng
__unwindfunclet$??0CDPAccountClient@@QAE@XZ$1:
  00008	8b 4d f0	 mov	 ecx, DWORD PTR _this$[ebp]
  0000b	83 c1 10	 add	 ecx, 16			; 00000010H
  0000e	e9 00 00 00 00	 jmp	 ??1?$map@KP8CDPAccountClient@@AEXAAVCAr@@PAEK@ZU?$less@K@std@@V?$allocator@U?$pair@$$CBKP8CDPAccountClient@@AEXAAVCAr@@PAEK@Z@std@@@4@@std@@QAE@XZ
__unwindfunclet$??0CDPAccountClient@@QAE@XZ$5:
  00013	8d 4d e8	 lea	 ecx, DWORD PTR $T33[ebp]
  00016	e9 00 00 00 00	 jmp	 ??1?$_Alloc_construct_ptr@V?$allocator@U?$_Tree_node@U?$pair@$$CBKP8CDPAccountClient@@AEXAAVCAr@@PAEK@Z@std@@PAX@std@@@std@@@std@@QAE@XZ ; std::_Alloc_construct_ptr<std::allocator<std::_Tree_node<std::pair<unsigned long const ,void (__thiscall CDPAccountClient::*)(CAr &,unsigned char *,unsigned long)>,void *> > >::~_Alloc_construct_ptr<std::allocator<std::_Tree_node<std::pair<unsigned long const ,void (__thiscall CDPAccountClient::*)(CAr &,unsigned char *,unsigned long)>,void *> > >
__unwindfunclet$??0CDPAccountClient@@QAE@XZ$10:
  0001b	8d 4d e8	 lea	 ecx, DWORD PTR $T18[ebp]
  0001e	e9 00 00 00 00	 jmp	 ??1?$_Alloc_construct_ptr@V?$allocator@U?$_Tree_node@U?$pair@$$CBKP8CDPAccountClient@@AEXAAVCAr@@PAEK@Z@std@@PAX@std@@@std@@@std@@QAE@XZ ; std::_Alloc_construct_ptr<std::allocator<std::_Tree_node<std::pair<unsigned long const ,void (__thiscall CDPAccountClient::*)(CAr &,unsigned char *,unsigned long)>,void *> > >::~_Alloc_construct_ptr<std::allocator<std::_Tree_node<std::pair<unsigned long const ,void (__thiscall CDPAccountClient::*)(CAr &,unsigned char *,unsigned long)>,void *> > >
__unwindfunclet$??0CDPAccountClient@@QAE@XZ$15:
  00023	8d 4d e8	 lea	 ecx, DWORD PTR $T20[ebp]
  00026	e9 00 00 00 00	 jmp	 ??1?$_Alloc_construct_ptr@V?$allocator@U?$_Tree_node@U?$pair@$$CBKP8CDPAccountClient@@AEXAAVCAr@@PAEK@Z@std@@PAX@std@@@std@@@std@@QAE@XZ ; std::_Alloc_construct_ptr<std::allocator<std::_Tree_node<std::pair<unsigned long const ,void (__thiscall CDPAccountClient::*)(CAr &,unsigned char *,unsigned long)>,void *> > >::~_Alloc_construct_ptr<std::allocator<std::_Tree_node<std::pair<unsigned long const ,void (__thiscall CDPAccountClient::*)(CAr &,unsigned char *,unsigned long)>,void *> > >
__unwindfunclet$??0CDPAccountClient@@QAE@XZ$20:
  0002b	8d 4d e8	 lea	 ecx, DWORD PTR $T22[ebp]
  0002e	e9 00 00 00 00	 jmp	 ??1?$_Alloc_construct_ptr@V?$allocator@U?$_Tree_node@U?$pair@$$CBKP8CDPAccountClient@@AEXAAVCAr@@PAEK@Z@std@@PAX@std@@@std@@@std@@QAE@XZ ; std::_Alloc_construct_ptr<std::allocator<std::_Tree_node<std::pair<unsigned long const ,void (__thiscall CDPAccountClient::*)(CAr &,unsigned char *,unsigned long)>,void *> > >::~_Alloc_construct_ptr<std::allocator<std::_Tree_node<std::pair<unsigned long const ,void (__thiscall CDPAccountClient::*)(CAr &,unsigned char *,unsigned long)>,void *> > >
__unwindfunclet$??0CDPAccountClient@@QAE@XZ$25:
  00033	8d 4d e8	 lea	 ecx, DWORD PTR $T25[ebp]
  00036	e9 00 00 00 00	 jmp	 ??1?$_Alloc_construct_ptr@V?$allocator@U?$_Tree_node@U?$pair@$$CBKP8CDPAccountClient@@AEXAAVCAr@@PAEK@Z@std@@PAX@std@@@std@@@std@@QAE@XZ ; std::_Alloc_construct_ptr<std::allocator<std::_Tree_node<std::pair<unsigned long const ,void (__thiscall CDPAccountClient::*)(CAr &,unsigned char *,unsigned long)>,void *> > >::~_Alloc_construct_ptr<std::allocator<std::_Tree_node<std::pair<unsigned long const ,void (__thiscall CDPAccountClient::*)(CAr &,unsigned char *,unsigned long)>,void *> > >
__unwindfunclet$??0CDPAccountClient@@QAE@XZ$30:
  0003b	8d 4d e8	 lea	 ecx, DWORD PTR $T28[ebp]
  0003e	e9 00 00 00 00	 jmp	 ??1?$_Alloc_construct_ptr@V?$allocator@U?$_Tree_node@U?$pair@$$CBKP8CDPAccountClient@@AEXAAVCAr@@PAEK@Z@std@@PAX@std@@@std@@@std@@QAE@XZ ; std::_Alloc_construct_ptr<std::allocator<std::_Tree_node<std::pair<unsigned long const ,void (__thiscall CDPAccountClient::*)(CAr &,unsigned char *,unsigned long)>,void *> > >::~_Alloc_construct_ptr<std::allocator<std::_Tree_node<std::pair<unsigned long const ,void (__thiscall CDPAccountClient::*)(CAr &,unsigned char *,unsigned long)>,void *> > >
__unwindfunclet$??0CDPAccountClient@@QAE@XZ$35:
  00043	8d 4d e8	 lea	 ecx, DWORD PTR $T31[ebp]
  00046	e9 00 00 00 00	 jmp	 ??1?$_Alloc_construct_ptr@V?$allocator@U?$_Tree_node@U?$pair@$$CBKP8CDPAccountClient@@AEXAAVCAr@@PAEK@Z@std@@PAX@std@@@std@@@std@@QAE@XZ ; std::_Alloc_construct_ptr<std::allocator<std::_Tree_node<std::pair<unsigned long const ,void (__thiscall CDPAccountClient::*)(CAr &,unsigned char *,unsigned long)>,void *> > >::~_Alloc_construct_ptr<std::allocator<std::_Tree_node<std::pair<unsigned long const ,void (__thiscall CDPAccountClient::*)(CAr &,unsigned char *,unsigned long)>,void *> > >
__unwindfunclet$??0CDPAccountClient@@QAE@XZ$40:
  0004b	8d 4d e8	 lea	 ecx, DWORD PTR $T19[ebp]
  0004e	e9 00 00 00 00	 jmp	 ??1?$_Alloc_construct_ptr@V?$allocator@U?$_Tree_node@U?$pair@$$CBKP8CDPAccountClient@@AEXAAVCAr@@PAEK@Z@std@@PAX@std@@@std@@@std@@QAE@XZ ; std::_Alloc_construct_ptr<std::allocator<std::_Tree_node<std::pair<unsigned long const ,void (__thiscall CDPAccountClient::*)(CAr &,unsigned char *,unsigned long)>,void *> > >::~_Alloc_construct_ptr<std::allocator<std::_Tree_node<std::pair<unsigned long const ,void (__thiscall CDPAccountClient::*)(CAr &,unsigned char *,unsigned long)>,void *> > >
  00053	cc		 int	 3
  00054	cc		 int	 3
  00055	cc		 int	 3
  00056	cc		 int	 3
  00057	cc		 int	 3
__ehhandler$??0CDPAccountClient@@QAE@XZ:
  00058	90		 npad	 1
  00059	90		 npad	 1
  0005a	8b 54 24 08	 mov	 edx, DWORD PTR [esp+8]
  0005e	8d 42 0c	 lea	 eax, DWORD PTR [edx+12]
  00061	8b 4a cc	 mov	 ecx, DWORD PTR [edx-52]
  00064	33 c8		 xor	 ecx, eax
  00066	e8 00 00 00 00	 call	 @__security_check_cookie@4
  0006b	b8 00 00 00 00	 mov	 eax, OFFSET __ehfuncinfo$??0CDPAccountClient@@QAE@XZ
  00070	e9 00 00 00 00	 jmp	 ___CxxFrameHandler3
text$x	ENDS
??0CDPAccountClient@@QAE@XZ ENDP			; CDPAccountClient::CDPAccountClient
; Function compile flags: /Ogtp
; File C:\Program Files\Microsoft Visual Studio\2022\Professional\VC\Tools\MSVC\14.44.35207\include\xmemory
;	COMDAT ??$_Allocate_manually_vector_aligned@U_Default_allocate_traits@std@@@std@@YAPAXI@Z
_TEXT	SEGMENT
__Bytes$ = 8						; size = 4
??$_Allocate_manually_vector_aligned@U_Default_allocate_traits@std@@@std@@YAPAXI@Z PROC ; std::_Allocate_manually_vector_aligned<std::_Default_allocate_traits>, COMDAT

; 182  : __declspec(allocator) void* _Allocate_manually_vector_aligned(const size_t _Bytes) {

  00000	55		 push	 ebp
  00001	8b ec		 mov	 ebp, esp

; 183  :     // allocate _Bytes manually aligned to at least _Big_allocation_alignment
; 184  :     const size_t _Block_size = _Non_user_size + _Bytes;

  00003	8b 45 08	 mov	 eax, DWORD PTR __Bytes$[ebp]
  00006	8d 48 23	 lea	 ecx, DWORD PTR [eax+35]

; 185  :     if (_Block_size <= _Bytes) {

  00009	3b c8		 cmp	 ecx, eax
  0000b	0f 86 00 00 00
	00		 jbe	 ?_Throw_bad_array_new_length@std@@YAXXZ ; std::_Throw_bad_array_new_length

; 136  :         return ::operator new(_Bytes);

  00011	51		 push	 ecx
  00012	e8 00 00 00 00	 call	 ??2@YAPAXI@Z		; operator new

; 186  :         _Throw_bad_array_new_length(); // add overflow
; 187  :     }
; 188  : 
; 189  :     const uintptr_t _Ptr_container = reinterpret_cast<uintptr_t>(_Traits::_Allocate(_Block_size));

  00017	8b c8		 mov	 ecx, eax

; 136  :         return ::operator new(_Bytes);

  00019	83 c4 04	 add	 esp, 4

; 190  :     _STL_VERIFY(_Ptr_container != 0, "invalid argument"); // validate even in release since we're doing p[-1]

  0001c	85 c9		 test	 ecx, ecx
  0001e	74 0b		 je	 SHORT $LN9@Allocate_m

; 191  :     void* const _Ptr = reinterpret_cast<void*>((_Ptr_container + _Non_user_size) & ~(_Big_allocation_alignment - 1));

  00020	8d 41 23	 lea	 eax, DWORD PTR [ecx+35]
  00023	83 e0 e0	 and	 eax, -32		; ffffffe0H

; 192  :     static_cast<uintptr_t*>(_Ptr)[-1] = _Ptr_container;

  00026	89 48 fc	 mov	 DWORD PTR [eax-4], ecx

; 193  : 
; 194  : #ifdef _DEBUG
; 195  :     static_cast<uintptr_t*>(_Ptr)[-2] = _Big_allocation_sentinel;
; 196  : #endif // defined(_DEBUG)
; 197  :     return _Ptr;
; 198  : }

  00029	5d		 pop	 ebp
  0002a	c3		 ret	 0
$LN9@Allocate_m:

; 190  :     _STL_VERIFY(_Ptr_container != 0, "invalid argument"); // validate even in release since we're doing p[-1]

  0002b	6a 00		 push	 0
  0002d	6a 00		 push	 0
  0002f	6a 00		 push	 0
  00031	6a 00		 push	 0
  00033	6a 00		 push	 0
  00035	e8 00 00 00 00	 call	 __invoke_watson
$LN7@Allocate_m:
  0003a	cc		 int	 3
??$_Allocate_manually_vector_aligned@U_Default_allocate_traits@std@@@std@@YAPAXI@Z ENDP ; std::_Allocate_manually_vector_aligned<std::_Default_allocate_traits>
_TEXT	ENDS
; Function compile flags: /Ogtp
; File C:\Program Files\Microsoft Visual Studio\2022\Professional\VC\Tools\MSVC\14.44.35207\include\xtree
;	COMDAT ?_Throw_tree_length_error@std@@YAXXZ
_TEXT	SEGMENT
?_Throw_tree_length_error@std@@YAXXZ PROC		; std::_Throw_tree_length_error, COMDAT

; 417  :     _Xlength_error("map/set too long");

  00000	68 00 00 00 00	 push	 OFFSET ??_C@_0BB@GCADKGJO@map?1set?5too?5long@
  00005	e8 00 00 00 00	 call	 ?_Xlength_error@std@@YAXPBD@Z ; std::_Xlength_error
$LN3@Throw_tree:
  0000a	cc		 int	 3
?_Throw_tree_length_error@std@@YAXXZ ENDP		; std::_Throw_tree_length_error
_TEXT	ENDS
; Function compile flags: /Ogtp
; File C:\Program Files\Microsoft Visual Studio\2022\Professional\VC\Tools\MSVC\14.44.35207\include\xmemory
;	COMDAT ?_Throw_bad_array_new_length@std@@YAXXZ
_TEXT	SEGMENT
$T1 = -12						; size = 12
?_Throw_bad_array_new_length@std@@YAXXZ PROC		; std::_Throw_bad_array_new_length, COMDAT

; 107  : [[noreturn]] inline void _Throw_bad_array_new_length() {

  00000	55		 push	 ebp
  00001	8b ec		 mov	 ebp, esp
  00003	83 ec 0c	 sub	 esp, 12			; 0000000cH

; 108  :     _THROW(bad_array_new_length{});

  00006	8d 4d f4	 lea	 ecx, DWORD PTR $T1[ebp]
  00009	e8 00 00 00 00	 call	 ??0bad_array_new_length@std@@QAE@XZ ; std::bad_array_new_length::bad_array_new_length
  0000e	68 00 00 00 00	 push	 OFFSET __TI3?AVbad_array_new_length@std@@
  00013	8d 45 f4	 lea	 eax, DWORD PTR $T1[ebp]
  00016	50		 push	 eax
  00017	e8 00 00 00 00	 call	 __CxxThrowException@8
$LN3@Throw_bad_:
  0001c	cc		 int	 3
?_Throw_bad_array_new_length@std@@YAXXZ ENDP		; std::_Throw_bad_array_new_length
_TEXT	ENDS
; Function compile flags: /Ogtp
; File C:\Program Files\Microsoft Visual Studio\2022\Professional\VC\Tools\MSVC\14.44.35207\include\vcruntime_exception.h
;	COMDAT ??_Gbad_array_new_length@std@@UAEPAXI@Z
_TEXT	SEGMENT
___flags$ = 8						; size = 4
??_Gbad_array_new_length@std@@UAEPAXI@Z PROC		; std::bad_array_new_length::`scalar deleting destructor', COMDAT
; _this$ = ecx
  00000	55		 push	 ebp
  00001	8b ec		 mov	 ebp, esp

; 90   :     {

  00003	56		 push	 esi
  00004	8b f1		 mov	 esi, ecx

; 91   :         __std_exception_destroy(&_Data);

  00006	8d 46 04	 lea	 eax, DWORD PTR [esi+4]
  00009	c7 06 00 00 00
	00		 mov	 DWORD PTR [esi], OFFSET ??_7exception@std@@6B@
  0000f	50		 push	 eax
  00010	e8 00 00 00 00	 call	 ___std_exception_destroy
  00015	83 c4 04	 add	 esp, 4
  00018	f6 45 08 01	 test	 BYTE PTR ___flags$[ebp], 1
  0001c	74 0b		 je	 SHORT $LN18@scalar
  0001e	6a 0c		 push	 12			; 0000000cH
  00020	56		 push	 esi
  00021	e8 00 00 00 00	 call	 ??3@YAXPAXI@Z		; operator delete
  00026	83 c4 08	 add	 esp, 8
$LN18@scalar:
  00029	8b c6		 mov	 eax, esi
  0002b	5e		 pop	 esi
  0002c	5d		 pop	 ebp
  0002d	c2 04 00	 ret	 4
??_Gbad_array_new_length@std@@UAEPAXI@Z ENDP		; std::bad_array_new_length::`scalar deleting destructor'
_TEXT	ENDS
; Function compile flags: /Ogtp
; File C:\Program Files\Microsoft Visual Studio\2022\Professional\VC\Tools\MSVC\14.44.35207\include\vcruntime_exception.h
;	COMDAT ??0bad_array_new_length@std@@QAE@ABV01@@Z
_TEXT	SEGMENT
___that$ = 8						; size = 4
??0bad_array_new_length@std@@QAE@ABV01@@Z PROC		; std::bad_array_new_length::bad_array_new_length, COMDAT
; _this$ = ecx
  00000	55		 push	 ebp
  00001	8b ec		 mov	 ebp, esp

; 73   :     {

  00003	56		 push	 esi
  00004	8b f1		 mov	 esi, ecx
  00006	0f 57 c0	 xorps	 xmm0, xmm0

; 72   :         : _Data()

  00009	8d 46 04	 lea	 eax, DWORD PTR [esi+4]

; 74   :         __std_exception_copy(&_Other._Data, &_Data);

  0000c	50		 push	 eax
  0000d	c7 06 00 00 00
	00		 mov	 DWORD PTR [esi], OFFSET ??_7exception@std@@6B@
  00013	66 0f d6 00	 movq	 QWORD PTR [eax], xmm0
  00017	8b 45 08	 mov	 eax, DWORD PTR ___that$[ebp]
  0001a	83 c0 04	 add	 eax, 4
  0001d	50		 push	 eax
  0001e	e8 00 00 00 00	 call	 ___std_exception_copy
  00023	83 c4 08	 add	 esp, 8
  00026	c7 06 00 00 00
	00		 mov	 DWORD PTR [esi], OFFSET ??_7bad_array_new_length@std@@6B@
  0002c	8b c6		 mov	 eax, esi
  0002e	5e		 pop	 esi
  0002f	5d		 pop	 ebp
  00030	c2 04 00	 ret	 4
??0bad_array_new_length@std@@QAE@ABV01@@Z ENDP		; std::bad_array_new_length::bad_array_new_length
_TEXT	ENDS
; Function compile flags: /Ogtp
; File C:\Program Files\Microsoft Visual Studio\2022\Professional\VC\Tools\MSVC\14.44.35207\include\vcruntime_exception.h
;	COMDAT ??1bad_array_new_length@std@@UAE@XZ
_TEXT	SEGMENT
??1bad_array_new_length@std@@UAE@XZ PROC		; std::bad_array_new_length::~bad_array_new_length, COMDAT
; _this$ = ecx

; 91   :         __std_exception_destroy(&_Data);

  00000	8d 41 04	 lea	 eax, DWORD PTR [ecx+4]
  00003	c7 01 00 00 00
	00		 mov	 DWORD PTR [ecx], OFFSET ??_7exception@std@@6B@
  00009	50		 push	 eax
  0000a	e8 00 00 00 00	 call	 ___std_exception_destroy
  0000f	59		 pop	 ecx
  00010	c3		 ret	 0
??1bad_array_new_length@std@@UAE@XZ ENDP		; std::bad_array_new_length::~bad_array_new_length
_TEXT	ENDS
; Function compile flags: /Ogtp
; File C:\Program Files\Microsoft Visual Studio\2022\Professional\VC\Tools\MSVC\14.44.35207\include\vcruntime_exception.h
;	COMDAT ??0bad_array_new_length@std@@QAE@XZ
_TEXT	SEGMENT
??0bad_array_new_length@std@@QAE@XZ PROC		; std::bad_array_new_length::bad_array_new_length, COMDAT
; _this$ = ecx

; 144  :     {

  00000	0f 57 c0	 xorps	 xmm0, xmm0

; 145  :     }

  00003	8b c1		 mov	 eax, ecx

; 66   :         : _Data()

  00005	66 0f d6 41 04	 movq	 QWORD PTR [ecx+4], xmm0

; 67   :     {
; 68   :         _Data._What = _Message;

  0000a	c7 41 04 00 00
	00 00		 mov	 DWORD PTR [ecx+4], OFFSET ??_C@_0BF@KINCDENJ@bad?5array?5new?5length@

; 144  :     {

  00011	c7 01 00 00 00
	00		 mov	 DWORD PTR [ecx], OFFSET ??_7bad_array_new_length@std@@6B@

; 145  :     }

  00017	c3		 ret	 0
??0bad_array_new_length@std@@QAE@XZ ENDP		; std::bad_array_new_length::bad_array_new_length
_TEXT	ENDS
; Function compile flags: /Ogtp
; File C:\Program Files\Microsoft Visual Studio\2022\Professional\VC\Tools\MSVC\14.44.35207\include\vcruntime_exception.h
;	COMDAT ??_Gbad_alloc@std@@UAEPAXI@Z
_TEXT	SEGMENT
___flags$ = 8						; size = 4
??_Gbad_alloc@std@@UAEPAXI@Z PROC			; std::bad_alloc::`scalar deleting destructor', COMDAT
; _this$ = ecx
  00000	55		 push	 ebp
  00001	8b ec		 mov	 ebp, esp

; 90   :     {

  00003	56		 push	 esi
  00004	8b f1		 mov	 esi, ecx

; 91   :         __std_exception_destroy(&_Data);

  00006	8d 46 04	 lea	 eax, DWORD PTR [esi+4]
  00009	c7 06 00 00 00
	00		 mov	 DWORD PTR [esi], OFFSET ??_7exception@std@@6B@
  0000f	50		 push	 eax
  00010	e8 00 00 00 00	 call	 ___std_exception_destroy
  00015	83 c4 04	 add	 esp, 4
  00018	f6 45 08 01	 test	 BYTE PTR ___flags$[ebp], 1
  0001c	74 0b		 je	 SHORT $LN13@scalar
  0001e	6a 0c		 push	 12			; 0000000cH
  00020	56		 push	 esi
  00021	e8 00 00 00 00	 call	 ??3@YAXPAXI@Z		; operator delete
  00026	83 c4 08	 add	 esp, 8
$LN13@scalar:
  00029	8b c6		 mov	 eax, esi
  0002b	5e		 pop	 esi
  0002c	5d		 pop	 ebp
  0002d	c2 04 00	 ret	 4
??_Gbad_alloc@std@@UAEPAXI@Z ENDP			; std::bad_alloc::`scalar deleting destructor'
_TEXT	ENDS
; Function compile flags: /Ogtp
; File C:\Program Files\Microsoft Visual Studio\2022\Professional\VC\Tools\MSVC\14.44.35207\include\vcruntime_exception.h
;	COMDAT ??0bad_alloc@std@@QAE@ABV01@@Z
_TEXT	SEGMENT
___that$ = 8						; size = 4
??0bad_alloc@std@@QAE@ABV01@@Z PROC			; std::bad_alloc::bad_alloc, COMDAT
; _this$ = ecx
  00000	55		 push	 ebp
  00001	8b ec		 mov	 ebp, esp

; 73   :     {

  00003	56		 push	 esi
  00004	8b f1		 mov	 esi, ecx
  00006	0f 57 c0	 xorps	 xmm0, xmm0

; 72   :         : _Data()

  00009	8d 46 04	 lea	 eax, DWORD PTR [esi+4]

; 74   :         __std_exception_copy(&_Other._Data, &_Data);

  0000c	50		 push	 eax
  0000d	c7 06 00 00 00
	00		 mov	 DWORD PTR [esi], OFFSET ??_7exception@std@@6B@
  00013	66 0f d6 00	 movq	 QWORD PTR [eax], xmm0
  00017	8b 45 08	 mov	 eax, DWORD PTR ___that$[ebp]
  0001a	83 c0 04	 add	 eax, 4
  0001d	50		 push	 eax
  0001e	e8 00 00 00 00	 call	 ___std_exception_copy
  00023	83 c4 08	 add	 esp, 8
  00026	c7 06 00 00 00
	00		 mov	 DWORD PTR [esi], OFFSET ??_7bad_alloc@std@@6B@
  0002c	8b c6		 mov	 eax, esi
  0002e	5e		 pop	 esi
  0002f	5d		 pop	 ebp
  00030	c2 04 00	 ret	 4
??0bad_alloc@std@@QAE@ABV01@@Z ENDP			; std::bad_alloc::bad_alloc
_TEXT	ENDS
; Function compile flags: /Ogtp
; File C:\Program Files\Microsoft Visual Studio\2022\Professional\VC\Tools\MSVC\14.44.35207\include\vcruntime_exception.h
;	COMDAT ??_Gexception@std@@UAEPAXI@Z
_TEXT	SEGMENT
___flags$ = 8						; size = 4
??_Gexception@std@@UAEPAXI@Z PROC			; std::exception::`scalar deleting destructor', COMDAT
; _this$ = ecx
  00000	55		 push	 ebp
  00001	8b ec		 mov	 ebp, esp

; 90   :     {

  00003	56		 push	 esi
  00004	8b f1		 mov	 esi, ecx

; 91   :         __std_exception_destroy(&_Data);

  00006	8d 46 04	 lea	 eax, DWORD PTR [esi+4]
  00009	c7 06 00 00 00
	00		 mov	 DWORD PTR [esi], OFFSET ??_7exception@std@@6B@
  0000f	50		 push	 eax
  00010	e8 00 00 00 00	 call	 ___std_exception_destroy
  00015	83 c4 04	 add	 esp, 4
  00018	f6 45 08 01	 test	 BYTE PTR ___flags$[ebp], 1
  0001c	74 0b		 je	 SHORT $LN8@scalar
  0001e	6a 0c		 push	 12			; 0000000cH
  00020	56		 push	 esi
  00021	e8 00 00 00 00	 call	 ??3@YAXPAXI@Z		; operator delete
  00026	83 c4 08	 add	 esp, 8
$LN8@scalar:
  00029	8b c6		 mov	 eax, esi
  0002b	5e		 pop	 esi
  0002c	5d		 pop	 ebp
  0002d	c2 04 00	 ret	 4
??_Gexception@std@@UAEPAXI@Z ENDP			; std::exception::`scalar deleting destructor'
_TEXT	ENDS
; Function compile flags: /Ogtp
; File C:\Program Files\Microsoft Visual Studio\2022\Professional\VC\Tools\MSVC\14.44.35207\include\vcruntime_exception.h
;	COMDAT ?what@exception@std@@UBEPBDXZ
_TEXT	SEGMENT
?what@exception@std@@UBEPBDXZ PROC			; std::exception::what, COMDAT
; _this$ = ecx

; 96   :         return _Data._What ? _Data._What : "Unknown exception";

  00000	8b 49 04	 mov	 ecx, DWORD PTR [ecx+4]
  00003	b8 00 00 00 00	 mov	 eax, OFFSET ??_C@_0BC@EOODALEL@Unknown?5exception@
  00008	85 c9		 test	 ecx, ecx
  0000a	0f 45 c1	 cmovne	 eax, ecx

; 97   :     }

  0000d	c3		 ret	 0
?what@exception@std@@UBEPBDXZ ENDP			; std::exception::what
_TEXT	ENDS
; Function compile flags: /Ogtp
; File C:\Program Files\Microsoft Visual Studio\2022\Professional\VC\Tools\MSVC\14.44.35207\include\vcruntime_exception.h
;	COMDAT ??1exception@std@@UAE@XZ
_TEXT	SEGMENT
??1exception@std@@UAE@XZ PROC				; std::exception::~exception, COMDAT
; _this$ = ecx

; 91   :         __std_exception_destroy(&_Data);

  00000	8d 41 04	 lea	 eax, DWORD PTR [ecx+4]
  00003	c7 01 00 00 00
	00		 mov	 DWORD PTR [ecx], OFFSET ??_7exception@std@@6B@
  00009	50		 push	 eax
  0000a	e8 00 00 00 00	 call	 ___std_exception_destroy
  0000f	59		 pop	 ecx

; 92   :     }

  00010	c3		 ret	 0
??1exception@std@@UAE@XZ ENDP				; std::exception::~exception
_TEXT	ENDS
; Function compile flags: /Ogtp
; File C:\Program Files\Microsoft Visual Studio\2022\Professional\VC\Tools\MSVC\14.44.35207\include\vcruntime_exception.h
;	COMDAT ??0exception@std@@QAE@ABV01@@Z
_TEXT	SEGMENT
__Other$ = 8						; size = 4
??0exception@std@@QAE@ABV01@@Z PROC			; std::exception::exception, COMDAT
; _this$ = ecx

; 73   :     {

  00000	55		 push	 ebp
  00001	8b ec		 mov	 ebp, esp
  00003	56		 push	 esi
  00004	8b f1		 mov	 esi, ecx
  00006	0f 57 c0	 xorps	 xmm0, xmm0
  00009	8d 46 04	 lea	 eax, DWORD PTR [esi+4]

; 74   :         __std_exception_copy(&_Other._Data, &_Data);

  0000c	50		 push	 eax
  0000d	c7 06 00 00 00
	00		 mov	 DWORD PTR [esi], OFFSET ??_7exception@std@@6B@
  00013	66 0f d6 00	 movq	 QWORD PTR [eax], xmm0
  00017	8b 45 08	 mov	 eax, DWORD PTR __Other$[ebp]
  0001a	83 c0 04	 add	 eax, 4
  0001d	50		 push	 eax
  0001e	e8 00 00 00 00	 call	 ___std_exception_copy
  00023	83 c4 08	 add	 esp, 8

; 75   :     }

  00026	8b c6		 mov	 eax, esi
  00028	5e		 pop	 esi
  00029	5d		 pop	 ebp
  0002a	c2 04 00	 ret	 4
??0exception@std@@QAE@ABV01@@Z ENDP			; std::exception::exception
_TEXT	ENDS
; Function compile flags: /Ogtp
; File C:\IAGOS\server\v18\Source\Source\DatabaseServer\dpaccountclient.cpp
;	COMDAT ?__empty_global_delete@@YAXPAXI@Z
_TEXT	SEGMENT
___formal$ = 8						; size = 4
___formal$ = 12						; size = 4
?__empty_global_delete@@YAXPAXI@Z PROC			; __empty_global_delete, COMDAT

  00000	c2 00 00	 ret	 0
?__empty_global_delete@@YAXPAXI@Z ENDP			; __empty_global_delete
_TEXT	ENDS
; Function compile flags: /Ogtp
; File C:\IAGOS\server\v18\Source\Source\DatabaseServer\dpaccountclient.cpp
;	COMDAT ?__empty_global_delete@@YAXPAX@Z
_TEXT	SEGMENT
___formal$ = 8						; size = 4
?__empty_global_delete@@YAXPAX@Z PROC			; __empty_global_delete, COMDAT

  00000	c2 00 00	 ret	 0
?__empty_global_delete@@YAXPAX@Z ENDP			; __empty_global_delete
_TEXT	ENDS
END
