; Listing generated by Microsoft (R) Optimizing Compiler Version 19.44.35225.0 

	TITLE	C:\IAGOS\server\v18\Source\Output\DatabaseServer\Release\DPCoreSrvr.obj
	.686P
	.XMM
	include listing.inc
	.model	flat

INCLUDELIB LIBCMT
INCLUDELIB OLDNAMES

PUBLIC	?__empty_global_delete@@YAXPAX@Z		; __empty_global_delete
PUBLIC	?__empty_global_delete@@YAXPAXI@Z		; __empty_global_delete
PUBLIC	??0exception@std@@QAE@ABV01@@Z			; std::exception::exception
PUBLIC	??1exception@std@@UAE@XZ			; std::exception::~exception
PUBLIC	?what@exception@std@@UBEPBDXZ			; std::exception::what
PUBLIC	??_Gexception@std@@UAEPAXI@Z			; std::exception::`scalar deleting destructor'
PUBLIC	??0bad_alloc@std@@QAE@ABV01@@Z			; std::bad_alloc::bad_alloc
PUBLIC	??_Gbad_alloc@std@@UAEPAXI@Z			; std::bad_alloc::`scalar deleting destructor'
PUBLIC	??0bad_array_new_length@std@@QAE@XZ		; std::bad_array_new_length::bad_array_new_length
PUBLIC	??1bad_array_new_length@std@@UAE@XZ		; std::bad_array_new_length::~bad_array_new_length
PUBLIC	??0bad_array_new_length@std@@QAE@ABV01@@Z	; std::bad_array_new_length::bad_array_new_length
PUBLIC	??_Gbad_array_new_length@std@@UAEPAXI@Z		; std::bad_array_new_length::`scalar deleting destructor'
PUBLIC	?_Throw_bad_array_new_length@std@@YAXXZ		; std::_Throw_bad_array_new_length
PUBLIC	?_Throw_tree_length_error@std@@YAXXZ		; std::_Throw_tree_length_error
PUBLIC	??$_Allocate_manually_vector_aligned@U_Default_allocate_traits@std@@@std@@YAPAXI@Z ; std::_Allocate_manually_vector_aligned<std::_Default_allocate_traits>
PUBLIC	??0CDPCoreSrvr@@QAE@XZ				; CDPCoreSrvr::CDPCoreSrvr
PUBLIC	??1CDPCoreSrvr@@UAE@XZ				; CDPCoreSrvr::~CDPCoreSrvr
PUBLIC	?SysMessageHandler@CDPCoreSrvr@@UAEXPAUDPMSG_GENERIC@@KK@Z ; CDPCoreSrvr::SysMessageHandler
PUBLIC	?UserMessageHandler@CDPCoreSrvr@@UAEXPAUDPMSG_GENERIC@@KK@Z ; CDPCoreSrvr::UserMessageHandler
PUBLIC	?SendPartyName@CDPCoreSrvr@@QAEXK@Z		; CDPCoreSrvr::SendPartyName
PUBLIC	?SendTagResult@CDPCoreSrvr@@QAEXKE@Z		; CDPCoreSrvr::SendTagResult
PUBLIC	?OnAddConnection@CDPCoreSrvr@@QAEXK@Z		; CDPCoreSrvr::OnAddConnection
PUBLIC	?OnRemoveConnection@CDPCoreSrvr@@QAEXK@Z	; CDPCoreSrvr::OnRemoveConnection
PUBLIC	?SendAddVoteResult@CDPCoreSrvr@@QAEXAAUVOTE_INSERTED_INFO@@@Z ; CDPCoreSrvr::SendAddVoteResult
PUBLIC	?SendDelPlayer@CDPCoreSrvr@@QAEXKK@Z		; CDPCoreSrvr::SendDelPlayer
PUBLIC	?SendMemberTime@CDPCoreSrvr@@QAEXKPBD@Z		; CDPCoreSrvr::SendMemberTime
PUBLIC	?SendBuyingInfo@CDPCoreSrvr@@QAEXPAU_BUYING_INFO2@@@Z ; CDPCoreSrvr::SendBuyingInfo
PUBLIC	?SendSetPlayerName@CDPCoreSrvr@@QAEXKPBDKH@Z	; CDPCoreSrvr::SendSetPlayerName
PUBLIC	?SendUpdatePlayerData@CDPCoreSrvr@@QAEXKPAU_PlayerData@@@Z ; CDPCoreSrvr::SendUpdatePlayerData
PUBLIC	?SendEventLuaNotice@CDPCoreSrvr@@QAEXXZ		; CDPCoreSrvr::SendEventLuaNotice
PUBLIC	??1?$_Tree@V?$_Tmap_traits@KP8CDPCoreSrvr@@AEXAAVCAr@@PAEK@ZU?$less@K@std@@V?$allocator@U?$pair@$$CBKP8CDPCoreSrvr@@AEXAAVCAr@@PAEK@Z@std@@@4@$0A@@std@@@std@@QAE@XZ ; std::_Tree<std::_Tmap_traits<unsigned long,void (__thiscall CDPCoreSrvr::*)(CAr &,unsigned char *,unsigned long),std::less<unsigned long>,std::allocator<std::pair<unsigned long const ,void (__thiscall CDPCoreSrvr::*)(CAr &,unsigned char *,unsigned long)> >,0> >::~_Tree<std::_Tmap_traits<unsigned long,void (__thiscall CDPCoreSrvr::*)(CAr &,unsigned char *,unsigned long),std::less<unsigned long>,std::allocator<std::pair<unsigned long const ,void (__thiscall CDPCoreSrvr::*)(CAr &,unsigned char *,unsigned long)> >,0> >
PUBLIC	?_Insert_node@?$_Tree_val@U?$_Tree_simple_types@U?$pair@$$CBKP8CDPCoreSrvr@@AEXAAVCAr@@PAEK@Z@std@@@std@@@std@@QAEPAU?$_Tree_node@U?$pair@$$CBKP8CDPCoreSrvr@@AEXAAVCAr@@PAEK@Z@std@@PAX@2@U?$_Tree_id@PAU?$_Tree_node@U?$pair@$$CBKP8CDPCoreSrvr@@AEXAAVCAr@@PAEK@Z@std@@PAX@std@@@2@QAU32@@Z ; std::_Tree_val<std::_Tree_simple_types<std::pair<unsigned long const ,void (__thiscall CDPCoreSrvr::*)(CAr &,unsigned char *,unsigned long)> > >::_Insert_node
PUBLIC	??1?$map@KP8CDPCoreSrvr@@AEXAAVCAr@@PAEK@ZU?$less@K@std@@V?$allocator@U?$pair@$$CBKP8CDPCoreSrvr@@AEXAAVCAr@@PAEK@Z@std@@@4@@std@@QAE@XZ ; std::map<unsigned long,void (__thiscall CDPCoreSrvr::*)(CAr &,unsigned char *,unsigned long),std::less<unsigned long>,std::allocator<std::pair<unsigned long const ,void (__thiscall CDPCoreSrvr::*)(CAr &,unsigned char *,unsigned long)> > >::~map<unsigned long,void (__thiscall CDPCoreSrvr::*)(CAr &,unsigned char *,unsigned long),std::less<unsigned long>,std::allocator<std::pair<unsigned long const ,void (__thiscall CDPCoreSrvr::*)(CAr &,unsigned char *,unsigned long)> > >
PUBLIC	?OnCreateGuild@CDPCoreSrvr@@AAEXAAVCAr@@PAEK@Z	; CDPCoreSrvr::OnCreateGuild
PUBLIC	?OnDestroyGuild@CDPCoreSrvr@@AAEXAAVCAr@@PAEK@Z	; CDPCoreSrvr::OnDestroyGuild
PUBLIC	?OnAddGuildMember@CDPCoreSrvr@@AAEXAAVCAr@@PAEK@Z ; CDPCoreSrvr::OnAddGuildMember
PUBLIC	?OnRemoveGuildMember@CDPCoreSrvr@@AAEXAAVCAr@@PAEK@Z ; CDPCoreSrvr::OnRemoveGuildMember
PUBLIC	?OnGuildMemberLv@CDPCoreSrvr@@AAEXAAVCAr@@PAEK@Z ; CDPCoreSrvr::OnGuildMemberLv
PUBLIC	?OnGuildClass@CDPCoreSrvr@@AAEXAAVCAr@@PAEK@Z	; CDPCoreSrvr::OnGuildClass
PUBLIC	?OnGuildNickName@CDPCoreSrvr@@AAEXAAVCAr@@PAEK@Z ; CDPCoreSrvr::OnGuildNickName
PUBLIC	?OnChgMaster@CDPCoreSrvr@@AAEXAAVCAr@@PAEK@Z	; CDPCoreSrvr::OnChgMaster
PUBLIC	?OnGuildLogo@CDPCoreSrvr@@AAEXAAVCAr@@PAEK@Z	; CDPCoreSrvr::OnGuildLogo
PUBLIC	?OnGuildNotice@CDPCoreSrvr@@AAEXAAVCAr@@PAEK@Z	; CDPCoreSrvr::OnGuildNotice
PUBLIC	?OnAddVote@CDPCoreSrvr@@AAEXAAVCAr@@PAEK@Z	; CDPCoreSrvr::OnAddVote
PUBLIC	?OnRemoveVote@CDPCoreSrvr@@AAEXAAVCAr@@PAEK@Z	; CDPCoreSrvr::OnRemoveVote
PUBLIC	?OnCloseVote@CDPCoreSrvr@@AAEXAAVCAr@@PAEK@Z	; CDPCoreSrvr::OnCloseVote
PUBLIC	?OnCastVote@CDPCoreSrvr@@AAEXAAVCAr@@PAEK@Z	; CDPCoreSrvr::OnCastVote
PUBLIC	?OnGuildPenya@CDPCoreSrvr@@AAEXAAVCAr@@PAEK@Z	; CDPCoreSrvr::OnGuildPenya
PUBLIC	?OnGuildAuthority@CDPCoreSrvr@@AAEXAAVCAr@@PAEK@Z ; CDPCoreSrvr::OnGuildAuthority
PUBLIC	?OnGuildSetName@CDPCoreSrvr@@AAEXAAVCAr@@PAEK@Z	; CDPCoreSrvr::OnGuildSetName
PUBLIC	?OnAcptWar@CDPCoreSrvr@@AAEXAAVCAr@@PAEK@Z	; CDPCoreSrvr::OnAcptWar
PUBLIC	?OnWarEnd@CDPCoreSrvr@@AAEXAAVCAr@@PAEK@Z	; CDPCoreSrvr::OnWarEnd
PUBLIC	?OnSurrender@CDPCoreSrvr@@AAEXAAVCAr@@PAEK@Z	; CDPCoreSrvr::OnSurrender
PUBLIC	?OnWarDead@CDPCoreSrvr@@AAEXAAVCAr@@PAEK@Z	; CDPCoreSrvr::OnWarDead
PUBLIC	?OnWarMasterAbsent@CDPCoreSrvr@@AAEXAAVCAr@@PAEK@Z ; CDPCoreSrvr::OnWarMasterAbsent
PUBLIC	?OnAddMessenger@CDPCoreSrvr@@AAEXAAVCAr@@PAEK@Z	; CDPCoreSrvr::OnAddMessenger
PUBLIC	?OnDeleteMessenger@CDPCoreSrvr@@AAEXAAVCAr@@PAEK@Z ; CDPCoreSrvr::OnDeleteMessenger
PUBLIC	?OnUpdateMessenger@CDPCoreSrvr@@AAEXAAVCAr@@PAEK@Z ; CDPCoreSrvr::OnUpdateMessenger
PUBLIC	?SendRemovePlayerFriend@CDPCoreSrvr@@QAEXKK@Z	; CDPCoreSrvr::SendRemovePlayerFriend
PUBLIC	?OnAddPartyName@CDPCoreSrvr@@AAEXAAVCAr@@PAEK@Z	; CDPCoreSrvr::OnAddPartyName
PUBLIC	?OnTag@CDPCoreSrvr@@AAEXAAVCAr@@PAEK@Z		; CDPCoreSrvr::OnTag
PUBLIC	?OnWanted@CDPCoreSrvr@@AAEXAAVCAr@@PAEK@Z	; CDPCoreSrvr::OnWanted
PUBLIC	?OnSnoopGuild@CDPCoreSrvr@@AAEXAAVCAr@@PAEK@Z	; CDPCoreSrvr::OnSnoopGuild
PUBLIC	??_GCDPCoreSrvr@@UAEPAXI@Z			; CDPCoreSrvr::`scalar deleting destructor'
PUBLIC	??$insert@$0A@$0A@@?$_Tree@V?$_Tmap_traits@KP8CDPCoreSrvr@@AEXAAVCAr@@PAEK@ZU?$less@K@std@@V?$allocator@U?$pair@$$CBKP8CDPCoreSrvr@@AEXAAVCAr@@PAEK@Z@std@@@4@$0A@@std@@@std@@QAE?AU?$pair@V?$_Tree_iterator@V?$_Tree_val@U?$_Tree_simple_types@U?$pair@$$CBKP8CDPCoreSrvr@@AEXAAVCAr@@PAEK@Z@std@@@std@@@std@@@std@@_N@1@$$QAU?$pair@$$CBKP8CDPCoreSrvr@@AEXAAVCAr@@PAEK@Z@1@@Z ; std::_Tree<std::_Tmap_traits<unsigned long,void (__thiscall CDPCoreSrvr::*)(CAr &,unsigned char *,unsigned long),std::less<unsigned long>,std::allocator<std::pair<unsigned long const ,void (__thiscall CDPCoreSrvr::*)(CAr &,unsigned char *,unsigned long)> >,0> >::insert<0,0>
PUBLIC	??$?5K@CAr@@QAEAAV0@AAK@Z			; CAr::operator>><unsigned long>
PUBLIC	??$?6K@CAr@@QAEAAV0@ABK@Z			; CAr::operator<<<unsigned long>
PUBLIC	??$?6E@CAr@@QAEAAV0@ABE@Z			; CAr::operator<<<unsigned char>
PUBLIC	??$?6H@CAr@@QAEAAV0@ABH@Z			; CAr::operator<<<int>
PUBLIC	??1?$vector@V?$basic_string@DU?$char_traits@D@std@@V?$allocator@D@2@@std@@V?$allocator@V?$basic_string@DU?$char_traits@D@std@@V?$allocator@D@2@@std@@@2@@std@@QAE@XZ ; std::vector<std::basic_string<char,std::char_traits<char>,std::allocator<char> >,std::allocator<std::basic_string<char,std::char_traits<char>,std::allocator<char> > > >::~vector<std::basic_string<char,std::char_traits<char>,std::allocator<char> >,std::allocator<std::basic_string<char,std::char_traits<char>,std::allocator<char> > > >
PUBLIC	?_Tidy@?$vector@V?$basic_string@DU?$char_traits@D@std@@V?$allocator@D@2@@std@@V?$allocator@V?$basic_string@DU?$char_traits@D@std@@V?$allocator@D@2@@std@@@2@@std@@AAEXXZ ; std::vector<std::basic_string<char,std::char_traits<char>,std::allocator<char> >,std::allocator<std::basic_string<char,std::char_traits<char>,std::allocator<char> > > >::_Tidy
PUBLIC	??$?6I@CAr@@QAEAAV0@ABI@Z			; CAr::operator<<<unsigned int>
PUBLIC	??$_Find_lower_bound@K@?$_Tree@V?$_Tmap_traits@KP8CDPCoreSrvr@@AEXAAVCAr@@PAEK@ZU?$less@K@std@@V?$allocator@U?$pair@$$CBKP8CDPCoreSrvr@@AEXAAVCAr@@PAEK@Z@std@@@4@$0A@@std@@@std@@IBE?AU?$_Tree_find_result@PAU?$_Tree_node@U?$pair@$$CBKP8CDPCoreSrvr@@AEXAAVCAr@@PAEK@Z@std@@PAX@std@@@1@ABK@Z ; std::_Tree<std::_Tmap_traits<unsigned long,void (__thiscall CDPCoreSrvr::*)(CAr &,unsigned char *,unsigned long),std::less<unsigned long>,std::allocator<std::pair<unsigned long const ,void (__thiscall CDPCoreSrvr::*)(CAr &,unsigned char *,unsigned long)> >,0> >::_Find_lower_bound<unsigned long>
PUBLIC	??1?$_Alloc_construct_ptr@V?$allocator@U?$_Tree_node@U?$pair@$$CBKP8CDPCoreSrvr@@AEXAAVCAr@@PAEK@Z@std@@PAX@std@@@std@@@std@@QAE@XZ ; std::_Alloc_construct_ptr<std::allocator<std::_Tree_node<std::pair<unsigned long const ,void (__thiscall CDPCoreSrvr::*)(CAr &,unsigned char *,unsigned long)>,void *> > >::~_Alloc_construct_ptr<std::allocator<std::_Tree_node<std::pair<unsigned long const ,void (__thiscall CDPCoreSrvr::*)(CAr &,unsigned char *,unsigned long)>,void *> > >
PUBLIC	??$_Erase_tree@V?$allocator@U?$_Tree_node@U?$pair@$$CBKP8CDPCoreSrvr@@AEXAAVCAr@@PAEK@Z@std@@PAX@std@@@std@@@?$_Tree_val@U?$_Tree_simple_types@U?$pair@$$CBKP8CDPCoreSrvr@@AEXAAVCAr@@PAEK@Z@std@@@std@@@std@@QAEXAAV?$allocator@U?$_Tree_node@U?$pair@$$CBKP8CDPCoreSrvr@@AEXAAVCAr@@PAEK@Z@std@@PAX@std@@@1@PAU?$_Tree_node@U?$pair@$$CBKP8CDPCoreSrvr@@AEXAAVCAr@@PAEK@Z@std@@PAX@1@@Z ; std::_Tree_val<std::_Tree_simple_types<std::pair<unsigned long const ,void (__thiscall CDPCoreSrvr::*)(CAr &,unsigned char *,unsigned long)> > >::_Erase_tree<std::allocator<std::_Tree_node<std::pair<unsigned long const ,void (__thiscall CDPCoreSrvr::*)(CAr &,unsigned char *,unsigned long)>,void *> > >
PUBLIC	??_7exception@std@@6B@				; std::exception::`vftable'
PUBLIC	??_C@_0BC@EOODALEL@Unknown?5exception@		; `string'
PUBLIC	??_7bad_alloc@std@@6B@				; std::bad_alloc::`vftable'
PUBLIC	??_7bad_array_new_length@std@@6B@		; std::bad_array_new_length::`vftable'
PUBLIC	??_C@_0BF@KINCDENJ@bad?5array?5new?5length@	; `string'
PUBLIC	??_R0?AVexception@std@@@8			; std::exception `RTTI Type Descriptor'
PUBLIC	__CT??_R0?AVexception@std@@@8??0exception@std@@QAE@ABV01@@Z12
PUBLIC	__TI3?AVbad_array_new_length@std@@
PUBLIC	__CTA3?AVbad_array_new_length@std@@
PUBLIC	??_R0?AVbad_array_new_length@std@@@8		; std::bad_array_new_length `RTTI Type Descriptor'
PUBLIC	__CT??_R0?AVbad_array_new_length@std@@@8??0bad_array_new_length@std@@QAE@ABV01@@Z12
PUBLIC	??_R0?AVbad_alloc@std@@@8			; std::bad_alloc `RTTI Type Descriptor'
PUBLIC	__CT??_R0?AVbad_alloc@std@@@8??0bad_alloc@std@@QAE@ABV01@@Z12
PUBLIC	??_C@_0BB@GCADKGJO@map?1set?5too?5long@		; `string'
PUBLIC	??_R4exception@std@@6B@				; std::exception::`RTTI Complete Object Locator'
PUBLIC	??_R3exception@std@@8				; std::exception::`RTTI Class Hierarchy Descriptor'
PUBLIC	??_R2exception@std@@8				; std::exception::`RTTI Base Class Array'
PUBLIC	??_R1A@?0A@EA@exception@std@@8			; std::exception::`RTTI Base Class Descriptor at (0,-1,0,64)'
PUBLIC	??_R4bad_array_new_length@std@@6B@		; std::bad_array_new_length::`RTTI Complete Object Locator'
PUBLIC	??_R3bad_array_new_length@std@@8		; std::bad_array_new_length::`RTTI Class Hierarchy Descriptor'
PUBLIC	??_R2bad_array_new_length@std@@8		; std::bad_array_new_length::`RTTI Base Class Array'
PUBLIC	??_R1A@?0A@EA@bad_array_new_length@std@@8	; std::bad_array_new_length::`RTTI Base Class Descriptor at (0,-1,0,64)'
PUBLIC	??_R1A@?0A@EA@bad_alloc@std@@8			; std::bad_alloc::`RTTI Base Class Descriptor at (0,-1,0,64)'
PUBLIC	??_R3bad_alloc@std@@8				; std::bad_alloc::`RTTI Class Hierarchy Descriptor'
PUBLIC	??_R2bad_alloc@std@@8				; std::bad_alloc::`RTTI Base Class Array'
PUBLIC	??_R4bad_alloc@std@@6B@				; std::bad_alloc::`RTTI Complete Object Locator'
PUBLIC	??_7CDPCoreSrvr@@6B@				; CDPCoreSrvr::`vftable'
PUBLIC	?g_dpCoreSrvr@@3VCDPCoreSrvr@@A			; g_dpCoreSrvr
PUBLIC	??_R4CDPCoreSrvr@@6B@				; CDPCoreSrvr::`RTTI Complete Object Locator'
PUBLIC	??_R0?AVCDPCoreSrvr@@@8				; CDPCoreSrvr `RTTI Type Descriptor'
PUBLIC	??_R3CDPCoreSrvr@@8				; CDPCoreSrvr::`RTTI Class Hierarchy Descriptor'
PUBLIC	??_R2CDPCoreSrvr@@8				; CDPCoreSrvr::`RTTI Base Class Array'
PUBLIC	??_R1A@?0A@EA@CDPCoreSrvr@@8			; CDPCoreSrvr::`RTTI Base Class Descriptor at (0,-1,0,64)'
PUBLIC	??_R1A@?0A@EA@CDPMng@@8				; CDPMng::`RTTI Base Class Descriptor at (0,-1,0,64)'
PUBLIC	??_R0?AVCDPMng@@@8				; CDPMng `RTTI Type Descriptor'
PUBLIC	??_R3CDPMng@@8					; CDPMng::`RTTI Class Hierarchy Descriptor'
PUBLIC	??_R2CDPMng@@8					; CDPMng::`RTTI Base Class Array'
EXTRN	??2@YAPAXI@Z:PROC				; operator new
EXTRN	??3@YAXPAXI@Z:PROC				; operator delete
EXTRN	_atexit:PROC
EXTRN	__invoke_watson:PROC
EXTRN	__imp__PostQueuedCompletionStatus@16:PROC
EXTRN	?_Xlength_error@std@@YAXPBD@Z:PROC		; std::_Xlength_error
EXTRN	___std_exception_copy:PROC
EXTRN	___std_exception_destroy:PROC
EXTRN	??_Eexception@std@@UAEPAXI@Z:PROC		; std::exception::`vector deleting destructor'
EXTRN	??_Ebad_alloc@std@@UAEPAXI@Z:PROC		; std::bad_alloc::`vector deleting destructor'
EXTRN	??_Ebad_array_new_length@std@@UAEPAXI@Z:PROC	; std::bad_array_new_length::`vector deleting destructor'
EXTRN	?GetNoticeMessage@CEventLua@@QAE?AV?$vector@V?$basic_string@DU?$char_traits@D@std@@V?$allocator@D@2@@std@@V?$allocator@V?$basic_string@DU?$char_traits@D@std@@V?$allocator@D@2@@std@@@2@@std@@XZ:PROC ; CEventLua::GetNoticeMessage
EXTRN	??0CAr@@QAE@PAXI@Z:PROC				; CAr::CAr
EXTRN	??1CAr@@QAE@XZ:PROC				; CAr::~CAr
EXTRN	?Write@CAr@@QAEXPBXI@Z:PROC			; CAr::Write
EXTRN	?CheckBuf@CAr@@QAEXI@Z:PROC			; CAr::CheckBuf
EXTRN	?WriteString@CAr@@QAEXPBD@Z:PROC		; CAr::WriteString
EXTRN	?ReadString@CAr@@QAEPADPADH@Z:PROC		; CAr::ReadString
EXTRN	?GetBuffer@CAr@@QAEPAEPAH@Z:PROC		; CAr::GetBuffer
EXTRN	?Send@CDPSock@@QAEHPADKK@Z:PROC			; CDPSock::Send
EXTRN	??0CDPMng@@QAE@XZ:PROC				; CDPMng::CDPMng
EXTRN	??1CDPMng@@UAE@XZ:PROC				; CDPMng::~CDPMng
EXTRN	?AllocRequest@CDbManager@@QAEPAUtagDB_OVERLAPPED_PLUS@@XZ:PROC ; CDbManager::AllocRequest
EXTRN	?MakeRequest@CDbManager@@QAEXPAUtagDB_OVERLAPPED_PLUS@@PAEK@Z:PROC ; CDbManager::MakeRequest
EXTRN	?OpenGuild@CDbManager@@QAEXXZ:PROC		; CDbManager::OpenGuild
EXTRN	??6@YAAAVCAr@@AAV0@AAUVOTE_INSERTED_INFO@@@Z:PROC ; operator<<
EXTRN	?Serialize@CGuildTable@@QAEXAAVCAr@@@Z:PROC	; CGuildTable::Serialize
EXTRN	?GetInstance@CGuildTable@@SAAAV1@XZ:PROC	; CGuildTable::GetInstance
EXTRN	?Serialize@CGuildMng@@QAEXAAVCAr@@H@Z:PROC	; CGuildMng::Serialize
EXTRN	??_ECDPCoreSrvr@@UAEPAXI@Z:PROC			; CDPCoreSrvr::`vector deleting destructor'
EXTRN	?Serialize@CGuildWarMng@@QAEXAAVCAr@@@Z:PROC	; CGuildWarMng::Serialize
EXTRN	@__security_check_cookie@4:PROC
EXTRN	__CxxThrowException@8:PROC
EXTRN	___CxxFrameHandler3:PROC
EXTRN	__chkstk:PROC
EXTRN	_memset:PROC
EXTRN	??_7type_info@@6B@:QWORD			; type_info::`vftable'
EXTRN	?prj@@3VCProject@@A:BYTE			; prj
EXTRN	?g_DbManager@@3AAVCDbManager@@A:DWORD		; g_DbManager
EXTRN	?g_GuildMng@@3VCGuildMng@@A:BYTE		; g_GuildMng
EXTRN	?g_GuildWarMng@@3VCGuildWarMng@@A:BYTE		; g_GuildWarMng
EXTRN	___security_cookie:DWORD
_BSS	SEGMENT
?g_dpCoreSrvr@@3VCDPCoreSrvr@@A DB 018H DUP (?)		; g_dpCoreSrvr
_BSS	ENDS
CRT$XCU	SEGMENT
?g_dpCoreSrvr$initializer$@@3P6AXXZA DD FLAT:??__Eg_dpCoreSrvr@@YAXXZ ; g_dpCoreSrvr$initializer$
CRT$XCU	ENDS
;	COMDAT ??_R2CDPMng@@8
rdata$r	SEGMENT
??_R2CDPMng@@8 DD FLAT:??_R1A@?0A@EA@CDPMng@@8		; CDPMng::`RTTI Base Class Array'
rdata$r	ENDS
;	COMDAT ??_R3CDPMng@@8
rdata$r	SEGMENT
??_R3CDPMng@@8 DD 00H					; CDPMng::`RTTI Class Hierarchy Descriptor'
	DD	00H
	DD	01H
	DD	FLAT:??_R2CDPMng@@8
rdata$r	ENDS
;	COMDAT ??_R0?AVCDPMng@@@8
data$rs	SEGMENT
??_R0?AVCDPMng@@@8 DD FLAT:??_7type_info@@6B@		; CDPMng `RTTI Type Descriptor'
	DD	00H
	DB	'.?AVCDPMng@@', 00H
data$rs	ENDS
;	COMDAT ??_R1A@?0A@EA@CDPMng@@8
rdata$r	SEGMENT
??_R1A@?0A@EA@CDPMng@@8 DD FLAT:??_R0?AVCDPMng@@@8	; CDPMng::`RTTI Base Class Descriptor at (0,-1,0,64)'
	DD	00H
	DD	00H
	DD	0ffffffffH
	DD	00H
	DD	040H
	DD	FLAT:??_R3CDPMng@@8
rdata$r	ENDS
;	COMDAT ??_R1A@?0A@EA@CDPCoreSrvr@@8
rdata$r	SEGMENT
??_R1A@?0A@EA@CDPCoreSrvr@@8 DD FLAT:??_R0?AVCDPCoreSrvr@@@8 ; CDPCoreSrvr::`RTTI Base Class Descriptor at (0,-1,0,64)'
	DD	01H
	DD	00H
	DD	0ffffffffH
	DD	00H
	DD	040H
	DD	FLAT:??_R3CDPCoreSrvr@@8
rdata$r	ENDS
;	COMDAT ??_R2CDPCoreSrvr@@8
rdata$r	SEGMENT
??_R2CDPCoreSrvr@@8 DD FLAT:??_R1A@?0A@EA@CDPCoreSrvr@@8 ; CDPCoreSrvr::`RTTI Base Class Array'
	DD	FLAT:??_R1A@?0A@EA@CDPMng@@8
rdata$r	ENDS
;	COMDAT ??_R3CDPCoreSrvr@@8
rdata$r	SEGMENT
??_R3CDPCoreSrvr@@8 DD 00H				; CDPCoreSrvr::`RTTI Class Hierarchy Descriptor'
	DD	00H
	DD	02H
	DD	FLAT:??_R2CDPCoreSrvr@@8
rdata$r	ENDS
;	COMDAT ??_R0?AVCDPCoreSrvr@@@8
data$rs	SEGMENT
??_R0?AVCDPCoreSrvr@@@8 DD FLAT:??_7type_info@@6B@	; CDPCoreSrvr `RTTI Type Descriptor'
	DD	00H
	DB	'.?AVCDPCoreSrvr@@', 00H
data$rs	ENDS
;	COMDAT ??_R4CDPCoreSrvr@@6B@
rdata$r	SEGMENT
??_R4CDPCoreSrvr@@6B@ DD 00H				; CDPCoreSrvr::`RTTI Complete Object Locator'
	DD	00H
	DD	00H
	DD	FLAT:??_R0?AVCDPCoreSrvr@@@8
	DD	FLAT:??_R3CDPCoreSrvr@@8
rdata$r	ENDS
;	COMDAT ??_7CDPCoreSrvr@@6B@
CONST	SEGMENT
??_7CDPCoreSrvr@@6B@ DD FLAT:??_R4CDPCoreSrvr@@6B@	; CDPCoreSrvr::`vftable'
	DD	FLAT:??_ECDPCoreSrvr@@UAEPAXI@Z
	DD	FLAT:?SysMessageHandler@CDPCoreSrvr@@UAEXPAUDPMSG_GENERIC@@KK@Z
	DD	FLAT:?UserMessageHandler@CDPCoreSrvr@@UAEXPAUDPMSG_GENERIC@@KK@Z
CONST	ENDS
;	COMDAT ??_R4bad_alloc@std@@6B@
rdata$r	SEGMENT
??_R4bad_alloc@std@@6B@ DD 00H				; std::bad_alloc::`RTTI Complete Object Locator'
	DD	00H
	DD	00H
	DD	FLAT:??_R0?AVbad_alloc@std@@@8
	DD	FLAT:??_R3bad_alloc@std@@8
rdata$r	ENDS
;	COMDAT ??_R2bad_alloc@std@@8
rdata$r	SEGMENT
??_R2bad_alloc@std@@8 DD FLAT:??_R1A@?0A@EA@bad_alloc@std@@8 ; std::bad_alloc::`RTTI Base Class Array'
	DD	FLAT:??_R1A@?0A@EA@exception@std@@8
rdata$r	ENDS
;	COMDAT ??_R3bad_alloc@std@@8
rdata$r	SEGMENT
??_R3bad_alloc@std@@8 DD 00H				; std::bad_alloc::`RTTI Class Hierarchy Descriptor'
	DD	00H
	DD	02H
	DD	FLAT:??_R2bad_alloc@std@@8
rdata$r	ENDS
;	COMDAT ??_R1A@?0A@EA@bad_alloc@std@@8
rdata$r	SEGMENT
??_R1A@?0A@EA@bad_alloc@std@@8 DD FLAT:??_R0?AVbad_alloc@std@@@8 ; std::bad_alloc::`RTTI Base Class Descriptor at (0,-1,0,64)'
	DD	01H
	DD	00H
	DD	0ffffffffH
	DD	00H
	DD	040H
	DD	FLAT:??_R3bad_alloc@std@@8
rdata$r	ENDS
;	COMDAT ??_R1A@?0A@EA@bad_array_new_length@std@@8
rdata$r	SEGMENT
??_R1A@?0A@EA@bad_array_new_length@std@@8 DD FLAT:??_R0?AVbad_array_new_length@std@@@8 ; std::bad_array_new_length::`RTTI Base Class Descriptor at (0,-1,0,64)'
	DD	02H
	DD	00H
	DD	0ffffffffH
	DD	00H
	DD	040H
	DD	FLAT:??_R3bad_array_new_length@std@@8
rdata$r	ENDS
;	COMDAT ??_R2bad_array_new_length@std@@8
rdata$r	SEGMENT
??_R2bad_array_new_length@std@@8 DD FLAT:??_R1A@?0A@EA@bad_array_new_length@std@@8 ; std::bad_array_new_length::`RTTI Base Class Array'
	DD	FLAT:??_R1A@?0A@EA@bad_alloc@std@@8
	DD	FLAT:??_R1A@?0A@EA@exception@std@@8
rdata$r	ENDS
;	COMDAT ??_R3bad_array_new_length@std@@8
rdata$r	SEGMENT
??_R3bad_array_new_length@std@@8 DD 00H			; std::bad_array_new_length::`RTTI Class Hierarchy Descriptor'
	DD	00H
	DD	03H
	DD	FLAT:??_R2bad_array_new_length@std@@8
rdata$r	ENDS
;	COMDAT ??_R4bad_array_new_length@std@@6B@
rdata$r	SEGMENT
??_R4bad_array_new_length@std@@6B@ DD 00H		; std::bad_array_new_length::`RTTI Complete Object Locator'
	DD	00H
	DD	00H
	DD	FLAT:??_R0?AVbad_array_new_length@std@@@8
	DD	FLAT:??_R3bad_array_new_length@std@@8
rdata$r	ENDS
;	COMDAT ??_R1A@?0A@EA@exception@std@@8
rdata$r	SEGMENT
??_R1A@?0A@EA@exception@std@@8 DD FLAT:??_R0?AVexception@std@@@8 ; std::exception::`RTTI Base Class Descriptor at (0,-1,0,64)'
	DD	00H
	DD	00H
	DD	0ffffffffH
	DD	00H
	DD	040H
	DD	FLAT:??_R3exception@std@@8
rdata$r	ENDS
;	COMDAT ??_R2exception@std@@8
rdata$r	SEGMENT
??_R2exception@std@@8 DD FLAT:??_R1A@?0A@EA@exception@std@@8 ; std::exception::`RTTI Base Class Array'
rdata$r	ENDS
;	COMDAT ??_R3exception@std@@8
rdata$r	SEGMENT
??_R3exception@std@@8 DD 00H				; std::exception::`RTTI Class Hierarchy Descriptor'
	DD	00H
	DD	01H
	DD	FLAT:??_R2exception@std@@8
rdata$r	ENDS
;	COMDAT ??_R4exception@std@@6B@
rdata$r	SEGMENT
??_R4exception@std@@6B@ DD 00H				; std::exception::`RTTI Complete Object Locator'
	DD	00H
	DD	00H
	DD	FLAT:??_R0?AVexception@std@@@8
	DD	FLAT:??_R3exception@std@@8
rdata$r	ENDS
;	COMDAT ??_C@_0BB@GCADKGJO@map?1set?5too?5long@
CONST	SEGMENT
??_C@_0BB@GCADKGJO@map?1set?5too?5long@ DB 'map/set too long', 00H ; `string'
CONST	ENDS
;	COMDAT __CT??_R0?AVbad_alloc@std@@@8??0bad_alloc@std@@QAE@ABV01@@Z12
xdata$x	SEGMENT
__CT??_R0?AVbad_alloc@std@@@8??0bad_alloc@std@@QAE@ABV01@@Z12 DD 010H
	DD	FLAT:??_R0?AVbad_alloc@std@@@8
	DD	00H
	DD	0ffffffffH
	ORG $+4
	DD	0cH
	DD	FLAT:??0bad_alloc@std@@QAE@ABV01@@Z
xdata$x	ENDS
;	COMDAT ??_R0?AVbad_alloc@std@@@8
data$r	SEGMENT
??_R0?AVbad_alloc@std@@@8 DD FLAT:??_7type_info@@6B@	; std::bad_alloc `RTTI Type Descriptor'
	DD	00H
	DB	'.?AVbad_alloc@std@@', 00H
data$r	ENDS
;	COMDAT __CT??_R0?AVbad_array_new_length@std@@@8??0bad_array_new_length@std@@QAE@ABV01@@Z12
xdata$x	SEGMENT
__CT??_R0?AVbad_array_new_length@std@@@8??0bad_array_new_length@std@@QAE@ABV01@@Z12 DD 00H
	DD	FLAT:??_R0?AVbad_array_new_length@std@@@8
	DD	00H
	DD	0ffffffffH
	ORG $+4
	DD	0cH
	DD	FLAT:??0bad_array_new_length@std@@QAE@ABV01@@Z
xdata$x	ENDS
;	COMDAT ??_R0?AVbad_array_new_length@std@@@8
data$r	SEGMENT
??_R0?AVbad_array_new_length@std@@@8 DD FLAT:??_7type_info@@6B@ ; std::bad_array_new_length `RTTI Type Descriptor'
	DD	00H
	DB	'.?AVbad_array_new_length@std@@', 00H
data$r	ENDS
;	COMDAT __CTA3?AVbad_array_new_length@std@@
xdata$x	SEGMENT
__CTA3?AVbad_array_new_length@std@@ DD 03H
	DD	FLAT:__CT??_R0?AVbad_array_new_length@std@@@8??0bad_array_new_length@std@@QAE@ABV01@@Z12
	DD	FLAT:__CT??_R0?AVbad_alloc@std@@@8??0bad_alloc@std@@QAE@ABV01@@Z12
	DD	FLAT:__CT??_R0?AVexception@std@@@8??0exception@std@@QAE@ABV01@@Z12
xdata$x	ENDS
;	COMDAT __TI3?AVbad_array_new_length@std@@
xdata$x	SEGMENT
__TI3?AVbad_array_new_length@std@@ DD 00H
	DD	FLAT:??1bad_array_new_length@std@@UAE@XZ
	DD	00H
	DD	FLAT:__CTA3?AVbad_array_new_length@std@@
xdata$x	ENDS
;	COMDAT __CT??_R0?AVexception@std@@@8??0exception@std@@QAE@ABV01@@Z12
xdata$x	SEGMENT
__CT??_R0?AVexception@std@@@8??0exception@std@@QAE@ABV01@@Z12 DD 00H
	DD	FLAT:??_R0?AVexception@std@@@8
	DD	00H
	DD	0ffffffffH
	ORG $+4
	DD	0cH
	DD	FLAT:??0exception@std@@QAE@ABV01@@Z
xdata$x	ENDS
;	COMDAT ??_R0?AVexception@std@@@8
data$r	SEGMENT
??_R0?AVexception@std@@@8 DD FLAT:??_7type_info@@6B@	; std::exception `RTTI Type Descriptor'
	DD	00H
	DB	'.?AVexception@std@@', 00H
data$r	ENDS
;	COMDAT ??_C@_0BF@KINCDENJ@bad?5array?5new?5length@
CONST	SEGMENT
??_C@_0BF@KINCDENJ@bad?5array?5new?5length@ DB 'bad array new length', 00H ; `string'
CONST	ENDS
;	COMDAT ??_7bad_array_new_length@std@@6B@
CONST	SEGMENT
??_7bad_array_new_length@std@@6B@ DD FLAT:??_R4bad_array_new_length@std@@6B@ ; std::bad_array_new_length::`vftable'
	DD	FLAT:??_Ebad_array_new_length@std@@UAEPAXI@Z
	DD	FLAT:?what@exception@std@@UBEPBDXZ
CONST	ENDS
;	COMDAT ??_7bad_alloc@std@@6B@
CONST	SEGMENT
??_7bad_alloc@std@@6B@ DD FLAT:??_R4bad_alloc@std@@6B@	; std::bad_alloc::`vftable'
	DD	FLAT:??_Ebad_alloc@std@@UAEPAXI@Z
	DD	FLAT:?what@exception@std@@UBEPBDXZ
CONST	ENDS
;	COMDAT ??_C@_0BC@EOODALEL@Unknown?5exception@
CONST	SEGMENT
??_C@_0BC@EOODALEL@Unknown?5exception@ DB 'Unknown exception', 00H ; `string'
CONST	ENDS
;	COMDAT ??_7exception@std@@6B@
CONST	SEGMENT
??_7exception@std@@6B@ DD FLAT:??_R4exception@std@@6B@	; std::exception::`vftable'
	DD	FLAT:??_Eexception@std@@UAEPAXI@Z
	DD	FLAT:?what@exception@std@@UBEPBDXZ
CONST	ENDS
;	COMDAT xdata$x
xdata$x	SEGMENT
__unwindtable$??$?0U?$pair@$$CBKP8CDPCoreSrvr@@AEXAAVCAr@@PAEK@Z@std@@@?$_Tree_temp_node@V?$allocator@U?$_Tree_node@U?$pair@$$CBKP8CDPCoreSrvr@@AEXAAVCAr@@PAEK@Z@std@@PAX@std@@@std@@@std@@QAE@AAV?$allocator@U?$_Tree_node@U?$pair@$$CBKP8CDPCoreSrvr@@AEXAAVCAr@@PAEK@Z@std@@PAX@std@@@1@PAU?$_Tree_node@U?$pair@$$CBKP8CDPCoreSrvr@@AEXAAVCAr@@PAEK@Z@std@@PAX@1@$$QAU?$pair@$$CBKP8CDPCoreSrvr@@AEXAAVCAr@@PAEK@Z@1@@Z DD 0ffffffffH
	DD	FLAT:__unwindfunclet$??$?0U?$pair@$$CBKP8CDPCoreSrvr@@AEXAAVCAr@@PAEK@Z@std@@@?$_Tree_temp_node@V?$allocator@U?$_Tree_node@U?$pair@$$CBKP8CDPCoreSrvr@@AEXAAVCAr@@PAEK@Z@std@@PAX@std@@@std@@@std@@QAE@AAV?$allocator@U?$_Tree_node@U?$pair@$$CBKP8CDPCoreSrvr@@AEXAAVCAr@@PAEK@Z@std@@PAX@std@@@1@PAU?$_Tree_node@U?$pair@$$CBKP8CDPCoreSrvr@@AEXAAVCAr@@PAEK@Z@std@@PAX@1@$$QAU?$pair@$$CBKP8CDPCoreSrvr@@AEXAAVCAr@@PAEK@Z@1@@Z$1
__ehfuncinfo$??$?0U?$pair@$$CBKP8CDPCoreSrvr@@AEXAAVCAr@@PAEK@Z@std@@@?$_Tree_temp_node@V?$allocator@U?$_Tree_node@U?$pair@$$CBKP8CDPCoreSrvr@@AEXAAVCAr@@PAEK@Z@std@@PAX@std@@@std@@@std@@QAE@AAV?$allocator@U?$_Tree_node@U?$pair@$$CBKP8CDPCoreSrvr@@AEXAAVCAr@@PAEK@Z@std@@PAX@std@@@1@PAU?$_Tree_node@U?$pair@$$CBKP8CDPCoreSrvr@@AEXAAVCAr@@PAEK@Z@std@@PAX@1@$$QAU?$pair@$$CBKP8CDPCoreSrvr@@AEXAAVCAr@@PAEK@Z@1@@Z DD 019930522H
	DD	01H
	DD	FLAT:__unwindtable$??$?0U?$pair@$$CBKP8CDPCoreSrvr@@AEXAAVCAr@@PAEK@Z@std@@@?$_Tree_temp_node@V?$allocator@U?$_Tree_node@U?$pair@$$CBKP8CDPCoreSrvr@@AEXAAVCAr@@PAEK@Z@std@@PAX@std@@@std@@@std@@QAE@AAV?$allocator@U?$_Tree_node@U?$pair@$$CBKP8CDPCoreSrvr@@AEXAAVCAr@@PAEK@Z@std@@PAX@std@@@1@PAU?$_Tree_node@U?$pair@$$CBKP8CDPCoreSrvr@@AEXAAVCAr@@PAEK@Z@std@@PAX@1@$$QAU?$pair@$$CBKP8CDPCoreSrvr@@AEXAAVCAr@@PAEK@Z@1@@Z
	DD	2 DUP(00H)
	DD	2 DUP(00H)
	DD	00H
	DD	01H
xdata$x	ENDS
;	COMDAT xdata$x
xdata$x	SEGMENT
__unwindtable$??0?$_Tree_temp_node_alloc@V?$allocator@U?$_Tree_node@U?$pair@$$CBKP8CDPCoreSrvr@@AEXAAVCAr@@PAEK@Z@std@@PAX@std@@@std@@@std@@QAE@AAV?$allocator@U?$_Tree_node@U?$pair@$$CBKP8CDPCoreSrvr@@AEXAAVCAr@@PAEK@Z@std@@PAX@std@@@1@@Z DD 0ffffffffH
	DD	FLAT:__unwindfunclet$??0?$_Tree_temp_node_alloc@V?$allocator@U?$_Tree_node@U?$pair@$$CBKP8CDPCoreSrvr@@AEXAAVCAr@@PAEK@Z@std@@PAX@std@@@std@@@std@@QAE@AAV?$allocator@U?$_Tree_node@U?$pair@$$CBKP8CDPCoreSrvr@@AEXAAVCAr@@PAEK@Z@std@@PAX@std@@@1@@Z$0
__ehfuncinfo$??0?$_Tree_temp_node_alloc@V?$allocator@U?$_Tree_node@U?$pair@$$CBKP8CDPCoreSrvr@@AEXAAVCAr@@PAEK@Z@std@@PAX@std@@@std@@@std@@QAE@AAV?$allocator@U?$_Tree_node@U?$pair@$$CBKP8CDPCoreSrvr@@AEXAAVCAr@@PAEK@Z@std@@PAX@std@@@1@@Z DD 019930522H
	DD	01H
	DD	FLAT:__unwindtable$??0?$_Tree_temp_node_alloc@V?$allocator@U?$_Tree_node@U?$pair@$$CBKP8CDPCoreSrvr@@AEXAAVCAr@@PAEK@Z@std@@PAX@std@@@std@@@std@@QAE@AAV?$allocator@U?$_Tree_node@U?$pair@$$CBKP8CDPCoreSrvr@@AEXAAVCAr@@PAEK@Z@std@@PAX@std@@@1@@Z
	DD	2 DUP(00H)
	DD	2 DUP(00H)
	DD	00H
	DD	01H
xdata$x	ENDS
;	COMDAT xdata$x
xdata$x	SEGMENT
__unwindtable$??$_Emplace@U?$pair@$$CBKP8CDPCoreSrvr@@AEXAAVCAr@@PAEK@Z@std@@@?$_Tree@V?$_Tmap_traits@KP8CDPCoreSrvr@@AEXAAVCAr@@PAEK@ZU?$less@K@std@@V?$allocator@U?$pair@$$CBKP8CDPCoreSrvr@@AEXAAVCAr@@PAEK@Z@std@@@4@$0A@@std@@@std@@IAE?AU?$pair@PAU?$_Tree_node@U?$pair@$$CBKP8CDPCoreSrvr@@AEXAAVCAr@@PAEK@Z@std@@PAX@std@@_N@1@$$QAU?$pair@$$CBKP8CDPCoreSrvr@@AEXAAVCAr@@PAEK@Z@1@@Z DD 0ffffffffH
	DD	FLAT:__unwindfunclet$??$_Emplace@U?$pair@$$CBKP8CDPCoreSrvr@@AEXAAVCAr@@PAEK@Z@std@@@?$_Tree@V?$_Tmap_traits@KP8CDPCoreSrvr@@AEXAAVCAr@@PAEK@ZU?$less@K@std@@V?$allocator@U?$pair@$$CBKP8CDPCoreSrvr@@AEXAAVCAr@@PAEK@Z@std@@@4@$0A@@std@@@std@@IAE?AU?$pair@PAU?$_Tree_node@U?$pair@$$CBKP8CDPCoreSrvr@@AEXAAVCAr@@PAEK@Z@std@@PAX@std@@_N@1@$$QAU?$pair@$$CBKP8CDPCoreSrvr@@AEXAAVCAr@@PAEK@Z@1@@Z$2
__ehfuncinfo$??$_Emplace@U?$pair@$$CBKP8CDPCoreSrvr@@AEXAAVCAr@@PAEK@Z@std@@@?$_Tree@V?$_Tmap_traits@KP8CDPCoreSrvr@@AEXAAVCAr@@PAEK@ZU?$less@K@std@@V?$allocator@U?$pair@$$CBKP8CDPCoreSrvr@@AEXAAVCAr@@PAEK@Z@std@@@4@$0A@@std@@@std@@IAE?AU?$pair@PAU?$_Tree_node@U?$pair@$$CBKP8CDPCoreSrvr@@AEXAAVCAr@@PAEK@Z@std@@PAX@std@@_N@1@$$QAU?$pair@$$CBKP8CDPCoreSrvr@@AEXAAVCAr@@PAEK@Z@1@@Z DD 019930522H
	DD	01H
	DD	FLAT:__unwindtable$??$_Emplace@U?$pair@$$CBKP8CDPCoreSrvr@@AEXAAVCAr@@PAEK@Z@std@@@?$_Tree@V?$_Tmap_traits@KP8CDPCoreSrvr@@AEXAAVCAr@@PAEK@ZU?$less@K@std@@V?$allocator@U?$pair@$$CBKP8CDPCoreSrvr@@AEXAAVCAr@@PAEK@Z@std@@@4@$0A@@std@@@std@@IAE?AU?$pair@PAU?$_Tree_node@U?$pair@$$CBKP8CDPCoreSrvr@@AEXAAVCAr@@PAEK@Z@std@@PAX@std@@_N@1@$$QAU?$pair@$$CBKP8CDPCoreSrvr@@AEXAAVCAr@@PAEK@Z@1@@Z
	DD	2 DUP(00H)
	DD	2 DUP(00H)
	DD	00H
	DD	01H
xdata$x	ENDS
;	COMDAT xdata$x
xdata$x	SEGMENT
__unwindtable$??$insert@$0A@$0A@@?$_Tree@V?$_Tmap_traits@KP8CDPCoreSrvr@@AEXAAVCAr@@PAEK@ZU?$less@K@std@@V?$allocator@U?$pair@$$CBKP8CDPCoreSrvr@@AEXAAVCAr@@PAEK@Z@std@@@4@$0A@@std@@@std@@QAE?AU?$pair@V?$_Tree_iterator@V?$_Tree_val@U?$_Tree_simple_types@U?$pair@$$CBKP8CDPCoreSrvr@@AEXAAVCAr@@PAEK@Z@std@@@std@@@std@@@std@@_N@1@$$QAU?$pair@$$CBKP8CDPCoreSrvr@@AEXAAVCAr@@PAEK@Z@1@@Z DD 0ffffffffH
	DD	FLAT:__unwindfunclet$??$insert@$0A@$0A@@?$_Tree@V?$_Tmap_traits@KP8CDPCoreSrvr@@AEXAAVCAr@@PAEK@ZU?$less@K@std@@V?$allocator@U?$pair@$$CBKP8CDPCoreSrvr@@AEXAAVCAr@@PAEK@Z@std@@@4@$0A@@std@@@std@@QAE?AU?$pair@V?$_Tree_iterator@V?$_Tree_val@U?$_Tree_simple_types@U?$pair@$$CBKP8CDPCoreSrvr@@AEXAAVCAr@@PAEK@Z@std@@@std@@@std@@@std@@_N@1@$$QAU?$pair@$$CBKP8CDPCoreSrvr@@AEXAAVCAr@@PAEK@Z@1@@Z$2
__ehfuncinfo$??$insert@$0A@$0A@@?$_Tree@V?$_Tmap_traits@KP8CDPCoreSrvr@@AEXAAVCAr@@PAEK@ZU?$less@K@std@@V?$allocator@U?$pair@$$CBKP8CDPCoreSrvr@@AEXAAVCAr@@PAEK@Z@std@@@4@$0A@@std@@@std@@QAE?AU?$pair@V?$_Tree_iterator@V?$_Tree_val@U?$_Tree_simple_types@U?$pair@$$CBKP8CDPCoreSrvr@@AEXAAVCAr@@PAEK@Z@std@@@std@@@std@@@std@@_N@1@$$QAU?$pair@$$CBKP8CDPCoreSrvr@@AEXAAVCAr@@PAEK@Z@1@@Z DD 019930522H
	DD	01H
	DD	FLAT:__unwindtable$??$insert@$0A@$0A@@?$_Tree@V?$_Tmap_traits@KP8CDPCoreSrvr@@AEXAAVCAr@@PAEK@ZU?$less@K@std@@V?$allocator@U?$pair@$$CBKP8CDPCoreSrvr@@AEXAAVCAr@@PAEK@Z@std@@@4@$0A@@std@@@std@@QAE?AU?$pair@V?$_Tree_iterator@V?$_Tree_val@U?$_Tree_simple_types@U?$pair@$$CBKP8CDPCoreSrvr@@AEXAAVCAr@@PAEK@Z@std@@@std@@@std@@@std@@_N@1@$$QAU?$pair@$$CBKP8CDPCoreSrvr@@AEXAAVCAr@@PAEK@Z@1@@Z
	DD	2 DUP(00H)
	DD	2 DUP(00H)
	DD	00H
	DD	01H
xdata$x	ENDS
;	COMDAT xdata$x
xdata$x	SEGMENT
__unwindtable$?SendRemovePlayerFriend@CDPCoreSrvr@@QAEXKK@Z DD 0ffffffffH
	DD	FLAT:__unwindfunclet$?SendRemovePlayerFriend@CDPCoreSrvr@@QAEXKK@Z$0
__ehfuncinfo$?SendRemovePlayerFriend@CDPCoreSrvr@@QAEXKK@Z DD 019930522H
	DD	01H
	DD	FLAT:__unwindtable$?SendRemovePlayerFriend@CDPCoreSrvr@@QAEXKK@Z
	DD	2 DUP(00H)
	DD	2 DUP(00H)
	DD	00H
	DD	01H
xdata$x	ENDS
;	COMDAT xdata$x
xdata$x	SEGMENT
__unwindtable$?SendEventLuaNotice@CDPCoreSrvr@@QAEXXZ DD 0ffffffffH
	DD	FLAT:__unwindfunclet$?SendEventLuaNotice@CDPCoreSrvr@@QAEXXZ$0
	DD	00H
	DD	FLAT:__unwindfunclet$?SendEventLuaNotice@CDPCoreSrvr@@QAEXXZ$1
__ehfuncinfo$?SendEventLuaNotice@CDPCoreSrvr@@QAEXXZ DD 019930522H
	DD	02H
	DD	FLAT:__unwindtable$?SendEventLuaNotice@CDPCoreSrvr@@QAEXXZ
	DD	2 DUP(00H)
	DD	2 DUP(00H)
	DD	00H
	DD	01H
xdata$x	ENDS
;	COMDAT xdata$x
xdata$x	SEGMENT
__unwindtable$?SendUpdatePlayerData@CDPCoreSrvr@@QAEXKPAU_PlayerData@@@Z DD 0ffffffffH
	DD	FLAT:__unwindfunclet$?SendUpdatePlayerData@CDPCoreSrvr@@QAEXKPAU_PlayerData@@@Z$0
__ehfuncinfo$?SendUpdatePlayerData@CDPCoreSrvr@@QAEXKPAU_PlayerData@@@Z DD 019930522H
	DD	01H
	DD	FLAT:__unwindtable$?SendUpdatePlayerData@CDPCoreSrvr@@QAEXKPAU_PlayerData@@@Z
	DD	2 DUP(00H)
	DD	2 DUP(00H)
	DD	00H
	DD	01H
xdata$x	ENDS
;	COMDAT xdata$x
xdata$x	SEGMENT
__unwindtable$?SendSetPlayerName@CDPCoreSrvr@@QAEXKPBDKH@Z DD 0ffffffffH
	DD	FLAT:__unwindfunclet$?SendSetPlayerName@CDPCoreSrvr@@QAEXKPBDKH@Z$0
__ehfuncinfo$?SendSetPlayerName@CDPCoreSrvr@@QAEXKPBDKH@Z DD 019930522H
	DD	01H
	DD	FLAT:__unwindtable$?SendSetPlayerName@CDPCoreSrvr@@QAEXKPBDKH@Z
	DD	2 DUP(00H)
	DD	2 DUP(00H)
	DD	00H
	DD	01H
xdata$x	ENDS
;	COMDAT xdata$x
xdata$x	SEGMENT
__unwindtable$?SendBuyingInfo@CDPCoreSrvr@@QAEXPAU_BUYING_INFO2@@@Z DD 0ffffffffH
	DD	FLAT:__unwindfunclet$?SendBuyingInfo@CDPCoreSrvr@@QAEXPAU_BUYING_INFO2@@@Z$0
__ehfuncinfo$?SendBuyingInfo@CDPCoreSrvr@@QAEXPAU_BUYING_INFO2@@@Z DD 019930522H
	DD	01H
	DD	FLAT:__unwindtable$?SendBuyingInfo@CDPCoreSrvr@@QAEXPAU_BUYING_INFO2@@@Z
	DD	2 DUP(00H)
	DD	2 DUP(00H)
	DD	00H
	DD	01H
xdata$x	ENDS
;	COMDAT xdata$x
xdata$x	SEGMENT
__unwindtable$?SendMemberTime@CDPCoreSrvr@@QAEXKPBD@Z DD 0ffffffffH
	DD	FLAT:__unwindfunclet$?SendMemberTime@CDPCoreSrvr@@QAEXKPBD@Z$0
__ehfuncinfo$?SendMemberTime@CDPCoreSrvr@@QAEXKPBD@Z DD 019930522H
	DD	01H
	DD	FLAT:__unwindtable$?SendMemberTime@CDPCoreSrvr@@QAEXKPBD@Z
	DD	2 DUP(00H)
	DD	2 DUP(00H)
	DD	00H
	DD	01H
xdata$x	ENDS
;	COMDAT xdata$x
xdata$x	SEGMENT
__unwindtable$?SendDelPlayer@CDPCoreSrvr@@QAEXKK@Z DD 0ffffffffH
	DD	FLAT:__unwindfunclet$?SendDelPlayer@CDPCoreSrvr@@QAEXKK@Z$0
__ehfuncinfo$?SendDelPlayer@CDPCoreSrvr@@QAEXKK@Z DD 019930522H
	DD	01H
	DD	FLAT:__unwindtable$?SendDelPlayer@CDPCoreSrvr@@QAEXKK@Z
	DD	2 DUP(00H)
	DD	2 DUP(00H)
	DD	00H
	DD	01H
xdata$x	ENDS
;	COMDAT xdata$x
xdata$x	SEGMENT
__unwindtable$?SendAddVoteResult@CDPCoreSrvr@@QAEXAAUVOTE_INSERTED_INFO@@@Z DD 0ffffffffH
	DD	FLAT:__unwindfunclet$?SendAddVoteResult@CDPCoreSrvr@@QAEXAAUVOTE_INSERTED_INFO@@@Z$0
__ehfuncinfo$?SendAddVoteResult@CDPCoreSrvr@@QAEXAAUVOTE_INSERTED_INFO@@@Z DD 019930522H
	DD	01H
	DD	FLAT:__unwindtable$?SendAddVoteResult@CDPCoreSrvr@@QAEXAAUVOTE_INSERTED_INFO@@@Z
	DD	2 DUP(00H)
	DD	2 DUP(00H)
	DD	00H
	DD	01H
xdata$x	ENDS
;	COMDAT xdata$x
xdata$x	SEGMENT
__unwindtable$?OnAddConnection@CDPCoreSrvr@@QAEXK@Z DD 0ffffffffH
	DD	FLAT:__unwindfunclet$?OnAddConnection@CDPCoreSrvr@@QAEXK@Z$0
__ehfuncinfo$?OnAddConnection@CDPCoreSrvr@@QAEXK@Z DD 019930522H
	DD	01H
	DD	FLAT:__unwindtable$?OnAddConnection@CDPCoreSrvr@@QAEXK@Z
	DD	2 DUP(00H)
	DD	2 DUP(00H)
	DD	00H
	DD	01H
xdata$x	ENDS
;	COMDAT xdata$x
xdata$x	SEGMENT
__unwindtable$?SendTagResult@CDPCoreSrvr@@QAEXKE@Z DD 0ffffffffH
	DD	FLAT:__unwindfunclet$?SendTagResult@CDPCoreSrvr@@QAEXKE@Z$0
__ehfuncinfo$?SendTagResult@CDPCoreSrvr@@QAEXKE@Z DD 019930522H
	DD	01H
	DD	FLAT:__unwindtable$?SendTagResult@CDPCoreSrvr@@QAEXKE@Z
	DD	2 DUP(00H)
	DD	2 DUP(00H)
	DD	00H
	DD	01H
xdata$x	ENDS
;	COMDAT xdata$x
xdata$x	SEGMENT
__unwindtable$?SendPartyName@CDPCoreSrvr@@QAEXK@Z DD 0ffffffffH
	DD	FLAT:__unwindfunclet$?SendPartyName@CDPCoreSrvr@@QAEXK@Z$0
__ehfuncinfo$?SendPartyName@CDPCoreSrvr@@QAEXK@Z DD 019930522H
	DD	01H
	DD	FLAT:__unwindtable$?SendPartyName@CDPCoreSrvr@@QAEXK@Z
	DD	2 DUP(00H)
	DD	2 DUP(00H)
	DD	00H
	DD	01H
xdata$x	ENDS
;	COMDAT xdata$x
xdata$x	SEGMENT
__unwindtable$?UserMessageHandler@CDPCoreSrvr@@UAEXPAUDPMSG_GENERIC@@KK@Z DD 0ffffffffH
	DD	FLAT:__unwindfunclet$?UserMessageHandler@CDPCoreSrvr@@UAEXPAUDPMSG_GENERIC@@KK@Z$0
__ehfuncinfo$?UserMessageHandler@CDPCoreSrvr@@UAEXPAUDPMSG_GENERIC@@KK@Z DD 019930522H
	DD	01H
	DD	FLAT:__unwindtable$?UserMessageHandler@CDPCoreSrvr@@UAEXPAUDPMSG_GENERIC@@KK@Z
	DD	2 DUP(00H)
	DD	2 DUP(00H)
	DD	00H
	DD	01H
xdata$x	ENDS
;	COMDAT xdata$x
xdata$x	SEGMENT
__ehfuncinfo$??0CDPCoreSrvr@@QAE@XZ DD 019930522H
	DD	0cH
	DD	FLAT:__unwindtable$??0CDPCoreSrvr@@QAE@XZ
	DD	2 DUP(00H)
	DD	2 DUP(00H)
	DD	00H
	DD	01H
__unwindtable$??0CDPCoreSrvr@@QAE@XZ DD 0ffffffffH
	DD	FLAT:__unwindfunclet$??0CDPCoreSrvr@@QAE@XZ$0
	DD	00H
	DD	FLAT:__unwindfunclet$??0CDPCoreSrvr@@QAE@XZ$1
	DD	01H
	DD	FLAT:__unwindfunclet$??0CDPCoreSrvr@@QAE@XZ$5
	DD	01H
	DD	FLAT:__unwindfunclet$??0CDPCoreSrvr@@QAE@XZ$10
	DD	01H
	DD	FLAT:__unwindfunclet$??0CDPCoreSrvr@@QAE@XZ$15
	DD	01H
	DD	FLAT:__unwindfunclet$??0CDPCoreSrvr@@QAE@XZ$20
	DD	01H
	DD	FLAT:__unwindfunclet$??0CDPCoreSrvr@@QAE@XZ$25
	DD	01H
	DD	FLAT:__unwindfunclet$??0CDPCoreSrvr@@QAE@XZ$30
	DD	01H
	DD	FLAT:__unwindfunclet$??0CDPCoreSrvr@@QAE@XZ$35
	DD	01H
	DD	FLAT:__unwindfunclet$??0CDPCoreSrvr@@QAE@XZ$40
	DD	01H
	DD	FLAT:__unwindfunclet$??0CDPCoreSrvr@@QAE@XZ$45
	DD	01H
	DD	FLAT:__unwindfunclet$??0CDPCoreSrvr@@QAE@XZ$50
xdata$x	ENDS
; Function compile flags: /Ogtp
; File C:\Program Files\Microsoft Visual Studio\2022\Professional\VC\Tools\MSVC\14.44.35207\include\xtree
; File C:\Program Files\Microsoft Visual Studio\2022\Professional\VC\Tools\MSVC\14.44.35207\include\utility
; File C:\Program Files\Microsoft Visual Studio\2022\Professional\VC\Tools\MSVC\14.44.35207\include\xmemory
; File C:\Program Files\Microsoft Visual Studio\2022\Professional\VC\Tools\MSVC\14.44.35207\include\xtree
;	COMDAT ??$_Erase_tree@V?$allocator@U?$_Tree_node@U?$pair@$$CBKP8CDPCoreSrvr@@AEXAAVCAr@@PAEK@Z@std@@PAX@std@@@std@@@?$_Tree_val@U?$_Tree_simple_types@U?$pair@$$CBKP8CDPCoreSrvr@@AEXAAVCAr@@PAEK@Z@std@@@std@@@std@@QAEXAAV?$allocator@U?$_Tree_node@U?$pair@$$CBKP8CDPCoreSrvr@@AEXAAVCAr@@PAEK@Z@std@@PAX@std@@@1@PAU?$_Tree_node@U?$pair@$$CBKP8CDPCoreSrvr@@AEXAAVCAr@@PAEK@Z@std@@PAX@1@@Z
_TEXT	SEGMENT
__Al$ = 8						; size = 4
__Rootnode$ = 12					; size = 4
??$_Erase_tree@V?$allocator@U?$_Tree_node@U?$pair@$$CBKP8CDPCoreSrvr@@AEXAAVCAr@@PAEK@Z@std@@PAX@std@@@std@@@?$_Tree_val@U?$_Tree_simple_types@U?$pair@$$CBKP8CDPCoreSrvr@@AEXAAVCAr@@PAEK@Z@std@@@std@@@std@@QAEXAAV?$allocator@U?$_Tree_node@U?$pair@$$CBKP8CDPCoreSrvr@@AEXAAVCAr@@PAEK@Z@std@@PAX@std@@@1@PAU?$_Tree_node@U?$pair@$$CBKP8CDPCoreSrvr@@AEXAAVCAr@@PAEK@Z@std@@PAX@1@@Z PROC ; std::_Tree_val<std::_Tree_simple_types<std::pair<unsigned long const ,void (__thiscall CDPCoreSrvr::*)(CAr &,unsigned char *,unsigned long)> > >::_Erase_tree<std::allocator<std::_Tree_node<std::pair<unsigned long const ,void (__thiscall CDPCoreSrvr::*)(CAr &,unsigned char *,unsigned long)>,void *> > >, COMDAT
; _this$ = ecx

; 767  :     void _Erase_tree(_Alnode& _Al, _Nodeptr _Rootnode) noexcept {

  00000	55		 push	 ebp
  00001	8b ec		 mov	 ebp, esp
  00003	53		 push	 ebx
  00004	56		 push	 esi

; 768  :         while (!_Rootnode->_Isnil) { // free subtrees, then node

  00005	8b 75 0c	 mov	 esi, DWORD PTR __Rootnode$[ebp]
  00008	8b d9		 mov	 ebx, ecx
  0000a	80 7e 0d 00	 cmp	 BYTE PTR [esi+13], 0
  0000e	75 25		 jne	 SHORT $LN34@Erase_tree
  00010	57		 push	 edi
  00011	8b 7d 08	 mov	 edi, DWORD PTR __Al$[ebp]
$LL2@Erase_tree:

; 769  :             _Erase_tree(_Al, _Rootnode->_Right);

  00014	ff 76 08	 push	 DWORD PTR [esi+8]
  00017	8b cb		 mov	 ecx, ebx
  00019	57		 push	 edi
  0001a	e8 00 00 00 00	 call	 ??$_Erase_tree@V?$allocator@U?$_Tree_node@U?$pair@$$CBKP8CDPCoreSrvr@@AEXAAVCAr@@PAEK@Z@std@@PAX@std@@@std@@@?$_Tree_val@U?$_Tree_simple_types@U?$pair@$$CBKP8CDPCoreSrvr@@AEXAAVCAr@@PAEK@Z@std@@@std@@@std@@QAEXAAV?$allocator@U?$_Tree_node@U?$pair@$$CBKP8CDPCoreSrvr@@AEXAAVCAr@@PAEK@Z@std@@PAX@std@@@1@PAU?$_Tree_node@U?$pair@$$CBKP8CDPCoreSrvr@@AEXAAVCAr@@PAEK@Z@std@@PAX@1@@Z ; std::_Tree_val<std::_Tree_simple_types<std::pair<unsigned long const ,void (__thiscall CDPCoreSrvr::*)(CAr &,unsigned char *,unsigned long)> > >::_Erase_tree<std::allocator<std::_Tree_node<std::pair<unsigned long const ,void (__thiscall CDPCoreSrvr::*)(CAr &,unsigned char *,unsigned long)>,void *> > >
; File C:\Program Files\Microsoft Visual Studio\2022\Professional\VC\Tools\MSVC\14.44.35207\include\utility

; 773  :     _Ty _Old_val = static_cast<_Ty&&>(_Val);

  0001f	8b c6		 mov	 eax, esi

; 774  :     _Val         = static_cast<_Other&&>(_New_val);

  00021	8b 36		 mov	 esi, DWORD PTR [esi]
; File C:\Program Files\Microsoft Visual Studio\2022\Professional\VC\Tools\MSVC\14.44.35207\include\xmemory

; 289  :         ::operator delete(_Ptr, _Bytes);

  00023	6a 18		 push	 24			; 00000018H
  00025	50		 push	 eax
  00026	e8 00 00 00 00	 call	 ??3@YAXPAXI@Z		; operator delete
  0002b	83 c4 08	 add	 esp, 8
; File C:\Program Files\Microsoft Visual Studio\2022\Professional\VC\Tools\MSVC\14.44.35207\include\xtree

; 768  :         while (!_Rootnode->_Isnil) { // free subtrees, then node

  0002e	80 7e 0d 00	 cmp	 BYTE PTR [esi+13], 0
  00032	74 e0		 je	 SHORT $LL2@Erase_tree
  00034	5f		 pop	 edi
$LN34@Erase_tree:
  00035	5e		 pop	 esi

; 770  :             _Alnode::value_type::_Freenode(_Al, _STD exchange(_Rootnode, _Rootnode->_Left));
; 771  :         }
; 772  :     }

  00036	5b		 pop	 ebx
  00037	5d		 pop	 ebp
  00038	c2 08 00	 ret	 8
??$_Erase_tree@V?$allocator@U?$_Tree_node@U?$pair@$$CBKP8CDPCoreSrvr@@AEXAAVCAr@@PAEK@Z@std@@PAX@std@@@std@@@?$_Tree_val@U?$_Tree_simple_types@U?$pair@$$CBKP8CDPCoreSrvr@@AEXAAVCAr@@PAEK@Z@std@@@std@@@std@@QAEXAAV?$allocator@U?$_Tree_node@U?$pair@$$CBKP8CDPCoreSrvr@@AEXAAVCAr@@PAEK@Z@std@@PAX@std@@@1@PAU?$_Tree_node@U?$pair@$$CBKP8CDPCoreSrvr@@AEXAAVCAr@@PAEK@Z@std@@PAX@1@@Z ENDP ; std::_Tree_val<std::_Tree_simple_types<std::pair<unsigned long const ,void (__thiscall CDPCoreSrvr::*)(CAr &,unsigned char *,unsigned long)> > >::_Erase_tree<std::allocator<std::_Tree_node<std::pair<unsigned long const ,void (__thiscall CDPCoreSrvr::*)(CAr &,unsigned char *,unsigned long)>,void *> > >
_TEXT	ENDS
; Function compile flags: /Ogtp
; File C:\Program Files\Microsoft Visual Studio\2022\Professional\VC\Tools\MSVC\14.44.35207\include\xmemory
;	COMDAT ??1?$_Alloc_construct_ptr@V?$allocator@U?$_Tree_node@U?$pair@$$CBKP8CDPCoreSrvr@@AEXAAVCAr@@PAEK@Z@std@@PAX@std@@@std@@@std@@QAE@XZ
_TEXT	SEGMENT
??1?$_Alloc_construct_ptr@V?$allocator@U?$_Tree_node@U?$pair@$$CBKP8CDPCoreSrvr@@AEXAAVCAr@@PAEK@Z@std@@PAX@std@@@std@@@std@@QAE@XZ PROC ; std::_Alloc_construct_ptr<std::allocator<std::_Tree_node<std::pair<unsigned long const ,void (__thiscall CDPCoreSrvr::*)(CAr &,unsigned char *,unsigned long)>,void *> > >::~_Alloc_construct_ptr<std::allocator<std::_Tree_node<std::pair<unsigned long const ,void (__thiscall CDPCoreSrvr::*)(CAr &,unsigned char *,unsigned long)>,void *> > >, COMDAT
; _this$ = ecx

; 1172 :         if (_Ptr) {

  00000	8b 41 04	 mov	 eax, DWORD PTR [ecx+4]
  00003	85 c0		 test	 eax, eax
  00005	74 0b		 je	 SHORT $LN10@Alloc_cons

; 289  :         ::operator delete(_Ptr, _Bytes);

  00007	6a 18		 push	 24			; 00000018H
  00009	50		 push	 eax
  0000a	e8 00 00 00 00	 call	 ??3@YAXPAXI@Z		; operator delete
  0000f	83 c4 08	 add	 esp, 8
$LN10@Alloc_cons:

; 1173 :             _Al.deallocate(_Ptr, 1);
; 1174 :         }
; 1175 :     }

  00012	c3		 ret	 0
??1?$_Alloc_construct_ptr@V?$allocator@U?$_Tree_node@U?$pair@$$CBKP8CDPCoreSrvr@@AEXAAVCAr@@PAEK@Z@std@@PAX@std@@@std@@@std@@QAE@XZ ENDP ; std::_Alloc_construct_ptr<std::allocator<std::_Tree_node<std::pair<unsigned long const ,void (__thiscall CDPCoreSrvr::*)(CAr &,unsigned char *,unsigned long)>,void *> > >::~_Alloc_construct_ptr<std::allocator<std::_Tree_node<std::pair<unsigned long const ,void (__thiscall CDPCoreSrvr::*)(CAr &,unsigned char *,unsigned long)>,void *> > >
_TEXT	ENDS
; Function compile flags: /Ogtp
; File C:\Program Files\Microsoft Visual Studio\2022\Professional\VC\Tools\MSVC\14.44.35207\include\xtree
; File C:\Program Files\Microsoft Visual Studio\2022\Professional\VC\Tools\MSVC\14.44.35207\include\type_traits
; File C:\Program Files\Microsoft Visual Studio\2022\Professional\VC\Tools\MSVC\14.44.35207\include\xtree
; File C:\Program Files\Microsoft Visual Studio\2022\Professional\VC\Tools\MSVC\14.44.35207\include\type_traits
; File C:\Program Files\Microsoft Visual Studio\2022\Professional\VC\Tools\MSVC\14.44.35207\include\xtree
;	COMDAT ??$_Find_lower_bound@K@?$_Tree@V?$_Tmap_traits@KP8CDPCoreSrvr@@AEXAAVCAr@@PAEK@ZU?$less@K@std@@V?$allocator@U?$pair@$$CBKP8CDPCoreSrvr@@AEXAAVCAr@@PAEK@Z@std@@@4@$0A@@std@@@std@@IBE?AU?$_Tree_find_result@PAU?$_Tree_node@U?$pair@$$CBKP8CDPCoreSrvr@@AEXAAVCAr@@PAEK@Z@std@@PAX@std@@@1@ABK@Z
_TEXT	SEGMENT
___$ReturnUdt$ = 8					; size = 4
__Keyval$ = 12						; size = 4
??$_Find_lower_bound@K@?$_Tree@V?$_Tmap_traits@KP8CDPCoreSrvr@@AEXAAVCAr@@PAEK@ZU?$less@K@std@@V?$allocator@U?$pair@$$CBKP8CDPCoreSrvr@@AEXAAVCAr@@PAEK@Z@std@@@4@$0A@@std@@@std@@IBE?AU?$_Tree_find_result@PAU?$_Tree_node@U?$pair@$$CBKP8CDPCoreSrvr@@AEXAAVCAr@@PAEK@Z@std@@PAX@std@@@1@ABK@Z PROC ; std::_Tree<std::_Tmap_traits<unsigned long,void (__thiscall CDPCoreSrvr::*)(CAr &,unsigned char *,unsigned long),std::less<unsigned long>,std::allocator<std::pair<unsigned long const ,void (__thiscall CDPCoreSrvr::*)(CAr &,unsigned char *,unsigned long)> >,0> >::_Find_lower_bound<unsigned long>, COMDAT
; _this$ = ecx

; 1628 :     _Tree_find_result<_Nodeptr> _Find_lower_bound(const _Keyty& _Keyval) const {

  00000	55		 push	 ebp
  00001	8b ec		 mov	 ebp, esp

; 1629 :         const auto _Scary = _Get_scary();
; 1630 :         _Tree_find_result<_Nodeptr> _Result{{_Scary->_Myhead->_Parent, _Tree_child::_Right}, _Scary->_Myhead};

  00003	8b 09		 mov	 ecx, DWORD PTR [ecx]
  00005	8b 55 08	 mov	 edx, DWORD PTR ___$ReturnUdt$[ebp]
  00008	8b 41 04	 mov	 eax, DWORD PTR [ecx+4]
  0000b	89 02		 mov	 DWORD PTR [edx], eax
  0000d	c7 42 04 00 00
	00 00		 mov	 DWORD PTR [edx+4], 0
  00014	89 4a 08	 mov	 DWORD PTR [edx+8], ecx

; 1631 :         _Nodeptr _Trynode = _Result._Location._Parent;
; 1632 :         while (!_Trynode->_Isnil) {

  00017	80 78 0d 00	 cmp	 BYTE PTR [eax+13], 0
  0001b	75 28		 jne	 SHORT $LN13@Find_lower
; File C:\Program Files\Microsoft Visual Studio\2022\Professional\VC\Tools\MSVC\14.44.35207\include\type_traits

; 2380 :         return _Left < _Right;

  0001d	8b 4d 0c	 mov	 ecx, DWORD PTR __Keyval$[ebp]
  00020	56		 push	 esi
  00021	8b 31		 mov	 esi, DWORD PTR [ecx]
$LL2@Find_lower:
; File C:\Program Files\Microsoft Visual Studio\2022\Professional\VC\Tools\MSVC\14.44.35207\include\xtree

; 1633 :             _Result._Location._Parent = _Trynode;

  00023	89 02		 mov	 DWORD PTR [edx], eax
; File C:\Program Files\Microsoft Visual Studio\2022\Professional\VC\Tools\MSVC\14.44.35207\include\type_traits

; 2380 :         return _Left < _Right;

  00025	39 70 10	 cmp	 DWORD PTR [eax+16], esi
; File C:\Program Files\Microsoft Visual Studio\2022\Professional\VC\Tools\MSVC\14.44.35207\include\xtree

; 1634 :             if (_DEBUG_LT_PRED(_Getcomp(), _Traits::_Kfn(_Trynode->_Myval), _Keyval)) {

  00028	73 07		 jae	 SHORT $LN4@Find_lower

; 1635 :                 _Result._Location._Child = _Tree_child::_Right;
; 1636 :                 _Trynode                 = _Trynode->_Right;

  0002a	8b 40 08	 mov	 eax, DWORD PTR [eax+8]
  0002d	33 c9		 xor	 ecx, ecx

; 1637 :             } else {

  0002f	eb 0a		 jmp	 SHORT $LN5@Find_lower
$LN4@Find_lower:

; 1638 :                 _Result._Location._Child = _Tree_child::_Left;
; 1639 :                 _Result._Bound           = _Trynode;

  00031	89 42 08	 mov	 DWORD PTR [edx+8], eax

; 1640 :                 _Trynode                 = _Trynode->_Left;

  00034	b9 01 00 00 00	 mov	 ecx, 1
  00039	8b 00		 mov	 eax, DWORD PTR [eax]
$LN5@Find_lower:

; 1631 :         _Nodeptr _Trynode = _Result._Location._Parent;
; 1632 :         while (!_Trynode->_Isnil) {

  0003b	89 4a 04	 mov	 DWORD PTR [edx+4], ecx
  0003e	80 78 0d 00	 cmp	 BYTE PTR [eax+13], 0
  00042	74 df		 je	 SHORT $LL2@Find_lower
  00044	5e		 pop	 esi
$LN13@Find_lower:

; 1641 :             }
; 1642 :         }
; 1643 : 
; 1644 :         return _Result;
; 1645 :     }

  00045	8b c2		 mov	 eax, edx
  00047	5d		 pop	 ebp
  00048	c2 08 00	 ret	 8
??$_Find_lower_bound@K@?$_Tree@V?$_Tmap_traits@KP8CDPCoreSrvr@@AEXAAVCAr@@PAEK@ZU?$less@K@std@@V?$allocator@U?$pair@$$CBKP8CDPCoreSrvr@@AEXAAVCAr@@PAEK@Z@std@@@4@$0A@@std@@@std@@IBE?AU?$_Tree_find_result@PAU?$_Tree_node@U?$pair@$$CBKP8CDPCoreSrvr@@AEXAAVCAr@@PAEK@Z@std@@PAX@std@@@1@ABK@Z ENDP ; std::_Tree<std::_Tmap_traits<unsigned long,void (__thiscall CDPCoreSrvr::*)(CAr &,unsigned char *,unsigned long),std::less<unsigned long>,std::allocator<std::pair<unsigned long const ,void (__thiscall CDPCoreSrvr::*)(CAr &,unsigned char *,unsigned long)> >,0> >::_Find_lower_bound<unsigned long>
_TEXT	ENDS
; Function compile flags: /Ogtp
;	COMDAT ??__Fg_dpCoreSrvr@@YAXXZ
text$yd	SEGMENT
??__Fg_dpCoreSrvr@@YAXXZ PROC				; `dynamic atexit destructor for 'g_dpCoreSrvr'', COMDAT
  00000	b9 00 00 00 00	 mov	 ecx, OFFSET ?g_dpCoreSrvr@@3VCDPCoreSrvr@@A ; g_dpCoreSrvr
  00005	e9 00 00 00 00	 jmp	 ??1CDPCoreSrvr@@UAE@XZ	; CDPCoreSrvr::~CDPCoreSrvr
??__Fg_dpCoreSrvr@@YAXXZ ENDP				; `dynamic atexit destructor for 'g_dpCoreSrvr''
text$yd	ENDS
; Function compile flags: /Ogtp
; File C:\IAGOS\server\v18\Source\Source\DatabaseServer\DPCoreSrvr.cpp
;	COMDAT ??__Eg_dpCoreSrvr@@YAXXZ
text$di	SEGMENT
??__Eg_dpCoreSrvr@@YAXXZ PROC				; `dynamic initializer for 'g_dpCoreSrvr'', COMDAT

; 505  : CDPCoreSrvr		g_dpCoreSrvr;

  00000	b9 00 00 00 00	 mov	 ecx, OFFSET ?g_dpCoreSrvr@@3VCDPCoreSrvr@@A ; g_dpCoreSrvr
  00005	e8 00 00 00 00	 call	 ??0CDPCoreSrvr@@QAE@XZ	; CDPCoreSrvr::CDPCoreSrvr
  0000a	68 00 00 00 00	 push	 OFFSET ??__Fg_dpCoreSrvr@@YAXXZ ; `dynamic atexit destructor for 'g_dpCoreSrvr''
  0000f	e8 00 00 00 00	 call	 _atexit
  00014	59		 pop	 ecx
  00015	c3		 ret	 0
??__Eg_dpCoreSrvr@@YAXXZ ENDP				; `dynamic initializer for 'g_dpCoreSrvr''
text$di	ENDS
; Function compile flags: /Ogtp
; File C:\IAGOS\server\v18\Source\Source\_Network\Misc\Include\Ar.h
;	COMDAT ??$?6I@CAr@@QAEAAV0@ABI@Z
_TEXT	SEGMENT
_t$ = 8							; size = 4
??$?6I@CAr@@QAEAAV0@ABI@Z PROC				; CAr::operator<<<unsigned int>, COMDAT
; _this$ = ecx

; 255  : {

  00000	55		 push	 ebp
  00001	8b ec		 mov	 ebp, esp
  00003	56		 push	 esi

; 256  : 	CheckBuf(sizeof(T));

  00004	6a 04		 push	 4
  00006	8b f1		 mov	 esi, ecx
  00008	e8 00 00 00 00	 call	 ?CheckBuf@CAr@@QAEXI@Z	; CAr::CheckBuf

; 257  : 	*(UNALIGNED T*)m_lpBufCur = t;

  0000d	8b 56 08	 mov	 edx, DWORD PTR [esi+8]
  00010	8b 45 08	 mov	 eax, DWORD PTR _t$[ebp]
  00013	8b 00		 mov	 eax, DWORD PTR [eax]
  00015	89 02		 mov	 DWORD PTR [edx], eax

; 258  : 	m_lpBufCur += sizeof(T);
; 259  : 	return *this;

  00017	8b c6		 mov	 eax, esi
  00019	83 46 08 04	 add	 DWORD PTR [esi+8], 4
  0001d	5e		 pop	 esi

; 260  : }

  0001e	5d		 pop	 ebp
  0001f	c2 04 00	 ret	 4
??$?6I@CAr@@QAEAAV0@ABI@Z ENDP				; CAr::operator<<<unsigned int>
_TEXT	ENDS
; Function compile flags: /Ogtp
; File C:\Program Files\Microsoft Visual Studio\2022\Professional\VC\Tools\MSVC\14.44.35207\include\vector
; File C:\Program Files\Microsoft Visual Studio\2022\Professional\VC\Tools\MSVC\14.44.35207\include\xmemory
; File C:\Program Files\Microsoft Visual Studio\2022\Professional\VC\Tools\MSVC\14.44.35207\include\xstring
; File C:\Program Files\Microsoft Visual Studio\2022\Professional\VC\Tools\MSVC\14.44.35207\include\xmemory
; File C:\Program Files\Microsoft Visual Studio\2022\Professional\VC\Tools\MSVC\14.44.35207\include\xstring
; File C:\Program Files\Microsoft Visual Studio\2022\Professional\VC\Tools\MSVC\14.44.35207\include\xmemory
; File C:\Program Files\Microsoft Visual Studio\2022\Professional\VC\Tools\MSVC\14.44.35207\include\xstring
; File C:\Program Files\Microsoft Visual Studio\2022\Professional\VC\Tools\MSVC\14.44.35207\include\xmemory
; File C:\Program Files\Microsoft Visual Studio\2022\Professional\VC\Tools\MSVC\14.44.35207\include\vector
; File C:\Program Files\Microsoft Visual Studio\2022\Professional\VC\Tools\MSVC\14.44.35207\include\xmemory
; File C:\Program Files\Microsoft Visual Studio\2022\Professional\VC\Tools\MSVC\14.44.35207\include\vector
; File C:\Program Files\Microsoft Visual Studio\2022\Professional\VC\Tools\MSVC\14.44.35207\include\xmemory
; File C:\Program Files\Microsoft Visual Studio\2022\Professional\VC\Tools\MSVC\14.44.35207\include\vector
; File C:\Program Files\Microsoft Visual Studio\2022\Professional\VC\Tools\MSVC\14.44.35207\include\xmemory
; File C:\Program Files\Microsoft Visual Studio\2022\Professional\VC\Tools\MSVC\14.44.35207\include\vector
; File C:\Program Files\Microsoft Visual Studio\2022\Professional\VC\Tools\MSVC\14.44.35207\include\xmemory
; File C:\Program Files\Microsoft Visual Studio\2022\Professional\VC\Tools\MSVC\14.44.35207\include\vector
;	COMDAT ?_Tidy@?$vector@V?$basic_string@DU?$char_traits@D@std@@V?$allocator@D@2@@std@@V?$allocator@V?$basic_string@DU?$char_traits@D@std@@V?$allocator@D@2@@std@@@2@@std@@AAEXXZ
_TEXT	SEGMENT
?_Tidy@?$vector@V?$basic_string@DU?$char_traits@D@std@@V?$allocator@D@2@@std@@V?$allocator@V?$basic_string@DU?$char_traits@D@std@@V?$allocator@D@2@@std@@@2@@std@@AAEXXZ PROC ; std::vector<std::basic_string<char,std::char_traits<char>,std::allocator<char> >,std::allocator<std::basic_string<char,std::char_traits<char>,std::allocator<char> > > >::_Tidy, COMDAT
; _this$ = ecx

; 2081 :     _CONSTEXPR20 void _Tidy() noexcept { // free all storage

  00000	56		 push	 esi
  00001	57		 push	 edi
  00002	8b f9		 mov	 edi, ecx

; 2082 :         auto& _Al         = _Getal();
; 2083 :         auto& _My_data    = _Mypair._Myval2;
; 2084 :         pointer& _Myfirst = _My_data._Myfirst;
; 2085 :         pointer& _Mylast  = _My_data._Mylast;
; 2086 :         pointer& _Myend   = _My_data._Myend;
; 2087 : 
; 2088 :         _My_data._Orphan_all();
; 2089 : 
; 2090 :         if (_Myfirst) { // destroy and deallocate old array

  00004	8b 37		 mov	 esi, DWORD PTR [edi]
  00006	85 f6		 test	 esi, esi
  00008	0f 84 a6 00 00
	00		 je	 $LN2@Tidy

; 2091 :             _STD _Destroy_range(_Myfirst, _Mylast, _Al);

  0000e	53		 push	 ebx
  0000f	8b 5f 04	 mov	 ebx, DWORD PTR [edi+4]
; File C:\Program Files\Microsoft Visual Studio\2022\Professional\VC\Tools\MSVC\14.44.35207\include\xmemory

; 1102 :         for (; _First != _Last; ++_First) {

  00012	3b f3		 cmp	 esi, ebx
  00014	74 47		 je	 SHORT $LN72@Tidy
$LL8@Tidy:
; File C:\Program Files\Microsoft Visual Studio\2022\Professional\VC\Tools\MSVC\14.44.35207\include\xstring

; 453  :         return _Myres > _Small_string_capacity;

  00016	8b 4e 14	 mov	 ecx, DWORD PTR [esi+20]
  00019	83 f9 0f	 cmp	 ecx, 15			; 0000000fH

; 3083 :         if (_My_data._Large_mode_engaged()) {

  0001c	76 27		 jbe	 SHORT $LN37@Tidy
; File C:\Program Files\Microsoft Visual Studio\2022\Professional\VC\Tools\MSVC\14.44.35207\include\xmemory

; 985  :         _STD _Deallocate<_New_alignof<_Ty>>(_Ptr, sizeof(_Ty) * _Count);

  0001e	8b 06		 mov	 eax, DWORD PTR [esi]
; File C:\Program Files\Microsoft Visual Studio\2022\Professional\VC\Tools\MSVC\14.44.35207\include\xstring

; 852  :         _Al.deallocate(_Old_ptr, _Capacity + 1); // +1 for null terminator

  00020	41		 inc	 ecx
; File C:\Program Files\Microsoft Visual Studio\2022\Professional\VC\Tools\MSVC\14.44.35207\include\xmemory

; 284  :         if (_Bytes >= _Big_allocation_threshold) {

  00021	81 f9 00 10 00
	00		 cmp	 ecx, 4096		; 00001000H
  00027	72 12		 jb	 SHORT $LN42@Tidy

; 205  :     const uintptr_t _Ptr_container   = _Ptr_user[-1];

  00029	8b 50 fc	 mov	 edx, DWORD PTR [eax-4]
  0002c	83 c1 23	 add	 ecx, 35			; 00000023H

; 206  : 
; 207  :     // If the following asserts, it likely means that we are performing
; 208  :     // an aligned delete on memory coming from an unaligned allocation.
; 209  :     _STL_ASSERT(_Ptr_user[-2] == _Big_allocation_sentinel, "invalid argument");
; 210  : 
; 211  :     // Extra paranoia on aligned allocation/deallocation; ensure _Ptr_container is
; 212  :     // in range [_Min_back_shift, _Non_user_size]
; 213  : #ifdef _DEBUG
; 214  :     constexpr uintptr_t _Min_back_shift = 2 * sizeof(void*);
; 215  : #else // ^^^ defined(_DEBUG) / !defined(_DEBUG) vvv
; 216  :     constexpr uintptr_t _Min_back_shift = sizeof(void*);
; 217  : #endif // ^^^ !defined(_DEBUG) ^^^
; 218  :     const uintptr_t _Back_shift = reinterpret_cast<uintptr_t>(_Ptr) - _Ptr_container;

  0002f	2b c2		 sub	 eax, edx

; 219  :     _STL_VERIFY(_Back_shift >= _Min_back_shift && _Back_shift <= _Non_user_size, "invalid argument");

  00031	83 c0 fc	 add	 eax, -4			; fffffffcH
  00034	83 f8 1f	 cmp	 eax, 31			; 0000001fH
  00037	77 7e		 ja	 SHORT $LN61@Tidy

; 220  :     _Ptr = reinterpret_cast<void*>(_Ptr_container);

  00039	8b c2		 mov	 eax, edx
$LN42@Tidy:

; 289  :         ::operator delete(_Ptr, _Bytes);

  0003b	51		 push	 ecx
  0003c	50		 push	 eax
  0003d	e8 00 00 00 00	 call	 ??3@YAXPAXI@Z		; operator delete
  00042	83 c4 08	 add	 esp, 8
$LN37@Tidy:
; File C:\Program Files\Microsoft Visual Studio\2022\Professional\VC\Tools\MSVC\14.44.35207\include\xstring

; 3090 :         _My_data._Mysize = 0;

  00045	c7 46 10 00 00
	00 00		 mov	 DWORD PTR [esi+16], 0

; 3091 :         _My_data._Myres  = _Small_string_capacity;

  0004c	c7 46 14 0f 00
	00 00		 mov	 DWORD PTR [esi+20], 15	; 0000000fH

; 3092 :         // the _Traits::assign is last so the codegen doesn't think the char write can alias this
; 3093 :         _Traits::assign(_My_data._Bx._Buf[0], _Elem());

  00053	c6 06 00	 mov	 BYTE PTR [esi], 0
; File C:\Program Files\Microsoft Visual Studio\2022\Professional\VC\Tools\MSVC\14.44.35207\include\xmemory

; 1102 :         for (; _First != _Last; ++_First) {

  00056	83 c6 18	 add	 esi, 24			; 00000018H
  00059	3b f3		 cmp	 esi, ebx
  0005b	75 b9		 jne	 SHORT $LL8@Tidy
$LN72@Tidy:
; File C:\Program Files\Microsoft Visual Studio\2022\Professional\VC\Tools\MSVC\14.44.35207\include\vector

; 2093 :             _Al.deallocate(_Myfirst, static_cast<size_type>(_Myend - _Myfirst));

  0005d	8b 4f 08	 mov	 ecx, DWORD PTR [edi+8]
  00060	b8 ab aa aa 2a	 mov	 eax, 715827883		; 2aaaaaabH
  00065	8b 37		 mov	 esi, DWORD PTR [edi]
  00067	2b ce		 sub	 ecx, esi
  00069	f7 e9		 imul	 ecx
; File C:\Program Files\Microsoft Visual Studio\2022\Professional\VC\Tools\MSVC\14.44.35207\include\xmemory

; 985  :         _STD _Deallocate<_New_alignof<_Ty>>(_Ptr, sizeof(_Ty) * _Count);

  0006b	5b		 pop	 ebx
; File C:\Program Files\Microsoft Visual Studio\2022\Professional\VC\Tools\MSVC\14.44.35207\include\vector

; 2093 :             _Al.deallocate(_Myfirst, static_cast<size_type>(_Myend - _Myfirst));

  0006c	c1 fa 02	 sar	 edx, 2
  0006f	8b c2		 mov	 eax, edx
  00071	c1 e8 1f	 shr	 eax, 31			; 0000001fH
  00074	03 c2		 add	 eax, edx
; File C:\Program Files\Microsoft Visual Studio\2022\Professional\VC\Tools\MSVC\14.44.35207\include\xmemory

; 985  :         _STD _Deallocate<_New_alignof<_Ty>>(_Ptr, sizeof(_Ty) * _Count);

  00076	8d 0c 40	 lea	 ecx, DWORD PTR [eax+eax*2]
  00079	c1 e1 03	 shl	 ecx, 3

; 284  :         if (_Bytes >= _Big_allocation_threshold) {

  0007c	81 f9 00 10 00
	00		 cmp	 ecx, 4096		; 00001000H
  00082	72 12		 jb	 SHORT $LN62@Tidy

; 205  :     const uintptr_t _Ptr_container   = _Ptr_user[-1];

  00084	8b 56 fc	 mov	 edx, DWORD PTR [esi-4]
  00087	83 c1 23	 add	 ecx, 35			; 00000023H

; 206  : 
; 207  :     // If the following asserts, it likely means that we are performing
; 208  :     // an aligned delete on memory coming from an unaligned allocation.
; 209  :     _STL_ASSERT(_Ptr_user[-2] == _Big_allocation_sentinel, "invalid argument");
; 210  : 
; 211  :     // Extra paranoia on aligned allocation/deallocation; ensure _Ptr_container is
; 212  :     // in range [_Min_back_shift, _Non_user_size]
; 213  : #ifdef _DEBUG
; 214  :     constexpr uintptr_t _Min_back_shift = 2 * sizeof(void*);
; 215  : #else // ^^^ defined(_DEBUG) / !defined(_DEBUG) vvv
; 216  :     constexpr uintptr_t _Min_back_shift = sizeof(void*);
; 217  : #endif // ^^^ !defined(_DEBUG) ^^^
; 218  :     const uintptr_t _Back_shift = reinterpret_cast<uintptr_t>(_Ptr) - _Ptr_container;

  0008a	2b f2		 sub	 esi, edx

; 219  :     _STL_VERIFY(_Back_shift >= _Min_back_shift && _Back_shift <= _Non_user_size, "invalid argument");

  0008c	8d 46 fc	 lea	 eax, DWORD PTR [esi-4]
  0008f	83 f8 1f	 cmp	 eax, 31			; 0000001fH
  00092	77 23		 ja	 SHORT $LN61@Tidy

; 220  :     _Ptr = reinterpret_cast<void*>(_Ptr_container);

  00094	8b f2		 mov	 esi, edx
$LN62@Tidy:

; 289  :         ::operator delete(_Ptr, _Bytes);

  00096	51		 push	 ecx
  00097	56		 push	 esi
  00098	e8 00 00 00 00	 call	 ??3@YAXPAXI@Z		; operator delete
; File C:\Program Files\Microsoft Visual Studio\2022\Professional\VC\Tools\MSVC\14.44.35207\include\vector

; 2095 :             _Myfirst = nullptr;

  0009d	c7 07 00 00 00
	00		 mov	 DWORD PTR [edi], 0
; File C:\Program Files\Microsoft Visual Studio\2022\Professional\VC\Tools\MSVC\14.44.35207\include\xmemory

; 289  :         ::operator delete(_Ptr, _Bytes);

  000a3	83 c4 08	 add	 esp, 8
; File C:\Program Files\Microsoft Visual Studio\2022\Professional\VC\Tools\MSVC\14.44.35207\include\vector

; 2096 :             _Mylast  = nullptr;

  000a6	c7 47 04 00 00
	00 00		 mov	 DWORD PTR [edi+4], 0

; 2097 :             _Myend   = nullptr;

  000ad	c7 47 08 00 00
	00 00		 mov	 DWORD PTR [edi+8], 0
$LN2@Tidy:

; 2099 :     }

  000b4	5f		 pop	 edi
  000b5	5e		 pop	 esi
  000b6	c3		 ret	 0
$LN61@Tidy:
; File C:\Program Files\Microsoft Visual Studio\2022\Professional\VC\Tools\MSVC\14.44.35207\include\xmemory

; 219  :     _STL_VERIFY(_Back_shift >= _Min_back_shift && _Back_shift <= _Non_user_size, "invalid argument");

  000b7	6a 00		 push	 0
  000b9	6a 00		 push	 0
  000bb	6a 00		 push	 0
  000bd	6a 00		 push	 0
  000bf	6a 00		 push	 0
  000c1	e8 00 00 00 00	 call	 __invoke_watson
$LN80@Tidy:
  000c6	cc		 int	 3
?_Tidy@?$vector@V?$basic_string@DU?$char_traits@D@std@@V?$allocator@D@2@@std@@V?$allocator@V?$basic_string@DU?$char_traits@D@std@@V?$allocator@D@2@@std@@@2@@std@@AAEXXZ ENDP ; std::vector<std::basic_string<char,std::char_traits<char>,std::allocator<char> >,std::allocator<std::basic_string<char,std::char_traits<char>,std::allocator<char> > > >::_Tidy
_TEXT	ENDS
; Function compile flags: /Ogtp
; File C:\Program Files\Microsoft Visual Studio\2022\Professional\VC\Tools\MSVC\14.44.35207\include\vector
;	COMDAT ??1?$vector@V?$basic_string@DU?$char_traits@D@std@@V?$allocator@D@2@@std@@V?$allocator@V?$basic_string@DU?$char_traits@D@std@@V?$allocator@D@2@@std@@@2@@std@@QAE@XZ
_TEXT	SEGMENT
??1?$vector@V?$basic_string@DU?$char_traits@D@std@@V?$allocator@D@2@@std@@V?$allocator@V?$basic_string@DU?$char_traits@D@std@@V?$allocator@D@2@@std@@@2@@std@@QAE@XZ PROC ; std::vector<std::basic_string<char,std::char_traits<char>,std::allocator<char> >,std::allocator<std::basic_string<char,std::char_traits<char>,std::allocator<char> > > >::~vector<std::basic_string<char,std::char_traits<char>,std::allocator<char> >,std::allocator<std::basic_string<char,std::char_traits<char>,std::allocator<char> > > >, COMDAT
; _this$ = ecx

; 830  :         _Tidy();

  00000	e9 00 00 00 00	 jmp	 ?_Tidy@?$vector@V?$basic_string@DU?$char_traits@D@std@@V?$allocator@D@2@@std@@V?$allocator@V?$basic_string@DU?$char_traits@D@std@@V?$allocator@D@2@@std@@@2@@std@@AAEXXZ ; std::vector<std::basic_string<char,std::char_traits<char>,std::allocator<char> >,std::allocator<std::basic_string<char,std::char_traits<char>,std::allocator<char> > > >::_Tidy
??1?$vector@V?$basic_string@DU?$char_traits@D@std@@V?$allocator@D@2@@std@@V?$allocator@V?$basic_string@DU?$char_traits@D@std@@V?$allocator@D@2@@std@@@2@@std@@QAE@XZ ENDP ; std::vector<std::basic_string<char,std::char_traits<char>,std::allocator<char> >,std::allocator<std::basic_string<char,std::char_traits<char>,std::allocator<char> > > >::~vector<std::basic_string<char,std::char_traits<char>,std::allocator<char> >,std::allocator<std::basic_string<char,std::char_traits<char>,std::allocator<char> > > >
_TEXT	ENDS
; Function compile flags: /Ogtp
; File C:\IAGOS\server\v18\Source\Source\_Network\Misc\Include\Ar.h
;	COMDAT ??$?6H@CAr@@QAEAAV0@ABH@Z
_TEXT	SEGMENT
_t$ = 8							; size = 4
??$?6H@CAr@@QAEAAV0@ABH@Z PROC				; CAr::operator<<<int>, COMDAT
; _this$ = ecx

; 255  : {

  00000	55		 push	 ebp
  00001	8b ec		 mov	 ebp, esp
  00003	56		 push	 esi

; 256  : 	CheckBuf(sizeof(T));

  00004	6a 04		 push	 4
  00006	8b f1		 mov	 esi, ecx
  00008	e8 00 00 00 00	 call	 ?CheckBuf@CAr@@QAEXI@Z	; CAr::CheckBuf

; 257  : 	*(UNALIGNED T*)m_lpBufCur = t;

  0000d	8b 56 08	 mov	 edx, DWORD PTR [esi+8]
  00010	8b 45 08	 mov	 eax, DWORD PTR _t$[ebp]
  00013	8b 00		 mov	 eax, DWORD PTR [eax]
  00015	89 02		 mov	 DWORD PTR [edx], eax

; 258  : 	m_lpBufCur += sizeof(T);
; 259  : 	return *this;

  00017	8b c6		 mov	 eax, esi
  00019	83 46 08 04	 add	 DWORD PTR [esi+8], 4
  0001d	5e		 pop	 esi

; 260  : }

  0001e	5d		 pop	 ebp
  0001f	c2 04 00	 ret	 4
??$?6H@CAr@@QAEAAV0@ABH@Z ENDP				; CAr::operator<<<int>
_TEXT	ENDS
; Function compile flags: /Ogtp
; File C:\IAGOS\server\v18\Source\Source\_Network\Misc\Include\Ar.h
;	COMDAT ??$?6E@CAr@@QAEAAV0@ABE@Z
_TEXT	SEGMENT
_t$ = 8							; size = 4
??$?6E@CAr@@QAEAAV0@ABE@Z PROC				; CAr::operator<<<unsigned char>, COMDAT
; _this$ = ecx

; 255  : {

  00000	55		 push	 ebp
  00001	8b ec		 mov	 ebp, esp
  00003	56		 push	 esi

; 256  : 	CheckBuf(sizeof(T));

  00004	6a 01		 push	 1
  00006	8b f1		 mov	 esi, ecx
  00008	e8 00 00 00 00	 call	 ?CheckBuf@CAr@@QAEXI@Z	; CAr::CheckBuf

; 257  : 	*(UNALIGNED T*)m_lpBufCur = t;

  0000d	8b 45 08	 mov	 eax, DWORD PTR _t$[ebp]
  00010	8b 56 08	 mov	 edx, DWORD PTR [esi+8]
  00013	8a 00		 mov	 al, BYTE PTR [eax]
  00015	88 02		 mov	 BYTE PTR [edx], al

; 258  : 	m_lpBufCur += sizeof(T);
; 259  : 	return *this;

  00017	8b c6		 mov	 eax, esi
  00019	ff 46 08	 inc	 DWORD PTR [esi+8]
  0001c	5e		 pop	 esi

; 260  : }

  0001d	5d		 pop	 ebp
  0001e	c2 04 00	 ret	 4
??$?6E@CAr@@QAEAAV0@ABE@Z ENDP				; CAr::operator<<<unsigned char>
_TEXT	ENDS
; Function compile flags: /Ogtp
; File C:\IAGOS\server\v18\Source\Source\_Network\Misc\Include\Ar.h
;	COMDAT ??$?6K@CAr@@QAEAAV0@ABK@Z
_TEXT	SEGMENT
_t$ = 8							; size = 4
??$?6K@CAr@@QAEAAV0@ABK@Z PROC				; CAr::operator<<<unsigned long>, COMDAT
; _this$ = ecx

; 255  : {

  00000	55		 push	 ebp
  00001	8b ec		 mov	 ebp, esp
  00003	56		 push	 esi

; 256  : 	CheckBuf(sizeof(T));

  00004	6a 04		 push	 4
  00006	8b f1		 mov	 esi, ecx
  00008	e8 00 00 00 00	 call	 ?CheckBuf@CAr@@QAEXI@Z	; CAr::CheckBuf

; 257  : 	*(UNALIGNED T*)m_lpBufCur = t;

  0000d	8b 56 08	 mov	 edx, DWORD PTR [esi+8]
  00010	8b 45 08	 mov	 eax, DWORD PTR _t$[ebp]
  00013	8b 00		 mov	 eax, DWORD PTR [eax]
  00015	89 02		 mov	 DWORD PTR [edx], eax

; 258  : 	m_lpBufCur += sizeof(T);
; 259  : 	return *this;

  00017	8b c6		 mov	 eax, esi
  00019	83 46 08 04	 add	 DWORD PTR [esi+8], 4
  0001d	5e		 pop	 esi

; 260  : }

  0001e	5d		 pop	 ebp
  0001f	c2 04 00	 ret	 4
??$?6K@CAr@@QAEAAV0@ABK@Z ENDP				; CAr::operator<<<unsigned long>
_TEXT	ENDS
; Function compile flags: /Ogtp
; File C:\IAGOS\server\v18\Source\Source\_Network\Misc\Include\Ar.h
;	COMDAT ??$?5K@CAr@@QAEAAV0@AAK@Z
_TEXT	SEGMENT
_t$ = 8							; size = 4
??$?5K@CAr@@QAEAAV0@AAK@Z PROC				; CAr::operator>><unsigned long>, COMDAT
; _this$ = ecx

; 302  : {

  00000	55		 push	 ebp
  00001	8b ec		 mov	 ebp, esp
  00003	8b d1		 mov	 edx, ecx

; 303  : 	if (m_lpBufCur + sizeof(T) <= m_lpBufMax)

  00005	8b 4a 08	 mov	 ecx, DWORD PTR [edx+8]
  00008	8d 41 04	 lea	 eax, DWORD PTR [ecx+4]
  0000b	3b 42 0c	 cmp	 eax, DWORD PTR [edx+12]
  0000e	8b 45 08	 mov	 eax, DWORD PTR _t$[ebp]
  00011	77 0e		 ja	 SHORT $LN2@operator

; 304  : 	{
; 305  : 		t = *(UNALIGNED T*)m_lpBufCur;

  00013	8b 09		 mov	 ecx, DWORD PTR [ecx]
  00015	89 08		 mov	 DWORD PTR [eax], ecx

; 312  : 	}
; 313  : 	return *this;
; 314  : }

  00017	8b c2		 mov	 eax, edx
  00019	83 42 08 04	 add	 DWORD PTR [edx+8], 4
  0001d	5d		 pop	 ebp
  0001e	c2 04 00	 ret	 4
$LN2@operator:

; 306  : 		m_lpBufCur += sizeof(T);
; 307  : 	}
; 308  : 	else
; 309  : 	{
; 310  : 		t = T();

  00021	c7 00 00 00 00
	00		 mov	 DWORD PTR [eax], 0

; 311  : 		m_lpBufCur = m_lpBufMax;

  00027	8b 42 0c	 mov	 eax, DWORD PTR [edx+12]
  0002a	89 42 08	 mov	 DWORD PTR [edx+8], eax

; 312  : 	}
; 313  : 	return *this;
; 314  : }

  0002d	8b c2		 mov	 eax, edx
  0002f	5d		 pop	 ebp
  00030	c2 04 00	 ret	 4
??$?5K@CAr@@QAEAAV0@AAK@Z ENDP				; CAr::operator>><unsigned long>
_TEXT	ENDS
; Function compile flags: /Ogtp
; File C:\Program Files\Microsoft Visual Studio\2022\Professional\VC\Tools\MSVC\14.44.35207\include\xtree
; File C:\Program Files\Microsoft Visual Studio\2022\Professional\VC\Tools\MSVC\14.44.35207\include\type_traits
; File C:\Program Files\Microsoft Visual Studio\2022\Professional\VC\Tools\MSVC\14.44.35207\include\xtree
; File C:\Program Files\Microsoft Visual Studio\2022\Professional\VC\Tools\MSVC\14.44.35207\include\utility
; File C:\Program Files\Microsoft Visual Studio\2022\Professional\VC\Tools\MSVC\14.44.35207\include\xtree
; File C:\Program Files\Microsoft Visual Studio\2022\Professional\VC\Tools\MSVC\14.44.35207\include\xmemory
; File C:\Program Files\Microsoft Visual Studio\2022\Professional\VC\Tools\MSVC\14.44.35207\include\xtree
; File C:\Program Files\Microsoft Visual Studio\2022\Professional\VC\Tools\MSVC\14.44.35207\include\xmemory
; File C:\Program Files\Microsoft Visual Studio\2022\Professional\VC\Tools\MSVC\14.44.35207\include\xtree
; File C:\Program Files\Microsoft Visual Studio\2022\Professional\VC\Tools\MSVC\14.44.35207\include\xmemory
; File C:\Program Files\Microsoft Visual Studio\2022\Professional\VC\Tools\MSVC\14.44.35207\include\xtree
; File C:\Program Files\Microsoft Visual Studio\2022\Professional\VC\Tools\MSVC\14.44.35207\include\utility
; File C:\Program Files\Microsoft Visual Studio\2022\Professional\VC\Tools\MSVC\14.44.35207\include\xtree
;	COMDAT ??$insert@$0A@$0A@@?$_Tree@V?$_Tmap_traits@KP8CDPCoreSrvr@@AEXAAVCAr@@PAEK@ZU?$less@K@std@@V?$allocator@U?$pair@$$CBKP8CDPCoreSrvr@@AEXAAVCAr@@PAEK@Z@std@@@4@$0A@@std@@@std@@QAE?AU?$pair@V?$_Tree_iterator@V?$_Tree_val@U?$_Tree_simple_types@U?$pair@$$CBKP8CDPCoreSrvr@@AEXAAVCAr@@PAEK@Z@std@@@std@@@std@@@std@@_N@1@$$QAU?$pair@$$CBKP8CDPCoreSrvr@@AEXAAVCAr@@PAEK@Z@1@@Z
_TEXT	SEGMENT
__Loc$2 = -36						; size = 12
$T3 = -24						; size = 12
$T4 = -20						; size = 8
__$EHRec$ = -12						; size = 12
___$ReturnUdt$ = 8					; size = 4
__Val$ = 12						; size = 4
??$insert@$0A@$0A@@?$_Tree@V?$_Tmap_traits@KP8CDPCoreSrvr@@AEXAAVCAr@@PAEK@ZU?$less@K@std@@V?$allocator@U?$pair@$$CBKP8CDPCoreSrvr@@AEXAAVCAr@@PAEK@Z@std@@@4@$0A@@std@@@std@@QAE?AU?$pair@V?$_Tree_iterator@V?$_Tree_val@U?$_Tree_simple_types@U?$pair@$$CBKP8CDPCoreSrvr@@AEXAAVCAr@@PAEK@Z@std@@@std@@@std@@@std@@_N@1@$$QAU?$pair@$$CBKP8CDPCoreSrvr@@AEXAAVCAr@@PAEK@Z@1@@Z PROC ; std::_Tree<std::_Tmap_traits<unsigned long,void (__thiscall CDPCoreSrvr::*)(CAr &,unsigned char *,unsigned long),std::less<unsigned long>,std::allocator<std::pair<unsigned long const ,void (__thiscall CDPCoreSrvr::*)(CAr &,unsigned char *,unsigned long)> >,0> >::insert<0,0>, COMDAT
; _this$ = ecx

; 1245 :     pair<iterator, bool> insert(value_type&& _Val) {

  00000	55		 push	 ebp
  00001	8b ec		 mov	 ebp, esp
  00003	6a ff		 push	 -1
  00005	68 00 00 00 00	 push	 __ehhandler$??$insert@$0A@$0A@@?$_Tree@V?$_Tmap_traits@KP8CDPCoreSrvr@@AEXAAVCAr@@PAEK@ZU?$less@K@std@@V?$allocator@U?$pair@$$CBKP8CDPCoreSrvr@@AEXAAVCAr@@PAEK@Z@std@@@4@$0A@@std@@@std@@QAE?AU?$pair@V?$_Tree_iterator@V?$_Tree_val@U?$_Tree_simple_types@U?$pair@$$CBKP8CDPCoreSrvr@@AEXAAVCAr@@PAEK@Z@std@@@std@@@std@@@std@@_N@1@$$QAU?$pair@$$CBKP8CDPCoreSrvr@@AEXAAVCAr@@PAEK@Z@1@@Z
  0000a	64 a1 00 00 00
	00		 mov	 eax, DWORD PTR fs:0
  00010	50		 push	 eax
  00011	83 ec 18	 sub	 esp, 24			; 00000018H
  00014	53		 push	 ebx
  00015	56		 push	 esi
  00016	57		 push	 edi
  00017	a1 00 00 00 00	 mov	 eax, DWORD PTR ___security_cookie
  0001c	33 c5		 xor	 eax, ebp
  0001e	50		 push	 eax
  0001f	8d 45 f4	 lea	 eax, DWORD PTR __$EHRec$[ebp]
  00022	64 a3 00 00 00
	00		 mov	 DWORD PTR fs:0, eax
  00028	8b f9		 mov	 edi, ecx

; 1017 :             _Loc                = _Find_lower_bound(_Keyval);

  0002a	8b 5d 0c	 mov	 ebx, DWORD PTR __Val$[ebp]
  0002d	8d 45 e8	 lea	 eax, DWORD PTR $T3[ebp]
  00030	53		 push	 ebx
  00031	50		 push	 eax
  00032	e8 00 00 00 00	 call	 ??$_Find_lower_bound@K@?$_Tree@V?$_Tmap_traits@KP8CDPCoreSrvr@@AEXAAVCAr@@PAEK@ZU?$less@K@std@@V?$allocator@U?$pair@$$CBKP8CDPCoreSrvr@@AEXAAVCAr@@PAEK@Z@std@@@4@$0A@@std@@@std@@IBE?AU?$_Tree_find_result@PAU?$_Tree_node@U?$pair@$$CBKP8CDPCoreSrvr@@AEXAAVCAr@@PAEK@Z@std@@PAX@std@@@1@ABK@Z ; std::_Tree<std::_Tmap_traits<unsigned long,void (__thiscall CDPCoreSrvr::*)(CAr &,unsigned char *,unsigned long),std::less<unsigned long>,std::allocator<std::pair<unsigned long const ,void (__thiscall CDPCoreSrvr::*)(CAr &,unsigned char *,unsigned long)> >,0> >::_Find_lower_bound<unsigned long>
  00037	8b 48 08	 mov	 ecx, DWORD PTR [eax+8]
  0003a	f3 0f 7e 00	 movq	 xmm0, QWORD PTR [eax]
  0003e	66 0f d6 45 dc	 movq	 QWORD PTR __Loc$2[ebp], xmm0

; 1624 :         return !_Bound->_Isnil && !_DEBUG_LT_PRED(_Getcomp(), _Keyval, _Traits::_Kfn(_Bound->_Myval));

  00043	80 79 0d 00	 cmp	 BYTE PTR [ecx+13], 0
  00047	75 0b		 jne	 SHORT $LN4@insert
; File C:\Program Files\Microsoft Visual Studio\2022\Professional\VC\Tools\MSVC\14.44.35207\include\type_traits

; 2380 :         return _Left < _Right;

  00049	8b 03		 mov	 eax, DWORD PTR [ebx]
  0004b	3b 41 10	 cmp	 eax, DWORD PTR [ecx+16]
; File C:\Program Files\Microsoft Visual Studio\2022\Professional\VC\Tools\MSVC\14.44.35207\include\xtree

; 1624 :         return !_Bound->_Isnil && !_DEBUG_LT_PRED(_Getcomp(), _Keyval, _Traits::_Kfn(_Bound->_Myval));

  0004e	72 04		 jb	 SHORT $LN4@insert
; File C:\Program Files\Microsoft Visual Studio\2022\Professional\VC\Tools\MSVC\14.44.35207\include\utility

; 274  :         : first(_STD forward<_Other1>(_Val1)), second(_STD forward<_Other2>(_Val2)) {

  00050	32 d2		 xor	 dl, dl
; File C:\Program Files\Microsoft Visual Studio\2022\Professional\VC\Tools\MSVC\14.44.35207\include\xtree

; 1019 :                 return {_Loc._Bound, false};

  00052	eb 51		 jmp	 SHORT $LN84@insert
$LN4@insert:

; 1648 :         if (max_size() == _Get_scary()->_Mysize) {

  00054	81 7f 04 aa aa
	aa 0a		 cmp	 DWORD PTR [edi+4], 178956970 ; 0aaaaaaaH
  0005b	74 64		 je	 SHORT $LN103@insert

; 1023 :             _Inserted = _Tree_temp_node<_Alnode>(_Getal(), _Scary->_Myhead, _STD forward<_Valtys>(_Vals)...)._Release();

  0005d	8b 37		 mov	 esi, DWORD PTR [edi]
; File C:\Program Files\Microsoft Visual Studio\2022\Professional\VC\Tools\MSVC\14.44.35207\include\xmemory

; 1160 :     _CONSTEXPR20 explicit _Alloc_construct_ptr(_Alloc& _Al_) : _Al(_Al_), _Ptr(nullptr) {}

  0005f	89 7d ec	 mov	 DWORD PTR $T4[ebp], edi

; 136  :         return ::operator new(_Bytes);

  00062	6a 18		 push	 24			; 00000018H
; File C:\Program Files\Microsoft Visual Studio\2022\Professional\VC\Tools\MSVC\14.44.35207\include\xtree

; 808  :     explicit _Tree_temp_node_alloc(_Alnode& _Al_) : _Alloc_construct_ptr<_Alnode>(_Al_) {

  00064	c7 45 fc 00 00
	00 00		 mov	 DWORD PTR __$EHRec$[ebp+8], 0
; File C:\Program Files\Microsoft Visual Studio\2022\Professional\VC\Tools\MSVC\14.44.35207\include\xmemory

; 1167 :         _Ptr = nullptr; // if allocate throws, prevents double-free

  0006b	c7 45 f0 00 00
	00 00		 mov	 DWORD PTR $T4[ebp+4], 0

; 136  :         return ::operator new(_Bytes);

  00072	e8 00 00 00 00	 call	 ??2@YAPAXI@Z		; operator new
; File C:\Program Files\Microsoft Visual Studio\2022\Professional\VC\Tools\MSVC\14.44.35207\include\xtree

; 830  :         _Alnode_traits::construct(this->_Al, _STD addressof(this->_Ptr->_Myval), _STD forward<_Valtys>(_Vals)...);

  00077	8b 0b		 mov	 ecx, DWORD PTR [ebx]
; File C:\Program Files\Microsoft Visual Studio\2022\Professional\VC\Tools\MSVC\14.44.35207\include\xmemory

; 136  :         return ::operator new(_Bytes);

  00079	83 c4 04	 add	 esp, 4
; File C:\Program Files\Microsoft Visual Studio\2022\Professional\VC\Tools\MSVC\14.44.35207\include\xtree

; 830  :         _Alnode_traits::construct(this->_Al, _STD addressof(this->_Ptr->_Myval), _STD forward<_Valtys>(_Vals)...);

  0007c	8b 53 04	 mov	 edx, DWORD PTR [ebx+4]
  0007f	89 48 10	 mov	 DWORD PTR [eax+16], ecx

; 1042 :         return {_Scary->_Insert_node(_Loc._Location, _Inserted), true};

  00082	8b cf		 mov	 ecx, edi
  00084	50		 push	 eax
  00085	ff 75 e0	 push	 DWORD PTR __Loc$2[ebp+4]

; 830  :         _Alnode_traits::construct(this->_Al, _STD addressof(this->_Ptr->_Myval), _STD forward<_Valtys>(_Vals)...);

  00088	89 50 14	 mov	 DWORD PTR [eax+20], edx

; 1042 :         return {_Scary->_Insert_node(_Loc._Location, _Inserted), true};

  0008b	ff 75 dc	 push	 DWORD PTR __Loc$2[ebp]

; 831  :         _Construct_in_place(this->_Ptr->_Left, _Myhead);

  0008e	89 30		 mov	 DWORD PTR [eax], esi

; 832  :         _Construct_in_place(this->_Ptr->_Parent, _Myhead);

  00090	89 70 04	 mov	 DWORD PTR [eax+4], esi

; 833  :         _Construct_in_place(this->_Ptr->_Right, _Myhead);

  00093	89 70 08	 mov	 DWORD PTR [eax+8], esi

; 834  :         this->_Ptr->_Color = _Red;

  00096	66 c7 40 0c 00
	00		 mov	 WORD PTR [eax+12], 0

; 1042 :         return {_Scary->_Insert_node(_Loc._Location, _Inserted), true};

  0009c	e8 00 00 00 00	 call	 ?_Insert_node@?$_Tree_val@U?$_Tree_simple_types@U?$pair@$$CBKP8CDPCoreSrvr@@AEXAAVCAr@@PAEK@Z@std@@@std@@@std@@QAEPAU?$_Tree_node@U?$pair@$$CBKP8CDPCoreSrvr@@AEXAAVCAr@@PAEK@Z@std@@PAX@2@U?$_Tree_id@PAU?$_Tree_node@U?$pair@$$CBKP8CDPCoreSrvr@@AEXAAVCAr@@PAEK@Z@std@@PAX@std@@@2@QAU32@@Z ; std::_Tree_val<std::_Tree_simple_types<std::pair<unsigned long const ,void (__thiscall CDPCoreSrvr::*)(CAr &,unsigned char *,unsigned long)> > >::_Insert_node
; File C:\Program Files\Microsoft Visual Studio\2022\Professional\VC\Tools\MSVC\14.44.35207\include\utility

; 274  :         : first(_STD forward<_Other1>(_Val1)), second(_STD forward<_Other2>(_Val2)) {

  000a1	8b c8		 mov	 ecx, eax
  000a3	b2 01		 mov	 dl, 1
$LN84@insert:
  000a5	8b 45 08	 mov	 eax, DWORD PTR ___$ReturnUdt$[ebp]
  000a8	89 08		 mov	 DWORD PTR [eax], ecx
  000aa	88 50 04	 mov	 BYTE PTR [eax+4], dl
; File C:\Program Files\Microsoft Visual Studio\2022\Professional\VC\Tools\MSVC\14.44.35207\include\xtree

; 1248 :     }

  000ad	8b 4d f4	 mov	 ecx, DWORD PTR __$EHRec$[ebp]
  000b0	64 89 0d 00 00
	00 00		 mov	 DWORD PTR fs:0, ecx
  000b7	59		 pop	 ecx
  000b8	5f		 pop	 edi
  000b9	5e		 pop	 esi
  000ba	5b		 pop	 ebx
  000bb	8b e5		 mov	 esp, ebp
  000bd	5d		 pop	 ebp
  000be	c2 08 00	 ret	 8
$LN103@insert:

; 1649 :             _Throw_tree_length_error();

  000c1	e8 00 00 00 00	 call	 ?_Throw_tree_length_error@std@@YAXXZ ; std::_Throw_tree_length_error
$LN101@insert:
  000c6	cc		 int	 3
_TEXT	ENDS
;	COMDAT text$x
text$x	SEGMENT
__unwindfunclet$??$insert@$0A@$0A@@?$_Tree@V?$_Tmap_traits@KP8CDPCoreSrvr@@AEXAAVCAr@@PAEK@ZU?$less@K@std@@V?$allocator@U?$pair@$$CBKP8CDPCoreSrvr@@AEXAAVCAr@@PAEK@Z@std@@@4@$0A@@std@@@std@@QAE?AU?$pair@V?$_Tree_iterator@V?$_Tree_val@U?$_Tree_simple_types@U?$pair@$$CBKP8CDPCoreSrvr@@AEXAAVCAr@@PAEK@Z@std@@@std@@@std@@@std@@_N@1@$$QAU?$pair@$$CBKP8CDPCoreSrvr@@AEXAAVCAr@@PAEK@Z@1@@Z$2:
  00000	8d 4d ec	 lea	 ecx, DWORD PTR $T4[ebp]
  00003	e9 00 00 00 00	 jmp	 ??1?$_Alloc_construct_ptr@V?$allocator@U?$_Tree_node@U?$pair@$$CBKP8CDPCoreSrvr@@AEXAAVCAr@@PAEK@Z@std@@PAX@std@@@std@@@std@@QAE@XZ ; std::_Alloc_construct_ptr<std::allocator<std::_Tree_node<std::pair<unsigned long const ,void (__thiscall CDPCoreSrvr::*)(CAr &,unsigned char *,unsigned long)>,void *> > >::~_Alloc_construct_ptr<std::allocator<std::_Tree_node<std::pair<unsigned long const ,void (__thiscall CDPCoreSrvr::*)(CAr &,unsigned char *,unsigned long)>,void *> > >
  00008	cc		 int	 3
  00009	cc		 int	 3
  0000a	cc		 int	 3
  0000b	cc		 int	 3
  0000c	cc		 int	 3
__ehhandler$??$insert@$0A@$0A@@?$_Tree@V?$_Tmap_traits@KP8CDPCoreSrvr@@AEXAAVCAr@@PAEK@ZU?$less@K@std@@V?$allocator@U?$pair@$$CBKP8CDPCoreSrvr@@AEXAAVCAr@@PAEK@Z@std@@@4@$0A@@std@@@std@@QAE?AU?$pair@V?$_Tree_iterator@V?$_Tree_val@U?$_Tree_simple_types@U?$pair@$$CBKP8CDPCoreSrvr@@AEXAAVCAr@@PAEK@Z@std@@@std@@@std@@@std@@_N@1@$$QAU?$pair@$$CBKP8CDPCoreSrvr@@AEXAAVCAr@@PAEK@Z@1@@Z:
  0000d	90		 npad	 1
  0000e	90		 npad	 1
  0000f	8b 54 24 08	 mov	 edx, DWORD PTR [esp+8]
  00013	8d 42 0c	 lea	 eax, DWORD PTR [edx+12]
  00016	8b 4a d8	 mov	 ecx, DWORD PTR [edx-40]
  00019	33 c8		 xor	 ecx, eax
  0001b	e8 00 00 00 00	 call	 @__security_check_cookie@4
  00020	b8 00 00 00 00	 mov	 eax, OFFSET __ehfuncinfo$??$insert@$0A@$0A@@?$_Tree@V?$_Tmap_traits@KP8CDPCoreSrvr@@AEXAAVCAr@@PAEK@ZU?$less@K@std@@V?$allocator@U?$pair@$$CBKP8CDPCoreSrvr@@AEXAAVCAr@@PAEK@Z@std@@@4@$0A@@std@@@std@@QAE?AU?$pair@V?$_Tree_iterator@V?$_Tree_val@U?$_Tree_simple_types@U?$pair@$$CBKP8CDPCoreSrvr@@AEXAAVCAr@@PAEK@Z@std@@@std@@@std@@@std@@_N@1@$$QAU?$pair@$$CBKP8CDPCoreSrvr@@AEXAAVCAr@@PAEK@Z@1@@Z
  00025	e9 00 00 00 00	 jmp	 ___CxxFrameHandler3
text$x	ENDS
??$insert@$0A@$0A@@?$_Tree@V?$_Tmap_traits@KP8CDPCoreSrvr@@AEXAAVCAr@@PAEK@ZU?$less@K@std@@V?$allocator@U?$pair@$$CBKP8CDPCoreSrvr@@AEXAAVCAr@@PAEK@Z@std@@@4@$0A@@std@@@std@@QAE?AU?$pair@V?$_Tree_iterator@V?$_Tree_val@U?$_Tree_simple_types@U?$pair@$$CBKP8CDPCoreSrvr@@AEXAAVCAr@@PAEK@Z@std@@@std@@@std@@@std@@_N@1@$$QAU?$pair@$$CBKP8CDPCoreSrvr@@AEXAAVCAr@@PAEK@Z@1@@Z ENDP ; std::_Tree<std::_Tmap_traits<unsigned long,void (__thiscall CDPCoreSrvr::*)(CAr &,unsigned char *,unsigned long),std::less<unsigned long>,std::allocator<std::pair<unsigned long const ,void (__thiscall CDPCoreSrvr::*)(CAr &,unsigned char *,unsigned long)> >,0> >::insert<0,0>
; Function compile flags: /Ogtp
;	COMDAT ??_GCDPCoreSrvr@@UAEPAXI@Z
_TEXT	SEGMENT
___flags$ = 8						; size = 4
??_GCDPCoreSrvr@@UAEPAXI@Z PROC				; CDPCoreSrvr::`scalar deleting destructor', COMDAT
; _this$ = ecx
  00000	55		 push	 ebp
  00001	8b ec		 mov	 ebp, esp
  00003	56		 push	 esi
  00004	8b f1		 mov	 esi, ecx
  00006	e8 00 00 00 00	 call	 ??1CDPCoreSrvr@@UAE@XZ	; CDPCoreSrvr::~CDPCoreSrvr
  0000b	f6 45 08 01	 test	 BYTE PTR ___flags$[ebp], 1
  0000f	74 0b		 je	 SHORT $LN5@scalar
  00011	6a 18		 push	 24			; 00000018H
  00013	56		 push	 esi
  00014	e8 00 00 00 00	 call	 ??3@YAXPAXI@Z		; operator delete
  00019	83 c4 08	 add	 esp, 8
$LN5@scalar:
  0001c	8b c6		 mov	 eax, esi
  0001e	5e		 pop	 esi
  0001f	5d		 pop	 ebp
  00020	c2 04 00	 ret	 4
??_GCDPCoreSrvr@@UAEPAXI@Z ENDP				; CDPCoreSrvr::`scalar deleting destructor'
_TEXT	ENDS
; Function compile flags: /Ogtp
; File C:\IAGOS\server\v18\Source\Source\DatabaseServer\DPCoreSrvr.cpp
;	COMDAT ?OnSnoopGuild@CDPCoreSrvr@@AAEXAAVCAr@@PAEK@Z
_TEXT	SEGMENT
_idGuild$ = -1032					; size = 4
_lpszChat$ = -1028					; size = 1024
__$ArrayPad$ = -4					; size = 4
_ar$ = 8						; size = 4
_lpBuf$ = 12						; size = 4
_uBufSize$ = 16						; size = 4
?OnSnoopGuild@CDPCoreSrvr@@AAEXAAVCAr@@PAEK@Z PROC	; CDPCoreSrvr::OnSnoopGuild, COMDAT
; _this$ = ecx

; 404  : {

  00000	55		 push	 ebp
  00001	8b ec		 mov	 ebp, esp
  00003	81 ec 08 04 00
	00		 sub	 esp, 1032		; 00000408H
  00009	a1 00 00 00 00	 mov	 eax, DWORD PTR ___security_cookie
  0000e	33 c5		 xor	 eax, ebp
  00010	89 45 fc	 mov	 DWORD PTR __$ArrayPad$[ebp], eax

; 405  : 	if( uBufSize > 1000 )	// 1032

  00013	81 7d 10 e8 03
	00 00		 cmp	 DWORD PTR _uBufSize$[ebp], 1000 ; 000003e8H
  0001a	53		 push	 ebx
  0001b	8b 5d 0c	 mov	 ebx, DWORD PTR _lpBuf$[ebp]
  0001e	56		 push	 esi
  0001f	8b 75 08	 mov	 esi, DWORD PTR _ar$[ebp]
  00022	77 71		 ja	 SHORT $LN1@OnSnoopGui

; 406  : 		return;
; 407  : 
; 408  : 	u_long idGuild;
; 409  : 	char lpszChat[1024]		= { 0, };

  00024	68 00 04 00 00	 push	 1024			; 00000400H
  00029	8d 85 fc fb ff
	ff		 lea	 eax, DWORD PTR _lpszChat$[ebp]
  0002f	6a 00		 push	 0
  00031	50		 push	 eax
  00032	e8 00 00 00 00	 call	 _memset
  00037	83 c4 0c	 add	 esp, 12			; 0000000cH

; 410  : 	ar >> idGuild;

  0003a	8d 85 f8 fb ff
	ff		 lea	 eax, DWORD PTR _idGuild$[ebp]
  00040	8b ce		 mov	 ecx, esi
  00042	50		 push	 eax
  00043	e8 00 00 00 00	 call	 ??$?5K@CAr@@QAEAAV0@AAK@Z ; CAr::operator>><unsigned long>

; 411  : 	ar.ReadString( lpszChat, 1024 );

  00048	68 00 04 00 00	 push	 1024			; 00000400H
  0004d	8d 85 fc fb ff
	ff		 lea	 eax, DWORD PTR _lpszChat$[ebp]
  00053	8b ce		 mov	 ecx, esi
  00055	50		 push	 eax
  00056	e8 00 00 00 00	 call	 ?ReadString@CAr@@QAEPADPADH@Z ; CAr::ReadString

; 412  : 
; 413  : 	TRACE( "recv PACKETTYPE_SETSNOOPGUILD\n" );
; 414  : 
; 415  : 	LPDB_OVERLAPPED_PLUS lpDbOverlappedPlus		= g_DbManager.AllocRequest();

  0005b	8b 0d 00 00 00
	00		 mov	 ecx, DWORD PTR ?g_DbManager@@3AAVCDbManager@@A ; g_DbManager
  00061	e8 00 00 00 00	 call	 ?AllocRequest@CDbManager@@QAEPAUtagDB_OVERLAPPED_PLUS@@XZ ; CDbManager::AllocRequest

; 416  : 	g_DbManager.MakeRequest( lpDbOverlappedPlus, lpBuf, uBufSize );

  00066	ff 75 10	 push	 DWORD PTR _uBufSize$[ebp]
  00069	8b 0d 00 00 00
	00		 mov	 ecx, DWORD PTR ?g_DbManager@@3AAVCDbManager@@A ; g_DbManager
  0006f	8b f0		 mov	 esi, eax
  00071	53		 push	 ebx
  00072	56		 push	 esi
  00073	e8 00 00 00 00	 call	 ?MakeRequest@CDbManager@@QAEXPAUtagDB_OVERLAPPED_PLUS@@PAEK@Z ; CDbManager::MakeRequest

; 417  : 	lpDbOverlappedPlus->nQueryMode	= QM_SNOOPGUILD;
; 418  : 	PostQueuedCompletionStatus( g_DbManager.m_hIOCPPut, 1, NULL, &lpDbOverlappedPlus->Overlapped );

  00078	56		 push	 esi
  00079	c7 46 14 40 00
	00 00		 mov	 DWORD PTR [esi+20], 64	; 00000040H
  00080	a1 00 00 00 00	 mov	 eax, DWORD PTR ?g_DbManager@@3AAVCDbManager@@A ; g_DbManager
  00085	6a 00		 push	 0
  00087	6a 01		 push	 1
  00089	ff b0 34 03 00
	00		 push	 DWORD PTR [eax+820]
  0008f	ff 15 00 00 00
	00		 call	 DWORD PTR __imp__PostQueuedCompletionStatus@16
$LN1@OnSnoopGui:

; 419  : }

  00095	8b 4d fc	 mov	 ecx, DWORD PTR __$ArrayPad$[ebp]
  00098	5e		 pop	 esi
  00099	33 cd		 xor	 ecx, ebp
  0009b	5b		 pop	 ebx
  0009c	e8 00 00 00 00	 call	 @__security_check_cookie@4
  000a1	8b e5		 mov	 esp, ebp
  000a3	5d		 pop	 ebp
  000a4	c2 0c 00	 ret	 12			; 0000000cH
?OnSnoopGuild@CDPCoreSrvr@@AAEXAAVCAr@@PAEK@Z ENDP	; CDPCoreSrvr::OnSnoopGuild
_TEXT	ENDS
; Function compile flags: /Ogtp
; File C:\IAGOS\server\v18\Source\Source\DatabaseServer\DPCoreSrvr.cpp
;	COMDAT ?OnWanted@CDPCoreSrvr@@AAEXAAVCAr@@PAEK@Z
_TEXT	SEGMENT
_ar$ = 8						; size = 4
_lpBuf$ = 12						; size = 4
_uBufSize$ = 16						; size = 4
?OnWanted@CDPCoreSrvr@@AAEXAAVCAr@@PAEK@Z PROC		; CDPCoreSrvr::OnWanted, COMDAT
; _this$ = ecx

; 385  : {

  00000	55		 push	 ebp
  00001	8b ec		 mov	 ebp, esp

; 386  : 	TRACE( "recv PACKETTYPE_CD_CASTVOTE\n" );
; 387  : 
; 388  : 	LPDB_OVERLAPPED_PLUS lpDbOverlappedPlus		= g_DbManager.AllocRequest();

  00003	8b 0d 00 00 00
	00		 mov	 ecx, DWORD PTR ?g_DbManager@@3AAVCDbManager@@A ; g_DbManager
  00009	56		 push	 esi
  0000a	e8 00 00 00 00	 call	 ?AllocRequest@CDbManager@@QAEPAUtagDB_OVERLAPPED_PLUS@@XZ ; CDbManager::AllocRequest

; 389  : 	g_DbManager.MakeRequest( lpDbOverlappedPlus, lpBuf, uBufSize );

  0000f	ff 75 10	 push	 DWORD PTR _uBufSize$[ebp]
  00012	8b 0d 00 00 00
	00		 mov	 ecx, DWORD PTR ?g_DbManager@@3AAVCDbManager@@A ; g_DbManager
  00018	8b f0		 mov	 esi, eax
  0001a	ff 75 0c	 push	 DWORD PTR _lpBuf$[ebp]
  0001d	56		 push	 esi
  0001e	e8 00 00 00 00	 call	 ?MakeRequest@CDbManager@@QAEXPAUtagDB_OVERLAPPED_PLUS@@PAEK@Z ; CDbManager::MakeRequest

; 390  : 	lpDbOverlappedPlus->nQueryMode	= WANTED_OP;
; 391  : 	PostQueuedCompletionStatus( g_DbManager.m_hIOCPGuild, 1, NULL, &lpDbOverlappedPlus->Overlapped );

  00023	56		 push	 esi
  00024	c7 46 14 3e 00
	00 00		 mov	 DWORD PTR [esi+20], 62	; 0000003eH
  0002b	a1 00 00 00 00	 mov	 eax, DWORD PTR ?g_DbManager@@3AAVCDbManager@@A ; g_DbManager
  00030	6a 00		 push	 0
  00032	6a 01		 push	 1
  00034	ff b0 3c 03 00
	00		 push	 DWORD PTR [eax+828]
  0003a	ff 15 00 00 00
	00		 call	 DWORD PTR __imp__PostQueuedCompletionStatus@16
  00040	5e		 pop	 esi

; 392  : }

  00041	5d		 pop	 ebp
  00042	c2 0c 00	 ret	 12			; 0000000cH
?OnWanted@CDPCoreSrvr@@AAEXAAVCAr@@PAEK@Z ENDP		; CDPCoreSrvr::OnWanted
_TEXT	ENDS
; Function compile flags: /Ogtp
; File C:\IAGOS\server\v18\Source\Source\DatabaseServer\DPCoreSrvr.cpp
;	COMDAT ?OnTag@CDPCoreSrvr@@AAEXAAVCAr@@PAEK@Z
_TEXT	SEGMENT
_ar$ = 8						; size = 4
_lpBuf$ = 12						; size = 4
_uBufSize$ = 16						; size = 4
?OnTag@CDPCoreSrvr@@AAEXAAVCAr@@PAEK@Z PROC		; CDPCoreSrvr::OnTag, COMDAT
; _this$ = ecx

; 344  : {

  00000	55		 push	 ebp
  00001	8b ec		 mov	 ebp, esp

; 345  : 	TRACE("CDPCoreSrvr::OnTag\n");
; 346  : 
; 347  : 	LPDB_OVERLAPPED_PLUS lpDbOverlappedPlus		= g_DbManager.AllocRequest();

  00003	8b 0d 00 00 00
	00		 mov	 ecx, DWORD PTR ?g_DbManager@@3AAVCDbManager@@A ; g_DbManager
  00009	56		 push	 esi
  0000a	e8 00 00 00 00	 call	 ?AllocRequest@CDbManager@@QAEPAUtagDB_OVERLAPPED_PLUS@@XZ ; CDbManager::AllocRequest

; 348  : 	g_DbManager.MakeRequest( lpDbOverlappedPlus, lpBuf, uBufSize );

  0000f	ff 75 10	 push	 DWORD PTR _uBufSize$[ebp]
  00012	8b 0d 00 00 00
	00		 mov	 ecx, DWORD PTR ?g_DbManager@@3AAVCDbManager@@A ; g_DbManager
  00018	8b f0		 mov	 esi, eax
  0001a	ff 75 0c	 push	 DWORD PTR _lpBuf$[ebp]
  0001d	56		 push	 esi
  0001e	e8 00 00 00 00	 call	 ?MakeRequest@CDbManager@@QAEXPAUtagDB_OVERLAPPED_PLUS@@PAEK@Z ; CDbManager::MakeRequest

; 349  : 	lpDbOverlappedPlus->nQueryMode	= INSERT_TAG;
; 350  : 	PostQueuedCompletionStatus( g_DbManager.m_hIOCPPut, 1, NULL, &lpDbOverlappedPlus->Overlapped );

  00023	56		 push	 esi
  00024	c7 46 14 34 00
	00 00		 mov	 DWORD PTR [esi+20], 52	; 00000034H
  0002b	a1 00 00 00 00	 mov	 eax, DWORD PTR ?g_DbManager@@3AAVCDbManager@@A ; g_DbManager
  00030	6a 00		 push	 0
  00032	6a 01		 push	 1
  00034	ff b0 34 03 00
	00		 push	 DWORD PTR [eax+820]
  0003a	ff 15 00 00 00
	00		 call	 DWORD PTR __imp__PostQueuedCompletionStatus@16
  00040	5e		 pop	 esi

; 351  : }

  00041	5d		 pop	 ebp
  00042	c2 0c 00	 ret	 12			; 0000000cH
?OnTag@CDPCoreSrvr@@AAEXAAVCAr@@PAEK@Z ENDP		; CDPCoreSrvr::OnTag
_TEXT	ENDS
; Function compile flags: /Ogtp
; File C:\IAGOS\server\v18\Source\Source\DatabaseServer\DPCoreSrvr.cpp
;	COMDAT ?OnAddPartyName@CDPCoreSrvr@@AAEXAAVCAr@@PAEK@Z
_TEXT	SEGMENT
_ar$ = 8						; size = 4
_lpBuf$ = 12						; size = 4
_uBufSize$ = 16						; size = 4
?OnAddPartyName@CDPCoreSrvr@@AAEXAAVCAr@@PAEK@Z PROC	; CDPCoreSrvr::OnAddPartyName, COMDAT
; _this$ = ecx

; 335  : {

  00000	55		 push	 ebp
  00001	8b ec		 mov	 ebp, esp

; 336  : 	LPDB_OVERLAPPED_PLUS lpDbOverlappedPlus		= g_DbManager.AllocRequest();

  00003	8b 0d 00 00 00
	00		 mov	 ecx, DWORD PTR ?g_DbManager@@3AAVCDbManager@@A ; g_DbManager
  00009	56		 push	 esi
  0000a	e8 00 00 00 00	 call	 ?AllocRequest@CDbManager@@QAEPAUtagDB_OVERLAPPED_PLUS@@XZ ; CDbManager::AllocRequest

; 337  : 	g_DbManager.MakeRequest( lpDbOverlappedPlus, lpBuf, uBufSize );

  0000f	ff 75 10	 push	 DWORD PTR _uBufSize$[ebp]
  00012	8b 0d 00 00 00
	00		 mov	 ecx, DWORD PTR ?g_DbManager@@3AAVCDbManager@@A ; g_DbManager
  00018	8b f0		 mov	 esi, eax
  0001a	ff 75 0c	 push	 DWORD PTR _lpBuf$[ebp]
  0001d	56		 push	 esi
  0001e	e8 00 00 00 00	 call	 ?MakeRequest@CDbManager@@QAEXPAUtagDB_OVERLAPPED_PLUS@@PAEK@Z ; CDbManager::MakeRequest

; 338  : 	lpDbOverlappedPlus->nQueryMode	= ADD_PARTYNAME;
; 339  : 	PostQueuedCompletionStatus( g_DbManager.m_hIOCPPut, 1, NULL, &lpDbOverlappedPlus->Overlapped );

  00023	56		 push	 esi
  00024	c7 46 14 2f 00
	00 00		 mov	 DWORD PTR [esi+20], 47	; 0000002fH
  0002b	a1 00 00 00 00	 mov	 eax, DWORD PTR ?g_DbManager@@3AAVCDbManager@@A ; g_DbManager
  00030	6a 00		 push	 0
  00032	6a 01		 push	 1
  00034	ff b0 34 03 00
	00		 push	 DWORD PTR [eax+820]
  0003a	ff 15 00 00 00
	00		 call	 DWORD PTR __imp__PostQueuedCompletionStatus@16
  00040	5e		 pop	 esi

; 340  : }

  00041	5d		 pop	 ebp
  00042	c2 0c 00	 ret	 12			; 0000000cH
?OnAddPartyName@CDPCoreSrvr@@AAEXAAVCAr@@PAEK@Z ENDP	; CDPCoreSrvr::OnAddPartyName
_TEXT	ENDS
; Function compile flags: /Ogtp
; File C:\IAGOS\server\v18\Source\Source\DatabaseServer\DPCoreSrvr.cpp
; File C:\IAGOS\server\v18\Source\Source\_Network\Net\Include\DPMng.h
; File C:\IAGOS\server\v18\Source\Source\DatabaseServer\DPCoreSrvr.cpp
;	COMDAT ?SendRemovePlayerFriend@CDPCoreSrvr@@QAEXKK@Z
_TEXT	SEGMENT
_nBufSize$ = -16428					; size = 4
$T2 = -16424						; size = 4
_ar$ = -16420						; size = 16404
__$ArrayPad$ = -16					; size = 4
__$EHRec$ = -12						; size = 12
_uPlayerId$ = 8						; size = 4
_uFriendId$ = 12					; size = 4
?SendRemovePlayerFriend@CDPCoreSrvr@@QAEXKK@Z PROC	; CDPCoreSrvr::SendRemovePlayerFriend, COMDAT
; _this$ = ecx

; 467  : {

  00000	55		 push	 ebp
  00001	8b ec		 mov	 ebp, esp
  00003	6a ff		 push	 -1
  00005	68 00 00 00 00	 push	 __ehhandler$?SendRemovePlayerFriend@CDPCoreSrvr@@QAEXKK@Z
  0000a	64 a1 00 00 00
	00		 mov	 eax, DWORD PTR fs:0
  00010	50		 push	 eax
  00011	b8 20 40 00 00	 mov	 eax, 16416		; 00004020H
  00016	e8 00 00 00 00	 call	 __chkstk
  0001b	a1 00 00 00 00	 mov	 eax, DWORD PTR ___security_cookie
  00020	33 c5		 xor	 eax, ebp
  00022	89 45 f0	 mov	 DWORD PTR __$ArrayPad$[ebp], eax
  00025	56		 push	 esi
  00026	50		 push	 eax
  00027	8d 45 f4	 lea	 eax, DWORD PTR __$EHRec$[ebp]
  0002a	64 a3 00 00 00
	00		 mov	 DWORD PTR fs:0, eax
  00030	8b f1		 mov	 esi, ecx

; 468  : 	BEFORESEND( ar, PACKETTYPE_REMOVEFRIEND );

  00032	6a 00		 push	 0
  00034	6a 00		 push	 0
  00036	8d 8d dc bf ff
	ff		 lea	 ecx, DWORD PTR _ar$[ebp]
  0003c	e8 00 00 00 00	 call	 ??0CAr@@QAE@PAXI@Z	; CAr::CAr
  00041	8d 85 d8 bf ff
	ff		 lea	 eax, DWORD PTR $T2[ebp]
  00047	c7 45 fc 00 00
	00 00		 mov	 DWORD PTR __$EHRec$[ebp+8], 0
  0004e	50		 push	 eax
  0004f	8d 8d dc bf ff
	ff		 lea	 ecx, DWORD PTR _ar$[ebp]
  00055	c7 85 d8 bf ff
	ff 6a ff ff ff	 mov	 DWORD PTR $T2[ebp], -150 ; ffffff6aH
  0005f	e8 00 00 00 00	 call	 ??$?6K@CAr@@QAEAAV0@ABK@Z ; CAr::operator<<<unsigned long>

; 469  : 	ar << uPlayerId << uFriendId;

  00064	8d 45 0c	 lea	 eax, DWORD PTR _uFriendId$[ebp]
  00067	50		 push	 eax
  00068	8d 45 08	 lea	 eax, DWORD PTR _uPlayerId$[ebp]
  0006b	50		 push	 eax
  0006c	8d 8d dc bf ff
	ff		 lea	 ecx, DWORD PTR _ar$[ebp]
  00072	e8 00 00 00 00	 call	 ??$?6K@CAr@@QAEAAV0@ABK@Z ; CAr::operator<<<unsigned long>
  00077	8b c8		 mov	 ecx, eax
  00079	e8 00 00 00 00	 call	 ??$?6K@CAr@@QAEAAV0@ABK@Z ; CAr::operator<<<unsigned long>

; 470  : 	SEND( ar, this, DPID_ALLPLAYERS );

  0007e	8d 85 d4 bf ff
	ff		 lea	 eax, DWORD PTR _nBufSize$[ebp]
  00084	50		 push	 eax
  00085	8d 8d dc bf ff
	ff		 lea	 ecx, DWORD PTR _ar$[ebp]
  0008b	e8 00 00 00 00	 call	 ?GetBuffer@CAr@@QAEPAEPAH@Z ; CAr::GetBuffer
; File C:\IAGOS\server\v18\Source\Source\_Network\Net\Include\DPMng.h

; 171  : 	if( !m_pDPSock )

  00090	8b 4e 04	 mov	 ecx, DWORD PTR [esi+4]
  00093	85 c9		 test	 ecx, ecx
  00095	74 0e		 je	 SHORT $LN4@SendRemove

; 172  : 		return FALSE;
; 173  : 	return m_pDPSock->Send( (char*)lpData, dwDataSize, dpidTo );

  00097	6a 00		 push	 0
  00099	ff b5 d4 bf ff
	ff		 push	 DWORD PTR _nBufSize$[ebp]
  0009f	50		 push	 eax
  000a0	e8 00 00 00 00	 call	 ?Send@CDPSock@@QAEHPADKK@Z ; CDPSock::Send
$LN4@SendRemove:
; File C:\IAGOS\server\v18\Source\Source\DatabaseServer\DPCoreSrvr.cpp

; 471  : }

  000a5	8d 8d dc bf ff
	ff		 lea	 ecx, DWORD PTR _ar$[ebp]
  000ab	e8 00 00 00 00	 call	 ??1CAr@@QAE@XZ		; CAr::~CAr
  000b0	8b 4d f4	 mov	 ecx, DWORD PTR __$EHRec$[ebp]
  000b3	64 89 0d 00 00
	00 00		 mov	 DWORD PTR fs:0, ecx
  000ba	59		 pop	 ecx
  000bb	5e		 pop	 esi
  000bc	8b 4d f0	 mov	 ecx, DWORD PTR __$ArrayPad$[ebp]
  000bf	33 cd		 xor	 ecx, ebp
  000c1	e8 00 00 00 00	 call	 @__security_check_cookie@4
  000c6	8b e5		 mov	 esp, ebp
  000c8	5d		 pop	 ebp
  000c9	c2 08 00	 ret	 8
_TEXT	ENDS
;	COMDAT text$x
text$x	SEGMENT
__unwindfunclet$?SendRemovePlayerFriend@CDPCoreSrvr@@QAEXKK@Z$0:
  00000	8d 8d dc bf ff
	ff		 lea	 ecx, DWORD PTR _ar$[ebp]
  00006	e9 00 00 00 00	 jmp	 ??1CAr@@QAE@XZ		; CAr::~CAr
  0000b	cc		 int	 3
  0000c	cc		 int	 3
  0000d	cc		 int	 3
  0000e	cc		 int	 3
  0000f	cc		 int	 3
__ehhandler$?SendRemovePlayerFriend@CDPCoreSrvr@@QAEXKK@Z:
  00010	90		 npad	 1
  00011	90		 npad	 1
  00012	8b 54 24 08	 mov	 edx, DWORD PTR [esp+8]
  00016	8d 42 0c	 lea	 eax, DWORD PTR [edx+12]
  00019	8b 8a d8 bf ff
	ff		 mov	 ecx, DWORD PTR [edx-16424]
  0001f	33 c8		 xor	 ecx, eax
  00021	e8 00 00 00 00	 call	 @__security_check_cookie@4
  00026	8b 4a fc	 mov	 ecx, DWORD PTR [edx-4]
  00029	33 c8		 xor	 ecx, eax
  0002b	e8 00 00 00 00	 call	 @__security_check_cookie@4
  00030	b8 00 00 00 00	 mov	 eax, OFFSET __ehfuncinfo$?SendRemovePlayerFriend@CDPCoreSrvr@@QAEXKK@Z
  00035	e9 00 00 00 00	 jmp	 ___CxxFrameHandler3
text$x	ENDS
?SendRemovePlayerFriend@CDPCoreSrvr@@QAEXKK@Z ENDP	; CDPCoreSrvr::SendRemovePlayerFriend
; Function compile flags: /Ogtp
; File C:\IAGOS\server\v18\Source\Source\DatabaseServer\DPCoreSrvr.cpp
;	COMDAT ?OnUpdateMessenger@CDPCoreSrvr@@AAEXAAVCAr@@PAEK@Z
_TEXT	SEGMENT
_ar$ = 8						; size = 4
_lpBuf$ = 12						; size = 4
_uBufSize$ = 16						; size = 4
?OnUpdateMessenger@CDPCoreSrvr@@AAEXAAVCAr@@PAEK@Z PROC	; CDPCoreSrvr::OnUpdateMessenger, COMDAT
; _this$ = ecx

; 459  : {

  00000	55		 push	 ebp
  00001	8b ec		 mov	 ebp, esp

; 460  : 	LPDB_OVERLAPPED_PLUS pov	= g_DbManager.AllocRequest();

  00003	8b 0d 00 00 00
	00		 mov	 ecx, DWORD PTR ?g_DbManager@@3AAVCDbManager@@A ; g_DbManager
  00009	56		 push	 esi
  0000a	e8 00 00 00 00	 call	 ?AllocRequest@CDbManager@@QAEPAUtagDB_OVERLAPPED_PLUS@@XZ ; CDbManager::AllocRequest

; 461  : 	g_DbManager.MakeRequest( pov, lpBuf, uBufSize );

  0000f	ff 75 10	 push	 DWORD PTR _uBufSize$[ebp]
  00012	8b 0d 00 00 00
	00		 mov	 ecx, DWORD PTR ?g_DbManager@@3AAVCDbManager@@A ; g_DbManager
  00018	8b f0		 mov	 esi, eax
  0001a	ff 75 0c	 push	 DWORD PTR _lpBuf$[ebp]
  0001d	56		 push	 esi
  0001e	e8 00 00 00 00	 call	 ?MakeRequest@CDbManager@@QAEXPAUtagDB_OVERLAPPED_PLUS@@PAEK@Z ; CDbManager::MakeRequest

; 462  : 	pov->nQueryMode	= QM_UPDATE_MESSENGER;
; 463  : 	PostQueuedCompletionStatus( g_DbManager.m_hIOCPPut, 1, NULL, &pov->Overlapped );

  00023	56		 push	 esi
  00024	c7 46 14 58 00
	00 00		 mov	 DWORD PTR [esi+20], 88	; 00000058H
  0002b	a1 00 00 00 00	 mov	 eax, DWORD PTR ?g_DbManager@@3AAVCDbManager@@A ; g_DbManager
  00030	6a 00		 push	 0
  00032	6a 01		 push	 1
  00034	ff b0 34 03 00
	00		 push	 DWORD PTR [eax+820]
  0003a	ff 15 00 00 00
	00		 call	 DWORD PTR __imp__PostQueuedCompletionStatus@16
  00040	5e		 pop	 esi

; 464  : }

  00041	5d		 pop	 ebp
  00042	c2 0c 00	 ret	 12			; 0000000cH
?OnUpdateMessenger@CDPCoreSrvr@@AAEXAAVCAr@@PAEK@Z ENDP	; CDPCoreSrvr::OnUpdateMessenger
_TEXT	ENDS
; Function compile flags: /Ogtp
; File C:\IAGOS\server\v18\Source\Source\DatabaseServer\DPCoreSrvr.cpp
;	COMDAT ?OnDeleteMessenger@CDPCoreSrvr@@AAEXAAVCAr@@PAEK@Z
_TEXT	SEGMENT
_ar$ = 8						; size = 4
_lpBuf$ = 12						; size = 4
_uBufSize$ = 16						; size = 4
?OnDeleteMessenger@CDPCoreSrvr@@AAEXAAVCAr@@PAEK@Z PROC	; CDPCoreSrvr::OnDeleteMessenger, COMDAT
; _this$ = ecx

; 451  : {

  00000	55		 push	 ebp
  00001	8b ec		 mov	 ebp, esp

; 452  : 	LPDB_OVERLAPPED_PLUS pov	= g_DbManager.AllocRequest();

  00003	8b 0d 00 00 00
	00		 mov	 ecx, DWORD PTR ?g_DbManager@@3AAVCDbManager@@A ; g_DbManager
  00009	56		 push	 esi
  0000a	e8 00 00 00 00	 call	 ?AllocRequest@CDbManager@@QAEPAUtagDB_OVERLAPPED_PLUS@@XZ ; CDbManager::AllocRequest

; 453  : 	g_DbManager.MakeRequest( pov, lpBuf, uBufSize );

  0000f	ff 75 10	 push	 DWORD PTR _uBufSize$[ebp]
  00012	8b 0d 00 00 00
	00		 mov	 ecx, DWORD PTR ?g_DbManager@@3AAVCDbManager@@A ; g_DbManager
  00018	8b f0		 mov	 esi, eax
  0001a	ff 75 0c	 push	 DWORD PTR _lpBuf$[ebp]
  0001d	56		 push	 esi
  0001e	e8 00 00 00 00	 call	 ?MakeRequest@CDbManager@@QAEXPAUtagDB_OVERLAPPED_PLUS@@PAEK@Z ; CDbManager::MakeRequest

; 454  : 	pov->nQueryMode	= QM_DELETE_MESSENGER;
; 455  : 	PostQueuedCompletionStatus( g_DbManager.m_hIOCPPut, 1, NULL, &pov->Overlapped );

  00023	56		 push	 esi
  00024	c7 46 14 57 00
	00 00		 mov	 DWORD PTR [esi+20], 87	; 00000057H
  0002b	a1 00 00 00 00	 mov	 eax, DWORD PTR ?g_DbManager@@3AAVCDbManager@@A ; g_DbManager
  00030	6a 00		 push	 0
  00032	6a 01		 push	 1
  00034	ff b0 34 03 00
	00		 push	 DWORD PTR [eax+820]
  0003a	ff 15 00 00 00
	00		 call	 DWORD PTR __imp__PostQueuedCompletionStatus@16
  00040	5e		 pop	 esi

; 456  : }

  00041	5d		 pop	 ebp
  00042	c2 0c 00	 ret	 12			; 0000000cH
?OnDeleteMessenger@CDPCoreSrvr@@AAEXAAVCAr@@PAEK@Z ENDP	; CDPCoreSrvr::OnDeleteMessenger
_TEXT	ENDS
; Function compile flags: /Ogtp
; File C:\IAGOS\server\v18\Source\Source\DatabaseServer\DPCoreSrvr.cpp
;	COMDAT ?OnAddMessenger@CDPCoreSrvr@@AAEXAAVCAr@@PAEK@Z
_TEXT	SEGMENT
_ar$ = 8						; size = 4
_lpBuf$ = 12						; size = 4
_uBufSize$ = 16						; size = 4
?OnAddMessenger@CDPCoreSrvr@@AAEXAAVCAr@@PAEK@Z PROC	; CDPCoreSrvr::OnAddMessenger, COMDAT
; _this$ = ecx

; 443  : {

  00000	55		 push	 ebp
  00001	8b ec		 mov	 ebp, esp

; 444  : 	LPDB_OVERLAPPED_PLUS pov	= g_DbManager.AllocRequest();

  00003	8b 0d 00 00 00
	00		 mov	 ecx, DWORD PTR ?g_DbManager@@3AAVCDbManager@@A ; g_DbManager
  00009	56		 push	 esi
  0000a	e8 00 00 00 00	 call	 ?AllocRequest@CDbManager@@QAEPAUtagDB_OVERLAPPED_PLUS@@XZ ; CDbManager::AllocRequest

; 445  : 	g_DbManager.MakeRequest( pov, lpBuf, uBufSize );

  0000f	ff 75 10	 push	 DWORD PTR _uBufSize$[ebp]
  00012	8b 0d 00 00 00
	00		 mov	 ecx, DWORD PTR ?g_DbManager@@3AAVCDbManager@@A ; g_DbManager
  00018	8b f0		 mov	 esi, eax
  0001a	ff 75 0c	 push	 DWORD PTR _lpBuf$[ebp]
  0001d	56		 push	 esi
  0001e	e8 00 00 00 00	 call	 ?MakeRequest@CDbManager@@QAEXPAUtagDB_OVERLAPPED_PLUS@@PAEK@Z ; CDbManager::MakeRequest

; 446  : 	pov->nQueryMode	= QM_ADD_MESSENGER;
; 447  : 	PostQueuedCompletionStatus( g_DbManager.m_hIOCPPut, 1, NULL, &pov->Overlapped );

  00023	56		 push	 esi
  00024	c7 46 14 56 00
	00 00		 mov	 DWORD PTR [esi+20], 86	; 00000056H
  0002b	a1 00 00 00 00	 mov	 eax, DWORD PTR ?g_DbManager@@3AAVCDbManager@@A ; g_DbManager
  00030	6a 00		 push	 0
  00032	6a 01		 push	 1
  00034	ff b0 34 03 00
	00		 push	 DWORD PTR [eax+820]
  0003a	ff 15 00 00 00
	00		 call	 DWORD PTR __imp__PostQueuedCompletionStatus@16
  00040	5e		 pop	 esi

; 448  : }

  00041	5d		 pop	 ebp
  00042	c2 0c 00	 ret	 12			; 0000000cH
?OnAddMessenger@CDPCoreSrvr@@AAEXAAVCAr@@PAEK@Z ENDP	; CDPCoreSrvr::OnAddMessenger
_TEXT	ENDS
; Function compile flags: /Ogtp
; File C:\IAGOS\server\v18\Source\Source\DatabaseServer\DPCoreSrvr.cpp
;	COMDAT ?OnWarMasterAbsent@CDPCoreSrvr@@AAEXAAVCAr@@PAEK@Z
_TEXT	SEGMENT
_ar$ = 8						; size = 4
_lpBuf$ = 12						; size = 4
_uBufSize$ = 16						; size = 4
?OnWarMasterAbsent@CDPCoreSrvr@@AAEXAAVCAr@@PAEK@Z PROC	; CDPCoreSrvr::OnWarMasterAbsent, COMDAT
; _this$ = ecx

; 326  : {

  00000	55		 push	 ebp
  00001	8b ec		 mov	 ebp, esp

; 327  : 	TRACE( "recv PACKETTYPE_WAR_MASTER_ABSENT\n" );
; 328  : 	LPDB_OVERLAPPED_PLUS lpDbOverlappedPlus		= g_DbManager.AllocRequest();

  00003	8b 0d 00 00 00
	00		 mov	 ecx, DWORD PTR ?g_DbManager@@3AAVCDbManager@@A ; g_DbManager
  00009	56		 push	 esi
  0000a	e8 00 00 00 00	 call	 ?AllocRequest@CDbManager@@QAEPAUtagDB_OVERLAPPED_PLUS@@XZ ; CDbManager::AllocRequest

; 329  : 	g_DbManager.MakeRequest( lpDbOverlappedPlus, lpBuf, uBufSize );

  0000f	ff 75 10	 push	 DWORD PTR _uBufSize$[ebp]
  00012	8b 0d 00 00 00
	00		 mov	 ecx, DWORD PTR ?g_DbManager@@3AAVCDbManager@@A ; g_DbManager
  00018	8b f0		 mov	 esi, eax
  0001a	ff 75 0c	 push	 DWORD PTR _lpBuf$[ebp]
  0001d	56		 push	 esi
  0001e	e8 00 00 00 00	 call	 ?MakeRequest@CDbManager@@QAEXPAUtagDB_OVERLAPPED_PLUS@@PAEK@Z ; CDbManager::MakeRequest

; 330  : 	lpDbOverlappedPlus->nQueryMode	= WAR_MASTER_ABSENT;
; 331  : 	PostQueuedCompletionStatus( g_DbManager.m_hIOCPGuild, 1, NULL, &lpDbOverlappedPlus->Overlapped );

  00023	56		 push	 esi
  00024	c7 46 14 2d 00
	00 00		 mov	 DWORD PTR [esi+20], 45	; 0000002dH
  0002b	a1 00 00 00 00	 mov	 eax, DWORD PTR ?g_DbManager@@3AAVCDbManager@@A ; g_DbManager
  00030	6a 00		 push	 0
  00032	6a 01		 push	 1
  00034	ff b0 3c 03 00
	00		 push	 DWORD PTR [eax+828]
  0003a	ff 15 00 00 00
	00		 call	 DWORD PTR __imp__PostQueuedCompletionStatus@16
  00040	5e		 pop	 esi

; 332  : }

  00041	5d		 pop	 ebp
  00042	c2 0c 00	 ret	 12			; 0000000cH
?OnWarMasterAbsent@CDPCoreSrvr@@AAEXAAVCAr@@PAEK@Z ENDP	; CDPCoreSrvr::OnWarMasterAbsent
_TEXT	ENDS
; Function compile flags: /Ogtp
; File C:\IAGOS\server\v18\Source\Source\DatabaseServer\DPCoreSrvr.cpp
;	COMDAT ?OnWarDead@CDPCoreSrvr@@AAEXAAVCAr@@PAEK@Z
_TEXT	SEGMENT
_ar$ = 8						; size = 4
_lpBuf$ = 12						; size = 4
_uBufSize$ = 16						; size = 4
?OnWarDead@CDPCoreSrvr@@AAEXAAVCAr@@PAEK@Z PROC		; CDPCoreSrvr::OnWarDead, COMDAT
; _this$ = ecx

; 317  : {

  00000	55		 push	 ebp
  00001	8b ec		 mov	 ebp, esp

; 318  : 	TRACE( "recv PACKETTYPE_WAR_DEAD\n" );
; 319  : 	LPDB_OVERLAPPED_PLUS lpDbOverlappedPlus		= g_DbManager.AllocRequest();

  00003	8b 0d 00 00 00
	00		 mov	 ecx, DWORD PTR ?g_DbManager@@3AAVCDbManager@@A ; g_DbManager
  00009	56		 push	 esi
  0000a	e8 00 00 00 00	 call	 ?AllocRequest@CDbManager@@QAEPAUtagDB_OVERLAPPED_PLUS@@XZ ; CDbManager::AllocRequest

; 320  : 	g_DbManager.MakeRequest( lpDbOverlappedPlus, lpBuf, uBufSize );

  0000f	ff 75 10	 push	 DWORD PTR _uBufSize$[ebp]
  00012	8b 0d 00 00 00
	00		 mov	 ecx, DWORD PTR ?g_DbManager@@3AAVCDbManager@@A ; g_DbManager
  00018	8b f0		 mov	 esi, eax
  0001a	ff 75 0c	 push	 DWORD PTR _lpBuf$[ebp]
  0001d	56		 push	 esi
  0001e	e8 00 00 00 00	 call	 ?MakeRequest@CDbManager@@QAEXPAUtagDB_OVERLAPPED_PLUS@@PAEK@Z ; CDbManager::MakeRequest

; 321  : 	lpDbOverlappedPlus->nQueryMode	= WAR_DEAD;
; 322  : 	PostQueuedCompletionStatus( g_DbManager.m_hIOCPGuild, 1, NULL, &lpDbOverlappedPlus->Overlapped );

  00023	56		 push	 esi
  00024	c7 46 14 2c 00
	00 00		 mov	 DWORD PTR [esi+20], 44	; 0000002cH
  0002b	a1 00 00 00 00	 mov	 eax, DWORD PTR ?g_DbManager@@3AAVCDbManager@@A ; g_DbManager
  00030	6a 00		 push	 0
  00032	6a 01		 push	 1
  00034	ff b0 3c 03 00
	00		 push	 DWORD PTR [eax+828]
  0003a	ff 15 00 00 00
	00		 call	 DWORD PTR __imp__PostQueuedCompletionStatus@16
  00040	5e		 pop	 esi

; 323  : }

  00041	5d		 pop	 ebp
  00042	c2 0c 00	 ret	 12			; 0000000cH
?OnWarDead@CDPCoreSrvr@@AAEXAAVCAr@@PAEK@Z ENDP		; CDPCoreSrvr::OnWarDead
_TEXT	ENDS
; Function compile flags: /Ogtp
; File C:\IAGOS\server\v18\Source\Source\DatabaseServer\DPCoreSrvr.cpp
;	COMDAT ?OnSurrender@CDPCoreSrvr@@AAEXAAVCAr@@PAEK@Z
_TEXT	SEGMENT
_ar$ = 8						; size = 4
_lpBuf$ = 12						; size = 4
_uBufSize$ = 16						; size = 4
?OnSurrender@CDPCoreSrvr@@AAEXAAVCAr@@PAEK@Z PROC	; CDPCoreSrvr::OnSurrender, COMDAT
; _this$ = ecx

; 308  : {

  00000	55		 push	 ebp
  00001	8b ec		 mov	 ebp, esp

; 309  : 	TRACE( "recv PACKETTYPE_SURRENDER\n" );
; 310  : 	LPDB_OVERLAPPED_PLUS lpDbOverlappedPlus		= g_DbManager.AllocRequest();

  00003	8b 0d 00 00 00
	00		 mov	 ecx, DWORD PTR ?g_DbManager@@3AAVCDbManager@@A ; g_DbManager
  00009	56		 push	 esi
  0000a	e8 00 00 00 00	 call	 ?AllocRequest@CDbManager@@QAEPAUtagDB_OVERLAPPED_PLUS@@XZ ; CDbManager::AllocRequest

; 311  : 	g_DbManager.MakeRequest( lpDbOverlappedPlus, lpBuf, uBufSize );

  0000f	ff 75 10	 push	 DWORD PTR _uBufSize$[ebp]
  00012	8b 0d 00 00 00
	00		 mov	 ecx, DWORD PTR ?g_DbManager@@3AAVCDbManager@@A ; g_DbManager
  00018	8b f0		 mov	 esi, eax
  0001a	ff 75 0c	 push	 DWORD PTR _lpBuf$[ebp]
  0001d	56		 push	 esi
  0001e	e8 00 00 00 00	 call	 ?MakeRequest@CDbManager@@QAEXPAUtagDB_OVERLAPPED_PLUS@@PAEK@Z ; CDbManager::MakeRequest

; 312  : 	lpDbOverlappedPlus->nQueryMode	= SURRENDER;
; 313  : 	PostQueuedCompletionStatus( g_DbManager.m_hIOCPGuild, 1, NULL, &lpDbOverlappedPlus->Overlapped );

  00023	56		 push	 esi
  00024	c7 46 14 2b 00
	00 00		 mov	 DWORD PTR [esi+20], 43	; 0000002bH
  0002b	a1 00 00 00 00	 mov	 eax, DWORD PTR ?g_DbManager@@3AAVCDbManager@@A ; g_DbManager
  00030	6a 00		 push	 0
  00032	6a 01		 push	 1
  00034	ff b0 3c 03 00
	00		 push	 DWORD PTR [eax+828]
  0003a	ff 15 00 00 00
	00		 call	 DWORD PTR __imp__PostQueuedCompletionStatus@16
  00040	5e		 pop	 esi

; 314  : }

  00041	5d		 pop	 ebp
  00042	c2 0c 00	 ret	 12			; 0000000cH
?OnSurrender@CDPCoreSrvr@@AAEXAAVCAr@@PAEK@Z ENDP	; CDPCoreSrvr::OnSurrender
_TEXT	ENDS
; Function compile flags: /Ogtp
; File C:\IAGOS\server\v18\Source\Source\DatabaseServer\DPCoreSrvr.cpp
;	COMDAT ?OnWarEnd@CDPCoreSrvr@@AAEXAAVCAr@@PAEK@Z
_TEXT	SEGMENT
_ar$ = 8						; size = 4
_lpBuf$ = 12						; size = 4
_uBufSize$ = 16						; size = 4
?OnWarEnd@CDPCoreSrvr@@AAEXAAVCAr@@PAEK@Z PROC		; CDPCoreSrvr::OnWarEnd, COMDAT
; _this$ = ecx

; 299  : {

  00000	55		 push	 ebp
  00001	8b ec		 mov	 ebp, esp

; 300  : 	TRACE( "recv PACKETTYPE_WAR_END\n" );
; 301  : 	LPDB_OVERLAPPED_PLUS lpDbOverlappedPlus		= g_DbManager.AllocRequest();

  00003	8b 0d 00 00 00
	00		 mov	 ecx, DWORD PTR ?g_DbManager@@3AAVCDbManager@@A ; g_DbManager
  00009	56		 push	 esi
  0000a	e8 00 00 00 00	 call	 ?AllocRequest@CDbManager@@QAEPAUtagDB_OVERLAPPED_PLUS@@XZ ; CDbManager::AllocRequest

; 302  : 	g_DbManager.MakeRequest( lpDbOverlappedPlus, lpBuf, uBufSize );

  0000f	ff 75 10	 push	 DWORD PTR _uBufSize$[ebp]
  00012	8b 0d 00 00 00
	00		 mov	 ecx, DWORD PTR ?g_DbManager@@3AAVCDbManager@@A ; g_DbManager
  00018	8b f0		 mov	 esi, eax
  0001a	ff 75 0c	 push	 DWORD PTR _lpBuf$[ebp]
  0001d	56		 push	 esi
  0001e	e8 00 00 00 00	 call	 ?MakeRequest@CDbManager@@QAEXPAUtagDB_OVERLAPPED_PLUS@@PAEK@Z ; CDbManager::MakeRequest

; 303  : 	lpDbOverlappedPlus->nQueryMode	= WAR_END;
; 304  : 	PostQueuedCompletionStatus( g_DbManager.m_hIOCPGuild, 1, NULL, &lpDbOverlappedPlus->Overlapped );

  00023	56		 push	 esi
  00024	c7 46 14 2a 00
	00 00		 mov	 DWORD PTR [esi+20], 42	; 0000002aH
  0002b	a1 00 00 00 00	 mov	 eax, DWORD PTR ?g_DbManager@@3AAVCDbManager@@A ; g_DbManager
  00030	6a 00		 push	 0
  00032	6a 01		 push	 1
  00034	ff b0 3c 03 00
	00		 push	 DWORD PTR [eax+828]
  0003a	ff 15 00 00 00
	00		 call	 DWORD PTR __imp__PostQueuedCompletionStatus@16
  00040	5e		 pop	 esi

; 305  : }

  00041	5d		 pop	 ebp
  00042	c2 0c 00	 ret	 12			; 0000000cH
?OnWarEnd@CDPCoreSrvr@@AAEXAAVCAr@@PAEK@Z ENDP		; CDPCoreSrvr::OnWarEnd
_TEXT	ENDS
; Function compile flags: /Ogtp
; File C:\IAGOS\server\v18\Source\Source\DatabaseServer\DPCoreSrvr.cpp
;	COMDAT ?OnAcptWar@CDPCoreSrvr@@AAEXAAVCAr@@PAEK@Z
_TEXT	SEGMENT
_ar$ = 8						; size = 4
_lpBuf$ = 12						; size = 4
_uBufSize$ = 16						; size = 4
?OnAcptWar@CDPCoreSrvr@@AAEXAAVCAr@@PAEK@Z PROC		; CDPCoreSrvr::OnAcptWar, COMDAT
; _this$ = ecx

; 290  : {

  00000	55		 push	 ebp
  00001	8b ec		 mov	 ebp, esp

; 291  : 	TRACE( "recv PACKETTYPE_ACPT_GUILD_WAR\n" );
; 292  : 	LPDB_OVERLAPPED_PLUS lpDbOverlappedPlus		= g_DbManager.AllocRequest();

  00003	8b 0d 00 00 00
	00		 mov	 ecx, DWORD PTR ?g_DbManager@@3AAVCDbManager@@A ; g_DbManager
  00009	56		 push	 esi
  0000a	e8 00 00 00 00	 call	 ?AllocRequest@CDbManager@@QAEPAUtagDB_OVERLAPPED_PLUS@@XZ ; CDbManager::AllocRequest

; 293  : 	g_DbManager.MakeRequest( lpDbOverlappedPlus, lpBuf, uBufSize );

  0000f	ff 75 10	 push	 DWORD PTR _uBufSize$[ebp]
  00012	8b 0d 00 00 00
	00		 mov	 ecx, DWORD PTR ?g_DbManager@@3AAVCDbManager@@A ; g_DbManager
  00018	8b f0		 mov	 esi, eax
  0001a	ff 75 0c	 push	 DWORD PTR _lpBuf$[ebp]
  0001d	56		 push	 esi
  0001e	e8 00 00 00 00	 call	 ?MakeRequest@CDbManager@@QAEXPAUtagDB_OVERLAPPED_PLUS@@PAEK@Z ; CDbManager::MakeRequest

; 294  : 	lpDbOverlappedPlus->nQueryMode	= ACPT_GUILD_WAR;
; 295  : 	PostQueuedCompletionStatus( g_DbManager.m_hIOCPGuild, 1, NULL, &lpDbOverlappedPlus->Overlapped );

  00023	56		 push	 esi
  00024	c7 46 14 29 00
	00 00		 mov	 DWORD PTR [esi+20], 41	; 00000029H
  0002b	a1 00 00 00 00	 mov	 eax, DWORD PTR ?g_DbManager@@3AAVCDbManager@@A ; g_DbManager
  00030	6a 00		 push	 0
  00032	6a 01		 push	 1
  00034	ff b0 3c 03 00
	00		 push	 DWORD PTR [eax+828]
  0003a	ff 15 00 00 00
	00		 call	 DWORD PTR __imp__PostQueuedCompletionStatus@16
  00040	5e		 pop	 esi

; 296  : }

  00041	5d		 pop	 ebp
  00042	c2 0c 00	 ret	 12			; 0000000cH
?OnAcptWar@CDPCoreSrvr@@AAEXAAVCAr@@PAEK@Z ENDP		; CDPCoreSrvr::OnAcptWar
_TEXT	ENDS
; Function compile flags: /Ogtp
; File C:\IAGOS\server\v18\Source\Source\DatabaseServer\DPCoreSrvr.cpp
;	COMDAT ?OnGuildSetName@CDPCoreSrvr@@AAEXAAVCAr@@PAEK@Z
_TEXT	SEGMENT
_ar$ = 8						; size = 4
_lpBuf$ = 12						; size = 4
_uBufSize$ = 16						; size = 4
?OnGuildSetName@CDPCoreSrvr@@AAEXAAVCAr@@PAEK@Z PROC	; CDPCoreSrvr::OnGuildSetName, COMDAT
; _this$ = ecx

; 280  : {

  00000	55		 push	 ebp
  00001	8b ec		 mov	 ebp, esp

; 281  : 	TRACE( "D CDPCoreSrvr::OnGuildSetName\n" );
; 282  : 	LPDB_OVERLAPPED_PLUS lpDbOverlappedPlus		= g_DbManager.AllocRequest();

  00003	8b 0d 00 00 00
	00		 mov	 ecx, DWORD PTR ?g_DbManager@@3AAVCDbManager@@A ; g_DbManager
  00009	56		 push	 esi
  0000a	e8 00 00 00 00	 call	 ?AllocRequest@CDbManager@@QAEPAUtagDB_OVERLAPPED_PLUS@@XZ ; CDbManager::AllocRequest

; 283  : 	g_DbManager.MakeRequest( lpDbOverlappedPlus, lpBuf, uBufSize );

  0000f	ff 75 10	 push	 DWORD PTR _uBufSize$[ebp]
  00012	8b 0d 00 00 00
	00		 mov	 ecx, DWORD PTR ?g_DbManager@@3AAVCDbManager@@A ; g_DbManager
  00018	8b f0		 mov	 esi, eax
  0001a	ff 75 0c	 push	 DWORD PTR _lpBuf$[ebp]
  0001d	56		 push	 esi
  0001e	e8 00 00 00 00	 call	 ?MakeRequest@CDbManager@@QAEXPAUtagDB_OVERLAPPED_PLUS@@PAEK@Z ; CDbManager::MakeRequest

; 284  : 	lpDbOverlappedPlus->nQueryMode	= GUILD_SETNAME;
; 285  : 	PostQueuedCompletionStatus( g_DbManager.m_hIOCPGuild, 1, NULL, &lpDbOverlappedPlus->Overlapped );

  00023	56		 push	 esi
  00024	c7 46 14 1d 00
	00 00		 mov	 DWORD PTR [esi+20], 29	; 0000001dH
  0002b	a1 00 00 00 00	 mov	 eax, DWORD PTR ?g_DbManager@@3AAVCDbManager@@A ; g_DbManager
  00030	6a 00		 push	 0
  00032	6a 01		 push	 1
  00034	ff b0 3c 03 00
	00		 push	 DWORD PTR [eax+828]
  0003a	ff 15 00 00 00
	00		 call	 DWORD PTR __imp__PostQueuedCompletionStatus@16
  00040	5e		 pop	 esi

; 286  : }

  00041	5d		 pop	 ebp
  00042	c2 0c 00	 ret	 12			; 0000000cH
?OnGuildSetName@CDPCoreSrvr@@AAEXAAVCAr@@PAEK@Z ENDP	; CDPCoreSrvr::OnGuildSetName
_TEXT	ENDS
; Function compile flags: /Ogtp
; File C:\IAGOS\server\v18\Source\Source\DatabaseServer\DPCoreSrvr.cpp
;	COMDAT ?OnGuildAuthority@CDPCoreSrvr@@AAEXAAVCAr@@PAEK@Z
_TEXT	SEGMENT
_ar$ = 8						; size = 4
_lpBuf$ = 12						; size = 4
_uBufSize$ = 16						; size = 4
?OnGuildAuthority@CDPCoreSrvr@@AAEXAAVCAr@@PAEK@Z PROC	; CDPCoreSrvr::OnGuildAuthority, COMDAT
; _this$ = ecx

; 262  : {

  00000	55		 push	 ebp
  00001	8b ec		 mov	 ebp, esp

; 263  : 	TRACE( "D CDPCoreSrvr::OnGuildAuthority\n" );
; 264  : 	LPDB_OVERLAPPED_PLUS lpDbOverlappedPlus		= g_DbManager.AllocRequest();

  00003	8b 0d 00 00 00
	00		 mov	 ecx, DWORD PTR ?g_DbManager@@3AAVCDbManager@@A ; g_DbManager
  00009	56		 push	 esi
  0000a	e8 00 00 00 00	 call	 ?AllocRequest@CDbManager@@QAEPAUtagDB_OVERLAPPED_PLUS@@XZ ; CDbManager::AllocRequest

; 265  : 	g_DbManager.MakeRequest( lpDbOverlappedPlus, lpBuf, uBufSize );

  0000f	ff 75 10	 push	 DWORD PTR _uBufSize$[ebp]
  00012	8b 0d 00 00 00
	00		 mov	 ecx, DWORD PTR ?g_DbManager@@3AAVCDbManager@@A ; g_DbManager
  00018	8b f0		 mov	 esi, eax
  0001a	ff 75 0c	 push	 DWORD PTR _lpBuf$[ebp]
  0001d	56		 push	 esi
  0001e	e8 00 00 00 00	 call	 ?MakeRequest@CDbManager@@QAEXPAUtagDB_OVERLAPPED_PLUS@@PAEK@Z ; CDbManager::MakeRequest

; 266  : 	lpDbOverlappedPlus->nQueryMode	= UPDATE_GUILD_AUTHORITY;
; 267  : 	PostQueuedCompletionStatus( g_DbManager.m_hIOCPGuild, 1, NULL, &lpDbOverlappedPlus->Overlapped );

  00023	56		 push	 esi
  00024	c7 46 14 1b 00
	00 00		 mov	 DWORD PTR [esi+20], 27	; 0000001bH
  0002b	a1 00 00 00 00	 mov	 eax, DWORD PTR ?g_DbManager@@3AAVCDbManager@@A ; g_DbManager
  00030	6a 00		 push	 0
  00032	6a 01		 push	 1
  00034	ff b0 3c 03 00
	00		 push	 DWORD PTR [eax+828]
  0003a	ff 15 00 00 00
	00		 call	 DWORD PTR __imp__PostQueuedCompletionStatus@16
  00040	5e		 pop	 esi

; 268  : }

  00041	5d		 pop	 ebp
  00042	c2 0c 00	 ret	 12			; 0000000cH
?OnGuildAuthority@CDPCoreSrvr@@AAEXAAVCAr@@PAEK@Z ENDP	; CDPCoreSrvr::OnGuildAuthority
_TEXT	ENDS
; Function compile flags: /Ogtp
; File C:\IAGOS\server\v18\Source\Source\DatabaseServer\DPCoreSrvr.cpp
;	COMDAT ?OnGuildPenya@CDPCoreSrvr@@AAEXAAVCAr@@PAEK@Z
_TEXT	SEGMENT
_ar$ = 8						; size = 4
_lpBuf$ = 12						; size = 4
_uBufSize$ = 16						; size = 4
?OnGuildPenya@CDPCoreSrvr@@AAEXAAVCAr@@PAEK@Z PROC	; CDPCoreSrvr::OnGuildPenya, COMDAT
; _this$ = ecx

; 271  : {

  00000	55		 push	 ebp
  00001	8b ec		 mov	 ebp, esp

; 272  : 	TRACE( "D CDPCoreSrvr::OnGuildPenya\n" );
; 273  : 	LPDB_OVERLAPPED_PLUS lpDbOverlappedPlus		= g_DbManager.AllocRequest();

  00003	8b 0d 00 00 00
	00		 mov	 ecx, DWORD PTR ?g_DbManager@@3AAVCDbManager@@A ; g_DbManager
  00009	56		 push	 esi
  0000a	e8 00 00 00 00	 call	 ?AllocRequest@CDbManager@@QAEPAUtagDB_OVERLAPPED_PLUS@@XZ ; CDbManager::AllocRequest

; 274  : 	g_DbManager.MakeRequest( lpDbOverlappedPlus, lpBuf, uBufSize );

  0000f	ff 75 10	 push	 DWORD PTR _uBufSize$[ebp]
  00012	8b 0d 00 00 00
	00		 mov	 ecx, DWORD PTR ?g_DbManager@@3AAVCDbManager@@A ; g_DbManager
  00018	8b f0		 mov	 esi, eax
  0001a	ff 75 0c	 push	 DWORD PTR _lpBuf$[ebp]
  0001d	56		 push	 esi
  0001e	e8 00 00 00 00	 call	 ?MakeRequest@CDbManager@@QAEXPAUtagDB_OVERLAPPED_PLUS@@PAEK@Z ; CDbManager::MakeRequest

; 275  : 	lpDbOverlappedPlus->nQueryMode	= UPDATE_GUILD_PENYA;
; 276  : 	PostQueuedCompletionStatus( g_DbManager.m_hIOCPGuild, 1, NULL, &lpDbOverlappedPlus->Overlapped );

  00023	56		 push	 esi
  00024	c7 46 14 1c 00
	00 00		 mov	 DWORD PTR [esi+20], 28	; 0000001cH
  0002b	a1 00 00 00 00	 mov	 eax, DWORD PTR ?g_DbManager@@3AAVCDbManager@@A ; g_DbManager
  00030	6a 00		 push	 0
  00032	6a 01		 push	 1
  00034	ff b0 3c 03 00
	00		 push	 DWORD PTR [eax+828]
  0003a	ff 15 00 00 00
	00		 call	 DWORD PTR __imp__PostQueuedCompletionStatus@16
  00040	5e		 pop	 esi

; 277  : }

  00041	5d		 pop	 ebp
  00042	c2 0c 00	 ret	 12			; 0000000cH
?OnGuildPenya@CDPCoreSrvr@@AAEXAAVCAr@@PAEK@Z ENDP	; CDPCoreSrvr::OnGuildPenya
_TEXT	ENDS
; Function compile flags: /Ogtp
; File C:\IAGOS\server\v18\Source\Source\DatabaseServer\DPCoreSrvr.cpp
;	COMDAT ?OnCastVote@CDPCoreSrvr@@AAEXAAVCAr@@PAEK@Z
_TEXT	SEGMENT
_ar$ = 8						; size = 4
_lpBuf$ = 12						; size = 4
_uBufSize$ = 16						; size = 4
?OnCastVote@CDPCoreSrvr@@AAEXAAVCAr@@PAEK@Z PROC	; CDPCoreSrvr::OnCastVote, COMDAT
; _this$ = ecx

; 244  : {

  00000	55		 push	 ebp
  00001	8b ec		 mov	 ebp, esp

; 245  : 	TRACE( "recv PACKETTYPE_CD_CASTVOTE\n" );
; 246  : 	LPDB_OVERLAPPED_PLUS lpDbOverlappedPlus		= g_DbManager.AllocRequest();

  00003	8b 0d 00 00 00
	00		 mov	 ecx, DWORD PTR ?g_DbManager@@3AAVCDbManager@@A ; g_DbManager
  00009	56		 push	 esi
  0000a	e8 00 00 00 00	 call	 ?AllocRequest@CDbManager@@QAEPAUtagDB_OVERLAPPED_PLUS@@XZ ; CDbManager::AllocRequest

; 247  : 	g_DbManager.MakeRequest( lpDbOverlappedPlus, lpBuf, uBufSize );

  0000f	ff 75 10	 push	 DWORD PTR _uBufSize$[ebp]
  00012	8b 0d 00 00 00
	00		 mov	 ecx, DWORD PTR ?g_DbManager@@3AAVCDbManager@@A ; g_DbManager
  00018	8b f0		 mov	 esi, eax
  0001a	ff 75 0c	 push	 DWORD PTR _lpBuf$[ebp]
  0001d	56		 push	 esi
  0001e	e8 00 00 00 00	 call	 ?MakeRequest@CDbManager@@QAEXPAUtagDB_OVERLAPPED_PLUS@@PAEK@Z ; CDbManager::MakeRequest

; 248  : 	lpDbOverlappedPlus->nQueryMode	= CAST_GUILD_VOTE;
; 249  : 	PostQueuedCompletionStatus( g_DbManager.m_hIOCPGuild, 1, NULL, &lpDbOverlappedPlus->Overlapped );

  00023	56		 push	 esi
  00024	c7 46 14 26 00
	00 00		 mov	 DWORD PTR [esi+20], 38	; 00000026H
  0002b	a1 00 00 00 00	 mov	 eax, DWORD PTR ?g_DbManager@@3AAVCDbManager@@A ; g_DbManager
  00030	6a 00		 push	 0
  00032	6a 01		 push	 1
  00034	ff b0 3c 03 00
	00		 push	 DWORD PTR [eax+828]
  0003a	ff 15 00 00 00
	00		 call	 DWORD PTR __imp__PostQueuedCompletionStatus@16
  00040	5e		 pop	 esi

; 250  : }

  00041	5d		 pop	 ebp
  00042	c2 0c 00	 ret	 12			; 0000000cH
?OnCastVote@CDPCoreSrvr@@AAEXAAVCAr@@PAEK@Z ENDP	; CDPCoreSrvr::OnCastVote
_TEXT	ENDS
; Function compile flags: /Ogtp
; File C:\IAGOS\server\v18\Source\Source\DatabaseServer\DPCoreSrvr.cpp
;	COMDAT ?OnCloseVote@CDPCoreSrvr@@AAEXAAVCAr@@PAEK@Z
_TEXT	SEGMENT
_ar$ = 8						; size = 4
_lpBuf$ = 12						; size = 4
_uBufSize$ = 16						; size = 4
?OnCloseVote@CDPCoreSrvr@@AAEXAAVCAr@@PAEK@Z PROC	; CDPCoreSrvr::OnCloseVote, COMDAT
; _this$ = ecx

; 235  : {

  00000	55		 push	 ebp
  00001	8b ec		 mov	 ebp, esp

; 236  : 	TRACE( "recv PACKETTYPE_CD_CLOSEVOTE\n" );
; 237  : 	LPDB_OVERLAPPED_PLUS lpDbOverlappedPlus		= g_DbManager.AllocRequest();

  00003	8b 0d 00 00 00
	00		 mov	 ecx, DWORD PTR ?g_DbManager@@3AAVCDbManager@@A ; g_DbManager
  00009	56		 push	 esi
  0000a	e8 00 00 00 00	 call	 ?AllocRequest@CDbManager@@QAEPAUtagDB_OVERLAPPED_PLUS@@XZ ; CDbManager::AllocRequest

; 238  : 	g_DbManager.MakeRequest( lpDbOverlappedPlus, lpBuf, uBufSize );

  0000f	ff 75 10	 push	 DWORD PTR _uBufSize$[ebp]
  00012	8b 0d 00 00 00
	00		 mov	 ecx, DWORD PTR ?g_DbManager@@3AAVCDbManager@@A ; g_DbManager
  00018	8b f0		 mov	 esi, eax
  0001a	ff 75 0c	 push	 DWORD PTR _lpBuf$[ebp]
  0001d	56		 push	 esi
  0001e	e8 00 00 00 00	 call	 ?MakeRequest@CDbManager@@QAEXPAUtagDB_OVERLAPPED_PLUS@@PAEK@Z ; CDbManager::MakeRequest

; 239  : 	lpDbOverlappedPlus->nQueryMode	= CLOSE_GUILD_VOTE;
; 240  : 	PostQueuedCompletionStatus( g_DbManager.m_hIOCPGuild, 1, NULL, &lpDbOverlappedPlus->Overlapped );

  00023	56		 push	 esi
  00024	c7 46 14 25 00
	00 00		 mov	 DWORD PTR [esi+20], 37	; 00000025H
  0002b	a1 00 00 00 00	 mov	 eax, DWORD PTR ?g_DbManager@@3AAVCDbManager@@A ; g_DbManager
  00030	6a 00		 push	 0
  00032	6a 01		 push	 1
  00034	ff b0 3c 03 00
	00		 push	 DWORD PTR [eax+828]
  0003a	ff 15 00 00 00
	00		 call	 DWORD PTR __imp__PostQueuedCompletionStatus@16
  00040	5e		 pop	 esi

; 241  : }

  00041	5d		 pop	 ebp
  00042	c2 0c 00	 ret	 12			; 0000000cH
?OnCloseVote@CDPCoreSrvr@@AAEXAAVCAr@@PAEK@Z ENDP	; CDPCoreSrvr::OnCloseVote
_TEXT	ENDS
; Function compile flags: /Ogtp
; File C:\IAGOS\server\v18\Source\Source\DatabaseServer\DPCoreSrvr.cpp
;	COMDAT ?OnRemoveVote@CDPCoreSrvr@@AAEXAAVCAr@@PAEK@Z
_TEXT	SEGMENT
_ar$ = 8						; size = 4
_lpBuf$ = 12						; size = 4
_uBufSize$ = 16						; size = 4
?OnRemoveVote@CDPCoreSrvr@@AAEXAAVCAr@@PAEK@Z PROC	; CDPCoreSrvr::OnRemoveVote, COMDAT
; _this$ = ecx

; 226  : {

  00000	55		 push	 ebp
  00001	8b ec		 mov	 ebp, esp

; 227  : 	TRACE( "recv PACKETTYPE_CD_REMOVEVOTE\n" );
; 228  : 	LPDB_OVERLAPPED_PLUS lpDbOverlappedPlus		= g_DbManager.AllocRequest();

  00003	8b 0d 00 00 00
	00		 mov	 ecx, DWORD PTR ?g_DbManager@@3AAVCDbManager@@A ; g_DbManager
  00009	56		 push	 esi
  0000a	e8 00 00 00 00	 call	 ?AllocRequest@CDbManager@@QAEPAUtagDB_OVERLAPPED_PLUS@@XZ ; CDbManager::AllocRequest

; 229  : 	g_DbManager.MakeRequest( lpDbOverlappedPlus, lpBuf, uBufSize );

  0000f	ff 75 10	 push	 DWORD PTR _uBufSize$[ebp]
  00012	8b 0d 00 00 00
	00		 mov	 ecx, DWORD PTR ?g_DbManager@@3AAVCDbManager@@A ; g_DbManager
  00018	8b f0		 mov	 esi, eax
  0001a	ff 75 0c	 push	 DWORD PTR _lpBuf$[ebp]
  0001d	56		 push	 esi
  0001e	e8 00 00 00 00	 call	 ?MakeRequest@CDbManager@@QAEXPAUtagDB_OVERLAPPED_PLUS@@PAEK@Z ; CDbManager::MakeRequest

; 230  : 	lpDbOverlappedPlus->nQueryMode	= REMOVE_GUILD_VOTE;
; 231  : 	PostQueuedCompletionStatus( g_DbManager.m_hIOCPGuild, 1, NULL, &lpDbOverlappedPlus->Overlapped );

  00023	56		 push	 esi
  00024	c7 46 14 24 00
	00 00		 mov	 DWORD PTR [esi+20], 36	; 00000024H
  0002b	a1 00 00 00 00	 mov	 eax, DWORD PTR ?g_DbManager@@3AAVCDbManager@@A ; g_DbManager
  00030	6a 00		 push	 0
  00032	6a 01		 push	 1
  00034	ff b0 3c 03 00
	00		 push	 DWORD PTR [eax+828]
  0003a	ff 15 00 00 00
	00		 call	 DWORD PTR __imp__PostQueuedCompletionStatus@16
  00040	5e		 pop	 esi

; 232  : }

  00041	5d		 pop	 ebp
  00042	c2 0c 00	 ret	 12			; 0000000cH
?OnRemoveVote@CDPCoreSrvr@@AAEXAAVCAr@@PAEK@Z ENDP	; CDPCoreSrvr::OnRemoveVote
_TEXT	ENDS
; Function compile flags: /Ogtp
; File C:\IAGOS\server\v18\Source\Source\DatabaseServer\DPCoreSrvr.cpp
;	COMDAT ?OnAddVote@CDPCoreSrvr@@AAEXAAVCAr@@PAEK@Z
_TEXT	SEGMENT
_ar$ = 8						; size = 4
_lpBuf$ = 12						; size = 4
_uBufSize$ = 16						; size = 4
?OnAddVote@CDPCoreSrvr@@AAEXAAVCAr@@PAEK@Z PROC		; CDPCoreSrvr::OnAddVote, COMDAT
; _this$ = ecx

; 217  : {

  00000	55		 push	 ebp
  00001	8b ec		 mov	 ebp, esp

; 218  : 	TRACE( "recv PACKETTYPE_CD_ADDVOTE\n" );
; 219  : 	LPDB_OVERLAPPED_PLUS lpDbOverlappedPlus		= g_DbManager.AllocRequest();

  00003	8b 0d 00 00 00
	00		 mov	 ecx, DWORD PTR ?g_DbManager@@3AAVCDbManager@@A ; g_DbManager
  00009	56		 push	 esi
  0000a	e8 00 00 00 00	 call	 ?AllocRequest@CDbManager@@QAEPAUtagDB_OVERLAPPED_PLUS@@XZ ; CDbManager::AllocRequest

; 220  : 	g_DbManager.MakeRequest( lpDbOverlappedPlus, lpBuf, uBufSize );

  0000f	ff 75 10	 push	 DWORD PTR _uBufSize$[ebp]
  00012	8b 0d 00 00 00
	00		 mov	 ecx, DWORD PTR ?g_DbManager@@3AAVCDbManager@@A ; g_DbManager
  00018	8b f0		 mov	 esi, eax
  0001a	ff 75 0c	 push	 DWORD PTR _lpBuf$[ebp]
  0001d	56		 push	 esi
  0001e	e8 00 00 00 00	 call	 ?MakeRequest@CDbManager@@QAEXPAUtagDB_OVERLAPPED_PLUS@@PAEK@Z ; CDbManager::MakeRequest

; 221  : 	lpDbOverlappedPlus->nQueryMode	= ADD_GUILD_VOTE;
; 222  : 	PostQueuedCompletionStatus( g_DbManager.m_hIOCPGuild, 1, NULL, &lpDbOverlappedPlus->Overlapped );

  00023	56		 push	 esi
  00024	c7 46 14 23 00
	00 00		 mov	 DWORD PTR [esi+20], 35	; 00000023H
  0002b	a1 00 00 00 00	 mov	 eax, DWORD PTR ?g_DbManager@@3AAVCDbManager@@A ; g_DbManager
  00030	6a 00		 push	 0
  00032	6a 01		 push	 1
  00034	ff b0 3c 03 00
	00		 push	 DWORD PTR [eax+828]
  0003a	ff 15 00 00 00
	00		 call	 DWORD PTR __imp__PostQueuedCompletionStatus@16
  00040	5e		 pop	 esi

; 223  : }

  00041	5d		 pop	 ebp
  00042	c2 0c 00	 ret	 12			; 0000000cH
?OnAddVote@CDPCoreSrvr@@AAEXAAVCAr@@PAEK@Z ENDP		; CDPCoreSrvr::OnAddVote
_TEXT	ENDS
; Function compile flags: /Ogtp
; File C:\IAGOS\server\v18\Source\Source\DatabaseServer\DPCoreSrvr.cpp
;	COMDAT ?OnGuildNotice@CDPCoreSrvr@@AAEXAAVCAr@@PAEK@Z
_TEXT	SEGMENT
_ar$ = 8						; size = 4
_lpBuf$ = 12						; size = 4
_uBufSize$ = 16						; size = 4
?OnGuildNotice@CDPCoreSrvr@@AAEXAAVCAr@@PAEK@Z PROC	; CDPCoreSrvr::OnGuildNotice, COMDAT
; _this$ = ecx

; 207  : {

  00000	55		 push	 ebp
  00001	8b ec		 mov	 ebp, esp

; 208  : 	TRACE( "D CDPCoreSrvr::OnGuildNotice\n" );
; 209  : 	LPDB_OVERLAPPED_PLUS lpDbOverlappedPlus		= g_DbManager.AllocRequest();

  00003	8b 0d 00 00 00
	00		 mov	 ecx, DWORD PTR ?g_DbManager@@3AAVCDbManager@@A ; g_DbManager
  00009	56		 push	 esi
  0000a	e8 00 00 00 00	 call	 ?AllocRequest@CDbManager@@QAEPAUtagDB_OVERLAPPED_PLUS@@XZ ; CDbManager::AllocRequest

; 210  : 	g_DbManager.MakeRequest( lpDbOverlappedPlus, lpBuf, uBufSize );

  0000f	ff 75 10	 push	 DWORD PTR _uBufSize$[ebp]
  00012	8b 0d 00 00 00
	00		 mov	 ecx, DWORD PTR ?g_DbManager@@3AAVCDbManager@@A ; g_DbManager
  00018	8b f0		 mov	 esi, eax
  0001a	ff 75 0c	 push	 DWORD PTR _lpBuf$[ebp]
  0001d	56		 push	 esi
  0001e	e8 00 00 00 00	 call	 ?MakeRequest@CDbManager@@QAEXPAUtagDB_OVERLAPPED_PLUS@@PAEK@Z ; CDbManager::MakeRequest

; 211  : 	lpDbOverlappedPlus->nQueryMode	= UPDATE_GUILD_NOTICE;
; 212  : 	PostQueuedCompletionStatus( g_DbManager.m_hIOCPGuild, 1, NULL, &lpDbOverlappedPlus->Overlapped );

  00023	56		 push	 esi
  00024	c7 46 14 19 00
	00 00		 mov	 DWORD PTR [esi+20], 25	; 00000019H
  0002b	a1 00 00 00 00	 mov	 eax, DWORD PTR ?g_DbManager@@3AAVCDbManager@@A ; g_DbManager
  00030	6a 00		 push	 0
  00032	6a 01		 push	 1
  00034	ff b0 3c 03 00
	00		 push	 DWORD PTR [eax+828]
  0003a	ff 15 00 00 00
	00		 call	 DWORD PTR __imp__PostQueuedCompletionStatus@16
  00040	5e		 pop	 esi

; 213  : }

  00041	5d		 pop	 ebp
  00042	c2 0c 00	 ret	 12			; 0000000cH
?OnGuildNotice@CDPCoreSrvr@@AAEXAAVCAr@@PAEK@Z ENDP	; CDPCoreSrvr::OnGuildNotice
_TEXT	ENDS
; Function compile flags: /Ogtp
; File C:\IAGOS\server\v18\Source\Source\DatabaseServer\DPCoreSrvr.cpp
;	COMDAT ?OnGuildLogo@CDPCoreSrvr@@AAEXAAVCAr@@PAEK@Z
_TEXT	SEGMENT
_ar$ = 8						; size = 4
_lpBuf$ = 12						; size = 4
_uBufSize$ = 16						; size = 4
?OnGuildLogo@CDPCoreSrvr@@AAEXAAVCAr@@PAEK@Z PROC	; CDPCoreSrvr::OnGuildLogo, COMDAT
; _this$ = ecx

; 197  : {

  00000	55		 push	 ebp
  00001	8b ec		 mov	 ebp, esp

; 198  : 	TRACE( "D CDPCoreSrvr::OnGuildLogo\n" );
; 199  : 	LPDB_OVERLAPPED_PLUS lpDbOverlappedPlus		= g_DbManager.AllocRequest();

  00003	8b 0d 00 00 00
	00		 mov	 ecx, DWORD PTR ?g_DbManager@@3AAVCDbManager@@A ; g_DbManager
  00009	56		 push	 esi
  0000a	e8 00 00 00 00	 call	 ?AllocRequest@CDbManager@@QAEPAUtagDB_OVERLAPPED_PLUS@@XZ ; CDbManager::AllocRequest

; 200  : 	g_DbManager.MakeRequest( lpDbOverlappedPlus, lpBuf, uBufSize );

  0000f	ff 75 10	 push	 DWORD PTR _uBufSize$[ebp]
  00012	8b 0d 00 00 00
	00		 mov	 ecx, DWORD PTR ?g_DbManager@@3AAVCDbManager@@A ; g_DbManager
  00018	8b f0		 mov	 esi, eax
  0001a	ff 75 0c	 push	 DWORD PTR _lpBuf$[ebp]
  0001d	56		 push	 esi
  0001e	e8 00 00 00 00	 call	 ?MakeRequest@CDbManager@@QAEXPAUtagDB_OVERLAPPED_PLUS@@PAEK@Z ; CDbManager::MakeRequest

; 201  : 	lpDbOverlappedPlus->nQueryMode	= UPDATE_GUILD_LOGO;
; 202  : 	PostQueuedCompletionStatus( g_DbManager.m_hIOCPGuild, 1, NULL, &lpDbOverlappedPlus->Overlapped );

  00023	56		 push	 esi
  00024	c7 46 14 17 00
	00 00		 mov	 DWORD PTR [esi+20], 23	; 00000017H
  0002b	a1 00 00 00 00	 mov	 eax, DWORD PTR ?g_DbManager@@3AAVCDbManager@@A ; g_DbManager
  00030	6a 00		 push	 0
  00032	6a 01		 push	 1
  00034	ff b0 3c 03 00
	00		 push	 DWORD PTR [eax+828]
  0003a	ff 15 00 00 00
	00		 call	 DWORD PTR __imp__PostQueuedCompletionStatus@16
  00040	5e		 pop	 esi

; 203  : }

  00041	5d		 pop	 ebp
  00042	c2 0c 00	 ret	 12			; 0000000cH
?OnGuildLogo@CDPCoreSrvr@@AAEXAAVCAr@@PAEK@Z ENDP	; CDPCoreSrvr::OnGuildLogo
_TEXT	ENDS
; Function compile flags: /Ogtp
; File C:\IAGOS\server\v18\Source\Source\DatabaseServer\DPCoreSrvr.cpp
;	COMDAT ?OnChgMaster@CDPCoreSrvr@@AAEXAAVCAr@@PAEK@Z
_TEXT	SEGMENT
_ar$ = 8						; size = 4
_lpBuf$ = 12						; size = 4
_uBufSize$ = 16						; size = 4
?OnChgMaster@CDPCoreSrvr@@AAEXAAVCAr@@PAEK@Z PROC	; CDPCoreSrvr::OnChgMaster, COMDAT
; _this$ = ecx

; 189  : {

  00000	55		 push	 ebp
  00001	8b ec		 mov	 ebp, esp

; 190  : 	TRACE( "OnChgMaster\n" );
; 191  : 	LPDB_OVERLAPPED_PLUS lpDbOverlappedPlus		= g_DbManager.AllocRequest();

  00003	8b 0d 00 00 00
	00		 mov	 ecx, DWORD PTR ?g_DbManager@@3AAVCDbManager@@A ; g_DbManager
  00009	56		 push	 esi
  0000a	e8 00 00 00 00	 call	 ?AllocRequest@CDbManager@@QAEPAUtagDB_OVERLAPPED_PLUS@@XZ ; CDbManager::AllocRequest

; 192  : 	g_DbManager.MakeRequest( lpDbOverlappedPlus, lpBuf, uBufSize );

  0000f	ff 75 10	 push	 DWORD PTR _uBufSize$[ebp]
  00012	8b 0d 00 00 00
	00		 mov	 ecx, DWORD PTR ?g_DbManager@@3AAVCDbManager@@A ; g_DbManager
  00018	8b f0		 mov	 esi, eax
  0001a	ff 75 0c	 push	 DWORD PTR _lpBuf$[ebp]
  0001d	56		 push	 esi
  0001e	e8 00 00 00 00	 call	 ?MakeRequest@CDbManager@@QAEXPAUtagDB_OVERLAPPED_PLUS@@PAEK@Z ; CDbManager::MakeRequest

; 193  : 	lpDbOverlappedPlus->nQueryMode	= QM_UPDATEGUILDMASTER;
; 194  : 	PostQueuedCompletionStatus( g_DbManager.m_hIOCPGuild, 1, NULL, &lpDbOverlappedPlus->Overlapped );

  00023	56		 push	 esi
  00024	c7 46 14 4d 00
	00 00		 mov	 DWORD PTR [esi+20], 77	; 0000004dH
  0002b	a1 00 00 00 00	 mov	 eax, DWORD PTR ?g_DbManager@@3AAVCDbManager@@A ; g_DbManager
  00030	6a 00		 push	 0
  00032	6a 01		 push	 1
  00034	ff b0 3c 03 00
	00		 push	 DWORD PTR [eax+828]
  0003a	ff 15 00 00 00
	00		 call	 DWORD PTR __imp__PostQueuedCompletionStatus@16
  00040	5e		 pop	 esi

; 195  : }

  00041	5d		 pop	 ebp
  00042	c2 0c 00	 ret	 12			; 0000000cH
?OnChgMaster@CDPCoreSrvr@@AAEXAAVCAr@@PAEK@Z ENDP	; CDPCoreSrvr::OnChgMaster
_TEXT	ENDS
; Function compile flags: /Ogtp
; File C:\IAGOS\server\v18\Source\Source\DatabaseServer\DPCoreSrvr.cpp
;	COMDAT ?OnGuildNickName@CDPCoreSrvr@@AAEXAAVCAr@@PAEK@Z
_TEXT	SEGMENT
_ar$ = 8						; size = 4
_lpBuf$ = 12						; size = 4
_uBufSize$ = 16						; size = 4
?OnGuildNickName@CDPCoreSrvr@@AAEXAAVCAr@@PAEK@Z PROC	; CDPCoreSrvr::OnGuildNickName, COMDAT
; _this$ = ecx

; 181  : {

  00000	55		 push	 ebp
  00001	8b ec		 mov	 ebp, esp

; 182  : 	TRACE( "OnGuildNickName\n" );
; 183  : 	LPDB_OVERLAPPED_PLUS lpDbOverlappedPlus		= g_DbManager.AllocRequest();

  00003	8b 0d 00 00 00
	00		 mov	 ecx, DWORD PTR ?g_DbManager@@3AAVCDbManager@@A ; g_DbManager
  00009	56		 push	 esi
  0000a	e8 00 00 00 00	 call	 ?AllocRequest@CDbManager@@QAEPAUtagDB_OVERLAPPED_PLUS@@XZ ; CDbManager::AllocRequest

; 184  : 	g_DbManager.MakeRequest( lpDbOverlappedPlus, lpBuf, uBufSize );

  0000f	ff 75 10	 push	 DWORD PTR _uBufSize$[ebp]
  00012	8b 0d 00 00 00
	00		 mov	 ecx, DWORD PTR ?g_DbManager@@3AAVCDbManager@@A ; g_DbManager
  00018	8b f0		 mov	 esi, eax
  0001a	ff 75 0c	 push	 DWORD PTR _lpBuf$[ebp]
  0001d	56		 push	 esi
  0001e	e8 00 00 00 00	 call	 ?MakeRequest@CDbManager@@QAEXPAUtagDB_OVERLAPPED_PLUS@@PAEK@Z ; CDbManager::MakeRequest

; 185  : 	lpDbOverlappedPlus->nQueryMode	= UPDATE_GUILD_NICKNAME;
; 186  : 	PostQueuedCompletionStatus( g_DbManager.m_hIOCPGuild, 1, NULL, &lpDbOverlappedPlus->Overlapped );

  00023	56		 push	 esi
  00024	c7 46 14 37 00
	00 00		 mov	 DWORD PTR [esi+20], 55	; 00000037H
  0002b	a1 00 00 00 00	 mov	 eax, DWORD PTR ?g_DbManager@@3AAVCDbManager@@A ; g_DbManager
  00030	6a 00		 push	 0
  00032	6a 01		 push	 1
  00034	ff b0 3c 03 00
	00		 push	 DWORD PTR [eax+828]
  0003a	ff 15 00 00 00
	00		 call	 DWORD PTR __imp__PostQueuedCompletionStatus@16
  00040	5e		 pop	 esi

; 187  : }

  00041	5d		 pop	 ebp
  00042	c2 0c 00	 ret	 12			; 0000000cH
?OnGuildNickName@CDPCoreSrvr@@AAEXAAVCAr@@PAEK@Z ENDP	; CDPCoreSrvr::OnGuildNickName
_TEXT	ENDS
; Function compile flags: /Ogtp
; File C:\IAGOS\server\v18\Source\Source\DatabaseServer\DPCoreSrvr.cpp
;	COMDAT ?OnGuildClass@CDPCoreSrvr@@AAEXAAVCAr@@PAEK@Z
_TEXT	SEGMENT
_ar$ = 8						; size = 4
_lpBuf$ = 12						; size = 4
_uBufSize$ = 16						; size = 4
?OnGuildClass@CDPCoreSrvr@@AAEXAAVCAr@@PAEK@Z PROC	; CDPCoreSrvr::OnGuildClass, COMDAT
; _this$ = ecx

; 173  : {

  00000	55		 push	 ebp
  00001	8b ec		 mov	 ebp, esp

; 174  : 	TRACE( "OnGuildClass\n" );
; 175  : 	LPDB_OVERLAPPED_PLUS lpDbOverlappedPlus		= g_DbManager.AllocRequest();

  00003	8b 0d 00 00 00
	00		 mov	 ecx, DWORD PTR ?g_DbManager@@3AAVCDbManager@@A ; g_DbManager
  00009	56		 push	 esi
  0000a	e8 00 00 00 00	 call	 ?AllocRequest@CDbManager@@QAEPAUtagDB_OVERLAPPED_PLUS@@XZ ; CDbManager::AllocRequest

; 176  : 	g_DbManager.MakeRequest( lpDbOverlappedPlus, lpBuf, uBufSize );

  0000f	ff 75 10	 push	 DWORD PTR _uBufSize$[ebp]
  00012	8b 0d 00 00 00
	00		 mov	 ecx, DWORD PTR ?g_DbManager@@3AAVCDbManager@@A ; g_DbManager
  00018	8b f0		 mov	 esi, eax
  0001a	ff 75 0c	 push	 DWORD PTR _lpBuf$[ebp]
  0001d	56		 push	 esi
  0001e	e8 00 00 00 00	 call	 ?MakeRequest@CDbManager@@QAEXPAUtagDB_OVERLAPPED_PLUS@@PAEK@Z ; CDbManager::MakeRequest

; 177  : 	lpDbOverlappedPlus->nQueryMode	= UPDATE_GUILD_CLASS;
; 178  : 	PostQueuedCompletionStatus( g_DbManager.m_hIOCPGuild, 1, NULL, &lpDbOverlappedPlus->Overlapped );

  00023	56		 push	 esi
  00024	c7 46 14 36 00
	00 00		 mov	 DWORD PTR [esi+20], 54	; 00000036H
  0002b	a1 00 00 00 00	 mov	 eax, DWORD PTR ?g_DbManager@@3AAVCDbManager@@A ; g_DbManager
  00030	6a 00		 push	 0
  00032	6a 01		 push	 1
  00034	ff b0 3c 03 00
	00		 push	 DWORD PTR [eax+828]
  0003a	ff 15 00 00 00
	00		 call	 DWORD PTR __imp__PostQueuedCompletionStatus@16
  00040	5e		 pop	 esi

; 179  : }

  00041	5d		 pop	 ebp
  00042	c2 0c 00	 ret	 12			; 0000000cH
?OnGuildClass@CDPCoreSrvr@@AAEXAAVCAr@@PAEK@Z ENDP	; CDPCoreSrvr::OnGuildClass
_TEXT	ENDS
; Function compile flags: /Ogtp
; File C:\IAGOS\server\v18\Source\Source\DatabaseServer\DPCoreSrvr.cpp
;	COMDAT ?OnGuildMemberLv@CDPCoreSrvr@@AAEXAAVCAr@@PAEK@Z
_TEXT	SEGMENT
_ar$ = 8						; size = 4
_lpBuf$ = 12						; size = 4
_uBufSize$ = 16						; size = 4
?OnGuildMemberLv@CDPCoreSrvr@@AAEXAAVCAr@@PAEK@Z PROC	; CDPCoreSrvr::OnGuildMemberLv, COMDAT
; _this$ = ecx

; 164  : {

  00000	55		 push	 ebp
  00001	8b ec		 mov	 ebp, esp

; 165  : 	TRACE( "OnGuildMemberLv\n" );
; 166  : 	LPDB_OVERLAPPED_PLUS lpDbOverlappedPlus		= g_DbManager.AllocRequest();

  00003	8b 0d 00 00 00
	00		 mov	 ecx, DWORD PTR ?g_DbManager@@3AAVCDbManager@@A ; g_DbManager
  00009	56		 push	 esi
  0000a	e8 00 00 00 00	 call	 ?AllocRequest@CDbManager@@QAEPAUtagDB_OVERLAPPED_PLUS@@XZ ; CDbManager::AllocRequest

; 167  : 	g_DbManager.MakeRequest( lpDbOverlappedPlus, lpBuf, uBufSize );

  0000f	ff 75 10	 push	 DWORD PTR _uBufSize$[ebp]
  00012	8b 0d 00 00 00
	00		 mov	 ecx, DWORD PTR ?g_DbManager@@3AAVCDbManager@@A ; g_DbManager
  00018	8b f0		 mov	 esi, eax
  0001a	ff 75 0c	 push	 DWORD PTR _lpBuf$[ebp]
  0001d	56		 push	 esi
  0001e	e8 00 00 00 00	 call	 ?MakeRequest@CDbManager@@QAEXPAUtagDB_OVERLAPPED_PLUS@@PAEK@Z ; CDbManager::MakeRequest

; 168  : 	lpDbOverlappedPlus->nQueryMode	= UPDATE_GUILD_MEMBER_LEVEL;
; 169  : 	PostQueuedCompletionStatus( g_DbManager.m_hIOCPGuild, 1, NULL, &lpDbOverlappedPlus->Overlapped );

  00023	56		 push	 esi
  00024	c7 46 14 1a 00
	00 00		 mov	 DWORD PTR [esi+20], 26	; 0000001aH
  0002b	a1 00 00 00 00	 mov	 eax, DWORD PTR ?g_DbManager@@3AAVCDbManager@@A ; g_DbManager
  00030	6a 00		 push	 0
  00032	6a 01		 push	 1
  00034	ff b0 3c 03 00
	00		 push	 DWORD PTR [eax+828]
  0003a	ff 15 00 00 00
	00		 call	 DWORD PTR __imp__PostQueuedCompletionStatus@16
  00040	5e		 pop	 esi

; 170  : }

  00041	5d		 pop	 ebp
  00042	c2 0c 00	 ret	 12			; 0000000cH
?OnGuildMemberLv@CDPCoreSrvr@@AAEXAAVCAr@@PAEK@Z ENDP	; CDPCoreSrvr::OnGuildMemberLv
_TEXT	ENDS
; Function compile flags: /Ogtp
; File C:\IAGOS\server\v18\Source\Source\DatabaseServer\DPCoreSrvr.cpp
;	COMDAT ?OnRemoveGuildMember@CDPCoreSrvr@@AAEXAAVCAr@@PAEK@Z
_TEXT	SEGMENT
_ar$ = 8						; size = 4
_lpBuf$ = 12						; size = 4
_uBufSize$ = 16						; size = 4
?OnRemoveGuildMember@CDPCoreSrvr@@AAEXAAVCAr@@PAEK@Z PROC ; CDPCoreSrvr::OnRemoveGuildMember, COMDAT
; _this$ = ecx

; 155  : {

  00000	55		 push	 ebp
  00001	8b ec		 mov	 ebp, esp

; 156  : 	TRACE( "OnRemoveGuildMember\n" );
; 157  : 	LPDB_OVERLAPPED_PLUS lpDbOverlappedPlus		= g_DbManager.AllocRequest();

  00003	8b 0d 00 00 00
	00		 mov	 ecx, DWORD PTR ?g_DbManager@@3AAVCDbManager@@A ; g_DbManager
  00009	56		 push	 esi
  0000a	e8 00 00 00 00	 call	 ?AllocRequest@CDbManager@@QAEPAUtagDB_OVERLAPPED_PLUS@@XZ ; CDbManager::AllocRequest

; 158  : 	g_DbManager.MakeRequest( lpDbOverlappedPlus, lpBuf, uBufSize );

  0000f	ff 75 10	 push	 DWORD PTR _uBufSize$[ebp]
  00012	8b 0d 00 00 00
	00		 mov	 ecx, DWORD PTR ?g_DbManager@@3AAVCDbManager@@A ; g_DbManager
  00018	8b f0		 mov	 esi, eax
  0001a	ff 75 0c	 push	 DWORD PTR _lpBuf$[ebp]
  0001d	56		 push	 esi
  0001e	e8 00 00 00 00	 call	 ?MakeRequest@CDbManager@@QAEXPAUtagDB_OVERLAPPED_PLUS@@PAEK@Z ; CDbManager::MakeRequest

; 159  : 	lpDbOverlappedPlus->nQueryMode	= REMOVE_GUILD_MEMBER;
; 160  : 	PostQueuedCompletionStatus( g_DbManager.m_hIOCPGuild, 1, NULL, &lpDbOverlappedPlus->Overlapped );

  00023	56		 push	 esi
  00024	c7 46 14 16 00
	00 00		 mov	 DWORD PTR [esi+20], 22	; 00000016H
  0002b	a1 00 00 00 00	 mov	 eax, DWORD PTR ?g_DbManager@@3AAVCDbManager@@A ; g_DbManager
  00030	6a 00		 push	 0
  00032	6a 01		 push	 1
  00034	ff b0 3c 03 00
	00		 push	 DWORD PTR [eax+828]
  0003a	ff 15 00 00 00
	00		 call	 DWORD PTR __imp__PostQueuedCompletionStatus@16
  00040	5e		 pop	 esi

; 161  : }

  00041	5d		 pop	 ebp
  00042	c2 0c 00	 ret	 12			; 0000000cH
?OnRemoveGuildMember@CDPCoreSrvr@@AAEXAAVCAr@@PAEK@Z ENDP ; CDPCoreSrvr::OnRemoveGuildMember
_TEXT	ENDS
; Function compile flags: /Ogtp
; File C:\IAGOS\server\v18\Source\Source\DatabaseServer\DPCoreSrvr.cpp
;	COMDAT ?OnAddGuildMember@CDPCoreSrvr@@AAEXAAVCAr@@PAEK@Z
_TEXT	SEGMENT
_ar$ = 8						; size = 4
_lpBuf$ = 12						; size = 4
_uBufSize$ = 16						; size = 4
?OnAddGuildMember@CDPCoreSrvr@@AAEXAAVCAr@@PAEK@Z PROC	; CDPCoreSrvr::OnAddGuildMember, COMDAT
; _this$ = ecx

; 146  : {

  00000	55		 push	 ebp
  00001	8b ec		 mov	 ebp, esp

; 147  : 	TRACE( "OnAddGuildMember\n" );
; 148  : 	LPDB_OVERLAPPED_PLUS lpDbOverlappedPlus		= g_DbManager.AllocRequest();

  00003	8b 0d 00 00 00
	00		 mov	 ecx, DWORD PTR ?g_DbManager@@3AAVCDbManager@@A ; g_DbManager
  00009	56		 push	 esi
  0000a	e8 00 00 00 00	 call	 ?AllocRequest@CDbManager@@QAEPAUtagDB_OVERLAPPED_PLUS@@XZ ; CDbManager::AllocRequest

; 149  : 	g_DbManager.MakeRequest( lpDbOverlappedPlus, lpBuf, uBufSize );

  0000f	ff 75 10	 push	 DWORD PTR _uBufSize$[ebp]
  00012	8b 0d 00 00 00
	00		 mov	 ecx, DWORD PTR ?g_DbManager@@3AAVCDbManager@@A ; g_DbManager
  00018	8b f0		 mov	 esi, eax
  0001a	ff 75 0c	 push	 DWORD PTR _lpBuf$[ebp]
  0001d	56		 push	 esi
  0001e	e8 00 00 00 00	 call	 ?MakeRequest@CDbManager@@QAEXPAUtagDB_OVERLAPPED_PLUS@@PAEK@Z ; CDbManager::MakeRequest

; 150  : 	lpDbOverlappedPlus->nQueryMode	= ADD_GUILD_MEMBER;
; 151  : 	PostQueuedCompletionStatus( g_DbManager.m_hIOCPGuild, 1, NULL, &lpDbOverlappedPlus->Overlapped );

  00023	56		 push	 esi
  00024	c7 46 14 15 00
	00 00		 mov	 DWORD PTR [esi+20], 21	; 00000015H
  0002b	a1 00 00 00 00	 mov	 eax, DWORD PTR ?g_DbManager@@3AAVCDbManager@@A ; g_DbManager
  00030	6a 00		 push	 0
  00032	6a 01		 push	 1
  00034	ff b0 3c 03 00
	00		 push	 DWORD PTR [eax+828]
  0003a	ff 15 00 00 00
	00		 call	 DWORD PTR __imp__PostQueuedCompletionStatus@16
  00040	5e		 pop	 esi

; 152  : }

  00041	5d		 pop	 ebp
  00042	c2 0c 00	 ret	 12			; 0000000cH
?OnAddGuildMember@CDPCoreSrvr@@AAEXAAVCAr@@PAEK@Z ENDP	; CDPCoreSrvr::OnAddGuildMember
_TEXT	ENDS
; Function compile flags: /Ogtp
; File C:\IAGOS\server\v18\Source\Source\DatabaseServer\DPCoreSrvr.cpp
;	COMDAT ?OnDestroyGuild@CDPCoreSrvr@@AAEXAAVCAr@@PAEK@Z
_TEXT	SEGMENT
_ar$ = 8						; size = 4
_lpBuf$ = 12						; size = 4
_uBufSize$ = 16						; size = 4
?OnDestroyGuild@CDPCoreSrvr@@AAEXAAVCAr@@PAEK@Z PROC	; CDPCoreSrvr::OnDestroyGuild, COMDAT
; _this$ = ecx

; 137  : {

  00000	55		 push	 ebp
  00001	8b ec		 mov	 ebp, esp

; 138  : 	TRACE( "OnDestroyGuild\n" );
; 139  : 	LPDB_OVERLAPPED_PLUS lpDbOverlappedPlus		= g_DbManager.AllocRequest();

  00003	8b 0d 00 00 00
	00		 mov	 ecx, DWORD PTR ?g_DbManager@@3AAVCDbManager@@A ; g_DbManager
  00009	56		 push	 esi
  0000a	e8 00 00 00 00	 call	 ?AllocRequest@CDbManager@@QAEPAUtagDB_OVERLAPPED_PLUS@@XZ ; CDbManager::AllocRequest

; 140  : 	g_DbManager.MakeRequest( lpDbOverlappedPlus, lpBuf, uBufSize );

  0000f	ff 75 10	 push	 DWORD PTR _uBufSize$[ebp]
  00012	8b 0d 00 00 00
	00		 mov	 ecx, DWORD PTR ?g_DbManager@@3AAVCDbManager@@A ; g_DbManager
  00018	8b f0		 mov	 esi, eax
  0001a	ff 75 0c	 push	 DWORD PTR _lpBuf$[ebp]
  0001d	56		 push	 esi
  0001e	e8 00 00 00 00	 call	 ?MakeRequest@CDbManager@@QAEXPAUtagDB_OVERLAPPED_PLUS@@PAEK@Z ; CDbManager::MakeRequest

; 141  : 	lpDbOverlappedPlus->nQueryMode	= DESTROY_GUILD;
; 142  : 	PostQueuedCompletionStatus( g_DbManager.m_hIOCPGuild, 1, NULL, &lpDbOverlappedPlus->Overlapped );

  00023	56		 push	 esi
  00024	c7 46 14 14 00
	00 00		 mov	 DWORD PTR [esi+20], 20	; 00000014H
  0002b	a1 00 00 00 00	 mov	 eax, DWORD PTR ?g_DbManager@@3AAVCDbManager@@A ; g_DbManager
  00030	6a 00		 push	 0
  00032	6a 01		 push	 1
  00034	ff b0 3c 03 00
	00		 push	 DWORD PTR [eax+828]
  0003a	ff 15 00 00 00
	00		 call	 DWORD PTR __imp__PostQueuedCompletionStatus@16
  00040	5e		 pop	 esi

; 143  : }

  00041	5d		 pop	 ebp
  00042	c2 0c 00	 ret	 12			; 0000000cH
?OnDestroyGuild@CDPCoreSrvr@@AAEXAAVCAr@@PAEK@Z ENDP	; CDPCoreSrvr::OnDestroyGuild
_TEXT	ENDS
; Function compile flags: /Ogtp
; File C:\IAGOS\server\v18\Source\Source\DatabaseServer\DPCoreSrvr.cpp
;	COMDAT ?OnCreateGuild@CDPCoreSrvr@@AAEXAAVCAr@@PAEK@Z
_TEXT	SEGMENT
_ar$ = 8						; size = 4
_lpBuf$ = 12						; size = 4
_uBufSize$ = 16						; size = 4
?OnCreateGuild@CDPCoreSrvr@@AAEXAAVCAr@@PAEK@Z PROC	; CDPCoreSrvr::OnCreateGuild, COMDAT
; _this$ = ecx

; 128  : {

  00000	55		 push	 ebp
  00001	8b ec		 mov	 ebp, esp

; 129  : 	TRACE( "OnCreateGuild\n" );
; 130  : 	LPDB_OVERLAPPED_PLUS lpDbOverlappedPlus		= g_DbManager.AllocRequest();

  00003	8b 0d 00 00 00
	00		 mov	 ecx, DWORD PTR ?g_DbManager@@3AAVCDbManager@@A ; g_DbManager
  00009	56		 push	 esi
  0000a	e8 00 00 00 00	 call	 ?AllocRequest@CDbManager@@QAEPAUtagDB_OVERLAPPED_PLUS@@XZ ; CDbManager::AllocRequest

; 131  : 	g_DbManager.MakeRequest( lpDbOverlappedPlus, lpBuf, uBufSize );

  0000f	ff 75 10	 push	 DWORD PTR _uBufSize$[ebp]
  00012	8b 0d 00 00 00
	00		 mov	 ecx, DWORD PTR ?g_DbManager@@3AAVCDbManager@@A ; g_DbManager
  00018	8b f0		 mov	 esi, eax
  0001a	ff 75 0c	 push	 DWORD PTR _lpBuf$[ebp]
  0001d	56		 push	 esi
  0001e	e8 00 00 00 00	 call	 ?MakeRequest@CDbManager@@QAEXPAUtagDB_OVERLAPPED_PLUS@@PAEK@Z ; CDbManager::MakeRequest

; 132  : 	lpDbOverlappedPlus->nQueryMode	= CREATE_GUILD;
; 133  : 	PostQueuedCompletionStatus( g_DbManager.m_hIOCPGuild, 1, NULL, &lpDbOverlappedPlus->Overlapped );

  00023	56		 push	 esi
  00024	c7 46 14 13 00
	00 00		 mov	 DWORD PTR [esi+20], 19	; 00000013H
  0002b	a1 00 00 00 00	 mov	 eax, DWORD PTR ?g_DbManager@@3AAVCDbManager@@A ; g_DbManager
  00030	6a 00		 push	 0
  00032	6a 01		 push	 1
  00034	ff b0 3c 03 00
	00		 push	 DWORD PTR [eax+828]
  0003a	ff 15 00 00 00
	00		 call	 DWORD PTR __imp__PostQueuedCompletionStatus@16
  00040	5e		 pop	 esi

; 134  : }

  00041	5d		 pop	 ebp
  00042	c2 0c 00	 ret	 12			; 0000000cH
?OnCreateGuild@CDPCoreSrvr@@AAEXAAVCAr@@PAEK@Z ENDP	; CDPCoreSrvr::OnCreateGuild
_TEXT	ENDS
; Function compile flags: /Ogtp
;	COMDAT ??1?$map@KP8CDPCoreSrvr@@AEXAAVCAr@@PAEK@ZU?$less@K@std@@V?$allocator@U?$pair@$$CBKP8CDPCoreSrvr@@AEXAAVCAr@@PAEK@Z@std@@@4@@std@@QAE@XZ
_TEXT	SEGMENT
??1?$map@KP8CDPCoreSrvr@@AEXAAVCAr@@PAEK@ZU?$less@K@std@@V?$allocator@U?$pair@$$CBKP8CDPCoreSrvr@@AEXAAVCAr@@PAEK@Z@std@@@4@@std@@QAE@XZ PROC ; std::map<unsigned long,void (__thiscall CDPCoreSrvr::*)(CAr &,unsigned char *,unsigned long),std::less<unsigned long>,std::allocator<std::pair<unsigned long const ,void (__thiscall CDPCoreSrvr::*)(CAr &,unsigned char *,unsigned long)> > >::~map<unsigned long,void (__thiscall CDPCoreSrvr::*)(CAr &,unsigned char *,unsigned long),std::less<unsigned long>,std::allocator<std::pair<unsigned long const ,void (__thiscall CDPCoreSrvr::*)(CAr &,unsigned char *,unsigned long)> > >, COMDAT
; _this$ = ecx
  00000	e9 00 00 00 00	 jmp	 ??1?$_Tree@V?$_Tmap_traits@KP8CDPCoreSrvr@@AEXAAVCAr@@PAEK@ZU?$less@K@std@@V?$allocator@U?$pair@$$CBKP8CDPCoreSrvr@@AEXAAVCAr@@PAEK@Z@std@@@4@$0A@@std@@@std@@QAE@XZ ; std::_Tree<std::_Tmap_traits<unsigned long,void (__thiscall CDPCoreSrvr::*)(CAr &,unsigned char *,unsigned long),std::less<unsigned long>,std::allocator<std::pair<unsigned long const ,void (__thiscall CDPCoreSrvr::*)(CAr &,unsigned char *,unsigned long)> >,0> >::~_Tree<std::_Tmap_traits<unsigned long,void (__thiscall CDPCoreSrvr::*)(CAr &,unsigned char *,unsigned long),std::less<unsigned long>,std::allocator<std::pair<unsigned long const ,void (__thiscall CDPCoreSrvr::*)(CAr &,unsigned char *,unsigned long)> >,0> >
??1?$map@KP8CDPCoreSrvr@@AEXAAVCAr@@PAEK@ZU?$less@K@std@@V?$allocator@U?$pair@$$CBKP8CDPCoreSrvr@@AEXAAVCAr@@PAEK@Z@std@@@4@@std@@QAE@XZ ENDP ; std::map<unsigned long,void (__thiscall CDPCoreSrvr::*)(CAr &,unsigned char *,unsigned long),std::less<unsigned long>,std::allocator<std::pair<unsigned long const ,void (__thiscall CDPCoreSrvr::*)(CAr &,unsigned char *,unsigned long)> > >::~map<unsigned long,void (__thiscall CDPCoreSrvr::*)(CAr &,unsigned char *,unsigned long),std::less<unsigned long>,std::allocator<std::pair<unsigned long const ,void (__thiscall CDPCoreSrvr::*)(CAr &,unsigned char *,unsigned long)> > >
_TEXT	ENDS
; Function compile flags: /Ogtp
; File C:\Program Files\Microsoft Visual Studio\2022\Professional\VC\Tools\MSVC\14.44.35207\include\xtree
;	COMDAT ?_Insert_node@?$_Tree_val@U?$_Tree_simple_types@U?$pair@$$CBKP8CDPCoreSrvr@@AEXAAVCAr@@PAEK@Z@std@@@std@@@std@@QAEPAU?$_Tree_node@U?$pair@$$CBKP8CDPCoreSrvr@@AEXAAVCAr@@PAEK@Z@std@@PAX@2@U?$_Tree_id@PAU?$_Tree_node@U?$pair@$$CBKP8CDPCoreSrvr@@AEXAAVCAr@@PAEK@Z@std@@PAX@std@@@2@QAU32@@Z
_TEXT	SEGMENT
__Head$1$ = -4						; size = 4
__Loc$ = 8						; size = 8
__Newnode$ = 16						; size = 4
?_Insert_node@?$_Tree_val@U?$_Tree_simple_types@U?$pair@$$CBKP8CDPCoreSrvr@@AEXAAVCAr@@PAEK@Z@std@@@std@@@std@@QAEPAU?$_Tree_node@U?$pair@$$CBKP8CDPCoreSrvr@@AEXAAVCAr@@PAEK@Z@std@@PAX@2@U?$_Tree_id@PAU?$_Tree_node@U?$pair@$$CBKP8CDPCoreSrvr@@AEXAAVCAr@@PAEK@Z@std@@PAX@std@@@2@QAU32@@Z PROC ; std::_Tree_val<std::_Tree_simple_types<std::pair<unsigned long const ,void (__thiscall CDPCoreSrvr::*)(CAr &,unsigned char *,unsigned long)> > >::_Insert_node, COMDAT
; _this$ = ecx

; 669  :     _Nodeptr _Insert_node(const _Tree_id<_Nodeptr> _Loc, const _Nodeptr _Newnode) noexcept {

  00000	55		 push	 ebp
  00001	8b ec		 mov	 ebp, esp
  00003	51		 push	 ecx

; 670  :         ++_Mysize;
; 671  :         const auto _Head  = _Myhead;
; 672  :         _Newnode->_Parent = _Loc._Parent;

  00004	8b 55 08	 mov	 edx, DWORD PTR __Loc$[ebp]
  00007	53		 push	 ebx
  00008	8b d9		 mov	 ebx, ecx
  0000a	57		 push	 edi
  0000b	8b 7d 10	 mov	 edi, DWORD PTR __Newnode$[ebp]
  0000e	8b 03		 mov	 eax, DWORD PTR [ebx]
  00010	ff 43 04	 inc	 DWORD PTR [ebx+4]
  00013	89 45 fc	 mov	 DWORD PTR __Head$1$[ebp], eax
  00016	89 57 04	 mov	 DWORD PTR [edi+4], edx

; 673  :         if (_Loc._Parent == _Head) { // first node in tree, just set head values

  00019	3b d0		 cmp	 edx, eax
  0001b	75 16		 jne	 SHORT $LN5@Insert_nod

; 674  :             _Head->_Left     = _Newnode;

  0001d	89 38		 mov	 DWORD PTR [eax], edi

; 675  :             _Head->_Parent   = _Newnode;

  0001f	89 78 04	 mov	 DWORD PTR [eax+4], edi

; 676  :             _Head->_Right    = _Newnode;

  00022	89 78 08	 mov	 DWORD PTR [eax+8], edi

; 735  :         return _Newnode;
; 736  :     }

  00025	8b c7		 mov	 eax, edi
  00027	c6 47 0c 01	 mov	 BYTE PTR [edi+12], 1
  0002b	5f		 pop	 edi
  0002c	5b		 pop	 ebx
  0002d	8b e5		 mov	 esp, ebp
  0002f	5d		 pop	 ebp
  00030	c2 0c 00	 ret	 12			; 0000000cH
$LN5@Insert_nod:

; 677  :             _Newnode->_Color = _Black; // the root is black
; 678  :             return _Newnode;
; 679  :         }
; 680  : 
; 681  :         _STL_INTERNAL_CHECK(_Loc._Child != _Tree_child::_Unused);
; 682  :         if (_Loc._Child == _Tree_child::_Right) { // add to right of _Loc._Parent

  00033	83 7d 0c 00	 cmp	 DWORD PTR __Loc$[ebp+4], 0
  00037	75 0d		 jne	 SHORT $LN6@Insert_nod

; 683  :             _STL_INTERNAL_CHECK(_Loc._Parent->_Right->_Isnil);
; 684  :             _Loc._Parent->_Right = _Newnode;

  00039	89 7a 08	 mov	 DWORD PTR [edx+8], edi

; 685  :             if (_Loc._Parent == _Head->_Right) { // remember rightmost node

  0003c	3b 50 08	 cmp	 edx, DWORD PTR [eax+8]
  0003f	75 0d		 jne	 SHORT $LN9@Insert_nod

; 686  :                 _Head->_Right = _Newnode;

  00041	89 78 08	 mov	 DWORD PTR [eax+8], edi

; 687  :             }
; 688  :         } else { // add to left of _Loc._Parent

  00044	eb 08		 jmp	 SHORT $LN9@Insert_nod
$LN6@Insert_nod:

; 689  :             _STL_INTERNAL_CHECK(_Loc._Parent->_Left->_Isnil);
; 690  :             _Loc._Parent->_Left = _Newnode;

  00046	89 3a		 mov	 DWORD PTR [edx], edi

; 691  :             if (_Loc._Parent == _Head->_Left) { // remember leftmost node

  00048	3b 10		 cmp	 edx, DWORD PTR [eax]
  0004a	75 02		 jne	 SHORT $LN9@Insert_nod

; 692  :                 _Head->_Left = _Newnode;

  0004c	89 38		 mov	 DWORD PTR [eax], edi
$LN9@Insert_nod:

; 693  :             }
; 694  :         }
; 695  : 
; 696  :         for (_Nodeptr _Pnode = _Newnode; _Pnode->_Parent->_Color == _Red;) {

  0004e	8b 4f 04	 mov	 ecx, DWORD PTR [edi+4]
  00051	8b c7		 mov	 eax, edi
  00053	80 79 0c 00	 cmp	 BYTE PTR [ecx+12], 0
  00057	0f 85 7d 01 00
	00		 jne	 $LN3@Insert_nod
  0005d	56		 push	 esi
  0005e	66 90		 npad	 2
$LL4@Insert_nod:

; 697  :             if (_Pnode->_Parent == _Pnode->_Parent->_Parent->_Left) { // fixup red-red in left subtree

  00060	8b 50 04	 mov	 edx, DWORD PTR [eax+4]
  00063	8b 72 04	 mov	 esi, DWORD PTR [edx+4]
  00066	8b 0e		 mov	 ecx, DWORD PTR [esi]
  00068	3b d1		 cmp	 edx, ecx
  0006a	0f 85 aa 00 00
	00		 jne	 $LN10@Insert_nod

; 698  :                 const auto _Parent_sibling = _Pnode->_Parent->_Parent->_Right;

  00070	8b 4e 08	 mov	 ecx, DWORD PTR [esi+8]

; 699  :                 if (_Parent_sibling->_Color == _Red) { // parent's sibling has two red children, blacken both

  00073	80 79 0c 00	 cmp	 BYTE PTR [ecx+12], 0
  00077	0f 84 a3 00 00
	00		 je	 $LN82@Insert_nod

; 700  :                     _Pnode->_Parent->_Color          = _Black;
; 701  :                     _Parent_sibling->_Color          = _Black;
; 702  :                     _Pnode->_Parent->_Parent->_Color = _Red;
; 703  :                     _Pnode                           = _Pnode->_Parent->_Parent;
; 704  :                 } else { // parent's sibling has red and black children
; 705  :                     if (_Pnode == _Pnode->_Parent->_Right) { // rotate right child to left

  0007d	8b 72 08	 mov	 esi, DWORD PTR [edx+8]
  00080	3b c6		 cmp	 eax, esi
  00082	75 37		 jne	 SHORT $LN57@Insert_nod

; 485  :         _Wherenode->_Right = _Pnode->_Left;

  00084	8b 0e		 mov	 ecx, DWORD PTR [esi]

; 706  :                         _Pnode = _Pnode->_Parent;

  00086	8b c2		 mov	 eax, edx

; 485  :         _Wherenode->_Right = _Pnode->_Left;

  00088	89 4a 08	 mov	 DWORD PTR [edx+8], ecx

; 486  : 
; 487  :         if (!_Pnode->_Left->_Isnil) {

  0008b	8b 0e		 mov	 ecx, DWORD PTR [esi]
  0008d	80 79 0d 00	 cmp	 BYTE PTR [ecx+13], 0
  00091	75 03		 jne	 SHORT $LN21@Insert_nod

; 488  :             _Pnode->_Left->_Parent = _Wherenode;

  00093	89 41 04	 mov	 DWORD PTR [ecx+4], eax
$LN21@Insert_nod:

; 489  :         }
; 490  : 
; 491  :         _Pnode->_Parent = _Wherenode->_Parent;

  00096	8b 4a 04	 mov	 ecx, DWORD PTR [edx+4]
  00099	89 4e 04	 mov	 DWORD PTR [esi+4], ecx

; 492  : 
; 493  :         if (_Wherenode == _Myhead->_Parent) {

  0009c	8b 0b		 mov	 ecx, DWORD PTR [ebx]
  0009e	3b 41 04	 cmp	 eax, DWORD PTR [ecx+4]
  000a1	75 05		 jne	 SHORT $LN22@Insert_nod

; 494  :             _Myhead->_Parent = _Pnode;

  000a3	89 71 04	 mov	 DWORD PTR [ecx+4], esi
  000a6	eb 0e		 jmp	 SHORT $LN25@Insert_nod
$LN22@Insert_nod:

; 495  :         } else if (_Wherenode == _Wherenode->_Parent->_Left) {

  000a8	8b 4a 04	 mov	 ecx, DWORD PTR [edx+4]
  000ab	3b 01		 cmp	 eax, DWORD PTR [ecx]
  000ad	75 04		 jne	 SHORT $LN24@Insert_nod

; 496  :             _Wherenode->_Parent->_Left = _Pnode;

  000af	89 31		 mov	 DWORD PTR [ecx], esi

; 497  :         } else {

  000b1	eb 03		 jmp	 SHORT $LN25@Insert_nod
$LN24@Insert_nod:

; 498  :             _Wherenode->_Parent->_Right = _Pnode;

  000b3	89 71 08	 mov	 DWORD PTR [ecx+8], esi
$LN25@Insert_nod:

; 499  :         }
; 500  : 
; 501  :         _Pnode->_Left       = _Wherenode;

  000b6	89 06		 mov	 DWORD PTR [esi], eax

; 502  :         _Wherenode->_Parent = _Pnode;

  000b8	89 70 04	 mov	 DWORD PTR [eax+4], esi
$LN57@Insert_nod:

; 707  :                         _Lrotate(_Pnode);
; 708  :                     }
; 709  : 
; 710  :                     _Pnode->_Parent->_Color          = _Black; // propagate red up

  000bb	8b 48 04	 mov	 ecx, DWORD PTR [eax+4]
  000be	c6 41 0c 01	 mov	 BYTE PTR [ecx+12], 1

; 711  :                     _Pnode->_Parent->_Parent->_Color = _Red;

  000c2	8b 48 04	 mov	 ecx, DWORD PTR [eax+4]
  000c5	8b 49 04	 mov	 ecx, DWORD PTR [ecx+4]
  000c8	c6 41 0c 00	 mov	 BYTE PTR [ecx+12], 0

; 712  :                     _Rrotate(_Pnode->_Parent->_Parent);

  000cc	8b 48 04	 mov	 ecx, DWORD PTR [eax+4]
  000cf	8b 51 04	 mov	 edx, DWORD PTR [ecx+4]

; 506  :         _Nodeptr _Pnode   = _Wherenode->_Left;

  000d2	8b 32		 mov	 esi, DWORD PTR [edx]

; 507  :         _Wherenode->_Left = _Pnode->_Right;

  000d4	8b 4e 08	 mov	 ecx, DWORD PTR [esi+8]
  000d7	89 0a		 mov	 DWORD PTR [edx], ecx

; 508  : 
; 509  :         if (!_Pnode->_Right->_Isnil) {

  000d9	8b 4e 08	 mov	 ecx, DWORD PTR [esi+8]
  000dc	80 79 0d 00	 cmp	 BYTE PTR [ecx+13], 0
  000e0	75 03		 jne	 SHORT $LN29@Insert_nod

; 510  :             _Pnode->_Right->_Parent = _Wherenode;

  000e2	89 51 04	 mov	 DWORD PTR [ecx+4], edx
$LN29@Insert_nod:

; 511  :         }
; 512  : 
; 513  :         _Pnode->_Parent = _Wherenode->_Parent;

  000e5	8b 4a 04	 mov	 ecx, DWORD PTR [edx+4]
  000e8	89 4e 04	 mov	 DWORD PTR [esi+4], ecx

; 514  : 
; 515  :         if (_Wherenode == _Myhead->_Parent) {

  000eb	8b 0b		 mov	 ecx, DWORD PTR [ebx]
  000ed	3b 51 04	 cmp	 edx, DWORD PTR [ecx+4]
  000f0	75 0b		 jne	 SHORT $LN30@Insert_nod

; 516  :             _Myhead->_Parent = _Pnode;

  000f2	89 71 04	 mov	 DWORD PTR [ecx+4], esi

; 521  :         }
; 522  : 
; 523  :         _Pnode->_Right      = _Wherenode;

  000f5	89 56 08	 mov	 DWORD PTR [esi+8], edx

; 713  :                 }
; 714  :             } else { // fixup red-red in right subtree

  000f8	e9 cc 00 00 00	 jmp	 $LN81@Insert_nod
$LN30@Insert_nod:

; 517  :         } else if (_Wherenode == _Wherenode->_Parent->_Right) {

  000fd	8b 4a 04	 mov	 ecx, DWORD PTR [edx+4]
  00100	3b 51 08	 cmp	 edx, DWORD PTR [ecx+8]
  00103	75 0b		 jne	 SHORT $LN32@Insert_nod

; 518  :             _Wherenode->_Parent->_Right = _Pnode;

  00105	89 71 08	 mov	 DWORD PTR [ecx+8], esi

; 521  :         }
; 522  : 
; 523  :         _Pnode->_Right      = _Wherenode;

  00108	89 56 08	 mov	 DWORD PTR [esi+8], edx

; 713  :                 }
; 714  :             } else { // fixup red-red in right subtree

  0010b	e9 b9 00 00 00	 jmp	 $LN81@Insert_nod
$LN32@Insert_nod:

; 520  :             _Wherenode->_Parent->_Left = _Pnode;

  00110	89 31		 mov	 DWORD PTR [ecx], esi

; 521  :         }
; 522  : 
; 523  :         _Pnode->_Right      = _Wherenode;

  00112	89 56 08	 mov	 DWORD PTR [esi+8], edx

; 713  :                 }
; 714  :             } else { // fixup red-red in right subtree

  00115	e9 af 00 00 00	 jmp	 $LN81@Insert_nod
$LN10@Insert_nod:

; 715  :                 const auto _Parent_sibling = _Pnode->_Parent->_Parent->_Left;
; 716  :                 if (_Parent_sibling->_Color == _Red) { // parent's sibling has two red children, blacken both

  0011a	80 79 0c 00	 cmp	 BYTE PTR [ecx+12], 0
  0011e	75 1d		 jne	 SHORT $LN15@Insert_nod
$LN82@Insert_nod:

; 693  :             }
; 694  :         }
; 695  : 
; 696  :         for (_Nodeptr _Pnode = _Newnode; _Pnode->_Parent->_Color == _Red;) {

  00120	c6 42 0c 01	 mov	 BYTE PTR [edx+12], 1
  00124	c6 41 0c 01	 mov	 BYTE PTR [ecx+12], 1
  00128	8b 48 04	 mov	 ecx, DWORD PTR [eax+4]
  0012b	8b 49 04	 mov	 ecx, DWORD PTR [ecx+4]
  0012e	c6 41 0c 00	 mov	 BYTE PTR [ecx+12], 0
  00132	8b 48 04	 mov	 ecx, DWORD PTR [eax+4]
  00135	8b 41 04	 mov	 eax, DWORD PTR [ecx+4]
  00138	e9 8f 00 00 00	 jmp	 $LN2@Insert_nod
$LN15@Insert_nod:

; 717  :                     _Pnode->_Parent->_Color          = _Black;
; 718  :                     _Parent_sibling->_Color          = _Black;
; 719  :                     _Pnode->_Parent->_Parent->_Color = _Red;
; 720  :                     _Pnode                           = _Pnode->_Parent->_Parent;
; 721  :                 } else { // parent's sibling has red and black children
; 722  :                     if (_Pnode == _Pnode->_Parent->_Left) { // rotate left child to right

  0013d	8b 32		 mov	 esi, DWORD PTR [edx]
  0013f	3b c6		 cmp	 eax, esi
  00141	75 3a		 jne	 SHORT $LN42@Insert_nod

; 507  :         _Wherenode->_Left = _Pnode->_Right;

  00143	8b 4e 08	 mov	 ecx, DWORD PTR [esi+8]

; 723  :                         _Pnode = _Pnode->_Parent;

  00146	8b c2		 mov	 eax, edx

; 507  :         _Wherenode->_Left = _Pnode->_Right;

  00148	89 08		 mov	 DWORD PTR [eax], ecx

; 508  : 
; 509  :         if (!_Pnode->_Right->_Isnil) {

  0014a	8b 4e 08	 mov	 ecx, DWORD PTR [esi+8]
  0014d	80 79 0d 00	 cmp	 BYTE PTR [ecx+13], 0
  00151	75 03		 jne	 SHORT $LN37@Insert_nod

; 510  :             _Pnode->_Right->_Parent = _Wherenode;

  00153	89 41 04	 mov	 DWORD PTR [ecx+4], eax
$LN37@Insert_nod:

; 511  :         }
; 512  : 
; 513  :         _Pnode->_Parent = _Wherenode->_Parent;

  00156	8b 4a 04	 mov	 ecx, DWORD PTR [edx+4]
  00159	89 4e 04	 mov	 DWORD PTR [esi+4], ecx

; 514  : 
; 515  :         if (_Wherenode == _Myhead->_Parent) {

  0015c	8b 0b		 mov	 ecx, DWORD PTR [ebx]
  0015e	3b 41 04	 cmp	 eax, DWORD PTR [ecx+4]
  00161	75 05		 jne	 SHORT $LN38@Insert_nod

; 516  :             _Myhead->_Parent = _Pnode;

  00163	89 71 04	 mov	 DWORD PTR [ecx+4], esi
  00166	eb 0f		 jmp	 SHORT $LN41@Insert_nod
$LN38@Insert_nod:

; 517  :         } else if (_Wherenode == _Wherenode->_Parent->_Right) {

  00168	8b 4a 04	 mov	 ecx, DWORD PTR [edx+4]
  0016b	3b 41 08	 cmp	 eax, DWORD PTR [ecx+8]
  0016e	75 05		 jne	 SHORT $LN40@Insert_nod

; 518  :             _Wherenode->_Parent->_Right = _Pnode;

  00170	89 71 08	 mov	 DWORD PTR [ecx+8], esi

; 519  :         } else {

  00173	eb 02		 jmp	 SHORT $LN41@Insert_nod
$LN40@Insert_nod:

; 520  :             _Wherenode->_Parent->_Left = _Pnode;

  00175	89 31		 mov	 DWORD PTR [ecx], esi
$LN41@Insert_nod:

; 521  :         }
; 522  : 
; 523  :         _Pnode->_Right      = _Wherenode;

  00177	89 46 08	 mov	 DWORD PTR [esi+8], eax

; 524  :         _Wherenode->_Parent = _Pnode;

  0017a	89 70 04	 mov	 DWORD PTR [eax+4], esi
$LN42@Insert_nod:

; 724  :                         _Rrotate(_Pnode);
; 725  :                     }
; 726  : 
; 727  :                     _Pnode->_Parent->_Color          = _Black; // propagate red up

  0017d	8b 48 04	 mov	 ecx, DWORD PTR [eax+4]
  00180	c6 41 0c 01	 mov	 BYTE PTR [ecx+12], 1

; 728  :                     _Pnode->_Parent->_Parent->_Color = _Red;

  00184	8b 48 04	 mov	 ecx, DWORD PTR [eax+4]
  00187	8b 49 04	 mov	 ecx, DWORD PTR [ecx+4]
  0018a	c6 41 0c 00	 mov	 BYTE PTR [ecx+12], 0

; 729  :                     _Lrotate(_Pnode->_Parent->_Parent);

  0018e	8b 48 04	 mov	 ecx, DWORD PTR [eax+4]
  00191	8b 51 04	 mov	 edx, DWORD PTR [ecx+4]

; 484  :         _Nodeptr _Pnode    = _Wherenode->_Right;

  00194	8b 72 08	 mov	 esi, DWORD PTR [edx+8]

; 485  :         _Wherenode->_Right = _Pnode->_Left;

  00197	8b 0e		 mov	 ecx, DWORD PTR [esi]
  00199	89 4a 08	 mov	 DWORD PTR [edx+8], ecx

; 486  : 
; 487  :         if (!_Pnode->_Left->_Isnil) {

  0019c	8b 0e		 mov	 ecx, DWORD PTR [esi]
  0019e	80 79 0d 00	 cmp	 BYTE PTR [ecx+13], 0
  001a2	75 03		 jne	 SHORT $LN45@Insert_nod

; 488  :             _Pnode->_Left->_Parent = _Wherenode;

  001a4	89 51 04	 mov	 DWORD PTR [ecx+4], edx
$LN45@Insert_nod:

; 489  :         }
; 490  : 
; 491  :         _Pnode->_Parent = _Wherenode->_Parent;

  001a7	8b 4a 04	 mov	 ecx, DWORD PTR [edx+4]
  001aa	89 4e 04	 mov	 DWORD PTR [esi+4], ecx

; 492  : 
; 493  :         if (_Wherenode == _Myhead->_Parent) {

  001ad	8b 0b		 mov	 ecx, DWORD PTR [ebx]
  001af	3b 51 04	 cmp	 edx, DWORD PTR [ecx+4]
  001b2	75 05		 jne	 SHORT $LN46@Insert_nod

; 494  :             _Myhead->_Parent = _Pnode;

  001b4	89 71 04	 mov	 DWORD PTR [ecx+4], esi
  001b7	eb 0e		 jmp	 SHORT $LN49@Insert_nod
$LN46@Insert_nod:

; 495  :         } else if (_Wherenode == _Wherenode->_Parent->_Left) {

  001b9	8b 4a 04	 mov	 ecx, DWORD PTR [edx+4]
  001bc	3b 11		 cmp	 edx, DWORD PTR [ecx]
  001be	75 04		 jne	 SHORT $LN48@Insert_nod

; 496  :             _Wherenode->_Parent->_Left = _Pnode;

  001c0	89 31		 mov	 DWORD PTR [ecx], esi

; 497  :         } else {

  001c2	eb 03		 jmp	 SHORT $LN49@Insert_nod
$LN48@Insert_nod:

; 498  :             _Wherenode->_Parent->_Right = _Pnode;

  001c4	89 71 08	 mov	 DWORD PTR [ecx+8], esi
$LN49@Insert_nod:

; 499  :         }
; 500  : 
; 501  :         _Pnode->_Left       = _Wherenode;

  001c7	89 16		 mov	 DWORD PTR [esi], edx
$LN81@Insert_nod:

; 693  :             }
; 694  :         }
; 695  : 
; 696  :         for (_Nodeptr _Pnode = _Newnode; _Pnode->_Parent->_Color == _Red;) {

  001c9	89 72 04	 mov	 DWORD PTR [edx+4], esi
$LN2@Insert_nod:
  001cc	8b 48 04	 mov	 ecx, DWORD PTR [eax+4]
  001cf	80 79 0c 00	 cmp	 BYTE PTR [ecx+12], 0
  001d3	0f 84 87 fe ff
	ff		 je	 $LL4@Insert_nod
  001d9	5e		 pop	 esi
$LN3@Insert_nod:

; 730  :                 }
; 731  :             }
; 732  :         }
; 733  : 
; 734  :         _Head->_Parent->_Color = _Black; // root is always black

  001da	8b 45 fc	 mov	 eax, DWORD PTR __Head$1$[ebp]
  001dd	8b 40 04	 mov	 eax, DWORD PTR [eax+4]
  001e0	c6 40 0c 01	 mov	 BYTE PTR [eax+12], 1

; 735  :         return _Newnode;
; 736  :     }

  001e4	8b c7		 mov	 eax, edi
  001e6	5f		 pop	 edi
  001e7	5b		 pop	 ebx
  001e8	8b e5		 mov	 esp, ebp
  001ea	5d		 pop	 ebp
  001eb	c2 0c 00	 ret	 12			; 0000000cH
?_Insert_node@?$_Tree_val@U?$_Tree_simple_types@U?$pair@$$CBKP8CDPCoreSrvr@@AEXAAVCAr@@PAEK@Z@std@@@std@@@std@@QAEPAU?$_Tree_node@U?$pair@$$CBKP8CDPCoreSrvr@@AEXAAVCAr@@PAEK@Z@std@@PAX@2@U?$_Tree_id@PAU?$_Tree_node@U?$pair@$$CBKP8CDPCoreSrvr@@AEXAAVCAr@@PAEK@Z@std@@PAX@std@@@2@QAU32@@Z ENDP ; std::_Tree_val<std::_Tree_simple_types<std::pair<unsigned long const ,void (__thiscall CDPCoreSrvr::*)(CAr &,unsigned char *,unsigned long)> > >::_Insert_node
_TEXT	ENDS
; Function compile flags: /Ogtp
; File C:\Program Files\Microsoft Visual Studio\2022\Professional\VC\Tools\MSVC\14.44.35207\include\xtree
; File C:\Program Files\Microsoft Visual Studio\2022\Professional\VC\Tools\MSVC\14.44.35207\include\utility
; File C:\Program Files\Microsoft Visual Studio\2022\Professional\VC\Tools\MSVC\14.44.35207\include\xmemory
; File C:\Program Files\Microsoft Visual Studio\2022\Professional\VC\Tools\MSVC\14.44.35207\include\xtree
; File C:\Program Files\Microsoft Visual Studio\2022\Professional\VC\Tools\MSVC\14.44.35207\include\xmemory
; File C:\Program Files\Microsoft Visual Studio\2022\Professional\VC\Tools\MSVC\14.44.35207\include\xtree
;	COMDAT ??1?$_Tree@V?$_Tmap_traits@KP8CDPCoreSrvr@@AEXAAVCAr@@PAEK@ZU?$less@K@std@@V?$allocator@U?$pair@$$CBKP8CDPCoreSrvr@@AEXAAVCAr@@PAEK@Z@std@@@4@$0A@@std@@@std@@QAE@XZ
_TEXT	SEGMENT
??1?$_Tree@V?$_Tmap_traits@KP8CDPCoreSrvr@@AEXAAVCAr@@PAEK@ZU?$less@K@std@@V?$allocator@U?$pair@$$CBKP8CDPCoreSrvr@@AEXAAVCAr@@PAEK@Z@std@@@4@$0A@@std@@@std@@QAE@XZ PROC ; std::_Tree<std::_Tmap_traits<unsigned long,void (__thiscall CDPCoreSrvr::*)(CAr &,unsigned char *,unsigned long),std::less<unsigned long>,std::allocator<std::pair<unsigned long const ,void (__thiscall CDPCoreSrvr::*)(CAr &,unsigned char *,unsigned long)> >,0> >::~_Tree<std::_Tmap_traits<unsigned long,void (__thiscall CDPCoreSrvr::*)(CAr &,unsigned char *,unsigned long),std::less<unsigned long>,std::allocator<std::pair<unsigned long const ,void (__thiscall CDPCoreSrvr::*)(CAr &,unsigned char *,unsigned long)> >,0> >, COMDAT
; _this$ = ecx

; 1095 :     ~_Tree() noexcept {

  00000	56		 push	 esi
  00001	57		 push	 edi
  00002	8b f9		 mov	 edi, ecx

; 777  :         _Erase_tree(_Al, _Myhead->_Parent);

  00004	8b 37		 mov	 esi, DWORD PTR [edi]
  00006	8b 76 04	 mov	 esi, DWORD PTR [esi+4]

; 768  :         while (!_Rootnode->_Isnil) { // free subtrees, then node

  00009	80 7e 0d 00	 cmp	 BYTE PTR [esi+13], 0
  0000d	75 21		 jne	 SHORT $LN61@Tree
  0000f	90		 npad	 1
$LL8@Tree:

; 769  :             _Erase_tree(_Al, _Rootnode->_Right);

  00010	ff 76 08	 push	 DWORD PTR [esi+8]
  00013	8b cf		 mov	 ecx, edi
  00015	57		 push	 edi
  00016	e8 00 00 00 00	 call	 ??$_Erase_tree@V?$allocator@U?$_Tree_node@U?$pair@$$CBKP8CDPCoreSrvr@@AEXAAVCAr@@PAEK@Z@std@@PAX@std@@@std@@@?$_Tree_val@U?$_Tree_simple_types@U?$pair@$$CBKP8CDPCoreSrvr@@AEXAAVCAr@@PAEK@Z@std@@@std@@@std@@QAEXAAV?$allocator@U?$_Tree_node@U?$pair@$$CBKP8CDPCoreSrvr@@AEXAAVCAr@@PAEK@Z@std@@PAX@std@@@1@PAU?$_Tree_node@U?$pair@$$CBKP8CDPCoreSrvr@@AEXAAVCAr@@PAEK@Z@std@@PAX@1@@Z ; std::_Tree_val<std::_Tree_simple_types<std::pair<unsigned long const ,void (__thiscall CDPCoreSrvr::*)(CAr &,unsigned char *,unsigned long)> > >::_Erase_tree<std::allocator<std::_Tree_node<std::pair<unsigned long const ,void (__thiscall CDPCoreSrvr::*)(CAr &,unsigned char *,unsigned long)>,void *> > >
; File C:\Program Files\Microsoft Visual Studio\2022\Professional\VC\Tools\MSVC\14.44.35207\include\utility

; 773  :     _Ty _Old_val = static_cast<_Ty&&>(_Val);

  0001b	8b c6		 mov	 eax, esi

; 774  :     _Val         = static_cast<_Other&&>(_New_val);

  0001d	8b 36		 mov	 esi, DWORD PTR [esi]
; File C:\Program Files\Microsoft Visual Studio\2022\Professional\VC\Tools\MSVC\14.44.35207\include\xmemory

; 289  :         ::operator delete(_Ptr, _Bytes);

  0001f	6a 18		 push	 24			; 00000018H
  00021	50		 push	 eax
  00022	e8 00 00 00 00	 call	 ??3@YAXPAXI@Z		; operator delete
  00027	83 c4 08	 add	 esp, 8
; File C:\Program Files\Microsoft Visual Studio\2022\Professional\VC\Tools\MSVC\14.44.35207\include\xtree

; 768  :         while (!_Rootnode->_Isnil) { // free subtrees, then node

  0002a	80 7e 0d 00	 cmp	 BYTE PTR [esi+13], 0
  0002e	74 e0		 je	 SHORT $LL8@Tree
$LN61@Tree:
; File C:\Program Files\Microsoft Visual Studio\2022\Professional\VC\Tools\MSVC\14.44.35207\include\xmemory

; 289  :         ::operator delete(_Ptr, _Bytes);

  00030	6a 18		 push	 24			; 00000018H
  00032	ff 37		 push	 DWORD PTR [edi]
  00034	e8 00 00 00 00	 call	 ??3@YAXPAXI@Z		; operator delete
  00039	83 c4 08	 add	 esp, 8
  0003c	5f		 pop	 edi
  0003d	5e		 pop	 esi
; File C:\Program Files\Microsoft Visual Studio\2022\Professional\VC\Tools\MSVC\14.44.35207\include\xtree

; 1102 :     }

  0003e	c3		 ret	 0
??1?$_Tree@V?$_Tmap_traits@KP8CDPCoreSrvr@@AEXAAVCAr@@PAEK@ZU?$less@K@std@@V?$allocator@U?$pair@$$CBKP8CDPCoreSrvr@@AEXAAVCAr@@PAEK@Z@std@@@4@$0A@@std@@@std@@QAE@XZ ENDP ; std::_Tree<std::_Tmap_traits<unsigned long,void (__thiscall CDPCoreSrvr::*)(CAr &,unsigned char *,unsigned long),std::less<unsigned long>,std::allocator<std::pair<unsigned long const ,void (__thiscall CDPCoreSrvr::*)(CAr &,unsigned char *,unsigned long)> >,0> >::~_Tree<std::_Tmap_traits<unsigned long,void (__thiscall CDPCoreSrvr::*)(CAr &,unsigned char *,unsigned long),std::less<unsigned long>,std::allocator<std::pair<unsigned long const ,void (__thiscall CDPCoreSrvr::*)(CAr &,unsigned char *,unsigned long)> >,0> >
_TEXT	ENDS
; Function compile flags: /Ogtp
; File C:\IAGOS\server\v18\Source\Source\DatabaseServer\DPCoreSrvr.cpp
; File C:\Program Files\Microsoft Visual Studio\2022\Professional\VC\Tools\MSVC\14.44.35207\include\vector
; File C:\IAGOS\server\v18\Source\Source\DatabaseServer\DPCoreSrvr.cpp
; File C:\Program Files\Microsoft Visual Studio\2022\Professional\VC\Tools\MSVC\14.44.35207\include\vector
; File C:\IAGOS\server\v18\Source\Source\DatabaseServer\DPCoreSrvr.cpp
; File C:\Program Files\Microsoft Visual Studio\2022\Professional\VC\Tools\MSVC\14.44.35207\include\vector
; File C:\IAGOS\server\v18\Source\Source\DatabaseServer\DPCoreSrvr.cpp
; File C:\Program Files\Microsoft Visual Studio\2022\Professional\VC\Tools\MSVC\14.44.35207\include\vector
; File C:\IAGOS\server\v18\Source\Source\DatabaseServer\DPCoreSrvr.cpp
; File C:\Program Files\Microsoft Visual Studio\2022\Professional\VC\Tools\MSVC\14.44.35207\include\vector
; File C:\Program Files\Microsoft Visual Studio\2022\Professional\VC\Tools\MSVC\14.44.35207\include\xstring
; File C:\IAGOS\server\v18\Source\Source\DatabaseServer\DPCoreSrvr.cpp
; File C:\IAGOS\server\v18\Source\Source\_Network\Net\Include\DPMng.h
; File C:\Program Files\Microsoft Visual Studio\2022\Professional\VC\Tools\MSVC\14.44.35207\include\vector
; File C:\Program Files\Microsoft Visual Studio\2022\Professional\VC\Tools\MSVC\14.44.35207\include\xmemory
; File C:\Program Files\Microsoft Visual Studio\2022\Professional\VC\Tools\MSVC\14.44.35207\include\xstring
; File C:\Program Files\Microsoft Visual Studio\2022\Professional\VC\Tools\MSVC\14.44.35207\include\xmemory
; File C:\Program Files\Microsoft Visual Studio\2022\Professional\VC\Tools\MSVC\14.44.35207\include\xstring
; File C:\Program Files\Microsoft Visual Studio\2022\Professional\VC\Tools\MSVC\14.44.35207\include\xmemory
; File C:\Program Files\Microsoft Visual Studio\2022\Professional\VC\Tools\MSVC\14.44.35207\include\xstring
; File C:\Program Files\Microsoft Visual Studio\2022\Professional\VC\Tools\MSVC\14.44.35207\include\xmemory
; File C:\Program Files\Microsoft Visual Studio\2022\Professional\VC\Tools\MSVC\14.44.35207\include\vector
; File C:\Program Files\Microsoft Visual Studio\2022\Professional\VC\Tools\MSVC\14.44.35207\include\xmemory
; File C:\IAGOS\server\v18\Source\Source\DatabaseServer\DPCoreSrvr.cpp
; File C:\Program Files\Microsoft Visual Studio\2022\Professional\VC\Tools\MSVC\14.44.35207\include\xmemory
; File C:\IAGOS\server\v18\Source\Source\DatabaseServer\DPCoreSrvr.cpp
;	COMDAT ?SendEventLuaNotice@CDPCoreSrvr@@QAEXXZ
_TEXT	SEGMENT
$T2 = -16460						; size = 12
_nBufSize$ = -16448					; size = 4
_this$GSCopy$1$ = -16444				; size = 4
$T3 = -16440						; size = 4
_vecstrMessage$ = -16436				; size = 12
$T4 = -16424						; size = 4
_vecstrMessage$3$ = -16424				; size = 4
_ar$ = -16420						; size = 16404
__$ArrayPad$ = -16					; size = 4
__$EHRec$ = -12						; size = 12
?SendEventLuaNotice@CDPCoreSrvr@@QAEXXZ PROC		; CDPCoreSrvr::SendEventLuaNotice, COMDAT
; _this$ = ecx

; 484  : {

  00000	55		 push	 ebp
  00001	8b ec		 mov	 ebp, esp
  00003	6a ff		 push	 -1
  00005	68 00 00 00 00	 push	 __ehhandler$?SendEventLuaNotice@CDPCoreSrvr@@QAEXXZ
  0000a	64 a1 00 00 00
	00		 mov	 eax, DWORD PTR fs:0
  00010	50		 push	 eax
  00011	b8 40 40 00 00	 mov	 eax, 16448		; 00004040H
  00016	e8 00 00 00 00	 call	 __chkstk
  0001b	a1 00 00 00 00	 mov	 eax, DWORD PTR ___security_cookie
  00020	33 c5		 xor	 eax, ebp
  00022	89 45 f0	 mov	 DWORD PTR __$ArrayPad$[ebp], eax
  00025	53		 push	 ebx
  00026	56		 push	 esi
  00027	57		 push	 edi
  00028	50		 push	 eax
  00029	8d 45 f4	 lea	 eax, DWORD PTR __$EHRec$[ebp]
  0002c	64 a3 00 00 00
	00		 mov	 DWORD PTR fs:0, eax
  00032	89 8d c4 bf ff
	ff		 mov	 DWORD PTR _this$GSCopy$1$[ebp], ecx

; 485  : 	BEFORESEND( ar, PACKETTYPE_EVENTLUA_NOTICE );

  00038	6a 00		 push	 0
  0003a	6a 00		 push	 0
  0003c	8d 8d dc bf ff
	ff		 lea	 ecx, DWORD PTR _ar$[ebp]
  00042	e8 00 00 00 00	 call	 ??0CAr@@QAE@PAXI@Z	; CAr::CAr
  00047	8d 85 d8 bf ff
	ff		 lea	 eax, DWORD PTR $T4[ebp]
  0004d	c7 45 fc 00 00
	00 00		 mov	 DWORD PTR __$EHRec$[ebp+8], 0
  00054	50		 push	 eax
  00055	8d 8d dc bf ff
	ff		 lea	 ecx, DWORD PTR _ar$[ebp]
  0005b	c7 85 d8 bf ff
	ff 20 f1 00 f0	 mov	 DWORD PTR $T4[ebp], -268373728 ; f000f120H
  00065	e8 00 00 00 00	 call	 ??$?6K@CAr@@QAEAAV0@ABK@Z ; CAr::operator<<<unsigned long>
; File C:\Program Files\Microsoft Visual Studio\2022\Professional\VC\Tools\MSVC\14.44.35207\include\vector

; 400  :     _CONSTEXPR20 _Vector_val() noexcept : _Myfirst(), _Mylast(), _Myend() {}

  0006a	33 c0		 xor	 eax, eax
  0006c	33 ff		 xor	 edi, edi
  0006e	33 f6		 xor	 esi, esi
  00070	89 bd cc bf ff
	ff		 mov	 DWORD PTR _vecstrMessage$[ebp], edi
  00076	89 b5 d0 bf ff
	ff		 mov	 DWORD PTR _vecstrMessage$[ebp+4], esi
  0007c	89 85 d8 bf ff
	ff		 mov	 DWORD PTR _vecstrMessage$3$[ebp], eax
  00082	89 85 d4 bf ff
	ff		 mov	 DWORD PTR _vecstrMessage$[ebp+8], eax
; File C:\IAGOS\server\v18\Source\Source\DatabaseServer\DPCoreSrvr.cpp

; 487  : 	vecstrMessage = prj.m_EventLua.GetNoticeMessage();

  00088	8d 85 b4 bf ff
	ff		 lea	 eax, DWORD PTR $T2[ebp]
  0008e	c6 45 fc 01	 mov	 BYTE PTR __$EHRec$[ebp+8], 1
  00092	50		 push	 eax
  00093	b9 84 00 00 00	 mov	 ecx, OFFSET ?prj@@3VCProject@@A+132
  00098	e8 00 00 00 00	 call	 ?GetNoticeMessage@CEventLua@@QAE?AV?$vector@V?$basic_string@DU?$char_traits@D@std@@V?$allocator@D@2@@std@@V?$allocator@V?$basic_string@DU?$char_traits@D@std@@V?$allocator@D@2@@std@@@2@@std@@XZ ; CEventLua::GetNoticeMessage
; File C:\Program Files\Microsoft Visual Studio\2022\Professional\VC\Tools\MSVC\14.44.35207\include\vector

; 800  :         if (this == _STD addressof(_Right)) {

  0009d	8d 8d cc bf ff
	ff		 lea	 ecx, DWORD PTR _vecstrMessage$[ebp]
  000a3	3b c8		 cmp	 ecx, eax
  000a5	74 34		 je	 SHORT $LN88@SendEventL

; 429  :         _Myend   = _Right._Myend;

  000a7	8b 48 08	 mov	 ecx, DWORD PTR [eax+8]
  000aa	8b 38		 mov	 edi, DWORD PTR [eax]
  000ac	8b 70 04	 mov	 esi, DWORD PTR [eax+4]
  000af	89 bd cc bf ff
	ff		 mov	 DWORD PTR _vecstrMessage$[ebp], edi
  000b5	89 b5 d0 bf ff
	ff		 mov	 DWORD PTR _vecstrMessage$[ebp+4], esi
  000bb	89 8d d8 bf ff
	ff		 mov	 DWORD PTR _vecstrMessage$3$[ebp], ecx
  000c1	89 8d d4 bf ff
	ff		 mov	 DWORD PTR _vecstrMessage$[ebp+8], ecx

; 430  : 
; 431  :         _Right._Myfirst = nullptr;

  000c7	c7 00 00 00 00
	00		 mov	 DWORD PTR [eax], 0

; 432  :         _Right._Mylast  = nullptr;

  000cd	c7 40 04 00 00
	00 00		 mov	 DWORD PTR [eax+4], 0

; 433  :         _Right._Myend   = nullptr;

  000d4	c7 40 08 00 00
	00 00		 mov	 DWORD PTR [eax+8], 0
$LN88@SendEventL:

; 830  :         _Tidy();

  000db	8d 8d b4 bf ff
	ff		 lea	 ecx, DWORD PTR $T2[ebp]
  000e1	e8 00 00 00 00	 call	 ?_Tidy@?$vector@V?$basic_string@DU?$char_traits@D@std@@V?$allocator@D@2@@std@@V?$allocator@V?$basic_string@DU?$char_traits@D@std@@V?$allocator@D@2@@std@@@2@@std@@AAEXXZ ; std::vector<std::basic_string<char,std::char_traits<char>,std::allocator<char> >,std::allocator<std::basic_string<char,std::char_traits<char>,std::allocator<char> > > >::_Tidy

; 1915 :         return static_cast<size_type>(_My_data._Mylast - _My_data._Myfirst);

  000e6	8b ce		 mov	 ecx, esi
  000e8	b8 ab aa aa 2a	 mov	 eax, 715827883		; 2aaaaaabH
  000ed	2b cf		 sub	 ecx, edi
  000ef	f7 e9		 imul	 ecx
; File C:\IAGOS\server\v18\Source\Source\DatabaseServer\DPCoreSrvr.cpp

; 488  : 	ar << vecstrMessage.size();

  000f1	8d 85 c8 bf ff
	ff		 lea	 eax, DWORD PTR $T3[ebp]
; File C:\Program Files\Microsoft Visual Studio\2022\Professional\VC\Tools\MSVC\14.44.35207\include\vector

; 1915 :         return static_cast<size_type>(_My_data._Mylast - _My_data._Myfirst);

  000f7	c1 fa 02	 sar	 edx, 2
; File C:\IAGOS\server\v18\Source\Source\DatabaseServer\DPCoreSrvr.cpp

; 488  : 	ar << vecstrMessage.size();

  000fa	8d 8d dc bf ff
	ff		 lea	 ecx, DWORD PTR _ar$[ebp]
; File C:\Program Files\Microsoft Visual Studio\2022\Professional\VC\Tools\MSVC\14.44.35207\include\vector

; 1915 :         return static_cast<size_type>(_My_data._Mylast - _My_data._Myfirst);

  00100	8b da		 mov	 ebx, edx
  00102	c1 eb 1f	 shr	 ebx, 31			; 0000001fH
  00105	03 da		 add	 ebx, edx
; File C:\IAGOS\server\v18\Source\Source\DatabaseServer\DPCoreSrvr.cpp

; 488  : 	ar << vecstrMessage.size();

  00107	50		 push	 eax
  00108	89 9d c8 bf ff
	ff		 mov	 DWORD PTR $T3[ebp], ebx
  0010e	e8 00 00 00 00	 call	 ??$?6I@CAr@@QAEAAV0@ABI@Z ; CAr::operator<<<unsigned int>

; 489  : 	for( DWORD i=0; i<vecstrMessage.size(); i++ )

  00113	85 db		 test	 ebx, ebx
  00115	74 27		 je	 SHORT $LN3@SendEventL
; File C:\Program Files\Microsoft Visual Studio\2022\Professional\VC\Tools\MSVC\14.44.35207\include\vector

; 830  :         _Tidy();

  00117	8b f7		 mov	 esi, edi
  00119	0f 1f 80 00 00
	00 00		 npad	 7
$LL4@SendEventL:
; File C:\Program Files\Microsoft Visual Studio\2022\Professional\VC\Tools\MSVC\14.44.35207\include\xstring

; 453  :         return _Myres > _Small_string_capacity;

  00120	83 7e 14 0f	 cmp	 DWORD PTR [esi+20], 15	; 0000000fH

; 444  :         const value_type* _Result = _Bx._Buf;

  00124	8b c6		 mov	 eax, esi

; 445  :         if (_Large_mode_engaged()) {

  00126	76 02		 jbe	 SHORT $LN107@SendEventL

; 446  :             _Result = _Unfancy(_Bx._Ptr);

  00128	8b 06		 mov	 eax, DWORD PTR [esi]
$LN107@SendEventL:
; File C:\IAGOS\server\v18\Source\Source\DatabaseServer\DPCoreSrvr.cpp

; 490  : 	ar.WriteString( vecstrMessage[i].c_str() );

  0012a	50		 push	 eax
  0012b	8d 8d dc bf ff
	ff		 lea	 ecx, DWORD PTR _ar$[ebp]
  00131	e8 00 00 00 00	 call	 ?WriteString@CAr@@QAEXPBD@Z ; CAr::WriteString
  00136	83 c6 18	 add	 esi, 24			; 00000018H
  00139	83 eb 01	 sub	 ebx, 1
  0013c	75 e2		 jne	 SHORT $LL4@SendEventL
$LN3@SendEventL:

; 491  : 	SEND( ar, this, DPID_ALLPLAYERS );

  0013e	8d 85 c0 bf ff
	ff		 lea	 eax, DWORD PTR _nBufSize$[ebp]
  00144	50		 push	 eax
  00145	8d 8d dc bf ff
	ff		 lea	 ecx, DWORD PTR _ar$[ebp]
  0014b	e8 00 00 00 00	 call	 ?GetBuffer@CAr@@QAEPAEPAH@Z ; CAr::GetBuffer
; File C:\IAGOS\server\v18\Source\Source\_Network\Net\Include\DPMng.h

; 171  : 	if( !m_pDPSock )

  00150	8b 8d c4 bf ff
	ff		 mov	 ecx, DWORD PTR _this$GSCopy$1$[ebp]
  00156	8b 49 04	 mov	 ecx, DWORD PTR [ecx+4]
  00159	85 c9		 test	 ecx, ecx
  0015b	74 0e		 je	 SHORT $LN113@SendEventL

; 172  : 		return FALSE;
; 173  : 	return m_pDPSock->Send( (char*)lpData, dwDataSize, dpidTo );

  0015d	6a 00		 push	 0
  0015f	ff b5 c0 bf ff
	ff		 push	 DWORD PTR _nBufSize$[ebp]
  00165	50		 push	 eax
  00166	e8 00 00 00 00	 call	 ?Send@CDPSock@@QAEHPADKK@Z ; CDPSock::Send
$LN113@SendEventL:
; File C:\Program Files\Microsoft Visual Studio\2022\Professional\VC\Tools\MSVC\14.44.35207\include\vector

; 2090 :         if (_Myfirst) { // destroy and deallocate old array

  0016b	85 ff		 test	 edi, edi
  0016d	0f 84 9b 00 00
	00		 je	 $LN120@SendEventL

; 2091 :             _STD _Destroy_range(_Myfirst, _Mylast, _Al);

  00173	8b 9d d0 bf ff
	ff		 mov	 ebx, DWORD PTR _vecstrMessage$[ebp+4]
  00179	8b f7		 mov	 esi, edi
  0017b	3b f3		 cmp	 esi, ebx
; File C:\Program Files\Microsoft Visual Studio\2022\Professional\VC\Tools\MSVC\14.44.35207\include\xmemory

; 1102 :         for (; _First != _Last; ++_First) {

  0017d	74 4c		 je	 SHORT $LN193@SendEventL
  0017f	90		 npad	 1
$LL126@SendEventL:
; File C:\Program Files\Microsoft Visual Studio\2022\Professional\VC\Tools\MSVC\14.44.35207\include\xstring

; 453  :         return _Myres > _Small_string_capacity;

  00180	8b 4e 14	 mov	 ecx, DWORD PTR [esi+20]
  00183	83 f9 0f	 cmp	 ecx, 15			; 0000000fH

; 3083 :         if (_My_data._Large_mode_engaged()) {

  00186	76 2b		 jbe	 SHORT $LN155@SendEventL
; File C:\Program Files\Microsoft Visual Studio\2022\Professional\VC\Tools\MSVC\14.44.35207\include\xmemory

; 985  :         _STD _Deallocate<_New_alignof<_Ty>>(_Ptr, sizeof(_Ty) * _Count);

  00188	8b 06		 mov	 eax, DWORD PTR [esi]
; File C:\Program Files\Microsoft Visual Studio\2022\Professional\VC\Tools\MSVC\14.44.35207\include\xstring

; 852  :         _Al.deallocate(_Old_ptr, _Capacity + 1); // +1 for null terminator

  0018a	41		 inc	 ecx
; File C:\Program Files\Microsoft Visual Studio\2022\Professional\VC\Tools\MSVC\14.44.35207\include\xmemory

; 284  :         if (_Bytes >= _Big_allocation_threshold) {

  0018b	81 f9 00 10 00
	00		 cmp	 ecx, 4096		; 00001000H
  00191	72 16		 jb	 SHORT $LN160@SendEventL

; 205  :     const uintptr_t _Ptr_container   = _Ptr_user[-1];

  00193	8b 50 fc	 mov	 edx, DWORD PTR [eax-4]
  00196	83 c1 23	 add	 ecx, 35			; 00000023H

; 206  : 
; 207  :     // If the following asserts, it likely means that we are performing
; 208  :     // an aligned delete on memory coming from an unaligned allocation.
; 209  :     _STL_ASSERT(_Ptr_user[-2] == _Big_allocation_sentinel, "invalid argument");
; 210  : 
; 211  :     // Extra paranoia on aligned allocation/deallocation; ensure _Ptr_container is
; 212  :     // in range [_Min_back_shift, _Non_user_size]
; 213  : #ifdef _DEBUG
; 214  :     constexpr uintptr_t _Min_back_shift = 2 * sizeof(void*);
; 215  : #else // ^^^ defined(_DEBUG) / !defined(_DEBUG) vvv
; 216  :     constexpr uintptr_t _Min_back_shift = sizeof(void*);
; 217  : #endif // ^^^ !defined(_DEBUG) ^^^
; 218  :     const uintptr_t _Back_shift = reinterpret_cast<uintptr_t>(_Ptr) - _Ptr_container;

  00199	2b c2		 sub	 eax, edx

; 219  :     _STL_VERIFY(_Back_shift >= _Min_back_shift && _Back_shift <= _Non_user_size, "invalid argument");

  0019b	83 c0 fc	 add	 eax, -4			; fffffffcH
  0019e	83 f8 1f	 cmp	 eax, 31			; 0000001fH
  001a1	0f 87 8e 00 00
	00		 ja	 $LN179@SendEventL

; 220  :     _Ptr = reinterpret_cast<void*>(_Ptr_container);

  001a7	8b c2		 mov	 eax, edx
$LN160@SendEventL:

; 289  :         ::operator delete(_Ptr, _Bytes);

  001a9	51		 push	 ecx
  001aa	50		 push	 eax
  001ab	e8 00 00 00 00	 call	 ??3@YAXPAXI@Z		; operator delete
  001b0	83 c4 08	 add	 esp, 8
$LN155@SendEventL:
; File C:\Program Files\Microsoft Visual Studio\2022\Professional\VC\Tools\MSVC\14.44.35207\include\xstring

; 3090 :         _My_data._Mysize = 0;

  001b3	c7 46 10 00 00
	00 00		 mov	 DWORD PTR [esi+16], 0

; 3091 :         _My_data._Myres  = _Small_string_capacity;

  001ba	c7 46 14 0f 00
	00 00		 mov	 DWORD PTR [esi+20], 15	; 0000000fH

; 3092 :         // the _Traits::assign is last so the codegen doesn't think the char write can alias this
; 3093 :         _Traits::assign(_My_data._Bx._Buf[0], _Elem());

  001c1	c6 06 00	 mov	 BYTE PTR [esi], 0
; File C:\Program Files\Microsoft Visual Studio\2022\Professional\VC\Tools\MSVC\14.44.35207\include\xmemory

; 1102 :         for (; _First != _Last; ++_First) {

  001c4	83 c6 18	 add	 esi, 24			; 00000018H
  001c7	3b f3		 cmp	 esi, ebx
  001c9	75 b5		 jne	 SHORT $LL126@SendEventL
$LN193@SendEventL:
; File C:\Program Files\Microsoft Visual Studio\2022\Professional\VC\Tools\MSVC\14.44.35207\include\vector

; 2093 :             _Al.deallocate(_Myfirst, static_cast<size_type>(_Myend - _Myfirst));

  001cb	8b 8d d8 bf ff
	ff		 mov	 ecx, DWORD PTR _vecstrMessage$3$[ebp]
  001d1	b8 ab aa aa 2a	 mov	 eax, 715827883		; 2aaaaaabH
  001d6	2b cf		 sub	 ecx, edi
  001d8	f7 e9		 imul	 ecx
  001da	c1 fa 02	 sar	 edx, 2
  001dd	8b c2		 mov	 eax, edx
  001df	c1 e8 1f	 shr	 eax, 31			; 0000001fH
  001e2	03 c2		 add	 eax, edx
; File C:\Program Files\Microsoft Visual Studio\2022\Professional\VC\Tools\MSVC\14.44.35207\include\xmemory

; 985  :         _STD _Deallocate<_New_alignof<_Ty>>(_Ptr, sizeof(_Ty) * _Count);

  001e4	8d 0c 40	 lea	 ecx, DWORD PTR [eax+eax*2]
  001e7	8b c7		 mov	 eax, edi
  001e9	c1 e1 03	 shl	 ecx, 3

; 284  :         if (_Bytes >= _Big_allocation_threshold) {

  001ec	81 f9 00 10 00
	00		 cmp	 ecx, 4096		; 00001000H
  001f2	72 10		 jb	 SHORT $LN180@SendEventL

; 205  :     const uintptr_t _Ptr_container   = _Ptr_user[-1];

  001f4	8b 78 fc	 mov	 edi, DWORD PTR [eax-4]
  001f7	83 c1 23	 add	 ecx, 35			; 00000023H
  001fa	2b c7		 sub	 eax, edi

; 219  :     _STL_VERIFY(_Back_shift >= _Min_back_shift && _Back_shift <= _Non_user_size, "invalid argument");

  001fc	83 c0 fc	 add	 eax, -4			; fffffffcH
  001ff	83 f8 1f	 cmp	 eax, 31			; 0000001fH
  00202	77 31		 ja	 SHORT $LN179@SendEventL
$LN180@SendEventL:

; 289  :         ::operator delete(_Ptr, _Bytes);

  00204	51		 push	 ecx
  00205	57		 push	 edi
  00206	e8 00 00 00 00	 call	 ??3@YAXPAXI@Z		; operator delete
  0020b	83 c4 08	 add	 esp, 8
$LN120@SendEventL:
; File C:\IAGOS\server\v18\Source\Source\DatabaseServer\DPCoreSrvr.cpp

; 492  : }

  0020e	8d 8d dc bf ff
	ff		 lea	 ecx, DWORD PTR _ar$[ebp]
  00214	e8 00 00 00 00	 call	 ??1CAr@@QAE@XZ		; CAr::~CAr
  00219	8b 4d f4	 mov	 ecx, DWORD PTR __$EHRec$[ebp]
  0021c	64 89 0d 00 00
	00 00		 mov	 DWORD PTR fs:0, ecx
  00223	59		 pop	 ecx
  00224	5f		 pop	 edi
  00225	5e		 pop	 esi
  00226	5b		 pop	 ebx
  00227	8b 4d f0	 mov	 ecx, DWORD PTR __$ArrayPad$[ebp]
  0022a	33 cd		 xor	 ecx, ebp
  0022c	e8 00 00 00 00	 call	 @__security_check_cookie@4
  00231	8b e5		 mov	 esp, ebp
  00233	5d		 pop	 ebp
  00234	c3		 ret	 0
$LN179@SendEventL:
; File C:\Program Files\Microsoft Visual Studio\2022\Professional\VC\Tools\MSVC\14.44.35207\include\xmemory

; 219  :     _STL_VERIFY(_Back_shift >= _Min_back_shift && _Back_shift <= _Non_user_size, "invalid argument");

  00235	6a 00		 push	 0
  00237	6a 00		 push	 0
  00239	6a 00		 push	 0
  0023b	6a 00		 push	 0
  0023d	6a 00		 push	 0
  0023f	e8 00 00 00 00	 call	 __invoke_watson
$LN201@SendEventL:
  00244	cc		 int	 3
_TEXT	ENDS
;	COMDAT text$x
text$x	SEGMENT
__unwindfunclet$?SendEventLuaNotice@CDPCoreSrvr@@QAEXXZ$0:
  00000	8d 8d dc bf ff
	ff		 lea	 ecx, DWORD PTR _ar$[ebp]
  00006	e9 00 00 00 00	 jmp	 ??1CAr@@QAE@XZ		; CAr::~CAr
__unwindfunclet$?SendEventLuaNotice@CDPCoreSrvr@@QAEXXZ$1:
  0000b	8d 8d cc bf ff
	ff		 lea	 ecx, DWORD PTR _vecstrMessage$[ebp]
  00011	e9 00 00 00 00	 jmp	 ??1?$vector@V?$basic_string@DU?$char_traits@D@std@@V?$allocator@D@2@@std@@V?$allocator@V?$basic_string@DU?$char_traits@D@std@@V?$allocator@D@2@@std@@@2@@std@@QAE@XZ ; std::vector<std::basic_string<char,std::char_traits<char>,std::allocator<char> >,std::allocator<std::basic_string<char,std::char_traits<char>,std::allocator<char> > > >::~vector<std::basic_string<char,std::char_traits<char>,std::allocator<char> >,std::allocator<std::basic_string<char,std::char_traits<char>,std::allocator<char> > > >
  00016	cc		 int	 3
  00017	cc		 int	 3
  00018	cc		 int	 3
  00019	cc		 int	 3
  0001a	cc		 int	 3
__ehhandler$?SendEventLuaNotice@CDPCoreSrvr@@QAEXXZ:
  0001b	90		 npad	 1
  0001c	90		 npad	 1
  0001d	8b 54 24 08	 mov	 edx, DWORD PTR [esp+8]
  00021	8d 42 0c	 lea	 eax, DWORD PTR [edx+12]
  00024	8b 8a b0 bf ff
	ff		 mov	 ecx, DWORD PTR [edx-16464]
  0002a	33 c8		 xor	 ecx, eax
  0002c	e8 00 00 00 00	 call	 @__security_check_cookie@4
  00031	8b 4a fc	 mov	 ecx, DWORD PTR [edx-4]
  00034	33 c8		 xor	 ecx, eax
  00036	e8 00 00 00 00	 call	 @__security_check_cookie@4
  0003b	b8 00 00 00 00	 mov	 eax, OFFSET __ehfuncinfo$?SendEventLuaNotice@CDPCoreSrvr@@QAEXXZ
  00040	e9 00 00 00 00	 jmp	 ___CxxFrameHandler3
text$x	ENDS
?SendEventLuaNotice@CDPCoreSrvr@@QAEXXZ ENDP		; CDPCoreSrvr::SendEventLuaNotice
; Function compile flags: /Ogtp
; File C:\IAGOS\server\v18\Source\Source\DatabaseServer\DPCoreSrvr.cpp
; File C:\IAGOS\server\v18\Source\Source\_Network\Net\Include\DPMng.h
; File C:\IAGOS\server\v18\Source\Source\DatabaseServer\DPCoreSrvr.cpp
;	COMDAT ?SendUpdatePlayerData@CDPCoreSrvr@@QAEXKPAU_PlayerData@@@Z
_TEXT	SEGMENT
_nBufSize$ = -16428					; size = 4
$T2 = -16424						; size = 4
_ar$ = -16420						; size = 16404
__$ArrayPad$ = -16					; size = 4
__$EHRec$ = -12						; size = 12
_idPlayer$ = 8						; size = 4
_pPlayerData$ = 12					; size = 4
?SendUpdatePlayerData@CDPCoreSrvr@@QAEXKPAU_PlayerData@@@Z PROC ; CDPCoreSrvr::SendUpdatePlayerData, COMDAT
; _this$ = ecx

; 433  : {

  00000	55		 push	 ebp
  00001	8b ec		 mov	 ebp, esp
  00003	6a ff		 push	 -1
  00005	68 00 00 00 00	 push	 __ehhandler$?SendUpdatePlayerData@CDPCoreSrvr@@QAEXKPAU_PlayerData@@@Z
  0000a	64 a1 00 00 00
	00		 mov	 eax, DWORD PTR fs:0
  00010	50		 push	 eax
  00011	b8 20 40 00 00	 mov	 eax, 16416		; 00004020H
  00016	e8 00 00 00 00	 call	 __chkstk
  0001b	a1 00 00 00 00	 mov	 eax, DWORD PTR ___security_cookie
  00020	33 c5		 xor	 eax, ebp
  00022	89 45 f0	 mov	 DWORD PTR __$ArrayPad$[ebp], eax
  00025	56		 push	 esi
  00026	57		 push	 edi
  00027	50		 push	 eax
  00028	8d 45 f4	 lea	 eax, DWORD PTR __$EHRec$[ebp]
  0002b	64 a3 00 00 00
	00		 mov	 DWORD PTR fs:0, eax
  00031	8b f9		 mov	 edi, ecx
  00033	8b 75 0c	 mov	 esi, DWORD PTR _pPlayerData$[ebp]

; 434  : 	BEFORESEND( ar, PACKETTYPE_UPDATE_PLAYER_DATA );

  00036	8d 8d dc bf ff
	ff		 lea	 ecx, DWORD PTR _ar$[ebp]
  0003c	6a 00		 push	 0
  0003e	6a 00		 push	 0
  00040	e8 00 00 00 00	 call	 ??0CAr@@QAE@PAXI@Z	; CAr::CAr
  00045	8d 85 d8 bf ff
	ff		 lea	 eax, DWORD PTR $T2[ebp]
  0004b	c7 45 fc 00 00
	00 00		 mov	 DWORD PTR __$EHRec$[ebp+8], 0
  00052	50		 push	 eax
  00053	8d 8d dc bf ff
	ff		 lea	 ecx, DWORD PTR _ar$[ebp]
  00059	c7 85 d8 bf ff
	ff 08 f8 00 f0	 mov	 DWORD PTR $T2[ebp], -268371960 ; f000f808H
  00063	e8 00 00 00 00	 call	 ??$?6K@CAr@@QAEAAV0@ABK@Z ; CAr::operator<<<unsigned long>

; 435  : 	ar << idPlayer;

  00068	8d 45 08	 lea	 eax, DWORD PTR _idPlayer$[ebp]
  0006b	50		 push	 eax
  0006c	8d 8d dc bf ff
	ff		 lea	 ecx, DWORD PTR _ar$[ebp]
  00072	e8 00 00 00 00	 call	 ??$?6K@CAr@@QAEAAV0@ABK@Z ; CAr::operator<<<unsigned long>

; 436  : 	ar.Write( &pPlayerData->data, sizeof(sPlayerData) );

  00077	6a 14		 push	 20			; 00000014H
  00079	56		 push	 esi
  0007a	8d 8d dc bf ff
	ff		 lea	 ecx, DWORD PTR _ar$[ebp]
  00080	e8 00 00 00 00	 call	 ?Write@CAr@@QAEXPBXI@Z	; CAr::Write

; 437  : 	SEND( ar, this, DPID_ALLPLAYERS );

  00085	8d 85 d4 bf ff
	ff		 lea	 eax, DWORD PTR _nBufSize$[ebp]
  0008b	50		 push	 eax
  0008c	8d 8d dc bf ff
	ff		 lea	 ecx, DWORD PTR _ar$[ebp]
  00092	e8 00 00 00 00	 call	 ?GetBuffer@CAr@@QAEPAEPAH@Z ; CAr::GetBuffer
; File C:\IAGOS\server\v18\Source\Source\_Network\Net\Include\DPMng.h

; 171  : 	if( !m_pDPSock )

  00097	8b 4f 04	 mov	 ecx, DWORD PTR [edi+4]
  0009a	85 c9		 test	 ecx, ecx
  0009c	74 0e		 je	 SHORT $LN4@SendUpdate

; 172  : 		return FALSE;
; 173  : 	return m_pDPSock->Send( (char*)lpData, dwDataSize, dpidTo );

  0009e	6a 00		 push	 0
  000a0	ff b5 d4 bf ff
	ff		 push	 DWORD PTR _nBufSize$[ebp]
  000a6	50		 push	 eax
  000a7	e8 00 00 00 00	 call	 ?Send@CDPSock@@QAEHPADKK@Z ; CDPSock::Send
$LN4@SendUpdate:
; File C:\IAGOS\server\v18\Source\Source\DatabaseServer\DPCoreSrvr.cpp

; 438  : }

  000ac	8d 8d dc bf ff
	ff		 lea	 ecx, DWORD PTR _ar$[ebp]
  000b2	e8 00 00 00 00	 call	 ??1CAr@@QAE@XZ		; CAr::~CAr
  000b7	8b 4d f4	 mov	 ecx, DWORD PTR __$EHRec$[ebp]
  000ba	64 89 0d 00 00
	00 00		 mov	 DWORD PTR fs:0, ecx
  000c1	59		 pop	 ecx
  000c2	5f		 pop	 edi
  000c3	5e		 pop	 esi
  000c4	8b 4d f0	 mov	 ecx, DWORD PTR __$ArrayPad$[ebp]
  000c7	33 cd		 xor	 ecx, ebp
  000c9	e8 00 00 00 00	 call	 @__security_check_cookie@4
  000ce	8b e5		 mov	 esp, ebp
  000d0	5d		 pop	 ebp
  000d1	c2 08 00	 ret	 8
_TEXT	ENDS
;	COMDAT text$x
text$x	SEGMENT
__unwindfunclet$?SendUpdatePlayerData@CDPCoreSrvr@@QAEXKPAU_PlayerData@@@Z$0:
  00000	8d 8d dc bf ff
	ff		 lea	 ecx, DWORD PTR _ar$[ebp]
  00006	e9 00 00 00 00	 jmp	 ??1CAr@@QAE@XZ		; CAr::~CAr
  0000b	cc		 int	 3
  0000c	cc		 int	 3
  0000d	cc		 int	 3
  0000e	cc		 int	 3
  0000f	cc		 int	 3
__ehhandler$?SendUpdatePlayerData@CDPCoreSrvr@@QAEXKPAU_PlayerData@@@Z:
  00010	90		 npad	 1
  00011	90		 npad	 1
  00012	8b 54 24 08	 mov	 edx, DWORD PTR [esp+8]
  00016	8d 42 0c	 lea	 eax, DWORD PTR [edx+12]
  00019	8b 8a d4 bf ff
	ff		 mov	 ecx, DWORD PTR [edx-16428]
  0001f	33 c8		 xor	 ecx, eax
  00021	e8 00 00 00 00	 call	 @__security_check_cookie@4
  00026	8b 4a fc	 mov	 ecx, DWORD PTR [edx-4]
  00029	33 c8		 xor	 ecx, eax
  0002b	e8 00 00 00 00	 call	 @__security_check_cookie@4
  00030	b8 00 00 00 00	 mov	 eax, OFFSET __ehfuncinfo$?SendUpdatePlayerData@CDPCoreSrvr@@QAEXKPAU_PlayerData@@@Z
  00035	e9 00 00 00 00	 jmp	 ___CxxFrameHandler3
text$x	ENDS
?SendUpdatePlayerData@CDPCoreSrvr@@QAEXKPAU_PlayerData@@@Z ENDP ; CDPCoreSrvr::SendUpdatePlayerData
; Function compile flags: /Ogtp
; File C:\IAGOS\server\v18\Source\Source\DatabaseServer\DPCoreSrvr.cpp
; File C:\IAGOS\server\v18\Source\Source\_Network\Net\Include\DPMng.h
; File C:\IAGOS\server\v18\Source\Source\DatabaseServer\DPCoreSrvr.cpp
;	COMDAT ?SendSetPlayerName@CDPCoreSrvr@@QAEXKPBDKH@Z
_TEXT	SEGMENT
_nBufSize$ = -16428					; size = 4
$T2 = -16424						; size = 4
_ar$ = -16420						; size = 16404
__$ArrayPad$ = -16					; size = 4
__$EHRec$ = -12						; size = 12
_idPlayer$ = 8						; size = 4
_lpszPlayer$ = 12					; size = 4
_dwData$ = 16						; size = 4
_f$ = 20						; size = 4
?SendSetPlayerName@CDPCoreSrvr@@QAEXKPBDKH@Z PROC	; CDPCoreSrvr::SendSetPlayerName, COMDAT
; _this$ = ecx

; 395  : {

  00000	55		 push	 ebp
  00001	8b ec		 mov	 ebp, esp
  00003	6a ff		 push	 -1
  00005	68 00 00 00 00	 push	 __ehhandler$?SendSetPlayerName@CDPCoreSrvr@@QAEXKPBDKH@Z
  0000a	64 a1 00 00 00
	00		 mov	 eax, DWORD PTR fs:0
  00010	50		 push	 eax
  00011	b8 20 40 00 00	 mov	 eax, 16416		; 00004020H
  00016	e8 00 00 00 00	 call	 __chkstk
  0001b	a1 00 00 00 00	 mov	 eax, DWORD PTR ___security_cookie
  00020	33 c5		 xor	 eax, ebp
  00022	89 45 f0	 mov	 DWORD PTR __$ArrayPad$[ebp], eax
  00025	56		 push	 esi
  00026	57		 push	 edi
  00027	50		 push	 eax
  00028	8d 45 f4	 lea	 eax, DWORD PTR __$EHRec$[ebp]
  0002b	64 a3 00 00 00
	00		 mov	 DWORD PTR fs:0, eax
  00031	8b f9		 mov	 edi, ecx
  00033	8b 75 0c	 mov	 esi, DWORD PTR _lpszPlayer$[ebp]

; 396  : 	BEFORESEND( ar, PACKETTYPE_QUERYSETPLAYERNAME );

  00036	8d 8d dc bf ff
	ff		 lea	 ecx, DWORD PTR _ar$[ebp]
  0003c	6a 00		 push	 0
  0003e	6a 00		 push	 0
  00040	e8 00 00 00 00	 call	 ??0CAr@@QAE@PAXI@Z	; CAr::CAr
  00045	8d 85 d8 bf ff
	ff		 lea	 eax, DWORD PTR $T2[ebp]
  0004b	c7 45 fc 00 00
	00 00		 mov	 DWORD PTR __$EHRec$[ebp+8], 0
  00052	50		 push	 eax
  00053	8d 8d dc bf ff
	ff		 lea	 ecx, DWORD PTR _ar$[ebp]
  00059	c7 85 d8 bf ff
	ff 12 00 00 00	 mov	 DWORD PTR $T2[ebp], 18	; 00000012H
  00063	e8 00 00 00 00	 call	 ??$?6K@CAr@@QAEAAV0@ABK@Z ; CAr::operator<<<unsigned long>

; 397  : 	ar << idPlayer;

  00068	8d 45 08	 lea	 eax, DWORD PTR _idPlayer$[ebp]
  0006b	50		 push	 eax
  0006c	8d 8d dc bf ff
	ff		 lea	 ecx, DWORD PTR _ar$[ebp]
  00072	e8 00 00 00 00	 call	 ??$?6K@CAr@@QAEAAV0@ABK@Z ; CAr::operator<<<unsigned long>

; 398  : 	ar.WriteString( lpszPlayer );

  00077	56		 push	 esi
  00078	8d 8d dc bf ff
	ff		 lea	 ecx, DWORD PTR _ar$[ebp]
  0007e	e8 00 00 00 00	 call	 ?WriteString@CAr@@QAEXPBD@Z ; CAr::WriteString

; 399  : 	ar << dwData << f;

  00083	8d 45 14	 lea	 eax, DWORD PTR _f$[ebp]
  00086	50		 push	 eax
  00087	8d 45 10	 lea	 eax, DWORD PTR _dwData$[ebp]
  0008a	50		 push	 eax
  0008b	8d 8d dc bf ff
	ff		 lea	 ecx, DWORD PTR _ar$[ebp]
  00091	e8 00 00 00 00	 call	 ??$?6K@CAr@@QAEAAV0@ABK@Z ; CAr::operator<<<unsigned long>
  00096	8b c8		 mov	 ecx, eax
  00098	e8 00 00 00 00	 call	 ??$?6H@CAr@@QAEAAV0@ABH@Z ; CAr::operator<<<int>

; 400  : 	SEND( ar, this, DPID_ALLPLAYERS );

  0009d	8d 85 d4 bf ff
	ff		 lea	 eax, DWORD PTR _nBufSize$[ebp]
  000a3	50		 push	 eax
  000a4	8d 8d dc bf ff
	ff		 lea	 ecx, DWORD PTR _ar$[ebp]
  000aa	e8 00 00 00 00	 call	 ?GetBuffer@CAr@@QAEPAEPAH@Z ; CAr::GetBuffer
; File C:\IAGOS\server\v18\Source\Source\_Network\Net\Include\DPMng.h

; 171  : 	if( !m_pDPSock )

  000af	8b 4f 04	 mov	 ecx, DWORD PTR [edi+4]
  000b2	85 c9		 test	 ecx, ecx
  000b4	74 0e		 je	 SHORT $LN4@SendSetPla

; 172  : 		return FALSE;
; 173  : 	return m_pDPSock->Send( (char*)lpData, dwDataSize, dpidTo );

  000b6	6a 00		 push	 0
  000b8	ff b5 d4 bf ff
	ff		 push	 DWORD PTR _nBufSize$[ebp]
  000be	50		 push	 eax
  000bf	e8 00 00 00 00	 call	 ?Send@CDPSock@@QAEHPADKK@Z ; CDPSock::Send
$LN4@SendSetPla:
; File C:\IAGOS\server\v18\Source\Source\DatabaseServer\DPCoreSrvr.cpp

; 401  : }

  000c4	8d 8d dc bf ff
	ff		 lea	 ecx, DWORD PTR _ar$[ebp]
  000ca	e8 00 00 00 00	 call	 ??1CAr@@QAE@XZ		; CAr::~CAr
  000cf	8b 4d f4	 mov	 ecx, DWORD PTR __$EHRec$[ebp]
  000d2	64 89 0d 00 00
	00 00		 mov	 DWORD PTR fs:0, ecx
  000d9	59		 pop	 ecx
  000da	5f		 pop	 edi
  000db	5e		 pop	 esi
  000dc	8b 4d f0	 mov	 ecx, DWORD PTR __$ArrayPad$[ebp]
  000df	33 cd		 xor	 ecx, ebp
  000e1	e8 00 00 00 00	 call	 @__security_check_cookie@4
  000e6	8b e5		 mov	 esp, ebp
  000e8	5d		 pop	 ebp
  000e9	c2 10 00	 ret	 16			; 00000010H
_TEXT	ENDS
;	COMDAT text$x
text$x	SEGMENT
__unwindfunclet$?SendSetPlayerName@CDPCoreSrvr@@QAEXKPBDKH@Z$0:
  00000	8d 8d dc bf ff
	ff		 lea	 ecx, DWORD PTR _ar$[ebp]
  00006	e9 00 00 00 00	 jmp	 ??1CAr@@QAE@XZ		; CAr::~CAr
  0000b	cc		 int	 3
  0000c	cc		 int	 3
  0000d	cc		 int	 3
  0000e	cc		 int	 3
  0000f	cc		 int	 3
__ehhandler$?SendSetPlayerName@CDPCoreSrvr@@QAEXKPBDKH@Z:
  00010	90		 npad	 1
  00011	90		 npad	 1
  00012	8b 54 24 08	 mov	 edx, DWORD PTR [esp+8]
  00016	8d 42 0c	 lea	 eax, DWORD PTR [edx+12]
  00019	8b 8a d4 bf ff
	ff		 mov	 ecx, DWORD PTR [edx-16428]
  0001f	33 c8		 xor	 ecx, eax
  00021	e8 00 00 00 00	 call	 @__security_check_cookie@4
  00026	8b 4a fc	 mov	 ecx, DWORD PTR [edx-4]
  00029	33 c8		 xor	 ecx, eax
  0002b	e8 00 00 00 00	 call	 @__security_check_cookie@4
  00030	b8 00 00 00 00	 mov	 eax, OFFSET __ehfuncinfo$?SendSetPlayerName@CDPCoreSrvr@@QAEXKPBDKH@Z
  00035	e9 00 00 00 00	 jmp	 ___CxxFrameHandler3
text$x	ENDS
?SendSetPlayerName@CDPCoreSrvr@@QAEXKPBDKH@Z ENDP	; CDPCoreSrvr::SendSetPlayerName
; Function compile flags: /Ogtp
; File C:\IAGOS\server\v18\Source\Source\DatabaseServer\DPCoreSrvr.cpp
; File C:\IAGOS\server\v18\Source\Source\_Network\Net\Include\DPMng.h
; File C:\IAGOS\server\v18\Source\Source\DatabaseServer\DPCoreSrvr.cpp
;	COMDAT ?SendBuyingInfo@CDPCoreSrvr@@QAEXPAU_BUYING_INFO2@@@Z
_TEXT	SEGMENT
_nBufSize$ = -16428					; size = 4
$T2 = -16424						; size = 4
_ar$ = -16420						; size = 16404
__$ArrayPad$ = -16					; size = 4
__$EHRec$ = -12						; size = 12
_pbi2$ = 8						; size = 4
?SendBuyingInfo@CDPCoreSrvr@@QAEXPAU_BUYING_INFO2@@@Z PROC ; CDPCoreSrvr::SendBuyingInfo, COMDAT
; _this$ = ecx

; 377  : {

  00000	55		 push	 ebp
  00001	8b ec		 mov	 ebp, esp
  00003	6a ff		 push	 -1
  00005	68 00 00 00 00	 push	 __ehhandler$?SendBuyingInfo@CDPCoreSrvr@@QAEXPAU_BUYING_INFO2@@@Z
  0000a	64 a1 00 00 00
	00		 mov	 eax, DWORD PTR fs:0
  00010	50		 push	 eax
  00011	b8 20 40 00 00	 mov	 eax, 16416		; 00004020H
  00016	e8 00 00 00 00	 call	 __chkstk
  0001b	a1 00 00 00 00	 mov	 eax, DWORD PTR ___security_cookie
  00020	33 c5		 xor	 eax, ebp
  00022	89 45 f0	 mov	 DWORD PTR __$ArrayPad$[ebp], eax
  00025	56		 push	 esi
  00026	57		 push	 edi
  00027	50		 push	 eax
  00028	8d 45 f4	 lea	 eax, DWORD PTR __$EHRec$[ebp]
  0002b	64 a3 00 00 00
	00		 mov	 DWORD PTR fs:0, eax
  00031	8b f9		 mov	 edi, ecx
  00033	8b 75 08	 mov	 esi, DWORD PTR _pbi2$[ebp]

; 378  : 	BEFORESEND( ar, PACKETTYPE_BUYING_INFO );

  00036	8d 8d dc bf ff
	ff		 lea	 ecx, DWORD PTR _ar$[ebp]
  0003c	6a 00		 push	 0
  0003e	6a 00		 push	 0
  00040	e8 00 00 00 00	 call	 ??0CAr@@QAE@PAXI@Z	; CAr::CAr
  00045	8d 85 d8 bf ff
	ff		 lea	 eax, DWORD PTR $T2[ebp]
  0004b	c7 45 fc 00 00
	00 00		 mov	 DWORD PTR __$EHRec$[ebp+8], 0
  00052	50		 push	 eax
  00053	8d 8d dc bf ff
	ff		 lea	 ecx, DWORD PTR _ar$[ebp]
  00059	c7 85 d8 bf ff
	ff 52 b0 00 f0	 mov	 DWORD PTR $T2[ebp], -268390318 ; f000b052H
  00063	e8 00 00 00 00	 call	 ??$?6K@CAr@@QAEAAV0@ABK@Z ; CAr::operator<<<unsigned long>

; 379  : 	ar.Write( pbi2, sizeof(BUYING_INFO2) );

  00068	6a 38		 push	 56			; 00000038H
  0006a	56		 push	 esi
  0006b	8d 8d dc bf ff
	ff		 lea	 ecx, DWORD PTR _ar$[ebp]
  00071	e8 00 00 00 00	 call	 ?Write@CAr@@QAEXPBXI@Z	; CAr::Write

; 380  : 	SEND( ar, this, DPID_ALLPLAYERS );

  00076	8d 85 d4 bf ff
	ff		 lea	 eax, DWORD PTR _nBufSize$[ebp]
  0007c	50		 push	 eax
  0007d	8d 8d dc bf ff
	ff		 lea	 ecx, DWORD PTR _ar$[ebp]
  00083	e8 00 00 00 00	 call	 ?GetBuffer@CAr@@QAEPAEPAH@Z ; CAr::GetBuffer
; File C:\IAGOS\server\v18\Source\Source\_Network\Net\Include\DPMng.h

; 171  : 	if( !m_pDPSock )

  00088	8b 4f 04	 mov	 ecx, DWORD PTR [edi+4]
  0008b	85 c9		 test	 ecx, ecx
  0008d	74 0e		 je	 SHORT $LN4@SendBuying

; 172  : 		return FALSE;
; 173  : 	return m_pDPSock->Send( (char*)lpData, dwDataSize, dpidTo );

  0008f	6a 00		 push	 0
  00091	ff b5 d4 bf ff
	ff		 push	 DWORD PTR _nBufSize$[ebp]
  00097	50		 push	 eax
  00098	e8 00 00 00 00	 call	 ?Send@CDPSock@@QAEHPADKK@Z ; CDPSock::Send
$LN4@SendBuying:
; File C:\IAGOS\server\v18\Source\Source\DatabaseServer\DPCoreSrvr.cpp

; 381  : }

  0009d	8d 8d dc bf ff
	ff		 lea	 ecx, DWORD PTR _ar$[ebp]
  000a3	e8 00 00 00 00	 call	 ??1CAr@@QAE@XZ		; CAr::~CAr
  000a8	8b 4d f4	 mov	 ecx, DWORD PTR __$EHRec$[ebp]
  000ab	64 89 0d 00 00
	00 00		 mov	 DWORD PTR fs:0, ecx
  000b2	59		 pop	 ecx
  000b3	5f		 pop	 edi
  000b4	5e		 pop	 esi
  000b5	8b 4d f0	 mov	 ecx, DWORD PTR __$ArrayPad$[ebp]
  000b8	33 cd		 xor	 ecx, ebp
  000ba	e8 00 00 00 00	 call	 @__security_check_cookie@4
  000bf	8b e5		 mov	 esp, ebp
  000c1	5d		 pop	 ebp
  000c2	c2 04 00	 ret	 4
_TEXT	ENDS
;	COMDAT text$x
text$x	SEGMENT
__unwindfunclet$?SendBuyingInfo@CDPCoreSrvr@@QAEXPAU_BUYING_INFO2@@@Z$0:
  00000	8d 8d dc bf ff
	ff		 lea	 ecx, DWORD PTR _ar$[ebp]
  00006	e9 00 00 00 00	 jmp	 ??1CAr@@QAE@XZ		; CAr::~CAr
  0000b	cc		 int	 3
  0000c	cc		 int	 3
  0000d	cc		 int	 3
  0000e	cc		 int	 3
  0000f	cc		 int	 3
__ehhandler$?SendBuyingInfo@CDPCoreSrvr@@QAEXPAU_BUYING_INFO2@@@Z:
  00010	90		 npad	 1
  00011	90		 npad	 1
  00012	8b 54 24 08	 mov	 edx, DWORD PTR [esp+8]
  00016	8d 42 0c	 lea	 eax, DWORD PTR [edx+12]
  00019	8b 8a d4 bf ff
	ff		 mov	 ecx, DWORD PTR [edx-16428]
  0001f	33 c8		 xor	 ecx, eax
  00021	e8 00 00 00 00	 call	 @__security_check_cookie@4
  00026	8b 4a fc	 mov	 ecx, DWORD PTR [edx-4]
  00029	33 c8		 xor	 ecx, eax
  0002b	e8 00 00 00 00	 call	 @__security_check_cookie@4
  00030	b8 00 00 00 00	 mov	 eax, OFFSET __ehfuncinfo$?SendBuyingInfo@CDPCoreSrvr@@QAEXPAU_BUYING_INFO2@@@Z
  00035	e9 00 00 00 00	 jmp	 ___CxxFrameHandler3
text$x	ENDS
?SendBuyingInfo@CDPCoreSrvr@@QAEXPAU_BUYING_INFO2@@@Z ENDP ; CDPCoreSrvr::SendBuyingInfo
; Function compile flags: /Ogtp
; File C:\IAGOS\server\v18\Source\Source\DatabaseServer\DPCoreSrvr.cpp
; File C:\IAGOS\server\v18\Source\Source\_Network\Net\Include\DPMng.h
; File C:\IAGOS\server\v18\Source\Source\DatabaseServer\DPCoreSrvr.cpp
;	COMDAT ?SendMemberTime@CDPCoreSrvr@@QAEXKPBD@Z
_TEXT	SEGMENT
_nBufSize$ = -16428					; size = 4
$T2 = -16424						; size = 4
_ar$ = -16420						; size = 16404
__$ArrayPad$ = -16					; size = 4
__$EHRec$ = -12						; size = 12
_idPlayer$ = 8						; size = 4
_tGuildMember$ = 12					; size = 4
?SendMemberTime@CDPCoreSrvr@@QAEXKPBD@Z PROC		; CDPCoreSrvr::SendMemberTime, COMDAT
; _this$ = ecx

; 369  : {

  00000	55		 push	 ebp
  00001	8b ec		 mov	 ebp, esp
  00003	6a ff		 push	 -1
  00005	68 00 00 00 00	 push	 __ehhandler$?SendMemberTime@CDPCoreSrvr@@QAEXKPBD@Z
  0000a	64 a1 00 00 00
	00		 mov	 eax, DWORD PTR fs:0
  00010	50		 push	 eax
  00011	b8 20 40 00 00	 mov	 eax, 16416		; 00004020H
  00016	e8 00 00 00 00	 call	 __chkstk
  0001b	a1 00 00 00 00	 mov	 eax, DWORD PTR ___security_cookie
  00020	33 c5		 xor	 eax, ebp
  00022	89 45 f0	 mov	 DWORD PTR __$ArrayPad$[ebp], eax
  00025	56		 push	 esi
  00026	57		 push	 edi
  00027	50		 push	 eax
  00028	8d 45 f4	 lea	 eax, DWORD PTR __$EHRec$[ebp]
  0002b	64 a3 00 00 00
	00		 mov	 DWORD PTR fs:0, eax
  00031	8b f9		 mov	 edi, ecx
  00033	8b 75 0c	 mov	 esi, DWORD PTR _tGuildMember$[ebp]

; 370  : 	BEFORESEND( ar, PACKETTYPE_GUILD_MEMBERTIME );

  00036	8d 8d dc bf ff
	ff		 lea	 ecx, DWORD PTR _ar$[ebp]
  0003c	6a 00		 push	 0
  0003e	6a 00		 push	 0
  00040	e8 00 00 00 00	 call	 ??0CAr@@QAE@PAXI@Z	; CAr::CAr
  00045	8d 85 d8 bf ff
	ff		 lea	 eax, DWORD PTR $T2[ebp]
  0004b	c7 45 fc 00 00
	00 00		 mov	 DWORD PTR __$EHRec$[ebp+8], 0
  00052	50		 push	 eax
  00053	8d 8d dc bf ff
	ff		 lea	 ecx, DWORD PTR _ar$[ebp]
  00059	c7 85 d8 bf ff
	ff 76 ff ff ff	 mov	 DWORD PTR $T2[ebp], -138 ; ffffff76H
  00063	e8 00 00 00 00	 call	 ??$?6K@CAr@@QAEAAV0@ABK@Z ; CAr::operator<<<unsigned long>

; 371  : 	ar << idPlayer;

  00068	8d 45 08	 lea	 eax, DWORD PTR _idPlayer$[ebp]
  0006b	50		 push	 eax
  0006c	8d 8d dc bf ff
	ff		 lea	 ecx, DWORD PTR _ar$[ebp]
  00072	e8 00 00 00 00	 call	 ??$?6K@CAr@@QAEAAV0@ABK@Z ; CAr::operator<<<unsigned long>

; 372  : 	ar.WriteString( tGuildMember );

  00077	56		 push	 esi
  00078	8d 8d dc bf ff
	ff		 lea	 ecx, DWORD PTR _ar$[ebp]
  0007e	e8 00 00 00 00	 call	 ?WriteString@CAr@@QAEXPBD@Z ; CAr::WriteString

; 373  : 	SEND( ar, this, DPID_ALLPLAYERS );

  00083	8d 85 d4 bf ff
	ff		 lea	 eax, DWORD PTR _nBufSize$[ebp]
  00089	50		 push	 eax
  0008a	8d 8d dc bf ff
	ff		 lea	 ecx, DWORD PTR _ar$[ebp]
  00090	e8 00 00 00 00	 call	 ?GetBuffer@CAr@@QAEPAEPAH@Z ; CAr::GetBuffer
; File C:\IAGOS\server\v18\Source\Source\_Network\Net\Include\DPMng.h

; 171  : 	if( !m_pDPSock )

  00095	8b 4f 04	 mov	 ecx, DWORD PTR [edi+4]
  00098	85 c9		 test	 ecx, ecx
  0009a	74 0e		 je	 SHORT $LN4@SendMember

; 172  : 		return FALSE;
; 173  : 	return m_pDPSock->Send( (char*)lpData, dwDataSize, dpidTo );

  0009c	6a 00		 push	 0
  0009e	ff b5 d4 bf ff
	ff		 push	 DWORD PTR _nBufSize$[ebp]
  000a4	50		 push	 eax
  000a5	e8 00 00 00 00	 call	 ?Send@CDPSock@@QAEHPADKK@Z ; CDPSock::Send
$LN4@SendMember:
; File C:\IAGOS\server\v18\Source\Source\DatabaseServer\DPCoreSrvr.cpp

; 374  : }

  000aa	8d 8d dc bf ff
	ff		 lea	 ecx, DWORD PTR _ar$[ebp]
  000b0	e8 00 00 00 00	 call	 ??1CAr@@QAE@XZ		; CAr::~CAr
  000b5	8b 4d f4	 mov	 ecx, DWORD PTR __$EHRec$[ebp]
  000b8	64 89 0d 00 00
	00 00		 mov	 DWORD PTR fs:0, ecx
  000bf	59		 pop	 ecx
  000c0	5f		 pop	 edi
  000c1	5e		 pop	 esi
  000c2	8b 4d f0	 mov	 ecx, DWORD PTR __$ArrayPad$[ebp]
  000c5	33 cd		 xor	 ecx, ebp
  000c7	e8 00 00 00 00	 call	 @__security_check_cookie@4
  000cc	8b e5		 mov	 esp, ebp
  000ce	5d		 pop	 ebp
  000cf	c2 08 00	 ret	 8
_TEXT	ENDS
;	COMDAT text$x
text$x	SEGMENT
__unwindfunclet$?SendMemberTime@CDPCoreSrvr@@QAEXKPBD@Z$0:
  00000	8d 8d dc bf ff
	ff		 lea	 ecx, DWORD PTR _ar$[ebp]
  00006	e9 00 00 00 00	 jmp	 ??1CAr@@QAE@XZ		; CAr::~CAr
  0000b	cc		 int	 3
  0000c	cc		 int	 3
  0000d	cc		 int	 3
  0000e	cc		 int	 3
  0000f	cc		 int	 3
__ehhandler$?SendMemberTime@CDPCoreSrvr@@QAEXKPBD@Z:
  00010	90		 npad	 1
  00011	90		 npad	 1
  00012	8b 54 24 08	 mov	 edx, DWORD PTR [esp+8]
  00016	8d 42 0c	 lea	 eax, DWORD PTR [edx+12]
  00019	8b 8a d4 bf ff
	ff		 mov	 ecx, DWORD PTR [edx-16428]
  0001f	33 c8		 xor	 ecx, eax
  00021	e8 00 00 00 00	 call	 @__security_check_cookie@4
  00026	8b 4a fc	 mov	 ecx, DWORD PTR [edx-4]
  00029	33 c8		 xor	 ecx, eax
  0002b	e8 00 00 00 00	 call	 @__security_check_cookie@4
  00030	b8 00 00 00 00	 mov	 eax, OFFSET __ehfuncinfo$?SendMemberTime@CDPCoreSrvr@@QAEXKPBD@Z
  00035	e9 00 00 00 00	 jmp	 ___CxxFrameHandler3
text$x	ENDS
?SendMemberTime@CDPCoreSrvr@@QAEXKPBD@Z ENDP		; CDPCoreSrvr::SendMemberTime
; Function compile flags: /Ogtp
; File C:\IAGOS\server\v18\Source\Source\DatabaseServer\DPCoreSrvr.cpp
; File C:\IAGOS\server\v18\Source\Source\_Network\Net\Include\DPMng.h
; File C:\IAGOS\server\v18\Source\Source\DatabaseServer\DPCoreSrvr.cpp
;	COMDAT ?SendDelPlayer@CDPCoreSrvr@@QAEXKK@Z
_TEXT	SEGMENT
_nBufSize$ = -16428					; size = 4
$T2 = -16424						; size = 4
_ar$ = -16420						; size = 16404
__$ArrayPad$ = -16					; size = 4
__$EHRec$ = -12						; size = 12
_idPlayer$ = 8						; size = 4
_idGuild$ = 12						; size = 4
?SendDelPlayer@CDPCoreSrvr@@QAEXKK@Z PROC		; CDPCoreSrvr::SendDelPlayer, COMDAT
; _this$ = ecx

; 362  : {

  00000	55		 push	 ebp
  00001	8b ec		 mov	 ebp, esp
  00003	6a ff		 push	 -1
  00005	68 00 00 00 00	 push	 __ehhandler$?SendDelPlayer@CDPCoreSrvr@@QAEXKK@Z
  0000a	64 a1 00 00 00
	00		 mov	 eax, DWORD PTR fs:0
  00010	50		 push	 eax
  00011	b8 20 40 00 00	 mov	 eax, 16416		; 00004020H
  00016	e8 00 00 00 00	 call	 __chkstk
  0001b	a1 00 00 00 00	 mov	 eax, DWORD PTR ___security_cookie
  00020	33 c5		 xor	 eax, ebp
  00022	89 45 f0	 mov	 DWORD PTR __$ArrayPad$[ebp], eax
  00025	56		 push	 esi
  00026	50		 push	 eax
  00027	8d 45 f4	 lea	 eax, DWORD PTR __$EHRec$[ebp]
  0002a	64 a3 00 00 00
	00		 mov	 DWORD PTR fs:0, eax
  00030	8b f1		 mov	 esi, ecx

; 363  : 	BEFORESEND( ar, PACKETTYPE_DEL_PLAYER );

  00032	6a 00		 push	 0
  00034	6a 00		 push	 0
  00036	8d 8d dc bf ff
	ff		 lea	 ecx, DWORD PTR _ar$[ebp]
  0003c	e8 00 00 00 00	 call	 ??0CAr@@QAE@PAXI@Z	; CAr::CAr
  00041	8d 85 d8 bf ff
	ff		 lea	 eax, DWORD PTR $T2[ebp]
  00047	c7 45 fc 00 00
	00 00		 mov	 DWORD PTR __$EHRec$[ebp+8], 0
  0004e	50		 push	 eax
  0004f	8d 8d dc bf ff
	ff		 lea	 ecx, DWORD PTR _ar$[ebp]
  00055	c7 85 d8 bf ff
	ff f5 00 00 00	 mov	 DWORD PTR $T2[ebp], 245	; 000000f5H
  0005f	e8 00 00 00 00	 call	 ??$?6K@CAr@@QAEAAV0@ABK@Z ; CAr::operator<<<unsigned long>

; 364  : 	ar << idPlayer << idGuild;

  00064	8d 45 0c	 lea	 eax, DWORD PTR _idGuild$[ebp]
  00067	50		 push	 eax
  00068	8d 45 08	 lea	 eax, DWORD PTR _idPlayer$[ebp]
  0006b	50		 push	 eax
  0006c	8d 8d dc bf ff
	ff		 lea	 ecx, DWORD PTR _ar$[ebp]
  00072	e8 00 00 00 00	 call	 ??$?6K@CAr@@QAEAAV0@ABK@Z ; CAr::operator<<<unsigned long>
  00077	8b c8		 mov	 ecx, eax
  00079	e8 00 00 00 00	 call	 ??$?6K@CAr@@QAEAAV0@ABK@Z ; CAr::operator<<<unsigned long>

; 365  : 	SEND( ar, this, DPID_ALLPLAYERS );

  0007e	8d 85 d4 bf ff
	ff		 lea	 eax, DWORD PTR _nBufSize$[ebp]
  00084	50		 push	 eax
  00085	8d 8d dc bf ff
	ff		 lea	 ecx, DWORD PTR _ar$[ebp]
  0008b	e8 00 00 00 00	 call	 ?GetBuffer@CAr@@QAEPAEPAH@Z ; CAr::GetBuffer
; File C:\IAGOS\server\v18\Source\Source\_Network\Net\Include\DPMng.h

; 171  : 	if( !m_pDPSock )

  00090	8b 4e 04	 mov	 ecx, DWORD PTR [esi+4]
  00093	85 c9		 test	 ecx, ecx
  00095	74 0e		 je	 SHORT $LN4@SendDelPla

; 172  : 		return FALSE;
; 173  : 	return m_pDPSock->Send( (char*)lpData, dwDataSize, dpidTo );

  00097	6a 00		 push	 0
  00099	ff b5 d4 bf ff
	ff		 push	 DWORD PTR _nBufSize$[ebp]
  0009f	50		 push	 eax
  000a0	e8 00 00 00 00	 call	 ?Send@CDPSock@@QAEHPADKK@Z ; CDPSock::Send
$LN4@SendDelPla:
; File C:\IAGOS\server\v18\Source\Source\DatabaseServer\DPCoreSrvr.cpp

; 366  : }

  000a5	8d 8d dc bf ff
	ff		 lea	 ecx, DWORD PTR _ar$[ebp]
  000ab	e8 00 00 00 00	 call	 ??1CAr@@QAE@XZ		; CAr::~CAr
  000b0	8b 4d f4	 mov	 ecx, DWORD PTR __$EHRec$[ebp]
  000b3	64 89 0d 00 00
	00 00		 mov	 DWORD PTR fs:0, ecx
  000ba	59		 pop	 ecx
  000bb	5e		 pop	 esi
  000bc	8b 4d f0	 mov	 ecx, DWORD PTR __$ArrayPad$[ebp]
  000bf	33 cd		 xor	 ecx, ebp
  000c1	e8 00 00 00 00	 call	 @__security_check_cookie@4
  000c6	8b e5		 mov	 esp, ebp
  000c8	5d		 pop	 ebp
  000c9	c2 08 00	 ret	 8
_TEXT	ENDS
;	COMDAT text$x
text$x	SEGMENT
__unwindfunclet$?SendDelPlayer@CDPCoreSrvr@@QAEXKK@Z$0:
  00000	8d 8d dc bf ff
	ff		 lea	 ecx, DWORD PTR _ar$[ebp]
  00006	e9 00 00 00 00	 jmp	 ??1CAr@@QAE@XZ		; CAr::~CAr
  0000b	cc		 int	 3
  0000c	cc		 int	 3
  0000d	cc		 int	 3
  0000e	cc		 int	 3
  0000f	cc		 int	 3
__ehhandler$?SendDelPlayer@CDPCoreSrvr@@QAEXKK@Z:
  00010	90		 npad	 1
  00011	90		 npad	 1
  00012	8b 54 24 08	 mov	 edx, DWORD PTR [esp+8]
  00016	8d 42 0c	 lea	 eax, DWORD PTR [edx+12]
  00019	8b 8a d8 bf ff
	ff		 mov	 ecx, DWORD PTR [edx-16424]
  0001f	33 c8		 xor	 ecx, eax
  00021	e8 00 00 00 00	 call	 @__security_check_cookie@4
  00026	8b 4a fc	 mov	 ecx, DWORD PTR [edx-4]
  00029	33 c8		 xor	 ecx, eax
  0002b	e8 00 00 00 00	 call	 @__security_check_cookie@4
  00030	b8 00 00 00 00	 mov	 eax, OFFSET __ehfuncinfo$?SendDelPlayer@CDPCoreSrvr@@QAEXKK@Z
  00035	e9 00 00 00 00	 jmp	 ___CxxFrameHandler3
text$x	ENDS
?SendDelPlayer@CDPCoreSrvr@@QAEXKK@Z ENDP		; CDPCoreSrvr::SendDelPlayer
; Function compile flags: /Ogtp
; File C:\IAGOS\server\v18\Source\Source\DatabaseServer\DPCoreSrvr.cpp
; File C:\IAGOS\server\v18\Source\Source\_Network\Net\Include\DPMng.h
; File C:\IAGOS\server\v18\Source\Source\DatabaseServer\DPCoreSrvr.cpp
;	COMDAT ?SendAddVoteResult@CDPCoreSrvr@@QAEXAAUVOTE_INSERTED_INFO@@@Z
_TEXT	SEGMENT
_nBufSize$ = -16428					; size = 4
$T2 = -16424						; size = 4
_ar$ = -16420						; size = 16404
__$ArrayPad$ = -16					; size = 4
__$EHRec$ = -12						; size = 12
_info$ = 8						; size = 4
?SendAddVoteResult@CDPCoreSrvr@@QAEXAAUVOTE_INSERTED_INFO@@@Z PROC ; CDPCoreSrvr::SendAddVoteResult, COMDAT
; _this$ = ecx

; 254  : {

  00000	55		 push	 ebp
  00001	8b ec		 mov	 ebp, esp
  00003	6a ff		 push	 -1
  00005	68 00 00 00 00	 push	 __ehhandler$?SendAddVoteResult@CDPCoreSrvr@@QAEXAAUVOTE_INSERTED_INFO@@@Z
  0000a	64 a1 00 00 00
	00		 mov	 eax, DWORD PTR fs:0
  00010	50		 push	 eax
  00011	b8 20 40 00 00	 mov	 eax, 16416		; 00004020H
  00016	e8 00 00 00 00	 call	 __chkstk
  0001b	a1 00 00 00 00	 mov	 eax, DWORD PTR ___security_cookie
  00020	33 c5		 xor	 eax, ebp
  00022	89 45 f0	 mov	 DWORD PTR __$ArrayPad$[ebp], eax
  00025	56		 push	 esi
  00026	57		 push	 edi
  00027	50		 push	 eax
  00028	8d 45 f4	 lea	 eax, DWORD PTR __$EHRec$[ebp]
  0002b	64 a3 00 00 00
	00		 mov	 DWORD PTR fs:0, eax
  00031	8b f9		 mov	 edi, ecx
  00033	8b 75 08	 mov	 esi, DWORD PTR _info$[ebp]

; 255  : 	BEFORESEND( ar, PACKETTYPE_DC_ADDVOTERESULT );

  00036	8d 8d dc bf ff
	ff		 lea	 ecx, DWORD PTR _ar$[ebp]
  0003c	6a 00		 push	 0
  0003e	6a 00		 push	 0
  00040	e8 00 00 00 00	 call	 ??0CAr@@QAE@PAXI@Z	; CAr::CAr
  00045	8d 85 d8 bf ff
	ff		 lea	 eax, DWORD PTR $T2[ebp]
  0004b	c7 45 fc 00 00
	00 00		 mov	 DWORD PTR __$EHRec$[ebp+8], 0
  00052	50		 push	 eax
  00053	8d 8d dc bf ff
	ff		 lea	 ecx, DWORD PTR _ar$[ebp]
  00059	c7 85 d8 bf ff
	ff 40 b0 00 f0	 mov	 DWORD PTR $T2[ebp], -268390336 ; f000b040H
  00063	e8 00 00 00 00	 call	 ??$?6K@CAr@@QAEAAV0@ABK@Z ; CAr::operator<<<unsigned long>

; 256  : 	ar << info;

  00068	8d 85 dc bf ff
	ff		 lea	 eax, DWORD PTR _ar$[ebp]
  0006e	56		 push	 esi
  0006f	50		 push	 eax
  00070	e8 00 00 00 00	 call	 ??6@YAAAVCAr@@AAV0@AAUVOTE_INSERTED_INFO@@@Z ; operator<<
  00075	83 c4 08	 add	 esp, 8

; 257  : 	SEND( ar, this, DPID_ALLPLAYERS );

  00078	8d 85 d4 bf ff
	ff		 lea	 eax, DWORD PTR _nBufSize$[ebp]
  0007e	8d 8d dc bf ff
	ff		 lea	 ecx, DWORD PTR _ar$[ebp]
  00084	50		 push	 eax
  00085	e8 00 00 00 00	 call	 ?GetBuffer@CAr@@QAEPAEPAH@Z ; CAr::GetBuffer
; File C:\IAGOS\server\v18\Source\Source\_Network\Net\Include\DPMng.h

; 171  : 	if( !m_pDPSock )

  0008a	8b 4f 04	 mov	 ecx, DWORD PTR [edi+4]
  0008d	85 c9		 test	 ecx, ecx
  0008f	74 0e		 je	 SHORT $LN4@SendAddVot

; 172  : 		return FALSE;
; 173  : 	return m_pDPSock->Send( (char*)lpData, dwDataSize, dpidTo );

  00091	6a 00		 push	 0
  00093	ff b5 d4 bf ff
	ff		 push	 DWORD PTR _nBufSize$[ebp]
  00099	50		 push	 eax
  0009a	e8 00 00 00 00	 call	 ?Send@CDPSock@@QAEHPADKK@Z ; CDPSock::Send
$LN4@SendAddVot:
; File C:\IAGOS\server\v18\Source\Source\DatabaseServer\DPCoreSrvr.cpp

; 258  : }

  0009f	8d 8d dc bf ff
	ff		 lea	 ecx, DWORD PTR _ar$[ebp]
  000a5	e8 00 00 00 00	 call	 ??1CAr@@QAE@XZ		; CAr::~CAr
  000aa	8b 4d f4	 mov	 ecx, DWORD PTR __$EHRec$[ebp]
  000ad	64 89 0d 00 00
	00 00		 mov	 DWORD PTR fs:0, ecx
  000b4	59		 pop	 ecx
  000b5	5f		 pop	 edi
  000b6	5e		 pop	 esi
  000b7	8b 4d f0	 mov	 ecx, DWORD PTR __$ArrayPad$[ebp]
  000ba	33 cd		 xor	 ecx, ebp
  000bc	e8 00 00 00 00	 call	 @__security_check_cookie@4
  000c1	8b e5		 mov	 esp, ebp
  000c3	5d		 pop	 ebp
  000c4	c2 04 00	 ret	 4
_TEXT	ENDS
;	COMDAT text$x
text$x	SEGMENT
__unwindfunclet$?SendAddVoteResult@CDPCoreSrvr@@QAEXAAUVOTE_INSERTED_INFO@@@Z$0:
  00000	8d 8d dc bf ff
	ff		 lea	 ecx, DWORD PTR _ar$[ebp]
  00006	e9 00 00 00 00	 jmp	 ??1CAr@@QAE@XZ		; CAr::~CAr
  0000b	cc		 int	 3
  0000c	cc		 int	 3
  0000d	cc		 int	 3
  0000e	cc		 int	 3
  0000f	cc		 int	 3
__ehhandler$?SendAddVoteResult@CDPCoreSrvr@@QAEXAAUVOTE_INSERTED_INFO@@@Z:
  00010	90		 npad	 1
  00011	90		 npad	 1
  00012	8b 54 24 08	 mov	 edx, DWORD PTR [esp+8]
  00016	8d 42 0c	 lea	 eax, DWORD PTR [edx+12]
  00019	8b 8a d4 bf ff
	ff		 mov	 ecx, DWORD PTR [edx-16428]
  0001f	33 c8		 xor	 ecx, eax
  00021	e8 00 00 00 00	 call	 @__security_check_cookie@4
  00026	8b 4a fc	 mov	 ecx, DWORD PTR [edx-4]
  00029	33 c8		 xor	 ecx, eax
  0002b	e8 00 00 00 00	 call	 @__security_check_cookie@4
  00030	b8 00 00 00 00	 mov	 eax, OFFSET __ehfuncinfo$?SendAddVoteResult@CDPCoreSrvr@@QAEXAAUVOTE_INSERTED_INFO@@@Z
  00035	e9 00 00 00 00	 jmp	 ___CxxFrameHandler3
text$x	ENDS
?SendAddVoteResult@CDPCoreSrvr@@QAEXAAUVOTE_INSERTED_INFO@@@Z ENDP ; CDPCoreSrvr::SendAddVoteResult
; Function compile flags: /Ogtp
; File C:\IAGOS\server\v18\Source\Source\DatabaseServer\DPCoreSrvr.cpp
;	COMDAT ?OnRemoveConnection@CDPCoreSrvr@@QAEXK@Z
_TEXT	SEGMENT
_dpid$ = 8						; size = 4
?OnRemoveConnection@CDPCoreSrvr@@QAEXK@Z PROC		; CDPCoreSrvr::OnRemoveConnection, COMDAT
; _this$ = ecx

; 111  : 
; 112  : }

  00000	c2 04 00	 ret	 4
?OnRemoveConnection@CDPCoreSrvr@@QAEXK@Z ENDP		; CDPCoreSrvr::OnRemoveConnection
_TEXT	ENDS
; Function compile flags: /Ogtp
; File C:\IAGOS\server\v18\Source\Source\DatabaseServer\DPCoreSrvr.cpp
; File C:\IAGOS\server\v18\Source\Source\_Network\Net\Include\DPMng.h
; File C:\IAGOS\server\v18\Source\Source\DatabaseServer\DPCoreSrvr.cpp
;	COMDAT ?OnAddConnection@CDPCoreSrvr@@QAEXK@Z
_TEXT	SEGMENT
_nBufSize$ = -16428					; size = 4
$T2 = -16424						; size = 4
_ar$ = -16420						; size = 16404
__$ArrayPad$ = -16					; size = 4
__$EHRec$ = -12						; size = 12
_dpid$ = 8						; size = 4
?OnAddConnection@CDPCoreSrvr@@QAEXK@Z PROC		; CDPCoreSrvr::OnAddConnection, COMDAT
; _this$ = ecx

; 93   : {

  00000	55		 push	 ebp
  00001	8b ec		 mov	 ebp, esp
  00003	6a ff		 push	 -1
  00005	68 00 00 00 00	 push	 __ehhandler$?OnAddConnection@CDPCoreSrvr@@QAEXK@Z
  0000a	64 a1 00 00 00
	00		 mov	 eax, DWORD PTR fs:0
  00010	50		 push	 eax
  00011	b8 20 40 00 00	 mov	 eax, 16416		; 00004020H
  00016	e8 00 00 00 00	 call	 __chkstk
  0001b	a1 00 00 00 00	 mov	 eax, DWORD PTR ___security_cookie
  00020	33 c5		 xor	 eax, ebp
  00022	89 45 f0	 mov	 DWORD PTR __$ArrayPad$[ebp], eax
  00025	56		 push	 esi
  00026	50		 push	 eax
  00027	8d 45 f4	 lea	 eax, DWORD PTR __$EHRec$[ebp]
  0002a	64 a3 00 00 00
	00		 mov	 DWORD PTR fs:0, eax
  00030	8b f1		 mov	 esi, ecx

; 94   : 	SendPartyName( dpid );

  00032	ff 75 08	 push	 DWORD PTR _dpid$[ebp]
  00035	e8 00 00 00 00	 call	 ?SendPartyName@CDPCoreSrvr@@QAEXK@Z ; CDPCoreSrvr::SendPartyName

; 95   : 	BEFORESEND( ar, PACKETTYPE_GLOBAL_DATA );

  0003a	6a 00		 push	 0
  0003c	6a 00		 push	 0
  0003e	8d 8d dc bf ff
	ff		 lea	 ecx, DWORD PTR _ar$[ebp]
  00044	e8 00 00 00 00	 call	 ??0CAr@@QAE@PAXI@Z	; CAr::CAr
  00049	8d 85 d8 bf ff
	ff		 lea	 eax, DWORD PTR $T2[ebp]
  0004f	c7 45 fc 00 00
	00 00		 mov	 DWORD PTR __$EHRec$[ebp+8], 0
  00056	50		 push	 eax
  00057	8d 8d dc bf ff
	ff		 lea	 ecx, DWORD PTR _ar$[ebp]
  0005d	c7 85 d8 bf ff
	ff 38 ff ff ff	 mov	 DWORD PTR $T2[ebp], -200 ; ffffff38H
  00067	e8 00 00 00 00	 call	 ??$?6K@CAr@@QAEAAV0@ABK@Z ; CAr::operator<<<unsigned long>

; 96   : 	g_DbManager.OpenGuild();

  0006c	8b 0d 00 00 00
	00		 mov	 ecx, DWORD PTR ?g_DbManager@@3AAVCDbManager@@A ; g_DbManager
  00072	e8 00 00 00 00	 call	 ?OpenGuild@CDbManager@@QAEXXZ ; CDbManager::OpenGuild

; 97   : 	g_GuildMng.Serialize( ar, FALSE );

  00077	6a 00		 push	 0
  00079	8d 85 dc bf ff
	ff		 lea	 eax, DWORD PTR _ar$[ebp]
  0007f	b9 00 00 00 00	 mov	 ecx, OFFSET ?g_GuildMng@@3VCGuildMng@@A ; g_GuildMng
  00084	50		 push	 eax
  00085	e8 00 00 00 00	 call	 ?Serialize@CGuildMng@@QAEXAAVCAr@@H@Z ; CGuildMng::Serialize

; 98   : 	CGuildTable::GetInstance().Serialize( ar );

  0008a	8d 85 dc bf ff
	ff		 lea	 eax, DWORD PTR _ar$[ebp]
  00090	50		 push	 eax
  00091	e8 00 00 00 00	 call	 ?GetInstance@CGuildTable@@SAAAV1@XZ ; CGuildTable::GetInstance
  00096	8b c8		 mov	 ecx, eax
  00098	e8 00 00 00 00	 call	 ?Serialize@CGuildTable@@QAEXAAVCAr@@@Z ; CGuildTable::Serialize

; 99   : 	g_GuildWarMng.Serialize( ar );

  0009d	8d 85 dc bf ff
	ff		 lea	 eax, DWORD PTR _ar$[ebp]
  000a3	b9 00 00 00 00	 mov	 ecx, OFFSET ?g_GuildWarMng@@3VCGuildWarMng@@A ; g_GuildWarMng
  000a8	50		 push	 eax
  000a9	e8 00 00 00 00	 call	 ?Serialize@CGuildWarMng@@QAEXAAVCAr@@@Z ; CGuildWarMng::Serialize

; 100  : 	ar.Write( (const void*)prj.m_aExpParty, sizeof(prj.m_aExpParty) );

  000ae	6a 50		 push	 80			; 00000050H
  000b0	68 9c 1a 00 00	 push	 OFFSET ?prj@@3VCProject@@A+6812
  000b5	8d 8d dc bf ff
	ff		 lea	 ecx, DWORD PTR _ar$[ebp]
  000bb	e8 00 00 00 00	 call	 ?Write@CAr@@QAEXPBXI@Z	; CAr::Write

; 101  : 
; 102  : #if defined(__INTERNALSERVER )
; 103  : 	g_DbManager.OpenWanted( ar );	
; 104  : #endif
; 105  : 
; 106  : 	SEND( ar, this, dpid );

  000c0	8d 85 d4 bf ff
	ff		 lea	 eax, DWORD PTR _nBufSize$[ebp]
  000c6	50		 push	 eax
  000c7	8d 8d dc bf ff
	ff		 lea	 ecx, DWORD PTR _ar$[ebp]
  000cd	e8 00 00 00 00	 call	 ?GetBuffer@CAr@@QAEPAEPAH@Z ; CAr::GetBuffer
; File C:\IAGOS\server\v18\Source\Source\_Network\Net\Include\DPMng.h

; 171  : 	if( !m_pDPSock )

  000d2	8b 4e 04	 mov	 ecx, DWORD PTR [esi+4]
  000d5	85 c9		 test	 ecx, ecx
  000d7	74 0f		 je	 SHORT $LN4@OnAddConne

; 172  : 		return FALSE;
; 173  : 	return m_pDPSock->Send( (char*)lpData, dwDataSize, dpidTo );

  000d9	ff 75 08	 push	 DWORD PTR _dpid$[ebp]
  000dc	ff b5 d4 bf ff
	ff		 push	 DWORD PTR _nBufSize$[ebp]
  000e2	50		 push	 eax
  000e3	e8 00 00 00 00	 call	 ?Send@CDPSock@@QAEHPADKK@Z ; CDPSock::Send
$LN4@OnAddConne:
; File C:\IAGOS\server\v18\Source\Source\DatabaseServer\DPCoreSrvr.cpp

; 107  : }

  000e8	8d 8d dc bf ff
	ff		 lea	 ecx, DWORD PTR _ar$[ebp]
  000ee	e8 00 00 00 00	 call	 ??1CAr@@QAE@XZ		; CAr::~CAr
  000f3	8b 4d f4	 mov	 ecx, DWORD PTR __$EHRec$[ebp]
  000f6	64 89 0d 00 00
	00 00		 mov	 DWORD PTR fs:0, ecx
  000fd	59		 pop	 ecx
  000fe	5e		 pop	 esi
  000ff	8b 4d f0	 mov	 ecx, DWORD PTR __$ArrayPad$[ebp]
  00102	33 cd		 xor	 ecx, ebp
  00104	e8 00 00 00 00	 call	 @__security_check_cookie@4
  00109	8b e5		 mov	 esp, ebp
  0010b	5d		 pop	 ebp
  0010c	c2 04 00	 ret	 4
_TEXT	ENDS
;	COMDAT text$x
text$x	SEGMENT
__unwindfunclet$?OnAddConnection@CDPCoreSrvr@@QAEXK@Z$0:
  00000	8d 8d dc bf ff
	ff		 lea	 ecx, DWORD PTR _ar$[ebp]
  00006	e9 00 00 00 00	 jmp	 ??1CAr@@QAE@XZ		; CAr::~CAr
  0000b	cc		 int	 3
  0000c	cc		 int	 3
  0000d	cc		 int	 3
  0000e	cc		 int	 3
  0000f	cc		 int	 3
__ehhandler$?OnAddConnection@CDPCoreSrvr@@QAEXK@Z:
  00010	90		 npad	 1
  00011	90		 npad	 1
  00012	8b 54 24 08	 mov	 edx, DWORD PTR [esp+8]
  00016	8d 42 0c	 lea	 eax, DWORD PTR [edx+12]
  00019	8b 8a d8 bf ff
	ff		 mov	 ecx, DWORD PTR [edx-16424]
  0001f	33 c8		 xor	 ecx, eax
  00021	e8 00 00 00 00	 call	 @__security_check_cookie@4
  00026	8b 4a fc	 mov	 ecx, DWORD PTR [edx-4]
  00029	33 c8		 xor	 ecx, eax
  0002b	e8 00 00 00 00	 call	 @__security_check_cookie@4
  00030	b8 00 00 00 00	 mov	 eax, OFFSET __ehfuncinfo$?OnAddConnection@CDPCoreSrvr@@QAEXK@Z
  00035	e9 00 00 00 00	 jmp	 ___CxxFrameHandler3
text$x	ENDS
?OnAddConnection@CDPCoreSrvr@@QAEXK@Z ENDP		; CDPCoreSrvr::OnAddConnection
; Function compile flags: /Ogtp
; File C:\IAGOS\server\v18\Source\Source\DatabaseServer\DPCoreSrvr.cpp
; File C:\IAGOS\server\v18\Source\Source\_Network\Net\Include\DPMng.h
; File C:\IAGOS\server\v18\Source\Source\DatabaseServer\DPCoreSrvr.cpp
;	COMDAT ?SendTagResult@CDPCoreSrvr@@QAEXKE@Z
_TEXT	SEGMENT
_nBufSize$ = -16428					; size = 4
$T2 = -16424						; size = 4
_ar$ = -16420						; size = 16404
__$ArrayPad$ = -16					; size = 4
__$EHRec$ = -12						; size = 12
_idFrom$ = 8						; size = 4
_cbResult$ = 12						; size = 1
?SendTagResult@CDPCoreSrvr@@QAEXKE@Z PROC		; CDPCoreSrvr::SendTagResult, COMDAT
; _this$ = ecx

; 354  : {

  00000	55		 push	 ebp
  00001	8b ec		 mov	 ebp, esp
  00003	6a ff		 push	 -1
  00005	68 00 00 00 00	 push	 __ehhandler$?SendTagResult@CDPCoreSrvr@@QAEXKE@Z
  0000a	64 a1 00 00 00
	00		 mov	 eax, DWORD PTR fs:0
  00010	50		 push	 eax
  00011	b8 20 40 00 00	 mov	 eax, 16416		; 00004020H
  00016	e8 00 00 00 00	 call	 __chkstk
  0001b	a1 00 00 00 00	 mov	 eax, DWORD PTR ___security_cookie
  00020	33 c5		 xor	 eax, ebp
  00022	89 45 f0	 mov	 DWORD PTR __$ArrayPad$[ebp], eax
  00025	56		 push	 esi
  00026	50		 push	 eax
  00027	8d 45 f4	 lea	 eax, DWORD PTR __$EHRec$[ebp]
  0002a	64 a3 00 00 00
	00		 mov	 DWORD PTR fs:0, eax
  00030	8b f1		 mov	 esi, ecx

; 355  : 	BEFORESEND( ar, PACKETTYPE_INSERTTAG_RESULT );

  00032	6a 00		 push	 0
  00034	6a 00		 push	 0
  00036	8d 8d dc bf ff
	ff		 lea	 ecx, DWORD PTR _ar$[ebp]
  0003c	e8 00 00 00 00	 call	 ??0CAr@@QAE@PAXI@Z	; CAr::CAr
  00041	8d 85 d8 bf ff
	ff		 lea	 eax, DWORD PTR $T2[ebp]
  00047	c7 45 fc 00 00
	00 00		 mov	 DWORD PTR __$EHRec$[ebp+8], 0
  0004e	50		 push	 eax
  0004f	8d 8d dc bf ff
	ff		 lea	 ecx, DWORD PTR _ar$[ebp]
  00055	c7 85 d8 bf ff
	ff 08 b0 00 f0	 mov	 DWORD PTR $T2[ebp], -268390392 ; f000b008H
  0005f	e8 00 00 00 00	 call	 ??$?6K@CAr@@QAEAAV0@ABK@Z ; CAr::operator<<<unsigned long>

; 356  : 	ar << idFrom;

  00064	8d 45 08	 lea	 eax, DWORD PTR _idFrom$[ebp]
  00067	50		 push	 eax
  00068	8d 8d dc bf ff
	ff		 lea	 ecx, DWORD PTR _ar$[ebp]
  0006e	e8 00 00 00 00	 call	 ??$?6K@CAr@@QAEAAV0@ABK@Z ; CAr::operator<<<unsigned long>

; 357  : 	ar << cbResult;

  00073	8d 45 0c	 lea	 eax, DWORD PTR _cbResult$[ebp]
  00076	50		 push	 eax
  00077	8d 8d dc bf ff
	ff		 lea	 ecx, DWORD PTR _ar$[ebp]
  0007d	e8 00 00 00 00	 call	 ??$?6E@CAr@@QAEAAV0@ABE@Z ; CAr::operator<<<unsigned char>

; 358  : 	SEND( ar, this, DPID_ALLPLAYERS );

  00082	8d 85 d4 bf ff
	ff		 lea	 eax, DWORD PTR _nBufSize$[ebp]
  00088	50		 push	 eax
  00089	8d 8d dc bf ff
	ff		 lea	 ecx, DWORD PTR _ar$[ebp]
  0008f	e8 00 00 00 00	 call	 ?GetBuffer@CAr@@QAEPAEPAH@Z ; CAr::GetBuffer
; File C:\IAGOS\server\v18\Source\Source\_Network\Net\Include\DPMng.h

; 171  : 	if( !m_pDPSock )

  00094	8b 4e 04	 mov	 ecx, DWORD PTR [esi+4]
  00097	85 c9		 test	 ecx, ecx
  00099	74 0e		 je	 SHORT $LN4@SendTagRes

; 172  : 		return FALSE;
; 173  : 	return m_pDPSock->Send( (char*)lpData, dwDataSize, dpidTo );

  0009b	6a 00		 push	 0
  0009d	ff b5 d4 bf ff
	ff		 push	 DWORD PTR _nBufSize$[ebp]
  000a3	50		 push	 eax
  000a4	e8 00 00 00 00	 call	 ?Send@CDPSock@@QAEHPADKK@Z ; CDPSock::Send
$LN4@SendTagRes:
; File C:\IAGOS\server\v18\Source\Source\DatabaseServer\DPCoreSrvr.cpp

; 359  : }

  000a9	8d 8d dc bf ff
	ff		 lea	 ecx, DWORD PTR _ar$[ebp]
  000af	e8 00 00 00 00	 call	 ??1CAr@@QAE@XZ		; CAr::~CAr
  000b4	8b 4d f4	 mov	 ecx, DWORD PTR __$EHRec$[ebp]
  000b7	64 89 0d 00 00
	00 00		 mov	 DWORD PTR fs:0, ecx
  000be	59		 pop	 ecx
  000bf	5e		 pop	 esi
  000c0	8b 4d f0	 mov	 ecx, DWORD PTR __$ArrayPad$[ebp]
  000c3	33 cd		 xor	 ecx, ebp
  000c5	e8 00 00 00 00	 call	 @__security_check_cookie@4
  000ca	8b e5		 mov	 esp, ebp
  000cc	5d		 pop	 ebp
  000cd	c2 08 00	 ret	 8
_TEXT	ENDS
;	COMDAT text$x
text$x	SEGMENT
__unwindfunclet$?SendTagResult@CDPCoreSrvr@@QAEXKE@Z$0:
  00000	8d 8d dc bf ff
	ff		 lea	 ecx, DWORD PTR _ar$[ebp]
  00006	e9 00 00 00 00	 jmp	 ??1CAr@@QAE@XZ		; CAr::~CAr
  0000b	cc		 int	 3
  0000c	cc		 int	 3
  0000d	cc		 int	 3
  0000e	cc		 int	 3
  0000f	cc		 int	 3
__ehhandler$?SendTagResult@CDPCoreSrvr@@QAEXKE@Z:
  00010	90		 npad	 1
  00011	90		 npad	 1
  00012	8b 54 24 08	 mov	 edx, DWORD PTR [esp+8]
  00016	8d 42 0c	 lea	 eax, DWORD PTR [edx+12]
  00019	8b 8a d8 bf ff
	ff		 mov	 ecx, DWORD PTR [edx-16424]
  0001f	33 c8		 xor	 ecx, eax
  00021	e8 00 00 00 00	 call	 @__security_check_cookie@4
  00026	8b 4a fc	 mov	 ecx, DWORD PTR [edx-4]
  00029	33 c8		 xor	 ecx, eax
  0002b	e8 00 00 00 00	 call	 @__security_check_cookie@4
  00030	b8 00 00 00 00	 mov	 eax, OFFSET __ehfuncinfo$?SendTagResult@CDPCoreSrvr@@QAEXKE@Z
  00035	e9 00 00 00 00	 jmp	 ___CxxFrameHandler3
text$x	ENDS
?SendTagResult@CDPCoreSrvr@@QAEXKE@Z ENDP		; CDPCoreSrvr::SendTagResult
; Function compile flags: /Ogtp
; File C:\IAGOS\server\v18\Source\Source\DatabaseServer\DPCoreSrvr.cpp
; File C:\Program Files\Microsoft Visual Studio\2022\Professional\VC\Tools\MSVC\14.44.35207\include\xtree
; File C:\IAGOS\server\v18\Source\Source\DatabaseServer\DPCoreSrvr.cpp
; File C:\Program Files\Microsoft Visual Studio\2022\Professional\VC\Tools\MSVC\14.44.35207\include\xtree
; File C:\IAGOS\server\v18\Source\Source\DatabaseServer\DPCoreSrvr.cpp
; File C:\Program Files\Microsoft Visual Studio\2022\Professional\VC\Tools\MSVC\14.44.35207\include\xstring
; File C:\IAGOS\server\v18\Source\Source\DatabaseServer\DPCoreSrvr.cpp
; File C:\Program Files\Microsoft Visual Studio\2022\Professional\VC\Tools\MSVC\14.44.35207\include\xtree
; File C:\IAGOS\server\v18\Source\Source\DatabaseServer\DPCoreSrvr.cpp
; File C:\IAGOS\server\v18\Source\Source\_Network\Net\Include\DPMng.h
; File C:\IAGOS\server\v18\Source\Source\DatabaseServer\DPCoreSrvr.cpp
;	COMDAT ?SendPartyName@CDPCoreSrvr@@QAEXK@Z
_TEXT	SEGMENT
_nBufSize$ = -16428					; size = 4
$T2 = -16424						; size = 4
$T3 = -16424						; size = 4
_ar$ = -16420						; size = 16404
__$ArrayPad$ = -16					; size = 4
__$EHRec$ = -12						; size = 12
_dpid$ = 8						; size = 4
?SendPartyName@CDPCoreSrvr@@QAEXK@Z PROC		; CDPCoreSrvr::SendPartyName, COMDAT
; _this$ = ecx

; 115  : {

  00000	55		 push	 ebp
  00001	8b ec		 mov	 ebp, esp
  00003	6a ff		 push	 -1
  00005	68 00 00 00 00	 push	 __ehhandler$?SendPartyName@CDPCoreSrvr@@QAEXK@Z
  0000a	64 a1 00 00 00
	00		 mov	 eax, DWORD PTR fs:0
  00010	50		 push	 eax
  00011	b8 20 40 00 00	 mov	 eax, 16416		; 00004020H
  00016	e8 00 00 00 00	 call	 __chkstk
  0001b	a1 00 00 00 00	 mov	 eax, DWORD PTR ___security_cookie
  00020	33 c5		 xor	 eax, ebp
  00022	89 45 f0	 mov	 DWORD PTR __$ArrayPad$[ebp], eax
  00025	56		 push	 esi
  00026	57		 push	 edi
  00027	50		 push	 eax
  00028	8d 45 f4	 lea	 eax, DWORD PTR __$EHRec$[ebp]
  0002b	64 a3 00 00 00
	00		 mov	 DWORD PTR fs:0, eax
  00031	8b f9		 mov	 edi, ecx

; 116  : 	BEFORESEND( ar, PACKETTYPE_PARTYNAME );

  00033	6a 00		 push	 0
  00035	6a 00		 push	 0
  00037	8d 8d dc bf ff
	ff		 lea	 ecx, DWORD PTR _ar$[ebp]
  0003d	e8 00 00 00 00	 call	 ??0CAr@@QAE@PAXI@Z	; CAr::CAr
  00042	8d 85 d8 bf ff
	ff		 lea	 eax, DWORD PTR $T2[ebp]
  00048	c7 45 fc 00 00
	00 00		 mov	 DWORD PTR __$EHRec$[ebp+8], 0
  0004f	50		 push	 eax
  00050	8d 8d dc bf ff
	ff		 lea	 ecx, DWORD PTR _ar$[ebp]
  00056	c7 85 d8 bf ff
	ff 70 ff ff ff	 mov	 DWORD PTR $T2[ebp], -144 ; ffffff70H
  00060	e8 00 00 00 00	 call	 ??$?6K@CAr@@QAEAAV0@ABK@Z ; CAr::operator<<<unsigned long>

; 117  : 
; 118  : 	ar << (u_long)g_DbManager.m_2PartyNamePtr.size();

  00065	a1 00 00 00 00	 mov	 eax, DWORD PTR ?g_DbManager@@3AAVCDbManager@@A ; g_DbManager
  0006a	8d 8d dc bf ff
	ff		 lea	 ecx, DWORD PTR _ar$[ebp]
  00070	8b 40 48	 mov	 eax, DWORD PTR [eax+72]
  00073	89 85 d8 bf ff
	ff		 mov	 DWORD PTR $T3[ebp], eax
  00079	8d 85 d8 bf ff
	ff		 lea	 eax, DWORD PTR $T3[ebp]
  0007f	50		 push	 eax
  00080	e8 00 00 00 00	 call	 ??$?6K@CAr@@QAEAAV0@ABK@Z ; CAr::operator<<<unsigned long>
; File C:\Program Files\Microsoft Visual Studio\2022\Professional\VC\Tools\MSVC\14.44.35207\include\xtree

; 1142 :         return iterator(_Scary->_Myhead->_Left, _Scary);

  00085	a1 00 00 00 00	 mov	 eax, DWORD PTR ?g_DbManager@@3AAVCDbManager@@A ; g_DbManager
  0008a	8b 40 44	 mov	 eax, DWORD PTR [eax+68]

; 37   :     _Tree_unchecked_const_iterator(_Nodeptr _Pnode, const _Mytree* _Plist) noexcept : _Ptr(_Pnode) {

  0008d	8b 30		 mov	 esi, DWORD PTR [eax]

; 237  :         return !(*this == _Right);

  0008f	3b f0		 cmp	 esi, eax
; File C:\IAGOS\server\v18\Source\Source\DatabaseServer\DPCoreSrvr.cpp

; 119  : 	for( ULONG2STRING::iterator i = g_DbManager.m_2PartyNamePtr.begin(); i != g_DbManager.m_2PartyNamePtr.end(); ++i )

  00091	74 73		 je	 SHORT $LN3@SendPartyN
$LL4@SendPartyN:
; File C:\Program Files\Microsoft Visual Studio\2022\Professional\VC\Tools\MSVC\14.44.35207\include\xtree

; 185  :         return this->_Ptr->_Myval;

  00093	8d 46 10	 lea	 eax, DWORD PTR [esi+16]
; File C:\IAGOS\server\v18\Source\Source\DatabaseServer\DPCoreSrvr.cpp

; 121  : 		ar << (*i).first;

  00096	50		 push	 eax
  00097	8d 8d dc bf ff
	ff		 lea	 ecx, DWORD PTR _ar$[ebp]
  0009d	e8 00 00 00 00	 call	 ??$?6K@CAr@@QAEAAV0@ABK@Z ; CAr::operator<<<unsigned long>
; File C:\Program Files\Microsoft Visual Studio\2022\Professional\VC\Tools\MSVC\14.44.35207\include\xstring

; 453  :         return _Myres > _Small_string_capacity;

  000a2	83 7e 28 0f	 cmp	 DWORD PTR [esi+40], 15	; 0000000fH

; 2360 :         return _Mypair._Myval2._Myptr();

  000a6	8d 46 14	 lea	 eax, DWORD PTR [esi+20]

; 445  :         if (_Large_mode_engaged()) {

  000a9	76 02		 jbe	 SHORT $LN71@SendPartyN

; 446  :             _Result = _Unfancy(_Bx._Ptr);

  000ab	8b 00		 mov	 eax, DWORD PTR [eax]
$LN71@SendPartyN:
; File C:\IAGOS\server\v18\Source\Source\DatabaseServer\DPCoreSrvr.cpp

; 122  : 		ar.WriteString( (*i).second.data() );

  000ad	50		 push	 eax
  000ae	8d 8d dc bf ff
	ff		 lea	 ecx, DWORD PTR _ar$[ebp]
  000b4	e8 00 00 00 00	 call	 ?WriteString@CAr@@QAEXPBD@Z ; CAr::WriteString
; File C:\Program Files\Microsoft Visual Studio\2022\Professional\VC\Tools\MSVC\14.44.35207\include\xtree

; 50   :         if (_Ptr->_Right->_Isnil) { // climb looking for right subtree

  000b9	8b 46 08	 mov	 eax, DWORD PTR [esi+8]
  000bc	80 78 0d 00	 cmp	 BYTE PTR [eax+13], 0
  000c0	74 22		 je	 SHORT $LN28@SendPartyN

; 51   :             _Nodeptr _Pnode;
; 52   :             while (!(_Pnode = _Ptr->_Parent)->_Isnil && _Ptr == _Pnode->_Right) {

  000c2	8b 46 04	 mov	 eax, DWORD PTR [esi+4]
  000c5	80 78 0d 00	 cmp	 BYTE PTR [eax+13], 0
  000c9	75 15		 jne	 SHORT $LN27@SendPartyN
  000cb	0f 1f 44 00 00	 npad	 5
$LL26@SendPartyN:
  000d0	3b 70 08	 cmp	 esi, DWORD PTR [eax+8]
  000d3	75 0b		 jne	 SHORT $LN27@SendPartyN

; 53   :                 _Ptr = _Pnode; // ==> parent while right subtree

  000d5	8b f0		 mov	 esi, eax
  000d7	8b 40 04	 mov	 eax, DWORD PTR [eax+4]
  000da	80 78 0d 00	 cmp	 BYTE PTR [eax+13], 0
  000de	74 f0		 je	 SHORT $LL26@SendPartyN
$LN27@SendPartyN:

; 54   :             }
; 55   : 
; 56   :             _Ptr = _Pnode; // ==> parent (head if end())

  000e0	8b f0		 mov	 esi, eax

; 57   :         } else {

  000e2	eb 18		 jmp	 SHORT $LN85@SendPartyN
$LN28@SendPartyN:

; 58   :             _Ptr = _Mytree::_Min(_Ptr->_Right); // ==> smallest of right subtree

  000e4	8b f0		 mov	 esi, eax

; 476  :         while (!_Pnode->_Left->_Isnil) {

  000e6	8b 0e		 mov	 ecx, DWORD PTR [esi]
  000e8	80 79 0d 00	 cmp	 BYTE PTR [ecx+13], 0
  000ec	75 0e		 jne	 SHORT $LN85@SendPartyN
  000ee	66 90		 npad	 2
$LL33@SendPartyN:
  000f0	8b 01		 mov	 eax, DWORD PTR [ecx]

; 477  :             _Pnode = _Pnode->_Left;

  000f2	8b f1		 mov	 esi, ecx
  000f4	8b c8		 mov	 ecx, eax
  000f6	80 78 0d 00	 cmp	 BYTE PTR [eax+13], 0
  000fa	74 f4		 je	 SHORT $LL33@SendPartyN
$LN85@SendPartyN:

; 237  :         return !(*this == _Right);

  000fc	a1 00 00 00 00	 mov	 eax, DWORD PTR ?g_DbManager@@3AAVCDbManager@@A ; g_DbManager
  00101	3b 70 44	 cmp	 esi, DWORD PTR [eax+68]
; File C:\IAGOS\server\v18\Source\Source\DatabaseServer\DPCoreSrvr.cpp

; 119  : 	for( ULONG2STRING::iterator i = g_DbManager.m_2PartyNamePtr.begin(); i != g_DbManager.m_2PartyNamePtr.end(); ++i )

  00104	75 8d		 jne	 SHORT $LL4@SendPartyN
$LN3@SendPartyN:

; 123  : 	}
; 124  : 	SEND( ar, this, dpid );

  00106	8d 85 d4 bf ff
	ff		 lea	 eax, DWORD PTR _nBufSize$[ebp]
  0010c	50		 push	 eax
  0010d	8d 8d dc bf ff
	ff		 lea	 ecx, DWORD PTR _ar$[ebp]
  00113	e8 00 00 00 00	 call	 ?GetBuffer@CAr@@QAEPAEPAH@Z ; CAr::GetBuffer
; File C:\IAGOS\server\v18\Source\Source\_Network\Net\Include\DPMng.h

; 171  : 	if( !m_pDPSock )

  00118	8b 4f 04	 mov	 ecx, DWORD PTR [edi+4]
  0011b	85 c9		 test	 ecx, ecx
  0011d	74 0f		 je	 SHORT $LN77@SendPartyN

; 172  : 		return FALSE;
; 173  : 	return m_pDPSock->Send( (char*)lpData, dwDataSize, dpidTo );

  0011f	ff 75 08	 push	 DWORD PTR _dpid$[ebp]
  00122	ff b5 d4 bf ff
	ff		 push	 DWORD PTR _nBufSize$[ebp]
  00128	50		 push	 eax
  00129	e8 00 00 00 00	 call	 ?Send@CDPSock@@QAEHPADKK@Z ; CDPSock::Send
$LN77@SendPartyN:
; File C:\IAGOS\server\v18\Source\Source\DatabaseServer\DPCoreSrvr.cpp

; 125  : }

  0012e	8d 8d dc bf ff
	ff		 lea	 ecx, DWORD PTR _ar$[ebp]
  00134	e8 00 00 00 00	 call	 ??1CAr@@QAE@XZ		; CAr::~CAr
  00139	8b 4d f4	 mov	 ecx, DWORD PTR __$EHRec$[ebp]
  0013c	64 89 0d 00 00
	00 00		 mov	 DWORD PTR fs:0, ecx
  00143	59		 pop	 ecx
  00144	5f		 pop	 edi
  00145	5e		 pop	 esi
  00146	8b 4d f0	 mov	 ecx, DWORD PTR __$ArrayPad$[ebp]
  00149	33 cd		 xor	 ecx, ebp
  0014b	e8 00 00 00 00	 call	 @__security_check_cookie@4
  00150	8b e5		 mov	 esp, ebp
  00152	5d		 pop	 ebp
  00153	c2 04 00	 ret	 4
_TEXT	ENDS
;	COMDAT text$x
text$x	SEGMENT
__unwindfunclet$?SendPartyName@CDPCoreSrvr@@QAEXK@Z$0:
  00000	8d 8d dc bf ff
	ff		 lea	 ecx, DWORD PTR _ar$[ebp]
  00006	e9 00 00 00 00	 jmp	 ??1CAr@@QAE@XZ		; CAr::~CAr
  0000b	cc		 int	 3
  0000c	cc		 int	 3
  0000d	cc		 int	 3
  0000e	cc		 int	 3
  0000f	cc		 int	 3
__ehhandler$?SendPartyName@CDPCoreSrvr@@QAEXK@Z:
  00010	90		 npad	 1
  00011	90		 npad	 1
  00012	8b 54 24 08	 mov	 edx, DWORD PTR [esp+8]
  00016	8d 42 0c	 lea	 eax, DWORD PTR [edx+12]
  00019	8b 8a d4 bf ff
	ff		 mov	 ecx, DWORD PTR [edx-16428]
  0001f	33 c8		 xor	 ecx, eax
  00021	e8 00 00 00 00	 call	 @__security_check_cookie@4
  00026	8b 4a fc	 mov	 ecx, DWORD PTR [edx-4]
  00029	33 c8		 xor	 ecx, eax
  0002b	e8 00 00 00 00	 call	 @__security_check_cookie@4
  00030	b8 00 00 00 00	 mov	 eax, OFFSET __ehfuncinfo$?SendPartyName@CDPCoreSrvr@@QAEXK@Z
  00035	e9 00 00 00 00	 jmp	 ___CxxFrameHandler3
text$x	ENDS
?SendPartyName@CDPCoreSrvr@@QAEXK@Z ENDP		; CDPCoreSrvr::SendPartyName
; Function compile flags: /Ogtp
; File C:\IAGOS\server\v18\Source\Source\DatabaseServer\DPCoreSrvr.cpp
; File C:\Program Files\Microsoft Visual Studio\2022\Professional\VC\Tools\MSVC\14.44.35207\include\xtree
; File C:\IAGOS\server\v18\Source\Source\DatabaseServer\DPCoreSrvr.cpp
; File C:\Program Files\Microsoft Visual Studio\2022\Professional\VC\Tools\MSVC\14.44.35207\include\xtree
; File C:\Program Files\Microsoft Visual Studio\2022\Professional\VC\Tools\MSVC\14.44.35207\include\type_traits
; File C:\Program Files\Microsoft Visual Studio\2022\Professional\VC\Tools\MSVC\14.44.35207\include\xtree
; File C:\IAGOS\server\v18\Source\Source\DatabaseServer\dpcoresrvr.h
; File C:\IAGOS\server\v18\Source\Source\DatabaseServer\DPCoreSrvr.cpp
;	COMDAT ?UserMessageHandler@CDPCoreSrvr@@UAEXPAUDPMSG_GENERIC@@KK@Z
_TEXT	SEGMENT
__Loc$2 = -16444					; size = 12
_lpMsg$GSCopy$1$ = -16432				; size = 4
_dwMsgSize$GSCopy$1$ = -16428				; size = 4
_dw$ = -16424						; size = 4
_dwType$ = -16424					; size = 4
_ar$ = -16420						; size = 16404
__$ArrayPad$ = -16					; size = 4
__$EHRec$ = -12						; size = 12
_lpMsg$ = 8						; size = 4
_dwMsgSize$ = 12					; size = 4
_dpid$ = 16						; size = 4
?UserMessageHandler@CDPCoreSrvr@@UAEXPAUDPMSG_GENERIC@@KK@Z PROC ; CDPCoreSrvr::UserMessageHandler, COMDAT
; _this$ = ecx

; 82   : {

  00000	55		 push	 ebp
  00001	8b ec		 mov	 ebp, esp
  00003	6a ff		 push	 -1
  00005	68 00 00 00 00	 push	 __ehhandler$?UserMessageHandler@CDPCoreSrvr@@UAEXPAUDPMSG_GENERIC@@KK@Z
  0000a	64 a1 00 00 00
	00		 mov	 eax, DWORD PTR fs:0
  00010	50		 push	 eax
  00011	b8 30 40 00 00	 mov	 eax, 16432		; 00004030H
  00016	e8 00 00 00 00	 call	 __chkstk
  0001b	a1 00 00 00 00	 mov	 eax, DWORD PTR ___security_cookie
  00020	33 c5		 xor	 eax, ebp
  00022	89 45 f0	 mov	 DWORD PTR __$ArrayPad$[ebp], eax
  00025	53		 push	 ebx
  00026	56		 push	 esi
  00027	57		 push	 edi
  00028	50		 push	 eax
  00029	8d 45 f4	 lea	 eax, DWORD PTR __$EHRec$[ebp]
  0002c	64 a3 00 00 00
	00		 mov	 DWORD PTR fs:0, eax
  00032	8b d9		 mov	 ebx, ecx
  00034	8b 4d 0c	 mov	 ecx, DWORD PTR _dwMsgSize$[ebp]
  00037	8b 45 08	 mov	 eax, DWORD PTR _lpMsg$[ebp]

; 83   : 	CAr ar( (LPBYTE)lpMsg, dwMsgSize );

  0003a	51		 push	 ecx
  0003b	89 8d d4 bf ff
	ff		 mov	 DWORD PTR _dwMsgSize$GSCopy$1$[ebp], ecx
  00041	8d 8d dc bf ff
	ff		 lea	 ecx, DWORD PTR _ar$[ebp]
  00047	50		 push	 eax
  00048	89 85 d0 bf ff
	ff		 mov	 DWORD PTR _lpMsg$GSCopy$1$[ebp], eax
  0004e	e8 00 00 00 00	 call	 ??0CAr@@QAE@PAXI@Z	; CAr::CAr

; 84   : 	GETTYPE( ar );

  00053	8d 85 d8 bf ff
	ff		 lea	 eax, DWORD PTR _dw$[ebp]
  00059	c7 45 fc 00 00
	00 00		 mov	 DWORD PTR __$EHRec$[ebp+8], 0
  00060	50		 push	 eax
  00061	8d 8d dc bf ff
	ff		 lea	 ecx, DWORD PTR _ar$[ebp]
  00067	e8 00 00 00 00	 call	 ??$?5K@CAr@@QAEAAV0@AAK@Z ; CAr::operator>><unsigned long>

; 86   : 		=	GetHandler( dw );

  0006c	8b b5 d8 bf ff
	ff		 mov	 esi, DWORD PTR _dw$[ebp]
; File C:\Program Files\Microsoft Visual Studio\2022\Professional\VC\Tools\MSVC\14.44.35207\include\xtree

; 1384 :         const _Tree_find_result<_Nodeptr> _Loc = _Find_lower_bound(_Keyval);

  00072	8d 85 d8 bf ff
	ff		 lea	 eax, DWORD PTR _dwType$[ebp]
  00078	50		 push	 eax
  00079	8d 85 c4 bf ff
	ff		 lea	 eax, DWORD PTR __Loc$2[ebp]
; File C:\IAGOS\server\v18\Source\Source\DatabaseServer\DPCoreSrvr.cpp

; 86   : 		=	GetHandler( dw );

  0007f	89 b5 d8 bf ff
	ff		 mov	 DWORD PTR _dwType$[ebp], esi
; File C:\Program Files\Microsoft Visual Studio\2022\Professional\VC\Tools\MSVC\14.44.35207\include\xtree

; 1384 :         const _Tree_find_result<_Nodeptr> _Loc = _Find_lower_bound(_Keyval);

  00085	50		 push	 eax
  00086	8d 4b 10	 lea	 ecx, DWORD PTR [ebx+16]
  00089	e8 00 00 00 00	 call	 ??$_Find_lower_bound@K@?$_Tree@V?$_Tmap_traits@KP8CDPCoreSrvr@@AEXAAVCAr@@PAEK@ZU?$less@K@std@@V?$allocator@U?$pair@$$CBKP8CDPCoreSrvr@@AEXAAVCAr@@PAEK@Z@std@@@4@$0A@@std@@@std@@IBE?AU?$_Tree_find_result@PAU?$_Tree_node@U?$pair@$$CBKP8CDPCoreSrvr@@AEXAAVCAr@@PAEK@Z@std@@PAX@std@@@1@ABK@Z ; std::_Tree<std::_Tmap_traits<unsigned long,void (__thiscall CDPCoreSrvr::*)(CAr &,unsigned char *,unsigned long),std::less<unsigned long>,std::allocator<std::pair<unsigned long const ,void (__thiscall CDPCoreSrvr::*)(CAr &,unsigned char *,unsigned long)> >,0> >::_Find_lower_bound<unsigned long>

; 1624 :         return !_Bound->_Isnil && !_DEBUG_LT_PRED(_Getcomp(), _Keyval, _Traits::_Kfn(_Bound->_Myval));

  0008e	8b 85 cc bf ff
	ff		 mov	 eax, DWORD PTR __Loc$2[ebp+8]
  00094	80 78 0d 00	 cmp	 BYTE PTR [eax+13], 0
  00098	75 30		 jne	 SHORT $LN2@UserMessag
; File C:\Program Files\Microsoft Visual Studio\2022\Professional\VC\Tools\MSVC\14.44.35207\include\type_traits

; 2380 :         return _Left < _Right;

  0009a	3b 70 10	 cmp	 esi, DWORD PTR [eax+16]
; File C:\Program Files\Microsoft Visual Studio\2022\Professional\VC\Tools\MSVC\14.44.35207\include\xtree

; 1624 :         return !_Bound->_Isnil && !_DEBUG_LT_PRED(_Getcomp(), _Keyval, _Traits::_Kfn(_Bound->_Myval));

  0009d	72 2b		 jb	 SHORT $LN2@UserMessag

; 37   :     _Tree_unchecked_const_iterator(_Nodeptr _Pnode, const _Mytree* _Plist) noexcept : _Ptr(_Pnode) {

  0009f	3b 43 10	 cmp	 eax, DWORD PTR [ebx+16]
; File C:\IAGOS\server\v18\Source\Source\DatabaseServer\dpcoresrvr.h

; 51   : 	USES_PFNENTRIES;

  000a2	74 26		 je	 SHORT $LN2@UserMessag
  000a4	8b 50 14	 mov	 edx, DWORD PTR [eax+20]
; File C:\IAGOS\server\v18\Source\Source\DatabaseServer\DPCoreSrvr.cpp

; 88   : 	if( pfn )

  000a7	85 d2		 test	 edx, edx
  000a9	74 1f		 je	 SHORT $LN2@UserMessag

; 89   : 		( this->*( pfn ) )( ar, (LPBYTE)lpMsg + sizeof(DWORD), dwMsgSize - sizeof(DWORD) );

  000ab	8b 85 d4 bf ff
	ff		 mov	 eax, DWORD PTR _dwMsgSize$GSCopy$1$[ebp]
  000b1	8b cb		 mov	 ecx, ebx
  000b3	83 c0 fc	 add	 eax, -4			; fffffffcH
  000b6	50		 push	 eax
  000b7	8b 85 d0 bf ff
	ff		 mov	 eax, DWORD PTR _lpMsg$GSCopy$1$[ebp]
  000bd	83 c0 04	 add	 eax, 4
  000c0	50		 push	 eax
  000c1	8d 85 dc bf ff
	ff		 lea	 eax, DWORD PTR _ar$[ebp]
  000c7	50		 push	 eax
  000c8	ff d2		 call	 edx
$LN2@UserMessag:

; 90   : }

  000ca	8d 8d dc bf ff
	ff		 lea	 ecx, DWORD PTR _ar$[ebp]
  000d0	e8 00 00 00 00	 call	 ??1CAr@@QAE@XZ		; CAr::~CAr
  000d5	8b 4d f4	 mov	 ecx, DWORD PTR __$EHRec$[ebp]
  000d8	64 89 0d 00 00
	00 00		 mov	 DWORD PTR fs:0, ecx
  000df	59		 pop	 ecx
  000e0	5f		 pop	 edi
  000e1	5e		 pop	 esi
  000e2	5b		 pop	 ebx
  000e3	8b 4d f0	 mov	 ecx, DWORD PTR __$ArrayPad$[ebp]
  000e6	33 cd		 xor	 ecx, ebp
  000e8	e8 00 00 00 00	 call	 @__security_check_cookie@4
  000ed	8b e5		 mov	 esp, ebp
  000ef	5d		 pop	 ebp
  000f0	c2 0c 00	 ret	 12			; 0000000cH
_TEXT	ENDS
;	COMDAT text$x
text$x	SEGMENT
__unwindfunclet$?UserMessageHandler@CDPCoreSrvr@@UAEXPAUDPMSG_GENERIC@@KK@Z$0:
  00000	8d 8d dc bf ff
	ff		 lea	 ecx, DWORD PTR _ar$[ebp]
  00006	e9 00 00 00 00	 jmp	 ??1CAr@@QAE@XZ		; CAr::~CAr
  0000b	cc		 int	 3
  0000c	cc		 int	 3
  0000d	cc		 int	 3
  0000e	cc		 int	 3
  0000f	cc		 int	 3
__ehhandler$?UserMessageHandler@CDPCoreSrvr@@UAEXPAUDPMSG_GENERIC@@KK@Z:
  00010	90		 npad	 1
  00011	90		 npad	 1
  00012	8b 54 24 08	 mov	 edx, DWORD PTR [esp+8]
  00016	8d 42 0c	 lea	 eax, DWORD PTR [edx+12]
  00019	8b 8a c0 bf ff
	ff		 mov	 ecx, DWORD PTR [edx-16448]
  0001f	33 c8		 xor	 ecx, eax
  00021	e8 00 00 00 00	 call	 @__security_check_cookie@4
  00026	8b 4a fc	 mov	 ecx, DWORD PTR [edx-4]
  00029	33 c8		 xor	 ecx, eax
  0002b	e8 00 00 00 00	 call	 @__security_check_cookie@4
  00030	b8 00 00 00 00	 mov	 eax, OFFSET __ehfuncinfo$?UserMessageHandler@CDPCoreSrvr@@UAEXPAUDPMSG_GENERIC@@KK@Z
  00035	e9 00 00 00 00	 jmp	 ___CxxFrameHandler3
text$x	ENDS
?UserMessageHandler@CDPCoreSrvr@@UAEXPAUDPMSG_GENERIC@@KK@Z ENDP ; CDPCoreSrvr::UserMessageHandler
; Function compile flags: /Ogtp
; File C:\IAGOS\server\v18\Source\Source\DatabaseServer\DPCoreSrvr.cpp
;	COMDAT ?SysMessageHandler@CDPCoreSrvr@@UAEXPAUDPMSG_GENERIC@@KK@Z
_TEXT	SEGMENT
_lpMsg$ = 8						; size = 4
_dwMsgSize$ = 12					; size = 4
_dpid$ = 16						; size = 4
?SysMessageHandler@CDPCoreSrvr@@UAEXPAUDPMSG_GENERIC@@KK@Z PROC ; CDPCoreSrvr::SysMessageHandler, COMDAT
; _this$ = ecx

; 63   : {

  00000	55		 push	 ebp
  00001	8b ec		 mov	 ebp, esp

; 64   : 	switch( lpMsg->dwType )

  00003	8b 55 08	 mov	 edx, DWORD PTR _lpMsg$[ebp]
  00006	8b 02		 mov	 eax, DWORD PTR [edx]
  00008	83 e8 03	 sub	 eax, 3
  0000b	75 08		 jne	 SHORT $LN2@SysMessage

; 65   : 	{
; 66   : 		case DPSYS_CREATEPLAYERORGROUP:
; 67   : 			{
; 68   : 				LPDPMSG_CREATEPLAYERORGROUP lpCreatePlayer	= (LPDPMSG_CREATEPLAYERORGROUP)lpMsg;
; 69   : 				OnAddConnection( lpCreatePlayer->dpId );

  0000d	ff 72 08	 push	 DWORD PTR [edx+8]
  00010	e8 00 00 00 00	 call	 ?OnAddConnection@CDPCoreSrvr@@QAEXK@Z ; CDPCoreSrvr::OnAddConnection
$LN2@SysMessage:

; 70   : 				break;
; 71   : 			}
; 72   : 		case DPSYS_DESTROYPLAYERORGROUP:
; 73   : 			{
; 74   : 				LPDPMSG_DESTROYPLAYERORGROUP lpDestroyPlayer	= (LPDPMSG_DESTROYPLAYERORGROUP)lpMsg;
; 75   : 				OnRemoveConnection( lpDestroyPlayer->dpId );
; 76   : 				break;
; 77   : 			}
; 78   : 	}
; 79   : }

  00015	5d		 pop	 ebp
  00016	c2 0c 00	 ret	 12			; 0000000cH
?SysMessageHandler@CDPCoreSrvr@@UAEXPAUDPMSG_GENERIC@@KK@Z ENDP ; CDPCoreSrvr::SysMessageHandler
_TEXT	ENDS
; Function compile flags: /Ogtp
; File C:\IAGOS\server\v18\Source\Source\DatabaseServer\DPCoreSrvr.cpp
;	COMDAT ??1CDPCoreSrvr@@UAE@XZ
_TEXT	SEGMENT
??1CDPCoreSrvr@@UAE@XZ PROC				; CDPCoreSrvr::~CDPCoreSrvr, COMDAT
; _this$ = ecx

; 58   : {

  00000	56		 push	 esi
  00001	8b f1		 mov	 esi, ecx

; 59   : 
; 60   : }

  00003	8d 4e 10	 lea	 ecx, DWORD PTR [esi+16]
  00006	c7 06 00 00 00
	00		 mov	 DWORD PTR [esi], OFFSET ??_7CDPCoreSrvr@@6B@
  0000c	e8 00 00 00 00	 call	 ??1?$_Tree@V?$_Tmap_traits@KP8CDPCoreSrvr@@AEXAAVCAr@@PAEK@ZU?$less@K@std@@V?$allocator@U?$pair@$$CBKP8CDPCoreSrvr@@AEXAAVCAr@@PAEK@Z@std@@@4@$0A@@std@@@std@@QAE@XZ ; std::_Tree<std::_Tmap_traits<unsigned long,void (__thiscall CDPCoreSrvr::*)(CAr &,unsigned char *,unsigned long),std::less<unsigned long>,std::allocator<std::pair<unsigned long const ,void (__thiscall CDPCoreSrvr::*)(CAr &,unsigned char *,unsigned long)> >,0> >::~_Tree<std::_Tmap_traits<unsigned long,void (__thiscall CDPCoreSrvr::*)(CAr &,unsigned char *,unsigned long),std::less<unsigned long>,std::allocator<std::pair<unsigned long const ,void (__thiscall CDPCoreSrvr::*)(CAr &,unsigned char *,unsigned long)> >,0> >
  00011	8b ce		 mov	 ecx, esi
  00013	5e		 pop	 esi
  00014	e9 00 00 00 00	 jmp	 ??1CDPMng@@UAE@XZ	; CDPMng::~CDPMng
??1CDPCoreSrvr@@UAE@XZ ENDP				; CDPCoreSrvr::~CDPCoreSrvr
_TEXT	ENDS
; Function compile flags: /Ogtp
; File C:\IAGOS\server\v18\Source\Source\DatabaseServer\DPCoreSrvr.cpp
; File C:\Program Files\Microsoft Visual Studio\2022\Professional\VC\Tools\MSVC\14.44.35207\include\xmemory
; File C:\IAGOS\server\v18\Source\Source\DatabaseServer\DPCoreSrvr.cpp
; File C:\Program Files\Microsoft Visual Studio\2022\Professional\VC\Tools\MSVC\14.44.35207\include\xtree
; File C:\Program Files\Microsoft Visual Studio\2022\Professional\VC\Tools\MSVC\14.44.35207\include\xmemory
; File C:\Program Files\Microsoft Visual Studio\2022\Professional\VC\Tools\MSVC\14.44.35207\include\xtree
; File C:\IAGOS\server\v18\Source\Source\DatabaseServer\DPCoreSrvr.cpp
; File C:\Program Files\Microsoft Visual Studio\2022\Professional\VC\Tools\MSVC\14.44.35207\include\xtree
; File C:\Program Files\Microsoft Visual Studio\2022\Professional\VC\Tools\MSVC\14.44.35207\include\utility
; File C:\Program Files\Microsoft Visual Studio\2022\Professional\VC\Tools\MSVC\14.44.35207\include\xtree
; File C:\Program Files\Microsoft Visual Studio\2022\Professional\VC\Tools\MSVC\14.44.35207\include\utility
; File C:\Program Files\Microsoft Visual Studio\2022\Professional\VC\Tools\MSVC\14.44.35207\include\xtree
; File C:\Program Files\Microsoft Visual Studio\2022\Professional\VC\Tools\MSVC\14.44.35207\include\type_traits
; File C:\Program Files\Microsoft Visual Studio\2022\Professional\VC\Tools\MSVC\14.44.35207\include\xtree
; File C:\Program Files\Microsoft Visual Studio\2022\Professional\VC\Tools\MSVC\14.44.35207\include\xmemory
; File C:\Program Files\Microsoft Visual Studio\2022\Professional\VC\Tools\MSVC\14.44.35207\include\xtree
; File C:\Program Files\Microsoft Visual Studio\2022\Professional\VC\Tools\MSVC\14.44.35207\include\xmemory
; File C:\Program Files\Microsoft Visual Studio\2022\Professional\VC\Tools\MSVC\14.44.35207\include\xtree
; File C:\Program Files\Microsoft Visual Studio\2022\Professional\VC\Tools\MSVC\14.44.35207\include\utility
; File C:\Program Files\Microsoft Visual Studio\2022\Professional\VC\Tools\MSVC\14.44.35207\include\xtree
; File C:\Program Files\Microsoft Visual Studio\2022\Professional\VC\Tools\MSVC\14.44.35207\include\utility
; File C:\Program Files\Microsoft Visual Studio\2022\Professional\VC\Tools\MSVC\14.44.35207\include\xtree
; File C:\Program Files\Microsoft Visual Studio\2022\Professional\VC\Tools\MSVC\14.44.35207\include\type_traits
; File C:\Program Files\Microsoft Visual Studio\2022\Professional\VC\Tools\MSVC\14.44.35207\include\xtree
; File C:\Program Files\Microsoft Visual Studio\2022\Professional\VC\Tools\MSVC\14.44.35207\include\xmemory
; File C:\Program Files\Microsoft Visual Studio\2022\Professional\VC\Tools\MSVC\14.44.35207\include\xtree
; File C:\Program Files\Microsoft Visual Studio\2022\Professional\VC\Tools\MSVC\14.44.35207\include\xmemory
; File C:\Program Files\Microsoft Visual Studio\2022\Professional\VC\Tools\MSVC\14.44.35207\include\xtree
; File C:\Program Files\Microsoft Visual Studio\2022\Professional\VC\Tools\MSVC\14.44.35207\include\utility
; File C:\Program Files\Microsoft Visual Studio\2022\Professional\VC\Tools\MSVC\14.44.35207\include\xtree
; File C:\Program Files\Microsoft Visual Studio\2022\Professional\VC\Tools\MSVC\14.44.35207\include\utility
; File C:\Program Files\Microsoft Visual Studio\2022\Professional\VC\Tools\MSVC\14.44.35207\include\xtree
; File C:\Program Files\Microsoft Visual Studio\2022\Professional\VC\Tools\MSVC\14.44.35207\include\type_traits
; File C:\Program Files\Microsoft Visual Studio\2022\Professional\VC\Tools\MSVC\14.44.35207\include\xtree
; File C:\Program Files\Microsoft Visual Studio\2022\Professional\VC\Tools\MSVC\14.44.35207\include\xmemory
; File C:\Program Files\Microsoft Visual Studio\2022\Professional\VC\Tools\MSVC\14.44.35207\include\xtree
; File C:\Program Files\Microsoft Visual Studio\2022\Professional\VC\Tools\MSVC\14.44.35207\include\xmemory
; File C:\Program Files\Microsoft Visual Studio\2022\Professional\VC\Tools\MSVC\14.44.35207\include\xtree
; File C:\Program Files\Microsoft Visual Studio\2022\Professional\VC\Tools\MSVC\14.44.35207\include\utility
; File C:\Program Files\Microsoft Visual Studio\2022\Professional\VC\Tools\MSVC\14.44.35207\include\xtree
; File C:\Program Files\Microsoft Visual Studio\2022\Professional\VC\Tools\MSVC\14.44.35207\include\utility
; File C:\Program Files\Microsoft Visual Studio\2022\Professional\VC\Tools\MSVC\14.44.35207\include\xtree
; File C:\Program Files\Microsoft Visual Studio\2022\Professional\VC\Tools\MSVC\14.44.35207\include\type_traits
; File C:\Program Files\Microsoft Visual Studio\2022\Professional\VC\Tools\MSVC\14.44.35207\include\xtree
; File C:\Program Files\Microsoft Visual Studio\2022\Professional\VC\Tools\MSVC\14.44.35207\include\xmemory
; File C:\Program Files\Microsoft Visual Studio\2022\Professional\VC\Tools\MSVC\14.44.35207\include\xtree
; File C:\Program Files\Microsoft Visual Studio\2022\Professional\VC\Tools\MSVC\14.44.35207\include\xmemory
; File C:\Program Files\Microsoft Visual Studio\2022\Professional\VC\Tools\MSVC\14.44.35207\include\xtree
; File C:\Program Files\Microsoft Visual Studio\2022\Professional\VC\Tools\MSVC\14.44.35207\include\utility
; File C:\Program Files\Microsoft Visual Studio\2022\Professional\VC\Tools\MSVC\14.44.35207\include\xtree
; File C:\Program Files\Microsoft Visual Studio\2022\Professional\VC\Tools\MSVC\14.44.35207\include\utility
; File C:\Program Files\Microsoft Visual Studio\2022\Professional\VC\Tools\MSVC\14.44.35207\include\xtree
; File C:\Program Files\Microsoft Visual Studio\2022\Professional\VC\Tools\MSVC\14.44.35207\include\type_traits
; File C:\Program Files\Microsoft Visual Studio\2022\Professional\VC\Tools\MSVC\14.44.35207\include\xtree
; File C:\Program Files\Microsoft Visual Studio\2022\Professional\VC\Tools\MSVC\14.44.35207\include\xmemory
; File C:\Program Files\Microsoft Visual Studio\2022\Professional\VC\Tools\MSVC\14.44.35207\include\xtree
; File C:\Program Files\Microsoft Visual Studio\2022\Professional\VC\Tools\MSVC\14.44.35207\include\xmemory
; File C:\Program Files\Microsoft Visual Studio\2022\Professional\VC\Tools\MSVC\14.44.35207\include\xtree
; File C:\Program Files\Microsoft Visual Studio\2022\Professional\VC\Tools\MSVC\14.44.35207\include\utility
; File C:\Program Files\Microsoft Visual Studio\2022\Professional\VC\Tools\MSVC\14.44.35207\include\xtree
; File C:\Program Files\Microsoft Visual Studio\2022\Professional\VC\Tools\MSVC\14.44.35207\include\utility
; File C:\Program Files\Microsoft Visual Studio\2022\Professional\VC\Tools\MSVC\14.44.35207\include\xtree
; File C:\Program Files\Microsoft Visual Studio\2022\Professional\VC\Tools\MSVC\14.44.35207\include\type_traits
; File C:\Program Files\Microsoft Visual Studio\2022\Professional\VC\Tools\MSVC\14.44.35207\include\xtree
; File C:\Program Files\Microsoft Visual Studio\2022\Professional\VC\Tools\MSVC\14.44.35207\include\xmemory
; File C:\Program Files\Microsoft Visual Studio\2022\Professional\VC\Tools\MSVC\14.44.35207\include\xtree
; File C:\Program Files\Microsoft Visual Studio\2022\Professional\VC\Tools\MSVC\14.44.35207\include\xmemory
; File C:\Program Files\Microsoft Visual Studio\2022\Professional\VC\Tools\MSVC\14.44.35207\include\xtree
; File C:\Program Files\Microsoft Visual Studio\2022\Professional\VC\Tools\MSVC\14.44.35207\include\utility
; File C:\Program Files\Microsoft Visual Studio\2022\Professional\VC\Tools\MSVC\14.44.35207\include\xtree
; File C:\Program Files\Microsoft Visual Studio\2022\Professional\VC\Tools\MSVC\14.44.35207\include\utility
; File C:\Program Files\Microsoft Visual Studio\2022\Professional\VC\Tools\MSVC\14.44.35207\include\xtree
; File C:\Program Files\Microsoft Visual Studio\2022\Professional\VC\Tools\MSVC\14.44.35207\include\type_traits
; File C:\Program Files\Microsoft Visual Studio\2022\Professional\VC\Tools\MSVC\14.44.35207\include\xtree
; File C:\Program Files\Microsoft Visual Studio\2022\Professional\VC\Tools\MSVC\14.44.35207\include\xmemory
; File C:\Program Files\Microsoft Visual Studio\2022\Professional\VC\Tools\MSVC\14.44.35207\include\xtree
; File C:\Program Files\Microsoft Visual Studio\2022\Professional\VC\Tools\MSVC\14.44.35207\include\xmemory
; File C:\Program Files\Microsoft Visual Studio\2022\Professional\VC\Tools\MSVC\14.44.35207\include\xtree
; File C:\Program Files\Microsoft Visual Studio\2022\Professional\VC\Tools\MSVC\14.44.35207\include\utility
; File C:\Program Files\Microsoft Visual Studio\2022\Professional\VC\Tools\MSVC\14.44.35207\include\xtree
; File C:\Program Files\Microsoft Visual Studio\2022\Professional\VC\Tools\MSVC\14.44.35207\include\utility
; File C:\Program Files\Microsoft Visual Studio\2022\Professional\VC\Tools\MSVC\14.44.35207\include\xtree
; File C:\Program Files\Microsoft Visual Studio\2022\Professional\VC\Tools\MSVC\14.44.35207\include\type_traits
; File C:\Program Files\Microsoft Visual Studio\2022\Professional\VC\Tools\MSVC\14.44.35207\include\xtree
; File C:\Program Files\Microsoft Visual Studio\2022\Professional\VC\Tools\MSVC\14.44.35207\include\xmemory
; File C:\Program Files\Microsoft Visual Studio\2022\Professional\VC\Tools\MSVC\14.44.35207\include\xtree
; File C:\Program Files\Microsoft Visual Studio\2022\Professional\VC\Tools\MSVC\14.44.35207\include\xmemory
; File C:\Program Files\Microsoft Visual Studio\2022\Professional\VC\Tools\MSVC\14.44.35207\include\xtree
; File C:\Program Files\Microsoft Visual Studio\2022\Professional\VC\Tools\MSVC\14.44.35207\include\utility
; File C:\Program Files\Microsoft Visual Studio\2022\Professional\VC\Tools\MSVC\14.44.35207\include\xtree
; File C:\Program Files\Microsoft Visual Studio\2022\Professional\VC\Tools\MSVC\14.44.35207\include\utility
; File C:\Program Files\Microsoft Visual Studio\2022\Professional\VC\Tools\MSVC\14.44.35207\include\xtree
; File C:\Program Files\Microsoft Visual Studio\2022\Professional\VC\Tools\MSVC\14.44.35207\include\type_traits
; File C:\Program Files\Microsoft Visual Studio\2022\Professional\VC\Tools\MSVC\14.44.35207\include\xtree
; File C:\Program Files\Microsoft Visual Studio\2022\Professional\VC\Tools\MSVC\14.44.35207\include\xmemory
; File C:\Program Files\Microsoft Visual Studio\2022\Professional\VC\Tools\MSVC\14.44.35207\include\xtree
; File C:\Program Files\Microsoft Visual Studio\2022\Professional\VC\Tools\MSVC\14.44.35207\include\xmemory
; File C:\Program Files\Microsoft Visual Studio\2022\Professional\VC\Tools\MSVC\14.44.35207\include\xtree
; File C:\Program Files\Microsoft Visual Studio\2022\Professional\VC\Tools\MSVC\14.44.35207\include\utility
; File C:\Program Files\Microsoft Visual Studio\2022\Professional\VC\Tools\MSVC\14.44.35207\include\xtree
; File C:\Program Files\Microsoft Visual Studio\2022\Professional\VC\Tools\MSVC\14.44.35207\include\utility
; File C:\Program Files\Microsoft Visual Studio\2022\Professional\VC\Tools\MSVC\14.44.35207\include\xtree
; File C:\Program Files\Microsoft Visual Studio\2022\Professional\VC\Tools\MSVC\14.44.35207\include\type_traits
; File C:\Program Files\Microsoft Visual Studio\2022\Professional\VC\Tools\MSVC\14.44.35207\include\xtree
; File C:\Program Files\Microsoft Visual Studio\2022\Professional\VC\Tools\MSVC\14.44.35207\include\xmemory
; File C:\Program Files\Microsoft Visual Studio\2022\Professional\VC\Tools\MSVC\14.44.35207\include\xtree
; File C:\Program Files\Microsoft Visual Studio\2022\Professional\VC\Tools\MSVC\14.44.35207\include\xmemory
; File C:\Program Files\Microsoft Visual Studio\2022\Professional\VC\Tools\MSVC\14.44.35207\include\xtree
; File C:\IAGOS\server\v18\Source\Source\DatabaseServer\DPCoreSrvr.cpp
; File C:\Program Files\Microsoft Visual Studio\2022\Professional\VC\Tools\MSVC\14.44.35207\include\utility
; File C:\IAGOS\server\v18\Source\Source\DatabaseServer\DPCoreSrvr.cpp
; File C:\Program Files\Microsoft Visual Studio\2022\Professional\VC\Tools\MSVC\14.44.35207\include\utility
; File C:\IAGOS\server\v18\Source\Source\DatabaseServer\DPCoreSrvr.cpp
; File C:\Program Files\Microsoft Visual Studio\2022\Professional\VC\Tools\MSVC\14.44.35207\include\utility
; File C:\IAGOS\server\v18\Source\Source\DatabaseServer\DPCoreSrvr.cpp
; File C:\Program Files\Microsoft Visual Studio\2022\Professional\VC\Tools\MSVC\14.44.35207\include\utility
; File C:\IAGOS\server\v18\Source\Source\DatabaseServer\DPCoreSrvr.cpp
; File C:\Program Files\Microsoft Visual Studio\2022\Professional\VC\Tools\MSVC\14.44.35207\include\utility
; File C:\IAGOS\server\v18\Source\Source\DatabaseServer\DPCoreSrvr.cpp
; File C:\Program Files\Microsoft Visual Studio\2022\Professional\VC\Tools\MSVC\14.44.35207\include\utility
; File C:\IAGOS\server\v18\Source\Source\DatabaseServer\DPCoreSrvr.cpp
; File C:\Program Files\Microsoft Visual Studio\2022\Professional\VC\Tools\MSVC\14.44.35207\include\utility
; File C:\IAGOS\server\v18\Source\Source\DatabaseServer\DPCoreSrvr.cpp
; File C:\Program Files\Microsoft Visual Studio\2022\Professional\VC\Tools\MSVC\14.44.35207\include\utility
; File C:\IAGOS\server\v18\Source\Source\DatabaseServer\DPCoreSrvr.cpp
; File C:\Program Files\Microsoft Visual Studio\2022\Professional\VC\Tools\MSVC\14.44.35207\include\utility
; File C:\IAGOS\server\v18\Source\Source\DatabaseServer\DPCoreSrvr.cpp
; File C:\Program Files\Microsoft Visual Studio\2022\Professional\VC\Tools\MSVC\14.44.35207\include\utility
; File C:\IAGOS\server\v18\Source\Source\DatabaseServer\DPCoreSrvr.cpp
; File C:\Program Files\Microsoft Visual Studio\2022\Professional\VC\Tools\MSVC\14.44.35207\include\utility
; File C:\IAGOS\server\v18\Source\Source\DatabaseServer\DPCoreSrvr.cpp
; File C:\Program Files\Microsoft Visual Studio\2022\Professional\VC\Tools\MSVC\14.44.35207\include\utility
; File C:\IAGOS\server\v18\Source\Source\DatabaseServer\DPCoreSrvr.cpp
; File C:\Program Files\Microsoft Visual Studio\2022\Professional\VC\Tools\MSVC\14.44.35207\include\utility
; File C:\IAGOS\server\v18\Source\Source\DatabaseServer\DPCoreSrvr.cpp
; File C:\Program Files\Microsoft Visual Studio\2022\Professional\VC\Tools\MSVC\14.44.35207\include\utility
; File C:\IAGOS\server\v18\Source\Source\DatabaseServer\DPCoreSrvr.cpp
; File C:\Program Files\Microsoft Visual Studio\2022\Professional\VC\Tools\MSVC\14.44.35207\include\utility
; File C:\IAGOS\server\v18\Source\Source\DatabaseServer\DPCoreSrvr.cpp
; File C:\Program Files\Microsoft Visual Studio\2022\Professional\VC\Tools\MSVC\14.44.35207\include\utility
; File C:\IAGOS\server\v18\Source\Source\DatabaseServer\DPCoreSrvr.cpp
; File C:\Program Files\Microsoft Visual Studio\2022\Professional\VC\Tools\MSVC\14.44.35207\include\utility
; File C:\IAGOS\server\v18\Source\Source\DatabaseServer\DPCoreSrvr.cpp
; File C:\Program Files\Microsoft Visual Studio\2022\Professional\VC\Tools\MSVC\14.44.35207\include\utility
; File C:\IAGOS\server\v18\Source\Source\DatabaseServer\DPCoreSrvr.cpp
; File C:\Program Files\Microsoft Visual Studio\2022\Professional\VC\Tools\MSVC\14.44.35207\include\utility
; File C:\IAGOS\server\v18\Source\Source\DatabaseServer\DPCoreSrvr.cpp
; File C:\Program Files\Microsoft Visual Studio\2022\Professional\VC\Tools\MSVC\14.44.35207\include\utility
; File C:\IAGOS\server\v18\Source\Source\DatabaseServer\DPCoreSrvr.cpp
; File C:\Program Files\Microsoft Visual Studio\2022\Professional\VC\Tools\MSVC\14.44.35207\include\utility
; File C:\IAGOS\server\v18\Source\Source\DatabaseServer\DPCoreSrvr.cpp
; File C:\Program Files\Microsoft Visual Studio\2022\Professional\VC\Tools\MSVC\14.44.35207\include\utility
; File C:\IAGOS\server\v18\Source\Source\DatabaseServer\DPCoreSrvr.cpp
; File C:\Program Files\Microsoft Visual Studio\2022\Professional\VC\Tools\MSVC\14.44.35207\include\utility
; File C:\IAGOS\server\v18\Source\Source\DatabaseServer\DPCoreSrvr.cpp
; File C:\Program Files\Microsoft Visual Studio\2022\Professional\VC\Tools\MSVC\14.44.35207\include\utility
; File C:\IAGOS\server\v18\Source\Source\DatabaseServer\DPCoreSrvr.cpp
; File C:\Program Files\Microsoft Visual Studio\2022\Professional\VC\Tools\MSVC\14.44.35207\include\utility
; File C:\IAGOS\server\v18\Source\Source\DatabaseServer\DPCoreSrvr.cpp
; File C:\Program Files\Microsoft Visual Studio\2022\Professional\VC\Tools\MSVC\14.44.35207\include\utility
; File C:\IAGOS\server\v18\Source\Source\DatabaseServer\DPCoreSrvr.cpp
; File C:\Program Files\Microsoft Visual Studio\2022\Professional\VC\Tools\MSVC\14.44.35207\include\utility
; File C:\IAGOS\server\v18\Source\Source\DatabaseServer\DPCoreSrvr.cpp
; File C:\Program Files\Microsoft Visual Studio\2022\Professional\VC\Tools\MSVC\14.44.35207\include\utility
; File C:\IAGOS\server\v18\Source\Source\DatabaseServer\DPCoreSrvr.cpp
; File C:\Program Files\Microsoft Visual Studio\2022\Professional\VC\Tools\MSVC\14.44.35207\include\utility
; File C:\IAGOS\server\v18\Source\Source\DatabaseServer\DPCoreSrvr.cpp
; File C:\Program Files\Microsoft Visual Studio\2022\Professional\VC\Tools\MSVC\14.44.35207\include\utility
; File C:\IAGOS\server\v18\Source\Source\DatabaseServer\DPCoreSrvr.cpp
; File C:\Program Files\Microsoft Visual Studio\2022\Professional\VC\Tools\MSVC\14.44.35207\include\utility
; File C:\IAGOS\server\v18\Source\Source\DatabaseServer\DPCoreSrvr.cpp
; File C:\Program Files\Microsoft Visual Studio\2022\Professional\VC\Tools\MSVC\14.44.35207\include\utility
; File C:\IAGOS\server\v18\Source\Source\DatabaseServer\DPCoreSrvr.cpp
; File C:\Program Files\Microsoft Visual Studio\2022\Professional\VC\Tools\MSVC\14.44.35207\include\utility
; File C:\IAGOS\server\v18\Source\Source\DatabaseServer\DPCoreSrvr.cpp
; File C:\Program Files\Microsoft Visual Studio\2022\Professional\VC\Tools\MSVC\14.44.35207\include\utility
; File C:\IAGOS\server\v18\Source\Source\DatabaseServer\DPCoreSrvr.cpp
; File C:\Program Files\Microsoft Visual Studio\2022\Professional\VC\Tools\MSVC\14.44.35207\include\utility
; File C:\IAGOS\server\v18\Source\Source\DatabaseServer\DPCoreSrvr.cpp
; File C:\Program Files\Microsoft Visual Studio\2022\Professional\VC\Tools\MSVC\14.44.35207\include\utility
; File C:\IAGOS\server\v18\Source\Source\DatabaseServer\DPCoreSrvr.cpp
; File C:\Program Files\Microsoft Visual Studio\2022\Professional\VC\Tools\MSVC\14.44.35207\include\utility
; File C:\IAGOS\server\v18\Source\Source\DatabaseServer\DPCoreSrvr.cpp
; File C:\Program Files\Microsoft Visual Studio\2022\Professional\VC\Tools\MSVC\14.44.35207\include\utility
; File C:\IAGOS\server\v18\Source\Source\DatabaseServer\DPCoreSrvr.cpp
; File C:\Program Files\Microsoft Visual Studio\2022\Professional\VC\Tools\MSVC\14.44.35207\include\xtree
; File C:\IAGOS\server\v18\Source\Source\DatabaseServer\DPCoreSrvr.cpp
;	COMDAT ??0CDPCoreSrvr@@QAE@XZ
_TEXT	SEGMENT
$T2 = -48						; size = 12
$T3 = -48						; size = 12
$T4 = -48						; size = 12
$T5 = -48						; size = 12
$T6 = -48						; size = 12
$T7 = -48						; size = 12
$T8 = -48						; size = 12
$T9 = -48						; size = 12
$T10 = -48						; size = 12
$T11 = -48						; size = 12
__Loc$12 = -36						; size = 12
__Loc$13 = -36						; size = 12
__Loc$14 = -36						; size = 12
__Loc$15 = -36						; size = 12
__Loc$16 = -36						; size = 12
__Loc$17 = -36						; size = 12
__Loc$18 = -36						; size = 12
__Loc$19 = -36						; size = 12
__Loc$20 = -36						; size = 12
__Loc$21 = -36						; size = 12
$T22 = -32						; size = 8
$T23 = -32						; size = 8
$T24 = -32						; size = 8
$T25 = -32						; size = 8
$T26 = -32						; size = 8
$T27 = -32						; size = 8
$T28 = -32						; size = 8
$T29 = -32						; size = 8
$T30 = -32						; size = 8
$T31 = -32						; size = 8
$T32 = -32						; size = 8
$T33 = -32						; size = 8
$T34 = -32						; size = 8
$T35 = -32						; size = 8
$T36 = -32						; size = 8
$T37 = -32						; size = 8
$T38 = -32						; size = 8
$T39 = -32						; size = 8
$T40 = -32						; size = 8
$T41 = -24						; size = 8
$T42 = -24						; size = 8
$T43 = -24						; size = 8
$T44 = -24						; size = 8
$T45 = -24						; size = 8
$T46 = -24						; size = 8
$T47 = -24						; size = 8
$T48 = -24						; size = 8
$T49 = -24						; size = 8
$T50 = -24						; size = 8
$T51 = -24						; size = 8
$T52 = -24						; size = 8
$T53 = -24						; size = 8
$T54 = -24						; size = 8
$T55 = -24						; size = 8
$T56 = -24						; size = 8
$T57 = -24						; size = 8
$T58 = -24						; size = 8
$T59 = -24						; size = 8
$T60 = -24						; size = 8
$T61 = -24						; size = 8
$T62 = -24						; size = 8
$T63 = -24						; size = 8
$T64 = -24						; size = 8
$T65 = -24						; size = 8
$T66 = -24						; size = 8
$T67 = -24						; size = 8
$T68 = -24						; size = 8
$T69 = -24						; size = 8
$T70 = -24						; size = 8
$T71 = -24						; size = 8
$T72 = -24						; size = 8
$T73 = -24						; size = 8
$T74 = -24						; size = 8
$T75 = -24						; size = 8
$T76 = -24						; size = 8
$T77 = -24						; size = 8
$T78 = -24						; size = 8
$T79 = -24						; size = 8
_this$ = -20						; size = 4
_this$ = -16						; size = 4
__$EHRec$ = -12						; size = 12
??0CDPCoreSrvr@@QAE@XZ PROC				; CDPCoreSrvr::CDPCoreSrvr, COMDAT
; _this$ = ecx

; 15   : {

  00000	55		 push	 ebp
  00001	8b ec		 mov	 ebp, esp
  00003	6a ff		 push	 -1
  00005	68 00 00 00 00	 push	 __ehhandler$??0CDPCoreSrvr@@QAE@XZ
  0000a	64 a1 00 00 00
	00		 mov	 eax, DWORD PTR fs:0
  00010	50		 push	 eax
  00011	83 ec 24	 sub	 esp, 36			; 00000024H
  00014	53		 push	 ebx
  00015	56		 push	 esi
  00016	57		 push	 edi
  00017	a1 00 00 00 00	 mov	 eax, DWORD PTR ___security_cookie
  0001c	33 c5		 xor	 eax, ebp
  0001e	50		 push	 eax
  0001f	8d 45 f4	 lea	 eax, DWORD PTR __$EHRec$[ebp]
  00022	64 a3 00 00 00
	00		 mov	 DWORD PTR fs:0, eax
  00028	8b d9		 mov	 ebx, ecx
  0002a	89 5d f0	 mov	 DWORD PTR _this$[ebp], ebx
  0002d	e8 00 00 00 00	 call	 ??0CDPMng@@QAE@XZ	; CDPMng::CDPMng
  00032	8d 7b 10	 lea	 edi, DWORD PTR [ebx+16]
  00035	c7 03 00 00 00
	00		 mov	 DWORD PTR [ebx], OFFSET ??_7CDPCoreSrvr@@6B@
  0003b	89 7d ec	 mov	 DWORD PTR _this$[ebp], edi
; File C:\Program Files\Microsoft Visual Studio\2022\Professional\VC\Tools\MSVC\14.44.35207\include\xmemory

; 136  :         return ::operator new(_Bytes);

  0003e	6a 18		 push	 24			; 00000018H
; File C:\IAGOS\server\v18\Source\Source\DatabaseServer\DPCoreSrvr.cpp

; 15   : {

  00040	c7 45 fc 00 00
	00 00		 mov	 DWORD PTR __$EHRec$[ebp+8], 0
; File C:\Program Files\Microsoft Visual Studio\2022\Professional\VC\Tools\MSVC\14.44.35207\include\xtree

; 450  :     _Tree_val() noexcept : _Myhead(), _Mysize(0) {}

  00047	c7 07 00 00 00
	00		 mov	 DWORD PTR [edi], 0
  0004d	c7 47 04 00 00
	00 00		 mov	 DWORD PTR [edi+4], 0
; File C:\Program Files\Microsoft Visual Studio\2022\Professional\VC\Tools\MSVC\14.44.35207\include\xmemory

; 136  :         return ::operator new(_Bytes);

  00054	e8 00 00 00 00	 call	 ??2@YAPAXI@Z		; operator new
  00059	83 c4 04	 add	 esp, 4
; File C:\Program Files\Microsoft Visual Studio\2022\Professional\VC\Tools\MSVC\14.44.35207\include\xtree

; 346  :         _Construct_in_place(_Pnode->_Left, _Pnode);

  0005c	89 00		 mov	 DWORD PTR [eax], eax

; 347  :         _Construct_in_place(_Pnode->_Parent, _Pnode);

  0005e	89 40 04	 mov	 DWORD PTR [eax+4], eax

; 348  :         _Construct_in_place(_Pnode->_Right, _Pnode);

  00061	89 40 08	 mov	 DWORD PTR [eax+8], eax

; 349  :         _Pnode->_Color = _Black;

  00064	66 c7 40 0c 01
	01		 mov	 WORD PTR [eax+12], 257	; 00000101H

; 1957 :         _Scary->_Myhead = _Node::_Buyheadnode(_Getal());

  0006a	89 07		 mov	 DWORD PTR [edi], eax

; 1017 :             _Loc                = _Find_lower_bound(_Keyval);

  0006c	8d 45 e8	 lea	 eax, DWORD PTR $T45[ebp]
; File C:\IAGOS\server\v18\Source\Source\DatabaseServer\DPCoreSrvr.cpp

; 15   : {

  0006f	c6 45 fc 01	 mov	 BYTE PTR __$EHRec$[ebp+8], 1
; File C:\Program Files\Microsoft Visual Studio\2022\Professional\VC\Tools\MSVC\14.44.35207\include\xtree

; 1017 :             _Loc                = _Find_lower_bound(_Keyval);

  00073	50		 push	 eax
  00074	8d 45 d0	 lea	 eax, DWORD PTR $T3[ebp]
; File C:\Program Files\Microsoft Visual Studio\2022\Professional\VC\Tools\MSVC\14.44.35207\include\utility

; 274  :         : first(_STD forward<_Other1>(_Val1)), second(_STD forward<_Other2>(_Val2)) {

  00077	c7 45 e8 00 00
	00 70		 mov	 DWORD PTR $T45[ebp], 1879048192 ; 70000000H
; File C:\Program Files\Microsoft Visual Studio\2022\Professional\VC\Tools\MSVC\14.44.35207\include\xtree

; 1017 :             _Loc                = _Find_lower_bound(_Keyval);

  0007e	50		 push	 eax
  0007f	8b cf		 mov	 ecx, edi
; File C:\Program Files\Microsoft Visual Studio\2022\Professional\VC\Tools\MSVC\14.44.35207\include\utility

; 274  :         : first(_STD forward<_Other1>(_Val1)), second(_STD forward<_Other2>(_Val2)) {

  00081	c7 45 ec 00 00
	00 00		 mov	 DWORD PTR $T45[ebp+4], OFFSET ?OnAddMessenger@CDPCoreSrvr@@AAEXAAVCAr@@PAEK@Z ; CDPCoreSrvr::OnAddMessenger
; File C:\Program Files\Microsoft Visual Studio\2022\Professional\VC\Tools\MSVC\14.44.35207\include\xtree

; 1017 :             _Loc                = _Find_lower_bound(_Keyval);

  00088	e8 00 00 00 00	 call	 ??$_Find_lower_bound@K@?$_Tree@V?$_Tmap_traits@KP8CDPCoreSrvr@@AEXAAVCAr@@PAEK@ZU?$less@K@std@@V?$allocator@U?$pair@$$CBKP8CDPCoreSrvr@@AEXAAVCAr@@PAEK@Z@std@@@4@$0A@@std@@@std@@IBE?AU?$_Tree_find_result@PAU?$_Tree_node@U?$pair@$$CBKP8CDPCoreSrvr@@AEXAAVCAr@@PAEK@Z@std@@PAX@std@@@1@ABK@Z ; std::_Tree<std::_Tmap_traits<unsigned long,void (__thiscall CDPCoreSrvr::*)(CAr &,unsigned char *,unsigned long),std::less<unsigned long>,std::allocator<std::pair<unsigned long const ,void (__thiscall CDPCoreSrvr::*)(CAr &,unsigned char *,unsigned long)> >,0> >::_Find_lower_bound<unsigned long>
  0008d	f3 0f 7e 00	 movq	 xmm0, QWORD PTR [eax]
  00091	8b 40 08	 mov	 eax, DWORD PTR [eax+8]
  00094	66 0f d6 45 dc	 movq	 QWORD PTR __Loc$12[ebp], xmm0

; 1624 :         return !_Bound->_Isnil && !_DEBUG_LT_PRED(_Getcomp(), _Keyval, _Traits::_Kfn(_Bound->_Myval));

  00099	80 78 0d 00	 cmp	 BYTE PTR [eax+13], 0
  0009d	75 09		 jne	 SHORT $LN51@CDPCoreSrv
; File C:\Program Files\Microsoft Visual Studio\2022\Professional\VC\Tools\MSVC\14.44.35207\include\type_traits

; 2380 :         return _Left < _Right;

  0009f	81 78 10 00 00
	00 70		 cmp	 DWORD PTR [eax+16], 1879048192 ; 70000000H
; File C:\Program Files\Microsoft Visual Studio\2022\Professional\VC\Tools\MSVC\14.44.35207\include\xtree

; 1624 :         return !_Bound->_Isnil && !_DEBUG_LT_PRED(_Getcomp(), _Keyval, _Traits::_Kfn(_Bound->_Myval));

  000a6	76 55		 jbe	 SHORT $LN126@CDPCoreSrv
$LN51@CDPCoreSrv:

; 1648 :         if (max_size() == _Get_scary()->_Mysize) {

  000a8	81 7f 04 aa aa
	aa 0a		 cmp	 DWORD PTR [edi+4], 178956970 ; 0aaaaaaaH
  000af	0f 84 78 07 00
	00		 je	 $LN1117@CDPCoreSrv

; 1023 :             _Inserted = _Tree_temp_node<_Alnode>(_Getal(), _Scary->_Myhead, _STD forward<_Valtys>(_Vals)...)._Release();

  000b5	8b 37		 mov	 esi, DWORD PTR [edi]
; File C:\Program Files\Microsoft Visual Studio\2022\Professional\VC\Tools\MSVC\14.44.35207\include\xmemory

; 1160 :     _CONSTEXPR20 explicit _Alloc_construct_ptr(_Alloc& _Al_) : _Al(_Al_), _Ptr(nullptr) {}

  000b7	89 7d e8	 mov	 DWORD PTR $T52[ebp], edi

; 136  :         return ::operator new(_Bytes);

  000ba	6a 18		 push	 24			; 00000018H
; File C:\Program Files\Microsoft Visual Studio\2022\Professional\VC\Tools\MSVC\14.44.35207\include\xtree

; 808  :     explicit _Tree_temp_node_alloc(_Alnode& _Al_) : _Alloc_construct_ptr<_Alnode>(_Al_) {

  000bc	c6 45 fc 02	 mov	 BYTE PTR __$EHRec$[ebp+8], 2
; File C:\Program Files\Microsoft Visual Studio\2022\Professional\VC\Tools\MSVC\14.44.35207\include\xmemory

; 1167 :         _Ptr = nullptr; // if allocate throws, prevents double-free

  000c0	c7 45 ec 00 00
	00 00		 mov	 DWORD PTR $T52[ebp+4], 0

; 136  :         return ::operator new(_Bytes);

  000c7	e8 00 00 00 00	 call	 ??2@YAPAXI@Z		; operator new
  000cc	83 c4 04	 add	 esp, 4
; File C:\Program Files\Microsoft Visual Studio\2022\Professional\VC\Tools\MSVC\14.44.35207\include\xtree

; 810  :     }

  000cf	c6 45 fc 01	 mov	 BYTE PTR __$EHRec$[ebp+8], 1

; 1042 :         return {_Scary->_Insert_node(_Loc._Location, _Inserted), true};

  000d3	8b cf		 mov	 ecx, edi

; 830  :         _Alnode_traits::construct(this->_Al, _STD addressof(this->_Ptr->_Myval), _STD forward<_Valtys>(_Vals)...);

  000d5	c7 40 10 00 00
	00 70		 mov	 DWORD PTR [eax+16], 1879048192 ; 70000000H

; 1042 :         return {_Scary->_Insert_node(_Loc._Location, _Inserted), true};

  000dc	50		 push	 eax
  000dd	ff 75 e0	 push	 DWORD PTR __Loc$12[ebp+4]

; 830  :         _Alnode_traits::construct(this->_Al, _STD addressof(this->_Ptr->_Myval), _STD forward<_Valtys>(_Vals)...);

  000e0	c7 40 14 00 00
	00 00		 mov	 DWORD PTR [eax+20], OFFSET ?OnAddMessenger@CDPCoreSrvr@@AAEXAAVCAr@@PAEK@Z ; CDPCoreSrvr::OnAddMessenger

; 1042 :         return {_Scary->_Insert_node(_Loc._Location, _Inserted), true};

  000e7	ff 75 dc	 push	 DWORD PTR __Loc$12[ebp]

; 831  :         _Construct_in_place(this->_Ptr->_Left, _Myhead);

  000ea	89 30		 mov	 DWORD PTR [eax], esi

; 832  :         _Construct_in_place(this->_Ptr->_Parent, _Myhead);

  000ec	89 70 04	 mov	 DWORD PTR [eax+4], esi

; 833  :         _Construct_in_place(this->_Ptr->_Right, _Myhead);

  000ef	89 70 08	 mov	 DWORD PTR [eax+8], esi

; 834  :         this->_Ptr->_Color = _Red;

  000f2	66 c7 40 0c 00
	00		 mov	 WORD PTR [eax+12], 0

; 1042 :         return {_Scary->_Insert_node(_Loc._Location, _Inserted), true};

  000f8	e8 00 00 00 00	 call	 ?_Insert_node@?$_Tree_val@U?$_Tree_simple_types@U?$pair@$$CBKP8CDPCoreSrvr@@AEXAAVCAr@@PAEK@Z@std@@@std@@@std@@QAEPAU?$_Tree_node@U?$pair@$$CBKP8CDPCoreSrvr@@AEXAAVCAr@@PAEK@Z@std@@PAX@2@U?$_Tree_id@PAU?$_Tree_node@U?$pair@$$CBKP8CDPCoreSrvr@@AEXAAVCAr@@PAEK@Z@std@@PAX@std@@@2@QAU32@@Z ; std::_Tree_val<std::_Tree_simple_types<std::pair<unsigned long const ,void (__thiscall CDPCoreSrvr::*)(CAr &,unsigned char *,unsigned long)> > >::_Insert_node
$LN126@CDPCoreSrv:

; 1017 :             _Loc                = _Find_lower_bound(_Keyval);

  000fd	8d 45 e8	 lea	 eax, DWORD PTR $T47[ebp]
; File C:\Program Files\Microsoft Visual Studio\2022\Professional\VC\Tools\MSVC\14.44.35207\include\utility

; 274  :         : first(_STD forward<_Other1>(_Val1)), second(_STD forward<_Other2>(_Val2)) {

  00100	c7 45 e8 01 00
	00 70		 mov	 DWORD PTR $T47[ebp], 1879048193 ; 70000001H
; File C:\Program Files\Microsoft Visual Studio\2022\Professional\VC\Tools\MSVC\14.44.35207\include\xtree

; 1017 :             _Loc                = _Find_lower_bound(_Keyval);

  00107	50		 push	 eax
  00108	8d 45 d0	 lea	 eax, DWORD PTR $T4[ebp]
; File C:\Program Files\Microsoft Visual Studio\2022\Professional\VC\Tools\MSVC\14.44.35207\include\utility

; 274  :         : first(_STD forward<_Other1>(_Val1)), second(_STD forward<_Other2>(_Val2)) {

  0010b	c7 45 ec 00 00
	00 00		 mov	 DWORD PTR $T47[ebp+4], OFFSET ?OnDeleteMessenger@CDPCoreSrvr@@AAEXAAVCAr@@PAEK@Z ; CDPCoreSrvr::OnDeleteMessenger
; File C:\Program Files\Microsoft Visual Studio\2022\Professional\VC\Tools\MSVC\14.44.35207\include\xtree

; 1017 :             _Loc                = _Find_lower_bound(_Keyval);

  00112	50		 push	 eax
  00113	8b cf		 mov	 ecx, edi
  00115	e8 00 00 00 00	 call	 ??$_Find_lower_bound@K@?$_Tree@V?$_Tmap_traits@KP8CDPCoreSrvr@@AEXAAVCAr@@PAEK@ZU?$less@K@std@@V?$allocator@U?$pair@$$CBKP8CDPCoreSrvr@@AEXAAVCAr@@PAEK@Z@std@@@4@$0A@@std@@@std@@IBE?AU?$_Tree_find_result@PAU?$_Tree_node@U?$pair@$$CBKP8CDPCoreSrvr@@AEXAAVCAr@@PAEK@Z@std@@PAX@std@@@1@ABK@Z ; std::_Tree<std::_Tmap_traits<unsigned long,void (__thiscall CDPCoreSrvr::*)(CAr &,unsigned char *,unsigned long),std::less<unsigned long>,std::allocator<std::pair<unsigned long const ,void (__thiscall CDPCoreSrvr::*)(CAr &,unsigned char *,unsigned long)> >,0> >::_Find_lower_bound<unsigned long>
  0011a	f3 0f 7e 00	 movq	 xmm0, QWORD PTR [eax]
  0011e	8b 40 08	 mov	 eax, DWORD PTR [eax+8]
  00121	66 0f d6 45 dc	 movq	 QWORD PTR __Loc$13[ebp], xmm0

; 1624 :         return !_Bound->_Isnil && !_DEBUG_LT_PRED(_Getcomp(), _Keyval, _Traits::_Kfn(_Bound->_Myval));

  00126	80 78 0d 00	 cmp	 BYTE PTR [eax+13], 0
  0012a	75 09		 jne	 SHORT $LN152@CDPCoreSrv
; File C:\Program Files\Microsoft Visual Studio\2022\Professional\VC\Tools\MSVC\14.44.35207\include\type_traits

; 2380 :         return _Left < _Right;

  0012c	81 78 10 01 00
	00 70		 cmp	 DWORD PTR [eax+16], 1879048193 ; 70000001H
; File C:\Program Files\Microsoft Visual Studio\2022\Professional\VC\Tools\MSVC\14.44.35207\include\xtree

; 1624 :         return !_Bound->_Isnil && !_DEBUG_LT_PRED(_Getcomp(), _Keyval, _Traits::_Kfn(_Bound->_Myval));

  00133	76 55		 jbe	 SHORT $LN227@CDPCoreSrv
$LN152@CDPCoreSrv:

; 1648 :         if (max_size() == _Get_scary()->_Mysize) {

  00135	81 7f 04 aa aa
	aa 0a		 cmp	 DWORD PTR [edi+4], 178956970 ; 0aaaaaaaH
  0013c	0f 84 eb 06 00
	00		 je	 $LN1117@CDPCoreSrv

; 1023 :             _Inserted = _Tree_temp_node<_Alnode>(_Getal(), _Scary->_Myhead, _STD forward<_Valtys>(_Vals)...)._Release();

  00142	8b 37		 mov	 esi, DWORD PTR [edi]
; File C:\Program Files\Microsoft Visual Studio\2022\Professional\VC\Tools\MSVC\14.44.35207\include\xmemory

; 1160 :     _CONSTEXPR20 explicit _Alloc_construct_ptr(_Alloc& _Al_) : _Al(_Al_), _Ptr(nullptr) {}

  00144	89 7d e8	 mov	 DWORD PTR $T55[ebp], edi

; 136  :         return ::operator new(_Bytes);

  00147	6a 18		 push	 24			; 00000018H
; File C:\Program Files\Microsoft Visual Studio\2022\Professional\VC\Tools\MSVC\14.44.35207\include\xtree

; 808  :     explicit _Tree_temp_node_alloc(_Alnode& _Al_) : _Alloc_construct_ptr<_Alnode>(_Al_) {

  00149	c6 45 fc 03	 mov	 BYTE PTR __$EHRec$[ebp+8], 3
; File C:\Program Files\Microsoft Visual Studio\2022\Professional\VC\Tools\MSVC\14.44.35207\include\xmemory

; 1167 :         _Ptr = nullptr; // if allocate throws, prevents double-free

  0014d	c7 45 ec 00 00
	00 00		 mov	 DWORD PTR $T55[ebp+4], 0

; 136  :         return ::operator new(_Bytes);

  00154	e8 00 00 00 00	 call	 ??2@YAPAXI@Z		; operator new
  00159	83 c4 04	 add	 esp, 4
; File C:\Program Files\Microsoft Visual Studio\2022\Professional\VC\Tools\MSVC\14.44.35207\include\xtree

; 810  :     }

  0015c	c6 45 fc 01	 mov	 BYTE PTR __$EHRec$[ebp+8], 1

; 1042 :         return {_Scary->_Insert_node(_Loc._Location, _Inserted), true};

  00160	8b cf		 mov	 ecx, edi

; 830  :         _Alnode_traits::construct(this->_Al, _STD addressof(this->_Ptr->_Myval), _STD forward<_Valtys>(_Vals)...);

  00162	c7 40 10 01 00
	00 70		 mov	 DWORD PTR [eax+16], 1879048193 ; 70000001H

; 1042 :         return {_Scary->_Insert_node(_Loc._Location, _Inserted), true};

  00169	50		 push	 eax
  0016a	ff 75 e0	 push	 DWORD PTR __Loc$13[ebp+4]

; 830  :         _Alnode_traits::construct(this->_Al, _STD addressof(this->_Ptr->_Myval), _STD forward<_Valtys>(_Vals)...);

  0016d	c7 40 14 00 00
	00 00		 mov	 DWORD PTR [eax+20], OFFSET ?OnDeleteMessenger@CDPCoreSrvr@@AAEXAAVCAr@@PAEK@Z ; CDPCoreSrvr::OnDeleteMessenger

; 1042 :         return {_Scary->_Insert_node(_Loc._Location, _Inserted), true};

  00174	ff 75 dc	 push	 DWORD PTR __Loc$13[ebp]

; 831  :         _Construct_in_place(this->_Ptr->_Left, _Myhead);

  00177	89 30		 mov	 DWORD PTR [eax], esi

; 832  :         _Construct_in_place(this->_Ptr->_Parent, _Myhead);

  00179	89 70 04	 mov	 DWORD PTR [eax+4], esi

; 833  :         _Construct_in_place(this->_Ptr->_Right, _Myhead);

  0017c	89 70 08	 mov	 DWORD PTR [eax+8], esi

; 834  :         this->_Ptr->_Color = _Red;

  0017f	66 c7 40 0c 00
	00		 mov	 WORD PTR [eax+12], 0

; 1042 :         return {_Scary->_Insert_node(_Loc._Location, _Inserted), true};

  00185	e8 00 00 00 00	 call	 ?_Insert_node@?$_Tree_val@U?$_Tree_simple_types@U?$pair@$$CBKP8CDPCoreSrvr@@AEXAAVCAr@@PAEK@Z@std@@@std@@@std@@QAEPAU?$_Tree_node@U?$pair@$$CBKP8CDPCoreSrvr@@AEXAAVCAr@@PAEK@Z@std@@PAX@2@U?$_Tree_id@PAU?$_Tree_node@U?$pair@$$CBKP8CDPCoreSrvr@@AEXAAVCAr@@PAEK@Z@std@@PAX@std@@@2@QAU32@@Z ; std::_Tree_val<std::_Tree_simple_types<std::pair<unsigned long const ,void (__thiscall CDPCoreSrvr::*)(CAr &,unsigned char *,unsigned long)> > >::_Insert_node
$LN227@CDPCoreSrv:

; 1017 :             _Loc                = _Find_lower_bound(_Keyval);

  0018a	8d 45 e8	 lea	 eax, DWORD PTR $T49[ebp]
; File C:\Program Files\Microsoft Visual Studio\2022\Professional\VC\Tools\MSVC\14.44.35207\include\utility

; 274  :         : first(_STD forward<_Other1>(_Val1)), second(_STD forward<_Other2>(_Val2)) {

  0018d	c7 45 e8 02 00
	00 70		 mov	 DWORD PTR $T49[ebp], 1879048194 ; 70000002H
; File C:\Program Files\Microsoft Visual Studio\2022\Professional\VC\Tools\MSVC\14.44.35207\include\xtree

; 1017 :             _Loc                = _Find_lower_bound(_Keyval);

  00194	50		 push	 eax
  00195	8d 45 d0	 lea	 eax, DWORD PTR $T5[ebp]
; File C:\Program Files\Microsoft Visual Studio\2022\Professional\VC\Tools\MSVC\14.44.35207\include\utility

; 274  :         : first(_STD forward<_Other1>(_Val1)), second(_STD forward<_Other2>(_Val2)) {

  00198	c7 45 ec 00 00
	00 00		 mov	 DWORD PTR $T49[ebp+4], OFFSET ?OnUpdateMessenger@CDPCoreSrvr@@AAEXAAVCAr@@PAEK@Z ; CDPCoreSrvr::OnUpdateMessenger
; File C:\Program Files\Microsoft Visual Studio\2022\Professional\VC\Tools\MSVC\14.44.35207\include\xtree

; 1017 :             _Loc                = _Find_lower_bound(_Keyval);

  0019f	50		 push	 eax
  001a0	8b cf		 mov	 ecx, edi
  001a2	e8 00 00 00 00	 call	 ??$_Find_lower_bound@K@?$_Tree@V?$_Tmap_traits@KP8CDPCoreSrvr@@AEXAAVCAr@@PAEK@ZU?$less@K@std@@V?$allocator@U?$pair@$$CBKP8CDPCoreSrvr@@AEXAAVCAr@@PAEK@Z@std@@@4@$0A@@std@@@std@@IBE?AU?$_Tree_find_result@PAU?$_Tree_node@U?$pair@$$CBKP8CDPCoreSrvr@@AEXAAVCAr@@PAEK@Z@std@@PAX@std@@@1@ABK@Z ; std::_Tree<std::_Tmap_traits<unsigned long,void (__thiscall CDPCoreSrvr::*)(CAr &,unsigned char *,unsigned long),std::less<unsigned long>,std::allocator<std::pair<unsigned long const ,void (__thiscall CDPCoreSrvr::*)(CAr &,unsigned char *,unsigned long)> >,0> >::_Find_lower_bound<unsigned long>
  001a7	f3 0f 7e 00	 movq	 xmm0, QWORD PTR [eax]
  001ab	8b 40 08	 mov	 eax, DWORD PTR [eax+8]
  001ae	66 0f d6 45 dc	 movq	 QWORD PTR __Loc$14[ebp], xmm0

; 1624 :         return !_Bound->_Isnil && !_DEBUG_LT_PRED(_Getcomp(), _Keyval, _Traits::_Kfn(_Bound->_Myval));

  001b3	80 78 0d 00	 cmp	 BYTE PTR [eax+13], 0
  001b7	75 09		 jne	 SHORT $LN253@CDPCoreSrv
; File C:\Program Files\Microsoft Visual Studio\2022\Professional\VC\Tools\MSVC\14.44.35207\include\type_traits

; 2380 :         return _Left < _Right;

  001b9	81 78 10 02 00
	00 70		 cmp	 DWORD PTR [eax+16], 1879048194 ; 70000002H
; File C:\Program Files\Microsoft Visual Studio\2022\Professional\VC\Tools\MSVC\14.44.35207\include\xtree

; 1624 :         return !_Bound->_Isnil && !_DEBUG_LT_PRED(_Getcomp(), _Keyval, _Traits::_Kfn(_Bound->_Myval));

  001c0	76 55		 jbe	 SHORT $LN328@CDPCoreSrv
$LN253@CDPCoreSrv:

; 1648 :         if (max_size() == _Get_scary()->_Mysize) {

  001c2	81 7f 04 aa aa
	aa 0a		 cmp	 DWORD PTR [edi+4], 178956970 ; 0aaaaaaaH
  001c9	0f 84 5e 06 00
	00		 je	 $LN1117@CDPCoreSrv

; 1023 :             _Inserted = _Tree_temp_node<_Alnode>(_Getal(), _Scary->_Myhead, _STD forward<_Valtys>(_Vals)...)._Release();

  001cf	8b 37		 mov	 esi, DWORD PTR [edi]
; File C:\Program Files\Microsoft Visual Studio\2022\Professional\VC\Tools\MSVC\14.44.35207\include\xmemory

; 1160 :     _CONSTEXPR20 explicit _Alloc_construct_ptr(_Alloc& _Al_) : _Al(_Al_), _Ptr(nullptr) {}

  001d1	89 7d e8	 mov	 DWORD PTR $T58[ebp], edi

; 136  :         return ::operator new(_Bytes);

  001d4	6a 18		 push	 24			; 00000018H
; File C:\Program Files\Microsoft Visual Studio\2022\Professional\VC\Tools\MSVC\14.44.35207\include\xtree

; 808  :     explicit _Tree_temp_node_alloc(_Alnode& _Al_) : _Alloc_construct_ptr<_Alnode>(_Al_) {

  001d6	c6 45 fc 04	 mov	 BYTE PTR __$EHRec$[ebp+8], 4
; File C:\Program Files\Microsoft Visual Studio\2022\Professional\VC\Tools\MSVC\14.44.35207\include\xmemory

; 1167 :         _Ptr = nullptr; // if allocate throws, prevents double-free

  001da	c7 45 ec 00 00
	00 00		 mov	 DWORD PTR $T58[ebp+4], 0

; 136  :         return ::operator new(_Bytes);

  001e1	e8 00 00 00 00	 call	 ??2@YAPAXI@Z		; operator new
  001e6	83 c4 04	 add	 esp, 4
; File C:\Program Files\Microsoft Visual Studio\2022\Professional\VC\Tools\MSVC\14.44.35207\include\xtree

; 810  :     }

  001e9	c6 45 fc 01	 mov	 BYTE PTR __$EHRec$[ebp+8], 1

; 1042 :         return {_Scary->_Insert_node(_Loc._Location, _Inserted), true};

  001ed	8b cf		 mov	 ecx, edi

; 830  :         _Alnode_traits::construct(this->_Al, _STD addressof(this->_Ptr->_Myval), _STD forward<_Valtys>(_Vals)...);

  001ef	c7 40 10 02 00
	00 70		 mov	 DWORD PTR [eax+16], 1879048194 ; 70000002H

; 1042 :         return {_Scary->_Insert_node(_Loc._Location, _Inserted), true};

  001f6	50		 push	 eax
  001f7	ff 75 e0	 push	 DWORD PTR __Loc$14[ebp+4]

; 830  :         _Alnode_traits::construct(this->_Al, _STD addressof(this->_Ptr->_Myval), _STD forward<_Valtys>(_Vals)...);

  001fa	c7 40 14 00 00
	00 00		 mov	 DWORD PTR [eax+20], OFFSET ?OnUpdateMessenger@CDPCoreSrvr@@AAEXAAVCAr@@PAEK@Z ; CDPCoreSrvr::OnUpdateMessenger

; 1042 :         return {_Scary->_Insert_node(_Loc._Location, _Inserted), true};

  00201	ff 75 dc	 push	 DWORD PTR __Loc$14[ebp]

; 831  :         _Construct_in_place(this->_Ptr->_Left, _Myhead);

  00204	89 30		 mov	 DWORD PTR [eax], esi

; 832  :         _Construct_in_place(this->_Ptr->_Parent, _Myhead);

  00206	89 70 04	 mov	 DWORD PTR [eax+4], esi

; 833  :         _Construct_in_place(this->_Ptr->_Right, _Myhead);

  00209	89 70 08	 mov	 DWORD PTR [eax+8], esi

; 834  :         this->_Ptr->_Color = _Red;

  0020c	66 c7 40 0c 00
	00		 mov	 WORD PTR [eax+12], 0

; 1042 :         return {_Scary->_Insert_node(_Loc._Location, _Inserted), true};

  00212	e8 00 00 00 00	 call	 ?_Insert_node@?$_Tree_val@U?$_Tree_simple_types@U?$pair@$$CBKP8CDPCoreSrvr@@AEXAAVCAr@@PAEK@Z@std@@@std@@@std@@QAEPAU?$_Tree_node@U?$pair@$$CBKP8CDPCoreSrvr@@AEXAAVCAr@@PAEK@Z@std@@PAX@2@U?$_Tree_id@PAU?$_Tree_node@U?$pair@$$CBKP8CDPCoreSrvr@@AEXAAVCAr@@PAEK@Z@std@@PAX@std@@@2@QAU32@@Z ; std::_Tree_val<std::_Tree_simple_types<std::pair<unsigned long const ,void (__thiscall CDPCoreSrvr::*)(CAr &,unsigned char *,unsigned long)> > >::_Insert_node
$LN328@CDPCoreSrv:

; 1017 :             _Loc                = _Find_lower_bound(_Keyval);

  00217	8d 45 e8	 lea	 eax, DWORD PTR $T50[ebp]
; File C:\Program Files\Microsoft Visual Studio\2022\Professional\VC\Tools\MSVC\14.44.35207\include\utility

; 274  :         : first(_STD forward<_Other1>(_Val1)), second(_STD forward<_Other2>(_Val2)) {

  0021a	c7 45 e8 71 ff
	ff ff		 mov	 DWORD PTR $T50[ebp], -143 ; ffffff71H
; File C:\Program Files\Microsoft Visual Studio\2022\Professional\VC\Tools\MSVC\14.44.35207\include\xtree

; 1017 :             _Loc                = _Find_lower_bound(_Keyval);

  00221	50		 push	 eax
  00222	8d 45 d0	 lea	 eax, DWORD PTR $T6[ebp]
; File C:\Program Files\Microsoft Visual Studio\2022\Professional\VC\Tools\MSVC\14.44.35207\include\utility

; 274  :         : first(_STD forward<_Other1>(_Val1)), second(_STD forward<_Other2>(_Val2)) {

  00225	c7 45 ec 00 00
	00 00		 mov	 DWORD PTR $T50[ebp+4], OFFSET ?OnAddPartyName@CDPCoreSrvr@@AAEXAAVCAr@@PAEK@Z ; CDPCoreSrvr::OnAddPartyName
; File C:\Program Files\Microsoft Visual Studio\2022\Professional\VC\Tools\MSVC\14.44.35207\include\xtree

; 1017 :             _Loc                = _Find_lower_bound(_Keyval);

  0022c	50		 push	 eax
  0022d	8b cf		 mov	 ecx, edi
  0022f	e8 00 00 00 00	 call	 ??$_Find_lower_bound@K@?$_Tree@V?$_Tmap_traits@KP8CDPCoreSrvr@@AEXAAVCAr@@PAEK@ZU?$less@K@std@@V?$allocator@U?$pair@$$CBKP8CDPCoreSrvr@@AEXAAVCAr@@PAEK@Z@std@@@4@$0A@@std@@@std@@IBE?AU?$_Tree_find_result@PAU?$_Tree_node@U?$pair@$$CBKP8CDPCoreSrvr@@AEXAAVCAr@@PAEK@Z@std@@PAX@std@@@1@ABK@Z ; std::_Tree<std::_Tmap_traits<unsigned long,void (__thiscall CDPCoreSrvr::*)(CAr &,unsigned char *,unsigned long),std::less<unsigned long>,std::allocator<std::pair<unsigned long const ,void (__thiscall CDPCoreSrvr::*)(CAr &,unsigned char *,unsigned long)> >,0> >::_Find_lower_bound<unsigned long>
  00234	f3 0f 7e 00	 movq	 xmm0, QWORD PTR [eax]
  00238	8b 40 08	 mov	 eax, DWORD PTR [eax+8]
  0023b	66 0f d6 45 dc	 movq	 QWORD PTR __Loc$15[ebp], xmm0

; 1624 :         return !_Bound->_Isnil && !_DEBUG_LT_PRED(_Getcomp(), _Keyval, _Traits::_Kfn(_Bound->_Myval));

  00240	80 78 0d 00	 cmp	 BYTE PTR [eax+13], 0
  00244	75 09		 jne	 SHORT $LN354@CDPCoreSrv
; File C:\Program Files\Microsoft Visual Studio\2022\Professional\VC\Tools\MSVC\14.44.35207\include\type_traits

; 2380 :         return _Left < _Right;

  00246	81 78 10 71 ff
	ff ff		 cmp	 DWORD PTR [eax+16], -143 ; ffffff71H
; File C:\Program Files\Microsoft Visual Studio\2022\Professional\VC\Tools\MSVC\14.44.35207\include\xtree

; 1624 :         return !_Bound->_Isnil && !_DEBUG_LT_PRED(_Getcomp(), _Keyval, _Traits::_Kfn(_Bound->_Myval));

  0024d	76 55		 jbe	 SHORT $LN429@CDPCoreSrv
$LN354@CDPCoreSrv:

; 1648 :         if (max_size() == _Get_scary()->_Mysize) {

  0024f	81 7f 04 aa aa
	aa 0a		 cmp	 DWORD PTR [edi+4], 178956970 ; 0aaaaaaaH
  00256	0f 84 d1 05 00
	00		 je	 $LN1117@CDPCoreSrv

; 1023 :             _Inserted = _Tree_temp_node<_Alnode>(_Getal(), _Scary->_Myhead, _STD forward<_Valtys>(_Vals)...)._Release();

  0025c	8b 37		 mov	 esi, DWORD PTR [edi]
; File C:\Program Files\Microsoft Visual Studio\2022\Professional\VC\Tools\MSVC\14.44.35207\include\xmemory

; 1160 :     _CONSTEXPR20 explicit _Alloc_construct_ptr(_Alloc& _Al_) : _Al(_Al_), _Ptr(nullptr) {}

  0025e	89 7d e8	 mov	 DWORD PTR $T61[ebp], edi

; 136  :         return ::operator new(_Bytes);

  00261	6a 18		 push	 24			; 00000018H
; File C:\Program Files\Microsoft Visual Studio\2022\Professional\VC\Tools\MSVC\14.44.35207\include\xtree

; 808  :     explicit _Tree_temp_node_alloc(_Alnode& _Al_) : _Alloc_construct_ptr<_Alnode>(_Al_) {

  00263	c6 45 fc 05	 mov	 BYTE PTR __$EHRec$[ebp+8], 5
; File C:\Program Files\Microsoft Visual Studio\2022\Professional\VC\Tools\MSVC\14.44.35207\include\xmemory

; 1167 :         _Ptr = nullptr; // if allocate throws, prevents double-free

  00267	c7 45 ec 00 00
	00 00		 mov	 DWORD PTR $T61[ebp+4], 0

; 136  :         return ::operator new(_Bytes);

  0026e	e8 00 00 00 00	 call	 ??2@YAPAXI@Z		; operator new
  00273	83 c4 04	 add	 esp, 4
; File C:\Program Files\Microsoft Visual Studio\2022\Professional\VC\Tools\MSVC\14.44.35207\include\xtree

; 810  :     }

  00276	c6 45 fc 01	 mov	 BYTE PTR __$EHRec$[ebp+8], 1

; 1042 :         return {_Scary->_Insert_node(_Loc._Location, _Inserted), true};

  0027a	8b cf		 mov	 ecx, edi

; 830  :         _Alnode_traits::construct(this->_Al, _STD addressof(this->_Ptr->_Myval), _STD forward<_Valtys>(_Vals)...);

  0027c	c7 40 10 71 ff
	ff ff		 mov	 DWORD PTR [eax+16], -143 ; ffffff71H

; 1042 :         return {_Scary->_Insert_node(_Loc._Location, _Inserted), true};

  00283	50		 push	 eax
  00284	ff 75 e0	 push	 DWORD PTR __Loc$15[ebp+4]

; 830  :         _Alnode_traits::construct(this->_Al, _STD addressof(this->_Ptr->_Myval), _STD forward<_Valtys>(_Vals)...);

  00287	c7 40 14 00 00
	00 00		 mov	 DWORD PTR [eax+20], OFFSET ?OnAddPartyName@CDPCoreSrvr@@AAEXAAVCAr@@PAEK@Z ; CDPCoreSrvr::OnAddPartyName

; 1042 :         return {_Scary->_Insert_node(_Loc._Location, _Inserted), true};

  0028e	ff 75 dc	 push	 DWORD PTR __Loc$15[ebp]

; 831  :         _Construct_in_place(this->_Ptr->_Left, _Myhead);

  00291	89 30		 mov	 DWORD PTR [eax], esi

; 832  :         _Construct_in_place(this->_Ptr->_Parent, _Myhead);

  00293	89 70 04	 mov	 DWORD PTR [eax+4], esi

; 833  :         _Construct_in_place(this->_Ptr->_Right, _Myhead);

  00296	89 70 08	 mov	 DWORD PTR [eax+8], esi

; 834  :         this->_Ptr->_Color = _Red;

  00299	66 c7 40 0c 00
	00		 mov	 WORD PTR [eax+12], 0

; 1042 :         return {_Scary->_Insert_node(_Loc._Location, _Inserted), true};

  0029f	e8 00 00 00 00	 call	 ?_Insert_node@?$_Tree_val@U?$_Tree_simple_types@U?$pair@$$CBKP8CDPCoreSrvr@@AEXAAVCAr@@PAEK@Z@std@@@std@@@std@@QAEPAU?$_Tree_node@U?$pair@$$CBKP8CDPCoreSrvr@@AEXAAVCAr@@PAEK@Z@std@@PAX@2@U?$_Tree_id@PAU?$_Tree_node@U?$pair@$$CBKP8CDPCoreSrvr@@AEXAAVCAr@@PAEK@Z@std@@PAX@std@@@2@QAU32@@Z ; std::_Tree_val<std::_Tree_simple_types<std::pair<unsigned long const ,void (__thiscall CDPCoreSrvr::*)(CAr &,unsigned char *,unsigned long)> > >::_Insert_node
$LN429@CDPCoreSrv:

; 1017 :             _Loc                = _Find_lower_bound(_Keyval);

  002a4	8d 45 e8	 lea	 eax, DWORD PTR $T51[ebp]
; File C:\Program Files\Microsoft Visual Studio\2022\Professional\VC\Tools\MSVC\14.44.35207\include\utility

; 274  :         : first(_STD forward<_Other1>(_Val1)), second(_STD forward<_Other2>(_Val2)) {

  002a7	c7 45 e8 06 b0
	00 f0		 mov	 DWORD PTR $T51[ebp], -268390394 ; f000b006H
; File C:\Program Files\Microsoft Visual Studio\2022\Professional\VC\Tools\MSVC\14.44.35207\include\xtree

; 1017 :             _Loc                = _Find_lower_bound(_Keyval);

  002ae	50		 push	 eax
  002af	8d 45 d0	 lea	 eax, DWORD PTR $T7[ebp]
; File C:\Program Files\Microsoft Visual Studio\2022\Professional\VC\Tools\MSVC\14.44.35207\include\utility

; 274  :         : first(_STD forward<_Other1>(_Val1)), second(_STD forward<_Other2>(_Val2)) {

  002b2	c7 45 ec 00 00
	00 00		 mov	 DWORD PTR $T51[ebp+4], OFFSET ?OnTag@CDPCoreSrvr@@AAEXAAVCAr@@PAEK@Z ; CDPCoreSrvr::OnTag
; File C:\Program Files\Microsoft Visual Studio\2022\Professional\VC\Tools\MSVC\14.44.35207\include\xtree

; 1017 :             _Loc                = _Find_lower_bound(_Keyval);

  002b9	50		 push	 eax
  002ba	8b cf		 mov	 ecx, edi
  002bc	e8 00 00 00 00	 call	 ??$_Find_lower_bound@K@?$_Tree@V?$_Tmap_traits@KP8CDPCoreSrvr@@AEXAAVCAr@@PAEK@ZU?$less@K@std@@V?$allocator@U?$pair@$$CBKP8CDPCoreSrvr@@AEXAAVCAr@@PAEK@Z@std@@@4@$0A@@std@@@std@@IBE?AU?$_Tree_find_result@PAU?$_Tree_node@U?$pair@$$CBKP8CDPCoreSrvr@@AEXAAVCAr@@PAEK@Z@std@@PAX@std@@@1@ABK@Z ; std::_Tree<std::_Tmap_traits<unsigned long,void (__thiscall CDPCoreSrvr::*)(CAr &,unsigned char *,unsigned long),std::less<unsigned long>,std::allocator<std::pair<unsigned long const ,void (__thiscall CDPCoreSrvr::*)(CAr &,unsigned char *,unsigned long)> >,0> >::_Find_lower_bound<unsigned long>
  002c1	f3 0f 7e 00	 movq	 xmm0, QWORD PTR [eax]
  002c5	8b 40 08	 mov	 eax, DWORD PTR [eax+8]
  002c8	66 0f d6 45 dc	 movq	 QWORD PTR __Loc$16[ebp], xmm0

; 1624 :         return !_Bound->_Isnil && !_DEBUG_LT_PRED(_Getcomp(), _Keyval, _Traits::_Kfn(_Bound->_Myval));

  002cd	80 78 0d 00	 cmp	 BYTE PTR [eax+13], 0
  002d1	75 09		 jne	 SHORT $LN455@CDPCoreSrv
; File C:\Program Files\Microsoft Visual Studio\2022\Professional\VC\Tools\MSVC\14.44.35207\include\type_traits

; 2380 :         return _Left < _Right;

  002d3	81 78 10 06 b0
	00 f0		 cmp	 DWORD PTR [eax+16], -268390394 ; f000b006H
; File C:\Program Files\Microsoft Visual Studio\2022\Professional\VC\Tools\MSVC\14.44.35207\include\xtree

; 1624 :         return !_Bound->_Isnil && !_DEBUG_LT_PRED(_Getcomp(), _Keyval, _Traits::_Kfn(_Bound->_Myval));

  002da	76 55		 jbe	 SHORT $LN530@CDPCoreSrv
$LN455@CDPCoreSrv:

; 1648 :         if (max_size() == _Get_scary()->_Mysize) {

  002dc	81 7f 04 aa aa
	aa 0a		 cmp	 DWORD PTR [edi+4], 178956970 ; 0aaaaaaaH
  002e3	0f 84 44 05 00
	00		 je	 $LN1117@CDPCoreSrv

; 1023 :             _Inserted = _Tree_temp_node<_Alnode>(_Getal(), _Scary->_Myhead, _STD forward<_Valtys>(_Vals)...)._Release();

  002e9	8b 37		 mov	 esi, DWORD PTR [edi]
; File C:\Program Files\Microsoft Visual Studio\2022\Professional\VC\Tools\MSVC\14.44.35207\include\xmemory

; 1160 :     _CONSTEXPR20 explicit _Alloc_construct_ptr(_Alloc& _Al_) : _Al(_Al_), _Ptr(nullptr) {}

  002eb	89 7d e8	 mov	 DWORD PTR $T64[ebp], edi

; 136  :         return ::operator new(_Bytes);

  002ee	6a 18		 push	 24			; 00000018H
; File C:\Program Files\Microsoft Visual Studio\2022\Professional\VC\Tools\MSVC\14.44.35207\include\xtree

; 808  :     explicit _Tree_temp_node_alloc(_Alnode& _Al_) : _Alloc_construct_ptr<_Alnode>(_Al_) {

  002f0	c6 45 fc 06	 mov	 BYTE PTR __$EHRec$[ebp+8], 6
; File C:\Program Files\Microsoft Visual Studio\2022\Professional\VC\Tools\MSVC\14.44.35207\include\xmemory

; 1167 :         _Ptr = nullptr; // if allocate throws, prevents double-free

  002f4	c7 45 ec 00 00
	00 00		 mov	 DWORD PTR $T64[ebp+4], 0

; 136  :         return ::operator new(_Bytes);

  002fb	e8 00 00 00 00	 call	 ??2@YAPAXI@Z		; operator new
  00300	83 c4 04	 add	 esp, 4
; File C:\Program Files\Microsoft Visual Studio\2022\Professional\VC\Tools\MSVC\14.44.35207\include\xtree

; 810  :     }

  00303	c6 45 fc 01	 mov	 BYTE PTR __$EHRec$[ebp+8], 1

; 1042 :         return {_Scary->_Insert_node(_Loc._Location, _Inserted), true};

  00307	8b cf		 mov	 ecx, edi

; 830  :         _Alnode_traits::construct(this->_Al, _STD addressof(this->_Ptr->_Myval), _STD forward<_Valtys>(_Vals)...);

  00309	c7 40 10 06 b0
	00 f0		 mov	 DWORD PTR [eax+16], -268390394 ; f000b006H

; 1042 :         return {_Scary->_Insert_node(_Loc._Location, _Inserted), true};

  00310	50		 push	 eax
  00311	ff 75 e0	 push	 DWORD PTR __Loc$16[ebp+4]

; 830  :         _Alnode_traits::construct(this->_Al, _STD addressof(this->_Ptr->_Myval), _STD forward<_Valtys>(_Vals)...);

  00314	c7 40 14 00 00
	00 00		 mov	 DWORD PTR [eax+20], OFFSET ?OnTag@CDPCoreSrvr@@AAEXAAVCAr@@PAEK@Z ; CDPCoreSrvr::OnTag

; 1042 :         return {_Scary->_Insert_node(_Loc._Location, _Inserted), true};

  0031b	ff 75 dc	 push	 DWORD PTR __Loc$16[ebp]

; 831  :         _Construct_in_place(this->_Ptr->_Left, _Myhead);

  0031e	89 30		 mov	 DWORD PTR [eax], esi

; 832  :         _Construct_in_place(this->_Ptr->_Parent, _Myhead);

  00320	89 70 04	 mov	 DWORD PTR [eax+4], esi

; 833  :         _Construct_in_place(this->_Ptr->_Right, _Myhead);

  00323	89 70 08	 mov	 DWORD PTR [eax+8], esi

; 834  :         this->_Ptr->_Color = _Red;

  00326	66 c7 40 0c 00
	00		 mov	 WORD PTR [eax+12], 0

; 1042 :         return {_Scary->_Insert_node(_Loc._Location, _Inserted), true};

  0032c	e8 00 00 00 00	 call	 ?_Insert_node@?$_Tree_val@U?$_Tree_simple_types@U?$pair@$$CBKP8CDPCoreSrvr@@AEXAAVCAr@@PAEK@Z@std@@@std@@@std@@QAEPAU?$_Tree_node@U?$pair@$$CBKP8CDPCoreSrvr@@AEXAAVCAr@@PAEK@Z@std@@PAX@2@U?$_Tree_id@PAU?$_Tree_node@U?$pair@$$CBKP8CDPCoreSrvr@@AEXAAVCAr@@PAEK@Z@std@@PAX@std@@@2@QAU32@@Z ; std::_Tree_val<std::_Tree_simple_types<std::pair<unsigned long const ,void (__thiscall CDPCoreSrvr::*)(CAr &,unsigned char *,unsigned long)> > >::_Insert_node
$LN530@CDPCoreSrv:

; 1017 :             _Loc                = _Find_lower_bound(_Keyval);

  00331	8d 45 e8	 lea	 eax, DWORD PTR $T53[ebp]
; File C:\Program Files\Microsoft Visual Studio\2022\Professional\VC\Tools\MSVC\14.44.35207\include\utility

; 274  :         : first(_STD forward<_Other1>(_Val1)), second(_STD forward<_Other2>(_Val2)) {

  00334	c7 45 e8 31 ff
	ff ff		 mov	 DWORD PTR $T53[ebp], -207 ; ffffff31H
; File C:\Program Files\Microsoft Visual Studio\2022\Professional\VC\Tools\MSVC\14.44.35207\include\xtree

; 1017 :             _Loc                = _Find_lower_bound(_Keyval);

  0033b	50		 push	 eax
  0033c	8d 45 d0	 lea	 eax, DWORD PTR $T8[ebp]
; File C:\Program Files\Microsoft Visual Studio\2022\Professional\VC\Tools\MSVC\14.44.35207\include\utility

; 274  :         : first(_STD forward<_Other1>(_Val1)), second(_STD forward<_Other2>(_Val2)) {

  0033f	c7 45 ec 00 00
	00 00		 mov	 DWORD PTR $T53[ebp+4], OFFSET ?OnCreateGuild@CDPCoreSrvr@@AAEXAAVCAr@@PAEK@Z ; CDPCoreSrvr::OnCreateGuild
; File C:\Program Files\Microsoft Visual Studio\2022\Professional\VC\Tools\MSVC\14.44.35207\include\xtree

; 1017 :             _Loc                = _Find_lower_bound(_Keyval);

  00346	50		 push	 eax
  00347	8b cf		 mov	 ecx, edi
  00349	e8 00 00 00 00	 call	 ??$_Find_lower_bound@K@?$_Tree@V?$_Tmap_traits@KP8CDPCoreSrvr@@AEXAAVCAr@@PAEK@ZU?$less@K@std@@V?$allocator@U?$pair@$$CBKP8CDPCoreSrvr@@AEXAAVCAr@@PAEK@Z@std@@@4@$0A@@std@@@std@@IBE?AU?$_Tree_find_result@PAU?$_Tree_node@U?$pair@$$CBKP8CDPCoreSrvr@@AEXAAVCAr@@PAEK@Z@std@@PAX@std@@@1@ABK@Z ; std::_Tree<std::_Tmap_traits<unsigned long,void (__thiscall CDPCoreSrvr::*)(CAr &,unsigned char *,unsigned long),std::less<unsigned long>,std::allocator<std::pair<unsigned long const ,void (__thiscall CDPCoreSrvr::*)(CAr &,unsigned char *,unsigned long)> >,0> >::_Find_lower_bound<unsigned long>
  0034e	f3 0f 7e 00	 movq	 xmm0, QWORD PTR [eax]
  00352	8b 40 08	 mov	 eax, DWORD PTR [eax+8]
  00355	66 0f d6 45 dc	 movq	 QWORD PTR __Loc$17[ebp], xmm0

; 1624 :         return !_Bound->_Isnil && !_DEBUG_LT_PRED(_Getcomp(), _Keyval, _Traits::_Kfn(_Bound->_Myval));

  0035a	80 78 0d 00	 cmp	 BYTE PTR [eax+13], 0
  0035e	75 09		 jne	 SHORT $LN556@CDPCoreSrv
; File C:\Program Files\Microsoft Visual Studio\2022\Professional\VC\Tools\MSVC\14.44.35207\include\type_traits

; 2380 :         return _Left < _Right;

  00360	81 78 10 31 ff
	ff ff		 cmp	 DWORD PTR [eax+16], -207 ; ffffff31H
; File C:\Program Files\Microsoft Visual Studio\2022\Professional\VC\Tools\MSVC\14.44.35207\include\xtree

; 1624 :         return !_Bound->_Isnil && !_DEBUG_LT_PRED(_Getcomp(), _Keyval, _Traits::_Kfn(_Bound->_Myval));

  00367	76 55		 jbe	 SHORT $LN631@CDPCoreSrv
$LN556@CDPCoreSrv:

; 1648 :         if (max_size() == _Get_scary()->_Mysize) {

  00369	81 7f 04 aa aa
	aa 0a		 cmp	 DWORD PTR [edi+4], 178956970 ; 0aaaaaaaH
  00370	0f 84 b7 04 00
	00		 je	 $LN1117@CDPCoreSrv

; 1023 :             _Inserted = _Tree_temp_node<_Alnode>(_Getal(), _Scary->_Myhead, _STD forward<_Valtys>(_Vals)...)._Release();

  00376	8b 37		 mov	 esi, DWORD PTR [edi]
; File C:\Program Files\Microsoft Visual Studio\2022\Professional\VC\Tools\MSVC\14.44.35207\include\xmemory

; 1160 :     _CONSTEXPR20 explicit _Alloc_construct_ptr(_Alloc& _Al_) : _Al(_Al_), _Ptr(nullptr) {}

  00378	89 7d e8	 mov	 DWORD PTR $T67[ebp], edi

; 136  :         return ::operator new(_Bytes);

  0037b	6a 18		 push	 24			; 00000018H
; File C:\Program Files\Microsoft Visual Studio\2022\Professional\VC\Tools\MSVC\14.44.35207\include\xtree

; 808  :     explicit _Tree_temp_node_alloc(_Alnode& _Al_) : _Alloc_construct_ptr<_Alnode>(_Al_) {

  0037d	c6 45 fc 07	 mov	 BYTE PTR __$EHRec$[ebp+8], 7
; File C:\Program Files\Microsoft Visual Studio\2022\Professional\VC\Tools\MSVC\14.44.35207\include\xmemory

; 1167 :         _Ptr = nullptr; // if allocate throws, prevents double-free

  00381	c7 45 ec 00 00
	00 00		 mov	 DWORD PTR $T67[ebp+4], 0

; 136  :         return ::operator new(_Bytes);

  00388	e8 00 00 00 00	 call	 ??2@YAPAXI@Z		; operator new
  0038d	83 c4 04	 add	 esp, 4
; File C:\Program Files\Microsoft Visual Studio\2022\Professional\VC\Tools\MSVC\14.44.35207\include\xtree

; 810  :     }

  00390	c6 45 fc 01	 mov	 BYTE PTR __$EHRec$[ebp+8], 1

; 1042 :         return {_Scary->_Insert_node(_Loc._Location, _Inserted), true};

  00394	8b cf		 mov	 ecx, edi

; 830  :         _Alnode_traits::construct(this->_Al, _STD addressof(this->_Ptr->_Myval), _STD forward<_Valtys>(_Vals)...);

  00396	c7 40 10 31 ff
	ff ff		 mov	 DWORD PTR [eax+16], -207 ; ffffff31H

; 1042 :         return {_Scary->_Insert_node(_Loc._Location, _Inserted), true};

  0039d	50		 push	 eax
  0039e	ff 75 e0	 push	 DWORD PTR __Loc$17[ebp+4]

; 830  :         _Alnode_traits::construct(this->_Al, _STD addressof(this->_Ptr->_Myval), _STD forward<_Valtys>(_Vals)...);

  003a1	c7 40 14 00 00
	00 00		 mov	 DWORD PTR [eax+20], OFFSET ?OnCreateGuild@CDPCoreSrvr@@AAEXAAVCAr@@PAEK@Z ; CDPCoreSrvr::OnCreateGuild

; 1042 :         return {_Scary->_Insert_node(_Loc._Location, _Inserted), true};

  003a8	ff 75 dc	 push	 DWORD PTR __Loc$17[ebp]

; 831  :         _Construct_in_place(this->_Ptr->_Left, _Myhead);

  003ab	89 30		 mov	 DWORD PTR [eax], esi

; 832  :         _Construct_in_place(this->_Ptr->_Parent, _Myhead);

  003ad	89 70 04	 mov	 DWORD PTR [eax+4], esi

; 833  :         _Construct_in_place(this->_Ptr->_Right, _Myhead);

  003b0	89 70 08	 mov	 DWORD PTR [eax+8], esi

; 834  :         this->_Ptr->_Color = _Red;

  003b3	66 c7 40 0c 00
	00		 mov	 WORD PTR [eax+12], 0

; 1042 :         return {_Scary->_Insert_node(_Loc._Location, _Inserted), true};

  003b9	e8 00 00 00 00	 call	 ?_Insert_node@?$_Tree_val@U?$_Tree_simple_types@U?$pair@$$CBKP8CDPCoreSrvr@@AEXAAVCAr@@PAEK@Z@std@@@std@@@std@@QAEPAU?$_Tree_node@U?$pair@$$CBKP8CDPCoreSrvr@@AEXAAVCAr@@PAEK@Z@std@@PAX@2@U?$_Tree_id@PAU?$_Tree_node@U?$pair@$$CBKP8CDPCoreSrvr@@AEXAAVCAr@@PAEK@Z@std@@PAX@std@@@2@QAU32@@Z ; std::_Tree_val<std::_Tree_simple_types<std::pair<unsigned long const ,void (__thiscall CDPCoreSrvr::*)(CAr &,unsigned char *,unsigned long)> > >::_Insert_node
$LN631@CDPCoreSrv:

; 1017 :             _Loc                = _Find_lower_bound(_Keyval);

  003be	8d 45 e8	 lea	 eax, DWORD PTR $T54[ebp]
; File C:\Program Files\Microsoft Visual Studio\2022\Professional\VC\Tools\MSVC\14.44.35207\include\utility

; 274  :         : first(_STD forward<_Other1>(_Val1)), second(_STD forward<_Other2>(_Val2)) {

  003c1	c7 45 e8 32 ff
	ff ff		 mov	 DWORD PTR $T54[ebp], -206 ; ffffff32H
; File C:\Program Files\Microsoft Visual Studio\2022\Professional\VC\Tools\MSVC\14.44.35207\include\xtree

; 1017 :             _Loc                = _Find_lower_bound(_Keyval);

  003c8	50		 push	 eax
  003c9	8d 45 d0	 lea	 eax, DWORD PTR $T9[ebp]
; File C:\Program Files\Microsoft Visual Studio\2022\Professional\VC\Tools\MSVC\14.44.35207\include\utility

; 274  :         : first(_STD forward<_Other1>(_Val1)), second(_STD forward<_Other2>(_Val2)) {

  003cc	c7 45 ec 00 00
	00 00		 mov	 DWORD PTR $T54[ebp+4], OFFSET ?OnDestroyGuild@CDPCoreSrvr@@AAEXAAVCAr@@PAEK@Z ; CDPCoreSrvr::OnDestroyGuild
; File C:\Program Files\Microsoft Visual Studio\2022\Professional\VC\Tools\MSVC\14.44.35207\include\xtree

; 1017 :             _Loc                = _Find_lower_bound(_Keyval);

  003d3	50		 push	 eax
  003d4	8b cf		 mov	 ecx, edi
  003d6	e8 00 00 00 00	 call	 ??$_Find_lower_bound@K@?$_Tree@V?$_Tmap_traits@KP8CDPCoreSrvr@@AEXAAVCAr@@PAEK@ZU?$less@K@std@@V?$allocator@U?$pair@$$CBKP8CDPCoreSrvr@@AEXAAVCAr@@PAEK@Z@std@@@4@$0A@@std@@@std@@IBE?AU?$_Tree_find_result@PAU?$_Tree_node@U?$pair@$$CBKP8CDPCoreSrvr@@AEXAAVCAr@@PAEK@Z@std@@PAX@std@@@1@ABK@Z ; std::_Tree<std::_Tmap_traits<unsigned long,void (__thiscall CDPCoreSrvr::*)(CAr &,unsigned char *,unsigned long),std::less<unsigned long>,std::allocator<std::pair<unsigned long const ,void (__thiscall CDPCoreSrvr::*)(CAr &,unsigned char *,unsigned long)> >,0> >::_Find_lower_bound<unsigned long>
  003db	f3 0f 7e 00	 movq	 xmm0, QWORD PTR [eax]
  003df	8b 40 08	 mov	 eax, DWORD PTR [eax+8]
  003e2	66 0f d6 45 dc	 movq	 QWORD PTR __Loc$18[ebp], xmm0

; 1624 :         return !_Bound->_Isnil && !_DEBUG_LT_PRED(_Getcomp(), _Keyval, _Traits::_Kfn(_Bound->_Myval));

  003e7	80 78 0d 00	 cmp	 BYTE PTR [eax+13], 0
  003eb	75 09		 jne	 SHORT $LN657@CDPCoreSrv
; File C:\Program Files\Microsoft Visual Studio\2022\Professional\VC\Tools\MSVC\14.44.35207\include\type_traits

; 2380 :         return _Left < _Right;

  003ed	81 78 10 32 ff
	ff ff		 cmp	 DWORD PTR [eax+16], -206 ; ffffff32H
; File C:\Program Files\Microsoft Visual Studio\2022\Professional\VC\Tools\MSVC\14.44.35207\include\xtree

; 1624 :         return !_Bound->_Isnil && !_DEBUG_LT_PRED(_Getcomp(), _Keyval, _Traits::_Kfn(_Bound->_Myval));

  003f4	76 55		 jbe	 SHORT $LN732@CDPCoreSrv
$LN657@CDPCoreSrv:

; 1648 :         if (max_size() == _Get_scary()->_Mysize) {

  003f6	81 7f 04 aa aa
	aa 0a		 cmp	 DWORD PTR [edi+4], 178956970 ; 0aaaaaaaH
  003fd	0f 84 2a 04 00
	00		 je	 $LN1117@CDPCoreSrv

; 1023 :             _Inserted = _Tree_temp_node<_Alnode>(_Getal(), _Scary->_Myhead, _STD forward<_Valtys>(_Vals)...)._Release();

  00403	8b 37		 mov	 esi, DWORD PTR [edi]
; File C:\Program Files\Microsoft Visual Studio\2022\Professional\VC\Tools\MSVC\14.44.35207\include\xmemory

; 1160 :     _CONSTEXPR20 explicit _Alloc_construct_ptr(_Alloc& _Al_) : _Al(_Al_), _Ptr(nullptr) {}

  00405	89 7d e8	 mov	 DWORD PTR $T70[ebp], edi

; 136  :         return ::operator new(_Bytes);

  00408	6a 18		 push	 24			; 00000018H
; File C:\Program Files\Microsoft Visual Studio\2022\Professional\VC\Tools\MSVC\14.44.35207\include\xtree

; 808  :     explicit _Tree_temp_node_alloc(_Alnode& _Al_) : _Alloc_construct_ptr<_Alnode>(_Al_) {

  0040a	c6 45 fc 08	 mov	 BYTE PTR __$EHRec$[ebp+8], 8
; File C:\Program Files\Microsoft Visual Studio\2022\Professional\VC\Tools\MSVC\14.44.35207\include\xmemory

; 1167 :         _Ptr = nullptr; // if allocate throws, prevents double-free

  0040e	c7 45 ec 00 00
	00 00		 mov	 DWORD PTR $T70[ebp+4], 0

; 136  :         return ::operator new(_Bytes);

  00415	e8 00 00 00 00	 call	 ??2@YAPAXI@Z		; operator new
  0041a	83 c4 04	 add	 esp, 4
; File C:\Program Files\Microsoft Visual Studio\2022\Professional\VC\Tools\MSVC\14.44.35207\include\xtree

; 810  :     }

  0041d	c6 45 fc 01	 mov	 BYTE PTR __$EHRec$[ebp+8], 1

; 1042 :         return {_Scary->_Insert_node(_Loc._Location, _Inserted), true};

  00421	8b cf		 mov	 ecx, edi

; 830  :         _Alnode_traits::construct(this->_Al, _STD addressof(this->_Ptr->_Myval), _STD forward<_Valtys>(_Vals)...);

  00423	c7 40 10 32 ff
	ff ff		 mov	 DWORD PTR [eax+16], -206 ; ffffff32H

; 1042 :         return {_Scary->_Insert_node(_Loc._Location, _Inserted), true};

  0042a	50		 push	 eax
  0042b	ff 75 e0	 push	 DWORD PTR __Loc$18[ebp+4]

; 830  :         _Alnode_traits::construct(this->_Al, _STD addressof(this->_Ptr->_Myval), _STD forward<_Valtys>(_Vals)...);

  0042e	c7 40 14 00 00
	00 00		 mov	 DWORD PTR [eax+20], OFFSET ?OnDestroyGuild@CDPCoreSrvr@@AAEXAAVCAr@@PAEK@Z ; CDPCoreSrvr::OnDestroyGuild

; 1042 :         return {_Scary->_Insert_node(_Loc._Location, _Inserted), true};

  00435	ff 75 dc	 push	 DWORD PTR __Loc$18[ebp]

; 831  :         _Construct_in_place(this->_Ptr->_Left, _Myhead);

  00438	89 30		 mov	 DWORD PTR [eax], esi

; 832  :         _Construct_in_place(this->_Ptr->_Parent, _Myhead);

  0043a	89 70 04	 mov	 DWORD PTR [eax+4], esi

; 833  :         _Construct_in_place(this->_Ptr->_Right, _Myhead);

  0043d	89 70 08	 mov	 DWORD PTR [eax+8], esi

; 834  :         this->_Ptr->_Color = _Red;

  00440	66 c7 40 0c 00
	00		 mov	 WORD PTR [eax+12], 0

; 1042 :         return {_Scary->_Insert_node(_Loc._Location, _Inserted), true};

  00446	e8 00 00 00 00	 call	 ?_Insert_node@?$_Tree_val@U?$_Tree_simple_types@U?$pair@$$CBKP8CDPCoreSrvr@@AEXAAVCAr@@PAEK@Z@std@@@std@@@std@@QAEPAU?$_Tree_node@U?$pair@$$CBKP8CDPCoreSrvr@@AEXAAVCAr@@PAEK@Z@std@@PAX@2@U?$_Tree_id@PAU?$_Tree_node@U?$pair@$$CBKP8CDPCoreSrvr@@AEXAAVCAr@@PAEK@Z@std@@PAX@std@@@2@QAU32@@Z ; std::_Tree_val<std::_Tree_simple_types<std::pair<unsigned long const ,void (__thiscall CDPCoreSrvr::*)(CAr &,unsigned char *,unsigned long)> > >::_Insert_node
$LN732@CDPCoreSrv:

; 1017 :             _Loc                = _Find_lower_bound(_Keyval);

  0044b	8d 45 e8	 lea	 eax, DWORD PTR $T56[ebp]
; File C:\Program Files\Microsoft Visual Studio\2022\Professional\VC\Tools\MSVC\14.44.35207\include\utility

; 274  :         : first(_STD forward<_Other1>(_Val1)), second(_STD forward<_Other2>(_Val2)) {

  0044e	c7 45 e8 33 ff
	ff ff		 mov	 DWORD PTR $T56[ebp], -205 ; ffffff33H
; File C:\Program Files\Microsoft Visual Studio\2022\Professional\VC\Tools\MSVC\14.44.35207\include\xtree

; 1017 :             _Loc                = _Find_lower_bound(_Keyval);

  00455	50		 push	 eax
  00456	8d 45 d0	 lea	 eax, DWORD PTR $T10[ebp]
; File C:\Program Files\Microsoft Visual Studio\2022\Professional\VC\Tools\MSVC\14.44.35207\include\utility

; 274  :         : first(_STD forward<_Other1>(_Val1)), second(_STD forward<_Other2>(_Val2)) {

  00459	c7 45 ec 00 00
	00 00		 mov	 DWORD PTR $T56[ebp+4], OFFSET ?OnAddGuildMember@CDPCoreSrvr@@AAEXAAVCAr@@PAEK@Z ; CDPCoreSrvr::OnAddGuildMember
; File C:\Program Files\Microsoft Visual Studio\2022\Professional\VC\Tools\MSVC\14.44.35207\include\xtree

; 1017 :             _Loc                = _Find_lower_bound(_Keyval);

  00460	50		 push	 eax
  00461	8b cf		 mov	 ecx, edi
  00463	e8 00 00 00 00	 call	 ??$_Find_lower_bound@K@?$_Tree@V?$_Tmap_traits@KP8CDPCoreSrvr@@AEXAAVCAr@@PAEK@ZU?$less@K@std@@V?$allocator@U?$pair@$$CBKP8CDPCoreSrvr@@AEXAAVCAr@@PAEK@Z@std@@@4@$0A@@std@@@std@@IBE?AU?$_Tree_find_result@PAU?$_Tree_node@U?$pair@$$CBKP8CDPCoreSrvr@@AEXAAVCAr@@PAEK@Z@std@@PAX@std@@@1@ABK@Z ; std::_Tree<std::_Tmap_traits<unsigned long,void (__thiscall CDPCoreSrvr::*)(CAr &,unsigned char *,unsigned long),std::less<unsigned long>,std::allocator<std::pair<unsigned long const ,void (__thiscall CDPCoreSrvr::*)(CAr &,unsigned char *,unsigned long)> >,0> >::_Find_lower_bound<unsigned long>
  00468	f3 0f 7e 00	 movq	 xmm0, QWORD PTR [eax]
  0046c	8b 40 08	 mov	 eax, DWORD PTR [eax+8]
  0046f	66 0f d6 45 dc	 movq	 QWORD PTR __Loc$19[ebp], xmm0

; 1624 :         return !_Bound->_Isnil && !_DEBUG_LT_PRED(_Getcomp(), _Keyval, _Traits::_Kfn(_Bound->_Myval));

  00474	80 78 0d 00	 cmp	 BYTE PTR [eax+13], 0
  00478	75 09		 jne	 SHORT $LN758@CDPCoreSrv
; File C:\Program Files\Microsoft Visual Studio\2022\Professional\VC\Tools\MSVC\14.44.35207\include\type_traits

; 2380 :         return _Left < _Right;

  0047a	81 78 10 33 ff
	ff ff		 cmp	 DWORD PTR [eax+16], -205 ; ffffff33H
; File C:\Program Files\Microsoft Visual Studio\2022\Professional\VC\Tools\MSVC\14.44.35207\include\xtree

; 1624 :         return !_Bound->_Isnil && !_DEBUG_LT_PRED(_Getcomp(), _Keyval, _Traits::_Kfn(_Bound->_Myval));

  00481	76 55		 jbe	 SHORT $LN833@CDPCoreSrv
$LN758@CDPCoreSrv:

; 1648 :         if (max_size() == _Get_scary()->_Mysize) {

  00483	81 7f 04 aa aa
	aa 0a		 cmp	 DWORD PTR [edi+4], 178956970 ; 0aaaaaaaH
  0048a	0f 84 9d 03 00
	00		 je	 $LN1117@CDPCoreSrv

; 1023 :             _Inserted = _Tree_temp_node<_Alnode>(_Getal(), _Scary->_Myhead, _STD forward<_Valtys>(_Vals)...)._Release();

  00490	8b 37		 mov	 esi, DWORD PTR [edi]
; File C:\Program Files\Microsoft Visual Studio\2022\Professional\VC\Tools\MSVC\14.44.35207\include\xmemory

; 1160 :     _CONSTEXPR20 explicit _Alloc_construct_ptr(_Alloc& _Al_) : _Al(_Al_), _Ptr(nullptr) {}

  00492	89 7d e8	 mov	 DWORD PTR $T73[ebp], edi

; 136  :         return ::operator new(_Bytes);

  00495	6a 18		 push	 24			; 00000018H
; File C:\Program Files\Microsoft Visual Studio\2022\Professional\VC\Tools\MSVC\14.44.35207\include\xtree

; 808  :     explicit _Tree_temp_node_alloc(_Alnode& _Al_) : _Alloc_construct_ptr<_Alnode>(_Al_) {

  00497	c6 45 fc 09	 mov	 BYTE PTR __$EHRec$[ebp+8], 9
; File C:\Program Files\Microsoft Visual Studio\2022\Professional\VC\Tools\MSVC\14.44.35207\include\xmemory

; 1167 :         _Ptr = nullptr; // if allocate throws, prevents double-free

  0049b	c7 45 ec 00 00
	00 00		 mov	 DWORD PTR $T73[ebp+4], 0

; 136  :         return ::operator new(_Bytes);

  004a2	e8 00 00 00 00	 call	 ??2@YAPAXI@Z		; operator new
  004a7	83 c4 04	 add	 esp, 4
; File C:\Program Files\Microsoft Visual Studio\2022\Professional\VC\Tools\MSVC\14.44.35207\include\xtree

; 810  :     }

  004aa	c6 45 fc 01	 mov	 BYTE PTR __$EHRec$[ebp+8], 1

; 1042 :         return {_Scary->_Insert_node(_Loc._Location, _Inserted), true};

  004ae	8b cf		 mov	 ecx, edi

; 830  :         _Alnode_traits::construct(this->_Al, _STD addressof(this->_Ptr->_Myval), _STD forward<_Valtys>(_Vals)...);

  004b0	c7 40 10 33 ff
	ff ff		 mov	 DWORD PTR [eax+16], -205 ; ffffff33H

; 1042 :         return {_Scary->_Insert_node(_Loc._Location, _Inserted), true};

  004b7	50		 push	 eax
  004b8	ff 75 e0	 push	 DWORD PTR __Loc$19[ebp+4]

; 830  :         _Alnode_traits::construct(this->_Al, _STD addressof(this->_Ptr->_Myval), _STD forward<_Valtys>(_Vals)...);

  004bb	c7 40 14 00 00
	00 00		 mov	 DWORD PTR [eax+20], OFFSET ?OnAddGuildMember@CDPCoreSrvr@@AAEXAAVCAr@@PAEK@Z ; CDPCoreSrvr::OnAddGuildMember

; 1042 :         return {_Scary->_Insert_node(_Loc._Location, _Inserted), true};

  004c2	ff 75 dc	 push	 DWORD PTR __Loc$19[ebp]

; 831  :         _Construct_in_place(this->_Ptr->_Left, _Myhead);

  004c5	89 30		 mov	 DWORD PTR [eax], esi

; 832  :         _Construct_in_place(this->_Ptr->_Parent, _Myhead);

  004c7	89 70 04	 mov	 DWORD PTR [eax+4], esi

; 833  :         _Construct_in_place(this->_Ptr->_Right, _Myhead);

  004ca	89 70 08	 mov	 DWORD PTR [eax+8], esi

; 834  :         this->_Ptr->_Color = _Red;

  004cd	66 c7 40 0c 00
	00		 mov	 WORD PTR [eax+12], 0

; 1042 :         return {_Scary->_Insert_node(_Loc._Location, _Inserted), true};

  004d3	e8 00 00 00 00	 call	 ?_Insert_node@?$_Tree_val@U?$_Tree_simple_types@U?$pair@$$CBKP8CDPCoreSrvr@@AEXAAVCAr@@PAEK@Z@std@@@std@@@std@@QAEPAU?$_Tree_node@U?$pair@$$CBKP8CDPCoreSrvr@@AEXAAVCAr@@PAEK@Z@std@@PAX@2@U?$_Tree_id@PAU?$_Tree_node@U?$pair@$$CBKP8CDPCoreSrvr@@AEXAAVCAr@@PAEK@Z@std@@PAX@std@@@2@QAU32@@Z ; std::_Tree_val<std::_Tree_simple_types<std::pair<unsigned long const ,void (__thiscall CDPCoreSrvr::*)(CAr &,unsigned char *,unsigned long)> > >::_Insert_node
$LN833@CDPCoreSrv:

; 1017 :             _Loc                = _Find_lower_bound(_Keyval);

  004d8	8d 45 e8	 lea	 eax, DWORD PTR $T57[ebp]
; File C:\Program Files\Microsoft Visual Studio\2022\Professional\VC\Tools\MSVC\14.44.35207\include\utility

; 274  :         : first(_STD forward<_Other1>(_Val1)), second(_STD forward<_Other2>(_Val2)) {

  004db	c7 45 e8 34 ff
	ff ff		 mov	 DWORD PTR $T57[ebp], -204 ; ffffff34H
; File C:\Program Files\Microsoft Visual Studio\2022\Professional\VC\Tools\MSVC\14.44.35207\include\xtree

; 1017 :             _Loc                = _Find_lower_bound(_Keyval);

  004e2	50		 push	 eax
  004e3	8d 45 d0	 lea	 eax, DWORD PTR $T11[ebp]
; File C:\Program Files\Microsoft Visual Studio\2022\Professional\VC\Tools\MSVC\14.44.35207\include\utility

; 274  :         : first(_STD forward<_Other1>(_Val1)), second(_STD forward<_Other2>(_Val2)) {

  004e6	c7 45 ec 00 00
	00 00		 mov	 DWORD PTR $T57[ebp+4], OFFSET ?OnRemoveGuildMember@CDPCoreSrvr@@AAEXAAVCAr@@PAEK@Z ; CDPCoreSrvr::OnRemoveGuildMember
; File C:\Program Files\Microsoft Visual Studio\2022\Professional\VC\Tools\MSVC\14.44.35207\include\xtree

; 1017 :             _Loc                = _Find_lower_bound(_Keyval);

  004ed	50		 push	 eax
  004ee	8b cf		 mov	 ecx, edi
  004f0	e8 00 00 00 00	 call	 ??$_Find_lower_bound@K@?$_Tree@V?$_Tmap_traits@KP8CDPCoreSrvr@@AEXAAVCAr@@PAEK@ZU?$less@K@std@@V?$allocator@U?$pair@$$CBKP8CDPCoreSrvr@@AEXAAVCAr@@PAEK@Z@std@@@4@$0A@@std@@@std@@IBE?AU?$_Tree_find_result@PAU?$_Tree_node@U?$pair@$$CBKP8CDPCoreSrvr@@AEXAAVCAr@@PAEK@Z@std@@PAX@std@@@1@ABK@Z ; std::_Tree<std::_Tmap_traits<unsigned long,void (__thiscall CDPCoreSrvr::*)(CAr &,unsigned char *,unsigned long),std::less<unsigned long>,std::allocator<std::pair<unsigned long const ,void (__thiscall CDPCoreSrvr::*)(CAr &,unsigned char *,unsigned long)> >,0> >::_Find_lower_bound<unsigned long>
  004f5	f3 0f 7e 00	 movq	 xmm0, QWORD PTR [eax]
  004f9	8b 40 08	 mov	 eax, DWORD PTR [eax+8]
  004fc	66 0f d6 45 dc	 movq	 QWORD PTR __Loc$20[ebp], xmm0

; 1624 :         return !_Bound->_Isnil && !_DEBUG_LT_PRED(_Getcomp(), _Keyval, _Traits::_Kfn(_Bound->_Myval));

  00501	80 78 0d 00	 cmp	 BYTE PTR [eax+13], 0
  00505	75 09		 jne	 SHORT $LN859@CDPCoreSrv
; File C:\Program Files\Microsoft Visual Studio\2022\Professional\VC\Tools\MSVC\14.44.35207\include\type_traits

; 2380 :         return _Left < _Right;

  00507	81 78 10 34 ff
	ff ff		 cmp	 DWORD PTR [eax+16], -204 ; ffffff34H
; File C:\Program Files\Microsoft Visual Studio\2022\Professional\VC\Tools\MSVC\14.44.35207\include\xtree

; 1624 :         return !_Bound->_Isnil && !_DEBUG_LT_PRED(_Getcomp(), _Keyval, _Traits::_Kfn(_Bound->_Myval));

  0050e	76 55		 jbe	 SHORT $LN934@CDPCoreSrv
$LN859@CDPCoreSrv:

; 1648 :         if (max_size() == _Get_scary()->_Mysize) {

  00510	81 7f 04 aa aa
	aa 0a		 cmp	 DWORD PTR [edi+4], 178956970 ; 0aaaaaaaH
  00517	0f 84 10 03 00
	00		 je	 $LN1117@CDPCoreSrv

; 1023 :             _Inserted = _Tree_temp_node<_Alnode>(_Getal(), _Scary->_Myhead, _STD forward<_Valtys>(_Vals)...)._Release();

  0051d	8b 37		 mov	 esi, DWORD PTR [edi]
; File C:\Program Files\Microsoft Visual Studio\2022\Professional\VC\Tools\MSVC\14.44.35207\include\xmemory

; 1160 :     _CONSTEXPR20 explicit _Alloc_construct_ptr(_Alloc& _Al_) : _Al(_Al_), _Ptr(nullptr) {}

  0051f	89 7d e8	 mov	 DWORD PTR $T76[ebp], edi

; 136  :         return ::operator new(_Bytes);

  00522	6a 18		 push	 24			; 00000018H
; File C:\Program Files\Microsoft Visual Studio\2022\Professional\VC\Tools\MSVC\14.44.35207\include\xtree

; 808  :     explicit _Tree_temp_node_alloc(_Alnode& _Al_) : _Alloc_construct_ptr<_Alnode>(_Al_) {

  00524	c6 45 fc 0a	 mov	 BYTE PTR __$EHRec$[ebp+8], 10 ; 0000000aH
; File C:\Program Files\Microsoft Visual Studio\2022\Professional\VC\Tools\MSVC\14.44.35207\include\xmemory

; 1167 :         _Ptr = nullptr; // if allocate throws, prevents double-free

  00528	c7 45 ec 00 00
	00 00		 mov	 DWORD PTR $T76[ebp+4], 0

; 136  :         return ::operator new(_Bytes);

  0052f	e8 00 00 00 00	 call	 ??2@YAPAXI@Z		; operator new
  00534	83 c4 04	 add	 esp, 4
; File C:\Program Files\Microsoft Visual Studio\2022\Professional\VC\Tools\MSVC\14.44.35207\include\xtree

; 810  :     }

  00537	c6 45 fc 01	 mov	 BYTE PTR __$EHRec$[ebp+8], 1

; 1042 :         return {_Scary->_Insert_node(_Loc._Location, _Inserted), true};

  0053b	8b cf		 mov	 ecx, edi

; 830  :         _Alnode_traits::construct(this->_Al, _STD addressof(this->_Ptr->_Myval), _STD forward<_Valtys>(_Vals)...);

  0053d	c7 40 10 34 ff
	ff ff		 mov	 DWORD PTR [eax+16], -204 ; ffffff34H

; 1042 :         return {_Scary->_Insert_node(_Loc._Location, _Inserted), true};

  00544	50		 push	 eax
  00545	ff 75 e0	 push	 DWORD PTR __Loc$20[ebp+4]

; 830  :         _Alnode_traits::construct(this->_Al, _STD addressof(this->_Ptr->_Myval), _STD forward<_Valtys>(_Vals)...);

  00548	c7 40 14 00 00
	00 00		 mov	 DWORD PTR [eax+20], OFFSET ?OnRemoveGuildMember@CDPCoreSrvr@@AAEXAAVCAr@@PAEK@Z ; CDPCoreSrvr::OnRemoveGuildMember

; 1042 :         return {_Scary->_Insert_node(_Loc._Location, _Inserted), true};

  0054f	ff 75 dc	 push	 DWORD PTR __Loc$20[ebp]

; 831  :         _Construct_in_place(this->_Ptr->_Left, _Myhead);

  00552	89 30		 mov	 DWORD PTR [eax], esi

; 832  :         _Construct_in_place(this->_Ptr->_Parent, _Myhead);

  00554	89 70 04	 mov	 DWORD PTR [eax+4], esi

; 833  :         _Construct_in_place(this->_Ptr->_Right, _Myhead);

  00557	89 70 08	 mov	 DWORD PTR [eax+8], esi

; 834  :         this->_Ptr->_Color = _Red;

  0055a	66 c7 40 0c 00
	00		 mov	 WORD PTR [eax+12], 0

; 1042 :         return {_Scary->_Insert_node(_Loc._Location, _Inserted), true};

  00560	e8 00 00 00 00	 call	 ?_Insert_node@?$_Tree_val@U?$_Tree_simple_types@U?$pair@$$CBKP8CDPCoreSrvr@@AEXAAVCAr@@PAEK@Z@std@@@std@@@std@@QAEPAU?$_Tree_node@U?$pair@$$CBKP8CDPCoreSrvr@@AEXAAVCAr@@PAEK@Z@std@@PAX@2@U?$_Tree_id@PAU?$_Tree_node@U?$pair@$$CBKP8CDPCoreSrvr@@AEXAAVCAr@@PAEK@Z@std@@PAX@std@@@2@QAU32@@Z ; std::_Tree_val<std::_Tree_simple_types<std::pair<unsigned long const ,void (__thiscall CDPCoreSrvr::*)(CAr &,unsigned char *,unsigned long)> > >::_Insert_node
$LN934@CDPCoreSrv:

; 1017 :             _Loc                = _Find_lower_bound(_Keyval);

  00565	8d 45 e8	 lea	 eax, DWORD PTR $T42[ebp]
; File C:\Program Files\Microsoft Visual Studio\2022\Professional\VC\Tools\MSVC\14.44.35207\include\utility

; 274  :         : first(_STD forward<_Other1>(_Val1)), second(_STD forward<_Other2>(_Val2)) {

  00568	c7 45 e8 16 b0
	00 f0		 mov	 DWORD PTR $T42[ebp], -268390378 ; f000b016H
; File C:\Program Files\Microsoft Visual Studio\2022\Professional\VC\Tools\MSVC\14.44.35207\include\xtree

; 1017 :             _Loc                = _Find_lower_bound(_Keyval);

  0056f	50		 push	 eax
  00570	8d 45 d0	 lea	 eax, DWORD PTR $T2[ebp]
; File C:\Program Files\Microsoft Visual Studio\2022\Professional\VC\Tools\MSVC\14.44.35207\include\utility

; 274  :         : first(_STD forward<_Other1>(_Val1)), second(_STD forward<_Other2>(_Val2)) {

  00573	c7 45 ec 00 00
	00 00		 mov	 DWORD PTR $T42[ebp+4], OFFSET ?OnGuildLogo@CDPCoreSrvr@@AAEXAAVCAr@@PAEK@Z ; CDPCoreSrvr::OnGuildLogo
; File C:\Program Files\Microsoft Visual Studio\2022\Professional\VC\Tools\MSVC\14.44.35207\include\xtree

; 1017 :             _Loc                = _Find_lower_bound(_Keyval);

  0057a	50		 push	 eax
  0057b	8b cf		 mov	 ecx, edi
  0057d	e8 00 00 00 00	 call	 ??$_Find_lower_bound@K@?$_Tree@V?$_Tmap_traits@KP8CDPCoreSrvr@@AEXAAVCAr@@PAEK@ZU?$less@K@std@@V?$allocator@U?$pair@$$CBKP8CDPCoreSrvr@@AEXAAVCAr@@PAEK@Z@std@@@4@$0A@@std@@@std@@IBE?AU?$_Tree_find_result@PAU?$_Tree_node@U?$pair@$$CBKP8CDPCoreSrvr@@AEXAAVCAr@@PAEK@Z@std@@PAX@std@@@1@ABK@Z ; std::_Tree<std::_Tmap_traits<unsigned long,void (__thiscall CDPCoreSrvr::*)(CAr &,unsigned char *,unsigned long),std::less<unsigned long>,std::allocator<std::pair<unsigned long const ,void (__thiscall CDPCoreSrvr::*)(CAr &,unsigned char *,unsigned long)> >,0> >::_Find_lower_bound<unsigned long>
  00582	f3 0f 7e 00	 movq	 xmm0, QWORD PTR [eax]
  00586	8b 40 08	 mov	 eax, DWORD PTR [eax+8]
  00589	66 0f d6 45 dc	 movq	 QWORD PTR __Loc$21[ebp], xmm0

; 1624 :         return !_Bound->_Isnil && !_DEBUG_LT_PRED(_Getcomp(), _Keyval, _Traits::_Kfn(_Bound->_Myval));

  0058e	80 78 0d 00	 cmp	 BYTE PTR [eax+13], 0
  00592	75 09		 jne	 SHORT $LN960@CDPCoreSrv
; File C:\Program Files\Microsoft Visual Studio\2022\Professional\VC\Tools\MSVC\14.44.35207\include\type_traits

; 2380 :         return _Left < _Right;

  00594	81 78 10 16 b0
	00 f0		 cmp	 DWORD PTR [eax+16], -268390378 ; f000b016H
; File C:\Program Files\Microsoft Visual Studio\2022\Professional\VC\Tools\MSVC\14.44.35207\include\xtree

; 1624 :         return !_Bound->_Isnil && !_DEBUG_LT_PRED(_Getcomp(), _Keyval, _Traits::_Kfn(_Bound->_Myval));

  0059b	76 55		 jbe	 SHORT $LN1035@CDPCoreSrv
$LN960@CDPCoreSrv:

; 1648 :         if (max_size() == _Get_scary()->_Mysize) {

  0059d	81 7f 04 aa aa
	aa 0a		 cmp	 DWORD PTR [edi+4], 178956970 ; 0aaaaaaaH
  005a4	0f 84 83 02 00
	00		 je	 $LN1117@CDPCoreSrv

; 1023 :             _Inserted = _Tree_temp_node<_Alnode>(_Getal(), _Scary->_Myhead, _STD forward<_Valtys>(_Vals)...)._Release();

  005aa	8b 37		 mov	 esi, DWORD PTR [edi]
; File C:\Program Files\Microsoft Visual Studio\2022\Professional\VC\Tools\MSVC\14.44.35207\include\xmemory

; 1160 :     _CONSTEXPR20 explicit _Alloc_construct_ptr(_Alloc& _Al_) : _Al(_Al_), _Ptr(nullptr) {}

  005ac	89 7d e8	 mov	 DWORD PTR $T79[ebp], edi

; 136  :         return ::operator new(_Bytes);

  005af	6a 18		 push	 24			; 00000018H
; File C:\Program Files\Microsoft Visual Studio\2022\Professional\VC\Tools\MSVC\14.44.35207\include\xtree

; 808  :     explicit _Tree_temp_node_alloc(_Alnode& _Al_) : _Alloc_construct_ptr<_Alnode>(_Al_) {

  005b1	c6 45 fc 0b	 mov	 BYTE PTR __$EHRec$[ebp+8], 11 ; 0000000bH
; File C:\Program Files\Microsoft Visual Studio\2022\Professional\VC\Tools\MSVC\14.44.35207\include\xmemory

; 1167 :         _Ptr = nullptr; // if allocate throws, prevents double-free

  005b5	c7 45 ec 00 00
	00 00		 mov	 DWORD PTR $T79[ebp+4], 0

; 136  :         return ::operator new(_Bytes);

  005bc	e8 00 00 00 00	 call	 ??2@YAPAXI@Z		; operator new
  005c1	83 c4 04	 add	 esp, 4
; File C:\Program Files\Microsoft Visual Studio\2022\Professional\VC\Tools\MSVC\14.44.35207\include\xtree

; 810  :     }

  005c4	c6 45 fc 01	 mov	 BYTE PTR __$EHRec$[ebp+8], 1

; 1042 :         return {_Scary->_Insert_node(_Loc._Location, _Inserted), true};

  005c8	8b cf		 mov	 ecx, edi

; 830  :         _Alnode_traits::construct(this->_Al, _STD addressof(this->_Ptr->_Myval), _STD forward<_Valtys>(_Vals)...);

  005ca	c7 40 10 16 b0
	00 f0		 mov	 DWORD PTR [eax+16], -268390378 ; f000b016H

; 1042 :         return {_Scary->_Insert_node(_Loc._Location, _Inserted), true};

  005d1	50		 push	 eax
  005d2	ff 75 e0	 push	 DWORD PTR __Loc$21[ebp+4]

; 830  :         _Alnode_traits::construct(this->_Al, _STD addressof(this->_Ptr->_Myval), _STD forward<_Valtys>(_Vals)...);

  005d5	c7 40 14 00 00
	00 00		 mov	 DWORD PTR [eax+20], OFFSET ?OnGuildLogo@CDPCoreSrvr@@AAEXAAVCAr@@PAEK@Z ; CDPCoreSrvr::OnGuildLogo

; 1042 :         return {_Scary->_Insert_node(_Loc._Location, _Inserted), true};

  005dc	ff 75 dc	 push	 DWORD PTR __Loc$21[ebp]

; 831  :         _Construct_in_place(this->_Ptr->_Left, _Myhead);

  005df	89 30		 mov	 DWORD PTR [eax], esi

; 832  :         _Construct_in_place(this->_Ptr->_Parent, _Myhead);

  005e1	89 70 04	 mov	 DWORD PTR [eax+4], esi

; 833  :         _Construct_in_place(this->_Ptr->_Right, _Myhead);

  005e4	89 70 08	 mov	 DWORD PTR [eax+8], esi

; 834  :         this->_Ptr->_Color = _Red;

  005e7	66 c7 40 0c 00
	00		 mov	 WORD PTR [eax+12], 0

; 1042 :         return {_Scary->_Insert_node(_Loc._Location, _Inserted), true};

  005ed	e8 00 00 00 00	 call	 ?_Insert_node@?$_Tree_val@U?$_Tree_simple_types@U?$pair@$$CBKP8CDPCoreSrvr@@AEXAAVCAr@@PAEK@Z@std@@@std@@@std@@QAEPAU?$_Tree_node@U?$pair@$$CBKP8CDPCoreSrvr@@AEXAAVCAr@@PAEK@Z@std@@PAX@2@U?$_Tree_id@PAU?$_Tree_node@U?$pair@$$CBKP8CDPCoreSrvr@@AEXAAVCAr@@PAEK@Z@std@@PAX@std@@@2@QAU32@@Z ; std::_Tree_val<std::_Tree_simple_types<std::pair<unsigned long const ,void (__thiscall CDPCoreSrvr::*)(CAr &,unsigned char *,unsigned long)> > >::_Insert_node
$LN1035@CDPCoreSrv:
; File C:\IAGOS\server\v18\Source\Source\DatabaseServer\DPCoreSrvr.cpp

; 32   : 	ON_MSG( PACKETTYPE_CD_GUILD_NOTICE, &CDPCoreSrvr::OnGuildNotice );

  005f2	8d 45 e8	 lea	 eax, DWORD PTR $T59[ebp]
; File C:\Program Files\Microsoft Visual Studio\2022\Professional\VC\Tools\MSVC\14.44.35207\include\utility

; 274  :         : first(_STD forward<_Other1>(_Val1)), second(_STD forward<_Other2>(_Val2)) {

  005f5	c7 45 e8 18 b0
	00 f0		 mov	 DWORD PTR $T59[ebp], -268390376 ; f000b018H
; File C:\IAGOS\server\v18\Source\Source\DatabaseServer\DPCoreSrvr.cpp

; 32   : 	ON_MSG( PACKETTYPE_CD_GUILD_NOTICE, &CDPCoreSrvr::OnGuildNotice );

  005fc	50		 push	 eax
  005fd	8d 45 e0	 lea	 eax, DWORD PTR $T32[ebp]
; File C:\Program Files\Microsoft Visual Studio\2022\Professional\VC\Tools\MSVC\14.44.35207\include\utility

; 274  :         : first(_STD forward<_Other1>(_Val1)), second(_STD forward<_Other2>(_Val2)) {

  00600	c7 45 ec 00 00
	00 00		 mov	 DWORD PTR $T59[ebp+4], OFFSET ?OnGuildNotice@CDPCoreSrvr@@AAEXAAVCAr@@PAEK@Z ; CDPCoreSrvr::OnGuildNotice
; File C:\IAGOS\server\v18\Source\Source\DatabaseServer\DPCoreSrvr.cpp

; 32   : 	ON_MSG( PACKETTYPE_CD_GUILD_NOTICE, &CDPCoreSrvr::OnGuildNotice );

  00607	50		 push	 eax
  00608	8b cf		 mov	 ecx, edi
  0060a	e8 00 00 00 00	 call	 ??$insert@$0A@$0A@@?$_Tree@V?$_Tmap_traits@KP8CDPCoreSrvr@@AEXAAVCAr@@PAEK@ZU?$less@K@std@@V?$allocator@U?$pair@$$CBKP8CDPCoreSrvr@@AEXAAVCAr@@PAEK@Z@std@@@4@$0A@@std@@@std@@QAE?AU?$pair@V?$_Tree_iterator@V?$_Tree_val@U?$_Tree_simple_types@U?$pair@$$CBKP8CDPCoreSrvr@@AEXAAVCAr@@PAEK@Z@std@@@std@@@std@@@std@@_N@1@$$QAU?$pair@$$CBKP8CDPCoreSrvr@@AEXAAVCAr@@PAEK@Z@1@@Z ; std::_Tree<std::_Tmap_traits<unsigned long,void (__thiscall CDPCoreSrvr::*)(CAr &,unsigned char *,unsigned long),std::less<unsigned long>,std::allocator<std::pair<unsigned long const ,void (__thiscall CDPCoreSrvr::*)(CAr &,unsigned char *,unsigned long)> >,0> >::insert<0,0>

; 33   : 	ON_MSG( PACKETTYPE_GUILD_AUTHORITY, &CDPCoreSrvr::OnGuildAuthority );

  0060f	8d 45 e8	 lea	 eax, DWORD PTR $T60[ebp]
; File C:\Program Files\Microsoft Visual Studio\2022\Professional\VC\Tools\MSVC\14.44.35207\include\utility

; 274  :         : first(_STD forward<_Other1>(_Val1)), second(_STD forward<_Other2>(_Val2)) {

  00612	c7 45 e8 26 b0
	00 f0		 mov	 DWORD PTR $T60[ebp], -268390362 ; f000b026H
; File C:\IAGOS\server\v18\Source\Source\DatabaseServer\DPCoreSrvr.cpp

; 33   : 	ON_MSG( PACKETTYPE_GUILD_AUTHORITY, &CDPCoreSrvr::OnGuildAuthority );

  00619	50		 push	 eax
  0061a	8d 45 e0	 lea	 eax, DWORD PTR $T34[ebp]
; File C:\Program Files\Microsoft Visual Studio\2022\Professional\VC\Tools\MSVC\14.44.35207\include\utility

; 274  :         : first(_STD forward<_Other1>(_Val1)), second(_STD forward<_Other2>(_Val2)) {

  0061d	c7 45 ec 00 00
	00 00		 mov	 DWORD PTR $T60[ebp+4], OFFSET ?OnGuildAuthority@CDPCoreSrvr@@AAEXAAVCAr@@PAEK@Z ; CDPCoreSrvr::OnGuildAuthority
; File C:\IAGOS\server\v18\Source\Source\DatabaseServer\DPCoreSrvr.cpp

; 33   : 	ON_MSG( PACKETTYPE_GUILD_AUTHORITY, &CDPCoreSrvr::OnGuildAuthority );

  00624	50		 push	 eax
  00625	8b cf		 mov	 ecx, edi
  00627	e8 00 00 00 00	 call	 ??$insert@$0A@$0A@@?$_Tree@V?$_Tmap_traits@KP8CDPCoreSrvr@@AEXAAVCAr@@PAEK@ZU?$less@K@std@@V?$allocator@U?$pair@$$CBKP8CDPCoreSrvr@@AEXAAVCAr@@PAEK@Z@std@@@4@$0A@@std@@@std@@QAE?AU?$pair@V?$_Tree_iterator@V?$_Tree_val@U?$_Tree_simple_types@U?$pair@$$CBKP8CDPCoreSrvr@@AEXAAVCAr@@PAEK@Z@std@@@std@@@std@@@std@@_N@1@$$QAU?$pair@$$CBKP8CDPCoreSrvr@@AEXAAVCAr@@PAEK@Z@1@@Z ; std::_Tree<std::_Tmap_traits<unsigned long,void (__thiscall CDPCoreSrvr::*)(CAr &,unsigned char *,unsigned long),std::less<unsigned long>,std::allocator<std::pair<unsigned long const ,void (__thiscall CDPCoreSrvr::*)(CAr &,unsigned char *,unsigned long)> >,0> >::insert<0,0>

; 34   : 	ON_MSG( PACKETTYPE_GUILD_PENYA, &CDPCoreSrvr::OnGuildPenya );

  0062c	8d 45 e8	 lea	 eax, DWORD PTR $T62[ebp]
; File C:\Program Files\Microsoft Visual Studio\2022\Professional\VC\Tools\MSVC\14.44.35207\include\utility

; 274  :         : first(_STD forward<_Other1>(_Val1)), second(_STD forward<_Other2>(_Val2)) {

  0062f	c7 45 e8 27 b0
	00 f0		 mov	 DWORD PTR $T62[ebp], -268390361 ; f000b027H
; File C:\IAGOS\server\v18\Source\Source\DatabaseServer\DPCoreSrvr.cpp

; 34   : 	ON_MSG( PACKETTYPE_GUILD_PENYA, &CDPCoreSrvr::OnGuildPenya );

  00636	50		 push	 eax
  00637	8d 45 e0	 lea	 eax, DWORD PTR $T22[ebp]
; File C:\Program Files\Microsoft Visual Studio\2022\Professional\VC\Tools\MSVC\14.44.35207\include\utility

; 274  :         : first(_STD forward<_Other1>(_Val1)), second(_STD forward<_Other2>(_Val2)) {

  0063a	c7 45 ec 00 00
	00 00		 mov	 DWORD PTR $T62[ebp+4], OFFSET ?OnGuildPenya@CDPCoreSrvr@@AAEXAAVCAr@@PAEK@Z ; CDPCoreSrvr::OnGuildPenya
; File C:\IAGOS\server\v18\Source\Source\DatabaseServer\DPCoreSrvr.cpp

; 34   : 	ON_MSG( PACKETTYPE_GUILD_PENYA, &CDPCoreSrvr::OnGuildPenya );

  00641	50		 push	 eax
  00642	8b cf		 mov	 ecx, edi
  00644	e8 00 00 00 00	 call	 ??$insert@$0A@$0A@@?$_Tree@V?$_Tmap_traits@KP8CDPCoreSrvr@@AEXAAVCAr@@PAEK@ZU?$less@K@std@@V?$allocator@U?$pair@$$CBKP8CDPCoreSrvr@@AEXAAVCAr@@PAEK@Z@std@@@4@$0A@@std@@@std@@QAE?AU?$pair@V?$_Tree_iterator@V?$_Tree_val@U?$_Tree_simple_types@U?$pair@$$CBKP8CDPCoreSrvr@@AEXAAVCAr@@PAEK@Z@std@@@std@@@std@@@std@@_N@1@$$QAU?$pair@$$CBKP8CDPCoreSrvr@@AEXAAVCAr@@PAEK@Z@1@@Z ; std::_Tree<std::_Tmap_traits<unsigned long,void (__thiscall CDPCoreSrvr::*)(CAr &,unsigned char *,unsigned long),std::less<unsigned long>,std::allocator<std::pair<unsigned long const ,void (__thiscall CDPCoreSrvr::*)(CAr &,unsigned char *,unsigned long)> >,0> >::insert<0,0>

; 35   : 	ON_MSG( PACKETTYPE_GUILD_SETNAME, &CDPCoreSrvr::OnGuildSetName );

  00649	8d 45 e8	 lea	 eax, DWORD PTR $T63[ebp]
; File C:\Program Files\Microsoft Visual Studio\2022\Professional\VC\Tools\MSVC\14.44.35207\include\utility

; 274  :         : first(_STD forward<_Other1>(_Val1)), second(_STD forward<_Other2>(_Val2)) {

  0064c	c7 45 e8 32 b0
	00 f0		 mov	 DWORD PTR $T63[ebp], -268390350 ; f000b032H
; File C:\IAGOS\server\v18\Source\Source\DatabaseServer\DPCoreSrvr.cpp

; 35   : 	ON_MSG( PACKETTYPE_GUILD_SETNAME, &CDPCoreSrvr::OnGuildSetName );

  00653	50		 push	 eax
  00654	8d 45 e0	 lea	 eax, DWORD PTR $T24[ebp]
; File C:\Program Files\Microsoft Visual Studio\2022\Professional\VC\Tools\MSVC\14.44.35207\include\utility

; 274  :         : first(_STD forward<_Other1>(_Val1)), second(_STD forward<_Other2>(_Val2)) {

  00657	c7 45 ec 00 00
	00 00		 mov	 DWORD PTR $T63[ebp+4], OFFSET ?OnGuildSetName@CDPCoreSrvr@@AAEXAAVCAr@@PAEK@Z ; CDPCoreSrvr::OnGuildSetName
; File C:\IAGOS\server\v18\Source\Source\DatabaseServer\DPCoreSrvr.cpp

; 35   : 	ON_MSG( PACKETTYPE_GUILD_SETNAME, &CDPCoreSrvr::OnGuildSetName );

  0065e	50		 push	 eax
  0065f	8b cf		 mov	 ecx, edi
  00661	e8 00 00 00 00	 call	 ??$insert@$0A@$0A@@?$_Tree@V?$_Tmap_traits@KP8CDPCoreSrvr@@AEXAAVCAr@@PAEK@ZU?$less@K@std@@V?$allocator@U?$pair@$$CBKP8CDPCoreSrvr@@AEXAAVCAr@@PAEK@Z@std@@@4@$0A@@std@@@std@@QAE?AU?$pair@V?$_Tree_iterator@V?$_Tree_val@U?$_Tree_simple_types@U?$pair@$$CBKP8CDPCoreSrvr@@AEXAAVCAr@@PAEK@Z@std@@@std@@@std@@@std@@_N@1@$$QAU?$pair@$$CBKP8CDPCoreSrvr@@AEXAAVCAr@@PAEK@Z@1@@Z ; std::_Tree<std::_Tmap_traits<unsigned long,void (__thiscall CDPCoreSrvr::*)(CAr &,unsigned char *,unsigned long),std::less<unsigned long>,std::allocator<std::pair<unsigned long const ,void (__thiscall CDPCoreSrvr::*)(CAr &,unsigned char *,unsigned long)> >,0> >::insert<0,0>

; 36   : 	ON_MSG( PACKETTYPE_GUILD_MEMBER_LEVEL, &CDPCoreSrvr::OnGuildMemberLv );

  00666	8d 45 e8	 lea	 eax, DWORD PTR $T65[ebp]
; File C:\Program Files\Microsoft Visual Studio\2022\Professional\VC\Tools\MSVC\14.44.35207\include\utility

; 274  :         : first(_STD forward<_Other1>(_Val1)), second(_STD forward<_Other2>(_Val2)) {

  00669	c7 45 e8 3a ff
	ff ff		 mov	 DWORD PTR $T65[ebp], -198 ; ffffff3aH
; File C:\IAGOS\server\v18\Source\Source\DatabaseServer\DPCoreSrvr.cpp

; 36   : 	ON_MSG( PACKETTYPE_GUILD_MEMBER_LEVEL, &CDPCoreSrvr::OnGuildMemberLv );

  00670	50		 push	 eax
  00671	8d 45 e0	 lea	 eax, DWORD PTR $T39[ebp]
; File C:\Program Files\Microsoft Visual Studio\2022\Professional\VC\Tools\MSVC\14.44.35207\include\utility

; 274  :         : first(_STD forward<_Other1>(_Val1)), second(_STD forward<_Other2>(_Val2)) {

  00674	c7 45 ec 00 00
	00 00		 mov	 DWORD PTR $T65[ebp+4], OFFSET ?OnGuildMemberLv@CDPCoreSrvr@@AAEXAAVCAr@@PAEK@Z ; CDPCoreSrvr::OnGuildMemberLv
; File C:\IAGOS\server\v18\Source\Source\DatabaseServer\DPCoreSrvr.cpp

; 36   : 	ON_MSG( PACKETTYPE_GUILD_MEMBER_LEVEL, &CDPCoreSrvr::OnGuildMemberLv );

  0067b	50		 push	 eax
  0067c	8b cf		 mov	 ecx, edi
  0067e	e8 00 00 00 00	 call	 ??$insert@$0A@$0A@@?$_Tree@V?$_Tmap_traits@KP8CDPCoreSrvr@@AEXAAVCAr@@PAEK@ZU?$less@K@std@@V?$allocator@U?$pair@$$CBKP8CDPCoreSrvr@@AEXAAVCAr@@PAEK@Z@std@@@4@$0A@@std@@@std@@QAE?AU?$pair@V?$_Tree_iterator@V?$_Tree_val@U?$_Tree_simple_types@U?$pair@$$CBKP8CDPCoreSrvr@@AEXAAVCAr@@PAEK@Z@std@@@std@@@std@@@std@@_N@1@$$QAU?$pair@$$CBKP8CDPCoreSrvr@@AEXAAVCAr@@PAEK@Z@1@@Z ; std::_Tree<std::_Tmap_traits<unsigned long,void (__thiscall CDPCoreSrvr::*)(CAr &,unsigned char *,unsigned long),std::less<unsigned long>,std::allocator<std::pair<unsigned long const ,void (__thiscall CDPCoreSrvr::*)(CAr &,unsigned char *,unsigned long)> >,0> >::insert<0,0>

; 37   : 	ON_MSG( PACKETTYPE_GUILD_CLASS, &CDPCoreSrvr::OnGuildClass );

  00683	8d 45 e8	 lea	 eax, DWORD PTR $T66[ebp]
; File C:\Program Files\Microsoft Visual Studio\2022\Professional\VC\Tools\MSVC\14.44.35207\include\utility

; 274  :         : first(_STD forward<_Other1>(_Val1)), second(_STD forward<_Other2>(_Val2)) {

  00686	c7 45 e8 74 ff
	ff ff		 mov	 DWORD PTR $T66[ebp], -140 ; ffffff74H
; File C:\IAGOS\server\v18\Source\Source\DatabaseServer\DPCoreSrvr.cpp

; 37   : 	ON_MSG( PACKETTYPE_GUILD_CLASS, &CDPCoreSrvr::OnGuildClass );

  0068d	50		 push	 eax
  0068e	8d 45 e0	 lea	 eax, DWORD PTR $T27[ebp]
; File C:\Program Files\Microsoft Visual Studio\2022\Professional\VC\Tools\MSVC\14.44.35207\include\utility

; 274  :         : first(_STD forward<_Other1>(_Val1)), second(_STD forward<_Other2>(_Val2)) {

  00691	c7 45 ec 00 00
	00 00		 mov	 DWORD PTR $T66[ebp+4], OFFSET ?OnGuildClass@CDPCoreSrvr@@AAEXAAVCAr@@PAEK@Z ; CDPCoreSrvr::OnGuildClass
; File C:\IAGOS\server\v18\Source\Source\DatabaseServer\DPCoreSrvr.cpp

; 37   : 	ON_MSG( PACKETTYPE_GUILD_CLASS, &CDPCoreSrvr::OnGuildClass );

  00698	50		 push	 eax
  00699	8b cf		 mov	 ecx, edi
  0069b	e8 00 00 00 00	 call	 ??$insert@$0A@$0A@@?$_Tree@V?$_Tmap_traits@KP8CDPCoreSrvr@@AEXAAVCAr@@PAEK@ZU?$less@K@std@@V?$allocator@U?$pair@$$CBKP8CDPCoreSrvr@@AEXAAVCAr@@PAEK@Z@std@@@4@$0A@@std@@@std@@QAE?AU?$pair@V?$_Tree_iterator@V?$_Tree_val@U?$_Tree_simple_types@U?$pair@$$CBKP8CDPCoreSrvr@@AEXAAVCAr@@PAEK@Z@std@@@std@@@std@@@std@@_N@1@$$QAU?$pair@$$CBKP8CDPCoreSrvr@@AEXAAVCAr@@PAEK@Z@1@@Z ; std::_Tree<std::_Tmap_traits<unsigned long,void (__thiscall CDPCoreSrvr::*)(CAr &,unsigned char *,unsigned long),std::less<unsigned long>,std::allocator<std::pair<unsigned long const ,void (__thiscall CDPCoreSrvr::*)(CAr &,unsigned char *,unsigned long)> >,0> >::insert<0,0>

; 38   : 	ON_MSG( PACKETTYPE_GUILD_NICKNAME, &CDPCoreSrvr::OnGuildNickName );

  006a0	8d 45 e8	 lea	 eax, DWORD PTR $T68[ebp]
; File C:\Program Files\Microsoft Visual Studio\2022\Professional\VC\Tools\MSVC\14.44.35207\include\utility

; 274  :         : first(_STD forward<_Other1>(_Val1)), second(_STD forward<_Other2>(_Val2)) {

  006a3	c7 45 e8 75 ff
	ff ff		 mov	 DWORD PTR $T68[ebp], -139 ; ffffff75H
; File C:\IAGOS\server\v18\Source\Source\DatabaseServer\DPCoreSrvr.cpp

; 38   : 	ON_MSG( PACKETTYPE_GUILD_NICKNAME, &CDPCoreSrvr::OnGuildNickName );

  006aa	50		 push	 eax
  006ab	8d 45 e0	 lea	 eax, DWORD PTR $T29[ebp]
; File C:\Program Files\Microsoft Visual Studio\2022\Professional\VC\Tools\MSVC\14.44.35207\include\utility

; 274  :         : first(_STD forward<_Other1>(_Val1)), second(_STD forward<_Other2>(_Val2)) {

  006ae	c7 45 ec 00 00
	00 00		 mov	 DWORD PTR $T68[ebp+4], OFFSET ?OnGuildNickName@CDPCoreSrvr@@AAEXAAVCAr@@PAEK@Z ; CDPCoreSrvr::OnGuildNickName
; File C:\IAGOS\server\v18\Source\Source\DatabaseServer\DPCoreSrvr.cpp

; 38   : 	ON_MSG( PACKETTYPE_GUILD_NICKNAME, &CDPCoreSrvr::OnGuildNickName );

  006b5	50		 push	 eax
  006b6	8b cf		 mov	 ecx, edi
  006b8	e8 00 00 00 00	 call	 ??$insert@$0A@$0A@@?$_Tree@V?$_Tmap_traits@KP8CDPCoreSrvr@@AEXAAVCAr@@PAEK@ZU?$less@K@std@@V?$allocator@U?$pair@$$CBKP8CDPCoreSrvr@@AEXAAVCAr@@PAEK@Z@std@@@4@$0A@@std@@@std@@QAE?AU?$pair@V?$_Tree_iterator@V?$_Tree_val@U?$_Tree_simple_types@U?$pair@$$CBKP8CDPCoreSrvr@@AEXAAVCAr@@PAEK@Z@std@@@std@@@std@@@std@@_N@1@$$QAU?$pair@$$CBKP8CDPCoreSrvr@@AEXAAVCAr@@PAEK@Z@1@@Z ; std::_Tree<std::_Tmap_traits<unsigned long,void (__thiscall CDPCoreSrvr::*)(CAr &,unsigned char *,unsigned long),std::less<unsigned long>,std::allocator<std::pair<unsigned long const ,void (__thiscall CDPCoreSrvr::*)(CAr &,unsigned char *,unsigned long)> >,0> >::insert<0,0>

; 39   : 	ON_MSG( PACKETTYPE_ACPT_GUILD_WAR, &CDPCoreSrvr::OnAcptWar );

  006bd	8d 45 e8	 lea	 eax, DWORD PTR $T69[ebp]
; File C:\Program Files\Microsoft Visual Studio\2022\Professional\VC\Tools\MSVC\14.44.35207\include\utility

; 274  :         : first(_STD forward<_Other1>(_Val1)), second(_STD forward<_Other2>(_Val2)) {

  006c0	c7 45 e8 37 b0
	00 f0		 mov	 DWORD PTR $T69[ebp], -268390345 ; f000b037H
; File C:\IAGOS\server\v18\Source\Source\DatabaseServer\DPCoreSrvr.cpp

; 39   : 	ON_MSG( PACKETTYPE_ACPT_GUILD_WAR, &CDPCoreSrvr::OnAcptWar );

  006c7	50		 push	 eax
  006c8	8d 45 e0	 lea	 eax, DWORD PTR $T33[ebp]
; File C:\Program Files\Microsoft Visual Studio\2022\Professional\VC\Tools\MSVC\14.44.35207\include\utility

; 274  :         : first(_STD forward<_Other1>(_Val1)), second(_STD forward<_Other2>(_Val2)) {

  006cb	c7 45 ec 00 00
	00 00		 mov	 DWORD PTR $T69[ebp+4], OFFSET ?OnAcptWar@CDPCoreSrvr@@AAEXAAVCAr@@PAEK@Z ; CDPCoreSrvr::OnAcptWar
; File C:\IAGOS\server\v18\Source\Source\DatabaseServer\DPCoreSrvr.cpp

; 39   : 	ON_MSG( PACKETTYPE_ACPT_GUILD_WAR, &CDPCoreSrvr::OnAcptWar );

  006d2	50		 push	 eax
  006d3	8b cf		 mov	 ecx, edi
  006d5	e8 00 00 00 00	 call	 ??$insert@$0A@$0A@@?$_Tree@V?$_Tmap_traits@KP8CDPCoreSrvr@@AEXAAVCAr@@PAEK@ZU?$less@K@std@@V?$allocator@U?$pair@$$CBKP8CDPCoreSrvr@@AEXAAVCAr@@PAEK@Z@std@@@4@$0A@@std@@@std@@QAE?AU?$pair@V?$_Tree_iterator@V?$_Tree_val@U?$_Tree_simple_types@U?$pair@$$CBKP8CDPCoreSrvr@@AEXAAVCAr@@PAEK@Z@std@@@std@@@std@@@std@@_N@1@$$QAU?$pair@$$CBKP8CDPCoreSrvr@@AEXAAVCAr@@PAEK@Z@1@@Z ; std::_Tree<std::_Tmap_traits<unsigned long,void (__thiscall CDPCoreSrvr::*)(CAr &,unsigned char *,unsigned long),std::less<unsigned long>,std::allocator<std::pair<unsigned long const ,void (__thiscall CDPCoreSrvr::*)(CAr &,unsigned char *,unsigned long)> >,0> >::insert<0,0>

; 40   : 	ON_MSG( PACKETTYPE_WAR_END, &CDPCoreSrvr::OnWarEnd );

  006da	8d 45 e8	 lea	 eax, DWORD PTR $T71[ebp]
; File C:\Program Files\Microsoft Visual Studio\2022\Professional\VC\Tools\MSVC\14.44.35207\include\utility

; 274  :         : first(_STD forward<_Other1>(_Val1)), second(_STD forward<_Other2>(_Val2)) {

  006dd	c7 45 e8 46 b0
	00 f0		 mov	 DWORD PTR $T71[ebp], -268390330 ; f000b046H
; File C:\IAGOS\server\v18\Source\Source\DatabaseServer\DPCoreSrvr.cpp

; 40   : 	ON_MSG( PACKETTYPE_WAR_END, &CDPCoreSrvr::OnWarEnd );

  006e4	50		 push	 eax
  006e5	8d 45 e0	 lea	 eax, DWORD PTR $T23[ebp]
; File C:\Program Files\Microsoft Visual Studio\2022\Professional\VC\Tools\MSVC\14.44.35207\include\utility

; 274  :         : first(_STD forward<_Other1>(_Val1)), second(_STD forward<_Other2>(_Val2)) {

  006e8	c7 45 ec 00 00
	00 00		 mov	 DWORD PTR $T71[ebp+4], OFFSET ?OnWarEnd@CDPCoreSrvr@@AAEXAAVCAr@@PAEK@Z ; CDPCoreSrvr::OnWarEnd
; File C:\IAGOS\server\v18\Source\Source\DatabaseServer\DPCoreSrvr.cpp

; 40   : 	ON_MSG( PACKETTYPE_WAR_END, &CDPCoreSrvr::OnWarEnd );

  006ef	50		 push	 eax
  006f0	8b cf		 mov	 ecx, edi
  006f2	e8 00 00 00 00	 call	 ??$insert@$0A@$0A@@?$_Tree@V?$_Tmap_traits@KP8CDPCoreSrvr@@AEXAAVCAr@@PAEK@ZU?$less@K@std@@V?$allocator@U?$pair@$$CBKP8CDPCoreSrvr@@AEXAAVCAr@@PAEK@Z@std@@@4@$0A@@std@@@std@@QAE?AU?$pair@V?$_Tree_iterator@V?$_Tree_val@U?$_Tree_simple_types@U?$pair@$$CBKP8CDPCoreSrvr@@AEXAAVCAr@@PAEK@Z@std@@@std@@@std@@@std@@_N@1@$$QAU?$pair@$$CBKP8CDPCoreSrvr@@AEXAAVCAr@@PAEK@Z@1@@Z ; std::_Tree<std::_Tmap_traits<unsigned long,void (__thiscall CDPCoreSrvr::*)(CAr &,unsigned char *,unsigned long),std::less<unsigned long>,std::allocator<std::pair<unsigned long const ,void (__thiscall CDPCoreSrvr::*)(CAr &,unsigned char *,unsigned long)> >,0> >::insert<0,0>

; 41   : 	ON_MSG( PACKETTYPE_SURRENDER, &CDPCoreSrvr::OnSurrender );

  006f7	8d 45 e8	 lea	 eax, DWORD PTR $T72[ebp]
; File C:\Program Files\Microsoft Visual Studio\2022\Professional\VC\Tools\MSVC\14.44.35207\include\utility

; 274  :         : first(_STD forward<_Other1>(_Val1)), second(_STD forward<_Other2>(_Val2)) {

  006fa	c7 45 e8 47 b0
	00 f0		 mov	 DWORD PTR $T72[ebp], -268390329 ; f000b047H
; File C:\IAGOS\server\v18\Source\Source\DatabaseServer\DPCoreSrvr.cpp

; 41   : 	ON_MSG( PACKETTYPE_SURRENDER, &CDPCoreSrvr::OnSurrender );

  00701	50		 push	 eax
  00702	8d 45 e0	 lea	 eax, DWORD PTR $T30[ebp]
; File C:\Program Files\Microsoft Visual Studio\2022\Professional\VC\Tools\MSVC\14.44.35207\include\utility

; 274  :         : first(_STD forward<_Other1>(_Val1)), second(_STD forward<_Other2>(_Val2)) {

  00705	c7 45 ec 00 00
	00 00		 mov	 DWORD PTR $T72[ebp+4], OFFSET ?OnSurrender@CDPCoreSrvr@@AAEXAAVCAr@@PAEK@Z ; CDPCoreSrvr::OnSurrender
; File C:\IAGOS\server\v18\Source\Source\DatabaseServer\DPCoreSrvr.cpp

; 41   : 	ON_MSG( PACKETTYPE_SURRENDER, &CDPCoreSrvr::OnSurrender );

  0070c	50		 push	 eax
  0070d	8b cf		 mov	 ecx, edi
  0070f	e8 00 00 00 00	 call	 ??$insert@$0A@$0A@@?$_Tree@V?$_Tmap_traits@KP8CDPCoreSrvr@@AEXAAVCAr@@PAEK@ZU?$less@K@std@@V?$allocator@U?$pair@$$CBKP8CDPCoreSrvr@@AEXAAVCAr@@PAEK@Z@std@@@4@$0A@@std@@@std@@QAE?AU?$pair@V?$_Tree_iterator@V?$_Tree_val@U?$_Tree_simple_types@U?$pair@$$CBKP8CDPCoreSrvr@@AEXAAVCAr@@PAEK@Z@std@@@std@@@std@@@std@@_N@1@$$QAU?$pair@$$CBKP8CDPCoreSrvr@@AEXAAVCAr@@PAEK@Z@1@@Z ; std::_Tree<std::_Tmap_traits<unsigned long,void (__thiscall CDPCoreSrvr::*)(CAr &,unsigned char *,unsigned long),std::less<unsigned long>,std::allocator<std::pair<unsigned long const ,void (__thiscall CDPCoreSrvr::*)(CAr &,unsigned char *,unsigned long)> >,0> >::insert<0,0>
; File C:\Program Files\Microsoft Visual Studio\2022\Professional\VC\Tools\MSVC\14.44.35207\include\utility

; 274  :         : first(_STD forward<_Other1>(_Val1)), second(_STD forward<_Other2>(_Val2)) {

  00714	c7 45 e8 45 b0
	00 f0		 mov	 DWORD PTR $T74[ebp], -268390331 ; f000b045H
; File C:\IAGOS\server\v18\Source\Source\DatabaseServer\DPCoreSrvr.cpp

; 42   : 	ON_MSG( PACKETTYPE_WAR_DEAD, &CDPCoreSrvr::OnWarDead );

  0071b	8d 45 e8	 lea	 eax, DWORD PTR $T74[ebp]
; File C:\Program Files\Microsoft Visual Studio\2022\Professional\VC\Tools\MSVC\14.44.35207\include\utility

; 274  :         : first(_STD forward<_Other1>(_Val1)), second(_STD forward<_Other2>(_Val2)) {

  0071e	c7 45 ec 00 00
	00 00		 mov	 DWORD PTR $T74[ebp+4], OFFSET ?OnWarDead@CDPCoreSrvr@@AAEXAAVCAr@@PAEK@Z ; CDPCoreSrvr::OnWarDead
; File C:\IAGOS\server\v18\Source\Source\DatabaseServer\DPCoreSrvr.cpp

; 42   : 	ON_MSG( PACKETTYPE_WAR_DEAD, &CDPCoreSrvr::OnWarDead );

  00725	50		 push	 eax
  00726	8d 45 e0	 lea	 eax, DWORD PTR $T31[ebp]
  00729	8b cf		 mov	 ecx, edi
  0072b	50		 push	 eax
  0072c	e8 00 00 00 00	 call	 ??$insert@$0A@$0A@@?$_Tree@V?$_Tmap_traits@KP8CDPCoreSrvr@@AEXAAVCAr@@PAEK@ZU?$less@K@std@@V?$allocator@U?$pair@$$CBKP8CDPCoreSrvr@@AEXAAVCAr@@PAEK@Z@std@@@4@$0A@@std@@@std@@QAE?AU?$pair@V?$_Tree_iterator@V?$_Tree_val@U?$_Tree_simple_types@U?$pair@$$CBKP8CDPCoreSrvr@@AEXAAVCAr@@PAEK@Z@std@@@std@@@std@@@std@@_N@1@$$QAU?$pair@$$CBKP8CDPCoreSrvr@@AEXAAVCAr@@PAEK@Z@1@@Z ; std::_Tree<std::_Tmap_traits<unsigned long,void (__thiscall CDPCoreSrvr::*)(CAr &,unsigned char *,unsigned long),std::less<unsigned long>,std::allocator<std::pair<unsigned long const ,void (__thiscall CDPCoreSrvr::*)(CAr &,unsigned char *,unsigned long)> >,0> >::insert<0,0>

; 43   : 	ON_MSG( PACKETTYPE_WAR_MASTER_ABSENT, &CDPCoreSrvr::OnWarMasterAbsent );

  00731	8d 45 e8	 lea	 eax, DWORD PTR $T75[ebp]
; File C:\Program Files\Microsoft Visual Studio\2022\Professional\VC\Tools\MSVC\14.44.35207\include\utility

; 274  :         : first(_STD forward<_Other1>(_Val1)), second(_STD forward<_Other2>(_Val2)) {

  00734	c7 45 e8 4b b0
	00 f0		 mov	 DWORD PTR $T75[ebp], -268390325 ; f000b04bH
; File C:\IAGOS\server\v18\Source\Source\DatabaseServer\DPCoreSrvr.cpp

; 43   : 	ON_MSG( PACKETTYPE_WAR_MASTER_ABSENT, &CDPCoreSrvr::OnWarMasterAbsent );

  0073b	50		 push	 eax
  0073c	8d 45 e0	 lea	 eax, DWORD PTR $T25[ebp]
; File C:\Program Files\Microsoft Visual Studio\2022\Professional\VC\Tools\MSVC\14.44.35207\include\utility

; 274  :         : first(_STD forward<_Other1>(_Val1)), second(_STD forward<_Other2>(_Val2)) {

  0073f	c7 45 ec 00 00
	00 00		 mov	 DWORD PTR $T75[ebp+4], OFFSET ?OnWarMasterAbsent@CDPCoreSrvr@@AAEXAAVCAr@@PAEK@Z ; CDPCoreSrvr::OnWarMasterAbsent
; File C:\IAGOS\server\v18\Source\Source\DatabaseServer\DPCoreSrvr.cpp

; 43   : 	ON_MSG( PACKETTYPE_WAR_MASTER_ABSENT, &CDPCoreSrvr::OnWarMasterAbsent );

  00746	50		 push	 eax
  00747	8b cf		 mov	 ecx, edi
  00749	e8 00 00 00 00	 call	 ??$insert@$0A@$0A@@?$_Tree@V?$_Tmap_traits@KP8CDPCoreSrvr@@AEXAAVCAr@@PAEK@ZU?$less@K@std@@V?$allocator@U?$pair@$$CBKP8CDPCoreSrvr@@AEXAAVCAr@@PAEK@Z@std@@@4@$0A@@std@@@std@@QAE?AU?$pair@V?$_Tree_iterator@V?$_Tree_val@U?$_Tree_simple_types@U?$pair@$$CBKP8CDPCoreSrvr@@AEXAAVCAr@@PAEK@Z@std@@@std@@@std@@@std@@_N@1@$$QAU?$pair@$$CBKP8CDPCoreSrvr@@AEXAAVCAr@@PAEK@Z@1@@Z ; std::_Tree<std::_Tmap_traits<unsigned long,void (__thiscall CDPCoreSrvr::*)(CAr &,unsigned char *,unsigned long),std::less<unsigned long>,std::allocator<std::pair<unsigned long const ,void (__thiscall CDPCoreSrvr::*)(CAr &,unsigned char *,unsigned long)> >,0> >::insert<0,0>

; 44   : 	ON_MSG( PACKETTYPE_CD_ADDVOTE ,			&CDPCoreSrvr::OnAddVote );

  0074e	8d 45 e8	 lea	 eax, DWORD PTR $T77[ebp]
; File C:\Program Files\Microsoft Visual Studio\2022\Professional\VC\Tools\MSVC\14.44.35207\include\utility

; 274  :         : first(_STD forward<_Other1>(_Val1)), second(_STD forward<_Other2>(_Val2)) {

  00751	c7 45 e8 3c b0
	00 f0		 mov	 DWORD PTR $T77[ebp], -268390340 ; f000b03cH
; File C:\IAGOS\server\v18\Source\Source\DatabaseServer\DPCoreSrvr.cpp

; 44   : 	ON_MSG( PACKETTYPE_CD_ADDVOTE ,			&CDPCoreSrvr::OnAddVote );

  00758	50		 push	 eax
  00759	8d 45 e0	 lea	 eax, DWORD PTR $T35[ebp]
; File C:\Program Files\Microsoft Visual Studio\2022\Professional\VC\Tools\MSVC\14.44.35207\include\utility

; 274  :         : first(_STD forward<_Other1>(_Val1)), second(_STD forward<_Other2>(_Val2)) {

  0075c	c7 45 ec 00 00
	00 00		 mov	 DWORD PTR $T77[ebp+4], OFFSET ?OnAddVote@CDPCoreSrvr@@AAEXAAVCAr@@PAEK@Z ; CDPCoreSrvr::OnAddVote
; File C:\IAGOS\server\v18\Source\Source\DatabaseServer\DPCoreSrvr.cpp

; 44   : 	ON_MSG( PACKETTYPE_CD_ADDVOTE ,			&CDPCoreSrvr::OnAddVote );

  00763	50		 push	 eax
  00764	8b cf		 mov	 ecx, edi
  00766	e8 00 00 00 00	 call	 ??$insert@$0A@$0A@@?$_Tree@V?$_Tmap_traits@KP8CDPCoreSrvr@@AEXAAVCAr@@PAEK@ZU?$less@K@std@@V?$allocator@U?$pair@$$CBKP8CDPCoreSrvr@@AEXAAVCAr@@PAEK@Z@std@@@4@$0A@@std@@@std@@QAE?AU?$pair@V?$_Tree_iterator@V?$_Tree_val@U?$_Tree_simple_types@U?$pair@$$CBKP8CDPCoreSrvr@@AEXAAVCAr@@PAEK@Z@std@@@std@@@std@@@std@@_N@1@$$QAU?$pair@$$CBKP8CDPCoreSrvr@@AEXAAVCAr@@PAEK@Z@1@@Z ; std::_Tree<std::_Tmap_traits<unsigned long,void (__thiscall CDPCoreSrvr::*)(CAr &,unsigned char *,unsigned long),std::less<unsigned long>,std::allocator<std::pair<unsigned long const ,void (__thiscall CDPCoreSrvr::*)(CAr &,unsigned char *,unsigned long)> >,0> >::insert<0,0>

; 45   : 	ON_MSG( PACKETTYPE_CD_REMOVEVOTE,		&CDPCoreSrvr::OnRemoveVote );

  0076b	8d 45 e8	 lea	 eax, DWORD PTR $T78[ebp]
; File C:\Program Files\Microsoft Visual Studio\2022\Professional\VC\Tools\MSVC\14.44.35207\include\utility

; 274  :         : first(_STD forward<_Other1>(_Val1)), second(_STD forward<_Other2>(_Val2)) {

  0076e	c7 45 e8 3d b0
	00 f0		 mov	 DWORD PTR $T78[ebp], -268390339 ; f000b03dH
; File C:\IAGOS\server\v18\Source\Source\DatabaseServer\DPCoreSrvr.cpp

; 45   : 	ON_MSG( PACKETTYPE_CD_REMOVEVOTE,		&CDPCoreSrvr::OnRemoveVote );

  00775	50		 push	 eax
  00776	8d 45 e0	 lea	 eax, DWORD PTR $T28[ebp]
; File C:\Program Files\Microsoft Visual Studio\2022\Professional\VC\Tools\MSVC\14.44.35207\include\utility

; 274  :         : first(_STD forward<_Other1>(_Val1)), second(_STD forward<_Other2>(_Val2)) {

  00779	c7 45 ec 00 00
	00 00		 mov	 DWORD PTR $T78[ebp+4], OFFSET ?OnRemoveVote@CDPCoreSrvr@@AAEXAAVCAr@@PAEK@Z ; CDPCoreSrvr::OnRemoveVote
; File C:\IAGOS\server\v18\Source\Source\DatabaseServer\DPCoreSrvr.cpp

; 45   : 	ON_MSG( PACKETTYPE_CD_REMOVEVOTE,		&CDPCoreSrvr::OnRemoveVote );

  00780	50		 push	 eax
  00781	8b cf		 mov	 ecx, edi
  00783	e8 00 00 00 00	 call	 ??$insert@$0A@$0A@@?$_Tree@V?$_Tmap_traits@KP8CDPCoreSrvr@@AEXAAVCAr@@PAEK@ZU?$less@K@std@@V?$allocator@U?$pair@$$CBKP8CDPCoreSrvr@@AEXAAVCAr@@PAEK@Z@std@@@4@$0A@@std@@@std@@QAE?AU?$pair@V?$_Tree_iterator@V?$_Tree_val@U?$_Tree_simple_types@U?$pair@$$CBKP8CDPCoreSrvr@@AEXAAVCAr@@PAEK@Z@std@@@std@@@std@@@std@@_N@1@$$QAU?$pair@$$CBKP8CDPCoreSrvr@@AEXAAVCAr@@PAEK@Z@1@@Z ; std::_Tree<std::_Tmap_traits<unsigned long,void (__thiscall CDPCoreSrvr::*)(CAr &,unsigned char *,unsigned long),std::less<unsigned long>,std::allocator<std::pair<unsigned long const ,void (__thiscall CDPCoreSrvr::*)(CAr &,unsigned char *,unsigned long)> >,0> >::insert<0,0>

; 46   : 	ON_MSG( PACKETTYPE_CD_CLOSEVOTE	,		&CDPCoreSrvr::OnCloseVote );

  00788	8d 45 e8	 lea	 eax, DWORD PTR $T41[ebp]
; File C:\Program Files\Microsoft Visual Studio\2022\Professional\VC\Tools\MSVC\14.44.35207\include\utility

; 274  :         : first(_STD forward<_Other1>(_Val1)), second(_STD forward<_Other2>(_Val2)) {

  0078b	c7 45 e8 3e b0
	00 f0		 mov	 DWORD PTR $T41[ebp], -268390338 ; f000b03eH
; File C:\IAGOS\server\v18\Source\Source\DatabaseServer\DPCoreSrvr.cpp

; 46   : 	ON_MSG( PACKETTYPE_CD_CLOSEVOTE	,		&CDPCoreSrvr::OnCloseVote );

  00792	50		 push	 eax
  00793	8d 45 e0	 lea	 eax, DWORD PTR $T40[ebp]
; File C:\Program Files\Microsoft Visual Studio\2022\Professional\VC\Tools\MSVC\14.44.35207\include\utility

; 274  :         : first(_STD forward<_Other1>(_Val1)), second(_STD forward<_Other2>(_Val2)) {

  00796	c7 45 ec 00 00
	00 00		 mov	 DWORD PTR $T41[ebp+4], OFFSET ?OnCloseVote@CDPCoreSrvr@@AAEXAAVCAr@@PAEK@Z ; CDPCoreSrvr::OnCloseVote
; File C:\IAGOS\server\v18\Source\Source\DatabaseServer\DPCoreSrvr.cpp

; 46   : 	ON_MSG( PACKETTYPE_CD_CLOSEVOTE	,		&CDPCoreSrvr::OnCloseVote );

  0079d	50		 push	 eax
  0079e	8b cf		 mov	 ecx, edi
  007a0	e8 00 00 00 00	 call	 ??$insert@$0A@$0A@@?$_Tree@V?$_Tmap_traits@KP8CDPCoreSrvr@@AEXAAVCAr@@PAEK@ZU?$less@K@std@@V?$allocator@U?$pair@$$CBKP8CDPCoreSrvr@@AEXAAVCAr@@PAEK@Z@std@@@4@$0A@@std@@@std@@QAE?AU?$pair@V?$_Tree_iterator@V?$_Tree_val@U?$_Tree_simple_types@U?$pair@$$CBKP8CDPCoreSrvr@@AEXAAVCAr@@PAEK@Z@std@@@std@@@std@@@std@@_N@1@$$QAU?$pair@$$CBKP8CDPCoreSrvr@@AEXAAVCAr@@PAEK@Z@1@@Z ; std::_Tree<std::_Tmap_traits<unsigned long,void (__thiscall CDPCoreSrvr::*)(CAr &,unsigned char *,unsigned long),std::less<unsigned long>,std::allocator<std::pair<unsigned long const ,void (__thiscall CDPCoreSrvr::*)(CAr &,unsigned char *,unsigned long)> >,0> >::insert<0,0>

; 47   : 	ON_MSG( PACKETTYPE_CD_CASTVOTE	,		&CDPCoreSrvr::OnCastVote );

  007a5	8d 45 e8	 lea	 eax, DWORD PTR $T43[ebp]
; File C:\Program Files\Microsoft Visual Studio\2022\Professional\VC\Tools\MSVC\14.44.35207\include\utility

; 274  :         : first(_STD forward<_Other1>(_Val1)), second(_STD forward<_Other2>(_Val2)) {

  007a8	c7 45 e8 3f b0
	00 f0		 mov	 DWORD PTR $T43[ebp], -268390337 ; f000b03fH
; File C:\IAGOS\server\v18\Source\Source\DatabaseServer\DPCoreSrvr.cpp

; 47   : 	ON_MSG( PACKETTYPE_CD_CASTVOTE	,		&CDPCoreSrvr::OnCastVote );

  007af	50		 push	 eax
  007b0	8d 45 e0	 lea	 eax, DWORD PTR $T26[ebp]
; File C:\Program Files\Microsoft Visual Studio\2022\Professional\VC\Tools\MSVC\14.44.35207\include\utility

; 274  :         : first(_STD forward<_Other1>(_Val1)), second(_STD forward<_Other2>(_Val2)) {

  007b3	c7 45 ec 00 00
	00 00		 mov	 DWORD PTR $T43[ebp+4], OFFSET ?OnCastVote@CDPCoreSrvr@@AAEXAAVCAr@@PAEK@Z ; CDPCoreSrvr::OnCastVote
; File C:\IAGOS\server\v18\Source\Source\DatabaseServer\DPCoreSrvr.cpp

; 47   : 	ON_MSG( PACKETTYPE_CD_CASTVOTE	,		&CDPCoreSrvr::OnCastVote );

  007ba	50		 push	 eax
  007bb	8b cf		 mov	 ecx, edi
  007bd	e8 00 00 00 00	 call	 ??$insert@$0A@$0A@@?$_Tree@V?$_Tmap_traits@KP8CDPCoreSrvr@@AEXAAVCAr@@PAEK@ZU?$less@K@std@@V?$allocator@U?$pair@$$CBKP8CDPCoreSrvr@@AEXAAVCAr@@PAEK@Z@std@@@4@$0A@@std@@@std@@QAE?AU?$pair@V?$_Tree_iterator@V?$_Tree_val@U?$_Tree_simple_types@U?$pair@$$CBKP8CDPCoreSrvr@@AEXAAVCAr@@PAEK@Z@std@@@std@@@std@@@std@@_N@1@$$QAU?$pair@$$CBKP8CDPCoreSrvr@@AEXAAVCAr@@PAEK@Z@1@@Z ; std::_Tree<std::_Tmap_traits<unsigned long,void (__thiscall CDPCoreSrvr::*)(CAr &,unsigned char *,unsigned long),std::less<unsigned long>,std::allocator<std::pair<unsigned long const ,void (__thiscall CDPCoreSrvr::*)(CAr &,unsigned char *,unsigned long)> >,0> >::insert<0,0>

; 48   : 	ON_MSG( PACKETTYPE_CT_WANTED	,		&CDPCoreSrvr::OnWanted );

  007c2	8d 45 e8	 lea	 eax, DWORD PTR $T44[ebp]
; File C:\Program Files\Microsoft Visual Studio\2022\Professional\VC\Tools\MSVC\14.44.35207\include\utility

; 274  :         : first(_STD forward<_Other1>(_Val1)), second(_STD forward<_Other2>(_Val2)) {

  007c5	c7 45 e8 f8 00
	ff 00		 mov	 DWORD PTR $T44[ebp], 16711928 ; 00ff00f8H
; File C:\IAGOS\server\v18\Source\Source\DatabaseServer\DPCoreSrvr.cpp

; 48   : 	ON_MSG( PACKETTYPE_CT_WANTED	,		&CDPCoreSrvr::OnWanted );

  007cc	50		 push	 eax
  007cd	8d 45 e0	 lea	 eax, DWORD PTR $T36[ebp]
; File C:\Program Files\Microsoft Visual Studio\2022\Professional\VC\Tools\MSVC\14.44.35207\include\utility

; 274  :         : first(_STD forward<_Other1>(_Val1)), second(_STD forward<_Other2>(_Val2)) {

  007d0	c7 45 ec 00 00
	00 00		 mov	 DWORD PTR $T44[ebp+4], OFFSET ?OnWanted@CDPCoreSrvr@@AAEXAAVCAr@@PAEK@Z ; CDPCoreSrvr::OnWanted
; File C:\IAGOS\server\v18\Source\Source\DatabaseServer\DPCoreSrvr.cpp

; 48   : 	ON_MSG( PACKETTYPE_CT_WANTED	,		&CDPCoreSrvr::OnWanted );

  007d7	50		 push	 eax
  007d8	8b cf		 mov	 ecx, edi
  007da	e8 00 00 00 00	 call	 ??$insert@$0A@$0A@@?$_Tree@V?$_Tmap_traits@KP8CDPCoreSrvr@@AEXAAVCAr@@PAEK@ZU?$less@K@std@@V?$allocator@U?$pair@$$CBKP8CDPCoreSrvr@@AEXAAVCAr@@PAEK@Z@std@@@4@$0A@@std@@@std@@QAE?AU?$pair@V?$_Tree_iterator@V?$_Tree_val@U?$_Tree_simple_types@U?$pair@$$CBKP8CDPCoreSrvr@@AEXAAVCAr@@PAEK@Z@std@@@std@@@std@@@std@@_N@1@$$QAU?$pair@$$CBKP8CDPCoreSrvr@@AEXAAVCAr@@PAEK@Z@1@@Z ; std::_Tree<std::_Tmap_traits<unsigned long,void (__thiscall CDPCoreSrvr::*)(CAr &,unsigned char *,unsigned long),std::less<unsigned long>,std::allocator<std::pair<unsigned long const ,void (__thiscall CDPCoreSrvr::*)(CAr &,unsigned char *,unsigned long)> >,0> >::insert<0,0>

; 49   : 	ON_MSG( PACKETTYPE_SETSNOOPGUILD, &CDPCoreSrvr::OnSnoopGuild );

  007df	8d 45 e8	 lea	 eax, DWORD PTR $T46[ebp]
; File C:\Program Files\Microsoft Visual Studio\2022\Professional\VC\Tools\MSVC\14.44.35207\include\utility

; 274  :         : first(_STD forward<_Other1>(_Val1)), second(_STD forward<_Other2>(_Val2)) {

  007e2	c7 45 e8 22 00
	00 00		 mov	 DWORD PTR $T46[ebp], 34	; 00000022H
; File C:\IAGOS\server\v18\Source\Source\DatabaseServer\DPCoreSrvr.cpp

; 49   : 	ON_MSG( PACKETTYPE_SETSNOOPGUILD, &CDPCoreSrvr::OnSnoopGuild );

  007e9	50		 push	 eax
  007ea	8d 45 e0	 lea	 eax, DWORD PTR $T37[ebp]
; File C:\Program Files\Microsoft Visual Studio\2022\Professional\VC\Tools\MSVC\14.44.35207\include\utility

; 274  :         : first(_STD forward<_Other1>(_Val1)), second(_STD forward<_Other2>(_Val2)) {

  007ed	c7 45 ec 00 00
	00 00		 mov	 DWORD PTR $T46[ebp+4], OFFSET ?OnSnoopGuild@CDPCoreSrvr@@AAEXAAVCAr@@PAEK@Z ; CDPCoreSrvr::OnSnoopGuild
; File C:\IAGOS\server\v18\Source\Source\DatabaseServer\DPCoreSrvr.cpp

; 49   : 	ON_MSG( PACKETTYPE_SETSNOOPGUILD, &CDPCoreSrvr::OnSnoopGuild );

  007f4	50		 push	 eax
  007f5	8b cf		 mov	 ecx, edi
  007f7	e8 00 00 00 00	 call	 ??$insert@$0A@$0A@@?$_Tree@V?$_Tmap_traits@KP8CDPCoreSrvr@@AEXAAVCAr@@PAEK@ZU?$less@K@std@@V?$allocator@U?$pair@$$CBKP8CDPCoreSrvr@@AEXAAVCAr@@PAEK@Z@std@@@4@$0A@@std@@@std@@QAE?AU?$pair@V?$_Tree_iterator@V?$_Tree_val@U?$_Tree_simple_types@U?$pair@$$CBKP8CDPCoreSrvr@@AEXAAVCAr@@PAEK@Z@std@@@std@@@std@@@std@@_N@1@$$QAU?$pair@$$CBKP8CDPCoreSrvr@@AEXAAVCAr@@PAEK@Z@1@@Z ; std::_Tree<std::_Tmap_traits<unsigned long,void (__thiscall CDPCoreSrvr::*)(CAr &,unsigned char *,unsigned long),std::less<unsigned long>,std::allocator<std::pair<unsigned long const ,void (__thiscall CDPCoreSrvr::*)(CAr &,unsigned char *,unsigned long)> >,0> >::insert<0,0>

; 50   : 	ON_MSG( PACKETTYPE_CHG_MASTER, &CDPCoreSrvr::OnChgMaster );

  007fc	8d 45 e8	 lea	 eax, DWORD PTR $T48[ebp]
; File C:\Program Files\Microsoft Visual Studio\2022\Professional\VC\Tools\MSVC\14.44.35207\include\utility

; 274  :         : first(_STD forward<_Other1>(_Val1)), second(_STD forward<_Other2>(_Val2)) {

  007ff	c7 45 e8 00 f0
	00 f0		 mov	 DWORD PTR $T48[ebp], -268374016 ; f000f000H
; File C:\IAGOS\server\v18\Source\Source\DatabaseServer\DPCoreSrvr.cpp

; 50   : 	ON_MSG( PACKETTYPE_CHG_MASTER, &CDPCoreSrvr::OnChgMaster );

  00806	50		 push	 eax
  00807	8d 45 e0	 lea	 eax, DWORD PTR $T38[ebp]
; File C:\Program Files\Microsoft Visual Studio\2022\Professional\VC\Tools\MSVC\14.44.35207\include\utility

; 274  :         : first(_STD forward<_Other1>(_Val1)), second(_STD forward<_Other2>(_Val2)) {

  0080a	c7 45 ec 00 00
	00 00		 mov	 DWORD PTR $T48[ebp+4], OFFSET ?OnChgMaster@CDPCoreSrvr@@AAEXAAVCAr@@PAEK@Z ; CDPCoreSrvr::OnChgMaster
; File C:\IAGOS\server\v18\Source\Source\DatabaseServer\DPCoreSrvr.cpp

; 50   : 	ON_MSG( PACKETTYPE_CHG_MASTER, &CDPCoreSrvr::OnChgMaster );

  00811	50		 push	 eax
  00812	8b cf		 mov	 ecx, edi
  00814	e8 00 00 00 00	 call	 ??$insert@$0A@$0A@@?$_Tree@V?$_Tmap_traits@KP8CDPCoreSrvr@@AEXAAVCAr@@PAEK@ZU?$less@K@std@@V?$allocator@U?$pair@$$CBKP8CDPCoreSrvr@@AEXAAVCAr@@PAEK@Z@std@@@4@$0A@@std@@@std@@QAE?AU?$pair@V?$_Tree_iterator@V?$_Tree_val@U?$_Tree_simple_types@U?$pair@$$CBKP8CDPCoreSrvr@@AEXAAVCAr@@PAEK@Z@std@@@std@@@std@@@std@@_N@1@$$QAU?$pair@$$CBKP8CDPCoreSrvr@@AEXAAVCAr@@PAEK@Z@1@@Z ; std::_Tree<std::_Tmap_traits<unsigned long,void (__thiscall CDPCoreSrvr::*)(CAr &,unsigned char *,unsigned long),std::less<unsigned long>,std::allocator<std::pair<unsigned long const ,void (__thiscall CDPCoreSrvr::*)(CAr &,unsigned char *,unsigned long)> >,0> >::insert<0,0>

; 55   : }

  00819	8b c3		 mov	 eax, ebx
  0081b	8b 4d f4	 mov	 ecx, DWORD PTR __$EHRec$[ebp]
  0081e	64 89 0d 00 00
	00 00		 mov	 DWORD PTR fs:0, ecx
  00825	59		 pop	 ecx
  00826	5f		 pop	 edi
  00827	5e		 pop	 esi
  00828	5b		 pop	 ebx
  00829	8b e5		 mov	 esp, ebp
  0082b	5d		 pop	 ebp
  0082c	c3		 ret	 0
$LN1117@CDPCoreSrv:
; File C:\Program Files\Microsoft Visual Studio\2022\Professional\VC\Tools\MSVC\14.44.35207\include\xtree

; 1649 :             _Throw_tree_length_error();

  0082d	e8 00 00 00 00	 call	 ?_Throw_tree_length_error@std@@YAXXZ ; std::_Throw_tree_length_error
$LN1128@CDPCoreSrv:
  00832	cc		 int	 3
_TEXT	ENDS
;	COMDAT text$x
text$x	SEGMENT
__unwindfunclet$??0CDPCoreSrvr@@QAE@XZ$0:
  00000	8b 4d f0	 mov	 ecx, DWORD PTR _this$[ebp]
  00003	e9 00 00 00 00	 jmp	 ??1CDPMng@@UAE@XZ	; CDPMng::~CDPMng
__unwindfunclet$??0CDPCoreSrvr@@QAE@XZ$1:
  00008	8b 4d f0	 mov	 ecx, DWORD PTR _this$[ebp]
  0000b	83 c1 10	 add	 ecx, 16			; 00000010H
  0000e	e9 00 00 00 00	 jmp	 ??1?$map@KP8CDPCoreSrvr@@AEXAAVCAr@@PAEK@ZU?$less@K@std@@V?$allocator@U?$pair@$$CBKP8CDPCoreSrvr@@AEXAAVCAr@@PAEK@Z@std@@@4@@std@@QAE@XZ
__unwindfunclet$??0CDPCoreSrvr@@QAE@XZ$5:
  00013	8d 4d e8	 lea	 ecx, DWORD PTR $T52[ebp]
  00016	e9 00 00 00 00	 jmp	 ??1?$_Alloc_construct_ptr@V?$allocator@U?$_Tree_node@U?$pair@$$CBKP8CDPCoreSrvr@@AEXAAVCAr@@PAEK@Z@std@@PAX@std@@@std@@@std@@QAE@XZ ; std::_Alloc_construct_ptr<std::allocator<std::_Tree_node<std::pair<unsigned long const ,void (__thiscall CDPCoreSrvr::*)(CAr &,unsigned char *,unsigned long)>,void *> > >::~_Alloc_construct_ptr<std::allocator<std::_Tree_node<std::pair<unsigned long const ,void (__thiscall CDPCoreSrvr::*)(CAr &,unsigned char *,unsigned long)>,void *> > >
__unwindfunclet$??0CDPCoreSrvr@@QAE@XZ$10:
  0001b	8d 4d e8	 lea	 ecx, DWORD PTR $T55[ebp]
  0001e	e9 00 00 00 00	 jmp	 ??1?$_Alloc_construct_ptr@V?$allocator@U?$_Tree_node@U?$pair@$$CBKP8CDPCoreSrvr@@AEXAAVCAr@@PAEK@Z@std@@PAX@std@@@std@@@std@@QAE@XZ ; std::_Alloc_construct_ptr<std::allocator<std::_Tree_node<std::pair<unsigned long const ,void (__thiscall CDPCoreSrvr::*)(CAr &,unsigned char *,unsigned long)>,void *> > >::~_Alloc_construct_ptr<std::allocator<std::_Tree_node<std::pair<unsigned long const ,void (__thiscall CDPCoreSrvr::*)(CAr &,unsigned char *,unsigned long)>,void *> > >
__unwindfunclet$??0CDPCoreSrvr@@QAE@XZ$15:
  00023	8d 4d e8	 lea	 ecx, DWORD PTR $T58[ebp]
  00026	e9 00 00 00 00	 jmp	 ??1?$_Alloc_construct_ptr@V?$allocator@U?$_Tree_node@U?$pair@$$CBKP8CDPCoreSrvr@@AEXAAVCAr@@PAEK@Z@std@@PAX@std@@@std@@@std@@QAE@XZ ; std::_Alloc_construct_ptr<std::allocator<std::_Tree_node<std::pair<unsigned long const ,void (__thiscall CDPCoreSrvr::*)(CAr &,unsigned char *,unsigned long)>,void *> > >::~_Alloc_construct_ptr<std::allocator<std::_Tree_node<std::pair<unsigned long const ,void (__thiscall CDPCoreSrvr::*)(CAr &,unsigned char *,unsigned long)>,void *> > >
__unwindfunclet$??0CDPCoreSrvr@@QAE@XZ$20:
  0002b	8d 4d e8	 lea	 ecx, DWORD PTR $T61[ebp]
  0002e	e9 00 00 00 00	 jmp	 ??1?$_Alloc_construct_ptr@V?$allocator@U?$_Tree_node@U?$pair@$$CBKP8CDPCoreSrvr@@AEXAAVCAr@@PAEK@Z@std@@PAX@std@@@std@@@std@@QAE@XZ ; std::_Alloc_construct_ptr<std::allocator<std::_Tree_node<std::pair<unsigned long const ,void (__thiscall CDPCoreSrvr::*)(CAr &,unsigned char *,unsigned long)>,void *> > >::~_Alloc_construct_ptr<std::allocator<std::_Tree_node<std::pair<unsigned long const ,void (__thiscall CDPCoreSrvr::*)(CAr &,unsigned char *,unsigned long)>,void *> > >
__unwindfunclet$??0CDPCoreSrvr@@QAE@XZ$25:
  00033	8d 4d e8	 lea	 ecx, DWORD PTR $T64[ebp]
  00036	e9 00 00 00 00	 jmp	 ??1?$_Alloc_construct_ptr@V?$allocator@U?$_Tree_node@U?$pair@$$CBKP8CDPCoreSrvr@@AEXAAVCAr@@PAEK@Z@std@@PAX@std@@@std@@@std@@QAE@XZ ; std::_Alloc_construct_ptr<std::allocator<std::_Tree_node<std::pair<unsigned long const ,void (__thiscall CDPCoreSrvr::*)(CAr &,unsigned char *,unsigned long)>,void *> > >::~_Alloc_construct_ptr<std::allocator<std::_Tree_node<std::pair<unsigned long const ,void (__thiscall CDPCoreSrvr::*)(CAr &,unsigned char *,unsigned long)>,void *> > >
__unwindfunclet$??0CDPCoreSrvr@@QAE@XZ$30:
  0003b	8d 4d e8	 lea	 ecx, DWORD PTR $T67[ebp]
  0003e	e9 00 00 00 00	 jmp	 ??1?$_Alloc_construct_ptr@V?$allocator@U?$_Tree_node@U?$pair@$$CBKP8CDPCoreSrvr@@AEXAAVCAr@@PAEK@Z@std@@PAX@std@@@std@@@std@@QAE@XZ ; std::_Alloc_construct_ptr<std::allocator<std::_Tree_node<std::pair<unsigned long const ,void (__thiscall CDPCoreSrvr::*)(CAr &,unsigned char *,unsigned long)>,void *> > >::~_Alloc_construct_ptr<std::allocator<std::_Tree_node<std::pair<unsigned long const ,void (__thiscall CDPCoreSrvr::*)(CAr &,unsigned char *,unsigned long)>,void *> > >
__unwindfunclet$??0CDPCoreSrvr@@QAE@XZ$35:
  00043	8d 4d e8	 lea	 ecx, DWORD PTR $T70[ebp]
  00046	e9 00 00 00 00	 jmp	 ??1?$_Alloc_construct_ptr@V?$allocator@U?$_Tree_node@U?$pair@$$CBKP8CDPCoreSrvr@@AEXAAVCAr@@PAEK@Z@std@@PAX@std@@@std@@@std@@QAE@XZ ; std::_Alloc_construct_ptr<std::allocator<std::_Tree_node<std::pair<unsigned long const ,void (__thiscall CDPCoreSrvr::*)(CAr &,unsigned char *,unsigned long)>,void *> > >::~_Alloc_construct_ptr<std::allocator<std::_Tree_node<std::pair<unsigned long const ,void (__thiscall CDPCoreSrvr::*)(CAr &,unsigned char *,unsigned long)>,void *> > >
__unwindfunclet$??0CDPCoreSrvr@@QAE@XZ$40:
  0004b	8d 4d e8	 lea	 ecx, DWORD PTR $T73[ebp]
  0004e	e9 00 00 00 00	 jmp	 ??1?$_Alloc_construct_ptr@V?$allocator@U?$_Tree_node@U?$pair@$$CBKP8CDPCoreSrvr@@AEXAAVCAr@@PAEK@Z@std@@PAX@std@@@std@@@std@@QAE@XZ ; std::_Alloc_construct_ptr<std::allocator<std::_Tree_node<std::pair<unsigned long const ,void (__thiscall CDPCoreSrvr::*)(CAr &,unsigned char *,unsigned long)>,void *> > >::~_Alloc_construct_ptr<std::allocator<std::_Tree_node<std::pair<unsigned long const ,void (__thiscall CDPCoreSrvr::*)(CAr &,unsigned char *,unsigned long)>,void *> > >
__unwindfunclet$??0CDPCoreSrvr@@QAE@XZ$45:
  00053	8d 4d e8	 lea	 ecx, DWORD PTR $T76[ebp]
  00056	e9 00 00 00 00	 jmp	 ??1?$_Alloc_construct_ptr@V?$allocator@U?$_Tree_node@U?$pair@$$CBKP8CDPCoreSrvr@@AEXAAVCAr@@PAEK@Z@std@@PAX@std@@@std@@@std@@QAE@XZ ; std::_Alloc_construct_ptr<std::allocator<std::_Tree_node<std::pair<unsigned long const ,void (__thiscall CDPCoreSrvr::*)(CAr &,unsigned char *,unsigned long)>,void *> > >::~_Alloc_construct_ptr<std::allocator<std::_Tree_node<std::pair<unsigned long const ,void (__thiscall CDPCoreSrvr::*)(CAr &,unsigned char *,unsigned long)>,void *> > >
__unwindfunclet$??0CDPCoreSrvr@@QAE@XZ$50:
  0005b	8d 4d e8	 lea	 ecx, DWORD PTR $T79[ebp]
  0005e	e9 00 00 00 00	 jmp	 ??1?$_Alloc_construct_ptr@V?$allocator@U?$_Tree_node@U?$pair@$$CBKP8CDPCoreSrvr@@AEXAAVCAr@@PAEK@Z@std@@PAX@std@@@std@@@std@@QAE@XZ ; std::_Alloc_construct_ptr<std::allocator<std::_Tree_node<std::pair<unsigned long const ,void (__thiscall CDPCoreSrvr::*)(CAr &,unsigned char *,unsigned long)>,void *> > >::~_Alloc_construct_ptr<std::allocator<std::_Tree_node<std::pair<unsigned long const ,void (__thiscall CDPCoreSrvr::*)(CAr &,unsigned char *,unsigned long)>,void *> > >
  00063	cc		 int	 3
  00064	cc		 int	 3
  00065	cc		 int	 3
  00066	cc		 int	 3
  00067	cc		 int	 3
__ehhandler$??0CDPCoreSrvr@@QAE@XZ:
  00068	90		 npad	 1
  00069	90		 npad	 1
  0006a	8b 54 24 08	 mov	 edx, DWORD PTR [esp+8]
  0006e	8d 42 0c	 lea	 eax, DWORD PTR [edx+12]
  00071	8b 4a cc	 mov	 ecx, DWORD PTR [edx-52]
  00074	33 c8		 xor	 ecx, eax
  00076	e8 00 00 00 00	 call	 @__security_check_cookie@4
  0007b	b8 00 00 00 00	 mov	 eax, OFFSET __ehfuncinfo$??0CDPCoreSrvr@@QAE@XZ
  00080	e9 00 00 00 00	 jmp	 ___CxxFrameHandler3
text$x	ENDS
??0CDPCoreSrvr@@QAE@XZ ENDP				; CDPCoreSrvr::CDPCoreSrvr
; Function compile flags: /Ogtp
; File C:\Program Files\Microsoft Visual Studio\2022\Professional\VC\Tools\MSVC\14.44.35207\include\xmemory
;	COMDAT ??$_Allocate_manually_vector_aligned@U_Default_allocate_traits@std@@@std@@YAPAXI@Z
_TEXT	SEGMENT
__Bytes$ = 8						; size = 4
??$_Allocate_manually_vector_aligned@U_Default_allocate_traits@std@@@std@@YAPAXI@Z PROC ; std::_Allocate_manually_vector_aligned<std::_Default_allocate_traits>, COMDAT

; 182  : __declspec(allocator) void* _Allocate_manually_vector_aligned(const size_t _Bytes) {

  00000	55		 push	 ebp
  00001	8b ec		 mov	 ebp, esp

; 183  :     // allocate _Bytes manually aligned to at least _Big_allocation_alignment
; 184  :     const size_t _Block_size = _Non_user_size + _Bytes;

  00003	8b 45 08	 mov	 eax, DWORD PTR __Bytes$[ebp]
  00006	8d 48 23	 lea	 ecx, DWORD PTR [eax+35]

; 185  :     if (_Block_size <= _Bytes) {

  00009	3b c8		 cmp	 ecx, eax
  0000b	0f 86 00 00 00
	00		 jbe	 ?_Throw_bad_array_new_length@std@@YAXXZ ; std::_Throw_bad_array_new_length

; 136  :         return ::operator new(_Bytes);

  00011	51		 push	 ecx
  00012	e8 00 00 00 00	 call	 ??2@YAPAXI@Z		; operator new

; 186  :         _Throw_bad_array_new_length(); // add overflow
; 187  :     }
; 188  : 
; 189  :     const uintptr_t _Ptr_container = reinterpret_cast<uintptr_t>(_Traits::_Allocate(_Block_size));

  00017	8b c8		 mov	 ecx, eax

; 136  :         return ::operator new(_Bytes);

  00019	83 c4 04	 add	 esp, 4

; 190  :     _STL_VERIFY(_Ptr_container != 0, "invalid argument"); // validate even in release since we're doing p[-1]

  0001c	85 c9		 test	 ecx, ecx
  0001e	74 0b		 je	 SHORT $LN9@Allocate_m

; 191  :     void* const _Ptr = reinterpret_cast<void*>((_Ptr_container + _Non_user_size) & ~(_Big_allocation_alignment - 1));

  00020	8d 41 23	 lea	 eax, DWORD PTR [ecx+35]
  00023	83 e0 e0	 and	 eax, -32		; ffffffe0H

; 192  :     static_cast<uintptr_t*>(_Ptr)[-1] = _Ptr_container;

  00026	89 48 fc	 mov	 DWORD PTR [eax-4], ecx

; 193  : 
; 194  : #ifdef _DEBUG
; 195  :     static_cast<uintptr_t*>(_Ptr)[-2] = _Big_allocation_sentinel;
; 196  : #endif // defined(_DEBUG)
; 197  :     return _Ptr;
; 198  : }

  00029	5d		 pop	 ebp
  0002a	c3		 ret	 0
$LN9@Allocate_m:

; 190  :     _STL_VERIFY(_Ptr_container != 0, "invalid argument"); // validate even in release since we're doing p[-1]

  0002b	6a 00		 push	 0
  0002d	6a 00		 push	 0
  0002f	6a 00		 push	 0
  00031	6a 00		 push	 0
  00033	6a 00		 push	 0
  00035	e8 00 00 00 00	 call	 __invoke_watson
$LN7@Allocate_m:
  0003a	cc		 int	 3
??$_Allocate_manually_vector_aligned@U_Default_allocate_traits@std@@@std@@YAPAXI@Z ENDP ; std::_Allocate_manually_vector_aligned<std::_Default_allocate_traits>
_TEXT	ENDS
; Function compile flags: /Ogtp
; File C:\Program Files\Microsoft Visual Studio\2022\Professional\VC\Tools\MSVC\14.44.35207\include\xtree
;	COMDAT ?_Throw_tree_length_error@std@@YAXXZ
_TEXT	SEGMENT
?_Throw_tree_length_error@std@@YAXXZ PROC		; std::_Throw_tree_length_error, COMDAT

; 417  :     _Xlength_error("map/set too long");

  00000	68 00 00 00 00	 push	 OFFSET ??_C@_0BB@GCADKGJO@map?1set?5too?5long@
  00005	e8 00 00 00 00	 call	 ?_Xlength_error@std@@YAXPBD@Z ; std::_Xlength_error
$LN3@Throw_tree:
  0000a	cc		 int	 3
?_Throw_tree_length_error@std@@YAXXZ ENDP		; std::_Throw_tree_length_error
_TEXT	ENDS
; Function compile flags: /Ogtp
; File C:\Program Files\Microsoft Visual Studio\2022\Professional\VC\Tools\MSVC\14.44.35207\include\xmemory
;	COMDAT ?_Throw_bad_array_new_length@std@@YAXXZ
_TEXT	SEGMENT
$T1 = -12						; size = 12
?_Throw_bad_array_new_length@std@@YAXXZ PROC		; std::_Throw_bad_array_new_length, COMDAT

; 107  : [[noreturn]] inline void _Throw_bad_array_new_length() {

  00000	55		 push	 ebp
  00001	8b ec		 mov	 ebp, esp
  00003	83 ec 0c	 sub	 esp, 12			; 0000000cH

; 108  :     _THROW(bad_array_new_length{});

  00006	8d 4d f4	 lea	 ecx, DWORD PTR $T1[ebp]
  00009	e8 00 00 00 00	 call	 ??0bad_array_new_length@std@@QAE@XZ ; std::bad_array_new_length::bad_array_new_length
  0000e	68 00 00 00 00	 push	 OFFSET __TI3?AVbad_array_new_length@std@@
  00013	8d 45 f4	 lea	 eax, DWORD PTR $T1[ebp]
  00016	50		 push	 eax
  00017	e8 00 00 00 00	 call	 __CxxThrowException@8
$LN3@Throw_bad_:
  0001c	cc		 int	 3
?_Throw_bad_array_new_length@std@@YAXXZ ENDP		; std::_Throw_bad_array_new_length
_TEXT	ENDS
; Function compile flags: /Ogtp
; File C:\Program Files\Microsoft Visual Studio\2022\Professional\VC\Tools\MSVC\14.44.35207\include\vcruntime_exception.h
;	COMDAT ??_Gbad_array_new_length@std@@UAEPAXI@Z
_TEXT	SEGMENT
___flags$ = 8						; size = 4
??_Gbad_array_new_length@std@@UAEPAXI@Z PROC		; std::bad_array_new_length::`scalar deleting destructor', COMDAT
; _this$ = ecx
  00000	55		 push	 ebp
  00001	8b ec		 mov	 ebp, esp

; 90   :     {

  00003	56		 push	 esi
  00004	8b f1		 mov	 esi, ecx

; 91   :         __std_exception_destroy(&_Data);

  00006	8d 46 04	 lea	 eax, DWORD PTR [esi+4]
  00009	c7 06 00 00 00
	00		 mov	 DWORD PTR [esi], OFFSET ??_7exception@std@@6B@
  0000f	50		 push	 eax
  00010	e8 00 00 00 00	 call	 ___std_exception_destroy
  00015	83 c4 04	 add	 esp, 4
  00018	f6 45 08 01	 test	 BYTE PTR ___flags$[ebp], 1
  0001c	74 0b		 je	 SHORT $LN18@scalar
  0001e	6a 0c		 push	 12			; 0000000cH
  00020	56		 push	 esi
  00021	e8 00 00 00 00	 call	 ??3@YAXPAXI@Z		; operator delete
  00026	83 c4 08	 add	 esp, 8
$LN18@scalar:
  00029	8b c6		 mov	 eax, esi
  0002b	5e		 pop	 esi
  0002c	5d		 pop	 ebp
  0002d	c2 04 00	 ret	 4
??_Gbad_array_new_length@std@@UAEPAXI@Z ENDP		; std::bad_array_new_length::`scalar deleting destructor'
_TEXT	ENDS
; Function compile flags: /Ogtp
; File C:\Program Files\Microsoft Visual Studio\2022\Professional\VC\Tools\MSVC\14.44.35207\include\vcruntime_exception.h
;	COMDAT ??0bad_array_new_length@std@@QAE@ABV01@@Z
_TEXT	SEGMENT
___that$ = 8						; size = 4
??0bad_array_new_length@std@@QAE@ABV01@@Z PROC		; std::bad_array_new_length::bad_array_new_length, COMDAT
; _this$ = ecx
  00000	55		 push	 ebp
  00001	8b ec		 mov	 ebp, esp

; 73   :     {

  00003	56		 push	 esi
  00004	8b f1		 mov	 esi, ecx
  00006	0f 57 c0	 xorps	 xmm0, xmm0

; 72   :         : _Data()

  00009	8d 46 04	 lea	 eax, DWORD PTR [esi+4]

; 74   :         __std_exception_copy(&_Other._Data, &_Data);

  0000c	50		 push	 eax
  0000d	c7 06 00 00 00
	00		 mov	 DWORD PTR [esi], OFFSET ??_7exception@std@@6B@
  00013	66 0f d6 00	 movq	 QWORD PTR [eax], xmm0
  00017	8b 45 08	 mov	 eax, DWORD PTR ___that$[ebp]
  0001a	83 c0 04	 add	 eax, 4
  0001d	50		 push	 eax
  0001e	e8 00 00 00 00	 call	 ___std_exception_copy
  00023	83 c4 08	 add	 esp, 8
  00026	c7 06 00 00 00
	00		 mov	 DWORD PTR [esi], OFFSET ??_7bad_array_new_length@std@@6B@
  0002c	8b c6		 mov	 eax, esi
  0002e	5e		 pop	 esi
  0002f	5d		 pop	 ebp
  00030	c2 04 00	 ret	 4
??0bad_array_new_length@std@@QAE@ABV01@@Z ENDP		; std::bad_array_new_length::bad_array_new_length
_TEXT	ENDS
; Function compile flags: /Ogtp
; File C:\Program Files\Microsoft Visual Studio\2022\Professional\VC\Tools\MSVC\14.44.35207\include\vcruntime_exception.h
;	COMDAT ??1bad_array_new_length@std@@UAE@XZ
_TEXT	SEGMENT
??1bad_array_new_length@std@@UAE@XZ PROC		; std::bad_array_new_length::~bad_array_new_length, COMDAT
; _this$ = ecx

; 91   :         __std_exception_destroy(&_Data);

  00000	8d 41 04	 lea	 eax, DWORD PTR [ecx+4]
  00003	c7 01 00 00 00
	00		 mov	 DWORD PTR [ecx], OFFSET ??_7exception@std@@6B@
  00009	50		 push	 eax
  0000a	e8 00 00 00 00	 call	 ___std_exception_destroy
  0000f	59		 pop	 ecx
  00010	c3		 ret	 0
??1bad_array_new_length@std@@UAE@XZ ENDP		; std::bad_array_new_length::~bad_array_new_length
_TEXT	ENDS
; Function compile flags: /Ogtp
; File C:\Program Files\Microsoft Visual Studio\2022\Professional\VC\Tools\MSVC\14.44.35207\include\vcruntime_exception.h
;	COMDAT ??0bad_array_new_length@std@@QAE@XZ
_TEXT	SEGMENT
??0bad_array_new_length@std@@QAE@XZ PROC		; std::bad_array_new_length::bad_array_new_length, COMDAT
; _this$ = ecx

; 144  :     {

  00000	0f 57 c0	 xorps	 xmm0, xmm0

; 145  :     }

  00003	8b c1		 mov	 eax, ecx

; 66   :         : _Data()

  00005	66 0f d6 41 04	 movq	 QWORD PTR [ecx+4], xmm0

; 67   :     {
; 68   :         _Data._What = _Message;

  0000a	c7 41 04 00 00
	00 00		 mov	 DWORD PTR [ecx+4], OFFSET ??_C@_0BF@KINCDENJ@bad?5array?5new?5length@

; 144  :     {

  00011	c7 01 00 00 00
	00		 mov	 DWORD PTR [ecx], OFFSET ??_7bad_array_new_length@std@@6B@

; 145  :     }

  00017	c3		 ret	 0
??0bad_array_new_length@std@@QAE@XZ ENDP		; std::bad_array_new_length::bad_array_new_length
_TEXT	ENDS
; Function compile flags: /Ogtp
; File C:\Program Files\Microsoft Visual Studio\2022\Professional\VC\Tools\MSVC\14.44.35207\include\vcruntime_exception.h
;	COMDAT ??_Gbad_alloc@std@@UAEPAXI@Z
_TEXT	SEGMENT
___flags$ = 8						; size = 4
??_Gbad_alloc@std@@UAEPAXI@Z PROC			; std::bad_alloc::`scalar deleting destructor', COMDAT
; _this$ = ecx
  00000	55		 push	 ebp
  00001	8b ec		 mov	 ebp, esp

; 90   :     {

  00003	56		 push	 esi
  00004	8b f1		 mov	 esi, ecx

; 91   :         __std_exception_destroy(&_Data);

  00006	8d 46 04	 lea	 eax, DWORD PTR [esi+4]
  00009	c7 06 00 00 00
	00		 mov	 DWORD PTR [esi], OFFSET ??_7exception@std@@6B@
  0000f	50		 push	 eax
  00010	e8 00 00 00 00	 call	 ___std_exception_destroy
  00015	83 c4 04	 add	 esp, 4
  00018	f6 45 08 01	 test	 BYTE PTR ___flags$[ebp], 1
  0001c	74 0b		 je	 SHORT $LN13@scalar
  0001e	6a 0c		 push	 12			; 0000000cH
  00020	56		 push	 esi
  00021	e8 00 00 00 00	 call	 ??3@YAXPAXI@Z		; operator delete
  00026	83 c4 08	 add	 esp, 8
$LN13@scalar:
  00029	8b c6		 mov	 eax, esi
  0002b	5e		 pop	 esi
  0002c	5d		 pop	 ebp
  0002d	c2 04 00	 ret	 4
??_Gbad_alloc@std@@UAEPAXI@Z ENDP			; std::bad_alloc::`scalar deleting destructor'
_TEXT	ENDS
; Function compile flags: /Ogtp
; File C:\Program Files\Microsoft Visual Studio\2022\Professional\VC\Tools\MSVC\14.44.35207\include\vcruntime_exception.h
;	COMDAT ??0bad_alloc@std@@QAE@ABV01@@Z
_TEXT	SEGMENT
___that$ = 8						; size = 4
??0bad_alloc@std@@QAE@ABV01@@Z PROC			; std::bad_alloc::bad_alloc, COMDAT
; _this$ = ecx
  00000	55		 push	 ebp
  00001	8b ec		 mov	 ebp, esp

; 73   :     {

  00003	56		 push	 esi
  00004	8b f1		 mov	 esi, ecx
  00006	0f 57 c0	 xorps	 xmm0, xmm0

; 72   :         : _Data()

  00009	8d 46 04	 lea	 eax, DWORD PTR [esi+4]

; 74   :         __std_exception_copy(&_Other._Data, &_Data);

  0000c	50		 push	 eax
  0000d	c7 06 00 00 00
	00		 mov	 DWORD PTR [esi], OFFSET ??_7exception@std@@6B@
  00013	66 0f d6 00	 movq	 QWORD PTR [eax], xmm0
  00017	8b 45 08	 mov	 eax, DWORD PTR ___that$[ebp]
  0001a	83 c0 04	 add	 eax, 4
  0001d	50		 push	 eax
  0001e	e8 00 00 00 00	 call	 ___std_exception_copy
  00023	83 c4 08	 add	 esp, 8
  00026	c7 06 00 00 00
	00		 mov	 DWORD PTR [esi], OFFSET ??_7bad_alloc@std@@6B@
  0002c	8b c6		 mov	 eax, esi
  0002e	5e		 pop	 esi
  0002f	5d		 pop	 ebp
  00030	c2 04 00	 ret	 4
??0bad_alloc@std@@QAE@ABV01@@Z ENDP			; std::bad_alloc::bad_alloc
_TEXT	ENDS
; Function compile flags: /Ogtp
; File C:\Program Files\Microsoft Visual Studio\2022\Professional\VC\Tools\MSVC\14.44.35207\include\vcruntime_exception.h
;	COMDAT ??_Gexception@std@@UAEPAXI@Z
_TEXT	SEGMENT
___flags$ = 8						; size = 4
??_Gexception@std@@UAEPAXI@Z PROC			; std::exception::`scalar deleting destructor', COMDAT
; _this$ = ecx
  00000	55		 push	 ebp
  00001	8b ec		 mov	 ebp, esp

; 90   :     {

  00003	56		 push	 esi
  00004	8b f1		 mov	 esi, ecx

; 91   :         __std_exception_destroy(&_Data);

  00006	8d 46 04	 lea	 eax, DWORD PTR [esi+4]
  00009	c7 06 00 00 00
	00		 mov	 DWORD PTR [esi], OFFSET ??_7exception@std@@6B@
  0000f	50		 push	 eax
  00010	e8 00 00 00 00	 call	 ___std_exception_destroy
  00015	83 c4 04	 add	 esp, 4
  00018	f6 45 08 01	 test	 BYTE PTR ___flags$[ebp], 1
  0001c	74 0b		 je	 SHORT $LN8@scalar
  0001e	6a 0c		 push	 12			; 0000000cH
  00020	56		 push	 esi
  00021	e8 00 00 00 00	 call	 ??3@YAXPAXI@Z		; operator delete
  00026	83 c4 08	 add	 esp, 8
$LN8@scalar:
  00029	8b c6		 mov	 eax, esi
  0002b	5e		 pop	 esi
  0002c	5d		 pop	 ebp
  0002d	c2 04 00	 ret	 4
??_Gexception@std@@UAEPAXI@Z ENDP			; std::exception::`scalar deleting destructor'
_TEXT	ENDS
; Function compile flags: /Ogtp
; File C:\Program Files\Microsoft Visual Studio\2022\Professional\VC\Tools\MSVC\14.44.35207\include\vcruntime_exception.h
;	COMDAT ?what@exception@std@@UBEPBDXZ
_TEXT	SEGMENT
?what@exception@std@@UBEPBDXZ PROC			; std::exception::what, COMDAT
; _this$ = ecx

; 96   :         return _Data._What ? _Data._What : "Unknown exception";

  00000	8b 49 04	 mov	 ecx, DWORD PTR [ecx+4]
  00003	b8 00 00 00 00	 mov	 eax, OFFSET ??_C@_0BC@EOODALEL@Unknown?5exception@
  00008	85 c9		 test	 ecx, ecx
  0000a	0f 45 c1	 cmovne	 eax, ecx

; 97   :     }

  0000d	c3		 ret	 0
?what@exception@std@@UBEPBDXZ ENDP			; std::exception::what
_TEXT	ENDS
; Function compile flags: /Ogtp
; File C:\Program Files\Microsoft Visual Studio\2022\Professional\VC\Tools\MSVC\14.44.35207\include\vcruntime_exception.h
;	COMDAT ??1exception@std@@UAE@XZ
_TEXT	SEGMENT
??1exception@std@@UAE@XZ PROC				; std::exception::~exception, COMDAT
; _this$ = ecx

; 91   :         __std_exception_destroy(&_Data);

  00000	8d 41 04	 lea	 eax, DWORD PTR [ecx+4]
  00003	c7 01 00 00 00
	00		 mov	 DWORD PTR [ecx], OFFSET ??_7exception@std@@6B@
  00009	50		 push	 eax
  0000a	e8 00 00 00 00	 call	 ___std_exception_destroy
  0000f	59		 pop	 ecx

; 92   :     }

  00010	c3		 ret	 0
??1exception@std@@UAE@XZ ENDP				; std::exception::~exception
_TEXT	ENDS
; Function compile flags: /Ogtp
; File C:\Program Files\Microsoft Visual Studio\2022\Professional\VC\Tools\MSVC\14.44.35207\include\vcruntime_exception.h
;	COMDAT ??0exception@std@@QAE@ABV01@@Z
_TEXT	SEGMENT
__Other$ = 8						; size = 4
??0exception@std@@QAE@ABV01@@Z PROC			; std::exception::exception, COMDAT
; _this$ = ecx

; 73   :     {

  00000	55		 push	 ebp
  00001	8b ec		 mov	 ebp, esp
  00003	56		 push	 esi
  00004	8b f1		 mov	 esi, ecx
  00006	0f 57 c0	 xorps	 xmm0, xmm0
  00009	8d 46 04	 lea	 eax, DWORD PTR [esi+4]

; 74   :         __std_exception_copy(&_Other._Data, &_Data);

  0000c	50		 push	 eax
  0000d	c7 06 00 00 00
	00		 mov	 DWORD PTR [esi], OFFSET ??_7exception@std@@6B@
  00013	66 0f d6 00	 movq	 QWORD PTR [eax], xmm0
  00017	8b 45 08	 mov	 eax, DWORD PTR __Other$[ebp]
  0001a	83 c0 04	 add	 eax, 4
  0001d	50		 push	 eax
  0001e	e8 00 00 00 00	 call	 ___std_exception_copy
  00023	83 c4 08	 add	 esp, 8

; 75   :     }

  00026	8b c6		 mov	 eax, esi
  00028	5e		 pop	 esi
  00029	5d		 pop	 ebp
  0002a	c2 04 00	 ret	 4
??0exception@std@@QAE@ABV01@@Z ENDP			; std::exception::exception
_TEXT	ENDS
; Function compile flags: /Ogtp
; File C:\IAGOS\server\v18\Source\Source\DatabaseServer\DPCoreSrvr.cpp
;	COMDAT ?__empty_global_delete@@YAXPAXI@Z
_TEXT	SEGMENT
___formal$ = 8						; size = 4
___formal$ = 12						; size = 4
?__empty_global_delete@@YAXPAXI@Z PROC			; __empty_global_delete, COMDAT

  00000	c2 00 00	 ret	 0
?__empty_global_delete@@YAXPAXI@Z ENDP			; __empty_global_delete
_TEXT	ENDS
; Function compile flags: /Ogtp
; File C:\IAGOS\server\v18\Source\Source\DatabaseServer\DPCoreSrvr.cpp
;	COMDAT ?__empty_global_delete@@YAXPAX@Z
_TEXT	SEGMENT
___formal$ = 8						; size = 4
?__empty_global_delete@@YAXPAX@Z PROC			; __empty_global_delete, COMDAT

  00000	c2 00 00	 ret	 0
?__empty_global_delete@@YAXPAX@Z ENDP			; __empty_global_delete
_TEXT	ENDS
END
