; Listing generated by Microsoft (R) Optimizing Compiler Version 19.44.35225.0 

	TITLE	C:\IAGOS\server\v18\Source\Output\DatabaseServer\Release\DPLoginSrvr.obj
	.686P
	.XMM
	include listing.inc
	.model	flat

INCLUDELIB LIBCMT
INCLUDELIB OLDNAMES

PUBLIC	?s_dpid@@3KA					; s_dpid
_DATA	SEGMENT
?s_dpid@@3KA DD	0ffffffffH				; s_dpid
_DATA	ENDS
PUBLIC	?__empty_global_delete@@YAXPAX@Z		; __empty_global_delete
PUBLIC	?__empty_global_delete@@YAXPAXI@Z		; __empty_global_delete
PUBLIC	??0exception@std@@QAE@ABV01@@Z			; std::exception::exception
PUBLIC	??1exception@std@@UAE@XZ			; std::exception::~exception
PUBLIC	?what@exception@std@@UBEPBDXZ			; std::exception::what
PUBLIC	??_Gexception@std@@UAEPAXI@Z			; std::exception::`scalar deleting destructor'
PUBLIC	??0bad_alloc@std@@QAE@ABV01@@Z			; std::bad_alloc::bad_alloc
PUBLIC	??_Gbad_alloc@std@@UAEPAXI@Z			; std::bad_alloc::`scalar deleting destructor'
PUBLIC	??0bad_array_new_length@std@@QAE@XZ		; std::bad_array_new_length::bad_array_new_length
PUBLIC	??1bad_array_new_length@std@@UAE@XZ		; std::bad_array_new_length::~bad_array_new_length
PUBLIC	??0bad_array_new_length@std@@QAE@ABV01@@Z	; std::bad_array_new_length::bad_array_new_length
PUBLIC	??_Gbad_array_new_length@std@@UAEPAXI@Z		; std::bad_array_new_length::`scalar deleting destructor'
PUBLIC	?_Throw_bad_array_new_length@std@@YAXXZ		; std::_Throw_bad_array_new_length
PUBLIC	?_Throw_tree_length_error@std@@YAXXZ		; std::_Throw_tree_length_error
PUBLIC	??$_Allocate_manually_vector_aligned@U_Default_allocate_traits@std@@@std@@YAPAXI@Z ; std::_Allocate_manually_vector_aligned<std::_Default_allocate_traits>
PUBLIC	??0CDPLoginSrvr@@QAE@XZ				; CDPLoginSrvr::CDPLoginSrvr
PUBLIC	??1CDPLoginSrvr@@UAE@XZ				; CDPLoginSrvr::~CDPLoginSrvr
PUBLIC	?SysMessageHandler@CDPLoginSrvr@@UAEXPAUDPMSG_GENERIC@@KK@Z ; CDPLoginSrvr::SysMessageHandler
PUBLIC	?UserMessageHandler@CDPLoginSrvr@@UAEXPAUDPMSG_GENERIC@@KK@Z ; CDPLoginSrvr::UserMessageHandler
PUBLIC	?SendPlayerList@CDPLoginSrvr@@QAEXPBD0KK@Z	; CDPLoginSrvr::SendPlayerList
PUBLIC	?SendError@CDPLoginSrvr@@QAEXJK@Z		; CDPLoginSrvr::SendError
PUBLIC	?SendCloseExistingConnection@CDPLoginSrvr@@QAEXPBDJ@Z ; CDPLoginSrvr::SendCloseExistingConnection
PUBLIC	?SendFail@CDPLoginSrvr@@QAEXJPBD@Z		; CDPLoginSrvr::SendFail
PUBLIC	?SendOneHourNotify@CDPLoginSrvr@@QAEXPBD@Z	; CDPLoginSrvr::SendOneHourNotify
PUBLIC	?OnAddConnection@CDPLoginSrvr@@QAEXK@Z		; CDPLoginSrvr::OnAddConnection
PUBLIC	?OnRemoveConnection@CDPLoginSrvr@@QAEXK@Z	; CDPLoginSrvr::OnRemoveConnection
PUBLIC	??1?$_Tree@V?$_Tmap_traits@KP8CDPLoginSrvr@@AEXAAVCAr@@KPAEK@ZU?$less@K@std@@V?$allocator@U?$pair@$$CBKP8CDPLoginSrvr@@AEXAAVCAr@@KPAEK@Z@std@@@4@$0A@@std@@@std@@QAE@XZ ; std::_Tree<std::_Tmap_traits<unsigned long,void (__thiscall CDPLoginSrvr::*)(CAr &,unsigned long,unsigned char *,unsigned long),std::less<unsigned long>,std::allocator<std::pair<unsigned long const ,void (__thiscall CDPLoginSrvr::*)(CAr &,unsigned long,unsigned char *,unsigned long)> >,0> >::~_Tree<std::_Tmap_traits<unsigned long,void (__thiscall CDPLoginSrvr::*)(CAr &,unsigned long,unsigned char *,unsigned long),std::less<unsigned long>,std::allocator<std::pair<unsigned long const ,void (__thiscall CDPLoginSrvr::*)(CAr &,unsigned long,unsigned char *,unsigned long)> >,0> >
PUBLIC	?_Insert_node@?$_Tree_val@U?$_Tree_simple_types@U?$pair@$$CBKP8CDPLoginSrvr@@AEXAAVCAr@@KPAEK@Z@std@@@std@@@std@@QAEPAU?$_Tree_node@U?$pair@$$CBKP8CDPLoginSrvr@@AEXAAVCAr@@KPAEK@Z@std@@PAX@2@U?$_Tree_id@PAU?$_Tree_node@U?$pair@$$CBKP8CDPLoginSrvr@@AEXAAVCAr@@KPAEK@Z@std@@PAX@std@@@2@QAU32@@Z ; std::_Tree_val<std::_Tree_simple_types<std::pair<unsigned long const ,void (__thiscall CDPLoginSrvr::*)(CAr &,unsigned long,unsigned char *,unsigned long)> > >::_Insert_node
PUBLIC	??1?$map@KP8CDPLoginSrvr@@AEXAAVCAr@@KPAEK@ZU?$less@K@std@@V?$allocator@U?$pair@$$CBKP8CDPLoginSrvr@@AEXAAVCAr@@KPAEK@Z@std@@@4@@std@@QAE@XZ ; std::map<unsigned long,void (__thiscall CDPLoginSrvr::*)(CAr &,unsigned long,unsigned char *,unsigned long),std::less<unsigned long>,std::allocator<std::pair<unsigned long const ,void (__thiscall CDPLoginSrvr::*)(CAr &,unsigned long,unsigned char *,unsigned long)> > >::~map<unsigned long,void (__thiscall CDPLoginSrvr::*)(CAr &,unsigned long,unsigned char *,unsigned long),std::less<unsigned long>,std::allocator<std::pair<unsigned long const ,void (__thiscall CDPLoginSrvr::*)(CAr &,unsigned long,unsigned char *,unsigned long)> > >
PUBLIC	?OnGetPlayerList@CDPLoginSrvr@@QAEXAAVCAr@@KPAEK@Z ; CDPLoginSrvr::OnGetPlayerList
PUBLIC	?OnCreatePlayer@CDPLoginSrvr@@QAEXAAVCAr@@KPAEK@Z ; CDPLoginSrvr::OnCreatePlayer
PUBLIC	?OnRemovePlayer@CDPLoginSrvr@@QAEXAAVCAr@@KPAEK@Z ; CDPLoginSrvr::OnRemovePlayer
PUBLIC	?OnLeave@CDPLoginSrvr@@QAEXAAVCAr@@KPAEK@Z	; CDPLoginSrvr::OnLeave
PUBLIC	?OnCloseError@CDPLoginSrvr@@QAEXAAVCAr@@KPAEK@Z	; CDPLoginSrvr::OnCloseError
PUBLIC	?OnLoginProtect@CDPLoginSrvr@@QAEXAAVCAr@@KPAEK@Z ; CDPLoginSrvr::OnLoginProtect
PUBLIC	?SendLoginProtect@CDPLoginSrvr@@QAEXPBD0KHK@Z	; CDPLoginSrvr::SendLoginProtect
PUBLIC	??_GCDPLoginSrvr@@UAEPAXI@Z			; CDPLoginSrvr::`scalar deleting destructor'
PUBLIC	??$?5K@CAr@@QAEAAV0@AAK@Z			; CAr::operator>><unsigned long>
PUBLIC	??$?6K@CAr@@QAEAAV0@ABK@Z			; CAr::operator<<<unsigned long>
PUBLIC	??$?6J@CAr@@QAEAAV0@ABJ@Z			; CAr::operator<<<long>
PUBLIC	??$?6I@CAr@@QAEAAV0@ABI@Z			; CAr::operator<<<unsigned int>
PUBLIC	??$?6H@CAr@@QAEAAV0@ABH@Z			; CAr::operator<<<int>
PUBLIC	??$_Find_lower_bound@K@?$_Tree@V?$_Tmap_traits@KP8CDPLoginSrvr@@AEXAAVCAr@@KPAEK@ZU?$less@K@std@@V?$allocator@U?$pair@$$CBKP8CDPLoginSrvr@@AEXAAVCAr@@KPAEK@Z@std@@@4@$0A@@std@@@std@@IBE?AU?$_Tree_find_result@PAU?$_Tree_node@U?$pair@$$CBKP8CDPLoginSrvr@@AEXAAVCAr@@KPAEK@Z@std@@PAX@std@@@1@ABK@Z ; std::_Tree<std::_Tmap_traits<unsigned long,void (__thiscall CDPLoginSrvr::*)(CAr &,unsigned long,unsigned char *,unsigned long),std::less<unsigned long>,std::allocator<std::pair<unsigned long const ,void (__thiscall CDPLoginSrvr::*)(CAr &,unsigned long,unsigned char *,unsigned long)> >,0> >::_Find_lower_bound<unsigned long>
PUBLIC	??1?$_Alloc_construct_ptr@V?$allocator@U?$_Tree_node@U?$pair@$$CBKP8CDPLoginSrvr@@AEXAAVCAr@@KPAEK@Z@std@@PAX@std@@@std@@@std@@QAE@XZ ; std::_Alloc_construct_ptr<std::allocator<std::_Tree_node<std::pair<unsigned long const ,void (__thiscall CDPLoginSrvr::*)(CAr &,unsigned long,unsigned char *,unsigned long)>,void *> > >::~_Alloc_construct_ptr<std::allocator<std::_Tree_node<std::pair<unsigned long const ,void (__thiscall CDPLoginSrvr::*)(CAr &,unsigned long,unsigned char *,unsigned long)>,void *> > >
PUBLIC	??$_Erase_tree@V?$allocator@U?$_Tree_node@U?$pair@$$CBKP8CDPLoginSrvr@@AEXAAVCAr@@KPAEK@Z@std@@PAX@std@@@std@@@?$_Tree_val@U?$_Tree_simple_types@U?$pair@$$CBKP8CDPLoginSrvr@@AEXAAVCAr@@KPAEK@Z@std@@@std@@@std@@QAEXAAV?$allocator@U?$_Tree_node@U?$pair@$$CBKP8CDPLoginSrvr@@AEXAAVCAr@@KPAEK@Z@std@@PAX@std@@@1@PAU?$_Tree_node@U?$pair@$$CBKP8CDPLoginSrvr@@AEXAAVCAr@@KPAEK@Z@std@@PAX@1@@Z ; std::_Tree_val<std::_Tree_simple_types<std::pair<unsigned long const ,void (__thiscall CDPLoginSrvr::*)(CAr &,unsigned long,unsigned char *,unsigned long)> > >::_Erase_tree<std::allocator<std::_Tree_node<std::pair<unsigned long const ,void (__thiscall CDPLoginSrvr::*)(CAr &,unsigned long,unsigned char *,unsigned long)>,void *> > >
PUBLIC	??_7exception@std@@6B@				; std::exception::`vftable'
PUBLIC	??_C@_0BC@EOODALEL@Unknown?5exception@		; `string'
PUBLIC	??_7bad_alloc@std@@6B@				; std::bad_alloc::`vftable'
PUBLIC	??_7bad_array_new_length@std@@6B@		; std::bad_array_new_length::`vftable'
PUBLIC	??_C@_0BF@KINCDENJ@bad?5array?5new?5length@	; `string'
PUBLIC	??_R0?AVexception@std@@@8			; std::exception `RTTI Type Descriptor'
PUBLIC	__CT??_R0?AVexception@std@@@8??0exception@std@@QAE@ABV01@@Z12
PUBLIC	__TI3?AVbad_array_new_length@std@@
PUBLIC	__CTA3?AVbad_array_new_length@std@@
PUBLIC	??_R0?AVbad_array_new_length@std@@@8		; std::bad_array_new_length `RTTI Type Descriptor'
PUBLIC	__CT??_R0?AVbad_array_new_length@std@@@8??0bad_array_new_length@std@@QAE@ABV01@@Z12
PUBLIC	??_R0?AVbad_alloc@std@@@8			; std::bad_alloc `RTTI Type Descriptor'
PUBLIC	__CT??_R0?AVbad_alloc@std@@@8??0bad_alloc@std@@QAE@ABV01@@Z12
PUBLIC	??_C@_0BB@GCADKGJO@map?1set?5too?5long@		; `string'
PUBLIC	??_R4exception@std@@6B@				; std::exception::`RTTI Complete Object Locator'
PUBLIC	??_R3exception@std@@8				; std::exception::`RTTI Class Hierarchy Descriptor'
PUBLIC	??_R2exception@std@@8				; std::exception::`RTTI Base Class Array'
PUBLIC	??_R1A@?0A@EA@exception@std@@8			; std::exception::`RTTI Base Class Descriptor at (0,-1,0,64)'
PUBLIC	??_R4bad_array_new_length@std@@6B@		; std::bad_array_new_length::`RTTI Complete Object Locator'
PUBLIC	??_R3bad_array_new_length@std@@8		; std::bad_array_new_length::`RTTI Class Hierarchy Descriptor'
PUBLIC	??_R2bad_array_new_length@std@@8		; std::bad_array_new_length::`RTTI Base Class Array'
PUBLIC	??_R1A@?0A@EA@bad_array_new_length@std@@8	; std::bad_array_new_length::`RTTI Base Class Descriptor at (0,-1,0,64)'
PUBLIC	??_R1A@?0A@EA@bad_alloc@std@@8			; std::bad_alloc::`RTTI Base Class Descriptor at (0,-1,0,64)'
PUBLIC	??_R3bad_alloc@std@@8				; std::bad_alloc::`RTTI Class Hierarchy Descriptor'
PUBLIC	??_R2bad_alloc@std@@8				; std::bad_alloc::`RTTI Base Class Array'
PUBLIC	??_R4bad_alloc@std@@6B@				; std::bad_alloc::`RTTI Complete Object Locator'
PUBLIC	??_7CDPLoginSrvr@@6B@				; CDPLoginSrvr::`vftable'
PUBLIC	?g_dpLoginSrvr@@3VCDPLoginSrvr@@A		; g_dpLoginSrvr
PUBLIC	??_R4CDPLoginSrvr@@6B@				; CDPLoginSrvr::`RTTI Complete Object Locator'
PUBLIC	??_R0?AVCDPLoginSrvr@@@8			; CDPLoginSrvr `RTTI Type Descriptor'
PUBLIC	??_R3CDPLoginSrvr@@8				; CDPLoginSrvr::`RTTI Class Hierarchy Descriptor'
PUBLIC	??_R2CDPLoginSrvr@@8				; CDPLoginSrvr::`RTTI Base Class Array'
PUBLIC	??_R1A@?0A@EA@CDPLoginSrvr@@8			; CDPLoginSrvr::`RTTI Base Class Descriptor at (0,-1,0,64)'
PUBLIC	??_R1A@?0A@EA@CDPMng@@8				; CDPMng::`RTTI Base Class Descriptor at (0,-1,0,64)'
PUBLIC	??_R0?AVCDPMng@@@8				; CDPMng `RTTI Type Descriptor'
PUBLIC	??_R3CDPMng@@8					; CDPMng::`RTTI Class Hierarchy Descriptor'
PUBLIC	??_R2CDPMng@@8					; CDPMng::`RTTI Base Class Array'
EXTRN	??2@YAPAXI@Z:PROC				; operator new
EXTRN	??3@YAXPAXI@Z:PROC				; operator delete
EXTRN	_atexit:PROC
EXTRN	__invoke_watson:PROC
EXTRN	__imp__PostQueuedCompletionStatus@16:PROC
EXTRN	?_Xlength_error@std@@YAXPBD@Z:PROC		; std::_Xlength_error
EXTRN	___std_exception_copy:PROC
EXTRN	___std_exception_destroy:PROC
EXTRN	??_Eexception@std@@UAEPAXI@Z:PROC		; std::exception::`vector deleting destructor'
EXTRN	??_Ebad_alloc@std@@UAEPAXI@Z:PROC		; std::bad_alloc::`vector deleting destructor'
EXTRN	??_Ebad_array_new_length@std@@UAEPAXI@Z:PROC	; std::bad_array_new_length::`vector deleting destructor'
EXTRN	?IsAllowedLetter@CProject@@QAEHPBDH@Z:PROC	; CProject::IsAllowedLetter
EXTRN	??0CAr@@QAE@PAXI@Z:PROC				; CAr::CAr
EXTRN	??1CAr@@QAE@XZ:PROC				; CAr::~CAr
EXTRN	?Write@CAr@@QAEXPBXI@Z:PROC			; CAr::Write
EXTRN	?CheckBuf@CAr@@QAEXI@Z:PROC			; CAr::CheckBuf
EXTRN	?WriteString@CAr@@QAEXPBD@Z:PROC		; CAr::WriteString
EXTRN	?ReadString@CAr@@QAEPADPADH@Z:PROC		; CAr::ReadString
EXTRN	?GetBuffer@CAr@@QAEPAEPAH@Z:PROC		; CAr::GetBuffer
EXTRN	?Send@CDPSock@@QAEHPADKK@Z:PROC			; CDPSock::Send
EXTRN	??0CDPMng@@QAE@XZ:PROC				; CDPMng::CDPMng
EXTRN	??1CDPMng@@UAE@XZ:PROC				; CDPMng::~CDPMng
EXTRN	?AllocRequest@CDbManager@@QAEPAUtagDB_OVERLAPPED_PLUS@@XZ:PROC ; CDbManager::AllocRequest
EXTRN	?MakeRequest@CDbManager@@QAEXPAUtagDB_OVERLAPPED_PLUS@@PAEK@Z:PROC ; CDbManager::MakeRequest
EXTRN	?SendRemoveAccount@CDPAccountClient@@QAEXPAD@Z:PROC ; CDPAccountClient::SendRemoveAccount
EXTRN	?SendRemoveAllAccounts@CDPAccountClient@@QAEXXZ:PROC ; CDPAccountClient::SendRemoveAllAccounts
EXTRN	??_ECDPLoginSrvr@@UAEPAXI@Z:PROC		; CDPLoginSrvr::`vector deleting destructor'
EXTRN	@__security_check_cookie@4:PROC
EXTRN	__CxxThrowException@8:PROC
EXTRN	___CxxFrameHandler3:PROC
EXTRN	__chkstk:PROC
EXTRN	_memset:PROC
EXTRN	??_7type_info@@6B@:QWORD			; type_info::`vftable'
EXTRN	?prj@@3VCProject@@A:BYTE			; prj
EXTRN	?g_DbManager@@3AAVCDbManager@@A:DWORD		; g_DbManager
EXTRN	?g_dpAccountClient@@3VCDPAccountClient@@A:BYTE	; g_dpAccountClient
EXTRN	___security_cookie:DWORD
_BSS	SEGMENT
?g_dpLoginSrvr@@3VCDPLoginSrvr@@A DB 018H DUP (?)	; g_dpLoginSrvr
_BSS	ENDS
CRT$XCU	SEGMENT
?g_dpLoginSrvr$initializer$@@3P6AXXZA DD FLAT:??__Eg_dpLoginSrvr@@YAXXZ ; g_dpLoginSrvr$initializer$
CRT$XCU	ENDS
;	COMDAT ??_R2CDPMng@@8
rdata$r	SEGMENT
??_R2CDPMng@@8 DD FLAT:??_R1A@?0A@EA@CDPMng@@8		; CDPMng::`RTTI Base Class Array'
rdata$r	ENDS
;	COMDAT ??_R3CDPMng@@8
rdata$r	SEGMENT
??_R3CDPMng@@8 DD 00H					; CDPMng::`RTTI Class Hierarchy Descriptor'
	DD	00H
	DD	01H
	DD	FLAT:??_R2CDPMng@@8
rdata$r	ENDS
;	COMDAT ??_R0?AVCDPMng@@@8
data$rs	SEGMENT
??_R0?AVCDPMng@@@8 DD FLAT:??_7type_info@@6B@		; CDPMng `RTTI Type Descriptor'
	DD	00H
	DB	'.?AVCDPMng@@', 00H
data$rs	ENDS
;	COMDAT ??_R1A@?0A@EA@CDPMng@@8
rdata$r	SEGMENT
??_R1A@?0A@EA@CDPMng@@8 DD FLAT:??_R0?AVCDPMng@@@8	; CDPMng::`RTTI Base Class Descriptor at (0,-1,0,64)'
	DD	00H
	DD	00H
	DD	0ffffffffH
	DD	00H
	DD	040H
	DD	FLAT:??_R3CDPMng@@8
rdata$r	ENDS
;	COMDAT ??_R1A@?0A@EA@CDPLoginSrvr@@8
rdata$r	SEGMENT
??_R1A@?0A@EA@CDPLoginSrvr@@8 DD FLAT:??_R0?AVCDPLoginSrvr@@@8 ; CDPLoginSrvr::`RTTI Base Class Descriptor at (0,-1,0,64)'
	DD	01H
	DD	00H
	DD	0ffffffffH
	DD	00H
	DD	040H
	DD	FLAT:??_R3CDPLoginSrvr@@8
rdata$r	ENDS
;	COMDAT ??_R2CDPLoginSrvr@@8
rdata$r	SEGMENT
??_R2CDPLoginSrvr@@8 DD FLAT:??_R1A@?0A@EA@CDPLoginSrvr@@8 ; CDPLoginSrvr::`RTTI Base Class Array'
	DD	FLAT:??_R1A@?0A@EA@CDPMng@@8
rdata$r	ENDS
;	COMDAT ??_R3CDPLoginSrvr@@8
rdata$r	SEGMENT
??_R3CDPLoginSrvr@@8 DD 00H				; CDPLoginSrvr::`RTTI Class Hierarchy Descriptor'
	DD	00H
	DD	02H
	DD	FLAT:??_R2CDPLoginSrvr@@8
rdata$r	ENDS
;	COMDAT ??_R0?AVCDPLoginSrvr@@@8
data$rs	SEGMENT
??_R0?AVCDPLoginSrvr@@@8 DD FLAT:??_7type_info@@6B@	; CDPLoginSrvr `RTTI Type Descriptor'
	DD	00H
	DB	'.?AVCDPLoginSrvr@@', 00H
data$rs	ENDS
;	COMDAT ??_R4CDPLoginSrvr@@6B@
rdata$r	SEGMENT
??_R4CDPLoginSrvr@@6B@ DD 00H				; CDPLoginSrvr::`RTTI Complete Object Locator'
	DD	00H
	DD	00H
	DD	FLAT:??_R0?AVCDPLoginSrvr@@@8
	DD	FLAT:??_R3CDPLoginSrvr@@8
rdata$r	ENDS
;	COMDAT ?nSize@?1??UserMessageHandler@CDPLoginSrvr@@UAEXPAUDPMSG_GENERIC@@KK@Z@4IA
_DATA	SEGMENT
?nSize@?1??UserMessageHandler@CDPLoginSrvr@@UAEXPAUDPMSG_GENERIC@@KK@Z@4IA DD 04H ; `CDPLoginSrvr::UserMessageHandler'::`2'::nSize
_DATA	ENDS
;	COMDAT ??_7CDPLoginSrvr@@6B@
CONST	SEGMENT
??_7CDPLoginSrvr@@6B@ DD FLAT:??_R4CDPLoginSrvr@@6B@	; CDPLoginSrvr::`vftable'
	DD	FLAT:??_ECDPLoginSrvr@@UAEPAXI@Z
	DD	FLAT:?SysMessageHandler@CDPLoginSrvr@@UAEXPAUDPMSG_GENERIC@@KK@Z
	DD	FLAT:?UserMessageHandler@CDPLoginSrvr@@UAEXPAUDPMSG_GENERIC@@KK@Z
CONST	ENDS
;	COMDAT ??_R4bad_alloc@std@@6B@
rdata$r	SEGMENT
??_R4bad_alloc@std@@6B@ DD 00H				; std::bad_alloc::`RTTI Complete Object Locator'
	DD	00H
	DD	00H
	DD	FLAT:??_R0?AVbad_alloc@std@@@8
	DD	FLAT:??_R3bad_alloc@std@@8
rdata$r	ENDS
;	COMDAT ??_R2bad_alloc@std@@8
rdata$r	SEGMENT
??_R2bad_alloc@std@@8 DD FLAT:??_R1A@?0A@EA@bad_alloc@std@@8 ; std::bad_alloc::`RTTI Base Class Array'
	DD	FLAT:??_R1A@?0A@EA@exception@std@@8
rdata$r	ENDS
;	COMDAT ??_R3bad_alloc@std@@8
rdata$r	SEGMENT
??_R3bad_alloc@std@@8 DD 00H				; std::bad_alloc::`RTTI Class Hierarchy Descriptor'
	DD	00H
	DD	02H
	DD	FLAT:??_R2bad_alloc@std@@8
rdata$r	ENDS
;	COMDAT ??_R1A@?0A@EA@bad_alloc@std@@8
rdata$r	SEGMENT
??_R1A@?0A@EA@bad_alloc@std@@8 DD FLAT:??_R0?AVbad_alloc@std@@@8 ; std::bad_alloc::`RTTI Base Class Descriptor at (0,-1,0,64)'
	DD	01H
	DD	00H
	DD	0ffffffffH
	DD	00H
	DD	040H
	DD	FLAT:??_R3bad_alloc@std@@8
rdata$r	ENDS
;	COMDAT ??_R1A@?0A@EA@bad_array_new_length@std@@8
rdata$r	SEGMENT
??_R1A@?0A@EA@bad_array_new_length@std@@8 DD FLAT:??_R0?AVbad_array_new_length@std@@@8 ; std::bad_array_new_length::`RTTI Base Class Descriptor at (0,-1,0,64)'
	DD	02H
	DD	00H
	DD	0ffffffffH
	DD	00H
	DD	040H
	DD	FLAT:??_R3bad_array_new_length@std@@8
rdata$r	ENDS
;	COMDAT ??_R2bad_array_new_length@std@@8
rdata$r	SEGMENT
??_R2bad_array_new_length@std@@8 DD FLAT:??_R1A@?0A@EA@bad_array_new_length@std@@8 ; std::bad_array_new_length::`RTTI Base Class Array'
	DD	FLAT:??_R1A@?0A@EA@bad_alloc@std@@8
	DD	FLAT:??_R1A@?0A@EA@exception@std@@8
rdata$r	ENDS
;	COMDAT ??_R3bad_array_new_length@std@@8
rdata$r	SEGMENT
??_R3bad_array_new_length@std@@8 DD 00H			; std::bad_array_new_length::`RTTI Class Hierarchy Descriptor'
	DD	00H
	DD	03H
	DD	FLAT:??_R2bad_array_new_length@std@@8
rdata$r	ENDS
;	COMDAT ??_R4bad_array_new_length@std@@6B@
rdata$r	SEGMENT
??_R4bad_array_new_length@std@@6B@ DD 00H		; std::bad_array_new_length::`RTTI Complete Object Locator'
	DD	00H
	DD	00H
	DD	FLAT:??_R0?AVbad_array_new_length@std@@@8
	DD	FLAT:??_R3bad_array_new_length@std@@8
rdata$r	ENDS
;	COMDAT ??_R1A@?0A@EA@exception@std@@8
rdata$r	SEGMENT
??_R1A@?0A@EA@exception@std@@8 DD FLAT:??_R0?AVexception@std@@@8 ; std::exception::`RTTI Base Class Descriptor at (0,-1,0,64)'
	DD	00H
	DD	00H
	DD	0ffffffffH
	DD	00H
	DD	040H
	DD	FLAT:??_R3exception@std@@8
rdata$r	ENDS
;	COMDAT ??_R2exception@std@@8
rdata$r	SEGMENT
??_R2exception@std@@8 DD FLAT:??_R1A@?0A@EA@exception@std@@8 ; std::exception::`RTTI Base Class Array'
rdata$r	ENDS
;	COMDAT ??_R3exception@std@@8
rdata$r	SEGMENT
??_R3exception@std@@8 DD 00H				; std::exception::`RTTI Class Hierarchy Descriptor'
	DD	00H
	DD	01H
	DD	FLAT:??_R2exception@std@@8
rdata$r	ENDS
;	COMDAT ??_R4exception@std@@6B@
rdata$r	SEGMENT
??_R4exception@std@@6B@ DD 00H				; std::exception::`RTTI Complete Object Locator'
	DD	00H
	DD	00H
	DD	FLAT:??_R0?AVexception@std@@@8
	DD	FLAT:??_R3exception@std@@8
rdata$r	ENDS
;	COMDAT ??_C@_0BB@GCADKGJO@map?1set?5too?5long@
CONST	SEGMENT
??_C@_0BB@GCADKGJO@map?1set?5too?5long@ DB 'map/set too long', 00H ; `string'
CONST	ENDS
;	COMDAT __CT??_R0?AVbad_alloc@std@@@8??0bad_alloc@std@@QAE@ABV01@@Z12
xdata$x	SEGMENT
__CT??_R0?AVbad_alloc@std@@@8??0bad_alloc@std@@QAE@ABV01@@Z12 DD 010H
	DD	FLAT:??_R0?AVbad_alloc@std@@@8
	DD	00H
	DD	0ffffffffH
	ORG $+4
	DD	0cH
	DD	FLAT:??0bad_alloc@std@@QAE@ABV01@@Z
xdata$x	ENDS
;	COMDAT ??_R0?AVbad_alloc@std@@@8
data$r	SEGMENT
??_R0?AVbad_alloc@std@@@8 DD FLAT:??_7type_info@@6B@	; std::bad_alloc `RTTI Type Descriptor'
	DD	00H
	DB	'.?AVbad_alloc@std@@', 00H
data$r	ENDS
;	COMDAT __CT??_R0?AVbad_array_new_length@std@@@8??0bad_array_new_length@std@@QAE@ABV01@@Z12
xdata$x	SEGMENT
__CT??_R0?AVbad_array_new_length@std@@@8??0bad_array_new_length@std@@QAE@ABV01@@Z12 DD 00H
	DD	FLAT:??_R0?AVbad_array_new_length@std@@@8
	DD	00H
	DD	0ffffffffH
	ORG $+4
	DD	0cH
	DD	FLAT:??0bad_array_new_length@std@@QAE@ABV01@@Z
xdata$x	ENDS
;	COMDAT ??_R0?AVbad_array_new_length@std@@@8
data$r	SEGMENT
??_R0?AVbad_array_new_length@std@@@8 DD FLAT:??_7type_info@@6B@ ; std::bad_array_new_length `RTTI Type Descriptor'
	DD	00H
	DB	'.?AVbad_array_new_length@std@@', 00H
data$r	ENDS
;	COMDAT __CTA3?AVbad_array_new_length@std@@
xdata$x	SEGMENT
__CTA3?AVbad_array_new_length@std@@ DD 03H
	DD	FLAT:__CT??_R0?AVbad_array_new_length@std@@@8??0bad_array_new_length@std@@QAE@ABV01@@Z12
	DD	FLAT:__CT??_R0?AVbad_alloc@std@@@8??0bad_alloc@std@@QAE@ABV01@@Z12
	DD	FLAT:__CT??_R0?AVexception@std@@@8??0exception@std@@QAE@ABV01@@Z12
xdata$x	ENDS
;	COMDAT __TI3?AVbad_array_new_length@std@@
xdata$x	SEGMENT
__TI3?AVbad_array_new_length@std@@ DD 00H
	DD	FLAT:??1bad_array_new_length@std@@UAE@XZ
	DD	00H
	DD	FLAT:__CTA3?AVbad_array_new_length@std@@
xdata$x	ENDS
;	COMDAT __CT??_R0?AVexception@std@@@8??0exception@std@@QAE@ABV01@@Z12
xdata$x	SEGMENT
__CT??_R0?AVexception@std@@@8??0exception@std@@QAE@ABV01@@Z12 DD 00H
	DD	FLAT:??_R0?AVexception@std@@@8
	DD	00H
	DD	0ffffffffH
	ORG $+4
	DD	0cH
	DD	FLAT:??0exception@std@@QAE@ABV01@@Z
xdata$x	ENDS
;	COMDAT ??_R0?AVexception@std@@@8
data$r	SEGMENT
??_R0?AVexception@std@@@8 DD FLAT:??_7type_info@@6B@	; std::exception `RTTI Type Descriptor'
	DD	00H
	DB	'.?AVexception@std@@', 00H
data$r	ENDS
;	COMDAT ??_C@_0BF@KINCDENJ@bad?5array?5new?5length@
CONST	SEGMENT
??_C@_0BF@KINCDENJ@bad?5array?5new?5length@ DB 'bad array new length', 00H ; `string'
CONST	ENDS
;	COMDAT ??_7bad_array_new_length@std@@6B@
CONST	SEGMENT
??_7bad_array_new_length@std@@6B@ DD FLAT:??_R4bad_array_new_length@std@@6B@ ; std::bad_array_new_length::`vftable'
	DD	FLAT:??_Ebad_array_new_length@std@@UAEPAXI@Z
	DD	FLAT:?what@exception@std@@UBEPBDXZ
CONST	ENDS
;	COMDAT ??_7bad_alloc@std@@6B@
CONST	SEGMENT
??_7bad_alloc@std@@6B@ DD FLAT:??_R4bad_alloc@std@@6B@	; std::bad_alloc::`vftable'
	DD	FLAT:??_Ebad_alloc@std@@UAEPAXI@Z
	DD	FLAT:?what@exception@std@@UBEPBDXZ
CONST	ENDS
;	COMDAT ??_C@_0BC@EOODALEL@Unknown?5exception@
CONST	SEGMENT
??_C@_0BC@EOODALEL@Unknown?5exception@ DB 'Unknown exception', 00H ; `string'
CONST	ENDS
;	COMDAT ??_7exception@std@@6B@
CONST	SEGMENT
??_7exception@std@@6B@ DD FLAT:??_R4exception@std@@6B@	; std::exception::`vftable'
	DD	FLAT:??_Eexception@std@@UAEPAXI@Z
	DD	FLAT:?what@exception@std@@UBEPBDXZ
CONST	ENDS
;	COMDAT xdata$x
xdata$x	SEGMENT
__unwindtable$??$?0U?$pair@$$CBKP8CDPLoginSrvr@@AEXAAVCAr@@KPAEK@Z@std@@@?$_Tree_temp_node@V?$allocator@U?$_Tree_node@U?$pair@$$CBKP8CDPLoginSrvr@@AEXAAVCAr@@KPAEK@Z@std@@PAX@std@@@std@@@std@@QAE@AAV?$allocator@U?$_Tree_node@U?$pair@$$CBKP8CDPLoginSrvr@@AEXAAVCAr@@KPAEK@Z@std@@PAX@std@@@1@PAU?$_Tree_node@U?$pair@$$CBKP8CDPLoginSrvr@@AEXAAVCAr@@KPAEK@Z@std@@PAX@1@$$QAU?$pair@$$CBKP8CDPLoginSrvr@@AEXAAVCAr@@KPAEK@Z@1@@Z DD 0ffffffffH
	DD	FLAT:__unwindfunclet$??$?0U?$pair@$$CBKP8CDPLoginSrvr@@AEXAAVCAr@@KPAEK@Z@std@@@?$_Tree_temp_node@V?$allocator@U?$_Tree_node@U?$pair@$$CBKP8CDPLoginSrvr@@AEXAAVCAr@@KPAEK@Z@std@@PAX@std@@@std@@@std@@QAE@AAV?$allocator@U?$_Tree_node@U?$pair@$$CBKP8CDPLoginSrvr@@AEXAAVCAr@@KPAEK@Z@std@@PAX@std@@@1@PAU?$_Tree_node@U?$pair@$$CBKP8CDPLoginSrvr@@AEXAAVCAr@@KPAEK@Z@std@@PAX@1@$$QAU?$pair@$$CBKP8CDPLoginSrvr@@AEXAAVCAr@@KPAEK@Z@1@@Z$1
__ehfuncinfo$??$?0U?$pair@$$CBKP8CDPLoginSrvr@@AEXAAVCAr@@KPAEK@Z@std@@@?$_Tree_temp_node@V?$allocator@U?$_Tree_node@U?$pair@$$CBKP8CDPLoginSrvr@@AEXAAVCAr@@KPAEK@Z@std@@PAX@std@@@std@@@std@@QAE@AAV?$allocator@U?$_Tree_node@U?$pair@$$CBKP8CDPLoginSrvr@@AEXAAVCAr@@KPAEK@Z@std@@PAX@std@@@1@PAU?$_Tree_node@U?$pair@$$CBKP8CDPLoginSrvr@@AEXAAVCAr@@KPAEK@Z@std@@PAX@1@$$QAU?$pair@$$CBKP8CDPLoginSrvr@@AEXAAVCAr@@KPAEK@Z@1@@Z DD 019930522H
	DD	01H
	DD	FLAT:__unwindtable$??$?0U?$pair@$$CBKP8CDPLoginSrvr@@AEXAAVCAr@@KPAEK@Z@std@@@?$_Tree_temp_node@V?$allocator@U?$_Tree_node@U?$pair@$$CBKP8CDPLoginSrvr@@AEXAAVCAr@@KPAEK@Z@std@@PAX@std@@@std@@@std@@QAE@AAV?$allocator@U?$_Tree_node@U?$pair@$$CBKP8CDPLoginSrvr@@AEXAAVCAr@@KPAEK@Z@std@@PAX@std@@@1@PAU?$_Tree_node@U?$pair@$$CBKP8CDPLoginSrvr@@AEXAAVCAr@@KPAEK@Z@std@@PAX@1@$$QAU?$pair@$$CBKP8CDPLoginSrvr@@AEXAAVCAr@@KPAEK@Z@1@@Z
	DD	2 DUP(00H)
	DD	2 DUP(00H)
	DD	00H
	DD	01H
xdata$x	ENDS
;	COMDAT xdata$x
xdata$x	SEGMENT
__unwindtable$??0?$_Tree_temp_node_alloc@V?$allocator@U?$_Tree_node@U?$pair@$$CBKP8CDPLoginSrvr@@AEXAAVCAr@@KPAEK@Z@std@@PAX@std@@@std@@@std@@QAE@AAV?$allocator@U?$_Tree_node@U?$pair@$$CBKP8CDPLoginSrvr@@AEXAAVCAr@@KPAEK@Z@std@@PAX@std@@@1@@Z DD 0ffffffffH
	DD	FLAT:__unwindfunclet$??0?$_Tree_temp_node_alloc@V?$allocator@U?$_Tree_node@U?$pair@$$CBKP8CDPLoginSrvr@@AEXAAVCAr@@KPAEK@Z@std@@PAX@std@@@std@@@std@@QAE@AAV?$allocator@U?$_Tree_node@U?$pair@$$CBKP8CDPLoginSrvr@@AEXAAVCAr@@KPAEK@Z@std@@PAX@std@@@1@@Z$0
__ehfuncinfo$??0?$_Tree_temp_node_alloc@V?$allocator@U?$_Tree_node@U?$pair@$$CBKP8CDPLoginSrvr@@AEXAAVCAr@@KPAEK@Z@std@@PAX@std@@@std@@@std@@QAE@AAV?$allocator@U?$_Tree_node@U?$pair@$$CBKP8CDPLoginSrvr@@AEXAAVCAr@@KPAEK@Z@std@@PAX@std@@@1@@Z DD 019930522H
	DD	01H
	DD	FLAT:__unwindtable$??0?$_Tree_temp_node_alloc@V?$allocator@U?$_Tree_node@U?$pair@$$CBKP8CDPLoginSrvr@@AEXAAVCAr@@KPAEK@Z@std@@PAX@std@@@std@@@std@@QAE@AAV?$allocator@U?$_Tree_node@U?$pair@$$CBKP8CDPLoginSrvr@@AEXAAVCAr@@KPAEK@Z@std@@PAX@std@@@1@@Z
	DD	2 DUP(00H)
	DD	2 DUP(00H)
	DD	00H
	DD	01H
xdata$x	ENDS
;	COMDAT xdata$x
xdata$x	SEGMENT
__unwindtable$??$_Emplace@U?$pair@$$CBKP8CDPLoginSrvr@@AEXAAVCAr@@KPAEK@Z@std@@@?$_Tree@V?$_Tmap_traits@KP8CDPLoginSrvr@@AEXAAVCAr@@KPAEK@ZU?$less@K@std@@V?$allocator@U?$pair@$$CBKP8CDPLoginSrvr@@AEXAAVCAr@@KPAEK@Z@std@@@4@$0A@@std@@@std@@IAE?AU?$pair@PAU?$_Tree_node@U?$pair@$$CBKP8CDPLoginSrvr@@AEXAAVCAr@@KPAEK@Z@std@@PAX@std@@_N@1@$$QAU?$pair@$$CBKP8CDPLoginSrvr@@AEXAAVCAr@@KPAEK@Z@1@@Z DD 0ffffffffH
	DD	FLAT:__unwindfunclet$??$_Emplace@U?$pair@$$CBKP8CDPLoginSrvr@@AEXAAVCAr@@KPAEK@Z@std@@@?$_Tree@V?$_Tmap_traits@KP8CDPLoginSrvr@@AEXAAVCAr@@KPAEK@ZU?$less@K@std@@V?$allocator@U?$pair@$$CBKP8CDPLoginSrvr@@AEXAAVCAr@@KPAEK@Z@std@@@4@$0A@@std@@@std@@IAE?AU?$pair@PAU?$_Tree_node@U?$pair@$$CBKP8CDPLoginSrvr@@AEXAAVCAr@@KPAEK@Z@std@@PAX@std@@_N@1@$$QAU?$pair@$$CBKP8CDPLoginSrvr@@AEXAAVCAr@@KPAEK@Z@1@@Z$2
__ehfuncinfo$??$_Emplace@U?$pair@$$CBKP8CDPLoginSrvr@@AEXAAVCAr@@KPAEK@Z@std@@@?$_Tree@V?$_Tmap_traits@KP8CDPLoginSrvr@@AEXAAVCAr@@KPAEK@ZU?$less@K@std@@V?$allocator@U?$pair@$$CBKP8CDPLoginSrvr@@AEXAAVCAr@@KPAEK@Z@std@@@4@$0A@@std@@@std@@IAE?AU?$pair@PAU?$_Tree_node@U?$pair@$$CBKP8CDPLoginSrvr@@AEXAAVCAr@@KPAEK@Z@std@@PAX@std@@_N@1@$$QAU?$pair@$$CBKP8CDPLoginSrvr@@AEXAAVCAr@@KPAEK@Z@1@@Z DD 019930522H
	DD	01H
	DD	FLAT:__unwindtable$??$_Emplace@U?$pair@$$CBKP8CDPLoginSrvr@@AEXAAVCAr@@KPAEK@Z@std@@@?$_Tree@V?$_Tmap_traits@KP8CDPLoginSrvr@@AEXAAVCAr@@KPAEK@ZU?$less@K@std@@V?$allocator@U?$pair@$$CBKP8CDPLoginSrvr@@AEXAAVCAr@@KPAEK@Z@std@@@4@$0A@@std@@@std@@IAE?AU?$pair@PAU?$_Tree_node@U?$pair@$$CBKP8CDPLoginSrvr@@AEXAAVCAr@@KPAEK@Z@std@@PAX@std@@_N@1@$$QAU?$pair@$$CBKP8CDPLoginSrvr@@AEXAAVCAr@@KPAEK@Z@1@@Z
	DD	2 DUP(00H)
	DD	2 DUP(00H)
	DD	00H
	DD	01H
xdata$x	ENDS
;	COMDAT xdata$x
xdata$x	SEGMENT
__unwindtable$??$insert@$0A@$0A@@?$_Tree@V?$_Tmap_traits@KP8CDPLoginSrvr@@AEXAAVCAr@@KPAEK@ZU?$less@K@std@@V?$allocator@U?$pair@$$CBKP8CDPLoginSrvr@@AEXAAVCAr@@KPAEK@Z@std@@@4@$0A@@std@@@std@@QAE?AU?$pair@V?$_Tree_iterator@V?$_Tree_val@U?$_Tree_simple_types@U?$pair@$$CBKP8CDPLoginSrvr@@AEXAAVCAr@@KPAEK@Z@std@@@std@@@std@@@std@@_N@1@$$QAU?$pair@$$CBKP8CDPLoginSrvr@@AEXAAVCAr@@KPAEK@Z@1@@Z DD 0ffffffffH
	DD	FLAT:__unwindfunclet$??$insert@$0A@$0A@@?$_Tree@V?$_Tmap_traits@KP8CDPLoginSrvr@@AEXAAVCAr@@KPAEK@ZU?$less@K@std@@V?$allocator@U?$pair@$$CBKP8CDPLoginSrvr@@AEXAAVCAr@@KPAEK@Z@std@@@4@$0A@@std@@@std@@QAE?AU?$pair@V?$_Tree_iterator@V?$_Tree_val@U?$_Tree_simple_types@U?$pair@$$CBKP8CDPLoginSrvr@@AEXAAVCAr@@KPAEK@Z@std@@@std@@@std@@@std@@_N@1@$$QAU?$pair@$$CBKP8CDPLoginSrvr@@AEXAAVCAr@@KPAEK@Z@1@@Z$2
__ehfuncinfo$??$insert@$0A@$0A@@?$_Tree@V?$_Tmap_traits@KP8CDPLoginSrvr@@AEXAAVCAr@@KPAEK@ZU?$less@K@std@@V?$allocator@U?$pair@$$CBKP8CDPLoginSrvr@@AEXAAVCAr@@KPAEK@Z@std@@@4@$0A@@std@@@std@@QAE?AU?$pair@V?$_Tree_iterator@V?$_Tree_val@U?$_Tree_simple_types@U?$pair@$$CBKP8CDPLoginSrvr@@AEXAAVCAr@@KPAEK@Z@std@@@std@@@std@@@std@@_N@1@$$QAU?$pair@$$CBKP8CDPLoginSrvr@@AEXAAVCAr@@KPAEK@Z@1@@Z DD 019930522H
	DD	01H
	DD	FLAT:__unwindtable$??$insert@$0A@$0A@@?$_Tree@V?$_Tmap_traits@KP8CDPLoginSrvr@@AEXAAVCAr@@KPAEK@ZU?$less@K@std@@V?$allocator@U?$pair@$$CBKP8CDPLoginSrvr@@AEXAAVCAr@@KPAEK@Z@std@@@4@$0A@@std@@@std@@QAE?AU?$pair@V?$_Tree_iterator@V?$_Tree_val@U?$_Tree_simple_types@U?$pair@$$CBKP8CDPLoginSrvr@@AEXAAVCAr@@KPAEK@Z@std@@@std@@@std@@@std@@_N@1@$$QAU?$pair@$$CBKP8CDPLoginSrvr@@AEXAAVCAr@@KPAEK@Z@1@@Z
	DD	2 DUP(00H)
	DD	2 DUP(00H)
	DD	00H
	DD	01H
xdata$x	ENDS
;	COMDAT xdata$x
xdata$x	SEGMENT
__unwindtable$?SendLoginProtect@CDPLoginSrvr@@QAEXPBD0KHK@Z DD 0ffffffffH
	DD	FLAT:__unwindfunclet$?SendLoginProtect@CDPLoginSrvr@@QAEXPBD0KHK@Z$0
__ehfuncinfo$?SendLoginProtect@CDPLoginSrvr@@QAEXPBD0KHK@Z DD 019930522H
	DD	01H
	DD	FLAT:__unwindtable$?SendLoginProtect@CDPLoginSrvr@@QAEXPBD0KHK@Z
	DD	2 DUP(00H)
	DD	2 DUP(00H)
	DD	00H
	DD	01H
xdata$x	ENDS
;	COMDAT xdata$x
xdata$x	SEGMENT
__unwindtable$?OnLeave@CDPLoginSrvr@@QAEXAAVCAr@@KPAEK@Z DD 0ffffffffH
	DD	FLAT:__unwindfunclet$?OnLeave@CDPLoginSrvr@@QAEXAAVCAr@@KPAEK@Z$0
__ehfuncinfo$?OnLeave@CDPLoginSrvr@@QAEXAAVCAr@@KPAEK@Z DD 019930522H
	DD	01H
	DD	FLAT:__unwindtable$?OnLeave@CDPLoginSrvr@@QAEXAAVCAr@@KPAEK@Z
	DD	2 DUP(00H)
	DD	2 DUP(00H)
	DD	00H
	DD	01H
xdata$x	ENDS
;	COMDAT xdata$x
xdata$x	SEGMENT
__unwindtable$?OnRemovePlayer@CDPLoginSrvr@@QAEXAAVCAr@@KPAEK@Z DD 0ffffffffH
	DD	FLAT:__unwindfunclet$?OnRemovePlayer@CDPLoginSrvr@@QAEXAAVCAr@@KPAEK@Z$0
	DD	00H
	DD	FLAT:__unwindfunclet$?OnRemovePlayer@CDPLoginSrvr@@QAEXAAVCAr@@KPAEK@Z$1
__ehfuncinfo$?OnRemovePlayer@CDPLoginSrvr@@QAEXAAVCAr@@KPAEK@Z DD 019930522H
	DD	02H
	DD	FLAT:__unwindtable$?OnRemovePlayer@CDPLoginSrvr@@QAEXAAVCAr@@KPAEK@Z
	DD	2 DUP(00H)
	DD	2 DUP(00H)
	DD	00H
	DD	01H
xdata$x	ENDS
;	COMDAT xdata$x
xdata$x	SEGMENT
__unwindtable$?OnCreatePlayer@CDPLoginSrvr@@QAEXAAVCAr@@KPAEK@Z DD 0ffffffffH
	DD	FLAT:__unwindfunclet$?OnCreatePlayer@CDPLoginSrvr@@QAEXAAVCAr@@KPAEK@Z$0
__ehfuncinfo$?OnCreatePlayer@CDPLoginSrvr@@QAEXAAVCAr@@KPAEK@Z DD 019930522H
	DD	01H
	DD	FLAT:__unwindtable$?OnCreatePlayer@CDPLoginSrvr@@QAEXAAVCAr@@KPAEK@Z
	DD	2 DUP(00H)
	DD	2 DUP(00H)
	DD	00H
	DD	01H
xdata$x	ENDS
;	COMDAT xdata$x
xdata$x	SEGMENT
__unwindtable$?OnGetPlayerList@CDPLoginSrvr@@QAEXAAVCAr@@KPAEK@Z DD 0ffffffffH
	DD	FLAT:__unwindfunclet$?OnGetPlayerList@CDPLoginSrvr@@QAEXAAVCAr@@KPAEK@Z$0
	DD	00H
	DD	FLAT:__unwindfunclet$?OnGetPlayerList@CDPLoginSrvr@@QAEXAAVCAr@@KPAEK@Z$1
__ehfuncinfo$?OnGetPlayerList@CDPLoginSrvr@@QAEXAAVCAr@@KPAEK@Z DD 019930522H
	DD	02H
	DD	FLAT:__unwindtable$?OnGetPlayerList@CDPLoginSrvr@@QAEXAAVCAr@@KPAEK@Z
	DD	2 DUP(00H)
	DD	2 DUP(00H)
	DD	00H
	DD	01H
xdata$x	ENDS
;	COMDAT xdata$x
xdata$x	SEGMENT
__unwindtable$?SendOneHourNotify@CDPLoginSrvr@@QAEXPBD@Z DD 0ffffffffH
	DD	FLAT:__unwindfunclet$?SendOneHourNotify@CDPLoginSrvr@@QAEXPBD@Z$0
__ehfuncinfo$?SendOneHourNotify@CDPLoginSrvr@@QAEXPBD@Z DD 019930522H
	DD	01H
	DD	FLAT:__unwindtable$?SendOneHourNotify@CDPLoginSrvr@@QAEXPBD@Z
	DD	2 DUP(00H)
	DD	2 DUP(00H)
	DD	00H
	DD	01H
xdata$x	ENDS
;	COMDAT xdata$x
xdata$x	SEGMENT
__unwindtable$?SendFail@CDPLoginSrvr@@QAEXJPBD@Z DD 0ffffffffH
	DD	FLAT:__unwindfunclet$?SendFail@CDPLoginSrvr@@QAEXJPBD@Z$0
__ehfuncinfo$?SendFail@CDPLoginSrvr@@QAEXJPBD@Z DD 019930522H
	DD	01H
	DD	FLAT:__unwindtable$?SendFail@CDPLoginSrvr@@QAEXJPBD@Z
	DD	2 DUP(00H)
	DD	2 DUP(00H)
	DD	00H
	DD	01H
xdata$x	ENDS
;	COMDAT xdata$x
xdata$x	SEGMENT
__unwindtable$?SendCloseExistingConnection@CDPLoginSrvr@@QAEXPBDJ@Z DD 0ffffffffH
	DD	FLAT:__unwindfunclet$?SendCloseExistingConnection@CDPLoginSrvr@@QAEXPBDJ@Z$0
__ehfuncinfo$?SendCloseExistingConnection@CDPLoginSrvr@@QAEXPBDJ@Z DD 019930522H
	DD	01H
	DD	FLAT:__unwindtable$?SendCloseExistingConnection@CDPLoginSrvr@@QAEXPBDJ@Z
	DD	2 DUP(00H)
	DD	2 DUP(00H)
	DD	00H
	DD	01H
xdata$x	ENDS
;	COMDAT xdata$x
xdata$x	SEGMENT
__unwindtable$?SendError@CDPLoginSrvr@@QAEXJK@Z DD 0ffffffffH
	DD	FLAT:__unwindfunclet$?SendError@CDPLoginSrvr@@QAEXJK@Z$0
__ehfuncinfo$?SendError@CDPLoginSrvr@@QAEXJK@Z DD 019930522H
	DD	01H
	DD	FLAT:__unwindtable$?SendError@CDPLoginSrvr@@QAEXJK@Z
	DD	2 DUP(00H)
	DD	2 DUP(00H)
	DD	00H
	DD	01H
xdata$x	ENDS
;	COMDAT xdata$x
xdata$x	SEGMENT
__unwindtable$?UserMessageHandler@CDPLoginSrvr@@UAEXPAUDPMSG_GENERIC@@KK@Z DD 0ffffffffH
	DD	FLAT:__unwindfunclet$?UserMessageHandler@CDPLoginSrvr@@UAEXPAUDPMSG_GENERIC@@KK@Z$0
__ehfuncinfo$?UserMessageHandler@CDPLoginSrvr@@UAEXPAUDPMSG_GENERIC@@KK@Z DD 019930522H
	DD	01H
	DD	FLAT:__unwindtable$?UserMessageHandler@CDPLoginSrvr@@UAEXPAUDPMSG_GENERIC@@KK@Z
	DD	2 DUP(00H)
	DD	2 DUP(00H)
	DD	00H
	DD	01H
xdata$x	ENDS
;	COMDAT xdata$x
xdata$x	SEGMENT
__ehfuncinfo$??0CDPLoginSrvr@@QAE@XZ DD 019930522H
	DD	08H
	DD	FLAT:__unwindtable$??0CDPLoginSrvr@@QAE@XZ
	DD	2 DUP(00H)
	DD	2 DUP(00H)
	DD	00H
	DD	01H
__unwindtable$??0CDPLoginSrvr@@QAE@XZ DD 0ffffffffH
	DD	FLAT:__unwindfunclet$??0CDPLoginSrvr@@QAE@XZ$0
	DD	00H
	DD	FLAT:__unwindfunclet$??0CDPLoginSrvr@@QAE@XZ$1
	DD	01H
	DD	FLAT:__unwindfunclet$??0CDPLoginSrvr@@QAE@XZ$5
	DD	01H
	DD	FLAT:__unwindfunclet$??0CDPLoginSrvr@@QAE@XZ$10
	DD	01H
	DD	FLAT:__unwindfunclet$??0CDPLoginSrvr@@QAE@XZ$15
	DD	01H
	DD	FLAT:__unwindfunclet$??0CDPLoginSrvr@@QAE@XZ$20
	DD	01H
	DD	FLAT:__unwindfunclet$??0CDPLoginSrvr@@QAE@XZ$25
	DD	01H
	DD	FLAT:__unwindfunclet$??0CDPLoginSrvr@@QAE@XZ$30
xdata$x	ENDS
; Function compile flags: /Ogtp
; File C:\Program Files\Microsoft Visual Studio\2022\Professional\VC\Tools\MSVC\14.44.35207\include\xtree
; File C:\Program Files\Microsoft Visual Studio\2022\Professional\VC\Tools\MSVC\14.44.35207\include\utility
; File C:\Program Files\Microsoft Visual Studio\2022\Professional\VC\Tools\MSVC\14.44.35207\include\xmemory
; File C:\Program Files\Microsoft Visual Studio\2022\Professional\VC\Tools\MSVC\14.44.35207\include\xtree
;	COMDAT ??$_Erase_tree@V?$allocator@U?$_Tree_node@U?$pair@$$CBKP8CDPLoginSrvr@@AEXAAVCAr@@KPAEK@Z@std@@PAX@std@@@std@@@?$_Tree_val@U?$_Tree_simple_types@U?$pair@$$CBKP8CDPLoginSrvr@@AEXAAVCAr@@KPAEK@Z@std@@@std@@@std@@QAEXAAV?$allocator@U?$_Tree_node@U?$pair@$$CBKP8CDPLoginSrvr@@AEXAAVCAr@@KPAEK@Z@std@@PAX@std@@@1@PAU?$_Tree_node@U?$pair@$$CBKP8CDPLoginSrvr@@AEXAAVCAr@@KPAEK@Z@std@@PAX@1@@Z
_TEXT	SEGMENT
__Al$ = 8						; size = 4
__Rootnode$ = 12					; size = 4
??$_Erase_tree@V?$allocator@U?$_Tree_node@U?$pair@$$CBKP8CDPLoginSrvr@@AEXAAVCAr@@KPAEK@Z@std@@PAX@std@@@std@@@?$_Tree_val@U?$_Tree_simple_types@U?$pair@$$CBKP8CDPLoginSrvr@@AEXAAVCAr@@KPAEK@Z@std@@@std@@@std@@QAEXAAV?$allocator@U?$_Tree_node@U?$pair@$$CBKP8CDPLoginSrvr@@AEXAAVCAr@@KPAEK@Z@std@@PAX@std@@@1@PAU?$_Tree_node@U?$pair@$$CBKP8CDPLoginSrvr@@AEXAAVCAr@@KPAEK@Z@std@@PAX@1@@Z PROC ; std::_Tree_val<std::_Tree_simple_types<std::pair<unsigned long const ,void (__thiscall CDPLoginSrvr::*)(CAr &,unsigned long,unsigned char *,unsigned long)> > >::_Erase_tree<std::allocator<std::_Tree_node<std::pair<unsigned long const ,void (__thiscall CDPLoginSrvr::*)(CAr &,unsigned long,unsigned char *,unsigned long)>,void *> > >, COMDAT
; _this$ = ecx

; 767  :     void _Erase_tree(_Alnode& _Al, _Nodeptr _Rootnode) noexcept {

  00000	55		 push	 ebp
  00001	8b ec		 mov	 ebp, esp
  00003	53		 push	 ebx
  00004	56		 push	 esi

; 768  :         while (!_Rootnode->_Isnil) { // free subtrees, then node

  00005	8b 75 0c	 mov	 esi, DWORD PTR __Rootnode$[ebp]
  00008	8b d9		 mov	 ebx, ecx
  0000a	80 7e 0d 00	 cmp	 BYTE PTR [esi+13], 0
  0000e	75 25		 jne	 SHORT $LN34@Erase_tree
  00010	57		 push	 edi
  00011	8b 7d 08	 mov	 edi, DWORD PTR __Al$[ebp]
$LL2@Erase_tree:

; 769  :             _Erase_tree(_Al, _Rootnode->_Right);

  00014	ff 76 08	 push	 DWORD PTR [esi+8]
  00017	8b cb		 mov	 ecx, ebx
  00019	57		 push	 edi
  0001a	e8 00 00 00 00	 call	 ??$_Erase_tree@V?$allocator@U?$_Tree_node@U?$pair@$$CBKP8CDPLoginSrvr@@AEXAAVCAr@@KPAEK@Z@std@@PAX@std@@@std@@@?$_Tree_val@U?$_Tree_simple_types@U?$pair@$$CBKP8CDPLoginSrvr@@AEXAAVCAr@@KPAEK@Z@std@@@std@@@std@@QAEXAAV?$allocator@U?$_Tree_node@U?$pair@$$CBKP8CDPLoginSrvr@@AEXAAVCAr@@KPAEK@Z@std@@PAX@std@@@1@PAU?$_Tree_node@U?$pair@$$CBKP8CDPLoginSrvr@@AEXAAVCAr@@KPAEK@Z@std@@PAX@1@@Z ; std::_Tree_val<std::_Tree_simple_types<std::pair<unsigned long const ,void (__thiscall CDPLoginSrvr::*)(CAr &,unsigned long,unsigned char *,unsigned long)> > >::_Erase_tree<std::allocator<std::_Tree_node<std::pair<unsigned long const ,void (__thiscall CDPLoginSrvr::*)(CAr &,unsigned long,unsigned char *,unsigned long)>,void *> > >
; File C:\Program Files\Microsoft Visual Studio\2022\Professional\VC\Tools\MSVC\14.44.35207\include\utility

; 773  :     _Ty _Old_val = static_cast<_Ty&&>(_Val);

  0001f	8b c6		 mov	 eax, esi

; 774  :     _Val         = static_cast<_Other&&>(_New_val);

  00021	8b 36		 mov	 esi, DWORD PTR [esi]
; File C:\Program Files\Microsoft Visual Studio\2022\Professional\VC\Tools\MSVC\14.44.35207\include\xmemory

; 289  :         ::operator delete(_Ptr, _Bytes);

  00023	6a 18		 push	 24			; 00000018H
  00025	50		 push	 eax
  00026	e8 00 00 00 00	 call	 ??3@YAXPAXI@Z		; operator delete
  0002b	83 c4 08	 add	 esp, 8
; File C:\Program Files\Microsoft Visual Studio\2022\Professional\VC\Tools\MSVC\14.44.35207\include\xtree

; 768  :         while (!_Rootnode->_Isnil) { // free subtrees, then node

  0002e	80 7e 0d 00	 cmp	 BYTE PTR [esi+13], 0
  00032	74 e0		 je	 SHORT $LL2@Erase_tree
  00034	5f		 pop	 edi
$LN34@Erase_tree:
  00035	5e		 pop	 esi

; 770  :             _Alnode::value_type::_Freenode(_Al, _STD exchange(_Rootnode, _Rootnode->_Left));
; 771  :         }
; 772  :     }

  00036	5b		 pop	 ebx
  00037	5d		 pop	 ebp
  00038	c2 08 00	 ret	 8
??$_Erase_tree@V?$allocator@U?$_Tree_node@U?$pair@$$CBKP8CDPLoginSrvr@@AEXAAVCAr@@KPAEK@Z@std@@PAX@std@@@std@@@?$_Tree_val@U?$_Tree_simple_types@U?$pair@$$CBKP8CDPLoginSrvr@@AEXAAVCAr@@KPAEK@Z@std@@@std@@@std@@QAEXAAV?$allocator@U?$_Tree_node@U?$pair@$$CBKP8CDPLoginSrvr@@AEXAAVCAr@@KPAEK@Z@std@@PAX@std@@@1@PAU?$_Tree_node@U?$pair@$$CBKP8CDPLoginSrvr@@AEXAAVCAr@@KPAEK@Z@std@@PAX@1@@Z ENDP ; std::_Tree_val<std::_Tree_simple_types<std::pair<unsigned long const ,void (__thiscall CDPLoginSrvr::*)(CAr &,unsigned long,unsigned char *,unsigned long)> > >::_Erase_tree<std::allocator<std::_Tree_node<std::pair<unsigned long const ,void (__thiscall CDPLoginSrvr::*)(CAr &,unsigned long,unsigned char *,unsigned long)>,void *> > >
_TEXT	ENDS
; Function compile flags: /Ogtp
; File C:\Program Files\Microsoft Visual Studio\2022\Professional\VC\Tools\MSVC\14.44.35207\include\xmemory
;	COMDAT ??1?$_Alloc_construct_ptr@V?$allocator@U?$_Tree_node@U?$pair@$$CBKP8CDPLoginSrvr@@AEXAAVCAr@@KPAEK@Z@std@@PAX@std@@@std@@@std@@QAE@XZ
_TEXT	SEGMENT
??1?$_Alloc_construct_ptr@V?$allocator@U?$_Tree_node@U?$pair@$$CBKP8CDPLoginSrvr@@AEXAAVCAr@@KPAEK@Z@std@@PAX@std@@@std@@@std@@QAE@XZ PROC ; std::_Alloc_construct_ptr<std::allocator<std::_Tree_node<std::pair<unsigned long const ,void (__thiscall CDPLoginSrvr::*)(CAr &,unsigned long,unsigned char *,unsigned long)>,void *> > >::~_Alloc_construct_ptr<std::allocator<std::_Tree_node<std::pair<unsigned long const ,void (__thiscall CDPLoginSrvr::*)(CAr &,unsigned long,unsigned char *,unsigned long)>,void *> > >, COMDAT
; _this$ = ecx

; 1172 :         if (_Ptr) {

  00000	8b 41 04	 mov	 eax, DWORD PTR [ecx+4]
  00003	85 c0		 test	 eax, eax
  00005	74 0b		 je	 SHORT $LN10@Alloc_cons

; 289  :         ::operator delete(_Ptr, _Bytes);

  00007	6a 18		 push	 24			; 00000018H
  00009	50		 push	 eax
  0000a	e8 00 00 00 00	 call	 ??3@YAXPAXI@Z		; operator delete
  0000f	83 c4 08	 add	 esp, 8
$LN10@Alloc_cons:

; 1173 :             _Al.deallocate(_Ptr, 1);
; 1174 :         }
; 1175 :     }

  00012	c3		 ret	 0
??1?$_Alloc_construct_ptr@V?$allocator@U?$_Tree_node@U?$pair@$$CBKP8CDPLoginSrvr@@AEXAAVCAr@@KPAEK@Z@std@@PAX@std@@@std@@@std@@QAE@XZ ENDP ; std::_Alloc_construct_ptr<std::allocator<std::_Tree_node<std::pair<unsigned long const ,void (__thiscall CDPLoginSrvr::*)(CAr &,unsigned long,unsigned char *,unsigned long)>,void *> > >::~_Alloc_construct_ptr<std::allocator<std::_Tree_node<std::pair<unsigned long const ,void (__thiscall CDPLoginSrvr::*)(CAr &,unsigned long,unsigned char *,unsigned long)>,void *> > >
_TEXT	ENDS
; Function compile flags: /Ogtp
; File C:\Program Files\Microsoft Visual Studio\2022\Professional\VC\Tools\MSVC\14.44.35207\include\xtree
; File C:\Program Files\Microsoft Visual Studio\2022\Professional\VC\Tools\MSVC\14.44.35207\include\type_traits
; File C:\Program Files\Microsoft Visual Studio\2022\Professional\VC\Tools\MSVC\14.44.35207\include\xtree
; File C:\Program Files\Microsoft Visual Studio\2022\Professional\VC\Tools\MSVC\14.44.35207\include\type_traits
; File C:\Program Files\Microsoft Visual Studio\2022\Professional\VC\Tools\MSVC\14.44.35207\include\xtree
;	COMDAT ??$_Find_lower_bound@K@?$_Tree@V?$_Tmap_traits@KP8CDPLoginSrvr@@AEXAAVCAr@@KPAEK@ZU?$less@K@std@@V?$allocator@U?$pair@$$CBKP8CDPLoginSrvr@@AEXAAVCAr@@KPAEK@Z@std@@@4@$0A@@std@@@std@@IBE?AU?$_Tree_find_result@PAU?$_Tree_node@U?$pair@$$CBKP8CDPLoginSrvr@@AEXAAVCAr@@KPAEK@Z@std@@PAX@std@@@1@ABK@Z
_TEXT	SEGMENT
___$ReturnUdt$ = 8					; size = 4
__Keyval$ = 12						; size = 4
??$_Find_lower_bound@K@?$_Tree@V?$_Tmap_traits@KP8CDPLoginSrvr@@AEXAAVCAr@@KPAEK@ZU?$less@K@std@@V?$allocator@U?$pair@$$CBKP8CDPLoginSrvr@@AEXAAVCAr@@KPAEK@Z@std@@@4@$0A@@std@@@std@@IBE?AU?$_Tree_find_result@PAU?$_Tree_node@U?$pair@$$CBKP8CDPLoginSrvr@@AEXAAVCAr@@KPAEK@Z@std@@PAX@std@@@1@ABK@Z PROC ; std::_Tree<std::_Tmap_traits<unsigned long,void (__thiscall CDPLoginSrvr::*)(CAr &,unsigned long,unsigned char *,unsigned long),std::less<unsigned long>,std::allocator<std::pair<unsigned long const ,void (__thiscall CDPLoginSrvr::*)(CAr &,unsigned long,unsigned char *,unsigned long)> >,0> >::_Find_lower_bound<unsigned long>, COMDAT
; _this$ = ecx

; 1628 :     _Tree_find_result<_Nodeptr> _Find_lower_bound(const _Keyty& _Keyval) const {

  00000	55		 push	 ebp
  00001	8b ec		 mov	 ebp, esp

; 1629 :         const auto _Scary = _Get_scary();
; 1630 :         _Tree_find_result<_Nodeptr> _Result{{_Scary->_Myhead->_Parent, _Tree_child::_Right}, _Scary->_Myhead};

  00003	8b 09		 mov	 ecx, DWORD PTR [ecx]
  00005	8b 55 08	 mov	 edx, DWORD PTR ___$ReturnUdt$[ebp]
  00008	8b 41 04	 mov	 eax, DWORD PTR [ecx+4]
  0000b	89 02		 mov	 DWORD PTR [edx], eax
  0000d	c7 42 04 00 00
	00 00		 mov	 DWORD PTR [edx+4], 0
  00014	89 4a 08	 mov	 DWORD PTR [edx+8], ecx

; 1631 :         _Nodeptr _Trynode = _Result._Location._Parent;
; 1632 :         while (!_Trynode->_Isnil) {

  00017	80 78 0d 00	 cmp	 BYTE PTR [eax+13], 0
  0001b	75 28		 jne	 SHORT $LN13@Find_lower
; File C:\Program Files\Microsoft Visual Studio\2022\Professional\VC\Tools\MSVC\14.44.35207\include\type_traits

; 2380 :         return _Left < _Right;

  0001d	8b 4d 0c	 mov	 ecx, DWORD PTR __Keyval$[ebp]
  00020	56		 push	 esi
  00021	8b 31		 mov	 esi, DWORD PTR [ecx]
$LL2@Find_lower:
; File C:\Program Files\Microsoft Visual Studio\2022\Professional\VC\Tools\MSVC\14.44.35207\include\xtree

; 1633 :             _Result._Location._Parent = _Trynode;

  00023	89 02		 mov	 DWORD PTR [edx], eax
; File C:\Program Files\Microsoft Visual Studio\2022\Professional\VC\Tools\MSVC\14.44.35207\include\type_traits

; 2380 :         return _Left < _Right;

  00025	39 70 10	 cmp	 DWORD PTR [eax+16], esi
; File C:\Program Files\Microsoft Visual Studio\2022\Professional\VC\Tools\MSVC\14.44.35207\include\xtree

; 1634 :             if (_DEBUG_LT_PRED(_Getcomp(), _Traits::_Kfn(_Trynode->_Myval), _Keyval)) {

  00028	73 07		 jae	 SHORT $LN4@Find_lower

; 1635 :                 _Result._Location._Child = _Tree_child::_Right;
; 1636 :                 _Trynode                 = _Trynode->_Right;

  0002a	8b 40 08	 mov	 eax, DWORD PTR [eax+8]
  0002d	33 c9		 xor	 ecx, ecx

; 1637 :             } else {

  0002f	eb 0a		 jmp	 SHORT $LN5@Find_lower
$LN4@Find_lower:

; 1638 :                 _Result._Location._Child = _Tree_child::_Left;
; 1639 :                 _Result._Bound           = _Trynode;

  00031	89 42 08	 mov	 DWORD PTR [edx+8], eax

; 1640 :                 _Trynode                 = _Trynode->_Left;

  00034	b9 01 00 00 00	 mov	 ecx, 1
  00039	8b 00		 mov	 eax, DWORD PTR [eax]
$LN5@Find_lower:

; 1631 :         _Nodeptr _Trynode = _Result._Location._Parent;
; 1632 :         while (!_Trynode->_Isnil) {

  0003b	89 4a 04	 mov	 DWORD PTR [edx+4], ecx
  0003e	80 78 0d 00	 cmp	 BYTE PTR [eax+13], 0
  00042	74 df		 je	 SHORT $LL2@Find_lower
  00044	5e		 pop	 esi
$LN13@Find_lower:

; 1641 :             }
; 1642 :         }
; 1643 : 
; 1644 :         return _Result;
; 1645 :     }

  00045	8b c2		 mov	 eax, edx
  00047	5d		 pop	 ebp
  00048	c2 08 00	 ret	 8
??$_Find_lower_bound@K@?$_Tree@V?$_Tmap_traits@KP8CDPLoginSrvr@@AEXAAVCAr@@KPAEK@ZU?$less@K@std@@V?$allocator@U?$pair@$$CBKP8CDPLoginSrvr@@AEXAAVCAr@@KPAEK@Z@std@@@4@$0A@@std@@@std@@IBE?AU?$_Tree_find_result@PAU?$_Tree_node@U?$pair@$$CBKP8CDPLoginSrvr@@AEXAAVCAr@@KPAEK@Z@std@@PAX@std@@@1@ABK@Z ENDP ; std::_Tree<std::_Tmap_traits<unsigned long,void (__thiscall CDPLoginSrvr::*)(CAr &,unsigned long,unsigned char *,unsigned long),std::less<unsigned long>,std::allocator<std::pair<unsigned long const ,void (__thiscall CDPLoginSrvr::*)(CAr &,unsigned long,unsigned char *,unsigned long)> >,0> >::_Find_lower_bound<unsigned long>
_TEXT	ENDS
; Function compile flags: /Ogtp
;	COMDAT ??__Fg_dpLoginSrvr@@YAXXZ
text$yd	SEGMENT
??__Fg_dpLoginSrvr@@YAXXZ PROC				; `dynamic atexit destructor for 'g_dpLoginSrvr'', COMDAT
  00000	b9 00 00 00 00	 mov	 ecx, OFFSET ?g_dpLoginSrvr@@3VCDPLoginSrvr@@A ; g_dpLoginSrvr
  00005	e9 00 00 00 00	 jmp	 ??1CDPLoginSrvr@@UAE@XZ	; CDPLoginSrvr::~CDPLoginSrvr
??__Fg_dpLoginSrvr@@YAXXZ ENDP				; `dynamic atexit destructor for 'g_dpLoginSrvr''
text$yd	ENDS
; Function compile flags: /Ogtp
; File C:\IAGOS\server\v18\Source\Source\DatabaseServer\DPLoginSrvr.cpp
;	COMDAT ??__Eg_dpLoginSrvr@@YAXXZ
text$di	SEGMENT
??__Eg_dpLoginSrvr@@YAXXZ PROC				; `dynamic initializer for 'g_dpLoginSrvr'', COMDAT

; 292  : CDPLoginSrvr	g_dpLoginSrvr;

  00000	b9 00 00 00 00	 mov	 ecx, OFFSET ?g_dpLoginSrvr@@3VCDPLoginSrvr@@A ; g_dpLoginSrvr
  00005	e8 00 00 00 00	 call	 ??0CDPLoginSrvr@@QAE@XZ	; CDPLoginSrvr::CDPLoginSrvr
  0000a	68 00 00 00 00	 push	 OFFSET ??__Fg_dpLoginSrvr@@YAXXZ ; `dynamic atexit destructor for 'g_dpLoginSrvr''
  0000f	e8 00 00 00 00	 call	 _atexit
  00014	59		 pop	 ecx
  00015	c3		 ret	 0
??__Eg_dpLoginSrvr@@YAXXZ ENDP				; `dynamic initializer for 'g_dpLoginSrvr''
text$di	ENDS
; Function compile flags: /Ogtp
; File C:\IAGOS\server\v18\Source\Source\_Network\Misc\Include\Ar.h
;	COMDAT ??$?6H@CAr@@QAEAAV0@ABH@Z
_TEXT	SEGMENT
_t$ = 8							; size = 4
??$?6H@CAr@@QAEAAV0@ABH@Z PROC				; CAr::operator<<<int>, COMDAT
; _this$ = ecx

; 255  : {

  00000	55		 push	 ebp
  00001	8b ec		 mov	 ebp, esp
  00003	56		 push	 esi

; 256  : 	CheckBuf(sizeof(T));

  00004	6a 04		 push	 4
  00006	8b f1		 mov	 esi, ecx
  00008	e8 00 00 00 00	 call	 ?CheckBuf@CAr@@QAEXI@Z	; CAr::CheckBuf

; 257  : 	*(UNALIGNED T*)m_lpBufCur = t;

  0000d	8b 56 08	 mov	 edx, DWORD PTR [esi+8]
  00010	8b 45 08	 mov	 eax, DWORD PTR _t$[ebp]
  00013	8b 00		 mov	 eax, DWORD PTR [eax]
  00015	89 02		 mov	 DWORD PTR [edx], eax

; 258  : 	m_lpBufCur += sizeof(T);
; 259  : 	return *this;

  00017	8b c6		 mov	 eax, esi
  00019	83 46 08 04	 add	 DWORD PTR [esi+8], 4
  0001d	5e		 pop	 esi

; 260  : }

  0001e	5d		 pop	 ebp
  0001f	c2 04 00	 ret	 4
??$?6H@CAr@@QAEAAV0@ABH@Z ENDP				; CAr::operator<<<int>
_TEXT	ENDS
; Function compile flags: /Ogtp
; File C:\IAGOS\server\v18\Source\Source\_Network\Misc\Include\Ar.h
;	COMDAT ??$?6I@CAr@@QAEAAV0@ABI@Z
_TEXT	SEGMENT
_t$ = 8							; size = 4
??$?6I@CAr@@QAEAAV0@ABI@Z PROC				; CAr::operator<<<unsigned int>, COMDAT
; _this$ = ecx

; 255  : {

  00000	55		 push	 ebp
  00001	8b ec		 mov	 ebp, esp
  00003	56		 push	 esi

; 256  : 	CheckBuf(sizeof(T));

  00004	6a 04		 push	 4
  00006	8b f1		 mov	 esi, ecx
  00008	e8 00 00 00 00	 call	 ?CheckBuf@CAr@@QAEXI@Z	; CAr::CheckBuf

; 257  : 	*(UNALIGNED T*)m_lpBufCur = t;

  0000d	8b 56 08	 mov	 edx, DWORD PTR [esi+8]
  00010	8b 45 08	 mov	 eax, DWORD PTR _t$[ebp]
  00013	8b 00		 mov	 eax, DWORD PTR [eax]
  00015	89 02		 mov	 DWORD PTR [edx], eax

; 258  : 	m_lpBufCur += sizeof(T);
; 259  : 	return *this;

  00017	8b c6		 mov	 eax, esi
  00019	83 46 08 04	 add	 DWORD PTR [esi+8], 4
  0001d	5e		 pop	 esi

; 260  : }

  0001e	5d		 pop	 ebp
  0001f	c2 04 00	 ret	 4
??$?6I@CAr@@QAEAAV0@ABI@Z ENDP				; CAr::operator<<<unsigned int>
_TEXT	ENDS
; Function compile flags: /Ogtp
; File C:\IAGOS\server\v18\Source\Source\_Network\Misc\Include\Ar.h
;	COMDAT ??$?6J@CAr@@QAEAAV0@ABJ@Z
_TEXT	SEGMENT
_t$ = 8							; size = 4
??$?6J@CAr@@QAEAAV0@ABJ@Z PROC				; CAr::operator<<<long>, COMDAT
; _this$ = ecx

; 255  : {

  00000	55		 push	 ebp
  00001	8b ec		 mov	 ebp, esp
  00003	56		 push	 esi

; 256  : 	CheckBuf(sizeof(T));

  00004	6a 04		 push	 4
  00006	8b f1		 mov	 esi, ecx
  00008	e8 00 00 00 00	 call	 ?CheckBuf@CAr@@QAEXI@Z	; CAr::CheckBuf

; 257  : 	*(UNALIGNED T*)m_lpBufCur = t;

  0000d	8b 56 08	 mov	 edx, DWORD PTR [esi+8]
  00010	8b 45 08	 mov	 eax, DWORD PTR _t$[ebp]
  00013	8b 00		 mov	 eax, DWORD PTR [eax]
  00015	89 02		 mov	 DWORD PTR [edx], eax

; 258  : 	m_lpBufCur += sizeof(T);
; 259  : 	return *this;

  00017	8b c6		 mov	 eax, esi
  00019	83 46 08 04	 add	 DWORD PTR [esi+8], 4
  0001d	5e		 pop	 esi

; 260  : }

  0001e	5d		 pop	 ebp
  0001f	c2 04 00	 ret	 4
??$?6J@CAr@@QAEAAV0@ABJ@Z ENDP				; CAr::operator<<<long>
_TEXT	ENDS
; Function compile flags: /Ogtp
; File C:\IAGOS\server\v18\Source\Source\_Network\Misc\Include\Ar.h
;	COMDAT ??$?6K@CAr@@QAEAAV0@ABK@Z
_TEXT	SEGMENT
_t$ = 8							; size = 4
??$?6K@CAr@@QAEAAV0@ABK@Z PROC				; CAr::operator<<<unsigned long>, COMDAT
; _this$ = ecx

; 255  : {

  00000	55		 push	 ebp
  00001	8b ec		 mov	 ebp, esp
  00003	56		 push	 esi

; 256  : 	CheckBuf(sizeof(T));

  00004	6a 04		 push	 4
  00006	8b f1		 mov	 esi, ecx
  00008	e8 00 00 00 00	 call	 ?CheckBuf@CAr@@QAEXI@Z	; CAr::CheckBuf

; 257  : 	*(UNALIGNED T*)m_lpBufCur = t;

  0000d	8b 56 08	 mov	 edx, DWORD PTR [esi+8]
  00010	8b 45 08	 mov	 eax, DWORD PTR _t$[ebp]
  00013	8b 00		 mov	 eax, DWORD PTR [eax]
  00015	89 02		 mov	 DWORD PTR [edx], eax

; 258  : 	m_lpBufCur += sizeof(T);
; 259  : 	return *this;

  00017	8b c6		 mov	 eax, esi
  00019	83 46 08 04	 add	 DWORD PTR [esi+8], 4
  0001d	5e		 pop	 esi

; 260  : }

  0001e	5d		 pop	 ebp
  0001f	c2 04 00	 ret	 4
??$?6K@CAr@@QAEAAV0@ABK@Z ENDP				; CAr::operator<<<unsigned long>
_TEXT	ENDS
; Function compile flags: /Ogtp
; File C:\IAGOS\server\v18\Source\Source\_Network\Misc\Include\Ar.h
;	COMDAT ??$?5K@CAr@@QAEAAV0@AAK@Z
_TEXT	SEGMENT
_t$ = 8							; size = 4
??$?5K@CAr@@QAEAAV0@AAK@Z PROC				; CAr::operator>><unsigned long>, COMDAT
; _this$ = ecx

; 302  : {

  00000	55		 push	 ebp
  00001	8b ec		 mov	 ebp, esp
  00003	8b d1		 mov	 edx, ecx

; 303  : 	if (m_lpBufCur + sizeof(T) <= m_lpBufMax)

  00005	8b 4a 08	 mov	 ecx, DWORD PTR [edx+8]
  00008	8d 41 04	 lea	 eax, DWORD PTR [ecx+4]
  0000b	3b 42 0c	 cmp	 eax, DWORD PTR [edx+12]
  0000e	8b 45 08	 mov	 eax, DWORD PTR _t$[ebp]
  00011	77 0e		 ja	 SHORT $LN2@operator

; 304  : 	{
; 305  : 		t = *(UNALIGNED T*)m_lpBufCur;

  00013	8b 09		 mov	 ecx, DWORD PTR [ecx]
  00015	89 08		 mov	 DWORD PTR [eax], ecx

; 312  : 	}
; 313  : 	return *this;
; 314  : }

  00017	8b c2		 mov	 eax, edx
  00019	83 42 08 04	 add	 DWORD PTR [edx+8], 4
  0001d	5d		 pop	 ebp
  0001e	c2 04 00	 ret	 4
$LN2@operator:

; 306  : 		m_lpBufCur += sizeof(T);
; 307  : 	}
; 308  : 	else
; 309  : 	{
; 310  : 		t = T();

  00021	c7 00 00 00 00
	00		 mov	 DWORD PTR [eax], 0

; 311  : 		m_lpBufCur = m_lpBufMax;

  00027	8b 42 0c	 mov	 eax, DWORD PTR [edx+12]
  0002a	89 42 08	 mov	 DWORD PTR [edx+8], eax

; 312  : 	}
; 313  : 	return *this;
; 314  : }

  0002d	8b c2		 mov	 eax, edx
  0002f	5d		 pop	 ebp
  00030	c2 04 00	 ret	 4
??$?5K@CAr@@QAEAAV0@AAK@Z ENDP				; CAr::operator>><unsigned long>
_TEXT	ENDS
; Function compile flags: /Ogtp
;	COMDAT ??_GCDPLoginSrvr@@UAEPAXI@Z
_TEXT	SEGMENT
___flags$ = 8						; size = 4
??_GCDPLoginSrvr@@UAEPAXI@Z PROC			; CDPLoginSrvr::`scalar deleting destructor', COMDAT
; _this$ = ecx
  00000	55		 push	 ebp
  00001	8b ec		 mov	 ebp, esp
  00003	56		 push	 esi
  00004	8b f1		 mov	 esi, ecx
  00006	e8 00 00 00 00	 call	 ??1CDPLoginSrvr@@UAE@XZ	; CDPLoginSrvr::~CDPLoginSrvr
  0000b	f6 45 08 01	 test	 BYTE PTR ___flags$[ebp], 1
  0000f	74 0b		 je	 SHORT $LN5@scalar
  00011	6a 18		 push	 24			; 00000018H
  00013	56		 push	 esi
  00014	e8 00 00 00 00	 call	 ??3@YAXPAXI@Z		; operator delete
  00019	83 c4 08	 add	 esp, 8
$LN5@scalar:
  0001c	8b c6		 mov	 eax, esi
  0001e	5e		 pop	 esi
  0001f	5d		 pop	 ebp
  00020	c2 04 00	 ret	 4
??_GCDPLoginSrvr@@UAEPAXI@Z ENDP			; CDPLoginSrvr::`scalar deleting destructor'
_TEXT	ENDS
; Function compile flags: /Ogtp
; File C:\IAGOS\server\v18\Source\Source\DatabaseServer\DPLoginSrvr.cpp
; File C:\IAGOS\server\v18\Source\Source\_Network\Net\Include\DPMng.h
; File C:\IAGOS\server\v18\Source\Source\DatabaseServer\DPLoginSrvr.cpp
;	COMDAT ?SendLoginProtect@CDPLoginSrvr@@QAEXPBD0KHK@Z
_TEXT	SEGMENT
_nBufSize$ = -16428					; size = 4
$T2 = -16424						; size = 4
_ar$ = -16420						; size = 16404
__$ArrayPad$ = -16					; size = 4
__$EHRec$ = -12						; size = 12
_lpszAccount$ = 8					; size = 4
_lpszPlayer$ = 12					; size = 4
_idPlayer$ = 16						; size = 4
_bLogin$ = 20						; size = 4
_dpId$ = 24						; size = 4
?SendLoginProtect@CDPLoginSrvr@@QAEXPBD0KHK@Z PROC	; CDPLoginSrvr::SendLoginProtect, COMDAT
; _this$ = ecx

; 283  : {

  00000	55		 push	 ebp
  00001	8b ec		 mov	 ebp, esp
  00003	6a ff		 push	 -1
  00005	68 00 00 00 00	 push	 __ehhandler$?SendLoginProtect@CDPLoginSrvr@@QAEXPBD0KHK@Z
  0000a	64 a1 00 00 00
	00		 mov	 eax, DWORD PTR fs:0
  00010	50		 push	 eax
  00011	b8 20 40 00 00	 mov	 eax, 16416		; 00004020H
  00016	e8 00 00 00 00	 call	 __chkstk
  0001b	a1 00 00 00 00	 mov	 eax, DWORD PTR ___security_cookie
  00020	33 c5		 xor	 eax, ebp
  00022	89 45 f0	 mov	 DWORD PTR __$ArrayPad$[ebp], eax
  00025	53		 push	 ebx
  00026	56		 push	 esi
  00027	57		 push	 edi
  00028	50		 push	 eax
  00029	8d 45 f4	 lea	 eax, DWORD PTR __$EHRec$[ebp]
  0002c	64 a3 00 00 00
	00		 mov	 DWORD PTR fs:0, eax
  00032	8b d9		 mov	 ebx, ecx
  00034	8b 75 08	 mov	 esi, DWORD PTR _lpszAccount$[ebp]

; 284  : 	BEFORESENDSOLE( ar, PACKETTYPE_LOGIN_PROTECT_CERT, dpId );

  00037	8d 8d dc bf ff
	ff		 lea	 ecx, DWORD PTR _ar$[ebp]
  0003d	8b 7d 0c	 mov	 edi, DWORD PTR _lpszPlayer$[ebp]
  00040	6a 00		 push	 0
  00042	6a 00		 push	 0
  00044	e8 00 00 00 00	 call	 ??0CAr@@QAE@PAXI@Z	; CAr::CAr
  00049	8d 85 d8 bf ff
	ff		 lea	 eax, DWORD PTR $T2[ebp]
  0004f	c7 45 fc 00 00
	00 00		 mov	 DWORD PTR __$EHRec$[ebp+8], 0
  00056	50		 push	 eax
  00057	8d 45 18	 lea	 eax, DWORD PTR _dpId$[ebp]
  0005a	c7 85 d8 bf ff
	ff 01 02 10 88	 mov	 DWORD PTR $T2[ebp], -2012216831 ; 88100201H
  00064	50		 push	 eax
  00065	8d 8d dc bf ff
	ff		 lea	 ecx, DWORD PTR _ar$[ebp]
  0006b	e8 00 00 00 00	 call	 ??$?6K@CAr@@QAEAAV0@ABK@Z ; CAr::operator<<<unsigned long>
  00070	8b c8		 mov	 ecx, eax
  00072	e8 00 00 00 00	 call	 ??$?6K@CAr@@QAEAAV0@ABK@Z ; CAr::operator<<<unsigned long>

; 285  : 	ar.WriteString( lpszAccount );

  00077	56		 push	 esi
  00078	8d 8d dc bf ff
	ff		 lea	 ecx, DWORD PTR _ar$[ebp]
  0007e	e8 00 00 00 00	 call	 ?WriteString@CAr@@QAEXPBD@Z ; CAr::WriteString

; 286  : 	ar.WriteString( lpszPlayer );

  00083	57		 push	 edi
  00084	8d 8d dc bf ff
	ff		 lea	 ecx, DWORD PTR _ar$[ebp]
  0008a	e8 00 00 00 00	 call	 ?WriteString@CAr@@QAEXPBD@Z ; CAr::WriteString

; 287  : 	ar << idPlayer << bLogin;

  0008f	8d 45 14	 lea	 eax, DWORD PTR _bLogin$[ebp]
  00092	50		 push	 eax
  00093	8d 45 10	 lea	 eax, DWORD PTR _idPlayer$[ebp]
  00096	50		 push	 eax
  00097	8d 8d dc bf ff
	ff		 lea	 ecx, DWORD PTR _ar$[ebp]
  0009d	e8 00 00 00 00	 call	 ??$?6K@CAr@@QAEAAV0@ABK@Z ; CAr::operator<<<unsigned long>
  000a2	8b c8		 mov	 ecx, eax
  000a4	e8 00 00 00 00	 call	 ??$?6H@CAr@@QAEAAV0@ABH@Z ; CAr::operator<<<int>

; 288  : 	SEND( ar, this, DPID_ALLPLAYERS );

  000a9	8d 85 d4 bf ff
	ff		 lea	 eax, DWORD PTR _nBufSize$[ebp]
  000af	50		 push	 eax
  000b0	8d 8d dc bf ff
	ff		 lea	 ecx, DWORD PTR _ar$[ebp]
  000b6	e8 00 00 00 00	 call	 ?GetBuffer@CAr@@QAEPAEPAH@Z ; CAr::GetBuffer
; File C:\IAGOS\server\v18\Source\Source\_Network\Net\Include\DPMng.h

; 171  : 	if( !m_pDPSock )

  000bb	8b 4b 04	 mov	 ecx, DWORD PTR [ebx+4]
  000be	85 c9		 test	 ecx, ecx
  000c0	74 0e		 je	 SHORT $LN4@SendLoginP

; 172  : 		return FALSE;
; 173  : 	return m_pDPSock->Send( (char*)lpData, dwDataSize, dpidTo );

  000c2	6a 00		 push	 0
  000c4	ff b5 d4 bf ff
	ff		 push	 DWORD PTR _nBufSize$[ebp]
  000ca	50		 push	 eax
  000cb	e8 00 00 00 00	 call	 ?Send@CDPSock@@QAEHPADKK@Z ; CDPSock::Send
$LN4@SendLoginP:
; File C:\IAGOS\server\v18\Source\Source\DatabaseServer\DPLoginSrvr.cpp

; 289  : }

  000d0	8d 8d dc bf ff
	ff		 lea	 ecx, DWORD PTR _ar$[ebp]
  000d6	e8 00 00 00 00	 call	 ??1CAr@@QAE@XZ		; CAr::~CAr
  000db	8b 4d f4	 mov	 ecx, DWORD PTR __$EHRec$[ebp]
  000de	64 89 0d 00 00
	00 00		 mov	 DWORD PTR fs:0, ecx
  000e5	59		 pop	 ecx
  000e6	5f		 pop	 edi
  000e7	5e		 pop	 esi
  000e8	5b		 pop	 ebx
  000e9	8b 4d f0	 mov	 ecx, DWORD PTR __$ArrayPad$[ebp]
  000ec	33 cd		 xor	 ecx, ebp
  000ee	e8 00 00 00 00	 call	 @__security_check_cookie@4
  000f3	8b e5		 mov	 esp, ebp
  000f5	5d		 pop	 ebp
  000f6	c2 14 00	 ret	 20			; 00000014H
_TEXT	ENDS
;	COMDAT text$x
text$x	SEGMENT
__unwindfunclet$?SendLoginProtect@CDPLoginSrvr@@QAEXPBD0KHK@Z$0:
  00000	8d 8d dc bf ff
	ff		 lea	 ecx, DWORD PTR _ar$[ebp]
  00006	e9 00 00 00 00	 jmp	 ??1CAr@@QAE@XZ		; CAr::~CAr
  0000b	cc		 int	 3
  0000c	cc		 int	 3
  0000d	cc		 int	 3
  0000e	cc		 int	 3
  0000f	cc		 int	 3
__ehhandler$?SendLoginProtect@CDPLoginSrvr@@QAEXPBD0KHK@Z:
  00010	90		 npad	 1
  00011	90		 npad	 1
  00012	8b 54 24 08	 mov	 edx, DWORD PTR [esp+8]
  00016	8d 42 0c	 lea	 eax, DWORD PTR [edx+12]
  00019	8b 8a d0 bf ff
	ff		 mov	 ecx, DWORD PTR [edx-16432]
  0001f	33 c8		 xor	 ecx, eax
  00021	e8 00 00 00 00	 call	 @__security_check_cookie@4
  00026	8b 4a fc	 mov	 ecx, DWORD PTR [edx-4]
  00029	33 c8		 xor	 ecx, eax
  0002b	e8 00 00 00 00	 call	 @__security_check_cookie@4
  00030	b8 00 00 00 00	 mov	 eax, OFFSET __ehfuncinfo$?SendLoginProtect@CDPLoginSrvr@@QAEXPBD0KHK@Z
  00035	e9 00 00 00 00	 jmp	 ___CxxFrameHandler3
text$x	ENDS
?SendLoginProtect@CDPLoginSrvr@@QAEXPBD0KHK@Z ENDP	; CDPLoginSrvr::SendLoginProtect
; Function compile flags: /Ogtp
; File C:\IAGOS\server\v18\Source\Source\DatabaseServer\DPLoginSrvr.cpp
;	COMDAT ?OnLoginProtect@CDPLoginSrvr@@QAEXAAVCAr@@KPAEK@Z
_TEXT	SEGMENT
_ar$ = 8						; size = 4
_dpid$ = 12						; size = 4
_lpBuf$ = 16						; size = 4
_uBufSize$ = 20						; size = 4
?OnLoginProtect@CDPLoginSrvr@@QAEXAAVCAr@@KPAEK@Z PROC	; CDPLoginSrvr::OnLoginProtect, COMDAT
; _this$ = ecx

; 274  : {

  00000	55		 push	 ebp
  00001	8b ec		 mov	 ebp, esp

; 275  : 	LPDB_OVERLAPPED_PLUS lpDbOverlappedPlus = g_DbManager.AllocRequest();

  00003	8b 0d 00 00 00
	00		 mov	 ecx, DWORD PTR ?g_DbManager@@3AAVCDbManager@@A ; g_DbManager
  00009	56		 push	 esi
  0000a	e8 00 00 00 00	 call	 ?AllocRequest@CDbManager@@QAEPAUtagDB_OVERLAPPED_PLUS@@XZ ; CDbManager::AllocRequest

; 276  : 	g_DbManager.MakeRequest( lpDbOverlappedPlus, lpBuf, uBufSize );

  0000f	ff 75 14	 push	 DWORD PTR _uBufSize$[ebp]
  00012	8b 0d 00 00 00
	00		 mov	 ecx, DWORD PTR ?g_DbManager@@3AAVCDbManager@@A ; g_DbManager
  00018	8b f0		 mov	 esi, eax
  0001a	ff 75 10	 push	 DWORD PTR _lpBuf$[ebp]
  0001d	56		 push	 esi
  0001e	e8 00 00 00 00	 call	 ?MakeRequest@CDbManager@@QAEXPAUtagDB_OVERLAPPED_PLUS@@PAEK@Z ; CDbManager::MakeRequest

; 277  : 	lpDbOverlappedPlus->dpid = dpid;

  00023	8b 4d 0c	 mov	 ecx, DWORD PTR _dpid$[ebp]

; 278  : 	lpDbOverlappedPlus->nQueryMode = QM_LOGIN_PROTECT;
; 279  : 	PostQueuedCompletionStatus( g_DbManager.m_hIOCPGet, 1, NULL, &lpDbOverlappedPlus->Overlapped );

  00026	56		 push	 esi
  00027	89 8e a8 00 00
	00		 mov	 DWORD PTR [esi+168], ecx
  0002d	c7 46 14 69 00
	00 00		 mov	 DWORD PTR [esi+20], 105	; 00000069H
  00034	a1 00 00 00 00	 mov	 eax, DWORD PTR ?g_DbManager@@3AAVCDbManager@@A ; g_DbManager
  00039	6a 00		 push	 0
  0003b	6a 01		 push	 1
  0003d	ff b0 30 03 00
	00		 push	 DWORD PTR [eax+816]
  00043	ff 15 00 00 00
	00		 call	 DWORD PTR __imp__PostQueuedCompletionStatus@16
  00049	5e		 pop	 esi

; 280  : }

  0004a	5d		 pop	 ebp
  0004b	c2 10 00	 ret	 16			; 00000010H
?OnLoginProtect@CDPLoginSrvr@@QAEXAAVCAr@@KPAEK@Z ENDP	; CDPLoginSrvr::OnLoginProtect
_TEXT	ENDS
; Function compile flags: /Ogtp
; File C:\IAGOS\server\v18\Source\Source\DatabaseServer\DPLoginSrvr.cpp
;	COMDAT ?OnCloseError@CDPLoginSrvr@@QAEXAAVCAr@@KPAEK@Z
_TEXT	SEGMENT
_lpszAccount$ = -48					; size = 42
__$ArrayPad$ = -4					; size = 4
_ar$ = 8						; size = 4
_dpid$ = 12						; size = 4
_lpBuf$ = 16						; size = 4
_uBufSize$ = 20						; size = 4
?OnCloseError@CDPLoginSrvr@@QAEXAAVCAr@@KPAEK@Z PROC	; CDPLoginSrvr::OnCloseError, COMDAT
; _this$ = ecx

; 255  : {

  00000	55		 push	 ebp
  00001	8b ec		 mov	 ebp, esp
  00003	83 ec 30	 sub	 esp, 48			; 00000030H
  00006	a1 00 00 00 00	 mov	 eax, DWORD PTR ___security_cookie
  0000b	33 c5		 xor	 eax, ebp
  0000d	89 45 fc	 mov	 DWORD PTR __$ArrayPad$[ebp], eax
  00010	56		 push	 esi
  00011	8b 75 08	 mov	 esi, DWORD PTR _ar$[ebp]

; 256  : 	char lpszAccount[MAX_ACCOUNT]	= { 0, };

  00014	8d 45 d0	 lea	 eax, DWORD PTR _lpszAccount$[ebp]
  00017	6a 2a		 push	 42			; 0000002aH
  00019	6a 00		 push	 0
  0001b	50		 push	 eax
  0001c	e8 00 00 00 00	 call	 _memset
  00021	83 c4 0c	 add	 esp, 12			; 0000000cH

; 257  : 	ar.ReadString( lpszAccount, MAX_ACCOUNT );

  00024	8d 45 d0	 lea	 eax, DWORD PTR _lpszAccount$[ebp]
  00027	8b ce		 mov	 ecx, esi
  00029	6a 2a		 push	 42			; 0000002aH
  0002b	50		 push	 eax
  0002c	e8 00 00 00 00	 call	 ?ReadString@CAr@@QAEPADPADH@Z ; CAr::ReadString

; 258  : #ifdef __SECURITY_FIXES
; 259  : 	if(!prj.IsAllowedLetter(lpszAccount,FALSE))

  00031	6a 00		 push	 0
  00033	8d 45 d0	 lea	 eax, DWORD PTR _lpszAccount$[ebp]
  00036	b9 00 00 00 00	 mov	 ecx, OFFSET ?prj@@3VCProject@@A ; prj
  0003b	50		 push	 eax
  0003c	e8 00 00 00 00	 call	 ?IsAllowedLetter@CProject@@QAEHPBDH@Z ; CProject::IsAllowedLetter
  00041	5e		 pop	 esi
  00042	85 c0		 test	 eax, eax
  00044	74 0e		 je	 SHORT $LN1@OnCloseErr

; 260  : 	{
; 261  : 		return;
; 262  : 	}
; 263  : #endif // __SECURITY_FIXES
; 264  : 	g_dpAccountClient.SendRemoveAccount( lpszAccount );

  00046	8d 45 d0	 lea	 eax, DWORD PTR _lpszAccount$[ebp]
  00049	b9 00 00 00 00	 mov	 ecx, OFFSET ?g_dpAccountClient@@3VCDPAccountClient@@A ; g_dpAccountClient
  0004e	50		 push	 eax
  0004f	e8 00 00 00 00	 call	 ?SendRemoveAccount@CDPAccountClient@@QAEXPAD@Z ; CDPAccountClient::SendRemoveAccount
$LN1@OnCloseErr:

; 265  : 
; 266  : #ifdef __INTERNALSERVER
; 267  : 	time_t cur = time(NULL);
; 268  : 	WriteLog( "CDPLoginSrvr::OnCloseError(%s) - %s\n", lpszAccount, ctime( &cur ));
; 269  : #endif
; 270  : }

  00054	8b 4d fc	 mov	 ecx, DWORD PTR __$ArrayPad$[ebp]
  00057	33 cd		 xor	 ecx, ebp
  00059	e8 00 00 00 00	 call	 @__security_check_cookie@4
  0005e	8b e5		 mov	 esp, ebp
  00060	5d		 pop	 ebp
  00061	c2 10 00	 ret	 16			; 00000010H
?OnCloseError@CDPLoginSrvr@@QAEXAAVCAr@@KPAEK@Z ENDP	; CDPLoginSrvr::OnCloseError
_TEXT	ENDS
; Function compile flags: /Ogtp
; File C:\IAGOS\server\v18\Source\Source\DatabaseServer\DPLoginSrvr.cpp
;	COMDAT ?OnLeave@CDPLoginSrvr@@QAEXAAVCAr@@KPAEK@Z
_TEXT	SEGMENT
_idPlayer$ = -16512					; size = 4
_arRead$ = -16508					; size = 16404
_szAccount$ = -104					; size = 42
_lpszAccount$ = -60					; size = 42
__$ArrayPad$ = -16					; size = 4
__$EHRec$ = -12						; size = 12
_ar$ = 8						; size = 4
_dpid$ = 12						; size = 4
_lpBuf$ = 16						; size = 4
_uBufSize$ = 20						; size = 4
?OnLeave@CDPLoginSrvr@@QAEXAAVCAr@@KPAEK@Z PROC		; CDPLoginSrvr::OnLeave, COMDAT
; _this$ = ecx

; 217  : {

  00000	55		 push	 ebp
  00001	8b ec		 mov	 ebp, esp
  00003	6a ff		 push	 -1
  00005	68 00 00 00 00	 push	 __ehhandler$?OnLeave@CDPLoginSrvr@@QAEXAAVCAr@@KPAEK@Z
  0000a	64 a1 00 00 00
	00		 mov	 eax, DWORD PTR fs:0
  00010	50		 push	 eax
  00011	b8 74 40 00 00	 mov	 eax, 16500		; 00004074H
  00016	e8 00 00 00 00	 call	 __chkstk
  0001b	a1 00 00 00 00	 mov	 eax, DWORD PTR ___security_cookie
  00020	33 c5		 xor	 eax, ebp
  00022	89 45 f0	 mov	 DWORD PTR __$ArrayPad$[ebp], eax
  00025	53		 push	 ebx
  00026	56		 push	 esi
  00027	57		 push	 edi
  00028	50		 push	 eax
  00029	8d 45 f4	 lea	 eax, DWORD PTR __$EHRec$[ebp]
  0002c	64 a3 00 00 00
	00		 mov	 DWORD PTR fs:0, eax
  00032	8b 5d 14	 mov	 ebx, DWORD PTR _uBufSize$[ebp]

; 218  : #ifdef __SECURITY_FIXES
; 219  : 	CAr arRead(lpBuf,uBufSize);

  00035	8d 8d 84 bf ff
	ff		 lea	 ecx, DWORD PTR _arRead$[ebp]
  0003b	8b 7d 10	 mov	 edi, DWORD PTR _lpBuf$[ebp]
  0003e	8b 75 08	 mov	 esi, DWORD PTR _ar$[ebp]
  00041	53		 push	 ebx
  00042	57		 push	 edi
  00043	e8 00 00 00 00	 call	 ??0CAr@@QAE@PAXI@Z	; CAr::CAr

; 220  : 	char szAccount[MAX_ACCOUNT] = {0,};

  00048	6a 2a		 push	 42			; 0000002aH
  0004a	8d 45 98	 lea	 eax, DWORD PTR _szAccount$[ebp]
  0004d	c7 45 fc 00 00
	00 00		 mov	 DWORD PTR __$EHRec$[ebp+8], 0
  00054	6a 00		 push	 0
  00056	50		 push	 eax
  00057	e8 00 00 00 00	 call	 _memset
  0005c	83 c4 0c	 add	 esp, 12			; 0000000cH

; 221  : 	arRead.ReadString( szAccount, MAX_ACCOUNT );

  0005f	8d 45 98	 lea	 eax, DWORD PTR _szAccount$[ebp]
  00062	8d 8d 84 bf ff
	ff		 lea	 ecx, DWORD PTR _arRead$[ebp]
  00068	6a 2a		 push	 42			; 0000002aH
  0006a	50		 push	 eax
  0006b	e8 00 00 00 00	 call	 ?ReadString@CAr@@QAEPADPADH@Z ; CAr::ReadString

; 222  : 	if(!prj.IsAllowedLetter(szAccount,FALSE))

  00070	6a 00		 push	 0
  00072	8d 45 98	 lea	 eax, DWORD PTR _szAccount$[ebp]
  00075	b9 00 00 00 00	 mov	 ecx, OFFSET ?prj@@3VCProject@@A ; prj
  0007a	50		 push	 eax
  0007b	e8 00 00 00 00	 call	 ?IsAllowedLetter@CProject@@QAEHPBDH@Z ; CProject::IsAllowedLetter
  00080	85 c0		 test	 eax, eax
  00082	0f 84 97 00 00
	00		 je	 $LN9@OnLeave

; 223  : 	{
; 224  : 		return;
; 225  : 	}
; 226  : #endif // __SECURITY_FIXES
; 227  : 	char lpszAccount[MAX_ACCOUNT] = { 0, };

  00088	6a 2a		 push	 42			; 0000002aH
  0008a	8d 45 c4	 lea	 eax, DWORD PTR _lpszAccount$[ebp]
  0008d	6a 00		 push	 0
  0008f	50		 push	 eax
  00090	e8 00 00 00 00	 call	 _memset
  00095	83 c4 0c	 add	 esp, 12			; 0000000cH

; 228  : 	ar.ReadString( lpszAccount, MAX_ACCOUNT );

  00098	8d 45 c4	 lea	 eax, DWORD PTR _lpszAccount$[ebp]
  0009b	8b ce		 mov	 ecx, esi
  0009d	6a 2a		 push	 42			; 0000002aH
  0009f	50		 push	 eax
  000a0	e8 00 00 00 00	 call	 ?ReadString@CAr@@QAEPADPADH@Z ; CAr::ReadString

; 229  : #ifdef __SECURITY_FIXES
; 230  : 	if(!prj.IsAllowedLetter(lpszAccount,FALSE))

  000a5	6a 00		 push	 0
  000a7	8d 45 c4	 lea	 eax, DWORD PTR _lpszAccount$[ebp]
  000aa	b9 00 00 00 00	 mov	 ecx, OFFSET ?prj@@3VCProject@@A ; prj
  000af	50		 push	 eax
  000b0	e8 00 00 00 00	 call	 ?IsAllowedLetter@CProject@@QAEHPBDH@Z ; CProject::IsAllowedLetter
  000b5	85 c0		 test	 eax, eax
  000b7	74 66		 je	 SHORT $LN9@OnLeave

; 231  : 	{
; 232  : 		return;
; 233  : 	}
; 234  : #endif // __SECURITY_FIXES
; 235  : 	g_dpAccountClient.SendRemoveAccount( lpszAccount );

  000b9	8d 45 c4	 lea	 eax, DWORD PTR _lpszAccount$[ebp]
  000bc	b9 00 00 00 00	 mov	 ecx, OFFSET ?g_dpAccountClient@@3VCDPAccountClient@@A ; g_dpAccountClient
  000c1	50		 push	 eax
  000c2	e8 00 00 00 00	 call	 ?SendRemoveAccount@CDPAccountClient@@QAEXPAD@Z ; CDPAccountClient::SendRemoveAccount

; 236  : 
; 237  : 	u_long idPlayer;
; 238  : 	ar >> idPlayer;

  000c7	8d 85 80 bf ff
	ff		 lea	 eax, DWORD PTR _idPlayer$[ebp]
  000cd	8b ce		 mov	 ecx, esi
  000cf	50		 push	 eax
  000d0	e8 00 00 00 00	 call	 ??$?5K@CAr@@QAEAAV0@AAK@Z ; CAr::operator>><unsigned long>

; 239  : 	if( idPlayer == 0 )

  000d5	83 bd 80 bf ff
	ff 00		 cmp	 DWORD PTR _idPlayer$[ebp], 0
  000dc	74 41		 je	 SHORT $LN9@OnLeave

; 240  : 		return;
; 241  : 
; 242  : 	LPDB_OVERLAPPED_PLUS lpDbOverlappedPlus		= g_DbManager.AllocRequest();

  000de	8b 0d 00 00 00
	00		 mov	 ecx, DWORD PTR ?g_DbManager@@3AAVCDbManager@@A ; g_DbManager
  000e4	e8 00 00 00 00	 call	 ?AllocRequest@CDbManager@@QAEPAUtagDB_OVERLAPPED_PLUS@@XZ ; CDbManager::AllocRequest

; 243  : 	g_DbManager.MakeRequest( lpDbOverlappedPlus, lpBuf, uBufSize );

  000e9	8b 0d 00 00 00
	00		 mov	 ecx, DWORD PTR ?g_DbManager@@3AAVCDbManager@@A ; g_DbManager
  000ef	8b f0		 mov	 esi, eax
  000f1	53		 push	 ebx
  000f2	57		 push	 edi
  000f3	56		 push	 esi
  000f4	e8 00 00 00 00	 call	 ?MakeRequest@CDbManager@@QAEXPAUtagDB_OVERLAPPED_PLUS@@PAEK@Z ; CDbManager::MakeRequest

; 244  : 	lpDbOverlappedPlus->dpid	= dpid;

  000f9	8b 4d 0c	 mov	 ecx, DWORD PTR _dpid$[ebp]

; 245  : 	lpDbOverlappedPlus->nQueryMode = SAVE_PLAY_TIME;
; 246  : 	PostQueuedCompletionStatus( g_DbManager.m_hIOCPPut, 1, NULL, &lpDbOverlappedPlus->Overlapped );

  000fc	56		 push	 esi
  000fd	89 8e a8 00 00
	00		 mov	 DWORD PTR [esi+168], ecx
  00103	c7 46 14 0b 00
	00 00		 mov	 DWORD PTR [esi+20], 11	; 0000000bH
  0010a	a1 00 00 00 00	 mov	 eax, DWORD PTR ?g_DbManager@@3AAVCDbManager@@A ; g_DbManager
  0010f	6a 00		 push	 0
  00111	6a 01		 push	 1
  00113	ff b0 34 03 00
	00		 push	 DWORD PTR [eax+820]
  00119	ff 15 00 00 00
	00		 call	 DWORD PTR __imp__PostQueuedCompletionStatus@16
$LN9@OnLeave:

; 247  : 
; 248  : #ifdef __INTERNALSERVER
; 249  : 	time_t cur = time(NULL);
; 250  : 	WriteLog( "CDPLoginSrvr::OnLeave(%s) - %s\n", lpszAccount, ctime( &cur ));
; 251  : #endif
; 252  : }

  0011f	8d 8d 84 bf ff
	ff		 lea	 ecx, DWORD PTR _arRead$[ebp]
  00125	e8 00 00 00 00	 call	 ??1CAr@@QAE@XZ		; CAr::~CAr
  0012a	8b 4d f4	 mov	 ecx, DWORD PTR __$EHRec$[ebp]
  0012d	64 89 0d 00 00
	00 00		 mov	 DWORD PTR fs:0, ecx
  00134	59		 pop	 ecx
  00135	5f		 pop	 edi
  00136	5e		 pop	 esi
  00137	5b		 pop	 ebx
  00138	8b 4d f0	 mov	 ecx, DWORD PTR __$ArrayPad$[ebp]
  0013b	33 cd		 xor	 ecx, ebp
  0013d	e8 00 00 00 00	 call	 @__security_check_cookie@4
  00142	8b e5		 mov	 esp, ebp
  00144	5d		 pop	 ebp
  00145	c2 10 00	 ret	 16			; 00000010H
_TEXT	ENDS
;	COMDAT text$x
text$x	SEGMENT
__unwindfunclet$?OnLeave@CDPLoginSrvr@@QAEXAAVCAr@@KPAEK@Z$0:
  00000	8d 8d 84 bf ff
	ff		 lea	 ecx, DWORD PTR _arRead$[ebp]
  00006	e9 00 00 00 00	 jmp	 ??1CAr@@QAE@XZ		; CAr::~CAr
  0000b	cc		 int	 3
  0000c	cc		 int	 3
  0000d	cc		 int	 3
  0000e	cc		 int	 3
  0000f	cc		 int	 3
__ehhandler$?OnLeave@CDPLoginSrvr@@QAEXAAVCAr@@KPAEK@Z:
  00010	90		 npad	 1
  00011	90		 npad	 1
  00012	8b 54 24 08	 mov	 edx, DWORD PTR [esp+8]
  00016	8d 42 0c	 lea	 eax, DWORD PTR [edx+12]
  00019	8b 8a 7c bf ff
	ff		 mov	 ecx, DWORD PTR [edx-16516]
  0001f	33 c8		 xor	 ecx, eax
  00021	e8 00 00 00 00	 call	 @__security_check_cookie@4
  00026	8b 4a fc	 mov	 ecx, DWORD PTR [edx-4]
  00029	33 c8		 xor	 ecx, eax
  0002b	e8 00 00 00 00	 call	 @__security_check_cookie@4
  00030	b8 00 00 00 00	 mov	 eax, OFFSET __ehfuncinfo$?OnLeave@CDPLoginSrvr@@QAEXAAVCAr@@KPAEK@Z
  00035	e9 00 00 00 00	 jmp	 ___CxxFrameHandler3
text$x	ENDS
?OnLeave@CDPLoginSrvr@@QAEXAAVCAr@@KPAEK@Z ENDP		; CDPLoginSrvr::OnLeave
; Function compile flags: /Ogtp
; File C:\IAGOS\server\v18\Source\Source\DatabaseServer\DPLoginSrvr.cpp
; File C:\IAGOS\server\v18\Source\Source\_Network\Net\Include\DPMng.h
; File C:\IAGOS\server\v18\Source\Source\DatabaseServer\DPLoginSrvr.cpp
;	COMDAT ?OnRemovePlayer@CDPLoginSrvr@@QAEXAAVCAr@@KPAEK@Z
_TEXT	SEGMENT
_nBlockSize$ = -32964					; size = 4
$T2 = -32960						; size = 4
_arRead$ = -32956					; size = 16404
_ar1$ = -16552						; size = 16404
_szNo$ = -148						; size = 42
_szPassword$ = -104					; size = 42
_szAccount$ = -60					; size = 42
__$ArrayPad$ = -16					; size = 4
__$EHRec$ = -12						; size = 12
_ar$ = 8						; size = 4
_dpid$ = 12						; size = 4
_lpBuf$ = 16						; size = 4
_uBufSize$ = 20						; size = 4
?OnRemovePlayer@CDPLoginSrvr@@QAEXAAVCAr@@KPAEK@Z PROC	; CDPLoginSrvr::OnRemovePlayer, COMDAT
; _this$ = ecx

; 155  : {

  00000	55		 push	 ebp
  00001	8b ec		 mov	 ebp, esp
  00003	6a ff		 push	 -1
  00005	68 00 00 00 00	 push	 __ehhandler$?OnRemovePlayer@CDPLoginSrvr@@QAEXAAVCAr@@KPAEK@Z
  0000a	64 a1 00 00 00
	00		 mov	 eax, DWORD PTR fs:0
  00010	50		 push	 eax
  00011	b8 b8 80 00 00	 mov	 eax, 32952		; 000080b8H
  00016	e8 00 00 00 00	 call	 __chkstk
  0001b	a1 00 00 00 00	 mov	 eax, DWORD PTR ___security_cookie
  00020	33 c5		 xor	 eax, ebp
  00022	89 45 f0	 mov	 DWORD PTR __$ArrayPad$[ebp], eax
  00025	56		 push	 esi
  00026	57		 push	 edi
  00027	50		 push	 eax
  00028	8d 45 f4	 lea	 eax, DWORD PTR __$EHRec$[ebp]
  0002b	64 a3 00 00 00
	00		 mov	 DWORD PTR fs:0, eax
  00031	8b 7d 14	 mov	 edi, DWORD PTR _uBufSize$[ebp]

; 156  : #ifdef __REMOVE_PLAYER_0221
; 157  : #ifdef __SECURITY_FIXES
; 158  : 	CAr arRead(lpBuf,uBufSize);

  00034	8d 8d 44 7f ff
	ff		 lea	 ecx, DWORD PTR _arRead$[ebp]
  0003a	8b 75 10	 mov	 esi, DWORD PTR _lpBuf$[ebp]
  0003d	57		 push	 edi
  0003e	56		 push	 esi
  0003f	e8 00 00 00 00	 call	 ??0CAr@@QAE@PAXI@Z	; CAr::CAr

; 159  : 	char szAccount[MAX_ACCOUNT] = {0,};

  00044	6a 2a		 push	 42			; 0000002aH
  00046	8d 45 c4	 lea	 eax, DWORD PTR _szAccount$[ebp]
  00049	c7 45 fc 00 00
	00 00		 mov	 DWORD PTR __$EHRec$[ebp+8], 0
  00050	6a 00		 push	 0
  00052	50		 push	 eax
  00053	e8 00 00 00 00	 call	 _memset

; 160  : 	char szPassword[MAX_PASSWORD] = {0,};

  00058	6a 2a		 push	 42			; 0000002aH
  0005a	8d 45 98	 lea	 eax, DWORD PTR _szPassword$[ebp]
  0005d	6a 00		 push	 0
  0005f	50		 push	 eax
  00060	e8 00 00 00 00	 call	 _memset

; 161  : 	char szNo[MAX_PASSWORD] = {0,};

  00065	6a 2a		 push	 42			; 0000002aH
  00067	8d 85 6c ff ff
	ff		 lea	 eax, DWORD PTR _szNo$[ebp]
  0006d	6a 00		 push	 0
  0006f	50		 push	 eax
  00070	e8 00 00 00 00	 call	 _memset
  00075	83 c4 24	 add	 esp, 36			; 00000024H

; 162  : 
; 163  : 	arRead.ReadString( szAccount,MAX_ACCOUNT );

  00078	8d 45 c4	 lea	 eax, DWORD PTR _szAccount$[ebp]
  0007b	8d 8d 44 7f ff
	ff		 lea	 ecx, DWORD PTR _arRead$[ebp]
  00081	6a 2a		 push	 42			; 0000002aH
  00083	50		 push	 eax
  00084	e8 00 00 00 00	 call	 ?ReadString@CAr@@QAEPADPADH@Z ; CAr::ReadString

; 164  : 	arRead.ReadString( szPassword,MAX_PASSWORD );

  00089	6a 2a		 push	 42			; 0000002aH
  0008b	8d 45 98	 lea	 eax, DWORD PTR _szPassword$[ebp]
  0008e	50		 push	 eax
  0008f	8d 8d 44 7f ff
	ff		 lea	 ecx, DWORD PTR _arRead$[ebp]
  00095	e8 00 00 00 00	 call	 ?ReadString@CAr@@QAEPADPADH@Z ; CAr::ReadString

; 165  : 	arRead.ReadString( szNo, MAX_PASSWORD );

  0009a	6a 2a		 push	 42			; 0000002aH
  0009c	8d 85 6c ff ff
	ff		 lea	 eax, DWORD PTR _szNo$[ebp]
  000a2	50		 push	 eax
  000a3	8d 8d 44 7f ff
	ff		 lea	 ecx, DWORD PTR _arRead$[ebp]
  000a9	e8 00 00 00 00	 call	 ?ReadString@CAr@@QAEPADPADH@Z ; CAr::ReadString

; 166  : 	if(!prj.IsAllowedLetter(szAccount,FALSE) || 
; 167  : 		!prj.IsAllowedLetter(szPassword,FALSE) || 

  000ae	6a 00		 push	 0
  000b0	8d 45 c4	 lea	 eax, DWORD PTR _szAccount$[ebp]
  000b3	b9 00 00 00 00	 mov	 ecx, OFFSET ?prj@@3VCProject@@A ; prj
  000b8	50		 push	 eax
  000b9	e8 00 00 00 00	 call	 ?IsAllowedLetter@CProject@@QAEHPBDH@Z ; CProject::IsAllowedLetter
  000be	85 c0		 test	 eax, eax
  000c0	0f 84 b3 00 00
	00		 je	 $LN3@OnRemovePl
  000c6	6a 00		 push	 0
  000c8	8d 45 98	 lea	 eax, DWORD PTR _szPassword$[ebp]
  000cb	b9 00 00 00 00	 mov	 ecx, OFFSET ?prj@@3VCProject@@A ; prj
  000d0	50		 push	 eax
  000d1	e8 00 00 00 00	 call	 ?IsAllowedLetter@CProject@@QAEHPBDH@Z ; CProject::IsAllowedLetter
  000d6	85 c0		 test	 eax, eax
  000d8	0f 84 9b 00 00
	00		 je	 $LN3@OnRemovePl
  000de	6a 00		 push	 0
  000e0	8d 85 6c ff ff
	ff		 lea	 eax, DWORD PTR _szNo$[ebp]
  000e6	b9 00 00 00 00	 mov	 ecx, OFFSET ?prj@@3VCProject@@A ; prj
  000eb	50		 push	 eax
  000ec	e8 00 00 00 00	 call	 ?IsAllowedLetter@CProject@@QAEHPBDH@Z ; CProject::IsAllowedLetter
  000f1	85 c0		 test	 eax, eax
  000f3	0f 84 80 00 00
	00		 je	 $LN3@OnRemovePl

; 168  : 		!prj.IsAllowedLetter(szNo,FALSE))
; 169  : 	{
; 170  : 		return;
; 171  : 	}
; 172  : #endif // __SECURITY_FIXES
; 173  : 	CAr ar1;

  000f9	6a 00		 push	 0
  000fb	6a 00		 push	 0
  000fd	8d 8d 58 bf ff
	ff		 lea	 ecx, DWORD PTR _ar1$[ebp]
  00103	e8 00 00 00 00	 call	 ??0CAr@@QAE@PAXI@Z	; CAr::CAr

; 174  : 	ar1 << PACKETTYPE_DEL_PLAYER;

  00108	8d 85 40 7f ff
	ff		 lea	 eax, DWORD PTR $T2[ebp]
  0010e	c6 45 fc 01	 mov	 BYTE PTR __$EHRec$[ebp+8], 1
  00112	50		 push	 eax
  00113	8d 8d 58 bf ff
	ff		 lea	 ecx, DWORD PTR _ar1$[ebp]
  00119	c7 85 40 7f ff
	ff f5 00 00 00	 mov	 DWORD PTR $T2[ebp], 245	; 000000f5H
  00123	e8 00 00 00 00	 call	 ??$?6K@CAr@@QAEAAV0@ABK@Z ; CAr::operator<<<unsigned long>

; 175  : 	ar1.Write( lpBuf, uBufSize );

  00128	57		 push	 edi
  00129	56		 push	 esi
  0012a	8d 8d 58 bf ff
	ff		 lea	 ecx, DWORD PTR _ar1$[ebp]
  00130	e8 00 00 00 00	 call	 ?Write@CAr@@QAEXPBXI@Z	; CAr::Write

; 176  : 	ar1 << dpid;

  00135	8d 45 0c	 lea	 eax, DWORD PTR _dpid$[ebp]
  00138	50		 push	 eax
  00139	8d 8d 58 bf ff
	ff		 lea	 ecx, DWORD PTR _ar1$[ebp]
  0013f	e8 00 00 00 00	 call	 ??$?6K@CAr@@QAEAAV0@ABK@Z ; CAr::operator<<<unsigned long>

; 177  : 	int nBlockSize;
; 178  : 	LPBYTE pBlock	= ar1.GetBuffer( &nBlockSize );

  00144	8d 85 3c 7f ff
	ff		 lea	 eax, DWORD PTR _nBlockSize$[ebp]
  0014a	50		 push	 eax
  0014b	8d 8d 58 bf ff
	ff		 lea	 ecx, DWORD PTR _ar1$[ebp]
  00151	e8 00 00 00 00	 call	 ?GetBuffer@CAr@@QAEPAEPAH@Z ; CAr::GetBuffer
; File C:\IAGOS\server\v18\Source\Source\_Network\Net\Include\DPMng.h

; 171  : 	if( !m_pDPSock )

  00156	8b 0d 04 00 00
	00		 mov	 ecx, DWORD PTR ?g_dpAccountClient@@3VCDPAccountClient@@A+4
  0015c	85 c9		 test	 ecx, ecx
  0015e	74 0e		 je	 SHORT $LN8@OnRemovePl

; 172  : 		return FALSE;
; 173  : 	return m_pDPSock->Send( (char*)lpData, dwDataSize, dpidTo );

  00160	6a 01		 push	 1
  00162	ff b5 3c 7f ff
	ff		 push	 DWORD PTR _nBlockSize$[ebp]
  00168	50		 push	 eax
  00169	e8 00 00 00 00	 call	 ?Send@CDPSock@@QAEHPADKK@Z ; CDPSock::Send
$LN8@OnRemovePl:
; File C:\IAGOS\server\v18\Source\Source\DatabaseServer\DPLoginSrvr.cpp

; 187  : }

  0016e	8d 8d 58 bf ff
	ff		 lea	 ecx, DWORD PTR _ar1$[ebp]
  00174	e8 00 00 00 00	 call	 ??1CAr@@QAE@XZ		; CAr::~CAr
$LN3@OnRemovePl:
  00179	8d 8d 44 7f ff
	ff		 lea	 ecx, DWORD PTR _arRead$[ebp]
  0017f	e8 00 00 00 00	 call	 ??1CAr@@QAE@XZ		; CAr::~CAr
  00184	8b 4d f4	 mov	 ecx, DWORD PTR __$EHRec$[ebp]
  00187	64 89 0d 00 00
	00 00		 mov	 DWORD PTR fs:0, ecx
  0018e	59		 pop	 ecx
  0018f	5f		 pop	 edi
  00190	5e		 pop	 esi
  00191	8b 4d f0	 mov	 ecx, DWORD PTR __$ArrayPad$[ebp]
  00194	33 cd		 xor	 ecx, ebp
  00196	e8 00 00 00 00	 call	 @__security_check_cookie@4
  0019b	8b e5		 mov	 esp, ebp
  0019d	5d		 pop	 ebp
  0019e	c2 10 00	 ret	 16			; 00000010H
_TEXT	ENDS
;	COMDAT text$x
text$x	SEGMENT
__unwindfunclet$?OnRemovePlayer@CDPLoginSrvr@@QAEXAAVCAr@@KPAEK@Z$0:
  00000	8d 8d 44 7f ff
	ff		 lea	 ecx, DWORD PTR _arRead$[ebp]
  00006	e9 00 00 00 00	 jmp	 ??1CAr@@QAE@XZ		; CAr::~CAr
__unwindfunclet$?OnRemovePlayer@CDPLoginSrvr@@QAEXAAVCAr@@KPAEK@Z$1:
  0000b	8d 8d 58 bf ff
	ff		 lea	 ecx, DWORD PTR _ar1$[ebp]
  00011	e9 00 00 00 00	 jmp	 ??1CAr@@QAE@XZ		; CAr::~CAr
  00016	cc		 int	 3
  00017	cc		 int	 3
  00018	cc		 int	 3
  00019	cc		 int	 3
  0001a	cc		 int	 3
__ehhandler$?OnRemovePlayer@CDPLoginSrvr@@QAEXAAVCAr@@KPAEK@Z:
  0001b	90		 npad	 1
  0001c	90		 npad	 1
  0001d	8b 54 24 08	 mov	 edx, DWORD PTR [esp+8]
  00021	8d 42 0c	 lea	 eax, DWORD PTR [edx+12]
  00024	8b 8a 3c 7f ff
	ff		 mov	 ecx, DWORD PTR [edx-32964]
  0002a	33 c8		 xor	 ecx, eax
  0002c	e8 00 00 00 00	 call	 @__security_check_cookie@4
  00031	8b 4a fc	 mov	 ecx, DWORD PTR [edx-4]
  00034	33 c8		 xor	 ecx, eax
  00036	e8 00 00 00 00	 call	 @__security_check_cookie@4
  0003b	b8 00 00 00 00	 mov	 eax, OFFSET __ehfuncinfo$?OnRemovePlayer@CDPLoginSrvr@@QAEXAAVCAr@@KPAEK@Z
  00040	e9 00 00 00 00	 jmp	 ___CxxFrameHandler3
text$x	ENDS
?OnRemovePlayer@CDPLoginSrvr@@QAEXAAVCAr@@KPAEK@Z ENDP	; CDPLoginSrvr::OnRemovePlayer
; Function compile flags: /Ogtp
; File C:\IAGOS\server\v18\Source\Source\DatabaseServer\DPLoginSrvr.cpp
;	COMDAT ?OnCreatePlayer@CDPLoginSrvr@@QAEXAAVCAr@@KPAEK@Z
_TEXT	SEGMENT
_arRead$ = -16508					; size = 16404
_szPassword$ = -104					; size = 42
_szAccount$ = -60					; size = 42
__$ArrayPad$ = -16					; size = 4
__$EHRec$ = -12						; size = 12
_ar$ = 8						; size = 4
_dpid$ = 12						; size = 4
_lpBuf$ = 16						; size = 4
_uBufSize$ = 20						; size = 4
?OnCreatePlayer@CDPLoginSrvr@@QAEXAAVCAr@@KPAEK@Z PROC	; CDPLoginSrvr::OnCreatePlayer, COMDAT
; _this$ = ecx

; 134  : {

  00000	55		 push	 ebp
  00001	8b ec		 mov	 ebp, esp
  00003	6a ff		 push	 -1
  00005	68 00 00 00 00	 push	 __ehhandler$?OnCreatePlayer@CDPLoginSrvr@@QAEXAAVCAr@@KPAEK@Z
  0000a	64 a1 00 00 00
	00		 mov	 eax, DWORD PTR fs:0
  00010	50		 push	 eax
  00011	b8 70 40 00 00	 mov	 eax, 16496		; 00004070H
  00016	e8 00 00 00 00	 call	 __chkstk
  0001b	a1 00 00 00 00	 mov	 eax, DWORD PTR ___security_cookie
  00020	33 c5		 xor	 eax, ebp
  00022	89 45 f0	 mov	 DWORD PTR __$ArrayPad$[ebp], eax
  00025	53		 push	 ebx
  00026	56		 push	 esi
  00027	57		 push	 edi
  00028	50		 push	 eax
  00029	8d 45 f4	 lea	 eax, DWORD PTR __$EHRec$[ebp]
  0002c	64 a3 00 00 00
	00		 mov	 DWORD PTR fs:0, eax
  00032	8b 5d 14	 mov	 ebx, DWORD PTR _uBufSize$[ebp]

; 135  : #ifdef __SECURITY_FIXES
; 136  : 	CAr arRead(lpBuf,uBufSize);

  00035	8d 8d 84 bf ff
	ff		 lea	 ecx, DWORD PTR _arRead$[ebp]
  0003b	8b 7d 10	 mov	 edi, DWORD PTR _lpBuf$[ebp]
  0003e	53		 push	 ebx
  0003f	57		 push	 edi
  00040	e8 00 00 00 00	 call	 ??0CAr@@QAE@PAXI@Z	; CAr::CAr

; 137  : 	char szAccount[MAX_ACCOUNT] = {0,};

  00045	6a 2a		 push	 42			; 0000002aH
  00047	8d 45 c4	 lea	 eax, DWORD PTR _szAccount$[ebp]
  0004a	c7 45 fc 00 00
	00 00		 mov	 DWORD PTR __$EHRec$[ebp+8], 0
  00051	6a 00		 push	 0
  00053	50		 push	 eax
  00054	e8 00 00 00 00	 call	 _memset

; 138  : 	char szPassword[MAX_PASSWORD] = {0,};

  00059	6a 2a		 push	 42			; 0000002aH
  0005b	8d 45 98	 lea	 eax, DWORD PTR _szPassword$[ebp]
  0005e	6a 00		 push	 0
  00060	50		 push	 eax
  00061	e8 00 00 00 00	 call	 _memset
  00066	83 c4 18	 add	 esp, 24			; 00000018H

; 139  : 	arRead.ReadString(szAccount,MAX_ACCOUNT);

  00069	8d 45 c4	 lea	 eax, DWORD PTR _szAccount$[ebp]
  0006c	8d 8d 84 bf ff
	ff		 lea	 ecx, DWORD PTR _arRead$[ebp]
  00072	6a 2a		 push	 42			; 0000002aH
  00074	50		 push	 eax
  00075	e8 00 00 00 00	 call	 ?ReadString@CAr@@QAEPADPADH@Z ; CAr::ReadString

; 140  : 	arRead.ReadString(szPassword,MAX_PASSWORD);

  0007a	6a 2a		 push	 42			; 0000002aH
  0007c	8d 45 98	 lea	 eax, DWORD PTR _szPassword$[ebp]
  0007f	50		 push	 eax
  00080	8d 8d 84 bf ff
	ff		 lea	 ecx, DWORD PTR _arRead$[ebp]
  00086	e8 00 00 00 00	 call	 ?ReadString@CAr@@QAEPADPADH@Z ; CAr::ReadString

; 141  : 	if(!prj.IsAllowedLetter(szAccount,FALSE) || 

  0008b	6a 00		 push	 0
  0008d	8d 45 c4	 lea	 eax, DWORD PTR _szAccount$[ebp]
  00090	b9 00 00 00 00	 mov	 ecx, OFFSET ?prj@@3VCProject@@A ; prj
  00095	50		 push	 eax
  00096	e8 00 00 00 00	 call	 ?IsAllowedLetter@CProject@@QAEHPBDH@Z ; CProject::IsAllowedLetter
  0009b	85 c0		 test	 eax, eax
  0009d	74 55		 je	 SHORT $LN3@OnCreatePl
  0009f	6a 00		 push	 0
  000a1	8d 45 98	 lea	 eax, DWORD PTR _szPassword$[ebp]
  000a4	b9 00 00 00 00	 mov	 ecx, OFFSET ?prj@@3VCProject@@A ; prj
  000a9	50		 push	 eax
  000aa	e8 00 00 00 00	 call	 ?IsAllowedLetter@CProject@@QAEHPBDH@Z ; CProject::IsAllowedLetter
  000af	85 c0		 test	 eax, eax
  000b1	74 41		 je	 SHORT $LN3@OnCreatePl

; 142  : 		!prj.IsAllowedLetter(szPassword,FALSE))
; 143  : 	{
; 144  : 		return;
; 145  : 	}
; 146  : #endif // __SECURITY_FIXES
; 147  : 	LPDB_OVERLAPPED_PLUS lpDbOverlappedPlus = g_DbManager.AllocRequest();

  000b3	8b 0d 00 00 00
	00		 mov	 ecx, DWORD PTR ?g_DbManager@@3AAVCDbManager@@A ; g_DbManager
  000b9	e8 00 00 00 00	 call	 ?AllocRequest@CDbManager@@QAEPAUtagDB_OVERLAPPED_PLUS@@XZ ; CDbManager::AllocRequest

; 148  : 	g_DbManager.MakeRequest( lpDbOverlappedPlus, lpBuf, uBufSize );

  000be	8b 0d 00 00 00
	00		 mov	 ecx, DWORD PTR ?g_DbManager@@3AAVCDbManager@@A ; g_DbManager
  000c4	8b f0		 mov	 esi, eax
  000c6	53		 push	 ebx
  000c7	57		 push	 edi
  000c8	56		 push	 esi
  000c9	e8 00 00 00 00	 call	 ?MakeRequest@CDbManager@@QAEXPAUtagDB_OVERLAPPED_PLUS@@PAEK@Z ; CDbManager::MakeRequest

; 149  : 	lpDbOverlappedPlus->dpid = dpid;

  000ce	8b 4d 0c	 mov	 ecx, DWORD PTR _dpid$[ebp]

; 150  : 	lpDbOverlappedPlus->nQueryMode = CREATEPLAYER;
; 151  : 	PostQueuedCompletionStatus( g_DbManager.m_hIOCPGet, 1, NULL, &lpDbOverlappedPlus->Overlapped );

  000d1	56		 push	 esi
  000d2	89 8e a8 00 00
	00		 mov	 DWORD PTR [esi+168], ecx
  000d8	c7 46 14 03 00
	00 00		 mov	 DWORD PTR [esi+20], 3
  000df	a1 00 00 00 00	 mov	 eax, DWORD PTR ?g_DbManager@@3AAVCDbManager@@A ; g_DbManager
  000e4	6a 00		 push	 0
  000e6	6a 01		 push	 1
  000e8	ff b0 30 03 00
	00		 push	 DWORD PTR [eax+816]
  000ee	ff 15 00 00 00
	00		 call	 DWORD PTR __imp__PostQueuedCompletionStatus@16
$LN3@OnCreatePl:

; 152  : }

  000f4	8d 8d 84 bf ff
	ff		 lea	 ecx, DWORD PTR _arRead$[ebp]
  000fa	e8 00 00 00 00	 call	 ??1CAr@@QAE@XZ		; CAr::~CAr
  000ff	8b 4d f4	 mov	 ecx, DWORD PTR __$EHRec$[ebp]
  00102	64 89 0d 00 00
	00 00		 mov	 DWORD PTR fs:0, ecx
  00109	59		 pop	 ecx
  0010a	5f		 pop	 edi
  0010b	5e		 pop	 esi
  0010c	5b		 pop	 ebx
  0010d	8b 4d f0	 mov	 ecx, DWORD PTR __$ArrayPad$[ebp]
  00110	33 cd		 xor	 ecx, ebp
  00112	e8 00 00 00 00	 call	 @__security_check_cookie@4
  00117	8b e5		 mov	 esp, ebp
  00119	5d		 pop	 ebp
  0011a	c2 10 00	 ret	 16			; 00000010H
_TEXT	ENDS
;	COMDAT text$x
text$x	SEGMENT
__unwindfunclet$?OnCreatePlayer@CDPLoginSrvr@@QAEXAAVCAr@@KPAEK@Z$0:
  00000	8d 8d 84 bf ff
	ff		 lea	 ecx, DWORD PTR _arRead$[ebp]
  00006	e9 00 00 00 00	 jmp	 ??1CAr@@QAE@XZ		; CAr::~CAr
  0000b	cc		 int	 3
  0000c	cc		 int	 3
  0000d	cc		 int	 3
  0000e	cc		 int	 3
  0000f	cc		 int	 3
__ehhandler$?OnCreatePlayer@CDPLoginSrvr@@QAEXAAVCAr@@KPAEK@Z:
  00010	90		 npad	 1
  00011	90		 npad	 1
  00012	8b 54 24 08	 mov	 edx, DWORD PTR [esp+8]
  00016	8d 42 0c	 lea	 eax, DWORD PTR [edx+12]
  00019	8b 8a 80 bf ff
	ff		 mov	 ecx, DWORD PTR [edx-16512]
  0001f	33 c8		 xor	 ecx, eax
  00021	e8 00 00 00 00	 call	 @__security_check_cookie@4
  00026	8b 4a fc	 mov	 ecx, DWORD PTR [edx-4]
  00029	33 c8		 xor	 ecx, eax
  0002b	e8 00 00 00 00	 call	 @__security_check_cookie@4
  00030	b8 00 00 00 00	 mov	 eax, OFFSET __ehfuncinfo$?OnCreatePlayer@CDPLoginSrvr@@QAEXAAVCAr@@KPAEK@Z
  00035	e9 00 00 00 00	 jmp	 ___CxxFrameHandler3
text$x	ENDS
?OnCreatePlayer@CDPLoginSrvr@@QAEXAAVCAr@@KPAEK@Z ENDP	; CDPLoginSrvr::OnCreatePlayer
; Function compile flags: /Ogtp
; File C:\IAGOS\server\v18\Source\Source\DatabaseServer\DPLoginSrvr.cpp
; File C:\IAGOS\server\v18\Source\Source\_Network\Net\Include\DPMng.h
; File C:\IAGOS\server\v18\Source\Source\DatabaseServer\DPLoginSrvr.cpp
;	COMDAT ?OnGetPlayerList@CDPLoginSrvr@@QAEXAAVCAr@@KPAEK@Z
_TEXT	SEGMENT
_nBlockSize$ = -32920					; size = 4
_dwAuthKey$ = -32916					; size = 4
_uIdofMulti$ = -32916					; size = 4
$T2 = -32916						; size = 4
_arRead$ = -32912					; size = 16404
_ar1$ = -16508						; size = 16404
_szPassword$ = -104					; size = 42
_szAccount$ = -60					; size = 42
__$ArrayPad$ = -16					; size = 4
__$EHRec$ = -12						; size = 12
_ar$ = 8						; size = 4
_dpid$ = 12						; size = 4
_lpBuf$ = 16						; size = 4
_uBufSize$ = 20						; size = 4
?OnGetPlayerList@CDPLoginSrvr@@QAEXAAVCAr@@KPAEK@Z PROC	; CDPLoginSrvr::OnGetPlayerList, COMDAT
; _this$ = ecx

; 190  : {

  00000	55		 push	 ebp
  00001	8b ec		 mov	 ebp, esp
  00003	6a ff		 push	 -1
  00005	68 00 00 00 00	 push	 __ehhandler$?OnGetPlayerList@CDPLoginSrvr@@QAEXAAVCAr@@KPAEK@Z
  0000a	64 a1 00 00 00
	00		 mov	 eax, DWORD PTR fs:0
  00010	50		 push	 eax
  00011	b8 8c 80 00 00	 mov	 eax, 32908		; 0000808cH
  00016	e8 00 00 00 00	 call	 __chkstk
  0001b	a1 00 00 00 00	 mov	 eax, DWORD PTR ___security_cookie
  00020	33 c5		 xor	 eax, ebp
  00022	89 45 f0	 mov	 DWORD PTR __$ArrayPad$[ebp], eax
  00025	56		 push	 esi
  00026	57		 push	 edi
  00027	50		 push	 eax
  00028	8d 45 f4	 lea	 eax, DWORD PTR __$EHRec$[ebp]
  0002b	64 a3 00 00 00
	00		 mov	 DWORD PTR fs:0, eax
  00031	8b 7d 14	 mov	 edi, DWORD PTR _uBufSize$[ebp]

; 191  : #ifdef __SECURITY_FIXES
; 192  : 	CAr arRead(lpBuf,uBufSize);

  00034	8d 8d 70 7f ff
	ff		 lea	 ecx, DWORD PTR _arRead$[ebp]
  0003a	8b 75 10	 mov	 esi, DWORD PTR _lpBuf$[ebp]
  0003d	57		 push	 edi
  0003e	56		 push	 esi
  0003f	e8 00 00 00 00	 call	 ??0CAr@@QAE@PAXI@Z	; CAr::CAr

; 193  : 	DWORD dwAuthKey;
; 194  : 	arRead >> dwAuthKey;

  00044	8d 85 6c 7f ff
	ff		 lea	 eax, DWORD PTR _dwAuthKey$[ebp]
  0004a	c7 45 fc 00 00
	00 00		 mov	 DWORD PTR __$EHRec$[ebp+8], 0
  00051	50		 push	 eax
  00052	8d 8d 70 7f ff
	ff		 lea	 ecx, DWORD PTR _arRead$[ebp]
  00058	e8 00 00 00 00	 call	 ??$?5K@CAr@@QAEAAV0@AAK@Z ; CAr::operator>><unsigned long>

; 195  : 	u_long uIdofMulti;
; 196  : 	arRead >> uIdofMulti;

  0005d	8d 85 6c 7f ff
	ff		 lea	 eax, DWORD PTR _uIdofMulti$[ebp]
  00063	50		 push	 eax
  00064	8d 8d 70 7f ff
	ff		 lea	 ecx, DWORD PTR _arRead$[ebp]
  0006a	e8 00 00 00 00	 call	 ??$?5K@CAr@@QAEAAV0@AAK@Z ; CAr::operator>><unsigned long>

; 197  : 	char szAccount[MAX_ACCOUNT] = {0,};

  0006f	6a 2a		 push	 42			; 0000002aH
  00071	8d 45 c4	 lea	 eax, DWORD PTR _szAccount$[ebp]
  00074	6a 00		 push	 0
  00076	50		 push	 eax
  00077	e8 00 00 00 00	 call	 _memset

; 198  : 	char szPassword[MAX_PASSWORD] = {0,};

  0007c	6a 2a		 push	 42			; 0000002aH
  0007e	8d 45 98	 lea	 eax, DWORD PTR _szPassword$[ebp]
  00081	6a 00		 push	 0
  00083	50		 push	 eax
  00084	e8 00 00 00 00	 call	 _memset
  00089	83 c4 18	 add	 esp, 24			; 00000018H

; 199  : 	arRead.ReadString( szAccount, MAX_ACCOUNT );

  0008c	8d 45 c4	 lea	 eax, DWORD PTR _szAccount$[ebp]
  0008f	8d 8d 70 7f ff
	ff		 lea	 ecx, DWORD PTR _arRead$[ebp]
  00095	6a 2a		 push	 42			; 0000002aH
  00097	50		 push	 eax
  00098	e8 00 00 00 00	 call	 ?ReadString@CAr@@QAEPADPADH@Z ; CAr::ReadString

; 200  : 	arRead.ReadString( szPassword, MAX_PASSWORD );

  0009d	6a 2a		 push	 42			; 0000002aH
  0009f	8d 45 98	 lea	 eax, DWORD PTR _szPassword$[ebp]
  000a2	50		 push	 eax
  000a3	8d 8d 70 7f ff
	ff		 lea	 ecx, DWORD PTR _arRead$[ebp]
  000a9	e8 00 00 00 00	 call	 ?ReadString@CAr@@QAEPADPADH@Z ; CAr::ReadString

; 201  : 	if(!prj.IsAllowedLetter(szAccount,FALSE) || 

  000ae	6a 00		 push	 0
  000b0	8d 45 c4	 lea	 eax, DWORD PTR _szAccount$[ebp]
  000b3	b9 00 00 00 00	 mov	 ecx, OFFSET ?prj@@3VCProject@@A ; prj
  000b8	50		 push	 eax
  000b9	e8 00 00 00 00	 call	 ?IsAllowedLetter@CProject@@QAEHPBDH@Z ; CProject::IsAllowedLetter
  000be	85 c0		 test	 eax, eax
  000c0	0f 84 98 00 00
	00		 je	 $LN3@OnGetPlaye
  000c6	6a 00		 push	 0
  000c8	8d 45 98	 lea	 eax, DWORD PTR _szPassword$[ebp]
  000cb	b9 00 00 00 00	 mov	 ecx, OFFSET ?prj@@3VCProject@@A ; prj
  000d0	50		 push	 eax
  000d1	e8 00 00 00 00	 call	 ?IsAllowedLetter@CProject@@QAEHPBDH@Z ; CProject::IsAllowedLetter
  000d6	85 c0		 test	 eax, eax
  000d8	0f 84 80 00 00
	00		 je	 $LN3@OnGetPlaye

; 202  : 		!prj.IsAllowedLetter(szPassword,FALSE))
; 203  : 	{
; 204  : 		return;
; 205  : 	}
; 206  : #endif // __SECURITY_FIXES
; 207  : 	CAr ar1;

  000de	6a 00		 push	 0
  000e0	6a 00		 push	 0
  000e2	8d 8d 84 bf ff
	ff		 lea	 ecx, DWORD PTR _ar1$[ebp]
  000e8	e8 00 00 00 00	 call	 ??0CAr@@QAE@PAXI@Z	; CAr::CAr

; 208  : 	ar1 << PACKETTYPE_GETPLAYERLIST;

  000ed	8d 85 6c 7f ff
	ff		 lea	 eax, DWORD PTR $T2[ebp]
  000f3	c6 45 fc 01	 mov	 BYTE PTR __$EHRec$[ebp+8], 1
  000f7	50		 push	 eax
  000f8	8d 8d 84 bf ff
	ff		 lea	 ecx, DWORD PTR _ar1$[ebp]
  000fe	c7 85 6c 7f ff
	ff f6 00 00 00	 mov	 DWORD PTR $T2[ebp], 246	; 000000f6H
  00108	e8 00 00 00 00	 call	 ??$?6K@CAr@@QAEAAV0@ABK@Z ; CAr::operator<<<unsigned long>

; 209  : 	ar1.Write( lpBuf, uBufSize );

  0010d	57		 push	 edi
  0010e	56		 push	 esi
  0010f	8d 8d 84 bf ff
	ff		 lea	 ecx, DWORD PTR _ar1$[ebp]
  00115	e8 00 00 00 00	 call	 ?Write@CAr@@QAEXPBXI@Z	; CAr::Write

; 210  : 	ar1 << dpid;

  0011a	8d 45 0c	 lea	 eax, DWORD PTR _dpid$[ebp]
  0011d	50		 push	 eax
  0011e	8d 8d 84 bf ff
	ff		 lea	 ecx, DWORD PTR _ar1$[ebp]
  00124	e8 00 00 00 00	 call	 ??$?6K@CAr@@QAEAAV0@ABK@Z ; CAr::operator<<<unsigned long>

; 211  : 	int nBlockSize;
; 212  : 	LPBYTE pBlock	= ar1.GetBuffer( &nBlockSize );

  00129	8d 85 68 7f ff
	ff		 lea	 eax, DWORD PTR _nBlockSize$[ebp]
  0012f	50		 push	 eax
  00130	8d 8d 84 bf ff
	ff		 lea	 ecx, DWORD PTR _ar1$[ebp]
  00136	e8 00 00 00 00	 call	 ?GetBuffer@CAr@@QAEPAEPAH@Z ; CAr::GetBuffer
; File C:\IAGOS\server\v18\Source\Source\_Network\Net\Include\DPMng.h

; 171  : 	if( !m_pDPSock )

  0013b	8b 0d 04 00 00
	00		 mov	 ecx, DWORD PTR ?g_dpAccountClient@@3VCDPAccountClient@@A+4
  00141	85 c9		 test	 ecx, ecx
  00143	74 0e		 je	 SHORT $LN8@OnGetPlaye

; 172  : 		return FALSE;
; 173  : 	return m_pDPSock->Send( (char*)lpData, dwDataSize, dpidTo );

  00145	6a 01		 push	 1
  00147	ff b5 68 7f ff
	ff		 push	 DWORD PTR _nBlockSize$[ebp]
  0014d	50		 push	 eax
  0014e	e8 00 00 00 00	 call	 ?Send@CDPSock@@QAEHPADKK@Z ; CDPSock::Send
$LN8@OnGetPlaye:
; File C:\IAGOS\server\v18\Source\Source\DatabaseServer\DPLoginSrvr.cpp

; 214  : }

  00153	8d 8d 84 bf ff
	ff		 lea	 ecx, DWORD PTR _ar1$[ebp]
  00159	e8 00 00 00 00	 call	 ??1CAr@@QAE@XZ		; CAr::~CAr
$LN3@OnGetPlaye:
  0015e	8d 8d 70 7f ff
	ff		 lea	 ecx, DWORD PTR _arRead$[ebp]
  00164	e8 00 00 00 00	 call	 ??1CAr@@QAE@XZ		; CAr::~CAr
  00169	8b 4d f4	 mov	 ecx, DWORD PTR __$EHRec$[ebp]
  0016c	64 89 0d 00 00
	00 00		 mov	 DWORD PTR fs:0, ecx
  00173	59		 pop	 ecx
  00174	5f		 pop	 edi
  00175	5e		 pop	 esi
  00176	8b 4d f0	 mov	 ecx, DWORD PTR __$ArrayPad$[ebp]
  00179	33 cd		 xor	 ecx, ebp
  0017b	e8 00 00 00 00	 call	 @__security_check_cookie@4
  00180	8b e5		 mov	 esp, ebp
  00182	5d		 pop	 ebp
  00183	c2 10 00	 ret	 16			; 00000010H
_TEXT	ENDS
;	COMDAT text$x
text$x	SEGMENT
__unwindfunclet$?OnGetPlayerList@CDPLoginSrvr@@QAEXAAVCAr@@KPAEK@Z$0:
  00000	8d 8d 70 7f ff
	ff		 lea	 ecx, DWORD PTR _arRead$[ebp]
  00006	e9 00 00 00 00	 jmp	 ??1CAr@@QAE@XZ		; CAr::~CAr
__unwindfunclet$?OnGetPlayerList@CDPLoginSrvr@@QAEXAAVCAr@@KPAEK@Z$1:
  0000b	8d 8d 84 bf ff
	ff		 lea	 ecx, DWORD PTR _ar1$[ebp]
  00011	e9 00 00 00 00	 jmp	 ??1CAr@@QAE@XZ		; CAr::~CAr
  00016	cc		 int	 3
  00017	cc		 int	 3
  00018	cc		 int	 3
  00019	cc		 int	 3
  0001a	cc		 int	 3
__ehhandler$?OnGetPlayerList@CDPLoginSrvr@@QAEXAAVCAr@@KPAEK@Z:
  0001b	90		 npad	 1
  0001c	90		 npad	 1
  0001d	8b 54 24 08	 mov	 edx, DWORD PTR [esp+8]
  00021	8d 42 0c	 lea	 eax, DWORD PTR [edx+12]
  00024	8b 8a 68 7f ff
	ff		 mov	 ecx, DWORD PTR [edx-32920]
  0002a	33 c8		 xor	 ecx, eax
  0002c	e8 00 00 00 00	 call	 @__security_check_cookie@4
  00031	8b 4a fc	 mov	 ecx, DWORD PTR [edx-4]
  00034	33 c8		 xor	 ecx, eax
  00036	e8 00 00 00 00	 call	 @__security_check_cookie@4
  0003b	b8 00 00 00 00	 mov	 eax, OFFSET __ehfuncinfo$?OnGetPlayerList@CDPLoginSrvr@@QAEXAAVCAr@@KPAEK@Z
  00040	e9 00 00 00 00	 jmp	 ___CxxFrameHandler3
text$x	ENDS
?OnGetPlayerList@CDPLoginSrvr@@QAEXAAVCAr@@KPAEK@Z ENDP	; CDPLoginSrvr::OnGetPlayerList
; Function compile flags: /Ogtp
;	COMDAT ??1?$map@KP8CDPLoginSrvr@@AEXAAVCAr@@KPAEK@ZU?$less@K@std@@V?$allocator@U?$pair@$$CBKP8CDPLoginSrvr@@AEXAAVCAr@@KPAEK@Z@std@@@4@@std@@QAE@XZ
_TEXT	SEGMENT
??1?$map@KP8CDPLoginSrvr@@AEXAAVCAr@@KPAEK@ZU?$less@K@std@@V?$allocator@U?$pair@$$CBKP8CDPLoginSrvr@@AEXAAVCAr@@KPAEK@Z@std@@@4@@std@@QAE@XZ PROC ; std::map<unsigned long,void (__thiscall CDPLoginSrvr::*)(CAr &,unsigned long,unsigned char *,unsigned long),std::less<unsigned long>,std::allocator<std::pair<unsigned long const ,void (__thiscall CDPLoginSrvr::*)(CAr &,unsigned long,unsigned char *,unsigned long)> > >::~map<unsigned long,void (__thiscall CDPLoginSrvr::*)(CAr &,unsigned long,unsigned char *,unsigned long),std::less<unsigned long>,std::allocator<std::pair<unsigned long const ,void (__thiscall CDPLoginSrvr::*)(CAr &,unsigned long,unsigned char *,unsigned long)> > >, COMDAT
; _this$ = ecx
  00000	e9 00 00 00 00	 jmp	 ??1?$_Tree@V?$_Tmap_traits@KP8CDPLoginSrvr@@AEXAAVCAr@@KPAEK@ZU?$less@K@std@@V?$allocator@U?$pair@$$CBKP8CDPLoginSrvr@@AEXAAVCAr@@KPAEK@Z@std@@@4@$0A@@std@@@std@@QAE@XZ ; std::_Tree<std::_Tmap_traits<unsigned long,void (__thiscall CDPLoginSrvr::*)(CAr &,unsigned long,unsigned char *,unsigned long),std::less<unsigned long>,std::allocator<std::pair<unsigned long const ,void (__thiscall CDPLoginSrvr::*)(CAr &,unsigned long,unsigned char *,unsigned long)> >,0> >::~_Tree<std::_Tmap_traits<unsigned long,void (__thiscall CDPLoginSrvr::*)(CAr &,unsigned long,unsigned char *,unsigned long),std::less<unsigned long>,std::allocator<std::pair<unsigned long const ,void (__thiscall CDPLoginSrvr::*)(CAr &,unsigned long,unsigned char *,unsigned long)> >,0> >
??1?$map@KP8CDPLoginSrvr@@AEXAAVCAr@@KPAEK@ZU?$less@K@std@@V?$allocator@U?$pair@$$CBKP8CDPLoginSrvr@@AEXAAVCAr@@KPAEK@Z@std@@@4@@std@@QAE@XZ ENDP ; std::map<unsigned long,void (__thiscall CDPLoginSrvr::*)(CAr &,unsigned long,unsigned char *,unsigned long),std::less<unsigned long>,std::allocator<std::pair<unsigned long const ,void (__thiscall CDPLoginSrvr::*)(CAr &,unsigned long,unsigned char *,unsigned long)> > >::~map<unsigned long,void (__thiscall CDPLoginSrvr::*)(CAr &,unsigned long,unsigned char *,unsigned long),std::less<unsigned long>,std::allocator<std::pair<unsigned long const ,void (__thiscall CDPLoginSrvr::*)(CAr &,unsigned long,unsigned char *,unsigned long)> > >
_TEXT	ENDS
; Function compile flags: /Ogtp
; File C:\Program Files\Microsoft Visual Studio\2022\Professional\VC\Tools\MSVC\14.44.35207\include\xtree
;	COMDAT ?_Insert_node@?$_Tree_val@U?$_Tree_simple_types@U?$pair@$$CBKP8CDPLoginSrvr@@AEXAAVCAr@@KPAEK@Z@std@@@std@@@std@@QAEPAU?$_Tree_node@U?$pair@$$CBKP8CDPLoginSrvr@@AEXAAVCAr@@KPAEK@Z@std@@PAX@2@U?$_Tree_id@PAU?$_Tree_node@U?$pair@$$CBKP8CDPLoginSrvr@@AEXAAVCAr@@KPAEK@Z@std@@PAX@std@@@2@QAU32@@Z
_TEXT	SEGMENT
__Head$1$ = -4						; size = 4
__Loc$ = 8						; size = 8
__Newnode$ = 16						; size = 4
?_Insert_node@?$_Tree_val@U?$_Tree_simple_types@U?$pair@$$CBKP8CDPLoginSrvr@@AEXAAVCAr@@KPAEK@Z@std@@@std@@@std@@QAEPAU?$_Tree_node@U?$pair@$$CBKP8CDPLoginSrvr@@AEXAAVCAr@@KPAEK@Z@std@@PAX@2@U?$_Tree_id@PAU?$_Tree_node@U?$pair@$$CBKP8CDPLoginSrvr@@AEXAAVCAr@@KPAEK@Z@std@@PAX@std@@@2@QAU32@@Z PROC ; std::_Tree_val<std::_Tree_simple_types<std::pair<unsigned long const ,void (__thiscall CDPLoginSrvr::*)(CAr &,unsigned long,unsigned char *,unsigned long)> > >::_Insert_node, COMDAT
; _this$ = ecx

; 669  :     _Nodeptr _Insert_node(const _Tree_id<_Nodeptr> _Loc, const _Nodeptr _Newnode) noexcept {

  00000	55		 push	 ebp
  00001	8b ec		 mov	 ebp, esp
  00003	51		 push	 ecx

; 670  :         ++_Mysize;
; 671  :         const auto _Head  = _Myhead;
; 672  :         _Newnode->_Parent = _Loc._Parent;

  00004	8b 55 08	 mov	 edx, DWORD PTR __Loc$[ebp]
  00007	53		 push	 ebx
  00008	8b d9		 mov	 ebx, ecx
  0000a	57		 push	 edi
  0000b	8b 7d 10	 mov	 edi, DWORD PTR __Newnode$[ebp]
  0000e	8b 03		 mov	 eax, DWORD PTR [ebx]
  00010	ff 43 04	 inc	 DWORD PTR [ebx+4]
  00013	89 45 fc	 mov	 DWORD PTR __Head$1$[ebp], eax
  00016	89 57 04	 mov	 DWORD PTR [edi+4], edx

; 673  :         if (_Loc._Parent == _Head) { // first node in tree, just set head values

  00019	3b d0		 cmp	 edx, eax
  0001b	75 16		 jne	 SHORT $LN5@Insert_nod

; 674  :             _Head->_Left     = _Newnode;

  0001d	89 38		 mov	 DWORD PTR [eax], edi

; 675  :             _Head->_Parent   = _Newnode;

  0001f	89 78 04	 mov	 DWORD PTR [eax+4], edi

; 676  :             _Head->_Right    = _Newnode;

  00022	89 78 08	 mov	 DWORD PTR [eax+8], edi

; 735  :         return _Newnode;
; 736  :     }

  00025	8b c7		 mov	 eax, edi
  00027	c6 47 0c 01	 mov	 BYTE PTR [edi+12], 1
  0002b	5f		 pop	 edi
  0002c	5b		 pop	 ebx
  0002d	8b e5		 mov	 esp, ebp
  0002f	5d		 pop	 ebp
  00030	c2 0c 00	 ret	 12			; 0000000cH
$LN5@Insert_nod:

; 677  :             _Newnode->_Color = _Black; // the root is black
; 678  :             return _Newnode;
; 679  :         }
; 680  : 
; 681  :         _STL_INTERNAL_CHECK(_Loc._Child != _Tree_child::_Unused);
; 682  :         if (_Loc._Child == _Tree_child::_Right) { // add to right of _Loc._Parent

  00033	83 7d 0c 00	 cmp	 DWORD PTR __Loc$[ebp+4], 0
  00037	75 0d		 jne	 SHORT $LN6@Insert_nod

; 683  :             _STL_INTERNAL_CHECK(_Loc._Parent->_Right->_Isnil);
; 684  :             _Loc._Parent->_Right = _Newnode;

  00039	89 7a 08	 mov	 DWORD PTR [edx+8], edi

; 685  :             if (_Loc._Parent == _Head->_Right) { // remember rightmost node

  0003c	3b 50 08	 cmp	 edx, DWORD PTR [eax+8]
  0003f	75 0d		 jne	 SHORT $LN9@Insert_nod

; 686  :                 _Head->_Right = _Newnode;

  00041	89 78 08	 mov	 DWORD PTR [eax+8], edi

; 687  :             }
; 688  :         } else { // add to left of _Loc._Parent

  00044	eb 08		 jmp	 SHORT $LN9@Insert_nod
$LN6@Insert_nod:

; 689  :             _STL_INTERNAL_CHECK(_Loc._Parent->_Left->_Isnil);
; 690  :             _Loc._Parent->_Left = _Newnode;

  00046	89 3a		 mov	 DWORD PTR [edx], edi

; 691  :             if (_Loc._Parent == _Head->_Left) { // remember leftmost node

  00048	3b 10		 cmp	 edx, DWORD PTR [eax]
  0004a	75 02		 jne	 SHORT $LN9@Insert_nod

; 692  :                 _Head->_Left = _Newnode;

  0004c	89 38		 mov	 DWORD PTR [eax], edi
$LN9@Insert_nod:

; 693  :             }
; 694  :         }
; 695  : 
; 696  :         for (_Nodeptr _Pnode = _Newnode; _Pnode->_Parent->_Color == _Red;) {

  0004e	8b 4f 04	 mov	 ecx, DWORD PTR [edi+4]
  00051	8b c7		 mov	 eax, edi
  00053	80 79 0c 00	 cmp	 BYTE PTR [ecx+12], 0
  00057	0f 85 7d 01 00
	00		 jne	 $LN3@Insert_nod
  0005d	56		 push	 esi
  0005e	66 90		 npad	 2
$LL4@Insert_nod:

; 697  :             if (_Pnode->_Parent == _Pnode->_Parent->_Parent->_Left) { // fixup red-red in left subtree

  00060	8b 50 04	 mov	 edx, DWORD PTR [eax+4]
  00063	8b 72 04	 mov	 esi, DWORD PTR [edx+4]
  00066	8b 0e		 mov	 ecx, DWORD PTR [esi]
  00068	3b d1		 cmp	 edx, ecx
  0006a	0f 85 aa 00 00
	00		 jne	 $LN10@Insert_nod

; 698  :                 const auto _Parent_sibling = _Pnode->_Parent->_Parent->_Right;

  00070	8b 4e 08	 mov	 ecx, DWORD PTR [esi+8]

; 699  :                 if (_Parent_sibling->_Color == _Red) { // parent's sibling has two red children, blacken both

  00073	80 79 0c 00	 cmp	 BYTE PTR [ecx+12], 0
  00077	0f 84 a3 00 00
	00		 je	 $LN82@Insert_nod

; 700  :                     _Pnode->_Parent->_Color          = _Black;
; 701  :                     _Parent_sibling->_Color          = _Black;
; 702  :                     _Pnode->_Parent->_Parent->_Color = _Red;
; 703  :                     _Pnode                           = _Pnode->_Parent->_Parent;
; 704  :                 } else { // parent's sibling has red and black children
; 705  :                     if (_Pnode == _Pnode->_Parent->_Right) { // rotate right child to left

  0007d	8b 72 08	 mov	 esi, DWORD PTR [edx+8]
  00080	3b c6		 cmp	 eax, esi
  00082	75 37		 jne	 SHORT $LN57@Insert_nod

; 485  :         _Wherenode->_Right = _Pnode->_Left;

  00084	8b 0e		 mov	 ecx, DWORD PTR [esi]

; 706  :                         _Pnode = _Pnode->_Parent;

  00086	8b c2		 mov	 eax, edx

; 485  :         _Wherenode->_Right = _Pnode->_Left;

  00088	89 4a 08	 mov	 DWORD PTR [edx+8], ecx

; 486  : 
; 487  :         if (!_Pnode->_Left->_Isnil) {

  0008b	8b 0e		 mov	 ecx, DWORD PTR [esi]
  0008d	80 79 0d 00	 cmp	 BYTE PTR [ecx+13], 0
  00091	75 03		 jne	 SHORT $LN21@Insert_nod

; 488  :             _Pnode->_Left->_Parent = _Wherenode;

  00093	89 41 04	 mov	 DWORD PTR [ecx+4], eax
$LN21@Insert_nod:

; 489  :         }
; 490  : 
; 491  :         _Pnode->_Parent = _Wherenode->_Parent;

  00096	8b 4a 04	 mov	 ecx, DWORD PTR [edx+4]
  00099	89 4e 04	 mov	 DWORD PTR [esi+4], ecx

; 492  : 
; 493  :         if (_Wherenode == _Myhead->_Parent) {

  0009c	8b 0b		 mov	 ecx, DWORD PTR [ebx]
  0009e	3b 41 04	 cmp	 eax, DWORD PTR [ecx+4]
  000a1	75 05		 jne	 SHORT $LN22@Insert_nod

; 494  :             _Myhead->_Parent = _Pnode;

  000a3	89 71 04	 mov	 DWORD PTR [ecx+4], esi
  000a6	eb 0e		 jmp	 SHORT $LN25@Insert_nod
$LN22@Insert_nod:

; 495  :         } else if (_Wherenode == _Wherenode->_Parent->_Left) {

  000a8	8b 4a 04	 mov	 ecx, DWORD PTR [edx+4]
  000ab	3b 01		 cmp	 eax, DWORD PTR [ecx]
  000ad	75 04		 jne	 SHORT $LN24@Insert_nod

; 496  :             _Wherenode->_Parent->_Left = _Pnode;

  000af	89 31		 mov	 DWORD PTR [ecx], esi

; 497  :         } else {

  000b1	eb 03		 jmp	 SHORT $LN25@Insert_nod
$LN24@Insert_nod:

; 498  :             _Wherenode->_Parent->_Right = _Pnode;

  000b3	89 71 08	 mov	 DWORD PTR [ecx+8], esi
$LN25@Insert_nod:

; 499  :         }
; 500  : 
; 501  :         _Pnode->_Left       = _Wherenode;

  000b6	89 06		 mov	 DWORD PTR [esi], eax

; 502  :         _Wherenode->_Parent = _Pnode;

  000b8	89 70 04	 mov	 DWORD PTR [eax+4], esi
$LN57@Insert_nod:

; 707  :                         _Lrotate(_Pnode);
; 708  :                     }
; 709  : 
; 710  :                     _Pnode->_Parent->_Color          = _Black; // propagate red up

  000bb	8b 48 04	 mov	 ecx, DWORD PTR [eax+4]
  000be	c6 41 0c 01	 mov	 BYTE PTR [ecx+12], 1

; 711  :                     _Pnode->_Parent->_Parent->_Color = _Red;

  000c2	8b 48 04	 mov	 ecx, DWORD PTR [eax+4]
  000c5	8b 49 04	 mov	 ecx, DWORD PTR [ecx+4]
  000c8	c6 41 0c 00	 mov	 BYTE PTR [ecx+12], 0

; 712  :                     _Rrotate(_Pnode->_Parent->_Parent);

  000cc	8b 48 04	 mov	 ecx, DWORD PTR [eax+4]
  000cf	8b 51 04	 mov	 edx, DWORD PTR [ecx+4]

; 506  :         _Nodeptr _Pnode   = _Wherenode->_Left;

  000d2	8b 32		 mov	 esi, DWORD PTR [edx]

; 507  :         _Wherenode->_Left = _Pnode->_Right;

  000d4	8b 4e 08	 mov	 ecx, DWORD PTR [esi+8]
  000d7	89 0a		 mov	 DWORD PTR [edx], ecx

; 508  : 
; 509  :         if (!_Pnode->_Right->_Isnil) {

  000d9	8b 4e 08	 mov	 ecx, DWORD PTR [esi+8]
  000dc	80 79 0d 00	 cmp	 BYTE PTR [ecx+13], 0
  000e0	75 03		 jne	 SHORT $LN29@Insert_nod

; 510  :             _Pnode->_Right->_Parent = _Wherenode;

  000e2	89 51 04	 mov	 DWORD PTR [ecx+4], edx
$LN29@Insert_nod:

; 511  :         }
; 512  : 
; 513  :         _Pnode->_Parent = _Wherenode->_Parent;

  000e5	8b 4a 04	 mov	 ecx, DWORD PTR [edx+4]
  000e8	89 4e 04	 mov	 DWORD PTR [esi+4], ecx

; 514  : 
; 515  :         if (_Wherenode == _Myhead->_Parent) {

  000eb	8b 0b		 mov	 ecx, DWORD PTR [ebx]
  000ed	3b 51 04	 cmp	 edx, DWORD PTR [ecx+4]
  000f0	75 0b		 jne	 SHORT $LN30@Insert_nod

; 516  :             _Myhead->_Parent = _Pnode;

  000f2	89 71 04	 mov	 DWORD PTR [ecx+4], esi

; 521  :         }
; 522  : 
; 523  :         _Pnode->_Right      = _Wherenode;

  000f5	89 56 08	 mov	 DWORD PTR [esi+8], edx

; 713  :                 }
; 714  :             } else { // fixup red-red in right subtree

  000f8	e9 cc 00 00 00	 jmp	 $LN81@Insert_nod
$LN30@Insert_nod:

; 517  :         } else if (_Wherenode == _Wherenode->_Parent->_Right) {

  000fd	8b 4a 04	 mov	 ecx, DWORD PTR [edx+4]
  00100	3b 51 08	 cmp	 edx, DWORD PTR [ecx+8]
  00103	75 0b		 jne	 SHORT $LN32@Insert_nod

; 518  :             _Wherenode->_Parent->_Right = _Pnode;

  00105	89 71 08	 mov	 DWORD PTR [ecx+8], esi

; 521  :         }
; 522  : 
; 523  :         _Pnode->_Right      = _Wherenode;

  00108	89 56 08	 mov	 DWORD PTR [esi+8], edx

; 713  :                 }
; 714  :             } else { // fixup red-red in right subtree

  0010b	e9 b9 00 00 00	 jmp	 $LN81@Insert_nod
$LN32@Insert_nod:

; 520  :             _Wherenode->_Parent->_Left = _Pnode;

  00110	89 31		 mov	 DWORD PTR [ecx], esi

; 521  :         }
; 522  : 
; 523  :         _Pnode->_Right      = _Wherenode;

  00112	89 56 08	 mov	 DWORD PTR [esi+8], edx

; 713  :                 }
; 714  :             } else { // fixup red-red in right subtree

  00115	e9 af 00 00 00	 jmp	 $LN81@Insert_nod
$LN10@Insert_nod:

; 715  :                 const auto _Parent_sibling = _Pnode->_Parent->_Parent->_Left;
; 716  :                 if (_Parent_sibling->_Color == _Red) { // parent's sibling has two red children, blacken both

  0011a	80 79 0c 00	 cmp	 BYTE PTR [ecx+12], 0
  0011e	75 1d		 jne	 SHORT $LN15@Insert_nod
$LN82@Insert_nod:

; 693  :             }
; 694  :         }
; 695  : 
; 696  :         for (_Nodeptr _Pnode = _Newnode; _Pnode->_Parent->_Color == _Red;) {

  00120	c6 42 0c 01	 mov	 BYTE PTR [edx+12], 1
  00124	c6 41 0c 01	 mov	 BYTE PTR [ecx+12], 1
  00128	8b 48 04	 mov	 ecx, DWORD PTR [eax+4]
  0012b	8b 49 04	 mov	 ecx, DWORD PTR [ecx+4]
  0012e	c6 41 0c 00	 mov	 BYTE PTR [ecx+12], 0
  00132	8b 48 04	 mov	 ecx, DWORD PTR [eax+4]
  00135	8b 41 04	 mov	 eax, DWORD PTR [ecx+4]
  00138	e9 8f 00 00 00	 jmp	 $LN2@Insert_nod
$LN15@Insert_nod:

; 717  :                     _Pnode->_Parent->_Color          = _Black;
; 718  :                     _Parent_sibling->_Color          = _Black;
; 719  :                     _Pnode->_Parent->_Parent->_Color = _Red;
; 720  :                     _Pnode                           = _Pnode->_Parent->_Parent;
; 721  :                 } else { // parent's sibling has red and black children
; 722  :                     if (_Pnode == _Pnode->_Parent->_Left) { // rotate left child to right

  0013d	8b 32		 mov	 esi, DWORD PTR [edx]
  0013f	3b c6		 cmp	 eax, esi
  00141	75 3a		 jne	 SHORT $LN42@Insert_nod

; 507  :         _Wherenode->_Left = _Pnode->_Right;

  00143	8b 4e 08	 mov	 ecx, DWORD PTR [esi+8]

; 723  :                         _Pnode = _Pnode->_Parent;

  00146	8b c2		 mov	 eax, edx

; 507  :         _Wherenode->_Left = _Pnode->_Right;

  00148	89 08		 mov	 DWORD PTR [eax], ecx

; 508  : 
; 509  :         if (!_Pnode->_Right->_Isnil) {

  0014a	8b 4e 08	 mov	 ecx, DWORD PTR [esi+8]
  0014d	80 79 0d 00	 cmp	 BYTE PTR [ecx+13], 0
  00151	75 03		 jne	 SHORT $LN37@Insert_nod

; 510  :             _Pnode->_Right->_Parent = _Wherenode;

  00153	89 41 04	 mov	 DWORD PTR [ecx+4], eax
$LN37@Insert_nod:

; 511  :         }
; 512  : 
; 513  :         _Pnode->_Parent = _Wherenode->_Parent;

  00156	8b 4a 04	 mov	 ecx, DWORD PTR [edx+4]
  00159	89 4e 04	 mov	 DWORD PTR [esi+4], ecx

; 514  : 
; 515  :         if (_Wherenode == _Myhead->_Parent) {

  0015c	8b 0b		 mov	 ecx, DWORD PTR [ebx]
  0015e	3b 41 04	 cmp	 eax, DWORD PTR [ecx+4]
  00161	75 05		 jne	 SHORT $LN38@Insert_nod

; 516  :             _Myhead->_Parent = _Pnode;

  00163	89 71 04	 mov	 DWORD PTR [ecx+4], esi
  00166	eb 0f		 jmp	 SHORT $LN41@Insert_nod
$LN38@Insert_nod:

; 517  :         } else if (_Wherenode == _Wherenode->_Parent->_Right) {

  00168	8b 4a 04	 mov	 ecx, DWORD PTR [edx+4]
  0016b	3b 41 08	 cmp	 eax, DWORD PTR [ecx+8]
  0016e	75 05		 jne	 SHORT $LN40@Insert_nod

; 518  :             _Wherenode->_Parent->_Right = _Pnode;

  00170	89 71 08	 mov	 DWORD PTR [ecx+8], esi

; 519  :         } else {

  00173	eb 02		 jmp	 SHORT $LN41@Insert_nod
$LN40@Insert_nod:

; 520  :             _Wherenode->_Parent->_Left = _Pnode;

  00175	89 31		 mov	 DWORD PTR [ecx], esi
$LN41@Insert_nod:

; 521  :         }
; 522  : 
; 523  :         _Pnode->_Right      = _Wherenode;

  00177	89 46 08	 mov	 DWORD PTR [esi+8], eax

; 524  :         _Wherenode->_Parent = _Pnode;

  0017a	89 70 04	 mov	 DWORD PTR [eax+4], esi
$LN42@Insert_nod:

; 724  :                         _Rrotate(_Pnode);
; 725  :                     }
; 726  : 
; 727  :                     _Pnode->_Parent->_Color          = _Black; // propagate red up

  0017d	8b 48 04	 mov	 ecx, DWORD PTR [eax+4]
  00180	c6 41 0c 01	 mov	 BYTE PTR [ecx+12], 1

; 728  :                     _Pnode->_Parent->_Parent->_Color = _Red;

  00184	8b 48 04	 mov	 ecx, DWORD PTR [eax+4]
  00187	8b 49 04	 mov	 ecx, DWORD PTR [ecx+4]
  0018a	c6 41 0c 00	 mov	 BYTE PTR [ecx+12], 0

; 729  :                     _Lrotate(_Pnode->_Parent->_Parent);

  0018e	8b 48 04	 mov	 ecx, DWORD PTR [eax+4]
  00191	8b 51 04	 mov	 edx, DWORD PTR [ecx+4]

; 484  :         _Nodeptr _Pnode    = _Wherenode->_Right;

  00194	8b 72 08	 mov	 esi, DWORD PTR [edx+8]

; 485  :         _Wherenode->_Right = _Pnode->_Left;

  00197	8b 0e		 mov	 ecx, DWORD PTR [esi]
  00199	89 4a 08	 mov	 DWORD PTR [edx+8], ecx

; 486  : 
; 487  :         if (!_Pnode->_Left->_Isnil) {

  0019c	8b 0e		 mov	 ecx, DWORD PTR [esi]
  0019e	80 79 0d 00	 cmp	 BYTE PTR [ecx+13], 0
  001a2	75 03		 jne	 SHORT $LN45@Insert_nod

; 488  :             _Pnode->_Left->_Parent = _Wherenode;

  001a4	89 51 04	 mov	 DWORD PTR [ecx+4], edx
$LN45@Insert_nod:

; 489  :         }
; 490  : 
; 491  :         _Pnode->_Parent = _Wherenode->_Parent;

  001a7	8b 4a 04	 mov	 ecx, DWORD PTR [edx+4]
  001aa	89 4e 04	 mov	 DWORD PTR [esi+4], ecx

; 492  : 
; 493  :         if (_Wherenode == _Myhead->_Parent) {

  001ad	8b 0b		 mov	 ecx, DWORD PTR [ebx]
  001af	3b 51 04	 cmp	 edx, DWORD PTR [ecx+4]
  001b2	75 05		 jne	 SHORT $LN46@Insert_nod

; 494  :             _Myhead->_Parent = _Pnode;

  001b4	89 71 04	 mov	 DWORD PTR [ecx+4], esi
  001b7	eb 0e		 jmp	 SHORT $LN49@Insert_nod
$LN46@Insert_nod:

; 495  :         } else if (_Wherenode == _Wherenode->_Parent->_Left) {

  001b9	8b 4a 04	 mov	 ecx, DWORD PTR [edx+4]
  001bc	3b 11		 cmp	 edx, DWORD PTR [ecx]
  001be	75 04		 jne	 SHORT $LN48@Insert_nod

; 496  :             _Wherenode->_Parent->_Left = _Pnode;

  001c0	89 31		 mov	 DWORD PTR [ecx], esi

; 497  :         } else {

  001c2	eb 03		 jmp	 SHORT $LN49@Insert_nod
$LN48@Insert_nod:

; 498  :             _Wherenode->_Parent->_Right = _Pnode;

  001c4	89 71 08	 mov	 DWORD PTR [ecx+8], esi
$LN49@Insert_nod:

; 499  :         }
; 500  : 
; 501  :         _Pnode->_Left       = _Wherenode;

  001c7	89 16		 mov	 DWORD PTR [esi], edx
$LN81@Insert_nod:

; 693  :             }
; 694  :         }
; 695  : 
; 696  :         for (_Nodeptr _Pnode = _Newnode; _Pnode->_Parent->_Color == _Red;) {

  001c9	89 72 04	 mov	 DWORD PTR [edx+4], esi
$LN2@Insert_nod:
  001cc	8b 48 04	 mov	 ecx, DWORD PTR [eax+4]
  001cf	80 79 0c 00	 cmp	 BYTE PTR [ecx+12], 0
  001d3	0f 84 87 fe ff
	ff		 je	 $LL4@Insert_nod
  001d9	5e		 pop	 esi
$LN3@Insert_nod:

; 730  :                 }
; 731  :             }
; 732  :         }
; 733  : 
; 734  :         _Head->_Parent->_Color = _Black; // root is always black

  001da	8b 45 fc	 mov	 eax, DWORD PTR __Head$1$[ebp]
  001dd	8b 40 04	 mov	 eax, DWORD PTR [eax+4]
  001e0	c6 40 0c 01	 mov	 BYTE PTR [eax+12], 1

; 735  :         return _Newnode;
; 736  :     }

  001e4	8b c7		 mov	 eax, edi
  001e6	5f		 pop	 edi
  001e7	5b		 pop	 ebx
  001e8	8b e5		 mov	 esp, ebp
  001ea	5d		 pop	 ebp
  001eb	c2 0c 00	 ret	 12			; 0000000cH
?_Insert_node@?$_Tree_val@U?$_Tree_simple_types@U?$pair@$$CBKP8CDPLoginSrvr@@AEXAAVCAr@@KPAEK@Z@std@@@std@@@std@@QAEPAU?$_Tree_node@U?$pair@$$CBKP8CDPLoginSrvr@@AEXAAVCAr@@KPAEK@Z@std@@PAX@2@U?$_Tree_id@PAU?$_Tree_node@U?$pair@$$CBKP8CDPLoginSrvr@@AEXAAVCAr@@KPAEK@Z@std@@PAX@std@@@2@QAU32@@Z ENDP ; std::_Tree_val<std::_Tree_simple_types<std::pair<unsigned long const ,void (__thiscall CDPLoginSrvr::*)(CAr &,unsigned long,unsigned char *,unsigned long)> > >::_Insert_node
_TEXT	ENDS
; Function compile flags: /Ogtp
; File C:\Program Files\Microsoft Visual Studio\2022\Professional\VC\Tools\MSVC\14.44.35207\include\xtree
; File C:\Program Files\Microsoft Visual Studio\2022\Professional\VC\Tools\MSVC\14.44.35207\include\utility
; File C:\Program Files\Microsoft Visual Studio\2022\Professional\VC\Tools\MSVC\14.44.35207\include\xmemory
; File C:\Program Files\Microsoft Visual Studio\2022\Professional\VC\Tools\MSVC\14.44.35207\include\xtree
; File C:\Program Files\Microsoft Visual Studio\2022\Professional\VC\Tools\MSVC\14.44.35207\include\xmemory
; File C:\Program Files\Microsoft Visual Studio\2022\Professional\VC\Tools\MSVC\14.44.35207\include\xtree
;	COMDAT ??1?$_Tree@V?$_Tmap_traits@KP8CDPLoginSrvr@@AEXAAVCAr@@KPAEK@ZU?$less@K@std@@V?$allocator@U?$pair@$$CBKP8CDPLoginSrvr@@AEXAAVCAr@@KPAEK@Z@std@@@4@$0A@@std@@@std@@QAE@XZ
_TEXT	SEGMENT
??1?$_Tree@V?$_Tmap_traits@KP8CDPLoginSrvr@@AEXAAVCAr@@KPAEK@ZU?$less@K@std@@V?$allocator@U?$pair@$$CBKP8CDPLoginSrvr@@AEXAAVCAr@@KPAEK@Z@std@@@4@$0A@@std@@@std@@QAE@XZ PROC ; std::_Tree<std::_Tmap_traits<unsigned long,void (__thiscall CDPLoginSrvr::*)(CAr &,unsigned long,unsigned char *,unsigned long),std::less<unsigned long>,std::allocator<std::pair<unsigned long const ,void (__thiscall CDPLoginSrvr::*)(CAr &,unsigned long,unsigned char *,unsigned long)> >,0> >::~_Tree<std::_Tmap_traits<unsigned long,void (__thiscall CDPLoginSrvr::*)(CAr &,unsigned long,unsigned char *,unsigned long),std::less<unsigned long>,std::allocator<std::pair<unsigned long const ,void (__thiscall CDPLoginSrvr::*)(CAr &,unsigned long,unsigned char *,unsigned long)> >,0> >, COMDAT
; _this$ = ecx

; 1095 :     ~_Tree() noexcept {

  00000	56		 push	 esi
  00001	57		 push	 edi
  00002	8b f9		 mov	 edi, ecx

; 777  :         _Erase_tree(_Al, _Myhead->_Parent);

  00004	8b 37		 mov	 esi, DWORD PTR [edi]
  00006	8b 76 04	 mov	 esi, DWORD PTR [esi+4]

; 768  :         while (!_Rootnode->_Isnil) { // free subtrees, then node

  00009	80 7e 0d 00	 cmp	 BYTE PTR [esi+13], 0
  0000d	75 21		 jne	 SHORT $LN61@Tree
  0000f	90		 npad	 1
$LL8@Tree:

; 769  :             _Erase_tree(_Al, _Rootnode->_Right);

  00010	ff 76 08	 push	 DWORD PTR [esi+8]
  00013	8b cf		 mov	 ecx, edi
  00015	57		 push	 edi
  00016	e8 00 00 00 00	 call	 ??$_Erase_tree@V?$allocator@U?$_Tree_node@U?$pair@$$CBKP8CDPLoginSrvr@@AEXAAVCAr@@KPAEK@Z@std@@PAX@std@@@std@@@?$_Tree_val@U?$_Tree_simple_types@U?$pair@$$CBKP8CDPLoginSrvr@@AEXAAVCAr@@KPAEK@Z@std@@@std@@@std@@QAEXAAV?$allocator@U?$_Tree_node@U?$pair@$$CBKP8CDPLoginSrvr@@AEXAAVCAr@@KPAEK@Z@std@@PAX@std@@@1@PAU?$_Tree_node@U?$pair@$$CBKP8CDPLoginSrvr@@AEXAAVCAr@@KPAEK@Z@std@@PAX@1@@Z ; std::_Tree_val<std::_Tree_simple_types<std::pair<unsigned long const ,void (__thiscall CDPLoginSrvr::*)(CAr &,unsigned long,unsigned char *,unsigned long)> > >::_Erase_tree<std::allocator<std::_Tree_node<std::pair<unsigned long const ,void (__thiscall CDPLoginSrvr::*)(CAr &,unsigned long,unsigned char *,unsigned long)>,void *> > >
; File C:\Program Files\Microsoft Visual Studio\2022\Professional\VC\Tools\MSVC\14.44.35207\include\utility

; 773  :     _Ty _Old_val = static_cast<_Ty&&>(_Val);

  0001b	8b c6		 mov	 eax, esi

; 774  :     _Val         = static_cast<_Other&&>(_New_val);

  0001d	8b 36		 mov	 esi, DWORD PTR [esi]
; File C:\Program Files\Microsoft Visual Studio\2022\Professional\VC\Tools\MSVC\14.44.35207\include\xmemory

; 289  :         ::operator delete(_Ptr, _Bytes);

  0001f	6a 18		 push	 24			; 00000018H
  00021	50		 push	 eax
  00022	e8 00 00 00 00	 call	 ??3@YAXPAXI@Z		; operator delete
  00027	83 c4 08	 add	 esp, 8
; File C:\Program Files\Microsoft Visual Studio\2022\Professional\VC\Tools\MSVC\14.44.35207\include\xtree

; 768  :         while (!_Rootnode->_Isnil) { // free subtrees, then node

  0002a	80 7e 0d 00	 cmp	 BYTE PTR [esi+13], 0
  0002e	74 e0		 je	 SHORT $LL8@Tree
$LN61@Tree:
; File C:\Program Files\Microsoft Visual Studio\2022\Professional\VC\Tools\MSVC\14.44.35207\include\xmemory

; 289  :         ::operator delete(_Ptr, _Bytes);

  00030	6a 18		 push	 24			; 00000018H
  00032	ff 37		 push	 DWORD PTR [edi]
  00034	e8 00 00 00 00	 call	 ??3@YAXPAXI@Z		; operator delete
  00039	83 c4 08	 add	 esp, 8
  0003c	5f		 pop	 edi
  0003d	5e		 pop	 esi
; File C:\Program Files\Microsoft Visual Studio\2022\Professional\VC\Tools\MSVC\14.44.35207\include\xtree

; 1102 :     }

  0003e	c3		 ret	 0
??1?$_Tree@V?$_Tmap_traits@KP8CDPLoginSrvr@@AEXAAVCAr@@KPAEK@ZU?$less@K@std@@V?$allocator@U?$pair@$$CBKP8CDPLoginSrvr@@AEXAAVCAr@@KPAEK@Z@std@@@4@$0A@@std@@@std@@QAE@XZ ENDP ; std::_Tree<std::_Tmap_traits<unsigned long,void (__thiscall CDPLoginSrvr::*)(CAr &,unsigned long,unsigned char *,unsigned long),std::less<unsigned long>,std::allocator<std::pair<unsigned long const ,void (__thiscall CDPLoginSrvr::*)(CAr &,unsigned long,unsigned char *,unsigned long)> >,0> >::~_Tree<std::_Tmap_traits<unsigned long,void (__thiscall CDPLoginSrvr::*)(CAr &,unsigned long,unsigned char *,unsigned long),std::less<unsigned long>,std::allocator<std::pair<unsigned long const ,void (__thiscall CDPLoginSrvr::*)(CAr &,unsigned long,unsigned char *,unsigned long)> >,0> >
_TEXT	ENDS
; Function compile flags: /Ogtp
; File C:\IAGOS\server\v18\Source\Source\DatabaseServer\DPLoginSrvr.cpp
;	COMDAT ?OnRemoveConnection@CDPLoginSrvr@@QAEXK@Z
_TEXT	SEGMENT
_dpid$ = 8						; size = 4
?OnRemoveConnection@CDPLoginSrvr@@QAEXK@Z PROC		; CDPLoginSrvr::OnRemoveConnection, COMDAT
; _this$ = ecx

; 77   : {

  00000	55		 push	 ebp
  00001	8b ec		 mov	 ebp, esp

; 78   : 	if( s_dpid == dpid )

  00003	a1 00 00 00 00	 mov	 eax, DWORD PTR ?s_dpid@@3KA ; s_dpid
  00008	3b 45 08	 cmp	 eax, DWORD PTR _dpid$[ebp]
  0000b	75 14		 jne	 SHORT $LN2@OnRemoveCo

; 79   : 	{
; 80   : 		g_dpAccountClient.SendRemoveAllAccounts();

  0000d	b9 00 00 00 00	 mov	 ecx, OFFSET ?g_dpAccountClient@@3VCDPAccountClient@@A ; g_dpAccountClient
  00012	e8 00 00 00 00	 call	 ?SendRemoveAllAccounts@CDPAccountClient@@QAEXXZ ; CDPAccountClient::SendRemoveAllAccounts

; 81   : 		s_dpid	= 0xFFFFFFFF;

  00017	c7 05 00 00 00
	00 ff ff ff ff	 mov	 DWORD PTR ?s_dpid@@3KA, -1 ; s_dpid
$LN2@OnRemoveCo:

; 82   : 	}
; 83   : }

  00021	5d		 pop	 ebp
  00022	c2 04 00	 ret	 4
?OnRemoveConnection@CDPLoginSrvr@@QAEXK@Z ENDP		; CDPLoginSrvr::OnRemoveConnection
_TEXT	ENDS
; Function compile flags: /Ogtp
; File C:\IAGOS\server\v18\Source\Source\DatabaseServer\DPLoginSrvr.cpp
;	COMDAT ?OnAddConnection@CDPLoginSrvr@@QAEXK@Z
_TEXT	SEGMENT
_dpid$ = 8						; size = 4
?OnAddConnection@CDPLoginSrvr@@QAEXK@Z PROC		; CDPLoginSrvr::OnAddConnection, COMDAT
; _this$ = ecx

; 71   : {

  00000	55		 push	 ebp
  00001	8b ec		 mov	 ebp, esp

; 72   : 	if( s_dpid == 0xFFFFFFFF )

  00003	83 3d 00 00 00
	00 ff		 cmp	 DWORD PTR ?s_dpid@@3KA, -1 ; s_dpid
  0000a	75 08		 jne	 SHORT $LN2@OnAddConne

; 73   : 		s_dpid	= dpid;

  0000c	8b 45 08	 mov	 eax, DWORD PTR _dpid$[ebp]
  0000f	a3 00 00 00 00	 mov	 DWORD PTR ?s_dpid@@3KA, eax ; s_dpid
$LN2@OnAddConne:

; 74   : }

  00014	5d		 pop	 ebp
  00015	c2 04 00	 ret	 4
?OnAddConnection@CDPLoginSrvr@@QAEXK@Z ENDP		; CDPLoginSrvr::OnAddConnection
_TEXT	ENDS
; Function compile flags: /Ogtp
; File C:\IAGOS\server\v18\Source\Source\DatabaseServer\DPLoginSrvr.cpp
; File C:\IAGOS\server\v18\Source\Source\_Network\Net\Include\DPMng.h
; File C:\IAGOS\server\v18\Source\Source\DatabaseServer\DPLoginSrvr.cpp
;	COMDAT ?SendOneHourNotify@CDPLoginSrvr@@QAEXPBD@Z
_TEXT	SEGMENT
_nBufSize$ = -16432					; size = 4
$T2 = -16428						; size = 4
$T3 = -16424						; size = 4
_ar$ = -16420						; size = 16404
__$ArrayPad$ = -16					; size = 4
__$EHRec$ = -12						; size = 12
_lpszAccount$ = 8					; size = 4
?SendOneHourNotify@CDPLoginSrvr@@QAEXPBD@Z PROC		; CDPLoginSrvr::SendOneHourNotify, COMDAT
; _this$ = ecx

; 109  : {

  00000	55		 push	 ebp
  00001	8b ec		 mov	 ebp, esp
  00003	6a ff		 push	 -1
  00005	68 00 00 00 00	 push	 __ehhandler$?SendOneHourNotify@CDPLoginSrvr@@QAEXPBD@Z
  0000a	64 a1 00 00 00
	00		 mov	 eax, DWORD PTR fs:0
  00010	50		 push	 eax
  00011	b8 24 40 00 00	 mov	 eax, 16420		; 00004024H
  00016	e8 00 00 00 00	 call	 __chkstk
  0001b	a1 00 00 00 00	 mov	 eax, DWORD PTR ___security_cookie
  00020	33 c5		 xor	 eax, ebp
  00022	89 45 f0	 mov	 DWORD PTR __$ArrayPad$[ebp], eax
  00025	56		 push	 esi
  00026	57		 push	 edi
  00027	50		 push	 eax
  00028	8d 45 f4	 lea	 eax, DWORD PTR __$EHRec$[ebp]
  0002b	64 a3 00 00 00
	00		 mov	 DWORD PTR fs:0, eax
  00031	8b f9		 mov	 edi, ecx
  00033	8b 75 08	 mov	 esi, DWORD PTR _lpszAccount$[ebp]

; 110  : 	BEFORESENDSOLE( ar, PACKETTYPE_ONE_HOUR_NOTIFY, DPID_UNKNOWN );

  00036	8d 8d dc bf ff
	ff		 lea	 ecx, DWORD PTR _ar$[ebp]
  0003c	6a 00		 push	 0
  0003e	6a 00		 push	 0
  00040	e8 00 00 00 00	 call	 ??0CAr@@QAE@PAXI@Z	; CAr::CAr
  00045	8d 85 d8 bf ff
	ff		 lea	 eax, DWORD PTR $T3[ebp]
  0004b	c7 45 fc 00 00
	00 00		 mov	 DWORD PTR __$EHRec$[ebp+8], 0
  00052	50		 push	 eax
  00053	8d 85 d4 bf ff
	ff		 lea	 eax, DWORD PTR $T2[ebp]
  00059	c7 85 d8 bf ff
	ff 17 00 00 00	 mov	 DWORD PTR $T3[ebp], 23	; 00000017H
  00063	50		 push	 eax
  00064	8d 8d dc bf ff
	ff		 lea	 ecx, DWORD PTR _ar$[ebp]
  0006a	c7 85 d4 bf ff
	ff ff ff ff ff	 mov	 DWORD PTR $T2[ebp], -1
  00074	e8 00 00 00 00	 call	 ??$?6I@CAr@@QAEAAV0@ABI@Z ; CAr::operator<<<unsigned int>
  00079	8b c8		 mov	 ecx, eax
  0007b	e8 00 00 00 00	 call	 ??$?6K@CAr@@QAEAAV0@ABK@Z ; CAr::operator<<<unsigned long>

; 111  : 	ar.WriteString( lpszAccount );

  00080	56		 push	 esi
  00081	8d 8d dc bf ff
	ff		 lea	 ecx, DWORD PTR _ar$[ebp]
  00087	e8 00 00 00 00	 call	 ?WriteString@CAr@@QAEXPBD@Z ; CAr::WriteString

; 112  : 	SEND( ar, this, DPID_ALLPLAYERS );

  0008c	8d 85 d0 bf ff
	ff		 lea	 eax, DWORD PTR _nBufSize$[ebp]
  00092	50		 push	 eax
  00093	8d 8d dc bf ff
	ff		 lea	 ecx, DWORD PTR _ar$[ebp]
  00099	e8 00 00 00 00	 call	 ?GetBuffer@CAr@@QAEPAEPAH@Z ; CAr::GetBuffer
; File C:\IAGOS\server\v18\Source\Source\_Network\Net\Include\DPMng.h

; 171  : 	if( !m_pDPSock )

  0009e	8b 4f 04	 mov	 ecx, DWORD PTR [edi+4]
  000a1	85 c9		 test	 ecx, ecx
  000a3	74 0e		 je	 SHORT $LN4@SendOneHou

; 172  : 		return FALSE;
; 173  : 	return m_pDPSock->Send( (char*)lpData, dwDataSize, dpidTo );

  000a5	6a 00		 push	 0
  000a7	ff b5 d0 bf ff
	ff		 push	 DWORD PTR _nBufSize$[ebp]
  000ad	50		 push	 eax
  000ae	e8 00 00 00 00	 call	 ?Send@CDPSock@@QAEHPADKK@Z ; CDPSock::Send
$LN4@SendOneHou:
; File C:\IAGOS\server\v18\Source\Source\DatabaseServer\DPLoginSrvr.cpp

; 113  : }

  000b3	8d 8d dc bf ff
	ff		 lea	 ecx, DWORD PTR _ar$[ebp]
  000b9	e8 00 00 00 00	 call	 ??1CAr@@QAE@XZ		; CAr::~CAr
  000be	8b 4d f4	 mov	 ecx, DWORD PTR __$EHRec$[ebp]
  000c1	64 89 0d 00 00
	00 00		 mov	 DWORD PTR fs:0, ecx
  000c8	59		 pop	 ecx
  000c9	5f		 pop	 edi
  000ca	5e		 pop	 esi
  000cb	8b 4d f0	 mov	 ecx, DWORD PTR __$ArrayPad$[ebp]
  000ce	33 cd		 xor	 ecx, ebp
  000d0	e8 00 00 00 00	 call	 @__security_check_cookie@4
  000d5	8b e5		 mov	 esp, ebp
  000d7	5d		 pop	 ebp
  000d8	c2 04 00	 ret	 4
_TEXT	ENDS
;	COMDAT text$x
text$x	SEGMENT
__unwindfunclet$?SendOneHourNotify@CDPLoginSrvr@@QAEXPBD@Z$0:
  00000	8d 8d dc bf ff
	ff		 lea	 ecx, DWORD PTR _ar$[ebp]
  00006	e9 00 00 00 00	 jmp	 ??1CAr@@QAE@XZ		; CAr::~CAr
  0000b	cc		 int	 3
  0000c	cc		 int	 3
  0000d	cc		 int	 3
  0000e	cc		 int	 3
  0000f	cc		 int	 3
__ehhandler$?SendOneHourNotify@CDPLoginSrvr@@QAEXPBD@Z:
  00010	90		 npad	 1
  00011	90		 npad	 1
  00012	8b 54 24 08	 mov	 edx, DWORD PTR [esp+8]
  00016	8d 42 0c	 lea	 eax, DWORD PTR [edx+12]
  00019	8b 8a d0 bf ff
	ff		 mov	 ecx, DWORD PTR [edx-16432]
  0001f	33 c8		 xor	 ecx, eax
  00021	e8 00 00 00 00	 call	 @__security_check_cookie@4
  00026	8b 4a fc	 mov	 ecx, DWORD PTR [edx-4]
  00029	33 c8		 xor	 ecx, eax
  0002b	e8 00 00 00 00	 call	 @__security_check_cookie@4
  00030	b8 00 00 00 00	 mov	 eax, OFFSET __ehfuncinfo$?SendOneHourNotify@CDPLoginSrvr@@QAEXPBD@Z
  00035	e9 00 00 00 00	 jmp	 ___CxxFrameHandler3
text$x	ENDS
?SendOneHourNotify@CDPLoginSrvr@@QAEXPBD@Z ENDP		; CDPLoginSrvr::SendOneHourNotify
; Function compile flags: /Ogtp
; File C:\IAGOS\server\v18\Source\Source\DatabaseServer\DPLoginSrvr.cpp
; File C:\IAGOS\server\v18\Source\Source\_Network\Net\Include\DPMng.h
; File C:\IAGOS\server\v18\Source\Source\DatabaseServer\DPLoginSrvr.cpp
;	COMDAT ?SendFail@CDPLoginSrvr@@QAEXJPBD@Z
_TEXT	SEGMENT
_nBufSize$ = -16432					; size = 4
$T2 = -16428						; size = 4
$T3 = -16424						; size = 4
_ar$ = -16420						; size = 16404
__$ArrayPad$ = -16					; size = 4
__$EHRec$ = -12						; size = 12
_lError$ = 8						; size = 4
_lpszAccount$ = 12					; size = 4
?SendFail@CDPLoginSrvr@@QAEXJPBD@Z PROC			; CDPLoginSrvr::SendFail, COMDAT
; _this$ = ecx

; 93   : {

  00000	55		 push	 ebp
  00001	8b ec		 mov	 ebp, esp
  00003	6a ff		 push	 -1
  00005	68 00 00 00 00	 push	 __ehhandler$?SendFail@CDPLoginSrvr@@QAEXJPBD@Z
  0000a	64 a1 00 00 00
	00		 mov	 eax, DWORD PTR fs:0
  00010	50		 push	 eax
  00011	b8 24 40 00 00	 mov	 eax, 16420		; 00004024H
  00016	e8 00 00 00 00	 call	 __chkstk
  0001b	a1 00 00 00 00	 mov	 eax, DWORD PTR ___security_cookie
  00020	33 c5		 xor	 eax, ebp
  00022	89 45 f0	 mov	 DWORD PTR __$ArrayPad$[ebp], eax
  00025	56		 push	 esi
  00026	57		 push	 edi
  00027	50		 push	 eax
  00028	8d 45 f4	 lea	 eax, DWORD PTR __$EHRec$[ebp]
  0002b	64 a3 00 00 00
	00		 mov	 DWORD PTR fs:0, eax
  00031	8b f9		 mov	 edi, ecx
  00033	8b 75 0c	 mov	 esi, DWORD PTR _lpszAccount$[ebp]

; 94   : 	BEFORESENDSOLE( ar, PACKETTYPE_FAIL, DPID_UNKNOWN );

  00036	8d 8d dc bf ff
	ff		 lea	 ecx, DWORD PTR _ar$[ebp]
  0003c	6a 00		 push	 0
  0003e	6a 00		 push	 0
  00040	e8 00 00 00 00	 call	 ??0CAr@@QAE@PAXI@Z	; CAr::CAr
  00045	8d 85 d8 bf ff
	ff		 lea	 eax, DWORD PTR $T3[ebp]
  0004b	c7 45 fc 00 00
	00 00		 mov	 DWORD PTR __$EHRec$[ebp+8], 0
  00052	50		 push	 eax
  00053	8d 85 d4 bf ff
	ff		 lea	 eax, DWORD PTR $T2[ebp]
  00059	c7 85 d8 bf ff
	ff f5 0f 00 00	 mov	 DWORD PTR $T3[ebp], 4085 ; 00000ff5H
  00063	50		 push	 eax
  00064	8d 8d dc bf ff
	ff		 lea	 ecx, DWORD PTR _ar$[ebp]
  0006a	c7 85 d4 bf ff
	ff ff ff ff ff	 mov	 DWORD PTR $T2[ebp], -1
  00074	e8 00 00 00 00	 call	 ??$?6I@CAr@@QAEAAV0@ABI@Z ; CAr::operator<<<unsigned int>
  00079	8b c8		 mov	 ecx, eax
  0007b	e8 00 00 00 00	 call	 ??$?6K@CAr@@QAEAAV0@ABK@Z ; CAr::operator<<<unsigned long>

; 95   : 	ar << lError;

  00080	8d 45 08	 lea	 eax, DWORD PTR _lError$[ebp]
  00083	50		 push	 eax
  00084	8d 8d dc bf ff
	ff		 lea	 ecx, DWORD PTR _ar$[ebp]
  0008a	e8 00 00 00 00	 call	 ??$?6J@CAr@@QAEAAV0@ABJ@Z ; CAr::operator<<<long>

; 96   : 	ar.WriteString( lpszAccount );

  0008f	56		 push	 esi
  00090	8d 8d dc bf ff
	ff		 lea	 ecx, DWORD PTR _ar$[ebp]
  00096	e8 00 00 00 00	 call	 ?WriteString@CAr@@QAEXPBD@Z ; CAr::WriteString

; 97   : 	SEND( ar, this, DPID_ALLPLAYERS );

  0009b	8d 85 d0 bf ff
	ff		 lea	 eax, DWORD PTR _nBufSize$[ebp]
  000a1	50		 push	 eax
  000a2	8d 8d dc bf ff
	ff		 lea	 ecx, DWORD PTR _ar$[ebp]
  000a8	e8 00 00 00 00	 call	 ?GetBuffer@CAr@@QAEPAEPAH@Z ; CAr::GetBuffer
; File C:\IAGOS\server\v18\Source\Source\_Network\Net\Include\DPMng.h

; 171  : 	if( !m_pDPSock )

  000ad	8b 4f 04	 mov	 ecx, DWORD PTR [edi+4]
  000b0	85 c9		 test	 ecx, ecx
  000b2	74 0e		 je	 SHORT $LN4@SendFail

; 172  : 		return FALSE;
; 173  : 	return m_pDPSock->Send( (char*)lpData, dwDataSize, dpidTo );

  000b4	6a 00		 push	 0
  000b6	ff b5 d0 bf ff
	ff		 push	 DWORD PTR _nBufSize$[ebp]
  000bc	50		 push	 eax
  000bd	e8 00 00 00 00	 call	 ?Send@CDPSock@@QAEHPADKK@Z ; CDPSock::Send
$LN4@SendFail:
; File C:\IAGOS\server\v18\Source\Source\DatabaseServer\DPLoginSrvr.cpp

; 98   : }

  000c2	8d 8d dc bf ff
	ff		 lea	 ecx, DWORD PTR _ar$[ebp]
  000c8	e8 00 00 00 00	 call	 ??1CAr@@QAE@XZ		; CAr::~CAr
  000cd	8b 4d f4	 mov	 ecx, DWORD PTR __$EHRec$[ebp]
  000d0	64 89 0d 00 00
	00 00		 mov	 DWORD PTR fs:0, ecx
  000d7	59		 pop	 ecx
  000d8	5f		 pop	 edi
  000d9	5e		 pop	 esi
  000da	8b 4d f0	 mov	 ecx, DWORD PTR __$ArrayPad$[ebp]
  000dd	33 cd		 xor	 ecx, ebp
  000df	e8 00 00 00 00	 call	 @__security_check_cookie@4
  000e4	8b e5		 mov	 esp, ebp
  000e6	5d		 pop	 ebp
  000e7	c2 08 00	 ret	 8
_TEXT	ENDS
;	COMDAT text$x
text$x	SEGMENT
__unwindfunclet$?SendFail@CDPLoginSrvr@@QAEXJPBD@Z$0:
  00000	8d 8d dc bf ff
	ff		 lea	 ecx, DWORD PTR _ar$[ebp]
  00006	e9 00 00 00 00	 jmp	 ??1CAr@@QAE@XZ		; CAr::~CAr
  0000b	cc		 int	 3
  0000c	cc		 int	 3
  0000d	cc		 int	 3
  0000e	cc		 int	 3
  0000f	cc		 int	 3
__ehhandler$?SendFail@CDPLoginSrvr@@QAEXJPBD@Z:
  00010	90		 npad	 1
  00011	90		 npad	 1
  00012	8b 54 24 08	 mov	 edx, DWORD PTR [esp+8]
  00016	8d 42 0c	 lea	 eax, DWORD PTR [edx+12]
  00019	8b 8a d0 bf ff
	ff		 mov	 ecx, DWORD PTR [edx-16432]
  0001f	33 c8		 xor	 ecx, eax
  00021	e8 00 00 00 00	 call	 @__security_check_cookie@4
  00026	8b 4a fc	 mov	 ecx, DWORD PTR [edx-4]
  00029	33 c8		 xor	 ecx, eax
  0002b	e8 00 00 00 00	 call	 @__security_check_cookie@4
  00030	b8 00 00 00 00	 mov	 eax, OFFSET __ehfuncinfo$?SendFail@CDPLoginSrvr@@QAEXJPBD@Z
  00035	e9 00 00 00 00	 jmp	 ___CxxFrameHandler3
text$x	ENDS
?SendFail@CDPLoginSrvr@@QAEXJPBD@Z ENDP			; CDPLoginSrvr::SendFail
; Function compile flags: /Ogtp
; File C:\IAGOS\server\v18\Source\Source\DatabaseServer\DPLoginSrvr.cpp
; File C:\IAGOS\server\v18\Source\Source\_Network\Net\Include\DPMng.h
; File C:\IAGOS\server\v18\Source\Source\DatabaseServer\DPLoginSrvr.cpp
;	COMDAT ?SendCloseExistingConnection@CDPLoginSrvr@@QAEXPBDJ@Z
_TEXT	SEGMENT
_nBufSize$ = -16432					; size = 4
$T2 = -16428						; size = 4
$T3 = -16424						; size = 4
_ar$ = -16420						; size = 16404
__$ArrayPad$ = -16					; size = 4
__$EHRec$ = -12						; size = 12
_lpszAccount$ = 8					; size = 4
_lError$ = 12						; size = 4
?SendCloseExistingConnection@CDPLoginSrvr@@QAEXPBDJ@Z PROC ; CDPLoginSrvr::SendCloseExistingConnection, COMDAT
; _this$ = ecx

; 101  : {

  00000	55		 push	 ebp
  00001	8b ec		 mov	 ebp, esp
  00003	6a ff		 push	 -1
  00005	68 00 00 00 00	 push	 __ehhandler$?SendCloseExistingConnection@CDPLoginSrvr@@QAEXPBDJ@Z
  0000a	64 a1 00 00 00
	00		 mov	 eax, DWORD PTR fs:0
  00010	50		 push	 eax
  00011	b8 24 40 00 00	 mov	 eax, 16420		; 00004024H
  00016	e8 00 00 00 00	 call	 __chkstk
  0001b	a1 00 00 00 00	 mov	 eax, DWORD PTR ___security_cookie
  00020	33 c5		 xor	 eax, ebp
  00022	89 45 f0	 mov	 DWORD PTR __$ArrayPad$[ebp], eax
  00025	56		 push	 esi
  00026	57		 push	 edi
  00027	50		 push	 eax
  00028	8d 45 f4	 lea	 eax, DWORD PTR __$EHRec$[ebp]
  0002b	64 a3 00 00 00
	00		 mov	 DWORD PTR fs:0, eax
  00031	8b f9		 mov	 edi, ecx
  00033	8b 75 08	 mov	 esi, DWORD PTR _lpszAccount$[ebp]

; 102  : 	BEFORESENDSOLE( ar, PACKETTYPE_CLOSE_EXISTING_CONNECTION, DPID_UNKNOWN );

  00036	8d 8d dc bf ff
	ff		 lea	 ecx, DWORD PTR _ar$[ebp]
  0003c	6a 00		 push	 0
  0003e	6a 00		 push	 0
  00040	e8 00 00 00 00	 call	 ??0CAr@@QAE@PAXI@Z	; CAr::CAr
  00045	8d 85 d8 bf ff
	ff		 lea	 eax, DWORD PTR $T3[ebp]
  0004b	c7 45 fc 00 00
	00 00		 mov	 DWORD PTR __$EHRec$[ebp+8], 0
  00052	50		 push	 eax
  00053	8d 85 d4 bf ff
	ff		 lea	 eax, DWORD PTR $T2[ebp]
  00059	c7 85 d8 bf ff
	ff 16 00 00 00	 mov	 DWORD PTR $T3[ebp], 22	; 00000016H
  00063	50		 push	 eax
  00064	8d 8d dc bf ff
	ff		 lea	 ecx, DWORD PTR _ar$[ebp]
  0006a	c7 85 d4 bf ff
	ff ff ff ff ff	 mov	 DWORD PTR $T2[ebp], -1
  00074	e8 00 00 00 00	 call	 ??$?6I@CAr@@QAEAAV0@ABI@Z ; CAr::operator<<<unsigned int>
  00079	8b c8		 mov	 ecx, eax
  0007b	e8 00 00 00 00	 call	 ??$?6K@CAr@@QAEAAV0@ABK@Z ; CAr::operator<<<unsigned long>

; 103  : 	ar.WriteString( lpszAccount );

  00080	56		 push	 esi
  00081	8d 8d dc bf ff
	ff		 lea	 ecx, DWORD PTR _ar$[ebp]
  00087	e8 00 00 00 00	 call	 ?WriteString@CAr@@QAEXPBD@Z ; CAr::WriteString

; 104  : 	ar << lError;

  0008c	8d 45 0c	 lea	 eax, DWORD PTR _lError$[ebp]
  0008f	50		 push	 eax
  00090	8d 8d dc bf ff
	ff		 lea	 ecx, DWORD PTR _ar$[ebp]
  00096	e8 00 00 00 00	 call	 ??$?6J@CAr@@QAEAAV0@ABJ@Z ; CAr::operator<<<long>

; 105  : 	SEND( ar, this, DPID_ALLPLAYERS );

  0009b	8d 85 d0 bf ff
	ff		 lea	 eax, DWORD PTR _nBufSize$[ebp]
  000a1	50		 push	 eax
  000a2	8d 8d dc bf ff
	ff		 lea	 ecx, DWORD PTR _ar$[ebp]
  000a8	e8 00 00 00 00	 call	 ?GetBuffer@CAr@@QAEPAEPAH@Z ; CAr::GetBuffer
; File C:\IAGOS\server\v18\Source\Source\_Network\Net\Include\DPMng.h

; 171  : 	if( !m_pDPSock )

  000ad	8b 4f 04	 mov	 ecx, DWORD PTR [edi+4]
  000b0	85 c9		 test	 ecx, ecx
  000b2	74 0e		 je	 SHORT $LN4@SendCloseE

; 172  : 		return FALSE;
; 173  : 	return m_pDPSock->Send( (char*)lpData, dwDataSize, dpidTo );

  000b4	6a 00		 push	 0
  000b6	ff b5 d0 bf ff
	ff		 push	 DWORD PTR _nBufSize$[ebp]
  000bc	50		 push	 eax
  000bd	e8 00 00 00 00	 call	 ?Send@CDPSock@@QAEHPADKK@Z ; CDPSock::Send
$LN4@SendCloseE:
; File C:\IAGOS\server\v18\Source\Source\DatabaseServer\DPLoginSrvr.cpp

; 106  : }

  000c2	8d 8d dc bf ff
	ff		 lea	 ecx, DWORD PTR _ar$[ebp]
  000c8	e8 00 00 00 00	 call	 ??1CAr@@QAE@XZ		; CAr::~CAr
  000cd	8b 4d f4	 mov	 ecx, DWORD PTR __$EHRec$[ebp]
  000d0	64 89 0d 00 00
	00 00		 mov	 DWORD PTR fs:0, ecx
  000d7	59		 pop	 ecx
  000d8	5f		 pop	 edi
  000d9	5e		 pop	 esi
  000da	8b 4d f0	 mov	 ecx, DWORD PTR __$ArrayPad$[ebp]
  000dd	33 cd		 xor	 ecx, ebp
  000df	e8 00 00 00 00	 call	 @__security_check_cookie@4
  000e4	8b e5		 mov	 esp, ebp
  000e6	5d		 pop	 ebp
  000e7	c2 08 00	 ret	 8
_TEXT	ENDS
;	COMDAT text$x
text$x	SEGMENT
__unwindfunclet$?SendCloseExistingConnection@CDPLoginSrvr@@QAEXPBDJ@Z$0:
  00000	8d 8d dc bf ff
	ff		 lea	 ecx, DWORD PTR _ar$[ebp]
  00006	e9 00 00 00 00	 jmp	 ??1CAr@@QAE@XZ		; CAr::~CAr
  0000b	cc		 int	 3
  0000c	cc		 int	 3
  0000d	cc		 int	 3
  0000e	cc		 int	 3
  0000f	cc		 int	 3
__ehhandler$?SendCloseExistingConnection@CDPLoginSrvr@@QAEXPBDJ@Z:
  00010	90		 npad	 1
  00011	90		 npad	 1
  00012	8b 54 24 08	 mov	 edx, DWORD PTR [esp+8]
  00016	8d 42 0c	 lea	 eax, DWORD PTR [edx+12]
  00019	8b 8a d0 bf ff
	ff		 mov	 ecx, DWORD PTR [edx-16432]
  0001f	33 c8		 xor	 ecx, eax
  00021	e8 00 00 00 00	 call	 @__security_check_cookie@4
  00026	8b 4a fc	 mov	 ecx, DWORD PTR [edx-4]
  00029	33 c8		 xor	 ecx, eax
  0002b	e8 00 00 00 00	 call	 @__security_check_cookie@4
  00030	b8 00 00 00 00	 mov	 eax, OFFSET __ehfuncinfo$?SendCloseExistingConnection@CDPLoginSrvr@@QAEXPBDJ@Z
  00035	e9 00 00 00 00	 jmp	 ___CxxFrameHandler3
text$x	ENDS
?SendCloseExistingConnection@CDPLoginSrvr@@QAEXPBDJ@Z ENDP ; CDPLoginSrvr::SendCloseExistingConnection
; Function compile flags: /Ogtp
; File C:\IAGOS\server\v18\Source\Source\DatabaseServer\DPLoginSrvr.cpp
; File C:\IAGOS\server\v18\Source\Source\_Network\Net\Include\DPMng.h
; File C:\IAGOS\server\v18\Source\Source\DatabaseServer\DPLoginSrvr.cpp
;	COMDAT ?SendError@CDPLoginSrvr@@QAEXJK@Z
_TEXT	SEGMENT
_nBufSize$ = -16428					; size = 4
$T2 = -16424						; size = 4
_ar$ = -16420						; size = 16404
__$ArrayPad$ = -16					; size = 4
__$EHRec$ = -12						; size = 12
_lError$ = 8						; size = 4
_dpid$ = 12						; size = 4
?SendError@CDPLoginSrvr@@QAEXJK@Z PROC			; CDPLoginSrvr::SendError, COMDAT
; _this$ = ecx

; 86   : {

  00000	55		 push	 ebp
  00001	8b ec		 mov	 ebp, esp
  00003	6a ff		 push	 -1
  00005	68 00 00 00 00	 push	 __ehhandler$?SendError@CDPLoginSrvr@@QAEXJK@Z
  0000a	64 a1 00 00 00
	00		 mov	 eax, DWORD PTR fs:0
  00010	50		 push	 eax
  00011	b8 20 40 00 00	 mov	 eax, 16416		; 00004020H
  00016	e8 00 00 00 00	 call	 __chkstk
  0001b	a1 00 00 00 00	 mov	 eax, DWORD PTR ___security_cookie
  00020	33 c5		 xor	 eax, ebp
  00022	89 45 f0	 mov	 DWORD PTR __$ArrayPad$[ebp], eax
  00025	56		 push	 esi
  00026	50		 push	 eax
  00027	8d 45 f4	 lea	 eax, DWORD PTR __$EHRec$[ebp]
  0002a	64 a3 00 00 00
	00		 mov	 DWORD PTR fs:0, eax
  00030	8b f1		 mov	 esi, ecx

; 87   : 	BEFORESENDSOLE( ar, PACKETTYPE_ERROR, dpid );

  00032	6a 00		 push	 0
  00034	6a 00		 push	 0
  00036	8d 8d dc bf ff
	ff		 lea	 ecx, DWORD PTR _ar$[ebp]
  0003c	e8 00 00 00 00	 call	 ??0CAr@@QAE@PAXI@Z	; CAr::CAr
  00041	8d 85 d8 bf ff
	ff		 lea	 eax, DWORD PTR $T2[ebp]
  00047	c7 45 fc 00 00
	00 00		 mov	 DWORD PTR __$EHRec$[ebp+8], 0
  0004e	50		 push	 eax
  0004f	8d 45 0c	 lea	 eax, DWORD PTR _dpid$[ebp]
  00052	c7 85 d8 bf ff
	ff fe 00 00 00	 mov	 DWORD PTR $T2[ebp], 254	; 000000feH
  0005c	50		 push	 eax
  0005d	8d 8d dc bf ff
	ff		 lea	 ecx, DWORD PTR _ar$[ebp]
  00063	e8 00 00 00 00	 call	 ??$?6K@CAr@@QAEAAV0@ABK@Z ; CAr::operator<<<unsigned long>
  00068	8b c8		 mov	 ecx, eax
  0006a	e8 00 00 00 00	 call	 ??$?6K@CAr@@QAEAAV0@ABK@Z ; CAr::operator<<<unsigned long>

; 88   : 	ar << lError;

  0006f	8d 45 08	 lea	 eax, DWORD PTR _lError$[ebp]
  00072	50		 push	 eax
  00073	8d 8d dc bf ff
	ff		 lea	 ecx, DWORD PTR _ar$[ebp]
  00079	e8 00 00 00 00	 call	 ??$?6J@CAr@@QAEAAV0@ABJ@Z ; CAr::operator<<<long>

; 89   : 	SEND( ar, this, DPID_ALLPLAYERS );

  0007e	8d 85 d4 bf ff
	ff		 lea	 eax, DWORD PTR _nBufSize$[ebp]
  00084	50		 push	 eax
  00085	8d 8d dc bf ff
	ff		 lea	 ecx, DWORD PTR _ar$[ebp]
  0008b	e8 00 00 00 00	 call	 ?GetBuffer@CAr@@QAEPAEPAH@Z ; CAr::GetBuffer
; File C:\IAGOS\server\v18\Source\Source\_Network\Net\Include\DPMng.h

; 171  : 	if( !m_pDPSock )

  00090	8b 4e 04	 mov	 ecx, DWORD PTR [esi+4]
  00093	85 c9		 test	 ecx, ecx
  00095	74 0e		 je	 SHORT $LN4@SendError

; 172  : 		return FALSE;
; 173  : 	return m_pDPSock->Send( (char*)lpData, dwDataSize, dpidTo );

  00097	6a 00		 push	 0
  00099	ff b5 d4 bf ff
	ff		 push	 DWORD PTR _nBufSize$[ebp]
  0009f	50		 push	 eax
  000a0	e8 00 00 00 00	 call	 ?Send@CDPSock@@QAEHPADKK@Z ; CDPSock::Send
$LN4@SendError:
; File C:\IAGOS\server\v18\Source\Source\DatabaseServer\DPLoginSrvr.cpp

; 90   : }

  000a5	8d 8d dc bf ff
	ff		 lea	 ecx, DWORD PTR _ar$[ebp]
  000ab	e8 00 00 00 00	 call	 ??1CAr@@QAE@XZ		; CAr::~CAr
  000b0	8b 4d f4	 mov	 ecx, DWORD PTR __$EHRec$[ebp]
  000b3	64 89 0d 00 00
	00 00		 mov	 DWORD PTR fs:0, ecx
  000ba	59		 pop	 ecx
  000bb	5e		 pop	 esi
  000bc	8b 4d f0	 mov	 ecx, DWORD PTR __$ArrayPad$[ebp]
  000bf	33 cd		 xor	 ecx, ebp
  000c1	e8 00 00 00 00	 call	 @__security_check_cookie@4
  000c6	8b e5		 mov	 esp, ebp
  000c8	5d		 pop	 ebp
  000c9	c2 08 00	 ret	 8
_TEXT	ENDS
;	COMDAT text$x
text$x	SEGMENT
__unwindfunclet$?SendError@CDPLoginSrvr@@QAEXJK@Z$0:
  00000	8d 8d dc bf ff
	ff		 lea	 ecx, DWORD PTR _ar$[ebp]
  00006	e9 00 00 00 00	 jmp	 ??1CAr@@QAE@XZ		; CAr::~CAr
  0000b	cc		 int	 3
  0000c	cc		 int	 3
  0000d	cc		 int	 3
  0000e	cc		 int	 3
  0000f	cc		 int	 3
__ehhandler$?SendError@CDPLoginSrvr@@QAEXJK@Z:
  00010	90		 npad	 1
  00011	90		 npad	 1
  00012	8b 54 24 08	 mov	 edx, DWORD PTR [esp+8]
  00016	8d 42 0c	 lea	 eax, DWORD PTR [edx+12]
  00019	8b 8a d8 bf ff
	ff		 mov	 ecx, DWORD PTR [edx-16424]
  0001f	33 c8		 xor	 ecx, eax
  00021	e8 00 00 00 00	 call	 @__security_check_cookie@4
  00026	8b 4a fc	 mov	 ecx, DWORD PTR [edx-4]
  00029	33 c8		 xor	 ecx, eax
  0002b	e8 00 00 00 00	 call	 @__security_check_cookie@4
  00030	b8 00 00 00 00	 mov	 eax, OFFSET __ehfuncinfo$?SendError@CDPLoginSrvr@@QAEXJK@Z
  00035	e9 00 00 00 00	 jmp	 ___CxxFrameHandler3
text$x	ENDS
?SendError@CDPLoginSrvr@@QAEXJK@Z ENDP			; CDPLoginSrvr::SendError
; Function compile flags: /Ogtp
; File C:\IAGOS\server\v18\Source\Source\DatabaseServer\DPLoginSrvr.cpp
;	COMDAT ?SendPlayerList@CDPLoginSrvr@@QAEXPBD0KK@Z
_TEXT	SEGMENT
_lpszAccount$ = 8					; size = 4
_lpszPassword$ = 12					; size = 4
_dpid$ = 16						; size = 4
_dwAuthKey$ = 20					; size = 4
?SendPlayerList@CDPLoginSrvr@@QAEXPBD0KK@Z PROC		; CDPLoginSrvr::SendPlayerList, COMDAT
; _this$ = ecx

; 116  : {

  00000	55		 push	 ebp
  00001	8b ec		 mov	 ebp, esp

; 117  : 	LPDB_OVERLAPPED_PLUS lpDbOverlappedPlus	= g_DbManager.AllocRequest();

  00003	8b 0d 00 00 00
	00		 mov	 ecx, DWORD PTR ?g_DbManager@@3AAVCDbManager@@A ; g_DbManager
  00009	53		 push	 ebx
  0000a	57		 push	 edi
  0000b	e8 00 00 00 00	 call	 ?AllocRequest@CDbManager@@QAEPAUtagDB_OVERLAPPED_PLUS@@XZ ; CDbManager::AllocRequest

; 118  : #ifdef __SECURITY_FIXES
; 119  : 	if(!prj.IsAllowedLetter(lpszAccount,FALSE) || 

  00010	8b 7d 08	 mov	 edi, DWORD PTR _lpszAccount$[ebp]
  00013	b9 00 00 00 00	 mov	 ecx, OFFSET ?prj@@3VCProject@@A ; prj
  00018	6a 00		 push	 0
  0001a	57		 push	 edi
  0001b	8b d8		 mov	 ebx, eax
  0001d	e8 00 00 00 00	 call	 ?IsAllowedLetter@CProject@@QAEHPBDH@Z ; CProject::IsAllowedLetter
  00022	85 c0		 test	 eax, eax
  00024	74 6f		 je	 SHORT $LN3@SendPlayer
  00026	56		 push	 esi
  00027	8b 75 0c	 mov	 esi, DWORD PTR _lpszPassword$[ebp]
  0002a	b9 00 00 00 00	 mov	 ecx, OFFSET ?prj@@3VCProject@@A ; prj
  0002f	6a 00		 push	 0
  00031	56		 push	 esi
  00032	e8 00 00 00 00	 call	 ?IsAllowedLetter@CProject@@QAEHPBDH@Z ; CProject::IsAllowedLetter
  00037	85 c0		 test	 eax, eax
  00039	74 59		 je	 SHORT $LN17@SendPlayer

; 120  : 		!prj.IsAllowedLetter(lpszPassword,FALSE))
; 121  : 	{
; 122  : 		return;
; 123  : 	}
; 124  : #endif // __SECURITY_FIXES
; 125  : 	lpDbOverlappedPlus->dpid	= dpid;

  0003b	8b 45 10	 mov	 eax, DWORD PTR _dpid$[ebp]

; 126  : 	lpDbOverlappedPlus->nQueryMode	= SENDPLAYERLIST;
; 127  : 	lpDbOverlappedPlus->dwAuthKey	= dwAuthKey;
; 128  : 	strcpy( lpDbOverlappedPlus->AccountInfo.szAccount, lpszAccount );

  0003e	8b cb		 mov	 ecx, ebx
  00040	89 83 a8 00 00
	00		 mov	 DWORD PTR [ebx+168], eax
  00046	2b cf		 sub	 ecx, edi
  00048	8b 45 14	 mov	 eax, DWORD PTR _dwAuthKey$[ebp]
  0004b	c7 43 14 07 00
	00 00		 mov	 DWORD PTR [ebx+20], 7
  00052	89 83 b4 00 00
	00		 mov	 DWORD PTR [ebx+180], eax
  00058	0f 1f 84 00 00
	00 00 00	 npad	 8
$LL5@SendPlayer:
  00060	8a 07		 mov	 al, BYTE PTR [edi]
  00062	8d 7f 01	 lea	 edi, DWORD PTR [edi+1]
  00065	88 44 39 1f	 mov	 BYTE PTR [ecx+edi+31], al
  00069	84 c0		 test	 al, al
  0006b	75 f3		 jne	 SHORT $LL5@SendPlayer

; 129  : 	strcpy( lpDbOverlappedPlus->AccountInfo.szPassword, lpszPassword );

  0006d	8b cb		 mov	 ecx, ebx
  0006f	2b ce		 sub	 ecx, esi
$LL6@SendPlayer:
  00071	8a 06		 mov	 al, BYTE PTR [esi]
  00073	8d 76 01	 lea	 esi, DWORD PTR [esi+1]
  00076	88 44 31 49	 mov	 BYTE PTR [ecx+esi+73], al
  0007a	84 c0		 test	 al, al
  0007c	75 f3		 jne	 SHORT $LL6@SendPlayer

; 130  : 	PostQueuedCompletionStatus( g_DbManager.m_hIOCPGet, 1, NULL, &lpDbOverlappedPlus->Overlapped );

  0007e	a1 00 00 00 00	 mov	 eax, DWORD PTR ?g_DbManager@@3AAVCDbManager@@A ; g_DbManager
  00083	53		 push	 ebx
  00084	6a 00		 push	 0
  00086	6a 01		 push	 1
  00088	ff b0 30 03 00
	00		 push	 DWORD PTR [eax+816]
  0008e	ff 15 00 00 00
	00		 call	 DWORD PTR __imp__PostQueuedCompletionStatus@16
$LN17@SendPlayer:
  00094	5e		 pop	 esi
$LN3@SendPlayer:
  00095	5f		 pop	 edi

; 131  : }

  00096	5b		 pop	 ebx
  00097	5d		 pop	 ebp
  00098	c2 10 00	 ret	 16			; 00000010H
?SendPlayerList@CDPLoginSrvr@@QAEXPBD0KK@Z ENDP		; CDPLoginSrvr::SendPlayerList
_TEXT	ENDS
; Function compile flags: /Ogtp
; File C:\IAGOS\server\v18\Source\Source\DatabaseServer\DPLoginSrvr.cpp
; File C:\IAGOS\server\v18\Source\Source\DatabaseServer\DPLoginSrvr.h
; File C:\Program Files\Microsoft Visual Studio\2022\Professional\VC\Tools\MSVC\14.44.35207\include\xtree
; File C:\IAGOS\server\v18\Source\Source\DatabaseServer\DPLoginSrvr.cpp
; File C:\Program Files\Microsoft Visual Studio\2022\Professional\VC\Tools\MSVC\14.44.35207\include\xtree
; File C:\IAGOS\server\v18\Source\Source\DatabaseServer\DPLoginSrvr.cpp
; File C:\Program Files\Microsoft Visual Studio\2022\Professional\VC\Tools\MSVC\14.44.35207\include\xtree
; File C:\Program Files\Microsoft Visual Studio\2022\Professional\VC\Tools\MSVC\14.44.35207\include\type_traits
; File C:\Program Files\Microsoft Visual Studio\2022\Professional\VC\Tools\MSVC\14.44.35207\include\xtree
; File C:\IAGOS\server\v18\Source\Source\DatabaseServer\DPLoginSrvr.h
; File C:\IAGOS\server\v18\Source\Source\DatabaseServer\DPLoginSrvr.cpp
;	COMDAT ?UserMessageHandler@CDPLoginSrvr@@UAEXPAUDPMSG_GENERIC@@KK@Z
_TEXT	SEGMENT
__Loc$2 = -16440					; size = 12
_this$GSCopy$1$ = -16428				; size = 4
_dw$ = -16424						; size = 4
_dwType$ = -16424					; size = 4
_ar$ = -16420						; size = 16404
__$ArrayPad$ = -16					; size = 4
__$EHRec$ = -12						; size = 12
_lpMsg$ = 8						; size = 4
_dwMsgSize$ = 12					; size = 4
_idFrom$ = 16						; size = 4
?UserMessageHandler@CDPLoginSrvr@@UAEXPAUDPMSG_GENERIC@@KK@Z PROC ; CDPLoginSrvr::UserMessageHandler, COMDAT
; _this$ = ecx

; 54   : {

  00000	55		 push	 ebp
  00001	8b ec		 mov	 ebp, esp
  00003	6a ff		 push	 -1
  00005	68 00 00 00 00	 push	 __ehhandler$?UserMessageHandler@CDPLoginSrvr@@UAEXPAUDPMSG_GENERIC@@KK@Z
  0000a	64 a1 00 00 00
	00		 mov	 eax, DWORD PTR fs:0
  00010	50		 push	 eax
  00011	b8 2c 40 00 00	 mov	 eax, 16428		; 0000402cH
  00016	e8 00 00 00 00	 call	 __chkstk
  0001b	a1 00 00 00 00	 mov	 eax, DWORD PTR ___security_cookie
  00020	33 c5		 xor	 eax, ebp
  00022	89 45 f0	 mov	 DWORD PTR __$ArrayPad$[ebp], eax
  00025	53		 push	 ebx
  00026	56		 push	 esi
  00027	57		 push	 edi
  00028	50		 push	 eax
  00029	8d 45 f4	 lea	 eax, DWORD PTR __$EHRec$[ebp]
  0002c	64 a3 00 00 00
	00		 mov	 DWORD PTR fs:0, eax
  00032	89 8d d4 bf ff
	ff		 mov	 DWORD PTR _this$GSCopy$1$[ebp], ecx

; 55   : 	static size_t	nSize	= sizeof(DPID);
; 56   : 	
; 57   : 	CAr ar( (LPBYTE)lpMsg + nSize, dwMsgSize - nSize );

  00038	8b 0d 00 00 00
	00		 mov	 ecx, DWORD PTR ?nSize@?1??UserMessageHandler@CDPLoginSrvr@@UAEXPAUDPMSG_GENERIC@@KK@Z@4IA
  0003e	8b 75 0c	 mov	 esi, DWORD PTR _dwMsgSize$[ebp]
  00041	8b c6		 mov	 eax, esi
  00043	8b 7d 08	 mov	 edi, DWORD PTR _lpMsg$[ebp]
  00046	2b c1		 sub	 eax, ecx
  00048	50		 push	 eax
  00049	8d 04 39	 lea	 eax, DWORD PTR [ecx+edi]
  0004c	50		 push	 eax
  0004d	8d 8d dc bf ff
	ff		 lea	 ecx, DWORD PTR _ar$[ebp]
  00053	e8 00 00 00 00	 call	 ??0CAr@@QAE@PAXI@Z	; CAr::CAr

; 58   : 	GETTYPE( ar );

  00058	8d 85 d8 bf ff
	ff		 lea	 eax, DWORD PTR _dw$[ebp]
  0005e	c7 45 fc 00 00
	00 00		 mov	 DWORD PTR __$EHRec$[ebp+8], 0
  00065	50		 push	 eax
  00066	8d 8d dc bf ff
	ff		 lea	 ecx, DWORD PTR _ar$[ebp]
  0006c	e8 00 00 00 00	 call	 ??$?5K@CAr@@QAEAAV0@AAK@Z ; CAr::operator>><unsigned long>
; File C:\IAGOS\server\v18\Source\Source\DatabaseServer\DPLoginSrvr.h

; 36   : 	USES_PFNENTRIES;

  00071	8b 85 d4 bf ff
	ff		 mov	 eax, DWORD PTR _this$GSCopy$1$[ebp]
; File C:\Program Files\Microsoft Visual Studio\2022\Professional\VC\Tools\MSVC\14.44.35207\include\xtree

; 1384 :         const _Tree_find_result<_Nodeptr> _Loc = _Find_lower_bound(_Keyval);

  00077	8d 8d d8 bf ff
	ff		 lea	 ecx, DWORD PTR _dwType$[ebp]
; File C:\IAGOS\server\v18\Source\Source\DatabaseServer\DPLoginSrvr.cpp

; 59   : 	void ( theClass::*pfn )( theParameters )	=	GetHandler( dw );

  0007d	8b 9d d8 bf ff
	ff		 mov	 ebx, DWORD PTR _dw$[ebp]
; File C:\Program Files\Microsoft Visual Studio\2022\Professional\VC\Tools\MSVC\14.44.35207\include\xtree

; 1384 :         const _Tree_find_result<_Nodeptr> _Loc = _Find_lower_bound(_Keyval);

  00083	51		 push	 ecx
  00084	8d 8d c8 bf ff
	ff		 lea	 ecx, DWORD PTR __Loc$2[ebp]
; File C:\IAGOS\server\v18\Source\Source\DatabaseServer\DPLoginSrvr.cpp

; 59   : 	void ( theClass::*pfn )( theParameters )	=	GetHandler( dw );

  0008a	89 9d d8 bf ff
	ff		 mov	 DWORD PTR _dwType$[ebp], ebx
; File C:\Program Files\Microsoft Visual Studio\2022\Professional\VC\Tools\MSVC\14.44.35207\include\xtree

; 1384 :         const _Tree_find_result<_Nodeptr> _Loc = _Find_lower_bound(_Keyval);

  00090	51		 push	 ecx
  00091	8d 48 10	 lea	 ecx, DWORD PTR [eax+16]
  00094	e8 00 00 00 00	 call	 ??$_Find_lower_bound@K@?$_Tree@V?$_Tmap_traits@KP8CDPLoginSrvr@@AEXAAVCAr@@KPAEK@ZU?$less@K@std@@V?$allocator@U?$pair@$$CBKP8CDPLoginSrvr@@AEXAAVCAr@@KPAEK@Z@std@@@4@$0A@@std@@@std@@IBE?AU?$_Tree_find_result@PAU?$_Tree_node@U?$pair@$$CBKP8CDPLoginSrvr@@AEXAAVCAr@@KPAEK@Z@std@@PAX@std@@@1@ABK@Z ; std::_Tree<std::_Tmap_traits<unsigned long,void (__thiscall CDPLoginSrvr::*)(CAr &,unsigned long,unsigned char *,unsigned long),std::less<unsigned long>,std::allocator<std::pair<unsigned long const ,void (__thiscall CDPLoginSrvr::*)(CAr &,unsigned long,unsigned char *,unsigned long)> >,0> >::_Find_lower_bound<unsigned long>

; 1624 :         return !_Bound->_Isnil && !_DEBUG_LT_PRED(_Getcomp(), _Keyval, _Traits::_Kfn(_Bound->_Myval));

  00099	8b 85 d0 bf ff
	ff		 mov	 eax, DWORD PTR __Loc$2[ebp+8]
  0009f	80 78 0d 00	 cmp	 BYTE PTR [eax+13], 0
  000a3	75 2f		 jne	 SHORT $LN2@UserMessag
; File C:\Program Files\Microsoft Visual Studio\2022\Professional\VC\Tools\MSVC\14.44.35207\include\type_traits

; 2380 :         return _Left < _Right;

  000a5	3b 58 10	 cmp	 ebx, DWORD PTR [eax+16]
; File C:\Program Files\Microsoft Visual Studio\2022\Professional\VC\Tools\MSVC\14.44.35207\include\xtree

; 1624 :         return !_Bound->_Isnil && !_DEBUG_LT_PRED(_Getcomp(), _Keyval, _Traits::_Kfn(_Bound->_Myval));

  000a8	72 2a		 jb	 SHORT $LN2@UserMessag

; 37   :     _Tree_unchecked_const_iterator(_Nodeptr _Pnode, const _Mytree* _Plist) noexcept : _Ptr(_Pnode) {

  000aa	8b 8d d4 bf ff
	ff		 mov	 ecx, DWORD PTR _this$GSCopy$1$[ebp]
  000b0	3b 41 10	 cmp	 eax, DWORD PTR [ecx+16]
; File C:\IAGOS\server\v18\Source\Source\DatabaseServer\DPLoginSrvr.h

; 36   : 	USES_PFNENTRIES;

  000b3	74 1f		 je	 SHORT $LN2@UserMessag
  000b5	8b 50 14	 mov	 edx, DWORD PTR [eax+20]
; File C:\IAGOS\server\v18\Source\Source\DatabaseServer\DPLoginSrvr.cpp

; 61   : 	if( pfn ) {

  000b8	85 d2		 test	 edx, edx
  000ba	74 18		 je	 SHORT $LN2@UserMessag

; 62   : 		( this->*( pfn ) )( ar, *(UNALIGNED LPDPID)lpMsg, (LPBYTE)lpMsg + nSize + nSize, dwMsgSize - nSize - nSize );

  000bc	a1 00 00 00 00	 mov	 eax, DWORD PTR ?nSize@?1??UserMessageHandler@CDPLoginSrvr@@UAEXPAUDPMSG_GENERIC@@KK@Z@4IA
  000c1	03 c0		 add	 eax, eax
  000c3	2b f0		 sub	 esi, eax
  000c5	03 c7		 add	 eax, edi
  000c7	56		 push	 esi
  000c8	50		 push	 eax
  000c9	ff 37		 push	 DWORD PTR [edi]
  000cb	8d 85 dc bf ff
	ff		 lea	 eax, DWORD PTR _ar$[ebp]
  000d1	50		 push	 eax
  000d2	ff d2		 call	 edx
$LN2@UserMessag:

; 63   : 	}
; 64   : 	else {
; 65   : 		TRACE( "Handler not found(%08x)\n", dw );
; 66   : 	}
; 67   : }

  000d4	8d 8d dc bf ff
	ff		 lea	 ecx, DWORD PTR _ar$[ebp]
  000da	e8 00 00 00 00	 call	 ??1CAr@@QAE@XZ		; CAr::~CAr
  000df	8b 4d f4	 mov	 ecx, DWORD PTR __$EHRec$[ebp]
  000e2	64 89 0d 00 00
	00 00		 mov	 DWORD PTR fs:0, ecx
  000e9	59		 pop	 ecx
  000ea	5f		 pop	 edi
  000eb	5e		 pop	 esi
  000ec	5b		 pop	 ebx
  000ed	8b 4d f0	 mov	 ecx, DWORD PTR __$ArrayPad$[ebp]
  000f0	33 cd		 xor	 ecx, ebp
  000f2	e8 00 00 00 00	 call	 @__security_check_cookie@4
  000f7	8b e5		 mov	 esp, ebp
  000f9	5d		 pop	 ebp
  000fa	c2 0c 00	 ret	 12			; 0000000cH
_TEXT	ENDS
;	COMDAT text$x
text$x	SEGMENT
__unwindfunclet$?UserMessageHandler@CDPLoginSrvr@@UAEXPAUDPMSG_GENERIC@@KK@Z$0:
  00000	8d 8d dc bf ff
	ff		 lea	 ecx, DWORD PTR _ar$[ebp]
  00006	e9 00 00 00 00	 jmp	 ??1CAr@@QAE@XZ		; CAr::~CAr
  0000b	cc		 int	 3
  0000c	cc		 int	 3
  0000d	cc		 int	 3
  0000e	cc		 int	 3
  0000f	cc		 int	 3
__ehhandler$?UserMessageHandler@CDPLoginSrvr@@UAEXPAUDPMSG_GENERIC@@KK@Z:
  00010	90		 npad	 1
  00011	90		 npad	 1
  00012	8b 54 24 08	 mov	 edx, DWORD PTR [esp+8]
  00016	8d 42 0c	 lea	 eax, DWORD PTR [edx+12]
  00019	8b 8a c4 bf ff
	ff		 mov	 ecx, DWORD PTR [edx-16444]
  0001f	33 c8		 xor	 ecx, eax
  00021	e8 00 00 00 00	 call	 @__security_check_cookie@4
  00026	8b 4a fc	 mov	 ecx, DWORD PTR [edx-4]
  00029	33 c8		 xor	 ecx, eax
  0002b	e8 00 00 00 00	 call	 @__security_check_cookie@4
  00030	b8 00 00 00 00	 mov	 eax, OFFSET __ehfuncinfo$?UserMessageHandler@CDPLoginSrvr@@UAEXPAUDPMSG_GENERIC@@KK@Z
  00035	e9 00 00 00 00	 jmp	 ___CxxFrameHandler3
text$x	ENDS
?UserMessageHandler@CDPLoginSrvr@@UAEXPAUDPMSG_GENERIC@@KK@Z ENDP ; CDPLoginSrvr::UserMessageHandler
; Function compile flags: /Ogtp
; File C:\IAGOS\server\v18\Source\Source\DatabaseServer\DPLoginSrvr.cpp
;	COMDAT ?SysMessageHandler@CDPLoginSrvr@@UAEXPAUDPMSG_GENERIC@@KK@Z
_TEXT	SEGMENT
_lpMsg$ = 8						; size = 4
_dwMsgSize$ = 12					; size = 4
_idFrom$ = 16						; size = 4
?SysMessageHandler@CDPLoginSrvr@@UAEXPAUDPMSG_GENERIC@@KK@Z PROC ; CDPLoginSrvr::SysMessageHandler, COMDAT
; _this$ = ecx

; 33   : {

  00000	55		 push	 ebp
  00001	8b ec		 mov	 ebp, esp

; 34   : 	switch( lpMsg->dwType )

  00003	8b 55 08	 mov	 edx, DWORD PTR _lpMsg$[ebp]
  00006	8b 02		 mov	 eax, DWORD PTR [edx]
  00008	83 e8 03	 sub	 eax, 3
  0000b	74 11		 je	 SHORT $LN4@SysMessage
  0000d	83 e8 02	 sub	 eax, 2
  00010	75 14		 jne	 SHORT $LN2@SysMessage

; 41   : 				break;
; 42   : 			}
; 43   : 		case DPSYS_DESTROYPLAYERORGROUP:
; 44   : 			{
; 45   : 				LPDPMSG_DESTROYPLAYERORGROUP lpDestroyPlayer	= (LPDPMSG_DESTROYPLAYERORGROUP)lpMsg;
; 46   : //				g_MyTrace.Add( CMyTrace::Key("Login" ), TRUE, "" );
; 47   : 				OnRemoveConnection( lpDestroyPlayer->dpId );

  00012	ff 72 08	 push	 DWORD PTR [edx+8]
  00015	e8 00 00 00 00	 call	 ?OnRemoveConnection@CDPLoginSrvr@@QAEXK@Z ; CDPLoginSrvr::OnRemoveConnection

; 48   : 				break;
; 49   : 			}
; 50   : 	}
; 51   : }

  0001a	5d		 pop	 ebp
  0001b	c2 0c 00	 ret	 12			; 0000000cH
$LN4@SysMessage:

; 35   : 	{
; 36   : 		case DPSYS_CREATEPLAYERORGROUP:
; 37   : 			{
; 38   : 				LPDPMSG_CREATEPLAYERORGROUP lpCreatePlayer	= (LPDPMSG_CREATEPLAYERORGROUP)lpMsg;
; 39   : //				g_MyTrace.Add( CMyTrace::Key("Login" ), FALSE, "" );
; 40   : 				OnAddConnection( lpCreatePlayer->dpId );

  0001e	ff 72 08	 push	 DWORD PTR [edx+8]
  00021	e8 00 00 00 00	 call	 ?OnAddConnection@CDPLoginSrvr@@QAEXK@Z ; CDPLoginSrvr::OnAddConnection
$LN2@SysMessage:

; 48   : 				break;
; 49   : 			}
; 50   : 	}
; 51   : }

  00026	5d		 pop	 ebp
  00027	c2 0c 00	 ret	 12			; 0000000cH
?SysMessageHandler@CDPLoginSrvr@@UAEXPAUDPMSG_GENERIC@@KK@Z ENDP ; CDPLoginSrvr::SysMessageHandler
_TEXT	ENDS
; Function compile flags: /Ogtp
; File C:\IAGOS\server\v18\Source\Source\DatabaseServer\DPLoginSrvr.cpp
;	COMDAT ??1CDPLoginSrvr@@UAE@XZ
_TEXT	SEGMENT
??1CDPLoginSrvr@@UAE@XZ PROC				; CDPLoginSrvr::~CDPLoginSrvr, COMDAT
; _this$ = ecx

; 28   : {

  00000	56		 push	 esi
  00001	8b f1		 mov	 esi, ecx

; 29   : 
; 30   : }

  00003	8d 4e 10	 lea	 ecx, DWORD PTR [esi+16]
  00006	c7 06 00 00 00
	00		 mov	 DWORD PTR [esi], OFFSET ??_7CDPLoginSrvr@@6B@
  0000c	e8 00 00 00 00	 call	 ??1?$_Tree@V?$_Tmap_traits@KP8CDPLoginSrvr@@AEXAAVCAr@@KPAEK@ZU?$less@K@std@@V?$allocator@U?$pair@$$CBKP8CDPLoginSrvr@@AEXAAVCAr@@KPAEK@Z@std@@@4@$0A@@std@@@std@@QAE@XZ ; std::_Tree<std::_Tmap_traits<unsigned long,void (__thiscall CDPLoginSrvr::*)(CAr &,unsigned long,unsigned char *,unsigned long),std::less<unsigned long>,std::allocator<std::pair<unsigned long const ,void (__thiscall CDPLoginSrvr::*)(CAr &,unsigned long,unsigned char *,unsigned long)> >,0> >::~_Tree<std::_Tmap_traits<unsigned long,void (__thiscall CDPLoginSrvr::*)(CAr &,unsigned long,unsigned char *,unsigned long),std::less<unsigned long>,std::allocator<std::pair<unsigned long const ,void (__thiscall CDPLoginSrvr::*)(CAr &,unsigned long,unsigned char *,unsigned long)> >,0> >
  00011	8b ce		 mov	 ecx, esi
  00013	5e		 pop	 esi
  00014	e9 00 00 00 00	 jmp	 ??1CDPMng@@UAE@XZ	; CDPMng::~CDPMng
??1CDPLoginSrvr@@UAE@XZ ENDP				; CDPLoginSrvr::~CDPLoginSrvr
_TEXT	ENDS
; Function compile flags: /Ogtp
; File C:\IAGOS\server\v18\Source\Source\DatabaseServer\DPLoginSrvr.cpp
; File C:\Program Files\Microsoft Visual Studio\2022\Professional\VC\Tools\MSVC\14.44.35207\include\xmemory
; File C:\IAGOS\server\v18\Source\Source\DatabaseServer\DPLoginSrvr.cpp
; File C:\Program Files\Microsoft Visual Studio\2022\Professional\VC\Tools\MSVC\14.44.35207\include\xtree
; File C:\Program Files\Microsoft Visual Studio\2022\Professional\VC\Tools\MSVC\14.44.35207\include\xmemory
; File C:\Program Files\Microsoft Visual Studio\2022\Professional\VC\Tools\MSVC\14.44.35207\include\xtree
; File C:\IAGOS\server\v18\Source\Source\DatabaseServer\DPLoginSrvr.cpp
; File C:\Program Files\Microsoft Visual Studio\2022\Professional\VC\Tools\MSVC\14.44.35207\include\xtree
; File C:\Program Files\Microsoft Visual Studio\2022\Professional\VC\Tools\MSVC\14.44.35207\include\utility
; File C:\Program Files\Microsoft Visual Studio\2022\Professional\VC\Tools\MSVC\14.44.35207\include\xtree
; File C:\Program Files\Microsoft Visual Studio\2022\Professional\VC\Tools\MSVC\14.44.35207\include\utility
; File C:\Program Files\Microsoft Visual Studio\2022\Professional\VC\Tools\MSVC\14.44.35207\include\xtree
; File C:\Program Files\Microsoft Visual Studio\2022\Professional\VC\Tools\MSVC\14.44.35207\include\type_traits
; File C:\Program Files\Microsoft Visual Studio\2022\Professional\VC\Tools\MSVC\14.44.35207\include\xtree
; File C:\Program Files\Microsoft Visual Studio\2022\Professional\VC\Tools\MSVC\14.44.35207\include\xmemory
; File C:\Program Files\Microsoft Visual Studio\2022\Professional\VC\Tools\MSVC\14.44.35207\include\xtree
; File C:\Program Files\Microsoft Visual Studio\2022\Professional\VC\Tools\MSVC\14.44.35207\include\xmemory
; File C:\Program Files\Microsoft Visual Studio\2022\Professional\VC\Tools\MSVC\14.44.35207\include\xtree
; File C:\Program Files\Microsoft Visual Studio\2022\Professional\VC\Tools\MSVC\14.44.35207\include\utility
; File C:\Program Files\Microsoft Visual Studio\2022\Professional\VC\Tools\MSVC\14.44.35207\include\xtree
; File C:\Program Files\Microsoft Visual Studio\2022\Professional\VC\Tools\MSVC\14.44.35207\include\utility
; File C:\Program Files\Microsoft Visual Studio\2022\Professional\VC\Tools\MSVC\14.44.35207\include\xtree
; File C:\Program Files\Microsoft Visual Studio\2022\Professional\VC\Tools\MSVC\14.44.35207\include\type_traits
; File C:\Program Files\Microsoft Visual Studio\2022\Professional\VC\Tools\MSVC\14.44.35207\include\xtree
; File C:\Program Files\Microsoft Visual Studio\2022\Professional\VC\Tools\MSVC\14.44.35207\include\xmemory
; File C:\Program Files\Microsoft Visual Studio\2022\Professional\VC\Tools\MSVC\14.44.35207\include\xtree
; File C:\Program Files\Microsoft Visual Studio\2022\Professional\VC\Tools\MSVC\14.44.35207\include\xmemory
; File C:\Program Files\Microsoft Visual Studio\2022\Professional\VC\Tools\MSVC\14.44.35207\include\xtree
; File C:\Program Files\Microsoft Visual Studio\2022\Professional\VC\Tools\MSVC\14.44.35207\include\utility
; File C:\Program Files\Microsoft Visual Studio\2022\Professional\VC\Tools\MSVC\14.44.35207\include\xtree
; File C:\Program Files\Microsoft Visual Studio\2022\Professional\VC\Tools\MSVC\14.44.35207\include\utility
; File C:\Program Files\Microsoft Visual Studio\2022\Professional\VC\Tools\MSVC\14.44.35207\include\xtree
; File C:\Program Files\Microsoft Visual Studio\2022\Professional\VC\Tools\MSVC\14.44.35207\include\type_traits
; File C:\Program Files\Microsoft Visual Studio\2022\Professional\VC\Tools\MSVC\14.44.35207\include\xtree
; File C:\Program Files\Microsoft Visual Studio\2022\Professional\VC\Tools\MSVC\14.44.35207\include\xmemory
; File C:\Program Files\Microsoft Visual Studio\2022\Professional\VC\Tools\MSVC\14.44.35207\include\xtree
; File C:\Program Files\Microsoft Visual Studio\2022\Professional\VC\Tools\MSVC\14.44.35207\include\xmemory
; File C:\Program Files\Microsoft Visual Studio\2022\Professional\VC\Tools\MSVC\14.44.35207\include\xtree
; File C:\Program Files\Microsoft Visual Studio\2022\Professional\VC\Tools\MSVC\14.44.35207\include\utility
; File C:\Program Files\Microsoft Visual Studio\2022\Professional\VC\Tools\MSVC\14.44.35207\include\xtree
; File C:\Program Files\Microsoft Visual Studio\2022\Professional\VC\Tools\MSVC\14.44.35207\include\utility
; File C:\Program Files\Microsoft Visual Studio\2022\Professional\VC\Tools\MSVC\14.44.35207\include\xtree
; File C:\Program Files\Microsoft Visual Studio\2022\Professional\VC\Tools\MSVC\14.44.35207\include\type_traits
; File C:\Program Files\Microsoft Visual Studio\2022\Professional\VC\Tools\MSVC\14.44.35207\include\xtree
; File C:\Program Files\Microsoft Visual Studio\2022\Professional\VC\Tools\MSVC\14.44.35207\include\xmemory
; File C:\Program Files\Microsoft Visual Studio\2022\Professional\VC\Tools\MSVC\14.44.35207\include\xtree
; File C:\Program Files\Microsoft Visual Studio\2022\Professional\VC\Tools\MSVC\14.44.35207\include\xmemory
; File C:\Program Files\Microsoft Visual Studio\2022\Professional\VC\Tools\MSVC\14.44.35207\include\xtree
; File C:\Program Files\Microsoft Visual Studio\2022\Professional\VC\Tools\MSVC\14.44.35207\include\utility
; File C:\Program Files\Microsoft Visual Studio\2022\Professional\VC\Tools\MSVC\14.44.35207\include\xtree
; File C:\Program Files\Microsoft Visual Studio\2022\Professional\VC\Tools\MSVC\14.44.35207\include\utility
; File C:\Program Files\Microsoft Visual Studio\2022\Professional\VC\Tools\MSVC\14.44.35207\include\xtree
; File C:\Program Files\Microsoft Visual Studio\2022\Professional\VC\Tools\MSVC\14.44.35207\include\type_traits
; File C:\Program Files\Microsoft Visual Studio\2022\Professional\VC\Tools\MSVC\14.44.35207\include\xtree
; File C:\Program Files\Microsoft Visual Studio\2022\Professional\VC\Tools\MSVC\14.44.35207\include\xmemory
; File C:\Program Files\Microsoft Visual Studio\2022\Professional\VC\Tools\MSVC\14.44.35207\include\xtree
; File C:\Program Files\Microsoft Visual Studio\2022\Professional\VC\Tools\MSVC\14.44.35207\include\xmemory
; File C:\Program Files\Microsoft Visual Studio\2022\Professional\VC\Tools\MSVC\14.44.35207\include\xtree
; File C:\Program Files\Microsoft Visual Studio\2022\Professional\VC\Tools\MSVC\14.44.35207\include\utility
; File C:\Program Files\Microsoft Visual Studio\2022\Professional\VC\Tools\MSVC\14.44.35207\include\xtree
; File C:\Program Files\Microsoft Visual Studio\2022\Professional\VC\Tools\MSVC\14.44.35207\include\utility
; File C:\Program Files\Microsoft Visual Studio\2022\Professional\VC\Tools\MSVC\14.44.35207\include\xtree
; File C:\Program Files\Microsoft Visual Studio\2022\Professional\VC\Tools\MSVC\14.44.35207\include\type_traits
; File C:\Program Files\Microsoft Visual Studio\2022\Professional\VC\Tools\MSVC\14.44.35207\include\xtree
; File C:\Program Files\Microsoft Visual Studio\2022\Professional\VC\Tools\MSVC\14.44.35207\include\xmemory
; File C:\Program Files\Microsoft Visual Studio\2022\Professional\VC\Tools\MSVC\14.44.35207\include\xtree
; File C:\Program Files\Microsoft Visual Studio\2022\Professional\VC\Tools\MSVC\14.44.35207\include\xmemory
; File C:\Program Files\Microsoft Visual Studio\2022\Professional\VC\Tools\MSVC\14.44.35207\include\xtree
; File C:\IAGOS\server\v18\Source\Source\DatabaseServer\DPLoginSrvr.cpp
; File C:\Program Files\Microsoft Visual Studio\2022\Professional\VC\Tools\MSVC\14.44.35207\include\xtree
; File C:\IAGOS\server\v18\Source\Source\DatabaseServer\DPLoginSrvr.cpp
;	COMDAT ??0CDPLoginSrvr@@QAE@XZ
_TEXT	SEGMENT
$T2 = -48						; size = 12
$T3 = -48						; size = 12
$T4 = -48						; size = 12
$T5 = -48						; size = 12
$T6 = -48						; size = 12
$T7 = -48						; size = 12
__Loc$8 = -36						; size = 12
__Loc$9 = -36						; size = 12
__Loc$10 = -36						; size = 12
__Loc$11 = -36						; size = 12
__Loc$12 = -36						; size = 12
__Loc$13 = -36						; size = 12
$T14 = -24						; size = 8
$T15 = -24						; size = 8
$T16 = -24						; size = 8
$T17 = -24						; size = 8
$T18 = -24						; size = 8
$T19 = -24						; size = 8
$T20 = -24						; size = 8
$T21 = -24						; size = 8
$T22 = -24						; size = 8
$T23 = -24						; size = 8
$T24 = -24						; size = 8
$T25 = -24						; size = 8
_this$ = -20						; size = 4
_this$ = -16						; size = 4
__$EHRec$ = -12						; size = 12
??0CDPLoginSrvr@@QAE@XZ PROC				; CDPLoginSrvr::CDPLoginSrvr, COMDAT
; _this$ = ecx

; 15   : {

  00000	55		 push	 ebp
  00001	8b ec		 mov	 ebp, esp
  00003	6a ff		 push	 -1
  00005	68 00 00 00 00	 push	 __ehhandler$??0CDPLoginSrvr@@QAE@XZ
  0000a	64 a1 00 00 00
	00		 mov	 eax, DWORD PTR fs:0
  00010	50		 push	 eax
  00011	83 ec 24	 sub	 esp, 36			; 00000024H
  00014	53		 push	 ebx
  00015	56		 push	 esi
  00016	57		 push	 edi
  00017	a1 00 00 00 00	 mov	 eax, DWORD PTR ___security_cookie
  0001c	33 c5		 xor	 eax, ebp
  0001e	50		 push	 eax
  0001f	8d 45 f4	 lea	 eax, DWORD PTR __$EHRec$[ebp]
  00022	64 a3 00 00 00
	00		 mov	 DWORD PTR fs:0, eax
  00028	8b d9		 mov	 ebx, ecx
  0002a	89 5d f0	 mov	 DWORD PTR _this$[ebp], ebx
  0002d	e8 00 00 00 00	 call	 ??0CDPMng@@QAE@XZ	; CDPMng::CDPMng
  00032	8d 7b 10	 lea	 edi, DWORD PTR [ebx+16]
  00035	c7 03 00 00 00
	00		 mov	 DWORD PTR [ebx], OFFSET ??_7CDPLoginSrvr@@6B@
  0003b	89 7d ec	 mov	 DWORD PTR _this$[ebp], edi
; File C:\Program Files\Microsoft Visual Studio\2022\Professional\VC\Tools\MSVC\14.44.35207\include\xmemory

; 136  :         return ::operator new(_Bytes);

  0003e	6a 18		 push	 24			; 00000018H
; File C:\IAGOS\server\v18\Source\Source\DatabaseServer\DPLoginSrvr.cpp

; 15   : {

  00040	c7 45 fc 00 00
	00 00		 mov	 DWORD PTR __$EHRec$[ebp+8], 0
; File C:\Program Files\Microsoft Visual Studio\2022\Professional\VC\Tools\MSVC\14.44.35207\include\xtree

; 450  :     _Tree_val() noexcept : _Myhead(), _Mysize(0) {}

  00047	c7 07 00 00 00
	00		 mov	 DWORD PTR [edi], 0
  0004d	c7 47 04 00 00
	00 00		 mov	 DWORD PTR [edi+4], 0
; File C:\Program Files\Microsoft Visual Studio\2022\Professional\VC\Tools\MSVC\14.44.35207\include\xmemory

; 136  :         return ::operator new(_Bytes);

  00054	e8 00 00 00 00	 call	 ??2@YAPAXI@Z		; operator new
  00059	83 c4 04	 add	 esp, 4
; File C:\Program Files\Microsoft Visual Studio\2022\Professional\VC\Tools\MSVC\14.44.35207\include\xtree

; 346  :         _Construct_in_place(_Pnode->_Left, _Pnode);

  0005c	89 00		 mov	 DWORD PTR [eax], eax

; 347  :         _Construct_in_place(_Pnode->_Parent, _Pnode);

  0005e	89 40 04	 mov	 DWORD PTR [eax+4], eax

; 348  :         _Construct_in_place(_Pnode->_Right, _Pnode);

  00061	89 40 08	 mov	 DWORD PTR [eax+8], eax

; 349  :         _Pnode->_Color = _Black;

  00064	66 c7 40 0c 01
	01		 mov	 WORD PTR [eax+12], 257	; 00000101H

; 1957 :         _Scary->_Myhead = _Node::_Buyheadnode(_Getal());

  0006a	89 07		 mov	 DWORD PTR [edi], eax

; 1017 :             _Loc                = _Find_lower_bound(_Keyval);

  0006c	8d 45 e8	 lea	 eax, DWORD PTR $T14[ebp]
; File C:\IAGOS\server\v18\Source\Source\DatabaseServer\DPLoginSrvr.cpp

; 15   : {

  0006f	c6 45 fc 01	 mov	 BYTE PTR __$EHRec$[ebp+8], 1
; File C:\Program Files\Microsoft Visual Studio\2022\Professional\VC\Tools\MSVC\14.44.35207\include\xtree

; 1017 :             _Loc                = _Find_lower_bound(_Keyval);

  00073	50		 push	 eax
  00074	8d 45 d0	 lea	 eax, DWORD PTR $T2[ebp]
; File C:\Program Files\Microsoft Visual Studio\2022\Professional\VC\Tools\MSVC\14.44.35207\include\utility

; 274  :         : first(_STD forward<_Other1>(_Val1)), second(_STD forward<_Other2>(_Val2)) {

  00077	c7 45 e8 f6 00
	00 00		 mov	 DWORD PTR $T14[ebp], 246 ; 000000f6H
; File C:\Program Files\Microsoft Visual Studio\2022\Professional\VC\Tools\MSVC\14.44.35207\include\xtree

; 1017 :             _Loc                = _Find_lower_bound(_Keyval);

  0007e	50		 push	 eax
  0007f	8b cf		 mov	 ecx, edi
; File C:\Program Files\Microsoft Visual Studio\2022\Professional\VC\Tools\MSVC\14.44.35207\include\utility

; 274  :         : first(_STD forward<_Other1>(_Val1)), second(_STD forward<_Other2>(_Val2)) {

  00081	c7 45 ec 00 00
	00 00		 mov	 DWORD PTR $T14[ebp+4], OFFSET ?OnGetPlayerList@CDPLoginSrvr@@QAEXAAVCAr@@KPAEK@Z ; CDPLoginSrvr::OnGetPlayerList
; File C:\Program Files\Microsoft Visual Studio\2022\Professional\VC\Tools\MSVC\14.44.35207\include\xtree

; 1017 :             _Loc                = _Find_lower_bound(_Keyval);

  00088	e8 00 00 00 00	 call	 ??$_Find_lower_bound@K@?$_Tree@V?$_Tmap_traits@KP8CDPLoginSrvr@@AEXAAVCAr@@KPAEK@ZU?$less@K@std@@V?$allocator@U?$pair@$$CBKP8CDPLoginSrvr@@AEXAAVCAr@@KPAEK@Z@std@@@4@$0A@@std@@@std@@IBE?AU?$_Tree_find_result@PAU?$_Tree_node@U?$pair@$$CBKP8CDPLoginSrvr@@AEXAAVCAr@@KPAEK@Z@std@@PAX@std@@@1@ABK@Z ; std::_Tree<std::_Tmap_traits<unsigned long,void (__thiscall CDPLoginSrvr::*)(CAr &,unsigned long,unsigned char *,unsigned long),std::less<unsigned long>,std::allocator<std::pair<unsigned long const ,void (__thiscall CDPLoginSrvr::*)(CAr &,unsigned long,unsigned char *,unsigned long)> >,0> >::_Find_lower_bound<unsigned long>
  0008d	f3 0f 7e 00	 movq	 xmm0, QWORD PTR [eax]
  00091	8b 40 08	 mov	 eax, DWORD PTR [eax+8]
  00094	66 0f d6 45 dc	 movq	 QWORD PTR __Loc$8[ebp], xmm0

; 1624 :         return !_Bound->_Isnil && !_DEBUG_LT_PRED(_Getcomp(), _Keyval, _Traits::_Kfn(_Bound->_Myval));

  00099	80 78 0d 00	 cmp	 BYTE PTR [eax+13], 0
  0009d	75 09		 jne	 SHORT $LN51@CDPLoginSr
; File C:\Program Files\Microsoft Visual Studio\2022\Professional\VC\Tools\MSVC\14.44.35207\include\type_traits

; 2380 :         return _Left < _Right;

  0009f	81 78 10 f6 00
	00 00		 cmp	 DWORD PTR [eax+16], 246	; 000000f6H
; File C:\Program Files\Microsoft Visual Studio\2022\Professional\VC\Tools\MSVC\14.44.35207\include\xtree

; 1624 :         return !_Bound->_Isnil && !_DEBUG_LT_PRED(_Getcomp(), _Keyval, _Traits::_Kfn(_Bound->_Myval));

  000a6	76 55		 jbe	 SHORT $LN126@CDPLoginSr
$LN51@CDPLoginSr:

; 1648 :         if (max_size() == _Get_scary()->_Mysize) {

  000a8	81 7f 04 aa aa
	aa 0a		 cmp	 DWORD PTR [edi+4], 178956970 ; 0aaaaaaaH
  000af	0f 84 15 03 00
	00		 je	 $LN652@CDPLoginSr

; 1023 :             _Inserted = _Tree_temp_node<_Alnode>(_Getal(), _Scary->_Myhead, _STD forward<_Valtys>(_Vals)...)._Release();

  000b5	8b 37		 mov	 esi, DWORD PTR [edi]
; File C:\Program Files\Microsoft Visual Studio\2022\Professional\VC\Tools\MSVC\14.44.35207\include\xmemory

; 1160 :     _CONSTEXPR20 explicit _Alloc_construct_ptr(_Alloc& _Al_) : _Al(_Al_), _Ptr(nullptr) {}

  000b7	89 7d e8	 mov	 DWORD PTR $T20[ebp], edi

; 136  :         return ::operator new(_Bytes);

  000ba	6a 18		 push	 24			; 00000018H
; File C:\Program Files\Microsoft Visual Studio\2022\Professional\VC\Tools\MSVC\14.44.35207\include\xtree

; 808  :     explicit _Tree_temp_node_alloc(_Alnode& _Al_) : _Alloc_construct_ptr<_Alnode>(_Al_) {

  000bc	c6 45 fc 02	 mov	 BYTE PTR __$EHRec$[ebp+8], 2
; File C:\Program Files\Microsoft Visual Studio\2022\Professional\VC\Tools\MSVC\14.44.35207\include\xmemory

; 1167 :         _Ptr = nullptr; // if allocate throws, prevents double-free

  000c0	c7 45 ec 00 00
	00 00		 mov	 DWORD PTR $T20[ebp+4], 0

; 136  :         return ::operator new(_Bytes);

  000c7	e8 00 00 00 00	 call	 ??2@YAPAXI@Z		; operator new
  000cc	83 c4 04	 add	 esp, 4
; File C:\Program Files\Microsoft Visual Studio\2022\Professional\VC\Tools\MSVC\14.44.35207\include\xtree

; 810  :     }

  000cf	c6 45 fc 01	 mov	 BYTE PTR __$EHRec$[ebp+8], 1

; 1042 :         return {_Scary->_Insert_node(_Loc._Location, _Inserted), true};

  000d3	8b cf		 mov	 ecx, edi

; 830  :         _Alnode_traits::construct(this->_Al, _STD addressof(this->_Ptr->_Myval), _STD forward<_Valtys>(_Vals)...);

  000d5	c7 40 10 f6 00
	00 00		 mov	 DWORD PTR [eax+16], 246	; 000000f6H

; 1042 :         return {_Scary->_Insert_node(_Loc._Location, _Inserted), true};

  000dc	50		 push	 eax
  000dd	ff 75 e0	 push	 DWORD PTR __Loc$8[ebp+4]

; 830  :         _Alnode_traits::construct(this->_Al, _STD addressof(this->_Ptr->_Myval), _STD forward<_Valtys>(_Vals)...);

  000e0	c7 40 14 00 00
	00 00		 mov	 DWORD PTR [eax+20], OFFSET ?OnGetPlayerList@CDPLoginSrvr@@QAEXAAVCAr@@KPAEK@Z ; CDPLoginSrvr::OnGetPlayerList

; 1042 :         return {_Scary->_Insert_node(_Loc._Location, _Inserted), true};

  000e7	ff 75 dc	 push	 DWORD PTR __Loc$8[ebp]

; 831  :         _Construct_in_place(this->_Ptr->_Left, _Myhead);

  000ea	89 30		 mov	 DWORD PTR [eax], esi

; 832  :         _Construct_in_place(this->_Ptr->_Parent, _Myhead);

  000ec	89 70 04	 mov	 DWORD PTR [eax+4], esi

; 833  :         _Construct_in_place(this->_Ptr->_Right, _Myhead);

  000ef	89 70 08	 mov	 DWORD PTR [eax+8], esi

; 834  :         this->_Ptr->_Color = _Red;

  000f2	66 c7 40 0c 00
	00		 mov	 WORD PTR [eax+12], 0

; 1042 :         return {_Scary->_Insert_node(_Loc._Location, _Inserted), true};

  000f8	e8 00 00 00 00	 call	 ?_Insert_node@?$_Tree_val@U?$_Tree_simple_types@U?$pair@$$CBKP8CDPLoginSrvr@@AEXAAVCAr@@KPAEK@Z@std@@@std@@@std@@QAEPAU?$_Tree_node@U?$pair@$$CBKP8CDPLoginSrvr@@AEXAAVCAr@@KPAEK@Z@std@@PAX@2@U?$_Tree_id@PAU?$_Tree_node@U?$pair@$$CBKP8CDPLoginSrvr@@AEXAAVCAr@@KPAEK@Z@std@@PAX@std@@@2@QAU32@@Z ; std::_Tree_val<std::_Tree_simple_types<std::pair<unsigned long const ,void (__thiscall CDPLoginSrvr::*)(CAr &,unsigned long,unsigned char *,unsigned long)> > >::_Insert_node
$LN126@CDPLoginSr:

; 1017 :             _Loc                = _Find_lower_bound(_Keyval);

  000fd	8d 45 e8	 lea	 eax, DWORD PTR $T15[ebp]
; File C:\Program Files\Microsoft Visual Studio\2022\Professional\VC\Tools\MSVC\14.44.35207\include\utility

; 274  :         : first(_STD forward<_Other1>(_Val1)), second(_STD forward<_Other2>(_Val2)) {

  00100	c7 45 e8 f4 00
	00 00		 mov	 DWORD PTR $T15[ebp], 244 ; 000000f4H
; File C:\Program Files\Microsoft Visual Studio\2022\Professional\VC\Tools\MSVC\14.44.35207\include\xtree

; 1017 :             _Loc                = _Find_lower_bound(_Keyval);

  00107	50		 push	 eax
  00108	8d 45 d0	 lea	 eax, DWORD PTR $T3[ebp]
; File C:\Program Files\Microsoft Visual Studio\2022\Professional\VC\Tools\MSVC\14.44.35207\include\utility

; 274  :         : first(_STD forward<_Other1>(_Val1)), second(_STD forward<_Other2>(_Val2)) {

  0010b	c7 45 ec 00 00
	00 00		 mov	 DWORD PTR $T15[ebp+4], OFFSET ?OnCreatePlayer@CDPLoginSrvr@@QAEXAAVCAr@@KPAEK@Z ; CDPLoginSrvr::OnCreatePlayer
; File C:\Program Files\Microsoft Visual Studio\2022\Professional\VC\Tools\MSVC\14.44.35207\include\xtree

; 1017 :             _Loc                = _Find_lower_bound(_Keyval);

  00112	50		 push	 eax
  00113	8b cf		 mov	 ecx, edi
  00115	e8 00 00 00 00	 call	 ??$_Find_lower_bound@K@?$_Tree@V?$_Tmap_traits@KP8CDPLoginSrvr@@AEXAAVCAr@@KPAEK@ZU?$less@K@std@@V?$allocator@U?$pair@$$CBKP8CDPLoginSrvr@@AEXAAVCAr@@KPAEK@Z@std@@@4@$0A@@std@@@std@@IBE?AU?$_Tree_find_result@PAU?$_Tree_node@U?$pair@$$CBKP8CDPLoginSrvr@@AEXAAVCAr@@KPAEK@Z@std@@PAX@std@@@1@ABK@Z ; std::_Tree<std::_Tmap_traits<unsigned long,void (__thiscall CDPLoginSrvr::*)(CAr &,unsigned long,unsigned char *,unsigned long),std::less<unsigned long>,std::allocator<std::pair<unsigned long const ,void (__thiscall CDPLoginSrvr::*)(CAr &,unsigned long,unsigned char *,unsigned long)> >,0> >::_Find_lower_bound<unsigned long>
  0011a	f3 0f 7e 00	 movq	 xmm0, QWORD PTR [eax]
  0011e	8b 40 08	 mov	 eax, DWORD PTR [eax+8]
  00121	66 0f d6 45 dc	 movq	 QWORD PTR __Loc$9[ebp], xmm0

; 1624 :         return !_Bound->_Isnil && !_DEBUG_LT_PRED(_Getcomp(), _Keyval, _Traits::_Kfn(_Bound->_Myval));

  00126	80 78 0d 00	 cmp	 BYTE PTR [eax+13], 0
  0012a	75 09		 jne	 SHORT $LN152@CDPLoginSr
; File C:\Program Files\Microsoft Visual Studio\2022\Professional\VC\Tools\MSVC\14.44.35207\include\type_traits

; 2380 :         return _Left < _Right;

  0012c	81 78 10 f4 00
	00 00		 cmp	 DWORD PTR [eax+16], 244	; 000000f4H
; File C:\Program Files\Microsoft Visual Studio\2022\Professional\VC\Tools\MSVC\14.44.35207\include\xtree

; 1624 :         return !_Bound->_Isnil && !_DEBUG_LT_PRED(_Getcomp(), _Keyval, _Traits::_Kfn(_Bound->_Myval));

  00133	76 55		 jbe	 SHORT $LN227@CDPLoginSr
$LN152@CDPLoginSr:

; 1648 :         if (max_size() == _Get_scary()->_Mysize) {

  00135	81 7f 04 aa aa
	aa 0a		 cmp	 DWORD PTR [edi+4], 178956970 ; 0aaaaaaaH
  0013c	0f 84 88 02 00
	00		 je	 $LN652@CDPLoginSr

; 1023 :             _Inserted = _Tree_temp_node<_Alnode>(_Getal(), _Scary->_Myhead, _STD forward<_Valtys>(_Vals)...)._Release();

  00142	8b 37		 mov	 esi, DWORD PTR [edi]
; File C:\Program Files\Microsoft Visual Studio\2022\Professional\VC\Tools\MSVC\14.44.35207\include\xmemory

; 1160 :     _CONSTEXPR20 explicit _Alloc_construct_ptr(_Alloc& _Al_) : _Al(_Al_), _Ptr(nullptr) {}

  00144	89 7d e8	 mov	 DWORD PTR $T21[ebp], edi

; 136  :         return ::operator new(_Bytes);

  00147	6a 18		 push	 24			; 00000018H
; File C:\Program Files\Microsoft Visual Studio\2022\Professional\VC\Tools\MSVC\14.44.35207\include\xtree

; 808  :     explicit _Tree_temp_node_alloc(_Alnode& _Al_) : _Alloc_construct_ptr<_Alnode>(_Al_) {

  00149	c6 45 fc 03	 mov	 BYTE PTR __$EHRec$[ebp+8], 3
; File C:\Program Files\Microsoft Visual Studio\2022\Professional\VC\Tools\MSVC\14.44.35207\include\xmemory

; 1167 :         _Ptr = nullptr; // if allocate throws, prevents double-free

  0014d	c7 45 ec 00 00
	00 00		 mov	 DWORD PTR $T21[ebp+4], 0

; 136  :         return ::operator new(_Bytes);

  00154	e8 00 00 00 00	 call	 ??2@YAPAXI@Z		; operator new
  00159	83 c4 04	 add	 esp, 4
; File C:\Program Files\Microsoft Visual Studio\2022\Professional\VC\Tools\MSVC\14.44.35207\include\xtree

; 810  :     }

  0015c	c6 45 fc 01	 mov	 BYTE PTR __$EHRec$[ebp+8], 1

; 1042 :         return {_Scary->_Insert_node(_Loc._Location, _Inserted), true};

  00160	8b cf		 mov	 ecx, edi

; 830  :         _Alnode_traits::construct(this->_Al, _STD addressof(this->_Ptr->_Myval), _STD forward<_Valtys>(_Vals)...);

  00162	c7 40 10 f4 00
	00 00		 mov	 DWORD PTR [eax+16], 244	; 000000f4H

; 1042 :         return {_Scary->_Insert_node(_Loc._Location, _Inserted), true};

  00169	50		 push	 eax
  0016a	ff 75 e0	 push	 DWORD PTR __Loc$9[ebp+4]

; 830  :         _Alnode_traits::construct(this->_Al, _STD addressof(this->_Ptr->_Myval), _STD forward<_Valtys>(_Vals)...);

  0016d	c7 40 14 00 00
	00 00		 mov	 DWORD PTR [eax+20], OFFSET ?OnCreatePlayer@CDPLoginSrvr@@QAEXAAVCAr@@KPAEK@Z ; CDPLoginSrvr::OnCreatePlayer

; 1042 :         return {_Scary->_Insert_node(_Loc._Location, _Inserted), true};

  00174	ff 75 dc	 push	 DWORD PTR __Loc$9[ebp]

; 831  :         _Construct_in_place(this->_Ptr->_Left, _Myhead);

  00177	89 30		 mov	 DWORD PTR [eax], esi

; 832  :         _Construct_in_place(this->_Ptr->_Parent, _Myhead);

  00179	89 70 04	 mov	 DWORD PTR [eax+4], esi

; 833  :         _Construct_in_place(this->_Ptr->_Right, _Myhead);

  0017c	89 70 08	 mov	 DWORD PTR [eax+8], esi

; 834  :         this->_Ptr->_Color = _Red;

  0017f	66 c7 40 0c 00
	00		 mov	 WORD PTR [eax+12], 0

; 1042 :         return {_Scary->_Insert_node(_Loc._Location, _Inserted), true};

  00185	e8 00 00 00 00	 call	 ?_Insert_node@?$_Tree_val@U?$_Tree_simple_types@U?$pair@$$CBKP8CDPLoginSrvr@@AEXAAVCAr@@KPAEK@Z@std@@@std@@@std@@QAEPAU?$_Tree_node@U?$pair@$$CBKP8CDPLoginSrvr@@AEXAAVCAr@@KPAEK@Z@std@@PAX@2@U?$_Tree_id@PAU?$_Tree_node@U?$pair@$$CBKP8CDPLoginSrvr@@AEXAAVCAr@@KPAEK@Z@std@@PAX@std@@@2@QAU32@@Z ; std::_Tree_val<std::_Tree_simple_types<std::pair<unsigned long const ,void (__thiscall CDPLoginSrvr::*)(CAr &,unsigned long,unsigned char *,unsigned long)> > >::_Insert_node
$LN227@CDPLoginSr:

; 1017 :             _Loc                = _Find_lower_bound(_Keyval);

  0018a	8d 45 e8	 lea	 eax, DWORD PTR $T16[ebp]
; File C:\Program Files\Microsoft Visual Studio\2022\Professional\VC\Tools\MSVC\14.44.35207\include\utility

; 274  :         : first(_STD forward<_Other1>(_Val1)), second(_STD forward<_Other2>(_Val2)) {

  0018d	c7 45 e8 f5 00
	00 00		 mov	 DWORD PTR $T16[ebp], 245 ; 000000f5H
; File C:\Program Files\Microsoft Visual Studio\2022\Professional\VC\Tools\MSVC\14.44.35207\include\xtree

; 1017 :             _Loc                = _Find_lower_bound(_Keyval);

  00194	50		 push	 eax
  00195	8d 45 d0	 lea	 eax, DWORD PTR $T4[ebp]
; File C:\Program Files\Microsoft Visual Studio\2022\Professional\VC\Tools\MSVC\14.44.35207\include\utility

; 274  :         : first(_STD forward<_Other1>(_Val1)), second(_STD forward<_Other2>(_Val2)) {

  00198	c7 45 ec 00 00
	00 00		 mov	 DWORD PTR $T16[ebp+4], OFFSET ?OnRemovePlayer@CDPLoginSrvr@@QAEXAAVCAr@@KPAEK@Z ; CDPLoginSrvr::OnRemovePlayer
; File C:\Program Files\Microsoft Visual Studio\2022\Professional\VC\Tools\MSVC\14.44.35207\include\xtree

; 1017 :             _Loc                = _Find_lower_bound(_Keyval);

  0019f	50		 push	 eax
  001a0	8b cf		 mov	 ecx, edi
  001a2	e8 00 00 00 00	 call	 ??$_Find_lower_bound@K@?$_Tree@V?$_Tmap_traits@KP8CDPLoginSrvr@@AEXAAVCAr@@KPAEK@ZU?$less@K@std@@V?$allocator@U?$pair@$$CBKP8CDPLoginSrvr@@AEXAAVCAr@@KPAEK@Z@std@@@4@$0A@@std@@@std@@IBE?AU?$_Tree_find_result@PAU?$_Tree_node@U?$pair@$$CBKP8CDPLoginSrvr@@AEXAAVCAr@@KPAEK@Z@std@@PAX@std@@@1@ABK@Z ; std::_Tree<std::_Tmap_traits<unsigned long,void (__thiscall CDPLoginSrvr::*)(CAr &,unsigned long,unsigned char *,unsigned long),std::less<unsigned long>,std::allocator<std::pair<unsigned long const ,void (__thiscall CDPLoginSrvr::*)(CAr &,unsigned long,unsigned char *,unsigned long)> >,0> >::_Find_lower_bound<unsigned long>
  001a7	f3 0f 7e 00	 movq	 xmm0, QWORD PTR [eax]
  001ab	8b 40 08	 mov	 eax, DWORD PTR [eax+8]
  001ae	66 0f d6 45 dc	 movq	 QWORD PTR __Loc$10[ebp], xmm0

; 1624 :         return !_Bound->_Isnil && !_DEBUG_LT_PRED(_Getcomp(), _Keyval, _Traits::_Kfn(_Bound->_Myval));

  001b3	80 78 0d 00	 cmp	 BYTE PTR [eax+13], 0
  001b7	75 09		 jne	 SHORT $LN253@CDPLoginSr
; File C:\Program Files\Microsoft Visual Studio\2022\Professional\VC\Tools\MSVC\14.44.35207\include\type_traits

; 2380 :         return _Left < _Right;

  001b9	81 78 10 f5 00
	00 00		 cmp	 DWORD PTR [eax+16], 245	; 000000f5H
; File C:\Program Files\Microsoft Visual Studio\2022\Professional\VC\Tools\MSVC\14.44.35207\include\xtree

; 1624 :         return !_Bound->_Isnil && !_DEBUG_LT_PRED(_Getcomp(), _Keyval, _Traits::_Kfn(_Bound->_Myval));

  001c0	76 55		 jbe	 SHORT $LN328@CDPLoginSr
$LN253@CDPLoginSr:

; 1648 :         if (max_size() == _Get_scary()->_Mysize) {

  001c2	81 7f 04 aa aa
	aa 0a		 cmp	 DWORD PTR [edi+4], 178956970 ; 0aaaaaaaH
  001c9	0f 84 fb 01 00
	00		 je	 $LN652@CDPLoginSr

; 1023 :             _Inserted = _Tree_temp_node<_Alnode>(_Getal(), _Scary->_Myhead, _STD forward<_Valtys>(_Vals)...)._Release();

  001cf	8b 37		 mov	 esi, DWORD PTR [edi]
; File C:\Program Files\Microsoft Visual Studio\2022\Professional\VC\Tools\MSVC\14.44.35207\include\xmemory

; 1160 :     _CONSTEXPR20 explicit _Alloc_construct_ptr(_Alloc& _Al_) : _Al(_Al_), _Ptr(nullptr) {}

  001d1	89 7d e8	 mov	 DWORD PTR $T22[ebp], edi

; 136  :         return ::operator new(_Bytes);

  001d4	6a 18		 push	 24			; 00000018H
; File C:\Program Files\Microsoft Visual Studio\2022\Professional\VC\Tools\MSVC\14.44.35207\include\xtree

; 808  :     explicit _Tree_temp_node_alloc(_Alnode& _Al_) : _Alloc_construct_ptr<_Alnode>(_Al_) {

  001d6	c6 45 fc 04	 mov	 BYTE PTR __$EHRec$[ebp+8], 4
; File C:\Program Files\Microsoft Visual Studio\2022\Professional\VC\Tools\MSVC\14.44.35207\include\xmemory

; 1167 :         _Ptr = nullptr; // if allocate throws, prevents double-free

  001da	c7 45 ec 00 00
	00 00		 mov	 DWORD PTR $T22[ebp+4], 0

; 136  :         return ::operator new(_Bytes);

  001e1	e8 00 00 00 00	 call	 ??2@YAPAXI@Z		; operator new
  001e6	83 c4 04	 add	 esp, 4
; File C:\Program Files\Microsoft Visual Studio\2022\Professional\VC\Tools\MSVC\14.44.35207\include\xtree

; 810  :     }

  001e9	c6 45 fc 01	 mov	 BYTE PTR __$EHRec$[ebp+8], 1

; 1042 :         return {_Scary->_Insert_node(_Loc._Location, _Inserted), true};

  001ed	8b cf		 mov	 ecx, edi

; 830  :         _Alnode_traits::construct(this->_Al, _STD addressof(this->_Ptr->_Myval), _STD forward<_Valtys>(_Vals)...);

  001ef	c7 40 10 f5 00
	00 00		 mov	 DWORD PTR [eax+16], 245	; 000000f5H

; 1042 :         return {_Scary->_Insert_node(_Loc._Location, _Inserted), true};

  001f6	50		 push	 eax
  001f7	ff 75 e0	 push	 DWORD PTR __Loc$10[ebp+4]

; 830  :         _Alnode_traits::construct(this->_Al, _STD addressof(this->_Ptr->_Myval), _STD forward<_Valtys>(_Vals)...);

  001fa	c7 40 14 00 00
	00 00		 mov	 DWORD PTR [eax+20], OFFSET ?OnRemovePlayer@CDPLoginSrvr@@QAEXAAVCAr@@KPAEK@Z ; CDPLoginSrvr::OnRemovePlayer

; 1042 :         return {_Scary->_Insert_node(_Loc._Location, _Inserted), true};

  00201	ff 75 dc	 push	 DWORD PTR __Loc$10[ebp]

; 831  :         _Construct_in_place(this->_Ptr->_Left, _Myhead);

  00204	89 30		 mov	 DWORD PTR [eax], esi

; 832  :         _Construct_in_place(this->_Ptr->_Parent, _Myhead);

  00206	89 70 04	 mov	 DWORD PTR [eax+4], esi

; 833  :         _Construct_in_place(this->_Ptr->_Right, _Myhead);

  00209	89 70 08	 mov	 DWORD PTR [eax+8], esi

; 834  :         this->_Ptr->_Color = _Red;

  0020c	66 c7 40 0c 00
	00		 mov	 WORD PTR [eax+12], 0

; 1042 :         return {_Scary->_Insert_node(_Loc._Location, _Inserted), true};

  00212	e8 00 00 00 00	 call	 ?_Insert_node@?$_Tree_val@U?$_Tree_simple_types@U?$pair@$$CBKP8CDPLoginSrvr@@AEXAAVCAr@@KPAEK@Z@std@@@std@@@std@@QAEPAU?$_Tree_node@U?$pair@$$CBKP8CDPLoginSrvr@@AEXAAVCAr@@KPAEK@Z@std@@PAX@2@U?$_Tree_id@PAU?$_Tree_node@U?$pair@$$CBKP8CDPLoginSrvr@@AEXAAVCAr@@KPAEK@Z@std@@PAX@std@@@2@QAU32@@Z ; std::_Tree_val<std::_Tree_simple_types<std::pair<unsigned long const ,void (__thiscall CDPLoginSrvr::*)(CAr &,unsigned long,unsigned char *,unsigned long)> > >::_Insert_node
$LN328@CDPLoginSr:

; 1017 :             _Loc                = _Find_lower_bound(_Keyval);

  00217	8d 45 e8	 lea	 eax, DWORD PTR $T17[ebp]
; File C:\Program Files\Microsoft Visual Studio\2022\Professional\VC\Tools\MSVC\14.44.35207\include\utility

; 274  :         : first(_STD forward<_Other1>(_Val1)), second(_STD forward<_Other2>(_Val2)) {

  0021a	c7 45 e8 01 ff
	00 00		 mov	 DWORD PTR $T17[ebp], 65281 ; 0000ff01H
; File C:\Program Files\Microsoft Visual Studio\2022\Professional\VC\Tools\MSVC\14.44.35207\include\xtree

; 1017 :             _Loc                = _Find_lower_bound(_Keyval);

  00221	50		 push	 eax
  00222	8d 45 d0	 lea	 eax, DWORD PTR $T5[ebp]
; File C:\Program Files\Microsoft Visual Studio\2022\Professional\VC\Tools\MSVC\14.44.35207\include\utility

; 274  :         : first(_STD forward<_Other1>(_Val1)), second(_STD forward<_Other2>(_Val2)) {

  00225	c7 45 ec 00 00
	00 00		 mov	 DWORD PTR $T17[ebp+4], OFFSET ?OnLeave@CDPLoginSrvr@@QAEXAAVCAr@@KPAEK@Z ; CDPLoginSrvr::OnLeave
; File C:\Program Files\Microsoft Visual Studio\2022\Professional\VC\Tools\MSVC\14.44.35207\include\xtree

; 1017 :             _Loc                = _Find_lower_bound(_Keyval);

  0022c	50		 push	 eax
  0022d	8b cf		 mov	 ecx, edi
  0022f	e8 00 00 00 00	 call	 ??$_Find_lower_bound@K@?$_Tree@V?$_Tmap_traits@KP8CDPLoginSrvr@@AEXAAVCAr@@KPAEK@ZU?$less@K@std@@V?$allocator@U?$pair@$$CBKP8CDPLoginSrvr@@AEXAAVCAr@@KPAEK@Z@std@@@4@$0A@@std@@@std@@IBE?AU?$_Tree_find_result@PAU?$_Tree_node@U?$pair@$$CBKP8CDPLoginSrvr@@AEXAAVCAr@@KPAEK@Z@std@@PAX@std@@@1@ABK@Z ; std::_Tree<std::_Tmap_traits<unsigned long,void (__thiscall CDPLoginSrvr::*)(CAr &,unsigned long,unsigned char *,unsigned long),std::less<unsigned long>,std::allocator<std::pair<unsigned long const ,void (__thiscall CDPLoginSrvr::*)(CAr &,unsigned long,unsigned char *,unsigned long)> >,0> >::_Find_lower_bound<unsigned long>
  00234	f3 0f 7e 00	 movq	 xmm0, QWORD PTR [eax]
  00238	8b 40 08	 mov	 eax, DWORD PTR [eax+8]
  0023b	66 0f d6 45 dc	 movq	 QWORD PTR __Loc$11[ebp], xmm0

; 1624 :         return !_Bound->_Isnil && !_DEBUG_LT_PRED(_Getcomp(), _Keyval, _Traits::_Kfn(_Bound->_Myval));

  00240	80 78 0d 00	 cmp	 BYTE PTR [eax+13], 0
  00244	75 09		 jne	 SHORT $LN354@CDPLoginSr
; File C:\Program Files\Microsoft Visual Studio\2022\Professional\VC\Tools\MSVC\14.44.35207\include\type_traits

; 2380 :         return _Left < _Right;

  00246	81 78 10 01 ff
	00 00		 cmp	 DWORD PTR [eax+16], 65281 ; 0000ff01H
; File C:\Program Files\Microsoft Visual Studio\2022\Professional\VC\Tools\MSVC\14.44.35207\include\xtree

; 1624 :         return !_Bound->_Isnil && !_DEBUG_LT_PRED(_Getcomp(), _Keyval, _Traits::_Kfn(_Bound->_Myval));

  0024d	76 55		 jbe	 SHORT $LN429@CDPLoginSr
$LN354@CDPLoginSr:

; 1648 :         if (max_size() == _Get_scary()->_Mysize) {

  0024f	81 7f 04 aa aa
	aa 0a		 cmp	 DWORD PTR [edi+4], 178956970 ; 0aaaaaaaH
  00256	0f 84 6e 01 00
	00		 je	 $LN652@CDPLoginSr

; 1023 :             _Inserted = _Tree_temp_node<_Alnode>(_Getal(), _Scary->_Myhead, _STD forward<_Valtys>(_Vals)...)._Release();

  0025c	8b 37		 mov	 esi, DWORD PTR [edi]
; File C:\Program Files\Microsoft Visual Studio\2022\Professional\VC\Tools\MSVC\14.44.35207\include\xmemory

; 1160 :     _CONSTEXPR20 explicit _Alloc_construct_ptr(_Alloc& _Al_) : _Al(_Al_), _Ptr(nullptr) {}

  0025e	89 7d e8	 mov	 DWORD PTR $T23[ebp], edi

; 136  :         return ::operator new(_Bytes);

  00261	6a 18		 push	 24			; 00000018H
; File C:\Program Files\Microsoft Visual Studio\2022\Professional\VC\Tools\MSVC\14.44.35207\include\xtree

; 808  :     explicit _Tree_temp_node_alloc(_Alnode& _Al_) : _Alloc_construct_ptr<_Alnode>(_Al_) {

  00263	c6 45 fc 05	 mov	 BYTE PTR __$EHRec$[ebp+8], 5
; File C:\Program Files\Microsoft Visual Studio\2022\Professional\VC\Tools\MSVC\14.44.35207\include\xmemory

; 1167 :         _Ptr = nullptr; // if allocate throws, prevents double-free

  00267	c7 45 ec 00 00
	00 00		 mov	 DWORD PTR $T23[ebp+4], 0

; 136  :         return ::operator new(_Bytes);

  0026e	e8 00 00 00 00	 call	 ??2@YAPAXI@Z		; operator new
  00273	83 c4 04	 add	 esp, 4
; File C:\Program Files\Microsoft Visual Studio\2022\Professional\VC\Tools\MSVC\14.44.35207\include\xtree

; 810  :     }

  00276	c6 45 fc 01	 mov	 BYTE PTR __$EHRec$[ebp+8], 1

; 1042 :         return {_Scary->_Insert_node(_Loc._Location, _Inserted), true};

  0027a	8b cf		 mov	 ecx, edi

; 830  :         _Alnode_traits::construct(this->_Al, _STD addressof(this->_Ptr->_Myval), _STD forward<_Valtys>(_Vals)...);

  0027c	c7 40 10 01 ff
	00 00		 mov	 DWORD PTR [eax+16], 65281 ; 0000ff01H

; 1042 :         return {_Scary->_Insert_node(_Loc._Location, _Inserted), true};

  00283	50		 push	 eax
  00284	ff 75 e0	 push	 DWORD PTR __Loc$11[ebp+4]

; 830  :         _Alnode_traits::construct(this->_Al, _STD addressof(this->_Ptr->_Myval), _STD forward<_Valtys>(_Vals)...);

  00287	c7 40 14 00 00
	00 00		 mov	 DWORD PTR [eax+20], OFFSET ?OnLeave@CDPLoginSrvr@@QAEXAAVCAr@@KPAEK@Z ; CDPLoginSrvr::OnLeave

; 1042 :         return {_Scary->_Insert_node(_Loc._Location, _Inserted), true};

  0028e	ff 75 dc	 push	 DWORD PTR __Loc$11[ebp]

; 831  :         _Construct_in_place(this->_Ptr->_Left, _Myhead);

  00291	89 30		 mov	 DWORD PTR [eax], esi

; 832  :         _Construct_in_place(this->_Ptr->_Parent, _Myhead);

  00293	89 70 04	 mov	 DWORD PTR [eax+4], esi

; 833  :         _Construct_in_place(this->_Ptr->_Right, _Myhead);

  00296	89 70 08	 mov	 DWORD PTR [eax+8], esi

; 834  :         this->_Ptr->_Color = _Red;

  00299	66 c7 40 0c 00
	00		 mov	 WORD PTR [eax+12], 0

; 1042 :         return {_Scary->_Insert_node(_Loc._Location, _Inserted), true};

  0029f	e8 00 00 00 00	 call	 ?_Insert_node@?$_Tree_val@U?$_Tree_simple_types@U?$pair@$$CBKP8CDPLoginSrvr@@AEXAAVCAr@@KPAEK@Z@std@@@std@@@std@@QAEPAU?$_Tree_node@U?$pair@$$CBKP8CDPLoginSrvr@@AEXAAVCAr@@KPAEK@Z@std@@PAX@2@U?$_Tree_id@PAU?$_Tree_node@U?$pair@$$CBKP8CDPLoginSrvr@@AEXAAVCAr@@KPAEK@Z@std@@PAX@std@@@2@QAU32@@Z ; std::_Tree_val<std::_Tree_simple_types<std::pair<unsigned long const ,void (__thiscall CDPLoginSrvr::*)(CAr &,unsigned long,unsigned char *,unsigned long)> > >::_Insert_node
$LN429@CDPLoginSr:

; 1017 :             _Loc                = _Find_lower_bound(_Keyval);

  002a4	8d 45 e8	 lea	 eax, DWORD PTR $T18[ebp]
; File C:\Program Files\Microsoft Visual Studio\2022\Professional\VC\Tools\MSVC\14.44.35207\include\utility

; 274  :         : first(_STD forward<_Other1>(_Val1)), second(_STD forward<_Other2>(_Val2)) {

  002a7	c7 45 e8 04 ff
	00 00		 mov	 DWORD PTR $T18[ebp], 65284 ; 0000ff04H
; File C:\Program Files\Microsoft Visual Studio\2022\Professional\VC\Tools\MSVC\14.44.35207\include\xtree

; 1017 :             _Loc                = _Find_lower_bound(_Keyval);

  002ae	50		 push	 eax
  002af	8d 45 d0	 lea	 eax, DWORD PTR $T6[ebp]
; File C:\Program Files\Microsoft Visual Studio\2022\Professional\VC\Tools\MSVC\14.44.35207\include\utility

; 274  :         : first(_STD forward<_Other1>(_Val1)), second(_STD forward<_Other2>(_Val2)) {

  002b2	c7 45 ec 00 00
	00 00		 mov	 DWORD PTR $T18[ebp+4], OFFSET ?OnCloseError@CDPLoginSrvr@@QAEXAAVCAr@@KPAEK@Z ; CDPLoginSrvr::OnCloseError
; File C:\Program Files\Microsoft Visual Studio\2022\Professional\VC\Tools\MSVC\14.44.35207\include\xtree

; 1017 :             _Loc                = _Find_lower_bound(_Keyval);

  002b9	50		 push	 eax
  002ba	8b cf		 mov	 ecx, edi
  002bc	e8 00 00 00 00	 call	 ??$_Find_lower_bound@K@?$_Tree@V?$_Tmap_traits@KP8CDPLoginSrvr@@AEXAAVCAr@@KPAEK@ZU?$less@K@std@@V?$allocator@U?$pair@$$CBKP8CDPLoginSrvr@@AEXAAVCAr@@KPAEK@Z@std@@@4@$0A@@std@@@std@@IBE?AU?$_Tree_find_result@PAU?$_Tree_node@U?$pair@$$CBKP8CDPLoginSrvr@@AEXAAVCAr@@KPAEK@Z@std@@PAX@std@@@1@ABK@Z ; std::_Tree<std::_Tmap_traits<unsigned long,void (__thiscall CDPLoginSrvr::*)(CAr &,unsigned long,unsigned char *,unsigned long),std::less<unsigned long>,std::allocator<std::pair<unsigned long const ,void (__thiscall CDPLoginSrvr::*)(CAr &,unsigned long,unsigned char *,unsigned long)> >,0> >::_Find_lower_bound<unsigned long>
  002c1	f3 0f 7e 00	 movq	 xmm0, QWORD PTR [eax]
  002c5	8b 40 08	 mov	 eax, DWORD PTR [eax+8]
  002c8	66 0f d6 45 dc	 movq	 QWORD PTR __Loc$12[ebp], xmm0

; 1624 :         return !_Bound->_Isnil && !_DEBUG_LT_PRED(_Getcomp(), _Keyval, _Traits::_Kfn(_Bound->_Myval));

  002cd	80 78 0d 00	 cmp	 BYTE PTR [eax+13], 0
  002d1	75 09		 jne	 SHORT $LN455@CDPLoginSr
; File C:\Program Files\Microsoft Visual Studio\2022\Professional\VC\Tools\MSVC\14.44.35207\include\type_traits

; 2380 :         return _Left < _Right;

  002d3	81 78 10 04 ff
	00 00		 cmp	 DWORD PTR [eax+16], 65284 ; 0000ff04H
; File C:\Program Files\Microsoft Visual Studio\2022\Professional\VC\Tools\MSVC\14.44.35207\include\xtree

; 1624 :         return !_Bound->_Isnil && !_DEBUG_LT_PRED(_Getcomp(), _Keyval, _Traits::_Kfn(_Bound->_Myval));

  002da	76 55		 jbe	 SHORT $LN530@CDPLoginSr
$LN455@CDPLoginSr:

; 1648 :         if (max_size() == _Get_scary()->_Mysize) {

  002dc	81 7f 04 aa aa
	aa 0a		 cmp	 DWORD PTR [edi+4], 178956970 ; 0aaaaaaaH
  002e3	0f 84 e1 00 00
	00		 je	 $LN652@CDPLoginSr

; 1023 :             _Inserted = _Tree_temp_node<_Alnode>(_Getal(), _Scary->_Myhead, _STD forward<_Valtys>(_Vals)...)._Release();

  002e9	8b 37		 mov	 esi, DWORD PTR [edi]
; File C:\Program Files\Microsoft Visual Studio\2022\Professional\VC\Tools\MSVC\14.44.35207\include\xmemory

; 1160 :     _CONSTEXPR20 explicit _Alloc_construct_ptr(_Alloc& _Al_) : _Al(_Al_), _Ptr(nullptr) {}

  002eb	89 7d e8	 mov	 DWORD PTR $T24[ebp], edi

; 136  :         return ::operator new(_Bytes);

  002ee	6a 18		 push	 24			; 00000018H
; File C:\Program Files\Microsoft Visual Studio\2022\Professional\VC\Tools\MSVC\14.44.35207\include\xtree

; 808  :     explicit _Tree_temp_node_alloc(_Alnode& _Al_) : _Alloc_construct_ptr<_Alnode>(_Al_) {

  002f0	c6 45 fc 06	 mov	 BYTE PTR __$EHRec$[ebp+8], 6
; File C:\Program Files\Microsoft Visual Studio\2022\Professional\VC\Tools\MSVC\14.44.35207\include\xmemory

; 1167 :         _Ptr = nullptr; // if allocate throws, prevents double-free

  002f4	c7 45 ec 00 00
	00 00		 mov	 DWORD PTR $T24[ebp+4], 0

; 136  :         return ::operator new(_Bytes);

  002fb	e8 00 00 00 00	 call	 ??2@YAPAXI@Z		; operator new
  00300	83 c4 04	 add	 esp, 4
; File C:\Program Files\Microsoft Visual Studio\2022\Professional\VC\Tools\MSVC\14.44.35207\include\xtree

; 810  :     }

  00303	c6 45 fc 01	 mov	 BYTE PTR __$EHRec$[ebp+8], 1

; 1042 :         return {_Scary->_Insert_node(_Loc._Location, _Inserted), true};

  00307	8b cf		 mov	 ecx, edi

; 830  :         _Alnode_traits::construct(this->_Al, _STD addressof(this->_Ptr->_Myval), _STD forward<_Valtys>(_Vals)...);

  00309	c7 40 10 04 ff
	00 00		 mov	 DWORD PTR [eax+16], 65284 ; 0000ff04H

; 1042 :         return {_Scary->_Insert_node(_Loc._Location, _Inserted), true};

  00310	50		 push	 eax
  00311	ff 75 e0	 push	 DWORD PTR __Loc$12[ebp+4]

; 830  :         _Alnode_traits::construct(this->_Al, _STD addressof(this->_Ptr->_Myval), _STD forward<_Valtys>(_Vals)...);

  00314	c7 40 14 00 00
	00 00		 mov	 DWORD PTR [eax+20], OFFSET ?OnCloseError@CDPLoginSrvr@@QAEXAAVCAr@@KPAEK@Z ; CDPLoginSrvr::OnCloseError

; 1042 :         return {_Scary->_Insert_node(_Loc._Location, _Inserted), true};

  0031b	ff 75 dc	 push	 DWORD PTR __Loc$12[ebp]

; 831  :         _Construct_in_place(this->_Ptr->_Left, _Myhead);

  0031e	89 30		 mov	 DWORD PTR [eax], esi

; 832  :         _Construct_in_place(this->_Ptr->_Parent, _Myhead);

  00320	89 70 04	 mov	 DWORD PTR [eax+4], esi

; 833  :         _Construct_in_place(this->_Ptr->_Right, _Myhead);

  00323	89 70 08	 mov	 DWORD PTR [eax+8], esi

; 834  :         this->_Ptr->_Color = _Red;

  00326	66 c7 40 0c 00
	00		 mov	 WORD PTR [eax+12], 0

; 1042 :         return {_Scary->_Insert_node(_Loc._Location, _Inserted), true};

  0032c	e8 00 00 00 00	 call	 ?_Insert_node@?$_Tree_val@U?$_Tree_simple_types@U?$pair@$$CBKP8CDPLoginSrvr@@AEXAAVCAr@@KPAEK@Z@std@@@std@@@std@@QAEPAU?$_Tree_node@U?$pair@$$CBKP8CDPLoginSrvr@@AEXAAVCAr@@KPAEK@Z@std@@PAX@2@U?$_Tree_id@PAU?$_Tree_node@U?$pair@$$CBKP8CDPLoginSrvr@@AEXAAVCAr@@KPAEK@Z@std@@PAX@std@@@2@QAU32@@Z ; std::_Tree_val<std::_Tree_simple_types<std::pair<unsigned long const ,void (__thiscall CDPLoginSrvr::*)(CAr &,unsigned long,unsigned char *,unsigned long)> > >::_Insert_node
$LN530@CDPLoginSr:

; 1017 :             _Loc                = _Find_lower_bound(_Keyval);

  00331	8d 45 e8	 lea	 eax, DWORD PTR $T19[ebp]
; File C:\Program Files\Microsoft Visual Studio\2022\Professional\VC\Tools\MSVC\14.44.35207\include\utility

; 274  :         : first(_STD forward<_Other1>(_Val1)), second(_STD forward<_Other2>(_Val2)) {

  00334	c7 45 e8 01 02
	10 88		 mov	 DWORD PTR $T19[ebp], -2012216831 ; 88100201H
; File C:\Program Files\Microsoft Visual Studio\2022\Professional\VC\Tools\MSVC\14.44.35207\include\xtree

; 1017 :             _Loc                = _Find_lower_bound(_Keyval);

  0033b	50		 push	 eax
  0033c	8d 45 d0	 lea	 eax, DWORD PTR $T7[ebp]
; File C:\Program Files\Microsoft Visual Studio\2022\Professional\VC\Tools\MSVC\14.44.35207\include\utility

; 274  :         : first(_STD forward<_Other1>(_Val1)), second(_STD forward<_Other2>(_Val2)) {

  0033f	c7 45 ec 00 00
	00 00		 mov	 DWORD PTR $T19[ebp+4], OFFSET ?OnLoginProtect@CDPLoginSrvr@@QAEXAAVCAr@@KPAEK@Z ; CDPLoginSrvr::OnLoginProtect
; File C:\Program Files\Microsoft Visual Studio\2022\Professional\VC\Tools\MSVC\14.44.35207\include\xtree

; 1017 :             _Loc                = _Find_lower_bound(_Keyval);

  00346	50		 push	 eax
  00347	8b cf		 mov	 ecx, edi
  00349	e8 00 00 00 00	 call	 ??$_Find_lower_bound@K@?$_Tree@V?$_Tmap_traits@KP8CDPLoginSrvr@@AEXAAVCAr@@KPAEK@ZU?$less@K@std@@V?$allocator@U?$pair@$$CBKP8CDPLoginSrvr@@AEXAAVCAr@@KPAEK@Z@std@@@4@$0A@@std@@@std@@IBE?AU?$_Tree_find_result@PAU?$_Tree_node@U?$pair@$$CBKP8CDPLoginSrvr@@AEXAAVCAr@@KPAEK@Z@std@@PAX@std@@@1@ABK@Z ; std::_Tree<std::_Tmap_traits<unsigned long,void (__thiscall CDPLoginSrvr::*)(CAr &,unsigned long,unsigned char *,unsigned long),std::less<unsigned long>,std::allocator<std::pair<unsigned long const ,void (__thiscall CDPLoginSrvr::*)(CAr &,unsigned long,unsigned char *,unsigned long)> >,0> >::_Find_lower_bound<unsigned long>
  0034e	f3 0f 7e 00	 movq	 xmm0, QWORD PTR [eax]
  00352	8b 40 08	 mov	 eax, DWORD PTR [eax+8]
  00355	66 0f d6 45 dc	 movq	 QWORD PTR __Loc$13[ebp], xmm0

; 1624 :         return !_Bound->_Isnil && !_DEBUG_LT_PRED(_Getcomp(), _Keyval, _Traits::_Kfn(_Bound->_Myval));

  0035a	80 78 0d 00	 cmp	 BYTE PTR [eax+13], 0
  0035e	75 09		 jne	 SHORT $LN556@CDPLoginSr
; File C:\Program Files\Microsoft Visual Studio\2022\Professional\VC\Tools\MSVC\14.44.35207\include\type_traits

; 2380 :         return _Left < _Right;

  00360	81 78 10 01 02
	10 88		 cmp	 DWORD PTR [eax+16], -2012216831 ; 88100201H
; File C:\Program Files\Microsoft Visual Studio\2022\Professional\VC\Tools\MSVC\14.44.35207\include\xtree

; 1624 :         return !_Bound->_Isnil && !_DEBUG_LT_PRED(_Getcomp(), _Keyval, _Traits::_Kfn(_Bound->_Myval));

  00367	76 4d		 jbe	 SHORT $LN631@CDPLoginSr
$LN556@CDPLoginSr:

; 1648 :         if (max_size() == _Get_scary()->_Mysize) {

  00369	81 7f 04 aa aa
	aa 0a		 cmp	 DWORD PTR [edi+4], 178956970 ; 0aaaaaaaH
  00370	74 58		 je	 SHORT $LN652@CDPLoginSr

; 1023 :             _Inserted = _Tree_temp_node<_Alnode>(_Getal(), _Scary->_Myhead, _STD forward<_Valtys>(_Vals)...)._Release();

  00372	8b 37		 mov	 esi, DWORD PTR [edi]
; File C:\Program Files\Microsoft Visual Studio\2022\Professional\VC\Tools\MSVC\14.44.35207\include\xmemory

; 1160 :     _CONSTEXPR20 explicit _Alloc_construct_ptr(_Alloc& _Al_) : _Al(_Al_), _Ptr(nullptr) {}

  00374	89 7d e8	 mov	 DWORD PTR $T25[ebp], edi

; 136  :         return ::operator new(_Bytes);

  00377	6a 18		 push	 24			; 00000018H
; File C:\Program Files\Microsoft Visual Studio\2022\Professional\VC\Tools\MSVC\14.44.35207\include\xtree

; 808  :     explicit _Tree_temp_node_alloc(_Alnode& _Al_) : _Alloc_construct_ptr<_Alnode>(_Al_) {

  00379	c6 45 fc 07	 mov	 BYTE PTR __$EHRec$[ebp+8], 7
; File C:\Program Files\Microsoft Visual Studio\2022\Professional\VC\Tools\MSVC\14.44.35207\include\xmemory

; 1167 :         _Ptr = nullptr; // if allocate throws, prevents double-free

  0037d	c7 45 ec 00 00
	00 00		 mov	 DWORD PTR $T25[ebp+4], 0

; 136  :         return ::operator new(_Bytes);

  00384	e8 00 00 00 00	 call	 ??2@YAPAXI@Z		; operator new
  00389	83 c4 04	 add	 esp, 4
; File C:\Program Files\Microsoft Visual Studio\2022\Professional\VC\Tools\MSVC\14.44.35207\include\xtree

; 1042 :         return {_Scary->_Insert_node(_Loc._Location, _Inserted), true};

  0038c	8b cf		 mov	 ecx, edi

; 830  :         _Alnode_traits::construct(this->_Al, _STD addressof(this->_Ptr->_Myval), _STD forward<_Valtys>(_Vals)...);

  0038e	c7 40 10 01 02
	10 88		 mov	 DWORD PTR [eax+16], -2012216831 ; 88100201H

; 1042 :         return {_Scary->_Insert_node(_Loc._Location, _Inserted), true};

  00395	50		 push	 eax
  00396	ff 75 e0	 push	 DWORD PTR __Loc$13[ebp+4]

; 830  :         _Alnode_traits::construct(this->_Al, _STD addressof(this->_Ptr->_Myval), _STD forward<_Valtys>(_Vals)...);

  00399	c7 40 14 00 00
	00 00		 mov	 DWORD PTR [eax+20], OFFSET ?OnLoginProtect@CDPLoginSrvr@@QAEXAAVCAr@@KPAEK@Z ; CDPLoginSrvr::OnLoginProtect

; 1042 :         return {_Scary->_Insert_node(_Loc._Location, _Inserted), true};

  003a0	ff 75 dc	 push	 DWORD PTR __Loc$13[ebp]

; 831  :         _Construct_in_place(this->_Ptr->_Left, _Myhead);

  003a3	89 30		 mov	 DWORD PTR [eax], esi

; 832  :         _Construct_in_place(this->_Ptr->_Parent, _Myhead);

  003a5	89 70 04	 mov	 DWORD PTR [eax+4], esi

; 833  :         _Construct_in_place(this->_Ptr->_Right, _Myhead);

  003a8	89 70 08	 mov	 DWORD PTR [eax+8], esi

; 834  :         this->_Ptr->_Color = _Red;

  003ab	66 c7 40 0c 00
	00		 mov	 WORD PTR [eax+12], 0

; 1042 :         return {_Scary->_Insert_node(_Loc._Location, _Inserted), true};

  003b1	e8 00 00 00 00	 call	 ?_Insert_node@?$_Tree_val@U?$_Tree_simple_types@U?$pair@$$CBKP8CDPLoginSrvr@@AEXAAVCAr@@KPAEK@Z@std@@@std@@@std@@QAEPAU?$_Tree_node@U?$pair@$$CBKP8CDPLoginSrvr@@AEXAAVCAr@@KPAEK@Z@std@@PAX@2@U?$_Tree_id@PAU?$_Tree_node@U?$pair@$$CBKP8CDPLoginSrvr@@AEXAAVCAr@@KPAEK@Z@std@@PAX@std@@@2@QAU32@@Z ; std::_Tree_val<std::_Tree_simple_types<std::pair<unsigned long const ,void (__thiscall CDPLoginSrvr::*)(CAr &,unsigned long,unsigned char *,unsigned long)> > >::_Insert_node
$LN631@CDPLoginSr:
; File C:\IAGOS\server\v18\Source\Source\DatabaseServer\DPLoginSrvr.cpp

; 25   : }

  003b6	8b c3		 mov	 eax, ebx
  003b8	8b 4d f4	 mov	 ecx, DWORD PTR __$EHRec$[ebp]
  003bb	64 89 0d 00 00
	00 00		 mov	 DWORD PTR fs:0, ecx
  003c2	59		 pop	 ecx
  003c3	5f		 pop	 edi
  003c4	5e		 pop	 esi
  003c5	5b		 pop	 ebx
  003c6	8b e5		 mov	 esp, ebp
  003c8	5d		 pop	 ebp
  003c9	c3		 ret	 0
$LN652@CDPLoginSr:
; File C:\Program Files\Microsoft Visual Studio\2022\Professional\VC\Tools\MSVC\14.44.35207\include\xtree

; 1649 :             _Throw_tree_length_error();

  003ca	e8 00 00 00 00	 call	 ?_Throw_tree_length_error@std@@YAXXZ ; std::_Throw_tree_length_error
$LN659@CDPLoginSr:
  003cf	cc		 int	 3
_TEXT	ENDS
;	COMDAT text$x
text$x	SEGMENT
__unwindfunclet$??0CDPLoginSrvr@@QAE@XZ$0:
  00000	8b 4d f0	 mov	 ecx, DWORD PTR _this$[ebp]
  00003	e9 00 00 00 00	 jmp	 ??1CDPMng@@UAE@XZ	; CDPMng::~CDPMng
__unwindfunclet$??0CDPLoginSrvr@@QAE@XZ$1:
  00008	8b 4d f0	 mov	 ecx, DWORD PTR _this$[ebp]
  0000b	83 c1 10	 add	 ecx, 16			; 00000010H
  0000e	e9 00 00 00 00	 jmp	 ??1?$map@KP8CDPLoginSrvr@@AEXAAVCAr@@KPAEK@ZU?$less@K@std@@V?$allocator@U?$pair@$$CBKP8CDPLoginSrvr@@AEXAAVCAr@@KPAEK@Z@std@@@4@@std@@QAE@XZ
__unwindfunclet$??0CDPLoginSrvr@@QAE@XZ$5:
  00013	8d 4d e8	 lea	 ecx, DWORD PTR $T20[ebp]
  00016	e9 00 00 00 00	 jmp	 ??1?$_Alloc_construct_ptr@V?$allocator@U?$_Tree_node@U?$pair@$$CBKP8CDPLoginSrvr@@AEXAAVCAr@@KPAEK@Z@std@@PAX@std@@@std@@@std@@QAE@XZ ; std::_Alloc_construct_ptr<std::allocator<std::_Tree_node<std::pair<unsigned long const ,void (__thiscall CDPLoginSrvr::*)(CAr &,unsigned long,unsigned char *,unsigned long)>,void *> > >::~_Alloc_construct_ptr<std::allocator<std::_Tree_node<std::pair<unsigned long const ,void (__thiscall CDPLoginSrvr::*)(CAr &,unsigned long,unsigned char *,unsigned long)>,void *> > >
__unwindfunclet$??0CDPLoginSrvr@@QAE@XZ$10:
  0001b	8d 4d e8	 lea	 ecx, DWORD PTR $T21[ebp]
  0001e	e9 00 00 00 00	 jmp	 ??1?$_Alloc_construct_ptr@V?$allocator@U?$_Tree_node@U?$pair@$$CBKP8CDPLoginSrvr@@AEXAAVCAr@@KPAEK@Z@std@@PAX@std@@@std@@@std@@QAE@XZ ; std::_Alloc_construct_ptr<std::allocator<std::_Tree_node<std::pair<unsigned long const ,void (__thiscall CDPLoginSrvr::*)(CAr &,unsigned long,unsigned char *,unsigned long)>,void *> > >::~_Alloc_construct_ptr<std::allocator<std::_Tree_node<std::pair<unsigned long const ,void (__thiscall CDPLoginSrvr::*)(CAr &,unsigned long,unsigned char *,unsigned long)>,void *> > >
__unwindfunclet$??0CDPLoginSrvr@@QAE@XZ$15:
  00023	8d 4d e8	 lea	 ecx, DWORD PTR $T22[ebp]
  00026	e9 00 00 00 00	 jmp	 ??1?$_Alloc_construct_ptr@V?$allocator@U?$_Tree_node@U?$pair@$$CBKP8CDPLoginSrvr@@AEXAAVCAr@@KPAEK@Z@std@@PAX@std@@@std@@@std@@QAE@XZ ; std::_Alloc_construct_ptr<std::allocator<std::_Tree_node<std::pair<unsigned long const ,void (__thiscall CDPLoginSrvr::*)(CAr &,unsigned long,unsigned char *,unsigned long)>,void *> > >::~_Alloc_construct_ptr<std::allocator<std::_Tree_node<std::pair<unsigned long const ,void (__thiscall CDPLoginSrvr::*)(CAr &,unsigned long,unsigned char *,unsigned long)>,void *> > >
__unwindfunclet$??0CDPLoginSrvr@@QAE@XZ$20:
  0002b	8d 4d e8	 lea	 ecx, DWORD PTR $T23[ebp]
  0002e	e9 00 00 00 00	 jmp	 ??1?$_Alloc_construct_ptr@V?$allocator@U?$_Tree_node@U?$pair@$$CBKP8CDPLoginSrvr@@AEXAAVCAr@@KPAEK@Z@std@@PAX@std@@@std@@@std@@QAE@XZ ; std::_Alloc_construct_ptr<std::allocator<std::_Tree_node<std::pair<unsigned long const ,void (__thiscall CDPLoginSrvr::*)(CAr &,unsigned long,unsigned char *,unsigned long)>,void *> > >::~_Alloc_construct_ptr<std::allocator<std::_Tree_node<std::pair<unsigned long const ,void (__thiscall CDPLoginSrvr::*)(CAr &,unsigned long,unsigned char *,unsigned long)>,void *> > >
__unwindfunclet$??0CDPLoginSrvr@@QAE@XZ$25:
  00033	8d 4d e8	 lea	 ecx, DWORD PTR $T24[ebp]
  00036	e9 00 00 00 00	 jmp	 ??1?$_Alloc_construct_ptr@V?$allocator@U?$_Tree_node@U?$pair@$$CBKP8CDPLoginSrvr@@AEXAAVCAr@@KPAEK@Z@std@@PAX@std@@@std@@@std@@QAE@XZ ; std::_Alloc_construct_ptr<std::allocator<std::_Tree_node<std::pair<unsigned long const ,void (__thiscall CDPLoginSrvr::*)(CAr &,unsigned long,unsigned char *,unsigned long)>,void *> > >::~_Alloc_construct_ptr<std::allocator<std::_Tree_node<std::pair<unsigned long const ,void (__thiscall CDPLoginSrvr::*)(CAr &,unsigned long,unsigned char *,unsigned long)>,void *> > >
__unwindfunclet$??0CDPLoginSrvr@@QAE@XZ$30:
  0003b	8d 4d e8	 lea	 ecx, DWORD PTR $T25[ebp]
  0003e	e9 00 00 00 00	 jmp	 ??1?$_Alloc_construct_ptr@V?$allocator@U?$_Tree_node@U?$pair@$$CBKP8CDPLoginSrvr@@AEXAAVCAr@@KPAEK@Z@std@@PAX@std@@@std@@@std@@QAE@XZ ; std::_Alloc_construct_ptr<std::allocator<std::_Tree_node<std::pair<unsigned long const ,void (__thiscall CDPLoginSrvr::*)(CAr &,unsigned long,unsigned char *,unsigned long)>,void *> > >::~_Alloc_construct_ptr<std::allocator<std::_Tree_node<std::pair<unsigned long const ,void (__thiscall CDPLoginSrvr::*)(CAr &,unsigned long,unsigned char *,unsigned long)>,void *> > >
  00043	cc		 int	 3
  00044	cc		 int	 3
  00045	cc		 int	 3
  00046	cc		 int	 3
  00047	cc		 int	 3
__ehhandler$??0CDPLoginSrvr@@QAE@XZ:
  00048	90		 npad	 1
  00049	90		 npad	 1
  0004a	8b 54 24 08	 mov	 edx, DWORD PTR [esp+8]
  0004e	8d 42 0c	 lea	 eax, DWORD PTR [edx+12]
  00051	8b 4a cc	 mov	 ecx, DWORD PTR [edx-52]
  00054	33 c8		 xor	 ecx, eax
  00056	e8 00 00 00 00	 call	 @__security_check_cookie@4
  0005b	b8 00 00 00 00	 mov	 eax, OFFSET __ehfuncinfo$??0CDPLoginSrvr@@QAE@XZ
  00060	e9 00 00 00 00	 jmp	 ___CxxFrameHandler3
text$x	ENDS
??0CDPLoginSrvr@@QAE@XZ ENDP				; CDPLoginSrvr::CDPLoginSrvr
; Function compile flags: /Ogtp
; File C:\Program Files\Microsoft Visual Studio\2022\Professional\VC\Tools\MSVC\14.44.35207\include\xmemory
;	COMDAT ??$_Allocate_manually_vector_aligned@U_Default_allocate_traits@std@@@std@@YAPAXI@Z
_TEXT	SEGMENT
__Bytes$ = 8						; size = 4
??$_Allocate_manually_vector_aligned@U_Default_allocate_traits@std@@@std@@YAPAXI@Z PROC ; std::_Allocate_manually_vector_aligned<std::_Default_allocate_traits>, COMDAT

; 182  : __declspec(allocator) void* _Allocate_manually_vector_aligned(const size_t _Bytes) {

  00000	55		 push	 ebp
  00001	8b ec		 mov	 ebp, esp

; 183  :     // allocate _Bytes manually aligned to at least _Big_allocation_alignment
; 184  :     const size_t _Block_size = _Non_user_size + _Bytes;

  00003	8b 45 08	 mov	 eax, DWORD PTR __Bytes$[ebp]
  00006	8d 48 23	 lea	 ecx, DWORD PTR [eax+35]

; 185  :     if (_Block_size <= _Bytes) {

  00009	3b c8		 cmp	 ecx, eax
  0000b	0f 86 00 00 00
	00		 jbe	 ?_Throw_bad_array_new_length@std@@YAXXZ ; std::_Throw_bad_array_new_length

; 136  :         return ::operator new(_Bytes);

  00011	51		 push	 ecx
  00012	e8 00 00 00 00	 call	 ??2@YAPAXI@Z		; operator new

; 186  :         _Throw_bad_array_new_length(); // add overflow
; 187  :     }
; 188  : 
; 189  :     const uintptr_t _Ptr_container = reinterpret_cast<uintptr_t>(_Traits::_Allocate(_Block_size));

  00017	8b c8		 mov	 ecx, eax

; 136  :         return ::operator new(_Bytes);

  00019	83 c4 04	 add	 esp, 4

; 190  :     _STL_VERIFY(_Ptr_container != 0, "invalid argument"); // validate even in release since we're doing p[-1]

  0001c	85 c9		 test	 ecx, ecx
  0001e	74 0b		 je	 SHORT $LN9@Allocate_m

; 191  :     void* const _Ptr = reinterpret_cast<void*>((_Ptr_container + _Non_user_size) & ~(_Big_allocation_alignment - 1));

  00020	8d 41 23	 lea	 eax, DWORD PTR [ecx+35]
  00023	83 e0 e0	 and	 eax, -32		; ffffffe0H

; 192  :     static_cast<uintptr_t*>(_Ptr)[-1] = _Ptr_container;

  00026	89 48 fc	 mov	 DWORD PTR [eax-4], ecx

; 193  : 
; 194  : #ifdef _DEBUG
; 195  :     static_cast<uintptr_t*>(_Ptr)[-2] = _Big_allocation_sentinel;
; 196  : #endif // defined(_DEBUG)
; 197  :     return _Ptr;
; 198  : }

  00029	5d		 pop	 ebp
  0002a	c3		 ret	 0
$LN9@Allocate_m:

; 190  :     _STL_VERIFY(_Ptr_container != 0, "invalid argument"); // validate even in release since we're doing p[-1]

  0002b	6a 00		 push	 0
  0002d	6a 00		 push	 0
  0002f	6a 00		 push	 0
  00031	6a 00		 push	 0
  00033	6a 00		 push	 0
  00035	e8 00 00 00 00	 call	 __invoke_watson
$LN7@Allocate_m:
  0003a	cc		 int	 3
??$_Allocate_manually_vector_aligned@U_Default_allocate_traits@std@@@std@@YAPAXI@Z ENDP ; std::_Allocate_manually_vector_aligned<std::_Default_allocate_traits>
_TEXT	ENDS
; Function compile flags: /Ogtp
; File C:\Program Files\Microsoft Visual Studio\2022\Professional\VC\Tools\MSVC\14.44.35207\include\xtree
;	COMDAT ?_Throw_tree_length_error@std@@YAXXZ
_TEXT	SEGMENT
?_Throw_tree_length_error@std@@YAXXZ PROC		; std::_Throw_tree_length_error, COMDAT

; 417  :     _Xlength_error("map/set too long");

  00000	68 00 00 00 00	 push	 OFFSET ??_C@_0BB@GCADKGJO@map?1set?5too?5long@
  00005	e8 00 00 00 00	 call	 ?_Xlength_error@std@@YAXPBD@Z ; std::_Xlength_error
$LN3@Throw_tree:
  0000a	cc		 int	 3
?_Throw_tree_length_error@std@@YAXXZ ENDP		; std::_Throw_tree_length_error
_TEXT	ENDS
; Function compile flags: /Ogtp
; File C:\Program Files\Microsoft Visual Studio\2022\Professional\VC\Tools\MSVC\14.44.35207\include\xmemory
;	COMDAT ?_Throw_bad_array_new_length@std@@YAXXZ
_TEXT	SEGMENT
$T1 = -12						; size = 12
?_Throw_bad_array_new_length@std@@YAXXZ PROC		; std::_Throw_bad_array_new_length, COMDAT

; 107  : [[noreturn]] inline void _Throw_bad_array_new_length() {

  00000	55		 push	 ebp
  00001	8b ec		 mov	 ebp, esp
  00003	83 ec 0c	 sub	 esp, 12			; 0000000cH

; 108  :     _THROW(bad_array_new_length{});

  00006	8d 4d f4	 lea	 ecx, DWORD PTR $T1[ebp]
  00009	e8 00 00 00 00	 call	 ??0bad_array_new_length@std@@QAE@XZ ; std::bad_array_new_length::bad_array_new_length
  0000e	68 00 00 00 00	 push	 OFFSET __TI3?AVbad_array_new_length@std@@
  00013	8d 45 f4	 lea	 eax, DWORD PTR $T1[ebp]
  00016	50		 push	 eax
  00017	e8 00 00 00 00	 call	 __CxxThrowException@8
$LN3@Throw_bad_:
  0001c	cc		 int	 3
?_Throw_bad_array_new_length@std@@YAXXZ ENDP		; std::_Throw_bad_array_new_length
_TEXT	ENDS
; Function compile flags: /Ogtp
; File C:\Program Files\Microsoft Visual Studio\2022\Professional\VC\Tools\MSVC\14.44.35207\include\vcruntime_exception.h
;	COMDAT ??_Gbad_array_new_length@std@@UAEPAXI@Z
_TEXT	SEGMENT
___flags$ = 8						; size = 4
??_Gbad_array_new_length@std@@UAEPAXI@Z PROC		; std::bad_array_new_length::`scalar deleting destructor', COMDAT
; _this$ = ecx
  00000	55		 push	 ebp
  00001	8b ec		 mov	 ebp, esp

; 90   :     {

  00003	56		 push	 esi
  00004	8b f1		 mov	 esi, ecx

; 91   :         __std_exception_destroy(&_Data);

  00006	8d 46 04	 lea	 eax, DWORD PTR [esi+4]
  00009	c7 06 00 00 00
	00		 mov	 DWORD PTR [esi], OFFSET ??_7exception@std@@6B@
  0000f	50		 push	 eax
  00010	e8 00 00 00 00	 call	 ___std_exception_destroy
  00015	83 c4 04	 add	 esp, 4
  00018	f6 45 08 01	 test	 BYTE PTR ___flags$[ebp], 1
  0001c	74 0b		 je	 SHORT $LN18@scalar
  0001e	6a 0c		 push	 12			; 0000000cH
  00020	56		 push	 esi
  00021	e8 00 00 00 00	 call	 ??3@YAXPAXI@Z		; operator delete
  00026	83 c4 08	 add	 esp, 8
$LN18@scalar:
  00029	8b c6		 mov	 eax, esi
  0002b	5e		 pop	 esi
  0002c	5d		 pop	 ebp
  0002d	c2 04 00	 ret	 4
??_Gbad_array_new_length@std@@UAEPAXI@Z ENDP		; std::bad_array_new_length::`scalar deleting destructor'
_TEXT	ENDS
; Function compile flags: /Ogtp
; File C:\Program Files\Microsoft Visual Studio\2022\Professional\VC\Tools\MSVC\14.44.35207\include\vcruntime_exception.h
;	COMDAT ??0bad_array_new_length@std@@QAE@ABV01@@Z
_TEXT	SEGMENT
___that$ = 8						; size = 4
??0bad_array_new_length@std@@QAE@ABV01@@Z PROC		; std::bad_array_new_length::bad_array_new_length, COMDAT
; _this$ = ecx
  00000	55		 push	 ebp
  00001	8b ec		 mov	 ebp, esp

; 73   :     {

  00003	56		 push	 esi
  00004	8b f1		 mov	 esi, ecx
  00006	0f 57 c0	 xorps	 xmm0, xmm0

; 72   :         : _Data()

  00009	8d 46 04	 lea	 eax, DWORD PTR [esi+4]

; 74   :         __std_exception_copy(&_Other._Data, &_Data);

  0000c	50		 push	 eax
  0000d	c7 06 00 00 00
	00		 mov	 DWORD PTR [esi], OFFSET ??_7exception@std@@6B@
  00013	66 0f d6 00	 movq	 QWORD PTR [eax], xmm0
  00017	8b 45 08	 mov	 eax, DWORD PTR ___that$[ebp]
  0001a	83 c0 04	 add	 eax, 4
  0001d	50		 push	 eax
  0001e	e8 00 00 00 00	 call	 ___std_exception_copy
  00023	83 c4 08	 add	 esp, 8
  00026	c7 06 00 00 00
	00		 mov	 DWORD PTR [esi], OFFSET ??_7bad_array_new_length@std@@6B@
  0002c	8b c6		 mov	 eax, esi
  0002e	5e		 pop	 esi
  0002f	5d		 pop	 ebp
  00030	c2 04 00	 ret	 4
??0bad_array_new_length@std@@QAE@ABV01@@Z ENDP		; std::bad_array_new_length::bad_array_new_length
_TEXT	ENDS
; Function compile flags: /Ogtp
; File C:\Program Files\Microsoft Visual Studio\2022\Professional\VC\Tools\MSVC\14.44.35207\include\vcruntime_exception.h
;	COMDAT ??1bad_array_new_length@std@@UAE@XZ
_TEXT	SEGMENT
??1bad_array_new_length@std@@UAE@XZ PROC		; std::bad_array_new_length::~bad_array_new_length, COMDAT
; _this$ = ecx

; 91   :         __std_exception_destroy(&_Data);

  00000	8d 41 04	 lea	 eax, DWORD PTR [ecx+4]
  00003	c7 01 00 00 00
	00		 mov	 DWORD PTR [ecx], OFFSET ??_7exception@std@@6B@
  00009	50		 push	 eax
  0000a	e8 00 00 00 00	 call	 ___std_exception_destroy
  0000f	59		 pop	 ecx
  00010	c3		 ret	 0
??1bad_array_new_length@std@@UAE@XZ ENDP		; std::bad_array_new_length::~bad_array_new_length
_TEXT	ENDS
; Function compile flags: /Ogtp
; File C:\Program Files\Microsoft Visual Studio\2022\Professional\VC\Tools\MSVC\14.44.35207\include\vcruntime_exception.h
;	COMDAT ??0bad_array_new_length@std@@QAE@XZ
_TEXT	SEGMENT
??0bad_array_new_length@std@@QAE@XZ PROC		; std::bad_array_new_length::bad_array_new_length, COMDAT
; _this$ = ecx

; 144  :     {

  00000	0f 57 c0	 xorps	 xmm0, xmm0

; 145  :     }

  00003	8b c1		 mov	 eax, ecx

; 66   :         : _Data()

  00005	66 0f d6 41 04	 movq	 QWORD PTR [ecx+4], xmm0

; 67   :     {
; 68   :         _Data._What = _Message;

  0000a	c7 41 04 00 00
	00 00		 mov	 DWORD PTR [ecx+4], OFFSET ??_C@_0BF@KINCDENJ@bad?5array?5new?5length@

; 144  :     {

  00011	c7 01 00 00 00
	00		 mov	 DWORD PTR [ecx], OFFSET ??_7bad_array_new_length@std@@6B@

; 145  :     }

  00017	c3		 ret	 0
??0bad_array_new_length@std@@QAE@XZ ENDP		; std::bad_array_new_length::bad_array_new_length
_TEXT	ENDS
; Function compile flags: /Ogtp
; File C:\Program Files\Microsoft Visual Studio\2022\Professional\VC\Tools\MSVC\14.44.35207\include\vcruntime_exception.h
;	COMDAT ??_Gbad_alloc@std@@UAEPAXI@Z
_TEXT	SEGMENT
___flags$ = 8						; size = 4
??_Gbad_alloc@std@@UAEPAXI@Z PROC			; std::bad_alloc::`scalar deleting destructor', COMDAT
; _this$ = ecx
  00000	55		 push	 ebp
  00001	8b ec		 mov	 ebp, esp

; 90   :     {

  00003	56		 push	 esi
  00004	8b f1		 mov	 esi, ecx

; 91   :         __std_exception_destroy(&_Data);

  00006	8d 46 04	 lea	 eax, DWORD PTR [esi+4]
  00009	c7 06 00 00 00
	00		 mov	 DWORD PTR [esi], OFFSET ??_7exception@std@@6B@
  0000f	50		 push	 eax
  00010	e8 00 00 00 00	 call	 ___std_exception_destroy
  00015	83 c4 04	 add	 esp, 4
  00018	f6 45 08 01	 test	 BYTE PTR ___flags$[ebp], 1
  0001c	74 0b		 je	 SHORT $LN13@scalar
  0001e	6a 0c		 push	 12			; 0000000cH
  00020	56		 push	 esi
  00021	e8 00 00 00 00	 call	 ??3@YAXPAXI@Z		; operator delete
  00026	83 c4 08	 add	 esp, 8
$LN13@scalar:
  00029	8b c6		 mov	 eax, esi
  0002b	5e		 pop	 esi
  0002c	5d		 pop	 ebp
  0002d	c2 04 00	 ret	 4
??_Gbad_alloc@std@@UAEPAXI@Z ENDP			; std::bad_alloc::`scalar deleting destructor'
_TEXT	ENDS
; Function compile flags: /Ogtp
; File C:\Program Files\Microsoft Visual Studio\2022\Professional\VC\Tools\MSVC\14.44.35207\include\vcruntime_exception.h
;	COMDAT ??0bad_alloc@std@@QAE@ABV01@@Z
_TEXT	SEGMENT
___that$ = 8						; size = 4
??0bad_alloc@std@@QAE@ABV01@@Z PROC			; std::bad_alloc::bad_alloc, COMDAT
; _this$ = ecx
  00000	55		 push	 ebp
  00001	8b ec		 mov	 ebp, esp

; 73   :     {

  00003	56		 push	 esi
  00004	8b f1		 mov	 esi, ecx
  00006	0f 57 c0	 xorps	 xmm0, xmm0

; 72   :         : _Data()

  00009	8d 46 04	 lea	 eax, DWORD PTR [esi+4]

; 74   :         __std_exception_copy(&_Other._Data, &_Data);

  0000c	50		 push	 eax
  0000d	c7 06 00 00 00
	00		 mov	 DWORD PTR [esi], OFFSET ??_7exception@std@@6B@
  00013	66 0f d6 00	 movq	 QWORD PTR [eax], xmm0
  00017	8b 45 08	 mov	 eax, DWORD PTR ___that$[ebp]
  0001a	83 c0 04	 add	 eax, 4
  0001d	50		 push	 eax
  0001e	e8 00 00 00 00	 call	 ___std_exception_copy
  00023	83 c4 08	 add	 esp, 8
  00026	c7 06 00 00 00
	00		 mov	 DWORD PTR [esi], OFFSET ??_7bad_alloc@std@@6B@
  0002c	8b c6		 mov	 eax, esi
  0002e	5e		 pop	 esi
  0002f	5d		 pop	 ebp
  00030	c2 04 00	 ret	 4
??0bad_alloc@std@@QAE@ABV01@@Z ENDP			; std::bad_alloc::bad_alloc
_TEXT	ENDS
; Function compile flags: /Ogtp
; File C:\Program Files\Microsoft Visual Studio\2022\Professional\VC\Tools\MSVC\14.44.35207\include\vcruntime_exception.h
;	COMDAT ??_Gexception@std@@UAEPAXI@Z
_TEXT	SEGMENT
___flags$ = 8						; size = 4
??_Gexception@std@@UAEPAXI@Z PROC			; std::exception::`scalar deleting destructor', COMDAT
; _this$ = ecx
  00000	55		 push	 ebp
  00001	8b ec		 mov	 ebp, esp

; 90   :     {

  00003	56		 push	 esi
  00004	8b f1		 mov	 esi, ecx

; 91   :         __std_exception_destroy(&_Data);

  00006	8d 46 04	 lea	 eax, DWORD PTR [esi+4]
  00009	c7 06 00 00 00
	00		 mov	 DWORD PTR [esi], OFFSET ??_7exception@std@@6B@
  0000f	50		 push	 eax
  00010	e8 00 00 00 00	 call	 ___std_exception_destroy
  00015	83 c4 04	 add	 esp, 4
  00018	f6 45 08 01	 test	 BYTE PTR ___flags$[ebp], 1
  0001c	74 0b		 je	 SHORT $LN8@scalar
  0001e	6a 0c		 push	 12			; 0000000cH
  00020	56		 push	 esi
  00021	e8 00 00 00 00	 call	 ??3@YAXPAXI@Z		; operator delete
  00026	83 c4 08	 add	 esp, 8
$LN8@scalar:
  00029	8b c6		 mov	 eax, esi
  0002b	5e		 pop	 esi
  0002c	5d		 pop	 ebp
  0002d	c2 04 00	 ret	 4
??_Gexception@std@@UAEPAXI@Z ENDP			; std::exception::`scalar deleting destructor'
_TEXT	ENDS
; Function compile flags: /Ogtp
; File C:\Program Files\Microsoft Visual Studio\2022\Professional\VC\Tools\MSVC\14.44.35207\include\vcruntime_exception.h
;	COMDAT ?what@exception@std@@UBEPBDXZ
_TEXT	SEGMENT
?what@exception@std@@UBEPBDXZ PROC			; std::exception::what, COMDAT
; _this$ = ecx

; 96   :         return _Data._What ? _Data._What : "Unknown exception";

  00000	8b 49 04	 mov	 ecx, DWORD PTR [ecx+4]
  00003	b8 00 00 00 00	 mov	 eax, OFFSET ??_C@_0BC@EOODALEL@Unknown?5exception@
  00008	85 c9		 test	 ecx, ecx
  0000a	0f 45 c1	 cmovne	 eax, ecx

; 97   :     }

  0000d	c3		 ret	 0
?what@exception@std@@UBEPBDXZ ENDP			; std::exception::what
_TEXT	ENDS
; Function compile flags: /Ogtp
; File C:\Program Files\Microsoft Visual Studio\2022\Professional\VC\Tools\MSVC\14.44.35207\include\vcruntime_exception.h
;	COMDAT ??1exception@std@@UAE@XZ
_TEXT	SEGMENT
??1exception@std@@UAE@XZ PROC				; std::exception::~exception, COMDAT
; _this$ = ecx

; 91   :         __std_exception_destroy(&_Data);

  00000	8d 41 04	 lea	 eax, DWORD PTR [ecx+4]
  00003	c7 01 00 00 00
	00		 mov	 DWORD PTR [ecx], OFFSET ??_7exception@std@@6B@
  00009	50		 push	 eax
  0000a	e8 00 00 00 00	 call	 ___std_exception_destroy
  0000f	59		 pop	 ecx

; 92   :     }

  00010	c3		 ret	 0
??1exception@std@@UAE@XZ ENDP				; std::exception::~exception
_TEXT	ENDS
; Function compile flags: /Ogtp
; File C:\Program Files\Microsoft Visual Studio\2022\Professional\VC\Tools\MSVC\14.44.35207\include\vcruntime_exception.h
;	COMDAT ??0exception@std@@QAE@ABV01@@Z
_TEXT	SEGMENT
__Other$ = 8						; size = 4
??0exception@std@@QAE@ABV01@@Z PROC			; std::exception::exception, COMDAT
; _this$ = ecx

; 73   :     {

  00000	55		 push	 ebp
  00001	8b ec		 mov	 ebp, esp
  00003	56		 push	 esi
  00004	8b f1		 mov	 esi, ecx
  00006	0f 57 c0	 xorps	 xmm0, xmm0
  00009	8d 46 04	 lea	 eax, DWORD PTR [esi+4]

; 74   :         __std_exception_copy(&_Other._Data, &_Data);

  0000c	50		 push	 eax
  0000d	c7 06 00 00 00
	00		 mov	 DWORD PTR [esi], OFFSET ??_7exception@std@@6B@
  00013	66 0f d6 00	 movq	 QWORD PTR [eax], xmm0
  00017	8b 45 08	 mov	 eax, DWORD PTR __Other$[ebp]
  0001a	83 c0 04	 add	 eax, 4
  0001d	50		 push	 eax
  0001e	e8 00 00 00 00	 call	 ___std_exception_copy
  00023	83 c4 08	 add	 esp, 8

; 75   :     }

  00026	8b c6		 mov	 eax, esi
  00028	5e		 pop	 esi
  00029	5d		 pop	 ebp
  0002a	c2 04 00	 ret	 4
??0exception@std@@QAE@ABV01@@Z ENDP			; std::exception::exception
_TEXT	ENDS
; Function compile flags: /Ogtp
; File C:\IAGOS\server\v18\Source\Source\DatabaseServer\DPLoginSrvr.cpp
;	COMDAT ?__empty_global_delete@@YAXPAXI@Z
_TEXT	SEGMENT
___formal$ = 8						; size = 4
___formal$ = 12						; size = 4
?__empty_global_delete@@YAXPAXI@Z PROC			; __empty_global_delete, COMDAT

  00000	c2 00 00	 ret	 0
?__empty_global_delete@@YAXPAXI@Z ENDP			; __empty_global_delete
_TEXT	ENDS
; Function compile flags: /Ogtp
; File C:\IAGOS\server\v18\Source\Source\DatabaseServer\DPLoginSrvr.cpp
;	COMDAT ?__empty_global_delete@@YAXPAX@Z
_TEXT	SEGMENT
___formal$ = 8						; size = 4
?__empty_global_delete@@YAXPAX@Z PROC			; __empty_global_delete, COMDAT

  00000	c2 00 00	 ret	 0
?__empty_global_delete@@YAXPAX@Z ENDP			; __empty_global_delete
_TEXT	ENDS
END
