; Listing generated by Microsoft (R) Optimizing Compiler Version 19.44.35225.0 

	TITLE	C:\IAGOS\server\v18\Source\Output\DatabaseServer\Release\dptrans.obj
	.686P
	.XMM
	include listing.inc
	.model	flat

INCLUDELIB LIBCMT
INCLUDELIB OLDNAMES

PUBLIC	?__empty_global_delete@@YAXPAX@Z		; __empty_global_delete
PUBLIC	?__empty_global_delete@@YAXPAXI@Z		; __empty_global_delete
PUBLIC	___local_stdio_printf_options
PUBLIC	_sprintf
PUBLIC	?AfxCrtErrorCheck@@YAHH@Z			; AfxCrtErrorCheck
PUBLIC	?AtlThrowImpl@ATL@@YGXJ@Z			; ATL::AtlThrowImpl
PUBLIC	?SetString@?$CSimpleStringT@D$0A@@ATL@@QAEXPBDH@Z ; ATL::CSimpleStringT<char,0>::SetString
PUBLIC	?ThrowMemoryException@?$CSimpleStringT@D$0A@@ATL@@KAXXZ ; ATL::CSimpleStringT<char,0>::ThrowMemoryException
PUBLIC	?Fork@?$CSimpleStringT@D$0A@@ATL@@AAEXH@Z	; ATL::CSimpleStringT<char,0>::Fork
PUBLIC	?PrepareWrite2@?$CSimpleStringT@D$0A@@ATL@@AAEXH@Z ; ATL::CSimpleStringT<char,0>::PrepareWrite2
PUBLIC	?Reallocate@?$CSimpleStringT@D$0A@@ATL@@AAEXH@Z	; ATL::CSimpleStringT<char,0>::Reallocate
PUBLIC	?Replace@?$CStringT@DV?$StrTraitMFC@DV?$ChTraitsCRT@D@ATL@@@@@ATL@@QAEHPBD0@Z ; ATL::CStringT<char,StrTraitMFC<char,ATL::ChTraitsCRT<char> > >::Replace
PUBLIC	??0exception@std@@QAE@ABV01@@Z			; std::exception::exception
PUBLIC	??1exception@std@@UAE@XZ			; std::exception::~exception
PUBLIC	?what@exception@std@@UBEPBDXZ			; std::exception::what
PUBLIC	??_Gexception@std@@UAEPAXI@Z			; std::exception::`scalar deleting destructor'
PUBLIC	??0bad_alloc@std@@QAE@ABV01@@Z			; std::bad_alloc::bad_alloc
PUBLIC	??_Gbad_alloc@std@@UAEPAXI@Z			; std::bad_alloc::`scalar deleting destructor'
PUBLIC	??0bad_array_new_length@std@@QAE@XZ		; std::bad_array_new_length::bad_array_new_length
PUBLIC	??1bad_array_new_length@std@@UAE@XZ		; std::bad_array_new_length::~bad_array_new_length
PUBLIC	??0bad_array_new_length@std@@QAE@ABV01@@Z	; std::bad_array_new_length::bad_array_new_length
PUBLIC	??_Gbad_array_new_length@std@@UAEPAXI@Z		; std::bad_array_new_length::`scalar deleting destructor'
PUBLIC	?_Throw_bad_array_new_length@std@@YAXXZ		; std::_Throw_bad_array_new_length
PUBLIC	?_Xlen_string@std@@YAXXZ			; std::_Xlen_string
PUBLIC	??1?$basic_string@DU?$char_traits@D@std@@V?$allocator@D@2@@std@@QAE@XZ ; std::basic_string<char,std::char_traits<char>,std::allocator<char> >::~basic_string<char,std::char_traits<char>,std::allocator<char> >
PUBLIC	?_Throw_tree_length_error@std@@YAXXZ		; std::_Throw_tree_length_error
PUBLIC	??1CMclAutoLock@@QAE@XZ				; CMclAutoLock::~CMclAutoLock
PUBLIC	?_Insert_node@?$_Tree_val@U?$_Tree_simple_types@U?$pair@$$CBEH@std@@@std@@@std@@QAEPAU?$_Tree_node@U?$pair@$$CBEH@std@@PAX@2@U?$_Tree_id@PAU?$_Tree_node@U?$pair@$$CBEH@std@@PAX@std@@@2@QAU32@@Z ; std::_Tree_val<std::_Tree_simple_types<std::pair<unsigned char const ,int> > >::_Insert_node
PUBLIC	??0?$map@EHU?$less@E@std@@V?$allocator@U?$pair@$$CBEH@std@@@2@@std@@QAE@ABV01@@Z ; std::map<unsigned char,int,std::less<unsigned char>,std::allocator<std::pair<unsigned char const ,int> > >::map<unsigned char,int,std::less<unsigned char>,std::allocator<std::pair<unsigned char const ,int> > >
PUBLIC	??1?$map@EHU?$less@E@std@@V?$allocator@U?$pair@$$CBEH@std@@@2@@std@@QAE@XZ ; std::map<unsigned char,int,std::less<unsigned char>,std::allocator<std::pair<unsigned char const ,int> > >::~map<unsigned char,int,std::less<unsigned char>,std::allocator<std::pair<unsigned char const ,int> > >
PUBLIC	?push_back@?$list@PAXV?$allocator@PAX@std@@@std@@QAEXABQAX@Z ; std::list<void *,std::allocator<void *> >::push_back
PUBLIC	?Copy@?$CItemContainer@VCItemElem@@@@QAEXAAV1@@Z ; CItemContainer<CItemElem>::Copy
PUBLIC	??3CMover@@SAXPAX@Z				; CMover::operator delete
PUBLIC	?_Insert_node@?$_Tree_val@U?$_Tree_simple_types@U?$pair@$$CBHV?$basic_string@DU?$char_traits@D@std@@V?$allocator@D@2@@std@@@std@@@std@@@std@@QAEPAU?$_Tree_node@U?$pair@$$CBHV?$basic_string@DU?$char_traits@D@std@@V?$allocator@D@2@@std@@@std@@PAX@2@U?$_Tree_id@PAU?$_Tree_node@U?$pair@$$CBHV?$basic_string@DU?$char_traits@D@std@@V?$allocator@D@2@@std@@@std@@PAX@std@@@2@QAU32@@Z ; std::_Tree_val<std::_Tree_simple_types<std::pair<int const ,std::basic_string<char,std::char_traits<char>,std::allocator<char> > > > >::_Insert_node
PUBLIC	??1?$_Alloc_construct_ptr@V?$allocator@U?$_List_node@PAXPAX@std@@@std@@@std@@QAE@XZ ; std::_Alloc_construct_ptr<std::allocator<std::_List_node<void *,void *> > >::~_Alloc_construct_ptr<std::allocator<std::_List_node<void *,void *> > >
PUBLIC	??$_Allocate_manually_vector_aligned@U_Default_allocate_traits@std@@@std@@YAPAXI@Z ; std::_Allocate_manually_vector_aligned<std::_Default_allocate_traits>
PUBLIC	??$?6H@CAr@@QAEAAV0@ABH@Z			; CAr::operator<<<int>
PUBLIC	??$?5H@CAr@@QAEAAV0@AAH@Z			; CAr::operator>><int>
PUBLIC	?Serialize@HOUSINGINFO@@QAEXAAVCAr@@@Z		; HOUSINGINFO::Serialize
PUBLIC	??$?6K@CAr@@QAEAAV0@ABK@Z			; CAr::operator<<<unsigned long>
PUBLIC	??$?6J@CAr@@QAEAAV0@ABJ@Z			; CAr::operator<<<long>
PUBLIC	??$?6UD3DXVECTOR3@@@CAr@@QAEAAV0@ABUD3DXVECTOR3@@@Z ; CAr::operator<<<D3DXVECTOR3>
PUBLIC	??$?6M@CAr@@QAEAAV0@ABM@Z			; CAr::operator<<<float>
PUBLIC	??$?5K@CAr@@QAEAAV0@AAK@Z			; CAr::operator>><unsigned long>
PUBLIC	??$?5J@CAr@@QAEAAV0@AAJ@Z			; CAr::operator>><long>
PUBLIC	??$?5UD3DXVECTOR3@@@CAr@@QAEAAV0@AAUD3DXVECTOR3@@@Z ; CAr::operator>><D3DXVECTOR3>
PUBLIC	??$?5M@CAr@@QAEAAV0@AAM@Z			; CAr::operator>><float>
PUBLIC	??0CDPTrans@@QAE@XZ				; CDPTrans::CDPTrans
PUBLIC	??1CDPTrans@@UAE@XZ				; CDPTrans::~CDPTrans
PUBLIC	?SysMessageHandler@CDPTrans@@UAEXPAUDPMSG_GENERIC@@KK@Z ; CDPTrans::SysMessageHandler
PUBLIC	?UserMessageHandler@CDPTrans@@UAEXPAUDPMSG_GENERIC@@KK@Z ; CDPTrans::UserMessageHandler
PUBLIC	?SendAllGuildCombat@CDPTrans@@QAEXK@Z		; CDPTrans::SendAllGuildCombat
PUBLIC	?GetInstance@CDPTrans@@SAPAV1@XZ		; CDPTrans::GetInstance
PUBLIC	?SendAllPlayerData@CDPTrans@@QAEXK@Z		; CDPTrans::SendAllPlayerData
PUBLIC	?SendAddPlayerData@CDPTrans@@QAEXKPAU_PlayerData@@@Z ; CDPTrans::SendAddPlayerData
PUBLIC	?SendDeletePlayerData@CDPTrans@@QAEXK@Z		; CDPTrans::SendDeletePlayerData
PUBLIC	?SendUpdatePlayerData@CDPTrans@@QAEXKPAU_PlayerData@@@Z ; CDPTrans::SendUpdatePlayerData
PUBLIC	?SendHdr@CDPTrans@@QAEXKK@Z			; CDPTrans::SendHdr
PUBLIC	?SendBaseGameSetting@CDPTrans@@QAEXHK@Z		; CDPTrans::SendBaseGameSetting
PUBLIC	?SendMonsterRespawnSetting@CDPTrans@@QAEXHQAHK@Z ; CDPTrans::SendMonsterRespawnSetting
PUBLIC	?SendMonsterPropSetting@CDPTrans@@QAEXHK@Z	; CDPTrans::SendMonsterPropSetting
PUBLIC	?SendGMChat@CDPTrans@@QAEXH@Z			; CDPTrans::SendGMChat
PUBLIC	?SendGC1to1Open@CDPTrans@@QAEXXZ		; CDPTrans::SendGC1to1Open
PUBLIC	?SendGC1to1TenderGuild@CDPTrans@@QAEXAAV?$vector@U__GC1TO1TENDER@CGuildCombat1to1Mng@@V?$allocator@U__GC1TO1TENDER@CGuildCombat1to1Mng@@@std@@@std@@0K@Z ; CDPTrans::SendGC1to1TenderGuild
PUBLIC	?OnQueryMailBox@CDPTrans@@QAEXAAVCAr@@KKKPAEK@Z	; CDPTrans::OnQueryMailBox
PUBLIC	?OnQueryMailBoxCount@CDPTrans@@QAEXAAVCAr@@KKKPAEK@Z ; CDPTrans::OnQueryMailBoxCount
PUBLIC	?OnQueryMailBoxReq@CDPTrans@@QAEXAAVCAr@@KKKPAEK@Z ; CDPTrans::OnQueryMailBoxReq
PUBLIC	?SendMailBoxReq@CDPTrans@@QAEXKKHPAVCMailBox@@@Z ; CDPTrans::SendMailBoxReq
PUBLIC	?SendMailBox@CDPTrans@@QAEXPAVCMailBox@@K@Z	; CDPTrans::SendMailBox
PUBLIC	?OnQueryPostMail@CDPTrans@@QAEXAAVCAr@@KKKPAEK@Z ; CDPTrans::OnQueryPostMail
PUBLIC	?OnQueryRemoveMail@CDPTrans@@QAEXAAVCAr@@KKKPAEK@Z ; CDPTrans::OnQueryRemoveMail
PUBLIC	?OnQueryGetMailItem@CDPTrans@@QAEXAAVCAr@@KKKPAEK@Z ; CDPTrans::OnQueryGetMailItem
PUBLIC	?OnQueryGetMailGold@CDPTrans@@QAEXAAVCAr@@KKKPAEK@Z ; CDPTrans::OnQueryGetMailGold
PUBLIC	?OnReadMail@CDPTrans@@QAEXAAVCAr@@KKKPAEK@Z	; CDPTrans::OnReadMail
PUBLIC	?SendAllMail@CDPTrans@@QAEXK@Z			; CDPTrans::SendAllMail
PUBLIC	?SendPostMail@CDPTrans@@QAEXHKPAVCMail@@@Z	; CDPTrans::SendPostMail
PUBLIC	?SendRemoveMail@CDPTrans@@QAEXKK@Z		; CDPTrans::SendRemoveMail
PUBLIC	?SendGetMailItem@CDPTrans@@QAEXKKK@Z		; CDPTrans::SendGetMailItem
PUBLIC	?SendGetMailGold@CDPTrans@@QAEXKKK@Z		; CDPTrans::SendGetMailGold
PUBLIC	?SendReadMail@CDPTrans@@QAEXKK@Z		; CDPTrans::SendReadMail
PUBLIC	?SendEventFlag@CDPTrans@@QAEXK@Z		; CDPTrans::SendEventFlag
PUBLIC	?SendEventGeneric@CDPTrans@@QAEXK@Z		; CDPTrans::SendEventGeneric
PUBLIC	?SendEventLuaState@CDPTrans@@QAEXV?$map@EHU?$less@E@std@@V?$allocator@U?$pair@$$CBEH@std@@@2@@std@@HK@Z ; CDPTrans::SendEventLuaState
PUBLIC	?SendEventLuaChanged@CDPTrans@@QAEXXZ		; CDPTrans::SendEventLuaChanged
PUBLIC	?OnEventLuaChanged@CDPTrans@@QAEXAAVCAr@@KKKPAEK@Z ; CDPTrans::OnEventLuaChanged
PUBLIC	?OnEveRecommend@CDPTrans@@QAEXAAVCAr@@KKKPAEK@Z	; CDPTrans::OnEveRecommend
PUBLIC	?OnSaveConcurrentUserNumber@CDPTrans@@QAEXAAVCAr@@KKKPAEK@Z ; CDPTrans::OnSaveConcurrentUserNumber
PUBLIC	??1?$_Tree@V?$_Tmap_traits@KP8CDPTrans@@AEXAAVCAr@@KKKPAEK@ZU?$less@K@std@@V?$allocator@U?$pair@$$CBKP8CDPTrans@@AEXAAVCAr@@KKKPAEK@Z@std@@@4@$0A@@std@@@std@@QAE@XZ ; std::_Tree<std::_Tmap_traits<unsigned long,void (__thiscall CDPTrans::*)(CAr &,unsigned long,unsigned long,unsigned long,unsigned char *,unsigned long),std::less<unsigned long>,std::allocator<std::pair<unsigned long const ,void (__thiscall CDPTrans::*)(CAr &,unsigned long,unsigned long,unsigned long,unsigned char *,unsigned long)> >,0> >::~_Tree<std::_Tmap_traits<unsigned long,void (__thiscall CDPTrans::*)(CAr &,unsigned long,unsigned long,unsigned long,unsigned char *,unsigned long),std::less<unsigned long>,std::allocator<std::pair<unsigned long const ,void (__thiscall CDPTrans::*)(CAr &,unsigned long,unsigned long,unsigned long,unsigned char *,unsigned long)> >,0> >
PUBLIC	?_Insert_node@?$_Tree_val@U?$_Tree_simple_types@U?$pair@$$CBKP8CDPTrans@@AEXAAVCAr@@KKKPAEK@Z@std@@@std@@@std@@QAEPAU?$_Tree_node@U?$pair@$$CBKP8CDPTrans@@AEXAAVCAr@@KKKPAEK@Z@std@@PAX@2@U?$_Tree_id@PAU?$_Tree_node@U?$pair@$$CBKP8CDPTrans@@AEXAAVCAr@@KKKPAEK@Z@std@@PAX@std@@@2@QAU32@@Z ; std::_Tree_val<std::_Tree_simple_types<std::pair<unsigned long const ,void (__thiscall CDPTrans::*)(CAr &,unsigned long,unsigned long,unsigned long,unsigned char *,unsigned long)> > >::_Insert_node
PUBLIC	??1?$map@KP8CDPTrans@@AEXAAVCAr@@KKKPAEK@ZU?$less@K@std@@V?$allocator@U?$pair@$$CBKP8CDPTrans@@AEXAAVCAr@@KKKPAEK@Z@std@@@4@@std@@QAE@XZ ; std::map<unsigned long,void (__thiscall CDPTrans::*)(CAr &,unsigned long,unsigned long,unsigned long,unsigned char *,unsigned long),std::less<unsigned long>,std::allocator<std::pair<unsigned long const ,void (__thiscall CDPTrans::*)(CAr &,unsigned long,unsigned long,unsigned long,unsigned char *,unsigned long)> > >::~map<unsigned long,void (__thiscall CDPTrans::*)(CAr &,unsigned long,unsigned long,unsigned long,unsigned char *,unsigned long),std::less<unsigned long>,std::allocator<std::pair<unsigned long const ,void (__thiscall CDPTrans::*)(CAr &,unsigned long,unsigned long,unsigned long,unsigned char *,unsigned long)> > >
PUBLIC	?OnRemoveConnection@CDPTrans@@AAEXK@Z		; CDPTrans::OnRemoveConnection
PUBLIC	?OnJoin@CDPTrans@@AAEXAAVCAr@@KKKPAEK@Z		; CDPTrans::OnJoin
PUBLIC	?OnSavePlayer@CDPTrans@@AAEXAAVCAr@@KKKPAEK@Z	; CDPTrans::OnSavePlayer
PUBLIC	?OnLogItem@CDPTrans@@AAEXAAVCAr@@KKKPAEK@Z	; CDPTrans::OnLogItem
PUBLIC	?OnLogQuest@CDPTrans@@AAEXAAVCAr@@KKKPAEK@Z	; CDPTrans::OnLogQuest
PUBLIC	?OnCalluspXXXMultiServer@CDPTrans@@AAEXAAVCAr@@KKKPAEK@Z ; CDPTrans::OnCalluspXXXMultiServer
PUBLIC	?OnLogExpBox@CDPTrans@@AAEXAAVCAr@@KKKPAEK@Z	; CDPTrans::OnLogExpBox
PUBLIC	?OnLogPlayConnect@CDPTrans@@AAEXAAVCAr@@KKKPAEK@Z ; CDPTrans::OnLogPlayConnect
PUBLIC	?OnLogPlayDeath@CDPTrans@@AAEXAAVCAr@@KKKPAEK@Z	; CDPTrans::OnLogPlayDeath
PUBLIC	?OnLogLevelUp@CDPTrans@@AAEXAAVCAr@@KKKPAEK@Z	; CDPTrans::OnLogLevelUp
PUBLIC	?OnLogServerDeath@CDPTrans@@AAEXAAVCAr@@KKKPAEK@Z ; CDPTrans::OnLogServerDeath
PUBLIC	?OnLogUniqueItem@CDPTrans@@AAEXAAVCAr@@KKKPAEK@Z ; CDPTrans::OnLogUniqueItem
PUBLIC	?OnChangeBankPass@CDPTrans@@AAEXAAVCAr@@KKKPAEK@Z ; CDPTrans::OnChangeBankPass
PUBLIC	?OnGammaChat@CDPTrans@@AAEXAAVCAr@@KKKPAEK@Z	; CDPTrans::OnGammaChat
PUBLIC	?OnLogPkPvp@CDPTrans@@AAEXAAVCAr@@KKKPAEK@Z	; CDPTrans::OnLogPkPvp
PUBLIC	?OnLogSchool@CDPTrans@@AAEXAAVCAr@@KKKPAEK@Z	; CDPTrans::OnLogSchool
PUBLIC	?OnPing@CDPTrans@@AAEXAAVCAr@@KKKPAEK@Z		; CDPTrans::OnPing
PUBLIC	?OnLogSkillPoint@CDPTrans@@AAEXAAVCAr@@KKKPAEK@Z ; CDPTrans::OnLogSkillPoint
PUBLIC	?OnQueryGuildBank@CDPTrans@@AAEXAAVCAr@@KKKPAEK@Z ; CDPTrans::OnQueryGuildBank
PUBLIC	?OnGuildBankUpdate@CDPTrans@@AAEXAAVCAr@@KKKPAEK@Z ; CDPTrans::OnGuildBankUpdate
PUBLIC	?OnGuildRealPay@CDPTrans@@AAEXAAVCAr@@KKKPAEK@Z	; CDPTrans::OnGuildRealPay
PUBLIC	?OnGuildContribution@CDPTrans@@AAEXAAVCAr@@KKKPAEK@Z ; CDPTrans::OnGuildContribution
PUBLIC	?OnSchoolReport@CDPTrans@@AAEXAAVCAr@@KKKPAEK@Z	; CDPTrans::OnSchoolReport
PUBLIC	?OnBuyingInfo@CDPTrans@@AAEXAAVCAr@@KKKPAEK@Z	; CDPTrans::OnBuyingInfo
PUBLIC	?OnQueryGuildQuest@CDPTrans@@AAEXAAVCAr@@KKKPAEK@Z ; CDPTrans::OnQueryGuildQuest
PUBLIC	?OnInsertGuildQuest@CDPTrans@@AAEXAAVCAr@@KKKPAEK@Z ; CDPTrans::OnInsertGuildQuest
PUBLIC	?OnUpdateGuildQuest@CDPTrans@@AAEXAAVCAr@@KKKPAEK@Z ; CDPTrans::OnUpdateGuildQuest
PUBLIC	?OnQuerySetPlayerName@CDPTrans@@AAEXAAVCAr@@KKKPAEK@Z ; CDPTrans::OnQuerySetPlayerName
PUBLIC	?OnItemTBLUpdate@CDPTrans@@AAEXAAVCAr@@KKKPAEK@Z ; CDPTrans::OnItemTBLUpdate
PUBLIC	?OnPreventLogin@CDPTrans@@AAEXAAVCAr@@KKKPAEK@Z	; CDPTrans::OnPreventLogin
PUBLIC	?OnCalluspPetLog@CDPTrans@@AAEXAAVCAr@@KKKPAEK@Z ; CDPTrans::OnCalluspPetLog
PUBLIC	?OnGC1to1StateToDBSrvr@CDPTrans@@AAEXAAVCAr@@KKKPAEK@Z ; CDPTrans::OnGC1to1StateToDBSrvr
PUBLIC	?OnGC1to1Tender@CDPTrans@@AAEXAAVCAr@@KKKPAEK@Z	; CDPTrans::OnGC1to1Tender
PUBLIC	?OnGC1to1LineUp@CDPTrans@@AAEXAAVCAr@@KKKPAEK@Z	; CDPTrans::OnGC1to1LineUp
PUBLIC	?OnGC1to1WarPerson@CDPTrans@@AAEXAAVCAr@@KKKPAEK@Z ; CDPTrans::OnGC1to1WarPerson
PUBLIC	?OnGC1to1WarGuild@CDPTrans@@AAEXAAVCAr@@KKKPAEK@Z ; CDPTrans::OnGC1to1WarGuild
PUBLIC	?OnGuildBankLogView@CDPTrans@@AAEXAAVCAr@@KKKPAEK@Z ; CDPTrans::OnGuildBankLogView
PUBLIC	?OnSealChar@CDPTrans@@AAEXAAVCAr@@KKKPAEK@Z	; CDPTrans::OnSealChar
PUBLIC	?OnSealCharConm@CDPTrans@@AAEXAAVCAr@@KKKPAEK@Z	; CDPTrans::OnSealCharConm
PUBLIC	?OnSealCharGet@CDPTrans@@AAEXAAVCAr@@KKKPAEK@Z	; CDPTrans::OnSealCharGet
PUBLIC	?OnSealCharSet@CDPTrans@@AAEXAAVCAr@@KKKPAEK@Z	; CDPTrans::OnSealCharSet
PUBLIC	?OnUpdatePlayerData@CDPTrans@@AAEXAAVCAr@@KKKPAEK@Z ; CDPTrans::OnUpdatePlayerData
PUBLIC	?OnQueryRemoveGuildBankTbl@CDPTrans@@AAEXAAVCAr@@KKKPAEK@Z ; CDPTrans::OnQueryRemoveGuildBankTbl
PUBLIC	?OnCalluspLoggingQuest@CDPTrans@@AAEXAAVCAr@@KKKPAEK@Z ; CDPTrans::OnCalluspLoggingQuest
PUBLIC	?OnGuidCombatInGuild@CDPTrans@@QAEXAAVCAr@@KKKPAEK@Z ; CDPTrans::OnGuidCombatInGuild
PUBLIC	?OnGuidCombatOutGuild@CDPTrans@@QAEXAAVCAr@@KKKPAEK@Z ; CDPTrans::OnGuidCombatOutGuild
PUBLIC	?OnResultGuildCombat@CDPTrans@@QAEXAAVCAr@@KKKPAEK@Z ; CDPTrans::OnResultGuildCombat
PUBLIC	?OnStartGuildCombat@CDPTrans@@QAEXAAVCAr@@KKKPAEK@Z ; CDPTrans::OnStartGuildCombat
PUBLIC	?OnGCGetPenyaGuild@CDPTrans@@QAEXAAVCAr@@KKKPAEK@Z ; CDPTrans::OnGCGetPenyaGuild
PUBLIC	?OnGCGetPenyaPlayer@CDPTrans@@QAEXAAVCAr@@KKKPAEK@Z ; CDPTrans::OnGCGetPenyaPlayer
PUBLIC	?OnGCContinue@CDPTrans@@QAEXAAVCAr@@KKKPAEK@Z	; CDPTrans::OnGCContinue
PUBLIC	?SendInGuildCombat@CDPTrans@@QAEXKKK@Z		; CDPTrans::SendInGuildCombat
PUBLIC	?SendOutGuildCombat@CDPTrans@@QAEXK@Z		; CDPTrans::SendOutGuildCombat
PUBLIC	?SendResultGuildCombat@CDPTrans@@QAEXXZ		; CDPTrans::SendResultGuildCombat
PUBLIC	?SendPlayerPointGuildCombat@CDPTrans@@QAEXXZ	; CDPTrans::SendPlayerPointGuildCombat
PUBLIC	?SendGetPenyaGuildGC@CDPTrans@@QAEXKHK@Z	; CDPTrans::SendGetPenyaGuildGC
PUBLIC	?SendGetPenyaPlayerGC@CDPTrans@@QAEXKHK@Z	; CDPTrans::SendGetPenyaPlayerGC
PUBLIC	?SendContinueGC@CDPTrans@@QAEXXZ		; CDPTrans::SendContinueGC
PUBLIC	?SendQueryRemoveGuildBankTbl@CDPTrans@@QAEXHKKKK@Z ; CDPTrans::SendQueryRemoveGuildBankTbl
PUBLIC	?SendElectionAddDeposit@CDPTrans@@QAEXK_JJH@Z	; CDPTrans::SendElectionAddDeposit
PUBLIC	?SendElectionSetPledge@CDPTrans@@QAEXKPBDH@Z	; CDPTrans::SendElectionSetPledge
PUBLIC	?SendElectionIncVote@CDPTrans@@QAEXKKH@Z	; CDPTrans::SendElectionIncVote
PUBLIC	?SendElectionBeginCandidacy@CDPTrans@@QAEXXZ	; CDPTrans::SendElectionBeginCandidacy
PUBLIC	?SendElectionBeginVote@CDPTrans@@QAEXH@Z	; CDPTrans::SendElectionBeginVote
PUBLIC	?SendElectionEndVote@CDPTrans@@QAEXK@Z		; CDPTrans::SendElectionEndVote
PUBLIC	?SendLord@CDPTrans@@QAEXK@Z			; CDPTrans::SendLord
PUBLIC	?SendLEventCreate@CDPTrans@@QAEXPAVCLEComponent@@H@Z ; CDPTrans::SendLEventCreate
PUBLIC	?SendLEventInitialize@CDPTrans@@QAEXXZ		; CDPTrans::SendLEventInitialize
PUBLIC	?SendLordSkillUse@CDPTrans@@QAEXKKHH@Z		; CDPTrans::SendLordSkillUse
PUBLIC	?SendLordSkillTick@CDPTrans@@QAEXPAVCLordSkill@@@Z ; CDPTrans::SendLordSkillTick
PUBLIC	?SendLEventTick@CDPTrans@@QAEXPAVILordEvent@@@Z	; CDPTrans::SendLEventTick
PUBLIC	?OnElectionAddDeposit@CDPTrans@@AAEXAAVCAr@@KKKPAEK@Z ; CDPTrans::OnElectionAddDeposit
PUBLIC	?OnElectionSetPledge@CDPTrans@@AAEXAAVCAr@@KKKPAEK@Z ; CDPTrans::OnElectionSetPledge
PUBLIC	?OnElectionIncVote@CDPTrans@@AAEXAAVCAr@@KKKPAEK@Z ; CDPTrans::OnElectionIncVote
PUBLIC	?OnLEventCreate@CDPTrans@@AAEXAAVCAr@@KKKPAEK@Z	; CDPTrans::OnLEventCreate
PUBLIC	?OnLordSkillUse@CDPTrans@@AAEXAAVCAr@@KKKPAEK@Z	; CDPTrans::OnLordSkillUse
PUBLIC	?OnElectionProcess@CDPTrans@@AAEXAAVCAr@@KKKPAEK@Z ; CDPTrans::OnElectionProcess
PUBLIC	?OnElectionBeginCandidacy@CDPTrans@@AAEXAAVCAr@@KKKPAEK@Z ; CDPTrans::OnElectionBeginCandidacy
PUBLIC	?OnElectionBeginVote@CDPTrans@@AAEXAAVCAr@@KKKPAEK@Z ; CDPTrans::OnElectionBeginVote
PUBLIC	?OnElectionEndVote@CDPTrans@@AAEXAAVCAr@@KKKPAEK@Z ; CDPTrans::OnElectionEndVote
PUBLIC	?OnLEventInitialize@CDPTrans@@AAEXAAVCAr@@KKKPAEK@Z ; CDPTrans::OnLEventInitialize
PUBLIC	?SendTaxInfo@CDPTrans@@QAEXKHH@Z		; CDPTrans::SendTaxInfo
PUBLIC	?OnSetSecretRoomWinGuild@CDPTrans@@AAEXAAVCAr@@KKKPAEK@Z ; CDPTrans::OnSetSecretRoomWinGuild
PUBLIC	?OnSetLord@CDPTrans@@AAEXAAVCAr@@KKKPAEK@Z	; CDPTrans::OnSetLord
PUBLIC	?OnTaxRate@CDPTrans@@AAEXAAVCAr@@KKKPAEK@Z	; CDPTrans::OnTaxRate
PUBLIC	?OnAddTax@CDPTrans@@AAEXAAVCAr@@KKKPAEK@Z	; CDPTrans::OnAddTax
PUBLIC	?OnApplyTaxRateNow@CDPTrans@@AAEXAAVCAr@@KKKPAEK@Z ; CDPTrans::OnApplyTaxRateNow
PUBLIC	?SendSecretRoomInfoClear@CDPTrans@@QAEXK@Z	; CDPTrans::SendSecretRoomInfoClear
PUBLIC	?SendSecretRoomTenderInfo@CDPTrans@@QAEXEKHAAV?$vector@KV?$allocator@K@std@@@std@@K@Z ; CDPTrans::SendSecretRoomTenderInfo
PUBLIC	?OnSecretRoomInsertToDB@CDPTrans@@AAEXAAVCAr@@KKKPAEK@Z ; CDPTrans::OnSecretRoomInsertToDB
PUBLIC	?OnSecretRoomUpdateToDB@CDPTrans@@AAEXAAVCAr@@KKKPAEK@Z ; CDPTrans::OnSecretRoomUpdateToDB
PUBLIC	?OnSecretRoomLineUpToDB@CDPTrans@@AAEXAAVCAr@@KKKPAEK@Z ; CDPTrans::OnSecretRoomLineUpToDB
PUBLIC	?OnSecretRoomClosed@CDPTrans@@AAEXAAVCAr@@KKKPAEK@Z ; CDPTrans::OnSecretRoomClosed
PUBLIC	?SendRainbowRaceInfo@CDPTrans@@QAEXAAV?$vector@KV?$allocator@K@std@@@std@@0K@Z ; CDPTrans::SendRainbowRaceInfo
PUBLIC	?OnRainbowRaceLoadInfo@CDPTrans@@AAEXAAVCAr@@KKKPAEK@Z ; CDPTrans::OnRainbowRaceLoadInfo
PUBLIC	?OnRainbowRaceApplication@CDPTrans@@AAEXAAVCAr@@KKKPAEK@Z ; CDPTrans::OnRainbowRaceApplication
PUBLIC	?OnRainbowRaceFailedUser@CDPTrans@@AAEXAAVCAr@@KKKPAEK@Z ; CDPTrans::OnRainbowRaceFailedUser
PUBLIC	?OnRainbowRaceRanking@CDPTrans@@AAEXAAVCAr@@KKKPAEK@Z ; CDPTrans::OnRainbowRaceRanking
PUBLIC	?SendHousingLoadInfo@CDPTrans@@QAEXKPAVCHousing@@K@Z ; CDPTrans::SendHousingLoadInfo
PUBLIC	?SendHousingFurnitureList@CDPTrans@@QAEXKAAUHOUSINGINFO@@HK@Z ; CDPTrans::SendHousingFurnitureList
PUBLIC	?SendHousingSetupFurniture@CDPTrans@@QAEXKUHOUSINGINFO@@K@Z ; CDPTrans::SendHousingSetupFurniture
PUBLIC	?SendHousingSetVisitAllow@CDPTrans@@QAEXKKHK@Z	; CDPTrans::SendHousingSetVisitAllow
PUBLIC	?SendHousingDBFailed@CDPTrans@@QAEXKKK@Z	; CDPTrans::SendHousingDBFailed
PUBLIC	?OnHousingLoadInfo@CDPTrans@@AAEXAAVCAr@@KKKPAEK@Z ; CDPTrans::OnHousingLoadInfo
PUBLIC	?OnHousingReqSetFurnitureList@CDPTrans@@AAEXAAVCAr@@KKKPAEK@Z ; CDPTrans::OnHousingReqSetFurnitureList
PUBLIC	?OnHousingReqSetupFurniture@CDPTrans@@AAEXAAVCAr@@KKKPAEK@Z ; CDPTrans::OnHousingReqSetupFurniture
PUBLIC	?OnHousingReqSetVisitAllow@CDPTrans@@AAEXAAVCAr@@KKKPAEK@Z ; CDPTrans::OnHousingReqSetVisitAllow
PUBLIC	?OnHousingReqGMRemoveAll@CDPTrans@@AAEXAAVCAr@@KKKPAEK@Z ; CDPTrans::OnHousingReqGMRemoveAll
PUBLIC	?OnPropose@CDPTrans@@QAEXAAVCAr@@KKKPAEK@Z	; CDPTrans::OnPropose
PUBLIC	?OnCouple@CDPTrans@@QAEXAAVCAr@@KKKPAEK@Z	; CDPTrans::OnCouple
PUBLIC	?OnDecouple@CDPTrans@@QAEXAAVCAr@@KKKPAEK@Z	; CDPTrans::OnDecouple
PUBLIC	?OnClearPropose@CDPTrans@@QAEXAAVCAr@@KKKPAEK@Z	; CDPTrans::OnClearPropose
PUBLIC	?SendCouple@CDPTrans@@QAEXPAVCCoupleMgr@@K@Z	; CDPTrans::SendCouple
PUBLIC	?SendProposeResult@CDPTrans@@QAEXKKHJK@Z	; CDPTrans::SendProposeResult
PUBLIC	?SendCoupleResult@CDPTrans@@QAEXKKH@Z		; CDPTrans::SendCoupleResult
PUBLIC	?SendDecoupleResult@CDPTrans@@QAEXKH@Z		; CDPTrans::SendDecoupleResult
PUBLIC	?OnQueryAddCoupleExperience@CDPTrans@@QAEXAAVCAr@@KKKPAEK@Z ; CDPTrans::OnQueryAddCoupleExperience
PUBLIC	?SendAddCoupleExperience@CDPTrans@@QAEXKH@Z	; CDPTrans::SendAddCoupleExperience
PUBLIC	?OnLogGetHonorTime@CDPTrans@@QAEXAAVCAr@@KKKPAEK@Z ; CDPTrans::OnLogGetHonorTime
PUBLIC	?OnFunnyCoinReqUse@CDPTrans@@QAEXAAVCAr@@KKKPAEK@Z ; CDPTrans::OnFunnyCoinReqUse
PUBLIC	?SendFunnyCoinAckUse@CDPTrans@@QAEXKKKHK@Z	; CDPTrans::SendFunnyCoinAckUse
PUBLIC	?SendPCBangSetApply@CDPTrans@@QAEXK@Z		; CDPTrans::SendPCBangSetApply
PUBLIC	?OnLogInstanceDungeon@CDPTrans@@QAEXAAVCAr@@KKKPAEK@Z ; CDPTrans::OnLogInstanceDungeon
PUBLIC	?OnQuizEventOpen@CDPTrans@@QAEXAAVCAr@@KKKPAEK@Z ; CDPTrans::OnQuizEventOpen
PUBLIC	?OnQuizEventState@CDPTrans@@QAEXAAVCAr@@KKKPAEK@Z ; CDPTrans::OnQuizEventState
PUBLIC	?OnQuizEventEntrance@CDPTrans@@QAEXAAVCAr@@KKKPAEK@Z ; CDPTrans::OnQuizEventEntrance
PUBLIC	?OnQuizEventSelect@CDPTrans@@QAEXAAVCAr@@KKKPAEK@Z ; CDPTrans::OnQuizEventSelect
PUBLIC	?OnPostPrizeItem@CDPTrans@@QAEXAAVCAr@@KKKPAEK@Z ; CDPTrans::OnPostPrizeItem
PUBLIC	?SendQuizEventOpen@CDPTrans@@QAEXK@Z		; CDPTrans::SendQuizEventOpen
PUBLIC	?SendQuizList@CDPTrans@@QAEXKAAU_QUIZLIST@CQuiz@@H@Z ; CDPTrans::SendQuizList
PUBLIC	?SendQuizEventNotice@CDPTrans@@QAEXK@Z		; CDPTrans::SendQuizEventNotice
PUBLIC	?SendQuizEventChanged@CDPTrans@@QAEXXZ		; CDPTrans::SendQuizEventChanged
PUBLIC	?OnErrorLog@CDPTrans@@QAEXAAVCAr@@KKKPAEK@Z	; CDPTrans::OnErrorLog
PUBLIC	?OnBuyGuildHouse@CDPTrans@@QAEXAAVCAr@@KKKPAEK@Z ; CDPTrans::OnBuyGuildHouse
PUBLIC	?OnGuildHousePacket@CDPTrans@@QAEXAAVCAr@@KKKPAEK@Z ; CDPTrans::OnGuildHousePacket
PUBLIC	?OnLogGuildFurniture@CDPTrans@@QAEXAAVCAr@@KKKPAEK@Z ; CDPTrans::OnLogGuildFurniture
PUBLIC	?OnAddCampusMember@CDPTrans@@AAEXAAVCAr@@KKKPAEK@Z ; CDPTrans::OnAddCampusMember
PUBLIC	?OnRemoveCampusMember@CDPTrans@@AAEXAAVCAr@@KKKPAEK@Z ; CDPTrans::OnRemoveCampusMember
PUBLIC	?OnUpdateCampusPoint@CDPTrans@@AAEXAAVCAr@@KKKPAEK@Z ; CDPTrans::OnUpdateCampusPoint
PUBLIC	?SendAllCampus@CDPTrans@@QAEXK@Z		; CDPTrans::SendAllCampus
PUBLIC	?SendAddCampusMember@CDPTrans@@QAEXKKK@Z	; CDPTrans::SendAddCampusMember
PUBLIC	?SendRemoveCampusMember@CDPTrans@@QAEXKK@Z	; CDPTrans::SendRemoveCampusMember
PUBLIC	?SendUpdateCampusPoint@CDPTrans@@QAEXKH@Z	; CDPTrans::SendUpdateCampusPoint
PUBLIC	??_GCDPTrans@@UAEPAXI@Z				; CDPTrans::`scalar deleting destructor'
PUBLIC	??$insert@$0A@$0A@@?$_Tree@V?$_Tmap_traits@KP8CDPTrans@@AEXAAVCAr@@KKKPAEK@ZU?$less@K@std@@V?$allocator@U?$pair@$$CBKP8CDPTrans@@AEXAAVCAr@@KKKPAEK@Z@std@@@4@$0A@@std@@@std@@QAE?AU?$pair@V?$_Tree_iterator@V?$_Tree_val@U?$_Tree_simple_types@U?$pair@$$CBKP8CDPTrans@@AEXAAVCAr@@KKKPAEK@Z@std@@@std@@@std@@@std@@_N@1@$$QAU?$pair@$$CBKP8CDPTrans@@AEXAAVCAr@@KKKPAEK@Z@1@@Z ; std::_Tree<std::_Tmap_traits<unsigned long,void (__thiscall CDPTrans::*)(CAr &,unsigned long,unsigned long,unsigned long,unsigned char *,unsigned long),std::less<unsigned long>,std::allocator<std::pair<unsigned long const ,void (__thiscall CDPTrans::*)(CAr &,unsigned long,unsigned long,unsigned long,unsigned char *,unsigned long)> >,0> >::insert<0,0>
PUBLIC	??1?$vector@EV?$allocator@E@std@@@std@@QAE@XZ	; std::vector<unsigned char,std::allocator<unsigned char> >::~vector<unsigned char,std::allocator<unsigned char> >
PUBLIC	??$?6I@CAr@@QAEAAV0@ABI@Z			; CAr::operator<<<unsigned int>
PUBLIC	??$?5E@CAr@@QAEAAV0@AAE@Z			; CAr::operator>><unsigned char>
PUBLIC	??$?5_J@CAr@@QAEAAV0@AA_J@Z			; CAr::operator>><__int64>
PUBLIC	??1?$pair@$$CBHV?$basic_string@DU?$char_traits@D@std@@V?$allocator@D@2@@std@@@std@@QAE@XZ ; std::pair<int const ,std::basic_string<char,std::char_traits<char>,std::allocator<char> > >::~pair<int const ,std::basic_string<char,std::char_traits<char>,std::allocator<char> > >
PUBLIC	??$?6E@CAr@@QAEAAV0@ABE@Z			; CAr::operator<<<unsigned char>
PUBLIC	??$?6_J@CAr@@QAEAAV0@AB_J@Z			; CAr::operator<<<__int64>
PUBLIC	??$_Erase_head@V?$allocator@U?$_Tree_node@U?$pair@$$CBEH@std@@PAX@std@@@std@@@?$_Tree_val@U?$_Tree_simple_types@U?$pair@$$CBEH@std@@@std@@@std@@QAEXAAV?$allocator@U?$_Tree_node@U?$pair@$$CBEH@std@@PAX@std@@@1@@Z ; std::_Tree_val<std::_Tree_simple_types<std::pair<unsigned char const ,int> > >::_Erase_head<std::allocator<std::_Tree_node<std::pair<unsigned char const ,int>,void *> > >
PUBLIC	??$_Find_lower_bound@K@?$_Tree@V?$_Tmap_traits@KP8CDPTrans@@AEXAAVCAr@@KKKPAEK@ZU?$less@K@std@@V?$allocator@U?$pair@$$CBKP8CDPTrans@@AEXAAVCAr@@KKKPAEK@Z@std@@@4@$0A@@std@@@std@@IBE?AU?$_Tree_find_result@PAU?$_Tree_node@U?$pair@$$CBKP8CDPTrans@@AEXAAVCAr@@KKKPAEK@Z@std@@PAX@std@@@1@ABK@Z ; std::_Tree<std::_Tmap_traits<unsigned long,void (__thiscall CDPTrans::*)(CAr &,unsigned long,unsigned long,unsigned long,unsigned char *,unsigned long),std::less<unsigned long>,std::allocator<std::pair<unsigned long const ,void (__thiscall CDPTrans::*)(CAr &,unsigned long,unsigned long,unsigned long,unsigned char *,unsigned long)> >,0> >::_Find_lower_bound<unsigned long>
PUBLIC	??1?$_Alloc_construct_ptr@V?$allocator@U?$_Tree_node@U?$pair@$$CBKP8CDPTrans@@AEXAAVCAr@@KKKPAEK@Z@std@@PAX@std@@@std@@@std@@QAE@XZ ; std::_Alloc_construct_ptr<std::allocator<std::_Tree_node<std::pair<unsigned long const ,void (__thiscall CDPTrans::*)(CAr &,unsigned long,unsigned long,unsigned long,unsigned char *,unsigned long)>,void *> > >::~_Alloc_construct_ptr<std::allocator<std::_Tree_node<std::pair<unsigned long const ,void (__thiscall CDPTrans::*)(CAr &,unsigned long,unsigned long,unsigned long,unsigned char *,unsigned long)>,void *> > >
PUBLIC	??1?$_Alloc_construct_ptr@V?$allocator@U?$_Tree_node@U?$pair@$$CBHV?$basic_string@DU?$char_traits@D@std@@V?$allocator@D@2@@std@@@std@@PAX@std@@@std@@@std@@QAE@XZ ; std::_Alloc_construct_ptr<std::allocator<std::_Tree_node<std::pair<int const ,std::basic_string<char,std::char_traits<char>,std::allocator<char> > >,void *> > >::~_Alloc_construct_ptr<std::allocator<std::_Tree_node<std::pair<int const ,std::basic_string<char,std::char_traits<char>,std::allocator<char> > >,void *> > >
PUBLIC	??$_Erase_tree@V?$allocator@U?$_Tree_node@U?$pair@$$CBKP8CDPTrans@@AEXAAVCAr@@KKKPAEK@Z@std@@PAX@std@@@std@@@?$_Tree_val@U?$_Tree_simple_types@U?$pair@$$CBKP8CDPTrans@@AEXAAVCAr@@KKKPAEK@Z@std@@@std@@@std@@QAEXAAV?$allocator@U?$_Tree_node@U?$pair@$$CBKP8CDPTrans@@AEXAAVCAr@@KKKPAEK@Z@std@@PAX@std@@@1@PAU?$_Tree_node@U?$pair@$$CBKP8CDPTrans@@AEXAAVCAr@@KKKPAEK@Z@std@@PAX@1@@Z ; std::_Tree_val<std::_Tree_simple_types<std::pair<unsigned long const ,void (__thiscall CDPTrans::*)(CAr &,unsigned long,unsigned long,unsigned long,unsigned char *,unsigned long)> > >::_Erase_tree<std::allocator<std::_Tree_node<std::pair<unsigned long const ,void (__thiscall CDPTrans::*)(CAr &,unsigned long,unsigned long,unsigned long,unsigned char *,unsigned long)>,void *> > >
PUBLIC	??$_Erase_tree@V?$allocator@U?$_Tree_node@U?$pair@$$CBEH@std@@PAX@std@@@std@@@?$_Tree_val@U?$_Tree_simple_types@U?$pair@$$CBEH@std@@@std@@@std@@QAEXAAV?$allocator@U?$_Tree_node@U?$pair@$$CBEH@std@@PAX@std@@@1@PAU?$_Tree_node@U?$pair@$$CBEH@std@@PAX@1@@Z ; std::_Tree_val<std::_Tree_simple_types<std::pair<unsigned char const ,int> > >::_Erase_tree<std::allocator<std::_Tree_node<std::pair<unsigned char const ,int>,void *> > >
PUBLIC	??1?$_Tree_head_scoped_ptr@V?$allocator@U?$_Tree_node@U?$pair@$$CBEH@std@@PAX@std@@@std@@V?$_Tree_val@U?$_Tree_simple_types@U?$pair@$$CBEH@std@@@std@@@2@@std@@QAE@XZ ; std::_Tree_head_scoped_ptr<std::allocator<std::_Tree_node<std::pair<unsigned char const ,int>,void *> >,std::_Tree_val<std::_Tree_simple_types<std::pair<unsigned char const ,int> > > >::~_Tree_head_scoped_ptr<std::allocator<std::_Tree_node<std::pair<unsigned char const ,int>,void *> >,std::_Tree_val<std::_Tree_simple_types<std::pair<unsigned char const ,int> > > >
PUBLIC	??1?$_Alloc_construct_ptr@V?$allocator@U?$_Tree_node@U?$pair@$$CBEH@std@@PAX@std@@@std@@@std@@QAE@XZ ; std::_Alloc_construct_ptr<std::allocator<std::_Tree_node<std::pair<unsigned char const ,int>,void *> > >::~_Alloc_construct_ptr<std::allocator<std::_Tree_node<std::pair<unsigned char const ,int>,void *> > >
PUBLIC	??$_Copy_nodes@$0A@@?$_Tree@V?$_Tmap_traits@EHU?$less@E@std@@V?$allocator@U?$pair@$$CBEH@std@@@2@$0A@@std@@@std@@IAEPAU?$_Tree_node@U?$pair@$$CBEH@std@@PAX@1@PAU21@0@Z ; std::_Tree<std::_Tmap_traits<unsigned char,int,std::less<unsigned char>,std::allocator<std::pair<unsigned char const ,int> >,0> >::_Copy_nodes<0>
PUBLIC	??1?$_Erase_tree_and_orphan_guard@V?$allocator@U?$_Tree_node@U?$pair@$$CBEH@std@@PAX@std@@@std@@@?$_Tree_val@U?$_Tree_simple_types@U?$pair@$$CBEH@std@@@std@@@std@@QAE@XZ ; std::_Tree_val<std::_Tree_simple_types<std::pair<unsigned char const ,int> > >::_Erase_tree_and_orphan_guard<std::allocator<std::_Tree_node<std::pair<unsigned char const ,int>,void *> > >::~_Erase_tree_and_orphan_guard<std::allocator<std::_Tree_node<std::pair<unsigned char const ,int>,void *> > >
PUBLIC	??$_Erase_tree_and_orphan@V?$allocator@U?$_Tree_node@U?$pair@$$CBEH@std@@PAX@std@@@std@@@?$_Tree_val@U?$_Tree_simple_types@U?$pair@$$CBEH@std@@@std@@@std@@QAEXAAV?$allocator@U?$_Tree_node@U?$pair@$$CBEH@std@@PAX@std@@@1@PAU?$_Tree_node@U?$pair@$$CBEH@std@@PAX@1@@Z ; std::_Tree_val<std::_Tree_simple_types<std::pair<unsigned char const ,int> > >::_Erase_tree_and_orphan<std::allocator<std::_Tree_node<std::pair<unsigned char const ,int>,void *> > >
PUBLIC	?_OptionsStorage@?1??__local_stdio_printf_options@@9@4_KA ; `__local_stdio_printf_options'::`2'::_OptionsStorage
PUBLIC	??_7exception@std@@6B@				; std::exception::`vftable'
PUBLIC	??_C@_0BC@EOODALEL@Unknown?5exception@		; `string'
PUBLIC	??_7bad_alloc@std@@6B@				; std::bad_alloc::`vftable'
PUBLIC	??_7bad_array_new_length@std@@6B@		; std::bad_array_new_length::`vftable'
PUBLIC	??_C@_0BF@KINCDENJ@bad?5array?5new?5length@	; `string'
PUBLIC	??_R0?AVexception@std@@@8			; std::exception `RTTI Type Descriptor'
PUBLIC	__CT??_R0?AVexception@std@@@8??0exception@std@@QAE@ABV01@@Z12
PUBLIC	__TI3?AVbad_array_new_length@std@@
PUBLIC	__CTA3?AVbad_array_new_length@std@@
PUBLIC	??_R0?AVbad_array_new_length@std@@@8		; std::bad_array_new_length `RTTI Type Descriptor'
PUBLIC	__CT??_R0?AVbad_array_new_length@std@@@8??0bad_array_new_length@std@@QAE@ABV01@@Z12
PUBLIC	??_R0?AVbad_alloc@std@@@8			; std::bad_alloc `RTTI Type Descriptor'
PUBLIC	__CT??_R0?AVbad_alloc@std@@@8??0bad_alloc@std@@QAE@ABV01@@Z12
PUBLIC	??_C@_0BA@JFNIOLAK@string?5too?5long@		; `string'
PUBLIC	??_C@_0BB@GCADKGJO@map?1set?5too?5long@		; `string'
PUBLIC	??_C@_09PKKCPLIP@bad?5alloc@			; `string'
PUBLIC	??_C@_0O@NKNMEGII@list?5too?5long@		; `string'
PUBLIC	??_R4exception@std@@6B@				; std::exception::`RTTI Complete Object Locator'
PUBLIC	??_R3exception@std@@8				; std::exception::`RTTI Class Hierarchy Descriptor'
PUBLIC	??_R2exception@std@@8				; std::exception::`RTTI Base Class Array'
PUBLIC	??_R1A@?0A@EA@exception@std@@8			; std::exception::`RTTI Base Class Descriptor at (0,-1,0,64)'
PUBLIC	??_R4bad_array_new_length@std@@6B@		; std::bad_array_new_length::`RTTI Complete Object Locator'
PUBLIC	??_R3bad_array_new_length@std@@8		; std::bad_array_new_length::`RTTI Class Hierarchy Descriptor'
PUBLIC	??_R2bad_array_new_length@std@@8		; std::bad_array_new_length::`RTTI Base Class Array'
PUBLIC	??_R1A@?0A@EA@bad_array_new_length@std@@8	; std::bad_array_new_length::`RTTI Base Class Descriptor at (0,-1,0,64)'
PUBLIC	??_R1A@?0A@EA@bad_alloc@std@@8			; std::bad_alloc::`RTTI Base Class Descriptor at (0,-1,0,64)'
PUBLIC	??_R3bad_alloc@std@@8				; std::bad_alloc::`RTTI Class Hierarchy Descriptor'
PUBLIC	??_R2bad_alloc@std@@8				; std::bad_alloc::`RTTI Base Class Array'
PUBLIC	??_R4bad_alloc@std@@6B@				; std::bad_alloc::`RTTI Complete Object Locator'
PUBLIC	??_C@_02PCIJFNDE@?$AN?6@			; `string'
PUBLIC	??_C@_01DNKMNLPK@?$HM@				; `string'
PUBLIC	??_7CDPTrans@@6B@				; CDPTrans::`vftable'
PUBLIC	??_C@_0CN@GNGHFAJA@DATABASESERVER?4EXE?7?1?1?5PACKETTYP@ ; `string'
PUBLIC	??_C@_0GD@PEKJGBON@CDPTrans?3?3OnSavePlayer?5?9?5Cache?5@ ; `string'
PUBLIC	??_C@_0CH@EEFADFEP@DATABASESERVER?4EXE?7?1?1?5recv?5from@ ; `string'
PUBLIC	??_C@_0DF@KNCJCLGO@DATABASESERVER?4EXE?7?1?1?5PACKETTYP@ ; `string'
PUBLIC	??_C@_0CB@JFCGEHIF@CDPTrans?3?3OnElectionAddDeposit?$CI@ ; `string'
PUBLIC	??_C@_0CA@MPPFJBHM@CDPTrans?3?3OnElectionSetPledge?$CI?$CJ@ ; `string'
PUBLIC	??_C@_0BO@NHHCPIJ@CDPTrans?3?3OnElectionIncVote?$CI?$CJ@ ; `string'
PUBLIC	??_C@_0BL@HAHGHEMC@CDPTrans?3?3OnLEventCreate?$CI?$CJ@ ; `string'
PUBLIC	??_C@_0BL@MHNPNLFK@CDPTrans?3?3OnLordSkillUse?$CI?$CJ@ ; `string'
PUBLIC	??_C@_0BP@PFFHNAEL@CDPTrans?3?3OnLEventInitialize?$CI?$CJ@ ; `string'
PUBLIC	??_C@_0BO@FHAFFMEB@CDPTrans?3?3OnElectionProcess?$CI?$CJ@ ; `string'
PUBLIC	??_C@_0CF@LCEMNFNM@CDPTrans?3?3OnElectionBeginCandid@ ; `string'
PUBLIC	??_C@_0CA@IAGKNJKO@CDPTrans?3?3OnElectionBeginVote?$CI?$CJ@ ; `string'
PUBLIC	??_C@_0BO@BNIOMGBO@CDPTrans?3?3OnElectionEndVote?$CI?$CJ@ ; `string'
PUBLIC	??_C@_0BF@EIMIDCDA@?6CDPTrans?4OnPropose?6@	; `string'
PUBLIC	??_C@_0BE@CENKHPMG@?6CDPTrans?4OnCouple?6@	; `string'
PUBLIC	??_C@_0BG@CHMNHPOM@?6CDPTrans?4OnDecouple?6@	; `string'
PUBLIC	??_C@_0BK@JGIHCGMO@?6CDPTrans?4OnClearPropose?6@ ; `string'
PUBLIC	??_C@_0CG@CMKNMECG@?6CDPTrans?4OnQueryAddCoupleExper@ ; `string'
PUBLIC	??_R4CDPTrans@@6B@				; CDPTrans::`RTTI Complete Object Locator'
PUBLIC	??_R0?AVCDPTrans@@@8				; CDPTrans `RTTI Type Descriptor'
PUBLIC	??_R3CDPTrans@@8				; CDPTrans::`RTTI Class Hierarchy Descriptor'
PUBLIC	??_R2CDPTrans@@8				; CDPTrans::`RTTI Base Class Array'
PUBLIC	??_R1A@?0A@EA@CDPTrans@@8			; CDPTrans::`RTTI Base Class Descriptor at (0,-1,0,64)'
PUBLIC	??_R1A@?0A@EA@CDPMng@@8				; CDPMng::`RTTI Base Class Descriptor at (0,-1,0,64)'
PUBLIC	??_R0?AVCDPMng@@@8				; CDPMng `RTTI Type Descriptor'
PUBLIC	??_R3CDPMng@@8					; CDPMng::`RTTI Class Hierarchy Descriptor'
PUBLIC	??_R2CDPMng@@8					; CDPMng::`RTTI Base Class Array'
EXTRN	??2@YAPAXI@Z:PROC				; operator new
EXTRN	??3@YAXPAXI@Z:PROC				; operator delete
EXTRN	_atexit:PROC
EXTRN	__Init_thread_header:PROC
EXTRN	__Init_thread_abort:PROC
EXTRN	__Init_thread_footer:PROC
EXTRN	__invalid_parameter_noinfo:PROC
EXTRN	__invoke_watson:PROC
EXTRN	__errno:PROC
EXTRN	__imp__OutputDebugStringA@4:PROC
EXTRN	__imp__PostQueuedCompletionStatus@16:PROC
EXTRN	__imp__EnterCriticalSection@4:PROC
EXTRN	__imp__LeaveCriticalSection@4:PROC
EXTRN	__imp__VirtualAlloc@16:PROC
EXTRN	__imp__lstrcpyA@8:PROC
EXTRN	__mbsstr:PROC
EXTRN	___stdio_common_vsprintf:PROC
EXTRN	__time32:PROC
EXTRN	?AfxThrowMemoryException@@YGXXZ:PROC		; AfxThrowMemoryException
EXTRN	?AfxThrowInvalidArgException@@YGXXZ:PROC	; AfxThrowInvalidArgException
EXTRN	?AfxThrowOleException@@YGXJ@Z:PROC		; AfxThrowOleException
EXTRN	?_Xlength_error@std@@YAXPBD@Z:PROC		; std::_Xlength_error
EXTRN	___std_exception_copy:PROC
EXTRN	___std_exception_destroy:PROC
EXTRN	??_Eexception@std@@UAEPAXI@Z:PROC		; std::exception::`vector deleting destructor'
EXTRN	??_Ebad_alloc@std@@UAEPAXI@Z:PROC		; std::bad_alloc::`vector deleting destructor'
EXTRN	??_Ebad_array_new_length@std@@UAEPAXI@Z:PROC	; std::bad_array_new_length::`vector deleting destructor'
EXTRN	?Error@@YAPBDPBDZZ:PROC				; Error
EXTRN	?CheckEventState@CEventLua@@QAEHXZ:PROC		; CEventLua::CheckEventState
EXTRN	?GetEventList@CEventLua@@QAE?AV?$vector@EV?$allocator@E@std@@@std@@H@Z:PROC ; CEventLua::GetEventList
EXTRN	?LoadScript@CEventLua@@QAEXXZ:PROC		; CEventLua::LoadScript
EXTRN	??0CAr@@QAE@PAXI@Z:PROC				; CAr::CAr
EXTRN	??1CAr@@QAE@XZ:PROC				; CAr::~CAr
EXTRN	?Read@CAr@@QAEXPAXI@Z:PROC			; CAr::Read
EXTRN	?Write@CAr@@QAEXPBXI@Z:PROC			; CAr::Write
EXTRN	?CheckBuf@CAr@@QAEXI@Z:PROC			; CAr::CheckBuf
EXTRN	?Reserve@CAr@@QAEXI@Z:PROC			; CAr::Reserve
EXTRN	?WriteString@CAr@@QAEXPBD@Z:PROC		; CAr::WriteString
EXTRN	?ReadString@CAr@@QAEPADPADH@Z:PROC		; CAr::ReadString
EXTRN	?GetBuffer@CAr@@QAEPAEPAH@Z:PROC		; CAr::GetBuffer
EXTRN	?Send@CDPSock@@QAEHPADKK@Z:PROC			; CDPSock::Send
EXTRN	??0CDPMng@@QAE@XZ:PROC				; CDPMng::CDPMng
EXTRN	??1CDPMng@@UAE@XZ:PROC				; CDPMng::~CDPMng
EXTRN	?Serialize@CUserTaskBar@@QAEXAAVCAr@@@Z:PROC	; CUserTaskBar::Serialize
EXTRN	??0CMover@@QAE@XZ:PROC				; CMover::CMover
EXTRN	?Copy@CMover@@QAEXPAV1@H@Z:PROC			; CMover::Copy
EXTRN	?PeriodTick@CMover@@QAEXXZ:PROC			; CMover::PeriodTick
EXTRN	?Find@CAccountCacheMgr@@QAEPAUACCOUNT_CACHE@@PBD@Z:PROC ; CAccountCacheMgr::Find
EXTRN	?ChangeMultiServer@CAccountCacheMgr@@QAEXPBDK@Z:PROC ; CAccountCacheMgr::ChangeMultiServer
EXTRN	?InitMultiServer@CAccountCacheMgr@@QAEHK@Z:PROC	; CAccountCacheMgr::InitMultiServer
EXTRN	?AllocRequest@CDbManager@@QAEPAUtagDB_OVERLAPPED_PLUS@@XZ:PROC ; CDbManager::AllocRequest
EXTRN	?MakeRequest@CDbManager@@QAEXPAUtagDB_OVERLAPPED_PLUS@@PAEK@Z:PROC ; CDbManager::MakeRequest
EXTRN	?SerializeGuildCombat@CDbManager@@QAEXAAVCAr@@@Z:PROC ; CDbManager::SerializeGuildCombat
EXTRN	?SerializeResultValue@CDbManager@@QAEXAAVCAr@@@Z:PROC ; CDbManager::SerializeResultValue
EXTRN	?SerializePlayerPoint@CDbManager@@QAEXAAVCAr@@@Z:PROC ; CDbManager::SerializePlayerPoint
EXTRN	?GetInstance@CPlayerDataCenter@@SAPAV1@XZ:PROC	; CPlayerDataCenter::GetInstance
EXTRN	?GetPlayerData@CPlayerDataCenter@@QAEPAU_PlayerData@@K@Z:PROC ; CPlayerDataCenter::GetPlayerData
EXTRN	?Serialize@CPlayerDataCenter@@QAEHAAVCAr@@HH@Z:PROC ; CPlayerDataCenter::Serialize
EXTRN	?SendUpdatePlayerData@CDPCoreSrvr@@QAEXKPAU_PlayerData@@@Z:PROC ; CDPCoreSrvr::SendUpdatePlayerData
EXTRN	?SendBuyingInfo@CDPAccountClient@@QAEXPAU_BUYING_INFO2@@K@Z:PROC ; CDPAccountClient::SendBuyingInfo
EXTRN	?SerializeTick@CLordSkill@@QAEXAAVCAr@@@Z:PROC	; CLordSkill::SerializeTick
EXTRN	?Serialize@CLEComponent@@QAEXAAVCAr@@@Z:PROC	; CLEComponent::Serialize
EXTRN	?SerializeTick@ILordEvent@@QAEXAAVCAr@@@Z:PROC	; ILordEvent::SerializeTick
EXTRN	?Serialize@CLord@@QAEXAAVCAr@@@Z:PROC		; CLord::Serialize
EXTRN	?OutputDebugStringA@election@@YAXPBDZZ:PROC	; election::OutputDebugStringA
EXTRN	?Serialize@CHousing@@QAEXAAVCAr@@@Z:PROC	; CHousing::Serialize
EXTRN	?GetInstance@CQuiz@@SAPAV1@XZ:PROC		; CQuiz::GetInstance
EXTRN	??_ECDPTrans@@UAEPAXI@Z:PROC			; CDPTrans::`vector deleting destructor'
EXTRN	?Serialize@CMail@@QAEXAAVCAr@@H@Z:PROC		; CMail::Serialize
EXTRN	?Write@CMailBox@@QAEXAAVCAr@@@Z:PROC		; CMailBox::Write
EXTRN	?GetMailBox@CPost@@QAEPAVCMailBox@@K@Z:PROC	; CPost::GetMailBox
EXTRN	?Serialize@CPost@@QAEXAAVCAr@@H@Z:PROC		; CPost::Serialize
EXTRN	?GetInstance@CPost@@SAPAV1@XZ:PROC		; CPost::GetInstance
EXTRN	?GetInstance@CEventGeneric@@SAPAV1@XZ:PROC	; CEventGeneric::GetInstance
EXTRN	?Serialize@CEventGeneric@@QAEXAAVCAr@@@Z:PROC	; CEventGeneric::Serialize
EXTRN	?PostRequest@CDbController@@QAEHHPAEHK@Z:PROC	; CDbController::PostRequest
EXTRN	?Instance@CTLord@@SAPAV1@XZ:PROC		; CTLord::Instance
EXTRN	?PostRequest@CTLord@@QAEHHPAEHK@Z:PROC		; CTLord::PostRequest
EXTRN	?Instance@CCoupleHelper@@SAPAV1@XZ:PROC		; CCoupleHelper::Instance
EXTRN	?Serialize@CCoupleHelper@@QAEXAAVCAr@@@Z:PROC	; CCoupleHelper::Serialize
EXTRN	?GetInstance@CSecretRoomDBMng@@SAPAV1@XZ:PROC	; CSecretRoomDBMng::GetInstance
EXTRN	?PostRequest@CSecretRoomDBMng@@QAEHHPAEHK@Z:PROC ; CSecretRoomDBMng::PostRequest
EXTRN	?GetInstance@CTax@@SAPAV1@XZ:PROC		; CTax::GetInstance
EXTRN	?Serialize@CTax@@QAEXAAVCAr@@@Z:PROC		; CTax::Serialize
EXTRN	?SetApplyTaxRateNow@CTax@@QAEXXZ:PROC		; CTax::SetApplyTaxRateNow
EXTRN	?LoadTaxInfo@CTax@@QAEXK@Z:PROC			; CTax::LoadTaxInfo
EXTRN	?GetInstance@CRainbowRaceDBMng@@SAPAV1@XZ:PROC	; CRainbowRaceDBMng::GetInstance
EXTRN	?GetInstance@CHousingDBMng@@SAPAV1@XZ:PROC	; CHousingDBMng::GetInstance
EXTRN	?GetInstance@CFunnyCoinDbMng@@SAPAV1@XZ:PROC	; CFunnyCoinDbMng::GetInstance
EXTRN	?GetInstance@CQuizDBMng@@SAPAV1@XZ:PROC		; CQuizDBMng::GetInstance
EXTRN	?GetInstance@CGuildHouseDBMng@@SAPAV1@XZ:PROC	; CGuildHouseDBMng::GetInstance
EXTRN	?Serialize@CCampusMng@@QAEXAAVCAr@@@Z:PROC	; CCampusMng::Serialize
EXTRN	?GetInstance@CCampusHelper@@SAPAV1@XZ:PROC	; CCampusHelper::GetInstance
EXTRN	@__security_check_cookie@4:PROC
EXTRN	__CxxThrowException@8:PROC
EXTRN	___CxxFrameHandler3:PROC
EXTRN	__chkstk:PROC
EXTRN	_memcpy:PROC
EXTRN	_memmove:PROC
EXTRN	_memset:PROC
EXTRN	__Init_thread_epoch:DWORD
EXTRN	??_7type_info@@6B@:QWORD			; type_info::`vftable'
EXTRN	?prj@@3VCProject@@A:BYTE			; prj
EXTRN	?m_pPool@CMover@@2PAV?$MemPooler@VCMover@@@@A:DWORD ; CMover::m_pPool
EXTRN	?g_DbManager@@3AAVCDbManager@@A:DWORD		; g_DbManager
EXTRN	?g_dpCoreSrvr@@3VCDPCoreSrvr@@A:BYTE		; g_dpCoreSrvr
EXTRN	?g_dpAccountClient@@3VCDPAccountClient@@A:BYTE	; g_dpAccountClient
EXTRN	___security_cookie:DWORD
EXTRN	__fltused:DWORD
EXTRN	__tls_array:DWORD
EXTRN	__tls_index:DWORD
;	COMDAT ?_OptionsStorage@?1??__local_stdio_printf_options@@9@4_KA
_BSS	SEGMENT
?_OptionsStorage@?1??__local_stdio_printf_options@@9@4_KA DQ 01H DUP (?) ; `__local_stdio_printf_options'::`2'::_OptionsStorage
_BSS	ENDS
;	COMDAT ?sDPTrans@?1??GetInstance@CDPTrans@@SAPAV2@XZ@4V2@A
_BSS	SEGMENT
?sDPTrans@?1??GetInstance@CDPTrans@@SAPAV2@XZ@4V2@A DB 01cH DUP (?) ; `CDPTrans::GetInstance'::`2'::sDPTrans
_BSS	ENDS
;	COMDAT ?$TSS0@?1??GetInstance@CDPTrans@@SAPAV2@XZ@4HA
_BSS	SEGMENT
?$TSS0@?1??GetInstance@CDPTrans@@SAPAV2@XZ@4HA DD 01H DUP (?) ; `CDPTrans::GetInstance'::`2'::$TSS0
_BSS	ENDS
;	COMDAT ??_R2CDPMng@@8
rdata$r	SEGMENT
??_R2CDPMng@@8 DD FLAT:??_R1A@?0A@EA@CDPMng@@8		; CDPMng::`RTTI Base Class Array'
rdata$r	ENDS
;	COMDAT ??_R3CDPMng@@8
rdata$r	SEGMENT
??_R3CDPMng@@8 DD 00H					; CDPMng::`RTTI Class Hierarchy Descriptor'
	DD	00H
	DD	01H
	DD	FLAT:??_R2CDPMng@@8
rdata$r	ENDS
;	COMDAT ??_R0?AVCDPMng@@@8
data$rs	SEGMENT
??_R0?AVCDPMng@@@8 DD FLAT:??_7type_info@@6B@		; CDPMng `RTTI Type Descriptor'
	DD	00H
	DB	'.?AVCDPMng@@', 00H
data$rs	ENDS
;	COMDAT ??_R1A@?0A@EA@CDPMng@@8
rdata$r	SEGMENT
??_R1A@?0A@EA@CDPMng@@8 DD FLAT:??_R0?AVCDPMng@@@8	; CDPMng::`RTTI Base Class Descriptor at (0,-1,0,64)'
	DD	00H
	DD	00H
	DD	0ffffffffH
	DD	00H
	DD	040H
	DD	FLAT:??_R3CDPMng@@8
rdata$r	ENDS
;	COMDAT ??_R1A@?0A@EA@CDPTrans@@8
rdata$r	SEGMENT
??_R1A@?0A@EA@CDPTrans@@8 DD FLAT:??_R0?AVCDPTrans@@@8	; CDPTrans::`RTTI Base Class Descriptor at (0,-1,0,64)'
	DD	01H
	DD	00H
	DD	0ffffffffH
	DD	00H
	DD	040H
	DD	FLAT:??_R3CDPTrans@@8
rdata$r	ENDS
;	COMDAT ??_R2CDPTrans@@8
rdata$r	SEGMENT
??_R2CDPTrans@@8 DD FLAT:??_R1A@?0A@EA@CDPTrans@@8	; CDPTrans::`RTTI Base Class Array'
	DD	FLAT:??_R1A@?0A@EA@CDPMng@@8
rdata$r	ENDS
;	COMDAT ??_R3CDPTrans@@8
rdata$r	SEGMENT
??_R3CDPTrans@@8 DD 00H					; CDPTrans::`RTTI Class Hierarchy Descriptor'
	DD	00H
	DD	02H
	DD	FLAT:??_R2CDPTrans@@8
rdata$r	ENDS
;	COMDAT ??_R0?AVCDPTrans@@@8
data$rs	SEGMENT
??_R0?AVCDPTrans@@@8 DD FLAT:??_7type_info@@6B@		; CDPTrans `RTTI Type Descriptor'
	DD	00H
	DB	'.?AVCDPTrans@@', 00H
data$rs	ENDS
;	COMDAT ??_R4CDPTrans@@6B@
rdata$r	SEGMENT
??_R4CDPTrans@@6B@ DD 00H				; CDPTrans::`RTTI Complete Object Locator'
	DD	00H
	DD	00H
	DD	FLAT:??_R0?AVCDPTrans@@@8
	DD	FLAT:??_R3CDPTrans@@8
rdata$r	ENDS
;	COMDAT ??_C@_0CG@CMKNMECG@?6CDPTrans?4OnQueryAddCoupleExper@
CONST	SEGMENT
??_C@_0CG@CMKNMECG@?6CDPTrans?4OnQueryAddCoupleExper@ DB 0aH, 'CDPTrans.O'
	DB	'nQueryAddCoupleExperience', 0aH, 00H	; `string'
CONST	ENDS
;	COMDAT ??_C@_0BK@JGIHCGMO@?6CDPTrans?4OnClearPropose?6@
CONST	SEGMENT
??_C@_0BK@JGIHCGMO@?6CDPTrans?4OnClearPropose?6@ DB 0aH, 'CDPTrans.OnClea'
	DB	'rPropose', 0aH, 00H				; `string'
CONST	ENDS
;	COMDAT ??_C@_0BG@CHMNHPOM@?6CDPTrans?4OnDecouple?6@
CONST	SEGMENT
??_C@_0BG@CHMNHPOM@?6CDPTrans?4OnDecouple?6@ DB 0aH, 'CDPTrans.OnDecouple'
	DB	0aH, 00H					; `string'
CONST	ENDS
;	COMDAT ??_C@_0BE@CENKHPMG@?6CDPTrans?4OnCouple?6@
CONST	SEGMENT
??_C@_0BE@CENKHPMG@?6CDPTrans?4OnCouple?6@ DB 0aH, 'CDPTrans.OnCouple', 0aH
	DB	00H						; `string'
CONST	ENDS
;	COMDAT ??_C@_0BF@EIMIDCDA@?6CDPTrans?4OnPropose?6@
CONST	SEGMENT
??_C@_0BF@EIMIDCDA@?6CDPTrans?4OnPropose?6@ DB 0aH, 'CDPTrans.OnPropose', 0aH
	DB	00H						; `string'
CONST	ENDS
;	COMDAT ??_C@_0BO@BNIOMGBO@CDPTrans?3?3OnElectionEndVote?$CI?$CJ@
CONST	SEGMENT
??_C@_0BO@BNIOMGBO@CDPTrans?3?3OnElectionEndVote?$CI?$CJ@ DB 'CDPTrans::O'
	DB	'nElectionEndVote()', 00H			; `string'
CONST	ENDS
;	COMDAT ??_C@_0CA@IAGKNJKO@CDPTrans?3?3OnElectionBeginVote?$CI?$CJ@
CONST	SEGMENT
??_C@_0CA@IAGKNJKO@CDPTrans?3?3OnElectionBeginVote?$CI?$CJ@ DB 'CDPTrans:'
	DB	':OnElectionBeginVote()', 00H		; `string'
CONST	ENDS
;	COMDAT ??_C@_0CF@LCEMNFNM@CDPTrans?3?3OnElectionBeginCandid@
CONST	SEGMENT
??_C@_0CF@LCEMNFNM@CDPTrans?3?3OnElectionBeginCandid@ DB 'CDPTrans::OnEle'
	DB	'ctionBeginCandidacy()', 00H			; `string'
CONST	ENDS
;	COMDAT ??_C@_0BO@FHAFFMEB@CDPTrans?3?3OnElectionProcess?$CI?$CJ@
CONST	SEGMENT
??_C@_0BO@FHAFFMEB@CDPTrans?3?3OnElectionProcess?$CI?$CJ@ DB 'CDPTrans::O'
	DB	'nElectionProcess()', 00H			; `string'
CONST	ENDS
;	COMDAT ??_C@_0BP@PFFHNAEL@CDPTrans?3?3OnLEventInitialize?$CI?$CJ@
CONST	SEGMENT
??_C@_0BP@PFFHNAEL@CDPTrans?3?3OnLEventInitialize?$CI?$CJ@ DB 'CDPTrans::'
	DB	'OnLEventInitialize()', 00H			; `string'
CONST	ENDS
;	COMDAT ??_C@_0BL@MHNPNLFK@CDPTrans?3?3OnLordSkillUse?$CI?$CJ@
CONST	SEGMENT
??_C@_0BL@MHNPNLFK@CDPTrans?3?3OnLordSkillUse?$CI?$CJ@ DB 'CDPTrans::OnLo'
	DB	'rdSkillUse()', 00H				; `string'
CONST	ENDS
;	COMDAT ??_C@_0BL@HAHGHEMC@CDPTrans?3?3OnLEventCreate?$CI?$CJ@
CONST	SEGMENT
??_C@_0BL@HAHGHEMC@CDPTrans?3?3OnLEventCreate?$CI?$CJ@ DB 'CDPTrans::OnLE'
	DB	'ventCreate()', 00H				; `string'
CONST	ENDS
;	COMDAT ??_C@_0BO@NHHCPIJ@CDPTrans?3?3OnElectionIncVote?$CI?$CJ@
CONST	SEGMENT
??_C@_0BO@NHHCPIJ@CDPTrans?3?3OnElectionIncVote?$CI?$CJ@ DB 'CDPTrans::On'
	DB	'ElectionIncVote()', 00H			; `string'
CONST	ENDS
;	COMDAT ??_C@_0CA@MPPFJBHM@CDPTrans?3?3OnElectionSetPledge?$CI?$CJ@
CONST	SEGMENT
??_C@_0CA@MPPFJBHM@CDPTrans?3?3OnElectionSetPledge?$CI?$CJ@ DB 'CDPTrans:'
	DB	':OnElectionSetPledge()', 00H		; `string'
CONST	ENDS
;	COMDAT ??_C@_0CB@JFCGEHIF@CDPTrans?3?3OnElectionAddDeposit?$CI@
CONST	SEGMENT
??_C@_0CB@JFCGEHIF@CDPTrans?3?3OnElectionAddDeposit?$CI@ DB 'CDPTrans::On'
	DB	'ElectionAddDeposit()', 00H			; `string'
CONST	ENDS
;	COMDAT ??_C@_0DF@KNCJCLGO@DATABASESERVER?4EXE?7?1?1?5PACKETTYP@
CONST	SEGMENT
??_C@_0DF@KNCJCLGO@DATABASESERVER?4EXE?7?1?1?5PACKETTYP@ DB 'DATABASESERV'
	DB	'ER.EXE', 09H, '// PACKETTYPE_QUERYSETPLAYERNAME', 0aH, 00H ; `string'
CONST	ENDS
;	COMDAT ??_C@_0CH@EEFADFEP@DATABASESERVER?4EXE?7?1?1?5recv?5from@
CONST	SEGMENT
??_C@_0CH@EEFADFEP@DATABASESERVER?4EXE?7?1?1?5recv?5from@ DB 'DATABASESER'
	DB	'VER.EXE', 09H, '// recv from world', 0aH, 00H ; `string'
CONST	ENDS
;	COMDAT ??_C@_0GD@PEKJGBON@CDPTrans?3?3OnSavePlayer?5?9?5Cache?5@
CONST	SEGMENT
??_C@_0GD@PEKJGBON@CDPTrans?3?3OnSavePlayer?5?9?5Cache?5@ DB 'CDPTrans::O'
	DB	'nSavePlayer - Cache Hit Failed, AccountCahce = %p, pMover = %'
	DB	'p, Account = %s, slot = %d', 00H		; `string'
CONST	ENDS
;	COMDAT ??_C@_0CN@GNGHFAJA@DATABASESERVER?4EXE?7?1?1?5PACKETTYP@
CONST	SEGMENT
??_C@_0CN@GNGHFAJA@DATABASESERVER?4EXE?7?1?1?5PACKETTYP@ DB 'DATABASESERV'
	DB	'ER.EXE', 09H, '// PACKETTYPE_JOIN', 09H, '// %d', 0aH, 00H ; `string'
CONST	ENDS
;	COMDAT ?nSize@?1??UserMessageHandler@CDPTrans@@UAEXPAUDPMSG_GENERIC@@KK@Z@4IA
_DATA	SEGMENT
?nSize@?1??UserMessageHandler@CDPTrans@@UAEXPAUDPMSG_GENERIC@@KK@Z@4IA DD 04H ; `CDPTrans::UserMessageHandler'::`2'::nSize
_DATA	ENDS
;	COMDAT ??_7CDPTrans@@6B@
CONST	SEGMENT
??_7CDPTrans@@6B@ DD FLAT:??_R4CDPTrans@@6B@		; CDPTrans::`vftable'
	DD	FLAT:??_ECDPTrans@@UAEPAXI@Z
	DD	FLAT:?SysMessageHandler@CDPTrans@@UAEXPAUDPMSG_GENERIC@@KK@Z
	DD	FLAT:?UserMessageHandler@CDPTrans@@UAEXPAUDPMSG_GENERIC@@KK@Z
CONST	ENDS
;	COMDAT ??_C@_01DNKMNLPK@?$HM@
CONST	SEGMENT
??_C@_01DNKMNLPK@?$HM@ DB '|', 00H			; `string'
CONST	ENDS
;	COMDAT ??_C@_02PCIJFNDE@?$AN?6@
CONST	SEGMENT
??_C@_02PCIJFNDE@?$AN?6@ DB 0dH, 0aH, 00H		; `string'
CONST	ENDS
;	COMDAT ??_R4bad_alloc@std@@6B@
rdata$r	SEGMENT
??_R4bad_alloc@std@@6B@ DD 00H				; std::bad_alloc::`RTTI Complete Object Locator'
	DD	00H
	DD	00H
	DD	FLAT:??_R0?AVbad_alloc@std@@@8
	DD	FLAT:??_R3bad_alloc@std@@8
rdata$r	ENDS
;	COMDAT ??_R2bad_alloc@std@@8
rdata$r	SEGMENT
??_R2bad_alloc@std@@8 DD FLAT:??_R1A@?0A@EA@bad_alloc@std@@8 ; std::bad_alloc::`RTTI Base Class Array'
	DD	FLAT:??_R1A@?0A@EA@exception@std@@8
rdata$r	ENDS
;	COMDAT ??_R3bad_alloc@std@@8
rdata$r	SEGMENT
??_R3bad_alloc@std@@8 DD 00H				; std::bad_alloc::`RTTI Class Hierarchy Descriptor'
	DD	00H
	DD	02H
	DD	FLAT:??_R2bad_alloc@std@@8
rdata$r	ENDS
;	COMDAT ??_R1A@?0A@EA@bad_alloc@std@@8
rdata$r	SEGMENT
??_R1A@?0A@EA@bad_alloc@std@@8 DD FLAT:??_R0?AVbad_alloc@std@@@8 ; std::bad_alloc::`RTTI Base Class Descriptor at (0,-1,0,64)'
	DD	01H
	DD	00H
	DD	0ffffffffH
	DD	00H
	DD	040H
	DD	FLAT:??_R3bad_alloc@std@@8
rdata$r	ENDS
;	COMDAT ??_R1A@?0A@EA@bad_array_new_length@std@@8
rdata$r	SEGMENT
??_R1A@?0A@EA@bad_array_new_length@std@@8 DD FLAT:??_R0?AVbad_array_new_length@std@@@8 ; std::bad_array_new_length::`RTTI Base Class Descriptor at (0,-1,0,64)'
	DD	02H
	DD	00H
	DD	0ffffffffH
	DD	00H
	DD	040H
	DD	FLAT:??_R3bad_array_new_length@std@@8
rdata$r	ENDS
;	COMDAT ??_R2bad_array_new_length@std@@8
rdata$r	SEGMENT
??_R2bad_array_new_length@std@@8 DD FLAT:??_R1A@?0A@EA@bad_array_new_length@std@@8 ; std::bad_array_new_length::`RTTI Base Class Array'
	DD	FLAT:??_R1A@?0A@EA@bad_alloc@std@@8
	DD	FLAT:??_R1A@?0A@EA@exception@std@@8
rdata$r	ENDS
;	COMDAT ??_R3bad_array_new_length@std@@8
rdata$r	SEGMENT
??_R3bad_array_new_length@std@@8 DD 00H			; std::bad_array_new_length::`RTTI Class Hierarchy Descriptor'
	DD	00H
	DD	03H
	DD	FLAT:??_R2bad_array_new_length@std@@8
rdata$r	ENDS
;	COMDAT ??_R4bad_array_new_length@std@@6B@
rdata$r	SEGMENT
??_R4bad_array_new_length@std@@6B@ DD 00H		; std::bad_array_new_length::`RTTI Complete Object Locator'
	DD	00H
	DD	00H
	DD	FLAT:??_R0?AVbad_array_new_length@std@@@8
	DD	FLAT:??_R3bad_array_new_length@std@@8
rdata$r	ENDS
;	COMDAT ??_R1A@?0A@EA@exception@std@@8
rdata$r	SEGMENT
??_R1A@?0A@EA@exception@std@@8 DD FLAT:??_R0?AVexception@std@@@8 ; std::exception::`RTTI Base Class Descriptor at (0,-1,0,64)'
	DD	00H
	DD	00H
	DD	0ffffffffH
	DD	00H
	DD	040H
	DD	FLAT:??_R3exception@std@@8
rdata$r	ENDS
;	COMDAT ??_R2exception@std@@8
rdata$r	SEGMENT
??_R2exception@std@@8 DD FLAT:??_R1A@?0A@EA@exception@std@@8 ; std::exception::`RTTI Base Class Array'
rdata$r	ENDS
;	COMDAT ??_R3exception@std@@8
rdata$r	SEGMENT
??_R3exception@std@@8 DD 00H				; std::exception::`RTTI Class Hierarchy Descriptor'
	DD	00H
	DD	01H
	DD	FLAT:??_R2exception@std@@8
rdata$r	ENDS
;	COMDAT ??_R4exception@std@@6B@
rdata$r	SEGMENT
??_R4exception@std@@6B@ DD 00H				; std::exception::`RTTI Complete Object Locator'
	DD	00H
	DD	00H
	DD	FLAT:??_R0?AVexception@std@@@8
	DD	FLAT:??_R3exception@std@@8
rdata$r	ENDS
;	COMDAT ??_C@_0O@NKNMEGII@list?5too?5long@
CONST	SEGMENT
??_C@_0O@NKNMEGII@list?5too?5long@ DB 'list too long', 00H ; `string'
CONST	ENDS
;	COMDAT ??_C@_09PKKCPLIP@bad?5alloc@
CONST	SEGMENT
??_C@_09PKKCPLIP@bad?5alloc@ DB 'bad alloc', 00H	; `string'
CONST	ENDS
;	COMDAT ??_C@_0BB@GCADKGJO@map?1set?5too?5long@
CONST	SEGMENT
??_C@_0BB@GCADKGJO@map?1set?5too?5long@ DB 'map/set too long', 00H ; `string'
CONST	ENDS
;	COMDAT ??_C@_0BA@JFNIOLAK@string?5too?5long@
CONST	SEGMENT
??_C@_0BA@JFNIOLAK@string?5too?5long@ DB 'string too long', 00H ; `string'
CONST	ENDS
;	COMDAT __CT??_R0?AVbad_alloc@std@@@8??0bad_alloc@std@@QAE@ABV01@@Z12
xdata$x	SEGMENT
__CT??_R0?AVbad_alloc@std@@@8??0bad_alloc@std@@QAE@ABV01@@Z12 DD 010H
	DD	FLAT:??_R0?AVbad_alloc@std@@@8
	DD	00H
	DD	0ffffffffH
	ORG $+4
	DD	0cH
	DD	FLAT:??0bad_alloc@std@@QAE@ABV01@@Z
xdata$x	ENDS
;	COMDAT ??_R0?AVbad_alloc@std@@@8
data$r	SEGMENT
??_R0?AVbad_alloc@std@@@8 DD FLAT:??_7type_info@@6B@	; std::bad_alloc `RTTI Type Descriptor'
	DD	00H
	DB	'.?AVbad_alloc@std@@', 00H
data$r	ENDS
;	COMDAT __CT??_R0?AVbad_array_new_length@std@@@8??0bad_array_new_length@std@@QAE@ABV01@@Z12
xdata$x	SEGMENT
__CT??_R0?AVbad_array_new_length@std@@@8??0bad_array_new_length@std@@QAE@ABV01@@Z12 DD 00H
	DD	FLAT:??_R0?AVbad_array_new_length@std@@@8
	DD	00H
	DD	0ffffffffH
	ORG $+4
	DD	0cH
	DD	FLAT:??0bad_array_new_length@std@@QAE@ABV01@@Z
xdata$x	ENDS
;	COMDAT ??_R0?AVbad_array_new_length@std@@@8
data$r	SEGMENT
??_R0?AVbad_array_new_length@std@@@8 DD FLAT:??_7type_info@@6B@ ; std::bad_array_new_length `RTTI Type Descriptor'
	DD	00H
	DB	'.?AVbad_array_new_length@std@@', 00H
data$r	ENDS
;	COMDAT __CTA3?AVbad_array_new_length@std@@
xdata$x	SEGMENT
__CTA3?AVbad_array_new_length@std@@ DD 03H
	DD	FLAT:__CT??_R0?AVbad_array_new_length@std@@@8??0bad_array_new_length@std@@QAE@ABV01@@Z12
	DD	FLAT:__CT??_R0?AVbad_alloc@std@@@8??0bad_alloc@std@@QAE@ABV01@@Z12
	DD	FLAT:__CT??_R0?AVexception@std@@@8??0exception@std@@QAE@ABV01@@Z12
xdata$x	ENDS
;	COMDAT __TI3?AVbad_array_new_length@std@@
xdata$x	SEGMENT
__TI3?AVbad_array_new_length@std@@ DD 00H
	DD	FLAT:??1bad_array_new_length@std@@UAE@XZ
	DD	00H
	DD	FLAT:__CTA3?AVbad_array_new_length@std@@
xdata$x	ENDS
;	COMDAT __CT??_R0?AVexception@std@@@8??0exception@std@@QAE@ABV01@@Z12
xdata$x	SEGMENT
__CT??_R0?AVexception@std@@@8??0exception@std@@QAE@ABV01@@Z12 DD 00H
	DD	FLAT:??_R0?AVexception@std@@@8
	DD	00H
	DD	0ffffffffH
	ORG $+4
	DD	0cH
	DD	FLAT:??0exception@std@@QAE@ABV01@@Z
xdata$x	ENDS
;	COMDAT ??_R0?AVexception@std@@@8
data$r	SEGMENT
??_R0?AVexception@std@@@8 DD FLAT:??_7type_info@@6B@	; std::exception `RTTI Type Descriptor'
	DD	00H
	DB	'.?AVexception@std@@', 00H
data$r	ENDS
;	COMDAT ??_C@_0BF@KINCDENJ@bad?5array?5new?5length@
CONST	SEGMENT
??_C@_0BF@KINCDENJ@bad?5array?5new?5length@ DB 'bad array new length', 00H ; `string'
CONST	ENDS
;	COMDAT ??_7bad_array_new_length@std@@6B@
CONST	SEGMENT
??_7bad_array_new_length@std@@6B@ DD FLAT:??_R4bad_array_new_length@std@@6B@ ; std::bad_array_new_length::`vftable'
	DD	FLAT:??_Ebad_array_new_length@std@@UAEPAXI@Z
	DD	FLAT:?what@exception@std@@UBEPBDXZ
CONST	ENDS
;	COMDAT ??_7bad_alloc@std@@6B@
CONST	SEGMENT
??_7bad_alloc@std@@6B@ DD FLAT:??_R4bad_alloc@std@@6B@	; std::bad_alloc::`vftable'
	DD	FLAT:??_Ebad_alloc@std@@UAEPAXI@Z
	DD	FLAT:?what@exception@std@@UBEPBDXZ
CONST	ENDS
;	COMDAT ??_C@_0BC@EOODALEL@Unknown?5exception@
CONST	SEGMENT
??_C@_0BC@EOODALEL@Unknown?5exception@ DB 'Unknown exception', 00H ; `string'
CONST	ENDS
;	COMDAT ??_7exception@std@@6B@
CONST	SEGMENT
??_7exception@std@@6B@ DD FLAT:??_R4exception@std@@6B@	; std::exception::`vftable'
	DD	FLAT:??_Eexception@std@@UAEPAXI@Z
	DD	FLAT:?what@exception@std@@UBEPBDXZ
CONST	ENDS
;	COMDAT xdata$x
xdata$x	SEGMENT
__unwindtable$??$_Buynode@V?$allocator@U?$_Tree_node@U?$pair@$$CBEH@std@@PAX@std@@@std@@AAU?$pair@$$CBEH@2@@?$_Tree_node@U?$pair@$$CBEH@std@@PAX@std@@SAPAU01@AAV?$allocator@U?$_Tree_node@U?$pair@$$CBEH@std@@PAX@std@@@1@PAU01@AAU?$pair@$$CBEH@1@@Z DD 0ffffffffH
	DD	FLAT:__unwindfunclet$??$_Buynode@V?$allocator@U?$_Tree_node@U?$pair@$$CBEH@std@@PAX@std@@@std@@AAU?$pair@$$CBEH@2@@?$_Tree_node@U?$pair@$$CBEH@std@@PAX@std@@SAPAU01@AAV?$allocator@U?$_Tree_node@U?$pair@$$CBEH@std@@PAX@std@@@1@PAU01@AAU?$pair@$$CBEH@1@@Z$0
__ehfuncinfo$??$_Buynode@V?$allocator@U?$_Tree_node@U?$pair@$$CBEH@std@@PAX@std@@@std@@AAU?$pair@$$CBEH@2@@?$_Tree_node@U?$pair@$$CBEH@std@@PAX@std@@SAPAU01@AAV?$allocator@U?$_Tree_node@U?$pair@$$CBEH@std@@PAX@std@@@1@PAU01@AAU?$pair@$$CBEH@1@@Z DD 019930522H
	DD	01H
	DD	FLAT:__unwindtable$??$_Buynode@V?$allocator@U?$_Tree_node@U?$pair@$$CBEH@std@@PAX@std@@@std@@AAU?$pair@$$CBEH@2@@?$_Tree_node@U?$pair@$$CBEH@std@@PAX@std@@SAPAU01@AAV?$allocator@U?$_Tree_node@U?$pair@$$CBEH@std@@PAX@std@@@1@PAU01@AAU?$pair@$$CBEH@1@@Z
	DD	2 DUP(00H)
	DD	2 DUP(00H)
	DD	00H
	DD	01H
xdata$x	ENDS
;	COMDAT xdata$x
xdata$x	SEGMENT
__unwindtable$??$_Buynode@AAU?$pair@$$CBEH@std@@@?$_Tree@V?$_Tmap_traits@EHU?$less@E@std@@V?$allocator@U?$pair@$$CBEH@std@@@2@$0A@@std@@@std@@IAEPAU?$_Tree_node@U?$pair@$$CBEH@std@@PAX@1@AAU?$pair@$$CBEH@1@@Z DD 0ffffffffH
	DD	FLAT:__unwindfunclet$??$_Buynode@AAU?$pair@$$CBEH@std@@@?$_Tree@V?$_Tmap_traits@EHU?$less@E@std@@V?$allocator@U?$pair@$$CBEH@std@@@2@$0A@@std@@@std@@IAEPAU?$_Tree_node@U?$pair@$$CBEH@std@@PAX@1@AAU?$pair@$$CBEH@1@@Z$0
__ehfuncinfo$??$_Buynode@AAU?$pair@$$CBEH@std@@@?$_Tree@V?$_Tmap_traits@EHU?$less@E@std@@V?$allocator@U?$pair@$$CBEH@std@@@2@$0A@@std@@@std@@IAEPAU?$_Tree_node@U?$pair@$$CBEH@std@@PAX@1@AAU?$pair@$$CBEH@1@@Z DD 019930522H
	DD	01H
	DD	FLAT:__unwindtable$??$_Buynode@AAU?$pair@$$CBEH@std@@@?$_Tree@V?$_Tmap_traits@EHU?$less@E@std@@V?$allocator@U?$pair@$$CBEH@std@@@2@$0A@@std@@@std@@IAEPAU?$_Tree_node@U?$pair@$$CBEH@std@@PAX@1@AAU?$pair@$$CBEH@1@@Z
	DD	2 DUP(00H)
	DD	2 DUP(00H)
	DD	00H
	DD	01H
xdata$x	ENDS
;	COMDAT xdata$x
xdata$x	SEGMENT
__unwindtable$??$_Copy_or_move@$0A@U?$pair@$$CBEH@std@@@?$_Tree@V?$_Tmap_traits@EHU?$less@E@std@@V?$allocator@U?$pair@$$CBEH@std@@@2@$0A@@std@@@std@@IAEPAU?$_Tree_node@U?$pair@$$CBEH@std@@PAX@1@AAU?$pair@$$CBEH@1@@Z DD 0ffffffffH
	DD	FLAT:__unwindfunclet$??$_Copy_or_move@$0A@U?$pair@$$CBEH@std@@@?$_Tree@V?$_Tmap_traits@EHU?$less@E@std@@V?$allocator@U?$pair@$$CBEH@std@@@2@$0A@@std@@@std@@IAEPAU?$_Tree_node@U?$pair@$$CBEH@std@@PAX@1@AAU?$pair@$$CBEH@1@@Z$0
__ehfuncinfo$??$_Copy_or_move@$0A@U?$pair@$$CBEH@std@@@?$_Tree@V?$_Tmap_traits@EHU?$less@E@std@@V?$allocator@U?$pair@$$CBEH@std@@@2@$0A@@std@@@std@@IAEPAU?$_Tree_node@U?$pair@$$CBEH@std@@PAX@1@AAU?$pair@$$CBEH@1@@Z DD 019930522H
	DD	01H
	DD	FLAT:__unwindtable$??$_Copy_or_move@$0A@U?$pair@$$CBEH@std@@@?$_Tree@V?$_Tmap_traits@EHU?$less@E@std@@V?$allocator@U?$pair@$$CBEH@std@@@2@$0A@@std@@@std@@IAEPAU?$_Tree_node@U?$pair@$$CBEH@std@@PAX@1@AAU?$pair@$$CBEH@1@@Z
	DD	2 DUP(00H)
	DD	2 DUP(00H)
	DD	00H
	DD	01H
xdata$x	ENDS
;	COMDAT xdata$x
xdata$x	SEGMENT
__unwindtable$??$_Copy_nodes@$0A@@?$_Tree@V?$_Tmap_traits@EHU?$less@E@std@@V?$allocator@U?$pair@$$CBEH@std@@@2@$0A@@std@@@std@@IAEPAU?$_Tree_node@U?$pair@$$CBEH@std@@PAX@1@PAU21@0@Z DD 0ffffffffH
	DD	FLAT:__unwindfunclet$??$_Copy_nodes@$0A@@?$_Tree@V?$_Tmap_traits@EHU?$less@E@std@@V?$allocator@U?$pair@$$CBEH@std@@@2@$0A@@std@@@std@@IAEPAU?$_Tree_node@U?$pair@$$CBEH@std@@PAX@1@PAU21@0@Z$1
	DD	0ffffffffH
	DD	FLAT:__unwindfunclet$??$_Copy_nodes@$0A@@?$_Tree@V?$_Tmap_traits@EHU?$less@E@std@@V?$allocator@U?$pair@$$CBEH@std@@@2@$0A@@std@@@std@@IAEPAU?$_Tree_node@U?$pair@$$CBEH@std@@PAX@1@PAU21@0@Z$0
__ehfuncinfo$??$_Copy_nodes@$0A@@?$_Tree@V?$_Tmap_traits@EHU?$less@E@std@@V?$allocator@U?$pair@$$CBEH@std@@@2@$0A@@std@@@std@@IAEPAU?$_Tree_node@U?$pair@$$CBEH@std@@PAX@1@PAU21@0@Z DD 019930522H
	DD	02H
	DD	FLAT:__unwindtable$??$_Copy_nodes@$0A@@?$_Tree@V?$_Tmap_traits@EHU?$less@E@std@@V?$allocator@U?$pair@$$CBEH@std@@@2@$0A@@std@@@std@@IAEPAU?$_Tree_node@U?$pair@$$CBEH@std@@PAX@1@PAU21@0@Z
	DD	2 DUP(00H)
	DD	2 DUP(00H)
	DD	00H
	DD	01H
xdata$x	ENDS
;	COMDAT xdata$x
xdata$x	SEGMENT
__unwindtable$??$?0U?$pair@EH@std@@@?$_Tree_temp_node@V?$allocator@U?$_Tree_node@U?$pair@$$CBEH@std@@PAX@std@@@std@@@std@@QAE@AAV?$allocator@U?$_Tree_node@U?$pair@$$CBEH@std@@PAX@std@@@1@PAU?$_Tree_node@U?$pair@$$CBEH@std@@PAX@1@$$QAU?$pair@EH@1@@Z DD 0ffffffffH
	DD	FLAT:__unwindfunclet$??$?0U?$pair@EH@std@@@?$_Tree_temp_node@V?$allocator@U?$_Tree_node@U?$pair@$$CBEH@std@@PAX@std@@@std@@@std@@QAE@AAV?$allocator@U?$_Tree_node@U?$pair@$$CBEH@std@@PAX@std@@@1@PAU?$_Tree_node@U?$pair@$$CBEH@std@@PAX@1@$$QAU?$pair@EH@1@@Z$1
__ehfuncinfo$??$?0U?$pair@EH@std@@@?$_Tree_temp_node@V?$allocator@U?$_Tree_node@U?$pair@$$CBEH@std@@PAX@std@@@std@@@std@@QAE@AAV?$allocator@U?$_Tree_node@U?$pair@$$CBEH@std@@PAX@std@@@1@PAU?$_Tree_node@U?$pair@$$CBEH@std@@PAX@1@$$QAU?$pair@EH@1@@Z DD 019930522H
	DD	01H
	DD	FLAT:__unwindtable$??$?0U?$pair@EH@std@@@?$_Tree_temp_node@V?$allocator@U?$_Tree_node@U?$pair@$$CBEH@std@@PAX@std@@@std@@@std@@QAE@AAV?$allocator@U?$_Tree_node@U?$pair@$$CBEH@std@@PAX@std@@@1@PAU?$_Tree_node@U?$pair@$$CBEH@std@@PAX@1@$$QAU?$pair@EH@1@@Z
	DD	2 DUP(00H)
	DD	2 DUP(00H)
	DD	00H
	DD	01H
xdata$x	ENDS
;	COMDAT xdata$x
xdata$x	SEGMENT
__unwindtable$??0?$_Tree_temp_node_alloc@V?$allocator@U?$_Tree_node@U?$pair@$$CBEH@std@@PAX@std@@@std@@@std@@QAE@AAV?$allocator@U?$_Tree_node@U?$pair@$$CBEH@std@@PAX@std@@@1@@Z DD 0ffffffffH
	DD	FLAT:__unwindfunclet$??0?$_Tree_temp_node_alloc@V?$allocator@U?$_Tree_node@U?$pair@$$CBEH@std@@PAX@std@@@std@@@std@@QAE@AAV?$allocator@U?$_Tree_node@U?$pair@$$CBEH@std@@PAX@std@@@1@@Z$0
__ehfuncinfo$??0?$_Tree_temp_node_alloc@V?$allocator@U?$_Tree_node@U?$pair@$$CBEH@std@@PAX@std@@@std@@@std@@QAE@AAV?$allocator@U?$_Tree_node@U?$pair@$$CBEH@std@@PAX@std@@@1@@Z DD 019930522H
	DD	01H
	DD	FLAT:__unwindtable$??0?$_Tree_temp_node_alloc@V?$allocator@U?$_Tree_node@U?$pair@$$CBEH@std@@PAX@std@@@std@@@std@@QAE@AAV?$allocator@U?$_Tree_node@U?$pair@$$CBEH@std@@PAX@std@@@1@@Z
	DD	2 DUP(00H)
	DD	2 DUP(00H)
	DD	00H
	DD	01H
xdata$x	ENDS
;	COMDAT xdata$x
xdata$x	SEGMENT
__unwindtable$??$?0U?$pair@$$CBHV?$basic_string@DU?$char_traits@D@std@@V?$allocator@D@2@@std@@@std@@@?$_Tree_temp_node@V?$allocator@U?$_Tree_node@U?$pair@$$CBHV?$basic_string@DU?$char_traits@D@std@@V?$allocator@D@2@@std@@@std@@PAX@std@@@std@@@std@@QAE@AAV?$allocator@U?$_Tree_node@U?$pair@$$CBHV?$basic_string@DU?$char_traits@D@std@@V?$allocator@D@2@@std@@@std@@PAX@std@@@1@PAU?$_Tree_node@U?$pair@$$CBHV?$basic_string@DU?$char_traits@D@std@@V?$allocator@D@2@@std@@@std@@PAX@1@$$QAU?$pair@$$CBHV?$basic_string@DU?$char_traits@D@std@@V?$allocator@D@2@@std@@@1@@Z DD 0ffffffffH
	DD	FLAT:__unwindfunclet$??$?0U?$pair@$$CBHV?$basic_string@DU?$char_traits@D@std@@V?$allocator@D@2@@std@@@std@@@?$_Tree_temp_node@V?$allocator@U?$_Tree_node@U?$pair@$$CBHV?$basic_string@DU?$char_traits@D@std@@V?$allocator@D@2@@std@@@std@@PAX@std@@@std@@@std@@QAE@AAV?$allocator@U?$_Tree_node@U?$pair@$$CBHV?$basic_string@DU?$char_traits@D@std@@V?$allocator@D@2@@std@@@std@@PAX@std@@@1@PAU?$_Tree_node@U?$pair@$$CBHV?$basic_string@DU?$char_traits@D@std@@V?$allocator@D@2@@std@@@std@@PAX@1@$$QAU?$pair@$$CBHV?$basic_string@DU?$char_traits@D@std@@V?$allocator@D@2@@std@@@1@@Z$1
__ehfuncinfo$??$?0U?$pair@$$CBHV?$basic_string@DU?$char_traits@D@std@@V?$allocator@D@2@@std@@@std@@@?$_Tree_temp_node@V?$allocator@U?$_Tree_node@U?$pair@$$CBHV?$basic_string@DU?$char_traits@D@std@@V?$allocator@D@2@@std@@@std@@PAX@std@@@std@@@std@@QAE@AAV?$allocator@U?$_Tree_node@U?$pair@$$CBHV?$basic_string@DU?$char_traits@D@std@@V?$allocator@D@2@@std@@@std@@PAX@std@@@1@PAU?$_Tree_node@U?$pair@$$CBHV?$basic_string@DU?$char_traits@D@std@@V?$allocator@D@2@@std@@@std@@PAX@1@$$QAU?$pair@$$CBHV?$basic_string@DU?$char_traits@D@std@@V?$allocator@D@2@@std@@@1@@Z DD 019930522H
	DD	01H
	DD	FLAT:__unwindtable$??$?0U?$pair@$$CBHV?$basic_string@DU?$char_traits@D@std@@V?$allocator@D@2@@std@@@std@@@?$_Tree_temp_node@V?$allocator@U?$_Tree_node@U?$pair@$$CBHV?$basic_string@DU?$char_traits@D@std@@V?$allocator@D@2@@std@@@std@@PAX@std@@@std@@@std@@QAE@AAV?$allocator@U?$_Tree_node@U?$pair@$$CBHV?$basic_string@DU?$char_traits@D@std@@V?$allocator@D@2@@std@@@std@@PAX@std@@@1@PAU?$_Tree_node@U?$pair@$$CBHV?$basic_string@DU?$char_traits@D@std@@V?$allocator@D@2@@std@@@std@@PAX@1@$$QAU?$pair@$$CBHV?$basic_string@DU?$char_traits@D@std@@V?$allocator@D@2@@std@@@1@@Z
	DD	2 DUP(00H)
	DD	2 DUP(00H)
	DD	00H
	DD	01H
xdata$x	ENDS
;	COMDAT xdata$x
xdata$x	SEGMENT
__unwindtable$??0?$_Tree_temp_node_alloc@V?$allocator@U?$_Tree_node@U?$pair@$$CBHV?$basic_string@DU?$char_traits@D@std@@V?$allocator@D@2@@std@@@std@@PAX@std@@@std@@@std@@QAE@AAV?$allocator@U?$_Tree_node@U?$pair@$$CBHV?$basic_string@DU?$char_traits@D@std@@V?$allocator@D@2@@std@@@std@@PAX@std@@@1@@Z DD 0ffffffffH
	DD	FLAT:__unwindfunclet$??0?$_Tree_temp_node_alloc@V?$allocator@U?$_Tree_node@U?$pair@$$CBHV?$basic_string@DU?$char_traits@D@std@@V?$allocator@D@2@@std@@@std@@PAX@std@@@std@@@std@@QAE@AAV?$allocator@U?$_Tree_node@U?$pair@$$CBHV?$basic_string@DU?$char_traits@D@std@@V?$allocator@D@2@@std@@@std@@PAX@std@@@1@@Z$0
__ehfuncinfo$??0?$_Tree_temp_node_alloc@V?$allocator@U?$_Tree_node@U?$pair@$$CBHV?$basic_string@DU?$char_traits@D@std@@V?$allocator@D@2@@std@@@std@@PAX@std@@@std@@@std@@QAE@AAV?$allocator@U?$_Tree_node@U?$pair@$$CBHV?$basic_string@DU?$char_traits@D@std@@V?$allocator@D@2@@std@@@std@@PAX@std@@@1@@Z DD 019930522H
	DD	01H
	DD	FLAT:__unwindtable$??0?$_Tree_temp_node_alloc@V?$allocator@U?$_Tree_node@U?$pair@$$CBHV?$basic_string@DU?$char_traits@D@std@@V?$allocator@D@2@@std@@@std@@PAX@std@@@std@@@std@@QAE@AAV?$allocator@U?$_Tree_node@U?$pair@$$CBHV?$basic_string@DU?$char_traits@D@std@@V?$allocator@D@2@@std@@@std@@PAX@std@@@1@@Z
	DD	2 DUP(00H)
	DD	2 DUP(00H)
	DD	00H
	DD	01H
xdata$x	ENDS
;	COMDAT xdata$x
xdata$x	SEGMENT
__unwindtable$??$_Emplace@U?$pair@EH@std@@@?$_Tree@V?$_Tmap_traits@EHU?$less@E@std@@V?$allocator@U?$pair@$$CBEH@std@@@2@$0A@@std@@@std@@IAE?AU?$pair@PAU?$_Tree_node@U?$pair@$$CBEH@std@@PAX@std@@_N@1@$$QAU?$pair@EH@1@@Z DD 0ffffffffH
	DD	FLAT:__unwindfunclet$??$_Emplace@U?$pair@EH@std@@@?$_Tree@V?$_Tmap_traits@EHU?$less@E@std@@V?$allocator@U?$pair@$$CBEH@std@@@2@$0A@@std@@@std@@IAE?AU?$pair@PAU?$_Tree_node@U?$pair@$$CBEH@std@@PAX@std@@_N@1@$$QAU?$pair@EH@1@@Z$2
__ehfuncinfo$??$_Emplace@U?$pair@EH@std@@@?$_Tree@V?$_Tmap_traits@EHU?$less@E@std@@V?$allocator@U?$pair@$$CBEH@std@@@2@$0A@@std@@@std@@IAE?AU?$pair@PAU?$_Tree_node@U?$pair@$$CBEH@std@@PAX@std@@_N@1@$$QAU?$pair@EH@1@@Z DD 019930522H
	DD	01H
	DD	FLAT:__unwindtable$??$_Emplace@U?$pair@EH@std@@@?$_Tree@V?$_Tmap_traits@EHU?$less@E@std@@V?$allocator@U?$pair@$$CBEH@std@@@2@$0A@@std@@@std@@IAE?AU?$pair@PAU?$_Tree_node@U?$pair@$$CBEH@std@@PAX@std@@_N@1@$$QAU?$pair@EH@1@@Z
	DD	2 DUP(00H)
	DD	2 DUP(00H)
	DD	00H
	DD	01H
xdata$x	ENDS
;	COMDAT xdata$x
xdata$x	SEGMENT
__unwindtable$??$?0U?$pair@$$CBKP8CDPTrans@@AEXAAVCAr@@KKKPAEK@Z@std@@@?$_Tree_temp_node@V?$allocator@U?$_Tree_node@U?$pair@$$CBKP8CDPTrans@@AEXAAVCAr@@KKKPAEK@Z@std@@PAX@std@@@std@@@std@@QAE@AAV?$allocator@U?$_Tree_node@U?$pair@$$CBKP8CDPTrans@@AEXAAVCAr@@KKKPAEK@Z@std@@PAX@std@@@1@PAU?$_Tree_node@U?$pair@$$CBKP8CDPTrans@@AEXAAVCAr@@KKKPAEK@Z@std@@PAX@1@$$QAU?$pair@$$CBKP8CDPTrans@@AEXAAVCAr@@KKKPAEK@Z@1@@Z DD 0ffffffffH
	DD	FLAT:__unwindfunclet$??$?0U?$pair@$$CBKP8CDPTrans@@AEXAAVCAr@@KKKPAEK@Z@std@@@?$_Tree_temp_node@V?$allocator@U?$_Tree_node@U?$pair@$$CBKP8CDPTrans@@AEXAAVCAr@@KKKPAEK@Z@std@@PAX@std@@@std@@@std@@QAE@AAV?$allocator@U?$_Tree_node@U?$pair@$$CBKP8CDPTrans@@AEXAAVCAr@@KKKPAEK@Z@std@@PAX@std@@@1@PAU?$_Tree_node@U?$pair@$$CBKP8CDPTrans@@AEXAAVCAr@@KKKPAEK@Z@std@@PAX@1@$$QAU?$pair@$$CBKP8CDPTrans@@AEXAAVCAr@@KKKPAEK@Z@1@@Z$1
__ehfuncinfo$??$?0U?$pair@$$CBKP8CDPTrans@@AEXAAVCAr@@KKKPAEK@Z@std@@@?$_Tree_temp_node@V?$allocator@U?$_Tree_node@U?$pair@$$CBKP8CDPTrans@@AEXAAVCAr@@KKKPAEK@Z@std@@PAX@std@@@std@@@std@@QAE@AAV?$allocator@U?$_Tree_node@U?$pair@$$CBKP8CDPTrans@@AEXAAVCAr@@KKKPAEK@Z@std@@PAX@std@@@1@PAU?$_Tree_node@U?$pair@$$CBKP8CDPTrans@@AEXAAVCAr@@KKKPAEK@Z@std@@PAX@1@$$QAU?$pair@$$CBKP8CDPTrans@@AEXAAVCAr@@KKKPAEK@Z@1@@Z DD 019930522H
	DD	01H
	DD	FLAT:__unwindtable$??$?0U?$pair@$$CBKP8CDPTrans@@AEXAAVCAr@@KKKPAEK@Z@std@@@?$_Tree_temp_node@V?$allocator@U?$_Tree_node@U?$pair@$$CBKP8CDPTrans@@AEXAAVCAr@@KKKPAEK@Z@std@@PAX@std@@@std@@@std@@QAE@AAV?$allocator@U?$_Tree_node@U?$pair@$$CBKP8CDPTrans@@AEXAAVCAr@@KKKPAEK@Z@std@@PAX@std@@@1@PAU?$_Tree_node@U?$pair@$$CBKP8CDPTrans@@AEXAAVCAr@@KKKPAEK@Z@std@@PAX@1@$$QAU?$pair@$$CBKP8CDPTrans@@AEXAAVCAr@@KKKPAEK@Z@1@@Z
	DD	2 DUP(00H)
	DD	2 DUP(00H)
	DD	00H
	DD	01H
xdata$x	ENDS
;	COMDAT xdata$x
xdata$x	SEGMENT
__unwindtable$??0?$_Tree_temp_node_alloc@V?$allocator@U?$_Tree_node@U?$pair@$$CBKP8CDPTrans@@AEXAAVCAr@@KKKPAEK@Z@std@@PAX@std@@@std@@@std@@QAE@AAV?$allocator@U?$_Tree_node@U?$pair@$$CBKP8CDPTrans@@AEXAAVCAr@@KKKPAEK@Z@std@@PAX@std@@@1@@Z DD 0ffffffffH
	DD	FLAT:__unwindfunclet$??0?$_Tree_temp_node_alloc@V?$allocator@U?$_Tree_node@U?$pair@$$CBKP8CDPTrans@@AEXAAVCAr@@KKKPAEK@Z@std@@PAX@std@@@std@@@std@@QAE@AAV?$allocator@U?$_Tree_node@U?$pair@$$CBKP8CDPTrans@@AEXAAVCAr@@KKKPAEK@Z@std@@PAX@std@@@1@@Z$0
__ehfuncinfo$??0?$_Tree_temp_node_alloc@V?$allocator@U?$_Tree_node@U?$pair@$$CBKP8CDPTrans@@AEXAAVCAr@@KKKPAEK@Z@std@@PAX@std@@@std@@@std@@QAE@AAV?$allocator@U?$_Tree_node@U?$pair@$$CBKP8CDPTrans@@AEXAAVCAr@@KKKPAEK@Z@std@@PAX@std@@@1@@Z DD 019930522H
	DD	01H
	DD	FLAT:__unwindtable$??0?$_Tree_temp_node_alloc@V?$allocator@U?$_Tree_node@U?$pair@$$CBKP8CDPTrans@@AEXAAVCAr@@KKKPAEK@Z@std@@PAX@std@@@std@@@std@@QAE@AAV?$allocator@U?$_Tree_node@U?$pair@$$CBKP8CDPTrans@@AEXAAVCAr@@KKKPAEK@Z@std@@PAX@std@@@1@@Z
	DD	2 DUP(00H)
	DD	2 DUP(00H)
	DD	00H
	DD	01H
xdata$x	ENDS
;	COMDAT xdata$x
xdata$x	SEGMENT
__unwindtable$??$?0V?$allocator@U?$_Tree_node@U?$pair@$$CBEH@std@@PAX@std@@@std@@@?$_Tree@V?$_Tmap_traits@EHU?$less@E@std@@V?$allocator@U?$pair@$$CBEH@std@@@2@$0A@@std@@@std@@QAE@ABV01@$$QAV?$allocator@U?$_Tree_node@U?$pair@$$CBEH@std@@PAX@std@@@1@@Z DD 0ffffffffH
	DD	FLAT:__unwindfunclet$??$?0V?$allocator@U?$_Tree_node@U?$pair@$$CBEH@std@@PAX@std@@@std@@@?$_Tree@V?$_Tmap_traits@EHU?$less@E@std@@V?$allocator@U?$pair@$$CBEH@std@@@2@$0A@@std@@@std@@QAE@ABV01@$$QAV?$allocator@U?$_Tree_node@U?$pair@$$CBEH@std@@PAX@std@@@1@@Z$0
__ehfuncinfo$??$?0V?$allocator@U?$_Tree_node@U?$pair@$$CBEH@std@@PAX@std@@@std@@@?$_Tree@V?$_Tmap_traits@EHU?$less@E@std@@V?$allocator@U?$pair@$$CBEH@std@@@2@$0A@@std@@@std@@QAE@ABV01@$$QAV?$allocator@U?$_Tree_node@U?$pair@$$CBEH@std@@PAX@std@@@1@@Z DD 019930522H
	DD	01H
	DD	FLAT:__unwindtable$??$?0V?$allocator@U?$_Tree_node@U?$pair@$$CBEH@std@@PAX@std@@@std@@@?$_Tree@V?$_Tmap_traits@EHU?$less@E@std@@V?$allocator@U?$pair@$$CBEH@std@@@2@$0A@@std@@@std@@QAE@ABV01@$$QAV?$allocator@U?$_Tree_node@U?$pair@$$CBEH@std@@PAX@std@@@1@@Z
	DD	2 DUP(00H)
	DD	2 DUP(00H)
	DD	00H
	DD	01H
xdata$x	ENDS
;	COMDAT xdata$x
xdata$x	SEGMENT
__unwindtable$??$_Emplace@U?$pair@$$CBHV?$basic_string@DU?$char_traits@D@std@@V?$allocator@D@2@@std@@@std@@@?$_Tree@V?$_Tmap_traits@HV?$basic_string@DU?$char_traits@D@std@@V?$allocator@D@2@@std@@U?$less@H@2@V?$allocator@U?$pair@$$CBHV?$basic_string@DU?$char_traits@D@std@@V?$allocator@D@2@@std@@@std@@@2@$0A@@std@@@std@@IAE?AU?$pair@PAU?$_Tree_node@U?$pair@$$CBHV?$basic_string@DU?$char_traits@D@std@@V?$allocator@D@2@@std@@@std@@PAX@std@@_N@1@$$QAU?$pair@$$CBHV?$basic_string@DU?$char_traits@D@std@@V?$allocator@D@2@@std@@@1@@Z DD 0ffffffffH
	DD	FLAT:__unwindfunclet$??$_Emplace@U?$pair@$$CBHV?$basic_string@DU?$char_traits@D@std@@V?$allocator@D@2@@std@@@std@@@?$_Tree@V?$_Tmap_traits@HV?$basic_string@DU?$char_traits@D@std@@V?$allocator@D@2@@std@@U?$less@H@2@V?$allocator@U?$pair@$$CBHV?$basic_string@DU?$char_traits@D@std@@V?$allocator@D@2@@std@@@std@@@2@$0A@@std@@@std@@IAE?AU?$pair@PAU?$_Tree_node@U?$pair@$$CBHV?$basic_string@DU?$char_traits@D@std@@V?$allocator@D@2@@std@@@std@@PAX@std@@_N@1@$$QAU?$pair@$$CBHV?$basic_string@DU?$char_traits@D@std@@V?$allocator@D@2@@std@@@1@@Z$2
__ehfuncinfo$??$_Emplace@U?$pair@$$CBHV?$basic_string@DU?$char_traits@D@std@@V?$allocator@D@2@@std@@@std@@@?$_Tree@V?$_Tmap_traits@HV?$basic_string@DU?$char_traits@D@std@@V?$allocator@D@2@@std@@U?$less@H@2@V?$allocator@U?$pair@$$CBHV?$basic_string@DU?$char_traits@D@std@@V?$allocator@D@2@@std@@@std@@@2@$0A@@std@@@std@@IAE?AU?$pair@PAU?$_Tree_node@U?$pair@$$CBHV?$basic_string@DU?$char_traits@D@std@@V?$allocator@D@2@@std@@@std@@PAX@std@@_N@1@$$QAU?$pair@$$CBHV?$basic_string@DU?$char_traits@D@std@@V?$allocator@D@2@@std@@@1@@Z DD 019930522H
	DD	01H
	DD	FLAT:__unwindtable$??$_Emplace@U?$pair@$$CBHV?$basic_string@DU?$char_traits@D@std@@V?$allocator@D@2@@std@@@std@@@?$_Tree@V?$_Tmap_traits@HV?$basic_string@DU?$char_traits@D@std@@V?$allocator@D@2@@std@@U?$less@H@2@V?$allocator@U?$pair@$$CBHV?$basic_string@DU?$char_traits@D@std@@V?$allocator@D@2@@std@@@std@@@2@$0A@@std@@@std@@IAE?AU?$pair@PAU?$_Tree_node@U?$pair@$$CBHV?$basic_string@DU?$char_traits@D@std@@V?$allocator@D@2@@std@@@std@@PAX@std@@_N@1@$$QAU?$pair@$$CBHV?$basic_string@DU?$char_traits@D@std@@V?$allocator@D@2@@std@@@1@@Z
	DD	2 DUP(00H)
	DD	2 DUP(00H)
	DD	00H
	DD	01H
xdata$x	ENDS
;	COMDAT xdata$x
xdata$x	SEGMENT
__unwindtable$??$emplace@U?$pair@EH@std@@@?$_Tree@V?$_Tmap_traits@EHU?$less@E@std@@V?$allocator@U?$pair@$$CBEH@std@@@2@$0A@@std@@@std@@QAE?AU?$pair@V?$_Tree_iterator@V?$_Tree_val@U?$_Tree_simple_types@U?$pair@$$CBEH@std@@@std@@@std@@@std@@_N@1@$$QAU?$pair@EH@1@@Z DD 0ffffffffH
	DD	FLAT:__unwindfunclet$??$emplace@U?$pair@EH@std@@@?$_Tree@V?$_Tmap_traits@EHU?$less@E@std@@V?$allocator@U?$pair@$$CBEH@std@@@2@$0A@@std@@@std@@QAE?AU?$pair@V?$_Tree_iterator@V?$_Tree_val@U?$_Tree_simple_types@U?$pair@$$CBEH@std@@@std@@@std@@@std@@_N@1@$$QAU?$pair@EH@1@@Z$2
__ehfuncinfo$??$emplace@U?$pair@EH@std@@@?$_Tree@V?$_Tmap_traits@EHU?$less@E@std@@V?$allocator@U?$pair@$$CBEH@std@@@2@$0A@@std@@@std@@QAE?AU?$pair@V?$_Tree_iterator@V?$_Tree_val@U?$_Tree_simple_types@U?$pair@$$CBEH@std@@@std@@@std@@@std@@_N@1@$$QAU?$pair@EH@1@@Z DD 019930522H
	DD	01H
	DD	FLAT:__unwindtable$??$emplace@U?$pair@EH@std@@@?$_Tree@V?$_Tmap_traits@EHU?$less@E@std@@V?$allocator@U?$pair@$$CBEH@std@@@2@$0A@@std@@@std@@QAE?AU?$pair@V?$_Tree_iterator@V?$_Tree_val@U?$_Tree_simple_types@U?$pair@$$CBEH@std@@@std@@@std@@@std@@_N@1@$$QAU?$pair@EH@1@@Z
	DD	2 DUP(00H)
	DD	2 DUP(00H)
	DD	00H
	DD	01H
xdata$x	ENDS
;	COMDAT xdata$x
xdata$x	SEGMENT
__unwindtable$??$_Emplace@U?$pair@$$CBKP8CDPTrans@@AEXAAVCAr@@KKKPAEK@Z@std@@@?$_Tree@V?$_Tmap_traits@KP8CDPTrans@@AEXAAVCAr@@KKKPAEK@ZU?$less@K@std@@V?$allocator@U?$pair@$$CBKP8CDPTrans@@AEXAAVCAr@@KKKPAEK@Z@std@@@4@$0A@@std@@@std@@IAE?AU?$pair@PAU?$_Tree_node@U?$pair@$$CBKP8CDPTrans@@AEXAAVCAr@@KKKPAEK@Z@std@@PAX@std@@_N@1@$$QAU?$pair@$$CBKP8CDPTrans@@AEXAAVCAr@@KKKPAEK@Z@1@@Z DD 0ffffffffH
	DD	FLAT:__unwindfunclet$??$_Emplace@U?$pair@$$CBKP8CDPTrans@@AEXAAVCAr@@KKKPAEK@Z@std@@@?$_Tree@V?$_Tmap_traits@KP8CDPTrans@@AEXAAVCAr@@KKKPAEK@ZU?$less@K@std@@V?$allocator@U?$pair@$$CBKP8CDPTrans@@AEXAAVCAr@@KKKPAEK@Z@std@@@4@$0A@@std@@@std@@IAE?AU?$pair@PAU?$_Tree_node@U?$pair@$$CBKP8CDPTrans@@AEXAAVCAr@@KKKPAEK@Z@std@@PAX@std@@_N@1@$$QAU?$pair@$$CBKP8CDPTrans@@AEXAAVCAr@@KKKPAEK@Z@1@@Z$2
__ehfuncinfo$??$_Emplace@U?$pair@$$CBKP8CDPTrans@@AEXAAVCAr@@KKKPAEK@Z@std@@@?$_Tree@V?$_Tmap_traits@KP8CDPTrans@@AEXAAVCAr@@KKKPAEK@ZU?$less@K@std@@V?$allocator@U?$pair@$$CBKP8CDPTrans@@AEXAAVCAr@@KKKPAEK@Z@std@@@4@$0A@@std@@@std@@IAE?AU?$pair@PAU?$_Tree_node@U?$pair@$$CBKP8CDPTrans@@AEXAAVCAr@@KKKPAEK@Z@std@@PAX@std@@_N@1@$$QAU?$pair@$$CBKP8CDPTrans@@AEXAAVCAr@@KKKPAEK@Z@1@@Z DD 019930522H
	DD	01H
	DD	FLAT:__unwindtable$??$_Emplace@U?$pair@$$CBKP8CDPTrans@@AEXAAVCAr@@KKKPAEK@Z@std@@@?$_Tree@V?$_Tmap_traits@KP8CDPTrans@@AEXAAVCAr@@KKKPAEK@ZU?$less@K@std@@V?$allocator@U?$pair@$$CBKP8CDPTrans@@AEXAAVCAr@@KKKPAEK@Z@std@@@4@$0A@@std@@@std@@IAE?AU?$pair@PAU?$_Tree_node@U?$pair@$$CBKP8CDPTrans@@AEXAAVCAr@@KKKPAEK@Z@std@@PAX@std@@_N@1@$$QAU?$pair@$$CBKP8CDPTrans@@AEXAAVCAr@@KKKPAEK@Z@1@@Z
	DD	2 DUP(00H)
	DD	2 DUP(00H)
	DD	00H
	DD	01H
xdata$x	ENDS
;	COMDAT xdata$x
xdata$x	SEGMENT
__unwindtable$??$insert@$0A@$0A@@?$_Tree@V?$_Tmap_traits@HV?$basic_string@DU?$char_traits@D@std@@V?$allocator@D@2@@std@@U?$less@H@2@V?$allocator@U?$pair@$$CBHV?$basic_string@DU?$char_traits@D@std@@V?$allocator@D@2@@std@@@std@@@2@$0A@@std@@@std@@QAE?AU?$pair@V?$_Tree_iterator@V?$_Tree_val@U?$_Tree_simple_types@U?$pair@$$CBHV?$basic_string@DU?$char_traits@D@std@@V?$allocator@D@2@@std@@@std@@@std@@@std@@@std@@_N@1@$$QAU?$pair@$$CBHV?$basic_string@DU?$char_traits@D@std@@V?$allocator@D@2@@std@@@1@@Z DD 0ffffffffH
	DD	FLAT:__unwindfunclet$??$insert@$0A@$0A@@?$_Tree@V?$_Tmap_traits@HV?$basic_string@DU?$char_traits@D@std@@V?$allocator@D@2@@std@@U?$less@H@2@V?$allocator@U?$pair@$$CBHV?$basic_string@DU?$char_traits@D@std@@V?$allocator@D@2@@std@@@std@@@2@$0A@@std@@@std@@QAE?AU?$pair@V?$_Tree_iterator@V?$_Tree_val@U?$_Tree_simple_types@U?$pair@$$CBHV?$basic_string@DU?$char_traits@D@std@@V?$allocator@D@2@@std@@@std@@@std@@@std@@@std@@_N@1@$$QAU?$pair@$$CBHV?$basic_string@DU?$char_traits@D@std@@V?$allocator@D@2@@std@@@1@@Z$2
__ehfuncinfo$??$insert@$0A@$0A@@?$_Tree@V?$_Tmap_traits@HV?$basic_string@DU?$char_traits@D@std@@V?$allocator@D@2@@std@@U?$less@H@2@V?$allocator@U?$pair@$$CBHV?$basic_string@DU?$char_traits@D@std@@V?$allocator@D@2@@std@@@std@@@2@$0A@@std@@@std@@QAE?AU?$pair@V?$_Tree_iterator@V?$_Tree_val@U?$_Tree_simple_types@U?$pair@$$CBHV?$basic_string@DU?$char_traits@D@std@@V?$allocator@D@2@@std@@@std@@@std@@@std@@@std@@_N@1@$$QAU?$pair@$$CBHV?$basic_string@DU?$char_traits@D@std@@V?$allocator@D@2@@std@@@1@@Z DD 019930522H
	DD	01H
	DD	FLAT:__unwindtable$??$insert@$0A@$0A@@?$_Tree@V?$_Tmap_traits@HV?$basic_string@DU?$char_traits@D@std@@V?$allocator@D@2@@std@@U?$less@H@2@V?$allocator@U?$pair@$$CBHV?$basic_string@DU?$char_traits@D@std@@V?$allocator@D@2@@std@@@std@@@2@$0A@@std@@@std@@QAE?AU?$pair@V?$_Tree_iterator@V?$_Tree_val@U?$_Tree_simple_types@U?$pair@$$CBHV?$basic_string@DU?$char_traits@D@std@@V?$allocator@D@2@@std@@@std@@@std@@@std@@@std@@_N@1@$$QAU?$pair@$$CBHV?$basic_string@DU?$char_traits@D@std@@V?$allocator@D@2@@std@@@1@@Z
	DD	2 DUP(00H)
	DD	2 DUP(00H)
	DD	00H
	DD	01H
xdata$x	ENDS
;	COMDAT xdata$x
xdata$x	SEGMENT
__unwindtable$??$insert@U?$pair@EH@std@@$0A@@?$map@EHU?$less@E@std@@V?$allocator@U?$pair@$$CBEH@std@@@2@@std@@QAE?AU?$pair@V?$_Tree_iterator@V?$_Tree_val@U?$_Tree_simple_types@U?$pair@$$CBEH@std@@@std@@@std@@@std@@_N@1@$$QAU?$pair@EH@1@@Z DD 0ffffffffH
	DD	FLAT:__unwindfunclet$??$insert@U?$pair@EH@std@@$0A@@?$map@EHU?$less@E@std@@V?$allocator@U?$pair@$$CBEH@std@@@2@@std@@QAE?AU?$pair@V?$_Tree_iterator@V?$_Tree_val@U?$_Tree_simple_types@U?$pair@$$CBEH@std@@@std@@@std@@@std@@_N@1@$$QAU?$pair@EH@1@@Z$2
__ehfuncinfo$??$insert@U?$pair@EH@std@@$0A@@?$map@EHU?$less@E@std@@V?$allocator@U?$pair@$$CBEH@std@@@2@@std@@QAE?AU?$pair@V?$_Tree_iterator@V?$_Tree_val@U?$_Tree_simple_types@U?$pair@$$CBEH@std@@@std@@@std@@@std@@_N@1@$$QAU?$pair@EH@1@@Z DD 019930522H
	DD	01H
	DD	FLAT:__unwindtable$??$insert@U?$pair@EH@std@@$0A@@?$map@EHU?$less@E@std@@V?$allocator@U?$pair@$$CBEH@std@@@2@@std@@QAE?AU?$pair@V?$_Tree_iterator@V?$_Tree_val@U?$_Tree_simple_types@U?$pair@$$CBEH@std@@@std@@@std@@@std@@_N@1@$$QAU?$pair@EH@1@@Z
	DD	2 DUP(00H)
	DD	2 DUP(00H)
	DD	00H
	DD	01H
xdata$x	ENDS
;	COMDAT xdata$x
xdata$x	SEGMENT
__unwindtable$??$insert@$0A@$0A@@?$_Tree@V?$_Tmap_traits@KP8CDPTrans@@AEXAAVCAr@@KKKPAEK@ZU?$less@K@std@@V?$allocator@U?$pair@$$CBKP8CDPTrans@@AEXAAVCAr@@KKKPAEK@Z@std@@@4@$0A@@std@@@std@@QAE?AU?$pair@V?$_Tree_iterator@V?$_Tree_val@U?$_Tree_simple_types@U?$pair@$$CBKP8CDPTrans@@AEXAAVCAr@@KKKPAEK@Z@std@@@std@@@std@@@std@@_N@1@$$QAU?$pair@$$CBKP8CDPTrans@@AEXAAVCAr@@KKKPAEK@Z@1@@Z DD 0ffffffffH
	DD	FLAT:__unwindfunclet$??$insert@$0A@$0A@@?$_Tree@V?$_Tmap_traits@KP8CDPTrans@@AEXAAVCAr@@KKKPAEK@ZU?$less@K@std@@V?$allocator@U?$pair@$$CBKP8CDPTrans@@AEXAAVCAr@@KKKPAEK@Z@std@@@4@$0A@@std@@@std@@QAE?AU?$pair@V?$_Tree_iterator@V?$_Tree_val@U?$_Tree_simple_types@U?$pair@$$CBKP8CDPTrans@@AEXAAVCAr@@KKKPAEK@Z@std@@@std@@@std@@@std@@_N@1@$$QAU?$pair@$$CBKP8CDPTrans@@AEXAAVCAr@@KKKPAEK@Z@1@@Z$2
__ehfuncinfo$??$insert@$0A@$0A@@?$_Tree@V?$_Tmap_traits@KP8CDPTrans@@AEXAAVCAr@@KKKPAEK@ZU?$less@K@std@@V?$allocator@U?$pair@$$CBKP8CDPTrans@@AEXAAVCAr@@KKKPAEK@Z@std@@@4@$0A@@std@@@std@@QAE?AU?$pair@V?$_Tree_iterator@V?$_Tree_val@U?$_Tree_simple_types@U?$pair@$$CBKP8CDPTrans@@AEXAAVCAr@@KKKPAEK@Z@std@@@std@@@std@@@std@@_N@1@$$QAU?$pair@$$CBKP8CDPTrans@@AEXAAVCAr@@KKKPAEK@Z@1@@Z DD 019930522H
	DD	01H
	DD	FLAT:__unwindtable$??$insert@$0A@$0A@@?$_Tree@V?$_Tmap_traits@KP8CDPTrans@@AEXAAVCAr@@KKKPAEK@ZU?$less@K@std@@V?$allocator@U?$pair@$$CBKP8CDPTrans@@AEXAAVCAr@@KKKPAEK@Z@std@@@4@$0A@@std@@@std@@QAE?AU?$pair@V?$_Tree_iterator@V?$_Tree_val@U?$_Tree_simple_types@U?$pair@$$CBKP8CDPTrans@@AEXAAVCAr@@KKKPAEK@Z@std@@@std@@@std@@@std@@_N@1@$$QAU?$pair@$$CBKP8CDPTrans@@AEXAAVCAr@@KKKPAEK@Z@1@@Z
	DD	2 DUP(00H)
	DD	2 DUP(00H)
	DD	00H
	DD	01H
xdata$x	ENDS
;	COMDAT xdata$x
xdata$x	SEGMENT
__unwindtable$?SendUpdateCampusPoint@CDPTrans@@QAEXKH@Z DD 0ffffffffH
	DD	FLAT:__unwindfunclet$?SendUpdateCampusPoint@CDPTrans@@QAEXKH@Z$0
__ehfuncinfo$?SendUpdateCampusPoint@CDPTrans@@QAEXKH@Z DD 019930522H
	DD	01H
	DD	FLAT:__unwindtable$?SendUpdateCampusPoint@CDPTrans@@QAEXKH@Z
	DD	2 DUP(00H)
	DD	2 DUP(00H)
	DD	00H
	DD	01H
xdata$x	ENDS
;	COMDAT xdata$x
xdata$x	SEGMENT
__unwindtable$?SendRemoveCampusMember@CDPTrans@@QAEXKK@Z DD 0ffffffffH
	DD	FLAT:__unwindfunclet$?SendRemoveCampusMember@CDPTrans@@QAEXKK@Z$0
__ehfuncinfo$?SendRemoveCampusMember@CDPTrans@@QAEXKK@Z DD 019930522H
	DD	01H
	DD	FLAT:__unwindtable$?SendRemoveCampusMember@CDPTrans@@QAEXKK@Z
	DD	2 DUP(00H)
	DD	2 DUP(00H)
	DD	00H
	DD	01H
xdata$x	ENDS
;	COMDAT xdata$x
xdata$x	SEGMENT
__unwindtable$?SendAddCampusMember@CDPTrans@@QAEXKKK@Z DD 0ffffffffH
	DD	FLAT:__unwindfunclet$?SendAddCampusMember@CDPTrans@@QAEXKKK@Z$0
__ehfuncinfo$?SendAddCampusMember@CDPTrans@@QAEXKKK@Z DD 019930522H
	DD	01H
	DD	FLAT:__unwindtable$?SendAddCampusMember@CDPTrans@@QAEXKKK@Z
	DD	2 DUP(00H)
	DD	2 DUP(00H)
	DD	00H
	DD	01H
xdata$x	ENDS
;	COMDAT xdata$x
xdata$x	SEGMENT
__unwindtable$?SendAllCampus@CDPTrans@@QAEXK@Z DD 0ffffffffH
	DD	FLAT:__unwindfunclet$?SendAllCampus@CDPTrans@@QAEXK@Z$0
__ehfuncinfo$?SendAllCampus@CDPTrans@@QAEXK@Z DD 019930522H
	DD	01H
	DD	FLAT:__unwindtable$?SendAllCampus@CDPTrans@@QAEXK@Z
	DD	2 DUP(00H)
	DD	2 DUP(00H)
	DD	00H
	DD	01H
xdata$x	ENDS
;	COMDAT xdata$x
xdata$x	SEGMENT
__unwindtable$?SendQuizEventChanged@CDPTrans@@QAEXXZ DD 0ffffffffH
	DD	FLAT:__unwindfunclet$?SendQuizEventChanged@CDPTrans@@QAEXXZ$0
__ehfuncinfo$?SendQuizEventChanged@CDPTrans@@QAEXXZ DD 019930522H
	DD	01H
	DD	FLAT:__unwindtable$?SendQuizEventChanged@CDPTrans@@QAEXXZ
	DD	2 DUP(00H)
	DD	2 DUP(00H)
	DD	00H
	DD	01H
xdata$x	ENDS
;	COMDAT xdata$x
xdata$x	SEGMENT
__unwindtable$?SendQuizEventNotice@CDPTrans@@QAEXK@Z DD 0ffffffffH
	DD	FLAT:__unwindfunclet$?SendQuizEventNotice@CDPTrans@@QAEXK@Z$0
__ehfuncinfo$?SendQuizEventNotice@CDPTrans@@QAEXK@Z DD 019930522H
	DD	01H
	DD	FLAT:__unwindtable$?SendQuizEventNotice@CDPTrans@@QAEXK@Z
	DD	2 DUP(00H)
	DD	2 DUP(00H)
	DD	00H
	DD	01H
xdata$x	ENDS
;	COMDAT xdata$x
xdata$x	SEGMENT
__unwindtable$?SendQuizList@CDPTrans@@QAEXKAAU_QUIZLIST@CQuiz@@H@Z DD 0ffffffffH
	DD	FLAT:__unwindfunclet$?SendQuizList@CDPTrans@@QAEXKAAU_QUIZLIST@CQuiz@@H@Z$0
__ehfuncinfo$?SendQuizList@CDPTrans@@QAEXKAAU_QUIZLIST@CQuiz@@H@Z DD 019930522H
	DD	01H
	DD	FLAT:__unwindtable$?SendQuizList@CDPTrans@@QAEXKAAU_QUIZLIST@CQuiz@@H@Z
	DD	2 DUP(00H)
	DD	2 DUP(00H)
	DD	00H
	DD	01H
xdata$x	ENDS
;	COMDAT xdata$x
xdata$x	SEGMENT
__unwindtable$?SendQuizEventOpen@CDPTrans@@QAEXK@Z DD 0ffffffffH
	DD	FLAT:__unwindfunclet$?SendQuizEventOpen@CDPTrans@@QAEXK@Z$0
__ehfuncinfo$?SendQuizEventOpen@CDPTrans@@QAEXK@Z DD 019930522H
	DD	01H
	DD	FLAT:__unwindtable$?SendQuizEventOpen@CDPTrans@@QAEXK@Z
	DD	2 DUP(00H)
	DD	2 DUP(00H)
	DD	00H
	DD	01H
xdata$x	ENDS
;	COMDAT xdata$x
xdata$x	SEGMENT
__unwindtable$?SendPCBangSetApply@CDPTrans@@QAEXK@Z DD 0ffffffffH
	DD	FLAT:__unwindfunclet$?SendPCBangSetApply@CDPTrans@@QAEXK@Z$0
__ehfuncinfo$?SendPCBangSetApply@CDPTrans@@QAEXK@Z DD 019930522H
	DD	01H
	DD	FLAT:__unwindtable$?SendPCBangSetApply@CDPTrans@@QAEXK@Z
	DD	2 DUP(00H)
	DD	2 DUP(00H)
	DD	00H
	DD	01H
xdata$x	ENDS
;	COMDAT xdata$x
xdata$x	SEGMENT
__unwindtable$?SendFunnyCoinAckUse@CDPTrans@@QAEXKKKHK@Z DD 0ffffffffH
	DD	FLAT:__unwindfunclet$?SendFunnyCoinAckUse@CDPTrans@@QAEXKKKHK@Z$0
__ehfuncinfo$?SendFunnyCoinAckUse@CDPTrans@@QAEXKKKHK@Z DD 019930522H
	DD	01H
	DD	FLAT:__unwindtable$?SendFunnyCoinAckUse@CDPTrans@@QAEXKKKHK@Z
	DD	2 DUP(00H)
	DD	2 DUP(00H)
	DD	00H
	DD	01H
xdata$x	ENDS
;	COMDAT xdata$x
xdata$x	SEGMENT
__unwindtable$?SendAddCoupleExperience@CDPTrans@@QAEXKH@Z DD 0ffffffffH
	DD	FLAT:__unwindfunclet$?SendAddCoupleExperience@CDPTrans@@QAEXKH@Z$0
__ehfuncinfo$?SendAddCoupleExperience@CDPTrans@@QAEXKH@Z DD 019930522H
	DD	01H
	DD	FLAT:__unwindtable$?SendAddCoupleExperience@CDPTrans@@QAEXKH@Z
	DD	2 DUP(00H)
	DD	2 DUP(00H)
	DD	00H
	DD	01H
xdata$x	ENDS
;	COMDAT xdata$x
xdata$x	SEGMENT
__unwindtable$?SendDecoupleResult@CDPTrans@@QAEXKH@Z DD 0ffffffffH
	DD	FLAT:__unwindfunclet$?SendDecoupleResult@CDPTrans@@QAEXKH@Z$0
__ehfuncinfo$?SendDecoupleResult@CDPTrans@@QAEXKH@Z DD 019930522H
	DD	01H
	DD	FLAT:__unwindtable$?SendDecoupleResult@CDPTrans@@QAEXKH@Z
	DD	2 DUP(00H)
	DD	2 DUP(00H)
	DD	00H
	DD	01H
xdata$x	ENDS
;	COMDAT xdata$x
xdata$x	SEGMENT
__unwindtable$?SendCoupleResult@CDPTrans@@QAEXKKH@Z DD 0ffffffffH
	DD	FLAT:__unwindfunclet$?SendCoupleResult@CDPTrans@@QAEXKKH@Z$0
__ehfuncinfo$?SendCoupleResult@CDPTrans@@QAEXKKH@Z DD 019930522H
	DD	01H
	DD	FLAT:__unwindtable$?SendCoupleResult@CDPTrans@@QAEXKKH@Z
	DD	2 DUP(00H)
	DD	2 DUP(00H)
	DD	00H
	DD	01H
xdata$x	ENDS
;	COMDAT xdata$x
xdata$x	SEGMENT
__unwindtable$?SendProposeResult@CDPTrans@@QAEXKKHJK@Z DD 0ffffffffH
	DD	FLAT:__unwindfunclet$?SendProposeResult@CDPTrans@@QAEXKKHJK@Z$0
__ehfuncinfo$?SendProposeResult@CDPTrans@@QAEXKKHJK@Z DD 019930522H
	DD	01H
	DD	FLAT:__unwindtable$?SendProposeResult@CDPTrans@@QAEXKKHJK@Z
	DD	2 DUP(00H)
	DD	2 DUP(00H)
	DD	00H
	DD	01H
xdata$x	ENDS
;	COMDAT xdata$x
xdata$x	SEGMENT
__unwindtable$?SendCouple@CDPTrans@@QAEXPAVCCoupleMgr@@K@Z DD 0ffffffffH
	DD	FLAT:__unwindfunclet$?SendCouple@CDPTrans@@QAEXPAVCCoupleMgr@@K@Z$0
__ehfuncinfo$?SendCouple@CDPTrans@@QAEXPAVCCoupleMgr@@K@Z DD 019930522H
	DD	01H
	DD	FLAT:__unwindtable$?SendCouple@CDPTrans@@QAEXPAVCCoupleMgr@@K@Z
	DD	2 DUP(00H)
	DD	2 DUP(00H)
	DD	00H
	DD	01H
xdata$x	ENDS
;	COMDAT xdata$x
xdata$x	SEGMENT
__unwindtable$?SendHousingDBFailed@CDPTrans@@QAEXKKK@Z DD 0ffffffffH
	DD	FLAT:__unwindfunclet$?SendHousingDBFailed@CDPTrans@@QAEXKKK@Z$0
__ehfuncinfo$?SendHousingDBFailed@CDPTrans@@QAEXKKK@Z DD 019930522H
	DD	01H
	DD	FLAT:__unwindtable$?SendHousingDBFailed@CDPTrans@@QAEXKKK@Z
	DD	2 DUP(00H)
	DD	2 DUP(00H)
	DD	00H
	DD	01H
xdata$x	ENDS
;	COMDAT xdata$x
xdata$x	SEGMENT
__unwindtable$?SendHousingSetVisitAllow@CDPTrans@@QAEXKKHK@Z DD 0ffffffffH
	DD	FLAT:__unwindfunclet$?SendHousingSetVisitAllow@CDPTrans@@QAEXKKHK@Z$0
__ehfuncinfo$?SendHousingSetVisitAllow@CDPTrans@@QAEXKKHK@Z DD 019930522H
	DD	01H
	DD	FLAT:__unwindtable$?SendHousingSetVisitAllow@CDPTrans@@QAEXKKHK@Z
	DD	2 DUP(00H)
	DD	2 DUP(00H)
	DD	00H
	DD	01H
xdata$x	ENDS
;	COMDAT xdata$x
xdata$x	SEGMENT
__unwindtable$?SendHousingSetupFurniture@CDPTrans@@QAEXKUHOUSINGINFO@@K@Z DD 0ffffffffH
	DD	FLAT:__unwindfunclet$?SendHousingSetupFurniture@CDPTrans@@QAEXKUHOUSINGINFO@@K@Z$0
__ehfuncinfo$?SendHousingSetupFurniture@CDPTrans@@QAEXKUHOUSINGINFO@@K@Z DD 019930522H
	DD	01H
	DD	FLAT:__unwindtable$?SendHousingSetupFurniture@CDPTrans@@QAEXKUHOUSINGINFO@@K@Z
	DD	2 DUP(00H)
	DD	2 DUP(00H)
	DD	00H
	DD	01H
xdata$x	ENDS
;	COMDAT xdata$x
xdata$x	SEGMENT
__unwindtable$?SendHousingFurnitureList@CDPTrans@@QAEXKAAUHOUSINGINFO@@HK@Z DD 0ffffffffH
	DD	FLAT:__unwindfunclet$?SendHousingFurnitureList@CDPTrans@@QAEXKAAUHOUSINGINFO@@HK@Z$0
__ehfuncinfo$?SendHousingFurnitureList@CDPTrans@@QAEXKAAUHOUSINGINFO@@HK@Z DD 019930522H
	DD	01H
	DD	FLAT:__unwindtable$?SendHousingFurnitureList@CDPTrans@@QAEXKAAUHOUSINGINFO@@HK@Z
	DD	2 DUP(00H)
	DD	2 DUP(00H)
	DD	00H
	DD	01H
xdata$x	ENDS
;	COMDAT xdata$x
xdata$x	SEGMENT
__unwindtable$?SendHousingLoadInfo@CDPTrans@@QAEXKPAVCHousing@@K@Z DD 0ffffffffH
	DD	FLAT:__unwindfunclet$?SendHousingLoadInfo@CDPTrans@@QAEXKPAVCHousing@@K@Z$0
__ehfuncinfo$?SendHousingLoadInfo@CDPTrans@@QAEXKPAVCHousing@@K@Z DD 019930522H
	DD	01H
	DD	FLAT:__unwindtable$?SendHousingLoadInfo@CDPTrans@@QAEXKPAVCHousing@@K@Z
	DD	2 DUP(00H)
	DD	2 DUP(00H)
	DD	00H
	DD	01H
xdata$x	ENDS
;	COMDAT xdata$x
xdata$x	SEGMENT
__unwindtable$?SendRainbowRaceInfo@CDPTrans@@QAEXAAV?$vector@KV?$allocator@K@std@@@std@@0K@Z DD 0ffffffffH
	DD	FLAT:__unwindfunclet$?SendRainbowRaceInfo@CDPTrans@@QAEXAAV?$vector@KV?$allocator@K@std@@@std@@0K@Z$0
__ehfuncinfo$?SendRainbowRaceInfo@CDPTrans@@QAEXAAV?$vector@KV?$allocator@K@std@@@std@@0K@Z DD 019930522H
	DD	01H
	DD	FLAT:__unwindtable$?SendRainbowRaceInfo@CDPTrans@@QAEXAAV?$vector@KV?$allocator@K@std@@@std@@0K@Z
	DD	2 DUP(00H)
	DD	2 DUP(00H)
	DD	00H
	DD	01H
xdata$x	ENDS
;	COMDAT xdata$x
xdata$x	SEGMENT
__unwindtable$?SendSecretRoomTenderInfo@CDPTrans@@QAEXEKHAAV?$vector@KV?$allocator@K@std@@@std@@K@Z DD 0ffffffffH
	DD	FLAT:__unwindfunclet$?SendSecretRoomTenderInfo@CDPTrans@@QAEXEKHAAV?$vector@KV?$allocator@K@std@@@std@@K@Z$0
__ehfuncinfo$?SendSecretRoomTenderInfo@CDPTrans@@QAEXEKHAAV?$vector@KV?$allocator@K@std@@@std@@K@Z DD 019930522H
	DD	01H
	DD	FLAT:__unwindtable$?SendSecretRoomTenderInfo@CDPTrans@@QAEXEKHAAV?$vector@KV?$allocator@K@std@@@std@@K@Z
	DD	2 DUP(00H)
	DD	2 DUP(00H)
	DD	00H
	DD	01H
xdata$x	ENDS
;	COMDAT xdata$x
xdata$x	SEGMENT
__unwindtable$?SendSecretRoomInfoClear@CDPTrans@@QAEXK@Z DD 0ffffffffH
	DD	FLAT:__unwindfunclet$?SendSecretRoomInfoClear@CDPTrans@@QAEXK@Z$0
__ehfuncinfo$?SendSecretRoomInfoClear@CDPTrans@@QAEXK@Z DD 019930522H
	DD	01H
	DD	FLAT:__unwindtable$?SendSecretRoomInfoClear@CDPTrans@@QAEXK@Z
	DD	2 DUP(00H)
	DD	2 DUP(00H)
	DD	00H
	DD	01H
xdata$x	ENDS
;	COMDAT xdata$x
xdata$x	SEGMENT
__unwindtable$?SendTaxInfo@CDPTrans@@QAEXKHH@Z DD 0ffffffffH
	DD	FLAT:__unwindfunclet$?SendTaxInfo@CDPTrans@@QAEXKHH@Z$0
__ehfuncinfo$?SendTaxInfo@CDPTrans@@QAEXKHH@Z DD 019930522H
	DD	01H
	DD	FLAT:__unwindtable$?SendTaxInfo@CDPTrans@@QAEXKHH@Z
	DD	2 DUP(00H)
	DD	2 DUP(00H)
	DD	00H
	DD	01H
xdata$x	ENDS
;	COMDAT xdata$x
xdata$x	SEGMENT
__unwindtable$?SendLEventTick@CDPTrans@@QAEXPAVILordEvent@@@Z DD 0ffffffffH
	DD	FLAT:__unwindfunclet$?SendLEventTick@CDPTrans@@QAEXPAVILordEvent@@@Z$0
__ehfuncinfo$?SendLEventTick@CDPTrans@@QAEXPAVILordEvent@@@Z DD 019930522H
	DD	01H
	DD	FLAT:__unwindtable$?SendLEventTick@CDPTrans@@QAEXPAVILordEvent@@@Z
	DD	2 DUP(00H)
	DD	2 DUP(00H)
	DD	00H
	DD	01H
xdata$x	ENDS
;	COMDAT xdata$x
xdata$x	SEGMENT
__unwindtable$?SendLordSkillTick@CDPTrans@@QAEXPAVCLordSkill@@@Z DD 0ffffffffH
	DD	FLAT:__unwindfunclet$?SendLordSkillTick@CDPTrans@@QAEXPAVCLordSkill@@@Z$0
__ehfuncinfo$?SendLordSkillTick@CDPTrans@@QAEXPAVCLordSkill@@@Z DD 019930522H
	DD	01H
	DD	FLAT:__unwindtable$?SendLordSkillTick@CDPTrans@@QAEXPAVCLordSkill@@@Z
	DD	2 DUP(00H)
	DD	2 DUP(00H)
	DD	00H
	DD	01H
xdata$x	ENDS
;	COMDAT xdata$x
xdata$x	SEGMENT
__unwindtable$?SendLordSkillUse@CDPTrans@@QAEXKKHH@Z DD 0ffffffffH
	DD	FLAT:__unwindfunclet$?SendLordSkillUse@CDPTrans@@QAEXKKHH@Z$0
__ehfuncinfo$?SendLordSkillUse@CDPTrans@@QAEXKKHH@Z DD 019930522H
	DD	01H
	DD	FLAT:__unwindtable$?SendLordSkillUse@CDPTrans@@QAEXKKHH@Z
	DD	2 DUP(00H)
	DD	2 DUP(00H)
	DD	00H
	DD	01H
xdata$x	ENDS
;	COMDAT xdata$x
xdata$x	SEGMENT
__unwindtable$?SendLEventInitialize@CDPTrans@@QAEXXZ DD 0ffffffffH
	DD	FLAT:__unwindfunclet$?SendLEventInitialize@CDPTrans@@QAEXXZ$0
__ehfuncinfo$?SendLEventInitialize@CDPTrans@@QAEXXZ DD 019930522H
	DD	01H
	DD	FLAT:__unwindtable$?SendLEventInitialize@CDPTrans@@QAEXXZ
	DD	2 DUP(00H)
	DD	2 DUP(00H)
	DD	00H
	DD	01H
xdata$x	ENDS
;	COMDAT xdata$x
xdata$x	SEGMENT
__unwindtable$?SendLEventCreate@CDPTrans@@QAEXPAVCLEComponent@@H@Z DD 0ffffffffH
	DD	FLAT:__unwindfunclet$?SendLEventCreate@CDPTrans@@QAEXPAVCLEComponent@@H@Z$0
__ehfuncinfo$?SendLEventCreate@CDPTrans@@QAEXPAVCLEComponent@@H@Z DD 019930522H
	DD	01H
	DD	FLAT:__unwindtable$?SendLEventCreate@CDPTrans@@QAEXPAVCLEComponent@@H@Z
	DD	2 DUP(00H)
	DD	2 DUP(00H)
	DD	00H
	DD	01H
xdata$x	ENDS
;	COMDAT xdata$x
xdata$x	SEGMENT
__unwindtable$?SendLord@CDPTrans@@QAEXK@Z DD 0ffffffffH
	DD	FLAT:__unwindfunclet$?SendLord@CDPTrans@@QAEXK@Z$0
__ehfuncinfo$?SendLord@CDPTrans@@QAEXK@Z DD 019930522H
	DD	01H
	DD	FLAT:__unwindtable$?SendLord@CDPTrans@@QAEXK@Z
	DD	2 DUP(00H)
	DD	2 DUP(00H)
	DD	00H
	DD	01H
xdata$x	ENDS
;	COMDAT xdata$x
xdata$x	SEGMENT
__unwindtable$?SendElectionEndVote@CDPTrans@@QAEXK@Z DD 0ffffffffH
	DD	FLAT:__unwindfunclet$?SendElectionEndVote@CDPTrans@@QAEXK@Z$0
__ehfuncinfo$?SendElectionEndVote@CDPTrans@@QAEXK@Z DD 019930522H
	DD	01H
	DD	FLAT:__unwindtable$?SendElectionEndVote@CDPTrans@@QAEXK@Z
	DD	2 DUP(00H)
	DD	2 DUP(00H)
	DD	00H
	DD	01H
xdata$x	ENDS
;	COMDAT xdata$x
xdata$x	SEGMENT
__unwindtable$?SendElectionBeginVote@CDPTrans@@QAEXH@Z DD 0ffffffffH
	DD	FLAT:__unwindfunclet$?SendElectionBeginVote@CDPTrans@@QAEXH@Z$0
__ehfuncinfo$?SendElectionBeginVote@CDPTrans@@QAEXH@Z DD 019930522H
	DD	01H
	DD	FLAT:__unwindtable$?SendElectionBeginVote@CDPTrans@@QAEXH@Z
	DD	2 DUP(00H)
	DD	2 DUP(00H)
	DD	00H
	DD	01H
xdata$x	ENDS
;	COMDAT xdata$x
xdata$x	SEGMENT
__unwindtable$?SendElectionIncVote@CDPTrans@@QAEXKKH@Z DD 0ffffffffH
	DD	FLAT:__unwindfunclet$?SendElectionIncVote@CDPTrans@@QAEXKKH@Z$0
__ehfuncinfo$?SendElectionIncVote@CDPTrans@@QAEXKKH@Z DD 019930522H
	DD	01H
	DD	FLAT:__unwindtable$?SendElectionIncVote@CDPTrans@@QAEXKKH@Z
	DD	2 DUP(00H)
	DD	2 DUP(00H)
	DD	00H
	DD	01H
xdata$x	ENDS
;	COMDAT xdata$x
xdata$x	SEGMENT
__unwindtable$?SendElectionSetPledge@CDPTrans@@QAEXKPBDH@Z DD 0ffffffffH
	DD	FLAT:__unwindfunclet$?SendElectionSetPledge@CDPTrans@@QAEXKPBDH@Z$0
__ehfuncinfo$?SendElectionSetPledge@CDPTrans@@QAEXKPBDH@Z DD 019930522H
	DD	01H
	DD	FLAT:__unwindtable$?SendElectionSetPledge@CDPTrans@@QAEXKPBDH@Z
	DD	2 DUP(00H)
	DD	2 DUP(00H)
	DD	00H
	DD	01H
xdata$x	ENDS
;	COMDAT xdata$x
xdata$x	SEGMENT
__unwindtable$?SendElectionAddDeposit@CDPTrans@@QAEXK_JJH@Z DD 0ffffffffH
	DD	FLAT:__unwindfunclet$?SendElectionAddDeposit@CDPTrans@@QAEXK_JJH@Z$0
__ehfuncinfo$?SendElectionAddDeposit@CDPTrans@@QAEXK_JJH@Z DD 019930522H
	DD	01H
	DD	FLAT:__unwindtable$?SendElectionAddDeposit@CDPTrans@@QAEXK_JJH@Z
	DD	2 DUP(00H)
	DD	2 DUP(00H)
	DD	00H
	DD	01H
xdata$x	ENDS
;	COMDAT xdata$x
xdata$x	SEGMENT
__unwindtable$?SendQueryRemoveGuildBankTbl@CDPTrans@@QAEXHKKKK@Z DD 0ffffffffH
	DD	FLAT:__unwindfunclet$?SendQueryRemoveGuildBankTbl@CDPTrans@@QAEXHKKKK@Z$0
__ehfuncinfo$?SendQueryRemoveGuildBankTbl@CDPTrans@@QAEXHKKKK@Z DD 019930522H
	DD	01H
	DD	FLAT:__unwindtable$?SendQueryRemoveGuildBankTbl@CDPTrans@@QAEXHKKKK@Z
	DD	2 DUP(00H)
	DD	2 DUP(00H)
	DD	00H
	DD	01H
xdata$x	ENDS
;	COMDAT xdata$x
xdata$x	SEGMENT
__unwindtable$?SendContinueGC@CDPTrans@@QAEXXZ DD 0ffffffffH
	DD	FLAT:__unwindfunclet$?SendContinueGC@CDPTrans@@QAEXXZ$0
__ehfuncinfo$?SendContinueGC@CDPTrans@@QAEXXZ DD 019930522H
	DD	01H
	DD	FLAT:__unwindtable$?SendContinueGC@CDPTrans@@QAEXXZ
	DD	2 DUP(00H)
	DD	2 DUP(00H)
	DD	00H
	DD	01H
xdata$x	ENDS
;	COMDAT xdata$x
xdata$x	SEGMENT
__unwindtable$?SendGetPenyaPlayerGC@CDPTrans@@QAEXKHK@Z DD 0ffffffffH
	DD	FLAT:__unwindfunclet$?SendGetPenyaPlayerGC@CDPTrans@@QAEXKHK@Z$0
__ehfuncinfo$?SendGetPenyaPlayerGC@CDPTrans@@QAEXKHK@Z DD 019930522H
	DD	01H
	DD	FLAT:__unwindtable$?SendGetPenyaPlayerGC@CDPTrans@@QAEXKHK@Z
	DD	2 DUP(00H)
	DD	2 DUP(00H)
	DD	00H
	DD	01H
xdata$x	ENDS
;	COMDAT xdata$x
xdata$x	SEGMENT
__unwindtable$?SendGetPenyaGuildGC@CDPTrans@@QAEXKHK@Z DD 0ffffffffH
	DD	FLAT:__unwindfunclet$?SendGetPenyaGuildGC@CDPTrans@@QAEXKHK@Z$0
__ehfuncinfo$?SendGetPenyaGuildGC@CDPTrans@@QAEXKHK@Z DD 019930522H
	DD	01H
	DD	FLAT:__unwindtable$?SendGetPenyaGuildGC@CDPTrans@@QAEXKHK@Z
	DD	2 DUP(00H)
	DD	2 DUP(00H)
	DD	00H
	DD	01H
xdata$x	ENDS
;	COMDAT xdata$x
xdata$x	SEGMENT
__unwindtable$?SendPlayerPointGuildCombat@CDPTrans@@QAEXXZ DD 0ffffffffH
	DD	FLAT:__unwindfunclet$?SendPlayerPointGuildCombat@CDPTrans@@QAEXXZ$0
__ehfuncinfo$?SendPlayerPointGuildCombat@CDPTrans@@QAEXXZ DD 019930522H
	DD	01H
	DD	FLAT:__unwindtable$?SendPlayerPointGuildCombat@CDPTrans@@QAEXXZ
	DD	2 DUP(00H)
	DD	2 DUP(00H)
	DD	00H
	DD	01H
xdata$x	ENDS
;	COMDAT xdata$x
xdata$x	SEGMENT
__unwindtable$?SendResultGuildCombat@CDPTrans@@QAEXXZ DD 0ffffffffH
	DD	FLAT:__unwindfunclet$?SendResultGuildCombat@CDPTrans@@QAEXXZ$0
__ehfuncinfo$?SendResultGuildCombat@CDPTrans@@QAEXXZ DD 019930522H
	DD	01H
	DD	FLAT:__unwindtable$?SendResultGuildCombat@CDPTrans@@QAEXXZ
	DD	2 DUP(00H)
	DD	2 DUP(00H)
	DD	00H
	DD	01H
xdata$x	ENDS
;	COMDAT xdata$x
xdata$x	SEGMENT
__unwindtable$?SendOutGuildCombat@CDPTrans@@QAEXK@Z DD 0ffffffffH
	DD	FLAT:__unwindfunclet$?SendOutGuildCombat@CDPTrans@@QAEXK@Z$0
__ehfuncinfo$?SendOutGuildCombat@CDPTrans@@QAEXK@Z DD 019930522H
	DD	01H
	DD	FLAT:__unwindtable$?SendOutGuildCombat@CDPTrans@@QAEXK@Z
	DD	2 DUP(00H)
	DD	2 DUP(00H)
	DD	00H
	DD	01H
xdata$x	ENDS
;	COMDAT xdata$x
xdata$x	SEGMENT
__unwindtable$?SendInGuildCombat@CDPTrans@@QAEXKKK@Z DD 0ffffffffH
	DD	FLAT:__unwindfunclet$?SendInGuildCombat@CDPTrans@@QAEXKKK@Z$0
__ehfuncinfo$?SendInGuildCombat@CDPTrans@@QAEXKKK@Z DD 019930522H
	DD	01H
	DD	FLAT:__unwindtable$?SendInGuildCombat@CDPTrans@@QAEXKKK@Z
	DD	2 DUP(00H)
	DD	2 DUP(00H)
	DD	00H
	DD	01H
xdata$x	ENDS
;	COMDAT xdata$x
xdata$x	SEGMENT
__unwindtable$?OnItemTBLUpdate@CDPTrans@@AAEXAAVCAr@@KKKPAEK@Z DD 0ffffffffH
	DD	FLAT:__unwindfunclet$?OnItemTBLUpdate@CDPTrans@@AAEXAAVCAr@@KKKPAEK@Z$0
	DD	00H
	DD	FLAT:__unwindfunclet$?OnItemTBLUpdate@CDPTrans@@AAEXAAVCAr@@KKKPAEK@Z$6
__ehfuncinfo$?OnItemTBLUpdate@CDPTrans@@AAEXAAVCAr@@KKKPAEK@Z DD 019930522H
	DD	02H
	DD	FLAT:__unwindtable$?OnItemTBLUpdate@CDPTrans@@AAEXAAVCAr@@KKKPAEK@Z
	DD	2 DUP(00H)
	DD	2 DUP(00H)
	DD	00H
	DD	01H
xdata$x	ENDS
;	COMDAT xdata$x
xdata$x	SEGMENT
__unwindtable$?OnPing@CDPTrans@@AAEXAAVCAr@@KKKPAEK@Z DD 0ffffffffH
	DD	FLAT:__unwindfunclet$?OnPing@CDPTrans@@AAEXAAVCAr@@KKKPAEK@Z$0
__ehfuncinfo$?OnPing@CDPTrans@@AAEXAAVCAr@@KKKPAEK@Z DD 019930522H
	DD	01H
	DD	FLAT:__unwindtable$?OnPing@CDPTrans@@AAEXAAVCAr@@KKKPAEK@Z
	DD	2 DUP(00H)
	DD	2 DUP(00H)
	DD	00H
	DD	01H
xdata$x	ENDS
;	COMDAT xdata$x
xdata$x	SEGMENT
__unwindtable$?OnSavePlayer@CDPTrans@@AAEXAAVCAr@@KKKPAEK@Z DD 0ffffffffH
	DD	FLAT:__unwindfunclet$?OnSavePlayer@CDPTrans@@AAEXAAVCAr@@KKKPAEK@Z$0
	DD	0ffffffffH
	DD	FLAT:__unwindfunclet$?OnSavePlayer@CDPTrans@@AAEXAAVCAr@@KKKPAEK@Z$1
__ehfuncinfo$?OnSavePlayer@CDPTrans@@AAEXAAVCAr@@KKKPAEK@Z DD 019930522H
	DD	02H
	DD	FLAT:__unwindtable$?OnSavePlayer@CDPTrans@@AAEXAAVCAr@@KKKPAEK@Z
	DD	2 DUP(00H)
	DD	2 DUP(00H)
	DD	00H
	DD	01H
xdata$x	ENDS
;	COMDAT xdata$x
xdata$x	SEGMENT
__unwindtable$?OnJoin@CDPTrans@@AAEXAAVCAr@@KKKPAEK@Z DD 0ffffffffH
	DD	FLAT:__unwindfunclet$?OnJoin@CDPTrans@@AAEXAAVCAr@@KKKPAEK@Z$0
__ehfuncinfo$?OnJoin@CDPTrans@@AAEXAAVCAr@@KKKPAEK@Z DD 019930522H
	DD	01H
	DD	FLAT:__unwindtable$?OnJoin@CDPTrans@@AAEXAAVCAr@@KKKPAEK@Z
	DD	2 DUP(00H)
	DD	2 DUP(00H)
	DD	00H
	DD	01H
xdata$x	ENDS
;	COMDAT xdata$x
xdata$x	SEGMENT
__unwindtable$?SendEventLuaChanged@CDPTrans@@QAEXXZ DD 0ffffffffH
	DD	FLAT:__unwindfunclet$?SendEventLuaChanged@CDPTrans@@QAEXXZ$0
__ehfuncinfo$?SendEventLuaChanged@CDPTrans@@QAEXXZ DD 019930522H
	DD	01H
	DD	FLAT:__unwindtable$?SendEventLuaChanged@CDPTrans@@QAEXXZ
	DD	2 DUP(00H)
	DD	2 DUP(00H)
	DD	00H
	DD	01H
xdata$x	ENDS
;	COMDAT xdata$x
xdata$x	SEGMENT
__unwindtable$?SendEventLuaState@CDPTrans@@QAEXV?$map@EHU?$less@E@std@@V?$allocator@U?$pair@$$CBEH@std@@@2@@std@@HK@Z DD 0ffffffffH
	DD	FLAT:__unwindfunclet$?SendEventLuaState@CDPTrans@@QAEXV?$map@EHU?$less@E@std@@V?$allocator@U?$pair@$$CBEH@std@@@2@@std@@HK@Z$0
	DD	00H
	DD	FLAT:__unwindfunclet$?SendEventLuaState@CDPTrans@@QAEXV?$map@EHU?$less@E@std@@V?$allocator@U?$pair@$$CBEH@std@@@2@@std@@HK@Z$1
__ehfuncinfo$?SendEventLuaState@CDPTrans@@QAEXV?$map@EHU?$less@E@std@@V?$allocator@U?$pair@$$CBEH@std@@@2@@std@@HK@Z DD 019930522H
	DD	02H
	DD	FLAT:__unwindtable$?SendEventLuaState@CDPTrans@@QAEXV?$map@EHU?$less@E@std@@V?$allocator@U?$pair@$$CBEH@std@@@2@@std@@HK@Z
	DD	2 DUP(00H)
	DD	2 DUP(00H)
	DD	00H
	DD	01H
xdata$x	ENDS
;	COMDAT xdata$x
xdata$x	SEGMENT
__unwindtable$?SendEventGeneric@CDPTrans@@QAEXK@Z DD 0ffffffffH
	DD	FLAT:__unwindfunclet$?SendEventGeneric@CDPTrans@@QAEXK@Z$0
__ehfuncinfo$?SendEventGeneric@CDPTrans@@QAEXK@Z DD 019930522H
	DD	01H
	DD	FLAT:__unwindtable$?SendEventGeneric@CDPTrans@@QAEXK@Z
	DD	2 DUP(00H)
	DD	2 DUP(00H)
	DD	00H
	DD	01H
xdata$x	ENDS
;	COMDAT xdata$x
xdata$x	SEGMENT
__unwindtable$?SendEventFlag@CDPTrans@@QAEXK@Z DD 0ffffffffH
	DD	FLAT:__unwindfunclet$?SendEventFlag@CDPTrans@@QAEXK@Z$0
__ehfuncinfo$?SendEventFlag@CDPTrans@@QAEXK@Z DD 019930522H
	DD	01H
	DD	FLAT:__unwindtable$?SendEventFlag@CDPTrans@@QAEXK@Z
	DD	2 DUP(00H)
	DD	2 DUP(00H)
	DD	00H
	DD	01H
xdata$x	ENDS
;	COMDAT xdata$x
xdata$x	SEGMENT
__unwindtable$?SendReadMail@CDPTrans@@QAEXKK@Z DD 0ffffffffH
	DD	FLAT:__unwindfunclet$?SendReadMail@CDPTrans@@QAEXKK@Z$0
__ehfuncinfo$?SendReadMail@CDPTrans@@QAEXKK@Z DD 019930522H
	DD	01H
	DD	FLAT:__unwindtable$?SendReadMail@CDPTrans@@QAEXKK@Z
	DD	2 DUP(00H)
	DD	2 DUP(00H)
	DD	00H
	DD	01H
xdata$x	ENDS
;	COMDAT xdata$x
xdata$x	SEGMENT
__unwindtable$?SendGetMailGold@CDPTrans@@QAEXKKK@Z DD 0ffffffffH
	DD	FLAT:__unwindfunclet$?SendGetMailGold@CDPTrans@@QAEXKKK@Z$0
__ehfuncinfo$?SendGetMailGold@CDPTrans@@QAEXKKK@Z DD 019930522H
	DD	01H
	DD	FLAT:__unwindtable$?SendGetMailGold@CDPTrans@@QAEXKKK@Z
	DD	2 DUP(00H)
	DD	2 DUP(00H)
	DD	00H
	DD	01H
xdata$x	ENDS
;	COMDAT xdata$x
xdata$x	SEGMENT
__unwindtable$?SendGetMailItem@CDPTrans@@QAEXKKK@Z DD 0ffffffffH
	DD	FLAT:__unwindfunclet$?SendGetMailItem@CDPTrans@@QAEXKKK@Z$0
__ehfuncinfo$?SendGetMailItem@CDPTrans@@QAEXKKK@Z DD 019930522H
	DD	01H
	DD	FLAT:__unwindtable$?SendGetMailItem@CDPTrans@@QAEXKKK@Z
	DD	2 DUP(00H)
	DD	2 DUP(00H)
	DD	00H
	DD	01H
xdata$x	ENDS
;	COMDAT xdata$x
xdata$x	SEGMENT
__unwindtable$?SendRemoveMail@CDPTrans@@QAEXKK@Z DD 0ffffffffH
	DD	FLAT:__unwindfunclet$?SendRemoveMail@CDPTrans@@QAEXKK@Z$0
__ehfuncinfo$?SendRemoveMail@CDPTrans@@QAEXKK@Z DD 019930522H
	DD	01H
	DD	FLAT:__unwindtable$?SendRemoveMail@CDPTrans@@QAEXKK@Z
	DD	2 DUP(00H)
	DD	2 DUP(00H)
	DD	00H
	DD	01H
xdata$x	ENDS
;	COMDAT xdata$x
xdata$x	SEGMENT
__unwindtable$?SendPostMail@CDPTrans@@QAEXHKPAVCMail@@@Z DD 0ffffffffH
	DD	FLAT:__unwindfunclet$?SendPostMail@CDPTrans@@QAEXHKPAVCMail@@@Z$0
__ehfuncinfo$?SendPostMail@CDPTrans@@QAEXHKPAVCMail@@@Z DD 019930522H
	DD	01H
	DD	FLAT:__unwindtable$?SendPostMail@CDPTrans@@QAEXHKPAVCMail@@@Z
	DD	2 DUP(00H)
	DD	2 DUP(00H)
	DD	00H
	DD	01H
xdata$x	ENDS
;	COMDAT xdata$x
xdata$x	SEGMENT
__unwindtable$?SendAllMail@CDPTrans@@QAEXK@Z DD 0ffffffffH
	DD	FLAT:__unwindfunclet$?SendAllMail@CDPTrans@@QAEXK@Z$0
__ehfuncinfo$?SendAllMail@CDPTrans@@QAEXK@Z DD 019930522H
	DD	01H
	DD	FLAT:__unwindtable$?SendAllMail@CDPTrans@@QAEXK@Z
	DD	2 DUP(00H)
	DD	2 DUP(00H)
	DD	00H
	DD	01H
xdata$x	ENDS
;	COMDAT xdata$x
xdata$x	SEGMENT
__unwindtable$?SendMailBox@CDPTrans@@QAEXPAVCMailBox@@K@Z DD 0ffffffffH
	DD	FLAT:__unwindfunclet$?SendMailBox@CDPTrans@@QAEXPAVCMailBox@@K@Z$0
__ehfuncinfo$?SendMailBox@CDPTrans@@QAEXPAVCMailBox@@K@Z DD 019930522H
	DD	01H
	DD	FLAT:__unwindtable$?SendMailBox@CDPTrans@@QAEXPAVCMailBox@@K@Z
	DD	2 DUP(00H)
	DD	2 DUP(00H)
	DD	00H
	DD	01H
xdata$x	ENDS
;	COMDAT xdata$x
xdata$x	SEGMENT
__unwindtable$?SendMailBoxReq@CDPTrans@@QAEXKKHPAVCMailBox@@@Z DD 0ffffffffH
	DD	FLAT:__unwindfunclet$?SendMailBoxReq@CDPTrans@@QAEXKKHPAVCMailBox@@@Z$0
__ehfuncinfo$?SendMailBoxReq@CDPTrans@@QAEXKKHPAVCMailBox@@@Z DD 019930522H
	DD	01H
	DD	FLAT:__unwindtable$?SendMailBoxReq@CDPTrans@@QAEXKKHPAVCMailBox@@@Z
	DD	2 DUP(00H)
	DD	2 DUP(00H)
	DD	00H
	DD	01H
xdata$x	ENDS
;	COMDAT xdata$x
xdata$x	SEGMENT
__unwindtable$?OnQueryMailBoxReq@CDPTrans@@QAEXAAVCAr@@KKKPAEK@Z DD 0ffffffffH
	DD	FLAT:__unwindfunclet$?OnQueryMailBoxReq@CDPTrans@@QAEXAAVCAr@@KKKPAEK@Z$0
__ehfuncinfo$?OnQueryMailBoxReq@CDPTrans@@QAEXAAVCAr@@KKKPAEK@Z DD 019930522H
	DD	01H
	DD	FLAT:__unwindtable$?OnQueryMailBoxReq@CDPTrans@@QAEXAAVCAr@@KKKPAEK@Z
	DD	2 DUP(00H)
	DD	2 DUP(00H)
	DD	00H
	DD	01H
xdata$x	ENDS
;	COMDAT xdata$x
xdata$x	SEGMENT
__unwindtable$?OnQueryMailBoxCount@CDPTrans@@QAEXAAVCAr@@KKKPAEK@Z DD 0ffffffffH
	DD	FLAT:__unwindfunclet$?OnQueryMailBoxCount@CDPTrans@@QAEXAAVCAr@@KKKPAEK@Z$0
__ehfuncinfo$?OnQueryMailBoxCount@CDPTrans@@QAEXAAVCAr@@KKKPAEK@Z DD 019930522H
	DD	01H
	DD	FLAT:__unwindtable$?OnQueryMailBoxCount@CDPTrans@@QAEXAAVCAr@@KKKPAEK@Z
	DD	2 DUP(00H)
	DD	2 DUP(00H)
	DD	00H
	DD	01H
xdata$x	ENDS
;	COMDAT xdata$x
xdata$x	SEGMENT
__unwindtable$?SendGC1to1TenderGuild@CDPTrans@@QAEXAAV?$vector@U__GC1TO1TENDER@CGuildCombat1to1Mng@@V?$allocator@U__GC1TO1TENDER@CGuildCombat1to1Mng@@@std@@@std@@0K@Z DD 0ffffffffH
	DD	FLAT:__unwindfunclet$?SendGC1to1TenderGuild@CDPTrans@@QAEXAAV?$vector@U__GC1TO1TENDER@CGuildCombat1to1Mng@@V?$allocator@U__GC1TO1TENDER@CGuildCombat1to1Mng@@@std@@@std@@0K@Z$0
__ehfuncinfo$?SendGC1to1TenderGuild@CDPTrans@@QAEXAAV?$vector@U__GC1TO1TENDER@CGuildCombat1to1Mng@@V?$allocator@U__GC1TO1TENDER@CGuildCombat1to1Mng@@@std@@@std@@0K@Z DD 019930522H
	DD	01H
	DD	FLAT:__unwindtable$?SendGC1to1TenderGuild@CDPTrans@@QAEXAAV?$vector@U__GC1TO1TENDER@CGuildCombat1to1Mng@@V?$allocator@U__GC1TO1TENDER@CGuildCombat1to1Mng@@@std@@@std@@0K@Z
	DD	2 DUP(00H)
	DD	2 DUP(00H)
	DD	00H
	DD	01H
xdata$x	ENDS
;	COMDAT xdata$x
xdata$x	SEGMENT
__unwindtable$?SendGC1to1Open@CDPTrans@@QAEXXZ DD 0ffffffffH
	DD	FLAT:__unwindfunclet$?SendGC1to1Open@CDPTrans@@QAEXXZ$0
__ehfuncinfo$?SendGC1to1Open@CDPTrans@@QAEXXZ DD 019930522H
	DD	01H
	DD	FLAT:__unwindtable$?SendGC1to1Open@CDPTrans@@QAEXXZ
	DD	2 DUP(00H)
	DD	2 DUP(00H)
	DD	00H
	DD	01H
xdata$x	ENDS
;	COMDAT xdata$x
xdata$x	SEGMENT
__unwindtable$?SendGMChat@CDPTrans@@QAEXH@Z DD 0ffffffffH
	DD	FLAT:__unwindfunclet$?SendGMChat@CDPTrans@@QAEXH@Z$0
__ehfuncinfo$?SendGMChat@CDPTrans@@QAEXH@Z DD 019930522H
	DD	01H
	DD	FLAT:__unwindtable$?SendGMChat@CDPTrans@@QAEXH@Z
	DD	2 DUP(00H)
	DD	2 DUP(00H)
	DD	00H
	DD	01H
xdata$x	ENDS
;	COMDAT xdata$x
xdata$x	SEGMENT
__unwindtable$?SendMonsterPropSetting@CDPTrans@@QAEXHK@Z DD 0ffffffffH
	DD	FLAT:__unwindfunclet$?SendMonsterPropSetting@CDPTrans@@QAEXHK@Z$0
__ehfuncinfo$?SendMonsterPropSetting@CDPTrans@@QAEXHK@Z DD 019930522H
	DD	01H
	DD	FLAT:__unwindtable$?SendMonsterPropSetting@CDPTrans@@QAEXHK@Z
	DD	2 DUP(00H)
	DD	2 DUP(00H)
	DD	00H
	DD	01H
xdata$x	ENDS
;	COMDAT xdata$x
xdata$x	SEGMENT
__unwindtable$?SendMonsterRespawnSetting@CDPTrans@@QAEXHQAHK@Z DD 0ffffffffH
	DD	FLAT:__unwindfunclet$?SendMonsterRespawnSetting@CDPTrans@@QAEXHQAHK@Z$0
__ehfuncinfo$?SendMonsterRespawnSetting@CDPTrans@@QAEXHQAHK@Z DD 019930522H
	DD	01H
	DD	FLAT:__unwindtable$?SendMonsterRespawnSetting@CDPTrans@@QAEXHQAHK@Z
	DD	2 DUP(00H)
	DD	2 DUP(00H)
	DD	00H
	DD	01H
xdata$x	ENDS
;	COMDAT xdata$x
xdata$x	SEGMENT
__unwindtable$?SendBaseGameSetting@CDPTrans@@QAEXHK@Z DD 0ffffffffH
	DD	FLAT:__unwindfunclet$?SendBaseGameSetting@CDPTrans@@QAEXHK@Z$0
__ehfuncinfo$?SendBaseGameSetting@CDPTrans@@QAEXHK@Z DD 019930522H
	DD	01H
	DD	FLAT:__unwindtable$?SendBaseGameSetting@CDPTrans@@QAEXHK@Z
	DD	2 DUP(00H)
	DD	2 DUP(00H)
	DD	00H
	DD	01H
xdata$x	ENDS
;	COMDAT xdata$x
xdata$x	SEGMENT
__unwindtable$?SendHdr@CDPTrans@@QAEXKK@Z DD 0ffffffffH
	DD	FLAT:__unwindfunclet$?SendHdr@CDPTrans@@QAEXKK@Z$0
__ehfuncinfo$?SendHdr@CDPTrans@@QAEXKK@Z DD 019930522H
	DD	01H
	DD	FLAT:__unwindtable$?SendHdr@CDPTrans@@QAEXKK@Z
	DD	2 DUP(00H)
	DD	2 DUP(00H)
	DD	00H
	DD	01H
xdata$x	ENDS
;	COMDAT xdata$x
xdata$x	SEGMENT
__unwindtable$?SendUpdatePlayerData@CDPTrans@@QAEXKPAU_PlayerData@@@Z DD 0ffffffffH
	DD	FLAT:__unwindfunclet$?SendUpdatePlayerData@CDPTrans@@QAEXKPAU_PlayerData@@@Z$0
__ehfuncinfo$?SendUpdatePlayerData@CDPTrans@@QAEXKPAU_PlayerData@@@Z DD 019930522H
	DD	01H
	DD	FLAT:__unwindtable$?SendUpdatePlayerData@CDPTrans@@QAEXKPAU_PlayerData@@@Z
	DD	2 DUP(00H)
	DD	2 DUP(00H)
	DD	00H
	DD	01H
xdata$x	ENDS
;	COMDAT xdata$x
xdata$x	SEGMENT
__unwindtable$?SendDeletePlayerData@CDPTrans@@QAEXK@Z DD 0ffffffffH
	DD	FLAT:__unwindfunclet$?SendDeletePlayerData@CDPTrans@@QAEXK@Z$0
__ehfuncinfo$?SendDeletePlayerData@CDPTrans@@QAEXK@Z DD 019930522H
	DD	01H
	DD	FLAT:__unwindtable$?SendDeletePlayerData@CDPTrans@@QAEXK@Z
	DD	2 DUP(00H)
	DD	2 DUP(00H)
	DD	00H
	DD	01H
xdata$x	ENDS
;	COMDAT xdata$x
xdata$x	SEGMENT
__unwindtable$?SendAddPlayerData@CDPTrans@@QAEXKPAU_PlayerData@@@Z DD 0ffffffffH
	DD	FLAT:__unwindfunclet$?SendAddPlayerData@CDPTrans@@QAEXKPAU_PlayerData@@@Z$0
__ehfuncinfo$?SendAddPlayerData@CDPTrans@@QAEXKPAU_PlayerData@@@Z DD 019930522H
	DD	01H
	DD	FLAT:__unwindtable$?SendAddPlayerData@CDPTrans@@QAEXKPAU_PlayerData@@@Z
	DD	2 DUP(00H)
	DD	2 DUP(00H)
	DD	00H
	DD	01H
xdata$x	ENDS
;	COMDAT xdata$x
xdata$x	SEGMENT
__unwindtable$?SendAllPlayerData@CDPTrans@@QAEXK@Z DD 0ffffffffH
	DD	FLAT:__unwindfunclet$?SendAllPlayerData@CDPTrans@@QAEXK@Z$0
__ehfuncinfo$?SendAllPlayerData@CDPTrans@@QAEXK@Z DD 019930522H
	DD	01H
	DD	FLAT:__unwindtable$?SendAllPlayerData@CDPTrans@@QAEXK@Z
	DD	2 DUP(00H)
	DD	2 DUP(00H)
	DD	00H
	DD	01H
xdata$x	ENDS
;	COMDAT xdata$x
xdata$x	SEGMENT
__unwindtable$?GetInstance@CDPTrans@@SAPAV1@XZ DD 0ffffffffH
	DD	FLAT:__unwindfunclet$?GetInstance@CDPTrans@@SAPAV1@XZ$0
__ehfuncinfo$?GetInstance@CDPTrans@@SAPAV1@XZ DD 019930522H
	DD	01H
	DD	FLAT:__unwindtable$?GetInstance@CDPTrans@@SAPAV1@XZ
	DD	2 DUP(00H)
	DD	2 DUP(00H)
	DD	00H
	DD	01H
xdata$x	ENDS
;	COMDAT xdata$x
xdata$x	SEGMENT
__unwindtable$?SendAllGuildCombat@CDPTrans@@QAEXK@Z DD 0ffffffffH
	DD	FLAT:__unwindfunclet$?SendAllGuildCombat@CDPTrans@@QAEXK@Z$0
__ehfuncinfo$?SendAllGuildCombat@CDPTrans@@QAEXK@Z DD 019930522H
	DD	01H
	DD	FLAT:__unwindtable$?SendAllGuildCombat@CDPTrans@@QAEXK@Z
	DD	2 DUP(00H)
	DD	2 DUP(00H)
	DD	00H
	DD	01H
xdata$x	ENDS
;	COMDAT xdata$x
xdata$x	SEGMENT
__unwindtable$?UserMessageHandler@CDPTrans@@UAEXPAUDPMSG_GENERIC@@KK@Z DD 0ffffffffH
	DD	FLAT:__unwindfunclet$?UserMessageHandler@CDPTrans@@UAEXPAUDPMSG_GENERIC@@KK@Z$0
__ehfuncinfo$?UserMessageHandler@CDPTrans@@UAEXPAUDPMSG_GENERIC@@KK@Z DD 019930522H
	DD	01H
	DD	FLAT:__unwindtable$?UserMessageHandler@CDPTrans@@UAEXPAUDPMSG_GENERIC@@KK@Z
	DD	2 DUP(00H)
	DD	2 DUP(00H)
	DD	00H
	DD	01H
xdata$x	ENDS
;	COMDAT xdata$x
xdata$x	SEGMENT
__unwindtable$?SysMessageHandler@CDPTrans@@UAEXPAUDPMSG_GENERIC@@KK@Z DD 0ffffffffH
	DD	FLAT:__unwindfunclet$?SysMessageHandler@CDPTrans@@UAEXPAUDPMSG_GENERIC@@KK@Z$0
	DD	00H
	DD	FLAT:__unwindfunclet$?SysMessageHandler@CDPTrans@@UAEXPAUDPMSG_GENERIC@@KK@Z$1
	DD	01H
	DD	FLAT:__unwindfunclet$?SysMessageHandler@CDPTrans@@UAEXPAUDPMSG_GENERIC@@KK@Z$5
__ehfuncinfo$?SysMessageHandler@CDPTrans@@UAEXPAUDPMSG_GENERIC@@KK@Z DD 019930522H
	DD	03H
	DD	FLAT:__unwindtable$?SysMessageHandler@CDPTrans@@UAEXPAUDPMSG_GENERIC@@KK@Z
	DD	2 DUP(00H)
	DD	2 DUP(00H)
	DD	00H
	DD	01H
xdata$x	ENDS
;	COMDAT xdata$x
xdata$x	SEGMENT
__ehfuncinfo$??0CDPTrans@@QAE@XZ DD 019930522H
	DD	0bH
	DD	FLAT:__unwindtable$??0CDPTrans@@QAE@XZ
	DD	2 DUP(00H)
	DD	2 DUP(00H)
	DD	00H
	DD	01H
__unwindtable$??0CDPTrans@@QAE@XZ DD 0ffffffffH
	DD	FLAT:__unwindfunclet$??0CDPTrans@@QAE@XZ$0
	DD	00H
	DD	FLAT:__unwindfunclet$??0CDPTrans@@QAE@XZ$1
	DD	01H
	DD	FLAT:__unwindfunclet$??0CDPTrans@@QAE@XZ$5
	DD	01H
	DD	FLAT:__unwindfunclet$??0CDPTrans@@QAE@XZ$10
	DD	01H
	DD	FLAT:__unwindfunclet$??0CDPTrans@@QAE@XZ$15
	DD	01H
	DD	FLAT:__unwindfunclet$??0CDPTrans@@QAE@XZ$20
	DD	01H
	DD	FLAT:__unwindfunclet$??0CDPTrans@@QAE@XZ$25
	DD	01H
	DD	FLAT:__unwindfunclet$??0CDPTrans@@QAE@XZ$30
	DD	01H
	DD	FLAT:__unwindfunclet$??0CDPTrans@@QAE@XZ$35
	DD	01H
	DD	FLAT:__unwindfunclet$??0CDPTrans@@QAE@XZ$40
	DD	01H
	DD	FLAT:__unwindfunclet$??0CDPTrans@@QAE@XZ$45
xdata$x	ENDS
;	COMDAT xdata$x
xdata$x	SEGMENT
__unwindtable$??$?0ABQAX@?$_List_node_emplace_op2@V?$allocator@U?$_List_node@PAXPAX@std@@@std@@@std@@QAE@AAV?$allocator@U?$_List_node@PAXPAX@std@@@1@ABQAX@Z DD 0ffffffffH
	DD	FLAT:__unwindfunclet$??$?0ABQAX@?$_List_node_emplace_op2@V?$allocator@U?$_List_node@PAXPAX@std@@@std@@@std@@QAE@AAV?$allocator@U?$_List_node@PAXPAX@std@@@1@ABQAX@Z$0
__ehfuncinfo$??$?0ABQAX@?$_List_node_emplace_op2@V?$allocator@U?$_List_node@PAXPAX@std@@@std@@@std@@QAE@AAV?$allocator@U?$_List_node@PAXPAX@std@@@1@ABQAX@Z DD 019930522H
	DD	01H
	DD	FLAT:__unwindtable$??$?0ABQAX@?$_List_node_emplace_op2@V?$allocator@U?$_List_node@PAXPAX@std@@@std@@@std@@QAE@AAV?$allocator@U?$_List_node@PAXPAX@std@@@1@ABQAX@Z
	DD	2 DUP(00H)
	DD	2 DUP(00H)
	DD	00H
	DD	01H
xdata$x	ENDS
;	COMDAT xdata$x
xdata$x	SEGMENT
__unwindtable$??$_Emplace@ABQAX@?$list@PAXV?$allocator@PAX@std@@@std@@QAEPAU?$_List_node@PAXPAX@1@QAU21@ABQAX@Z DD 0ffffffffH
	DD	FLAT:__unwindfunclet$??$_Emplace@ABQAX@?$list@PAXV?$allocator@PAX@std@@@std@@QAEPAU?$_List_node@PAXPAX@1@QAU21@ABQAX@Z$1
__ehfuncinfo$??$_Emplace@ABQAX@?$list@PAXV?$allocator@PAX@std@@@std@@QAEPAU?$_List_node@PAXPAX@1@QAU21@ABQAX@Z DD 019930522H
	DD	01H
	DD	FLAT:__unwindtable$??$_Emplace@ABQAX@?$list@PAXV?$allocator@PAX@std@@@std@@QAEPAU?$_List_node@PAXPAX@1@QAU21@ABQAX@Z
	DD	2 DUP(00H)
	DD	2 DUP(00H)
	DD	00H
	DD	01H
xdata$x	ENDS
;	COMDAT xdata$x
xdata$x	SEGMENT
__unwindtable$?push_back@?$list@PAXV?$allocator@PAX@std@@@std@@QAEXABQAX@Z DD 0ffffffffH
	DD	FLAT:__unwindfunclet$?push_back@?$list@PAXV?$allocator@PAX@std@@@std@@QAEXABQAX@Z$1
__ehfuncinfo$?push_back@?$list@PAXV?$allocator@PAX@std@@@std@@QAEXABQAX@Z DD 019930522H
	DD	01H
	DD	FLAT:__unwindtable$?push_back@?$list@PAXV?$allocator@PAX@std@@@std@@QAEXABQAX@Z
	DD	2 DUP(00H)
	DD	2 DUP(00H)
	DD	00H
	DD	01H
xdata$x	ENDS
;	COMDAT xdata$x
xdata$x	SEGMENT
__unwindtable$??0?$map@EHU?$less@E@std@@V?$allocator@U?$pair@$$CBEH@std@@@2@@std@@QAE@ABV01@@Z DD 0ffffffffH
	DD	FLAT:__unwindfunclet$??0?$map@EHU?$less@E@std@@V?$allocator@U?$pair@$$CBEH@std@@@2@@std@@QAE@ABV01@@Z$1
__ehfuncinfo$??0?$map@EHU?$less@E@std@@V?$allocator@U?$pair@$$CBEH@std@@@2@@std@@QAE@ABV01@@Z DD 019930522H
	DD	01H
	DD	FLAT:__unwindtable$??0?$map@EHU?$less@E@std@@V?$allocator@U?$pair@$$CBEH@std@@@2@@std@@QAE@ABV01@@Z
	DD	2 DUP(00H)
	DD	2 DUP(00H)
	DD	00H
	DD	01H
xdata$x	ENDS
; Function compile flags: /Ogtp
; File C:\Program Files\Microsoft Visual Studio\2022\Professional\VC\Tools\MSVC\14.44.35207\include\xtree
; File C:\Program Files\Microsoft Visual Studio\2022\Professional\VC\Tools\MSVC\14.44.35207\include\utility
; File C:\Program Files\Microsoft Visual Studio\2022\Professional\VC\Tools\MSVC\14.44.35207\include\xmemory
; File C:\Program Files\Microsoft Visual Studio\2022\Professional\VC\Tools\MSVC\14.44.35207\include\xtree
;	COMDAT ??$_Erase_tree_and_orphan@V?$allocator@U?$_Tree_node@U?$pair@$$CBEH@std@@PAX@std@@@std@@@?$_Tree_val@U?$_Tree_simple_types@U?$pair@$$CBEH@std@@@std@@@std@@QAEXAAV?$allocator@U?$_Tree_node@U?$pair@$$CBEH@std@@PAX@std@@@1@PAU?$_Tree_node@U?$pair@$$CBEH@std@@PAX@1@@Z
_TEXT	SEGMENT
__Al$ = 8						; size = 4
__Rootnode$ = 12					; size = 4
??$_Erase_tree_and_orphan@V?$allocator@U?$_Tree_node@U?$pair@$$CBEH@std@@PAX@std@@@std@@@?$_Tree_val@U?$_Tree_simple_types@U?$pair@$$CBEH@std@@@std@@@std@@QAEXAAV?$allocator@U?$_Tree_node@U?$pair@$$CBEH@std@@PAX@std@@@1@PAU?$_Tree_node@U?$pair@$$CBEH@std@@PAX@1@@Z PROC ; std::_Tree_val<std::_Tree_simple_types<std::pair<unsigned char const ,int> > >::_Erase_tree_and_orphan<std::allocator<std::_Tree_node<std::pair<unsigned char const ,int>,void *> > >, COMDAT
; _this$ = ecx

; 757  :     void _Erase_tree_and_orphan(_Alnode& _Al, _Nodeptr _Rootnode) noexcept {

  00000	55		 push	 ebp
  00001	8b ec		 mov	 ebp, esp
  00003	53		 push	 ebx
  00004	56		 push	 esi

; 758  :         while (!_Rootnode->_Isnil) { // free subtrees, then node

  00005	8b 75 0c	 mov	 esi, DWORD PTR __Rootnode$[ebp]
  00008	8b d9		 mov	 ebx, ecx
  0000a	80 7e 0d 00	 cmp	 BYTE PTR [esi+13], 0
  0000e	75 25		 jne	 SHORT $LN34@Erase_tree
  00010	57		 push	 edi
  00011	8b 7d 08	 mov	 edi, DWORD PTR __Al$[ebp]
$LL2@Erase_tree:

; 759  :             _Erase_tree_and_orphan(_Al, _Rootnode->_Right);

  00014	ff 76 08	 push	 DWORD PTR [esi+8]
  00017	8b cb		 mov	 ecx, ebx
  00019	57		 push	 edi
  0001a	e8 00 00 00 00	 call	 ??$_Erase_tree_and_orphan@V?$allocator@U?$_Tree_node@U?$pair@$$CBEH@std@@PAX@std@@@std@@@?$_Tree_val@U?$_Tree_simple_types@U?$pair@$$CBEH@std@@@std@@@std@@QAEXAAV?$allocator@U?$_Tree_node@U?$pair@$$CBEH@std@@PAX@std@@@1@PAU?$_Tree_node@U?$pair@$$CBEH@std@@PAX@1@@Z ; std::_Tree_val<std::_Tree_simple_types<std::pair<unsigned char const ,int> > >::_Erase_tree_and_orphan<std::allocator<std::_Tree_node<std::pair<unsigned char const ,int>,void *> > >
; File C:\Program Files\Microsoft Visual Studio\2022\Professional\VC\Tools\MSVC\14.44.35207\include\utility

; 773  :     _Ty _Old_val = static_cast<_Ty&&>(_Val);

  0001f	8b c6		 mov	 eax, esi

; 774  :     _Val         = static_cast<_Other&&>(_New_val);

  00021	8b 36		 mov	 esi, DWORD PTR [esi]
; File C:\Program Files\Microsoft Visual Studio\2022\Professional\VC\Tools\MSVC\14.44.35207\include\xmemory

; 289  :         ::operator delete(_Ptr, _Bytes);

  00023	6a 18		 push	 24			; 00000018H
  00025	50		 push	 eax
  00026	e8 00 00 00 00	 call	 ??3@YAXPAXI@Z		; operator delete
  0002b	83 c4 08	 add	 esp, 8
; File C:\Program Files\Microsoft Visual Studio\2022\Professional\VC\Tools\MSVC\14.44.35207\include\xtree

; 758  :         while (!_Rootnode->_Isnil) { // free subtrees, then node

  0002e	80 7e 0d 00	 cmp	 BYTE PTR [esi+13], 0
  00032	74 e0		 je	 SHORT $LL2@Erase_tree
  00034	5f		 pop	 edi
$LN34@Erase_tree:
  00035	5e		 pop	 esi

; 760  :             auto _To_delete = _STD exchange(_Rootnode, _Rootnode->_Left);
; 761  :             _Orphan_ptr(_To_delete);
; 762  :             _Alnode::value_type::_Freenode(_Al, _To_delete);
; 763  :         }
; 764  :     }

  00036	5b		 pop	 ebx
  00037	5d		 pop	 ebp
  00038	c2 08 00	 ret	 8
??$_Erase_tree_and_orphan@V?$allocator@U?$_Tree_node@U?$pair@$$CBEH@std@@PAX@std@@@std@@@?$_Tree_val@U?$_Tree_simple_types@U?$pair@$$CBEH@std@@@std@@@std@@QAEXAAV?$allocator@U?$_Tree_node@U?$pair@$$CBEH@std@@PAX@std@@@1@PAU?$_Tree_node@U?$pair@$$CBEH@std@@PAX@1@@Z ENDP ; std::_Tree_val<std::_Tree_simple_types<std::pair<unsigned char const ,int> > >::_Erase_tree_and_orphan<std::allocator<std::_Tree_node<std::pair<unsigned char const ,int>,void *> > >
_TEXT	ENDS
; Function compile flags: /Ogtp
; File C:\Program Files\Microsoft Visual Studio\2022\Professional\VC\Tools\MSVC\14.44.35207\include\xtree
;	COMDAT ??1?$_Erase_tree_and_orphan_guard@V?$allocator@U?$_Tree_node@U?$pair@$$CBEH@std@@PAX@std@@@std@@@?$_Tree_val@U?$_Tree_simple_types@U?$pair@$$CBEH@std@@@std@@@std@@QAE@XZ
_TEXT	SEGMENT
??1?$_Erase_tree_and_orphan_guard@V?$allocator@U?$_Tree_node@U?$pair@$$CBEH@std@@PAX@std@@@std@@@?$_Tree_val@U?$_Tree_simple_types@U?$pair@$$CBEH@std@@@std@@@std@@QAE@XZ PROC ; std::_Tree_val<std::_Tree_simple_types<std::pair<unsigned char const ,int> > >::_Erase_tree_and_orphan_guard<std::allocator<std::_Tree_node<std::pair<unsigned char const ,int>,void *> > >::~_Erase_tree_and_orphan_guard<std::allocator<std::_Tree_node<std::pair<unsigned char const ,int>,void *> > >, COMDAT
; _this$ = ecx

; 444  :             if (_Val_ptr != nullptr) {

  00000	8b 01		 mov	 eax, DWORD PTR [ecx]
  00002	85 c0		 test	 eax, eax
  00004	74 0d		 je	 SHORT $LN2@Erase_tree

; 445  :                 _Val_ptr->_Erase_tree_and_orphan(_Al, _New_root); // subtree copy failed, bail out

  00006	ff 71 08	 push	 DWORD PTR [ecx+8]
  00009	ff 71 04	 push	 DWORD PTR [ecx+4]
  0000c	8b c8		 mov	 ecx, eax
  0000e	e8 00 00 00 00	 call	 ??$_Erase_tree_and_orphan@V?$allocator@U?$_Tree_node@U?$pair@$$CBEH@std@@PAX@std@@@std@@@?$_Tree_val@U?$_Tree_simple_types@U?$pair@$$CBEH@std@@@std@@@std@@QAEXAAV?$allocator@U?$_Tree_node@U?$pair@$$CBEH@std@@PAX@std@@@1@PAU?$_Tree_node@U?$pair@$$CBEH@std@@PAX@1@@Z ; std::_Tree_val<std::_Tree_simple_types<std::pair<unsigned char const ,int> > >::_Erase_tree_and_orphan<std::allocator<std::_Tree_node<std::pair<unsigned char const ,int>,void *> > >
$LN2@Erase_tree:

; 446  :             }
; 447  :         }

  00013	c3		 ret	 0
??1?$_Erase_tree_and_orphan_guard@V?$allocator@U?$_Tree_node@U?$pair@$$CBEH@std@@PAX@std@@@std@@@?$_Tree_val@U?$_Tree_simple_types@U?$pair@$$CBEH@std@@@std@@@std@@QAE@XZ ENDP ; std::_Tree_val<std::_Tree_simple_types<std::pair<unsigned char const ,int> > >::_Erase_tree_and_orphan_guard<std::allocator<std::_Tree_node<std::pair<unsigned char const ,int>,void *> > >::~_Erase_tree_and_orphan_guard<std::allocator<std::_Tree_node<std::pair<unsigned char const ,int>,void *> > >
_TEXT	ENDS
; Function compile flags: /Ogtp
; File C:\Program Files\Microsoft Visual Studio\2022\Professional\VC\Tools\MSVC\14.44.35207\include\xtree
; File C:\Program Files\Microsoft Visual Studio\2022\Professional\VC\Tools\MSVC\14.44.35207\include\xmemory
; File C:\Program Files\Microsoft Visual Studio\2022\Professional\VC\Tools\MSVC\14.44.35207\include\xtree
; File C:\Program Files\Microsoft Visual Studio\2022\Professional\VC\Tools\MSVC\14.44.35207\include\xmemory
; File C:\Program Files\Microsoft Visual Studio\2022\Professional\VC\Tools\MSVC\14.44.35207\include\xtree
; File C:\Program Files\Microsoft Visual Studio\2022\Professional\VC\Tools\MSVC\14.44.35207\include\xmemory
; File C:\Program Files\Microsoft Visual Studio\2022\Professional\VC\Tools\MSVC\14.44.35207\include\xtree
; File C:\Program Files\Microsoft Visual Studio\2022\Professional\VC\Tools\MSVC\14.44.35207\include\xmemory
; File C:\Program Files\Microsoft Visual Studio\2022\Professional\VC\Tools\MSVC\14.44.35207\include\xtree
;	COMDAT ??$_Copy_nodes@$0A@@?$_Tree@V?$_Tmap_traits@EHU?$less@E@std@@V?$allocator@U?$pair@$$CBEH@std@@@2@$0A@@std@@@std@@IAEPAU?$_Tree_node@U?$pair@$$CBEH@std@@PAX@1@PAU21@0@Z
_TEXT	SEGMENT
__Guard$2 = -28						; size = 12
__Newnode$3 = -24					; size = 8
__Myhead$1$ = -16					; size = 4
__$EHRec$ = -12						; size = 12
__Rootnode$ = 8						; size = 4
__Wherenode$ = 12					; size = 4
??$_Copy_nodes@$0A@@?$_Tree@V?$_Tmap_traits@EHU?$less@E@std@@V?$allocator@U?$pair@$$CBEH@std@@@2@$0A@@std@@@std@@IAEPAU?$_Tree_node@U?$pair@$$CBEH@std@@PAX@1@PAU21@0@Z PROC ; std::_Tree<std::_Tmap_traits<unsigned char,int,std::less<unsigned char>,std::allocator<std::pair<unsigned char const ,int> >,0> >::_Copy_nodes<0>, COMDAT
; _this$ = ecx

; 1682 :     _Nodeptr _Copy_nodes(_Nodeptr _Rootnode, _Nodeptr _Wherenode) {

  00000	55		 push	 ebp
  00001	8b ec		 mov	 ebp, esp
  00003	6a ff		 push	 -1
  00005	68 00 00 00 00	 push	 __ehhandler$??$_Copy_nodes@$0A@@?$_Tree@V?$_Tmap_traits@EHU?$less@E@std@@V?$allocator@U?$pair@$$CBEH@std@@@2@$0A@@std@@@std@@IAEPAU?$_Tree_node@U?$pair@$$CBEH@std@@PAX@1@PAU21@0@Z
  0000a	64 a1 00 00 00
	00		 mov	 eax, DWORD PTR fs:0
  00010	50		 push	 eax
  00011	83 ec 10	 sub	 esp, 16			; 00000010H
  00014	53		 push	 ebx
  00015	56		 push	 esi
  00016	57		 push	 edi
  00017	a1 00 00 00 00	 mov	 eax, DWORD PTR ___security_cookie
  0001c	33 c5		 xor	 eax, ebp
  0001e	50		 push	 eax
  0001f	8d 45 f4	 lea	 eax, DWORD PTR __$EHRec$[ebp]
  00022	64 a3 00 00 00
	00		 mov	 DWORD PTR fs:0, eax
  00028	8b f9		 mov	 edi, ecx

; 1683 :         // copy entire subtree, recursively
; 1684 :         const auto _Scary = _Get_scary();
; 1685 :         _Nodeptr _Newroot = _Scary->_Myhead; // point at nil node
; 1686 : 
; 1687 :         if (!_Rootnode->_Isnil) { // copy or move a node, then any subtrees

  0002a	8b 5d 08	 mov	 ebx, DWORD PTR __Rootnode$[ebp]
  0002d	8b 07		 mov	 eax, DWORD PTR [edi]
  0002f	89 45 f0	 mov	 DWORD PTR __Myhead$1$[ebp], eax
  00032	80 7b 0d 00	 cmp	 BYTE PTR [ebx+13], 0
  00036	75 6f		 jne	 SHORT $LN58@Copy_nodes
; File C:\Program Files\Microsoft Visual Studio\2022\Professional\VC\Tools\MSVC\14.44.35207\include\xmemory

; 1160 :     _CONSTEXPR20 explicit _Alloc_construct_ptr(_Alloc& _Al_) : _Al(_Al_), _Ptr(nullptr) {}

  00038	89 7d e8	 mov	 DWORD PTR __Newnode$3[ebp], edi

; 136  :         return ::operator new(_Bytes);

  0003b	6a 18		 push	 24			; 00000018H
; File C:\Program Files\Microsoft Visual Studio\2022\Professional\VC\Tools\MSVC\14.44.35207\include\xtree

; 358  :         _Alloc_construct_ptr<_Alloc> _Newnode(_Al);

  0003d	c7 45 fc 00 00
	00 00		 mov	 DWORD PTR __$EHRec$[ebp+8], 0
; File C:\Program Files\Microsoft Visual Studio\2022\Professional\VC\Tools\MSVC\14.44.35207\include\xmemory

; 1167 :         _Ptr = nullptr; // if allocate throws, prevents double-free

  00044	c7 45 ec 00 00
	00 00		 mov	 DWORD PTR __Newnode$3[ebp+4], 0

; 136  :         return ::operator new(_Bytes);

  0004b	e8 00 00 00 00	 call	 ??2@YAPAXI@Z		; operator new
; File C:\Program Files\Microsoft Visual Studio\2022\Professional\VC\Tools\MSVC\14.44.35207\include\xtree

; 360  :         allocator_traits<_Alloc>::construct(_Al, _STD addressof(_Newnode._Ptr->_Myval), _STD forward<_Valty>(_Val)...);

  00050	8b 4b 14	 mov	 ecx, DWORD PTR [ebx+20]
; File C:\Program Files\Microsoft Visual Studio\2022\Professional\VC\Tools\MSVC\14.44.35207\include\xmemory

; 256  :         return _Traits::_Allocate(_Bytes);

  00053	8b f0		 mov	 esi, eax
; File C:\Program Files\Microsoft Visual Studio\2022\Professional\VC\Tools\MSVC\14.44.35207\include\xtree

; 360  :         allocator_traits<_Alloc>::construct(_Al, _STD addressof(_Newnode._Ptr->_Myval), _STD forward<_Valty>(_Val)...);

  00055	8b 43 10	 mov	 eax, DWORD PTR [ebx+16]
; File C:\Program Files\Microsoft Visual Studio\2022\Professional\VC\Tools\MSVC\14.44.35207\include\xmemory

; 136  :         return ::operator new(_Bytes);

  00058	83 c4 04	 add	 esp, 4
; File C:\Program Files\Microsoft Visual Studio\2022\Professional\VC\Tools\MSVC\14.44.35207\include\xtree

; 1692 :             typename _Scary_val::template _Erase_tree_and_orphan_guard<_Alnode> _Guard{_Scary, _Getal(), _Newroot};

  0005b	89 7d e4	 mov	 DWORD PTR __Guard$2[ebp], edi
  0005e	89 7d e8	 mov	 DWORD PTR __Guard$2[ebp+4], edi

; 360  :         allocator_traits<_Alloc>::construct(_Al, _STD addressof(_Newnode._Ptr->_Myval), _STD forward<_Valty>(_Val)...);

  00061	89 46 10	 mov	 DWORD PTR [esi+16], eax

; 361  :         _Construct_in_place(_Newnode._Ptr->_Left, _Myhead);

  00064	8b 45 f0	 mov	 eax, DWORD PTR __Myhead$1$[ebp]
  00067	89 4e 14	 mov	 DWORD PTR [esi+20], ecx
  0006a	89 06		 mov	 DWORD PTR [esi], eax

; 362  :         _Construct_in_place(_Newnode._Ptr->_Parent, _Myhead);
; 363  :         _Construct_in_place(_Newnode._Ptr->_Right, _Myhead);

  0006c	89 46 08	 mov	 DWORD PTR [esi+8], eax

; 1688 :             _Newroot          = _Copy_or_move<_Strat>(_Rootnode->_Myval); // memorize new root
; 1689 :             _Newroot->_Parent = _Wherenode;

  0006f	8b 45 0c	 mov	 eax, DWORD PTR __Wherenode$[ebp]

; 364  :         _Newnode._Ptr->_Color = _Red;

  00072	66 c7 46 0c 00
	00		 mov	 WORD PTR [esi+12], 0

; 1688 :             _Newroot          = _Copy_or_move<_Strat>(_Rootnode->_Myval); // memorize new root
; 1689 :             _Newroot->_Parent = _Wherenode;

  00078	89 46 04	 mov	 DWORD PTR [esi+4], eax

; 1690 :             _Newroot->_Color  = _Rootnode->_Color;

  0007b	8a 43 0c	 mov	 al, BYTE PTR [ebx+12]
  0007e	88 46 0c	 mov	 BYTE PTR [esi+12], al

; 1692 :             typename _Scary_val::template _Erase_tree_and_orphan_guard<_Alnode> _Guard{_Scary, _Getal(), _Newroot};

  00081	89 75 ec	 mov	 DWORD PTR __Guard$2[ebp+8], esi

; 1693 : 
; 1694 :             _Newroot->_Left  = _Copy_nodes<_Strat>(_Rootnode->_Left, _Newroot);

  00084	56		 push	 esi
  00085	ff 33		 push	 DWORD PTR [ebx]
  00087	8b cf		 mov	 ecx, edi
  00089	c7 45 fc 01 00
	00 00		 mov	 DWORD PTR __$EHRec$[ebp+8], 1
  00090	e8 00 00 00 00	 call	 ??$_Copy_nodes@$0A@@?$_Tree@V?$_Tmap_traits@EHU?$less@E@std@@V?$allocator@U?$pair@$$CBEH@std@@@2@$0A@@std@@@std@@IAEPAU?$_Tree_node@U?$pair@$$CBEH@std@@PAX@1@PAU21@0@Z ; std::_Tree<std::_Tmap_traits<unsigned char,int,std::less<unsigned char>,std::allocator<std::pair<unsigned char const ,int> >,0> >::_Copy_nodes<0>

; 1695 :             _Newroot->_Right = _Copy_nodes<_Strat>(_Rootnode->_Right, _Newroot);

  00095	56		 push	 esi
  00096	89 06		 mov	 DWORD PTR [esi], eax
  00098	8b cf		 mov	 ecx, edi
  0009a	ff 73 08	 push	 DWORD PTR [ebx+8]
  0009d	e8 00 00 00 00	 call	 ??$_Copy_nodes@$0A@@?$_Tree@V?$_Tmap_traits@EHU?$less@E@std@@V?$allocator@U?$pair@$$CBEH@std@@@2@$0A@@std@@@std@@IAEPAU?$_Tree_node@U?$pair@$$CBEH@std@@PAX@1@PAU21@0@Z ; std::_Tree<std::_Tmap_traits<unsigned char,int,std::less<unsigned char>,std::allocator<std::pair<unsigned char const ,int> >,0> >::_Copy_nodes<0>
  000a2	89 46 08	 mov	 DWORD PTR [esi+8], eax

; 1696 : 
; 1697 :             _Guard._Val_ptr = nullptr;
; 1698 :         }
; 1699 : 
; 1700 :         return _Newroot; // return newly constructed tree

  000a5	8b c6		 mov	 eax, esi
$LN58@Copy_nodes:

; 1701 :     }

  000a7	8b 4d f4	 mov	 ecx, DWORD PTR __$EHRec$[ebp]
  000aa	64 89 0d 00 00
	00 00		 mov	 DWORD PTR fs:0, ecx
  000b1	59		 pop	 ecx
  000b2	5f		 pop	 edi
  000b3	5e		 pop	 esi
  000b4	5b		 pop	 ebx
  000b5	8b e5		 mov	 esp, ebp
  000b7	5d		 pop	 ebp
  000b8	c2 08 00	 ret	 8
_TEXT	ENDS
;	COMDAT text$x
text$x	SEGMENT
__unwindfunclet$??$_Copy_nodes@$0A@@?$_Tree@V?$_Tmap_traits@EHU?$less@E@std@@V?$allocator@U?$pair@$$CBEH@std@@@2@$0A@@std@@@std@@IAEPAU?$_Tree_node@U?$pair@$$CBEH@std@@PAX@1@PAU21@0@Z$1:
  00000	8d 4d e8	 lea	 ecx, DWORD PTR __Newnode$3[ebp]
  00003	e9 00 00 00 00	 jmp	 ??1?$_Alloc_construct_ptr@V?$allocator@U?$_Tree_node@U?$pair@$$CBEH@std@@PAX@std@@@std@@@std@@QAE@XZ ; std::_Alloc_construct_ptr<std::allocator<std::_Tree_node<std::pair<unsigned char const ,int>,void *> > >::~_Alloc_construct_ptr<std::allocator<std::_Tree_node<std::pair<unsigned char const ,int>,void *> > >
__unwindfunclet$??$_Copy_nodes@$0A@@?$_Tree@V?$_Tmap_traits@EHU?$less@E@std@@V?$allocator@U?$pair@$$CBEH@std@@@2@$0A@@std@@@std@@IAEPAU?$_Tree_node@U?$pair@$$CBEH@std@@PAX@1@PAU21@0@Z$0:
  00008	8d 4d e4	 lea	 ecx, DWORD PTR __Guard$2[ebp]
  0000b	e9 00 00 00 00	 jmp	 ??1?$_Erase_tree_and_orphan_guard@V?$allocator@U?$_Tree_node@U?$pair@$$CBEH@std@@PAX@std@@@std@@@?$_Tree_val@U?$_Tree_simple_types@U?$pair@$$CBEH@std@@@std@@@std@@QAE@XZ ; std::_Tree_val<std::_Tree_simple_types<std::pair<unsigned char const ,int> > >::_Erase_tree_and_orphan_guard<std::allocator<std::_Tree_node<std::pair<unsigned char const ,int>,void *> > >::~_Erase_tree_and_orphan_guard<std::allocator<std::_Tree_node<std::pair<unsigned char const ,int>,void *> > >
  00010	cc		 int	 3
  00011	cc		 int	 3
  00012	cc		 int	 3
  00013	cc		 int	 3
  00014	cc		 int	 3
__ehhandler$??$_Copy_nodes@$0A@@?$_Tree@V?$_Tmap_traits@EHU?$less@E@std@@V?$allocator@U?$pair@$$CBEH@std@@@2@$0A@@std@@@std@@IAEPAU?$_Tree_node@U?$pair@$$CBEH@std@@PAX@1@PAU21@0@Z:
  00015	90		 npad	 1
  00016	90		 npad	 1
  00017	8b 54 24 08	 mov	 edx, DWORD PTR [esp+8]
  0001b	8d 42 0c	 lea	 eax, DWORD PTR [edx+12]
  0001e	8b 4a e0	 mov	 ecx, DWORD PTR [edx-32]
  00021	33 c8		 xor	 ecx, eax
  00023	e8 00 00 00 00	 call	 @__security_check_cookie@4
  00028	b8 00 00 00 00	 mov	 eax, OFFSET __ehfuncinfo$??$_Copy_nodes@$0A@@?$_Tree@V?$_Tmap_traits@EHU?$less@E@std@@V?$allocator@U?$pair@$$CBEH@std@@@2@$0A@@std@@@std@@IAEPAU?$_Tree_node@U?$pair@$$CBEH@std@@PAX@1@PAU21@0@Z
  0002d	e9 00 00 00 00	 jmp	 ___CxxFrameHandler3
text$x	ENDS
??$_Copy_nodes@$0A@@?$_Tree@V?$_Tmap_traits@EHU?$less@E@std@@V?$allocator@U?$pair@$$CBEH@std@@@2@$0A@@std@@@std@@IAEPAU?$_Tree_node@U?$pair@$$CBEH@std@@PAX@1@PAU21@0@Z ENDP ; std::_Tree<std::_Tmap_traits<unsigned char,int,std::less<unsigned char>,std::allocator<std::pair<unsigned char const ,int> >,0> >::_Copy_nodes<0>
; Function compile flags: /Ogtp
; File C:\Program Files\Microsoft Visual Studio\2022\Professional\VC\Tools\MSVC\14.44.35207\include\xmemory
;	COMDAT ??1?$_Alloc_construct_ptr@V?$allocator@U?$_Tree_node@U?$pair@$$CBEH@std@@PAX@std@@@std@@@std@@QAE@XZ
_TEXT	SEGMENT
??1?$_Alloc_construct_ptr@V?$allocator@U?$_Tree_node@U?$pair@$$CBEH@std@@PAX@std@@@std@@@std@@QAE@XZ PROC ; std::_Alloc_construct_ptr<std::allocator<std::_Tree_node<std::pair<unsigned char const ,int>,void *> > >::~_Alloc_construct_ptr<std::allocator<std::_Tree_node<std::pair<unsigned char const ,int>,void *> > >, COMDAT
; _this$ = ecx

; 1172 :         if (_Ptr) {

  00000	8b 41 04	 mov	 eax, DWORD PTR [ecx+4]
  00003	85 c0		 test	 eax, eax
  00005	74 0b		 je	 SHORT $LN10@Alloc_cons

; 289  :         ::operator delete(_Ptr, _Bytes);

  00007	6a 18		 push	 24			; 00000018H
  00009	50		 push	 eax
  0000a	e8 00 00 00 00	 call	 ??3@YAXPAXI@Z		; operator delete
  0000f	83 c4 08	 add	 esp, 8
$LN10@Alloc_cons:

; 1173 :             _Al.deallocate(_Ptr, 1);
; 1174 :         }
; 1175 :     }

  00012	c3		 ret	 0
??1?$_Alloc_construct_ptr@V?$allocator@U?$_Tree_node@U?$pair@$$CBEH@std@@PAX@std@@@std@@@std@@QAE@XZ ENDP ; std::_Alloc_construct_ptr<std::allocator<std::_Tree_node<std::pair<unsigned char const ,int>,void *> > >::~_Alloc_construct_ptr<std::allocator<std::_Tree_node<std::pair<unsigned char const ,int>,void *> > >
_TEXT	ENDS
; Function compile flags: /Ogtp
; File C:\Program Files\Microsoft Visual Studio\2022\Professional\VC\Tools\MSVC\14.44.35207\include\xtree
;	COMDAT ??1?$_Tree_head_scoped_ptr@V?$allocator@U?$_Tree_node@U?$pair@$$CBEH@std@@PAX@std@@@std@@V?$_Tree_val@U?$_Tree_simple_types@U?$pair@$$CBEH@std@@@std@@@2@@std@@QAE@XZ
_TEXT	SEGMENT
??1?$_Tree_head_scoped_ptr@V?$allocator@U?$_Tree_node@U?$pair@$$CBEH@std@@PAX@std@@@std@@V?$_Tree_val@U?$_Tree_simple_types@U?$pair@$$CBEH@std@@@std@@@2@@std@@QAE@XZ PROC ; std::_Tree_head_scoped_ptr<std::allocator<std::_Tree_node<std::pair<unsigned char const ,int>,void *> >,std::_Tree_val<std::_Tree_simple_types<std::pair<unsigned char const ,int> > > >::~_Tree_head_scoped_ptr<std::allocator<std::_Tree_node<std::pair<unsigned char const ,int>,void *> >,std::_Tree_val<std::_Tree_simple_types<std::pair<unsigned char const ,int> > > >, COMDAT
; _this$ = ecx

; 799  :         if (_Mycont) {

  00000	8b 41 04	 mov	 eax, DWORD PTR [ecx+4]
  00003	85 c0		 test	 eax, eax
  00005	74 09		 je	 SHORT $LN2@Tree_head_

; 800  :             _Mycont->_Erase_head(_Al);

  00007	ff 31		 push	 DWORD PTR [ecx]
  00009	8b c8		 mov	 ecx, eax
  0000b	e8 00 00 00 00	 call	 ??$_Erase_head@V?$allocator@U?$_Tree_node@U?$pair@$$CBEH@std@@PAX@std@@@std@@@?$_Tree_val@U?$_Tree_simple_types@U?$pair@$$CBEH@std@@@std@@@std@@QAEXAAV?$allocator@U?$_Tree_node@U?$pair@$$CBEH@std@@PAX@std@@@1@@Z ; std::_Tree_val<std::_Tree_simple_types<std::pair<unsigned char const ,int> > >::_Erase_head<std::allocator<std::_Tree_node<std::pair<unsigned char const ,int>,void *> > >
$LN2@Tree_head_:

; 801  :         }
; 802  :     }

  00010	c3		 ret	 0
??1?$_Tree_head_scoped_ptr@V?$allocator@U?$_Tree_node@U?$pair@$$CBEH@std@@PAX@std@@@std@@V?$_Tree_val@U?$_Tree_simple_types@U?$pair@$$CBEH@std@@@std@@@2@@std@@QAE@XZ ENDP ; std::_Tree_head_scoped_ptr<std::allocator<std::_Tree_node<std::pair<unsigned char const ,int>,void *> >,std::_Tree_val<std::_Tree_simple_types<std::pair<unsigned char const ,int> > > >::~_Tree_head_scoped_ptr<std::allocator<std::_Tree_node<std::pair<unsigned char const ,int>,void *> >,std::_Tree_val<std::_Tree_simple_types<std::pair<unsigned char const ,int> > > >
_TEXT	ENDS
; Function compile flags: /Ogtp
; File C:\Program Files\Microsoft Visual Studio\2022\Professional\VC\Tools\MSVC\14.44.35207\include\xtree
; File C:\Program Files\Microsoft Visual Studio\2022\Professional\VC\Tools\MSVC\14.44.35207\include\utility
; File C:\Program Files\Microsoft Visual Studio\2022\Professional\VC\Tools\MSVC\14.44.35207\include\xmemory
; File C:\Program Files\Microsoft Visual Studio\2022\Professional\VC\Tools\MSVC\14.44.35207\include\xtree
;	COMDAT ??$_Erase_tree@V?$allocator@U?$_Tree_node@U?$pair@$$CBEH@std@@PAX@std@@@std@@@?$_Tree_val@U?$_Tree_simple_types@U?$pair@$$CBEH@std@@@std@@@std@@QAEXAAV?$allocator@U?$_Tree_node@U?$pair@$$CBEH@std@@PAX@std@@@1@PAU?$_Tree_node@U?$pair@$$CBEH@std@@PAX@1@@Z
_TEXT	SEGMENT
__Al$ = 8						; size = 4
__Rootnode$ = 12					; size = 4
??$_Erase_tree@V?$allocator@U?$_Tree_node@U?$pair@$$CBEH@std@@PAX@std@@@std@@@?$_Tree_val@U?$_Tree_simple_types@U?$pair@$$CBEH@std@@@std@@@std@@QAEXAAV?$allocator@U?$_Tree_node@U?$pair@$$CBEH@std@@PAX@std@@@1@PAU?$_Tree_node@U?$pair@$$CBEH@std@@PAX@1@@Z PROC ; std::_Tree_val<std::_Tree_simple_types<std::pair<unsigned char const ,int> > >::_Erase_tree<std::allocator<std::_Tree_node<std::pair<unsigned char const ,int>,void *> > >, COMDAT
; _this$ = ecx

; 767  :     void _Erase_tree(_Alnode& _Al, _Nodeptr _Rootnode) noexcept {

  00000	55		 push	 ebp
  00001	8b ec		 mov	 ebp, esp
  00003	53		 push	 ebx
  00004	56		 push	 esi

; 768  :         while (!_Rootnode->_Isnil) { // free subtrees, then node

  00005	8b 75 0c	 mov	 esi, DWORD PTR __Rootnode$[ebp]
  00008	8b d9		 mov	 ebx, ecx
  0000a	80 7e 0d 00	 cmp	 BYTE PTR [esi+13], 0
  0000e	75 25		 jne	 SHORT $LN34@Erase_tree
  00010	57		 push	 edi
  00011	8b 7d 08	 mov	 edi, DWORD PTR __Al$[ebp]
$LL2@Erase_tree:

; 769  :             _Erase_tree(_Al, _Rootnode->_Right);

  00014	ff 76 08	 push	 DWORD PTR [esi+8]
  00017	8b cb		 mov	 ecx, ebx
  00019	57		 push	 edi
  0001a	e8 00 00 00 00	 call	 ??$_Erase_tree@V?$allocator@U?$_Tree_node@U?$pair@$$CBEH@std@@PAX@std@@@std@@@?$_Tree_val@U?$_Tree_simple_types@U?$pair@$$CBEH@std@@@std@@@std@@QAEXAAV?$allocator@U?$_Tree_node@U?$pair@$$CBEH@std@@PAX@std@@@1@PAU?$_Tree_node@U?$pair@$$CBEH@std@@PAX@1@@Z ; std::_Tree_val<std::_Tree_simple_types<std::pair<unsigned char const ,int> > >::_Erase_tree<std::allocator<std::_Tree_node<std::pair<unsigned char const ,int>,void *> > >
; File C:\Program Files\Microsoft Visual Studio\2022\Professional\VC\Tools\MSVC\14.44.35207\include\utility

; 773  :     _Ty _Old_val = static_cast<_Ty&&>(_Val);

  0001f	8b c6		 mov	 eax, esi

; 774  :     _Val         = static_cast<_Other&&>(_New_val);

  00021	8b 36		 mov	 esi, DWORD PTR [esi]
; File C:\Program Files\Microsoft Visual Studio\2022\Professional\VC\Tools\MSVC\14.44.35207\include\xmemory

; 289  :         ::operator delete(_Ptr, _Bytes);

  00023	6a 18		 push	 24			; 00000018H
  00025	50		 push	 eax
  00026	e8 00 00 00 00	 call	 ??3@YAXPAXI@Z		; operator delete
  0002b	83 c4 08	 add	 esp, 8
; File C:\Program Files\Microsoft Visual Studio\2022\Professional\VC\Tools\MSVC\14.44.35207\include\xtree

; 768  :         while (!_Rootnode->_Isnil) { // free subtrees, then node

  0002e	80 7e 0d 00	 cmp	 BYTE PTR [esi+13], 0
  00032	74 e0		 je	 SHORT $LL2@Erase_tree
  00034	5f		 pop	 edi
$LN34@Erase_tree:
  00035	5e		 pop	 esi

; 770  :             _Alnode::value_type::_Freenode(_Al, _STD exchange(_Rootnode, _Rootnode->_Left));
; 771  :         }
; 772  :     }

  00036	5b		 pop	 ebx
  00037	5d		 pop	 ebp
  00038	c2 08 00	 ret	 8
??$_Erase_tree@V?$allocator@U?$_Tree_node@U?$pair@$$CBEH@std@@PAX@std@@@std@@@?$_Tree_val@U?$_Tree_simple_types@U?$pair@$$CBEH@std@@@std@@@std@@QAEXAAV?$allocator@U?$_Tree_node@U?$pair@$$CBEH@std@@PAX@std@@@1@PAU?$_Tree_node@U?$pair@$$CBEH@std@@PAX@1@@Z ENDP ; std::_Tree_val<std::_Tree_simple_types<std::pair<unsigned char const ,int> > >::_Erase_tree<std::allocator<std::_Tree_node<std::pair<unsigned char const ,int>,void *> > >
_TEXT	ENDS
; Function compile flags: /Ogtp
; File C:\Program Files\Microsoft Visual Studio\2022\Professional\VC\Tools\MSVC\14.44.35207\include\xtree
; File C:\Program Files\Microsoft Visual Studio\2022\Professional\VC\Tools\MSVC\14.44.35207\include\utility
; File C:\Program Files\Microsoft Visual Studio\2022\Professional\VC\Tools\MSVC\14.44.35207\include\xmemory
; File C:\Program Files\Microsoft Visual Studio\2022\Professional\VC\Tools\MSVC\14.44.35207\include\xtree
;	COMDAT ??$_Erase_tree@V?$allocator@U?$_Tree_node@U?$pair@$$CBKP8CDPTrans@@AEXAAVCAr@@KKKPAEK@Z@std@@PAX@std@@@std@@@?$_Tree_val@U?$_Tree_simple_types@U?$pair@$$CBKP8CDPTrans@@AEXAAVCAr@@KKKPAEK@Z@std@@@std@@@std@@QAEXAAV?$allocator@U?$_Tree_node@U?$pair@$$CBKP8CDPTrans@@AEXAAVCAr@@KKKPAEK@Z@std@@PAX@std@@@1@PAU?$_Tree_node@U?$pair@$$CBKP8CDPTrans@@AEXAAVCAr@@KKKPAEK@Z@std@@PAX@1@@Z
_TEXT	SEGMENT
__Al$ = 8						; size = 4
__Rootnode$ = 12					; size = 4
??$_Erase_tree@V?$allocator@U?$_Tree_node@U?$pair@$$CBKP8CDPTrans@@AEXAAVCAr@@KKKPAEK@Z@std@@PAX@std@@@std@@@?$_Tree_val@U?$_Tree_simple_types@U?$pair@$$CBKP8CDPTrans@@AEXAAVCAr@@KKKPAEK@Z@std@@@std@@@std@@QAEXAAV?$allocator@U?$_Tree_node@U?$pair@$$CBKP8CDPTrans@@AEXAAVCAr@@KKKPAEK@Z@std@@PAX@std@@@1@PAU?$_Tree_node@U?$pair@$$CBKP8CDPTrans@@AEXAAVCAr@@KKKPAEK@Z@std@@PAX@1@@Z PROC ; std::_Tree_val<std::_Tree_simple_types<std::pair<unsigned long const ,void (__thiscall CDPTrans::*)(CAr &,unsigned long,unsigned long,unsigned long,unsigned char *,unsigned long)> > >::_Erase_tree<std::allocator<std::_Tree_node<std::pair<unsigned long const ,void (__thiscall CDPTrans::*)(CAr &,unsigned long,unsigned long,unsigned long,unsigned char *,unsigned long)>,void *> > >, COMDAT
; _this$ = ecx

; 767  :     void _Erase_tree(_Alnode& _Al, _Nodeptr _Rootnode) noexcept {

  00000	55		 push	 ebp
  00001	8b ec		 mov	 ebp, esp
  00003	53		 push	 ebx
  00004	56		 push	 esi

; 768  :         while (!_Rootnode->_Isnil) { // free subtrees, then node

  00005	8b 75 0c	 mov	 esi, DWORD PTR __Rootnode$[ebp]
  00008	8b d9		 mov	 ebx, ecx
  0000a	80 7e 0d 00	 cmp	 BYTE PTR [esi+13], 0
  0000e	75 25		 jne	 SHORT $LN34@Erase_tree
  00010	57		 push	 edi
  00011	8b 7d 08	 mov	 edi, DWORD PTR __Al$[ebp]
$LL2@Erase_tree:

; 769  :             _Erase_tree(_Al, _Rootnode->_Right);

  00014	ff 76 08	 push	 DWORD PTR [esi+8]
  00017	8b cb		 mov	 ecx, ebx
  00019	57		 push	 edi
  0001a	e8 00 00 00 00	 call	 ??$_Erase_tree@V?$allocator@U?$_Tree_node@U?$pair@$$CBKP8CDPTrans@@AEXAAVCAr@@KKKPAEK@Z@std@@PAX@std@@@std@@@?$_Tree_val@U?$_Tree_simple_types@U?$pair@$$CBKP8CDPTrans@@AEXAAVCAr@@KKKPAEK@Z@std@@@std@@@std@@QAEXAAV?$allocator@U?$_Tree_node@U?$pair@$$CBKP8CDPTrans@@AEXAAVCAr@@KKKPAEK@Z@std@@PAX@std@@@1@PAU?$_Tree_node@U?$pair@$$CBKP8CDPTrans@@AEXAAVCAr@@KKKPAEK@Z@std@@PAX@1@@Z ; std::_Tree_val<std::_Tree_simple_types<std::pair<unsigned long const ,void (__thiscall CDPTrans::*)(CAr &,unsigned long,unsigned long,unsigned long,unsigned char *,unsigned long)> > >::_Erase_tree<std::allocator<std::_Tree_node<std::pair<unsigned long const ,void (__thiscall CDPTrans::*)(CAr &,unsigned long,unsigned long,unsigned long,unsigned char *,unsigned long)>,void *> > >
; File C:\Program Files\Microsoft Visual Studio\2022\Professional\VC\Tools\MSVC\14.44.35207\include\utility

; 773  :     _Ty _Old_val = static_cast<_Ty&&>(_Val);

  0001f	8b c6		 mov	 eax, esi

; 774  :     _Val         = static_cast<_Other&&>(_New_val);

  00021	8b 36		 mov	 esi, DWORD PTR [esi]
; File C:\Program Files\Microsoft Visual Studio\2022\Professional\VC\Tools\MSVC\14.44.35207\include\xmemory

; 289  :         ::operator delete(_Ptr, _Bytes);

  00023	6a 18		 push	 24			; 00000018H
  00025	50		 push	 eax
  00026	e8 00 00 00 00	 call	 ??3@YAXPAXI@Z		; operator delete
  0002b	83 c4 08	 add	 esp, 8
; File C:\Program Files\Microsoft Visual Studio\2022\Professional\VC\Tools\MSVC\14.44.35207\include\xtree

; 768  :         while (!_Rootnode->_Isnil) { // free subtrees, then node

  0002e	80 7e 0d 00	 cmp	 BYTE PTR [esi+13], 0
  00032	74 e0		 je	 SHORT $LL2@Erase_tree
  00034	5f		 pop	 edi
$LN34@Erase_tree:
  00035	5e		 pop	 esi

; 770  :             _Alnode::value_type::_Freenode(_Al, _STD exchange(_Rootnode, _Rootnode->_Left));
; 771  :         }
; 772  :     }

  00036	5b		 pop	 ebx
  00037	5d		 pop	 ebp
  00038	c2 08 00	 ret	 8
??$_Erase_tree@V?$allocator@U?$_Tree_node@U?$pair@$$CBKP8CDPTrans@@AEXAAVCAr@@KKKPAEK@Z@std@@PAX@std@@@std@@@?$_Tree_val@U?$_Tree_simple_types@U?$pair@$$CBKP8CDPTrans@@AEXAAVCAr@@KKKPAEK@Z@std@@@std@@@std@@QAEXAAV?$allocator@U?$_Tree_node@U?$pair@$$CBKP8CDPTrans@@AEXAAVCAr@@KKKPAEK@Z@std@@PAX@std@@@1@PAU?$_Tree_node@U?$pair@$$CBKP8CDPTrans@@AEXAAVCAr@@KKKPAEK@Z@std@@PAX@1@@Z ENDP ; std::_Tree_val<std::_Tree_simple_types<std::pair<unsigned long const ,void (__thiscall CDPTrans::*)(CAr &,unsigned long,unsigned long,unsigned long,unsigned char *,unsigned long)> > >::_Erase_tree<std::allocator<std::_Tree_node<std::pair<unsigned long const ,void (__thiscall CDPTrans::*)(CAr &,unsigned long,unsigned long,unsigned long,unsigned char *,unsigned long)>,void *> > >
_TEXT	ENDS
; Function compile flags: /Ogtp
; File C:\Program Files\Microsoft Visual Studio\2022\Professional\VC\Tools\MSVC\14.44.35207\include\xmemory
;	COMDAT ??1?$_Alloc_construct_ptr@V?$allocator@U?$_Tree_node@U?$pair@$$CBHV?$basic_string@DU?$char_traits@D@std@@V?$allocator@D@2@@std@@@std@@PAX@std@@@std@@@std@@QAE@XZ
_TEXT	SEGMENT
??1?$_Alloc_construct_ptr@V?$allocator@U?$_Tree_node@U?$pair@$$CBHV?$basic_string@DU?$char_traits@D@std@@V?$allocator@D@2@@std@@@std@@PAX@std@@@std@@@std@@QAE@XZ PROC ; std::_Alloc_construct_ptr<std::allocator<std::_Tree_node<std::pair<int const ,std::basic_string<char,std::char_traits<char>,std::allocator<char> > >,void *> > >::~_Alloc_construct_ptr<std::allocator<std::_Tree_node<std::pair<int const ,std::basic_string<char,std::char_traits<char>,std::allocator<char> > >,void *> > >, COMDAT
; _this$ = ecx

; 1172 :         if (_Ptr) {

  00000	8b 41 04	 mov	 eax, DWORD PTR [ecx+4]
  00003	85 c0		 test	 eax, eax
  00005	74 0b		 je	 SHORT $LN10@Alloc_cons

; 289  :         ::operator delete(_Ptr, _Bytes);

  00007	6a 2c		 push	 44			; 0000002cH
  00009	50		 push	 eax
  0000a	e8 00 00 00 00	 call	 ??3@YAXPAXI@Z		; operator delete
  0000f	83 c4 08	 add	 esp, 8
$LN10@Alloc_cons:

; 1173 :             _Al.deallocate(_Ptr, 1);
; 1174 :         }
; 1175 :     }

  00012	c3		 ret	 0
??1?$_Alloc_construct_ptr@V?$allocator@U?$_Tree_node@U?$pair@$$CBHV?$basic_string@DU?$char_traits@D@std@@V?$allocator@D@2@@std@@@std@@PAX@std@@@std@@@std@@QAE@XZ ENDP ; std::_Alloc_construct_ptr<std::allocator<std::_Tree_node<std::pair<int const ,std::basic_string<char,std::char_traits<char>,std::allocator<char> > >,void *> > >::~_Alloc_construct_ptr<std::allocator<std::_Tree_node<std::pair<int const ,std::basic_string<char,std::char_traits<char>,std::allocator<char> > >,void *> > >
_TEXT	ENDS
; Function compile flags: /Ogtp
; File C:\Program Files\Microsoft Visual Studio\2022\Professional\VC\Tools\MSVC\14.44.35207\include\xmemory
;	COMDAT ??1?$_Alloc_construct_ptr@V?$allocator@U?$_Tree_node@U?$pair@$$CBKP8CDPTrans@@AEXAAVCAr@@KKKPAEK@Z@std@@PAX@std@@@std@@@std@@QAE@XZ
_TEXT	SEGMENT
??1?$_Alloc_construct_ptr@V?$allocator@U?$_Tree_node@U?$pair@$$CBKP8CDPTrans@@AEXAAVCAr@@KKKPAEK@Z@std@@PAX@std@@@std@@@std@@QAE@XZ PROC ; std::_Alloc_construct_ptr<std::allocator<std::_Tree_node<std::pair<unsigned long const ,void (__thiscall CDPTrans::*)(CAr &,unsigned long,unsigned long,unsigned long,unsigned char *,unsigned long)>,void *> > >::~_Alloc_construct_ptr<std::allocator<std::_Tree_node<std::pair<unsigned long const ,void (__thiscall CDPTrans::*)(CAr &,unsigned long,unsigned long,unsigned long,unsigned char *,unsigned long)>,void *> > >, COMDAT
; _this$ = ecx

; 1172 :         if (_Ptr) {

  00000	8b 41 04	 mov	 eax, DWORD PTR [ecx+4]
  00003	85 c0		 test	 eax, eax
  00005	74 0b		 je	 SHORT $LN10@Alloc_cons

; 289  :         ::operator delete(_Ptr, _Bytes);

  00007	6a 18		 push	 24			; 00000018H
  00009	50		 push	 eax
  0000a	e8 00 00 00 00	 call	 ??3@YAXPAXI@Z		; operator delete
  0000f	83 c4 08	 add	 esp, 8
$LN10@Alloc_cons:

; 1173 :             _Al.deallocate(_Ptr, 1);
; 1174 :         }
; 1175 :     }

  00012	c3		 ret	 0
??1?$_Alloc_construct_ptr@V?$allocator@U?$_Tree_node@U?$pair@$$CBKP8CDPTrans@@AEXAAVCAr@@KKKPAEK@Z@std@@PAX@std@@@std@@@std@@QAE@XZ ENDP ; std::_Alloc_construct_ptr<std::allocator<std::_Tree_node<std::pair<unsigned long const ,void (__thiscall CDPTrans::*)(CAr &,unsigned long,unsigned long,unsigned long,unsigned char *,unsigned long)>,void *> > >::~_Alloc_construct_ptr<std::allocator<std::_Tree_node<std::pair<unsigned long const ,void (__thiscall CDPTrans::*)(CAr &,unsigned long,unsigned long,unsigned long,unsigned char *,unsigned long)>,void *> > >
_TEXT	ENDS
; Function compile flags: /Ogtp
; File C:\Program Files\Microsoft Visual Studio\2022\Professional\VC\Tools\MSVC\14.44.35207\include\xtree
; File C:\Program Files\Microsoft Visual Studio\2022\Professional\VC\Tools\MSVC\14.44.35207\include\type_traits
; File C:\Program Files\Microsoft Visual Studio\2022\Professional\VC\Tools\MSVC\14.44.35207\include\xtree
; File C:\Program Files\Microsoft Visual Studio\2022\Professional\VC\Tools\MSVC\14.44.35207\include\type_traits
; File C:\Program Files\Microsoft Visual Studio\2022\Professional\VC\Tools\MSVC\14.44.35207\include\xtree
;	COMDAT ??$_Find_lower_bound@K@?$_Tree@V?$_Tmap_traits@KP8CDPTrans@@AEXAAVCAr@@KKKPAEK@ZU?$less@K@std@@V?$allocator@U?$pair@$$CBKP8CDPTrans@@AEXAAVCAr@@KKKPAEK@Z@std@@@4@$0A@@std@@@std@@IBE?AU?$_Tree_find_result@PAU?$_Tree_node@U?$pair@$$CBKP8CDPTrans@@AEXAAVCAr@@KKKPAEK@Z@std@@PAX@std@@@1@ABK@Z
_TEXT	SEGMENT
___$ReturnUdt$ = 8					; size = 4
__Keyval$ = 12						; size = 4
??$_Find_lower_bound@K@?$_Tree@V?$_Tmap_traits@KP8CDPTrans@@AEXAAVCAr@@KKKPAEK@ZU?$less@K@std@@V?$allocator@U?$pair@$$CBKP8CDPTrans@@AEXAAVCAr@@KKKPAEK@Z@std@@@4@$0A@@std@@@std@@IBE?AU?$_Tree_find_result@PAU?$_Tree_node@U?$pair@$$CBKP8CDPTrans@@AEXAAVCAr@@KKKPAEK@Z@std@@PAX@std@@@1@ABK@Z PROC ; std::_Tree<std::_Tmap_traits<unsigned long,void (__thiscall CDPTrans::*)(CAr &,unsigned long,unsigned long,unsigned long,unsigned char *,unsigned long),std::less<unsigned long>,std::allocator<std::pair<unsigned long const ,void (__thiscall CDPTrans::*)(CAr &,unsigned long,unsigned long,unsigned long,unsigned char *,unsigned long)> >,0> >::_Find_lower_bound<unsigned long>, COMDAT
; _this$ = ecx

; 1628 :     _Tree_find_result<_Nodeptr> _Find_lower_bound(const _Keyty& _Keyval) const {

  00000	55		 push	 ebp
  00001	8b ec		 mov	 ebp, esp

; 1629 :         const auto _Scary = _Get_scary();
; 1630 :         _Tree_find_result<_Nodeptr> _Result{{_Scary->_Myhead->_Parent, _Tree_child::_Right}, _Scary->_Myhead};

  00003	8b 09		 mov	 ecx, DWORD PTR [ecx]
  00005	8b 55 08	 mov	 edx, DWORD PTR ___$ReturnUdt$[ebp]
  00008	8b 41 04	 mov	 eax, DWORD PTR [ecx+4]
  0000b	89 02		 mov	 DWORD PTR [edx], eax
  0000d	c7 42 04 00 00
	00 00		 mov	 DWORD PTR [edx+4], 0
  00014	89 4a 08	 mov	 DWORD PTR [edx+8], ecx

; 1631 :         _Nodeptr _Trynode = _Result._Location._Parent;
; 1632 :         while (!_Trynode->_Isnil) {

  00017	80 78 0d 00	 cmp	 BYTE PTR [eax+13], 0
  0001b	75 28		 jne	 SHORT $LN13@Find_lower
; File C:\Program Files\Microsoft Visual Studio\2022\Professional\VC\Tools\MSVC\14.44.35207\include\type_traits

; 2380 :         return _Left < _Right;

  0001d	8b 4d 0c	 mov	 ecx, DWORD PTR __Keyval$[ebp]
  00020	56		 push	 esi
  00021	8b 31		 mov	 esi, DWORD PTR [ecx]
$LL2@Find_lower:
; File C:\Program Files\Microsoft Visual Studio\2022\Professional\VC\Tools\MSVC\14.44.35207\include\xtree

; 1633 :             _Result._Location._Parent = _Trynode;

  00023	89 02		 mov	 DWORD PTR [edx], eax
; File C:\Program Files\Microsoft Visual Studio\2022\Professional\VC\Tools\MSVC\14.44.35207\include\type_traits

; 2380 :         return _Left < _Right;

  00025	39 70 10	 cmp	 DWORD PTR [eax+16], esi
; File C:\Program Files\Microsoft Visual Studio\2022\Professional\VC\Tools\MSVC\14.44.35207\include\xtree

; 1634 :             if (_DEBUG_LT_PRED(_Getcomp(), _Traits::_Kfn(_Trynode->_Myval), _Keyval)) {

  00028	73 07		 jae	 SHORT $LN4@Find_lower

; 1635 :                 _Result._Location._Child = _Tree_child::_Right;
; 1636 :                 _Trynode                 = _Trynode->_Right;

  0002a	8b 40 08	 mov	 eax, DWORD PTR [eax+8]
  0002d	33 c9		 xor	 ecx, ecx

; 1637 :             } else {

  0002f	eb 0a		 jmp	 SHORT $LN5@Find_lower
$LN4@Find_lower:

; 1638 :                 _Result._Location._Child = _Tree_child::_Left;
; 1639 :                 _Result._Bound           = _Trynode;

  00031	89 42 08	 mov	 DWORD PTR [edx+8], eax

; 1640 :                 _Trynode                 = _Trynode->_Left;

  00034	b9 01 00 00 00	 mov	 ecx, 1
  00039	8b 00		 mov	 eax, DWORD PTR [eax]
$LN5@Find_lower:

; 1631 :         _Nodeptr _Trynode = _Result._Location._Parent;
; 1632 :         while (!_Trynode->_Isnil) {

  0003b	89 4a 04	 mov	 DWORD PTR [edx+4], ecx
  0003e	80 78 0d 00	 cmp	 BYTE PTR [eax+13], 0
  00042	74 df		 je	 SHORT $LL2@Find_lower
  00044	5e		 pop	 esi
$LN13@Find_lower:

; 1641 :             }
; 1642 :         }
; 1643 : 
; 1644 :         return _Result;
; 1645 :     }

  00045	8b c2		 mov	 eax, edx
  00047	5d		 pop	 ebp
  00048	c2 08 00	 ret	 8
??$_Find_lower_bound@K@?$_Tree@V?$_Tmap_traits@KP8CDPTrans@@AEXAAVCAr@@KKKPAEK@ZU?$less@K@std@@V?$allocator@U?$pair@$$CBKP8CDPTrans@@AEXAAVCAr@@KKKPAEK@Z@std@@@4@$0A@@std@@@std@@IBE?AU?$_Tree_find_result@PAU?$_Tree_node@U?$pair@$$CBKP8CDPTrans@@AEXAAVCAr@@KKKPAEK@Z@std@@PAX@std@@@1@ABK@Z ENDP ; std::_Tree<std::_Tmap_traits<unsigned long,void (__thiscall CDPTrans::*)(CAr &,unsigned long,unsigned long,unsigned long,unsigned char *,unsigned long),std::less<unsigned long>,std::allocator<std::pair<unsigned long const ,void (__thiscall CDPTrans::*)(CAr &,unsigned long,unsigned long,unsigned long,unsigned char *,unsigned long)> >,0> >::_Find_lower_bound<unsigned long>
_TEXT	ENDS
; Function compile flags: /Ogtp
; File C:\Program Files\Microsoft Visual Studio\2022\Professional\VC\Tools\MSVC\14.44.35207\include\xtree
; File C:\Program Files\Microsoft Visual Studio\2022\Professional\VC\Tools\MSVC\14.44.35207\include\utility
; File C:\Program Files\Microsoft Visual Studio\2022\Professional\VC\Tools\MSVC\14.44.35207\include\xmemory
; File C:\Program Files\Microsoft Visual Studio\2022\Professional\VC\Tools\MSVC\14.44.35207\include\xtree
; File C:\Program Files\Microsoft Visual Studio\2022\Professional\VC\Tools\MSVC\14.44.35207\include\xmemory
; File C:\Program Files\Microsoft Visual Studio\2022\Professional\VC\Tools\MSVC\14.44.35207\include\xtree
;	COMDAT ??$_Erase_head@V?$allocator@U?$_Tree_node@U?$pair@$$CBEH@std@@PAX@std@@@std@@@?$_Tree_val@U?$_Tree_simple_types@U?$pair@$$CBEH@std@@@std@@@std@@QAEXAAV?$allocator@U?$_Tree_node@U?$pair@$$CBEH@std@@PAX@std@@@1@@Z
_TEXT	SEGMENT
__Al$ = 8						; size = 4
??$_Erase_head@V?$allocator@U?$_Tree_node@U?$pair@$$CBEH@std@@PAX@std@@@std@@@?$_Tree_val@U?$_Tree_simple_types@U?$pair@$$CBEH@std@@@std@@@std@@QAEXAAV?$allocator@U?$_Tree_node@U?$pair@$$CBEH@std@@PAX@std@@@1@@Z PROC ; std::_Tree_val<std::_Tree_simple_types<std::pair<unsigned char const ,int> > >::_Erase_head<std::allocator<std::_Tree_node<std::pair<unsigned char const ,int>,void *> > >, COMDAT
; _this$ = ecx

; 775  :     void _Erase_head(_Alnode& _Al) noexcept {

  00000	55		 push	 ebp
  00001	8b ec		 mov	 ebp, esp
  00003	56		 push	 esi
  00004	57		 push	 edi
  00005	8b f9		 mov	 edi, ecx

; 776  :         this->_Orphan_all();
; 777  :         _Erase_tree(_Al, _Myhead->_Parent);

  00007	8b 37		 mov	 esi, DWORD PTR [edi]
  00009	8b 76 04	 mov	 esi, DWORD PTR [esi+4]

; 768  :         while (!_Rootnode->_Isnil) { // free subtrees, then node

  0000c	80 7e 0d 00	 cmp	 BYTE PTR [esi+13], 0
  00010	75 25		 jne	 SHORT $LN57@Erase_head
  00012	53		 push	 ebx
  00013	8b 5d 08	 mov	 ebx, DWORD PTR __Al$[ebp]
$LL5@Erase_head:

; 769  :             _Erase_tree(_Al, _Rootnode->_Right);

  00016	ff 76 08	 push	 DWORD PTR [esi+8]
  00019	8b cf		 mov	 ecx, edi
  0001b	53		 push	 ebx
  0001c	e8 00 00 00 00	 call	 ??$_Erase_tree@V?$allocator@U?$_Tree_node@U?$pair@$$CBEH@std@@PAX@std@@@std@@@?$_Tree_val@U?$_Tree_simple_types@U?$pair@$$CBEH@std@@@std@@@std@@QAEXAAV?$allocator@U?$_Tree_node@U?$pair@$$CBEH@std@@PAX@std@@@1@PAU?$_Tree_node@U?$pair@$$CBEH@std@@PAX@1@@Z ; std::_Tree_val<std::_Tree_simple_types<std::pair<unsigned char const ,int> > >::_Erase_tree<std::allocator<std::_Tree_node<std::pair<unsigned char const ,int>,void *> > >
; File C:\Program Files\Microsoft Visual Studio\2022\Professional\VC\Tools\MSVC\14.44.35207\include\utility

; 773  :     _Ty _Old_val = static_cast<_Ty&&>(_Val);

  00021	8b c6		 mov	 eax, esi

; 774  :     _Val         = static_cast<_Other&&>(_New_val);

  00023	8b 36		 mov	 esi, DWORD PTR [esi]
; File C:\Program Files\Microsoft Visual Studio\2022\Professional\VC\Tools\MSVC\14.44.35207\include\xmemory

; 289  :         ::operator delete(_Ptr, _Bytes);

  00025	6a 18		 push	 24			; 00000018H
  00027	50		 push	 eax
  00028	e8 00 00 00 00	 call	 ??3@YAXPAXI@Z		; operator delete
  0002d	83 c4 08	 add	 esp, 8
; File C:\Program Files\Microsoft Visual Studio\2022\Professional\VC\Tools\MSVC\14.44.35207\include\xtree

; 768  :         while (!_Rootnode->_Isnil) { // free subtrees, then node

  00030	80 7e 0d 00	 cmp	 BYTE PTR [esi+13], 0
  00034	74 e0		 je	 SHORT $LL5@Erase_head
  00036	5b		 pop	 ebx
$LN57@Erase_head:
; File C:\Program Files\Microsoft Visual Studio\2022\Professional\VC\Tools\MSVC\14.44.35207\include\xmemory

; 289  :         ::operator delete(_Ptr, _Bytes);

  00037	6a 18		 push	 24			; 00000018H
  00039	ff 37		 push	 DWORD PTR [edi]
  0003b	e8 00 00 00 00	 call	 ??3@YAXPAXI@Z		; operator delete
  00040	83 c4 08	 add	 esp, 8
  00043	5f		 pop	 edi
  00044	5e		 pop	 esi
; File C:\Program Files\Microsoft Visual Studio\2022\Professional\VC\Tools\MSVC\14.44.35207\include\xtree

; 779  :     }

  00045	5d		 pop	 ebp
  00046	c2 04 00	 ret	 4
??$_Erase_head@V?$allocator@U?$_Tree_node@U?$pair@$$CBEH@std@@PAX@std@@@std@@@?$_Tree_val@U?$_Tree_simple_types@U?$pair@$$CBEH@std@@@std@@@std@@QAEXAAV?$allocator@U?$_Tree_node@U?$pair@$$CBEH@std@@PAX@std@@@1@@Z ENDP ; std::_Tree_val<std::_Tree_simple_types<std::pair<unsigned char const ,int> > >::_Erase_head<std::allocator<std::_Tree_node<std::pair<unsigned char const ,int>,void *> > >
_TEXT	ENDS
; Function compile flags: /Ogtp
; File C:\IAGOS\server\v18\Source\Source\_Network\Misc\Include\Ar.h
;	COMDAT ??$?6_J@CAr@@QAEAAV0@AB_J@Z
_TEXT	SEGMENT
_t$ = 8							; size = 4
??$?6_J@CAr@@QAEAAV0@AB_J@Z PROC			; CAr::operator<<<__int64>, COMDAT
; _this$ = ecx

; 255  : {

  00000	55		 push	 ebp
  00001	8b ec		 mov	 ebp, esp
  00003	56		 push	 esi
  00004	57		 push	 edi

; 256  : 	CheckBuf(sizeof(T));

  00005	6a 08		 push	 8
  00007	8b f9		 mov	 edi, ecx
  00009	e8 00 00 00 00	 call	 ?CheckBuf@CAr@@QAEXI@Z	; CAr::CheckBuf

; 257  : 	*(UNALIGNED T*)m_lpBufCur = t;

  0000e	8b 45 08	 mov	 eax, DWORD PTR _t$[ebp]
  00011	8b 70 04	 mov	 esi, DWORD PTR [eax+4]
  00014	8b 10		 mov	 edx, DWORD PTR [eax]
  00016	8b 47 08	 mov	 eax, DWORD PTR [edi+8]
  00019	89 10		 mov	 DWORD PTR [eax], edx
  0001b	89 70 04	 mov	 DWORD PTR [eax+4], esi

; 258  : 	m_lpBufCur += sizeof(T);
; 259  : 	return *this;

  0001e	8b c7		 mov	 eax, edi
  00020	83 47 08 08	 add	 DWORD PTR [edi+8], 8
  00024	5f		 pop	 edi
  00025	5e		 pop	 esi

; 260  : }

  00026	5d		 pop	 ebp
  00027	c2 04 00	 ret	 4
??$?6_J@CAr@@QAEAAV0@AB_J@Z ENDP			; CAr::operator<<<__int64>
_TEXT	ENDS
; Function compile flags: /Ogtp
; File C:\IAGOS\server\v18\Source\Source\_Network\Misc\Include\Ar.h
;	COMDAT ??$?6E@CAr@@QAEAAV0@ABE@Z
_TEXT	SEGMENT
_t$ = 8							; size = 4
??$?6E@CAr@@QAEAAV0@ABE@Z PROC				; CAr::operator<<<unsigned char>, COMDAT
; _this$ = ecx

; 255  : {

  00000	55		 push	 ebp
  00001	8b ec		 mov	 ebp, esp
  00003	56		 push	 esi

; 256  : 	CheckBuf(sizeof(T));

  00004	6a 01		 push	 1
  00006	8b f1		 mov	 esi, ecx
  00008	e8 00 00 00 00	 call	 ?CheckBuf@CAr@@QAEXI@Z	; CAr::CheckBuf

; 257  : 	*(UNALIGNED T*)m_lpBufCur = t;

  0000d	8b 45 08	 mov	 eax, DWORD PTR _t$[ebp]
  00010	8b 56 08	 mov	 edx, DWORD PTR [esi+8]
  00013	8a 00		 mov	 al, BYTE PTR [eax]
  00015	88 02		 mov	 BYTE PTR [edx], al

; 258  : 	m_lpBufCur += sizeof(T);
; 259  : 	return *this;

  00017	8b c6		 mov	 eax, esi
  00019	ff 46 08	 inc	 DWORD PTR [esi+8]
  0001c	5e		 pop	 esi

; 260  : }

  0001d	5d		 pop	 ebp
  0001e	c2 04 00	 ret	 4
??$?6E@CAr@@QAEAAV0@ABE@Z ENDP				; CAr::operator<<<unsigned char>
_TEXT	ENDS
; Function compile flags: /Ogtp
;	COMDAT ??1?$pair@$$CBHV?$basic_string@DU?$char_traits@D@std@@V?$allocator@D@2@@std@@@std@@QAE@XZ
_TEXT	SEGMENT
??1?$pair@$$CBHV?$basic_string@DU?$char_traits@D@std@@V?$allocator@D@2@@std@@@std@@QAE@XZ PROC ; std::pair<int const ,std::basic_string<char,std::char_traits<char>,std::allocator<char> > >::~pair<int const ,std::basic_string<char,std::char_traits<char>,std::allocator<char> > >, COMDAT
; _this$ = ecx
  00000	83 c1 04	 add	 ecx, 4
  00003	e9 00 00 00 00	 jmp	 ??1?$basic_string@DU?$char_traits@D@std@@V?$allocator@D@2@@std@@QAE@XZ ; std::basic_string<char,std::char_traits<char>,std::allocator<char> >::~basic_string<char,std::char_traits<char>,std::allocator<char> >
??1?$pair@$$CBHV?$basic_string@DU?$char_traits@D@std@@V?$allocator@D@2@@std@@@std@@QAE@XZ ENDP ; std::pair<int const ,std::basic_string<char,std::char_traits<char>,std::allocator<char> > >::~pair<int const ,std::basic_string<char,std::char_traits<char>,std::allocator<char> > >
_TEXT	ENDS
; Function compile flags: /Ogtp
; File C:\IAGOS\server\v18\Source\Source\_Network\Misc\Include\Ar.h
;	COMDAT ??$?5_J@CAr@@QAEAAV0@AA_J@Z
_TEXT	SEGMENT
_t$ = 8							; size = 4
??$?5_J@CAr@@QAEAAV0@AA_J@Z PROC			; CAr::operator>><__int64>, COMDAT
; _this$ = ecx

; 302  : {

  00000	55		 push	 ebp
  00001	8b ec		 mov	 ebp, esp
  00003	56		 push	 esi
  00004	8b f1		 mov	 esi, ecx

; 303  : 	if (m_lpBufCur + sizeof(T) <= m_lpBufMax)

  00006	8b 56 08	 mov	 edx, DWORD PTR [esi+8]
  00009	8d 42 08	 lea	 eax, DWORD PTR [edx+8]
  0000c	3b 46 0c	 cmp	 eax, DWORD PTR [esi+12]
  0000f	8b 45 08	 mov	 eax, DWORD PTR _t$[ebp]
  00012	77 15		 ja	 SHORT $LN2@operator

; 304  : 	{
; 305  : 		t = *(UNALIGNED T*)m_lpBufCur;

  00014	8b 0a		 mov	 ecx, DWORD PTR [edx]
  00016	8b 52 04	 mov	 edx, DWORD PTR [edx+4]
  00019	89 08		 mov	 DWORD PTR [eax], ecx
  0001b	89 50 04	 mov	 DWORD PTR [eax+4], edx

; 312  : 	}
; 313  : 	return *this;
; 314  : }

  0001e	8b c6		 mov	 eax, esi
  00020	83 46 08 08	 add	 DWORD PTR [esi+8], 8
  00024	5e		 pop	 esi
  00025	5d		 pop	 ebp
  00026	c2 04 00	 ret	 4
$LN2@operator:

; 306  : 		m_lpBufCur += sizeof(T);
; 307  : 	}
; 308  : 	else
; 309  : 	{
; 310  : 		t = T();

  00029	c7 00 00 00 00
	00		 mov	 DWORD PTR [eax], 0
  0002f	c7 40 04 00 00
	00 00		 mov	 DWORD PTR [eax+4], 0

; 311  : 		m_lpBufCur = m_lpBufMax;

  00036	8b 46 0c	 mov	 eax, DWORD PTR [esi+12]
  00039	89 46 08	 mov	 DWORD PTR [esi+8], eax

; 312  : 	}
; 313  : 	return *this;
; 314  : }

  0003c	8b c6		 mov	 eax, esi
  0003e	5e		 pop	 esi
  0003f	5d		 pop	 ebp
  00040	c2 04 00	 ret	 4
??$?5_J@CAr@@QAEAAV0@AA_J@Z ENDP			; CAr::operator>><__int64>
_TEXT	ENDS
; Function compile flags: /Ogtp
; File C:\IAGOS\server\v18\Source\Source\_Network\Misc\Include\Ar.h
;	COMDAT ??$?5E@CAr@@QAEAAV0@AAE@Z
_TEXT	SEGMENT
_t$ = 8							; size = 4
??$?5E@CAr@@QAEAAV0@AAE@Z PROC				; CAr::operator>><unsigned char>, COMDAT
; _this$ = ecx

; 302  : {

  00000	55		 push	 ebp
  00001	8b ec		 mov	 ebp, esp
  00003	8b d1		 mov	 edx, ecx

; 303  : 	if (m_lpBufCur + sizeof(T) <= m_lpBufMax)

  00005	8b 4a 08	 mov	 ecx, DWORD PTR [edx+8]
  00008	8d 41 01	 lea	 eax, DWORD PTR [ecx+1]
  0000b	3b 42 0c	 cmp	 eax, DWORD PTR [edx+12]
  0000e	8b 45 08	 mov	 eax, DWORD PTR _t$[ebp]
  00011	77 0d		 ja	 SHORT $LN2@operator

; 304  : 	{
; 305  : 		t = *(UNALIGNED T*)m_lpBufCur;

  00013	8a 09		 mov	 cl, BYTE PTR [ecx]
  00015	88 08		 mov	 BYTE PTR [eax], cl

; 312  : 	}
; 313  : 	return *this;
; 314  : }

  00017	8b c2		 mov	 eax, edx
  00019	ff 42 08	 inc	 DWORD PTR [edx+8]
  0001c	5d		 pop	 ebp
  0001d	c2 04 00	 ret	 4
$LN2@operator:

; 306  : 		m_lpBufCur += sizeof(T);
; 307  : 	}
; 308  : 	else
; 309  : 	{
; 310  : 		t = T();

  00020	c6 00 00	 mov	 BYTE PTR [eax], 0

; 311  : 		m_lpBufCur = m_lpBufMax;

  00023	8b 42 0c	 mov	 eax, DWORD PTR [edx+12]
  00026	89 42 08	 mov	 DWORD PTR [edx+8], eax

; 312  : 	}
; 313  : 	return *this;
; 314  : }

  00029	8b c2		 mov	 eax, edx
  0002b	5d		 pop	 ebp
  0002c	c2 04 00	 ret	 4
??$?5E@CAr@@QAEAAV0@AAE@Z ENDP				; CAr::operator>><unsigned char>
_TEXT	ENDS
; Function compile flags: /Ogtp
; File C:\IAGOS\server\v18\Source\Source\_Network\Misc\Include\Ar.h
;	COMDAT ??$?6I@CAr@@QAEAAV0@ABI@Z
_TEXT	SEGMENT
_t$ = 8							; size = 4
??$?6I@CAr@@QAEAAV0@ABI@Z PROC				; CAr::operator<<<unsigned int>, COMDAT
; _this$ = ecx

; 255  : {

  00000	55		 push	 ebp
  00001	8b ec		 mov	 ebp, esp
  00003	56		 push	 esi

; 256  : 	CheckBuf(sizeof(T));

  00004	6a 04		 push	 4
  00006	8b f1		 mov	 esi, ecx
  00008	e8 00 00 00 00	 call	 ?CheckBuf@CAr@@QAEXI@Z	; CAr::CheckBuf

; 257  : 	*(UNALIGNED T*)m_lpBufCur = t;

  0000d	8b 56 08	 mov	 edx, DWORD PTR [esi+8]
  00010	8b 45 08	 mov	 eax, DWORD PTR _t$[ebp]
  00013	8b 00		 mov	 eax, DWORD PTR [eax]
  00015	89 02		 mov	 DWORD PTR [edx], eax

; 258  : 	m_lpBufCur += sizeof(T);
; 259  : 	return *this;

  00017	8b c6		 mov	 eax, esi
  00019	83 46 08 04	 add	 DWORD PTR [esi+8], 4
  0001d	5e		 pop	 esi

; 260  : }

  0001e	5d		 pop	 ebp
  0001f	c2 04 00	 ret	 4
??$?6I@CAr@@QAEAAV0@ABI@Z ENDP				; CAr::operator<<<unsigned int>
_TEXT	ENDS
; Function compile flags: /Ogtp
; File C:\Program Files\Microsoft Visual Studio\2022\Professional\VC\Tools\MSVC\14.44.35207\include\vector
; File C:\Program Files\Microsoft Visual Studio\2022\Professional\VC\Tools\MSVC\14.44.35207\include\xmemory
; File C:\Program Files\Microsoft Visual Studio\2022\Professional\VC\Tools\MSVC\14.44.35207\include\vector
; File C:\Program Files\Microsoft Visual Studio\2022\Professional\VC\Tools\MSVC\14.44.35207\include\xmemory
; File C:\Program Files\Microsoft Visual Studio\2022\Professional\VC\Tools\MSVC\14.44.35207\include\vector
; File C:\Program Files\Microsoft Visual Studio\2022\Professional\VC\Tools\MSVC\14.44.35207\include\xmemory
; File C:\Program Files\Microsoft Visual Studio\2022\Professional\VC\Tools\MSVC\14.44.35207\include\vector
;	COMDAT ??1?$vector@EV?$allocator@E@std@@@std@@QAE@XZ
_TEXT	SEGMENT
??1?$vector@EV?$allocator@E@std@@@std@@QAE@XZ PROC	; std::vector<unsigned char,std::allocator<unsigned char> >::~vector<unsigned char,std::allocator<unsigned char> >, COMDAT
; _this$ = ecx

; 829  :     _CONSTEXPR20 ~vector() noexcept {

  00000	56		 push	 esi
  00001	8b f1		 mov	 esi, ecx

; 2090 :         if (_Myfirst) { // destroy and deallocate old array

  00003	8b 06		 mov	 eax, DWORD PTR [esi]
  00005	85 c0		 test	 eax, eax
  00007	74 3d		 je	 SHORT $LN5@vector

; 2091 :             _STD _Destroy_range(_Myfirst, _Mylast, _Al);
; 2092 :             _ASAN_VECTOR_REMOVE;
; 2093 :             _Al.deallocate(_Myfirst, static_cast<size_type>(_Myend - _Myfirst));

  00009	8b 4e 08	 mov	 ecx, DWORD PTR [esi+8]
  0000c	2b c8		 sub	 ecx, eax
; File C:\Program Files\Microsoft Visual Studio\2022\Professional\VC\Tools\MSVC\14.44.35207\include\xmemory

; 284  :         if (_Bytes >= _Big_allocation_threshold) {

  0000e	81 f9 00 10 00
	00		 cmp	 ecx, 4096		; 00001000H
  00014	72 12		 jb	 SHORT $LN18@vector

; 205  :     const uintptr_t _Ptr_container   = _Ptr_user[-1];

  00016	8b 50 fc	 mov	 edx, DWORD PTR [eax-4]
  00019	83 c1 23	 add	 ecx, 35			; 00000023H

; 206  : 
; 207  :     // If the following asserts, it likely means that we are performing
; 208  :     // an aligned delete on memory coming from an unaligned allocation.
; 209  :     _STL_ASSERT(_Ptr_user[-2] == _Big_allocation_sentinel, "invalid argument");
; 210  : 
; 211  :     // Extra paranoia on aligned allocation/deallocation; ensure _Ptr_container is
; 212  :     // in range [_Min_back_shift, _Non_user_size]
; 213  : #ifdef _DEBUG
; 214  :     constexpr uintptr_t _Min_back_shift = 2 * sizeof(void*);
; 215  : #else // ^^^ defined(_DEBUG) / !defined(_DEBUG) vvv
; 216  :     constexpr uintptr_t _Min_back_shift = sizeof(void*);
; 217  : #endif // ^^^ !defined(_DEBUG) ^^^
; 218  :     const uintptr_t _Back_shift = reinterpret_cast<uintptr_t>(_Ptr) - _Ptr_container;

  0001c	2b c2		 sub	 eax, edx

; 219  :     _STL_VERIFY(_Back_shift >= _Min_back_shift && _Back_shift <= _Non_user_size, "invalid argument");

  0001e	83 c0 fc	 add	 eax, -4			; fffffffcH
  00021	83 f8 1f	 cmp	 eax, 31			; 0000001fH
  00024	77 22		 ja	 SHORT $LN17@vector

; 220  :     _Ptr = reinterpret_cast<void*>(_Ptr_container);

  00026	8b c2		 mov	 eax, edx
$LN18@vector:

; 289  :         ::operator delete(_Ptr, _Bytes);

  00028	51		 push	 ecx
  00029	50		 push	 eax
  0002a	e8 00 00 00 00	 call	 ??3@YAXPAXI@Z		; operator delete
; File C:\Program Files\Microsoft Visual Studio\2022\Professional\VC\Tools\MSVC\14.44.35207\include\vector

; 2095 :             _Myfirst = nullptr;

  0002f	c7 06 00 00 00
	00		 mov	 DWORD PTR [esi], 0
; File C:\Program Files\Microsoft Visual Studio\2022\Professional\VC\Tools\MSVC\14.44.35207\include\xmemory

; 289  :         ::operator delete(_Ptr, _Bytes);

  00035	83 c4 08	 add	 esp, 8
; File C:\Program Files\Microsoft Visual Studio\2022\Professional\VC\Tools\MSVC\14.44.35207\include\vector

; 2096 :             _Mylast  = nullptr;

  00038	c7 46 04 00 00
	00 00		 mov	 DWORD PTR [esi+4], 0

; 2097 :             _Myend   = nullptr;

  0003f	c7 46 08 00 00
	00 00		 mov	 DWORD PTR [esi+8], 0
$LN5@vector:
  00046	5e		 pop	 esi

; 835  :     }

  00047	c3		 ret	 0
$LN17@vector:
; File C:\Program Files\Microsoft Visual Studio\2022\Professional\VC\Tools\MSVC\14.44.35207\include\xmemory

; 219  :     _STL_VERIFY(_Back_shift >= _Min_back_shift && _Back_shift <= _Non_user_size, "invalid argument");

  00048	6a 00		 push	 0
  0004a	6a 00		 push	 0
  0004c	6a 00		 push	 0
  0004e	6a 00		 push	 0
  00050	6a 00		 push	 0
  00052	e8 00 00 00 00	 call	 __invoke_watson
$LN26@vector:
  00057	cc		 int	 3
??1?$vector@EV?$allocator@E@std@@@std@@QAE@XZ ENDP	; std::vector<unsigned char,std::allocator<unsigned char> >::~vector<unsigned char,std::allocator<unsigned char> >
_TEXT	ENDS
; Function compile flags: /Ogtp
;	COMDAT ??__FsDPTrans@?1??GetInstance@CDPTrans@@SAPAV1@XZ@YAXXZ
text$yd	SEGMENT
??__FsDPTrans@?1??GetInstance@CDPTrans@@SAPAV1@XZ@YAXXZ PROC ; `CDPTrans::GetInstance'::`2'::`dynamic atexit destructor for 'sDPTrans'', COMDAT
  00000	b9 00 00 00 00	 mov	 ecx, OFFSET ?sDPTrans@?1??GetInstance@CDPTrans@@SAPAV2@XZ@4V2@A
  00005	e9 00 00 00 00	 jmp	 ??1CDPTrans@@UAE@XZ	; CDPTrans::~CDPTrans
??__FsDPTrans@?1??GetInstance@CDPTrans@@SAPAV1@XZ@YAXXZ ENDP ; `CDPTrans::GetInstance'::`2'::`dynamic atexit destructor for 'sDPTrans''
text$yd	ENDS
; Function compile flags: /Ogtp
; File C:\Program Files\Microsoft Visual Studio\2022\Professional\VC\Tools\MSVC\14.44.35207\include\xtree
; File C:\Program Files\Microsoft Visual Studio\2022\Professional\VC\Tools\MSVC\14.44.35207\include\type_traits
; File C:\Program Files\Microsoft Visual Studio\2022\Professional\VC\Tools\MSVC\14.44.35207\include\xtree
; File C:\Program Files\Microsoft Visual Studio\2022\Professional\VC\Tools\MSVC\14.44.35207\include\utility
; File C:\Program Files\Microsoft Visual Studio\2022\Professional\VC\Tools\MSVC\14.44.35207\include\xtree
; File C:\Program Files\Microsoft Visual Studio\2022\Professional\VC\Tools\MSVC\14.44.35207\include\xmemory
; File C:\Program Files\Microsoft Visual Studio\2022\Professional\VC\Tools\MSVC\14.44.35207\include\xtree
; File C:\Program Files\Microsoft Visual Studio\2022\Professional\VC\Tools\MSVC\14.44.35207\include\xmemory
; File C:\Program Files\Microsoft Visual Studio\2022\Professional\VC\Tools\MSVC\14.44.35207\include\xtree
; File C:\Program Files\Microsoft Visual Studio\2022\Professional\VC\Tools\MSVC\14.44.35207\include\xmemory
; File C:\Program Files\Microsoft Visual Studio\2022\Professional\VC\Tools\MSVC\14.44.35207\include\xtree
; File C:\Program Files\Microsoft Visual Studio\2022\Professional\VC\Tools\MSVC\14.44.35207\include\utility
; File C:\Program Files\Microsoft Visual Studio\2022\Professional\VC\Tools\MSVC\14.44.35207\include\xtree
;	COMDAT ??$insert@$0A@$0A@@?$_Tree@V?$_Tmap_traits@KP8CDPTrans@@AEXAAVCAr@@KKKPAEK@ZU?$less@K@std@@V?$allocator@U?$pair@$$CBKP8CDPTrans@@AEXAAVCAr@@KKKPAEK@Z@std@@@4@$0A@@std@@@std@@QAE?AU?$pair@V?$_Tree_iterator@V?$_Tree_val@U?$_Tree_simple_types@U?$pair@$$CBKP8CDPTrans@@AEXAAVCAr@@KKKPAEK@Z@std@@@std@@@std@@@std@@_N@1@$$QAU?$pair@$$CBKP8CDPTrans@@AEXAAVCAr@@KKKPAEK@Z@1@@Z
_TEXT	SEGMENT
__Loc$2 = -36						; size = 12
$T3 = -24						; size = 12
$T4 = -20						; size = 8
__$EHRec$ = -12						; size = 12
___$ReturnUdt$ = 8					; size = 4
__Val$ = 12						; size = 4
??$insert@$0A@$0A@@?$_Tree@V?$_Tmap_traits@KP8CDPTrans@@AEXAAVCAr@@KKKPAEK@ZU?$less@K@std@@V?$allocator@U?$pair@$$CBKP8CDPTrans@@AEXAAVCAr@@KKKPAEK@Z@std@@@4@$0A@@std@@@std@@QAE?AU?$pair@V?$_Tree_iterator@V?$_Tree_val@U?$_Tree_simple_types@U?$pair@$$CBKP8CDPTrans@@AEXAAVCAr@@KKKPAEK@Z@std@@@std@@@std@@@std@@_N@1@$$QAU?$pair@$$CBKP8CDPTrans@@AEXAAVCAr@@KKKPAEK@Z@1@@Z PROC ; std::_Tree<std::_Tmap_traits<unsigned long,void (__thiscall CDPTrans::*)(CAr &,unsigned long,unsigned long,unsigned long,unsigned char *,unsigned long),std::less<unsigned long>,std::allocator<std::pair<unsigned long const ,void (__thiscall CDPTrans::*)(CAr &,unsigned long,unsigned long,unsigned long,unsigned char *,unsigned long)> >,0> >::insert<0,0>, COMDAT
; _this$ = ecx

; 1245 :     pair<iterator, bool> insert(value_type&& _Val) {

  00000	55		 push	 ebp
  00001	8b ec		 mov	 ebp, esp
  00003	6a ff		 push	 -1
  00005	68 00 00 00 00	 push	 __ehhandler$??$insert@$0A@$0A@@?$_Tree@V?$_Tmap_traits@KP8CDPTrans@@AEXAAVCAr@@KKKPAEK@ZU?$less@K@std@@V?$allocator@U?$pair@$$CBKP8CDPTrans@@AEXAAVCAr@@KKKPAEK@Z@std@@@4@$0A@@std@@@std@@QAE?AU?$pair@V?$_Tree_iterator@V?$_Tree_val@U?$_Tree_simple_types@U?$pair@$$CBKP8CDPTrans@@AEXAAVCAr@@KKKPAEK@Z@std@@@std@@@std@@@std@@_N@1@$$QAU?$pair@$$CBKP8CDPTrans@@AEXAAVCAr@@KKKPAEK@Z@1@@Z
  0000a	64 a1 00 00 00
	00		 mov	 eax, DWORD PTR fs:0
  00010	50		 push	 eax
  00011	83 ec 18	 sub	 esp, 24			; 00000018H
  00014	53		 push	 ebx
  00015	56		 push	 esi
  00016	57		 push	 edi
  00017	a1 00 00 00 00	 mov	 eax, DWORD PTR ___security_cookie
  0001c	33 c5		 xor	 eax, ebp
  0001e	50		 push	 eax
  0001f	8d 45 f4	 lea	 eax, DWORD PTR __$EHRec$[ebp]
  00022	64 a3 00 00 00
	00		 mov	 DWORD PTR fs:0, eax
  00028	8b f9		 mov	 edi, ecx

; 1017 :             _Loc                = _Find_lower_bound(_Keyval);

  0002a	8b 5d 0c	 mov	 ebx, DWORD PTR __Val$[ebp]
  0002d	8d 45 e8	 lea	 eax, DWORD PTR $T3[ebp]
  00030	53		 push	 ebx
  00031	50		 push	 eax
  00032	e8 00 00 00 00	 call	 ??$_Find_lower_bound@K@?$_Tree@V?$_Tmap_traits@KP8CDPTrans@@AEXAAVCAr@@KKKPAEK@ZU?$less@K@std@@V?$allocator@U?$pair@$$CBKP8CDPTrans@@AEXAAVCAr@@KKKPAEK@Z@std@@@4@$0A@@std@@@std@@IBE?AU?$_Tree_find_result@PAU?$_Tree_node@U?$pair@$$CBKP8CDPTrans@@AEXAAVCAr@@KKKPAEK@Z@std@@PAX@std@@@1@ABK@Z ; std::_Tree<std::_Tmap_traits<unsigned long,void (__thiscall CDPTrans::*)(CAr &,unsigned long,unsigned long,unsigned long,unsigned char *,unsigned long),std::less<unsigned long>,std::allocator<std::pair<unsigned long const ,void (__thiscall CDPTrans::*)(CAr &,unsigned long,unsigned long,unsigned long,unsigned char *,unsigned long)> >,0> >::_Find_lower_bound<unsigned long>
  00037	8b 48 08	 mov	 ecx, DWORD PTR [eax+8]
  0003a	f3 0f 7e 00	 movq	 xmm0, QWORD PTR [eax]
  0003e	66 0f d6 45 dc	 movq	 QWORD PTR __Loc$2[ebp], xmm0

; 1624 :         return !_Bound->_Isnil && !_DEBUG_LT_PRED(_Getcomp(), _Keyval, _Traits::_Kfn(_Bound->_Myval));

  00043	80 79 0d 00	 cmp	 BYTE PTR [ecx+13], 0
  00047	75 0b		 jne	 SHORT $LN4@insert
; File C:\Program Files\Microsoft Visual Studio\2022\Professional\VC\Tools\MSVC\14.44.35207\include\type_traits

; 2380 :         return _Left < _Right;

  00049	8b 03		 mov	 eax, DWORD PTR [ebx]
  0004b	3b 41 10	 cmp	 eax, DWORD PTR [ecx+16]
; File C:\Program Files\Microsoft Visual Studio\2022\Professional\VC\Tools\MSVC\14.44.35207\include\xtree

; 1624 :         return !_Bound->_Isnil && !_DEBUG_LT_PRED(_Getcomp(), _Keyval, _Traits::_Kfn(_Bound->_Myval));

  0004e	72 04		 jb	 SHORT $LN4@insert
; File C:\Program Files\Microsoft Visual Studio\2022\Professional\VC\Tools\MSVC\14.44.35207\include\utility

; 274  :         : first(_STD forward<_Other1>(_Val1)), second(_STD forward<_Other2>(_Val2)) {

  00050	32 d2		 xor	 dl, dl
; File C:\Program Files\Microsoft Visual Studio\2022\Professional\VC\Tools\MSVC\14.44.35207\include\xtree

; 1019 :                 return {_Loc._Bound, false};

  00052	eb 51		 jmp	 SHORT $LN84@insert
$LN4@insert:

; 1648 :         if (max_size() == _Get_scary()->_Mysize) {

  00054	81 7f 04 aa aa
	aa 0a		 cmp	 DWORD PTR [edi+4], 178956970 ; 0aaaaaaaH
  0005b	74 64		 je	 SHORT $LN103@insert

; 1023 :             _Inserted = _Tree_temp_node<_Alnode>(_Getal(), _Scary->_Myhead, _STD forward<_Valtys>(_Vals)...)._Release();

  0005d	8b 37		 mov	 esi, DWORD PTR [edi]
; File C:\Program Files\Microsoft Visual Studio\2022\Professional\VC\Tools\MSVC\14.44.35207\include\xmemory

; 1160 :     _CONSTEXPR20 explicit _Alloc_construct_ptr(_Alloc& _Al_) : _Al(_Al_), _Ptr(nullptr) {}

  0005f	89 7d ec	 mov	 DWORD PTR $T4[ebp], edi

; 136  :         return ::operator new(_Bytes);

  00062	6a 18		 push	 24			; 00000018H
; File C:\Program Files\Microsoft Visual Studio\2022\Professional\VC\Tools\MSVC\14.44.35207\include\xtree

; 808  :     explicit _Tree_temp_node_alloc(_Alnode& _Al_) : _Alloc_construct_ptr<_Alnode>(_Al_) {

  00064	c7 45 fc 00 00
	00 00		 mov	 DWORD PTR __$EHRec$[ebp+8], 0
; File C:\Program Files\Microsoft Visual Studio\2022\Professional\VC\Tools\MSVC\14.44.35207\include\xmemory

; 1167 :         _Ptr = nullptr; // if allocate throws, prevents double-free

  0006b	c7 45 f0 00 00
	00 00		 mov	 DWORD PTR $T4[ebp+4], 0

; 136  :         return ::operator new(_Bytes);

  00072	e8 00 00 00 00	 call	 ??2@YAPAXI@Z		; operator new
; File C:\Program Files\Microsoft Visual Studio\2022\Professional\VC\Tools\MSVC\14.44.35207\include\xtree

; 830  :         _Alnode_traits::construct(this->_Al, _STD addressof(this->_Ptr->_Myval), _STD forward<_Valtys>(_Vals)...);

  00077	8b 0b		 mov	 ecx, DWORD PTR [ebx]
; File C:\Program Files\Microsoft Visual Studio\2022\Professional\VC\Tools\MSVC\14.44.35207\include\xmemory

; 136  :         return ::operator new(_Bytes);

  00079	83 c4 04	 add	 esp, 4
; File C:\Program Files\Microsoft Visual Studio\2022\Professional\VC\Tools\MSVC\14.44.35207\include\xtree

; 830  :         _Alnode_traits::construct(this->_Al, _STD addressof(this->_Ptr->_Myval), _STD forward<_Valtys>(_Vals)...);

  0007c	8b 53 04	 mov	 edx, DWORD PTR [ebx+4]
  0007f	89 48 10	 mov	 DWORD PTR [eax+16], ecx

; 1042 :         return {_Scary->_Insert_node(_Loc._Location, _Inserted), true};

  00082	8b cf		 mov	 ecx, edi
  00084	50		 push	 eax
  00085	ff 75 e0	 push	 DWORD PTR __Loc$2[ebp+4]

; 830  :         _Alnode_traits::construct(this->_Al, _STD addressof(this->_Ptr->_Myval), _STD forward<_Valtys>(_Vals)...);

  00088	89 50 14	 mov	 DWORD PTR [eax+20], edx

; 1042 :         return {_Scary->_Insert_node(_Loc._Location, _Inserted), true};

  0008b	ff 75 dc	 push	 DWORD PTR __Loc$2[ebp]

; 831  :         _Construct_in_place(this->_Ptr->_Left, _Myhead);

  0008e	89 30		 mov	 DWORD PTR [eax], esi

; 832  :         _Construct_in_place(this->_Ptr->_Parent, _Myhead);

  00090	89 70 04	 mov	 DWORD PTR [eax+4], esi

; 833  :         _Construct_in_place(this->_Ptr->_Right, _Myhead);

  00093	89 70 08	 mov	 DWORD PTR [eax+8], esi

; 834  :         this->_Ptr->_Color = _Red;

  00096	66 c7 40 0c 00
	00		 mov	 WORD PTR [eax+12], 0

; 1042 :         return {_Scary->_Insert_node(_Loc._Location, _Inserted), true};

  0009c	e8 00 00 00 00	 call	 ?_Insert_node@?$_Tree_val@U?$_Tree_simple_types@U?$pair@$$CBKP8CDPTrans@@AEXAAVCAr@@KKKPAEK@Z@std@@@std@@@std@@QAEPAU?$_Tree_node@U?$pair@$$CBKP8CDPTrans@@AEXAAVCAr@@KKKPAEK@Z@std@@PAX@2@U?$_Tree_id@PAU?$_Tree_node@U?$pair@$$CBKP8CDPTrans@@AEXAAVCAr@@KKKPAEK@Z@std@@PAX@std@@@2@QAU32@@Z ; std::_Tree_val<std::_Tree_simple_types<std::pair<unsigned long const ,void (__thiscall CDPTrans::*)(CAr &,unsigned long,unsigned long,unsigned long,unsigned char *,unsigned long)> > >::_Insert_node
; File C:\Program Files\Microsoft Visual Studio\2022\Professional\VC\Tools\MSVC\14.44.35207\include\utility

; 274  :         : first(_STD forward<_Other1>(_Val1)), second(_STD forward<_Other2>(_Val2)) {

  000a1	8b c8		 mov	 ecx, eax
  000a3	b2 01		 mov	 dl, 1
$LN84@insert:
  000a5	8b 45 08	 mov	 eax, DWORD PTR ___$ReturnUdt$[ebp]
  000a8	89 08		 mov	 DWORD PTR [eax], ecx
  000aa	88 50 04	 mov	 BYTE PTR [eax+4], dl
; File C:\Program Files\Microsoft Visual Studio\2022\Professional\VC\Tools\MSVC\14.44.35207\include\xtree

; 1248 :     }

  000ad	8b 4d f4	 mov	 ecx, DWORD PTR __$EHRec$[ebp]
  000b0	64 89 0d 00 00
	00 00		 mov	 DWORD PTR fs:0, ecx
  000b7	59		 pop	 ecx
  000b8	5f		 pop	 edi
  000b9	5e		 pop	 esi
  000ba	5b		 pop	 ebx
  000bb	8b e5		 mov	 esp, ebp
  000bd	5d		 pop	 ebp
  000be	c2 08 00	 ret	 8
$LN103@insert:

; 1649 :             _Throw_tree_length_error();

  000c1	e8 00 00 00 00	 call	 ?_Throw_tree_length_error@std@@YAXXZ ; std::_Throw_tree_length_error
$LN101@insert:
  000c6	cc		 int	 3
_TEXT	ENDS
;	COMDAT text$x
text$x	SEGMENT
__unwindfunclet$??$insert@$0A@$0A@@?$_Tree@V?$_Tmap_traits@KP8CDPTrans@@AEXAAVCAr@@KKKPAEK@ZU?$less@K@std@@V?$allocator@U?$pair@$$CBKP8CDPTrans@@AEXAAVCAr@@KKKPAEK@Z@std@@@4@$0A@@std@@@std@@QAE?AU?$pair@V?$_Tree_iterator@V?$_Tree_val@U?$_Tree_simple_types@U?$pair@$$CBKP8CDPTrans@@AEXAAVCAr@@KKKPAEK@Z@std@@@std@@@std@@@std@@_N@1@$$QAU?$pair@$$CBKP8CDPTrans@@AEXAAVCAr@@KKKPAEK@Z@1@@Z$2:
  00000	8d 4d ec	 lea	 ecx, DWORD PTR $T4[ebp]
  00003	e9 00 00 00 00	 jmp	 ??1?$_Alloc_construct_ptr@V?$allocator@U?$_Tree_node@U?$pair@$$CBKP8CDPTrans@@AEXAAVCAr@@KKKPAEK@Z@std@@PAX@std@@@std@@@std@@QAE@XZ ; std::_Alloc_construct_ptr<std::allocator<std::_Tree_node<std::pair<unsigned long const ,void (__thiscall CDPTrans::*)(CAr &,unsigned long,unsigned long,unsigned long,unsigned char *,unsigned long)>,void *> > >::~_Alloc_construct_ptr<std::allocator<std::_Tree_node<std::pair<unsigned long const ,void (__thiscall CDPTrans::*)(CAr &,unsigned long,unsigned long,unsigned long,unsigned char *,unsigned long)>,void *> > >
  00008	cc		 int	 3
  00009	cc		 int	 3
  0000a	cc		 int	 3
  0000b	cc		 int	 3
  0000c	cc		 int	 3
__ehhandler$??$insert@$0A@$0A@@?$_Tree@V?$_Tmap_traits@KP8CDPTrans@@AEXAAVCAr@@KKKPAEK@ZU?$less@K@std@@V?$allocator@U?$pair@$$CBKP8CDPTrans@@AEXAAVCAr@@KKKPAEK@Z@std@@@4@$0A@@std@@@std@@QAE?AU?$pair@V?$_Tree_iterator@V?$_Tree_val@U?$_Tree_simple_types@U?$pair@$$CBKP8CDPTrans@@AEXAAVCAr@@KKKPAEK@Z@std@@@std@@@std@@@std@@_N@1@$$QAU?$pair@$$CBKP8CDPTrans@@AEXAAVCAr@@KKKPAEK@Z@1@@Z:
  0000d	90		 npad	 1
  0000e	90		 npad	 1
  0000f	8b 54 24 08	 mov	 edx, DWORD PTR [esp+8]
  00013	8d 42 0c	 lea	 eax, DWORD PTR [edx+12]
  00016	8b 4a d8	 mov	 ecx, DWORD PTR [edx-40]
  00019	33 c8		 xor	 ecx, eax
  0001b	e8 00 00 00 00	 call	 @__security_check_cookie@4
  00020	b8 00 00 00 00	 mov	 eax, OFFSET __ehfuncinfo$??$insert@$0A@$0A@@?$_Tree@V?$_Tmap_traits@KP8CDPTrans@@AEXAAVCAr@@KKKPAEK@ZU?$less@K@std@@V?$allocator@U?$pair@$$CBKP8CDPTrans@@AEXAAVCAr@@KKKPAEK@Z@std@@@4@$0A@@std@@@std@@QAE?AU?$pair@V?$_Tree_iterator@V?$_Tree_val@U?$_Tree_simple_types@U?$pair@$$CBKP8CDPTrans@@AEXAAVCAr@@KKKPAEK@Z@std@@@std@@@std@@@std@@_N@1@$$QAU?$pair@$$CBKP8CDPTrans@@AEXAAVCAr@@KKKPAEK@Z@1@@Z
  00025	e9 00 00 00 00	 jmp	 ___CxxFrameHandler3
text$x	ENDS
??$insert@$0A@$0A@@?$_Tree@V?$_Tmap_traits@KP8CDPTrans@@AEXAAVCAr@@KKKPAEK@ZU?$less@K@std@@V?$allocator@U?$pair@$$CBKP8CDPTrans@@AEXAAVCAr@@KKKPAEK@Z@std@@@4@$0A@@std@@@std@@QAE?AU?$pair@V?$_Tree_iterator@V?$_Tree_val@U?$_Tree_simple_types@U?$pair@$$CBKP8CDPTrans@@AEXAAVCAr@@KKKPAEK@Z@std@@@std@@@std@@@std@@_N@1@$$QAU?$pair@$$CBKP8CDPTrans@@AEXAAVCAr@@KKKPAEK@Z@1@@Z ENDP ; std::_Tree<std::_Tmap_traits<unsigned long,void (__thiscall CDPTrans::*)(CAr &,unsigned long,unsigned long,unsigned long,unsigned char *,unsigned long),std::less<unsigned long>,std::allocator<std::pair<unsigned long const ,void (__thiscall CDPTrans::*)(CAr &,unsigned long,unsigned long,unsigned long,unsigned char *,unsigned long)> >,0> >::insert<0,0>
; Function compile flags: /Ogtp
;	COMDAT ??_GCDPTrans@@UAEPAXI@Z
_TEXT	SEGMENT
___flags$ = 8						; size = 4
??_GCDPTrans@@UAEPAXI@Z PROC				; CDPTrans::`scalar deleting destructor', COMDAT
; _this$ = ecx
  00000	55		 push	 ebp
  00001	8b ec		 mov	 ebp, esp
  00003	56		 push	 esi
  00004	8b f1		 mov	 esi, ecx
  00006	e8 00 00 00 00	 call	 ??1CDPTrans@@UAE@XZ	; CDPTrans::~CDPTrans
  0000b	f6 45 08 01	 test	 BYTE PTR ___flags$[ebp], 1
  0000f	74 0b		 je	 SHORT $LN5@scalar
  00011	6a 1c		 push	 28			; 0000001cH
  00013	56		 push	 esi
  00014	e8 00 00 00 00	 call	 ??3@YAXPAXI@Z		; operator delete
  00019	83 c4 08	 add	 esp, 8
$LN5@scalar:
  0001c	8b c6		 mov	 eax, esi
  0001e	5e		 pop	 esi
  0001f	5d		 pop	 ebp
  00020	c2 04 00	 ret	 4
??_GCDPTrans@@UAEPAXI@Z ENDP				; CDPTrans::`scalar deleting destructor'
_TEXT	ENDS
; Function compile flags: /Ogtp
; File C:\IAGOS\server\v18\Source\Source\DatabaseServer\dptrans.cpp
; File C:\IAGOS\server\v18\Source\Source\_Network\Net\Include\DPMng.h
; File C:\IAGOS\server\v18\Source\Source\DatabaseServer\dptrans.cpp
;	COMDAT ?SendUpdateCampusPoint@CDPTrans@@QAEXKH@Z
_TEXT	SEGMENT
_nBufSize$ = -16436					; size = 4
$T2 = -16432						; size = 4
$T3 = -16428						; size = 4
$T4 = -16424						; size = 4
_ar$ = -16420						; size = 16404
__$ArrayPad$ = -16					; size = 4
__$EHRec$ = -12						; size = 12
_idPlayer$ = 8						; size = 4
_nCampusPoint$ = 12					; size = 4
?SendUpdateCampusPoint@CDPTrans@@QAEXKH@Z PROC		; CDPTrans::SendUpdateCampusPoint, COMDAT
; _this$ = ecx

; 2298 : {

  00000	55		 push	 ebp
  00001	8b ec		 mov	 ebp, esp
  00003	6a ff		 push	 -1
  00005	68 00 00 00 00	 push	 __ehhandler$?SendUpdateCampusPoint@CDPTrans@@QAEXKH@Z
  0000a	64 a1 00 00 00
	00		 mov	 eax, DWORD PTR fs:0
  00010	50		 push	 eax
  00011	b8 28 40 00 00	 mov	 eax, 16424		; 00004028H
  00016	e8 00 00 00 00	 call	 __chkstk
  0001b	a1 00 00 00 00	 mov	 eax, DWORD PTR ___security_cookie
  00020	33 c5		 xor	 eax, ebp
  00022	89 45 f0	 mov	 DWORD PTR __$ArrayPad$[ebp], eax
  00025	56		 push	 esi
  00026	50		 push	 eax
  00027	8d 45 f4	 lea	 eax, DWORD PTR __$EHRec$[ebp]
  0002a	64 a3 00 00 00
	00		 mov	 DWORD PTR fs:0, eax
  00030	8b f1		 mov	 esi, ecx

; 2299 : 	BEFORESENDDUAL( ar, PACKETTYPE_CAMPUS_UPDATE_POINT, DPID_UNKNOWN, DPID_UNKNOWN );

  00032	6a 00		 push	 0
  00034	6a 00		 push	 0
  00036	8d 8d dc bf ff
	ff		 lea	 ecx, DWORD PTR _ar$[ebp]
  0003c	e8 00 00 00 00	 call	 ??0CAr@@QAE@PAXI@Z	; CAr::CAr
  00041	8d 85 d8 bf ff
	ff		 lea	 eax, DWORD PTR $T4[ebp]
  00047	c7 45 fc 00 00
	00 00		 mov	 DWORD PTR __$EHRec$[ebp+8], 0
  0004e	50		 push	 eax
  0004f	8d 85 d4 bf ff
	ff		 lea	 eax, DWORD PTR $T3[ebp]
  00055	c7 85 d8 bf ff
	ff 26 01 10 88	 mov	 DWORD PTR $T4[ebp], -2012217050 ; 88100126H
  0005f	50		 push	 eax
  00060	8d 85 d0 bf ff
	ff		 lea	 eax, DWORD PTR $T2[ebp]
  00066	c7 85 d4 bf ff
	ff ff ff ff ff	 mov	 DWORD PTR $T3[ebp], -1
  00070	50		 push	 eax
  00071	8d 8d dc bf ff
	ff		 lea	 ecx, DWORD PTR _ar$[ebp]
  00077	c7 85 d0 bf ff
	ff ff ff ff ff	 mov	 DWORD PTR $T2[ebp], -1
  00081	e8 00 00 00 00	 call	 ??$?6I@CAr@@QAEAAV0@ABI@Z ; CAr::operator<<<unsigned int>
  00086	8b c8		 mov	 ecx, eax
  00088	e8 00 00 00 00	 call	 ??$?6I@CAr@@QAEAAV0@ABI@Z ; CAr::operator<<<unsigned int>
  0008d	8b c8		 mov	 ecx, eax
  0008f	e8 00 00 00 00	 call	 ??$?6K@CAr@@QAEAAV0@ABK@Z ; CAr::operator<<<unsigned long>

; 2300 : 	ar << idPlayer << nCampusPoint;

  00094	8d 45 0c	 lea	 eax, DWORD PTR _nCampusPoint$[ebp]
  00097	50		 push	 eax
  00098	8d 45 08	 lea	 eax, DWORD PTR _idPlayer$[ebp]
  0009b	50		 push	 eax
  0009c	8d 8d dc bf ff
	ff		 lea	 ecx, DWORD PTR _ar$[ebp]
  000a2	e8 00 00 00 00	 call	 ??$?6K@CAr@@QAEAAV0@ABK@Z ; CAr::operator<<<unsigned long>
  000a7	8b c8		 mov	 ecx, eax
  000a9	e8 00 00 00 00	 call	 ??$?6H@CAr@@QAEAAV0@ABH@Z ; CAr::operator<<<int>

; 2301 : 	SEND( ar, this, DPID_ALLPLAYERS );

  000ae	8d 85 cc bf ff
	ff		 lea	 eax, DWORD PTR _nBufSize$[ebp]
  000b4	50		 push	 eax
  000b5	8d 8d dc bf ff
	ff		 lea	 ecx, DWORD PTR _ar$[ebp]
  000bb	e8 00 00 00 00	 call	 ?GetBuffer@CAr@@QAEPAEPAH@Z ; CAr::GetBuffer
; File C:\IAGOS\server\v18\Source\Source\_Network\Net\Include\DPMng.h

; 171  : 	if( !m_pDPSock )

  000c0	8b 4e 04	 mov	 ecx, DWORD PTR [esi+4]
  000c3	85 c9		 test	 ecx, ecx
  000c5	74 0e		 je	 SHORT $LN4@SendUpdate

; 172  : 		return FALSE;
; 173  : 	return m_pDPSock->Send( (char*)lpData, dwDataSize, dpidTo );

  000c7	6a 00		 push	 0
  000c9	ff b5 cc bf ff
	ff		 push	 DWORD PTR _nBufSize$[ebp]
  000cf	50		 push	 eax
  000d0	e8 00 00 00 00	 call	 ?Send@CDPSock@@QAEHPADKK@Z ; CDPSock::Send
$LN4@SendUpdate:
; File C:\IAGOS\server\v18\Source\Source\DatabaseServer\dptrans.cpp

; 2302 : }

  000d5	8d 8d dc bf ff
	ff		 lea	 ecx, DWORD PTR _ar$[ebp]
  000db	e8 00 00 00 00	 call	 ??1CAr@@QAE@XZ		; CAr::~CAr
  000e0	8b 4d f4	 mov	 ecx, DWORD PTR __$EHRec$[ebp]
  000e3	64 89 0d 00 00
	00 00		 mov	 DWORD PTR fs:0, ecx
  000ea	59		 pop	 ecx
  000eb	5e		 pop	 esi
  000ec	8b 4d f0	 mov	 ecx, DWORD PTR __$ArrayPad$[ebp]
  000ef	33 cd		 xor	 ecx, ebp
  000f1	e8 00 00 00 00	 call	 @__security_check_cookie@4
  000f6	8b e5		 mov	 esp, ebp
  000f8	5d		 pop	 ebp
  000f9	c2 08 00	 ret	 8
_TEXT	ENDS
;	COMDAT text$x
text$x	SEGMENT
__unwindfunclet$?SendUpdateCampusPoint@CDPTrans@@QAEXKH@Z$0:
  00000	8d 8d dc bf ff
	ff		 lea	 ecx, DWORD PTR _ar$[ebp]
  00006	e9 00 00 00 00	 jmp	 ??1CAr@@QAE@XZ		; CAr::~CAr
  0000b	cc		 int	 3
  0000c	cc		 int	 3
  0000d	cc		 int	 3
  0000e	cc		 int	 3
  0000f	cc		 int	 3
__ehhandler$?SendUpdateCampusPoint@CDPTrans@@QAEXKH@Z:
  00010	90		 npad	 1
  00011	90		 npad	 1
  00012	8b 54 24 08	 mov	 edx, DWORD PTR [esp+8]
  00016	8d 42 0c	 lea	 eax, DWORD PTR [edx+12]
  00019	8b 8a d0 bf ff
	ff		 mov	 ecx, DWORD PTR [edx-16432]
  0001f	33 c8		 xor	 ecx, eax
  00021	e8 00 00 00 00	 call	 @__security_check_cookie@4
  00026	8b 4a fc	 mov	 ecx, DWORD PTR [edx-4]
  00029	33 c8		 xor	 ecx, eax
  0002b	e8 00 00 00 00	 call	 @__security_check_cookie@4
  00030	b8 00 00 00 00	 mov	 eax, OFFSET __ehfuncinfo$?SendUpdateCampusPoint@CDPTrans@@QAEXKH@Z
  00035	e9 00 00 00 00	 jmp	 ___CxxFrameHandler3
text$x	ENDS
?SendUpdateCampusPoint@CDPTrans@@QAEXKH@Z ENDP		; CDPTrans::SendUpdateCampusPoint
; Function compile flags: /Ogtp
; File C:\IAGOS\server\v18\Source\Source\DatabaseServer\dptrans.cpp
; File C:\IAGOS\server\v18\Source\Source\_Network\Net\Include\DPMng.h
; File C:\IAGOS\server\v18\Source\Source\DatabaseServer\dptrans.cpp
;	COMDAT ?SendRemoveCampusMember@CDPTrans@@QAEXKK@Z
_TEXT	SEGMENT
_nBufSize$ = -16436					; size = 4
$T2 = -16432						; size = 4
$T3 = -16428						; size = 4
$T4 = -16424						; size = 4
_ar$ = -16420						; size = 16404
__$ArrayPad$ = -16					; size = 4
__$EHRec$ = -12						; size = 12
_idCampus$ = 8						; size = 4
_idPlayer$ = 12						; size = 4
?SendRemoveCampusMember@CDPTrans@@QAEXKK@Z PROC		; CDPTrans::SendRemoveCampusMember, COMDAT
; _this$ = ecx

; 2291 : {

  00000	55		 push	 ebp
  00001	8b ec		 mov	 ebp, esp
  00003	6a ff		 push	 -1
  00005	68 00 00 00 00	 push	 __ehhandler$?SendRemoveCampusMember@CDPTrans@@QAEXKK@Z
  0000a	64 a1 00 00 00
	00		 mov	 eax, DWORD PTR fs:0
  00010	50		 push	 eax
  00011	b8 28 40 00 00	 mov	 eax, 16424		; 00004028H
  00016	e8 00 00 00 00	 call	 __chkstk
  0001b	a1 00 00 00 00	 mov	 eax, DWORD PTR ___security_cookie
  00020	33 c5		 xor	 eax, ebp
  00022	89 45 f0	 mov	 DWORD PTR __$ArrayPad$[ebp], eax
  00025	56		 push	 esi
  00026	50		 push	 eax
  00027	8d 45 f4	 lea	 eax, DWORD PTR __$EHRec$[ebp]
  0002a	64 a3 00 00 00
	00		 mov	 DWORD PTR fs:0, eax
  00030	8b f1		 mov	 esi, ecx

; 2292 : 	BEFORESENDDUAL( ar, PACKETTYPE_CAMPUS_REMOVE_MEMBER, DPID_UNKNOWN, DPID_UNKNOWN );

  00032	6a 00		 push	 0
  00034	6a 00		 push	 0
  00036	8d 8d dc bf ff
	ff		 lea	 ecx, DWORD PTR _ar$[ebp]
  0003c	e8 00 00 00 00	 call	 ??0CAr@@QAE@PAXI@Z	; CAr::CAr
  00041	8d 85 d8 bf ff
	ff		 lea	 eax, DWORD PTR $T4[ebp]
  00047	c7 45 fc 00 00
	00 00		 mov	 DWORD PTR __$EHRec$[ebp+8], 0
  0004e	50		 push	 eax
  0004f	8d 85 d4 bf ff
	ff		 lea	 eax, DWORD PTR $T3[ebp]
  00055	c7 85 d8 bf ff
	ff 25 01 10 88	 mov	 DWORD PTR $T4[ebp], -2012217051 ; 88100125H
  0005f	50		 push	 eax
  00060	8d 85 d0 bf ff
	ff		 lea	 eax, DWORD PTR $T2[ebp]
  00066	c7 85 d4 bf ff
	ff ff ff ff ff	 mov	 DWORD PTR $T3[ebp], -1
  00070	50		 push	 eax
  00071	8d 8d dc bf ff
	ff		 lea	 ecx, DWORD PTR _ar$[ebp]
  00077	c7 85 d0 bf ff
	ff ff ff ff ff	 mov	 DWORD PTR $T2[ebp], -1
  00081	e8 00 00 00 00	 call	 ??$?6I@CAr@@QAEAAV0@ABI@Z ; CAr::operator<<<unsigned int>
  00086	8b c8		 mov	 ecx, eax
  00088	e8 00 00 00 00	 call	 ??$?6I@CAr@@QAEAAV0@ABI@Z ; CAr::operator<<<unsigned int>
  0008d	8b c8		 mov	 ecx, eax
  0008f	e8 00 00 00 00	 call	 ??$?6K@CAr@@QAEAAV0@ABK@Z ; CAr::operator<<<unsigned long>

; 2293 : 	ar << idCampus << idPlayer;

  00094	8d 45 0c	 lea	 eax, DWORD PTR _idPlayer$[ebp]
  00097	50		 push	 eax
  00098	8d 45 08	 lea	 eax, DWORD PTR _idCampus$[ebp]
  0009b	50		 push	 eax
  0009c	8d 8d dc bf ff
	ff		 lea	 ecx, DWORD PTR _ar$[ebp]
  000a2	e8 00 00 00 00	 call	 ??$?6K@CAr@@QAEAAV0@ABK@Z ; CAr::operator<<<unsigned long>
  000a7	8b c8		 mov	 ecx, eax
  000a9	e8 00 00 00 00	 call	 ??$?6K@CAr@@QAEAAV0@ABK@Z ; CAr::operator<<<unsigned long>

; 2294 : 	SEND( ar, this, DPID_ALLPLAYERS );

  000ae	8d 85 cc bf ff
	ff		 lea	 eax, DWORD PTR _nBufSize$[ebp]
  000b4	50		 push	 eax
  000b5	8d 8d dc bf ff
	ff		 lea	 ecx, DWORD PTR _ar$[ebp]
  000bb	e8 00 00 00 00	 call	 ?GetBuffer@CAr@@QAEPAEPAH@Z ; CAr::GetBuffer
; File C:\IAGOS\server\v18\Source\Source\_Network\Net\Include\DPMng.h

; 171  : 	if( !m_pDPSock )

  000c0	8b 4e 04	 mov	 ecx, DWORD PTR [esi+4]
  000c3	85 c9		 test	 ecx, ecx
  000c5	74 0e		 je	 SHORT $LN4@SendRemove

; 172  : 		return FALSE;
; 173  : 	return m_pDPSock->Send( (char*)lpData, dwDataSize, dpidTo );

  000c7	6a 00		 push	 0
  000c9	ff b5 cc bf ff
	ff		 push	 DWORD PTR _nBufSize$[ebp]
  000cf	50		 push	 eax
  000d0	e8 00 00 00 00	 call	 ?Send@CDPSock@@QAEHPADKK@Z ; CDPSock::Send
$LN4@SendRemove:
; File C:\IAGOS\server\v18\Source\Source\DatabaseServer\dptrans.cpp

; 2295 : }

  000d5	8d 8d dc bf ff
	ff		 lea	 ecx, DWORD PTR _ar$[ebp]
  000db	e8 00 00 00 00	 call	 ??1CAr@@QAE@XZ		; CAr::~CAr
  000e0	8b 4d f4	 mov	 ecx, DWORD PTR __$EHRec$[ebp]
  000e3	64 89 0d 00 00
	00 00		 mov	 DWORD PTR fs:0, ecx
  000ea	59		 pop	 ecx
  000eb	5e		 pop	 esi
  000ec	8b 4d f0	 mov	 ecx, DWORD PTR __$ArrayPad$[ebp]
  000ef	33 cd		 xor	 ecx, ebp
  000f1	e8 00 00 00 00	 call	 @__security_check_cookie@4
  000f6	8b e5		 mov	 esp, ebp
  000f8	5d		 pop	 ebp
  000f9	c2 08 00	 ret	 8
_TEXT	ENDS
;	COMDAT text$x
text$x	SEGMENT
__unwindfunclet$?SendRemoveCampusMember@CDPTrans@@QAEXKK@Z$0:
  00000	8d 8d dc bf ff
	ff		 lea	 ecx, DWORD PTR _ar$[ebp]
  00006	e9 00 00 00 00	 jmp	 ??1CAr@@QAE@XZ		; CAr::~CAr
  0000b	cc		 int	 3
  0000c	cc		 int	 3
  0000d	cc		 int	 3
  0000e	cc		 int	 3
  0000f	cc		 int	 3
__ehhandler$?SendRemoveCampusMember@CDPTrans@@QAEXKK@Z:
  00010	90		 npad	 1
  00011	90		 npad	 1
  00012	8b 54 24 08	 mov	 edx, DWORD PTR [esp+8]
  00016	8d 42 0c	 lea	 eax, DWORD PTR [edx+12]
  00019	8b 8a d0 bf ff
	ff		 mov	 ecx, DWORD PTR [edx-16432]
  0001f	33 c8		 xor	 ecx, eax
  00021	e8 00 00 00 00	 call	 @__security_check_cookie@4
  00026	8b 4a fc	 mov	 ecx, DWORD PTR [edx-4]
  00029	33 c8		 xor	 ecx, eax
  0002b	e8 00 00 00 00	 call	 @__security_check_cookie@4
  00030	b8 00 00 00 00	 mov	 eax, OFFSET __ehfuncinfo$?SendRemoveCampusMember@CDPTrans@@QAEXKK@Z
  00035	e9 00 00 00 00	 jmp	 ___CxxFrameHandler3
text$x	ENDS
?SendRemoveCampusMember@CDPTrans@@QAEXKK@Z ENDP		; CDPTrans::SendRemoveCampusMember
; Function compile flags: /Ogtp
; File C:\IAGOS\server\v18\Source\Source\DatabaseServer\dptrans.cpp
; File C:\IAGOS\server\v18\Source\Source\_Network\Net\Include\DPMng.h
; File C:\IAGOS\server\v18\Source\Source\DatabaseServer\dptrans.cpp
;	COMDAT ?SendAddCampusMember@CDPTrans@@QAEXKKK@Z
_TEXT	SEGMENT
_nBufSize$ = -16436					; size = 4
$T2 = -16432						; size = 4
$T3 = -16428						; size = 4
$T4 = -16424						; size = 4
_ar$ = -16420						; size = 16404
__$ArrayPad$ = -16					; size = 4
__$EHRec$ = -12						; size = 12
_idCampus$ = 8						; size = 4
_idMaster$ = 12						; size = 4
_idPupil$ = 16						; size = 4
?SendAddCampusMember@CDPTrans@@QAEXKKK@Z PROC		; CDPTrans::SendAddCampusMember, COMDAT
; _this$ = ecx

; 2284 : {

  00000	55		 push	 ebp
  00001	8b ec		 mov	 ebp, esp
  00003	6a ff		 push	 -1
  00005	68 00 00 00 00	 push	 __ehhandler$?SendAddCampusMember@CDPTrans@@QAEXKKK@Z
  0000a	64 a1 00 00 00
	00		 mov	 eax, DWORD PTR fs:0
  00010	50		 push	 eax
  00011	b8 28 40 00 00	 mov	 eax, 16424		; 00004028H
  00016	e8 00 00 00 00	 call	 __chkstk
  0001b	a1 00 00 00 00	 mov	 eax, DWORD PTR ___security_cookie
  00020	33 c5		 xor	 eax, ebp
  00022	89 45 f0	 mov	 DWORD PTR __$ArrayPad$[ebp], eax
  00025	56		 push	 esi
  00026	50		 push	 eax
  00027	8d 45 f4	 lea	 eax, DWORD PTR __$EHRec$[ebp]
  0002a	64 a3 00 00 00
	00		 mov	 DWORD PTR fs:0, eax
  00030	8b f1		 mov	 esi, ecx

; 2285 : 	BEFORESENDDUAL( ar, PACKETTYPE_CAMPUS_ADD_MEMBER, DPID_UNKNOWN, DPID_UNKNOWN );

  00032	6a 00		 push	 0
  00034	6a 00		 push	 0
  00036	8d 8d dc bf ff
	ff		 lea	 ecx, DWORD PTR _ar$[ebp]
  0003c	e8 00 00 00 00	 call	 ??0CAr@@QAE@PAXI@Z	; CAr::CAr
  00041	8d 85 d8 bf ff
	ff		 lea	 eax, DWORD PTR $T4[ebp]
  00047	c7 45 fc 00 00
	00 00		 mov	 DWORD PTR __$EHRec$[ebp+8], 0
  0004e	50		 push	 eax
  0004f	8d 85 d4 bf ff
	ff		 lea	 eax, DWORD PTR $T3[ebp]
  00055	c7 85 d8 bf ff
	ff 24 01 10 88	 mov	 DWORD PTR $T4[ebp], -2012217052 ; 88100124H
  0005f	50		 push	 eax
  00060	8d 85 d0 bf ff
	ff		 lea	 eax, DWORD PTR $T2[ebp]
  00066	c7 85 d4 bf ff
	ff ff ff ff ff	 mov	 DWORD PTR $T3[ebp], -1
  00070	50		 push	 eax
  00071	8d 8d dc bf ff
	ff		 lea	 ecx, DWORD PTR _ar$[ebp]
  00077	c7 85 d0 bf ff
	ff ff ff ff ff	 mov	 DWORD PTR $T2[ebp], -1
  00081	e8 00 00 00 00	 call	 ??$?6I@CAr@@QAEAAV0@ABI@Z ; CAr::operator<<<unsigned int>
  00086	8b c8		 mov	 ecx, eax
  00088	e8 00 00 00 00	 call	 ??$?6I@CAr@@QAEAAV0@ABI@Z ; CAr::operator<<<unsigned int>
  0008d	8b c8		 mov	 ecx, eax
  0008f	e8 00 00 00 00	 call	 ??$?6K@CAr@@QAEAAV0@ABK@Z ; CAr::operator<<<unsigned long>

; 2286 : 	ar << idCampus << idMaster << idPupil;

  00094	8d 45 10	 lea	 eax, DWORD PTR _idPupil$[ebp]
  00097	50		 push	 eax
  00098	8d 45 0c	 lea	 eax, DWORD PTR _idMaster$[ebp]
  0009b	50		 push	 eax
  0009c	8d 45 08	 lea	 eax, DWORD PTR _idCampus$[ebp]
  0009f	50		 push	 eax
  000a0	8d 8d dc bf ff
	ff		 lea	 ecx, DWORD PTR _ar$[ebp]
  000a6	e8 00 00 00 00	 call	 ??$?6K@CAr@@QAEAAV0@ABK@Z ; CAr::operator<<<unsigned long>
  000ab	8b c8		 mov	 ecx, eax
  000ad	e8 00 00 00 00	 call	 ??$?6K@CAr@@QAEAAV0@ABK@Z ; CAr::operator<<<unsigned long>
  000b2	8b c8		 mov	 ecx, eax
  000b4	e8 00 00 00 00	 call	 ??$?6K@CAr@@QAEAAV0@ABK@Z ; CAr::operator<<<unsigned long>

; 2287 : 	SEND( ar, this, DPID_ALLPLAYERS );

  000b9	8d 85 cc bf ff
	ff		 lea	 eax, DWORD PTR _nBufSize$[ebp]
  000bf	50		 push	 eax
  000c0	8d 8d dc bf ff
	ff		 lea	 ecx, DWORD PTR _ar$[ebp]
  000c6	e8 00 00 00 00	 call	 ?GetBuffer@CAr@@QAEPAEPAH@Z ; CAr::GetBuffer
; File C:\IAGOS\server\v18\Source\Source\_Network\Net\Include\DPMng.h

; 171  : 	if( !m_pDPSock )

  000cb	8b 4e 04	 mov	 ecx, DWORD PTR [esi+4]
  000ce	85 c9		 test	 ecx, ecx
  000d0	74 0e		 je	 SHORT $LN4@SendAddCam

; 172  : 		return FALSE;
; 173  : 	return m_pDPSock->Send( (char*)lpData, dwDataSize, dpidTo );

  000d2	6a 00		 push	 0
  000d4	ff b5 cc bf ff
	ff		 push	 DWORD PTR _nBufSize$[ebp]
  000da	50		 push	 eax
  000db	e8 00 00 00 00	 call	 ?Send@CDPSock@@QAEHPADKK@Z ; CDPSock::Send
$LN4@SendAddCam:
; File C:\IAGOS\server\v18\Source\Source\DatabaseServer\dptrans.cpp

; 2288 : }

  000e0	8d 8d dc bf ff
	ff		 lea	 ecx, DWORD PTR _ar$[ebp]
  000e6	e8 00 00 00 00	 call	 ??1CAr@@QAE@XZ		; CAr::~CAr
  000eb	8b 4d f4	 mov	 ecx, DWORD PTR __$EHRec$[ebp]
  000ee	64 89 0d 00 00
	00 00		 mov	 DWORD PTR fs:0, ecx
  000f5	59		 pop	 ecx
  000f6	5e		 pop	 esi
  000f7	8b 4d f0	 mov	 ecx, DWORD PTR __$ArrayPad$[ebp]
  000fa	33 cd		 xor	 ecx, ebp
  000fc	e8 00 00 00 00	 call	 @__security_check_cookie@4
  00101	8b e5		 mov	 esp, ebp
  00103	5d		 pop	 ebp
  00104	c2 0c 00	 ret	 12			; 0000000cH
_TEXT	ENDS
;	COMDAT text$x
text$x	SEGMENT
__unwindfunclet$?SendAddCampusMember@CDPTrans@@QAEXKKK@Z$0:
  00000	8d 8d dc bf ff
	ff		 lea	 ecx, DWORD PTR _ar$[ebp]
  00006	e9 00 00 00 00	 jmp	 ??1CAr@@QAE@XZ		; CAr::~CAr
  0000b	cc		 int	 3
  0000c	cc		 int	 3
  0000d	cc		 int	 3
  0000e	cc		 int	 3
  0000f	cc		 int	 3
__ehhandler$?SendAddCampusMember@CDPTrans@@QAEXKKK@Z:
  00010	90		 npad	 1
  00011	90		 npad	 1
  00012	8b 54 24 08	 mov	 edx, DWORD PTR [esp+8]
  00016	8d 42 0c	 lea	 eax, DWORD PTR [edx+12]
  00019	8b 8a d0 bf ff
	ff		 mov	 ecx, DWORD PTR [edx-16432]
  0001f	33 c8		 xor	 ecx, eax
  00021	e8 00 00 00 00	 call	 @__security_check_cookie@4
  00026	8b 4a fc	 mov	 ecx, DWORD PTR [edx-4]
  00029	33 c8		 xor	 ecx, eax
  0002b	e8 00 00 00 00	 call	 @__security_check_cookie@4
  00030	b8 00 00 00 00	 mov	 eax, OFFSET __ehfuncinfo$?SendAddCampusMember@CDPTrans@@QAEXKKK@Z
  00035	e9 00 00 00 00	 jmp	 ___CxxFrameHandler3
text$x	ENDS
?SendAddCampusMember@CDPTrans@@QAEXKKK@Z ENDP		; CDPTrans::SendAddCampusMember
; Function compile flags: /Ogtp
; File C:\IAGOS\server\v18\Source\Source\DatabaseServer\dptrans.cpp
; File C:\IAGOS\server\v18\Source\Source\DatabaseServer\CampusDBCtrl.h
; File C:\IAGOS\server\v18\Source\Source\DatabaseServer\dptrans.cpp
; File C:\IAGOS\server\v18\Source\Source\_Network\Net\Include\DPMng.h
; File C:\IAGOS\server\v18\Source\Source\DatabaseServer\dptrans.cpp
;	COMDAT ?SendAllCampus@CDPTrans@@QAEXK@Z
_TEXT	SEGMENT
_nBufSize$ = -16436					; size = 4
$T2 = -16432						; size = 4
$T3 = -16428						; size = 4
$T4 = -16424						; size = 4
_ar$ = -16420						; size = 16404
__$ArrayPad$ = -16					; size = 4
__$EHRec$ = -12						; size = 12
_dpId$ = 8						; size = 4
?SendAllCampus@CDPTrans@@QAEXK@Z PROC			; CDPTrans::SendAllCampus, COMDAT
; _this$ = ecx

; 2277 : {

  00000	55		 push	 ebp
  00001	8b ec		 mov	 ebp, esp
  00003	6a ff		 push	 -1
  00005	68 00 00 00 00	 push	 __ehhandler$?SendAllCampus@CDPTrans@@QAEXK@Z
  0000a	64 a1 00 00 00
	00		 mov	 eax, DWORD PTR fs:0
  00010	50		 push	 eax
  00011	b8 28 40 00 00	 mov	 eax, 16424		; 00004028H
  00016	e8 00 00 00 00	 call	 __chkstk
  0001b	a1 00 00 00 00	 mov	 eax, DWORD PTR ___security_cookie
  00020	33 c5		 xor	 eax, ebp
  00022	89 45 f0	 mov	 DWORD PTR __$ArrayPad$[ebp], eax
  00025	56		 push	 esi
  00026	50		 push	 eax
  00027	8d 45 f4	 lea	 eax, DWORD PTR __$EHRec$[ebp]
  0002a	64 a3 00 00 00
	00		 mov	 DWORD PTR fs:0, eax
  00030	8b f1		 mov	 esi, ecx

; 2278 : 	BEFORESENDDUAL( ar, PACKETTYPE_CAMPUS_ALL, DPID_UNKNOWN, DPID_UNKNOWN );

  00032	6a 00		 push	 0
  00034	6a 00		 push	 0
  00036	8d 8d dc bf ff
	ff		 lea	 ecx, DWORD PTR _ar$[ebp]
  0003c	e8 00 00 00 00	 call	 ??0CAr@@QAE@PAXI@Z	; CAr::CAr
  00041	8d 85 d8 bf ff
	ff		 lea	 eax, DWORD PTR $T4[ebp]
  00047	c7 45 fc 00 00
	00 00		 mov	 DWORD PTR __$EHRec$[ebp+8], 0
  0004e	50		 push	 eax
  0004f	8d 85 d4 bf ff
	ff		 lea	 eax, DWORD PTR $T3[ebp]
  00055	c7 85 d8 bf ff
	ff 20 01 10 88	 mov	 DWORD PTR $T4[ebp], -2012217056 ; 88100120H
  0005f	50		 push	 eax
  00060	8d 85 d0 bf ff
	ff		 lea	 eax, DWORD PTR $T2[ebp]
  00066	c7 85 d4 bf ff
	ff ff ff ff ff	 mov	 DWORD PTR $T3[ebp], -1
  00070	50		 push	 eax
  00071	8d 8d dc bf ff
	ff		 lea	 ecx, DWORD PTR _ar$[ebp]
  00077	c7 85 d0 bf ff
	ff ff ff ff ff	 mov	 DWORD PTR $T2[ebp], -1
  00081	e8 00 00 00 00	 call	 ??$?6I@CAr@@QAEAAV0@ABI@Z ; CAr::operator<<<unsigned int>
  00086	8b c8		 mov	 ecx, eax
  00088	e8 00 00 00 00	 call	 ??$?6I@CAr@@QAEAAV0@ABI@Z ; CAr::operator<<<unsigned int>
  0008d	8b c8		 mov	 ecx, eax
  0008f	e8 00 00 00 00	 call	 ??$?6K@CAr@@QAEAAV0@ABK@Z ; CAr::operator<<<unsigned long>

; 2279 : 	CCampusHelper::GetInstance()->Serialize( ar );

  00094	e8 00 00 00 00	 call	 ?GetInstance@CCampusHelper@@SAPAV1@XZ ; CCampusHelper::GetInstance
; File C:\IAGOS\server\v18\Source\Source\DatabaseServer\CampusDBCtrl.h

; 74   : 	void	Serialize( CAr & ar )	{	m_pCampusMng->Serialize( ar );	}

  00099	8d 8d dc bf ff
	ff		 lea	 ecx, DWORD PTR _ar$[ebp]
  0009f	51		 push	 ecx
  000a0	8b 48 18	 mov	 ecx, DWORD PTR [eax+24]
  000a3	e8 00 00 00 00	 call	 ?Serialize@CCampusMng@@QAEXAAVCAr@@@Z ; CCampusMng::Serialize
; File C:\IAGOS\server\v18\Source\Source\DatabaseServer\dptrans.cpp

; 2280 : 	SEND( ar, this, dpId );

  000a8	8d 85 cc bf ff
	ff		 lea	 eax, DWORD PTR _nBufSize$[ebp]
  000ae	50		 push	 eax
  000af	8d 8d dc bf ff
	ff		 lea	 ecx, DWORD PTR _ar$[ebp]
  000b5	e8 00 00 00 00	 call	 ?GetBuffer@CAr@@QAEPAEPAH@Z ; CAr::GetBuffer
; File C:\IAGOS\server\v18\Source\Source\_Network\Net\Include\DPMng.h

; 171  : 	if( !m_pDPSock )

  000ba	8b 4e 04	 mov	 ecx, DWORD PTR [esi+4]
  000bd	85 c9		 test	 ecx, ecx
  000bf	74 0f		 je	 SHORT $LN6@SendAllCam

; 172  : 		return FALSE;
; 173  : 	return m_pDPSock->Send( (char*)lpData, dwDataSize, dpidTo );

  000c1	ff 75 08	 push	 DWORD PTR _dpId$[ebp]
  000c4	ff b5 cc bf ff
	ff		 push	 DWORD PTR _nBufSize$[ebp]
  000ca	50		 push	 eax
  000cb	e8 00 00 00 00	 call	 ?Send@CDPSock@@QAEHPADKK@Z ; CDPSock::Send
$LN6@SendAllCam:
; File C:\IAGOS\server\v18\Source\Source\DatabaseServer\dptrans.cpp

; 2281 : }

  000d0	8d 8d dc bf ff
	ff		 lea	 ecx, DWORD PTR _ar$[ebp]
  000d6	e8 00 00 00 00	 call	 ??1CAr@@QAE@XZ		; CAr::~CAr
  000db	8b 4d f4	 mov	 ecx, DWORD PTR __$EHRec$[ebp]
  000de	64 89 0d 00 00
	00 00		 mov	 DWORD PTR fs:0, ecx
  000e5	59		 pop	 ecx
  000e6	5e		 pop	 esi
  000e7	8b 4d f0	 mov	 ecx, DWORD PTR __$ArrayPad$[ebp]
  000ea	33 cd		 xor	 ecx, ebp
  000ec	e8 00 00 00 00	 call	 @__security_check_cookie@4
  000f1	8b e5		 mov	 esp, ebp
  000f3	5d		 pop	 ebp
  000f4	c2 04 00	 ret	 4
_TEXT	ENDS
;	COMDAT text$x
text$x	SEGMENT
__unwindfunclet$?SendAllCampus@CDPTrans@@QAEXK@Z$0:
  00000	8d 8d dc bf ff
	ff		 lea	 ecx, DWORD PTR _ar$[ebp]
  00006	e9 00 00 00 00	 jmp	 ??1CAr@@QAE@XZ		; CAr::~CAr
  0000b	cc		 int	 3
  0000c	cc		 int	 3
  0000d	cc		 int	 3
  0000e	cc		 int	 3
  0000f	cc		 int	 3
__ehhandler$?SendAllCampus@CDPTrans@@QAEXK@Z:
  00010	90		 npad	 1
  00011	90		 npad	 1
  00012	8b 54 24 08	 mov	 edx, DWORD PTR [esp+8]
  00016	8d 42 0c	 lea	 eax, DWORD PTR [edx+12]
  00019	8b 8a d0 bf ff
	ff		 mov	 ecx, DWORD PTR [edx-16432]
  0001f	33 c8		 xor	 ecx, eax
  00021	e8 00 00 00 00	 call	 @__security_check_cookie@4
  00026	8b 4a fc	 mov	 ecx, DWORD PTR [edx-4]
  00029	33 c8		 xor	 ecx, eax
  0002b	e8 00 00 00 00	 call	 @__security_check_cookie@4
  00030	b8 00 00 00 00	 mov	 eax, OFFSET __ehfuncinfo$?SendAllCampus@CDPTrans@@QAEXK@Z
  00035	e9 00 00 00 00	 jmp	 ___CxxFrameHandler3
text$x	ENDS
?SendAllCampus@CDPTrans@@QAEXK@Z ENDP			; CDPTrans::SendAllCampus
; Function compile flags: /Ogtp
; File C:\IAGOS\server\v18\Source\Source\DatabaseServer\dptrans.cpp
; File C:\IAGOS\server\v18\Source\Source\DatabaseServer\CampusDBCtrl.h
; File C:\IAGOS\server\v18\Source\Source\DatabaseServer\dptrans.cpp
;	COMDAT ?OnUpdateCampusPoint@CDPTrans@@AAEXAAVCAr@@KKKPAEK@Z
_TEXT	SEGMENT
_ar$ = 8						; size = 4
_dpid$ = 12						; size = 4
_dpidCache$ = 16					; size = 4
_dpidUser$ = 20						; size = 4
_lpBuf$ = 24						; size = 4
_uBufSize$ = 28						; size = 4
?OnUpdateCampusPoint@CDPTrans@@AAEXAAVCAr@@KKKPAEK@Z PROC ; CDPTrans::OnUpdateCampusPoint, COMDAT
; _this$ = ecx

; 2272 : {

  00000	55		 push	 ebp
  00001	8b ec		 mov	 ebp, esp

; 2273 : 	CCampusHelper::GetInstance()->PostRequest( CAMPUS_UPDATE_POINT, lpBuf, uBufSize, dpid );

  00003	e8 00 00 00 00	 call	 ?GetInstance@CCampusHelper@@SAPAV1@XZ ; CCampusHelper::GetInstance
; File C:\IAGOS\server\v18\Source\Source\DatabaseServer\CampusDBCtrl.h

; 72   : 	{ return m_CampusDBCtrl.PostRequest( nQuery, lpBuf, nBufSize, dwCompletionKey );	}

  00008	ff 75 0c	 push	 DWORD PTR _dpid$[ebp]
  0000b	8b c8		 mov	 ecx, eax
  0000d	ff 75 1c	 push	 DWORD PTR _uBufSize$[ebp]
  00010	ff 75 18	 push	 DWORD PTR _lpBuf$[ebp]
  00013	6a 04		 push	 4
  00015	e8 00 00 00 00	 call	 ?PostRequest@CDbController@@QAEHHPAEHK@Z ; CDbController::PostRequest
; File C:\IAGOS\server\v18\Source\Source\DatabaseServer\dptrans.cpp

; 2274 : }

  0001a	5d		 pop	 ebp
  0001b	c2 18 00	 ret	 24			; 00000018H
?OnUpdateCampusPoint@CDPTrans@@AAEXAAVCAr@@KKKPAEK@Z ENDP ; CDPTrans::OnUpdateCampusPoint
_TEXT	ENDS
; Function compile flags: /Ogtp
; File C:\IAGOS\server\v18\Source\Source\DatabaseServer\dptrans.cpp
; File C:\IAGOS\server\v18\Source\Source\DatabaseServer\CampusDBCtrl.h
; File C:\IAGOS\server\v18\Source\Source\DatabaseServer\dptrans.cpp
;	COMDAT ?OnRemoveCampusMember@CDPTrans@@AAEXAAVCAr@@KKKPAEK@Z
_TEXT	SEGMENT
_ar$ = 8						; size = 4
_dpid$ = 12						; size = 4
_dpidCache$ = 16					; size = 4
_dpidUser$ = 20						; size = 4
_lpBuf$ = 24						; size = 4
_uBufSize$ = 28						; size = 4
?OnRemoveCampusMember@CDPTrans@@AAEXAAVCAr@@KKKPAEK@Z PROC ; CDPTrans::OnRemoveCampusMember, COMDAT
; _this$ = ecx

; 2267 : {

  00000	55		 push	 ebp
  00001	8b ec		 mov	 ebp, esp

; 2268 : 	CCampusHelper::GetInstance()->PostRequest( CAMPUS_REMOVE_MEMBER, lpBuf, uBufSize, dpid );

  00003	e8 00 00 00 00	 call	 ?GetInstance@CCampusHelper@@SAPAV1@XZ ; CCampusHelper::GetInstance
; File C:\IAGOS\server\v18\Source\Source\DatabaseServer\CampusDBCtrl.h

; 72   : 	{ return m_CampusDBCtrl.PostRequest( nQuery, lpBuf, nBufSize, dwCompletionKey );	}

  00008	ff 75 0c	 push	 DWORD PTR _dpid$[ebp]
  0000b	8b c8		 mov	 ecx, eax
  0000d	ff 75 1c	 push	 DWORD PTR _uBufSize$[ebp]
  00010	ff 75 18	 push	 DWORD PTR _lpBuf$[ebp]
  00013	6a 03		 push	 3
  00015	e8 00 00 00 00	 call	 ?PostRequest@CDbController@@QAEHHPAEHK@Z ; CDbController::PostRequest
; File C:\IAGOS\server\v18\Source\Source\DatabaseServer\dptrans.cpp

; 2269 : }

  0001a	5d		 pop	 ebp
  0001b	c2 18 00	 ret	 24			; 00000018H
?OnRemoveCampusMember@CDPTrans@@AAEXAAVCAr@@KKKPAEK@Z ENDP ; CDPTrans::OnRemoveCampusMember
_TEXT	ENDS
; Function compile flags: /Ogtp
; File C:\IAGOS\server\v18\Source\Source\DatabaseServer\dptrans.cpp
; File C:\IAGOS\server\v18\Source\Source\DatabaseServer\CampusDBCtrl.h
; File C:\IAGOS\server\v18\Source\Source\DatabaseServer\dptrans.cpp
;	COMDAT ?OnAddCampusMember@CDPTrans@@AAEXAAVCAr@@KKKPAEK@Z
_TEXT	SEGMENT
_ar$ = 8						; size = 4
_dpid$ = 12						; size = 4
_dpidCache$ = 16					; size = 4
_dpidUser$ = 20						; size = 4
_lpBuf$ = 24						; size = 4
_uBufSize$ = 28						; size = 4
?OnAddCampusMember@CDPTrans@@AAEXAAVCAr@@KKKPAEK@Z PROC	; CDPTrans::OnAddCampusMember, COMDAT
; _this$ = ecx

; 2262 : {

  00000	55		 push	 ebp
  00001	8b ec		 mov	 ebp, esp

; 2263 : 	CCampusHelper::GetInstance()->PostRequest( CAMPUS_ADD_MEMBER, lpBuf, uBufSize, dpid );

  00003	e8 00 00 00 00	 call	 ?GetInstance@CCampusHelper@@SAPAV1@XZ ; CCampusHelper::GetInstance
; File C:\IAGOS\server\v18\Source\Source\DatabaseServer\CampusDBCtrl.h

; 72   : 	{ return m_CampusDBCtrl.PostRequest( nQuery, lpBuf, nBufSize, dwCompletionKey );	}

  00008	ff 75 0c	 push	 DWORD PTR _dpid$[ebp]
  0000b	8b c8		 mov	 ecx, eax
  0000d	ff 75 1c	 push	 DWORD PTR _uBufSize$[ebp]
  00010	ff 75 18	 push	 DWORD PTR _lpBuf$[ebp]
  00013	6a 02		 push	 2
  00015	e8 00 00 00 00	 call	 ?PostRequest@CDbController@@QAEHHPAEHK@Z ; CDbController::PostRequest
; File C:\IAGOS\server\v18\Source\Source\DatabaseServer\dptrans.cpp

; 2264 : }

  0001a	5d		 pop	 ebp
  0001b	c2 18 00	 ret	 24			; 00000018H
?OnAddCampusMember@CDPTrans@@AAEXAAVCAr@@KKKPAEK@Z ENDP	; CDPTrans::OnAddCampusMember
_TEXT	ENDS
; Function compile flags: /Ogtp
; File C:\IAGOS\server\v18\Source\Source\DatabaseServer\dptrans.cpp
;	COMDAT ?OnLogGuildFurniture@CDPTrans@@QAEXAAVCAr@@KKKPAEK@Z
_TEXT	SEGMENT
_ar$ = 8						; size = 4
_dpid$ = 12						; size = 4
_dpidCache$ = 16					; size = 4
_dpidUser$ = 20						; size = 4
_lpBuf$ = 24						; size = 4
_uBufSize$ = 28						; size = 4
?OnLogGuildFurniture@CDPTrans@@QAEXAAVCAr@@KKKPAEK@Z PROC ; CDPTrans::OnLogGuildFurniture, COMDAT
; _this$ = ecx

; 2237 : {

  00000	55		 push	 ebp
  00001	8b ec		 mov	 ebp, esp

; 2238 : 	LPDB_OVERLAPPED_PLUS lpDbOverlappedPlus = g_DbManager.AllocRequest();

  00003	8b 0d 00 00 00
	00		 mov	 ecx, DWORD PTR ?g_DbManager@@3AAVCDbManager@@A ; g_DbManager
  00009	56		 push	 esi
  0000a	e8 00 00 00 00	 call	 ?AllocRequest@CDbManager@@QAEPAUtagDB_OVERLAPPED_PLUS@@XZ ; CDbManager::AllocRequest

; 2239 : 	g_DbManager.MakeRequest( lpDbOverlappedPlus, lpBuf, uBufSize );

  0000f	ff 75 1c	 push	 DWORD PTR _uBufSize$[ebp]
  00012	8b 0d 00 00 00
	00		 mov	 ecx, DWORD PTR ?g_DbManager@@3AAVCDbManager@@A ; g_DbManager
  00018	8b f0		 mov	 esi, eax
  0001a	ff 75 18	 push	 DWORD PTR _lpBuf$[ebp]
  0001d	56		 push	 esi
  0001e	e8 00 00 00 00	 call	 ?MakeRequest@CDbManager@@QAEXPAUtagDB_OVERLAPPED_PLUS@@PAEK@Z ; CDbManager::MakeRequest

; 2240 : 	lpDbOverlappedPlus->dpid	= dpid;
; 2241 : 	lpDbOverlappedPlus->dpidCache	= dpidCache;

  00023	8b 45 10	 mov	 eax, DWORD PTR _dpidCache$[ebp]
  00026	8b 4d 0c	 mov	 ecx, DWORD PTR _dpid$[ebp]
  00029	89 86 ac 00 00
	00		 mov	 DWORD PTR [esi+172], eax

; 2242 : 	lpDbOverlappedPlus->dpidUser	= dpidUser;

  0002f	8b 45 14	 mov	 eax, DWORD PTR _dpidUser$[ebp]

; 2243 : 	lpDbOverlappedPlus->nQueryMode	= LOG_GUILDFURNITURE;
; 2244 : 	PostQueuedCompletionStatus( g_DbManager.m_hIOCPPut, 1, NULL, &lpDbOverlappedPlus->Overlapped );	

  00032	56		 push	 esi
  00033	89 8e a8 00 00
	00		 mov	 DWORD PTR [esi+168], ecx
  00039	89 86 b0 00 00
	00		 mov	 DWORD PTR [esi+176], eax
  0003f	c7 46 14 6a 00
	00 00		 mov	 DWORD PTR [esi+20], 106	; 0000006aH
  00046	a1 00 00 00 00	 mov	 eax, DWORD PTR ?g_DbManager@@3AAVCDbManager@@A ; g_DbManager
  0004b	6a 00		 push	 0
  0004d	6a 01		 push	 1
  0004f	ff b0 34 03 00
	00		 push	 DWORD PTR [eax+820]
  00055	ff 15 00 00 00
	00		 call	 DWORD PTR __imp__PostQueuedCompletionStatus@16
  0005b	5e		 pop	 esi

; 2245 : }

  0005c	5d		 pop	 ebp
  0005d	c2 18 00	 ret	 24			; 00000018H
?OnLogGuildFurniture@CDPTrans@@QAEXAAVCAr@@KKKPAEK@Z ENDP ; CDPTrans::OnLogGuildFurniture
_TEXT	ENDS
; Function compile flags: /Ogtp
; File C:\IAGOS\server\v18\Source\Source\DatabaseServer\dptrans.cpp
; File C:\IAGOS\server\v18\Source\Source\DatabaseServer\GuildHouseDBCtrl.h
; File C:\IAGOS\server\v18\Source\Source\DatabaseServer\dptrans.cpp
;	COMDAT ?OnGuildHousePacket@CDPTrans@@QAEXAAVCAr@@KKKPAEK@Z
_TEXT	SEGMENT
_ar$ = 8						; size = 4
_dpid$ = 12						; size = 4
_dpidCache$ = 16					; size = 4
_dpidUser$ = 20						; size = 4
_lpBuf$ = 24						; size = 4
_uBufSize$ = 28						; size = 4
?OnGuildHousePacket@CDPTrans@@QAEXAAVCAr@@KKKPAEK@Z PROC ; CDPTrans::OnGuildHousePacket, COMDAT
; _this$ = ecx

; 2232 : {

  00000	55		 push	 ebp
  00001	8b ec		 mov	 ebp, esp

; 2233 : 	GuildHouseDBMng->PostRequest( GUILDHOUSE_DEFAULT_PACKET, lpBuf, uBufSize, dpid );

  00003	e8 00 00 00 00	 call	 ?GetInstance@CGuildHouseDBMng@@SAPAV1@XZ ; CGuildHouseDBMng::GetInstance
; File C:\IAGOS\server\v18\Source\Source\DatabaseServer\GuildHouseDBCtrl.h

; 87   : 	{ return m_GHDBCtrl.PostRequest( nQuery, lpBuf, nBufSize, dwCompletionKey );	}

  00008	ff 75 0c	 push	 DWORD PTR _dpid$[ebp]
  0000b	8b c8		 mov	 ecx, eax
  0000d	ff 75 1c	 push	 DWORD PTR _uBufSize$[ebp]
  00010	ff 75 18	 push	 DWORD PTR _lpBuf$[ebp]
  00013	6a 04		 push	 4
  00015	e8 00 00 00 00	 call	 ?PostRequest@CDbController@@QAEHHPAEHK@Z ; CDbController::PostRequest
; File C:\IAGOS\server\v18\Source\Source\DatabaseServer\dptrans.cpp

; 2234 : }

  0001a	5d		 pop	 ebp
  0001b	c2 18 00	 ret	 24			; 00000018H
?OnGuildHousePacket@CDPTrans@@QAEXAAVCAr@@KKKPAEK@Z ENDP ; CDPTrans::OnGuildHousePacket
_TEXT	ENDS
; Function compile flags: /Ogtp
; File C:\IAGOS\server\v18\Source\Source\DatabaseServer\dptrans.cpp
; File C:\IAGOS\server\v18\Source\Source\DatabaseServer\GuildHouseDBCtrl.h
; File C:\IAGOS\server\v18\Source\Source\DatabaseServer\dptrans.cpp
;	COMDAT ?OnBuyGuildHouse@CDPTrans@@QAEXAAVCAr@@KKKPAEK@Z
_TEXT	SEGMENT
_ar$ = 8						; size = 4
_dpid$ = 12						; size = 4
_dpidCache$ = 16					; size = 4
_dpidUser$ = 20						; size = 4
_lpBuf$ = 24						; size = 4
_uBufSize$ = 28						; size = 4
?OnBuyGuildHouse@CDPTrans@@QAEXAAVCAr@@KKKPAEK@Z PROC	; CDPTrans::OnBuyGuildHouse, COMDAT
; _this$ = ecx

; 2227 : {

  00000	55		 push	 ebp
  00001	8b ec		 mov	 ebp, esp

; 2228 : 	GuildHouseDBMng->PostRequest( GUILDHOUSE_CREATE, lpBuf, uBufSize, dpid );

  00003	e8 00 00 00 00	 call	 ?GetInstance@CGuildHouseDBMng@@SAPAV1@XZ ; CGuildHouseDBMng::GetInstance
; File C:\IAGOS\server\v18\Source\Source\DatabaseServer\GuildHouseDBCtrl.h

; 87   : 	{ return m_GHDBCtrl.PostRequest( nQuery, lpBuf, nBufSize, dwCompletionKey );	}

  00008	ff 75 0c	 push	 DWORD PTR _dpid$[ebp]
  0000b	8b c8		 mov	 ecx, eax
  0000d	ff 75 1c	 push	 DWORD PTR _uBufSize$[ebp]
  00010	ff 75 18	 push	 DWORD PTR _lpBuf$[ebp]
  00013	6a 02		 push	 2
  00015	e8 00 00 00 00	 call	 ?PostRequest@CDbController@@QAEHHPAEHK@Z ; CDbController::PostRequest
; File C:\IAGOS\server\v18\Source\Source\DatabaseServer\dptrans.cpp

; 2229 : }

  0001a	5d		 pop	 ebp
  0001b	c2 18 00	 ret	 24			; 00000018H
?OnBuyGuildHouse@CDPTrans@@QAEXAAVCAr@@KKKPAEK@Z ENDP	; CDPTrans::OnBuyGuildHouse
_TEXT	ENDS
; Function compile flags: /Ogtp
; File C:\IAGOS\server\v18\Source\Source\DatabaseServer\dptrans.cpp
;	COMDAT ?OnErrorLog@CDPTrans@@QAEXAAVCAr@@KKKPAEK@Z
_TEXT	SEGMENT
_ar$ = 8						; size = 4
_dpid$ = 12						; size = 4
_dpidCache$ = 16					; size = 4
_dpidUser$ = 20						; size = 4
_lpBuf$ = 24						; size = 4
_uBufSize$ = 28						; size = 4
?OnErrorLog@CDPTrans@@QAEXAAVCAr@@KKKPAEK@Z PROC	; CDPTrans::OnErrorLog, COMDAT
; _this$ = ecx

; 2214 : {

  00000	55		 push	 ebp
  00001	8b ec		 mov	 ebp, esp

; 2215 : 	LPDB_OVERLAPPED_PLUS lpDbOverlappedPlus = g_DbManager.AllocRequest();

  00003	8b 0d 00 00 00
	00		 mov	 ecx, DWORD PTR ?g_DbManager@@3AAVCDbManager@@A ; g_DbManager
  00009	56		 push	 esi
  0000a	e8 00 00 00 00	 call	 ?AllocRequest@CDbManager@@QAEPAUtagDB_OVERLAPPED_PLUS@@XZ ; CDbManager::AllocRequest

; 2216 : 	g_DbManager.MakeRequest( lpDbOverlappedPlus, lpBuf, uBufSize );

  0000f	ff 75 1c	 push	 DWORD PTR _uBufSize$[ebp]
  00012	8b 0d 00 00 00
	00		 mov	 ecx, DWORD PTR ?g_DbManager@@3AAVCDbManager@@A ; g_DbManager
  00018	8b f0		 mov	 esi, eax
  0001a	ff 75 18	 push	 DWORD PTR _lpBuf$[ebp]
  0001d	56		 push	 esi
  0001e	e8 00 00 00 00	 call	 ?MakeRequest@CDbManager@@QAEXPAUtagDB_OVERLAPPED_PLUS@@PAEK@Z ; CDbManager::MakeRequest

; 2217 : 	lpDbOverlappedPlus->dpid	= dpid;
; 2218 : 	lpDbOverlappedPlus->dpidCache	= dpidCache;

  00023	8b 45 10	 mov	 eax, DWORD PTR _dpidCache$[ebp]
  00026	8b 4d 0c	 mov	 ecx, DWORD PTR _dpid$[ebp]
  00029	89 86 ac 00 00
	00		 mov	 DWORD PTR [esi+172], eax

; 2219 : 	lpDbOverlappedPlus->dpidUser	= dpidUser;

  0002f	8b 45 14	 mov	 eax, DWORD PTR _dpidUser$[ebp]

; 2220 : 	lpDbOverlappedPlus->nQueryMode	= LOG_ERROR;
; 2221 : 	PostQueuedCompletionStatus( g_DbManager.m_hIOCPPut, 1, NULL, &lpDbOverlappedPlus->Overlapped );	

  00032	56		 push	 esi
  00033	89 8e a8 00 00
	00		 mov	 DWORD PTR [esi+168], ecx
  00039	89 86 b0 00 00
	00		 mov	 DWORD PTR [esi+176], eax
  0003f	c7 46 14 68 00
	00 00		 mov	 DWORD PTR [esi+20], 104	; 00000068H
  00046	a1 00 00 00 00	 mov	 eax, DWORD PTR ?g_DbManager@@3AAVCDbManager@@A ; g_DbManager
  0004b	6a 00		 push	 0
  0004d	6a 01		 push	 1
  0004f	ff b0 34 03 00
	00		 push	 DWORD PTR [eax+820]
  00055	ff 15 00 00 00
	00		 call	 DWORD PTR __imp__PostQueuedCompletionStatus@16
  0005b	5e		 pop	 esi

; 2222 : }

  0005c	5d		 pop	 ebp
  0005d	c2 18 00	 ret	 24			; 00000018H
?OnErrorLog@CDPTrans@@QAEXAAVCAr@@KKKPAEK@Z ENDP	; CDPTrans::OnErrorLog
_TEXT	ENDS
; Function compile flags: /Ogtp
; File C:\IAGOS\server\v18\Source\Source\DatabaseServer\dptrans.cpp
; File C:\IAGOS\server\v18\Source\Source\_Network\Net\Include\DPMng.h
; File C:\IAGOS\server\v18\Source\Source\DatabaseServer\dptrans.cpp
;	COMDAT ?SendQuizEventChanged@CDPTrans@@QAEXXZ
_TEXT	SEGMENT
_nBufSize$ = -16436					; size = 4
$T2 = -16432						; size = 4
$T3 = -16428						; size = 4
$T4 = -16424						; size = 4
_ar$ = -16420						; size = 16404
__$ArrayPad$ = -16					; size = 4
__$EHRec$ = -12						; size = 12
?SendQuizEventChanged@CDPTrans@@QAEXXZ PROC		; CDPTrans::SendQuizEventChanged, COMDAT
; _this$ = ecx

; 2206 : {

  00000	55		 push	 ebp
  00001	8b ec		 mov	 ebp, esp
  00003	6a ff		 push	 -1
  00005	68 00 00 00 00	 push	 __ehhandler$?SendQuizEventChanged@CDPTrans@@QAEXXZ
  0000a	64 a1 00 00 00
	00		 mov	 eax, DWORD PTR fs:0
  00010	50		 push	 eax
  00011	b8 28 40 00 00	 mov	 eax, 16424		; 00004028H
  00016	e8 00 00 00 00	 call	 __chkstk
  0001b	a1 00 00 00 00	 mov	 eax, DWORD PTR ___security_cookie
  00020	33 c5		 xor	 eax, ebp
  00022	89 45 f0	 mov	 DWORD PTR __$ArrayPad$[ebp], eax
  00025	56		 push	 esi
  00026	50		 push	 eax
  00027	8d 45 f4	 lea	 eax, DWORD PTR __$EHRec$[ebp]
  0002a	64 a3 00 00 00
	00		 mov	 DWORD PTR fs:0, eax
  00030	8b f1		 mov	 esi, ecx

; 2207 : 	BEFORESENDDUAL( ar, PACKETTYPE_QUIZ_CHANGED, DPID_UNKNOWN, DPID_UNKNOWN );

  00032	6a 00		 push	 0
  00034	6a 00		 push	 0
  00036	8d 8d dc bf ff
	ff		 lea	 ecx, DWORD PTR _ar$[ebp]
  0003c	e8 00 00 00 00	 call	 ??0CAr@@QAE@PAXI@Z	; CAr::CAr
  00041	8d 85 d8 bf ff
	ff		 lea	 eax, DWORD PTR $T4[ebp]
  00047	c7 45 fc 00 00
	00 00		 mov	 DWORD PTR __$EHRec$[ebp+8], 0
  0004e	50		 push	 eax
  0004f	8d 85 d4 bf ff
	ff		 lea	 eax, DWORD PTR $T3[ebp]
  00055	c7 85 d8 bf ff
	ff 00 00 00 ff	 mov	 DWORD PTR $T4[ebp], -16777216 ; ff000000H
  0005f	50		 push	 eax
  00060	8d 85 d0 bf ff
	ff		 lea	 eax, DWORD PTR $T2[ebp]
  00066	c7 85 d4 bf ff
	ff ff ff ff ff	 mov	 DWORD PTR $T3[ebp], -1
  00070	50		 push	 eax
  00071	8d 8d dc bf ff
	ff		 lea	 ecx, DWORD PTR _ar$[ebp]
  00077	c7 85 d0 bf ff
	ff ff ff ff ff	 mov	 DWORD PTR $T2[ebp], -1
  00081	e8 00 00 00 00	 call	 ??$?6I@CAr@@QAEAAV0@ABI@Z ; CAr::operator<<<unsigned int>
  00086	8b c8		 mov	 ecx, eax
  00088	e8 00 00 00 00	 call	 ??$?6I@CAr@@QAEAAV0@ABI@Z ; CAr::operator<<<unsigned int>
  0008d	8b c8		 mov	 ecx, eax
  0008f	e8 00 00 00 00	 call	 ??$?6K@CAr@@QAEAAV0@ABK@Z ; CAr::operator<<<unsigned long>

; 2208 : 	SEND( ar, this, DPID_ALLPLAYERS );

  00094	8d 85 cc bf ff
	ff		 lea	 eax, DWORD PTR _nBufSize$[ebp]
  0009a	50		 push	 eax
  0009b	8d 8d dc bf ff
	ff		 lea	 ecx, DWORD PTR _ar$[ebp]
  000a1	e8 00 00 00 00	 call	 ?GetBuffer@CAr@@QAEPAEPAH@Z ; CAr::GetBuffer
; File C:\IAGOS\server\v18\Source\Source\_Network\Net\Include\DPMng.h

; 171  : 	if( !m_pDPSock )

  000a6	8b 4e 04	 mov	 ecx, DWORD PTR [esi+4]
  000a9	85 c9		 test	 ecx, ecx
  000ab	74 0e		 je	 SHORT $LN4@SendQuizEv

; 172  : 		return FALSE;
; 173  : 	return m_pDPSock->Send( (char*)lpData, dwDataSize, dpidTo );

  000ad	6a 00		 push	 0
  000af	ff b5 cc bf ff
	ff		 push	 DWORD PTR _nBufSize$[ebp]
  000b5	50		 push	 eax
  000b6	e8 00 00 00 00	 call	 ?Send@CDPSock@@QAEHPADKK@Z ; CDPSock::Send
$LN4@SendQuizEv:
; File C:\IAGOS\server\v18\Source\Source\DatabaseServer\dptrans.cpp

; 2209 : }

  000bb	8d 8d dc bf ff
	ff		 lea	 ecx, DWORD PTR _ar$[ebp]
  000c1	e8 00 00 00 00	 call	 ??1CAr@@QAE@XZ		; CAr::~CAr
  000c6	8b 4d f4	 mov	 ecx, DWORD PTR __$EHRec$[ebp]
  000c9	64 89 0d 00 00
	00 00		 mov	 DWORD PTR fs:0, ecx
  000d0	59		 pop	 ecx
  000d1	5e		 pop	 esi
  000d2	8b 4d f0	 mov	 ecx, DWORD PTR __$ArrayPad$[ebp]
  000d5	33 cd		 xor	 ecx, ebp
  000d7	e8 00 00 00 00	 call	 @__security_check_cookie@4
  000dc	8b e5		 mov	 esp, ebp
  000de	5d		 pop	 ebp
  000df	c3		 ret	 0
_TEXT	ENDS
;	COMDAT text$x
text$x	SEGMENT
__unwindfunclet$?SendQuizEventChanged@CDPTrans@@QAEXXZ$0:
  00000	8d 8d dc bf ff
	ff		 lea	 ecx, DWORD PTR _ar$[ebp]
  00006	e9 00 00 00 00	 jmp	 ??1CAr@@QAE@XZ		; CAr::~CAr
  0000b	cc		 int	 3
  0000c	cc		 int	 3
  0000d	cc		 int	 3
  0000e	cc		 int	 3
  0000f	cc		 int	 3
__ehhandler$?SendQuizEventChanged@CDPTrans@@QAEXXZ:
  00010	90		 npad	 1
  00011	90		 npad	 1
  00012	8b 54 24 08	 mov	 edx, DWORD PTR [esp+8]
  00016	8d 42 0c	 lea	 eax, DWORD PTR [edx+12]
  00019	8b 8a d0 bf ff
	ff		 mov	 ecx, DWORD PTR [edx-16432]
  0001f	33 c8		 xor	 ecx, eax
  00021	e8 00 00 00 00	 call	 @__security_check_cookie@4
  00026	8b 4a fc	 mov	 ecx, DWORD PTR [edx-4]
  00029	33 c8		 xor	 ecx, eax
  0002b	e8 00 00 00 00	 call	 @__security_check_cookie@4
  00030	b8 00 00 00 00	 mov	 eax, OFFSET __ehfuncinfo$?SendQuizEventChanged@CDPTrans@@QAEXXZ
  00035	e9 00 00 00 00	 jmp	 ___CxxFrameHandler3
text$x	ENDS
?SendQuizEventChanged@CDPTrans@@QAEXXZ ENDP		; CDPTrans::SendQuizEventChanged
; Function compile flags: /Ogtp
; File C:\IAGOS\server\v18\Source\Source\DatabaseServer\dptrans.cpp
; File C:\IAGOS\server\v18\Source\Source\_Network\Net\Include\DPMng.h
; File C:\IAGOS\server\v18\Source\Source\DatabaseServer\dptrans.cpp
;	COMDAT ?SendQuizEventNotice@CDPTrans@@QAEXK@Z
_TEXT	SEGMENT
_nBufSize$ = -16436					; size = 4
$T2 = -16432						; size = 4
$T3 = -16428						; size = 4
$T4 = -16424						; size = 4
_ar$ = -16420						; size = 16404
__$ArrayPad$ = -16					; size = 4
__$EHRec$ = -12						; size = 12
_dpId$ = 8						; size = 4
?SendQuizEventNotice@CDPTrans@@QAEXK@Z PROC		; CDPTrans::SendQuizEventNotice, COMDAT
; _this$ = ecx

; 2200 : {

  00000	55		 push	 ebp
  00001	8b ec		 mov	 ebp, esp
  00003	6a ff		 push	 -1
  00005	68 00 00 00 00	 push	 __ehhandler$?SendQuizEventNotice@CDPTrans@@QAEXK@Z
  0000a	64 a1 00 00 00
	00		 mov	 eax, DWORD PTR fs:0
  00010	50		 push	 eax
  00011	b8 28 40 00 00	 mov	 eax, 16424		; 00004028H
  00016	e8 00 00 00 00	 call	 __chkstk
  0001b	a1 00 00 00 00	 mov	 eax, DWORD PTR ___security_cookie
  00020	33 c5		 xor	 eax, ebp
  00022	89 45 f0	 mov	 DWORD PTR __$ArrayPad$[ebp], eax
  00025	56		 push	 esi
  00026	50		 push	 eax
  00027	8d 45 f4	 lea	 eax, DWORD PTR __$EHRec$[ebp]
  0002a	64 a3 00 00 00
	00		 mov	 DWORD PTR fs:0, eax
  00030	8b f1		 mov	 esi, ecx

; 2201 : 	BEFORESENDDUAL( ar, PACKETTYPE_QUIZ_NOTICE, DPID_UNKNOWN, DPID_UNKNOWN );

  00032	6a 00		 push	 0
  00034	6a 00		 push	 0
  00036	8d 8d dc bf ff
	ff		 lea	 ecx, DWORD PTR _ar$[ebp]
  0003c	e8 00 00 00 00	 call	 ??0CAr@@QAE@PAXI@Z	; CAr::CAr
  00041	8d 85 d8 bf ff
	ff		 lea	 eax, DWORD PTR $T4[ebp]
  00047	c7 45 fc 00 00
	00 00		 mov	 DWORD PTR __$EHRec$[ebp+8], 0
  0004e	50		 push	 eax
  0004f	8d 85 d4 bf ff
	ff		 lea	 eax, DWORD PTR $T3[ebp]
  00055	c7 85 d8 bf ff
	ff 02 00 00 ff	 mov	 DWORD PTR $T4[ebp], -16777214 ; ff000002H
  0005f	50		 push	 eax
  00060	8d 85 d0 bf ff
	ff		 lea	 eax, DWORD PTR $T2[ebp]
  00066	c7 85 d4 bf ff
	ff ff ff ff ff	 mov	 DWORD PTR $T3[ebp], -1
  00070	50		 push	 eax
  00071	8d 8d dc bf ff
	ff		 lea	 ecx, DWORD PTR _ar$[ebp]
  00077	c7 85 d0 bf ff
	ff ff ff ff ff	 mov	 DWORD PTR $T2[ebp], -1
  00081	e8 00 00 00 00	 call	 ??$?6I@CAr@@QAEAAV0@ABI@Z ; CAr::operator<<<unsigned int>
  00086	8b c8		 mov	 ecx, eax
  00088	e8 00 00 00 00	 call	 ??$?6I@CAr@@QAEAAV0@ABI@Z ; CAr::operator<<<unsigned int>
  0008d	8b c8		 mov	 ecx, eax
  0008f	e8 00 00 00 00	 call	 ??$?6K@CAr@@QAEAAV0@ABK@Z ; CAr::operator<<<unsigned long>

; 2202 : 	SEND( ar, this, dpId );

  00094	8d 85 cc bf ff
	ff		 lea	 eax, DWORD PTR _nBufSize$[ebp]
  0009a	50		 push	 eax
  0009b	8d 8d dc bf ff
	ff		 lea	 ecx, DWORD PTR _ar$[ebp]
  000a1	e8 00 00 00 00	 call	 ?GetBuffer@CAr@@QAEPAEPAH@Z ; CAr::GetBuffer
; File C:\IAGOS\server\v18\Source\Source\_Network\Net\Include\DPMng.h

; 171  : 	if( !m_pDPSock )

  000a6	8b 4e 04	 mov	 ecx, DWORD PTR [esi+4]
  000a9	85 c9		 test	 ecx, ecx
  000ab	74 0f		 je	 SHORT $LN4@SendQuizEv

; 172  : 		return FALSE;
; 173  : 	return m_pDPSock->Send( (char*)lpData, dwDataSize, dpidTo );

  000ad	ff 75 08	 push	 DWORD PTR _dpId$[ebp]
  000b0	ff b5 cc bf ff
	ff		 push	 DWORD PTR _nBufSize$[ebp]
  000b6	50		 push	 eax
  000b7	e8 00 00 00 00	 call	 ?Send@CDPSock@@QAEHPADKK@Z ; CDPSock::Send
$LN4@SendQuizEv:
; File C:\IAGOS\server\v18\Source\Source\DatabaseServer\dptrans.cpp

; 2203 : }

  000bc	8d 8d dc bf ff
	ff		 lea	 ecx, DWORD PTR _ar$[ebp]
  000c2	e8 00 00 00 00	 call	 ??1CAr@@QAE@XZ		; CAr::~CAr
  000c7	8b 4d f4	 mov	 ecx, DWORD PTR __$EHRec$[ebp]
  000ca	64 89 0d 00 00
	00 00		 mov	 DWORD PTR fs:0, ecx
  000d1	59		 pop	 ecx
  000d2	5e		 pop	 esi
  000d3	8b 4d f0	 mov	 ecx, DWORD PTR __$ArrayPad$[ebp]
  000d6	33 cd		 xor	 ecx, ebp
  000d8	e8 00 00 00 00	 call	 @__security_check_cookie@4
  000dd	8b e5		 mov	 esp, ebp
  000df	5d		 pop	 ebp
  000e0	c2 04 00	 ret	 4
_TEXT	ENDS
;	COMDAT text$x
text$x	SEGMENT
__unwindfunclet$?SendQuizEventNotice@CDPTrans@@QAEXK@Z$0:
  00000	8d 8d dc bf ff
	ff		 lea	 ecx, DWORD PTR _ar$[ebp]
  00006	e9 00 00 00 00	 jmp	 ??1CAr@@QAE@XZ		; CAr::~CAr
  0000b	cc		 int	 3
  0000c	cc		 int	 3
  0000d	cc		 int	 3
  0000e	cc		 int	 3
  0000f	cc		 int	 3
__ehhandler$?SendQuizEventNotice@CDPTrans@@QAEXK@Z:
  00010	90		 npad	 1
  00011	90		 npad	 1
  00012	8b 54 24 08	 mov	 edx, DWORD PTR [esp+8]
  00016	8d 42 0c	 lea	 eax, DWORD PTR [edx+12]
  00019	8b 8a d0 bf ff
	ff		 mov	 ecx, DWORD PTR [edx-16432]
  0001f	33 c8		 xor	 ecx, eax
  00021	e8 00 00 00 00	 call	 @__security_check_cookie@4
  00026	8b 4a fc	 mov	 ecx, DWORD PTR [edx-4]
  00029	33 c8		 xor	 ecx, eax
  0002b	e8 00 00 00 00	 call	 @__security_check_cookie@4
  00030	b8 00 00 00 00	 mov	 eax, OFFSET __ehfuncinfo$?SendQuizEventNotice@CDPTrans@@QAEXK@Z
  00035	e9 00 00 00 00	 jmp	 ___CxxFrameHandler3
text$x	ENDS
?SendQuizEventNotice@CDPTrans@@QAEXK@Z ENDP		; CDPTrans::SendQuizEventNotice
; Function compile flags: /Ogtp
; File C:\IAGOS\server\v18\Source\Source\DatabaseServer\dptrans.cpp
; File C:\IAGOS\server\v18\Source\Source\_Network\Misc\Include\Ar.h
; File C:\IAGOS\server\v18\Source\Source\_Common\Quiz.h
; File C:\Program Files\Microsoft Visual Studio\2022\Professional\VC\Tools\MSVC\14.44.35207\atlmfc\include\atlsimpstr.h
; File C:\IAGOS\server\v18\Source\Source\_Common\Quiz.h
; File C:\IAGOS\server\v18\Source\Source\DatabaseServer\dptrans.cpp
; File C:\IAGOS\server\v18\Source\Source\_Network\Net\Include\DPMng.h
; File C:\IAGOS\server\v18\Source\Source\DatabaseServer\dptrans.cpp
;	COMDAT ?SendQuizList@CDPTrans@@QAEXKAAU_QUIZLIST@CQuiz@@H@Z
_TEXT	SEGMENT
_nBufSize$ = -17464					; size = 4
_this$GSCopy$1$ = -17460				; size = 4
$T2 = -17456						; size = 4
$T3 = -17452						; size = 4
$T4 = -17448						; size = 4
_ar$ = -17444						; size = 16404
_szTemp$5 = -1040					; size = 1024
__$ArrayPad$ = -16					; size = 4
__$EHRec$ = -12						; size = 12
_dpId$ = 8						; size = 4
_QL$ = 12						; size = 4
_nSize$ = 16						; size = 4
?SendQuizList@CDPTrans@@QAEXKAAU_QUIZLIST@CQuiz@@H@Z PROC ; CDPTrans::SendQuizList, COMDAT
; _this$ = ecx

; 2192 : {

  00000	55		 push	 ebp
  00001	8b ec		 mov	 ebp, esp
  00003	6a ff		 push	 -1
  00005	68 00 00 00 00	 push	 __ehhandler$?SendQuizList@CDPTrans@@QAEXKAAU_QUIZLIST@CQuiz@@H@Z
  0000a	64 a1 00 00 00
	00		 mov	 eax, DWORD PTR fs:0
  00010	50		 push	 eax
  00011	b8 2c 44 00 00	 mov	 eax, 17452		; 0000442cH
  00016	e8 00 00 00 00	 call	 __chkstk
  0001b	a1 00 00 00 00	 mov	 eax, DWORD PTR ___security_cookie
  00020	33 c5		 xor	 eax, ebp
  00022	89 45 f0	 mov	 DWORD PTR __$ArrayPad$[ebp], eax
  00025	53		 push	 ebx
  00026	56		 push	 esi
  00027	57		 push	 edi
  00028	50		 push	 eax
  00029	8d 45 f4	 lea	 eax, DWORD PTR __$EHRec$[ebp]
  0002c	64 a3 00 00 00
	00		 mov	 DWORD PTR fs:0, eax
  00032	89 8d cc bb ff
	ff		 mov	 DWORD PTR _this$GSCopy$1$[ebp], ecx
  00038	8b 75 0c	 mov	 esi, DWORD PTR _QL$[ebp]

; 2193 : 	BEFORESENDDUAL( ar, PACKETTYPE_QUIZ_LOADQUIZ, DPID_UNKNOWN, DPID_UNKNOWN );

  0003b	8d 8d dc bb ff
	ff		 lea	 ecx, DWORD PTR _ar$[ebp]
  00041	6a 00		 push	 0
  00043	6a 00		 push	 0
  00045	e8 00 00 00 00	 call	 ??0CAr@@QAE@PAXI@Z	; CAr::CAr
  0004a	8d 85 d8 bb ff
	ff		 lea	 eax, DWORD PTR $T4[ebp]
  00050	c7 45 fc 00 00
	00 00		 mov	 DWORD PTR __$EHRec$[ebp+8], 0
  00057	50		 push	 eax
  00058	8d 85 d4 bb ff
	ff		 lea	 eax, DWORD PTR $T3[ebp]
  0005e	c7 85 d8 bb ff
	ff 05 00 00 ff	 mov	 DWORD PTR $T4[ebp], -16777211 ; ff000005H
  00068	50		 push	 eax
  00069	8d 85 d0 bb ff
	ff		 lea	 eax, DWORD PTR $T2[ebp]
  0006f	c7 85 d4 bb ff
	ff ff ff ff ff	 mov	 DWORD PTR $T3[ebp], -1
  00079	50		 push	 eax
  0007a	8d 8d dc bb ff
	ff		 lea	 ecx, DWORD PTR _ar$[ebp]
  00080	c7 85 d0 bb ff
	ff ff ff ff ff	 mov	 DWORD PTR $T2[ebp], -1
  0008a	e8 00 00 00 00	 call	 ??$?6I@CAr@@QAEAAV0@ABI@Z ; CAr::operator<<<unsigned int>
  0008f	8b c8		 mov	 ecx, eax
  00091	e8 00 00 00 00	 call	 ??$?6I@CAr@@QAEAAV0@ABI@Z ; CAr::operator<<<unsigned int>
  00096	8b c8		 mov	 ecx, eax
  00098	e8 00 00 00 00	 call	 ??$?6K@CAr@@QAEAAV0@ABK@Z ; CAr::operator<<<unsigned long>
; File C:\IAGOS\server\v18\Source\Source\_Network\Misc\Include\Ar.h

; 146  : 	return (m_nMode & CAr::load) == 0;

  0009d	f6 85 dc bb ff
	ff 01		 test	 BYTE PTR _ar$[ebp], 1
  000a4	8d 5e 08	 lea	 ebx, DWORD PTR [esi+8]
; File C:\IAGOS\server\v18\Source\Source\_Common\Quiz.h

; 52   : 			if( ar.IsStoring() )

  000a7	56		 push	 esi
  000a8	8d 8d dc bb ff
	ff		 lea	 ecx, DWORD PTR _ar$[ebp]
  000ae	75 42		 jne	 SHORT $LN5@SendQuizLi

; 53   : 			{
; 54   : 				ar << nQuizId;

  000b0	e8 00 00 00 00	 call	 ??$?6H@CAr@@QAEAAV0@ABH@Z ; CAr::operator<<<int>

; 55   : 				ar.WriteString( strQuestion );

  000b5	ff 76 04	 push	 DWORD PTR [esi+4]
  000b8	8d 8d dc bb ff
	ff		 lea	 ecx, DWORD PTR _ar$[ebp]
  000be	e8 00 00 00 00	 call	 ?WriteString@CAr@@QAEXPBD@Z ; CAr::WriteString

; 56   : 				ar << nCorrect;

  000c3	53		 push	 ebx
  000c4	8d 8d dc bb ff
	ff		 lea	 ecx, DWORD PTR _ar$[ebp]
  000ca	e8 00 00 00 00	 call	 ??$?6H@CAr@@QAEAAV0@ABH@Z ; CAr::operator<<<int>

; 57   : 				ar << nItemId;

  000cf	8d 46 0c	 lea	 eax, DWORD PTR [esi+12]
  000d2	50		 push	 eax
  000d3	8d 8d dc bb ff
	ff		 lea	 ecx, DWORD PTR _ar$[ebp]
  000d9	e8 00 00 00 00	 call	 ??$?6H@CAr@@QAEAAV0@ABH@Z ; CAr::operator<<<int>

; 58   : 				ar << nItemNum;

  000de	8d 46 10	 lea	 eax, DWORD PTR [esi+16]
  000e1	50		 push	 eax
  000e2	8d 8d dc bb ff
	ff		 lea	 ecx, DWORD PTR _ar$[ebp]
  000e8	e8 00 00 00 00	 call	 ??$?6H@CAr@@QAEAAV0@ABH@Z ; CAr::operator<<<int>

; 59   : 			}

  000ed	e9 93 00 00 00	 jmp	 $LN6@SendQuizLi
$LN5@SendQuizLi:

; 60   : 			else
; 61   : 			{
; 62   : 				ar >> nQuizId;

  000f2	e8 00 00 00 00	 call	 ??$?5H@CAr@@QAEAAV0@AAH@Z ; CAr::operator>><int>

; 63   : 				char szTemp[MAX_QUIZ_SIZE] = {0, };

  000f7	68 00 04 00 00	 push	 1024			; 00000400H
  000fc	8d 85 f0 fb ff
	ff		 lea	 eax, DWORD PTR _szTemp$5[ebp]
  00102	6a 00		 push	 0
  00104	50		 push	 eax
  00105	e8 00 00 00 00	 call	 _memset
  0010a	83 c4 0c	 add	 esp, 12			; 0000000cH

; 64   : 				ar.ReadString( szTemp, MAX_QUIZ_SIZE );

  0010d	8d 85 f0 fb ff
	ff		 lea	 eax, DWORD PTR _szTemp$5[ebp]
  00113	8d 8d dc bb ff
	ff		 lea	 ecx, DWORD PTR _ar$[ebp]
  00119	68 00 04 00 00	 push	 1024			; 00000400H
  0011e	50		 push	 eax
  0011f	e8 00 00 00 00	 call	 ?ReadString@CAr@@QAEPADPADH@Z ; CAr::ReadString
; File C:\Program Files\Microsoft Visual Studio\2022\Professional\VC\Tools\MSVC\14.44.35207\atlmfc\include\atlsimpstr.h

; 730  : 		return( int( strlen( psz ) ) );

  00124	8d 8d f0 fb ff
	ff		 lea	 ecx, DWORD PTR _szTemp$5[ebp]
  0012a	8d 51 01	 lea	 edx, DWORD PTR [ecx+1]
  0012d	0f 1f 00	 npad	 3
$LL24@SendQuizLi:
  00130	8a 01		 mov	 al, BYTE PTR [ecx]
  00132	41		 inc	 ecx
  00133	84 c0		 test	 al, al
  00135	75 f9		 jne	 SHORT $LL24@SendQuizLi
  00137	2b ca		 sub	 ecx, edx

; 606  : 		SetString( pszSrc, StringLength( pszSrc ) );

  00139	8d 85 f0 fb ff
	ff		 lea	 eax, DWORD PTR _szTemp$5[ebp]
  0013f	51		 push	 ecx
  00140	50		 push	 eax
  00141	8d 4e 04	 lea	 ecx, DWORD PTR [esi+4]
  00144	e8 00 00 00 00	 call	 ?SetString@?$CSimpleStringT@D$0A@@ATL@@QAEXPBDH@Z ; ATL::CSimpleStringT<char,0>::SetString
; File C:\IAGOS\server\v18\Source\Source\_Common\Quiz.h

; 66   : 				strQuestion.Replace( "|", "\r\n" );

  00149	68 00 00 00 00	 push	 OFFSET ??_C@_02PCIJFNDE@?$AN?6@
  0014e	68 00 00 00 00	 push	 OFFSET ??_C@_01DNKMNLPK@?$HM@
  00153	8d 4e 04	 lea	 ecx, DWORD PTR [esi+4]
  00156	e8 00 00 00 00	 call	 ?Replace@?$CStringT@DV?$StrTraitMFC@DV?$ChTraitsCRT@D@ATL@@@@@ATL@@QAEHPBD0@Z ; ATL::CStringT<char,StrTraitMFC<char,ATL::ChTraitsCRT<char> > >::Replace

; 67   : 				ar >> nCorrect;

  0015b	53		 push	 ebx
  0015c	8d 8d dc bb ff
	ff		 lea	 ecx, DWORD PTR _ar$[ebp]
  00162	e8 00 00 00 00	 call	 ??$?5H@CAr@@QAEAAV0@AAH@Z ; CAr::operator>><int>

; 68   : 				ar >> nItemId;

  00167	8d 46 0c	 lea	 eax, DWORD PTR [esi+12]
  0016a	50		 push	 eax
  0016b	8d 8d dc bb ff
	ff		 lea	 ecx, DWORD PTR _ar$[ebp]
  00171	e8 00 00 00 00	 call	 ??$?5H@CAr@@QAEAAV0@AAH@Z ; CAr::operator>><int>

; 69   : 				ar >> nItemNum;

  00176	8d 46 10	 lea	 eax, DWORD PTR [esi+16]
  00179	50		 push	 eax
  0017a	8d 8d dc bb ff
	ff		 lea	 ecx, DWORD PTR _ar$[ebp]
  00180	e8 00 00 00 00	 call	 ??$?5H@CAr@@QAEAAV0@AAH@Z ; CAr::operator>><int>
$LN6@SendQuizLi:
; File C:\IAGOS\server\v18\Source\Source\DatabaseServer\dptrans.cpp

; 2195 : 	ar << nSize;

  00185	8d 45 10	 lea	 eax, DWORD PTR _nSize$[ebp]
  00188	50		 push	 eax
  00189	8d 8d dc bb ff
	ff		 lea	 ecx, DWORD PTR _ar$[ebp]
  0018f	e8 00 00 00 00	 call	 ??$?6H@CAr@@QAEAAV0@ABH@Z ; CAr::operator<<<int>

; 2196 : 	SEND( ar, this, dpId );

  00194	8d 85 c8 bb ff
	ff		 lea	 eax, DWORD PTR _nBufSize$[ebp]
  0019a	50		 push	 eax
  0019b	8d 8d dc bb ff
	ff		 lea	 ecx, DWORD PTR _ar$[ebp]
  001a1	e8 00 00 00 00	 call	 ?GetBuffer@CAr@@QAEPAEPAH@Z ; CAr::GetBuffer
; File C:\IAGOS\server\v18\Source\Source\_Network\Net\Include\DPMng.h

; 171  : 	if( !m_pDPSock )

  001a6	8b 8d cc bb ff
	ff		 mov	 ecx, DWORD PTR _this$GSCopy$1$[ebp]
  001ac	8b 49 04	 mov	 ecx, DWORD PTR [ecx+4]
  001af	85 c9		 test	 ecx, ecx
  001b1	74 0f		 je	 SHORT $LN21@SendQuizLi

; 172  : 		return FALSE;
; 173  : 	return m_pDPSock->Send( (char*)lpData, dwDataSize, dpidTo );

  001b3	ff 75 08	 push	 DWORD PTR _dpId$[ebp]
  001b6	ff b5 c8 bb ff
	ff		 push	 DWORD PTR _nBufSize$[ebp]
  001bc	50		 push	 eax
  001bd	e8 00 00 00 00	 call	 ?Send@CDPSock@@QAEHPADKK@Z ; CDPSock::Send
$LN21@SendQuizLi:
; File C:\IAGOS\server\v18\Source\Source\DatabaseServer\dptrans.cpp

; 2197 : }

  001c2	8d 8d dc bb ff
	ff		 lea	 ecx, DWORD PTR _ar$[ebp]
  001c8	e8 00 00 00 00	 call	 ??1CAr@@QAE@XZ		; CAr::~CAr
  001cd	8b 4d f4	 mov	 ecx, DWORD PTR __$EHRec$[ebp]
  001d0	64 89 0d 00 00
	00 00		 mov	 DWORD PTR fs:0, ecx
  001d7	59		 pop	 ecx
  001d8	5f		 pop	 edi
  001d9	5e		 pop	 esi
  001da	5b		 pop	 ebx
  001db	8b 4d f0	 mov	 ecx, DWORD PTR __$ArrayPad$[ebp]
  001de	33 cd		 xor	 ecx, ebp
  001e0	e8 00 00 00 00	 call	 @__security_check_cookie@4
  001e5	8b e5		 mov	 esp, ebp
  001e7	5d		 pop	 ebp
  001e8	c2 0c 00	 ret	 12			; 0000000cH
_TEXT	ENDS
;	COMDAT text$x
text$x	SEGMENT
__unwindfunclet$?SendQuizList@CDPTrans@@QAEXKAAU_QUIZLIST@CQuiz@@H@Z$0:
  00000	8d 8d dc bb ff
	ff		 lea	 ecx, DWORD PTR _ar$[ebp]
  00006	e9 00 00 00 00	 jmp	 ??1CAr@@QAE@XZ		; CAr::~CAr
  0000b	cc		 int	 3
  0000c	cc		 int	 3
  0000d	cc		 int	 3
  0000e	cc		 int	 3
  0000f	cc		 int	 3
__ehhandler$?SendQuizList@CDPTrans@@QAEXKAAU_QUIZLIST@CQuiz@@H@Z:
  00010	90		 npad	 1
  00011	90		 npad	 1
  00012	8b 54 24 08	 mov	 edx, DWORD PTR [esp+8]
  00016	8d 42 0c	 lea	 eax, DWORD PTR [edx+12]
  00019	8b 8a c4 bb ff
	ff		 mov	 ecx, DWORD PTR [edx-17468]
  0001f	33 c8		 xor	 ecx, eax
  00021	e8 00 00 00 00	 call	 @__security_check_cookie@4
  00026	8b 4a fc	 mov	 ecx, DWORD PTR [edx-4]
  00029	33 c8		 xor	 ecx, eax
  0002b	e8 00 00 00 00	 call	 @__security_check_cookie@4
  00030	b8 00 00 00 00	 mov	 eax, OFFSET __ehfuncinfo$?SendQuizList@CDPTrans@@QAEXKAAU_QUIZLIST@CQuiz@@H@Z
  00035	e9 00 00 00 00	 jmp	 ___CxxFrameHandler3
text$x	ENDS
?SendQuizList@CDPTrans@@QAEXKAAU_QUIZLIST@CQuiz@@H@Z ENDP ; CDPTrans::SendQuizList
; Function compile flags: /Ogtp
; File C:\IAGOS\server\v18\Source\Source\DatabaseServer\dptrans.cpp
; File C:\IAGOS\server\v18\Source\Source\_Network\Net\Include\DPMng.h
; File C:\IAGOS\server\v18\Source\Source\DatabaseServer\dptrans.cpp
;	COMDAT ?SendQuizEventOpen@CDPTrans@@QAEXK@Z
_TEXT	SEGMENT
_nBufSize$ = -16436					; size = 4
$T2 = -16432						; size = 4
$T3 = -16428						; size = 4
$T4 = -16424						; size = 4
_ar$ = -16420						; size = 16404
__$ArrayPad$ = -16					; size = 4
__$EHRec$ = -12						; size = 12
_dpId$ = 8						; size = 4
?SendQuizEventOpen@CDPTrans@@QAEXK@Z PROC		; CDPTrans::SendQuizEventOpen, COMDAT
; _this$ = ecx

; 2186 : {

  00000	55		 push	 ebp
  00001	8b ec		 mov	 ebp, esp
  00003	6a ff		 push	 -1
  00005	68 00 00 00 00	 push	 __ehhandler$?SendQuizEventOpen@CDPTrans@@QAEXK@Z
  0000a	64 a1 00 00 00
	00		 mov	 eax, DWORD PTR fs:0
  00010	50		 push	 eax
  00011	b8 28 40 00 00	 mov	 eax, 16424		; 00004028H
  00016	e8 00 00 00 00	 call	 __chkstk
  0001b	a1 00 00 00 00	 mov	 eax, DWORD PTR ___security_cookie
  00020	33 c5		 xor	 eax, ebp
  00022	89 45 f0	 mov	 DWORD PTR __$ArrayPad$[ebp], eax
  00025	56		 push	 esi
  00026	50		 push	 eax
  00027	8d 45 f4	 lea	 eax, DWORD PTR __$EHRec$[ebp]
  0002a	64 a3 00 00 00
	00		 mov	 DWORD PTR fs:0, eax
  00030	8b f1		 mov	 esi, ecx

; 2187 : 	BEFORESENDDUAL( ar, PACKETTYPE_QUIZ_OPEN, DPID_UNKNOWN, DPID_UNKNOWN );

  00032	6a 00		 push	 0
  00034	6a 00		 push	 0
  00036	8d 8d dc bf ff
	ff		 lea	 ecx, DWORD PTR _ar$[ebp]
  0003c	e8 00 00 00 00	 call	 ??0CAr@@QAE@PAXI@Z	; CAr::CAr
  00041	8d 85 d8 bf ff
	ff		 lea	 eax, DWORD PTR $T4[ebp]
  00047	c7 45 fc 00 00
	00 00		 mov	 DWORD PTR __$EHRec$[ebp+8], 0
  0004e	50		 push	 eax
  0004f	8d 85 d4 bf ff
	ff		 lea	 eax, DWORD PTR $T3[ebp]
  00055	c7 85 d8 bf ff
	ff 08 00 00 ff	 mov	 DWORD PTR $T4[ebp], -16777208 ; ff000008H
  0005f	50		 push	 eax
  00060	8d 85 d0 bf ff
	ff		 lea	 eax, DWORD PTR $T2[ebp]
  00066	c7 85 d4 bf ff
	ff ff ff ff ff	 mov	 DWORD PTR $T3[ebp], -1
  00070	50		 push	 eax
  00071	8d 8d dc bf ff
	ff		 lea	 ecx, DWORD PTR _ar$[ebp]
  00077	c7 85 d0 bf ff
	ff ff ff ff ff	 mov	 DWORD PTR $T2[ebp], -1
  00081	e8 00 00 00 00	 call	 ??$?6I@CAr@@QAEAAV0@ABI@Z ; CAr::operator<<<unsigned int>
  00086	8b c8		 mov	 ecx, eax
  00088	e8 00 00 00 00	 call	 ??$?6I@CAr@@QAEAAV0@ABI@Z ; CAr::operator<<<unsigned int>
  0008d	8b c8		 mov	 ecx, eax
  0008f	e8 00 00 00 00	 call	 ??$?6K@CAr@@QAEAAV0@ABK@Z ; CAr::operator<<<unsigned long>

; 2188 : 	SEND( ar, this, dpId );

  00094	8d 85 cc bf ff
	ff		 lea	 eax, DWORD PTR _nBufSize$[ebp]
  0009a	50		 push	 eax
  0009b	8d 8d dc bf ff
	ff		 lea	 ecx, DWORD PTR _ar$[ebp]
  000a1	e8 00 00 00 00	 call	 ?GetBuffer@CAr@@QAEPAEPAH@Z ; CAr::GetBuffer
; File C:\IAGOS\server\v18\Source\Source\_Network\Net\Include\DPMng.h

; 171  : 	if( !m_pDPSock )

  000a6	8b 4e 04	 mov	 ecx, DWORD PTR [esi+4]
  000a9	85 c9		 test	 ecx, ecx
  000ab	74 0f		 je	 SHORT $LN4@SendQuizEv

; 172  : 		return FALSE;
; 173  : 	return m_pDPSock->Send( (char*)lpData, dwDataSize, dpidTo );

  000ad	ff 75 08	 push	 DWORD PTR _dpId$[ebp]
  000b0	ff b5 cc bf ff
	ff		 push	 DWORD PTR _nBufSize$[ebp]
  000b6	50		 push	 eax
  000b7	e8 00 00 00 00	 call	 ?Send@CDPSock@@QAEHPADKK@Z ; CDPSock::Send
$LN4@SendQuizEv:
; File C:\IAGOS\server\v18\Source\Source\DatabaseServer\dptrans.cpp

; 2189 : }

  000bc	8d 8d dc bf ff
	ff		 lea	 ecx, DWORD PTR _ar$[ebp]
  000c2	e8 00 00 00 00	 call	 ??1CAr@@QAE@XZ		; CAr::~CAr
  000c7	8b 4d f4	 mov	 ecx, DWORD PTR __$EHRec$[ebp]
  000ca	64 89 0d 00 00
	00 00		 mov	 DWORD PTR fs:0, ecx
  000d1	59		 pop	 ecx
  000d2	5e		 pop	 esi
  000d3	8b 4d f0	 mov	 ecx, DWORD PTR __$ArrayPad$[ebp]
  000d6	33 cd		 xor	 ecx, ebp
  000d8	e8 00 00 00 00	 call	 @__security_check_cookie@4
  000dd	8b e5		 mov	 esp, ebp
  000df	5d		 pop	 ebp
  000e0	c2 04 00	 ret	 4
_TEXT	ENDS
;	COMDAT text$x
text$x	SEGMENT
__unwindfunclet$?SendQuizEventOpen@CDPTrans@@QAEXK@Z$0:
  00000	8d 8d dc bf ff
	ff		 lea	 ecx, DWORD PTR _ar$[ebp]
  00006	e9 00 00 00 00	 jmp	 ??1CAr@@QAE@XZ		; CAr::~CAr
  0000b	cc		 int	 3
  0000c	cc		 int	 3
  0000d	cc		 int	 3
  0000e	cc		 int	 3
  0000f	cc		 int	 3
__ehhandler$?SendQuizEventOpen@CDPTrans@@QAEXK@Z:
  00010	90		 npad	 1
  00011	90		 npad	 1
  00012	8b 54 24 08	 mov	 edx, DWORD PTR [esp+8]
  00016	8d 42 0c	 lea	 eax, DWORD PTR [edx+12]
  00019	8b 8a d0 bf ff
	ff		 mov	 ecx, DWORD PTR [edx-16432]
  0001f	33 c8		 xor	 ecx, eax
  00021	e8 00 00 00 00	 call	 @__security_check_cookie@4
  00026	8b 4a fc	 mov	 ecx, DWORD PTR [edx-4]
  00029	33 c8		 xor	 ecx, eax
  0002b	e8 00 00 00 00	 call	 @__security_check_cookie@4
  00030	b8 00 00 00 00	 mov	 eax, OFFSET __ehfuncinfo$?SendQuizEventOpen@CDPTrans@@QAEXK@Z
  00035	e9 00 00 00 00	 jmp	 ___CxxFrameHandler3
text$x	ENDS
?SendQuizEventOpen@CDPTrans@@QAEXK@Z ENDP		; CDPTrans::SendQuizEventOpen
; Function compile flags: /Ogtp
; File C:\IAGOS\server\v18\Source\Source\DatabaseServer\dptrans.cpp
; File C:\IAGOS\server\v18\Source\Source\DatabaseServer\QuizDBCtrl.h
; File C:\IAGOS\server\v18\Source\Source\DatabaseServer\dptrans.cpp
;	COMDAT ?OnPostPrizeItem@CDPTrans@@QAEXAAVCAr@@KKKPAEK@Z
_TEXT	SEGMENT
_ar$ = 8						; size = 4
_dpid$ = 12						; size = 4
_dpidCache$ = 16					; size = 4
_dpidUser$ = 20						; size = 4
_lpBuf$ = 24						; size = 4
_uBufSize$ = 28						; size = 4
?OnPostPrizeItem@CDPTrans@@QAEXAAVCAr@@KKKPAEK@Z PROC	; CDPTrans::OnPostPrizeItem, COMDAT
; _this$ = ecx

; 2181 : {

  00000	55		 push	 ebp
  00001	8b ec		 mov	 ebp, esp

; 2182 : 	CQuizDBMng::GetInstance()->PostRequest( QUERY_QUIZ_POST_PRIZE, lpBuf, uBufSize, dpid );

  00003	e8 00 00 00 00	 call	 ?GetInstance@CQuizDBMng@@SAPAV1@XZ ; CQuizDBMng::GetInstance
; File C:\IAGOS\server\v18\Source\Source\DatabaseServer\QuizDBCtrl.h

; 90   : 	{ return m_QuizDBCtrl.PostRequest( nQuery, lpBuf, nBufSize, dwCompletionKey );	}

  00008	ff 75 0c	 push	 DWORD PTR _dpid$[ebp]
  0000b	8b c8		 mov	 ecx, eax
  0000d	ff 75 1c	 push	 DWORD PTR _uBufSize$[ebp]
  00010	ff 75 18	 push	 DWORD PTR _lpBuf$[ebp]
  00013	6a 04		 push	 4
  00015	e8 00 00 00 00	 call	 ?PostRequest@CDbController@@QAEHHPAEHK@Z ; CDbController::PostRequest
; File C:\IAGOS\server\v18\Source\Source\DatabaseServer\dptrans.cpp

; 2183 : }

  0001a	5d		 pop	 ebp
  0001b	c2 18 00	 ret	 24			; 00000018H
?OnPostPrizeItem@CDPTrans@@QAEXAAVCAr@@KKKPAEK@Z ENDP	; CDPTrans::OnPostPrizeItem
_TEXT	ENDS
; Function compile flags: /Ogtp
; File C:\IAGOS\server\v18\Source\Source\DatabaseServer\dptrans.cpp
; File C:\IAGOS\server\v18\Source\Source\DatabaseServer\QuizDBCtrl.h
; File C:\IAGOS\server\v18\Source\Source\DatabaseServer\dptrans.cpp
;	COMDAT ?OnQuizEventSelect@CDPTrans@@QAEXAAVCAr@@KKKPAEK@Z
_TEXT	SEGMENT
_ar$ = 8						; size = 4
_dpid$ = 12						; size = 4
_dpidCache$ = 16					; size = 4
_dpidUser$ = 20						; size = 4
_lpBuf$ = 24						; size = 4
_uBufSize$ = 28						; size = 4
?OnQuizEventSelect@CDPTrans@@QAEXAAVCAr@@KKKPAEK@Z PROC	; CDPTrans::OnQuizEventSelect, COMDAT
; _this$ = ecx

; 2176 : {

  00000	55		 push	 ebp
  00001	8b ec		 mov	 ebp, esp

; 2177 : 	CQuizDBMng::GetInstance()->PostRequest( QUERY_QUIZ_SELECT, lpBuf, uBufSize, dpid );

  00003	e8 00 00 00 00	 call	 ?GetInstance@CQuizDBMng@@SAPAV1@XZ ; CQuizDBMng::GetInstance
; File C:\IAGOS\server\v18\Source\Source\DatabaseServer\QuizDBCtrl.h

; 90   : 	{ return m_QuizDBCtrl.PostRequest( nQuery, lpBuf, nBufSize, dwCompletionKey );	}

  00008	ff 75 0c	 push	 DWORD PTR _dpid$[ebp]
  0000b	8b c8		 mov	 ecx, eax
  0000d	ff 75 1c	 push	 DWORD PTR _uBufSize$[ebp]
  00010	ff 75 18	 push	 DWORD PTR _lpBuf$[ebp]
  00013	6a 03		 push	 3
  00015	e8 00 00 00 00	 call	 ?PostRequest@CDbController@@QAEHHPAEHK@Z ; CDbController::PostRequest
; File C:\IAGOS\server\v18\Source\Source\DatabaseServer\dptrans.cpp

; 2178 : }

  0001a	5d		 pop	 ebp
  0001b	c2 18 00	 ret	 24			; 00000018H
?OnQuizEventSelect@CDPTrans@@QAEXAAVCAr@@KKKPAEK@Z ENDP	; CDPTrans::OnQuizEventSelect
_TEXT	ENDS
; Function compile flags: /Ogtp
; File C:\IAGOS\server\v18\Source\Source\DatabaseServer\dptrans.cpp
; File C:\IAGOS\server\v18\Source\Source\DatabaseServer\QuizDBCtrl.h
; File C:\IAGOS\server\v18\Source\Source\DatabaseServer\dptrans.cpp
;	COMDAT ?OnQuizEventEntrance@CDPTrans@@QAEXAAVCAr@@KKKPAEK@Z
_TEXT	SEGMENT
_ar$ = 8						; size = 4
_dpid$ = 12						; size = 4
_dpidCache$ = 16					; size = 4
_dpidUser$ = 20						; size = 4
_lpBuf$ = 24						; size = 4
_uBufSize$ = 28						; size = 4
?OnQuizEventEntrance@CDPTrans@@QAEXAAVCAr@@KKKPAEK@Z PROC ; CDPTrans::OnQuizEventEntrance, COMDAT
; _this$ = ecx

; 2171 : {

  00000	55		 push	 ebp
  00001	8b ec		 mov	 ebp, esp

; 2172 : 	CQuizDBMng::GetInstance()->PostRequest( QUERY_QUIZ_ENTRANCE, lpBuf, uBufSize, dpid );

  00003	e8 00 00 00 00	 call	 ?GetInstance@CQuizDBMng@@SAPAV1@XZ ; CQuizDBMng::GetInstance
; File C:\IAGOS\server\v18\Source\Source\DatabaseServer\QuizDBCtrl.h

; 90   : 	{ return m_QuizDBCtrl.PostRequest( nQuery, lpBuf, nBufSize, dwCompletionKey );	}

  00008	ff 75 0c	 push	 DWORD PTR _dpid$[ebp]
  0000b	8b c8		 mov	 ecx, eax
  0000d	ff 75 1c	 push	 DWORD PTR _uBufSize$[ebp]
  00010	ff 75 18	 push	 DWORD PTR _lpBuf$[ebp]
  00013	6a 02		 push	 2
  00015	e8 00 00 00 00	 call	 ?PostRequest@CDbController@@QAEHHPAEHK@Z ; CDbController::PostRequest
; File C:\IAGOS\server\v18\Source\Source\DatabaseServer\dptrans.cpp

; 2173 : }

  0001a	5d		 pop	 ebp
  0001b	c2 18 00	 ret	 24			; 00000018H
?OnQuizEventEntrance@CDPTrans@@QAEXAAVCAr@@KKKPAEK@Z ENDP ; CDPTrans::OnQuizEventEntrance
_TEXT	ENDS
; Function compile flags: /Ogtp
; File C:\IAGOS\server\v18\Source\Source\DatabaseServer\dptrans.cpp
; File C:\IAGOS\server\v18\Source\Source\DatabaseServer\QuizDBCtrl.h
; File C:\IAGOS\server\v18\Source\Source\DatabaseServer\dptrans.cpp
;	COMDAT ?OnQuizEventState@CDPTrans@@QAEXAAVCAr@@KKKPAEK@Z
_TEXT	SEGMENT
_ar$ = 8						; size = 4
_dpid$ = 12						; size = 4
_dpidCache$ = 16					; size = 4
_dpidUser$ = 20						; size = 4
_lpBuf$ = 24						; size = 4
_uBufSize$ = 28						; size = 4
?OnQuizEventState@CDPTrans@@QAEXAAVCAr@@KKKPAEK@Z PROC	; CDPTrans::OnQuizEventState, COMDAT
; _this$ = ecx

; 2166 : {

  00000	55		 push	 ebp
  00001	8b ec		 mov	 ebp, esp

; 2167 : 	CQuizDBMng::GetInstance()->PostRequest( QUERY_QUIZ_STATE, lpBuf, uBufSize, dpid );

  00003	e8 00 00 00 00	 call	 ?GetInstance@CQuizDBMng@@SAPAV1@XZ ; CQuizDBMng::GetInstance
; File C:\IAGOS\server\v18\Source\Source\DatabaseServer\QuizDBCtrl.h

; 90   : 	{ return m_QuizDBCtrl.PostRequest( nQuery, lpBuf, nBufSize, dwCompletionKey );	}

  00008	ff 75 0c	 push	 DWORD PTR _dpid$[ebp]
  0000b	8b c8		 mov	 ecx, eax
  0000d	ff 75 1c	 push	 DWORD PTR _uBufSize$[ebp]
  00010	ff 75 18	 push	 DWORD PTR _lpBuf$[ebp]
  00013	6a 01		 push	 1
  00015	e8 00 00 00 00	 call	 ?PostRequest@CDbController@@QAEHHPAEHK@Z ; CDbController::PostRequest
; File C:\IAGOS\server\v18\Source\Source\DatabaseServer\dptrans.cpp

; 2168 : }

  0001a	5d		 pop	 ebp
  0001b	c2 18 00	 ret	 24			; 00000018H
?OnQuizEventState@CDPTrans@@QAEXAAVCAr@@KKKPAEK@Z ENDP	; CDPTrans::OnQuizEventState
_TEXT	ENDS
; Function compile flags: /Ogtp
; File C:\IAGOS\server\v18\Source\Source\DatabaseServer\dptrans.cpp
; File C:\IAGOS\server\v18\Source\Source\DatabaseServer\QuizDBCtrl.h
; File C:\IAGOS\server\v18\Source\Source\DatabaseServer\dptrans.cpp
;	COMDAT ?OnQuizEventOpen@CDPTrans@@QAEXAAVCAr@@KKKPAEK@Z
_TEXT	SEGMENT
_ar$ = 8						; size = 4
_dpid$ = 12						; size = 4
