; Listing generated by Microsoft (R) Optimizing Compiler Version 19.44.35225.0 

	TITLE	C:\IAGOS\server\v18\Source\Output\DatabaseServer\Release\exceptionhandler.obj
	.686P
	.XMM
	include listing.inc
	.model	flat

INCLUDELIB LIBCMT
INCLUDELIB OLDNAMES

PUBLIC	?__empty_global_delete@@YAXPAX@Z		; __empty_global_delete
PUBLIC	?__empty_global_delete@@YAXPAXI@Z		; __empty_global_delete
PUBLIC	___local_stdio_printf_options
PUBLIC	_sprintf
PUBLIC	?InitEH@@YAXXZ					; InitEH
PUBLIC	?_AddErrorMsg@@YAXPBD0@Z			; _AddErrorMsg
PUBLIC	?CrashHandlerExceptionFilter@@YGJPAU_EXCEPTION_POINTERS@@@Z ; CrashHandlerExceptionFilter
PUBLIC	?_OptionsStorage@?1??__local_stdio_printf_options@@9@4_KA ; `__local_stdio_printf_options'::`2'::_OptionsStorage
PUBLIC	??_C@_01EEMJAFIK@?6@				; `string'
PUBLIC	??_C@_0N@CLNKCBPC@rCnt?$DN?$CFd?5?$AN?6?$CFs@	; `string'
PUBLIC	??_C@_0BB@OMLDONOD@?6?6?5?9?5Registers?6?6@	; `string'
PUBLIC	??_C@_02PHMGELLB@?6?6@				; `string'
PUBLIC	??_C@_06OJHGLDPL@?$CInull?$CJ@			; `string'
PUBLIC	??_C@_07IPOGOAKJ@?$AN?6?1?1?5?$CFd@		; `string'
PUBLIC	??_C@_04JEGEICAJ@?$AN?6?$CFs@			; `string'
PUBLIC	??_C@_02DKCKIIND@?$CFs@				; `string'
EXTRN	__imp__SetUnhandledExceptionFilter@4:PROC
EXTRN	__imp__SetErrorMode@4:PROC
EXTRN	___stdio_common_vsprintf:PROC
EXTRN	?Error@@YAPBDPBDZZ:PROC				; Error
EXTRN	__imp__GetFaultReason@4:PROC
EXTRN	__imp__GetFirstStackTraceString@8:PROC
EXTRN	__imp__GetNextStackTraceString@8:PROC
EXTRN	__imp__GetRegisterString@4:PROC
EXTRN	@__security_check_cookie@4:PROC
EXTRN	__chkstk:PROC
EXTRN	_memset:PROC
EXTRN	?g_DbManager@@3AAVCDbManager@@A:DWORD		; g_DbManager
EXTRN	___security_cookie:DWORD
;	COMDAT ?_OptionsStorage@?1??__local_stdio_printf_options@@9@4_KA
_BSS	SEGMENT
?_OptionsStorage@?1??__local_stdio_printf_options@@9@4_KA DQ 01H DUP (?) ; `__local_stdio_printf_options'::`2'::_OptionsStorage
_BSS	ENDS
_BSS	SEGMENT
?g_szErrorAdd@@3PADA DB 07fffH DUP (?)			; g_szErrorAdd
	ALIGN	4

?s_nRecrvCnt@@3JC DD 01H DUP (?)			; s_nRecrvCnt
_BSS	ENDS
;	COMDAT ??_C@_02DKCKIIND@?$CFs@
CONST	SEGMENT
??_C@_02DKCKIIND@?$CFs@ DB '%s', 00H			; `string'
CONST	ENDS
;	COMDAT ??_C@_04JEGEICAJ@?$AN?6?$CFs@
CONST	SEGMENT
??_C@_04JEGEICAJ@?$AN?6?$CFs@ DB 0dH, 0aH, '%s', 00H	; `string'
CONST	ENDS
;	COMDAT ??_C@_07IPOGOAKJ@?$AN?6?1?1?5?$CFd@
CONST	SEGMENT
??_C@_07IPOGOAKJ@?$AN?6?1?1?5?$CFd@ DB 0dH, 0aH, '// %d', 00H ; `string'
CONST	ENDS
;	COMDAT ??_C@_06OJHGLDPL@?$CInull?$CJ@
CONST	SEGMENT
??_C@_06OJHGLDPL@?$CInull?$CJ@ DB '(null)', 00H		; `string'
CONST	ENDS
;	COMDAT ??_C@_02PHMGELLB@?6?6@
CONST	SEGMENT
??_C@_02PHMGELLB@?6?6@ DB 0aH, 0aH, 00H			; `string'
CONST	ENDS
;	COMDAT ??_C@_0BB@OMLDONOD@?6?6?5?9?5Registers?6?6@
CONST	SEGMENT
??_C@_0BB@OMLDONOD@?6?6?5?9?5Registers?6?6@ DB 0aH, 0aH, ' - Registers', 0aH
	DB	0aH, 00H					; `string'
CONST	ENDS
;	COMDAT ??_C@_0N@CLNKCBPC@rCnt?$DN?$CFd?5?$AN?6?$CFs@
CONST	SEGMENT
??_C@_0N@CLNKCBPC@rCnt?$DN?$CFd?5?$AN?6?$CFs@ DB 'rCnt=%d ', 0dH, 0aH, '%'
	DB	's', 00H					; `string'
CONST	ENDS
;	COMDAT ??_C@_01EEMJAFIK@?6@
CONST	SEGMENT
??_C@_01EEMJAFIK@?6@ DB 0aH, 00H			; `string'
CONST	ENDS
;	COMDAT voltbl
voltbl	SEGMENT
_volmd	DB	065H
voltbl	ENDS
; Function compile flags: /Ogtp
; File C:\IAGOS\server\v18\Source\Source\_UnhandledException\exceptionhandler.cpp
;	COMDAT ?CrashHandlerExceptionFilter@@YGJPAU_EXCEPTION_POINTERS@@@Z
_TEXT	SEGMENT
_pExPtrs$GSCopy$1$ = -16436				; size = 4
_szReason$ = -16432					; size = 16384
_szTemp$1 = -48						; size = 44
__$ArrayPad$ = -4					; size = 4
_pExPtrs$ = 8						; size = 4
?CrashHandlerExceptionFilter@@YGJPAU_EXCEPTION_POINTERS@@@Z PROC ; CrashHandlerExceptionFilter, COMDAT

; 138  : {

  00000	55		 push	 ebp
  00001	8b ec		 mov	 ebp, esp
  00003	b8 34 40 00 00	 mov	 eax, 16436		; 00004034H
  00008	e8 00 00 00 00	 call	 __chkstk
  0000d	a1 00 00 00 00	 mov	 eax, DWORD PTR ___security_cookie
  00012	33 c5		 xor	 eax, ebp
  00014	89 45 fc	 mov	 DWORD PTR __$ArrayPad$[ebp], eax
  00017	53		 push	 ebx
  00018	8b 5d 08	 mov	 ebx, DWORD PTR _pExPtrs$[ebp]

; 139  : 	LONG lRet;
; 140  : 	if( InterlockedIncrement( &s_nRecrvCnt ) >= 3 )

  0001b	b8 01 00 00 00	 mov	 eax, 1
  00020	89 9d cc bf ff
	ff		 mov	 DWORD PTR _pExPtrs$GSCopy$1$[ebp], ebx
  00026	f0 0f c1 05 00
	00 00 00	 lock	  xadd	 DWORD PTR ?s_nRecrvCnt@@3JC, eax
  0002e	40		 inc	 eax
  0002f	83 f8 03	 cmp	 eax, 3
  00032	7c 13		 jl	 SHORT $LN7@CrashHandl

; 141  : 		return EXCEPTION_CONTINUE_SEARCH;

  00034	33 c0		 xor	 eax, eax
  00036	5b		 pop	 ebx

; 258  : }

  00037	8b 4d fc	 mov	 ecx, DWORD PTR __$ArrayPad$[ebp]
  0003a	33 cd		 xor	 ecx, ebp
  0003c	e8 00 00 00 00	 call	 @__security_check_cookie@4
  00041	8b e5		 mov	 esp, ebp
  00043	5d		 pop	 ebp
  00044	c2 04 00	 ret	 4
$LN7@CrashHandl:

; 142  : 
; 143  : 	// µđąö±ë ¸đµĺ ŔĎ¶§żˇ´Â Ăß°ˇ Á¤ş¸¸¦ ş¸ż©ÁÖÁö ľĘ°í
; 144  : 	// EXCEPTION_CONTINUE_SEARCH  °ŞŔ» ¸®ĹĎÇÔŔ¸·Î˝á
; 145  : 	// ÇÁ·Î±×·ˇ¸Ó°ˇ µđąö±ë ÇŇ Ľö ŔÖµµ·Ď ÇŃ´Ů.
; 146  : #ifdef _DEBUG
; 147  : 	lRet = EXCEPTION_CONTINUE_SEARCH ;
; 148  : 	return lRet;
; 149  : #else
; 150  : 	lRet = EXCEPTION_EXECUTE_HANDLER;
; 151  : #endif
; 152  : 	
; 153  : 	// żÖ Á×ľú´ÂÁö ľËľĆł»µµ·Ď ÇŐ´Ď´Ů.
; 154  : 	char szReason[ 1024*16 ] = {0, };

  00047	68 00 40 00 00	 push	 16384			; 00004000H
  0004c	8d 85 d0 bf ff
	ff		 lea	 eax, DWORD PTR _szReason$[ebp]
  00052	6a 00		 push	 0
  00054	50		 push	 eax
  00055	e8 00 00 00 00	 call	 _memset
  0005a	83 c4 0c	 add	 esp, 12			; 0000000cH

; 155  : #ifdef __CLIENT
; 156  : 	sprintf( szReason, "%s rCnt=%d\r\n%s", g_szVersion, s_nRecrvCnt, GetFaultReason(pExPtrs) );
; 157  : #else
; 158  : 	sprintf( szReason, "rCnt=%d \r\n%s", s_nRecrvCnt, GetFaultReason(pExPtrs) );

  0005d	53		 push	 ebx
  0005e	ff 15 00 00 00
	00		 call	 DWORD PTR __imp__GetFaultReason@4
  00064	50		 push	 eax
  00065	a1 00 00 00 00	 mov	 eax, DWORD PTR ?s_nRecrvCnt@@3JC
  0006a	50		 push	 eax
  0006b	8d 85 d0 bf ff
	ff		 lea	 eax, DWORD PTR _szReason$[ebp]
  00071	68 00 00 00 00	 push	 OFFSET ??_C@_0N@CLNKCBPC@rCnt?$DN?$CFd?5?$AN?6?$CFs@
  00076	50		 push	 eax
  00077	e8 00 00 00 00	 call	 _sprintf

; 159  : #endif
; 160  : 
; 161  : #ifdef __CRASH_0404
; 162  : 	CCrashStatus::GetInstance()->PrintStatus();		// cache server only
; 163  : #endif	// __CRASH_0404
; 164  : 
; 165  : #ifdef __WORLDSERVER
; 166  : 	#if !defined(__REMOVE_SCIRPT_060712)
; 167  : 		char szLatestDialog[512]	= { 0, };
; 168  : 		sprintf( szLatestDialog, "\n\nlatest dialog : %s\t%s\t%s\t%s\n", CScriptDialog::s_pszName, CScriptDialog::s_pszKey, CScriptDialog::s_pszBeforeRun, CScriptDialog::s_pszAfterRun );
; 169  : 		strcat( szReason, szLatestDialog );
; 170  : 	#endif
; 171  : #endif	// __WORLDSERVER
; 172  : 
; 173  : 	strcat( szReason, "\n\n - Registers\n\n" );

  0007c	8d 8d d0 bf ff
	ff		 lea	 ecx, DWORD PTR _szReason$[ebp]
  00082	83 c4 10	 add	 esp, 16			; 00000010H
  00085	49		 dec	 ecx
$LL22@CrashHandl:
  00086	8a 41 01	 mov	 al, BYTE PTR [ecx+1]
  00089	8d 49 01	 lea	 ecx, DWORD PTR [ecx+1]
  0008c	84 c0		 test	 al, al
  0008e	75 f6		 jne	 SHORT $LL22@CrashHandl
  00090	a1 00 00 00 00	 mov	 eax, DWORD PTR ??_C@_0BB@OMLDONOD@?6?6?5?9?5Registers?6?6@
  00095	89 01		 mov	 DWORD PTR [ecx], eax
  00097	a1 04 00 00 00	 mov	 eax, DWORD PTR ??_C@_0BB@OMLDONOD@?6?6?5?9?5Registers?6?6@+4
  0009c	89 41 04	 mov	 DWORD PTR [ecx+4], eax
  0009f	a1 08 00 00 00	 mov	 eax, DWORD PTR ??_C@_0BB@OMLDONOD@?6?6?5?9?5Registers?6?6@+8
  000a4	89 41 08	 mov	 DWORD PTR [ecx+8], eax
  000a7	a1 0c 00 00 00	 mov	 eax, DWORD PTR ??_C@_0BB@OMLDONOD@?6?6?5?9?5Registers?6?6@+12
  000ac	56		 push	 esi
  000ad	89 41 0c	 mov	 DWORD PTR [ecx+12], eax
  000b0	a0 10 00 00 00	 mov	 al, BYTE PTR ??_C@_0BB@OMLDONOD@?6?6?5?9?5Registers?6?6@+16
  000b5	57		 push	 edi

; 174  : 	strcat( szReason, GetRegisterString(pExPtrs) );

  000b6	53		 push	 ebx
  000b7	88 41 10	 mov	 BYTE PTR [ecx+16], al
  000ba	ff 15 00 00 00
	00		 call	 DWORD PTR __imp__GetRegisterString@4
  000c0	8b d0		 mov	 edx, eax
  000c2	8b f0		 mov	 esi, eax
$LL23@CrashHandl:
  000c4	8a 02		 mov	 al, BYTE PTR [edx]
  000c6	42		 inc	 edx
  000c7	84 c0		 test	 al, al
  000c9	75 f9		 jne	 SHORT $LL23@CrashHandl
  000cb	8d bd d0 bf ff
	ff		 lea	 edi, DWORD PTR _szReason$[ebp]
  000d1	2b d6		 sub	 edx, esi
  000d3	4f		 dec	 edi
$LL24@CrashHandl:
  000d4	8a 47 01	 mov	 al, BYTE PTR [edi+1]
  000d7	47		 inc	 edi
  000d8	84 c0		 test	 al, al
  000da	75 f8		 jne	 SHORT $LL24@CrashHandl
  000dc	8b ca		 mov	 ecx, edx
  000de	c1 e9 02	 shr	 ecx, 2
  000e1	f3 a5		 rep movsd
  000e3	8b ca		 mov	 ecx, edx
  000e5	83 e1 03	 and	 ecx, 3

; 175  : 	
; 176  : #ifdef __CLIENT
; 177  : 	DWORD	dwOp = GSTSO_MODULE | GSTSO_SYMBOL;
; 178  : #else
; 179  : 	DWORD	dwOp = GSTSO_PARAMS | GSTSO_MODULE | GSTSO_SYMBOL | GSTSO_SRCLINE;
; 180  : #endif
; 181  : 	
; 182  : 	LPCTSTR szPtr = GetFirstStackTraceString( dwOp, pExPtrs);

  000e8	53		 push	 ebx
  000e9	f3 a4		 rep movsb
  000eb	6a 0f		 push	 15			; 0000000fH
  000ed	ff 15 00 00 00
	00		 call	 DWORD PTR __imp__GetFirstStackTraceString@8

; 183  : 	strcat( szReason, "\n\n" );

  000f3	8d 8d d0 bf ff
	ff		 lea	 ecx, DWORD PTR _szReason$[ebp]
  000f9	8b d0		 mov	 edx, eax
  000fb	49		 dec	 ecx
  000fc	0f 1f 40 00	 npad	 4
$LL25@CrashHandl:
  00100	8a 41 01	 mov	 al, BYTE PTR [ecx+1]
  00103	8d 49 01	 lea	 ecx, DWORD PTR [ecx+1]
  00106	84 c0		 test	 al, al
  00108	75 f6		 jne	 SHORT $LL25@CrashHandl
  0010a	66 a1 00 00 00
	00		 mov	 ax, WORD PTR ??_C@_02PHMGELLB@?6?6@
  00110	66 89 01	 mov	 WORD PTR [ecx], ax
  00113	a0 02 00 00 00	 mov	 al, BYTE PTR ??_C@_02PHMGELLB@?6?6@+2
  00118	88 41 02	 mov	 BYTE PTR [ecx+2], al

; 184  : 	if( szPtr )

  0011b	85 d2		 test	 edx, edx
  0011d	74 2a		 je	 SHORT $LN8@CrashHandl

; 185  : 		strcat( szReason, szPtr );

  0011f	8b f2		 mov	 esi, edx
$LL26@CrashHandl:
  00121	8a 02		 mov	 al, BYTE PTR [edx]
  00123	42		 inc	 edx
  00124	84 c0		 test	 al, al
  00126	75 f9		 jne	 SHORT $LL26@CrashHandl
  00128	8d bd d0 bf ff
	ff		 lea	 edi, DWORD PTR _szReason$[ebp]
  0012e	2b d6		 sub	 edx, esi
  00130	4f		 dec	 edi
$LL27@CrashHandl:
  00131	8a 47 01	 mov	 al, BYTE PTR [edi+1]
  00134	47		 inc	 edi
  00135	84 c0		 test	 al, al
  00137	75 f8		 jne	 SHORT $LL27@CrashHandl
  00139	8b ca		 mov	 ecx, edx
  0013b	c1 e9 02	 shr	 ecx, 2
  0013e	f3 a5		 rep movsd
  00140	8b ca		 mov	 ecx, edx
  00142	83 e1 03	 and	 ecx, 3
  00145	f3 a4		 rep movsb
  00147	eb 2a		 jmp	 SHORT $LN13@CrashHandl
$LN8@CrashHandl:

; 186  : 	else
; 187  : 		strcat( szReason, "(null)" );

  00149	8d 8d d0 bf ff
	ff		 lea	 ecx, DWORD PTR _szReason$[ebp]
  0014f	49		 dec	 ecx
$LL28@CrashHandl:
  00150	8a 41 01	 mov	 al, BYTE PTR [ecx+1]
  00153	8d 49 01	 lea	 ecx, DWORD PTR [ecx+1]
  00156	84 c0		 test	 al, al
  00158	75 f6		 jne	 SHORT $LL28@CrashHandl
  0015a	a1 00 00 00 00	 mov	 eax, DWORD PTR ??_C@_06OJHGLDPL@?$CInull?$CJ@
  0015f	89 01		 mov	 DWORD PTR [ecx], eax
  00161	66 a1 04 00 00
	00		 mov	 ax, WORD PTR ??_C@_06OJHGLDPL@?$CInull?$CJ@+4
  00167	66 89 41 04	 mov	 WORD PTR [ecx+4], ax
  0016b	a0 06 00 00 00	 mov	 al, BYTE PTR ??_C@_06OJHGLDPL@?$CInull?$CJ@+6
  00170	88 41 06	 mov	 BYTE PTR [ecx+6], al
$LN13@CrashHandl:

; 188  : 	while(1)
; 189  : 	{
; 190  : 		szPtr = GetNextStackTraceString( dwOp, pExPtrs);

  00173	53		 push	 ebx
  00174	8b 1d 00 00 00
	00		 mov	 ebx, DWORD PTR __imp__GetNextStackTraceString@8
  0017a	6a 0f		 push	 15			; 0000000fH
  0017c	ff d3		 call	 ebx
  0017e	8b d0		 mov	 edx, eax

; 191  : 		if( szPtr == NULL )		

  00180	85 d2		 test	 edx, edx
  00182	74 57		 je	 SHORT $LN15@CrashHandl
$LL2@CrashHandl:

; 192  : 			break;
; 193  : 		strcat( szReason, "\n" );

  00184	8d bd d0 bf ff
	ff		 lea	 edi, DWORD PTR _szReason$[ebp]
  0018a	4f		 dec	 edi
  0018b	0f 1f 44 00 00	 npad	 5
$LL29@CrashHandl:
  00190	8a 47 01	 mov	 al, BYTE PTR [edi+1]
  00193	8d 7f 01	 lea	 edi, DWORD PTR [edi+1]
  00196	84 c0		 test	 al, al
  00198	75 f6		 jne	 SHORT $LL29@CrashHandl
  0019a	66 a1 00 00 00
	00		 mov	 ax, WORD PTR ??_C@_01EEMJAFIK@?6@

; 194  : 		strcat( szReason, szPtr );

  001a0	8b f2		 mov	 esi, edx
  001a2	66 89 07	 mov	 WORD PTR [edi], ax
$LL30@CrashHandl:
  001a5	8a 02		 mov	 al, BYTE PTR [edx]
  001a7	42		 inc	 edx
  001a8	84 c0		 test	 al, al
  001aa	75 f9		 jne	 SHORT $LL30@CrashHandl
  001ac	8d bd d0 bf ff
	ff		 lea	 edi, DWORD PTR _szReason$[ebp]
  001b2	2b d6		 sub	 edx, esi
  001b4	4f		 dec	 edi
$LL31@CrashHandl:
  001b5	8a 47 01	 mov	 al, BYTE PTR [edi+1]
  001b8	47		 inc	 edi
  001b9	84 c0		 test	 al, al
  001bb	75 f8		 jne	 SHORT $LL31@CrashHandl
  001bd	ff b5 cc bf ff
	ff		 push	 DWORD PTR _pExPtrs$GSCopy$1$[ebp]
  001c3	8b ca		 mov	 ecx, edx
  001c5	c1 e9 02	 shr	 ecx, 2
  001c8	f3 a5		 rep movsd
  001ca	8b ca		 mov	 ecx, edx
  001cc	83 e1 03	 and	 ecx, 3
  001cf	f3 a4		 rep movsb
  001d1	6a 0f		 push	 15			; 0000000fH
  001d3	ff d3		 call	 ebx
  001d5	8b d0		 mov	 edx, eax
  001d7	85 d2		 test	 edx, edx
  001d9	75 a9		 jne	 SHORT $LL2@CrashHandl
$LN15@CrashHandl:

; 195  : 	}
; 196  : 	
; 197  : #ifdef __DBSERVER
; 198  : 	{
; 199  : 		char szTemp[MAX_PLAYER+2]	= { 0, };

  001db	6a 2c		 push	 44			; 0000002cH
  001dd	8d 45 d0	 lea	 eax, DWORD PTR _szTemp$1[ebp]
  001e0	6a 00		 push	 0
  001e2	50		 push	 eax
  001e3	e8 00 00 00 00	 call	 _memset

; 200  : 
; 201  : 		sprintf( szTemp, "\r\n// %d", g_DbManager.m_nJoin );

  001e8	a1 00 00 00 00	 mov	 eax, DWORD PTR ?g_DbManager@@3AAVCDbManager@@A ; g_DbManager
  001ed	ff b0 08 03 00
	00		 push	 DWORD PTR [eax+776]
  001f3	8d 45 d0	 lea	 eax, DWORD PTR _szTemp$1[ebp]
  001f6	68 00 00 00 00	 push	 OFFSET ??_C@_07IPOGOAKJ@?$AN?6?1?1?5?$CFd@
  001fb	50		 push	 eax
  001fc	e8 00 00 00 00	 call	 _sprintf

; 202  : 		strcat( szReason, szTemp );

  00201	8d 55 d0	 lea	 edx, DWORD PTR _szTemp$1[ebp]
  00204	83 c4 18	 add	 esp, 24			; 00000018H
  00207	8b f2		 mov	 esi, edx
  00209	0f 1f 80 00 00
	00 00		 npad	 7
$LL32@CrashHandl:
  00210	8a 02		 mov	 al, BYTE PTR [edx]
  00212	42		 inc	 edx
  00213	84 c0		 test	 al, al
  00215	75 f9		 jne	 SHORT $LL32@CrashHandl
  00217	8d bd d0 bf ff
	ff		 lea	 edi, DWORD PTR _szReason$[ebp]
  0021d	2b d6		 sub	 edx, esi
  0021f	4f		 dec	 edi
$LL33@CrashHandl:
  00220	8a 47 01	 mov	 al, BYTE PTR [edi+1]
  00223	47		 inc	 edi
  00224	84 c0		 test	 al, al
  00226	75 f8		 jne	 SHORT $LL33@CrashHandl
  00228	8b ca		 mov	 ecx, edx
  0022a	c1 e9 02	 shr	 ecx, 2
  0022d	f3 a5		 rep movsd
  0022f	8b ca		 mov	 ecx, edx
  00231	83 e1 03	 and	 ecx, 3
  00234	33 db		 xor	 ebx, ebx
  00236	f3 a4		 rep movsb
  00238	0f 1f 84 00 00
	00 00 00	 npad	 8
$LL6@CrashHandl:

; 203  : 
; 204  : 		for( int i = 0; i < MAX_JOIN_SIZE; i++ )
; 205  : 		{
; 206  : 			sprintf( szTemp, "\r\n%s", g_DbManager.m_aszJoin[i] );

  00240	a1 00 00 00 00	 mov	 eax, DWORD PTR ?g_DbManager@@3AAVCDbManager@@A ; g_DbManager
  00245	83 c0 68	 add	 eax, 104		; 00000068H
  00248	03 c3		 add	 eax, ebx
  0024a	50		 push	 eax
  0024b	8d 45 d0	 lea	 eax, DWORD PTR _szTemp$1[ebp]
  0024e	68 00 00 00 00	 push	 OFFSET ??_C@_04JEGEICAJ@?$AN?6?$CFs@
  00253	50		 push	 eax
  00254	e8 00 00 00 00	 call	 _sprintf

; 207  : 			strcat( szReason, szTemp );

  00259	8d 45 d0	 lea	 eax, DWORD PTR _szTemp$1[ebp]
  0025c	83 c4 0c	 add	 esp, 12			; 0000000cH
  0025f	8b f0		 mov	 esi, eax
$LL34@CrashHandl:
  00261	8a 08		 mov	 cl, BYTE PTR [eax]
  00263	40		 inc	 eax
  00264	84 c9		 test	 cl, cl
  00266	75 f9		 jne	 SHORT $LL34@CrashHandl
  00268	8d bd d0 bf ff
	ff		 lea	 edi, DWORD PTR _szReason$[ebp]
  0026e	2b c6		 sub	 eax, esi
  00270	4f		 dec	 edi
$LL35@CrashHandl:
  00271	8a 4f 01	 mov	 cl, BYTE PTR [edi+1]
  00274	47		 inc	 edi
  00275	84 c9		 test	 cl, cl
  00277	75 f8		 jne	 SHORT $LL35@CrashHandl
  00279	8b c8		 mov	 ecx, eax
  0027b	83 c3 2a	 add	 ebx, 42			; 0000002aH
  0027e	c1 e9 02	 shr	 ecx, 2
  00281	f3 a5		 rep movsd
  00283	8b c8		 mov	 ecx, eax
  00285	83 e1 03	 and	 ecx, 3
  00288	f3 a4		 rep movsb
  0028a	81 fb a0 02 00
	00		 cmp	 ebx, 672		; 000002a0H
  00290	7c ae		 jl	 SHORT $LL6@CrashHandl

; 208  : 		}
; 209  : 	}
; 210  : #endif	// __DBSERVER
; 211  : 
; 212  : 	Error( "%s", szReason);

  00292	8d 85 d0 bf ff
	ff		 lea	 eax, DWORD PTR _szReason$[ebp]
  00298	50		 push	 eax
  00299	68 00 00 00 00	 push	 OFFSET ??_C@_02DKCKIIND@?$CFs@
  0029e	e8 00 00 00 00	 call	 ?Error@@YAPBDPBDZZ	; Error

; 213  : 	strcat( szReason, "\n" );

  002a3	8d bd d0 bf ff
	ff		 lea	 edi, DWORD PTR _szReason$[ebp]
  002a9	83 c4 08	 add	 esp, 8
  002ac	4f		 dec	 edi
  002ad	0f 1f 00	 npad	 3
$LL36@CrashHandl:
  002b0	8a 47 01	 mov	 al, BYTE PTR [edi+1]
  002b3	8d 7f 01	 lea	 edi, DWORD PTR [edi+1]
  002b6	84 c0		 test	 al, al
  002b8	75 f6		 jne	 SHORT $LL36@CrashHandl
  002ba	66 a1 00 00 00
	00		 mov	 ax, WORD PTR ??_C@_01EEMJAFIK@?6@

; 214  : 	strcat( szReason, g_szErrorAdd );

  002c0	ba 00 00 00 00	 mov	 edx, OFFSET ?g_szErrorAdd@@3PADA
  002c5	66 89 07	 mov	 WORD PTR [edi], ax
  002c8	8b f2		 mov	 esi, edx
  002ca	66 0f 1f 44 00
	00		 npad	 6
$LL37@CrashHandl:
  002d0	8a 02		 mov	 al, BYTE PTR [edx]
  002d2	42		 inc	 edx
  002d3	84 c0		 test	 al, al
  002d5	75 f9		 jne	 SHORT $LL37@CrashHandl
  002d7	8d bd d0 bf ff
	ff		 lea	 edi, DWORD PTR _szReason$[ebp]
  002dd	2b d6		 sub	 edx, esi
  002df	4f		 dec	 edi
$LL38@CrashHandl:
  002e0	8a 47 01	 mov	 al, BYTE PTR [edi+1]
  002e3	47		 inc	 edi
  002e4	84 c0		 test	 al, al
  002e6	75 f8		 jne	 SHORT $LL38@CrashHandl
  002e8	8b ca		 mov	 ecx, edx

; 215  : 
; 216  : #ifdef 	__CLIENT
; 217  : 	{
; 218  : 		char szPacket[512] = {0, };	// ¸¶Áö¸· ĆĐĹ¶Ŕ» ·Î±×żˇ Ăß°ˇÇÔ.
; 219  : 		sprintf( szPacket, "0x%02x:0x%02x-", g_hdr, g_Prev );
; 220  : 		strcat( szReason, szPacket );
; 221  : 
; 222  : 		sprintf( szPacket, "YS%d %d %d-", g_Error_State.m_dwWndId, g_Error_State.m_bIsShowWnd, (int)g_Error_State.m_ch );
; 223  : 		strcat( szReason, szPacket );
; 224  : 
; 225  : 		sprintf( szPacket, "last Model:%s", g_szLastFile );
; 226  : 		strcat( szReason, szPacket );
; 227  : 	}
; 228  : 
; 229  : 	if( g_DPlay.m_pDump != NULL && ( 8192 - lstrlen( szReason ) ) > ( g_DPlay.m_nDumpSize * 2 ) )
; 230  : 	{
; 231  : 		strcat( szReason, "\r\ndump\r\n" );
; 232  : 		char s[8];
; 233  : 		for( int i = 0; i < g_DPlay.m_nDumpSize; i++ )
; 234  : 		{
; 235  : 			sprintf( s, "%02x", g_DPlay.m_pDump[i] );
; 236  : 			lstrcat( szReason, s );
; 237  : 		}
; 238  : 	}
; 239  : #endif	// __CLIENT
; 240  : 	
; 241  : #if defined( __CLIENT ) // Ĺ¬¶óŔĚľđĆ®´Â ˝Ě±Ű˝ş·ąµĺŔĚąÇ·Î ŔĚÄÚµĺ°ˇ °ˇ´ÉÇŇ µí ˝Í´Ů.
; 242  : 	g_dpCertified.DeleteDPObject();
; 243  : 	g_DPlay.DeleteDPObject();
; 244  : 	g_dpLoginClient.DeleteDPObject();
; 245  : #endif	// defined( __CLIENT ) 
; 246  : 
; 247  : #ifdef __TRANSFER_ERROR_TEXT
; 248  : 	strcat( szReason, g_szCrashClient );
; 249  : 	SendErrorText( szReason );
; 250  : #endif	// __TRANSFER_ERROR_TEXT
; 251  : 	
; 252  : #ifdef __CLIENT
; 253  : 	if( g_hMutex )
; 254  : 		CloseHandle( g_hMutex );
; 255  : #endif	// __CLIENT
; 256  : 
; 257  : 	return lRet;

  002ea	b8 01 00 00 00	 mov	 eax, 1
  002ef	c1 e9 02	 shr	 ecx, 2
  002f2	f3 a5		 rep movsd
  002f4	8b ca		 mov	 ecx, edx
  002f6	83 e1 03	 and	 ecx, 3
  002f9	f3 a4		 rep movsb

; 258  : }

  002fb	8b 4d fc	 mov	 ecx, DWORD PTR __$ArrayPad$[ebp]
  002fe	5f		 pop	 edi
  002ff	5e		 pop	 esi
  00300	33 cd		 xor	 ecx, ebp
  00302	5b		 pop	 ebx
  00303	e8 00 00 00 00	 call	 @__security_check_cookie@4
  00308	8b e5		 mov	 esp, ebp
  0030a	5d		 pop	 ebp
  0030b	c2 04 00	 ret	 4
?CrashHandlerExceptionFilter@@YGJPAU_EXCEPTION_POINTERS@@@Z ENDP ; CrashHandlerExceptionFilter
_TEXT	ENDS
; Function compile flags: /Ogtp
; File C:\IAGOS\server\v18\Source\Source\_UnhandledException\exceptionhandler.cpp
;	COMDAT ?_AddErrorMsg@@YAXPBD0@Z
_TEXT	SEGMENT
_str$ = 8						; size = 4
tv219 = 8						; size = 4
_strHead$ = 12						; size = 4
?_AddErrorMsg@@YAXPBD0@Z PROC				; _AddErrorMsg, COMDAT

; 51   : {

  00000	55		 push	 ebp
  00001	8b ec		 mov	 ebp, esp
  00003	53		 push	 ebx

; 52   : 	if( str[0] == 0 )	

  00004	8b 5d 08	 mov	 ebx, DWORD PTR _str$[ebp]
  00007	80 3b 00	 cmp	 BYTE PTR [ebx], 0
  0000a	0f 84 8c 00 00
	00		 je	 $LN1@AddErrorMs

; 53   : 		return;
; 54   : 	if( strlen( g_szErrorAdd ) >= 0x7fff )

  00010	b9 00 00 00 00	 mov	 ecx, OFFSET ?g_szErrorAdd@@3PADA
  00015	8d 51 01	 lea	 edx, DWORD PTR [ecx+1]
$LL5@AddErrorMs:
  00018	8a 01		 mov	 al, BYTE PTR [ecx]
  0001a	41		 inc	 ecx
  0001b	84 c0		 test	 al, al
  0001d	75 f9		 jne	 SHORT $LL5@AddErrorMs
  0001f	2b ca		 sub	 ecx, edx
  00021	81 f9 ff 7f 00
	00		 cmp	 ecx, 32767		; 00007fffH
  00027	73 73		 jae	 SHORT $LN1@AddErrorMs

; 55   : 		return;
; 56   : 	strcat( g_szErrorAdd, strHead );		// ¸Ţ¸đŔĺżˇĽ­ ĂŁ±â ˝±żˇ ŔĚ°Ĺ şŮŔĚŔÚ ¤ľ¤ľ

  00029	56		 push	 esi
  0002a	8b 75 0c	 mov	 esi, DWORD PTR _strHead$[ebp]
  0002d	8b ce		 mov	 ecx, esi
  0002f	57		 push	 edi
  00030	89 4d 08	 mov	 DWORD PTR tv219[ebp], ecx
$LL6@AddErrorMs:
  00033	8a 06		 mov	 al, BYTE PTR [esi]
  00035	46		 inc	 esi
  00036	84 c0		 test	 al, al
  00038	75 f9		 jne	 SHORT $LL6@AddErrorMs
  0003a	ba 00 00 00 00	 mov	 edx, OFFSET ?g_szErrorAdd@@3PADA
  0003f	2b f1		 sub	 esi, ecx
  00041	8d 7a ff	 lea	 edi, DWORD PTR [edx-1]
$LL7@AddErrorMs:
  00044	8a 47 01	 mov	 al, BYTE PTR [edi+1]
  00047	47		 inc	 edi
  00048	84 c0		 test	 al, al
  0004a	75 f8		 jne	 SHORT $LL7@AddErrorMs
  0004c	8b ce		 mov	 ecx, esi
  0004e	89 75 0c	 mov	 DWORD PTR _strHead$[ebp], esi
  00051	8b 75 08	 mov	 esi, DWORD PTR tv219[ebp]
  00054	c1 e9 02	 shr	 ecx, 2
  00057	f3 a5		 rep movsd
  00059	8b 4d 0c	 mov	 ecx, DWORD PTR _strHead$[ebp]
  0005c	83 e1 03	 and	 ecx, 3
  0005f	f3 a4		 rep movsb

; 57   : 	strcat( g_szErrorAdd, str );

  00061	8b f3		 mov	 esi, ebx
$LL8@AddErrorMs:
  00063	8a 03		 mov	 al, BYTE PTR [ebx]
  00065	43		 inc	 ebx
  00066	84 c0		 test	 al, al
  00068	75 f9		 jne	 SHORT $LL8@AddErrorMs
  0006a	2b de		 sub	 ebx, esi
  0006c	8d 7a ff	 lea	 edi, DWORD PTR [edx-1]
  0006f	90		 npad	 1
$LL9@AddErrorMs:
  00070	8a 47 01	 mov	 al, BYTE PTR [edi+1]
  00073	47		 inc	 edi
  00074	84 c0		 test	 al, al
  00076	75 f8		 jne	 SHORT $LL9@AddErrorMs
  00078	8b cb		 mov	 ecx, ebx
  0007a	c1 e9 02	 shr	 ecx, 2
  0007d	f3 a5		 rep movsd
  0007f	8b cb		 mov	 ecx, ebx
  00081	83 e1 03	 and	 ecx, 3

; 58   : 	strcat( g_szErrorAdd, "\n" );

  00084	4a		 dec	 edx
  00085	f3 a4		 rep movsb
$LL10@AddErrorMs:
  00087	8a 42 01	 mov	 al, BYTE PTR [edx+1]
  0008a	42		 inc	 edx
  0008b	84 c0		 test	 al, al
  0008d	75 f8		 jne	 SHORT $LL10@AddErrorMs
  0008f	66 a1 00 00 00
	00		 mov	 ax, WORD PTR ??_C@_01EEMJAFIK@?6@
  00095	8b fa		 mov	 edi, edx
  00097	66 89 07	 mov	 WORD PTR [edi], ax
  0009a	5f		 pop	 edi
  0009b	5e		 pop	 esi
$LN1@AddErrorMs:
  0009c	5b		 pop	 ebx

; 59   : }

  0009d	5d		 pop	 ebp
  0009e	c3		 ret	 0
?_AddErrorMsg@@YAXPBD0@Z ENDP				; _AddErrorMsg
_TEXT	ENDS
; Function compile flags: /Ogtp
; File C:\IAGOS\server\v18\Source\Source\_UnhandledException\exceptionhandler.cpp
;	COMDAT ?InitEH@@YAXXZ
_TEXT	SEGMENT
?InitEH@@YAXXZ PROC					; InitEH, COMDAT

; 42   : 	SetErrorMode(SetErrorMode(0) |

  00000	6a 00		 push	 0
  00002	ff 15 00 00 00
	00		 call	 DWORD PTR __imp__SetErrorMode@4
  00008	0d 01 80 00 00	 or	 eax, 32769		; 00008001H
  0000d	50		 push	 eax
  0000e	ff 15 00 00 00
	00		 call	 DWORD PTR __imp__SetErrorMode@4

; 43   : 		SEM_FAILCRITICALERRORS|SEM_NOOPENFILEERRORBOX);
; 44   : 	
; 45   : 	SetUnhandledExceptionFilter(CrashHandlerExceptionFilter);

  00014	68 00 00 00 00	 push	 OFFSET ?CrashHandlerExceptionFilter@@YGJPAU_EXCEPTION_POINTERS@@@Z ; CrashHandlerExceptionFilter
  00019	ff 15 00 00 00
	00		 call	 DWORD PTR __imp__SetUnhandledExceptionFilter@4

; 46   : 	memset( g_szErrorAdd, 0, sizeof(g_szErrorAdd) );

  0001f	68 ff 7f 00 00	 push	 32767			; 00007fffH
  00024	6a 00		 push	 0
  00026	68 00 00 00 00	 push	 OFFSET ?g_szErrorAdd@@3PADA
  0002b	e8 00 00 00 00	 call	 _memset
  00030	83 c4 0c	 add	 esp, 12			; 0000000cH

; 47   : }

  00033	c3		 ret	 0
?InitEH@@YAXXZ ENDP					; InitEH
_TEXT	ENDS
; Function compile flags: /Ogtp
; File C:\Program Files (x86)\Windows Kits\10\Include\10.0.26100.0\ucrt\stdio.h
;	COMDAT _sprintf
_TEXT	SEGMENT
__Buffer$ = 8						; size = 4
__Format$ = 12						; size = 4
_sprintf PROC						; COMDAT

; 1771 :     {

  00000	55		 push	 ebp
  00001	8b ec		 mov	 ebp, esp

; 1392 :         int const _Result = __stdio_common_vsprintf(

  00003	8d 45 10	 lea	 eax, DWORD PTR __Format$[ebp+4]
  00006	50		 push	 eax
  00007	6a 00		 push	 0
  00009	ff 75 0c	 push	 DWORD PTR __Format$[ebp]
  0000c	6a ff		 push	 -1
  0000e	ff 75 08	 push	 DWORD PTR __Buffer$[ebp]
  00011	e8 00 00 00 00	 call	 ___local_stdio_printf_options
  00016	8b 08		 mov	 ecx, DWORD PTR [eax]
  00018	ff 70 04	 push	 DWORD PTR [eax+4]
  0001b	83 c9 01	 or	 ecx, 1
  0001e	51		 push	 ecx
  0001f	e8 00 00 00 00	 call	 ___stdio_common_vsprintf

; 1393 :             _CRT_INTERNAL_LOCAL_PRINTF_OPTIONS | _CRT_INTERNAL_PRINTF_LEGACY_VSPRINTF_NULL_TERMINATION,
; 1394 :             _Buffer, _BufferCount, _Format, _Locale, _ArgList);
; 1395 : 
; 1396 :         return _Result < 0 ? -1 : _Result;

  00024	83 c9 ff	 or	 ecx, -1
  00027	83 c4 1c	 add	 esp, 28			; 0000001cH
  0002a	85 c0		 test	 eax, eax
  0002c	0f 48 c1	 cmovs	 eax, ecx

; 1772 :         int _Result;
; 1773 :         va_list _ArgList;
; 1774 :         __crt_va_start(_ArgList, _Format);
; 1775 : 
; 1776 :         _Result = _vsprintf_l(_Buffer, _Format, NULL, _ArgList);
; 1777 : 
; 1778 :         __crt_va_end(_ArgList);
; 1779 :         return _Result;
; 1780 :     }

  0002f	5d		 pop	 ebp
  00030	c3		 ret	 0
_sprintf ENDP
_TEXT	ENDS
; Function compile flags: /Ogtp
; File C:\Program Files (x86)\Windows Kits\10\Include\10.0.26100.0\ucrt\corecrt_stdio_config.h
;	COMDAT ___local_stdio_printf_options
_TEXT	SEGMENT
___local_stdio_printf_options PROC			; COMDAT

; 91   :         static unsigned __int64 _OptionsStorage;
; 92   :         return &_OptionsStorage;

  00000	b8 00 00 00 00	 mov	 eax, OFFSET ?_OptionsStorage@?1??__local_stdio_printf_options@@9@4_KA ; `__local_stdio_printf_options'::`2'::_OptionsStorage

; 93   :     }

  00005	c3		 ret	 0
___local_stdio_printf_options ENDP
_TEXT	ENDS
; Function compile flags: /Ogtp
; File C:\IAGOS\server\v18\Source\Source\_UnhandledException\exceptionhandler.cpp
;	COMDAT ?__empty_global_delete@@YAXPAXI@Z
_TEXT	SEGMENT
___formal$ = 8						; size = 4
___formal$ = 12						; size = 4
?__empty_global_delete@@YAXPAXI@Z PROC			; __empty_global_delete, COMDAT

  00000	c2 00 00	 ret	 0
?__empty_global_delete@@YAXPAXI@Z ENDP			; __empty_global_delete
_TEXT	ENDS
; Function compile flags: /Ogtp
; File C:\IAGOS\server\v18\Source\Source\_UnhandledException\exceptionhandler.cpp
;	COMDAT ?__empty_global_delete@@YAXPAX@Z
_TEXT	SEGMENT
___formal$ = 8						; size = 4
?__empty_global_delete@@YAXPAX@Z PROC			; __empty_global_delete, COMDAT

  00000	c2 00 00	 ret	 0
?__empty_global_delete@@YAXPAX@Z ENDP			; __empty_global_delete
_TEXT	ENDS
END
