; Listing generated by Microsoft (R) Optimizing Compiler Version 19.44.35225.0 

	TITLE	C:\IAGOS\server\v18\Source\Output\DatabaseServer\Release\file.obj
	.686P
	.XMM
	include listing.inc
	.model	flat

INCLUDELIB LIBCMT
INCLUDELIB OLDNAMES

PUBLIC	?__empty_global_delete@@YAXPAX@Z		; __empty_global_delete
PUBLIC	?__empty_global_delete@@YAXPAXI@Z		; __empty_global_delete
PUBLIC	?AtlThrowImpl@ATL@@YGXJ@Z			; ATL::AtlThrowImpl
PUBLIC	?Open@CFileIO@@UAEHPBDPAD@Z			; CFileIO::Open
PUBLIC	?Close@CFileIO@@UAEHXZ				; CFileIO::Close
PUBLIC	?Read@CFileIO@@UAEPAXXZ				; CFileIO::Read
PUBLIC	?PutWideString@CFileIO@@QAEHPBD@Z		; CFileIO::PutWideString
PUBLIC	??0CFileFinder@@QAE@XZ				; CFileFinder::CFileFinder
PUBLIC	??1CFileFinder@@QAE@XZ				; CFileFinder::~CFileFinder
PUBLIC	?WildCmp@CFileFinder@@QAEHPBD0@Z		; CFileFinder::WildCmp
PUBLIC	?FindFirst@CFileFinder@@QAEHPBDPAU_finddata32_t@@@Z ; CFileFinder::FindFirst
PUBLIC	?FindNext@CFileFinder@@QAEHPAU_finddata32_t@@@Z	; CFileFinder::FindNext
PUBLIC	?FindClose@CFileFinder@@QAEXXZ			; CFileFinder::FindClose
EXTRN	??_U@YAPAXI@Z:PROC				; operator new[]
EXTRN	??_V@YAXPAX@Z:PROC				; operator delete[]
EXTRN	__imp__MultiByteToWideChar@24:PROC
EXTRN	_fclose:PROC
EXTRN	_fopen:PROC
EXTRN	_fread:PROC
EXTRN	_fseek:PROC
EXTRN	_fwrite:PROC
EXTRN	?AfxThrowMemoryException@@YGXXZ:PROC		; AfxThrowMemoryException
EXTRN	?AfxThrowOleException@@YGXJ@Z:PROC		; AfxThrowOleException
EXTRN	__findfirst32:PROC
EXTRN	__findnext32:PROC
EXTRN	__findclose:PROC
EXTRN	@__security_check_cookie@4:PROC
EXTRN	___security_cookie:DWORD
; Function compile flags: /Ogtp
; File C:\IAGOS\server\v18\Source\Source\_Common\file.cpp
;	COMDAT ?FindClose@CFileFinder@@QAEXXZ
_TEXT	SEGMENT
?FindClose@CFileFinder@@QAEXXZ PROC			; CFileFinder::FindClose, COMDAT
; _this$ = ecx

; 820  : 	if( m_bResFile == 0 && m_lHandle != -1 )

  00000	83 b9 0c 01 00
	00 00		 cmp	 DWORD PTR [ecx+268], 0
  00007	75 0f		 jne	 SHORT $LN2@FindClose
  00009	8b 41 04	 mov	 eax, DWORD PTR [ecx+4]
  0000c	83 f8 ff	 cmp	 eax, -1
  0000f	74 07		 je	 SHORT $LN2@FindClose

; 821  : 		_findclose( m_lHandle );

  00011	50		 push	 eax
  00012	e8 00 00 00 00	 call	 __findclose
  00017	59		 pop	 ecx
$LN2@FindClose:

; 822  : }

  00018	c3		 ret	 0
?FindClose@CFileFinder@@QAEXXZ ENDP			; CFileFinder::FindClose
_TEXT	ENDS
; Function compile flags: /Ogtp
; File C:\IAGOS\server\v18\Source\Source\_Common\file.cpp
;	COMDAT ?FindNext@CFileFinder@@QAEHPAU_finddata32_t@@@Z
_TEXT	SEGMENT
_fileinfo$ = 8						; size = 4
?FindNext@CFileFinder@@QAEHPAU_finddata32_t@@@Z PROC	; CFileFinder::FindNext, COMDAT
; _this$ = ecx

; 782  : {

  00000	55		 push	 ebp
  00001	8b ec		 mov	 ebp, esp

; 783  : #if defined( __CLIENT )
; 784  : 	if( m_bResFile == 1 )
; 785  : 	{
; 786  : 		TCHAR drive[_MAX_DRIVE], dir[_MAX_DIR], name[ _MAX_FNAME ], ext[_MAX_EXT];
; 787  : 		CHAR szPath [MAX_PATH];
; 788  : 		CHAR szFile[MAX_PATH];
; 789  : 		CString strNameName;
; 790  : 		RESOURCE* lpRes;
; 791  : 		::GetCurrentDirectory( MAX_PATH, szPath );
; 792  : 
; 793  : 		while( m_pos )
; 794  : 		{
; 795  : 			CResFile::m_mapResource.GetNextAssoc( m_pos, strNameName, (void*&) lpRes );
; 796  : 			_tcscpy( szFile, szPath );
; 797  : 			_tcscat( szFile, "\\" );
; 798  : 			_tcscat( szFile, strNameName );
; 799  : 			strlwr( szFile );
; 800  : 
; 801  : 			if( WildCmp( m_szFilespec, szFile ) )
; 802  : 			{
; 803  : 				_splitpath( strNameName, drive, dir, name, ext );
; 804  : 				strcpy( fileinfo->name, name );
; 805  : 				strcat( fileinfo->name, ext );
; 806  : 				fileinfo->size = lpRes->dwFileSize;
; 807  : 				fileinfo->attrib = _A_NORMAL;
; 808  : 				return TRUE;
; 809  : 			}
; 810  : 		}
; 811  : 		return FALSE;
; 812  : 	}
; 813  : #endif	// __CLIENT
; 814  : 	if( _findnext( m_lHandle, fileinfo ) == 0 )

  00003	ff 75 08	 push	 DWORD PTR _fileinfo$[ebp]
  00006	ff 71 04	 push	 DWORD PTR [ecx+4]
  00009	e8 00 00 00 00	 call	 __findnext32
  0000e	83 c4 08	 add	 esp, 8
  00011	f7 d8		 neg	 eax
  00013	1b c0		 sbb	 eax, eax
  00015	40		 inc	 eax

; 815  : 		return TRUE;
; 816  : 	return FALSE;
; 817  : }

  00016	5d		 pop	 ebp
  00017	c2 04 00	 ret	 4
?FindNext@CFileFinder@@QAEHPAU_finddata32_t@@@Z ENDP	; CFileFinder::FindNext
_TEXT	ENDS
; Function compile flags: /Ogtp
; File C:\IAGOS\server\v18\Source\Source\_Common\file.cpp
;	COMDAT ?FindFirst@CFileFinder@@QAEHPBDPAU_finddata32_t@@@Z
_TEXT	SEGMENT
_lpFilespec$ = 8					; size = 4
_fileinfo$ = 12						; size = 4
?FindFirst@CFileFinder@@QAEHPBDPAU_finddata32_t@@@Z PROC ; CFileFinder::FindFirst, COMDAT
; _this$ = ecx

; 725  : {

  00000	55		 push	 ebp
  00001	8b ec		 mov	 ebp, esp
  00003	56		 push	 esi

; 726  : #if defined( __CLIENT )
; 727  : 	CHAR filespec[ MAX_PATH ];
; 728  : 	strcpy( filespec, lpFilespec );
; 729  : 	strlwr( filespec );
; 730  : 
; 731  : 	CHAR szPath [ MAX_PATH ];
; 732  : 	CHAR szFile[ MAX_PATH ];
; 733  : 
; 734  : 	TCHAR drive[_MAX_DRIVE], dir[_MAX_DIR], name[ _MAX_FNAME ], ext[_MAX_EXT];
; 735  : 	_splitpath( lpFilespec, drive, dir, name, ext );
; 736  : 
; 737  : 	// µε¶σΐΜΊκΈνΐΜ µιΎξ ΐΦΐΈΈι ΏΟΐόΗΡ path΄Ω. ±Χ·―ΉΗ·Ξ ±Χ³Ι Δ«ΗΗ 
; 738  : 	if( drive[ 0 ] )
; 739  : 	{
; 740  : 		_tcscpy( m_szFilespec, lpFilespec );
; 741  : 	}
; 742  : 	// µεΈ®ΐΜΊκΈνΐΜ ΎψΐΈΈι Ηφΐη pathΐΗ Ώ¬ΐεΐΜ΄Ω. 
; 743  : 	else
; 744  : 	{
; 745  : 		::GetCurrentDirectory( MAX_PATH, szPath );
; 746  : 		_tcscpy( m_szFilespec, szPath );
; 747  : 		_tcscat( m_szFilespec, "\\" );
; 748  : 		_tcscat( m_szFilespec, lpFilespec );
; 749  : 	}
; 750  : 	strlwr( m_szFilespec );
; 751  : 
; 752  : 	CString strNameName;
; 753  : 	RESOURCE* lpRes;
; 754  : 	m_pos = CResFile::m_mapResource.GetStartPosition();
; 755  : 	while( m_pos )
; 756  : 	{
; 757  : 		CResFile::m_mapResource.GetNextAssoc( m_pos, strNameName, (void*&) lpRes );
; 758  : 		_tcscpy( szFile, szPath );
; 759  : 		_tcscat( szFile, "\\" );
; 760  : 		_tcscat( szFile, strNameName );
; 761  : 		strlwr( szFile );
; 762  : 
; 763  : 		if( WildCmp( m_szFilespec, szFile ) )
; 764  : 		{
; 765  : 			_splitpath( strNameName, drive, dir, name, ext );
; 766  : 			strcpy( fileinfo->name, name );
; 767  : 			strcat( fileinfo->name, ext );
; 768  : 			fileinfo->size = lpRes->dwFileSize;
; 769  : 			fileinfo->attrib = _A_NORMAL;
; 770  : 			m_bResFile = TRUE;
; 771  : 			return TRUE;
; 772  : 		}
; 773  : 	}
; 774  : #endif	// __CLIENT
; 775  : 	m_bResFile = 0;
; 776  : 	m_lHandle = _findfirst( lpFilespec, fileinfo );

  00004	ff 75 0c	 push	 DWORD PTR _fileinfo$[ebp]
  00007	8b f1		 mov	 esi, ecx
  00009	ff 75 08	 push	 DWORD PTR _lpFilespec$[ebp]
  0000c	c7 86 0c 01 00
	00 00 00 00 00	 mov	 DWORD PTR [esi+268], 0
  00016	e8 00 00 00 00	 call	 __findfirst32

; 777  : 	if( m_lHandle == -1 ) 

  0001b	33 c9		 xor	 ecx, ecx
  0001d	89 46 04	 mov	 DWORD PTR [esi+4], eax
  00020	83 c4 08	 add	 esp, 8
  00023	83 f8 ff	 cmp	 eax, -1
  00026	0f 95 c1	 setne	 cl

; 778  : 		return FALSE;

  00029	8b c1		 mov	 eax, ecx
  0002b	5e		 pop	 esi

; 779  : 	return TRUE;
; 780  : }

  0002c	5d		 pop	 ebp
  0002d	c2 08 00	 ret	 8
?FindFirst@CFileFinder@@QAEHPBDPAU_finddata32_t@@@Z ENDP ; CFileFinder::FindFirst
_TEXT	ENDS
; Function compile flags: /Ogtp
; File C:\IAGOS\server\v18\Source\Source\_Common\file.cpp
;	COMDAT ?WildCmp@CFileFinder@@QAEHPBD0@Z
_TEXT	SEGMENT
_lpszWild$ = 8						; size = 4
_mp$ = 8						; size = 4
_cp$ = 8						; size = 4
_lpszString$ = 12					; size = 4
?WildCmp@CFileFinder@@QAEHPBD0@Z PROC			; CFileFinder::WildCmp, COMDAT
; _this$ = ecx

; 680  : {

  00000	55		 push	 ebp
  00001	8b ec		 mov	 ebp, esp

; 681  : 	char* wild = (char*)lpszWild;
; 682  :     char* string = (char*)lpszString;

  00003	8b 4d 0c	 mov	 ecx, DWORD PTR _lpszString$[ebp]
  00006	8b 45 08	 mov	 eax, DWORD PTR _lpszWild$[ebp]
  00009	53		 push	 ebx
  0000a	56		 push	 esi

; 683  : 	char* cp,* mp;
; 684  : 
; 685  : 	while ((*string) && (*wild != '*')) 

  0000b	80 39 00	 cmp	 BYTE PTR [ecx], 0
  0000e	74 17		 je	 SHORT $LN24@WildCmp
$LL2@WildCmp:
  00010	8a 10		 mov	 dl, BYTE PTR [eax]
  00012	80 fa 2a	 cmp	 dl, 42			; 0000002aH
  00015	74 39		 je	 SHORT $LN23@WildCmp

; 686  : 	{
; 687  : 		if ((*wild != *string) && (*wild != '?')) 

  00017	3a 11		 cmp	 dl, BYTE PTR [ecx]
  00019	74 05		 je	 SHORT $LN8@WildCmp
  0001b	80 fa 3f	 cmp	 dl, 63			; 0000003fH
  0001e	75 28		 jne	 SHORT $LN19@WildCmp
$LN8@WildCmp:

; 690  : 		}
; 691  : 		wild++;
; 692  : 		string++;

  00020	41		 inc	 ecx
  00021	40		 inc	 eax
  00022	80 39 00	 cmp	 BYTE PTR [ecx], 0
  00025	75 e9		 jne	 SHORT $LL2@WildCmp
$LN24@WildCmp:

; 715  : 		}
; 716  : 	}
; 717  : 	while (*wild == '*') 

  00027	8a 08		 mov	 cl, BYTE PTR [eax]
  00029	80 f9 2a	 cmp	 cl, 42			; 0000002aH
  0002c	75 0d		 jne	 SHORT $LN7@WildCmp
  0002e	66 90		 npad	 2
$LL6@WildCmp:
  00030	8a 48 01	 mov	 cl, BYTE PTR [eax+1]

; 718  : 	{
; 719  : 		wild++;

  00033	8d 40 01	 lea	 eax, DWORD PTR [eax+1]
  00036	80 f9 2a	 cmp	 cl, 42			; 0000002aH
  00039	74 f5		 je	 SHORT $LL6@WildCmp
$LN7@WildCmp:

; 720  : 	}
; 721  : 	return !*wild;

  0003b	33 c0		 xor	 eax, eax
  0003d	84 c9		 test	 cl, cl
  0003f	5e		 pop	 esi
  00040	0f 94 c0	 sete	 al

; 722  : }

  00043	5b		 pop	 ebx
  00044	5d		 pop	 ebp
  00045	c2 08 00	 ret	 8
$LN19@WildCmp:
  00048	5e		 pop	 esi

; 688  : 		{
; 689  : 			return 0;

  00049	33 c0		 xor	 eax, eax

; 722  : }

  0004b	5b		 pop	 ebx
  0004c	5d		 pop	 ebp
  0004d	c2 08 00	 ret	 8
$LN23@WildCmp:

; 693  : 	}
; 694  : 	while (*string) 

  00050	80 39 00	 cmp	 BYTE PTR [ecx], 0
  00053	74 d2		 je	 SHORT $LN24@WildCmp
  00055	8b 75 08	 mov	 esi, DWORD PTR _mp$[ebp]
  00058	8b 55 08	 mov	 edx, DWORD PTR _cp$[ebp]
  0005b	0f 1f 44 00 00	 npad	 5
$LL4@WildCmp:

; 695  : 	{
; 696  : 		if (*wild == '*') 

  00060	8a 18		 mov	 bl, BYTE PTR [eax]
  00062	80 fb 2a	 cmp	 bl, 42			; 0000002aH
  00065	75 0d		 jne	 SHORT $LN9@WildCmp

; 697  : 		{
; 698  : 			if (!*++wild) 

  00067	40		 inc	 eax
  00068	80 38 00	 cmp	 BYTE PTR [eax], 0
  0006b	74 20		 je	 SHORT $LN20@WildCmp

; 701  : 			}
; 702  : 			mp = wild;

  0006d	8b f0		 mov	 esi, eax

; 703  : 			cp = string+1;

  0006f	8d 51 01	 lea	 edx, DWORD PTR [ecx+1]

; 704  : 		} 

  00072	eb 12		 jmp	 SHORT $LN13@WildCmp
$LN9@WildCmp:

; 705  : 		else 
; 706  : 		if ((*wild == *string) || (*wild == '?')) 

  00074	3a 19		 cmp	 bl, BYTE PTR [ecx]
  00076	74 0c		 je	 SHORT $LN14@WildCmp
  00078	80 fb 3f	 cmp	 bl, 63			; 0000003fH
  0007b	74 07		 je	 SHORT $LN14@WildCmp

; 710  : 		} 
; 711  : 		else 
; 712  : 		{
; 713  : 			wild = mp;
; 714  : 			string = cp++;

  0007d	8b ca		 mov	 ecx, edx
  0007f	8b c6		 mov	 eax, esi
  00081	42		 inc	 edx
  00082	eb 02		 jmp	 SHORT $LN13@WildCmp
$LN14@WildCmp:

; 707  : 		{
; 708  : 			wild++;

  00084	40		 inc	 eax

; 709  : 			string++;

  00085	41		 inc	 ecx
$LN13@WildCmp:

; 693  : 	}
; 694  : 	while (*string) 

  00086	80 39 00	 cmp	 BYTE PTR [ecx], 0
  00089	75 d5		 jne	 SHORT $LL4@WildCmp
  0008b	eb 9a		 jmp	 SHORT $LN24@WildCmp
$LN20@WildCmp:
  0008d	5e		 pop	 esi

; 699  : 			{
; 700  : 				return 1;

  0008e	b8 01 00 00 00	 mov	 eax, 1

; 722  : }

  00093	5b		 pop	 ebx
  00094	5d		 pop	 ebp
  00095	c2 08 00	 ret	 8
?WildCmp@CFileFinder@@QAEHPBD0@Z ENDP			; CFileFinder::WildCmp
_TEXT	ENDS
; Function compile flags: /Ogtp
; File C:\IAGOS\server\v18\Source\Source\_Common\file.cpp
;	COMDAT ??1CFileFinder@@QAE@XZ
_TEXT	SEGMENT
??1CFileFinder@@QAE@XZ PROC				; CFileFinder::~CFileFinder, COMDAT
; _this$ = ecx

; 677  : }

  00000	c2 00 00	 ret	 0
??1CFileFinder@@QAE@XZ ENDP				; CFileFinder::~CFileFinder
_TEXT	ENDS
; Function compile flags: /Ogtp
; File C:\IAGOS\server\v18\Source\Source\_Common\file.cpp
;	COMDAT ??0CFileFinder@@QAE@XZ
_TEXT	SEGMENT
??0CFileFinder@@QAE@XZ PROC				; CFileFinder::CFileFinder, COMDAT
; _this$ = ecx

; 671  : 	m_pos = 0;

  00000	c7 01 00 00 00
	00		 mov	 DWORD PTR [ecx], 0

; 672  : 	m_lHandle = 0;
; 673  : 	m_bResFile = FALSE;
; 674  : }

  00006	8b c1		 mov	 eax, ecx
  00008	c7 41 04 00 00
	00 00		 mov	 DWORD PTR [ecx+4], 0
  0000f	c7 81 0c 01 00
	00 00 00 00 00	 mov	 DWORD PTR [ecx+268], 0
  00019	c3		 ret	 0
??0CFileFinder@@QAE@XZ ENDP				; CFileFinder::CFileFinder
_TEXT	ENDS
; Function compile flags: /Ogtp
; File C:\IAGOS\server\v18\Source\Source\_Common\file.cpp
; File C:\Program Files\Microsoft Visual Studio\2022\Professional\VC\Tools\MSVC\14.44.35207\atlmfc\include\cstringt.h
; File C:\IAGOS\server\v18\Source\Source\_Common\file.cpp
; File C:\IAGOS\server\v18\Source\Source\_Common\file.h
; File C:\IAGOS\server\v18\Source\Source\_Common\file.cpp
; File C:\IAGOS\server\v18\Source\Source\_Common\file.h
; File C:\IAGOS\server\v18\Source\Source\_Common\file.cpp
; File C:\IAGOS\server\v18\Source\Source\_Common\file.h
; File C:\IAGOS\server\v18\Source\Source\_Common\file.cpp
; File C:\IAGOS\server\v18\Source\Source\_Common\file.h
; File C:\IAGOS\server\v18\Source\Source\_Common\file.cpp
; File C:\Program Files\Microsoft Visual Studio\2022\Professional\VC\Tools\MSVC\14.44.35207\atlmfc\include\cstringt.h
; File C:\IAGOS\server\v18\Source\Source\_Common\file.cpp
;	COMDAT ?PutWideString@CFileIO@@QAEHPBD@Z
_TEXT	SEGMENT
_wszBuff$ = -2052					; size = 2048
__$ArrayPad$ = -4					; size = 4
_lpszString$ = 8					; size = 4
?PutWideString@CFileIO@@QAEHPBD@Z PROC			; CFileIO::PutWideString, COMDAT
; _this$ = ecx

; 51   : {

  00000	55		 push	 ebp
  00001	8b ec		 mov	 ebp, esp
  00003	81 ec 04 08 00
	00		 sub	 esp, 2052		; 00000804H
  00009	a1 00 00 00 00	 mov	 eax, DWORD PTR ___security_cookie
  0000e	33 c5		 xor	 eax, ebp
  00010	89 45 fc	 mov	 DWORD PTR __$ArrayPad$[ebp], eax
  00013	53		 push	 ebx
  00014	56		 push	 esi
  00015	57		 push	 edi
  00016	8b 7d 08	 mov	 edi, DWORD PTR _lpszString$[ebp]
  00019	8b d9		 mov	 ebx, ecx

; 52   : 	wchar_t wszBuff[ 1024 ];
; 53   : 	int nLen = strlen( lpszString );

  0001b	8b d7		 mov	 edx, edi
  0001d	8d 72 01	 lea	 esi, DWORD PTR [edx+1]
$LL20@PutWideStr:
  00020	8a 02		 mov	 al, BYTE PTR [edx]
  00022	42		 inc	 edx
  00023	84 c0		 test	 al, al
  00025	75 f9		 jne	 SHORT $LL20@PutWideStr
  00027	2b d6		 sub	 edx, esi

; 54   : 
; 55   : 	ATL::_mbstowcsz(wszBuff, lpszString,nLen + 1 );

  00029	8d 72 01	 lea	 esi, DWORD PTR [edx+1]
; File C:\Program Files\Microsoft Visual Studio\2022\Professional\VC\Tools\MSVC\14.44.35207\atlmfc\include\cstringt.h

; 140  : 	if (count == 0 && wcstr != NULL)

  0002c	85 f6		 test	 esi, esi
  0002e	74 27		 je	 SHORT $LN12@PutWideStr

; 141  : 		return 0;
; 142  : 
; 143  : 	int result = ::MultiByteToWideChar(_AtlGetConversionACP(), 0, mbstr, -1,

  00030	56		 push	 esi
  00031	8d 85 fc f7 ff
	ff		 lea	 eax, DWORD PTR _wszBuff$[ebp]
  00037	50		 push	 eax
  00038	6a ff		 push	 -1
  0003a	57		 push	 edi
  0003b	6a 00		 push	 0
  0003d	6a 03		 push	 3
  0003f	ff 15 00 00 00
	00		 call	 DWORD PTR __imp__MultiByteToWideChar@24

; 145  : 	ATLENSURE(wcstr == NULL || result <= (int)count);

  00045	3b c6		 cmp	 eax, esi
  00047	7f 51		 jg	 SHORT $LN29@PutWideStr

; 146  : 	if ((result > 0) && (wcstr != NULL))

  00049	85 c0		 test	 eax, eax
  0004b	7e 0a		 jle	 SHORT $LN12@PutWideStr

; 147  : 	{
; 148  : 		wcstr[result-1] = 0;

  0004d	33 c9		 xor	 ecx, ecx
  0004f	66 89 8c 45 fa
	f7 ff ff	 mov	 WORD PTR _wszBuff$[ebp+eax*2-2], cx
$LN12@PutWideStr:
; File C:\IAGOS\server\v18\Source\Source\_Common\file.cpp

; 57   : 	return Write( wszBuff, wcslen( wszBuff ) * 2 );

  00057	8d 8d fc f7 ff
	ff		 lea	 ecx, DWORD PTR _wszBuff$[ebp]
  0005d	8d 51 02	 lea	 edx, DWORD PTR [ecx+2]
$LL21@PutWideStr:
  00060	66 8b 01	 mov	 ax, WORD PTR [ecx]
  00063	83 c1 02	 add	 ecx, 2
  00066	66 85 c0	 test	 ax, ax
  00069	75 f5		 jne	 SHORT $LL21@PutWideStr
; File C:\IAGOS\server\v18\Source\Source\_Common\file.h

; 36   : 	size_t Write( LPVOID ptr, size_t size, size_t n = 1 ) { return fwrite( ptr, size, n, fp ); }

  0006b	ff 73 04	 push	 DWORD PTR [ebx+4]
; File C:\IAGOS\server\v18\Source\Source\_Common\file.cpp

; 57   : 	return Write( wszBuff, wcslen( wszBuff ) * 2 );

  0006e	2b ca		 sub	 ecx, edx
  00070	d1 f9		 sar	 ecx, 1
; File C:\IAGOS\server\v18\Source\Source\_Common\file.h

; 36   : 	size_t Write( LPVOID ptr, size_t size, size_t n = 1 ) { return fwrite( ptr, size, n, fp ); }

  00072	6a 01		 push	 1
; File C:\IAGOS\server\v18\Source\Source\_Common\file.cpp

; 57   : 	return Write( wszBuff, wcslen( wszBuff ) * 2 );

  00074	8d 04 09	 lea	 eax, DWORD PTR [ecx+ecx]
; File C:\IAGOS\server\v18\Source\Source\_Common\file.h

; 36   : 	size_t Write( LPVOID ptr, size_t size, size_t n = 1 ) { return fwrite( ptr, size, n, fp ); }

  00077	50		 push	 eax
  00078	8d 85 fc f7 ff
	ff		 lea	 eax, DWORD PTR _wszBuff$[ebp]
  0007e	50		 push	 eax
  0007f	e8 00 00 00 00	 call	 _fwrite
; File C:\IAGOS\server\v18\Source\Source\_Common\file.cpp

; 58   : }

  00084	8b 4d fc	 mov	 ecx, DWORD PTR __$ArrayPad$[ebp]
; File C:\IAGOS\server\v18\Source\Source\_Common\file.h

; 36   : 	size_t Write( LPVOID ptr, size_t size, size_t n = 1 ) { return fwrite( ptr, size, n, fp ); }

  00087	83 c4 10	 add	 esp, 16			; 00000010H
; File C:\IAGOS\server\v18\Source\Source\_Common\file.cpp

; 58   : }

  0008a	33 cd		 xor	 ecx, ebp
  0008c	5f		 pop	 edi
  0008d	5e		 pop	 esi
  0008e	5b		 pop	 ebx
  0008f	e8 00 00 00 00	 call	 @__security_check_cookie@4
  00094	8b e5		 mov	 esp, ebp
  00096	5d		 pop	 ebp
  00097	c2 04 00	 ret	 4
$LN29@PutWideStr:
; File C:\Program Files\Microsoft Visual Studio\2022\Professional\VC\Tools\MSVC\14.44.35207\atlmfc\include\cstringt.h

; 145  : 	ATLENSURE(wcstr == NULL || result <= (int)count);

  0009a	68 05 40 00 80	 push	 -2147467259		; 80004005H
  0009f	e8 00 00 00 00	 call	 ?AtlThrowImpl@ATL@@YGXJ@Z ; ATL::AtlThrowImpl
$LN27@PutWideStr:
  000a4	cc		 int	 3
?PutWideString@CFileIO@@QAEHPBD@Z ENDP			; CFileIO::PutWideString
_TEXT	ENDS
; Function compile flags: /Ogtp
; File C:\IAGOS\server\v18\Source\Source\_Common\file.cpp
;	COMDAT ?Read@CFileIO@@UAEPAXXZ
_TEXT	SEGMENT
?Read@CFileIO@@UAEPAXXZ PROC				; CFileIO::Read, COMDAT
; _this$ = ecx

; 36   : {

  00000	53		 push	 ebx
  00001	56		 push	 esi
  00002	57		 push	 edi
  00003	8b f9		 mov	 edi, ecx

; 37   : 	long size = GetLength();

  00005	8b 07		 mov	 eax, DWORD PTR [edi]
  00007	ff 50 24	 call	 DWORD PTR [eax+36]
  0000a	8b d8		 mov	 ebx, eax

; 38   : 	LPVOID ptr = new BYTE[ size ];

  0000c	53		 push	 ebx
  0000d	e8 00 00 00 00	 call	 ??_U@YAPAXI@Z		; operator new[]
  00012	8b f0		 mov	 esi, eax
  00014	83 c4 04	 add	 esp, 4

; 39   : 	if( !ptr ) 

  00017	85 f6		 test	 esi, esi
  00019	74 2e		 je	 SHORT $LN7@Read

; 40   : 		return NULL;
; 41   : 
; 42   : 	fseek( fp, 0, SEEK_SET );

  0001b	6a 00		 push	 0
  0001d	6a 00		 push	 0
  0001f	ff 77 04	 push	 DWORD PTR [edi+4]
  00022	e8 00 00 00 00	 call	 _fseek

; 43   : 	if( fread( ptr, size, 1, fp ) ) 

  00027	ff 77 04	 push	 DWORD PTR [edi+4]
  0002a	6a 01		 push	 1
  0002c	53		 push	 ebx
  0002d	56		 push	 esi
  0002e	e8 00 00 00 00	 call	 _fread
  00033	83 c4 1c	 add	 esp, 28			; 0000001cH
  00036	85 c0		 test	 eax, eax
  00038	74 06		 je	 SHORT $LN3@Read

; 44   : 	{ 
; 45   : 		return ptr;

  0003a	5f		 pop	 edi
  0003b	8b c6		 mov	 eax, esi

; 48   : 	return NULL;
; 49   : }

  0003d	5e		 pop	 esi
  0003e	5b		 pop	 ebx
  0003f	c3		 ret	 0
$LN3@Read:

; 46   : 	}
; 47   : 	safe_delete_array( ptr ); 

  00040	56		 push	 esi
  00041	e8 00 00 00 00	 call	 ??_V@YAXPAX@Z		; operator delete[]
  00046	83 c4 04	 add	 esp, 4
$LN7@Read:

; 48   : 	return NULL;
; 49   : }

  00049	5f		 pop	 edi
  0004a	5e		 pop	 esi
  0004b	33 c0		 xor	 eax, eax
  0004d	5b		 pop	 ebx
  0004e	c3		 ret	 0
?Read@CFileIO@@UAEPAXXZ ENDP				; CFileIO::Read
_TEXT	ENDS
; Function compile flags: /Ogtp
; File C:\IAGOS\server\v18\Source\Source\_Common\file.cpp
;	COMDAT ?Close@CFileIO@@UAEHXZ
_TEXT	SEGMENT
?Close@CFileIO@@UAEHXZ PROC				; CFileIO::Close, COMDAT
; _this$ = ecx

; 17   : {

  00000	56		 push	 esi
  00001	8b f1		 mov	 esi, ecx

; 18   : 	if( fp ) 

  00003	8b 46 04	 mov	 eax, DWORD PTR [esi+4]
  00006	85 c0		 test	 eax, eax
  00008	74 17		 je	 SHORT $LN2@Close

; 19   : 	{ 
; 20   : 		fclose( fp ); 

  0000a	50		 push	 eax
  0000b	e8 00 00 00 00	 call	 _fclose
  00010	83 c4 04	 add	 esp, 4

; 21   : 		fp = 0; 

  00013	c7 46 04 00 00
	00 00		 mov	 DWORD PTR [esi+4], 0

; 22   : 		return TRUE; 

  0001a	b8 01 00 00 00	 mov	 eax, 1
  0001f	5e		 pop	 esi

; 25   : }

  00020	c3		 ret	 0
$LN2@Close:

; 23   : 	}
; 24   : 	return FALSE;

  00021	33 c0		 xor	 eax, eax
  00023	5e		 pop	 esi

; 25   : }

  00024	c3		 ret	 0
?Close@CFileIO@@UAEHXZ ENDP				; CFileIO::Close
_TEXT	ENDS
; Function compile flags: /Ogtp
; File C:\IAGOS\server\v18\Source\Source\_Common\file.cpp
;	COMDAT ?Open@CFileIO@@UAEHPBDPAD@Z
_TEXT	SEGMENT
_fileName$ = 8						; size = 4
_mode$ = 12						; size = 4
?Open@CFileIO@@UAEHPBDPAD@Z PROC			; CFileIO::Open, COMDAT
; _this$ = ecx

; 28   : {

  00000	55		 push	 ebp
  00001	8b ec		 mov	 ebp, esp
  00003	56		 push	 esi

; 29   : 	fp = _tfopen( fileName, mode );

  00004	ff 75 0c	 push	 DWORD PTR _mode$[ebp]
  00007	8b f1		 mov	 esi, ecx
  00009	ff 75 08	 push	 DWORD PTR _fileName$[ebp]
  0000c	e8 00 00 00 00	 call	 _fopen

; 30   : 	if( fp )

  00011	33 c9		 xor	 ecx, ecx
  00013	89 46 04	 mov	 DWORD PTR [esi+4], eax
  00016	83 c4 08	 add	 esp, 8
  00019	85 c0		 test	 eax, eax
  0001b	0f 95 c1	 setne	 cl

; 31   : 		return TRUE;

  0001e	8b c1		 mov	 eax, ecx
  00020	5e		 pop	 esi

; 32   : 	return FALSE;
; 33   : }

  00021	5d		 pop	 ebp
  00022	c2 08 00	 ret	 8
?Open@CFileIO@@UAEHPBDPAD@Z ENDP			; CFileIO::Open
_TEXT	ENDS
; Function compile flags: /Ogtp
; File C:\Program Files\Microsoft Visual Studio\2022\Professional\VC\Tools\MSVC\14.44.35207\atlmfc\include\atlexcept.h
;	COMDAT ?AtlThrowImpl@ATL@@YGXJ@Z
_TEXT	SEGMENT
_hr$ = 8						; size = 4
?AtlThrowImpl@ATL@@YGXJ@Z PROC				; ATL::AtlThrowImpl, COMDAT

; 69   : {

  00000	55		 push	 ebp
  00001	8b ec		 mov	 ebp, esp

; 70   : 	ATLTRACE(atlTraceException, 0, _T("AtlThrow: hr = 0x%x\n"), hr );
; 71   : #ifdef _AFX
; 72   : 	if( hr == E_OUTOFMEMORY )

  00003	8b 45 08	 mov	 eax, DWORD PTR _hr$[ebp]
  00006	3d 0e 00 07 80	 cmp	 eax, -2147024882	; 8007000eH
  0000b	75 05		 jne	 SHORT $LN2@AtlThrowIm

; 73   : 	{
; 74   : 		AfxThrowMemoryException();

  0000d	e8 00 00 00 00	 call	 ?AfxThrowMemoryException@@YGXXZ ; AfxThrowMemoryException
$LN2@AtlThrowIm:

; 75   : 	}
; 76   : 	else
; 77   : 	{
; 78   : 		AfxThrowOleException( hr );

  00012	50		 push	 eax
  00013	e8 00 00 00 00	 call	 ?AfxThrowOleException@@YGXJ@Z ; AfxThrowOleException
$LN5@AtlThrowIm:
  00018	cc		 int	 3
?AtlThrowImpl@ATL@@YGXJ@Z ENDP				; ATL::AtlThrowImpl
_TEXT	ENDS
; Function compile flags: /Ogtp
; File C:\IAGOS\server\v18\Source\Source\_Common\file.cpp
;	COMDAT ?__empty_global_delete@@YAXPAXI@Z
_TEXT	SEGMENT
___formal$ = 8						; size = 4
___formal$ = 12						; size = 4
?__empty_global_delete@@YAXPAXI@Z PROC			; __empty_global_delete, COMDAT

  00000	c2 00 00	 ret	 0
?__empty_global_delete@@YAXPAXI@Z ENDP			; __empty_global_delete
_TEXT	ENDS
; Function compile flags: /Ogtp
; File C:\IAGOS\server\v18\Source\Source\_Common\file.cpp
;	COMDAT ?__empty_global_delete@@YAXPAX@Z
_TEXT	SEGMENT
___formal$ = 8						; size = 4
?__empty_global_delete@@YAXPAX@Z PROC			; __empty_global_delete, COMDAT

  00000	c2 00 00	 ret	 0
?__empty_global_delete@@YAXPAX@Z ENDP			; __empty_global_delete
_TEXT	ENDS
END
