; Listing generated by Microsoft (R) Optimizing Compiler Version 19.44.35225.0 

	TITLE	C:\IAGOS\server\v18\Source\Output\DatabaseServer\Release\FunnyCoin.obj
	.686P
	.XMM
	include listing.inc
	.model	flat

INCLUDELIB LIBCMT
INCLUDELIB OLDNAMES

PUBLIC	?__empty_global_delete@@YAXPAX@Z		; __empty_global_delete
PUBLIC	?__empty_global_delete@@YAXPAXI@Z		; __empty_global_delete
PUBLIC	?OnTimer@CDbController@@UAEXXZ			; CDbController::OnTimer
PUBLIC	??0CFunnyCoinDbCtrl@@QAE@XZ			; CFunnyCoinDbCtrl::CFunnyCoinDbCtrl
PUBLIC	??1CFunnyCoinDbCtrl@@UAE@XZ			; CFunnyCoinDbCtrl::~CFunnyCoinDbCtrl
PUBLIC	?Handler@CFunnyCoinDbCtrl@@UAEXPAUtagDB_OVERLAPPED_PLUS@@K@Z ; CFunnyCoinDbCtrl::Handler
PUBLIC	?InsertFunnyCoin@CFunnyCoinDbCtrl@@AAEHKKK@Z	; CFunnyCoinDbCtrl::InsertFunnyCoin
PUBLIC	??_GCFunnyCoinDbCtrl@@UAEPAXI@Z			; CFunnyCoinDbCtrl::`scalar deleting destructor'
PUBLIC	??0CFunnyCoinDbMng@@QAE@XZ			; CFunnyCoinDbMng::CFunnyCoinDbMng
PUBLIC	??1CFunnyCoinDbMng@@QAE@XZ			; CFunnyCoinDbMng::~CFunnyCoinDbMng
PUBLIC	?GetInstance@CFunnyCoinDbMng@@SAPAV1@XZ		; CFunnyCoinDbMng::GetInstance
PUBLIC	??$?5K@CAr@@QAEAAV0@AAK@Z			; CAr::operator>><unsigned long>
PUBLIC	??_7CFunnyCoinDbCtrl@@6B@			; CFunnyCoinDbCtrl::`vftable'
PUBLIC	??_C@_0CP@JCGMIKKD@usp_FunnyCoin_input?5?8?$CF02d?8?0?5?8?$CF0@ ; `string'
PUBLIC	??_C@_0CO@EJCCPKJG@Call?5?$CCusp_FunnyCoin_input?$CC?5FAIL@ ; `string'
PUBLIC	??_C@_06KJFADLGN@result@			; `string'
PUBLIC	??_C@_0EC@OAKONONG@usp_FunnyCoin_input?5Result?5is?5F@ ; `string'
PUBLIC	??_C@_0CP@IBJOKJMK@CFunnyCoinDbMng?5?9?5m_FCDbCtrl?4Cr@ ; `string'
PUBLIC	??_R4CFunnyCoinDbCtrl@@6B@			; CFunnyCoinDbCtrl::`RTTI Complete Object Locator'
PUBLIC	??_R0?AVCFunnyCoinDbCtrl@@@8			; CFunnyCoinDbCtrl `RTTI Type Descriptor'
PUBLIC	??_R3CFunnyCoinDbCtrl@@8			; CFunnyCoinDbCtrl::`RTTI Class Hierarchy Descriptor'
PUBLIC	??_R2CFunnyCoinDbCtrl@@8			; CFunnyCoinDbCtrl::`RTTI Base Class Array'
PUBLIC	??_R1A@?0A@EA@CFunnyCoinDbCtrl@@8		; CFunnyCoinDbCtrl::`RTTI Base Class Descriptor at (0,-1,0,64)'
PUBLIC	??_R1A@?0A@EA@CDbController@@8			; CDbController::`RTTI Base Class Descriptor at (0,-1,0,64)'
PUBLIC	??_R0?AVCDbController@@@8			; CDbController `RTTI Type Descriptor'
PUBLIC	??_R3CDbController@@8				; CDbController::`RTTI Class Hierarchy Descriptor'
PUBLIC	??_R2CDbController@@8				; CDbController::`RTTI Base Class Array'
EXTRN	??3@YAXPAXI@Z:PROC				; operator delete
EXTRN	_atexit:PROC
EXTRN	__Init_thread_header:PROC
EXTRN	__Init_thread_abort:PROC
EXTRN	__Init_thread_footer:PROC
EXTRN	?Error@@YAPBDPBDZZ:PROC				; Error
EXTRN	?Execute@CQuery@@QAAHPBDZZ:PROC			; CQuery::Execute
EXTRN	?Fetch@CQuery@@QAEHXZ:PROC			; CQuery::Fetch
EXTRN	?GetInt@CQuery@@QAEHPAD@Z:PROC			; CQuery::GetInt
EXTRN	??0CAr@@QAE@PAXI@Z:PROC				; CAr::CAr
EXTRN	??1CAr@@QAE@XZ:PROC				; CAr::~CAr
EXTRN	??0CDbController@@QAE@XZ:PROC			; CDbController::CDbController
EXTRN	??1CDbController@@UAE@XZ:PROC			; CDbController::~CDbController
EXTRN	?CreateDbHandler@CDbController@@QAEHK@Z:PROC	; CDbController::CreateDbHandler
EXTRN	?CloseDbHandler@CDbController@@QAEXXZ:PROC	; CDbController::CloseDbHandler
EXTRN	??_ECFunnyCoinDbCtrl@@UAEPAXI@Z:PROC		; CFunnyCoinDbCtrl::`vector deleting destructor'
EXTRN	?GetInstance@CDPTrans@@SAPAV1@XZ:PROC		; CDPTrans::GetInstance
EXTRN	?SendFunnyCoinAckUse@CDPTrans@@QAEXKKKHK@Z:PROC	; CDPTrans::SendFunnyCoinAckUse
EXTRN	@__security_check_cookie@4:PROC
EXTRN	___CxxFrameHandler3:PROC
EXTRN	__chkstk:PROC
EXTRN	__Init_thread_epoch:DWORD
EXTRN	??_7type_info@@6B@:QWORD			; type_info::`vftable'
EXTRN	?prj@@3VCProject@@A:BYTE			; prj
EXTRN	?g_appInfo@@3UAppInfo@@A:QWORD			; g_appInfo
EXTRN	___security_cookie:DWORD
EXTRN	__tls_array:DWORD
EXTRN	__tls_index:DWORD
;	COMDAT ?sFunnyCoinDbMng@?1??GetInstance@CFunnyCoinDbMng@@SAPAV2@XZ@4V2@A
_BSS	SEGMENT
?sFunnyCoinDbMng@?1??GetInstance@CFunnyCoinDbMng@@SAPAV2@XZ@4V2@A DB 014H DUP (?) ; `CFunnyCoinDbMng::GetInstance'::`2'::sFunnyCoinDbMng
_BSS	ENDS
;	COMDAT ?$TSS0@?1??GetInstance@CFunnyCoinDbMng@@SAPAV2@XZ@4HA
_BSS	SEGMENT
?$TSS0@?1??GetInstance@CFunnyCoinDbMng@@SAPAV2@XZ@4HA DD 01H DUP (?) ; `CFunnyCoinDbMng::GetInstance'::`2'::$TSS0
_BSS	ENDS
;	COMDAT ??_R2CDbController@@8
rdata$r	SEGMENT
??_R2CDbController@@8 DD FLAT:??_R1A@?0A@EA@CDbController@@8 ; CDbController::`RTTI Base Class Array'
rdata$r	ENDS
;	COMDAT ??_R3CDbController@@8
rdata$r	SEGMENT
??_R3CDbController@@8 DD 00H				; CDbController::`RTTI Class Hierarchy Descriptor'
	DD	00H
	DD	01H
	DD	FLAT:??_R2CDbController@@8
rdata$r	ENDS
;	COMDAT ??_R0?AVCDbController@@@8
data$rs	SEGMENT
??_R0?AVCDbController@@@8 DD FLAT:??_7type_info@@6B@	; CDbController `RTTI Type Descriptor'
	DD	00H
	DB	'.?AVCDbController@@', 00H
data$rs	ENDS
;	COMDAT ??_R1A@?0A@EA@CDbController@@8
rdata$r	SEGMENT
??_R1A@?0A@EA@CDbController@@8 DD FLAT:??_R0?AVCDbController@@@8 ; CDbController::`RTTI Base Class Descriptor at (0,-1,0,64)'
	DD	00H
	DD	00H
	DD	0ffffffffH
	DD	00H
	DD	040H
	DD	FLAT:??_R3CDbController@@8
rdata$r	ENDS
;	COMDAT ??_R1A@?0A@EA@CFunnyCoinDbCtrl@@8
rdata$r	SEGMENT
??_R1A@?0A@EA@CFunnyCoinDbCtrl@@8 DD FLAT:??_R0?AVCFunnyCoinDbCtrl@@@8 ; CFunnyCoinDbCtrl::`RTTI Base Class Descriptor at (0,-1,0,64)'
	DD	01H
	DD	00H
	DD	0ffffffffH
	DD	00H
	DD	040H
	DD	FLAT:??_R3CFunnyCoinDbCtrl@@8
rdata$r	ENDS
;	COMDAT ??_R2CFunnyCoinDbCtrl@@8
rdata$r	SEGMENT
??_R2CFunnyCoinDbCtrl@@8 DD FLAT:??_R1A@?0A@EA@CFunnyCoinDbCtrl@@8 ; CFunnyCoinDbCtrl::`RTTI Base Class Array'
	DD	FLAT:??_R1A@?0A@EA@CDbController@@8
rdata$r	ENDS
;	COMDAT ??_R3CFunnyCoinDbCtrl@@8
rdata$r	SEGMENT
??_R3CFunnyCoinDbCtrl@@8 DD 00H				; CFunnyCoinDbCtrl::`RTTI Class Hierarchy Descriptor'
	DD	00H
	DD	02H
	DD	FLAT:??_R2CFunnyCoinDbCtrl@@8
rdata$r	ENDS
;	COMDAT ??_R0?AVCFunnyCoinDbCtrl@@@8
data$rs	SEGMENT
??_R0?AVCFunnyCoinDbCtrl@@@8 DD FLAT:??_7type_info@@6B@	; CFunnyCoinDbCtrl `RTTI Type Descriptor'
	DD	00H
	DB	'.?AVCFunnyCoinDbCtrl@@', 00H
data$rs	ENDS
;	COMDAT ??_R4CFunnyCoinDbCtrl@@6B@
rdata$r	SEGMENT
??_R4CFunnyCoinDbCtrl@@6B@ DD 00H			; CFunnyCoinDbCtrl::`RTTI Complete Object Locator'
	DD	00H
	DD	00H
	DD	FLAT:??_R0?AVCFunnyCoinDbCtrl@@@8
	DD	FLAT:??_R3CFunnyCoinDbCtrl@@8
rdata$r	ENDS
;	COMDAT ??_C@_0CP@IBJOKJMK@CFunnyCoinDbMng?5?9?5m_FCDbCtrl?4Cr@
CONST	SEGMENT
??_C@_0CP@IBJOKJMK@CFunnyCoinDbMng?5?9?5m_FCDbCtrl?4Cr@ DB 'CFunnyCoinDbM'
	DB	'ng - m_FCDbCtrl.CreateDbHandler()', 00H	; `string'
CONST	ENDS
;	COMDAT ??_C@_0EC@OAKONONG@usp_FunnyCoin_input?5Result?5is?5F@
CONST	SEGMENT
??_C@_0EC@OAKONONG@usp_FunnyCoin_input?5Result?5is?5F@ DB 'usp_FunnyCoin_'
	DB	'input Result is Fail - ErrorCode : %d, %07d, %d, %d', 00H ; `string'
CONST	ENDS
;	COMDAT ??_C@_06KJFADLGN@result@
CONST	SEGMENT
??_C@_06KJFADLGN@result@ DB 'result', 00H		; `string'
CONST	ENDS
;	COMDAT ??_C@_0CO@EJCCPKJG@Call?5?$CCusp_FunnyCoin_input?$CC?5FAIL@
CONST	SEGMENT
??_C@_0CO@EJCCPKJG@Call?5?$CCusp_FunnyCoin_input?$CC?5FAIL@ DB 'Call "usp'
	DB	'_FunnyCoin_input" FAILED! - %07d, %d', 00H	; `string'
CONST	ENDS
;	COMDAT ??_C@_0CP@JCGMIKKD@usp_FunnyCoin_input?5?8?$CF02d?8?0?5?8?$CF0@
CONST	SEGMENT
??_C@_0CP@JCGMIKKD@usp_FunnyCoin_input?5?8?$CF02d?8?0?5?8?$CF0@ DB 'usp_F'
	DB	'unnyCoin_input ''%02d'', ''%07d'', %d, %d, %d', 00H ; `string'
CONST	ENDS
;	COMDAT ??_7CFunnyCoinDbCtrl@@6B@
CONST	SEGMENT
??_7CFunnyCoinDbCtrl@@6B@ DD FLAT:??_R4CFunnyCoinDbCtrl@@6B@ ; CFunnyCoinDbCtrl::`vftable'
	DD	FLAT:??_ECFunnyCoinDbCtrl@@UAEPAXI@Z
	DD	FLAT:?Handler@CFunnyCoinDbCtrl@@UAEXPAUtagDB_OVERLAPPED_PLUS@@K@Z
	DD	FLAT:?OnTimer@CDbController@@UAEXXZ
CONST	ENDS
;	COMDAT xdata$x
xdata$x	SEGMENT
__unwindtable$?GetInstance@CFunnyCoinDbMng@@SAPAV1@XZ DD 0ffffffffH
	DD	FLAT:__unwindfunclet$?GetInstance@CFunnyCoinDbMng@@SAPAV1@XZ$0
__ehfuncinfo$?GetInstance@CFunnyCoinDbMng@@SAPAV1@XZ DD 019930522H
	DD	01H
	DD	FLAT:__unwindtable$?GetInstance@CFunnyCoinDbMng@@SAPAV1@XZ
	DD	2 DUP(00H)
	DD	2 DUP(00H)
	DD	00H
	DD	01H
xdata$x	ENDS
;	COMDAT xdata$x
xdata$x	SEGMENT
__ehfuncinfo$??1CFunnyCoinDbMng@@QAE@XZ DD 019930522H
	DD	00H
	DD	00H
	DD	2 DUP(00H)
	DD	2 DUP(00H)
	DD	00H
	DD	05H
xdata$x	ENDS
;	COMDAT xdata$x
xdata$x	SEGMENT
__unwindtable$??0CFunnyCoinDbMng@@QAE@XZ DD 0ffffffffH
	DD	FLAT:__unwindfunclet$??0CFunnyCoinDbMng@@QAE@XZ$0
__ehfuncinfo$??0CFunnyCoinDbMng@@QAE@XZ DD 019930522H
	DD	01H
	DD	FLAT:__unwindtable$??0CFunnyCoinDbMng@@QAE@XZ
	DD	2 DUP(00H)
	DD	2 DUP(00H)
	DD	00H
	DD	01H
xdata$x	ENDS
;	COMDAT xdata$x
xdata$x	SEGMENT
__unwindtable$?Handler@CFunnyCoinDbCtrl@@UAEXPAUtagDB_OVERLAPPED_PLUS@@K@Z DD 0ffffffffH
	DD	FLAT:__unwindfunclet$?Handler@CFunnyCoinDbCtrl@@UAEXPAUtagDB_OVERLAPPED_PLUS@@K@Z$0
__ehfuncinfo$?Handler@CFunnyCoinDbCtrl@@UAEXPAUtagDB_OVERLAPPED_PLUS@@K@Z DD 019930522H
	DD	01H
	DD	FLAT:__unwindtable$?Handler@CFunnyCoinDbCtrl@@UAEXPAUtagDB_OVERLAPPED_PLUS@@K@Z
	DD	2 DUP(00H)
	DD	2 DUP(00H)
	DD	00H
	DD	01H
xdata$x	ENDS
; Function compile flags: /Ogtp
;	COMDAT ??__FsFunnyCoinDbMng@?1??GetInstance@CFunnyCoinDbMng@@SAPAV1@XZ@YAXXZ
text$yd	SEGMENT
??__FsFunnyCoinDbMng@?1??GetInstance@CFunnyCoinDbMng@@SAPAV1@XZ@YAXXZ PROC ; `CFunnyCoinDbMng::GetInstance'::`2'::`dynamic atexit destructor for 'sFunnyCoinDbMng'', COMDAT
  00000	b9 00 00 00 00	 mov	 ecx, OFFSET ?sFunnyCoinDbMng@?1??GetInstance@CFunnyCoinDbMng@@SAPAV2@XZ@4V2@A
  00005	e9 00 00 00 00	 jmp	 ??1CFunnyCoinDbMng@@QAE@XZ ; CFunnyCoinDbMng::~CFunnyCoinDbMng
??__FsFunnyCoinDbMng@?1??GetInstance@CFunnyCoinDbMng@@SAPAV1@XZ@YAXXZ ENDP ; `CFunnyCoinDbMng::GetInstance'::`2'::`dynamic atexit destructor for 'sFunnyCoinDbMng''
text$yd	ENDS
; Function compile flags: /Ogtp
; File C:\IAGOS\server\v18\Source\Source\_Network\Misc\Include\Ar.h
;	COMDAT ??$?5K@CAr@@QAEAAV0@AAK@Z
_TEXT	SEGMENT
_t$ = 8							; size = 4
??$?5K@CAr@@QAEAAV0@AAK@Z PROC				; CAr::operator>><unsigned long>, COMDAT
; _this$ = ecx

; 302  : {

  00000	55		 push	 ebp
  00001	8b ec		 mov	 ebp, esp
  00003	8b d1		 mov	 edx, ecx

; 303  : 	if (m_lpBufCur + sizeof(T) <= m_lpBufMax)

  00005	8b 4a 08	 mov	 ecx, DWORD PTR [edx+8]
  00008	8d 41 04	 lea	 eax, DWORD PTR [ecx+4]
  0000b	3b 42 0c	 cmp	 eax, DWORD PTR [edx+12]
  0000e	8b 45 08	 mov	 eax, DWORD PTR _t$[ebp]
  00011	77 0e		 ja	 SHORT $LN2@operator

; 304  : 	{
; 305  : 		t = *(UNALIGNED T*)m_lpBufCur;

  00013	8b 09		 mov	 ecx, DWORD PTR [ecx]
  00015	89 08		 mov	 DWORD PTR [eax], ecx

; 312  : 	}
; 313  : 	return *this;
; 314  : }

  00017	8b c2		 mov	 eax, edx
  00019	83 42 08 04	 add	 DWORD PTR [edx+8], 4
  0001d	5d		 pop	 ebp
  0001e	c2 04 00	 ret	 4
$LN2@operator:

; 306  : 		m_lpBufCur += sizeof(T);
; 307  : 	}
; 308  : 	else
; 309  : 	{
; 310  : 		t = T();

  00021	c7 00 00 00 00
	00		 mov	 DWORD PTR [eax], 0

; 311  : 		m_lpBufCur = m_lpBufMax;

  00027	8b 42 0c	 mov	 eax, DWORD PTR [edx+12]
  0002a	89 42 08	 mov	 DWORD PTR [edx+8], eax

; 312  : 	}
; 313  : 	return *this;
; 314  : }

  0002d	8b c2		 mov	 eax, edx
  0002f	5d		 pop	 ebp
  00030	c2 04 00	 ret	 4
??$?5K@CAr@@QAEAAV0@AAK@Z ENDP				; CAr::operator>><unsigned long>
_TEXT	ENDS
; Function compile flags: /Ogtp
; File C:\IAGOS\server\v18\Source\Source\_Common\FunnyCoin.cpp
;	COMDAT ?GetInstance@CFunnyCoinDbMng@@SAPAV1@XZ
_TEXT	SEGMENT
__$EHRec$ = -12						; size = 12
?GetInstance@CFunnyCoinDbMng@@SAPAV1@XZ PROC		; CFunnyCoinDbMng::GetInstance, COMDAT

; 237  : {

  00000	55		 push	 ebp
  00001	8b ec		 mov	 ebp, esp
  00003	6a ff		 push	 -1
  00005	68 00 00 00 00	 push	 __ehhandler$?GetInstance@CFunnyCoinDbMng@@SAPAV1@XZ
  0000a	64 a1 00 00 00
	00		 mov	 eax, DWORD PTR fs:0
  00010	50		 push	 eax
  00011	a1 00 00 00 00	 mov	 eax, DWORD PTR ___security_cookie
  00016	33 c5		 xor	 eax, ebp
  00018	50		 push	 eax
  00019	8d 45 f4	 lea	 eax, DWORD PTR __$EHRec$[ebp]
  0001c	64 a3 00 00 00
	00		 mov	 DWORD PTR fs:0, eax

; 238  : 	static CFunnyCoinDbMng sFunnyCoinDbMng;

  00022	64 a1 00 00 00
	00		 mov	 eax, DWORD PTR fs:__tls_array
  00028	8b 0d 00 00 00
	00		 mov	 ecx, DWORD PTR __tls_index
  0002e	8b 0c 88	 mov	 ecx, DWORD PTR [eax+ecx*4]
  00031	a1 00 00 00 00	 mov	 eax, DWORD PTR ?$TSS0@?1??GetInstance@CFunnyCoinDbMng@@SAPAV2@XZ@4HA
  00036	3b 81 00 00 00
	00		 cmp	 eax, DWORD PTR __Init_thread_epoch[ecx]
  0003c	7f 14		 jg	 SHORT $LN9@GetInstanc
$LN5@GetInstanc:

; 239  : 	return &sFunnyCoinDbMng;
; 240  : }

  0003e	b8 00 00 00 00	 mov	 eax, OFFSET ?sFunnyCoinDbMng@?1??GetInstance@CFunnyCoinDbMng@@SAPAV2@XZ@4V2@A
  00043	8b 4d f4	 mov	 ecx, DWORD PTR __$EHRec$[ebp]
  00046	64 89 0d 00 00
	00 00		 mov	 DWORD PTR fs:0, ecx
  0004d	59		 pop	 ecx
  0004e	8b e5		 mov	 esp, ebp
  00050	5d		 pop	 ebp
  00051	c3		 ret	 0
$LN9@GetInstanc:

; 238  : 	static CFunnyCoinDbMng sFunnyCoinDbMng;

  00052	68 00 00 00 00	 push	 OFFSET ?$TSS0@?1??GetInstance@CFunnyCoinDbMng@@SAPAV2@XZ@4HA
  00057	e8 00 00 00 00	 call	 __Init_thread_header
  0005c	83 c4 04	 add	 esp, 4
  0005f	83 3d 00 00 00
	00 ff		 cmp	 DWORD PTR ?$TSS0@?1??GetInstance@CFunnyCoinDbMng@@SAPAV2@XZ@4HA, -1
  00066	75 d6		 jne	 SHORT $LN5@GetInstanc
  00068	b9 00 00 00 00	 mov	 ecx, OFFSET ?sFunnyCoinDbMng@?1??GetInstance@CFunnyCoinDbMng@@SAPAV2@XZ@4V2@A
  0006d	c7 45 fc 00 00
	00 00		 mov	 DWORD PTR __$EHRec$[ebp+8], 0
  00074	e8 00 00 00 00	 call	 ??0CFunnyCoinDbMng@@QAE@XZ ; CFunnyCoinDbMng::CFunnyCoinDbMng
  00079	68 00 00 00 00	 push	 OFFSET ??__FsFunnyCoinDbMng@?1??GetInstance@CFunnyCoinDbMng@@SAPAV1@XZ@YAXXZ ; `CFunnyCoinDbMng::GetInstance'::`2'::`dynamic atexit destructor for 'sFunnyCoinDbMng''
  0007e	e8 00 00 00 00	 call	 _atexit
  00083	68 00 00 00 00	 push	 OFFSET ?$TSS0@?1??GetInstance@CFunnyCoinDbMng@@SAPAV2@XZ@4HA
  00088	e8 00 00 00 00	 call	 __Init_thread_footer
  0008d	83 c4 08	 add	 esp, 8
  00090	eb ac		 jmp	 SHORT $LN5@GetInstanc
_TEXT	ENDS
;	COMDAT text$x
text$x	SEGMENT
__unwindfunclet$?GetInstance@CFunnyCoinDbMng@@SAPAV1@XZ$0:
  00000	68 00 00 00 00	 push	 OFFSET ?$TSS0@?1??GetInstance@CFunnyCoinDbMng@@SAPAV2@XZ@4HA
  00005	e8 00 00 00 00	 call	 __Init_thread_abort
  0000a	59		 pop	 ecx
  0000b	c3		 ret	 0
  0000c	cc		 int	 3
  0000d	cc		 int	 3
  0000e	cc		 int	 3
  0000f	cc		 int	 3
  00010	cc		 int	 3
__ehhandler$?GetInstance@CFunnyCoinDbMng@@SAPAV1@XZ:
  00011	90		 npad	 1
  00012	90		 npad	 1
  00013	8b 54 24 08	 mov	 edx, DWORD PTR [esp+8]
  00017	8d 42 0c	 lea	 eax, DWORD PTR [edx+12]
  0001a	8b 4a fc	 mov	 ecx, DWORD PTR [edx-4]
  0001d	33 c8		 xor	 ecx, eax
  0001f	e8 00 00 00 00	 call	 @__security_check_cookie@4
  00024	b8 00 00 00 00	 mov	 eax, OFFSET __ehfuncinfo$?GetInstance@CFunnyCoinDbMng@@SAPAV1@XZ
  00029	e9 00 00 00 00	 jmp	 ___CxxFrameHandler3
text$x	ENDS
?GetInstance@CFunnyCoinDbMng@@SAPAV1@XZ ENDP		; CFunnyCoinDbMng::GetInstance
; Function compile flags: /Ogtp
; File C:\IAGOS\server\v18\Source\Source\_Common\FunnyCoin.cpp
;	COMDAT ??1CFunnyCoinDbMng@@QAE@XZ
_TEXT	SEGMENT
__$EHRec$ = -12						; size = 12
??1CFunnyCoinDbMng@@QAE@XZ PROC				; CFunnyCoinDbMng::~CFunnyCoinDbMng, COMDAT
; _this$ = ecx

; 232  : {

  00000	55		 push	 ebp
  00001	8b ec		 mov	 ebp, esp
  00003	6a ff		 push	 -1
  00005	68 00 00 00 00	 push	 __ehhandler$??1CFunnyCoinDbMng@@QAE@XZ
  0000a	64 a1 00 00 00
	00		 mov	 eax, DWORD PTR fs:0
  00010	50		 push	 eax
  00011	56		 push	 esi
  00012	a1 00 00 00 00	 mov	 eax, DWORD PTR ___security_cookie
  00017	33 c5		 xor	 eax, ebp
  00019	50		 push	 eax
  0001a	8d 45 f4	 lea	 eax, DWORD PTR __$EHRec$[ebp]
  0001d	64 a3 00 00 00
	00		 mov	 DWORD PTR fs:0, eax
  00023	8b f1		 mov	 esi, ecx

; 233  : 	m_FCDbCtrl.CloseDbHandler();

  00025	e8 00 00 00 00	 call	 ?CloseDbHandler@CDbController@@QAEXXZ ; CDbController::CloseDbHandler

; 234  : }

  0002a	8b ce		 mov	 ecx, esi
  0002c	e8 00 00 00 00	 call	 ??1CFunnyCoinDbCtrl@@UAE@XZ ; CFunnyCoinDbCtrl::~CFunnyCoinDbCtrl
  00031	8b 4d f4	 mov	 ecx, DWORD PTR __$EHRec$[ebp]
  00034	64 89 0d 00 00
	00 00		 mov	 DWORD PTR fs:0, ecx
  0003b	59		 pop	 ecx
  0003c	5e		 pop	 esi
  0003d	8b e5		 mov	 esp, ebp
  0003f	5d		 pop	 ebp
  00040	c3		 ret	 0
  00041	cc		 int	 3
  00042	cc		 int	 3
  00043	cc		 int	 3
  00044	cc		 int	 3
  00045	cc		 int	 3
_TEXT	ENDS
;	COMDAT text$x
text$x	SEGMENT
__ehhandler$??1CFunnyCoinDbMng@@QAE@XZ:
  00000	90		 npad	 1
  00001	90		 npad	 1
  00002	8b 54 24 08	 mov	 edx, DWORD PTR [esp+8]
  00006	8d 42 0c	 lea	 eax, DWORD PTR [edx+12]
  00009	8b 4a f8	 mov	 ecx, DWORD PTR [edx-8]
  0000c	33 c8		 xor	 ecx, eax
  0000e	e8 00 00 00 00	 call	 @__security_check_cookie@4
  00013	b8 00 00 00 00	 mov	 eax, OFFSET __ehfuncinfo$??1CFunnyCoinDbMng@@QAE@XZ
  00018	e9 00 00 00 00	 jmp	 ___CxxFrameHandler3
text$x	ENDS
??1CFunnyCoinDbMng@@QAE@XZ ENDP				; CFunnyCoinDbMng::~CFunnyCoinDbMng
; Function compile flags: /Ogtp
; File C:\IAGOS\server\v18\Source\Source\_Common\FunnyCoin.cpp
;	COMDAT ??0CFunnyCoinDbMng@@QAE@XZ
_TEXT	SEGMENT
_this$ = -16						; size = 4
__$EHRec$ = -12						; size = 12
??0CFunnyCoinDbMng@@QAE@XZ PROC				; CFunnyCoinDbMng::CFunnyCoinDbMng, COMDAT
; _this$ = ecx

; 226  : {

  00000	55		 push	 ebp
  00001	8b ec		 mov	 ebp, esp
  00003	6a ff		 push	 -1
  00005	68 00 00 00 00	 push	 __ehhandler$??0CFunnyCoinDbMng@@QAE@XZ
  0000a	64 a1 00 00 00
	00		 mov	 eax, DWORD PTR fs:0
  00010	50		 push	 eax
  00011	51		 push	 ecx
  00012	56		 push	 esi
  00013	a1 00 00 00 00	 mov	 eax, DWORD PTR ___security_cookie
  00018	33 c5		 xor	 eax, ebp
  0001a	50		 push	 eax
  0001b	8d 45 f4	 lea	 eax, DWORD PTR __$EHRec$[ebp]
  0001e	64 a3 00 00 00
	00		 mov	 DWORD PTR fs:0, eax
  00024	8b f1		 mov	 esi, ecx
  00026	89 75 f0	 mov	 DWORD PTR _this$[ebp], esi
  00029	e8 00 00 00 00	 call	 ??0CFunnyCoinDbCtrl@@QAE@XZ ; CFunnyCoinDbCtrl::CFunnyCoinDbCtrl

; 227  : 	if( !m_FCDbCtrl.CreateDbHandler() )

  0002e	6a ff		 push	 -1
  00030	8b ce		 mov	 ecx, esi
  00032	c7 45 fc 00 00
	00 00		 mov	 DWORD PTR __$EHRec$[ebp+8], 0
  00039	e8 00 00 00 00	 call	 ?CreateDbHandler@CDbController@@QAEHK@Z ; CDbController::CreateDbHandler
  0003e	85 c0		 test	 eax, eax
  00040	75 0d		 jne	 SHORT $LN5@CFunnyCoin

; 228  : 		Error( "CFunnyCoinDbMng - m_FCDbCtrl.CreateDbHandler()" );

  00042	68 00 00 00 00	 push	 OFFSET ??_C@_0CP@IBJOKJMK@CFunnyCoinDbMng?5?9?5m_FCDbCtrl?4Cr@
  00047	e8 00 00 00 00	 call	 ?Error@@YAPBDPBDZZ	; Error
  0004c	83 c4 04	 add	 esp, 4
$LN5@CFunnyCoin:

; 229  : }

  0004f	8b c6		 mov	 eax, esi
  00051	8b 4d f4	 mov	 ecx, DWORD PTR __$EHRec$[ebp]
  00054	64 89 0d 00 00
	00 00		 mov	 DWORD PTR fs:0, ecx
  0005b	59		 pop	 ecx
  0005c	5e		 pop	 esi
  0005d	8b e5		 mov	 esp, ebp
  0005f	5d		 pop	 ebp
  00060	c3		 ret	 0
_TEXT	ENDS
;	COMDAT text$x
text$x	SEGMENT
__unwindfunclet$??0CFunnyCoinDbMng@@QAE@XZ$0:
  00000	8b 4d f0	 mov	 ecx, DWORD PTR _this$[ebp]
  00003	e9 00 00 00 00	 jmp	 ??1CFunnyCoinDbCtrl@@UAE@XZ ; CFunnyCoinDbCtrl::~CFunnyCoinDbCtrl
  00008	cc		 int	 3
  00009	cc		 int	 3
  0000a	cc		 int	 3
  0000b	cc		 int	 3
  0000c	cc		 int	 3
__ehhandler$??0CFunnyCoinDbMng@@QAE@XZ:
  0000d	90		 npad	 1
  0000e	90		 npad	 1
  0000f	8b 54 24 08	 mov	 edx, DWORD PTR [esp+8]
  00013	8d 42 0c	 lea	 eax, DWORD PTR [edx+12]
  00016	8b 4a f4	 mov	 ecx, DWORD PTR [edx-12]
  00019	33 c8		 xor	 ecx, eax
  0001b	e8 00 00 00 00	 call	 @__security_check_cookie@4
  00020	b8 00 00 00 00	 mov	 eax, OFFSET __ehfuncinfo$??0CFunnyCoinDbMng@@QAE@XZ
  00025	e9 00 00 00 00	 jmp	 ___CxxFrameHandler3
text$x	ENDS
??0CFunnyCoinDbMng@@QAE@XZ ENDP				; CFunnyCoinDbMng::CFunnyCoinDbMng
; Function compile flags: /Ogtp
;	COMDAT ??_GCFunnyCoinDbCtrl@@UAEPAXI@Z
_TEXT	SEGMENT
___flags$ = 8						; size = 4
??_GCFunnyCoinDbCtrl@@UAEPAXI@Z PROC			; CFunnyCoinDbCtrl::`scalar deleting destructor', COMDAT
; _this$ = ecx
  00000	55		 push	 ebp
  00001	8b ec		 mov	 ebp, esp
  00003	56		 push	 esi
  00004	8b f1		 mov	 esi, ecx
  00006	e8 00 00 00 00	 call	 ??1CFunnyCoinDbCtrl@@UAE@XZ ; CFunnyCoinDbCtrl::~CFunnyCoinDbCtrl
  0000b	f6 45 08 01	 test	 BYTE PTR ___flags$[ebp], 1
  0000f	74 0b		 je	 SHORT $LN5@scalar
  00011	6a 14		 push	 20			; 00000014H
  00013	56		 push	 esi
  00014	e8 00 00 00 00	 call	 ??3@YAXPAXI@Z		; operator delete
  00019	83 c4 08	 add	 esp, 8
$LN5@scalar:
  0001c	8b c6		 mov	 eax, esi
  0001e	5e		 pop	 esi
  0001f	5d		 pop	 ebp
  00020	c2 04 00	 ret	 4
??_GCFunnyCoinDbCtrl@@UAEPAXI@Z ENDP			; CFunnyCoinDbCtrl::`scalar deleting destructor'
_TEXT	ENDS
; Function compile flags: /Ogtp
; File C:\IAGOS\server\v18\Source\Source\_Common\FunnyCoin.cpp
; File C:\IAGOS\server\v18\Source\Source\_Common\Data.h
; File C:\IAGOS\server\v18\Source\Source\_Common\FunnyCoin.cpp
; File C:\IAGOS\server\v18\Source\Source\_Common\Data.h
; File C:\IAGOS\server\v18\Source\Source\_Common\FunnyCoin.cpp
;	COMDAT ?InsertFunnyCoin@CFunnyCoinDbCtrl@@AAEHKKK@Z
_TEXT	SEGMENT
_dwPlayerId$ = 8					; size = 4
_dwItemId$ = 12						; size = 4
_dwSerialNumber$ = 16					; size = 4
?InsertFunnyCoin@CFunnyCoinDbCtrl@@AAEHKKK@Z PROC	; CFunnyCoinDbCtrl::InsertFunnyCoin, COMDAT
; _this$ = ecx

; 194  : {

  00000	55		 push	 ebp
  00001	8b ec		 mov	 ebp, esp
  00003	53		 push	 ebx
  00004	56		 push	 esi
; File C:\IAGOS\server\v18\Source\Source\_Common\Data.h

; 270  : 	if( dwIndex >= (DWORD)m_nMaxIndex )

  00005	8b 75 0c	 mov	 esi, DWORD PTR _dwItemId$[ebp]
; File C:\IAGOS\server\v18\Source\Source\_Common\FunnyCoin.cpp

; 194  : {

  00008	57		 push	 edi
; File C:\IAGOS\server\v18\Source\Source\_Common\Data.h

; 270  : 	if( dwIndex >= (DWORD)m_nMaxIndex )

  00009	3b 35 4c 00 00
	00		 cmp	 esi, DWORD PTR ?prj@@3VCProject@@A+76
  0000f	73 44		 jae	 SHORT $LN4@InsertFunn

; 271  : 		return NULL;
; 272  : 	return (T*) m_apOffset[ dwIndex ];

  00011	a1 3c 00 00 00	 mov	 eax, DWORD PTR ?prj@@3VCProject@@A+60
  00016	8b 04 b0	 mov	 eax, DWORD PTR [eax+esi*4]
; File C:\IAGOS\server\v18\Source\Source\_Common\FunnyCoin.cpp

; 196  : 	if( !pItemProp )

  00019	85 c0		 test	 eax, eax
  0001b	74 38		 je	 SHORT $LN4@InsertFunn

; 197  : 		return FC_DBFAILED;
; 198  : 	
; 199  : 	CQuery* pQuery = GetQueryObject();
; 200  : 	if( !pQuery->Execute( "usp_FunnyCoin_input '%02d', '%07d', %d, %d, %d", g_appInfo.dwSys, dwPlayerId, dwItemId, pItemProp->dwCost, dwSerialNumber ) )

  0001d	ff 75 10	 push	 DWORD PTR _dwSerialNumber$[ebp]
  00020	8b 5d 08	 mov	 ebx, DWORD PTR _dwPlayerId$[ebp]
  00023	ff b0 8c 00 00
	00		 push	 DWORD PTR [eax+140]
  00029	8b 79 0c	 mov	 edi, DWORD PTR [ecx+12]
  0002c	56		 push	 esi
  0002d	53		 push	 ebx
  0002e	ff 35 00 00 00
	00		 push	 DWORD PTR ?g_appInfo@@3UAppInfo@@A
  00034	68 00 00 00 00	 push	 OFFSET ??_C@_0CP@JCGMIKKD@usp_FunnyCoin_input?5?8?$CF02d?8?0?5?8?$CF0@
  00039	57		 push	 edi
  0003a	e8 00 00 00 00	 call	 ?Execute@CQuery@@QAAHPBDZZ ; CQuery::Execute
  0003f	83 c4 1c	 add	 esp, 28			; 0000001cH
  00042	85 c0		 test	 eax, eax
  00044	75 19		 jne	 SHORT $LN3@InsertFunn

; 201  : 	{
; 202  : 		Error( "Call \"usp_FunnyCoin_input\" FAILED! - %07d, %d", dwPlayerId, dwItemId );

  00046	56		 push	 esi
  00047	53		 push	 ebx
  00048	68 00 00 00 00	 push	 OFFSET ??_C@_0CO@EJCCPKJG@Call?5?$CCusp_FunnyCoin_input?$CC?5FAIL@
  0004d	e8 00 00 00 00	 call	 ?Error@@YAPBDPBDZZ	; Error
  00052	83 c4 0c	 add	 esp, 12			; 0000000cH
$LN4@InsertFunn:

; 213  : 		}
; 214  : 	}
; 215  : 	else
; 216  : 		return FC_DBFAILED;
; 217  : 
; 218  : 	// Ľş°ř Çß´Ů!!
; 219  : 	return FC_DBSUCCESS;
; 220  : }

  00055	5f		 pop	 edi
  00056	5e		 pop	 esi
  00057	83 c8 ff	 or	 eax, -1
  0005a	5b		 pop	 ebx
  0005b	5d		 pop	 ebp
  0005c	c2 0c 00	 ret	 12			; 0000000cH
$LN3@InsertFunn:

; 203  : 		return FC_DBFAILED;
; 204  : 	}
; 205  : 
; 206  : 	if( pQuery->Fetch() )

  0005f	8b cf		 mov	 ecx, edi
  00061	e8 00 00 00 00	 call	 ?Fetch@CQuery@@QAEHXZ	; CQuery::Fetch
  00066	85 c0		 test	 eax, eax
  00068	74 eb		 je	 SHORT $LN4@InsertFunn

; 207  : 	{
; 208  : 		int nResult = pQuery->GetInt( "result" );

  0006a	68 00 00 00 00	 push	 OFFSET ??_C@_06KJFADLGN@result@
  0006f	8b cf		 mov	 ecx, edi
  00071	e8 00 00 00 00	 call	 ?GetInt@CQuery@@QAEHPAD@Z ; CQuery::GetInt
  00076	8b f8		 mov	 edi, eax

; 209  : 		if( nResult != FC_DBSUCCESS )	// ˝ÇĆĐchipi	

  00078	83 ff 01	 cmp	 edi, 1
  0007b	74 1c		 je	 SHORT $LN6@InsertFunn

; 210  : 		{
; 211  : 			Error( "usp_FunnyCoin_input Result is Fail - ErrorCode : %d, %07d, %d, %d", nResult, dwPlayerId, dwItemId, dwSerialNumber );

  0007d	ff 75 10	 push	 DWORD PTR _dwSerialNumber$[ebp]
  00080	56		 push	 esi
  00081	53		 push	 ebx
  00082	57		 push	 edi
  00083	68 00 00 00 00	 push	 OFFSET ??_C@_0EC@OAKONONG@usp_FunnyCoin_input?5Result?5is?5F@
  00088	e8 00 00 00 00	 call	 ?Error@@YAPBDPBDZZ	; Error
  0008d	83 c4 14	 add	 esp, 20			; 00000014H

; 212  : 			return nResult;

  00090	8b c7		 mov	 eax, edi
  00092	5f		 pop	 edi

; 213  : 		}
; 214  : 	}
; 215  : 	else
; 216  : 		return FC_DBFAILED;
; 217  : 
; 218  : 	// Ľş°ř Çß´Ů!!
; 219  : 	return FC_DBSUCCESS;
; 220  : }

  00093	5e		 pop	 esi
  00094	5b		 pop	 ebx
  00095	5d		 pop	 ebp
  00096	c2 0c 00	 ret	 12			; 0000000cH
$LN6@InsertFunn:
  00099	5f		 pop	 edi
  0009a	5e		 pop	 esi
  0009b	b8 01 00 00 00	 mov	 eax, 1
  000a0	5b		 pop	 ebx
  000a1	5d		 pop	 ebp
  000a2	c2 0c 00	 ret	 12			; 0000000cH
?InsertFunnyCoin@CFunnyCoinDbCtrl@@AAEHKKK@Z ENDP	; CFunnyCoinDbCtrl::InsertFunnyCoin
_TEXT	ENDS
; Function compile flags: /Ogtp
; File C:\IAGOS\server\v18\Source\Source\_Common\FunnyCoin.cpp
;	COMDAT ?Handler@CFunnyCoinDbCtrl@@UAEXPAUtagDB_OVERLAPPED_PLUS@@K@Z
_TEXT	SEGMENT
_this$GSCopy$1$ = -16436				; size = 4
_dwPlayerId$2 = -16432					; size = 4
_dwItemId$3 = -16428					; size = 4
_dwSerialNumber$4 = -16424				; size = 4
_ar$5 = -16420						; size = 16404
__$ArrayPad$ = -16					; size = 4
__$EHRec$ = -12						; size = 12
_pov$ = 8						; size = 4
_dwCompletionKey$ = 12					; size = 4
?Handler@CFunnyCoinDbCtrl@@UAEXPAUtagDB_OVERLAPPED_PLUS@@K@Z PROC ; CFunnyCoinDbCtrl::Handler, COMDAT
; _this$ = ecx

; 171  : {

  00000	55		 push	 ebp
  00001	8b ec		 mov	 ebp, esp
  00003	6a ff		 push	 -1
  00005	68 00 00 00 00	 push	 __ehhandler$?Handler@CFunnyCoinDbCtrl@@UAEXPAUtagDB_OVERLAPPED_PLUS@@K@Z
  0000a	64 a1 00 00 00
	00		 mov	 eax, DWORD PTR fs:0
  00010	50		 push	 eax
  00011	b8 28 40 00 00	 mov	 eax, 16424		; 00004028H
  00016	e8 00 00 00 00	 call	 __chkstk
  0001b	a1 00 00 00 00	 mov	 eax, DWORD PTR ___security_cookie
  00020	33 c5		 xor	 eax, ebp
  00022	89 45 f0	 mov	 DWORD PTR __$ArrayPad$[ebp], eax
  00025	50		 push	 eax
  00026	8d 45 f4	 lea	 eax, DWORD PTR __$EHRec$[ebp]
  00029	64 a3 00 00 00
	00		 mov	 DWORD PTR fs:0, eax
  0002f	89 8d cc bf ff
	ff		 mov	 DWORD PTR _this$GSCopy$1$[ebp], ecx
  00035	8b 45 08	 mov	 eax, DWORD PTR _pov$[ebp]

; 172  : 	switch( pov->nQueryMode )

  00038	83 78 14 00	 cmp	 DWORD PTR [eax+20], 0
  0003c	0f 85 94 00 00
	00		 jne	 $LN5@Handler

; 173  : 	{
; 174  : 		case FC_USE:
; 175  : 			{
; 176  : 				DWORD dwPlayerId, dwItemId;
; 177  : 				SERIALNUMBER dwSerialNumber;
; 178  : 
; 179  : 				CAr ar( pov->lpBuf, pov->uBufSize );

  00042	ff 70 1c	 push	 DWORD PTR [eax+28]
  00045	8d 8d dc bf ff
	ff		 lea	 ecx, DWORD PTR _ar$5[ebp]
  0004b	ff 70 18	 push	 DWORD PTR [eax+24]
  0004e	e8 00 00 00 00	 call	 ??0CAr@@QAE@PAXI@Z	; CAr::CAr

; 180  : 				ar >> dwPlayerId;

  00053	8d 85 d0 bf ff
	ff		 lea	 eax, DWORD PTR _dwPlayerId$2[ebp]
  00059	c7 45 fc 00 00
	00 00		 mov	 DWORD PTR __$EHRec$[ebp+8], 0
  00060	50		 push	 eax
  00061	8d 8d dc bf ff
	ff		 lea	 ecx, DWORD PTR _ar$5[ebp]
  00067	e8 00 00 00 00	 call	 ??$?5K@CAr@@QAEAAV0@AAK@Z ; CAr::operator>><unsigned long>

; 181  : 				ar >> dwItemId >> dwSerialNumber;

  0006c	8d 85 d8 bf ff
	ff		 lea	 eax, DWORD PTR _dwSerialNumber$4[ebp]
  00072	50		 push	 eax
  00073	8d 85 d4 bf ff
	ff		 lea	 eax, DWORD PTR _dwItemId$3[ebp]
  00079	50		 push	 eax
  0007a	8d 8d dc bf ff
	ff		 lea	 ecx, DWORD PTR _ar$5[ebp]
  00080	e8 00 00 00 00	 call	 ??$?5K@CAr@@QAEAAV0@AAK@Z ; CAr::operator>><unsigned long>
  00085	8b c8		 mov	 ecx, eax
  00087	e8 00 00 00 00	 call	 ??$?5K@CAr@@QAEAAV0@AAK@Z ; CAr::operator>><unsigned long>

; 182  : 
; 183  : 				int nResult = InsertFunnyCoin( dwPlayerId, dwItemId, dwSerialNumber );

  0008c	ff b5 d8 bf ff
	ff		 push	 DWORD PTR _dwSerialNumber$4[ebp]
  00092	8b 8d cc bf ff
	ff		 mov	 ecx, DWORD PTR _this$GSCopy$1$[ebp]
  00098	ff b5 d4 bf ff
	ff		 push	 DWORD PTR _dwItemId$3[ebp]
  0009e	ff b5 d0 bf ff
	ff		 push	 DWORD PTR _dwPlayerId$2[ebp]
  000a4	e8 00 00 00 00	 call	 ?InsertFunnyCoin@CFunnyCoinDbCtrl@@AAEHKKK@Z ; CFunnyCoinDbCtrl::InsertFunnyCoin

; 184  : 				CDPTrans::GetInstance()->SendFunnyCoinAckUse( dwPlayerId, dwItemId, dwSerialNumber, nResult, dwCompletionKey );

  000a9	ff 75 0c	 push	 DWORD PTR _dwCompletionKey$[ebp]
  000ac	50		 push	 eax
  000ad	ff b5 d8 bf ff
	ff		 push	 DWORD PTR _dwSerialNumber$4[ebp]
  000b3	ff b5 d4 bf ff
	ff		 push	 DWORD PTR _dwItemId$3[ebp]
  000b9	ff b5 d0 bf ff
	ff		 push	 DWORD PTR _dwPlayerId$2[ebp]
  000bf	e8 00 00 00 00	 call	 ?GetInstance@CDPTrans@@SAPAV1@XZ ; CDPTrans::GetInstance
  000c4	8b c8		 mov	 ecx, eax
  000c6	e8 00 00 00 00	 call	 ?SendFunnyCoinAckUse@CDPTrans@@QAEXKKKHK@Z ; CDPTrans::SendFunnyCoinAckUse

; 185  : 			}

  000cb	8d 8d dc bf ff
	ff		 lea	 ecx, DWORD PTR _ar$5[ebp]
  000d1	e8 00 00 00 00	 call	 ??1CAr@@QAE@XZ		; CAr::~CAr
$LN5@Handler:

; 186  : 			break;
; 187  : 	
; 188  : 		default:
; 189  : 			break;
; 190  : 	}
; 191  : }

  000d6	8b 4d f4	 mov	 ecx, DWORD PTR __$EHRec$[ebp]
  000d9	64 89 0d 00 00
	00 00		 mov	 DWORD PTR fs:0, ecx
  000e0	59		 pop	 ecx
  000e1	8b 4d f0	 mov	 ecx, DWORD PTR __$ArrayPad$[ebp]
  000e4	33 cd		 xor	 ecx, ebp
  000e6	e8 00 00 00 00	 call	 @__security_check_cookie@4
  000eb	8b e5		 mov	 esp, ebp
  000ed	5d		 pop	 ebp
  000ee	c2 08 00	 ret	 8
_TEXT	ENDS
;	COMDAT text$x
text$x	SEGMENT
__unwindfunclet$?Handler@CFunnyCoinDbCtrl@@UAEXPAUtagDB_OVERLAPPED_PLUS@@K@Z$0:
  00000	8d 8d dc bf ff
	ff		 lea	 ecx, DWORD PTR _ar$5[ebp]
  00006	e9 00 00 00 00	 jmp	 ??1CAr@@QAE@XZ		; CAr::~CAr
  0000b	cc		 int	 3
  0000c	cc		 int	 3
  0000d	cc		 int	 3
  0000e	cc		 int	 3
  0000f	cc		 int	 3
__ehhandler$?Handler@CFunnyCoinDbCtrl@@UAEXPAUtagDB_OVERLAPPED_PLUS@@K@Z:
  00010	90		 npad	 1
  00011	90		 npad	 1
  00012	8b 54 24 08	 mov	 edx, DWORD PTR [esp+8]
  00016	8d 42 0c	 lea	 eax, DWORD PTR [edx+12]
  00019	8b 8a d4 bf ff
	ff		 mov	 ecx, DWORD PTR [edx-16428]
  0001f	33 c8		 xor	 ecx, eax
  00021	e8 00 00 00 00	 call	 @__security_check_cookie@4
  00026	8b 4a fc	 mov	 ecx, DWORD PTR [edx-4]
  00029	33 c8		 xor	 ecx, eax
  0002b	e8 00 00 00 00	 call	 @__security_check_cookie@4
  00030	b8 00 00 00 00	 mov	 eax, OFFSET __ehfuncinfo$?Handler@CFunnyCoinDbCtrl@@UAEXPAUtagDB_OVERLAPPED_PLUS@@K@Z
  00035	e9 00 00 00 00	 jmp	 ___CxxFrameHandler3
text$x	ENDS
?Handler@CFunnyCoinDbCtrl@@UAEXPAUtagDB_OVERLAPPED_PLUS@@K@Z ENDP ; CFunnyCoinDbCtrl::Handler
; Function compile flags: /Ogtp
; File C:\IAGOS\server\v18\Source\Source\_Common\FunnyCoin.cpp
;	COMDAT ??1CFunnyCoinDbCtrl@@UAE@XZ
_TEXT	SEGMENT
??1CFunnyCoinDbCtrl@@UAE@XZ PROC			; CFunnyCoinDbCtrl::~CFunnyCoinDbCtrl, COMDAT
; _this$ = ecx

; 167  : {

  00000	c7 01 00 00 00
	00		 mov	 DWORD PTR [ecx], OFFSET ??_7CFunnyCoinDbCtrl@@6B@

; 168  : }

  00006	e9 00 00 00 00	 jmp	 ??1CDbController@@UAE@XZ ; CDbController::~CDbController
??1CFunnyCoinDbCtrl@@UAE@XZ ENDP			; CFunnyCoinDbCtrl::~CFunnyCoinDbCtrl
_TEXT	ENDS
; Function compile flags: /Ogtp
; File C:\IAGOS\server\v18\Source\Source\_Common\FunnyCoin.cpp
;	COMDAT ??0CFunnyCoinDbCtrl@@QAE@XZ
_TEXT	SEGMENT
_this$ = -4						; size = 4
??0CFunnyCoinDbCtrl@@QAE@XZ PROC			; CFunnyCoinDbCtrl::CFunnyCoinDbCtrl, COMDAT
; _this$ = ecx

; 163  : {

  00000	55		 push	 ebp
  00001	8b ec		 mov	 ebp, esp
  00003	51		 push	 ecx
  00004	56		 push	 esi
  00005	8b f1		 mov	 esi, ecx
  00007	89 75 fc	 mov	 DWORD PTR _this$[ebp], esi
  0000a	e8 00 00 00 00	 call	 ??0CDbController@@QAE@XZ ; CDbController::CDbController
  0000f	c7 06 00 00 00
	00		 mov	 DWORD PTR [esi], OFFSET ??_7CFunnyCoinDbCtrl@@6B@

; 164  : }

  00015	8b c6		 mov	 eax, esi
  00017	5e		 pop	 esi
  00018	8b e5		 mov	 esp, ebp
  0001a	5d		 pop	 ebp
  0001b	c3		 ret	 0
??0CFunnyCoinDbCtrl@@QAE@XZ ENDP			; CFunnyCoinDbCtrl::CFunnyCoinDbCtrl
_TEXT	ENDS
; Function compile flags: /Ogtp
; File C:\IAGOS\server\v18\Source\Source\DatabaseServer\dbcontroller.h
;	COMDAT ?OnTimer@CDbController@@UAEXXZ
_TEXT	SEGMENT
?OnTimer@CDbController@@UAEXXZ PROC			; CDbController::OnTimer, COMDAT
; _this$ = ecx

; 26   : 	virtual void	OnTimer()	{}

  00000	c2 00 00	 ret	 0
?OnTimer@CDbController@@UAEXXZ ENDP			; CDbController::OnTimer
_TEXT	ENDS
; Function compile flags: /Ogtp
; File C:\IAGOS\server\v18\Source\Source\_Common\FunnyCoin.cpp
;	COMDAT ?__empty_global_delete@@YAXPAXI@Z
_TEXT	SEGMENT
___formal$ = 8						; size = 4
___formal$ = 12						; size = 4
?__empty_global_delete@@YAXPAXI@Z PROC			; __empty_global_delete, COMDAT

  00000	c2 00 00	 ret	 0
?__empty_global_delete@@YAXPAXI@Z ENDP			; __empty_global_delete
_TEXT	ENDS
; Function compile flags: /Ogtp
; File C:\IAGOS\server\v18\Source\Source\_Common\FunnyCoin.cpp
;	COMDAT ?__empty_global_delete@@YAXPAX@Z
_TEXT	SEGMENT
___formal$ = 8						; size = 4
?__empty_global_delete@@YAXPAX@Z PROC			; __empty_global_delete, COMDAT

  00000	c2 00 00	 ret	 0
?__empty_global_delete@@YAXPAX@Z ENDP			; __empty_global_delete
_TEXT	ENDS
END
