; Listing generated by Microsoft (R) Optimizing Compiler Version 19.44.35225.0 

	TITLE	C:\IAGOS\server\v18\Source\Output\DatabaseServer\Release\GuildHouse.obj
	.686P
	.XMM
	include listing.inc
	.model	flat

INCLUDELIB LIBCMT
INCLUDELIB OLDNAMES

PUBLIC	?__empty_global_delete@@YAXPAX@Z		; __empty_global_delete
PUBLIC	?__empty_global_delete@@YAXPAXI@Z		; __empty_global_delete
PUBLIC	??0exception@std@@QAE@ABV01@@Z			; std::exception::exception
PUBLIC	??1exception@std@@UAE@XZ			; std::exception::~exception
PUBLIC	?what@exception@std@@UBEPBDXZ			; std::exception::what
PUBLIC	??_Gexception@std@@UAEPAXI@Z			; std::exception::`scalar deleting destructor'
PUBLIC	??0bad_alloc@std@@QAE@ABV01@@Z			; std::bad_alloc::bad_alloc
PUBLIC	??_Gbad_alloc@std@@UAEPAXI@Z			; std::bad_alloc::`scalar deleting destructor'
PUBLIC	??0bad_array_new_length@std@@QAE@XZ		; std::bad_array_new_length::bad_array_new_length
PUBLIC	??1bad_array_new_length@std@@UAE@XZ		; std::bad_array_new_length::~bad_array_new_length
PUBLIC	??0bad_array_new_length@std@@QAE@ABV01@@Z	; std::bad_array_new_length::bad_array_new_length
PUBLIC	??_Gbad_array_new_length@std@@UAEPAXI@Z		; std::bad_array_new_length::`scalar deleting destructor'
PUBLIC	?_Throw_bad_array_new_length@std@@YAXXZ		; std::_Throw_bad_array_new_length
PUBLIC	?_Throw_tree_length_error@std@@YAXXZ		; std::_Throw_tree_length_error
PUBLIC	??$_Allocate_manually_vector_aligned@U_Default_allocate_traits@std@@@std@@YAPAXI@Z ; std::_Allocate_manually_vector_aligned<std::_Default_allocate_traits>
PUBLIC	??0GuildHouse_Furniture_Info@CGuildHouseBase@@QAE@KHUD3DXVECTOR3@@MJ@Z ; CGuildHouseBase::GuildHouse_Furniture_Info::GuildHouse_Furniture_Info
PUBLIC	?Serialize@GuildHouse_Furniture_Info@CGuildHouseBase@@QAEXAAVCAr@@@Z ; CGuildHouseBase::GuildHouse_Furniture_Info::Serialize
PUBLIC	??1?$vector@UGuildHouse_Furniture_Info@CGuildHouseBase@@V?$allocator@UGuildHouse_Furniture_Info@CGuildHouseBase@@@std@@@std@@QAE@XZ ; std::vector<CGuildHouseBase::GuildHouse_Furniture_Info,std::allocator<CGuildHouseBase::GuildHouse_Furniture_Info> >::~vector<CGuildHouseBase::GuildHouse_Furniture_Info,std::allocator<CGuildHouseBase::GuildHouse_Furniture_Info> >
PUBLIC	?_Change_array@?$vector@UGuildHouse_Furniture_Info@CGuildHouseBase@@V?$allocator@UGuildHouse_Furniture_Info@CGuildHouseBase@@@std@@@std@@AAEXQAUGuildHouse_Furniture_Info@CGuildHouseBase@@II@Z ; std::vector<CGuildHouseBase::GuildHouse_Furniture_Info,std::allocator<CGuildHouseBase::GuildHouse_Furniture_Info> >::_Change_array
PUBLIC	?_Xlength@?$vector@UGuildHouse_Furniture_Info@CGuildHouseBase@@V?$allocator@UGuildHouse_Furniture_Info@CGuildHouseBase@@@std@@@std@@CAXXZ ; std::vector<CGuildHouseBase::GuildHouse_Furniture_Info,std::allocator<CGuildHouseBase::GuildHouse_Furniture_Info> >::_Xlength
PUBLIC	??0CGuildHouseBase@@QAE@KK@Z			; CGuildHouseBase::CGuildHouseBase
PUBLIC	??1CGuildHouseBase@@UAE@XZ			; CGuildHouseBase::~CGuildHouseBase
PUBLIC	?Clear@CGuildHouseBase@@QAEXXZ			; CGuildHouseBase::Clear
PUBLIC	?OnGuildHousePacket@CGuildHouseBase@@QAEHHAAUGuildHouse_Furniture_Info@1@H@Z ; CGuildHouseBase::OnGuildHousePacket
PUBLIC	?SerializeAllInfo@CGuildHouseBase@@QAEXAAVCAr@@@Z ; CGuildHouseBase::SerializeAllInfo
PUBLIC	?ExpiredGuildHouse@CGuildHouseBase@@QAEHXZ	; CGuildHouseBase::ExpiredGuildHouse
PUBLIC	?SetupFurnitureCtrl@CGuildHouseBase@@AAEHHAAUGuildHouse_Furniture_Info@1@@Z ; CGuildHouseBase::SetupFurnitureCtrl
PUBLIC	?RemoveFurnitureCtrl@CGuildHouseBase@@AAEHHAAUGuildHouse_Furniture_Info@1@@Z ; CGuildHouseBase::RemoveFurnitureCtrl
PUBLIC	?ResetFurnitureCtrl@CGuildHouseBase@@AAEHHAAUGuildHouse_Furniture_Info@1@@Z ; CGuildHouseBase::ResetFurnitureCtrl
PUBLIC	?ListUpFurniture@CGuildHouseBase@@AAEHAAUGuildHouse_Furniture_Info@1@@Z ; CGuildHouseBase::ListUpFurniture
PUBLIC	?ListDropFurniture@CGuildHouseBase@@AAEHH@Z	; CGuildHouseBase::ListDropFurniture
PUBLIC	?GetFirstExpiredFurnitureIndex@CGuildHouseBase@@QAEHXZ ; CGuildHouseBase::GetFirstExpiredFurnitureIndex
PUBLIC	??_GCGuildHouseBase@@UAEPAXI@Z			; CGuildHouseBase::`scalar deleting destructor'
PUBLIC	??0CGuildHouseSmall@@QAE@K@Z			; CGuildHouseSmall::CGuildHouseSmall
PUBLIC	??1CGuildHouseSmall@@UAE@XZ			; CGuildHouseSmall::~CGuildHouseSmall
PUBLIC	?GetTeleporterPos@CGuildHouseSmall@@UAE?AUD3DXVECTOR3@@XZ ; CGuildHouseSmall::GetTeleporterPos
PUBLIC	??_GCGuildHouseSmall@@UAEPAXI@Z			; CGuildHouseSmall::`scalar deleting destructor'
PUBLIC	??0CGuildHouseMiddle@@QAE@K@Z			; CGuildHouseMiddle::CGuildHouseMiddle
PUBLIC	??1CGuildHouseMiddle@@UAE@XZ			; CGuildHouseMiddle::~CGuildHouseMiddle
PUBLIC	?GetTeleporterPos@CGuildHouseMiddle@@UAE?AUD3DXVECTOR3@@XZ ; CGuildHouseMiddle::GetTeleporterPos
PUBLIC	??_GCGuildHouseMiddle@@UAEPAXI@Z		; CGuildHouseMiddle::`scalar deleting destructor'
PUBLIC	??0CGuildHouseMng@@QAE@XZ			; CGuildHouseMng::CGuildHouseMng
PUBLIC	??1CGuildHouseMng@@QAE@XZ			; CGuildHouseMng::~CGuildHouseMng
PUBLIC	?GetInstance@CGuildHouseMng@@SAPAV1@XZ		; CGuildHouseMng::GetInstance
PUBLIC	?MakeGuildHouse@CGuildHouseMng@@QAEPAVCGuildHouseBase@@KK@Z ; CGuildHouseMng::MakeGuildHouse
PUBLIC	?RemoveGuildHouse@CGuildHouseMng@@QAEHK@Z	; CGuildHouseMng::RemoveGuildHouse
PUBLIC	?GetGuildHouse@CGuildHouseMng@@QAEPAVCGuildHouseBase@@K@Z ; CGuildHouseMng::GetGuildHouse
PUBLIC	?Serialize@CGuildHouseMng@@QAEXAAVCAr@@@Z	; CGuildHouseMng::Serialize
PUBLIC	?ProcessExpired@CGuildHouseMng@@QAEXXZ		; CGuildHouseMng::ProcessExpired
PUBLIC	?DBLoadGuildHouse@CGuildHouseMng@@QAEHPAVCQuery@@@Z ; CGuildHouseMng::DBLoadGuildHouse
PUBLIC	??1?$_Tree@V?$_Tmap_traits@KPAVCGuildHouseBase@@U?$less@K@std@@V?$allocator@U?$pair@$$CBKPAVCGuildHouseBase@@@std@@@3@$0A@@std@@@std@@QAE@XZ ; std::_Tree<std::_Tmap_traits<unsigned long,CGuildHouseBase *,std::less<unsigned long>,std::allocator<std::pair<unsigned long const ,CGuildHouseBase *> >,0> >::~_Tree<std::_Tmap_traits<unsigned long,CGuildHouseBase *,std::less<unsigned long>,std::allocator<std::pair<unsigned long const ,CGuildHouseBase *> >,0> >
PUBLIC	?clear@?$_Tree@V?$_Tmap_traits@KPAVCGuildHouseBase@@U?$less@K@std@@V?$allocator@U?$pair@$$CBKPAVCGuildHouseBase@@@std@@@3@$0A@@std@@@std@@QAEXXZ ; std::_Tree<std::_Tmap_traits<unsigned long,CGuildHouseBase *,std::less<unsigned long>,std::allocator<std::pair<unsigned long const ,CGuildHouseBase *> >,0> >::clear
PUBLIC	?_Lrotate@?$_Tree_val@U?$_Tree_simple_types@U?$pair@$$CBKPAVCGuildHouseBase@@@std@@@std@@@std@@QAEXPAU?$_Tree_node@U?$pair@$$CBKPAVCGuildHouseBase@@@std@@PAX@2@@Z ; std::_Tree_val<std::_Tree_simple_types<std::pair<unsigned long const ,CGuildHouseBase *> > >::_Lrotate
PUBLIC	?_Rrotate@?$_Tree_val@U?$_Tree_simple_types@U?$pair@$$CBKPAVCGuildHouseBase@@@std@@@std@@@std@@QAEXPAU?$_Tree_node@U?$pair@$$CBKPAVCGuildHouseBase@@@std@@PAX@2@@Z ; std::_Tree_val<std::_Tree_simple_types<std::pair<unsigned long const ,CGuildHouseBase *> > >::_Rrotate
PUBLIC	?_Extract@?$_Tree_val@U?$_Tree_simple_types@U?$pair@$$CBKPAVCGuildHouseBase@@@std@@@std@@@std@@QAEPAU?$_Tree_node@U?$pair@$$CBKPAVCGuildHouseBase@@@std@@PAX@2@V?$_Tree_unchecked_const_iterator@V?$_Tree_val@U?$_Tree_simple_types@U?$pair@$$CBKPAVCGuildHouseBase@@@std@@@std@@@std@@U_Iterator_base0@2@@2@@Z ; std::_Tree_val<std::_Tree_simple_types<std::pair<unsigned long const ,CGuildHouseBase *> > >::_Extract
PUBLIC	?_Insert_node@?$_Tree_val@U?$_Tree_simple_types@U?$pair@$$CBKPAVCGuildHouseBase@@@std@@@std@@@std@@QAEPAU?$_Tree_node@U?$pair@$$CBKPAVCGuildHouseBase@@@std@@PAX@2@U?$_Tree_id@PAU?$_Tree_node@U?$pair@$$CBKPAVCGuildHouseBase@@@std@@PAX@std@@@2@QAU32@@Z ; std::_Tree_val<std::_Tree_simple_types<std::pair<unsigned long const ,CGuildHouseBase *> > >::_Insert_node
PUBLIC	??E?$_Tree_unchecked_const_iterator@V?$_Tree_val@U?$_Tree_simple_types@U?$pair@$$CBKPAVCGuildHouseBase@@@std@@@std@@@std@@U_Iterator_base0@2@@std@@QAEAAV01@XZ ; std::_Tree_unchecked_const_iterator<std::_Tree_val<std::_Tree_simple_types<std::pair<unsigned long const ,CGuildHouseBase *> > >,std::_Iterator_base0>::operator++
PUBLIC	??$?6K@CAr@@QAEAAV0@ABK@Z			; CAr::operator<<<unsigned long>
PUBLIC	??$?6H@CAr@@QAEAAV0@ABH@Z			; CAr::operator<<<int>
PUBLIC	??$?6UD3DXVECTOR3@@@CAr@@QAEAAV0@ABUD3DXVECTOR3@@@Z ; CAr::operator<<<D3DXVECTOR3>
PUBLIC	??$?6M@CAr@@QAEAAV0@ABM@Z			; CAr::operator<<<float>
PUBLIC	??$?6J@CAr@@QAEAAV0@ABJ@Z			; CAr::operator<<<long>
PUBLIC	??$?5K@CAr@@QAEAAV0@AAK@Z			; CAr::operator>><unsigned long>
PUBLIC	??$?5H@CAr@@QAEAAV0@AAH@Z			; CAr::operator>><int>
PUBLIC	??$?5UD3DXVECTOR3@@@CAr@@QAEAAV0@AAUD3DXVECTOR3@@@Z ; CAr::operator>><D3DXVECTOR3>
PUBLIC	??$?5M@CAr@@QAEAAV0@AAM@Z			; CAr::operator>><float>
PUBLIC	??$?5J@CAr@@QAEAAV0@AAJ@Z			; CAr::operator>><long>
PUBLIC	??$?6I@CAr@@QAEAAV0@ABI@Z			; CAr::operator<<<unsigned int>
PUBLIC	??$?6W4<unnamed-enum-GUILDHOUSE_PCKTTYPE_LISTUP>@@@CAr@@QAEAAV0@ABW4<unnamed-enum-GUILDHOUSE_PCKTTYPE_LISTUP>@@@Z ; CAr::operator<<<enum <unnamed-enum-GUILDHOUSE_PCKTTYPE_LISTUP> >
PUBLIC	??$_Erase_tree@V?$allocator@U?$_Tree_node@U?$pair@$$CBKPAVCGuildHouseBase@@@std@@PAX@std@@@std@@@?$_Tree_val@U?$_Tree_simple_types@U?$pair@$$CBKPAVCGuildHouseBase@@@std@@@std@@@std@@QAEXAAV?$allocator@U?$_Tree_node@U?$pair@$$CBKPAVCGuildHouseBase@@@std@@PAX@std@@@1@PAU?$_Tree_node@U?$pair@$$CBKPAVCGuildHouseBase@@@std@@PAX@1@@Z ; std::_Tree_val<std::_Tree_simple_types<std::pair<unsigned long const ,CGuildHouseBase *> > >::_Erase_tree<std::allocator<std::_Tree_node<std::pair<unsigned long const ,CGuildHouseBase *>,void *> > >
PUBLIC	??$_Resize@U_Value_init_tag@std@@@?$vector@UGuildHouse_Furniture_Info@CGuildHouseBase@@V?$allocator@UGuildHouse_Furniture_Info@CGuildHouseBase@@@std@@@std@@AAEXIABU_Value_init_tag@1@@Z ; std::vector<CGuildHouseBase::GuildHouse_Furniture_Info,std::allocator<CGuildHouseBase::GuildHouse_Furniture_Info> >::_Resize<std::_Value_init_tag>
PUBLIC	??$_Find_lower_bound@K@?$_Tree@V?$_Tmap_traits@KPAVCGuildHouseBase@@U?$less@K@std@@V?$allocator@U?$pair@$$CBKPAVCGuildHouseBase@@@std@@@3@$0A@@std@@@std@@IBE?AU?$_Tree_find_result@PAU?$_Tree_node@U?$pair@$$CBKPAVCGuildHouseBase@@@std@@PAX@std@@@1@ABK@Z ; std::_Tree<std::_Tmap_traits<unsigned long,CGuildHouseBase *,std::less<unsigned long>,std::allocator<std::pair<unsigned long const ,CGuildHouseBase *> >,0> >::_Find_lower_bound<unsigned long>
PUBLIC	??$_Copy_memmove@PAUGuildHouse_Furniture_Info@CGuildHouseBase@@PAU12@@std@@YAPAUGuildHouse_Furniture_Info@CGuildHouseBase@@PAU12@00@Z ; std::_Copy_memmove<CGuildHouseBase::GuildHouse_Furniture_Info *,CGuildHouseBase::GuildHouse_Furniture_Info *>
PUBLIC	??$_Uninitialized_value_construct_n@V?$allocator@UGuildHouse_Furniture_Info@CGuildHouseBase@@@std@@@std@@YAPAUGuildHouse_Furniture_Info@CGuildHouseBase@@PAU12@IAAV?$allocator@UGuildHouse_Furniture_Info@CGuildHouseBase@@@0@@Z ; std::_Uninitialized_value_construct_n<std::allocator<CGuildHouseBase::GuildHouse_Furniture_Info> >
PUBLIC	??$_Emplace_reallocate@ABUGuildHouse_Furniture_Info@CGuildHouseBase@@@?$vector@UGuildHouse_Furniture_Info@CGuildHouseBase@@V?$allocator@UGuildHouse_Furniture_Info@CGuildHouseBase@@@std@@@std@@AAEPAUGuildHouse_Furniture_Info@CGuildHouseBase@@QAU23@ABU23@@Z ; std::vector<CGuildHouseBase::GuildHouse_Furniture_Info,std::allocator<CGuildHouseBase::GuildHouse_Furniture_Info> >::_Emplace_reallocate<CGuildHouseBase::GuildHouse_Furniture_Info const &>
PUBLIC	??1?$_Alloc_construct_ptr@V?$allocator@U?$_Tree_node@U?$pair@$$CBKPAVCGuildHouseBase@@@std@@PAX@std@@@std@@@std@@QAE@XZ ; std::_Alloc_construct_ptr<std::allocator<std::_Tree_node<std::pair<unsigned long const ,CGuildHouseBase *>,void *> > >::~_Alloc_construct_ptr<std::allocator<std::_Tree_node<std::pair<unsigned long const ,CGuildHouseBase *>,void *> > >
PUBLIC	??$_Copy_memmove_tail@PAUGuildHouse_Furniture_Info@CGuildHouseBase@@@std@@YAPAUGuildHouse_Furniture_Info@CGuildHouseBase@@QBDQAU12@II@Z ; std::_Copy_memmove_tail<CGuildHouseBase::GuildHouse_Furniture_Info *>
PUBLIC	??_7exception@std@@6B@				; std::exception::`vftable'
PUBLIC	??_C@_0BC@EOODALEL@Unknown?5exception@		; `string'
PUBLIC	??_7bad_alloc@std@@6B@				; std::bad_alloc::`vftable'
PUBLIC	??_7bad_array_new_length@std@@6B@		; std::bad_array_new_length::`vftable'
PUBLIC	??_C@_0BF@KINCDENJ@bad?5array?5new?5length@	; `string'
PUBLIC	??_R0?AVexception@std@@@8			; std::exception `RTTI Type Descriptor'
PUBLIC	__CT??_R0?AVexception@std@@@8??0exception@std@@QAE@ABV01@@Z12
PUBLIC	__TI3?AVbad_array_new_length@std@@
PUBLIC	__CTA3?AVbad_array_new_length@std@@
PUBLIC	??_R0?AVbad_array_new_length@std@@@8		; std::bad_array_new_length `RTTI Type Descriptor'
PUBLIC	__CT??_R0?AVbad_array_new_length@std@@@8??0bad_array_new_length@std@@QAE@ABV01@@Z12
PUBLIC	??_R0?AVbad_alloc@std@@@8			; std::bad_alloc `RTTI Type Descriptor'
PUBLIC	__CT??_R0?AVbad_alloc@std@@@8??0bad_alloc@std@@QAE@ABV01@@Z12
PUBLIC	??_C@_0BB@GCADKGJO@map?1set?5too?5long@		; `string'
PUBLIC	??_C@_0BA@FOIKENOD@vector?5too?5long@		; `string'
PUBLIC	??_R4exception@std@@6B@				; std::exception::`RTTI Complete Object Locator'
PUBLIC	??_R3exception@std@@8				; std::exception::`RTTI Class Hierarchy Descriptor'
PUBLIC	??_R2exception@std@@8				; std::exception::`RTTI Base Class Array'
PUBLIC	??_R1A@?0A@EA@exception@std@@8			; std::exception::`RTTI Base Class Descriptor at (0,-1,0,64)'
PUBLIC	??_R4bad_array_new_length@std@@6B@		; std::bad_array_new_length::`RTTI Complete Object Locator'
PUBLIC	??_R3bad_array_new_length@std@@8		; std::bad_array_new_length::`RTTI Class Hierarchy Descriptor'
PUBLIC	??_R2bad_array_new_length@std@@8		; std::bad_array_new_length::`RTTI Base Class Array'
PUBLIC	??_R1A@?0A@EA@bad_array_new_length@std@@8	; std::bad_array_new_length::`RTTI Base Class Descriptor at (0,-1,0,64)'
PUBLIC	??_R1A@?0A@EA@bad_alloc@std@@8			; std::bad_alloc::`RTTI Base Class Descriptor at (0,-1,0,64)'
PUBLIC	??_R3bad_alloc@std@@8				; std::bad_alloc::`RTTI Class Hierarchy Descriptor'
PUBLIC	??_R2bad_alloc@std@@8				; std::bad_alloc::`RTTI Base Class Array'
PUBLIC	??_R4bad_alloc@std@@6B@				; std::bad_alloc::`RTTI Complete Object Locator'
PUBLIC	??_7CGuildHouseBase@@6B@			; CGuildHouseBase::`vftable'
PUBLIC	??_7CGuildHouseSmall@@6B@			; CGuildHouseSmall::`vftable'
PUBLIC	??_7CGuildHouseMiddle@@6B@			; CGuildHouseMiddle::`vftable'
PUBLIC	??_C@_0BN@EFGJIHNF@usp_GuildHouse_MaxSEQ?5?8?$CF02d?8@ ; `string'
PUBLIC	??_C@_03NCPCKDJB@SEQ@				; `string'
PUBLIC	??_C@_0BL@KLBKELLI@usp_GuildHouse_Load?5?8?$CF02d?8@ ; `string'
PUBLIC	??_C@_09MHDEIN@m_idGuild@			; `string'
PUBLIC	??_C@_09DHJEDBNA@dwWorldID@			; `string'
PUBLIC	??_C@_09CGIPPJPO@tKeepTime@			; `string'
PUBLIC	??_C@_0EO@OANJGIDM@CGuildHouseMng?3?3DBLoadGuildHous@ ; `string'
PUBLIC	??_C@_0CI@JAMDLPN@usp_GuildFurniture_Load?5?5?8?$CF02d?8@ ; `string'
PUBLIC	??_C@_09LCBEKCCJ@ItemIndex@			; `string'
PUBLIC	??_C@_06DMCKBLKP@bSetup@			; `string'
PUBLIC	??_C@_05JPJLCAGA@x_Pos@				; `string'
PUBLIC	??_C@_05FEMHPDMF@y_Pos@				; `string'
PUBLIC	??_C@_05NCFDIBGL@z_Pos@				; `string'
PUBLIC	??_C@_06JHEFCLKH@fAngle@			; `string'
PUBLIC	??_R4CGuildHouseBase@@6B@			; CGuildHouseBase::`RTTI Complete Object Locator'
PUBLIC	??_R0?AVCGuildHouseBase@@@8			; CGuildHouseBase `RTTI Type Descriptor'
PUBLIC	??_R3CGuildHouseBase@@8				; CGuildHouseBase::`RTTI Class Hierarchy Descriptor'
PUBLIC	??_R2CGuildHouseBase@@8				; CGuildHouseBase::`RTTI Base Class Array'
PUBLIC	??_R1A@?0A@EA@CGuildHouseBase@@8		; CGuildHouseBase::`RTTI Base Class Descriptor at (0,-1,0,64)'
PUBLIC	??_R4CGuildHouseSmall@@6B@			; CGuildHouseSmall::`RTTI Complete Object Locator'
PUBLIC	??_R0?AVCGuildHouseSmall@@@8			; CGuildHouseSmall `RTTI Type Descriptor'
PUBLIC	??_R3CGuildHouseSmall@@8			; CGuildHouseSmall::`RTTI Class Hierarchy Descriptor'
PUBLIC	??_R2CGuildHouseSmall@@8			; CGuildHouseSmall::`RTTI Base Class Array'
PUBLIC	??_R1A@?0A@EA@CGuildHouseSmall@@8		; CGuildHouseSmall::`RTTI Base Class Descriptor at (0,-1,0,64)'
PUBLIC	??_R4CGuildHouseMiddle@@6B@			; CGuildHouseMiddle::`RTTI Complete Object Locator'
PUBLIC	??_R0?AVCGuildHouseMiddle@@@8			; CGuildHouseMiddle `RTTI Type Descriptor'
PUBLIC	??_R3CGuildHouseMiddle@@8			; CGuildHouseMiddle::`RTTI Class Hierarchy Descriptor'
PUBLIC	??_R2CGuildHouseMiddle@@8			; CGuildHouseMiddle::`RTTI Base Class Array'
PUBLIC	??_R1A@?0A@EA@CGuildHouseMiddle@@8		; CGuildHouseMiddle::`RTTI Base Class Descriptor at (0,-1,0,64)'
EXTRN	__purecall:PROC
EXTRN	??2@YAPAXI@Z:PROC				; operator new
EXTRN	??3@YAXPAXI@Z:PROC				; operator delete
EXTRN	_atexit:PROC
EXTRN	__Init_thread_header:PROC
EXTRN	__Init_thread_abort:PROC
EXTRN	__Init_thread_footer:PROC
EXTRN	__invoke_watson:PROC
EXTRN	__time32:PROC
EXTRN	?_Xlength_error@std@@YAXPBD@Z:PROC		; std::_Xlength_error
EXTRN	___std_exception_copy:PROC
EXTRN	___std_exception_destroy:PROC
EXTRN	??_Eexception@std@@UAEPAXI@Z:PROC		; std::exception::`vector deleting destructor'
EXTRN	??_Ebad_alloc@std@@UAEPAXI@Z:PROC		; std::bad_alloc::`vector deleting destructor'
EXTRN	??_Ebad_array_new_length@std@@UAEPAXI@Z:PROC	; std::bad_array_new_length::`vector deleting destructor'
EXTRN	?Error@@YAPBDPBDZZ:PROC				; Error
EXTRN	?Execute@CQuery@@QAAHPBDZZ:PROC			; CQuery::Execute
EXTRN	?Fetch@CQuery@@QAEHXZ:PROC			; CQuery::Fetch
EXTRN	?GetInt@CQuery@@QAEHPAD@Z:PROC			; CQuery::GetInt
EXTRN	?GetFloat@CQuery@@QAEMPAD@Z:PROC		; CQuery::GetFloat
EXTRN	??0CAr@@QAE@PAXI@Z:PROC				; CAr::CAr
EXTRN	??1CAr@@QAE@XZ:PROC				; CAr::~CAr
EXTRN	?CheckBuf@CAr@@QAEXI@Z:PROC			; CAr::CheckBuf
EXTRN	?GetBuffer@CAr@@QAEPAEPAH@Z:PROC		; CAr::GetBuffer
EXTRN	??_ECGuildHouseBase@@UAEPAXI@Z:PROC		; CGuildHouseBase::`vector deleting destructor'
EXTRN	??_ECGuildHouseSmall@@UAEPAXI@Z:PROC		; CGuildHouseSmall::`vector deleting destructor'
EXTRN	??_ECGuildHouseMiddle@@UAEPAXI@Z:PROC		; CGuildHouseMiddle::`vector deleting destructor'
EXTRN	?PostRequest@CDbController@@QAEHHPAEHK@Z:PROC	; CDbController::PostRequest
EXTRN	?GetInstance@CGuildHouseDBMng@@SAPAV1@XZ:PROC	; CGuildHouseDBMng::GetInstance
EXTRN	@__security_check_cookie@4:PROC
EXTRN	__CxxThrowException@8:PROC
EXTRN	___CxxFrameHandler3:PROC
EXTRN	__chkstk:PROC
EXTRN	_memmove:PROC
EXTRN	__Init_thread_epoch:DWORD
EXTRN	??_7type_info@@6B@:QWORD			; type_info::`vftable'
EXTRN	?prj@@3VCProject@@A:BYTE			; prj
EXTRN	?g_appInfo@@3UAppInfo@@A:QWORD			; g_appInfo
EXTRN	___security_cookie:DWORD
EXTRN	__fltused:DWORD
EXTRN	__tls_array:DWORD
EXTRN	__tls_index:DWORD
;	COMDAT ?sGHM@?1??GetInstance@CGuildHouseMng@@SAPAV2@XZ@4V2@A
_BSS	SEGMENT
?sGHM@?1??GetInstance@CGuildHouseMng@@SAPAV2@XZ@4V2@A DB 0cH DUP (?) ; `CGuildHouseMng::GetInstance'::`2'::sGHM
_BSS	ENDS
;	COMDAT ?$TSS0@?1??GetInstance@CGuildHouseMng@@SAPAV2@XZ@4HA
_BSS	SEGMENT
?$TSS0@?1??GetInstance@CGuildHouseMng@@SAPAV2@XZ@4HA DD 01H DUP (?) ; `CGuildHouseMng::GetInstance'::`2'::$TSS0
_BSS	ENDS
;	COMDAT ??_R1A@?0A@EA@CGuildHouseMiddle@@8
rdata$r	SEGMENT
??_R1A@?0A@EA@CGuildHouseMiddle@@8 DD FLAT:??_R0?AVCGuildHouseMiddle@@@8 ; CGuildHouseMiddle::`RTTI Base Class Descriptor at (0,-1,0,64)'
	DD	01H
	DD	00H
	DD	0ffffffffH
	DD	00H
	DD	040H
	DD	FLAT:??_R3CGuildHouseMiddle@@8
rdata$r	ENDS
;	COMDAT ??_R2CGuildHouseMiddle@@8
rdata$r	SEGMENT
??_R2CGuildHouseMiddle@@8 DD FLAT:??_R1A@?0A@EA@CGuildHouseMiddle@@8 ; CGuildHouseMiddle::`RTTI Base Class Array'
	DD	FLAT:??_R1A@?0A@EA@CGuildHouseBase@@8
rdata$r	ENDS
;	COMDAT ??_R3CGuildHouseMiddle@@8
rdata$r	SEGMENT
??_R3CGuildHouseMiddle@@8 DD 00H			; CGuildHouseMiddle::`RTTI Class Hierarchy Descriptor'
	DD	00H
	DD	02H
	DD	FLAT:??_R2CGuildHouseMiddle@@8
rdata$r	ENDS
;	COMDAT ??_R0?AVCGuildHouseMiddle@@@8
data$rs	SEGMENT
??_R0?AVCGuildHouseMiddle@@@8 DD FLAT:??_7type_info@@6B@ ; CGuildHouseMiddle `RTTI Type Descriptor'
	DD	00H
	DB	'.?AVCGuildHouseMiddle@@', 00H
data$rs	ENDS
;	COMDAT ??_R4CGuildHouseMiddle@@6B@
rdata$r	SEGMENT
??_R4CGuildHouseMiddle@@6B@ DD 00H			; CGuildHouseMiddle::`RTTI Complete Object Locator'
	DD	00H
	DD	00H
	DD	FLAT:??_R0?AVCGuildHouseMiddle@@@8
	DD	FLAT:??_R3CGuildHouseMiddle@@8
rdata$r	ENDS
;	COMDAT ??_R1A@?0A@EA@CGuildHouseSmall@@8
rdata$r	SEGMENT
??_R1A@?0A@EA@CGuildHouseSmall@@8 DD FLAT:??_R0?AVCGuildHouseSmall@@@8 ; CGuildHouseSmall::`RTTI Base Class Descriptor at (0,-1,0,64)'
	DD	01H
	DD	00H
	DD	0ffffffffH
	DD	00H
	DD	040H
	DD	FLAT:??_R3CGuildHouseSmall@@8
rdata$r	ENDS
;	COMDAT ??_R2CGuildHouseSmall@@8
rdata$r	SEGMENT
??_R2CGuildHouseSmall@@8 DD FLAT:??_R1A@?0A@EA@CGuildHouseSmall@@8 ; CGuildHouseSmall::`RTTI Base Class Array'
	DD	FLAT:??_R1A@?0A@EA@CGuildHouseBase@@8
rdata$r	ENDS
;	COMDAT ??_R3CGuildHouseSmall@@8
rdata$r	SEGMENT
??_R3CGuildHouseSmall@@8 DD 00H				; CGuildHouseSmall::`RTTI Class Hierarchy Descriptor'
	DD	00H
	DD	02H
	DD	FLAT:??_R2CGuildHouseSmall@@8
rdata$r	ENDS
;	COMDAT ??_R0?AVCGuildHouseSmall@@@8
data$rs	SEGMENT
??_R0?AVCGuildHouseSmall@@@8 DD FLAT:??_7type_info@@6B@	; CGuildHouseSmall `RTTI Type Descriptor'
	DD	00H
	DB	'.?AVCGuildHouseSmall@@', 00H
data$rs	ENDS
;	COMDAT ??_R4CGuildHouseSmall@@6B@
rdata$r	SEGMENT
??_R4CGuildHouseSmall@@6B@ DD 00H			; CGuildHouseSmall::`RTTI Complete Object Locator'
	DD	00H
	DD	00H
	DD	FLAT:??_R0?AVCGuildHouseSmall@@@8
	DD	FLAT:??_R3CGuildHouseSmall@@8
rdata$r	ENDS
;	COMDAT ??_R1A@?0A@EA@CGuildHouseBase@@8
rdata$r	SEGMENT
??_R1A@?0A@EA@CGuildHouseBase@@8 DD FLAT:??_R0?AVCGuildHouseBase@@@8 ; CGuildHouseBase::`RTTI Base Class Descriptor at (0,-1,0,64)'
	DD	00H
	DD	00H
	DD	0ffffffffH
	DD	00H
	DD	040H
	DD	FLAT:??_R3CGuildHouseBase@@8
rdata$r	ENDS
;	COMDAT ??_R2CGuildHouseBase@@8
rdata$r	SEGMENT
??_R2CGuildHouseBase@@8 DD FLAT:??_R1A@?0A@EA@CGuildHouseBase@@8 ; CGuildHouseBase::`RTTI Base Class Array'
rdata$r	ENDS
;	COMDAT ??_R3CGuildHouseBase@@8
rdata$r	SEGMENT
??_R3CGuildHouseBase@@8 DD 00H				; CGuildHouseBase::`RTTI Class Hierarchy Descriptor'
	DD	00H
	DD	01H
	DD	FLAT:??_R2CGuildHouseBase@@8
rdata$r	ENDS
;	COMDAT ??_R0?AVCGuildHouseBase@@@8
data$rs	SEGMENT
??_R0?AVCGuildHouseBase@@@8 DD FLAT:??_7type_info@@6B@	; CGuildHouseBase `RTTI Type Descriptor'
	DD	00H
	DB	'.?AVCGuildHouseBase@@', 00H
data$rs	ENDS
;	COMDAT ??_R4CGuildHouseBase@@6B@
rdata$r	SEGMENT
??_R4CGuildHouseBase@@6B@ DD 00H			; CGuildHouseBase::`RTTI Complete Object Locator'
	DD	00H
	DD	00H
	DD	FLAT:??_R0?AVCGuildHouseBase@@@8
	DD	FLAT:??_R3CGuildHouseBase@@8
rdata$r	ENDS
;	COMDAT ??_C@_06JHEFCLKH@fAngle@
CONST	SEGMENT
??_C@_06JHEFCLKH@fAngle@ DB 'fAngle', 00H		; `string'
CONST	ENDS
;	COMDAT ??_C@_05NCFDIBGL@z_Pos@
CONST	SEGMENT
??_C@_05NCFDIBGL@z_Pos@ DB 'z_Pos', 00H			; `string'
CONST	ENDS
;	COMDAT ??_C@_05FEMHPDMF@y_Pos@
CONST	SEGMENT
??_C@_05FEMHPDMF@y_Pos@ DB 'y_Pos', 00H			; `string'
CONST	ENDS
;	COMDAT ??_C@_05JPJLCAGA@x_Pos@
CONST	SEGMENT
??_C@_05JPJLCAGA@x_Pos@ DB 'x_Pos', 00H			; `string'
CONST	ENDS
;	COMDAT ??_C@_06DMCKBLKP@bSetup@
CONST	SEGMENT
??_C@_06DMCKBLKP@bSetup@ DB 'bSetup', 00H		; `string'
CONST	ENDS
;	COMDAT ??_C@_09LCBEKCCJ@ItemIndex@
CONST	SEGMENT
??_C@_09LCBEKCCJ@ItemIndex@ DB 'ItemIndex', 00H		; `string'
CONST	ENDS
;	COMDAT ??_C@_0CI@JAMDLPN@usp_GuildFurniture_Load?5?5?8?$CF02d?8@
CONST	SEGMENT
??_C@_0CI@JAMDLPN@usp_GuildFurniture_Load?5?5?8?$CF02d?8@ DB 'usp_GuildFu'
	DB	'rniture_Load  ''%02d'', ''%06d''', 00H	; `string'
CONST	ENDS
;	COMDAT ??_C@_0EO@OANJGIDM@CGuildHouseMng?3?3DBLoadGuildHous@
CONST	SEGMENT
??_C@_0EO@OANJGIDM@CGuildHouseMng?3?3DBLoadGuildHous@ DB 'CGuildHouseMng:'
	DB	':DBLoadGuildHouse() : AddGuildHouse() Failed!!! [GuildId:%06d'
	DB	']', 00H					; `string'
CONST	ENDS
;	COMDAT ??_C@_09CGIPPJPO@tKeepTime@
CONST	SEGMENT
??_C@_09CGIPPJPO@tKeepTime@ DB 'tKeepTime', 00H		; `string'
CONST	ENDS
;	COMDAT ??_C@_09DHJEDBNA@dwWorldID@
CONST	SEGMENT
??_C@_09DHJEDBNA@dwWorldID@ DB 'dwWorldID', 00H		; `string'
CONST	ENDS
;	COMDAT ??_C@_09MHDEIN@m_idGuild@
CONST	SEGMENT
??_C@_09MHDEIN@m_idGuild@ DB 'm_idGuild', 00H		; `string'
CONST	ENDS
;	COMDAT ??_C@_0BL@KLBKELLI@usp_GuildHouse_Load?5?8?$CF02d?8@
CONST	SEGMENT
??_C@_0BL@KLBKELLI@usp_GuildHouse_Load?5?8?$CF02d?8@ DB 'usp_GuildHouse_L'
	DB	'oad ''%02d''', 00H				; `string'
CONST	ENDS
;	COMDAT ??_C@_03NCPCKDJB@SEQ@
CONST	SEGMENT
??_C@_03NCPCKDJB@SEQ@ DB 'SEQ', 00H			; `string'
CONST	ENDS
;	COMDAT ??_C@_0BN@EFGJIHNF@usp_GuildHouse_MaxSEQ?5?8?$CF02d?8@
CONST	SEGMENT
??_C@_0BN@EFGJIHNF@usp_GuildHouse_MaxSEQ?5?8?$CF02d?8@ DB 'usp_GuildHouse'
	DB	'_MaxSEQ ''%02d''', 00H			; `string'
CONST	ENDS
;	COMDAT ??_7CGuildHouseMiddle@@6B@
CONST	SEGMENT
??_7CGuildHouseMiddle@@6B@ DD FLAT:??_R4CGuildHouseMiddle@@6B@ ; CGuildHouseMiddle::`vftable'
	DD	FLAT:??_ECGuildHouseMiddle@@UAEPAXI@Z
	DD	FLAT:?GetTeleporterPos@CGuildHouseMiddle@@UAE?AUD3DXVECTOR3@@XZ
CONST	ENDS
;	COMDAT ??_7CGuildHouseSmall@@6B@
CONST	SEGMENT
??_7CGuildHouseSmall@@6B@ DD FLAT:??_R4CGuildHouseSmall@@6B@ ; CGuildHouseSmall::`vftable'
	DD	FLAT:??_ECGuildHouseSmall@@UAEPAXI@Z
	DD	FLAT:?GetTeleporterPos@CGuildHouseSmall@@UAE?AUD3DXVECTOR3@@XZ
CONST	ENDS
;	COMDAT ??_7CGuildHouseBase@@6B@
CONST	SEGMENT
??_7CGuildHouseBase@@6B@ DD FLAT:??_R4CGuildHouseBase@@6B@ ; CGuildHouseBase::`vftable'
	DD	FLAT:??_ECGuildHouseBase@@UAEPAXI@Z
	DD	FLAT:__purecall
CONST	ENDS
;	COMDAT ??_R4bad_alloc@std@@6B@
rdata$r	SEGMENT
??_R4bad_alloc@std@@6B@ DD 00H				; std::bad_alloc::`RTTI Complete Object Locator'
	DD	00H
	DD	00H
	DD	FLAT:??_R0?AVbad_alloc@std@@@8
	DD	FLAT:??_R3bad_alloc@std@@8
rdata$r	ENDS
;	COMDAT ??_R2bad_alloc@std@@8
rdata$r	SEGMENT
??_R2bad_alloc@std@@8 DD FLAT:??_R1A@?0A@EA@bad_alloc@std@@8 ; std::bad_alloc::`RTTI Base Class Array'
	DD	FLAT:??_R1A@?0A@EA@exception@std@@8
rdata$r	ENDS
;	COMDAT ??_R3bad_alloc@std@@8
rdata$r	SEGMENT
??_R3bad_alloc@std@@8 DD 00H				; std::bad_alloc::`RTTI Class Hierarchy Descriptor'
	DD	00H
	DD	02H
	DD	FLAT:??_R2bad_alloc@std@@8
rdata$r	ENDS
;	COMDAT ??_R1A@?0A@EA@bad_alloc@std@@8
rdata$r	SEGMENT
??_R1A@?0A@EA@bad_alloc@std@@8 DD FLAT:??_R0?AVbad_alloc@std@@@8 ; std::bad_alloc::`RTTI Base Class Descriptor at (0,-1,0,64)'
	DD	01H
	DD	00H
	DD	0ffffffffH
	DD	00H
	DD	040H
	DD	FLAT:??_R3bad_alloc@std@@8
rdata$r	ENDS
;	COMDAT ??_R1A@?0A@EA@bad_array_new_length@std@@8
rdata$r	SEGMENT
??_R1A@?0A@EA@bad_array_new_length@std@@8 DD FLAT:??_R0?AVbad_array_new_length@std@@@8 ; std::bad_array_new_length::`RTTI Base Class Descriptor at (0,-1,0,64)'
	DD	02H
	DD	00H
	DD	0ffffffffH
	DD	00H
	DD	040H
	DD	FLAT:??_R3bad_array_new_length@std@@8
rdata$r	ENDS
;	COMDAT ??_R2bad_array_new_length@std@@8
rdata$r	SEGMENT
??_R2bad_array_new_length@std@@8 DD FLAT:??_R1A@?0A@EA@bad_array_new_length@std@@8 ; std::bad_array_new_length::`RTTI Base Class Array'
	DD	FLAT:??_R1A@?0A@EA@bad_alloc@std@@8
	DD	FLAT:??_R1A@?0A@EA@exception@std@@8
rdata$r	ENDS
;	COMDAT ??_R3bad_array_new_length@std@@8
rdata$r	SEGMENT
??_R3bad_array_new_length@std@@8 DD 00H			; std::bad_array_new_length::`RTTI Class Hierarchy Descriptor'
	DD	00H
	DD	03H
	DD	FLAT:??_R2bad_array_new_length@std@@8
rdata$r	ENDS
;	COMDAT ??_R4bad_array_new_length@std@@6B@
rdata$r	SEGMENT
??_R4bad_array_new_length@std@@6B@ DD 00H		; std::bad_array_new_length::`RTTI Complete Object Locator'
	DD	00H
	DD	00H
	DD	FLAT:??_R0?AVbad_array_new_length@std@@@8
	DD	FLAT:??_R3bad_array_new_length@std@@8
rdata$r	ENDS
;	COMDAT ??_R1A@?0A@EA@exception@std@@8
rdata$r	SEGMENT
??_R1A@?0A@EA@exception@std@@8 DD FLAT:??_R0?AVexception@std@@@8 ; std::exception::`RTTI Base Class Descriptor at (0,-1,0,64)'
	DD	00H
	DD	00H
	DD	0ffffffffH
	DD	00H
	DD	040H
	DD	FLAT:??_R3exception@std@@8
rdata$r	ENDS
;	COMDAT ??_R2exception@std@@8
rdata$r	SEGMENT
??_R2exception@std@@8 DD FLAT:??_R1A@?0A@EA@exception@std@@8 ; std::exception::`RTTI Base Class Array'
rdata$r	ENDS
;	COMDAT ??_R3exception@std@@8
rdata$r	SEGMENT
??_R3exception@std@@8 DD 00H				; std::exception::`RTTI Class Hierarchy Descriptor'
	DD	00H
	DD	01H
	DD	FLAT:??_R2exception@std@@8
rdata$r	ENDS
;	COMDAT ??_R4exception@std@@6B@
rdata$r	SEGMENT
??_R4exception@std@@6B@ DD 00H				; std::exception::`RTTI Complete Object Locator'
	DD	00H
	DD	00H
	DD	FLAT:??_R0?AVexception@std@@@8
	DD	FLAT:??_R3exception@std@@8
rdata$r	ENDS
;	COMDAT ??_C@_0BA@FOIKENOD@vector?5too?5long@
CONST	SEGMENT
??_C@_0BA@FOIKENOD@vector?5too?5long@ DB 'vector too long', 00H ; `string'
CONST	ENDS
;	COMDAT ??_C@_0BB@GCADKGJO@map?1set?5too?5long@
CONST	SEGMENT
??_C@_0BB@GCADKGJO@map?1set?5too?5long@ DB 'map/set too long', 00H ; `string'
CONST	ENDS
;	COMDAT __CT??_R0?AVbad_alloc@std@@@8??0bad_alloc@std@@QAE@ABV01@@Z12
xdata$x	SEGMENT
__CT??_R0?AVbad_alloc@std@@@8??0bad_alloc@std@@QAE@ABV01@@Z12 DD 010H
	DD	FLAT:??_R0?AVbad_alloc@std@@@8
	DD	00H
	DD	0ffffffffH
	ORG $+4
	DD	0cH
	DD	FLAT:??0bad_alloc@std@@QAE@ABV01@@Z
xdata$x	ENDS
;	COMDAT ??_R0?AVbad_alloc@std@@@8
data$r	SEGMENT
??_R0?AVbad_alloc@std@@@8 DD FLAT:??_7type_info@@6B@	; std::bad_alloc `RTTI Type Descriptor'
	DD	00H
	DB	'.?AVbad_alloc@std@@', 00H
data$r	ENDS
;	COMDAT __CT??_R0?AVbad_array_new_length@std@@@8??0bad_array_new_length@std@@QAE@ABV01@@Z12
xdata$x	SEGMENT
__CT??_R0?AVbad_array_new_length@std@@@8??0bad_array_new_length@std@@QAE@ABV01@@Z12 DD 00H
	DD	FLAT:??_R0?AVbad_array_new_length@std@@@8
	DD	00H
	DD	0ffffffffH
	ORG $+4
	DD	0cH
	DD	FLAT:??0bad_array_new_length@std@@QAE@ABV01@@Z
xdata$x	ENDS
;	COMDAT ??_R0?AVbad_array_new_length@std@@@8
data$r	SEGMENT
??_R0?AVbad_array_new_length@std@@@8 DD FLAT:??_7type_info@@6B@ ; std::bad_array_new_length `RTTI Type Descriptor'
	DD	00H
	DB	'.?AVbad_array_new_length@std@@', 00H
data$r	ENDS
;	COMDAT __CTA3?AVbad_array_new_length@std@@
xdata$x	SEGMENT
__CTA3?AVbad_array_new_length@std@@ DD 03H
	DD	FLAT:__CT??_R0?AVbad_array_new_length@std@@@8??0bad_array_new_length@std@@QAE@ABV01@@Z12
	DD	FLAT:__CT??_R0?AVbad_alloc@std@@@8??0bad_alloc@std@@QAE@ABV01@@Z12
	DD	FLAT:__CT??_R0?AVexception@std@@@8??0exception@std@@QAE@ABV01@@Z12
xdata$x	ENDS
;	COMDAT __TI3?AVbad_array_new_length@std@@
xdata$x	SEGMENT
__TI3?AVbad_array_new_length@std@@ DD 00H
	DD	FLAT:??1bad_array_new_length@std@@UAE@XZ
	DD	00H
	DD	FLAT:__CTA3?AVbad_array_new_length@std@@
xdata$x	ENDS
;	COMDAT __CT??_R0?AVexception@std@@@8??0exception@std@@QAE@ABV01@@Z12
xdata$x	SEGMENT
__CT??_R0?AVexception@std@@@8??0exception@std@@QAE@ABV01@@Z12 DD 00H
	DD	FLAT:??_R0?AVexception@std@@@8
	DD	00H
	DD	0ffffffffH
	ORG $+4
	DD	0cH
	DD	FLAT:??0exception@std@@QAE@ABV01@@Z
xdata$x	ENDS
;	COMDAT ??_R0?AVexception@std@@@8
data$r	SEGMENT
??_R0?AVexception@std@@@8 DD FLAT:??_7type_info@@6B@	; std::exception `RTTI Type Descriptor'
	DD	00H
	DB	'.?AVexception@std@@', 00H
data$r	ENDS
;	COMDAT ??_C@_0BF@KINCDENJ@bad?5array?5new?5length@
CONST	SEGMENT
??_C@_0BF@KINCDENJ@bad?5array?5new?5length@ DB 'bad array new length', 00H ; `string'
CONST	ENDS
;	COMDAT ??_7bad_array_new_length@std@@6B@
CONST	SEGMENT
??_7bad_array_new_length@std@@6B@ DD FLAT:??_R4bad_array_new_length@std@@6B@ ; std::bad_array_new_length::`vftable'
	DD	FLAT:??_Ebad_array_new_length@std@@UAEPAXI@Z
	DD	FLAT:?what@exception@std@@UBEPBDXZ
CONST	ENDS
;	COMDAT ??_7bad_alloc@std@@6B@
CONST	SEGMENT
??_7bad_alloc@std@@6B@ DD FLAT:??_R4bad_alloc@std@@6B@	; std::bad_alloc::`vftable'
	DD	FLAT:??_Ebad_alloc@std@@UAEPAXI@Z
	DD	FLAT:?what@exception@std@@UBEPBDXZ
CONST	ENDS
;	COMDAT ??_C@_0BC@EOODALEL@Unknown?5exception@
CONST	SEGMENT
??_C@_0BC@EOODALEL@Unknown?5exception@ DB 'Unknown exception', 00H ; `string'
CONST	ENDS
;	COMDAT ??_7exception@std@@6B@
CONST	SEGMENT
??_7exception@std@@6B@ DD FLAT:??_R4exception@std@@6B@	; std::exception::`vftable'
	DD	FLAT:??_Eexception@std@@UAEPAXI@Z
	DD	FLAT:?what@exception@std@@UBEPBDXZ
CONST	ENDS
;	COMDAT xdata$x
xdata$x	SEGMENT
__unwindtable$??$?0U?$pair@KPAVCGuildHouseBase@@@std@@@?$_Tree_temp_node@V?$allocator@U?$_Tree_node@U?$pair@$$CBKPAVCGuildHouseBase@@@std@@PAX@std@@@std@@@std@@QAE@AAV?$allocator@U?$_Tree_node@U?$pair@$$CBKPAVCGuildHouseBase@@@std@@PAX@std@@@1@PAU?$_Tree_node@U?$pair@$$CBKPAVCGuildHouseBase@@@std@@PAX@1@$$QAU?$pair@KPAVCGuildHouseBase@@@1@@Z DD 0ffffffffH
	DD	FLAT:__unwindfunclet$??$?0U?$pair@KPAVCGuildHouseBase@@@std@@@?$_Tree_temp_node@V?$allocator@U?$_Tree_node@U?$pair@$$CBKPAVCGuildHouseBase@@@std@@PAX@std@@@std@@@std@@QAE@AAV?$allocator@U?$_Tree_node@U?$pair@$$CBKPAVCGuildHouseBase@@@std@@PAX@std@@@1@PAU?$_Tree_node@U?$pair@$$CBKPAVCGuildHouseBase@@@std@@PAX@1@$$QAU?$pair@KPAVCGuildHouseBase@@@1@@Z$1
__ehfuncinfo$??$?0U?$pair@KPAVCGuildHouseBase@@@std@@@?$_Tree_temp_node@V?$allocator@U?$_Tree_node@U?$pair@$$CBKPAVCGuildHouseBase@@@std@@PAX@std@@@std@@@std@@QAE@AAV?$allocator@U?$_Tree_node@U?$pair@$$CBKPAVCGuildHouseBase@@@std@@PAX@std@@@1@PAU?$_Tree_node@U?$pair@$$CBKPAVCGuildHouseBase@@@std@@PAX@1@$$QAU?$pair@KPAVCGuildHouseBase@@@1@@Z DD 019930522H
	DD	01H
	DD	FLAT:__unwindtable$??$?0U?$pair@KPAVCGuildHouseBase@@@std@@@?$_Tree_temp_node@V?$allocator@U?$_Tree_node@U?$pair@$$CBKPAVCGuildHouseBase@@@std@@PAX@std@@@std@@@std@@QAE@AAV?$allocator@U?$_Tree_node@U?$pair@$$CBKPAVCGuildHouseBase@@@std@@PAX@std@@@1@PAU?$_Tree_node@U?$pair@$$CBKPAVCGuildHouseBase@@@std@@PAX@1@$$QAU?$pair@KPAVCGuildHouseBase@@@1@@Z
	DD	2 DUP(00H)
	DD	2 DUP(00H)
	DD	00H
	DD	01H
xdata$x	ENDS
;	COMDAT xdata$x
xdata$x	SEGMENT
__unwindtable$??0?$_Tree_temp_node_alloc@V?$allocator@U?$_Tree_node@U?$pair@$$CBKPAVCGuildHouseBase@@@std@@PAX@std@@@std@@@std@@QAE@AAV?$allocator@U?$_Tree_node@U?$pair@$$CBKPAVCGuildHouseBase@@@std@@PAX@std@@@1@@Z DD 0ffffffffH
	DD	FLAT:__unwindfunclet$??0?$_Tree_temp_node_alloc@V?$allocator@U?$_Tree_node@U?$pair@$$CBKPAVCGuildHouseBase@@@std@@PAX@std@@@std@@@std@@QAE@AAV?$allocator@U?$_Tree_node@U?$pair@$$CBKPAVCGuildHouseBase@@@std@@PAX@std@@@1@@Z$0
__ehfuncinfo$??0?$_Tree_temp_node_alloc@V?$allocator@U?$_Tree_node@U?$pair@$$CBKPAVCGuildHouseBase@@@std@@PAX@std@@@std@@@std@@QAE@AAV?$allocator@U?$_Tree_node@U?$pair@$$CBKPAVCGuildHouseBase@@@std@@PAX@std@@@1@@Z DD 019930522H
	DD	01H
	DD	FLAT:__unwindtable$??0?$_Tree_temp_node_alloc@V?$allocator@U?$_Tree_node@U?$pair@$$CBKPAVCGuildHouseBase@@@std@@PAX@std@@@std@@@std@@QAE@AAV?$allocator@U?$_Tree_node@U?$pair@$$CBKPAVCGuildHouseBase@@@std@@PAX@std@@@1@@Z
	DD	2 DUP(00H)
	DD	2 DUP(00H)
	DD	00H
	DD	01H
xdata$x	ENDS
;	COMDAT xdata$x
xdata$x	SEGMENT
__unwindtable$??$_Emplace@U?$pair@KPAVCGuildHouseBase@@@std@@@?$_Tree@V?$_Tmap_traits@KPAVCGuildHouseBase@@U?$less@K@std@@V?$allocator@U?$pair@$$CBKPAVCGuildHouseBase@@@std@@@3@$0A@@std@@@std@@IAE?AU?$pair@PAU?$_Tree_node@U?$pair@$$CBKPAVCGuildHouseBase@@@std@@PAX@std@@_N@1@$$QAU?$pair@KPAVCGuildHouseBase@@@1@@Z DD 0ffffffffH
	DD	FLAT:__unwindfunclet$??$_Emplace@U?$pair@KPAVCGuildHouseBase@@@std@@@?$_Tree@V?$_Tmap_traits@KPAVCGuildHouseBase@@U?$less@K@std@@V?$allocator@U?$pair@$$CBKPAVCGuildHouseBase@@@std@@@3@$0A@@std@@@std@@IAE?AU?$pair@PAU?$_Tree_node@U?$pair@$$CBKPAVCGuildHouseBase@@@std@@PAX@std@@_N@1@$$QAU?$pair@KPAVCGuildHouseBase@@@1@@Z$2
__ehfuncinfo$??$_Emplace@U?$pair@KPAVCGuildHouseBase@@@std@@@?$_Tree@V?$_Tmap_traits@KPAVCGuildHouseBase@@U?$less@K@std@@V?$allocator@U?$pair@$$CBKPAVCGuildHouseBase@@@std@@@3@$0A@@std@@@std@@IAE?AU?$pair@PAU?$_Tree_node@U?$pair@$$CBKPAVCGuildHouseBase@@@std@@PAX@std@@_N@1@$$QAU?$pair@KPAVCGuildHouseBase@@@1@@Z DD 019930522H
	DD	01H
	DD	FLAT:__unwindtable$??$_Emplace@U?$pair@KPAVCGuildHouseBase@@@std@@@?$_Tree@V?$_Tmap_traits@KPAVCGuildHouseBase@@U?$less@K@std@@V?$allocator@U?$pair@$$CBKPAVCGuildHouseBase@@@std@@@3@$0A@@std@@@std@@IAE?AU?$pair@PAU?$_Tree_node@U?$pair@$$CBKPAVCGuildHouseBase@@@std@@PAX@std@@_N@1@$$QAU?$pair@KPAVCGuildHouseBase@@@1@@Z
	DD	2 DUP(00H)
	DD	2 DUP(00H)
	DD	00H
	DD	01H
xdata$x	ENDS
;	COMDAT xdata$x
xdata$x	SEGMENT
__unwindtable$??$emplace@U?$pair@KPAVCGuildHouseBase@@@std@@@?$_Tree@V?$_Tmap_traits@KPAVCGuildHouseBase@@U?$less@K@std@@V?$allocator@U?$pair@$$CBKPAVCGuildHouseBase@@@std@@@3@$0A@@std@@@std@@QAE?AU?$pair@V?$_Tree_iterator@V?$_Tree_val@U?$_Tree_simple_types@U?$pair@$$CBKPAVCGuildHouseBase@@@std@@@std@@@std@@@std@@_N@1@$$QAU?$pair@KPAVCGuildHouseBase@@@1@@Z DD 0ffffffffH
	DD	FLAT:__unwindfunclet$??$emplace@U?$pair@KPAVCGuildHouseBase@@@std@@@?$_Tree@V?$_Tmap_traits@KPAVCGuildHouseBase@@U?$less@K@std@@V?$allocator@U?$pair@$$CBKPAVCGuildHouseBase@@@std@@@3@$0A@@std@@@std@@QAE?AU?$pair@V?$_Tree_iterator@V?$_Tree_val@U?$_Tree_simple_types@U?$pair@$$CBKPAVCGuildHouseBase@@@std@@@std@@@std@@@std@@_N@1@$$QAU?$pair@KPAVCGuildHouseBase@@@1@@Z$2
__ehfuncinfo$??$emplace@U?$pair@KPAVCGuildHouseBase@@@std@@@?$_Tree@V?$_Tmap_traits@KPAVCGuildHouseBase@@U?$less@K@std@@V?$allocator@U?$pair@$$CBKPAVCGuildHouseBase@@@std@@@3@$0A@@std@@@std@@QAE?AU?$pair@V?$_Tree_iterator@V?$_Tree_val@U?$_Tree_simple_types@U?$pair@$$CBKPAVCGuildHouseBase@@@std@@@std@@@std@@@std@@_N@1@$$QAU?$pair@KPAVCGuildHouseBase@@@1@@Z DD 019930522H
	DD	01H
	DD	FLAT:__unwindtable$??$emplace@U?$pair@KPAVCGuildHouseBase@@@std@@@?$_Tree@V?$_Tmap_traits@KPAVCGuildHouseBase@@U?$less@K@std@@V?$allocator@U?$pair@$$CBKPAVCGuildHouseBase@@@std@@@3@$0A@@std@@@std@@QAE?AU?$pair@V?$_Tree_iterator@V?$_Tree_val@U?$_Tree_simple_types@U?$pair@$$CBKPAVCGuildHouseBase@@@std@@@std@@@std@@@std@@_N@1@$$QAU?$pair@KPAVCGuildHouseBase@@@1@@Z
	DD	2 DUP(00H)
	DD	2 DUP(00H)
	DD	00H
	DD	01H
xdata$x	ENDS
;	COMDAT xdata$x
xdata$x	SEGMENT
__unwindtable$??$insert@U?$pair@KPAVCGuildHouseBase@@@std@@$0A@@?$map@KPAVCGuildHouseBase@@U?$less@K@std@@V?$allocator@U?$pair@$$CBKPAVCGuildHouseBase@@@std@@@3@@std@@QAE?AU?$pair@V?$_Tree_iterator@V?$_Tree_val@U?$_Tree_simple_types@U?$pair@$$CBKPAVCGuildHouseBase@@@std@@@std@@@std@@@std@@_N@1@$$QAU?$pair@KPAVCGuildHouseBase@@@1@@Z DD 0ffffffffH
	DD	FLAT:__unwindfunclet$??$insert@U?$pair@KPAVCGuildHouseBase@@@std@@$0A@@?$map@KPAVCGuildHouseBase@@U?$less@K@std@@V?$allocator@U?$pair@$$CBKPAVCGuildHouseBase@@@std@@@3@@std@@QAE?AU?$pair@V?$_Tree_iterator@V?$_Tree_val@U?$_Tree_simple_types@U?$pair@$$CBKPAVCGuildHouseBase@@@std@@@std@@@std@@@std@@_N@1@$$QAU?$pair@KPAVCGuildHouseBase@@@1@@Z$2
__ehfuncinfo$??$insert@U?$pair@KPAVCGuildHouseBase@@@std@@$0A@@?$map@KPAVCGuildHouseBase@@U?$less@K@std@@V?$allocator@U?$pair@$$CBKPAVCGuildHouseBase@@@std@@@3@@std@@QAE?AU?$pair@V?$_Tree_iterator@V?$_Tree_val@U?$_Tree_simple_types@U?$pair@$$CBKPAVCGuildHouseBase@@@std@@@std@@@std@@@std@@_N@1@$$QAU?$pair@KPAVCGuildHouseBase@@@1@@Z DD 019930522H
	DD	01H
	DD	FLAT:__unwindtable$??$insert@U?$pair@KPAVCGuildHouseBase@@@std@@$0A@@?$map@KPAVCGuildHouseBase@@U?$less@K@std@@V?$allocator@U?$pair@$$CBKPAVCGuildHouseBase@@@std@@@3@@std@@QAE?AU?$pair@V?$_Tree_iterator@V?$_Tree_val@U?$_Tree_simple_types@U?$pair@$$CBKPAVCGuildHouseBase@@@std@@@std@@@std@@@std@@_N@1@$$QAU?$pair@KPAVCGuildHouseBase@@@1@@Z
	DD	2 DUP(00H)
	DD	2 DUP(00H)
	DD	00H
	DD	01H
xdata$x	ENDS
;	COMDAT xdata$x
xdata$x	SEGMENT
__unwindtable$?DBLoadGuildHouse@CGuildHouseMng@@QAEHPAVCQuery@@@Z DD 0ffffffffH
	DD	FLAT:__unwindfunclet$?DBLoadGuildHouse@CGuildHouseMng@@QAEHPAVCQuery@@@Z$2
__ehfuncinfo$?DBLoadGuildHouse@CGuildHouseMng@@QAEHPAVCQuery@@@Z DD 019930522H
	DD	01H
	DD	FLAT:__unwindtable$?DBLoadGuildHouse@CGuildHouseMng@@QAEHPAVCQuery@@@Z
	DD	2 DUP(00H)
	DD	2 DUP(00H)
	DD	00H
	DD	01H
xdata$x	ENDS
;	COMDAT xdata$x
xdata$x	SEGMENT
__unwindtable$?ProcessExpired@CGuildHouseMng@@QAEXXZ DD 0ffffffffH
	DD	FLAT:__unwindfunclet$?ProcessExpired@CGuildHouseMng@@QAEXXZ$0
	DD	0ffffffffH
	DD	FLAT:__unwindfunclet$?ProcessExpired@CGuildHouseMng@@QAEXXZ$1
__ehfuncinfo$?ProcessExpired@CGuildHouseMng@@QAEXXZ DD 019930522H
	DD	02H
	DD	FLAT:__unwindtable$?ProcessExpired@CGuildHouseMng@@QAEXXZ
	DD	2 DUP(00H)
	DD	2 DUP(00H)
	DD	00H
	DD	01H
xdata$x	ENDS
;	COMDAT xdata$x
xdata$x	SEGMENT
__unwindtable$?Serialize@CGuildHouseMng@@QAEXAAVCAr@@@Z DD 0ffffffffH
	DD	FLAT:__unwindfunclet$?Serialize@CGuildHouseMng@@QAEXAAVCAr@@@Z$3
	DD	0ffffffffH
	DD	FLAT:__unwindfunclet$?Serialize@CGuildHouseMng@@QAEXAAVCAr@@@Z$0
__ehfuncinfo$?Serialize@CGuildHouseMng@@QAEXAAVCAr@@@Z DD 019930522H
	DD	02H
	DD	FLAT:__unwindtable$?Serialize@CGuildHouseMng@@QAEXAAVCAr@@@Z
	DD	2 DUP(00H)
	DD	2 DUP(00H)
	DD	00H
	DD	01H
xdata$x	ENDS
;	COMDAT xdata$x
xdata$x	SEGMENT
__unwindtable$?AddGuildHouse@CGuildHouseMng@@QAEHKPAVCGuildHouseBase@@@Z DD 0ffffffffH
	DD	FLAT:__unwindfunclet$?AddGuildHouse@CGuildHouseMng@@QAEHKPAVCGuildHouseBase@@@Z$2
__ehfuncinfo$?AddGuildHouse@CGuildHouseMng@@QAEHKPAVCGuildHouseBase@@@Z DD 019930522H
	DD	01H
	DD	FLAT:__unwindtable$?AddGuildHouse@CGuildHouseMng@@QAEHKPAVCGuildHouseBase@@@Z
	DD	2 DUP(00H)
	DD	2 DUP(00H)
	DD	00H
	DD	01H
xdata$x	ENDS
;	COMDAT xdata$x
xdata$x	SEGMENT
__unwindtable$?GetInstance@CGuildHouseMng@@SAPAV1@XZ DD 0ffffffffH
	DD	FLAT:__unwindfunclet$?GetInstance@CGuildHouseMng@@SAPAV1@XZ$0
__ehfuncinfo$?GetInstance@CGuildHouseMng@@SAPAV1@XZ DD 019930522H
	DD	01H
	DD	FLAT:__unwindtable$?GetInstance@CGuildHouseMng@@SAPAV1@XZ
	DD	2 DUP(00H)
	DD	2 DUP(00H)
	DD	00H
	DD	01H
xdata$x	ENDS
; Function compile flags: /Ogtp
; File C:\Program Files\Microsoft Visual Studio\2022\Professional\VC\Tools\MSVC\14.44.35207\include\xutility
;	COMDAT ??$_Copy_memmove_tail@PAUGuildHouse_Furniture_Info@CGuildHouseBase@@@std@@YAPAUGuildHouse_Furniture_Info@CGuildHouseBase@@QBDQAU12@II@Z
_TEXT	SEGMENT
__First_ch$ = 8						; size = 4
__Dest$ = 12						; size = 4
__Byte_count$ = 16					; size = 4
__Object_count$ = 20					; size = 4
??$_Copy_memmove_tail@PAUGuildHouse_Furniture_Info@CGuildHouseBase@@@std@@YAPAUGuildHouse_Furniture_Info@CGuildHouseBase@@QBDQAU12@II@Z PROC ; std::_Copy_memmove_tail<CGuildHouseBase::GuildHouse_Furniture_Info *>, COMDAT

; 4747 :     const char* const _First_ch, const _OutCtgIt _Dest, const size_t _Byte_count, const size_t _Object_count) {

  00000	55		 push	 ebp
  00001	8b ec		 mov	 ebp, esp
  00003	56		 push	 esi

; 4748 :     _STL_INTERNAL_CHECK(_Byte_count == _Object_count * sizeof(*_Dest));
; 4749 :     const auto _Dest_ptr = _STD _To_address(_Dest);
; 4750 :     const auto _Dest_ch  = const_cast<char*>(reinterpret_cast<const volatile char*>(_Dest_ptr));
; 4751 :     _CSTD memmove(_Dest_ch, _First_ch, _Byte_count);

  00004	8b 75 0c	 mov	 esi, DWORD PTR __Dest$[ebp]
  00007	57		 push	 edi
  00008	8b 7d 10	 mov	 edi, DWORD PTR __Byte_count$[ebp]
  0000b	57		 push	 edi
  0000c	ff 75 08	 push	 DWORD PTR __First_ch$[ebp]
  0000f	56		 push	 esi
  00010	e8 00 00 00 00	 call	 _memmove
  00015	83 c4 0c	 add	 esp, 12			; 0000000cH

; 4752 :     if constexpr (is_pointer_v<_OutCtgIt>) {
; 4753 :         (void) _Object_count;
; 4754 :         // CodeQL [SM02986] This cast is correct: we're bypassing pointer arithmetic for performance.
; 4755 :         return reinterpret_cast<_OutCtgIt>(_Dest_ch + _Byte_count);

  00018	8d 04 3e	 lea	 eax, DWORD PTR [esi+edi]
  0001b	5f		 pop	 edi
  0001c	5e		 pop	 esi

; 4756 :     } else {
; 4757 :         return _Dest + static_cast<_Iter_diff_t<_OutCtgIt>>(_Object_count);
; 4758 :     }
; 4759 : }

  0001d	5d		 pop	 ebp
  0001e	c3		 ret	 0
??$_Copy_memmove_tail@PAUGuildHouse_Furniture_Info@CGuildHouseBase@@@std@@YAPAUGuildHouse_Furniture_Info@CGuildHouseBase@@QBDQAU12@II@Z ENDP ; std::_Copy_memmove_tail<CGuildHouseBase::GuildHouse_Furniture_Info *>
_TEXT	ENDS
; Function compile flags: /Ogtp
; File C:\Program Files\Microsoft Visual Studio\2022\Professional\VC\Tools\MSVC\14.44.35207\include\xmemory
;	COMDAT ??1?$_Alloc_construct_ptr@V?$allocator@U?$_Tree_node@U?$pair@$$CBKPAVCGuildHouseBase@@@std@@PAX@std@@@std@@@std@@QAE@XZ
_TEXT	SEGMENT
??1?$_Alloc_construct_ptr@V?$allocator@U?$_Tree_node@U?$pair@$$CBKPAVCGuildHouseBase@@@std@@PAX@std@@@std@@@std@@QAE@XZ PROC ; std::_Alloc_construct_ptr<std::allocator<std::_Tree_node<std::pair<unsigned long const ,CGuildHouseBase *>,void *> > >::~_Alloc_construct_ptr<std::allocator<std::_Tree_node<std::pair<unsigned long const ,CGuildHouseBase *>,void *> > >, COMDAT
; _this$ = ecx

; 1172 :         if (_Ptr) {

  00000	8b 41 04	 mov	 eax, DWORD PTR [ecx+4]
  00003	85 c0		 test	 eax, eax
  00005	74 0b		 je	 SHORT $LN10@Alloc_cons

; 289  :         ::operator delete(_Ptr, _Bytes);

  00007	6a 18		 push	 24			; 00000018H
  00009	50		 push	 eax
  0000a	e8 00 00 00 00	 call	 ??3@YAXPAXI@Z		; operator delete
  0000f	83 c4 08	 add	 esp, 8
$LN10@Alloc_cons:

; 1173 :             _Al.deallocate(_Ptr, 1);
; 1174 :         }
; 1175 :     }

  00012	c3		 ret	 0
??1?$_Alloc_construct_ptr@V?$allocator@U?$_Tree_node@U?$pair@$$CBKPAVCGuildHouseBase@@@std@@PAX@std@@@std@@@std@@QAE@XZ ENDP ; std::_Alloc_construct_ptr<std::allocator<std::_Tree_node<std::pair<unsigned long const ,CGuildHouseBase *>,void *> > >::~_Alloc_construct_ptr<std::allocator<std::_Tree_node<std::pair<unsigned long const ,CGuildHouseBase *>,void *> > >
_TEXT	ENDS
; Function compile flags: /Ogtp
; File C:\Program Files\Microsoft Visual Studio\2022\Professional\VC\Tools\MSVC\14.44.35207\include\vector
; File C:\Program Files\Microsoft Visual Studio\2022\Professional\VC\Tools\MSVC\14.44.35207\include\xmemory
; File C:\Program Files\Microsoft Visual Studio\2022\Professional\VC\Tools\MSVC\14.44.35207\include\vector
; File C:\Program Files\Microsoft Visual Studio\2022\Professional\VC\Tools\MSVC\14.44.35207\include\xmemory
; File C:\Program Files\Microsoft Visual Studio\2022\Professional\VC\Tools\MSVC\14.44.35207\include\vector
; File C:\Program Files\Microsoft Visual Studio\2022\Professional\VC\Tools\MSVC\14.44.35207\include\xmemory
; File C:\Program Files\Microsoft Visual Studio\2022\Professional\VC\Tools\MSVC\14.44.35207\include\vector
; File C:\Program Files\Microsoft Visual Studio\2022\Professional\VC\Tools\MSVC\14.44.35207\include\xmemory
; File C:\Program Files\Microsoft Visual Studio\2022\Professional\VC\Tools\MSVC\14.44.35207\include\vector
; File C:\Program Files\Microsoft Visual Studio\2022\Professional\VC\Tools\MSVC\14.44.35207\include\xmemory
; File C:\Program Files\Microsoft Visual Studio\2022\Professional\VC\Tools\MSVC\14.44.35207\include\vector
; File C:\Program Files\Microsoft Visual Studio\2022\Professional\VC\Tools\MSVC\14.44.35207\include\xmemory
; File C:\Program Files\Microsoft Visual Studio\2022\Professional\VC\Tools\MSVC\14.44.35207\include\vector
;	COMDAT ??$_Emplace_reallocate@ABUGuildHouse_Furniture_Info@CGuildHouseBase@@@?$vector@UGuildHouse_Furniture_Info@CGuildHouseBase@@V?$allocator@UGuildHouse_Furniture_Info@CGuildHouseBase@@@std@@@std@@AAEPAUGuildHouse_Furniture_Info@CGuildHouseBase@@QAU23@ABU23@@Z
_TEXT	SEGMENT
__Oldsize$1$ = -12					; size = 4
__Whereoff$1$ = -8					; size = 4
_this$1$ = -4						; size = 4
__Whereptr$ = 8						; size = 4
_<_Val_0>$ = 12						; size = 4
??$_Emplace_reallocate@ABUGuildHouse_Furniture_Info@CGuildHouseBase@@@?$vector@UGuildHouse_Furniture_Info@CGuildHouseBase@@V?$allocator@UGuildHouse_Furniture_Info@CGuildHouseBase@@@std@@@std@@AAEPAUGuildHouse_Furniture_Info@CGuildHouseBase@@QAU23@ABU23@@Z PROC ; std::vector<CGuildHouseBase::GuildHouse_Furniture_Info,std::allocator<CGuildHouseBase::GuildHouse_Furniture_Info> >::_Emplace_reallocate<CGuildHouseBase::GuildHouse_Furniture_Info const &>, COMDAT
; _this$ = ecx

; 875  :     _CONSTEXPR20 pointer _Emplace_reallocate(const pointer _Whereptr, _Valty&&... _Val) {

  00000	55		 push	 ebp
  00001	8b ec		 mov	 ebp, esp
  00003	83 ec 0c	 sub	 esp, 12			; 0000000cH

; 876  :         // reallocate and insert by perfectly forwarding _Val at _Whereptr
; 877  :         _Alty& _Al        = _Getal();
; 878  :         auto& _My_data    = _Mypair._Myval2;
; 879  :         pointer& _Myfirst = _My_data._Myfirst;
; 880  :         pointer& _Mylast  = _My_data._Mylast;
; 881  : 
; 882  :         _STL_INTERNAL_CHECK(_Mylast == _My_data._Myend); // check that we have no unused capacity
; 883  : 
; 884  :         const auto _Whereoff = static_cast<size_type>(_Whereptr - _Myfirst);

  00006	8b 55 08	 mov	 edx, DWORD PTR __Whereptr$[ebp]
  00009	b8 39 8e e3 38	 mov	 eax, 954437177		; 38e38e39H
  0000e	53		 push	 ebx
  0000f	8b d9		 mov	 ebx, ecx
  00011	56		 push	 esi
  00012	57		 push	 edi
  00013	89 5d fc	 mov	 DWORD PTR _this$1$[ebp], ebx
  00016	8b 33		 mov	 esi, DWORD PTR [ebx]
  00018	2b d6		 sub	 edx, esi

; 885  :         const auto _Oldsize  = static_cast<size_type>(_Mylast - _Myfirst);

  0001a	8b 4b 04	 mov	 ecx, DWORD PTR [ebx+4]
  0001d	f7 ea		 imul	 edx
  0001f	2b ce		 sub	 ecx, esi
  00021	c1 fa 03	 sar	 edx, 3
  00024	8b c2		 mov	 eax, edx
  00026	c1 e8 1f	 shr	 eax, 31			; 0000001fH
  00029	03 c2		 add	 eax, edx
  0002b	89 45 f8	 mov	 DWORD PTR __Whereoff$1$[ebp], eax
  0002e	b8 39 8e e3 38	 mov	 eax, 954437177		; 38e38e39H
  00033	f7 e9		 imul	 ecx
  00035	c1 fa 03	 sar	 edx, 3
  00038	8b c2		 mov	 eax, edx
  0003a	c1 e8 1f	 shr	 eax, 31			; 0000001fH
  0003d	03 c2		 add	 eax, edx
  0003f	89 45 f4	 mov	 DWORD PTR __Oldsize$1$[ebp], eax

; 886  : 
; 887  :         if (_Oldsize == max_size()) {

  00042	3d c7 71 1c 07	 cmp	 eax, 119304647		; 071c71c7H
  00047	0f 84 e7 00 00
	00		 je	 $LN98@Emplace_re

; 1924 :         return static_cast<size_type>(_My_data._Myend - _My_data._Myfirst);

  0004d	8b 4b 08	 mov	 ecx, DWORD PTR [ebx+8]

; 889  :         }
; 890  : 
; 891  :         const size_type _Newsize = _Oldsize + 1;

  00050	8d 78 01	 lea	 edi, DWORD PTR [eax+1]

; 1924 :         return static_cast<size_type>(_My_data._Myend - _My_data._Myfirst);

  00053	2b ce		 sub	 ecx, esi
  00055	b8 39 8e e3 38	 mov	 eax, 954437177		; 38e38e39H
  0005a	f7 e9		 imul	 ecx

; 2011 :         if (_Oldcapacity > _Max - _Oldcapacity / 2) {

  0005c	b8 c7 71 1c 07	 mov	 eax, 119304647		; 071c71c7H

; 1924 :         return static_cast<size_type>(_My_data._Myend - _My_data._Myfirst);

  00061	c1 fa 03	 sar	 edx, 3
  00064	8b ca		 mov	 ecx, edx
  00066	c1 e9 1f	 shr	 ecx, 31			; 0000001fH
  00069	03 ca		 add	 ecx, edx

; 2011 :         if (_Oldcapacity > _Max - _Oldcapacity / 2) {

  0006b	8b d1		 mov	 edx, ecx
  0006d	d1 ea		 shr	 edx, 1
  0006f	2b c2		 sub	 eax, edx
  00071	3b c8		 cmp	 ecx, eax
  00073	76 12		 jbe	 SHORT $LN8@Emplace_re

; 2012 :             return _Max; // geometric growth would overflow

  00075	b8 fc ff ff ff	 mov	 eax, -4			; fffffffcH
  0007a	be c7 71 1c 07	 mov	 esi, 119304647		; 071c71c7H
; File C:\Program Files\Microsoft Visual Studio\2022\Professional\VC\Tools\MSVC\14.44.35207\include\xmemory

; 253  :             return _Allocate_manually_vector_aligned<_Traits>(_Bytes);

  0007f	50		 push	 eax
  00080	e8 00 00 00 00	 call	 ??$_Allocate_manually_vector_aligned@U_Default_allocate_traits@std@@@std@@YAPAXI@Z ; std::_Allocate_manually_vector_aligned<std::_Default_allocate_traits>
  00085	eb 39		 jmp	 SHORT $LN96@Emplace_re
$LN8@Emplace_re:
; File C:\Program Files\Microsoft Visual Studio\2022\Professional\VC\Tools\MSVC\14.44.35207\include\vector

; 2015 :         const size_type _Geometric = _Oldcapacity + _Oldcapacity / 2;

  00087	8d 04 0a	 lea	 eax, DWORD PTR [edx+ecx]
; File C:\Program Files\Microsoft Visual Studio\2022\Professional\VC\Tools\MSVC\14.44.35207\include\xmemory

; 117  :         if (_Count > _Max_possible) {

  0008a	8b f7		 mov	 esi, edi
  0008c	3b c7		 cmp	 eax, edi
  0008e	0f 43 f0	 cmovae	 esi, eax
  00091	81 fe c7 71 1c
	07		 cmp	 esi, 119304647		; 071c71c7H
  00097	0f 87 9c 00 00
	00		 ja	 $LN99@Emplace_re

; 119  :         }
; 120  :     }
; 121  : 
; 122  :     return _Count * _Ty_size;

  0009d	8d 04 f6	 lea	 eax, DWORD PTR [esi+esi*8]
  000a0	c1 e0 02	 shl	 eax, 2

; 227  :     if (_Bytes == 0) {

  000a3	85 c0		 test	 eax, eax
  000a5	75 04		 jne	 SHORT $LN23@Emplace_re

; 228  :         return nullptr;

  000a7	33 ff		 xor	 edi, edi
  000a9	eb 1a		 jmp	 SHORT $LN22@Emplace_re
$LN23@Emplace_re:

; 229  :     }
; 230  : 
; 231  : #if _HAS_CXX20 // TRANSITION, GH-1532
; 232  :     if (_STD is_constant_evaluated()) {
; 233  :         return _Traits::_Allocate(_Bytes);
; 234  :     }
; 235  : #endif // _HAS_CXX20
; 236  : 
; 237  : #ifdef __cpp_aligned_new
; 238  :     if constexpr (_Align > __STDCPP_DEFAULT_NEW_ALIGNMENT__) {
; 239  :         size_t _Passed_align = _Align;
; 240  : #if defined(_M_IX86) || defined(_M_X64)
; 241  :         if (_Bytes >= _Big_allocation_threshold) {
; 242  :             // boost the alignment of big allocations to help autovectorization
; 243  :             _Passed_align = (_STD max)(_Align, _Big_allocation_alignment);
; 244  :         }
; 245  : #endif // defined(_M_IX86) || defined(_M_X64)
; 246  :         return _Traits::_Allocate_aligned(_Bytes, _Passed_align);
; 247  :     } else
; 248  : #endif // defined(__cpp_aligned_new)
; 249  :     {
; 250  : #if defined(_M_IX86) || defined(_M_X64)
; 251  :         if (_Bytes >= _Big_allocation_threshold) {

  000ab	3d 00 10 00 00	 cmp	 eax, 4096		; 00001000H
  000b0	72 08		 jb	 SHORT $LN24@Emplace_re

; 253  :             return _Allocate_manually_vector_aligned<_Traits>(_Bytes);

  000b2	50		 push	 eax
  000b3	e8 00 00 00 00	 call	 ??$_Allocate_manually_vector_aligned@U_Default_allocate_traits@std@@@std@@YAPAXI@Z ; std::_Allocate_manually_vector_aligned<std::_Default_allocate_traits>
  000b8	eb 06		 jmp	 SHORT $LN96@Emplace_re
$LN24@Emplace_re:

; 136  :         return ::operator new(_Bytes);

  000ba	50		 push	 eax
  000bb	e8 00 00 00 00	 call	 ??2@YAPAXI@Z		; operator new
$LN96@Emplace_re:
; File C:\Program Files\Microsoft Visual Studio\2022\Professional\VC\Tools\MSVC\14.44.35207\include\vector

; 900  :         _Alty_traits::construct(_Al, _STD _Unfancy(_Newvec + _Whereoff), _STD forward<_Valty>(_Val)...);

  000c0	8b f8		 mov	 edi, eax
  000c2	83 c4 04	 add	 esp, 4
$LN22@Emplace_re:
  000c5	8b 45 f8	 mov	 eax, DWORD PTR __Whereoff$1$[ebp]
  000c8	8d 04 c0	 lea	 eax, DWORD PTR [eax+eax*8]
  000cb	8d 1c 87	 lea	 ebx, DWORD PTR [edi+eax*4]
; File C:\Program Files\Microsoft Visual Studio\2022\Professional\VC\Tools\MSVC\14.44.35207\include\xmemory

; 732  :         ::new (const_cast<void*>(static_cast<const volatile void*>(_Ptr))) _Objty(_STD forward<_Types>(_Args)...);

  000ce	8b 45 0c	 mov	 eax, DWORD PTR _<_Val_0>$[ebp]
  000d1	0f 10 00	 movups	 xmm0, XMMWORD PTR [eax]
  000d4	0f 11 03	 movups	 XMMWORD PTR [ebx], xmm0
  000d7	0f 10 40 10	 movups	 xmm0, XMMWORD PTR [eax+16]
  000db	0f 11 43 10	 movups	 XMMWORD PTR [ebx+16], xmm0
  000df	8b 40 20	 mov	 eax, DWORD PTR [eax+32]
  000e2	89 43 20	 mov	 DWORD PTR [ebx+32], eax
; File C:\Program Files\Microsoft Visual Studio\2022\Professional\VC\Tools\MSVC\14.44.35207\include\vector

; 903  :         if (_Whereptr == _Mylast) { // at back, provide strong guarantee

  000e5	8b 45 fc	 mov	 eax, DWORD PTR _this$1$[ebp]
  000e8	8b 50 04	 mov	 edx, DWORD PTR [eax+4]
  000eb	8b 08		 mov	 ecx, DWORD PTR [eax]
  000ed	8b 45 08	 mov	 eax, DWORD PTR __Whereptr$[ebp]
  000f0	3b c2		 cmp	 eax, edx
  000f2	75 04		 jne	 SHORT $LN3@Emplace_re
; File C:\Program Files\Microsoft Visual Studio\2022\Professional\VC\Tools\MSVC\14.44.35207\include\xmemory

; 1992 :             _STD _Copy_memmove(_UFirst, _ULast, _STD _Unfancy(_Dest));

  000f4	8b c7		 mov	 eax, edi
; File C:\Program Files\Microsoft Visual Studio\2022\Professional\VC\Tools\MSVC\14.44.35207\include\vector

; 909  :         } else { // provide basic guarantee

  000f6	eb 17		 jmp	 SHORT $LN58@Emplace_re
$LN3@Emplace_re:
; File C:\Program Files\Microsoft Visual Studio\2022\Professional\VC\Tools\MSVC\14.44.35207\include\xmemory

; 1992 :             _STD _Copy_memmove(_UFirst, _ULast, _STD _Unfancy(_Dest));

  000f8	57		 push	 edi
  000f9	50		 push	 eax
  000fa	51		 push	 ecx
  000fb	e8 00 00 00 00	 call	 ??$_Copy_memmove@PAUGuildHouse_Furniture_Info@CGuildHouseBase@@PAU12@@std@@YAPAUGuildHouse_Furniture_Info@CGuildHouseBase@@PAU12@00@Z ; std::_Copy_memmove<CGuildHouseBase::GuildHouse_Furniture_Info *,CGuildHouseBase::GuildHouse_Furniture_Info *>
  00100	8b 45 fc	 mov	 eax, DWORD PTR _this$1$[ebp]
  00103	83 c4 0c	 add	 esp, 12			; 0000000cH
  00106	8b 4d 08	 mov	 ecx, DWORD PTR __Whereptr$[ebp]
  00109	8b 50 04	 mov	 edx, DWORD PTR [eax+4]
; File C:\Program Files\Microsoft Visual Studio\2022\Professional\VC\Tools\MSVC\14.44.35207\include\vector

; 912  :             _STD _Uninitialized_move(_Whereptr, _Mylast, _Newvec + _Whereoff + 1, _Al);

  0010c	8d 43 24	 lea	 eax, DWORD PTR [ebx+36]
$LN58@Emplace_re:

; 913  :         }
; 914  : 
; 915  :         _Guard._New_begin = nullptr;

  0010f	50		 push	 eax
  00110	52		 push	 edx
  00111	51		 push	 ecx
  00112	e8 00 00 00 00	 call	 ??$_Copy_memmove@PAUGuildHouse_Furniture_Info@CGuildHouseBase@@PAU12@@std@@YAPAUGuildHouse_Furniture_Info@CGuildHouseBase@@PAU12@00@Z ; std::_Copy_memmove<CGuildHouseBase::GuildHouse_Furniture_Info *,CGuildHouseBase::GuildHouse_Furniture_Info *>

; 916  :         _Change_array(_Newvec, _Newsize, _Newcapacity);

  00117	8b 45 f4	 mov	 eax, DWORD PTR __Oldsize$1$[ebp]
  0011a	83 c4 0c	 add	 esp, 12			; 0000000cH
  0011d	8b 4d fc	 mov	 ecx, DWORD PTR _this$1$[ebp]
  00120	40		 inc	 eax
  00121	56		 push	 esi
  00122	50		 push	 eax
  00123	57		 push	 edi
  00124	e8 00 00 00 00	 call	 ?_Change_array@?$vector@UGuildHouse_Furniture_Info@CGuildHouseBase@@V?$allocator@UGuildHouse_Furniture_Info@CGuildHouseBase@@@std@@@std@@AAEXQAUGuildHouse_Furniture_Info@CGuildHouseBase@@II@Z ; std::vector<CGuildHouseBase::GuildHouse_Furniture_Info,std::allocator<CGuildHouseBase::GuildHouse_Furniture_Info> >::_Change_array

; 918  :     }

  00129	5f		 pop	 edi
  0012a	5e		 pop	 esi
  0012b	8b c3		 mov	 eax, ebx
  0012d	5b		 pop	 ebx
  0012e	8b e5		 mov	 esp, ebp
  00130	5d		 pop	 ebp
  00131	c2 08 00	 ret	 8
$LN98@Emplace_re:

; 888  :             _Xlength();

  00134	e8 00 00 00 00	 call	 ?_Xlength@?$vector@UGuildHouse_Furniture_Info@CGuildHouseBase@@V?$allocator@UGuildHouse_Furniture_Info@CGuildHouseBase@@@std@@@std@@CAXXZ ; std::vector<CGuildHouseBase::GuildHouse_Furniture_Info,std::allocator<CGuildHouseBase::GuildHouse_Furniture_Info> >::_Xlength
$LN99@Emplace_re:
; File C:\Program Files\Microsoft Visual Studio\2022\Professional\VC\Tools\MSVC\14.44.35207\include\xmemory

; 118  :             _Throw_bad_array_new_length(); // multiply overflow

  00139	e8 00 00 00 00	 call	 ?_Throw_bad_array_new_length@std@@YAXXZ ; std::_Throw_bad_array_new_length
$LN95@Emplace_re:
  0013e	cc		 int	 3
??$_Emplace_reallocate@ABUGuildHouse_Furniture_Info@CGuildHouseBase@@@?$vector@UGuildHouse_Furniture_Info@CGuildHouseBase@@V?$allocator@UGuildHouse_Furniture_Info@CGuildHouseBase@@@std@@@std@@AAEPAUGuildHouse_Furniture_Info@CGuildHouseBase@@QAU23@ABU23@@Z ENDP ; std::vector<CGuildHouseBase::GuildHouse_Furniture_Info,std::allocator<CGuildHouseBase::GuildHouse_Furniture_Info> >::_Emplace_reallocate<CGuildHouseBase::GuildHouse_Furniture_Info const &>
_TEXT	ENDS
; Function compile flags: /Ogtp
; File C:\Program Files\Microsoft Visual Studio\2022\Professional\VC\Tools\MSVC\14.44.35207\include\xmemory
; File C:\IAGOS\server\v18\Source\Source\DX_SDK\d3dx9math.inl
; File C:\Program Files\Microsoft Visual Studio\2022\Professional\VC\Tools\MSVC\14.44.35207\include\xmemory
;	COMDAT ??$_Uninitialized_value_construct_n@V?$allocator@UGuildHouse_Furniture_Info@CGuildHouseBase@@@std@@@std@@YAPAUGuildHouse_Furniture_Info@CGuildHouseBase@@PAU12@IAAV?$allocator@UGuildHouse_Furniture_Info@CGuildHouseBase@@@0@@Z
_TEXT	SEGMENT
$T1 = -12						; size = 12
__First$ = 8						; size = 4
__Count$ = 12						; size = 4
__Al$ = 16						; size = 4
??$_Uninitialized_value_construct_n@V?$allocator@UGuildHouse_Furniture_Info@CGuildHouseBase@@@std@@@std@@YAPAUGuildHouse_Furniture_Info@CGuildHouseBase@@PAU12@IAAV?$allocator@UGuildHouse_Furniture_Info@CGuildHouseBase@@@0@@Z PROC ; std::_Uninitialized_value_construct_n<std::allocator<CGuildHouseBase::GuildHouse_Furniture_Info> >, COMDAT

; 2078 :     _Alloc_ptr_t<_Alloc> _First, _Alloc_size_t<_Alloc> _Count, _Alloc& _Al) {

  00000	55		 push	 ebp
  00001	8b ec		 mov	 ebp, esp
  00003	83 ec 0c	 sub	 esp, 12			; 0000000cH
  00006	53		 push	 ebx
  00007	56		 push	 esi

; 1833 :     _CONSTEXPR20 _Uninitialized_backout_al(pointer _Dest, _Alloc& _Al_) : _First(_Dest), _Last(_Dest), _Al(_Al_) {}

  00008	8b 75 08	 mov	 esi, DWORD PTR __First$[ebp]

; 2078 :     _Alloc_ptr_t<_Alloc> _First, _Alloc_size_t<_Alloc> _Count, _Alloc& _Al) {

  0000b	57		 push	 edi

; 2079 :     // value-initialize _Count objects to raw _First, using _Al
; 2080 :     using _Ptrty = typename _Alloc::value_type*;
; 2081 :     if constexpr (_Use_memset_value_construct_v<_Ptrty> && _Uses_default_construct<_Alloc, _Ptrty>::value) {
; 2082 : #if _HAS_CXX20
; 2083 :         if (!_STD is_constant_evaluated())
; 2084 : #endif // _HAS_CXX20
; 2085 :         {
; 2086 :             auto _PFirst = _Unfancy(_First);
; 2087 :             _Zero_range(_PFirst, _PFirst + _Count);
; 2088 :             return _First + _Count;
; 2089 :         }
; 2090 :     }
; 2091 : 
; 2092 :     _Uninitialized_backout_al<_Alloc> _Backout{_First, _Al};
; 2093 :     for (; 0 < _Count; --_Count) {

  0000c	8b 7d 0c	 mov	 edi, DWORD PTR __Count$[ebp]
  0000f	85 ff		 test	 edi, edi
  00011	74 4b		 je	 SHORT $LN20@Uninitiali
; File C:\IAGOS\server\v18\Source\Source\DX_SDK\d3dx9math.inl

; 302  :     z = fz;

  00013	c7 45 fc 00 00
	00 00		 mov	 DWORD PTR $T1[ebp+8], 0
  0001a	8b 5d fc	 mov	 ebx, DWORD PTR $T1[ebp+8]
  0001d	c7 45 f4 00 00
	00 00		 mov	 DWORD PTR $T1[ebp], 0
  00024	c7 45 f8 00 00
	00 00		 mov	 DWORD PTR $T1[ebp+4], 0
  0002b	0f 1f 44 00 00	 npad	 5
$LL4@Uninitiali:
; File C:\Program Files\Microsoft Visual Studio\2022\Professional\VC\Tools\MSVC\14.44.35207\include\xmemory

; 732  :         ::new (const_cast<void*>(static_cast<const volatile void*>(_Ptr))) _Objty(_STD forward<_Types>(_Args)...);

  00030	f3 0f 7e 45 f4	 movq	 xmm0, QWORD PTR $T1[ebp]
  00035	8b ce		 mov	 ecx, esi
  00037	6a 00		 push	 0
  00039	83 ec 10	 sub	 esp, 16			; 00000010H
  0003c	8b c4		 mov	 eax, esp
  0003e	c7 44 24 0c 00
	00 00 00	 mov	 DWORD PTR [esp+12], 0
  00046	6a 00		 push	 0
  00048	66 0f d6 00	 movq	 QWORD PTR [eax], xmm0
  0004c	6a ff		 push	 -1
  0004e	89 58 08	 mov	 DWORD PTR [eax+8], ebx
  00051	e8 00 00 00 00	 call	 ??0GuildHouse_Furniture_Info@CGuildHouseBase@@QAE@KHUD3DXVECTOR3@@MJ@Z ; CGuildHouseBase::GuildHouse_Furniture_Info::GuildHouse_Furniture_Info

; 1845 :         ++_Last;

  00056	83 c6 24	 add	 esi, 36			; 00000024H

; 2079 :     // value-initialize _Count objects to raw _First, using _Al
; 2080 :     using _Ptrty = typename _Alloc::value_type*;
; 2081 :     if constexpr (_Use_memset_value_construct_v<_Ptrty> && _Uses_default_construct<_Alloc, _Ptrty>::value) {
; 2082 : #if _HAS_CXX20
; 2083 :         if (!_STD is_constant_evaluated())
; 2084 : #endif // _HAS_CXX20
; 2085 :         {
; 2086 :             auto _PFirst = _Unfancy(_First);
; 2087 :             _Zero_range(_PFirst, _PFirst + _Count);
; 2088 :             return _First + _Count;
; 2089 :         }
; 2090 :     }
; 2091 : 
; 2092 :     _Uninitialized_backout_al<_Alloc> _Backout{_First, _Al};
; 2093 :     for (; 0 < _Count; --_Count) {

  00059	83 ef 01	 sub	 edi, 1
  0005c	75 d2		 jne	 SHORT $LL4@Uninitiali
$LN20@Uninitiali:

; 2094 :         _Backout._Emplace_back();
; 2095 :     }
; 2096 : 
; 2097 :     return _Backout._Release();
; 2098 : }

  0005e	5f		 pop	 edi
  0005f	8b c6		 mov	 eax, esi
  00061	5e		 pop	 esi
  00062	5b		 pop	 ebx
  00063	8b e5		 mov	 esp, ebp
  00065	5d		 pop	 ebp
  00066	c3		 ret	 0
??$_Uninitialized_value_construct_n@V?$allocator@UGuildHouse_Furniture_Info@CGuildHouseBase@@@std@@@std@@YAPAUGuildHouse_Furniture_Info@CGuildHouseBase@@PAU12@IAAV?$allocator@UGuildHouse_Furniture_Info@CGuildHouseBase@@@0@@Z ENDP ; std::_Uninitialized_value_construct_n<std::allocator<CGuildHouseBase::GuildHouse_Furniture_Info> >
_TEXT	ENDS
; Function compile flags: /Ogtp
; File C:\Program Files\Microsoft Visual Studio\2022\Professional\VC\Tools\MSVC\14.44.35207\include\xutility
;	COMDAT ??$_Copy_memmove@PAUGuildHouse_Furniture_Info@CGuildHouseBase@@PAU12@@std@@YAPAUGuildHouse_Furniture_Info@CGuildHouseBase@@PAU12@00@Z
_TEXT	SEGMENT
__First$ = 8						; size = 4
__Last$ = 12						; size = 4
__Dest$ = 16						; size = 4
??$_Copy_memmove@PAUGuildHouse_Furniture_Info@CGuildHouseBase@@PAU12@@std@@YAPAUGuildHouse_Furniture_Info@CGuildHouseBase@@PAU12@00@Z PROC ; std::_Copy_memmove<CGuildHouseBase::GuildHouse_Furniture_Info *,CGuildHouseBase::GuildHouse_Furniture_Info *>, COMDAT

; 4762 : _OutCtgIt _Copy_memmove(_CtgIt _First, _CtgIt _Last, _OutCtgIt _Dest) {

  00000	55		 push	 ebp
  00001	8b ec		 mov	 ebp, esp

; 4763 :     _STL_INTERNAL_CHECK(_First <= _Last);
; 4764 :     const auto _First_ptr    = _STD _To_address(_First);
; 4765 :     const auto _Last_ptr     = _STD _To_address(_Last);
; 4766 :     const auto _Object_count = static_cast<size_t>(_Last_ptr - _First_ptr);

  00003	8b 4d 0c	 mov	 ecx, DWORD PTR __Last$[ebp]
  00006	b8 39 8e e3 38	 mov	 eax, 954437177		; 38e38e39H
  0000b	2b 4d 08	 sub	 ecx, DWORD PTR __First$[ebp]
  0000e	f7 e9		 imul	 ecx
  00010	c1 fa 03	 sar	 edx, 3
  00013	8b c2		 mov	 eax, edx
  00015	c1 e8 1f	 shr	 eax, 31			; 0000001fH
  00018	03 c2		 add	 eax, edx

; 4767 :     const auto _First_ch     = const_cast<const char*>(reinterpret_cast<const volatile char*>(_First_ptr));
; 4768 :     const auto _Last_ch      = const_cast<const char*>(reinterpret_cast<const volatile char*>(_Last_ptr));
; 4769 :     const auto _Byte_count   = static_cast<size_t>(_Last_ch - _First_ch);
; 4770 :     return _STD _Copy_memmove_tail(_First_ch, _STD move(_Dest), _Byte_count, _Object_count);

  0001a	50		 push	 eax
  0001b	51		 push	 ecx
  0001c	ff 75 10	 push	 DWORD PTR __Dest$[ebp]
  0001f	ff 75 08	 push	 DWORD PTR __First$[ebp]
  00022	e8 00 00 00 00	 call	 ??$_Copy_memmove_tail@PAUGuildHouse_Furniture_Info@CGuildHouseBase@@@std@@YAPAUGuildHouse_Furniture_Info@CGuildHouseBase@@QBDQAU12@II@Z ; std::_Copy_memmove_tail<CGuildHouseBase::GuildHouse_Furniture_Info *>
  00027	83 c4 10	 add	 esp, 16			; 00000010H

; 4771 : }

  0002a	5d		 pop	 ebp
  0002b	c3		 ret	 0
??$_Copy_memmove@PAUGuildHouse_Furniture_Info@CGuildHouseBase@@PAU12@@std@@YAPAUGuildHouse_Furniture_Info@CGuildHouseBase@@PAU12@00@Z ENDP ; std::_Copy_memmove<CGuildHouseBase::GuildHouse_Furniture_Info *,CGuildHouseBase::GuildHouse_Furniture_Info *>
_TEXT	ENDS
; Function compile flags: /Ogtp
; File C:\Program Files\Microsoft Visual Studio\2022\Professional\VC\Tools\MSVC\14.44.35207\include\xtree
; File C:\Program Files\Microsoft Visual Studio\2022\Professional\VC\Tools\MSVC\14.44.35207\include\type_traits
; File C:\Program Files\Microsoft Visual Studio\2022\Professional\VC\Tools\MSVC\14.44.35207\include\xtree
; File C:\Program Files\Microsoft Visual Studio\2022\Professional\VC\Tools\MSVC\14.44.35207\include\type_traits
; File C:\Program Files\Microsoft Visual Studio\2022\Professional\VC\Tools\MSVC\14.44.35207\include\xtree
;	COMDAT ??$_Find_lower_bound@K@?$_Tree@V?$_Tmap_traits@KPAVCGuildHouseBase@@U?$less@K@std@@V?$allocator@U?$pair@$$CBKPAVCGuildHouseBase@@@std@@@3@$0A@@std@@@std@@IBE?AU?$_Tree_find_result@PAU?$_Tree_node@U?$pair@$$CBKPAVCGuildHouseBase@@@std@@PAX@std@@@1@ABK@Z
_TEXT	SEGMENT
___$ReturnUdt$ = 8					; size = 4
__Keyval$ = 12						; size = 4
??$_Find_lower_bound@K@?$_Tree@V?$_Tmap_traits@KPAVCGuildHouseBase@@U?$less@K@std@@V?$allocator@U?$pair@$$CBKPAVCGuildHouseBase@@@std@@@3@$0A@@std@@@std@@IBE?AU?$_Tree_find_result@PAU?$_Tree_node@U?$pair@$$CBKPAVCGuildHouseBase@@@std@@PAX@std@@@1@ABK@Z PROC ; std::_Tree<std::_Tmap_traits<unsigned long,CGuildHouseBase *,std::less<unsigned long>,std::allocator<std::pair<unsigned long const ,CGuildHouseBase *> >,0> >::_Find_lower_bound<unsigned long>, COMDAT
; _this$ = ecx

; 1628 :     _Tree_find_result<_Nodeptr> _Find_lower_bound(const _Keyty& _Keyval) const {

  00000	55		 push	 ebp
  00001	8b ec		 mov	 ebp, esp

; 1629 :         const auto _Scary = _Get_scary();
; 1630 :         _Tree_find_result<_Nodeptr> _Result{{_Scary->_Myhead->_Parent, _Tree_child::_Right}, _Scary->_Myhead};

  00003	8b 09		 mov	 ecx, DWORD PTR [ecx]
  00005	8b 55 08	 mov	 edx, DWORD PTR ___$ReturnUdt$[ebp]
  00008	8b 41 04	 mov	 eax, DWORD PTR [ecx+4]
  0000b	89 02		 mov	 DWORD PTR [edx], eax
  0000d	c7 42 04 00 00
	00 00		 mov	 DWORD PTR [edx+4], 0
  00014	89 4a 08	 mov	 DWORD PTR [edx+8], ecx

; 1631 :         _Nodeptr _Trynode = _Result._Location._Parent;
; 1632 :         while (!_Trynode->_Isnil) {

  00017	80 78 0d 00	 cmp	 BYTE PTR [eax+13], 0
  0001b	75 28		 jne	 SHORT $LN13@Find_lower
; File C:\Program Files\Microsoft Visual Studio\2022\Professional\VC\Tools\MSVC\14.44.35207\include\type_traits

; 2380 :         return _Left < _Right;

  0001d	8b 4d 0c	 mov	 ecx, DWORD PTR __Keyval$[ebp]
  00020	56		 push	 esi
  00021	8b 31		 mov	 esi, DWORD PTR [ecx]
$LL2@Find_lower:
; File C:\Program Files\Microsoft Visual Studio\2022\Professional\VC\Tools\MSVC\14.44.35207\include\xtree

; 1633 :             _Result._Location._Parent = _Trynode;

  00023	89 02		 mov	 DWORD PTR [edx], eax
; File C:\Program Files\Microsoft Visual Studio\2022\Professional\VC\Tools\MSVC\14.44.35207\include\type_traits

; 2380 :         return _Left < _Right;

  00025	39 70 10	 cmp	 DWORD PTR [eax+16], esi
; File C:\Program Files\Microsoft Visual Studio\2022\Professional\VC\Tools\MSVC\14.44.35207\include\xtree

; 1634 :             if (_DEBUG_LT_PRED(_Getcomp(), _Traits::_Kfn(_Trynode->_Myval), _Keyval)) {

  00028	73 07		 jae	 SHORT $LN4@Find_lower

; 1635 :                 _Result._Location._Child = _Tree_child::_Right;
; 1636 :                 _Trynode                 = _Trynode->_Right;

  0002a	8b 40 08	 mov	 eax, DWORD PTR [eax+8]
  0002d	33 c9		 xor	 ecx, ecx

; 1637 :             } else {

  0002f	eb 0a		 jmp	 SHORT $LN5@Find_lower
$LN4@Find_lower:

; 1638 :                 _Result._Location._Child = _Tree_child::_Left;
; 1639 :                 _Result._Bound           = _Trynode;

  00031	89 42 08	 mov	 DWORD PTR [edx+8], eax

; 1640 :                 _Trynode                 = _Trynode->_Left;

  00034	b9 01 00 00 00	 mov	 ecx, 1
  00039	8b 00		 mov	 eax, DWORD PTR [eax]
$LN5@Find_lower:

; 1631 :         _Nodeptr _Trynode = _Result._Location._Parent;
; 1632 :         while (!_Trynode->_Isnil) {

  0003b	89 4a 04	 mov	 DWORD PTR [edx+4], ecx
  0003e	80 78 0d 00	 cmp	 BYTE PTR [eax+13], 0
  00042	74 df		 je	 SHORT $LL2@Find_lower
  00044	5e		 pop	 esi
$LN13@Find_lower:

; 1641 :             }
; 1642 :         }
; 1643 : 
; 1644 :         return _Result;
; 1645 :     }

  00045	8b c2		 mov	 eax, edx
  00047	5d		 pop	 ebp
  00048	c2 08 00	 ret	 8
??$_Find_lower_bound@K@?$_Tree@V?$_Tmap_traits@KPAVCGuildHouseBase@@U?$less@K@std@@V?$allocator@U?$pair@$$CBKPAVCGuildHouseBase@@@std@@@3@$0A@@std@@@std@@IBE?AU?$_Tree_find_result@PAU?$_Tree_node@U?$pair@$$CBKPAVCGuildHouseBase@@@std@@PAX@std@@@1@ABK@Z ENDP ; std::_Tree<std::_Tmap_traits<unsigned long,CGuildHouseBase *,std::less<unsigned long>,std::allocator<std::pair<unsigned long const ,CGuildHouseBase *> >,0> >::_Find_lower_bound<unsigned long>
_TEXT	ENDS
; Function compile flags: /Ogtp
; File C:\Program Files\Microsoft Visual Studio\2022\Professional\VC\Tools\MSVC\14.44.35207\include\vector
; File C:\Program Files\Microsoft Visual Studio\2022\Professional\VC\Tools\MSVC\14.44.35207\include\xmemory
; File C:\Program Files\Microsoft Visual Studio\2022\Professional\VC\Tools\MSVC\14.44.35207\include\vector
; File C:\Program Files\Microsoft Visual Studio\2022\Professional\VC\Tools\MSVC\14.44.35207\include\xmemory
; File C:\Program Files\Microsoft Visual Studio\2022\Professional\VC\Tools\MSVC\14.44.35207\include\vector
; File C:\Program Files\Microsoft Visual Studio\2022\Professional\VC\Tools\MSVC\14.44.35207\include\xmemory
; File C:\Program Files\Microsoft Visual Studio\2022\Professional\VC\Tools\MSVC\14.44.35207\include\vector
; File C:\Program Files\Microsoft Visual Studio\2022\Professional\VC\Tools\MSVC\14.44.35207\include\xmemory
; File C:\Program Files\Microsoft Visual Studio\2022\Professional\VC\Tools\MSVC\14.44.35207\include\vector
;	COMDAT ??$_Resize@U_Value_init_tag@std@@@?$vector@UGuildHouse_Furniture_Info@CGuildHouseBase@@V?$allocator@UGuildHouse_Furniture_Info@CGuildHouseBase@@@std@@@std@@AAEXIABU_Value_init_tag@1@@Z
_TEXT	SEGMENT
__Oldsize$1$ = -4					; size = 4
__Newsize$ = 8						; size = 4
$T1 = 8							; size = 4
__Val$ = 12						; size = 4
??$_Resize@U_Value_init_tag@std@@@?$vector@UGuildHouse_Furniture_Info@CGuildHouseBase@@V?$allocator@UGuildHouse_Furniture_Info@CGuildHouseBase@@@std@@@std@@AAEXIABU_Value_init_tag@1@@Z PROC ; std::vector<CGuildHouseBase::GuildHouse_Furniture_Info,std::allocator<CGuildHouseBase::GuildHouse_Furniture_Info> >::_Resize<std::_Value_init_tag>, COMDAT
; _this$ = ecx

; 1589 :     _CONSTEXPR20 void _Resize(const size_type _Newsize, const _Ty2& _Val) {

  00000	55		 push	 ebp
  00001	8b ec		 mov	 ebp, esp
  00003	51		 push	 ecx
  00004	53		 push	 ebx
  00005	8b d9		 mov	 ebx, ecx

; 1590 :         // trim or append elements, provide strong guarantee
; 1591 :         auto& _Al           = _Getal();
; 1592 :         auto& _My_data      = _Mypair._Myval2;
; 1593 :         pointer& _Myfirst   = _My_data._Myfirst;
; 1594 :         pointer& _Mylast    = _My_data._Mylast;
; 1595 :         const auto _Oldsize = static_cast<size_type>(_Mylast - _Myfirst);

  00007	b8 39 8e e3 38	 mov	 eax, 954437177		; 38e38e39H
  0000c	56		 push	 esi

; 1596 :         if (_Newsize < _Oldsize) { // trim

  0000d	8b 75 08	 mov	 esi, DWORD PTR __Newsize$[ebp]
  00010	57		 push	 edi
  00011	8b 53 04	 mov	 edx, DWORD PTR [ebx+4]
  00014	8b 0b		 mov	 ecx, DWORD PTR [ebx]
  00016	2b d1		 sub	 edx, ecx
  00018	f7 ea		 imul	 edx
  0001a	c1 fa 03	 sar	 edx, 3
  0001d	8b fa		 mov	 edi, edx
  0001f	c1 ef 1f	 shr	 edi, 31			; 0000001fH
  00022	03 fa		 add	 edi, edx
  00024	89 7d fc	 mov	 DWORD PTR __Oldsize$1$[ebp], edi
  00027	3b f7		 cmp	 esi, edi
  00029	73 12		 jae	 SHORT $LN2@Resize

; 1597 :             const pointer _Newlast = _Myfirst + _Newsize;

  0002b	8d 04 f6	 lea	 eax, DWORD PTR [esi+esi*8]
  0002e	5f		 pop	 edi
  0002f	8d 04 81	 lea	 eax, DWORD PTR [ecx+eax*4]

; 1625 :     }

  00032	5e		 pop	 esi
  00033	89 43 04	 mov	 DWORD PTR [ebx+4], eax
  00036	5b		 pop	 ebx
  00037	8b e5		 mov	 esp, ebp
  00039	5d		 pop	 ebp
  0003a	c2 08 00	 ret	 8
$LN2@Resize:

; 1598 :             _Orphan_range(_Newlast, _Mylast);
; 1599 :             _Destroy_range(_Newlast, _Mylast, _Al);
; 1600 :             _ASAN_VECTOR_MODIFY(static_cast<difference_type>(_Newsize - _Oldsize));
; 1601 :             _Mylast = _Newlast;
; 1602 :             return;
; 1603 :         }
; 1604 : 
; 1605 :         if (_Newsize > _Oldsize) { // append

  0003d	0f 86 e2 00 00
	00		 jbe	 $LN3@Resize

; 1606 :             const auto _Oldcapacity = static_cast<size_type>(_My_data._Myend - _Myfirst);

  00043	8b 4b 08	 mov	 ecx, DWORD PTR [ebx+8]
  00046	b8 39 8e e3 38	 mov	 eax, 954437177		; 38e38e39H
  0004b	2b 0b		 sub	 ecx, DWORD PTR [ebx]
  0004d	f7 e9		 imul	 ecx
  0004f	c1 fa 03	 sar	 edx, 3
  00052	8b ca		 mov	 ecx, edx
  00054	c1 e9 1f	 shr	 ecx, 31			; 0000001fH
  00057	03 ca		 add	 ecx, edx

; 1607 :             if (_Newsize > _Oldcapacity) { // reallocate

  00059	3b f1		 cmp	 esi, ecx
  0005b	0f 86 b2 00 00
	00		 jbe	 $LN4@Resize

; 1553 :         if (_Newsize > max_size()) {

  00061	81 fe c7 71 1c
	07		 cmp	 esi, 119304647		; 071c71c7H
  00067	0f 87 c1 00 00
	00		 ja	 $LN78@Resize

; 2011 :         if (_Oldcapacity > _Max - _Oldcapacity / 2) {

  0006d	8b d1		 mov	 edx, ecx
  0006f	b8 c7 71 1c 07	 mov	 eax, 119304647		; 071c71c7H
  00074	d1 ea		 shr	 edx, 1
  00076	2b c2		 sub	 eax, edx
  00078	3b c8		 cmp	 ecx, eax
  0007a	76 17		 jbe	 SHORT $LN11@Resize

; 2012 :             return _Max; // geometric growth would overflow

  0007c	b8 fc ff ff ff	 mov	 eax, -4			; fffffffcH
  00081	bf c7 71 1c 07	 mov	 edi, 119304647		; 071c71c7H
; File C:\Program Files\Microsoft Visual Studio\2022\Professional\VC\Tools\MSVC\14.44.35207\include\xmemory

; 253  :             return _Allocate_manually_vector_aligned<_Traits>(_Bytes);

  00086	50		 push	 eax
  00087	e8 00 00 00 00	 call	 ??$_Allocate_manually_vector_aligned@U_Default_allocate_traits@std@@@std@@YAPAXI@Z ; std::_Allocate_manually_vector_aligned<std::_Default_allocate_traits>
  0008c	8b c8		 mov	 ecx, eax
  0008e	89 4d 08	 mov	 DWORD PTR $T1[ebp], ecx
  00091	eb 43		 jmp	 SHORT $LN76@Resize
$LN11@Resize:
; File C:\Program Files\Microsoft Visual Studio\2022\Professional\VC\Tools\MSVC\14.44.35207\include\vector

; 2015 :         const size_type _Geometric = _Oldcapacity + _Oldcapacity / 2;

  00093	8d 3c 0a	 lea	 edi, DWORD PTR [edx+ecx]

; 2016 : 
; 2017 :         if (_Geometric < _Newsize) {

  00096	3b fe		 cmp	 edi, esi
  00098	73 13		 jae	 SHORT $LN12@Resize

; 2018 :             return _Newsize; // geometric growth would be insufficient

  0009a	8b fe		 mov	 edi, esi
$LN22@Resize:
; File C:\Program Files\Microsoft Visual Studio\2022\Professional\VC\Tools\MSVC\14.44.35207\include\xmemory

; 122  :     return _Count * _Ty_size;

  0009c	8d 04 ff	 lea	 eax, DWORD PTR [edi+edi*8]
  0009f	c1 e0 02	 shl	 eax, 2

; 227  :     if (_Bytes == 0) {

  000a2	85 c0		 test	 eax, eax
  000a4	75 11		 jne	 SHORT $LN26@Resize

; 228  :         return nullptr;

  000a6	33 c9		 xor	 ecx, ecx
  000a8	89 4d 08	 mov	 DWORD PTR $T1[ebp], ecx
  000ab	eb 2c		 jmp	 SHORT $LN25@Resize
$LN12@Resize:

; 117  :         if (_Count > _Max_possible) {

  000ad	81 ff c7 71 1c
	07		 cmp	 edi, 119304647		; 071c71c7H
  000b3	77 7e		 ja	 SHORT $LN79@Resize
  000b5	eb e5		 jmp	 SHORT $LN22@Resize
$LN26@Resize:

; 251  :         if (_Bytes >= _Big_allocation_threshold) {

  000b7	3d 00 10 00 00	 cmp	 eax, 4096		; 00001000H
  000bc	72 0d		 jb	 SHORT $LN27@Resize

; 253  :             return _Allocate_manually_vector_aligned<_Traits>(_Bytes);

  000be	50		 push	 eax
  000bf	e8 00 00 00 00	 call	 ??$_Allocate_manually_vector_aligned@U_Default_allocate_traits@std@@@std@@YAPAXI@Z ; std::_Allocate_manually_vector_aligned<std::_Default_allocate_traits>
  000c4	8b c8		 mov	 ecx, eax
  000c6	89 4d 08	 mov	 DWORD PTR $T1[ebp], ecx
  000c9	eb 0b		 jmp	 SHORT $LN76@Resize
$LN27@Resize:

; 136  :         return ::operator new(_Bytes);

  000cb	50		 push	 eax
  000cc	e8 00 00 00 00	 call	 ??2@YAPAXI@Z		; operator new

; 256  :         return _Traits::_Allocate(_Bytes);

  000d1	8b c8		 mov	 ecx, eax
  000d3	89 45 08	 mov	 DWORD PTR $T1[ebp], eax
$LN76@Resize:
; File C:\Program Files\Microsoft Visual Studio\2022\Professional\VC\Tools\MSVC\14.44.35207\include\vector

; 1575 :             _Appended_last = _Uninitialized_value_construct_n(_Appended_first, _Newsize - _Oldsize, _Al);

  000d6	83 c4 04	 add	 esp, 4
$LN25@Resize:
  000d9	8b 55 fc	 mov	 edx, DWORD PTR __Oldsize$1$[ebp]
  000dc	8b c6		 mov	 eax, esi
  000de	2b c2		 sub	 eax, edx
  000e0	53		 push	 ebx
  000e1	50		 push	 eax
  000e2	8d 04 d2	 lea	 eax, DWORD PTR [edx+edx*8]
  000e5	8d 04 81	 lea	 eax, DWORD PTR [ecx+eax*4]
  000e8	50		 push	 eax
  000e9	e8 00 00 00 00	 call	 ??$_Uninitialized_value_construct_n@V?$allocator@UGuildHouse_Furniture_Info@CGuildHouseBase@@@std@@@std@@YAPAUGuildHouse_Furniture_Info@CGuildHouseBase@@PAU12@IAAV?$allocator@UGuildHouse_Furniture_Info@CGuildHouseBase@@@0@@Z ; std::_Uninitialized_value_construct_n<std::allocator<CGuildHouseBase::GuildHouse_Furniture_Info> >
; File C:\Program Files\Microsoft Visual Studio\2022\Professional\VC\Tools\MSVC\14.44.35207\include\xmemory

; 1992 :             _STD _Copy_memmove(_UFirst, _ULast, _STD _Unfancy(_Dest));

  000ee	ff 75 08	 push	 DWORD PTR $T1[ebp]
  000f1	ff 73 04	 push	 DWORD PTR [ebx+4]
  000f4	ff 33		 push	 DWORD PTR [ebx]
  000f6	e8 00 00 00 00	 call	 ??$_Copy_memmove@PAUGuildHouse_Furniture_Info@CGuildHouseBase@@PAU12@@std@@YAPAUGuildHouse_Furniture_Info@CGuildHouseBase@@PAU12@00@Z ; std::_Copy_memmove<CGuildHouseBase::GuildHouse_Furniture_Info *,CGuildHouseBase::GuildHouse_Furniture_Info *>
  000fb	83 c4 18	 add	 esp, 24			; 00000018H
; File C:\Program Files\Microsoft Visual Studio\2022\Professional\VC\Tools\MSVC\14.44.35207\include\vector

; 1585 :         _Change_array(_Newvec, _Newsize, _Newcapacity);

  000fe	8b cb		 mov	 ecx, ebx
  00100	57		 push	 edi
  00101	56		 push	 esi
  00102	ff 75 08	 push	 DWORD PTR $T1[ebp]
  00105	e8 00 00 00 00	 call	 ?_Change_array@?$vector@UGuildHouse_Furniture_Info@CGuildHouseBase@@V?$allocator@UGuildHouse_Furniture_Info@CGuildHouseBase@@@std@@@std@@AAEXQAUGuildHouse_Furniture_Info@CGuildHouseBase@@II@Z ; std::vector<CGuildHouseBase::GuildHouse_Furniture_Info,std::allocator<CGuildHouseBase::GuildHouse_Furniture_Info> >::_Change_array
  0010a	5f		 pop	 edi

; 1625 :     }

  0010b	5e		 pop	 esi
  0010c	5b		 pop	 ebx
  0010d	8b e5		 mov	 esp, ebp
  0010f	5d		 pop	 ebp
  00110	c2 08 00	 ret	 8
$LN4@Resize:

; 1608 :                 _Resize_reallocate(_Newsize, _Val);
; 1609 :                 return;
; 1610 :             }
; 1611 : 
; 1612 :             _ASAN_VECTOR_EXTEND_GUARD(_Newsize);
; 1613 :             const pointer _Oldlast = _Mylast;
; 1614 :             if constexpr (is_same_v<_Ty2, _Ty>) {
; 1615 :                 _Mylast = _Uninitialized_fill_n(_Oldlast, _Newsize - _Oldsize, _Val, _Al);
; 1616 :             } else {
; 1617 :                 _STL_INTERNAL_STATIC_ASSERT(is_same_v<_Ty2, _Value_init_tag>);
; 1618 :                 _Mylast = _Uninitialized_value_construct_n(_Oldlast, _Newsize - _Oldsize, _Al);

  00113	53		 push	 ebx
  00114	2b f7		 sub	 esi, edi
  00116	56		 push	 esi
  00117	ff 73 04	 push	 DWORD PTR [ebx+4]
  0011a	e8 00 00 00 00	 call	 ??$_Uninitialized_value_construct_n@V?$allocator@UGuildHouse_Furniture_Info@CGuildHouseBase@@@std@@@std@@YAPAUGuildHouse_Furniture_Info@CGuildHouseBase@@PAU12@IAAV?$allocator@UGuildHouse_Furniture_Info@CGuildHouseBase@@@0@@Z ; std::_Uninitialized_value_construct_n<std::allocator<CGuildHouseBase::GuildHouse_Furniture_Info> >
  0011f	83 c4 0c	 add	 esp, 12			; 0000000cH

; 1625 :     }

  00122	89 43 04	 mov	 DWORD PTR [ebx+4], eax
$LN3@Resize:
  00125	5f		 pop	 edi
  00126	5e		 pop	 esi
  00127	5b		 pop	 ebx
  00128	8b e5		 mov	 esp, ebp
  0012a	5d		 pop	 ebp
  0012b	c2 08 00	 ret	 8
$LN78@Resize:

; 1554 :             _Xlength();

  0012e	e8 00 00 00 00	 call	 ?_Xlength@?$vector@UGuildHouse_Furniture_Info@CGuildHouseBase@@V?$allocator@UGuildHouse_Furniture_Info@CGuildHouseBase@@@std@@@std@@CAXXZ ; std::vector<CGuildHouseBase::GuildHouse_Furniture_Info,std::allocator<CGuildHouseBase::GuildHouse_Furniture_Info> >::_Xlength
$LN79@Resize:
; File C:\Program Files\Microsoft Visual Studio\2022\Professional\VC\Tools\MSVC\14.44.35207\include\xmemory

; 118  :             _Throw_bad_array_new_length(); // multiply overflow

  00133	e8 00 00 00 00	 call	 ?_Throw_bad_array_new_length@std@@YAXXZ ; std::_Throw_bad_array_new_length
$LN74@Resize:
  00138	cc		 int	 3
??$_Resize@U_Value_init_tag@std@@@?$vector@UGuildHouse_Furniture_Info@CGuildHouseBase@@V?$allocator@UGuildHouse_Furniture_Info@CGuildHouseBase@@@std@@@std@@AAEXIABU_Value_init_tag@1@@Z ENDP ; std::vector<CGuildHouseBase::GuildHouse_Furniture_Info,std::allocator<CGuildHouseBase::GuildHouse_Furniture_Info> >::_Resize<std::_Value_init_tag>
_TEXT	ENDS
; Function compile flags: /Ogtp
; File C:\Program Files\Microsoft Visual Studio\2022\Professional\VC\Tools\MSVC\14.44.35207\include\xtree
; File C:\Program Files\Microsoft Visual Studio\2022\Professional\VC\Tools\MSVC\14.44.35207\include\utility
; File C:\Program Files\Microsoft Visual Studio\2022\Professional\VC\Tools\MSVC\14.44.35207\include\xmemory
; File C:\Program Files\Microsoft Visual Studio\2022\Professional\VC\Tools\MSVC\14.44.35207\include\xtree
;	COMDAT ??$_Erase_tree@V?$allocator@U?$_Tree_node@U?$pair@$$CBKPAVCGuildHouseBase@@@std@@PAX@std@@@std@@@?$_Tree_val@U?$_Tree_simple_types@U?$pair@$$CBKPAVCGuildHouseBase@@@std@@@std@@@std@@QAEXAAV?$allocator@U?$_Tree_node@U?$pair@$$CBKPAVCGuildHouseBase@@@std@@PAX@std@@@1@PAU?$_Tree_node@U?$pair@$$CBKPAVCGuildHouseBase@@@std@@PAX@1@@Z
_TEXT	SEGMENT
__Al$ = 8						; size = 4
__Rootnode$ = 12					; size = 4
??$_Erase_tree@V?$allocator@U?$_Tree_node@U?$pair@$$CBKPAVCGuildHouseBase@@@std@@PAX@std@@@std@@@?$_Tree_val@U?$_Tree_simple_types@U?$pair@$$CBKPAVCGuildHouseBase@@@std@@@std@@@std@@QAEXAAV?$allocator@U?$_Tree_node@U?$pair@$$CBKPAVCGuildHouseBase@@@std@@PAX@std@@@1@PAU?$_Tree_node@U?$pair@$$CBKPAVCGuildHouseBase@@@std@@PAX@1@@Z PROC ; std::_Tree_val<std::_Tree_simple_types<std::pair<unsigned long const ,CGuildHouseBase *> > >::_Erase_tree<std::allocator<std::_Tree_node<std::pair<unsigned long const ,CGuildHouseBase *>,void *> > >, COMDAT
; _this$ = ecx

; 767  :     void _Erase_tree(_Alnode& _Al, _Nodeptr _Rootnode) noexcept {

  00000	55		 push	 ebp
  00001	8b ec		 mov	 ebp, esp
  00003	53		 push	 ebx
  00004	56		 push	 esi

; 768  :         while (!_Rootnode->_Isnil) { // free subtrees, then node

  00005	8b 75 0c	 mov	 esi, DWORD PTR __Rootnode$[ebp]
  00008	8b d9		 mov	 ebx, ecx
  0000a	80 7e 0d 00	 cmp	 BYTE PTR [esi+13], 0
  0000e	75 25		 jne	 SHORT $LN34@Erase_tree
  00010	57		 push	 edi
  00011	8b 7d 08	 mov	 edi, DWORD PTR __Al$[ebp]
$LL2@Erase_tree:

; 769  :             _Erase_tree(_Al, _Rootnode->_Right);

  00014	ff 76 08	 push	 DWORD PTR [esi+8]
  00017	8b cb		 mov	 ecx, ebx
  00019	57		 push	 edi
  0001a	e8 00 00 00 00	 call	 ??$_Erase_tree@V?$allocator@U?$_Tree_node@U?$pair@$$CBKPAVCGuildHouseBase@@@std@@PAX@std@@@std@@@?$_Tree_val@U?$_Tree_simple_types@U?$pair@$$CBKPAVCGuildHouseBase@@@std@@@std@@@std@@QAEXAAV?$allocator@U?$_Tree_node@U?$pair@$$CBKPAVCGuildHouseBase@@@std@@PAX@std@@@1@PAU?$_Tree_node@U?$pair@$$CBKPAVCGuildHouseBase@@@std@@PAX@1@@Z ; std::_Tree_val<std::_Tree_simple_types<std::pair<unsigned long const ,CGuildHouseBase *> > >::_Erase_tree<std::allocator<std::_Tree_node<std::pair<unsigned long const ,CGuildHouseBase *>,void *> > >
; File C:\Program Files\Microsoft Visual Studio\2022\Professional\VC\Tools\MSVC\14.44.35207\include\utility

; 773  :     _Ty _Old_val = static_cast<_Ty&&>(_Val);

  0001f	8b c6		 mov	 eax, esi

; 774  :     _Val         = static_cast<_Other&&>(_New_val);

  00021	8b 36		 mov	 esi, DWORD PTR [esi]
; File C:\Program Files\Microsoft Visual Studio\2022\Professional\VC\Tools\MSVC\14.44.35207\include\xmemory

; 289  :         ::operator delete(_Ptr, _Bytes);

  00023	6a 18		 push	 24			; 00000018H
  00025	50		 push	 eax
  00026	e8 00 00 00 00	 call	 ??3@YAXPAXI@Z		; operator delete
  0002b	83 c4 08	 add	 esp, 8
; File C:\Program Files\Microsoft Visual Studio\2022\Professional\VC\Tools\MSVC\14.44.35207\include\xtree

; 768  :         while (!_Rootnode->_Isnil) { // free subtrees, then node

  0002e	80 7e 0d 00	 cmp	 BYTE PTR [esi+13], 0
  00032	74 e0		 je	 SHORT $LL2@Erase_tree
  00034	5f		 pop	 edi
$LN34@Erase_tree:
  00035	5e		 pop	 esi

; 770  :             _Alnode::value_type::_Freenode(_Al, _STD exchange(_Rootnode, _Rootnode->_Left));
; 771  :         }
; 772  :     }

  00036	5b		 pop	 ebx
  00037	5d		 pop	 ebp
  00038	c2 08 00	 ret	 8
??$_Erase_tree@V?$allocator@U?$_Tree_node@U?$pair@$$CBKPAVCGuildHouseBase@@@std@@PAX@std@@@std@@@?$_Tree_val@U?$_Tree_simple_types@U?$pair@$$CBKPAVCGuildHouseBase@@@std@@@std@@@std@@QAEXAAV?$allocator@U?$_Tree_node@U?$pair@$$CBKPAVCGuildHouseBase@@@std@@PAX@std@@@1@PAU?$_Tree_node@U?$pair@$$CBKPAVCGuildHouseBase@@@std@@PAX@1@@Z ENDP ; std::_Tree_val<std::_Tree_simple_types<std::pair<unsigned long const ,CGuildHouseBase *> > >::_Erase_tree<std::allocator<std::_Tree_node<std::pair<unsigned long const ,CGuildHouseBase *>,void *> > >
_TEXT	ENDS
; Function compile flags: /Ogtp
; File C:\IAGOS\server\v18\Source\Source\_Network\Misc\Include\Ar.h
;	COMDAT ??$?6W4<unnamed-enum-GUILDHOUSE_PCKTTYPE_LISTUP>@@@CAr@@QAEAAV0@ABW4<unnamed-enum-GUILDHOUSE_PCKTTYPE_LISTUP>@@@Z
_TEXT	SEGMENT
_t$ = 8							; size = 4
??$?6W4<unnamed-enum-GUILDHOUSE_PCKTTYPE_LISTUP>@@@CAr@@QAEAAV0@ABW4<unnamed-enum-GUILDHOUSE_PCKTTYPE_LISTUP>@@@Z PROC ; CAr::operator<<<enum <unnamed-enum-GUILDHOUSE_PCKTTYPE_LISTUP> >, COMDAT
; _this$ = ecx

; 255  : {

  00000	55		 push	 ebp
  00001	8b ec		 mov	 ebp, esp
  00003	56		 push	 esi

; 256  : 	CheckBuf(sizeof(T));

  00004	6a 04		 push	 4
  00006	8b f1		 mov	 esi, ecx
  00008	e8 00 00 00 00	 call	 ?CheckBuf@CAr@@QAEXI@Z	; CAr::CheckBuf

; 257  : 	*(UNALIGNED T*)m_lpBufCur = t;

  0000d	8b 56 08	 mov	 edx, DWORD PTR [esi+8]
  00010	8b 45 08	 mov	 eax, DWORD PTR _t$[ebp]
  00013	8b 00		 mov	 eax, DWORD PTR [eax]
  00015	89 02		 mov	 DWORD PTR [edx], eax

; 258  : 	m_lpBufCur += sizeof(T);
; 259  : 	return *this;

  00017	8b c6		 mov	 eax, esi
  00019	83 46 08 04	 add	 DWORD PTR [esi+8], 4
  0001d	5e		 pop	 esi

; 260  : }

  0001e	5d		 pop	 ebp
  0001f	c2 04 00	 ret	 4
??$?6W4<unnamed-enum-GUILDHOUSE_PCKTTYPE_LISTUP>@@@CAr@@QAEAAV0@ABW4<unnamed-enum-GUILDHOUSE_PCKTTYPE_LISTUP>@@@Z ENDP ; CAr::operator<<<enum <unnamed-enum-GUILDHOUSE_PCKTTYPE_LISTUP> >
_TEXT	ENDS
; Function compile flags: /Ogtp
;	COMDAT ??__FsGHM@?1??GetInstance@CGuildHouseMng@@SAPAV1@XZ@YAXXZ
text$yd	SEGMENT
??__FsGHM@?1??GetInstance@CGuildHouseMng@@SAPAV1@XZ@YAXXZ PROC ; `CGuildHouseMng::GetInstance'::`2'::`dynamic atexit destructor for 'sGHM'', COMDAT
  00000	b9 00 00 00 00	 mov	 ecx, OFFSET ?sGHM@?1??GetInstance@CGuildHouseMng@@SAPAV2@XZ@4V2@A
  00005	e9 00 00 00 00	 jmp	 ??1CGuildHouseMng@@QAE@XZ ; CGuildHouseMng::~CGuildHouseMng
??__FsGHM@?1??GetInstance@CGuildHouseMng@@SAPAV1@XZ@YAXXZ ENDP ; `CGuildHouseMng::GetInstance'::`2'::`dynamic atexit destructor for 'sGHM''
text$yd	ENDS
; Function compile flags: /Ogtp
; File C:\IAGOS\server\v18\Source\Source\_Network\Misc\Include\Ar.h
;	COMDAT ??$?6I@CAr@@QAEAAV0@ABI@Z
_TEXT	SEGMENT
_t$ = 8							; size = 4
??$?6I@CAr@@QAEAAV0@ABI@Z PROC				; CAr::operator<<<unsigned int>, COMDAT
; _this$ = ecx

; 255  : {

  00000	55		 push	 ebp
  00001	8b ec		 mov	 ebp, esp
  00003	56		 push	 esi

; 256  : 	CheckBuf(sizeof(T));

  00004	6a 04		 push	 4
  00006	8b f1		 mov	 esi, ecx
  00008	e8 00 00 00 00	 call	 ?CheckBuf@CAr@@QAEXI@Z	; CAr::CheckBuf

; 257  : 	*(UNALIGNED T*)m_lpBufCur = t;

  0000d	8b 56 08	 mov	 edx, DWORD PTR [esi+8]
  00010	8b 45 08	 mov	 eax, DWORD PTR _t$[ebp]
  00013	8b 00		 mov	 eax, DWORD PTR [eax]
  00015	89 02		 mov	 DWORD PTR [edx], eax

; 258  : 	m_lpBufCur += sizeof(T);
; 259  : 	return *this;

  00017	8b c6		 mov	 eax, esi
  00019	83 46 08 04	 add	 DWORD PTR [esi+8], 4
  0001d	5e		 pop	 esi

; 260  : }

  0001e	5d		 pop	 ebp
  0001f	c2 04 00	 ret	 4
??$?6I@CAr@@QAEAAV0@ABI@Z ENDP				; CAr::operator<<<unsigned int>
_TEXT	ENDS
; Function compile flags: /Ogtp
; File C:\IAGOS\server\v18\Source\Source\_Network\Misc\Include\Ar.h
;	COMDAT ??$?5J@CAr@@QAEAAV0@AAJ@Z
_TEXT	SEGMENT
_t$ = 8							; size = 4
??$?5J@CAr@@QAEAAV0@AAJ@Z PROC				; CAr::operator>><long>, COMDAT
; _this$ = ecx

; 302  : {

  00000	55		 push	 ebp
  00001	8b ec		 mov	 ebp, esp
  00003	8b d1		 mov	 edx, ecx

; 303  : 	if (m_lpBufCur + sizeof(T) <= m_lpBufMax)

  00005	8b 4a 08	 mov	 ecx, DWORD PTR [edx+8]
  00008	8d 41 04	 lea	 eax, DWORD PTR [ecx+4]
  0000b	3b 42 0c	 cmp	 eax, DWORD PTR [edx+12]
  0000e	8b 45 08	 mov	 eax, DWORD PTR _t$[ebp]
  00011	77 0e		 ja	 SHORT $LN2@operator

; 304  : 	{
; 305  : 		t = *(UNALIGNED T*)m_lpBufCur;

  00013	8b 09		 mov	 ecx, DWORD PTR [ecx]
  00015	89 08		 mov	 DWORD PTR [eax], ecx

; 312  : 	}
; 313  : 	return *this;
; 314  : }

  00017	8b c2		 mov	 eax, edx
  00019	83 42 08 04	 add	 DWORD PTR [edx+8], 4
  0001d	5d		 pop	 ebp
  0001e	c2 04 00	 ret	 4
$LN2@operator:

; 306  : 		m_lpBufCur += sizeof(T);
; 307  : 	}
; 308  : 	else
; 309  : 	{
; 310  : 		t = T();

  00021	c7 00 00 00 00
	00		 mov	 DWORD PTR [eax], 0

; 311  : 		m_lpBufCur = m_lpBufMax;

  00027	8b 42 0c	 mov	 eax, DWORD PTR [edx+12]
  0002a	89 42 08	 mov	 DWORD PTR [edx+8], eax

; 312  : 	}
; 313  : 	return *this;
; 314  : }

  0002d	8b c2		 mov	 eax, edx
  0002f	5d		 pop	 ebp
  00030	c2 04 00	 ret	 4
??$?5J@CAr@@QAEAAV0@AAJ@Z ENDP				; CAr::operator>><long>
_TEXT	ENDS
; Function compile flags: /Ogtp
; File C:\IAGOS\server\v18\Source\Source\_Network\Misc\Include\Ar.h
;	COMDAT ??$?5M@CAr@@QAEAAV0@AAM@Z
_TEXT	SEGMENT
_t$ = 8							; size = 4
??$?5M@CAr@@QAEAAV0@AAM@Z PROC				; CAr::operator>><float>, COMDAT
; _this$ = ecx

; 302  : {

  00000	55		 push	 ebp
  00001	8b ec		 mov	 ebp, esp
  00003	8b d1		 mov	 edx, ecx

; 303  : 	if (m_lpBufCur + sizeof(T) <= m_lpBufMax)

  00005	8b 4a 08	 mov	 ecx, DWORD PTR [edx+8]
  00008	8d 41 04	 lea	 eax, DWORD PTR [ecx+4]
  0000b	3b 42 0c	 cmp	 eax, DWORD PTR [edx+12]
  0000e	8b 45 08	 mov	 eax, DWORD PTR _t$[ebp]
  00011	77 0e		 ja	 SHORT $LN2@operator

; 304  : 	{
; 305  : 		t = *(UNALIGNED T*)m_lpBufCur;

  00013	8b 09		 mov	 ecx, DWORD PTR [ecx]
  00015	89 08		 mov	 DWORD PTR [eax], ecx

; 312  : 	}
; 313  : 	return *this;
; 314  : }

  00017	8b c2		 mov	 eax, edx
  00019	83 42 08 04	 add	 DWORD PTR [edx+8], 4
  0001d	5d		 pop	 ebp
  0001e	c2 04 00	 ret	 4
$LN2@operator:

; 306  : 		m_lpBufCur += sizeof(T);
; 307  : 	}
; 308  : 	else
; 309  : 	{
; 310  : 		t = T();

  00021	c7 00 00 00 00
	00		 mov	 DWORD PTR [eax], 0

; 311  : 		m_lpBufCur = m_lpBufMax;

  00027	8b 42 0c	 mov	 eax, DWORD PTR [edx+12]
  0002a	89 42 08	 mov	 DWORD PTR [edx+8], eax

; 312  : 	}
; 313  : 	return *this;
; 314  : }

  0002d	8b c2		 mov	 eax, edx
  0002f	5d		 pop	 ebp
  00030	c2 04 00	 ret	 4
??$?5M@CAr@@QAEAAV0@AAM@Z ENDP				; CAr::operator>><float>
_TEXT	ENDS
; Function compile flags: /Ogtp
; File C:\IAGOS\server\v18\Source\Source\_Network\Misc\Include\Ar.h
;	COMDAT ??$?5UD3DXVECTOR3@@@CAr@@QAEAAV0@AAUD3DXVECTOR3@@@Z
_TEXT	SEGMENT
$T1 = -12						; size = 12
_t$ = 8							; size = 4
??$?5UD3DXVECTOR3@@@CAr@@QAEAAV0@AAUD3DXVECTOR3@@@Z PROC ; CAr::operator>><D3DXVECTOR3>, COMDAT
; _this$ = ecx

; 302  : {

  00000	55		 push	 ebp
  00001	8b ec		 mov	 ebp, esp
  00003	83 ec 0c	 sub	 esp, 12			; 0000000cH
  00006	8b d1		 mov	 edx, ecx

; 303  : 	if (m_lpBufCur + sizeof(T) <= m_lpBufMax)

  00008	8b 4d 08	 mov	 ecx, DWORD PTR _t$[ebp]
  0000b	56		 push	 esi
  0000c	8b 72 08	 mov	 esi, DWORD PTR [edx+8]
  0000f	8d 46 0c	 lea	 eax, DWORD PTR [esi+12]
  00012	3b 42 0c	 cmp	 eax, DWORD PTR [edx+12]
  00015	77 1b		 ja	 SHORT $LN2@operator

; 304  : 	{
; 305  : 		t = *(UNALIGNED T*)m_lpBufCur;

  00017	f3 0f 7e 06	 movq	 xmm0, QWORD PTR [esi]
  0001b	66 0f d6 01	 movq	 QWORD PTR [ecx], xmm0
  0001f	8b 46 08	 mov	 eax, DWORD PTR [esi+8]
  00022	89 41 08	 mov	 DWORD PTR [ecx+8], eax

; 312  : 	}
; 313  : 	return *this;
; 314  : }

  00025	8b c2		 mov	 eax, edx
  00027	83 42 08 0c	 add	 DWORD PTR [edx+8], 12	; 0000000cH
  0002b	5e		 pop	 esi
  0002c	8b e5		 mov	 esp, ebp
  0002e	5d		 pop	 ebp
  0002f	c2 04 00	 ret	 4
$LN2@operator:

; 306  : 		m_lpBufCur += sizeof(T);
; 307  : 	}
; 308  : 	else
; 309  : 	{
; 310  : 		t = T();

  00032	f3 0f 7e 45 f4	 movq	 xmm0, QWORD PTR $T1[ebp]
  00037	8b 45 fc	 mov	 eax, DWORD PTR $T1[ebp+8]
  0003a	66 0f d6 01	 movq	 QWORD PTR [ecx], xmm0
  0003e	89 41 08	 mov	 DWORD PTR [ecx+8], eax

; 311  : 		m_lpBufCur = m_lpBufMax;

  00041	8b 42 0c	 mov	 eax, DWORD PTR [edx+12]
  00044	89 42 08	 mov	 DWORD PTR [edx+8], eax

; 312  : 	}
; 313  : 	return *this;
; 314  : }

  00047	8b c2		 mov	 eax, edx
  00049	5e		 pop	 esi
  0004a	8b e5		 mov	 esp, ebp
  0004c	5d		 pop	 ebp
  0004d	c2 04 00	 ret	 4
??$?5UD3DXVECTOR3@@@CAr@@QAEAAV0@AAUD3DXVECTOR3@@@Z ENDP ; CAr::operator>><D3DXVECTOR3>
_TEXT	ENDS
; Function compile flags: /Ogtp
; File C:\IAGOS\server\v18\Source\Source\_Network\Misc\Include\Ar.h
;	COMDAT ??$?5H@CAr@@QAEAAV0@AAH@Z
_TEXT	SEGMENT
_t$ = 8							; size = 4
??$?5H@CAr@@QAEAAV0@AAH@Z PROC				; CAr::operator>><int>, COMDAT
; _this$ = ecx

; 302  : {

  00000	55		 push	 ebp
  00001	8b ec		 mov	 ebp, esp
  00003	8b d1		 mov	 edx, ecx

; 303  : 	if (m_lpBufCur + sizeof(T) <= m_lpBufMax)

  00005	8b 4a 08	 mov	 ecx, DWORD PTR [edx+8]
  00008	8d 41 04	 lea	 eax, DWORD PTR [ecx+4]
  0000b	3b 42 0c	 cmp	 eax, DWORD PTR [edx+12]
  0000e	8b 45 08	 mov	 eax, DWORD PTR _t$[ebp]
  00011	77 0e		 ja	 SHORT $LN2@operator

; 304  : 	{
; 305  : 		t = *(UNALIGNED T*)m_lpBufCur;

  00013	8b 09		 mov	 ecx, DWORD PTR [ecx]
  00015	89 08		 mov	 DWORD PTR [eax], ecx

; 312  : 	}
; 313  : 	return *this;
; 314  : }

  00017	8b c2		 mov	 eax, edx
  00019	83 42 08 04	 add	 DWORD PTR [edx+8], 4
  0001d	5d		 pop	 ebp
  0001e	c2 04 00	 ret	 4
$LN2@operator:

; 306  : 		m_lpBufCur += sizeof(T);
; 307  : 	}
; 308  : 	else
; 309  : 	{
; 310  : 		t = T();

  00021	c7 00 00 00 00
	00		 mov	 DWORD PTR [eax], 0

; 311  : 		m_lpBufCur = m_lpBufMax;

  00027	8b 42 0c	 mov	 eax, DWORD PTR [edx+12]
  0002a	89 42 08	 mov	 DWORD PTR [edx+8], eax

; 312  : 	}
; 313  : 	return *this;
; 314  : }

  0002d	8b c2		 mov	 eax, edx
  0002f	5d		 pop	 ebp
  00030	c2 04 00	 ret	 4
??$?5H@CAr@@QAEAAV0@AAH@Z ENDP				; CAr::operator>><int>
_TEXT	ENDS
; Function compile flags: /Ogtp
; File C:\IAGOS\server\v18\Source\Source\_Network\Misc\Include\Ar.h
;	COMDAT ??$?5K@CAr@@QAEAAV0@AAK@Z
_TEXT	SEGMENT
_t$ = 8							; size = 4
??$?5K@CAr@@QAEAAV0@AAK@Z PROC				; CAr::operator>><unsigned long>, COMDAT
; _this$ = ecx

; 302  : {

  00000	55		 push	 ebp
  00001	8b ec		 mov	 ebp, esp
  00003	8b d1		 mov	 edx, ecx

; 303  : 	if (m_lpBufCur + sizeof(T) <= m_lpBufMax)

  00005	8b 4a 08	 mov	 ecx, DWORD PTR [edx+8]
  00008	8d 41 04	 lea	 eax, DWORD PTR [ecx+4]
  0000b	3b 42 0c	 cmp	 eax, DWORD PTR [edx+12]
  0000e	8b 45 08	 mov	 eax, DWORD PTR _t$[ebp]
  00011	77 0e		 ja	 SHORT $LN2@operator

; 304  : 	{
; 305  : 		t = *(UNALIGNED T*)m_lpBufCur;

  00013	8b 09		 mov	 ecx, DWORD PTR [ecx]
  00015	89 08		 mov	 DWORD PTR [eax], ecx

; 312  : 	}
; 313  : 	return *this;
; 314  : }

  00017	8b c2		 mov	 eax, edx
  00019	83 42 08 04	 add	 DWORD PTR [edx+8], 4
  0001d	5d		 pop	 ebp
  0001e	c2 04 00	 ret	 4
$LN2@operator:

; 306  : 		m_lpBufCur += sizeof(T);
; 307  : 	}
; 308  : 	else
; 309  : 	{
; 310  : 		t = T();

  00021	c7 00 00 00 00
	00		 mov	 DWORD PTR [eax], 0

; 311  : 		m_lpBufCur = m_lpBufMax;

  00027	8b 42 0c	 mov	 eax, DWORD PTR [edx+12]
  0002a	89 42 08	 mov	 DWORD PTR [edx+8], eax

; 312  : 	}
; 313  : 	return *this;
; 314  : }

  0002d	8b c2		 mov	 eax, edx
  0002f	5d		 pop	 ebp
  00030	c2 04 00	 ret	 4
??$?5K@CAr@@QAEAAV0@AAK@Z ENDP				; CAr::operator>><unsigned long>
_TEXT	ENDS
; Function compile flags: /Ogtp
; File C:\IAGOS\server\v18\Source\Source\_Network\Misc\Include\Ar.h
;	COMDAT ??$?6J@CAr@@QAEAAV0@ABJ@Z
_TEXT	SEGMENT
_t$ = 8							; size = 4
??$?6J@CAr@@QAEAAV0@ABJ@Z PROC				; CAr::operator<<<long>, COMDAT
; _this$ = ecx

; 255  : {

  00000	55		 push	 ebp
  00001	8b ec		 mov	 ebp, esp
  00003	56		 push	 esi

; 256  : 	CheckBuf(sizeof(T));

  00004	6a 04		 push	 4
  00006	8b f1		 mov	 esi, ecx
  00008	e8 00 00 00 00	 call	 ?CheckBuf@CAr@@QAEXI@Z	; CAr::CheckBuf

; 257  : 	*(UNALIGNED T*)m_lpBufCur = t;

  0000d	8b 56 08	 mov	 edx, DWORD PTR [esi+8]
  00010	8b 45 08	 mov	 eax, DWORD PTR _t$[ebp]
  00013	8b 00		 mov	 eax, DWORD PTR [eax]
  00015	89 02		 mov	 DWORD PTR [edx], eax

; 258  : 	m_lpBufCur += sizeof(T);
; 259  : 	return *this;

  00017	8b c6		 mov	 eax, esi
  00019	83 46 08 04	 add	 DWORD PTR [esi+8], 4
  0001d	5e		 pop	 esi

; 260  : }

  0001e	5d		 pop	 ebp
  0001f	c2 04 00	 ret	 4
??$?6J@CAr@@QAEAAV0@ABJ@Z ENDP				; CAr::operator<<<long>
_TEXT	ENDS
; Function compile flags: /Ogtp
; File C:\IAGOS\server\v18\Source\Source\_Network\Misc\Include\Ar.h
;	COMDAT ??$?6M@CAr@@QAEAAV0@ABM@Z
_TEXT	SEGMENT
_t$ = 8							; size = 4
??$?6M@CAr@@QAEAAV0@ABM@Z PROC				; CAr::operator<<<float>, COMDAT
; _this$ = ecx

; 255  : {

  00000	55		 push	 ebp
  00001	8b ec		 mov	 ebp, esp
  00003	56		 push	 esi

; 256  : 	CheckBuf(sizeof(T));

  00004	6a 04		 push	 4
  00006	8b f1		 mov	 esi, ecx
  00008	e8 00 00 00 00	 call	 ?CheckBuf@CAr@@QAEXI@Z	; CAr::CheckBuf

; 257  : 	*(UNALIGNED T*)m_lpBufCur = t;

  0000d	8b 56 08	 mov	 edx, DWORD PTR [esi+8]
  00010	8b 45 08	 mov	 eax, DWORD PTR _t$[ebp]
  00013	8b 00		 mov	 eax, DWORD PTR [eax]
  00015	89 02		 mov	 DWORD PTR [edx], eax

; 258  : 	m_lpBufCur += sizeof(T);
; 259  : 	return *this;

  00017	8b c6		 mov	 eax, esi
  00019	83 46 08 04	 add	 DWORD PTR [esi+8], 4
  0001d	5e		 pop	 esi

; 260  : }

  0001e	5d		 pop	 ebp
  0001f	c2 04 00	 ret	 4
??$?6M@CAr@@QAEAAV0@ABM@Z ENDP				; CAr::operator<<<float>
_TEXT	ENDS
; Function compile flags: /Ogtp
; File C:\IAGOS\server\v18\Source\Source\_Network\Misc\Include\Ar.h
;	COMDAT ??$?6UD3DXVECTOR3@@@CAr@@QAEAAV0@ABUD3DXVECTOR3@@@Z
_TEXT	SEGMENT
_t$ = 8							; size = 4
??$?6UD3DXVECTOR3@@@CAr@@QAEAAV0@ABUD3DXVECTOR3@@@Z PROC ; CAr::operator<<<D3DXVECTOR3>, COMDAT
; _this$ = ecx

; 255  : {

  00000	55		 push	 ebp
  00001	8b ec		 mov	 ebp, esp
  00003	56		 push	 esi

; 256  : 	CheckBuf(sizeof(T));

  00004	6a 0c		 push	 12			; 0000000cH
  00006	8b f1		 mov	 esi, ecx
  00008	e8 00 00 00 00	 call	 ?CheckBuf@CAr@@QAEXI@Z	; CAr::CheckBuf

; 257  : 	*(UNALIGNED T*)m_lpBufCur = t;

  0000d	8b 56 08	 mov	 edx, DWORD PTR [esi+8]
  00010	8b 45 08	 mov	 eax, DWORD PTR _t$[ebp]
  00013	f3 0f 7e 00	 movq	 xmm0, QWORD PTR [eax]
  00017	66 0f d6 02	 movq	 QWORD PTR [edx], xmm0
  0001b	8b 40 08	 mov	 eax, DWORD PTR [eax+8]
  0001e	89 42 08	 mov	 DWORD PTR [edx+8], eax

; 258  : 	m_lpBufCur += sizeof(T);
; 259  : 	return *this;

  00021	8b c6		 mov	 eax, esi
  00023	83 46 08 0c	 add	 DWORD PTR [esi+8], 12	; 0000000cH
  00027	5e		 pop	 esi

; 260  : }

  00028	5d		 pop	 ebp
  00029	c2 04 00	 ret	 4
??$?6UD3DXVECTOR3@@@CAr@@QAEAAV0@ABUD3DXVECTOR3@@@Z ENDP ; CAr::operator<<<D3DXVECTOR3>
_TEXT	ENDS
; Function compile flags: /Ogtp
; File C:\IAGOS\server\v18\Source\Source\_Network\Misc\Include\Ar.h
;	COMDAT ??$?6H@CAr@@QAEAAV0@ABH@Z
_TEXT	SEGMENT
_t$ = 8							; size = 4
??$?6H@CAr@@QAEAAV0@ABH@Z PROC				; CAr::operator<<<int>, COMDAT
; _this$ = ecx

; 255  : {

  00000	55		 push	 ebp
  00001	8b ec		 mov	 ebp, esp
  00003	56		 push	 esi

; 256  : 	CheckBuf(sizeof(T));

  00004	6a 04		 push	 4
  00006	8b f1		 mov	 esi, ecx
  00008	e8 00 00 00 00	 call	 ?CheckBuf@CAr@@QAEXI@Z	; CAr::CheckBuf

; 257  : 	*(UNALIGNED T*)m_lpBufCur = t;

  0000d	8b 56 08	 mov	 edx, DWORD PTR [esi+8]
  00010	8b 45 08	 mov	 eax, DWORD PTR _t$[ebp]
  00013	8b 00		 mov	 eax, DWORD PTR [eax]
  00015	89 02		 mov	 DWORD PTR [edx], eax

; 258  : 	m_lpBufCur += sizeof(T);
; 259  : 	return *this;

  00017	8b c6		 mov	 eax, esi
  00019	83 46 08 04	 add	 DWORD PTR [esi+8], 4
  0001d	5e		 pop	 esi

; 260  : }

  0001e	5d		 pop	 ebp
  0001f	c2 04 00	 ret	 4
??$?6H@CAr@@QAEAAV0@ABH@Z ENDP				; CAr::operator<<<int>
_TEXT	ENDS
; Function compile flags: /Ogtp
; File C:\IAGOS\server\v18\Source\Source\_Network\Misc\Include\Ar.h
;	COMDAT ??$?6K@CAr@@QAEAAV0@ABK@Z
_TEXT	SEGMENT
_t$ = 8							; size = 4
??$?6K@CAr@@QAEAAV0@ABK@Z PROC				; CAr::operator<<<unsigned long>, COMDAT
; _this$ = ecx

; 255  : {

  00000	55		 push	 ebp
  00001	8b ec		 mov	 ebp, esp
  00003	56		 push	 esi

; 256  : 	CheckBuf(sizeof(T));

  00004	6a 04		 push	 4
  00006	8b f1		 mov	 esi, ecx
  00008	e8 00 00 00 00	 call	 ?CheckBuf@CAr@@QAEXI@Z	; CAr::CheckBuf

; 257  : 	*(UNALIGNED T*)m_lpBufCur = t;

  0000d	8b 56 08	 mov	 edx, DWORD PTR [esi+8]
  00010	8b 45 08	 mov	 eax, DWORD PTR _t$[ebp]
  00013	8b 00		 mov	 eax, DWORD PTR [eax]
  00015	89 02		 mov	 DWORD PTR [edx], eax

; 258  : 	m_lpBufCur += sizeof(T);
; 259  : 	return *this;

  00017	8b c6		 mov	 eax, esi
  00019	83 46 08 04	 add	 DWORD PTR [esi+8], 4
  0001d	5e		 pop	 esi

; 260  : }

  0001e	5d		 pop	 ebp
  0001f	c2 04 00	 ret	 4
??$?6K@CAr@@QAEAAV0@ABK@Z ENDP				; CAr::operator<<<unsigned long>
_TEXT	ENDS
; Function compile flags: /Ogtp
; File C:\Program Files\Microsoft Visual Studio\2022\Professional\VC\Tools\MSVC\14.44.35207\include\xtree
;	COMDAT ??E?$_Tree_unchecked_const_iterator@V?$_Tree_val@U?$_Tree_simple_types@U?$pair@$$CBKPAVCGuildHouseBase@@@std@@@std@@@std@@U_Iterator_base0@2@@std@@QAEAAV01@XZ
_TEXT	SEGMENT
??E?$_Tree_unchecked_const_iterator@V?$_Tree_val@U?$_Tree_simple_types@U?$pair@$$CBKPAVCGuildHouseBase@@@std@@@std@@@std@@U_Iterator_base0@2@@std@@QAEAAV01@XZ PROC ; std::_Tree_unchecked_const_iterator<std::_Tree_val<std::_Tree_simple_types<std::pair<unsigned long const ,CGuildHouseBase *> > >,std::_Iterator_base0>::operator++, COMDAT
; _this$ = ecx

; 49   :     _Tree_unchecked_const_iterator& operator++() noexcept {

  00000	56		 push	 esi
  00001	8b f1		 mov	 esi, ecx
  00003	57		 push	 edi

; 50   :         if (_Ptr->_Right->_Isnil) { // climb looking for right subtree

  00004	8b 16		 mov	 edx, DWORD PTR [esi]
  00006	8b 7a 08	 mov	 edi, DWORD PTR [edx+8]
  00009	80 7f 0d 00	 cmp	 BYTE PTR [edi+13], 0
  0000d	74 22		 je	 SHORT $LN4@operator

; 51   :             _Nodeptr _Pnode;
; 52   :             while (!(_Pnode = _Ptr->_Parent)->_Isnil && _Ptr == _Pnode->_Right) {

  0000f	8b 42 04	 mov	 eax, DWORD PTR [edx+4]
  00012	80 78 0d 00	 cmp	 BYTE PTR [eax+13], 0
  00016	75 12		 jne	 SHORT $LN21@operator
$LL2@operator:
  00018	3b 50 08	 cmp	 edx, DWORD PTR [eax+8]
  0001b	75 0d		 jne	 SHORT $LN21@operator

; 53   :                 _Ptr = _Pnode; // ==> parent while right subtree

  0001d	89 06		 mov	 DWORD PTR [esi], eax
  0001f	8b d0		 mov	 edx, eax
  00021	8b 40 04	 mov	 eax, DWORD PTR [eax+4]
  00024	80 78 0d 00	 cmp	 BYTE PTR [eax+13], 0
  00028	74 ee		 je	 SHORT $LL2@operator
$LN21@operator:

; 54   :             }
; 55   : 
; 56   :             _Ptr = _Pnode; // ==> parent (head if end())
; 57   :         } else {
; 58   :             _Ptr = _Mytree::_Min(_Ptr->_Right); // ==> smallest of right subtree
; 59   :         }
; 60   : 
; 61   :         return *this;

  0002a	89 06		 mov	 DWORD PTR [esi], eax

; 62   :     }

  0002c	8b c6		 mov	 eax, esi
  0002e	5f		 pop	 edi
  0002f	5e		 pop	 esi
  00030	c3		 ret	 0
$LN4@operator:

; 476  :         while (!_Pnode->_Left->_Isnil) {

  00031	8b 0f		 mov	 ecx, DWORD PTR [edi]
  00033	80 79 0d 00	 cmp	 BYTE PTR [ecx+13], 0
  00037	75 13		 jne	 SHORT $LN10@operator
  00039	0f 1f 80 00 00
	00 00		 npad	 7
$LL9@operator:
  00040	8b 01		 mov	 eax, DWORD PTR [ecx]

; 477  :             _Pnode = _Pnode->_Left;

  00042	8b f9		 mov	 edi, ecx
  00044	8b c8		 mov	 ecx, eax
  00046	80 78 0d 00	 cmp	 BYTE PTR [eax+13], 0
  0004a	74 f4		 je	 SHORT $LL9@operator
$LN10@operator:

; 54   :             }
; 55   : 
; 56   :             _Ptr = _Pnode; // ==> parent (head if end())
; 57   :         } else {
; 58   :             _Ptr = _Mytree::_Min(_Ptr->_Right); // ==> smallest of right subtree
; 59   :         }
; 60   : 
; 61   :         return *this;

  0004c	89 3e		 mov	 DWORD PTR [esi], edi

; 62   :     }

  0004e	8b c6		 mov	 eax, esi
  00050	5f		 pop	 edi
  00051	5e		 pop	 esi
  00052	c3		 ret	 0
??E?$_Tree_unchecked_const_iterator@V?$_Tree_val@U?$_Tree_simple_types@U?$pair@$$CBKPAVCGuildHouseBase@@@std@@@std@@@std@@U_Iterator_base0@2@@std@@QAEAAV01@XZ ENDP ; std::_Tree_unchecked_const_iterator<std::_Tree_val<std::_Tree_simple_types<std::pair<unsigned long const ,CGuildHouseBase *> > >,std::_Iterator_base0>::operator++
_TEXT	ENDS
; Function compile flags: /Ogtp
; File C:\Program Files\Microsoft Visual Studio\2022\Professional\VC\Tools\MSVC\14.44.35207\include\xtree
;	COMDAT ?_Insert_node@?$_Tree_val@U?$_Tree_simple_types@U?$pair@$$CBKPAVCGuildHouseBase@@@std@@@std@@@std@@QAEPAU?$_Tree_node@U?$pair@$$CBKPAVCGuildHouseBase@@@std@@PAX@2@U?$_Tree_id@PAU?$_Tree_node@U?$pair@$$CBKPAVCGuildHouseBase@@@std@@PAX@std@@@2@QAU32@@Z
_TEXT	SEGMENT
__Head$1$ = -4						; size = 4
__Loc$ = 8						; size = 8
__Newnode$ = 16						; size = 4
?_Insert_node@?$_Tree_val@U?$_Tree_simple_types@U?$pair@$$CBKPAVCGuildHouseBase@@@std@@@std@@@std@@QAEPAU?$_Tree_node@U?$pair@$$CBKPAVCGuildHouseBase@@@std@@PAX@2@U?$_Tree_id@PAU?$_Tree_node@U?$pair@$$CBKPAVCGuildHouseBase@@@std@@PAX@std@@@2@QAU32@@Z PROC ; std::_Tree_val<std::_Tree_simple_types<std::pair<unsigned long const ,CGuildHouseBase *> > >::_Insert_node, COMDAT
; _this$ = ecx

; 669  :     _Nodeptr _Insert_node(const _Tree_id<_Nodeptr> _Loc, const _Nodeptr _Newnode) noexcept {

  00000	55		 push	 ebp
  00001	8b ec		 mov	 ebp, esp
  00003	51		 push	 ecx

; 670  :         ++_Mysize;
; 671  :         const auto _Head  = _Myhead;
; 672  :         _Newnode->_Parent = _Loc._Parent;

  00004	8b 55 08	 mov	 edx, DWORD PTR __Loc$[ebp]
  00007	53		 push	 ebx
  00008	8b d9		 mov	 ebx, ecx
  0000a	57		 push	 edi
  0000b	8b 7d 10	 mov	 edi, DWORD PTR __Newnode$[ebp]
  0000e	8b 03		 mov	 eax, DWORD PTR [ebx]
  00010	ff 43 04	 inc	 DWORD PTR [ebx+4]
  00013	89 45 fc	 mov	 DWORD PTR __Head$1$[ebp], eax
  00016	89 57 04	 mov	 DWORD PTR [edi+4], edx

; 673  :         if (_Loc._Parent == _Head) { // first node in tree, just set head values

  00019	3b d0		 cmp	 edx, eax
  0001b	75 16		 jne	 SHORT $LN5@Insert_nod

; 674  :             _Head->_Left     = _Newnode;

  0001d	89 38		 mov	 DWORD PTR [eax], edi

; 675  :             _Head->_Parent   = _Newnode;

  0001f	89 78 04	 mov	 DWORD PTR [eax+4], edi

; 676  :             _Head->_Right    = _Newnode;

  00022	89 78 08	 mov	 DWORD PTR [eax+8], edi

; 735  :         return _Newnode;
; 736  :     }

  00025	8b c7		 mov	 eax, edi
  00027	c6 47 0c 01	 mov	 BYTE PTR [edi+12], 1
  0002b	5f		 pop	 edi
  0002c	5b		 pop	 ebx
  0002d	8b e5		 mov	 esp, ebp
  0002f	5d		 pop	 ebp
  00030	c2 0c 00	 ret	 12			; 0000000cH
$LN5@Insert_nod:

; 677  :             _Newnode->_Color = _Black; // the root is black
; 678  :             return _Newnode;
; 679  :         }
; 680  : 
; 681  :         _STL_INTERNAL_CHECK(_Loc._Child != _Tree_child::_Unused);
; 682  :         if (_Loc._Child == _Tree_child::_Right) { // add to right of _Loc._Parent

  00033	83 7d 0c 00	 cmp	 DWORD PTR __Loc$[ebp+4], 0
  00037	75 0d		 jne	 SHORT $LN6@Insert_nod

; 683  :             _STL_INTERNAL_CHECK(_Loc._Parent->_Right->_Isnil);
; 684  :             _Loc._Parent->_Right = _Newnode;

  00039	89 7a 08	 mov	 DWORD PTR [edx+8], edi

; 685  :             if (_Loc._Parent == _Head->_Right) { // remember rightmost node

  0003c	3b 50 08	 cmp	 edx, DWORD PTR [eax+8]
  0003f	75 0d		 jne	 SHORT $LN9@Insert_nod

; 686  :                 _Head->_Right = _Newnode;

  00041	89 78 08	 mov	 DWORD PTR [eax+8], edi

; 687  :             }
; 688  :         } else { // add to left of _Loc._Parent

  00044	eb 08		 jmp	 SHORT $LN9@Insert_nod
$LN6@Insert_nod:

; 689  :             _STL_INTERNAL_CHECK(_Loc._Parent->_Left->_Isnil);
; 690  :             _Loc._Parent->_Left = _Newnode;

  00046	89 3a		 mov	 DWORD PTR [edx], edi

; 691  :             if (_Loc._Parent == _Head->_Left) { // remember leftmost node

  00048	3b 10		 cmp	 edx, DWORD PTR [eax]
  0004a	75 02		 jne	 SHORT $LN9@Insert_nod

; 692  :                 _Head->_Left = _Newnode;

  0004c	89 38		 mov	 DWORD PTR [eax], edi
$LN9@Insert_nod:

; 693  :             }
; 694  :         }
; 695  : 
; 696  :         for (_Nodeptr _Pnode = _Newnode; _Pnode->_Parent->_Color == _Red;) {

  0004e	8b 4f 04	 mov	 ecx, DWORD PTR [edi+4]
  00051	8b c7		 mov	 eax, edi
  00053	80 79 0c 00	 cmp	 BYTE PTR [ecx+12], 0
  00057	0f 85 7d 01 00
	00		 jne	 $LN3@Insert_nod
  0005d	56		 push	 esi
  0005e	66 90		 npad	 2
$LL4@Insert_nod:

; 697  :             if (_Pnode->_Parent == _Pnode->_Parent->_Parent->_Left) { // fixup red-red in left subtree

  00060	8b 50 04	 mov	 edx, DWORD PTR [eax+4]
  00063	8b 72 04	 mov	 esi, DWORD PTR [edx+4]
  00066	8b 0e		 mov	 ecx, DWORD PTR [esi]
  00068	3b d1		 cmp	 edx, ecx
  0006a	0f 85 aa 00 00
	00		 jne	 $LN10@Insert_nod

; 698  :                 const auto _Parent_sibling = _Pnode->_Parent->_Parent->_Right;

  00070	8b 4e 08	 mov	 ecx, DWORD PTR [esi+8]

; 699  :                 if (_Parent_sibling->_Color == _Red) { // parent's sibling has two red children, blacken both

  00073	80 79 0c 00	 cmp	 BYTE PTR [ecx+12], 0
  00077	0f 84 a3 00 00
	00		 je	 $LN82@Insert_nod

; 700  :                     _Pnode->_Parent->_Color          = _Black;
; 701  :                     _Parent_sibling->_Color          = _Black;
; 702  :                     _Pnode->_Parent->_Parent->_Color = _Red;
; 703  :                     _Pnode                           = _Pnode->_Parent->_Parent;
; 704  :                 } else { // parent's sibling has red and black children
; 705  :                     if (_Pnode == _Pnode->_Parent->_Right) { // rotate right child to left

  0007d	8b 72 08	 mov	 esi, DWORD PTR [edx+8]
  00080	3b c6		 cmp	 eax, esi
  00082	75 37		 jne	 SHORT $LN57@Insert_nod

; 485  :         _Wherenode->_Right = _Pnode->_Left;

  00084	8b 0e		 mov	 ecx, DWORD PTR [esi]

; 706  :                         _Pnode = _Pnode->_Parent;

  00086	8b c2		 mov	 eax, edx

; 485  :         _Wherenode->_Right = _Pnode->_Left;

  00088	89 4a 08	 mov	 DWORD PTR [edx+8], ecx

; 486  : 
; 487  :         if (!_Pnode->_Left->_Isnil) {

  0008b	8b 0e		 mov	 ecx, DWORD PTR [esi]
  0008d	80 79 0d 00	 cmp	 BYTE PTR [ecx+13], 0
  00091	75 03		 jne	 SHORT $LN21@Insert_nod

; 488  :             _Pnode->_Left->_Parent = _Wherenode;

  00093	89 41 04	 mov	 DWORD PTR [ecx+4], eax
$LN21@Insert_nod:

; 489  :         }
; 490  : 
; 491  :         _Pnode->_Parent = _Wherenode->_Parent;

  00096	8b 4a 04	 mov	 ecx, DWORD PTR [edx+4]
  00099	89 4e 04	 mov	 DWORD PTR [esi+4], ecx

; 492  : 
; 493  :         if (_Wherenode == _Myhead->_Parent) {

  0009c	8b 0b		 mov	 ecx, DWORD PTR [ebx]
  0009e	3b 41 04	 cmp	 eax, DWORD PTR [ecx+4]
  000a1	75 05		 jne	 SHORT $LN22@Insert_nod

; 494  :             _Myhead->_Parent = _Pnode;

  000a3	89 71 04	 mov	 DWORD PTR [ecx+4], esi
  000a6	eb 0e		 jmp	 SHORT $LN25@Insert_nod
$LN22@Insert_nod:

; 495  :         } else if (_Wherenode == _Wherenode->_Parent->_Left) {

  000a8	8b 4a 04	 mov	 ecx, DWORD PTR [edx+4]
  000ab	3b 01		 cmp	 eax, DWORD PTR [ecx]
  000ad	75 04		 jne	 SHORT $LN24@Insert_nod

; 496  :             _Wherenode->_Parent->_Left = _Pnode;

  000af	89 31		 mov	 DWORD PTR [ecx], esi

; 497  :         } else {

  000b1	eb 03		 jmp	 SHORT $LN25@Insert_nod
$LN24@Insert_nod:

; 498  :             _Wherenode->_Parent->_Right = _Pnode;

  000b3	89 71 08	 mov	 DWORD PTR [ecx+8], esi
$LN25@Insert_nod:

; 499  :         }
; 500  : 
; 501  :         _Pnode->_Left       = _Wherenode;

  000b6	89 06		 mov	 DWORD PTR [esi], eax

; 502  :         _Wherenode->_Parent = _Pnode;

  000b8	89 70 04	 mov	 DWORD PTR [eax+4], esi
$LN57@Insert_nod:

; 707  :                         _Lrotate(_Pnode);
; 708  :                     }
; 709  : 
; 710  :                     _Pnode->_Parent->_Color          = _Black; // propagate red up

  000bb	8b 48 04	 mov	 ecx, DWORD PTR [eax+4]
  000be	c6 41 0c 01	 mov	 BYTE PTR [ecx+12], 1

; 711  :                     _Pnode->_Parent->_Parent->_Color = _Red;

  000c2	8b 48 04	 mov	 ecx, DWORD PTR [eax+4]
  000c5	8b 49 04	 mov	 ecx, DWORD PTR [ecx+4]
  000c8	c6 41 0c 00	 mov	 BYTE PTR [ecx+12], 0

; 712  :                     _Rrotate(_Pnode->_Parent->_Parent);

  000cc	8b 48 04	 mov	 ecx, DWORD PTR [eax+4]
  000cf	8b 51 04	 mov	 edx, DWORD PTR [ecx+4]

; 506  :         _Nodeptr _Pnode   = _Wherenode->_Left;

  000d2	8b 32		 mov	 esi, DWORD PTR [edx]

; 507  :         _Wherenode->_Left = _Pnode->_Right;

  000d4	8b 4e 08	 mov	 ecx, DWORD PTR [esi+8]
  000d7	89 0a		 mov	 DWORD PTR [edx], ecx

; 508  : 
; 509  :         if (!_Pnode->_Right->_Isnil) {

  000d9	8b 4e 08	 mov	 ecx, DWORD PTR [esi+8]
  000dc	80 79 0d 00	 cmp	 BYTE PTR [ecx+13], 0
  000e0	75 03		 jne	 SHORT $LN29@Insert_nod

; 510  :             _Pnode->_Right->_Parent = _Wherenode;

  000e2	89 51 04	 mov	 DWORD PTR [ecx+4], edx
$LN29@Insert_nod:

; 511  :         }
; 512  : 
; 513  :         _Pnode->_Parent = _Wherenode->_Parent;

  000e5	8b 4a 04	 mov	 ecx, DWORD PTR [edx+4]
  000e8	89 4e 04	 mov	 DWORD PTR [esi+4], ecx

; 514  : 
; 515  :         if (_Wherenode == _Myhead->_Parent) {

  000eb	8b 0b		 mov	 ecx, DWORD PTR [ebx]
  000ed	3b 51 04	 cmp	 edx, DWORD PTR [ecx+4]
  000f0	75 0b		 jne	 SHORT $LN30@Insert_nod

; 516  :             _Myhead->_Parent = _Pnode;

  000f2	89 71 04	 mov	 DWORD PTR [ecx+4], esi

; 521  :         }
; 522  : 
; 523  :         _Pnode->_Right      = _Wherenode;

  000f5	89 56 08	 mov	 DWORD PTR [esi+8], edx

; 713  :                 }
; 714  :             } else { // fixup red-red in right subtree

  000f8	e9 cc 00 00 00	 jmp	 $LN81@Insert_nod
$LN30@Insert_nod:

; 517  :         } else if (_Wherenode == _Wherenode->_Parent->_Right) {

  000fd	8b 4a 04	 mov	 ecx, DWORD PTR [edx+4]
  00100	3b 51 08	 cmp	 edx, DWORD PTR [ecx+8]
  00103	75 0b		 jne	 SHORT $LN32@Insert_nod

; 518  :             _Wherenode->_Parent->_Right = _Pnode;

  00105	89 71 08	 mov	 DWORD PTR [ecx+8], esi

; 521  :         }
; 522  : 
; 523  :         _Pnode->_Right      = _Wherenode;

  00108	89 56 08	 mov	 DWORD PTR [esi+8], edx

; 713  :                 }
; 714  :             } else { // fixup red-red in right subtree

  0010b	e9 b9 00 00 00	 jmp	 $LN81@Insert_nod
$LN32@Insert_nod:

; 520  :             _Wherenode->_Parent->_Left = _Pnode;

  00110	89 31		 mov	 DWORD PTR [ecx], esi

; 521  :         }
; 522  : 
; 523  :         _Pnode->_Right      = _Wherenode;

  00112	89 56 08	 mov	 DWORD PTR [esi+8], edx

; 713  :                 }
; 714  :             } else { // fixup red-red in right subtree

  00115	e9 af 00 00 00	 jmp	 $LN81@Insert_nod
$LN10@Insert_nod:

; 715  :                 const auto _Parent_sibling = _Pnode->_Parent->_Parent->_Left;
; 716  :                 if (_Parent_sibling->_Color == _Red) { // parent's sibling has two red children, blacken both

  0011a	80 79 0c 00	 cmp	 BYTE PTR [ecx+12], 0
  0011e	75 1d		 jne	 SHORT $LN15@Insert_nod
$LN82@Insert_nod:

; 693  :             }
; 694  :         }
; 695  : 
; 696  :         for (_Nodeptr _Pnode = _Newnode; _Pnode->_Parent->_Color == _Red;) {

  00120	c6 42 0c 01	 mov	 BYTE PTR [edx+12], 1
  00124	c6 41 0c 01	 mov	 BYTE PTR [ecx+12], 1
  00128	8b 48 04	 mov	 ecx, DWORD PTR [eax+4]
  0012b	8b 49 04	 mov	 ecx, DWORD PTR [ecx+4]
  0012e	c6 41 0c 00	 mov	 BYTE PTR [ecx+12], 0
  00132	8b 48 04	 mov	 ecx, DWORD PTR [eax+4]
  00135	8b 41 04	 mov	 eax, DWORD PTR [ecx+4]
  00138	e9 8f 00 00 00	 jmp	 $LN2@Insert_nod
$LN15@Insert_nod:

; 717  :                     _Pnode->_Parent->_Color          = _Black;
; 718  :                     _Parent_sibling->_Color          = _Black;
; 719  :                     _Pnode->_Parent->_Parent->_Color = _Red;
; 720  :                     _Pnode                           = _Pnode->_Parent->_Parent;
; 721  :                 } else { // parent's sibling has red and black children
; 722  :                     if (_Pnode == _Pnode->_Parent->_Left) { // rotate left child to right

  0013d	8b 32		 mov	 esi, DWORD PTR [edx]
  0013f	3b c6		 cmp	 eax, esi
  00141	75 3a		 jne	 SHORT $LN42@Insert_nod

; 507  :         _Wherenode->_Left = _Pnode->_Right;

  00143	8b 4e 08	 mov	 ecx, DWORD PTR [esi+8]

; 723  :                         _Pnode = _Pnode->_Parent;

  00146	8b c2		 mov	 eax, edx

; 507  :         _Wherenode->_Left = _Pnode->_Right;

  00148	89 08		 mov	 DWORD PTR [eax], ecx

; 508  : 
; 509  :         if (!_Pnode->_Right->_Isnil) {

  0014a	8b 4e 08	 mov	 ecx, DWORD PTR [esi+8]
  0014d	80 79 0d 00	 cmp	 BYTE PTR [ecx+13], 0
  00151	75 03		 jne	 SHORT $LN37@Insert_nod

; 510  :             _Pnode->_Right->_Parent = _Wherenode;

  00153	89 41 04	 mov	 DWORD PTR [ecx+4], eax
$LN37@Insert_nod:

; 511  :         }
; 512  : 
; 513  :         _Pnode->_Parent = _Wherenode->_Parent;

  00156	8b 4a 04	 mov	 ecx, DWORD PTR [edx+4]
  00159	89 4e 04	 mov	 DWORD PTR [esi+4], ecx

; 514  : 
; 515  :         if (_Wherenode == _Myhead->_Parent) {

  0015c	8b 0b		 mov	 ecx, DWORD PTR [ebx]
  0015e	3b 41 04	 cmp	 eax, DWORD PTR [ecx+4]
  00161	75 05		 jne	 SHORT $LN38@Insert_nod

; 516  :             _Myhead->_Parent = _Pnode;

  00163	89 71 04	 mov	 DWORD PTR [ecx+4], esi
  00166	eb 0f		 jmp	 SHORT $LN41@Insert_nod
$LN38@Insert_nod:

; 517  :         } else if (_Wherenode == _Wherenode->_Parent->_Right) {

  00168	8b 4a 04	 mov	 ecx, DWORD PTR [edx+4]
  0016b	3b 41 08	 cmp	 eax, DWORD PTR [ecx+8]
  0016e	75 05		 jne	 SHORT $LN40@Insert_nod

; 518  :             _Wherenode->_Parent->_Right = _Pnode;

  00170	89 71 08	 mov	 DWORD PTR [ecx+8], esi

; 519  :         } else {

  00173	eb 02		 jmp	 SHORT $LN41@Insert_nod
$LN40@Insert_nod:

; 520  :             _Wherenode->_Parent->_Left = _Pnode;

  00175	89 31		 mov	 DWORD PTR [ecx], esi
$LN41@Insert_nod:

; 521  :         }
; 522  : 
; 523  :         _Pnode->_Right      = _Wherenode;

  00177	89 46 08	 mov	 DWORD PTR [esi+8], eax

; 524  :         _Wherenode->_Parent = _Pnode;

  0017a	89 70 04	 mov	 DWORD PTR [eax+4], esi
$LN42@Insert_nod:

; 724  :                         _Rrotate(_Pnode);
; 725  :                     }
; 726  : 
; 727  :                     _Pnode->_Parent->_Color          = _Black; // propagate red up

  0017d	8b 48 04	 mov	 ecx, DWORD PTR [eax+4]
  00180	c6 41 0c 01	 mov	 BYTE PTR [ecx+12], 1

; 728  :                     _Pnode->_Parent->_Parent->_Color = _Red;

  00184	8b 48 04	 mov	 ecx, DWORD PTR [eax+4]
  00187	8b 49 04	 mov	 ecx, DWORD PTR [ecx+4]
  0018a	c6 41 0c 00	 mov	 BYTE PTR [ecx+12], 0

; 729  :                     _Lrotate(_Pnode->_Parent->_Parent);

  0018e	8b 48 04	 mov	 ecx, DWORD PTR [eax+4]
  00191	8b 51 04	 mov	 edx, DWORD PTR [ecx+4]

; 484  :         _Nodeptr _Pnode    = _Wherenode->_Right;

  00194	8b 72 08	 mov	 esi, DWORD PTR [edx+8]

; 485  :         _Wherenode->_Right = _Pnode->_Left;

  00197	8b 0e		 mov	 ecx, DWORD PTR [esi]
  00199	89 4a 08	 mov	 DWORD PTR [edx+8], ecx

; 486  : 
; 487  :         if (!_Pnode->_Left->_Isnil) {

  0019c	8b 0e		 mov	 ecx, DWORD PTR [esi]
  0019e	80 79 0d 00	 cmp	 BYTE PTR [ecx+13], 0
  001a2	75 03		 jne	 SHORT $LN45@Insert_nod

; 488  :             _Pnode->_Left->_Parent = _Wherenode;

  001a4	89 51 04	 mov	 DWORD PTR [ecx+4], edx
$LN45@Insert_nod:

; 489  :         }
; 490  : 
; 491  :         _Pnode->_Parent = _Wherenode->_Parent;

  001a7	8b 4a 04	 mov	 ecx, DWORD PTR [edx+4]
  001aa	89 4e 04	 mov	 DWORD PTR [esi+4], ecx

; 492  : 
; 493  :         if (_Wherenode == _Myhead->_Parent) {

  001ad	8b 0b		 mov	 ecx, DWORD PTR [ebx]
  001af	3b 51 04	 cmp	 edx, DWORD PTR [ecx+4]
  001b2	75 05		 jne	 SHORT $LN46@Insert_nod

; 494  :             _Myhead->_Parent = _Pnode;

  001b4	89 71 04	 mov	 DWORD PTR [ecx+4], esi
  001b7	eb 0e		 jmp	 SHORT $LN49@Insert_nod
$LN46@Insert_nod:

; 495  :         } else if (_Wherenode == _Wherenode->_Parent->_Left) {

  001b9	8b 4a 04	 mov	 ecx, DWORD PTR [edx+4]
  001bc	3b 11		 cmp	 edx, DWORD PTR [ecx]
  001be	75 04		 jne	 SHORT $LN48@Insert_nod

; 496  :             _Wherenode->_Parent->_Left = _Pnode;

  001c0	89 31		 mov	 DWORD PTR [ecx], esi

; 497  :         } else {

  001c2	eb 03		 jmp	 SHORT $LN49@Insert_nod
$LN48@Insert_nod:

; 498  :             _Wherenode->_Parent->_Right = _Pnode;

  001c4	89 71 08	 mov	 DWORD PTR [ecx+8], esi
$LN49@Insert_nod:

; 499  :         }
; 500  : 
; 501  :         _Pnode->_Left       = _Wherenode;

  001c7	89 16		 mov	 DWORD PTR [esi], edx
$LN81@Insert_nod:

; 693  :             }
; 694  :         }
; 695  : 
; 696  :         for (_Nodeptr _Pnode = _Newnode; _Pnode->_Parent->_Color == _Red;) {

  001c9	89 72 04	 mov	 DWORD PTR [edx+4], esi
$LN2@Insert_nod:
  001cc	8b 48 04	 mov	 ecx, DWORD PTR [eax+4]
  001cf	80 79 0c 00	 cmp	 BYTE PTR [ecx+12], 0
  001d3	0f 84 87 fe ff
	ff		 je	 $LL4@Insert_nod
  001d9	5e		 pop	 esi
$LN3@Insert_nod:

; 730  :                 }
; 731  :             }
; 732  :         }
; 733  : 
; 734  :         _Head->_Parent->_Color = _Black; // root is always black

  001da	8b 45 fc	 mov	 eax, DWORD PTR __Head$1$[ebp]
  001dd	8b 40 04	 mov	 eax, DWORD PTR [eax+4]
  001e0	c6 40 0c 01	 mov	 BYTE PTR [eax+12], 1

; 735  :         return _Newnode;
; 736  :     }

  001e4	8b c7		 mov	 eax, edi
  001e6	5f		 pop	 edi
  001e7	5b		 pop	 ebx
  001e8	8b e5		 mov	 esp, ebp
  001ea	5d		 pop	 ebp
  001eb	c2 0c 00	 ret	 12			; 0000000cH
?_Insert_node@?$_Tree_val@U?$_Tree_simple_types@U?$pair@$$CBKPAVCGuildHouseBase@@@std@@@std@@@std@@QAEPAU?$_Tree_node@U?$pair@$$CBKPAVCGuildHouseBase@@@std@@PAX@2@U?$_Tree_id@PAU?$_Tree_node@U?$pair@$$CBKPAVCGuildHouseBase@@@std@@PAX@std@@@2@QAU32@@Z ENDP ; std::_Tree_val<std::_Tree_simple_types<std::pair<unsigned long const ,CGuildHouseBase *> > >::_Insert_node
_TEXT	ENDS
; Function compile flags: /Ogtp
; File C:\Program Files\Microsoft Visual Studio\2022\Professional\VC\Tools\MSVC\14.44.35207\include\xtree
; File C:\Program Files\Microsoft Visual Studio\2022\Professional\VC\Tools\MSVC\14.44.35207\include\utility
; File C:\Program Files\Microsoft Visual Studio\2022\Professional\VC\Tools\MSVC\14.44.35207\include\xtree
;	COMDAT ?_Extract@?$_Tree_val@U?$_Tree_simple_types@U?$pair@$$CBKPAVCGuildHouseBase@@@std@@@std@@@std@@QAEPAU?$_Tree_node@U?$pair@$$CBKPAVCGuildHouseBase@@@std@@PAX@2@V?$_Tree_unchecked_const_iterator@V?$_Tree_val@U?$_Tree_simple_types@U?$pair@$$CBKPAVCGuildHouseBase@@@std@@@std@@@std@@U_Iterator_base0@2@@2@@Z
_TEXT	SEGMENT
tv1039 = -16						; size = 4
tv1073 = -12						; size = 4
tv1093 = -12						; size = 4
$T1 = -12						; size = 4
__Erasednode$1$ = -8					; size = 4
_this$1$ = -4						; size = 4
__Where$ = 8						; size = 4
?_Extract@?$_Tree_val@U?$_Tree_simple_types@U?$pair@$$CBKPAVCGuildHouseBase@@@std@@@std@@@std@@QAEPAU?$_Tree_node@U?$pair@$$CBKPAVCGuildHouseBase@@@std@@PAX@2@V?$_Tree_unchecked_const_iterator@V?$_Tree_val@U?$_Tree_simple_types@U?$pair@$$CBKPAVCGuildHouseBase@@@std@@@std@@@std@@U_Iterator_base0@2@@2@@Z PROC ; std::_Tree_val<std::_Tree_simple_types<std::pair<unsigned long const ,CGuildHouseBase *> > >::_Extract, COMDAT
; _this$ = ecx

; 527  :     _Nodeptr _Extract(_Unchecked_const_iterator _Where) noexcept {

  00000	55		 push	 ebp
  00001	8b ec		 mov	 ebp, esp
  00003	83 ec 10	 sub	 esp, 16			; 00000010H

; 528  :         _Nodeptr _Erasednode = _Where._Ptr; // node to erase

  00006	8b 45 08	 mov	 eax, DWORD PTR __Where$[ebp]
  00009	53		 push	 ebx
  0000a	56		 push	 esi
  0000b	8b d9		 mov	 ebx, ecx
  0000d	89 45 f8	 mov	 DWORD PTR __Erasednode$1$[ebp], eax
  00010	57		 push	 edi

; 529  :         ++_Where; // save successor iterator for return

  00011	8d 4d 08	 lea	 ecx, DWORD PTR __Where$[ebp]
  00014	89 5d fc	 mov	 DWORD PTR _this$1$[ebp], ebx
  00017	e8 00 00 00 00	 call	 ??E?$_Tree_unchecked_const_iterator@V?$_Tree_val@U?$_Tree_simple_types@U?$pair@$$CBKPAVCGuildHouseBase@@@std@@@std@@@std@@U_Iterator_base0@2@@std@@QAEAAV01@XZ ; std::_Tree_unchecked_const_iterator<std::_Tree_val<std::_Tree_simple_types<std::pair<unsigned long const ,CGuildHouseBase *> > >,std::_Iterator_base0>::operator++

; 530  : 
; 531  :         _Nodeptr _Fixnode; // the node to recolor as needed
; 532  :         _Nodeptr _Fixnodeparent; // parent of _Fixnode (which may be nil)
; 533  :         _Nodeptr _Pnode = _Erasednode;
; 534  : 
; 535  :         if (_Pnode->_Left->_Isnil) {

  0001c	8b 4d f8	 mov	 ecx, DWORD PTR __Erasednode$1$[ebp]
  0001f	8b 01		 mov	 eax, DWORD PTR [ecx]
  00021	8b 79 08	 mov	 edi, DWORD PTR [ecx+8]
  00024	80 78 0d 00	 cmp	 BYTE PTR [eax+13], 0
  00028	75 18		 jne	 SHORT $LN94@Extract

; 536  :             _Fixnode = _Pnode->_Right; // stitch up right subtree
; 537  :         } else if (_Pnode->_Right->_Isnil) {

  0002a	80 7f 0d 00	 cmp	 BYTE PTR [edi+13], 0
  0002e	74 04		 je	 SHORT $LN7@Extract

; 538  :             _Fixnode = _Pnode->_Left; // stitch up left subtree

  00030	8b f8		 mov	 edi, eax

; 539  :         } else { // two subtrees, must lift successor node to replace erased

  00032	eb 0e		 jmp	 SHORT $LN94@Extract
$LN7@Extract:

; 540  :             _Pnode   = _Where._Ptr; // _Pnode is successor node

  00034	8b 55 08	 mov	 edx, DWORD PTR __Where$[ebp]

; 541  :             _Fixnode = _Pnode->_Right; // _Fixnode is only subtree

  00037	8b 7a 08	 mov	 edi, DWORD PTR [edx+8]
  0003a	3b d1		 cmp	 edx, ecx

; 542  :         }
; 543  : 
; 544  :         if (_Pnode == _Erasednode) { // at most one subtree, relink it

  0003c	0f 85 91 00 00
	00		 jne	 $LN9@Extract
$LN94@Extract:

; 545  :             _Fixnodeparent = _Erasednode->_Parent;
; 546  :             if (!_Fixnode->_Isnil) {

  00042	80 7f 0d 00	 cmp	 BYTE PTR [edi+13], 0
  00046	8b 71 04	 mov	 esi, DWORD PTR [ecx+4]
  00049	75 03		 jne	 SHORT $LN11@Extract

; 547  :                 _Fixnode->_Parent = _Fixnodeparent; // link up

  0004b	89 77 04	 mov	 DWORD PTR [edi+4], esi
$LN11@Extract:

; 548  :             }
; 549  : 
; 550  :             if (_Myhead->_Parent == _Erasednode) {

  0004e	8b 03		 mov	 eax, DWORD PTR [ebx]
  00050	39 48 04	 cmp	 DWORD PTR [eax+4], ecx
  00053	75 05		 jne	 SHORT $LN12@Extract

; 551  :                 _Myhead->_Parent = _Fixnode; // link down from root

  00055	89 78 04	 mov	 DWORD PTR [eax+4], edi
  00058	eb 0b		 jmp	 SHORT $LN15@Extract
$LN12@Extract:

; 552  :             } else if (_Fixnodeparent->_Left == _Erasednode) {

  0005a	39 0e		 cmp	 DWORD PTR [esi], ecx
  0005c	75 04		 jne	 SHORT $LN14@Extract

; 553  :                 _Fixnodeparent->_Left = _Fixnode; // link down to left

  0005e	89 3e		 mov	 DWORD PTR [esi], edi

; 554  :             } else {

  00060	eb 03		 jmp	 SHORT $LN15@Extract
$LN14@Extract:

; 555  :                 _Fixnodeparent->_Right = _Fixnode; // link down to right

  00062	89 7e 08	 mov	 DWORD PTR [esi+8], edi
$LN15@Extract:

; 556  :             }
; 557  : 
; 558  :             if (_Myhead->_Left == _Erasednode) {

  00065	8b 03		 mov	 eax, DWORD PTR [ebx]
  00067	39 08		 cmp	 DWORD PTR [eax], ecx
  00069	75 28		 jne	 SHORT $LN16@Extract

; 559  :                 _Myhead->_Left = _Fixnode->_Isnil ? _Fixnodeparent // smallest is parent of erased node

  0006b	80 7f 0d 00	 cmp	 BYTE PTR [edi+13], 0
  0006f	74 04		 je	 SHORT $LN42@Extract
  00071	8b d6		 mov	 edx, esi
  00073	eb 1c		 jmp	 SHORT $LN43@Extract
$LN42@Extract:

; 476  :         while (!_Pnode->_Left->_Isnil) {

  00075	8b 0f		 mov	 ecx, DWORD PTR [edi]

; 559  :                 _Myhead->_Left = _Fixnode->_Isnil ? _Fixnodeparent // smallest is parent of erased node

  00077	8b d7		 mov	 edx, edi

; 476  :         while (!_Pnode->_Left->_Isnil) {

  00079	80 79 0d 00	 cmp	 BYTE PTR [ecx+13], 0
  0007d	75 0f		 jne	 SHORT $LN49@Extract
  0007f	90		 npad	 1
$LL48@Extract:
  00080	8b 01		 mov	 eax, DWORD PTR [ecx]

; 477  :             _Pnode = _Pnode->_Left;

  00082	8b d1		 mov	 edx, ecx
  00084	8b c8		 mov	 ecx, eax
  00086	80 78 0d 00	 cmp	 BYTE PTR [eax+13], 0
  0008a	74 f4		 je	 SHORT $LL48@Extract
  0008c	8b 03		 mov	 eax, DWORD PTR [ebx]
$LN49@Extract:
  0008e	8b 4d f8	 mov	 ecx, DWORD PTR __Erasednode$1$[ebp]
$LN43@Extract:

; 559  :                 _Myhead->_Left = _Fixnode->_Isnil ? _Fixnodeparent // smallest is parent of erased node

  00091	89 10		 mov	 DWORD PTR [eax], edx
$LN16@Extract:

; 560  :                                                   : _Min(_Fixnode); // smallest in relinked subtree
; 561  :             }
; 562  : 
; 563  :             if (_Myhead->_Right == _Erasednode) {

  00093	8b 13		 mov	 edx, DWORD PTR [ebx]
  00095	39 4a 08	 cmp	 DWORD PTR [edx+8], ecx
  00098	75 34		 jne	 SHORT $LN17@Extract

; 564  :                 _Myhead->_Right = _Fixnode->_Isnil ? _Fixnodeparent // largest is parent of erased node

  0009a	80 7f 0d 00	 cmp	 BYTE PTR [edi+13], 0
  0009e	74 0d		 je	 SHORT $LN44@Extract

; 565  :                                                    : _Max(_Fixnode); // largest in relinked subtree
; 566  :             }
; 567  :         } else { // erased has two subtrees, _Pnode is successor to erased

  000a0	8b 45 f8	 mov	 eax, DWORD PTR __Erasednode$1$[ebp]
  000a3	8b ce		 mov	 ecx, esi
  000a5	89 4a 08	 mov	 DWORD PTR [edx+8], ecx
  000a8	e9 94 00 00 00	 jmp	 $LN58@Extract
$LN44@Extract:

; 468  :         while (!_Pnode->_Right->_Isnil) {

  000ad	8b 47 08	 mov	 eax, DWORD PTR [edi+8]

; 564  :                 _Myhead->_Right = _Fixnode->_Isnil ? _Fixnodeparent // largest is parent of erased node

  000b0	8b cf		 mov	 ecx, edi

; 468  :         while (!_Pnode->_Right->_Isnil) {

  000b2	80 78 0d 00	 cmp	 BYTE PTR [eax+13], 0
  000b6	75 13		 jne	 SHORT $LN54@Extract
  000b8	0f 1f 84 00 00
	00 00 00	 npad	 8
$LL53@Extract:

; 469  :             _Pnode = _Pnode->_Right;

  000c0	8b c8		 mov	 ecx, eax
  000c2	8b 41 08	 mov	 eax, DWORD PTR [ecx+8]
  000c5	80 78 0d 00	 cmp	 BYTE PTR [eax+13], 0
  000c9	74 f5		 je	 SHORT $LL53@Extract
$LN54@Extract:

; 564  :                 _Myhead->_Right = _Fixnode->_Isnil ? _Fixnodeparent // largest is parent of erased node

  000cb	89 4a 08	 mov	 DWORD PTR [edx+8], ecx
$LN17@Extract:

; 565  :                                                    : _Max(_Fixnode); // largest in relinked subtree
; 566  :             }
; 567  :         } else { // erased has two subtrees, _Pnode is successor to erased

  000ce	8b 45 f8	 mov	 eax, DWORD PTR __Erasednode$1$[ebp]
  000d1	eb 6e		 jmp	 SHORT $LN58@Extract
$LN9@Extract:

; 568  :             _Erasednode->_Left->_Parent = _Pnode; // link left up

  000d3	89 50 04	 mov	 DWORD PTR [eax+4], edx

; 569  :             _Pnode->_Left               = _Erasednode->_Left; // link successor down

  000d6	8b 01		 mov	 eax, DWORD PTR [ecx]
  000d8	89 02		 mov	 DWORD PTR [edx], eax

; 570  : 
; 571  :             if (_Pnode == _Erasednode->_Right) {

  000da	8d 42 04	 lea	 eax, DWORD PTR [edx+4]
  000dd	89 45 f4	 mov	 DWORD PTR $T1[ebp], eax
  000e0	3b 51 08	 cmp	 edx, DWORD PTR [ecx+8]
  000e3	75 04		 jne	 SHORT $LN18@Extract

; 572  :                 _Fixnodeparent = _Pnode; // successor is next to erased

  000e5	8b f2		 mov	 esi, edx

; 573  :             } else { // successor further down, link in place of erased

  000e7	eb 1f		 jmp	 SHORT $LN19@Extract
$LN18@Extract:

; 574  :                 _Fixnodeparent = _Pnode->_Parent; // parent is successor's
; 575  :                 if (!_Fixnode->_Isnil) {

  000e9	80 7f 0d 00	 cmp	 BYTE PTR [edi+13], 0
  000ed	8b 30		 mov	 esi, DWORD PTR [eax]
  000ef	75 03		 jne	 SHORT $LN20@Extract

; 576  :                     _Fixnode->_Parent = _Fixnodeparent; // link fix up

  000f1	89 77 04	 mov	 DWORD PTR [edi+4], esi
$LN20@Extract:

; 577  :                 }
; 578  : 
; 579  :                 _Fixnodeparent->_Left        = _Fixnode; // link fix down

  000f4	89 3e		 mov	 DWORD PTR [esi], edi

; 580  :                 _Pnode->_Right               = _Erasednode->_Right; // link next down

  000f6	8b 41 08	 mov	 eax, DWORD PTR [ecx+8]
  000f9	89 42 08	 mov	 DWORD PTR [edx+8], eax

; 581  :                 _Erasednode->_Right->_Parent = _Pnode; // right up

  000fc	8b 41 08	 mov	 eax, DWORD PTR [ecx+8]
  000ff	89 50 04	 mov	 DWORD PTR [eax+4], edx
  00102	8d 42 04	 lea	 eax, DWORD PTR [edx+4]
  00105	89 45 f4	 mov	 DWORD PTR $T1[ebp], eax
$LN19@Extract:

; 582  :             }
; 583  : 
; 584  :             if (_Myhead->_Parent == _Erasednode) {

  00108	8b 03		 mov	 eax, DWORD PTR [ebx]
  0010a	39 48 04	 cmp	 DWORD PTR [eax+4], ecx
  0010d	75 05		 jne	 SHORT $LN21@Extract

; 585  :                 _Myhead->_Parent = _Pnode; // link down from root

  0010f	89 50 04	 mov	 DWORD PTR [eax+4], edx
  00112	eb 0e		 jmp	 SHORT $LN141@Extract
$LN21@Extract:

; 586  :             } else if (_Erasednode->_Parent->_Left == _Erasednode) {

  00114	8b 41 04	 mov	 eax, DWORD PTR [ecx+4]
  00117	39 08		 cmp	 DWORD PTR [eax], ecx
  00119	75 04		 jne	 SHORT $LN23@Extract

; 587  :                 _Erasednode->_Parent->_Left = _Pnode; // link down to left

  0011b	89 10		 mov	 DWORD PTR [eax], edx

; 588  :             } else {

  0011d	eb 03		 jmp	 SHORT $LN141@Extract
$LN23@Extract:

; 589  :                 _Erasednode->_Parent->_Right = _Pnode; // link down to right

  0011f	89 50 08	 mov	 DWORD PTR [eax+8], edx
$LN141@Extract:

; 590  :             }
; 591  : 
; 592  :             _Pnode->_Parent = _Erasednode->_Parent; // link successor up

  00122	b8 04 00 00 00	 mov	 eax, 4
  00127	8b 04 08	 mov	 eax, DWORD PTR [eax+ecx]
  0012a	8b 4d f4	 mov	 ecx, DWORD PTR $T1[ebp]
  0012d	89 01		 mov	 DWORD PTR [ecx], eax
; File C:\Program Files\Microsoft Visual Studio\2022\Professional\VC\Tools\MSVC\14.44.35207\include\utility

; 140  :     _Left    = _STD move(_Right);

  0012f	8b 45 f8	 mov	 eax, DWORD PTR __Erasednode$1$[ebp]
  00132	8a 4a 0c	 mov	 cl, BYTE PTR [edx+12]
  00135	8a 40 0c	 mov	 al, BYTE PTR [eax+12]
  00138	88 42 0c	 mov	 BYTE PTR [edx+12], al

; 141  :     _Right   = _STD move(_Tmp);

  0013b	8b 45 f8	 mov	 eax, DWORD PTR __Erasednode$1$[ebp]
  0013e	88 48 0c	 mov	 BYTE PTR [eax+12], cl
$LN58@Extract:
; File C:\Program Files\Microsoft Visual Studio\2022\Professional\VC\Tools\MSVC\14.44.35207\include\xtree

; 596  :         if (_Erasednode->_Color == _Black) { // erasing black link, must recolor/rebalance tree

  00141	80 78 0c 01	 cmp	 BYTE PTR [eax+12], 1
  00145	0f 85 ba 01 00
	00		 jne	 $LN25@Extract

; 597  :             for (; _Fixnode != _Myhead->_Parent && _Fixnode->_Color == _Black; _Fixnodeparent = _Fixnode->_Parent) {

  0014b	8b 03		 mov	 eax, DWORD PTR [ebx]
  0014d	3b 78 04	 cmp	 edi, DWORD PTR [eax+4]
  00150	0f 84 a8 01 00
	00		 je	 $LN3@Extract
  00156	80 7f 0c 01	 cmp	 BYTE PTR [edi+12], 1
  0015a	89 75 f4	 mov	 DWORD PTR tv1093[ebp], esi
  0015d	0f 85 9b 01 00
	00		 jne	 $LN3@Extract
$LL4@Extract:

; 598  :                 if (_Fixnode == _Fixnodeparent->_Left) { // fixup left subtree

  00163	8b 0e		 mov	 ecx, DWORD PTR [esi]
  00165	3b f9		 cmp	 edi, ecx
  00167	0f 85 be 00 00
	00		 jne	 $LN26@Extract

; 599  :                     _Pnode = _Fixnodeparent->_Right;

  0016d	8b 4e 08	 mov	 ecx, DWORD PTR [esi+8]

; 600  :                     if (_Pnode->_Color == _Red) { // rotate red up from right subtree

  00170	80 79 0c 00	 cmp	 BYTE PTR [ecx+12], 0
  00174	75 54		 jne	 SHORT $LN95@Extract

; 601  :                         _Pnode->_Color         = _Black;

  00176	c6 41 0c 01	 mov	 BYTE PTR [ecx+12], 1

; 484  :         _Nodeptr _Pnode    = _Wherenode->_Right;

  0017a	8b 4e 08	 mov	 ecx, DWORD PTR [esi+8]

; 602  :                         _Fixnodeparent->_Color = _Red;

  0017d	c6 46 0c 00	 mov	 BYTE PTR [esi+12], 0

; 485  :         _Wherenode->_Right = _Pnode->_Left;

  00181	8b 01		 mov	 eax, DWORD PTR [ecx]
  00183	89 46 08	 mov	 DWORD PTR [esi+8], eax

; 486  : 
; 487  :         if (!_Pnode->_Left->_Isnil) {

  00186	8b 01		 mov	 eax, DWORD PTR [ecx]
  00188	80 78 0d 00	 cmp	 BYTE PTR [eax+13], 0
  0018c	75 03		 jne	 SHORT $LN61@Extract

; 488  :             _Pnode->_Left->_Parent = _Wherenode;

  0018e	89 70 04	 mov	 DWORD PTR [eax+4], esi
$LN61@Extract:

; 489  :         }
; 490  : 
; 491  :         _Pnode->_Parent = _Wherenode->_Parent;

  00191	8b 46 04	 mov	 eax, DWORD PTR [esi+4]
  00194	8d 56 04	 lea	 edx, DWORD PTR [esi+4]
  00197	89 41 04	 mov	 DWORD PTR [ecx+4], eax

; 492  : 
; 493  :         if (_Wherenode == _Myhead->_Parent) {

  0019a	8b 03		 mov	 eax, DWORD PTR [ebx]
  0019c	3b 70 04	 cmp	 esi, DWORD PTR [eax+4]
  0019f	75 0c		 jne	 SHORT $LN62@Extract

; 494  :             _Myhead->_Parent = _Pnode;

  001a1	89 48 04	 mov	 DWORD PTR [eax+4], ecx

; 499  :         }
; 500  : 
; 501  :         _Pnode->_Left       = _Wherenode;

  001a4	89 31		 mov	 DWORD PTR [ecx], esi

; 502  :         _Wherenode->_Parent = _Pnode;

  001a6	89 0a		 mov	 DWORD PTR [edx], ecx

; 603  :                         _Lrotate(_Fixnodeparent);
; 604  :                         _Pnode = _Fixnodeparent->_Right;

  001a8	8b 4e 08	 mov	 ecx, DWORD PTR [esi+8]
  001ab	eb 20		 jmp	 SHORT $LN87@Extract
$LN62@Extract:

; 495  :         } else if (_Wherenode == _Wherenode->_Parent->_Left) {

  001ad	8b 02		 mov	 eax, DWORD PTR [edx]
  001af	3b 30		 cmp	 esi, DWORD PTR [eax]
  001b1	75 0b		 jne	 SHORT $LN64@Extract

; 496  :             _Wherenode->_Parent->_Left = _Pnode;

  001b3	89 08		 mov	 DWORD PTR [eax], ecx

; 499  :         }
; 500  : 
; 501  :         _Pnode->_Left       = _Wherenode;

  001b5	89 31		 mov	 DWORD PTR [ecx], esi

; 502  :         _Wherenode->_Parent = _Pnode;

  001b7	89 0a		 mov	 DWORD PTR [edx], ecx

; 603  :                         _Lrotate(_Fixnodeparent);
; 604  :                         _Pnode = _Fixnodeparent->_Right;

  001b9	8b 4e 08	 mov	 ecx, DWORD PTR [esi+8]
  001bc	eb 0f		 jmp	 SHORT $LN87@Extract
$LN64@Extract:

; 498  :             _Wherenode->_Parent->_Right = _Pnode;

  001be	89 48 08	 mov	 DWORD PTR [eax+8], ecx

; 499  :         }
; 500  : 
; 501  :         _Pnode->_Left       = _Wherenode;

  001c1	89 31		 mov	 DWORD PTR [ecx], esi

; 502  :         _Wherenode->_Parent = _Pnode;

  001c3	89 0a		 mov	 DWORD PTR [edx], ecx

; 603  :                         _Lrotate(_Fixnodeparent);
; 604  :                         _Pnode = _Fixnodeparent->_Right;

  001c5	8b 4e 08	 mov	 ecx, DWORD PTR [esi+8]
  001c8	eb 03		 jmp	 SHORT $LN87@Extract
$LN95@Extract:
  001ca	8d 56 04	 lea	 edx, DWORD PTR [esi+4]
$LN87@Extract:

; 605  :                     }
; 606  : 
; 607  :                     if (_Pnode->_Isnil) {

  001cd	80 79 0d 00	 cmp	 BYTE PTR [ecx+13], 0
  001d1	0f 85 d0 00 00
	00		 jne	 $LN2@Extract

; 608  :                         _Fixnode = _Fixnodeparent; // shouldn't happen
; 609  :                     } else if (_Pnode->_Left->_Color == _Black
; 610  :                                && _Pnode->_Right->_Color == _Black) { // redden right subtree with black children

  001d7	8b 01		 mov	 eax, DWORD PTR [ecx]
  001d9	80 78 0c 01	 cmp	 BYTE PTR [eax+12], 1
  001dd	75 0d		 jne	 SHORT $LN97@Extract
  001df	8b 41 08	 mov	 eax, DWORD PTR [ecx+8]
  001e2	80 78 0c 01	 cmp	 BYTE PTR [eax+12], 1
  001e6	0f 84 b4 00 00
	00		 je	 $LN142@Extract
$LN97@Extract:

; 611  :                         _Pnode->_Color = _Red;
; 612  :                         _Fixnode       = _Fixnodeparent;
; 613  :                     } else { // must rearrange right subtree
; 614  :                         if (_Pnode->_Right->_Color == _Black) { // rotate red up from left sub-subtree

  001ec	8b 41 08	 mov	 eax, DWORD PTR [ecx+8]
  001ef	8b 5d fc	 mov	 ebx, DWORD PTR _this$1$[ebp]
  001f2	80 78 0c 01	 cmp	 BYTE PTR [eax+12], 1
  001f6	75 15		 jne	 SHORT $LN33@Extract

; 615  :                             _Pnode->_Left->_Color = _Black;

  001f8	8b 01		 mov	 eax, DWORD PTR [ecx]

; 616  :                             _Pnode->_Color        = _Red;
; 617  :                             _Rrotate(_Pnode);

  001fa	51		 push	 ecx
  001fb	c6 40 0c 01	 mov	 BYTE PTR [eax+12], 1
  001ff	c6 41 0c 00	 mov	 BYTE PTR [ecx+12], 0
  00203	8b cb		 mov	 ecx, ebx
  00205	e8 00 00 00 00	 call	 ?_Rrotate@?$_Tree_val@U?$_Tree_simple_types@U?$pair@$$CBKPAVCGuildHouseBase@@@std@@@std@@@std@@QAEXPAU?$_Tree_node@U?$pair@$$CBKPAVCGuildHouseBase@@@std@@PAX@2@@Z ; std::_Tree_val<std::_Tree_simple_types<std::pair<unsigned long const ,CGuildHouseBase *> > >::_Rrotate

; 618  :                             _Pnode = _Fixnodeparent->_Right;

  0020a	8b 4e 08	 mov	 ecx, DWORD PTR [esi+8]
$LN33@Extract:

; 619  :                         }
; 620  : 
; 621  :                         _Pnode->_Color         = _Fixnodeparent->_Color;

  0020d	8a 46 0c	 mov	 al, BYTE PTR [esi+12]
  00210	88 41 0c	 mov	 BYTE PTR [ecx+12], al

; 622  :                         _Fixnodeparent->_Color = _Black;

  00213	c6 46 0c 01	 mov	 BYTE PTR [esi+12], 1

; 623  :                         _Pnode->_Right->_Color = _Black;

  00217	8b 41 08	 mov	 eax, DWORD PTR [ecx+8]

; 624  :                         _Lrotate(_Fixnodeparent);

  0021a	8b cb		 mov	 ecx, ebx
  0021c	56		 push	 esi
  0021d	c6 40 0c 01	 mov	 BYTE PTR [eax+12], 1
  00221	e8 00 00 00 00	 call	 ?_Lrotate@?$_Tree_val@U?$_Tree_simple_types@U?$pair@$$CBKPAVCGuildHouseBase@@@std@@@std@@@std@@QAEXPAU?$_Tree_node@U?$pair@$$CBKPAVCGuildHouseBase@@@std@@PAX@2@@Z ; std::_Tree_val<std::_Tree_simple_types<std::pair<unsigned long const ,CGuildHouseBase *> > >::_Lrotate

; 625  :                         break; // tree now recolored/rebalanced

  00226	e9 d3 00 00 00	 jmp	 $LN3@Extract
$LN26@Extract:

; 626  :                     }
; 627  :                 } else { // fixup right subtree
; 628  :                     _Pnode = _Fixnodeparent->_Left;
; 629  :                     if (_Pnode->_Color == _Red) { // rotate red up from left subtree

  0022b	80 79 0c 00	 cmp	 BYTE PTR [ecx+12], 0
  0022f	75 55		 jne	 SHORT $LN96@Extract

; 630  :                         _Pnode->_Color         = _Black;

  00231	c6 41 0c 01	 mov	 BYTE PTR [ecx+12], 1

; 506  :         _Nodeptr _Pnode   = _Wherenode->_Left;

  00235	8b 0e		 mov	 ecx, DWORD PTR [esi]

; 631  :                         _Fixnodeparent->_Color = _Red;

  00237	c6 46 0c 00	 mov	 BYTE PTR [esi+12], 0

; 507  :         _Wherenode->_Left = _Pnode->_Right;

  0023b	8b 41 08	 mov	 eax, DWORD PTR [ecx+8]
  0023e	89 06		 mov	 DWORD PTR [esi], eax

; 508  : 
; 509  :         if (!_Pnode->_Right->_Isnil) {

  00240	8b 41 08	 mov	 eax, DWORD PTR [ecx+8]
  00243	80 78 0d 00	 cmp	 BYTE PTR [eax+13], 0
  00247	75 03		 jne	 SHORT $LN69@Extract

; 510  :             _Pnode->_Right->_Parent = _Wherenode;

  00249	89 70 04	 mov	 DWORD PTR [eax+4], esi
$LN69@Extract:

; 511  :         }
; 512  : 
; 513  :         _Pnode->_Parent = _Wherenode->_Parent;

  0024c	8b 46 04	 mov	 eax, DWORD PTR [esi+4]
  0024f	8d 56 04	 lea	 edx, DWORD PTR [esi+4]
  00252	89 41 04	 mov	 DWORD PTR [ecx+4], eax

; 514  : 
; 515  :         if (_Wherenode == _Myhead->_Parent) {

  00255	8b 03		 mov	 eax, DWORD PTR [ebx]
  00257	3b 70 04	 cmp	 esi, DWORD PTR [eax+4]
  0025a	75 0c		 jne	 SHORT $LN70@Extract

; 516  :             _Myhead->_Parent = _Pnode;

  0025c	89 48 04	 mov	 DWORD PTR [eax+4], ecx

; 521  :         }
; 522  : 
; 523  :         _Pnode->_Right      = _Wherenode;

  0025f	89 71 08	 mov	 DWORD PTR [ecx+8], esi

; 524  :         _Wherenode->_Parent = _Pnode;

  00262	89 0a		 mov	 DWORD PTR [edx], ecx

; 632  :                         _Rrotate(_Fixnodeparent);
; 633  :                         _Pnode = _Fixnodeparent->_Left;

  00264	8b 0e		 mov	 ecx, DWORD PTR [esi]
  00266	eb 21		 jmp	 SHORT $LN86@Extract
$LN70@Extract:

; 517  :         } else if (_Wherenode == _Wherenode->_Parent->_Right) {

  00268	8b 02		 mov	 eax, DWORD PTR [edx]
  0026a	3b 70 08	 cmp	 esi, DWORD PTR [eax+8]
  0026d	75 0c		 jne	 SHORT $LN72@Extract

; 518  :             _Wherenode->_Parent->_Right = _Pnode;

  0026f	89 48 08	 mov	 DWORD PTR [eax+8], ecx

; 521  :         }
; 522  : 
; 523  :         _Pnode->_Right      = _Wherenode;

  00272	89 71 08	 mov	 DWORD PTR [ecx+8], esi

; 524  :         _Wherenode->_Parent = _Pnode;

  00275	89 0a		 mov	 DWORD PTR [edx], ecx

; 632  :                         _Rrotate(_Fixnodeparent);
; 633  :                         _Pnode = _Fixnodeparent->_Left;

  00277	8b 0e		 mov	 ecx, DWORD PTR [esi]
  00279	eb 0e		 jmp	 SHORT $LN86@Extract
$LN72@Extract:

; 520  :             _Wherenode->_Parent->_Left = _Pnode;

  0027b	89 08		 mov	 DWORD PTR [eax], ecx

; 521  :         }
; 522  : 
; 523  :         _Pnode->_Right      = _Wherenode;

  0027d	89 71 08	 mov	 DWORD PTR [ecx+8], esi

; 524  :         _Wherenode->_Parent = _Pnode;

  00280	89 0a		 mov	 DWORD PTR [edx], ecx

; 632  :                         _Rrotate(_Fixnodeparent);
; 633  :                         _Pnode = _Fixnodeparent->_Left;

  00282	8b 0e		 mov	 ecx, DWORD PTR [esi]
  00284	eb 03		 jmp	 SHORT $LN86@Extract
$LN96@Extract:
  00286	8d 56 04	 lea	 edx, DWORD PTR [esi+4]
$LN86@Extract:

; 634  :                     }
; 635  : 
; 636  :                     if (_Pnode->_Isnil) {

  00289	80 79 0d 00	 cmp	 BYTE PTR [ecx+13], 0
  0028d	75 18		 jne	 SHORT $LN2@Extract

; 637  :                         _Fixnode = _Fixnodeparent; // shouldn't happen
; 638  :                     } else if (_Pnode->_Right->_Color == _Black
; 639  :                                && _Pnode->_Left->_Color == _Black) { // redden left subtree with black children

  0028f	8b 59 08	 mov	 ebx, DWORD PTR [ecx+8]
  00292	80 7b 0c 01	 cmp	 BYTE PTR [ebx+12], 1
  00296	75 2c		 jne	 SHORT $LN98@Extract
  00298	8b 01		 mov	 eax, DWORD PTR [ecx]
  0029a	80 78 0c 01	 cmp	 BYTE PTR [eax+12], 1
  0029e	75 24		 jne	 SHORT $LN98@Extract
$LN142@Extract:

; 597  :             for (; _Fixnode != _Myhead->_Parent && _Fixnode->_Color == _Black; _Fixnodeparent = _Fixnode->_Parent) {

  002a0	8b 5d fc	 mov	 ebx, DWORD PTR _this$1$[ebp]
  002a3	c6 41 0c 00	 mov	 BYTE PTR [ecx+12], 0
$LN2@Extract:
  002a7	8b 03		 mov	 eax, DWORD PTR [ebx]
  002a9	8b 4d f4	 mov	 ecx, DWORD PTR tv1093[ebp]
  002ac	8b f9		 mov	 edi, ecx
  002ae	8b 32		 mov	 esi, DWORD PTR [edx]
  002b0	3b 48 04	 cmp	 ecx, DWORD PTR [eax+4]
  002b3	74 49		 je	 SHORT $LN3@Extract
  002b5	80 7f 0c 01	 cmp	 BYTE PTR [edi+12], 1
  002b9	89 75 f4	 mov	 DWORD PTR tv1093[ebp], esi
  002bc	0f 84 a1 fe ff
	ff		 je	 $LL4@Extract
  002c2	eb 3a		 jmp	 SHORT $LN3@Extract
$LN98@Extract:

; 640  :                         _Pnode->_Color = _Red;
; 641  :                         _Fixnode       = _Fixnodeparent;
; 642  :                     } else { // must rearrange left subtree
; 643  :                         if (_Pnode->_Left->_Color == _Black) { // rotate red up from right sub-subtree

  002c4	8b 01		 mov	 eax, DWORD PTR [ecx]
  002c6	80 78 0c 01	 cmp	 BYTE PTR [eax+12], 1
  002ca	75 17		 jne	 SHORT $LN101@Extract

; 644  :                             _Pnode->_Right->_Color = _Black;

  002cc	c6 43 0c 01	 mov	 BYTE PTR [ebx+12], 1

; 645  :                             _Pnode->_Color         = _Red;
; 646  :                             _Lrotate(_Pnode);

  002d0	8b 5d fc	 mov	 ebx, DWORD PTR _this$1$[ebp]
  002d3	c6 41 0c 00	 mov	 BYTE PTR [ecx+12], 0
  002d7	51		 push	 ecx
  002d8	8b cb		 mov	 ecx, ebx
  002da	e8 00 00 00 00	 call	 ?_Lrotate@?$_Tree_val@U?$_Tree_simple_types@U?$pair@$$CBKPAVCGuildHouseBase@@@std@@@std@@@std@@QAEXPAU?$_Tree_node@U?$pair@$$CBKPAVCGuildHouseBase@@@std@@PAX@2@@Z ; std::_Tree_val<std::_Tree_simple_types<std::pair<unsigned long const ,CGuildHouseBase *> > >::_Lrotate

; 647  :                             _Pnode = _Fixnodeparent->_Left;

  002df	8b 0e		 mov	 ecx, DWORD PTR [esi]
  002e1	eb 03		 jmp	 SHORT $LN39@Extract
$LN101@Extract:

; 640  :                         _Pnode->_Color = _Red;
; 641  :                         _Fixnode       = _Fixnodeparent;
; 642  :                     } else { // must rearrange left subtree
; 643  :                         if (_Pnode->_Left->_Color == _Black) { // rotate red up from right sub-subtree

  002e3	8b 5d fc	 mov	 ebx, DWORD PTR _this$1$[ebp]
$LN39@Extract:

; 648  :                         }
; 649  : 
; 650  :                         _Pnode->_Color         = _Fixnodeparent->_Color;

  002e6	8a 46 0c	 mov	 al, BYTE PTR [esi+12]
  002e9	88 41 0c	 mov	 BYTE PTR [ecx+12], al

; 651  :                         _Fixnodeparent->_Color = _Black;

  002ec	c6 46 0c 01	 mov	 BYTE PTR [esi+12], 1

; 652  :                         _Pnode->_Left->_Color  = _Black;

  002f0	8b 01		 mov	 eax, DWORD PTR [ecx]

; 653  :                         _Rrotate(_Fixnodeparent);

  002f2	8b cb		 mov	 ecx, ebx
  002f4	56		 push	 esi
  002f5	c6 40 0c 01	 mov	 BYTE PTR [eax+12], 1
  002f9	e8 00 00 00 00	 call	 ?_Rrotate@?$_Tree_val@U?$_Tree_simple_types@U?$pair@$$CBKPAVCGuildHouseBase@@@std@@@std@@@std@@QAEXPAU?$_Tree_node@U?$pair@$$CBKPAVCGuildHouseBase@@@std@@PAX@2@@Z ; std::_Tree_val<std::_Tree_simple_types<std::pair<unsigned long const ,CGuildHouseBase *> > >::_Rrotate
$LN3@Extract:

; 654  :                         break; // tree now recolored/rebalanced
; 655  :                     }
; 656  :                 }
; 657  :             }
; 658  : 
; 659  :             _Fixnode->_Color = _Black; // stopping node is black

  002fe	8b 45 f8	 mov	 eax, DWORD PTR __Erasednode$1$[ebp]
  00301	c6 47 0c 01	 mov	 BYTE PTR [edi+12], 1
$LN25@Extract:

; 660  :         }
; 661  : 
; 662  :         if (0 < _Mysize) {

  00305	8b 4b 04	 mov	 ecx, DWORD PTR [ebx+4]
  00308	85 c9		 test	 ecx, ecx
  0030a	74 04		 je	 SHORT $LN40@Extract

; 663  :             --_Mysize;

  0030c	49		 dec	 ecx
  0030d	89 4b 04	 mov	 DWORD PTR [ebx+4], ecx
$LN40@Extract:

; 664  :         }
; 665  : 
; 666  :         return _Erasednode;
; 667  :     }

  00310	5f		 pop	 edi
  00311	5e		 pop	 esi
  00312	5b		 pop	 ebx
  00313	8b e5		 mov	 esp, ebp
  00315	5d		 pop	 ebp
  00316	c2 04 00	 ret	 4
?_Extract@?$_Tree_val@U?$_Tree_simple_types@U?$pair@$$CBKPAVCGuildHouseBase@@@std@@@std@@@std@@QAEPAU?$_Tree_node@U?$pair@$$CBKPAVCGuildHouseBase@@@std@@PAX@2@V?$_Tree_unchecked_const_iterator@V?$_Tree_val@U?$_Tree_simple_types@U?$pair@$$CBKPAVCGuildHouseBase@@@std@@@std@@@std@@U_Iterator_base0@2@@2@@Z ENDP ; std::_Tree_val<std::_Tree_simple_types<std::pair<unsigned long const ,CGuildHouseBase *> > >::_Extract
_TEXT	ENDS
; Function compile flags: /Ogtp
; File C:\Program Files\Microsoft Visual Studio\2022\Professional\VC\Tools\MSVC\14.44.35207\include\xtree
;	COMDAT ?_Rrotate@?$_Tree_val@U?$_Tree_simple_types@U?$pair@$$CBKPAVCGuildHouseBase@@@std@@@std@@@std@@QAEXPAU?$_Tree_node@U?$pair@$$CBKPAVCGuildHouseBase@@@std@@PAX@2@@Z
_TEXT	SEGMENT
__Wherenode$ = 8					; size = 4
?_Rrotate@?$_Tree_val@U?$_Tree_simple_types@U?$pair@$$CBKPAVCGuildHouseBase@@@std@@@std@@@std@@QAEXPAU?$_Tree_node@U?$pair@$$CBKPAVCGuildHouseBase@@@std@@PAX@2@@Z PROC ; std::_Tree_val<std::_Tree_simple_types<std::pair<unsigned long const ,CGuildHouseBase *> > >::_Rrotate, COMDAT
; _this$ = ecx

; 505  :     void _Rrotate(_Nodeptr _Wherenode) noexcept { // promote left node to root of subtree

  00000	55		 push	 ebp
  00001	8b ec		 mov	 ebp, esp

; 506  :         _Nodeptr _Pnode   = _Wherenode->_Left;

  00003	8b 55 08	 mov	 edx, DWORD PTR __Wherenode$[ebp]
  00006	56		 push	 esi
  00007	8b 32		 mov	 esi, DWORD PTR [edx]

; 507  :         _Wherenode->_Left = _Pnode->_Right;

  00009	8b 46 08	 mov	 eax, DWORD PTR [esi+8]
  0000c	89 02		 mov	 DWORD PTR [edx], eax

; 508  : 
; 509  :         if (!_Pnode->_Right->_Isnil) {

  0000e	8b 46 08	 mov	 eax, DWORD PTR [esi+8]
  00011	80 78 0d 00	 cmp	 BYTE PTR [eax+13], 0
  00015	75 03		 jne	 SHORT $LN2@Rrotate

; 510  :             _Pnode->_Right->_Parent = _Wherenode;

  00017	89 50 04	 mov	 DWORD PTR [eax+4], edx
$LN2@Rrotate:

; 511  :         }
; 512  : 
; 513  :         _Pnode->_Parent = _Wherenode->_Parent;

  0001a	8b 42 04	 mov	 eax, DWORD PTR [edx+4]
  0001d	89 46 04	 mov	 DWORD PTR [esi+4], eax

; 514  : 
; 515  :         if (_Wherenode == _Myhead->_Parent) {

  00020	8b 01		 mov	 eax, DWORD PTR [ecx]
  00022	3b 50 04	 cmp	 edx, DWORD PTR [eax+4]
  00025	75 0e		 jne	 SHORT $LN3@Rrotate

; 516  :             _Myhead->_Parent = _Pnode;

  00027	89 70 04	 mov	 DWORD PTR [eax+4], esi

; 521  :         }
; 522  : 
; 523  :         _Pnode->_Right      = _Wherenode;
; 524  :         _Wherenode->_Parent = _Pnode;
; 525  :     }

  0002a	89 56 08	 mov	 DWORD PTR [esi+8], edx
  0002d	89 72 04	 mov	 DWORD PTR [edx+4], esi
  00030	5e		 pop	 esi
  00031	5d		 pop	 ebp
  00032	c2 04 00	 ret	 4
$LN3@Rrotate:

; 517  :         } else if (_Wherenode == _Wherenode->_Parent->_Right) {

  00035	8b 42 04	 mov	 eax, DWORD PTR [edx+4]
  00038	3b 50 08	 cmp	 edx, DWORD PTR [eax+8]
  0003b	75 0e		 jne	 SHORT $LN5@Rrotate

; 518  :             _Wherenode->_Parent->_Right = _Pnode;

  0003d	89 70 08	 mov	 DWORD PTR [eax+8], esi

; 521  :         }
; 522  : 
; 523  :         _Pnode->_Right      = _Wherenode;
; 524  :         _Wherenode->_Parent = _Pnode;
; 525  :     }

  00040	89 56 08	 mov	 DWORD PTR [esi+8], edx
  00043	89 72 04	 mov	 DWORD PTR [edx+4], esi
  00046	5e		 pop	 esi
  00047	5d		 pop	 ebp
  00048	c2 04 00	 ret	 4
$LN5@Rrotate:

; 519  :         } else {
; 520  :             _Wherenode->_Parent->_Left = _Pnode;

  0004b	89 30		 mov	 DWORD PTR [eax], esi

; 521  :         }
; 522  : 
; 523  :         _Pnode->_Right      = _Wherenode;
; 524  :         _Wherenode->_Parent = _Pnode;
; 525  :     }

  0004d	89 56 08	 mov	 DWORD PTR [esi+8], edx
  00050	89 72 04	 mov	 DWORD PTR [edx+4], esi
  00053	5e		 pop	 esi
  00054	5d		 pop	 ebp
  00055	c2 04 00	 ret	 4
?_Rrotate@?$_Tree_val@U?$_Tree_simple_types@U?$pair@$$CBKPAVCGuildHouseBase@@@std@@@std@@@std@@QAEXPAU?$_Tree_node@U?$pair@$$CBKPAVCGuildHouseBase@@@std@@PAX@2@@Z ENDP ; std::_Tree_val<std::_Tree_simple_types<std::pair<unsigned long const ,CGuildHouseBase *> > >::_Rrotate
_TEXT	ENDS
; Function compile flags: /Ogtp
; File C:\Program Files\Microsoft Visual Studio\2022\Professional\VC\Tools\MSVC\14.44.35207\include\xtree
;	COMDAT ?_Lrotate@?$_Tree_val@U?$_Tree_simple_types@U?$pair@$$CBKPAVCGuildHouseBase@@@std@@@std@@@std@@QAEXPAU?$_Tree_node@U?$pair@$$CBKPAVCGuildHouseBase@@@std@@PAX@2@@Z
_TEXT	SEGMENT
__Wherenode$ = 8					; size = 4
?_Lrotate@?$_Tree_val@U?$_Tree_simple_types@U?$pair@$$CBKPAVCGuildHouseBase@@@std@@@std@@@std@@QAEXPAU?$_Tree_node@U?$pair@$$CBKPAVCGuildHouseBase@@@std@@PAX@2@@Z PROC ; std::_Tree_val<std::_Tree_simple_types<std::pair<unsigned long const ,CGuildHouseBase *> > >::_Lrotate, COMDAT
; _this$ = ecx

; 483  :     void _Lrotate(_Nodeptr _Wherenode) noexcept { // promote right node to root of subtree

  00000	55		 push	 ebp
  00001	8b ec		 mov	 ebp, esp

; 484  :         _Nodeptr _Pnode    = _Wherenode->_Right;

  00003	8b 55 08	 mov	 edx, DWORD PTR __Wherenode$[ebp]
  00006	56		 push	 esi
  00007	8b 72 08	 mov	 esi, DWORD PTR [edx+8]

; 485  :         _Wherenode->_Right = _Pnode->_Left;

  0000a	8b 06		 mov	 eax, DWORD PTR [esi]
  0000c	89 42 08	 mov	 DWORD PTR [edx+8], eax

; 486  : 
; 487  :         if (!_Pnode->_Left->_Isnil) {

  0000f	8b 06		 mov	 eax, DWORD PTR [esi]
  00011	80 78 0d 00	 cmp	 BYTE PTR [eax+13], 0
  00015	75 03		 jne	 SHORT $LN2@Lrotate

; 488  :             _Pnode->_Left->_Parent = _Wherenode;

  00017	89 50 04	 mov	 DWORD PTR [eax+4], edx
$LN2@Lrotate:

; 489  :         }
; 490  : 
; 491  :         _Pnode->_Parent = _Wherenode->_Parent;

  0001a	8b 42 04	 mov	 eax, DWORD PTR [edx+4]
  0001d	89 46 04	 mov	 DWORD PTR [esi+4], eax

; 492  : 
; 493  :         if (_Wherenode == _Myhead->_Parent) {

  00020	8b 01		 mov	 eax, DWORD PTR [ecx]
  00022	3b 50 04	 cmp	 edx, DWORD PTR [eax+4]
  00025	75 0d		 jne	 SHORT $LN3@Lrotate

; 494  :             _Myhead->_Parent = _Pnode;

  00027	89 70 04	 mov	 DWORD PTR [eax+4], esi

; 499  :         }
; 500  : 
; 501  :         _Pnode->_Left       = _Wherenode;
; 502  :         _Wherenode->_Parent = _Pnode;
; 503  :     }

  0002a	89 16		 mov	 DWORD PTR [esi], edx
  0002c	89 72 04	 mov	 DWORD PTR [edx+4], esi
  0002f	5e		 pop	 esi
  00030	5d		 pop	 ebp
  00031	c2 04 00	 ret	 4
$LN3@Lrotate:

; 495  :         } else if (_Wherenode == _Wherenode->_Parent->_Left) {

  00034	8b 42 04	 mov	 eax, DWORD PTR [edx+4]
  00037	3b 10		 cmp	 edx, DWORD PTR [eax]
  00039	75 0c		 jne	 SHORT $LN5@Lrotate

; 496  :             _Wherenode->_Parent->_Left = _Pnode;

  0003b	89 30		 mov	 DWORD PTR [eax], esi

; 499  :         }
; 500  : 
; 501  :         _Pnode->_Left       = _Wherenode;
; 502  :         _Wherenode->_Parent = _Pnode;
; 503  :     }

  0003d	89 16		 mov	 DWORD PTR [esi], edx
  0003f	89 72 04	 mov	 DWORD PTR [edx+4], esi
  00042	5e		 pop	 esi
  00043	5d		 pop	 ebp
  00044	c2 04 00	 ret	 4
$LN5@Lrotate:

; 497  :         } else {
; 498  :             _Wherenode->_Parent->_Right = _Pnode;

  00047	89 70 08	 mov	 DWORD PTR [eax+8], esi

; 499  :         }
; 500  : 
; 501  :         _Pnode->_Left       = _Wherenode;
; 502  :         _Wherenode->_Parent = _Pnode;
; 503  :     }

  0004a	89 16		 mov	 DWORD PTR [esi], edx
  0004c	89 72 04	 mov	 DWORD PTR [edx+4], esi
  0004f	5e		 pop	 esi
  00050	5d		 pop	 ebp
  00051	c2 04 00	 ret	 4
?_Lrotate@?$_Tree_val@U?$_Tree_simple_types@U?$pair@$$CBKPAVCGuildHouseBase@@@std@@@std@@@std@@QAEXPAU?$_Tree_node@U?$pair@$$CBKPAVCGuildHouseBase@@@std@@PAX@2@@Z ENDP ; std::_Tree_val<std::_Tree_simple_types<std::pair<unsigned long const ,CGuildHouseBase *> > >::_Lrotate
_TEXT	ENDS
; Function compile flags: /Ogtp
; File C:\Program Files\Microsoft Visual Studio\2022\Professional\VC\Tools\MSVC\14.44.35207\include\xtree
; File C:\Program Files\Microsoft Visual Studio\2022\Professional\VC\Tools\MSVC\14.44.35207\include\utility
; File C:\Program Files\Microsoft Visual Studio\2022\Professional\VC\Tools\MSVC\14.44.35207\include\xmemory
; File C:\Program Files\Microsoft Visual Studio\2022\Professional\VC\Tools\MSVC\14.44.35207\include\xtree
;	COMDAT ?clear@?$_Tree@V?$_Tmap_traits@KPAVCGuildHouseBase@@U?$less@K@std@@V?$allocator@U?$pair@$$CBKPAVCGuildHouseBase@@@std@@@3@$0A@@std@@@std@@QAEXXZ
_TEXT	SEGMENT
?clear@?$_Tree@V?$_Tmap_traits@KPAVCGuildHouseBase@@U?$less@K@std@@V?$allocator@U?$pair@$$CBKPAVCGuildHouseBase@@@std@@@3@$0A@@std@@@std@@QAEXXZ PROC ; std::_Tree<std::_Tmap_traits<unsigned long,CGuildHouseBase *,std::less<unsigned long>,std::allocator<std::pair<unsigned long const ,CGuildHouseBase *> >,0> >::clear, COMDAT
; _this$ = ecx

; 1370 :     void clear() noexcept {

  00000	53		 push	 ebx
  00001	8b d9		 mov	 ebx, ecx
  00003	56		 push	 esi
  00004	57		 push	 edi

; 1371 :         const auto _Scary = _Get_scary();
; 1372 :         _Scary->_Orphan_ptr(nullptr);
; 1373 :         auto _Head = _Scary->_Myhead;

  00005	8b 3b		 mov	 edi, DWORD PTR [ebx]

; 1374 :         _Scary->_Erase_tree(_Getal(), _Head->_Parent);

  00007	8b 77 04	 mov	 esi, DWORD PTR [edi+4]

; 768  :         while (!_Rootnode->_Isnil) { // free subtrees, then node

  0000a	80 7e 0d 00	 cmp	 BYTE PTR [esi+13], 0
  0000e	75 20		 jne	 SHORT $LN38@clear
$LL5@clear:

; 769  :             _Erase_tree(_Al, _Rootnode->_Right);

  00010	ff 76 08	 push	 DWORD PTR [esi+8]
  00013	8b cb		 mov	 ecx, ebx
  00015	53		 push	 ebx
  00016	e8 00 00 00 00	 call	 ??$_Erase_tree@V?$allocator@U?$_Tree_node@U?$pair@$$CBKPAVCGuildHouseBase@@@std@@PAX@std@@@std@@@?$_Tree_val@U?$_Tree_simple_types@U?$pair@$$CBKPAVCGuildHouseBase@@@std@@@std@@@std@@QAEXAAV?$allocator@U?$_Tree_node@U?$pair@$$CBKPAVCGuildHouseBase@@@std@@PAX@std@@@1@PAU?$_Tree_node@U?$pair@$$CBKPAVCGuildHouseBase@@@std@@PAX@1@@Z ; std::_Tree_val<std::_Tree_simple_types<std::pair<unsigned long const ,CGuildHouseBase *> > >::_Erase_tree<std::allocator<std::_Tree_node<std::pair<unsigned long const ,CGuildHouseBase *>,void *> > >
; File C:\Program Files\Microsoft Visual Studio\2022\Professional\VC\Tools\MSVC\14.44.35207\include\utility

; 773  :     _Ty _Old_val = static_cast<_Ty&&>(_Val);

  0001b	8b c6		 mov	 eax, esi

; 774  :     _Val         = static_cast<_Other&&>(_New_val);

  0001d	8b 36		 mov	 esi, DWORD PTR [esi]
; File C:\Program Files\Microsoft Visual Studio\2022\Professional\VC\Tools\MSVC\14.44.35207\include\xmemory

; 289  :         ::operator delete(_Ptr, _Bytes);

  0001f	6a 18		 push	 24			; 00000018H
  00021	50		 push	 eax
  00022	e8 00 00 00 00	 call	 ??3@YAXPAXI@Z		; operator delete
  00027	83 c4 08	 add	 esp, 8
; File C:\Program Files\Microsoft Visual Studio\2022\Professional\VC\Tools\MSVC\14.44.35207\include\xtree

; 768  :         while (!_Rootnode->_Isnil) { // free subtrees, then node

  0002a	80 7e 0d 00	 cmp	 BYTE PTR [esi+13], 0
  0002e	74 e0		 je	 SHORT $LL5@clear
$LN38@clear:

; 1375 :         _Head->_Parent  = _Head;

  00030	89 7f 04	 mov	 DWORD PTR [edi+4], edi

; 1376 :         _Head->_Left    = _Head;

  00033	89 3f		 mov	 DWORD PTR [edi], edi

; 1377 :         _Head->_Right   = _Head;

  00035	89 7f 08	 mov	 DWORD PTR [edi+8], edi

; 1378 :         _Scary->_Mysize = 0;

  00038	5f		 pop	 edi
  00039	5e		 pop	 esi
  0003a	c7 43 04 00 00
	00 00		 mov	 DWORD PTR [ebx+4], 0
  00041	5b		 pop	 ebx

; 1379 :     }

  00042	c3		 ret	 0
?clear@?$_Tree@V?$_Tmap_traits@KPAVCGuildHouseBase@@U?$less@K@std@@V?$allocator@U?$pair@$$CBKPAVCGuildHouseBase@@@std@@@3@$0A@@std@@@std@@QAEXXZ ENDP ; std::_Tree<std::_Tmap_traits<unsigned long,CGuildHouseBase *,std::less<unsigned long>,std::allocator<std::pair<unsigned long const ,CGuildHouseBase *> >,0> >::clear
_TEXT	ENDS
; Function compile flags: /Ogtp
; File C:\Program Files\Microsoft Visual Studio\2022\Professional\VC\Tools\MSVC\14.44.35207\include\xtree
; File C:\Program Files\Microsoft Visual Studio\2022\Professional\VC\Tools\MSVC\14.44.35207\include\utility
; File C:\Program Files\Microsoft Visual Studio\2022\Professional\VC\Tools\MSVC\14.44.35207\include\xmemory
; File C:\Program Files\Microsoft Visual Studio\2022\Professional\VC\Tools\MSVC\14.44.35207\include\xtree
; File C:\Program Files\Microsoft Visual Studio\2022\Professional\VC\Tools\MSVC\14.44.35207\include\xmemory
; File C:\Program Files\Microsoft Visual Studio\2022\Professional\VC\Tools\MSVC\14.44.35207\include\xtree
;	COMDAT ??1?$_Tree@V?$_Tmap_traits@KPAVCGuildHouseBase@@U?$less@K@std@@V?$allocator@U?$pair@$$CBKPAVCGuildHouseBase@@@std@@@3@$0A@@std@@@std@@QAE@XZ
_TEXT	SEGMENT
??1?$_Tree@V?$_Tmap_traits@KPAVCGuildHouseBase@@U?$less@K@std@@V?$allocator@U?$pair@$$CBKPAVCGuildHouseBase@@@std@@@3@$0A@@std@@@std@@QAE@XZ PROC ; std::_Tree<std::_Tmap_traits<unsigned long,CGuildHouseBase *,std::less<unsigned long>,std::allocator<std::pair<unsigned long const ,CGuildHouseBase *> >,0> >::~_Tree<std::_Tmap_traits<unsigned long,CGuildHouseBase *,std::less<unsigned long>,std::allocator<std::pair<unsigned long const ,CGuildHouseBase *> >,0> >, COMDAT
; _this$ = ecx

; 1095 :     ~_Tree() noexcept {

  00000	56		 push	 esi
  00001	57		 push	 edi
  00002	8b f9		 mov	 edi, ecx

; 777  :         _Erase_tree(_Al, _Myhead->_Parent);

  00004	8b 37		 mov	 esi, DWORD PTR [edi]
  00006	8b 76 04	 mov	 esi, DWORD PTR [esi+4]

; 768  :         while (!_Rootnode->_Isnil) { // free subtrees, then node

  00009	80 7e 0d 00	 cmp	 BYTE PTR [esi+13], 0
  0000d	75 21		 jne	 SHORT $LN61@Tree
  0000f	90		 npad	 1
$LL8@Tree:

; 769  :             _Erase_tree(_Al, _Rootnode->_Right);

  00010	ff 76 08	 push	 DWORD PTR [esi+8]
  00013	8b cf		 mov	 ecx, edi
  00015	57		 push	 edi
  00016	e8 00 00 00 00	 call	 ??$_Erase_tree@V?$allocator@U?$_Tree_node@U?$pair@$$CBKPAVCGuildHouseBase@@@std@@PAX@std@@@std@@@?$_Tree_val@U?$_Tree_simple_types@U?$pair@$$CBKPAVCGuildHouseBase@@@std@@@std@@@std@@QAEXAAV?$allocator@U?$_Tree_node@U?$pair@$$CBKPAVCGuildHouseBase@@@std@@PAX@std@@@1@PAU?$_Tree_node@U?$pair@$$CBKPAVCGuildHouseBase@@@std@@PAX@1@@Z ; std::_Tree_val<std::_Tree_simple_types<std::pair<unsigned long const ,CGuildHouseBase *> > >::_Erase_tree<std::allocator<std::_Tree_node<std::pair<unsigned long const ,CGuildHouseBase *>,void *> > >
; File C:\Program Files\Microsoft Visual Studio\2022\Professional\VC\Tools\MSVC\14.44.35207\include\utility

; 773  :     _Ty _Old_val = static_cast<_Ty&&>(_Val);

  0001b	8b c6		 mov	 eax, esi

; 774  :     _Val         = static_cast<_Other&&>(_New_val);

  0001d	8b 36		 mov	 esi, DWORD PTR [esi]
; File C:\Program Files\Microsoft Visual Studio\2022\Professional\VC\Tools\MSVC\14.44.35207\include\xmemory

; 289  :         ::operator delete(_Ptr, _Bytes);

  0001f	6a 18		 push	 24			; 00000018H
  00021	50		 push	 eax
  00022	e8 00 00 00 00	 call	 ??3@YAXPAXI@Z		; operator delete
  00027	83 c4 08	 add	 esp, 8
; File C:\Program Files\Microsoft Visual Studio\2022\Professional\VC\Tools\MSVC\14.44.35207\include\xtree

; 768  :         while (!_Rootnode->_Isnil) { // free subtrees, then node

  0002a	80 7e 0d 00	 cmp	 BYTE PTR [esi+13], 0
  0002e	74 e0		 je	 SHORT $LL8@Tree
$LN61@Tree:
; File C:\Program Files\Microsoft Visual Studio\2022\Professional\VC\Tools\MSVC\14.44.35207\include\xmemory

; 289  :         ::operator delete(_Ptr, _Bytes);

  00030	6a 18		 push	 24			; 00000018H
  00032	ff 37		 push	 DWORD PTR [edi]
  00034	e8 00 00 00 00	 call	 ??3@YAXPAXI@Z		; operator delete
  00039	83 c4 08	 add	 esp, 8
  0003c	5f		 pop	 edi
  0003d	5e		 pop	 esi
; File C:\Program Files\Microsoft Visual Studio\2022\Professional\VC\Tools\MSVC\14.44.35207\include\xtree

; 1102 :     }

  0003e	c3		 ret	 0
??1?$_Tree@V?$_Tmap_traits@KPAVCGuildHouseBase@@U?$less@K@std@@V?$allocator@U?$pair@$$CBKPAVCGuildHouseBase@@@std@@@3@$0A@@std@@@std@@QAE@XZ ENDP ; std::_Tree<std::_Tmap_traits<unsigned long,CGuildHouseBase *,std::less<unsigned long>,std::allocator<std::pair<unsigned long const ,CGuildHouseBase *> >,0> >::~_Tree<std::_Tmap_traits<unsigned long,CGuildHouseBase *,std::less<unsigned long>,std::allocator<std::pair<unsigned long const ,CGuildHouseBase *> >,0> >
_TEXT	ENDS
; Function compile flags: /Ogtp
; File C:\IAGOS\server\v18\Source\Source\_Common\GuildHouse.cpp
; File C:\Program Files\Microsoft Visual Studio\2022\Professional\VC\Tools\MSVC\14.44.35207\include\utility
; File C:\Program Files\Microsoft Visual Studio\2022\Professional\VC\Tools\MSVC\14.44.35207\include\xtree
; File C:\Program Files\Microsoft Visual Studio\2022\Professional\VC\Tools\MSVC\14.44.35207\include\utility
; File C:\Program Files\Microsoft Visual Studio\2022\Professional\VC\Tools\MSVC\14.44.35207\include\xtree
; File C:\Program Files\Microsoft Visual Studio\2022\Professional\VC\Tools\MSVC\14.44.35207\include\type_traits
; File C:\Program Files\Microsoft Visual Studio\2022\Professional\VC\Tools\MSVC\14.44.35207\include\xtree
; File C:\Program Files\Microsoft Visual Studio\2022\Professional\VC\Tools\MSVC\14.44.35207\include\xmemory
; File C:\Program Files\Microsoft Visual Studio\2022\Professional\VC\Tools\MSVC\14.44.35207\include\xtree
; File C:\Program Files\Microsoft Visual Studio\2022\Professional\VC\Tools\MSVC\14.44.35207\include\xmemory
; File C:\Program Files\Microsoft Visual Studio\2022\Professional\VC\Tools\MSVC\14.44.35207\include\xtree
; File C:\Program Files\Microsoft Visual Studio\2022\Professional\VC\Tools\MSVC\14.44.35207\include\xmemory
; File C:\Program Files\Microsoft Visual Studio\2022\Professional\VC\Tools\MSVC\14.44.35207\include\xtree
; File C:\Program Files\Microsoft Visual Studio\2022\Professional\VC\Tools\MSVC\14.44.35207\include\xmemory
; File C:\Program Files\Microsoft Visual Studio\2022\Professional\VC\Tools\MSVC\14.44.35207\include\xtree
; File C:\Program Files\Microsoft Visual Studio\2022\Professional\VC\Tools\MSVC\14.44.35207\include\utility
; File C:\Program Files\Microsoft Visual Studio\2022\Professional\VC\Tools\MSVC\14.44.35207\include\xtree
; File C:\Program Files\Microsoft Visual Studio\2022\Professional\VC\Tools\MSVC\14.44.35207\include\utility
; File C:\Program Files\Microsoft Visual Studio\2022\Professional\VC\Tools\MSVC\14.44.35207\include\xtree
; File C:\IAGOS\server\v18\Source\Source\_Common\GuildHouse.cpp
; File C:\Program Files\Microsoft Visual Studio\2022\Professional\VC\Tools\MSVC\14.44.35207\include\xtree
; File C:\IAGOS\server\v18\Source\Source\_Common\GuildHouse.cpp
; File C:\IAGOS\server\v18\Source\Source\DX_SDK\d3dx9math.inl
; File C:\IAGOS\server\v18\Source\Source\_Common\GuildHouse.cpp
; File C:\Program Files\Microsoft Visual Studio\2022\Professional\VC\Tools\MSVC\14.44.35207\include\xtree
; File C:\IAGOS\server\v18\Source\Source\_Common\GuildHouse.cpp
; File C:\Program Files\Microsoft Visual Studio\2022\Professional\VC\Tools\MSVC\14.44.35207\include\xtree
; File C:\IAGOS\server\v18\Source\Source\_Common\GuildHouse.cpp
;	COMDAT ?DBLoadGuildHouse@CGuildHouseMng@@QAEHPAVCQuery@@@Z
_TEXT	SEGMENT
$T3 = -108						; size = 12
__Loc$4 = -96						; size = 12
_gfiData$5 = -84					; size = 36
$T6 = -48						; size = 8
_tKeepTime$1$ = -40					; size = 4
$T7 = -36						; size = 12
$T8 = -32						; size = 8
_it$9 = -24						; size = 4
_pGuildHouse$1$ = -24					; size = 4
_this$1$ = -20						; size = 4
__$ArrayPad$ = -16					; size = 4
__$EHRec$ = -12						; size = 12
_pQuery$ = 8						; size = 4
?DBLoadGuildHouse@CGuildHouseMng@@QAEHPAVCQuery@@@Z PROC ; CGuildHouseMng::DBLoadGuildHouse, COMDAT
; _this$ = ecx

; 1510 : {

  00000	55		 push	 ebp
  00001	8b ec		 mov	 ebp, esp
  00003	6a ff		 push	 -1
  00005	68 00 00 00 00	 push	 __ehhandler$?DBLoadGuildHouse@CGuildHouseMng@@QAEHPAVCQuery@@@Z
  0000a	64 a1 00 00 00
	00		 mov	 eax, DWORD PTR fs:0
  00010	50		 push	 eax
  00011	83 ec 60	 sub	 esp, 96			; 00000060H
  00014	a1 00 00 00 00	 mov	 eax, DWORD PTR ___security_cookie
  00019	33 c5		 xor	 eax, ebp
  0001b	89 45 f0	 mov	 DWORD PTR __$ArrayPad$[ebp], eax
  0001e	53		 push	 ebx
  0001f	56		 push	 esi
  00020	57		 push	 edi
  00021	50		 push	 eax
  00022	8d 45 f4	 lea	 eax, DWORD PTR __$EHRec$[ebp]
  00025	64 a3 00 00 00
	00		 mov	 DWORD PTR fs:0, eax
  0002b	8b d9		 mov	 ebx, ecx
  0002d	89 5d ec	 mov	 DWORD PTR _this$1$[ebp], ebx

; 1511 : 	if( pQuery->Execute( "usp_GuildHouse_MaxSEQ '%02d'", g_appInfo.dwSys ) )

  00030	ff 35 00 00 00
	00		 push	 DWORD PTR ?g_appInfo@@3UAppInfo@@A
  00036	8b 7d 08	 mov	 edi, DWORD PTR _pQuery$[ebp]
  00039	68 00 00 00 00	 push	 OFFSET ??_C@_0BN@EFGJIHNF@usp_GuildHouse_MaxSEQ?5?8?$CF02d?8@
  0003e	57		 push	 edi
  0003f	e8 00 00 00 00	 call	 ?Execute@CQuery@@QAAHPBDZZ ; CQuery::Execute
  00044	83 c4 0c	 add	 esp, 12			; 0000000cH
  00047	85 c0		 test	 eax, eax
  00049	0f 84 7d 02 00
	00		 je	 $LN9@DBLoadGuil

; 1512 : 	{
; 1513 : 		if( pQuery->Fetch() )

  0004f	8b cf		 mov	 ecx, edi
  00051	e8 00 00 00 00	 call	 ?Fetch@CQuery@@QAEHXZ	; CQuery::Fetch
  00056	85 c0		 test	 eax, eax
  00058	74 0e		 je	 SHORT $LN11@DBLoadGuil

; 1514 : 			m_nSeqNum = pQuery->GetInt( "SEQ" );

  0005a	68 00 00 00 00	 push	 OFFSET ??_C@_03NCPCKDJB@SEQ@
  0005f	8b cf		 mov	 ecx, edi
  00061	e8 00 00 00 00	 call	 ?GetInt@CQuery@@QAEHPAD@Z ; CQuery::GetInt
  00066	89 03		 mov	 DWORD PTR [ebx], eax
$LN11@DBLoadGuil:

; 1518 : 	
; 1519 : 	if( pQuery->Execute( "usp_GuildHouse_Load '%02d'", g_appInfo.dwSys ) )

  00068	ff 35 00 00 00
	00		 push	 DWORD PTR ?g_appInfo@@3UAppInfo@@A
  0006e	68 00 00 00 00	 push	 OFFSET ??_C@_0BL@KLBKELLI@usp_GuildHouse_Load?5?8?$CF02d?8@
  00073	57		 push	 edi
  00074	e8 00 00 00 00	 call	 ?Execute@CQuery@@QAAHPBDZZ ; CQuery::Execute
  00079	83 c4 0c	 add	 esp, 12			; 0000000cH
  0007c	85 c0		 test	 eax, eax
  0007e	0f 84 48 02 00
	00		 je	 $LN9@DBLoadGuil

; 1520 : 	{
; 1521 : 		while( pQuery->Fetch() )

  00084	8b cf		 mov	 ecx, edi
  00086	e8 00 00 00 00	 call	 ?Fetch@CQuery@@QAEHXZ	; CQuery::Fetch
  0008b	85 c0		 test	 eax, eax
  0008d	0f 84 ff 00 00
	00		 je	 $LN198@DBLoadGuil
$LL2@DBLoadGuil:

; 1522 : 		{
; 1523 : 			DWORD dwGuildId = pQuery->GetInt( "m_idGuild" );

  00093	68 00 00 00 00	 push	 OFFSET ??_C@_09MHDEIN@m_idGuild@
  00098	8b cf		 mov	 ecx, edi
  0009a	e8 00 00 00 00	 call	 ?GetInt@CQuery@@QAEHPAD@Z ; CQuery::GetInt

; 1524 : 			DWORD dwWorldId = pQuery->GetInt( "dwWorldID" );

  0009f	68 00 00 00 00	 push	 OFFSET ??_C@_09DHJEDBNA@dwWorldID@
  000a4	8b cf		 mov	 ecx, edi
  000a6	8b d8		 mov	 ebx, eax
  000a8	e8 00 00 00 00	 call	 ?GetInt@CQuery@@QAEHPAD@Z ; CQuery::GetInt

; 1525 : 			time_t tKeepTime = pQuery->GetInt( "tKeepTime" );

  000ad	68 00 00 00 00	 push	 OFFSET ??_C@_09CGIPPJPO@tKeepTime@
  000b2	8b cf		 mov	 ecx, edi
  000b4	8b f0		 mov	 esi, eax
  000b6	e8 00 00 00 00	 call	 ?GetInt@CQuery@@QAEHPAD@Z ; CQuery::GetInt

; 1526 : #ifdef __GUILD_HOUSE_MIDDLE
; 1527 : 			OBJID objGHId = pQuery->GetInt( "dwGuildHouseId" );
; 1528 : 			int nAreaIndex = pQuery->GetInt( "nAreaIndex" );
; 1529 : 			int nGHLevel = pQuery->GetInt( "nGuildHouseLevel" );
; 1530 : 			char szGHName[MAX_GH_NAME] = {0, };
; 1531 : 			::memset( szGHName, 0, sizeof( szGHName ) );
; 1532 : 			pQuery->GetStr( "szGuildHouseName", szGHName );
; 1533 : #endif // __GUILD_HOUSE_MIDDLE
; 1534 : 			
; 1535 : 			CGuildHouseBase* pGuildHouse = MakeGuildHouse( dwGuildId, dwWorldId );

  000bb	56		 push	 esi
  000bc	8b 75 ec	 mov	 esi, DWORD PTR _this$1$[ebp]
  000bf	8b ce		 mov	 ecx, esi
  000c1	53		 push	 ebx
  000c2	89 45 d8	 mov	 DWORD PTR _tKeepTime$1$[ebp], eax
  000c5	e8 00 00 00 00	 call	 ?MakeGuildHouse@CGuildHouseMng@@QAEPAVCGuildHouseBase@@KK@Z ; CGuildHouseMng::MakeGuildHouse
  000ca	89 45 e8	 mov	 DWORD PTR _pGuildHouse$1$[ebp], eax

; 1536 : 			if( pGuildHouse && AddGuildHouse( dwGuildId, pGuildHouse ) )

  000cd	85 c0		 test	 eax, eax
  000cf	0f 84 9d 00 00
	00		 je	 $LN14@DBLoadGuil
; File C:\Program Files\Microsoft Visual Studio\2022\Professional\VC\Tools\MSVC\14.44.35207\include\utility

; 274  :         : first(_STD forward<_Other1>(_Val1)), second(_STD forward<_Other2>(_Val2)) {

  000d5	89 45 d4	 mov	 DWORD PTR $T6[ebp+4], eax
; File C:\Program Files\Microsoft Visual Studio\2022\Professional\VC\Tools\MSVC\14.44.35207\include\xtree

; 1017 :             _Loc                = _Find_lower_bound(_Keyval);

  000d8	8d 4e 04	 lea	 ecx, DWORD PTR [esi+4]
  000db	8d 45 d0	 lea	 eax, DWORD PTR $T6[ebp]
; File C:\Program Files\Microsoft Visual Studio\2022\Professional\VC\Tools\MSVC\14.44.35207\include\utility

; 274  :         : first(_STD forward<_Other1>(_Val1)), second(_STD forward<_Other2>(_Val2)) {

  000de	89 5d d0	 mov	 DWORD PTR $T6[ebp], ebx
; File C:\Program Files\Microsoft Visual Studio\2022\Professional\VC\Tools\MSVC\14.44.35207\include\xtree

; 1017 :             _Loc                = _Find_lower_bound(_Keyval);

  000e1	50		 push	 eax
  000e2	8d 45 94	 lea	 eax, DWORD PTR $T3[ebp]
  000e5	50		 push	 eax
  000e6	e8 00 00 00 00	 call	 ??$_Find_lower_bound@K@?$_Tree@V?$_Tmap_traits@KPAVCGuildHouseBase@@U?$less@K@std@@V?$allocator@U?$pair@$$CBKPAVCGuildHouseBase@@@std@@@3@$0A@@std@@@std@@IBE?AU?$_Tree_find_result@PAU?$_Tree_node@U?$pair@$$CBKPAVCGuildHouseBase@@@std@@PAX@std@@@1@ABK@Z ; std::_Tree<std::_Tmap_traits<unsigned long,CGuildHouseBase *,std::less<unsigned long>,std::allocator<std::pair<unsigned long const ,CGuildHouseBase *> >,0> >::_Find_lower_bound<unsigned long>
  000eb	f3 0f 7e 00	 movq	 xmm0, QWORD PTR [eax]
  000ef	8b 40 08	 mov	 eax, DWORD PTR [eax+8]
  000f2	66 0f d6 45 a0	 movq	 QWORD PTR __Loc$4[ebp], xmm0

; 1624 :         return !_Bound->_Isnil && !_DEBUG_LT_PRED(_Getcomp(), _Keyval, _Traits::_Kfn(_Bound->_Myval));

  000f7	80 78 0d 00	 cmp	 BYTE PTR [eax+13], 0
  000fb	75 05		 jne	 SHORT $LN32@DBLoadGuil
; File C:\Program Files\Microsoft Visual Studio\2022\Professional\VC\Tools\MSVC\14.44.35207\include\type_traits

; 2380 :         return _Left < _Right;

  000fd	3b 58 10	 cmp	 ebx, DWORD PTR [eax+16]
; File C:\Program Files\Microsoft Visual Studio\2022\Professional\VC\Tools\MSVC\14.44.35207\include\xtree

; 1624 :         return !_Bound->_Isnil && !_DEBUG_LT_PRED(_Getcomp(), _Keyval, _Traits::_Kfn(_Bound->_Myval));

  00100	73 70		 jae	 SHORT $LN14@DBLoadGuil
$LN32@DBLoadGuil:

; 1648 :         if (max_size() == _Get_scary()->_Mysize) {

  00102	81 7e 08 aa aa
	aa 0a		 cmp	 DWORD PTR [esi+8], 178956970 ; 0aaaaaaaH
  00109	0f 84 dd 01 00
	00		 je	 $LN194@DBLoadGuil
; File C:\Program Files\Microsoft Visual Studio\2022\Professional\VC\Tools\MSVC\14.44.35207\include\xmemory

; 1160 :     _CONSTEXPR20 explicit _Alloc_construct_ptr(_Alloc& _Al_) : _Al(_Al_), _Ptr(nullptr) {}

  0010f	8b 45 ec	 mov	 eax, DWORD PTR _this$1$[ebp]
; File C:\Program Files\Microsoft Visual Studio\2022\Professional\VC\Tools\MSVC\14.44.35207\include\xtree

; 1023 :             _Inserted = _Tree_temp_node<_Alnode>(_Getal(), _Scary->_Myhead, _STD forward<_Valtys>(_Vals)...)._Release();

  00112	8b 76 04	 mov	 esi, DWORD PTR [esi+4]
; File C:\Program Files\Microsoft Visual Studio\2022\Professional\VC\Tools\MSVC\14.44.35207\include\xmemory

; 1160 :     _CONSTEXPR20 explicit _Alloc_construct_ptr(_Alloc& _Al_) : _Al(_Al_), _Ptr(nullptr) {}

  00115	83 c0 04	 add	 eax, 4
  00118	89 45 e0	 mov	 DWORD PTR $T8[ebp], eax

; 136  :         return ::operator new(_Bytes);

  0011b	6a 18		 push	 24			; 00000018H
; File C:\Program Files\Microsoft Visual Studio\2022\Professional\VC\Tools\MSVC\14.44.35207\include\xtree

; 808  :     explicit _Tree_temp_node_alloc(_Alnode& _Al_) : _Alloc_construct_ptr<_Alnode>(_Al_) {

  0011d	c7 45 fc 00 00
	00 00		 mov	 DWORD PTR __$EHRec$[ebp+8], 0
; File C:\Program Files\Microsoft Visual Studio\2022\Professional\VC\Tools\MSVC\14.44.35207\include\xmemory

; 1167 :         _Ptr = nullptr; // if allocate throws, prevents double-free

  00124	c7 45 e4 00 00
	00 00		 mov	 DWORD PTR $T8[ebp+4], 0

; 136  :         return ::operator new(_Bytes);

  0012b	e8 00 00 00 00	 call	 ??2@YAPAXI@Z		; operator new
; File C:\Program Files\Microsoft Visual Studio\2022\Professional\VC\Tools\MSVC\14.44.35207\include\xtree

; 1042 :         return {_Scary->_Insert_node(_Loc._Location, _Inserted), true};

  00130	8b 4d ec	 mov	 ecx, DWORD PTR _this$1$[ebp]
; File C:\Program Files\Microsoft Visual Studio\2022\Professional\VC\Tools\MSVC\14.44.35207\include\xmemory

; 136  :         return ::operator new(_Bytes);

  00133	83 c4 04	 add	 esp, 4
; File C:\Program Files\Microsoft Visual Studio\2022\Professional\VC\Tools\MSVC\14.44.35207\include\xtree

; 810  :     }

  00136	c7 45 fc ff ff
	ff ff		 mov	 DWORD PTR __$EHRec$[ebp+8], -1
; File C:\Program Files\Microsoft Visual Studio\2022\Professional\VC\Tools\MSVC\14.44.35207\include\utility

; 774  :     _Val         = static_cast<_Other&&>(_New_val);

  0013d	c7 45 e4 00 00
	00 00		 mov	 DWORD PTR $T8[ebp+4], 0

; 303  :         : first(_STD forward<_Other1>(_Right.first)), second(_STD forward<_Other2>(_Right.second)) {}

  00144	89 58 10	 mov	 DWORD PTR [eax+16], ebx
  00147	8b 5d e8	 mov	 ebx, DWORD PTR _pGuildHouse$1$[ebp]
; File C:\Program Files\Microsoft Visual Studio\2022\Professional\VC\Tools\MSVC\14.44.35207\include\xtree

; 1042 :         return {_Scary->_Insert_node(_Loc._Location, _Inserted), true};

  0014a	8d 49 04	 lea	 ecx, DWORD PTR [ecx+4]
  0014d	50		 push	 eax
  0014e	ff 75 a4	 push	 DWORD PTR __Loc$4[ebp+4]
; File C:\Program Files\Microsoft Visual Studio\2022\Professional\VC\Tools\MSVC\14.44.35207\include\utility

; 303  :         : first(_STD forward<_Other1>(_Right.first)), second(_STD forward<_Other2>(_Right.second)) {}

  00151	89 58 14	 mov	 DWORD PTR [eax+20], ebx
; File C:\Program Files\Microsoft Visual Studio\2022\Professional\VC\Tools\MSVC\14.44.35207\include\xtree

; 1042 :         return {_Scary->_Insert_node(_Loc._Location, _Inserted), true};

  00154	ff 75 a0	 push	 DWORD PTR __Loc$4[ebp]

; 831  :         _Construct_in_place(this->_Ptr->_Left, _Myhead);

  00157	89 30		 mov	 DWORD PTR [eax], esi

; 832  :         _Construct_in_place(this->_Ptr->_Parent, _Myhead);

  00159	89 70 04	 mov	 DWORD PTR [eax+4], esi

; 833  :         _Construct_in_place(this->_Ptr->_Right, _Myhead);

  0015c	89 70 08	 mov	 DWORD PTR [eax+8], esi

; 834  :         this->_Ptr->_Color = _Red;

  0015f	66 c7 40 0c 00
	00		 mov	 WORD PTR [eax+12], 0

; 1042 :         return {_Scary->_Insert_node(_Loc._Location, _Inserted), true};

  00165	e8 00 00 00 00	 call	 ?_Insert_node@?$_Tree_val@U?$_Tree_simple_types@U?$pair@$$CBKPAVCGuildHouseBase@@@std@@@std@@@std@@QAEPAU?$_Tree_node@U?$pair@$$CBKPAVCGuildHouseBase@@@std@@PAX@2@U?$_Tree_id@PAU?$_Tree_node@U?$pair@$$CBKPAVCGuildHouseBase@@@std@@PAX@std@@@2@QAU32@@Z ; std::_Tree_val<std::_Tree_simple_types<std::pair<unsigned long const ,CGuildHouseBase *> > >::_Insert_node
; File C:\IAGOS\server\v18\Source\Source\_Common\GuildHouse.cpp

; 1538 : 				pGuildHouse->SetUpkeeptime( tKeepTime );

  0016a	8b 45 d8	 mov	 eax, DWORD PTR _tKeepTime$1$[ebp]
  0016d	89 43 18	 mov	 DWORD PTR [ebx+24], eax

; 1539 : #ifdef __GUILD_HOUSE_MIDDLE
; 1540 : 				if( pGuildHouse->GetType() >= WI_GUILDHOUSE_MIDDLE && pGuildHouse->GetType() <= WI_GUILDHOUSE_LARGE )
; 1541 : 				{
; 1542 : 					pGuildHouse->SetGuildHouseData( objGHId, nAreaIndex, nGHLevel, tKeepTime, szGHName );
; 1543 : 				}
; 1544 : #endif // __GUILD_HOUSE_MIDDLE
; 1545 : 			}

  00170	eb 0e		 jmp	 SHORT $LN15@DBLoadGuil
$LN14@DBLoadGuil:

; 1546 : 			else
; 1547 : 				Error( "CGuildHouseMng::DBLoadGuildHouse() : AddGuildHouse() Failed!!! [GuildId:%06d]", dwGuildId );

  00172	53		 push	 ebx
  00173	68 00 00 00 00	 push	 OFFSET ??_C@_0EO@OANJGIDM@CGuildHouseMng?3?3DBLoadGuildHous@
  00178	e8 00 00 00 00	 call	 ?Error@@YAPBDPBDZZ	; Error
  0017d	83 c4 08	 add	 esp, 8
$LN15@DBLoadGuil:

; 1520 : 	{
; 1521 : 		while( pQuery->Fetch() )

  00180	8b cf		 mov	 ecx, edi
  00182	e8 00 00 00 00	 call	 ?Fetch@CQuery@@QAEHXZ	; CQuery::Fetch
  00187	85 c0		 test	 eax, eax
  00189	0f 85 04 ff ff
	ff		 jne	 $LL2@DBLoadGuil
  0018f	8b 5d ec	 mov	 ebx, DWORD PTR _this$1$[ebp]
$LN198@DBLoadGuil:
; File C:\Program Files\Microsoft Visual Studio\2022\Professional\VC\Tools\MSVC\14.44.35207\include\xtree

; 1142 :         return iterator(_Scary->_Myhead->_Left, _Scary);

  00192	8b 43 04	 mov	 eax, DWORD PTR [ebx+4]

; 37   :     _Tree_unchecked_const_iterator(_Nodeptr _Pnode, const _Mytree* _Plist) noexcept : _Ptr(_Pnode) {

  00195	8b 30		 mov	 esi, DWORD PTR [eax]
  00197	89 75 e8	 mov	 DWORD PTR _it$9[ebp], esi

; 237  :         return !(*this == _Right);

  0019a	3b f0		 cmp	 esi, eax
; File C:\IAGOS\server\v18\Source\Source\_Common\GuildHouse.cpp

; 1553 : 	for( MapGuildHouse::iterator it=m_mapGuildHouse.begin(); it!=m_mapGuildHouse.end(); it++ )

  0019c	0f 84 23 01 00
	00		 je	 $LN5@DBLoadGuil
$LL6@DBLoadGuil:

; 1554 : 	{
; 1555 : 		if( pQuery->Execute( "usp_GuildFurniture_Load  '%02d', '%06d'", g_appInfo.dwSys, it->first ) )

  001a2	ff 76 10	 push	 DWORD PTR [esi+16]
  001a5	ff 35 00 00 00
	00		 push	 DWORD PTR ?g_appInfo@@3UAppInfo@@A
  001ab	68 00 00 00 00	 push	 OFFSET ??_C@_0CI@JAMDLPN@usp_GuildFurniture_Load?5?5?8?$CF02d?8@
  001b0	57		 push	 edi
  001b1	e8 00 00 00 00	 call	 ?Execute@CQuery@@QAAHPBDZZ ; CQuery::Execute
  001b6	83 c4 10	 add	 esp, 16			; 00000010H
  001b9	85 c0		 test	 eax, eax
  001bb	0f 84 0b 01 00
	00		 je	 $LN9@DBLoadGuil

; 1556 : 		{
; 1557 : 			while( pQuery->Fetch() )

  001c1	8b cf		 mov	 ecx, edi
  001c3	e8 00 00 00 00	 call	 ?Fetch@CQuery@@QAEHXZ	; CQuery::Fetch
  001c8	85 c0		 test	 eax, eax
  001ca	0f 84 e1 00 00
	00		 je	 $LN4@DBLoadGuil
; File C:\IAGOS\server\v18\Source\Source\DX_SDK\d3dx9math.inl

; 302  :     z = fz;

  001d0	c7 45 e4 00 00
	00 00		 mov	 DWORD PTR $T7[ebp+8], 0
  001d7	8b 5d e4	 mov	 ebx, DWORD PTR $T7[ebp+8]

; 300  :     x = fx;

  001da	c7 45 dc 00 00
	00 00		 mov	 DWORD PTR $T7[ebp], 0

; 301  :     y = fy;

  001e1	c7 45 e0 00 00
	00 00		 mov	 DWORD PTR $T7[ebp+4], 0
  001e8	0f 1f 84 00 00
	00 00 00	 npad	 8
$LL7@DBLoadGuil:
; File C:\IAGOS\server\v18\Source\Source\_Common\GuildHouse.cpp

; 1559 : 				GH_Fntr_Info gfiData;

  001f0	f3 0f 7e 45 dc	 movq	 xmm0, QWORD PTR $T7[ebp]
  001f5	8d 4d ac	 lea	 ecx, DWORD PTR _gfiData$5[ebp]
  001f8	6a 00		 push	 0
  001fa	83 ec 10	 sub	 esp, 16			; 00000010H
  001fd	8b c4		 mov	 eax, esp
  001ff	c7 44 24 0c 00
	00 00 00	 mov	 DWORD PTR [esp+12], 0
  00207	6a 00		 push	 0
  00209	66 0f d6 00	 movq	 QWORD PTR [eax], xmm0
  0020d	6a ff		 push	 -1
  0020f	89 58 08	 mov	 DWORD PTR [eax+8], ebx
  00212	e8 00 00 00 00	 call	 ??0GuildHouse_Furniture_Info@CGuildHouseBase@@QAE@KHUD3DXVECTOR3@@MJ@Z ; CGuildHouseBase::GuildHouse_Furniture_Info::GuildHouse_Furniture_Info

; 1560 : 				gfiData.nSeqNum		= pQuery->GetInt( "SEQ" );

  00217	68 00 00 00 00	 push	 OFFSET ??_C@_03NCPCKDJB@SEQ@
  0021c	8b cf		 mov	 ecx, edi
  0021e	e8 00 00 00 00	 call	 ?GetInt@CQuery@@QAEHPAD@Z ; CQuery::GetInt

; 1561 : 				gfiData.dwItemId	= static_cast<DWORD>( pQuery->GetInt( "ItemIndex" ) );

  00223	68 00 00 00 00	 push	 OFFSET ??_C@_09LCBEKCCJ@ItemIndex@
  00228	8b cf		 mov	 ecx, edi
  0022a	89 45 cc	 mov	 DWORD PTR _gfiData$5[ebp+32], eax
  0022d	e8 00 00 00 00	 call	 ?GetInt@CQuery@@QAEHPAD@Z ; CQuery::GetInt

; 1562 : 				gfiData.bSetup		= static_cast<BOOL>( pQuery->GetInt( "bSetup" ) );

  00232	68 00 00 00 00	 push	 OFFSET ??_C@_06DMCKBLKP@bSetup@
  00237	8b cf		 mov	 ecx, edi
  00239	89 45 ac	 mov	 DWORD PTR _gfiData$5[ebp], eax
  0023c	e8 00 00 00 00	 call	 ?GetInt@CQuery@@QAEHPAD@Z ; CQuery::GetInt

; 1563 : 				gfiData.vPos.x		= static_cast<float>( pQuery->GetFloat( "x_Pos" ) );

  00241	68 00 00 00 00	 push	 OFFSET ??_C@_05JPJLCAGA@x_Pos@
  00246	8b cf		 mov	 ecx, edi
  00248	89 45 b0	 mov	 DWORD PTR _gfiData$5[ebp+4], eax
  0024b	e8 00 00 00 00	 call	 ?GetFloat@CQuery@@QAEMPAD@Z ; CQuery::GetFloat
  00250	d9 5d b4	 fstp	 DWORD PTR _gfiData$5[ebp+8]

; 1564 : 				gfiData.vPos.y		= static_cast<float>( pQuery->GetFloat( "y_Pos" ) );

  00253	68 00 00 00 00	 push	 OFFSET ??_C@_05FEMHPDMF@y_Pos@
  00258	8b cf		 mov	 ecx, edi
  0025a	e8 00 00 00 00	 call	 ?GetFloat@CQuery@@QAEMPAD@Z ; CQuery::GetFloat
  0025f	d9 5d b8	 fstp	 DWORD PTR _gfiData$5[ebp+12]

; 1565 : 				gfiData.vPos.z		= static_cast<float>( pQuery->GetFloat( "z_Pos" ) );

  00262	68 00 00 00 00	 push	 OFFSET ??_C@_05NCFDIBGL@z_Pos@
  00267	8b cf		 mov	 ecx, edi
  00269	e8 00 00 00 00	 call	 ?GetFloat@CQuery@@QAEMPAD@Z ; CQuery::GetFloat
  0026e	d9 5d bc	 fstp	 DWORD PTR _gfiData$5[ebp+16]

; 1566 : 				gfiData.fAngle		= static_cast<float>( pQuery->GetFloat( "fAngle" ) );

  00271	68 00 00 00 00	 push	 OFFSET ??_C@_06JHEFCLKH@fAngle@
  00276	8b cf		 mov	 ecx, edi
  00278	e8 00 00 00 00	 call	 ?GetFloat@CQuery@@QAEMPAD@Z ; CQuery::GetFloat

; 1567 : 				gfiData.tKeepTime	= pQuery->GetInt( "tKeepTime" );

  0027d	68 00 00 00 00	 push	 OFFSET ??_C@_09CGIPPJPO@tKeepTime@
  00282	8b cf		 mov	 ecx, edi
  00284	d9 5d c0	 fstp	 DWORD PTR _gfiData$5[ebp+20]
  00287	e8 00 00 00 00	 call	 ?GetInt@CQuery@@QAEHPAD@Z ; CQuery::GetInt

; 1568 : 				it->second->OnGuildHousePacket( GUILDHOUSE_PCKTTYPE_LISTUP, gfiData, NULL_ID );

  0028c	8b 4e 14	 mov	 ecx, DWORD PTR [esi+20]
  0028f	89 45 c8	 mov	 DWORD PTR _gfiData$5[ebp+28], eax
  00292	8d 45 ac	 lea	 eax, DWORD PTR _gfiData$5[ebp]
  00295	6a ff		 push	 -1
  00297	50		 push	 eax
  00298	6a 00		 push	 0
  0029a	e8 00 00 00 00	 call	 ?OnGuildHousePacket@CGuildHouseBase@@QAEHHAAUGuildHouse_Furniture_Info@1@H@Z ; CGuildHouseBase::OnGuildHousePacket
  0029f	8b cf		 mov	 ecx, edi
  002a1	e8 00 00 00 00	 call	 ?Fetch@CQuery@@QAEHXZ	; CQuery::Fetch
  002a6	85 c0		 test	 eax, eax
  002a8	0f 85 42 ff ff
	ff		 jne	 $LL7@DBLoadGuil
  002ae	8b 5d ec	 mov	 ebx, DWORD PTR _this$1$[ebp]
$LN4@DBLoadGuil:
; File C:\Program Files\Microsoft Visual Studio\2022\Professional\VC\Tools\MSVC\14.44.35207\include\xtree

; 198  :         _Mybase::operator++();

  002b1	8d 4d e8	 lea	 ecx, DWORD PTR _it$9[ebp]
  002b4	e8 00 00 00 00	 call	 ??E?$_Tree_unchecked_const_iterator@V?$_Tree_val@U?$_Tree_simple_types@U?$pair@$$CBKPAVCGuildHouseBase@@@std@@@std@@@std@@U_Iterator_base0@2@@std@@QAEAAV01@XZ ; std::_Tree_unchecked_const_iterator<std::_Tree_val<std::_Tree_simple_types<std::pair<unsigned long const ,CGuildHouseBase *> > >,std::_Iterator_base0>::operator++

; 237  :         return !(*this == _Right);

  002b9	8b 75 e8	 mov	 esi, DWORD PTR _it$9[ebp]
  002bc	3b 73 04	 cmp	 esi, DWORD PTR [ebx+4]
; File C:\IAGOS\server\v18\Source\Source\_Common\GuildHouse.cpp

; 1553 : 	for( MapGuildHouse::iterator it=m_mapGuildHouse.begin(); it!=m_mapGuildHouse.end(); it++ )

  002bf	0f 85 dd fe ff
	ff		 jne	 $LL6@DBLoadGuil
$LN5@DBLoadGuil:

; 1569 : 			}
; 1570 : 		}
; 1571 : 		else
; 1572 : 			return FALSE;
; 1573 : 	}
; 1574 : 
; 1575 : #ifdef __GUILD_HOUSE_MIDDLE
; 1576 : 	TENDER_DATA* pTenderData = GetTenderData( WI_GUILDHOUSE_MIDDLE );
; 1577 : 	if( pTenderData != NULL )
; 1578 : 	{
; 1579 : 		if( pQuery->Execute( "usp_GuildHouse_MaxTender_Load '%02d'", g_appInfo.dwSys ) == TRUE )
; 1580 : 		{
; 1581 : 			if( pQuery->Fetch() == TRUE )
; 1582 : 			{
; 1583 : 				pTenderData->nTenderId = pQuery->GetInt( "nTenderId" );
; 1584 : 				pTenderData->nTenderArea = pQuery->GetInt( "nTenderArea" );
; 1585 : 			}
; 1586 : 		}
; 1587 : 		else
; 1588 : 		{
; 1589 : 			//return FALSE;
; 1590 : 		}
; 1591 : 
; 1592 : 		if( pQuery->Execute( "usp_GuildHouse_Tender_Load %d, '%02d', '%c'", pTenderData->nTenderId, g_appInfo.dwSys, 'T' ) )
; 1593 : 		{
; 1594 : 			while( pQuery->Fetch() )
; 1595 : 			{
; 1596 : 				GUILDHOUSE_TENDER GHT;
; 1597 : 				GHT.dwGHType = WI_GUILDHOUSE_MIDDLE;
; 1598 : 				GHT.dwGuildId = static_cast<DWORD>( pQuery->GetInt( "m_idGuild" ) );
; 1599 : 				GHT.nAreaIndex = static_cast<int>( pQuery->GetInt( "nTenderArea" ) );
; 1600 : 				GHT.objGHId = static_cast<OBJID>( pQuery->GetInt( "dwGuildHouseId" ) );
; 1601 : 				GHT.nTenderPerin = static_cast<int>( pQuery->GetInt( "nTenderPerin" ) );
; 1602 : 				GHT.nTenderPenya = static_cast<int>( pQuery->GetInt( "nTenderPenya" ) );
; 1603 : 				GHT.tTenderTime = static_cast<time_t>( pQuery->GetInt( "tTenderTime" ) );
; 1604 : 				GHT.chState = static_cast<char>( pQuery->GetChar( "chState" ) );
; 1605 : 
; 1606 : 				m_mapTenderGuild.insert( MAP_TENDER_GUILD::value_type( GHT.dwGuildId, GHT ) );
; 1607 : 			}
; 1608 : 		}
; 1609 : 		else
; 1610 : 		{
; 1611 : 			//return FALSE;
; 1612 : 		}
; 1613 : 	}
; 1614 : 	else
; 1615 : 	{
; 1616 : 		Error( "[CRITICAL] Missing File -> DBLoadGuildHouse - TenderData" );
; 1617 : 		return FALSE;
; 1618 : 	}
; 1619 : #endif // __GUILD_HOUSE_MIDDLE
; 1620 : 
; 1621 : 	return TRUE;

  002c5	b8 01 00 00 00	 mov	 eax, 1
  002ca	eb 02		 jmp	 SHORT $LN1@DBLoadGuil
$LN9@DBLoadGuil:

; 1515 : 	}
; 1516 : 	else
; 1517 : 		return FALSE;

  002cc	33 c0		 xor	 eax, eax
$LN1@DBLoadGuil:

; 1622 : }

  002ce	8b 4d f4	 mov	 ecx, DWORD PTR __$EHRec$[ebp]
  002d1	64 89 0d 00 00
	00 00		 mov	 DWORD PTR fs:0, ecx
  002d8	59		 pop	 ecx
  002d9	5f		 pop	 edi
  002da	5e		 pop	 esi
  002db	5b		 pop	 ebx
  002dc	8b 4d f0	 mov	 ecx, DWORD PTR __$ArrayPad$[ebp]
  002df	33 cd		 xor	 ecx, ebp
  002e1	e8 00 00 00 00	 call	 @__security_check_cookie@4
  002e6	8b e5		 mov	 esp, ebp
  002e8	5d		 pop	 ebp
  002e9	c2 04 00	 ret	 4
$LN194@DBLoadGuil:
; File C:\Program Files\Microsoft Visual Studio\2022\Professional\VC\Tools\MSVC\14.44.35207\include\xtree

; 1649 :             _Throw_tree_length_error();

  002ec	e8 00 00 00 00	 call	 ?_Throw_tree_length_error@std@@YAXXZ ; std::_Throw_tree_length_error
$LN211@DBLoadGuil:
  002f1	cc		 int	 3
_TEXT	ENDS
;	COMDAT text$x
text$x	SEGMENT
__unwindfunclet$?DBLoadGuildHouse@CGuildHouseMng@@QAEHPAVCQuery@@@Z$2:
  00000	8d 4d e0	 lea	 ecx, DWORD PTR $T8[ebp]
  00003	e9 00 00 00 00	 jmp	 ??1?$_Alloc_construct_ptr@V?$allocator@U?$_Tree_node@U?$pair@$$CBKPAVCGuildHouseBase@@@std@@PAX@std@@@std@@@std@@QAE@XZ ; std::_Alloc_construct_ptr<std::allocator<std::_Tree_node<std::pair<unsigned long const ,CGuildHouseBase *>,void *> > >::~_Alloc_construct_ptr<std::allocator<std::_Tree_node<std::pair<unsigned long const ,CGuildHouseBase *>,void *> > >
  00008	cc		 int	 3
  00009	cc		 int	 3
  0000a	cc		 int	 3
  0000b	cc		 int	 3
  0000c	cc		 int	 3
__ehhandler$?DBLoadGuildHouse@CGuildHouseMng@@QAEHPAVCQuery@@@Z:
  0000d	90		 npad	 1
  0000e	90		 npad	 1
  0000f	8b 54 24 08	 mov	 edx, DWORD PTR [esp+8]
  00013	8d 42 0c	 lea	 eax, DWORD PTR [edx+12]
  00016	8b 4a 90	 mov	 ecx, DWORD PTR [edx-112]
  00019	33 c8		 xor	 ecx, eax
  0001b	e8 00 00 00 00	 call	 @__security_check_cookie@4
  00020	8b 4a fc	 mov	 ecx, DWORD PTR [edx-4]
  00023	33 c8		 xor	 ecx, eax
  00025	e8 00 00 00 00	 call	 @__security_check_cookie@4
  0002a	b8 00 00 00 00	 mov	 eax, OFFSET __ehfuncinfo$?DBLoadGuildHouse@CGuildHouseMng@@QAEHPAVCQuery@@@Z
  0002f	e9 00 00 00 00	 jmp	 ___CxxFrameHandler3
text$x	ENDS
?DBLoadGuildHouse@CGuildHouseMng@@QAEHPAVCQuery@@@Z ENDP ; CGuildHouseMng::DBLoadGuildHouse
; Function compile flags: /Ogtp
; File C:\IAGOS\server\v18\Source\Source\_Common\GuildHouse.cpp
; File C:\Program Files\Microsoft Visual Studio\2022\Professional\VC\Tools\MSVC\14.44.35207\include\xtree
; File C:\IAGOS\server\v18\Source\Source\_Common\GuildHouse.cpp
; File C:\Program Files\Microsoft Visual Studio\2022\Professional\VC\Tools\MSVC\14.44.35207\include\xtree
; File C:\IAGOS\server\v18\Source\Source\_Common\GuildHouse.cpp
; File C:\Program Files\Microsoft Visual Studio\2022\Professional\VC\Tools\MSVC\14.44.35207\include\vector
; File C:\IAGOS\server\v18\Source\Source\_Common\GuildHouse.h
; File C:\Program Files\Microsoft Visual Studio\2022\Professional\VC\Tools\MSVC\14.44.35207\include\vector
; File C:\IAGOS\server\v18\Source\Source\_Common\GuildHouse.h
; File C:\IAGOS\server\v18\Source\Source\DX_SDK\d3dx9math.inl
; File C:\IAGOS\server\v18\Source\Source\_Common\GuildHouse.h
; File C:\IAGOS\server\v18\Source\Source\_Common\GuildHouse.cpp
; File C:\IAGOS\server\v18\Source\Source\_Common\GuildHouse.h
; File C:\IAGOS\server\v18\Source\Source\_Common\GuildHouse.cpp
; File C:\IAGOS\server\v18\Source\Source\_Common\GuildHouse.h
; File C:\IAGOS\server\v18\Source\Source\_Common\GuildHouse.cpp
; File C:\IAGOS\server\v18\Source\Source\DatabaseServer\GuildHouseDBCtrl.h
; File C:\IAGOS\server\v18\Source\Source\_Common\GuildHouse.cpp
; File C:\Program Files (x86)\Windows Kits\10\Include\10.0.26100.0\ucrt\time.h
; File C:\IAGOS\server\v18\Source\Source\_Common\GuildHouse.cpp
; File C:\Program Files (x86)\Windows Kits\10\Include\10.0.26100.0\ucrt\time.h
; File C:\IAGOS\server\v18\Source\Source\_Common\GuildHouse.cpp
; File C:\IAGOS\server\v18\Source\Source\DX_SDK\d3dx9math.inl
; File C:\IAGOS\server\v18\Source\Source\_Common\GuildHouse.cpp
; File C:\Program Files\Microsoft Visual Studio\2022\Professional\VC\Tools\MSVC\14.44.35207\include\xtree
; File C:\IAGOS\server\v18\Source\Source\_Common\GuildHouse.cpp
; File C:\IAGOS\server\v18\Source\Source\DatabaseServer\GuildHouseDBCtrl.h
; File C:\IAGOS\server\v18\Source\Source\_Common\GuildHouse.cpp
; File C:\Program Files\Microsoft Visual Studio\2022\Professional\VC\Tools\MSVC\14.44.35207\include\xtree
; File C:\IAGOS\server\v18\Source\Source\_Common\GuildHouse.cpp
;	COMDAT ?ProcessExpired@CGuildHouseMng@@QAEXXZ
_TEXT	SEGMENT
$T2 = -32980						; size = 36
_gfiTemp$3 = -32980					; size = 36
$T4 = -32944						; size = 12
$T5 = -32932						; size = 12
_this$1$ = -32920					; size = 4
_nBufSize$6 = -32916					; size = 4
_nBufSize$7 = -32912					; size = 4
_it$8 = -32908						; size = 4
_nIndex$9 = -32904					; size = 4
$T10 = -32904						; size = 4
$T11 = -32900						; size = 4
$T12 = -32900						; size = 4
_lpBuf$1$ = -32900					; size = 4
tv569 = -32900						; size = 4
_ar$13 = -32896						; size = 16404
_ar$14 = -16492						; size = 16404
$T15 = -88						; size = 36
$T16 = -52						; size = 36
__$ArrayPad$ = -16					; size = 4
__$EHRec$ = -12						; size = 12
?ProcessExpired@CGuildHouseMng@@QAEXXZ PROC		; CGuildHouseMng::ProcessExpired, COMDAT
; _this$ = ecx

; 1468 : {

  00000	55		 push	 ebp
  00001	8b ec		 mov	 ebp, esp
  00003	6a ff		 push	 -1
  00005	68 00 00 00 00	 push	 __ehhandler$?ProcessExpired@CGuildHouseMng@@QAEXXZ
  0000a	64 a1 00 00 00
	00		 mov	 eax, DWORD PTR fs:0
  00010	50		 push	 eax
  00011	b8 c8 80 00 00	 mov	 eax, 32968		; 000080c8H
  00016	e8 00 00 00 00	 call	 __chkstk
  0001b	a1 00 00 00 00	 mov	 eax, DWORD PTR ___security_cookie
  00020	33 c5		 xor	 eax, ebp
  00022	89 45 f0	 mov	 DWORD PTR __$ArrayPad$[ebp], eax
  00025	56		 push	 esi
  00026	57		 push	 edi
  00027	50		 push	 eax
  00028	8d 45 f4	 lea	 eax, DWORD PTR __$EHRec$[ebp]
  0002b	64 a3 00 00 00
	00		 mov	 DWORD PTR fs:0, eax
  00031	8b c1		 mov	 eax, ecx
  00033	89 85 68 7f ff
	ff		 mov	 DWORD PTR _this$1$[ebp], eax
; File C:\Program Files\Microsoft Visual Studio\2022\Professional\VC\Tools\MSVC\14.44.35207\include\xtree

; 1142 :         return iterator(_Scary->_Myhead->_Left, _Scary);

  00039	8b 40 04	 mov	 eax, DWORD PTR [eax+4]

; 37   :     _Tree_unchecked_const_iterator(_Nodeptr _Pnode, const _Mytree* _Plist) noexcept : _Ptr(_Pnode) {

  0003c	8b 30		 mov	 esi, DWORD PTR [eax]
  0003e	89 b5 74 7f ff
	ff		 mov	 DWORD PTR _it$8[ebp], esi

; 237  :         return !(*this == _Right);

  00044	3b f0		 cmp	 esi, eax
; File C:\IAGOS\server\v18\Source\Source\_Common\GuildHouse.cpp

; 1469 : 	for( MapGuildHouse::iterator it=m_mapGuildHouse.begin(); it!=m_mapGuildHouse.end(); it++ )

  00046	0f 84 89 02 00
	00		 je	 $LN3@ProcessExp
  0004c	0f 1f 40 00	 npad	 4
$LL4@ProcessExp:

; 1470 : 	{
; 1471 : 		int nIndex = it->second->GetFirstExpiredFurnitureIndex();	// ±â°ŁŔĚ ¸¸·áµČ °ˇ±¸ ÇŃ°ł¸¦ °ˇÁ®żÂ´Ů.

  00050	8b 4e 14	 mov	 ecx, DWORD PTR [esi+20]
  00053	e8 00 00 00 00	 call	 ?GetFirstExpiredFurnitureIndex@CGuildHouseBase@@QAEHXZ ; CGuildHouseBase::GetFirstExpiredFurnitureIndex
  00058	8b f8		 mov	 edi, eax
  0005a	89 bd 78 7f ff
	ff		 mov	 DWORD PTR _nIndex$9[ebp], edi

; 1472 : 		if( nIndex != NULL_ID )	// ±â°ŁŔĚ ¸¸·áµČ °ˇ±¸°ˇ ŔÖ´Â °ćżě ¸®˝şĆ®żˇĽ­ Á¦°ĹÇŃ´Ů.
; 1473 : 		{

  00060	83 ff ff	 cmp	 edi, -1
  00063	0f 84 49 01 00
	00		 je	 $LN5@ProcessExp

; 1474 : 			CAr ar;

  00069	6a 00		 push	 0
  0006b	6a 00		 push	 0
  0006d	8d 8d 94 bf ff
	ff		 lea	 ecx, DWORD PTR _ar$14[ebp]
  00073	e8 00 00 00 00	 call	 ??0CAr@@QAE@PAXI@Z	; CAr::CAr

; 1475 : 			ar << it->first << GUILDHOUSE_PCKTTYPE_LISTDROP << nIndex;

  00078	8d 85 78 7f ff
	ff		 lea	 eax, DWORD PTR _nIndex$9[ebp]
  0007e	c7 45 fc 00 00
	00 00		 mov	 DWORD PTR __$EHRec$[ebp+8], 0
  00085	50		 push	 eax
  00086	8d 85 7c 7f ff
	ff		 lea	 eax, DWORD PTR $T11[ebp]
  0008c	c7 85 7c 7f ff
	ff 01 00 00 00	 mov	 DWORD PTR $T11[ebp], 1
  00096	50		 push	 eax
; File C:\Program Files\Microsoft Visual Studio\2022\Professional\VC\Tools\MSVC\14.44.35207\include\xtree

; 185  :         return this->_Ptr->_Myval;

  00097	8d 46 10	 lea	 eax, DWORD PTR [esi+16]
; File C:\IAGOS\server\v18\Source\Source\_Common\GuildHouse.cpp

; 1475 : 			ar << it->first << GUILDHOUSE_PCKTTYPE_LISTDROP << nIndex;

  0009a	50		 push	 eax
  0009b	8d 8d 94 bf ff
	ff		 lea	 ecx, DWORD PTR _ar$14[ebp]
  000a1	e8 00 00 00 00	 call	 ??$?6K@CAr@@QAEAAV0@ABK@Z ; CAr::operator<<<unsigned long>
  000a6	8b c8		 mov	 ecx, eax
  000a8	e8 00 00 00 00	 call	 ??$?6W4<unnamed-enum-GUILDHOUSE_PCKTTYPE_LISTUP>@@@CAr@@QAEAAV0@ABW4<unnamed-enum-GUILDHOUSE_PCKTTYPE_LISTUP>@@@Z ; CAr::operator<<<enum <unnamed-enum-GUILDHOUSE_PCKTTYPE_LISTUP> >
  000ad	8b c8		 mov	 ecx, eax
  000af	e8 00 00 00 00	 call	 ??$?6H@CAr@@QAEAAV0@ABH@Z ; CAr::operator<<<int>

; 1476 : 			it->second->GetFurnitureInfo( nIndex ).Serialize( ar );

  000b4	8b 4e 14	 mov	 ecx, DWORD PTR [esi+20]
; File C:\Program Files\Microsoft Visual Studio\2022\Professional\VC\Tools\MSVC\14.44.35207\include\vector

; 1915 :         return static_cast<size_type>(_My_data._Mylast - _My_data._Myfirst);

  000b7	8b 41 0c	 mov	 eax, DWORD PTR [ecx+12]
  000ba	8b 49 10	 mov	 ecx, DWORD PTR [ecx+16]
  000bd	2b c8		 sub	 ecx, eax
  000bf	89 85 7c 7f ff
	ff		 mov	 DWORD PTR tv569[ebp], eax
  000c5	b8 39 8e e3 38	 mov	 eax, 954437177		; 38e38e39H
  000ca	f7 e9		 imul	 ecx
  000cc	c1 fa 03	 sar	 edx, 3
  000cf	8b c2		 mov	 eax, edx
  000d1	c1 e8 1f	 shr	 eax, 31			; 0000001fH
  000d4	03 c2		 add	 eax, edx
; File C:\IAGOS\server\v18\Source\Source\_Common\GuildHouse.h

; 101  : 	GuildHouse_Furniture_Info GetFurnitureInfo( int nIndex ) { return nIndex < (int)( m_vecFntInfo.size() ) ? m_vecFntInfo[nIndex] : GuildHouse_Furniture_Info(); }

  000d6	3b f8		 cmp	 edi, eax
  000d8	7d 26		 jge	 SHORT $LN77@ProcessExp
  000da	8b 8d 7c 7f ff
	ff		 mov	 ecx, DWORD PTR tv569[ebp]
; File C:\Program Files\Microsoft Visual Studio\2022\Professional\VC\Tools\MSVC\14.44.35207\include\vector

; 1934 :         return _My_data._Myfirst[_Pos];

  000e0	8d 04 ff	 lea	 eax, DWORD PTR [edi+edi*8]
; File C:\IAGOS\server\v18\Source\Source\_Common\GuildHouse.h

; 101  : 	GuildHouse_Furniture_Info GetFurnitureInfo( int nIndex ) { return nIndex < (int)( m_vecFntInfo.size() ) ? m_vecFntInfo[nIndex] : GuildHouse_Furniture_Info(); }

  000e3	0f 10 04 81	 movups	 xmm0, XMMWORD PTR [ecx+eax*4]
  000e7	0f 11 45 cc	 movups	 XMMWORD PTR $T16[ebp], xmm0
  000eb	0f 10 44 81 10	 movups	 xmm0, XMMWORD PTR [ecx+eax*4+16]
  000f0	8b 44 81 20	 mov	 eax, DWORD PTR [ecx+eax*4+32]
  000f4	89 45 ec	 mov	 DWORD PTR $T16[ebp+32], eax
  000f7	8d 45 cc	 lea	 eax, DWORD PTR $T16[ebp]
  000fa	0f 11 45 dc	 movups	 XMMWORD PTR $T16[ebp+16], xmm0
  000fe	eb 3b		 jmp	 SHORT $LN78@ProcessExp
$LN77@ProcessExp:
  00100	6a 00		 push	 0
  00102	83 ec 10	 sub	 esp, 16			; 00000010H
; File C:\IAGOS\server\v18\Source\Source\DX_SDK\d3dx9math.inl

; 302  :     z = fz;

  00105	c7 85 64 7f ff
	ff 00 00 00 00	 mov	 DWORD PTR $T5[ebp+8], 0
; File C:\IAGOS\server\v18\Source\Source\_Common\GuildHouse.h

; 101  : 	GuildHouse_Furniture_Info GetFurnitureInfo( int nIndex ) { return nIndex < (int)( m_vecFntInfo.size() ) ? m_vecFntInfo[nIndex] : GuildHouse_Furniture_Info(); }

  0010f	8b 85 64 7f ff
	ff		 mov	 eax, DWORD PTR $T5[ebp+8]
  00115	8b cc		 mov	 ecx, esp
  00117	0f 57 c9	 xorps	 xmm1, xmm1
  0011a	0f 57 c0	 xorps	 xmm0, xmm0
  0011d	0f 14 c1	 unpcklps xmm0, xmm1
  00120	c7 44 24 0c 00
	00 00 00	 mov	 DWORD PTR [esp+12], 0
  00128	66 0f d6 01	 movq	 QWORD PTR [ecx], xmm0
  0012c	6a 00		 push	 0
  0012e	89 41 08	 mov	 DWORD PTR [ecx+8], eax
  00131	8d 4d a8	 lea	 ecx, DWORD PTR $T15[ebp]
  00134	6a ff		 push	 -1
  00136	e8 00 00 00 00	 call	 ??0GuildHouse_Furniture_Info@CGuildHouseBase@@QAE@KHUD3DXVECTOR3@@MJ@Z ; CGuildHouseBase::GuildHouse_Furniture_Info::GuildHouse_Furniture_Info
$LN78@ProcessExp:
  0013b	0f 10 00	 movups	 xmm0, XMMWORD PTR [eax]
; File C:\IAGOS\server\v18\Source\Source\_Common\GuildHouse.cpp

; 1476 : 			it->second->GetFurnitureInfo( nIndex ).Serialize( ar );

  0013e	8d 8d 2c 7f ff
	ff		 lea	 ecx, DWORD PTR $T2[ebp]
; File C:\IAGOS\server\v18\Source\Source\_Common\GuildHouse.h

; 101  : 	GuildHouse_Furniture_Info GetFurnitureInfo( int nIndex ) { return nIndex < (int)( m_vecFntInfo.size() ) ? m_vecFntInfo[nIndex] : GuildHouse_Furniture_Info(); }

  00144	0f 11 85 2c 7f
	ff ff		 movups	 XMMWORD PTR $T2[ebp], xmm0
  0014b	0f 10 40 10	 movups	 xmm0, XMMWORD PTR [eax+16]
  0014f	8b 40 20	 mov	 eax, DWORD PTR [eax+32]
  00152	89 85 4c 7f ff
	ff		 mov	 DWORD PTR $T2[ebp+32], eax
; File C:\IAGOS\server\v18\Source\Source\_Common\GuildHouse.cpp

; 1476 : 			it->second->GetFurnitureInfo( nIndex ).Serialize( ar );

  00158	8d 85 94 bf ff
	ff		 lea	 eax, DWORD PTR _ar$14[ebp]
  0015e	50		 push	 eax
; File C:\IAGOS\server\v18\Source\Source\_Common\GuildHouse.h

; 101  : 	GuildHouse_Furniture_Info GetFurnitureInfo( int nIndex ) { return nIndex < (int)( m_vecFntInfo.size() ) ? m_vecFntInfo[nIndex] : GuildHouse_Furniture_Info(); }

  0015f	0f 11 85 3c 7f
	ff ff		 movups	 XMMWORD PTR $T2[ebp+16], xmm0
; File C:\IAGOS\server\v18\Source\Source\_Common\GuildHouse.cpp

; 1476 : 			it->second->GetFurnitureInfo( nIndex ).Serialize( ar );

  00166	e8 00 00 00 00	 call	 ?Serialize@GuildHouse_Furniture_Info@CGuildHouseBase@@QAEXAAVCAr@@@Z ; CGuildHouseBase::GuildHouse_Furniture_Info::Serialize

; 1477 : 			int nBufSize;
; 1478 : 			LPBYTE lpBuf	= ar.GetBuffer( &nBufSize );

  0016b	8d 85 70 7f ff
	ff		 lea	 eax, DWORD PTR _nBufSize$7[ebp]
  00171	50		 push	 eax
  00172	8d 8d 94 bf ff
	ff		 lea	 ecx, DWORD PTR _ar$14[ebp]
  00178	e8 00 00 00 00	 call	 ?GetBuffer@CAr@@QAEPAEPAH@Z ; CAr::GetBuffer

; 1479 : 			GuildHouseDBMng->PostRequest( GUILDHOUSE_DEFAULT_PACKET, lpBuf, nBufSize );

  0017d	8b bd 70 7f ff
	ff		 mov	 edi, DWORD PTR _nBufSize$7[ebp]
  00183	89 85 7c 7f ff
	ff		 mov	 DWORD PTR _lpBuf$1$[ebp], eax
  00189	e8 00 00 00 00	 call	 ?GetInstance@CGuildHouseDBMng@@SAPAV1@XZ ; CGuildHouseDBMng::GetInstance
; File C:\IAGOS\server\v18\Source\Source\DatabaseServer\GuildHouseDBCtrl.h

; 87   : 	{ return m_GHDBCtrl.PostRequest( nQuery, lpBuf, nBufSize, dwCompletionKey );	}

  0018e	6a 00		 push	 0
  00190	57		 push	 edi
  00191	ff b5 7c 7f ff
	ff		 push	 DWORD PTR _lpBuf$1$[ebp]
  00197	8b c8		 mov	 ecx, eax
  00199	6a 04		 push	 4
  0019b	e8 00 00 00 00	 call	 ?PostRequest@CDbController@@QAEHHPAEHK@Z ; CDbController::PostRequest
; File C:\IAGOS\server\v18\Source\Source\_Common\GuildHouse.cpp

; 1480 : 		}

  001a0	8d 8d 94 bf ff
	ff		 lea	 ecx, DWORD PTR _ar$14[ebp]
  001a6	c7 45 fc ff ff
	ff ff		 mov	 DWORD PTR __$EHRec$[ebp+8], -1
  001ad	e8 00 00 00 00	 call	 ??1CAr@@QAE@XZ		; CAr::~CAr
$LN5@ProcessExp:
; File C:\Program Files (x86)\Windows Kits\10\Include\10.0.26100.0\ucrt\time.h

; 428  :             return _time32(_Time);

  001b2	6a 00		 push	 0
  001b4	e8 00 00 00 00	 call	 __time32
; File C:\IAGOS\server\v18\Source\Source\_Common\GuildHouse.cpp

; 1482 : 		if( it->second->GetUpkeepTime() <= time_null() )	// ±ćµĺÇĎżě˝ş ŔŻÁö ±â°ŁŔĚ ¸¸·áµČ °ćżě

  001b9	8b 4e 14	 mov	 ecx, DWORD PTR [esi+20]
; File C:\Program Files (x86)\Windows Kits\10\Include\10.0.26100.0\ucrt\time.h

; 428  :             return _time32(_Time);

  001bc	83 c4 04	 add	 esp, 4
; File C:\IAGOS\server\v18\Source\Source\_Common\GuildHouse.cpp

; 1482 : 		if( it->second->GetUpkeepTime() <= time_null() )	// ±ćµĺÇĎżě˝ş ŔŻÁö ±â°ŁŔĚ ¸¸·áµČ °ćżě

  001bf	8b 49 18	 mov	 ecx, DWORD PTR [ecx+24]
  001c2	3b c8		 cmp	 ecx, eax
  001c4	0f 8f eb 00 00
	00		 jg	 $LN2@ProcessExp

; 1483 : 		{
; 1484 : 			if( it->second->GetUpkeepTime() > 0 )	// ±ćµĺÇĎżě˝ş°ˇ Č°ĽşČ­ µÇľîŔÖ´Â »óĹÂŔĚ¸é şńČ°ĽşČ­ ˝ĂĹ˛´Ů.

  001ca	85 c9		 test	 ecx, ecx
  001cc	0f 8e e3 00 00
	00		 jle	 $LN2@ProcessExp

; 1493 : 				GH_Fntr_Info gfiTemp;

  001d2	6a 00		 push	 0
  001d4	83 ec 10	 sub	 esp, 16			; 00000010H
; File C:\IAGOS\server\v18\Source\Source\DX_SDK\d3dx9math.inl

; 302  :     z = fz;

  001d7	c7 85 58 7f ff
	ff 00 00 00 00	 mov	 DWORD PTR $T4[ebp+8], 0
; File C:\IAGOS\server\v18\Source\Source\_Common\GuildHouse.cpp

; 1493 : 				GH_Fntr_Info gfiTemp;

  001e1	8b 85 58 7f ff
	ff		 mov	 eax, DWORD PTR $T4[ebp+8]
  001e7	8b cc		 mov	 ecx, esp
  001e9	0f 57 c9	 xorps	 xmm1, xmm1
  001ec	0f 57 c0	 xorps	 xmm0, xmm0
  001ef	0f 14 c1	 unpcklps xmm0, xmm1
  001f2	c7 44 24 0c 00
	00 00 00	 mov	 DWORD PTR [esp+12], 0
  001fa	66 0f d6 01	 movq	 QWORD PTR [ecx], xmm0
  001fe	6a 00		 push	 0
  00200	89 41 08	 mov	 DWORD PTR [ecx+8], eax
  00203	8d 8d 2c 7f ff
	ff		 lea	 ecx, DWORD PTR _gfiTemp$3[ebp]
  00209	6a ff		 push	 -1
  0020b	e8 00 00 00 00	 call	 ??0GuildHouse_Furniture_Info@CGuildHouseBase@@QAE@KHUD3DXVECTOR3@@MJ@Z ; CGuildHouseBase::GuildHouse_Furniture_Info::GuildHouse_Furniture_Info

; 1494 : 				CAr ar;

  00210	6a 00		 push	 0
  00212	6a 00		 push	 0
  00214	8d 8d 80 7f ff
	ff		 lea	 ecx, DWORD PTR _ar$13[ebp]
  0021a	e8 00 00 00 00	 call	 ??0CAr@@QAE@PAXI@Z	; CAr::CAr

; 1495 : 				ar << it->first << GUILDHOUSE_PCKTTYPE_EXPIRED << NULL_ID;

  0021f	8d 85 7c 7f ff
	ff		 lea	 eax, DWORD PTR $T12[ebp]
  00225	c7 45 fc 01 00
	00 00		 mov	 DWORD PTR __$EHRec$[ebp+8], 1
  0022c	50		 push	 eax
  0022d	8d 85 78 7f ff
	ff		 lea	 eax, DWORD PTR $T10[ebp]
  00233	c7 85 7c 7f ff
	ff ff ff ff ff	 mov	 DWORD PTR $T12[ebp], -1
  0023d	50		 push	 eax
; File C:\Program Files\Microsoft Visual Studio\2022\Professional\VC\Tools\MSVC\14.44.35207\include\xtree

; 185  :         return this->_Ptr->_Myval;

  0023e	83 c6 10	 add	 esi, 16			; 00000010H
; File C:\IAGOS\server\v18\Source\Source\_Common\GuildHouse.cpp

; 1495 : 				ar << it->first << GUILDHOUSE_PCKTTYPE_EXPIRED << NULL_ID;

  00241	c7 85 78 7f ff
	ff 07 00 00 00	 mov	 DWORD PTR $T10[ebp], 7
  0024b	56		 push	 esi
  0024c	8d 8d 80 7f ff
	ff		 lea	 ecx, DWORD PTR _ar$13[ebp]
  00252	e8 00 00 00 00	 call	 ??$?6K@CAr@@QAEAAV0@ABK@Z ; CAr::operator<<<unsigned long>
  00257	8b c8		 mov	 ecx, eax
  00259	e8 00 00 00 00	 call	 ??$?6W4<unnamed-enum-GUILDHOUSE_PCKTTYPE_LISTUP>@@@CAr@@QAEAAV0@ABW4<unnamed-enum-GUILDHOUSE_PCKTTYPE_LISTUP>@@@Z ; CAr::operator<<<enum <unnamed-enum-GUILDHOUSE_PCKTTYPE_LISTUP> >
  0025e	8b c8		 mov	 ecx, eax
  00260	e8 00 00 00 00	 call	 ??$?6I@CAr@@QAEAAV0@ABI@Z ; CAr::operator<<<unsigned int>

; 1496 : 				gfiTemp.Serialize( ar );

  00265	8d 85 80 7f ff
	ff		 lea	 eax, DWORD PTR _ar$13[ebp]
  0026b	50		 push	 eax
  0026c	8d 8d 2c 7f ff
	ff		 lea	 ecx, DWORD PTR _gfiTemp$3[ebp]
  00272	e8 00 00 00 00	 call	 ?Serialize@GuildHouse_Furniture_Info@CGuildHouseBase@@QAEXAAVCAr@@@Z ; CGuildHouseBase::GuildHouse_Furniture_Info::Serialize

; 1497 : 				int nBufSize;
; 1498 : 				LPBYTE lpBuf = ar.GetBuffer( &nBufSize );

  00277	8d 85 6c 7f ff
	ff		 lea	 eax, DWORD PTR _nBufSize$6[ebp]
  0027d	50		 push	 eax
  0027e	8d 8d 80 7f ff
	ff		 lea	 ecx, DWORD PTR _ar$13[ebp]
  00284	e8 00 00 00 00	 call	 ?GetBuffer@CAr@@QAEPAEPAH@Z ; CAr::GetBuffer

; 1499 : 				GuildHouseDBMng->PostRequest( GUILDHOUSE_DEFAULT_PACKET, lpBuf, nBufSize );

  00289	8b b5 6c 7f ff
	ff		 mov	 esi, DWORD PTR _nBufSize$6[ebp]
  0028f	8b f8		 mov	 edi, eax
  00291	e8 00 00 00 00	 call	 ?GetInstance@CGuildHouseDBMng@@SAPAV1@XZ ; CGuildHouseDBMng::GetInstance
; File C:\IAGOS\server\v18\Source\Source\DatabaseServer\GuildHouseDBCtrl.h

; 87   : 	{ return m_GHDBCtrl.PostRequest( nQuery, lpBuf, nBufSize, dwCompletionKey );	}

  00296	6a 00		 push	 0
  00298	56		 push	 esi
  00299	57		 push	 edi
  0029a	6a 04		 push	 4
  0029c	8b c8		 mov	 ecx, eax
  0029e	e8 00 00 00 00	 call	 ?PostRequest@CDbController@@QAEHHPAEHK@Z ; CDbController::PostRequest
; File C:\IAGOS\server\v18\Source\Source\_Common\GuildHouse.cpp

; 1501 : 			}

  002a3	8d 8d 80 7f ff
	ff		 lea	 ecx, DWORD PTR _ar$13[ebp]
  002a9	c7 45 fc ff ff
	ff ff		 mov	 DWORD PTR __$EHRec$[ebp+8], -1
  002b0	e8 00 00 00 00	 call	 ??1CAr@@QAE@XZ		; CAr::~CAr
$LN2@ProcessExp:
; File C:\Program Files\Microsoft Visual Studio\2022\Professional\VC\Tools\MSVC\14.44.35207\include\xtree

; 198  :         _Mybase::operator++();

  002b5	8d 8d 74 7f ff
	ff		 lea	 ecx, DWORD PTR _it$8[ebp]
  002bb	e8 00 00 00 00	 call	 ??E?$_Tree_unchecked_const_iterator@V?$_Tree_val@U?$_Tree_simple_types@U?$pair@$$CBKPAVCGuildHouseBase@@@std@@@std@@@std@@U_Iterator_base0@2@@std@@QAEAAV01@XZ ; std::_Tree_unchecked_const_iterator<std::_Tree_val<std::_Tree_simple_types<std::pair<unsigned long const ,CGuildHouseBase *> > >,std::_Iterator_base0>::operator++

; 237  :         return !(*this == _Right);

  002c0	8b 85 68 7f ff
	ff		 mov	 eax, DWORD PTR _this$1$[ebp]
  002c6	8b b5 74 7f ff
	ff		 mov	 esi, DWORD PTR _it$8[ebp]
  002cc	3b 70 04	 cmp	 esi, DWORD PTR [eax+4]
; File C:\IAGOS\server\v18\Source\Source\_Common\GuildHouse.cpp

; 1469 : 	for( MapGuildHouse::iterator it=m_mapGuildHouse.begin(); it!=m_mapGuildHouse.end(); it++ )

  002cf	0f 85 7b fd ff
	ff		 jne	 $LL4@ProcessExp
$LN3@ProcessExp:

; 1502 : 		//	±â´É Á¦°Ĺ(łŞÁßżˇ ÇĘżäÇŇÁö ¸ô¶óĽ­... ł˛°ÜµŇ...
; 1503 : 		//	else if( it->second->GetFurnitureListSize() == 0 )	// ±ćµĺÇĎżě˝ş°ˇ şńČ°ĽşČ¸ »óĹÂŔĚ°í °ˇ±¸ ¸ń·ĎŔĚ şńľîŔÖ´Â °ćżě´Â ±ćµĺÇĎżě˝ş¸¦ ĆÄ±«ÇŃ´Ů.
; 1504 : 		//		GuildHouseDBMng->PostRequest( GUILDHOUSE_REMOVE, NULL, 0, it->first );
; 1505 : 		}
; 1506 : 	}
; 1507 : }

  002d5	8b 4d f4	 mov	 ecx, DWORD PTR __$EHRec$[ebp]
  002d8	64 89 0d 00 00
	00 00		 mov	 DWORD PTR fs:0, ecx
  002df	59		 pop	 ecx
  002e0	5f		 pop	 edi
  002e1	5e		 pop	 esi
  002e2	8b 4d f0	 mov	 ecx, DWORD PTR __$ArrayPad$[ebp]
  002e5	33 cd		 xor	 ecx, ebp
  002e7	e8 00 00 00 00	 call	 @__security_check_cookie@4
  002ec	8b e5		 mov	 esp, ebp
  002ee	5d		 pop	 ebp
  002ef	c3		 ret	 0
_TEXT	ENDS
;	COMDAT text$x
text$x	SEGMENT
__unwindfunclet$?ProcessExpired@CGuildHouseMng@@QAEXXZ$0:
  00000	8d 8d 94 bf ff
	ff		 lea	 ecx, DWORD PTR _ar$14[ebp]
  00006	e9 00 00 00 00	 jmp	 ??1CAr@@QAE@XZ		; CAr::~CAr
__unwindfunclet$?ProcessExpired@CGuildHouseMng@@QAEXXZ$1:
  0000b	8d 8d 80 7f ff
	ff		 lea	 ecx, DWORD PTR _ar$13[ebp]
  00011	e9 00 00 00 00	 jmp	 ??1CAr@@QAE@XZ		; CAr::~CAr
  00016	cc		 int	 3
  00017	cc		 int	 3
  00018	cc		 int	 3
  00019	cc		 int	 3
  0001a	cc		 int	 3
__ehhandler$?ProcessExpired@CGuildHouseMng@@QAEXXZ:
  0001b	90		 npad	 1
  0001c	90		 npad	 1
  0001d	8b 54 24 08	 mov	 edx, DWORD PTR [esp+8]
  00021	8d 42 0c	 lea	 eax, DWORD PTR [edx+12]
  00024	8b 8a 2c 7f ff
	ff		 mov	 ecx, DWORD PTR [edx-32980]
  0002a	33 c8		 xor	 ecx, eax
  0002c	e8 00 00 00 00	 call	 @__security_check_cookie@4
  00031	8b 4a fc	 mov	 ecx, DWORD PTR [edx-4]
  00034	33 c8		 xor	 ecx, eax
  00036	e8 00 00 00 00	 call	 @__security_check_cookie@4
  0003b	b8 00 00 00 00	 mov	 eax, OFFSET __ehfuncinfo$?ProcessExpired@CGuildHouseMng@@QAEXXZ
  00040	e9 00 00 00 00	 jmp	 ___CxxFrameHandler3
text$x	ENDS
?ProcessExpired@CGuildHouseMng@@QAEXXZ ENDP		; CGuildHouseMng::ProcessExpired
; Function compile flags: /Ogtp
; File C:\IAGOS\server\v18\Source\Source\_Common\GuildHouse.cpp
; File C:\IAGOS\server\v18\Source\Source\_Network\Misc\Include\Ar.h
; File C:\IAGOS\server\v18\Source\Source\_Common\GuildHouse.cpp
; File C:\Program Files\Microsoft Visual Studio\2022\Professional\VC\Tools\MSVC\14.44.35207\include\xtree
; File C:\IAGOS\server\v18\Source\Source\_Common\GuildHouse.cpp
; File C:\Program Files\Microsoft Visual Studio\2022\Professional\VC\Tools\MSVC\14.44.35207\include\xtree
; File C:\IAGOS\server\v18\Source\Source\_Common\GuildHouse.cpp
; File C:\Program Files\Microsoft Visual Studio\2022\Professional\VC\Tools\MSVC\14.44.35207\include\xtree
; File C:\IAGOS\server\v18\Source\Source\_Common\GuildHouse.cpp
; File C:\Program Files\Microsoft Visual Studio\2022\Professional\VC\Tools\MSVC\14.44.35207\include\utility
; File C:\Program Files\Microsoft Visual Studio\2022\Professional\VC\Tools\MSVC\14.44.35207\include\xtree
; File C:\Program Files\Microsoft Visual Studio\2022\Professional\VC\Tools\MSVC\14.44.35207\include\utility
; File C:\Program Files\Microsoft Visual Studio\2022\Professional\VC\Tools\MSVC\14.44.35207\include\xtree
; File C:\Program Files\Microsoft Visual Studio\2022\Professional\VC\Tools\MSVC\14.44.35207\include\utility
; File C:\Program Files\Microsoft Visual Studio\2022\Professional\VC\Tools\MSVC\14.44.35207\include\xtree
; File C:\Program Files\Microsoft Visual Studio\2022\Professional\VC\Tools\MSVC\14.44.35207\include\type_traits
; File C:\Program Files\Microsoft Visual Studio\2022\Professional\VC\Tools\MSVC\14.44.35207\include\xtree
; File C:\IAGOS\server\v18\Source\Source\_Common\GuildHouse.cpp
; File C:\Program Files\Microsoft Visual Studio\2022\Professional\VC\Tools\MSVC\14.44.35207\include\xtree
; File C:\Program Files\Microsoft Visual Studio\2022\Professional\VC\Tools\MSVC\14.44.35207\include\xmemory
; File C:\Program Files\Microsoft Visual Studio\2022\Professional\VC\Tools\MSVC\14.44.35207\include\xtree
; File C:\Program Files\Microsoft Visual Studio\2022\Professional\VC\Tools\MSVC\14.44.35207\include\xmemory
; File C:\Program Files\Microsoft Visual Studio\2022\Professional\VC\Tools\MSVC\14.44.35207\include\utility
; File C:\Program Files\Microsoft Visual Studio\2022\Professional\VC\Tools\MSVC\14.44.35207\include\xmemory
; File C:\Program Files\Microsoft Visual Studio\2022\Professional\VC\Tools\MSVC\14.44.35207\include\xtree
; File C:\Program Files\Microsoft Visual Studio\2022\Professional\VC\Tools\MSVC\14.44.35207\include\utility
; File C:\Program Files\Microsoft Visual Studio\2022\Professional\VC\Tools\MSVC\14.44.35207\include\xtree
; File C:\Program Files\Microsoft Visual Studio\2022\Professional\VC\Tools\MSVC\14.44.35207\include\utility
; File C:\Program Files\Microsoft Visual Studio\2022\Professional\VC\Tools\MSVC\14.44.35207\include\xtree
; File C:\IAGOS\server\v18\Source\Source\_Common\GuildHouse.cpp
; File C:\Program Files\Microsoft Visual Studio\2022\Professional\VC\Tools\MSVC\14.44.35207\include\xtree
; File C:\IAGOS\server\v18\Source\Source\_Common\GuildHouse.cpp
;	COMDAT ?Serialize@CGuildHouseMng@@QAEXAAVCAr@@@Z
_TEXT	SEGMENT
_temp$3 = -96						; size = 28
$T4 = -68						; size = 12
__Loc$5 = -56						; size = 12
$T6 = -44						; size = 8
$T7 = -36						; size = 8
_dwType$8 = -28						; size = 4
$T9 = -24						; size = 4
_nSize$10 = -24						; size = 4
_i$1$ = -20						; size = 4
_this$1$ = -16						; size = 4
__$EHRec$ = -12						; size = 12
_ar$ = 8						; size = 4
$T11 = 8						; size = 4
_it$12 = 8						; size = 4
_dwGuildId$13 = 8					; size = 4
?Serialize@CGuildHouseMng@@QAEXAAVCAr@@@Z PROC		; CGuildHouseMng::Serialize, COMDAT
; _this$ = ecx

; 1142 : {

  00000	55		 push	 ebp
  00001	8b ec		 mov	 ebp, esp
  00003	6a ff		 push	 -1
  00005	68 00 00 00 00	 push	 __ehhandler$?Serialize@CGuildHouseMng@@QAEXAAVCAr@@@Z
  0000a	64 a1 00 00 00
	00		 mov	 eax, DWORD PTR fs:0
  00010	50		 push	 eax
  00011	83 ec 54	 sub	 esp, 84			; 00000054H
  00014	53		 push	 ebx
  00015	56		 push	 esi
  00016	57		 push	 edi
  00017	a1 00 00 00 00	 mov	 eax, DWORD PTR ___security_cookie
  0001c	33 c5		 xor	 eax, ebp
  0001e	50		 push	 eax
  0001f	8d 45 f4	 lea	 eax, DWORD PTR __$EHRec$[ebp]
  00022	64 a3 00 00 00
	00		 mov	 DWORD PTR fs:0, eax
  00028	8b c1		 mov	 eax, ecx
  0002a	89 45 f0	 mov	 DWORD PTR _this$1$[ebp], eax
; File C:\IAGOS\server\v18\Source\Source\_Network\Misc\Include\Ar.h

; 146  : 	return (m_nMode & CAr::load) == 0;

  0002d	8b 5d 08	 mov	 ebx, DWORD PTR _ar$[ebp]
  00030	8d 78 04	 lea	 edi, DWORD PTR [eax+4]
  00033	f6 03 01	 test	 BYTE PTR [ebx], 1
; File C:\IAGOS\server\v18\Source\Source\_Common\GuildHouse.cpp

; 1143 : 	if( ar.IsStoring() )

  00036	75 67		 jne	 SHORT $LN8@Serialize

; 1144 : 	{
; 1145 : 		ar << m_mapGuildHouse.size();

  00038	8b 40 08	 mov	 eax, DWORD PTR [eax+8]
  0003b	8b cb		 mov	 ecx, ebx
  0003d	89 45 08	 mov	 DWORD PTR $T11[ebp], eax
  00040	8d 45 08	 lea	 eax, DWORD PTR $T11[ebp]
  00043	50		 push	 eax
  00044	e8 00 00 00 00	 call	 ??$?6I@CAr@@QAEAAV0@ABI@Z ; CAr::operator<<<unsigned int>
; File C:\Program Files\Microsoft Visual Studio\2022\Professional\VC\Tools\MSVC\14.44.35207\include\xtree

; 1142 :         return iterator(_Scary->_Myhead->_Left, _Scary);

  00049	8b 07		 mov	 eax, DWORD PTR [edi]

; 37   :     _Tree_unchecked_const_iterator(_Nodeptr _Pnode, const _Mytree* _Plist) noexcept : _Ptr(_Pnode) {

  0004b	8b 30		 mov	 esi, DWORD PTR [eax]
  0004d	89 75 08	 mov	 DWORD PTR _it$12[ebp], esi

; 237  :         return !(*this == _Right);

  00050	3b f0		 cmp	 esi, eax
; File C:\IAGOS\server\v18\Source\Source\_Common\GuildHouse.cpp

; 1146 : 		for( MapGuildHouse::iterator it=m_mapGuildHouse.begin(); it!=m_mapGuildHouse.end(); it++ )

  00052	74 37		 je	 SHORT $LN204@Serialize
$LL4@Serialize:

; 1148 : 			ar << it->first << it->second->GetType();

  00054	8b 46 14	 mov	 eax, DWORD PTR [esi+20]
  00057	8b cb		 mov	 ecx, ebx
  00059	8b 40 08	 mov	 eax, DWORD PTR [eax+8]
  0005c	89 45 e8	 mov	 DWORD PTR $T9[ebp], eax
  0005f	8d 45 e8	 lea	 eax, DWORD PTR $T9[ebp]
  00062	50		 push	 eax
; File C:\Program Files\Microsoft Visual Studio\2022\Professional\VC\Tools\MSVC\14.44.35207\include\xtree

; 185  :         return this->_Ptr->_Myval;

  00063	8d 46 10	 lea	 eax, DWORD PTR [esi+16]
; File C:\IAGOS\server\v18\Source\Source\_Common\GuildHouse.cpp

; 1148 : 			ar << it->first << it->second->GetType();

  00066	50		 push	 eax
  00067	e8 00 00 00 00	 call	 ??$?6K@CAr@@QAEAAV0@ABK@Z ; CAr::operator<<<unsigned long>
  0006c	8b c8		 mov	 ecx, eax
  0006e	e8 00 00 00 00	 call	 ??$?6K@CAr@@QAEAAV0@ABK@Z ; CAr::operator<<<unsigned long>

; 1149 : 			it->second->SerializeAllInfo( ar );

  00073	8b 4e 14	 mov	 ecx, DWORD PTR [esi+20]
  00076	53		 push	 ebx
  00077	e8 00 00 00 00	 call	 ?SerializeAllInfo@CGuildHouseBase@@QAEXAAVCAr@@@Z ; CGuildHouseBase::SerializeAllInfo
; File C:\Program Files\Microsoft Visual Studio\2022\Professional\VC\Tools\MSVC\14.44.35207\include\xtree

; 198  :         _Mybase::operator++();

  0007c	8d 4d 08	 lea	 ecx, DWORD PTR _it$12[ebp]
  0007f	e8 00 00 00 00	 call	 ??E?$_Tree_unchecked_const_iterator@V?$_Tree_val@U?$_Tree_simple_types@U?$pair@$$CBKPAVCGuildHouseBase@@@std@@@std@@@std@@U_Iterator_base0@2@@std@@QAEAAV01@XZ ; std::_Tree_unchecked_const_iterator<std::_Tree_val<std::_Tree_simple_types<std::pair<unsigned long const ,CGuildHouseBase *> > >,std::_Iterator_base0>::operator++

; 237  :         return !(*this == _Right);

  00084	8b 75 08	 mov	 esi, DWORD PTR _it$12[ebp]
  00087	3b 37		 cmp	 esi, DWORD PTR [edi]
; File C:\IAGOS\server\v18\Source\Source\_Common\GuildHouse.cpp

; 1146 : 		for( MapGuildHouse::iterator it=m_mapGuildHouse.begin(); it!=m_mapGuildHouse.end(); it++ )

  00089	75 c9		 jne	 SHORT $LL4@Serialize
$LN204@Serialize:

; 1194 : }

  0008b	8b 4d f4	 mov	 ecx, DWORD PTR __$EHRec$[ebp]
  0008e	64 89 0d 00 00
	00 00		 mov	 DWORD PTR fs:0, ecx
  00095	59		 pop	 ecx
  00096	5f		 pop	 edi
  00097	5e		 pop	 esi
  00098	5b		 pop	 ebx
  00099	8b e5		 mov	 esp, ebp
  0009b	5d		 pop	 ebp
  0009c	c2 04 00	 ret	 4
$LN8@Serialize:

; 1150 : 		}
; 1151 : #ifdef __GUILD_HOUSE_MIDDLE
; 1152 : 		ar << m_mapTenderGuild.size();
; 1153 : 		for( MAP_TENDER_GUILD::iterator it = m_mapTenderGuild.begin(); it != m_mapTenderGuild.end(); ++it )
; 1154 : 		{
; 1155 : 			ar << it->first;
; 1156 : 			it->second.Serialize( ar );
; 1157 : 		}
; 1158 : #endif // __GUILD_HOUSE_MIDDLE
; 1159 : 	}
; 1160 : 	else
; 1161 : 	{
; 1162 : 		m_mapGuildHouse.clear();

  0009f	8b cf		 mov	 ecx, edi
  000a1	e8 00 00 00 00	 call	 ?clear@?$_Tree@V?$_Tmap_traits@KPAVCGuildHouseBase@@U?$less@K@std@@V?$allocator@U?$pair@$$CBKPAVCGuildHouseBase@@@std@@@3@$0A@@std@@@std@@QAEXXZ ; std::_Tree<std::_Tmap_traits<unsigned long,CGuildHouseBase *,std::less<unsigned long>,std::allocator<std::pair<unsigned long const ,CGuildHouseBase *> >,0> >::clear

; 1163 : 		int nSize;
; 1164 : 		DWORD dwGuildId, dwType;
; 1165 : 		ar >> nSize;

  000a6	8d 45 e8	 lea	 eax, DWORD PTR _nSize$10[ebp]
  000a9	8b cb		 mov	 ecx, ebx
  000ab	50		 push	 eax
  000ac	e8 00 00 00 00	 call	 ??$?5H@CAr@@QAEAAV0@AAH@Z ; CAr::operator>><int>

; 1166 : 		for( int i=0; i<nSize; i++ )

  000b1	33 f6		 xor	 esi, esi
  000b3	89 75 ec	 mov	 DWORD PTR _i$1$[ebp], esi
  000b6	39 75 e8	 cmp	 DWORD PTR _nSize$10[ebp], esi
  000b9	7e d0		 jle	 SHORT $LN204@Serialize
  000bb	0f 1f 44 00 00	 npad	 5
$LL7@Serialize:

; 1167 : 		{
; 1168 : 			ar >> dwGuildId >> dwType;

  000c0	8d 45 e4	 lea	 eax, DWORD PTR _dwType$8[ebp]
  000c3	8b cb		 mov	 ecx, ebx
  000c5	50		 push	 eax
  000c6	8d 45 08	 lea	 eax, DWORD PTR _dwGuildId$13[ebp]
  000c9	50		 push	 eax
  000ca	e8 00 00 00 00	 call	 ??$?5K@CAr@@QAEAAV0@AAK@Z ; CAr::operator>><unsigned long>
  000cf	8b c8		 mov	 ecx, eax
  000d1	e8 00 00 00 00	 call	 ??$?5K@CAr@@QAEAAV0@AAK@Z ; CAr::operator>><unsigned long>

; 1169 : 			CGuildHouseBase* pGuildHouse = MakeGuildHouse( dwGuildId, dwType );

  000d6	ff 75 e4	 push	 DWORD PTR _dwType$8[ebp]
  000d9	8b 4d 08	 mov	 ecx, DWORD PTR _dwGuildId$13[ebp]
  000dc	51		 push	 ecx
  000dd	8b 4d f0	 mov	 ecx, DWORD PTR _this$1$[ebp]
  000e0	e8 00 00 00 00	 call	 ?MakeGuildHouse@CGuildHouseMng@@QAEPAVCGuildHouseBase@@KK@Z ; CGuildHouseMng::MakeGuildHouse
  000e5	8b f8		 mov	 edi, eax

; 1170 : 			
; 1171 : 			if( pGuildHouse && AddGuildHouse( dwGuildId, pGuildHouse ) )

  000e7	85 ff		 test	 edi, edi
  000e9	74 3e		 je	 SHORT $LN14@Serialize
; File C:\Program Files\Microsoft Visual Studio\2022\Professional\VC\Tools\MSVC\14.44.35207\include\utility

; 274  :         : first(_STD forward<_Other1>(_Val1)), second(_STD forward<_Other2>(_Val2)) {

  000eb	8b 45 08	 mov	 eax, DWORD PTR _dwGuildId$13[ebp]
; File C:\Program Files\Microsoft Visual Studio\2022\Professional\VC\Tools\MSVC\14.44.35207\include\xtree

; 1017 :             _Loc                = _Find_lower_bound(_Keyval);

  000ee	8b 4d f0	 mov	 ecx, DWORD PTR _this$1$[ebp]
; File C:\Program Files\Microsoft Visual Studio\2022\Professional\VC\Tools\MSVC\14.44.35207\include\utility

; 274  :         : first(_STD forward<_Other1>(_Val1)), second(_STD forward<_Other2>(_Val2)) {

  000f1	89 45 dc	 mov	 DWORD PTR $T7[ebp], eax
; File C:\Program Files\Microsoft Visual Studio\2022\Professional\VC\Tools\MSVC\14.44.35207\include\xtree

; 1017 :             _Loc                = _Find_lower_bound(_Keyval);

  000f4	8d 45 dc	 lea	 eax, DWORD PTR $T7[ebp]
  000f7	50		 push	 eax
  000f8	8d 45 bc	 lea	 eax, DWORD PTR $T4[ebp]
; File C:\Program Files\Microsoft Visual Studio\2022\Professional\VC\Tools\MSVC\14.44.35207\include\utility

; 274  :         : first(_STD forward<_Other1>(_Val1)), second(_STD forward<_Other2>(_Val2)) {

  000fb	89 7d e0	 mov	 DWORD PTR $T7[ebp+4], edi
; File C:\Program Files\Microsoft Visual Studio\2022\Professional\VC\Tools\MSVC\14.44.35207\include\xtree

; 1017 :             _Loc                = _Find_lower_bound(_Keyval);

  000fe	50		 push	 eax
  000ff	8d 49 04	 lea	 ecx, DWORD PTR [ecx+4]
  00102	e8 00 00 00 00	 call	 ??$_Find_lower_bound@K@?$_Tree@V?$_Tmap_traits@KPAVCGuildHouseBase@@U?$less@K@std@@V?$allocator@U?$pair@$$CBKPAVCGuildHouseBase@@@std@@@3@$0A@@std@@@std@@IBE?AU?$_Tree_find_result@PAU?$_Tree_node@U?$pair@$$CBKPAVCGuildHouseBase@@@std@@PAX@std@@@1@ABK@Z ; std::_Tree<std::_Tmap_traits<unsigned long,CGuildHouseBase *,std::less<unsigned long>,std::allocator<std::pair<unsigned long const ,CGuildHouseBase *> >,0> >::_Find_lower_bound<unsigned long>
  00107	8b 48 08	 mov	 ecx, DWORD PTR [eax+8]
  0010a	f3 0f 7e 00	 movq	 xmm0, QWORD PTR [eax]
  0010e	66 0f d6 45 c8	 movq	 QWORD PTR __Loc$5[ebp], xmm0

; 1624 :         return !_Bound->_Isnil && !_DEBUG_LT_PRED(_Getcomp(), _Keyval, _Traits::_Kfn(_Bound->_Myval));

  00113	80 79 0d 00	 cmp	 BYTE PTR [ecx+13], 0
  00117	75 5a		 jne	 SHORT $LN95@Serialize
; File C:\Program Files\Microsoft Visual Studio\2022\Professional\VC\Tools\MSVC\14.44.35207\include\type_traits

; 2380 :         return _Left < _Right;

  00119	8b 45 08	 mov	 eax, DWORD PTR _dwGuildId$13[ebp]
  0011c	3b 41 10	 cmp	 eax, DWORD PTR [ecx+16]
; File C:\Program Files\Microsoft Visual Studio\2022\Professional\VC\Tools\MSVC\14.44.35207\include\xtree

; 1624 :         return !_Bound->_Isnil && !_DEBUG_LT_PRED(_Getcomp(), _Keyval, _Traits::_Kfn(_Bound->_Myval));

  0011f	72 52		 jb	 SHORT $LN95@Serialize
; File C:\IAGOS\server\v18\Source\Source\_Common\GuildHouse.cpp

; 1175 : 				SAFE_DELETE( pGuildHouse );

  00121	8b 07		 mov	 eax, DWORD PTR [edi]
  00123	8b cf		 mov	 ecx, edi
  00125	6a 01		 push	 1
  00127	ff 10		 call	 DWORD PTR [eax]
$LN14@Serialize:

; 1176 : 				CGuildHouseSmall temp( NULL_ID );

  00129	6a ff		 push	 -1
  0012b	8d 4d a0	 lea	 ecx, DWORD PTR _temp$3[ebp]
  0012e	e8 00 00 00 00	 call	 ??0CGuildHouseSmall@@QAE@K@Z ; CGuildHouseSmall::CGuildHouseSmall

; 1177 : 				temp.SerializeAllInfo( ar );

  00133	53		 push	 ebx
  00134	8d 4d a0	 lea	 ecx, DWORD PTR _temp$3[ebp]
  00137	c7 45 fc 01 00
	00 00		 mov	 DWORD PTR __$EHRec$[ebp+8], 1
  0013e	e8 00 00 00 00	 call	 ?SerializeAllInfo@CGuildHouseBase@@QAEXAAVCAr@@@Z ; CGuildHouseBase::SerializeAllInfo

; 1178 : 			}

  00143	8d 4d a0	 lea	 ecx, DWORD PTR _temp$3[ebp]
  00146	c7 45 fc ff ff
	ff ff		 mov	 DWORD PTR __$EHRec$[ebp+8], -1
  0014d	e8 00 00 00 00	 call	 ??1CGuildHouseSmall@@UAE@XZ ; CGuildHouseSmall::~CGuildHouseSmall
$LN5@Serialize:

; 1166 : 		for( int i=0; i<nSize; i++ )

  00152	46		 inc	 esi
  00153	89 75 ec	 mov	 DWORD PTR _i$1$[ebp], esi
  00156	3b 75 e8	 cmp	 esi, DWORD PTR _nSize$10[ebp]
  00159	0f 8c 61 ff ff
	ff		 jl	 $LL7@Serialize

; 1194 : }

  0015f	8b 4d f4	 mov	 ecx, DWORD PTR __$EHRec$[ebp]
  00162	64 89 0d 00 00
	00 00		 mov	 DWORD PTR fs:0, ecx
  00169	59		 pop	 ecx
  0016a	5f		 pop	 edi
  0016b	5e		 pop	 esi
  0016c	5b		 pop	 ebx
  0016d	8b e5		 mov	 esp, ebp
  0016f	5d		 pop	 ebp
  00170	c2 04 00	 ret	 4
$LN95@Serialize:
; File C:\Program Files\Microsoft Visual Studio\2022\Professional\VC\Tools\MSVC\14.44.35207\include\xtree

; 1648 :         if (max_size() == _Get_scary()->_Mysize) {

  00173	8b 45 f0	 mov	 eax, DWORD PTR _this$1$[ebp]
  00176	83 c0 04	 add	 eax, 4
  00179	81 78 04 aa aa
	aa 0a		 cmp	 DWORD PTR [eax+4], 178956970 ; 0aaaaaaaH
  00180	74 64		 je	 SHORT $LN200@Serialize

; 1023 :             _Inserted = _Tree_temp_node<_Alnode>(_Getal(), _Scary->_Myhead, _STD forward<_Valtys>(_Vals)...)._Release();

  00182	8b 30		 mov	 esi, DWORD PTR [eax]
; File C:\Program Files\Microsoft Visual Studio\2022\Professional\VC\Tools\MSVC\14.44.35207\include\xmemory

; 1160 :     _CONSTEXPR20 explicit _Alloc_construct_ptr(_Alloc& _Al_) : _Al(_Al_), _Ptr(nullptr) {}

  00184	89 45 d4	 mov	 DWORD PTR $T6[ebp], eax

; 136  :         return ::operator new(_Bytes);

  00187	6a 18		 push	 24			; 00000018H
; File C:\Program Files\Microsoft Visual Studio\2022\Professional\VC\Tools\MSVC\14.44.35207\include\xtree

; 808  :     explicit _Tree_temp_node_alloc(_Alnode& _Al_) : _Alloc_construct_ptr<_Alnode>(_Al_) {

  00189	c7 45 fc 00 00
	00 00		 mov	 DWORD PTR __$EHRec$[ebp+8], 0
; File C:\Program Files\Microsoft Visual Studio\2022\Professional\VC\Tools\MSVC\14.44.35207\include\xmemory

; 1167 :         _Ptr = nullptr; // if allocate throws, prevents double-free

  00190	c7 45 d8 00 00
	00 00		 mov	 DWORD PTR $T6[ebp+4], 0

; 136  :         return ::operator new(_Bytes);

  00197	e8 00 00 00 00	 call	 ??2@YAPAXI@Z		; operator new
; File C:\Program Files\Microsoft Visual Studio\2022\Professional\VC\Tools\MSVC\14.44.35207\include\utility

; 303  :         : first(_STD forward<_Other1>(_Right.first)), second(_STD forward<_Other2>(_Right.second)) {}

  0019c	8b 4d 08	 mov	 ecx, DWORD PTR _dwGuildId$13[ebp]
; File C:\Program Files\Microsoft Visual Studio\2022\Professional\VC\Tools\MSVC\14.44.35207\include\xmemory

; 136  :         return ::operator new(_Bytes);

  0019f	83 c4 04	 add	 esp, 4
; File C:\Program Files\Microsoft Visual Studio\2022\Professional\VC\Tools\MSVC\14.44.35207\include\xtree

; 810  :     }

  001a2	c7 45 fc ff ff
	ff ff		 mov	 DWORD PTR __$EHRec$[ebp+8], -1
; File C:\Program Files\Microsoft Visual Studio\2022\Professional\VC\Tools\MSVC\14.44.35207\include\utility

; 774  :     _Val         = static_cast<_Other&&>(_New_val);

  001a9	c7 45 d8 00 00
	00 00		 mov	 DWORD PTR $T6[ebp+4], 0

; 303  :         : first(_STD forward<_Other1>(_Right.first)), second(_STD forward<_Other2>(_Right.second)) {}

  001b0	89 48 10	 mov	 DWORD PTR [eax+16], ecx
; File C:\Program Files\Microsoft Visual Studio\2022\Professional\VC\Tools\MSVC\14.44.35207\include\xtree

; 1042 :         return {_Scary->_Insert_node(_Loc._Location, _Inserted), true};

  001b3	8b 4d f0	 mov	 ecx, DWORD PTR _this$1$[ebp]
  001b6	50		 push	 eax
  001b7	ff 75 cc	 push	 DWORD PTR __Loc$5[ebp+4]
; File C:\Program Files\Microsoft Visual Studio\2022\Professional\VC\Tools\MSVC\14.44.35207\include\utility

; 303  :         : first(_STD forward<_Other1>(_Right.first)), second(_STD forward<_Other2>(_Right.second)) {}

  001ba	89 78 14	 mov	 DWORD PTR [eax+20], edi
; File C:\Program Files\Microsoft Visual Studio\2022\Professional\VC\Tools\MSVC\14.44.35207\include\xtree

; 1042 :         return {_Scary->_Insert_node(_Loc._Location, _Inserted), true};

  001bd	ff 75 c8	 push	 DWORD PTR __Loc$5[ebp]

; 831  :         _Construct_in_place(this->_Ptr->_Left, _Myhead);

  001c0	89 30		 mov	 DWORD PTR [eax], esi

; 1042 :         return {_Scary->_Insert_node(_Loc._Location, _Inserted), true};

  001c2	8d 49 04	 lea	 ecx, DWORD PTR [ecx+4]

; 832  :         _Construct_in_place(this->_Ptr->_Parent, _Myhead);

  001c5	89 70 04	 mov	 DWORD PTR [eax+4], esi

; 833  :         _Construct_in_place(this->_Ptr->_Right, _Myhead);

  001c8	89 70 08	 mov	 DWORD PTR [eax+8], esi

; 834  :         this->_Ptr->_Color = _Red;

  001cb	66 c7 40 0c 00
	00		 mov	 WORD PTR [eax+12], 0

; 1042 :         return {_Scary->_Insert_node(_Loc._Location, _Inserted), true};

  001d1	e8 00 00 00 00	 call	 ?_Insert_node@?$_Tree_val@U?$_Tree_simple_types@U?$pair@$$CBKPAVCGuildHouseBase@@@std@@@std@@@std@@QAEPAU?$_Tree_node@U?$pair@$$CBKPAVCGuildHouseBase@@@std@@PAX@2@U?$_Tree_id@PAU?$_Tree_node@U?$pair@$$CBKPAVCGuildHouseBase@@@std@@PAX@std@@@2@QAU32@@Z ; std::_Tree_val<std::_Tree_simple_types<std::pair<unsigned long const ,CGuildHouseBase *> > >::_Insert_node
; File C:\IAGOS\server\v18\Source\Source\_Common\GuildHouse.cpp

; 1172 : 				pGuildHouse->SerializeAllInfo( ar );

  001d6	53		 push	 ebx
  001d7	8b cf		 mov	 ecx, edi
  001d9	e8 00 00 00 00	 call	 ?SerializeAllInfo@CGuildHouseBase@@QAEXAAVCAr@@@Z ; CGuildHouseBase::SerializeAllInfo
  001de	8b 75 ec	 mov	 esi, DWORD PTR _i$1$[ebp]
  001e1	e9 6c ff ff ff	 jmp	 $LN5@Serialize
$LN200@Serialize:
; File C:\Program Files\Microsoft Visual Studio\2022\Professional\VC\Tools\MSVC\14.44.35207\include\xtree

; 1649 :             _Throw_tree_length_error();

  001e6	e8 00 00 00 00	 call	 ?_Throw_tree_length_error@std@@YAXXZ ; std::_Throw_tree_length_error
$LN214@Serialize:
  001eb	cc		 int	 3
_TEXT	ENDS
;	COMDAT text$x
text$x	SEGMENT
__unwindfunclet$?Serialize@CGuildHouseMng@@QAEXAAVCAr@@@Z$0:
  00000	8d 4d a0	 lea	 ecx, DWORD PTR _temp$3[ebp]
  00003	e9 00 00 00 00	 jmp	 ??1CGuildHouseSmall@@UAE@XZ ; CGuildHouseSmall::~CGuildHouseSmall
__unwindfunclet$?Serialize@CGuildHouseMng@@QAEXAAVCAr@@@Z$3:
  00008	8d 4d d4	 lea	 ecx, DWORD PTR $T6[ebp]
  0000b	e9 00 00 00 00	 jmp	 ??1?$_Alloc_construct_ptr@V?$allocator@U?$_Tree_node@U?$pair@$$CBKPAVCGuildHouseBase@@@std@@PAX@std@@@std@@@std@@QAE@XZ ; std::_Alloc_construct_ptr<std::allocator<std::_Tree_node<std::pair<unsigned long const ,CGuildHouseBase *>,void *> > >::~_Alloc_construct_ptr<std::allocator<std::_Tree_node<std::pair<unsigned long const ,CGuildHouseBase *>,void *> > >
  00010	cc		 int	 3
  00011	cc		 int	 3
  00012	cc		 int	 3
  00013	cc		 int	 3
  00014	cc		 int	 3
__ehhandler$?Serialize@CGuildHouseMng@@QAEXAAVCAr@@@Z:
  00015	90		 npad	 1
  00016	90		 npad	 1
  00017	8b 54 24 08	 mov	 edx, DWORD PTR [esp+8]
  0001b	8d 42 0c	 lea	 eax, DWORD PTR [edx+12]
  0001e	8b 4a 9c	 mov	 ecx, DWORD PTR [edx-100]
  00021	33 c8		 xor	 ecx, eax
  00023	e8 00 00 00 00	 call	 @__security_check_cookie@4
  00028	b8 00 00 00 00	 mov	 eax, OFFSET __ehfuncinfo$?Serialize@CGuildHouseMng@@QAEXAAVCAr@@@Z
  0002d	e9 00 00 00 00	 jmp	 ___CxxFrameHandler3
text$x	ENDS
?Serialize@CGuildHouseMng@@QAEXAAVCAr@@@Z ENDP		; CGuildHouseMng::Serialize
; Function compile flags: /Ogtp
; File C:\IAGOS\server\v18\Source\Source\_Common\GuildHouse.cpp
; File C:\Program Files\Microsoft Visual Studio\2022\Professional\VC\Tools\MSVC\14.44.35207\include\xtree
; File C:\IAGOS\server\v18\Source\Source\_Common\GuildHouse.cpp
; File C:\Program Files\Microsoft Visual Studio\2022\Professional\VC\Tools\MSVC\14.44.35207\include\xtree
; File C:\Program Files\Microsoft Visual Studio\2022\Professional\VC\Tools\MSVC\14.44.35207\include\type_traits
; File C:\Program Files\Microsoft Visual Studio\2022\Professional\VC\Tools\MSVC\14.44.35207\include\xtree
; File C:\IAGOS\server\v18\Source\Source\_Common\GuildHouse.cpp
;	COMDAT ?GetGuildHouse@CGuildHouseMng@@QAEPAVCGuildHouseBase@@K@Z
_TEXT	SEGMENT
__Loc$1 = -12						; size = 12
_dwGuildId$ = 8						; size = 4
?GetGuildHouse@CGuildHouseMng@@QAEPAVCGuildHouseBase@@K@Z PROC ; CGuildHouseMng::GetGuildHouse, COMDAT
; _this$ = ecx

; 1133 : {

  00000	55		 push	 ebp
  00001	8b ec		 mov	 ebp, esp
  00003	83 ec 0c	 sub	 esp, 12			; 0000000cH
  00006	56		 push	 esi
; File C:\Program Files\Microsoft Visual Studio\2022\Professional\VC\Tools\MSVC\14.44.35207\include\xtree

; 1384 :         const _Tree_find_result<_Nodeptr> _Loc = _Find_lower_bound(_Keyval);

  00007	8d 45 08	 lea	 eax, DWORD PTR _dwGuildId$[ebp]
  0000a	50		 push	 eax
; File C:\IAGOS\server\v18\Source\Source\_Common\GuildHouse.cpp

; 1134 : 	MapGuildHouse::iterator it = m_mapGuildHouse.find( dwGuildId );

  0000b	8d 71 04	 lea	 esi, DWORD PTR [ecx+4]
; File C:\Program Files\Microsoft Visual Studio\2022\Professional\VC\Tools\MSVC\14.44.35207\include\xtree

; 1384 :         const _Tree_find_result<_Nodeptr> _Loc = _Find_lower_bound(_Keyval);

  0000e	8d 45 f4	 lea	 eax, DWORD PTR __Loc$1[ebp]
  00011	8b ce		 mov	 ecx, esi
  00013	50		 push	 eax
  00014	e8 00 00 00 00	 call	 ??$_Find_lower_bound@K@?$_Tree@V?$_Tmap_traits@KPAVCGuildHouseBase@@U?$less@K@std@@V?$allocator@U?$pair@$$CBKPAVCGuildHouseBase@@@std@@@3@$0A@@std@@@std@@IBE?AU?$_Tree_find_result@PAU?$_Tree_node@U?$pair@$$CBKPAVCGuildHouseBase@@@std@@PAX@std@@@1@ABK@Z ; std::_Tree<std::_Tmap_traits<unsigned long,CGuildHouseBase *,std::less<unsigned long>,std::allocator<std::pair<unsigned long const ,CGuildHouseBase *> >,0> >::_Find_lower_bound<unsigned long>

; 1624 :         return !_Bound->_Isnil && !_DEBUG_LT_PRED(_Getcomp(), _Keyval, _Traits::_Kfn(_Bound->_Myval));

  00019	8b 45 fc	 mov	 eax, DWORD PTR __Loc$1[ebp+8]
  0001c	80 78 0d 00	 cmp	 BYTE PTR [eax+13], 0
  00020	75 16		 jne	 SHORT $LN50@GetGuildHo
; File C:\Program Files\Microsoft Visual Studio\2022\Professional\VC\Tools\MSVC\14.44.35207\include\type_traits

; 2380 :         return _Left < _Right;

  00022	8b 4d 08	 mov	 ecx, DWORD PTR _dwGuildId$[ebp]
  00025	3b 48 10	 cmp	 ecx, DWORD PTR [eax+16]
; File C:\Program Files\Microsoft Visual Studio\2022\Professional\VC\Tools\MSVC\14.44.35207\include\xtree

; 1624 :         return !_Bound->_Isnil && !_DEBUG_LT_PRED(_Getcomp(), _Keyval, _Traits::_Kfn(_Bound->_Myval));

  00028	72 0e		 jb	 SHORT $LN50@GetGuildHo

; 37   :     _Tree_unchecked_const_iterator(_Nodeptr _Pnode, const _Mytree* _Plist) noexcept : _Ptr(_Pnode) {

  0002a	3b 06		 cmp	 eax, DWORD PTR [esi]
; File C:\IAGOS\server\v18\Source\Source\_Common\GuildHouse.cpp

; 1135 : 	if( it == m_mapGuildHouse.end() )

  0002c	74 0a		 je	 SHORT $LN50@GetGuildHo

; 1137 : 
; 1138 : 	return it->second;

  0002e	8b 40 14	 mov	 eax, DWORD PTR [eax+20]
  00031	5e		 pop	 esi

; 1139 : }

  00032	8b e5		 mov	 esp, ebp
  00034	5d		 pop	 ebp
  00035	c2 04 00	 ret	 4
$LN50@GetGuildHo:

; 1136 : 		return NULL;

  00038	33 c0		 xor	 eax, eax
  0003a	5e		 pop	 esi

; 1139 : }

  0003b	8b e5		 mov	 esp, ebp
  0003d	5d		 pop	 ebp
  0003e	c2 04 00	 ret	 4
?GetGuildHouse@CGuildHouseMng@@QAEPAVCGuildHouseBase@@K@Z ENDP ; CGuildHouseMng::GetGuildHouse
_TEXT	ENDS
; Function compile flags: /Ogtp
; File C:\IAGOS\server\v18\Source\Source\_Common\GuildHouse.cpp
; File C:\Program Files\Microsoft Visual Studio\2022\Professional\VC\Tools\MSVC\14.44.35207\include\xtree
; File C:\IAGOS\server\v18\Source\Source\_Common\GuildHouse.cpp
; File C:\Program Files\Microsoft Visual Studio\2022\Professional\VC\Tools\MSVC\14.44.35207\include\xtree
; File C:\Program Files\Microsoft Visual Studio\2022\Professional\VC\Tools\MSVC\14.44.35207\include\type_traits
; File C:\Program Files\Microsoft Visual Studio\2022\Professional\VC\Tools\MSVC\14.44.35207\include\xtree
; File C:\IAGOS\server\v18\Source\Source\_Common\GuildHouse.cpp
; File C:\Program Files\Microsoft Visual Studio\2022\Professional\VC\Tools\MSVC\14.44.35207\include\xtree
; File C:\Program Files\Microsoft Visual Studio\2022\Professional\VC\Tools\MSVC\14.44.35207\include\xmemory
; File C:\IAGOS\server\v18\Source\Source\_Common\GuildHouse.cpp
;	COMDAT ?RemoveGuildHouse@CGuildHouseMng@@QAEHK@Z
_TEXT	SEGMENT
__Loc$1 = -12						; size = 12
_dwGuildId$ = 8						; size = 4
?RemoveGuildHouse@CGuildHouseMng@@QAEHK@Z PROC		; CGuildHouseMng::RemoveGuildHouse, COMDAT
; _this$ = ecx

; 1122 : {

  00000	55		 push	 ebp
  00001	8b ec		 mov	 ebp, esp
  00003	83 ec 0c	 sub	 esp, 12			; 0000000cH
  00006	56		 push	 esi
  00007	57		 push	 edi
; File C:\Program Files\Microsoft Visual Studio\2022\Professional\VC\Tools\MSVC\14.44.35207\include\xtree

; 1384 :         const _Tree_find_result<_Nodeptr> _Loc = _Find_lower_bound(_Keyval);

  00008	8d 45 08	 lea	 eax, DWORD PTR _dwGuildId$[ebp]
  0000b	50		 push	 eax
; File C:\IAGOS\server\v18\Source\Source\_Common\GuildHouse.cpp

; 1123 : 	MapGuildHouse::iterator it = m_mapGuildHouse.find( dwGuildId );

  0000c	8d 79 04	 lea	 edi, DWORD PTR [ecx+4]
; File C:\Program Files\Microsoft Visual Studio\2022\Professional\VC\Tools\MSVC\14.44.35207\include\xtree

; 1384 :         const _Tree_find_result<_Nodeptr> _Loc = _Find_lower_bound(_Keyval);

  0000f	8d 45 f4	 lea	 eax, DWORD PTR __Loc$1[ebp]
  00012	8b cf		 mov	 ecx, edi
  00014	50		 push	 eax
  00015	e8 00 00 00 00	 call	 ??$_Find_lower_bound@K@?$_Tree@V?$_Tmap_traits@KPAVCGuildHouseBase@@U?$less@K@std@@V?$allocator@U?$pair@$$CBKPAVCGuildHouseBase@@@std@@@3@$0A@@std@@@std@@IBE?AU?$_Tree_find_result@PAU?$_Tree_node@U?$pair@$$CBKPAVCGuildHouseBase@@@std@@PAX@std@@@1@ABK@Z ; std::_Tree<std::_Tmap_traits<unsigned long,CGuildHouseBase *,std::less<unsigned long>,std::allocator<std::pair<unsigned long const ,CGuildHouseBase *> >,0> >::_Find_lower_bound<unsigned long>

; 1624 :         return !_Bound->_Isnil && !_DEBUG_LT_PRED(_Getcomp(), _Keyval, _Traits::_Kfn(_Bound->_Myval));

  0001a	8b 75 fc	 mov	 esi, DWORD PTR __Loc$1[ebp+8]
  0001d	80 7e 0d 00	 cmp	 BYTE PTR [esi+13], 0
  00021	75 40		 jne	 SHORT $LN119@RemoveGuil
; File C:\Program Files\Microsoft Visual Studio\2022\Professional\VC\Tools\MSVC\14.44.35207\include\type_traits

; 2380 :         return _Left < _Right;

  00023	8b 45 08	 mov	 eax, DWORD PTR _dwGuildId$[ebp]
  00026	3b 46 10	 cmp	 eax, DWORD PTR [esi+16]
; File C:\Program Files\Microsoft Visual Studio\2022\Professional\VC\Tools\MSVC\14.44.35207\include\xtree

; 1624 :         return !_Bound->_Isnil && !_DEBUG_LT_PRED(_Getcomp(), _Keyval, _Traits::_Kfn(_Bound->_Myval));

  00029	72 38		 jb	 SHORT $LN119@RemoveGuil

; 37   :     _Tree_unchecked_const_iterator(_Nodeptr _Pnode, const _Mytree* _Plist) noexcept : _Ptr(_Pnode) {

  0002b	3b 37		 cmp	 esi, DWORD PTR [edi]
; File C:\IAGOS\server\v18\Source\Source\_Common\GuildHouse.cpp

; 1124 : 	if( it == m_mapGuildHouse.end() )

  0002d	74 34		 je	 SHORT $LN119@RemoveGuil

; 1126 : 	
; 1127 : 	SAFE_DELETE( it->second );

  0002f	8b 4e 14	 mov	 ecx, DWORD PTR [esi+20]
  00032	85 c9		 test	 ecx, ecx
  00034	74 0d		 je	 SHORT $LN3@RemoveGuil
  00036	8b 01		 mov	 eax, DWORD PTR [ecx]
  00038	6a 01		 push	 1
  0003a	ff 10		 call	 DWORD PTR [eax]
  0003c	c7 46 14 00 00
	00 00		 mov	 DWORD PTR [esi+20], 0
$LN3@RemoveGuil:
; File C:\Program Files\Microsoft Visual Studio\2022\Professional\VC\Tools\MSVC\14.44.35207\include\xtree

; 1303 :         _Nodeptr _Erasednode = _Scary->_Extract(_Where); // node to erase

  00043	56		 push	 esi
  00044	8b cf		 mov	 ecx, edi
  00046	e8 00 00 00 00	 call	 ?_Extract@?$_Tree_val@U?$_Tree_simple_types@U?$pair@$$CBKPAVCGuildHouseBase@@@std@@@std@@@std@@QAEPAU?$_Tree_node@U?$pair@$$CBKPAVCGuildHouseBase@@@std@@PAX@2@V?$_Tree_unchecked_const_iterator@V?$_Tree_val@U?$_Tree_simple_types@U?$pair@$$CBKPAVCGuildHouseBase@@@std@@@std@@@std@@U_Iterator_base0@2@@2@@Z ; std::_Tree_val<std::_Tree_simple_types<std::pair<unsigned long const ,CGuildHouseBase *> > >::_Extract
; File C:\Program Files\Microsoft Visual Studio\2022\Professional\VC\Tools\MSVC\14.44.35207\include\xmemory

; 289  :         ::operator delete(_Ptr, _Bytes);

  0004b	6a 18		 push	 24			; 00000018H
  0004d	50		 push	 eax
  0004e	e8 00 00 00 00	 call	 ??3@YAXPAXI@Z		; operator delete
  00053	83 c4 08	 add	 esp, 8
; File C:\IAGOS\server\v18\Source\Source\_Common\GuildHouse.cpp

; 1129 : 	return TRUE;

  00056	b8 01 00 00 00	 mov	 eax, 1
  0005b	5f		 pop	 edi

; 1130 : }

  0005c	5e		 pop	 esi
  0005d	8b e5		 mov	 esp, ebp
  0005f	5d		 pop	 ebp
  00060	c2 04 00	 ret	 4
$LN119@RemoveGuil:
  00063	5f		 pop	 edi

; 1125 : 		return FALSE;

  00064	33 c0		 xor	 eax, eax

; 1130 : }

  00066	5e		 pop	 esi
  00067	8b e5		 mov	 esp, ebp
  00069	5d		 pop	 ebp
  0006a	c2 04 00	 ret	 4
?RemoveGuildHouse@CGuildHouseMng@@QAEHK@Z ENDP		; CGuildHouseMng::RemoveGuildHouse
_TEXT	ENDS
; Function compile flags: /Ogtp
; File C:\IAGOS\server\v18\Source\Source\_Common\GuildHouse.cpp
;	COMDAT ?MakeGuildHouse@CGuildHouseMng@@QAEPAVCGuildHouseBase@@KK@Z
_TEXT	SEGMENT
_dwGuildId$ = 8						; size = 4
_dwWorldId$ = 12					; size = 4
$T1 = 12						; size = 4
$T2 = 12						; size = 4
?MakeGuildHouse@CGuildHouseMng@@QAEPAVCGuildHouseBase@@KK@Z PROC ; CGuildHouseMng::MakeGuildHouse, COMDAT
; _this$ = ecx

; 1110 : {

  00000	55		 push	 ebp
  00001	8b ec		 mov	 ebp, esp

; 1111 : 	switch( dwWorldId )

  00003	8b 45 0c	 mov	 eax, DWORD PTR _dwWorldId$[ebp]
  00006	2d d4 00 00 00	 sub	 eax, 212		; 000000d4H
  0000b	74 24		 je	 SHORT $LN4@MakeGuildH
  0000d	83 e8 01	 sub	 eax, 1
  00010	75 3e		 jne	 SHORT $LN7@MakeGuildH

; 1114 : 		case WI_GUILDHOUSE_MIDDLE:	return new CGuildHouseMiddle( dwGuildId );

  00012	6a 1c		 push	 28			; 0000001cH
  00014	e8 00 00 00 00	 call	 ??2@YAPAXI@Z		; operator new
  00019	83 c4 04	 add	 esp, 4
  0001c	89 45 0c	 mov	 DWORD PTR $T2[ebp], eax
  0001f	85 c0		 test	 eax, eax
  00021	74 2d		 je	 SHORT $LN7@MakeGuildH
  00023	ff 75 08	 push	 DWORD PTR _dwGuildId$[ebp]
  00026	8b c8		 mov	 ecx, eax
  00028	e8 00 00 00 00	 call	 ??0CGuildHouseMiddle@@QAE@K@Z ; CGuildHouseMiddle::CGuildHouseMiddle

; 1115 : //		case WI_GUILDHOUSE_LARGE:	return new CGuildHouseLarge( dwGuildId );	// 15Â÷ ÇöŔç - ľĆÁ÷ ÇĘżäÇĎÁö ľĘ´Ů.
; 1116 : 	}
; 1117 : 
; 1118 : 	return NULL;
; 1119 : }

  0002d	5d		 pop	 ebp
  0002e	c2 08 00	 ret	 8
$LN4@MakeGuildH:

; 1112 : 	{
; 1113 : 		case WI_GUILDHOUSE_SMALL:	return new CGuildHouseSmall( dwGuildId );

  00031	6a 1c		 push	 28			; 0000001cH
  00033	e8 00 00 00 00	 call	 ??2@YAPAXI@Z		; operator new
  00038	83 c4 04	 add	 esp, 4
  0003b	89 45 0c	 mov	 DWORD PTR $T1[ebp], eax
  0003e	85 c0		 test	 eax, eax
  00040	74 0e		 je	 SHORT $LN7@MakeGuildH
  00042	ff 75 08	 push	 DWORD PTR _dwGuildId$[ebp]
  00045	8b c8		 mov	 ecx, eax
  00047	e8 00 00 00 00	 call	 ??0CGuildHouseSmall@@QAE@K@Z ; CGuildHouseSmall::CGuildHouseSmall

; 1115 : //		case WI_GUILDHOUSE_LARGE:	return new CGuildHouseLarge( dwGuildId );	// 15Â÷ ÇöŔç - ľĆÁ÷ ÇĘżäÇĎÁö ľĘ´Ů.
; 1116 : 	}
; 1117 : 
; 1118 : 	return NULL;
; 1119 : }

  0004c	5d		 pop	 ebp
  0004d	c2 08 00	 ret	 8
$LN7@MakeGuildH:
  00050	33 c0		 xor	 eax, eax
  00052	5d		 pop	 ebp
  00053	c2 08 00	 ret	 8
?MakeGuildHouse@CGuildHouseMng@@QAEPAVCGuildHouseBase@@KK@Z ENDP ; CGuildHouseMng::MakeGuildHouse
_TEXT	ENDS
; Function compile flags: /Ogtp
; File C:\IAGOS\server\v18\Source\Source\_Common\GuildHouse.cpp
;	COMDAT ?GetInstance@CGuildHouseMng@@SAPAV1@XZ
_TEXT	SEGMENT
__$EHRec$ = -12						; size = 12
?GetInstance@CGuildHouseMng@@SAPAV1@XZ PROC		; CGuildHouseMng::GetInstance, COMDAT

; 1104 : {

  00000	55		 push	 ebp
  00001	8b ec		 mov	 ebp, esp
  00003	6a ff		 push	 -1
  00005	68 00 00 00 00	 push	 __ehhandler$?GetInstance@CGuildHouseMng@@SAPAV1@XZ
  0000a	64 a1 00 00 00
	00		 mov	 eax, DWORD PTR fs:0
  00010	50		 push	 eax
  00011	a1 00 00 00 00	 mov	 eax, DWORD PTR ___security_cookie
  00016	33 c5		 xor	 eax, ebp
  00018	50		 push	 eax
  00019	8d 45 f4	 lea	 eax, DWORD PTR __$EHRec$[ebp]
  0001c	64 a3 00 00 00
	00		 mov	 DWORD PTR fs:0, eax

; 1105 : 	static CGuildHouseMng sGHM;

  00022	64 a1 00 00 00
	00		 mov	 eax, DWORD PTR fs:__tls_array
  00028	8b 0d 00 00 00
	00		 mov	 ecx, DWORD PTR __tls_index
  0002e	8b 0c 88	 mov	 ecx, DWORD PTR [eax+ecx*4]
  00031	a1 00 00 00 00	 mov	 eax, DWORD PTR ?$TSS0@?1??GetInstance@CGuildHouseMng@@SAPAV2@XZ@4HA
  00036	3b 81 00 00 00
	00		 cmp	 eax, DWORD PTR __Init_thread_epoch[ecx]
  0003c	7f 14		 jg	 SHORT $LN9@GetInstanc
$LN5@GetInstanc:

; 1106 : 	return & sGHM;
; 1107 : }

  0003e	b8 00 00 00 00	 mov	 eax, OFFSET ?sGHM@?1??GetInstance@CGuildHouseMng@@SAPAV2@XZ@4V2@A
  00043	8b 4d f4	 mov	 ecx, DWORD PTR __$EHRec$[ebp]
  00046	64 89 0d 00 00
	00 00		 mov	 DWORD PTR fs:0, ecx
  0004d	59		 pop	 ecx
  0004e	8b e5		 mov	 esp, ebp
  00050	5d		 pop	 ebp
  00051	c3		 ret	 0
$LN9@GetInstanc:

; 1105 : 	static CGuildHouseMng sGHM;

  00052	68 00 00 00 00	 push	 OFFSET ?$TSS0@?1??GetInstance@CGuildHouseMng@@SAPAV2@XZ@4HA
  00057	e8 00 00 00 00	 call	 __Init_thread_header
  0005c	83 c4 04	 add	 esp, 4
  0005f	83 3d 00 00 00
	00 ff		 cmp	 DWORD PTR ?$TSS0@?1??GetInstance@CGuildHouseMng@@SAPAV2@XZ@4HA, -1
  00066	75 d6		 jne	 SHORT $LN5@GetInstanc
  00068	b9 00 00 00 00	 mov	 ecx, OFFSET ?sGHM@?1??GetInstance@CGuildHouseMng@@SAPAV2@XZ@4V2@A
  0006d	c7 45 fc 00 00
	00 00		 mov	 DWORD PTR __$EHRec$[ebp+8], 0
  00074	e8 00 00 00 00	 call	 ??0CGuildHouseMng@@QAE@XZ ; CGuildHouseMng::CGuildHouseMng
  00079	68 00 00 00 00	 push	 OFFSET ??__FsGHM@?1??GetInstance@CGuildHouseMng@@SAPAV1@XZ@YAXXZ ; `CGuildHouseMng::GetInstance'::`2'::`dynamic atexit destructor for 'sGHM''
  0007e	e8 00 00 00 00	 call	 _atexit
  00083	68 00 00 00 00	 push	 OFFSET ?$TSS0@?1??GetInstance@CGuildHouseMng@@SAPAV2@XZ@4HA
  00088	e8 00 00 00 00	 call	 __Init_thread_footer
  0008d	83 c4 08	 add	 esp, 8
  00090	eb ac		 jmp	 SHORT $LN5@GetInstanc
_TEXT	ENDS
;	COMDAT text$x
text$x	SEGMENT
__unwindfunclet$?GetInstance@CGuildHouseMng@@SAPAV1@XZ$0:
  00000	68 00 00 00 00	 push	 OFFSET ?$TSS0@?1??GetInstance@CGuildHouseMng@@SAPAV2@XZ@4HA
  00005	e8 00 00 00 00	 call	 __Init_thread_abort
  0000a	59		 pop	 ecx
  0000b	c3		 ret	 0
  0000c	cc		 int	 3
  0000d	cc		 int	 3
  0000e	cc		 int	 3
  0000f	cc		 int	 3
  00010	cc		 int	 3
__ehhandler$?GetInstance@CGuildHouseMng@@SAPAV1@XZ:
  00011	90		 npad	 1
  00012	90		 npad	 1
  00013	8b 54 24 08	 mov	 edx, DWORD PTR [esp+8]
  00017	8d 42 0c	 lea	 eax, DWORD PTR [edx+12]
  0001a	8b 4a fc	 mov	 ecx, DWORD PTR [edx-4]
  0001d	33 c8		 xor	 ecx, eax
  0001f	e8 00 00 00 00	 call	 @__security_check_cookie@4
  00024	b8 00 00 00 00	 mov	 eax, OFFSET __ehfuncinfo$?GetInstance@CGuildHouseMng@@SAPAV1@XZ
  00029	e9 00 00 00 00	 jmp	 ___CxxFrameHandler3
text$x	ENDS
?GetInstance@CGuildHouseMng@@SAPAV1@XZ ENDP		; CGuildHouseMng::GetInstance
; Function compile flags: /Ogtp
; File C:\IAGOS\server\v18\Source\Source\_Common\GuildHouse.cpp
; File C:\Program Files\Microsoft Visual Studio\2022\Professional\VC\Tools\MSVC\14.44.35207\include\xtree
; File C:\IAGOS\server\v18\Source\Source\_Common\GuildHouse.cpp
; File C:\Program Files\Microsoft Visual Studio\2022\Professional\VC\Tools\MSVC\14.44.35207\include\xtree
; File C:\IAGOS\server\v18\Source\Source\_Common\GuildHouse.cpp
;	COMDAT ??1CGuildHouseMng@@QAE@XZ
_TEXT	SEGMENT
_it$1 = -4						; size = 4
??1CGuildHouseMng@@QAE@XZ PROC				; CGuildHouseMng::~CGuildHouseMng, COMDAT
; _this$ = ecx

; 1092 : {

  00000	55		 push	 ebp
  00001	8b ec		 mov	 ebp, esp
  00003	51		 push	 ecx
  00004	56		 push	 esi
; File C:\Program Files\Microsoft Visual Studio\2022\Professional\VC\Tools\MSVC\14.44.35207\include\xtree

; 1142 :         return iterator(_Scary->_Myhead->_Left, _Scary);

  00005	8d 71 04	 lea	 esi, DWORD PTR [ecx+4]
  00008	8b 0e		 mov	 ecx, DWORD PTR [esi]

; 37   :     _Tree_unchecked_const_iterator(_Nodeptr _Pnode, const _Mytree* _Plist) noexcept : _Ptr(_Pnode) {

  0000a	8b 01		 mov	 eax, DWORD PTR [ecx]
  0000c	89 45 fc	 mov	 DWORD PTR _it$1[ebp], eax

; 237  :         return !(*this == _Right);

  0000f	3b c1		 cmp	 eax, ecx
; File C:\IAGOS\server\v18\Source\Source\_Common\GuildHouse.cpp

; 1093 : 	for( MapGuildHouse::iterator it=m_mapGuildHouse.begin(); it!=m_mapGuildHouse.end(); it++ )

  00011	74 1c		 je	 SHORT $LN3@CGuildHous
$LL4@CGuildHous:

; 1094 : 		delete it->second;

  00013	8b 48 14	 mov	 ecx, DWORD PTR [eax+20]
  00016	85 c9		 test	 ecx, ecx
  00018	74 06		 je	 SHORT $LN2@CGuildHous
  0001a	8b 01		 mov	 eax, DWORD PTR [ecx]
  0001c	6a 01		 push	 1
  0001e	ff 10		 call	 DWORD PTR [eax]
$LN2@CGuildHous:
; File C:\Program Files\Microsoft Visual Studio\2022\Professional\VC\Tools\MSVC\14.44.35207\include\xtree

; 198  :         _Mybase::operator++();

  00020	8d 4d fc	 lea	 ecx, DWORD PTR _it$1[ebp]
  00023	e8 00 00 00 00	 call	 ??E?$_Tree_unchecked_const_iterator@V?$_Tree_val@U?$_Tree_simple_types@U?$pair@$$CBKPAVCGuildHouseBase@@@std@@@std@@@std@@U_Iterator_base0@2@@std@@QAEAAV01@XZ ; std::_Tree_unchecked_const_iterator<std::_Tree_val<std::_Tree_simple_types<std::pair<unsigned long const ,CGuildHouseBase *> > >,std::_Iterator_base0>::operator++

; 237  :         return !(*this == _Right);

  00028	8b 45 fc	 mov	 eax, DWORD PTR _it$1[ebp]
  0002b	3b 06		 cmp	 eax, DWORD PTR [esi]
; File C:\IAGOS\server\v18\Source\Source\_Common\GuildHouse.cpp

; 1093 : 	for( MapGuildHouse::iterator it=m_mapGuildHouse.begin(); it!=m_mapGuildHouse.end(); it++ )

  0002d	75 e4		 jne	 SHORT $LL4@CGuildHous
$LN3@CGuildHous:

; 1095 : 	m_mapGuildHouse.clear();

  0002f	8b ce		 mov	 ecx, esi
  00031	e8 00 00 00 00	 call	 ?clear@?$_Tree@V?$_Tmap_traits@KPAVCGuildHouseBase@@U?$less@K@std@@V?$allocator@U?$pair@$$CBKPAVCGuildHouseBase@@@std@@@3@$0A@@std@@@std@@QAEXXZ ; std::_Tree<std::_Tmap_traits<unsigned long,CGuildHouseBase *,std::less<unsigned long>,std::allocator<std::pair<unsigned long const ,CGuildHouseBase *> >,0> >::clear
  00036	8b ce		 mov	 ecx, esi
  00038	e8 00 00 00 00	 call	 ??1?$_Tree@V?$_Tmap_traits@KPAVCGuildHouseBase@@U?$less@K@std@@V?$allocator@U?$pair@$$CBKPAVCGuildHouseBase@@@std@@@3@$0A@@std@@@std@@QAE@XZ ; std::_Tree<std::_Tmap_traits<unsigned long,CGuildHouseBase *,std::less<unsigned long>,std::allocator<std::pair<unsigned long const ,CGuildHouseBase *> >,0> >::~_Tree<std::_Tmap_traits<unsigned long,CGuildHouseBase *,std::less<unsigned long>,std::allocator<std::pair<unsigned long const ,CGuildHouseBase *> >,0> >
  0003d	5e		 pop	 esi

; 1096 : #ifdef __GUILD_HOUSE_MIDDLE
; 1097 : 	m_mapTenderData.clear();
; 1098 : 	m_mapGHData.clear();
; 1099 : 	m_mapTenderGuild.clear();
; 1100 : #endif // __GUILD_HOUSE_MIDDLE
; 1101 : }

  0003e	8b e5		 mov	 esp, ebp
  00040	5d		 pop	 ebp
  00041	c3		 ret	 0
??1CGuildHouseMng@@QAE@XZ ENDP				; CGuildHouseMng::~CGuildHouseMng
_TEXT	ENDS
; Function compile flags: /Ogtp
; File C:\IAGOS\server\v18\Source\Source\_Common\GuildHouse.cpp
; File C:\Program Files\Microsoft Visual Studio\2022\Professional\VC\Tools\MSVC\14.44.35207\include\xmemory
; File C:\IAGOS\server\v18\Source\Source\_Common\GuildHouse.cpp
; File C:\Program Files\Microsoft Visual Studio\2022\Professional\VC\Tools\MSVC\14.44.35207\include\xtree
; File C:\Program Files\Microsoft Visual Studio\2022\Professional\VC\Tools\MSVC\14.44.35207\include\xmemory
; File C:\Program Files\Microsoft Visual Studio\2022\Professional\VC\Tools\MSVC\14.44.35207\include\xtree
; File C:\IAGOS\server\v18\Source\Source\_Common\GuildHouse.cpp
;	COMDAT ??0CGuildHouseMng@@QAE@XZ
_TEXT	SEGMENT
_this$ = -4						; size = 4
_this$ = -4						; size = 4
??0CGuildHouseMng@@QAE@XZ PROC				; CGuildHouseMng::CGuildHouseMng, COMDAT
; _this$ = ecx

; 1088 : {

  00000	55		 push	 ebp
  00001	8b ec		 mov	 ebp, esp
  00003	51		 push	 ecx
  00004	56		 push	 esi
  00005	57		 push	 edi
  00006	8b f9		 mov	 edi, ecx
  00008	8d 77 04	 lea	 esi, DWORD PTR [edi+4]
  0000b	89 7d fc	 mov	 DWORD PTR _this$[ebp], edi
; File C:\Program Files\Microsoft Visual Studio\2022\Professional\VC\Tools\MSVC\14.44.35207\include\xmemory

; 136  :         return ::operator new(_Bytes);

  0000e	6a 18		 push	 24			; 00000018H
; File C:\IAGOS\server\v18\Source\Source\_Common\GuildHouse.cpp

; 1088 : {

  00010	89 75 fc	 mov	 DWORD PTR _this$[ebp], esi
  00013	c7 07 00 00 00
	00		 mov	 DWORD PTR [edi], 0
; File C:\Program Files\Microsoft Visual Studio\2022\Professional\VC\Tools\MSVC\14.44.35207\include\xtree

; 450  :     _Tree_val() noexcept : _Myhead(), _Mysize(0) {}

  00019	c7 06 00 00 00
	00		 mov	 DWORD PTR [esi], 0
  0001f	c7 46 04 00 00
	00 00		 mov	 DWORD PTR [esi+4], 0
; File C:\Program Files\Microsoft Visual Studio\2022\Professional\VC\Tools\MSVC\14.44.35207\include\xmemory

; 136  :         return ::operator new(_Bytes);

  00026	e8 00 00 00 00	 call	 ??2@YAPAXI@Z		; operator new
  0002b	83 c4 04	 add	 esp, 4
; File C:\Program Files\Microsoft Visual Studio\2022\Professional\VC\Tools\MSVC\14.44.35207\include\xtree

; 346  :         _Construct_in_place(_Pnode->_Left, _Pnode);

  0002e	89 00		 mov	 DWORD PTR [eax], eax

; 347  :         _Construct_in_place(_Pnode->_Parent, _Pnode);

  00030	89 40 04	 mov	 DWORD PTR [eax+4], eax

; 348  :         _Construct_in_place(_Pnode->_Right, _Pnode);

  00033	89 40 08	 mov	 DWORD PTR [eax+8], eax

; 349  :         _Pnode->_Color = _Black;

  00036	66 c7 40 0c 01
	01		 mov	 WORD PTR [eax+12], 257	; 00000101H

; 1957 :         _Scary->_Myhead = _Node::_Buyheadnode(_Getal());

  0003c	89 06		 mov	 DWORD PTR [esi], eax
; File C:\IAGOS\server\v18\Source\Source\_Common\GuildHouse.cpp

; 1089 : }

  0003e	8b c7		 mov	 eax, edi
  00040	5f		 pop	 edi
  00041	5e		 pop	 esi
  00042	8b e5		 mov	 esp, ebp
  00044	5d		 pop	 ebp
  00045	c3		 ret	 0
??0CGuildHouseMng@@QAE@XZ ENDP				; CGuildHouseMng::CGuildHouseMng
_TEXT	ENDS
; Function compile flags: /Ogtp
;	COMDAT ??_GCGuildHouseMiddle@@UAEPAXI@Z
_TEXT	SEGMENT
___flags$ = 8						; size = 4
??_GCGuildHouseMiddle@@UAEPAXI@Z PROC			; CGuildHouseMiddle::`scalar deleting destructor', COMDAT
; _this$ = ecx
  00000	55		 push	 ebp
  00001	8b ec		 mov	 ebp, esp
  00003	56		 push	 esi
  00004	8b f1		 mov	 esi, ecx
  00006	e8 00 00 00 00	 call	 ??1CGuildHouseMiddle@@UAE@XZ ; CGuildHouseMiddle::~CGuildHouseMiddle
  0000b	f6 45 08 01	 test	 BYTE PTR ___flags$[ebp], 1
  0000f	74 0b		 je	 SHORT $LN5@scalar
  00011	6a 1c		 push	 28			; 0000001cH
  00013	56		 push	 esi
  00014	e8 00 00 00 00	 call	 ??3@YAXPAXI@Z		; operator delete
  00019	83 c4 08	 add	 esp, 8
$LN5@scalar:
  0001c	8b c6		 mov	 eax, esi
  0001e	5e		 pop	 esi
  0001f	5d		 pop	 ebp
  00020	c2 04 00	 ret	 4
??_GCGuildHouseMiddle@@UAEPAXI@Z ENDP			; CGuildHouseMiddle::`scalar deleting destructor'
_TEXT	ENDS
; Function compile flags: /Ogtp
; File C:\IAGOS\server\v18\Source\Source\_Common\GuildHouse.h
; File C:\IAGOS\server\v18\Source\Source\DX_SDK\d3dx9math.inl
; File C:\IAGOS\server\v18\Source\Source\_Common\GuildHouse.h
;	COMDAT ?GetTeleporterPos@CGuildHouseMiddle@@UAE?AUD3DXVECTOR3@@XZ
_TEXT	SEGMENT
___$ReturnUdt$ = 8					; size = 4
?GetTeleporterPos@CGuildHouseMiddle@@UAE?AUD3DXVECTOR3@@XZ PROC ; CGuildHouseMiddle::GetTeleporterPos, COMDAT
; _this$ = ecx

; 240  : 	virtual D3DXVECTOR3 GetTeleporterPos()	{ return D3DXVECTOR3( 250.0f, 100.0f, 250.0f ); }

  00000	55		 push	 ebp
  00001	8b ec		 mov	 ebp, esp
; File C:\IAGOS\server\v18\Source\Source\DX_SDK\d3dx9math.inl

; 300  :     x = fx;

  00003	8b 45 08	 mov	 eax, DWORD PTR ___$ReturnUdt$[ebp]
  00006	c7 00 00 00 7a
	43		 mov	 DWORD PTR [eax], 1132068864 ; 437a0000H

; 301  :     y = fy;

  0000c	c7 40 04 00 00
	c8 42		 mov	 DWORD PTR [eax+4], 1120403456 ; 42c80000H

; 302  :     z = fz;

  00013	c7 40 08 00 00
	7a 43		 mov	 DWORD PTR [eax+8], 1132068864 ; 437a0000H
; File C:\IAGOS\server\v18\Source\Source\_Common\GuildHouse.h

; 240  : 	virtual D3DXVECTOR3 GetTeleporterPos()	{ return D3DXVECTOR3( 250.0f, 100.0f, 250.0f ); }

  0001a	5d		 pop	 ebp
  0001b	c2 04 00	 ret	 4
?GetTeleporterPos@CGuildHouseMiddle@@UAE?AUD3DXVECTOR3@@XZ ENDP ; CGuildHouseMiddle::GetTeleporterPos
_TEXT	ENDS
; Function compile flags: /Ogtp
; File C:\IAGOS\server\v18\Source\Source\_Common\GuildHouse.cpp
;	COMDAT ??1CGuildHouseMiddle@@UAE@XZ
_TEXT	SEGMENT
??1CGuildHouseMiddle@@UAE@XZ PROC			; CGuildHouseMiddle::~CGuildHouseMiddle, COMDAT
; _this$ = ecx

; 1059 : {

  00000	c7 01 00 00 00
	00		 mov	 DWORD PTR [ecx], OFFSET ??_7CGuildHouseMiddle@@6B@

; 1060 : }

  00006	e9 00 00 00 00	 jmp	 ??1CGuildHouseBase@@UAE@XZ ; CGuildHouseBase::~CGuildHouseBase
??1CGuildHouseMiddle@@UAE@XZ ENDP			; CGuildHouseMiddle::~CGuildHouseMiddle
_TEXT	ENDS
; Function compile flags: /Ogtp
; File C:\IAGOS\server\v18\Source\Source\_Common\GuildHouse.cpp
;	COMDAT ??0CGuildHouseMiddle@@QAE@K@Z
_TEXT	SEGMENT
_this$ = -4						; size = 4
_dwGuildId$ = 8						; size = 4
??0CGuildHouseMiddle@@QAE@K@Z PROC			; CGuildHouseMiddle::CGuildHouseMiddle, COMDAT
; _this$ = ecx

; 1055 : {

  00000	55		 push	 ebp
  00001	8b ec		 mov	 ebp, esp
  00003	51		 push	 ecx
  00004	56		 push	 esi
  00005	68 d5 00 00 00	 push	 213			; 000000d5H
  0000a	ff 75 08	 push	 DWORD PTR _dwGuildId$[ebp]
  0000d	8b f1		 mov	 esi, ecx
  0000f	89 75 fc	 mov	 DWORD PTR _this$[ebp], esi
  00012	e8 00 00 00 00	 call	 ??0CGuildHouseBase@@QAE@KK@Z ; CGuildHouseBase::CGuildHouseBase
  00017	c7 06 00 00 00
	00		 mov	 DWORD PTR [esi], OFFSET ??_7CGuildHouseMiddle@@6B@

; 1056 : }

  0001d	8b c6		 mov	 eax, esi
  0001f	5e		 pop	 esi
  00020	8b e5		 mov	 esp, ebp
  00022	5d		 pop	 ebp
  00023	c2 04 00	 ret	 4
??0CGuildHouseMiddle@@QAE@K@Z ENDP			; CGuildHouseMiddle::CGuildHouseMiddle
_TEXT	ENDS
; Function compile flags: /Ogtp
;	COMDAT ??_GCGuildHouseSmall@@UAEPAXI@Z
_TEXT	SEGMENT
___flags$ = 8						; size = 4
??_GCGuildHouseSmall@@UAEPAXI@Z PROC			; CGuildHouseSmall::`scalar deleting destructor', COMDAT
; _this$ = ecx
  00000	55		 push	 ebp
  00001	8b ec		 mov	 ebp, esp
  00003	56		 push	 esi
  00004	8b f1		 mov	 esi, ecx
  00006	e8 00 00 00 00	 call	 ??1CGuildHouseSmall@@UAE@XZ ; CGuildHouseSmall::~CGuildHouseSmall
  0000b	f6 45 08 01	 test	 BYTE PTR ___flags$[ebp], 1
  0000f	74 0b		 je	 SHORT $LN5@scalar
  00011	6a 1c		 push	 28			; 0000001cH
  00013	56		 push	 esi
  00014	e8 00 00 00 00	 call	 ??3@YAXPAXI@Z		; operator delete
  00019	83 c4 08	 add	 esp, 8
$LN5@scalar:
  0001c	8b c6		 mov	 eax, esi
  0001e	5e		 pop	 esi
  0001f	5d		 pop	 ebp
  00020	c2 04 00	 ret	 4
??_GCGuildHouseSmall@@UAEPAXI@Z ENDP			; CGuildHouseSmall::`scalar deleting destructor'
_TEXT	ENDS
; Function compile flags: /Ogtp
; File C:\IAGOS\server\v18\Source\Source\_Common\GuildHouse.h
; File C:\IAGOS\server\v18\Source\Source\DX_SDK\d3dx9math.inl
; File C:\IAGOS\server\v18\Source\Source\_Common\GuildHouse.h
;	COMDAT ?GetTeleporterPos@CGuildHouseSmall@@UAE?AUD3DXVECTOR3@@XZ
_TEXT	SEGMENT
___$ReturnUdt$ = 8					; size = 4
?GetTeleporterPos@CGuildHouseSmall@@UAE?AUD3DXVECTOR3@@XZ PROC ; CGuildHouseSmall::GetTeleporterPos, COMDAT
; _this$ = ecx

; 212  : 	virtual D3DXVECTOR3 GetTeleporterPos()	{ return D3DXVECTOR3( 80.0f, 100.0f, 75.0f ); }

  00000	55		 push	 ebp
  00001	8b ec		 mov	 ebp, esp
; File C:\IAGOS\server\v18\Source\Source\DX_SDK\d3dx9math.inl

; 300  :     x = fx;

  00003	8b 45 08	 mov	 eax, DWORD PTR ___$ReturnUdt$[ebp]
  00006	c7 00 00 00 a0
	42		 mov	 DWORD PTR [eax], 1117782016 ; 42a00000H

; 301  :     y = fy;

  0000c	c7 40 04 00 00
	c8 42		 mov	 DWORD PTR [eax+4], 1120403456 ; 42c80000H

; 302  :     z = fz;

  00013	c7 40 08 00 00
	96 42		 mov	 DWORD PTR [eax+8], 1117126656 ; 42960000H
; File C:\IAGOS\server\v18\Source\Source\_Common\GuildHouse.h

; 212  : 	virtual D3DXVECTOR3 GetTeleporterPos()	{ return D3DXVECTOR3( 80.0f, 100.0f, 75.0f ); }

  0001a	5d		 pop	 ebp
  0001b	c2 04 00	 ret	 4
?GetTeleporterPos@CGuildHouseSmall@@UAE?AUD3DXVECTOR3@@XZ ENDP ; CGuildHouseSmall::GetTeleporterPos
_TEXT	ENDS
; Function compile flags: /Ogtp
; File C:\IAGOS\server\v18\Source\Source\_Common\GuildHouse.cpp
;	COMDAT ??1CGuildHouseSmall@@UAE@XZ
_TEXT	SEGMENT
??1CGuildHouseSmall@@UAE@XZ PROC			; CGuildHouseSmall::~CGuildHouseSmall, COMDAT
; _this$ = ecx

; 996  : {

  00000	c7 01 00 00 00
	00		 mov	 DWORD PTR [ecx], OFFSET ??_7CGuildHouseSmall@@6B@

; 997  : }

  00006	e9 00 00 00 00	 jmp	 ??1CGuildHouseBase@@UAE@XZ ; CGuildHouseBase::~CGuildHouseBase
??1CGuildHouseSmall@@UAE@XZ ENDP			; CGuildHouseSmall::~CGuildHouseSmall
_TEXT	ENDS
; Function compile flags: /Ogtp
; File C:\IAGOS\server\v18\Source\Source\_Common\GuildHouse.cpp
;	COMDAT ??0CGuildHouseSmall@@QAE@K@Z
_TEXT	SEGMENT
_this$ = -4						; size = 4
_dwGuildId$ = 8						; size = 4
??0CGuildHouseSmall@@QAE@K@Z PROC			; CGuildHouseSmall::CGuildHouseSmall, COMDAT
; _this$ = ecx

; 992  : {

  00000	55		 push	 ebp
  00001	8b ec		 mov	 ebp, esp
  00003	51		 push	 ecx
  00004	56		 push	 esi
  00005	68 d4 00 00 00	 push	 212			; 000000d4H
  0000a	ff 75 08	 push	 DWORD PTR _dwGuildId$[ebp]
  0000d	8b f1		 mov	 esi, ecx
  0000f	89 75 fc	 mov	 DWORD PTR _this$[ebp], esi
  00012	e8 00 00 00 00	 call	 ??0CGuildHouseBase@@QAE@KK@Z ; CGuildHouseBase::CGuildHouseBase
  00017	c7 06 00 00 00
	00		 mov	 DWORD PTR [esi], OFFSET ??_7CGuildHouseSmall@@6B@

; 993  : }

  0001d	8b c6		 mov	 eax, esi
  0001f	5e		 pop	 esi
  00020	8b e5		 mov	 esp, ebp
  00022	5d		 pop	 ebp
  00023	c2 04 00	 ret	 4
??0CGuildHouseSmall@@QAE@K@Z ENDP			; CGuildHouseSmall::CGuildHouseSmall
_TEXT	ENDS
; Function compile flags: /Ogtp
;	COMDAT ??_GCGuildHouseBase@@UAEPAXI@Z
_TEXT	SEGMENT
___flags$ = 8						; size = 4
??_GCGuildHouseBase@@UAEPAXI@Z PROC			; CGuildHouseBase::`scalar deleting destructor', COMDAT
; _this$ = ecx
  00000	55		 push	 ebp
  00001	8b ec		 mov	 ebp, esp
  00003	56		 push	 esi
  00004	8b f1		 mov	 esi, ecx
  00006	e8 00 00 00 00	 call	 ??1CGuildHouseBase@@UAE@XZ ; CGuildHouseBase::~CGuildHouseBase
  0000b	f6 45 08 01	 test	 BYTE PTR ___flags$[ebp], 1
  0000f	74 0b		 je	 SHORT $LN5@scalar
  00011	6a 1c		 push	 28			; 0000001cH
  00013	56		 push	 esi
  00014	e8 00 00 00 00	 call	 ??3@YAXPAXI@Z		; operator delete
  00019	83 c4 08	 add	 esp, 8
$LN5@scalar:
  0001c	8b c6		 mov	 eax, esi
  0001e	5e		 pop	 esi
  0001f	5d		 pop	 ebp
  00020	c2 04 00	 ret	 4
??_GCGuildHouseBase@@UAEPAXI@Z ENDP			; CGuildHouseBase::`scalar deleting destructor'
_TEXT	ENDS
; Function compile flags: /Ogtp
; File C:\IAGOS\server\v18\Source\Source\_Common\GuildHouse.cpp
; File C:\Program Files\Microsoft Visual Studio\2022\Professional\VC\Tools\MSVC\14.44.35207\include\vector
; File C:\IAGOS\server\v18\Source\Source\_Common\GuildHouse.cpp
; File C:\Program Files\Microsoft Visual Studio\2022\Professional\VC\Tools\MSVC\14.44.35207\include\vector
; File C:\IAGOS\server\v18\Source\Source\_Common\GuildHouse.cpp
; File C:\Program Files\Microsoft Visual Studio\2022\Professional\VC\Tools\MSVC\14.44.35207\include\vector
; File C:\IAGOS\server\v18\Source\Source\_Common\GuildHouse.cpp
; File C:\Program Files\Microsoft Visual Studio\2022\Professional\VC\Tools\MSVC\14.44.35207\include\vector
; File C:\IAGOS\server\v18\Source\Source\_Common\GuildHouse.cpp
; File C:\Program Files\Microsoft Visual Studio\2022\Professional\VC\Tools\MSVC\14.44.35207\include\vector
; File C:\IAGOS\server\v18\Source\Source\_Common\GuildHouse.cpp
; File C:\Program Files (x86)\Windows Kits\10\Include\10.0.26100.0\ucrt\time.h
; File C:\IAGOS\server\v18\Source\Source\_Common\GuildHouse.cpp
; File C:\Program Files\Microsoft Visual Studio\2022\Professional\VC\Tools\MSVC\14.44.35207\include\vector
; File C:\IAGOS\server\v18\Source\Source\_Common\GuildHouse.cpp
; File C:\Program Files\Microsoft Visual Studio\2022\Professional\VC\Tools\MSVC\14.44.35207\include\vector
; File C:\IAGOS\server\v18\Source\Source\_Common\GuildHouse.cpp
; File C:\Program Files\Microsoft Visual Studio\2022\Professional\VC\Tools\MSVC\14.44.35207\include\vector
; File C:\IAGOS\server\v18\Source\Source\_Common\GuildHouse.cpp
;	COMDAT ?GetFirstExpiredFurnitureIndex@CGuildHouseBase@@QAEHXZ
_TEXT	SEGMENT
_this$1$ = -4						; size = 4
?GetFirstExpiredFurnitureIndex@CGuildHouseBase@@QAEHXZ PROC ; CGuildHouseBase::GetFirstExpiredFurnitureIndex, COMDAT
; _this$ = ecx

; 707  : {

  00000	55		 push	 ebp
  00001	8b ec		 mov	 ebp, esp
  00003	51		 push	 ecx
; File C:\Program Files\Microsoft Visual Studio\2022\Professional\VC\Tools\MSVC\14.44.35207\include\vector

; 1915 :         return static_cast<size_type>(_My_data._Mylast - _My_data._Myfirst);

  00004	8b 51 10	 mov	 edx, DWORD PTR [ecx+16]
  00007	b8 39 8e e3 38	 mov	 eax, 954437177		; 38e38e39H
; File C:\IAGOS\server\v18\Source\Source\_Common\GuildHouse.cpp

; 707  : {

  0000c	53		 push	 ebx
  0000d	56		 push	 esi
  0000e	57		 push	 edi
; File C:\Program Files\Microsoft Visual Studio\2022\Professional\VC\Tools\MSVC\14.44.35207\include\vector

; 1915 :         return static_cast<size_type>(_My_data._Mylast - _My_data._Myfirst);

  0000f	8b 79 0c	 mov	 edi, DWORD PTR [ecx+12]
; File C:\IAGOS\server\v18\Source\Source\_Common\GuildHouse.cpp

; 708  : 	for( int i=0; i<(int)( m_vecFntInfo.size() ); i++ )

  00012	33 db		 xor	 ebx, ebx
; File C:\Program Files\Microsoft Visual Studio\2022\Professional\VC\Tools\MSVC\14.44.35207\include\vector

; 1915 :         return static_cast<size_type>(_My_data._Mylast - _My_data._Myfirst);

  00014	2b d7		 sub	 edx, edi
; File C:\IAGOS\server\v18\Source\Source\_Common\GuildHouse.cpp

; 707  : {

  00016	89 4d fc	 mov	 DWORD PTR _this$1$[ebp], ecx
; File C:\Program Files\Microsoft Visual Studio\2022\Professional\VC\Tools\MSVC\14.44.35207\include\vector

; 1915 :         return static_cast<size_type>(_My_data._Mylast - _My_data._Myfirst);

  00019	f7 ea		 imul	 edx
  0001b	c1 fa 03	 sar	 edx, 3
  0001e	8b c2		 mov	 eax, edx
  00020	c1 e8 1f	 shr	 eax, 31			; 0000001fH
  00023	03 c2		 add	 eax, edx
; File C:\IAGOS\server\v18\Source\Source\_Common\GuildHouse.cpp

; 708  : 	for( int i=0; i<(int)( m_vecFntInfo.size() ); i++ )

  00025	85 c0		 test	 eax, eax
  00027	7e 50		 jle	 SHORT $LN23@GetFirstEx
; File C:\Program Files\Microsoft Visual Studio\2022\Professional\VC\Tools\MSVC\14.44.35207\include\vector

; 1914 :         auto& _My_data = _Mypair._Myval2;

  00029	33 f6		 xor	 esi, esi
  0002b	0f 1f 44 00 00	 npad	 5
$LL4@GetFirstEx:
; File C:\IAGOS\server\v18\Source\Source\_Common\GuildHouse.cpp

; 710  : 		if( m_vecFntInfo[i].tKeepTime != 0 && m_vecFntInfo[i].tKeepTime <= time_null() )

  00030	83 7c 3e 1c 00	 cmp	 DWORD PTR [esi+edi+28], 0
  00035	74 13		 je	 SHORT $LN2@GetFirstEx
; File C:\Program Files (x86)\Windows Kits\10\Include\10.0.26100.0\ucrt\time.h

; 428  :             return _time32(_Time);

  00037	6a 00		 push	 0
  00039	e8 00 00 00 00	 call	 __time32
  0003e	83 c4 04	 add	 esp, 4
; File C:\IAGOS\server\v18\Source\Source\_Common\GuildHouse.cpp

; 710  : 		if( m_vecFntInfo[i].tKeepTime != 0 && m_vecFntInfo[i].tKeepTime <= time_null() )

  00041	39 44 3e 1c	 cmp	 DWORD PTR [esi+edi+28], eax
  00045	7e 29		 jle	 SHORT $LN21@GetFirstEx
  00047	8b 4d fc	 mov	 ecx, DWORD PTR _this$1$[ebp]
$LN2@GetFirstEx:
; File C:\Program Files\Microsoft Visual Studio\2022\Professional\VC\Tools\MSVC\14.44.35207\include\vector

; 1915 :         return static_cast<size_type>(_My_data._Mylast - _My_data._Myfirst);

  0004a	8b 79 0c	 mov	 edi, DWORD PTR [ecx+12]
  0004d	b8 39 8e e3 38	 mov	 eax, 954437177		; 38e38e39H
  00052	8b 49 10	 mov	 ecx, DWORD PTR [ecx+16]
; File C:\IAGOS\server\v18\Source\Source\_Common\GuildHouse.cpp

; 708  : 	for( int i=0; i<(int)( m_vecFntInfo.size() ); i++ )

  00055	43		 inc	 ebx
; File C:\Program Files\Microsoft Visual Studio\2022\Professional\VC\Tools\MSVC\14.44.35207\include\vector

; 1915 :         return static_cast<size_type>(_My_data._Mylast - _My_data._Myfirst);

  00056	2b cf		 sub	 ecx, edi
; File C:\IAGOS\server\v18\Source\Source\_Common\GuildHouse.cpp

; 708  : 	for( int i=0; i<(int)( m_vecFntInfo.size() ); i++ )

  00058	83 c6 24	 add	 esi, 36			; 00000024H
; File C:\Program Files\Microsoft Visual Studio\2022\Professional\VC\Tools\MSVC\14.44.35207\include\vector

; 1915 :         return static_cast<size_type>(_My_data._Mylast - _My_data._Myfirst);

  0005b	f7 e9		 imul	 ecx
  0005d	c1 fa 03	 sar	 edx, 3
  00060	8b c2		 mov	 eax, edx
  00062	c1 e8 1f	 shr	 eax, 31			; 0000001fH
  00065	03 c2		 add	 eax, edx
; File C:\IAGOS\server\v18\Source\Source\_Common\GuildHouse.cpp

; 708  : 	for( int i=0; i<(int)( m_vecFntInfo.size() ); i++ )

  00067	3b d8		 cmp	 ebx, eax
  00069	7d 0e		 jge	 SHORT $LN23@GetFirstEx
  0006b	8b 4d fc	 mov	 ecx, DWORD PTR _this$1$[ebp]
  0006e	eb c0		 jmp	 SHORT $LL4@GetFirstEx
$LN21@GetFirstEx:
  00070	5f		 pop	 edi

; 711  : 			return i;
; 712  : 	}
; 713  : 
; 714  : 	return NULL_ID;
; 715  : }

  00071	5e		 pop	 esi
  00072	8b c3		 mov	 eax, ebx
  00074	5b		 pop	 ebx
  00075	8b e5		 mov	 esp, ebp
  00077	5d		 pop	 ebp
  00078	c3		 ret	 0
$LN23@GetFirstEx:
  00079	5f		 pop	 edi
  0007a	5e		 pop	 esi
  0007b	83 c8 ff	 or	 eax, -1
  0007e	5b		 pop	 ebx
  0007f	8b e5		 mov	 esp, ebp
  00081	5d		 pop	 ebp
  00082	c3		 ret	 0
?GetFirstExpiredFurnitureIndex@CGuildHouseBase@@QAEHXZ ENDP ; CGuildHouseBase::GetFirstExpiredFurnitureIndex
_TEXT	ENDS
; Function compile flags: /Ogtp
; File C:\IAGOS\server\v18\Source\Source\_Common\GuildHouse.cpp
; File C:\Program Files\Microsoft Visual Studio\2022\Professional\VC\Tools\MSVC\14.44.35207\include\vector
; File C:\IAGOS\server\v18\Source\Source\_Common\GuildHouse.cpp
; File C:\Program Files\Microsoft Visual Studio\2022\Professional\VC\Tools\MSVC\14.44.35207\include\vector
; File C:\IAGOS\server\v18\Source\Source\_Common\GuildHouse.cpp
; File C:\Program Files\Microsoft Visual Studio\2022\Professional\VC\Tools\MSVC\14.44.35207\include\vector
; File C:\Program Files\Microsoft Visual Studio\2022\Professional\VC\Tools\MSVC\14.44.35207\include\xutility
; File C:\Program Files\Microsoft Visual Studio\2022\Professional\VC\Tools\MSVC\14.44.35207\include\vector
; File C:\Program Files\Microsoft Visual Studio\2022\Professional\VC\Tools\MSVC\14.44.35207\include\xutility
; File C:\IAGOS\server\v18\Source\Source\_Common\GuildHouse.cpp
; File C:\Program Files\Microsoft Visual Studio\2022\Professional\VC\Tools\MSVC\14.44.35207\include\vector
; File C:\IAGOS\server\v18\Source\Source\_Common\GuildHouse.cpp
;	COMDAT ?ListDropFurniture@CGuildHouseBase@@AAEHH@Z
_TEXT	SEGMENT
_nIndex$ = 8						; size = 4
?ListDropFurniture@CGuildHouseBase@@AAEHH@Z PROC	; CGuildHouseBase::ListDropFurniture, COMDAT
; _this$ = ecx

; 839  : {

  00000	55		 push	 ebp
  00001	8b ec		 mov	 ebp, esp
  00003	56		 push	 esi
  00004	8b f1		 mov	 esi, ecx
; File C:\Program Files\Microsoft Visual Studio\2022\Professional\VC\Tools\MSVC\14.44.35207\include\vector

; 1915 :         return static_cast<size_type>(_My_data._Mylast - _My_data._Myfirst);

  00006	b8 39 8e e3 38	 mov	 eax, 954437177		; 38e38e39H
; File C:\IAGOS\server\v18\Source\Source\_Common\GuildHouse.cpp

; 840  : 	if( (int)( m_vecFntInfo.size() ) <= nIndex )

  0000b	8b 4d 08	 mov	 ecx, DWORD PTR _nIndex$[ebp]
  0000e	57		 push	 edi
; File C:\Program Files\Microsoft Visual Studio\2022\Professional\VC\Tools\MSVC\14.44.35207\include\vector

; 1915 :         return static_cast<size_type>(_My_data._Mylast - _My_data._Myfirst);

  0000f	8b 56 10	 mov	 edx, DWORD PTR [esi+16]
  00012	8b 7e 0c	 mov	 edi, DWORD PTR [esi+12]
  00015	2b d7		 sub	 edx, edi
  00017	f7 ea		 imul	 edx
  00019	c1 fa 03	 sar	 edx, 3
  0001c	8b c2		 mov	 eax, edx
  0001e	c1 e8 1f	 shr	 eax, 31			; 0000001fH
  00021	03 c2		 add	 eax, edx
; File C:\IAGOS\server\v18\Source\Source\_Common\GuildHouse.cpp

; 840  : 	if( (int)( m_vecFntInfo.size() ) <= nIndex )

  00023	3b c1		 cmp	 eax, ecx
  00025	7f 08		 jg	 SHORT $LN2@ListDropFu

; 841  : 		return FALSE;

  00027	5f		 pop	 edi
  00028	33 c0		 xor	 eax, eax

; 850  : }

  0002a	5e		 pop	 esi
  0002b	5d		 pop	 ebp
  0002c	c2 04 00	 ret	 4
$LN2@ListDropFu:
; File C:\Program Files\Microsoft Visual Studio\2022\Professional\VC\Tools\MSVC\14.44.35207\include\vector

; 129  :         _Ptr += _Off;

  0002f	8d 04 c9	 lea	 eax, DWORD PTR [ecx+ecx*8]
  00032	8d 04 87	 lea	 eax, DWORD PTR [edi+eax*4]
; File C:\Program Files\Microsoft Visual Studio\2022\Professional\VC\Tools\MSVC\14.44.35207\include\xutility

; 5147 :                 return _STD _Copy_memmove(_First, _Last, _Dest);

  00035	50		 push	 eax
  00036	ff 76 10	 push	 DWORD PTR [esi+16]
; File C:\Program Files\Microsoft Visual Studio\2022\Professional\VC\Tools\MSVC\14.44.35207\include\vector

; 1775 :         _STD _Move_unchecked(_Whereptr + 1, _Mylast, _Whereptr);

  00039	83 c0 24	 add	 eax, 36			; 00000024H
; File C:\Program Files\Microsoft Visual Studio\2022\Professional\VC\Tools\MSVC\14.44.35207\include\xutility

; 5147 :                 return _STD _Copy_memmove(_First, _Last, _Dest);

  0003c	50		 push	 eax
  0003d	e8 00 00 00 00	 call	 ??$_Copy_memmove@PAUGuildHouse_Furniture_Info@CGuildHouseBase@@PAU12@@std@@YAPAUGuildHouse_Furniture_Info@CGuildHouseBase@@PAU12@00@Z ; std::_Copy_memmove<CGuildHouseBase::GuildHouse_Furniture_Info *,CGuildHouseBase::GuildHouse_Furniture_Info *>
  00042	83 c4 0c	 add	 esp, 12			; 0000000cH
; File C:\IAGOS\server\v18\Source\Source\_Common\GuildHouse.cpp

; 849  : 	return TRUE;

  00045	b8 01 00 00 00	 mov	 eax, 1
; File C:\Program Files\Microsoft Visual Studio\2022\Professional\VC\Tools\MSVC\14.44.35207\include\vector

; 1778 :         --_Mylast;

  0004a	83 46 10 dc	 add	 DWORD PTR [esi+16], -36	; ffffffdcH
  0004e	5f		 pop	 edi
; File C:\IAGOS\server\v18\Source\Source\_Common\GuildHouse.cpp

; 850  : }

  0004f	5e		 pop	 esi
  00050	5d		 pop	 ebp
  00051	c2 04 00	 ret	 4
?ListDropFurniture@CGuildHouseBase@@AAEHH@Z ENDP	; CGuildHouseBase::ListDropFurniture
_TEXT	ENDS
; Function compile flags: /Ogtp
; File C:\IAGOS\server\v18\Source\Source\_Common\GuildHouse.cpp
; File C:\Program Files\Microsoft Visual Studio\2022\Professional\VC\Tools\MSVC\14.44.35207\include\vector
; File C:\IAGOS\server\v18\Source\Source\_Common\GuildHouse.cpp
; File C:\Program Files\Microsoft Visual Studio\2022\Professional\VC\Tools\MSVC\14.44.35207\include\vector
; File C:\Program Files\Microsoft Visual Studio\2022\Professional\VC\Tools\MSVC\14.44.35207\include\xutility
; File C:\IAGOS\server\v18\Source\Source\_Common\GuildHouse.cpp
; File C:\Program Files\Microsoft Visual Studio\2022\Professional\VC\Tools\MSVC\14.44.35207\include\vector
; File C:\IAGOS\server\v18\Source\Source\_Common\GuildHouse.cpp
; File C:\Program Files\Microsoft Visual Studio\2022\Professional\VC\Tools\MSVC\14.44.35207\include\vector
; File C:\IAGOS\server\v18\Source\Source\_Common\GuildHouse.cpp
;	COMDAT ?ListUpFurniture@CGuildHouseBase@@AAEHAAUGuildHouse_Furniture_Info@1@@Z
_TEXT	SEGMENT
_gfi$ = 8						; size = 4
?ListUpFurniture@CGuildHouseBase@@AAEHAAUGuildHouse_Furniture_Info@1@@Z PROC ; CGuildHouseBase::ListUpFurniture, COMDAT
; _this$ = ecx

; 830  : {

  00000	55		 push	 ebp
  00001	8b ec		 mov	 ebp, esp
; File C:\Program Files\Microsoft Visual Studio\2022\Professional\VC\Tools\MSVC\14.44.35207\include\vector

; 844  :         if (_Mylast != _My_data._Myend) {

  00003	8b 51 10	 mov	 edx, DWORD PTR [ecx+16]
; File C:\IAGOS\server\v18\Source\Source\_Common\GuildHouse.cpp

; 831  : 	m_vecFntInfo.push_back( gfi );

  00006	83 c1 0c	 add	 ecx, 12			; 0000000cH
; File C:\Program Files\Microsoft Visual Studio\2022\Professional\VC\Tools\MSVC\14.44.35207\include\vector

; 844  :         if (_Mylast != _My_data._Myend) {

  00009	3b 51 08	 cmp	 edx, DWORD PTR [ecx+8]
  0000c	74 24		 je	 SHORT $LN6@ListUpFurn
; File C:\Program Files\Microsoft Visual Studio\2022\Professional\VC\Tools\MSVC\14.44.35207\include\xutility

; 476  :         ::new (static_cast<void*>(_STD addressof(_Obj))) _Ty(_STD forward<_Types>(_Args)...);

  0000e	8b 45 08	 mov	 eax, DWORD PTR _gfi$[ebp]
  00011	0f 10 00	 movups	 xmm0, XMMWORD PTR [eax]
  00014	0f 11 02	 movups	 XMMWORD PTR [edx], xmm0
  00017	0f 10 40 10	 movups	 xmm0, XMMWORD PTR [eax+16]
  0001b	0f 11 42 10	 movups	 XMMWORD PTR [edx+16], xmm0
  0001f	8b 40 20	 mov	 eax, DWORD PTR [eax+32]
  00022	89 42 20	 mov	 DWORD PTR [edx+32], eax
; File C:\IAGOS\server\v18\Source\Source\_Common\GuildHouse.cpp

; 836  : }

  00025	b8 01 00 00 00	 mov	 eax, 1
; File C:\Program Files\Microsoft Visual Studio\2022\Professional\VC\Tools\MSVC\14.44.35207\include\vector

; 869  :         ++_Mylast;

  0002a	83 41 04 24	 add	 DWORD PTR [ecx+4], 36	; 00000024H
; File C:\IAGOS\server\v18\Source\Source\_Common\GuildHouse.cpp

; 836  : }

  0002e	5d		 pop	 ebp
  0002f	c2 04 00	 ret	 4
$LN6@ListUpFurn:
; File C:\Program Files\Microsoft Visual Studio\2022\Professional\VC\Tools\MSVC\14.44.35207\include\vector

; 848  :         return *_Emplace_reallocate(_Mylast, _STD forward<_Valty>(_Val)...);

  00032	ff 75 08	 push	 DWORD PTR _gfi$[ebp]
  00035	52		 push	 edx
  00036	e8 00 00 00 00	 call	 ??$_Emplace_reallocate@ABUGuildHouse_Furniture_Info@CGuildHouseBase@@@?$vector@UGuildHouse_Furniture_Info@CGuildHouseBase@@V?$allocator@UGuildHouse_Furniture_Info@CGuildHouseBase@@@std@@@std@@AAEPAUGuildHouse_Furniture_Info@CGuildHouseBase@@QAU23@ABU23@@Z ; std::vector<CGuildHouseBase::GuildHouse_Furniture_Info,std::allocator<CGuildHouseBase::GuildHouse_Furniture_Info> >::_Emplace_reallocate<CGuildHouseBase::GuildHouse_Furniture_Info const &>
; File C:\IAGOS\server\v18\Source\Source\_Common\GuildHouse.cpp

; 836  : }

  0003b	b8 01 00 00 00	 mov	 eax, 1
  00040	5d		 pop	 ebp
  00041	c2 04 00	 ret	 4
?ListUpFurniture@CGuildHouseBase@@AAEHAAUGuildHouse_Furniture_Info@1@@Z ENDP ; CGuildHouseBase::ListUpFurniture
_TEXT	ENDS
; Function compile flags: /Ogtp
; File C:\IAGOS\server\v18\Source\Source\_Common\GuildHouse.cpp
; File C:\Program Files\Microsoft Visual Studio\2022\Professional\VC\Tools\MSVC\14.44.35207\include\vector
; File C:\IAGOS\server\v18\Source\Source\_Common\GuildHouse.cpp
; File C:\Program Files\Microsoft Visual Studio\2022\Professional\VC\Tools\MSVC\14.44.35207\include\vector
; File C:\IAGOS\server\v18\Source\Source\_Common\GuildHouse.cpp
; File C:\Program Files\Microsoft Visual Studio\2022\Professional\VC\Tools\MSVC\14.44.35207\include\vector
; File C:\IAGOS\server\v18\Source\Source\_Common\GuildHouse.cpp
; File C:\IAGOS\server\v18\Source\Source\_Common\Data.h
; File C:\IAGOS\server\v18\Source\Source\_Common\GuildHouse.cpp
;	COMDAT ?ResetFurnitureCtrl@CGuildHouseBase@@AAEHHAAUGuildHouse_Furniture_Info@1@@Z
_TEXT	SEGMENT
_nIndex$ = 8						; size = 4
_gfi$ = 12						; size = 4
?ResetFurnitureCtrl@CGuildHouseBase@@AAEHHAAUGuildHouse_Furniture_Info@1@@Z PROC ; CGuildHouseBase::ResetFurnitureCtrl, COMDAT
; _this$ = ecx

; 922  : {

  00000	55		 push	 ebp
  00001	8b ec		 mov	 ebp, esp
  00003	56		 push	 esi
; File C:\Program Files\Microsoft Visual Studio\2022\Professional\VC\Tools\MSVC\14.44.35207\include\vector

; 1915 :         return static_cast<size_type>(_My_data._Mylast - _My_data._Myfirst);

  00004	8b 71 0c	 mov	 esi, DWORD PTR [ecx+12]
  00007	b8 39 8e e3 38	 mov	 eax, 954437177		; 38e38e39H
  0000c	8b 49 10	 mov	 ecx, DWORD PTR [ecx+16]
  0000f	2b ce		 sub	 ecx, esi
  00011	f7 e9		 imul	 ecx
; File C:\IAGOS\server\v18\Source\Source\_Common\GuildHouse.cpp

; 923  : 	if( (int)( m_vecFntInfo.size() ) <= nIndex || m_vecFntInfo[nIndex].dwItemId != gfi.dwItemId )	return FALSE;

  00013	8b 4d 08	 mov	 ecx, DWORD PTR _nIndex$[ebp]
; File C:\Program Files\Microsoft Visual Studio\2022\Professional\VC\Tools\MSVC\14.44.35207\include\vector

; 1915 :         return static_cast<size_type>(_My_data._Mylast - _My_data._Myfirst);

  00016	c1 fa 03	 sar	 edx, 3
  00019	8b c2		 mov	 eax, edx
  0001b	c1 e8 1f	 shr	 eax, 31			; 0000001fH
  0001e	03 c2		 add	 eax, edx
; File C:\IAGOS\server\v18\Source\Source\_Common\GuildHouse.cpp

; 923  : 	if( (int)( m_vecFntInfo.size() ) <= nIndex || m_vecFntInfo[nIndex].dwItemId != gfi.dwItemId )	return FALSE;

  00020	3b c1		 cmp	 eax, ecx
  00022	7e 4a		 jle	 SHORT $LN3@ResetFurni
  00024	8b 55 0c	 mov	 edx, DWORD PTR _gfi$[ebp]
; File C:\Program Files\Microsoft Visual Studio\2022\Professional\VC\Tools\MSVC\14.44.35207\include\vector

; 1934 :         return _My_data._Myfirst[_Pos];

  00027	8d 04 c9	 lea	 eax, DWORD PTR [ecx+ecx*8]
; File C:\IAGOS\server\v18\Source\Source\_Common\GuildHouse.cpp

; 923  : 	if( (int)( m_vecFntInfo.size() ) <= nIndex || m_vecFntInfo[nIndex].dwItemId != gfi.dwItemId )	return FALSE;

  0002a	8d 0c 86	 lea	 ecx, DWORD PTR [esi+eax*4]
  0002d	8b 32		 mov	 esi, DWORD PTR [edx]
  0002f	39 31		 cmp	 DWORD PTR [ecx], esi
  00031	75 3b		 jne	 SHORT $LN3@ResetFurni
; File C:\IAGOS\server\v18\Source\Source\_Common\Data.h

; 270  : 	if( dwIndex >= (DWORD)m_nMaxIndex )

  00033	3b 35 4c 00 00
	00		 cmp	 esi, DWORD PTR ?prj@@3VCProject@@A+76
  00039	73 33		 jae	 SHORT $LN3@ResetFurni

; 271  : 		return NULL;
; 272  : 	return (T*) m_apOffset[ dwIndex ];

  0003b	a1 3c 00 00 00	 mov	 eax, DWORD PTR ?prj@@3VCProject@@A+60
  00040	8b 04 b0	 mov	 eax, DWORD PTR [eax+esi*4]
; File C:\IAGOS\server\v18\Source\Source\_Common\GuildHouse.cpp

; 925  : 	if( !pItemProp )	return FALSE;

  00043	85 c0		 test	 eax, eax
  00045	74 27		 je	 SHORT $LN3@ResetFurni

; 926  : 	if( pItemProp->dwItemKind3 == IK3_TELEPORTER )	return FALSE;

  00047	81 78 78 8c 00
	00 00		 cmp	 DWORD PTR [eax+120], 140 ; 0000008cH
  0004e	74 1e		 je	 SHORT $LN3@ResetFurni

; 927  : 
; 928  : #ifdef __WORLDSERVER
; 929  : 	CWorld* pWorld = g_WorldMng.GetWorld( m_dwWorldId );
; 930  : 	if( pWorld && pWorld->m_linkMap.GetLinkMap( static_cast<int>( m_dwGuildId ) ) )
; 931  : 	{
; 932  : 		// ŔĎ´Ü ¸ŐŔú ŔçąčÄˇÇŇ °ˇ±¸¸¦ »čÁ¦ÇŃ´Ů.
; 933  : 		CCtrl* pCtrl	= prj.GetCtrl( m_vecFntInfo[nIndex].objId );
; 934  : 		if( pCtrl )
; 935  : 		{
; 936  : 			pCtrl->Delete();	// »čÁ¦
; 937  : 			// ±×¸®°í ´Ů˝Ă »ýĽş!!!
; 938  : 			pCtrl = (CCtrl*)CreateObj( D3DDEVICE, OT_CTRL, pItemProp->dwLinkKind );
; 939  : 			if( pCtrl )
; 940  : 			{
; 941  : 				pCtrl->SetPos( gfi.vPos );
; 942  : 				pCtrl->SetAngle( gfi.fAngle );
; 943  : 				pCtrl->AddItToGlobalId();
; 944  : 				gfi.objId = pCtrl->GetId();
; 945  : 				pWorld->ADDOBJ( pCtrl, FALSE, static_cast<int>( m_dwGuildId ) );
; 946  : 			}
; 947  : 		}
; 948  : 	}
; 949  : #endif // __WORLDSERVER
; 950  : 	m_vecFntInfo[nIndex] = gfi;

  00050	0f 10 02	 movups	 xmm0, XMMWORD PTR [edx]
  00053	5e		 pop	 esi
  00054	0f 11 01	 movups	 XMMWORD PTR [ecx], xmm0
  00057	0f 10 42 10	 movups	 xmm0, XMMWORD PTR [edx+16]
  0005b	0f 11 41 10	 movups	 XMMWORD PTR [ecx+16], xmm0
  0005f	8b 42 20	 mov	 eax, DWORD PTR [edx+32]
  00062	89 41 20	 mov	 DWORD PTR [ecx+32], eax

; 951  : 	return TRUE;	

  00065	b8 01 00 00 00	 mov	 eax, 1

; 952  : }

  0006a	5d		 pop	 ebp
  0006b	c2 08 00	 ret	 8
$LN3@ResetFurni:

; 923  : 	if( (int)( m_vecFntInfo.size() ) <= nIndex || m_vecFntInfo[nIndex].dwItemId != gfi.dwItemId )	return FALSE;

  0006e	33 c0		 xor	 eax, eax
  00070	5e		 pop	 esi

; 952  : }

  00071	5d		 pop	 ebp
  00072	c2 08 00	 ret	 8
?ResetFurnitureCtrl@CGuildHouseBase@@AAEHHAAUGuildHouse_Furniture_Info@1@@Z ENDP ; CGuildHouseBase::ResetFurnitureCtrl
_TEXT	ENDS
; Function compile flags: /Ogtp
; File C:\IAGOS\server\v18\Source\Source\_Common\GuildHouse.cpp
; File C:\Program Files\Microsoft Visual Studio\2022\Professional\VC\Tools\MSVC\14.44.35207\include\vector
; File C:\IAGOS\server\v18\Source\Source\_Common\GuildHouse.cpp
; File C:\Program Files\Microsoft Visual Studio\2022\Professional\VC\Tools\MSVC\14.44.35207\include\vector
; File C:\IAGOS\server\v18\Source\Source\_Common\GuildHouse.cpp
; File C:\Program Files\Microsoft Visual Studio\2022\Professional\VC\Tools\MSVC\14.44.35207\include\vector
; File C:\IAGOS\server\v18\Source\Source\_Common\GuildHouse.cpp
; File C:\IAGOS\server\v18\Source\Source\_Common\Data.h
; File C:\IAGOS\server\v18\Source\Source\_Common\GuildHouse.cpp
;	COMDAT ?RemoveFurnitureCtrl@CGuildHouseBase@@AAEHHAAUGuildHouse_Furniture_Info@1@@Z
_TEXT	SEGMENT
_nIndex$ = 8						; size = 4
_gfi$ = 12						; size = 4
?RemoveFurnitureCtrl@CGuildHouseBase@@AAEHHAAUGuildHouse_Furniture_Info@1@@Z PROC ; CGuildHouseBase::RemoveFurnitureCtrl, COMDAT
; _this$ = ecx

; 899  : {

  00000	55		 push	 ebp
  00001	8b ec		 mov	 ebp, esp
  00003	56		 push	 esi
; File C:\Program Files\Microsoft Visual Studio\2022\Professional\VC\Tools\MSVC\14.44.35207\include\vector

; 1915 :         return static_cast<size_type>(_My_data._Mylast - _My_data._Myfirst);

  00004	8b 71 0c	 mov	 esi, DWORD PTR [ecx+12]
  00007	b8 39 8e e3 38	 mov	 eax, 954437177		; 38e38e39H
  0000c	8b 49 10	 mov	 ecx, DWORD PTR [ecx+16]
  0000f	2b ce		 sub	 ecx, esi
  00011	f7 e9		 imul	 ecx
; File C:\IAGOS\server\v18\Source\Source\_Common\GuildHouse.cpp

; 900  : 	if( (int)( m_vecFntInfo.size() ) <= nIndex || m_vecFntInfo[nIndex].dwItemId != gfi.dwItemId )	return FALSE;

  00013	8b 4d 08	 mov	 ecx, DWORD PTR _nIndex$[ebp]
; File C:\Program Files\Microsoft Visual Studio\2022\Professional\VC\Tools\MSVC\14.44.35207\include\vector

; 1915 :         return static_cast<size_type>(_My_data._Mylast - _My_data._Myfirst);

  00016	c1 fa 03	 sar	 edx, 3
  00019	8b c2		 mov	 eax, edx
  0001b	c1 e8 1f	 shr	 eax, 31			; 0000001fH
  0001e	03 c2		 add	 eax, edx
; File C:\IAGOS\server\v18\Source\Source\_Common\GuildHouse.cpp

; 900  : 	if( (int)( m_vecFntInfo.size() ) <= nIndex || m_vecFntInfo[nIndex].dwItemId != gfi.dwItemId )	return FALSE;

  00020	3b c1		 cmp	 eax, ecx
  00022	7e 40		 jle	 SHORT $LN3@RemoveFurn
  00024	8b 55 0c	 mov	 edx, DWORD PTR _gfi$[ebp]
; File C:\Program Files\Microsoft Visual Studio\2022\Professional\VC\Tools\MSVC\14.44.35207\include\vector

; 1934 :         return _My_data._Myfirst[_Pos];

  00027	8d 04 c9	 lea	 eax, DWORD PTR [ecx+ecx*8]
; File C:\IAGOS\server\v18\Source\Source\_Common\GuildHouse.cpp

; 900  : 	if( (int)( m_vecFntInfo.size() ) <= nIndex || m_vecFntInfo[nIndex].dwItemId != gfi.dwItemId )	return FALSE;

  0002a	8d 0c 86	 lea	 ecx, DWORD PTR [esi+eax*4]
  0002d	8b 31		 mov	 esi, DWORD PTR [ecx]
  0002f	3b 32		 cmp	 esi, DWORD PTR [edx]
  00031	75 31		 jne	 SHORT $LN3@RemoveFurn
; File C:\IAGOS\server\v18\Source\Source\_Common\Data.h

; 270  : 	if( dwIndex >= (DWORD)m_nMaxIndex )

  00033	3b 35 4c 00 00
	00		 cmp	 esi, DWORD PTR ?prj@@3VCProject@@A+76
  00039	73 29		 jae	 SHORT $LN3@RemoveFurn

; 271  : 		return NULL;
; 272  : 	return (T*) m_apOffset[ dwIndex ];

  0003b	a1 3c 00 00 00	 mov	 eax, DWORD PTR ?prj@@3VCProject@@A+60
; File C:\IAGOS\server\v18\Source\Source\_Common\GuildHouse.cpp

; 902  : 	if( !pItemProp )	return FALSE;

  00040	83 3c b0 00	 cmp	 DWORD PTR [eax+esi*4], 0
  00044	74 1e		 je	 SHORT $LN3@RemoveFurn

; 903  : 
; 904  : #ifdef __WORLDSERVER
; 905  : 	CWorld* pWorld = g_WorldMng.GetWorld( m_dwWorldId );
; 906  : 	if( pWorld && pWorld->m_linkMap.GetLinkMap( static_cast<int>( m_dwGuildId ) ) )
; 907  : 	{
; 908  : 		// °ˇ±¸ ÄÁĆ®·ŃŔ» ĂŁľĆĽ­ »čÁ¦
; 909  : 		CCtrl* pCtrl = prj.GetCtrl( m_vecFntInfo[nIndex].objId );
; 910  : 		if( pCtrl )
; 911  : 			pCtrl->Delete();
; 912  : 	}
; 913  : 	
; 914  : 	if( m_vecFntInfo[nIndex].bSetup )	// ÇöŔç ĽłÄˇµÇľî ŔÖ´ř°Ĺ¸¸ ´É·ÂÄˇ ÇŘÁ¦
; 915  : 		ResetDSTFunriture( pItemProp );	// °ˇ±¸ ´É·ÂÄˇ ÇŘÁ¦
; 916  : #endif // __WORLDSERVER
; 917  : 	m_vecFntInfo[nIndex] = gfi;

  00046	0f 10 02	 movups	 xmm0, XMMWORD PTR [edx]
  00049	5e		 pop	 esi
  0004a	0f 11 01	 movups	 XMMWORD PTR [ecx], xmm0
  0004d	0f 10 42 10	 movups	 xmm0, XMMWORD PTR [edx+16]
  00051	0f 11 41 10	 movups	 XMMWORD PTR [ecx+16], xmm0
  00055	8b 42 20	 mov	 eax, DWORD PTR [edx+32]
  00058	89 41 20	 mov	 DWORD PTR [ecx+32], eax

; 918  : 	return TRUE;

  0005b	b8 01 00 00 00	 mov	 eax, 1

; 919  : }

  00060	5d		 pop	 ebp
  00061	c2 08 00	 ret	 8
$LN3@RemoveFurn:

; 900  : 	if( (int)( m_vecFntInfo.size() ) <= nIndex || m_vecFntInfo[nIndex].dwItemId != gfi.dwItemId )	return FALSE;

  00064	33 c0		 xor	 eax, eax
  00066	5e		 pop	 esi

; 919  : }

  00067	5d		 pop	 ebp
  00068	c2 08 00	 ret	 8
?RemoveFurnitureCtrl@CGuildHouseBase@@AAEHHAAUGuildHouse_Furniture_Info@1@@Z ENDP ; CGuildHouseBase::RemoveFurnitureCtrl
_TEXT	ENDS
; Function compile flags: /Ogtp
; File C:\IAGOS\server\v18\Source\Source\_Common\GuildHouse.cpp
; File C:\Program Files\Microsoft Visual Studio\2022\Professional\VC\Tools\MSVC\14.44.35207\include\vector
; File C:\IAGOS\server\v18\Source\Source\_Common\GuildHouse.cpp
; File C:\Program Files\Microsoft Visual Studio\2022\Professional\VC\Tools\MSVC\14.44.35207\include\vector
; File C:\IAGOS\server\v18\Source\Source\_Common\GuildHouse.cpp
; File C:\Program Files\Microsoft Visual Studio\2022\Professional\VC\Tools\MSVC\14.44.35207\include\vector
; File C:\IAGOS\server\v18\Source\Source\_Common\GuildHouse.cpp
; File C:\IAGOS\server\v18\Source\Source\_Common\Data.h
; File C:\IAGOS\server\v18\Source\Source\_Common\GuildHouse.cpp
;	COMDAT ?SetupFurnitureCtrl@CGuildHouseBase@@AAEHHAAUGuildHouse_Furniture_Info@1@@Z
_TEXT	SEGMENT
_nIndex$ = 8						; size = 4
_gfi$ = 12						; size = 4
?SetupFurnitureCtrl@CGuildHouseBase@@AAEHHAAUGuildHouse_Furniture_Info@1@@Z PROC ; CGuildHouseBase::SetupFurnitureCtrl, COMDAT
; _this$ = ecx

; 853  : {

  00000	55		 push	 ebp
  00001	8b ec		 mov	 ebp, esp
  00003	56		 push	 esi
; File C:\Program Files\Microsoft Visual Studio\2022\Professional\VC\Tools\MSVC\14.44.35207\include\vector

; 1915 :         return static_cast<size_type>(_My_data._Mylast - _My_data._Myfirst);

  00004	8b 71 0c	 mov	 esi, DWORD PTR [ecx+12]
  00007	b8 39 8e e3 38	 mov	 eax, 954437177		; 38e38e39H
  0000c	8b 49 10	 mov	 ecx, DWORD PTR [ecx+16]
  0000f	2b ce		 sub	 ecx, esi
  00011	f7 e9		 imul	 ecx
; File C:\IAGOS\server\v18\Source\Source\_Common\GuildHouse.cpp

; 854  : 	if( (int)( m_vecFntInfo.size() ) <= nIndex || m_vecFntInfo[nIndex].dwItemId != gfi.dwItemId )	return FALSE;

  00013	8b 4d 08	 mov	 ecx, DWORD PTR _nIndex$[ebp]
; File C:\Program Files\Microsoft Visual Studio\2022\Professional\VC\Tools\MSVC\14.44.35207\include\vector

; 1915 :         return static_cast<size_type>(_My_data._Mylast - _My_data._Myfirst);

  00016	c1 fa 03	 sar	 edx, 3
  00019	8b c2		 mov	 eax, edx
  0001b	c1 e8 1f	 shr	 eax, 31			; 0000001fH
  0001e	03 c2		 add	 eax, edx
; File C:\IAGOS\server\v18\Source\Source\_Common\GuildHouse.cpp

; 854  : 	if( (int)( m_vecFntInfo.size() ) <= nIndex || m_vecFntInfo[nIndex].dwItemId != gfi.dwItemId )	return FALSE;

  00020	3b c1		 cmp	 eax, ecx
  00022	7e 40		 jle	 SHORT $LN3@SetupFurni
  00024	8b 55 0c	 mov	 edx, DWORD PTR _gfi$[ebp]
; File C:\Program Files\Microsoft Visual Studio\2022\Professional\VC\Tools\MSVC\14.44.35207\include\vector

; 1934 :         return _My_data._Myfirst[_Pos];

  00027	8d 04 c9	 lea	 eax, DWORD PTR [ecx+ecx*8]
; File C:\IAGOS\server\v18\Source\Source\_Common\GuildHouse.cpp

; 854  : 	if( (int)( m_vecFntInfo.size() ) <= nIndex || m_vecFntInfo[nIndex].dwItemId != gfi.dwItemId )	return FALSE;

  0002a	8d 0c 86	 lea	 ecx, DWORD PTR [esi+eax*4]
  0002d	8b 32		 mov	 esi, DWORD PTR [edx]
  0002f	39 31		 cmp	 DWORD PTR [ecx], esi
  00031	75 31		 jne	 SHORT $LN3@SetupFurni
; File C:\IAGOS\server\v18\Source\Source\_Common\Data.h

; 270  : 	if( dwIndex >= (DWORD)m_nMaxIndex )

  00033	3b 35 4c 00 00
	00		 cmp	 esi, DWORD PTR ?prj@@3VCProject@@A+76
  00039	73 29		 jae	 SHORT $LN3@SetupFurni

; 271  : 		return NULL;
; 272  : 	return (T*) m_apOffset[ dwIndex ];

  0003b	a1 3c 00 00 00	 mov	 eax, DWORD PTR ?prj@@3VCProject@@A+60
; File C:\IAGOS\server\v18\Source\Source\_Common\GuildHouse.cpp

; 856  : 	if( !pItemProp )	return FALSE;

  00040	83 3c b0 00	 cmp	 DWORD PTR [eax+esi*4], 0
  00044	74 1e		 je	 SHORT $LN3@SetupFurni

; 857  : 
; 858  : #ifdef __WORLDSERVER
; 859  : 	// ·ąŔĚľî°ˇ Á¸ŔçÇĎ´ÂÁö Č®ŔÎÇĎ°í °ˇ±¸ ÄÁĆ®·Ń »ýĽş...
; 860  : 	CWorld* pWorld = g_WorldMng.GetWorld( m_dwWorldId );
; 861  : 	if( pWorld && pWorld->m_linkMap.GetLinkMap( static_cast<int>( m_dwGuildId ) ) )
; 862  : 	{
; 863  : 		CCtrl* pCtrl = NULL;
; 864  : 		if( pItemProp->dwItemKind2 == IK2_GUILDHOUSE_NPC )	// ĹÚ·ąĆ÷ĹÍ´Â NPCŔĚ±â ¶§ą®żˇ ą«ąö¸¦ »ýĽşÇŘľß ÇŃ´Ů.
; 865  : 		{
; 866  : 			pCtrl = static_cast<CCtrl*>( CreateObj( D3DDEVICE, OT_MOVER, pItemProp->dwLinkKind ) );
; 867  : 			CMover* pMover = static_cast<CMover*>( pCtrl );
; 868  : 			if( pMover )
; 869  : 			{
; 870  : 				lstrcpy( pMover->m_szCharacterKey, pItemProp->szTextFileName );
; 871  : 				pMover->InitNPCProperty();
; 872  : 				pMover->InitCharacter( pMover->GetCharacter() );
; 873  : 				pMover->InitMotion( MTI_STAND );
; 874  : 				pMover->UpdateLocalMatrix();
; 875  : 			}
; 876  : 		}
; 877  : 		else if( pItemProp->dwItemKind2 == IK2_GUILDHOUSE_FURNITURE )
; 878  : 			pCtrl = static_cast<CCtrl*>( CreateObj( D3DDEVICE, OT_CTRL, pItemProp->dwLinkKind ) );
; 879  : 
; 880  : 		if( pCtrl )
; 881  : 		{
; 882  : 			pCtrl->SetPos( gfi.vPos );
; 883  : 			pCtrl->SetAngle( gfi.fAngle );
; 884  : 			pCtrl->AddItToGlobalId();
; 885  : 			gfi.objId = pCtrl->GetId();
; 886  : 			pWorld->ADDOBJ( pCtrl, FALSE, static_cast<int>( m_dwGuildId ) );
; 887  : 		}
; 888  : 	}
; 889  : 
; 890  : 	if( !m_vecFntInfo[nIndex].bSetup )	// ÇöŔç ÇŘÁ¦µÇľî ŔÖ´ř°Ĺ¸¸ ´É·ÂÄˇ ĽłÁ¤
; 891  : 		SetDSTFunriture( pItemProp );	// °ˇ±¸ ´É·ÂÄˇ ĽłÁ¤
; 892  : #endif // __WORLDSERVER
; 893  : 
; 894  : 	m_vecFntInfo[nIndex] = gfi;

  00046	0f 10 02	 movups	 xmm0, XMMWORD PTR [edx]
  00049	5e		 pop	 esi
  0004a	0f 11 01	 movups	 XMMWORD PTR [ecx], xmm0
  0004d	0f 10 42 10	 movups	 xmm0, XMMWORD PTR [edx+16]
  00051	0f 11 41 10	 movups	 XMMWORD PTR [ecx+16], xmm0
  00055	8b 42 20	 mov	 eax, DWORD PTR [edx+32]
  00058	89 41 20	 mov	 DWORD PTR [ecx+32], eax

; 895  : 	return TRUE;

  0005b	b8 01 00 00 00	 mov	 eax, 1

; 896  : }

  00060	5d		 pop	 ebp
  00061	c2 08 00	 ret	 8
$LN3@SetupFurni:

; 854  : 	if( (int)( m_vecFntInfo.size() ) <= nIndex || m_vecFntInfo[nIndex].dwItemId != gfi.dwItemId )	return FALSE;

  00064	33 c0		 xor	 eax, eax
  00066	5e		 pop	 esi

; 896  : }

  00067	5d		 pop	 ebp
  00068	c2 08 00	 ret	 8
?SetupFurnitureCtrl@CGuildHouseBase@@AAEHHAAUGuildHouse_Furniture_Info@1@@Z ENDP ; CGuildHouseBase::SetupFurnitureCtrl
_TEXT	ENDS
; Function compile flags: /Ogtp
; File C:\IAGOS\server\v18\Source\Source\_Common\GuildHouse.cpp
; File C:\Program Files\Microsoft Visual Studio\2022\Professional\VC\Tools\MSVC\14.44.35207\include\vector
; File C:\IAGOS\server\v18\Source\Source\_Common\GuildHouse.cpp
; File C:\Program Files\Microsoft Visual Studio\2022\Professional\VC\Tools\MSVC\14.44.35207\include\vector
; File C:\IAGOS\server\v18\Source\Source\_Common\GuildHouse.cpp
; File C:\Program Files\Microsoft Visual Studio\2022\Professional\VC\Tools\MSVC\14.44.35207\include\vector
; File C:\IAGOS\server\v18\Source\Source\_Common\GuildHouse.cpp
; File C:\Program Files\Microsoft Visual Studio\2022\Professional\VC\Tools\MSVC\14.44.35207\include\vector
; File C:\IAGOS\server\v18\Source\Source\_Common\GuildHouse.cpp
; File C:\Program Files\Microsoft Visual Studio\2022\Professional\VC\Tools\MSVC\14.44.35207\include\vector
; File C:\IAGOS\server\v18\Source\Source\_Common\GuildHouse.cpp
;	COMDAT ?ExpiredGuildHouse@CGuildHouseBase@@QAEHXZ
_TEXT	SEGMENT
?ExpiredGuildHouse@CGuildHouseBase@@QAEHXZ PROC		; CGuildHouseBase::ExpiredGuildHouse, COMDAT
; _this$ = ecx

; 955  : {

  00000	53		 push	 ebx
  00001	56		 push	 esi
  00002	8b f1		 mov	 esi, ecx
; File C:\Program Files\Microsoft Visual Studio\2022\Professional\VC\Tools\MSVC\14.44.35207\include\vector

; 1915 :         return static_cast<size_type>(_My_data._Mylast - _My_data._Myfirst);

  00004	b8 39 8e e3 38	 mov	 eax, 954437177		; 38e38e39H
; File C:\IAGOS\server\v18\Source\Source\_Common\GuildHouse.cpp

; 956  : 	for( int i=0; i<(int)( m_vecFntInfo.size() ); i++ )

  00009	33 db		 xor	 ebx, ebx
; File C:\Program Files\Microsoft Visual Studio\2022\Professional\VC\Tools\MSVC\14.44.35207\include\vector

; 1915 :         return static_cast<size_type>(_My_data._Mylast - _My_data._Myfirst);

  0000b	8b 4e 10	 mov	 ecx, DWORD PTR [esi+16]
  0000e	2b 4e 0c	 sub	 ecx, DWORD PTR [esi+12]
  00011	f7 e9		 imul	 ecx
  00013	c1 fa 03	 sar	 edx, 3
  00016	8b c2		 mov	 eax, edx
  00018	c1 e8 1f	 shr	 eax, 31			; 0000001fH
  0001b	03 c2		 add	 eax, edx
; File C:\IAGOS\server\v18\Source\Source\_Common\GuildHouse.cpp

; 956  : 	for( int i=0; i<(int)( m_vecFntInfo.size() ); i++ )

  0001d	85 c0		 test	 eax, eax
  0001f	7e 5c		 jle	 SHORT $LN26@ExpiredGui
  00021	57		 push	 edi
  00022	33 ff		 xor	 edi, edi
$LL4@ExpiredGui:

; 957  : 	{
; 958  : 		if( m_vecFntInfo[i].bSetup )

  00024	8b 46 0c	 mov	 eax, DWORD PTR [esi+12]
  00027	03 c7		 add	 eax, edi
  00029	83 78 04 00	 cmp	 DWORD PTR [eax+4], 0
  0002d	74 1f		 je	 SHORT $LN2@ExpiredGui

; 959  : 		{
; 960  : 			RemoveFurnitureCtrl( i, m_vecFntInfo[i] );

  0002f	50		 push	 eax
  00030	53		 push	 ebx
  00031	8b ce		 mov	 ecx, esi
  00033	e8 00 00 00 00	 call	 ?RemoveFurnitureCtrl@CGuildHouseBase@@AAEHHAAUGuildHouse_Furniture_Info@1@@Z ; CGuildHouseBase::RemoveFurnitureCtrl

; 961  : 			m_vecFntInfo[i].bSetup = FALSE;

  00038	8b 46 0c	 mov	 eax, DWORD PTR [esi+12]
  0003b	c7 44 07 04 00
	00 00 00	 mov	 DWORD PTR [edi+eax+4], 0

; 962  : 			m_vecFntInfo[i].objId = NULL_ID;

  00043	8b 46 0c	 mov	 eax, DWORD PTR [esi+12]
  00046	c7 44 07 18 ff
	ff ff ff	 mov	 DWORD PTR [edi+eax+24], -1
$LN2@ExpiredGui:
; File C:\Program Files\Microsoft Visual Studio\2022\Professional\VC\Tools\MSVC\14.44.35207\include\vector

; 1915 :         return static_cast<size_type>(_My_data._Mylast - _My_data._Myfirst);

  0004e	8b 4e 10	 mov	 ecx, DWORD PTR [esi+16]
  00051	b8 39 8e e3 38	 mov	 eax, 954437177		; 38e38e39H
  00056	2b 4e 0c	 sub	 ecx, DWORD PTR [esi+12]
; File C:\IAGOS\server\v18\Source\Source\_Common\GuildHouse.cpp

; 956  : 	for( int i=0; i<(int)( m_vecFntInfo.size() ); i++ )

  00059	43		 inc	 ebx
; File C:\Program Files\Microsoft Visual Studio\2022\Professional\VC\Tools\MSVC\14.44.35207\include\vector

; 1915 :         return static_cast<size_type>(_My_data._Mylast - _My_data._Myfirst);

  0005a	f7 e9		 imul	 ecx
; File C:\IAGOS\server\v18\Source\Source\_Common\GuildHouse.cpp

; 956  : 	for( int i=0; i<(int)( m_vecFntInfo.size() ); i++ )

  0005c	83 c7 24	 add	 edi, 36			; 00000024H
; File C:\Program Files\Microsoft Visual Studio\2022\Professional\VC\Tools\MSVC\14.44.35207\include\vector

; 1915 :         return static_cast<size_type>(_My_data._Mylast - _My_data._Myfirst);

  0005f	c1 fa 03	 sar	 edx, 3
  00062	8b c2		 mov	 eax, edx
  00064	c1 e8 1f	 shr	 eax, 31			; 0000001fH
  00067	03 c2		 add	 eax, edx
; File C:\IAGOS\server\v18\Source\Source\_Common\GuildHouse.cpp

; 956  : 	for( int i=0; i<(int)( m_vecFntInfo.size() ); i++ )

  00069	3b d8		 cmp	 ebx, eax
  0006b	7c b7		 jl	 SHORT $LL4@ExpiredGui
  0006d	5f		 pop	 edi

; 963  : 		}
; 964  : 	}
; 965  : 	m_tUpkeepTime = 0;

  0006e	c7 46 18 00 00
	00 00		 mov	 DWORD PTR [esi+24], 0

; 966  : #ifdef __WORLDSERVER
; 967  : 	DestroyGuildHouseRoom();
; 968  : #endif // __WORLDSERVER
; 969  : 	return TRUE;
; 970  : }

  00075	b8 01 00 00 00	 mov	 eax, 1
  0007a	5e		 pop	 esi
  0007b	5b		 pop	 ebx
  0007c	c3		 ret	 0
$LN26@ExpiredGui:

; 963  : 		}
; 964  : 	}
; 965  : 	m_tUpkeepTime = 0;

  0007d	89 5e 18	 mov	 DWORD PTR [esi+24], ebx

; 966  : #ifdef __WORLDSERVER
; 967  : 	DestroyGuildHouseRoom();
; 968  : #endif // __WORLDSERVER
; 969  : 	return TRUE;
; 970  : }

  00080	b8 01 00 00 00	 mov	 eax, 1
  00085	5e		 pop	 esi
  00086	5b		 pop	 ebx
  00087	c3		 ret	 0
?ExpiredGuildHouse@CGuildHouseBase@@QAEHXZ ENDP		; CGuildHouseBase::ExpiredGuildHouse
_TEXT	ENDS
; Function compile flags: /Ogtp
; File C:\IAGOS\server\v18\Source\Source\_Common\GuildHouse.cpp
; File C:\IAGOS\server\v18\Source\Source\_Network\Misc\Include\Ar.h
; File C:\IAGOS\server\v18\Source\Source\_Common\GuildHouse.cpp
; File C:\IAGOS\server\v18\Source\Source\_Network\Misc\Include\Ar.h
; File C:\IAGOS\server\v18\Source\Source\_Common\GuildHouse.cpp
; File C:\Program Files (x86)\Windows Kits\10\Include\10.0.26100.0\ucrt\time.h
; File C:\IAGOS\server\v18\Source\Source\_Common\GuildHouse.cpp
; File C:\Program Files (x86)\Windows Kits\10\Include\10.0.26100.0\ucrt\time.h
; File C:\IAGOS\server\v18\Source\Source\_Common\GuildHouse.cpp
; File C:\Program Files\Microsoft Visual Studio\2022\Professional\VC\Tools\MSVC\14.44.35207\include\vector
; File C:\IAGOS\server\v18\Source\Source\_Common\GuildHouse.cpp
; File C:\Program Files\Microsoft Visual Studio\2022\Professional\VC\Tools\MSVC\14.44.35207\include\vector
; File C:\IAGOS\server\v18\Source\Source\_Common\GuildHouse.cpp
; File C:\Program Files\Microsoft Visual Studio\2022\Professional\VC\Tools\MSVC\14.44.35207\include\vector
; File C:\IAGOS\server\v18\Source\Source\_Common\GuildHouse.cpp
; File C:\Program Files\Microsoft Visual Studio\2022\Professional\VC\Tools\MSVC\14.44.35207\include\vector
; File C:\IAGOS\server\v18\Source\Source\_Common\GuildHouse.cpp
; File C:\Program Files\Microsoft Visual Studio\2022\Professional\VC\Tools\MSVC\14.44.35207\include\vector
; File C:\IAGOS\server\v18\Source\Source\_Common\GuildHouse.cpp
; File C:\Program Files\Microsoft Visual Studio\2022\Professional\VC\Tools\MSVC\14.44.35207\include\vector
; File C:\IAGOS\server\v18\Source\Source\_Common\GuildHouse.cpp
; File C:\Program Files\Microsoft Visual Studio\2022\Professional\VC\Tools\MSVC\14.44.35207\include\vector
; File C:\IAGOS\server\v18\Source\Source\_Common\GuildHouse.cpp
; File C:\Program Files\Microsoft Visual Studio\2022\Professional\VC\Tools\MSVC\14.44.35207\include\vector
; File C:\IAGOS\server\v18\Source\Source\_Common\GuildHouse.cpp
; File C:\Program Files\Microsoft Visual Studio\2022\Professional\VC\Tools\MSVC\14.44.35207\include\vector
; File C:\IAGOS\server\v18\Source\Source\_Common\GuildHouse.cpp
; File C:\Program Files (x86)\Windows Kits\10\Include\10.0.26100.0\ucrt\time.h
; File C:\IAGOS\server\v18\Source\Source\_Common\GuildHouse.cpp
; File C:\Program Files\Microsoft Visual Studio\2022\Professional\VC\Tools\MSVC\14.44.35207\include\vector
; File C:\IAGOS\server\v18\Source\Source\_Common\GuildHouse.cpp
; File C:\Program Files\Microsoft Visual Studio\2022\Professional\VC\Tools\MSVC\14.44.35207\include\vector
; File C:\IAGOS\server\v18\Source\Source\_Common\GuildHouse.cpp
; File C:\Program Files\Microsoft Visual Studio\2022\Professional\VC\Tools\MSVC\14.44.35207\include\vector
; File C:\IAGOS\server\v18\Source\Source\_Common\GuildHouse.cpp
;	COMDAT ?SerializeAllInfo@CGuildHouseBase@@QAEXAAVCAr@@@Z
_TEXT	SEGMENT
__My_data$1$ = -8					; size = 4
_nSize$1 = -4						; size = 4
_ar$ = 8						; size = 4
$T2 = 8							; size = 4
$T3 = 8							; size = 4
$T4 = 8							; size = 4
_i$1$ = 8						; size = 4
$T5 = 11						; size = 1
?SerializeAllInfo@CGuildHouseBase@@QAEXAAVCAr@@@Z PROC	; CGuildHouseBase::SerializeAllInfo, COMDAT
; _this$ = ecx

; 719  : {

  00000	55		 push	 ebp
  00001	8b ec		 mov	 ebp, esp
  00003	83 ec 08	 sub	 esp, 8
  00006	53		 push	 ebx
  00007	56		 push	 esi
  00008	57		 push	 edi
; File C:\IAGOS\server\v18\Source\Source\_Network\Misc\Include\Ar.h

; 146  : 	return (m_nMode & CAr::load) == 0;

  00009	8b 7d 08	 mov	 edi, DWORD PTR _ar$[ebp]
; File C:\IAGOS\server\v18\Source\Source\_Common\GuildHouse.cpp

; 719  : {

  0000c	8b f1		 mov	 esi, ecx
; File C:\IAGOS\server\v18\Source\Source\_Network\Misc\Include\Ar.h

; 146  : 	return (m_nMode & CAr::load) == 0;

  0000e	f6 07 01	 test	 BYTE PTR [edi], 1
  00011	8d 5e 18	 lea	 ebx, DWORD PTR [esi+24]
  00014	8d 46 08	 lea	 eax, DWORD PTR [esi+8]
  00017	8d 4e 04	 lea	 ecx, DWORD PTR [esi+4]
; File C:\IAGOS\server\v18\Source\Source\_Common\GuildHouse.cpp

; 720  : 	if( ar.IsStoring() )

  0001a	0f 85 bc 00 00
	00		 jne	 $LN8@SerializeA

; 721  : 	{
; 722  : 		ar << m_dwGuildId << m_dwWorldId;

  00020	50		 push	 eax
  00021	51		 push	 ecx
  00022	8b cf		 mov	 ecx, edi
  00024	e8 00 00 00 00	 call	 ??$?6K@CAr@@QAEAAV0@ABK@Z ; CAr::operator<<<unsigned long>
  00029	8b c8		 mov	 ecx, eax
  0002b	e8 00 00 00 00	 call	 ??$?6K@CAr@@QAEAAV0@ABK@Z ; CAr::operator<<<unsigned long>

; 723  : 		if( m_tUpkeepTime > 0 )

  00030	83 3b 00	 cmp	 DWORD PTR [ebx], 0
  00033	7e 13		 jle	 SHORT $LN10@SerializeA
; File C:\Program Files (x86)\Windows Kits\10\Include\10.0.26100.0\ucrt\time.h

; 428  :             return _time32(_Time);

  00035	6a 00		 push	 0
  00037	e8 00 00 00 00	 call	 __time32
; File C:\IAGOS\server\v18\Source\Source\_Common\GuildHouse.cpp

; 724  : 			ar << m_tUpkeepTime - time_null();

  0003c	8b 0b		 mov	 ecx, DWORD PTR [ebx]
; File C:\Program Files (x86)\Windows Kits\10\Include\10.0.26100.0\ucrt\time.h

; 428  :             return _time32(_Time);

  0003e	83 c4 04	 add	 esp, 4
; File C:\IAGOS\server\v18\Source\Source\_Common\GuildHouse.cpp

; 724  : 			ar << m_tUpkeepTime - time_null();

  00041	2b c8		 sub	 ecx, eax
  00043	89 4d 08	 mov	 DWORD PTR $T2[ebp], ecx
  00046	eb 07		 jmp	 SHORT $LN56@SerializeA
$LN10@SerializeA:

; 725  : 		else
; 726  : 			ar << static_cast<time_t>( 0 );

  00048	c7 45 08 00 00
	00 00		 mov	 DWORD PTR $T3[ebp], 0
$LN56@SerializeA:
; File C:\Program Files\Microsoft Visual Studio\2022\Professional\VC\Tools\MSVC\14.44.35207\include\vector

; 1915 :         return static_cast<size_type>(_My_data._Mylast - _My_data._Myfirst);

  0004f	8d 45 08	 lea	 eax, DWORD PTR $T3[ebp]
  00052	8b cf		 mov	 ecx, edi
  00054	50		 push	 eax
  00055	e8 00 00 00 00	 call	 ??$?6J@CAr@@QAEAAV0@ABJ@Z ; CAr::operator<<<long>
  0005a	8b 4e 10	 mov	 ecx, DWORD PTR [esi+16]
  0005d	b8 39 8e e3 38	 mov	 eax, 954437177		; 38e38e39H
  00062	2b 4e 0c	 sub	 ecx, DWORD PTR [esi+12]
  00065	f7 e9		 imul	 ecx
; File C:\IAGOS\server\v18\Source\Source\_Common\GuildHouse.cpp

; 731  : 		ar << m_vecFntInfo.size();

  00067	8b cf		 mov	 ecx, edi
; File C:\Program Files\Microsoft Visual Studio\2022\Professional\VC\Tools\MSVC\14.44.35207\include\vector

; 1915 :         return static_cast<size_type>(_My_data._Mylast - _My_data._Myfirst);

  00069	c1 fa 03	 sar	 edx, 3
  0006c	8b c2		 mov	 eax, edx
  0006e	c1 e8 1f	 shr	 eax, 31			; 0000001fH
  00071	03 c2		 add	 eax, edx
; File C:\IAGOS\server\v18\Source\Source\_Common\GuildHouse.cpp

; 731  : 		ar << m_vecFntInfo.size();

  00073	89 45 08	 mov	 DWORD PTR $T4[ebp], eax
  00076	8d 45 08	 lea	 eax, DWORD PTR $T4[ebp]
  00079	50		 push	 eax
  0007a	e8 00 00 00 00	 call	 ??$?6I@CAr@@QAEAAV0@ABI@Z ; CAr::operator<<<unsigned int>

; 732  : 		for( int i=0; i<(int)( m_vecFntInfo.size() ); i++ )

  0007f	33 c9		 xor	 ecx, ecx
; File C:\Program Files\Microsoft Visual Studio\2022\Professional\VC\Tools\MSVC\14.44.35207\include\vector

; 1915 :         return static_cast<size_type>(_My_data._Mylast - _My_data._Myfirst);

  00081	b8 39 8e e3 38	 mov	 eax, 954437177		; 38e38e39H
; File C:\IAGOS\server\v18\Source\Source\_Common\GuildHouse.cpp

; 732  : 		for( int i=0; i<(int)( m_vecFntInfo.size() ); i++ )

  00086	89 4d 08	 mov	 DWORD PTR _i$1$[ebp], ecx
; File C:\Program Files\Microsoft Visual Studio\2022\Professional\VC\Tools\MSVC\14.44.35207\include\vector

; 1915 :         return static_cast<size_type>(_My_data._Mylast - _My_data._Myfirst);

  00089	8b 4e 10	 mov	 ecx, DWORD PTR [esi+16]
  0008c	2b 4e 0c	 sub	 ecx, DWORD PTR [esi+12]
  0008f	f7 e9		 imul	 ecx
  00091	c1 fa 03	 sar	 edx, 3
  00094	8b c2		 mov	 eax, edx
  00096	c1 e8 1f	 shr	 eax, 31			; 0000001fH
  00099	03 c2		 add	 eax, edx
; File C:\IAGOS\server\v18\Source\Source\_Common\GuildHouse.cpp

; 732  : 		for( int i=0; i<(int)( m_vecFntInfo.size() ); i++ )

  0009b	85 c0		 test	 eax, eax
  0009d	0f 8e a8 00 00
	00		 jle	 $LN6@SerializeA
; File C:\Program Files\Microsoft Visual Studio\2022\Professional\VC\Tools\MSVC\14.44.35207\include\vector

; 1914 :         auto& _My_data = _Mypair._Myval2;

  000a3	33 db		 xor	 ebx, ebx
$LL4@SerializeA:

; 1934 :         return _My_data._Myfirst[_Pos];

  000a5	8b 4e 0c	 mov	 ecx, DWORD PTR [esi+12]
; File C:\IAGOS\server\v18\Source\Source\_Common\GuildHouse.cpp

; 733  : 			m_vecFntInfo[i].Serialize( ar );

  000a8	57		 push	 edi
; File C:\Program Files\Microsoft Visual Studio\2022\Professional\VC\Tools\MSVC\14.44.35207\include\vector

; 1934 :         return _My_data._Myfirst[_Pos];

  000a9	8d 0c 0b	 lea	 ecx, DWORD PTR [ebx+ecx]
; File C:\IAGOS\server\v18\Source\Source\_Common\GuildHouse.cpp

; 733  : 			m_vecFntInfo[i].Serialize( ar );

  000ac	e8 00 00 00 00	 call	 ?Serialize@GuildHouse_Furniture_Info@CGuildHouseBase@@QAEXAAVCAr@@@Z ; CGuildHouseBase::GuildHouse_Furniture_Info::Serialize
; File C:\Program Files\Microsoft Visual Studio\2022\Professional\VC\Tools\MSVC\14.44.35207\include\vector

; 1915 :         return static_cast<size_type>(_My_data._Mylast - _My_data._Myfirst);

  000b1	8b 4e 10	 mov	 ecx, DWORD PTR [esi+16]
; File C:\IAGOS\server\v18\Source\Source\_Common\GuildHouse.cpp

; 732  : 		for( int i=0; i<(int)( m_vecFntInfo.size() ); i++ )

  000b4	8d 5b 24	 lea	 ebx, DWORD PTR [ebx+36]
; File C:\Program Files\Microsoft Visual Studio\2022\Professional\VC\Tools\MSVC\14.44.35207\include\vector

; 1915 :         return static_cast<size_type>(_My_data._Mylast - _My_data._Myfirst);

  000b7	2b 4e 0c	 sub	 ecx, DWORD PTR [esi+12]
  000ba	b8 39 8e e3 38	 mov	 eax, 954437177		; 38e38e39H
; File C:\IAGOS\server\v18\Source\Source\_Common\GuildHouse.cpp

; 732  : 		for( int i=0; i<(int)( m_vecFntInfo.size() ); i++ )

  000bf	ff 45 08	 inc	 DWORD PTR _i$1$[ebp]
; File C:\Program Files\Microsoft Visual Studio\2022\Professional\VC\Tools\MSVC\14.44.35207\include\vector

; 1915 :         return static_cast<size_type>(_My_data._Mylast - _My_data._Myfirst);

  000c2	f7 e9		 imul	 ecx
  000c4	c1 fa 03	 sar	 edx, 3
  000c7	8b c2		 mov	 eax, edx
  000c9	c1 e8 1f	 shr	 eax, 31			; 0000001fH
  000cc	03 c2		 add	 eax, edx
; File C:\IAGOS\server\v18\Source\Source\_Common\GuildHouse.cpp

; 732  : 		for( int i=0; i<(int)( m_vecFntInfo.size() ); i++ )

  000ce	39 45 08	 cmp	 DWORD PTR _i$1$[ebp], eax
  000d1	7c d2		 jl	 SHORT $LL4@SerializeA

; 749  : 	}
; 750  : }

  000d3	5f		 pop	 edi
  000d4	5e		 pop	 esi
  000d5	5b		 pop	 ebx
  000d6	8b e5		 mov	 esp, ebp
  000d8	5d		 pop	 ebp
  000d9	c2 04 00	 ret	 4
$LN8@SerializeA:

; 734  : 	}
; 735  : 	else
; 736  : 	{
; 737  : 		ar >> m_dwGuildId >> m_dwWorldId >> m_tUpkeepTime;

  000dc	53		 push	 ebx
  000dd	50		 push	 eax
  000de	51		 push	 ecx
  000df	8b cf		 mov	 ecx, edi
  000e1	e8 00 00 00 00	 call	 ??$?5K@CAr@@QAEAAV0@AAK@Z ; CAr::operator>><unsigned long>
  000e6	8b c8		 mov	 ecx, eax
  000e8	e8 00 00 00 00	 call	 ??$?5K@CAr@@QAEAAV0@AAK@Z ; CAr::operator>><unsigned long>
  000ed	8b c8		 mov	 ecx, eax
  000ef	e8 00 00 00 00	 call	 ??$?5J@CAr@@QAEAAV0@AAJ@Z ; CAr::operator>><long>

; 738  : 		if( m_tUpkeepTime > 0 )

  000f4	83 3b 00	 cmp	 DWORD PTR [ebx], 0
  000f7	7e 0c		 jle	 SHORT $LN12@SerializeA
; File C:\Program Files (x86)\Windows Kits\10\Include\10.0.26100.0\ucrt\time.h

; 428  :             return _time32(_Time);

  000f9	6a 00		 push	 0
  000fb	e8 00 00 00 00	 call	 __time32
  00100	83 c4 04	 add	 esp, 4
; File C:\IAGOS\server\v18\Source\Source\_Common\GuildHouse.cpp

; 739  : 			m_tUpkeepTime += time_null();

  00103	01 03		 add	 DWORD PTR [ebx], eax
$LN12@SerializeA:

; 740  : #ifdef __GUILD_HOUSE_MIDDLE
; 741  : 		ar >> m_objGHId >> m_nAreaIndex >> m_nGHLevel;
; 742  : 		ar.ReadString( m_szGHName, MAX_GH_NAME );
; 743  : #endif // __GUILD_HOUSE_MIDDLE
; 744  : 		int nSize;
; 745  : 		ar >> nSize;

  00105	8d 45 fc	 lea	 eax, DWORD PTR _nSize$1[ebp]
  00108	8b cf		 mov	 ecx, edi
  0010a	50		 push	 eax
  0010b	e8 00 00 00 00	 call	 ??$?5H@CAr@@QAEAAV0@AAH@Z ; CAr::operator>><int>
; File C:\Program Files\Microsoft Visual Studio\2022\Professional\VC\Tools\MSVC\14.44.35207\include\vector

; 1812 :         if (_Myfirst == _Mylast) { // already empty, nothing to do

  00110	8b 4e 0c	 mov	 ecx, DWORD PTR [esi+12]
  00113	8d 46 0c	 lea	 eax, DWORD PTR [esi+12]
  00116	89 45 f8	 mov	 DWORD PTR __My_data$1$[ebp], eax
  00119	3b 48 04	 cmp	 ecx, DWORD PTR [eax+4]
  0011c	74 03		 je	 SHORT $LN33@SerializeA

; 1813 :             // This is an optimization for debug mode: we can avoid taking the debug lock to invalidate iterators.
; 1814 :             // Note that when clearing an empty vector, this will preserve past-the-end iterators, which is allowed by
; 1815 :             // N4950 [sequence.reqmts]/54 "a.clear() [...] may invalidate the past-the-end iterator".
; 1816 :             return;
; 1817 :         }
; 1818 : 
; 1819 :         _My_data._Orphan_all();
; 1820 :         _Destroy_range(_Myfirst, _Mylast, _Getal());
; 1821 :         _ASAN_VECTOR_MODIFY(static_cast<difference_type>(_Myfirst - _Mylast)); // negative when destroying elements
; 1822 :         _Mylast = _Myfirst;

  0011e	89 48 04	 mov	 DWORD PTR [eax+4], ecx
$LN33@SerializeA:

; 1630 :         _Resize(_Newsize, _Value_init_tag{});

  00121	8b 5d fc	 mov	 ebx, DWORD PTR _nSize$1[ebp]
  00124	8d 4d 0b	 lea	 ecx, DWORD PTR $T5[ebp]
  00127	51		 push	 ecx
  00128	53		 push	 ebx
  00129	8b c8		 mov	 ecx, eax
  0012b	e8 00 00 00 00	 call	 ??$_Resize@U_Value_init_tag@std@@@?$vector@UGuildHouse_Furniture_Info@CGuildHouseBase@@V?$allocator@UGuildHouse_Furniture_Info@CGuildHouseBase@@@std@@@std@@AAEXIABU_Value_init_tag@1@@Z ; std::vector<CGuildHouseBase::GuildHouse_Furniture_Info,std::allocator<CGuildHouseBase::GuildHouse_Furniture_Info> >::_Resize<std::_Value_init_tag>
; File C:\IAGOS\server\v18\Source\Source\_Common\GuildHouse.cpp

; 747  : 		for( int i=0; i<nSize; i++ )

  00130	85 db		 test	 ebx, ebx
  00132	7e 17		 jle	 SHORT $LN6@SerializeA
; File C:\Program Files\Microsoft Visual Studio\2022\Professional\VC\Tools\MSVC\14.44.35207\include\vector

; 1630 :         _Resize(_Newsize, _Value_init_tag{});

  00134	33 f6		 xor	 esi, esi
$LL7@SerializeA:

; 1934 :         return _My_data._Myfirst[_Pos];

  00136	8b 45 f8	 mov	 eax, DWORD PTR __My_data$1$[ebp]
; File C:\IAGOS\server\v18\Source\Source\_Common\GuildHouse.cpp

; 748  : 			m_vecFntInfo[i].Serialize( ar );

  00139	57		 push	 edi
; File C:\Program Files\Microsoft Visual Studio\2022\Professional\VC\Tools\MSVC\14.44.35207\include\vector

; 1934 :         return _My_data._Myfirst[_Pos];

  0013a	8b 08		 mov	 ecx, DWORD PTR [eax]
  0013c	03 ce		 add	 ecx, esi
; File C:\IAGOS\server\v18\Source\Source\_Common\GuildHouse.cpp

; 748  : 			m_vecFntInfo[i].Serialize( ar );

  0013e	e8 00 00 00 00	 call	 ?Serialize@GuildHouse_Furniture_Info@CGuildHouseBase@@QAEXAAVCAr@@@Z ; CGuildHouseBase::GuildHouse_Furniture_Info::Serialize
  00143	83 c6 24	 add	 esi, 36			; 00000024H
  00146	83 eb 01	 sub	 ebx, 1
  00149	75 eb		 jne	 SHORT $LL7@SerializeA
$LN6@SerializeA:
  0014b	5f		 pop	 edi

; 749  : 	}
; 750  : }

  0014c	5e		 pop	 esi
  0014d	5b		 pop	 ebx
  0014e	8b e5		 mov	 esp, ebp
  00150	5d		 pop	 ebp
  00151	c2 04 00	 ret	 4
?SerializeAllInfo@CGuildHouseBase@@QAEXAAVCAr@@@Z ENDP	; CGuildHouseBase::SerializeAllInfo
_TEXT	ENDS
; Function compile flags: /Ogtp
; File C:\IAGOS\server\v18\Source\Source\_Common\GuildHouse.cpp
;	COMDAT ?OnGuildHousePacket@CGuildHouseBase@@QAEHHAAUGuildHouse_Furniture_Info@1@H@Z
_TEXT	SEGMENT
_nPacketType$ = 8					; size = 4
_gfi$ = 12						; size = 4
_nIndex$ = 16						; size = 4
?OnGuildHousePacket@CGuildHouseBase@@QAEHHAAUGuildHouse_Furniture_Info@1@H@Z PROC ; CGuildHouseBase::OnGuildHousePacket, COMDAT
; _this$ = ecx

; 753  : {

  00000	55		 push	 ebp
  00001	8b ec		 mov	 ebp, esp

; 754  : 	switch( nPacketType )

  00003	8b 45 08	 mov	 eax, DWORD PTR _nPacketType$[ebp]
  00006	83 f8 07	 cmp	 eax, 7
  00009	77 67		 ja	 SHORT $LN2@OnGuildHou
  0000b	ff 24 85 00 00
	00 00		 jmp	 DWORD PTR $LN12@OnGuildHou[eax*4]
$LN4@OnGuildHou:

; 755  : 	{
; 756  : 		case GUILDHOUSE_PCKTTYPE_LISTUP:
; 757  : 			return ListUpFurniture( gfi );

  00012	ff 75 0c	 push	 DWORD PTR _gfi$[ebp]
  00015	e8 00 00 00 00	 call	 ?ListUpFurniture@CGuildHouseBase@@AAEHAAUGuildHouse_Furniture_Info@1@@Z ; CGuildHouseBase::ListUpFurniture

; 827  : }

  0001a	5d		 pop	 ebp
  0001b	c2 0c 00	 ret	 12			; 0000000cH
$LN5@OnGuildHou:

; 758  : 
; 759  : 		case GUILDHOUSE_PCKTTYPE_LISTDROP:
; 760  : 			return ListDropFurniture( nIndex );

  0001e	ff 75 10	 push	 DWORD PTR _nIndex$[ebp]
  00021	e8 00 00 00 00	 call	 ?ListDropFurniture@CGuildHouseBase@@AAEHH@Z ; CGuildHouseBase::ListDropFurniture

; 827  : }

  00026	5d		 pop	 ebp
  00027	c2 0c 00	 ret	 12			; 0000000cH
$LN6@OnGuildHou:

; 761  : 
; 762  : 		case GUILDHOUSE_PCKTTYPE_SETUP:
; 763  : #ifdef __CLIENT
; 764  : 			{
; 765  : 				ItemProp* pProp = prj.GetItemProp( gfi.dwItemId );
; 766  : 				if( pProp )
; 767  : 				{
; 768  : 					CString str;
; 769  : 					str.Format( GETTEXT( TID_GAME_GUILDHOUSE_FUR_INSTALL_SUCCESS ), pProp->szName );		//ĽłÄˇĽş°ř 
; 770  : 					g_WndMng.PutString( str, NULL, prj.GetTextColor( TID_GAME_GUILDHOUSE_FUR_INSTALL_SUCCESS ) );
; 771  : 				}
; 772  : 			}
; 773  : 
; 774  : #endif // __CLIENT
; 775  : #ifdef __WORLDSERVER
; 776  : 			g_dpDBClient.SendLogGuildFurniture( m_dwGuildId, gfi, 'S' );
; 777  : #endif // __WORLDSERVER
; 778  : 			return SetupFurnitureCtrl( nIndex, gfi );

  0002a	ff 75 0c	 push	 DWORD PTR _gfi$[ebp]
  0002d	ff 75 10	 push	 DWORD PTR _nIndex$[ebp]
  00030	e8 00 00 00 00	 call	 ?SetupFurnitureCtrl@CGuildHouseBase@@AAEHHAAUGuildHouse_Furniture_Info@1@@Z ; CGuildHouseBase::SetupFurnitureCtrl

; 827  : }

  00035	5d		 pop	 ebp
  00036	c2 0c 00	 ret	 12			; 0000000cH
$LN7@OnGuildHou:

; 779  : 
; 780  : 		case GUILDHOUSE_PCKTTYPE_REMOVE:
; 781  : #ifdef __CLIENT
; 782  : 			{
; 783  : 				ItemProp* pProp = prj.GetItemProp( gfi.dwItemId );
; 784  : 				if( pProp )
; 785  : 				{
; 786  : 					CString str;
; 787  : 					str.Format( GETTEXT( TID_GAME_GUILDHOUSE_FUR_DISMANTLE_SUCCESS ), pProp->szName );	//ÇŘĂĽ Ľş°ř  
; 788  : 					g_WndMng.PutString( str, NULL, prj.GetTextColor( TID_GAME_GUILDHOUSE_FUR_DISMANTLE_SUCCESS ) );
; 789  : 				}
; 790  : 			}
; 791  : #endif // __CLIENT
; 792  : #ifdef __WORLDSERVER
; 793  : 			g_dpDBClient.SendLogGuildFurniture( m_dwGuildId, gfi, 'R' );
; 794  : #endif // __WORLDSERVER
; 795  : 			return RemoveFurnitureCtrl( nIndex, gfi );

  00039	ff 75 0c	 push	 DWORD PTR _gfi$[ebp]
  0003c	ff 75 10	 push	 DWORD PTR _nIndex$[ebp]
  0003f	e8 00 00 00 00	 call	 ?RemoveFurnitureCtrl@CGuildHouseBase@@AAEHHAAUGuildHouse_Furniture_Info@1@@Z ; CGuildHouseBase::RemoveFurnitureCtrl

; 827  : }

  00044	5d		 pop	 ebp
  00045	c2 0c 00	 ret	 12			; 0000000cH
$LN8@OnGuildHou:

; 796  : 
; 797  : 		case GUILDHOUSE_PCKTTYPE_RESET:
; 798  : #ifdef __CLIENT
; 799  : 			{
; 800  : 				ItemProp* pProp = prj.GetItemProp( gfi.dwItemId );
; 801  : 				if( pProp )
; 802  : 				{
; 803  : 					CString str;
; 804  : 					str.Format( GETTEXT( TID_GAME_GUILDHOUSE_FUR_REINSTALL_SUCCESS ), pProp->szName );	//ŔçĽłÄˇ Ľş°ř 
; 805  : 					g_WndMng.PutString( str, NULL, prj.GetTextColor( TID_GAME_GUILDHOUSE_FUR_REINSTALL_SUCCESS ) );
; 806  : 				}
; 807  : 			}
; 808  : #endif
; 809  : #ifdef __WORLDSERVER
; 810  : 			g_dpDBClient.SendLogGuildFurniture( m_dwGuildId, gfi, 'C' );
; 811  : #endif // __WORLDSERVER
; 812  : 			return ResetFurnitureCtrl( nIndex, gfi );

  00048	ff 75 0c	 push	 DWORD PTR _gfi$[ebp]
  0004b	ff 75 10	 push	 DWORD PTR _nIndex$[ebp]
  0004e	e8 00 00 00 00	 call	 ?ResetFurnitureCtrl@CGuildHouseBase@@AAEHHAAUGuildHouse_Furniture_Info@1@@Z ; CGuildHouseBase::ResetFurnitureCtrl

; 827  : }

  00053	5d		 pop	 ebp
  00054	c2 0c 00	 ret	 12			; 0000000cH
$LN9@OnGuildHou:

; 813  : #ifdef __CLIENT
; 814  : 		case GUILDHOUSE_PCKTTYPE_REFRESH:
; 815  : 			return SetupFurnitureCtrl( nIndex, gfi );
; 816  : #endif // __CLIENT
; 817  : 		
; 818  : 		case GUILDHOUSE_PCKTTYPE_UPKEEP:
; 819  : 			SetUpkeeptime( gfi.tKeepTime );

  00057	8b 45 0c	 mov	 eax, DWORD PTR _gfi$[ebp]
  0005a	8b 40 1c	 mov	 eax, DWORD PTR [eax+28]
  0005d	89 41 18	 mov	 DWORD PTR [ecx+24], eax

; 820  : 			return TRUE;

  00060	b8 01 00 00 00	 mov	 eax, 1

; 827  : }

  00065	5d		 pop	 ebp
  00066	c2 0c 00	 ret	 12			; 0000000cH
$LN10@OnGuildHou:

; 821  : 
; 822  : 		case GUILDHOUSE_PCKTTYPE_EXPIRED:
; 823  : 			return ExpiredGuildHouse();

  00069	e8 00 00 00 00	 call	 ?ExpiredGuildHouse@CGuildHouseBase@@QAEHXZ ; CGuildHouseBase::ExpiredGuildHouse

; 827  : }

  0006e	5d		 pop	 ebp
  0006f	c2 0c 00	 ret	 12			; 0000000cH
$LN2@OnGuildHou:

; 824  : 	}
; 825  : 
; 826  : 	return FALSE;

  00072	33 c0		 xor	 eax, eax

; 827  : }

  00074	5d		 pop	 ebp
  00075	c2 0c 00	 ret	 12			; 0000000cH
$LN12@OnGuildHou:
  00078	00 00 00 00	 DD	 $LN4@OnGuildHou
  0007c	00 00 00 00	 DD	 $LN5@OnGuildHou
  00080	00 00 00 00	 DD	 $LN6@OnGuildHou
  00084	00 00 00 00	 DD	 $LN7@OnGuildHou
  00088	00 00 00 00	 DD	 $LN8@OnGuildHou
  0008c	00 00 00 00	 DD	 $LN2@OnGuildHou
  00090	00 00 00 00	 DD	 $LN9@OnGuildHou
  00094	00 00 00 00	 DD	 $LN10@OnGuildHou
?OnGuildHousePacket@CGuildHouseBase@@QAEHHAAUGuildHouse_Furniture_Info@1@H@Z ENDP ; CGuildHouseBase::OnGuildHousePacket
_TEXT	ENDS
; Function compile flags: /Ogtp
; File C:\IAGOS\server\v18\Source\Source\_Common\GuildHouse.cpp
; File C:\Program Files\Microsoft Visual Studio\2022\Professional\VC\Tools\MSVC\14.44.35207\include\vector
; File C:\IAGOS\server\v18\Source\Source\_Common\GuildHouse.cpp
;	COMDAT ?Clear@CGuildHouseBase@@QAEXXZ
_TEXT	SEGMENT
?Clear@CGuildHouseBase@@QAEXXZ PROC			; CGuildHouseBase::Clear, COMDAT
; _this$ = ecx
; File C:\Program Files\Microsoft Visual Studio\2022\Professional\VC\Tools\MSVC\14.44.35207\include\vector

; 1812 :         if (_Myfirst == _Mylast) { // already empty, nothing to do

  00000	8b 41 0c	 mov	 eax, DWORD PTR [ecx+12]
  00003	3b 41 10	 cmp	 eax, DWORD PTR [ecx+16]
  00006	74 03		 je	 SHORT $LN3@Clear

; 1813 :             // This is an optimization for debug mode: we can avoid taking the debug lock to invalidate iterators.
; 1814 :             // Note that when clearing an empty vector, this will preserve past-the-end iterators, which is allowed by
; 1815 :             // N4950 [sequence.reqmts]/54 "a.clear() [...] may invalidate the past-the-end iterator".
; 1816 :             return;
; 1817 :         }
; 1818 : 
; 1819 :         _My_data._Orphan_all();
; 1820 :         _Destroy_range(_Myfirst, _Mylast, _Getal());
; 1821 :         _ASAN_VECTOR_MODIFY(static_cast<difference_type>(_Myfirst - _Mylast)); // negative when destroying elements
; 1822 :         _Mylast = _Myfirst;

  00008	89 41 10	 mov	 DWORD PTR [ecx+16], eax
$LN3@Clear:
; File C:\IAGOS\server\v18\Source\Source\_Common\GuildHouse.cpp

; 109  : }

  0000b	c3		 ret	 0
?Clear@CGuildHouseBase@@QAEXXZ ENDP			; CGuildHouseBase::Clear
_TEXT	ENDS
; Function compile flags: /Ogtp
; File C:\IAGOS\server\v18\Source\Source\_Common\GuildHouse.cpp
;	COMDAT ??1CGuildHouseBase@@UAE@XZ
_TEXT	SEGMENT
??1CGuildHouseBase@@UAE@XZ PROC				; CGuildHouseBase::~CGuildHouseBase, COMDAT
; _this$ = ecx

; 94   : {

  00000	56		 push	 esi
  00001	8b f1		 mov	 esi, ecx
  00003	c7 06 00 00 00
	00		 mov	 DWORD PTR [esi], OFFSET ??_7CGuildHouseBase@@6B@

; 95   : 	Clear();

  00009	e8 00 00 00 00	 call	 ?Clear@CGuildHouseBase@@QAEXXZ ; CGuildHouseBase::Clear

; 96   : }

  0000e	8d 4e 0c	 lea	 ecx, DWORD PTR [esi+12]
  00011	5e		 pop	 esi
  00012	e9 00 00 00 00	 jmp	 ??1?$vector@UGuildHouse_Furniture_Info@CGuildHouseBase@@V?$allocator@UGuildHouse_Furniture_Info@CGuildHouseBase@@@std@@@std@@QAE@XZ ; std::vector<CGuildHouseBase::GuildHouse_Furniture_Info,std::allocator<CGuildHouseBase::GuildHouse_Furniture_Info> >::~vector<CGuildHouseBase::GuildHouse_Furniture_Info,std::allocator<CGuildHouseBase::GuildHouse_Furniture_Info> >
??1CGuildHouseBase@@UAE@XZ ENDP				; CGuildHouseBase::~CGuildHouseBase
_TEXT	ENDS
; Function compile flags: /Ogtp
; File C:\IAGOS\server\v18\Source\Source\_Common\GuildHouse.cpp
; File C:\Program Files\Microsoft Visual Studio\2022\Professional\VC\Tools\MSVC\14.44.35207\include\vector
; File C:\IAGOS\server\v18\Source\Source\_Common\GuildHouse.cpp
;	COMDAT ??0CGuildHouseBase@@QAE@KK@Z
_TEXT	SEGMENT
_this$ = -4						; size = 4
_dwGuildId$ = 8						; size = 4
_dwWorldId$ = 12					; size = 4
??0CGuildHouseBase@@QAE@KK@Z PROC			; CGuildHouseBase::CGuildHouseBase, COMDAT
; _this$ = ecx

; 78   : {

  00000	55		 push	 ebp
  00001	8b ec		 mov	 ebp, esp
  00003	51		 push	 ecx

; 74   : :m_dwGuildId( dwGuildId ), m_dwWorldId( dwWorldId ), m_tUpkeepTime( 0 )

  00004	8b 45 08	 mov	 eax, DWORD PTR _dwGuildId$[ebp]
  00007	89 41 04	 mov	 DWORD PTR [ecx+4], eax
  0000a	8b 45 0c	 mov	 eax, DWORD PTR _dwWorldId$[ebp]
  0000d	89 41 08	 mov	 DWORD PTR [ecx+8], eax

; 79   : #ifdef __WORLDSERVER
; 80   : 	m_dwWaitDBAckPlayerId = NULL_ID;
; 81   : #endif // __WORLDSERVER
; 82   : 
; 83   : #ifdef __CLIENT
; 84   : 	m_dwSelectedObjID = NULL_ID;
; 85   : 	m_nExtraExp = 0;
; 86   : 	m_nWndDeployingIndex  = -1;
; 87   : #endif
; 88   : #ifdef __GUILD_HOUSE_MIDDLE
; 89   : 	::memset( m_szGHName, 0, sizeof( m_szGHName ) );
; 90   : #endif // __GUILD_HOUSE_MIDDLE
; 91   : }

  00010	8b c1		 mov	 eax, ecx
  00012	c7 01 00 00 00
	00		 mov	 DWORD PTR [ecx], OFFSET ??_7CGuildHouseBase@@6B@
; File C:\Program Files\Microsoft Visual Studio\2022\Professional\VC\Tools\MSVC\14.44.35207\include\vector

; 400  :     _CONSTEXPR20 _Vector_val() noexcept : _Myfirst(), _Mylast(), _Myend() {}

  00018	c7 41 0c 00 00
	00 00		 mov	 DWORD PTR [ecx+12], 0
  0001f	c7 41 10 00 00
	00 00		 mov	 DWORD PTR [ecx+16], 0
  00026	c7 41 14 00 00
	00 00		 mov	 DWORD PTR [ecx+20], 0
; File C:\IAGOS\server\v18\Source\Source\_Common\GuildHouse.cpp

; 78   : {

  0002d	89 4d fc	 mov	 DWORD PTR _this$[ebp], ecx

; 74   : :m_dwGuildId( dwGuildId ), m_dwWorldId( dwWorldId ), m_tUpkeepTime( 0 )

  00030	c7 41 18 00 00
	00 00		 mov	 DWORD PTR [ecx+24], 0

; 79   : #ifdef __WORLDSERVER
; 80   : 	m_dwWaitDBAckPlayerId = NULL_ID;
; 81   : #endif // __WORLDSERVER
; 82   : 
; 83   : #ifdef __CLIENT
; 84   : 	m_dwSelectedObjID = NULL_ID;
; 85   : 	m_nExtraExp = 0;
; 86   : 	m_nWndDeployingIndex  = -1;
; 87   : #endif
; 88   : #ifdef __GUILD_HOUSE_MIDDLE
; 89   : 	::memset( m_szGHName, 0, sizeof( m_szGHName ) );
; 90   : #endif // __GUILD_HOUSE_MIDDLE
; 91   : }

  00037	8b e5		 mov	 esp, ebp
  00039	5d		 pop	 ebp
  0003a	c2 08 00	 ret	 8
??0CGuildHouseBase@@QAE@KK@Z ENDP			; CGuildHouseBase::CGuildHouseBase
_TEXT	ENDS
; Function compile flags: /Ogtp
; File C:\Program Files\Microsoft Visual Studio\2022\Professional\VC\Tools\MSVC\14.44.35207\include\vector
;	COMDAT ?_Xlength@?$vector@UGuildHouse_Furniture_Info@CGuildHouseBase@@V?$allocator@UGuildHouse_Furniture_Info@CGuildHouseBase@@@std@@@std@@CAXXZ
_TEXT	SEGMENT
?_Xlength@?$vector@UGuildHouse_Furniture_Info@CGuildHouseBase@@V?$allocator@UGuildHouse_Furniture_Info@CGuildHouseBase@@@std@@@std@@CAXXZ PROC ; std::vector<CGuildHouseBase::GuildHouse_Furniture_Info,std::allocator<CGuildHouseBase::GuildHouse_Furniture_Info> >::_Xlength, COMDAT

; 2184 :         _Xlength_error("vector too long");

  00000	68 00 00 00 00	 push	 OFFSET ??_C@_0BA@FOIKENOD@vector?5too?5long@
  00005	e8 00 00 00 00	 call	 ?_Xlength_error@std@@YAXPBD@Z ; std::_Xlength_error
$LN3@Xlength:
  0000a	cc		 int	 3
?_Xlength@?$vector@UGuildHouse_Furniture_Info@CGuildHouseBase@@V?$allocator@UGuildHouse_Furniture_Info@CGuildHouseBase@@@std@@@std@@CAXXZ ENDP ; std::vector<CGuildHouseBase::GuildHouse_Furniture_Info,std::allocator<CGuildHouseBase::GuildHouse_Furniture_Info> >::_Xlength
_TEXT	ENDS
; Function compile flags: /Ogtp
; File C:\Program Files\Microsoft Visual Studio\2022\Professional\VC\Tools\MSVC\14.44.35207\include\vector
; File C:\Program Files\Microsoft Visual Studio\2022\Professional\VC\Tools\MSVC\14.44.35207\include\xmemory
; File C:\Program Files\Microsoft Visual Studio\2022\Professional\VC\Tools\MSVC\14.44.35207\include\vector
; File C:\Program Files\Microsoft Visual Studio\2022\Professional\VC\Tools\MSVC\14.44.35207\include\xmemory
; File C:\Program Files\Microsoft Visual Studio\2022\Professional\VC\Tools\MSVC\14.44.35207\include\vector
;	COMDAT ?_Change_array@?$vector@UGuildHouse_Furniture_Info@CGuildHouseBase@@V?$allocator@UGuildHouse_Furniture_Info@CGuildHouseBase@@@std@@@std@@AAEXQAUGuildHouse_Furniture_Info@CGuildHouseBase@@II@Z
_TEXT	SEGMENT
__Newvec$ = 8						; size = 4
__Newsize$ = 12						; size = 4
__Newcapacity$ = 16					; size = 4
?_Change_array@?$vector@UGuildHouse_Furniture_Info@CGuildHouseBase@@V?$allocator@UGuildHouse_Furniture_Info@CGuildHouseBase@@@std@@@std@@AAEXQAUGuildHouse_Furniture_Info@CGuildHouseBase@@II@Z PROC ; std::vector<CGuildHouseBase::GuildHouse_Furniture_Info,std::allocator<CGuildHouseBase::GuildHouse_Furniture_Info> >::_Change_array, COMDAT
; _this$ = ecx

; 2059 :         const pointer _Newvec, const size_type _Newsize, const size_type _Newcapacity) noexcept {

  00000	55		 push	 ebp
  00001	8b ec		 mov	 ebp, esp
  00003	56		 push	 esi
  00004	57		 push	 edi
  00005	8b f9		 mov	 edi, ecx

; 2060 :         // orphan all iterators, discard old array, acquire new array
; 2061 :         auto& _Al         = _Getal();
; 2062 :         auto& _My_data    = _Mypair._Myval2;
; 2063 :         pointer& _Myfirst = _My_data._Myfirst;
; 2064 :         pointer& _Mylast  = _My_data._Mylast;
; 2065 :         pointer& _Myend   = _My_data._Myend;
; 2066 : 
; 2067 :         _My_data._Orphan_all();
; 2068 : 
; 2069 :         if (_Myfirst) { // destroy and deallocate old array

  00007	8b 37		 mov	 esi, DWORD PTR [edi]
  00009	85 f6		 test	 esi, esi
  0000b	74 40		 je	 SHORT $LN10@Change_arr

; 2070 :             _STD _Destroy_range(_Myfirst, _Mylast, _Al);
; 2071 :             _ASAN_VECTOR_REMOVE;
; 2072 :             _Al.deallocate(_Myfirst, static_cast<size_type>(_Myend - _Myfirst));

  0000d	8b 4f 08	 mov	 ecx, DWORD PTR [edi+8]
  00010	b8 39 8e e3 38	 mov	 eax, 954437177		; 38e38e39H
  00015	2b ce		 sub	 ecx, esi
  00017	f7 e9		 imul	 ecx
  00019	c1 fa 03	 sar	 edx, 3
  0001c	8b c2		 mov	 eax, edx
  0001e	c1 e8 1f	 shr	 eax, 31			; 0000001fH
  00021	03 c2		 add	 eax, edx
; File C:\Program Files\Microsoft Visual Studio\2022\Professional\VC\Tools\MSVC\14.44.35207\include\xmemory

; 985  :         _STD _Deallocate<_New_alignof<_Ty>>(_Ptr, sizeof(_Ty) * _Count);

  00023	8d 0c c0	 lea	 ecx, DWORD PTR [eax+eax*8]
  00026	c1 e1 02	 shl	 ecx, 2

; 284  :         if (_Bytes >= _Big_allocation_threshold) {

  00029	81 f9 00 10 00
	00		 cmp	 ecx, 4096		; 00001000H
  0002f	72 12		 jb	 SHORT $LN15@Change_arr

; 205  :     const uintptr_t _Ptr_container   = _Ptr_user[-1];

  00031	8b 56 fc	 mov	 edx, DWORD PTR [esi-4]
  00034	83 c1 23	 add	 ecx, 35			; 00000023H

; 206  : 
; 207  :     // If the following asserts, it likely means that we are performing
; 208  :     // an aligned delete on memory coming from an unaligned allocation.
; 209  :     _STL_ASSERT(_Ptr_user[-2] == _Big_allocation_sentinel, "invalid argument");
; 210  : 
; 211  :     // Extra paranoia on aligned allocation/deallocation; ensure _Ptr_container is
; 212  :     // in range [_Min_back_shift, _Non_user_size]
; 213  : #ifdef _DEBUG
; 214  :     constexpr uintptr_t _Min_back_shift = 2 * sizeof(void*);
; 215  : #else // ^^^ defined(_DEBUG) / !defined(_DEBUG) vvv
; 216  :     constexpr uintptr_t _Min_back_shift = sizeof(void*);
; 217  : #endif // ^^^ !defined(_DEBUG) ^^^
; 218  :     const uintptr_t _Back_shift = reinterpret_cast<uintptr_t>(_Ptr) - _Ptr_container;

  00037	2b f2		 sub	 esi, edx

; 219  :     _STL_VERIFY(_Back_shift >= _Min_back_shift && _Back_shift <= _Non_user_size, "invalid argument");

  00039	8d 46 fc	 lea	 eax, DWORD PTR [esi-4]
  0003c	83 f8 1f	 cmp	 eax, 31			; 0000001fH
  0003f	77 2f		 ja	 SHORT $LN14@Change_arr

; 220  :     _Ptr = reinterpret_cast<void*>(_Ptr_container);

  00041	8b f2		 mov	 esi, edx
$LN15@Change_arr:

; 289  :         ::operator delete(_Ptr, _Bytes);

  00043	51		 push	 ecx
  00044	56		 push	 esi
  00045	e8 00 00 00 00	 call	 ??3@YAXPAXI@Z		; operator delete
  0004a	83 c4 08	 add	 esp, 8
$LN10@Change_arr:
; File C:\Program Files\Microsoft Visual Studio\2022\Professional\VC\Tools\MSVC\14.44.35207\include\vector

; 2075 :         _Myfirst = _Newvec;

  0004d	8b 4d 08	 mov	 ecx, DWORD PTR __Newvec$[ebp]

; 2076 :         _Mylast  = _Newvec + _Newsize;

  00050	8b 45 0c	 mov	 eax, DWORD PTR __Newsize$[ebp]
  00053	89 0f		 mov	 DWORD PTR [edi], ecx
  00055	8d 04 c0	 lea	 eax, DWORD PTR [eax+eax*8]
  00058	8d 04 81	 lea	 eax, DWORD PTR [ecx+eax*4]
  0005b	89 47 04	 mov	 DWORD PTR [edi+4], eax

; 2077 :         _Myend   = _Newvec + _Newcapacity;

  0005e	8b 45 10	 mov	 eax, DWORD PTR __Newcapacity$[ebp]
  00061	8d 04 c0	 lea	 eax, DWORD PTR [eax+eax*8]
  00064	8d 04 81	 lea	 eax, DWORD PTR [ecx+eax*4]
  00067	89 47 08	 mov	 DWORD PTR [edi+8], eax
  0006a	5f		 pop	 edi
  0006b	5e		 pop	 esi

; 2079 :     }

  0006c	5d		 pop	 ebp
  0006d	c2 0c 00	 ret	 12			; 0000000cH
$LN14@Change_arr:
; File C:\Program Files\Microsoft Visual Studio\2022\Professional\VC\Tools\MSVC\14.44.35207\include\xmemory

; 219  :     _STL_VERIFY(_Back_shift >= _Min_back_shift && _Back_shift <= _Non_user_size, "invalid argument");

  00070	6a 00		 push	 0
  00072	6a 00		 push	 0
  00074	6a 00		 push	 0
  00076	6a 00		 push	 0
  00078	6a 00		 push	 0
  0007a	e8 00 00 00 00	 call	 __invoke_watson
$LN22@Change_arr:
  0007f	cc		 int	 3
?_Change_array@?$vector@UGuildHouse_Furniture_Info@CGuildHouseBase@@V?$allocator@UGuildHouse_Furniture_Info@CGuildHouseBase@@@std@@@std@@AAEXQAUGuildHouse_Furniture_Info@CGuildHouseBase@@II@Z ENDP ; std::vector<CGuildHouseBase::GuildHouse_Furniture_Info,std::allocator<CGuildHouseBase::GuildHouse_Furniture_Info> >::_Change_array
_TEXT	ENDS
; Function compile flags: /Ogtp
; File C:\Program Files\Microsoft Visual Studio\2022\Professional\VC\Tools\MSVC\14.44.35207\include\vector
; File C:\Program Files\Microsoft Visual Studio\2022\Professional\VC\Tools\MSVC\14.44.35207\include\xmemory
; File C:\Program Files\Microsoft Visual Studio\2022\Professional\VC\Tools\MSVC\14.44.35207\include\vector
; File C:\Program Files\Microsoft Visual Studio\2022\Professional\VC\Tools\MSVC\14.44.35207\include\xmemory
; File C:\Program Files\Microsoft Visual Studio\2022\Professional\VC\Tools\MSVC\14.44.35207\include\vector
; File C:\Program Files\Microsoft Visual Studio\2022\Professional\VC\Tools\MSVC\14.44.35207\include\xmemory
; File C:\Program Files\Microsoft Visual Studio\2022\Professional\VC\Tools\MSVC\14.44.35207\include\vector
;	COMDAT ??1?$vector@UGuildHouse_Furniture_Info@CGuildHouseBase@@V?$allocator@UGuildHouse_Furniture_Info@CGuildHouseBase@@@std@@@std@@QAE@XZ
_TEXT	SEGMENT
??1?$vector@UGuildHouse_Furniture_Info@CGuildHouseBase@@V?$allocator@UGuildHouse_Furniture_Info@CGuildHouseBase@@@std@@@std@@QAE@XZ PROC ; std::vector<CGuildHouseBase::GuildHouse_Furniture_Info,std::allocator<CGuildHouseBase::GuildHouse_Furniture_Info> >::~vector<CGuildHouseBase::GuildHouse_Furniture_Info,std::allocator<CGuildHouseBase::GuildHouse_Furniture_Info> >, COMDAT
; _this$ = ecx

; 829  :     _CONSTEXPR20 ~vector() noexcept {

  00000	56		 push	 esi
  00001	57		 push	 edi
  00002	8b f9		 mov	 edi, ecx

; 2090 :         if (_Myfirst) { // destroy and deallocate old array

  00004	8b 37		 mov	 esi, DWORD PTR [edi]
  00006	85 f6		 test	 esi, esi
  00008	74 54		 je	 SHORT $LN5@vector

; 2091 :             _STD _Destroy_range(_Myfirst, _Mylast, _Al);
; 2092 :             _ASAN_VECTOR_REMOVE;
; 2093 :             _Al.deallocate(_Myfirst, static_cast<size_type>(_Myend - _Myfirst));

  0000a	8b 4f 08	 mov	 ecx, DWORD PTR [edi+8]
  0000d	b8 39 8e e3 38	 mov	 eax, 954437177		; 38e38e39H
  00012	2b ce		 sub	 ecx, esi
  00014	f7 e9		 imul	 ecx
  00016	c1 fa 03	 sar	 edx, 3
  00019	8b c2		 mov	 eax, edx
  0001b	c1 e8 1f	 shr	 eax, 31			; 0000001fH
  0001e	03 c2		 add	 eax, edx
; File C:\Program Files\Microsoft Visual Studio\2022\Professional\VC\Tools\MSVC\14.44.35207\include\xmemory

; 985  :         _STD _Deallocate<_New_alignof<_Ty>>(_Ptr, sizeof(_Ty) * _Count);

  00020	8d 0c c0	 lea	 ecx, DWORD PTR [eax+eax*8]
  00023	c1 e1 02	 shl	 ecx, 2

; 284  :         if (_Bytes >= _Big_allocation_threshold) {

  00026	81 f9 00 10 00
	00		 cmp	 ecx, 4096		; 00001000H
  0002c	72 12		 jb	 SHORT $LN18@vector

; 205  :     const uintptr_t _Ptr_container   = _Ptr_user[-1];

  0002e	8b 56 fc	 mov	 edx, DWORD PTR [esi-4]
  00031	83 c1 23	 add	 ecx, 35			; 00000023H

; 206  : 
; 207  :     // If the following asserts, it likely means that we are performing
; 208  :     // an aligned delete on memory coming from an unaligned allocation.
; 209  :     _STL_ASSERT(_Ptr_user[-2] == _Big_allocation_sentinel, "invalid argument");
; 210  : 
; 211  :     // Extra paranoia on aligned allocation/deallocation; ensure _Ptr_container is
; 212  :     // in range [_Min_back_shift, _Non_user_size]
; 213  : #ifdef _DEBUG
; 214  :     constexpr uintptr_t _Min_back_shift = 2 * sizeof(void*);
; 215  : #else // ^^^ defined(_DEBUG) / !defined(_DEBUG) vvv
; 216  :     constexpr uintptr_t _Min_back_shift = sizeof(void*);
; 217  : #endif // ^^^ !defined(_DEBUG) ^^^
; 218  :     const uintptr_t _Back_shift = reinterpret_cast<uintptr_t>(_Ptr) - _Ptr_container;

  00034	2b f2		 sub	 esi, edx

; 219  :     _STL_VERIFY(_Back_shift >= _Min_back_shift && _Back_shift <= _Non_user_size, "invalid argument");

  00036	8d 46 fc	 lea	 eax, DWORD PTR [esi-4]
  00039	83 f8 1f	 cmp	 eax, 31			; 0000001fH
  0003c	77 23		 ja	 SHORT $LN17@vector

; 220  :     _Ptr = reinterpret_cast<void*>(_Ptr_container);

  0003e	8b f2		 mov	 esi, edx
$LN18@vector:

; 289  :         ::operator delete(_Ptr, _Bytes);

  00040	51		 push	 ecx
  00041	56		 push	 esi
  00042	e8 00 00 00 00	 call	 ??3@YAXPAXI@Z		; operator delete
; File C:\Program Files\Microsoft Visual Studio\2022\Professional\VC\Tools\MSVC\14.44.35207\include\vector

; 2095 :             _Myfirst = nullptr;

  00047	c7 07 00 00 00
	00		 mov	 DWORD PTR [edi], 0
; File C:\Program Files\Microsoft Visual Studio\2022\Professional\VC\Tools\MSVC\14.44.35207\include\xmemory

; 289  :         ::operator delete(_Ptr, _Bytes);

  0004d	83 c4 08	 add	 esp, 8
; File C:\Program Files\Microsoft Visual Studio\2022\Professional\VC\Tools\MSVC\14.44.35207\include\vector

; 2096 :             _Mylast  = nullptr;

  00050	c7 47 04 00 00
	00 00		 mov	 DWORD PTR [edi+4], 0

; 2097 :             _Myend   = nullptr;

  00057	c7 47 08 00 00
	00 00		 mov	 DWORD PTR [edi+8], 0
$LN5@vector:
  0005e	5f		 pop	 edi

; 835  :     }

  0005f	5e		 pop	 esi
  00060	c3		 ret	 0
$LN17@vector:
; File C:\Program Files\Microsoft Visual Studio\2022\Professional\VC\Tools\MSVC\14.44.35207\include\xmemory

; 219  :     _STL_VERIFY(_Back_shift >= _Min_back_shift && _Back_shift <= _Non_user_size, "invalid argument");

  00061	6a 00		 push	 0
  00063	6a 00		 push	 0
  00065	6a 00		 push	 0
  00067	6a 00		 push	 0
  00069	6a 00		 push	 0
  0006b	e8 00 00 00 00	 call	 __invoke_watson
$LN26@vector:
  00070	cc		 int	 3
??1?$vector@UGuildHouse_Furniture_Info@CGuildHouseBase@@V?$allocator@UGuildHouse_Furniture_Info@CGuildHouseBase@@@std@@@std@@QAE@XZ ENDP ; std::vector<CGuildHouseBase::GuildHouse_Furniture_Info,std::allocator<CGuildHouseBase::GuildHouse_Furniture_Info> >::~vector<CGuildHouseBase::GuildHouse_Furniture_Info,std::allocator<CGuildHouseBase::GuildHouse_Furniture_Info> >
_TEXT	ENDS
; Function compile flags: /Ogtp
; File C:\IAGOS\server\v18\Source\Source\_Common\GuildHouse.cpp
; File C:\IAGOS\server\v18\Source\Source\_Network\Misc\Include\Ar.h
; File C:\IAGOS\server\v18\Source\Source\_Common\GuildHouse.cpp
; File C:\IAGOS\server\v18\Source\Source\_Network\Misc\Include\Ar.h
; File C:\IAGOS\server\v18\Source\Source\_Common\GuildHouse.cpp
; File C:\IAGOS\server\v18\Source\Source\_Network\Misc\Include\Ar.h
; File C:\IAGOS\server\v18\Source\Source\_Common\GuildHouse.cpp
; File C:\IAGOS\server\v18\Source\Source\_Network\Misc\Include\Ar.h
; File C:\IAGOS\server\v18\Source\Source\_Common\GuildHouse.cpp
; File C:\Program Files (x86)\Windows Kits\10\Include\10.0.26100.0\ucrt\time.h
; File C:\IAGOS\server\v18\Source\Source\_Common\GuildHouse.cpp
; File C:\Program Files (x86)\Windows Kits\10\Include\10.0.26100.0\ucrt\time.h
; File C:\IAGOS\server\v18\Source\Source\_Common\GuildHouse.cpp
; File C:\Program Files (x86)\Windows Kits\10\Include\10.0.26100.0\ucrt\time.h
; File C:\IAGOS\server\v18\Source\Source\_Common\GuildHouse.cpp
;	COMDAT ?Serialize@GuildHouse_Furniture_Info@CGuildHouseBase@@QAEXAAVCAr@@@Z
_TEXT	SEGMENT
_ar$ = 8						; size = 4
$T1 = 8							; size = 4
$T2 = 8							; size = 4
?Serialize@GuildHouse_Furniture_Info@CGuildHouseBase@@QAEXAAVCAr@@@Z PROC ; CGuildHouseBase::GuildHouse_Furniture_Info::Serialize, COMDAT
; _this$ = ecx

; 51   : {

  00000	55		 push	 ebp
  00001	8b ec		 mov	 ebp, esp
  00003	53		 push	 ebx
  00004	56		 push	 esi
  00005	57		 push	 edi
; File C:\IAGOS\server\v18\Source\Source\_Network\Misc\Include\Ar.h

; 146  : 	return (m_nMode & CAr::load) == 0;

  00006	8b 7d 08	 mov	 edi, DWORD PTR _ar$[ebp]
  00009	8d 41 18	 lea	 eax, DWORD PTR [ecx+24]
; File C:\IAGOS\server\v18\Source\Source\_Common\GuildHouse.cpp

; 52   : 	if( ar.IsStoring() )

  0000c	50		 push	 eax
; File C:\IAGOS\server\v18\Source\Source\_Network\Misc\Include\Ar.h

; 146  : 	return (m_nMode & CAr::load) == 0;

  0000d	8d 51 14	 lea	 edx, DWORD PTR [ecx+20]
; File C:\IAGOS\server\v18\Source\Source\_Common\GuildHouse.cpp

; 52   : 	if( ar.IsStoring() )

  00010	52		 push	 edx
; File C:\IAGOS\server\v18\Source\Source\_Network\Misc\Include\Ar.h

; 146  : 	return (m_nMode & CAr::load) == 0;

  00011	f6 07 01	 test	 BYTE PTR [edi], 1
  00014	8d 59 08	 lea	 ebx, DWORD PTR [ecx+8]
; File C:\IAGOS\server\v18\Source\Source\_Common\GuildHouse.cpp

; 52   : 	if( ar.IsStoring() )

  00017	8d 41 04	 lea	 eax, DWORD PTR [ecx+4]
  0001a	53		 push	 ebx
  0001b	50		 push	 eax
; File C:\IAGOS\server\v18\Source\Source\_Network\Misc\Include\Ar.h

; 146  : 	return (m_nMode & CAr::load) == 0;

  0001c	8d 71 1c	 lea	 esi, DWORD PTR [ecx+28]
; File C:\IAGOS\server\v18\Source\Source\_Common\GuildHouse.cpp

; 52   : 	if( ar.IsStoring() )

  0001f	51		 push	 ecx
  00020	8b cf		 mov	 ecx, edi
  00022	75 62		 jne	 SHORT $LN2@Serialize

; 53   : 	{
; 54   : 		ar << dwItemId << bSetup << vPos << fAngle << objId;

  00024	e8 00 00 00 00	 call	 ??$?6K@CAr@@QAEAAV0@ABK@Z ; CAr::operator<<<unsigned long>
  00029	8b c8		 mov	 ecx, eax
  0002b	e8 00 00 00 00	 call	 ??$?6H@CAr@@QAEAAV0@ABH@Z ; CAr::operator<<<int>
  00030	8b c8		 mov	 ecx, eax
  00032	e8 00 00 00 00	 call	 ??$?6UD3DXVECTOR3@@@CAr@@QAEAAV0@ABUD3DXVECTOR3@@@Z ; CAr::operator<<<D3DXVECTOR3>
  00037	8b c8		 mov	 ecx, eax
  00039	e8 00 00 00 00	 call	 ??$?6M@CAr@@QAEAAV0@ABM@Z ; CAr::operator<<<float>
  0003e	8b c8		 mov	 ecx, eax
  00040	e8 00 00 00 00	 call	 ??$?6K@CAr@@QAEAAV0@ABK@Z ; CAr::operator<<<unsigned long>

; 55   : 		if( tKeepTime > 0 )

  00045	83 3e 00	 cmp	 DWORD PTR [esi], 0
  00048	7e 23		 jle	 SHORT $LN4@Serialize
; File C:\Program Files (x86)\Windows Kits\10\Include\10.0.26100.0\ucrt\time.h

; 428  :             return _time32(_Time);

  0004a	6a 00		 push	 0
  0004c	e8 00 00 00 00	 call	 __time32
; File C:\IAGOS\server\v18\Source\Source\_Common\GuildHouse.cpp

; 56   : 			ar << tKeepTime - time_null();

  00051	8b 16		 mov	 edx, DWORD PTR [esi]
; File C:\Program Files (x86)\Windows Kits\10\Include\10.0.26100.0\ucrt\time.h

; 428  :             return _time32(_Time);

  00053	83 c4 04	 add	 esp, 4
; File C:\IAGOS\server\v18\Source\Source\_Common\GuildHouse.cpp

; 56   : 			ar << tKeepTime - time_null();

  00056	2b d0		 sub	 edx, eax
  00058	8b cf		 mov	 ecx, edi
  0005a	8d 45 08	 lea	 eax, DWORD PTR $T1[ebp]
  0005d	89 55 08	 mov	 DWORD PTR $T1[ebp], edx
  00060	50		 push	 eax
  00061	e8 00 00 00 00	 call	 ??$?6J@CAr@@QAEAAV0@ABJ@Z ; CAr::operator<<<long>
  00066	5f		 pop	 edi

; 66   : 	}
; 67   : }

  00067	5e		 pop	 esi
  00068	5b		 pop	 ebx
  00069	5d		 pop	 ebp
  0006a	c2 04 00	 ret	 4
$LN4@Serialize:

; 57   : 		else
; 58   : 			ar << static_cast<time_t>( 0 );

  0006d	8d 45 08	 lea	 eax, DWORD PTR $T2[ebp]
  00070	c7 45 08 00 00
	00 00		 mov	 DWORD PTR $T2[ebp], 0
  00077	50		 push	 eax
  00078	8b cf		 mov	 ecx, edi
  0007a	e8 00 00 00 00	 call	 ??$?6J@CAr@@QAEAAV0@ABJ@Z ; CAr::operator<<<long>
  0007f	5f		 pop	 edi

; 66   : 	}
; 67   : }

  00080	5e		 pop	 esi
  00081	5b		 pop	 ebx
  00082	5d		 pop	 ebp
  00083	c2 04 00	 ret	 4
$LN2@Serialize:

; 59   : 	}
; 60   : 	else	
; 61   : 	{
; 62   : 		ar >> dwItemId >> bSetup >> vPos >> fAngle >> objId;

  00086	e8 00 00 00 00	 call	 ??$?5K@CAr@@QAEAAV0@AAK@Z ; CAr::operator>><unsigned long>
  0008b	8b c8		 mov	 ecx, eax
  0008d	e8 00 00 00 00	 call	 ??$?5H@CAr@@QAEAAV0@AAH@Z ; CAr::operator>><int>
  00092	8b c8		 mov	 ecx, eax
  00094	e8 00 00 00 00	 call	 ??$?5UD3DXVECTOR3@@@CAr@@QAEAAV0@AAUD3DXVECTOR3@@@Z ; CAr::operator>><D3DXVECTOR3>
  00099	8b c8		 mov	 ecx, eax
  0009b	e8 00 00 00 00	 call	 ??$?5M@CAr@@QAEAAV0@AAM@Z ; CAr::operator>><float>
  000a0	8b c8		 mov	 ecx, eax
  000a2	e8 00 00 00 00	 call	 ??$?5K@CAr@@QAEAAV0@AAK@Z ; CAr::operator>><unsigned long>

; 63   : 		ar >> tKeepTime;

  000a7	56		 push	 esi
  000a8	8b cf		 mov	 ecx, edi
  000aa	e8 00 00 00 00	 call	 ??$?5J@CAr@@QAEAAV0@AAJ@Z ; CAr::operator>><long>

; 64   : 		if( tKeepTime > 0 )

  000af	83 3e 00	 cmp	 DWORD PTR [esi], 0
  000b2	7e 0c		 jle	 SHORT $LN6@Serialize
; File C:\Program Files (x86)\Windows Kits\10\Include\10.0.26100.0\ucrt\time.h

; 428  :             return _time32(_Time);

  000b4	6a 00		 push	 0
  000b6	e8 00 00 00 00	 call	 __time32
  000bb	83 c4 04	 add	 esp, 4
; File C:\IAGOS\server\v18\Source\Source\_Common\GuildHouse.cpp

; 65   : 			tKeepTime += time_null();

  000be	01 06		 add	 DWORD PTR [esi], eax
$LN6@Serialize:

; 66   : 	}
; 67   : }

  000c0	5f		 pop	 edi
  000c1	5e		 pop	 esi
  000c2	5b		 pop	 ebx
  000c3	5d		 pop	 ebp
  000c4	c2 04 00	 ret	 4
?Serialize@GuildHouse_Furniture_Info@CGuildHouseBase@@QAEXAAVCAr@@@Z ENDP ; CGuildHouseBase::GuildHouse_Furniture_Info::Serialize
_TEXT	ENDS
; Function compile flags: /Ogtp
; File C:\IAGOS\server\v18\Source\Source\_Common\GuildHouse.cpp
; File C:\Program Files (x86)\Windows Kits\10\Include\10.0.26100.0\ucrt\time.h
; File C:\IAGOS\server\v18\Source\Source\_Common\GuildHouse.cpp
; File C:\Program Files (x86)\Windows Kits\10\Include\10.0.26100.0\ucrt\time.h
; File C:\IAGOS\server\v18\Source\Source\_Common\GuildHouse.cpp
;	COMDAT ??0GuildHouse_Furniture_Info@CGuildHouseBase@@QAE@KHUD3DXVECTOR3@@MJ@Z
_TEXT	SEGMENT
_dwII$ = 8						; size = 4
_bS$ = 12						; size = 4
_v$ = 16						; size = 12
_fA$ = 28						; size = 4
_tK$ = 32						; size = 4
??0GuildHouse_Furniture_Info@CGuildHouseBase@@QAE@KHUD3DXVECTOR3@@MJ@Z PROC ; CGuildHouseBase::GuildHouse_Furniture_Info::GuildHouse_Furniture_Info, COMDAT
; _this$ = ecx

; 47   : {

  00000	55		 push	 ebp
  00001	8b ec		 mov	 ebp, esp

; 43   : :dwItemId( dwII ), bSetup( bS ), vPos( v ), fAngle( fA ), objId( NULL_ID ), tKeepTime( time_null() + tK )

  00003	f3 0f 7e 45 10	 movq	 xmm0, QWORD PTR _v$[ebp]
  00008	8b 45 08	 mov	 eax, DWORD PTR _dwII$[ebp]
  0000b	56		 push	 esi
  0000c	8b f1		 mov	 esi, ecx
; File C:\Program Files (x86)\Windows Kits\10\Include\10.0.26100.0\ucrt\time.h

; 428  :             return _time32(_Time);

  0000e	6a 00		 push	 0
; File C:\IAGOS\server\v18\Source\Source\_Common\GuildHouse.cpp

; 43   : :dwItemId( dwII ), bSetup( bS ), vPos( v ), fAngle( fA ), objId( NULL_ID ), tKeepTime( time_null() + tK )

  00010	89 06		 mov	 DWORD PTR [esi], eax
  00012	8b 45 0c	 mov	 eax, DWORD PTR _bS$[ebp]
  00015	66 0f d6 46 08	 movq	 QWORD PTR [esi+8], xmm0
  0001a	f3 0f 10 45 1c	 movss	 xmm0, DWORD PTR _fA$[ebp]
  0001f	89 46 04	 mov	 DWORD PTR [esi+4], eax
  00022	8b 45 18	 mov	 eax, DWORD PTR _v$[ebp+8]
  00025	89 46 10	 mov	 DWORD PTR [esi+16], eax
  00028	f3 0f 11 46 14	 movss	 DWORD PTR [esi+20], xmm0
  0002d	c7 46 18 ff ff
	ff ff		 mov	 DWORD PTR [esi+24], -1
; File C:\Program Files (x86)\Windows Kits\10\Include\10.0.26100.0\ucrt\time.h

; 428  :             return _time32(_Time);

  00034	e8 00 00 00 00	 call	 __time32
  00039	83 c4 04	 add	 esp, 4
; File C:\IAGOS\server\v18\Source\Source\_Common\GuildHouse.cpp

; 45   : , nSeqNum( 0 )

  0003c	c7 46 20 00 00
	00 00		 mov	 DWORD PTR [esi+32], 0
  00043	03 45 20	 add	 eax, DWORD PTR _tK$[ebp]
  00046	89 46 1c	 mov	 DWORD PTR [esi+28], eax

; 48   : }

  00049	8b c6		 mov	 eax, esi
  0004b	5e		 pop	 esi
  0004c	5d		 pop	 ebp
  0004d	c2 1c 00	 ret	 28			; 0000001cH
??0GuildHouse_Furniture_Info@CGuildHouseBase@@QAE@KHUD3DXVECTOR3@@MJ@Z ENDP ; CGuildHouseBase::GuildHouse_Furniture_Info::GuildHouse_Furniture_Info
_TEXT	ENDS
; Function compile flags: /Ogtp
; File C:\Program Files\Microsoft Visual Studio\2022\Professional\VC\Tools\MSVC\14.44.35207\include\xmemory
;	COMDAT ??$_Allocate_manually_vector_aligned@U_Default_allocate_traits@std@@@std@@YAPAXI@Z
_TEXT	SEGMENT
__Bytes$ = 8						; size = 4
??$_Allocate_manually_vector_aligned@U_Default_allocate_traits@std@@@std@@YAPAXI@Z PROC ; std::_Allocate_manually_vector_aligned<std::_Default_allocate_traits>, COMDAT

; 182  : __declspec(allocator) void* _Allocate_manually_vector_aligned(const size_t _Bytes) {

  00000	55		 push	 ebp
  00001	8b ec		 mov	 ebp, esp

; 183  :     // allocate _Bytes manually aligned to at least _Big_allocation_alignment
; 184  :     const size_t _Block_size = _Non_user_size + _Bytes;

  00003	8b 45 08	 mov	 eax, DWORD PTR __Bytes$[ebp]
  00006	8d 48 23	 lea	 ecx, DWORD PTR [eax+35]

; 185  :     if (_Block_size <= _Bytes) {

  00009	3b c8		 cmp	 ecx, eax
  0000b	0f 86 00 00 00
	00		 jbe	 ?_Throw_bad_array_new_length@std@@YAXXZ ; std::_Throw_bad_array_new_length

; 136  :         return ::operator new(_Bytes);

  00011	51		 push	 ecx
  00012	e8 00 00 00 00	 call	 ??2@YAPAXI@Z		; operator new

; 186  :         _Throw_bad_array_new_length(); // add overflow
; 187  :     }
; 188  : 
; 189  :     const uintptr_t _Ptr_container = reinterpret_cast<uintptr_t>(_Traits::_Allocate(_Block_size));

  00017	8b c8		 mov	 ecx, eax

; 136  :         return ::operator new(_Bytes);

  00019	83 c4 04	 add	 esp, 4

; 190  :     _STL_VERIFY(_Ptr_container != 0, "invalid argument"); // validate even in release since we're doing p[-1]

  0001c	85 c9		 test	 ecx, ecx
  0001e	74 0b		 je	 SHORT $LN9@Allocate_m

; 191  :     void* const _Ptr = reinterpret_cast<void*>((_Ptr_container + _Non_user_size) & ~(_Big_allocation_alignment - 1));

  00020	8d 41 23	 lea	 eax, DWORD PTR [ecx+35]
  00023	83 e0 e0	 and	 eax, -32		; ffffffe0H

; 192  :     static_cast<uintptr_t*>(_Ptr)[-1] = _Ptr_container;

  00026	89 48 fc	 mov	 DWORD PTR [eax-4], ecx

; 193  : 
; 194  : #ifdef _DEBUG
; 195  :     static_cast<uintptr_t*>(_Ptr)[-2] = _Big_allocation_sentinel;
; 196  : #endif // defined(_DEBUG)
; 197  :     return _Ptr;
; 198  : }

  00029	5d		 pop	 ebp
  0002a	c3		 ret	 0
$LN9@Allocate_m:

; 190  :     _STL_VERIFY(_Ptr_container != 0, "invalid argument"); // validate even in release since we're doing p[-1]

  0002b	6a 00		 push	 0
  0002d	6a 00		 push	 0
  0002f	6a 00		 push	 0
  00031	6a 00		 push	 0
  00033	6a 00		 push	 0
  00035	e8 00 00 00 00	 call	 __invoke_watson
$LN7@Allocate_m:
  0003a	cc		 int	 3
??$_Allocate_manually_vector_aligned@U_Default_allocate_traits@std@@@std@@YAPAXI@Z ENDP ; std::_Allocate_manually_vector_aligned<std::_Default_allocate_traits>
_TEXT	ENDS
; Function compile flags: /Ogtp
; File C:\Program Files\Microsoft Visual Studio\2022\Professional\VC\Tools\MSVC\14.44.35207\include\xtree
;	COMDAT ?_Throw_tree_length_error@std@@YAXXZ
_TEXT	SEGMENT
?_Throw_tree_length_error@std@@YAXXZ PROC		; std::_Throw_tree_length_error, COMDAT

; 417  :     _Xlength_error("map/set too long");

  00000	68 00 00 00 00	 push	 OFFSET ??_C@_0BB@GCADKGJO@map?1set?5too?5long@
  00005	e8 00 00 00 00	 call	 ?_Xlength_error@std@@YAXPBD@Z ; std::_Xlength_error
$LN3@Throw_tree:
  0000a	cc		 int	 3
?_Throw_tree_length_error@std@@YAXXZ ENDP		; std::_Throw_tree_length_error
_TEXT	ENDS
; Function compile flags: /Ogtp
; File C:\Program Files\Microsoft Visual Studio\2022\Professional\VC\Tools\MSVC\14.44.35207\include\xmemory
;	COMDAT ?_Throw_bad_array_new_length@std@@YAXXZ
_TEXT	SEGMENT
$T1 = -12						; size = 12
?_Throw_bad_array_new_length@std@@YAXXZ PROC		; std::_Throw_bad_array_new_length, COMDAT

; 107  : [[noreturn]] inline void _Throw_bad_array_new_length() {

  00000	55		 push	 ebp
  00001	8b ec		 mov	 ebp, esp
  00003	83 ec 0c	 sub	 esp, 12			; 0000000cH

; 108  :     _THROW(bad_array_new_length{});

  00006	8d 4d f4	 lea	 ecx, DWORD PTR $T1[ebp]
  00009	e8 00 00 00 00	 call	 ??0bad_array_new_length@std@@QAE@XZ ; std::bad_array_new_length::bad_array_new_length
  0000e	68 00 00 00 00	 push	 OFFSET __TI3?AVbad_array_new_length@std@@
  00013	8d 45 f4	 lea	 eax, DWORD PTR $T1[ebp]
  00016	50		 push	 eax
  00017	e8 00 00 00 00	 call	 __CxxThrowException@8
$LN3@Throw_bad_:
  0001c	cc		 int	 3
?_Throw_bad_array_new_length@std@@YAXXZ ENDP		; std::_Throw_bad_array_new_length
_TEXT	ENDS
; Function compile flags: /Ogtp
; File C:\Program Files\Microsoft Visual Studio\2022\Professional\VC\Tools\MSVC\14.44.35207\include\vcruntime_exception.h
;	COMDAT ??_Gbad_array_new_length@std@@UAEPAXI@Z
_TEXT	SEGMENT
___flags$ = 8						; size = 4
??_Gbad_array_new_length@std@@UAEPAXI@Z PROC		; std::bad_array_new_length::`scalar deleting destructor', COMDAT
; _this$ = ecx
  00000	55		 push	 ebp
  00001	8b ec		 mov	 ebp, esp

; 90   :     {

  00003	56		 push	 esi
  00004	8b f1		 mov	 esi, ecx

; 91   :         __std_exception_destroy(&_Data);

  00006	8d 46 04	 lea	 eax, DWORD PTR [esi+4]
  00009	c7 06 00 00 00
	00		 mov	 DWORD PTR [esi], OFFSET ??_7exception@std@@6B@
  0000f	50		 push	 eax
  00010	e8 00 00 00 00	 call	 ___std_exception_destroy
  00015	83 c4 04	 add	 esp, 4
  00018	f6 45 08 01	 test	 BYTE PTR ___flags$[ebp], 1
  0001c	74 0b		 je	 SHORT $LN18@scalar
  0001e	6a 0c		 push	 12			; 0000000cH
  00020	56		 push	 esi
  00021	e8 00 00 00 00	 call	 ??3@YAXPAXI@Z		; operator delete
  00026	83 c4 08	 add	 esp, 8
$LN18@scalar:
  00029	8b c6		 mov	 eax, esi
  0002b	5e		 pop	 esi
  0002c	5d		 pop	 ebp
  0002d	c2 04 00	 ret	 4
??_Gbad_array_new_length@std@@UAEPAXI@Z ENDP		; std::bad_array_new_length::`scalar deleting destructor'
_TEXT	ENDS
; Function compile flags: /Ogtp
; File C:\Program Files\Microsoft Visual Studio\2022\Professional\VC\Tools\MSVC\14.44.35207\include\vcruntime_exception.h
;	COMDAT ??0bad_array_new_length@std@@QAE@ABV01@@Z
_TEXT	SEGMENT
___that$ = 8						; size = 4
??0bad_array_new_length@std@@QAE@ABV01@@Z PROC		; std::bad_array_new_length::bad_array_new_length, COMDAT
; _this$ = ecx
  00000	55		 push	 ebp
  00001	8b ec		 mov	 ebp, esp

; 73   :     {

  00003	56		 push	 esi
  00004	8b f1		 mov	 esi, ecx
  00006	0f 57 c0	 xorps	 xmm0, xmm0

; 72   :         : _Data()

  00009	8d 46 04	 lea	 eax, DWORD PTR [esi+4]

; 74   :         __std_exception_copy(&_Other._Data, &_Data);

  0000c	50		 push	 eax
  0000d	c7 06 00 00 00
	00		 mov	 DWORD PTR [esi], OFFSET ??_7exception@std@@6B@
  00013	66 0f d6 00	 movq	 QWORD PTR [eax], xmm0
  00017	8b 45 08	 mov	 eax, DWORD PTR ___that$[ebp]
  0001a	83 c0 04	 add	 eax, 4
  0001d	50		 push	 eax
  0001e	e8 00 00 00 00	 call	 ___std_exception_copy
  00023	83 c4 08	 add	 esp, 8
  00026	c7 06 00 00 00
	00		 mov	 DWORD PTR [esi], OFFSET ??_7bad_array_new_length@std@@6B@
  0002c	8b c6		 mov	 eax, esi
  0002e	5e		 pop	 esi
  0002f	5d		 pop	 ebp
  00030	c2 04 00	 ret	 4
??0bad_array_new_length@std@@QAE@ABV01@@Z ENDP		; std::bad_array_new_length::bad_array_new_length
_TEXT	ENDS
; Function compile flags: /Ogtp
; File C:\Program Files\Microsoft Visual Studio\2022\Professional\VC\Tools\MSVC\14.44.35207\include\vcruntime_exception.h
;	COMDAT ??1bad_array_new_length@std@@UAE@XZ
_TEXT	SEGMENT
??1bad_array_new_length@std@@UAE@XZ PROC		; std::bad_array_new_length::~bad_array_new_length, COMDAT
; _this$ = ecx

; 91   :         __std_exception_destroy(&_Data);

  00000	8d 41 04	 lea	 eax, DWORD PTR [ecx+4]
  00003	c7 01 00 00 00
	00		 mov	 DWORD PTR [ecx], OFFSET ??_7exception@std@@6B@
  00009	50		 push	 eax
  0000a	e8 00 00 00 00	 call	 ___std_exception_destroy
  0000f	59		 pop	 ecx
  00010	c3		 ret	 0
??1bad_array_new_length@std@@UAE@XZ ENDP		; std::bad_array_new_length::~bad_array_new_length
_TEXT	ENDS
; Function compile flags: /Ogtp
; File C:\Program Files\Microsoft Visual Studio\2022\Professional\VC\Tools\MSVC\14.44.35207\include\vcruntime_exception.h
;	COMDAT ??0bad_array_new_length@std@@QAE@XZ
_TEXT	SEGMENT
??0bad_array_new_length@std@@QAE@XZ PROC		; std::bad_array_new_length::bad_array_new_length, COMDAT
; _this$ = ecx

; 144  :     {

  00000	0f 57 c0	 xorps	 xmm0, xmm0

; 145  :     }

  00003	8b c1		 mov	 eax, ecx

; 66   :         : _Data()

  00005	66 0f d6 41 04	 movq	 QWORD PTR [ecx+4], xmm0

; 67   :     {
; 68   :         _Data._What = _Message;

  0000a	c7 41 04 00 00
	00 00		 mov	 DWORD PTR [ecx+4], OFFSET ??_C@_0BF@KINCDENJ@bad?5array?5new?5length@

; 144  :     {

  00011	c7 01 00 00 00
	00		 mov	 DWORD PTR [ecx], OFFSET ??_7bad_array_new_length@std@@6B@

; 145  :     }

  00017	c3		 ret	 0
??0bad_array_new_length@std@@QAE@XZ ENDP		; std::bad_array_new_length::bad_array_new_length
_TEXT	ENDS
; Function compile flags: /Ogtp
; File C:\Program Files\Microsoft Visual Studio\2022\Professional\VC\Tools\MSVC\14.44.35207\include\vcruntime_exception.h
;	COMDAT ??_Gbad_alloc@std@@UAEPAXI@Z
_TEXT	SEGMENT
___flags$ = 8						; size = 4
??_Gbad_alloc@std@@UAEPAXI@Z PROC			; std::bad_alloc::`scalar deleting destructor', COMDAT
; _this$ = ecx
  00000	55		 push	 ebp
  00001	8b ec		 mov	 ebp, esp

; 90   :     {

  00003	56		 push	 esi
  00004	8b f1		 mov	 esi, ecx

; 91   :         __std_exception_destroy(&_Data);

  00006	8d 46 04	 lea	 eax, DWORD PTR [esi+4]
  00009	c7 06 00 00 00
	00		 mov	 DWORD PTR [esi], OFFSET ??_7exception@std@@6B@
  0000f	50		 push	 eax
  00010	e8 00 00 00 00	 call	 ___std_exception_destroy
  00015	83 c4 04	 add	 esp, 4
  00018	f6 45 08 01	 test	 BYTE PTR ___flags$[ebp], 1
  0001c	74 0b		 je	 SHORT $LN13@scalar
  0001e	6a 0c		 push	 12			; 0000000cH
  00020	56		 push	 esi
  00021	e8 00 00 00 00	 call	 ??3@YAXPAXI@Z		; operator delete
  00026	83 c4 08	 add	 esp, 8
$LN13@scalar:
  00029	8b c6		 mov	 eax, esi
  0002b	5e		 pop	 esi
  0002c	5d		 pop	 ebp
  0002d	c2 04 00	 ret	 4
??_Gbad_alloc@std@@UAEPAXI@Z ENDP			; std::bad_alloc::`scalar deleting destructor'
_TEXT	ENDS
; Function compile flags: /Ogtp
; File C:\Program Files\Microsoft Visual Studio\2022\Professional\VC\Tools\MSVC\14.44.35207\include\vcruntime_exception.h
;	COMDAT ??0bad_alloc@std@@QAE@ABV01@@Z
_TEXT	SEGMENT
___that$ = 8						; size = 4
??0bad_alloc@std@@QAE@ABV01@@Z PROC			; std::bad_alloc::bad_alloc, COMDAT
; _this$ = ecx
  00000	55		 push	 ebp
  00001	8b ec		 mov	 ebp, esp

; 73   :     {

  00003	56		 push	 esi
  00004	8b f1		 mov	 esi, ecx
  00006	0f 57 c0	 xorps	 xmm0, xmm0

; 72   :         : _Data()

  00009	8d 46 04	 lea	 eax, DWORD PTR [esi+4]

; 74   :         __std_exception_copy(&_Other._Data, &_Data);

  0000c	50		 push	 eax
  0000d	c7 06 00 00 00
	00		 mov	 DWORD PTR [esi], OFFSET ??_7exception@std@@6B@
  00013	66 0f d6 00	 movq	 QWORD PTR [eax], xmm0
  00017	8b 45 08	 mov	 eax, DWORD PTR ___that$[ebp]
  0001a	83 c0 04	 add	 eax, 4
  0001d	50		 push	 eax
  0001e	e8 00 00 00 00	 call	 ___std_exception_copy
  00023	83 c4 08	 add	 esp, 8
  00026	c7 06 00 00 00
	00		 mov	 DWORD PTR [esi], OFFSET ??_7bad_alloc@std@@6B@
  0002c	8b c6		 mov	 eax, esi
  0002e	5e		 pop	 esi
  0002f	5d		 pop	 ebp
  00030	c2 04 00	 ret	 4
??0bad_alloc@std@@QAE@ABV01@@Z ENDP			; std::bad_alloc::bad_alloc
_TEXT	ENDS
; Function compile flags: /Ogtp
; File C:\Program Files\Microsoft Visual Studio\2022\Professional\VC\Tools\MSVC\14.44.35207\include\vcruntime_exception.h
;	COMDAT ??_Gexception@std@@UAEPAXI@Z
_TEXT	SEGMENT
___flags$ = 8						; size = 4
??_Gexception@std@@UAEPAXI@Z PROC			; std::exception::`scalar deleting destructor', COMDAT
; _this$ = ecx
  00000	55		 push	 ebp
  00001	8b ec		 mov	 ebp, esp

; 90   :     {

  00003	56		 push	 esi
  00004	8b f1		 mov	 esi, ecx

; 91   :         __std_exception_destroy(&_Data);

  00006	8d 46 04	 lea	 eax, DWORD PTR [esi+4]
  00009	c7 06 00 00 00
	00		 mov	 DWORD PTR [esi], OFFSET ??_7exception@std@@6B@
  0000f	50		 push	 eax
  00010	e8 00 00 00 00	 call	 ___std_exception_destroy
  00015	83 c4 04	 add	 esp, 4
  00018	f6 45 08 01	 test	 BYTE PTR ___flags$[ebp], 1
  0001c	74 0b		 je	 SHORT $LN8@scalar
  0001e	6a 0c		 push	 12			; 0000000cH
  00020	56		 push	 esi
  00021	e8 00 00 00 00	 call	 ??3@YAXPAXI@Z		; operator delete
  00026	83 c4 08	 add	 esp, 8
$LN8@scalar:
  00029	8b c6		 mov	 eax, esi
  0002b	5e		 pop	 esi
  0002c	5d		 pop	 ebp
  0002d	c2 04 00	 ret	 4
??_Gexception@std@@UAEPAXI@Z ENDP			; std::exception::`scalar deleting destructor'
_TEXT	ENDS
; Function compile flags: /Ogtp
; File C:\Program Files\Microsoft Visual Studio\2022\Professional\VC\Tools\MSVC\14.44.35207\include\vcruntime_exception.h
;	COMDAT ?what@exception@std@@UBEPBDXZ
_TEXT	SEGMENT
?what@exception@std@@UBEPBDXZ PROC			; std::exception::what, COMDAT
; _this$ = ecx

; 96   :         return _Data._What ? _Data._What : "Unknown exception";

  00000	8b 49 04	 mov	 ecx, DWORD PTR [ecx+4]
  00003	b8 00 00 00 00	 mov	 eax, OFFSET ??_C@_0BC@EOODALEL@Unknown?5exception@
  00008	85 c9		 test	 ecx, ecx
  0000a	0f 45 c1	 cmovne	 eax, ecx

; 97   :     }

  0000d	c3		 ret	 0
?what@exception@std@@UBEPBDXZ ENDP			; std::exception::what
_TEXT	ENDS
; Function compile flags: /Ogtp
; File C:\Program Files\Microsoft Visual Studio\2022\Professional\VC\Tools\MSVC\14.44.35207\include\vcruntime_exception.h
;	COMDAT ??1exception@std@@UAE@XZ
_TEXT	SEGMENT
??1exception@std@@UAE@XZ PROC				; std::exception::~exception, COMDAT
; _this$ = ecx

; 91   :         __std_exception_destroy(&_Data);

  00000	8d 41 04	 lea	 eax, DWORD PTR [ecx+4]
  00003	c7 01 00 00 00
	00		 mov	 DWORD PTR [ecx], OFFSET ??_7exception@std@@6B@
  00009	50		 push	 eax
  0000a	e8 00 00 00 00	 call	 ___std_exception_destroy
  0000f	59		 pop	 ecx

; 92   :     }

  00010	c3		 ret	 0
??1exception@std@@UAE@XZ ENDP				; std::exception::~exception
_TEXT	ENDS
; Function compile flags: /Ogtp
; File C:\Program Files\Microsoft Visual Studio\2022\Professional\VC\Tools\MSVC\14.44.35207\include\vcruntime_exception.h
;	COMDAT ??0exception@std@@QAE@ABV01@@Z
_TEXT	SEGMENT
__Other$ = 8						; size = 4
??0exception@std@@QAE@ABV01@@Z PROC			; std::exception::exception, COMDAT
; _this$ = ecx

; 73   :     {

  00000	55		 push	 ebp
  00001	8b ec		 mov	 ebp, esp
  00003	56		 push	 esi
  00004	8b f1		 mov	 esi, ecx
  00006	0f 57 c0	 xorps	 xmm0, xmm0
  00009	8d 46 04	 lea	 eax, DWORD PTR [esi+4]

; 74   :         __std_exception_copy(&_Other._Data, &_Data);

  0000c	50		 push	 eax
  0000d	c7 06 00 00 00
	00		 mov	 DWORD PTR [esi], OFFSET ??_7exception@std@@6B@
  00013	66 0f d6 00	 movq	 QWORD PTR [eax], xmm0
  00017	8b 45 08	 mov	 eax, DWORD PTR __Other$[ebp]
  0001a	83 c0 04	 add	 eax, 4
  0001d	50		 push	 eax
  0001e	e8 00 00 00 00	 call	 ___std_exception_copy
  00023	83 c4 08	 add	 esp, 8

; 75   :     }

  00026	8b c6		 mov	 eax, esi
  00028	5e		 pop	 esi
  00029	5d		 pop	 ebp
  0002a	c2 04 00	 ret	 4
??0exception@std@@QAE@ABV01@@Z ENDP			; std::exception::exception
_TEXT	ENDS
; Function compile flags: /Ogtp
; File C:\IAGOS\server\v18\Source\Source\_Common\GuildHouse.cpp
;	COMDAT ?__empty_global_delete@@YAXPAXI@Z
_TEXT	SEGMENT
___formal$ = 8						; size = 4
___formal$ = 12						; size = 4
?__empty_global_delete@@YAXPAXI@Z PROC			; __empty_global_delete, COMDAT

  00000	c2 00 00	 ret	 0
?__empty_global_delete@@YAXPAXI@Z ENDP			; __empty_global_delete
_TEXT	ENDS
; Function compile flags: /Ogtp
; File C:\IAGOS\server\v18\Source\Source\_Common\GuildHouse.cpp
;	COMDAT ?__empty_global_delete@@YAXPAX@Z
_TEXT	SEGMENT
___formal$ = 8						; size = 4
?__empty_global_delete@@YAXPAX@Z PROC			; __empty_global_delete, COMDAT

  00000	c2 00 00	 ret	 0
?__empty_global_delete@@YAXPAX@Z ENDP			; __empty_global_delete
_TEXT	ENDS
END
