; Listing generated by Microsoft (R) Optimizing Compiler Version 19.44.35225.0 

	TITLE	C:\IAGOS\server\v18\Source\Output\DatabaseServer\Release\GuildHouseDBCtrl.obj
	.686P
	.XMM
	include listing.inc
	.model	flat

INCLUDELIB LIBCMT
INCLUDELIB OLDNAMES

PUBLIC	?__empty_global_delete@@YAXPAX@Z		; __empty_global_delete
PUBLIC	?__empty_global_delete@@YAXPAXI@Z		; __empty_global_delete
PUBLIC	??0exception@std@@QAE@ABV01@@Z			; std::exception::exception
PUBLIC	??1exception@std@@UAE@XZ			; std::exception::~exception
PUBLIC	?what@exception@std@@UBEPBDXZ			; std::exception::what
PUBLIC	??_Gexception@std@@UAEPAXI@Z			; std::exception::`scalar deleting destructor'
PUBLIC	??0bad_alloc@std@@QAE@ABV01@@Z			; std::bad_alloc::bad_alloc
PUBLIC	??_Gbad_alloc@std@@UAEPAXI@Z			; std::bad_alloc::`scalar deleting destructor'
PUBLIC	??0bad_array_new_length@std@@QAE@XZ		; std::bad_array_new_length::bad_array_new_length
PUBLIC	??1bad_array_new_length@std@@UAE@XZ		; std::bad_array_new_length::~bad_array_new_length
PUBLIC	??0bad_array_new_length@std@@QAE@ABV01@@Z	; std::bad_array_new_length::bad_array_new_length
PUBLIC	??_Gbad_array_new_length@std@@UAEPAXI@Z		; std::bad_array_new_length::`scalar deleting destructor'
PUBLIC	?_Throw_bad_array_new_length@std@@YAXXZ		; std::_Throw_bad_array_new_length
PUBLIC	?_Throw_tree_length_error@std@@YAXXZ		; std::_Throw_tree_length_error
PUBLIC	??$_Allocate_manually_vector_aligned@U_Default_allocate_traits@std@@@std@@YAPAXI@Z ; std::_Allocate_manually_vector_aligned<std::_Default_allocate_traits>
PUBLIC	?GetFurnitureInfo@CGuildHouseBase@@QAE?AUGuildHouse_Furniture_Info@1@H@Z ; CGuildHouseBase::GetFurnitureInfo
PUBLIC	?_Insert_node@?$_Tree_val@U?$_Tree_simple_types@U?$pair@$$CBKPAVCGuildHouseBase@@@std@@@std@@@std@@QAEPAU?$_Tree_node@U?$pair@$$CBKPAVCGuildHouseBase@@@std@@PAX@2@U?$_Tree_id@PAU?$_Tree_node@U?$pair@$$CBKPAVCGuildHouseBase@@@std@@PAX@std@@@2@QAU32@@Z ; std::_Tree_val<std::_Tree_simple_types<std::pair<unsigned long const ,CGuildHouseBase *> > >::_Insert_node
PUBLIC	??0CGuildHouseDBCtrl@@QAE@XZ			; CGuildHouseDBCtrl::CGuildHouseDBCtrl
PUBLIC	??1CGuildHouseDBCtrl@@UAE@XZ			; CGuildHouseDBCtrl::~CGuildHouseDBCtrl
PUBLIC	?Handler@CGuildHouseDBCtrl@@UAEXPAUtagDB_OVERLAPPED_PLUS@@K@Z ; CGuildHouseDBCtrl::Handler
PUBLIC	?OnTimer@CGuildHouseDBCtrl@@UAEXXZ		; CGuildHouseDBCtrl::OnTimer
PUBLIC	?SendGuildHouse@CGuildHouseDBCtrl@@AAEXK@Z	; CGuildHouseDBCtrl::SendGuildHouse
PUBLIC	?CreateGuildHouse@CGuildHouseDBCtrl@@AAEXAAVCAr@@K@Z ; CGuildHouseDBCtrl::CreateGuildHouse
PUBLIC	?RemoveGuildHouse@CGuildHouseDBCtrl@@AAEXK@Z	; CGuildHouseDBCtrl::RemoveGuildHouse
PUBLIC	?RunDefaultPacket@CGuildHouseDBCtrl@@AAEXAAVCAr@@K@Z ; CGuildHouseDBCtrl::RunDefaultPacket
PUBLIC	?ExcuteQuery@CGuildHouseDBCtrl@@AAEHKPAVCGuildHouseBase@@HAAUGuildHouse_Furniture_Info@2@H@Z ; CGuildHouseDBCtrl::ExcuteQuery
PUBLIC	??_GCGuildHouseDBCtrl@@UAEPAXI@Z		; CGuildHouseDBCtrl::`scalar deleting destructor'
PUBLIC	??0CGuildHouseDBMng@@QAE@XZ			; CGuildHouseDBMng::CGuildHouseDBMng
PUBLIC	??1CGuildHouseDBMng@@QAE@XZ			; CGuildHouseDBMng::~CGuildHouseDBMng
PUBLIC	?GetInstance@CGuildHouseDBMng@@SAPAV1@XZ	; CGuildHouseDBMng::GetInstance
PUBLIC	??$?6H@CAr@@QAEAAV0@ABH@Z			; CAr::operator<<<int>
PUBLIC	??$?5H@CAr@@QAEAAV0@AAH@Z			; CAr::operator>><int>
PUBLIC	??$?6K@CAr@@QAEAAV0@ABK@Z			; CAr::operator<<<unsigned long>
PUBLIC	??$?5K@CAr@@QAEAAV0@AAK@Z			; CAr::operator>><unsigned long>
PUBLIC	??$?5J@CAr@@QAEAAV0@AAJ@Z			; CAr::operator>><long>
PUBLIC	??$?6I@CAr@@QAEAAV0@ABI@Z			; CAr::operator<<<unsigned int>
PUBLIC	??1?$_Alloc_construct_ptr@V?$allocator@U?$_Tree_node@U?$pair@$$CBKPAVCGuildHouseBase@@@std@@PAX@std@@@std@@@std@@QAE@XZ ; std::_Alloc_construct_ptr<std::allocator<std::_Tree_node<std::pair<unsigned long const ,CGuildHouseBase *>,void *> > >::~_Alloc_construct_ptr<std::allocator<std::_Tree_node<std::pair<unsigned long const ,CGuildHouseBase *>,void *> > >
PUBLIC	??_7exception@std@@6B@				; std::exception::`vftable'
PUBLIC	??_C@_0BC@EOODALEL@Unknown?5exception@		; `string'
PUBLIC	??_7bad_alloc@std@@6B@				; std::bad_alloc::`vftable'
PUBLIC	??_7bad_array_new_length@std@@6B@		; std::bad_array_new_length::`vftable'
PUBLIC	??_C@_0BF@KINCDENJ@bad?5array?5new?5length@	; `string'
PUBLIC	??_R0?AVexception@std@@@8			; std::exception `RTTI Type Descriptor'
PUBLIC	__CT??_R0?AVexception@std@@@8??0exception@std@@QAE@ABV01@@Z12
PUBLIC	__TI3?AVbad_array_new_length@std@@
PUBLIC	__CTA3?AVbad_array_new_length@std@@
PUBLIC	??_R0?AVbad_array_new_length@std@@@8		; std::bad_array_new_length `RTTI Type Descriptor'
PUBLIC	__CT??_R0?AVbad_array_new_length@std@@@8??0bad_array_new_length@std@@QAE@ABV01@@Z12
PUBLIC	??_R0?AVbad_alloc@std@@@8			; std::bad_alloc `RTTI Type Descriptor'
PUBLIC	__CT??_R0?AVbad_alloc@std@@@8??0bad_alloc@std@@QAE@ABV01@@Z12
PUBLIC	??_C@_0BB@GCADKGJO@map?1set?5too?5long@		; `string'
PUBLIC	??_R4exception@std@@6B@				; std::exception::`RTTI Complete Object Locator'
PUBLIC	??_R3exception@std@@8				; std::exception::`RTTI Class Hierarchy Descriptor'
PUBLIC	??_R2exception@std@@8				; std::exception::`RTTI Base Class Array'
PUBLIC	??_R1A@?0A@EA@exception@std@@8			; std::exception::`RTTI Base Class Descriptor at (0,-1,0,64)'
PUBLIC	??_R4bad_array_new_length@std@@6B@		; std::bad_array_new_length::`RTTI Complete Object Locator'
PUBLIC	??_R3bad_array_new_length@std@@8		; std::bad_array_new_length::`RTTI Class Hierarchy Descriptor'
PUBLIC	??_R2bad_array_new_length@std@@8		; std::bad_array_new_length::`RTTI Base Class Array'
PUBLIC	??_R1A@?0A@EA@bad_array_new_length@std@@8	; std::bad_array_new_length::`RTTI Base Class Descriptor at (0,-1,0,64)'
PUBLIC	??_R1A@?0A@EA@bad_alloc@std@@8			; std::bad_alloc::`RTTI Base Class Descriptor at (0,-1,0,64)'
PUBLIC	??_R3bad_alloc@std@@8				; std::bad_alloc::`RTTI Class Hierarchy Descriptor'
PUBLIC	??_R2bad_alloc@std@@8				; std::bad_alloc::`RTTI Base Class Array'
PUBLIC	??_R4bad_alloc@std@@6B@				; std::bad_alloc::`RTTI Complete Object Locator'
PUBLIC	??_7CGuildHouseDBCtrl@@6B@			; CGuildHouseDBCtrl::`vftable'
PUBLIC	??_C@_0BK@ENBHGPOM@GuildHouse?5Load?5Failed?$CB?$CB?$CB@ ; `string'
PUBLIC	??_C@_0CM@BEGNDHN@usp_RestPoint_Update?5?8?$CF02d?8?0?5?8?$CF@ ; `string'
PUBLIC	??_C@_0CN@BJKDNEMC@usp_GuildHouse_Insert?5?8?$CF02d?8?0?5?8@ ; `string'
PUBLIC	??_C@_0CF@PBPIPFDA@usp_GuildHouse_Delete?5?8?$CF02d?8?0?5?8@ ; `string'
PUBLIC	??_C@_0FD@EGCAKHP@usp_GuildFurniture_Insert?5?8?$CF02d@ ; `string'
PUBLIC	??_C@_0CN@CCPIJJJF@usp_GuildFurniture_Delete?5?8?$CF02d@ ; `string'
PUBLIC	??_C@_0FF@JIHLHELC@usp_GuildFurniture_Update?5?8?$CF02d@ ; `string'
PUBLIC	??_C@_0CJ@FHNADKGP@usp_GuildHouse_Update?5?8?$CF02d?8?0?5?8@ ; `string'
PUBLIC	??_C@_0CG@CHDLMMMM@usp_GuildHouse_Expired?5?8?$CF02d?8?0?5@ ; `string'
PUBLIC	??_C@_0DI@FJCGHDE@CGuildHouseDBMng?5?9?5m_GHDBCtrl?4C@ ; `string'
PUBLIC	??_R4CGuildHouseDBCtrl@@6B@			; CGuildHouseDBCtrl::`RTTI Complete Object Locator'
PUBLIC	??_R0?AVCGuildHouseDBCtrl@@@8			; CGuildHouseDBCtrl `RTTI Type Descriptor'
PUBLIC	??_R3CGuildHouseDBCtrl@@8			; CGuildHouseDBCtrl::`RTTI Class Hierarchy Descriptor'
PUBLIC	??_R2CGuildHouseDBCtrl@@8			; CGuildHouseDBCtrl::`RTTI Base Class Array'
PUBLIC	??_R1A@?0A@EA@CGuildHouseDBCtrl@@8		; CGuildHouseDBCtrl::`RTTI Base Class Descriptor at (0,-1,0,64)'
PUBLIC	??_R1A@?0A@EA@CDbController@@8			; CDbController::`RTTI Base Class Descriptor at (0,-1,0,64)'
PUBLIC	??_R0?AVCDbController@@@8			; CDbController `RTTI Type Descriptor'
PUBLIC	??_R3CDbController@@8				; CDbController::`RTTI Class Hierarchy Descriptor'
PUBLIC	??_R2CDbController@@8				; CDbController::`RTTI Base Class Array'
EXTRN	??2@YAPAXI@Z:PROC				; operator new
EXTRN	??3@YAXPAXI@Z:PROC				; operator delete
EXTRN	_atexit:PROC
EXTRN	__Init_thread_header:PROC
EXTRN	__Init_thread_abort:PROC
EXTRN	__Init_thread_footer:PROC
EXTRN	__invoke_watson:PROC
EXTRN	__time32:PROC
EXTRN	?AfxMessageBox@@YGHPBDII@Z:PROC			; AfxMessageBox
EXTRN	?_Xlength_error@std@@YAXPBD@Z:PROC		; std::_Xlength_error
EXTRN	___std_exception_copy:PROC
EXTRN	___std_exception_destroy:PROC
EXTRN	??_Eexception@std@@UAEPAXI@Z:PROC		; std::exception::`vector deleting destructor'
EXTRN	??_Ebad_alloc@std@@UAEPAXI@Z:PROC		; std::bad_alloc::`vector deleting destructor'
EXTRN	??_Ebad_array_new_length@std@@UAEPAXI@Z:PROC	; std::bad_array_new_length::`vector deleting destructor'
EXTRN	?Error@@YAPBDPBDZZ:PROC				; Error
EXTRN	?Execute@CQuery@@QAAHPBDZZ:PROC			; CQuery::Execute
EXTRN	??0CAr@@QAE@PAXI@Z:PROC				; CAr::CAr
EXTRN	??1CAr@@QAE@XZ:PROC				; CAr::~CAr
EXTRN	?CheckBuf@CAr@@QAEXI@Z:PROC			; CAr::CheckBuf
EXTRN	?GetBuffer@CAr@@QAEPAEPAH@Z:PROC		; CAr::GetBuffer
EXTRN	?Send@CDPSock@@QAEHPADKK@Z:PROC			; CDPSock::Send
EXTRN	??0CDbController@@QAE@XZ:PROC			; CDbController::CDbController
EXTRN	??1CDbController@@UAE@XZ:PROC			; CDbController::~CDbController
EXTRN	?CreateDbHandler@CDbController@@QAEHK@Z:PROC	; CDbController::CreateDbHandler
EXTRN	?CloseDbHandler@CDbController@@QAEXXZ:PROC	; CDbController::CloseDbHandler
EXTRN	??0GuildHouse_Furniture_Info@CGuildHouseBase@@QAE@KHUD3DXVECTOR3@@MJ@Z:PROC ; CGuildHouseBase::GuildHouse_Furniture_Info::GuildHouse_Furniture_Info
EXTRN	?Serialize@GuildHouse_Furniture_Info@CGuildHouseBase@@QAEXAAVCAr@@@Z:PROC ; CGuildHouseBase::GuildHouse_Furniture_Info::Serialize
EXTRN	?OnGuildHousePacket@CGuildHouseBase@@QAEHHAAUGuildHouse_Furniture_Info@1@H@Z:PROC ; CGuildHouseBase::OnGuildHousePacket
EXTRN	?SerializeAllInfo@CGuildHouseBase@@QAEXAAVCAr@@@Z:PROC ; CGuildHouseBase::SerializeAllInfo
EXTRN	?GetInstance@CGuildHouseMng@@SAPAV1@XZ:PROC	; CGuildHouseMng::GetInstance
EXTRN	?MakeGuildHouse@CGuildHouseMng@@QAEPAVCGuildHouseBase@@KK@Z:PROC ; CGuildHouseMng::MakeGuildHouse
EXTRN	?RemoveGuildHouse@CGuildHouseMng@@QAEHK@Z:PROC	; CGuildHouseMng::RemoveGuildHouse
EXTRN	?GetGuildHouse@CGuildHouseMng@@QAEPAVCGuildHouseBase@@K@Z:PROC ; CGuildHouseMng::GetGuildHouse
EXTRN	?Serialize@CGuildHouseMng@@QAEXAAVCAr@@@Z:PROC	; CGuildHouseMng::Serialize
EXTRN	?ProcessExpired@CGuildHouseMng@@QAEXXZ:PROC	; CGuildHouseMng::ProcessExpired
EXTRN	?DBLoadGuildHouse@CGuildHouseMng@@QAEHPAVCQuery@@@Z:PROC ; CGuildHouseMng::DBLoadGuildHouse
EXTRN	??_ECGuildHouseDBCtrl@@UAEPAXI@Z:PROC		; CGuildHouseDBCtrl::`vector deleting destructor'
EXTRN	?GetInstance@CDPTrans@@SAPAV1@XZ:PROC		; CDPTrans::GetInstance
EXTRN	@__security_check_cookie@4:PROC
EXTRN	__CxxThrowException@8:PROC
EXTRN	___CxxFrameHandler3:PROC
EXTRN	__chkstk:PROC
EXTRN	__Init_thread_epoch:DWORD
EXTRN	??_7type_info@@6B@:QWORD			; type_info::`vftable'
EXTRN	?g_appInfo@@3UAppInfo@@A:QWORD			; g_appInfo
EXTRN	___security_cookie:DWORD
EXTRN	__fltused:DWORD
EXTRN	__tls_array:DWORD
EXTRN	__tls_index:DWORD
;	COMDAT ?sGHDBMng@?1??GetInstance@CGuildHouseDBMng@@SAPAV2@XZ@4V2@A
_BSS	SEGMENT
?sGHDBMng@?1??GetInstance@CGuildHouseDBMng@@SAPAV2@XZ@4V2@A DB 014H DUP (?) ; `CGuildHouseDBMng::GetInstance'::`2'::sGHDBMng
_BSS	ENDS
;	COMDAT ?$TSS0@?1??GetInstance@CGuildHouseDBMng@@SAPAV2@XZ@4HA
_BSS	SEGMENT
?$TSS0@?1??GetInstance@CGuildHouseDBMng@@SAPAV2@XZ@4HA DD 01H DUP (?) ; `CGuildHouseDBMng::GetInstance'::`2'::$TSS0
_BSS	ENDS
;	COMDAT ??_R2CDbController@@8
rdata$r	SEGMENT
??_R2CDbController@@8 DD FLAT:??_R1A@?0A@EA@CDbController@@8 ; CDbController::`RTTI Base Class Array'
rdata$r	ENDS
;	COMDAT ??_R3CDbController@@8
rdata$r	SEGMENT
??_R3CDbController@@8 DD 00H				; CDbController::`RTTI Class Hierarchy Descriptor'
	DD	00H
	DD	01H
	DD	FLAT:??_R2CDbController@@8
rdata$r	ENDS
;	COMDAT ??_R0?AVCDbController@@@8
data$rs	SEGMENT
??_R0?AVCDbController@@@8 DD FLAT:??_7type_info@@6B@	; CDbController `RTTI Type Descriptor'
	DD	00H
	DB	'.?AVCDbController@@', 00H
data$rs	ENDS
;	COMDAT ??_R1A@?0A@EA@CDbController@@8
rdata$r	SEGMENT
??_R1A@?0A@EA@CDbController@@8 DD FLAT:??_R0?AVCDbController@@@8 ; CDbController::`RTTI Base Class Descriptor at (0,-1,0,64)'
	DD	00H
	DD	00H
	DD	0ffffffffH
	DD	00H
	DD	040H
	DD	FLAT:??_R3CDbController@@8
rdata$r	ENDS
;	COMDAT ??_R1A@?0A@EA@CGuildHouseDBCtrl@@8
rdata$r	SEGMENT
??_R1A@?0A@EA@CGuildHouseDBCtrl@@8 DD FLAT:??_R0?AVCGuildHouseDBCtrl@@@8 ; CGuildHouseDBCtrl::`RTTI Base Class Descriptor at (0,-1,0,64)'
	DD	01H
	DD	00H
	DD	0ffffffffH
	DD	00H
	DD	040H
	DD	FLAT:??_R3CGuildHouseDBCtrl@@8
rdata$r	ENDS
;	COMDAT ??_R2CGuildHouseDBCtrl@@8
rdata$r	SEGMENT
??_R2CGuildHouseDBCtrl@@8 DD FLAT:??_R1A@?0A@EA@CGuildHouseDBCtrl@@8 ; CGuildHouseDBCtrl::`RTTI Base Class Array'
	DD	FLAT:??_R1A@?0A@EA@CDbController@@8
rdata$r	ENDS
;	COMDAT ??_R3CGuildHouseDBCtrl@@8
rdata$r	SEGMENT
??_R3CGuildHouseDBCtrl@@8 DD 00H			; CGuildHouseDBCtrl::`RTTI Class Hierarchy Descriptor'
	DD	00H
	DD	02H
	DD	FLAT:??_R2CGuildHouseDBCtrl@@8
rdata$r	ENDS
;	COMDAT ??_R0?AVCGuildHouseDBCtrl@@@8
data$rs	SEGMENT
??_R0?AVCGuildHouseDBCtrl@@@8 DD FLAT:??_7type_info@@6B@ ; CGuildHouseDBCtrl `RTTI Type Descriptor'
	DD	00H
	DB	'.?AVCGuildHouseDBCtrl@@', 00H
data$rs	ENDS
;	COMDAT ??_R4CGuildHouseDBCtrl@@6B@
rdata$r	SEGMENT
??_R4CGuildHouseDBCtrl@@6B@ DD 00H			; CGuildHouseDBCtrl::`RTTI Complete Object Locator'
	DD	00H
	DD	00H
	DD	FLAT:??_R0?AVCGuildHouseDBCtrl@@@8
	DD	FLAT:??_R3CGuildHouseDBCtrl@@8
rdata$r	ENDS
;	COMDAT ??_C@_0DI@FJCGHDE@CGuildHouseDBMng?5?9?5m_GHDBCtrl?4C@
CONST	SEGMENT
??_C@_0DI@FJCGHDE@CGuildHouseDBMng?5?9?5m_GHDBCtrl?4C@ DB 'CGuildHouseDBM'
	DB	'ng - m_GHDBCtrl.CreateDbHandler() FAILED!', 00H ; `string'
CONST	ENDS
;	COMDAT ??_C@_0CG@CHDLMMMM@usp_GuildHouse_Expired?5?8?$CF02d?8?0?5@
CONST	SEGMENT
??_C@_0CG@CHDLMMMM@usp_GuildHouse_Expired?5?8?$CF02d?8?0?5@ DB 'usp_Guild'
	DB	'House_Expired ''%02d'', ''%06d''', 00H	; `string'
CONST	ENDS
;	COMDAT ??_C@_0CJ@FHNADKGP@usp_GuildHouse_Update?5?8?$CF02d?8?0?5?8@
CONST	SEGMENT
??_C@_0CJ@FHNADKGP@usp_GuildHouse_Update?5?8?$CF02d?8?0?5?8@ DB 'usp_Guil'
	DB	'dHouse_Update ''%02d'', ''%06d'', %d', 00H	; `string'
CONST	ENDS
;	COMDAT ??_C@_0FF@JIHLHELC@usp_GuildFurniture_Update?5?8?$CF02d@
CONST	SEGMENT
??_C@_0FF@JIHLHELC@usp_GuildFurniture_Update?5?8?$CF02d@ DB 'usp_GuildFur'
	DB	'niture_Update ''%02d'', ''%06d'', %d, %d, %d, ', 09H, 09H, 09H
	DB	09H, 09H, 09H, 09H, 09H, 09H, 09H, 09H, 09H, '%f, %f, %f, %f, '
	DB	'%d', 00H					; `string'
CONST	ENDS
;	COMDAT ??_C@_0CN@CCPIJJJF@usp_GuildFurniture_Delete?5?8?$CF02d@
CONST	SEGMENT
??_C@_0CN@CCPIJJJF@usp_GuildFurniture_Delete?5?8?$CF02d@ DB 'usp_GuildFur'
	DB	'niture_Delete ''%02d'', ''%06d'', %d', 00H	; `string'
CONST	ENDS
;	COMDAT ??_C@_0FD@EGCAKHP@usp_GuildFurniture_Insert?5?8?$CF02d@
CONST	SEGMENT
??_C@_0FD@EGCAKHP@usp_GuildFurniture_Insert?5?8?$CF02d@ DB 'usp_GuildFurn'
	DB	'iture_Insert ''%02d'', ''%06d'', %d, %d, %d, %d,', 09H, 09H, 09H
	DB	09H, 09H, 09H, 09H, 09H, 09H, 09H, 09H, '%f, %f, %f, %f', 00H ; `string'
CONST	ENDS
;	COMDAT ??_C@_0CF@PBPIPFDA@usp_GuildHouse_Delete?5?8?$CF02d?8?0?5?8@
CONST	SEGMENT
??_C@_0CF@PBPIPFDA@usp_GuildHouse_Delete?5?8?$CF02d?8?0?5?8@ DB 'usp_Guil'
	DB	'dHouse_Delete ''%02d'', ''%06d''', 00H	; `string'
CONST	ENDS
;	COMDAT ??_C@_0CN@BJKDNEMC@usp_GuildHouse_Insert?5?8?$CF02d?8?0?5?8@
CONST	SEGMENT
??_C@_0CN@BJKDNEMC@usp_GuildHouse_Insert?5?8?$CF02d?8?0?5?8@ DB 'usp_Guil'
	DB	'dHouse_Insert ''%02d'', ''%06d'', %d, %d', 00H ; `string'
CONST	ENDS
;	COMDAT ??_C@_0CM@BEGNDHN@usp_RestPoint_Update?5?8?$CF02d?8?0?5?8?$CF@
CONST	SEGMENT
??_C@_0CM@BEGNDHN@usp_RestPoint_Update?5?8?$CF02d?8?0?5?8?$CF@ DB 'usp_Re'
	DB	'stPoint_Update ''%02d'', ''%07d'', %d, %d', 00H ; `string'
CONST	ENDS
;	COMDAT ??_C@_0BK@ENBHGPOM@GuildHouse?5Load?5Failed?$CB?$CB?$CB@
CONST	SEGMENT
??_C@_0BK@ENBHGPOM@GuildHouse?5Load?5Failed?$CB?$CB?$CB@ DB 'GuildHouse L'
	DB	'oad Failed!!!', 00H				; `string'
CONST	ENDS
;	COMDAT ??_7CGuildHouseDBCtrl@@6B@
CONST	SEGMENT
??_7CGuildHouseDBCtrl@@6B@ DD FLAT:??_R4CGuildHouseDBCtrl@@6B@ ; CGuildHouseDBCtrl::`vftable'
	DD	FLAT:??_ECGuildHouseDBCtrl@@UAEPAXI@Z
	DD	FLAT:?Handler@CGuildHouseDBCtrl@@UAEXPAUtagDB_OVERLAPPED_PLUS@@K@Z
	DD	FLAT:?OnTimer@CGuildHouseDBCtrl@@UAEXXZ
CONST	ENDS
;	COMDAT ??_R4bad_alloc@std@@6B@
rdata$r	SEGMENT
??_R4bad_alloc@std@@6B@ DD 00H				; std::bad_alloc::`RTTI Complete Object Locator'
	DD	00H
	DD	00H
	DD	FLAT:??_R0?AVbad_alloc@std@@@8
	DD	FLAT:??_R3bad_alloc@std@@8
rdata$r	ENDS
;	COMDAT ??_R2bad_alloc@std@@8
rdata$r	SEGMENT
??_R2bad_alloc@std@@8 DD FLAT:??_R1A@?0A@EA@bad_alloc@std@@8 ; std::bad_alloc::`RTTI Base Class Array'
	DD	FLAT:??_R1A@?0A@EA@exception@std@@8
rdata$r	ENDS
;	COMDAT ??_R3bad_alloc@std@@8
rdata$r	SEGMENT
??_R3bad_alloc@std@@8 DD 00H				; std::bad_alloc::`RTTI Class Hierarchy Descriptor'
	DD	00H
	DD	02H
	DD	FLAT:??_R2bad_alloc@std@@8
rdata$r	ENDS
;	COMDAT ??_R1A@?0A@EA@bad_alloc@std@@8
rdata$r	SEGMENT
??_R1A@?0A@EA@bad_alloc@std@@8 DD FLAT:??_R0?AVbad_alloc@std@@@8 ; std::bad_alloc::`RTTI Base Class Descriptor at (0,-1,0,64)'
	DD	01H
	DD	00H
	DD	0ffffffffH
	DD	00H
	DD	040H
	DD	FLAT:??_R3bad_alloc@std@@8
rdata$r	ENDS
;	COMDAT ??_R1A@?0A@EA@bad_array_new_length@std@@8
rdata$r	SEGMENT
??_R1A@?0A@EA@bad_array_new_length@std@@8 DD FLAT:??_R0?AVbad_array_new_length@std@@@8 ; std::bad_array_new_length::`RTTI Base Class Descriptor at (0,-1,0,64)'
	DD	02H
	DD	00H
	DD	0ffffffffH
	DD	00H
	DD	040H
	DD	FLAT:??_R3bad_array_new_length@std@@8
rdata$r	ENDS
;	COMDAT ??_R2bad_array_new_length@std@@8
rdata$r	SEGMENT
??_R2bad_array_new_length@std@@8 DD FLAT:??_R1A@?0A@EA@bad_array_new_length@std@@8 ; std::bad_array_new_length::`RTTI Base Class Array'
	DD	FLAT:??_R1A@?0A@EA@bad_alloc@std@@8
	DD	FLAT:??_R1A@?0A@EA@exception@std@@8
rdata$r	ENDS
;	COMDAT ??_R3bad_array_new_length@std@@8
rdata$r	SEGMENT
??_R3bad_array_new_length@std@@8 DD 00H			; std::bad_array_new_length::`RTTI Class Hierarchy Descriptor'
	DD	00H
	DD	03H
	DD	FLAT:??_R2bad_array_new_length@std@@8
rdata$r	ENDS
;	COMDAT ??_R4bad_array_new_length@std@@6B@
rdata$r	SEGMENT
??_R4bad_array_new_length@std@@6B@ DD 00H		; std::bad_array_new_length::`RTTI Complete Object Locator'
	DD	00H
	DD	00H
	DD	FLAT:??_R0?AVbad_array_new_length@std@@@8
	DD	FLAT:??_R3bad_array_new_length@std@@8
rdata$r	ENDS
;	COMDAT ??_R1A@?0A@EA@exception@std@@8
rdata$r	SEGMENT
??_R1A@?0A@EA@exception@std@@8 DD FLAT:??_R0?AVexception@std@@@8 ; std::exception::`RTTI Base Class Descriptor at (0,-1,0,64)'
	DD	00H
	DD	00H
	DD	0ffffffffH
	DD	00H
	DD	040H
	DD	FLAT:??_R3exception@std@@8
rdata$r	ENDS
;	COMDAT ??_R2exception@std@@8
rdata$r	SEGMENT
??_R2exception@std@@8 DD FLAT:??_R1A@?0A@EA@exception@std@@8 ; std::exception::`RTTI Base Class Array'
rdata$r	ENDS
;	COMDAT ??_R3exception@std@@8
rdata$r	SEGMENT
??_R3exception@std@@8 DD 00H				; std::exception::`RTTI Class Hierarchy Descriptor'
	DD	00H
	DD	01H
	DD	FLAT:??_R2exception@std@@8
rdata$r	ENDS
;	COMDAT ??_R4exception@std@@6B@
rdata$r	SEGMENT
??_R4exception@std@@6B@ DD 00H				; std::exception::`RTTI Complete Object Locator'
	DD	00H
	DD	00H
	DD	FLAT:??_R0?AVexception@std@@@8
	DD	FLAT:??_R3exception@std@@8
rdata$r	ENDS
;	COMDAT ??_C@_0BB@GCADKGJO@map?1set?5too?5long@
CONST	SEGMENT
??_C@_0BB@GCADKGJO@map?1set?5too?5long@ DB 'map/set too long', 00H ; `string'
CONST	ENDS
;	COMDAT __CT??_R0?AVbad_alloc@std@@@8??0bad_alloc@std@@QAE@ABV01@@Z12
xdata$x	SEGMENT
__CT??_R0?AVbad_alloc@std@@@8??0bad_alloc@std@@QAE@ABV01@@Z12 DD 010H
	DD	FLAT:??_R0?AVbad_alloc@std@@@8
	DD	00H
	DD	0ffffffffH
	ORG $+4
	DD	0cH
	DD	FLAT:??0bad_alloc@std@@QAE@ABV01@@Z
xdata$x	ENDS
;	COMDAT ??_R0?AVbad_alloc@std@@@8
data$r	SEGMENT
??_R0?AVbad_alloc@std@@@8 DD FLAT:??_7type_info@@6B@	; std::bad_alloc `RTTI Type Descriptor'
	DD	00H
	DB	'.?AVbad_alloc@std@@', 00H
data$r	ENDS
;	COMDAT __CT??_R0?AVbad_array_new_length@std@@@8??0bad_array_new_length@std@@QAE@ABV01@@Z12
xdata$x	SEGMENT
__CT??_R0?AVbad_array_new_length@std@@@8??0bad_array_new_length@std@@QAE@ABV01@@Z12 DD 00H
	DD	FLAT:??_R0?AVbad_array_new_length@std@@@8
	DD	00H
	DD	0ffffffffH
	ORG $+4
	DD	0cH
	DD	FLAT:??0bad_array_new_length@std@@QAE@ABV01@@Z
xdata$x	ENDS
;	COMDAT ??_R0?AVbad_array_new_length@std@@@8
data$r	SEGMENT
??_R0?AVbad_array_new_length@std@@@8 DD FLAT:??_7type_info@@6B@ ; std::bad_array_new_length `RTTI Type Descriptor'
	DD	00H
	DB	'.?AVbad_array_new_length@std@@', 00H
data$r	ENDS
;	COMDAT __CTA3?AVbad_array_new_length@std@@
xdata$x	SEGMENT
__CTA3?AVbad_array_new_length@std@@ DD 03H
	DD	FLAT:__CT??_R0?AVbad_array_new_length@std@@@8??0bad_array_new_length@std@@QAE@ABV01@@Z12
	DD	FLAT:__CT??_R0?AVbad_alloc@std@@@8??0bad_alloc@std@@QAE@ABV01@@Z12
	DD	FLAT:__CT??_R0?AVexception@std@@@8??0exception@std@@QAE@ABV01@@Z12
xdata$x	ENDS
;	COMDAT __TI3?AVbad_array_new_length@std@@
xdata$x	SEGMENT
__TI3?AVbad_array_new_length@std@@ DD 00H
	DD	FLAT:??1bad_array_new_length@std@@UAE@XZ
	DD	00H
	DD	FLAT:__CTA3?AVbad_array_new_length@std@@
xdata$x	ENDS
;	COMDAT __CT??_R0?AVexception@std@@@8??0exception@std@@QAE@ABV01@@Z12
xdata$x	SEGMENT
__CT??_R0?AVexception@std@@@8??0exception@std@@QAE@ABV01@@Z12 DD 00H
	DD	FLAT:??_R0?AVexception@std@@@8
	DD	00H
	DD	0ffffffffH
	ORG $+4
	DD	0cH
	DD	FLAT:??0exception@std@@QAE@ABV01@@Z
xdata$x	ENDS
;	COMDAT ??_R0?AVexception@std@@@8
data$r	SEGMENT
??_R0?AVexception@std@@@8 DD FLAT:??_7type_info@@6B@	; std::exception `RTTI Type Descriptor'
	DD	00H
	DB	'.?AVexception@std@@', 00H
data$r	ENDS
;	COMDAT ??_C@_0BF@KINCDENJ@bad?5array?5new?5length@
CONST	SEGMENT
??_C@_0BF@KINCDENJ@bad?5array?5new?5length@ DB 'bad array new length', 00H ; `string'
CONST	ENDS
;	COMDAT ??_7bad_array_new_length@std@@6B@
CONST	SEGMENT
??_7bad_array_new_length@std@@6B@ DD FLAT:??_R4bad_array_new_length@std@@6B@ ; std::bad_array_new_length::`vftable'
	DD	FLAT:??_Ebad_array_new_length@std@@UAEPAXI@Z
	DD	FLAT:?what@exception@std@@UBEPBDXZ
CONST	ENDS
;	COMDAT ??_7bad_alloc@std@@6B@
CONST	SEGMENT
??_7bad_alloc@std@@6B@ DD FLAT:??_R4bad_alloc@std@@6B@	; std::bad_alloc::`vftable'
	DD	FLAT:??_Ebad_alloc@std@@UAEPAXI@Z
	DD	FLAT:?what@exception@std@@UBEPBDXZ
CONST	ENDS
;	COMDAT ??_C@_0BC@EOODALEL@Unknown?5exception@
CONST	SEGMENT
??_C@_0BC@EOODALEL@Unknown?5exception@ DB 'Unknown exception', 00H ; `string'
CONST	ENDS
;	COMDAT ??_7exception@std@@6B@
CONST	SEGMENT
??_7exception@std@@6B@ DD FLAT:??_R4exception@std@@6B@	; std::exception::`vftable'
	DD	FLAT:??_Eexception@std@@UAEPAXI@Z
	DD	FLAT:?what@exception@std@@UBEPBDXZ
CONST	ENDS
;	COMDAT xdata$x
xdata$x	SEGMENT
__unwindtable$??$?0U?$pair@KPAVCGuildHouseBase@@@std@@@?$_Tree_temp_node@V?$allocator@U?$_Tree_node@U?$pair@$$CBKPAVCGuildHouseBase@@@std@@PAX@std@@@std@@@std@@QAE@AAV?$allocator@U?$_Tree_node@U?$pair@$$CBKPAVCGuildHouseBase@@@std@@PAX@std@@@1@PAU?$_Tree_node@U?$pair@$$CBKPAVCGuildHouseBase@@@std@@PAX@1@$$QAU?$pair@KPAVCGuildHouseBase@@@1@@Z DD 0ffffffffH
	DD	FLAT:__unwindfunclet$??$?0U?$pair@KPAVCGuildHouseBase@@@std@@@?$_Tree_temp_node@V?$allocator@U?$_Tree_node@U?$pair@$$CBKPAVCGuildHouseBase@@@std@@PAX@std@@@std@@@std@@QAE@AAV?$allocator@U?$_Tree_node@U?$pair@$$CBKPAVCGuildHouseBase@@@std@@PAX@std@@@1@PAU?$_Tree_node@U?$pair@$$CBKPAVCGuildHouseBase@@@std@@PAX@1@$$QAU?$pair@KPAVCGuildHouseBase@@@1@@Z$1
__ehfuncinfo$??$?0U?$pair@KPAVCGuildHouseBase@@@std@@@?$_Tree_temp_node@V?$allocator@U?$_Tree_node@U?$pair@$$CBKPAVCGuildHouseBase@@@std@@PAX@std@@@std@@@std@@QAE@AAV?$allocator@U?$_Tree_node@U?$pair@$$CBKPAVCGuildHouseBase@@@std@@PAX@std@@@1@PAU?$_Tree_node@U?$pair@$$CBKPAVCGuildHouseBase@@@std@@PAX@1@$$QAU?$pair@KPAVCGuildHouseBase@@@1@@Z DD 019930522H
	DD	01H
	DD	FLAT:__unwindtable$??$?0U?$pair@KPAVCGuildHouseBase@@@std@@@?$_Tree_temp_node@V?$allocator@U?$_Tree_node@U?$pair@$$CBKPAVCGuildHouseBase@@@std@@PAX@std@@@std@@@std@@QAE@AAV?$allocator@U?$_Tree_node@U?$pair@$$CBKPAVCGuildHouseBase@@@std@@PAX@std@@@1@PAU?$_Tree_node@U?$pair@$$CBKPAVCGuildHouseBase@@@std@@PAX@1@$$QAU?$pair@KPAVCGuildHouseBase@@@1@@Z
	DD	2 DUP(00H)
	DD	2 DUP(00H)
	DD	00H
	DD	01H
xdata$x	ENDS
;	COMDAT xdata$x
xdata$x	SEGMENT
__unwindtable$??0?$_Tree_temp_node_alloc@V?$allocator@U?$_Tree_node@U?$pair@$$CBKPAVCGuildHouseBase@@@std@@PAX@std@@@std@@@std@@QAE@AAV?$allocator@U?$_Tree_node@U?$pair@$$CBKPAVCGuildHouseBase@@@std@@PAX@std@@@1@@Z DD 0ffffffffH
	DD	FLAT:__unwindfunclet$??0?$_Tree_temp_node_alloc@V?$allocator@U?$_Tree_node@U?$pair@$$CBKPAVCGuildHouseBase@@@std@@PAX@std@@@std@@@std@@QAE@AAV?$allocator@U?$_Tree_node@U?$pair@$$CBKPAVCGuildHouseBase@@@std@@PAX@std@@@1@@Z$0
__ehfuncinfo$??0?$_Tree_temp_node_alloc@V?$allocator@U?$_Tree_node@U?$pair@$$CBKPAVCGuildHouseBase@@@std@@PAX@std@@@std@@@std@@QAE@AAV?$allocator@U?$_Tree_node@U?$pair@$$CBKPAVCGuildHouseBase@@@std@@PAX@std@@@1@@Z DD 019930522H
	DD	01H
	DD	FLAT:__unwindtable$??0?$_Tree_temp_node_alloc@V?$allocator@U?$_Tree_node@U?$pair@$$CBKPAVCGuildHouseBase@@@std@@PAX@std@@@std@@@std@@QAE@AAV?$allocator@U?$_Tree_node@U?$pair@$$CBKPAVCGuildHouseBase@@@std@@PAX@std@@@1@@Z
	DD	2 DUP(00H)
	DD	2 DUP(00H)
	DD	00H
	DD	01H
xdata$x	ENDS
;	COMDAT xdata$x
xdata$x	SEGMENT
__unwindtable$??$_Emplace@U?$pair@KPAVCGuildHouseBase@@@std@@@?$_Tree@V?$_Tmap_traits@KPAVCGuildHouseBase@@U?$less@K@std@@V?$allocator@U?$pair@$$CBKPAVCGuildHouseBase@@@std@@@3@$0A@@std@@@std@@IAE?AU?$pair@PAU?$_Tree_node@U?$pair@$$CBKPAVCGuildHouseBase@@@std@@PAX@std@@_N@1@$$QAU?$pair@KPAVCGuildHouseBase@@@1@@Z DD 0ffffffffH
	DD	FLAT:__unwindfunclet$??$_Emplace@U?$pair@KPAVCGuildHouseBase@@@std@@@?$_Tree@V?$_Tmap_traits@KPAVCGuildHouseBase@@U?$less@K@std@@V?$allocator@U?$pair@$$CBKPAVCGuildHouseBase@@@std@@@3@$0A@@std@@@std@@IAE?AU?$pair@PAU?$_Tree_node@U?$pair@$$CBKPAVCGuildHouseBase@@@std@@PAX@std@@_N@1@$$QAU?$pair@KPAVCGuildHouseBase@@@1@@Z$2
__ehfuncinfo$??$_Emplace@U?$pair@KPAVCGuildHouseBase@@@std@@@?$_Tree@V?$_Tmap_traits@KPAVCGuildHouseBase@@U?$less@K@std@@V?$allocator@U?$pair@$$CBKPAVCGuildHouseBase@@@std@@@3@$0A@@std@@@std@@IAE?AU?$pair@PAU?$_Tree_node@U?$pair@$$CBKPAVCGuildHouseBase@@@std@@PAX@std@@_N@1@$$QAU?$pair@KPAVCGuildHouseBase@@@1@@Z DD 019930522H
	DD	01H
	DD	FLAT:__unwindtable$??$_Emplace@U?$pair@KPAVCGuildHouseBase@@@std@@@?$_Tree@V?$_Tmap_traits@KPAVCGuildHouseBase@@U?$less@K@std@@V?$allocator@U?$pair@$$CBKPAVCGuildHouseBase@@@std@@@3@$0A@@std@@@std@@IAE?AU?$pair@PAU?$_Tree_node@U?$pair@$$CBKPAVCGuildHouseBase@@@std@@PAX@std@@_N@1@$$QAU?$pair@KPAVCGuildHouseBase@@@1@@Z
	DD	2 DUP(00H)
	DD	2 DUP(00H)
	DD	00H
	DD	01H
xdata$x	ENDS
;	COMDAT xdata$x
xdata$x	SEGMENT
__unwindtable$??$emplace@U?$pair@KPAVCGuildHouseBase@@@std@@@?$_Tree@V?$_Tmap_traits@KPAVCGuildHouseBase@@U?$less@K@std@@V?$allocator@U?$pair@$$CBKPAVCGuildHouseBase@@@std@@@3@$0A@@std@@@std@@QAE?AU?$pair@V?$_Tree_iterator@V?$_Tree_val@U?$_Tree_simple_types@U?$pair@$$CBKPAVCGuildHouseBase@@@std@@@std@@@std@@@std@@_N@1@$$QAU?$pair@KPAVCGuildHouseBase@@@1@@Z DD 0ffffffffH
	DD	FLAT:__unwindfunclet$??$emplace@U?$pair@KPAVCGuildHouseBase@@@std@@@?$_Tree@V?$_Tmap_traits@KPAVCGuildHouseBase@@U?$less@K@std@@V?$allocator@U?$pair@$$CBKPAVCGuildHouseBase@@@std@@@3@$0A@@std@@@std@@QAE?AU?$pair@V?$_Tree_iterator@V?$_Tree_val@U?$_Tree_simple_types@U?$pair@$$CBKPAVCGuildHouseBase@@@std@@@std@@@std@@@std@@_N@1@$$QAU?$pair@KPAVCGuildHouseBase@@@1@@Z$2
__ehfuncinfo$??$emplace@U?$pair@KPAVCGuildHouseBase@@@std@@@?$_Tree@V?$_Tmap_traits@KPAVCGuildHouseBase@@U?$less@K@std@@V?$allocator@U?$pair@$$CBKPAVCGuildHouseBase@@@std@@@3@$0A@@std@@@std@@QAE?AU?$pair@V?$_Tree_iterator@V?$_Tree_val@U?$_Tree_simple_types@U?$pair@$$CBKPAVCGuildHouseBase@@@std@@@std@@@std@@@std@@_N@1@$$QAU?$pair@KPAVCGuildHouseBase@@@1@@Z DD 019930522H
	DD	01H
	DD	FLAT:__unwindtable$??$emplace@U?$pair@KPAVCGuildHouseBase@@@std@@@?$_Tree@V?$_Tmap_traits@KPAVCGuildHouseBase@@U?$less@K@std@@V?$allocator@U?$pair@$$CBKPAVCGuildHouseBase@@@std@@@3@$0A@@std@@@std@@QAE?AU?$pair@V?$_Tree_iterator@V?$_Tree_val@U?$_Tree_simple_types@U?$pair@$$CBKPAVCGuildHouseBase@@@std@@@std@@@std@@@std@@_N@1@$$QAU?$pair@KPAVCGuildHouseBase@@@1@@Z
	DD	2 DUP(00H)
	DD	2 DUP(00H)
	DD	00H
	DD	01H
xdata$x	ENDS
;	COMDAT xdata$x
xdata$x	SEGMENT
__unwindtable$?GetInstance@CGuildHouseDBMng@@SAPAV1@XZ DD 0ffffffffH
	DD	FLAT:__unwindfunclet$?GetInstance@CGuildHouseDBMng@@SAPAV1@XZ$0
__ehfuncinfo$?GetInstance@CGuildHouseDBMng@@SAPAV1@XZ DD 019930522H
	DD	01H
	DD	FLAT:__unwindtable$?GetInstance@CGuildHouseDBMng@@SAPAV1@XZ
	DD	2 DUP(00H)
	DD	2 DUP(00H)
	DD	00H
	DD	01H
xdata$x	ENDS
;	COMDAT xdata$x
xdata$x	SEGMENT
__ehfuncinfo$??1CGuildHouseDBMng@@QAE@XZ DD 019930522H
	DD	00H
	DD	00H
	DD	2 DUP(00H)
	DD	2 DUP(00H)
	DD	00H
	DD	05H
xdata$x	ENDS
;	COMDAT xdata$x
xdata$x	SEGMENT
__unwindtable$??0CGuildHouseDBMng@@QAE@XZ DD 0ffffffffH
	DD	FLAT:__unwindfunclet$??0CGuildHouseDBMng@@QAE@XZ$0
__ehfuncinfo$??0CGuildHouseDBMng@@QAE@XZ DD 019930522H
	DD	01H
	DD	FLAT:__unwindtable$??0CGuildHouseDBMng@@QAE@XZ
	DD	2 DUP(00H)
	DD	2 DUP(00H)
	DD	00H
	DD	01H
xdata$x	ENDS
;	COMDAT xdata$x
xdata$x	SEGMENT
__unwindtable$?RunDefaultPacket@CGuildHouseDBCtrl@@AAEXAAVCAr@@K@Z DD 0ffffffffH
	DD	FLAT:__unwindfunclet$?RunDefaultPacket@CGuildHouseDBCtrl@@AAEXAAVCAr@@K@Z$0
__ehfuncinfo$?RunDefaultPacket@CGuildHouseDBCtrl@@AAEXAAVCAr@@K@Z DD 019930522H
	DD	01H
	DD	FLAT:__unwindtable$?RunDefaultPacket@CGuildHouseDBCtrl@@AAEXAAVCAr@@K@Z
	DD	2 DUP(00H)
	DD	2 DUP(00H)
	DD	00H
	DD	01H
xdata$x	ENDS
;	COMDAT xdata$x
xdata$x	SEGMENT
__unwindtable$?RemoveGuildHouse@CGuildHouseDBCtrl@@AAEXK@Z DD 0ffffffffH
	DD	FLAT:__unwindfunclet$?RemoveGuildHouse@CGuildHouseDBCtrl@@AAEXK@Z$0
__ehfuncinfo$?RemoveGuildHouse@CGuildHouseDBCtrl@@AAEXK@Z DD 019930522H
	DD	01H
	DD	FLAT:__unwindtable$?RemoveGuildHouse@CGuildHouseDBCtrl@@AAEXK@Z
	DD	2 DUP(00H)
	DD	2 DUP(00H)
	DD	00H
	DD	01H
xdata$x	ENDS
;	COMDAT xdata$x
xdata$x	SEGMENT
__unwindtable$?CreateGuildHouse@CGuildHouseDBCtrl@@AAEXAAVCAr@@K@Z DD 0ffffffffH
	DD	FLAT:__unwindfunclet$?CreateGuildHouse@CGuildHouseDBCtrl@@AAEXAAVCAr@@K@Z$0
	DD	00H
	DD	FLAT:__unwindfunclet$?CreateGuildHouse@CGuildHouseDBCtrl@@AAEXAAVCAr@@K@Z$3
__ehfuncinfo$?CreateGuildHouse@CGuildHouseDBCtrl@@AAEXAAVCAr@@K@Z DD 019930522H
	DD	02H
	DD	FLAT:__unwindtable$?CreateGuildHouse@CGuildHouseDBCtrl@@AAEXAAVCAr@@K@Z
	DD	2 DUP(00H)
	DD	2 DUP(00H)
	DD	00H
	DD	01H
xdata$x	ENDS
;	COMDAT xdata$x
xdata$x	SEGMENT
__unwindtable$?SendGuildHouse@CGuildHouseDBCtrl@@AAEXK@Z DD 0ffffffffH
	DD	FLAT:__unwindfunclet$?SendGuildHouse@CGuildHouseDBCtrl@@AAEXK@Z$0
__ehfuncinfo$?SendGuildHouse@CGuildHouseDBCtrl@@AAEXK@Z DD 019930522H
	DD	01H
	DD	FLAT:__unwindtable$?SendGuildHouse@CGuildHouseDBCtrl@@AAEXK@Z
	DD	2 DUP(00H)
	DD	2 DUP(00H)
	DD	00H
	DD	01H
xdata$x	ENDS
;	COMDAT xdata$x
xdata$x	SEGMENT
__unwindtable$?Handler@CGuildHouseDBCtrl@@UAEXPAUtagDB_OVERLAPPED_PLUS@@K@Z DD 0ffffffffH
	DD	FLAT:__unwindfunclet$?Handler@CGuildHouseDBCtrl@@UAEXPAUtagDB_OVERLAPPED_PLUS@@K@Z$0
__ehfuncinfo$?Handler@CGuildHouseDBCtrl@@UAEXPAUtagDB_OVERLAPPED_PLUS@@K@Z DD 019930522H
	DD	01H
	DD	FLAT:__unwindtable$?Handler@CGuildHouseDBCtrl@@UAEXPAUtagDB_OVERLAPPED_PLUS@@K@Z
	DD	2 DUP(00H)
	DD	2 DUP(00H)
	DD	00H
	DD	01H
xdata$x	ENDS
;	COMDAT xdata$x
xdata$x	SEGMENT
__unwindtable$??$insert@U?$pair@KPAVCGuildHouseBase@@@std@@$0A@@?$map@KPAVCGuildHouseBase@@U?$less@K@std@@V?$allocator@U?$pair@$$CBKPAVCGuildHouseBase@@@std@@@3@@std@@QAE?AU?$pair@V?$_Tree_iterator@V?$_Tree_val@U?$_Tree_simple_types@U?$pair@$$CBKPAVCGuildHouseBase@@@std@@@std@@@std@@@std@@_N@1@$$QAU?$pair@KPAVCGuildHouseBase@@@1@@Z DD 0ffffffffH
	DD	FLAT:__unwindfunclet$??$insert@U?$pair@KPAVCGuildHouseBase@@@std@@$0A@@?$map@KPAVCGuildHouseBase@@U?$less@K@std@@V?$allocator@U?$pair@$$CBKPAVCGuildHouseBase@@@std@@@3@@std@@QAE?AU?$pair@V?$_Tree_iterator@V?$_Tree_val@U?$_Tree_simple_types@U?$pair@$$CBKPAVCGuildHouseBase@@@std@@@std@@@std@@@std@@_N@1@$$QAU?$pair@KPAVCGuildHouseBase@@@1@@Z$2
__ehfuncinfo$??$insert@U?$pair@KPAVCGuildHouseBase@@@std@@$0A@@?$map@KPAVCGuildHouseBase@@U?$less@K@std@@V?$allocator@U?$pair@$$CBKPAVCGuildHouseBase@@@std@@@3@@std@@QAE?AU?$pair@V?$_Tree_iterator@V?$_Tree_val@U?$_Tree_simple_types@U?$pair@$$CBKPAVCGuildHouseBase@@@std@@@std@@@std@@@std@@_N@1@$$QAU?$pair@KPAVCGuildHouseBase@@@1@@Z DD 019930522H
	DD	01H
	DD	FLAT:__unwindtable$??$insert@U?$pair@KPAVCGuildHouseBase@@@std@@$0A@@?$map@KPAVCGuildHouseBase@@U?$less@K@std@@V?$allocator@U?$pair@$$CBKPAVCGuildHouseBase@@@std@@@3@@std@@QAE?AU?$pair@V?$_Tree_iterator@V?$_Tree_val@U?$_Tree_simple_types@U?$pair@$$CBKPAVCGuildHouseBase@@@std@@@std@@@std@@@std@@_N@1@$$QAU?$pair@KPAVCGuildHouseBase@@@1@@Z
	DD	2 DUP(00H)
	DD	2 DUP(00H)
	DD	00H
	DD	01H
xdata$x	ENDS
;	COMDAT xdata$x
xdata$x	SEGMENT
__unwindtable$?AddGuildHouse@CGuildHouseMng@@QAEHKPAVCGuildHouseBase@@@Z DD 0ffffffffH
	DD	FLAT:__unwindfunclet$?AddGuildHouse@CGuildHouseMng@@QAEHKPAVCGuildHouseBase@@@Z$2
__ehfuncinfo$?AddGuildHouse@CGuildHouseMng@@QAEHKPAVCGuildHouseBase@@@Z DD 019930522H
	DD	01H
	DD	FLAT:__unwindtable$?AddGuildHouse@CGuildHouseMng@@QAEHKPAVCGuildHouseBase@@@Z
	DD	2 DUP(00H)
	DD	2 DUP(00H)
	DD	00H
	DD	01H
xdata$x	ENDS
; Function compile flags: /Ogtp
; File C:\Program Files\Microsoft Visual Studio\2022\Professional\VC\Tools\MSVC\14.44.35207\include\xmemory
;	COMDAT ??1?$_Alloc_construct_ptr@V?$allocator@U?$_Tree_node@U?$pair@$$CBKPAVCGuildHouseBase@@@std@@PAX@std@@@std@@@std@@QAE@XZ
_TEXT	SEGMENT
??1?$_Alloc_construct_ptr@V?$allocator@U?$_Tree_node@U?$pair@$$CBKPAVCGuildHouseBase@@@std@@PAX@std@@@std@@@std@@QAE@XZ PROC ; std::_Alloc_construct_ptr<std::allocator<std::_Tree_node<std::pair<unsigned long const ,CGuildHouseBase *>,void *> > >::~_Alloc_construct_ptr<std::allocator<std::_Tree_node<std::pair<unsigned long const ,CGuildHouseBase *>,void *> > >, COMDAT
; _this$ = ecx

; 1172 :         if (_Ptr) {

  00000	8b 41 04	 mov	 eax, DWORD PTR [ecx+4]
  00003	85 c0		 test	 eax, eax
  00005	74 0b		 je	 SHORT $LN10@Alloc_cons

; 289  :         ::operator delete(_Ptr, _Bytes);

  00007	6a 18		 push	 24			; 00000018H
  00009	50		 push	 eax
  0000a	e8 00 00 00 00	 call	 ??3@YAXPAXI@Z		; operator delete
  0000f	83 c4 08	 add	 esp, 8
$LN10@Alloc_cons:

; 1173 :             _Al.deallocate(_Ptr, 1);
; 1174 :         }
; 1175 :     }

  00012	c3		 ret	 0
??1?$_Alloc_construct_ptr@V?$allocator@U?$_Tree_node@U?$pair@$$CBKPAVCGuildHouseBase@@@std@@PAX@std@@@std@@@std@@QAE@XZ ENDP ; std::_Alloc_construct_ptr<std::allocator<std::_Tree_node<std::pair<unsigned long const ,CGuildHouseBase *>,void *> > >::~_Alloc_construct_ptr<std::allocator<std::_Tree_node<std::pair<unsigned long const ,CGuildHouseBase *>,void *> > >
_TEXT	ENDS
; Function compile flags: /Ogtp
;	COMDAT ??__FsGHDBMng@?1??GetInstance@CGuildHouseDBMng@@SAPAV1@XZ@YAXXZ
text$yd	SEGMENT
??__FsGHDBMng@?1??GetInstance@CGuildHouseDBMng@@SAPAV1@XZ@YAXXZ PROC ; `CGuildHouseDBMng::GetInstance'::`2'::`dynamic atexit destructor for 'sGHDBMng'', COMDAT
  00000	b9 00 00 00 00	 mov	 ecx, OFFSET ?sGHDBMng@?1??GetInstance@CGuildHouseDBMng@@SAPAV2@XZ@4V2@A
  00005	e9 00 00 00 00	 jmp	 ??1CGuildHouseDBMng@@QAE@XZ ; CGuildHouseDBMng::~CGuildHouseDBMng
??__FsGHDBMng@?1??GetInstance@CGuildHouseDBMng@@SAPAV1@XZ@YAXXZ ENDP ; `CGuildHouseDBMng::GetInstance'::`2'::`dynamic atexit destructor for 'sGHDBMng''
text$yd	ENDS
; Function compile flags: /Ogtp
; File C:\IAGOS\server\v18\Source\Source\_Network\Misc\Include\Ar.h
;	COMDAT ??$?6I@CAr@@QAEAAV0@ABI@Z
_TEXT	SEGMENT
_t$ = 8							; size = 4
??$?6I@CAr@@QAEAAV0@ABI@Z PROC				; CAr::operator<<<unsigned int>, COMDAT
; _this$ = ecx

; 255  : {

  00000	55		 push	 ebp
  00001	8b ec		 mov	 ebp, esp
  00003	56		 push	 esi

; 256  : 	CheckBuf(sizeof(T));

  00004	6a 04		 push	 4
  00006	8b f1		 mov	 esi, ecx
  00008	e8 00 00 00 00	 call	 ?CheckBuf@CAr@@QAEXI@Z	; CAr::CheckBuf

; 257  : 	*(UNALIGNED T*)m_lpBufCur = t;

  0000d	8b 56 08	 mov	 edx, DWORD PTR [esi+8]
  00010	8b 45 08	 mov	 eax, DWORD PTR _t$[ebp]
  00013	8b 00		 mov	 eax, DWORD PTR [eax]
  00015	89 02		 mov	 DWORD PTR [edx], eax

; 258  : 	m_lpBufCur += sizeof(T);
; 259  : 	return *this;

  00017	8b c6		 mov	 eax, esi
  00019	83 46 08 04	 add	 DWORD PTR [esi+8], 4
  0001d	5e		 pop	 esi

; 260  : }

  0001e	5d		 pop	 ebp
  0001f	c2 04 00	 ret	 4
??$?6I@CAr@@QAEAAV0@ABI@Z ENDP				; CAr::operator<<<unsigned int>
_TEXT	ENDS
; Function compile flags: /Ogtp
; File C:\IAGOS\server\v18\Source\Source\_Network\Misc\Include\Ar.h
;	COMDAT ??$?5J@CAr@@QAEAAV0@AAJ@Z
_TEXT	SEGMENT
_t$ = 8							; size = 4
??$?5J@CAr@@QAEAAV0@AAJ@Z PROC				; CAr::operator>><long>, COMDAT
; _this$ = ecx

; 302  : {

  00000	55		 push	 ebp
  00001	8b ec		 mov	 ebp, esp
  00003	8b d1		 mov	 edx, ecx

; 303  : 	if (m_lpBufCur + sizeof(T) <= m_lpBufMax)

  00005	8b 4a 08	 mov	 ecx, DWORD PTR [edx+8]
  00008	8d 41 04	 lea	 eax, DWORD PTR [ecx+4]
  0000b	3b 42 0c	 cmp	 eax, DWORD PTR [edx+12]
  0000e	8b 45 08	 mov	 eax, DWORD PTR _t$[ebp]
  00011	77 0e		 ja	 SHORT $LN2@operator

; 304  : 	{
; 305  : 		t = *(UNALIGNED T*)m_lpBufCur;

  00013	8b 09		 mov	 ecx, DWORD PTR [ecx]
  00015	89 08		 mov	 DWORD PTR [eax], ecx

; 312  : 	}
; 313  : 	return *this;
; 314  : }

  00017	8b c2		 mov	 eax, edx
  00019	83 42 08 04	 add	 DWORD PTR [edx+8], 4
  0001d	5d		 pop	 ebp
  0001e	c2 04 00	 ret	 4
$LN2@operator:

; 306  : 		m_lpBufCur += sizeof(T);
; 307  : 	}
; 308  : 	else
; 309  : 	{
; 310  : 		t = T();

  00021	c7 00 00 00 00
	00		 mov	 DWORD PTR [eax], 0

; 311  : 		m_lpBufCur = m_lpBufMax;

  00027	8b 42 0c	 mov	 eax, DWORD PTR [edx+12]
  0002a	89 42 08	 mov	 DWORD PTR [edx+8], eax

; 312  : 	}
; 313  : 	return *this;
; 314  : }

  0002d	8b c2		 mov	 eax, edx
  0002f	5d		 pop	 ebp
  00030	c2 04 00	 ret	 4
??$?5J@CAr@@QAEAAV0@AAJ@Z ENDP				; CAr::operator>><long>
_TEXT	ENDS
; Function compile flags: /Ogtp
; File C:\IAGOS\server\v18\Source\Source\_Network\Misc\Include\Ar.h
;	COMDAT ??$?5K@CAr@@QAEAAV0@AAK@Z
_TEXT	SEGMENT
_t$ = 8							; size = 4
??$?5K@CAr@@QAEAAV0@AAK@Z PROC				; CAr::operator>><unsigned long>, COMDAT
; _this$ = ecx

; 302  : {

  00000	55		 push	 ebp
  00001	8b ec		 mov	 ebp, esp
  00003	8b d1		 mov	 edx, ecx

; 303  : 	if (m_lpBufCur + sizeof(T) <= m_lpBufMax)

  00005	8b 4a 08	 mov	 ecx, DWORD PTR [edx+8]
  00008	8d 41 04	 lea	 eax, DWORD PTR [ecx+4]
  0000b	3b 42 0c	 cmp	 eax, DWORD PTR [edx+12]
  0000e	8b 45 08	 mov	 eax, DWORD PTR _t$[ebp]
  00011	77 0e		 ja	 SHORT $LN2@operator

; 304  : 	{
; 305  : 		t = *(UNALIGNED T*)m_lpBufCur;

  00013	8b 09		 mov	 ecx, DWORD PTR [ecx]
  00015	89 08		 mov	 DWORD PTR [eax], ecx

; 312  : 	}
; 313  : 	return *this;
; 314  : }

  00017	8b c2		 mov	 eax, edx
  00019	83 42 08 04	 add	 DWORD PTR [edx+8], 4
  0001d	5d		 pop	 ebp
  0001e	c2 04 00	 ret	 4
$LN2@operator:

; 306  : 		m_lpBufCur += sizeof(T);
; 307  : 	}
; 308  : 	else
; 309  : 	{
; 310  : 		t = T();

  00021	c7 00 00 00 00
	00		 mov	 DWORD PTR [eax], 0

; 311  : 		m_lpBufCur = m_lpBufMax;

  00027	8b 42 0c	 mov	 eax, DWORD PTR [edx+12]
  0002a	89 42 08	 mov	 DWORD PTR [edx+8], eax

; 312  : 	}
; 313  : 	return *this;
; 314  : }

  0002d	8b c2		 mov	 eax, edx
  0002f	5d		 pop	 ebp
  00030	c2 04 00	 ret	 4
??$?5K@CAr@@QAEAAV0@AAK@Z ENDP				; CAr::operator>><unsigned long>
_TEXT	ENDS
; Function compile flags: /Ogtp
; File C:\IAGOS\server\v18\Source\Source\_Network\Misc\Include\Ar.h
;	COMDAT ??$?6K@CAr@@QAEAAV0@ABK@Z
_TEXT	SEGMENT
_t$ = 8							; size = 4
??$?6K@CAr@@QAEAAV0@ABK@Z PROC				; CAr::operator<<<unsigned long>, COMDAT
; _this$ = ecx

; 255  : {

  00000	55		 push	 ebp
  00001	8b ec		 mov	 ebp, esp
  00003	56		 push	 esi

; 256  : 	CheckBuf(sizeof(T));

  00004	6a 04		 push	 4
  00006	8b f1		 mov	 esi, ecx
  00008	e8 00 00 00 00	 call	 ?CheckBuf@CAr@@QAEXI@Z	; CAr::CheckBuf

; 257  : 	*(UNALIGNED T*)m_lpBufCur = t;

  0000d	8b 56 08	 mov	 edx, DWORD PTR [esi+8]
  00010	8b 45 08	 mov	 eax, DWORD PTR _t$[ebp]
  00013	8b 00		 mov	 eax, DWORD PTR [eax]
  00015	89 02		 mov	 DWORD PTR [edx], eax

; 258  : 	m_lpBufCur += sizeof(T);
; 259  : 	return *this;

  00017	8b c6		 mov	 eax, esi
  00019	83 46 08 04	 add	 DWORD PTR [esi+8], 4
  0001d	5e		 pop	 esi

; 260  : }

  0001e	5d		 pop	 ebp
  0001f	c2 04 00	 ret	 4
??$?6K@CAr@@QAEAAV0@ABK@Z ENDP				; CAr::operator<<<unsigned long>
_TEXT	ENDS
; Function compile flags: /Ogtp
; File C:\IAGOS\server\v18\Source\Source\_Network\Misc\Include\Ar.h
;	COMDAT ??$?5H@CAr@@QAEAAV0@AAH@Z
_TEXT	SEGMENT
_t$ = 8							; size = 4
??$?5H@CAr@@QAEAAV0@AAH@Z PROC				; CAr::operator>><int>, COMDAT
; _this$ = ecx

; 302  : {

  00000	55		 push	 ebp
  00001	8b ec		 mov	 ebp, esp
  00003	8b d1		 mov	 edx, ecx

; 303  : 	if (m_lpBufCur + sizeof(T) <= m_lpBufMax)

  00005	8b 4a 08	 mov	 ecx, DWORD PTR [edx+8]
  00008	8d 41 04	 lea	 eax, DWORD PTR [ecx+4]
  0000b	3b 42 0c	 cmp	 eax, DWORD PTR [edx+12]
  0000e	8b 45 08	 mov	 eax, DWORD PTR _t$[ebp]
  00011	77 0e		 ja	 SHORT $LN2@operator

; 304  : 	{
; 305  : 		t = *(UNALIGNED T*)m_lpBufCur;

  00013	8b 09		 mov	 ecx, DWORD PTR [ecx]
  00015	89 08		 mov	 DWORD PTR [eax], ecx

; 312  : 	}
; 313  : 	return *this;
; 314  : }

  00017	8b c2		 mov	 eax, edx
  00019	83 42 08 04	 add	 DWORD PTR [edx+8], 4
  0001d	5d		 pop	 ebp
  0001e	c2 04 00	 ret	 4
$LN2@operator:

; 306  : 		m_lpBufCur += sizeof(T);
; 307  : 	}
; 308  : 	else
; 309  : 	{
; 310  : 		t = T();

  00021	c7 00 00 00 00
	00		 mov	 DWORD PTR [eax], 0

; 311  : 		m_lpBufCur = m_lpBufMax;

  00027	8b 42 0c	 mov	 eax, DWORD PTR [edx+12]
  0002a	89 42 08	 mov	 DWORD PTR [edx+8], eax

; 312  : 	}
; 313  : 	return *this;
; 314  : }

  0002d	8b c2		 mov	 eax, edx
  0002f	5d		 pop	 ebp
  00030	c2 04 00	 ret	 4
??$?5H@CAr@@QAEAAV0@AAH@Z ENDP				; CAr::operator>><int>
_TEXT	ENDS
; Function compile flags: /Ogtp
; File C:\IAGOS\server\v18\Source\Source\_Network\Misc\Include\Ar.h
;	COMDAT ??$?6H@CAr@@QAEAAV0@ABH@Z
_TEXT	SEGMENT
_t$ = 8							; size = 4
??$?6H@CAr@@QAEAAV0@ABH@Z PROC				; CAr::operator<<<int>, COMDAT
; _this$ = ecx

; 255  : {

  00000	55		 push	 ebp
  00001	8b ec		 mov	 ebp, esp
  00003	56		 push	 esi

; 256  : 	CheckBuf(sizeof(T));

  00004	6a 04		 push	 4
  00006	8b f1		 mov	 esi, ecx
  00008	e8 00 00 00 00	 call	 ?CheckBuf@CAr@@QAEXI@Z	; CAr::CheckBuf

; 257  : 	*(UNALIGNED T*)m_lpBufCur = t;

  0000d	8b 56 08	 mov	 edx, DWORD PTR [esi+8]
  00010	8b 45 08	 mov	 eax, DWORD PTR _t$[ebp]
  00013	8b 00		 mov	 eax, DWORD PTR [eax]
  00015	89 02		 mov	 DWORD PTR [edx], eax

; 258  : 	m_lpBufCur += sizeof(T);
; 259  : 	return *this;

  00017	8b c6		 mov	 eax, esi
  00019	83 46 08 04	 add	 DWORD PTR [esi+8], 4
  0001d	5e		 pop	 esi

; 260  : }

  0001e	5d		 pop	 ebp
  0001f	c2 04 00	 ret	 4
??$?6H@CAr@@QAEAAV0@ABH@Z ENDP				; CAr::operator<<<int>
_TEXT	ENDS
; Function compile flags: /Ogtp
; File C:\IAGOS\server\v18\Source\Source\DatabaseServer\GuildHouseDBCtrl.cpp
;	COMDAT ?GetInstance@CGuildHouseDBMng@@SAPAV1@XZ
_TEXT	SEGMENT
__$EHRec$ = -12						; size = 12
?GetInstance@CGuildHouseDBMng@@SAPAV1@XZ PROC		; CGuildHouseDBMng::GetInstance, COMDAT

; 475  : {

  00000	55		 push	 ebp
  00001	8b ec		 mov	 ebp, esp
  00003	6a ff		 push	 -1
  00005	68 00 00 00 00	 push	 __ehhandler$?GetInstance@CGuildHouseDBMng@@SAPAV1@XZ
  0000a	64 a1 00 00 00
	00		 mov	 eax, DWORD PTR fs:0
  00010	50		 push	 eax
  00011	a1 00 00 00 00	 mov	 eax, DWORD PTR ___security_cookie
  00016	33 c5		 xor	 eax, ebp
  00018	50		 push	 eax
  00019	8d 45 f4	 lea	 eax, DWORD PTR __$EHRec$[ebp]
  0001c	64 a3 00 00 00
	00		 mov	 DWORD PTR fs:0, eax

; 476  : 	static CGuildHouseDBMng sGHDBMng;

  00022	64 a1 00 00 00
	00		 mov	 eax, DWORD PTR fs:__tls_array
  00028	8b 0d 00 00 00
	00		 mov	 ecx, DWORD PTR __tls_index
  0002e	8b 0c 88	 mov	 ecx, DWORD PTR [eax+ecx*4]
  00031	a1 00 00 00 00	 mov	 eax, DWORD PTR ?$TSS0@?1??GetInstance@CGuildHouseDBMng@@SAPAV2@XZ@4HA
  00036	3b 81 00 00 00
	00		 cmp	 eax, DWORD PTR __Init_thread_epoch[ecx]
  0003c	7f 14		 jg	 SHORT $LN9@GetInstanc
$LN5@GetInstanc:

; 477  : 	return & sGHDBMng;
; 478  : }

  0003e	b8 00 00 00 00	 mov	 eax, OFFSET ?sGHDBMng@?1??GetInstance@CGuildHouseDBMng@@SAPAV2@XZ@4V2@A
  00043	8b 4d f4	 mov	 ecx, DWORD PTR __$EHRec$[ebp]
  00046	64 89 0d 00 00
	00 00		 mov	 DWORD PTR fs:0, ecx
  0004d	59		 pop	 ecx
  0004e	8b e5		 mov	 esp, ebp
  00050	5d		 pop	 ebp
  00051	c3		 ret	 0
$LN9@GetInstanc:

; 476  : 	static CGuildHouseDBMng sGHDBMng;

  00052	68 00 00 00 00	 push	 OFFSET ?$TSS0@?1??GetInstance@CGuildHouseDBMng@@SAPAV2@XZ@4HA
  00057	e8 00 00 00 00	 call	 __Init_thread_header
  0005c	83 c4 04	 add	 esp, 4
  0005f	83 3d 00 00 00
	00 ff		 cmp	 DWORD PTR ?$TSS0@?1??GetInstance@CGuildHouseDBMng@@SAPAV2@XZ@4HA, -1
  00066	75 d6		 jne	 SHORT $LN5@GetInstanc
  00068	b9 00 00 00 00	 mov	 ecx, OFFSET ?sGHDBMng@?1??GetInstance@CGuildHouseDBMng@@SAPAV2@XZ@4V2@A
  0006d	c7 45 fc 00 00
	00 00		 mov	 DWORD PTR __$EHRec$[ebp+8], 0
  00074	e8 00 00 00 00	 call	 ??0CGuildHouseDBMng@@QAE@XZ ; CGuildHouseDBMng::CGuildHouseDBMng
  00079	68 00 00 00 00	 push	 OFFSET ??__FsGHDBMng@?1??GetInstance@CGuildHouseDBMng@@SAPAV1@XZ@YAXXZ ; `CGuildHouseDBMng::GetInstance'::`2'::`dynamic atexit destructor for 'sGHDBMng''
  0007e	e8 00 00 00 00	 call	 _atexit
  00083	68 00 00 00 00	 push	 OFFSET ?$TSS0@?1??GetInstance@CGuildHouseDBMng@@SAPAV2@XZ@4HA
  00088	e8 00 00 00 00	 call	 __Init_thread_footer
  0008d	83 c4 08	 add	 esp, 8
  00090	eb ac		 jmp	 SHORT $LN5@GetInstanc
_TEXT	ENDS
;	COMDAT text$x
text$x	SEGMENT
__unwindfunclet$?GetInstance@CGuildHouseDBMng@@SAPAV1@XZ$0:
  00000	68 00 00 00 00	 push	 OFFSET ?$TSS0@?1??GetInstance@CGuildHouseDBMng@@SAPAV2@XZ@4HA
  00005	e8 00 00 00 00	 call	 __Init_thread_abort
  0000a	59		 pop	 ecx
  0000b	c3		 ret	 0
  0000c	cc		 int	 3
  0000d	cc		 int	 3
  0000e	cc		 int	 3
  0000f	cc		 int	 3
  00010	cc		 int	 3
__ehhandler$?GetInstance@CGuildHouseDBMng@@SAPAV1@XZ:
  00011	90		 npad	 1
  00012	90		 npad	 1
  00013	8b 54 24 08	 mov	 edx, DWORD PTR [esp+8]
  00017	8d 42 0c	 lea	 eax, DWORD PTR [edx+12]
  0001a	8b 4a fc	 mov	 ecx, DWORD PTR [edx-4]
  0001d	33 c8		 xor	 ecx, eax
  0001f	e8 00 00 00 00	 call	 @__security_check_cookie@4
  00024	b8 00 00 00 00	 mov	 eax, OFFSET __ehfuncinfo$?GetInstance@CGuildHouseDBMng@@SAPAV1@XZ
  00029	e9 00 00 00 00	 jmp	 ___CxxFrameHandler3
text$x	ENDS
?GetInstance@CGuildHouseDBMng@@SAPAV1@XZ ENDP		; CGuildHouseDBMng::GetInstance
; Function compile flags: /Ogtp
; File C:\IAGOS\server\v18\Source\Source\DatabaseServer\GuildHouseDBCtrl.cpp
;	COMDAT ??1CGuildHouseDBMng@@QAE@XZ
_TEXT	SEGMENT
__$EHRec$ = -12						; size = 12
??1CGuildHouseDBMng@@QAE@XZ PROC			; CGuildHouseDBMng::~CGuildHouseDBMng, COMDAT
; _this$ = ecx

; 470  : {

  00000	55		 push	 ebp
  00001	8b ec		 mov	 ebp, esp
  00003	6a ff		 push	 -1
  00005	68 00 00 00 00	 push	 __ehhandler$??1CGuildHouseDBMng@@QAE@XZ
  0000a	64 a1 00 00 00
	00		 mov	 eax, DWORD PTR fs:0
  00010	50		 push	 eax
  00011	56		 push	 esi
  00012	a1 00 00 00 00	 mov	 eax, DWORD PTR ___security_cookie
  00017	33 c5		 xor	 eax, ebp
  00019	50		 push	 eax
  0001a	8d 45 f4	 lea	 eax, DWORD PTR __$EHRec$[ebp]
  0001d	64 a3 00 00 00
	00		 mov	 DWORD PTR fs:0, eax
  00023	8b f1		 mov	 esi, ecx

; 471  : 	m_GHDBCtrl.CloseDbHandler();

  00025	e8 00 00 00 00	 call	 ?CloseDbHandler@CDbController@@QAEXXZ ; CDbController::CloseDbHandler

; 472  : }

  0002a	8b ce		 mov	 ecx, esi
  0002c	e8 00 00 00 00	 call	 ??1CGuildHouseDBCtrl@@UAE@XZ ; CGuildHouseDBCtrl::~CGuildHouseDBCtrl
  00031	8b 4d f4	 mov	 ecx, DWORD PTR __$EHRec$[ebp]
  00034	64 89 0d 00 00
	00 00		 mov	 DWORD PTR fs:0, ecx
  0003b	59		 pop	 ecx
  0003c	5e		 pop	 esi
  0003d	8b e5		 mov	 esp, ebp
  0003f	5d		 pop	 ebp
  00040	c3		 ret	 0
  00041	cc		 int	 3
  00042	cc		 int	 3
  00043	cc		 int	 3
  00044	cc		 int	 3
  00045	cc		 int	 3
_TEXT	ENDS
;	COMDAT text$x
text$x	SEGMENT
__ehhandler$??1CGuildHouseDBMng@@QAE@XZ:
  00000	90		 npad	 1
  00001	90		 npad	 1
  00002	8b 54 24 08	 mov	 edx, DWORD PTR [esp+8]
  00006	8d 42 0c	 lea	 eax, DWORD PTR [edx+12]
  00009	8b 4a f8	 mov	 ecx, DWORD PTR [edx-8]
  0000c	33 c8		 xor	 ecx, eax
  0000e	e8 00 00 00 00	 call	 @__security_check_cookie@4
  00013	b8 00 00 00 00	 mov	 eax, OFFSET __ehfuncinfo$??1CGuildHouseDBMng@@QAE@XZ
  00018	e9 00 00 00 00	 jmp	 ___CxxFrameHandler3
text$x	ENDS
??1CGuildHouseDBMng@@QAE@XZ ENDP			; CGuildHouseDBMng::~CGuildHouseDBMng
; Function compile flags: /Ogtp
; File C:\IAGOS\server\v18\Source\Source\DatabaseServer\GuildHouseDBCtrl.cpp
;	COMDAT ??0CGuildHouseDBMng@@QAE@XZ
_TEXT	SEGMENT
_this$ = -16						; size = 4
__$EHRec$ = -12						; size = 12
??0CGuildHouseDBMng@@QAE@XZ PROC			; CGuildHouseDBMng::CGuildHouseDBMng, COMDAT
; _this$ = ecx

; 464  : {

  00000	55		 push	 ebp
  00001	8b ec		 mov	 ebp, esp
  00003	6a ff		 push	 -1
  00005	68 00 00 00 00	 push	 __ehhandler$??0CGuildHouseDBMng@@QAE@XZ
  0000a	64 a1 00 00 00
	00		 mov	 eax, DWORD PTR fs:0
  00010	50		 push	 eax
  00011	51		 push	 ecx
  00012	56		 push	 esi
  00013	a1 00 00 00 00	 mov	 eax, DWORD PTR ___security_cookie
  00018	33 c5		 xor	 eax, ebp
  0001a	50		 push	 eax
  0001b	8d 45 f4	 lea	 eax, DWORD PTR __$EHRec$[ebp]
  0001e	64 a3 00 00 00
	00		 mov	 DWORD PTR fs:0, eax
  00024	8b f1		 mov	 esi, ecx
  00026	89 75 f0	 mov	 DWORD PTR _this$[ebp], esi
  00029	e8 00 00 00 00	 call	 ??0CGuildHouseDBCtrl@@QAE@XZ ; CGuildHouseDBCtrl::CGuildHouseDBCtrl

; 465  : 	if( !m_GHDBCtrl.CreateDbHandler( SEC( 5 ) ) )

  0002e	68 88 13 00 00	 push	 5000			; 00001388H
  00033	8b ce		 mov	 ecx, esi
  00035	c7 45 fc 00 00
	00 00		 mov	 DWORD PTR __$EHRec$[ebp+8], 0
  0003c	e8 00 00 00 00	 call	 ?CreateDbHandler@CDbController@@QAEHK@Z ; CDbController::CreateDbHandler
  00041	85 c0		 test	 eax, eax
  00043	75 0d		 jne	 SHORT $LN5@CGuildHous

; 466  : 		Error( "CGuildHouseDBMng - m_GHDBCtrl.CreateDbHandler() FAILED!" );

  00045	68 00 00 00 00	 push	 OFFSET ??_C@_0DI@FJCGHDE@CGuildHouseDBMng?5?9?5m_GHDBCtrl?4C@
  0004a	e8 00 00 00 00	 call	 ?Error@@YAPBDPBDZZ	; Error
  0004f	83 c4 04	 add	 esp, 4
$LN5@CGuildHous:

; 467  : }

  00052	8b c6		 mov	 eax, esi
  00054	8b 4d f4	 mov	 ecx, DWORD PTR __$EHRec$[ebp]
  00057	64 89 0d 00 00
	00 00		 mov	 DWORD PTR fs:0, ecx
  0005e	59		 pop	 ecx
  0005f	5e		 pop	 esi
  00060	8b e5		 mov	 esp, ebp
  00062	5d		 pop	 ebp
  00063	c3		 ret	 0
_TEXT	ENDS
;	COMDAT text$x
text$x	SEGMENT
__unwindfunclet$??0CGuildHouseDBMng@@QAE@XZ$0:
  00000	8b 4d f0	 mov	 ecx, DWORD PTR _this$[ebp]
  00003	e9 00 00 00 00	 jmp	 ??1CGuildHouseDBCtrl@@UAE@XZ ; CGuildHouseDBCtrl::~CGuildHouseDBCtrl
  00008	cc		 int	 3
  00009	cc		 int	 3
  0000a	cc		 int	 3
  0000b	cc		 int	 3
  0000c	cc		 int	 3
__ehhandler$??0CGuildHouseDBMng@@QAE@XZ:
  0000d	90		 npad	 1
  0000e	90		 npad	 1
  0000f	8b 54 24 08	 mov	 edx, DWORD PTR [esp+8]
  00013	8d 42 0c	 lea	 eax, DWORD PTR [edx+12]
  00016	8b 4a f4	 mov	 ecx, DWORD PTR [edx-12]
  00019	33 c8		 xor	 ecx, eax
  0001b	e8 00 00 00 00	 call	 @__security_check_cookie@4
  00020	b8 00 00 00 00	 mov	 eax, OFFSET __ehfuncinfo$??0CGuildHouseDBMng@@QAE@XZ
  00025	e9 00 00 00 00	 jmp	 ___CxxFrameHandler3
text$x	ENDS
??0CGuildHouseDBMng@@QAE@XZ ENDP			; CGuildHouseDBMng::CGuildHouseDBMng
; Function compile flags: /Ogtp
;	COMDAT ??_GCGuildHouseDBCtrl@@UAEPAXI@Z
_TEXT	SEGMENT
___flags$ = 8						; size = 4
??_GCGuildHouseDBCtrl@@UAEPAXI@Z PROC			; CGuildHouseDBCtrl::`scalar deleting destructor', COMDAT
; _this$ = ecx
  00000	55		 push	 ebp
  00001	8b ec		 mov	 ebp, esp
  00003	56		 push	 esi
  00004	8b f1		 mov	 esi, ecx
  00006	e8 00 00 00 00	 call	 ??1CGuildHouseDBCtrl@@UAE@XZ ; CGuildHouseDBCtrl::~CGuildHouseDBCtrl
  0000b	f6 45 08 01	 test	 BYTE PTR ___flags$[ebp], 1
  0000f	74 0b		 je	 SHORT $LN5@scalar
  00011	6a 14		 push	 20			; 00000014H
  00013	56		 push	 esi
  00014	e8 00 00 00 00	 call	 ??3@YAXPAXI@Z		; operator delete
  00019	83 c4 08	 add	 esp, 8
$LN5@scalar:
  0001c	8b c6		 mov	 eax, esi
  0001e	5e		 pop	 esi
  0001f	5d		 pop	 ebp
  00020	c2 04 00	 ret	 4
??_GCGuildHouseDBCtrl@@UAEPAXI@Z ENDP			; CGuildHouseDBCtrl::`scalar deleting destructor'
_TEXT	ENDS
; Function compile flags: /Ogtp
; File C:\IAGOS\server\v18\Source\Source\DatabaseServer\GuildHouseDBCtrl.cpp
; File C:\IAGOS\server\v18\Source\Source\_Common\GuildHouse.h
; File C:\IAGOS\server\v18\Source\Source\DatabaseServer\GuildHouseDBCtrl.cpp
; File C:\IAGOS\server\v18\Source\Source\_Common\GuildHouse.h
; File C:\IAGOS\server\v18\Source\Source\DatabaseServer\GuildHouseDBCtrl.cpp
; File C:\Program Files\Microsoft Visual Studio\2022\Professional\VC\Tools\MSVC\14.44.35207\include\vector
; File C:\IAGOS\server\v18\Source\Source\DatabaseServer\GuildHouseDBCtrl.cpp
; File C:\Program Files\Microsoft Visual Studio\2022\Professional\VC\Tools\MSVC\14.44.35207\include\vector
; File C:\IAGOS\server\v18\Source\Source\DatabaseServer\GuildHouseDBCtrl.cpp
; File C:\Program Files\Microsoft Visual Studio\2022\Professional\VC\Tools\MSVC\14.44.35207\include\vector
; File C:\IAGOS\server\v18\Source\Source\DatabaseServer\GuildHouseDBCtrl.cpp
; File C:\Program Files\Microsoft Visual Studio\2022\Professional\VC\Tools\MSVC\14.44.35207\include\vector
; File C:\IAGOS\server\v18\Source\Source\DatabaseServer\GuildHouseDBCtrl.cpp
;	COMDAT ?ExcuteQuery@CGuildHouseDBCtrl@@AAEHKPAVCGuildHouseBase@@HAAUGuildHouse_Furniture_Info@2@H@Z
_TEXT	SEGMENT
$T1 = -36						; size = 36
$T2 = -36						; size = 36
_dwGuildId$ = 8						; size = 4
_pGuildHouse$ = 12					; size = 4
_nPacketType$ = 16					; size = 4
_gfi$ = 20						; size = 4
_nIndex$ = 24						; size = 4
?ExcuteQuery@CGuildHouseDBCtrl@@AAEHKPAVCGuildHouseBase@@HAAUGuildHouse_Furniture_Info@2@H@Z PROC ; CGuildHouseDBCtrl::ExcuteQuery, COMDAT
; _this$ = ecx

; 182  : {

  00000	55		 push	 ebp
  00001	8b ec		 mov	 ebp, esp

; 183  : 	switch( nPacketType )

  00003	8b 45 10	 mov	 eax, DWORD PTR _nPacketType$[ebp]
  00006	83 ec 24	 sub	 esp, 36			; 00000024H
  00009	56		 push	 esi
  0000a	8b f1		 mov	 esi, ecx
  0000c	57		 push	 edi
  0000d	83 f8 07	 cmp	 eax, 7
  00010	0f 87 d1 01 00
	00		 ja	 $LN2@ExcuteQuer
  00016	ff 24 85 00 00
	00 00		 jmp	 DWORD PTR $LN32@ExcuteQuer[eax*4]
$LN4@ExcuteQuer:

; 186  : 			if( GetQueryObject()->Execute( "usp_GuildFurniture_Insert '%02d', '%06d', %d, %d, %d, %d,\

  0001d	e8 00 00 00 00	 call	 ?GetInstance@CGuildHouseMng@@SAPAV1@XZ ; CGuildHouseMng::GetInstance
  00022	8b 7d 14	 mov	 edi, DWORD PTR _gfi$[ebp]
  00025	83 ec 20	 sub	 esp, 32			; 00000020H
; File C:\IAGOS\server\v18\Source\Source\_Common\GuildHouse.h

; 339  : 	int		GetSeqNum() { return m_nSeqNum; }

  00028	8b 00		 mov	 eax, DWORD PTR [eax]
  0002a	f3 0f 10 47 14	 movss	 xmm0, DWORD PTR [edi+20]
; File C:\IAGOS\server\v18\Source\Source\DatabaseServer\GuildHouseDBCtrl.cpp

; 186  : 			if( GetQueryObject()->Execute( "usp_GuildFurniture_Insert '%02d', '%06d', %d, %d, %d, %d,\

  0002f	40		 inc	 eax
  00030	0f 5a c0	 cvtps2pd xmm0, xmm0
  00033	f2 0f 11 44 24
	18		 movsd	 QWORD PTR [esp+24], xmm0
  00039	f3 0f 10 47 10	 movss	 xmm0, DWORD PTR [edi+16]
  0003e	0f 5a c0	 cvtps2pd xmm0, xmm0
  00041	f2 0f 11 44 24
	10		 movsd	 QWORD PTR [esp+16], xmm0
  00047	f3 0f 10 47 0c	 movss	 xmm0, DWORD PTR [edi+12]
  0004c	0f 5a c0	 cvtps2pd xmm0, xmm0
  0004f	f2 0f 11 44 24
	08		 movsd	 QWORD PTR [esp+8], xmm0
  00055	f3 0f 10 47 08	 movss	 xmm0, DWORD PTR [edi+8]
  0005a	0f 5a c0	 cvtps2pd xmm0, xmm0
  0005d	f2 0f 11 04 24	 movsd	 QWORD PTR [esp], xmm0
  00062	ff 77 04	 push	 DWORD PTR [edi+4]
  00065	ff 77 1c	 push	 DWORD PTR [edi+28]
  00068	ff 37		 push	 DWORD PTR [edi]
  0006a	50		 push	 eax
  0006b	ff 75 08	 push	 DWORD PTR _dwGuildId$[ebp]
  0006e	ff 35 00 00 00
	00		 push	 DWORD PTR ?g_appInfo@@3UAppInfo@@A
  00074	68 00 00 00 00	 push	 OFFSET ??_C@_0FD@EGCAKHP@usp_GuildFurniture_Insert?5?8?$CF02d@
  00079	ff 76 0c	 push	 DWORD PTR [esi+12]
  0007c	e8 00 00 00 00	 call	 ?Execute@CQuery@@QAAHPBDZZ ; CQuery::Execute
  00081	83 c4 40	 add	 esp, 64			; 00000040H
  00084	85 c0		 test	 eax, eax
  00086	0f 84 5b 01 00
	00		 je	 $LN2@ExcuteQuer

; 191  : 				gfi.nSeqNum = GuildHouseMng->AddSeqNum();

  0008c	e8 00 00 00 00	 call	 ?GetInstance@CGuildHouseMng@@SAPAV1@XZ ; CGuildHouseMng::GetInstance
; File C:\IAGOS\server\v18\Source\Source\_Common\GuildHouse.h

; 338  : 	int		AddSeqNum()	{ return ++m_nSeqNum; }

  00091	ff 00		 inc	 DWORD PTR [eax]
  00093	8b 00		 mov	 eax, DWORD PTR [eax]
; File C:\IAGOS\server\v18\Source\Source\DatabaseServer\GuildHouseDBCtrl.cpp

; 191  : 				gfi.nSeqNum = GuildHouseMng->AddSeqNum();

  00095	89 47 20	 mov	 DWORD PTR [edi+32], eax

; 192  : 				return TRUE;

  00098	b8 01 00 00 00	 mov	 eax, 1
  0009d	5f		 pop	 edi

; 222  : }

  0009e	5e		 pop	 esi
  0009f	8b e5		 mov	 esp, ebp
  000a1	5d		 pop	 ebp
  000a2	c2 14 00	 ret	 20			; 00000014H
$LN6@ExcuteQuer:
; File C:\Program Files\Microsoft Visual Studio\2022\Professional\VC\Tools\MSVC\14.44.35207\include\vector

; 1914 :         auto& _My_data = _Mypair._Myval2;

  000a5	8b 7d 0c	 mov	 edi, DWORD PTR _pGuildHouse$[ebp]

; 1915 :         return static_cast<size_type>(_My_data._Mylast - _My_data._Myfirst);

  000a8	b8 39 8e e3 38	 mov	 eax, 954437177		; 38e38e39H
  000ad	8b 4f 10	 mov	 ecx, DWORD PTR [edi+16]
  000b0	2b 4f 0c	 sub	 ecx, DWORD PTR [edi+12]
  000b3	f7 e9		 imul	 ecx
; File C:\IAGOS\server\v18\Source\Source\DatabaseServer\GuildHouseDBCtrl.cpp

; 198  : 			if( nIndex >= pGuildHouse->GetFurnitureListSize() )

  000b5	8b 4d 18	 mov	 ecx, DWORD PTR _nIndex$[ebp]
; File C:\Program Files\Microsoft Visual Studio\2022\Professional\VC\Tools\MSVC\14.44.35207\include\vector

; 1915 :         return static_cast<size_type>(_My_data._Mylast - _My_data._Myfirst);

  000b8	c1 fa 03	 sar	 edx, 3
  000bb	8b c2		 mov	 eax, edx
  000bd	c1 e8 1f	 shr	 eax, 31			; 0000001fH
  000c0	03 c2		 add	 eax, edx
; File C:\IAGOS\server\v18\Source\Source\DatabaseServer\GuildHouseDBCtrl.cpp

; 198  : 			if( nIndex >= pGuildHouse->GetFurnitureListSize() )

  000c2	3b c8		 cmp	 ecx, eax
  000c4	0f 8d 1d 01 00
	00		 jge	 $LN2@ExcuteQuer

; 199  : 				return FALSE;
; 200  : 			gfi.nSeqNum = pGuildHouse->GetFurnitureInfo( nIndex ).nSeqNum;

  000ca	51		 push	 ecx
  000cb	8d 45 dc	 lea	 eax, DWORD PTR $T1[ebp]
  000ce	8b cf		 mov	 ecx, edi
  000d0	50		 push	 eax
  000d1	e8 00 00 00 00	 call	 ?GetFurnitureInfo@CGuildHouseBase@@QAE?AUGuildHouse_Furniture_Info@1@H@Z ; CGuildHouseBase::GetFurnitureInfo
  000d6	8b 48 20	 mov	 ecx, DWORD PTR [eax+32]
  000d9	8b 45 14	 mov	 eax, DWORD PTR _gfi$[ebp]

; 201  : 			return GetQueryObject()->Execute( "usp_GuildFurniture_Delete '%02d', '%06d', %d", g_appInfo.dwSys, dwGuildId, gfi.nSeqNum );

  000dc	51		 push	 ecx
  000dd	ff 75 08	 push	 DWORD PTR _dwGuildId$[ebp]
  000e0	89 48 20	 mov	 DWORD PTR [eax+32], ecx
  000e3	ff 35 00 00 00
	00		 push	 DWORD PTR ?g_appInfo@@3UAppInfo@@A
  000e9	68 00 00 00 00	 push	 OFFSET ??_C@_0CN@CCPIJJJF@usp_GuildFurniture_Delete?5?8?$CF02d@
  000ee	ff 76 0c	 push	 DWORD PTR [esi+12]
  000f1	e8 00 00 00 00	 call	 ?Execute@CQuery@@QAAHPBDZZ ; CQuery::Execute
  000f6	83 c4 14	 add	 esp, 20			; 00000014H
  000f9	5f		 pop	 edi

; 222  : }

  000fa	5e		 pop	 esi
  000fb	8b e5		 mov	 esp, ebp
  000fd	5d		 pop	 ebp
  000fe	c2 14 00	 ret	 20			; 00000014H
$LN9@ExcuteQuer:
; File C:\Program Files\Microsoft Visual Studio\2022\Professional\VC\Tools\MSVC\14.44.35207\include\vector

; 1914 :         auto& _My_data = _Mypair._Myval2;

  00101	8b 7d 0c	 mov	 edi, DWORD PTR _pGuildHouse$[ebp]

; 1915 :         return static_cast<size_type>(_My_data._Mylast - _My_data._Myfirst);

  00104	b8 39 8e e3 38	 mov	 eax, 954437177		; 38e38e39H
  00109	8b 4f 10	 mov	 ecx, DWORD PTR [edi+16]
  0010c	2b 4f 0c	 sub	 ecx, DWORD PTR [edi+12]
  0010f	f7 e9		 imul	 ecx
; File C:\IAGOS\server\v18\Source\Source\DatabaseServer\GuildHouseDBCtrl.cpp

; 206  : 			if( nIndex >= pGuildHouse->GetFurnitureListSize() )

  00111	8b 4d 18	 mov	 ecx, DWORD PTR _nIndex$[ebp]
; File C:\Program Files\Microsoft Visual Studio\2022\Professional\VC\Tools\MSVC\14.44.35207\include\vector

; 1915 :         return static_cast<size_type>(_My_data._Mylast - _My_data._Myfirst);

  00114	c1 fa 03	 sar	 edx, 3
  00117	8b c2		 mov	 eax, edx
  00119	c1 e8 1f	 shr	 eax, 31			; 0000001fH
  0011c	03 c2		 add	 eax, edx
; File C:\IAGOS\server\v18\Source\Source\DatabaseServer\GuildHouseDBCtrl.cpp

; 206  : 			if( nIndex >= pGuildHouse->GetFurnitureListSize() )

  0011e	3b c8		 cmp	 ecx, eax
  00120	0f 8d c1 00 00
	00		 jge	 $LN2@ExcuteQuer

; 207  : 				return FALSE;
; 208  : 			gfi.nSeqNum = pGuildHouse->GetFurnitureInfo( nIndex ).nSeqNum;

  00126	51		 push	 ecx
  00127	8d 45 dc	 lea	 eax, DWORD PTR $T2[ebp]
  0012a	8b cf		 mov	 ecx, edi
  0012c	50		 push	 eax
  0012d	e8 00 00 00 00	 call	 ?GetFurnitureInfo@CGuildHouseBase@@QAE?AUGuildHouse_Furniture_Info@1@H@Z ; CGuildHouseBase::GetFurnitureInfo
  00132	8b 48 20	 mov	 ecx, DWORD PTR [eax+32]
  00135	8b 45 14	 mov	 eax, DWORD PTR _gfi$[ebp]

; 209  : 			return GetQueryObject()->Execute(  "usp_GuildFurniture_Update '%02d', '%06d', %d, %d, %d, \

  00138	ff 70 1c	 push	 DWORD PTR [eax+28]
  0013b	f3 0f 10 40 14	 movss	 xmm0, DWORD PTR [eax+20]
  00140	0f 5a c0	 cvtps2pd xmm0, xmm0
  00143	83 ec 20	 sub	 esp, 32			; 00000020H
  00146	89 48 20	 mov	 DWORD PTR [eax+32], ecx
  00149	f2 0f 11 44 24
	18		 movsd	 QWORD PTR [esp+24], xmm0
  0014f	f3 0f 10 40 10	 movss	 xmm0, DWORD PTR [eax+16]
  00154	0f 5a c0	 cvtps2pd xmm0, xmm0
  00157	f2 0f 11 44 24
	10		 movsd	 QWORD PTR [esp+16], xmm0
  0015d	f3 0f 10 40 0c	 movss	 xmm0, DWORD PTR [eax+12]
  00162	0f 5a c0	 cvtps2pd xmm0, xmm0
  00165	f2 0f 11 44 24
	08		 movsd	 QWORD PTR [esp+8], xmm0
  0016b	f3 0f 10 40 08	 movss	 xmm0, DWORD PTR [eax+8]
  00170	0f 5a c0	 cvtps2pd xmm0, xmm0
  00173	f2 0f 11 04 24	 movsd	 QWORD PTR [esp], xmm0
  00178	ff 70 04	 push	 DWORD PTR [eax+4]
  0017b	ff 30		 push	 DWORD PTR [eax]
  0017d	51		 push	 ecx
  0017e	ff 75 08	 push	 DWORD PTR _dwGuildId$[ebp]
  00181	ff 35 00 00 00
	00		 push	 DWORD PTR ?g_appInfo@@3UAppInfo@@A
  00187	68 00 00 00 00	 push	 OFFSET ??_C@_0FF@JIHLHELC@usp_GuildFurniture_Update?5?8?$CF02d@
  0018c	ff 76 0c	 push	 DWORD PTR [esi+12]
  0018f	e8 00 00 00 00	 call	 ?Execute@CQuery@@QAAHPBDZZ ; CQuery::Execute
  00194	83 c4 40	 add	 esp, 64			; 00000040H
  00197	5f		 pop	 edi

; 222  : }

  00198	5e		 pop	 esi
  00199	8b e5		 mov	 esp, ebp
  0019b	5d		 pop	 ebp
  0019c	c2 14 00	 ret	 20			; 00000014H
$LN13@ExcuteQuer:

; 210  : 												%f, %f, %f, %f, %d", 
; 211  : 												g_appInfo.dwSys, dwGuildId, gfi.nSeqNum, gfi.dwItemId, static_cast<int>( gfi.bSetup ), 
; 212  : 												gfi.vPos.x, gfi.vPos.y, gfi.vPos.z, gfi.fAngle, gfi.tKeepTime );	
; 213  : 
; 214  : 		case GUILDHOUSE_PCKTTYPE_UPKEEP:
; 215  : 			return GetQueryObject()->Execute( "usp_GuildHouse_Update '%02d', '%06d', %d", g_appInfo.dwSys, dwGuildId, gfi.tKeepTime );

  0019f	8b 45 14	 mov	 eax, DWORD PTR _gfi$[ebp]
  001a2	ff 70 1c	 push	 DWORD PTR [eax+28]
  001a5	ff 75 08	 push	 DWORD PTR _dwGuildId$[ebp]
  001a8	ff 35 00 00 00
	00		 push	 DWORD PTR ?g_appInfo@@3UAppInfo@@A
  001ae	68 00 00 00 00	 push	 OFFSET ??_C@_0CJ@FHNADKGP@usp_GuildHouse_Update?5?8?$CF02d?8?0?5?8@
  001b3	ff 76 0c	 push	 DWORD PTR [esi+12]
  001b6	e8 00 00 00 00	 call	 ?Execute@CQuery@@QAAHPBDZZ ; CQuery::Execute
  001bb	83 c4 14	 add	 esp, 20			; 00000014H
  001be	5f		 pop	 edi

; 222  : }

  001bf	5e		 pop	 esi
  001c0	8b e5		 mov	 esp, ebp
  001c2	5d		 pop	 ebp
  001c3	c2 14 00	 ret	 20			; 00000014H
$LN14@ExcuteQuer:

; 216  : 
; 217  : 		case GUILDHOUSE_PCKTTYPE_EXPIRED:
; 218  : 			return GetQueryObject()->Execute( "usp_GuildHouse_Expired '%02d', '%06d'", g_appInfo.dwSys, dwGuildId );

  001c6	ff 75 08	 push	 DWORD PTR _dwGuildId$[ebp]
  001c9	ff 35 00 00 00
	00		 push	 DWORD PTR ?g_appInfo@@3UAppInfo@@A
  001cf	68 00 00 00 00	 push	 OFFSET ??_C@_0CG@CHDLMMMM@usp_GuildHouse_Expired?5?8?$CF02d?8?0?5@
  001d4	ff 76 0c	 push	 DWORD PTR [esi+12]
  001d7	e8 00 00 00 00	 call	 ?Execute@CQuery@@QAAHPBDZZ ; CQuery::Execute
  001dc	83 c4 10	 add	 esp, 16			; 00000010H
  001df	5f		 pop	 edi

; 222  : }

  001e0	5e		 pop	 esi
  001e1	8b e5		 mov	 esp, ebp
  001e3	5d		 pop	 ebp
  001e4	c2 14 00	 ret	 20			; 00000014H
$LN2@ExcuteQuer:
  001e7	5f		 pop	 edi

; 219  : 	}
; 220  : 
; 221  : 	return FALSE;

  001e8	33 c0		 xor	 eax, eax

; 222  : }

  001ea	5e		 pop	 esi
  001eb	8b e5		 mov	 esp, ebp
  001ed	5d		 pop	 ebp
  001ee	c2 14 00	 ret	 20			; 00000014H
  001f1	0f 1f 00	 npad	 3
$LN32@ExcuteQuer:
  001f4	00 00 00 00	 DD	 $LN4@ExcuteQuer
  001f8	00 00 00 00	 DD	 $LN6@ExcuteQuer
  001fc	00 00 00 00	 DD	 $LN9@ExcuteQuer
  00200	00 00 00 00	 DD	 $LN9@ExcuteQuer
  00204	00 00 00 00	 DD	 $LN9@ExcuteQuer
  00208	00 00 00 00	 DD	 $LN2@ExcuteQuer
  0020c	00 00 00 00	 DD	 $LN13@ExcuteQuer
  00210	00 00 00 00	 DD	 $LN14@ExcuteQuer
?ExcuteQuery@CGuildHouseDBCtrl@@AAEHKPAVCGuildHouseBase@@HAAUGuildHouse_Furniture_Info@2@H@Z ENDP ; CGuildHouseDBCtrl::ExcuteQuery
_TEXT	ENDS
; Function compile flags: /Ogtp
; File C:\IAGOS\server\v18\Source\Source\DatabaseServer\GuildHouseDBCtrl.cpp
; File C:\IAGOS\server\v18\Source\Source\DX_SDK\d3dx9math.inl
; File C:\IAGOS\server\v18\Source\Source\DatabaseServer\GuildHouseDBCtrl.cpp
; File C:\IAGOS\server\v18\Source\Source\_Network\Net\Include\DPMng.h
; File C:\IAGOS\server\v18\Source\Source\DatabaseServer\GuildHouseDBCtrl.cpp
;	COMDAT ?RunDefaultPacket@CGuildHouseDBCtrl@@AAEXAAVCAr@@K@Z
_TEXT	SEGMENT
$T2 = -16500						; size = 12
_nBufSize$3 = -16488					; size = 4
$T4 = -16484						; size = 4
_nPacketType$ = -16480					; size = 4
_nIndex$ = -16476					; size = 4
_bResult$5 = -16472					; size = 4
$T6 = -16468						; size = 4
_pGuildHouse$1$ = -16468				; size = 4
$T7 = -16464						; size = 4
_this$GSCopy$1$ = -16464				; size = 4
_dwGuildId$ = -16460					; size = 4
_arOut$8 = -16456					; size = 16404
_gfi$ = -52						; size = 36
__$ArrayPad$ = -16					; size = 4
__$EHRec$ = -12						; size = 12
_ar$ = 8						; size = 4
_dpId$ = 12						; size = 4
?RunDefaultPacket@CGuildHouseDBCtrl@@AAEXAAVCAr@@K@Z PROC ; CGuildHouseDBCtrl::RunDefaultPacket, COMDAT
; _this$ = ecx

; 157  : {

  00000	55		 push	 ebp
  00001	8b ec		 mov	 ebp, esp
  00003	6a ff		 push	 -1
  00005	68 00 00 00 00	 push	 __ehhandler$?RunDefaultPacket@CGuildHouseDBCtrl@@AAEXAAVCAr@@K@Z
  0000a	64 a1 00 00 00
	00		 mov	 eax, DWORD PTR fs:0
  00010	50		 push	 eax
  00011	b8 68 40 00 00	 mov	 eax, 16488		; 00004068H
  00016	e8 00 00 00 00	 call	 __chkstk
  0001b	a1 00 00 00 00	 mov	 eax, DWORD PTR ___security_cookie
  00020	33 c5		 xor	 eax, ebp
  00022	89 45 f0	 mov	 DWORD PTR __$ArrayPad$[ebp], eax
  00025	53		 push	 ebx
  00026	56		 push	 esi
  00027	57		 push	 edi
  00028	50		 push	 eax
  00029	8d 45 f4	 lea	 eax, DWORD PTR __$EHRec$[ebp]
  0002c	64 a3 00 00 00
	00		 mov	 DWORD PTR fs:0, eax
  00032	89 8d b0 bf ff
	ff		 mov	 DWORD PTR _this$GSCopy$1$[ebp], ecx
  00038	8b 75 08	 mov	 esi, DWORD PTR _ar$[ebp]
  0003b	0f 57 c0	 xorps	 xmm0, xmm0

; 160  : 	GH_Fntr_Info gfi;

  0003e	6a 00		 push	 0
  00040	83 ec 10	 sub	 esp, 16			; 00000010H
  00043	0f 14 c0	 unpcklps xmm0, xmm0
  00046	8b cc		 mov	 ecx, esp
; File C:\IAGOS\server\v18\Source\Source\DX_SDK\d3dx9math.inl

; 302  :     z = fz;

  00048	c7 85 94 bf ff
	ff 00 00 00 00	 mov	 DWORD PTR $T2[ebp+8], 0
; File C:\IAGOS\server\v18\Source\Source\DatabaseServer\GuildHouseDBCtrl.cpp

; 160  : 	GH_Fntr_Info gfi;

  00052	8b 85 94 bf ff
	ff		 mov	 eax, DWORD PTR $T2[ebp+8]
  00058	c7 44 24 0c 00
	00 00 00	 mov	 DWORD PTR [esp+12], 0
  00060	66 0f d6 01	 movq	 QWORD PTR [ecx], xmm0
  00064	6a 00		 push	 0
  00066	89 41 08	 mov	 DWORD PTR [ecx+8], eax
  00069	8d 4d cc	 lea	 ecx, DWORD PTR _gfi$[ebp]
  0006c	6a ff		 push	 -1
  0006e	e8 00 00 00 00	 call	 ??0GuildHouse_Furniture_Info@CGuildHouseBase@@QAE@KHUD3DXVECTOR3@@MJ@Z ; CGuildHouseBase::GuildHouse_Furniture_Info::GuildHouse_Furniture_Info

; 161  : 
; 162  : 	ar >> dwGuildId >> nPacketType >> nIndex;

  00073	8d 85 a4 bf ff
	ff		 lea	 eax, DWORD PTR _nIndex$[ebp]
  00079	8b ce		 mov	 ecx, esi
  0007b	50		 push	 eax
  0007c	8d 85 a0 bf ff
	ff		 lea	 eax, DWORD PTR _nPacketType$[ebp]
  00082	50		 push	 eax
  00083	8d 85 b4 bf ff
	ff		 lea	 eax, DWORD PTR _dwGuildId$[ebp]
  00089	50		 push	 eax
  0008a	e8 00 00 00 00	 call	 ??$?5K@CAr@@QAEAAV0@AAK@Z ; CAr::operator>><unsigned long>
  0008f	8b c8		 mov	 ecx, eax
  00091	e8 00 00 00 00	 call	 ??$?5H@CAr@@QAEAAV0@AAH@Z ; CAr::operator>><int>
  00096	8b c8		 mov	 ecx, eax
  00098	e8 00 00 00 00	 call	 ??$?5H@CAr@@QAEAAV0@AAH@Z ; CAr::operator>><int>

; 163  : 	gfi.Serialize( ar );

  0009d	56		 push	 esi
  0009e	8d 4d cc	 lea	 ecx, DWORD PTR _gfi$[ebp]
  000a1	e8 00 00 00 00	 call	 ?Serialize@GuildHouse_Furniture_Info@CGuildHouseBase@@QAEXAAVCAr@@@Z ; CGuildHouseBase::GuildHouse_Furniture_Info::Serialize

; 164  : 
; 165  : 	CGuildHouseBase* pGuildHouse = GuildHouseMng->GetGuildHouse( dwGuildId );

  000a6	ff b5 b4 bf ff
	ff		 push	 DWORD PTR _dwGuildId$[ebp]
  000ac	e8 00 00 00 00	 call	 ?GetInstance@CGuildHouseMng@@SAPAV1@XZ ; CGuildHouseMng::GetInstance
  000b1	8b c8		 mov	 ecx, eax
  000b3	e8 00 00 00 00	 call	 ?GetGuildHouse@CGuildHouseMng@@QAEPAVCGuildHouseBase@@K@Z ; CGuildHouseMng::GetGuildHouse
  000b8	89 85 ac bf ff
	ff		 mov	 DWORD PTR _pGuildHouse$1$[ebp], eax

; 166  : 	if( pGuildHouse )

  000be	85 c0		 test	 eax, eax
  000c0	0f 84 3f 01 00
	00		 je	 $LN2@RunDefault

; 167  : 	{
; 168  : 		BOOL bResult = FALSE;
; 169  : 		if( ExcuteQuery( dwGuildId, pGuildHouse, nPacketType, gfi, nIndex ) )

  000c6	8b bd a4 bf ff
	ff		 mov	 edi, DWORD PTR _nIndex$[ebp]
  000cc	8d 4d cc	 lea	 ecx, DWORD PTR _gfi$[ebp]
  000cf	8b 9d a0 bf ff
	ff		 mov	 ebx, DWORD PTR _nPacketType$[ebp]
  000d5	33 f6		 xor	 esi, esi
  000d7	57		 push	 edi
  000d8	51		 push	 ecx
  000d9	8b 8d b0 bf ff
	ff		 mov	 ecx, DWORD PTR _this$GSCopy$1$[ebp]
  000df	53		 push	 ebx
  000e0	50		 push	 eax
  000e1	ff b5 b4 bf ff
	ff		 push	 DWORD PTR _dwGuildId$[ebp]
  000e7	c7 85 a8 bf ff
	ff 00 00 00 00	 mov	 DWORD PTR _bResult$5[ebp], 0
  000f1	e8 00 00 00 00	 call	 ?ExcuteQuery@CGuildHouseDBCtrl@@AAEHKPAVCGuildHouseBase@@HAAUGuildHouse_Furniture_Info@2@H@Z ; CGuildHouseDBCtrl::ExcuteQuery
  000f6	85 c0		 test	 eax, eax
  000f8	74 19		 je	 SHORT $LN3@RunDefault

; 170  : 			 bResult = pGuildHouse->OnGuildHousePacket( nPacketType, gfi, nIndex );

  000fa	8b 8d ac bf ff
	ff		 mov	 ecx, DWORD PTR _pGuildHouse$1$[ebp]
  00100	8d 45 cc	 lea	 eax, DWORD PTR _gfi$[ebp]
  00103	57		 push	 edi
  00104	50		 push	 eax
  00105	53		 push	 ebx
  00106	e8 00 00 00 00	 call	 ?OnGuildHousePacket@CGuildHouseBase@@QAEHHAAUGuildHouse_Furniture_Info@1@H@Z ; CGuildHouseBase::OnGuildHousePacket
  0010b	8b f0		 mov	 esi, eax
  0010d	89 b5 a8 bf ff
	ff		 mov	 DWORD PTR _bResult$5[ebp], esi
$LN3@RunDefault:

; 171  : 
; 172  : 		if( bResult ) dpId = DPID_ALLPLAYERS;
; 173  : 		BEFORESENDDUAL( arOut, PACKETTYPE_GUILDHOUSE_PACKET, DPID_UNKNOWN, DPID_UNKNOWN );

  00113	33 ff		 xor	 edi, edi
  00115	8d 8d b8 bf ff
	ff		 lea	 ecx, DWORD PTR _arOut$8[ebp]
  0011b	6a 00		 push	 0
  0011d	85 f6		 test	 esi, esi
  0011f	6a 00		 push	 0
  00121	0f 44 7d 0c	 cmove	 edi, DWORD PTR _dpId$[ebp]
  00125	e8 00 00 00 00	 call	 ??0CAr@@QAE@PAXI@Z	; CAr::CAr
  0012a	8d 85 ac bf ff
	ff		 lea	 eax, DWORD PTR $T6[ebp]
  00130	c7 45 fc 00 00
	00 00		 mov	 DWORD PTR __$EHRec$[ebp+8], 0
  00137	50		 push	 eax
  00138	8d 85 b0 bf ff
	ff		 lea	 eax, DWORD PTR $T7[ebp]
  0013e	c7 85 ac bf ff
	ff 03 00 10 88	 mov	 DWORD PTR $T6[ebp], -2012217341 ; 88100003H
  00148	50		 push	 eax
  00149	8d 85 9c bf ff
	ff		 lea	 eax, DWORD PTR $T4[ebp]
  0014f	c7 85 b0 bf ff
	ff ff ff ff ff	 mov	 DWORD PTR $T7[ebp], -1
  00159	50		 push	 eax
  0015a	8d 8d b8 bf ff
	ff		 lea	 ecx, DWORD PTR _arOut$8[ebp]
  00160	c7 85 9c bf ff
	ff ff ff ff ff	 mov	 DWORD PTR $T4[ebp], -1
  0016a	e8 00 00 00 00	 call	 ??$?6I@CAr@@QAEAAV0@ABI@Z ; CAr::operator<<<unsigned int>
  0016f	8b c8		 mov	 ecx, eax
  00171	e8 00 00 00 00	 call	 ??$?6I@CAr@@QAEAAV0@ABI@Z ; CAr::operator<<<unsigned int>
  00176	8b c8		 mov	 ecx, eax
  00178	e8 00 00 00 00	 call	 ??$?6K@CAr@@QAEAAV0@ABK@Z ; CAr::operator<<<unsigned long>

; 174  : 		arOut << bResult << dwGuildId;

  0017d	8d 85 b4 bf ff
	ff		 lea	 eax, DWORD PTR _dwGuildId$[ebp]
  00183	50		 push	 eax
  00184	8d 85 a8 bf ff
	ff		 lea	 eax, DWORD PTR _bResult$5[ebp]
  0018a	50		 push	 eax
  0018b	8d 8d b8 bf ff
	ff		 lea	 ecx, DWORD PTR _arOut$8[ebp]
  00191	e8 00 00 00 00	 call	 ??$?6H@CAr@@QAEAAV0@ABH@Z ; CAr::operator<<<int>
  00196	8b c8		 mov	 ecx, eax
  00198	e8 00 00 00 00	 call	 ??$?6K@CAr@@QAEAAV0@ABK@Z ; CAr::operator<<<unsigned long>

; 175  : 		arOut << nPacketType << nIndex;

  0019d	8d 85 a4 bf ff
	ff		 lea	 eax, DWORD PTR _nIndex$[ebp]
  001a3	50		 push	 eax
  001a4	8d 85 a0 bf ff
	ff		 lea	 eax, DWORD PTR _nPacketType$[ebp]
  001aa	50		 push	 eax
  001ab	8d 8d b8 bf ff
	ff		 lea	 ecx, DWORD PTR _arOut$8[ebp]
  001b1	e8 00 00 00 00	 call	 ??$?6H@CAr@@QAEAAV0@ABH@Z ; CAr::operator<<<int>
  001b6	8b c8		 mov	 ecx, eax
  001b8	e8 00 00 00 00	 call	 ??$?6H@CAr@@QAEAAV0@ABH@Z ; CAr::operator<<<int>

; 176  : 		gfi.Serialize( arOut );

  001bd	8d 85 b8 bf ff
	ff		 lea	 eax, DWORD PTR _arOut$8[ebp]
  001c3	50		 push	 eax
  001c4	8d 4d cc	 lea	 ecx, DWORD PTR _gfi$[ebp]
  001c7	e8 00 00 00 00	 call	 ?Serialize@GuildHouse_Furniture_Info@CGuildHouseBase@@QAEXAAVCAr@@@Z ; CGuildHouseBase::GuildHouse_Furniture_Info::Serialize

; 177  : 		SEND( arOut, CDPTrans::GetInstance(), dpId );

  001cc	8d 85 98 bf ff
	ff		 lea	 eax, DWORD PTR _nBufSize$3[ebp]
  001d2	50		 push	 eax
  001d3	8d 8d b8 bf ff
	ff		 lea	 ecx, DWORD PTR _arOut$8[ebp]
  001d9	e8 00 00 00 00	 call	 ?GetBuffer@CAr@@QAEPAEPAH@Z ; CAr::GetBuffer
  001de	8b 9d 98 bf ff
	ff		 mov	 ebx, DWORD PTR _nBufSize$3[ebp]
  001e4	8b f0		 mov	 esi, eax
  001e6	e8 00 00 00 00	 call	 ?GetInstance@CDPTrans@@SAPAV1@XZ ; CDPTrans::GetInstance
; File C:\IAGOS\server\v18\Source\Source\_Network\Net\Include\DPMng.h

; 171  : 	if( !m_pDPSock )

  001eb	8b 48 04	 mov	 ecx, DWORD PTR [eax+4]
  001ee	85 c9		 test	 ecx, ecx
  001f0	74 08		 je	 SHORT $LN9@RunDefault

; 172  : 		return FALSE;
; 173  : 	return m_pDPSock->Send( (char*)lpData, dwDataSize, dpidTo );

  001f2	57		 push	 edi
  001f3	53		 push	 ebx
  001f4	56		 push	 esi
  001f5	e8 00 00 00 00	 call	 ?Send@CDPSock@@QAEHPADKK@Z ; CDPSock::Send
$LN9@RunDefault:
; File C:\IAGOS\server\v18\Source\Source\DatabaseServer\GuildHouseDBCtrl.cpp

; 178  : 	}

  001fa	8d 8d b8 bf ff
	ff		 lea	 ecx, DWORD PTR _arOut$8[ebp]
  00200	e8 00 00 00 00	 call	 ??1CAr@@QAE@XZ		; CAr::~CAr
$LN2@RunDefault:

; 179  : }

  00205	8b 4d f4	 mov	 ecx, DWORD PTR __$EHRec$[ebp]
  00208	64 89 0d 00 00
	00 00		 mov	 DWORD PTR fs:0, ecx
  0020f	59		 pop	 ecx
  00210	5f		 pop	 edi
  00211	5e		 pop	 esi
  00212	5b		 pop	 ebx
  00213	8b 4d f0	 mov	 ecx, DWORD PTR __$ArrayPad$[ebp]
  00216	33 cd		 xor	 ecx, ebp
  00218	e8 00 00 00 00	 call	 @__security_check_cookie@4
  0021d	8b e5		 mov	 esp, ebp
  0021f	5d		 pop	 ebp
  00220	c2 08 00	 ret	 8
_TEXT	ENDS
;	COMDAT text$x
text$x	SEGMENT
__unwindfunclet$?RunDefaultPacket@CGuildHouseDBCtrl@@AAEXAAVCAr@@K@Z$0:
  00000	8d 8d b8 bf ff
	ff		 lea	 ecx, DWORD PTR _arOut$8[ebp]
  00006	e9 00 00 00 00	 jmp	 ??1CAr@@QAE@XZ		; CAr::~CAr
  0000b	cc		 int	 3
  0000c	cc		 int	 3
  0000d	cc		 int	 3
  0000e	cc		 int	 3
  0000f	cc		 int	 3
__ehhandler$?RunDefaultPacket@CGuildHouseDBCtrl@@AAEXAAVCAr@@K@Z:
  00010	90		 npad	 1
  00011	90		 npad	 1
  00012	8b 54 24 08	 mov	 edx, DWORD PTR [esp+8]
  00016	8d 42 0c	 lea	 eax, DWORD PTR [edx+12]
  00019	8b 8a 88 bf ff
	ff		 mov	 ecx, DWORD PTR [edx-16504]
  0001f	33 c8		 xor	 ecx, eax
  00021	e8 00 00 00 00	 call	 @__security_check_cookie@4
  00026	8b 4a fc	 mov	 ecx, DWORD PTR [edx-4]
  00029	33 c8		 xor	 ecx, eax
  0002b	e8 00 00 00 00	 call	 @__security_check_cookie@4
  00030	b8 00 00 00 00	 mov	 eax, OFFSET __ehfuncinfo$?RunDefaultPacket@CGuildHouseDBCtrl@@AAEXAAVCAr@@K@Z
  00035	e9 00 00 00 00	 jmp	 ___CxxFrameHandler3
text$x	ENDS
?RunDefaultPacket@CGuildHouseDBCtrl@@AAEXAAVCAr@@K@Z ENDP ; CGuildHouseDBCtrl::RunDefaultPacket
; Function compile flags: /Ogtp
; File C:\IAGOS\server\v18\Source\Source\DatabaseServer\GuildHouseDBCtrl.cpp
; File C:\IAGOS\server\v18\Source\Source\_Network\Net\Include\DPMng.h
; File C:\IAGOS\server\v18\Source\Source\DatabaseServer\GuildHouseDBCtrl.cpp
;	COMDAT ?RemoveGuildHouse@CGuildHouseDBCtrl@@AAEXK@Z
_TEXT	SEGMENT
_nBufSize$ = -16436					; size = 4
$T2 = -16432						; size = 4
$T3 = -16428						; size = 4
$T4 = -16424						; size = 4
_arOut$ = -16420					; size = 16404
__$ArrayPad$ = -16					; size = 4
__$EHRec$ = -12						; size = 12
_dwGuildId$ = 8						; size = 4
?RemoveGuildHouse@CGuildHouseDBCtrl@@AAEXK@Z PROC	; CGuildHouseDBCtrl::RemoveGuildHouse, COMDAT
; _this$ = ecx

; 146  : {

  00000	55		 push	 ebp
  00001	8b ec		 mov	 ebp, esp
  00003	6a ff		 push	 -1
  00005	68 00 00 00 00	 push	 __ehhandler$?RemoveGuildHouse@CGuildHouseDBCtrl@@AAEXK@Z
  0000a	64 a1 00 00 00
	00		 mov	 eax, DWORD PTR fs:0
  00010	50		 push	 eax
  00011	b8 28 40 00 00	 mov	 eax, 16424		; 00004028H
  00016	e8 00 00 00 00	 call	 __chkstk
  0001b	a1 00 00 00 00	 mov	 eax, DWORD PTR ___security_cookie
  00020	33 c5		 xor	 eax, ebp
  00022	89 45 f0	 mov	 DWORD PTR __$ArrayPad$[ebp], eax
  00025	56		 push	 esi
  00026	57		 push	 edi
  00027	50		 push	 eax
  00028	8d 45 f4	 lea	 eax, DWORD PTR __$EHRec$[ebp]
  0002b	64 a3 00 00 00
	00		 mov	 DWORD PTR fs:0, eax

; 147  : 	if( GetQueryObject()->Execute( "usp_GuildHouse_Delete '%02d', '%06d'", g_appInfo.dwSys, dwGuildId ) )

  00031	8b 75 08	 mov	 esi, DWORD PTR _dwGuildId$[ebp]
  00034	56		 push	 esi
  00035	ff 35 00 00 00
	00		 push	 DWORD PTR ?g_appInfo@@3UAppInfo@@A
  0003b	68 00 00 00 00	 push	 OFFSET ??_C@_0CF@PBPIPFDA@usp_GuildHouse_Delete?5?8?$CF02d?8?0?5?8@
  00040	ff 71 0c	 push	 DWORD PTR [ecx+12]
  00043	e8 00 00 00 00	 call	 ?Execute@CQuery@@QAAHPBDZZ ; CQuery::Execute
  00048	83 c4 10	 add	 esp, 16			; 00000010H
  0004b	85 c0		 test	 eax, eax
  0004d	74 0d		 je	 SHORT $LN2@RemoveGuil

; 148  : 		GuildHouseMng->RemoveGuildHouse( dwGuildId );

  0004f	56		 push	 esi
  00050	e8 00 00 00 00	 call	 ?GetInstance@CGuildHouseMng@@SAPAV1@XZ ; CGuildHouseMng::GetInstance
  00055	8b c8		 mov	 ecx, eax
  00057	e8 00 00 00 00	 call	 ?RemoveGuildHouse@CGuildHouseMng@@QAEHK@Z ; CGuildHouseMng::RemoveGuildHouse
$LN2@RemoveGuil:

; 149  : 	
; 150  : 	BEFORESENDDUAL( arOut, PACKETTYPE_GUILDHOUSE_REMOVE, DPID_UNKNOWN, DPID_UNKNOWN );

  0005c	6a 00		 push	 0
  0005e	6a 00		 push	 0
  00060	8d 8d dc bf ff
	ff		 lea	 ecx, DWORD PTR _arOut$[ebp]
  00066	e8 00 00 00 00	 call	 ??0CAr@@QAE@PAXI@Z	; CAr::CAr
  0006b	8d 85 d8 bf ff
	ff		 lea	 eax, DWORD PTR $T4[ebp]
  00071	c7 45 fc 00 00
	00 00		 mov	 DWORD PTR __$EHRec$[ebp+8], 0
  00078	50		 push	 eax
  00079	8d 85 d4 bf ff
	ff		 lea	 eax, DWORD PTR $T3[ebp]
  0007f	c7 85 d8 bf ff
	ff 02 00 10 88	 mov	 DWORD PTR $T4[ebp], -2012217342 ; 88100002H
  00089	50		 push	 eax
  0008a	8d 85 d0 bf ff
	ff		 lea	 eax, DWORD PTR $T2[ebp]
  00090	c7 85 d4 bf ff
	ff ff ff ff ff	 mov	 DWORD PTR $T3[ebp], -1
  0009a	50		 push	 eax
  0009b	8d 8d dc bf ff
	ff		 lea	 ecx, DWORD PTR _arOut$[ebp]
  000a1	c7 85 d0 bf ff
	ff ff ff ff ff	 mov	 DWORD PTR $T2[ebp], -1
  000ab	e8 00 00 00 00	 call	 ??$?6I@CAr@@QAEAAV0@ABI@Z ; CAr::operator<<<unsigned int>
  000b0	8b c8		 mov	 ecx, eax
  000b2	e8 00 00 00 00	 call	 ??$?6I@CAr@@QAEAAV0@ABI@Z ; CAr::operator<<<unsigned int>
  000b7	8b c8		 mov	 ecx, eax
  000b9	e8 00 00 00 00	 call	 ??$?6K@CAr@@QAEAAV0@ABK@Z ; CAr::operator<<<unsigned long>

; 151  : 	arOut << dwGuildId;

  000be	8d 45 08	 lea	 eax, DWORD PTR _dwGuildId$[ebp]
  000c1	50		 push	 eax
  000c2	8d 8d dc bf ff
	ff		 lea	 ecx, DWORD PTR _arOut$[ebp]
  000c8	e8 00 00 00 00	 call	 ??$?6K@CAr@@QAEAAV0@ABK@Z ; CAr::operator<<<unsigned long>

; 152  : 	SEND( arOut, CDPTrans::GetInstance(), DPID_ALLPLAYERS );

  000cd	8d 85 cc bf ff
	ff		 lea	 eax, DWORD PTR _nBufSize$[ebp]
  000d3	50		 push	 eax
  000d4	8d 8d dc bf ff
	ff		 lea	 ecx, DWORD PTR _arOut$[ebp]
  000da	e8 00 00 00 00	 call	 ?GetBuffer@CAr@@QAEPAEPAH@Z ; CAr::GetBuffer
  000df	8b bd cc bf ff
	ff		 mov	 edi, DWORD PTR _nBufSize$[ebp]
  000e5	8b f0		 mov	 esi, eax
  000e7	e8 00 00 00 00	 call	 ?GetInstance@CDPTrans@@SAPAV1@XZ ; CDPTrans::GetInstance
; File C:\IAGOS\server\v18\Source\Source\_Network\Net\Include\DPMng.h

; 171  : 	if( !m_pDPSock )

  000ec	8b 48 04	 mov	 ecx, DWORD PTR [eax+4]
  000ef	85 c9		 test	 ecx, ecx
  000f1	74 09		 je	 SHORT $LN5@RemoveGuil

; 172  : 		return FALSE;
; 173  : 	return m_pDPSock->Send( (char*)lpData, dwDataSize, dpidTo );

  000f3	6a 00		 push	 0
  000f5	57		 push	 edi
  000f6	56		 push	 esi
  000f7	e8 00 00 00 00	 call	 ?Send@CDPSock@@QAEHPADKK@Z ; CDPSock::Send
$LN5@RemoveGuil:
; File C:\IAGOS\server\v18\Source\Source\DatabaseServer\GuildHouseDBCtrl.cpp

; 154  : }

  000fc	8d 8d dc bf ff
	ff		 lea	 ecx, DWORD PTR _arOut$[ebp]
  00102	e8 00 00 00 00	 call	 ??1CAr@@QAE@XZ		; CAr::~CAr
  00107	8b 4d f4	 mov	 ecx, DWORD PTR __$EHRec$[ebp]
  0010a	64 89 0d 00 00
	00 00		 mov	 DWORD PTR fs:0, ecx
  00111	59		 pop	 ecx
  00112	5f		 pop	 edi
  00113	5e		 pop	 esi
  00114	8b 4d f0	 mov	 ecx, DWORD PTR __$ArrayPad$[ebp]
  00117	33 cd		 xor	 ecx, ebp
  00119	e8 00 00 00 00	 call	 @__security_check_cookie@4
  0011e	8b e5		 mov	 esp, ebp
  00120	5d		 pop	 ebp
  00121	c2 04 00	 ret	 4
_TEXT	ENDS
;	COMDAT text$x
text$x	SEGMENT
__unwindfunclet$?RemoveGuildHouse@CGuildHouseDBCtrl@@AAEXK@Z$0:
  00000	8d 8d dc bf ff
	ff		 lea	 ecx, DWORD PTR _arOut$[ebp]
  00006	e9 00 00 00 00	 jmp	 ??1CAr@@QAE@XZ		; CAr::~CAr
  0000b	cc		 int	 3
  0000c	cc		 int	 3
  0000d	cc		 int	 3
  0000e	cc		 int	 3
  0000f	cc		 int	 3
__ehhandler$?RemoveGuildHouse@CGuildHouseDBCtrl@@AAEXK@Z:
  00010	90		 npad	 1
  00011	90		 npad	 1
  00012	8b 54 24 08	 mov	 edx, DWORD PTR [esp+8]
  00016	8d 42 0c	 lea	 eax, DWORD PTR [edx+12]
  00019	8b 8a cc bf ff
	ff		 mov	 ecx, DWORD PTR [edx-16436]
  0001f	33 c8		 xor	 ecx, eax
  00021	e8 00 00 00 00	 call	 @__security_check_cookie@4
  00026	8b 4a fc	 mov	 ecx, DWORD PTR [edx-4]
  00029	33 c8		 xor	 ecx, eax
  0002b	e8 00 00 00 00	 call	 @__security_check_cookie@4
  00030	b8 00 00 00 00	 mov	 eax, OFFSET __ehfuncinfo$?RemoveGuildHouse@CGuildHouseDBCtrl@@AAEXK@Z
  00035	e9 00 00 00 00	 jmp	 ___CxxFrameHandler3
text$x	ENDS
?RemoveGuildHouse@CGuildHouseDBCtrl@@AAEXK@Z ENDP	; CGuildHouseDBCtrl::RemoveGuildHouse
; Function compile flags: /Ogtp
; File C:\IAGOS\server\v18\Source\Source\DatabaseServer\GuildHouseDBCtrl.cpp
; File C:\Program Files (x86)\Windows Kits\10\Include\10.0.26100.0\ucrt\time.h
; File C:\IAGOS\server\v18\Source\Source\DatabaseServer\GuildHouseDBCtrl.cpp
; File C:\Program Files\Microsoft Visual Studio\2022\Professional\VC\Tools\MSVC\14.44.35207\include\xtree
; File C:\IAGOS\server\v18\Source\Source\_Common\GuildHouse.h
; File C:\Program Files\Microsoft Visual Studio\2022\Professional\VC\Tools\MSVC\14.44.35207\include\xtree
; File C:\Program Files\Microsoft Visual Studio\2022\Professional\VC\Tools\MSVC\14.44.35207\include\type_traits
; File C:\Program Files\Microsoft Visual Studio\2022\Professional\VC\Tools\MSVC\14.44.35207\include\xtree
; File C:\Program Files\Microsoft Visual Studio\2022\Professional\VC\Tools\MSVC\14.44.35207\include\type_traits
; File C:\Program Files\Microsoft Visual Studio\2022\Professional\VC\Tools\MSVC\14.44.35207\include\xtree
; File C:\Program Files\Microsoft Visual Studio\2022\Professional\VC\Tools\MSVC\14.44.35207\include\type_traits
; File C:\Program Files\Microsoft Visual Studio\2022\Professional\VC\Tools\MSVC\14.44.35207\include\xtree
; File C:\Program Files\Microsoft Visual Studio\2022\Professional\VC\Tools\MSVC\14.44.35207\include\utility
; File C:\Program Files\Microsoft Visual Studio\2022\Professional\VC\Tools\MSVC\14.44.35207\include\xtree
; File C:\Program Files\Microsoft Visual Studio\2022\Professional\VC\Tools\MSVC\14.44.35207\include\xmemory
; File C:\Program Files\Microsoft Visual Studio\2022\Professional\VC\Tools\MSVC\14.44.35207\include\xtree
; File C:\Program Files\Microsoft Visual Studio\2022\Professional\VC\Tools\MSVC\14.44.35207\include\xmemory
; File C:\Program Files\Microsoft Visual Studio\2022\Professional\VC\Tools\MSVC\14.44.35207\include\xtree
; File C:\Program Files\Microsoft Visual Studio\2022\Professional\VC\Tools\MSVC\14.44.35207\include\xmemory
; File C:\Program Files\Microsoft Visual Studio\2022\Professional\VC\Tools\MSVC\14.44.35207\include\utility
; File C:\Program Files\Microsoft Visual Studio\2022\Professional\VC\Tools\MSVC\14.44.35207\include\xtree
; File C:\Program Files\Microsoft Visual Studio\2022\Professional\VC\Tools\MSVC\14.44.35207\include\utility
; File C:\Program Files\Microsoft Visual Studio\2022\Professional\VC\Tools\MSVC\14.44.35207\include\xtree
; File C:\Program Files\Microsoft Visual Studio\2022\Professional\VC\Tools\MSVC\14.44.35207\include\utility
; File C:\Program Files\Microsoft Visual Studio\2022\Professional\VC\Tools\MSVC\14.44.35207\include\xtree
; File C:\Program Files\Microsoft Visual Studio\2022\Professional\VC\Tools\MSVC\14.44.35207\include\utility
; File C:\IAGOS\server\v18\Source\Source\DatabaseServer\GuildHouseDBCtrl.cpp
; File C:\IAGOS\server\v18\Source\Source\_Network\Net\Include\DPMng.h
; File C:\IAGOS\server\v18\Source\Source\DatabaseServer\GuildHouseDBCtrl.cpp
; File C:\Program Files\Microsoft Visual Studio\2022\Professional\VC\Tools\MSVC\14.44.35207\include\xtree
; File C:\IAGOS\server\v18\Source\Source\DatabaseServer\GuildHouseDBCtrl.cpp
;	COMDAT ?CreateGuildHouse@CGuildHouseDBCtrl@@AAEXAAVCAr@@K@Z
_TEXT	SEGMENT
_nBufSize$ = -16492					; size = 4
$T6 = -16488						; size = 4
$T7 = -16484						; size = 4
_this$1$ = -16484					; size = 4
$T8 = -16480						; size = 4
$T9 = -16480						; size = 4
_this$GSCopy$1$ = -16480				; size = 4
_dwPlayerId$ = -16476					; size = 4
$T10 = -16476						; size = 4
__Myhead$1$ = -16476					; size = 4
_dwGuildId$ = -16472					; size = 4
_arCreate$ = -16468					; size = 16404
_gfi$11 = -64						; size = 36
$T12 = -28						; size = 12
$T13 = -24						; size = 8
$T14 = -20						; size = 4
__$ArrayPad$ = -16					; size = 4
__$EHRec$ = -12						; size = 12
_ar$ = 8						; size = 4
_dpId$ = 12						; size = 4
?CreateGuildHouse@CGuildHouseDBCtrl@@AAEXAAVCAr@@K@Z PROC ; CGuildHouseDBCtrl::CreateGuildHouse, COMDAT
; _this$ = ecx

; 109  : {

  00000	55		 push	 ebp
  00001	8b ec		 mov	 ebp, esp
  00003	6a ff		 push	 -1
  00005	68 00 00 00 00	 push	 __ehhandler$?CreateGuildHouse@CGuildHouseDBCtrl@@AAEXAAVCAr@@K@Z
  0000a	64 a1 00 00 00
	00		 mov	 eax, DWORD PTR fs:0
  00010	50		 push	 eax
  00011	b8 60 40 00 00	 mov	 eax, 16480		; 00004060H
  00016	e8 00 00 00 00	 call	 __chkstk
  0001b	a1 00 00 00 00	 mov	 eax, DWORD PTR ___security_cookie
  00020	33 c5		 xor	 eax, ebp
  00022	89 45 f0	 mov	 DWORD PTR __$ArrayPad$[ebp], eax
  00025	53		 push	 ebx
  00026	56		 push	 esi
  00027	57		 push	 edi
  00028	50		 push	 eax
  00029	8d 45 f4	 lea	 eax, DWORD PTR __$EHRec$[ebp]
  0002c	64 a3 00 00 00
	00		 mov	 DWORD PTR fs:0, eax
  00032	8b d9		 mov	 ebx, ecx
  00034	89 9d a0 bf ff
	ff		 mov	 DWORD PTR _this$GSCopy$1$[ebp], ebx
  0003a	8b 4d 08	 mov	 ecx, DWORD PTR _ar$[ebp]

; 110  : 	DWORD dwPlayerId, dwGuildId;
; 111  : 	ar >> dwPlayerId >> dwGuildId;

  0003d	8d 85 a8 bf ff
	ff		 lea	 eax, DWORD PTR _dwGuildId$[ebp]
  00043	50		 push	 eax
  00044	8d 85 a4 bf ff
	ff		 lea	 eax, DWORD PTR _dwPlayerId$[ebp]
  0004a	50		 push	 eax
  0004b	e8 00 00 00 00	 call	 ??$?5K@CAr@@QAEAAV0@AAK@Z ; CAr::operator>><unsigned long>
  00050	8b c8		 mov	 ecx, eax
  00052	e8 00 00 00 00	 call	 ??$?5K@CAr@@QAEAAV0@AAK@Z ; CAr::operator>><unsigned long>

; 112  : 	
; 113  : 	BOOL bResult = FALSE;
; 114  : 	CQuery* pQuery = GetQueryObject();

  00057	8b 73 0c	 mov	 esi, DWORD PTR [ebx+12]

; 115  : 
; 116  : 	BEFORESENDDUAL( arCreate, PACKETTYPE_GUILDHOUSE_BUY, DPID_UNKNOWN, DPID_UNKNOWN );

  0005a	8d 8d ac bf ff
	ff		 lea	 ecx, DWORD PTR _arCreate$[ebp]
  00060	6a 00		 push	 0
  00062	6a 00		 push	 0
  00064	e8 00 00 00 00	 call	 ??0CAr@@QAE@PAXI@Z	; CAr::CAr
  00069	8d 85 9c bf ff
	ff		 lea	 eax, DWORD PTR $T7[ebp]
  0006f	c7 45 fc 00 00
	00 00		 mov	 DWORD PTR __$EHRec$[ebp+8], 0
  00076	50		 push	 eax
  00077	8d 85 98 bf ff
	ff		 lea	 eax, DWORD PTR $T6[ebp]
  0007d	c7 85 9c bf ff
	ff 01 00 10 88	 mov	 DWORD PTR $T7[ebp], -2012217343 ; 88100001H
  00087	50		 push	 eax
  00088	8d 45 ec	 lea	 eax, DWORD PTR $T14[ebp]
  0008b	c7 85 98 bf ff
	ff ff ff ff ff	 mov	 DWORD PTR $T6[ebp], -1
  00095	50		 push	 eax
  00096	8d 8d ac bf ff
	ff		 lea	 ecx, DWORD PTR _arCreate$[ebp]
  0009c	c7 45 ec ff ff
	ff ff		 mov	 DWORD PTR $T14[ebp], -1
  000a3	e8 00 00 00 00	 call	 ??$?6I@CAr@@QAEAAV0@ABI@Z ; CAr::operator<<<unsigned int>
  000a8	8b c8		 mov	 ecx, eax
  000aa	e8 00 00 00 00	 call	 ??$?6I@CAr@@QAEAAV0@ABI@Z ; CAr::operator<<<unsigned int>
  000af	8b c8		 mov	 ecx, eax
  000b1	e8 00 00 00 00	 call	 ??$?6K@CAr@@QAEAAV0@ABK@Z ; CAr::operator<<<unsigned long>

; 117  : 	{
; 118  : 		arCreate << dwPlayerId << dwGuildId;

  000b6	8d 85 a8 bf ff
	ff		 lea	 eax, DWORD PTR _dwGuildId$[ebp]
  000bc	50		 push	 eax
  000bd	8d 85 a4 bf ff
	ff		 lea	 eax, DWORD PTR _dwPlayerId$[ebp]
  000c3	50		 push	 eax
  000c4	8d 8d ac bf ff
	ff		 lea	 ecx, DWORD PTR _arCreate$[ebp]
  000ca	e8 00 00 00 00	 call	 ??$?6K@CAr@@QAEAAV0@ABK@Z ; CAr::operator<<<unsigned long>
  000cf	8b c8		 mov	 ecx, eax
  000d1	e8 00 00 00 00	 call	 ??$?6K@CAr@@QAEAAV0@ABK@Z ; CAr::operator<<<unsigned long>

; 119  : 		CGuildHouseBase* pGuildHouse = GuildHouseMng->MakeGuildHouse( dwGuildId, WI_GUILDHOUSE_SMALL );

  000d6	8b 9d a8 bf ff
	ff		 mov	 ebx, DWORD PTR _dwGuildId$[ebp]
  000dc	68 d4 00 00 00	 push	 212			; 000000d4H
  000e1	53		 push	 ebx
  000e2	e8 00 00 00 00	 call	 ?GetInstance@CGuildHouseMng@@SAPAV1@XZ ; CGuildHouseMng::GetInstance
  000e7	8b c8		 mov	 ecx, eax
  000e9	e8 00 00 00 00	 call	 ?MakeGuildHouse@CGuildHouseMng@@QAEPAVCGuildHouseBase@@KK@Z ; CGuildHouseMng::MakeGuildHouse
  000ee	8b f8		 mov	 edi, eax

; 120  : 		if( pGuildHouse )

  000f0	85 ff		 test	 edi, edi
  000f2	0f 84 a5 01 00
	00		 je	 $LN2@CreateGuil
; File C:\Program Files (x86)\Windows Kits\10\Include\10.0.26100.0\ucrt\time.h

; 428  :             return _time32(_Time);

  000f8	6a 00		 push	 0
  000fa	e8 00 00 00 00	 call	 __time32
; File C:\IAGOS\server\v18\Source\Source\DatabaseServer\GuildHouseDBCtrl.cpp

; 122  : 			pGuildHouse->SetUpkeeptime( time_null() + ( UPKEEP_DAY_TIME * 7 ) );	// ±âş» ŔŻÁö±â°ŁŔ» Á¦°řÇŃ´Ů.

  000ff	05 80 3a 09 00	 add	 eax, 604800		; 00093a80H

; 123  : 			if( pQuery->Execute( "usp_GuildHouse_Insert '%02d', '%06d', %d, %d", g_appInfo.dwSys, dwGuildId, WI_GUILDHOUSE_SMALL, pGuildHouse->GetUpkeepTime() ) // DBżˇ Ăß°ˇ Ľş°ř
; 124  : 				&& GuildHouseMng->AddGuildHouse( dwGuildId, pGuildHouse ) )

  00104	50		 push	 eax
  00105	68 d4 00 00 00	 push	 212			; 000000d4H
  0010a	53		 push	 ebx
  0010b	89 47 18	 mov	 DWORD PTR [edi+24], eax
  0010e	ff 35 00 00 00
	00		 push	 DWORD PTR ?g_appInfo@@3UAppInfo@@A
  00114	68 00 00 00 00	 push	 OFFSET ??_C@_0CN@BJKDNEMC@usp_GuildHouse_Insert?5?8?$CF02d?8?0?5?8@
  00119	56		 push	 esi
  0011a	e8 00 00 00 00	 call	 ?Execute@CQuery@@QAAHPBDZZ ; CQuery::Execute
  0011f	83 c4 1c	 add	 esp, 28			; 0000001cH
  00122	85 c0		 test	 eax, eax
  00124	0f 84 4d 01 00
	00		 je	 $LN4@CreateGuil
  0012a	e8 00 00 00 00	 call	 ?GetInstance@CGuildHouseMng@@SAPAV1@XZ ; CGuildHouseMng::GetInstance
; File C:\Program Files\Microsoft Visual Studio\2022\Professional\VC\Tools\MSVC\14.44.35207\include\xtree

; 1632 :         while (!_Trynode->_Isnil) {

  0012f	8b 8d a8 bf ff
	ff		 mov	 ecx, DWORD PTR _dwGuildId$[ebp]
; File C:\IAGOS\server\v18\Source\Source\_Common\GuildHouse.h

; 300  : 	BOOL				AddGuildHouse( DWORD dwGuildId, CGuildHouseBase* pGuildHouse )	{ return m_mapGuildHouse.insert( make_pair( dwGuildId, pGuildHouse ) ).second; }

  00135	83 c0 04	 add	 eax, 4
  00138	89 85 9c bf ff
	ff		 mov	 DWORD PTR _this$1$[ebp], eax
; File C:\Program Files\Microsoft Visual Studio\2022\Professional\VC\Tools\MSVC\14.44.35207\include\xtree

; 1630 :         _Tree_find_result<_Nodeptr> _Result{{_Scary->_Myhead->_Parent, _Tree_child::_Right}, _Scary->_Myhead};

  0013e	33 f6		 xor	 esi, esi
  00140	8b 00		 mov	 eax, DWORD PTR [eax]
  00142	8b d0		 mov	 edx, eax
  00144	89 85 a4 bf ff
	ff		 mov	 DWORD PTR __Myhead$1$[ebp], eax
  0014a	8b 58 04	 mov	 ebx, DWORD PTR [eax+4]

; 1632 :         while (!_Trynode->_Isnil) {

  0014d	80 7b 0d 00	 cmp	 BYTE PTR [ebx+13], 0
  00151	75 1f		 jne	 SHORT $LN34@CreateGuil
; File C:\Program Files\Microsoft Visual Studio\2022\Professional\VC\Tools\MSVC\14.44.35207\include\type_traits

; 2380 :         return _Left < _Right;

  00153	8b c3		 mov	 eax, ebx
$LL33@CreateGuil:
; File C:\Program Files\Microsoft Visual Studio\2022\Professional\VC\Tools\MSVC\14.44.35207\include\xtree

; 1633 :             _Result._Location._Parent = _Trynode;

  00155	8b d8		 mov	 ebx, eax
; File C:\Program Files\Microsoft Visual Studio\2022\Professional\VC\Tools\MSVC\14.44.35207\include\type_traits

; 2380 :         return _Left < _Right;

  00157	39 48 10	 cmp	 DWORD PTR [eax+16], ecx
; File C:\Program Files\Microsoft Visual Studio\2022\Professional\VC\Tools\MSVC\14.44.35207\include\xtree

; 1634 :             if (_DEBUG_LT_PRED(_Getcomp(), _Traits::_Kfn(_Trynode->_Myval), _Keyval)) {

  0015a	73 07		 jae	 SHORT $LN35@CreateGuil

; 1635 :                 _Result._Location._Child = _Tree_child::_Right;
; 1636 :                 _Trynode                 = _Trynode->_Right;

  0015c	8b 40 08	 mov	 eax, DWORD PTR [eax+8]
  0015f	33 f6		 xor	 esi, esi

; 1637 :             } else {

  00161	eb 09		 jmp	 SHORT $LN36@CreateGuil
$LN35@CreateGuil:

; 1638 :                 _Result._Location._Child = _Tree_child::_Left;
; 1639 :                 _Result._Bound           = _Trynode;

  00163	8b d0		 mov	 edx, eax
  00165	be 01 00 00 00	 mov	 esi, 1

; 1640 :                 _Trynode                 = _Trynode->_Left;

  0016a	8b 00		 mov	 eax, DWORD PTR [eax]
$LN36@CreateGuil:

; 1632 :         while (!_Trynode->_Isnil) {

  0016c	80 78 0d 00	 cmp	 BYTE PTR [eax+13], 0
  00170	74 e3		 je	 SHORT $LL33@CreateGuil
$LN34@CreateGuil:

; 1624 :         return !_Bound->_Isnil && !_DEBUG_LT_PRED(_Getcomp(), _Keyval, _Traits::_Kfn(_Bound->_Myval));

  00172	80 7a 0d 00	 cmp	 BYTE PTR [edx+13], 0
  00176	75 09		 jne	 SHORT $LN29@CreateGuil
; File C:\Program Files\Microsoft Visual Studio\2022\Professional\VC\Tools\MSVC\14.44.35207\include\type_traits

; 2380 :         return _Left < _Right;

  00178	3b 4a 10	 cmp	 ecx, DWORD PTR [edx+16]
; File C:\Program Files\Microsoft Visual Studio\2022\Professional\VC\Tools\MSVC\14.44.35207\include\xtree

; 1624 :         return !_Bound->_Isnil && !_DEBUG_LT_PRED(_Getcomp(), _Keyval, _Traits::_Kfn(_Bound->_Myval));

  0017b	72 04		 jb	 SHORT $LN29@CreateGuil
; File C:\Program Files\Microsoft Visual Studio\2022\Professional\VC\Tools\MSVC\14.44.35207\include\utility

; 274  :         : first(_STD forward<_Other1>(_Val1)), second(_STD forward<_Other2>(_Val2)) {

  0017d	32 c0		 xor	 al, al
; File C:\Program Files\Microsoft Visual Studio\2022\Professional\VC\Tools\MSVC\14.44.35207\include\xtree

; 1019 :                 return {_Loc._Bound, false};

  0017f	eb 5f		 jmp	 SHORT $LN123@CreateGuil
$LN29@CreateGuil:

; 1648 :         if (max_size() == _Get_scary()->_Mysize) {

  00181	8b 85 9c bf ff
	ff		 mov	 eax, DWORD PTR _this$1$[ebp]
  00187	81 78 04 aa aa
	aa 0a		 cmp	 DWORD PTR [eax+4], 178956970 ; 0aaaaaaaH
  0018e	0f 84 7f 01 00
	00		 je	 $LN153@CreateGuil
; File C:\Program Files\Microsoft Visual Studio\2022\Professional\VC\Tools\MSVC\14.44.35207\include\xmemory

; 1160 :     _CONSTEXPR20 explicit _Alloc_construct_ptr(_Alloc& _Al_) : _Al(_Al_), _Ptr(nullptr) {}

  00194	89 45 e8	 mov	 DWORD PTR $T13[ebp], eax

; 136  :         return ::operator new(_Bytes);

  00197	6a 18		 push	 24			; 00000018H
; File C:\Program Files\Microsoft Visual Studio\2022\Professional\VC\Tools\MSVC\14.44.35207\include\xtree

; 808  :     explicit _Tree_temp_node_alloc(_Alnode& _Al_) : _Alloc_construct_ptr<_Alnode>(_Al_) {

  00199	c6 45 fc 01	 mov	 BYTE PTR __$EHRec$[ebp+8], 1
; File C:\Program Files\Microsoft Visual Studio\2022\Professional\VC\Tools\MSVC\14.44.35207\include\xmemory

; 1167 :         _Ptr = nullptr; // if allocate throws, prevents double-free

  0019d	c7 45 ec 00 00
	00 00		 mov	 DWORD PTR $T13[ebp+4], 0

; 136  :         return ::operator new(_Bytes);

  001a4	e8 00 00 00 00	 call	 ??2@YAPAXI@Z		; operator new
; File C:\Program Files\Microsoft Visual Studio\2022\Professional\VC\Tools\MSVC\14.44.35207\include\xtree

; 831  :         _Construct_in_place(this->_Ptr->_Left, _Myhead);

  001a9	8b 95 a4 bf ff
	ff		 mov	 edx, DWORD PTR __Myhead$1$[ebp]
; File C:\Program Files\Microsoft Visual Studio\2022\Professional\VC\Tools\MSVC\14.44.35207\include\xmemory

; 136  :         return ::operator new(_Bytes);

  001af	83 c4 04	 add	 esp, 4
; File C:\Program Files\Microsoft Visual Studio\2022\Professional\VC\Tools\MSVC\14.44.35207\include\utility

; 303  :         : first(_STD forward<_Other1>(_Right.first)), second(_STD forward<_Other2>(_Right.second)) {}

  001b2	8b 8d a8 bf ff
	ff		 mov	 ecx, DWORD PTR _dwGuildId$[ebp]
; File C:\Program Files\Microsoft Visual Studio\2022\Professional\VC\Tools\MSVC\14.44.35207\include\xtree

; 810  :     }

  001b8	c6 45 fc 00	 mov	 BYTE PTR __$EHRec$[ebp+8], 0
; File C:\Program Files\Microsoft Visual Studio\2022\Professional\VC\Tools\MSVC\14.44.35207\include\utility

; 303  :         : first(_STD forward<_Other1>(_Right.first)), second(_STD forward<_Other2>(_Right.second)) {}

  001bc	89 48 10	 mov	 DWORD PTR [eax+16], ecx
; File C:\Program Files\Microsoft Visual Studio\2022\Professional\VC\Tools\MSVC\14.44.35207\include\xtree

; 1042 :         return {_Scary->_Insert_node(_Loc._Location, _Inserted), true};

  001bf	8b 8d 9c bf ff
	ff		 mov	 ecx, DWORD PTR _this$1$[ebp]
; File C:\Program Files\Microsoft Visual Studio\2022\Professional\VC\Tools\MSVC\14.44.35207\include\utility

; 303  :         : first(_STD forward<_Other1>(_Right.first)), second(_STD forward<_Other2>(_Right.second)) {}

  001c5	89 78 14	 mov	 DWORD PTR [eax+20], edi
; File C:\Program Files\Microsoft Visual Studio\2022\Professional\VC\Tools\MSVC\14.44.35207\include\xtree

; 1042 :         return {_Scary->_Insert_node(_Loc._Location, _Inserted), true};

  001c8	50		 push	 eax

; 831  :         _Construct_in_place(this->_Ptr->_Left, _Myhead);

  001c9	89 10		 mov	 DWORD PTR [eax], edx

; 832  :         _Construct_in_place(this->_Ptr->_Parent, _Myhead);

  001cb	89 50 04	 mov	 DWORD PTR [eax+4], edx

; 1042 :         return {_Scary->_Insert_node(_Loc._Location, _Inserted), true};

  001ce	56		 push	 esi

; 833  :         _Construct_in_place(this->_Ptr->_Right, _Myhead);

  001cf	89 50 08	 mov	 DWORD PTR [eax+8], edx

; 1042 :         return {_Scary->_Insert_node(_Loc._Location, _Inserted), true};

  001d2	53		 push	 ebx

; 834  :         this->_Ptr->_Color = _Red;

  001d3	66 c7 40 0c 00
	00		 mov	 WORD PTR [eax+12], 0

; 1042 :         return {_Scary->_Insert_node(_Loc._Location, _Inserted), true};

  001d9	e8 00 00 00 00	 call	 ?_Insert_node@?$_Tree_val@U?$_Tree_simple_types@U?$pair@$$CBKPAVCGuildHouseBase@@@std@@@std@@@std@@QAEPAU?$_Tree_node@U?$pair@$$CBKPAVCGuildHouseBase@@@std@@PAX@2@U?$_Tree_id@PAU?$_Tree_node@U?$pair@$$CBKPAVCGuildHouseBase@@@std@@PAX@std@@@2@QAU32@@Z ; std::_Tree_val<std::_Tree_simple_types<std::pair<unsigned long const ,CGuildHouseBase *> > >::_Insert_node
; File C:\Program Files\Microsoft Visual Studio\2022\Professional\VC\Tools\MSVC\14.44.35207\include\utility

; 274  :         : first(_STD forward<_Other1>(_Val1)), second(_STD forward<_Other2>(_Val2)) {

  001de	b0 01		 mov	 al, 1
$LN123@CreateGuil:
; File C:\IAGOS\server\v18\Source\Source\DatabaseServer\GuildHouseDBCtrl.cpp

; 125  : 			{

  001e0	84 c0		 test	 al, al
  001e2	0f 84 8f 00 00
	00		 je	 $LN4@CreateGuil

; 126  : 				arCreate << TRUE;

  001e8	8d 85 a4 bf ff
	ff		 lea	 eax, DWORD PTR $T10[ebp]
  001ee	c7 85 a4 bf ff
	ff 01 00 00 00	 mov	 DWORD PTR $T10[ebp], 1
  001f8	50		 push	 eax
  001f9	8d 8d ac bf ff
	ff		 lea	 ecx, DWORD PTR _arCreate$[ebp]
  001ff	e8 00 00 00 00	 call	 ??$?6H@CAr@@QAEAAV0@ABH@Z ; CAr::operator<<<int>

; 127  : 				dpId = DPID_ALLPLAYERS;	// ¸đµç żůµĺ Ľ­ąö·Î ŔüĽŰÇŃ´Ů.
; 128  : 				GH_Fntr_Info gfi( II_GHOU_FUR_NPC_TELEPORTER, TRUE, pGuildHouse->GetTeleporterPos(), 0.0f, ( UPKEEP_DAY_TIME * 7 ) );

  00204	8b 07		 mov	 eax, DWORD PTR [edi]
  00206	8d 4d e4	 lea	 ecx, DWORD PTR $T12[ebp]
  00209	51		 push	 ecx
  0020a	8b cf		 mov	 ecx, edi
  0020c	33 f6		 xor	 esi, esi
  0020e	ff 50 04	 call	 DWORD PTR [eax+4]
  00211	68 80 3a 09 00	 push	 604800			; 00093a80H
  00216	83 ec 10	 sub	 esp, 16			; 00000010H
  00219	8b cc		 mov	 ecx, esp
  0021b	f3 0f 7e 00	 movq	 xmm0, QWORD PTR [eax]
  0021f	8b 40 08	 mov	 eax, DWORD PTR [eax+8]
  00222	89 74 24 0c	 mov	 DWORD PTR [esp+12], esi
  00226	66 0f d6 01	 movq	 QWORD PTR [ecx], xmm0
  0022a	6a 01		 push	 1
  0022c	89 41 08	 mov	 DWORD PTR [ecx+8], eax
  0022f	8d 4d c0	 lea	 ecx, DWORD PTR _gfi$11[ebp]
  00232	68 9c 4e 00 00	 push	 20124			; 00004e9cH
  00237	e8 00 00 00 00	 call	 ??0GuildHouse_Furniture_Info@CGuildHouseBase@@QAE@KHUD3DXVECTOR3@@MJ@Z ; CGuildHouseBase::GuildHouse_Furniture_Info::GuildHouse_Furniture_Info

; 129  : 				if( ExcuteQuery( dwGuildId, pGuildHouse, GUILDHOUSE_PCKTTYPE_LISTUP, gfi, NULL_ID ) )

  0023c	8b 8d a0 bf ff
	ff		 mov	 ecx, DWORD PTR _this$GSCopy$1$[ebp]
  00242	8d 45 c0	 lea	 eax, DWORD PTR _gfi$11[ebp]
  00245	6a ff		 push	 -1
  00247	50		 push	 eax
  00248	56		 push	 esi
  00249	57		 push	 edi
  0024a	ff b5 a8 bf ff
	ff		 push	 DWORD PTR _dwGuildId$[ebp]
  00250	e8 00 00 00 00	 call	 ?ExcuteQuery@CGuildHouseDBCtrl@@AAEHKPAVCGuildHouseBase@@HAAUGuildHouse_Furniture_Info@2@H@Z ; CGuildHouseDBCtrl::ExcuteQuery
  00255	85 c0		 test	 eax, eax
  00257	74 0e		 je	 SHORT $LN6@CreateGuil

; 130  : 					pGuildHouse->OnGuildHousePacket( GUILDHOUSE_PCKTTYPE_LISTUP, gfi, NULL_ID );

  00259	6a ff		 push	 -1
  0025b	8d 45 c0	 lea	 eax, DWORD PTR _gfi$11[ebp]
  0025e	8b cf		 mov	 ecx, edi
  00260	50		 push	 eax
  00261	56		 push	 esi
  00262	e8 00 00 00 00	 call	 ?OnGuildHousePacket@CGuildHouseBase@@QAEHHAAUGuildHouse_Furniture_Info@1@H@Z ; CGuildHouseBase::OnGuildHousePacket
$LN6@CreateGuil:

; 131  : 				pGuildHouse->SerializeAllInfo( arCreate );

  00267	8d 85 ac bf ff
	ff		 lea	 eax, DWORD PTR _arCreate$[ebp]
  0026d	8b cf		 mov	 ecx, edi
  0026f	50		 push	 eax
  00270	e8 00 00 00 00	 call	 ?SerializeAllInfo@CGuildHouseBase@@QAEXAAVCAr@@@Z ; CGuildHouseBase::SerializeAllInfo

; 132  : 			}

  00275	eb 45		 jmp	 SHORT $LN3@CreateGuil
$LN4@CreateGuil:

; 133  : 			else
; 134  : 			{
; 135  : 				arCreate << FALSE;

  00277	8d 85 a0 bf ff
	ff		 lea	 eax, DWORD PTR $T8[ebp]
  0027d	c7 85 a0 bf ff
	ff 00 00 00 00	 mov	 DWORD PTR $T8[ebp], 0
  00287	50		 push	 eax
  00288	8d 8d ac bf ff
	ff		 lea	 ecx, DWORD PTR _arCreate$[ebp]
  0028e	e8 00 00 00 00	 call	 ??$?6H@CAr@@QAEAAV0@ABH@Z ; CAr::operator<<<int>

; 136  : 				SAFE_DELETE( pGuildHouse );

  00293	8b 07		 mov	 eax, DWORD PTR [edi]
  00295	8b cf		 mov	 ecx, edi
  00297	6a 01		 push	 1
  00299	ff 10		 call	 DWORD PTR [eax]

; 137  : 			}
; 138  : 		}

  0029b	eb 1c		 jmp	 SHORT $LN151@CreateGuil
$LN2@CreateGuil:

; 139  : 		else
; 140  : 			arCreate << FALSE;

  0029d	8d 85 a0 bf ff
	ff		 lea	 eax, DWORD PTR $T9[ebp]
  002a3	c7 85 a0 bf ff
	ff 00 00 00 00	 mov	 DWORD PTR $T9[ebp], 0
  002ad	50		 push	 eax
  002ae	8d 8d ac bf ff
	ff		 lea	 ecx, DWORD PTR _arCreate$[ebp]
  002b4	e8 00 00 00 00	 call	 ??$?6H@CAr@@QAEAAV0@ABH@Z ; CAr::operator<<<int>
$LN151@CreateGuil:

; 141  : 	}
; 142  : 	SEND( arCreate, CDPTrans::GetInstance(), dpId );

  002b9	8b 75 0c	 mov	 esi, DWORD PTR _dpId$[ebp]
$LN3@CreateGuil:
  002bc	8d 85 94 bf ff
	ff		 lea	 eax, DWORD PTR _nBufSize$[ebp]
  002c2	50		 push	 eax
  002c3	8d 8d ac bf ff
	ff		 lea	 ecx, DWORD PTR _arCreate$[ebp]
  002c9	e8 00 00 00 00	 call	 ?GetBuffer@CAr@@QAEPAEPAH@Z ; CAr::GetBuffer
  002ce	8b 9d 94 bf ff
	ff		 mov	 ebx, DWORD PTR _nBufSize$[ebp]
  002d4	8b f8		 mov	 edi, eax
  002d6	e8 00 00 00 00	 call	 ?GetInstance@CDPTrans@@SAPAV1@XZ ; CDPTrans::GetInstance
; File C:\IAGOS\server\v18\Source\Source\_Network\Net\Include\DPMng.h

; 171  : 	if( !m_pDPSock )

  002db	8b 48 04	 mov	 ecx, DWORD PTR [eax+4]
  002de	85 c9		 test	 ecx, ecx
  002e0	74 08		 je	 SHORT $LN141@CreateGuil

; 172  : 		return FALSE;
; 173  : 	return m_pDPSock->Send( (char*)lpData, dwDataSize, dpidTo );

  002e2	56		 push	 esi
  002e3	53		 push	 ebx
  002e4	57		 push	 edi
  002e5	e8 00 00 00 00	 call	 ?Send@CDPSock@@QAEHPADKK@Z ; CDPSock::Send
$LN141@CreateGuil:
; File C:\IAGOS\server\v18\Source\Source\DatabaseServer\GuildHouseDBCtrl.cpp

; 143  : }

  002ea	8d 8d ac bf ff
	ff		 lea	 ecx, DWORD PTR _arCreate$[ebp]
  002f0	e8 00 00 00 00	 call	 ??1CAr@@QAE@XZ		; CAr::~CAr
  002f5	8b 4d f4	 mov	 ecx, DWORD PTR __$EHRec$[ebp]
  002f8	64 89 0d 00 00
	00 00		 mov	 DWORD PTR fs:0, ecx
  002ff	59		 pop	 ecx
  00300	5f		 pop	 edi
  00301	5e		 pop	 esi
  00302	5b		 pop	 ebx
  00303	8b 4d f0	 mov	 ecx, DWORD PTR __$ArrayPad$[ebp]
  00306	33 cd		 xor	 ecx, ebp
  00308	e8 00 00 00 00	 call	 @__security_check_cookie@4
  0030d	8b e5		 mov	 esp, ebp
  0030f	5d		 pop	 ebp
  00310	c2 08 00	 ret	 8
$LN153@CreateGuil:
; File C:\Program Files\Microsoft Visual Studio\2022\Professional\VC\Tools\MSVC\14.44.35207\include\xtree

; 1649 :             _Throw_tree_length_error();

  00313	e8 00 00 00 00	 call	 ?_Throw_tree_length_error@std@@YAXXZ ; std::_Throw_tree_length_error
$LN150@CreateGuil:
  00318	cc		 int	 3
_TEXT	ENDS
;	COMDAT text$x
text$x	SEGMENT
__unwindfunclet$?CreateGuildHouse@CGuildHouseDBCtrl@@AAEXAAVCAr@@K@Z$0:
  00000	8d 8d ac bf ff
	ff		 lea	 ecx, DWORD PTR _arCreate$[ebp]
  00006	e9 00 00 00 00	 jmp	 ??1CAr@@QAE@XZ		; CAr::~CAr
__unwindfunclet$?CreateGuildHouse@CGuildHouseDBCtrl@@AAEXAAVCAr@@K@Z$3:
  0000b	8d 4d e8	 lea	 ecx, DWORD PTR $T13[ebp]
  0000e	e9 00 00 00 00	 jmp	 ??1?$_Alloc_construct_ptr@V?$allocator@U?$_Tree_node@U?$pair@$$CBKPAVCGuildHouseBase@@@std@@PAX@std@@@std@@@std@@QAE@XZ ; std::_Alloc_construct_ptr<std::allocator<std::_Tree_node<std::pair<unsigned long const ,CGuildHouseBase *>,void *> > >::~_Alloc_construct_ptr<std::allocator<std::_Tree_node<std::pair<unsigned long const ,CGuildHouseBase *>,void *> > >
  00013	cc		 int	 3
  00014	cc		 int	 3
  00015	cc		 int	 3
  00016	cc		 int	 3
  00017	cc		 int	 3
__ehhandler$?CreateGuildHouse@CGuildHouseDBCtrl@@AAEXAAVCAr@@K@Z:
  00018	90		 npad	 1
  00019	90		 npad	 1
  0001a	8b 54 24 08	 mov	 edx, DWORD PTR [esp+8]
  0001e	8d 42 0c	 lea	 eax, DWORD PTR [edx+12]
  00021	8b 8a 90 bf ff
	ff		 mov	 ecx, DWORD PTR [edx-16496]
  00027	33 c8		 xor	 ecx, eax
  00029	e8 00 00 00 00	 call	 @__security_check_cookie@4
  0002e	8b 4a fc	 mov	 ecx, DWORD PTR [edx-4]
  00031	33 c8		 xor	 ecx, eax
  00033	e8 00 00 00 00	 call	 @__security_check_cookie@4
  00038	b8 00 00 00 00	 mov	 eax, OFFSET __ehfuncinfo$?CreateGuildHouse@CGuildHouseDBCtrl@@AAEXAAVCAr@@K@Z
  0003d	e9 00 00 00 00	 jmp	 ___CxxFrameHandler3
text$x	ENDS
?CreateGuildHouse@CGuildHouseDBCtrl@@AAEXAAVCAr@@K@Z ENDP ; CGuildHouseDBCtrl::CreateGuildHouse
; Function compile flags: /Ogtp
; File C:\IAGOS\server\v18\Source\Source\DatabaseServer\GuildHouseDBCtrl.cpp
; File C:\Program Files\Microsoft Visual Studio\2022\Professional\VC\Tools\MSVC\14.44.35207\include\xtree
; File C:\IAGOS\server\v18\Source\Source\DatabaseServer\GuildHouseDBCtrl.cpp
; File C:\IAGOS\server\v18\Source\Source\_Network\Net\Include\DPMng.h
; File C:\IAGOS\server\v18\Source\Source\DatabaseServer\GuildHouseDBCtrl.cpp
;	COMDAT ?SendGuildHouse@CGuildHouseDBCtrl@@AAEXK@Z
_TEXT	SEGMENT
_nBufSize$2 = -16436					; size = 4
$T3 = -16432						; size = 4
$T4 = -16428						; size = 4
$T5 = -16424						; size = 4
_ar$6 = -16420						; size = 16404
__$ArrayPad$ = -16					; size = 4
__$EHRec$ = -12						; size = 12
_dpId$ = 8						; size = 4
?SendGuildHouse@CGuildHouseDBCtrl@@AAEXK@Z PROC		; CGuildHouseDBCtrl::SendGuildHouse, COMDAT
; _this$ = ecx

; 99   : {

  00000	55		 push	 ebp
  00001	8b ec		 mov	 ebp, esp
  00003	6a ff		 push	 -1
  00005	68 00 00 00 00	 push	 __ehhandler$?SendGuildHouse@CGuildHouseDBCtrl@@AAEXK@Z
  0000a	64 a1 00 00 00
	00		 mov	 eax, DWORD PTR fs:0
  00010	50		 push	 eax
  00011	b8 28 40 00 00	 mov	 eax, 16424		; 00004028H
  00016	e8 00 00 00 00	 call	 __chkstk
  0001b	a1 00 00 00 00	 mov	 eax, DWORD PTR ___security_cookie
  00020	33 c5		 xor	 eax, ebp
  00022	89 45 f0	 mov	 DWORD PTR __$ArrayPad$[ebp], eax
  00025	56		 push	 esi
  00026	57		 push	 edi
  00027	50		 push	 eax
  00028	8d 45 f4	 lea	 eax, DWORD PTR __$EHRec$[ebp]
  0002b	64 a3 00 00 00
	00		 mov	 DWORD PTR fs:0, eax

; 100  : 	if( !GuildHouseMng->IsEmpty() )

  00031	e8 00 00 00 00	 call	 ?GetInstance@CGuildHouseMng@@SAPAV1@XZ ; CGuildHouseMng::GetInstance
; File C:\Program Files\Microsoft Visual Studio\2022\Professional\VC\Tools\MSVC\14.44.35207\include\xtree

; 1218 :         return _Get_scary()->_Mysize == 0;

  00036	83 78 08 00	 cmp	 DWORD PTR [eax+8], 0
; File C:\IAGOS\server\v18\Source\Source\DatabaseServer\GuildHouseDBCtrl.cpp

; 100  : 	if( !GuildHouseMng->IsEmpty() )

  0003a	0f 84 b0 00 00
	00		 je	 $LN2@SendGuildH

; 101  : 	{
; 102  : 		BEFORESENDDUAL( ar, PACKETTYPE_GUILDHOUSE_LOAD, DPID_UNKNOWN, DPID_UNKNOWN );

  00040	6a 00		 push	 0
  00042	6a 00		 push	 0
  00044	8d 8d dc bf ff
	ff		 lea	 ecx, DWORD PTR _ar$6[ebp]
  0004a	e8 00 00 00 00	 call	 ??0CAr@@QAE@PAXI@Z	; CAr::CAr
  0004f	8d 85 d8 bf ff
	ff		 lea	 eax, DWORD PTR $T5[ebp]
  00055	c7 45 fc 00 00
	00 00		 mov	 DWORD PTR __$EHRec$[ebp+8], 0
  0005c	50		 push	 eax
  0005d	8d 85 d4 bf ff
	ff		 lea	 eax, DWORD PTR $T4[ebp]
  00063	c7 85 d8 bf ff
	ff 00 00 10 88	 mov	 DWORD PTR $T5[ebp], -2012217344 ; 88100000H
  0006d	50		 push	 eax
  0006e	8d 85 d0 bf ff
	ff		 lea	 eax, DWORD PTR $T3[ebp]
  00074	c7 85 d4 bf ff
	ff ff ff ff ff	 mov	 DWORD PTR $T4[ebp], -1
  0007e	50		 push	 eax
  0007f	8d 8d dc bf ff
	ff		 lea	 ecx, DWORD PTR _ar$6[ebp]
  00085	c7 85 d0 bf ff
	ff ff ff ff ff	 mov	 DWORD PTR $T3[ebp], -1
  0008f	e8 00 00 00 00	 call	 ??$?6I@CAr@@QAEAAV0@ABI@Z ; CAr::operator<<<unsigned int>
  00094	8b c8		 mov	 ecx, eax
  00096	e8 00 00 00 00	 call	 ??$?6I@CAr@@QAEAAV0@ABI@Z ; CAr::operator<<<unsigned int>
  0009b	8b c8		 mov	 ecx, eax
  0009d	e8 00 00 00 00	 call	 ??$?6K@CAr@@QAEAAV0@ABK@Z ; CAr::operator<<<unsigned long>

; 103  : 		GuildHouseMng->Serialize( ar );

  000a2	8d 85 dc bf ff
	ff		 lea	 eax, DWORD PTR _ar$6[ebp]
  000a8	50		 push	 eax
  000a9	e8 00 00 00 00	 call	 ?GetInstance@CGuildHouseMng@@SAPAV1@XZ ; CGuildHouseMng::GetInstance
  000ae	8b c8		 mov	 ecx, eax
  000b0	e8 00 00 00 00	 call	 ?Serialize@CGuildHouseMng@@QAEXAAVCAr@@@Z ; CGuildHouseMng::Serialize

; 104  : 		SEND( ar, CDPTrans::GetInstance(), dpId );

  000b5	8d 85 cc bf ff
	ff		 lea	 eax, DWORD PTR _nBufSize$2[ebp]
  000bb	50		 push	 eax
  000bc	8d 8d dc bf ff
	ff		 lea	 ecx, DWORD PTR _ar$6[ebp]
  000c2	e8 00 00 00 00	 call	 ?GetBuffer@CAr@@QAEPAEPAH@Z ; CAr::GetBuffer
  000c7	8b bd cc bf ff
	ff		 mov	 edi, DWORD PTR _nBufSize$2[ebp]
  000cd	8b f0		 mov	 esi, eax
  000cf	e8 00 00 00 00	 call	 ?GetInstance@CDPTrans@@SAPAV1@XZ ; CDPTrans::GetInstance
; File C:\IAGOS\server\v18\Source\Source\_Network\Net\Include\DPMng.h

; 171  : 	if( !m_pDPSock )

  000d4	8b 48 04	 mov	 ecx, DWORD PTR [eax+4]
  000d7	85 c9		 test	 ecx, ecx
  000d9	74 0a		 je	 SHORT $LN10@SendGuildH

; 172  : 		return FALSE;
; 173  : 	return m_pDPSock->Send( (char*)lpData, dwDataSize, dpidTo );

  000db	ff 75 08	 push	 DWORD PTR _dpId$[ebp]
  000de	57		 push	 edi
  000df	56		 push	 esi
  000e0	e8 00 00 00 00	 call	 ?Send@CDPSock@@QAEHPADKK@Z ; CDPSock::Send
$LN10@SendGuildH:
; File C:\IAGOS\server\v18\Source\Source\DatabaseServer\GuildHouseDBCtrl.cpp

; 105  : 	}

  000e5	8d 8d dc bf ff
	ff		 lea	 ecx, DWORD PTR _ar$6[ebp]
  000eb	e8 00 00 00 00	 call	 ??1CAr@@QAE@XZ		; CAr::~CAr
$LN2@SendGuildH:

; 106  : }

  000f0	8b 4d f4	 mov	 ecx, DWORD PTR __$EHRec$[ebp]
  000f3	64 89 0d 00 00
	00 00		 mov	 DWORD PTR fs:0, ecx
  000fa	59		 pop	 ecx
  000fb	5f		 pop	 edi
  000fc	5e		 pop	 esi
  000fd	8b 4d f0	 mov	 ecx, DWORD PTR __$ArrayPad$[ebp]
  00100	33 cd		 xor	 ecx, ebp
  00102	e8 00 00 00 00	 call	 @__security_check_cookie@4
  00107	8b e5		 mov	 esp, ebp
  00109	5d		 pop	 ebp
  0010a	c2 04 00	 ret	 4
_TEXT	ENDS
;	COMDAT text$x
text$x	SEGMENT
__unwindfunclet$?SendGuildHouse@CGuildHouseDBCtrl@@AAEXK@Z$0:
  00000	8d 8d dc bf ff
	ff		 lea	 ecx, DWORD PTR _ar$6[ebp]
  00006	e9 00 00 00 00	 jmp	 ??1CAr@@QAE@XZ		; CAr::~CAr
  0000b	cc		 int	 3
  0000c	cc		 int	 3
  0000d	cc		 int	 3
  0000e	cc		 int	 3
  0000f	cc		 int	 3
__ehhandler$?SendGuildHouse@CGuildHouseDBCtrl@@AAEXK@Z:
  00010	90		 npad	 1
  00011	90		 npad	 1
  00012	8b 54 24 08	 mov	 edx, DWORD PTR [esp+8]
  00016	8d 42 0c	 lea	 eax, DWORD PTR [edx+12]
  00019	8b 8a cc bf ff
	ff		 mov	 ecx, DWORD PTR [edx-16436]
  0001f	33 c8		 xor	 ecx, eax
  00021	e8 00 00 00 00	 call	 @__security_check_cookie@4
  00026	8b 4a fc	 mov	 ecx, DWORD PTR [edx-4]
  00029	33 c8		 xor	 ecx, eax
  0002b	e8 00 00 00 00	 call	 @__security_check_cookie@4
  00030	b8 00 00 00 00	 mov	 eax, OFFSET __ehfuncinfo$?SendGuildHouse@CGuildHouseDBCtrl@@AAEXK@Z
  00035	e9 00 00 00 00	 jmp	 ___CxxFrameHandler3
text$x	ENDS
?SendGuildHouse@CGuildHouseDBCtrl@@AAEXK@Z ENDP		; CGuildHouseDBCtrl::SendGuildHouse
; Function compile flags: /Ogtp
; File C:\IAGOS\server\v18\Source\Source\DatabaseServer\GuildHouseDBCtrl.cpp
;	COMDAT ?OnTimer@CGuildHouseDBCtrl@@UAEXXZ
_TEXT	SEGMENT
?OnTimer@CGuildHouseDBCtrl@@UAEXXZ PROC			; CGuildHouseDBCtrl::OnTimer, COMDAT
; _this$ = ecx

; 91   : 	GuildHouseMng->ProcessExpired();

  00000	e8 00 00 00 00	 call	 ?GetInstance@CGuildHouseMng@@SAPAV1@XZ ; CGuildHouseMng::GetInstance
  00005	8b c8		 mov	 ecx, eax
  00007	e9 00 00 00 00	 jmp	 ?ProcessExpired@CGuildHouseMng@@QAEXXZ ; CGuildHouseMng::ProcessExpired
?OnTimer@CGuildHouseDBCtrl@@UAEXXZ ENDP			; CGuildHouseDBCtrl::OnTimer
_TEXT	ENDS
; Function compile flags: /Ogtp
; File C:\IAGOS\server\v18\Source\Source\DatabaseServer\GuildHouseDBCtrl.cpp
; File C:\IAGOS\server\v18\Source\Source\DatabaseServer\GuildHouseDBCtrl.h
; File C:\IAGOS\server\v18\Source\Source\DatabaseServer\GuildHouseDBCtrl.cpp
;	COMDAT ?Handler@CGuildHouseDBCtrl@@UAEXPAUtagDB_OVERLAPPED_PLUS@@K@Z
_TEXT	SEGMENT
_dwPlayerId$2 = -16432					; size = 4
_nRestPoint$3 = -16428					; size = 4
_tLogOut$4 = -16424					; size = 4
_ar$ = -16420						; size = 16404
__$ArrayPad$ = -16					; size = 4
__$EHRec$ = -12						; size = 12
_pov$ = 8						; size = 4
_dwCompletionKey$ = 12					; size = 4
?Handler@CGuildHouseDBCtrl@@UAEXPAUtagDB_OVERLAPPED_PLUS@@K@Z PROC ; CGuildHouseDBCtrl::Handler, COMDAT
; _this$ = ecx

; 27   : {

  00000	55		 push	 ebp
  00001	8b ec		 mov	 ebp, esp
  00003	6a ff		 push	 -1
  00005	68 00 00 00 00	 push	 __ehhandler$?Handler@CGuildHouseDBCtrl@@UAEXPAUtagDB_OVERLAPPED_PLUS@@K@Z
  0000a	64 a1 00 00 00
	00		 mov	 eax, DWORD PTR fs:0
  00010	50		 push	 eax
  00011	b8 24 40 00 00	 mov	 eax, 16420		; 00004024H
  00016	e8 00 00 00 00	 call	 __chkstk
  0001b	a1 00 00 00 00	 mov	 eax, DWORD PTR ___security_cookie
  00020	33 c5		 xor	 eax, ebp
  00022	89 45 f0	 mov	 DWORD PTR __$ArrayPad$[ebp], eax
  00025	56		 push	 esi
  00026	57		 push	 edi
  00027	50		 push	 eax
  00028	8d 45 f4	 lea	 eax, DWORD PTR __$EHRec$[ebp]
  0002b	64 a3 00 00 00
	00		 mov	 DWORD PTR fs:0, eax
  00031	8b f9		 mov	 edi, ecx
  00033	8b 75 08	 mov	 esi, DWORD PTR _pov$[ebp]

; 28   : 	CAr ar( pov->lpBuf, pov->uBufSize );

  00036	8d 8d dc bf ff
	ff		 lea	 ecx, DWORD PTR _ar$[ebp]
  0003c	ff 76 1c	 push	 DWORD PTR [esi+28]
  0003f	ff 76 18	 push	 DWORD PTR [esi+24]
  00042	e8 00 00 00 00	 call	 ??0CAr@@QAE@PAXI@Z	; CAr::CAr

; 29   : 
; 30   : 	switch( pov->nQueryMode )

  00047	8b 46 14	 mov	 eax, DWORD PTR [esi+20]
  0004a	c7 45 fc 00 00
	00 00		 mov	 DWORD PTR __$EHRec$[ebp+8], 0
  00051	83 f8 05	 cmp	 eax, 5
  00054	0f 87 c6 00 00
	00		 ja	 $LN2@Handler
  0005a	ff 24 85 00 00
	00 00		 jmp	 DWORD PTR $LN17@Handler[eax*4]
$LN4@Handler:
; File C:\IAGOS\server\v18\Source\Source\DatabaseServer\GuildHouseDBCtrl.h

; 47   : 	BOOL	LoadGuildHouse() { return GuildHouseMng->DBLoadGuildHouse( GetQueryObject() ); }

  00061	ff 77 0c	 push	 DWORD PTR [edi+12]
  00064	e8 00 00 00 00	 call	 ?GetInstance@CGuildHouseMng@@SAPAV1@XZ ; CGuildHouseMng::GetInstance
  00069	8b c8		 mov	 ecx, eax
  0006b	e8 00 00 00 00	 call	 ?DBLoadGuildHouse@CGuildHouseMng@@QAEHPAVCQuery@@@Z ; CGuildHouseMng::DBLoadGuildHouse
; File C:\IAGOS\server\v18\Source\Source\DatabaseServer\GuildHouseDBCtrl.cpp

; 33   : 			if( !LoadGuildHouse() )

  00070	85 c0		 test	 eax, eax
  00072	0f 85 a8 00 00
	00		 jne	 $LN2@Handler

; 34   : 				AfxMessageBox( "GuildHouse Load Failed!!!" );

  00078	50		 push	 eax
  00079	50		 push	 eax
  0007a	68 00 00 00 00	 push	 OFFSET ??_C@_0BK@ENBHGPOM@GuildHouse?5Load?5Failed?$CB?$CB?$CB@
  0007f	e8 00 00 00 00	 call	 ?AfxMessageBox@@YGHPBDII@Z ; AfxMessageBox

; 35   : 			break;

  00084	e9 97 00 00 00	 jmp	 $LN2@Handler
$LN6@Handler:

; 36   : 
; 37   : 		case GUILDHOUSE_SEND:
; 38   : 			SendGuildHouse( dwCompletionKey );

  00089	ff 75 0c	 push	 DWORD PTR _dwCompletionKey$[ebp]
  0008c	8b cf		 mov	 ecx, edi
  0008e	e8 00 00 00 00	 call	 ?SendGuildHouse@CGuildHouseDBCtrl@@AAEXK@Z ; CGuildHouseDBCtrl::SendGuildHouse

; 39   : #ifdef __GUILD_HOUSE_MIDDLE
; 40   : 			SendGuildHouseTenderInfo( dwCompletionKey );
; 41   : #endif // GUILDHOUSE_SEND
; 42   : 			break;

  00093	e9 88 00 00 00	 jmp	 $LN2@Handler
$LN7@Handler:

; 43   : 
; 44   : 		case GUILDHOUSE_CREATE:
; 45   : 			CreateGuildHouse( ar, dwCompletionKey );

  00098	ff 75 0c	 push	 DWORD PTR _dwCompletionKey$[ebp]
  0009b	8d 85 dc bf ff
	ff		 lea	 eax, DWORD PTR _ar$[ebp]
  000a1	8b cf		 mov	 ecx, edi
  000a3	50		 push	 eax
  000a4	e8 00 00 00 00	 call	 ?CreateGuildHouse@CGuildHouseDBCtrl@@AAEXAAVCAr@@K@Z ; CGuildHouseDBCtrl::CreateGuildHouse

; 46   : 			break;

  000a9	eb 75		 jmp	 SHORT $LN2@Handler
$LN8@Handler:

; 47   : 
; 48   : 		case GUILDHOUSE_REMOVE:
; 49   : 			RemoveGuildHouse( dwCompletionKey );

  000ab	ff 75 0c	 push	 DWORD PTR _dwCompletionKey$[ebp]
  000ae	8b cf		 mov	 ecx, edi
  000b0	e8 00 00 00 00	 call	 ?RemoveGuildHouse@CGuildHouseDBCtrl@@AAEXK@Z ; CGuildHouseDBCtrl::RemoveGuildHouse

; 50   : 			break;

  000b5	eb 69		 jmp	 SHORT $LN2@Handler
$LN9@Handler:

; 51   : 
; 52   : 		case GUILDHOUSE_DEFAULT_PACKET:
; 53   : 			RunDefaultPacket( ar, dwCompletionKey );

  000b7	ff 75 0c	 push	 DWORD PTR _dwCompletionKey$[ebp]
  000ba	8d 85 dc bf ff
	ff		 lea	 eax, DWORD PTR _ar$[ebp]
  000c0	8b cf		 mov	 ecx, edi
  000c2	50		 push	 eax
  000c3	e8 00 00 00 00	 call	 ?RunDefaultPacket@CGuildHouseDBCtrl@@AAEXAAVCAr@@K@Z ; CGuildHouseDBCtrl::RunDefaultPacket

; 54   : 			break;	

  000c8	eb 56		 jmp	 SHORT $LN2@Handler
$LN10@Handler:

; 55   : 
; 56   : 		case GUILDHOUSE_SAVE_RESTPOINT:
; 57   : 			DWORD dwPlayerId; int nRestPoint; time_t tLogOut;
; 58   : 			ar >> dwPlayerId >> nRestPoint >> tLogOut;

  000ca	8d 85 d8 bf ff
	ff		 lea	 eax, DWORD PTR _tLogOut$4[ebp]
  000d0	50		 push	 eax
  000d1	8d 85 d4 bf ff
	ff		 lea	 eax, DWORD PTR _nRestPoint$3[ebp]
  000d7	50		 push	 eax
  000d8	8d 85 d0 bf ff
	ff		 lea	 eax, DWORD PTR _dwPlayerId$2[ebp]
  000de	50		 push	 eax
  000df	8d 8d dc bf ff
	ff		 lea	 ecx, DWORD PTR _ar$[ebp]
  000e5	e8 00 00 00 00	 call	 ??$?5K@CAr@@QAEAAV0@AAK@Z ; CAr::operator>><unsigned long>
  000ea	8b c8		 mov	 ecx, eax
  000ec	e8 00 00 00 00	 call	 ??$?5H@CAr@@QAEAAV0@AAH@Z ; CAr::operator>><int>
  000f1	8b c8		 mov	 ecx, eax
  000f3	e8 00 00 00 00	 call	 ??$?5J@CAr@@QAEAAV0@AAJ@Z ; CAr::operator>><long>

; 59   : 			GetQueryObject()->Execute( "usp_RestPoint_Update '%02d', '%07d', %d, %d", g_appInfo.dwSys, dwPlayerId, nRestPoint, tLogOut );

  000f8	ff b5 d8 bf ff
	ff		 push	 DWORD PTR _tLogOut$4[ebp]
  000fe	ff b5 d4 bf ff
	ff		 push	 DWORD PTR _nRestPoint$3[ebp]
  00104	ff b5 d0 bf ff
	ff		 push	 DWORD PTR _dwPlayerId$2[ebp]
  0010a	ff 35 00 00 00
	00		 push	 DWORD PTR ?g_appInfo@@3UAppInfo@@A
  00110	68 00 00 00 00	 push	 OFFSET ??_C@_0CM@BEGNDHN@usp_RestPoint_Update?5?8?$CF02d?8?0?5?8?$CF@
  00115	ff 77 0c	 push	 DWORD PTR [edi+12]
  00118	e8 00 00 00 00	 call	 ?Execute@CQuery@@QAAHPBDZZ ; CQuery::Execute
  0011d	83 c4 18	 add	 esp, 24			; 00000018H
$LN2@Handler:

; 60   : 			break;
; 61   : 
; 62   : #ifdef __GUILD_HOUSE_MIDDLE
; 63   : 		case GUILDHOUSE_TENDER_JOIN:
; 64   : 			{
; 65   : 				JoinGuildHouseTender( ar, dwCompletionKey );
; 66   : 			}
; 67   : 			break;
; 68   : 
; 69   : 		case GUILDHOUSE_GRADE_UPDATE:
; 70   : 			{
; 71   : 				UpgradeGuildHouseGrade( ar, dwCompletionKey );
; 72   : 			}
; 73   : 			break;
; 74   : 
; 75   : 		case GUILDHOUSE_LEVEL_UPDATE:
; 76   : 			{
; 77   : 				UpgradeGuildHouseLevel( ar, dwCompletionKey );
; 78   : 			}
; 79   : 			break;
; 80   : 		case GUILDHOUSE_EXPIRED:
; 81   : 			{
; 82   : 				UpdateGuildHouseExpired( ar );
; 83   : 			}
; 84   : 			break;
; 85   : #endif // __GUILD_HOUSE_MIDDLE
; 86   : 	}
; 87   : }

  00120	8d 8d dc bf ff
	ff		 lea	 ecx, DWORD PTR _ar$[ebp]
  00126	e8 00 00 00 00	 call	 ??1CAr@@QAE@XZ		; CAr::~CAr
  0012b	8b 4d f4	 mov	 ecx, DWORD PTR __$EHRec$[ebp]
  0012e	64 89 0d 00 00
	00 00		 mov	 DWORD PTR fs:0, ecx
  00135	59		 pop	 ecx
  00136	5f		 pop	 edi
  00137	5e		 pop	 esi
  00138	8b 4d f0	 mov	 ecx, DWORD PTR __$ArrayPad$[ebp]
  0013b	33 cd		 xor	 ecx, ebp
  0013d	e8 00 00 00 00	 call	 @__security_check_cookie@4
  00142	8b e5		 mov	 esp, ebp
  00144	5d		 pop	 ebp
  00145	c2 08 00	 ret	 8
$LN17@Handler:
  00148	00 00 00 00	 DD	 $LN4@Handler
  0014c	00 00 00 00	 DD	 $LN6@Handler
  00150	00 00 00 00	 DD	 $LN7@Handler
  00154	00 00 00 00	 DD	 $LN8@Handler
  00158	00 00 00 00	 DD	 $LN9@Handler
  0015c	00 00 00 00	 DD	 $LN10@Handler
_TEXT	ENDS
;	COMDAT text$x
text$x	SEGMENT
__unwindfunclet$?Handler@CGuildHouseDBCtrl@@UAEXPAUtagDB_OVERLAPPED_PLUS@@K@Z$0:
  00000	8d 8d dc bf ff
	ff		 lea	 ecx, DWORD PTR _ar$[ebp]
  00006	e9 00 00 00 00	 jmp	 ??1CAr@@QAE@XZ		; CAr::~CAr
  0000b	cc		 int	 3
  0000c	cc		 int	 3
  0000d	cc		 int	 3
  0000e	cc		 int	 3
  0000f	cc		 int	 3
__ehhandler$?Handler@CGuildHouseDBCtrl@@UAEXPAUtagDB_OVERLAPPED_PLUS@@K@Z:
  00010	90		 npad	 1
  00011	90		 npad	 1
  00012	8b 54 24 08	 mov	 edx, DWORD PTR [esp+8]
  00016	8d 42 0c	 lea	 eax, DWORD PTR [edx+12]
  00019	8b 8a d0 bf ff
	ff		 mov	 ecx, DWORD PTR [edx-16432]
  0001f	33 c8		 xor	 ecx, eax
  00021	e8 00 00 00 00	 call	 @__security_check_cookie@4
  00026	8b 4a fc	 mov	 ecx, DWORD PTR [edx-4]
  00029	33 c8		 xor	 ecx, eax
  0002b	e8 00 00 00 00	 call	 @__security_check_cookie@4
  00030	b8 00 00 00 00	 mov	 eax, OFFSET __ehfuncinfo$?Handler@CGuildHouseDBCtrl@@UAEXPAUtagDB_OVERLAPPED_PLUS@@K@Z
  00035	e9 00 00 00 00	 jmp	 ___CxxFrameHandler3
text$x	ENDS
?Handler@CGuildHouseDBCtrl@@UAEXPAUtagDB_OVERLAPPED_PLUS@@K@Z ENDP ; CGuildHouseDBCtrl::Handler
; Function compile flags: /Ogtp
; File C:\IAGOS\server\v18\Source\Source\DatabaseServer\GuildHouseDBCtrl.cpp
;	COMDAT ??1CGuildHouseDBCtrl@@UAE@XZ
_TEXT	SEGMENT
??1CGuildHouseDBCtrl@@UAE@XZ PROC			; CGuildHouseDBCtrl::~CGuildHouseDBCtrl, COMDAT
; _this$ = ecx

; 22   : {

  00000	c7 01 00 00 00
	00		 mov	 DWORD PTR [ecx], OFFSET ??_7CGuildHouseDBCtrl@@6B@

; 23   : 
; 24   : }

  00006	e9 00 00 00 00	 jmp	 ??1CDbController@@UAE@XZ ; CDbController::~CDbController
??1CGuildHouseDBCtrl@@UAE@XZ ENDP			; CGuildHouseDBCtrl::~CGuildHouseDBCtrl
_TEXT	ENDS
; Function compile flags: /Ogtp
; File C:\IAGOS\server\v18\Source\Source\DatabaseServer\GuildHouseDBCtrl.cpp
;	COMDAT ??0CGuildHouseDBCtrl@@QAE@XZ
_TEXT	SEGMENT
_this$ = -4						; size = 4
??0CGuildHouseDBCtrl@@QAE@XZ PROC			; CGuildHouseDBCtrl::CGuildHouseDBCtrl, COMDAT
; _this$ = ecx

; 17   : {

  00000	55		 push	 ebp
  00001	8b ec		 mov	 ebp, esp
  00003	51		 push	 ecx
  00004	56		 push	 esi
  00005	8b f1		 mov	 esi, ecx
  00007	89 75 fc	 mov	 DWORD PTR _this$[ebp], esi
  0000a	e8 00 00 00 00	 call	 ??0CDbController@@QAE@XZ ; CDbController::CDbController
  0000f	c7 06 00 00 00
	00		 mov	 DWORD PTR [esi], OFFSET ??_7CGuildHouseDBCtrl@@6B@

; 18   : 
; 19   : }

  00015	8b c6		 mov	 eax, esi
  00017	5e		 pop	 esi
  00018	8b e5		 mov	 esp, ebp
  0001a	5d		 pop	 ebp
  0001b	c3		 ret	 0
??0CGuildHouseDBCtrl@@QAE@XZ ENDP			; CGuildHouseDBCtrl::CGuildHouseDBCtrl
_TEXT	ENDS
; Function compile flags: /Ogtp
; File C:\Program Files\Microsoft Visual Studio\2022\Professional\VC\Tools\MSVC\14.44.35207\include\xtree
;	COMDAT ?_Insert_node@?$_Tree_val@U?$_Tree_simple_types@U?$pair@$$CBKPAVCGuildHouseBase@@@std@@@std@@@std@@QAEPAU?$_Tree_node@U?$pair@$$CBKPAVCGuildHouseBase@@@std@@PAX@2@U?$_Tree_id@PAU?$_Tree_node@U?$pair@$$CBKPAVCGuildHouseBase@@@std@@PAX@std@@@2@QAU32@@Z
_TEXT	SEGMENT
__Head$1$ = -4						; size = 4
__Loc$ = 8						; size = 8
__Newnode$ = 16						; size = 4
?_Insert_node@?$_Tree_val@U?$_Tree_simple_types@U?$pair@$$CBKPAVCGuildHouseBase@@@std@@@std@@@std@@QAEPAU?$_Tree_node@U?$pair@$$CBKPAVCGuildHouseBase@@@std@@PAX@2@U?$_Tree_id@PAU?$_Tree_node@U?$pair@$$CBKPAVCGuildHouseBase@@@std@@PAX@std@@@2@QAU32@@Z PROC ; std::_Tree_val<std::_Tree_simple_types<std::pair<unsigned long const ,CGuildHouseBase *> > >::_Insert_node, COMDAT
; _this$ = ecx

; 669  :     _Nodeptr _Insert_node(const _Tree_id<_Nodeptr> _Loc, const _Nodeptr _Newnode) noexcept {

  00000	55		 push	 ebp
  00001	8b ec		 mov	 ebp, esp
  00003	51		 push	 ecx

; 670  :         ++_Mysize;
; 671  :         const auto _Head  = _Myhead;
; 672  :         _Newnode->_Parent = _Loc._Parent;

  00004	8b 55 08	 mov	 edx, DWORD PTR __Loc$[ebp]
  00007	53		 push	 ebx
  00008	8b d9		 mov	 ebx, ecx
  0000a	57		 push	 edi
  0000b	8b 7d 10	 mov	 edi, DWORD PTR __Newnode$[ebp]
  0000e	8b 03		 mov	 eax, DWORD PTR [ebx]
  00010	ff 43 04	 inc	 DWORD PTR [ebx+4]
  00013	89 45 fc	 mov	 DWORD PTR __Head$1$[ebp], eax
  00016	89 57 04	 mov	 DWORD PTR [edi+4], edx

; 673  :         if (_Loc._Parent == _Head) { // first node in tree, just set head values

  00019	3b d0		 cmp	 edx, eax
  0001b	75 16		 jne	 SHORT $LN5@Insert_nod

; 674  :             _Head->_Left     = _Newnode;

  0001d	89 38		 mov	 DWORD PTR [eax], edi

; 675  :             _Head->_Parent   = _Newnode;

  0001f	89 78 04	 mov	 DWORD PTR [eax+4], edi

; 676  :             _Head->_Right    = _Newnode;

  00022	89 78 08	 mov	 DWORD PTR [eax+8], edi

; 735  :         return _Newnode;
; 736  :     }

  00025	8b c7		 mov	 eax, edi
  00027	c6 47 0c 01	 mov	 BYTE PTR [edi+12], 1
  0002b	5f		 pop	 edi
  0002c	5b		 pop	 ebx
  0002d	8b e5		 mov	 esp, ebp
  0002f	5d		 pop	 ebp
  00030	c2 0c 00	 ret	 12			; 0000000cH
$LN5@Insert_nod:

; 677  :             _Newnode->_Color = _Black; // the root is black
; 678  :             return _Newnode;
; 679  :         }
; 680  : 
; 681  :         _STL_INTERNAL_CHECK(_Loc._Child != _Tree_child::_Unused);
; 682  :         if (_Loc._Child == _Tree_child::_Right) { // add to right of _Loc._Parent

  00033	83 7d 0c 00	 cmp	 DWORD PTR __Loc$[ebp+4], 0
  00037	75 0d		 jne	 SHORT $LN6@Insert_nod

; 683  :             _STL_INTERNAL_CHECK(_Loc._Parent->_Right->_Isnil);
; 684  :             _Loc._Parent->_Right = _Newnode;

  00039	89 7a 08	 mov	 DWORD PTR [edx+8], edi

; 685  :             if (_Loc._Parent == _Head->_Right) { // remember rightmost node

  0003c	3b 50 08	 cmp	 edx, DWORD PTR [eax+8]
  0003f	75 0d		 jne	 SHORT $LN9@Insert_nod

; 686  :                 _Head->_Right = _Newnode;

  00041	89 78 08	 mov	 DWORD PTR [eax+8], edi

; 687  :             }
; 688  :         } else { // add to left of _Loc._Parent

  00044	eb 08		 jmp	 SHORT $LN9@Insert_nod
$LN6@Insert_nod:

; 689  :             _STL_INTERNAL_CHECK(_Loc._Parent->_Left->_Isnil);
; 690  :             _Loc._Parent->_Left = _Newnode;

  00046	89 3a		 mov	 DWORD PTR [edx], edi

; 691  :             if (_Loc._Parent == _Head->_Left) { // remember leftmost node

  00048	3b 10		 cmp	 edx, DWORD PTR [eax]
  0004a	75 02		 jne	 SHORT $LN9@Insert_nod

; 692  :                 _Head->_Left = _Newnode;

  0004c	89 38		 mov	 DWORD PTR [eax], edi
$LN9@Insert_nod:

; 693  :             }
; 694  :         }
; 695  : 
; 696  :         for (_Nodeptr _Pnode = _Newnode; _Pnode->_Parent->_Color == _Red;) {

  0004e	8b 4f 04	 mov	 ecx, DWORD PTR [edi+4]
  00051	8b c7		 mov	 eax, edi
  00053	80 79 0c 00	 cmp	 BYTE PTR [ecx+12], 0
  00057	0f 85 7d 01 00
	00		 jne	 $LN3@Insert_nod
  0005d	56		 push	 esi
  0005e	66 90		 npad	 2
$LL4@Insert_nod:

; 697  :             if (_Pnode->_Parent == _Pnode->_Parent->_Parent->_Left) { // fixup red-red in left subtree

  00060	8b 50 04	 mov	 edx, DWORD PTR [eax+4]
  00063	8b 72 04	 mov	 esi, DWORD PTR [edx+4]
  00066	8b 0e		 mov	 ecx, DWORD PTR [esi]
  00068	3b d1		 cmp	 edx, ecx
  0006a	0f 85 aa 00 00
	00		 jne	 $LN10@Insert_nod

; 698  :                 const auto _Parent_sibling = _Pnode->_Parent->_Parent->_Right;

  00070	8b 4e 08	 mov	 ecx, DWORD PTR [esi+8]

; 699  :                 if (_Parent_sibling->_Color == _Red) { // parent's sibling has two red children, blacken both

  00073	80 79 0c 00	 cmp	 BYTE PTR [ecx+12], 0
  00077	0f 84 a3 00 00
	00		 je	 $LN82@Insert_nod

; 700  :                     _Pnode->_Parent->_Color          = _Black;
; 701  :                     _Parent_sibling->_Color          = _Black;
; 702  :                     _Pnode->_Parent->_Parent->_Color = _Red;
; 703  :                     _Pnode                           = _Pnode->_Parent->_Parent;
; 704  :                 } else { // parent's sibling has red and black children
; 705  :                     if (_Pnode == _Pnode->_Parent->_Right) { // rotate right child to left

  0007d	8b 72 08	 mov	 esi, DWORD PTR [edx+8]
  00080	3b c6		 cmp	 eax, esi
  00082	75 37		 jne	 SHORT $LN57@Insert_nod

; 485  :         _Wherenode->_Right = _Pnode->_Left;

  00084	8b 0e		 mov	 ecx, DWORD PTR [esi]

; 706  :                         _Pnode = _Pnode->_Parent;

  00086	8b c2		 mov	 eax, edx

; 485  :         _Wherenode->_Right = _Pnode->_Left;

  00088	89 4a 08	 mov	 DWORD PTR [edx+8], ecx

; 486  : 
; 487  :         if (!_Pnode->_Left->_Isnil) {

  0008b	8b 0e		 mov	 ecx, DWORD PTR [esi]
  0008d	80 79 0d 00	 cmp	 BYTE PTR [ecx+13], 0
  00091	75 03		 jne	 SHORT $LN21@Insert_nod

; 488  :             _Pnode->_Left->_Parent = _Wherenode;

  00093	89 41 04	 mov	 DWORD PTR [ecx+4], eax
$LN21@Insert_nod:

; 489  :         }
; 490  : 
; 491  :         _Pnode->_Parent = _Wherenode->_Parent;

  00096	8b 4a 04	 mov	 ecx, DWORD PTR [edx+4]
  00099	89 4e 04	 mov	 DWORD PTR [esi+4], ecx

; 492  : 
; 493  :         if (_Wherenode == _Myhead->_Parent) {

  0009c	8b 0b		 mov	 ecx, DWORD PTR [ebx]
  0009e	3b 41 04	 cmp	 eax, DWORD PTR [ecx+4]
  000a1	75 05		 jne	 SHORT $LN22@Insert_nod

; 494  :             _Myhead->_Parent = _Pnode;

  000a3	89 71 04	 mov	 DWORD PTR [ecx+4], esi
  000a6	eb 0e		 jmp	 SHORT $LN25@Insert_nod
$LN22@Insert_nod:

; 495  :         } else if (_Wherenode == _Wherenode->_Parent->_Left) {

  000a8	8b 4a 04	 mov	 ecx, DWORD PTR [edx+4]
  000ab	3b 01		 cmp	 eax, DWORD PTR [ecx]
  000ad	75 04		 jne	 SHORT $LN24@Insert_nod

; 496  :             _Wherenode->_Parent->_Left = _Pnode;

  000af	89 31		 mov	 DWORD PTR [ecx], esi

; 497  :         } else {

  000b1	eb 03		 jmp	 SHORT $LN25@Insert_nod
$LN24@Insert_nod:

; 498  :             _Wherenode->_Parent->_Right = _Pnode;

  000b3	89 71 08	 mov	 DWORD PTR [ecx+8], esi
$LN25@Insert_nod:

; 499  :         }
; 500  : 
; 501  :         _Pnode->_Left       = _Wherenode;

  000b6	89 06		 mov	 DWORD PTR [esi], eax

; 502  :         _Wherenode->_Parent = _Pnode;

  000b8	89 70 04	 mov	 DWORD PTR [eax+4], esi
$LN57@Insert_nod:

; 707  :                         _Lrotate(_Pnode);
; 708  :                     }
; 709  : 
; 710  :                     _Pnode->_Parent->_Color          = _Black; // propagate red up

  000bb	8b 48 04	 mov	 ecx, DWORD PTR [eax+4]
  000be	c6 41 0c 01	 mov	 BYTE PTR [ecx+12], 1

; 711  :                     _Pnode->_Parent->_Parent->_Color = _Red;

  000c2	8b 48 04	 mov	 ecx, DWORD PTR [eax+4]
  000c5	8b 49 04	 mov	 ecx, DWORD PTR [ecx+4]
  000c8	c6 41 0c 00	 mov	 BYTE PTR [ecx+12], 0

; 712  :                     _Rrotate(_Pnode->_Parent->_Parent);

  000cc	8b 48 04	 mov	 ecx, DWORD PTR [eax+4]
  000cf	8b 51 04	 mov	 edx, DWORD PTR [ecx+4]

; 506  :         _Nodeptr _Pnode   = _Wherenode->_Left;

  000d2	8b 32		 mov	 esi, DWORD PTR [edx]

; 507  :         _Wherenode->_Left = _Pnode->_Right;

  000d4	8b 4e 08	 mov	 ecx, DWORD PTR [esi+8]
  000d7	89 0a		 mov	 DWORD PTR [edx], ecx

; 508  : 
; 509  :         if (!_Pnode->_Right->_Isnil) {

  000d9	8b 4e 08	 mov	 ecx, DWORD PTR [esi+8]
  000dc	80 79 0d 00	 cmp	 BYTE PTR [ecx+13], 0
  000e0	75 03		 jne	 SHORT $LN29@Insert_nod

; 510  :             _Pnode->_Right->_Parent = _Wherenode;

  000e2	89 51 04	 mov	 DWORD PTR [ecx+4], edx
$LN29@Insert_nod:

; 511  :         }
; 512  : 
; 513  :         _Pnode->_Parent = _Wherenode->_Parent;

  000e5	8b 4a 04	 mov	 ecx, DWORD PTR [edx+4]
  000e8	89 4e 04	 mov	 DWORD PTR [esi+4], ecx

; 514  : 
; 515  :         if (_Wherenode == _Myhead->_Parent) {

  000eb	8b 0b		 mov	 ecx, DWORD PTR [ebx]
  000ed	3b 51 04	 cmp	 edx, DWORD PTR [ecx+4]
  000f0	75 0b		 jne	 SHORT $LN30@Insert_nod

; 516  :             _Myhead->_Parent = _Pnode;

  000f2	89 71 04	 mov	 DWORD PTR [ecx+4], esi

; 521  :         }
; 522  : 
; 523  :         _Pnode->_Right      = _Wherenode;

  000f5	89 56 08	 mov	 DWORD PTR [esi+8], edx

; 713  :                 }
; 714  :             } else { // fixup red-red in right subtree

  000f8	e9 cc 00 00 00	 jmp	 $LN81@Insert_nod
$LN30@Insert_nod:

; 517  :         } else if (_Wherenode == _Wherenode->_Parent->_Right) {

  000fd	8b 4a 04	 mov	 ecx, DWORD PTR [edx+4]
  00100	3b 51 08	 cmp	 edx, DWORD PTR [ecx+8]
  00103	75 0b		 jne	 SHORT $LN32@Insert_nod

; 518  :             _Wherenode->_Parent->_Right = _Pnode;

  00105	89 71 08	 mov	 DWORD PTR [ecx+8], esi

; 521  :         }
; 522  : 
; 523  :         _Pnode->_Right      = _Wherenode;

  00108	89 56 08	 mov	 DWORD PTR [esi+8], edx

; 713  :                 }
; 714  :             } else { // fixup red-red in right subtree

  0010b	e9 b9 00 00 00	 jmp	 $LN81@Insert_nod
$LN32@Insert_nod:

; 520  :             _Wherenode->_Parent->_Left = _Pnode;

  00110	89 31		 mov	 DWORD PTR [ecx], esi

; 521  :         }
; 522  : 
; 523  :         _Pnode->_Right      = _Wherenode;

  00112	89 56 08	 mov	 DWORD PTR [esi+8], edx

; 713  :                 }
; 714  :             } else { // fixup red-red in right subtree

  00115	e9 af 00 00 00	 jmp	 $LN81@Insert_nod
$LN10@Insert_nod:

; 715  :                 const auto _Parent_sibling = _Pnode->_Parent->_Parent->_Left;
; 716  :                 if (_Parent_sibling->_Color == _Red) { // parent's sibling has two red children, blacken both

  0011a	80 79 0c 00	 cmp	 BYTE PTR [ecx+12], 0
  0011e	75 1d		 jne	 SHORT $LN15@Insert_nod
$LN82@Insert_nod:

; 693  :             }
; 694  :         }
; 695  : 
; 696  :         for (_Nodeptr _Pnode = _Newnode; _Pnode->_Parent->_Color == _Red;) {

  00120	c6 42 0c 01	 mov	 BYTE PTR [edx+12], 1
  00124	c6 41 0c 01	 mov	 BYTE PTR [ecx+12], 1
  00128	8b 48 04	 mov	 ecx, DWORD PTR [eax+4]
  0012b	8b 49 04	 mov	 ecx, DWORD PTR [ecx+4]
  0012e	c6 41 0c 00	 mov	 BYTE PTR [ecx+12], 0
  00132	8b 48 04	 mov	 ecx, DWORD PTR [eax+4]
  00135	8b 41 04	 mov	 eax, DWORD PTR [ecx+4]
  00138	e9 8f 00 00 00	 jmp	 $LN2@Insert_nod
$LN15@Insert_nod:

; 717  :                     _Pnode->_Parent->_Color          = _Black;
; 718  :                     _Parent_sibling->_Color          = _Black;
; 719  :                     _Pnode->_Parent->_Parent->_Color = _Red;
; 720  :                     _Pnode                           = _Pnode->_Parent->_Parent;
; 721  :                 } else { // parent's sibling has red and black children
; 722  :                     if (_Pnode == _Pnode->_Parent->_Left) { // rotate left child to right

  0013d	8b 32		 mov	 esi, DWORD PTR [edx]
  0013f	3b c6		 cmp	 eax, esi
  00141	75 3a		 jne	 SHORT $LN42@Insert_nod

; 507  :         _Wherenode->_Left = _Pnode->_Right;

  00143	8b 4e 08	 mov	 ecx, DWORD PTR [esi+8]

; 723  :                         _Pnode = _Pnode->_Parent;

  00146	8b c2		 mov	 eax, edx

; 507  :         _Wherenode->_Left = _Pnode->_Right;

  00148	89 08		 mov	 DWORD PTR [eax], ecx

; 508  : 
; 509  :         if (!_Pnode->_Right->_Isnil) {

  0014a	8b 4e 08	 mov	 ecx, DWORD PTR [esi+8]
  0014d	80 79 0d 00	 cmp	 BYTE PTR [ecx+13], 0
  00151	75 03		 jne	 SHORT $LN37@Insert_nod

; 510  :             _Pnode->_Right->_Parent = _Wherenode;

  00153	89 41 04	 mov	 DWORD PTR [ecx+4], eax
$LN37@Insert_nod:

; 511  :         }
; 512  : 
; 513  :         _Pnode->_Parent = _Wherenode->_Parent;

  00156	8b 4a 04	 mov	 ecx, DWORD PTR [edx+4]
  00159	89 4e 04	 mov	 DWORD PTR [esi+4], ecx

; 514  : 
; 515  :         if (_Wherenode == _Myhead->_Parent) {

  0015c	8b 0b		 mov	 ecx, DWORD PTR [ebx]
  0015e	3b 41 04	 cmp	 eax, DWORD PTR [ecx+4]
  00161	75 05		 jne	 SHORT $LN38@Insert_nod

; 516  :             _Myhead->_Parent = _Pnode;

  00163	89 71 04	 mov	 DWORD PTR [ecx+4], esi
  00166	eb 0f		 jmp	 SHORT $LN41@Insert_nod
$LN38@Insert_nod:

; 517  :         } else if (_Wherenode == _Wherenode->_Parent->_Right) {

  00168	8b 4a 04	 mov	 ecx, DWORD PTR [edx+4]
  0016b	3b 41 08	 cmp	 eax, DWORD PTR [ecx+8]
  0016e	75 05		 jne	 SHORT $LN40@Insert_nod

; 518  :             _Wherenode->_Parent->_Right = _Pnode;

  00170	89 71 08	 mov	 DWORD PTR [ecx+8], esi

; 519  :         } else {

  00173	eb 02		 jmp	 SHORT $LN41@Insert_nod
$LN40@Insert_nod:

; 520  :             _Wherenode->_Parent->_Left = _Pnode;

  00175	89 31		 mov	 DWORD PTR [ecx], esi
$LN41@Insert_nod:

; 521  :         }
; 522  : 
; 523  :         _Pnode->_Right      = _Wherenode;

  00177	89 46 08	 mov	 DWORD PTR [esi+8], eax

; 524  :         _Wherenode->_Parent = _Pnode;

  0017a	89 70 04	 mov	 DWORD PTR [eax+4], esi
$LN42@Insert_nod:

; 724  :                         _Rrotate(_Pnode);
; 725  :                     }
; 726  : 
; 727  :                     _Pnode->_Parent->_Color          = _Black; // propagate red up

  0017d	8b 48 04	 mov	 ecx, DWORD PTR [eax+4]
  00180	c6 41 0c 01	 mov	 BYTE PTR [ecx+12], 1

; 728  :                     _Pnode->_Parent->_Parent->_Color = _Red;

  00184	8b 48 04	 mov	 ecx, DWORD PTR [eax+4]
  00187	8b 49 04	 mov	 ecx, DWORD PTR [ecx+4]
  0018a	c6 41 0c 00	 mov	 BYTE PTR [ecx+12], 0

; 729  :                     _Lrotate(_Pnode->_Parent->_Parent);

  0018e	8b 48 04	 mov	 ecx, DWORD PTR [eax+4]
  00191	8b 51 04	 mov	 edx, DWORD PTR [ecx+4]

; 484  :         _Nodeptr _Pnode    = _Wherenode->_Right;

  00194	8b 72 08	 mov	 esi, DWORD PTR [edx+8]

; 485  :         _Wherenode->_Right = _Pnode->_Left;

  00197	8b 0e		 mov	 ecx, DWORD PTR [esi]
  00199	89 4a 08	 mov	 DWORD PTR [edx+8], ecx

; 486  : 
; 487  :         if (!_Pnode->_Left->_Isnil) {

  0019c	8b 0e		 mov	 ecx, DWORD PTR [esi]
  0019e	80 79 0d 00	 cmp	 BYTE PTR [ecx+13], 0
  001a2	75 03		 jne	 SHORT $LN45@Insert_nod

; 488  :             _Pnode->_Left->_Parent = _Wherenode;

  001a4	89 51 04	 mov	 DWORD PTR [ecx+4], edx
$LN45@Insert_nod:

; 489  :         }
; 490  : 
; 491  :         _Pnode->_Parent = _Wherenode->_Parent;

  001a7	8b 4a 04	 mov	 ecx, DWORD PTR [edx+4]
  001aa	89 4e 04	 mov	 DWORD PTR [esi+4], ecx

; 492  : 
; 493  :         if (_Wherenode == _Myhead->_Parent) {

  001ad	8b 0b		 mov	 ecx, DWORD PTR [ebx]
  001af	3b 51 04	 cmp	 edx, DWORD PTR [ecx+4]
  001b2	75 05		 jne	 SHORT $LN46@Insert_nod

; 494  :             _Myhead->_Parent = _Pnode;

  001b4	89 71 04	 mov	 DWORD PTR [ecx+4], esi
  001b7	eb 0e		 jmp	 SHORT $LN49@Insert_nod
$LN46@Insert_nod:

; 495  :         } else if (_Wherenode == _Wherenode->_Parent->_Left) {

  001b9	8b 4a 04	 mov	 ecx, DWORD PTR [edx+4]
  001bc	3b 11		 cmp	 edx, DWORD PTR [ecx]
  001be	75 04		 jne	 SHORT $LN48@Insert_nod

; 496  :             _Wherenode->_Parent->_Left = _Pnode;

  001c0	89 31		 mov	 DWORD PTR [ecx], esi

; 497  :         } else {

  001c2	eb 03		 jmp	 SHORT $LN49@Insert_nod
$LN48@Insert_nod:

; 498  :             _Wherenode->_Parent->_Right = _Pnode;

  001c4	89 71 08	 mov	 DWORD PTR [ecx+8], esi
$LN49@Insert_nod:

; 499  :         }
; 500  : 
; 501  :         _Pnode->_Left       = _Wherenode;

  001c7	89 16		 mov	 DWORD PTR [esi], edx
$LN81@Insert_nod:

; 693  :             }
; 694  :         }
; 695  : 
; 696  :         for (_Nodeptr _Pnode = _Newnode; _Pnode->_Parent->_Color == _Red;) {

  001c9	89 72 04	 mov	 DWORD PTR [edx+4], esi
$LN2@Insert_nod:
  001cc	8b 48 04	 mov	 ecx, DWORD PTR [eax+4]
  001cf	80 79 0c 00	 cmp	 BYTE PTR [ecx+12], 0
  001d3	0f 84 87 fe ff
	ff		 je	 $LL4@Insert_nod
  001d9	5e		 pop	 esi
$LN3@Insert_nod:

; 730  :                 }
; 731  :             }
; 732  :         }
; 733  : 
; 734  :         _Head->_Parent->_Color = _Black; // root is always black

  001da	8b 45 fc	 mov	 eax, DWORD PTR __Head$1$[ebp]
  001dd	8b 40 04	 mov	 eax, DWORD PTR [eax+4]
  001e0	c6 40 0c 01	 mov	 BYTE PTR [eax+12], 1

; 735  :         return _Newnode;
; 736  :     }

  001e4	8b c7		 mov	 eax, edi
  001e6	5f		 pop	 edi
  001e7	5b		 pop	 ebx
  001e8	8b e5		 mov	 esp, ebp
  001ea	5d		 pop	 ebp
  001eb	c2 0c 00	 ret	 12			; 0000000cH
?_Insert_node@?$_Tree_val@U?$_Tree_simple_types@U?$pair@$$CBKPAVCGuildHouseBase@@@std@@@std@@@std@@QAEPAU?$_Tree_node@U?$pair@$$CBKPAVCGuildHouseBase@@@std@@PAX@2@U?$_Tree_id@PAU?$_Tree_node@U?$pair@$$CBKPAVCGuildHouseBase@@@std@@PAX@std@@@2@QAU32@@Z ENDP ; std::_Tree_val<std::_Tree_simple_types<std::pair<unsigned long const ,CGuildHouseBase *> > >::_Insert_node
_TEXT	ENDS
; Function compile flags: /Ogtp
; File C:\IAGOS\server\v18\Source\Source\_Common\GuildHouse.h
; File C:\Program Files\Microsoft Visual Studio\2022\Professional\VC\Tools\MSVC\14.44.35207\include\vector
; File C:\IAGOS\server\v18\Source\Source\_Common\GuildHouse.h
; File C:\Program Files\Microsoft Visual Studio\2022\Professional\VC\Tools\MSVC\14.44.35207\include\vector
; File C:\IAGOS\server\v18\Source\Source\_Common\GuildHouse.h
; File C:\Program Files\Microsoft Visual Studio\2022\Professional\VC\Tools\MSVC\14.44.35207\include\vector
; File C:\IAGOS\server\v18\Source\Source\_Common\GuildHouse.h
; File C:\Program Files\Microsoft Visual Studio\2022\Professional\VC\Tools\MSVC\14.44.35207\include\vector
; File C:\IAGOS\server\v18\Source\Source\_Common\GuildHouse.h
; File C:\IAGOS\server\v18\Source\Source\DX_SDK\d3dx9math.inl
; File C:\IAGOS\server\v18\Source\Source\_Common\GuildHouse.h
;	COMDAT ?GetFurnitureInfo@CGuildHouseBase@@QAE?AUGuildHouse_Furniture_Info@1@H@Z
_TEXT	SEGMENT
$T1 = -52						; size = 12
$T2 = -40						; size = 36
$T3 = -40						; size = 36
__$ArrayPad$ = -4					; size = 4
___$ReturnUdt$ = 8					; size = 4
_nIndex$ = 12						; size = 4
?GetFurnitureInfo@CGuildHouseBase@@QAE?AUGuildHouse_Furniture_Info@1@H@Z PROC ; CGuildHouseBase::GetFurnitureInfo, COMDAT
; _this$ = ecx

; 101  : 	GuildHouse_Furniture_Info GetFurnitureInfo( int nIndex ) { return nIndex < (int)( m_vecFntInfo.size() ) ? m_vecFntInfo[nIndex] : GuildHouse_Furniture_Info(); }

  00000	55		 push	 ebp
  00001	8b ec		 mov	 ebp, esp
  00003	83 ec 34	 sub	 esp, 52			; 00000034H
  00006	a1 00 00 00 00	 mov	 eax, DWORD PTR ___security_cookie
  0000b	33 c5		 xor	 eax, ebp
  0000d	89 45 fc	 mov	 DWORD PTR __$ArrayPad$[ebp], eax
  00010	56		 push	 esi
  00011	8b 75 08	 mov	 esi, DWORD PTR ___$ReturnUdt$[ebp]
; File C:\Program Files\Microsoft Visual Studio\2022\Professional\VC\Tools\MSVC\14.44.35207\include\vector

; 1915 :         return static_cast<size_type>(_My_data._Mylast - _My_data._Myfirst);

  00014	b8 39 8e e3 38	 mov	 eax, 954437177		; 38e38e39H
; File C:\IAGOS\server\v18\Source\Source\_Common\GuildHouse.h

; 101  : 	GuildHouse_Furniture_Info GetFurnitureInfo( int nIndex ) { return nIndex < (int)( m_vecFntInfo.size() ) ? m_vecFntInfo[nIndex] : GuildHouse_Furniture_Info(); }

  00019	57		 push	 edi
; File C:\Program Files\Microsoft Visual Studio\2022\Professional\VC\Tools\MSVC\14.44.35207\include\vector

; 1915 :         return static_cast<size_type>(_My_data._Mylast - _My_data._Myfirst);

  0001a	8b 79 0c	 mov	 edi, DWORD PTR [ecx+12]
  0001d	8b 49 10	 mov	 ecx, DWORD PTR [ecx+16]
  00020	2b cf		 sub	 ecx, edi
  00022	f7 e9		 imul	 ecx
; File C:\IAGOS\server\v18\Source\Source\_Common\GuildHouse.h

; 101  : 	GuildHouse_Furniture_Info GetFurnitureInfo( int nIndex ) { return nIndex < (int)( m_vecFntInfo.size() ) ? m_vecFntInfo[nIndex] : GuildHouse_Furniture_Info(); }

  00024	8b 4d 0c	 mov	 ecx, DWORD PTR _nIndex$[ebp]
; File C:\Program Files\Microsoft Visual Studio\2022\Professional\VC\Tools\MSVC\14.44.35207\include\vector

; 1915 :         return static_cast<size_type>(_My_data._Mylast - _My_data._Myfirst);

  00027	c1 fa 03	 sar	 edx, 3
  0002a	8b c2		 mov	 eax, edx
  0002c	c1 e8 1f	 shr	 eax, 31			; 0000001fH
  0002f	03 c2		 add	 eax, edx
; File C:\IAGOS\server\v18\Source\Source\_Common\GuildHouse.h

; 101  : 	GuildHouse_Furniture_Info GetFurnitureInfo( int nIndex ) { return nIndex < (int)( m_vecFntInfo.size() ) ? m_vecFntInfo[nIndex] : GuildHouse_Furniture_Info(); }

  00031	3b c8		 cmp	 ecx, eax
  00033	7d 20		 jge	 SHORT $LN3@GetFurnitu
; File C:\Program Files\Microsoft Visual Studio\2022\Professional\VC\Tools\MSVC\14.44.35207\include\vector

; 1934 :         return _My_data._Myfirst[_Pos];

  00035	8d 04 c9	 lea	 eax, DWORD PTR [ecx+ecx*8]
; File C:\IAGOS\server\v18\Source\Source\_Common\GuildHouse.h

; 101  : 	GuildHouse_Furniture_Info GetFurnitureInfo( int nIndex ) { return nIndex < (int)( m_vecFntInfo.size() ) ? m_vecFntInfo[nIndex] : GuildHouse_Furniture_Info(); }

  00038	0f 10 04 87	 movups	 xmm0, XMMWORD PTR [edi+eax*4]
  0003c	0f 11 45 d8	 movups	 XMMWORD PTR $T2[ebp], xmm0
  00040	0f 10 44 87 10	 movups	 xmm0, XMMWORD PTR [edi+eax*4+16]
  00045	0f 11 45 e8	 movups	 XMMWORD PTR $T2[ebp+16], xmm0
  00049	8b 44 87 20	 mov	 eax, DWORD PTR [edi+eax*4+32]
  0004d	89 45 f8	 mov	 DWORD PTR $T2[ebp+32], eax
  00050	8d 45 d8	 lea	 eax, DWORD PTR $T2[ebp]
  00053	eb 32		 jmp	 SHORT $LN4@GetFurnitu
$LN3@GetFurnitu:
  00055	6a 00		 push	 0
  00057	83 ec 10	 sub	 esp, 16			; 00000010H
; File C:\IAGOS\server\v18\Source\Source\DX_SDK\d3dx9math.inl

; 302  :     z = fz;

  0005a	c7 45 d4 00 00
	00 00		 mov	 DWORD PTR $T1[ebp+8], 0
; File C:\IAGOS\server\v18\Source\Source\_Common\GuildHouse.h

; 101  : 	GuildHouse_Furniture_Info GetFurnitureInfo( int nIndex ) { return nIndex < (int)( m_vecFntInfo.size() ) ? m_vecFntInfo[nIndex] : GuildHouse_Furniture_Info(); }

  00061	8b 45 d4	 mov	 eax, DWORD PTR $T1[ebp+8]
  00064	8b cc		 mov	 ecx, esp
  00066	0f 57 c0	 xorps	 xmm0, xmm0
  00069	0f 14 c0	 unpcklps xmm0, xmm0
  0006c	c7 44 24 0c 00
	00 00 00	 mov	 DWORD PTR [esp+12], 0
  00074	66 0f d6 01	 movq	 QWORD PTR [ecx], xmm0
  00078	6a 00		 push	 0
  0007a	89 41 08	 mov	 DWORD PTR [ecx+8], eax
  0007d	8d 4d d8	 lea	 ecx, DWORD PTR $T3[ebp]
  00080	6a ff		 push	 -1
  00082	e8 00 00 00 00	 call	 ??0GuildHouse_Furniture_Info@CGuildHouseBase@@QAE@KHUD3DXVECTOR3@@MJ@Z ; CGuildHouseBase::GuildHouse_Furniture_Info::GuildHouse_Furniture_Info
$LN4@GetFurnitu:
  00087	0f 10 00	 movups	 xmm0, XMMWORD PTR [eax]
  0008a	5f		 pop	 edi
  0008b	0f 11 06	 movups	 XMMWORD PTR [esi], xmm0
  0008e	0f 10 40 10	 movups	 xmm0, XMMWORD PTR [eax+16]
  00092	0f 11 46 10	 movups	 XMMWORD PTR [esi+16], xmm0
  00096	8b 48 20	 mov	 ecx, DWORD PTR [eax+32]
  00099	8b c6		 mov	 eax, esi
  0009b	89 4e 20	 mov	 DWORD PTR [esi+32], ecx
  0009e	8b 4d fc	 mov	 ecx, DWORD PTR __$ArrayPad$[ebp]
  000a1	33 cd		 xor	 ecx, ebp
  000a3	5e		 pop	 esi
  000a4	e8 00 00 00 00	 call	 @__security_check_cookie@4
  000a9	8b e5		 mov	 esp, ebp
  000ab	5d		 pop	 ebp
  000ac	c2 08 00	 ret	 8
?GetFurnitureInfo@CGuildHouseBase@@QAE?AUGuildHouse_Furniture_Info@1@H@Z ENDP ; CGuildHouseBase::GetFurnitureInfo
_TEXT	ENDS
; Function compile flags: /Ogtp
; File C:\Program Files\Microsoft Visual Studio\2022\Professional\VC\Tools\MSVC\14.44.35207\include\xmemory
;	COMDAT ??$_Allocate_manually_vector_aligned@U_Default_allocate_traits@std@@@std@@YAPAXI@Z
_TEXT	SEGMENT
__Bytes$ = 8						; size = 4
??$_Allocate_manually_vector_aligned@U_Default_allocate_traits@std@@@std@@YAPAXI@Z PROC ; std::_Allocate_manually_vector_aligned<std::_Default_allocate_traits>, COMDAT

; 182  : __declspec(allocator) void* _Allocate_manually_vector_aligned(const size_t _Bytes) {

  00000	55		 push	 ebp
  00001	8b ec		 mov	 ebp, esp

; 183  :     // allocate _Bytes manually aligned to at least _Big_allocation_alignment
; 184  :     const size_t _Block_size = _Non_user_size + _Bytes;

  00003	8b 45 08	 mov	 eax, DWORD PTR __Bytes$[ebp]
  00006	8d 48 23	 lea	 ecx, DWORD PTR [eax+35]

; 185  :     if (_Block_size <= _Bytes) {

  00009	3b c8		 cmp	 ecx, eax
  0000b	0f 86 00 00 00
	00		 jbe	 ?_Throw_bad_array_new_length@std@@YAXXZ ; std::_Throw_bad_array_new_length

; 136  :         return ::operator new(_Bytes);

  00011	51		 push	 ecx
  00012	e8 00 00 00 00	 call	 ??2@YAPAXI@Z		; operator new

; 186  :         _Throw_bad_array_new_length(); // add overflow
; 187  :     }
; 188  : 
; 189  :     const uintptr_t _Ptr_container = reinterpret_cast<uintptr_t>(_Traits::_Allocate(_Block_size));

  00017	8b c8		 mov	 ecx, eax

; 136  :         return ::operator new(_Bytes);

  00019	83 c4 04	 add	 esp, 4

; 190  :     _STL_VERIFY(_Ptr_container != 0, "invalid argument"); // validate even in release since we're doing p[-1]

  0001c	85 c9		 test	 ecx, ecx
  0001e	74 0b		 je	 SHORT $LN9@Allocate_m

; 191  :     void* const _Ptr = reinterpret_cast<void*>((_Ptr_container + _Non_user_size) & ~(_Big_allocation_alignment - 1));

  00020	8d 41 23	 lea	 eax, DWORD PTR [ecx+35]
  00023	83 e0 e0	 and	 eax, -32		; ffffffe0H

; 192  :     static_cast<uintptr_t*>(_Ptr)[-1] = _Ptr_container;

  00026	89 48 fc	 mov	 DWORD PTR [eax-4], ecx

; 193  : 
; 194  : #ifdef _DEBUG
; 195  :     static_cast<uintptr_t*>(_Ptr)[-2] = _Big_allocation_sentinel;
; 196  : #endif // defined(_DEBUG)
; 197  :     return _Ptr;
; 198  : }

  00029	5d		 pop	 ebp
  0002a	c3		 ret	 0
$LN9@Allocate_m:

; 190  :     _STL_VERIFY(_Ptr_container != 0, "invalid argument"); // validate even in release since we're doing p[-1]

  0002b	6a 00		 push	 0
  0002d	6a 00		 push	 0
  0002f	6a 00		 push	 0
  00031	6a 00		 push	 0
  00033	6a 00		 push	 0
  00035	e8 00 00 00 00	 call	 __invoke_watson
$LN7@Allocate_m:
  0003a	cc		 int	 3
??$_Allocate_manually_vector_aligned@U_Default_allocate_traits@std@@@std@@YAPAXI@Z ENDP ; std::_Allocate_manually_vector_aligned<std::_Default_allocate_traits>
_TEXT	ENDS
; Function compile flags: /Ogtp
; File C:\Program Files\Microsoft Visual Studio\2022\Professional\VC\Tools\MSVC\14.44.35207\include\xtree
;	COMDAT ?_Throw_tree_length_error@std@@YAXXZ
_TEXT	SEGMENT
?_Throw_tree_length_error@std@@YAXXZ PROC		; std::_Throw_tree_length_error, COMDAT

; 417  :     _Xlength_error("map/set too long");

  00000	68 00 00 00 00	 push	 OFFSET ??_C@_0BB@GCADKGJO@map?1set?5too?5long@
  00005	e8 00 00 00 00	 call	 ?_Xlength_error@std@@YAXPBD@Z ; std::_Xlength_error
$LN3@Throw_tree:
  0000a	cc		 int	 3
?_Throw_tree_length_error@std@@YAXXZ ENDP		; std::_Throw_tree_length_error
_TEXT	ENDS
; Function compile flags: /Ogtp
; File C:\Program Files\Microsoft Visual Studio\2022\Professional\VC\Tools\MSVC\14.44.35207\include\xmemory
;	COMDAT ?_Throw_bad_array_new_length@std@@YAXXZ
_TEXT	SEGMENT
$T1 = -12						; size = 12
?_Throw_bad_array_new_length@std@@YAXXZ PROC		; std::_Throw_bad_array_new_length, COMDAT

; 107  : [[noreturn]] inline void _Throw_bad_array_new_length() {

  00000	55		 push	 ebp
  00001	8b ec		 mov	 ebp, esp
  00003	83 ec 0c	 sub	 esp, 12			; 0000000cH

; 108  :     _THROW(bad_array_new_length{});

  00006	8d 4d f4	 lea	 ecx, DWORD PTR $T1[ebp]
  00009	e8 00 00 00 00	 call	 ??0bad_array_new_length@std@@QAE@XZ ; std::bad_array_new_length::bad_array_new_length
  0000e	68 00 00 00 00	 push	 OFFSET __TI3?AVbad_array_new_length@std@@
  00013	8d 45 f4	 lea	 eax, DWORD PTR $T1[ebp]
  00016	50		 push	 eax
  00017	e8 00 00 00 00	 call	 __CxxThrowException@8
$LN3@Throw_bad_:
  0001c	cc		 int	 3
?_Throw_bad_array_new_length@std@@YAXXZ ENDP		; std::_Throw_bad_array_new_length
_TEXT	ENDS
; Function compile flags: /Ogtp
; File C:\Program Files\Microsoft Visual Studio\2022\Professional\VC\Tools\MSVC\14.44.35207\include\vcruntime_exception.h
;	COMDAT ??_Gbad_array_new_length@std@@UAEPAXI@Z
_TEXT	SEGMENT
___flags$ = 8						; size = 4
??_Gbad_array_new_length@std@@UAEPAXI@Z PROC		; std::bad_array_new_length::`scalar deleting destructor', COMDAT
; _this$ = ecx
  00000	55		 push	 ebp
  00001	8b ec		 mov	 ebp, esp

; 90   :     {

  00003	56		 push	 esi
  00004	8b f1		 mov	 esi, ecx

; 91   :         __std_exception_destroy(&_Data);

  00006	8d 46 04	 lea	 eax, DWORD PTR [esi+4]
  00009	c7 06 00 00 00
	00		 mov	 DWORD PTR [esi], OFFSET ??_7exception@std@@6B@
  0000f	50		 push	 eax
  00010	e8 00 00 00 00	 call	 ___std_exception_destroy
  00015	83 c4 04	 add	 esp, 4
  00018	f6 45 08 01	 test	 BYTE PTR ___flags$[ebp], 1
  0001c	74 0b		 je	 SHORT $LN18@scalar
  0001e	6a 0c		 push	 12			; 0000000cH
  00020	56		 push	 esi
  00021	e8 00 00 00 00	 call	 ??3@YAXPAXI@Z		; operator delete
  00026	83 c4 08	 add	 esp, 8
$LN18@scalar:
  00029	8b c6		 mov	 eax, esi
  0002b	5e		 pop	 esi
  0002c	5d		 pop	 ebp
  0002d	c2 04 00	 ret	 4
??_Gbad_array_new_length@std@@UAEPAXI@Z ENDP		; std::bad_array_new_length::`scalar deleting destructor'
_TEXT	ENDS
; Function compile flags: /Ogtp
; File C:\Program Files\Microsoft Visual Studio\2022\Professional\VC\Tools\MSVC\14.44.35207\include\vcruntime_exception.h
;	COMDAT ??0bad_array_new_length@std@@QAE@ABV01@@Z
_TEXT	SEGMENT
___that$ = 8						; size = 4
??0bad_array_new_length@std@@QAE@ABV01@@Z PROC		; std::bad_array_new_length::bad_array_new_length, COMDAT
; _this$ = ecx
  00000	55		 push	 ebp
  00001	8b ec		 mov	 ebp, esp

; 73   :     {

  00003	56		 push	 esi
  00004	8b f1		 mov	 esi, ecx
  00006	0f 57 c0	 xorps	 xmm0, xmm0

; 72   :         : _Data()

  00009	8d 46 04	 lea	 eax, DWORD PTR [esi+4]

; 74   :         __std_exception_copy(&_Other._Data, &_Data);

  0000c	50		 push	 eax
  0000d	c7 06 00 00 00
	00		 mov	 DWORD PTR [esi], OFFSET ??_7exception@std@@6B@
  00013	66 0f d6 00	 movq	 QWORD PTR [eax], xmm0
  00017	8b 45 08	 mov	 eax, DWORD PTR ___that$[ebp]
  0001a	83 c0 04	 add	 eax, 4
  0001d	50		 push	 eax
  0001e	e8 00 00 00 00	 call	 ___std_exception_copy
  00023	83 c4 08	 add	 esp, 8
  00026	c7 06 00 00 00
	00		 mov	 DWORD PTR [esi], OFFSET ??_7bad_array_new_length@std@@6B@
  0002c	8b c6		 mov	 eax, esi
  0002e	5e		 pop	 esi
  0002f	5d		 pop	 ebp
  00030	c2 04 00	 ret	 4
??0bad_array_new_length@std@@QAE@ABV01@@Z ENDP		; std::bad_array_new_length::bad_array_new_length
_TEXT	ENDS
; Function compile flags: /Ogtp
; File C:\Program Files\Microsoft Visual Studio\2022\Professional\VC\Tools\MSVC\14.44.35207\include\vcruntime_exception.h
;	COMDAT ??1bad_array_new_length@std@@UAE@XZ
_TEXT	SEGMENT
??1bad_array_new_length@std@@UAE@XZ PROC		; std::bad_array_new_length::~bad_array_new_length, COMDAT
; _this$ = ecx

; 91   :         __std_exception_destroy(&_Data);

  00000	8d 41 04	 lea	 eax, DWORD PTR [ecx+4]
  00003	c7 01 00 00 00
	00		 mov	 DWORD PTR [ecx], OFFSET ??_7exception@std@@6B@
  00009	50		 push	 eax
  0000a	e8 00 00 00 00	 call	 ___std_exception_destroy
  0000f	59		 pop	 ecx
  00010	c3		 ret	 0
??1bad_array_new_length@std@@UAE@XZ ENDP		; std::bad_array_new_length::~bad_array_new_length
_TEXT	ENDS
; Function compile flags: /Ogtp
; File C:\Program Files\Microsoft Visual Studio\2022\Professional\VC\Tools\MSVC\14.44.35207\include\vcruntime_exception.h
;	COMDAT ??0bad_array_new_length@std@@QAE@XZ
_TEXT	SEGMENT
??0bad_array_new_length@std@@QAE@XZ PROC		; std::bad_array_new_length::bad_array_new_length, COMDAT
; _this$ = ecx

; 144  :     {

  00000	0f 57 c0	 xorps	 xmm0, xmm0

; 145  :     }

  00003	8b c1		 mov	 eax, ecx

; 66   :         : _Data()

  00005	66 0f d6 41 04	 movq	 QWORD PTR [ecx+4], xmm0

; 67   :     {
; 68   :         _Data._What = _Message;

  0000a	c7 41 04 00 00
	00 00		 mov	 DWORD PTR [ecx+4], OFFSET ??_C@_0BF@KINCDENJ@bad?5array?5new?5length@

; 144  :     {

  00011	c7 01 00 00 00
	00		 mov	 DWORD PTR [ecx], OFFSET ??_7bad_array_new_length@std@@6B@

; 145  :     }

  00017	c3		 ret	 0
??0bad_array_new_length@std@@QAE@XZ ENDP		; std::bad_array_new_length::bad_array_new_length
_TEXT	ENDS
; Function compile flags: /Ogtp
; File C:\Program Files\Microsoft Visual Studio\2022\Professional\VC\Tools\MSVC\14.44.35207\include\vcruntime_exception.h
;	COMDAT ??_Gbad_alloc@std@@UAEPAXI@Z
_TEXT	SEGMENT
___flags$ = 8						; size = 4
??_Gbad_alloc@std@@UAEPAXI@Z PROC			; std::bad_alloc::`scalar deleting destructor', COMDAT
; _this$ = ecx
  00000	55		 push	 ebp
  00001	8b ec		 mov	 ebp, esp

; 90   :     {

  00003	56		 push	 esi
  00004	8b f1		 mov	 esi, ecx

; 91   :         __std_exception_destroy(&_Data);

  00006	8d 46 04	 lea	 eax, DWORD PTR [esi+4]
  00009	c7 06 00 00 00
	00		 mov	 DWORD PTR [esi], OFFSET ??_7exception@std@@6B@
  0000f	50		 push	 eax
  00010	e8 00 00 00 00	 call	 ___std_exception_destroy
  00015	83 c4 04	 add	 esp, 4
  00018	f6 45 08 01	 test	 BYTE PTR ___flags$[ebp], 1
  0001c	74 0b		 je	 SHORT $LN13@scalar
  0001e	6a 0c		 push	 12			; 0000000cH
  00020	56		 push	 esi
  00021	e8 00 00 00 00	 call	 ??3@YAXPAXI@Z		; operator delete
  00026	83 c4 08	 add	 esp, 8
$LN13@scalar:
  00029	8b c6		 mov	 eax, esi
  0002b	5e		 pop	 esi
  0002c	5d		 pop	 ebp
  0002d	c2 04 00	 ret	 4
??_Gbad_alloc@std@@UAEPAXI@Z ENDP			; std::bad_alloc::`scalar deleting destructor'
_TEXT	ENDS
; Function compile flags: /Ogtp
; File C:\Program Files\Microsoft Visual Studio\2022\Professional\VC\Tools\MSVC\14.44.35207\include\vcruntime_exception.h
;	COMDAT ??0bad_alloc@std@@QAE@ABV01@@Z
_TEXT	SEGMENT
___that$ = 8						; size = 4
??0bad_alloc@std@@QAE@ABV01@@Z PROC			; std::bad_alloc::bad_alloc, COMDAT
; _this$ = ecx
  00000	55		 push	 ebp
  00001	8b ec		 mov	 ebp, esp

; 73   :     {

  00003	56		 push	 esi
  00004	8b f1		 mov	 esi, ecx
  00006	0f 57 c0	 xorps	 xmm0, xmm0

; 72   :         : _Data()

  00009	8d 46 04	 lea	 eax, DWORD PTR [esi+4]

; 74   :         __std_exception_copy(&_Other._Data, &_Data);

  0000c	50		 push	 eax
  0000d	c7 06 00 00 00
	00		 mov	 DWORD PTR [esi], OFFSET ??_7exception@std@@6B@
  00013	66 0f d6 00	 movq	 QWORD PTR [eax], xmm0
  00017	8b 45 08	 mov	 eax, DWORD PTR ___that$[ebp]
  0001a	83 c0 04	 add	 eax, 4
  0001d	50		 push	 eax
  0001e	e8 00 00 00 00	 call	 ___std_exception_copy
  00023	83 c4 08	 add	 esp, 8
  00026	c7 06 00 00 00
	00		 mov	 DWORD PTR [esi], OFFSET ??_7bad_alloc@std@@6B@
  0002c	8b c6		 mov	 eax, esi
  0002e	5e		 pop	 esi
  0002f	5d		 pop	 ebp
  00030	c2 04 00	 ret	 4
??0bad_alloc@std@@QAE@ABV01@@Z ENDP			; std::bad_alloc::bad_alloc
_TEXT	ENDS
; Function compile flags: /Ogtp
; File C:\Program Files\Microsoft Visual Studio\2022\Professional\VC\Tools\MSVC\14.44.35207\include\vcruntime_exception.h
;	COMDAT ??_Gexception@std@@UAEPAXI@Z
_TEXT	SEGMENT
___flags$ = 8						; size = 4
??_Gexception@std@@UAEPAXI@Z PROC			; std::exception::`scalar deleting destructor', COMDAT
; _this$ = ecx
  00000	55		 push	 ebp
  00001	8b ec		 mov	 ebp, esp

; 90   :     {

  00003	56		 push	 esi
  00004	8b f1		 mov	 esi, ecx

; 91   :         __std_exception_destroy(&_Data);

  00006	8d 46 04	 lea	 eax, DWORD PTR [esi+4]
  00009	c7 06 00 00 00
	00		 mov	 DWORD PTR [esi], OFFSET ??_7exception@std@@6B@
  0000f	50		 push	 eax
  00010	e8 00 00 00 00	 call	 ___std_exception_destroy
  00015	83 c4 04	 add	 esp, 4
  00018	f6 45 08 01	 test	 BYTE PTR ___flags$[ebp], 1
  0001c	74 0b		 je	 SHORT $LN8@scalar
  0001e	6a 0c		 push	 12			; 0000000cH
  00020	56		 push	 esi
  00021	e8 00 00 00 00	 call	 ??3@YAXPAXI@Z		; operator delete
  00026	83 c4 08	 add	 esp, 8
$LN8@scalar:
  00029	8b c6		 mov	 eax, esi
  0002b	5e		 pop	 esi
  0002c	5d		 pop	 ebp
  0002d	c2 04 00	 ret	 4
??_Gexception@std@@UAEPAXI@Z ENDP			; std::exception::`scalar deleting destructor'
_TEXT	ENDS
; Function compile flags: /Ogtp
; File C:\Program Files\Microsoft Visual Studio\2022\Professional\VC\Tools\MSVC\14.44.35207\include\vcruntime_exception.h
;	COMDAT ?what@exception@std@@UBEPBDXZ
_TEXT	SEGMENT
?what@exception@std@@UBEPBDXZ PROC			; std::exception::what, COMDAT
; _this$ = ecx

; 96   :         return _Data._What ? _Data._What : "Unknown exception";

  00000	8b 49 04	 mov	 ecx, DWORD PTR [ecx+4]
  00003	b8 00 00 00 00	 mov	 eax, OFFSET ??_C@_0BC@EOODALEL@Unknown?5exception@
  00008	85 c9		 test	 ecx, ecx
  0000a	0f 45 c1	 cmovne	 eax, ecx

; 97   :     }

  0000d	c3		 ret	 0
?what@exception@std@@UBEPBDXZ ENDP			; std::exception::what
_TEXT	ENDS
; Function compile flags: /Ogtp
; File C:\Program Files\Microsoft Visual Studio\2022\Professional\VC\Tools\MSVC\14.44.35207\include\vcruntime_exception.h
;	COMDAT ??1exception@std@@UAE@XZ
_TEXT	SEGMENT
??1exception@std@@UAE@XZ PROC				; std::exception::~exception, COMDAT
; _this$ = ecx

; 91   :         __std_exception_destroy(&_Data);

  00000	8d 41 04	 lea	 eax, DWORD PTR [ecx+4]
  00003	c7 01 00 00 00
	00		 mov	 DWORD PTR [ecx], OFFSET ??_7exception@std@@6B@
  00009	50		 push	 eax
  0000a	e8 00 00 00 00	 call	 ___std_exception_destroy
  0000f	59		 pop	 ecx

; 92   :     }

  00010	c3		 ret	 0
??1exception@std@@UAE@XZ ENDP				; std::exception::~exception
_TEXT	ENDS
; Function compile flags: /Ogtp
; File C:\Program Files\Microsoft Visual Studio\2022\Professional\VC\Tools\MSVC\14.44.35207\include\vcruntime_exception.h
;	COMDAT ??0exception@std@@QAE@ABV01@@Z
_TEXT	SEGMENT
__Other$ = 8						; size = 4
??0exception@std@@QAE@ABV01@@Z PROC			; std::exception::exception, COMDAT
; _this$ = ecx

; 73   :     {

  00000	55		 push	 ebp
  00001	8b ec		 mov	 ebp, esp
  00003	56		 push	 esi
  00004	8b f1		 mov	 esi, ecx
  00006	0f 57 c0	 xorps	 xmm0, xmm0
  00009	8d 46 04	 lea	 eax, DWORD PTR [esi+4]

; 74   :         __std_exception_copy(&_Other._Data, &_Data);

  0000c	50		 push	 eax
  0000d	c7 06 00 00 00
	00		 mov	 DWORD PTR [esi], OFFSET ??_7exception@std@@6B@
  00013	66 0f d6 00	 movq	 QWORD PTR [eax], xmm0
  00017	8b 45 08	 mov	 eax, DWORD PTR __Other$[ebp]
  0001a	83 c0 04	 add	 eax, 4
  0001d	50		 push	 eax
  0001e	e8 00 00 00 00	 call	 ___std_exception_copy
  00023	83 c4 08	 add	 esp, 8

; 75   :     }

  00026	8b c6		 mov	 eax, esi
  00028	5e		 pop	 esi
  00029	5d		 pop	 ebp
  0002a	c2 04 00	 ret	 4
??0exception@std@@QAE@ABV01@@Z ENDP			; std::exception::exception
_TEXT	ENDS
; Function compile flags: /Ogtp
; File C:\IAGOS\server\v18\Source\Source\DatabaseServer\GuildHouseDBCtrl.cpp
;	COMDAT ?__empty_global_delete@@YAXPAXI@Z
_TEXT	SEGMENT
___formal$ = 8						; size = 4
___formal$ = 12						; size = 4
?__empty_global_delete@@YAXPAXI@Z PROC			; __empty_global_delete, COMDAT

  00000	c2 00 00	 ret	 0
?__empty_global_delete@@YAXPAXI@Z ENDP			; __empty_global_delete
_TEXT	ENDS
; Function compile flags: /Ogtp
; File C:\IAGOS\server\v18\Source\Source\DatabaseServer\GuildHouseDBCtrl.cpp
;	COMDAT ?__empty_global_delete@@YAXPAX@Z
_TEXT	SEGMENT
___formal$ = 8						; size = 4
?__empty_global_delete@@YAXPAX@Z PROC			; __empty_global_delete, COMDAT

  00000	c2 00 00	 ret	 0
?__empty_global_delete@@YAXPAX@Z ENDP			; __empty_global_delete
_TEXT	ENDS
END
