; Listing generated by Microsoft (R) Optimizing Compiler Version 19.44.35225.0 

	TITLE	C:\IAGOS\server\v18\Source\Output\DatabaseServer\Release\GuildCombat1to1.obj
	.686P
	.XMM
	include listing.inc
	.model	flat

INCLUDELIB LIBCMT
INCLUDELIB OLDNAMES

PUBLIC	?__empty_global_delete@@YAXPAX@Z		; __empty_global_delete
PUBLIC	?__empty_global_delete@@YAXPAXI@Z		; __empty_global_delete
PUBLIC	??0CGuildCombat1to1Mng@@QAE@XZ			; CGuildCombat1to1Mng::CGuildCombat1to1Mng
PUBLIC	??1CGuildCombat1to1Mng@@UAE@XZ			; CGuildCombat1to1Mng::~CGuildCombat1to1Mng
PUBLIC	?ClearTime@CGuildCombat1to1Mng@@QAEXXZ		; CGuildCombat1to1Mng::ClearTime
PUBLIC	?LoadScript@CGuildCombat1to1Mng@@QAEHXZ		; CGuildCombat1to1Mng::LoadScript
PUBLIC	?CheckOpenTIme@CGuildCombat1to1Mng@@QAEHXZ	; CGuildCombat1to1Mng::CheckOpenTIme
PUBLIC	??_GCGuildCombat1to1Mng@@UAEPAXI@Z		; CGuildCombat1to1Mng::`scalar deleting destructor'
PUBLIC	??_7CGuildCombat1to1Mng@@6B@			; CGuildCombat1to1Mng::`vftable'
PUBLIC	??_C@_0O@ICJPAPLK@CheckOpenTime@		; `string'
PUBLIC	??_C@_0BE@BGEDOEJD@GuildCombat1to1?4lua@	; `string'
PUBLIC	??_C@_0N@CHPIPPI@MinJoinPenya@			; `string'
PUBLIC	??_C@_0O@JHCECGHF@MinGuildLevel@		; `string'
PUBLIC	??_C@_0N@IGABIHDO@MinJoinGuild@			; `string'
PUBLIC	??_C@_0N@MGEOPPEI@MaxJoinGuild@			; `string'
PUBLIC	??_C@_0O@MDLHABA@MinJoinPlayer@			; `string'
PUBLIC	??_C@_0O@LFBNOLGB@MaxJoinPlayer@		; `string'
PUBLIC	??_C@_0BD@GPBMJCGJ@MinJoinPlayerLevel@		; `string'
PUBLIC	??_C@_0BB@FDEBMJPD@CancelReturnRate@		; `string'
PUBLIC	??_C@_0P@OIBAJGIA@FailReturnRate@		; `string'
PUBLIC	??_C@_0L@MPIDICKM@PlayerLife@			; `string'
PUBLIC	??_R4CGuildCombat1to1Mng@@6B@			; CGuildCombat1to1Mng::`RTTI Complete Object Locator'
PUBLIC	??_R0?AVCGuildCombat1to1Mng@@@8			; CGuildCombat1to1Mng `RTTI Type Descriptor'
PUBLIC	??_R3CGuildCombat1to1Mng@@8			; CGuildCombat1to1Mng::`RTTI Class Hierarchy Descriptor'
PUBLIC	??_R2CGuildCombat1to1Mng@@8			; CGuildCombat1to1Mng::`RTTI Base Class Array'
PUBLIC	??_R1A@?0A@EA@CGuildCombat1to1Mng@@8		; CGuildCombat1to1Mng::`RTTI Base Class Descriptor at (0,-1,0,64)'
EXTRN	??3@YAXPAXI@Z:PROC				; operator delete
EXTRN	_lua_tonumberx:PROC
EXTRN	??0CLuaBase@@QAE@XZ:PROC			; CLuaBase::CLuaBase
EXTRN	??1CLuaBase@@UAE@XZ:PROC			; CLuaBase::~CLuaBase
EXTRN	?RunScript@CLuaBase@@QAEHPBD@Z:PROC		; CLuaBase::RunScript
EXTRN	?Pop@CLuaBase@@QAEXH@Z:PROC			; CLuaBase::Pop
EXTRN	?GetGlobalNumber@CLuaBase@@QAENPAD@Z:PROC	; CLuaBase::GetGlobalNumber
EXTRN	?GetLuaFunction@CLuaBase@@QAEHPAD@Z:PROC	; CLuaBase::GetLuaFunction
EXTRN	?CallLuaFunction@CLuaBase@@QAEXHH@Z:PROC	; CLuaBase::CallLuaFunction
EXTRN	??_ECGuildCombat1to1Mng@@UAEPAXI@Z:PROC		; CGuildCombat1to1Mng::`vector deleting destructor'
EXTRN	__ftol2_sse:PROC
EXTRN	??_7type_info@@6B@:QWORD			; type_info::`vftable'
EXTRN	__fltused:DWORD
;	COMDAT ??_R1A@?0A@EA@CGuildCombat1to1Mng@@8
rdata$r	SEGMENT
??_R1A@?0A@EA@CGuildCombat1to1Mng@@8 DD FLAT:??_R0?AVCGuildCombat1to1Mng@@@8 ; CGuildCombat1to1Mng::`RTTI Base Class Descriptor at (0,-1,0,64)'
	DD	00H
	DD	00H
	DD	0ffffffffH
	DD	00H
	DD	040H
	DD	FLAT:??_R3CGuildCombat1to1Mng@@8
rdata$r	ENDS
;	COMDAT ??_R2CGuildCombat1to1Mng@@8
rdata$r	SEGMENT
??_R2CGuildCombat1to1Mng@@8 DD FLAT:??_R1A@?0A@EA@CGuildCombat1to1Mng@@8 ; CGuildCombat1to1Mng::`RTTI Base Class Array'
rdata$r	ENDS
;	COMDAT ??_R3CGuildCombat1to1Mng@@8
rdata$r	SEGMENT
??_R3CGuildCombat1to1Mng@@8 DD 00H			; CGuildCombat1to1Mng::`RTTI Class Hierarchy Descriptor'
	DD	00H
	DD	01H
	DD	FLAT:??_R2CGuildCombat1to1Mng@@8
rdata$r	ENDS
;	COMDAT ??_R0?AVCGuildCombat1to1Mng@@@8
data$rs	SEGMENT
??_R0?AVCGuildCombat1to1Mng@@@8 DD FLAT:??_7type_info@@6B@ ; CGuildCombat1to1Mng `RTTI Type Descriptor'
	DD	00H
	DB	'.?AVCGuildCombat1to1Mng@@', 00H
data$rs	ENDS
;	COMDAT ??_R4CGuildCombat1to1Mng@@6B@
rdata$r	SEGMENT
??_R4CGuildCombat1to1Mng@@6B@ DD 00H			; CGuildCombat1to1Mng::`RTTI Complete Object Locator'
	DD	00H
	DD	00H
	DD	FLAT:??_R0?AVCGuildCombat1to1Mng@@@8
	DD	FLAT:??_R3CGuildCombat1to1Mng@@8
rdata$r	ENDS
;	COMDAT ??_C@_0L@MPIDICKM@PlayerLife@
CONST	SEGMENT
??_C@_0L@MPIDICKM@PlayerLife@ DB 'PlayerLife', 00H	; `string'
CONST	ENDS
;	COMDAT ??_C@_0P@OIBAJGIA@FailReturnRate@
CONST	SEGMENT
??_C@_0P@OIBAJGIA@FailReturnRate@ DB 'FailReturnRate', 00H ; `string'
CONST	ENDS
;	COMDAT ??_C@_0BB@FDEBMJPD@CancelReturnRate@
CONST	SEGMENT
??_C@_0BB@FDEBMJPD@CancelReturnRate@ DB 'CancelReturnRate', 00H ; `string'
CONST	ENDS
;	COMDAT ??_C@_0BD@GPBMJCGJ@MinJoinPlayerLevel@
CONST	SEGMENT
??_C@_0BD@GPBMJCGJ@MinJoinPlayerLevel@ DB 'MinJoinPlayerLevel', 00H ; `string'
CONST	ENDS
;	COMDAT ??_C@_0O@LFBNOLGB@MaxJoinPlayer@
CONST	SEGMENT
??_C@_0O@LFBNOLGB@MaxJoinPlayer@ DB 'MaxJoinPlayer', 00H ; `string'
CONST	ENDS
;	COMDAT ??_C@_0O@MDLHABA@MinJoinPlayer@
CONST	SEGMENT
??_C@_0O@MDLHABA@MinJoinPlayer@ DB 'MinJoinPlayer', 00H	; `string'
CONST	ENDS
;	COMDAT ??_C@_0N@MGEOPPEI@MaxJoinGuild@
CONST	SEGMENT
??_C@_0N@MGEOPPEI@MaxJoinGuild@ DB 'MaxJoinGuild', 00H	; `string'
CONST	ENDS
;	COMDAT ??_C@_0N@IGABIHDO@MinJoinGuild@
CONST	SEGMENT
??_C@_0N@IGABIHDO@MinJoinGuild@ DB 'MinJoinGuild', 00H	; `string'
CONST	ENDS
;	COMDAT ??_C@_0O@JHCECGHF@MinGuildLevel@
CONST	SEGMENT
??_C@_0O@JHCECGHF@MinGuildLevel@ DB 'MinGuildLevel', 00H ; `string'
CONST	ENDS
;	COMDAT ??_C@_0N@CHPIPPI@MinJoinPenya@
CONST	SEGMENT
??_C@_0N@CHPIPPI@MinJoinPenya@ DB 'MinJoinPenya', 00H	; `string'
CONST	ENDS
;	COMDAT ??_C@_0BE@BGEDOEJD@GuildCombat1to1?4lua@
CONST	SEGMENT
??_C@_0BE@BGEDOEJD@GuildCombat1to1?4lua@ DB 'GuildCombat1to1.lua', 00H ; `string'
CONST	ENDS
;	COMDAT ??_C@_0O@ICJPAPLK@CheckOpenTime@
CONST	SEGMENT
??_C@_0O@ICJPAPLK@CheckOpenTime@ DB 'CheckOpenTime', 00H ; `string'
CONST	ENDS
;	COMDAT ??_7CGuildCombat1to1Mng@@6B@
CONST	SEGMENT
??_7CGuildCombat1to1Mng@@6B@ DD FLAT:??_R4CGuildCombat1to1Mng@@6B@ ; CGuildCombat1to1Mng::`vftable'
	DD	FLAT:??_ECGuildCombat1to1Mng@@UAEPAXI@Z
CONST	ENDS
; Function compile flags: /Ogtp
;	COMDAT ??_GCGuildCombat1to1Mng@@UAEPAXI@Z
_TEXT	SEGMENT
___flags$ = 8						; size = 4
??_GCGuildCombat1to1Mng@@UAEPAXI@Z PROC			; CGuildCombat1to1Mng::`scalar deleting destructor', COMDAT
; _this$ = ecx
  00000	55		 push	 ebp
  00001	8b ec		 mov	 ebp, esp
  00003	56		 push	 esi
  00004	8b f1		 mov	 esi, ecx
  00006	e8 00 00 00 00	 call	 ??1CGuildCombat1to1Mng@@UAE@XZ ; CGuildCombat1to1Mng::~CGuildCombat1to1Mng
  0000b	f6 45 08 01	 test	 BYTE PTR ___flags$[ebp], 1
  0000f	74 0b		 je	 SHORT $LN5@scalar
  00011	6a 44		 push	 68			; 00000044H
  00013	56		 push	 esi
  00014	e8 00 00 00 00	 call	 ??3@YAXPAXI@Z		; operator delete
  00019	83 c4 08	 add	 esp, 8
$LN5@scalar:
  0001c	8b c6		 mov	 eax, esi
  0001e	5e		 pop	 esi
  0001f	5d		 pop	 ebp
  00020	c2 04 00	 ret	 4
??_GCGuildCombat1to1Mng@@UAEPAXI@Z ENDP			; CGuildCombat1to1Mng::`scalar deleting destructor'
_TEXT	ENDS
; Function compile flags: /Ogtp
; File C:\IAGOS\server\v18\Source\Source\_Common\GuildCombat1to1.cpp
; File C:\IAGOS\server\v18\Source\Source\_Common\LuaBase.h
; File C:\IAGOS\server\v18\Source\Source\_Common\GuildCombat1to1.cpp
; File C:\IAGOS\server\v18\Source\Source\_Common\LuaBase.h
; File C:\IAGOS\server\v18\Source\Source\_Common\GuildCombat1to1.cpp
;	COMDAT ?CheckOpenTIme@CGuildCombat1to1Mng@@QAEHXZ
_TEXT	SEGMENT
tv133 = -8						; size = 8
?CheckOpenTIme@CGuildCombat1to1Mng@@QAEHXZ PROC		; CGuildCombat1to1Mng::CheckOpenTIme, COMDAT
; _this$ = ecx

; 778  : {

  00000	55		 push	 ebp
  00001	8b ec		 mov	 ebp, esp
  00003	83 ec 08	 sub	 esp, 8
  00006	53		 push	 ebx
  00007	56		 push	 esi
  00008	8b d9		 mov	 ebx, ecx
  0000a	57		 push	 edi

; 779  : 	int nReturnValue = 0;
; 780  : 	if( m_Lua.GetLuaFunction( "CheckOpenTime" ) )

  0000b	68 00 00 00 00	 push	 OFFSET ??_C@_0O@ICJPAPLK@CheckOpenTime@
  00010	33 ff		 xor	 edi, edi
  00012	8d 4b 20	 lea	 ecx, DWORD PTR [ebx+32]
  00015	e8 00 00 00 00	 call	 ?GetLuaFunction@CLuaBase@@QAEHPAD@Z ; CLuaBase::GetLuaFunction
  0001a	85 c0		 test	 eax, eax
  0001c	74 21		 je	 SHORT $LN2@CheckOpenT

; 781  : 	{
; 782  : 		m_Lua.CallLuaFunction( 0, 1 );

  0001e	6a 01		 push	 1
  00020	57		 push	 edi
  00021	8d 4b 20	 lea	 ecx, DWORD PTR [ebx+32]
  00024	e8 00 00 00 00	 call	 ?CallLuaFunction@CLuaBase@@QAEXHH@Z ; CLuaBase::CallLuaFunction
; File C:\IAGOS\server\v18\Source\Source\_Common\LuaBase.h

; 43   : 	double		ToNumber( int nStackPos )					{  return lua_tonumber( m_pLuaState, nStackPos );  }

  00029	57		 push	 edi
  0002a	6a ff		 push	 -1
  0002c	ff 73 24	 push	 DWORD PTR [ebx+36]
  0002f	e8 00 00 00 00	 call	 _lua_tonumberx
  00034	dd 5d f8	 fstp	 QWORD PTR tv133[ebp]
; File C:\IAGOS\server\v18\Source\Source\_Common\GuildCombat1to1.cpp

; 784  : 		nReturnValue = (int)( m_Lua.ToNumber( -1 ) );

  00037	f2 0f 2c 7d f8	 cvttsd2si edi, QWORD PTR tv133[ebp]
; File C:\IAGOS\server\v18\Source\Source\_Common\LuaBase.h

; 43   : 	double		ToNumber( int nStackPos )					{  return lua_tonumber( m_pLuaState, nStackPos );  }

  0003c	83 c4 0c	 add	 esp, 12			; 0000000cH
$LN2@CheckOpenT:
; File C:\IAGOS\server\v18\Source\Source\_Common\GuildCombat1to1.cpp

; 786  : 	m_Lua.Pop(0);

  0003f	6a 00		 push	 0
  00041	8d 4b 20	 lea	 ecx, DWORD PTR [ebx+32]
  00044	e8 00 00 00 00	 call	 ?Pop@CLuaBase@@QAEXH@Z	; CLuaBase::Pop

; 787  : 
; 788  : 	return nReturnValue;

  00049	8b c7		 mov	 eax, edi
  0004b	5f		 pop	 edi
  0004c	5e		 pop	 esi
  0004d	5b		 pop	 ebx

; 789  : }

  0004e	8b e5		 mov	 esp, ebp
  00050	5d		 pop	 ebp
  00051	c3		 ret	 0
?CheckOpenTIme@CGuildCombat1to1Mng@@QAEHXZ ENDP		; CGuildCombat1to1Mng::CheckOpenTIme
_TEXT	ENDS
; Function compile flags: /Ogtp
; File C:\IAGOS\server\v18\Source\Source\_Common\GuildCombat1to1.cpp
;	COMDAT ?LoadScript@CGuildCombat1to1Mng@@QAEHXZ
_TEXT	SEGMENT
?LoadScript@CGuildCombat1to1Mng@@QAEHXZ PROC		; CGuildCombat1to1Mng::LoadScript, COMDAT
; _this$ = ecx

; 795  : {

  00000	56		 push	 esi
  00001	57		 push	 edi
  00002	8b f9		 mov	 edi, ecx

; 796  : 	if( m_Lua.RunScript( "GuildCombat1to1.lua" ) != 0 )

  00004	68 00 00 00 00	 push	 OFFSET ??_C@_0BE@BGEDOEJD@GuildCombat1to1?4lua@
  00009	8d 4f 20	 lea	 ecx, DWORD PTR [edi+32]
  0000c	e8 00 00 00 00	 call	 ?RunScript@CLuaBase@@QAEHPBD@Z ; CLuaBase::RunScript

; 797  : 		ASSERT(0);
; 798  : 
; 799  : 	m_nJoinPenya = (int)m_Lua.GetGlobalNumber( "MinJoinPenya" );

  00011	68 00 00 00 00	 push	 OFFSET ??_C@_0N@CHPIPPI@MinJoinPenya@
  00016	8d 4f 20	 lea	 ecx, DWORD PTR [edi+32]
  00019	e8 00 00 00 00	 call	 ?GetGlobalNumber@CLuaBase@@QAENPAD@Z ; CLuaBase::GetGlobalNumber
  0001e	e8 00 00 00 00	 call	 __ftol2_sse

; 800  : 	m_nGuildLevel = (int)m_Lua.GetGlobalNumber( "MinGuildLevel" );

  00023	68 00 00 00 00	 push	 OFFSET ??_C@_0O@JHCECGHF@MinGuildLevel@
  00028	8d 4f 20	 lea	 ecx, DWORD PTR [edi+32]
  0002b	89 47 08	 mov	 DWORD PTR [edi+8], eax
  0002e	e8 00 00 00 00	 call	 ?GetGlobalNumber@CLuaBase@@QAENPAD@Z ; CLuaBase::GetGlobalNumber
  00033	e8 00 00 00 00	 call	 __ftol2_sse

; 801  : 	m_nMinJoinGuild = (int)m_Lua.GetGlobalNumber( "MinJoinGuild" );

  00038	68 00 00 00 00	 push	 OFFSET ??_C@_0N@IGABIHDO@MinJoinGuild@
  0003d	8d 4f 20	 lea	 ecx, DWORD PTR [edi+32]
  00040	89 47 28	 mov	 DWORD PTR [edi+40], eax
  00043	e8 00 00 00 00	 call	 ?GetGlobalNumber@CLuaBase@@QAENPAD@Z ; CLuaBase::GetGlobalNumber
  00048	e8 00 00 00 00	 call	 __ftol2_sse

; 802  : 	m_nMaxJoinGuild = (int)m_Lua.GetGlobalNumber( "MaxJoinGuild" );

  0004d	68 00 00 00 00	 push	 OFFSET ??_C@_0N@MGEOPPEI@MaxJoinGuild@
  00052	8d 4f 20	 lea	 ecx, DWORD PTR [edi+32]
  00055	89 47 34	 mov	 DWORD PTR [edi+52], eax
  00058	e8 00 00 00 00	 call	 ?GetGlobalNumber@CLuaBase@@QAENPAD@Z ; CLuaBase::GetGlobalNumber
  0005d	e8 00 00 00 00	 call	 __ftol2_sse

; 803  : 	m_nMinJoinPlayer = (int)m_Lua.GetGlobalNumber( "MinJoinPlayer" );

  00062	68 00 00 00 00	 push	 OFFSET ??_C@_0O@MDLHABA@MinJoinPlayer@
  00067	8d 4f 20	 lea	 ecx, DWORD PTR [edi+32]
  0006a	89 47 30	 mov	 DWORD PTR [edi+48], eax
  0006d	e8 00 00 00 00	 call	 ?GetGlobalNumber@CLuaBase@@QAENPAD@Z ; CLuaBase::GetGlobalNumber
  00072	e8 00 00 00 00	 call	 __ftol2_sse

; 804  : #ifndef __MAINSERVER
; 805  : 	m_nMinJoinPlayer = 1;
; 806  : #endif // __MAINSERVER
; 807  : 	m_nMaxJoinPlayer = (int)m_Lua.GetGlobalNumber( "MaxJoinPlayer" );

  00077	68 00 00 00 00	 push	 OFFSET ??_C@_0O@LFBNOLGB@MaxJoinPlayer@
  0007c	8d 4f 20	 lea	 ecx, DWORD PTR [edi+32]
  0007f	89 47 10	 mov	 DWORD PTR [edi+16], eax
  00082	e8 00 00 00 00	 call	 ?GetGlobalNumber@CLuaBase@@QAENPAD@Z ; CLuaBase::GetGlobalNumber
  00087	e8 00 00 00 00	 call	 __ftol2_sse

; 808  : 	m_nMinJoinPlayerLevel = (int)m_Lua.GetGlobalNumber( "MinJoinPlayerLevel" );

  0008c	68 00 00 00 00	 push	 OFFSET ??_C@_0BD@GPBMJCGJ@MinJoinPlayerLevel@
  00091	8d 4f 20	 lea	 ecx, DWORD PTR [edi+32]
  00094	89 47 0c	 mov	 DWORD PTR [edi+12], eax
  00097	e8 00 00 00 00	 call	 ?GetGlobalNumber@CLuaBase@@QAENPAD@Z ; CLuaBase::GetGlobalNumber
  0009c	e8 00 00 00 00	 call	 __ftol2_sse

; 809  : 	m_nCancelReturnRate = (int)m_Lua.GetGlobalNumber( "CancelReturnRate" );

  000a1	68 00 00 00 00	 push	 OFFSET ??_C@_0BB@FDEBMJPD@CancelReturnRate@
  000a6	8d 4f 20	 lea	 ecx, DWORD PTR [edi+32]
  000a9	89 47 14	 mov	 DWORD PTR [edi+20], eax
  000ac	e8 00 00 00 00	 call	 ?GetGlobalNumber@CLuaBase@@QAENPAD@Z ; CLuaBase::GetGlobalNumber
  000b1	e8 00 00 00 00	 call	 __ftol2_sse

; 810  : 	m_nFailReturnRate = (int)m_Lua.GetGlobalNumber( "FailReturnRate" );

  000b6	68 00 00 00 00	 push	 OFFSET ??_C@_0P@OIBAJGIA@FailReturnRate@
  000bb	8d 4f 20	 lea	 ecx, DWORD PTR [edi+32]
  000be	89 47 38	 mov	 DWORD PTR [edi+56], eax
  000c1	e8 00 00 00 00	 call	 ?GetGlobalNumber@CLuaBase@@QAENPAD@Z ; CLuaBase::GetGlobalNumber
  000c6	e8 00 00 00 00	 call	 __ftol2_sse

; 811  : 	m_nPlayerLife = (int)m_Lua.GetGlobalNumber( "PlayerLife" );

  000cb	68 00 00 00 00	 push	 OFFSET ??_C@_0L@MPIDICKM@PlayerLife@
  000d0	8d 4f 20	 lea	 ecx, DWORD PTR [edi+32]
  000d3	89 47 3c	 mov	 DWORD PTR [edi+60], eax
  000d6	e8 00 00 00 00	 call	 ?GetGlobalNumber@CLuaBase@@QAENPAD@Z ; CLuaBase::GetGlobalNumber
  000db	e8 00 00 00 00	 call	 __ftol2_sse
  000e0	89 47 2c	 mov	 DWORD PTR [edi+44], eax

; 812  : 
; 813  : 	return TRUE;

  000e3	b8 01 00 00 00	 mov	 eax, 1
  000e8	5f		 pop	 edi
  000e9	5e		 pop	 esi

; 814  : }

  000ea	c3		 ret	 0
?LoadScript@CGuildCombat1to1Mng@@QAEHXZ ENDP		; CGuildCombat1to1Mng::LoadScript
_TEXT	ENDS
; Function compile flags: /Ogtp
; File C:\IAGOS\server\v18\Source\Source\_Common\GuildCombat1to1.cpp
;	COMDAT ?ClearTime@CGuildCombat1to1Mng@@QAEXXZ
_TEXT	SEGMENT
?ClearTime@CGuildCombat1to1Mng@@QAEXXZ PROC		; CGuildCombat1to1Mng::ClearTime, COMDAT
; _this$ = ecx

; 771  : 	m_nWaitTime = 0;

  00000	c7 41 18 00 00
	00 00		 mov	 DWORD PTR [ecx+24], 0

; 772  : 	m_dwTime = 0;

  00007	c7 41 1c 00 00
	00 00		 mov	 DWORD PTR [ecx+28], 0

; 773  : }

  0000e	c3		 ret	 0
?ClearTime@CGuildCombat1to1Mng@@QAEXXZ ENDP		; CGuildCombat1to1Mng::ClearTime
_TEXT	ENDS
; Function compile flags: /Ogtp
; File C:\IAGOS\server\v18\Source\Source\_Common\GuildCombat1to1.cpp
;	COMDAT ??1CGuildCombat1to1Mng@@UAE@XZ
_TEXT	SEGMENT
??1CGuildCombat1to1Mng@@UAE@XZ PROC			; CGuildCombat1to1Mng::~CGuildCombat1to1Mng, COMDAT
; _this$ = ecx

; 712  : {

  00000	c7 01 00 00 00
	00		 mov	 DWORD PTR [ecx], OFFSET ??_7CGuildCombat1to1Mng@@6B@

; 713  : 
; 714  : }

  00006	83 c1 20	 add	 ecx, 32			; 00000020H
  00009	e9 00 00 00 00	 jmp	 ??1CLuaBase@@UAE@XZ	; CLuaBase::~CLuaBase
??1CGuildCombat1to1Mng@@UAE@XZ ENDP			; CGuildCombat1to1Mng::~CGuildCombat1to1Mng
_TEXT	ENDS
; Function compile flags: /Ogtp
; File C:\IAGOS\server\v18\Source\Source\_Common\GuildCombat1to1.cpp
;	COMDAT ??0CGuildCombat1to1Mng@@QAE@XZ
_TEXT	SEGMENT
_this$ = -4						; size = 4
??0CGuildCombat1to1Mng@@QAE@XZ PROC			; CGuildCombat1to1Mng::CGuildCombat1to1Mng, COMDAT
; _this$ = ecx

; 685  : {

  00000	55		 push	 ebp
  00001	8b ec		 mov	 ebp, esp
  00003	51		 push	 ecx
  00004	56		 push	 esi
  00005	8b f1		 mov	 esi, ecx
  00007	89 75 fc	 mov	 DWORD PTR _this$[ebp], esi
  0000a	8d 4e 20	 lea	 ecx, DWORD PTR [esi+32]
  0000d	c7 06 00 00 00
	00		 mov	 DWORD PTR [esi], OFFSET ??_7CGuildCombat1to1Mng@@6B@
  00013	e8 00 00 00 00	 call	 ??0CLuaBase@@QAE@XZ	; CLuaBase::CLuaBase

; 686  : 	m_nJoinPenya = 0;
; 687  : 	m_nMaxJoinPlayer = 0;
; 688  : 	m_nMinJoinPlayer = 0;
; 689  : 	m_nMinJoinPlayerLevel = 0;
; 690  : #ifdef __DBSERVER
; 691  : 	m_nCombatId = 0;
; 692  : #endif // __DBSERVER
; 693  : #if defined(__WORLDSERVER) || defined(__DBSERVER)
; 694  : 	m_nGuildLevel = 0;
; 695  : 	m_nPlayerLife = 0;
; 696  : 	m_nMaxJoinGuild = 0;
; 697  : 	m_nMinJoinGuild = 0;
; 698  : 	m_nCancelReturnRate = 0;
; 699  : 	m_nFailReturnRate = 0;
; 700  : #endif // __WORLDSERVER || __DBSERVER
; 701  : 	ClearTime();

  00018	8b ce		 mov	 ecx, esi
  0001a	c7 46 08 00 00
	00 00		 mov	 DWORD PTR [esi+8], 0
  00021	c7 46 0c 00 00
	00 00		 mov	 DWORD PTR [esi+12], 0
  00028	c7 46 10 00 00
	00 00		 mov	 DWORD PTR [esi+16], 0
  0002f	c7 46 14 00 00
	00 00		 mov	 DWORD PTR [esi+20], 0
  00036	c7 46 40 00 00
	00 00		 mov	 DWORD PTR [esi+64], 0
  0003d	c7 46 28 00 00
	00 00		 mov	 DWORD PTR [esi+40], 0
  00044	c7 46 2c 00 00
	00 00		 mov	 DWORD PTR [esi+44], 0
  0004b	c7 46 30 00 00
	00 00		 mov	 DWORD PTR [esi+48], 0
  00052	c7 46 34 00 00
	00 00		 mov	 DWORD PTR [esi+52], 0
  00059	c7 46 38 00 00
	00 00		 mov	 DWORD PTR [esi+56], 0
  00060	c7 46 3c 00 00
	00 00		 mov	 DWORD PTR [esi+60], 0
  00067	e8 00 00 00 00	 call	 ?ClearTime@CGuildCombat1to1Mng@@QAEXXZ ; CGuildCombat1to1Mng::ClearTime

; 702  : 	m_nState = GC1TO1_CLOSE;

  0006c	c7 46 04 00 00
	00 00		 mov	 DWORD PTR [esi+4], 0

; 703  : #ifdef __CLIENT
; 704  : 	m_vecGuildCombat1to1_Players.clear();
; 705  : 	m_nGuildCombat1to1Guild = 0;
; 706  : 	m_nMyGuildCount = 0;
; 707  : 	m_nVsGuildCount = 0;
; 708  : #endif //__CLIENT
; 709  : }

  00073	8b c6		 mov	 eax, esi
  00075	5e		 pop	 esi
  00076	8b e5		 mov	 esp, ebp
  00078	5d		 pop	 ebp
  00079	c3		 ret	 0
??0CGuildCombat1to1Mng@@QAE@XZ ENDP			; CGuildCombat1to1Mng::CGuildCombat1to1Mng
_TEXT	ENDS
; Function compile flags: /Ogtp
; File C:\IAGOS\server\v18\Source\Source\_Common\GuildCombat1to1.cpp
;	COMDAT ?__empty_global_delete@@YAXPAXI@Z
_TEXT	SEGMENT
___formal$ = 8						; size = 4
___formal$ = 12						; size = 4
?__empty_global_delete@@YAXPAXI@Z PROC			; __empty_global_delete, COMDAT

  00000	c2 00 00	 ret	 0
?__empty_global_delete@@YAXPAXI@Z ENDP			; __empty_global_delete
_TEXT	ENDS
; Function compile flags: /Ogtp
; File C:\IAGOS\server\v18\Source\Source\_Common\GuildCombat1to1.cpp
;	COMDAT ?__empty_global_delete@@YAXPAX@Z
_TEXT	SEGMENT
___formal$ = 8						; size = 4
?__empty_global_delete@@YAXPAX@Z PROC			; __empty_global_delete, COMDAT

  00000	c2 00 00	 ret	 0
?__empty_global_delete@@YAXPAX@Z ENDP			; __empty_global_delete
_TEXT	ENDS
END
