; Listing generated by Microsoft (R) Optimizing Compiler Version 19.44.35225.0 

	TITLE	C:\IAGOS\server\v18\Source\Output\DatabaseServer\Release\honor.obj
	.686P
	.XMM
	include listing.inc
	.model	flat

INCLUDELIB LIBCMT
INCLUDELIB OLDNAMES

PUBLIC	?__empty_global_delete@@YAXPAX@Z		; __empty_global_delete
PUBLIC	?__empty_global_delete@@YAXPAXI@Z		; __empty_global_delete
PUBLIC	?AtlThrowImpl@ATL@@YGXJ@Z			; ATL::AtlThrowImpl
PUBLIC	??4?$CSimpleStringT@D$0A@@ATL@@QAEAAV01@ABV01@@Z ; ATL::CSimpleStringT<char,0>::operator=
PUBLIC	?Empty@?$CSimpleStringT@D$0A@@ATL@@QAEXXZ	; ATL::CSimpleStringT<char,0>::Empty
PUBLIC	?ThrowMemoryException@?$CSimpleStringT@D$0A@@ATL@@KAXXZ ; ATL::CSimpleStringT<char,0>::ThrowMemoryException
PUBLIC	?Fork@?$CSimpleStringT@D$0A@@ATL@@AAEXH@Z	; ATL::CSimpleStringT<char,0>::Fork
PUBLIC	?PrepareWrite2@?$CSimpleStringT@D$0A@@ATL@@AAEXH@Z ; ATL::CSimpleStringT<char,0>::PrepareWrite2
PUBLIC	?Reallocate@?$CSimpleStringT@D$0A@@ATL@@AAEXH@Z	; ATL::CSimpleStringT<char,0>::Reallocate
PUBLIC	?CloneData@?$CSimpleStringT@D$0A@@ATL@@CAPAUCStringData@2@PAU32@@Z ; ATL::CSimpleStringT<char,0>::CloneData
PUBLIC	??1?$CStringT@DV?$StrTraitMFC@DV?$ChTraitsCRT@D@ATL@@@@@ATL@@QAE@XZ ; ATL::CStringT<char,StrTraitMFC<char,ATL::ChTraitsCRT<char> > >::~CStringT<char,StrTraitMFC<char,ATL::ChTraitsCRT<char> > >
PUBLIC	??0exception@std@@QAE@ABV01@@Z			; std::exception::exception
PUBLIC	??1exception@std@@UAE@XZ			; std::exception::~exception
PUBLIC	?what@exception@std@@UBEPBDXZ			; std::exception::what
PUBLIC	??_Gexception@std@@UAEPAXI@Z			; std::exception::`scalar deleting destructor'
PUBLIC	??0bad_alloc@std@@QAE@ABV01@@Z			; std::bad_alloc::bad_alloc
PUBLIC	??_Gbad_alloc@std@@UAEPAXI@Z			; std::bad_alloc::`scalar deleting destructor'
PUBLIC	??0bad_array_new_length@std@@QAE@XZ		; std::bad_array_new_length::bad_array_new_length
PUBLIC	??1bad_array_new_length@std@@UAE@XZ		; std::bad_array_new_length::~bad_array_new_length
PUBLIC	??0bad_array_new_length@std@@QAE@ABV01@@Z	; std::bad_array_new_length::bad_array_new_length
PUBLIC	??_Gbad_array_new_length@std@@UAEPAXI@Z		; std::bad_array_new_length::`scalar deleting destructor'
PUBLIC	?_Throw_bad_array_new_length@std@@YAXXZ		; std::_Throw_bad_array_new_length
PUBLIC	?_Throw_tree_length_error@std@@YAXXZ		; std::_Throw_tree_length_error
PUBLIC	??$_Allocate_manually_vector_aligned@U_Default_allocate_traits@std@@@std@@YAPAXI@Z ; std::_Allocate_manually_vector_aligned<std::_Default_allocate_traits>
PUBLIC	??1HonorData@@QAE@XZ				; HonorData::~HonorData
PUBLIC	??0HonorData@@QAE@ABU0@@Z			; HonorData::HonorData
PUBLIC	?_Insert_node@?$_Tree_val@U?$_Tree_simple_types@U?$pair@$$CBHUHonorData@@@std@@@std@@@std@@QAEPAU?$_Tree_node@U?$pair@$$CBHUHonorData@@@std@@PAX@2@U?$_Tree_id@PAU?$_Tree_node@U?$pair@$$CBHUHonorData@@@std@@PAX@std@@@2@QAU32@@Z ; std::_Tree_val<std::_Tree_simple_types<std::pair<int const ,HonorData> > >::_Insert_node
PUBLIC	??1?$map@HUHonorData@@U?$less@H@std@@V?$allocator@U?$pair@$$CBHUHonorData@@@std@@@3@@std@@QAE@XZ ; std::map<int,HonorData,std::less<int>,std::allocator<std::pair<int const ,HonorData> > >::~map<int,HonorData,std::less<int>,std::allocator<std::pair<int const ,HonorData> > >
PUBLIC	??0CTitleManager@@QAE@XZ			; CTitleManager::CTitleManager
PUBLIC	??1CTitleManager@@QAE@XZ			; CTitleManager::~CTitleManager
PUBLIC	?Instance@CTitleManager@@SAPAV1@XZ		; CTitleManager::Instance
PUBLIC	?LoadTitle@CTitleManager@@QAEHPBD@Z		; CTitleManager::LoadTitle
PUBLIC	?GetTitle@CTitleManager@@QAEPADH@Z		; CTitleManager::GetTitle
PUBLIC	?GetNeedCount@CTitleManager@@QAEHHH@Z		; CTitleManager::GetNeedCount
PUBLIC	?GetIdxType@CTitleManager@@QAEHH@Z		; CTitleManager::GetIdxType
PUBLIC	?GetIdx@CTitleManager@@QAEHHH@Z			; CTitleManager::GetIdx
PUBLIC	?GetHonorDataByID@CTitleManager@@QAEPAUHonorData@@HH@Z ; CTitleManager::GetHonorDataByID
PUBLIC	?GetIdxByName@CTitleManager@@QAEHPBD@Z		; CTitleManager::GetIdxByName
PUBLIC	?GetIdxByGroup@CTitleManager@@QAEHHH@Z		; CTitleManager::GetIdxByGroup
PUBLIC	??1?$pair@$$CBHUHonorData@@@std@@QAE@XZ		; std::pair<int const ,HonorData>::~pair<int const ,HonorData>
PUBLIC	??$_Erase_tree@V?$allocator@U?$_Tree_node@U?$pair@$$CBHUHonorData@@@std@@PAX@std@@@std@@@?$_Tree_val@U?$_Tree_simple_types@U?$pair@$$CBHUHonorData@@@std@@@std@@@std@@QAEXAAV?$allocator@U?$_Tree_node@U?$pair@$$CBHUHonorData@@@std@@PAX@std@@@1@PAU?$_Tree_node@U?$pair@$$CBHUHonorData@@@std@@PAX@1@@Z ; std::_Tree_val<std::_Tree_simple_types<std::pair<int const ,HonorData> > >::_Erase_tree<std::allocator<std::_Tree_node<std::pair<int const ,HonorData>,void *> > >
PUBLIC	??$_Find_lower_bound@H@?$_Tree@V?$_Tmap_traits@HUHonorData@@U?$less@H@std@@V?$allocator@U?$pair@$$CBHUHonorData@@@std@@@3@$0A@@std@@@std@@IBE?AU?$_Tree_find_result@PAU?$_Tree_node@U?$pair@$$CBHUHonorData@@@std@@PAX@std@@@1@ABH@Z ; std::_Tree<std::_Tmap_traits<int,HonorData,std::less<int>,std::allocator<std::pair<int const ,HonorData> >,0> >::_Find_lower_bound<int>
PUBLIC	??1?$_Alloc_construct_ptr@V?$allocator@U?$_Tree_node@U?$pair@$$CBHUHonorData@@@std@@PAX@std@@@std@@@std@@QAE@XZ ; std::_Alloc_construct_ptr<std::allocator<std::_Tree_node<std::pair<int const ,HonorData>,void *> > >::~_Alloc_construct_ptr<std::allocator<std::_Tree_node<std::pair<int const ,HonorData>,void *> > >
PUBLIC	??1?$_Tree_temp_node_alloc@V?$allocator@U?$_Tree_node@U?$pair@$$CBHUHonorData@@@std@@PAX@std@@@std@@@std@@QAE@XZ ; std::_Tree_temp_node_alloc<std::allocator<std::_Tree_node<std::pair<int const ,HonorData>,void *> > >::~_Tree_temp_node_alloc<std::allocator<std::_Tree_node<std::pair<int const ,HonorData>,void *> > >
PUBLIC	??_7exception@std@@6B@				; std::exception::`vftable'
PUBLIC	??_C@_0BC@EOODALEL@Unknown?5exception@		; `string'
PUBLIC	??_7bad_alloc@std@@6B@				; std::bad_alloc::`vftable'
PUBLIC	??_7bad_array_new_length@std@@6B@		; std::bad_array_new_length::`vftable'
PUBLIC	??_C@_0BF@KINCDENJ@bad?5array?5new?5length@	; `string'
PUBLIC	??_R0?AVexception@std@@@8			; std::exception `RTTI Type Descriptor'
PUBLIC	__CT??_R0?AVexception@std@@@8??0exception@std@@QAE@ABV01@@Z12
PUBLIC	__TI3?AVbad_array_new_length@std@@
PUBLIC	__CTA3?AVbad_array_new_length@std@@
PUBLIC	??_R0?AVbad_array_new_length@std@@@8		; std::bad_array_new_length `RTTI Type Descriptor'
PUBLIC	__CT??_R0?AVbad_array_new_length@std@@@8??0bad_array_new_length@std@@QAE@ABV01@@Z12
PUBLIC	??_R0?AVbad_alloc@std@@@8			; std::bad_alloc `RTTI Type Descriptor'
PUBLIC	__CT??_R0?AVbad_alloc@std@@@8??0bad_alloc@std@@QAE@ABV01@@Z12
PUBLIC	??_C@_0BB@GCADKGJO@map?1set?5too?5long@		; `string'
PUBLIC	??_R4exception@std@@6B@				; std::exception::`RTTI Complete Object Locator'
PUBLIC	??_R3exception@std@@8				; std::exception::`RTTI Class Hierarchy Descriptor'
PUBLIC	??_R2exception@std@@8				; std::exception::`RTTI Base Class Array'
PUBLIC	??_R1A@?0A@EA@exception@std@@8			; std::exception::`RTTI Base Class Descriptor at (0,-1,0,64)'
PUBLIC	??_R4bad_array_new_length@std@@6B@		; std::bad_array_new_length::`RTTI Complete Object Locator'
PUBLIC	??_R3bad_array_new_length@std@@8		; std::bad_array_new_length::`RTTI Class Hierarchy Descriptor'
PUBLIC	??_R2bad_array_new_length@std@@8		; std::bad_array_new_length::`RTTI Base Class Array'
PUBLIC	??_R1A@?0A@EA@bad_array_new_length@std@@8	; std::bad_array_new_length::`RTTI Base Class Descriptor at (0,-1,0,64)'
PUBLIC	??_R1A@?0A@EA@bad_alloc@std@@8			; std::bad_alloc::`RTTI Base Class Descriptor at (0,-1,0,64)'
PUBLIC	??_R3bad_alloc@std@@8				; std::bad_alloc::`RTTI Class Hierarchy Descriptor'
PUBLIC	??_R2bad_alloc@std@@8				; std::bad_alloc::`RTTI Base Class Array'
PUBLIC	??_R4bad_alloc@std@@6B@				; std::bad_alloc::`RTTI Complete Object Locator'
PUBLIC	??_C@_0BO@JKGKEJHM@Too?5many?5title?5about?5monster?$CB@ ; `string'
PUBLIC	??_C@_0BL@IDNKGEML@Too?5many?5title?5about?5item?$CB@ ; `string'
EXTRN	??2@YAPAXI@Z:PROC				; operator new
EXTRN	??3@YAXPAXI@Z:PROC				; operator delete
EXTRN	_atexit:PROC
EXTRN	__Init_thread_header:PROC
EXTRN	__Init_thread_abort:PROC
EXTRN	__Init_thread_footer:PROC
EXTRN	__invalid_parameter_noinfo:PROC
EXTRN	__invoke_watson:PROC
EXTRN	__errno:PROC
EXTRN	__imp__lstrcmpA@8:PROC
EXTRN	?AfxThrowMemoryException@@YGXXZ:PROC		; AfxThrowMemoryException
EXTRN	?AfxThrowOleException@@YGXJ@Z:PROC		; AfxThrowOleException
EXTRN	?AfxGetStringManager@@YGPAUIAtlStringMgr@ATL@@XZ:PROC ; AfxGetStringManager
EXTRN	?_Xlength_error@std@@YAXPBD@Z:PROC		; std::_Xlength_error
EXTRN	___std_exception_copy:PROC
EXTRN	___std_exception_destroy:PROC
EXTRN	??_Eexception@std@@UAEPAXI@Z:PROC		; std::exception::`vector deleting destructor'
EXTRN	??_Ebad_alloc@std@@UAEPAXI@Z:PROC		; std::bad_alloc::`vector deleting destructor'
EXTRN	??_Ebad_array_new_length@std@@UAEPAXI@Z:PROC	; std::bad_array_new_length::`vector deleting destructor'
EXTRN	?Error@@YAPBDPBDZZ:PROC				; Error
EXTRN	?GetNumber@CScanner@@QAEHH@Z:PROC		; CScanner::GetNumber
EXTRN	??0CScript@@QAE@H@Z:PROC			; CScript::CScript
EXTRN	??1CScript@@UAE@XZ:PROC				; CScript::~CScript
EXTRN	?Load@CScript@@QAEHPBDHH@Z:PROC			; CScript::Load
EXTRN	?GetToken@CScript@@UAEHH@Z:PROC			; CScript::GetToken
EXTRN	@__security_check_cookie@4:PROC
EXTRN	__CxxThrowException@8:PROC
EXTRN	___CxxFrameHandler3:PROC
EXTRN	__chkstk:PROC
EXTRN	_memcpy:PROC
EXTRN	_memmove:PROC
EXTRN	_memset:PROC
EXTRN	__Init_thread_epoch:DWORD
EXTRN	??_7type_info@@6B@:QWORD			; type_info::`vftable'
EXTRN	___security_cookie:DWORD
EXTRN	__tls_array:DWORD
EXTRN	__tls_index:DWORD
;	COMDAT ?tManager@?1??Instance@CTitleManager@@SAPAV2@XZ@4V2@A
_BSS	SEGMENT
?tManager@?1??Instance@CTitleManager@@SAPAV2@XZ@4V2@A DB 024H DUP (?) ; `CTitleManager::Instance'::`2'::tManager
_BSS	ENDS
;	COMDAT ?$TSS0@?1??Instance@CTitleManager@@SAPAV2@XZ@4HA
_BSS	SEGMENT
?$TSS0@?1??Instance@CTitleManager@@SAPAV2@XZ@4HA DD 01H DUP (?) ; `CTitleManager::Instance'::`2'::$TSS0
_BSS	ENDS
;	COMDAT ??_C@_0BL@IDNKGEML@Too?5many?5title?5about?5item?$CB@
CONST	SEGMENT
??_C@_0BL@IDNKGEML@Too?5many?5title?5about?5item?$CB@ DB 'Too many title '
	DB	'about item!', 00H				; `string'
CONST	ENDS
;	COMDAT ??_C@_0BO@JKGKEJHM@Too?5many?5title?5about?5monster?$CB@
CONST	SEGMENT
??_C@_0BO@JKGKEJHM@Too?5many?5title?5about?5monster?$CB@ DB 'Too many tit'
	DB	'le about monster!', 00H			; `string'
CONST	ENDS
;	COMDAT ??_R4bad_alloc@std@@6B@
rdata$r	SEGMENT
??_R4bad_alloc@std@@6B@ DD 00H				; std::bad_alloc::`RTTI Complete Object Locator'
	DD	00H
	DD	00H
	DD	FLAT:??_R0?AVbad_alloc@std@@@8
	DD	FLAT:??_R3bad_alloc@std@@8
rdata$r	ENDS
;	COMDAT ??_R2bad_alloc@std@@8
rdata$r	SEGMENT
??_R2bad_alloc@std@@8 DD FLAT:??_R1A@?0A@EA@bad_alloc@std@@8 ; std::bad_alloc::`RTTI Base Class Array'
	DD	FLAT:??_R1A@?0A@EA@exception@std@@8
rdata$r	ENDS
;	COMDAT ??_R3bad_alloc@std@@8
rdata$r	SEGMENT
??_R3bad_alloc@std@@8 DD 00H				; std::bad_alloc::`RTTI Class Hierarchy Descriptor'
	DD	00H
	DD	02H
	DD	FLAT:??_R2bad_alloc@std@@8
rdata$r	ENDS
;	COMDAT ??_R1A@?0A@EA@bad_alloc@std@@8
rdata$r	SEGMENT
??_R1A@?0A@EA@bad_alloc@std@@8 DD FLAT:??_R0?AVbad_alloc@std@@@8 ; std::bad_alloc::`RTTI Base Class Descriptor at (0,-1,0,64)'
	DD	01H
	DD	00H
	DD	0ffffffffH
	DD	00H
	DD	040H
	DD	FLAT:??_R3bad_alloc@std@@8
rdata$r	ENDS
;	COMDAT ??_R1A@?0A@EA@bad_array_new_length@std@@8
rdata$r	SEGMENT
??_R1A@?0A@EA@bad_array_new_length@std@@8 DD FLAT:??_R0?AVbad_array_new_length@std@@@8 ; std::bad_array_new_length::`RTTI Base Class Descriptor at (0,-1,0,64)'
	DD	02H
	DD	00H
	DD	0ffffffffH
	DD	00H
	DD	040H
	DD	FLAT:??_R3bad_array_new_length@std@@8
rdata$r	ENDS
;	COMDAT ??_R2bad_array_new_length@std@@8
rdata$r	SEGMENT
??_R2bad_array_new_length@std@@8 DD FLAT:??_R1A@?0A@EA@bad_array_new_length@std@@8 ; std::bad_array_new_length::`RTTI Base Class Array'
	DD	FLAT:??_R1A@?0A@EA@bad_alloc@std@@8
	DD	FLAT:??_R1A@?0A@EA@exception@std@@8
rdata$r	ENDS
;	COMDAT ??_R3bad_array_new_length@std@@8
rdata$r	SEGMENT
??_R3bad_array_new_length@std@@8 DD 00H			; std::bad_array_new_length::`RTTI Class Hierarchy Descriptor'
	DD	00H
	DD	03H
	DD	FLAT:??_R2bad_array_new_length@std@@8
rdata$r	ENDS
;	COMDAT ??_R4bad_array_new_length@std@@6B@
rdata$r	SEGMENT
??_R4bad_array_new_length@std@@6B@ DD 00H		; std::bad_array_new_length::`RTTI Complete Object Locator'
	DD	00H
	DD	00H
	DD	FLAT:??_R0?AVbad_array_new_length@std@@@8
	DD	FLAT:??_R3bad_array_new_length@std@@8
rdata$r	ENDS
;	COMDAT ??_R1A@?0A@EA@exception@std@@8
rdata$r	SEGMENT
??_R1A@?0A@EA@exception@std@@8 DD FLAT:??_R0?AVexception@std@@@8 ; std::exception::`RTTI Base Class Descriptor at (0,-1,0,64)'
	DD	00H
	DD	00H
	DD	0ffffffffH
	DD	00H
	DD	040H
	DD	FLAT:??_R3exception@std@@8
rdata$r	ENDS
;	COMDAT ??_R2exception@std@@8
rdata$r	SEGMENT
??_R2exception@std@@8 DD FLAT:??_R1A@?0A@EA@exception@std@@8 ; std::exception::`RTTI Base Class Array'
rdata$r	ENDS
;	COMDAT ??_R3exception@std@@8
rdata$r	SEGMENT
??_R3exception@std@@8 DD 00H				; std::exception::`RTTI Class Hierarchy Descriptor'
	DD	00H
	DD	01H
	DD	FLAT:??_R2exception@std@@8
rdata$r	ENDS
;	COMDAT ??_R4exception@std@@6B@
rdata$r	SEGMENT
??_R4exception@std@@6B@ DD 00H				; std::exception::`RTTI Complete Object Locator'
	DD	00H
	DD	00H
	DD	FLAT:??_R0?AVexception@std@@@8
	DD	FLAT:??_R3exception@std@@8
rdata$r	ENDS
;	COMDAT ??_C@_0BB@GCADKGJO@map?1set?5too?5long@
CONST	SEGMENT
??_C@_0BB@GCADKGJO@map?1set?5too?5long@ DB 'map/set too long', 00H ; `string'
CONST	ENDS
;	COMDAT __CT??_R0?AVbad_alloc@std@@@8??0bad_alloc@std@@QAE@ABV01@@Z12
xdata$x	SEGMENT
__CT??_R0?AVbad_alloc@std@@@8??0bad_alloc@std@@QAE@ABV01@@Z12 DD 010H
	DD	FLAT:??_R0?AVbad_alloc@std@@@8
	DD	00H
	DD	0ffffffffH
	ORG $+4
	DD	0cH
	DD	FLAT:??0bad_alloc@std@@QAE@ABV01@@Z
xdata$x	ENDS
;	COMDAT ??_R0?AVbad_alloc@std@@@8
data$r	SEGMENT
??_R0?AVbad_alloc@std@@@8 DD FLAT:??_7type_info@@6B@	; std::bad_alloc `RTTI Type Descriptor'
	DD	00H
	DB	'.?AVbad_alloc@std@@', 00H
data$r	ENDS
;	COMDAT __CT??_R0?AVbad_array_new_length@std@@@8??0bad_array_new_length@std@@QAE@ABV01@@Z12
xdata$x	SEGMENT
__CT??_R0?AVbad_array_new_length@std@@@8??0bad_array_new_length@std@@QAE@ABV01@@Z12 DD 00H
	DD	FLAT:??_R0?AVbad_array_new_length@std@@@8
	DD	00H
	DD	0ffffffffH
	ORG $+4
	DD	0cH
	DD	FLAT:??0bad_array_new_length@std@@QAE@ABV01@@Z
xdata$x	ENDS
;	COMDAT ??_R0?AVbad_array_new_length@std@@@8
data$r	SEGMENT
??_R0?AVbad_array_new_length@std@@@8 DD FLAT:??_7type_info@@6B@ ; std::bad_array_new_length `RTTI Type Descriptor'
	DD	00H
	DB	'.?AVbad_array_new_length@std@@', 00H
data$r	ENDS
;	COMDAT __CTA3?AVbad_array_new_length@std@@
xdata$x	SEGMENT
__CTA3?AVbad_array_new_length@std@@ DD 03H
	DD	FLAT:__CT??_R0?AVbad_array_new_length@std@@@8??0bad_array_new_length@std@@QAE@ABV01@@Z12
	DD	FLAT:__CT??_R0?AVbad_alloc@std@@@8??0bad_alloc@std@@QAE@ABV01@@Z12
	DD	FLAT:__CT??_R0?AVexception@std@@@8??0exception@std@@QAE@ABV01@@Z12
xdata$x	ENDS
;	COMDAT __TI3?AVbad_array_new_length@std@@
xdata$x	SEGMENT
__TI3?AVbad_array_new_length@std@@ DD 00H
	DD	FLAT:??1bad_array_new_length@std@@UAE@XZ
	DD	00H
	DD	FLAT:__CTA3?AVbad_array_new_length@std@@
xdata$x	ENDS
;	COMDAT __CT??_R0?AVexception@std@@@8??0exception@std@@QAE@ABV01@@Z12
xdata$x	SEGMENT
__CT??_R0?AVexception@std@@@8??0exception@std@@QAE@ABV01@@Z12 DD 00H
	DD	FLAT:??_R0?AVexception@std@@@8
	DD	00H
	DD	0ffffffffH
	ORG $+4
	DD	0cH
	DD	FLAT:??0exception@std@@QAE@ABV01@@Z
xdata$x	ENDS
;	COMDAT ??_R0?AVexception@std@@@8
data$r	SEGMENT
??_R0?AVexception@std@@@8 DD FLAT:??_7type_info@@6B@	; std::exception `RTTI Type Descriptor'
	DD	00H
	DB	'.?AVexception@std@@', 00H
data$r	ENDS
;	COMDAT ??_C@_0BF@KINCDENJ@bad?5array?5new?5length@
CONST	SEGMENT
??_C@_0BF@KINCDENJ@bad?5array?5new?5length@ DB 'bad array new length', 00H ; `string'
CONST	ENDS
;	COMDAT ??_7bad_array_new_length@std@@6B@
CONST	SEGMENT
??_7bad_array_new_length@std@@6B@ DD FLAT:??_R4bad_array_new_length@std@@6B@ ; std::bad_array_new_length::`vftable'
	DD	FLAT:??_Ebad_array_new_length@std@@UAEPAXI@Z
	DD	FLAT:?what@exception@std@@UBEPBDXZ
CONST	ENDS
;	COMDAT ??_7bad_alloc@std@@6B@
CONST	SEGMENT
??_7bad_alloc@std@@6B@ DD FLAT:??_R4bad_alloc@std@@6B@	; std::bad_alloc::`vftable'
	DD	FLAT:??_Ebad_alloc@std@@UAEPAXI@Z
	DD	FLAT:?what@exception@std@@UBEPBDXZ
CONST	ENDS
;	COMDAT ??_C@_0BC@EOODALEL@Unknown?5exception@
CONST	SEGMENT
??_C@_0BC@EOODALEL@Unknown?5exception@ DB 'Unknown exception', 00H ; `string'
CONST	ENDS
;	COMDAT ??_7exception@std@@6B@
CONST	SEGMENT
??_7exception@std@@6B@ DD FLAT:??_R4exception@std@@6B@	; std::exception::`vftable'
	DD	FLAT:??_Eexception@std@@UAEPAXI@Z
	DD	FLAT:?what@exception@std@@UBEPBDXZ
CONST	ENDS
;	COMDAT xdata$x
xdata$x	SEGMENT
__ehfuncinfo$??$_Freenode@V?$allocator@U?$_Tree_node@U?$pair@$$CBHUHonorData@@@std@@PAX@std@@@std@@@?$_Tree_node@U?$pair@$$CBHUHonorData@@@std@@PAX@std@@SAXAAV?$allocator@U?$_Tree_node@U?$pair@$$CBHUHonorData@@@std@@PAX@std@@@1@PAU01@@Z DD 019930522H
	DD	00H
	DD	00H
	DD	2 DUP(00H)
	DD	2 DUP(00H)
	DD	00H
	DD	05H
xdata$x	ENDS
;	COMDAT xdata$x
xdata$x	SEGMENT
__unwindtable$??$?0U?$pair@$$CBHUHonorData@@@std@@@?$_Tree_temp_node@V?$allocator@U?$_Tree_node@U?$pair@$$CBHUHonorData@@@std@@PAX@std@@@std@@@std@@QAE@AAV?$allocator@U?$_Tree_node@U?$pair@$$CBHUHonorData@@@std@@PAX@std@@@1@PAU?$_Tree_node@U?$pair@$$CBHUHonorData@@@std@@PAX@1@$$QAU?$pair@$$CBHUHonorData@@@1@@Z DD 0ffffffffH
	DD	FLAT:__unwindfunclet$??$?0U?$pair@$$CBHUHonorData@@@std@@@?$_Tree_temp_node@V?$allocator@U?$_Tree_node@U?$pair@$$CBHUHonorData@@@std@@PAX@std@@@std@@@std@@QAE@AAV?$allocator@U?$_Tree_node@U?$pair@$$CBHUHonorData@@@std@@PAX@std@@@1@PAU?$_Tree_node@U?$pair@$$CBHUHonorData@@@std@@PAX@1@$$QAU?$pair@$$CBHUHonorData@@@1@@Z$1
	DD	0ffffffffH
	DD	FLAT:__unwindfunclet$??$?0U?$pair@$$CBHUHonorData@@@std@@@?$_Tree_temp_node@V?$allocator@U?$_Tree_node@U?$pair@$$CBHUHonorData@@@std@@PAX@std@@@std@@@std@@QAE@AAV?$allocator@U?$_Tree_node@U?$pair@$$CBHUHonorData@@@std@@PAX@std@@@1@PAU?$_Tree_node@U?$pair@$$CBHUHonorData@@@std@@PAX@1@$$QAU?$pair@$$CBHUHonorData@@@1@@Z$0
__ehfuncinfo$??$?0U?$pair@$$CBHUHonorData@@@std@@@?$_Tree_temp_node@V?$allocator@U?$_Tree_node@U?$pair@$$CBHUHonorData@@@std@@PAX@std@@@std@@@std@@QAE@AAV?$allocator@U?$_Tree_node@U?$pair@$$CBHUHonorData@@@std@@PAX@std@@@1@PAU?$_Tree_node@U?$pair@$$CBHUHonorData@@@std@@PAX@1@$$QAU?$pair@$$CBHUHonorData@@@1@@Z DD 019930522H
	DD	02H
	DD	FLAT:__unwindtable$??$?0U?$pair@$$CBHUHonorData@@@std@@@?$_Tree_temp_node@V?$allocator@U?$_Tree_node@U?$pair@$$CBHUHonorData@@@std@@PAX@std@@@std@@@std@@QAE@AAV?$allocator@U?$_Tree_node@U?$pair@$$CBHUHonorData@@@std@@PAX@std@@@1@PAU?$_Tree_node@U?$pair@$$CBHUHonorData@@@std@@PAX@1@$$QAU?$pair@$$CBHUHonorData@@@1@@Z
	DD	2 DUP(00H)
	DD	2 DUP(00H)
	DD	00H
	DD	01H
xdata$x	ENDS
;	COMDAT xdata$x
xdata$x	SEGMENT
__ehfuncinfo$??1?$_Tree_temp_node@V?$allocator@U?$_Tree_node@U?$pair@$$CBHUHonorData@@@std@@PAX@std@@@std@@@std@@QAE@XZ DD 019930522H
	DD	00H
	DD	00H
	DD	2 DUP(00H)
	DD	2 DUP(00H)
	DD	00H
	DD	05H
xdata$x	ENDS
;	COMDAT xdata$x
xdata$x	SEGMENT
__unwindtable$??0?$_Tree_temp_node_alloc@V?$allocator@U?$_Tree_node@U?$pair@$$CBHUHonorData@@@std@@PAX@std@@@std@@@std@@QAE@AAV?$allocator@U?$_Tree_node@U?$pair@$$CBHUHonorData@@@std@@PAX@std@@@1@@Z DD 0ffffffffH
	DD	FLAT:__unwindfunclet$??0?$_Tree_temp_node_alloc@V?$allocator@U?$_Tree_node@U?$pair@$$CBHUHonorData@@@std@@PAX@std@@@std@@@std@@QAE@AAV?$allocator@U?$_Tree_node@U?$pair@$$CBHUHonorData@@@std@@PAX@std@@@1@@Z$0
__ehfuncinfo$??0?$_Tree_temp_node_alloc@V?$allocator@U?$_Tree_node@U?$pair@$$CBHUHonorData@@@std@@PAX@std@@@std@@@std@@QAE@AAV?$allocator@U?$_Tree_node@U?$pair@$$CBHUHonorData@@@std@@PAX@std@@@1@@Z DD 019930522H
	DD	01H
	DD	FLAT:__unwindtable$??0?$_Tree_temp_node_alloc@V?$allocator@U?$_Tree_node@U?$pair@$$CBHUHonorData@@@std@@PAX@std@@@std@@@std@@QAE@AAV?$allocator@U?$_Tree_node@U?$pair@$$CBHUHonorData@@@std@@PAX@std@@@1@@Z
	DD	2 DUP(00H)
	DD	2 DUP(00H)
	DD	00H
	DD	01H
xdata$x	ENDS
;	COMDAT xdata$x
xdata$x	SEGMENT
__ehfuncinfo$??$_Erase_tree@V?$allocator@U?$_Tree_node@U?$pair@$$CBHUHonorData@@@std@@PAX@std@@@std@@@?$_Tree_val@U?$_Tree_simple_types@U?$pair@$$CBHUHonorData@@@std@@@std@@@std@@QAEXAAV?$allocator@U?$_Tree_node@U?$pair@$$CBHUHonorData@@@std@@PAX@std@@@1@PAU?$_Tree_node@U?$pair@$$CBHUHonorData@@@std@@PAX@1@@Z DD 019930522H
	DD	00H
	DD	00H
	DD	2 DUP(00H)
	DD	2 DUP(00H)
	DD	00H
	DD	05H
xdata$x	ENDS
;	COMDAT xdata$x
xdata$x	SEGMENT
__unwindtable$??$_Emplace@U?$pair@$$CBHUHonorData@@@std@@@?$_Tree@V?$_Tmap_traits@HUHonorData@@U?$less@H@std@@V?$allocator@U?$pair@$$CBHUHonorData@@@std@@@3@$0A@@std@@@std@@IAE?AU?$pair@PAU?$_Tree_node@U?$pair@$$CBHUHonorData@@@std@@PAX@std@@_N@1@$$QAU?$pair@$$CBHUHonorData@@@1@@Z DD 0ffffffffH
	DD	FLAT:__unwindfunclet$??$_Emplace@U?$pair@$$CBHUHonorData@@@std@@@?$_Tree@V?$_Tmap_traits@HUHonorData@@U?$less@H@std@@V?$allocator@U?$pair@$$CBHUHonorData@@@std@@@3@$0A@@std@@@std@@IAE?AU?$pair@PAU?$_Tree_node@U?$pair@$$CBHUHonorData@@@std@@PAX@std@@_N@1@$$QAU?$pair@$$CBHUHonorData@@@1@@Z$2
	DD	0ffffffffH
	DD	FLAT:__unwindfunclet$??$_Emplace@U?$pair@$$CBHUHonorData@@@std@@@?$_Tree@V?$_Tmap_traits@HUHonorData@@U?$less@H@std@@V?$allocator@U?$pair@$$CBHUHonorData@@@std@@@3@$0A@@std@@@std@@IAE?AU?$pair@PAU?$_Tree_node@U?$pair@$$CBHUHonorData@@@std@@PAX@std@@_N@1@$$QAU?$pair@$$CBHUHonorData@@@1@@Z$1
__ehfuncinfo$??$_Emplace@U?$pair@$$CBHUHonorData@@@std@@@?$_Tree@V?$_Tmap_traits@HUHonorData@@U?$less@H@std@@V?$allocator@U?$pair@$$CBHUHonorData@@@std@@@3@$0A@@std@@@std@@IAE?AU?$pair@PAU?$_Tree_node@U?$pair@$$CBHUHonorData@@@std@@PAX@std@@_N@1@$$QAU?$pair@$$CBHUHonorData@@@1@@Z DD 019930522H
	DD	02H
	DD	FLAT:__unwindtable$??$_Emplace@U?$pair@$$CBHUHonorData@@@std@@@?$_Tree@V?$_Tmap_traits@HUHonorData@@U?$less@H@std@@V?$allocator@U?$pair@$$CBHUHonorData@@@std@@@3@$0A@@std@@@std@@IAE?AU?$pair@PAU?$_Tree_node@U?$pair@$$CBHUHonorData@@@std@@PAX@std@@_N@1@$$QAU?$pair@$$CBHUHonorData@@@1@@Z
	DD	2 DUP(00H)
	DD	2 DUP(00H)
	DD	00H
	DD	01H
xdata$x	ENDS
;	COMDAT xdata$x
xdata$x	SEGMENT
__unwindtable$??$insert@$0A@$0A@@?$_Tree@V?$_Tmap_traits@HUHonorData@@U?$less@H@std@@V?$allocator@U?$pair@$$CBHUHonorData@@@std@@@3@$0A@@std@@@std@@QAE?AU?$pair@V?$_Tree_iterator@V?$_Tree_val@U?$_Tree_simple_types@U?$pair@$$CBHUHonorData@@@std@@@std@@@std@@@std@@_N@1@$$QAU?$pair@$$CBHUHonorData@@@1@@Z DD 0ffffffffH
	DD	FLAT:__unwindfunclet$??$insert@$0A@$0A@@?$_Tree@V?$_Tmap_traits@HUHonorData@@U?$less@H@std@@V?$allocator@U?$pair@$$CBHUHonorData@@@std@@@3@$0A@@std@@@std@@QAE?AU?$pair@V?$_Tree_iterator@V?$_Tree_val@U?$_Tree_simple_types@U?$pair@$$CBHUHonorData@@@std@@@std@@@std@@@std@@_N@1@$$QAU?$pair@$$CBHUHonorData@@@1@@Z$2
	DD	0ffffffffH
	DD	FLAT:__unwindfunclet$??$insert@$0A@$0A@@?$_Tree@V?$_Tmap_traits@HUHonorData@@U?$less@H@std@@V?$allocator@U?$pair@$$CBHUHonorData@@@std@@@3@$0A@@std@@@std@@QAE?AU?$pair@V?$_Tree_iterator@V?$_Tree_val@U?$_Tree_simple_types@U?$pair@$$CBHUHonorData@@@std@@@std@@@std@@@std@@_N@1@$$QAU?$pair@$$CBHUHonorData@@@1@@Z$1
__ehfuncinfo$??$insert@$0A@$0A@@?$_Tree@V?$_Tmap_traits@HUHonorData@@U?$less@H@std@@V?$allocator@U?$pair@$$CBHUHonorData@@@std@@@3@$0A@@std@@@std@@QAE?AU?$pair@V?$_Tree_iterator@V?$_Tree_val@U?$_Tree_simple_types@U?$pair@$$CBHUHonorData@@@std@@@std@@@std@@@std@@_N@1@$$QAU?$pair@$$CBHUHonorData@@@1@@Z DD 019930522H
	DD	02H
	DD	FLAT:__unwindtable$??$insert@$0A@$0A@@?$_Tree@V?$_Tmap_traits@HUHonorData@@U?$less@H@std@@V?$allocator@U?$pair@$$CBHUHonorData@@@std@@@3@$0A@@std@@@std@@QAE?AU?$pair@V?$_Tree_iterator@V?$_Tree_val@U?$_Tree_simple_types@U?$pair@$$CBHUHonorData@@@std@@@std@@@std@@@std@@_N@1@$$QAU?$pair@$$CBHUHonorData@@@1@@Z
	DD	2 DUP(00H)
	DD	2 DUP(00H)
	DD	00H
	DD	01H
xdata$x	ENDS
;	COMDAT xdata$x
xdata$x	SEGMENT
__ehfuncinfo$??_G?$pair@$$CBHUHonorData@@@std@@QAEPAXI@Z DD 019930522H
	DD	00H
	DD	00H
	DD	2 DUP(00H)
	DD	2 DUP(00H)
	DD	00H
	DD	05H
xdata$x	ENDS
;	COMDAT xdata$x
xdata$x	SEGMENT
__ehfuncinfo$??1?$pair@$$CBHUHonorData@@@std@@QAE@XZ DD 019930522H
	DD	00H
	DD	00H
	DD	2 DUP(00H)
	DD	2 DUP(00H)
	DD	00H
	DD	05H
xdata$x	ENDS
;	COMDAT xdata$x
xdata$x	SEGMENT
__ehfuncinfo$?LoadTitle@CTitleManager@@QAEHPBD@Z DD 019930522H
	DD	014H
	DD	FLAT:__unwindtable$?LoadTitle@CTitleManager@@QAEHPBD@Z
	DD	2 DUP(00H)
	DD	2 DUP(00H)
	DD	00H
	DD	01H
__unwindtable$?LoadTitle@CTitleManager@@QAEHPBD@Z DD 0ffffffffH
	DD	FLAT:__unwindfunclet$?LoadTitle@CTitleManager@@QAEHPBD@Z$0
	DD	00H
	DD	FLAT:__unwindfunclet$?LoadTitle@CTitleManager@@QAEHPBD@Z$1
	DD	01H
	DD	FLAT:__unwindfunclet$?LoadTitle@CTitleManager@@QAEHPBD@Z$2
	DD	02H
	DD	FLAT:__unwindfunclet$?LoadTitle@CTitleManager@@QAEHPBD@Z$43
	DD	02H
	DD	FLAT:__unwindfunclet$?LoadTitle@CTitleManager@@QAEHPBD@Z$42
	DD	01H
	DD	FLAT:__unwindfunclet$?LoadTitle@CTitleManager@@QAEHPBD@Z$3
	DD	05H
	DD	FLAT:__unwindfunclet$?LoadTitle@CTitleManager@@QAEHPBD@Z$58
	DD	05H
	DD	FLAT:__unwindfunclet$?LoadTitle@CTitleManager@@QAEHPBD@Z$57
	DD	01H
	DD	FLAT:__unwindfunclet$?LoadTitle@CTitleManager@@QAEHPBD@Z$4
	DD	08H
	DD	FLAT:__unwindfunclet$?LoadTitle@CTitleManager@@QAEHPBD@Z$73
	DD	08H
	DD	FLAT:__unwindfunclet$?LoadTitle@CTitleManager@@QAEHPBD@Z$72
	DD	01H
	DD	FLAT:__unwindfunclet$?LoadTitle@CTitleManager@@QAEHPBD@Z$5
	DD	0bH
	DD	FLAT:__unwindfunclet$?LoadTitle@CTitleManager@@QAEHPBD@Z$88
	DD	0bH
	DD	FLAT:__unwindfunclet$?LoadTitle@CTitleManager@@QAEHPBD@Z$87
	DD	01H
	DD	FLAT:__unwindfunclet$?LoadTitle@CTitleManager@@QAEHPBD@Z$6
	DD	0eH
	DD	FLAT:__unwindfunclet$?LoadTitle@CTitleManager@@QAEHPBD@Z$13
	DD	0eH
	DD	FLAT:__unwindfunclet$?LoadTitle@CTitleManager@@QAEHPBD@Z$12
	DD	01H
	DD	FLAT:__unwindfunclet$?LoadTitle@CTitleManager@@QAEHPBD@Z$7
	DD	011H
	DD	FLAT:__unwindfunclet$?LoadTitle@CTitleManager@@QAEHPBD@Z$28
	DD	011H
	DD	FLAT:__unwindfunclet$?LoadTitle@CTitleManager@@QAEHPBD@Z$27
xdata$x	ENDS
;	COMDAT xdata$x
xdata$x	SEGMENT
__unwindtable$?Instance@CTitleManager@@SAPAV1@XZ DD 0ffffffffH
	DD	FLAT:__unwindfunclet$?Instance@CTitleManager@@SAPAV1@XZ$0
__ehfuncinfo$?Instance@CTitleManager@@SAPAV1@XZ DD 019930522H
	DD	01H
	DD	FLAT:__unwindtable$?Instance@CTitleManager@@SAPAV1@XZ
	DD	2 DUP(00H)
	DD	2 DUP(00H)
	DD	00H
	DD	01H
xdata$x	ENDS
;	COMDAT xdata$x
xdata$x	SEGMENT
__unwindtable$??0CTitleManager@@QAE@XZ DD 0ffffffffH
	DD	FLAT:__unwindfunclet$??0CTitleManager@@QAE@XZ$0
	DD	00H
	DD	FLAT:__unwindfunclet$??0CTitleManager@@QAE@XZ$1
	DD	01H
	DD	FLAT:__unwindfunclet$??0CTitleManager@@QAE@XZ$2
__ehfuncinfo$??0CTitleManager@@QAE@XZ DD 019930522H
	DD	03H
	DD	FLAT:__unwindtable$??0CTitleManager@@QAE@XZ
	DD	2 DUP(00H)
	DD	2 DUP(00H)
	DD	00H
	DD	01H
xdata$x	ENDS
;	COMDAT xdata$x
xdata$x	SEGMENT
__ehfuncinfo$??1HonorData@@QAE@XZ DD 019930522H
	DD	00H
	DD	00H
	DD	2 DUP(00H)
	DD	2 DUP(00H)
	DD	00H
	DD	05H
xdata$x	ENDS
; Function compile flags: /Ogtp
; File C:\Program Files\Microsoft Visual Studio\2022\Professional\VC\Tools\MSVC\14.44.35207\include\xmemory
;	COMDAT ??1?$_Tree_temp_node_alloc@V?$allocator@U?$_Tree_node@U?$pair@$$CBHUHonorData@@@std@@PAX@std@@@std@@@std@@QAE@XZ
_TEXT	SEGMENT
??1?$_Tree_temp_node_alloc@V?$allocator@U?$_Tree_node@U?$pair@$$CBHUHonorData@@@std@@PAX@std@@@std@@@std@@QAE@XZ PROC ; std::_Tree_temp_node_alloc<std::allocator<std::_Tree_node<std::pair<int const ,HonorData>,void *> > >::~_Tree_temp_node_alloc<std::allocator<std::_Tree_node<std::pair<int const ,HonorData>,void *> > >, COMDAT
; _this$ = ecx

; 1172 :         if (_Ptr) {

  00000	8b 41 04	 mov	 eax, DWORD PTR [ecx+4]
  00003	85 c0		 test	 eax, eax
  00005	74 0b		 je	 SHORT $LN13@Tree_temp_

; 289  :         ::operator delete(_Ptr, _Bytes);

  00007	6a 2c		 push	 44			; 0000002cH
  00009	50		 push	 eax
  0000a	e8 00 00 00 00	 call	 ??3@YAXPAXI@Z		; operator delete
  0000f	83 c4 08	 add	 esp, 8
$LN13@Tree_temp_:
  00012	c3		 ret	 0
??1?$_Tree_temp_node_alloc@V?$allocator@U?$_Tree_node@U?$pair@$$CBHUHonorData@@@std@@PAX@std@@@std@@@std@@QAE@XZ ENDP ; std::_Tree_temp_node_alloc<std::allocator<std::_Tree_node<std::pair<int const ,HonorData>,void *> > >::~_Tree_temp_node_alloc<std::allocator<std::_Tree_node<std::pair<int const ,HonorData>,void *> > >
_TEXT	ENDS
; Function compile flags: /Ogtp
; File C:\Program Files\Microsoft Visual Studio\2022\Professional\VC\Tools\MSVC\14.44.35207\include\xmemory
;	COMDAT ??1?$_Alloc_construct_ptr@V?$allocator@U?$_Tree_node@U?$pair@$$CBHUHonorData@@@std@@PAX@std@@@std@@@std@@QAE@XZ
_TEXT	SEGMENT
??1?$_Alloc_construct_ptr@V?$allocator@U?$_Tree_node@U?$pair@$$CBHUHonorData@@@std@@PAX@std@@@std@@@std@@QAE@XZ PROC ; std::_Alloc_construct_ptr<std::allocator<std::_Tree_node<std::pair<int const ,HonorData>,void *> > >::~_Alloc_construct_ptr<std::allocator<std::_Tree_node<std::pair<int const ,HonorData>,void *> > >, COMDAT
; _this$ = ecx

; 1172 :         if (_Ptr) {

  00000	8b 41 04	 mov	 eax, DWORD PTR [ecx+4]
  00003	85 c0		 test	 eax, eax
  00005	74 0b		 je	 SHORT $LN10@Alloc_cons

; 289  :         ::operator delete(_Ptr, _Bytes);

  00007	6a 2c		 push	 44			; 0000002cH
  00009	50		 push	 eax
  0000a	e8 00 00 00 00	 call	 ??3@YAXPAXI@Z		; operator delete
  0000f	83 c4 08	 add	 esp, 8
$LN10@Alloc_cons:

; 1173 :             _Al.deallocate(_Ptr, 1);
; 1174 :         }
; 1175 :     }

  00012	c3		 ret	 0
??1?$_Alloc_construct_ptr@V?$allocator@U?$_Tree_node@U?$pair@$$CBHUHonorData@@@std@@PAX@std@@@std@@@std@@QAE@XZ ENDP ; std::_Alloc_construct_ptr<std::allocator<std::_Tree_node<std::pair<int const ,HonorData>,void *> > >::~_Alloc_construct_ptr<std::allocator<std::_Tree_node<std::pair<int const ,HonorData>,void *> > >
_TEXT	ENDS
; Function compile flags: /Ogtp
; File C:\Program Files\Microsoft Visual Studio\2022\Professional\VC\Tools\MSVC\14.44.35207\include\xtree
; File C:\Program Files\Microsoft Visual Studio\2022\Professional\VC\Tools\MSVC\14.44.35207\include\type_traits
; File C:\Program Files\Microsoft Visual Studio\2022\Professional\VC\Tools\MSVC\14.44.35207\include\xtree
; File C:\Program Files\Microsoft Visual Studio\2022\Professional\VC\Tools\MSVC\14.44.35207\include\type_traits
; File C:\Program Files\Microsoft Visual Studio\2022\Professional\VC\Tools\MSVC\14.44.35207\include\xtree
;	COMDAT ??$_Find_lower_bound@H@?$_Tree@V?$_Tmap_traits@HUHonorData@@U?$less@H@std@@V?$allocator@U?$pair@$$CBHUHonorData@@@std@@@3@$0A@@std@@@std@@IBE?AU?$_Tree_find_result@PAU?$_Tree_node@U?$pair@$$CBHUHonorData@@@std@@PAX@std@@@1@ABH@Z
_TEXT	SEGMENT
___$ReturnUdt$ = 8					; size = 4
__Keyval$ = 12						; size = 4
??$_Find_lower_bound@H@?$_Tree@V?$_Tmap_traits@HUHonorData@@U?$less@H@std@@V?$allocator@U?$pair@$$CBHUHonorData@@@std@@@3@$0A@@std@@@std@@IBE?AU?$_Tree_find_result@PAU?$_Tree_node@U?$pair@$$CBHUHonorData@@@std@@PAX@std@@@1@ABH@Z PROC ; std::_Tree<std::_Tmap_traits<int,HonorData,std::less<int>,std::allocator<std::pair<int const ,HonorData> >,0> >::_Find_lower_bound<int>, COMDAT
; _this$ = ecx

; 1628 :     _Tree_find_result<_Nodeptr> _Find_lower_bound(const _Keyty& _Keyval) const {

  00000	55		 push	 ebp
  00001	8b ec		 mov	 ebp, esp

; 1629 :         const auto _Scary = _Get_scary();
; 1630 :         _Tree_find_result<_Nodeptr> _Result{{_Scary->_Myhead->_Parent, _Tree_child::_Right}, _Scary->_Myhead};

  00003	8b 09		 mov	 ecx, DWORD PTR [ecx]
  00005	8b 55 08	 mov	 edx, DWORD PTR ___$ReturnUdt$[ebp]
  00008	8b 41 04	 mov	 eax, DWORD PTR [ecx+4]
  0000b	89 02		 mov	 DWORD PTR [edx], eax
  0000d	c7 42 04 00 00
	00 00		 mov	 DWORD PTR [edx+4], 0
  00014	89 4a 08	 mov	 DWORD PTR [edx+8], ecx

; 1631 :         _Nodeptr _Trynode = _Result._Location._Parent;
; 1632 :         while (!_Trynode->_Isnil) {

  00017	80 78 0d 00	 cmp	 BYTE PTR [eax+13], 0
  0001b	75 28		 jne	 SHORT $LN13@Find_lower
; File C:\Program Files\Microsoft Visual Studio\2022\Professional\VC\Tools\MSVC\14.44.35207\include\type_traits

; 2380 :         return _Left < _Right;

  0001d	8b 4d 0c	 mov	 ecx, DWORD PTR __Keyval$[ebp]
  00020	56		 push	 esi
  00021	8b 31		 mov	 esi, DWORD PTR [ecx]
$LL2@Find_lower:
; File C:\Program Files\Microsoft Visual Studio\2022\Professional\VC\Tools\MSVC\14.44.35207\include\xtree

; 1633 :             _Result._Location._Parent = _Trynode;

  00023	89 02		 mov	 DWORD PTR [edx], eax
; File C:\Program Files\Microsoft Visual Studio\2022\Professional\VC\Tools\MSVC\14.44.35207\include\type_traits

; 2380 :         return _Left < _Right;

  00025	39 70 10	 cmp	 DWORD PTR [eax+16], esi
; File C:\Program Files\Microsoft Visual Studio\2022\Professional\VC\Tools\MSVC\14.44.35207\include\xtree

; 1634 :             if (_DEBUG_LT_PRED(_Getcomp(), _Traits::_Kfn(_Trynode->_Myval), _Keyval)) {

  00028	7d 07		 jge	 SHORT $LN4@Find_lower

; 1635 :                 _Result._Location._Child = _Tree_child::_Right;
; 1636 :                 _Trynode                 = _Trynode->_Right;

  0002a	8b 40 08	 mov	 eax, DWORD PTR [eax+8]
  0002d	33 c9		 xor	 ecx, ecx

; 1637 :             } else {

  0002f	eb 0a		 jmp	 SHORT $LN5@Find_lower
$LN4@Find_lower:

; 1638 :                 _Result._Location._Child = _Tree_child::_Left;
; 1639 :                 _Result._Bound           = _Trynode;

  00031	89 42 08	 mov	 DWORD PTR [edx+8], eax

; 1640 :                 _Trynode                 = _Trynode->_Left;

  00034	b9 01 00 00 00	 mov	 ecx, 1
  00039	8b 00		 mov	 eax, DWORD PTR [eax]
$LN5@Find_lower:

; 1631 :         _Nodeptr _Trynode = _Result._Location._Parent;
; 1632 :         while (!_Trynode->_Isnil) {

  0003b	89 4a 04	 mov	 DWORD PTR [edx+4], ecx
  0003e	80 78 0d 00	 cmp	 BYTE PTR [eax+13], 0
  00042	74 df		 je	 SHORT $LL2@Find_lower
  00044	5e		 pop	 esi
$LN13@Find_lower:

; 1641 :             }
; 1642 :         }
; 1643 : 
; 1644 :         return _Result;
; 1645 :     }

  00045	8b c2		 mov	 eax, edx
  00047	5d		 pop	 ebp
  00048	c2 08 00	 ret	 8
??$_Find_lower_bound@H@?$_Tree@V?$_Tmap_traits@HUHonorData@@U?$less@H@std@@V?$allocator@U?$pair@$$CBHUHonorData@@@std@@@3@$0A@@std@@@std@@IBE?AU?$_Tree_find_result@PAU?$_Tree_node@U?$pair@$$CBHUHonorData@@@std@@PAX@std@@@1@ABH@Z ENDP ; std::_Tree<std::_Tmap_traits<int,HonorData,std::less<int>,std::allocator<std::pair<int const ,HonorData> >,0> >::_Find_lower_bound<int>
_TEXT	ENDS
; Function compile flags: /Ogtp
; File C:\Program Files\Microsoft Visual Studio\2022\Professional\VC\Tools\MSVC\14.44.35207\include\xtree
; File C:\Program Files\Microsoft Visual Studio\2022\Professional\VC\Tools\MSVC\14.44.35207\include\utility
; File C:\Program Files\Microsoft Visual Studio\2022\Professional\VC\Tools\MSVC\14.44.35207\atlmfc\include\atlsimpstr.h
; File C:\Program Files\Microsoft Visual Studio\2022\Professional\VC\Tools\MSVC\14.44.35207\include\utility
; File C:\Program Files\Microsoft Visual Studio\2022\Professional\VC\Tools\MSVC\14.44.35207\atlmfc\include\atlsimpstr.h
; File C:\Program Files\Microsoft Visual Studio\2022\Professional\VC\Tools\MSVC\14.44.35207\include\xmemory
; File C:\Program Files\Microsoft Visual Studio\2022\Professional\VC\Tools\MSVC\14.44.35207\include\xtree
;	COMDAT ??$_Erase_tree@V?$allocator@U?$_Tree_node@U?$pair@$$CBHUHonorData@@@std@@PAX@std@@@std@@@?$_Tree_val@U?$_Tree_simple_types@U?$pair@$$CBHUHonorData@@@std@@@std@@@std@@QAEXAAV?$allocator@U?$_Tree_node@U?$pair@$$CBHUHonorData@@@std@@PAX@std@@@1@PAU?$_Tree_node@U?$pair@$$CBHUHonorData@@@std@@PAX@1@@Z
_TEXT	SEGMENT
__$EHRec$ = -12						; size = 12
__Al$ = 8						; size = 4
__Rootnode$ = 12					; size = 4
??$_Erase_tree@V?$allocator@U?$_Tree_node@U?$pair@$$CBHUHonorData@@@std@@PAX@std@@@std@@@?$_Tree_val@U?$_Tree_simple_types@U?$pair@$$CBHUHonorData@@@std@@@std@@@std@@QAEXAAV?$allocator@U?$_Tree_node@U?$pair@$$CBHUHonorData@@@std@@PAX@std@@@1@PAU?$_Tree_node@U?$pair@$$CBHUHonorData@@@std@@PAX@1@@Z PROC ; std::_Tree_val<std::_Tree_simple_types<std::pair<int const ,HonorData> > >::_Erase_tree<std::allocator<std::_Tree_node<std::pair<int const ,HonorData>,void *> > >, COMDAT
; _this$ = ecx

; 767  :     void _Erase_tree(_Alnode& _Al, _Nodeptr _Rootnode) noexcept {

  00000	55		 push	 ebp
  00001	8b ec		 mov	 ebp, esp
  00003	6a ff		 push	 -1
  00005	68 00 00 00 00	 push	 __ehhandler$??$_Erase_tree@V?$allocator@U?$_Tree_node@U?$pair@$$CBHUHonorData@@@std@@PAX@std@@@std@@@?$_Tree_val@U?$_Tree_simple_types@U?$pair@$$CBHUHonorData@@@std@@@std@@@std@@QAEXAAV?$allocator@U?$_Tree_node@U?$pair@$$CBHUHonorData@@@std@@PAX@std@@@1@PAU?$_Tree_node@U?$pair@$$CBHUHonorData@@@std@@PAX@1@@Z
  0000a	64 a1 00 00 00
	00		 mov	 eax, DWORD PTR fs:0
  00010	50		 push	 eax
  00011	53		 push	 ebx
  00012	56		 push	 esi
  00013	57		 push	 edi
  00014	a1 00 00 00 00	 mov	 eax, DWORD PTR ___security_cookie
  00019	33 c5		 xor	 eax, ebp
  0001b	50		 push	 eax
  0001c	8d 45 f4	 lea	 eax, DWORD PTR __$EHRec$[ebp]
  0001f	64 a3 00 00 00
	00		 mov	 DWORD PTR fs:0, eax
  00025	8b d9		 mov	 ebx, ecx

; 768  :         while (!_Rootnode->_Isnil) { // free subtrees, then node

  00027	8b 75 0c	 mov	 esi, DWORD PTR __Rootnode$[ebp]
  0002a	80 7e 0d 00	 cmp	 BYTE PTR [esi+13], 0
  0002e	75 3d		 jne	 SHORT $LN61@Erase_tree
$LL2@Erase_tree:

; 769  :             _Erase_tree(_Al, _Rootnode->_Right);

  00030	ff 76 08	 push	 DWORD PTR [esi+8]
  00033	8b cb		 mov	 ecx, ebx
  00035	ff 75 08	 push	 DWORD PTR __Al$[ebp]
  00038	e8 00 00 00 00	 call	 ??$_Erase_tree@V?$allocator@U?$_Tree_node@U?$pair@$$CBHUHonorData@@@std@@PAX@std@@@std@@@?$_Tree_val@U?$_Tree_simple_types@U?$pair@$$CBHUHonorData@@@std@@@std@@@std@@QAEXAAV?$allocator@U?$_Tree_node@U?$pair@$$CBHUHonorData@@@std@@PAX@std@@@1@PAU?$_Tree_node@U?$pair@$$CBHUHonorData@@@std@@PAX@1@@Z ; std::_Tree_val<std::_Tree_simple_types<std::pair<int const ,HonorData> > >::_Erase_tree<std::allocator<std::_Tree_node<std::pair<int const ,HonorData>,void *> > >
; File C:\Program Files\Microsoft Visual Studio\2022\Professional\VC\Tools\MSVC\14.44.35207\include\utility

; 773  :     _Ty _Old_val = static_cast<_Ty&&>(_Val);

  0003d	8b fe		 mov	 edi, esi
; File C:\Program Files\Microsoft Visual Studio\2022\Professional\VC\Tools\MSVC\14.44.35207\atlmfc\include\atlsimpstr.h

; 92   : 		if( _InterlockedDecrement( &nRefs ) <= 0 )

  0003f	83 c8 ff	 or	 eax, -1
; File C:\Program Files\Microsoft Visual Studio\2022\Professional\VC\Tools\MSVC\14.44.35207\include\utility

; 774  :     _Val         = static_cast<_Other&&>(_New_val);

  00042	8b 36		 mov	 esi, DWORD PTR [esi]
; File C:\Program Files\Microsoft Visual Studio\2022\Professional\VC\Tools\MSVC\14.44.35207\atlmfc\include\atlsimpstr.h

; 804  : 		return( reinterpret_cast< CStringData* >( m_pszData )-1 );

  00044	8b 57 28	 mov	 edx, DWORD PTR [edi+40]
  00047	83 ea 10	 sub	 edx, 16			; 00000010H

; 92   : 		if( _InterlockedDecrement( &nRefs ) <= 0 )

  0004a	f0 0f c1 42 0c	 lock	  xadd	 DWORD PTR [edx+12], eax
  0004f	48		 dec	 eax
  00050	85 c0		 test	 eax, eax
  00052	7f 08		 jg	 SHORT $LN37@Erase_tree

; 93   : 		{
; 94   : 			pStringMgr->Free( this );

  00054	8b 0a		 mov	 ecx, DWORD PTR [edx]
  00056	52		 push	 edx
  00057	8b 01		 mov	 eax, DWORD PTR [ecx]
  00059	ff 50 04	 call	 DWORD PTR [eax+4]
$LN37@Erase_tree:
; File C:\Program Files\Microsoft Visual Studio\2022\Professional\VC\Tools\MSVC\14.44.35207\include\xmemory

; 289  :         ::operator delete(_Ptr, _Bytes);

  0005c	6a 2c		 push	 44			; 0000002cH
  0005e	57		 push	 edi
  0005f	e8 00 00 00 00	 call	 ??3@YAXPAXI@Z		; operator delete
  00064	83 c4 08	 add	 esp, 8
; File C:\Program Files\Microsoft Visual Studio\2022\Professional\VC\Tools\MSVC\14.44.35207\include\xtree

; 768  :         while (!_Rootnode->_Isnil) { // free subtrees, then node

  00067	80 7e 0d 00	 cmp	 BYTE PTR [esi+13], 0
  0006b	74 c3		 je	 SHORT $LL2@Erase_tree
$LN61@Erase_tree:

; 770  :             _Alnode::value_type::_Freenode(_Al, _STD exchange(_Rootnode, _Rootnode->_Left));
; 771  :         }
; 772  :     }

  0006d	8b 4d f4	 mov	 ecx, DWORD PTR __$EHRec$[ebp]
  00070	64 89 0d 00 00
	00 00		 mov	 DWORD PTR fs:0, ecx
  00077	59		 pop	 ecx
  00078	5f		 pop	 edi
  00079	5e		 pop	 esi
  0007a	5b		 pop	 ebx
  0007b	8b e5		 mov	 esp, ebp
  0007d	5d		 pop	 ebp
  0007e	c2 08 00	 ret	 8
  00081	cc		 int	 3
  00082	cc		 int	 3
  00083	cc		 int	 3
  00084	cc		 int	 3
  00085	cc		 int	 3
_TEXT	ENDS
;	COMDAT text$x
text$x	SEGMENT
__ehhandler$??$_Erase_tree@V?$allocator@U?$_Tree_node@U?$pair@$$CBHUHonorData@@@std@@PAX@std@@@std@@@?$_Tree_val@U?$_Tree_simple_types@U?$pair@$$CBHUHonorData@@@std@@@std@@@std@@QAEXAAV?$allocator@U?$_Tree_node@U?$pair@$$CBHUHonorData@@@std@@PAX@std@@@1@PAU?$_Tree_node@U?$pair@$$CBHUHonorData@@@std@@PAX@1@@Z:
  00000	90		 npad	 1
  00001	90		 npad	 1
  00002	8b 54 24 08	 mov	 edx, DWORD PTR [esp+8]
  00006	8d 42 0c	 lea	 eax, DWORD PTR [edx+12]
  00009	8b 4a f0	 mov	 ecx, DWORD PTR [edx-16]
  0000c	33 c8		 xor	 ecx, eax
  0000e	e8 00 00 00 00	 call	 @__security_check_cookie@4
  00013	b8 00 00 00 00	 mov	 eax, OFFSET __ehfuncinfo$??$_Erase_tree@V?$allocator@U?$_Tree_node@U?$pair@$$CBHUHonorData@@@std@@PAX@std@@@std@@@?$_Tree_val@U?$_Tree_simple_types@U?$pair@$$CBHUHonorData@@@std@@@std@@@std@@QAEXAAV?$allocator@U?$_Tree_node@U?$pair@$$CBHUHonorData@@@std@@PAX@std@@@1@PAU?$_Tree_node@U?$pair@$$CBHUHonorData@@@std@@PAX@1@@Z
  00018	e9 00 00 00 00	 jmp	 ___CxxFrameHandler3
text$x	ENDS
??$_Erase_tree@V?$allocator@U?$_Tree_node@U?$pair@$$CBHUHonorData@@@std@@PAX@std@@@std@@@?$_Tree_val@U?$_Tree_simple_types@U?$pair@$$CBHUHonorData@@@std@@@std@@@std@@QAEXAAV?$allocator@U?$_Tree_node@U?$pair@$$CBHUHonorData@@@std@@PAX@std@@@1@PAU?$_Tree_node@U?$pair@$$CBHUHonorData@@@std@@PAX@1@@Z ENDP ; std::_Tree_val<std::_Tree_simple_types<std::pair<int const ,HonorData> > >::_Erase_tree<std::allocator<std::_Tree_node<std::pair<int const ,HonorData>,void *> > >
; Function compile flags: /Ogtp
; File C:\Program Files\Microsoft Visual Studio\2022\Professional\VC\Tools\MSVC\14.44.35207\atlmfc\include\atlsimpstr.h
;	COMDAT ??1?$pair@$$CBHUHonorData@@@std@@QAE@XZ
_TEXT	SEGMENT
__$EHRec$ = -12						; size = 12
??1?$pair@$$CBHUHonorData@@@std@@QAE@XZ PROC		; std::pair<int const ,HonorData>::~pair<int const ,HonorData>, COMDAT
; _this$ = ecx
  00000	55		 push	 ebp
  00001	8b ec		 mov	 ebp, esp
  00003	6a ff		 push	 -1
  00005	68 00 00 00 00	 push	 __ehhandler$??1?$pair@$$CBHUHonorData@@@std@@QAE@XZ
  0000a	64 a1 00 00 00
	00		 mov	 eax, DWORD PTR fs:0
  00010	50		 push	 eax
  00011	a1 00 00 00 00	 mov	 eax, DWORD PTR ___security_cookie
  00016	33 c5		 xor	 eax, ebp
  00018	50		 push	 eax
  00019	8d 45 f4	 lea	 eax, DWORD PTR __$EHRec$[ebp]
  0001c	64 a3 00 00 00
	00		 mov	 DWORD PTR fs:0, eax

; 804  : 		return( reinterpret_cast< CStringData* >( m_pszData )-1 );

  00022	8b 51 18	 mov	 edx, DWORD PTR [ecx+24]

; 92   : 		if( _InterlockedDecrement( &nRefs ) <= 0 )

  00025	83 c8 ff	 or	 eax, -1

; 804  : 		return( reinterpret_cast< CStringData* >( m_pszData )-1 );

  00028	83 ea 10	 sub	 edx, 16			; 00000010H

; 92   : 		if( _InterlockedDecrement( &nRefs ) <= 0 )

  0002b	f0 0f c1 42 0c	 lock	  xadd	 DWORD PTR [edx+12], eax
  00030	48		 dec	 eax
  00031	85 c0		 test	 eax, eax
  00033	7f 08		 jg	 SHORT $LN16@pair

; 93   : 		{
; 94   : 			pStringMgr->Free( this );

  00035	8b 0a		 mov	 ecx, DWORD PTR [edx]
  00037	52		 push	 edx
  00038	8b 01		 mov	 eax, DWORD PTR [ecx]
  0003a	ff 50 04	 call	 DWORD PTR [eax+4]
$LN16@pair:
  0003d	8b 4d f4	 mov	 ecx, DWORD PTR __$EHRec$[ebp]
  00040	64 89 0d 00 00
	00 00		 mov	 DWORD PTR fs:0, ecx
  00047	59		 pop	 ecx
  00048	8b e5		 mov	 esp, ebp
  0004a	5d		 pop	 ebp
  0004b	c3		 ret	 0
  0004c	cc		 int	 3
  0004d	cc		 int	 3
  0004e	cc		 int	 3
  0004f	cc		 int	 3
  00050	cc		 int	 3
_TEXT	ENDS
;	COMDAT text$x
text$x	SEGMENT
__ehhandler$??1?$pair@$$CBHUHonorData@@@std@@QAE@XZ:
  00000	90		 npad	 1
  00001	90		 npad	 1
  00002	8b 54 24 08	 mov	 edx, DWORD PTR [esp+8]
  00006	8d 42 0c	 lea	 eax, DWORD PTR [edx+12]
  00009	8b 4a fc	 mov	 ecx, DWORD PTR [edx-4]
  0000c	33 c8		 xor	 ecx, eax
  0000e	e8 00 00 00 00	 call	 @__security_check_cookie@4
  00013	b8 00 00 00 00	 mov	 eax, OFFSET __ehfuncinfo$??1?$pair@$$CBHUHonorData@@@std@@QAE@XZ
  00018	e9 00 00 00 00	 jmp	 ___CxxFrameHandler3
text$x	ENDS
??1?$pair@$$CBHUHonorData@@@std@@QAE@XZ ENDP		; std::pair<int const ,HonorData>::~pair<int const ,HonorData>
; Function compile flags: /Ogtp
;	COMDAT ??__FtManager@?1??Instance@CTitleManager@@SAPAV1@XZ@YAXXZ
text$yd	SEGMENT
??__FtManager@?1??Instance@CTitleManager@@SAPAV1@XZ@YAXXZ PROC ; `CTitleManager::Instance'::`2'::`dynamic atexit destructor for 'tManager'', COMDAT
  00000	b9 00 00 00 00	 mov	 ecx, OFFSET ?tManager@?1??Instance@CTitleManager@@SAPAV2@XZ@4V2@A
  00005	e9 00 00 00 00	 jmp	 ??1CTitleManager@@QAE@XZ ; CTitleManager::~CTitleManager
??__FtManager@?1??Instance@CTitleManager@@SAPAV1@XZ@YAXXZ ENDP ; `CTitleManager::Instance'::`2'::`dynamic atexit destructor for 'tManager''
text$yd	ENDS
; Function compile flags: /Ogtp
; File C:\IAGOS\server\v18\Source\Source\_Common\honor.cpp
; File C:\Program Files\Microsoft Visual Studio\2022\Professional\VC\Tools\MSVC\14.44.35207\include\xtree
; File C:\IAGOS\server\v18\Source\Source\_Common\honor.cpp
; File C:\Program Files\Microsoft Visual Studio\2022\Professional\VC\Tools\MSVC\14.44.35207\include\xtree
; File C:\IAGOS\server\v18\Source\Source\_Common\honor.cpp
; File C:\Program Files\Microsoft Visual Studio\2022\Professional\VC\Tools\MSVC\14.44.35207\include\xtree
; File C:\IAGOS\server\v18\Source\Source\_Common\honor.cpp
; File C:\Program Files\Microsoft Visual Studio\2022\Professional\VC\Tools\MSVC\14.44.35207\atlmfc\include\atlsimpstr.h
; File C:\IAGOS\server\v18\Source\Source\_Common\honor.cpp
; File C:\Program Files\Microsoft Visual Studio\2022\Professional\VC\Tools\MSVC\14.44.35207\atlmfc\include\atlsimpstr.h
; File C:\Program Files\Microsoft Visual Studio\2022\Professional\VC\Tools\MSVC\14.44.35207\include\xtree
; File C:\IAGOS\server\v18\Source\Source\_Common\honor.cpp
; File C:\Program Files\Microsoft Visual Studio\2022\Professional\VC\Tools\MSVC\14.44.35207\atlmfc\include\atlsimpstr.h
; File C:\IAGOS\server\v18\Source\Source\_Common\honor.cpp
;	COMDAT ?GetIdxByGroup@CTitleManager@@QAEHHH@Z
_TEXT	SEGMENT
tv605 = -12						; size = 4
_this$1$ = -8						; size = 4
tv606 = -4						; size = 4
_nLarge$ = 8						; size = 4
_nSmall$ = 12						; size = 4
?GetIdxByGroup@CTitleManager@@QAEHHH@Z PROC		; CTitleManager::GetIdxByGroup, COMDAT
; _this$ = ecx

; 472  : {

  00000	55		 push	 ebp
  00001	8b ec		 mov	 ebp, esp
  00003	83 ec 28	 sub	 esp, 40			; 00000028H
  00006	8b c1		 mov	 eax, ecx
; File C:\Program Files\Microsoft Visual Studio\2022\Professional\VC\Tools\MSVC\14.44.35207\include\xtree

; 237  :         return !(*this == _Right);

  00008	83 c9 ff	 or	 ecx, -1
; File C:\IAGOS\server\v18\Source\Source\_Common\honor.cpp

; 472  : {

  0000b	89 45 f8	 mov	 DWORD PTR _this$1$[ebp], eax
  0000e	53		 push	 ebx
  0000f	56		 push	 esi
; File C:\Program Files\Microsoft Visual Studio\2022\Professional\VC\Tools\MSVC\14.44.35207\include\xtree

; 1142 :         return iterator(_Scary->_Myhead->_Left, _Scary);

  00010	8b 40 10	 mov	 eax, DWORD PTR [eax+16]
; File C:\IAGOS\server\v18\Source\Source\_Common\honor.cpp

; 472  : {

  00013	57		 push	 edi
; File C:\Program Files\Microsoft Visual Studio\2022\Professional\VC\Tools\MSVC\14.44.35207\include\xtree

; 37   :     _Tree_unchecked_const_iterator(_Nodeptr _Pnode, const _Mytree* _Plist) noexcept : _Ptr(_Pnode) {

  00014	8b 30		 mov	 esi, DWORD PTR [eax]

; 237  :         return !(*this == _Right);

  00016	3b f0		 cmp	 esi, eax
; File C:\IAGOS\server\v18\Source\Source\_Common\honor.cpp

; 475  : 	for( iter = m_mapEtc.begin(); iter != m_mapEtc.end(); ++iter )

  00018	0f 84 8f 00 00
	00		 je	 $LN119@GetIdxByGr
  0001e	66 90		 npad	 2
$LL4@GetIdxByGr:

; 476  : 	{
; 477  : 		HonorData	TempData = iter->second;

  00020	8b 46 14	 mov	 eax, DWORD PTR [esi+20]
  00023	8b 7e 18	 mov	 edi, DWORD PTR [esi+24]
  00026	89 45 f4	 mov	 DWORD PTR tv605[ebp], eax
  00029	8b 46 1c	 mov	 eax, DWORD PTR [esi+28]
  0002c	89 45 fc	 mov	 DWORD PTR tv606[ebp], eax
; File C:\Program Files\Microsoft Visual Studio\2022\Professional\VC\Tools\MSVC\14.44.35207\atlmfc\include\atlsimpstr.h

; 804  : 		return( reinterpret_cast< CStringData* >( m_pszData )-1 );

  0002f	8b 46 28	 mov	 eax, DWORD PTR [esi+40]
  00032	83 e8 10	 sub	 eax, 16			; 00000010H

; 217  : 		CStringData* pNewData = CloneData( pSrcData );

  00035	50		 push	 eax
  00036	e8 00 00 00 00	 call	 ?CloneData@?$CSimpleStringT@D$0A@@ATL@@CAPAUCStringData@2@PAU32@@Z ; ATL::CSimpleStringT<char,0>::CloneData
  0003b	83 c4 04	 add	 esp, 4
  0003e	8b d8		 mov	 ebx, eax

; 218  : 		Attach( pNewData );

  00040	3b 7d 08	 cmp	 edi, DWORD PTR _nLarge$[ebp]
; File C:\IAGOS\server\v18\Source\Source\_Common\honor.cpp

; 478  : 		if( TempData.nLGrouping == nLarge && TempData.nSGrouping == nSmall  )

  00043	75 08		 jne	 SHORT $LN5@GetIdxByGr
  00045	8b 45 0c	 mov	 eax, DWORD PTR _nSmall$[ebp]
  00048	39 45 fc	 cmp	 DWORD PTR tv606[ebp], eax
  0004b	74 6b		 je	 SHORT $LN115@GetIdxByGr
$LN5@GetIdxByGr:
; File C:\Program Files\Microsoft Visual Studio\2022\Professional\VC\Tools\MSVC\14.44.35207\atlmfc\include\atlsimpstr.h

; 92   : 		if( _InterlockedDecrement( &nRefs ) <= 0 )

  0004d	83 c8 ff	 or	 eax, -1
  00050	f0 0f c1 43 0c	 lock	  xadd	 DWORD PTR [ebx+12], eax
  00055	48		 dec	 eax
  00056	85 c0		 test	 eax, eax
  00058	7f 08		 jg	 SHORT $LN2@GetIdxByGr

; 93   : 		{
; 94   : 			pStringMgr->Free( this );

  0005a	8b 0b		 mov	 ecx, DWORD PTR [ebx]
  0005c	53		 push	 ebx
  0005d	8b 01		 mov	 eax, DWORD PTR [ecx]
  0005f	ff 50 04	 call	 DWORD PTR [eax+4]
$LN2@GetIdxByGr:
; File C:\Program Files\Microsoft Visual Studio\2022\Professional\VC\Tools\MSVC\14.44.35207\include\xtree

; 50   :         if (_Ptr->_Right->_Isnil) { // climb looking for right subtree

  00062	8b 46 08	 mov	 eax, DWORD PTR [esi+8]
  00065	80 78 0d 00	 cmp	 BYTE PTR [eax+13], 0
  00069	74 1d		 je	 SHORT $LN38@GetIdxByGr

; 51   :             _Nodeptr _Pnode;
; 52   :             while (!(_Pnode = _Ptr->_Parent)->_Isnil && _Ptr == _Pnode->_Right) {

  0006b	8b 46 04	 mov	 eax, DWORD PTR [esi+4]
  0006e	80 78 0d 00	 cmp	 BYTE PTR [eax+13], 0
  00072	75 10		 jne	 SHORT $LN126@GetIdxByGr
$LL36@GetIdxByGr:
  00074	3b 70 08	 cmp	 esi, DWORD PTR [eax+8]
  00077	75 0b		 jne	 SHORT $LN126@GetIdxByGr

; 53   :                 _Ptr = _Pnode; // ==> parent while right subtree

  00079	8b f0		 mov	 esi, eax
  0007b	8b 40 04	 mov	 eax, DWORD PTR [eax+4]
  0007e	80 78 0d 00	 cmp	 BYTE PTR [eax+13], 0
  00082	74 f0		 je	 SHORT $LL36@GetIdxByGr
$LN126@GetIdxByGr:

; 54   :             }
; 55   : 
; 56   :             _Ptr = _Pnode; // ==> parent (head if end())

  00084	8b f0		 mov	 esi, eax

; 57   :         } else {

  00086	eb 16		 jmp	 SHORT $LN44@GetIdxByGr
$LN38@GetIdxByGr:

; 58   :             _Ptr = _Mytree::_Min(_Ptr->_Right); // ==> smallest of right subtree

  00088	8b f0		 mov	 esi, eax

; 476  :         while (!_Pnode->_Left->_Isnil) {

  0008a	8b 0e		 mov	 ecx, DWORD PTR [esi]
  0008c	80 79 0d 00	 cmp	 BYTE PTR [ecx+13], 0
  00090	75 0c		 jne	 SHORT $LN44@GetIdxByGr
$LL43@GetIdxByGr:
  00092	8b 01		 mov	 eax, DWORD PTR [ecx]

; 477  :             _Pnode = _Pnode->_Left;

  00094	8b f1		 mov	 esi, ecx
  00096	8b c8		 mov	 ecx, eax
  00098	80 78 0d 00	 cmp	 BYTE PTR [eax+13], 0
  0009c	74 f4		 je	 SHORT $LL43@GetIdxByGr
$LN44@GetIdxByGr:

; 237  :         return !(*this == _Right);

  0009e	8b 45 f8	 mov	 eax, DWORD PTR _this$1$[ebp]
  000a1	3b 70 10	 cmp	 esi, DWORD PTR [eax+16]
; File C:\IAGOS\server\v18\Source\Source\_Common\honor.cpp

; 475  : 	for( iter = m_mapEtc.begin(); iter != m_mapEtc.end(); ++iter )

  000a4	0f 85 76 ff ff
	ff		 jne	 $LL4@GetIdxByGr
  000aa	83 c9 ff	 or	 ecx, -1
$LN119@GetIdxByGr:
  000ad	5f		 pop	 edi

; 480  : 	}
; 481  : 	return -1;
; 482  : }	

  000ae	5e		 pop	 esi
  000af	8b c1		 mov	 eax, ecx
  000b1	5b		 pop	 ebx
  000b2	8b e5		 mov	 esp, ebp
  000b4	5d		 pop	 ebp
  000b5	c2 08 00	 ret	 8
$LN115@GetIdxByGr:
; File C:\Program Files\Microsoft Visual Studio\2022\Professional\VC\Tools\MSVC\14.44.35207\atlmfc\include\atlsimpstr.h

; 92   : 		if( _InterlockedDecrement( &nRefs ) <= 0 )

  000b8	83 c8 ff	 or	 eax, -1
  000bb	f0 0f c1 43 0c	 lock	  xadd	 DWORD PTR [ebx+12], eax
  000c0	48		 dec	 eax
  000c1	85 c0		 test	 eax, eax
  000c3	7f 08		 jg	 SHORT $LN96@GetIdxByGr

; 93   : 		{
; 94   : 			pStringMgr->Free( this );

  000c5	8b 0b		 mov	 ecx, DWORD PTR [ebx]
  000c7	53		 push	 ebx
  000c8	8b 11		 mov	 edx, DWORD PTR [ecx]
  000ca	ff 52 04	 call	 DWORD PTR [edx+4]
$LN96@GetIdxByGr:
; File C:\IAGOS\server\v18\Source\Source\_Common\honor.cpp

; 479  : 			return TempData.nID;

  000cd	8b 45 f4	 mov	 eax, DWORD PTR tv605[ebp]
  000d0	5f		 pop	 edi

; 480  : 	}
; 481  : 	return -1;
; 482  : }	

  000d1	5e		 pop	 esi
  000d2	5b		 pop	 ebx
  000d3	8b e5		 mov	 esp, ebp
  000d5	5d		 pop	 ebp
  000d6	c2 08 00	 ret	 8
?GetIdxByGroup@CTitleManager@@QAEHHH@Z ENDP		; CTitleManager::GetIdxByGroup
_TEXT	ENDS
; Function compile flags: /Ogtp
; File C:\IAGOS\server\v18\Source\Source\_Common\honor.cpp
; File C:\Program Files\Microsoft Visual Studio\2022\Professional\VC\Tools\MSVC\14.44.35207\include\xtree
; File C:\IAGOS\server\v18\Source\Source\_Common\honor.cpp
; File C:\Program Files\Microsoft Visual Studio\2022\Professional\VC\Tools\MSVC\14.44.35207\include\xtree
; File C:\IAGOS\server\v18\Source\Source\_Common\honor.cpp
; File C:\Program Files\Microsoft Visual Studio\2022\Professional\VC\Tools\MSVC\14.44.35207\atlmfc\include\atlsimpstr.h
; File C:\IAGOS\server\v18\Source\Source\_Common\honor.cpp
; File C:\Program Files\Microsoft Visual Studio\2022\Professional\VC\Tools\MSVC\14.44.35207\atlmfc\include\atlsimpstr.h
; File C:\IAGOS\server\v18\Source\Source\_Common\honor.cpp
; File C:\Program Files\Microsoft Visual Studio\2022\Professional\VC\Tools\MSVC\14.44.35207\atlmfc\include\atlsimpstr.h
; File C:\Program Files\Microsoft Visual Studio\2022\Professional\VC\Tools\MSVC\14.44.35207\include\xtree
; File C:\IAGOS\server\v18\Source\Source\_Common\honor.cpp
; File C:\Program Files\Microsoft Visual Studio\2022\Professional\VC\Tools\MSVC\14.44.35207\atlmfc\include\atlsimpstr.h
; File C:\IAGOS\server\v18\Source\Source\_Common\honor.cpp
;	COMDAT ?GetIdxByName@CTitleManager@@QAEHPBD@Z
_TEXT	SEGMENT
tv593 = -8						; size = 4
_this$1$ = -4						; size = 4
_chName$ = 8						; size = 4
?GetIdxByName@CTitleManager@@QAEHPBD@Z PROC		; CTitleManager::GetIdxByName, COMDAT
; _this$ = ecx

; 459  : {

  00000	55		 push	 ebp
  00001	8b ec		 mov	 ebp, esp
  00003	83 ec 24	 sub	 esp, 36			; 00000024H
  00006	8b c1		 mov	 eax, ecx
  00008	89 45 fc	 mov	 DWORD PTR _this$1$[ebp], eax
  0000b	53		 push	 ebx
  0000c	56		 push	 esi
; File C:\Program Files\Microsoft Visual Studio\2022\Professional\VC\Tools\MSVC\14.44.35207\include\xtree

; 1142 :         return iterator(_Scary->_Myhead->_Left, _Scary);

  0000d	8b 40 18	 mov	 eax, DWORD PTR [eax+24]

; 237  :         return !(*this == _Right);

  00010	83 cb ff	 or	 ebx, -1
; File C:\IAGOS\server\v18\Source\Source\_Common\honor.cpp

; 459  : {

  00013	57		 push	 edi
; File C:\Program Files\Microsoft Visual Studio\2022\Professional\VC\Tools\MSVC\14.44.35207\include\xtree

; 37   :     _Tree_unchecked_const_iterator(_Nodeptr _Pnode, const _Mytree* _Plist) noexcept : _Ptr(_Pnode) {

  00014	8b 30		 mov	 esi, DWORD PTR [eax]

; 237  :         return !(*this == _Right);

  00016	3b f0		 cmp	 esi, eax
; File C:\IAGOS\server\v18\Source\Source\_Common\honor.cpp

; 462  : 	for(iter = m_mapAll.begin(); iter != m_mapAll.end(); ++iter) // ±×żÜ´Â 1´ë1 Ĺ˝»ö..°ąĽö°ˇ ľó¸¶ľČµÇĽ­ ą«¸® ľřŔ»µí..

  00018	0f 84 8a 00 00
	00		 je	 $LN3@GetIdxByNa
  0001e	66 90		 npad	 2
$LL4@GetIdxByNa:

; 463  : 	{
; 464  : 		HonorData	TempData = iter->second;

  00020	8b 46 14	 mov	 eax, DWORD PTR [esi+20]
  00023	89 45 f8	 mov	 DWORD PTR tv593[ebp], eax
; File C:\Program Files\Microsoft Visual Studio\2022\Professional\VC\Tools\MSVC\14.44.35207\atlmfc\include\atlsimpstr.h

; 804  : 		return( reinterpret_cast< CStringData* >( m_pszData )-1 );

  00026	8b 46 28	 mov	 eax, DWORD PTR [esi+40]
  00029	83 e8 10	 sub	 eax, 16			; 00000010H

; 217  : 		CStringData* pNewData = CloneData( pSrcData );

  0002c	50		 push	 eax
  0002d	e8 00 00 00 00	 call	 ?CloneData@?$CSimpleStringT@D$0A@@ATL@@CAPAUCStringData@2@PAU32@@Z ; ATL::CSimpleStringT<char,0>::CloneData
  00032	83 c4 04	 add	 esp, 4
  00035	8b f8		 mov	 edi, eax
; File C:\IAGOS\server\v18\Source\Source\_Common\honor.cpp

; 465  : 		if(lstrcmp(TempData.strTitle,chName) == 0 )

  00037	ff 75 08	 push	 DWORD PTR _chName$[ebp]
; File C:\Program Files\Microsoft Visual Studio\2022\Professional\VC\Tools\MSVC\14.44.35207\atlmfc\include\atlsimpstr.h

; 218  : 		Attach( pNewData );

  0003a	8d 47 10	 lea	 eax, DWORD PTR [edi+16]
; File C:\IAGOS\server\v18\Source\Source\_Common\honor.cpp

; 465  : 		if(lstrcmp(TempData.strTitle,chName) == 0 )

  0003d	50		 push	 eax
  0003e	ff 15 00 00 00
	00		 call	 DWORD PTR __imp__lstrcmpA@8
  00044	85 c0		 test	 eax, eax
  00046	74 6b		 je	 SHORT $LN115@GetIdxByNa
; File C:\Program Files\Microsoft Visual Studio\2022\Professional\VC\Tools\MSVC\14.44.35207\atlmfc\include\atlsimpstr.h

; 92   : 		if( _InterlockedDecrement( &nRefs ) <= 0 )

  00048	8b c3		 mov	 eax, ebx
  0004a	f0 0f c1 47 0c	 lock	  xadd	 DWORD PTR [edi+12], eax
  0004f	48		 dec	 eax
  00050	85 c0		 test	 eax, eax
  00052	7f 08		 jg	 SHORT $LN2@GetIdxByNa

; 93   : 		{
; 94   : 			pStringMgr->Free( this );

  00054	8b 0f		 mov	 ecx, DWORD PTR [edi]
  00056	57		 push	 edi
  00057	8b 01		 mov	 eax, DWORD PTR [ecx]
  00059	ff 50 04	 call	 DWORD PTR [eax+4]
$LN2@GetIdxByNa:
; File C:\Program Files\Microsoft Visual Studio\2022\Professional\VC\Tools\MSVC\14.44.35207\include\xtree

; 50   :         if (_Ptr->_Right->_Isnil) { // climb looking for right subtree

  0005c	8b 46 08	 mov	 eax, DWORD PTR [esi+8]
  0005f	80 78 0d 00	 cmp	 BYTE PTR [eax+13], 0
  00063	74 1f		 je	 SHORT $LN38@GetIdxByNa

; 51   :             _Nodeptr _Pnode;
; 52   :             while (!(_Pnode = _Ptr->_Parent)->_Isnil && _Ptr == _Pnode->_Right) {

  00065	8b 46 04	 mov	 eax, DWORD PTR [esi+4]
  00068	80 78 0d 00	 cmp	 BYTE PTR [eax+13], 0
  0006c	75 12		 jne	 SHORT $LN125@GetIdxByNa
  0006e	66 90		 npad	 2
$LL36@GetIdxByNa:
  00070	3b 70 08	 cmp	 esi, DWORD PTR [eax+8]
  00073	75 0b		 jne	 SHORT $LN125@GetIdxByNa

; 53   :                 _Ptr = _Pnode; // ==> parent while right subtree

  00075	8b f0		 mov	 esi, eax
  00077	8b 40 04	 mov	 eax, DWORD PTR [eax+4]
  0007a	80 78 0d 00	 cmp	 BYTE PTR [eax+13], 0
  0007e	74 f0		 je	 SHORT $LL36@GetIdxByNa
$LN125@GetIdxByNa:

; 54   :             }
; 55   : 
; 56   :             _Ptr = _Pnode; // ==> parent (head if end())

  00080	8b f0		 mov	 esi, eax

; 57   :         } else {

  00082	eb 18		 jmp	 SHORT $LN44@GetIdxByNa
$LN38@GetIdxByNa:

; 58   :             _Ptr = _Mytree::_Min(_Ptr->_Right); // ==> smallest of right subtree

  00084	8b f0		 mov	 esi, eax

; 476  :         while (!_Pnode->_Left->_Isnil) {

  00086	8b 0e		 mov	 ecx, DWORD PTR [esi]
  00088	80 79 0d 00	 cmp	 BYTE PTR [ecx+13], 0
  0008c	75 0e		 jne	 SHORT $LN44@GetIdxByNa
  0008e	66 90		 npad	 2
$LL43@GetIdxByNa:
  00090	8b 01		 mov	 eax, DWORD PTR [ecx]

; 477  :             _Pnode = _Pnode->_Left;

  00092	8b f1		 mov	 esi, ecx
  00094	8b c8		 mov	 ecx, eax
  00096	80 78 0d 00	 cmp	 BYTE PTR [eax+13], 0
  0009a	74 f4		 je	 SHORT $LL43@GetIdxByNa
$LN44@GetIdxByNa:

; 237  :         return !(*this == _Right);

  0009c	8b 45 fc	 mov	 eax, DWORD PTR _this$1$[ebp]
  0009f	3b 70 18	 cmp	 esi, DWORD PTR [eax+24]
; File C:\IAGOS\server\v18\Source\Source\_Common\honor.cpp

; 462  : 	for(iter = m_mapAll.begin(); iter != m_mapAll.end(); ++iter) // ±×żÜ´Â 1´ë1 Ĺ˝»ö..°ąĽö°ˇ ľó¸¶ľČµÇĽ­ ą«¸® ľřŔ»µí..

  000a2	0f 85 78 ff ff
	ff		 jne	 $LL4@GetIdxByNa
$LN3@GetIdxByNa:
  000a8	5f		 pop	 edi

; 467  : 	};
; 468  : 	return -1;
; 469  : 	
; 470  : }

  000a9	5e		 pop	 esi
  000aa	8b c3		 mov	 eax, ebx
  000ac	5b		 pop	 ebx
  000ad	8b e5		 mov	 esp, ebp
  000af	5d		 pop	 ebp
  000b0	c2 04 00	 ret	 4
$LN115@GetIdxByNa:
; File C:\Program Files\Microsoft Visual Studio\2022\Professional\VC\Tools\MSVC\14.44.35207\atlmfc\include\atlsimpstr.h

; 92   : 		if( _InterlockedDecrement( &nRefs ) <= 0 )

  000b3	f0 0f c1 5f 0c	 lock	  xadd	 DWORD PTR [edi+12], ebx
  000b8	4b		 dec	 ebx
  000b9	85 db		 test	 ebx, ebx
  000bb	7f 08		 jg	 SHORT $LN96@GetIdxByNa

; 93   : 		{
; 94   : 			pStringMgr->Free( this );

  000bd	8b 0f		 mov	 ecx, DWORD PTR [edi]
  000bf	57		 push	 edi
  000c0	8b 11		 mov	 edx, DWORD PTR [ecx]
  000c2	ff 52 04	 call	 DWORD PTR [edx+4]
$LN96@GetIdxByNa:
; File C:\IAGOS\server\v18\Source\Source\_Common\honor.cpp

; 466  :            return TempData.nID;

  000c5	8b 45 f8	 mov	 eax, DWORD PTR tv593[ebp]
  000c8	5f		 pop	 edi

; 467  : 	};
; 468  : 	return -1;
; 469  : 	
; 470  : }

  000c9	5e		 pop	 esi
  000ca	5b		 pop	 ebx
  000cb	8b e5		 mov	 esp, ebp
  000cd	5d		 pop	 ebp
  000ce	c2 04 00	 ret	 4
?GetIdxByName@CTitleManager@@QAEHPBD@Z ENDP		; CTitleManager::GetIdxByName
_TEXT	ENDS
; Function compile flags: /Ogtp
; File C:\IAGOS\server\v18\Source\Source\_Common\honor.cpp
; File C:\Program Files\Microsoft Visual Studio\2022\Professional\VC\Tools\MSVC\14.44.35207\include\xtree
; File C:\Program Files\Microsoft Visual Studio\2022\Professional\VC\Tools\MSVC\14.44.35207\include\type_traits
; File C:\Program Files\Microsoft Visual Studio\2022\Professional\VC\Tools\MSVC\14.44.35207\include\xtree
; File C:\IAGOS\server\v18\Source\Source\_Common\honor.cpp
; File C:\Program Files\Microsoft Visual Studio\2022\Professional\VC\Tools\MSVC\14.44.35207\include\xtree
; File C:\Program Files\Microsoft Visual Studio\2022\Professional\VC\Tools\MSVC\14.44.35207\include\type_traits
; File C:\Program Files\Microsoft Visual Studio\2022\Professional\VC\Tools\MSVC\14.44.35207\include\xtree
; File C:\IAGOS\server\v18\Source\Source\_Common\honor.cpp
; File C:\Program Files\Microsoft Visual Studio\2022\Professional\VC\Tools\MSVC\14.44.35207\include\xtree
; File C:\Program Files\Microsoft Visual Studio\2022\Professional\VC\Tools\MSVC\14.44.35207\include\type_traits
; File C:\Program Files\Microsoft Visual Studio\2022\Professional\VC\Tools\MSVC\14.44.35207\include\xtree
; File C:\IAGOS\server\v18\Source\Source\_Common\honor.cpp
;	COMDAT ?GetHonorDataByID@CTitleManager@@QAEPAUHonorData@@HH@Z
_TEXT	SEGMENT
__Loc$1 = -12						; size = 12
__Loc$2 = -12						; size = 12
__Loc$3 = -12						; size = 12
_nId$ = 8						; size = 4
_nGroup$ = 12						; size = 4
?GetHonorDataByID@CTitleManager@@QAEPAUHonorData@@HH@Z PROC ; CTitleManager::GetHonorDataByID, COMDAT
; _this$ = ecx

; 365  : {

  00000	55		 push	 ebp
  00001	8b ec		 mov	 ebp, esp

; 366  : 	map<int, HonorData>::iterator iter;
; 367  : 
; 368  : 	switch(nGroup)

  00003	8b 45 0c	 mov	 eax, DWORD PTR _nGroup$[ebp]
  00006	83 ec 0c	 sub	 esp, 12			; 0000000cH
  00009	56		 push	 esi
  0000a	8b f1		 mov	 esi, ecx
  0000c	83 e8 04	 sub	 eax, 4
  0000f	74 5d		 je	 SHORT $LN4@GetHonorDa
  00011	83 e8 01	 sub	 eax, 1
  00014	8d 45 08	 lea	 eax, DWORD PTR _nId$[ebp]
  00017	50		 push	 eax
  00018	8d 45 f4	 lea	 eax, DWORD PTR __Loc$3[ebp]
  0001b	50		 push	 eax
  0001c	74 28		 je	 SHORT $LN7@GetHonorDa
; File C:\Program Files\Microsoft Visual Studio\2022\Professional\VC\Tools\MSVC\14.44.35207\include\xtree

; 1384 :         const _Tree_find_result<_Nodeptr> _Loc = _Find_lower_bound(_Keyval);

  0001e	8d 4e 10	 lea	 ecx, DWORD PTR [esi+16]
  00021	e8 00 00 00 00	 call	 ??$_Find_lower_bound@H@?$_Tree@V?$_Tmap_traits@HUHonorData@@U?$less@H@std@@V?$allocator@U?$pair@$$CBHUHonorData@@@std@@@3@$0A@@std@@@std@@IBE?AU?$_Tree_find_result@PAU?$_Tree_node@U?$pair@$$CBHUHonorData@@@std@@PAX@std@@@1@ABH@Z ; std::_Tree<std::_Tmap_traits<int,HonorData,std::less<int>,std::allocator<std::pair<int const ,HonorData> >,0> >::_Find_lower_bound<int>

; 1624 :         return !_Bound->_Isnil && !_DEBUG_LT_PRED(_Getcomp(), _Keyval, _Traits::_Kfn(_Bound->_Myval));

  00026	8b 4d fc	 mov	 ecx, DWORD PTR __Loc$3[ebp+8]
  00029	80 79 0d 00	 cmp	 BYTE PTR [ecx+13], 0
  0002d	75 6e		 jne	 SHORT $LN5@GetHonorDa
; File C:\Program Files\Microsoft Visual Studio\2022\Professional\VC\Tools\MSVC\14.44.35207\include\type_traits

; 2380 :         return _Left < _Right;

  0002f	8b 45 08	 mov	 eax, DWORD PTR _nId$[ebp]
  00032	3b 41 10	 cmp	 eax, DWORD PTR [ecx+16]
; File C:\Program Files\Microsoft Visual Studio\2022\Professional\VC\Tools\MSVC\14.44.35207\include\xtree

; 1624 :         return !_Bound->_Isnil && !_DEBUG_LT_PRED(_Getcomp(), _Keyval, _Traits::_Kfn(_Bound->_Myval));

  00035	7c 66		 jl	 SHORT $LN5@GetHonorDa

; 37   :     _Tree_unchecked_const_iterator(_Nodeptr _Pnode, const _Mytree* _Plist) noexcept : _Ptr(_Pnode) {

  00037	3b 4e 10	 cmp	 ecx, DWORD PTR [esi+16]
; File C:\IAGOS\server\v18\Source\Source\_Common\honor.cpp

; 392  : 			if(iter != m_mapEtc.end()) 

  0003a	74 61		 je	 SHORT $LN5@GetHonorDa

; 393  : 			{
; 394  : 				return &iter->second;

  0003c	8d 41 14	 lea	 eax, DWORD PTR [ecx+20]
  0003f	5e		 pop	 esi

; 401  : }

  00040	8b e5		 mov	 esp, ebp
  00042	5d		 pop	 ebp
  00043	c2 08 00	 ret	 8
$LN7@GetHonorDa:
; File C:\Program Files\Microsoft Visual Studio\2022\Professional\VC\Tools\MSVC\14.44.35207\include\xtree

; 1384 :         const _Tree_find_result<_Nodeptr> _Loc = _Find_lower_bound(_Keyval);

  00046	8d 4e 08	 lea	 ecx, DWORD PTR [esi+8]
  00049	e8 00 00 00 00	 call	 ??$_Find_lower_bound@H@?$_Tree@V?$_Tmap_traits@HUHonorData@@U?$less@H@std@@V?$allocator@U?$pair@$$CBHUHonorData@@@std@@@3@$0A@@std@@@std@@IBE?AU?$_Tree_find_result@PAU?$_Tree_node@U?$pair@$$CBHUHonorData@@@std@@PAX@std@@@1@ABH@Z ; std::_Tree<std::_Tmap_traits<int,HonorData,std::less<int>,std::allocator<std::pair<int const ,HonorData> >,0> >::_Find_lower_bound<int>

; 1624 :         return !_Bound->_Isnil && !_DEBUG_LT_PRED(_Getcomp(), _Keyval, _Traits::_Kfn(_Bound->_Myval));

  0004e	8b 4d fc	 mov	 ecx, DWORD PTR __Loc$2[ebp+8]
  00051	80 79 0d 00	 cmp	 BYTE PTR [ecx+13], 0
  00055	75 46		 jne	 SHORT $LN5@GetHonorDa
; File C:\Program Files\Microsoft Visual Studio\2022\Professional\VC\Tools\MSVC\14.44.35207\include\type_traits

; 2380 :         return _Left < _Right;

  00057	8b 45 08	 mov	 eax, DWORD PTR _nId$[ebp]
  0005a	3b 41 10	 cmp	 eax, DWORD PTR [ecx+16]
; File C:\Program Files\Microsoft Visual Studio\2022\Professional\VC\Tools\MSVC\14.44.35207\include\xtree

; 1624 :         return !_Bound->_Isnil && !_DEBUG_LT_PRED(_Getcomp(), _Keyval, _Traits::_Kfn(_Bound->_Myval));

  0005d	7c 3e		 jl	 SHORT $LN5@GetHonorDa

; 37   :     _Tree_unchecked_const_iterator(_Nodeptr _Pnode, const _Mytree* _Plist) noexcept : _Ptr(_Pnode) {

  0005f	3b 4e 08	 cmp	 ecx, DWORD PTR [esi+8]
; File C:\IAGOS\server\v18\Source\Source\_Common\honor.cpp

; 382  : 			if(iter != m_mapItem.end()) 

  00062	74 39		 je	 SHORT $LN5@GetHonorDa

; 383  : 			{
; 384  : 				return &iter->second;

  00064	8d 41 14	 lea	 eax, DWORD PTR [ecx+20]
  00067	5e		 pop	 esi

; 401  : }

  00068	8b e5		 mov	 esp, ebp
  0006a	5d		 pop	 ebp
  0006b	c2 08 00	 ret	 8
$LN4@GetHonorDa:
; File C:\Program Files\Microsoft Visual Studio\2022\Professional\VC\Tools\MSVC\14.44.35207\include\xtree

; 1384 :         const _Tree_find_result<_Nodeptr> _Loc = _Find_lower_bound(_Keyval);

  0006e	8d 45 08	 lea	 eax, DWORD PTR _nId$[ebp]
  00071	50		 push	 eax
  00072	8d 45 f4	 lea	 eax, DWORD PTR __Loc$1[ebp]
  00075	50		 push	 eax
  00076	e8 00 00 00 00	 call	 ??$_Find_lower_bound@H@?$_Tree@V?$_Tmap_traits@HUHonorData@@U?$less@H@std@@V?$allocator@U?$pair@$$CBHUHonorData@@@std@@@3@$0A@@std@@@std@@IBE?AU?$_Tree_find_result@PAU?$_Tree_node@U?$pair@$$CBHUHonorData@@@std@@PAX@std@@@1@ABH@Z ; std::_Tree<std::_Tmap_traits<int,HonorData,std::less<int>,std::allocator<std::pair<int const ,HonorData> >,0> >::_Find_lower_bound<int>

; 1624 :         return !_Bound->_Isnil && !_DEBUG_LT_PRED(_Getcomp(), _Keyval, _Traits::_Kfn(_Bound->_Myval));

  0007b	8b 55 fc	 mov	 edx, DWORD PTR __Loc$1[ebp+8]
  0007e	80 7a 0d 00	 cmp	 BYTE PTR [edx+13], 0
  00082	75 19		 jne	 SHORT $LN5@GetHonorDa
; File C:\Program Files\Microsoft Visual Studio\2022\Professional\VC\Tools\MSVC\14.44.35207\include\type_traits

; 2380 :         return _Left < _Right;

  00084	8b 45 08	 mov	 eax, DWORD PTR _nId$[ebp]
  00087	3b 42 10	 cmp	 eax, DWORD PTR [edx+16]
; File C:\Program Files\Microsoft Visual Studio\2022\Professional\VC\Tools\MSVC\14.44.35207\include\xtree

; 1624 :         return !_Bound->_Isnil && !_DEBUG_LT_PRED(_Getcomp(), _Keyval, _Traits::_Kfn(_Bound->_Myval));

  0008a	7c 11		 jl	 SHORT $LN5@GetHonorDa

; 37   :     _Tree_unchecked_const_iterator(_Nodeptr _Pnode, const _Mytree* _Plist) noexcept : _Ptr(_Pnode) {

  0008c	33 c0		 xor	 eax, eax
  0008e	8d 4a 14	 lea	 ecx, DWORD PTR [edx+20]
  00091	3b 16		 cmp	 edx, DWORD PTR [esi]
  00093	5e		 pop	 esi
  00094	0f 45 c1	 cmovne	 eax, ecx
; File C:\IAGOS\server\v18\Source\Source\_Common\honor.cpp

; 401  : }

  00097	8b e5		 mov	 esp, ebp
  00099	5d		 pop	 ebp
  0009a	c2 08 00	 ret	 8
$LN5@GetHonorDa:

; 369  : 	{
; 370  : 		case HI_HUNT_MONSTER:
; 371  : 			iter = m_mapMonster.find(nId); // ¸ó˝şĹÍ ľĆŔĚµđ·Î °Ë»ö
; 372  : 			if(iter != m_mapMonster.end()) 
; 373  : 			{
; 374  : 				return &iter->second;
; 375  : 			}
; 376  : 			else
; 377  : 				return NULL;

  0009d	33 c0		 xor	 eax, eax
  0009f	5e		 pop	 esi

; 401  : }

  000a0	8b e5		 mov	 esp, ebp
  000a2	5d		 pop	 ebp
  000a3	c2 08 00	 ret	 8
?GetHonorDataByID@CTitleManager@@QAEPAUHonorData@@HH@Z ENDP ; CTitleManager::GetHonorDataByID
_TEXT	ENDS
; Function compile flags: /Ogtp
; File C:\IAGOS\server\v18\Source\Source\_Common\honor.cpp
; File C:\Program Files\Microsoft Visual Studio\2022\Professional\VC\Tools\MSVC\14.44.35207\include\xtree
; File C:\Program Files\Microsoft Visual Studio\2022\Professional\VC\Tools\MSVC\14.44.35207\include\type_traits
; File C:\Program Files\Microsoft Visual Studio\2022\Professional\VC\Tools\MSVC\14.44.35207\include\xtree
; File C:\IAGOS\server\v18\Source\Source\_Common\honor.cpp
; File C:\Program Files\Microsoft Visual Studio\2022\Professional\VC\Tools\MSVC\14.44.35207\include\xtree
; File C:\Program Files\Microsoft Visual Studio\2022\Professional\VC\Tools\MSVC\14.44.35207\include\type_traits
; File C:\Program Files\Microsoft Visual Studio\2022\Professional\VC\Tools\MSVC\14.44.35207\include\xtree
; File C:\IAGOS\server\v18\Source\Source\_Common\honor.cpp
; File C:\Program Files\Microsoft Visual Studio\2022\Professional\VC\Tools\MSVC\14.44.35207\include\xtree
; File C:\Program Files\Microsoft Visual Studio\2022\Professional\VC\Tools\MSVC\14.44.35207\include\type_traits
; File C:\Program Files\Microsoft Visual Studio\2022\Professional\VC\Tools\MSVC\14.44.35207\include\xtree
; File C:\IAGOS\server\v18\Source\Source\_Common\honor.cpp
;	COMDAT ?GetIdx@CTitleManager@@QAEHHH@Z
_TEXT	SEGMENT
__Loc$1 = -12						; size = 12
__Loc$2 = -12						; size = 12
__Loc$3 = -12						; size = 12
_nId$ = 8						; size = 4
_nGroup$ = 12						; size = 4
?GetIdx@CTitleManager@@QAEHHH@Z PROC			; CTitleManager::GetIdx, COMDAT
; _this$ = ecx

; 403  : {

  00000	55		 push	 ebp
  00001	8b ec		 mov	 ebp, esp

; 404  : 
; 405  : 	map<int, HonorData>::iterator iter;
; 406  : 
; 407  : 	switch(nGroup)

  00003	8b 45 0c	 mov	 eax, DWORD PTR _nGroup$[ebp]
  00006	83 ec 0c	 sub	 esp, 12			; 0000000cH
  00009	56		 push	 esi
  0000a	8b f1		 mov	 esi, ecx
  0000c	83 e8 04	 sub	 eax, 4
  0000f	74 5d		 je	 SHORT $LN4@GetIdx
  00011	83 e8 01	 sub	 eax, 1
  00014	8d 45 08	 lea	 eax, DWORD PTR _nId$[ebp]
  00017	50		 push	 eax
  00018	8d 45 f4	 lea	 eax, DWORD PTR __Loc$3[ebp]
  0001b	50		 push	 eax
  0001c	74 28		 je	 SHORT $LN7@GetIdx
; File C:\Program Files\Microsoft Visual Studio\2022\Professional\VC\Tools\MSVC\14.44.35207\include\xtree

; 1384 :         const _Tree_find_result<_Nodeptr> _Loc = _Find_lower_bound(_Keyval);

  0001e	8d 4e 10	 lea	 ecx, DWORD PTR [esi+16]
  00021	e8 00 00 00 00	 call	 ??$_Find_lower_bound@H@?$_Tree@V?$_Tmap_traits@HUHonorData@@U?$less@H@std@@V?$allocator@U?$pair@$$CBHUHonorData@@@std@@@3@$0A@@std@@@std@@IBE?AU?$_Tree_find_result@PAU?$_Tree_node@U?$pair@$$CBHUHonorData@@@std@@PAX@std@@@1@ABH@Z ; std::_Tree<std::_Tmap_traits<int,HonorData,std::less<int>,std::allocator<std::pair<int const ,HonorData> >,0> >::_Find_lower_bound<int>

; 1624 :         return !_Bound->_Isnil && !_DEBUG_LT_PRED(_Getcomp(), _Keyval, _Traits::_Kfn(_Bound->_Myval));

  00026	8b 45 fc	 mov	 eax, DWORD PTR __Loc$3[ebp+8]
  00029	80 78 0d 00	 cmp	 BYTE PTR [eax+13], 0
  0002d	75 6b		 jne	 SHORT $LN5@GetIdx
; File C:\Program Files\Microsoft Visual Studio\2022\Professional\VC\Tools\MSVC\14.44.35207\include\type_traits

; 2380 :         return _Left < _Right;

  0002f	8b 4d 08	 mov	 ecx, DWORD PTR _nId$[ebp]
  00032	3b 48 10	 cmp	 ecx, DWORD PTR [eax+16]
; File C:\Program Files\Microsoft Visual Studio\2022\Professional\VC\Tools\MSVC\14.44.35207\include\xtree

; 1624 :         return !_Bound->_Isnil && !_DEBUG_LT_PRED(_Getcomp(), _Keyval, _Traits::_Kfn(_Bound->_Myval));

  00035	7c 63		 jl	 SHORT $LN5@GetIdx

; 37   :     _Tree_unchecked_const_iterator(_Nodeptr _Pnode, const _Mytree* _Plist) noexcept : _Ptr(_Pnode) {

  00037	3b 46 10	 cmp	 eax, DWORD PTR [esi+16]
; File C:\IAGOS\server\v18\Source\Source\_Common\honor.cpp

; 431  : 			if(iter != m_mapEtc.end()) 

  0003a	74 5e		 je	 SHORT $LN5@GetIdx

; 432  : 			{
; 433  : 				return iter->second.nID;

  0003c	8b 40 14	 mov	 eax, DWORD PTR [eax+20]
  0003f	5e		 pop	 esi

; 434  : 			}
; 435  : 			else
; 436  : 				return -1;
; 437  : 			break;
; 438  : 	};
; 439  : 	return -1;
; 440  : }

  00040	8b e5		 mov	 esp, ebp
  00042	5d		 pop	 ebp
  00043	c2 08 00	 ret	 8
$LN7@GetIdx:
; File C:\Program Files\Microsoft Visual Studio\2022\Professional\VC\Tools\MSVC\14.44.35207\include\xtree

; 1384 :         const _Tree_find_result<_Nodeptr> _Loc = _Find_lower_bound(_Keyval);

  00046	8d 4e 08	 lea	 ecx, DWORD PTR [esi+8]
  00049	e8 00 00 00 00	 call	 ??$_Find_lower_bound@H@?$_Tree@V?$_Tmap_traits@HUHonorData@@U?$less@H@std@@V?$allocator@U?$pair@$$CBHUHonorData@@@std@@@3@$0A@@std@@@std@@IBE?AU?$_Tree_find_result@PAU?$_Tree_node@U?$pair@$$CBHUHonorData@@@std@@PAX@std@@@1@ABH@Z ; std::_Tree<std::_Tmap_traits<int,HonorData,std::less<int>,std::allocator<std::pair<int const ,HonorData> >,0> >::_Find_lower_bound<int>

; 1624 :         return !_Bound->_Isnil && !_DEBUG_LT_PRED(_Getcomp(), _Keyval, _Traits::_Kfn(_Bound->_Myval));

  0004e	8b 45 fc	 mov	 eax, DWORD PTR __Loc$2[ebp+8]
  00051	80 78 0d 00	 cmp	 BYTE PTR [eax+13], 0
  00055	75 43		 jne	 SHORT $LN5@GetIdx
; File C:\Program Files\Microsoft Visual Studio\2022\Professional\VC\Tools\MSVC\14.44.35207\include\type_traits

; 2380 :         return _Left < _Right;

  00057	8b 4d 08	 mov	 ecx, DWORD PTR _nId$[ebp]
  0005a	3b 48 10	 cmp	 ecx, DWORD PTR [eax+16]
; File C:\Program Files\Microsoft Visual Studio\2022\Professional\VC\Tools\MSVC\14.44.35207\include\xtree

; 1624 :         return !_Bound->_Isnil && !_DEBUG_LT_PRED(_Getcomp(), _Keyval, _Traits::_Kfn(_Bound->_Myval));

  0005d	7c 3b		 jl	 SHORT $LN5@GetIdx

; 37   :     _Tree_unchecked_const_iterator(_Nodeptr _Pnode, const _Mytree* _Plist) noexcept : _Ptr(_Pnode) {

  0005f	3b 46 08	 cmp	 eax, DWORD PTR [esi+8]
; File C:\IAGOS\server\v18\Source\Source\_Common\honor.cpp

; 421  : 			if(iter != m_mapItem.end()) 

  00062	74 36		 je	 SHORT $LN5@GetIdx

; 422  : 			{
; 423  : 				return iter->second.nID;

  00064	8b 40 14	 mov	 eax, DWORD PTR [eax+20]
  00067	5e		 pop	 esi

; 434  : 			}
; 435  : 			else
; 436  : 				return -1;
; 437  : 			break;
; 438  : 	};
; 439  : 	return -1;
; 440  : }

  00068	8b e5		 mov	 esp, ebp
  0006a	5d		 pop	 ebp
  0006b	c2 08 00	 ret	 8
$LN4@GetIdx:
; File C:\Program Files\Microsoft Visual Studio\2022\Professional\VC\Tools\MSVC\14.44.35207\include\xtree

; 1384 :         const _Tree_find_result<_Nodeptr> _Loc = _Find_lower_bound(_Keyval);

  0006e	8d 45 08	 lea	 eax, DWORD PTR _nId$[ebp]
  00071	50		 push	 eax
  00072	8d 45 f4	 lea	 eax, DWORD PTR __Loc$1[ebp]
  00075	50		 push	 eax
  00076	e8 00 00 00 00	 call	 ??$_Find_lower_bound@H@?$_Tree@V?$_Tmap_traits@HUHonorData@@U?$less@H@std@@V?$allocator@U?$pair@$$CBHUHonorData@@@std@@@3@$0A@@std@@@std@@IBE?AU?$_Tree_find_result@PAU?$_Tree_node@U?$pair@$$CBHUHonorData@@@std@@PAX@std@@@1@ABH@Z ; std::_Tree<std::_Tmap_traits<int,HonorData,std::less<int>,std::allocator<std::pair<int const ,HonorData> >,0> >::_Find_lower_bound<int>

; 1624 :         return !_Bound->_Isnil && !_DEBUG_LT_PRED(_Getcomp(), _Keyval, _Traits::_Kfn(_Bound->_Myval));

  0007b	8b 45 fc	 mov	 eax, DWORD PTR __Loc$1[ebp+8]
  0007e	80 78 0d 00	 cmp	 BYTE PTR [eax+13], 0
  00082	75 16		 jne	 SHORT $LN5@GetIdx
; File C:\Program Files\Microsoft Visual Studio\2022\Professional\VC\Tools\MSVC\14.44.35207\include\type_traits

; 2380 :         return _Left < _Right;

  00084	8b 4d 08	 mov	 ecx, DWORD PTR _nId$[ebp]
  00087	3b 48 10	 cmp	 ecx, DWORD PTR [eax+16]
; File C:\Program Files\Microsoft Visual Studio\2022\Professional\VC\Tools\MSVC\14.44.35207\include\xtree

; 1624 :         return !_Bound->_Isnil && !_DEBUG_LT_PRED(_Getcomp(), _Keyval, _Traits::_Kfn(_Bound->_Myval));

  0008a	7c 0e		 jl	 SHORT $LN5@GetIdx

; 37   :     _Tree_unchecked_const_iterator(_Nodeptr _Pnode, const _Mytree* _Plist) noexcept : _Ptr(_Pnode) {

  0008c	3b 06		 cmp	 eax, DWORD PTR [esi]
; File C:\IAGOS\server\v18\Source\Source\_Common\honor.cpp

; 411  : 			if(iter != m_mapMonster.end()) 

  0008e	74 0a		 je	 SHORT $LN5@GetIdx

; 412  : 			{
; 413  : 				return iter->second.nID;

  00090	8b 40 14	 mov	 eax, DWORD PTR [eax+20]
  00093	5e		 pop	 esi

; 434  : 			}
; 435  : 			else
; 436  : 				return -1;
; 437  : 			break;
; 438  : 	};
; 439  : 	return -1;
; 440  : }

  00094	8b e5		 mov	 esp, ebp
  00096	5d		 pop	 ebp
  00097	c2 08 00	 ret	 8
$LN5@GetIdx:

; 414  : 			}
; 415  : 			else
; 416  : 				return -1;

  0009a	83 c8 ff	 or	 eax, -1
  0009d	5e		 pop	 esi

; 434  : 			}
; 435  : 			else
; 436  : 				return -1;
; 437  : 			break;
; 438  : 	};
; 439  : 	return -1;
; 440  : }

  0009e	8b e5		 mov	 esp, ebp
  000a0	5d		 pop	 ebp
  000a1	c2 08 00	 ret	 8
?GetIdx@CTitleManager@@QAEHHH@Z ENDP			; CTitleManager::GetIdx
_TEXT	ENDS
; Function compile flags: /Ogtp
; File C:\IAGOS\server\v18\Source\Source\_Common\honor.cpp
; File C:\Program Files\Microsoft Visual Studio\2022\Professional\VC\Tools\MSVC\14.44.35207\include\xtree
; File C:\IAGOS\server\v18\Source\Source\_Common\honor.cpp
; File C:\Program Files\Microsoft Visual Studio\2022\Professional\VC\Tools\MSVC\14.44.35207\include\xtree
; File C:\Program Files\Microsoft Visual Studio\2022\Professional\VC\Tools\MSVC\14.44.35207\include\type_traits
; File C:\Program Files\Microsoft Visual Studio\2022\Professional\VC\Tools\MSVC\14.44.35207\include\xtree
; File C:\IAGOS\server\v18\Source\Source\_Common\honor.cpp
;	COMDAT ?GetIdxType@CTitleManager@@QAEHH@Z
_TEXT	SEGMENT
__Loc$1 = -12						; size = 12
_nId$ = 8						; size = 4
?GetIdxType@CTitleManager@@QAEHH@Z PROC			; CTitleManager::GetIdxType, COMDAT
; _this$ = ecx

; 444  : {

  00000	55		 push	 ebp
  00001	8b ec		 mov	 ebp, esp
  00003	83 ec 0c	 sub	 esp, 12			; 0000000cH
  00006	56		 push	 esi
; File C:\Program Files\Microsoft Visual Studio\2022\Professional\VC\Tools\MSVC\14.44.35207\include\xtree

; 1384 :         const _Tree_find_result<_Nodeptr> _Loc = _Find_lower_bound(_Keyval);

  00007	8d 45 08	 lea	 eax, DWORD PTR _nId$[ebp]
  0000a	50		 push	 eax
; File C:\IAGOS\server\v18\Source\Source\_Common\honor.cpp

; 447  : 	iter = m_mapAll.find(nId); // ¸ó˝şĹÍ ľĆŔĚµđ·Î °Ë»ö

  0000b	8d 71 18	 lea	 esi, DWORD PTR [ecx+24]
; File C:\Program Files\Microsoft Visual Studio\2022\Professional\VC\Tools\MSVC\14.44.35207\include\xtree

; 1384 :         const _Tree_find_result<_Nodeptr> _Loc = _Find_lower_bound(_Keyval);

  0000e	8d 45 f4	 lea	 eax, DWORD PTR __Loc$1[ebp]
  00011	8b ce		 mov	 ecx, esi
  00013	50		 push	 eax
  00014	e8 00 00 00 00	 call	 ??$_Find_lower_bound@H@?$_Tree@V?$_Tmap_traits@HUHonorData@@U?$less@H@std@@V?$allocator@U?$pair@$$CBHUHonorData@@@std@@@3@$0A@@std@@@std@@IBE?AU?$_Tree_find_result@PAU?$_Tree_node@U?$pair@$$CBHUHonorData@@@std@@PAX@std@@@1@ABH@Z ; std::_Tree<std::_Tmap_traits<int,HonorData,std::less<int>,std::allocator<std::pair<int const ,HonorData> >,0> >::_Find_lower_bound<int>

; 1624 :         return !_Bound->_Isnil && !_DEBUG_LT_PRED(_Getcomp(), _Keyval, _Traits::_Kfn(_Bound->_Myval));

  00019	8b 45 fc	 mov	 eax, DWORD PTR __Loc$1[ebp+8]
  0001c	80 78 0d 00	 cmp	 BYTE PTR [eax+13], 0
  00020	75 16		 jne	 SHORT $LN2@GetIdxType
; File C:\Program Files\Microsoft Visual Studio\2022\Professional\VC\Tools\MSVC\14.44.35207\include\type_traits

; 2380 :         return _Left < _Right;

  00022	8b 4d 08	 mov	 ecx, DWORD PTR _nId$[ebp]
  00025	3b 48 10	 cmp	 ecx, DWORD PTR [eax+16]
; File C:\Program Files\Microsoft Visual Studio\2022\Professional\VC\Tools\MSVC\14.44.35207\include\xtree

; 1624 :         return !_Bound->_Isnil && !_DEBUG_LT_PRED(_Getcomp(), _Keyval, _Traits::_Kfn(_Bound->_Myval));

  00028	7c 0e		 jl	 SHORT $LN2@GetIdxType

; 37   :     _Tree_unchecked_const_iterator(_Nodeptr _Pnode, const _Mytree* _Plist) noexcept : _Ptr(_Pnode) {

  0002a	3b 06		 cmp	 eax, DWORD PTR [esi]
; File C:\IAGOS\server\v18\Source\Source\_Common\honor.cpp

; 449  : 	if(iter != m_mapAll.end()) 

  0002c	74 0a		 je	 SHORT $LN2@GetIdxType

; 450  : 	{
; 451  : 		return iter->second.nLGrouping;

  0002e	8b 40 18	 mov	 eax, DWORD PTR [eax+24]
  00031	5e		 pop	 esi

; 455  : }

  00032	8b e5		 mov	 esp, ebp
  00034	5d		 pop	 ebp
  00035	c2 04 00	 ret	 4
$LN2@GetIdxType:

; 452  : 	}
; 453  : 	
; 454  : 	return -1;

  00038	83 c8 ff	 or	 eax, -1
  0003b	5e		 pop	 esi

; 455  : }

  0003c	8b e5		 mov	 esp, ebp
  0003e	5d		 pop	 ebp
  0003f	c2 04 00	 ret	 4
?GetIdxType@CTitleManager@@QAEHH@Z ENDP			; CTitleManager::GetIdxType
_TEXT	ENDS
; Function compile flags: /Ogtp
; File C:\IAGOS\server\v18\Source\Source\_Common\honor.cpp
; File C:\Program Files\Microsoft Visual Studio\2022\Professional\VC\Tools\MSVC\14.44.35207\include\xtree
; File C:\Program Files\Microsoft Visual Studio\2022\Professional\VC\Tools\MSVC\14.44.35207\include\type_traits
; File C:\Program Files\Microsoft Visual Studio\2022\Professional\VC\Tools\MSVC\14.44.35207\include\xtree
; File C:\IAGOS\server\v18\Source\Source\_Common\honor.cpp
; File C:\Program Files\Microsoft Visual Studio\2022\Professional\VC\Tools\MSVC\14.44.35207\include\xtree
; File C:\Program Files\Microsoft Visual Studio\2022\Professional\VC\Tools\MSVC\14.44.35207\include\type_traits
; File C:\Program Files\Microsoft Visual Studio\2022\Professional\VC\Tools\MSVC\14.44.35207\include\xtree
; File C:\IAGOS\server\v18\Source\Source\_Common\honor.cpp
; File C:\Program Files\Microsoft Visual Studio\2022\Professional\VC\Tools\MSVC\14.44.35207\include\xtree
; File C:\Program Files\Microsoft Visual Studio\2022\Professional\VC\Tools\MSVC\14.44.35207\include\type_traits
; File C:\Program Files\Microsoft Visual Studio\2022\Professional\VC\Tools\MSVC\14.44.35207\include\xtree
; File C:\IAGOS\server\v18\Source\Source\_Common\honor.cpp
; File C:\Program Files\Microsoft Visual Studio\2022\Professional\VC\Tools\MSVC\14.44.35207\include\xtree
; File C:\Program Files\Microsoft Visual Studio\2022\Professional\VC\Tools\MSVC\14.44.35207\include\type_traits
; File C:\Program Files\Microsoft Visual Studio\2022\Professional\VC\Tools\MSVC\14.44.35207\include\xtree
; File C:\IAGOS\server\v18\Source\Source\_Common\honor.cpp
;	COMDAT ?GetNeedCount@CTitleManager@@QAEHHH@Z
_TEXT	SEGMENT
__Loc$1 = -12						; size = 12
__Loc$2 = -12						; size = 12
__Loc$3 = -12						; size = 12
__Loc$4 = -12						; size = 12
_nId$ = 8						; size = 4
_nGroup$ = 12						; size = 4
?GetNeedCount@CTitleManager@@QAEHHH@Z PROC		; CTitleManager::GetNeedCount, COMDAT
; _this$ = ecx

; 315  : {

  00000	55		 push	 ebp
  00001	8b ec		 mov	 ebp, esp

; 316  : 
; 317  : 	map<int, HonorData>::iterator iter;
; 318  : 
; 319  : 	switch(nGroup)

  00003	8b 45 0c	 mov	 eax, DWORD PTR _nGroup$[ebp]
  00006	83 ec 0c	 sub	 esp, 12			; 0000000cH
  00009	56		 push	 esi
  0000a	8b f1		 mov	 esi, ecx
  0000c	83 f8 ff	 cmp	 eax, -1
  0000f	0f 84 9a 00 00
	00		 je	 $LN10@GetNeedCou
  00015	83 f8 04	 cmp	 eax, 4
  00018	74 69		 je	 SHORT $LN4@GetNeedCou
  0001a	83 f8 05	 cmp	 eax, 5
  0001d	8d 45 08	 lea	 eax, DWORD PTR _nId$[ebp]
  00020	50		 push	 eax
  00021	8d 45 f4	 lea	 eax, DWORD PTR __Loc$4[ebp]
  00024	50		 push	 eax
  00025	74 34		 je	 SHORT $LN7@GetNeedCou
; File C:\Program Files\Microsoft Visual Studio\2022\Professional\VC\Tools\MSVC\14.44.35207\include\xtree

; 1384 :         const _Tree_find_result<_Nodeptr> _Loc = _Find_lower_bound(_Keyval);

  00027	8d 4e 10	 lea	 ecx, DWORD PTR [esi+16]
  0002a	e8 00 00 00 00	 call	 ??$_Find_lower_bound@H@?$_Tree@V?$_Tmap_traits@HUHonorData@@U?$less@H@std@@V?$allocator@U?$pair@$$CBHUHonorData@@@std@@@3@$0A@@std@@@std@@IBE?AU?$_Tree_find_result@PAU?$_Tree_node@U?$pair@$$CBHUHonorData@@@std@@PAX@std@@@1@ABH@Z ; std::_Tree<std::_Tmap_traits<int,HonorData,std::less<int>,std::allocator<std::pair<int const ,HonorData> >,0> >::_Find_lower_bound<int>

; 1624 :         return !_Bound->_Isnil && !_DEBUG_LT_PRED(_Getcomp(), _Keyval, _Traits::_Kfn(_Bound->_Myval));

  0002f	8b 45 fc	 mov	 eax, DWORD PTR __Loc$4[ebp+8]
  00032	80 78 0d 00	 cmp	 BYTE PTR [eax+13], 0
  00036	0f 85 a3 00 00
	00		 jne	 $LN11@GetNeedCou
; File C:\Program Files\Microsoft Visual Studio\2022\Professional\VC\Tools\MSVC\14.44.35207\include\type_traits

; 2380 :         return _Left < _Right;

  0003c	8b 4d 08	 mov	 ecx, DWORD PTR _nId$[ebp]
  0003f	3b 48 10	 cmp	 ecx, DWORD PTR [eax+16]
; File C:\Program Files\Microsoft Visual Studio\2022\Professional\VC\Tools\MSVC\14.44.35207\include\xtree

; 1624 :         return !_Bound->_Isnil && !_DEBUG_LT_PRED(_Getcomp(), _Keyval, _Traits::_Kfn(_Bound->_Myval));

  00042	0f 8c 97 00 00
	00		 jl	 $LN11@GetNeedCou

; 37   :     _Tree_unchecked_const_iterator(_Nodeptr _Pnode, const _Mytree* _Plist) noexcept : _Ptr(_Pnode) {

  00048	3b 46 10	 cmp	 eax, DWORD PTR [esi+16]
; File C:\IAGOS\server\v18\Source\Source\_Common\honor.cpp

; 353  : 			if(iter != m_mapEtc.end()) 

  0004b	0f 84 8e 00 00
	00		 je	 $LN11@GetNeedCou

; 354  : 			{
; 355  : 				return iter->second.nNeed;

  00051	8b 40 20	 mov	 eax, DWORD PTR [eax+32]
  00054	5e		 pop	 esi

; 356  : 			}
; 357  : 			else
; 358  : 				return -1;
; 359  : 			break;
; 360  : 	};
; 361  : 	return -1;
; 362  : }

  00055	8b e5		 mov	 esp, ebp
  00057	5d		 pop	 ebp
  00058	c2 08 00	 ret	 8
$LN7@GetNeedCou:
; File C:\Program Files\Microsoft Visual Studio\2022\Professional\VC\Tools\MSVC\14.44.35207\include\xtree

; 1384 :         const _Tree_find_result<_Nodeptr> _Loc = _Find_lower_bound(_Keyval);

  0005b	8d 4e 08	 lea	 ecx, DWORD PTR [esi+8]
  0005e	e8 00 00 00 00	 call	 ??$_Find_lower_bound@H@?$_Tree@V?$_Tmap_traits@HUHonorData@@U?$less@H@std@@V?$allocator@U?$pair@$$CBHUHonorData@@@std@@@3@$0A@@std@@@std@@IBE?AU?$_Tree_find_result@PAU?$_Tree_node@U?$pair@$$CBHUHonorData@@@std@@PAX@std@@@1@ABH@Z ; std::_Tree<std::_Tmap_traits<int,HonorData,std::less<int>,std::allocator<std::pair<int const ,HonorData> >,0> >::_Find_lower_bound<int>

; 1624 :         return !_Bound->_Isnil && !_DEBUG_LT_PRED(_Getcomp(), _Keyval, _Traits::_Kfn(_Bound->_Myval));

  00063	8b 45 fc	 mov	 eax, DWORD PTR __Loc$3[ebp+8]
  00066	80 78 0d 00	 cmp	 BYTE PTR [eax+13], 0
  0006a	75 73		 jne	 SHORT $LN11@GetNeedCou
; File C:\Program Files\Microsoft Visual Studio\2022\Professional\VC\Tools\MSVC\14.44.35207\include\type_traits

; 2380 :         return _Left < _Right;

  0006c	8b 4d 08	 mov	 ecx, DWORD PTR _nId$[ebp]
  0006f	3b 48 10	 cmp	 ecx, DWORD PTR [eax+16]
; File C:\Program Files\Microsoft Visual Studio\2022\Professional\VC\Tools\MSVC\14.44.35207\include\xtree

; 1624 :         return !_Bound->_Isnil && !_DEBUG_LT_PRED(_Getcomp(), _Keyval, _Traits::_Kfn(_Bound->_Myval));

  00072	7c 6b		 jl	 SHORT $LN11@GetNeedCou

; 37   :     _Tree_unchecked_const_iterator(_Nodeptr _Pnode, const _Mytree* _Plist) noexcept : _Ptr(_Pnode) {

  00074	3b 46 08	 cmp	 eax, DWORD PTR [esi+8]
; File C:\IAGOS\server\v18\Source\Source\_Common\honor.cpp

; 333  : 			if(iter != m_mapItem.end()) 

  00077	74 66		 je	 SHORT $LN11@GetNeedCou

; 334  : 			{
; 335  : 				return iter->second.nNeed;

  00079	8b 40 20	 mov	 eax, DWORD PTR [eax+32]
  0007c	5e		 pop	 esi

; 356  : 			}
; 357  : 			else
; 358  : 				return -1;
; 359  : 			break;
; 360  : 	};
; 361  : 	return -1;
; 362  : }

  0007d	8b e5		 mov	 esp, ebp
  0007f	5d		 pop	 ebp
  00080	c2 08 00	 ret	 8
$LN4@GetNeedCou:
; File C:\Program Files\Microsoft Visual Studio\2022\Professional\VC\Tools\MSVC\14.44.35207\include\xtree

; 1384 :         const _Tree_find_result<_Nodeptr> _Loc = _Find_lower_bound(_Keyval);

  00083	8d 45 08	 lea	 eax, DWORD PTR _nId$[ebp]
  00086	50		 push	 eax
  00087	8d 45 f4	 lea	 eax, DWORD PTR __Loc$2[ebp]
  0008a	50		 push	 eax
  0008b	e8 00 00 00 00	 call	 ??$_Find_lower_bound@H@?$_Tree@V?$_Tmap_traits@HUHonorData@@U?$less@H@std@@V?$allocator@U?$pair@$$CBHUHonorData@@@std@@@3@$0A@@std@@@std@@IBE?AU?$_Tree_find_result@PAU?$_Tree_node@U?$pair@$$CBHUHonorData@@@std@@PAX@std@@@1@ABH@Z ; std::_Tree<std::_Tmap_traits<int,HonorData,std::less<int>,std::allocator<std::pair<int const ,HonorData> >,0> >::_Find_lower_bound<int>

; 1624 :         return !_Bound->_Isnil && !_DEBUG_LT_PRED(_Getcomp(), _Keyval, _Traits::_Kfn(_Bound->_Myval));

  00090	8b 45 fc	 mov	 eax, DWORD PTR __Loc$2[ebp+8]
  00093	80 78 0d 00	 cmp	 BYTE PTR [eax+13], 0
  00097	75 46		 jne	 SHORT $LN11@GetNeedCou
; File C:\Program Files\Microsoft Visual Studio\2022\Professional\VC\Tools\MSVC\14.44.35207\include\type_traits

; 2380 :         return _Left < _Right;

  00099	8b 4d 08	 mov	 ecx, DWORD PTR _nId$[ebp]
  0009c	3b 48 10	 cmp	 ecx, DWORD PTR [eax+16]
; File C:\Program Files\Microsoft Visual Studio\2022\Professional\VC\Tools\MSVC\14.44.35207\include\xtree

; 1624 :         return !_Bound->_Isnil && !_DEBUG_LT_PRED(_Getcomp(), _Keyval, _Traits::_Kfn(_Bound->_Myval));

  0009f	7c 3e		 jl	 SHORT $LN11@GetNeedCou

; 37   :     _Tree_unchecked_const_iterator(_Nodeptr _Pnode, const _Mytree* _Plist) noexcept : _Ptr(_Pnode) {

  000a1	3b 06		 cmp	 eax, DWORD PTR [esi]
; File C:\IAGOS\server\v18\Source\Source\_Common\honor.cpp

; 323  : 			if(iter != m_mapMonster.end()) 

  000a3	74 3a		 je	 SHORT $LN11@GetNeedCou

; 324  : 			{
; 325  : 				return iter->second.nNeed;

  000a5	8b 40 20	 mov	 eax, DWORD PTR [eax+32]
  000a8	5e		 pop	 esi

; 356  : 			}
; 357  : 			else
; 358  : 				return -1;
; 359  : 			break;
; 360  : 	};
; 361  : 	return -1;
; 362  : }

  000a9	8b e5		 mov	 esp, ebp
  000ab	5d		 pop	 ebp
  000ac	c2 08 00	 ret	 8
$LN10@GetNeedCou:
; File C:\Program Files\Microsoft Visual Studio\2022\Professional\VC\Tools\MSVC\14.44.35207\include\xtree

; 1384 :         const _Tree_find_result<_Nodeptr> _Loc = _Find_lower_bound(_Keyval);

  000af	8d 45 08	 lea	 eax, DWORD PTR _nId$[ebp]
  000b2	50		 push	 eax
  000b3	8d 45 f4	 lea	 eax, DWORD PTR __Loc$1[ebp]
  000b6	50		 push	 eax
  000b7	8d 4e 18	 lea	 ecx, DWORD PTR [esi+24]
  000ba	e8 00 00 00 00	 call	 ??$_Find_lower_bound@H@?$_Tree@V?$_Tmap_traits@HUHonorData@@U?$less@H@std@@V?$allocator@U?$pair@$$CBHUHonorData@@@std@@@3@$0A@@std@@@std@@IBE?AU?$_Tree_find_result@PAU?$_Tree_node@U?$pair@$$CBHUHonorData@@@std@@PAX@std@@@1@ABH@Z ; std::_Tree<std::_Tmap_traits<int,HonorData,std::less<int>,std::allocator<std::pair<int const ,HonorData> >,0> >::_Find_lower_bound<int>

; 1624 :         return !_Bound->_Isnil && !_DEBUG_LT_PRED(_Getcomp(), _Keyval, _Traits::_Kfn(_Bound->_Myval));

  000bf	8b 45 fc	 mov	 eax, DWORD PTR __Loc$1[ebp+8]
  000c2	80 78 0d 00	 cmp	 BYTE PTR [eax+13], 0
  000c6	75 17		 jne	 SHORT $LN11@GetNeedCou
; File C:\Program Files\Microsoft Visual Studio\2022\Professional\VC\Tools\MSVC\14.44.35207\include\type_traits

; 2380 :         return _Left < _Right;

  000c8	8b 4d 08	 mov	 ecx, DWORD PTR _nId$[ebp]
  000cb	3b 48 10	 cmp	 ecx, DWORD PTR [eax+16]
; File C:\Program Files\Microsoft Visual Studio\2022\Professional\VC\Tools\MSVC\14.44.35207\include\xtree

; 1624 :         return !_Bound->_Isnil && !_DEBUG_LT_PRED(_Getcomp(), _Keyval, _Traits::_Kfn(_Bound->_Myval));

  000ce	7c 0f		 jl	 SHORT $LN11@GetNeedCou

; 37   :     _Tree_unchecked_const_iterator(_Nodeptr _Pnode, const _Mytree* _Plist) noexcept : _Ptr(_Pnode) {

  000d0	3b 46 18	 cmp	 eax, DWORD PTR [esi+24]
; File C:\IAGOS\server\v18\Source\Source\_Common\honor.cpp

; 343  : 			if(iter != m_mapAll.end()) 

  000d3	74 0a		 je	 SHORT $LN11@GetNeedCou

; 344  : 			{
; 345  : 				return iter->second.nNeed;

  000d5	8b 40 20	 mov	 eax, DWORD PTR [eax+32]
  000d8	5e		 pop	 esi

; 356  : 			}
; 357  : 			else
; 358  : 				return -1;
; 359  : 			break;
; 360  : 	};
; 361  : 	return -1;
; 362  : }

  000d9	8b e5		 mov	 esp, ebp
  000db	5d		 pop	 ebp
  000dc	c2 08 00	 ret	 8
$LN11@GetNeedCou:

; 346  : 			}
; 347  : 			else
; 348  : 				return -1;

  000df	83 c8 ff	 or	 eax, -1
  000e2	5e		 pop	 esi

; 356  : 			}
; 357  : 			else
; 358  : 				return -1;
; 359  : 			break;
; 360  : 	};
; 361  : 	return -1;
; 362  : }

  000e3	8b e5		 mov	 esp, ebp
  000e5	5d		 pop	 ebp
  000e6	c2 08 00	 ret	 8
?GetNeedCount@CTitleManager@@QAEHHH@Z ENDP		; CTitleManager::GetNeedCount
_TEXT	ENDS
; Function compile flags: /Ogtp
; File C:\IAGOS\server\v18\Source\Source\_Common\honor.cpp
; File C:\Program Files\Microsoft Visual Studio\2022\Professional\VC\Tools\MSVC\14.44.35207\include\xtree
; File C:\IAGOS\server\v18\Source\Source\_Common\honor.cpp
; File C:\Program Files\Microsoft Visual Studio\2022\Professional\VC\Tools\MSVC\14.44.35207\include\xtree
; File C:\Program Files\Microsoft Visual Studio\2022\Professional\VC\Tools\MSVC\14.44.35207\include\type_traits
; File C:\Program Files\Microsoft Visual Studio\2022\Professional\VC\Tools\MSVC\14.44.35207\include\xtree
; File C:\IAGOS\server\v18\Source\Source\_Common\honor.cpp
;	COMDAT ?GetTitle@CTitleManager@@QAEPADH@Z
_TEXT	SEGMENT
__Loc$1 = -12						; size = 12
_nId$ = 8						; size = 4
?GetTitle@CTitleManager@@QAEPADH@Z PROC			; CTitleManager::GetTitle, COMDAT
; _this$ = ecx

; 265  : {

  00000	55		 push	 ebp
  00001	8b ec		 mov	 ebp, esp
  00003	83 ec 0c	 sub	 esp, 12			; 0000000cH
  00006	56		 push	 esi

; 266  : 	map<int, HonorData>::iterator iter;
; 267  : 	if(nId == -1) return NULL; 

  00007	8b 75 08	 mov	 esi, DWORD PTR _nId$[ebp]
  0000a	57		 push	 edi
  0000b	83 fe ff	 cmp	 esi, -1
  0000e	74 2f		 je	 SHORT $LN3@GetTitle
; File C:\Program Files\Microsoft Visual Studio\2022\Professional\VC\Tools\MSVC\14.44.35207\include\xtree

; 1384 :         const _Tree_find_result<_Nodeptr> _Loc = _Find_lower_bound(_Keyval);

  00010	8d 45 08	 lea	 eax, DWORD PTR _nId$[ebp]
  00013	50		 push	 eax
; File C:\IAGOS\server\v18\Source\Source\_Common\honor.cpp

; 269  : 	iter = m_mapAll.find(nId);	// ¸ó˝şĹÍ ľĆŔĚµđ·Î °Ë»ö

  00014	8d 79 18	 lea	 edi, DWORD PTR [ecx+24]
; File C:\Program Files\Microsoft Visual Studio\2022\Professional\VC\Tools\MSVC\14.44.35207\include\xtree

; 1384 :         const _Tree_find_result<_Nodeptr> _Loc = _Find_lower_bound(_Keyval);

  00017	8d 45 f4	 lea	 eax, DWORD PTR __Loc$1[ebp]
  0001a	8b cf		 mov	 ecx, edi
  0001c	50		 push	 eax
  0001d	e8 00 00 00 00	 call	 ??$_Find_lower_bound@H@?$_Tree@V?$_Tmap_traits@HUHonorData@@U?$less@H@std@@V?$allocator@U?$pair@$$CBHUHonorData@@@std@@@3@$0A@@std@@@std@@IBE?AU?$_Tree_find_result@PAU?$_Tree_node@U?$pair@$$CBHUHonorData@@@std@@PAX@std@@@1@ABH@Z ; std::_Tree<std::_Tmap_traits<int,HonorData,std::less<int>,std::allocator<std::pair<int const ,HonorData> >,0> >::_Find_lower_bound<int>

; 1624 :         return !_Bound->_Isnil && !_DEBUG_LT_PRED(_Getcomp(), _Keyval, _Traits::_Kfn(_Bound->_Myval));

  00022	8b 45 fc	 mov	 eax, DWORD PTR __Loc$1[ebp+8]
  00025	80 78 0d 00	 cmp	 BYTE PTR [eax+13], 0
  00029	75 14		 jne	 SHORT $LN3@GetTitle
; File C:\Program Files\Microsoft Visual Studio\2022\Professional\VC\Tools\MSVC\14.44.35207\include\type_traits

; 2380 :         return _Left < _Right;

  0002b	3b 70 10	 cmp	 esi, DWORD PTR [eax+16]
; File C:\Program Files\Microsoft Visual Studio\2022\Professional\VC\Tools\MSVC\14.44.35207\include\xtree

; 1624 :         return !_Bound->_Isnil && !_DEBUG_LT_PRED(_Getcomp(), _Keyval, _Traits::_Kfn(_Bound->_Myval));

  0002e	7c 0f		 jl	 SHORT $LN3@GetTitle

; 37   :     _Tree_unchecked_const_iterator(_Nodeptr _Pnode, const _Mytree* _Plist) noexcept : _Ptr(_Pnode) {

  00030	3b 07		 cmp	 eax, DWORD PTR [edi]
; File C:\IAGOS\server\v18\Source\Source\_Common\honor.cpp

; 270  : 	if(iter != m_mapAll.end()) 

  00032	74 0b		 je	 SHORT $LN3@GetTitle

; 271  : 	{
; 272  : 		return (LPSTR)(LPCSTR)iter->second.strTitle;

  00034	8b 40 28	 mov	 eax, DWORD PTR [eax+40]
  00037	5f		 pop	 edi

; 311  : 
; 312  : }

  00038	5e		 pop	 esi
  00039	8b e5		 mov	 esp, ebp
  0003b	5d		 pop	 ebp
  0003c	c2 04 00	 ret	 4
$LN3@GetTitle:
  0003f	5f		 pop	 edi

; 273  : 	}/*
; 274  : 	switch(nGroup)
; 275  : 	{
; 276  : 		
; 277  : 		case HI_HUNT_MONSTER:
; 278  : 			iter = m_mapMonster.find(nId); // ¸ó˝şĹÍ ľĆŔĚµđ·Î °Ë»ö
; 279  : 			if(iter != m_mapMonster.end()) 
; 280  : 			{
; 281  : 				return (LPSTR)(LPCSTR)iter->second.strTitle;
; 282  : 			}
; 283  : 			else
; 284  : 				return NULL;
; 285  : 			break;
; 286  : 
; 287  : 		case HI_USE_ITEM:
; 288  : 			iter = m_mapItem.find(nId); // ¸ó˝şĹÍ ľĆŔĚµđ·Î °Ë»ö
; 289  : 			if(iter != m_mapItem.end()) 
; 290  : 			{
; 291  : 				return (LPSTR)(LPCSTR)iter->second.strTitle;
; 292  : 			}
; 293  : 			else
; 294  : 				return NULL;
; 295  : 			break;
; 296  : 		
; 297  : 		default:
; 298  : 			for(iter = m_mapEtc.begin(); iter != m_mapEtc.end(); ++iter) // ±×żÜ´Â 1´ë1 Ĺ˝»ö..°ąĽö°ˇ ľó¸¶ľČµÇĽ­ ą«¸® ľřŔ»µí..
; 299  : 			{
; 300  : 				if(iter != m_mapEtc.end()) 
; 301  : 				{
; 302  : 					return (LPSTR)(LPCSTR)iter->second.strTitle;
; 303  : 				}
; 304  : 				else
; 305  : 					return NULL;
; 306  : 			}
; 307  : 			break;
; 308  : 	};*/
; 309  : 
; 310  : 	return NULL;

  00040	33 c0		 xor	 eax, eax

; 311  : 
; 312  : }

  00042	5e		 pop	 esi
  00043	8b e5		 mov	 esp, ebp
  00045	5d		 pop	 ebp
  00046	c2 04 00	 ret	 4
?GetTitle@CTitleManager@@QAEPADH@Z ENDP			; CTitleManager::GetTitle
_TEXT	ENDS
; Function compile flags: /Ogtp
; File C:\IAGOS\server\v18\Source\Source\_Common\honor.cpp
; File C:\Program Files\Microsoft Visual Studio\2022\Professional\VC\Tools\MSVC\14.44.35207\atlmfc\include\afxstr.h
; File C:\Program Files\Microsoft Visual Studio\2022\Professional\VC\Tools\MSVC\14.44.35207\atlmfc\include\atlsimpstr.h
; File C:\IAGOS\server\v18\Source\Source\_Common\honor.h
; File C:\Program Files\Microsoft Visual Studio\2022\Professional\VC\Tools\MSVC\14.44.35207\atlmfc\include\atlsimpstr.h
; File C:\IAGOS\server\v18\Source\Source\_Common\honor.h
; File C:\IAGOS\server\v18\Source\Source\_Common\honor.cpp
; File C:\IAGOS\server\v18\Source\Source\_Common\honor.h
; File C:\IAGOS\server\v18\Source\Source\_Common\honor.cpp
; File C:\IAGOS\server\v18\Source\Source\_Common\honor.h
; File C:\IAGOS\server\v18\Source\Source\_Common\honor.cpp
; File C:\Program Files\Microsoft Visual Studio\2022\Professional\VC\Tools\MSVC\14.44.35207\atlmfc\include\cstringt.h
; File C:\IAGOS\server\v18\Source\Source\_Common\honor.cpp
; File C:\Program Files\Microsoft Visual Studio\2022\Professional\VC\Tools\MSVC\14.44.35207\include\utility
; File C:\Program Files\Microsoft Visual Studio\2022\Professional\VC\Tools\MSVC\14.44.35207\atlmfc\include\atlsimpstr.h
; File C:\Program Files\Microsoft Visual Studio\2022\Professional\VC\Tools\MSVC\14.44.35207\include\utility
; File C:\Program Files\Microsoft Visual Studio\2022\Professional\VC\Tools\MSVC\14.44.35207\atlmfc\include\atlsimpstr.h
; File C:\Program Files\Microsoft Visual Studio\2022\Professional\VC\Tools\MSVC\14.44.35207\include\xtree
; File C:\IAGOS\server\v18\Source\Source\_Common\honor.cpp
; File C:\Program Files\Microsoft Visual Studio\2022\Professional\VC\Tools\MSVC\14.44.35207\include\xtree
; File C:\IAGOS\server\v18\Source\Source\_Common\honor.cpp
; File C:\Program Files\Microsoft Visual Studio\2022\Professional\VC\Tools\MSVC\14.44.35207\include\xtree
; File C:\IAGOS\server\v18\Source\Source\_Common\honor.cpp
; File C:\Program Files\Microsoft Visual Studio\2022\Professional\VC\Tools\MSVC\14.44.35207\include\xtree
; File C:\Program Files\Microsoft Visual Studio\2022\Professional\VC\Tools\MSVC\14.44.35207\include\type_traits
; File C:\Program Files\Microsoft Visual Studio\2022\Professional\VC\Tools\MSVC\14.44.35207\include\xtree
; File C:\Program Files\Microsoft Visual Studio\2022\Professional\VC\Tools\MSVC\14.44.35207\include\xmemory
; File C:\Program Files\Microsoft Visual Studio\2022\Professional\VC\Tools\MSVC\14.44.35207\include\xtree
; File C:\Program Files\Microsoft Visual Studio\2022\Professional\VC\Tools\MSVC\14.44.35207\include\xmemory
; File C:\Program Files\Microsoft Visual Studio\2022\Professional\VC\Tools\MSVC\14.44.35207\include\utility
; File C:\Program Files\Microsoft Visual Studio\2022\Professional\VC\Tools\MSVC\14.44.35207\atlmfc\include\atlsimpstr.h
; File C:\Program Files\Microsoft Visual Studio\2022\Professional\VC\Tools\MSVC\14.44.35207\include\utility
; File C:\Program Files\Microsoft Visual Studio\2022\Professional\VC\Tools\MSVC\14.44.35207\include\xtree
; File C:\Program Files\Microsoft Visual Studio\2022\Professional\VC\Tools\MSVC\14.44.35207\atlmfc\include\atlsimpstr.h
; File C:\Program Files\Microsoft Visual Studio\2022\Professional\VC\Tools\MSVC\14.44.35207\include\xtree
; File C:\Program Files\Microsoft Visual Studio\2022\Professional\VC\Tools\MSVC\14.44.35207\atlmfc\include\atlsimpstr.h
; File C:\Program Files\Microsoft Visual Studio\2022\Professional\VC\Tools\MSVC\14.44.35207\include\utility
; File C:\Program Files\Microsoft Visual Studio\2022\Professional\VC\Tools\MSVC\14.44.35207\atlmfc\include\atlsimpstr.h
; File C:\Program Files\Microsoft Visual Studio\2022\Professional\VC\Tools\MSVC\14.44.35207\include\xtree
; File C:\IAGOS\server\v18\Source\Source\_Common\honor.cpp
; File C:\Program Files\Microsoft Visual Studio\2022\Professional\VC\Tools\MSVC\14.44.35207\atlmfc\include\atlsimpstr.h
; File C:\Program Files\Microsoft Visual Studio\2022\Professional\VC\Tools\MSVC\14.44.35207\include\utility
; File C:\Program Files\Microsoft Visual Studio\2022\Professional\VC\Tools\MSVC\14.44.35207\atlmfc\include\atlsimpstr.h
; File C:\Program Files\Microsoft Visual Studio\2022\Professional\VC\Tools\MSVC\14.44.35207\include\utility
; File C:\Program Files\Microsoft Visual Studio\2022\Professional\VC\Tools\MSVC\14.44.35207\atlmfc\include\atlsimpstr.h
; File C:\Program Files\Microsoft Visual Studio\2022\Professional\VC\Tools\MSVC\14.44.35207\include\xtree
; File C:\IAGOS\server\v18\Source\Source\_Common\honor.cpp
; File C:\Program Files\Microsoft Visual Studio\2022\Professional\VC\Tools\MSVC\14.44.35207\include\xtree
; File C:\IAGOS\server\v18\Source\Source\_Common\honor.cpp
; File C:\Program Files\Microsoft Visual Studio\2022\Professional\VC\Tools\MSVC\14.44.35207\include\xtree
; File C:\IAGOS\server\v18\Source\Source\_Common\honor.cpp
; File C:\Program Files\Microsoft Visual Studio\2022\Professional\VC\Tools\MSVC\14.44.35207\include\xtree
; File C:\Program Files\Microsoft Visual Studio\2022\Professional\VC\Tools\MSVC\14.44.35207\include\type_traits
; File C:\Program Files\Microsoft Visual Studio\2022\Professional\VC\Tools\MSVC\14.44.35207\include\xtree
; File C:\Program Files\Microsoft Visual Studio\2022\Professional\VC\Tools\MSVC\14.44.35207\include\xmemory
; File C:\Program Files\Microsoft Visual Studio\2022\Professional\VC\Tools\MSVC\14.44.35207\include\xtree
; File C:\Program Files\Microsoft Visual Studio\2022\Professional\VC\Tools\MSVC\14.44.35207\include\xmemory
; File C:\Program Files\Microsoft Visual Studio\2022\Professional\VC\Tools\MSVC\14.44.35207\include\utility
; File C:\Program Files\Microsoft Visual Studio\2022\Professional\VC\Tools\MSVC\14.44.35207\atlmfc\include\atlsimpstr.h
; File C:\Program Files\Microsoft Visual Studio\2022\Professional\VC\Tools\MSVC\14.44.35207\include\utility
; File C:\Program Files\Microsoft Visual Studio\2022\Professional\VC\Tools\MSVC\14.44.35207\include\xtree
; File C:\Program Files\Microsoft Visual Studio\2022\Professional\VC\Tools\MSVC\14.44.35207\atlmfc\include\atlsimpstr.h
; File C:\Program Files\Microsoft Visual Studio\2022\Professional\VC\Tools\MSVC\14.44.35207\include\utility
; File C:\Program Files\Microsoft Visual Studio\2022\Professional\VC\Tools\MSVC\14.44.35207\include\xtree
; File C:\Program Files\Microsoft Visual Studio\2022\Professional\VC\Tools\MSVC\14.44.35207\atlmfc\include\atlsimpstr.h
; File C:\IAGOS\server\v18\Source\Source\_Common\honor.cpp
; File C:\Program Files\Microsoft Visual Studio\2022\Professional\VC\Tools\MSVC\14.44.35207\include\utility
; File C:\Program Files\Microsoft Visual Studio\2022\Professional\VC\Tools\MSVC\14.44.35207\atlmfc\include\atlsimpstr.h
; File C:\Program Files\Microsoft Visual Studio\2022\Professional\VC\Tools\MSVC\14.44.35207\include\utility
; File C:\Program Files\Microsoft Visual Studio\2022\Professional\VC\Tools\MSVC\14.44.35207\atlmfc\include\atlsimpstr.h
; File C:\Program Files\Microsoft Visual Studio\2022\Professional\VC\Tools\MSVC\14.44.35207\include\xtree
; File C:\IAGOS\server\v18\Source\Source\_Common\honor.cpp
; File C:\Program Files\Microsoft Visual Studio\2022\Professional\VC\Tools\MSVC\14.44.35207\include\xtree
; File C:\IAGOS\server\v18\Source\Source\_Common\honor.cpp
; File C:\Program Files\Microsoft Visual Studio\2022\Professional\VC\Tools\MSVC\14.44.35207\include\xtree
; File C:\IAGOS\server\v18\Source\Source\_Common\honor.cpp
; File C:\Program Files\Microsoft Visual Studio\2022\Professional\VC\Tools\MSVC\14.44.35207\include\xtree
; File C:\Program Files\Microsoft Visual Studio\2022\Professional\VC\Tools\MSVC\14.44.35207\include\type_traits
; File C:\Program Files\Microsoft Visual Studio\2022\Professional\VC\Tools\MSVC\14.44.35207\include\xtree
; File C:\Program Files\Microsoft Visual Studio\2022\Professional\VC\Tools\MSVC\14.44.35207\include\xmemory
; File C:\Program Files\Microsoft Visual Studio\2022\Professional\VC\Tools\MSVC\14.44.35207\include\xtree
; File C:\Program Files\Microsoft Visual Studio\2022\Professional\VC\Tools\MSVC\14.44.35207\include\xmemory
; File C:\Program Files\Microsoft Visual Studio\2022\Professional\VC\Tools\MSVC\14.44.35207\include\utility
; File C:\Program Files\Microsoft Visual Studio\2022\Professional\VC\Tools\MSVC\14.44.35207\atlmfc\include\atlsimpstr.h
; File C:\Program Files\Microsoft Visual Studio\2022\Professional\VC\Tools\MSVC\14.44.35207\include\utility
; File C:\Program Files\Microsoft Visual Studio\2022\Professional\VC\Tools\MSVC\14.44.35207\include\xtree
; File C:\Program Files\Microsoft Visual Studio\2022\Professional\VC\Tools\MSVC\14.44.35207\atlmfc\include\atlsimpstr.h
; File C:\Program Files\Microsoft Visual Studio\2022\Professional\VC\Tools\MSVC\14.44.35207\include\xtree
; File C:\Program Files\Microsoft Visual Studio\2022\Professional\VC\Tools\MSVC\14.44.35207\atlmfc\include\atlsimpstr.h
; File C:\Program Files\Microsoft Visual Studio\2022\Professional\VC\Tools\MSVC\14.44.35207\include\utility
; File C:\Program Files\Microsoft Visual Studio\2022\Professional\VC\Tools\MSVC\14.44.35207\atlmfc\include\atlsimpstr.h
; File C:\Program Files\Microsoft Visual Studio\2022\Professional\VC\Tools\MSVC\14.44.35207\include\xtree
; File C:\IAGOS\server\v18\Source\Source\_Common\honor.cpp
; File C:\Program Files\Microsoft Visual Studio\2022\Professional\VC\Tools\MSVC\14.44.35207\atlmfc\include\atlsimpstr.h
; File C:\Program Files\Microsoft Visual Studio\2022\Professional\VC\Tools\MSVC\14.44.35207\include\utility
; File C:\Program Files\Microsoft Visual Studio\2022\Professional\VC\Tools\MSVC\14.44.35207\atlmfc\include\atlsimpstr.h
; File C:\Program Files\Microsoft Visual Studio\2022\Professional\VC\Tools\MSVC\14.44.35207\include\utility
; File C:\Program Files\Microsoft Visual Studio\2022\Professional\VC\Tools\MSVC\14.44.35207\atlmfc\include\atlsimpstr.h
; File C:\Program Files\Microsoft Visual Studio\2022\Professional\VC\Tools\MSVC\14.44.35207\include\xtree
; File C:\IAGOS\server\v18\Source\Source\_Common\honor.cpp
; File C:\Program Files\Microsoft Visual Studio\2022\Professional\VC\Tools\MSVC\14.44.35207\include\xtree
; File C:\IAGOS\server\v18\Source\Source\_Common\honor.cpp
; File C:\Program Files\Microsoft Visual Studio\2022\Professional\VC\Tools\MSVC\14.44.35207\include\xtree
; File C:\IAGOS\server\v18\Source\Source\_Common\honor.cpp
; File C:\Program Files\Microsoft Visual Studio\2022\Professional\VC\Tools\MSVC\14.44.35207\include\xtree
; File C:\Program Files\Microsoft Visual Studio\2022\Professional\VC\Tools\MSVC\14.44.35207\include\type_traits
; File C:\Program Files\Microsoft Visual Studio\2022\Professional\VC\Tools\MSVC\14.44.35207\include\xtree
; File C:\Program Files\Microsoft Visual Studio\2022\Professional\VC\Tools\MSVC\14.44.35207\include\xmemory
; File C:\Program Files\Microsoft Visual Studio\2022\Professional\VC\Tools\MSVC\14.44.35207\include\xtree
; File C:\Program Files\Microsoft Visual Studio\2022\Professional\VC\Tools\MSVC\14.44.35207\include\xmemory
; File C:\Program Files\Microsoft Visual Studio\2022\Professional\VC\Tools\MSVC\14.44.35207\include\xtree
; File C:\Program Files\Microsoft Visual Studio\2022\Professional\VC\Tools\MSVC\14.44.35207\include\xmemory
; File C:\Program Files\Microsoft Visual Studio\2022\Professional\VC\Tools\MSVC\14.44.35207\include\utility
; File C:\Program Files\Microsoft Visual Studio\2022\Professional\VC\Tools\MSVC\14.44.35207\include\xtree
; File C:\Program Files\Microsoft Visual Studio\2022\Professional\VC\Tools\MSVC\14.44.35207\include\utility
; File C:\Program Files\Microsoft Visual Studio\2022\Professional\VC\Tools\MSVC\14.44.35207\include\xtree
; File C:\Program Files\Microsoft Visual Studio\2022\Professional\VC\Tools\MSVC\14.44.35207\include\utility
; File C:\Program Files\Microsoft Visual Studio\2022\Professional\VC\Tools\MSVC\14.44.35207\include\xtree
; File C:\IAGOS\server\v18\Source\Source\_Common\honor.cpp
; File C:\Program Files\Microsoft Visual Studio\2022\Professional\VC\Tools\MSVC\14.44.35207\atlmfc\include\atlsimpstr.h
; File C:\IAGOS\server\v18\Source\Source\_Common\honor.cpp
; File C:\Program Files\Microsoft Visual Studio\2022\Professional\VC\Tools\MSVC\14.44.35207\atlmfc\include\atlsimpstr.h
; File C:\IAGOS\server\v18\Source\Source\_Common\honor.cpp
; File C:\Program Files\Microsoft Visual Studio\2022\Professional\VC\Tools\MSVC\14.44.35207\include\utility
; File C:\Program Files\Microsoft Visual Studio\2022\Professional\VC\Tools\MSVC\14.44.35207\atlmfc\include\atlsimpstr.h
; File C:\Program Files\Microsoft Visual Studio\2022\Professional\VC\Tools\MSVC\14.44.35207\include\utility
; File C:\Program Files\Microsoft Visual Studio\2022\Professional\VC\Tools\MSVC\14.44.35207\atlmfc\include\atlsimpstr.h
; File C:\Program Files\Microsoft Visual Studio\2022\Professional\VC\Tools\MSVC\14.44.35207\include\xtree
; File C:\IAGOS\server\v18\Source\Source\_Common\honor.cpp
; File C:\Program Files\Microsoft Visual Studio\2022\Professional\VC\Tools\MSVC\14.44.35207\include\xtree
; File C:\Program Files\Microsoft Visual Studio\2022\Professional\VC\Tools\MSVC\14.44.35207\include\type_traits
; File C:\Program Files\Microsoft Visual Studio\2022\Professional\VC\Tools\MSVC\14.44.35207\include\xtree
; File C:\Program Files\Microsoft Visual Studio\2022\Professional\VC\Tools\MSVC\14.44.35207\include\xmemory
; File C:\Program Files\Microsoft Visual Studio\2022\Professional\VC\Tools\MSVC\14.44.35207\include\xtree
; File C:\Program Files\Microsoft Visual Studio\2022\Professional\VC\Tools\MSVC\14.44.35207\include\xmemory
; File C:\Program Files\Microsoft Visual Studio\2022\Professional\VC\Tools\MSVC\14.44.35207\include\utility
; File C:\Program Files\Microsoft Visual Studio\2022\Professional\VC\Tools\MSVC\14.44.35207\atlmfc\include\atlsimpstr.h
; File C:\Program Files\Microsoft Visual Studio\2022\Professional\VC\Tools\MSVC\14.44.35207\include\utility
; File C:\Program Files\Microsoft Visual Studio\2022\Professional\VC\Tools\MSVC\14.44.35207\include\xtree
; File C:\Program Files\Microsoft Visual Studio\2022\Professional\VC\Tools\MSVC\14.44.35207\atlmfc\include\atlsimpstr.h
; File C:\Program Files\Microsoft Visual Studio\2022\Professional\VC\Tools\MSVC\14.44.35207\include\utility
; File C:\Program Files\Microsoft Visual Studio\2022\Professional\VC\Tools\MSVC\14.44.35207\atlmfc\include\atlsimpstr.h
; File C:\Program Files\Microsoft Visual Studio\2022\Professional\VC\Tools\MSVC\14.44.35207\include\xtree
; File C:\IAGOS\server\v18\Source\Source\_Common\honor.cpp
; File C:\Program Files\Microsoft Visual Studio\2022\Professional\VC\Tools\MSVC\14.44.35207\atlmfc\include\atlsimpstr.h
; File C:\Program Files\Microsoft Visual Studio\2022\Professional\VC\Tools\MSVC\14.44.35207\include\utility
; File C:\Program Files\Microsoft Visual Studio\2022\Professional\VC\Tools\MSVC\14.44.35207\atlmfc\include\atlsimpstr.h
; File C:\Program Files\Microsoft Visual Studio\2022\Professional\VC\Tools\MSVC\14.44.35207\include\utility
; File C:\Program Files\Microsoft Visual Studio\2022\Professional\VC\Tools\MSVC\14.44.35207\atlmfc\include\atlsimpstr.h
; File C:\Program Files\Microsoft Visual Studio\2022\Professional\VC\Tools\MSVC\14.44.35207\include\xtree
; File C:\IAGOS\server\v18\Source\Source\_Common\honor.cpp
; File C:\Program Files\Microsoft Visual Studio\2022\Professional\VC\Tools\MSVC\14.44.35207\include\xtree
; File C:\IAGOS\server\v18\Source\Source\_Common\honor.cpp
; File C:\Program Files\Microsoft Visual Studio\2022\Professional\VC\Tools\MSVC\14.44.35207\include\xtree
; File C:\IAGOS\server\v18\Source\Source\_Common\honor.cpp
; File C:\Program Files\Microsoft Visual Studio\2022\Professional\VC\Tools\MSVC\14.44.35207\include\xtree
; File C:\Program Files\Microsoft Visual Studio\2022\Professional\VC\Tools\MSVC\14.44.35207\include\type_traits
; File C:\Program Files\Microsoft Visual Studio\2022\Professional\VC\Tools\MSVC\14.44.35207\include\xtree
; File C:\Program Files\Microsoft Visual Studio\2022\Professional\VC\Tools\MSVC\14.44.35207\include\xmemory
; File C:\Program Files\Microsoft Visual Studio\2022\Professional\VC\Tools\MSVC\14.44.35207\include\xtree
; File C:\Program Files\Microsoft Visual Studio\2022\Professional\VC\Tools\MSVC\14.44.35207\include\xmemory
; File C:\Program Files\Microsoft Visual Studio\2022\Professional\VC\Tools\MSVC\14.44.35207\include\utility
; File C:\Program Files\Microsoft Visual Studio\2022\Professional\VC\Tools\MSVC\14.44.35207\atlmfc\include\atlsimpstr.h
; File C:\Program Files\Microsoft Visual Studio\2022\Professional\VC\Tools\MSVC\14.44.35207\include\utility
; File C:\Program Files\Microsoft Visual Studio\2022\Professional\VC\Tools\MSVC\14.44.35207\include\xtree
; File C:\Program Files\Microsoft Visual Studio\2022\Professional\VC\Tools\MSVC\14.44.35207\atlmfc\include\atlsimpstr.h
; File C:\Program Files\Microsoft Visual Studio\2022\Professional\VC\Tools\MSVC\14.44.35207\include\utility
; File C:\Program Files\Microsoft Visual Studio\2022\Professional\VC\Tools\MSVC\14.44.35207\include\xtree
; File C:\IAGOS\server\v18\Source\Source\_Common\honor.cpp
; File C:\IAGOS\server\v18\Source\Source\_Common\honor.h
; File C:\IAGOS\server\v18\Source\Source\_Common\honor.cpp
; File C:\Program Files\Microsoft Visual Studio\2022\Professional\VC\Tools\MSVC\14.44.35207\atlmfc\include\atlsimpstr.h
; File C:\IAGOS\server\v18\Source\Source\_Common\honor.cpp
; File C:\Program Files\Microsoft Visual Studio\2022\Professional\VC\Tools\MSVC\14.44.35207\atlmfc\include\atlsimpstr.h
; File C:\IAGOS\server\v18\Source\Source\_Common\honor.cpp
; File C:\Program Files\Microsoft Visual Studio\2022\Professional\VC\Tools\MSVC\14.44.35207\atlmfc\include\atlsimpstr.h
; File C:\IAGOS\server\v18\Source\Source\_Common\honor.cpp
;	COMDAT ?LoadTitle@CTitleManager@@QAEHPBD@Z
_TEXT	SEGMENT
$T2 = -8064						; size = 12
$T3 = -8052						; size = 12
$T4 = -8040						; size = 12
$T5 = -8028						; size = 12
$T6 = -8016						; size = 12
$T7 = -8004						; size = 12
__Loc$8 = -7992						; size = 12
__Loc$9 = -7980						; size = 12
__Loc$10 = -7968					; size = 12
__Loc$11 = -7956					; size = 12
__Loc$12 = -7944					; size = 12
__Loc$13 = -7932					; size = 12
$T14 = -7920						; size = 8
$T15 = -7912						; size = 8
$T16 = -7904						; size = 8
$T17 = -7896						; size = 8
$T18 = -7888						; size = 8
$T19 = -7880						; size = 8
_this$GSCopy$1$ = -7872					; size = 4
tv4614 = -7868						; size = 4
tv4613 = -7868						; size = 4
tv4612 = -7868						; size = 4
$T20 = -7864						; size = 28
$T21 = -7864						; size = 28
$T22 = -7864						; size = 28
$T23 = -7864						; size = 28
$T24 = -7864						; size = 28
$T25 = -7864						; size = 28
_this$1$ = -7836					; size = 4
_pData$1$ = -7836					; size = 4
_pData$1$ = -7836					; size = 4
_pData$1$ = -7836					; size = 4
_TempData$ = -7832					; size = 24
_pData$1$ = -7808					; size = 4
_this$1$ = -7808					; size = 4
_this$1$ = -7808					; size = 4
_this$1$ = -7808					; size = 4
_this$1$ = -7808					; size = 4
_pData$1$ = -7808					; size = 4
_this$ = -7804						; size = 4
_this$ = -7804						; size = 4
_this$ = -7804						; size = 4
_this$ = -7804						; size = 4
_this$ = -7804						; size = 4
_this$ = -7804						; size = 4
_this$ = -7804						; size = 4
_this$ = -7804						; size = 4
_this$ = -7804						; size = 4
_this$ = -7804						; size = 4
_script$ = -7800					; size = 7784
__$ArrayPad$ = -16					; size = 4
__$EHRec$ = -12						; size = 12
_lpszFileName$ = 8					; size = 4
?LoadTitle@CTitleManager@@QAEHPBD@Z PROC		; CTitleManager::LoadTitle, COMDAT
; _this$ = ecx

; 35   : {

  00000	55		 push	 ebp
  00001	8b ec		 mov	 ebp, esp
  00003	6a ff		 push	 -1
  00005	68 00 00 00 00	 push	 __ehhandler$?LoadTitle@CTitleManager@@QAEHPBD@Z
  0000a	64 a1 00 00 00
	00		 mov	 eax, DWORD PTR fs:0
  00010	50		 push	 eax
  00011	b8 74 1f 00 00	 mov	 eax, 8052		; 00001f74H
  00016	e8 00 00 00 00	 call	 __chkstk
  0001b	a1 00 00 00 00	 mov	 eax, DWORD PTR ___security_cookie
  00020	33 c5		 xor	 eax, ebp
  00022	89 45 f0	 mov	 DWORD PTR __$ArrayPad$[ebp], eax
  00025	53		 push	 ebx
  00026	56		 push	 esi
  00027	57		 push	 edi
  00028	50		 push	 eax
  00029	8d 45 f4	 lea	 eax, DWORD PTR __$EHRec$[ebp]
  0002c	64 a3 00 00 00
	00		 mov	 DWORD PTR fs:0, eax
  00032	8b f1		 mov	 esi, ecx
  00034	89 b5 40 e1 ff
	ff		 mov	 DWORD PTR _this$GSCopy$1$[ebp], esi
  0003a	8b 7d 08	 mov	 edi, DWORD PTR _lpszFileName$[ebp]
; File C:\Program Files\Microsoft Visual Studio\2022\Professional\VC\Tools\MSVC\14.44.35207\atlmfc\include\afxstr.h

; 56   : 		return( AfxGetStringManager() );

  0003d	e8 00 00 00 00	 call	 ?AfxGetStringManager@@YGPAUIAtlStringMgr@ATL@@XZ ; AfxGetStringManager
  00042	8b c8		 mov	 ecx, eax
; File C:\Program Files\Microsoft Visual Studio\2022\Professional\VC\Tools\MSVC\14.44.35207\atlmfc\include\atlsimpstr.h

; 209  : 		ATLENSURE( pStringMgr != NULL );

  00044	85 c9		 test	 ecx, ecx
  00046	0f 84 fa 0a 00
	00		 je	 $LN1107@LoadTitle

; 210  : 		CStringData* pData = pStringMgr->GetNilString();

  0004c	8b 01		 mov	 eax, DWORD PTR [ecx]
  0004e	ff 50 0c	 call	 DWORD PTR [eax+12]

; 211  : 		Attach( pData );

  00051	83 c0 10	 add	 eax, 16			; 00000010H
; File C:\IAGOS\server\v18\Source\Source\_Common\honor.h

; 22   : 	void Init() {nID = -1;nLGrouping =  nSGrouping = nNeed = nValue = 0; strTitle.Empty(); };

  00054	c7 85 68 e1 ff
	ff ff ff ff ff	 mov	 DWORD PTR _TempData$[ebp], -1
  0005e	8d 8d 7c e1 ff
	ff		 lea	 ecx, DWORD PTR _TempData$[ebp+20]
; File C:\Program Files\Microsoft Visual Studio\2022\Professional\VC\Tools\MSVC\14.44.35207\atlmfc\include\atlsimpstr.h

; 211  : 		Attach( pData );

  00064	89 85 7c e1 ff
	ff		 mov	 DWORD PTR _TempData$[ebp+20], eax
; File C:\IAGOS\server\v18\Source\Source\_Common\honor.h

; 22   : 	void Init() {nID = -1;nLGrouping =  nSGrouping = nNeed = nValue = 0; strTitle.Empty(); };

  0006a	c7 85 78 e1 ff
	ff 00 00 00 00	 mov	 DWORD PTR _TempData$[ebp+16], 0
  00074	c7 85 74 e1 ff
	ff 00 00 00 00	 mov	 DWORD PTR _TempData$[ebp+12], 0
  0007e	c7 85 70 e1 ff
	ff 00 00 00 00	 mov	 DWORD PTR _TempData$[ebp+8], 0
  00088	c7 85 6c e1 ff
	ff 00 00 00 00	 mov	 DWORD PTR _TempData$[ebp+4], 0
  00092	e8 00 00 00 00	 call	 ?Empty@?$CSimpleStringT@D$0A@@ATL@@QAEXXZ ; ATL::CSimpleStringT<char,0>::Empty
; File C:\IAGOS\server\v18\Source\Source\_Common\honor.cpp

; 37   : 	CScript		script;

  00097	6a 00		 push	 0
  00099	8d 8d 88 e1 ff
	ff		 lea	 ecx, DWORD PTR _script$[ebp]
  0009f	c7 45 fc 00 00
	00 00		 mov	 DWORD PTR __$EHRec$[ebp+8], 0
  000a6	e8 00 00 00 00	 call	 ??0CScript@@QAE@H@Z	; CScript::CScript

; 38   : 
; 39   : 
; 40   : 	if( script.Load( lpszFileName ) == FALSE )

  000ab	6a 00		 push	 0
  000ad	6a 01		 push	 1
  000af	57		 push	 edi
  000b0	8d 8d 88 e1 ff
	ff		 lea	 ecx, DWORD PTR _script$[ebp]
  000b6	c6 45 fc 01	 mov	 BYTE PTR __$EHRec$[ebp+8], 1
  000ba	e8 00 00 00 00	 call	 ?Load@CScript@@QAEHPBDHH@Z ; CScript::Load
  000bf	83 cb ff	 or	 ebx, -1
  000c2	85 c0		 test	 eax, eax
  000c4	0f 84 26 0a 00
	00		 je	 $LN23@LoadTitle
; File C:\IAGOS\server\v18\Source\Source\_Common\honor.h

; 22   : 	void Init() {nID = -1;nLGrouping =  nSGrouping = nNeed = nValue = 0; strTitle.Empty(); };

  000ca	8d 8d 7c e1 ff
	ff		 lea	 ecx, DWORD PTR _TempData$[ebp+20]
; File C:\IAGOS\server\v18\Source\Source\_Common\honor.cpp

; 43   : 	script.tok = 0;

  000d0	c7 85 cc e9 ff
	ff 00 00 00 00	 mov	 DWORD PTR _script$[ebp+2116], 0
; File C:\IAGOS\server\v18\Source\Source\_Common\honor.h

; 22   : 	void Init() {nID = -1;nLGrouping =  nSGrouping = nNeed = nValue = 0; strTitle.Empty(); };

  000da	89 9d 68 e1 ff
	ff		 mov	 DWORD PTR _TempData$[ebp], ebx
  000e0	c7 85 78 e1 ff
	ff 00 00 00 00	 mov	 DWORD PTR _TempData$[ebp+16], 0
  000ea	c7 85 74 e1 ff
	ff 00 00 00 00	 mov	 DWORD PTR _TempData$[ebp+12], 0
  000f4	c7 85 70 e1 ff
	ff 00 00 00 00	 mov	 DWORD PTR _TempData$[ebp+8], 0
  000fe	c7 85 6c e1 ff
	ff 00 00 00 00	 mov	 DWORD PTR _TempData$[ebp+4], 0
  00108	e8 00 00 00 00	 call	 ?Empty@?$CSimpleStringT@D$0A@@ATL@@QAEXXZ ; ATL::CSimpleStringT<char,0>::Empty
; File C:\IAGOS\server\v18\Source\Source\_Common\honor.cpp

; 46   : 	TempData.nID		= script.GetNumber(); // ID

  0010d	6a 00		 push	 0
  0010f	8d 8d 88 e1 ff
	ff		 lea	 ecx, DWORD PTR _script$[ebp]
  00115	e8 00 00 00 00	 call	 ?GetNumber@CScanner@@QAEHH@Z ; CScanner::GetNumber

; 47   : 
; 48   : 	while(script.tok != FINISHED)

  0011a	83 bd cc e9 ff
	ff 15		 cmp	 DWORD PTR _script$[ebp+2116], 21 ; 00000015H
  00121	89 85 68 e1 ff
	ff		 mov	 DWORD PTR _TempData$[ebp], eax
  00127	0f 84 af 09 00
	00		 je	 $LN3@LoadTitle
  0012d	0f 1f 00	 npad	 3
$LL2@LoadTitle:

; 49   : 	{
; 50   : 		
; 51   : 		TempData.nLGrouping = script.GetNumber();	// ´ëşĐ·ů

  00130	6a 00		 push	 0
  00132	8d 8d 88 e1 ff
	ff		 lea	 ecx, DWORD PTR _script$[ebp]
  00138	e8 00 00 00 00	 call	 ?GetNumber@CScanner@@QAEHH@Z ; CScanner::GetNumber

; 52   : 		TempData.nSGrouping = script.GetNumber();	// ĽŇşĐ·ů

  0013d	6a 00		 push	 0
  0013f	8d 8d 88 e1 ff
	ff		 lea	 ecx, DWORD PTR _script$[ebp]
  00145	89 85 6c e1 ff
	ff		 mov	 DWORD PTR _TempData$[ebp+4], eax
  0014b	e8 00 00 00 00	 call	 ?GetNumber@CScanner@@QAEHH@Z ; CScanner::GetNumber

; 53   : 		TempData.nNeed		= script.GetNumber();	// Čąµć Á¶°Ç

  00150	6a 00		 push	 0
  00152	8d 8d 88 e1 ff
	ff		 lea	 ecx, DWORD PTR _script$[ebp]
  00158	89 85 70 e1 ff
	ff		 mov	 DWORD PTR _TempData$[ebp+8], eax
  0015e	e8 00 00 00 00	 call	 ?GetNumber@CScanner@@QAEHH@Z ; CScanner::GetNumber

; 54   : 		script.GetToken();

  00163	6a 00		 push	 0
  00165	8d 8d 88 e1 ff
	ff		 lea	 ecx, DWORD PTR _script$[ebp]
  0016b	89 85 74 e1 ff
	ff		 mov	 DWORD PTR _TempData$[ebp+12], eax
  00171	e8 00 00 00 00	 call	 ?GetToken@CScript@@UAEHH@Z ; CScript::GetToken
; File C:\Program Files\Microsoft Visual Studio\2022\Professional\VC\Tools\MSVC\14.44.35207\atlmfc\include\cstringt.h

; 1308 : 		CThisSimpleString::operator=( strSrc );

  00176	8d 85 a8 e1 ff
	ff		 lea	 eax, DWORD PTR _script$[ebp+32]
  0017c	50		 push	 eax
  0017d	8d 8d 7c e1 ff
	ff		 lea	 ecx, DWORD PTR _TempData$[ebp+20]
  00183	e8 00 00 00 00	 call	 ??4?$CSimpleStringT@D$0A@@ATL@@QAEAAV01@ABV01@@Z ; ATL::CSimpleStringT<char,0>::operator=
; File C:\IAGOS\server\v18\Source\Source\_Common\honor.cpp

; 56   : 		switch(TempData.nLGrouping)

  00188	8b 95 6c e1 ff
	ff		 mov	 edx, DWORD PTR _TempData$[ebp+4]
  0018e	8b c2		 mov	 eax, edx
  00190	83 e8 04	 sub	 eax, 4
  00193	0f 84 d0 05 00
	00		 je	 $LN7@LoadTitle
  00199	83 e8 01	 sub	 eax, 1
  0019c	0f 84 dc 02 00
	00		 je	 $LN10@LoadTitle
  001a2	8b 85 68 e1 ff
	ff		 mov	 eax, DWORD PTR _TempData$[ebp]
; File C:\Program Files\Microsoft Visual Studio\2022\Professional\VC\Tools\MSVC\14.44.35207\include\utility

; 274  :         : first(_STD forward<_Other1>(_Val1)), second(_STD forward<_Other2>(_Val2)) {

  001a8	8b 8d 70 e1 ff
	ff		 mov	 ecx, DWORD PTR _TempData$[ebp+8]
  001ae	89 85 4c e1 ff
	ff		 mov	 DWORD PTR $T23[ebp+4], eax
  001b4	8b 85 74 e1 ff
	ff		 mov	 eax, DWORD PTR _TempData$[ebp+12]
  001ba	89 85 58 e1 ff
	ff		 mov	 DWORD PTR $T23[ebp+16], eax
  001c0	8b 85 78 e1 ff
	ff		 mov	 eax, DWORD PTR _TempData$[ebp+16]
  001c6	89 85 5c e1 ff
	ff		 mov	 DWORD PTR $T23[ebp+20], eax
; File C:\Program Files\Microsoft Visual Studio\2022\Professional\VC\Tools\MSVC\14.44.35207\atlmfc\include\atlsimpstr.h

; 804  : 		return( reinterpret_cast< CStringData* >( m_pszData )-1 );

  001cc	8b 85 7c e1 ff
	ff		 mov	 eax, DWORD PTR _TempData$[ebp+20]
  001d2	83 c0 f0	 add	 eax, -16		; fffffff0H
; File C:\Program Files\Microsoft Visual Studio\2022\Professional\VC\Tools\MSVC\14.44.35207\include\utility

; 274  :         : first(_STD forward<_Other1>(_Val1)), second(_STD forward<_Other2>(_Val2)) {

  001d5	89 8d 48 e1 ff
	ff		 mov	 DWORD PTR $T23[ebp], ecx
; File C:\Program Files\Microsoft Visual Studio\2022\Professional\VC\Tools\MSVC\14.44.35207\atlmfc\include\atlsimpstr.h

; 217  : 		CStringData* pNewData = CloneData( pSrcData );

  001db	50		 push	 eax
  001dc	89 95 50 e1 ff
	ff		 mov	 DWORD PTR $T23[ebp+8], edx
  001e2	89 8d 54 e1 ff
	ff		 mov	 DWORD PTR $T23[ebp+12], ecx

; 804  : 		return( reinterpret_cast< CStringData* >( m_pszData )-1 );

  001e8	89 85 44 e1 ff
	ff		 mov	 DWORD PTR tv4614[ebp], eax

; 217  : 		CStringData* pNewData = CloneData( pSrcData );

  001ee	e8 00 00 00 00	 call	 ?CloneData@?$CSimpleStringT@D$0A@@ATL@@CAPAUCStringData@2@PAU32@@Z ; ATL::CSimpleStringT<char,0>::CloneData
  001f3	8b f8		 mov	 edi, eax
  001f5	83 c4 04	 add	 esp, 4
  001f8	89 bd 80 e1 ff
	ff		 mov	 DWORD PTR _pData$1$[ebp], edi

; 218  : 		Attach( pNewData );

  001fe	8d 4f 10	 lea	 ecx, DWORD PTR [edi+16]
  00201	89 8d 60 e1 ff
	ff		 mov	 DWORD PTR $T23[ebp+24], ecx
; File C:\Program Files\Microsoft Visual Studio\2022\Professional\VC\Tools\MSVC\14.44.35207\include\xtree

; 1017 :             _Loc                = _Find_lower_bound(_Keyval);

  00207	8d 85 48 e1 ff
	ff		 lea	 eax, DWORD PTR $T23[ebp]
; File C:\IAGOS\server\v18\Source\Source\_Common\honor.cpp

; 85   : 				m_mapEtc.insert(map<int, HonorData>::value_type(TempData.nSGrouping, TempData));

  0020d	c6 45 fc 0e	 mov	 BYTE PTR __$EHRec$[ebp+8], 14 ; 0000000eH
; File C:\Program Files\Microsoft Visual Studio\2022\Professional\VC\Tools\MSVC\14.44.35207\include\xtree

; 1017 :             _Loc                = _Find_lower_bound(_Keyval);

  00211	50		 push	 eax
  00212	8d 85 bc e0 ff
	ff		 lea	 eax, DWORD PTR $T7[ebp]
; File C:\IAGOS\server\v18\Source\Source\_Common\honor.cpp

; 85   : 				m_mapEtc.insert(map<int, HonorData>::value_type(TempData.nSGrouping, TempData));

  00218	8d 4e 10	 lea	 ecx, DWORD PTR [esi+16]
; File C:\Program Files\Microsoft Visual Studio\2022\Professional\VC\Tools\MSVC\14.44.35207\include\xtree

; 1017 :             _Loc                = _Find_lower_bound(_Keyval);

  0021b	50		 push	 eax
; File C:\IAGOS\server\v18\Source\Source\_Common\honor.cpp

; 85   : 				m_mapEtc.insert(map<int, HonorData>::value_type(TempData.nSGrouping, TempData));

  0021c	89 8d 64 e1 ff
	ff		 mov	 DWORD PTR _this$1$[ebp], ecx
; File C:\Program Files\Microsoft Visual Studio\2022\Professional\VC\Tools\MSVC\14.44.35207\include\xtree

; 1017 :             _Loc                = _Find_lower_bound(_Keyval);

  00222	e8 00 00 00 00	 call	 ??$_Find_lower_bound@H@?$_Tree@V?$_Tmap_traits@HUHonorData@@U?$less@H@std@@V?$allocator@U?$pair@$$CBHUHonorData@@@std@@@3@$0A@@std@@@std@@IBE?AU?$_Tree_find_result@PAU?$_Tree_node@U?$pair@$$CBHUHonorData@@@std@@PAX@std@@@1@ABH@Z ; std::_Tree<std::_Tmap_traits<int,HonorData,std::less<int>,std::allocator<std::pair<int const ,HonorData> >,0> >::_Find_lower_bound<int>
  00227	8b 48 08	 mov	 ecx, DWORD PTR [eax+8]
  0022a	f3 0f 7e 00	 movq	 xmm0, QWORD PTR [eax]
  0022e	66 0f d6 85 04
	e1 ff ff	 movq	 QWORD PTR __Loc$13[ebp], xmm0

; 1624 :         return !_Bound->_Isnil && !_DEBUG_LT_PRED(_Getcomp(), _Keyval, _Traits::_Kfn(_Bound->_Myval));

  00236	80 79 0d 00	 cmp	 BYTE PTR [ecx+13], 0
  0023a	75 0f		 jne	 SHORT $LN51@LoadTitle
; File C:\Program Files\Microsoft Visual Studio\2022\Professional\VC\Tools\MSVC\14.44.35207\include\type_traits

; 2380 :         return _Left < _Right;

  0023c	8b 85 70 e1 ff
	ff		 mov	 eax, DWORD PTR _TempData$[ebp+8]
  00242	3b 41 10	 cmp	 eax, DWORD PTR [ecx+16]
; File C:\Program Files\Microsoft Visual Studio\2022\Professional\VC\Tools\MSVC\14.44.35207\include\xtree

; 1624 :         return !_Bound->_Isnil && !_DEBUG_LT_PRED(_Getcomp(), _Keyval, _Traits::_Kfn(_Bound->_Myval));

  00245	0f 8d cf 00 00
	00		 jge	 $LN166@LoadTitle
$LN51@LoadTitle:

; 1648 :         if (max_size() == _Get_scary()->_Mysize) {

  0024b	8b 85 64 e1 ff
	ff		 mov	 eax, DWORD PTR _this$1$[ebp]
  00251	81 78 04 5d 74
	d1 05		 cmp	 DWORD PTR [eax+4], 97612893 ; 05d1745dH
  00258	0f 84 f2 08 00
	00		 je	 $LN1080@LoadTitle

; 1023 :             _Inserted = _Tree_temp_node<_Alnode>(_Getal(), _Scary->_Myhead, _STD forward<_Valtys>(_Vals)...)._Release();

  0025e	8b 18		 mov	 ebx, DWORD PTR [eax]
; File C:\Program Files\Microsoft Visual Studio\2022\Professional\VC\Tools\MSVC\14.44.35207\include\xmemory

; 1160 :     _CONSTEXPR20 explicit _Alloc_construct_ptr(_Alloc& _Al_) : _Al(_Al_), _Ptr(nullptr) {}

  00260	89 85 38 e1 ff
	ff		 mov	 DWORD PTR $T19[ebp], eax

; 136  :         return ::operator new(_Bytes);

  00266	6a 2c		 push	 44			; 0000002cH
; File C:\Program Files\Microsoft Visual Studio\2022\Professional\VC\Tools\MSVC\14.44.35207\include\xtree

; 808  :     explicit _Tree_temp_node_alloc(_Alnode& _Al_) : _Alloc_construct_ptr<_Alnode>(_Al_) {

  00268	c6 45 fc 0f	 mov	 BYTE PTR __$EHRec$[ebp+8], 15 ; 0000000fH
; File C:\Program Files\Microsoft Visual Studio\2022\Professional\VC\Tools\MSVC\14.44.35207\include\xmemory

; 1167 :         _Ptr = nullptr; // if allocate throws, prevents double-free

  0026c	c7 85 3c e1 ff
	ff 00 00 00 00	 mov	 DWORD PTR $T19[ebp+4], 0

; 136  :         return ::operator new(_Bytes);

  00276	e8 00 00 00 00	 call	 ??2@YAPAXI@Z		; operator new

; 256  :         return _Traits::_Allocate(_Bytes);

  0027b	8b f8		 mov	 edi, eax

; 1168 :         _Ptr = _Al.allocate(1);

  0027d	89 bd 3c e1 ff
	ff		 mov	 DWORD PTR $T19[ebp+4], edi
; File C:\Program Files\Microsoft Visual Studio\2022\Professional\VC\Tools\MSVC\14.44.35207\include\utility

; 278  :     pair(pair&&)      = default;

  00283	8b 95 70 e1 ff
	ff		 mov	 edx, DWORD PTR _TempData$[ebp+8]
  00289	8d 4f 14	 lea	 ecx, DWORD PTR [edi+20]
  0028c	8b 85 68 e1 ff
	ff		 mov	 eax, DWORD PTR _TempData$[ebp]
  00292	8d 71 14	 lea	 esi, DWORD PTR [ecx+20]
; File C:\Program Files\Microsoft Visual Studio\2022\Professional\VC\Tools\MSVC\14.44.35207\atlmfc\include\atlsimpstr.h

; 217  : 		CStringData* pNewData = CloneData( pSrcData );

  00295	ff b5 80 e1 ff
	ff		 push	 DWORD PTR _pData$1$[ebp]
; File C:\Program Files\Microsoft Visual Studio\2022\Professional\VC\Tools\MSVC\14.44.35207\include\utility

; 278  :     pair(pair&&)      = default;

  0029b	89 57 10	 mov	 DWORD PTR [edi+16], edx
  0029e	89 01		 mov	 DWORD PTR [ecx], eax
  002a0	8b 85 6c e1 ff
	ff		 mov	 eax, DWORD PTR _TempData$[ebp+4]
  002a6	89 41 04	 mov	 DWORD PTR [ecx+4], eax
  002a9	8b 85 74 e1 ff
	ff		 mov	 eax, DWORD PTR _TempData$[ebp+12]
  002af	89 41 0c	 mov	 DWORD PTR [ecx+12], eax
  002b2	8b 85 78 e1 ff
	ff		 mov	 eax, DWORD PTR _TempData$[ebp+16]
  002b8	89 8d 84 e1 ff
	ff		 mov	 DWORD PTR _this$[ebp], ecx
; File C:\Program Files\Microsoft Visual Studio\2022\Professional\VC\Tools\MSVC\14.44.35207\include\xtree

; 829  :         : _Tree_temp_node_alloc<_Alnode>(_Al_) {

  002be	c6 45 fc 10	 mov	 BYTE PTR __$EHRec$[ebp+8], 16 ; 00000010H
  002c2	89 51 08	 mov	 DWORD PTR [ecx+8], edx
  002c5	89 41 10	 mov	 DWORD PTR [ecx+16], eax
  002c8	89 b5 84 e1 ff
	ff		 mov	 DWORD PTR _this$[ebp], esi
; File C:\Program Files\Microsoft Visual Studio\2022\Professional\VC\Tools\MSVC\14.44.35207\atlmfc\include\atlsimpstr.h

; 217  : 		CStringData* pNewData = CloneData( pSrcData );

  002ce	e8 00 00 00 00	 call	 ?CloneData@?$CSimpleStringT@D$0A@@ATL@@CAPAUCStringData@2@PAU32@@Z ; ATL::CSimpleStringT<char,0>::CloneData
; File C:\Program Files\Microsoft Visual Studio\2022\Professional\VC\Tools\MSVC\14.44.35207\include\xtree

; 1042 :         return {_Scary->_Insert_node(_Loc._Location, _Inserted), true};

  002d3	8b 8d 64 e1 ff
	ff		 mov	 ecx, DWORD PTR _this$1$[ebp]
; File C:\Program Files\Microsoft Visual Studio\2022\Professional\VC\Tools\MSVC\14.44.35207\atlmfc\include\atlsimpstr.h

; 217  : 		CStringData* pNewData = CloneData( pSrcData );

  002d9	83 c4 08	 add	 esp, 8

; 218  : 		Attach( pNewData );

  002dc	83 c0 10	 add	 eax, 16			; 00000010H
; File C:\Program Files\Microsoft Visual Studio\2022\Professional\VC\Tools\MSVC\14.44.35207\include\utility

; 774  :     _Val         = static_cast<_Other&&>(_New_val);

  002df	c7 85 3c e1 ff
	ff 00 00 00 00	 mov	 DWORD PTR $T19[ebp+4], 0
; File C:\Program Files\Microsoft Visual Studio\2022\Professional\VC\Tools\MSVC\14.44.35207\atlmfc\include\atlsimpstr.h

; 218  : 		Attach( pNewData );

  002e9	89 06		 mov	 DWORD PTR [esi], eax
; File C:\Program Files\Microsoft Visual Studio\2022\Professional\VC\Tools\MSVC\14.44.35207\include\xtree

; 831  :         _Construct_in_place(this->_Ptr->_Left, _Myhead);

  002eb	89 1f		 mov	 DWORD PTR [edi], ebx

; 1042 :         return {_Scary->_Insert_node(_Loc._Location, _Inserted), true};

  002ed	57		 push	 edi
  002ee	ff b5 08 e1 ff
	ff		 push	 DWORD PTR __Loc$13[ebp+4]

; 832  :         _Construct_in_place(this->_Ptr->_Parent, _Myhead);

  002f4	89 5f 04	 mov	 DWORD PTR [edi+4], ebx

; 1042 :         return {_Scary->_Insert_node(_Loc._Location, _Inserted), true};

  002f7	ff b5 04 e1 ff
	ff		 push	 DWORD PTR __Loc$13[ebp]

; 833  :         _Construct_in_place(this->_Ptr->_Right, _Myhead);

  002fd	89 5f 08	 mov	 DWORD PTR [edi+8], ebx

; 834  :         this->_Ptr->_Color = _Red;

  00300	66 c7 47 0c 00
	00		 mov	 WORD PTR [edi+12], 0

; 1042 :         return {_Scary->_Insert_node(_Loc._Location, _Inserted), true};

  00306	e8 00 00 00 00	 call	 ?_Insert_node@?$_Tree_val@U?$_Tree_simple_types@U?$pair@$$CBHUHonorData@@@std@@@std@@@std@@QAEPAU?$_Tree_node@U?$pair@$$CBHUHonorData@@@std@@PAX@2@U?$_Tree_id@PAU?$_Tree_node@U?$pair@$$CBHUHonorData@@@std@@PAX@std@@@2@QAU32@@Z ; std::_Tree_val<std::_Tree_simple_types<std::pair<int const ,HonorData> > >::_Insert_node
  0030b	8b b5 40 e1 ff
	ff		 mov	 esi, DWORD PTR _this$GSCopy$1$[ebp]
  00311	83 cb ff	 or	 ebx, -1
  00314	8b bd 80 e1 ff
	ff		 mov	 edi, DWORD PTR _pData$1$[ebp]
$LN166@LoadTitle:
; File C:\IAGOS\server\v18\Source\Source\_Common\honor.cpp

; 85   : 				m_mapEtc.insert(map<int, HonorData>::value_type(TempData.nSGrouping, TempData));

  0031a	c6 45 fc 01	 mov	 BYTE PTR __$EHRec$[ebp+8], 1
; File C:\Program Files\Microsoft Visual Studio\2022\Professional\VC\Tools\MSVC\14.44.35207\atlmfc\include\atlsimpstr.h

; 92   : 		if( _InterlockedDecrement( &nRefs ) <= 0 )

  0031e	8b c3		 mov	 eax, ebx
  00320	f0 0f c1 47 0c	 lock	  xadd	 DWORD PTR [edi+12], eax
  00325	48		 dec	 eax
  00326	85 c0		 test	 eax, eax
  00328	7f 08		 jg	 SHORT $LN199@LoadTitle

; 94   : 			pStringMgr->Free( this );

  0032a	8b 0f		 mov	 ecx, DWORD PTR [edi]
  0032c	57		 push	 edi
  0032d	8b 01		 mov	 eax, DWORD PTR [ecx]
  0032f	ff 50 04	 call	 DWORD PTR [eax+4]
$LN199@LoadTitle:
; File C:\Program Files\Microsoft Visual Studio\2022\Professional\VC\Tools\MSVC\14.44.35207\include\utility

; 274  :         : first(_STD forward<_Other1>(_Val1)), second(_STD forward<_Other2>(_Val2)) {

  00332	8b 85 68 e1 ff
	ff		 mov	 eax, DWORD PTR _TempData$[ebp]
; File C:\Program Files\Microsoft Visual Studio\2022\Professional\VC\Tools\MSVC\14.44.35207\atlmfc\include\atlsimpstr.h

; 217  : 		CStringData* pNewData = CloneData( pSrcData );

  00338	ff b5 44 e1 ff
	ff		 push	 DWORD PTR tv4614[ebp]
; File C:\Program Files\Microsoft Visual Studio\2022\Professional\VC\Tools\MSVC\14.44.35207\include\utility

; 274  :         : first(_STD forward<_Other1>(_Val1)), second(_STD forward<_Other2>(_Val2)) {

  0033e	89 85 48 e1 ff
	ff		 mov	 DWORD PTR $T24[ebp], eax
  00344	89 85 4c e1 ff
	ff		 mov	 DWORD PTR $T24[ebp+4], eax
  0034a	8b 85 6c e1 ff
	ff		 mov	 eax, DWORD PTR _TempData$[ebp+4]
  00350	89 85 50 e1 ff
	ff		 mov	 DWORD PTR $T24[ebp+8], eax
  00356	8b 85 70 e1 ff
	ff		 mov	 eax, DWORD PTR _TempData$[ebp+8]
  0035c	89 85 54 e1 ff
	ff		 mov	 DWORD PTR $T24[ebp+12], eax
  00362	8b 85 74 e1 ff
	ff		 mov	 eax, DWORD PTR _TempData$[ebp+12]
  00368	89 85 58 e1 ff
	ff		 mov	 DWORD PTR $T24[ebp+16], eax
  0036e	8b 85 78 e1 ff
	ff		 mov	 eax, DWORD PTR _TempData$[ebp+16]
  00374	89 85 5c e1 ff
	ff		 mov	 DWORD PTR $T24[ebp+20], eax
; File C:\Program Files\Microsoft Visual Studio\2022\Professional\VC\Tools\MSVC\14.44.35207\atlmfc\include\atlsimpstr.h

; 217  : 		CStringData* pNewData = CloneData( pSrcData );

  0037a	e8 00 00 00 00	 call	 ?CloneData@?$CSimpleStringT@D$0A@@ATL@@CAPAUCStringData@2@PAU32@@Z ; ATL::CSimpleStringT<char,0>::CloneData
  0037f	8b f8		 mov	 edi, eax
  00381	83 c4 04	 add	 esp, 4
  00384	89 bd 64 e1 ff
	ff		 mov	 DWORD PTR _pData$1$[ebp], edi

; 218  : 		Attach( pNewData );

  0038a	8d 4f 10	 lea	 ecx, DWORD PTR [edi+16]
  0038d	89 8d 60 e1 ff
	ff		 mov	 DWORD PTR $T24[ebp+24], ecx
; File C:\Program Files\Microsoft Visual Studio\2022\Professional\VC\Tools\MSVC\14.44.35207\include\xtree

; 1017 :             _Loc                = _Find_lower_bound(_Keyval);

  00393	8d 85 48 e1 ff
	ff		 lea	 eax, DWORD PTR $T24[ebp]
; File C:\IAGOS\server\v18\Source\Source\_Common\honor.cpp

; 86   : 				m_mapAll.insert(map<int, HonorData>::value_type(TempData.nID, TempData));

  00399	c6 45 fc 11	 mov	 BYTE PTR __$EHRec$[ebp+8], 17 ; 00000011H
; File C:\Program Files\Microsoft Visual Studio\2022\Professional\VC\Tools\MSVC\14.44.35207\include\xtree

; 1017 :             _Loc                = _Find_lower_bound(_Keyval);

  0039d	50		 push	 eax
  0039e	8d 85 b0 e0 ff
	ff		 lea	 eax, DWORD PTR $T6[ebp]
; File C:\IAGOS\server\v18\Source\Source\_Common\honor.cpp

; 86   : 				m_mapAll.insert(map<int, HonorData>::value_type(TempData.nID, TempData));

  003a4	8d 4e 18	 lea	 ecx, DWORD PTR [esi+24]
; File C:\Program Files\Microsoft Visual Studio\2022\Professional\VC\Tools\MSVC\14.44.35207\include\xtree

; 1017 :             _Loc                = _Find_lower_bound(_Keyval);

  003a7	50		 push	 eax
; File C:\IAGOS\server\v18\Source\Source\_Common\honor.cpp

; 86   : 				m_mapAll.insert(map<int, HonorData>::value_type(TempData.nID, TempData));

  003a8	89 8d 80 e1 ff
	ff		 mov	 DWORD PTR _this$1$[ebp], ecx
; File C:\Program Files\Microsoft Visual Studio\2022\Professional\VC\Tools\MSVC\14.44.35207\include\xtree

; 1017 :             _Loc                = _Find_lower_bound(_Keyval);

  003ae	e8 00 00 00 00	 call	 ??$_Find_lower_bound@H@?$_Tree@V?$_Tmap_traits@HUHonorData@@U?$less@H@std@@V?$allocator@U?$pair@$$CBHUHonorData@@@std@@@3@$0A@@std@@@std@@IBE?AU?$_Tree_find_result@PAU?$_Tree_node@U?$pair@$$CBHUHonorData@@@std@@PAX@std@@@1@ABH@Z ; std::_Tree<std::_Tmap_traits<int,HonorData,std::less<int>,std::allocator<std::pair<int const ,HonorData> >,0> >::_Find_lower_bound<int>
  003b3	8b 48 08	 mov	 ecx, DWORD PTR [eax+8]
  003b6	f3 0f 7e 00	 movq	 xmm0, QWORD PTR [eax]
  003ba	66 0f d6 85 f8
	e0 ff ff	 movq	 QWORD PTR __Loc$12[ebp], xmm0

; 1624 :         return !_Bound->_Isnil && !_DEBUG_LT_PRED(_Getcomp(), _Keyval, _Traits::_Kfn(_Bound->_Myval));

  003c2	80 79 0d 00	 cmp	 BYTE PTR [ecx+13], 0
  003c6	75 0f		 jne	 SHORT $LN222@LoadTitle
; File C:\Program Files\Microsoft Visual Studio\2022\Professional\VC\Tools\MSVC\14.44.35207\include\type_traits

; 2380 :         return _Left < _Right;

  003c8	8b 85 68 e1 ff
	ff		 mov	 eax, DWORD PTR _TempData$[ebp]
  003ce	3b 41 10	 cmp	 eax, DWORD PTR [ecx+16]
; File C:\Program Files\Microsoft Visual Studio\2022\Professional\VC\Tools\MSVC\14.44.35207\include\xtree

; 1624 :         return !_Bound->_Isnil && !_DEBUG_LT_PRED(_Getcomp(), _Keyval, _Traits::_Kfn(_Bound->_Myval));

  003d1	0f 8d 8d 06 00
	00		 jge	 $LN677@LoadTitle
$LN222@LoadTitle:

; 1648 :         if (max_size() == _Get_scary()->_Mysize) {

  003d7	8b 85 80 e1 ff
	ff		 mov	 eax, DWORD PTR _this$1$[ebp]
  003dd	81 78 04 5d 74
	d1 05		 cmp	 DWORD PTR [eax+4], 97612893 ; 05d1745dH
  003e4	0f 84 66 07 00
	00		 je	 $LN1080@LoadTitle

; 1023 :             _Inserted = _Tree_temp_node<_Alnode>(_Getal(), _Scary->_Myhead, _STD forward<_Valtys>(_Vals)...)._Release();

  003ea	8b 18		 mov	 ebx, DWORD PTR [eax]
; File C:\Program Files\Microsoft Visual Studio\2022\Professional\VC\Tools\MSVC\14.44.35207\include\xmemory

; 1160 :     _CONSTEXPR20 explicit _Alloc_construct_ptr(_Alloc& _Al_) : _Al(_Al_), _Ptr(nullptr) {}

  003ec	89 85 30 e1 ff
	ff		 mov	 DWORD PTR $T18[ebp], eax

; 136  :         return ::operator new(_Bytes);

  003f2	6a 2c		 push	 44			; 0000002cH
; File C:\Program Files\Microsoft Visual Studio\2022\Professional\VC\Tools\MSVC\14.44.35207\include\xtree

; 808  :     explicit _Tree_temp_node_alloc(_Alnode& _Al_) : _Alloc_construct_ptr<_Alnode>(_Al_) {

  003f4	c6 45 fc 12	 mov	 BYTE PTR __$EHRec$[ebp+8], 18 ; 00000012H
; File C:\Program Files\Microsoft Visual Studio\2022\Professional\VC\Tools\MSVC\14.44.35207\include\xmemory

; 1167 :         _Ptr = nullptr; // if allocate throws, prevents double-free

  003f8	c7 85 34 e1 ff
	ff 00 00 00 00	 mov	 DWORD PTR $T18[ebp+4], 0

; 136  :         return ::operator new(_Bytes);

  00402	e8 00 00 00 00	 call	 ??2@YAPAXI@Z		; operator new

; 256  :         return _Traits::_Allocate(_Bytes);

  00407	8b f8		 mov	 edi, eax

; 1168 :         _Ptr = _Al.allocate(1);

  00409	89 bd 34 e1 ff
	ff		 mov	 DWORD PTR $T18[ebp+4], edi
; File C:\Program Files\Microsoft Visual Studio\2022\Professional\VC\Tools\MSVC\14.44.35207\include\utility

; 278  :     pair(pair&&)      = default;

  0040f	8b 85 68 e1 ff
	ff		 mov	 eax, DWORD PTR _TempData$[ebp]
  00415	8d 4f 14	 lea	 ecx, DWORD PTR [edi+20]
; File C:\Program Files\Microsoft Visual Studio\2022\Professional\VC\Tools\MSVC\14.44.35207\atlmfc\include\atlsimpstr.h

; 217  : 		CStringData* pNewData = CloneData( pSrcData );

  00418	ff b5 64 e1 ff
	ff		 push	 DWORD PTR _pData$1$[ebp]
; File C:\Program Files\Microsoft Visual Studio\2022\Professional\VC\Tools\MSVC\14.44.35207\include\utility

; 278  :     pair(pair&&)      = default;

  0041e	89 47 10	 mov	 DWORD PTR [edi+16], eax
  00421	8d 71 14	 lea	 esi, DWORD PTR [ecx+20]
  00424	89 01		 mov	 DWORD PTR [ecx], eax
  00426	8b 85 6c e1 ff
	ff		 mov	 eax, DWORD PTR _TempData$[ebp+4]
  0042c	89 41 04	 mov	 DWORD PTR [ecx+4], eax
  0042f	8b 85 70 e1 ff
	ff		 mov	 eax, DWORD PTR _TempData$[ebp+8]
  00435	89 41 08	 mov	 DWORD PTR [ecx+8], eax
  00438	8b 85 74 e1 ff
	ff		 mov	 eax, DWORD PTR _TempData$[ebp+12]
  0043e	89 41 0c	 mov	 DWORD PTR [ecx+12], eax
  00441	8b 85 78 e1 ff
	ff		 mov	 eax, DWORD PTR _TempData$[ebp+16]
  00447	89 8d 84 e1 ff
	ff		 mov	 DWORD PTR _this$[ebp], ecx
; File C:\Program Files\Microsoft Visual Studio\2022\Professional\VC\Tools\MSVC\14.44.35207\include\xtree

; 829  :         : _Tree_temp_node_alloc<_Alnode>(_Al_) {

  0044d	c6 45 fc 13	 mov	 BYTE PTR __$EHRec$[ebp+8], 19 ; 00000013H
  00451	89 41 10	 mov	 DWORD PTR [ecx+16], eax
  00454	89 b5 84 e1 ff
	ff		 mov	 DWORD PTR _this$[ebp], esi
; File C:\Program Files\Microsoft Visual Studio\2022\Professional\VC\Tools\MSVC\14.44.35207\atlmfc\include\atlsimpstr.h

; 217  : 		CStringData* pNewData = CloneData( pSrcData );

  0045a	e8 00 00 00 00	 call	 ?CloneData@?$CSimpleStringT@D$0A@@ATL@@CAPAUCStringData@2@PAU32@@Z ; ATL::CSimpleStringT<char,0>::CloneData
  0045f	83 c4 08	 add	 esp, 8
; File C:\Program Files\Microsoft Visual Studio\2022\Professional\VC\Tools\MSVC\14.44.35207\include\utility

; 774  :     _Val         = static_cast<_Other&&>(_New_val);

  00462	c7 85 34 e1 ff
	ff 00 00 00 00	 mov	 DWORD PTR $T18[ebp+4], 0
; File C:\Program Files\Microsoft Visual Studio\2022\Professional\VC\Tools\MSVC\14.44.35207\include\xtree

; 1042 :         return {_Scary->_Insert_node(_Loc._Location, _Inserted), true};

  0046c	57		 push	 edi
  0046d	ff b5 fc e0 ff
	ff		 push	 DWORD PTR __Loc$12[ebp+4]
  00473	ff b5 f8 e0 ff
	ff		 push	 DWORD PTR __Loc$12[ebp]
; File C:\Program Files\Microsoft Visual Studio\2022\Professional\VC\Tools\MSVC\14.44.35207\atlmfc\include\atlsimpstr.h

; 94   : 			pStringMgr->Free( this );

  00479	e9 b9 05 00 00	 jmp	 $LN1103@LoadTitle
$LN10@LoadTitle:
; File C:\IAGOS\server\v18\Source\Source\_Common\honor.cpp

; 72   : 				if(m_mapItem.size() < ITEM_TITLE_MAX)

  0047e	83 7e 0c 46	 cmp	 DWORD PTR [esi+12], 70	; 00000046H
  00482	0f 83 5b 06 00
	00		 jae	 $LN11@LoadTitle
  00488	8b 85 68 e1 ff
	ff		 mov	 eax, DWORD PTR _TempData$[ebp]
; File C:\Program Files\Microsoft Visual Studio\2022\Professional\VC\Tools\MSVC\14.44.35207\include\utility

; 274  :         : first(_STD forward<_Other1>(_Val1)), second(_STD forward<_Other2>(_Val2)) {

  0048e	8b 8d 70 e1 ff
	ff		 mov	 ecx, DWORD PTR _TempData$[ebp+8]
  00494	89 85 4c e1 ff
	ff		 mov	 DWORD PTR $T25[ebp+4], eax
  0049a	8b 85 74 e1 ff
	ff		 mov	 eax, DWORD PTR _TempData$[ebp+12]
  004a0	89 85 58 e1 ff
	ff		 mov	 DWORD PTR $T25[ebp+16], eax
  004a6	8b 85 78 e1 ff
	ff		 mov	 eax, DWORD PTR _TempData$[ebp+16]
  004ac	89 85 5c e1 ff
	ff		 mov	 DWORD PTR $T25[ebp+20], eax
; File C:\Program Files\Microsoft Visual Studio\2022\Professional\VC\Tools\MSVC\14.44.35207\atlmfc\include\atlsimpstr.h

; 804  : 		return( reinterpret_cast< CStringData* >( m_pszData )-1 );

  004b2	8b 85 7c e1 ff
	ff		 mov	 eax, DWORD PTR _TempData$[ebp+20]
  004b8	83 c0 f0	 add	 eax, -16		; fffffff0H
; File C:\Program Files\Microsoft Visual Studio\2022\Professional\VC\Tools\MSVC\14.44.35207\include\utility

; 274  :         : first(_STD forward<_Other1>(_Val1)), second(_STD forward<_Other2>(_Val2)) {

  004bb	89 8d 48 e1 ff
	ff		 mov	 DWORD PTR $T25[ebp], ecx
; File C:\Program Files\Microsoft Visual Studio\2022\Professional\VC\Tools\MSVC\14.44.35207\atlmfc\include\atlsimpstr.h

; 217  : 		CStringData* pNewData = CloneData( pSrcData );

  004c1	50		 push	 eax
  004c2	c7 85 50 e1 ff
	ff 05 00 00 00	 mov	 DWORD PTR $T25[ebp+8], 5
  004cc	89 8d 54 e1 ff
	ff		 mov	 DWORD PTR $T25[ebp+12], ecx

; 804  : 		return( reinterpret_cast< CStringData* >( m_pszData )-1 );

  004d2	89 85 44 e1 ff
	ff		 mov	 DWORD PTR tv4613[ebp], eax

; 217  : 		CStringData* pNewData = CloneData( pSrcData );

  004d8	e8 00 00 00 00	 call	 ?CloneData@?$CSimpleStringT@D$0A@@ATL@@CAPAUCStringData@2@PAU32@@Z ; ATL::CSimpleStringT<char,0>::CloneData
  004dd	8b f8		 mov	 edi, eax
  004df	83 c4 04	 add	 esp, 4
  004e2	89 bd 64 e1 ff
	ff		 mov	 DWORD PTR _pData$1$[ebp], edi

; 218  : 		Attach( pNewData );

  004e8	8d 4f 10	 lea	 ecx, DWORD PTR [edi+16]
  004eb	89 8d 60 e1 ff
	ff		 mov	 DWORD PTR $T25[ebp+24], ecx
; File C:\Program Files\Microsoft Visual Studio\2022\Professional\VC\Tools\MSVC\14.44.35207\include\xtree

; 1017 :             _Loc                = _Find_lower_bound(_Keyval);

  004f1	8d 85 48 e1 ff
	ff		 lea	 eax, DWORD PTR $T25[ebp]
; File C:\IAGOS\server\v18\Source\Source\_Common\honor.cpp

; 74   : 					m_mapItem.insert(map<int, HonorData>::value_type(TempData.nSGrouping, TempData));

  004f7	c6 45 fc 08	 mov	 BYTE PTR __$EHRec$[ebp+8], 8
; File C:\Program Files\Microsoft Visual Studio\2022\Professional\VC\Tools\MSVC\14.44.35207\include\xtree

; 1017 :             _Loc                = _Find_lower_bound(_Keyval);

  004fb	50		 push	 eax
  004fc	8d 85 a4 e0 ff
	ff		 lea	 eax, DWORD PTR $T5[ebp]
; File C:\IAGOS\server\v18\Source\Source\_Common\honor.cpp

; 74   : 					m_mapItem.insert(map<int, HonorData>::value_type(TempData.nSGrouping, TempData));

  00502	8d 4e 08	 lea	 ecx, DWORD PTR [esi+8]
; File C:\Program Files\Microsoft Visual Studio\2022\Professional\VC\Tools\MSVC\14.44.35207\include\xtree

; 1017 :             _Loc                = _Find_lower_bound(_Keyval);

  00505	50		 push	 eax
; File C:\IAGOS\server\v18\Source\Source\_Common\honor.cpp

; 74   : 					m_mapItem.insert(map<int, HonorData>::value_type(TempData.nSGrouping, TempData));

  00506	89 8d 80 e1 ff
	ff		 mov	 DWORD PTR _this$1$[ebp], ecx
; File C:\Program Files\Microsoft Visual Studio\2022\Professional\VC\Tools\MSVC\14.44.35207\include\xtree

; 1017 :             _Loc                = _Find_lower_bound(_Keyval);

  0050c	e8 00 00 00 00	 call	 ??$_Find_lower_bound@H@?$_Tree@V?$_Tmap_traits@HUHonorData@@U?$less@H@std@@V?$allocator@U?$pair@$$CBHUHonorData@@@std@@@3@$0A@@std@@@std@@IBE?AU?$_Tree_find_result@PAU?$_Tree_node@U?$pair@$$CBHUHonorData@@@std@@PAX@std@@@1@ABH@Z ; std::_Tree<std::_Tmap_traits<int,HonorData,std::less<int>,std::allocator<std::pair<int const ,HonorData> >,0> >::_Find_lower_bound<int>
  00511	8b 48 08	 mov	 ecx, DWORD PTR [eax+8]
  00514	f3 0f 7e 00	 movq	 xmm0, QWORD PTR [eax]
  00518	66 0f d6 85 ec
	e0 ff ff	 movq	 QWORD PTR __Loc$11[ebp], xmm0

; 1624 :         return !_Bound->_Isnil && !_DEBUG_LT_PRED(_Getcomp(), _Keyval, _Traits::_Kfn(_Bound->_Myval));

  00520	80 79 0d 00	 cmp	 BYTE PTR [ecx+13], 0
  00524	75 0f		 jne	 SHORT $LN732@LoadTitle
; File C:\Program Files\Microsoft Visual Studio\2022\Professional\VC\Tools\MSVC\14.44.35207\include\type_traits

; 2380 :         return _Left < _Right;

  00526	8b 85 70 e1 ff
	ff		 mov	 eax, DWORD PTR _TempData$[ebp+8]
  0052c	3b 41 10	 cmp	 eax, DWORD PTR [ecx+16]
; File C:\Program Files\Microsoft Visual Studio\2022\Professional\VC\Tools\MSVC\14.44.35207\include\xtree

; 1624 :         return !_Bound->_Isnil && !_DEBUG_LT_PRED(_Getcomp(), _Keyval, _Traits::_Kfn(_Bound->_Myval));

  0052f	0f 8d cd 00 00
	00		 jge	 $LN847@LoadTitle
$LN732@LoadTitle:

; 1648 :         if (max_size() == _Get_scary()->_Mysize) {

  00535	8b 85 80 e1 ff
	ff		 mov	 eax, DWORD PTR _this$1$[ebp]
  0053b	81 78 04 5d 74
	d1 05		 cmp	 DWORD PTR [eax+4], 97612893 ; 05d1745dH
  00542	0f 84 08 06 00
	00		 je	 $LN1080@LoadTitle

; 1023 :             _Inserted = _Tree_temp_node<_Alnode>(_Getal(), _Scary->_Myhead, _STD forward<_Valtys>(_Vals)...)._Release();

  00548	8b 18		 mov	 ebx, DWORD PTR [eax]
; File C:\Program Files\Microsoft Visual Studio\2022\Professional\VC\Tools\MSVC\14.44.35207\include\xmemory

; 1160 :     _CONSTEXPR20 explicit _Alloc_construct_ptr(_Alloc& _Al_) : _Al(_Al_), _Ptr(nullptr) {}

  0054a	89 85 28 e1 ff
	ff		 mov	 DWORD PTR $T17[ebp], eax

; 136  :         return ::operator new(_Bytes);

  00550	6a 2c		 push	 44			; 0000002cH
; File C:\Program Files\Microsoft Visual Studio\2022\Professional\VC\Tools\MSVC\14.44.35207\include\xtree

; 808  :     explicit _Tree_temp_node_alloc(_Alnode& _Al_) : _Alloc_construct_ptr<_Alnode>(_Al_) {

  00552	c6 45 fc 09	 mov	 BYTE PTR __$EHRec$[ebp+8], 9
; File C:\Program Files\Microsoft Visual Studio\2022\Professional\VC\Tools\MSVC\14.44.35207\include\xmemory

; 1167 :         _Ptr = nullptr; // if allocate throws, prevents double-free

  00556	c7 85 2c e1 ff
	ff 00 00 00 00	 mov	 DWORD PTR $T17[ebp+4], 0

; 136  :         return ::operator new(_Bytes);

  00560	e8 00 00 00 00	 call	 ??2@YAPAXI@Z		; operator new

; 256  :         return _Traits::_Allocate(_Bytes);

  00565	8b f8		 mov	 edi, eax

; 1168 :         _Ptr = _Al.allocate(1);

  00567	89 bd 2c e1 ff
	ff		 mov	 DWORD PTR $T17[ebp+4], edi
; File C:\Program Files\Microsoft Visual Studio\2022\Professional\VC\Tools\MSVC\14.44.35207\include\utility

; 278  :     pair(pair&&)      = default;

  0056d	8b 95 70 e1 ff
	ff		 mov	 edx, DWORD PTR _TempData$[ebp+8]
  00573	8d 4f 14	 lea	 ecx, DWORD PTR [edi+20]
  00576	8b 85 68 e1 ff
	ff		 mov	 eax, DWORD PTR _TempData$[ebp]
  0057c	8d 71 14	 lea	 esi, DWORD PTR [ecx+20]
; File C:\Program Files\Microsoft Visual Studio\2022\Professional\VC\Tools\MSVC\14.44.35207\atlmfc\include\atlsimpstr.h

; 217  : 		CStringData* pNewData = CloneData( pSrcData );

  0057f	ff b5 64 e1 ff
	ff		 push	 DWORD PTR _pData$1$[ebp]
; File C:\Program Files\Microsoft Visual Studio\2022\Professional\VC\Tools\MSVC\14.44.35207\include\utility

; 278  :     pair(pair&&)      = default;

  00585	89 57 10	 mov	 DWORD PTR [edi+16], edx
  00588	89 01		 mov	 DWORD PTR [ecx], eax
  0058a	8b 85 74 e1 ff
	ff		 mov	 eax, DWORD PTR _TempData$[ebp+12]
  00590	89 41 0c	 mov	 DWORD PTR [ecx+12], eax
  00593	8b 85 78 e1 ff
	ff		 mov	 eax, DWORD PTR _TempData$[ebp+16]
  00599	89 8d 84 e1 ff
	ff		 mov	 DWORD PTR _this$[ebp], ecx
; File C:\Program Files\Microsoft Visual Studio\2022\Professional\VC\Tools\MSVC\14.44.35207\include\xtree

; 829  :         : _Tree_temp_node_alloc<_Alnode>(_Al_) {

  0059f	c6 45 fc 0a	 mov	 BYTE PTR __$EHRec$[ebp+8], 10 ; 0000000aH
  005a3	c7 41 04 05 00
	00 00		 mov	 DWORD PTR [ecx+4], 5
  005aa	89 51 08	 mov	 DWORD PTR [ecx+8], edx
  005ad	89 41 10	 mov	 DWORD PTR [ecx+16], eax
  005b0	89 b5 84 e1 ff
	ff		 mov	 DWORD PTR _this$[ebp], esi
; File C:\Program Files\Microsoft Visual Studio\2022\Professional\VC\Tools\MSVC\14.44.35207\atlmfc\include\atlsimpstr.h

; 217  : 		CStringData* pNewData = CloneData( pSrcData );

  005b6	e8 00 00 00 00	 call	 ?CloneData@?$CSimpleStringT@D$0A@@ATL@@CAPAUCStringData@2@PAU32@@Z ; ATL::CSimpleStringT<char,0>::CloneData
; File C:\Program Files\Microsoft Visual Studio\2022\Professional\VC\Tools\MSVC\14.44.35207\include\xtree

; 1042 :         return {_Scary->_Insert_node(_Loc._Location, _Inserted), true};

  005bb	8b 8d 80 e1 ff
	ff		 mov	 ecx, DWORD PTR _this$1$[ebp]
; File C:\Program Files\Microsoft Visual Studio\2022\Professional\VC\Tools\MSVC\14.44.35207\atlmfc\include\atlsimpstr.h

; 217  : 		CStringData* pNewData = CloneData( pSrcData );

  005c1	83 c4 08	 add	 esp, 8

; 218  : 		Attach( pNewData );

  005c4	83 c0 10	 add	 eax, 16			; 00000010H
; File C:\Program Files\Microsoft Visual Studio\2022\Professional\VC\Tools\MSVC\14.44.35207\include\utility

; 774  :     _Val         = static_cast<_Other&&>(_New_val);

  005c7	c7 85 2c e1 ff
	ff 00 00 00 00	 mov	 DWORD PTR $T17[ebp+4], 0
; File C:\Program Files\Microsoft Visual Studio\2022\Professional\VC\Tools\MSVC\14.44.35207\atlmfc\include\atlsimpstr.h

; 218  : 		Attach( pNewData );

  005d1	89 06		 mov	 DWORD PTR [esi], eax
; File C:\Program Files\Microsoft Visual Studio\2022\Professional\VC\Tools\MSVC\14.44.35207\include\xtree

; 831  :         _Construct_in_place(this->_Ptr->_Left, _Myhead);

  005d3	89 1f		 mov	 DWORD PTR [edi], ebx

; 1042 :         return {_Scary->_Insert_node(_Loc._Location, _Inserted), true};

  005d5	57		 push	 edi
  005d6	ff b5 f0 e0 ff
	ff		 push	 DWORD PTR __Loc$11[ebp+4]

; 832  :         _Construct_in_place(this->_Ptr->_Parent, _Myhead);

  005dc	89 5f 04	 mov	 DWORD PTR [edi+4], ebx

; 1042 :         return {_Scary->_Insert_node(_Loc._Location, _Inserted), true};

  005df	ff b5 ec e0 ff
	ff		 push	 DWORD PTR __Loc$11[ebp]

; 833  :         _Construct_in_place(this->_Ptr->_Right, _Myhead);

  005e5	89 5f 08	 mov	 DWORD PTR [edi+8], ebx

; 834  :         this->_Ptr->_Color = _Red;

  005e8	66 c7 47 0c 00
	00		 mov	 WORD PTR [edi+12], 0

; 1042 :         return {_Scary->_Insert_node(_Loc._Location, _Inserted), true};

  005ee	e8 00 00 00 00	 call	 ?_Insert_node@?$_Tree_val@U?$_Tree_simple_types@U?$pair@$$CBHUHonorData@@@std@@@std@@@std@@QAEPAU?$_Tree_node@U?$pair@$$CBHUHonorData@@@std@@PAX@2@U?$_Tree_id@PAU?$_Tree_node@U?$pair@$$CBHUHonorData@@@std@@PAX@std@@@2@QAU32@@Z ; std::_Tree_val<std::_Tree_simple_types<std::pair<int const ,HonorData> > >::_Insert_node
  005f3	8b b5 40 e1 ff
	ff		 mov	 esi, DWORD PTR _this$GSCopy$1$[ebp]
  005f9	83 cb ff	 or	 ebx, -1
  005fc	8b bd 64 e1 ff
	ff		 mov	 edi, DWORD PTR _pData$1$[ebp]
$LN847@LoadTitle:
; File C:\IAGOS\server\v18\Source\Source\_Common\honor.cpp

; 74   : 					m_mapItem.insert(map<int, HonorData>::value_type(TempData.nSGrouping, TempData));

  00602	c6 45 fc 01	 mov	 BYTE PTR __$EHRec$[ebp+8], 1
; File C:\Program Files\Microsoft Visual Studio\2022\Professional\VC\Tools\MSVC\14.44.35207\atlmfc\include\atlsimpstr.h

; 92   : 		if( _InterlockedDecrement( &nRefs ) <= 0 )

  00606	8b c3		 mov	 eax, ebx
  00608	f0 0f c1 47 0c	 lock	  xadd	 DWORD PTR [edi+12], eax
  0060d	48		 dec	 eax
  0060e	85 c0		 test	 eax, eax
  00610	7f 08		 jg	 SHORT $LN879@LoadTitle

; 94   : 			pStringMgr->Free( this );

  00612	8b 0f		 mov	 ecx, DWORD PTR [edi]
  00614	57		 push	 edi
  00615	8b 01		 mov	 eax, DWORD PTR [ecx]
  00617	ff 50 04	 call	 DWORD PTR [eax+4]
$LN879@LoadTitle:
; File C:\Program Files\Microsoft Visual Studio\2022\Professional\VC\Tools\MSVC\14.44.35207\include\utility

; 274  :         : first(_STD forward<_Other1>(_Val1)), second(_STD forward<_Other2>(_Val2)) {

  0061a	8b 85 68 e1 ff
	ff		 mov	 eax, DWORD PTR _TempData$[ebp]
; File C:\Program Files\Microsoft Visual Studio\2022\Professional\VC\Tools\MSVC\14.44.35207\atlmfc\include\atlsimpstr.h

; 217  : 		CStringData* pNewData = CloneData( pSrcData );

  00620	ff b5 44 e1 ff
	ff		 push	 DWORD PTR tv4613[ebp]
; File C:\Program Files\Microsoft Visual Studio\2022\Professional\VC\Tools\MSVC\14.44.35207\include\utility

; 274  :         : first(_STD forward<_Other1>(_Val1)), second(_STD forward<_Other2>(_Val2)) {

  00626	89 85 48 e1 ff
	ff		 mov	 DWORD PTR $T22[ebp], eax
  0062c	89 85 4c e1 ff
	ff		 mov	 DWORD PTR $T22[ebp+4], eax
  00632	8b 85 70 e1 ff
	ff		 mov	 eax, DWORD PTR _TempData$[ebp+8]
  00638	89 85 54 e1 ff
	ff		 mov	 DWORD PTR $T22[ebp+12], eax
  0063e	8b 85 74 e1 ff
	ff		 mov	 eax, DWORD PTR _TempData$[ebp+12]
  00644	89 85 58 e1 ff
	ff		 mov	 DWORD PTR $T22[ebp+16], eax
  0064a	8b 85 78 e1 ff
	ff		 mov	 eax, DWORD PTR _TempData$[ebp+16]
  00650	c7 85 50 e1 ff
	ff 05 00 00 00	 mov	 DWORD PTR $T22[ebp+8], 5
  0065a	89 85 5c e1 ff
	ff		 mov	 DWORD PTR $T22[ebp+20], eax
; File C:\Program Files\Microsoft Visual Studio\2022\Professional\VC\Tools\MSVC\14.44.35207\atlmfc\include\atlsimpstr.h

; 217  : 		CStringData* pNewData = CloneData( pSrcData );

  00660	e8 00 00 00 00	 call	 ?CloneData@?$CSimpleStringT@D$0A@@ATL@@CAPAUCStringData@2@PAU32@@Z ; ATL::CSimpleStringT<char,0>::CloneData

; 218  : 		Attach( pNewData );

  00665	83 c0 10	 add	 eax, 16			; 00000010H
  00668	83 c4 04	 add	 esp, 4
  0066b	89 85 60 e1 ff
	ff		 mov	 DWORD PTR $T22[ebp+24], eax
; File C:\Program Files\Microsoft Visual Studio\2022\Professional\VC\Tools\MSVC\14.44.35207\include\xtree

; 1017 :             _Loc                = _Find_lower_bound(_Keyval);

  00671	8d 85 48 e1 ff
	ff		 lea	 eax, DWORD PTR $T22[ebp]
; File C:\IAGOS\server\v18\Source\Source\_Common\honor.cpp

; 75   : 					m_mapAll.insert(map<int, HonorData>::value_type(TempData.nID, TempData));

  00677	c6 45 fc 0b	 mov	 BYTE PTR __$EHRec$[ebp+8], 11 ; 0000000bH
; File C:\Program Files\Microsoft Visual Studio\2022\Professional\VC\Tools\MSVC\14.44.35207\include\xtree

; 1017 :             _Loc                = _Find_lower_bound(_Keyval);

  0067b	50		 push	 eax
; File C:\IAGOS\server\v18\Source\Source\_Common\honor.cpp

; 75   : 					m_mapAll.insert(map<int, HonorData>::value_type(TempData.nID, TempData));

  0067c	8d 7e 18	 lea	 edi, DWORD PTR [esi+24]
; File C:\Program Files\Microsoft Visual Studio\2022\Professional\VC\Tools\MSVC\14.44.35207\include\xtree

; 1017 :             _Loc                = _Find_lower_bound(_Keyval);

  0067f	8d 85 98 e0 ff
	ff		 lea	 eax, DWORD PTR $T4[ebp]
; File C:\IAGOS\server\v18\Source\Source\_Common\honor.cpp

; 75   : 					m_mapAll.insert(map<int, HonorData>::value_type(TempData.nID, TempData));

  00685	89 bd 80 e1 ff
	ff		 mov	 DWORD PTR _this$1$[ebp], edi
; File C:\Program Files\Microsoft Visual Studio\2022\Professional\VC\Tools\MSVC\14.44.35207\include\xtree

; 1017 :             _Loc                = _Find_lower_bound(_Keyval);

  0068b	50		 push	 eax
  0068c	8b cf		 mov	 ecx, edi
  0068e	e8 00 00 00 00	 call	 ??$_Find_lower_bound@H@?$_Tree@V?$_Tmap_traits@HUHonorData@@U?$less@H@std@@V?$allocator@U?$pair@$$CBHUHonorData@@@std@@@3@$0A@@std@@@std@@IBE?AU?$_Tree_find_result@PAU?$_Tree_node@U?$pair@$$CBHUHonorData@@@std@@PAX@std@@@1@ABH@Z ; std::_Tree<std::_Tmap_traits<int,HonorData,std::less<int>,std::allocator<std::pair<int const ,HonorData> >,0> >::_Find_lower_bound<int>
  00693	8b 48 08	 mov	 ecx, DWORD PTR [eax+8]
  00696	f3 0f 7e 00	 movq	 xmm0, QWORD PTR [eax]
  0069a	66 0f d6 85 e0
	e0 ff ff	 movq	 QWORD PTR __Loc$10[ebp], xmm0

; 1624 :         return !_Bound->_Isnil && !_DEBUG_LT_PRED(_Getcomp(), _Keyval, _Traits::_Kfn(_Bound->_Myval));

  006a2	80 79 0d 00	 cmp	 BYTE PTR [ecx+13], 0
  006a6	75 0f		 jne	 SHORT $LN902@LoadTitle
; File C:\Program Files\Microsoft Visual Studio\2022\Professional\VC\Tools\MSVC\14.44.35207\include\type_traits

; 2380 :         return _Left < _Right;

  006a8	8b 85 68 e1 ff
	ff		 mov	 eax, DWORD PTR _TempData$[ebp]
  006ae	3b 41 10	 cmp	 eax, DWORD PTR [ecx+16]
; File C:\Program Files\Microsoft Visual Studio\2022\Professional\VC\Tools\MSVC\14.44.35207\include\xtree

; 1624 :         return !_Bound->_Isnil && !_DEBUG_LT_PRED(_Getcomp(), _Keyval, _Traits::_Kfn(_Bound->_Myval));

  006b1	0f 8d 8d 00 00
	00		 jge	 $LN1007@LoadTitle
$LN902@LoadTitle:

; 1648 :         if (max_size() == _Get_scary()->_Mysize) {

  006b7	81 7f 04 5d 74
	d1 05		 cmp	 DWORD PTR [edi+4], 97612893 ; 05d1745dH
  006be	0f 84 8c 04 00
	00		 je	 $LN1080@LoadTitle
; File C:\Program Files\Microsoft Visual Studio\2022\Professional\VC\Tools\MSVC\14.44.35207\include\xmemory

; 1160 :     _CONSTEXPR20 explicit _Alloc_construct_ptr(_Alloc& _Al_) : _Al(_Al_), _Ptr(nullptr) {}

  006c4	8b 85 80 e1 ff
	ff		 mov	 eax, DWORD PTR _this$1$[ebp]
; File C:\Program Files\Microsoft Visual Studio\2022\Professional\VC\Tools\MSVC\14.44.35207\include\xtree

; 1023 :             _Inserted = _Tree_temp_node<_Alnode>(_Getal(), _Scary->_Myhead, _STD forward<_Valtys>(_Vals)...)._Release();

  006ca	8b 3f		 mov	 edi, DWORD PTR [edi]
; File C:\Program Files\Microsoft Visual Studio\2022\Professional\VC\Tools\MSVC\14.44.35207\include\xmemory

; 1160 :     _CONSTEXPR20 explicit _Alloc_construct_ptr(_Alloc& _Al_) : _Al(_Al_), _Ptr(nullptr) {}

  006cc	89 85 20 e1 ff
	ff		 mov	 DWORD PTR $T16[ebp], eax

; 136  :         return ::operator new(_Bytes);

  006d2	6a 2c		 push	 44			; 0000002cH
; File C:\Program Files\Microsoft Visual Studio\2022\Professional\VC\Tools\MSVC\14.44.35207\include\xtree

; 808  :     explicit _Tree_temp_node_alloc(_Alnode& _Al_) : _Alloc_construct_ptr<_Alnode>(_Al_) {

  006d4	c6 45 fc 0c	 mov	 BYTE PTR __$EHRec$[ebp+8], 12 ; 0000000cH
; File C:\Program Files\Microsoft Visual Studio\2022\Professional\VC\Tools\MSVC\14.44.35207\include\xmemory

; 1167 :         _Ptr = nullptr; // if allocate throws, prevents double-free

  006d8	c7 85 24 e1 ff
	ff 00 00 00 00	 mov	 DWORD PTR $T16[ebp+4], 0

; 136  :         return ::operator new(_Bytes);

  006e2	e8 00 00 00 00	 call	 ??2@YAPAXI@Z		; operator new

; 256  :         return _Traits::_Allocate(_Bytes);

  006e7	8b f0		 mov	 esi, eax

; 136  :         return ::operator new(_Bytes);

  006e9	83 c4 04	 add	 esp, 4

; 1168 :         _Ptr = _Al.allocate(1);

  006ec	89 b5 24 e1 ff
	ff		 mov	 DWORD PTR $T16[ebp+4], esi
; File C:\Program Files\Microsoft Visual Studio\2022\Professional\VC\Tools\MSVC\14.44.35207\include\utility

; 278  :     pair(pair&&)      = default;

  006f2	8b 85 68 e1 ff
	ff		 mov	 eax, DWORD PTR _TempData$[ebp]
  006f8	8d 4e 14	 lea	 ecx, DWORD PTR [esi+20]
  006fb	89 46 10	 mov	 DWORD PTR [esi+16], eax
  006fe	8d 85 4c e1 ff
	ff		 lea	 eax, DWORD PTR $T22[ebp+4]
  00704	50		 push	 eax
; File C:\Program Files\Microsoft Visual Studio\2022\Professional\VC\Tools\MSVC\14.44.35207\include\xtree

; 829  :         : _Tree_temp_node_alloc<_Alnode>(_Al_) {

  00705	c6 45 fc 0d	 mov	 BYTE PTR __$EHRec$[ebp+8], 13 ; 0000000dH
; File C:\Program Files\Microsoft Visual Studio\2022\Professional\VC\Tools\MSVC\14.44.35207\include\utility

; 278  :     pair(pair&&)      = default;

  00709	e8 00 00 00 00	 call	 ??0HonorData@@QAE@ABU0@@Z
; File C:\Program Files\Microsoft Visual Studio\2022\Professional\VC\Tools\MSVC\14.44.35207\include\xtree

; 1042 :         return {_Scary->_Insert_node(_Loc._Location, _Inserted), true};

  0070e	8b 8d 80 e1 ff
	ff		 mov	 ecx, DWORD PTR _this$1$[ebp]
  00714	56		 push	 esi
  00715	ff b5 e4 e0 ff
	ff		 push	 DWORD PTR __Loc$10[ebp+4]

; 831  :         _Construct_in_place(this->_Ptr->_Left, _Myhead);

  0071b	89 3e		 mov	 DWORD PTR [esi], edi

; 1042 :         return {_Scary->_Insert_node(_Loc._Location, _Inserted), true};

  0071d	ff b5 e0 e0 ff
	ff		 push	 DWORD PTR __Loc$10[ebp]

; 832  :         _Construct_in_place(this->_Ptr->_Parent, _Myhead);

  00723	89 7e 04	 mov	 DWORD PTR [esi+4], edi

; 833  :         _Construct_in_place(this->_Ptr->_Right, _Myhead);

  00726	89 7e 08	 mov	 DWORD PTR [esi+8], edi

; 834  :         this->_Ptr->_Color = _Red;

  00729	66 c7 46 0c 00
	00		 mov	 WORD PTR [esi+12], 0
; File C:\Program Files\Microsoft Visual Studio\2022\Professional\VC\Tools\MSVC\14.44.35207\include\utility

; 774  :     _Val         = static_cast<_Other&&>(_New_val);

  0072f	c7 85 24 e1 ff
	ff 00 00 00 00	 mov	 DWORD PTR $T16[ebp+4], 0
; File C:\Program Files\Microsoft Visual Studio\2022\Professional\VC\Tools\MSVC\14.44.35207\include\xtree

; 1042 :         return {_Scary->_Insert_node(_Loc._Location, _Inserted), true};

  00739	e8 00 00 00 00	 call	 ?_Insert_node@?$_Tree_val@U?$_Tree_simple_types@U?$pair@$$CBHUHonorData@@@std@@@std@@@std@@QAEPAU?$_Tree_node@U?$pair@$$CBHUHonorData@@@std@@PAX@2@U?$_Tree_id@PAU?$_Tree_node@U?$pair@$$CBHUHonorData@@@std@@PAX@std@@@2@QAU32@@Z ; std::_Tree_val<std::_Tree_simple_types<std::pair<int const ,HonorData> > >::_Insert_node
  0073e	8b b5 40 e1 ff
	ff		 mov	 esi, DWORD PTR _this$GSCopy$1$[ebp]
$LN1007@LoadTitle:
; File C:\IAGOS\server\v18\Source\Source\_Common\honor.cpp

; 75   : 					m_mapAll.insert(map<int, HonorData>::value_type(TempData.nID, TempData));

  00744	8b 95 60 e1 ff
	ff		 mov	 edx, DWORD PTR $T22[ebp+24]
; File C:\Program Files\Microsoft Visual Studio\2022\Professional\VC\Tools\MSVC\14.44.35207\atlmfc\include\atlsimpstr.h

; 92   : 		if( _InterlockedDecrement( &nRefs ) <= 0 )

  0074a	8b c3		 mov	 eax, ebx
; File C:\IAGOS\server\v18\Source\Source\_Common\honor.cpp

; 75   : 					m_mapAll.insert(map<int, HonorData>::value_type(TempData.nID, TempData));

  0074c	c6 45 fc 01	 mov	 BYTE PTR __$EHRec$[ebp+8], 1
  00750	83 c2 f0	 add	 edx, -16		; fffffff0H
; File C:\Program Files\Microsoft Visual Studio\2022\Professional\VC\Tools\MSVC\14.44.35207\atlmfc\include\atlsimpstr.h

; 92   : 		if( _InterlockedDecrement( &nRefs ) <= 0 )

  00753	f0 0f c1 42 0c	 lock	  xadd	 DWORD PTR [edx+12], eax
  00758	48		 dec	 eax
  00759	85 c0		 test	 eax, eax
  0075b	0f 8f 1b 03 00
	00		 jg	 $LN709@LoadTitle

; 94   : 			pStringMgr->Free( this );

  00761	8b 0a		 mov	 ecx, DWORD PTR [edx]
  00763	52		 push	 edx
; File C:\IAGOS\server\v18\Source\Source\_Common\honor.cpp

; 82   : 				break;

  00764	e9 0e 03 00 00	 jmp	 $LN1104@LoadTitle
$LN7@LoadTitle:

; 57   : 		{
; 58   : 			case HI_HUNT_MONSTER:
; 59   : 				if(m_mapMonster.size() < MONSTER_TITLE_MAX)

  00769	83 7e 04 46	 cmp	 DWORD PTR [esi+4], 70	; 00000046H
  0076d	0f 83 cc 03 00
	00		 jae	 $LN8@LoadTitle
  00773	8b 85 68 e1 ff
	ff		 mov	 eax, DWORD PTR _TempData$[ebp]
; File C:\Program Files\Microsoft Visual Studio\2022\Professional\VC\Tools\MSVC\14.44.35207\include\utility

; 274  :         : first(_STD forward<_Other1>(_Val1)), second(_STD forward<_Other2>(_Val2)) {

  00779	8b 8d 70 e1 ff
	ff		 mov	 ecx, DWORD PTR _TempData$[ebp+8]
  0077f	89 85 4c e1 ff
	ff		 mov	 DWORD PTR $T20[ebp+4], eax
  00785	8b 85 74 e1 ff
	ff		 mov	 eax, DWORD PTR _TempData$[ebp+12]
  0078b	89 85 58 e1 ff
	ff		 mov	 DWORD PTR $T20[ebp+16], eax
  00791	8b 85 78 e1 ff
	ff		 mov	 eax, DWORD PTR _TempData$[ebp+16]
  00797	89 85 5c e1 ff
	ff		 mov	 DWORD PTR $T20[ebp+20], eax
; File C:\Program Files\Microsoft Visual Studio\2022\Professional\VC\Tools\MSVC\14.44.35207\atlmfc\include\atlsimpstr.h

; 804  : 		return( reinterpret_cast< CStringData* >( m_pszData )-1 );

  0079d	8b 85 7c e1 ff
	ff		 mov	 eax, DWORD PTR _TempData$[ebp+20]
  007a3	83 c0 f0	 add	 eax, -16		; fffffff0H
; File C:\Program Files\Microsoft Visual Studio\2022\Professional\VC\Tools\MSVC\14.44.35207\include\utility

; 274  :         : first(_STD forward<_Other1>(_Val1)), second(_STD forward<_Other2>(_Val2)) {

  007a6	89 8d 48 e1 ff
	ff		 mov	 DWORD PTR $T20[ebp], ecx
; File C:\Program Files\Microsoft Visual Studio\2022\Professional\VC\Tools\MSVC\14.44.35207\atlmfc\include\atlsimpstr.h

; 217  : 		CStringData* pNewData = CloneData( pSrcData );

  007ac	50		 push	 eax
  007ad	c7 85 50 e1 ff
	ff 04 00 00 00	 mov	 DWORD PTR $T20[ebp+8], 4
  007b7	89 8d 54 e1 ff
	ff		 mov	 DWORD PTR $T20[ebp+12], ecx

; 804  : 		return( reinterpret_cast< CStringData* >( m_pszData )-1 );

  007bd	89 85 44 e1 ff
	ff		 mov	 DWORD PTR tv4612[ebp], eax

; 217  : 		CStringData* pNewData = CloneData( pSrcData );

  007c3	e8 00 00 00 00	 call	 ?CloneData@?$CSimpleStringT@D$0A@@ATL@@CAPAUCStringData@2@PAU32@@Z ; ATL::CSimpleStringT<char,0>::CloneData
  007c8	8b f8		 mov	 edi, eax
  007ca	83 c4 04	 add	 esp, 4
  007cd	89 bd 80 e1 ff
	ff		 mov	 DWORD PTR _pData$1$[ebp], edi

; 218  : 		Attach( pNewData );

  007d3	8d 4f 10	 lea	 ecx, DWORD PTR [edi+16]
  007d6	89 8d 60 e1 ff
	ff		 mov	 DWORD PTR $T20[ebp+24], ecx
; File C:\Program Files\Microsoft Visual Studio\2022\Professional\VC\Tools\MSVC\14.44.35207\include\xtree

; 1017 :             _Loc                = _Find_lower_bound(_Keyval);

  007dc	8d 85 48 e1 ff
	ff		 lea	 eax, DWORD PTR $T20[ebp]
; File C:\IAGOS\server\v18\Source\Source\_Common\honor.cpp

; 61   : 					m_mapMonster.insert(map<int, HonorData>::value_type(TempData.nSGrouping, TempData));

  007e2	c6 45 fc 02	 mov	 BYTE PTR __$EHRec$[ebp+8], 2
; File C:\Program Files\Microsoft Visual Studio\2022\Professional\VC\Tools\MSVC\14.44.35207\include\xtree

; 1017 :             _Loc                = _Find_lower_bound(_Keyval);

  007e6	50		 push	 eax
  007e7	8d 85 8c e0 ff
	ff		 lea	 eax, DWORD PTR $T3[ebp]
  007ed	8b ce		 mov	 ecx, esi
  007ef	50		 push	 eax
  007f0	e8 00 00 00 00	 call	 ??$_Find_lower_bound@H@?$_Tree@V?$_Tmap_traits@HUHonorData@@U?$less@H@std@@V?$allocator@U?$pair@$$CBHUHonorData@@@std@@@3@$0A@@std@@@std@@IBE?AU?$_Tree_find_result@PAU?$_Tree_node@U?$pair@$$CBHUHonorData@@@std@@PAX@std@@@1@ABH@Z ; std::_Tree<std::_Tmap_traits<int,HonorData,std::less<int>,std::allocator<std::pair<int const ,HonorData> >,0> >::_Find_lower_bound<int>
  007f5	8b 48 08	 mov	 ecx, DWORD PTR [eax+8]
  007f8	f3 0f 7e 00	 movq	 xmm0, QWORD PTR [eax]
  007fc	66 0f d6 85 d4
	e0 ff ff	 movq	 QWORD PTR __Loc$9[ebp], xmm0

; 1624 :         return !_Bound->_Isnil && !_DEBUG_LT_PRED(_Getcomp(), _Keyval, _Traits::_Kfn(_Bound->_Myval));

  00804	80 79 0d 00	 cmp	 BYTE PTR [ecx+13], 0
  00808	75 0f		 jne	 SHORT $LN392@LoadTitle
; File C:\Program Files\Microsoft Visual Studio\2022\Professional\VC\Tools\MSVC\14.44.35207\include\type_traits

; 2380 :         return _Left < _Right;

  0080a	8b 85 70 e1 ff
	ff		 mov	 eax, DWORD PTR _TempData$[ebp+8]
  00810	3b 41 10	 cmp	 eax, DWORD PTR [ecx+16]
; File C:\Program Files\Microsoft Visual Studio\2022\Professional\VC\Tools\MSVC\14.44.35207\include\xtree

; 1624 :         return !_Bound->_Isnil && !_DEBUG_LT_PRED(_Getcomp(), _Keyval, _Traits::_Kfn(_Bound->_Myval));

  00813	0f 8d c3 00 00
	00		 jge	 $LN507@LoadTitle
$LN392@LoadTitle:

; 1648 :         if (max_size() == _Get_scary()->_Mysize) {

  00819	81 7e 04 5d 74
	d1 05		 cmp	 DWORD PTR [esi+4], 97612893 ; 05d1745dH
  00820	0f 84 2a 03 00
	00		 je	 $LN1080@LoadTitle

; 1023 :             _Inserted = _Tree_temp_node<_Alnode>(_Getal(), _Scary->_Myhead, _STD forward<_Valtys>(_Vals)...)._Release();

  00826	8b 1e		 mov	 ebx, DWORD PTR [esi]
; File C:\Program Files\Microsoft Visual Studio\2022\Professional\VC\Tools\MSVC\14.44.35207\include\xmemory

; 1160 :     _CONSTEXPR20 explicit _Alloc_construct_ptr(_Alloc& _Al_) : _Al(_Al_), _Ptr(nullptr) {}

  00828	89 b5 18 e1 ff
	ff		 mov	 DWORD PTR $T15[ebp], esi

; 136  :         return ::operator new(_Bytes);

  0082e	6a 2c		 push	 44			; 0000002cH
; File C:\Program Files\Microsoft Visual Studio\2022\Professional\VC\Tools\MSVC\14.44.35207\include\xtree

; 808  :     explicit _Tree_temp_node_alloc(_Alnode& _Al_) : _Alloc_construct_ptr<_Alnode>(_Al_) {

  00830	c6 45 fc 03	 mov	 BYTE PTR __$EHRec$[ebp+8], 3
; File C:\Program Files\Microsoft Visual Studio\2022\Professional\VC\Tools\MSVC\14.44.35207\include\xmemory

; 1167 :         _Ptr = nullptr; // if allocate throws, prevents double-free

  00834	c7 85 1c e1 ff
	ff 00 00 00 00	 mov	 DWORD PTR $T15[ebp+4], 0

; 136  :         return ::operator new(_Bytes);

  0083e	e8 00 00 00 00	 call	 ??2@YAPAXI@Z		; operator new

; 256  :         return _Traits::_Allocate(_Bytes);

  00843	8b f8		 mov	 edi, eax

; 1168 :         _Ptr = _Al.allocate(1);

  00845	89 bd 1c e1 ff
	ff		 mov	 DWORD PTR $T15[ebp+4], edi
; File C:\Program Files\Microsoft Visual Studio\2022\Professional\VC\Tools\MSVC\14.44.35207\include\utility

; 278  :     pair(pair&&)      = default;

  0084b	8b 95 70 e1 ff
	ff		 mov	 edx, DWORD PTR _TempData$[ebp+8]
  00851	8d 4f 14	 lea	 ecx, DWORD PTR [edi+20]
  00854	8b 85 68 e1 ff
	ff		 mov	 eax, DWORD PTR _TempData$[ebp]
  0085a	8d 71 14	 lea	 esi, DWORD PTR [ecx+20]
; File C:\Program Files\Microsoft Visual Studio\2022\Professional\VC\Tools\MSVC\14.44.35207\atlmfc\include\atlsimpstr.h

; 217  : 		CStringData* pNewData = CloneData( pSrcData );

  0085d	ff b5 80 e1 ff
	ff		 push	 DWORD PTR _pData$1$[ebp]
; File C:\Program Files\Microsoft Visual Studio\2022\Professional\VC\Tools\MSVC\14.44.35207\include\utility

; 278  :     pair(pair&&)      = default;

  00863	89 57 10	 mov	 DWORD PTR [edi+16], edx
  00866	89 01		 mov	 DWORD PTR [ecx], eax
  00868	8b 85 74 e1 ff
	ff		 mov	 eax, DWORD PTR _TempData$[ebp+12]
  0086e	89 41 0c	 mov	 DWORD PTR [ecx+12], eax
  00871	8b 85 78 e1 ff
	ff		 mov	 eax, DWORD PTR _TempData$[ebp+16]
  00877	89 8d 84 e1 ff
	ff		 mov	 DWORD PTR _this$[ebp], ecx
; File C:\Program Files\Microsoft Visual Studio\2022\Professional\VC\Tools\MSVC\14.44.35207\include\xtree

; 829  :         : _Tree_temp_node_alloc<_Alnode>(_Al_) {

  0087d	c6 45 fc 04	 mov	 BYTE PTR __$EHRec$[ebp+8], 4
  00881	c7 41 04 04 00
	00 00		 mov	 DWORD PTR [ecx+4], 4
  00888	89 51 08	 mov	 DWORD PTR [ecx+8], edx
  0088b	89 41 10	 mov	 DWORD PTR [ecx+16], eax
  0088e	89 b5 84 e1 ff
	ff		 mov	 DWORD PTR _this$[ebp], esi
; File C:\Program Files\Microsoft Visual Studio\2022\Professional\VC\Tools\MSVC\14.44.35207\atlmfc\include\atlsimpstr.h

; 217  : 		CStringData* pNewData = CloneData( pSrcData );

  00894	e8 00 00 00 00	 call	 ?CloneData@?$CSimpleStringT@D$0A@@ATL@@CAPAUCStringData@2@PAU32@@Z ; ATL::CSimpleStringT<char,0>::CloneData
  00899	83 c4 08	 add	 esp, 8
; File C:\Program Files\Microsoft Visual Studio\2022\Professional\VC\Tools\MSVC\14.44.35207\include\utility

; 774  :     _Val         = static_cast<_Other&&>(_New_val);

  0089c	c7 85 1c e1 ff
	ff 00 00 00 00	 mov	 DWORD PTR $T15[ebp+4], 0
; File C:\Program Files\Microsoft Visual Studio\2022\Professional\VC\Tools\MSVC\14.44.35207\atlmfc\include\atlsimpstr.h

; 218  : 		Attach( pNewData );

  008a6	83 c0 10	 add	 eax, 16			; 00000010H
  008a9	89 06		 mov	 DWORD PTR [esi], eax
; File C:\Program Files\Microsoft Visual Studio\2022\Professional\VC\Tools\MSVC\14.44.35207\include\xtree

; 1042 :         return {_Scary->_Insert_node(_Loc._Location, _Inserted), true};

  008ab	8b b5 40 e1 ff
	ff		 mov	 esi, DWORD PTR _this$GSCopy$1$[ebp]
  008b1	8b ce		 mov	 ecx, esi
  008b3	57		 push	 edi
  008b4	ff b5 d8 e0 ff
	ff		 push	 DWORD PTR __Loc$9[ebp+4]

; 831  :         _Construct_in_place(this->_Ptr->_Left, _Myhead);

  008ba	89 1f		 mov	 DWORD PTR [edi], ebx

; 1042 :         return {_Scary->_Insert_node(_Loc._Location, _Inserted), true};

  008bc	ff b5 d4 e0 ff
	ff		 push	 DWORD PTR __Loc$9[ebp]

; 832  :         _Construct_in_place(this->_Ptr->_Parent, _Myhead);

  008c2	89 5f 04	 mov	 DWORD PTR [edi+4], ebx

; 833  :         _Construct_in_place(this->_Ptr->_Right, _Myhead);

  008c5	89 5f 08	 mov	 DWORD PTR [edi+8], ebx

; 834  :         this->_Ptr->_Color = _Red;

  008c8	66 c7 47 0c 00
	00		 mov	 WORD PTR [edi+12], 0

; 1042 :         return {_Scary->_Insert_node(_Loc._Location, _Inserted), true};

  008ce	e8 00 00 00 00	 call	 ?_Insert_node@?$_Tree_val@U?$_Tree_simple_types@U?$pair@$$CBHUHonorData@@@std@@@std@@@std@@QAEPAU?$_Tree_node@U?$pair@$$CBHUHonorData@@@std@@PAX@2@U?$_Tree_id@PAU?$_Tree_node@U?$pair@$$CBHUHonorData@@@std@@PAX@std@@@2@QAU32@@Z ; std::_Tree_val<std::_Tree_simple_types<std::pair<int const ,HonorData> > >::_Insert_node
  008d3	8b bd 80 e1 ff
	ff		 mov	 edi, DWORD PTR _pData$1$[ebp]
  008d9	83 cb ff	 or	 ebx, -1
$LN507@LoadTitle:
; File C:\IAGOS\server\v18\Source\Source\_Common\honor.cpp

; 61   : 					m_mapMonster.insert(map<int, HonorData>::value_type(TempData.nSGrouping, TempData));

  008dc	c6 45 fc 01	 mov	 BYTE PTR __$EHRec$[ebp+8], 1
; File C:\Program Files\Microsoft Visual Studio\2022\Professional\VC\Tools\MSVC\14.44.35207\atlmfc\include\atlsimpstr.h

; 92   : 		if( _InterlockedDecrement( &nRefs ) <= 0 )

  008e0	8b c3		 mov	 eax, ebx
  008e2	f0 0f c1 47 0c	 lock	  xadd	 DWORD PTR [edi+12], eax
  008e7	48		 dec	 eax
  008e8	85 c0		 test	 eax, eax
  008ea	7f 08		 jg	 SHORT $LN539@LoadTitle

; 94   : 			pStringMgr->Free( this );

  008ec	8b 0f		 mov	 ecx, DWORD PTR [edi]
  008ee	57		 push	 edi
  008ef	8b 01		 mov	 eax, DWORD PTR [ecx]
  008f1	ff 50 04	 call	 DWORD PTR [eax+4]
$LN539@LoadTitle:
; File C:\Program Files\Microsoft Visual Studio\2022\Professional\VC\Tools\MSVC\14.44.35207\include\utility

; 274  :         : first(_STD forward<_Other1>(_Val1)), second(_STD forward<_Other2>(_Val2)) {

  008f4	8b 85 68 e1 ff
	ff		 mov	 eax, DWORD PTR _TempData$[ebp]
; File C:\Program Files\Microsoft Visual Studio\2022\Professional\VC\Tools\MSVC\14.44.35207\atlmfc\include\atlsimpstr.h

; 217  : 		CStringData* pNewData = CloneData( pSrcData );

  008fa	ff b5 44 e1 ff
	ff		 push	 DWORD PTR tv4612[ebp]
; File C:\Program Files\Microsoft Visual Studio\2022\Professional\VC\Tools\MSVC\14.44.35207\include\utility

; 274  :         : first(_STD forward<_Other1>(_Val1)), second(_STD forward<_Other2>(_Val2)) {

  00900	89 85 48 e1 ff
	ff		 mov	 DWORD PTR $T21[ebp], eax
  00906	89 85 4c e1 ff
	ff		 mov	 DWORD PTR $T21[ebp+4], eax
  0090c	8b 85 70 e1 ff
	ff		 mov	 eax, DWORD PTR _TempData$[ebp+8]
  00912	89 85 54 e1 ff
	ff		 mov	 DWORD PTR $T21[ebp+12], eax
  00918	8b 85 74 e1 ff
	ff		 mov	 eax, DWORD PTR _TempData$[ebp+12]
  0091e	89 85 58 e1 ff
	ff		 mov	 DWORD PTR $T21[ebp+16], eax
  00924	8b 85 78 e1 ff
	ff		 mov	 eax, DWORD PTR _TempData$[ebp+16]
  0092a	c7 85 50 e1 ff
	ff 04 00 00 00	 mov	 DWORD PTR $T21[ebp+8], 4
  00934	89 85 5c e1 ff
	ff		 mov	 DWORD PTR $T21[ebp+20], eax
; File C:\Program Files\Microsoft Visual Studio\2022\Professional\VC\Tools\MSVC\14.44.35207\atlmfc\include\atlsimpstr.h

; 217  : 		CStringData* pNewData = CloneData( pSrcData );

  0093a	e8 00 00 00 00	 call	 ?CloneData@?$CSimpleStringT@D$0A@@ATL@@CAPAUCStringData@2@PAU32@@Z ; ATL::CSimpleStringT<char,0>::CloneData
  0093f	8b f8		 mov	 edi, eax
  00941	83 c4 04	 add	 esp, 4
  00944	89 bd 64 e1 ff
	ff		 mov	 DWORD PTR _pData$1$[ebp], edi

; 218  : 		Attach( pNewData );

  0094a	8d 4f 10	 lea	 ecx, DWORD PTR [edi+16]
  0094d	89 8d 60 e1 ff
	ff		 mov	 DWORD PTR $T21[ebp+24], ecx
; File C:\Program Files\Microsoft Visual Studio\2022\Professional\VC\Tools\MSVC\14.44.35207\include\xtree

; 1017 :             _Loc                = _Find_lower_bound(_Keyval);

  00953	8d 85 48 e1 ff
	ff		 lea	 eax, DWORD PTR $T21[ebp]
; File C:\IAGOS\server\v18\Source\Source\_Common\honor.cpp

; 62   : 					m_mapAll.insert(map<int, HonorData>::value_type(TempData.nID, TempData));

  00959	c6 45 fc 05	 mov	 BYTE PTR __$EHRec$[ebp+8], 5
; File C:\Program Files\Microsoft Visual Studio\2022\Professional\VC\Tools\MSVC\14.44.35207\include\xtree

; 1017 :             _Loc                = _Find_lower_bound(_Keyval);

  0095d	50		 push	 eax
  0095e	8d 85 80 e0 ff
	ff		 lea	 eax, DWORD PTR $T2[ebp]
; File C:\IAGOS\server\v18\Source\Source\_Common\honor.cpp

; 62   : 					m_mapAll.insert(map<int, HonorData>::value_type(TempData.nID, TempData));

  00964	8d 4e 18	 lea	 ecx, DWORD PTR [esi+24]
; File C:\Program Files\Microsoft Visual Studio\2022\Professional\VC\Tools\MSVC\14.44.35207\include\xtree

; 1017 :             _Loc                = _Find_lower_bound(_Keyval);

  00967	50		 push	 eax
; File C:\IAGOS\server\v18\Source\Source\_Common\honor.cpp

; 62   : 					m_mapAll.insert(map<int, HonorData>::value_type(TempData.nID, TempData));

  00968	89 8d 80 e1 ff
	ff		 mov	 DWORD PTR _this$1$[ebp], ecx
; File C:\Program Files\Microsoft Visual Studio\2022\Professional\VC\Tools\MSVC\14.44.35207\include\xtree

; 1017 :             _Loc                = _Find_lower_bound(_Keyval);

  0096e	e8 00 00 00 00	 call	 ??$_Find_lower_bound@H@?$_Tree@V?$_Tmap_traits@HUHonorData@@U?$less@H@std@@V?$allocator@U?$pair@$$CBHUHonorData@@@std@@@3@$0A@@std@@@std@@IBE?AU?$_Tree_find_result@PAU?$_Tree_node@U?$pair@$$CBHUHonorData@@@std@@PAX@std@@@1@ABH@Z ; std::_Tree<std::_Tmap_traits<int,HonorData,std::less<int>,std::allocator<std::pair<int const ,HonorData> >,0> >::_Find_lower_bound<int>
  00973	8b 48 08	 mov	 ecx, DWORD PTR [eax+8]
  00976	f3 0f 7e 00	 movq	 xmm0, QWORD PTR [eax]
  0097a	66 0f d6 85 c8
	e0 ff ff	 movq	 QWORD PTR __Loc$8[ebp], xmm0

; 1624 :         return !_Bound->_Isnil && !_DEBUG_LT_PRED(_Getcomp(), _Keyval, _Traits::_Kfn(_Bound->_Myval));

  00982	80 79 0d 00	 cmp	 BYTE PTR [ecx+13], 0
  00986	75 0f		 jne	 SHORT $LN562@LoadTitle
; File C:\Program Files\Microsoft Visual Studio\2022\Professional\VC\Tools\MSVC\14.44.35207\include\type_traits

; 2380 :         return _Left < _Right;

  00988	8b 85 68 e1 ff
	ff		 mov	 eax, DWORD PTR _TempData$[ebp]
  0098e	3b 41 10	 cmp	 eax, DWORD PTR [ecx+16]
; File C:\Program Files\Microsoft Visual Studio\2022\Professional\VC\Tools\MSVC\14.44.35207\include\xtree

; 1624 :         return !_Bound->_Isnil && !_DEBUG_LT_PRED(_Getcomp(), _Keyval, _Traits::_Kfn(_Bound->_Myval));

  00991	0f 8d cd 00 00
	00		 jge	 $LN677@LoadTitle
$LN562@LoadTitle:

; 1648 :         if (max_size() == _Get_scary()->_Mysize) {

  00997	8b 85 80 e1 ff
	ff		 mov	 eax, DWORD PTR _this$1$[ebp]
  0099d	81 78 04 5d 74
	d1 05		 cmp	 DWORD PTR [eax+4], 97612893 ; 05d1745dH
  009a4	0f 84 a6 01 00
	00		 je	 $LN1080@LoadTitle

; 1023 :             _Inserted = _Tree_temp_node<_Alnode>(_Getal(), _Scary->_Myhead, _STD forward<_Valtys>(_Vals)...)._Release();

  009aa	8b 18		 mov	 ebx, DWORD PTR [eax]
; File C:\Program Files\Microsoft Visual Studio\2022\Professional\VC\Tools\MSVC\14.44.35207\include\xmemory

; 1160 :     _CONSTEXPR20 explicit _Alloc_construct_ptr(_Alloc& _Al_) : _Al(_Al_), _Ptr(nullptr) {}

  009ac	89 85 10 e1 ff
	ff		 mov	 DWORD PTR $T14[ebp], eax

; 136  :         return ::operator new(_Bytes);

  009b2	6a 2c		 push	 44			; 0000002cH
; File C:\Program Files\Microsoft Visual Studio\2022\Professional\VC\Tools\MSVC\14.44.35207\include\xtree

; 808  :     explicit _Tree_temp_node_alloc(_Alnode& _Al_) : _Alloc_construct_ptr<_Alnode>(_Al_) {

  009b4	c6 45 fc 06	 mov	 BYTE PTR __$EHRec$[ebp+8], 6
; File C:\Program Files\Microsoft Visual Studio\2022\Professional\VC\Tools\MSVC\14.44.35207\include\xmemory

; 1167 :         _Ptr = nullptr; // if allocate throws, prevents double-free

  009b8	c7 85 14 e1 ff
	ff 00 00 00 00	 mov	 DWORD PTR $T14[ebp+4], 0

; 136  :         return ::operator new(_Bytes);

  009c2	e8 00 00 00 00	 call	 ??2@YAPAXI@Z		; operator new

; 256  :         return _Traits::_Allocate(_Bytes);

  009c7	8b f8		 mov	 edi, eax

; 1168 :         _Ptr = _Al.allocate(1);

  009c9	89 bd 14 e1 ff
	ff		 mov	 DWORD PTR $T14[ebp+4], edi
; File C:\Program Files\Microsoft Visual Studio\2022\Professional\VC\Tools\MSVC\14.44.35207\include\utility

; 278  :     pair(pair&&)      = default;

  009cf	8b 85 68 e1 ff
	ff		 mov	 eax, DWORD PTR _TempData$[ebp]
  009d5	8d 4f 14	 lea	 ecx, DWORD PTR [edi+20]
; File C:\Program Files\Microsoft Visual Studio\2022\Professional\VC\Tools\MSVC\14.44.35207\atlmfc\include\atlsimpstr.h

; 217  : 		CStringData* pNewData = CloneData( pSrcData );

  009d8	ff b5 64 e1 ff
	ff		 push	 DWORD PTR _pData$1$[ebp]
; File C:\Program Files\Microsoft Visual Studio\2022\Professional\VC\Tools\MSVC\14.44.35207\include\utility

; 278  :     pair(pair&&)      = default;

  009de	89 47 10	 mov	 DWORD PTR [edi+16], eax
  009e1	8d 71 14	 lea	 esi, DWORD PTR [ecx+20]
  009e4	89 01		 mov	 DWORD PTR [ecx], eax
  009e6	8b 85 70 e1 ff
	ff		 mov	 eax, DWORD PTR _TempData$[ebp+8]
  009ec	89 41 08	 mov	 DWORD PTR [ecx+8], eax
  009ef	8b 85 74 e1 ff
	ff		 mov	 eax, DWORD PTR _TempData$[ebp+12]
  009f5	89 41 0c	 mov	 DWORD PTR [ecx+12], eax
  009f8	8b 85 78 e1 ff
	ff		 mov	 eax, DWORD PTR _TempData$[ebp+16]
  009fe	89 8d 84 e1 ff
	ff		 mov	 DWORD PTR _this$[ebp], ecx
; File C:\Program Files\Microsoft Visual Studio\2022\Professional\VC\Tools\MSVC\14.44.35207\include\xtree

; 829  :         : _Tree_temp_node_alloc<_Alnode>(_Al_) {

  00a04	c6 45 fc 07	 mov	 BYTE PTR __$EHRec$[ebp+8], 7
  00a08	c7 41 04 04 00
	00 00		 mov	 DWORD PTR [ecx+4], 4
  00a0f	89 41 10	 mov	 DWORD PTR [ecx+16], eax
  00a12	89 b5 84 e1 ff
	ff		 mov	 DWORD PTR _this$[ebp], esi
; File C:\Program Files\Microsoft Visual Studio\2022\Professional\VC\Tools\MSVC\14.44.35207\atlmfc\include\atlsimpstr.h

; 217  : 		CStringData* pNewData = CloneData( pSrcData );

  00a18	e8 00 00 00 00	 call	 ?CloneData@?$CSimpleStringT@D$0A@@ATL@@CAPAUCStringData@2@PAU32@@Z ; ATL::CSimpleStringT<char,0>::CloneData
  00a1d	83 c4 08	 add	 esp, 8
; File C:\Program Files\Microsoft Visual Studio\2022\Professional\VC\Tools\MSVC\14.44.35207\include\utility

; 774  :     _Val         = static_cast<_Other&&>(_New_val);

  00a20	c7 85 14 e1 ff
	ff 00 00 00 00	 mov	 DWORD PTR $T14[ebp+4], 0
; File C:\Program Files\Microsoft Visual Studio\2022\Professional\VC\Tools\MSVC\14.44.35207\include\xtree

; 1042 :         return {_Scary->_Insert_node(_Loc._Location, _Inserted), true};

  00a2a	57		 push	 edi
  00a2b	ff b5 cc e0 ff
	ff		 push	 DWORD PTR __Loc$8[ebp+4]
  00a31	ff b5 c8 e0 ff
	ff		 push	 DWORD PTR __Loc$8[ebp]
$LN1103@LoadTitle:
; File C:\IAGOS\server\v18\Source\Source\_Common\honor.cpp

; 89   : 		m_nCurrentTitleCount++;

  00a37	8b 8d 80 e1 ff
	ff		 mov	 ecx, DWORD PTR _this$1$[ebp]
  00a3d	83 c0 10	 add	 eax, 16			; 00000010H
  00a40	89 06		 mov	 DWORD PTR [esi], eax
  00a42	89 1f		 mov	 DWORD PTR [edi], ebx
  00a44	89 5f 04	 mov	 DWORD PTR [edi+4], ebx
  00a47	89 5f 08	 mov	 DWORD PTR [edi+8], ebx
  00a4a	66 c7 47 0c 00
	00		 mov	 WORD PTR [edi+12], 0
  00a50	e8 00 00 00 00	 call	 ?_Insert_node@?$_Tree_val@U?$_Tree_simple_types@U?$pair@$$CBHUHonorData@@@std@@@std@@@std@@QAEPAU?$_Tree_node@U?$pair@$$CBHUHonorData@@@std@@PAX@2@U?$_Tree_id@PAU?$_Tree_node@U?$pair@$$CBHUHonorData@@@std@@PAX@std@@@2@QAU32@@Z ; std::_Tree_val<std::_Tree_simple_types<std::pair<int const ,HonorData> > >::_Insert_node
  00a55	8b b5 40 e1 ff
	ff		 mov	 esi, DWORD PTR _this$GSCopy$1$[ebp]
  00a5b	83 cb ff	 or	 ebx, -1
  00a5e	8b bd 64 e1 ff
	ff		 mov	 edi, DWORD PTR _pData$1$[ebp]
$LN677@LoadTitle:
  00a64	8b c3		 mov	 eax, ebx
  00a66	c6 45 fc 01	 mov	 BYTE PTR __$EHRec$[ebp+8], 1
  00a6a	f0 0f c1 47 0c	 lock	  xadd	 DWORD PTR [edi+12], eax
  00a6f	48		 dec	 eax
  00a70	85 c0		 test	 eax, eax
  00a72	7f 08		 jg	 SHORT $LN709@LoadTitle
  00a74	8b 0f		 mov	 ecx, DWORD PTR [edi]
  00a76	57		 push	 edi
$LN1104@LoadTitle:
  00a77	8b 01		 mov	 eax, DWORD PTR [ecx]
  00a79	ff 50 04	 call	 DWORD PTR [eax+4]
$LN709@LoadTitle:
  00a7c	ff 46 20	 inc	 DWORD PTR [esi+32]
; File C:\IAGOS\server\v18\Source\Source\_Common\honor.h

; 22   : 	void Init() {nID = -1;nLGrouping =  nSGrouping = nNeed = nValue = 0; strTitle.Empty(); };

  00a7f	8d 8d 7c e1 ff
	ff		 lea	 ecx, DWORD PTR _TempData$[ebp+20]
  00a85	c7 85 68 e1 ff
	ff ff ff ff ff	 mov	 DWORD PTR _TempData$[ebp], -1
  00a8f	c7 85 78 e1 ff
	ff 00 00 00 00	 mov	 DWORD PTR _TempData$[ebp+16], 0
  00a99	c7 85 74 e1 ff
	ff 00 00 00 00	 mov	 DWORD PTR _TempData$[ebp+12], 0
  00aa3	c7 85 70 e1 ff
	ff 00 00 00 00	 mov	 DWORD PTR _TempData$[ebp+8], 0
  00aad	c7 85 6c e1 ff
	ff 00 00 00 00	 mov	 DWORD PTR _TempData$[ebp+4], 0
  00ab7	e8 00 00 00 00	 call	 ?Empty@?$CSimpleStringT@D$0A@@ATL@@QAEXXZ ; ATL::CSimpleStringT<char,0>::Empty
; File C:\IAGOS\server\v18\Source\Source\_Common\honor.cpp

; 91   : 		TempData.nID		= script.GetNumber(); // ID

  00abc	6a 00		 push	 0
  00abe	8d 8d 88 e1 ff
	ff		 lea	 ecx, DWORD PTR _script$[ebp]
  00ac4	e8 00 00 00 00	 call	 ?GetNumber@CScanner@@QAEHH@Z ; CScanner::GetNumber
  00ac9	83 bd cc e9 ff
	ff 15		 cmp	 DWORD PTR _script$[ebp+2116], 21 ; 00000015H
  00ad0	89 85 68 e1 ff
	ff		 mov	 DWORD PTR _TempData$[ebp], eax
  00ad6	0f 85 54 f6 ff
	ff		 jne	 $LL2@LoadTitle
$LN3@LoadTitle:

; 94   : 	return TRUE;

  00adc	be 01 00 00 00	 mov	 esi, 1
  00ae1	eb 0f		 jmp	 SHORT $LN25@LoadTitle
$LN11@LoadTitle:

; 76   : 				}
; 77   : 				else
; 78   : 				{
; 79   : 					Error("Too many title about item!");

  00ae3	68 00 00 00 00	 push	 OFFSET ??_C@_0BL@IDNKGEML@Too?5many?5title?5about?5item?$CB@
$LN1105@LoadTitle:

; 63   : 				}
; 64   : 				else
; 65   : 				{
; 66   : 					Error("Too many title about monster!");

  00ae8	e8 00 00 00 00	 call	 ?Error@@YAPBDPBDZZ	; Error
  00aed	83 c4 04	 add	 esp, 4
$LN23@LoadTitle:
  00af0	33 f6		 xor	 esi, esi
$LN25@LoadTitle:

; 94   : 	return TRUE;

  00af2	8d 8d 88 e1 ff
	ff		 lea	 ecx, DWORD PTR _script$[ebp]
  00af8	e8 00 00 00 00	 call	 ??1CScript@@UAE@XZ	; CScript::~CScript
; File C:\Program Files\Microsoft Visual Studio\2022\Professional\VC\Tools\MSVC\14.44.35207\atlmfc\include\atlsimpstr.h

; 804  : 		return( reinterpret_cast< CStringData* >( m_pszData )-1 );

  00afd	8b 85 7c e1 ff
	ff		 mov	 eax, DWORD PTR _TempData$[ebp+20]
; File C:\IAGOS\server\v18\Source\Source\_Common\honor.cpp

; 94   : 	return TRUE;

  00b03	c7 45 fc ff ff
	ff ff		 mov	 DWORD PTR __$EHRec$[ebp+8], -1
; File C:\Program Files\Microsoft Visual Studio\2022\Professional\VC\Tools\MSVC\14.44.35207\atlmfc\include\atlsimpstr.h

; 804  : 		return( reinterpret_cast< CStringData* >( m_pszData )-1 );

  00b0a	83 c0 f0	 add	 eax, -16		; fffffff0H

; 92   : 		if( _InterlockedDecrement( &nRefs ) <= 0 )

  00b0d	f0 0f c1 58 0c	 lock	  xadd	 DWORD PTR [eax+12], ebx
  00b12	4b		 dec	 ebx
  00b13	85 db		 test	 ebx, ebx
  00b15	7f 08		 jg	 SHORT $LN1073@LoadTitle

; 94   : 			pStringMgr->Free( this );

  00b17	8b 08		 mov	 ecx, DWORD PTR [eax]
  00b19	50		 push	 eax
  00b1a	8b 11		 mov	 edx, DWORD PTR [ecx]
  00b1c	ff 52 04	 call	 DWORD PTR [edx+4]
$LN1073@LoadTitle:
; File C:\IAGOS\server\v18\Source\Source\_Common\honor.cpp

; 94   : 	return TRUE;

  00b1f	8b c6		 mov	 eax, esi

; 95   : }

  00b21	8b 4d f4	 mov	 ecx, DWORD PTR __$EHRec$[ebp]
  00b24	64 89 0d 00 00
	00 00		 mov	 DWORD PTR fs:0, ecx
  00b2b	59		 pop	 ecx
  00b2c	5f		 pop	 edi
  00b2d	5e		 pop	 esi
  00b2e	5b		 pop	 ebx
  00b2f	8b 4d f0	 mov	 ecx, DWORD PTR __$ArrayPad$[ebp]
  00b32	33 cd		 xor	 ecx, ebp
  00b34	e8 00 00 00 00	 call	 @__security_check_cookie@4
  00b39	8b e5		 mov	 esp, ebp
  00b3b	5d		 pop	 ebp
  00b3c	c2 04 00	 ret	 4
$LN8@LoadTitle:

; 63   : 				}
; 64   : 				else
; 65   : 				{
; 66   : 					Error("Too many title about monster!");

  00b3f	68 00 00 00 00	 push	 OFFSET ??_C@_0BO@JKGKEJHM@Too?5many?5title?5about?5monster?$CB@
  00b44	eb a2		 jmp	 SHORT $LN1105@LoadTitle
$LN1107@LoadTitle:
; File C:\Program Files\Microsoft Visual Studio\2022\Professional\VC\Tools\MSVC\14.44.35207\atlmfc\include\atlsimpstr.h

; 209  : 		ATLENSURE( pStringMgr != NULL );

  00b46	68 05 40 00 80	 push	 -2147467259		; 80004005H
  00b4b	e8 00 00 00 00	 call	 ?AtlThrowImpl@ATL@@YGXJ@Z ; ATL::AtlThrowImpl
$LN1080@LoadTitle:
; File C:\IAGOS\server\v18\Source\Source\_Common\honor.cpp

; 95   : }

  00b50	e8 00 00 00 00	 call	 ?_Throw_tree_length_error@std@@YAXXZ ; std::_Throw_tree_length_error
$LN1101@LoadTitle:
  00b55	cc		 int	 3
_TEXT	ENDS
;	COMDAT text$x
text$x	SEGMENT
__unwindfunclet$?LoadTitle@CTitleManager@@QAEHPBD@Z$0:
  00000	8d 8d 68 e1 ff
	ff		 lea	 ecx, DWORD PTR _TempData$[ebp]
  00006	e9 00 00 00 00	 jmp	 ??1HonorData@@QAE@XZ	; HonorData::~HonorData
__unwindfunclet$?LoadTitle@CTitleManager@@QAEHPBD@Z$1:
  0000b	8d 8d 88 e1 ff
	ff		 lea	 ecx, DWORD PTR _script$[ebp]
  00011	e9 00 00 00 00	 jmp	 ??1CScript@@UAE@XZ	; CScript::~CScript
__unwindfunclet$?LoadTitle@CTitleManager@@QAEHPBD@Z$6:
  00016	8d 8d 48 e1 ff
	ff		 lea	 ecx, DWORD PTR $T23[ebp]
  0001c	e9 00 00 00 00	 jmp	 ??1?$pair@$$CBHUHonorData@@@std@@QAE@XZ
__unwindfunclet$?LoadTitle@CTitleManager@@QAEHPBD@Z$13:
  00021	8d 8d 38 e1 ff
	ff		 lea	 ecx, DWORD PTR $T19[ebp]
  00027	e9 00 00 00 00	 jmp	 ??1?$_Alloc_construct_ptr@V?$allocator@U?$_Tree_node@U?$pair@$$CBHUHonorData@@@std@@PAX@std@@@std@@@std@@QAE@XZ ; std::_Alloc_construct_ptr<std::allocator<std::_Tree_node<std::pair<int const ,HonorData>,void *> > >::~_Alloc_construct_ptr<std::allocator<std::_Tree_node<std::pair<int const ,HonorData>,void *> > >
__unwindfunclet$?LoadTitle@CTitleManager@@QAEHPBD@Z$12:
  0002c	8d 8d 38 e1 ff
	ff		 lea	 ecx, DWORD PTR $T19[ebp]
  00032	e9 00 00 00 00	 jmp	 ??1?$_Tree_temp_node_alloc@V?$allocator@U?$_Tree_node@U?$pair@$$CBHUHonorData@@@std@@PAX@std@@@std@@@std@@QAE@XZ
__unwindfunclet$?LoadTitle@CTitleManager@@QAEHPBD@Z$7:
  00037	8d 8d 48 e1 ff
	ff		 lea	 ecx, DWORD PTR $T24[ebp]
  0003d	e9 00 00 00 00	 jmp	 ??1?$pair@$$CBHUHonorData@@@std@@QAE@XZ
__unwindfunclet$?LoadTitle@CTitleManager@@QAEHPBD@Z$28:
  00042	8d 8d 30 e1 ff
	ff		 lea	 ecx, DWORD PTR $T18[ebp]
  00048	e9 00 00 00 00	 jmp	 ??1?$_Alloc_construct_ptr@V?$allocator@U?$_Tree_node@U?$pair@$$CBHUHonorData@@@std@@PAX@std@@@std@@@std@@QAE@XZ ; std::_Alloc_construct_ptr<std::allocator<std::_Tree_node<std::pair<int const ,HonorData>,void *> > >::~_Alloc_construct_ptr<std::allocator<std::_Tree_node<std::pair<int const ,HonorData>,void *> > >
__unwindfunclet$?LoadTitle@CTitleManager@@QAEHPBD@Z$27:
  0004d	8d 8d 30 e1 ff
	ff		 lea	 ecx, DWORD PTR $T18[ebp]
  00053	e9 00 00 00 00	 jmp	 ??1?$_Tree_temp_node_alloc@V?$allocator@U?$_Tree_node@U?$pair@$$CBHUHonorData@@@std@@PAX@std@@@std@@@std@@QAE@XZ
__unwindfunclet$?LoadTitle@CTitleManager@@QAEHPBD@Z$4:
  00058	8d 8d 48 e1 ff
	ff		 lea	 ecx, DWORD PTR $T25[ebp]
  0005e	e9 00 00 00 00	 jmp	 ??1?$pair@$$CBHUHonorData@@@std@@QAE@XZ
__unwindfunclet$?LoadTitle@CTitleManager@@QAEHPBD@Z$73:
  00063	8d 8d 28 e1 ff
	ff		 lea	 ecx, DWORD PTR $T17[ebp]
  00069	e9 00 00 00 00	 jmp	 ??1?$_Alloc_construct_ptr@V?$allocator@U?$_Tree_node@U?$pair@$$CBHUHonorData@@@std@@PAX@std@@@std@@@std@@QAE@XZ ; std::_Alloc_construct_ptr<std::allocator<std::_Tree_node<std::pair<int const ,HonorData>,void *> > >::~_Alloc_construct_ptr<std::allocator<std::_Tree_node<std::pair<int const ,HonorData>,void *> > >
__unwindfunclet$?LoadTitle@CTitleManager@@QAEHPBD@Z$72:
  0006e	8d 8d 28 e1 ff
	ff		 lea	 ecx, DWORD PTR $T17[ebp]
  00074	e9 00 00 00 00	 jmp	 ??1?$_Tree_temp_node_alloc@V?$allocator@U?$_Tree_node@U?$pair@$$CBHUHonorData@@@std@@PAX@std@@@std@@@std@@QAE@XZ
__unwindfunclet$?LoadTitle@CTitleManager@@QAEHPBD@Z$5:
  00079	8d 8d 48 e1 ff
	ff		 lea	 ecx, DWORD PTR $T22[ebp]
  0007f	e9 00 00 00 00	 jmp	 ??1?$pair@$$CBHUHonorData@@@std@@QAE@XZ
__unwindfunclet$?LoadTitle@CTitleManager@@QAEHPBD@Z$88:
  00084	8d 8d 20 e1 ff
	ff		 lea	 ecx, DWORD PTR $T16[ebp]
  0008a	e9 00 00 00 00	 jmp	 ??1?$_Alloc_construct_ptr@V?$allocator@U?$_Tree_node@U?$pair@$$CBHUHonorData@@@std@@PAX@std@@@std@@@std@@QAE@XZ ; std::_Alloc_construct_ptr<std::allocator<std::_Tree_node<std::pair<int const ,HonorData>,void *> > >::~_Alloc_construct_ptr<std::allocator<std::_Tree_node<std::pair<int const ,HonorData>,void *> > >
__unwindfunclet$?LoadTitle@CTitleManager@@QAEHPBD@Z$87:
  0008f	8d 8d 20 e1 ff
	ff		 lea	 ecx, DWORD PTR $T16[ebp]
  00095	e9 00 00 00 00	 jmp	 ??1?$_Tree_temp_node_alloc@V?$allocator@U?$_Tree_node@U?$pair@$$CBHUHonorData@@@std@@PAX@std@@@std@@@std@@QAE@XZ
__unwindfunclet$?LoadTitle@CTitleManager@@QAEHPBD@Z$2:
  0009a	8d 8d 48 e1 ff
	ff		 lea	 ecx, DWORD PTR $T20[ebp]
  000a0	e9 00 00 00 00	 jmp	 ??1?$pair@$$CBHUHonorData@@@std@@QAE@XZ
__unwindfunclet$?LoadTitle@CTitleManager@@QAEHPBD@Z$43:
  000a5	8d 8d 18 e1 ff
	ff		 lea	 ecx, DWORD PTR $T15[ebp]
  000ab	e9 00 00 00 00	 jmp	 ??1?$_Alloc_construct_ptr@V?$allocator@U?$_Tree_node@U?$pair@$$CBHUHonorData@@@std@@PAX@std@@@std@@@std@@QAE@XZ ; std::_Alloc_construct_ptr<std::allocator<std::_Tree_node<std::pair<int const ,HonorData>,void *> > >::~_Alloc_construct_ptr<std::allocator<std::_Tree_node<std::pair<int const ,HonorData>,void *> > >
__unwindfunclet$?LoadTitle@CTitleManager@@QAEHPBD@Z$42:
  000b0	8d 8d 18 e1 ff
	ff		 lea	 ecx, DWORD PTR $T15[ebp]
  000b6	e9 00 00 00 00	 jmp	 ??1?$_Tree_temp_node_alloc@V?$allocator@U?$_Tree_node@U?$pair@$$CBHUHonorData@@@std@@PAX@std@@@std@@@std@@QAE@XZ
__unwindfunclet$?LoadTitle@CTitleManager@@QAEHPBD@Z$3:
  000bb	8d 8d 48 e1 ff
	ff		 lea	 ecx, DWORD PTR $T21[ebp]
  000c1	e9 00 00 00 00	 jmp	 ??1?$pair@$$CBHUHonorData@@@std@@QAE@XZ
__unwindfunclet$?LoadTitle@CTitleManager@@QAEHPBD@Z$58:
  000c6	8d 8d 10 e1 ff
	ff		 lea	 ecx, DWORD PTR $T14[ebp]
  000cc	e9 00 00 00 00	 jmp	 ??1?$_Alloc_construct_ptr@V?$allocator@U?$_Tree_node@U?$pair@$$CBHUHonorData@@@std@@PAX@std@@@std@@@std@@QAE@XZ ; std::_Alloc_construct_ptr<std::allocator<std::_Tree_node<std::pair<int const ,HonorData>,void *> > >::~_Alloc_construct_ptr<std::allocator<std::_Tree_node<std::pair<int const ,HonorData>,void *> > >
__unwindfunclet$?LoadTitle@CTitleManager@@QAEHPBD@Z$57:
  000d1	8d 8d 10 e1 ff
	ff		 lea	 ecx, DWORD PTR $T14[ebp]
  000d7	e9 00 00 00 00	 jmp	 ??1?$_Tree_temp_node_alloc@V?$allocator@U?$_Tree_node@U?$pair@$$CBHUHonorData@@@std@@PAX@std@@@std@@@std@@QAE@XZ
  000dc	cc		 int	 3
  000dd	cc		 int	 3
  000de	cc		 int	 3
  000df	cc		 int	 3
  000e0	cc		 int	 3
__ehhandler$?LoadTitle@CTitleManager@@QAEHPBD@Z:
  000e1	90		 npad	 1
  000e2	90		 npad	 1
  000e3	8b 54 24 08	 mov	 edx, DWORD PTR [esp+8]
  000e7	8d 42 0c	 lea	 eax, DWORD PTR [edx+12]
  000ea	8b 8a 7c e0 ff
	ff		 mov	 ecx, DWORD PTR [edx-8068]
  000f0	33 c8		 xor	 ecx, eax
  000f2	e8 00 00 00 00	 call	 @__security_check_cookie@4
  000f7	8b 4a fc	 mov	 ecx, DWORD PTR [edx-4]
  000fa	33 c8		 xor	 ecx, eax
  000fc	e8 00 00 00 00	 call	 @__security_check_cookie@4
  00101	b8 00 00 00 00	 mov	 eax, OFFSET __ehfuncinfo$?LoadTitle@CTitleManager@@QAEHPBD@Z
  00106	e9 00 00 00 00	 jmp	 ___CxxFrameHandler3
text$x	ENDS
?LoadTitle@CTitleManager@@QAEHPBD@Z ENDP		; CTitleManager::LoadTitle
; Function compile flags: /Ogtp
; File C:\IAGOS\server\v18\Source\Source\_Common\honor.cpp
;	COMDAT ?Instance@CTitleManager@@SAPAV1@XZ
_TEXT	SEGMENT
__$EHRec$ = -12						; size = 12
?Instance@CTitleManager@@SAPAV1@XZ PROC			; CTitleManager::Instance, COMDAT

; 29   : {

  00000	55		 push	 ebp
  00001	8b ec		 mov	 ebp, esp
  00003	6a ff		 push	 -1
  00005	68 00 00 00 00	 push	 __ehhandler$?Instance@CTitleManager@@SAPAV1@XZ
  0000a	64 a1 00 00 00
	00		 mov	 eax, DWORD PTR fs:0
  00010	50		 push	 eax
  00011	a1 00 00 00 00	 mov	 eax, DWORD PTR ___security_cookie
  00016	33 c5		 xor	 eax, ebp
  00018	50		 push	 eax
  00019	8d 45 f4	 lea	 eax, DWORD PTR __$EHRec$[ebp]
  0001c	64 a3 00 00 00
	00		 mov	 DWORD PTR fs:0, eax

; 30   : 	static CTitleManager tManager;

  00022	64 a1 00 00 00
	00		 mov	 eax, DWORD PTR fs:__tls_array
  00028	8b 0d 00 00 00
	00		 mov	 ecx, DWORD PTR __tls_index
  0002e	8b 0c 88	 mov	 ecx, DWORD PTR [eax+ecx*4]
  00031	a1 00 00 00 00	 mov	 eax, DWORD PTR ?$TSS0@?1??Instance@CTitleManager@@SAPAV2@XZ@4HA
  00036	3b 81 00 00 00
	00		 cmp	 eax, DWORD PTR __Init_thread_epoch[ecx]
  0003c	7f 14		 jg	 SHORT $LN9@Instance
$LN5@Instance:

; 31   : 	return &tManager;
; 32   : }

  0003e	b8 00 00 00 00	 mov	 eax, OFFSET ?tManager@?1??Instance@CTitleManager@@SAPAV2@XZ@4V2@A
  00043	8b 4d f4	 mov	 ecx, DWORD PTR __$EHRec$[ebp]
  00046	64 89 0d 00 00
	00 00		 mov	 DWORD PTR fs:0, ecx
  0004d	59		 pop	 ecx
  0004e	8b e5		 mov	 esp, ebp
  00050	5d		 pop	 ebp
  00051	c3		 ret	 0
$LN9@Instance:

; 30   : 	static CTitleManager tManager;

  00052	68 00 00 00 00	 push	 OFFSET ?$TSS0@?1??Instance@CTitleManager@@SAPAV2@XZ@4HA
  00057	e8 00 00 00 00	 call	 __Init_thread_header
  0005c	83 c4 04	 add	 esp, 4
  0005f	83 3d 00 00 00
	00 ff		 cmp	 DWORD PTR ?$TSS0@?1??Instance@CTitleManager@@SAPAV2@XZ@4HA, -1
  00066	75 d6		 jne	 SHORT $LN5@Instance
  00068	b9 00 00 00 00	 mov	 ecx, OFFSET ?tManager@?1??Instance@CTitleManager@@SAPAV2@XZ@4V2@A
  0006d	c7 45 fc 00 00
	00 00		 mov	 DWORD PTR __$EHRec$[ebp+8], 0
  00074	e8 00 00 00 00	 call	 ??0CTitleManager@@QAE@XZ ; CTitleManager::CTitleManager
  00079	68 00 00 00 00	 push	 OFFSET ??__FtManager@?1??Instance@CTitleManager@@SAPAV1@XZ@YAXXZ ; `CTitleManager::Instance'::`2'::`dynamic atexit destructor for 'tManager''
  0007e	e8 00 00 00 00	 call	 _atexit
  00083	68 00 00 00 00	 push	 OFFSET ?$TSS0@?1??Instance@CTitleManager@@SAPAV2@XZ@4HA
  00088	e8 00 00 00 00	 call	 __Init_thread_footer
  0008d	83 c4 08	 add	 esp, 8
  00090	eb ac		 jmp	 SHORT $LN5@Instance
_TEXT	ENDS
;	COMDAT text$x
text$x	SEGMENT
__unwindfunclet$?Instance@CTitleManager@@SAPAV1@XZ$0:
  00000	68 00 00 00 00	 push	 OFFSET ?$TSS0@?1??Instance@CTitleManager@@SAPAV2@XZ@4HA
  00005	e8 00 00 00 00	 call	 __Init_thread_abort
  0000a	59		 pop	 ecx
  0000b	c3		 ret	 0
  0000c	cc		 int	 3
  0000d	cc		 int	 3
  0000e	cc		 int	 3
  0000f	cc		 int	 3
  00010	cc		 int	 3
__ehhandler$?Instance@CTitleManager@@SAPAV1@XZ:
  00011	90		 npad	 1
  00012	90		 npad	 1
  00013	8b 54 24 08	 mov	 edx, DWORD PTR [esp+8]
  00017	8d 42 0c	 lea	 eax, DWORD PTR [edx+12]
  0001a	8b 4a fc	 mov	 ecx, DWORD PTR [edx-4]
  0001d	33 c8		 xor	 ecx, eax
  0001f	e8 00 00 00 00	 call	 @__security_check_cookie@4
  00024	b8 00 00 00 00	 mov	 eax, OFFSET __ehfuncinfo$?Instance@CTitleManager@@SAPAV1@XZ
  00029	e9 00 00 00 00	 jmp	 ___CxxFrameHandler3
text$x	ENDS
?Instance@CTitleManager@@SAPAV1@XZ ENDP			; CTitleManager::Instance
; Function compile flags: /Ogtp
; File C:\IAGOS\server\v18\Source\Source\_Common\honor.cpp
; File C:\Program Files\Microsoft Visual Studio\2022\Professional\VC\Tools\MSVC\14.44.35207\include\xtree
; File C:\IAGOS\server\v18\Source\Source\_Common\honor.cpp
; File C:\Program Files\Microsoft Visual Studio\2022\Professional\VC\Tools\MSVC\14.44.35207\include\xtree
; File C:\Program Files\Microsoft Visual Studio\2022\Professional\VC\Tools\MSVC\14.44.35207\include\xmemory
; File C:\Program Files\Microsoft Visual Studio\2022\Professional\VC\Tools\MSVC\14.44.35207\include\xtree
; File C:\IAGOS\server\v18\Source\Source\_Common\honor.cpp
; File C:\Program Files\Microsoft Visual Studio\2022\Professional\VC\Tools\MSVC\14.44.35207\include\xmemory
; File C:\Program Files\Microsoft Visual Studio\2022\Professional\VC\Tools\MSVC\14.44.35207\include\xtree
; File C:\Program Files\Microsoft Visual Studio\2022\Professional\VC\Tools\MSVC\14.44.35207\include\xmemory
; File C:\Program Files\Microsoft Visual Studio\2022\Professional\VC\Tools\MSVC\14.44.35207\include\xtree
; File C:\IAGOS\server\v18\Source\Source\_Common\honor.cpp
; File C:\Program Files\Microsoft Visual Studio\2022\Professional\VC\Tools\MSVC\14.44.35207\include\xmemory
; File C:\Program Files\Microsoft Visual Studio\2022\Professional\VC\Tools\MSVC\14.44.35207\include\xtree
; File C:\Program Files\Microsoft Visual Studio\2022\Professional\VC\Tools\MSVC\14.44.35207\include\xmemory
; File C:\Program Files\Microsoft Visual Studio\2022\Professional\VC\Tools\MSVC\14.44.35207\include\xtree
; File C:\Program Files\Microsoft Visual Studio\2022\Professional\VC\Tools\MSVC\14.44.35207\include\xmemory
; File C:\Program Files\Microsoft Visual Studio\2022\Professional\VC\Tools\MSVC\14.44.35207\include\xtree
; File C:\Program Files\Microsoft Visual Studio\2022\Professional\VC\Tools\MSVC\14.44.35207\include\xmemory
; File C:\IAGOS\server\v18\Source\Source\_Common\honor.cpp
;	COMDAT ??1CTitleManager@@QAE@XZ
_TEXT	SEGMENT
??1CTitleManager@@QAE@XZ PROC				; CTitleManager::~CTitleManager, COMDAT
; _this$ = ecx

; 24   : {

  00000	56		 push	 esi
  00001	57		 push	 edi
  00002	8b f9		 mov	 edi, ecx
; File C:\Program Files\Microsoft Visual Studio\2022\Professional\VC\Tools\MSVC\14.44.35207\include\xtree

; 777  :         _Erase_tree(_Al, _Myhead->_Parent);

  00004	8b 47 18	 mov	 eax, DWORD PTR [edi+24]
; File C:\IAGOS\server\v18\Source\Source\_Common\honor.cpp

; 26   : }

  00007	8d 77 18	 lea	 esi, DWORD PTR [edi+24]
; File C:\Program Files\Microsoft Visual Studio\2022\Professional\VC\Tools\MSVC\14.44.35207\include\xtree

; 777  :         _Erase_tree(_Al, _Myhead->_Parent);

  0000a	8b ce		 mov	 ecx, esi
  0000c	ff 70 04	 push	 DWORD PTR [eax+4]
  0000f	56		 push	 esi
  00010	e8 00 00 00 00	 call	 ??$_Erase_tree@V?$allocator@U?$_Tree_node@U?$pair@$$CBHUHonorData@@@std@@PAX@std@@@std@@@?$_Tree_val@U?$_Tree_simple_types@U?$pair@$$CBHUHonorData@@@std@@@std@@@std@@QAEXAAV?$allocator@U?$_Tree_node@U?$pair@$$CBHUHonorData@@@std@@PAX@std@@@1@PAU?$_Tree_node@U?$pair@$$CBHUHonorData@@@std@@PAX@1@@Z ; std::_Tree_val<std::_Tree_simple_types<std::pair<int const ,HonorData> > >::_Erase_tree<std::allocator<std::_Tree_node<std::pair<int const ,HonorData>,void *> > >
; File C:\Program Files\Microsoft Visual Studio\2022\Professional\VC\Tools\MSVC\14.44.35207\include\xmemory

; 289  :         ::operator delete(_Ptr, _Bytes);

  00015	6a 2c		 push	 44			; 0000002cH
  00017	ff 36		 push	 DWORD PTR [esi]
  00019	e8 00 00 00 00	 call	 ??3@YAXPAXI@Z		; operator delete
; File C:\Program Files\Microsoft Visual Studio\2022\Professional\VC\Tools\MSVC\14.44.35207\include\xtree

; 777  :         _Erase_tree(_Al, _Myhead->_Parent);

  0001e	8b 47 10	 mov	 eax, DWORD PTR [edi+16]
; File C:\IAGOS\server\v18\Source\Source\_Common\honor.cpp

; 26   : }

  00021	8d 77 10	 lea	 esi, DWORD PTR [edi+16]
; File C:\Program Files\Microsoft Visual Studio\2022\Professional\VC\Tools\MSVC\14.44.35207\include\xmemory

; 289  :         ::operator delete(_Ptr, _Bytes);

  00024	83 c4 08	 add	 esp, 8
; File C:\Program Files\Microsoft Visual Studio\2022\Professional\VC\Tools\MSVC\14.44.35207\include\xtree

; 777  :         _Erase_tree(_Al, _Myhead->_Parent);

  00027	8b ce		 mov	 ecx, esi
  00029	ff 70 04	 push	 DWORD PTR [eax+4]
  0002c	56		 push	 esi
  0002d	e8 00 00 00 00	 call	 ??$_Erase_tree@V?$allocator@U?$_Tree_node@U?$pair@$$CBHUHonorData@@@std@@PAX@std@@@std@@@?$_Tree_val@U?$_Tree_simple_types@U?$pair@$$CBHUHonorData@@@std@@@std@@@std@@QAEXAAV?$allocator@U?$_Tree_node@U?$pair@$$CBHUHonorData@@@std@@PAX@std@@@1@PAU?$_Tree_node@U?$pair@$$CBHUHonorData@@@std@@PAX@1@@Z ; std::_Tree_val<std::_Tree_simple_types<std::pair<int const ,HonorData> > >::_Erase_tree<std::allocator<std::_Tree_node<std::pair<int const ,HonorData>,void *> > >
; File C:\Program Files\Microsoft Visual Studio\2022\Professional\VC\Tools\MSVC\14.44.35207\include\xmemory

; 289  :         ::operator delete(_Ptr, _Bytes);

  00032	6a 2c		 push	 44			; 0000002cH
  00034	ff 36		 push	 DWORD PTR [esi]
  00036	e8 00 00 00 00	 call	 ??3@YAXPAXI@Z		; operator delete
; File C:\Program Files\Microsoft Visual Studio\2022\Professional\VC\Tools\MSVC\14.44.35207\include\xtree

; 777  :         _Erase_tree(_Al, _Myhead->_Parent);

  0003b	8b 47 08	 mov	 eax, DWORD PTR [edi+8]
; File C:\IAGOS\server\v18\Source\Source\_Common\honor.cpp

; 26   : }

  0003e	8d 77 08	 lea	 esi, DWORD PTR [edi+8]
; File C:\Program Files\Microsoft Visual Studio\2022\Professional\VC\Tools\MSVC\14.44.35207\include\xmemory

; 289  :         ::operator delete(_Ptr, _Bytes);

  00041	83 c4 08	 add	 esp, 8
; File C:\Program Files\Microsoft Visual Studio\2022\Professional\VC\Tools\MSVC\14.44.35207\include\xtree

; 777  :         _Erase_tree(_Al, _Myhead->_Parent);

  00044	8b ce		 mov	 ecx, esi
  00046	ff 70 04	 push	 DWORD PTR [eax+4]
  00049	56		 push	 esi
  0004a	e8 00 00 00 00	 call	 ??$_Erase_tree@V?$allocator@U?$_Tree_node@U?$pair@$$CBHUHonorData@@@std@@PAX@std@@@std@@@?$_Tree_val@U?$_Tree_simple_types@U?$pair@$$CBHUHonorData@@@std@@@std@@@std@@QAEXAAV?$allocator@U?$_Tree_node@U?$pair@$$CBHUHonorData@@@std@@PAX@std@@@1@PAU?$_Tree_node@U?$pair@$$CBHUHonorData@@@std@@PAX@1@@Z ; std::_Tree_val<std::_Tree_simple_types<std::pair<int const ,HonorData> > >::_Erase_tree<std::allocator<std::_Tree_node<std::pair<int const ,HonorData>,void *> > >
; File C:\Program Files\Microsoft Visual Studio\2022\Professional\VC\Tools\MSVC\14.44.35207\include\xmemory

; 289  :         ::operator delete(_Ptr, _Bytes);

  0004f	6a 2c		 push	 44			; 0000002cH
  00051	ff 36		 push	 DWORD PTR [esi]
  00053	e8 00 00 00 00	 call	 ??3@YAXPAXI@Z		; operator delete
; File C:\Program Files\Microsoft Visual Studio\2022\Professional\VC\Tools\MSVC\14.44.35207\include\xtree

; 777  :         _Erase_tree(_Al, _Myhead->_Parent);

  00058	8b 07		 mov	 eax, DWORD PTR [edi]
; File C:\Program Files\Microsoft Visual Studio\2022\Professional\VC\Tools\MSVC\14.44.35207\include\xmemory

; 289  :         ::operator delete(_Ptr, _Bytes);

  0005a	83 c4 08	 add	 esp, 8
; File C:\Program Files\Microsoft Visual Studio\2022\Professional\VC\Tools\MSVC\14.44.35207\include\xtree

; 777  :         _Erase_tree(_Al, _Myhead->_Parent);

  0005d	8b cf		 mov	 ecx, edi
  0005f	ff 70 04	 push	 DWORD PTR [eax+4]
  00062	57		 push	 edi
  00063	e8 00 00 00 00	 call	 ??$_Erase_tree@V?$allocator@U?$_Tree_node@U?$pair@$$CBHUHonorData@@@std@@PAX@std@@@std@@@?$_Tree_val@U?$_Tree_simple_types@U?$pair@$$CBHUHonorData@@@std@@@std@@@std@@QAEXAAV?$allocator@U?$_Tree_node@U?$pair@$$CBHUHonorData@@@std@@PAX@std@@@1@PAU?$_Tree_node@U?$pair@$$CBHUHonorData@@@std@@PAX@1@@Z ; std::_Tree_val<std::_Tree_simple_types<std::pair<int const ,HonorData> > >::_Erase_tree<std::allocator<std::_Tree_node<std::pair<int const ,HonorData>,void *> > >
; File C:\Program Files\Microsoft Visual Studio\2022\Professional\VC\Tools\MSVC\14.44.35207\include\xmemory

; 289  :         ::operator delete(_Ptr, _Bytes);

  00068	6a 2c		 push	 44			; 0000002cH
  0006a	ff 37		 push	 DWORD PTR [edi]
  0006c	e8 00 00 00 00	 call	 ??3@YAXPAXI@Z		; operator delete
  00071	83 c4 08	 add	 esp, 8
  00074	5f		 pop	 edi
  00075	5e		 pop	 esi
; File C:\IAGOS\server\v18\Source\Source\_Common\honor.cpp

; 26   : }

  00076	c3		 ret	 0
??1CTitleManager@@QAE@XZ ENDP				; CTitleManager::~CTitleManager
_TEXT	ENDS
; Function compile flags: /Ogtp
; File C:\IAGOS\server\v18\Source\Source\_Common\honor.cpp
; File C:\Program Files\Microsoft Visual Studio\2022\Professional\VC\Tools\MSVC\14.44.35207\include\xmemory
; File C:\Program Files\Microsoft Visual Studio\2022\Professional\VC\Tools\MSVC\14.44.35207\include\xtree
; File C:\Program Files\Microsoft Visual Studio\2022\Professional\VC\Tools\MSVC\14.44.35207\include\xmemory
; File C:\Program Files\Microsoft Visual Studio\2022\Professional\VC\Tools\MSVC\14.44.35207\include\xtree
; File C:\IAGOS\server\v18\Source\Source\_Common\honor.cpp
; File C:\Program Files\Microsoft Visual Studio\2022\Professional\VC\Tools\MSVC\14.44.35207\include\xmemory
; File C:\IAGOS\server\v18\Source\Source\_Common\honor.cpp
; File C:\Program Files\Microsoft Visual Studio\2022\Professional\VC\Tools\MSVC\14.44.35207\include\xtree
; File C:\Program Files\Microsoft Visual Studio\2022\Professional\VC\Tools\MSVC\14.44.35207\include\xmemory
; File C:\Program Files\Microsoft Visual Studio\2022\Professional\VC\Tools\MSVC\14.44.35207\include\xtree
; File C:\IAGOS\server\v18\Source\Source\_Common\honor.cpp
; File C:\Program Files\Microsoft Visual Studio\2022\Professional\VC\Tools\MSVC\14.44.35207\include\xmemory
; File C:\IAGOS\server\v18\Source\Source\_Common\honor.cpp
; File C:\Program Files\Microsoft Visual Studio\2022\Professional\VC\Tools\MSVC\14.44.35207\include\xtree
; File C:\Program Files\Microsoft Visual Studio\2022\Professional\VC\Tools\MSVC\14.44.35207\include\xmemory
; File C:\Program Files\Microsoft Visual Studio\2022\Professional\VC\Tools\MSVC\14.44.35207\include\xtree
; File C:\IAGOS\server\v18\Source\Source\_Common\honor.cpp
; File C:\Program Files\Microsoft Visual Studio\2022\Professional\VC\Tools\MSVC\14.44.35207\include\xmemory
; File C:\IAGOS\server\v18\Source\Source\_Common\honor.cpp
; File C:\Program Files\Microsoft Visual Studio\2022\Professional\VC\Tools\MSVC\14.44.35207\include\xtree
; File C:\Program Files\Microsoft Visual Studio\2022\Professional\VC\Tools\MSVC\14.44.35207\include\xmemory
; File C:\Program Files\Microsoft Visual Studio\2022\Professional\VC\Tools\MSVC\14.44.35207\include\xtree
; File C:\IAGOS\server\v18\Source\Source\_Common\honor.cpp
; File C:\Program Files\Microsoft Visual Studio\2022\Professional\VC\Tools\MSVC\14.44.35207\include\xtree
; File C:\IAGOS\server\v18\Source\Source\_Common\honor.cpp
;	COMDAT ??0CTitleManager@@QAE@XZ
_TEXT	SEGMENT
_this$ = -20						; size = 4
_this$ = -20						; size = 4
_this$ = -20						; size = 4
_this$ = -16						; size = 4
__$EHRec$ = -12						; size = 12
??0CTitleManager@@QAE@XZ PROC				; CTitleManager::CTitleManager, COMDAT
; _this$ = ecx

; 11   : {

  00000	55		 push	 ebp
  00001	8b ec		 mov	 ebp, esp
  00003	6a ff		 push	 -1
  00005	68 00 00 00 00	 push	 __ehhandler$??0CTitleManager@@QAE@XZ
  0000a	64 a1 00 00 00
	00		 mov	 eax, DWORD PTR fs:0
  00010	50		 push	 eax
  00011	83 ec 08	 sub	 esp, 8
  00014	53		 push	 ebx
  00015	56		 push	 esi
  00016	57		 push	 edi
  00017	a1 00 00 00 00	 mov	 eax, DWORD PTR ___security_cookie
  0001c	33 c5		 xor	 eax, ebp
  0001e	50		 push	 eax
  0001f	8d 45 f4	 lea	 eax, DWORD PTR __$EHRec$[ebp]
  00022	64 a3 00 00 00
	00		 mov	 DWORD PTR fs:0, eax
  00028	8b f1		 mov	 esi, ecx
  0002a	89 75 f0	 mov	 DWORD PTR _this$[ebp], esi
; File C:\Program Files\Microsoft Visual Studio\2022\Professional\VC\Tools\MSVC\14.44.35207\include\xmemory

; 136  :         return ::operator new(_Bytes);

  0002d	6a 2c		 push	 44			; 0000002cH
; File C:\Program Files\Microsoft Visual Studio\2022\Professional\VC\Tools\MSVC\14.44.35207\include\xtree

; 450  :     _Tree_val() noexcept : _Myhead(), _Mysize(0) {}

  0002f	c7 06 00 00 00
	00		 mov	 DWORD PTR [esi], 0
  00035	c7 46 04 00 00
	00 00		 mov	 DWORD PTR [esi+4], 0
; File C:\Program Files\Microsoft Visual Studio\2022\Professional\VC\Tools\MSVC\14.44.35207\include\xmemory

; 136  :         return ::operator new(_Bytes);

  0003c	e8 00 00 00 00	 call	 ??2@YAPAXI@Z		; operator new
; File C:\Program Files\Microsoft Visual Studio\2022\Professional\VC\Tools\MSVC\14.44.35207\include\xtree

; 346  :         _Construct_in_place(_Pnode->_Left, _Pnode);

  00041	89 00		 mov	 DWORD PTR [eax], eax

; 347  :         _Construct_in_place(_Pnode->_Parent, _Pnode);

  00043	89 40 04	 mov	 DWORD PTR [eax+4], eax

; 348  :         _Construct_in_place(_Pnode->_Right, _Pnode);

  00046	89 40 08	 mov	 DWORD PTR [eax+8], eax

; 349  :         _Pnode->_Color = _Black;

  00049	66 c7 40 0c 01
	01		 mov	 WORD PTR [eax+12], 257	; 00000101H

; 1957 :         _Scary->_Myhead = _Node::_Buyheadnode(_Getal());

  0004f	89 06		 mov	 DWORD PTR [esi], eax
; File C:\IAGOS\server\v18\Source\Source\_Common\honor.cpp

; 11   : {

  00051	8d 5e 08	 lea	 ebx, DWORD PTR [esi+8]
  00054	c7 45 fc 00 00
	00 00		 mov	 DWORD PTR __$EHRec$[ebp+8], 0
; File C:\Program Files\Microsoft Visual Studio\2022\Professional\VC\Tools\MSVC\14.44.35207\include\xmemory

; 136  :         return ::operator new(_Bytes);

  0005b	6a 2c		 push	 44			; 0000002cH
; File C:\IAGOS\server\v18\Source\Source\_Common\honor.cpp

; 11   : {

  0005d	89 5d ec	 mov	 DWORD PTR _this$[ebp], ebx
; File C:\Program Files\Microsoft Visual Studio\2022\Professional\VC\Tools\MSVC\14.44.35207\include\xtree

; 450  :     _Tree_val() noexcept : _Myhead(), _Mysize(0) {}

  00060	c7 03 00 00 00
	00		 mov	 DWORD PTR [ebx], 0
  00066	c7 43 04 00 00
	00 00		 mov	 DWORD PTR [ebx+4], 0
; File C:\Program Files\Microsoft Visual Studio\2022\Professional\VC\Tools\MSVC\14.44.35207\include\xmemory

; 136  :         return ::operator new(_Bytes);

  0006d	e8 00 00 00 00	 call	 ??2@YAPAXI@Z		; operator new
; File C:\Program Files\Microsoft Visual Studio\2022\Professional\VC\Tools\MSVC\14.44.35207\include\xtree

; 346  :         _Construct_in_place(_Pnode->_Left, _Pnode);

  00072	89 00		 mov	 DWORD PTR [eax], eax

; 347  :         _Construct_in_place(_Pnode->_Parent, _Pnode);

  00074	89 40 04	 mov	 DWORD PTR [eax+4], eax

; 348  :         _Construct_in_place(_Pnode->_Right, _Pnode);

  00077	89 40 08	 mov	 DWORD PTR [eax+8], eax

; 349  :         _Pnode->_Color = _Black;

  0007a	66 c7 40 0c 01
	01		 mov	 WORD PTR [eax+12], 257	; 00000101H

; 1957 :         _Scary->_Myhead = _Node::_Buyheadnode(_Getal());

  00080	89 03		 mov	 DWORD PTR [ebx], eax
; File C:\IAGOS\server\v18\Source\Source\_Common\honor.cpp

; 11   : {

  00082	8d 5e 10	 lea	 ebx, DWORD PTR [esi+16]
  00085	c6 45 fc 01	 mov	 BYTE PTR __$EHRec$[ebp+8], 1
; File C:\Program Files\Microsoft Visual Studio\2022\Professional\VC\Tools\MSVC\14.44.35207\include\xmemory

; 136  :         return ::operator new(_Bytes);

  00089	6a 2c		 push	 44			; 0000002cH
; File C:\IAGOS\server\v18\Source\Source\_Common\honor.cpp

; 11   : {

  0008b	89 5d ec	 mov	 DWORD PTR _this$[ebp], ebx
; File C:\Program Files\Microsoft Visual Studio\2022\Professional\VC\Tools\MSVC\14.44.35207\include\xtree

; 450  :     _Tree_val() noexcept : _Myhead(), _Mysize(0) {}

  0008e	c7 03 00 00 00
	00		 mov	 DWORD PTR [ebx], 0
  00094	c7 43 04 00 00
	00 00		 mov	 DWORD PTR [ebx+4], 0
; File C:\Program Files\Microsoft Visual Studio\2022\Professional\VC\Tools\MSVC\14.44.35207\include\xmemory

; 136  :         return ::operator new(_Bytes);

  0009b	e8 00 00 00 00	 call	 ??2@YAPAXI@Z		; operator new
; File C:\Program Files\Microsoft Visual Studio\2022\Professional\VC\Tools\MSVC\14.44.35207\include\xtree

; 346  :         _Construct_in_place(_Pnode->_Left, _Pnode);

  000a0	89 00		 mov	 DWORD PTR [eax], eax

; 347  :         _Construct_in_place(_Pnode->_Parent, _Pnode);

  000a2	89 40 04	 mov	 DWORD PTR [eax+4], eax

; 348  :         _Construct_in_place(_Pnode->_Right, _Pnode);

  000a5	89 40 08	 mov	 DWORD PTR [eax+8], eax

; 349  :         _Pnode->_Color = _Black;

  000a8	66 c7 40 0c 01
	01		 mov	 WORD PTR [eax+12], 257	; 00000101H

; 1957 :         _Scary->_Myhead = _Node::_Buyheadnode(_Getal());

  000ae	89 03		 mov	 DWORD PTR [ebx], eax
; File C:\IAGOS\server\v18\Source\Source\_Common\honor.cpp

; 11   : {

  000b0	8d 7e 18	 lea	 edi, DWORD PTR [esi+24]
  000b3	c6 45 fc 02	 mov	 BYTE PTR __$EHRec$[ebp+8], 2
; File C:\Program Files\Microsoft Visual Studio\2022\Professional\VC\Tools\MSVC\14.44.35207\include\xmemory

; 136  :         return ::operator new(_Bytes);

  000b7	6a 2c		 push	 44			; 0000002cH
; File C:\IAGOS\server\v18\Source\Source\_Common\honor.cpp

; 11   : {

  000b9	89 7d ec	 mov	 DWORD PTR _this$[ebp], edi
; File C:\Program Files\Microsoft Visual Studio\2022\Professional\VC\Tools\MSVC\14.44.35207\include\xtree

; 450  :     _Tree_val() noexcept : _Myhead(), _Mysize(0) {}

  000bc	c7 07 00 00 00
	00		 mov	 DWORD PTR [edi], 0
  000c2	c7 47 04 00 00
	00 00		 mov	 DWORD PTR [edi+4], 0
; File C:\Program Files\Microsoft Visual Studio\2022\Professional\VC\Tools\MSVC\14.44.35207\include\xmemory

; 136  :         return ::operator new(_Bytes);

  000c9	e8 00 00 00 00	 call	 ??2@YAPAXI@Z		; operator new
  000ce	83 c4 10	 add	 esp, 16			; 00000010H
; File C:\Program Files\Microsoft Visual Studio\2022\Professional\VC\Tools\MSVC\14.44.35207\include\xtree

; 346  :         _Construct_in_place(_Pnode->_Left, _Pnode);

  000d1	89 00		 mov	 DWORD PTR [eax], eax

; 347  :         _Construct_in_place(_Pnode->_Parent, _Pnode);

  000d3	89 40 04	 mov	 DWORD PTR [eax+4], eax

; 348  :         _Construct_in_place(_Pnode->_Right, _Pnode);

  000d6	89 40 08	 mov	 DWORD PTR [eax+8], eax

; 349  :         _Pnode->_Color = _Black;

  000d9	66 c7 40 0c 01
	01		 mov	 WORD PTR [eax+12], 257	; 00000101H

; 1957 :         _Scary->_Myhead = _Node::_Buyheadnode(_Getal());

  000df	89 07		 mov	 DWORD PTR [edi], eax

; 1373 :         auto _Head = _Scary->_Myhead;

  000e1	8b 36		 mov	 esi, DWORD PTR [esi]

; 1374 :         _Scary->_Erase_tree(_Getal(), _Head->_Parent);

  000e3	8b 45 f0	 mov	 eax, DWORD PTR _this$[ebp]
  000e6	8b c8		 mov	 ecx, eax
  000e8	ff 76 04	 push	 DWORD PTR [esi+4]
  000eb	50		 push	 eax
  000ec	e8 00 00 00 00	 call	 ??$_Erase_tree@V?$allocator@U?$_Tree_node@U?$pair@$$CBHUHonorData@@@std@@PAX@std@@@std@@@?$_Tree_val@U?$_Tree_simple_types@U?$pair@$$CBHUHonorData@@@std@@@std@@@std@@QAEXAAV?$allocator@U?$_Tree_node@U?$pair@$$CBHUHonorData@@@std@@PAX@std@@@1@PAU?$_Tree_node@U?$pair@$$CBHUHonorData@@@std@@PAX@1@@Z ; std::_Tree_val<std::_Tree_simple_types<std::pair<int const ,HonorData> > >::_Erase_tree<std::allocator<std::_Tree_node<std::pair<int const ,HonorData>,void *> > >

; 1378 :         _Scary->_Mysize = 0;

  000f1	8b 4d f0	 mov	 ecx, DWORD PTR _this$[ebp]
  000f4	89 76 04	 mov	 DWORD PTR [esi+4], esi

; 1373 :         auto _Head = _Scary->_Myhead;

  000f7	8d 41 08	 lea	 eax, DWORD PTR [ecx+8]

; 1376 :         _Head->_Left    = _Head;

  000fa	89 36		 mov	 DWORD PTR [esi], esi

; 1377 :         _Head->_Right   = _Head;

  000fc	89 76 08	 mov	 DWORD PTR [esi+8], esi

; 1378 :         _Scary->_Mysize = 0;

  000ff	c7 41 04 00 00
	00 00		 mov	 DWORD PTR [ecx+4], 0

; 1374 :         _Scary->_Erase_tree(_Getal(), _Head->_Parent);

  00106	8b c8		 mov	 ecx, eax
  00108	8b 30		 mov	 esi, DWORD PTR [eax]
  0010a	ff 76 04	 push	 DWORD PTR [esi+4]
  0010d	50		 push	 eax
  0010e	e8 00 00 00 00	 call	 ??$_Erase_tree@V?$allocator@U?$_Tree_node@U?$pair@$$CBHUHonorData@@@std@@PAX@std@@@std@@@?$_Tree_val@U?$_Tree_simple_types@U?$pair@$$CBHUHonorData@@@std@@@std@@@std@@QAEXAAV?$allocator@U?$_Tree_node@U?$pair@$$CBHUHonorData@@@std@@PAX@std@@@1@PAU?$_Tree_node@U?$pair@$$CBHUHonorData@@@std@@PAX@1@@Z ; std::_Tree_val<std::_Tree_simple_types<std::pair<int const ,HonorData> > >::_Erase_tree<std::allocator<std::_Tree_node<std::pair<int const ,HonorData>,void *> > >

; 1378 :         _Scary->_Mysize = 0;

  00113	8b 45 f0	 mov	 eax, DWORD PTR _this$[ebp]

; 1374 :         _Scary->_Erase_tree(_Getal(), _Head->_Parent);

  00116	8b cb		 mov	 ecx, ebx

; 1375 :         _Head->_Parent  = _Head;

  00118	89 76 04	 mov	 DWORD PTR [esi+4], esi

; 1376 :         _Head->_Left    = _Head;

  0011b	89 36		 mov	 DWORD PTR [esi], esi

; 1377 :         _Head->_Right   = _Head;

  0011d	89 76 08	 mov	 DWORD PTR [esi+8], esi

; 1378 :         _Scary->_Mysize = 0;

  00120	c7 40 0c 00 00
	00 00		 mov	 DWORD PTR [eax+12], 0

; 1373 :         auto _Head = _Scary->_Myhead;

  00127	8b 33		 mov	 esi, DWORD PTR [ebx]

; 1374 :         _Scary->_Erase_tree(_Getal(), _Head->_Parent);

  00129	ff 76 04	 push	 DWORD PTR [esi+4]
  0012c	53		 push	 ebx
  0012d	e8 00 00 00 00	 call	 ??$_Erase_tree@V?$allocator@U?$_Tree_node@U?$pair@$$CBHUHonorData@@@std@@PAX@std@@@std@@@?$_Tree_val@U?$_Tree_simple_types@U?$pair@$$CBHUHonorData@@@std@@@std@@@std@@QAEXAAV?$allocator@U?$_Tree_node@U?$pair@$$CBHUHonorData@@@std@@PAX@std@@@1@PAU?$_Tree_node@U?$pair@$$CBHUHonorData@@@std@@PAX@1@@Z ; std::_Tree_val<std::_Tree_simple_types<std::pair<int const ,HonorData> > >::_Erase_tree<std::allocator<std::_Tree_node<std::pair<int const ,HonorData>,void *> > >

; 1375 :         _Head->_Parent  = _Head;

  00132	89 76 04	 mov	 DWORD PTR [esi+4], esi

; 1376 :         _Head->_Left    = _Head;

  00135	89 36		 mov	 DWORD PTR [esi], esi

; 1377 :         _Head->_Right   = _Head;

  00137	89 76 08	 mov	 DWORD PTR [esi+8], esi

; 1378 :         _Scary->_Mysize = 0;

  0013a	c7 43 04 00 00
	00 00		 mov	 DWORD PTR [ebx+4], 0

; 1373 :         auto _Head = _Scary->_Myhead;

  00141	8b 37		 mov	 esi, DWORD PTR [edi]

; 1374 :         _Scary->_Erase_tree(_Getal(), _Head->_Parent);

  00143	ff 76 04	 push	 DWORD PTR [esi+4]
  00146	8b cf		 mov	 ecx, edi
  00148	57		 push	 edi
  00149	e8 00 00 00 00	 call	 ??$_Erase_tree@V?$allocator@U?$_Tree_node@U?$pair@$$CBHUHonorData@@@std@@PAX@std@@@std@@@?$_Tree_val@U?$_Tree_simple_types@U?$pair@$$CBHUHonorData@@@std@@@std@@@std@@QAEXAAV?$allocator@U?$_Tree_node@U?$pair@$$CBHUHonorData@@@std@@PAX@std@@@1@PAU?$_Tree_node@U?$pair@$$CBHUHonorData@@@std@@PAX@1@@Z ; std::_Tree_val<std::_Tree_simple_types<std::pair<int const ,HonorData> > >::_Erase_tree<std::allocator<std::_Tree_node<std::pair<int const ,HonorData>,void *> > >
; File C:\IAGOS\server\v18\Source\Source\_Common\honor.cpp

; 16   : 	m_nCurrentTitleCount = 0;

  0014e	8b 45 f0	 mov	 eax, DWORD PTR _this$[ebp]
; File C:\Program Files\Microsoft Visual Studio\2022\Professional\VC\Tools\MSVC\14.44.35207\include\xtree

; 1375 :         _Head->_Parent  = _Head;

  00151	89 76 04	 mov	 DWORD PTR [esi+4], esi

; 1376 :         _Head->_Left    = _Head;

  00154	89 36		 mov	 DWORD PTR [esi], esi

; 1377 :         _Head->_Right   = _Head;

  00156	89 76 08	 mov	 DWORD PTR [esi+8], esi

; 1378 :         _Scary->_Mysize = 0;

  00159	c7 47 04 00 00
	00 00		 mov	 DWORD PTR [edi+4], 0
; File C:\IAGOS\server\v18\Source\Source\_Common\honor.cpp

; 16   : 	m_nCurrentTitleCount = 0;

  00160	c7 40 20 00 00
	00 00		 mov	 DWORD PTR [eax+32], 0

; 17   : #ifdef __CLIENT
; 18   : 	m_vecEarned.clear();
; 19   : #endif	// __CLIENT
; 20   : }

  00167	8b 4d f4	 mov	 ecx, DWORD PTR __$EHRec$[ebp]
  0016a	64 89 0d 00 00
	00 00		 mov	 DWORD PTR fs:0, ecx
  00171	59		 pop	 ecx
  00172	5f		 pop	 edi
  00173	5e		 pop	 esi
  00174	5b		 pop	 ebx
  00175	8b e5		 mov	 esp, ebp
  00177	5d		 pop	 ebp
  00178	c3		 ret	 0
_TEXT	ENDS
;	COMDAT text$x
text$x	SEGMENT
__unwindfunclet$??0CTitleManager@@QAE@XZ$0:
  00000	8b 4d f0	 mov	 ecx, DWORD PTR _this$[ebp]
  00003	e9 00 00 00 00	 jmp	 ??1?$map@HUHonorData@@U?$less@H@std@@V?$allocator@U?$pair@$$CBHUHonorData@@@std@@@3@@std@@QAE@XZ
__unwindfunclet$??0CTitleManager@@QAE@XZ$1:
  00008	8b 4d f0	 mov	 ecx, DWORD PTR _this$[ebp]
  0000b	83 c1 08	 add	 ecx, 8
  0000e	e9 00 00 00 00	 jmp	 ??1?$map@HUHonorData@@U?$less@H@std@@V?$allocator@U?$pair@$$CBHUHonorData@@@std@@@3@@std@@QAE@XZ
__unwindfunclet$??0CTitleManager@@QAE@XZ$2:
  00013	8b 4d f0	 mov	 ecx, DWORD PTR _this$[ebp]
  00016	83 c1 10	 add	 ecx, 16			; 00000010H
  00019	e9 00 00 00 00	 jmp	 ??1?$map@HUHonorData@@U?$less@H@std@@V?$allocator@U?$pair@$$CBHUHonorData@@@std@@@3@@std@@QAE@XZ
  0001e	cc		 int	 3
  0001f	cc		 int	 3
  00020	cc		 int	 3
  00021	cc		 int	 3
  00022	cc		 int	 3
__ehhandler$??0CTitleManager@@QAE@XZ:
  00023	90		 npad	 1
  00024	90		 npad	 1
  00025	8b 54 24 08	 mov	 edx, DWORD PTR [esp+8]
  00029	8d 42 0c	 lea	 eax, DWORD PTR [edx+12]
  0002c	8b 4a e8	 mov	 ecx, DWORD PTR [edx-24]
  0002f	33 c8		 xor	 ecx, eax
  00031	e8 00 00 00 00	 call	 @__security_check_cookie@4
  00036	b8 00 00 00 00	 mov	 eax, OFFSET __ehfuncinfo$??0CTitleManager@@QAE@XZ
  0003b	e9 00 00 00 00	 jmp	 ___CxxFrameHandler3
text$x	ENDS
??0CTitleManager@@QAE@XZ ENDP				; CTitleManager::CTitleManager
; Function compile flags: /Ogtp
; File C:\Program Files\Microsoft Visual Studio\2022\Professional\VC\Tools\MSVC\14.44.35207\include\xtree
; File C:\Program Files\Microsoft Visual Studio\2022\Professional\VC\Tools\MSVC\14.44.35207\include\xmemory
;	COMDAT ??1?$map@HUHonorData@@U?$less@H@std@@V?$allocator@U?$pair@$$CBHUHonorData@@@std@@@3@@std@@QAE@XZ
_TEXT	SEGMENT
??1?$map@HUHonorData@@U?$less@H@std@@V?$allocator@U?$pair@$$CBHUHonorData@@@std@@@3@@std@@QAE@XZ PROC ; std::map<int,HonorData,std::less<int>,std::allocator<std::pair<int const ,HonorData> > >::~map<int,HonorData,std::less<int>,std::allocator<std::pair<int const ,HonorData> > >, COMDAT
; _this$ = ecx
; File C:\Program Files\Microsoft Visual Studio\2022\Professional\VC\Tools\MSVC\14.44.35207\include\xtree

; 777  :         _Erase_tree(_Al, _Myhead->_Parent);

  00000	56		 push	 esi
  00001	8b f1		 mov	 esi, ecx
  00003	8b 06		 mov	 eax, DWORD PTR [esi]
  00005	ff 70 04	 push	 DWORD PTR [eax+4]
  00008	56		 push	 esi
  00009	e8 00 00 00 00	 call	 ??$_Erase_tree@V?$allocator@U?$_Tree_node@U?$pair@$$CBHUHonorData@@@std@@PAX@std@@@std@@@?$_Tree_val@U?$_Tree_simple_types@U?$pair@$$CBHUHonorData@@@std@@@std@@@std@@QAEXAAV?$allocator@U?$_Tree_node@U?$pair@$$CBHUHonorData@@@std@@PAX@std@@@1@PAU?$_Tree_node@U?$pair@$$CBHUHonorData@@@std@@PAX@1@@Z ; std::_Tree_val<std::_Tree_simple_types<std::pair<int const ,HonorData> > >::_Erase_tree<std::allocator<std::_Tree_node<std::pair<int const ,HonorData>,void *> > >
; File C:\Program Files\Microsoft Visual Studio\2022\Professional\VC\Tools\MSVC\14.44.35207\include\xmemory

; 289  :         ::operator delete(_Ptr, _Bytes);

  0000e	6a 2c		 push	 44			; 0000002cH
  00010	ff 36		 push	 DWORD PTR [esi]
  00012	e8 00 00 00 00	 call	 ??3@YAXPAXI@Z		; operator delete
  00017	83 c4 08	 add	 esp, 8
  0001a	5e		 pop	 esi
  0001b	c3		 ret	 0
??1?$map@HUHonorData@@U?$less@H@std@@V?$allocator@U?$pair@$$CBHUHonorData@@@std@@@3@@std@@QAE@XZ ENDP ; std::map<int,HonorData,std::less<int>,std::allocator<std::pair<int const ,HonorData> > >::~map<int,HonorData,std::less<int>,std::allocator<std::pair<int const ,HonorData> > >
_TEXT	ENDS
; Function compile flags: /Ogtp
; File C:\Program Files\Microsoft Visual Studio\2022\Professional\VC\Tools\MSVC\14.44.35207\include\xtree
;	COMDAT ?_Insert_node@?$_Tree_val@U?$_Tree_simple_types@U?$pair@$$CBHUHonorData@@@std@@@std@@@std@@QAEPAU?$_Tree_node@U?$pair@$$CBHUHonorData@@@std@@PAX@2@U?$_Tree_id@PAU?$_Tree_node@U?$pair@$$CBHUHonorData@@@std@@PAX@std@@@2@QAU32@@Z
_TEXT	SEGMENT
__Head$1$ = -4						; size = 4
__Loc$ = 8						; size = 8
__Newnode$ = 16						; size = 4
?_Insert_node@?$_Tree_val@U?$_Tree_simple_types@U?$pair@$$CBHUHonorData@@@std@@@std@@@std@@QAEPAU?$_Tree_node@U?$pair@$$CBHUHonorData@@@std@@PAX@2@U?$_Tree_id@PAU?$_Tree_node@U?$pair@$$CBHUHonorData@@@std@@PAX@std@@@2@QAU32@@Z PROC ; std::_Tree_val<std::_Tree_simple_types<std::pair<int const ,HonorData> > >::_Insert_node, COMDAT
; _this$ = ecx

; 669  :     _Nodeptr _Insert_node(const _Tree_id<_Nodeptr> _Loc, const _Nodeptr _Newnode) noexcept {

  00000	55		 push	 ebp
  00001	8b ec		 mov	 ebp, esp
  00003	51		 push	 ecx

; 670  :         ++_Mysize;
; 671  :         const auto _Head  = _Myhead;
; 672  :         _Newnode->_Parent = _Loc._Parent;

  00004	8b 55 08	 mov	 edx, DWORD PTR __Loc$[ebp]
  00007	53		 push	 ebx
  00008	8b d9		 mov	 ebx, ecx
  0000a	57		 push	 edi
  0000b	8b 7d 10	 mov	 edi, DWORD PTR __Newnode$[ebp]
  0000e	8b 03		 mov	 eax, DWORD PTR [ebx]
  00010	ff 43 04	 inc	 DWORD PTR [ebx+4]
  00013	89 45 fc	 mov	 DWORD PTR __Head$1$[ebp], eax
  00016	89 57 04	 mov	 DWORD PTR [edi+4], edx

; 673  :         if (_Loc._Parent == _Head) { // first node in tree, just set head values

  00019	3b d0		 cmp	 edx, eax
  0001b	75 16		 jne	 SHORT $LN5@Insert_nod

; 674  :             _Head->_Left     = _Newnode;

  0001d	89 38		 mov	 DWORD PTR [eax], edi

; 675  :             _Head->_Parent   = _Newnode;

  0001f	89 78 04	 mov	 DWORD PTR [eax+4], edi

; 676  :             _Head->_Right    = _Newnode;

  00022	89 78 08	 mov	 DWORD PTR [eax+8], edi

; 735  :         return _Newnode;
; 736  :     }

  00025	8b c7		 mov	 eax, edi
  00027	c6 47 0c 01	 mov	 BYTE PTR [edi+12], 1
  0002b	5f		 pop	 edi
  0002c	5b		 pop	 ebx
  0002d	8b e5		 mov	 esp, ebp
  0002f	5d		 pop	 ebp
  00030	c2 0c 00	 ret	 12			; 0000000cH
$LN5@Insert_nod:

; 677  :             _Newnode->_Color = _Black; // the root is black
; 678  :             return _Newnode;
; 679  :         }
; 680  : 
; 681  :         _STL_INTERNAL_CHECK(_Loc._Child != _Tree_child::_Unused);
; 682  :         if (_Loc._Child == _Tree_child::_Right) { // add to right of _Loc._Parent

  00033	83 7d 0c 00	 cmp	 DWORD PTR __Loc$[ebp+4], 0
  00037	75 0d		 jne	 SHORT $LN6@Insert_nod

; 683  :             _STL_INTERNAL_CHECK(_Loc._Parent->_Right->_Isnil);
; 684  :             _Loc._Parent->_Right = _Newnode;

  00039	89 7a 08	 mov	 DWORD PTR [edx+8], edi

; 685  :             if (_Loc._Parent == _Head->_Right) { // remember rightmost node

  0003c	3b 50 08	 cmp	 edx, DWORD PTR [eax+8]
  0003f	75 0d		 jne	 SHORT $LN9@Insert_nod

; 686  :                 _Head->_Right = _Newnode;

  00041	89 78 08	 mov	 DWORD PTR [eax+8], edi

; 687  :             }
; 688  :         } else { // add to left of _Loc._Parent

  00044	eb 08		 jmp	 SHORT $LN9@Insert_nod
$LN6@Insert_nod:

; 689  :             _STL_INTERNAL_CHECK(_Loc._Parent->_Left->_Isnil);
; 690  :             _Loc._Parent->_Left = _Newnode;

  00046	89 3a		 mov	 DWORD PTR [edx], edi

; 691  :             if (_Loc._Parent == _Head->_Left) { // remember leftmost node

  00048	3b 10		 cmp	 edx, DWORD PTR [eax]
  0004a	75 02		 jne	 SHORT $LN9@Insert_nod

; 692  :                 _Head->_Left = _Newnode;

  0004c	89 38		 mov	 DWORD PTR [eax], edi
$LN9@Insert_nod:

; 693  :             }
; 694  :         }
; 695  : 
; 696  :         for (_Nodeptr _Pnode = _Newnode; _Pnode->_Parent->_Color == _Red;) {

  0004e	8b 4f 04	 mov	 ecx, DWORD PTR [edi+4]
  00051	8b c7		 mov	 eax, edi
  00053	80 79 0c 00	 cmp	 BYTE PTR [ecx+12], 0
  00057	0f 85 7d 01 00
	00		 jne	 $LN3@Insert_nod
  0005d	56		 push	 esi
  0005e	66 90		 npad	 2
$LL4@Insert_nod:

; 697  :             if (_Pnode->_Parent == _Pnode->_Parent->_Parent->_Left) { // fixup red-red in left subtree

  00060	8b 50 04	 mov	 edx, DWORD PTR [eax+4]
  00063	8b 72 04	 mov	 esi, DWORD PTR [edx+4]
  00066	8b 0e		 mov	 ecx, DWORD PTR [esi]
  00068	3b d1		 cmp	 edx, ecx
  0006a	0f 85 aa 00 00
	00		 jne	 $LN10@Insert_nod

; 698  :                 const auto _Parent_sibling = _Pnode->_Parent->_Parent->_Right;

  00070	8b 4e 08	 mov	 ecx, DWORD PTR [esi+8]

; 699  :                 if (_Parent_sibling->_Color == _Red) { // parent's sibling has two red children, blacken both

  00073	80 79 0c 00	 cmp	 BYTE PTR [ecx+12], 0
  00077	0f 84 a3 00 00
	00		 je	 $LN82@Insert_nod

; 700  :                     _Pnode->_Parent->_Color          = _Black;
; 701  :                     _Parent_sibling->_Color          = _Black;
; 702  :                     _Pnode->_Parent->_Parent->_Color = _Red;
; 703  :                     _Pnode                           = _Pnode->_Parent->_Parent;
; 704  :                 } else { // parent's sibling has red and black children
; 705  :                     if (_Pnode == _Pnode->_Parent->_Right) { // rotate right child to left

  0007d	8b 72 08	 mov	 esi, DWORD PTR [edx+8]
  00080	3b c6		 cmp	 eax, esi
  00082	75 37		 jne	 SHORT $LN57@Insert_nod

; 485  :         _Wherenode->_Right = _Pnode->_Left;

  00084	8b 0e		 mov	 ecx, DWORD PTR [esi]

; 706  :                         _Pnode = _Pnode->_Parent;

  00086	8b c2		 mov	 eax, edx

; 485  :         _Wherenode->_Right = _Pnode->_Left;

  00088	89 4a 08	 mov	 DWORD PTR [edx+8], ecx

; 486  : 
; 487  :         if (!_Pnode->_Left->_Isnil) {

  0008b	8b 0e		 mov	 ecx, DWORD PTR [esi]
  0008d	80 79 0d 00	 cmp	 BYTE PTR [ecx+13], 0
  00091	75 03		 jne	 SHORT $LN21@Insert_nod

; 488  :             _Pnode->_Left->_Parent = _Wherenode;

  00093	89 41 04	 mov	 DWORD PTR [ecx+4], eax
$LN21@Insert_nod:

; 489  :         }
; 490  : 
; 491  :         _Pnode->_Parent = _Wherenode->_Parent;

  00096	8b 4a 04	 mov	 ecx, DWORD PTR [edx+4]
  00099	89 4e 04	 mov	 DWORD PTR [esi+4], ecx

; 492  : 
; 493  :         if (_Wherenode == _Myhead->_Parent) {

  0009c	8b 0b		 mov	 ecx, DWORD PTR [ebx]
  0009e	3b 41 04	 cmp	 eax, DWORD PTR [ecx+4]
  000a1	75 05		 jne	 SHORT $LN22@Insert_nod

; 494  :             _Myhead->_Parent = _Pnode;

  000a3	89 71 04	 mov	 DWORD PTR [ecx+4], esi
  000a6	eb 0e		 jmp	 SHORT $LN25@Insert_nod
$LN22@Insert_nod:

; 495  :         } else if (_Wherenode == _Wherenode->_Parent->_Left) {

  000a8	8b 4a 04	 mov	 ecx, DWORD PTR [edx+4]
  000ab	3b 01		 cmp	 eax, DWORD PTR [ecx]
  000ad	75 04		 jne	 SHORT $LN24@Insert_nod

; 496  :             _Wherenode->_Parent->_Left = _Pnode;

  000af	89 31		 mov	 DWORD PTR [ecx], esi

; 497  :         } else {

  000b1	eb 03		 jmp	 SHORT $LN25@Insert_nod
$LN24@Insert_nod:

; 498  :             _Wherenode->_Parent->_Right = _Pnode;

  000b3	89 71 08	 mov	 DWORD PTR [ecx+8], esi
$LN25@Insert_nod:

; 499  :         }
; 500  : 
; 501  :         _Pnode->_Left       = _Wherenode;

  000b6	89 06		 mov	 DWORD PTR [esi], eax

; 502  :         _Wherenode->_Parent = _Pnode;

  000b8	89 70 04	 mov	 DWORD PTR [eax+4], esi
$LN57@Insert_nod:

; 707  :                         _Lrotate(_Pnode);
; 708  :                     }
; 709  : 
; 710  :                     _Pnode->_Parent->_Color          = _Black; // propagate red up

  000bb	8b 48 04	 mov	 ecx, DWORD PTR [eax+4]
  000be	c6 41 0c 01	 mov	 BYTE PTR [ecx+12], 1

; 711  :                     _Pnode->_Parent->_Parent->_Color = _Red;

  000c2	8b 48 04	 mov	 ecx, DWORD PTR [eax+4]
  000c5	8b 49 04	 mov	 ecx, DWORD PTR [ecx+4]
  000c8	c6 41 0c 00	 mov	 BYTE PTR [ecx+12], 0

; 712  :                     _Rrotate(_Pnode->_Parent->_Parent);

  000cc	8b 48 04	 mov	 ecx, DWORD PTR [eax+4]
  000cf	8b 51 04	 mov	 edx, DWORD PTR [ecx+4]

; 506  :         _Nodeptr _Pnode   = _Wherenode->_Left;

  000d2	8b 32		 mov	 esi, DWORD PTR [edx]

; 507  :         _Wherenode->_Left = _Pnode->_Right;

  000d4	8b 4e 08	 mov	 ecx, DWORD PTR [esi+8]
  000d7	89 0a		 mov	 DWORD PTR [edx], ecx

; 508  : 
; 509  :         if (!_Pnode->_Right->_Isnil) {

  000d9	8b 4e 08	 mov	 ecx, DWORD PTR [esi+8]
  000dc	80 79 0d 00	 cmp	 BYTE PTR [ecx+13], 0
  000e0	75 03		 jne	 SHORT $LN29@Insert_nod

; 510  :             _Pnode->_Right->_Parent = _Wherenode;

  000e2	89 51 04	 mov	 DWORD PTR [ecx+4], edx
$LN29@Insert_nod:

; 511  :         }
; 512  : 
; 513  :         _Pnode->_Parent = _Wherenode->_Parent;

  000e5	8b 4a 04	 mov	 ecx, DWORD PTR [edx+4]
  000e8	89 4e 04	 mov	 DWORD PTR [esi+4], ecx

; 514  : 
; 515  :         if (_Wherenode == _Myhead->_Parent) {

  000eb	8b 0b		 mov	 ecx, DWORD PTR [ebx]
  000ed	3b 51 04	 cmp	 edx, DWORD PTR [ecx+4]
  000f0	75 0b		 jne	 SHORT $LN30@Insert_nod

; 516  :             _Myhead->_Parent = _Pnode;

  000f2	89 71 04	 mov	 DWORD PTR [ecx+4], esi

; 521  :         }
; 522  : 
; 523  :         _Pnode->_Right      = _Wherenode;

  000f5	89 56 08	 mov	 DWORD PTR [esi+8], edx

; 713  :                 }
; 714  :             } else { // fixup red-red in right subtree

  000f8	e9 cc 00 00 00	 jmp	 $LN81@Insert_nod
$LN30@Insert_nod:

; 517  :         } else if (_Wherenode == _Wherenode->_Parent->_Right) {

  000fd	8b 4a 04	 mov	 ecx, DWORD PTR [edx+4]
  00100	3b 51 08	 cmp	 edx, DWORD PTR [ecx+8]
  00103	75 0b		 jne	 SHORT $LN32@Insert_nod

; 518  :             _Wherenode->_Parent->_Right = _Pnode;

  00105	89 71 08	 mov	 DWORD PTR [ecx+8], esi

; 521  :         }
; 522  : 
; 523  :         _Pnode->_Right      = _Wherenode;

  00108	89 56 08	 mov	 DWORD PTR [esi+8], edx

; 713  :                 }
; 714  :             } else { // fixup red-red in right subtree

  0010b	e9 b9 00 00 00	 jmp	 $LN81@Insert_nod
$LN32@Insert_nod:

; 520  :             _Wherenode->_Parent->_Left = _Pnode;

  00110	89 31		 mov	 DWORD PTR [ecx], esi

; 521  :         }
; 522  : 
; 523  :         _Pnode->_Right      = _Wherenode;

  00112	89 56 08	 mov	 DWORD PTR [esi+8], edx

; 713  :                 }
; 714  :             } else { // fixup red-red in right subtree

  00115	e9 af 00 00 00	 jmp	 $LN81@Insert_nod
$LN10@Insert_nod:

; 715  :                 const auto _Parent_sibling = _Pnode->_Parent->_Parent->_Left;
; 716  :                 if (_Parent_sibling->_Color == _Red) { // parent's sibling has two red children, blacken both

  0011a	80 79 0c 00	 cmp	 BYTE PTR [ecx+12], 0
  0011e	75 1d		 jne	 SHORT $LN15@Insert_nod
$LN82@Insert_nod:

; 693  :             }
; 694  :         }
; 695  : 
; 696  :         for (_Nodeptr _Pnode = _Newnode; _Pnode->_Parent->_Color == _Red;) {

  00120	c6 42 0c 01	 mov	 BYTE PTR [edx+12], 1
  00124	c6 41 0c 01	 mov	 BYTE PTR [ecx+12], 1
  00128	8b 48 04	 mov	 ecx, DWORD PTR [eax+4]
  0012b	8b 49 04	 mov	 ecx, DWORD PTR [ecx+4]
  0012e	c6 41 0c 00	 mov	 BYTE PTR [ecx+12], 0
  00132	8b 48 04	 mov	 ecx, DWORD PTR [eax+4]
  00135	8b 41 04	 mov	 eax, DWORD PTR [ecx+4]
  00138	e9 8f 00 00 00	 jmp	 $LN2@Insert_nod
$LN15@Insert_nod:

; 717  :                     _Pnode->_Parent->_Color          = _Black;
; 718  :                     _Parent_sibling->_Color          = _Black;
; 719  :                     _Pnode->_Parent->_Parent->_Color = _Red;
; 720  :                     _Pnode                           = _Pnode->_Parent->_Parent;
; 721  :                 } else { // parent's sibling has red and black children
; 722  :                     if (_Pnode == _Pnode->_Parent->_Left) { // rotate left child to right

  0013d	8b 32		 mov	 esi, DWORD PTR [edx]
  0013f	3b c6		 cmp	 eax, esi
  00141	75 3a		 jne	 SHORT $LN42@Insert_nod

; 507  :         _Wherenode->_Left = _Pnode->_Right;

  00143	8b 4e 08	 mov	 ecx, DWORD PTR [esi+8]

; 723  :                         _Pnode = _Pnode->_Parent;

  00146	8b c2		 mov	 eax, edx

; 507  :         _Wherenode->_Left = _Pnode->_Right;

  00148	89 08		 mov	 DWORD PTR [eax], ecx

; 508  : 
; 509  :         if (!_Pnode->_Right->_Isnil) {

  0014a	8b 4e 08	 mov	 ecx, DWORD PTR [esi+8]
  0014d	80 79 0d 00	 cmp	 BYTE PTR [ecx+13], 0
  00151	75 03		 jne	 SHORT $LN37@Insert_nod

; 510  :             _Pnode->_Right->_Parent = _Wherenode;

  00153	89 41 04	 mov	 DWORD PTR [ecx+4], eax
$LN37@Insert_nod:

; 511  :         }
; 512  : 
; 513  :         _Pnode->_Parent = _Wherenode->_Parent;

  00156	8b 4a 04	 mov	 ecx, DWORD PTR [edx+4]
  00159	89 4e 04	 mov	 DWORD PTR [esi+4], ecx

; 514  : 
; 515  :         if (_Wherenode == _Myhead->_Parent) {

  0015c	8b 0b		 mov	 ecx, DWORD PTR [ebx]
  0015e	3b 41 04	 cmp	 eax, DWORD PTR [ecx+4]
  00161	75 05		 jne	 SHORT $LN38@Insert_nod

; 516  :             _Myhead->_Parent = _Pnode;

  00163	89 71 04	 mov	 DWORD PTR [ecx+4], esi
  00166	eb 0f		 jmp	 SHORT $LN41@Insert_nod
$LN38@Insert_nod:

; 517  :         } else if (_Wherenode == _Wherenode->_Parent->_Right) {

  00168	8b 4a 04	 mov	 ecx, DWORD PTR [edx+4]
  0016b	3b 41 08	 cmp	 eax, DWORD PTR [ecx+8]
  0016e	75 05		 jne	 SHORT $LN40@Insert_nod

; 518  :             _Wherenode->_Parent->_Right = _Pnode;

  00170	89 71 08	 mov	 DWORD PTR [ecx+8], esi

; 519  :         } else {

  00173	eb 02		 jmp	 SHORT $LN41@Insert_nod
$LN40@Insert_nod:

; 520  :             _Wherenode->_Parent->_Left = _Pnode;

  00175	89 31		 mov	 DWORD PTR [ecx], esi
$LN41@Insert_nod:

; 521  :         }
; 522  : 
; 523  :         _Pnode->_Right      = _Wherenode;

  00177	89 46 08	 mov	 DWORD PTR [esi+8], eax

; 524  :         _Wherenode->_Parent = _Pnode;

  0017a	89 70 04	 mov	 DWORD PTR [eax+4], esi
$LN42@Insert_nod:

; 724  :                         _Rrotate(_Pnode);
; 725  :                     }
; 726  : 
; 727  :                     _Pnode->_Parent->_Color          = _Black; // propagate red up

  0017d	8b 48 04	 mov	 ecx, DWORD PTR [eax+4]
  00180	c6 41 0c 01	 mov	 BYTE PTR [ecx+12], 1

; 728  :                     _Pnode->_Parent->_Parent->_Color = _Red;

  00184	8b 48 04	 mov	 ecx, DWORD PTR [eax+4]
  00187	8b 49 04	 mov	 ecx, DWORD PTR [ecx+4]
  0018a	c6 41 0c 00	 mov	 BYTE PTR [ecx+12], 0

; 729  :                     _Lrotate(_Pnode->_Parent->_Parent);

  0018e	8b 48 04	 mov	 ecx, DWORD PTR [eax+4]
  00191	8b 51 04	 mov	 edx, DWORD PTR [ecx+4]

; 484  :         _Nodeptr _Pnode    = _Wherenode->_Right;

  00194	8b 72 08	 mov	 esi, DWORD PTR [edx+8]

; 485  :         _Wherenode->_Right = _Pnode->_Left;

  00197	8b 0e		 mov	 ecx, DWORD PTR [esi]
  00199	89 4a 08	 mov	 DWORD PTR [edx+8], ecx

; 486  : 
; 487  :         if (!_Pnode->_Left->_Isnil) {

  0019c	8b 0e		 mov	 ecx, DWORD PTR [esi]
  0019e	80 79 0d 00	 cmp	 BYTE PTR [ecx+13], 0
  001a2	75 03		 jne	 SHORT $LN45@Insert_nod

; 488  :             _Pnode->_Left->_Parent = _Wherenode;

  001a4	89 51 04	 mov	 DWORD PTR [ecx+4], edx
$LN45@Insert_nod:

; 489  :         }
; 490  : 
; 491  :         _Pnode->_Parent = _Wherenode->_Parent;

  001a7	8b 4a 04	 mov	 ecx, DWORD PTR [edx+4]
  001aa	89 4e 04	 mov	 DWORD PTR [esi+4], ecx

; 492  : 
; 493  :         if (_Wherenode == _Myhead->_Parent) {

  001ad	8b 0b		 mov	 ecx, DWORD PTR [ebx]
  001af	3b 51 04	 cmp	 edx, DWORD PTR [ecx+4]
  001b2	75 05		 jne	 SHORT $LN46@Insert_nod

; 494  :             _Myhead->_Parent = _Pnode;

  001b4	89 71 04	 mov	 DWORD PTR [ecx+4], esi
  001b7	eb 0e		 jmp	 SHORT $LN49@Insert_nod
$LN46@Insert_nod:

; 495  :         } else if (_Wherenode == _Wherenode->_Parent->_Left) {

  001b9	8b 4a 04	 mov	 ecx, DWORD PTR [edx+4]
  001bc	3b 11		 cmp	 edx, DWORD PTR [ecx]
  001be	75 04		 jne	 SHORT $LN48@Insert_nod

; 496  :             _Wherenode->_Parent->_Left = _Pnode;

  001c0	89 31		 mov	 DWORD PTR [ecx], esi

; 497  :         } else {

  001c2	eb 03		 jmp	 SHORT $LN49@Insert_nod
$LN48@Insert_nod:

; 498  :             _Wherenode->_Parent->_Right = _Pnode;

  001c4	89 71 08	 mov	 DWORD PTR [ecx+8], esi
$LN49@Insert_nod:

; 499  :         }
; 500  : 
; 501  :         _Pnode->_Left       = _Wherenode;

  001c7	89 16		 mov	 DWORD PTR [esi], edx
$LN81@Insert_nod:

; 693  :             }
; 694  :         }
; 695  : 
; 696  :         for (_Nodeptr _Pnode = _Newnode; _Pnode->_Parent->_Color == _Red;) {

  001c9	89 72 04	 mov	 DWORD PTR [edx+4], esi
$LN2@Insert_nod:
  001cc	8b 48 04	 mov	 ecx, DWORD PTR [eax+4]
  001cf	80 79 0c 00	 cmp	 BYTE PTR [ecx+12], 0
  001d3	0f 84 87 fe ff
	ff		 je	 $LL4@Insert_nod
  001d9	5e		 pop	 esi
$LN3@Insert_nod:

; 730  :                 }
; 731  :             }
; 732  :         }
; 733  : 
; 734  :         _Head->_Parent->_Color = _Black; // root is always black

  001da	8b 45 fc	 mov	 eax, DWORD PTR __Head$1$[ebp]
  001dd	8b 40 04	 mov	 eax, DWORD PTR [eax+4]
  001e0	c6 40 0c 01	 mov	 BYTE PTR [eax+12], 1

; 735  :         return _Newnode;
; 736  :     }

  001e4	8b c7		 mov	 eax, edi
  001e6	5f		 pop	 edi
  001e7	5b		 pop	 ebx
  001e8	8b e5		 mov	 esp, ebp
  001ea	5d		 pop	 ebp
  001eb	c2 0c 00	 ret	 12			; 0000000cH
?_Insert_node@?$_Tree_val@U?$_Tree_simple_types@U?$pair@$$CBHUHonorData@@@std@@@std@@@std@@QAEPAU?$_Tree_node@U?$pair@$$CBHUHonorData@@@std@@PAX@2@U?$_Tree_id@PAU?$_Tree_node@U?$pair@$$CBHUHonorData@@@std@@PAX@std@@@2@QAU32@@Z ENDP ; std::_Tree_val<std::_Tree_simple_types<std::pair<int const ,HonorData> > >::_Insert_node
_TEXT	ENDS
; Function compile flags: /Ogtp
; File C:\Program Files\Microsoft Visual Studio\2022\Professional\VC\Tools\MSVC\14.44.35207\atlmfc\include\atlsimpstr.h
;	COMDAT ??0HonorData@@QAE@ABU0@@Z
_TEXT	SEGMENT
_this$ = -4						; size = 4
___that$ = 8						; size = 4
_this$ = 8						; size = 4
??0HonorData@@QAE@ABU0@@Z PROC				; HonorData::HonorData, COMDAT
; _this$ = ecx
  00000	55		 push	 ebp
  00001	8b ec		 mov	 ebp, esp
  00003	51		 push	 ecx

; 804  : 		return( reinterpret_cast< CStringData* >( m_pszData )-1 );

  00004	8b 55 08	 mov	 edx, DWORD PTR ___that$[ebp]
  00007	56		 push	 esi
  00008	57		 push	 edi
  00009	8b f9		 mov	 edi, ecx
  0000b	8b 02		 mov	 eax, DWORD PTR [edx]
  0000d	89 7d fc	 mov	 DWORD PTR _this$[ebp], edi
  00010	89 07		 mov	 DWORD PTR [edi], eax
  00012	8d 77 14	 lea	 esi, DWORD PTR [edi+20]
  00015	8b 42 04	 mov	 eax, DWORD PTR [edx+4]
  00018	89 47 04	 mov	 DWORD PTR [edi+4], eax
  0001b	8b 42 08	 mov	 eax, DWORD PTR [edx+8]
  0001e	89 47 08	 mov	 DWORD PTR [edi+8], eax
  00021	8b 42 0c	 mov	 eax, DWORD PTR [edx+12]
  00024	89 47 0c	 mov	 DWORD PTR [edi+12], eax
  00027	8b 42 10	 mov	 eax, DWORD PTR [edx+16]
  0002a	89 47 10	 mov	 DWORD PTR [edi+16], eax
  0002d	8b 42 14	 mov	 eax, DWORD PTR [edx+20]
  00030	83 e8 10	 sub	 eax, 16			; 00000010H
  00033	89 75 08	 mov	 DWORD PTR _this$[ebp], esi

; 217  : 		CStringData* pNewData = CloneData( pSrcData );

  00036	50		 push	 eax
  00037	e8 00 00 00 00	 call	 ?CloneData@?$CSimpleStringT@D$0A@@ATL@@CAPAUCStringData@2@PAU32@@Z ; ATL::CSimpleStringT<char,0>::CloneData
  0003c	83 c4 04	 add	 esp, 4

; 218  : 		Attach( pNewData );

  0003f	83 c0 10	 add	 eax, 16			; 00000010H
  00042	89 06		 mov	 DWORD PTR [esi], eax
  00044	8b c7		 mov	 eax, edi
  00046	5f		 pop	 edi
  00047	5e		 pop	 esi
  00048	8b e5		 mov	 esp, ebp
  0004a	5d		 pop	 ebp
  0004b	c2 04 00	 ret	 4
??0HonorData@@QAE@ABU0@@Z ENDP				; HonorData::HonorData
_TEXT	ENDS
; Function compile flags: /Ogtp
; File C:\IAGOS\server\v18\Source\Source\_Common\honor.h
; File C:\Program Files\Microsoft Visual Studio\2022\Professional\VC\Tools\MSVC\14.44.35207\atlmfc\include\atlsimpstr.h
; File C:\IAGOS\server\v18\Source\Source\_Common\honor.h
;	COMDAT ??1HonorData@@QAE@XZ
_TEXT	SEGMENT
__$EHRec$ = -12						; size = 12
??1HonorData@@QAE@XZ PROC				; HonorData::~HonorData, COMDAT
; _this$ = ecx

; 21   : 	~HonorData() {};

  00000	55		 push	 ebp
  00001	8b ec		 mov	 ebp, esp
  00003	6a ff		 push	 -1
  00005	68 00 00 00 00	 push	 __ehhandler$??1HonorData@@QAE@XZ
  0000a	64 a1 00 00 00
	00		 mov	 eax, DWORD PTR fs:0
  00010	50		 push	 eax
  00011	a1 00 00 00 00	 mov	 eax, DWORD PTR ___security_cookie
  00016	33 c5		 xor	 eax, ebp
  00018	50		 push	 eax
  00019	8d 45 f4	 lea	 eax, DWORD PTR __$EHRec$[ebp]
  0001c	64 a3 00 00 00
	00		 mov	 DWORD PTR fs:0, eax
; File C:\Program Files\Microsoft Visual Studio\2022\Professional\VC\Tools\MSVC\14.44.35207\atlmfc\include\atlsimpstr.h

; 804  : 		return( reinterpret_cast< CStringData* >( m_pszData )-1 );

  00022	8b 51 14	 mov	 edx, DWORD PTR [ecx+20]

; 92   : 		if( _InterlockedDecrement( &nRefs ) <= 0 )

  00025	83 c8 ff	 or	 eax, -1

; 804  : 		return( reinterpret_cast< CStringData* >( m_pszData )-1 );

  00028	83 ea 10	 sub	 edx, 16			; 00000010H

; 92   : 		if( _InterlockedDecrement( &nRefs ) <= 0 )

  0002b	f0 0f c1 42 0c	 lock	  xadd	 DWORD PTR [edx+12], eax
  00030	48		 dec	 eax
  00031	85 c0		 test	 eax, eax
  00033	7f 08		 jg	 SHORT $LN11@HonorData

; 93   : 		{
; 94   : 			pStringMgr->Free( this );

  00035	8b 0a		 mov	 ecx, DWORD PTR [edx]
  00037	52		 push	 edx
  00038	8b 01		 mov	 eax, DWORD PTR [ecx]
  0003a	ff 50 04	 call	 DWORD PTR [eax+4]
$LN11@HonorData:
; File C:\IAGOS\server\v18\Source\Source\_Common\honor.h

; 21   : 	~HonorData() {};

  0003d	8b 4d f4	 mov	 ecx, DWORD PTR __$EHRec$[ebp]
  00040	64 89 0d 00 00
	00 00		 mov	 DWORD PTR fs:0, ecx
  00047	59		 pop	 ecx
  00048	8b e5		 mov	 esp, ebp
  0004a	5d		 pop	 ebp
  0004b	c3		 ret	 0
  0004c	cc		 int	 3
  0004d	cc		 int	 3
  0004e	cc		 int	 3
  0004f	cc		 int	 3
  00050	cc		 int	 3
_TEXT	ENDS
;	COMDAT text$x
text$x	SEGMENT
__ehhandler$??1HonorData@@QAE@XZ:
  00000	90		 npad	 1
  00001	90		 npad	 1
  00002	8b 54 24 08	 mov	 edx, DWORD PTR [esp+8]
  00006	8d 42 0c	 lea	 eax, DWORD PTR [edx+12]
  00009	8b 4a fc	 mov	 ecx, DWORD PTR [edx-4]
  0000c	33 c8		 xor	 ecx, eax
  0000e	e8 00 00 00 00	 call	 @__security_check_cookie@4
  00013	b8 00 00 00 00	 mov	 eax, OFFSET __ehfuncinfo$??1HonorData@@QAE@XZ
  00018	e9 00 00 00 00	 jmp	 ___CxxFrameHandler3
text$x	ENDS
??1HonorData@@QAE@XZ ENDP				; HonorData::~HonorData
; Function compile flags: /Ogtp
; File C:\Program Files\Microsoft Visual Studio\2022\Professional\VC\Tools\MSVC\14.44.35207\include\xmemory
;	COMDAT ??$_Allocate_manually_vector_aligned@U_Default_allocate_traits@std@@@std@@YAPAXI@Z
_TEXT	SEGMENT
__Bytes$ = 8						; size = 4
??$_Allocate_manually_vector_aligned@U_Default_allocate_traits@std@@@std@@YAPAXI@Z PROC ; std::_Allocate_manually_vector_aligned<std::_Default_allocate_traits>, COMDAT

; 182  : __declspec(allocator) void* _Allocate_manually_vector_aligned(const size_t _Bytes) {

  00000	55		 push	 ebp
  00001	8b ec		 mov	 ebp, esp

; 183  :     // allocate _Bytes manually aligned to at least _Big_allocation_alignment
; 184  :     const size_t _Block_size = _Non_user_size + _Bytes;

  00003	8b 45 08	 mov	 eax, DWORD PTR __Bytes$[ebp]
  00006	8d 48 23	 lea	 ecx, DWORD PTR [eax+35]

; 185  :     if (_Block_size <= _Bytes) {

  00009	3b c8		 cmp	 ecx, eax
  0000b	0f 86 00 00 00
	00		 jbe	 ?_Throw_bad_array_new_length@std@@YAXXZ ; std::_Throw_bad_array_new_length

; 136  :         return ::operator new(_Bytes);

  00011	51		 push	 ecx
  00012	e8 00 00 00 00	 call	 ??2@YAPAXI@Z		; operator new

; 186  :         _Throw_bad_array_new_length(); // add overflow
; 187  :     }
; 188  : 
; 189  :     const uintptr_t _Ptr_container = reinterpret_cast<uintptr_t>(_Traits::_Allocate(_Block_size));

  00017	8b c8		 mov	 ecx, eax

; 136  :         return ::operator new(_Bytes);

  00019	83 c4 04	 add	 esp, 4

; 190  :     _STL_VERIFY(_Ptr_container != 0, "invalid argument"); // validate even in release since we're doing p[-1]

  0001c	85 c9		 test	 ecx, ecx
  0001e	74 0b		 je	 SHORT $LN9@Allocate_m

; 191  :     void* const _Ptr = reinterpret_cast<void*>((_Ptr_container + _Non_user_size) & ~(_Big_allocation_alignment - 1));

  00020	8d 41 23	 lea	 eax, DWORD PTR [ecx+35]
  00023	83 e0 e0	 and	 eax, -32		; ffffffe0H

; 192  :     static_cast<uintptr_t*>(_Ptr)[-1] = _Ptr_container;

  00026	89 48 fc	 mov	 DWORD PTR [eax-4], ecx

; 193  : 
; 194  : #ifdef _DEBUG
; 195  :     static_cast<uintptr_t*>(_Ptr)[-2] = _Big_allocation_sentinel;
; 196  : #endif // defined(_DEBUG)
; 197  :     return _Ptr;
; 198  : }

  00029	5d		 pop	 ebp
  0002a	c3		 ret	 0
$LN9@Allocate_m:

; 190  :     _STL_VERIFY(_Ptr_container != 0, "invalid argument"); // validate even in release since we're doing p[-1]

  0002b	6a 00		 push	 0
  0002d	6a 00		 push	 0
  0002f	6a 00		 push	 0
  00031	6a 00		 push	 0
  00033	6a 00		 push	 0
  00035	e8 00 00 00 00	 call	 __invoke_watson
$LN7@Allocate_m:
  0003a	cc		 int	 3
??$_Allocate_manually_vector_aligned@U_Default_allocate_traits@std@@@std@@YAPAXI@Z ENDP ; std::_Allocate_manually_vector_aligned<std::_Default_allocate_traits>
_TEXT	ENDS
; Function compile flags: /Ogtp
; File C:\Program Files\Microsoft Visual Studio\2022\Professional\VC\Tools\MSVC\14.44.35207\include\xtree
;	COMDAT ?_Throw_tree_length_error@std@@YAXXZ
_TEXT	SEGMENT
?_Throw_tree_length_error@std@@YAXXZ PROC		; std::_Throw_tree_length_error, COMDAT

; 417  :     _Xlength_error("map/set too long");

  00000	68 00 00 00 00	 push	 OFFSET ??_C@_0BB@GCADKGJO@map?1set?5too?5long@
  00005	e8 00 00 00 00	 call	 ?_Xlength_error@std@@YAXPBD@Z ; std::_Xlength_error
$LN3@Throw_tree:
  0000a	cc		 int	 3
?_Throw_tree_length_error@std@@YAXXZ ENDP		; std::_Throw_tree_length_error
_TEXT	ENDS
; Function compile flags: /Ogtp
; File C:\Program Files\Microsoft Visual Studio\2022\Professional\VC\Tools\MSVC\14.44.35207\include\xmemory
;	COMDAT ?_Throw_bad_array_new_length@std@@YAXXZ
_TEXT	SEGMENT
$T1 = -12						; size = 12
?_Throw_bad_array_new_length@std@@YAXXZ PROC		; std::_Throw_bad_array_new_length, COMDAT

; 107  : [[noreturn]] inline void _Throw_bad_array_new_length() {

  00000	55		 push	 ebp
  00001	8b ec		 mov	 ebp, esp
  00003	83 ec 0c	 sub	 esp, 12			; 0000000cH

; 108  :     _THROW(bad_array_new_length{});

  00006	8d 4d f4	 lea	 ecx, DWORD PTR $T1[ebp]
  00009	e8 00 00 00 00	 call	 ??0bad_array_new_length@std@@QAE@XZ ; std::bad_array_new_length::bad_array_new_length
  0000e	68 00 00 00 00	 push	 OFFSET __TI3?AVbad_array_new_length@std@@
  00013	8d 45 f4	 lea	 eax, DWORD PTR $T1[ebp]
  00016	50		 push	 eax
  00017	e8 00 00 00 00	 call	 __CxxThrowException@8
$LN3@Throw_bad_:
  0001c	cc		 int	 3
?_Throw_bad_array_new_length@std@@YAXXZ ENDP		; std::_Throw_bad_array_new_length
_TEXT	ENDS
; Function compile flags: /Ogtp
; File C:\Program Files\Microsoft Visual Studio\2022\Professional\VC\Tools\MSVC\14.44.35207\include\vcruntime_exception.h
;	COMDAT ??_Gbad_array_new_length@std@@UAEPAXI@Z
_TEXT	SEGMENT
___flags$ = 8						; size = 4
??_Gbad_array_new_length@std@@UAEPAXI@Z PROC		; std::bad_array_new_length::`scalar deleting destructor', COMDAT
; _this$ = ecx
  00000	55		 push	 ebp
  00001	8b ec		 mov	 ebp, esp

; 90   :     {

  00003	56		 push	 esi
  00004	8b f1		 mov	 esi, ecx

; 91   :         __std_exception_destroy(&_Data);

  00006	8d 46 04	 lea	 eax, DWORD PTR [esi+4]
  00009	c7 06 00 00 00
	00		 mov	 DWORD PTR [esi], OFFSET ??_7exception@std@@6B@
  0000f	50		 push	 eax
  00010	e8 00 00 00 00	 call	 ___std_exception_destroy
  00015	83 c4 04	 add	 esp, 4
  00018	f6 45 08 01	 test	 BYTE PTR ___flags$[ebp], 1
  0001c	74 0b		 je	 SHORT $LN18@scalar
  0001e	6a 0c		 push	 12			; 0000000cH
  00020	56		 push	 esi
  00021	e8 00 00 00 00	 call	 ??3@YAXPAXI@Z		; operator delete
  00026	83 c4 08	 add	 esp, 8
$LN18@scalar:
  00029	8b c6		 mov	 eax, esi
  0002b	5e		 pop	 esi
  0002c	5d		 pop	 ebp
  0002d	c2 04 00	 ret	 4
??_Gbad_array_new_length@std@@UAEPAXI@Z ENDP		; std::bad_array_new_length::`scalar deleting destructor'
_TEXT	ENDS
; Function compile flags: /Ogtp
; File C:\Program Files\Microsoft Visual Studio\2022\Professional\VC\Tools\MSVC\14.44.35207\include\vcruntime_exception.h
;	COMDAT ??0bad_array_new_length@std@@QAE@ABV01@@Z
_TEXT	SEGMENT
___that$ = 8						; size = 4
??0bad_array_new_length@std@@QAE@ABV01@@Z PROC		; std::bad_array_new_length::bad_array_new_length, COMDAT
; _this$ = ecx
  00000	55		 push	 ebp
  00001	8b ec		 mov	 ebp, esp

; 73   :     {

  00003	56		 push	 esi
  00004	8b f1		 mov	 esi, ecx
  00006	0f 57 c0	 xorps	 xmm0, xmm0

; 72   :         : _Data()

  00009	8d 46 04	 lea	 eax, DWORD PTR [esi+4]

; 74   :         __std_exception_copy(&_Other._Data, &_Data);

  0000c	50		 push	 eax
  0000d	c7 06 00 00 00
	00		 mov	 DWORD PTR [esi], OFFSET ??_7exception@std@@6B@
  00013	66 0f d6 00	 movq	 QWORD PTR [eax], xmm0
  00017	8b 45 08	 mov	 eax, DWORD PTR ___that$[ebp]
  0001a	83 c0 04	 add	 eax, 4
  0001d	50		 push	 eax
  0001e	e8 00 00 00 00	 call	 ___std_exception_copy
  00023	83 c4 08	 add	 esp, 8
  00026	c7 06 00 00 00
	00		 mov	 DWORD PTR [esi], OFFSET ??_7bad_array_new_length@std@@6B@
  0002c	8b c6		 mov	 eax, esi
  0002e	5e		 pop	 esi
  0002f	5d		 pop	 ebp
  00030	c2 04 00	 ret	 4
??0bad_array_new_length@std@@QAE@ABV01@@Z ENDP		; std::bad_array_new_length::bad_array_new_length
_TEXT	ENDS
; Function compile flags: /Ogtp
; File C:\Program Files\Microsoft Visual Studio\2022\Professional\VC\Tools\MSVC\14.44.35207\include\vcruntime_exception.h
;	COMDAT ??1bad_array_new_length@std@@UAE@XZ
_TEXT	SEGMENT
??1bad_array_new_length@std@@UAE@XZ PROC		; std::bad_array_new_length::~bad_array_new_length, COMDAT
; _this$ = ecx

; 91   :         __std_exception_destroy(&_Data);

  00000	8d 41 04	 lea	 eax, DWORD PTR [ecx+4]
  00003	c7 01 00 00 00
	00		 mov	 DWORD PTR [ecx], OFFSET ??_7exception@std@@6B@
  00009	50		 push	 eax
  0000a	e8 00 00 00 00	 call	 ___std_exception_destroy
  0000f	59		 pop	 ecx
  00010	c3		 ret	 0
??1bad_array_new_length@std@@UAE@XZ ENDP		; std::bad_array_new_length::~bad_array_new_length
_TEXT	ENDS
; Function compile flags: /Ogtp
; File C:\Program Files\Microsoft Visual Studio\2022\Professional\VC\Tools\MSVC\14.44.35207\include\vcruntime_exception.h
;	COMDAT ??0bad_array_new_length@std@@QAE@XZ
_TEXT	SEGMENT
??0bad_array_new_length@std@@QAE@XZ PROC		; std::bad_array_new_length::bad_array_new_length, COMDAT
; _this$ = ecx

; 144  :     {

  00000	0f 57 c0	 xorps	 xmm0, xmm0

; 145  :     }

  00003	8b c1		 mov	 eax, ecx

; 66   :         : _Data()

  00005	66 0f d6 41 04	 movq	 QWORD PTR [ecx+4], xmm0

; 67   :     {
; 68   :         _Data._What = _Message;

  0000a	c7 41 04 00 00
	00 00		 mov	 DWORD PTR [ecx+4], OFFSET ??_C@_0BF@KINCDENJ@bad?5array?5new?5length@

; 144  :     {

  00011	c7 01 00 00 00
	00		 mov	 DWORD PTR [ecx], OFFSET ??_7bad_array_new_length@std@@6B@

; 145  :     }

  00017	c3		 ret	 0
??0bad_array_new_length@std@@QAE@XZ ENDP		; std::bad_array_new_length::bad_array_new_length
_TEXT	ENDS
; Function compile flags: /Ogtp
; File C:\Program Files\Microsoft Visual Studio\2022\Professional\VC\Tools\MSVC\14.44.35207\include\vcruntime_exception.h
;	COMDAT ??_Gbad_alloc@std@@UAEPAXI@Z
_TEXT	SEGMENT
___flags$ = 8						; size = 4
??_Gbad_alloc@std@@UAEPAXI@Z PROC			; std::bad_alloc::`scalar deleting destructor', COMDAT
; _this$ = ecx
  00000	55		 push	 ebp
  00001	8b ec		 mov	 ebp, esp

; 90   :     {

  00003	56		 push	 esi
  00004	8b f1		 mov	 esi, ecx

; 91   :         __std_exception_destroy(&_Data);

  00006	8d 46 04	 lea	 eax, DWORD PTR [esi+4]
  00009	c7 06 00 00 00
	00		 mov	 DWORD PTR [esi], OFFSET ??_7exception@std@@6B@
  0000f	50		 push	 eax
  00010	e8 00 00 00 00	 call	 ___std_exception_destroy
  00015	83 c4 04	 add	 esp, 4
  00018	f6 45 08 01	 test	 BYTE PTR ___flags$[ebp], 1
  0001c	74 0b		 je	 SHORT $LN13@scalar
  0001e	6a 0c		 push	 12			; 0000000cH
  00020	56		 push	 esi
  00021	e8 00 00 00 00	 call	 ??3@YAXPAXI@Z		; operator delete
  00026	83 c4 08	 add	 esp, 8
$LN13@scalar:
  00029	8b c6		 mov	 eax, esi
  0002b	5e		 pop	 esi
  0002c	5d		 pop	 ebp
  0002d	c2 04 00	 ret	 4
??_Gbad_alloc@std@@UAEPAXI@Z ENDP			; std::bad_alloc::`scalar deleting destructor'
_TEXT	ENDS
; Function compile flags: /Ogtp
; File C:\Program Files\Microsoft Visual Studio\2022\Professional\VC\Tools\MSVC\14.44.35207\include\vcruntime_exception.h
;	COMDAT ??0bad_alloc@std@@QAE@ABV01@@Z
_TEXT	SEGMENT
___that$ = 8						; size = 4
??0bad_alloc@std@@QAE@ABV01@@Z PROC			; std::bad_alloc::bad_alloc, COMDAT
; _this$ = ecx
  00000	55		 push	 ebp
  00001	8b ec		 mov	 ebp, esp

; 73   :     {

  00003	56		 push	 esi
  00004	8b f1		 mov	 esi, ecx
  00006	0f 57 c0	 xorps	 xmm0, xmm0

; 72   :         : _Data()

  00009	8d 46 04	 lea	 eax, DWORD PTR [esi+4]

; 74   :         __std_exception_copy(&_Other._Data, &_Data);

  0000c	50		 push	 eax
  0000d	c7 06 00 00 00
	00		 mov	 DWORD PTR [esi], OFFSET ??_7exception@std@@6B@
  00013	66 0f d6 00	 movq	 QWORD PTR [eax], xmm0
  00017	8b 45 08	 mov	 eax, DWORD PTR ___that$[ebp]
  0001a	83 c0 04	 add	 eax, 4
  0001d	50		 push	 eax
  0001e	e8 00 00 00 00	 call	 ___std_exception_copy
  00023	83 c4 08	 add	 esp, 8
  00026	c7 06 00 00 00
	00		 mov	 DWORD PTR [esi], OFFSET ??_7bad_alloc@std@@6B@
  0002c	8b c6		 mov	 eax, esi
  0002e	5e		 pop	 esi
  0002f	5d		 pop	 ebp
  00030	c2 04 00	 ret	 4
??0bad_alloc@std@@QAE@ABV01@@Z ENDP			; std::bad_alloc::bad_alloc
_TEXT	ENDS
; Function compile flags: /Ogtp
; File C:\Program Files\Microsoft Visual Studio\2022\Professional\VC\Tools\MSVC\14.44.35207\include\vcruntime_exception.h
;	COMDAT ??_Gexception@std@@UAEPAXI@Z
_TEXT	SEGMENT
___flags$ = 8						; size = 4
??_Gexception@std@@UAEPAXI@Z PROC			; std::exception::`scalar deleting destructor', COMDAT
; _this$ = ecx
  00000	55		 push	 ebp
  00001	8b ec		 mov	 ebp, esp

; 90   :     {

  00003	56		 push	 esi
  00004	8b f1		 mov	 esi, ecx

; 91   :         __std_exception_destroy(&_Data);

  00006	8d 46 04	 lea	 eax, DWORD PTR [esi+4]
  00009	c7 06 00 00 00
	00		 mov	 DWORD PTR [esi], OFFSET ??_7exception@std@@6B@
  0000f	50		 push	 eax
  00010	e8 00 00 00 00	 call	 ___std_exception_destroy
  00015	83 c4 04	 add	 esp, 4
  00018	f6 45 08 01	 test	 BYTE PTR ___flags$[ebp], 1
  0001c	74 0b		 je	 SHORT $LN8@scalar
  0001e	6a 0c		 push	 12			; 0000000cH
  00020	56		 push	 esi
  00021	e8 00 00 00 00	 call	 ??3@YAXPAXI@Z		; operator delete
  00026	83 c4 08	 add	 esp, 8
$LN8@scalar:
  00029	8b c6		 mov	 eax, esi
  0002b	5e		 pop	 esi
  0002c	5d		 pop	 ebp
  0002d	c2 04 00	 ret	 4
??_Gexception@std@@UAEPAXI@Z ENDP			; std::exception::`scalar deleting destructor'
_TEXT	ENDS
; Function compile flags: /Ogtp
; File C:\Program Files\Microsoft Visual Studio\2022\Professional\VC\Tools\MSVC\14.44.35207\include\vcruntime_exception.h
;	COMDAT ?what@exception@std@@UBEPBDXZ
_TEXT	SEGMENT
?what@exception@std@@UBEPBDXZ PROC			; std::exception::what, COMDAT
; _this$ = ecx

; 96   :         return _Data._What ? _Data._What : "Unknown exception";

  00000	8b 49 04	 mov	 ecx, DWORD PTR [ecx+4]
  00003	b8 00 00 00 00	 mov	 eax, OFFSET ??_C@_0BC@EOODALEL@Unknown?5exception@
  00008	85 c9		 test	 ecx, ecx
  0000a	0f 45 c1	 cmovne	 eax, ecx

; 97   :     }

  0000d	c3		 ret	 0
?what@exception@std@@UBEPBDXZ ENDP			; std::exception::what
_TEXT	ENDS
; Function compile flags: /Ogtp
; File C:\Program Files\Microsoft Visual Studio\2022\Professional\VC\Tools\MSVC\14.44.35207\include\vcruntime_exception.h
;	COMDAT ??1exception@std@@UAE@XZ
_TEXT	SEGMENT
??1exception@std@@UAE@XZ PROC				; std::exception::~exception, COMDAT
; _this$ = ecx

; 91   :         __std_exception_destroy(&_Data);

  00000	8d 41 04	 lea	 eax, DWORD PTR [ecx+4]
  00003	c7 01 00 00 00
	00		 mov	 DWORD PTR [ecx], OFFSET ??_7exception@std@@6B@
  00009	50		 push	 eax
  0000a	e8 00 00 00 00	 call	 ___std_exception_destroy
  0000f	59		 pop	 ecx

; 92   :     }

  00010	c3		 ret	 0
??1exception@std@@UAE@XZ ENDP				; std::exception::~exception
_TEXT	ENDS
; Function compile flags: /Ogtp
; File C:\Program Files\Microsoft Visual Studio\2022\Professional\VC\Tools\MSVC\14.44.35207\include\vcruntime_exception.h
;	COMDAT ??0exception@std@@QAE@ABV01@@Z
_TEXT	SEGMENT
__Other$ = 8						; size = 4
??0exception@std@@QAE@ABV01@@Z PROC			; std::exception::exception, COMDAT
; _this$ = ecx

; 73   :     {

  00000	55		 push	 ebp
  00001	8b ec		 mov	 ebp, esp
  00003	56		 push	 esi
  00004	8b f1		 mov	 esi, ecx
  00006	0f 57 c0	 xorps	 xmm0, xmm0
  00009	8d 46 04	 lea	 eax, DWORD PTR [esi+4]

; 74   :         __std_exception_copy(&_Other._Data, &_Data);

  0000c	50		 push	 eax
  0000d	c7 06 00 00 00
	00		 mov	 DWORD PTR [esi], OFFSET ??_7exception@std@@6B@
  00013	66 0f d6 00	 movq	 QWORD PTR [eax], xmm0
  00017	8b 45 08	 mov	 eax, DWORD PTR __Other$[ebp]
  0001a	83 c0 04	 add	 eax, 4
  0001d	50		 push	 eax
  0001e	e8 00 00 00 00	 call	 ___std_exception_copy
  00023	83 c4 08	 add	 esp, 8

; 75   :     }

  00026	8b c6		 mov	 eax, esi
  00028	5e		 pop	 esi
  00029	5d		 pop	 ebp
  0002a	c2 04 00	 ret	 4
??0exception@std@@QAE@ABV01@@Z ENDP			; std::exception::exception
_TEXT	ENDS
; Function compile flags: /Ogtp
; File C:\Program Files\Microsoft Visual Studio\2022\Professional\VC\Tools\MSVC\14.44.35207\atlmfc\include\cstringt.h
; File C:\Program Files\Microsoft Visual Studio\2022\Professional\VC\Tools\MSVC\14.44.35207\atlmfc\include\atlsimpstr.h
; File C:\Program Files\Microsoft Visual Studio\2022\Professional\VC\Tools\MSVC\14.44.35207\atlmfc\include\cstringt.h
;	COMDAT ??1?$CStringT@DV?$StrTraitMFC@DV?$ChTraitsCRT@D@ATL@@@@@ATL@@QAE@XZ
_TEXT	SEGMENT
??1?$CStringT@DV?$StrTraitMFC@DV?$ChTraitsCRT@D@ATL@@@@@ATL@@QAE@XZ PROC ; ATL::CStringT<char,StrTraitMFC<char,ATL::ChTraitsCRT<char> > >::~CStringT<char,StrTraitMFC<char,ATL::ChTraitsCRT<char> > >, COMDAT
; _this$ = ecx
; File C:\Program Files\Microsoft Visual Studio\2022\Professional\VC\Tools\MSVC\14.44.35207\atlmfc\include\atlsimpstr.h

; 804  : 		return( reinterpret_cast< CStringData* >( m_pszData )-1 );

  00000	8b 11		 mov	 edx, DWORD PTR [ecx]

; 92   : 		if( _InterlockedDecrement( &nRefs ) <= 0 )

  00002	83 c8 ff	 or	 eax, -1

; 804  : 		return( reinterpret_cast< CStringData* >( m_pszData )-1 );

  00005	83 ea 10	 sub	 edx, 16			; 00000010H

; 92   : 		if( _InterlockedDecrement( &nRefs ) <= 0 )

  00008	f0 0f c1 42 0c	 lock	  xadd	 DWORD PTR [edx+12], eax
  0000d	48		 dec	 eax
  0000e	85 c0		 test	 eax, eax
  00010	7f 08		 jg	 SHORT $LN8@CStringT

; 93   : 		{
; 94   : 			pStringMgr->Free( this );

  00012	8b 0a		 mov	 ecx, DWORD PTR [edx]
  00014	52		 push	 edx
  00015	8b 01		 mov	 eax, DWORD PTR [ecx]
  00017	ff 50 04	 call	 DWORD PTR [eax+4]
$LN8@CStringT:
; File C:\Program Files\Microsoft Visual Studio\2022\Professional\VC\Tools\MSVC\14.44.35207\atlmfc\include\cstringt.h

; 1303 : 	}

  0001a	c3		 ret	 0
??1?$CStringT@DV?$StrTraitMFC@DV?$ChTraitsCRT@D@ATL@@@@@ATL@@QAE@XZ ENDP ; ATL::CStringT<char,StrTraitMFC<char,ATL::ChTraitsCRT<char> > >::~CStringT<char,StrTraitMFC<char,ATL::ChTraitsCRT<char> > >
_TEXT	ENDS
; Function compile flags: /Ogtp
; File C:\Program Files\Microsoft Visual Studio\2022\Professional\VC\Tools\MSVC\14.44.35207\atlmfc\include\atlsimpstr.h
; File C:\Program Files (x86)\Windows Kits\10\Include\10.0.26100.0\ucrt\corecrt_memcpy_s.h
; File C:\Program Files\Microsoft Visual Studio\2022\Professional\VC\Tools\MSVC\14.44.35207\atlmfc\include\atlsimpstr.h
; File C:\Program Files (x86)\Windows Kits\10\Include\10.0.26100.0\ucrt\corecrt_memcpy_s.h
; File C:\Program Files\Microsoft Visual Studio\2022\Professional\VC\Tools\MSVC\14.44.35207\atlmfc\include\atlsimpstr.h
; File C:\Program Files (x86)\Windows Kits\10\Include\10.0.26100.0\ucrt\corecrt_memcpy_s.h
; File C:\Program Files\Microsoft Visual Studio\2022\Professional\VC\Tools\MSVC\14.44.35207\atlmfc\include\atlsimpstr.h
;	COMDAT ?CloneData@?$CSimpleStringT@D$0A@@ATL@@CAPAUCStringData@2@PAU32@@Z
_TEXT	SEGMENT
_pData$ = 8						; size = 4
__Source$1$ = 8						; size = 4
?CloneData@?$CSimpleStringT@D$0A@@ATL@@CAPAUCStringData@2@PAU32@@Z PROC ; ATL::CSimpleStringT<char,0>::CloneData, COMDAT

; 883  : 	{

  00000	55		 push	 ebp
  00001	8b ec		 mov	 ebp, esp
  00003	53		 push	 ebx
  00004	56		 push	 esi

; 884  : 		CStringData* pNewData = NULL;
; 885  : 
; 886  : 		IAtlStringMgr* pNewStringMgr = pData->pStringMgr->Clone();

  00005	8b 75 08	 mov	 esi, DWORD PTR _pData$[ebp]
  00008	8b 0e		 mov	 ecx, DWORD PTR [esi]
  0000a	8b 01		 mov	 eax, DWORD PTR [ecx]
  0000c	ff 50 10	 call	 DWORD PTR [eax+16]

; 73   : 		return nRefs < 0;

  0000f	83 7e 0c 00	 cmp	 DWORD PTR [esi+12], 0

; 884  : 		CStringData* pNewData = NULL;
; 885  : 
; 886  : 		IAtlStringMgr* pNewStringMgr = pData->pStringMgr->Clone();

  00013	8b c8		 mov	 ecx, eax

; 73   : 		return nRefs < 0;

  00015	8d 46 0c	 lea	 eax, DWORD PTR [esi+12]

; 887  : 		if( !pData->IsLocked() && (pNewStringMgr == pData->pStringMgr) )

  00018	7c 0f		 jl	 SHORT $LN2@CloneData
  0001a	3b 0e		 cmp	 ecx, DWORD PTR [esi]
  0001c	75 0b		 jne	 SHORT $LN2@CloneData

; 888  : 		{
; 889  : 			pNewData = pData;

  0001e	8b de		 mov	 ebx, esi

; 69   : 		_InterlockedIncrement(&nRefs);

  00020	f0 ff 00	 lock	  inc	 DWORD PTR [eax]

; 904  : 		return( pNewData );

  00023	8b c3		 mov	 eax, ebx

; 905  : 	}

  00025	5e		 pop	 esi
  00026	5b		 pop	 ebx
  00027	5d		 pop	 ebp
  00028	c3		 ret	 0
$LN2@CloneData:

; 890  : 			pNewData->AddRef();
; 891  : 		}
; 892  : 		else
; 893  : 		{
; 894  : 			pNewData = pNewStringMgr->Allocate( pData->nDataLength, sizeof( XCHAR ) );

  00029	8b 01		 mov	 eax, DWORD PTR [ecx]
  0002b	6a 01		 push	 1
  0002d	ff 76 04	 push	 DWORD PTR [esi+4]
  00030	ff 10		 call	 DWORD PTR [eax]
  00032	8b d8		 mov	 ebx, eax

; 895  : 			if( pNewData == NULL )

  00034	85 db		 test	 ebx, ebx
  00036	74 7d		 je	 SHORT $LN32@CloneData

; 898  : 			}
; 899  : 			pNewData->nDataLength = pData->nDataLength;

  00038	8b 46 04	 mov	 eax, DWORD PTR [esi+4]

; 900  : 			memcpy_s( PXSTR( pNewData->data() ), (pNewData->nDataLength+1) * sizeof( XCHAR ),

  0003b	8d 4e 10	 lea	 ecx, DWORD PTR [esi+16]
  0003e	57		 push	 edi
  0003f	89 43 04	 mov	 DWORD PTR [ebx+4], eax
  00042	8b 7e 04	 mov	 edi, DWORD PTR [esi+4]
  00045	89 4d 08	 mov	 DWORD PTR __Source$1$[ebp], ecx
  00048	8d 70 01	 lea	 esi, DWORD PTR [eax+1]
  0004b	8d 43 10	 lea	 eax, DWORD PTR [ebx+16]
  0004e	83 c7 01	 add	 edi, 1
; File C:\Program Files (x86)\Windows Kits\10\Include\10.0.26100.0\ucrt\corecrt_memcpy_s.h

; 47   :         if (_SourceSize == 0)

  00051	74 5b		 je	 SHORT $LN27@CloneData

; 48   :         {
; 49   :             return 0;
; 50   :         }
; 51   : 
; 52   :         _CRT_MEMCPY_S_VALIDATE_RETURN_ERRCODE(_Destination != NULL, EINVAL);

  00053	85 c0		 test	 eax, eax
  00055	75 17		 jne	 SHORT $LN12@CloneData
$LN30@CloneData:

; 58   :             _CRT_MEMCPY_S_VALIDATE_RETURN_ERRCODE(_DestinationSize >= _SourceSize, ERANGE);

  00057	e8 00 00 00 00	 call	 __errno
  0005c	c7 00 16 00 00
	00		 mov	 DWORD PTR [eax], 22	; 00000016H
  00062	e8 00 00 00 00	 call	 __invalid_parameter_noinfo
  00067	5f		 pop	 edi
; File C:\Program Files\Microsoft Visual Studio\2022\Professional\VC\Tools\MSVC\14.44.35207\atlmfc\include\atlsimpstr.h

; 904  : 		return( pNewData );

  00068	8b c3		 mov	 eax, ebx

; 905  : 	}

  0006a	5e		 pop	 esi
  0006b	5b		 pop	 ebx
  0006c	5d		 pop	 ebp
  0006d	c3		 ret	 0
$LN12@CloneData:
; File C:\Program Files (x86)\Windows Kits\10\Include\10.0.26100.0\ucrt\corecrt_memcpy_s.h

; 53   :         if (_Source == NULL || _DestinationSize < _SourceSize)

  0006e	85 c9		 test	 ecx, ecx
  00070	74 16		 je	 SHORT $LN14@CloneData
  00072	3b f7		 cmp	 esi, edi
  00074	72 12		 jb	 SHORT $LN14@CloneData

; 59   : 
; 60   :             // Unreachable, but required to suppress /analyze warnings:
; 61   :             return EINVAL;
; 62   :         }
; 63   :         memcpy(_Destination, _Source, _SourceSize);

  00076	57		 push	 edi
  00077	51		 push	 ecx
  00078	50		 push	 eax
  00079	e8 00 00 00 00	 call	 _memcpy
  0007e	83 c4 0c	 add	 esp, 12			; 0000000cH
; File C:\Program Files\Microsoft Visual Studio\2022\Professional\VC\Tools\MSVC\14.44.35207\atlmfc\include\atlsimpstr.h

; 904  : 		return( pNewData );

  00081	8b c3		 mov	 eax, ebx
  00083	5f		 pop	 edi

; 905  : 	}

  00084	5e		 pop	 esi
  00085	5b		 pop	 ebx
  00086	5d		 pop	 ebp
  00087	c3		 ret	 0
$LN14@CloneData:
; File C:\Program Files (x86)\Windows Kits\10\Include\10.0.26100.0\ucrt\corecrt_memcpy_s.h

; 55   :             memset(_Destination, 0, _DestinationSize);

  00088	56		 push	 esi
  00089	6a 00		 push	 0
  0008b	50		 push	 eax
  0008c	e8 00 00 00 00	 call	 _memset
  00091	83 c4 0c	 add	 esp, 12			; 0000000cH

; 56   : 
; 57   :             _CRT_MEMCPY_S_VALIDATE_RETURN_ERRCODE(_Source != NULL,                 EINVAL);

  00094	83 7d 08 00	 cmp	 DWORD PTR __Source$1$[ebp], 0
  00098	74 bd		 je	 SHORT $LN30@CloneData

; 58   :             _CRT_MEMCPY_S_VALIDATE_RETURN_ERRCODE(_DestinationSize >= _SourceSize, ERANGE);

  0009a	3b f7		 cmp	 esi, edi
  0009c	73 10		 jae	 SHORT $LN27@CloneData
  0009e	e8 00 00 00 00	 call	 __errno
  000a3	c7 00 22 00 00
	00		 mov	 DWORD PTR [eax], 34	; 00000022H
  000a9	e8 00 00 00 00	 call	 __invalid_parameter_noinfo
$LN27@CloneData:
  000ae	5f		 pop	 edi
; File C:\Program Files\Microsoft Visual Studio\2022\Professional\VC\Tools\MSVC\14.44.35207\atlmfc\include\atlsimpstr.h

; 905  : 	}

  000af	5e		 pop	 esi
  000b0	8b c3		 mov	 eax, ebx
  000b2	5b		 pop	 ebx
  000b3	5d		 pop	 ebp
  000b4	c3		 ret	 0
$LN32@CloneData:

; 896  : 			{
; 897  : 				ThrowMemoryException();

  000b5	e8 00 00 00 00	 call	 ?ThrowMemoryException@?$CSimpleStringT@D$0A@@ATL@@KAXXZ ; ATL::CSimpleStringT<char,0>::ThrowMemoryException
$LN28@CloneData:
  000ba	cc		 int	 3
?CloneData@?$CSimpleStringT@D$0A@@ATL@@CAPAUCStringData@2@PAU32@@Z ENDP ; ATL::CSimpleStringT<char,0>::CloneData
_TEXT	ENDS
; Function compile flags: /Ogtp
; File C:\Program Files\Microsoft Visual Studio\2022\Professional\VC\Tools\MSVC\14.44.35207\atlmfc\include\atlsimpstr.h
;	COMDAT ?Reallocate@?$CSimpleStringT@D$0A@@ATL@@AAEXH@Z
_TEXT	SEGMENT
_nLength$ = 8						; size = 4
?Reallocate@?$CSimpleStringT@D$0A@@ATL@@AAEXH@Z PROC	; ATL::CSimpleStringT<char,0>::Reallocate, COMDAT
; _this$ = ecx

; 853  : 	{

  00000	55		 push	 ebp
  00001	8b ec		 mov	 ebp, esp
  00003	56		 push	 esi

; 854  : 		CStringData* pOldData = GetData();
; 855  : 		ATLASSERT( pOldData->nAllocLength < nLength );
; 856  : 		IAtlStringMgr* pStringMgr = pOldData->pStringMgr;
; 857  : 		if ( pOldData->nAllocLength >= nLength || nLength <= 0)

  00004	8b 75 08	 mov	 esi, DWORD PTR _nLength$[ebp]
  00007	57		 push	 edi
  00008	8b f9		 mov	 edi, ecx

; 804  : 		return( reinterpret_cast< CStringData* >( m_pszData )-1 );

  0000a	8b 17		 mov	 edx, DWORD PTR [edi]
  0000c	83 ea 10	 sub	 edx, 16			; 00000010H

; 854  : 		CStringData* pOldData = GetData();
; 855  : 		ATLASSERT( pOldData->nAllocLength < nLength );
; 856  : 		IAtlStringMgr* pStringMgr = pOldData->pStringMgr;
; 857  : 		if ( pOldData->nAllocLength >= nLength || nLength <= 0)

  0000f	39 72 08	 cmp	 DWORD PTR [edx+8], esi
  00012	7d 1e		 jge	 SHORT $LN3@Reallocate
  00014	85 f6		 test	 esi, esi
  00016	7e 1a		 jle	 SHORT $LN3@Reallocate

; 860  : 			return;
; 861  : 		}
; 862  : 		CStringData* pNewData = pStringMgr->Reallocate( pOldData, nLength, sizeof( XCHAR ) );

  00018	8b 0a		 mov	 ecx, DWORD PTR [edx]
  0001a	6a 01		 push	 1
  0001c	56		 push	 esi
  0001d	52		 push	 edx
  0001e	8b 01		 mov	 eax, DWORD PTR [ecx]
  00020	ff 50 08	 call	 DWORD PTR [eax+8]

; 863  : 		if( pNewData == NULL )

  00023	85 c0		 test	 eax, eax
  00025	74 0b		 je	 SHORT $LN3@Reallocate

; 864  : 		{
; 865  : 			ThrowMemoryException();
; 866  : 		}
; 867  : 		Attach( pNewData );

  00027	83 c0 10	 add	 eax, 16			; 00000010H
  0002a	89 07		 mov	 DWORD PTR [edi], eax
  0002c	5f		 pop	 edi
  0002d	5e		 pop	 esi

; 868  : 	}

  0002e	5d		 pop	 ebp
  0002f	c2 04 00	 ret	 4
$LN3@Reallocate:

; 858  : 		{
; 859  : 			ThrowMemoryException();

  00032	e8 00 00 00 00	 call	 ?ThrowMemoryException@?$CSimpleStringT@D$0A@@ATL@@KAXXZ ; ATL::CSimpleStringT<char,0>::ThrowMemoryException
$LN12@Reallocate:
  00037	cc		 int	 3
?Reallocate@?$CSimpleStringT@D$0A@@ATL@@AAEXH@Z ENDP	; ATL::CSimpleStringT<char,0>::Reallocate
_TEXT	ENDS
; Function compile flags: /Ogtp
; File C:\Program Files\Microsoft Visual Studio\2022\Professional\VC\Tools\MSVC\14.44.35207\atlmfc\include\atlsimpstr.h
;	COMDAT ?PrepareWrite2@?$CSimpleStringT@D$0A@@ATL@@AAEXH@Z
_TEXT	SEGMENT
_nLength$ = 8						; size = 4
?PrepareWrite2@?$CSimpleStringT@D$0A@@ATL@@AAEXH@Z PROC	; ATL::CSimpleStringT<char,0>::PrepareWrite2, COMDAT
; _this$ = ecx

; 822  : 	{

  00000	55		 push	 ebp
  00001	8b ec		 mov	 ebp, esp
  00003	56		 push	 esi

; 823  : 		CStringData* pOldData = GetData();
; 824  : 		if( pOldData->nDataLength > nLength )

  00004	8b 75 08	 mov	 esi, DWORD PTR _nLength$[ebp]
  00007	57		 push	 edi
  00008	8b f9		 mov	 edi, ecx

; 804  : 		return( reinterpret_cast< CStringData* >( m_pszData )-1 );

  0000a	8b 0f		 mov	 ecx, DWORD PTR [edi]

; 823  : 		CStringData* pOldData = GetData();
; 824  : 		if( pOldData->nDataLength > nLength )

  0000c	39 71 f4	 cmp	 DWORD PTR [ecx-12], esi
  0000f	0f 4f 71 f4	 cmovg	 esi, DWORD PTR [ecx-12]

; 77   : 		return( nRefs > 1 );

  00013	83 79 fc 01	 cmp	 DWORD PTR [ecx-4], 1

; 825  : 		{
; 826  : 			nLength = pOldData->nDataLength;
; 827  : 		}
; 828  : 		if( pOldData->IsShared() )

  00017	7e 0e		 jle	 SHORT $LN3@PrepareWri

; 829  : 		{
; 830  : 			Fork( nLength );

  00019	56		 push	 esi
  0001a	8b cf		 mov	 ecx, edi
  0001c	e8 00 00 00 00	 call	 ?Fork@?$CSimpleStringT@D$0A@@ATL@@AAEXH@Z ; ATL::CSimpleStringT<char,0>::Fork
  00021	5f		 pop	 edi

; 850  : 		}
; 851  : 	}

  00022	5e		 pop	 esi
  00023	5d		 pop	 ebp
  00024	c2 04 00	 ret	 4
$LN3@PrepareWri:

; 831  : 		}
; 832  : 		else if( pOldData->nAllocLength < nLength )

  00027	8b 49 f8	 mov	 ecx, DWORD PTR [ecx-8]
  0002a	3b ce		 cmp	 ecx, esi
  0002c	7d 25		 jge	 SHORT $LN5@PrepareWri

; 833  : 		{
; 834  : 			// Grow exponentially, until we hit 1G, then by 1M thereafter.
; 835  : 			int nNewLength = pOldData->nAllocLength;
; 836  : 			if( nNewLength > 1024 * 1024 * 1024 )

  0002e	81 f9 00 00 00
	40		 cmp	 ecx, 1073741824		; 40000000H
  00034	7e 07		 jle	 SHORT $LN6@PrepareWri

; 837  : 			{
; 838  : 				nNewLength += 1024 * 1024;

  00036	b8 00 00 10 00	 mov	 eax, 1048576		; 00100000H

; 839  : 			}

  0003b	eb 07		 jmp	 SHORT $LN7@PrepareWri
$LN6@PrepareWri:

; 840  : 			else
; 841  : 			{
; 842  : 				// Exponential growth factor is 1.5.
; 843  : 				nNewLength = nNewLength + nNewLength / 2;

  0003d	8b c1		 mov	 eax, ecx
  0003f	99		 cdq
  00040	2b c2		 sub	 eax, edx
  00042	d1 f8		 sar	 eax, 1
$LN7@PrepareWri:

; 844  : 			}
; 845  : 			if( nNewLength < nLength )

  00044	03 c1		 add	 eax, ecx

; 846  : 			{
; 847  : 				nNewLength = nLength;
; 848  : 			}
; 849  : 			Reallocate( nNewLength );

  00046	8b cf		 mov	 ecx, edi
  00048	3b c6		 cmp	 eax, esi
  0004a	0f 4d f0	 cmovge	 esi, eax
  0004d	56		 push	 esi
  0004e	e8 00 00 00 00	 call	 ?Reallocate@?$CSimpleStringT@D$0A@@ATL@@AAEXH@Z ; ATL::CSimpleStringT<char,0>::Reallocate
$LN5@PrepareWri:

; 850  : 		}
; 851  : 	}

  00053	5f		 pop	 edi
  00054	5e		 pop	 esi
  00055	5d		 pop	 ebp
  00056	c2 04 00	 ret	 4
?PrepareWrite2@?$CSimpleStringT@D$0A@@ATL@@AAEXH@Z ENDP	; ATL::CSimpleStringT<char,0>::PrepareWrite2
_TEXT	ENDS
; Function compile flags: /Ogtp
; File C:\Program Files\Microsoft Visual Studio\2022\Professional\VC\Tools\MSVC\14.44.35207\atlmfc\include\atlsimpstr.h
; File C:\Program Files (x86)\Windows Kits\10\Include\10.0.26100.0\ucrt\corecrt_memcpy_s.h
; File C:\Program Files\Microsoft Visual Studio\2022\Professional\VC\Tools\MSVC\14.44.35207\atlmfc\include\atlsimpstr.h
;	COMDAT ?Fork@?$CSimpleStringT@D$0A@@ATL@@AAEXH@Z
_TEXT	SEGMENT
_this$1$ = -12						; size = 4
_nOldLength$1$ = -8					; size = 4
__Source$1$ = -4					; size = 4
_nLength$ = 8						; size = 4
_pNewData$1$ = 8					; size = 4
?Fork@?$CSimpleStringT@D$0A@@ATL@@AAEXH@Z PROC		; ATL::CSimpleStringT<char,0>::Fork, COMDAT
; _this$ = ecx

; 787  : 	{

  00000	55		 push	 ebp
  00001	8b ec		 mov	 ebp, esp
  00003	83 ec 0c	 sub	 esp, 12			; 0000000cH
  00006	8b c1		 mov	 eax, ecx
  00008	89 45 f4	 mov	 DWORD PTR _this$1$[ebp], eax
  0000b	53		 push	 ebx
  0000c	56		 push	 esi

; 804  : 		return( reinterpret_cast< CStringData* >( m_pszData )-1 );

  0000d	8b 00		 mov	 eax, DWORD PTR [eax]

; 790  : 		CStringData* pNewData = pOldData->pStringMgr->Clone()->Allocate( nLength, sizeof( XCHAR ) );

  0000f	8b 48 f0	 mov	 ecx, DWORD PTR [eax-16]

; 804  : 		return( reinterpret_cast< CStringData* >( m_pszData )-1 );

  00012	8d 58 f0	 lea	 ebx, DWORD PTR [eax-16]
  00015	89 45 fc	 mov	 DWORD PTR __Source$1$[ebp], eax

; 787  : 	{

  00018	57		 push	 edi

; 788  : 		CStringData* pOldData = GetData();
; 789  : 		int nOldLength = pOldData->nDataLength;

  00019	8b 7b 04	 mov	 edi, DWORD PTR [ebx+4]

; 790  : 		CStringData* pNewData = pOldData->pStringMgr->Clone()->Allocate( nLength, sizeof( XCHAR ) );

  0001c	8b 01		 mov	 eax, DWORD PTR [ecx]
  0001e	89 7d f8	 mov	 DWORD PTR _nOldLength$1$[ebp], edi
  00021	ff 50 10	 call	 DWORD PTR [eax+16]
  00024	8b 75 08	 mov	 esi, DWORD PTR _nLength$[ebp]
  00027	8b c8		 mov	 ecx, eax
  00029	6a 01		 push	 1
  0002b	56		 push	 esi
  0002c	8b 10		 mov	 edx, DWORD PTR [eax]
  0002e	ff 12		 call	 DWORD PTR [edx]
  00030	89 45 08	 mov	 DWORD PTR _pNewData$1$[ebp], eax

; 791  : 		if( pNewData == NULL )

  00033	85 c0		 test	 eax, eax
  00035	74 6c		 je	 SHORT $LN25@Fork

; 794  : 		}
; 795  : 		int nCharsToCopy = ((nOldLength < nLength) ? nOldLength : nLength)+1;  // Copy '\0'

  00037	3b fe		 cmp	 edi, esi
  00039	0f 4c f7	 cmovl	 esi, edi

; 796  : 		memcpy_s( PXSTR( pNewData->data() ), nCharsToCopy * sizeof( XCHAR ),

  0003c	8d 78 10	 lea	 edi, DWORD PTR [eax+16]
  0003f	83 c6 01	 add	 esi, 1
; File C:\Program Files (x86)\Windows Kits\10\Include\10.0.26100.0\ucrt\corecrt_memcpy_s.h

; 47   :         if (_SourceSize == 0)

  00042	74 33		 je	 SHORT $LN11@Fork

; 48   :         {
; 49   :             return 0;
; 50   :         }
; 51   : 
; 52   :         _CRT_MEMCPY_S_VALIDATE_RETURN_ERRCODE(_Destination != NULL, EINVAL);

  00044	85 ff		 test	 edi, edi
  00046	74 1f		 je	 SHORT $LN23@Fork

; 53   :         if (_Source == NULL || _DestinationSize < _SourceSize)

  00048	8b 45 fc	 mov	 eax, DWORD PTR __Source$1$[ebp]
  0004b	56		 push	 esi
  0004c	85 c0		 test	 eax, eax
  0004e	74 0c		 je	 SHORT $LN10@Fork

; 56   : 
; 57   :             _CRT_MEMCPY_S_VALIDATE_RETURN_ERRCODE(_Source != NULL,                 EINVAL);
; 58   :             _CRT_MEMCPY_S_VALIDATE_RETURN_ERRCODE(_DestinationSize >= _SourceSize, ERANGE);
; 59   : 
; 60   :             // Unreachable, but required to suppress /analyze warnings:
; 61   :             return EINVAL;
; 62   :         }
; 63   :         memcpy(_Destination, _Source, _SourceSize);

  00050	50		 push	 eax
  00051	57		 push	 edi
  00052	e8 00 00 00 00	 call	 _memcpy
  00057	83 c4 0c	 add	 esp, 12			; 0000000cH
  0005a	eb 1b		 jmp	 SHORT $LN11@Fork
$LN10@Fork:

; 54   :         {
; 55   :             memset(_Destination, 0, _DestinationSize);

  0005c	6a 00		 push	 0
  0005e	57		 push	 edi
  0005f	e8 00 00 00 00	 call	 _memset
  00064	83 c4 0c	 add	 esp, 12			; 0000000cH
$LN23@Fork:
; File C:\Program Files\Microsoft Visual Studio\2022\Professional\VC\Tools\MSVC\14.44.35207\atlmfc\include\atlsimpstr.h

; 798  : 		pNewData->nDataLength = nOldLength;

  00067	e8 00 00 00 00	 call	 __errno
  0006c	c7 00 16 00 00
	00		 mov	 DWORD PTR [eax], 22	; 00000016H
  00072	e8 00 00 00 00	 call	 __invalid_parameter_noinfo
$LN11@Fork:
  00077	8b 4d 08	 mov	 ecx, DWORD PTR _pNewData$1$[ebp]
  0007a	8b 45 f8	 mov	 eax, DWORD PTR _nOldLength$1$[ebp]
  0007d	89 41 04	 mov	 DWORD PTR [ecx+4], eax

; 92   : 		if( _InterlockedDecrement( &nRefs ) <= 0 )

  00080	83 c8 ff	 or	 eax, -1
  00083	f0 0f c1 43 0c	 lock	  xadd	 DWORD PTR [ebx+12], eax
  00088	48		 dec	 eax
  00089	85 c0		 test	 eax, eax
  0008b	7f 08		 jg	 SHORT $LN15@Fork

; 93   : 		{
; 94   : 			pStringMgr->Free( this );

  0008d	8b 0b		 mov	 ecx, DWORD PTR [ebx]
  0008f	53		 push	 ebx
  00090	8b 01		 mov	 eax, DWORD PTR [ecx]
  00092	ff 50 04	 call	 DWORD PTR [eax+4]
$LN15@Fork:

; 799  : 		pOldData->Release();
; 800  : 		Attach( pNewData );

  00095	8b 45 f4	 mov	 eax, DWORD PTR _this$1$[ebp]
  00098	89 38		 mov	 DWORD PTR [eax], edi

; 801  : 	}

  0009a	5f		 pop	 edi
  0009b	5e		 pop	 esi
  0009c	5b		 pop	 ebx
  0009d	8b e5		 mov	 esp, ebp
  0009f	5d		 pop	 ebp
  000a0	c2 04 00	 ret	 4
$LN25@Fork:

; 792  : 		{
; 793  : 			ThrowMemoryException();

  000a3	e8 00 00 00 00	 call	 ?ThrowMemoryException@?$CSimpleStringT@D$0A@@ATL@@KAXXZ ; ATL::CSimpleStringT<char,0>::ThrowMemoryException
$LN22@Fork:
  000a8	cc		 int	 3
?Fork@?$CSimpleStringT@D$0A@@ATL@@AAEXH@Z ENDP		; ATL::CSimpleStringT<char,0>::Fork
_TEXT	ENDS
; Function compile flags: /Ogtp
; File C:\Program Files\Microsoft Visual Studio\2022\Professional\VC\Tools\MSVC\14.44.35207\atlmfc\include\atlsimpstr.h
;	COMDAT ?ThrowMemoryException@?$CSimpleStringT@D$0A@@ATL@@KAXXZ
_TEXT	SEGMENT
?ThrowMemoryException@?$CSimpleStringT@D$0A@@ATL@@KAXXZ PROC ; ATL::CSimpleStringT<char,0>::ThrowMemoryException, COMDAT

; 777  : 		AtlThrow( E_OUTOFMEMORY );

  00000	68 0e 00 07 80	 push	 -2147024882		; 8007000eH
  00005	e8 00 00 00 00	 call	 ?AtlThrowImpl@ATL@@YGXJ@Z ; ATL::AtlThrowImpl
$LN3@ThrowMemor:
  0000a	cc		 int	 3
?ThrowMemoryException@?$CSimpleStringT@D$0A@@ATL@@KAXXZ ENDP ; ATL::CSimpleStringT<char,0>::ThrowMemoryException
_TEXT	ENDS
; Function compile flags: /Ogtp
; File C:\Program Files\Microsoft Visual Studio\2022\Professional\VC\Tools\MSVC\14.44.35207\atlmfc\include\atlsimpstr.h
;	COMDAT ?Empty@?$CSimpleStringT@D$0A@@ATL@@QAEXXZ
_TEXT	SEGMENT
?Empty@?$CSimpleStringT@D$0A@@ATL@@QAEXXZ PROC		; ATL::CSimpleStringT<char,0>::Empty, COMDAT
; _this$ = ecx

; 440  : 	{

  00000	56		 push	 esi
  00001	8b f1		 mov	 esi, ecx
  00003	57		 push	 edi

; 804  : 		return( reinterpret_cast< CStringData* >( m_pszData )-1 );

  00004	8b 06		 mov	 eax, DWORD PTR [esi]

; 443  : 		if( pOldData->nDataLength == 0 )

  00006	83 78 f4 00	 cmp	 DWORD PTR [eax-12], 0

; 804  : 		return( reinterpret_cast< CStringData* >( m_pszData )-1 );

  0000a	8d 50 f0	 lea	 edx, DWORD PTR [eax-16]

; 441  : 		CStringData* pOldData = GetData();
; 442  : 		IAtlStringMgr* pStringMgr = pOldData->pStringMgr;

  0000d	8b 3a		 mov	 edi, DWORD PTR [edx]

; 443  : 		if( pOldData->nDataLength == 0 )

  0000f	74 3e		 je	 SHORT $LN4@Empty

; 73   : 		return nRefs < 0;

  00011	83 7a 0c 00	 cmp	 DWORD PTR [edx+12], 0
  00015	8d 4a 0c	 lea	 ecx, DWORD PTR [edx+12]

; 444  : 		{
; 445  : 			return;
; 446  : 		}
; 447  : 
; 448  : 		if( pOldData->IsLocked() )

  00018	7d 15		 jge	 SHORT $LN3@Empty

; 875  : 		if( nLength < 0 || nLength > GetData()->nAllocLength)

  0001a	83 78 f8 00	 cmp	 DWORD PTR [eax-8], 0
  0001e	7c 32		 jl	 SHORT $LN28@Empty

; 877  : 
; 878  : 		GetData()->nDataLength = nLength;

  00020	c7 40 f4 00 00
	00 00		 mov	 DWORD PTR [eax-12], 0

; 879  : 		m_pszData[nLength] = 0;

  00027	8b 06		 mov	 eax, DWORD PTR [esi]
  00029	5f		 pop	 edi

; 458  : 		}
; 459  : 	}

  0002a	5e		 pop	 esi

; 879  : 		m_pszData[nLength] = 0;

  0002b	c6 00 00	 mov	 BYTE PTR [eax], 0

; 458  : 		}
; 459  : 	}

  0002e	c3		 ret	 0
$LN3@Empty:

; 92   : 		if( _InterlockedDecrement( &nRefs ) <= 0 )

  0002f	83 c8 ff	 or	 eax, -1
  00032	f0 0f c1 01	 lock	  xadd	 DWORD PTR [ecx], eax
  00036	48		 dec	 eax
  00037	85 c0		 test	 eax, eax
  00039	7f 08		 jg	 SHORT $LN20@Empty

; 93   : 		{
; 94   : 			pStringMgr->Free( this );

  0003b	8b 0a		 mov	 ecx, DWORD PTR [edx]
  0003d	52		 push	 edx
  0003e	8b 01		 mov	 eax, DWORD PTR [ecx]
  00040	ff 50 04	 call	 DWORD PTR [eax+4]
$LN20@Empty:

; 449  : 		{
; 450  : 			// Don't reallocate a locked buffer that's shrinking
; 451  : 			SetLength( 0 );
; 452  : 		}
; 453  : 		else
; 454  : 		{
; 455  : 			pOldData->Release();
; 456  : 			CStringData* pNewData = pStringMgr->GetNilString();

  00043	8b 07		 mov	 eax, DWORD PTR [edi]
  00045	8b cf		 mov	 ecx, edi
  00047	ff 50 0c	 call	 DWORD PTR [eax+12]

; 457  : 			Attach( pNewData );

  0004a	83 c0 10	 add	 eax, 16			; 00000010H
  0004d	89 06		 mov	 DWORD PTR [esi], eax
$LN4@Empty:

; 458  : 		}
; 459  : 	}

  0004f	5f		 pop	 edi
  00050	5e		 pop	 esi
  00051	c3		 ret	 0
$LN28@Empty:

; 876  : 			AtlThrow(E_INVALIDARG);

  00052	68 57 00 07 80	 push	 -2147024809		; 80070057H
  00057	e8 00 00 00 00	 call	 ?AtlThrowImpl@ATL@@YGXJ@Z ; ATL::AtlThrowImpl
$LN26@Empty:
  0005c	cc		 int	 3
?Empty@?$CSimpleStringT@D$0A@@ATL@@QAEXXZ ENDP		; ATL::CSimpleStringT<char,0>::Empty
_TEXT	ENDS
; Function compile flags: /Ogtp
; File C:\Program Files\Microsoft Visual Studio\2022\Professional\VC\Tools\MSVC\14.44.35207\atlmfc\include\atlsimpstr.h
; File C:\Program Files (x86)\Windows Kits\10\Include\10.0.26100.0\ucrt\corecrt_memcpy_s.h
; File C:\Program Files\Microsoft Visual Studio\2022\Professional\VC\Tools\MSVC\14.44.35207\atlmfc\include\atlsimpstr.h
; File C:\Program Files (x86)\Windows Kits\10\Include\10.0.26100.0\ucrt\corecrt_memcpy_s.h
; File C:\Program Files\Microsoft Visual Studio\2022\Professional\VC\Tools\MSVC\14.44.35207\atlmfc\include\atlsimpstr.h
;	COMDAT ??4?$CSimpleStringT@D$0A@@ATL@@QAEAAV01@ABV01@@Z
_TEXT	SEGMENT
_nOldLength$1$ = -8					; size = 4
_nOffset$1$ = -4					; size = 4
_strSrc$ = 8						; size = 4
tv481 = 8						; size = 4
??4?$CSimpleStringT@D$0A@@ATL@@QAEAAV01@ABV01@@Z PROC	; ATL::CSimpleStringT<char,0>::operator=, COMDAT
; _this$ = ecx

; 275  : 	{

  00000	55		 push	 ebp
  00001	8b ec		 mov	 ebp, esp

; 804  : 		return( reinterpret_cast< CStringData* >( m_pszData )-1 );

  00003	8b 45 08	 mov	 eax, DWORD PTR _strSrc$[ebp]

; 275  : 	{

  00006	83 ec 08	 sub	 esp, 8
  00009	53		 push	 ebx

; 804  : 		return( reinterpret_cast< CStringData* >( m_pszData )-1 );

  0000a	8b 18		 mov	 ebx, DWORD PTR [eax]

; 275  : 	{

  0000c	56		 push	 esi
  0000d	57		 push	 edi
  0000e	8b f9		 mov	 edi, ecx

; 804  : 		return( reinterpret_cast< CStringData* >( m_pszData )-1 );

  00010	8d 53 f0	 lea	 edx, DWORD PTR [ebx-16]
  00013	8b 0f		 mov	 ecx, DWORD PTR [edi]
  00015	8d 71 f0	 lea	 esi, DWORD PTR [ecx-16]

; 276  : 		CStringData* pSrcData = strSrc.GetData();
; 277  : 		CStringData* pOldData = GetData();
; 278  : 		if( pSrcData != pOldData)

  00018	3b d6		 cmp	 edx, esi
  0001a	74 37		 je	 SHORT $LN4@operator

; 73   : 		return nRefs < 0;

  0001c	8b 46 0c	 mov	 eax, DWORD PTR [esi+12]
  0001f	89 45 08	 mov	 DWORD PTR tv481[ebp], eax
  00022	85 c0		 test	 eax, eax

; 279  : 		{
; 280  : 			if( pOldData->IsLocked() || pSrcData->pStringMgr != pOldData->pStringMgr )

  00024	78 38		 js	 SHORT $LN5@operator
  00026	8b 02		 mov	 eax, DWORD PTR [edx]
  00028	3b 06		 cmp	 eax, DWORD PTR [esi]
  0002a	75 32		 jne	 SHORT $LN5@operator

; 283  : 			}
; 284  : 			else
; 285  : 			{
; 286  : 				CStringData* pNewData = CloneData( pSrcData );

  0002c	52		 push	 edx
  0002d	e8 00 00 00 00	 call	 ?CloneData@?$CSimpleStringT@D$0A@@ATL@@CAPAUCStringData@2@PAU32@@Z ; ATL::CSimpleStringT<char,0>::CloneData
  00032	83 c4 04	 add	 esp, 4

; 92   : 		if( _InterlockedDecrement( &nRefs ) <= 0 )

  00035	8d 56 0c	 lea	 edx, DWORD PTR [esi+12]

; 283  : 			}
; 284  : 			else
; 285  : 			{
; 286  : 				CStringData* pNewData = CloneData( pSrcData );

  00038	8b d8		 mov	 ebx, eax

; 92   : 		if( _InterlockedDecrement( &nRefs ) <= 0 )

  0003a	83 c9 ff	 or	 ecx, -1
  0003d	f0 0f c1 0a	 lock	  xadd	 DWORD PTR [edx], ecx
  00041	49		 dec	 ecx
  00042	85 c9		 test	 ecx, ecx
  00044	7f 08		 jg	 SHORT $LN75@operator

; 93   : 		{
; 94   : 			pStringMgr->Free( this );

  00046	8b 0e		 mov	 ecx, DWORD PTR [esi]
  00048	56		 push	 esi
  00049	8b 11		 mov	 edx, DWORD PTR [ecx]
  0004b	ff 52 04	 call	 DWORD PTR [edx+4]
$LN75@operator:

; 287  : 				pOldData->Release();
; 288  : 				Attach( pNewData );

  0004e	8d 43 10	 lea	 eax, DWORD PTR [ebx+16]
  00051	89 07		 mov	 DWORD PTR [edi], eax
$LN4@operator:

; 289  : 			}
; 290  : 		}
; 291  : 
; 292  : 		return( *this );

  00053	8b c7		 mov	 eax, edi
  00055	5f		 pop	 edi
  00056	5e		 pop	 esi
  00057	5b		 pop	 ebx

; 293  : 	}

  00058	8b e5		 mov	 esp, ebp
  0005a	5d		 pop	 ebp
  0005b	c2 04 00	 ret	 4
$LN5@operator:

; 281  : 			{
; 282  : 				SetString( strSrc.GetString(), strSrc.GetLength() );

  0005e	8b 73 f4	 mov	 esi, DWORD PTR [ebx-12]

; 612  : 		if( nLength == 0 )

  00061	85 f6		 test	 esi, esi
  00063	75 12		 jne	 SHORT $LN18@operator

; 613  : 		{
; 614  : 			Empty();

  00065	8b cf		 mov	 ecx, edi
  00067	e8 00 00 00 00	 call	 ?Empty@?$CSimpleStringT@D$0A@@ATL@@QAEXXZ ; ATL::CSimpleStringT<char,0>::Empty

; 289  : 			}
; 290  : 		}
; 291  : 
; 292  : 		return( *this );

  0006c	8b c7		 mov	 eax, edi
  0006e	5f		 pop	 edi
  0006f	5e		 pop	 esi
  00070	5b		 pop	 ebx

; 293  : 	}

  00071	8b e5		 mov	 esp, ebp
  00073	5d		 pop	 ebp
  00074	c2 04 00	 ret	 4
$LN18@operator:

; 624  : 			if(pszSrc == NULL)

  00077	85 db		 test	 ebx, ebx
  00079	0f 84 c9 00 00
	00		 je	 $LN66@operator

; 625  : 				AtlThrow(E_INVALIDARG);
; 626  : 
; 627  : 			UINT nOldLength = GetLength();

  0007f	8b 41 f4	 mov	 eax, DWORD PTR [ecx-12]

; 628  : 			UINT_PTR nOffset = pszSrc-GetString();

  00082	8b d3		 mov	 edx, ebx
  00084	2b d1		 sub	 edx, ecx
  00086	89 45 f8	 mov	 DWORD PTR _nOldLength$1$[ebp], eax
  00089	89 55 fc	 mov	 DWORD PTR _nOffset$1$[ebp], edx

; 808  : 		if (nLength < 0)

  0008c	85 f6		 test	 esi, esi
  0008e	0f 88 b4 00 00
	00		 js	 $LN66@operator

; 809  : 			AtlThrow(E_INVALIDARG);
; 810  : 
; 811  : 		CStringData* pOldData = GetData();
; 812  : 		int nShared = 1-pOldData->nRefs;  // nShared < 0 means true, >= 0 means false
; 813  : 		int nTooShort = pOldData->nAllocLength-nLength;  // nTooShort < 0 means true, >= 0 means false

  00094	8b 49 f8	 mov	 ecx, DWORD PTR [ecx-8]
  00097	b8 01 00 00 00	 mov	 eax, 1
  0009c	2b 45 08	 sub	 eax, DWORD PTR tv481[ebp]
  0009f	2b ce		 sub	 ecx, esi

; 814  : 		if( (nShared|nTooShort) < 0 )  // If either sign bit is set (i.e. either is less than zero), we need to copy data

  000a1	0b c8		 or	 ecx, eax
  000a3	7d 0b		 jge	 SHORT $LN32@operator

; 815  : 		{
; 816  : 			PrepareWrite2( nLength );

  000a5	56		 push	 esi
  000a6	8b cf		 mov	 ecx, edi
  000a8	e8 00 00 00 00	 call	 ?PrepareWrite2@?$CSimpleStringT@D$0A@@ATL@@AAEXH@Z ; ATL::CSimpleStringT<char,0>::PrepareWrite2
  000ad	8b 55 fc	 mov	 edx, DWORD PTR _nOffset$1$[ebp]
$LN32@operator:

; 632  : 			PXSTR pszBuffer = GetBuffer( nLength );

  000b0	8b 07		 mov	 eax, DWORD PTR [edi]
  000b2	8b 48 f8	 mov	 ecx, DWORD PTR [eax-8]

; 633  : 			if( nOffset <= nOldLength )

  000b5	3b 55 f8	 cmp	 edx, DWORD PTR _nOldLength$1$[ebp]
  000b8	77 35		 ja	 SHORT $LN21@operator

; 634  : 			{
; 635  : 				CopyCharsOverlapped( pszBuffer, GetAllocLength(),

  000ba	03 d0		 add	 edx, eax
; File C:\Program Files (x86)\Windows Kits\10\Include\10.0.26100.0\ucrt\corecrt_memcpy_s.h

; 81   :         _CRT_MEMCPY_S_VALIDATE_RETURN_ERRCODE(_Destination != NULL,            EINVAL);

  000bc	85 c0		 test	 eax, eax
  000be	75 0d		 jne	 SHORT $LN46@operator
  000c0	e8 00 00 00 00	 call	 __errno
  000c5	c7 00 16 00 00
	00		 mov	 DWORD PTR [eax], 22	; 00000016H
  000cb	eb 5b		 jmp	 SHORT $LN95@operator
$LN46@operator:

; 82   :         _CRT_MEMCPY_S_VALIDATE_RETURN_ERRCODE(_Source != NULL,                 EINVAL);

  000cd	85 d2		 test	 edx, edx
  000cf	75 0d		 jne	 SHORT $LN47@operator
  000d1	e8 00 00 00 00	 call	 __errno
  000d6	c7 00 16 00 00
	00		 mov	 DWORD PTR [eax], 22	; 00000016H
  000dc	eb 4a		 jmp	 SHORT $LN95@operator
$LN47@operator:

; 83   :         _CRT_MEMCPY_S_VALIDATE_RETURN_ERRCODE(_DestinationSize >= _SourceSize, ERANGE);

  000de	3b ce		 cmp	 ecx, esi
  000e0	72 3b		 jb	 SHORT $LN96@operator

; 84   : 
; 85   :         memmove(_Destination, _Source, _SourceSize);

  000e2	56		 push	 esi
  000e3	52		 push	 edx
  000e4	50		 push	 eax
  000e5	e8 00 00 00 00	 call	 _memmove
  000ea	83 c4 0c	 add	 esp, 12			; 0000000cH
; File C:\Program Files\Microsoft Visual Studio\2022\Professional\VC\Tools\MSVC\14.44.35207\atlmfc\include\atlsimpstr.h

; 637  : 			}

  000ed	eb 3e		 jmp	 SHORT $LN60@operator
$LN21@operator:
; File C:\Program Files (x86)\Windows Kits\10\Include\10.0.26100.0\ucrt\corecrt_memcpy_s.h

; 52   :         _CRT_MEMCPY_S_VALIDATE_RETURN_ERRCODE(_Destination != NULL, EINVAL);

  000ef	85 c0		 test	 eax, eax
  000f1	75 0d		 jne	 SHORT $LN56@operator
  000f3	e8 00 00 00 00	 call	 __errno
  000f8	c7 00 16 00 00
	00		 mov	 DWORD PTR [eax], 22	; 00000016H
  000fe	eb 28		 jmp	 SHORT $LN95@operator
$LN56@operator:

; 53   :         if (_Source == NULL || _DestinationSize < _SourceSize)

  00100	3b ce		 cmp	 ecx, esi
  00102	72 0d		 jb	 SHORT $LN58@operator

; 56   : 
; 57   :             _CRT_MEMCPY_S_VALIDATE_RETURN_ERRCODE(_Source != NULL,                 EINVAL);
; 58   :             _CRT_MEMCPY_S_VALIDATE_RETURN_ERRCODE(_DestinationSize >= _SourceSize, ERANGE);
; 59   : 
; 60   :             // Unreachable, but required to suppress /analyze warnings:
; 61   :             return EINVAL;
; 62   :         }
; 63   :         memcpy(_Destination, _Source, _SourceSize);

  00104	56		 push	 esi
  00105	53		 push	 ebx
  00106	50		 push	 eax
  00107	e8 00 00 00 00	 call	 _memcpy
  0010c	83 c4 0c	 add	 esp, 12			; 0000000cH
  0010f	eb 1c		 jmp	 SHORT $LN60@operator
$LN58@operator:

; 54   :         {
; 55   :             memset(_Destination, 0, _DestinationSize);

  00111	51		 push	 ecx
  00112	6a 00		 push	 0
  00114	50		 push	 eax
  00115	e8 00 00 00 00	 call	 _memset
  0011a	83 c4 0c	 add	 esp, 12			; 0000000cH
$LN96@operator:
; File C:\Program Files\Microsoft Visual Studio\2022\Professional\VC\Tools\MSVC\14.44.35207\atlmfc\include\atlsimpstr.h

; 875  : 		if( nLength < 0 || nLength > GetData()->nAllocLength)

  0011d	e8 00 00 00 00	 call	 __errno
  00122	c7 00 22 00 00
	00		 mov	 DWORD PTR [eax], 34	; 00000022H
$LN95@operator:
  00128	e8 00 00 00 00	 call	 __invalid_parameter_noinfo
$LN60@operator:
  0012d	8b 07		 mov	 eax, DWORD PTR [edi]
  0012f	3b 70 f8	 cmp	 esi, DWORD PTR [eax-8]
  00132	7f 14		 jg	 SHORT $LN66@operator

; 877  : 
; 878  : 		GetData()->nDataLength = nLength;

  00134	89 70 f4	 mov	 DWORD PTR [eax-12], esi

; 879  : 		m_pszData[nLength] = 0;

  00137	8b 07		 mov	 eax, DWORD PTR [edi]
  00139	c6 04 06 00	 mov	 BYTE PTR [esi+eax], 0

; 289  : 			}
; 290  : 		}
; 291  : 
; 292  : 		return( *this );

  0013d	8b c7		 mov	 eax, edi
  0013f	5f		 pop	 edi
  00140	5e		 pop	 esi
  00141	5b		 pop	 ebx

; 293  : 	}

  00142	8b e5		 mov	 esp, ebp
  00144	5d		 pop	 ebp
  00145	c2 04 00	 ret	 4
$LN66@operator:

; 876  : 			AtlThrow(E_INVALIDARG);

  00148	68 57 00 07 80	 push	 -2147024809		; 80070057H
  0014d	e8 00 00 00 00	 call	 ?AtlThrowImpl@ATL@@YGXJ@Z ; ATL::AtlThrowImpl
$LN94@operator:
  00152	cc		 int	 3
??4?$CSimpleStringT@D$0A@@ATL@@QAEAAV01@ABV01@@Z ENDP	; ATL::CSimpleStringT<char,0>::operator=
_TEXT	ENDS
; Function compile flags: /Ogtp
; File C:\Program Files\Microsoft Visual Studio\2022\Professional\VC\Tools\MSVC\14.44.35207\atlmfc\include\atlexcept.h
;	COMDAT ?AtlThrowImpl@ATL@@YGXJ@Z
_TEXT	SEGMENT
_hr$ = 8						; size = 4
?AtlThrowImpl@ATL@@YGXJ@Z PROC				; ATL::AtlThrowImpl, COMDAT

; 69   : {

  00000	55		 push	 ebp
  00001	8b ec		 mov	 ebp, esp

; 70   : 	ATLTRACE(atlTraceException, 0, _T("AtlThrow: hr = 0x%x\n"), hr );
; 71   : #ifdef _AFX
; 72   : 	if( hr == E_OUTOFMEMORY )

  00003	8b 45 08	 mov	 eax, DWORD PTR _hr$[ebp]
  00006	3d 0e 00 07 80	 cmp	 eax, -2147024882	; 8007000eH
  0000b	75 05		 jne	 SHORT $LN2@AtlThrowIm

; 73   : 	{
; 74   : 		AfxThrowMemoryException();

  0000d	e8 00 00 00 00	 call	 ?AfxThrowMemoryException@@YGXXZ ; AfxThrowMemoryException
$LN2@AtlThrowIm:

; 75   : 	}
; 76   : 	else
; 77   : 	{
; 78   : 		AfxThrowOleException( hr );

  00012	50		 push	 eax
  00013	e8 00 00 00 00	 call	 ?AfxThrowOleException@@YGXJ@Z ; AfxThrowOleException
$LN5@AtlThrowIm:
  00018	cc		 int	 3
?AtlThrowImpl@ATL@@YGXJ@Z ENDP				; ATL::AtlThrowImpl
_TEXT	ENDS
; Function compile flags: /Ogtp
; File C:\IAGOS\server\v18\Source\Source\_Common\honor.cpp
;	COMDAT ?__empty_global_delete@@YAXPAXI@Z
_TEXT	SEGMENT
___formal$ = 8						; size = 4
___formal$ = 12						; size = 4
?__empty_global_delete@@YAXPAXI@Z PROC			; __empty_global_delete, COMDAT

  00000	c2 00 00	 ret	 0
?__empty_global_delete@@YAXPAXI@Z ENDP			; __empty_global_delete
_TEXT	ENDS
; Function compile flags: /Ogtp
; File C:\IAGOS\server\v18\Source\Source\_Common\honor.cpp
;	COMDAT ?__empty_global_delete@@YAXPAX@Z
_TEXT	SEGMENT
___formal$ = 8						; size = 4
?__empty_global_delete@@YAXPAX@Z PROC			; __empty_global_delete, COMDAT

  00000	c2 00 00	 ret	 0
?__empty_global_delete@@YAXPAX@Z ENDP			; __empty_global_delete
_TEXT	ENDS
END
