; Listing generated by Microsoft (R) Optimizing Compiler Version 19.44.35225.0 

	TITLE	C:\IAGOS\server\v18\Source\Output\DatabaseServer\Release\HousingDBCtrl.obj
	.686P
	.XMM
	include listing.inc
	.model	flat

INCLUDELIB LIBCMT
INCLUDELIB OLDNAMES

PUBLIC	?__empty_global_delete@@YAXPAX@Z		; __empty_global_delete
PUBLIC	?__empty_global_delete@@YAXPAXI@Z		; __empty_global_delete
PUBLIC	??0HOUSINGINFO@@QAE@XZ				; HOUSINGINFO::HOUSINGINFO
PUBLIC	??$?6K@CAr@@QAEAAV0@ABK@Z			; CAr::operator<<<unsigned long>
PUBLIC	??$?6J@CAr@@QAEAAV0@ABJ@Z			; CAr::operator<<<long>
PUBLIC	??$?6H@CAr@@QAEAAV0@ABH@Z			; CAr::operator<<<int>
PUBLIC	??$?6UD3DXVECTOR3@@@CAr@@QAEAAV0@ABUD3DXVECTOR3@@@Z ; CAr::operator<<<D3DXVECTOR3>
PUBLIC	??$?6M@CAr@@QAEAAV0@ABM@Z			; CAr::operator<<<float>
PUBLIC	??$?5K@CAr@@QAEAAV0@AAK@Z			; CAr::operator>><unsigned long>
PUBLIC	??$?5J@CAr@@QAEAAV0@AAJ@Z			; CAr::operator>><long>
PUBLIC	??$?5H@CAr@@QAEAAV0@AAH@Z			; CAr::operator>><int>
PUBLIC	??$?5UD3DXVECTOR3@@@CAr@@QAEAAV0@AAUD3DXVECTOR3@@@Z ; CAr::operator>><D3DXVECTOR3>
PUBLIC	??$?5M@CAr@@QAEAAV0@AAM@Z			; CAr::operator>><float>
PUBLIC	??0CHousingDBCtrl@@QAE@XZ			; CHousingDBCtrl::CHousingDBCtrl
PUBLIC	??1CHousingDBCtrl@@UAE@XZ			; CHousingDBCtrl::~CHousingDBCtrl
PUBLIC	?Handler@CHousingDBCtrl@@UAEXPAUtagDB_OVERLAPPED_PLUS@@K@Z ; CHousingDBCtrl::Handler
PUBLIC	?OnTimer@CHousingDBCtrl@@UAEXXZ			; CHousingDBCtrl::OnTimer
PUBLIC	?DeleteFurnitureList@CHousingDBCtrl@@QAEXKUHOUSINGINFO@@@Z ; CHousingDBCtrl::DeleteFurnitureList
PUBLIC	?LoadHousingInfo@CHousingDBCtrl@@AAEXKK@Z	; CHousingDBCtrl::LoadHousingInfo
PUBLIC	?InsertFurnitureList@CHousingDBCtrl@@AAEXKKK@Z	; CHousingDBCtrl::InsertFurnitureList
PUBLIC	?SetupFurniture@CHousingDBCtrl@@AAEXKUHOUSINGINFO@@K@Z ; CHousingDBCtrl::SetupFurniture
PUBLIC	?SetVisitAllow@CHousingDBCtrl@@AAEXKKHK@Z	; CHousingDBCtrl::SetVisitAllow
PUBLIC	??_GCHousingDBCtrl@@UAEPAXI@Z			; CHousingDBCtrl::`scalar deleting destructor'
PUBLIC	??0CHousingDBMng@@QAE@XZ			; CHousingDBMng::CHousingDBMng
PUBLIC	??1CHousingDBMng@@QAE@XZ			; CHousingDBMng::~CHousingDBMng
PUBLIC	?GetInstance@CHousingDBMng@@SAPAV1@XZ		; CHousingDBMng::GetInstance
PUBLIC	?DeleteFurnitureList@CHousingDBMng@@QAEXKUHOUSINGINFO@@@Z ; CHousingDBMng::DeleteFurnitureList
PUBLIC	??_7CHousingDBCtrl@@6B@				; CHousingDBCtrl::`vftable'
PUBLIC	??_C@_0CA@NFCFKOJP@usp_Housing_Load?5?8?$CF02d?8?0?5?8?$CF07d?8@ ; `string'
PUBLIC	??_C@_09LCBEKCCJ@ItemIndex@			; `string'
PUBLIC	??_C@_09CGIPPJPO@tKeepTime@			; `string'
PUBLIC	??_C@_06DMCKBLKP@bSetup@			; `string'
PUBLIC	??_C@_05JPJLCAGA@x_Pos@				; `string'
PUBLIC	??_C@_05FEMHPDMF@y_Pos@				; `string'
PUBLIC	??_C@_05NCFDIBGL@z_Pos@				; `string'
PUBLIC	??_C@_06JHEFCLKH@fAngle@			; `string'
PUBLIC	??_C@_0L@HNPENDNB@f_idPlayer@			; `string'
PUBLIC	??_C@_0CN@ICOIMLLE@usp_Housing_Insert?5?8?$CF02d?8?0?5?8?$CF07@ ; `string'
PUBLIC	??_C@_0DK@FBACIBIF@usp_Housing_Update?5?8?$CF02d?8?0?5?8?$CF07@ ; `string'
PUBLIC	??_C@_0CD@CDDEIHOG@usp_Housing_Del?5?8?$CF02d?8?0?5?8?$CF07d?8?0@ ; `string'
PUBLIC	??_C@_0BJ@CDCPMAOK@usp_Housing_Visit_Insert@	; `string'
PUBLIC	??_C@_0BJ@JNNLAOBI@usp_Housing_Visit_Delete@	; `string'
PUBLIC	??_C@_0BK@KKLDPFFP@?$CFs?5?8?$CF02d?8?0?5?8?$CF07d?8?0?5?8?$CF07d?8@ ; `string'
PUBLIC	??_C@_0DC@PHOJNPH@CHousingDBMng?5?9?5m_HousingDBCtrl@ ; `string'
PUBLIC	??_R4CHousingDBCtrl@@6B@			; CHousingDBCtrl::`RTTI Complete Object Locator'
PUBLIC	??_R0?AVCHousingDBCtrl@@@8			; CHousingDBCtrl `RTTI Type Descriptor'
PUBLIC	??_R3CHousingDBCtrl@@8				; CHousingDBCtrl::`RTTI Class Hierarchy Descriptor'
PUBLIC	??_R2CHousingDBCtrl@@8				; CHousingDBCtrl::`RTTI Base Class Array'
PUBLIC	??_R1A@?0A@EA@CHousingDBCtrl@@8			; CHousingDBCtrl::`RTTI Base Class Descriptor at (0,-1,0,64)'
PUBLIC	??_R1A@?0A@EA@CDbController@@8			; CDbController::`RTTI Base Class Descriptor at (0,-1,0,64)'
PUBLIC	??_R0?AVCDbController@@@8			; CDbController `RTTI Type Descriptor'
PUBLIC	??_R3CDbController@@8				; CDbController::`RTTI Class Hierarchy Descriptor'
PUBLIC	??_R2CDbController@@8				; CDbController::`RTTI Base Class Array'
EXTRN	??3@YAXPAXI@Z:PROC				; operator delete
EXTRN	_atexit:PROC
EXTRN	__Init_thread_header:PROC
EXTRN	__Init_thread_abort:PROC
EXTRN	__Init_thread_footer:PROC
EXTRN	__time32:PROC
EXTRN	__time64:PROC
EXTRN	?Error@@YAPBDPBDZZ:PROC				; Error
EXTRN	?Execute@CQuery@@QAAHPBDZZ:PROC			; CQuery::Execute
EXTRN	?Fetch@CQuery@@QAEHXZ:PROC			; CQuery::Fetch
EXTRN	?GetInt@CQuery@@QAEHPAD@Z:PROC			; CQuery::GetInt
EXTRN	?GetInt64@CQuery@@QAE_JPAD@Z:PROC		; CQuery::GetInt64
EXTRN	?GetFloat@CQuery@@QAEMPAD@Z:PROC		; CQuery::GetFloat
EXTRN	?MoreResults@CQuery@@QAEHXZ:PROC		; CQuery::MoreResults
EXTRN	??0CAr@@QAE@PAXI@Z:PROC				; CAr::CAr
EXTRN	??1CAr@@QAE@XZ:PROC				; CAr::~CAr
EXTRN	?CheckBuf@CAr@@QAEXI@Z:PROC			; CAr::CheckBuf
EXTRN	??0CDbController@@QAE@XZ:PROC			; CDbController::CDbController
EXTRN	??1CDbController@@UAE@XZ:PROC			; CDbController::~CDbController
EXTRN	?CreateDbHandler@CDbController@@QAEHK@Z:PROC	; CDbController::CreateDbHandler
EXTRN	?CloseDbHandler@CDbController@@QAEXXZ:PROC	; CDbController::CloseDbHandler
EXTRN	?SetFurnitureList@CHousing@@QAEXAAUHOUSINGINFO@@H@Z:PROC ; CHousing::SetFurnitureList
EXTRN	?SetVisitAllow@CHousing@@QAEXKH@Z:PROC		; CHousing::SetVisitAllow
EXTRN	?ProcessExpiredFurniture@CHousing@@QAEXJH@Z:PROC ; CHousing::ProcessExpiredFurniture
EXTRN	?GetInstance@CHousingMng@@SAPAV1@XZ:PROC	; CHousingMng::GetInstance
EXTRN	?CreateHousing@CHousingMng@@QAEPAVCHousing@@K@Z:PROC ; CHousingMng::CreateHousing
EXTRN	?GetHousing@CHousingMng@@QAEPAVCHousing@@K@Z:PROC ; CHousingMng::GetHousing
EXTRN	?SetFurnitureList@CHousingMng@@QAEXKAAUHOUSINGINFO@@H@Z:PROC ; CHousingMng::SetFurnitureList
EXTRN	?SetupFurniture@CHousingMng@@QAEXKUHOUSINGINFO@@@Z:PROC ; CHousingMng::SetupFurniture
EXTRN	?SetVisitAllow@CHousingMng@@QAEXKKH@Z:PROC	; CHousingMng::SetVisitAllow
EXTRN	?ProcessRemoveExpiredFurniture@CHousingMng@@QAEXXZ:PROC ; CHousingMng::ProcessRemoveExpiredFurniture
EXTRN	??_ECHousingDBCtrl@@UAEPAXI@Z:PROC		; CHousingDBCtrl::`vector deleting destructor'
EXTRN	?GetInstance@CDPTrans@@SAPAV1@XZ:PROC		; CDPTrans::GetInstance
EXTRN	?SendHousingLoadInfo@CDPTrans@@QAEXKPAVCHousing@@K@Z:PROC ; CDPTrans::SendHousingLoadInfo
EXTRN	?SendHousingFurnitureList@CDPTrans@@QAEXKAAUHOUSINGINFO@@HK@Z:PROC ; CDPTrans::SendHousingFurnitureList
EXTRN	?SendHousingSetupFurniture@CDPTrans@@QAEXKUHOUSINGINFO@@K@Z:PROC ; CDPTrans::SendHousingSetupFurniture
EXTRN	?SendHousingSetVisitAllow@CDPTrans@@QAEXKKHK@Z:PROC ; CDPTrans::SendHousingSetVisitAllow
EXTRN	?SendHousingDBFailed@CDPTrans@@QAEXKKK@Z:PROC	; CDPTrans::SendHousingDBFailed
EXTRN	@__security_check_cookie@4:PROC
EXTRN	___CxxFrameHandler3:PROC
EXTRN	__allmul:PROC
EXTRN	__chkstk:PROC
EXTRN	__Init_thread_epoch:DWORD
EXTRN	??_7type_info@@6B@:QWORD			; type_info::`vftable'
EXTRN	?prj@@3VCProject@@A:BYTE			; prj
EXTRN	?g_appInfo@@3UAppInfo@@A:QWORD			; g_appInfo
EXTRN	___security_cookie:DWORD
EXTRN	__fltused:DWORD
EXTRN	__tls_array:DWORD
EXTRN	__tls_index:DWORD
;	COMDAT ?sHousingDBMng@?1??GetInstance@CHousingDBMng@@SAPAV2@XZ@4V2@A
_BSS	SEGMENT
?sHousingDBMng@?1??GetInstance@CHousingDBMng@@SAPAV2@XZ@4V2@A DB 014H DUP (?) ; `CHousingDBMng::GetInstance'::`2'::sHousingDBMng
_BSS	ENDS
;	COMDAT ?$TSS0@?1??GetInstance@CHousingDBMng@@SAPAV2@XZ@4HA
_BSS	SEGMENT
?$TSS0@?1??GetInstance@CHousingDBMng@@SAPAV2@XZ@4HA DD 01H DUP (?) ; `CHousingDBMng::GetInstance'::`2'::$TSS0
_BSS	ENDS
;	COMDAT ??_R2CDbController@@8
rdata$r	SEGMENT
??_R2CDbController@@8 DD FLAT:??_R1A@?0A@EA@CDbController@@8 ; CDbController::`RTTI Base Class Array'
rdata$r	ENDS
;	COMDAT ??_R3CDbController@@8
rdata$r	SEGMENT
??_R3CDbController@@8 DD 00H				; CDbController::`RTTI Class Hierarchy Descriptor'
	DD	00H
	DD	01H
	DD	FLAT:??_R2CDbController@@8
rdata$r	ENDS
;	COMDAT ??_R0?AVCDbController@@@8
data$rs	SEGMENT
??_R0?AVCDbController@@@8 DD FLAT:??_7type_info@@6B@	; CDbController `RTTI Type Descriptor'
	DD	00H
	DB	'.?AVCDbController@@', 00H
data$rs	ENDS
;	COMDAT ??_R1A@?0A@EA@CDbController@@8
rdata$r	SEGMENT
??_R1A@?0A@EA@CDbController@@8 DD FLAT:??_R0?AVCDbController@@@8 ; CDbController::`RTTI Base Class Descriptor at (0,-1,0,64)'
	DD	00H
	DD	00H
	DD	0ffffffffH
	DD	00H
	DD	040H
	DD	FLAT:??_R3CDbController@@8
rdata$r	ENDS
;	COMDAT ??_R1A@?0A@EA@CHousingDBCtrl@@8
rdata$r	SEGMENT
??_R1A@?0A@EA@CHousingDBCtrl@@8 DD FLAT:??_R0?AVCHousingDBCtrl@@@8 ; CHousingDBCtrl::`RTTI Base Class Descriptor at (0,-1,0,64)'
	DD	01H
	DD	00H
	DD	0ffffffffH
	DD	00H
	DD	040H
	DD	FLAT:??_R3CHousingDBCtrl@@8
rdata$r	ENDS
;	COMDAT ??_R2CHousingDBCtrl@@8
rdata$r	SEGMENT
??_R2CHousingDBCtrl@@8 DD FLAT:??_R1A@?0A@EA@CHousingDBCtrl@@8 ; CHousingDBCtrl::`RTTI Base Class Array'
	DD	FLAT:??_R1A@?0A@EA@CDbController@@8
rdata$r	ENDS
;	COMDAT ??_R3CHousingDBCtrl@@8
rdata$r	SEGMENT
??_R3CHousingDBCtrl@@8 DD 00H				; CHousingDBCtrl::`RTTI Class Hierarchy Descriptor'
	DD	00H
	DD	02H
	DD	FLAT:??_R2CHousingDBCtrl@@8
rdata$r	ENDS
;	COMDAT ??_R0?AVCHousingDBCtrl@@@8
data$rs	SEGMENT
??_R0?AVCHousingDBCtrl@@@8 DD FLAT:??_7type_info@@6B@	; CHousingDBCtrl `RTTI Type Descriptor'
	DD	00H
	DB	'.?AVCHousingDBCtrl@@', 00H
data$rs	ENDS
;	COMDAT ??_R4CHousingDBCtrl@@6B@
rdata$r	SEGMENT
??_R4CHousingDBCtrl@@6B@ DD 00H				; CHousingDBCtrl::`RTTI Complete Object Locator'
	DD	00H
	DD	00H
	DD	FLAT:??_R0?AVCHousingDBCtrl@@@8
	DD	FLAT:??_R3CHousingDBCtrl@@8
rdata$r	ENDS
;	COMDAT ??_C@_0DC@PHOJNPH@CHousingDBMng?5?9?5m_HousingDBCtrl@
CONST	SEGMENT
??_C@_0DC@PHOJNPH@CHousingDBMng?5?9?5m_HousingDBCtrl@ DB 'CHousingDBMng -'
	DB	' m_HousingDBCtrl.CreateDbHandler()', 00H	; `string'
CONST	ENDS
;	COMDAT ??_C@_0BK@KKLDPFFP@?$CFs?5?8?$CF02d?8?0?5?8?$CF07d?8?0?5?8?$CF07d?8@
CONST	SEGMENT
??_C@_0BK@KKLDPFFP@?$CFs?5?8?$CF02d?8?0?5?8?$CF07d?8?0?5?8?$CF07d?8@ DB '%'
	DB	's ''%02d'', ''%07d'', ''%07d''', 00H	; `string'
CONST	ENDS
;	COMDAT ??_C@_0BJ@JNNLAOBI@usp_Housing_Visit_Delete@
CONST	SEGMENT
??_C@_0BJ@JNNLAOBI@usp_Housing_Visit_Delete@ DB 'usp_Housing_Visit_Delete'
	DB	00H						; `string'
CONST	ENDS
;	COMDAT ??_C@_0BJ@CDCPMAOK@usp_Housing_Visit_Insert@
CONST	SEGMENT
??_C@_0BJ@CDCPMAOK@usp_Housing_Visit_Insert@ DB 'usp_Housing_Visit_Insert'
	DB	00H						; `string'
CONST	ENDS
;	COMDAT ??_C@_0CD@CDDEIHOG@usp_Housing_Del?5?8?$CF02d?8?0?5?8?$CF07d?8?0@
CONST	SEGMENT
??_C@_0CD@CDDEIHOG@usp_Housing_Del?5?8?$CF02d?8?0?5?8?$CF07d?8?0@ DB 'usp'
	DB	'_Housing_Del ''%02d'', ''%07d'', %d', 00H	; `string'
CONST	ENDS
;	COMDAT ??_C@_0DK@FBACIBIF@usp_Housing_Update?5?8?$CF02d?8?0?5?8?$CF07@
CONST	SEGMENT
??_C@_0DK@FBACIBIF@usp_Housing_Update?5?8?$CF02d?8?0?5?8?$CF07@ DB 'usp_H'
	DB	'ousing_Update ''%02d'', ''%07d'', %d, %d, %f, %f, %f, %f', 00H ; `string'
CONST	ENDS
;	COMDAT ??_C@_0CN@ICOIMLLE@usp_Housing_Insert?5?8?$CF02d?8?0?5?8?$CF07@
CONST	SEGMENT
??_C@_0CN@ICOIMLLE@usp_Housing_Insert?5?8?$CF02d?8?0?5?8?$CF07@ DB 'usp_H'
	DB	'ousing_Insert ''%02d'', ''%07d'', %d, %I64d', 00H ; `string'
CONST	ENDS
;	COMDAT ??_C@_0L@HNPENDNB@f_idPlayer@
CONST	SEGMENT
??_C@_0L@HNPENDNB@f_idPlayer@ DB 'f_idPlayer', 00H	; `string'
CONST	ENDS
;	COMDAT ??_C@_06JHEFCLKH@fAngle@
CONST	SEGMENT
??_C@_06JHEFCLKH@fAngle@ DB 'fAngle', 00H		; `string'
CONST	ENDS
;	COMDAT ??_C@_05NCFDIBGL@z_Pos@
CONST	SEGMENT
??_C@_05NCFDIBGL@z_Pos@ DB 'z_Pos', 00H			; `string'
CONST	ENDS
;	COMDAT ??_C@_05FEMHPDMF@y_Pos@
CONST	SEGMENT
??_C@_05FEMHPDMF@y_Pos@ DB 'y_Pos', 00H			; `string'
CONST	ENDS
;	COMDAT ??_C@_05JPJLCAGA@x_Pos@
CONST	SEGMENT
??_C@_05JPJLCAGA@x_Pos@ DB 'x_Pos', 00H			; `string'
CONST	ENDS
;	COMDAT ??_C@_06DMCKBLKP@bSetup@
CONST	SEGMENT
??_C@_06DMCKBLKP@bSetup@ DB 'bSetup', 00H		; `string'
CONST	ENDS
;	COMDAT ??_C@_09CGIPPJPO@tKeepTime@
CONST	SEGMENT
??_C@_09CGIPPJPO@tKeepTime@ DB 'tKeepTime', 00H		; `string'
CONST	ENDS
;	COMDAT ??_C@_09LCBEKCCJ@ItemIndex@
CONST	SEGMENT
??_C@_09LCBEKCCJ@ItemIndex@ DB 'ItemIndex', 00H		; `string'
CONST	ENDS
;	COMDAT ??_C@_0CA@NFCFKOJP@usp_Housing_Load?5?8?$CF02d?8?0?5?8?$CF07d?8@
CONST	SEGMENT
??_C@_0CA@NFCFKOJP@usp_Housing_Load?5?8?$CF02d?8?0?5?8?$CF07d?8@ DB 'usp_'
	DB	'Housing_Load ''%02d'', ''%07d''', 00H	; `string'
CONST	ENDS
;	COMDAT ??_7CHousingDBCtrl@@6B@
CONST	SEGMENT
??_7CHousingDBCtrl@@6B@ DD FLAT:??_R4CHousingDBCtrl@@6B@ ; CHousingDBCtrl::`vftable'
	DD	FLAT:??_ECHousingDBCtrl@@UAEPAXI@Z
	DD	FLAT:?Handler@CHousingDBCtrl@@UAEXPAUtagDB_OVERLAPPED_PLUS@@K@Z
	DD	FLAT:?OnTimer@CHousingDBCtrl@@UAEXXZ
CONST	ENDS
;	COMDAT xdata$x
xdata$x	SEGMENT
__unwindtable$?GetInstance@CHousingDBMng@@SAPAV1@XZ DD 0ffffffffH
	DD	FLAT:__unwindfunclet$?GetInstance@CHousingDBMng@@SAPAV1@XZ$0
__ehfuncinfo$?GetInstance@CHousingDBMng@@SAPAV1@XZ DD 019930522H
	DD	01H
	DD	FLAT:__unwindtable$?GetInstance@CHousingDBMng@@SAPAV1@XZ
	DD	2 DUP(00H)
	DD	2 DUP(00H)
	DD	00H
	DD	01H
xdata$x	ENDS
;	COMDAT xdata$x
xdata$x	SEGMENT
__ehfuncinfo$??1CHousingDBMng@@QAE@XZ DD 019930522H
	DD	00H
	DD	00H
	DD	2 DUP(00H)
	DD	2 DUP(00H)
	DD	00H
	DD	05H
xdata$x	ENDS
;	COMDAT xdata$x
xdata$x	SEGMENT
__unwindtable$??0CHousingDBMng@@QAE@XZ DD 0ffffffffH
	DD	FLAT:__unwindfunclet$??0CHousingDBMng@@QAE@XZ$0
__ehfuncinfo$??0CHousingDBMng@@QAE@XZ DD 019930522H
	DD	01H
	DD	FLAT:__unwindtable$??0CHousingDBMng@@QAE@XZ
	DD	2 DUP(00H)
	DD	2 DUP(00H)
	DD	00H
	DD	01H
xdata$x	ENDS
;	COMDAT xdata$x
xdata$x	SEGMENT
__unwindtable$?Handler@CHousingDBCtrl@@UAEXPAUtagDB_OVERLAPPED_PLUS@@K@Z DD 0ffffffffH
	DD	FLAT:__unwindfunclet$?Handler@CHousingDBCtrl@@UAEXPAUtagDB_OVERLAPPED_PLUS@@K@Z$0
__ehfuncinfo$?Handler@CHousingDBCtrl@@UAEXPAUtagDB_OVERLAPPED_PLUS@@K@Z DD 019930522H
	DD	01H
	DD	FLAT:__unwindtable$?Handler@CHousingDBCtrl@@UAEXPAUtagDB_OVERLAPPED_PLUS@@K@Z
	DD	2 DUP(00H)
	DD	2 DUP(00H)
	DD	00H
	DD	01H
xdata$x	ENDS
; Function compile flags: /Ogtp
;	COMDAT ??__FsHousingDBMng@?1??GetInstance@CHousingDBMng@@SAPAV1@XZ@YAXXZ
text$yd	SEGMENT
??__FsHousingDBMng@?1??GetInstance@CHousingDBMng@@SAPAV1@XZ@YAXXZ PROC ; `CHousingDBMng::GetInstance'::`2'::`dynamic atexit destructor for 'sHousingDBMng'', COMDAT
  00000	b9 00 00 00 00	 mov	 ecx, OFFSET ?sHousingDBMng@?1??GetInstance@CHousingDBMng@@SAPAV2@XZ@4V2@A
  00005	e9 00 00 00 00	 jmp	 ??1CHousingDBMng@@QAE@XZ ; CHousingDBMng::~CHousingDBMng
??__FsHousingDBMng@?1??GetInstance@CHousingDBMng@@SAPAV1@XZ@YAXXZ ENDP ; `CHousingDBMng::GetInstance'::`2'::`dynamic atexit destructor for 'sHousingDBMng''
text$yd	ENDS
; Function compile flags: /Ogtp
; File C:\IAGOS\server\v18\Source\Source\DatabaseServer\HousingDBCtrl.cpp
;	COMDAT ?DeleteFurnitureList@CHousingDBMng@@QAEXKUHOUSINGINFO@@@Z
_TEXT	SEGMENT
_dwPlayerId$ = 8					; size = 4
_housingInfo$ = 12					; size = 28
?DeleteFurnitureList@CHousingDBMng@@QAEXKUHOUSINGINFO@@@Z PROC ; CHousingDBMng::DeleteFurnitureList, COMDAT
; _this$ = ecx

; 198  : {

  00000	55		 push	 ebp
  00001	8b ec		 mov	 ebp, esp

; 199  : 	m_HousingDBCtrl.DeleteFurnitureList( dwPlayerId, housingInfo );

  00003	0f 10 45 0c	 movups	 xmm0, XMMWORD PTR _housingInfo$[ebp]
  00007	8b 45 24	 mov	 eax, DWORD PTR _housingInfo$[ebp+24]
  0000a	83 ec 1c	 sub	 esp, 28			; 0000001cH
  0000d	8b d4		 mov	 edx, esp
  0000f	ff 75 08	 push	 DWORD PTR _dwPlayerId$[ebp]
  00012	0f 11 02	 movups	 XMMWORD PTR [edx], xmm0
  00015	f3 0f 7e 45 1c	 movq	 xmm0, QWORD PTR _housingInfo$[ebp+16]
  0001a	66 0f d6 42 10	 movq	 QWORD PTR [edx+16], xmm0
  0001f	89 42 18	 mov	 DWORD PTR [edx+24], eax
  00022	e8 00 00 00 00	 call	 ?DeleteFurnitureList@CHousingDBCtrl@@QAEXKUHOUSINGINFO@@@Z ; CHousingDBCtrl::DeleteFurnitureList

; 200  : }

  00027	5d		 pop	 ebp
  00028	c2 20 00	 ret	 32			; 00000020H
?DeleteFurnitureList@CHousingDBMng@@QAEXKUHOUSINGINFO@@@Z ENDP ; CHousingDBMng::DeleteFurnitureList
_TEXT	ENDS
; Function compile flags: /Ogtp
; File C:\IAGOS\server\v18\Source\Source\DatabaseServer\HousingDBCtrl.cpp
;	COMDAT ?GetInstance@CHousingDBMng@@SAPAV1@XZ
_TEXT	SEGMENT
__$EHRec$ = -12						; size = 12
?GetInstance@CHousingDBMng@@SAPAV1@XZ PROC		; CHousingDBMng::GetInstance, COMDAT

; 192  : {

  00000	55		 push	 ebp
  00001	8b ec		 mov	 ebp, esp
  00003	6a ff		 push	 -1
  00005	68 00 00 00 00	 push	 __ehhandler$?GetInstance@CHousingDBMng@@SAPAV1@XZ
  0000a	64 a1 00 00 00
	00		 mov	 eax, DWORD PTR fs:0
  00010	50		 push	 eax
  00011	a1 00 00 00 00	 mov	 eax, DWORD PTR ___security_cookie
  00016	33 c5		 xor	 eax, ebp
  00018	50		 push	 eax
  00019	8d 45 f4	 lea	 eax, DWORD PTR __$EHRec$[ebp]
  0001c	64 a3 00 00 00
	00		 mov	 DWORD PTR fs:0, eax

; 193  : 	static CHousingDBMng sHousingDBMng;

  00022	64 a1 00 00 00
	00		 mov	 eax, DWORD PTR fs:__tls_array
  00028	8b 0d 00 00 00
	00		 mov	 ecx, DWORD PTR __tls_index
  0002e	8b 0c 88	 mov	 ecx, DWORD PTR [eax+ecx*4]
  00031	a1 00 00 00 00	 mov	 eax, DWORD PTR ?$TSS0@?1??GetInstance@CHousingDBMng@@SAPAV2@XZ@4HA
  00036	3b 81 00 00 00
	00		 cmp	 eax, DWORD PTR __Init_thread_epoch[ecx]
  0003c	7f 14		 jg	 SHORT $LN9@GetInstanc
$LN5@GetInstanc:

; 194  : 	return & sHousingDBMng;
; 195  : }

  0003e	b8 00 00 00 00	 mov	 eax, OFFSET ?sHousingDBMng@?1??GetInstance@CHousingDBMng@@SAPAV2@XZ@4V2@A
  00043	8b 4d f4	 mov	 ecx, DWORD PTR __$EHRec$[ebp]
  00046	64 89 0d 00 00
	00 00		 mov	 DWORD PTR fs:0, ecx
  0004d	59		 pop	 ecx
  0004e	8b e5		 mov	 esp, ebp
  00050	5d		 pop	 ebp
  00051	c3		 ret	 0
$LN9@GetInstanc:

; 193  : 	static CHousingDBMng sHousingDBMng;

  00052	68 00 00 00 00	 push	 OFFSET ?$TSS0@?1??GetInstance@CHousingDBMng@@SAPAV2@XZ@4HA
  00057	e8 00 00 00 00	 call	 __Init_thread_header
  0005c	83 c4 04	 add	 esp, 4
  0005f	83 3d 00 00 00
	00 ff		 cmp	 DWORD PTR ?$TSS0@?1??GetInstance@CHousingDBMng@@SAPAV2@XZ@4HA, -1
  00066	75 d6		 jne	 SHORT $LN5@GetInstanc
  00068	b9 00 00 00 00	 mov	 ecx, OFFSET ?sHousingDBMng@?1??GetInstance@CHousingDBMng@@SAPAV2@XZ@4V2@A
  0006d	c7 45 fc 00 00
	00 00		 mov	 DWORD PTR __$EHRec$[ebp+8], 0
  00074	e8 00 00 00 00	 call	 ??0CHousingDBMng@@QAE@XZ ; CHousingDBMng::CHousingDBMng
  00079	68 00 00 00 00	 push	 OFFSET ??__FsHousingDBMng@?1??GetInstance@CHousingDBMng@@SAPAV1@XZ@YAXXZ ; `CHousingDBMng::GetInstance'::`2'::`dynamic atexit destructor for 'sHousingDBMng''
  0007e	e8 00 00 00 00	 call	 _atexit
  00083	68 00 00 00 00	 push	 OFFSET ?$TSS0@?1??GetInstance@CHousingDBMng@@SAPAV2@XZ@4HA
  00088	e8 00 00 00 00	 call	 __Init_thread_footer
  0008d	83 c4 08	 add	 esp, 8
  00090	eb ac		 jmp	 SHORT $LN5@GetInstanc
_TEXT	ENDS
;	COMDAT text$x
text$x	SEGMENT
__unwindfunclet$?GetInstance@CHousingDBMng@@SAPAV1@XZ$0:
  00000	68 00 00 00 00	 push	 OFFSET ?$TSS0@?1??GetInstance@CHousingDBMng@@SAPAV2@XZ@4HA
  00005	e8 00 00 00 00	 call	 __Init_thread_abort
  0000a	59		 pop	 ecx
  0000b	c3		 ret	 0
  0000c	cc		 int	 3
  0000d	cc		 int	 3
  0000e	cc		 int	 3
  0000f	cc		 int	 3
  00010	cc		 int	 3
__ehhandler$?GetInstance@CHousingDBMng@@SAPAV1@XZ:
  00011	90		 npad	 1
  00012	90		 npad	 1
  00013	8b 54 24 08	 mov	 edx, DWORD PTR [esp+8]
  00017	8d 42 0c	 lea	 eax, DWORD PTR [edx+12]
  0001a	8b 4a fc	 mov	 ecx, DWORD PTR [edx-4]
  0001d	33 c8		 xor	 ecx, eax
  0001f	e8 00 00 00 00	 call	 @__security_check_cookie@4
  00024	b8 00 00 00 00	 mov	 eax, OFFSET __ehfuncinfo$?GetInstance@CHousingDBMng@@SAPAV1@XZ
  00029	e9 00 00 00 00	 jmp	 ___CxxFrameHandler3
text$x	ENDS
?GetInstance@CHousingDBMng@@SAPAV1@XZ ENDP		; CHousingDBMng::GetInstance
; Function compile flags: /Ogtp
; File C:\IAGOS\server\v18\Source\Source\DatabaseServer\HousingDBCtrl.cpp
;	COMDAT ??1CHousingDBMng@@QAE@XZ
_TEXT	SEGMENT
__$EHRec$ = -12						; size = 12
??1CHousingDBMng@@QAE@XZ PROC				; CHousingDBMng::~CHousingDBMng, COMDAT
; _this$ = ecx

; 187  : {

  00000	55		 push	 ebp
  00001	8b ec		 mov	 ebp, esp
  00003	6a ff		 push	 -1
  00005	68 00 00 00 00	 push	 __ehhandler$??1CHousingDBMng@@QAE@XZ
  0000a	64 a1 00 00 00
	00		 mov	 eax, DWORD PTR fs:0
  00010	50		 push	 eax
  00011	56		 push	 esi
  00012	a1 00 00 00 00	 mov	 eax, DWORD PTR ___security_cookie
  00017	33 c5		 xor	 eax, ebp
  00019	50		 push	 eax
  0001a	8d 45 f4	 lea	 eax, DWORD PTR __$EHRec$[ebp]
  0001d	64 a3 00 00 00
	00		 mov	 DWORD PTR fs:0, eax
  00023	8b f1		 mov	 esi, ecx

; 188  : 	m_HousingDBCtrl.CloseDbHandler();

  00025	e8 00 00 00 00	 call	 ?CloseDbHandler@CDbController@@QAEXXZ ; CDbController::CloseDbHandler

; 189  : }

  0002a	8b ce		 mov	 ecx, esi
  0002c	e8 00 00 00 00	 call	 ??1CHousingDBCtrl@@UAE@XZ ; CHousingDBCtrl::~CHousingDBCtrl
  00031	8b 4d f4	 mov	 ecx, DWORD PTR __$EHRec$[ebp]
  00034	64 89 0d 00 00
	00 00		 mov	 DWORD PTR fs:0, ecx
  0003b	59		 pop	 ecx
  0003c	5e		 pop	 esi
  0003d	8b e5		 mov	 esp, ebp
  0003f	5d		 pop	 ebp
  00040	c3		 ret	 0
  00041	cc		 int	 3
  00042	cc		 int	 3
  00043	cc		 int	 3
  00044	cc		 int	 3
  00045	cc		 int	 3
_TEXT	ENDS
;	COMDAT text$x
text$x	SEGMENT
__ehhandler$??1CHousingDBMng@@QAE@XZ:
  00000	90		 npad	 1
  00001	90		 npad	 1
  00002	8b 54 24 08	 mov	 edx, DWORD PTR [esp+8]
  00006	8d 42 0c	 lea	 eax, DWORD PTR [edx+12]
  00009	8b 4a f8	 mov	 ecx, DWORD PTR [edx-8]
  0000c	33 c8		 xor	 ecx, eax
  0000e	e8 00 00 00 00	 call	 @__security_check_cookie@4
  00013	b8 00 00 00 00	 mov	 eax, OFFSET __ehfuncinfo$??1CHousingDBMng@@QAE@XZ
  00018	e9 00 00 00 00	 jmp	 ___CxxFrameHandler3
text$x	ENDS
??1CHousingDBMng@@QAE@XZ ENDP				; CHousingDBMng::~CHousingDBMng
; Function compile flags: /Ogtp
; File C:\IAGOS\server\v18\Source\Source\DatabaseServer\HousingDBCtrl.cpp
;	COMDAT ??0CHousingDBMng@@QAE@XZ
_TEXT	SEGMENT
_this$ = -16						; size = 4
__$EHRec$ = -12						; size = 12
??0CHousingDBMng@@QAE@XZ PROC				; CHousingDBMng::CHousingDBMng, COMDAT
; _this$ = ecx

; 181  : {

  00000	55		 push	 ebp
  00001	8b ec		 mov	 ebp, esp
  00003	6a ff		 push	 -1
  00005	68 00 00 00 00	 push	 __ehhandler$??0CHousingDBMng@@QAE@XZ
  0000a	64 a1 00 00 00
	00		 mov	 eax, DWORD PTR fs:0
  00010	50		 push	 eax
  00011	51		 push	 ecx
  00012	56		 push	 esi
  00013	a1 00 00 00 00	 mov	 eax, DWORD PTR ___security_cookie
  00018	33 c5		 xor	 eax, ebp
  0001a	50		 push	 eax
  0001b	8d 45 f4	 lea	 eax, DWORD PTR __$EHRec$[ebp]
  0001e	64 a3 00 00 00
	00		 mov	 DWORD PTR fs:0, eax
  00024	8b f1		 mov	 esi, ecx
  00026	89 75 f0	 mov	 DWORD PTR _this$[ebp], esi
  00029	e8 00 00 00 00	 call	 ??0CHousingDBCtrl@@QAE@XZ ; CHousingDBCtrl::CHousingDBCtrl

; 182  : 	if( !m_HousingDBCtrl.CreateDbHandler( MIN(1) ) )

  0002e	68 60 ea 00 00	 push	 60000			; 0000ea60H
  00033	8b ce		 mov	 ecx, esi
  00035	c7 45 fc 00 00
	00 00		 mov	 DWORD PTR __$EHRec$[ebp+8], 0
  0003c	e8 00 00 00 00	 call	 ?CreateDbHandler@CDbController@@QAEHK@Z ; CDbController::CreateDbHandler
  00041	85 c0		 test	 eax, eax
  00043	75 0d		 jne	 SHORT $LN5@CHousingDB

; 183  : 		Error( "CHousingDBMng - m_HousingDBCtrl.CreateDbHandler()" );

  00045	68 00 00 00 00	 push	 OFFSET ??_C@_0DC@PHOJNPH@CHousingDBMng?5?9?5m_HousingDBCtrl@
  0004a	e8 00 00 00 00	 call	 ?Error@@YAPBDPBDZZ	; Error
  0004f	83 c4 04	 add	 esp, 4
$LN5@CHousingDB:

; 184  : }

  00052	8b c6		 mov	 eax, esi
  00054	8b 4d f4	 mov	 ecx, DWORD PTR __$EHRec$[ebp]
  00057	64 89 0d 00 00
	00 00		 mov	 DWORD PTR fs:0, ecx
  0005e	59		 pop	 ecx
  0005f	5e		 pop	 esi
  00060	8b e5		 mov	 esp, ebp
  00062	5d		 pop	 ebp
  00063	c3		 ret	 0
_TEXT	ENDS
;	COMDAT text$x
text$x	SEGMENT
__unwindfunclet$??0CHousingDBMng@@QAE@XZ$0:
  00000	8b 4d f0	 mov	 ecx, DWORD PTR _this$[ebp]
  00003	e9 00 00 00 00	 jmp	 ??1CHousingDBCtrl@@UAE@XZ ; CHousingDBCtrl::~CHousingDBCtrl
  00008	cc		 int	 3
  00009	cc		 int	 3
  0000a	cc		 int	 3
  0000b	cc		 int	 3
  0000c	cc		 int	 3
__ehhandler$??0CHousingDBMng@@QAE@XZ:
  0000d	90		 npad	 1
  0000e	90		 npad	 1
  0000f	8b 54 24 08	 mov	 edx, DWORD PTR [esp+8]
  00013	8d 42 0c	 lea	 eax, DWORD PTR [edx+12]
  00016	8b 4a f4	 mov	 ecx, DWORD PTR [edx-12]
  00019	33 c8		 xor	 ecx, eax
  0001b	e8 00 00 00 00	 call	 @__security_check_cookie@4
  00020	b8 00 00 00 00	 mov	 eax, OFFSET __ehfuncinfo$??0CHousingDBMng@@QAE@XZ
  00025	e9 00 00 00 00	 jmp	 ___CxxFrameHandler3
text$x	ENDS
??0CHousingDBMng@@QAE@XZ ENDP				; CHousingDBMng::CHousingDBMng
; Function compile flags: /Ogtp
;	COMDAT ??_GCHousingDBCtrl@@UAEPAXI@Z
_TEXT	SEGMENT
___flags$ = 8						; size = 4
??_GCHousingDBCtrl@@UAEPAXI@Z PROC			; CHousingDBCtrl::`scalar deleting destructor', COMDAT
; _this$ = ecx
  00000	55		 push	 ebp
  00001	8b ec		 mov	 ebp, esp
  00003	56		 push	 esi
  00004	8b f1		 mov	 esi, ecx
  00006	e8 00 00 00 00	 call	 ??1CHousingDBCtrl@@UAE@XZ ; CHousingDBCtrl::~CHousingDBCtrl
  0000b	f6 45 08 01	 test	 BYTE PTR ___flags$[ebp], 1
  0000f	74 0b		 je	 SHORT $LN5@scalar
  00011	6a 14		 push	 20			; 00000014H
  00013	56		 push	 esi
  00014	e8 00 00 00 00	 call	 ??3@YAXPAXI@Z		; operator delete
  00019	83 c4 08	 add	 esp, 8
$LN5@scalar:
  0001c	8b c6		 mov	 eax, esi
  0001e	5e		 pop	 esi
  0001f	5d		 pop	 ebp
  00020	c2 04 00	 ret	 4
??_GCHousingDBCtrl@@UAEPAXI@Z ENDP			; CHousingDBCtrl::`scalar deleting destructor'
_TEXT	ENDS
; Function compile flags: /Ogtp
; File C:\IAGOS\server\v18\Source\Source\DatabaseServer\HousingDBCtrl.cpp
;	COMDAT ?SetVisitAllow@CHousingDBCtrl@@AAEXKKHK@Z
_TEXT	SEGMENT
_dwPlayerId$ = 8					; size = 4
_dwTargetId$ = 12					; size = 4
_bAllow$ = 16						; size = 4
_dpId$ = 20						; size = 4
?SetVisitAllow@CHousingDBCtrl@@AAEXKKHK@Z PROC		; CHousingDBCtrl::SetVisitAllow, COMDAT
; _this$ = ecx

; 160  : {

  00000	55		 push	 ebp
  00001	8b ec		 mov	 ebp, esp
  00003	53		 push	 ebx

; 161  : 	if( GetQueryObject()->Execute( "%s '%02d', '%07d', '%07d'", 

  00004	8b 5d 10	 mov	 ebx, DWORD PTR _bAllow$[ebp]
  00007	ba 00 00 00 00	 mov	 edx, OFFSET ??_C@_0BJ@JNNLAOBI@usp_Housing_Visit_Delete@
  0000c	56		 push	 esi
  0000d	8b 75 08	 mov	 esi, DWORD PTR _dwPlayerId$[ebp]
  00010	85 db		 test	 ebx, ebx
  00012	57		 push	 edi
  00013	8b 7d 0c	 mov	 edi, DWORD PTR _dwTargetId$[ebp]
  00016	b8 00 00 00 00	 mov	 eax, OFFSET ??_C@_0BJ@CDCPMAOK@usp_Housing_Visit_Insert@
  0001b	57		 push	 edi
  0001c	56		 push	 esi
  0001d	ff 35 00 00 00
	00		 push	 DWORD PTR ?g_appInfo@@3UAppInfo@@A
  00023	0f 44 c2	 cmove	 eax, edx
  00026	50		 push	 eax
  00027	68 00 00 00 00	 push	 OFFSET ??_C@_0BK@KKLDPFFP@?$CFs?5?8?$CF02d?8?0?5?8?$CF07d?8?0?5?8?$CF07d?8@
  0002c	ff 71 0c	 push	 DWORD PTR [ecx+12]
  0002f	e8 00 00 00 00	 call	 ?Execute@CQuery@@QAAHPBDZZ ; CQuery::Execute
  00034	83 c4 18	 add	 esp, 24			; 00000018H
  00037	85 c0		 test	 eax, eax
  00039	74 28		 je	 SHORT $LN2@SetVisitAl

; 162  : 		bAllow? "usp_Housing_Visit_Insert": "usp_Housing_Visit_Delete",
; 163  : 		g_appInfo.dwSys, dwPlayerId, dwTargetId ) )
; 164  : 	{
; 165  : 		CHousingMng::GetInstance()->SetVisitAllow( dwPlayerId, dwTargetId, bAllow );

  0003b	53		 push	 ebx
  0003c	57		 push	 edi
  0003d	56		 push	 esi
  0003e	e8 00 00 00 00	 call	 ?GetInstance@CHousingMng@@SAPAV1@XZ ; CHousingMng::GetInstance
  00043	8b c8		 mov	 ecx, eax
  00045	e8 00 00 00 00	 call	 ?SetVisitAllow@CHousingMng@@QAEXKKH@Z ; CHousingMng::SetVisitAllow

; 166  : 		CDPTrans::GetInstance()->SendHousingSetVisitAllow( dwPlayerId, dwTargetId, bAllow, dpId );

  0004a	ff 75 14	 push	 DWORD PTR _dpId$[ebp]
  0004d	53		 push	 ebx
  0004e	57		 push	 edi
  0004f	56		 push	 esi
  00050	e8 00 00 00 00	 call	 ?GetInstance@CDPTrans@@SAPAV1@XZ ; CDPTrans::GetInstance
  00055	8b c8		 mov	 ecx, eax
  00057	e8 00 00 00 00	 call	 ?SendHousingSetVisitAllow@CDPTrans@@QAEXKKHK@Z ; CDPTrans::SendHousingSetVisitAllow
  0005c	5f		 pop	 edi

; 170  : }

  0005d	5e		 pop	 esi
  0005e	5b		 pop	 ebx
  0005f	5d		 pop	 ebp
  00060	c2 10 00	 ret	 16			; 00000010H
$LN2@SetVisitAl:

; 167  : 	}
; 168  : 	else
; 169  : 		CDPTrans::GetInstance()->SendHousingDBFailed( dwPlayerId, NULL_ID, dpId );

  00063	ff 75 14	 push	 DWORD PTR _dpId$[ebp]
  00066	6a ff		 push	 -1
  00068	56		 push	 esi
  00069	e8 00 00 00 00	 call	 ?GetInstance@CDPTrans@@SAPAV1@XZ ; CDPTrans::GetInstance
  0006e	8b c8		 mov	 ecx, eax
  00070	e8 00 00 00 00	 call	 ?SendHousingDBFailed@CDPTrans@@QAEXKKK@Z ; CDPTrans::SendHousingDBFailed
  00075	5f		 pop	 edi

; 170  : }

  00076	5e		 pop	 esi
  00077	5b		 pop	 ebx
  00078	5d		 pop	 ebp
  00079	c2 10 00	 ret	 16			; 00000010H
?SetVisitAllow@CHousingDBCtrl@@AAEXKKHK@Z ENDP		; CHousingDBCtrl::SetVisitAllow
_TEXT	ENDS
; Function compile flags: /Ogtp
; File C:\IAGOS\server\v18\Source\Source\DatabaseServer\HousingDBCtrl.cpp
;	COMDAT ?SetupFurniture@CHousingDBCtrl@@AAEXKUHOUSINGINFO@@K@Z
_TEXT	SEGMENT
_dwPlayerId$ = 8					; size = 4
_housingInfo$ = 12					; size = 28
_dpId$ = 40						; size = 4
?SetupFurniture@CHousingDBCtrl@@AAEXKUHOUSINGINFO@@K@Z PROC ; CHousingDBCtrl::SetupFurniture, COMDAT
; _this$ = ecx

; 138  : {

  00000	55		 push	 ebp
  00001	8b ec		 mov	 ebp, esp
  00003	f3 0f 10 45 24	 movss	 xmm0, DWORD PTR _housingInfo$[ebp+24]

; 139  : 	if( GetQueryObject()->Execute( "usp_Housing_Update '%02d', '%07d', %d, %d, %f, %f, %f, %f", 

  00008	0f 5a c0	 cvtps2pd xmm0, xmm0
  0000b	56		 push	 esi
  0000c	83 ec 20	 sub	 esp, 32			; 00000020H
  0000f	8b 75 08	 mov	 esi, DWORD PTR _dwPlayerId$[ebp]
  00012	f2 0f 11 44 24
	18		 movsd	 QWORD PTR [esp+24], xmm0
  00018	f3 0f 10 45 20	 movss	 xmm0, DWORD PTR _housingInfo$[ebp+20]
  0001d	0f 5a c0	 cvtps2pd xmm0, xmm0
  00020	f2 0f 11 44 24
	10		 movsd	 QWORD PTR [esp+16], xmm0
  00026	f3 0f 10 45 1c	 movss	 xmm0, DWORD PTR _housingInfo$[ebp+16]
  0002b	0f 5a c0	 cvtps2pd xmm0, xmm0
  0002e	f2 0f 11 44 24
	08		 movsd	 QWORD PTR [esp+8], xmm0
  00034	f3 0f 10 45 18	 movss	 xmm0, DWORD PTR _housingInfo$[ebp+12]
  00039	0f 5a c0	 cvtps2pd xmm0, xmm0
  0003c	f2 0f 11 04 24	 movsd	 QWORD PTR [esp], xmm0
  00041	ff 75 14	 push	 DWORD PTR _housingInfo$[ebp+8]
  00044	ff 75 0c	 push	 DWORD PTR _housingInfo$[ebp]
  00047	56		 push	 esi
  00048	ff 35 00 00 00
	00		 push	 DWORD PTR ?g_appInfo@@3UAppInfo@@A
  0004e	68 00 00 00 00	 push	 OFFSET ??_C@_0DK@FBACIBIF@usp_Housing_Update?5?8?$CF02d?8?0?5?8?$CF07@
  00053	ff 71 0c	 push	 DWORD PTR [ecx+12]
  00056	e8 00 00 00 00	 call	 ?Execute@CQuery@@QAAHPBDZZ ; CQuery::Execute
  0005b	83 c4 38	 add	 esp, 56			; 00000038H
  0005e	85 c0		 test	 eax, eax
  00060	74 5a		 je	 SHORT $LN2@SetupFurni

; 140  : 		g_appInfo.dwSys, dwPlayerId, housingInfo.dwItemId, housingInfo.bSetup,
; 141  : 		housingInfo.vPos.x, housingInfo.vPos.y, housingInfo.vPos.z, housingInfo.fAngle ) )
; 142  : 	{
; 143  : 		CHousingMng::GetInstance()->SetupFurniture( dwPlayerId, housingInfo );

  00062	0f 10 45 0c	 movups	 xmm0, XMMWORD PTR _housingInfo$[ebp]
  00066	8b 45 24	 mov	 eax, DWORD PTR _housingInfo$[ebp+24]
  00069	83 ec 1c	 sub	 esp, 28			; 0000001cH
  0006c	8b cc		 mov	 ecx, esp
  0006e	56		 push	 esi
  0006f	0f 11 01	 movups	 XMMWORD PTR [ecx], xmm0
  00072	f3 0f 7e 45 1c	 movq	 xmm0, QWORD PTR _housingInfo$[ebp+16]
  00077	66 0f d6 41 10	 movq	 QWORD PTR [ecx+16], xmm0
  0007c	89 41 18	 mov	 DWORD PTR [ecx+24], eax
  0007f	e8 00 00 00 00	 call	 ?GetInstance@CHousingMng@@SAPAV1@XZ ; CHousingMng::GetInstance
  00084	8b c8		 mov	 ecx, eax
  00086	e8 00 00 00 00	 call	 ?SetupFurniture@CHousingMng@@QAEXKUHOUSINGINFO@@@Z ; CHousingMng::SetupFurniture

; 144  : 		CDPTrans::GetInstance()->SendHousingSetupFurniture( dwPlayerId, housingInfo, dpId );

  0008b	ff 75 28	 push	 DWORD PTR _dpId$[ebp]
  0008e	0f 10 45 0c	 movups	 xmm0, XMMWORD PTR _housingInfo$[ebp]
  00092	8b 45 24	 mov	 eax, DWORD PTR _housingInfo$[ebp+24]
  00095	83 ec 1c	 sub	 esp, 28			; 0000001cH
  00098	8b cc		 mov	 ecx, esp
  0009a	56		 push	 esi
  0009b	0f 11 01	 movups	 XMMWORD PTR [ecx], xmm0
  0009e	f3 0f 7e 45 1c	 movq	 xmm0, QWORD PTR _housingInfo$[ebp+16]
  000a3	66 0f d6 41 10	 movq	 QWORD PTR [ecx+16], xmm0
  000a8	89 41 18	 mov	 DWORD PTR [ecx+24], eax
  000ab	e8 00 00 00 00	 call	 ?GetInstance@CDPTrans@@SAPAV1@XZ ; CDPTrans::GetInstance
  000b0	8b c8		 mov	 ecx, eax
  000b2	e8 00 00 00 00	 call	 ?SendHousingSetupFurniture@CDPTrans@@QAEXKUHOUSINGINFO@@K@Z ; CDPTrans::SendHousingSetupFurniture

; 148  : }

  000b7	5e		 pop	 esi
  000b8	5d		 pop	 ebp
  000b9	c2 24 00	 ret	 36			; 00000024H
$LN2@SetupFurni:

; 145  : 	}
; 146  : 	else
; 147  : 		CDPTrans::GetInstance()->SendHousingDBFailed( dwPlayerId, NULL_ID, dpId );

  000bc	ff 75 28	 push	 DWORD PTR _dpId$[ebp]
  000bf	6a ff		 push	 -1
  000c1	56		 push	 esi
  000c2	e8 00 00 00 00	 call	 ?GetInstance@CDPTrans@@SAPAV1@XZ ; CDPTrans::GetInstance
  000c7	8b c8		 mov	 ecx, eax
  000c9	e8 00 00 00 00	 call	 ?SendHousingDBFailed@CDPTrans@@QAEXKKK@Z ; CDPTrans::SendHousingDBFailed

; 148  : }

  000ce	5e		 pop	 esi
  000cf	5d		 pop	 ebp
  000d0	c2 24 00	 ret	 36			; 00000024H
?SetupFurniture@CHousingDBCtrl@@AAEXKUHOUSINGINFO@@K@Z ENDP ; CHousingDBCtrl::SetupFurniture
_TEXT	ENDS
; Function compile flags: /Ogtp
; File C:\IAGOS\server\v18\Source\Source\DatabaseServer\HousingDBCtrl.cpp
; File C:\IAGOS\server\v18\Source\Source\_Common\Housing.h
; File C:\IAGOS\server\v18\Source\Source\DatabaseServer\HousingDBCtrl.cpp
; File C:\IAGOS\server\v18\Source\Source\_Common\Housing.h
; File C:\IAGOS\server\v18\Source\Source\DX_SDK\d3dx9math.inl
; File C:\IAGOS\server\v18\Source\Source\_Common\Data.h
; File C:\IAGOS\server\v18\Source\Source\_Common\Housing.h
; File C:\Program Files\Microsoft Visual Studio\2022\Professional\VC\Tools\MSVC\14.44.35207\atlmfc\include\atltime.h
; File C:\IAGOS\server\v18\Source\Source\_Common\Housing.h
; File C:\IAGOS\server\v18\Source\Source\DatabaseServer\HousingDBCtrl.cpp
;	COMDAT ?InsertFurnitureList@CHousingDBCtrl@@AAEXKKK@Z
_TEXT	SEGMENT
_housingInfo$ = -32					; size = 28
__$ArrayPad$ = -4					; size = 4
_dwPlayerId$ = 8					; size = 4
_dwItemId$ = 12						; size = 4
_dpId$ = 16						; size = 4
?InsertFurnitureList@CHousingDBCtrl@@AAEXKKK@Z PROC	; CHousingDBCtrl::InsertFurnitureList, COMDAT
; _this$ = ecx

; 122  : {

  00000	55		 push	 ebp
  00001	8b ec		 mov	 ebp, esp
  00003	83 ec 20	 sub	 esp, 32			; 00000020H
  00006	a1 00 00 00 00	 mov	 eax, DWORD PTR ___security_cookie
  0000b	33 c5		 xor	 eax, ebp
  0000d	89 45 fc	 mov	 DWORD PTR __$ArrayPad$[ebp], eax
  00010	56		 push	 esi
; File C:\IAGOS\server\v18\Source\Source\_Common\Housing.h

; 26   : 	HOUSINGINFO( DWORD dwII ) : dwItemId(dwII), tKeepTime(0), vPos(0.0f,0.0f,0.0f), bSetup(FALSE), fAngle(0.0f)

  00011	8b 75 0c	 mov	 esi, DWORD PTR _dwItemId$[ebp]
  00014	33 d2		 xor	 edx, edx
  00016	0f 57 c0	 xorps	 xmm0, xmm0
  00019	89 75 e0	 mov	 DWORD PTR _housingInfo$[ebp], esi
; File C:\IAGOS\server\v18\Source\Source\DatabaseServer\HousingDBCtrl.cpp

; 122  : {

  0001c	57		 push	 edi
  0001d	8b f9		 mov	 edi, ecx
; File C:\IAGOS\server\v18\Source\Source\_Common\Housing.h

; 26   : 	HOUSINGINFO( DWORD dwII ) : dwItemId(dwII), tKeepTime(0), vPos(0.0f,0.0f,0.0f), bSetup(FALSE), fAngle(0.0f)

  0001f	89 55 e4	 mov	 DWORD PTR _housingInfo$[ebp+4], edx
  00022	89 55 e8	 mov	 DWORD PTR _housingInfo$[ebp+8], edx
; File C:\IAGOS\server\v18\Source\Source\DX_SDK\d3dx9math.inl

; 300  :     x = fx;

  00025	0f 11 45 ec	 movups	 XMMWORD PTR _housingInfo$[ebp+12], xmm0
; File C:\IAGOS\server\v18\Source\Source\_Common\Data.h

; 270  : 	if( dwIndex >= (DWORD)m_nMaxIndex )

  00029	3b 35 4c 00 00
	00		 cmp	 esi, DWORD PTR ?prj@@3VCProject@@A+76
  0002f	73 2b		 jae	 SHORT $LN6@InsertFurn

; 271  : 		return NULL;
; 272  : 	return (T*) m_apOffset[ dwIndex ];

  00031	a1 3c 00 00 00	 mov	 eax, DWORD PTR ?prj@@3VCProject@@A+60
  00036	8b 04 b0	 mov	 eax, DWORD PTR [eax+esi*4]
; File C:\IAGOS\server\v18\Source\Source\_Common\Housing.h

; 29   : 		if( pItemProp )

  00039	85 c0		 test	 eax, eax
  0003b	74 1f		 je	 SHORT $LN6@InsertFurn
; File C:\Program Files\Microsoft Visual Studio\2022\Professional\VC\Tools\MSVC\14.44.35207\atlmfc\include\atltime.h

; 276  :  	m_timeSpan = nSecs + 60* (nMins + 60* (nHours + __int64(24) * lDays));

  0003d	8b 80 e4 00 00
	00		 mov	 eax, DWORD PTR [eax+228]
  00043	8b f0		 mov	 esi, eax
  00045	c1 e6 04	 shl	 esi, 4

; 377  : 	return( CTime( ::_time64( NULL ) ) );

  00048	52		 push	 edx

; 276  :  	m_timeSpan = nSecs + 60* (nMins + 60* (nHours + __int64(24) * lDays));

  00049	2b f0		 sub	 esi, eax

; 377  : 	return( CTime( ::_time64( NULL ) ) );

  0004b	e8 00 00 00 00	 call	 __time64
  00050	83 c4 04	 add	 esp, 4
; File C:\IAGOS\server\v18\Source\Source\_Common\Housing.h

; 31   : 			CTime time	= CTime::GetCurrentTime() + CTimeSpan( 0, 0, pItemProp->dwAbilityMin, 0 );

  00053	8d 14 b0	 lea	 edx, DWORD PTR [eax+esi*4]

; 32   : 			tKeepTime	= (time_t)( time.GetTime() );

  00056	8b 75 e0	 mov	 esi, DWORD PTR _housingInfo$[ebp]
  00059	89 55 e4	 mov	 DWORD PTR _housingInfo$[ebp+4], edx
$LN6@InsertFurn:
; File C:\IAGOS\server\v18\Source\Source\DatabaseServer\HousingDBCtrl.cpp

; 127  : 	if( GetQueryObject()->Execute( "usp_Housing_Insert '%02d', '%07d', %d, %I64d",

  0005c	8b c2		 mov	 eax, edx
  0005e	99		 cdq
  0005f	52		 push	 edx
  00060	50		 push	 eax
  00061	56		 push	 esi
  00062	8b 75 08	 mov	 esi, DWORD PTR _dwPlayerId$[ebp]
  00065	56		 push	 esi
  00066	ff 35 00 00 00
	00		 push	 DWORD PTR ?g_appInfo@@3UAppInfo@@A
  0006c	68 00 00 00 00	 push	 OFFSET ??_C@_0CN@ICOIMLLE@usp_Housing_Insert?5?8?$CF02d?8?0?5?8?$CF07@
  00071	ff 77 0c	 push	 DWORD PTR [edi+12]
  00074	e8 00 00 00 00	 call	 ?Execute@CQuery@@QAAHPBDZZ ; CQuery::Execute
  00079	83 c4 1c	 add	 esp, 28			; 0000001cH
  0007c	85 c0		 test	 eax, eax
  0007e	74 3b		 je	 SHORT $LN2@InsertFurn

; 128  : 		g_appInfo.dwSys, dwPlayerId, housingInfo.dwItemId, static_cast<__int64>(housingInfo.tKeepTime) ) )
; 129  : 	{
; 130  : 		CHousingMng::GetInstance()->SetFurnitureList( dwPlayerId, housingInfo, TRUE );

  00080	6a 01		 push	 1
  00082	8d 45 e0	 lea	 eax, DWORD PTR _housingInfo$[ebp]
  00085	50		 push	 eax
  00086	56		 push	 esi
  00087	e8 00 00 00 00	 call	 ?GetInstance@CHousingMng@@SAPAV1@XZ ; CHousingMng::GetInstance
  0008c	8b c8		 mov	 ecx, eax
  0008e	e8 00 00 00 00	 call	 ?SetFurnitureList@CHousingMng@@QAEXKAAUHOUSINGINFO@@H@Z ; CHousingMng::SetFurnitureList

; 131  : 		CDPTrans::GetInstance()->SendHousingFurnitureList( dwPlayerId, housingInfo, TRUE, dpId );

  00093	ff 75 10	 push	 DWORD PTR _dpId$[ebp]
  00096	8d 45 e0	 lea	 eax, DWORD PTR _housingInfo$[ebp]
  00099	6a 01		 push	 1
  0009b	50		 push	 eax
  0009c	56		 push	 esi
  0009d	e8 00 00 00 00	 call	 ?GetInstance@CDPTrans@@SAPAV1@XZ ; CDPTrans::GetInstance
  000a2	8b c8		 mov	 ecx, eax
  000a4	e8 00 00 00 00	 call	 ?SendHousingFurnitureList@CDPTrans@@QAEXKAAUHOUSINGINFO@@HK@Z ; CDPTrans::SendHousingFurnitureList
  000a9	5f		 pop	 edi

; 135  : }

  000aa	5e		 pop	 esi
  000ab	8b 4d fc	 mov	 ecx, DWORD PTR __$ArrayPad$[ebp]
  000ae	33 cd		 xor	 ecx, ebp
  000b0	e8 00 00 00 00	 call	 @__security_check_cookie@4
  000b5	8b e5		 mov	 esp, ebp
  000b7	5d		 pop	 ebp
  000b8	c2 0c 00	 ret	 12			; 0000000cH
$LN2@InsertFurn:

; 132  : 	}
; 133  : 	else
; 134  : 		CDPTrans::GetInstance()->SendHousingDBFailed( dwPlayerId, housingInfo.dwItemId, dpId );

  000bb	ff 75 10	 push	 DWORD PTR _dpId$[ebp]
  000be	ff 75 e0	 push	 DWORD PTR _housingInfo$[ebp]
  000c1	56		 push	 esi
  000c2	e8 00 00 00 00	 call	 ?GetInstance@CDPTrans@@SAPAV1@XZ ; CDPTrans::GetInstance
  000c7	8b c8		 mov	 ecx, eax
  000c9	e8 00 00 00 00	 call	 ?SendHousingDBFailed@CDPTrans@@QAEXKKK@Z ; CDPTrans::SendHousingDBFailed

; 135  : }

  000ce	8b 4d fc	 mov	 ecx, DWORD PTR __$ArrayPad$[ebp]
  000d1	5f		 pop	 edi
  000d2	33 cd		 xor	 ecx, ebp
  000d4	5e		 pop	 esi
  000d5	e8 00 00 00 00	 call	 @__security_check_cookie@4
  000da	8b e5		 mov	 esp, ebp
  000dc	5d		 pop	 ebp
  000dd	c2 0c 00	 ret	 12			; 0000000cH
?InsertFurnitureList@CHousingDBCtrl@@AAEXKKK@Z ENDP	; CHousingDBCtrl::InsertFurnitureList
_TEXT	ENDS
; Function compile flags: /Ogtp
; File C:\IAGOS\server\v18\Source\Source\DatabaseServer\HousingDBCtrl.cpp
; File C:\IAGOS\server\v18\Source\Source\_Common\Housing.h
; File C:\IAGOS\server\v18\Source\Source\DatabaseServer\HousingDBCtrl.cpp
; File C:\IAGOS\server\v18\Source\Source\_Common\Housing.h
; File C:\IAGOS\server\v18\Source\Source\DX_SDK\d3dx9math.inl
; File C:\IAGOS\server\v18\Source\Source\DatabaseServer\HousingDBCtrl.cpp
; File C:\IAGOS\server\v18\Source\Source\_Common\Data.h
; File C:\IAGOS\server\v18\Source\Source\DatabaseServer\HousingDBCtrl.cpp
; File C:\IAGOS\server\v18\Source\Source\_Common\Data.h
; File C:\IAGOS\server\v18\Source\Source\DatabaseServer\HousingDBCtrl.cpp
;	COMDAT ?LoadHousingInfo@CHousingDBCtrl@@AAEXKK@Z
_TEXT	SEGMENT
_housingInfo$1 = -32					; size = 28
__$ArrayPad$ = -4					; size = 4
_dwPlayerId$ = 8					; size = 4
_dpId$ = 12						; size = 4
?LoadHousingInfo@CHousingDBCtrl@@AAEXKK@Z PROC		; CHousingDBCtrl::LoadHousingInfo, COMDAT
; _this$ = ecx

; 81   : {

  00000	55		 push	 ebp
  00001	8b ec		 mov	 ebp, esp
  00003	83 ec 20	 sub	 esp, 32			; 00000020H
  00006	a1 00 00 00 00	 mov	 eax, DWORD PTR ___security_cookie
  0000b	33 c5		 xor	 eax, ebp
  0000d	89 45 fc	 mov	 DWORD PTR __$ArrayPad$[ebp], eax
  00010	53		 push	 ebx
  00011	8b 5d 08	 mov	 ebx, DWORD PTR _dwPlayerId$[ebp]
  00014	56		 push	 esi
  00015	57		 push	 edi

; 82   : 	CHousing* pHousing = CHousingMng::GetInstance()->GetHousing( dwPlayerId );

  00016	53		 push	 ebx
  00017	8b f1		 mov	 esi, ecx
  00019	e8 00 00 00 00	 call	 ?GetInstance@CHousingMng@@SAPAV1@XZ ; CHousingMng::GetInstance
  0001e	8b c8		 mov	 ecx, eax
  00020	e8 00 00 00 00	 call	 ?GetHousing@CHousingMng@@QAEPAVCHousing@@K@Z ; CHousingMng::GetHousing
  00025	8b f8		 mov	 edi, eax

; 83   : 	if( !pHousing )

  00027	85 ff		 test	 edi, edi
  00029	0f 85 46 01 00
	00		 jne	 $LN5@LoadHousin

; 84   : 	{
; 85   : 		pHousing = CHousingMng::GetInstance()->CreateHousing( dwPlayerId );

  0002f	53		 push	 ebx
  00030	e8 00 00 00 00	 call	 ?GetInstance@CHousingMng@@SAPAV1@XZ ; CHousingMng::GetInstance
  00035	8b c8		 mov	 ecx, eax
  00037	e8 00 00 00 00	 call	 ?CreateHousing@CHousingMng@@QAEPAVCHousing@@K@Z ; CHousingMng::CreateHousing
  0003c	8b f8		 mov	 edi, eax

; 86   : 		if( !pHousing )	// »ýĽş ˝ÇĆĐ˝Ă ±×łÉ ¸®ĹĎ..

  0003e	85 ff		 test	 edi, edi
  00040	0f 84 40 01 00
	00		 je	 $LN1@LoadHousin

; 87   : 			return;
; 88   : 
; 89   : 		// DB ·Îµů...
; 90   : 		CQuery* pQuery = GetQueryObject();

  00046	8b 76 0c	 mov	 esi, DWORD PTR [esi+12]

; 91   : 		if( pQuery->Execute( "usp_Housing_Load '%02d', '%07d'", g_appInfo.dwSys, dwPlayerId ) )

  00049	53		 push	 ebx
  0004a	ff 35 00 00 00
	00		 push	 DWORD PTR ?g_appInfo@@3UAppInfo@@A
  00050	68 00 00 00 00	 push	 OFFSET ??_C@_0CA@NFCFKOJP@usp_Housing_Load?5?8?$CF02d?8?0?5?8?$CF07d?8@
  00055	56		 push	 esi
  00056	e8 00 00 00 00	 call	 ?Execute@CQuery@@QAAHPBDZZ ; CQuery::Execute
  0005b	83 c4 10	 add	 esp, 16			; 00000010H
  0005e	85 c0		 test	 eax, eax
  00060	0f 84 0f 01 00
	00		 je	 $LN5@LoadHousin

; 92   : 		{
; 93   : 			while( pQuery->Fetch() )

  00066	8b ce		 mov	 ecx, esi
  00068	e8 00 00 00 00	 call	 ?Fetch@CQuery@@QAEHXZ	; CQuery::Fetch
  0006d	85 c0		 test	 eax, eax
  0006f	0f 84 c9 00 00
	00		 je	 $LN3@LoadHousin
  00075	66 66 66 0f 1f
	84 00 00 00 00
	00		 npad	 11
$LL2@LoadHousin:
  00080	0f 57 c0	 xorps	 xmm0, xmm0
; File C:\IAGOS\server\v18\Source\Source\_Common\Housing.h

; 20   : 	HOUSINGINFO() : dwItemId(NULL_ID), tKeepTime(0), vPos(0.0f,0.0f,0.0f), bSetup(FALSE), fAngle(0.0f)

  00083	c7 45 e0 ff ff
	ff ff		 mov	 DWORD PTR _housingInfo$1[ebp], -1
; File C:\IAGOS\server\v18\Source\Source\DatabaseServer\HousingDBCtrl.cpp

; 96   : 				housingInfo.dwItemId = static_cast<DWORD>( pQuery->GetInt( "ItemIndex" ) );

  0008a	68 00 00 00 00	 push	 OFFSET ??_C@_09LCBEKCCJ@ItemIndex@
  0008f	8b ce		 mov	 ecx, esi
; File C:\IAGOS\server\v18\Source\Source\_Common\Housing.h

; 20   : 	HOUSINGINFO() : dwItemId(NULL_ID), tKeepTime(0), vPos(0.0f,0.0f,0.0f), bSetup(FALSE), fAngle(0.0f)

  00091	c7 45 e4 00 00
	00 00		 mov	 DWORD PTR _housingInfo$1[ebp+4], 0
  00098	c7 45 e8 00 00
	00 00		 mov	 DWORD PTR _housingInfo$1[ebp+8], 0
; File C:\IAGOS\server\v18\Source\Source\DX_SDK\d3dx9math.inl

; 300  :     x = fx;

  0009f	0f 11 45 ec	 movups	 XMMWORD PTR _housingInfo$1[ebp+12], xmm0
; File C:\IAGOS\server\v18\Source\Source\DatabaseServer\HousingDBCtrl.cpp

; 96   : 				housingInfo.dwItemId = static_cast<DWORD>( pQuery->GetInt( "ItemIndex" ) );

  000a3	e8 00 00 00 00	 call	 ?GetInt@CQuery@@QAEHPAD@Z ; CQuery::GetInt

; 97   : 				housingInfo.tKeepTime = static_cast<time_t>( pQuery->GetInt64( "tKeepTime" ) );

  000a8	68 00 00 00 00	 push	 OFFSET ??_C@_09CGIPPJPO@tKeepTime@
  000ad	8b ce		 mov	 ecx, esi
  000af	89 45 e0	 mov	 DWORD PTR _housingInfo$1[ebp], eax
  000b2	e8 00 00 00 00	 call	 ?GetInt64@CQuery@@QAE_JPAD@Z ; CQuery::GetInt64

; 98   : 				housingInfo.bSetup = static_cast<BOOL>( pQuery->GetInt( "bSetup" ) );

  000b7	68 00 00 00 00	 push	 OFFSET ??_C@_06DMCKBLKP@bSetup@
  000bc	8b ce		 mov	 ecx, esi
  000be	89 45 e4	 mov	 DWORD PTR _housingInfo$1[ebp+4], eax
  000c1	e8 00 00 00 00	 call	 ?GetInt@CQuery@@QAEHPAD@Z ; CQuery::GetInt

; 99   : 				housingInfo.vPos.x = pQuery->GetFloat( "x_Pos" );

  000c6	68 00 00 00 00	 push	 OFFSET ??_C@_05JPJLCAGA@x_Pos@
  000cb	8b ce		 mov	 ecx, esi
  000cd	89 45 e8	 mov	 DWORD PTR _housingInfo$1[ebp+8], eax
  000d0	e8 00 00 00 00	 call	 ?GetFloat@CQuery@@QAEMPAD@Z ; CQuery::GetFloat
  000d5	d9 5d ec	 fstp	 DWORD PTR _housingInfo$1[ebp+12]

; 100  : 				housingInfo.vPos.y = pQuery->GetFloat( "y_Pos" );

  000d8	68 00 00 00 00	 push	 OFFSET ??_C@_05FEMHPDMF@y_Pos@
  000dd	8b ce		 mov	 ecx, esi
  000df	e8 00 00 00 00	 call	 ?GetFloat@CQuery@@QAEMPAD@Z ; CQuery::GetFloat
  000e4	d9 5d f0	 fstp	 DWORD PTR _housingInfo$1[ebp+16]

; 101  : 				housingInfo.vPos.z = pQuery->GetFloat( "z_Pos" );

  000e7	68 00 00 00 00	 push	 OFFSET ??_C@_05NCFDIBGL@z_Pos@
  000ec	8b ce		 mov	 ecx, esi
  000ee	e8 00 00 00 00	 call	 ?GetFloat@CQuery@@QAEMPAD@Z ; CQuery::GetFloat
  000f3	d9 5d f4	 fstp	 DWORD PTR _housingInfo$1[ebp+20]

; 102  : 				housingInfo.fAngle = pQuery->GetFloat( "fAngle" );

  000f6	68 00 00 00 00	 push	 OFFSET ??_C@_06JHEFCLKH@fAngle@
  000fb	8b ce		 mov	 ecx, esi
  000fd	e8 00 00 00 00	 call	 ?GetFloat@CQuery@@QAEMPAD@Z ; CQuery::GetFloat
; File C:\IAGOS\server\v18\Source\Source\_Common\Data.h

; 270  : 	if( dwIndex >= (DWORD)m_nMaxIndex )

  00102	8b 4d e0	 mov	 ecx, DWORD PTR _housingInfo$1[ebp]
; File C:\IAGOS\server\v18\Source\Source\DatabaseServer\HousingDBCtrl.cpp

; 102  : 				housingInfo.fAngle = pQuery->GetFloat( "fAngle" );

  00105	d9 5d f8	 fstp	 DWORD PTR _housingInfo$1[ebp+24]
; File C:\IAGOS\server\v18\Source\Source\_Common\Data.h

; 270  : 	if( dwIndex >= (DWORD)m_nMaxIndex )

  00108	3b 0d 4c 00 00
	00		 cmp	 ecx, DWORD PTR ?prj@@3VCProject@@A+76
  0010e	73 1f		 jae	 SHORT $LN9@LoadHousin

; 271  : 		return NULL;
; 272  : 	return (T*) m_apOffset[ dwIndex ];

  00110	a1 3c 00 00 00	 mov	 eax, DWORD PTR ?prj@@3VCProject@@A+60
  00115	8b 04 88	 mov	 eax, DWORD PTR [eax+ecx*4]
; File C:\IAGOS\server\v18\Source\Source\DatabaseServer\HousingDBCtrl.cpp

; 105  : 				if( pItemProp && pItemProp->dwItemKind1 == IK1_HOUSING )

  00118	85 c0		 test	 eax, eax
  0011a	74 13		 je	 SHORT $LN9@LoadHousin
  0011c	83 78 70 07	 cmp	 DWORD PTR [eax+112], 7
  00120	75 0d		 jne	 SHORT $LN9@LoadHousin

; 106  : 					pHousing->SetFurnitureList( housingInfo, TRUE );

  00122	6a 01		 push	 1
  00124	8d 45 e0	 lea	 eax, DWORD PTR _housingInfo$1[ebp]
  00127	8b cf		 mov	 ecx, edi
  00129	50		 push	 eax
  0012a	e8 00 00 00 00	 call	 ?SetFurnitureList@CHousing@@QAEXAAUHOUSINGINFO@@H@Z ; CHousing::SetFurnitureList
$LN9@LoadHousin:

; 92   : 		{
; 93   : 			while( pQuery->Fetch() )

  0012f	8b ce		 mov	 ecx, esi
  00131	e8 00 00 00 00	 call	 ?Fetch@CQuery@@QAEHXZ	; CQuery::Fetch
  00136	85 c0		 test	 eax, eax
  00138	0f 85 42 ff ff
	ff		 jne	 $LL2@LoadHousin
$LN3@LoadHousin:

; 107  : 			}
; 108  : 
; 109  : 			if( pQuery->MoreResults() )

  0013e	8b ce		 mov	 ecx, esi
  00140	e8 00 00 00 00	 call	 ?MoreResults@CQuery@@QAEHXZ ; CQuery::MoreResults
  00145	85 c0		 test	 eax, eax
  00147	74 2c		 je	 SHORT $LN5@LoadHousin

; 110  : 			{
; 111  : 				while( pQuery->Fetch() )

  00149	8b ce		 mov	 ecx, esi
  0014b	e8 00 00 00 00	 call	 ?Fetch@CQuery@@QAEHXZ	; CQuery::Fetch
  00150	85 c0		 test	 eax, eax
  00152	74 21		 je	 SHORT $LN5@LoadHousin
$LL4@LoadHousin:

; 112  : 					pHousing->SetVisitAllow( pQuery->GetInt( "f_idPlayer" ), TRUE );

  00154	6a 01		 push	 1
  00156	68 00 00 00 00	 push	 OFFSET ??_C@_0L@HNPENDNB@f_idPlayer@
  0015b	8b ce		 mov	 ecx, esi
  0015d	e8 00 00 00 00	 call	 ?GetInt@CQuery@@QAEHPAD@Z ; CQuery::GetInt
  00162	50		 push	 eax
  00163	8b cf		 mov	 ecx, edi
  00165	e8 00 00 00 00	 call	 ?SetVisitAllow@CHousing@@QAEXKH@Z ; CHousing::SetVisitAllow
  0016a	8b ce		 mov	 ecx, esi
  0016c	e8 00 00 00 00	 call	 ?Fetch@CQuery@@QAEHXZ	; CQuery::Fetch
  00171	85 c0		 test	 eax, eax
  00173	75 df		 jne	 SHORT $LL4@LoadHousin
$LN5@LoadHousin:

; 113  : 			}
; 114  : 		}
; 115  : 	}
; 116  : 
; 117  : 	// ÇĎżěÂˇ Á¤ş¸¸¦ żůµĺĽ­ąöżˇ Ŕü´Ţ...
; 118  : 	CDPTrans::GetInstance()->SendHousingLoadInfo( dwPlayerId, pHousing, dpId );

  00175	ff 75 0c	 push	 DWORD PTR _dpId$[ebp]
  00178	57		 push	 edi
  00179	53		 push	 ebx
  0017a	e8 00 00 00 00	 call	 ?GetInstance@CDPTrans@@SAPAV1@XZ ; CDPTrans::GetInstance
  0017f	8b c8		 mov	 ecx, eax
  00181	e8 00 00 00 00	 call	 ?SendHousingLoadInfo@CDPTrans@@QAEXKPAVCHousing@@K@Z ; CDPTrans::SendHousingLoadInfo
$LN1@LoadHousin:

; 119  : }

  00186	8b 4d fc	 mov	 ecx, DWORD PTR __$ArrayPad$[ebp]
  00189	5f		 pop	 edi
  0018a	5e		 pop	 esi
  0018b	33 cd		 xor	 ecx, ebp
  0018d	5b		 pop	 ebx
  0018e	e8 00 00 00 00	 call	 @__security_check_cookie@4
  00193	8b e5		 mov	 esp, ebp
  00195	5d		 pop	 ebp
  00196	c2 08 00	 ret	 8
?LoadHousingInfo@CHousingDBCtrl@@AAEXKK@Z ENDP		; CHousingDBCtrl::LoadHousingInfo
_TEXT	ENDS
; Function compile flags: /Ogtp
; File C:\IAGOS\server\v18\Source\Source\DatabaseServer\HousingDBCtrl.cpp
;	COMDAT ?DeleteFurnitureList@CHousingDBCtrl@@QAEXKUHOUSINGINFO@@@Z
_TEXT	SEGMENT
_dwPlayerId$ = 8					; size = 4
_housingInfo$ = 12					; size = 28
?DeleteFurnitureList@CHousingDBCtrl@@QAEXKUHOUSINGINFO@@@Z PROC ; CHousingDBCtrl::DeleteFurnitureList, COMDAT
; _this$ = ecx

; 151  : {

  00000	55		 push	 ebp
  00001	8b ec		 mov	 ebp, esp
  00003	56		 push	 esi

; 152  : 	if( GetQueryObject()->Execute( "usp_Housing_Del '%02d', '%07d', %d", g_appInfo.dwSys, dwPlayerId, housingInfo.dwItemId ) )

  00004	ff 75 0c	 push	 DWORD PTR _housingInfo$[ebp]
  00007	8b 75 08	 mov	 esi, DWORD PTR _dwPlayerId$[ebp]
  0000a	56		 push	 esi
  0000b	ff 35 00 00 00
	00		 push	 DWORD PTR ?g_appInfo@@3UAppInfo@@A
  00011	68 00 00 00 00	 push	 OFFSET ??_C@_0CD@CDDEIHOG@usp_Housing_Del?5?8?$CF02d?8?0?5?8?$CF07d?8?0@
  00016	ff 71 0c	 push	 DWORD PTR [ecx+12]
  00019	e8 00 00 00 00	 call	 ?Execute@CQuery@@QAAHPBDZZ ; CQuery::Execute
  0001e	83 c4 14	 add	 esp, 20			; 00000014H
  00021	85 c0		 test	 eax, eax
  00023	74 28		 je	 SHORT $LN2@DeleteFurn

; 153  : 	{
; 154  : 		CHousingMng::GetInstance()->SetFurnitureList( dwPlayerId, housingInfo, FALSE );

  00025	6a 00		 push	 0
  00027	8d 45 0c	 lea	 eax, DWORD PTR _housingInfo$[ebp]
  0002a	50		 push	 eax
  0002b	56		 push	 esi
  0002c	e8 00 00 00 00	 call	 ?GetInstance@CHousingMng@@SAPAV1@XZ ; CHousingMng::GetInstance
  00031	8b c8		 mov	 ecx, eax
  00033	e8 00 00 00 00	 call	 ?SetFurnitureList@CHousingMng@@QAEXKAAUHOUSINGINFO@@H@Z ; CHousingMng::SetFurnitureList

; 155  : 		CDPTrans::GetInstance()->SendHousingFurnitureList( dwPlayerId, housingInfo, FALSE, DPID_ALLPLAYERS );

  00038	6a 00		 push	 0
  0003a	6a 00		 push	 0
  0003c	8d 45 0c	 lea	 eax, DWORD PTR _housingInfo$[ebp]
  0003f	50		 push	 eax
  00040	56		 push	 esi
  00041	e8 00 00 00 00	 call	 ?GetInstance@CDPTrans@@SAPAV1@XZ ; CDPTrans::GetInstance
  00046	8b c8		 mov	 ecx, eax
  00048	e8 00 00 00 00	 call	 ?SendHousingFurnitureList@CDPTrans@@QAEXKAAUHOUSINGINFO@@HK@Z ; CDPTrans::SendHousingFurnitureList
$LN2@DeleteFurn:
  0004d	5e		 pop	 esi

; 156  : 	}
; 157  : }

  0004e	5d		 pop	 ebp
  0004f	c2 20 00	 ret	 32			; 00000020H
?DeleteFurnitureList@CHousingDBCtrl@@QAEXKUHOUSINGINFO@@@Z ENDP ; CHousingDBCtrl::DeleteFurnitureList
_TEXT	ENDS
; Function compile flags: /Ogtp
; File C:\IAGOS\server\v18\Source\Source\DatabaseServer\HousingDBCtrl.cpp
;	COMDAT ?OnTimer@CHousingDBCtrl@@UAEXXZ
_TEXT	SEGMENT
?OnTimer@CHousingDBCtrl@@UAEXXZ PROC			; CHousingDBCtrl::OnTimer, COMDAT
; _this$ = ecx

; 174  : 	CHousingMng::GetInstance()->ProcessRemoveExpiredFurniture();

  00000	e8 00 00 00 00	 call	 ?GetInstance@CHousingMng@@SAPAV1@XZ ; CHousingMng::GetInstance
  00005	8b c8		 mov	 ecx, eax
  00007	e9 00 00 00 00	 jmp	 ?ProcessRemoveExpiredFurniture@CHousingMng@@QAEXXZ ; CHousingMng::ProcessRemoveExpiredFurniture
?OnTimer@CHousingDBCtrl@@UAEXXZ ENDP			; CHousingDBCtrl::OnTimer
_TEXT	ENDS
; Function compile flags: /Ogtp
; File C:\IAGOS\server\v18\Source\Source\DatabaseServer\HousingDBCtrl.cpp
; File C:\IAGOS\server\v18\Source\Source\_Network\Misc\Include\Ar.h
; File C:\IAGOS\server\v18\Source\Source\_Common\Housing.h
; File C:\Program Files (x86)\Windows Kits\10\Include\10.0.26100.0\ucrt\time.h
; File C:\IAGOS\server\v18\Source\Source\_Common\Housing.h
; File C:\Program Files (x86)\Windows Kits\10\Include\10.0.26100.0\ucrt\time.h
; File C:\IAGOS\server\v18\Source\Source\_Common\Housing.h
; File C:\Program Files (x86)\Windows Kits\10\Include\10.0.26100.0\ucrt\time.h
; File C:\IAGOS\server\v18\Source\Source\_Common\Housing.h
; File C:\Program Files (x86)\Windows Kits\10\Include\10.0.26100.0\ucrt\time.h
; File C:\IAGOS\server\v18\Source\Source\_Common\Housing.h
; File C:\IAGOS\server\v18\Source\Source\DatabaseServer\HousingDBCtrl.cpp
; File C:\Program Files (x86)\Windows Kits\10\Include\10.0.26100.0\ucrt\time.h
; File C:\IAGOS\server\v18\Source\Source\DatabaseServer\HousingDBCtrl.cpp
;	COMDAT ?Handler@CHousingDBCtrl@@UAEXPAUtagDB_OVERLAPPED_PLUS@@K@Z
_TEXT	SEGMENT
_housingInfo$2 = -16460					; size = 28
_dwPlayerId$3 = -16432					; size = 4
_dwPlayerId$4 = -16432					; size = 4
_dwPlayerId$5 = -16428					; size = 4
_bAllow$6 = -16428					; size = 4
$T7 = -16428						; size = 4
_dwPlayerId$8 = -16424					; size = 4
_dwItemId$9 = -16424					; size = 4
_dwPlayerId$10 = -16424					; size = 4
_dwTargetId$11 = -16424					; size = 4
_ar$ = -16420						; size = 16404
__$ArrayPad$ = -16					; size = 4
__$EHRec$ = -12						; size = 12
_pov$ = 8						; size = 4
_dwCompletionKey$ = 12					; size = 4
?Handler@CHousingDBCtrl@@UAEXPAUtagDB_OVERLAPPED_PLUS@@K@Z PROC ; CHousingDBCtrl::Handler, COMDAT
; _this$ = ecx

; 21   : {

  00000	55		 push	 ebp
  00001	8b ec		 mov	 ebp, esp
  00003	6a ff		 push	 -1
  00005	68 00 00 00 00	 push	 __ehhandler$?Handler@CHousingDBCtrl@@UAEXPAUtagDB_OVERLAPPED_PLUS@@K@Z
  0000a	64 a1 00 00 00
	00		 mov	 eax, DWORD PTR fs:0
  00010	50		 push	 eax
  00011	b8 40 40 00 00	 mov	 eax, 16448		; 00004040H
  00016	e8 00 00 00 00	 call	 __chkstk
  0001b	a1 00 00 00 00	 mov	 eax, DWORD PTR ___security_cookie
  00020	33 c5		 xor	 eax, ebp
  00022	89 45 f0	 mov	 DWORD PTR __$ArrayPad$[ebp], eax
  00025	56		 push	 esi
  00026	57		 push	 edi
  00027	50		 push	 eax
  00028	8d 45 f4	 lea	 eax, DWORD PTR __$EHRec$[ebp]
  0002b	64 a3 00 00 00
	00		 mov	 DWORD PTR fs:0, eax
  00031	8b f9		 mov	 edi, ecx
  00033	8b 75 08	 mov	 esi, DWORD PTR _pov$[ebp]

; 22   : 	CAr ar( pov->lpBuf, pov->uBufSize );

  00036	8d 8d dc bf ff
	ff		 lea	 ecx, DWORD PTR _ar$[ebp]
  0003c	ff 76 1c	 push	 DWORD PTR [esi+28]
  0003f	ff 76 18	 push	 DWORD PTR [esi+24]
  00042	e8 00 00 00 00	 call	 ??0CAr@@QAE@PAXI@Z	; CAr::CAr

; 23   : 
; 24   : 	switch( pov->nQueryMode )

  00047	8b 46 14	 mov	 eax, DWORD PTR [esi+20]
  0004a	c7 45 fc 00 00
	00 00		 mov	 DWORD PTR __$EHRec$[ebp+8], 0
  00051	83 f8 04	 cmp	 eax, 4
  00054	0f 87 15 02 00
	00		 ja	 $LN9@Handler
  0005a	ff 24 85 00 00
	00 00		 jmp	 DWORD PTR $LN30@Handler[eax*4]
$LN4@Handler:

; 25   : 	{
; 26   : 		case QUERY_HOUSING_LOAD:
; 27   : 			{
; 28   : 				DWORD dwPlayerId;
; 29   : 				ar >> dwPlayerId;

  00061	8d 85 d8 bf ff
	ff		 lea	 eax, DWORD PTR _dwPlayerId$8[ebp]
  00067	50		 push	 eax
  00068	8d 8d dc bf ff
	ff		 lea	 ecx, DWORD PTR _ar$[ebp]
  0006e	e8 00 00 00 00	 call	 ??$?5K@CAr@@QAEAAV0@AAK@Z ; CAr::operator>><unsigned long>

; 30   : 				
; 31   : 				LoadHousingInfo( dwPlayerId, dwCompletionKey );

  00073	ff 75 0c	 push	 DWORD PTR _dwCompletionKey$[ebp]
  00076	8b cf		 mov	 ecx, edi
  00078	ff b5 d8 bf ff
	ff		 push	 DWORD PTR _dwPlayerId$8[ebp]
  0007e	e8 00 00 00 00	 call	 ?LoadHousingInfo@CHousingDBCtrl@@AAEXKK@Z ; CHousingDBCtrl::LoadHousingInfo

; 32   : 			}
; 33   : 			break;

  00083	e9 e7 01 00 00	 jmp	 $LN9@Handler
$LN5@Handler:

; 34   : 
; 35   : 		case QUERY_HOUSING_INSERT_LIST:
; 36   : 			{
; 37   : 				DWORD dwPlayerId, dwItemId;
; 38   : 				ar >> dwPlayerId >> dwItemId;

  00088	8d 85 d8 bf ff
	ff		 lea	 eax, DWORD PTR _dwItemId$9[ebp]
  0008e	50		 push	 eax
  0008f	8d 85 d4 bf ff
	ff		 lea	 eax, DWORD PTR _dwPlayerId$5[ebp]
  00095	50		 push	 eax
  00096	8d 8d dc bf ff
	ff		 lea	 ecx, DWORD PTR _ar$[ebp]
  0009c	e8 00 00 00 00	 call	 ??$?5K@CAr@@QAEAAV0@AAK@Z ; CAr::operator>><unsigned long>
  000a1	8b c8		 mov	 ecx, eax
  000a3	e8 00 00 00 00	 call	 ??$?5K@CAr@@QAEAAV0@AAK@Z ; CAr::operator>><unsigned long>

; 39   : 				
; 40   : 				InsertFurnitureList( dwPlayerId, dwItemId, dwCompletionKey );

  000a8	ff 75 0c	 push	 DWORD PTR _dwCompletionKey$[ebp]
  000ab	8b cf		 mov	 ecx, edi
  000ad	ff b5 d8 bf ff
	ff		 push	 DWORD PTR _dwItemId$9[ebp]
  000b3	ff b5 d4 bf ff
	ff		 push	 DWORD PTR _dwPlayerId$5[ebp]
  000b9	e8 00 00 00 00	 call	 ?InsertFurnitureList@CHousingDBCtrl@@AAEXKKK@Z ; CHousingDBCtrl::InsertFurnitureList

; 41   : 			}
; 42   : 			break;

  000be	e9 ac 01 00 00	 jmp	 $LN9@Handler
$LN6@Handler:

; 43   : 			
; 44   : 		case QUERY_HOUSING_SETUP_FURNITURE:
; 45   : 			{
; 46   : 				DWORD dwPlayerId;
; 47   : 				HOUSINGINFO housingInfo;

  000c3	8d 8d b4 bf ff
	ff		 lea	 ecx, DWORD PTR _housingInfo$2[ebp]
  000c9	e8 00 00 00 00	 call	 ??0HOUSINGINFO@@QAE@XZ	; HOUSINGINFO::HOUSINGINFO

; 48   : 
; 49   : 				ar >> dwPlayerId;

  000ce	8d 85 d8 bf ff
	ff		 lea	 eax, DWORD PTR _dwPlayerId$10[ebp]
  000d4	50		 push	 eax
  000d5	8d 8d dc bf ff
	ff		 lea	 ecx, DWORD PTR _ar$[ebp]
  000db	e8 00 00 00 00	 call	 ??$?5K@CAr@@QAEAAV0@AAK@Z ; CAr::operator>><unsigned long>
; File C:\IAGOS\server\v18\Source\Source\_Network\Misc\Include\Ar.h

; 146  : 	return (m_nMode & CAr::load) == 0;

  000e0	f6 85 dc bf ff
	ff 01		 test	 BYTE PTR _ar$[ebp], 1
; File C:\IAGOS\server\v18\Source\Source\_Common\Housing.h

; 38   : 		if( ar.IsStoring() )

  000e7	75 64		 jne	 SHORT $LN13@Handler
; File C:\Program Files (x86)\Windows Kits\10\Include\10.0.26100.0\ucrt\time.h

; 428  :             return _time32(_Time);

  000e9	6a 00		 push	 0
  000eb	e8 00 00 00 00	 call	 __time32
; File C:\IAGOS\server\v18\Source\Source\_Common\Housing.h

; 39   : 			ar << dwItemId << static_cast<time_t>(tKeepTime - time_null()) << bSetup << vPos << fAngle;

  000f0	8b 8d b8 bf ff
	ff		 mov	 ecx, DWORD PTR _housingInfo$2[ebp+4]
; File C:\Program Files (x86)\Windows Kits\10\Include\10.0.26100.0\ucrt\time.h

; 428  :             return _time32(_Time);

  000f6	83 c4 04	 add	 esp, 4
; File C:\IAGOS\server\v18\Source\Source\_Common\Housing.h

; 39   : 			ar << dwItemId << static_cast<time_t>(tKeepTime - time_null()) << bSetup << vPos << fAngle;

  000f9	2b c8		 sub	 ecx, eax
  000fb	8d 85 cc bf ff
	ff		 lea	 eax, DWORD PTR _housingInfo$2[ebp+24]
  00101	89 8d d4 bf ff
	ff		 mov	 DWORD PTR $T7[ebp], ecx
  00107	8d 8d dc bf ff
	ff		 lea	 ecx, DWORD PTR _ar$[ebp]
  0010d	50		 push	 eax
  0010e	8d 85 c0 bf ff
	ff		 lea	 eax, DWORD PTR _housingInfo$2[ebp+12]
  00114	50		 push	 eax
  00115	8d 85 bc bf ff
	ff		 lea	 eax, DWORD PTR _housingInfo$2[ebp+8]
  0011b	50		 push	 eax
  0011c	8d 85 d4 bf ff
	ff		 lea	 eax, DWORD PTR $T7[ebp]
  00122	50		 push	 eax
  00123	8d 85 b4 bf ff
	ff		 lea	 eax, DWORD PTR _housingInfo$2[ebp]
  00129	50		 push	 eax
  0012a	e8 00 00 00 00	 call	 ??$?6K@CAr@@QAEAAV0@ABK@Z ; CAr::operator<<<unsigned long>
  0012f	8b c8		 mov	 ecx, eax
  00131	e8 00 00 00 00	 call	 ??$?6J@CAr@@QAEAAV0@ABJ@Z ; CAr::operator<<<long>
  00136	8b c8		 mov	 ecx, eax
  00138	e8 00 00 00 00	 call	 ??$?6H@CAr@@QAEAAV0@ABH@Z ; CAr::operator<<<int>
  0013d	8b c8		 mov	 ecx, eax
  0013f	e8 00 00 00 00	 call	 ??$?6UD3DXVECTOR3@@@CAr@@QAEAAV0@ABUD3DXVECTOR3@@@Z ; CAr::operator<<<D3DXVECTOR3>
  00144	8b c8		 mov	 ecx, eax
  00146	e8 00 00 00 00	 call	 ??$?6M@CAr@@QAEAAV0@ABM@Z ; CAr::operator<<<float>
  0014b	eb 5e		 jmp	 SHORT $LN14@Handler
$LN13@Handler:

; 40   : 		else
; 41   : 		{
; 42   : 			ar >> dwItemId >> tKeepTime;

  0014d	8d 85 b8 bf ff
	ff		 lea	 eax, DWORD PTR _housingInfo$2[ebp+4]
  00153	50		 push	 eax
  00154	8d 85 b4 bf ff
	ff		 lea	 eax, DWORD PTR _housingInfo$2[ebp]
  0015a	50		 push	 eax
  0015b	8d 8d dc bf ff
	ff		 lea	 ecx, DWORD PTR _ar$[ebp]
  00161	e8 00 00 00 00	 call	 ??$?5K@CAr@@QAEAAV0@AAK@Z ; CAr::operator>><unsigned long>
  00166	8b c8		 mov	 ecx, eax
  00168	e8 00 00 00 00	 call	 ??$?5J@CAr@@QAEAAV0@AAJ@Z ; CAr::operator>><long>
; File C:\Program Files (x86)\Windows Kits\10\Include\10.0.26100.0\ucrt\time.h

; 428  :             return _time32(_Time);

  0016d	6a 00		 push	 0
  0016f	e8 00 00 00 00	 call	 __time32
; File C:\IAGOS\server\v18\Source\Source\_Common\Housing.h

; 43   : 			tKeepTime += time_null();

  00174	01 85 b8 bf ff
	ff		 add	 DWORD PTR _housingInfo$2[ebp+4], eax

; 44   : 			ar >> bSetup >> vPos >> fAngle;

  0017a	8d 8d dc bf ff
	ff		 lea	 ecx, DWORD PTR _ar$[ebp]
; File C:\Program Files (x86)\Windows Kits\10\Include\10.0.26100.0\ucrt\time.h

; 428  :             return _time32(_Time);

  00180	83 c4 04	 add	 esp, 4
; File C:\IAGOS\server\v18\Source\Source\_Common\Housing.h

; 44   : 			ar >> bSetup >> vPos >> fAngle;

  00183	8d 85 cc bf ff
	ff		 lea	 eax, DWORD PTR _housingInfo$2[ebp+24]
  00189	50		 push	 eax
  0018a	8d 85 c0 bf ff
	ff		 lea	 eax, DWORD PTR _housingInfo$2[ebp+12]
  00190	50		 push	 eax
  00191	8d 85 bc bf ff
	ff		 lea	 eax, DWORD PTR _housingInfo$2[ebp+8]
  00197	50		 push	 eax
  00198	e8 00 00 00 00	 call	 ??$?5H@CAr@@QAEAAV0@AAH@Z ; CAr::operator>><int>
  0019d	8b c8		 mov	 ecx, eax
  0019f	e8 00 00 00 00	 call	 ??$?5UD3DXVECTOR3@@@CAr@@QAEAAV0@AAUD3DXVECTOR3@@@Z ; CAr::operator>><D3DXVECTOR3>
  001a4	8b c8		 mov	 ecx, eax
  001a6	e8 00 00 00 00	 call	 ??$?5M@CAr@@QAEAAV0@AAM@Z ; CAr::operator>><float>
$LN14@Handler:
; File C:\IAGOS\server\v18\Source\Source\DatabaseServer\HousingDBCtrl.cpp

; 52   : 				SetupFurniture( dwPlayerId, housingInfo, dwCompletionKey );

  001ab	ff 75 0c	 push	 DWORD PTR _dwCompletionKey$[ebp]
  001ae	0f 10 85 b4 bf
	ff ff		 movups	 xmm0, XMMWORD PTR _housingInfo$2[ebp]
  001b5	8b 85 cc bf ff
	ff		 mov	 eax, DWORD PTR _housingInfo$2[ebp+24]
  001bb	83 ec 1c	 sub	 esp, 28			; 0000001cH
  001be	8b cc		 mov	 ecx, esp
  001c0	ff b5 d8 bf ff
	ff		 push	 DWORD PTR _dwPlayerId$10[ebp]
  001c6	0f 11 01	 movups	 XMMWORD PTR [ecx], xmm0
  001c9	f3 0f 7e 85 c4
	bf ff ff	 movq	 xmm0, QWORD PTR _housingInfo$2[ebp+16]
  001d1	66 0f d6 41 10	 movq	 QWORD PTR [ecx+16], xmm0
  001d6	89 41 18	 mov	 DWORD PTR [ecx+24], eax
  001d9	8b cf		 mov	 ecx, edi
  001db	e8 00 00 00 00	 call	 ?SetupFurniture@CHousingDBCtrl@@AAEXKUHOUSINGINFO@@K@Z ; CHousingDBCtrl::SetupFurniture

; 53   : 			}
; 54   : 			break;

  001e0	e9 8a 00 00 00	 jmp	 $LN9@Handler
$LN7@Handler:

; 55   : 
; 56   : 		case QUERY_HOUSING_SET_VISITALLOW:
; 57   : 			{
; 58   : 				DWORD dwPlayerId, dwTargetId;
; 59   : 				BOOL bAllow;
; 60   : 
; 61   : 				ar >> dwPlayerId >> dwTargetId >> bAllow;

  001e5	8d 85 d4 bf ff
	ff		 lea	 eax, DWORD PTR _bAllow$6[ebp]
  001eb	50		 push	 eax
  001ec	8d 85 d8 bf ff
	ff		 lea	 eax, DWORD PTR _dwTargetId$11[ebp]
  001f2	50		 push	 eax
  001f3	8d 85 d0 bf ff
	ff		 lea	 eax, DWORD PTR _dwPlayerId$3[ebp]
  001f9	50		 push	 eax
  001fa	8d 8d dc bf ff
	ff		 lea	 ecx, DWORD PTR _ar$[ebp]
  00200	e8 00 00 00 00	 call	 ??$?5K@CAr@@QAEAAV0@AAK@Z ; CAr::operator>><unsigned long>
  00205	8b c8		 mov	 ecx, eax
  00207	e8 00 00 00 00	 call	 ??$?5K@CAr@@QAEAAV0@AAK@Z ; CAr::operator>><unsigned long>
  0020c	8b c8		 mov	 ecx, eax
  0020e	e8 00 00 00 00	 call	 ??$?5H@CAr@@QAEAAV0@AAH@Z ; CAr::operator>><int>

; 62   : 
; 63   : 				SetVisitAllow( dwPlayerId, dwTargetId, bAllow, dwCompletionKey );

  00213	ff 75 0c	 push	 DWORD PTR _dwCompletionKey$[ebp]
  00216	8b cf		 mov	 ecx, edi
  00218	ff b5 d4 bf ff
	ff		 push	 DWORD PTR _bAllow$6[ebp]
  0021e	ff b5 d8 bf ff
	ff		 push	 DWORD PTR _dwTargetId$11[ebp]
  00224	ff b5 d0 bf ff
	ff		 push	 DWORD PTR _dwPlayerId$3[ebp]
  0022a	e8 00 00 00 00	 call	 ?SetVisitAllow@CHousingDBCtrl@@AAEXKKHK@Z ; CHousingDBCtrl::SetVisitAllow

; 64   : 			}
; 65   : 			break;

  0022f	eb 3e		 jmp	 SHORT $LN9@Handler
$LN8@Handler:

; 66   : 
; 67   : 		case QUERY_HOUSING_GM_REMOVEALL:
; 68   : 			{
; 69   : 				DWORD dwPlayerId;
; 70   : 				ar >> dwPlayerId;

  00231	8d 85 d0 bf ff
	ff		 lea	 eax, DWORD PTR _dwPlayerId$4[ebp]
  00237	50		 push	 eax
  00238	8d 8d dc bf ff
	ff		 lea	 ecx, DWORD PTR _ar$[ebp]
  0023e	e8 00 00 00 00	 call	 ??$?5K@CAr@@QAEAAV0@AAK@Z ; CAr::operator>><unsigned long>

; 71   : 				CHousing* pHousing = CHousingMng::GetInstance()->GetHousing( dwPlayerId );

  00243	ff b5 d0 bf ff
	ff		 push	 DWORD PTR _dwPlayerId$4[ebp]
  00249	e8 00 00 00 00	 call	 ?GetInstance@CHousingMng@@SAPAV1@XZ ; CHousingMng::GetInstance
  0024e	8b c8		 mov	 ecx, eax
  00250	e8 00 00 00 00	 call	 ?GetHousing@CHousingMng@@QAEPAVCHousing@@K@Z ; CHousingMng::GetHousing
  00255	8b f0		 mov	 esi, eax

; 72   : 				if( pHousing )

  00257	85 f6		 test	 esi, esi
  00259	74 14		 je	 SHORT $LN9@Handler
; File C:\Program Files (x86)\Windows Kits\10\Include\10.0.26100.0\ucrt\time.h

; 428  :             return _time32(_Time);

  0025b	6a 00		 push	 0
  0025d	e8 00 00 00 00	 call	 __time32
  00262	83 c4 04	 add	 esp, 4
; File C:\IAGOS\server\v18\Source\Source\DatabaseServer\HousingDBCtrl.cpp

; 73   : 					pHousing->ProcessExpiredFurniture( time_null(), TRUE );

  00265	8b ce		 mov	 ecx, esi
  00267	6a 01		 push	 1
  00269	50		 push	 eax
  0026a	e8 00 00 00 00	 call	 ?ProcessExpiredFurniture@CHousing@@QAEXJH@Z ; CHousing::ProcessExpiredFurniture
$LN9@Handler:

; 74   : 			}
; 75   : 			break;
; 76   : 	}
; 77   : 
; 78   : }

  0026f	8d 8d dc bf ff
	ff		 lea	 ecx, DWORD PTR _ar$[ebp]
  00275	e8 00 00 00 00	 call	 ??1CAr@@QAE@XZ		; CAr::~CAr
  0027a	8b 4d f4	 mov	 ecx, DWORD PTR __$EHRec$[ebp]
  0027d	64 89 0d 00 00
	00 00		 mov	 DWORD PTR fs:0, ecx
  00284	59		 pop	 ecx
  00285	5f		 pop	 edi
  00286	5e		 pop	 esi
  00287	8b 4d f0	 mov	 ecx, DWORD PTR __$ArrayPad$[ebp]
  0028a	33 cd		 xor	 ecx, ebp
  0028c	e8 00 00 00 00	 call	 @__security_check_cookie@4
  00291	8b e5		 mov	 esp, ebp
  00293	5d		 pop	 ebp
  00294	c2 08 00	 ret	 8
  00297	90		 npad	 1
$LN30@Handler:
  00298	00 00 00 00	 DD	 $LN4@Handler
  0029c	00 00 00 00	 DD	 $LN5@Handler
  002a0	00 00 00 00	 DD	 $LN6@Handler
  002a4	00 00 00 00	 DD	 $LN7@Handler
  002a8	00 00 00 00	 DD	 $LN8@Handler
_TEXT	ENDS
;	COMDAT text$x
text$x	SEGMENT
__unwindfunclet$?Handler@CHousingDBCtrl@@UAEXPAUtagDB_OVERLAPPED_PLUS@@K@Z$0:
  00000	8d 8d dc bf ff
	ff		 lea	 ecx, DWORD PTR _ar$[ebp]
  00006	e9 00 00 00 00	 jmp	 ??1CAr@@QAE@XZ		; CAr::~CAr
  0000b	cc		 int	 3
  0000c	cc		 int	 3
  0000d	cc		 int	 3
  0000e	cc		 int	 3
  0000f	cc		 int	 3
__ehhandler$?Handler@CHousingDBCtrl@@UAEXPAUtagDB_OVERLAPPED_PLUS@@K@Z:
  00010	90		 npad	 1
  00011	90		 npad	 1
  00012	8b 54 24 08	 mov	 edx, DWORD PTR [esp+8]
  00016	8d 42 0c	 lea	 eax, DWORD PTR [edx+12]
  00019	8b 8a b4 bf ff
	ff		 mov	 ecx, DWORD PTR [edx-16460]
  0001f	33 c8		 xor	 ecx, eax
  00021	e8 00 00 00 00	 call	 @__security_check_cookie@4
  00026	8b 4a fc	 mov	 ecx, DWORD PTR [edx-4]
  00029	33 c8		 xor	 ecx, eax
  0002b	e8 00 00 00 00	 call	 @__security_check_cookie@4
  00030	b8 00 00 00 00	 mov	 eax, OFFSET __ehfuncinfo$?Handler@CHousingDBCtrl@@UAEXPAUtagDB_OVERLAPPED_PLUS@@K@Z
  00035	e9 00 00 00 00	 jmp	 ___CxxFrameHandler3
text$x	ENDS
?Handler@CHousingDBCtrl@@UAEXPAUtagDB_OVERLAPPED_PLUS@@K@Z ENDP ; CHousingDBCtrl::Handler
; Function compile flags: /Ogtp
; File C:\IAGOS\server\v18\Source\Source\DatabaseServer\HousingDBCtrl.cpp
;	COMDAT ??1CHousingDBCtrl@@UAE@XZ
_TEXT	SEGMENT
??1CHousingDBCtrl@@UAE@XZ PROC				; CHousingDBCtrl::~CHousingDBCtrl, COMDAT
; _this$ = ecx

; 17   : {

  00000	c7 01 00 00 00
	00		 mov	 DWORD PTR [ecx], OFFSET ??_7CHousingDBCtrl@@6B@

; 18   : }

  00006	e9 00 00 00 00	 jmp	 ??1CDbController@@UAE@XZ ; CDbController::~CDbController
??1CHousingDBCtrl@@UAE@XZ ENDP				; CHousingDBCtrl::~CHousingDBCtrl
_TEXT	ENDS
; Function compile flags: /Ogtp
; File C:\IAGOS\server\v18\Source\Source\DatabaseServer\HousingDBCtrl.cpp
;	COMDAT ??0CHousingDBCtrl@@QAE@XZ
_TEXT	SEGMENT
_this$ = -4						; size = 4
??0CHousingDBCtrl@@QAE@XZ PROC				; CHousingDBCtrl::CHousingDBCtrl, COMDAT
; _this$ = ecx

; 13   : {

  00000	55		 push	 ebp
  00001	8b ec		 mov	 ebp, esp
  00003	51		 push	 ecx
  00004	56		 push	 esi
  00005	8b f1		 mov	 esi, ecx
  00007	89 75 fc	 mov	 DWORD PTR _this$[ebp], esi
  0000a	e8 00 00 00 00	 call	 ??0CDbController@@QAE@XZ ; CDbController::CDbController
  0000f	c7 06 00 00 00
	00		 mov	 DWORD PTR [esi], OFFSET ??_7CHousingDBCtrl@@6B@

; 14   : }

  00015	8b c6		 mov	 eax, esi
  00017	5e		 pop	 esi
  00018	8b e5		 mov	 esp, ebp
  0001a	5d		 pop	 ebp
  0001b	c3		 ret	 0
??0CHousingDBCtrl@@QAE@XZ ENDP				; CHousingDBCtrl::CHousingDBCtrl
_TEXT	ENDS
; Function compile flags: /Ogtp
; File C:\IAGOS\server\v18\Source\Source\_Network\Misc\Include\Ar.h
;	COMDAT ??$?5M@CAr@@QAEAAV0@AAM@Z
_TEXT	SEGMENT
_t$ = 8							; size = 4
??$?5M@CAr@@QAEAAV0@AAM@Z PROC				; CAr::operator>><float>, COMDAT
; _this$ = ecx

; 302  : {

  00000	55		 push	 ebp
  00001	8b ec		 mov	 ebp, esp
  00003	8b d1		 mov	 edx, ecx

; 303  : 	if (m_lpBufCur + sizeof(T) <= m_lpBufMax)

  00005	8b 4a 08	 mov	 ecx, DWORD PTR [edx+8]
  00008	8d 41 04	 lea	 eax, DWORD PTR [ecx+4]
  0000b	3b 42 0c	 cmp	 eax, DWORD PTR [edx+12]
  0000e	8b 45 08	 mov	 eax, DWORD PTR _t$[ebp]
  00011	77 0e		 ja	 SHORT $LN2@operator

; 304  : 	{
; 305  : 		t = *(UNALIGNED T*)m_lpBufCur;

  00013	8b 09		 mov	 ecx, DWORD PTR [ecx]
  00015	89 08		 mov	 DWORD PTR [eax], ecx

; 312  : 	}
; 313  : 	return *this;
; 314  : }

  00017	8b c2		 mov	 eax, edx
  00019	83 42 08 04	 add	 DWORD PTR [edx+8], 4
  0001d	5d		 pop	 ebp
  0001e	c2 04 00	 ret	 4
$LN2@operator:

; 306  : 		m_lpBufCur += sizeof(T);
; 307  : 	}
; 308  : 	else
; 309  : 	{
; 310  : 		t = T();

  00021	c7 00 00 00 00
	00		 mov	 DWORD PTR [eax], 0

; 311  : 		m_lpBufCur = m_lpBufMax;

  00027	8b 42 0c	 mov	 eax, DWORD PTR [edx+12]
  0002a	89 42 08	 mov	 DWORD PTR [edx+8], eax

; 312  : 	}
; 313  : 	return *this;
; 314  : }

  0002d	8b c2		 mov	 eax, edx
  0002f	5d		 pop	 ebp
  00030	c2 04 00	 ret	 4
??$?5M@CAr@@QAEAAV0@AAM@Z ENDP				; CAr::operator>><float>
_TEXT	ENDS
; Function compile flags: /Ogtp
; File C:\IAGOS\server\v18\Source\Source\_Network\Misc\Include\Ar.h
;	COMDAT ??$?5UD3DXVECTOR3@@@CAr@@QAEAAV0@AAUD3DXVECTOR3@@@Z
_TEXT	SEGMENT
$T1 = -12						; size = 12
_t$ = 8							; size = 4
??$?5UD3DXVECTOR3@@@CAr@@QAEAAV0@AAUD3DXVECTOR3@@@Z PROC ; CAr::operator>><D3DXVECTOR3>, COMDAT
; _this$ = ecx

; 302  : {

  00000	55		 push	 ebp
  00001	8b ec		 mov	 ebp, esp
  00003	83 ec 0c	 sub	 esp, 12			; 0000000cH
  00006	8b d1		 mov	 edx, ecx

; 303  : 	if (m_lpBufCur + sizeof(T) <= m_lpBufMax)

  00008	8b 4d 08	 mov	 ecx, DWORD PTR _t$[ebp]
  0000b	56		 push	 esi
  0000c	8b 72 08	 mov	 esi, DWORD PTR [edx+8]
  0000f	8d 46 0c	 lea	 eax, DWORD PTR [esi+12]
  00012	3b 42 0c	 cmp	 eax, DWORD PTR [edx+12]
  00015	77 1b		 ja	 SHORT $LN2@operator

; 304  : 	{
; 305  : 		t = *(UNALIGNED T*)m_lpBufCur;

  00017	f3 0f 7e 06	 movq	 xmm0, QWORD PTR [esi]
  0001b	66 0f d6 01	 movq	 QWORD PTR [ecx], xmm0
  0001f	8b 46 08	 mov	 eax, DWORD PTR [esi+8]
  00022	89 41 08	 mov	 DWORD PTR [ecx+8], eax

; 312  : 	}
; 313  : 	return *this;
; 314  : }

  00025	8b c2		 mov	 eax, edx
  00027	83 42 08 0c	 add	 DWORD PTR [edx+8], 12	; 0000000cH
  0002b	5e		 pop	 esi
  0002c	8b e5		 mov	 esp, ebp
  0002e	5d		 pop	 ebp
  0002f	c2 04 00	 ret	 4
$LN2@operator:

; 306  : 		m_lpBufCur += sizeof(T);
; 307  : 	}
; 308  : 	else
; 309  : 	{
; 310  : 		t = T();

  00032	f3 0f 7e 45 f4	 movq	 xmm0, QWORD PTR $T1[ebp]
  00037	8b 45 fc	 mov	 eax, DWORD PTR $T1[ebp+8]
  0003a	66 0f d6 01	 movq	 QWORD PTR [ecx], xmm0
  0003e	89 41 08	 mov	 DWORD PTR [ecx+8], eax

; 311  : 		m_lpBufCur = m_lpBufMax;

  00041	8b 42 0c	 mov	 eax, DWORD PTR [edx+12]
  00044	89 42 08	 mov	 DWORD PTR [edx+8], eax

; 312  : 	}
; 313  : 	return *this;
; 314  : }

  00047	8b c2		 mov	 eax, edx
  00049	5e		 pop	 esi
  0004a	8b e5		 mov	 esp, ebp
  0004c	5d		 pop	 ebp
  0004d	c2 04 00	 ret	 4
??$?5UD3DXVECTOR3@@@CAr@@QAEAAV0@AAUD3DXVECTOR3@@@Z ENDP ; CAr::operator>><D3DXVECTOR3>
_TEXT	ENDS
; Function compile flags: /Ogtp
; File C:\IAGOS\server\v18\Source\Source\_Network\Misc\Include\Ar.h
;	COMDAT ??$?5H@CAr@@QAEAAV0@AAH@Z
_TEXT	SEGMENT
_t$ = 8							; size = 4
??$?5H@CAr@@QAEAAV0@AAH@Z PROC				; CAr::operator>><int>, COMDAT
; _this$ = ecx

; 302  : {

  00000	55		 push	 ebp
  00001	8b ec		 mov	 ebp, esp
  00003	8b d1		 mov	 edx, ecx

; 303  : 	if (m_lpBufCur + sizeof(T) <= m_lpBufMax)

  00005	8b 4a 08	 mov	 ecx, DWORD PTR [edx+8]
  00008	8d 41 04	 lea	 eax, DWORD PTR [ecx+4]
  0000b	3b 42 0c	 cmp	 eax, DWORD PTR [edx+12]
  0000e	8b 45 08	 mov	 eax, DWORD PTR _t$[ebp]
  00011	77 0e		 ja	 SHORT $LN2@operator

; 304  : 	{
; 305  : 		t = *(UNALIGNED T*)m_lpBufCur;

  00013	8b 09		 mov	 ecx, DWORD PTR [ecx]
  00015	89 08		 mov	 DWORD PTR [eax], ecx

; 312  : 	}
; 313  : 	return *this;
; 314  : }

  00017	8b c2		 mov	 eax, edx
  00019	83 42 08 04	 add	 DWORD PTR [edx+8], 4
  0001d	5d		 pop	 ebp
  0001e	c2 04 00	 ret	 4
$LN2@operator:

; 306  : 		m_lpBufCur += sizeof(T);
; 307  : 	}
; 308  : 	else
; 309  : 	{
; 310  : 		t = T();

  00021	c7 00 00 00 00
	00		 mov	 DWORD PTR [eax], 0

; 311  : 		m_lpBufCur = m_lpBufMax;

  00027	8b 42 0c	 mov	 eax, DWORD PTR [edx+12]
  0002a	89 42 08	 mov	 DWORD PTR [edx+8], eax

; 312  : 	}
; 313  : 	return *this;
; 314  : }

  0002d	8b c2		 mov	 eax, edx
  0002f	5d		 pop	 ebp
  00030	c2 04 00	 ret	 4
??$?5H@CAr@@QAEAAV0@AAH@Z ENDP				; CAr::operator>><int>
_TEXT	ENDS
; Function compile flags: /Ogtp
; File C:\IAGOS\server\v18\Source\Source\_Network\Misc\Include\Ar.h
;	COMDAT ??$?5J@CAr@@QAEAAV0@AAJ@Z
_TEXT	SEGMENT
_t$ = 8							; size = 4
??$?5J@CAr@@QAEAAV0@AAJ@Z PROC				; CAr::operator>><long>, COMDAT
; _this$ = ecx

; 302  : {

  00000	55		 push	 ebp
  00001	8b ec		 mov	 ebp, esp
  00003	8b d1		 mov	 edx, ecx

; 303  : 	if (m_lpBufCur + sizeof(T) <= m_lpBufMax)

  00005	8b 4a 08	 mov	 ecx, DWORD PTR [edx+8]
  00008	8d 41 04	 lea	 eax, DWORD PTR [ecx+4]
  0000b	3b 42 0c	 cmp	 eax, DWORD PTR [edx+12]
  0000e	8b 45 08	 mov	 eax, DWORD PTR _t$[ebp]
  00011	77 0e		 ja	 SHORT $LN2@operator

; 304  : 	{
; 305  : 		t = *(UNALIGNED T*)m_lpBufCur;

  00013	8b 09		 mov	 ecx, DWORD PTR [ecx]
  00015	89 08		 mov	 DWORD PTR [eax], ecx

; 312  : 	}
; 313  : 	return *this;
; 314  : }

  00017	8b c2		 mov	 eax, edx
  00019	83 42 08 04	 add	 DWORD PTR [edx+8], 4
  0001d	5d		 pop	 ebp
  0001e	c2 04 00	 ret	 4
$LN2@operator:

; 306  : 		m_lpBufCur += sizeof(T);
; 307  : 	}
; 308  : 	else
; 309  : 	{
; 310  : 		t = T();

  00021	c7 00 00 00 00
	00		 mov	 DWORD PTR [eax], 0

; 311  : 		m_lpBufCur = m_lpBufMax;

  00027	8b 42 0c	 mov	 eax, DWORD PTR [edx+12]
  0002a	89 42 08	 mov	 DWORD PTR [edx+8], eax

; 312  : 	}
; 313  : 	return *this;
; 314  : }

  0002d	8b c2		 mov	 eax, edx
  0002f	5d		 pop	 ebp
  00030	c2 04 00	 ret	 4
??$?5J@CAr@@QAEAAV0@AAJ@Z ENDP				; CAr::operator>><long>
_TEXT	ENDS
; Function compile flags: /Ogtp
; File C:\IAGOS\server\v18\Source\Source\_Network\Misc\Include\Ar.h
;	COMDAT ??$?5K@CAr@@QAEAAV0@AAK@Z
_TEXT	SEGMENT
_t$ = 8							; size = 4
??$?5K@CAr@@QAEAAV0@AAK@Z PROC				; CAr::operator>><unsigned long>, COMDAT
; _this$ = ecx

; 302  : {

  00000	55		 push	 ebp
  00001	8b ec		 mov	 ebp, esp
  00003	8b d1		 mov	 edx, ecx

; 303  : 	if (m_lpBufCur + sizeof(T) <= m_lpBufMax)

  00005	8b 4a 08	 mov	 ecx, DWORD PTR [edx+8]
  00008	8d 41 04	 lea	 eax, DWORD PTR [ecx+4]
  0000b	3b 42 0c	 cmp	 eax, DWORD PTR [edx+12]
  0000e	8b 45 08	 mov	 eax, DWORD PTR _t$[ebp]
  00011	77 0e		 ja	 SHORT $LN2@operator

; 304  : 	{
; 305  : 		t = *(UNALIGNED T*)m_lpBufCur;

  00013	8b 09		 mov	 ecx, DWORD PTR [ecx]
  00015	89 08		 mov	 DWORD PTR [eax], ecx

; 312  : 	}
; 313  : 	return *this;
; 314  : }

  00017	8b c2		 mov	 eax, edx
  00019	83 42 08 04	 add	 DWORD PTR [edx+8], 4
  0001d	5d		 pop	 ebp
  0001e	c2 04 00	 ret	 4
$LN2@operator:

; 306  : 		m_lpBufCur += sizeof(T);
; 307  : 	}
; 308  : 	else
; 309  : 	{
; 310  : 		t = T();

  00021	c7 00 00 00 00
	00		 mov	 DWORD PTR [eax], 0

; 311  : 		m_lpBufCur = m_lpBufMax;

  00027	8b 42 0c	 mov	 eax, DWORD PTR [edx+12]
  0002a	89 42 08	 mov	 DWORD PTR [edx+8], eax

; 312  : 	}
; 313  : 	return *this;
; 314  : }

  0002d	8b c2		 mov	 eax, edx
  0002f	5d		 pop	 ebp
  00030	c2 04 00	 ret	 4
??$?5K@CAr@@QAEAAV0@AAK@Z ENDP				; CAr::operator>><unsigned long>
_TEXT	ENDS
; Function compile flags: /Ogtp
; File C:\IAGOS\server\v18\Source\Source\_Network\Misc\Include\Ar.h
;	COMDAT ??$?6M@CAr@@QAEAAV0@ABM@Z
_TEXT	SEGMENT
_t$ = 8							; size = 4
??$?6M@CAr@@QAEAAV0@ABM@Z PROC				; CAr::operator<<<float>, COMDAT
; _this$ = ecx

; 255  : {

  00000	55		 push	 ebp
  00001	8b ec		 mov	 ebp, esp
  00003	56		 push	 esi

; 256  : 	CheckBuf(sizeof(T));

  00004	6a 04		 push	 4
  00006	8b f1		 mov	 esi, ecx
  00008	e8 00 00 00 00	 call	 ?CheckBuf@CAr@@QAEXI@Z	; CAr::CheckBuf

; 257  : 	*(UNALIGNED T*)m_lpBufCur = t;

  0000d	8b 56 08	 mov	 edx, DWORD PTR [esi+8]
  00010	8b 45 08	 mov	 eax, DWORD PTR _t$[ebp]
  00013	8b 00		 mov	 eax, DWORD PTR [eax]
  00015	89 02		 mov	 DWORD PTR [edx], eax

; 258  : 	m_lpBufCur += sizeof(T);
; 259  : 	return *this;

  00017	8b c6		 mov	 eax, esi
  00019	83 46 08 04	 add	 DWORD PTR [esi+8], 4
  0001d	5e		 pop	 esi

; 260  : }

  0001e	5d		 pop	 ebp
  0001f	c2 04 00	 ret	 4
??$?6M@CAr@@QAEAAV0@ABM@Z ENDP				; CAr::operator<<<float>
_TEXT	ENDS
; Function compile flags: /Ogtp
; File C:\IAGOS\server\v18\Source\Source\_Network\Misc\Include\Ar.h
;	COMDAT ??$?6UD3DXVECTOR3@@@CAr@@QAEAAV0@ABUD3DXVECTOR3@@@Z
_TEXT	SEGMENT
_t$ = 8							; size = 4
??$?6UD3DXVECTOR3@@@CAr@@QAEAAV0@ABUD3DXVECTOR3@@@Z PROC ; CAr::operator<<<D3DXVECTOR3>, COMDAT
; _this$ = ecx

; 255  : {

  00000	55		 push	 ebp
  00001	8b ec		 mov	 ebp, esp
  00003	56		 push	 esi

; 256  : 	CheckBuf(sizeof(T));

  00004	6a 0c		 push	 12			; 0000000cH
  00006	8b f1		 mov	 esi, ecx
  00008	e8 00 00 00 00	 call	 ?CheckBuf@CAr@@QAEXI@Z	; CAr::CheckBuf

; 257  : 	*(UNALIGNED T*)m_lpBufCur = t;

  0000d	8b 56 08	 mov	 edx, DWORD PTR [esi+8]
  00010	8b 45 08	 mov	 eax, DWORD PTR _t$[ebp]
  00013	f3 0f 7e 00	 movq	 xmm0, QWORD PTR [eax]
  00017	66 0f d6 02	 movq	 QWORD PTR [edx], xmm0
  0001b	8b 40 08	 mov	 eax, DWORD PTR [eax+8]
  0001e	89 42 08	 mov	 DWORD PTR [edx+8], eax

; 258  : 	m_lpBufCur += sizeof(T);
; 259  : 	return *this;

  00021	8b c6		 mov	 eax, esi
  00023	83 46 08 0c	 add	 DWORD PTR [esi+8], 12	; 0000000cH
  00027	5e		 pop	 esi

; 260  : }

  00028	5d		 pop	 ebp
  00029	c2 04 00	 ret	 4
??$?6UD3DXVECTOR3@@@CAr@@QAEAAV0@ABUD3DXVECTOR3@@@Z ENDP ; CAr::operator<<<D3DXVECTOR3>
_TEXT	ENDS
; Function compile flags: /Ogtp
; File C:\IAGOS\server\v18\Source\Source\_Network\Misc\Include\Ar.h
;	COMDAT ??$?6H@CAr@@QAEAAV0@ABH@Z
_TEXT	SEGMENT
_t$ = 8							; size = 4
??$?6H@CAr@@QAEAAV0@ABH@Z PROC				; CAr::operator<<<int>, COMDAT
; _this$ = ecx

; 255  : {

  00000	55		 push	 ebp
  00001	8b ec		 mov	 ebp, esp
  00003	56		 push	 esi

; 256  : 	CheckBuf(sizeof(T));

  00004	6a 04		 push	 4
  00006	8b f1		 mov	 esi, ecx
  00008	e8 00 00 00 00	 call	 ?CheckBuf@CAr@@QAEXI@Z	; CAr::CheckBuf

; 257  : 	*(UNALIGNED T*)m_lpBufCur = t;

  0000d	8b 56 08	 mov	 edx, DWORD PTR [esi+8]
  00010	8b 45 08	 mov	 eax, DWORD PTR _t$[ebp]
  00013	8b 00		 mov	 eax, DWORD PTR [eax]
  00015	89 02		 mov	 DWORD PTR [edx], eax

; 258  : 	m_lpBufCur += sizeof(T);
; 259  : 	return *this;

  00017	8b c6		 mov	 eax, esi
  00019	83 46 08 04	 add	 DWORD PTR [esi+8], 4
  0001d	5e		 pop	 esi

; 260  : }

  0001e	5d		 pop	 ebp
  0001f	c2 04 00	 ret	 4
??$?6H@CAr@@QAEAAV0@ABH@Z ENDP				; CAr::operator<<<int>
_TEXT	ENDS
; Function compile flags: /Ogtp
; File C:\IAGOS\server\v18\Source\Source\_Network\Misc\Include\Ar.h
;	COMDAT ??$?6J@CAr@@QAEAAV0@ABJ@Z
_TEXT	SEGMENT
_t$ = 8							; size = 4
??$?6J@CAr@@QAEAAV0@ABJ@Z PROC				; CAr::operator<<<long>, COMDAT
; _this$ = ecx

; 255  : {

  00000	55		 push	 ebp
  00001	8b ec		 mov	 ebp, esp
  00003	56		 push	 esi

; 256  : 	CheckBuf(sizeof(T));

  00004	6a 04		 push	 4
  00006	8b f1		 mov	 esi, ecx
  00008	e8 00 00 00 00	 call	 ?CheckBuf@CAr@@QAEXI@Z	; CAr::CheckBuf

; 257  : 	*(UNALIGNED T*)m_lpBufCur = t;

  0000d	8b 56 08	 mov	 edx, DWORD PTR [esi+8]
  00010	8b 45 08	 mov	 eax, DWORD PTR _t$[ebp]
  00013	8b 00		 mov	 eax, DWORD PTR [eax]
  00015	89 02		 mov	 DWORD PTR [edx], eax

; 258  : 	m_lpBufCur += sizeof(T);
; 259  : 	return *this;

  00017	8b c6		 mov	 eax, esi
  00019	83 46 08 04	 add	 DWORD PTR [esi+8], 4
  0001d	5e		 pop	 esi

; 260  : }

  0001e	5d		 pop	 ebp
  0001f	c2 04 00	 ret	 4
??$?6J@CAr@@QAEAAV0@ABJ@Z ENDP				; CAr::operator<<<long>
_TEXT	ENDS
; Function compile flags: /Ogtp
; File C:\IAGOS\server\v18\Source\Source\_Network\Misc\Include\Ar.h
;	COMDAT ??$?6K@CAr@@QAEAAV0@ABK@Z
_TEXT	SEGMENT
_t$ = 8							; size = 4
??$?6K@CAr@@QAEAAV0@ABK@Z PROC				; CAr::operator<<<unsigned long>, COMDAT
; _this$ = ecx

; 255  : {

  00000	55		 push	 ebp
  00001	8b ec		 mov	 ebp, esp
  00003	56		 push	 esi

; 256  : 	CheckBuf(sizeof(T));

  00004	6a 04		 push	 4
  00006	8b f1		 mov	 esi, ecx
  00008	e8 00 00 00 00	 call	 ?CheckBuf@CAr@@QAEXI@Z	; CAr::CheckBuf

; 257  : 	*(UNALIGNED T*)m_lpBufCur = t;

  0000d	8b 56 08	 mov	 edx, DWORD PTR [esi+8]
  00010	8b 45 08	 mov	 eax, DWORD PTR _t$[ebp]
  00013	8b 00		 mov	 eax, DWORD PTR [eax]
  00015	89 02		 mov	 DWORD PTR [edx], eax

; 258  : 	m_lpBufCur += sizeof(T);
; 259  : 	return *this;

  00017	8b c6		 mov	 eax, esi
  00019	83 46 08 04	 add	 DWORD PTR [esi+8], 4
  0001d	5e		 pop	 esi

; 260  : }

  0001e	5d		 pop	 ebp
  0001f	c2 04 00	 ret	 4
??$?6K@CAr@@QAEAAV0@ABK@Z ENDP				; CAr::operator<<<unsigned long>
_TEXT	ENDS
; Function compile flags: /Ogtp
; File C:\IAGOS\server\v18\Source\Source\_Common\Housing.h
; File C:\IAGOS\server\v18\Source\Source\DX_SDK\d3dx9math.inl
; File C:\IAGOS\server\v18\Source\Source\_Common\Housing.h
;	COMDAT ??0HOUSINGINFO@@QAE@XZ
_TEXT	SEGMENT
??0HOUSINGINFO@@QAE@XZ PROC				; HOUSINGINFO::HOUSINGINFO, COMDAT
; _this$ = ecx

; 20   : 	HOUSINGINFO() : dwItemId(NULL_ID), tKeepTime(0), vPos(0.0f,0.0f,0.0f), bSetup(FALSE), fAngle(0.0f)

  00000	c7 01 ff ff ff
	ff		 mov	 DWORD PTR [ecx], -1

; 24   : 	{} // ĂĘ±âČ­

  00006	8b c1		 mov	 eax, ecx
  00008	c7 41 04 00 00
	00 00		 mov	 DWORD PTR [ecx+4], 0
  0000f	c7 41 08 00 00
	00 00		 mov	 DWORD PTR [ecx+8], 0
; File C:\IAGOS\server\v18\Source\Source\DX_SDK\d3dx9math.inl

; 300  :     x = fx;

  00016	c7 41 0c 00 00
	00 00		 mov	 DWORD PTR [ecx+12], 0

; 301  :     y = fy;

  0001d	c7 41 10 00 00
	00 00		 mov	 DWORD PTR [ecx+16], 0

; 302  :     z = fz;

  00024	c7 41 14 00 00
	00 00		 mov	 DWORD PTR [ecx+20], 0
; File C:\IAGOS\server\v18\Source\Source\_Common\Housing.h

; 20   : 	HOUSINGINFO() : dwItemId(NULL_ID), tKeepTime(0), vPos(0.0f,0.0f,0.0f), bSetup(FALSE), fAngle(0.0f)

  0002b	c7 41 18 00 00
	00 00		 mov	 DWORD PTR [ecx+24], 0

; 24   : 	{} // ĂĘ±âČ­

  00032	c3		 ret	 0
??0HOUSINGINFO@@QAE@XZ ENDP				; HOUSINGINFO::HOUSINGINFO
_TEXT	ENDS
; Function compile flags: /Ogtp
; File C:\IAGOS\server\v18\Source\Source\DatabaseServer\HousingDBCtrl.cpp
;	COMDAT ?__empty_global_delete@@YAXPAXI@Z
_TEXT	SEGMENT
___formal$ = 8						; size = 4
___formal$ = 12						; size = 4
?__empty_global_delete@@YAXPAXI@Z PROC			; __empty_global_delete, COMDAT

  00000	c2 00 00	 ret	 0
?__empty_global_delete@@YAXPAXI@Z ENDP			; __empty_global_delete
_TEXT	ENDS
; Function compile flags: /Ogtp
; File C:\IAGOS\server\v18\Source\Source\DatabaseServer\HousingDBCtrl.cpp
;	COMDAT ?__empty_global_delete@@YAXPAX@Z
_TEXT	SEGMENT
___formal$ = 8						; size = 4
?__empty_global_delete@@YAXPAX@Z PROC			; __empty_global_delete, COMDAT

  00000	c2 00 00	 ret	 0
?__empty_global_delete@@YAXPAX@Z ENDP			; __empty_global_delete
_TEXT	ENDS
END
