; Listing generated by Microsoft (R) Optimizing Compiler Version 19.44.35225.0 

	TITLE	C:\IAGOS\server\v18\Source\Output\DatabaseServer\Release\langman.obj
	.686P
	.XMM
	include listing.inc
	.model	flat

INCLUDELIB LIBCMT
INCLUDELIB OLDNAMES

PUBLIC	??_H@YGXPAXIIP6EPAX0@Z@Z			; `vector constructor iterator'
PUBLIC	?__empty_global_delete@@YAXPAX@Z		; __empty_global_delete
PUBLIC	?__empty_global_delete@@YAXPAXI@Z		; __empty_global_delete
PUBLIC	??0_LANG_DATA@@QAE@XZ				; _LANG_DATA::_LANG_DATA
PUBLIC	??0CLangMan@@QAE@XZ				; CLangMan::CLangMan
PUBLIC	??1CLangMan@@UAE@XZ				; CLangMan::~CLangMan
PUBLIC	?Load@CLangMan@@QAEHPBD@Z			; CLangMan::Load
PUBLIC	?GetLangData@CLangMan@@QAEPAU_LANG_DATA@@K@Z	; CLangMan::GetLangData
PUBLIC	?GetInstance@CLangMan@@SAPAV1@XZ		; CLangMan::GetInstance
PUBLIC	??_GCLangMan@@UAEPAXI@Z				; CLangMan::`scalar deleting destructor'
PUBLIC	??_7CLangMan@@6B@				; CLangMan::`vftable'
PUBLIC	??_R4CLangMan@@6B@				; CLangMan::`RTTI Complete Object Locator'
PUBLIC	??_R0?AVCLangMan@@@8				; CLangMan `RTTI Type Descriptor'
PUBLIC	??_R3CLangMan@@8				; CLangMan::`RTTI Class Hierarchy Descriptor'
PUBLIC	??_R2CLangMan@@8				; CLangMan::`RTTI Base Class Array'
PUBLIC	??_R1A@?0A@EA@CLangMan@@8			; CLangMan::`RTTI Base Class Descriptor at (0,-1,0,64)'
EXTRN	??3@YAXPAXI@Z:PROC				; operator delete
EXTRN	_atexit:PROC
EXTRN	__Init_thread_header:PROC
EXTRN	__Init_thread_footer:PROC
EXTRN	__imp__lstrcpyA@8:PROC
EXTRN	??0CScanner@@QAE@H@Z:PROC			; CScanner::CScanner
EXTRN	??1CScanner@@UAE@XZ:PROC			; CScanner::~CScanner
EXTRN	?GetToken@CScanner@@UAEHH@Z:PROC		; CScanner::GetToken
EXTRN	?Load@CScanner@@QAEHPBDH@Z:PROC			; CScanner::Load
EXTRN	?GetNumber@CScanner@@QAEHH@Z:PROC		; CScanner::GetNumber
EXTRN	??_ECLangMan@@UAEPAXI@Z:PROC			; CLangMan::`vector deleting destructor'
EXTRN	@__security_check_cookie@4:PROC
EXTRN	___CxxFrameHandler3:PROC
EXTRN	_memset:PROC
EXTRN	__Init_thread_epoch:DWORD
EXTRN	??_7type_info@@6B@:QWORD			; type_info::`vftable'
EXTRN	___security_cookie:DWORD
EXTRN	__tls_array:DWORD
EXTRN	__tls_index:DWORD
;	COMDAT ?sLocal@?1??GetInstance@CLangMan@@SAPAV2@XZ@4V2@A
_BSS	SEGMENT
?sLocal@?1??GetInstance@CLangMan@@SAPAV2@XZ@4V2@A DB 03d6cH DUP (?) ; `CLangMan::GetInstance'::`2'::sLocal
_BSS	ENDS
;	COMDAT ?$TSS0@?1??GetInstance@CLangMan@@SAPAV2@XZ@4HA
_BSS	SEGMENT
?$TSS0@?1??GetInstance@CLangMan@@SAPAV2@XZ@4HA DD 01H DUP (?) ; `CLangMan::GetInstance'::`2'::$TSS0
_BSS	ENDS
;	COMDAT ??_R1A@?0A@EA@CLangMan@@8
rdata$r	SEGMENT
??_R1A@?0A@EA@CLangMan@@8 DD FLAT:??_R0?AVCLangMan@@@8	; CLangMan::`RTTI Base Class Descriptor at (0,-1,0,64)'
	DD	00H
	DD	00H
	DD	0ffffffffH
	DD	00H
	DD	040H
	DD	FLAT:??_R3CLangMan@@8
rdata$r	ENDS
;	COMDAT ??_R2CLangMan@@8
rdata$r	SEGMENT
??_R2CLangMan@@8 DD FLAT:??_R1A@?0A@EA@CLangMan@@8	; CLangMan::`RTTI Base Class Array'
rdata$r	ENDS
;	COMDAT ??_R3CLangMan@@8
rdata$r	SEGMENT
??_R3CLangMan@@8 DD 00H					; CLangMan::`RTTI Class Hierarchy Descriptor'
	DD	00H
	DD	01H
	DD	FLAT:??_R2CLangMan@@8
rdata$r	ENDS
;	COMDAT ??_R0?AVCLangMan@@@8
data$rs	SEGMENT
??_R0?AVCLangMan@@@8 DD FLAT:??_7type_info@@6B@		; CLangMan `RTTI Type Descriptor'
	DD	00H
	DB	'.?AVCLangMan@@', 00H
data$rs	ENDS
;	COMDAT ??_R4CLangMan@@6B@
rdata$r	SEGMENT
??_R4CLangMan@@6B@ DD 00H				; CLangMan::`RTTI Complete Object Locator'
	DD	00H
	DD	00H
	DD	FLAT:??_R0?AVCLangMan@@@8
	DD	FLAT:??_R3CLangMan@@8
rdata$r	ENDS
;	COMDAT ??_7CLangMan@@6B@
CONST	SEGMENT
??_7CLangMan@@6B@ DD FLAT:??_R4CLangMan@@6B@		; CLangMan::`vftable'
	DD	FLAT:??_ECLangMan@@UAEPAXI@Z
CONST	ENDS
;	COMDAT xdata$x
xdata$x	SEGMENT
__unwindtable$?Load@CLangMan@@QAEHPBD@Z DD 0ffffffffH
	DD	FLAT:__unwindfunclet$?Load@CLangMan@@QAEHPBD@Z$0
__ehfuncinfo$?Load@CLangMan@@QAEHPBD@Z DD 019930522H
	DD	01H
	DD	FLAT:__unwindtable$?Load@CLangMan@@QAEHPBD@Z
	DD	2 DUP(00H)
	DD	2 DUP(00H)
	DD	00H
	DD	01H
xdata$x	ENDS
; Function compile flags: /Ogtp
;	COMDAT ??__FsLocal@?1??GetInstance@CLangMan@@SAPAV1@XZ@YAXXZ
text$yd	SEGMENT
??__FsLocal@?1??GetInstance@CLangMan@@SAPAV1@XZ@YAXXZ PROC ; `CLangMan::GetInstance'::`2'::`dynamic atexit destructor for 'sLocal'', COMDAT
  00000	b9 00 00 00 00	 mov	 ecx, OFFSET ?sLocal@?1??GetInstance@CLangMan@@SAPAV2@XZ@4V2@A
  00005	e9 00 00 00 00	 jmp	 ??1CLangMan@@UAE@XZ	; CLangMan::~CLangMan
??__FsLocal@?1??GetInstance@CLangMan@@SAPAV1@XZ@YAXXZ ENDP ; `CLangMan::GetInstance'::`2'::`dynamic atexit destructor for 'sLocal''
text$yd	ENDS
; Function compile flags: /Ogtp
;	COMDAT ??_GCLangMan@@UAEPAXI@Z
_TEXT	SEGMENT
___flags$ = 8						; size = 4
??_GCLangMan@@UAEPAXI@Z PROC				; CLangMan::`scalar deleting destructor', COMDAT
; _this$ = ecx
  00000	55		 push	 ebp
  00001	8b ec		 mov	 ebp, esp
  00003	56		 push	 esi
  00004	8b f1		 mov	 esi, ecx
  00006	e8 00 00 00 00	 call	 ??1CLangMan@@UAE@XZ	; CLangMan::~CLangMan
  0000b	f6 45 08 01	 test	 BYTE PTR ___flags$[ebp], 1
  0000f	74 0e		 je	 SHORT $LN5@scalar
  00011	68 6c 3d 00 00	 push	 15724			; 00003d6cH
  00016	56		 push	 esi
  00017	e8 00 00 00 00	 call	 ??3@YAXPAXI@Z		; operator delete
  0001c	83 c4 08	 add	 esp, 8
$LN5@scalar:
  0001f	8b c6		 mov	 eax, esi
  00021	5e		 pop	 esi
  00022	5d		 pop	 ebp
  00023	c2 04 00	 ret	 4
??_GCLangMan@@UAEPAXI@Z ENDP				; CLangMan::`scalar deleting destructor'
_TEXT	ENDS
; Function compile flags: /Ogtp
; File C:\IAGOS\server\v18\Source\Source\_Common\langman.cpp
;	COMDAT ?GetInstance@CLangMan@@SAPAV1@XZ
_TEXT	SEGMENT
?GetInstance@CLangMan@@SAPAV1@XZ PROC			; CLangMan::GetInstance, COMDAT

; 130  : 	static	CLangMan	sLocal;

  00000	64 a1 00 00 00
	00		 mov	 eax, DWORD PTR fs:__tls_array
  00006	8b 0d 00 00 00
	00		 mov	 ecx, DWORD PTR __tls_index
  0000c	8b 0c 88	 mov	 ecx, DWORD PTR [eax+ecx*4]
  0000f	a1 00 00 00 00	 mov	 eax, DWORD PTR ?$TSS0@?1??GetInstance@CLangMan@@SAPAV2@XZ@4HA
  00014	3b 81 00 00 00
	00		 cmp	 eax, DWORD PTR __Init_thread_epoch[ecx]
  0001a	7f 06		 jg	 SHORT $LN8@GetInstanc
$LN5@GetInstanc:

; 131  : 	return &sLocal;
; 132  : }

  0001c	b8 00 00 00 00	 mov	 eax, OFFSET ?sLocal@?1??GetInstance@CLangMan@@SAPAV2@XZ@4V2@A
  00021	c3		 ret	 0
$LN8@GetInstanc:

; 130  : 	static	CLangMan	sLocal;

  00022	68 00 00 00 00	 push	 OFFSET ?$TSS0@?1??GetInstance@CLangMan@@SAPAV2@XZ@4HA
  00027	e8 00 00 00 00	 call	 __Init_thread_header
  0002c	83 c4 04	 add	 esp, 4
  0002f	83 3d 00 00 00
	00 ff		 cmp	 DWORD PTR ?$TSS0@?1??GetInstance@CLangMan@@SAPAV2@XZ@4HA, -1
  00036	75 e4		 jne	 SHORT $LN5@GetInstanc
  00038	b9 00 00 00 00	 mov	 ecx, OFFSET ?sLocal@?1??GetInstance@CLangMan@@SAPAV2@XZ@4V2@A
  0003d	e8 00 00 00 00	 call	 ??0CLangMan@@QAE@XZ	; CLangMan::CLangMan
  00042	68 00 00 00 00	 push	 OFFSET ??__FsLocal@?1??GetInstance@CLangMan@@SAPAV1@XZ@YAXXZ ; `CLangMan::GetInstance'::`2'::`dynamic atexit destructor for 'sLocal''
  00047	e8 00 00 00 00	 call	 _atexit
  0004c	68 00 00 00 00	 push	 OFFSET ?$TSS0@?1??GetInstance@CLangMan@@SAPAV2@XZ@4HA
  00051	e8 00 00 00 00	 call	 __Init_thread_footer
  00056	83 c4 08	 add	 esp, 8
  00059	eb c1		 jmp	 SHORT $LN5@GetInstanc
?GetInstance@CLangMan@@SAPAV1@XZ ENDP			; CLangMan::GetInstance
_TEXT	ENDS
; Function compile flags: /Ogtp
; File C:\IAGOS\server\v18\Source\Source\_Common\langman.cpp
;	COMDAT ?GetLangData@CLangMan@@QAEPAU_LANG_DATA@@K@Z
_TEXT	SEGMENT
_dwLang$ = 8						; size = 4
?GetLangData@CLangMan@@QAEPAU_LANG_DATA@@K@Z PROC	; CLangMan::GetLangData, COMDAT
; _this$ = ecx

; 123  : {

  00000	55		 push	 ebp
  00001	8b ec		 mov	 ebp, esp

; 124  : 	ASSERT( dwLang < LANG_MAX );
; 125  : 	return &m_aLangData[dwLang];

  00003	69 45 08 18 04
	00 00		 imul	 eax, DWORD PTR _dwLang$[ebp], 1048
  0000a	83 c0 04	 add	 eax, 4
  0000d	03 c1		 add	 eax, ecx

; 126  : }

  0000f	5d		 pop	 ebp
  00010	c2 04 00	 ret	 4
?GetLangData@CLangMan@@QAEPAU_LANG_DATA@@K@Z ENDP	; CLangMan::GetLangData
_TEXT	ENDS
; Function compile flags: /Ogtp
; File C:\IAGOS\server\v18\Source\Source\_Common\langman.cpp
;	COMDAT ?Load@CLangMan@@QAEHPBD@Z
_TEXT	SEGMENT
_this$GSCopy$1$ = -2160					; size = 4
_g$1$ = -2156						; size = 4
_g$2$ = -2156						; size = 4
_g$3$ = -2156						; size = 4
_s$ = -2152						; size = 2136
__$ArrayPad$ = -16					; size = 4
__$EHRec$ = -12						; size = 12
_lpszFileName$ = 8					; size = 4
?Load@CLangMan@@QAEHPBD@Z PROC				; CLangMan::Load, COMDAT
; _this$ = ecx

; 15   : {

  00000	55		 push	 ebp
  00001	8b ec		 mov	 ebp, esp
  00003	6a ff		 push	 -1
  00005	68 00 00 00 00	 push	 __ehhandler$?Load@CLangMan@@QAEHPBD@Z
  0000a	64 a1 00 00 00
	00		 mov	 eax, DWORD PTR fs:0
  00010	50		 push	 eax
  00011	81 ec 64 08 00
	00		 sub	 esp, 2148		; 00000864H
  00017	a1 00 00 00 00	 mov	 eax, DWORD PTR ___security_cookie
  0001c	33 c5		 xor	 eax, ebp
  0001e	89 45 f0	 mov	 DWORD PTR __$ArrayPad$[ebp], eax
  00021	53		 push	 ebx
  00022	56		 push	 esi
  00023	57		 push	 edi
  00024	50		 push	 eax
  00025	8d 45 f4	 lea	 eax, DWORD PTR __$EHRec$[ebp]
  00028	64 a3 00 00 00
	00		 mov	 DWORD PTR fs:0, eax
  0002e	8b f9		 mov	 edi, ecx
  00030	89 bd 90 f7 ff
	ff		 mov	 DWORD PTR _this$GSCopy$1$[ebp], edi
  00036	8b 75 08	 mov	 esi, DWORD PTR _lpszFileName$[ebp]

; 16   : 	CScanner	s;

  00039	8d 8d 98 f7 ff
	ff		 lea	 ecx, DWORD PTR _s$[ebp]
  0003f	6a 00		 push	 0
  00041	e8 00 00 00 00	 call	 ??0CScanner@@QAE@H@Z	; CScanner::CScanner

; 17   : 	if( !s.Load( lpszFileName, TRUE ) ) 

  00046	6a 01		 push	 1
  00048	56		 push	 esi
  00049	8d 8d 98 f7 ff
	ff		 lea	 ecx, DWORD PTR _s$[ebp]
  0004f	c7 45 fc 00 00
	00 00		 mov	 DWORD PTR __$EHRec$[ebp+8], 0
  00056	e8 00 00 00 00	 call	 ?Load@CScanner@@QAEHPBDH@Z ; CScanner::Load
  0005b	85 c0		 test	 eax, eax
  0005d	75 07		 jne	 SHORT $LN4@Load
  0005f	33 f6		 xor	 esi, esi
  00061	e9 db 04 00 00	 jmp	 $LN7@Load
$LN4@Load:

; 18   : 		return FALSE;
; 19   : 	DWORD	dwLang	= s.GetNumber();		// dwLang

  00066	6a 00		 push	 0
  00068	8d 8d 98 f7 ff
	ff		 lea	 ecx, DWORD PTR _s$[ebp]
  0006e	e8 00 00 00 00	 call	 ?GetNumber@CScanner@@QAEHH@Z ; CScanner::GetNumber

; 20   : 	DWORD a, r, g, b;
; 21   : 	while( s.tok != FINISHED )

  00073	83 7d dc 15	 cmp	 DWORD PTR _s$[ebp+2116], 21 ; 00000015H
  00077	0f 84 bf 04 00
	00		 je	 $LN3@Load
  0007d	8b 1d 00 00 00
	00		 mov	 ebx, DWORD PTR __imp__lstrcpyA@8
  00083	0f 1f 40 00 66
	0f 1f 84 00 00
	00 00 00	 npad	 13
$LL2@Load:

; 22   : 	{
; 23   : 		ASSERT( dwLang < LANG_MAX );
; 24   : 		PLANG_DATA	pData	= &m_aLangData[dwLang];

  00090	69 c0 18 04 00
	00		 imul	 eax, eax, 1048

; 25   : 		
; 26   : 		s.GetToken();

  00096	8d 8d 98 f7 ff
	ff		 lea	 ecx, DWORD PTR _s$[ebp]
  0009c	6a 00		 push	 0
  0009e	83 c0 04	 add	 eax, 4
  000a1	03 f8		 add	 edi, eax
  000a3	e8 00 00 00 00	 call	 ?GetToken@CScanner@@UAEHH@Z ; CScanner::GetToken

; 27   : 		s.GetToken();	// szPath

  000a8	6a 00		 push	 0
  000aa	8d 8d 98 f7 ff
	ff		 lea	 ecx, DWORD PTR _s$[ebp]
  000b0	e8 00 00 00 00	 call	 ?GetToken@CScanner@@UAEHH@Z ; CScanner::GetToken

; 28   : 		lstrcpy( pData->szPath, s.token );

  000b5	ff b5 d4 f7 ff
	ff		 push	 DWORD PTR _s$[ebp+60]
  000bb	57		 push	 edi
  000bc	ff d3		 call	 ebx

; 29   : 		s.GetToken();

  000be	6a 00		 push	 0
  000c0	8d 8d 98 f7 ff
	ff		 lea	 ecx, DWORD PTR _s$[ebp]
  000c6	e8 00 00 00 00	 call	 ?GetToken@CScanner@@UAEHH@Z ; CScanner::GetToken

; 30   : 
; 31   : 		s.GetToken();	//	szFileName

  000cb	6a 00		 push	 0
  000cd	8d 8d 98 f7 ff
	ff		 lea	 ecx, DWORD PTR _s$[ebp]
  000d3	e8 00 00 00 00	 call	 ?GetToken@CScanner@@UAEHH@Z ; CScanner::GetToken

; 32   : 		lstrcpy( pData->szFileName, s.token );

  000d8	ff b5 d4 f7 ff
	ff		 push	 DWORD PTR _s$[ebp+60]
  000de	8d 87 04 01 00
	00		 lea	 eax, DWORD PTR [edi+260]
  000e4	50		 push	 eax
  000e5	ff d3		 call	 ebx

; 33   : 
; 34   : 		s.GetToken();	//	szTitle

  000e7	6a 00		 push	 0
  000e9	8d 8d 98 f7 ff
	ff		 lea	 ecx, DWORD PTR _s$[ebp]
  000ef	e8 00 00 00 00	 call	 ?GetToken@CScanner@@UAEHH@Z ; CScanner::GetToken

; 35   : 		lstrcpy( pData->szTitle, s.token );

  000f4	ff b5 d4 f7 ff
	ff		 push	 DWORD PTR _s$[ebp+60]
  000fa	8d 87 08 02 00
	00		 lea	 eax, DWORD PTR [edi+520]
  00100	50		 push	 eax
  00101	ff d3		 call	 ebx

; 36   : 
; 37   : 		s.GetToken();

  00103	6a 00		 push	 0
  00105	8d 8d 98 f7 ff
	ff		 lea	 ecx, DWORD PTR _s$[ebp]
  0010b	e8 00 00 00 00	 call	 ?GetToken@CScanner@@UAEHH@Z ; CScanner::GetToken

; 38   : 		s.GetToken();	//	szFontFirst

  00110	6a 00		 push	 0
  00112	8d 8d 98 f7 ff
	ff		 lea	 ecx, DWORD PTR _s$[ebp]
  00118	e8 00 00 00 00	 call	 ?GetToken@CScanner@@UAEHH@Z ; CScanner::GetToken

; 39   : 		lstrcpy( pData->font.lfCaption.szFontFirst, s.token );

  0011d	ff b5 d4 f7 ff
	ff		 push	 DWORD PTR _s$[ebp+60]
  00123	8d 87 6c 02 00
	00		 lea	 eax, DWORD PTR [edi+620]
  00129	50		 push	 eax
  0012a	ff d3		 call	 ebx

; 40   : 		s.GetToken();

  0012c	6a 00		 push	 0
  0012e	8d 8d 98 f7 ff
	ff		 lea	 ecx, DWORD PTR _s$[ebp]
  00134	e8 00 00 00 00	 call	 ?GetToken@CScanner@@UAEHH@Z ; CScanner::GetToken

; 41   : 
; 42   : 		s.GetToken();

  00139	6a 00		 push	 0
  0013b	8d 8d 98 f7 ff
	ff		 lea	 ecx, DWORD PTR _s$[ebp]
  00141	e8 00 00 00 00	 call	 ?GetToken@CScanner@@UAEHH@Z ; CScanner::GetToken

; 43   : 		s.GetToken();	//	szFontSecond

  00146	6a 00		 push	 0
  00148	8d 8d 98 f7 ff
	ff		 lea	 ecx, DWORD PTR _s$[ebp]
  0014e	e8 00 00 00 00	 call	 ?GetToken@CScanner@@UAEHH@Z ; CScanner::GetToken

; 44   : 		lstrcpy( pData->font.lfCaption.szFontSecond, s.token );

  00153	ff b5 d4 f7 ff
	ff		 push	 DWORD PTR _s$[ebp+60]
  00159	8d 87 8c 02 00
	00		 lea	 eax, DWORD PTR [edi+652]
  0015f	50		 push	 eax
  00160	ff d3		 call	 ebx

; 45   : 		s.GetToken();

  00162	6a 00		 push	 0
  00164	8d 8d 98 f7 ff
	ff		 lea	 ecx, DWORD PTR _s$[ebp]
  0016a	e8 00 00 00 00	 call	 ?GetToken@CScanner@@UAEHH@Z ; CScanner::GetToken

; 46   : 
; 47   : 		pData->font.lfCaption.nDivTitle	= s.GetNumber();	// nDivTitle

  0016f	6a 00		 push	 0
  00171	8d 8d 98 f7 ff
	ff		 lea	 ecx, DWORD PTR _s$[ebp]
  00177	e8 00 00 00 00	 call	 ?GetNumber@CScanner@@QAEHH@Z ; CScanner::GetNumber

; 48   : 		pData->font.lfCaption.nDivCaption	= s.GetNumber();	// nDivCaption

  0017c	6a 00		 push	 0
  0017e	8d 8d 98 f7 ff
	ff		 lea	 ecx, DWORD PTR _s$[ebp]
  00184	88 87 ac 02 00
	00		 mov	 BYTE PTR [edi+684], al
  0018a	e8 00 00 00 00	 call	 ?GetNumber@CScanner@@QAEHH@Z ; CScanner::GetNumber

; 49   : 		pData->font.fdLang.charset	= s.GetNumber();	// charset

  0018f	6a 00		 push	 0
  00191	8d 8d 98 f7 ff
	ff		 lea	 ecx, DWORD PTR _s$[ebp]
  00197	88 87 ad 02 00
	00		 mov	 BYTE PTR [edi+685], al
  0019d	e8 00 00 00 00	 call	 ?GetNumber@CScanner@@QAEHH@Z ; CScanner::GetNumber

; 50   : 		pData->font.fdLang.wCodePage	= s.GetNumber();	// wCodePage

  001a2	6a 00		 push	 0
  001a4	8d 8d 98 f7 ff
	ff		 lea	 ecx, DWORD PTR _s$[ebp]
  001aa	89 87 b0 02 00
	00		 mov	 DWORD PTR [edi+688], eax
  001b0	e8 00 00 00 00	 call	 ?GetNumber@CScanner@@QAEHH@Z ; CScanner::GetNumber

; 51   : 
; 52   : 		s.GetToken();

  001b5	6a 00		 push	 0
  001b7	8d 8d 98 f7 ff
	ff		 lea	 ecx, DWORD PTR _s$[ebp]
  001bd	66 89 87 b4 02
	00 00		 mov	 WORD PTR [edi+692], ax
  001c4	e8 00 00 00 00	 call	 ?GetToken@CScanner@@UAEHH@Z ; CScanner::GetToken

; 53   : 		s.GetToken();

  001c9	6a 00		 push	 0
  001cb	8d 8d 98 f7 ff
	ff		 lea	 ecx, DWORD PTR _s$[ebp]
  001d1	e8 00 00 00 00	 call	 ?GetToken@CScanner@@UAEHH@Z ; CScanner::GetToken

; 54   : 		lstrcpy( pData->font.fdLang.faceNT, s.token );	// faceNT

  001d6	ff b5 d4 f7 ff
	ff		 push	 DWORD PTR _s$[ebp+60]
  001dc	8d 87 b6 02 00
	00		 lea	 eax, DWORD PTR [edi+694]
  001e2	50		 push	 eax
  001e3	ff d3		 call	 ebx

; 55   : 		s.GetToken();

  001e5	6a 00		 push	 0
  001e7	8d 8d 98 f7 ff
	ff		 lea	 ecx, DWORD PTR _s$[ebp]
  001ed	e8 00 00 00 00	 call	 ?GetToken@CScanner@@UAEHH@Z ; CScanner::GetToken

; 56   : 
; 57   : 		s.GetToken();

  001f2	6a 00		 push	 0
  001f4	8d 8d 98 f7 ff
	ff		 lea	 ecx, DWORD PTR _s$[ebp]
  001fa	e8 00 00 00 00	 call	 ?GetToken@CScanner@@UAEHH@Z ; CScanner::GetToken

; 58   : 		s.GetToken();

  001ff	6a 00		 push	 0
  00201	8d 8d 98 f7 ff
	ff		 lea	 ecx, DWORD PTR _s$[ebp]
  00207	e8 00 00 00 00	 call	 ?GetToken@CScanner@@UAEHH@Z ; CScanner::GetToken

; 59   : 		lstrcpy( pData->font.fdLang.face9x, s.token );	// face9x

  0020c	ff b5 d4 f7 ff
	ff		 push	 DWORD PTR _s$[ebp+60]
  00212	8d 87 d6 02 00
	00		 lea	 eax, DWORD PTR [edi+726]
  00218	50		 push	 eax
  00219	ff d3		 call	 ebx

; 60   : 		s.GetToken();

  0021b	6a 00		 push	 0
  0021d	8d 8d 98 f7 ff
	ff		 lea	 ecx, DWORD PTR _s$[ebp]
  00223	e8 00 00 00 00	 call	 ?GetToken@CScanner@@UAEHH@Z ; CScanner::GetToken

; 61   : 
; 62   : 		s.GetToken();

  00228	6a 00		 push	 0
  0022a	8d 8d 98 f7 ff
	ff		 lea	 ecx, DWORD PTR _s$[ebp]
  00230	e8 00 00 00 00	 call	 ?GetToken@CScanner@@UAEHH@Z ; CScanner::GetToken

; 63   : 		s.GetToken();	// szFont0

  00235	6a 00		 push	 0
  00237	8d 8d 98 f7 ff
	ff		 lea	 ecx, DWORD PTR _s$[ebp]
  0023d	e8 00 00 00 00	 call	 ?GetToken@CScanner@@UAEHH@Z ; CScanner::GetToken

; 64   : 		lstrcpy( pData->font.afi[0].szFont, s.token );

  00242	ff b5 d4 f7 ff
	ff		 push	 DWORD PTR _s$[ebp+60]
  00248	8d 87 f8 02 00
	00		 lea	 eax, DWORD PTR [edi+760]
  0024e	50		 push	 eax
  0024f	ff d3		 call	 ebx

; 65   : 		s.GetToken();

  00251	6a 00		 push	 0
  00253	8d 8d 98 f7 ff
	ff		 lea	 ecx, DWORD PTR _s$[ebp]
  00259	e8 00 00 00 00	 call	 ?GetToken@CScanner@@UAEHH@Z ; CScanner::GetToken

; 66   : 
; 67   : 		s.GetToken();

  0025e	6a 00		 push	 0
  00260	8d 8d 98 f7 ff
	ff		 lea	 ecx, DWORD PTR _s$[ebp]
  00266	e8 00 00 00 00	 call	 ?GetToken@CScanner@@UAEHH@Z ; CScanner::GetToken

; 68   : 		s.GetToken();	// szFont1

  0026b	6a 00		 push	 0
  0026d	8d 8d 98 f7 ff
	ff		 lea	 ecx, DWORD PTR _s$[ebp]
  00273	e8 00 00 00 00	 call	 ?GetToken@CScanner@@UAEHH@Z ; CScanner::GetToken

; 69   : 		lstrcpy( pData->font.afi[1].szFont, s.token );

  00278	ff b5 d4 f7 ff
	ff		 push	 DWORD PTR _s$[ebp+60]
  0027e	8d 87 28 03 00
	00		 lea	 eax, DWORD PTR [edi+808]
  00284	50		 push	 eax
  00285	ff d3		 call	 ebx

; 70   : 		s.GetToken();

  00287	6a 00		 push	 0
  00289	8d 8d 98 f7 ff
	ff		 lea	 ecx, DWORD PTR _s$[ebp]
  0028f	e8 00 00 00 00	 call	 ?GetToken@CScanner@@UAEHH@Z ; CScanner::GetToken

; 71   : 
; 72   : 		s.GetToken();

  00294	6a 00		 push	 0
  00296	8d 8d 98 f7 ff
	ff		 lea	 ecx, DWORD PTR _s$[ebp]
  0029c	e8 00 00 00 00	 call	 ?GetToken@CScanner@@UAEHH@Z ; CScanner::GetToken

; 73   : 		s.GetToken();	// szFont2

  002a1	6a 00		 push	 0
  002a3	8d 8d 98 f7 ff
	ff		 lea	 ecx, DWORD PTR _s$[ebp]
  002a9	e8 00 00 00 00	 call	 ?GetToken@CScanner@@UAEHH@Z ; CScanner::GetToken

; 74   : 		lstrcpy( pData->font.afi[2].szFont, s.token );

  002ae	ff b5 d4 f7 ff
	ff		 push	 DWORD PTR _s$[ebp+60]
  002b4	8d 87 58 03 00
	00		 lea	 eax, DWORD PTR [edi+856]
  002ba	50		 push	 eax
  002bb	ff d3		 call	 ebx

; 75   : 		s.GetToken();

  002bd	6a 00		 push	 0
  002bf	8d 8d 98 f7 ff
	ff		 lea	 ecx, DWORD PTR _s$[ebp]
  002c5	e8 00 00 00 00	 call	 ?GetToken@CScanner@@UAEHH@Z ; CScanner::GetToken

; 76   : 
; 77   : 		s.GetToken();

  002ca	6a 00		 push	 0
  002cc	8d 8d 98 f7 ff
	ff		 lea	 ecx, DWORD PTR _s$[ebp]
  002d2	e8 00 00 00 00	 call	 ?GetToken@CScanner@@UAEHH@Z ; CScanner::GetToken

; 78   : 		s.GetToken();	// szFont3

  002d7	6a 00		 push	 0
  002d9	8d 8d 98 f7 ff
	ff		 lea	 ecx, DWORD PTR _s$[ebp]
  002df	e8 00 00 00 00	 call	 ?GetToken@CScanner@@UAEHH@Z ; CScanner::GetToken

; 79   : 		lstrcpy( pData->font.afi[3].szFont, s.token );

  002e4	ff b5 d4 f7 ff
	ff		 push	 DWORD PTR _s$[ebp+60]
  002ea	8d 87 88 03 00
	00		 lea	 eax, DWORD PTR [edi+904]
  002f0	50		 push	 eax
  002f1	ff d3		 call	 ebx

; 80   : 		s.GetToken();

  002f3	6a 00		 push	 0
  002f5	8d 8d 98 f7 ff
	ff		 lea	 ecx, DWORD PTR _s$[ebp]
  002fb	e8 00 00 00 00	 call	 ?GetToken@CScanner@@UAEHH@Z ; CScanner::GetToken

; 81   : 
; 82   : 		a	= s.GetNumber();	// dwBgColor3_a

  00300	6a 00		 push	 0
  00302	8d 8d 98 f7 ff
	ff		 lea	 ecx, DWORD PTR _s$[ebp]
  00308	e8 00 00 00 00	 call	 ?GetNumber@CScanner@@QAEHH@Z ; CScanner::GetNumber

; 83   : 		r	= s.GetNumber();	// dwBgColor3_r

  0030d	6a 00		 push	 0
  0030f	8d 8d 98 f7 ff
	ff		 lea	 ecx, DWORD PTR _s$[ebp]
  00315	8b f0		 mov	 esi, eax
  00317	e8 00 00 00 00	 call	 ?GetNumber@CScanner@@QAEHH@Z ; CScanner::GetNumber

; 84   : 		g	= s.GetNumber();	// dwBgColor3_g

  0031c	6a 00		 push	 0
  0031e	8d 8d 98 f7 ff
	ff		 lea	 ecx, DWORD PTR _s$[ebp]
  00324	8b d8		 mov	 ebx, eax
  00326	e8 00 00 00 00	 call	 ?GetNumber@CScanner@@QAEHH@Z ; CScanner::GetNumber
  0032b	89 85 94 f7 ff
	ff		 mov	 DWORD PTR _g$1$[ebp], eax

; 85   : 		b	= s.GetNumber();	// dwBgColor3_b

  00331	6a 00		 push	 0
  00333	8d 8d 98 f7 ff
	ff		 lea	 ecx, DWORD PTR _s$[ebp]
  00339	e8 00 00 00 00	 call	 ?GetNumber@CScanner@@QAEHH@Z ; CScanner::GetNumber

; 86   : 		pData->font.afi[3].dwBgColor	= D3DCOLOR_ARGB( a, r, g, b );

  0033e	0f b6 d0	 movzx	 edx, al
  00341	8b 85 94 f7 ff
	ff		 mov	 eax, DWORD PTR _g$1$[ebp]
  00347	0f b6 cb	 movzx	 ecx, bl
  0034a	c1 e6 08	 shl	 esi, 8
  0034d	0b ce		 or	 ecx, esi
  0034f	0f b6 c0	 movzx	 eax, al
  00352	c1 e1 08	 shl	 ecx, 8
  00355	0b c8		 or	 ecx, eax
  00357	c1 e1 08	 shl	 ecx, 8
  0035a	0b d1		 or	 edx, ecx

; 87   : 		pData->font.afi[3].nOutLine	= s.GetNumber();	// nOutLine3

  0035c	8d 8d 98 f7 ff
	ff		 lea	 ecx, DWORD PTR _s$[ebp]
  00362	6a 00		 push	 0
  00364	89 97 ac 03 00
	00		 mov	 DWORD PTR [edi+940], edx
  0036a	e8 00 00 00 00	 call	 ?GetNumber@CScanner@@QAEHH@Z ; CScanner::GetNumber

; 88   : 		pData->font.afi[3].dwFlags	= s.GetNumber();	// dwFlags3

  0036f	6a 00		 push	 0
  00371	8d 8d 98 f7 ff
	ff		 lea	 ecx, DWORD PTR _s$[ebp]
  00377	89 87 b0 03 00
	00		 mov	 DWORD PTR [edi+944], eax
  0037d	e8 00 00 00 00	 call	 ?GetNumber@CScanner@@QAEHH@Z ; CScanner::GetNumber

; 89   : 
; 90   : 		s.GetToken();

  00382	6a 00		 push	 0
  00384	8d 8d 98 f7 ff
	ff		 lea	 ecx, DWORD PTR _s$[ebp]
  0038a	89 87 b4 03 00
	00		 mov	 DWORD PTR [edi+948], eax
  00390	e8 00 00 00 00	 call	 ?GetToken@CScanner@@UAEHH@Z ; CScanner::GetToken

; 91   : 		s.GetToken();	// szFont4

  00395	6a 00		 push	 0
  00397	8d 8d 98 f7 ff
	ff		 lea	 ecx, DWORD PTR _s$[ebp]
  0039d	e8 00 00 00 00	 call	 ?GetToken@CScanner@@UAEHH@Z ; CScanner::GetToken

; 92   : 		lstrcpy( pData->font.afi[4].szFont, s.token );

  003a2	ff b5 d4 f7 ff
	ff		 push	 DWORD PTR _s$[ebp+60]
  003a8	8d 87 b8 03 00
	00		 lea	 eax, DWORD PTR [edi+952]
  003ae	50		 push	 eax
  003af	ff 15 00 00 00
	00		 call	 DWORD PTR __imp__lstrcpyA@8

; 93   : 		s.GetToken();

  003b5	6a 00		 push	 0
  003b7	8d 8d 98 f7 ff
	ff		 lea	 ecx, DWORD PTR _s$[ebp]
  003bd	e8 00 00 00 00	 call	 ?GetToken@CScanner@@UAEHH@Z ; CScanner::GetToken

; 94   : 		a	= s.GetNumber();	// dwBgColor4_a

  003c2	6a 00		 push	 0
  003c4	8d 8d 98 f7 ff
	ff		 lea	 ecx, DWORD PTR _s$[ebp]
  003ca	e8 00 00 00 00	 call	 ?GetNumber@CScanner@@QAEHH@Z ; CScanner::GetNumber

; 95   : 		r	= s.GetNumber();	// dwBgColor4_r

  003cf	6a 00		 push	 0
  003d1	8d 8d 98 f7 ff
	ff		 lea	 ecx, DWORD PTR _s$[ebp]
  003d7	8b f0		 mov	 esi, eax
  003d9	e8 00 00 00 00	 call	 ?GetNumber@CScanner@@QAEHH@Z ; CScanner::GetNumber

; 96   : 		g	= s.GetNumber();	// dwBgColor4_g

  003de	6a 00		 push	 0
  003e0	8d 8d 98 f7 ff
	ff		 lea	 ecx, DWORD PTR _s$[ebp]
  003e6	8b d8		 mov	 ebx, eax
  003e8	e8 00 00 00 00	 call	 ?GetNumber@CScanner@@QAEHH@Z ; CScanner::GetNumber

; 97   : 		b	= s.GetNumber();	// dwBgColor4_b

  003ed	6a 00		 push	 0
  003ef	8d 8d 98 f7 ff
	ff		 lea	 ecx, DWORD PTR _s$[ebp]
  003f5	89 85 94 f7 ff
	ff		 mov	 DWORD PTR _g$2$[ebp], eax
  003fb	e8 00 00 00 00	 call	 ?GetNumber@CScanner@@QAEHH@Z ; CScanner::GetNumber

; 98   : 		pData->font.afi[4].dwBgColor	= D3DCOLOR_ARGB( a, r, g, b );

  00400	0f b6 d0	 movzx	 edx, al
  00403	8b 85 94 f7 ff
	ff		 mov	 eax, DWORD PTR _g$2$[ebp]
  00409	0f b6 cb	 movzx	 ecx, bl
  0040c	c1 e6 08	 shl	 esi, 8
  0040f	0b ce		 or	 ecx, esi
  00411	0f b6 c0	 movzx	 eax, al
  00414	c1 e1 08	 shl	 ecx, 8
  00417	0b c8		 or	 ecx, eax
  00419	c1 e1 08	 shl	 ecx, 8
  0041c	0b d1		 or	 edx, ecx

; 99   : 		pData->font.afi[4].nOutLine	= s.GetNumber();	// nOutLine4

  0041e	8d 8d 98 f7 ff
	ff		 lea	 ecx, DWORD PTR _s$[ebp]
  00424	6a 00		 push	 0
  00426	89 97 dc 03 00
	00		 mov	 DWORD PTR [edi+988], edx
  0042c	e8 00 00 00 00	 call	 ?GetNumber@CScanner@@QAEHH@Z ; CScanner::GetNumber

; 100  : 		pData->font.afi[4].dwFlags	= s.GetNumber();	// dwFlags4

  00431	6a 00		 push	 0
  00433	8d 8d 98 f7 ff
	ff		 lea	 ecx, DWORD PTR _s$[ebp]
  00439	89 87 e0 03 00
	00		 mov	 DWORD PTR [edi+992], eax
  0043f	e8 00 00 00 00	 call	 ?GetNumber@CScanner@@QAEHH@Z ; CScanner::GetNumber

; 101  : 
; 102  : 		s.GetToken();

  00444	6a 00		 push	 0
  00446	8d 8d 98 f7 ff
	ff		 lea	 ecx, DWORD PTR _s$[ebp]
  0044c	89 87 e4 03 00
	00		 mov	 DWORD PTR [edi+996], eax
  00452	e8 00 00 00 00	 call	 ?GetToken@CScanner@@UAEHH@Z ; CScanner::GetToken

; 103  : 		s.GetToken();	// szFont5

  00457	6a 00		 push	 0
  00459	8d 8d 98 f7 ff
	ff		 lea	 ecx, DWORD PTR _s$[ebp]
  0045f	e8 00 00 00 00	 call	 ?GetToken@CScanner@@UAEHH@Z ; CScanner::GetToken

; 104  : 		lstrcpy( pData->font.afi[5].szFont, s.token );

  00464	ff b5 d4 f7 ff
	ff		 push	 DWORD PTR _s$[ebp+60]
  0046a	8d 87 e8 03 00
	00		 lea	 eax, DWORD PTR [edi+1000]
  00470	50		 push	 eax
  00471	ff 15 00 00 00
	00		 call	 DWORD PTR __imp__lstrcpyA@8

; 105  : 		s.GetToken();

  00477	6a 00		 push	 0
  00479	8d 8d 98 f7 ff
	ff		 lea	 ecx, DWORD PTR _s$[ebp]
  0047f	e8 00 00 00 00	 call	 ?GetToken@CScanner@@UAEHH@Z ; CScanner::GetToken

; 106  : 
; 107  : 		a	= s.GetNumber();	// dwBgColor5_a

  00484	6a 00		 push	 0
  00486	8d 8d 98 f7 ff
	ff		 lea	 ecx, DWORD PTR _s$[ebp]
  0048c	e8 00 00 00 00	 call	 ?GetNumber@CScanner@@QAEHH@Z ; CScanner::GetNumber

; 108  : 		r	= s.GetNumber();	// dwBgColor5_r

  00491	6a 00		 push	 0
  00493	8d 8d 98 f7 ff
	ff		 lea	 ecx, DWORD PTR _s$[ebp]
  00499	8b f0		 mov	 esi, eax
  0049b	e8 00 00 00 00	 call	 ?GetNumber@CScanner@@QAEHH@Z ; CScanner::GetNumber

; 109  : 		g	= s.GetNumber();	// dwBgColor5_g

  004a0	6a 00		 push	 0
  004a2	8d 8d 98 f7 ff
	ff		 lea	 ecx, DWORD PTR _s$[ebp]
  004a8	8b d8		 mov	 ebx, eax
  004aa	e8 00 00 00 00	 call	 ?GetNumber@CScanner@@QAEHH@Z ; CScanner::GetNumber

; 110  : 		b	= s.GetNumber();	// dwBgColor5_b

  004af	6a 00		 push	 0
  004b1	8d 8d 98 f7 ff
	ff		 lea	 ecx, DWORD PTR _s$[ebp]
  004b7	89 85 94 f7 ff
	ff		 mov	 DWORD PTR _g$3$[ebp], eax
  004bd	e8 00 00 00 00	 call	 ?GetNumber@CScanner@@QAEHH@Z ; CScanner::GetNumber

; 111  : 		pData->font.afi[5].dwBgColor	= D3DCOLOR_ARGB( a, r, g, b );

  004c2	0f b6 d0	 movzx	 edx, al
  004c5	8b 85 94 f7 ff
	ff		 mov	 eax, DWORD PTR _g$3$[ebp]
  004cb	0f b6 cb	 movzx	 ecx, bl
  004ce	c1 e6 08	 shl	 esi, 8
  004d1	0b ce		 or	 ecx, esi
  004d3	0f b6 c0	 movzx	 eax, al
  004d6	c1 e1 08	 shl	 ecx, 8
  004d9	0b c8		 or	 ecx, eax
  004db	c1 e1 08	 shl	 ecx, 8
  004de	0b d1		 or	 edx, ecx

; 112  : 		pData->font.afi[5].nOutLine	= s.GetNumber();	// nOutLine5

  004e0	8d 8d 98 f7 ff
	ff		 lea	 ecx, DWORD PTR _s$[ebp]
  004e6	6a 00		 push	 0
  004e8	89 97 0c 04 00
	00		 mov	 DWORD PTR [edi+1036], edx
  004ee	e8 00 00 00 00	 call	 ?GetNumber@CScanner@@QAEHH@Z ; CScanner::GetNumber

; 113  : 		pData->font.afi[5].dwFlags	= s.GetNumber();	// dwFlags5

  004f3	6a 00		 push	 0
  004f5	8d 8d 98 f7 ff
	ff		 lea	 ecx, DWORD PTR _s$[ebp]
  004fb	89 87 10 04 00
	00		 mov	 DWORD PTR [edi+1040], eax
  00501	e8 00 00 00 00	 call	 ?GetNumber@CScanner@@QAEHH@Z ; CScanner::GetNumber

; 114  : 
; 115  : 		s.GetNumber(); // dwFontSize

  00506	6a 00		 push	 0
  00508	8d 8d 98 f7 ff
	ff		 lea	 ecx, DWORD PTR _s$[ebp]
  0050e	89 87 14 04 00
	00		 mov	 DWORD PTR [edi+1044], eax
  00514	e8 00 00 00 00	 call	 ?GetNumber@CScanner@@QAEHH@Z ; CScanner::GetNumber

; 116  : 
; 117  : 		dwLang	= s.GetNumber();	// dwLang

  00519	6a 00		 push	 0
  0051b	8d 8d 98 f7 ff
	ff		 lea	 ecx, DWORD PTR _s$[ebp]
  00521	e8 00 00 00 00	 call	 ?GetNumber@CScanner@@QAEHH@Z ; CScanner::GetNumber
  00526	83 7d dc 15	 cmp	 DWORD PTR _s$[ebp+2116], 21 ; 00000015H
  0052a	8b 1d 00 00 00
	00		 mov	 ebx, DWORD PTR __imp__lstrcpyA@8
  00530	8b bd 90 f7 ff
	ff		 mov	 edi, DWORD PTR _this$GSCopy$1$[ebp]
  00536	0f 85 54 fb ff
	ff		 jne	 $LL2@Load
$LN3@Load:

; 118  : 	}
; 119  : 	return TRUE;

  0053c	be 01 00 00 00	 mov	 esi, 1
$LN7@Load:
  00541	8d 8d 98 f7 ff
	ff		 lea	 ecx, DWORD PTR _s$[ebp]
  00547	e8 00 00 00 00	 call	 ??1CScanner@@UAE@XZ	; CScanner::~CScanner
  0054c	8b c6		 mov	 eax, esi

; 120  : }

  0054e	8b 4d f4	 mov	 ecx, DWORD PTR __$EHRec$[ebp]
  00551	64 89 0d 00 00
	00 00		 mov	 DWORD PTR fs:0, ecx
  00558	59		 pop	 ecx
  00559	5f		 pop	 edi
  0055a	5e		 pop	 esi
  0055b	5b		 pop	 ebx
  0055c	8b 4d f0	 mov	 ecx, DWORD PTR __$ArrayPad$[ebp]
  0055f	33 cd		 xor	 ecx, ebp
  00561	e8 00 00 00 00	 call	 @__security_check_cookie@4
  00566	8b e5		 mov	 esp, ebp
  00568	5d		 pop	 ebp
  00569	c2 04 00	 ret	 4
_TEXT	ENDS
;	COMDAT text$x
text$x	SEGMENT
__unwindfunclet$?Load@CLangMan@@QAEHPBD@Z$0:
  00000	8d 8d 98 f7 ff
	ff		 lea	 ecx, DWORD PTR _s$[ebp]
  00006	e9 00 00 00 00	 jmp	 ??1CScanner@@UAE@XZ	; CScanner::~CScanner
  0000b	cc		 int	 3
  0000c	cc		 int	 3
  0000d	cc		 int	 3
  0000e	cc		 int	 3
  0000f	cc		 int	 3
__ehhandler$?Load@CLangMan@@QAEHPBD@Z:
  00010	90		 npad	 1
  00011	90		 npad	 1
  00012	8b 54 24 08	 mov	 edx, DWORD PTR [esp+8]
  00016	8d 42 0c	 lea	 eax, DWORD PTR [edx+12]
  00019	8b 8a 8c f7 ff
	ff		 mov	 ecx, DWORD PTR [edx-2164]
  0001f	33 c8		 xor	 ecx, eax
  00021	e8 00 00 00 00	 call	 @__security_check_cookie@4
  00026	8b 4a fc	 mov	 ecx, DWORD PTR [edx-4]
  00029	33 c8		 xor	 ecx, eax
  0002b	e8 00 00 00 00	 call	 @__security_check_cookie@4
  00030	b8 00 00 00 00	 mov	 eax, OFFSET __ehfuncinfo$?Load@CLangMan@@QAEHPBD@Z
  00035	e9 00 00 00 00	 jmp	 ___CxxFrameHandler3
text$x	ENDS
?Load@CLangMan@@QAEHPBD@Z ENDP				; CLangMan::Load
; Function compile flags: /Ogtp
; File C:\IAGOS\server\v18\Source\Source\_Common\langman.cpp
;	COMDAT ??1CLangMan@@UAE@XZ
_TEXT	SEGMENT
??1CLangMan@@UAE@XZ PROC				; CLangMan::~CLangMan, COMDAT
; _this$ = ecx

; 11   : {

  00000	c7 01 00 00 00
	00		 mov	 DWORD PTR [ecx], OFFSET ??_7CLangMan@@6B@

; 12   : }

  00006	c3		 ret	 0
??1CLangMan@@UAE@XZ ENDP				; CLangMan::~CLangMan
_TEXT	ENDS
; Function compile flags: /Ogtp
; File C:\IAGOS\server\v18\Source\Source\_Common\langman.cpp
; File C:\IAGOS\server\v18\Source\Source\_Common\langman.h
; File C:\IAGOS\server\v18\Source\Source\_Common\langman.cpp
;	COMDAT ??0CLangMan@@QAE@XZ
_TEXT	SEGMENT
??0CLangMan@@QAE@XZ PROC				; CLangMan::CLangMan, COMDAT
; _this$ = ecx

; 7    : {

  00000	53		 push	 ebx
  00001	8b d9		 mov	 ebx, ecx
  00003	56		 push	 esi
  00004	57		 push	 edi
  00005	bf 0f 00 00 00	 mov	 edi, 15			; 0000000fH
  0000a	c7 03 00 00 00
	00		 mov	 DWORD PTR [ebx], OFFSET ??_7CLangMan@@6B@
  00010	8d 73 04	 lea	 esi, DWORD PTR [ebx+4]
  00013	0f 1f 40 00 66
	0f 1f 84 00 00
	00 00 00	 npad	 13
$LL4@CLangMan:
; File C:\IAGOS\server\v18\Source\Source\_Common\langman.h

; 51   : 			memset( &font, 0, sizeof(NEUZFONT) );

  00020	68 ac 01 00 00	 push	 428			; 000001acH
  00025	8d 86 6c 02 00
	00		 lea	 eax, DWORD PTR [esi+620]
  0002b	c6 06 00	 mov	 BYTE PTR [esi], 0
  0002e	6a 00		 push	 0
  00030	50		 push	 eax
  00031	c6 86 04 01 00
	00 00		 mov	 BYTE PTR [esi+260], 0
  00038	c6 86 08 02 00
	00 00		 mov	 BYTE PTR [esi+520], 0
  0003f	e8 00 00 00 00	 call	 _memset
  00044	83 c4 0c	 add	 esp, 12			; 0000000cH
  00047	8d b6 18 04 00
	00		 lea	 esi, DWORD PTR [esi+1048]
  0004d	83 ef 01	 sub	 edi, 1
  00050	75 ce		 jne	 SHORT $LL4@CLangMan
; File C:\IAGOS\server\v18\Source\Source\_Common\langman.cpp

; 8    : }

  00052	5f		 pop	 edi
  00053	5e		 pop	 esi
  00054	8b c3		 mov	 eax, ebx
  00056	5b		 pop	 ebx
  00057	c3		 ret	 0
??0CLangMan@@QAE@XZ ENDP				; CLangMan::CLangMan
_TEXT	ENDS
; Function compile flags: /Ogtp
; File C:\IAGOS\server\v18\Source\Source\_Common\langman.h
;	COMDAT ??0_LANG_DATA@@QAE@XZ
_TEXT	SEGMENT
??0_LANG_DATA@@QAE@XZ PROC				; _LANG_DATA::_LANG_DATA, COMDAT
; _this$ = ecx

; 46   : 	_LANG_DATA()

  00000	56		 push	 esi
  00001	8b f1		 mov	 esi, ecx

; 47   : 		{
; 48   : 			szPath[0]	= '\0';
; 49   : 			szFileName[0]	= '\0';
; 50   : 			szTitle[0]	= '\0';
; 51   : 			memset( &font, 0, sizeof(NEUZFONT) );

  00003	68 ac 01 00 00	 push	 428			; 000001acH
  00008	6a 00		 push	 0
  0000a	8d 86 6c 02 00
	00		 lea	 eax, DWORD PTR [esi+620]
  00010	c6 06 00	 mov	 BYTE PTR [esi], 0
  00013	50		 push	 eax
  00014	c6 86 04 01 00
	00 00		 mov	 BYTE PTR [esi+260], 0
  0001b	c6 86 08 02 00
	00 00		 mov	 BYTE PTR [esi+520], 0
  00022	e8 00 00 00 00	 call	 _memset
  00027	83 c4 0c	 add	 esp, 12			; 0000000cH

; 52   : 		}

  0002a	8b c6		 mov	 eax, esi
  0002c	5e		 pop	 esi
  0002d	c3		 ret	 0
??0_LANG_DATA@@QAE@XZ ENDP				; _LANG_DATA::_LANG_DATA
_TEXT	ENDS
; Function compile flags: /Ogtp
; File C:\IAGOS\server\v18\Source\Source\_Common\langman.cpp
;	COMDAT ?__empty_global_delete@@YAXPAXI@Z
_TEXT	SEGMENT
___formal$ = 8						; size = 4
___formal$ = 12						; size = 4
?__empty_global_delete@@YAXPAXI@Z PROC			; __empty_global_delete, COMDAT

  00000	c2 00 00	 ret	 0
?__empty_global_delete@@YAXPAXI@Z ENDP			; __empty_global_delete
_TEXT	ENDS
; Function compile flags: /Ogtp
; File C:\IAGOS\server\v18\Source\Source\_Common\langman.cpp
;	COMDAT ?__empty_global_delete@@YAXPAX@Z
_TEXT	SEGMENT
___formal$ = 8						; size = 4
?__empty_global_delete@@YAXPAX@Z PROC			; __empty_global_delete, COMDAT

  00000	c2 00 00	 ret	 0
?__empty_global_delete@@YAXPAX@Z ENDP			; __empty_global_delete
_TEXT	ENDS
; Function compile flags: /Ogtp
;	COMDAT ??_H@YGXPAXIIP6EPAX0@Z@Z
_TEXT	SEGMENT
___t$ = 8						; size = 4
___s$ = 12						; size = 4
___n$ = 16						; size = 4
___f$ = 20						; size = 4
??_H@YGXPAXIIP6EPAX0@Z@Z PROC				; `vector constructor iterator', COMDAT
  00000	55		 push	 ebp
  00001	8b ec		 mov	 ebp, esp
  00003	56		 push	 esi
  00004	8b 75 10	 mov	 esi, DWORD PTR ___n$[ebp]
  00007	85 f6		 test	 esi, esi
  00009	74 16		 je	 SHORT $LN6@vector
  0000b	53		 push	 ebx
  0000c	8b 5d 14	 mov	 ebx, DWORD PTR ___f$[ebp]
  0000f	57		 push	 edi
  00010	8b 7d 08	 mov	 edi, DWORD PTR ___t$[ebp]
$LL2@vector:
  00013	8b cf		 mov	 ecx, edi
  00015	ff d3		 call	 ebx
  00017	03 7d 0c	 add	 edi, DWORD PTR ___s$[ebp]
  0001a	83 ee 01	 sub	 esi, 1
  0001d	75 f4		 jne	 SHORT $LL2@vector
  0001f	5f		 pop	 edi
  00020	5b		 pop	 ebx
$LN6@vector:
  00021	5e		 pop	 esi
  00022	5d		 pop	 ebp
  00023	c2 10 00	 ret	 16			; 00000010H
??_H@YGXPAXIIP6EPAX0@Z@Z ENDP				; `vector constructor iterator'
_TEXT	ENDS
END
