; Listing generated by Microsoft (R) Optimizing Compiler Version 19.44.35225.0 

	TITLE	C:\IAGOS\server\v18\Source\Output\DatabaseServer\Release\lordskill.obj
	.686P
	.XMM
	include listing.inc
	.model	flat

INCLUDELIB LIBCMT
INCLUDELIB OLDNAMES

PUBLIC	?__empty_global_delete@@YAXPAX@Z		; __empty_global_delete
PUBLIC	?__empty_global_delete@@YAXPAXI@Z		; __empty_global_delete
PUBLIC	??0exception@std@@QAE@ABV01@@Z			; std::exception::exception
PUBLIC	??1exception@std@@UAE@XZ			; std::exception::~exception
PUBLIC	?what@exception@std@@UBEPBDXZ			; std::exception::what
PUBLIC	??_Gexception@std@@UAEPAXI@Z			; std::exception::`scalar deleting destructor'
PUBLIC	??0bad_alloc@std@@QAE@ABV01@@Z			; std::bad_alloc::bad_alloc
PUBLIC	??_Gbad_alloc@std@@UAEPAXI@Z			; std::bad_alloc::`scalar deleting destructor'
PUBLIC	??0bad_array_new_length@std@@QAE@XZ		; std::bad_array_new_length::bad_array_new_length
PUBLIC	??1bad_array_new_length@std@@UAE@XZ		; std::bad_array_new_length::~bad_array_new_length
PUBLIC	??0bad_array_new_length@std@@QAE@ABV01@@Z	; std::bad_array_new_length::bad_array_new_length
PUBLIC	??_Gbad_array_new_length@std@@UAEPAXI@Z		; std::bad_array_new_length::`scalar deleting destructor'
PUBLIC	?_Throw_bad_array_new_length@std@@YAXXZ		; std::_Throw_bad_array_new_length
PUBLIC	??$_Allocate_manually_vector_aligned@U_Default_allocate_traits@std@@@std@@YAPAXI@Z ; std::_Allocate_manually_vector_aligned<std::_Default_allocate_traits>
PUBLIC	??0CLordSkillComponent@@QAE@XZ			; CLordSkillComponent::CLordSkillComponent
PUBLIC	??1CLordSkillComponent@@UAE@XZ			; CLordSkillComponent::~CLordSkillComponent
PUBLIC	?Initialize@CLordSkillComponent@@QAEXHHHPBD00HHKKM@Z ; CLordSkillComponent::Initialize
PUBLIC	?Tick@CLordSkillComponent@@QAEHXZ		; CLordSkillComponent::Tick
PUBLIC	??_GCLordSkillComponent@@UAEPAXI@Z		; CLordSkillComponent::`scalar deleting destructor'
PUBLIC	??1CLordSkillComponentExecutable@@UAE@XZ	; CLordSkillComponentExecutable::~CLordSkillComponentExecutable
PUBLIC	?Execute@CLordSkillComponentExecutable@@UAEXKKPAX@Z ; CLordSkillComponentExecutable::Execute
PUBLIC	??_GCLordSkillComponentExecutable@@UAEPAXI@Z	; CLordSkillComponentExecutable::`scalar deleting destructor'
PUBLIC	??0CLordSkill@@QAE@PAVCLord@@@Z			; CLordSkill::CLordSkill
PUBLIC	??1CLordSkill@@UAE@XZ				; CLordSkill::~CLordSkill
PUBLIC	?Clear@CLordSkill@@QAEXXZ			; CLordSkill::Clear
PUBLIC	?CreateSkillComponent@CLordSkill@@UAEPAVCLordSkillComponentExecutable@@H@Z ; CLordSkill::CreateSkillComponent
PUBLIC	?AddSkillComponent@CLordSkill@@QAEXPAVCLordSkillComponentExecutable@@@Z ; CLordSkill::AddSkillComponent
PUBLIC	?GetSkill@CLordSkill@@QAEPAVCLordSkillComponentExecutable@@H@Z ; CLordSkill::GetSkill
PUBLIC	?Initialize@CLordSkill@@QAEHPBD@Z		; CLordSkill::Initialize
PUBLIC	?Reset@CLordSkill@@QAEXXZ			; CLordSkill::Reset
PUBLIC	?SerializeTick@CLordSkill@@QAEXAAVCAr@@@Z	; CLordSkill::SerializeTick
PUBLIC	??1?$vector@PAVCLordSkillComponentExecutable@@V?$allocator@PAVCLordSkillComponentExecutable@@@std@@@std@@QAE@XZ ; std::vector<CLordSkillComponentExecutable *,std::allocator<CLordSkillComponentExecutable *> >::~vector<CLordSkillComponentExecutable *,std::allocator<CLordSkillComponentExecutable *> >
PUBLIC	?_Xlength@?$vector@PAVCLordSkillComponentExecutable@@V?$allocator@PAVCLordSkillComponentExecutable@@@std@@@std@@CAXXZ ; std::vector<CLordSkillComponentExecutable *,std::allocator<CLordSkillComponentExecutable *> >::_Xlength
PUBLIC	??_GCLordSkill@@UAEPAXI@Z			; CLordSkill::`scalar deleting destructor'
PUBLIC	??$?6I@CAr@@QAEAAV0@ABI@Z			; CAr::operator<<<unsigned int>
PUBLIC	??$?6H@CAr@@QAEAAV0@ABH@Z			; CAr::operator<<<int>
PUBLIC	??$?5I@CAr@@QAEAAV0@AAI@Z			; CAr::operator>><unsigned int>
PUBLIC	??$?5H@CAr@@QAEAAV0@AAH@Z			; CAr::operator>><int>
PUBLIC	??$_Emplace_reallocate@ABQAVCLordSkillComponentExecutable@@@?$vector@PAVCLordSkillComponentExecutable@@V?$allocator@PAVCLordSkillComponentExecutable@@@std@@@std@@AAEPAPAVCLordSkillComponentExecutable@@QAPAV2@ABQAV2@@Z ; std::vector<CLordSkillComponentExecutable *,std::allocator<CLordSkillComponentExecutable *> >::_Emplace_reallocate<CLordSkillComponentExecutable * const &>
PUBLIC	??$_Copy_memmove@PAPAVCLordSkillComponentExecutable@@PAPAV1@@std@@YAPAPAVCLordSkillComponentExecutable@@PAPAV1@00@Z ; std::_Copy_memmove<CLordSkillComponentExecutable * *,CLordSkillComponentExecutable * *>
PUBLIC	??$_Copy_memmove_tail@PAPAVCLordSkillComponentExecutable@@@std@@YAPAPAVCLordSkillComponentExecutable@@QBDQAPAV1@II@Z ; std::_Copy_memmove_tail<CLordSkillComponentExecutable * *>
PUBLIC	??_7exception@std@@6B@				; std::exception::`vftable'
PUBLIC	??_C@_0BC@EOODALEL@Unknown?5exception@		; `string'
PUBLIC	??_7bad_alloc@std@@6B@				; std::bad_alloc::`vftable'
PUBLIC	??_7bad_array_new_length@std@@6B@		; std::bad_array_new_length::`vftable'
PUBLIC	??_C@_0BF@KINCDENJ@bad?5array?5new?5length@	; `string'
PUBLIC	??_R0?AVexception@std@@@8			; std::exception `RTTI Type Descriptor'
PUBLIC	__CT??_R0?AVexception@std@@@8??0exception@std@@QAE@ABV01@@Z12
PUBLIC	__TI3?AVbad_array_new_length@std@@
PUBLIC	__CTA3?AVbad_array_new_length@std@@
PUBLIC	??_R0?AVbad_array_new_length@std@@@8		; std::bad_array_new_length `RTTI Type Descriptor'
PUBLIC	__CT??_R0?AVbad_array_new_length@std@@@8??0bad_array_new_length@std@@QAE@ABV01@@Z12
PUBLIC	??_R0?AVbad_alloc@std@@@8			; std::bad_alloc `RTTI Type Descriptor'
PUBLIC	__CT??_R0?AVbad_alloc@std@@@8??0bad_alloc@std@@QAE@ABV01@@Z12
PUBLIC	??_C@_0BA@FOIKENOD@vector?5too?5long@		; `string'
PUBLIC	??_R4exception@std@@6B@				; std::exception::`RTTI Complete Object Locator'
PUBLIC	??_R3exception@std@@8				; std::exception::`RTTI Class Hierarchy Descriptor'
PUBLIC	??_R2exception@std@@8				; std::exception::`RTTI Base Class Array'
PUBLIC	??_R1A@?0A@EA@exception@std@@8			; std::exception::`RTTI Base Class Descriptor at (0,-1,0,64)'
PUBLIC	??_R4bad_array_new_length@std@@6B@		; std::bad_array_new_length::`RTTI Complete Object Locator'
PUBLIC	??_R3bad_array_new_length@std@@8		; std::bad_array_new_length::`RTTI Class Hierarchy Descriptor'
PUBLIC	??_R2bad_array_new_length@std@@8		; std::bad_array_new_length::`RTTI Base Class Array'
PUBLIC	??_R1A@?0A@EA@bad_array_new_length@std@@8	; std::bad_array_new_length::`RTTI Base Class Descriptor at (0,-1,0,64)'
PUBLIC	??_R1A@?0A@EA@bad_alloc@std@@8			; std::bad_alloc::`RTTI Base Class Descriptor at (0,-1,0,64)'
PUBLIC	??_R3bad_alloc@std@@8				; std::bad_alloc::`RTTI Class Hierarchy Descriptor'
PUBLIC	??_R2bad_alloc@std@@8				; std::bad_alloc::`RTTI Base Class Array'
PUBLIC	??_R4bad_alloc@std@@6B@				; std::bad_alloc::`RTTI Complete Object Locator'
PUBLIC	??_7CLordSkillComponent@@6B@			; CLordSkillComponent::`vftable'
PUBLIC	??_7CLordSkillComponentExecutable@@6B@		; CLordSkillComponentExecutable::`vftable'
PUBLIC	??_7CLordSkill@@6B@				; CLordSkill::`vftable'
PUBLIC	??_R4CLordSkillComponent@@6B@			; CLordSkillComponent::`RTTI Complete Object Locator'
PUBLIC	??_R0?AVCLordSkillComponent@@@8			; CLordSkillComponent `RTTI Type Descriptor'
PUBLIC	??_R3CLordSkillComponent@@8			; CLordSkillComponent::`RTTI Class Hierarchy Descriptor'
PUBLIC	??_R2CLordSkillComponent@@8			; CLordSkillComponent::`RTTI Base Class Array'
PUBLIC	??_R1A@?0A@EA@CLordSkillComponent@@8		; CLordSkillComponent::`RTTI Base Class Descriptor at (0,-1,0,64)'
PUBLIC	??_R4CLordSkillComponentExecutable@@6B@		; CLordSkillComponentExecutable::`RTTI Complete Object Locator'
PUBLIC	??_R0?AVCLordSkillComponentExecutable@@@8	; CLordSkillComponentExecutable `RTTI Type Descriptor'
PUBLIC	??_R3CLordSkillComponentExecutable@@8		; CLordSkillComponentExecutable::`RTTI Class Hierarchy Descriptor'
PUBLIC	??_R2CLordSkillComponentExecutable@@8		; CLordSkillComponentExecutable::`RTTI Base Class Array'
PUBLIC	??_R1A@?0A@EA@CLordSkillComponentExecutable@@8	; CLordSkillComponentExecutable::`RTTI Base Class Descriptor at (0,-1,0,64)'
PUBLIC	??_R4CLordSkill@@6B@				; CLordSkill::`RTTI Complete Object Locator'
PUBLIC	??_R0?AVCLordSkill@@@8				; CLordSkill `RTTI Type Descriptor'
PUBLIC	??_R3CLordSkill@@8				; CLordSkill::`RTTI Class Hierarchy Descriptor'
PUBLIC	??_R2CLordSkill@@8				; CLordSkill::`RTTI Base Class Array'
PUBLIC	??_R1A@?0A@EA@CLordSkill@@8			; CLordSkill::`RTTI Base Class Descriptor at (0,-1,0,64)'
EXTRN	??2@YAPAXI@Z:PROC				; operator new
EXTRN	??3@YAXPAXI@Z:PROC				; operator delete
EXTRN	__invoke_watson:PROC
EXTRN	_strncpy:PROC
EXTRN	__imp__lstrcpyA@8:PROC
EXTRN	?_Xlength_error@std@@YAXPBD@Z:PROC		; std::_Xlength_error
EXTRN	___std_exception_copy:PROC
EXTRN	___std_exception_destroy:PROC
EXTRN	??_Eexception@std@@UAEPAXI@Z:PROC		; std::exception::`vector deleting destructor'
EXTRN	??_Ebad_alloc@std@@UAEPAXI@Z:PROC		; std::bad_alloc::`vector deleting destructor'
EXTRN	??_Ebad_array_new_length@std@@UAEPAXI@Z:PROC	; std::bad_array_new_length::`vector deleting destructor'
EXTRN	?GetNumber@CScanner@@QAEHH@Z:PROC		; CScanner::GetNumber
EXTRN	?GetFloat@CScanner@@QAEMH@Z:PROC		; CScanner::GetFloat
EXTRN	??0CScript@@QAE@H@Z:PROC			; CScript::CScript
EXTRN	??1CScript@@UAE@XZ:PROC				; CScript::~CScript
EXTRN	?Load@CScript@@QAEHPBDHH@Z:PROC			; CScript::Load
EXTRN	?GetToken@CScript@@UAEHH@Z:PROC			; CScript::GetToken
EXTRN	?CheckBuf@CAr@@QAEXI@Z:PROC			; CAr::CheckBuf
EXTRN	??_ECLordSkillComponent@@UAEPAXI@Z:PROC		; CLordSkillComponent::`vector deleting destructor'
EXTRN	??_ECLordSkillComponentExecutable@@UAEPAXI@Z:PROC ; CLordSkillComponentExecutable::`vector deleting destructor'
EXTRN	??_ECLordSkill@@UAEPAXI@Z:PROC			; CLordSkill::`vector deleting destructor'
EXTRN	@__security_check_cookie@4:PROC
EXTRN	__CxxThrowException@8:PROC
EXTRN	___CxxFrameHandler3:PROC
EXTRN	__chkstk:PROC
EXTRN	_memmove:PROC
EXTRN	_memset:PROC
EXTRN	??_7type_info@@6B@:QWORD			; type_info::`vftable'
EXTRN	___security_cookie:DWORD
EXTRN	__fltused:DWORD
;	COMDAT ??_R1A@?0A@EA@CLordSkill@@8
rdata$r	SEGMENT
??_R1A@?0A@EA@CLordSkill@@8 DD FLAT:??_R0?AVCLordSkill@@@8 ; CLordSkill::`RTTI Base Class Descriptor at (0,-1,0,64)'
	DD	00H
	DD	00H
	DD	0ffffffffH
	DD	00H
	DD	040H
	DD	FLAT:??_R3CLordSkill@@8
rdata$r	ENDS
;	COMDAT ??_R2CLordSkill@@8
rdata$r	SEGMENT
??_R2CLordSkill@@8 DD FLAT:??_R1A@?0A@EA@CLordSkill@@8	; CLordSkill::`RTTI Base Class Array'
rdata$r	ENDS
;	COMDAT ??_R3CLordSkill@@8
rdata$r	SEGMENT
??_R3CLordSkill@@8 DD 00H				; CLordSkill::`RTTI Class Hierarchy Descriptor'
	DD	00H
	DD	01H
	DD	FLAT:??_R2CLordSkill@@8
rdata$r	ENDS
;	COMDAT ??_R0?AVCLordSkill@@@8
data$rs	SEGMENT
??_R0?AVCLordSkill@@@8 DD FLAT:??_7type_info@@6B@	; CLordSkill `RTTI Type Descriptor'
	DD	00H
	DB	'.?AVCLordSkill@@', 00H
data$rs	ENDS
;	COMDAT ??_R4CLordSkill@@6B@
rdata$r	SEGMENT
??_R4CLordSkill@@6B@ DD 00H				; CLordSkill::`RTTI Complete Object Locator'
	DD	00H
	DD	00H
	DD	FLAT:??_R0?AVCLordSkill@@@8
	DD	FLAT:??_R3CLordSkill@@8
rdata$r	ENDS
;	COMDAT ??_R1A@?0A@EA@CLordSkillComponentExecutable@@8
rdata$r	SEGMENT
??_R1A@?0A@EA@CLordSkillComponentExecutable@@8 DD FLAT:??_R0?AVCLordSkillComponentExecutable@@@8 ; CLordSkillComponentExecutable::`RTTI Base Class Descriptor at (0,-1,0,64)'
	DD	01H
	DD	00H
	DD	0ffffffffH
	DD	00H
	DD	040H
	DD	FLAT:??_R3CLordSkillComponentExecutable@@8
rdata$r	ENDS
;	COMDAT ??_R2CLordSkillComponentExecutable@@8
rdata$r	SEGMENT
??_R2CLordSkillComponentExecutable@@8 DD FLAT:??_R1A@?0A@EA@CLordSkillComponentExecutable@@8 ; CLordSkillComponentExecutable::`RTTI Base Class Array'
	DD	FLAT:??_R1A@?0A@EA@CLordSkillComponent@@8
rdata$r	ENDS
;	COMDAT ??_R3CLordSkillComponentExecutable@@8
rdata$r	SEGMENT
??_R3CLordSkillComponentExecutable@@8 DD 00H		; CLordSkillComponentExecutable::`RTTI Class Hierarchy Descriptor'
	DD	00H
	DD	02H
	DD	FLAT:??_R2CLordSkillComponentExecutable@@8
rdata$r	ENDS
;	COMDAT ??_R0?AVCLordSkillComponentExecutable@@@8
data$rs	SEGMENT
??_R0?AVCLordSkillComponentExecutable@@@8 DD FLAT:??_7type_info@@6B@ ; CLordSkillComponentExecutable `RTTI Type Descriptor'
	DD	00H
	DB	'.?AVCLordSkillComponentExecutable@@', 00H
data$rs	ENDS
;	COMDAT ??_R4CLordSkillComponentExecutable@@6B@
rdata$r	SEGMENT
??_R4CLordSkillComponentExecutable@@6B@ DD 00H		; CLordSkillComponentExecutable::`RTTI Complete Object Locator'
	DD	00H
	DD	00H
	DD	FLAT:??_R0?AVCLordSkillComponentExecutable@@@8
	DD	FLAT:??_R3CLordSkillComponentExecutable@@8
rdata$r	ENDS
;	COMDAT ??_R1A@?0A@EA@CLordSkillComponent@@8
rdata$r	SEGMENT
??_R1A@?0A@EA@CLordSkillComponent@@8 DD FLAT:??_R0?AVCLordSkillComponent@@@8 ; CLordSkillComponent::`RTTI Base Class Descriptor at (0,-1,0,64)'
	DD	00H
	DD	00H
	DD	0ffffffffH
	DD	00H
	DD	040H
	DD	FLAT:??_R3CLordSkillComponent@@8
rdata$r	ENDS
;	COMDAT ??_R2CLordSkillComponent@@8
rdata$r	SEGMENT
??_R2CLordSkillComponent@@8 DD FLAT:??_R1A@?0A@EA@CLordSkillComponent@@8 ; CLordSkillComponent::`RTTI Base Class Array'
rdata$r	ENDS
;	COMDAT ??_R3CLordSkillComponent@@8
rdata$r	SEGMENT
??_R3CLordSkillComponent@@8 DD 00H			; CLordSkillComponent::`RTTI Class Hierarchy Descriptor'
	DD	00H
	DD	01H
	DD	FLAT:??_R2CLordSkillComponent@@8
rdata$r	ENDS
;	COMDAT ??_R0?AVCLordSkillComponent@@@8
data$rs	SEGMENT
??_R0?AVCLordSkillComponent@@@8 DD FLAT:??_7type_info@@6B@ ; CLordSkillComponent `RTTI Type Descriptor'
	DD	00H
	DB	'.?AVCLordSkillComponent@@', 00H
data$rs	ENDS
;	COMDAT ??_R4CLordSkillComponent@@6B@
rdata$r	SEGMENT
??_R4CLordSkillComponent@@6B@ DD 00H			; CLordSkillComponent::`RTTI Complete Object Locator'
	DD	00H
	DD	00H
	DD	FLAT:??_R0?AVCLordSkillComponent@@@8
	DD	FLAT:??_R3CLordSkillComponent@@8
rdata$r	ENDS
;	COMDAT ??_7CLordSkill@@6B@
CONST	SEGMENT
??_7CLordSkill@@6B@ DD FLAT:??_R4CLordSkill@@6B@	; CLordSkill::`vftable'
	DD	FLAT:??_ECLordSkill@@UAEPAXI@Z
	DD	FLAT:?CreateSkillComponent@CLordSkill@@UAEPAVCLordSkillComponentExecutable@@H@Z
CONST	ENDS
;	COMDAT ??_7CLordSkillComponentExecutable@@6B@
CONST	SEGMENT
??_7CLordSkillComponentExecutable@@6B@ DD FLAT:??_R4CLordSkillComponentExecutable@@6B@ ; CLordSkillComponentExecutable::`vftable'
	DD	FLAT:??_ECLordSkillComponentExecutable@@UAEPAXI@Z
	DD	FLAT:?Execute@CLordSkillComponentExecutable@@UAEXKKPAX@Z
CONST	ENDS
;	COMDAT ??_7CLordSkillComponent@@6B@
CONST	SEGMENT
??_7CLordSkillComponent@@6B@ DD FLAT:??_R4CLordSkillComponent@@6B@ ; CLordSkillComponent::`vftable'
	DD	FLAT:??_ECLordSkillComponent@@UAEPAXI@Z
CONST	ENDS
;	COMDAT ??_R4bad_alloc@std@@6B@
rdata$r	SEGMENT
??_R4bad_alloc@std@@6B@ DD 00H				; std::bad_alloc::`RTTI Complete Object Locator'
	DD	00H
	DD	00H
	DD	FLAT:??_R0?AVbad_alloc@std@@@8
	DD	FLAT:??_R3bad_alloc@std@@8
rdata$r	ENDS
;	COMDAT ??_R2bad_alloc@std@@8
rdata$r	SEGMENT
??_R2bad_alloc@std@@8 DD FLAT:??_R1A@?0A@EA@bad_alloc@std@@8 ; std::bad_alloc::`RTTI Base Class Array'
	DD	FLAT:??_R1A@?0A@EA@exception@std@@8
rdata$r	ENDS
;	COMDAT ??_R3bad_alloc@std@@8
rdata$r	SEGMENT
??_R3bad_alloc@std@@8 DD 00H				; std::bad_alloc::`RTTI Class Hierarchy Descriptor'
	DD	00H
	DD	02H
	DD	FLAT:??_R2bad_alloc@std@@8
rdata$r	ENDS
;	COMDAT ??_R1A@?0A@EA@bad_alloc@std@@8
rdata$r	SEGMENT
??_R1A@?0A@EA@bad_alloc@std@@8 DD FLAT:??_R0?AVbad_alloc@std@@@8 ; std::bad_alloc::`RTTI Base Class Descriptor at (0,-1,0,64)'
	DD	01H
	DD	00H
	DD	0ffffffffH
	DD	00H
	DD	040H
	DD	FLAT:??_R3bad_alloc@std@@8
rdata$r	ENDS
;	COMDAT ??_R1A@?0A@EA@bad_array_new_length@std@@8
rdata$r	SEGMENT
??_R1A@?0A@EA@bad_array_new_length@std@@8 DD FLAT:??_R0?AVbad_array_new_length@std@@@8 ; std::bad_array_new_length::`RTTI Base Class Descriptor at (0,-1,0,64)'
	DD	02H
	DD	00H
	DD	0ffffffffH
	DD	00H
	DD	040H
	DD	FLAT:??_R3bad_array_new_length@std@@8
rdata$r	ENDS
;	COMDAT ??_R2bad_array_new_length@std@@8
rdata$r	SEGMENT
??_R2bad_array_new_length@std@@8 DD FLAT:??_R1A@?0A@EA@bad_array_new_length@std@@8 ; std::bad_array_new_length::`RTTI Base Class Array'
	DD	FLAT:??_R1A@?0A@EA@bad_alloc@std@@8
	DD	FLAT:??_R1A@?0A@EA@exception@std@@8
rdata$r	ENDS
;	COMDAT ??_R3bad_array_new_length@std@@8
rdata$r	SEGMENT
??_R3bad_array_new_length@std@@8 DD 00H			; std::bad_array_new_length::`RTTI Class Hierarchy Descriptor'
	DD	00H
	DD	03H
	DD	FLAT:??_R2bad_array_new_length@std@@8
rdata$r	ENDS
;	COMDAT ??_R4bad_array_new_length@std@@6B@
rdata$r	SEGMENT
??_R4bad_array_new_length@std@@6B@ DD 00H		; std::bad_array_new_length::`RTTI Complete Object Locator'
	DD	00H
	DD	00H
	DD	FLAT:??_R0?AVbad_array_new_length@std@@@8
	DD	FLAT:??_R3bad_array_new_length@std@@8
rdata$r	ENDS
;	COMDAT ??_R1A@?0A@EA@exception@std@@8
rdata$r	SEGMENT
??_R1A@?0A@EA@exception@std@@8 DD FLAT:??_R0?AVexception@std@@@8 ; std::exception::`RTTI Base Class Descriptor at (0,-1,0,64)'
	DD	00H
	DD	00H
	DD	0ffffffffH
	DD	00H
	DD	040H
	DD	FLAT:??_R3exception@std@@8
rdata$r	ENDS
;	COMDAT ??_R2exception@std@@8
rdata$r	SEGMENT
??_R2exception@std@@8 DD FLAT:??_R1A@?0A@EA@exception@std@@8 ; std::exception::`RTTI Base Class Array'
rdata$r	ENDS
;	COMDAT ??_R3exception@std@@8
rdata$r	SEGMENT
??_R3exception@std@@8 DD 00H				; std::exception::`RTTI Class Hierarchy Descriptor'
	DD	00H
	DD	01H
	DD	FLAT:??_R2exception@std@@8
rdata$r	ENDS
;	COMDAT ??_R4exception@std@@6B@
rdata$r	SEGMENT
??_R4exception@std@@6B@ DD 00H				; std::exception::`RTTI Complete Object Locator'
	DD	00H
	DD	00H
	DD	FLAT:??_R0?AVexception@std@@@8
	DD	FLAT:??_R3exception@std@@8
rdata$r	ENDS
;	COMDAT ??_C@_0BA@FOIKENOD@vector?5too?5long@
CONST	SEGMENT
??_C@_0BA@FOIKENOD@vector?5too?5long@ DB 'vector too long', 00H ; `string'
CONST	ENDS
;	COMDAT __CT??_R0?AVbad_alloc@std@@@8??0bad_alloc@std@@QAE@ABV01@@Z12
xdata$x	SEGMENT
__CT??_R0?AVbad_alloc@std@@@8??0bad_alloc@std@@QAE@ABV01@@Z12 DD 010H
	DD	FLAT:??_R0?AVbad_alloc@std@@@8
	DD	00H
	DD	0ffffffffH
	ORG $+4
	DD	0cH
	DD	FLAT:??0bad_alloc@std@@QAE@ABV01@@Z
xdata$x	ENDS
;	COMDAT ??_R0?AVbad_alloc@std@@@8
data$r	SEGMENT
??_R0?AVbad_alloc@std@@@8 DD FLAT:??_7type_info@@6B@	; std::bad_alloc `RTTI Type Descriptor'
	DD	00H
	DB	'.?AVbad_alloc@std@@', 00H
data$r	ENDS
;	COMDAT __CT??_R0?AVbad_array_new_length@std@@@8??0bad_array_new_length@std@@QAE@ABV01@@Z12
xdata$x	SEGMENT
__CT??_R0?AVbad_array_new_length@std@@@8??0bad_array_new_length@std@@QAE@ABV01@@Z12 DD 00H
	DD	FLAT:??_R0?AVbad_array_new_length@std@@@8
	DD	00H
	DD	0ffffffffH
	ORG $+4
	DD	0cH
	DD	FLAT:??0bad_array_new_length@std@@QAE@ABV01@@Z
xdata$x	ENDS
;	COMDAT ??_R0?AVbad_array_new_length@std@@@8
data$r	SEGMENT
??_R0?AVbad_array_new_length@std@@@8 DD FLAT:??_7type_info@@6B@ ; std::bad_array_new_length `RTTI Type Descriptor'
	DD	00H
	DB	'.?AVbad_array_new_length@std@@', 00H
data$r	ENDS
;	COMDAT __CTA3?AVbad_array_new_length@std@@
xdata$x	SEGMENT
__CTA3?AVbad_array_new_length@std@@ DD 03H
	DD	FLAT:__CT??_R0?AVbad_array_new_length@std@@@8??0bad_array_new_length@std@@QAE@ABV01@@Z12
	DD	FLAT:__CT??_R0?AVbad_alloc@std@@@8??0bad_alloc@std@@QAE@ABV01@@Z12
	DD	FLAT:__CT??_R0?AVexception@std@@@8??0exception@std@@QAE@ABV01@@Z12
xdata$x	ENDS
;	COMDAT __TI3?AVbad_array_new_length@std@@
xdata$x	SEGMENT
__TI3?AVbad_array_new_length@std@@ DD 00H
	DD	FLAT:??1bad_array_new_length@std@@UAE@XZ
	DD	00H
	DD	FLAT:__CTA3?AVbad_array_new_length@std@@
xdata$x	ENDS
;	COMDAT __CT??_R0?AVexception@std@@@8??0exception@std@@QAE@ABV01@@Z12
xdata$x	SEGMENT
__CT??_R0?AVexception@std@@@8??0exception@std@@QAE@ABV01@@Z12 DD 00H
	DD	FLAT:??_R0?AVexception@std@@@8
	DD	00H
	DD	0ffffffffH
	ORG $+4
	DD	0cH
	DD	FLAT:??0exception@std@@QAE@ABV01@@Z
xdata$x	ENDS
;	COMDAT ??_R0?AVexception@std@@@8
data$r	SEGMENT
??_R0?AVexception@std@@@8 DD FLAT:??_7type_info@@6B@	; std::exception `RTTI Type Descriptor'
	DD	00H
	DB	'.?AVexception@std@@', 00H
data$r	ENDS
;	COMDAT ??_C@_0BF@KINCDENJ@bad?5array?5new?5length@
CONST	SEGMENT
??_C@_0BF@KINCDENJ@bad?5array?5new?5length@ DB 'bad array new length', 00H ; `string'
CONST	ENDS
;	COMDAT ??_7bad_array_new_length@std@@6B@
CONST	SEGMENT
??_7bad_array_new_length@std@@6B@ DD FLAT:??_R4bad_array_new_length@std@@6B@ ; std::bad_array_new_length::`vftable'
	DD	FLAT:??_Ebad_array_new_length@std@@UAEPAXI@Z
	DD	FLAT:?what@exception@std@@UBEPBDXZ
CONST	ENDS
;	COMDAT ??_7bad_alloc@std@@6B@
CONST	SEGMENT
??_7bad_alloc@std@@6B@ DD FLAT:??_R4bad_alloc@std@@6B@	; std::bad_alloc::`vftable'
	DD	FLAT:??_Ebad_alloc@std@@UAEPAXI@Z
	DD	FLAT:?what@exception@std@@UBEPBDXZ
CONST	ENDS
;	COMDAT ??_C@_0BC@EOODALEL@Unknown?5exception@
CONST	SEGMENT
??_C@_0BC@EOODALEL@Unknown?5exception@ DB 'Unknown exception', 00H ; `string'
CONST	ENDS
;	COMDAT ??_7exception@std@@6B@
CONST	SEGMENT
??_7exception@std@@6B@ DD FLAT:??_R4exception@std@@6B@	; std::exception::`vftable'
	DD	FLAT:??_Eexception@std@@UAEPAXI@Z
	DD	FLAT:?what@exception@std@@UBEPBDXZ
CONST	ENDS
;	COMDAT xdata$x
xdata$x	SEGMENT
__unwindtable$?Initialize@CLordSkill@@QAEHPBD@Z DD 0ffffffffH
	DD	FLAT:__unwindfunclet$?Initialize@CLordSkill@@QAEHPBD@Z$0
__ehfuncinfo$?Initialize@CLordSkill@@QAEHPBD@Z DD 019930522H
	DD	01H
	DD	FLAT:__unwindtable$?Initialize@CLordSkill@@QAEHPBD@Z
	DD	2 DUP(00H)
	DD	2 DUP(00H)
	DD	00H
	DD	01H
xdata$x	ENDS
; Function compile flags: /Ogtp
; File C:\Program Files\Microsoft Visual Studio\2022\Professional\VC\Tools\MSVC\14.44.35207\include\xutility
;	COMDAT ??$_Copy_memmove_tail@PAPAVCLordSkillComponentExecutable@@@std@@YAPAPAVCLordSkillComponentExecutable@@QBDQAPAV1@II@Z
_TEXT	SEGMENT
__First_ch$ = 8						; size = 4
__Dest$ = 12						; size = 4
__Byte_count$ = 16					; size = 4
__Object_count$ = 20					; size = 4
??$_Copy_memmove_tail@PAPAVCLordSkillComponentExecutable@@@std@@YAPAPAVCLordSkillComponentExecutable@@QBDQAPAV1@II@Z PROC ; std::_Copy_memmove_tail<CLordSkillComponentExecutable * *>, COMDAT

; 4747 :     const char* const _First_ch, const _OutCtgIt _Dest, const size_t _Byte_count, const size_t _Object_count) {

  00000	55		 push	 ebp
  00001	8b ec		 mov	 ebp, esp
  00003	56		 push	 esi

; 4748 :     _STL_INTERNAL_CHECK(_Byte_count == _Object_count * sizeof(*_Dest));
; 4749 :     const auto _Dest_ptr = _STD _To_address(_Dest);
; 4750 :     const auto _Dest_ch  = const_cast<char*>(reinterpret_cast<const volatile char*>(_Dest_ptr));
; 4751 :     _CSTD memmove(_Dest_ch, _First_ch, _Byte_count);

  00004	8b 75 0c	 mov	 esi, DWORD PTR __Dest$[ebp]
  00007	57		 push	 edi
  00008	8b 7d 10	 mov	 edi, DWORD PTR __Byte_count$[ebp]
  0000b	57		 push	 edi
  0000c	ff 75 08	 push	 DWORD PTR __First_ch$[ebp]
  0000f	56		 push	 esi
  00010	e8 00 00 00 00	 call	 _memmove
  00015	83 c4 0c	 add	 esp, 12			; 0000000cH

; 4752 :     if constexpr (is_pointer_v<_OutCtgIt>) {
; 4753 :         (void) _Object_count;
; 4754 :         // CodeQL [SM02986] This cast is correct: we're bypassing pointer arithmetic for performance.
; 4755 :         return reinterpret_cast<_OutCtgIt>(_Dest_ch + _Byte_count);

  00018	8d 04 3e	 lea	 eax, DWORD PTR [esi+edi]
  0001b	5f		 pop	 edi
  0001c	5e		 pop	 esi

; 4756 :     } else {
; 4757 :         return _Dest + static_cast<_Iter_diff_t<_OutCtgIt>>(_Object_count);
; 4758 :     }
; 4759 : }

  0001d	5d		 pop	 ebp
  0001e	c3		 ret	 0
??$_Copy_memmove_tail@PAPAVCLordSkillComponentExecutable@@@std@@YAPAPAVCLordSkillComponentExecutable@@QBDQAPAV1@II@Z ENDP ; std::_Copy_memmove_tail<CLordSkillComponentExecutable * *>
_TEXT	ENDS
; Function compile flags: /Ogtp
; File C:\Program Files\Microsoft Visual Studio\2022\Professional\VC\Tools\MSVC\14.44.35207\include\xutility
;	COMDAT ??$_Copy_memmove@PAPAVCLordSkillComponentExecutable@@PAPAV1@@std@@YAPAPAVCLordSkillComponentExecutable@@PAPAV1@00@Z
_TEXT	SEGMENT
__First$ = 8						; size = 4
__Last$ = 12						; size = 4
__Dest$ = 16						; size = 4
??$_Copy_memmove@PAPAVCLordSkillComponentExecutable@@PAPAV1@@std@@YAPAPAVCLordSkillComponentExecutable@@PAPAV1@00@Z PROC ; std::_Copy_memmove<CLordSkillComponentExecutable * *,CLordSkillComponentExecutable * *>, COMDAT

; 4762 : _OutCtgIt _Copy_memmove(_CtgIt _First, _CtgIt _Last, _OutCtgIt _Dest) {

  00000	55		 push	 ebp
  00001	8b ec		 mov	 ebp, esp

; 4763 :     _STL_INTERNAL_CHECK(_First <= _Last);
; 4764 :     const auto _First_ptr    = _STD _To_address(_First);
; 4765 :     const auto _Last_ptr     = _STD _To_address(_Last);
; 4766 :     const auto _Object_count = static_cast<size_t>(_Last_ptr - _First_ptr);

  00003	8b 55 08	 mov	 edx, DWORD PTR __First$[ebp]
  00006	8b 4d 0c	 mov	 ecx, DWORD PTR __Last$[ebp]
  00009	2b ca		 sub	 ecx, edx
  0000b	8b c1		 mov	 eax, ecx
  0000d	c1 f8 02	 sar	 eax, 2

; 4767 :     const auto _First_ch     = const_cast<const char*>(reinterpret_cast<const volatile char*>(_First_ptr));
; 4768 :     const auto _Last_ch      = const_cast<const char*>(reinterpret_cast<const volatile char*>(_Last_ptr));
; 4769 :     const auto _Byte_count   = static_cast<size_t>(_Last_ch - _First_ch);
; 4770 :     return _STD _Copy_memmove_tail(_First_ch, _STD move(_Dest), _Byte_count, _Object_count);

  00010	50		 push	 eax
  00011	51		 push	 ecx
  00012	ff 75 10	 push	 DWORD PTR __Dest$[ebp]
  00015	52		 push	 edx
  00016	e8 00 00 00 00	 call	 ??$_Copy_memmove_tail@PAPAVCLordSkillComponentExecutable@@@std@@YAPAPAVCLordSkillComponentExecutable@@QBDQAPAV1@II@Z ; std::_Copy_memmove_tail<CLordSkillComponentExecutable * *>
  0001b	83 c4 10	 add	 esp, 16			; 00000010H

; 4771 : }

  0001e	5d		 pop	 ebp
  0001f	c3		 ret	 0
??$_Copy_memmove@PAPAVCLordSkillComponentExecutable@@PAPAV1@@std@@YAPAPAVCLordSkillComponentExecutable@@PAPAV1@00@Z ENDP ; std::_Copy_memmove<CLordSkillComponentExecutable * *,CLordSkillComponentExecutable * *>
_TEXT	ENDS
; Function compile flags: /Ogtp
; File C:\Program Files\Microsoft Visual Studio\2022\Professional\VC\Tools\MSVC\14.44.35207\include\vector
; File C:\Program Files\Microsoft Visual Studio\2022\Professional\VC\Tools\MSVC\14.44.35207\include\xmemory
; File C:\Program Files\Microsoft Visual Studio\2022\Professional\VC\Tools\MSVC\14.44.35207\include\vector
; File C:\Program Files\Microsoft Visual Studio\2022\Professional\VC\Tools\MSVC\14.44.35207\include\xmemory
; File C:\Program Files\Microsoft Visual Studio\2022\Professional\VC\Tools\MSVC\14.44.35207\include\vector
; File C:\Program Files\Microsoft Visual Studio\2022\Professional\VC\Tools\MSVC\14.44.35207\include\xmemory
; File C:\Program Files\Microsoft Visual Studio\2022\Professional\VC\Tools\MSVC\14.44.35207\include\vector
; File C:\Program Files\Microsoft Visual Studio\2022\Professional\VC\Tools\MSVC\14.44.35207\include\xmemory
; File C:\Program Files\Microsoft Visual Studio\2022\Professional\VC\Tools\MSVC\14.44.35207\include\vector
; File C:\Program Files\Microsoft Visual Studio\2022\Professional\VC\Tools\MSVC\14.44.35207\include\xmemory
; File C:\Program Files\Microsoft Visual Studio\2022\Professional\VC\Tools\MSVC\14.44.35207\include\vector
; File C:\Program Files\Microsoft Visual Studio\2022\Professional\VC\Tools\MSVC\14.44.35207\include\xmemory
; File C:\Program Files\Microsoft Visual Studio\2022\Professional\VC\Tools\MSVC\14.44.35207\include\vector
; File C:\Program Files\Microsoft Visual Studio\2022\Professional\VC\Tools\MSVC\14.44.35207\include\xmemory
; File C:\Program Files\Microsoft Visual Studio\2022\Professional\VC\Tools\MSVC\14.44.35207\include\vector
; File C:\Program Files\Microsoft Visual Studio\2022\Professional\VC\Tools\MSVC\14.44.35207\include\xmemory
; File C:\Program Files\Microsoft Visual Studio\2022\Professional\VC\Tools\MSVC\14.44.35207\include\vector
;	COMDAT ??$_Emplace_reallocate@ABQAVCLordSkillComponentExecutable@@@?$vector@PAVCLordSkillComponentExecutable@@V?$allocator@PAVCLordSkillComponentExecutable@@@std@@@std@@AAEPAPAVCLordSkillComponentExecutable@@QAPAV2@ABQAV2@@Z
_TEXT	SEGMENT
__Newsize$1$ = -12					; size = 4
tv652 = -8						; size = 4
tv650 = -4						; size = 4
__Whereptr$ = 8						; size = 4
_<_Val_0>$ = 12						; size = 4
??$_Emplace_reallocate@ABQAVCLordSkillComponentExecutable@@@?$vector@PAVCLordSkillComponentExecutable@@V?$allocator@PAVCLordSkillComponentExecutable@@@std@@@std@@AAEPAPAVCLordSkillComponentExecutable@@QAPAV2@ABQAV2@@Z PROC ; std::vector<CLordSkillComponentExecutable *,std::allocator<CLordSkillComponentExecutable *> >::_Emplace_reallocate<CLordSkillComponentExecutable * const &>, COMDAT
; _this$ = ecx

; 875  :     _CONSTEXPR20 pointer _Emplace_reallocate(const pointer _Whereptr, _Valty&&... _Val) {

  00000	55		 push	 ebp
  00001	8b ec		 mov	 ebp, esp
  00003	83 ec 0c	 sub	 esp, 12			; 0000000cH
  00006	53		 push	 ebx

; 876  :         // reallocate and insert by perfectly forwarding _Val at _Whereptr
; 877  :         _Alty& _Al        = _Getal();
; 878  :         auto& _My_data    = _Mypair._Myval2;
; 879  :         pointer& _Myfirst = _My_data._Myfirst;
; 880  :         pointer& _Mylast  = _My_data._Mylast;
; 881  : 
; 882  :         _STL_INTERNAL_CHECK(_Mylast == _My_data._Myend); // check that we have no unused capacity
; 883  : 
; 884  :         const auto _Whereoff = static_cast<size_type>(_Whereptr - _Myfirst);

  00007	8b 5d 08	 mov	 ebx, DWORD PTR __Whereptr$[ebp]
  0000a	56		 push	 esi
  0000b	8b f1		 mov	 esi, ecx
  0000d	57		 push	 edi
  0000e	8b 0e		 mov	 ecx, DWORD PTR [esi]
  00010	2b d9		 sub	 ebx, ecx

; 885  :         const auto _Oldsize  = static_cast<size_type>(_Mylast - _Myfirst);

  00012	8b 46 04	 mov	 eax, DWORD PTR [esi+4]
  00015	2b c1		 sub	 eax, ecx
  00017	c1 fb 02	 sar	 ebx, 2
  0001a	c1 f8 02	 sar	 eax, 2

; 886  : 
; 887  :         if (_Oldsize == max_size()) {

  0001d	3d ff ff ff 3f	 cmp	 eax, 1073741823		; 3fffffffH
  00022	0f 84 13 01 00
	00		 je	 $LN111@Emplace_re

; 1924 :         return static_cast<size_type>(_My_data._Myend - _My_data._Myfirst);

  00028	8b 56 08	 mov	 edx, DWORD PTR [esi+8]

; 889  :         }
; 890  : 
; 891  :         const size_type _Newsize = _Oldsize + 1;

  0002b	8d 78 01	 lea	 edi, DWORD PTR [eax+1]

; 1924 :         return static_cast<size_type>(_My_data._Myend - _My_data._Myfirst);

  0002e	2b d1		 sub	 edx, ecx

; 889  :         }
; 890  : 
; 891  :         const size_type _Newsize = _Oldsize + 1;

  00030	89 7d f4	 mov	 DWORD PTR __Newsize$1$[ebp], edi

; 1924 :         return static_cast<size_type>(_My_data._Myend - _My_data._Myfirst);

  00033	c1 fa 02	 sar	 edx, 2

; 2011 :         if (_Oldcapacity > _Max - _Oldcapacity / 2) {

  00036	b8 ff ff ff 3f	 mov	 eax, 1073741823		; 3fffffffH
  0003b	8b ca		 mov	 ecx, edx
  0003d	d1 e9		 shr	 ecx, 1
  0003f	2b c1		 sub	 eax, ecx
  00041	3b d0		 cmp	 edx, eax
  00043	76 14		 jbe	 SHORT $LN8@Emplace_re

; 2012 :             return _Max; // geometric growth would overflow

  00045	b8 fc ff ff ff	 mov	 eax, -4			; fffffffcH
  0004a	c7 45 f8 fc ff
	ff ff		 mov	 DWORD PTR tv652[ebp], -4 ; fffffffcH
; File C:\Program Files\Microsoft Visual Studio\2022\Professional\VC\Tools\MSVC\14.44.35207\include\xmemory

; 253  :             return _Allocate_manually_vector_aligned<_Traits>(_Bytes);

  00051	50		 push	 eax
  00052	e8 00 00 00 00	 call	 ??$_Allocate_manually_vector_aligned@U_Default_allocate_traits@std@@@std@@YAPAXI@Z ; std::_Allocate_manually_vector_aligned<std::_Default_allocate_traits>
  00057	eb 3d		 jmp	 SHORT $LN109@Emplace_re
$LN8@Emplace_re:
; File C:\Program Files\Microsoft Visual Studio\2022\Professional\VC\Tools\MSVC\14.44.35207\include\vector

; 2015 :         const size_type _Geometric = _Oldcapacity + _Oldcapacity / 2;

  00059	8d 04 11	 lea	 eax, DWORD PTR [ecx+edx]
; File C:\Program Files\Microsoft Visual Studio\2022\Professional\VC\Tools\MSVC\14.44.35207\include\xmemory

; 117  :         if (_Count > _Max_possible) {

  0005c	8b cf		 mov	 ecx, edi
  0005e	3b c7		 cmp	 eax, edi
  00060	0f 43 c8	 cmovae	 ecx, eax
  00063	81 f9 ff ff ff
	3f		 cmp	 ecx, 1073741823		; 3fffffffH
  00069	0f 87 d1 00 00
	00		 ja	 $LN112@Emplace_re

; 119  :         }
; 120  :     }
; 121  : 
; 122  :     return _Count * _Ty_size;

  0006f	8d 04 8d 00 00
	00 00		 lea	 eax, DWORD PTR [ecx*4]
  00076	89 45 f8	 mov	 DWORD PTR tv652[ebp], eax

; 227  :     if (_Bytes == 0) {

  00079	85 c0		 test	 eax, eax
  0007b	75 04		 jne	 SHORT $LN23@Emplace_re

; 228  :         return nullptr;

  0007d	33 ff		 xor	 edi, edi
  0007f	eb 1a		 jmp	 SHORT $LN22@Emplace_re
$LN23@Emplace_re:

; 229  :     }
; 230  : 
; 231  : #if _HAS_CXX20 // TRANSITION, GH-1532
; 232  :     if (_STD is_constant_evaluated()) {
; 233  :         return _Traits::_Allocate(_Bytes);
; 234  :     }
; 235  : #endif // _HAS_CXX20
; 236  : 
; 237  : #ifdef __cpp_aligned_new
; 238  :     if constexpr (_Align > __STDCPP_DEFAULT_NEW_ALIGNMENT__) {
; 239  :         size_t _Passed_align = _Align;
; 240  : #if defined(_M_IX86) || defined(_M_X64)
; 241  :         if (_Bytes >= _Big_allocation_threshold) {
; 242  :             // boost the alignment of big allocations to help autovectorization
; 243  :             _Passed_align = (_STD max)(_Align, _Big_allocation_alignment);
; 244  :         }
; 245  : #endif // defined(_M_IX86) || defined(_M_X64)
; 246  :         return _Traits::_Allocate_aligned(_Bytes, _Passed_align);
; 247  :     } else
; 248  : #endif // defined(__cpp_aligned_new)
; 249  :     {
; 250  : #if defined(_M_IX86) || defined(_M_X64)
; 251  :         if (_Bytes >= _Big_allocation_threshold) {

  00081	3d 00 10 00 00	 cmp	 eax, 4096		; 00001000H
  00086	72 08		 jb	 SHORT $LN24@Emplace_re

; 253  :             return _Allocate_manually_vector_aligned<_Traits>(_Bytes);

  00088	50		 push	 eax
  00089	e8 00 00 00 00	 call	 ??$_Allocate_manually_vector_aligned@U_Default_allocate_traits@std@@@std@@YAPAXI@Z ; std::_Allocate_manually_vector_aligned<std::_Default_allocate_traits>
  0008e	eb 06		 jmp	 SHORT $LN109@Emplace_re
$LN24@Emplace_re:

; 136  :         return ::operator new(_Bytes);

  00090	50		 push	 eax
  00091	e8 00 00 00 00	 call	 ??2@YAPAXI@Z		; operator new
$LN109@Emplace_re:
; File C:\Program Files\Microsoft Visual Studio\2022\Professional\VC\Tools\MSVC\14.44.35207\include\vector

; 900  :         _Alty_traits::construct(_Al, _STD _Unfancy(_Newvec + _Whereoff), _STD forward<_Valty>(_Val)...);

  00096	8b f8		 mov	 edi, eax
  00098	83 c4 04	 add	 esp, 4
$LN22@Emplace_re:
  0009b	8b 45 0c	 mov	 eax, DWORD PTR _<_Val_0>$[ebp]
  0009e	8d 0c 9f	 lea	 ecx, DWORD PTR [edi+ebx*4]

; 901  :         _Constructed_first = _Newvec + _Whereoff;
; 902  : 
; 903  :         if (_Whereptr == _Mylast) { // at back, provide strong guarantee

  000a1	8b 5d 08	 mov	 ebx, DWORD PTR __Whereptr$[ebp]
  000a4	89 4d fc	 mov	 DWORD PTR tv650[ebp], ecx
  000a7	8b 00		 mov	 eax, DWORD PTR [eax]
  000a9	89 01		 mov	 DWORD PTR [ecx], eax
  000ab	8b 46 04	 mov	 eax, DWORD PTR [esi+4]
  000ae	8b 0e		 mov	 ecx, DWORD PTR [esi]
  000b0	3b d8		 cmp	 ebx, eax
  000b2	75 07		 jne	 SHORT $LN3@Emplace_re

; 909  :         } else { // provide basic guarantee

  000b4	8b 5d fc	 mov	 ebx, DWORD PTR tv650[ebp]
; File C:\Program Files\Microsoft Visual Studio\2022\Professional\VC\Tools\MSVC\14.44.35207\include\xmemory

; 1992 :             _STD _Copy_memmove(_UFirst, _ULast, _STD _Unfancy(_Dest));

  000b7	8b d7		 mov	 edx, edi
; File C:\Program Files\Microsoft Visual Studio\2022\Professional\VC\Tools\MSVC\14.44.35207\include\vector

; 909  :         } else { // provide basic guarantee

  000b9	eb 16		 jmp	 SHORT $LN52@Emplace_re
$LN3@Emplace_re:
; File C:\Program Files\Microsoft Visual Studio\2022\Professional\VC\Tools\MSVC\14.44.35207\include\xmemory

; 1992 :             _STD _Copy_memmove(_UFirst, _ULast, _STD _Unfancy(_Dest));

  000bb	57		 push	 edi
  000bc	53		 push	 ebx
  000bd	51		 push	 ecx
  000be	e8 00 00 00 00	 call	 ??$_Copy_memmove@PAPAVCLordSkillComponentExecutable@@PAPAV1@@std@@YAPAPAVCLordSkillComponentExecutable@@PAPAV1@00@Z ; std::_Copy_memmove<CLordSkillComponentExecutable * *,CLordSkillComponentExecutable * *>
  000c3	8b 46 04	 mov	 eax, DWORD PTR [esi+4]
  000c6	8b cb		 mov	 ecx, ebx
; File C:\Program Files\Microsoft Visual Studio\2022\Professional\VC\Tools\MSVC\14.44.35207\include\vector

; 912  :             _STD _Uninitialized_move(_Whereptr, _Mylast, _Newvec + _Whereoff + 1, _Al);

  000c8	8b 5d fc	 mov	 ebx, DWORD PTR tv650[ebp]
; File C:\Program Files\Microsoft Visual Studio\2022\Professional\VC\Tools\MSVC\14.44.35207\include\xmemory

; 1992 :             _STD _Copy_memmove(_UFirst, _ULast, _STD _Unfancy(_Dest));

  000cb	83 c4 0c	 add	 esp, 12			; 0000000cH
; File C:\Program Files\Microsoft Visual Studio\2022\Professional\VC\Tools\MSVC\14.44.35207\include\vector

; 912  :             _STD _Uninitialized_move(_Whereptr, _Mylast, _Newvec + _Whereoff + 1, _Al);

  000ce	8d 53 04	 lea	 edx, DWORD PTR [ebx+4]
$LN52@Emplace_re:

; 913  :         }
; 914  : 
; 915  :         _Guard._New_begin = nullptr;

  000d1	52		 push	 edx
  000d2	50		 push	 eax
  000d3	51		 push	 ecx
  000d4	e8 00 00 00 00	 call	 ??$_Copy_memmove@PAPAVCLordSkillComponentExecutable@@PAPAV1@@std@@YAPAPAVCLordSkillComponentExecutable@@PAPAV1@00@Z ; std::_Copy_memmove<CLordSkillComponentExecutable * *,CLordSkillComponentExecutable * *>

; 2069 :         if (_Myfirst) { // destroy and deallocate old array

  000d9	8b 06		 mov	 eax, DWORD PTR [esi]

; 913  :         }
; 914  : 
; 915  :         _Guard._New_begin = nullptr;

  000db	83 c4 0c	 add	 esp, 12			; 0000000cH

; 2069 :         if (_Myfirst) { // destroy and deallocate old array

  000de	85 c0		 test	 eax, eax
  000e0	74 2c		 je	 SHORT $LN72@Emplace_re

; 2070 :             _STD _Destroy_range(_Myfirst, _Mylast, _Al);
; 2071 :             _ASAN_VECTOR_REMOVE;
; 2072 :             _Al.deallocate(_Myfirst, static_cast<size_type>(_Myend - _Myfirst));

  000e2	8b 4e 08	 mov	 ecx, DWORD PTR [esi+8]
  000e5	2b c8		 sub	 ecx, eax
; File C:\Program Files\Microsoft Visual Studio\2022\Professional\VC\Tools\MSVC\14.44.35207\include\xmemory

; 985  :         _STD _Deallocate<_New_alignof<_Ty>>(_Ptr, sizeof(_Ty) * _Count);

  000e7	83 e1 fc	 and	 ecx, -4			; fffffffcH

; 284  :         if (_Bytes >= _Big_allocation_threshold) {

  000ea	81 f9 00 10 00
	00		 cmp	 ecx, 4096		; 00001000H
  000f0	72 12		 jb	 SHORT $LN77@Emplace_re

; 205  :     const uintptr_t _Ptr_container   = _Ptr_user[-1];

  000f2	8b 50 fc	 mov	 edx, DWORD PTR [eax-4]
  000f5	83 c1 23	 add	 ecx, 35			; 00000023H

; 206  : 
; 207  :     // If the following asserts, it likely means that we are performing
; 208  :     // an aligned delete on memory coming from an unaligned allocation.
; 209  :     _STL_ASSERT(_Ptr_user[-2] == _Big_allocation_sentinel, "invalid argument");
; 210  : 
; 211  :     // Extra paranoia on aligned allocation/deallocation; ensure _Ptr_container is
; 212  :     // in range [_Min_back_shift, _Non_user_size]
; 213  : #ifdef _DEBUG
; 214  :     constexpr uintptr_t _Min_back_shift = 2 * sizeof(void*);
; 215  : #else // ^^^ defined(_DEBUG) / !defined(_DEBUG) vvv
; 216  :     constexpr uintptr_t _Min_back_shift = sizeof(void*);
; 217  : #endif // ^^^ !defined(_DEBUG) ^^^
; 218  :     const uintptr_t _Back_shift = reinterpret_cast<uintptr_t>(_Ptr) - _Ptr_container;

  000f8	2b c2		 sub	 eax, edx

; 219  :     _STL_VERIFY(_Back_shift >= _Min_back_shift && _Back_shift <= _Non_user_size, "invalid argument");

  000fa	83 c0 fc	 add	 eax, -4			; fffffffcH
  000fd	83 f8 1f	 cmp	 eax, 31			; 0000001fH
  00100	77 2a		 ja	 SHORT $LN76@Emplace_re

; 220  :     _Ptr = reinterpret_cast<void*>(_Ptr_container);

  00102	8b c2		 mov	 eax, edx
$LN77@Emplace_re:

; 289  :         ::operator delete(_Ptr, _Bytes);

  00104	51		 push	 ecx
  00105	50		 push	 eax
  00106	e8 00 00 00 00	 call	 ??3@YAXPAXI@Z		; operator delete
  0010b	83 c4 08	 add	 esp, 8
$LN72@Emplace_re:
; File C:\Program Files\Microsoft Visual Studio\2022\Professional\VC\Tools\MSVC\14.44.35207\include\vector

; 2076 :         _Mylast  = _Newvec + _Newsize;

  0010e	8b 45 f4	 mov	 eax, DWORD PTR __Newsize$1$[ebp]
  00111	89 3e		 mov	 DWORD PTR [esi], edi
  00113	8d 0c 87	 lea	 ecx, DWORD PTR [edi+eax*4]

; 916  :         _Change_array(_Newvec, _Newsize, _Newcapacity);
; 917  :         return _Newvec + _Whereoff;

  00116	8b c3		 mov	 eax, ebx

; 2076 :         _Mylast  = _Newvec + _Newsize;

  00118	89 4e 04	 mov	 DWORD PTR [esi+4], ecx

; 2077 :         _Myend   = _Newvec + _Newcapacity;

  0011b	8b 4d f8	 mov	 ecx, DWORD PTR tv652[ebp]
  0011e	03 cf		 add	 ecx, edi

; 918  :     }

  00120	5f		 pop	 edi

; 2077 :         _Myend   = _Newvec + _Newcapacity;

  00121	89 4e 08	 mov	 DWORD PTR [esi+8], ecx

; 918  :     }

  00124	5e		 pop	 esi
  00125	5b		 pop	 ebx
  00126	8b e5		 mov	 esp, ebp
  00128	5d		 pop	 ebp
  00129	c2 08 00	 ret	 8
$LN76@Emplace_re:
; File C:\Program Files\Microsoft Visual Studio\2022\Professional\VC\Tools\MSVC\14.44.35207\include\xmemory

; 219  :     _STL_VERIFY(_Back_shift >= _Min_back_shift && _Back_shift <= _Non_user_size, "invalid argument");

  0012c	6a 00		 push	 0
  0012e	6a 00		 push	 0
  00130	6a 00		 push	 0
  00132	6a 00		 push	 0
  00134	6a 00		 push	 0
  00136	e8 00 00 00 00	 call	 __invoke_watson
$LN111@Emplace_re:
; File C:\Program Files\Microsoft Visual Studio\2022\Professional\VC\Tools\MSVC\14.44.35207\include\vector

; 888  :             _Xlength();

  0013b	e8 00 00 00 00	 call	 ?_Xlength@?$vector@PAVCLordSkillComponentExecutable@@V?$allocator@PAVCLordSkillComponentExecutable@@@std@@@std@@CAXXZ ; std::vector<CLordSkillComponentExecutable *,std::allocator<CLordSkillComponentExecutable *> >::_Xlength
$LN112@Emplace_re:
; File C:\Program Files\Microsoft Visual Studio\2022\Professional\VC\Tools\MSVC\14.44.35207\include\xmemory

; 118  :             _Throw_bad_array_new_length(); // multiply overflow

  00140	e8 00 00 00 00	 call	 ?_Throw_bad_array_new_length@std@@YAXXZ ; std::_Throw_bad_array_new_length
$LN108@Emplace_re:
  00145	cc		 int	 3
??$_Emplace_reallocate@ABQAVCLordSkillComponentExecutable@@@?$vector@PAVCLordSkillComponentExecutable@@V?$allocator@PAVCLordSkillComponentExecutable@@@std@@@std@@AAEPAPAVCLordSkillComponentExecutable@@QAPAV2@ABQAV2@@Z ENDP ; std::vector<CLordSkillComponentExecutable *,std::allocator<CLordSkillComponentExecutable *> >::_Emplace_reallocate<CLordSkillComponentExecutable * const &>
_TEXT	ENDS
; Function compile flags: /Ogtp
; File C:\IAGOS\server\v18\Source\Source\_Network\Misc\Include\Ar.h
;	COMDAT ??$?5H@CAr@@QAEAAV0@AAH@Z
_TEXT	SEGMENT
_t$ = 8							; size = 4
??$?5H@CAr@@QAEAAV0@AAH@Z PROC				; CAr::operator>><int>, COMDAT
; _this$ = ecx

; 302  : {

  00000	55		 push	 ebp
  00001	8b ec		 mov	 ebp, esp
  00003	8b d1		 mov	 edx, ecx

; 303  : 	if (m_lpBufCur + sizeof(T) <= m_lpBufMax)

  00005	8b 4a 08	 mov	 ecx, DWORD PTR [edx+8]
  00008	8d 41 04	 lea	 eax, DWORD PTR [ecx+4]
  0000b	3b 42 0c	 cmp	 eax, DWORD PTR [edx+12]
  0000e	8b 45 08	 mov	 eax, DWORD PTR _t$[ebp]
  00011	77 0e		 ja	 SHORT $LN2@operator

; 304  : 	{
; 305  : 		t = *(UNALIGNED T*)m_lpBufCur;

  00013	8b 09		 mov	 ecx, DWORD PTR [ecx]
  00015	89 08		 mov	 DWORD PTR [eax], ecx

; 312  : 	}
; 313  : 	return *this;
; 314  : }

  00017	8b c2		 mov	 eax, edx
  00019	83 42 08 04	 add	 DWORD PTR [edx+8], 4
  0001d	5d		 pop	 ebp
  0001e	c2 04 00	 ret	 4
$LN2@operator:

; 306  : 		m_lpBufCur += sizeof(T);
; 307  : 	}
; 308  : 	else
; 309  : 	{
; 310  : 		t = T();

  00021	c7 00 00 00 00
	00		 mov	 DWORD PTR [eax], 0

; 311  : 		m_lpBufCur = m_lpBufMax;

  00027	8b 42 0c	 mov	 eax, DWORD PTR [edx+12]
  0002a	89 42 08	 mov	 DWORD PTR [edx+8], eax

; 312  : 	}
; 313  : 	return *this;
; 314  : }

  0002d	8b c2		 mov	 eax, edx
  0002f	5d		 pop	 ebp
  00030	c2 04 00	 ret	 4
??$?5H@CAr@@QAEAAV0@AAH@Z ENDP				; CAr::operator>><int>
_TEXT	ENDS
; Function compile flags: /Ogtp
; File C:\IAGOS\server\v18\Source\Source\_Network\Misc\Include\Ar.h
;	COMDAT ??$?5I@CAr@@QAEAAV0@AAI@Z
_TEXT	SEGMENT
_t$ = 8							; size = 4
??$?5I@CAr@@QAEAAV0@AAI@Z PROC				; CAr::operator>><unsigned int>, COMDAT
; _this$ = ecx

; 302  : {

  00000	55		 push	 ebp
  00001	8b ec		 mov	 ebp, esp
  00003	8b d1		 mov	 edx, ecx

; 303  : 	if (m_lpBufCur + sizeof(T) <= m_lpBufMax)

  00005	8b 4a 08	 mov	 ecx, DWORD PTR [edx+8]
  00008	8d 41 04	 lea	 eax, DWORD PTR [ecx+4]
  0000b	3b 42 0c	 cmp	 eax, DWORD PTR [edx+12]
  0000e	8b 45 08	 mov	 eax, DWORD PTR _t$[ebp]
  00011	77 0e		 ja	 SHORT $LN2@operator

; 304  : 	{
; 305  : 		t = *(UNALIGNED T*)m_lpBufCur;

  00013	8b 09		 mov	 ecx, DWORD PTR [ecx]
  00015	89 08		 mov	 DWORD PTR [eax], ecx

; 312  : 	}
; 313  : 	return *this;
; 314  : }

  00017	8b c2		 mov	 eax, edx
  00019	83 42 08 04	 add	 DWORD PTR [edx+8], 4
  0001d	5d		 pop	 ebp
  0001e	c2 04 00	 ret	 4
$LN2@operator:

; 306  : 		m_lpBufCur += sizeof(T);
; 307  : 	}
; 308  : 	else
; 309  : 	{
; 310  : 		t = T();

  00021	c7 00 00 00 00
	00		 mov	 DWORD PTR [eax], 0

; 311  : 		m_lpBufCur = m_lpBufMax;

  00027	8b 42 0c	 mov	 eax, DWORD PTR [edx+12]
  0002a	89 42 08	 mov	 DWORD PTR [edx+8], eax

; 312  : 	}
; 313  : 	return *this;
; 314  : }

  0002d	8b c2		 mov	 eax, edx
  0002f	5d		 pop	 ebp
  00030	c2 04 00	 ret	 4
??$?5I@CAr@@QAEAAV0@AAI@Z ENDP				; CAr::operator>><unsigned int>
_TEXT	ENDS
; Function compile flags: /Ogtp
; File C:\IAGOS\server\v18\Source\Source\_Network\Misc\Include\Ar.h
;	COMDAT ??$?6H@CAr@@QAEAAV0@ABH@Z
_TEXT	SEGMENT
_t$ = 8							; size = 4
??$?6H@CAr@@QAEAAV0@ABH@Z PROC				; CAr::operator<<<int>, COMDAT
; _this$ = ecx

; 255  : {

  00000	55		 push	 ebp
  00001	8b ec		 mov	 ebp, esp
  00003	56		 push	 esi

; 256  : 	CheckBuf(sizeof(T));

  00004	6a 04		 push	 4
  00006	8b f1		 mov	 esi, ecx
  00008	e8 00 00 00 00	 call	 ?CheckBuf@CAr@@QAEXI@Z	; CAr::CheckBuf

; 257  : 	*(UNALIGNED T*)m_lpBufCur = t;

  0000d	8b 56 08	 mov	 edx, DWORD PTR [esi+8]
  00010	8b 45 08	 mov	 eax, DWORD PTR _t$[ebp]
  00013	8b 00		 mov	 eax, DWORD PTR [eax]
  00015	89 02		 mov	 DWORD PTR [edx], eax

; 258  : 	m_lpBufCur += sizeof(T);
; 259  : 	return *this;

  00017	8b c6		 mov	 eax, esi
  00019	83 46 08 04	 add	 DWORD PTR [esi+8], 4
  0001d	5e		 pop	 esi

; 260  : }

  0001e	5d		 pop	 ebp
  0001f	c2 04 00	 ret	 4
??$?6H@CAr@@QAEAAV0@ABH@Z ENDP				; CAr::operator<<<int>
_TEXT	ENDS
; Function compile flags: /Ogtp
; File C:\IAGOS\server\v18\Source\Source\_Network\Misc\Include\Ar.h
;	COMDAT ??$?6I@CAr@@QAEAAV0@ABI@Z
_TEXT	SEGMENT
_t$ = 8							; size = 4
??$?6I@CAr@@QAEAAV0@ABI@Z PROC				; CAr::operator<<<unsigned int>, COMDAT
; _this$ = ecx

; 255  : {

  00000	55		 push	 ebp
  00001	8b ec		 mov	 ebp, esp
  00003	56		 push	 esi

; 256  : 	CheckBuf(sizeof(T));

  00004	6a 04		 push	 4
  00006	8b f1		 mov	 esi, ecx
  00008	e8 00 00 00 00	 call	 ?CheckBuf@CAr@@QAEXI@Z	; CAr::CheckBuf

; 257  : 	*(UNALIGNED T*)m_lpBufCur = t;

  0000d	8b 56 08	 mov	 edx, DWORD PTR [esi+8]
  00010	8b 45 08	 mov	 eax, DWORD PTR _t$[ebp]
  00013	8b 00		 mov	 eax, DWORD PTR [eax]
  00015	89 02		 mov	 DWORD PTR [edx], eax

; 258  : 	m_lpBufCur += sizeof(T);
; 259  : 	return *this;

  00017	8b c6		 mov	 eax, esi
  00019	83 46 08 04	 add	 DWORD PTR [esi+8], 4
  0001d	5e		 pop	 esi

; 260  : }

  0001e	5d		 pop	 ebp
  0001f	c2 04 00	 ret	 4
??$?6I@CAr@@QAEAAV0@ABI@Z ENDP				; CAr::operator<<<unsigned int>
_TEXT	ENDS
; Function compile flags: /Ogtp
;	COMDAT ??_GCLordSkill@@UAEPAXI@Z
_TEXT	SEGMENT
___flags$ = 8						; size = 4
??_GCLordSkill@@UAEPAXI@Z PROC				; CLordSkill::`scalar deleting destructor', COMDAT
; _this$ = ecx
  00000	55		 push	 ebp
  00001	8b ec		 mov	 ebp, esp
  00003	56		 push	 esi
  00004	8b f1		 mov	 esi, ecx
  00006	e8 00 00 00 00	 call	 ??1CLordSkill@@UAE@XZ	; CLordSkill::~CLordSkill
  0000b	f6 45 08 01	 test	 BYTE PTR ___flags$[ebp], 1
  0000f	74 0b		 je	 SHORT $LN5@scalar
  00011	6a 14		 push	 20			; 00000014H
  00013	56		 push	 esi
  00014	e8 00 00 00 00	 call	 ??3@YAXPAXI@Z		; operator delete
  00019	83 c4 08	 add	 esp, 8
$LN5@scalar:
  0001c	8b c6		 mov	 eax, esi
  0001e	5e		 pop	 esi
  0001f	5d		 pop	 ebp
  00020	c2 04 00	 ret	 4
??_GCLordSkill@@UAEPAXI@Z ENDP				; CLordSkill::`scalar deleting destructor'
_TEXT	ENDS
; Function compile flags: /Ogtp
; File C:\Program Files\Microsoft Visual Studio\2022\Professional\VC\Tools\MSVC\14.44.35207\include\vector
;	COMDAT ?_Xlength@?$vector@PAVCLordSkillComponentExecutable@@V?$allocator@PAVCLordSkillComponentExecutable@@@std@@@std@@CAXXZ
_TEXT	SEGMENT
?_Xlength@?$vector@PAVCLordSkillComponentExecutable@@V?$allocator@PAVCLordSkillComponentExecutable@@@std@@@std@@CAXXZ PROC ; std::vector<CLordSkillComponentExecutable *,std::allocator<CLordSkillComponentExecutable *> >::_Xlength, COMDAT

; 2184 :         _Xlength_error("vector too long");

  00000	68 00 00 00 00	 push	 OFFSET ??_C@_0BA@FOIKENOD@vector?5too?5long@
  00005	e8 00 00 00 00	 call	 ?_Xlength_error@std@@YAXPBD@Z ; std::_Xlength_error
$LN3@Xlength:
  0000a	cc		 int	 3
?_Xlength@?$vector@PAVCLordSkillComponentExecutable@@V?$allocator@PAVCLordSkillComponentExecutable@@@std@@@std@@CAXXZ ENDP ; std::vector<CLordSkillComponentExecutable *,std::allocator<CLordSkillComponentExecutable *> >::_Xlength
_TEXT	ENDS
; Function compile flags: /Ogtp
; File C:\Program Files\Microsoft Visual Studio\2022\Professional\VC\Tools\MSVC\14.44.35207\include\vector
; File C:\Program Files\Microsoft Visual Studio\2022\Professional\VC\Tools\MSVC\14.44.35207\include\xmemory
; File C:\Program Files\Microsoft Visual Studio\2022\Professional\VC\Tools\MSVC\14.44.35207\include\vector
; File C:\Program Files\Microsoft Visual Studio\2022\Professional\VC\Tools\MSVC\14.44.35207\include\xmemory
; File C:\Program Files\Microsoft Visual Studio\2022\Professional\VC\Tools\MSVC\14.44.35207\include\vector
; File C:\Program Files\Microsoft Visual Studio\2022\Professional\VC\Tools\MSVC\14.44.35207\include\xmemory
; File C:\Program Files\Microsoft Visual Studio\2022\Professional\VC\Tools\MSVC\14.44.35207\include\vector
;	COMDAT ??1?$vector@PAVCLordSkillComponentExecutable@@V?$allocator@PAVCLordSkillComponentExecutable@@@std@@@std@@QAE@XZ
_TEXT	SEGMENT
??1?$vector@PAVCLordSkillComponentExecutable@@V?$allocator@PAVCLordSkillComponentExecutable@@@std@@@std@@QAE@XZ PROC ; std::vector<CLordSkillComponentExecutable *,std::allocator<CLordSkillComponentExecutable *> >::~vector<CLordSkillComponentExecutable *,std::allocator<CLordSkillComponentExecutable *> >, COMDAT
; _this$ = ecx

; 829  :     _CONSTEXPR20 ~vector() noexcept {

  00000	56		 push	 esi
  00001	8b f1		 mov	 esi, ecx

; 2090 :         if (_Myfirst) { // destroy and deallocate old array

  00003	8b 06		 mov	 eax, DWORD PTR [esi]
  00005	85 c0		 test	 eax, eax
  00007	74 40		 je	 SHORT $LN5@vector

; 2091 :             _STD _Destroy_range(_Myfirst, _Mylast, _Al);
; 2092 :             _ASAN_VECTOR_REMOVE;
; 2093 :             _Al.deallocate(_Myfirst, static_cast<size_type>(_Myend - _Myfirst));

  00009	8b 4e 08	 mov	 ecx, DWORD PTR [esi+8]
  0000c	2b c8		 sub	 ecx, eax
; File C:\Program Files\Microsoft Visual Studio\2022\Professional\VC\Tools\MSVC\14.44.35207\include\xmemory

; 985  :         _STD _Deallocate<_New_alignof<_Ty>>(_Ptr, sizeof(_Ty) * _Count);

  0000e	83 e1 fc	 and	 ecx, -4			; fffffffcH

; 284  :         if (_Bytes >= _Big_allocation_threshold) {

  00011	81 f9 00 10 00
	00		 cmp	 ecx, 4096		; 00001000H
  00017	72 12		 jb	 SHORT $LN18@vector

; 205  :     const uintptr_t _Ptr_container   = _Ptr_user[-1];

  00019	8b 50 fc	 mov	 edx, DWORD PTR [eax-4]
  0001c	83 c1 23	 add	 ecx, 35			; 00000023H

; 206  : 
; 207  :     // If the following asserts, it likely means that we are performing
; 208  :     // an aligned delete on memory coming from an unaligned allocation.
; 209  :     _STL_ASSERT(_Ptr_user[-2] == _Big_allocation_sentinel, "invalid argument");
; 210  : 
; 211  :     // Extra paranoia on aligned allocation/deallocation; ensure _Ptr_container is
; 212  :     // in range [_Min_back_shift, _Non_user_size]
; 213  : #ifdef _DEBUG
; 214  :     constexpr uintptr_t _Min_back_shift = 2 * sizeof(void*);
; 215  : #else // ^^^ defined(_DEBUG) / !defined(_DEBUG) vvv
; 216  :     constexpr uintptr_t _Min_back_shift = sizeof(void*);
; 217  : #endif // ^^^ !defined(_DEBUG) ^^^
; 218  :     const uintptr_t _Back_shift = reinterpret_cast<uintptr_t>(_Ptr) - _Ptr_container;

  0001f	2b c2		 sub	 eax, edx

; 219  :     _STL_VERIFY(_Back_shift >= _Min_back_shift && _Back_shift <= _Non_user_size, "invalid argument");

  00021	83 c0 fc	 add	 eax, -4			; fffffffcH
  00024	83 f8 1f	 cmp	 eax, 31			; 0000001fH
  00027	77 22		 ja	 SHORT $LN17@vector

; 220  :     _Ptr = reinterpret_cast<void*>(_Ptr_container);

  00029	8b c2		 mov	 eax, edx
$LN18@vector:

; 289  :         ::operator delete(_Ptr, _Bytes);

  0002b	51		 push	 ecx
  0002c	50		 push	 eax
  0002d	e8 00 00 00 00	 call	 ??3@YAXPAXI@Z		; operator delete
; File C:\Program Files\Microsoft Visual Studio\2022\Professional\VC\Tools\MSVC\14.44.35207\include\vector

; 2095 :             _Myfirst = nullptr;

  00032	c7 06 00 00 00
	00		 mov	 DWORD PTR [esi], 0
; File C:\Program Files\Microsoft Visual Studio\2022\Professional\VC\Tools\MSVC\14.44.35207\include\xmemory

; 289  :         ::operator delete(_Ptr, _Bytes);

  00038	83 c4 08	 add	 esp, 8
; File C:\Program Files\Microsoft Visual Studio\2022\Professional\VC\Tools\MSVC\14.44.35207\include\vector

; 2096 :             _Mylast  = nullptr;

  0003b	c7 46 04 00 00
	00 00		 mov	 DWORD PTR [esi+4], 0

; 2097 :             _Myend   = nullptr;

  00042	c7 46 08 00 00
	00 00		 mov	 DWORD PTR [esi+8], 0
$LN5@vector:
  00049	5e		 pop	 esi

; 835  :     }

  0004a	c3		 ret	 0
$LN17@vector:
; File C:\Program Files\Microsoft Visual Studio\2022\Professional\VC\Tools\MSVC\14.44.35207\include\xmemory

; 219  :     _STL_VERIFY(_Back_shift >= _Min_back_shift && _Back_shift <= _Non_user_size, "invalid argument");

  0004b	6a 00		 push	 0
  0004d	6a 00		 push	 0
  0004f	6a 00		 push	 0
  00051	6a 00		 push	 0
  00053	6a 00		 push	 0
  00055	e8 00 00 00 00	 call	 __invoke_watson
$LN26@vector:
  0005a	cc		 int	 3
??1?$vector@PAVCLordSkillComponentExecutable@@V?$allocator@PAVCLordSkillComponentExecutable@@@std@@@std@@QAE@XZ ENDP ; std::vector<CLordSkillComponentExecutable *,std::allocator<CLordSkillComponentExecutable *> >::~vector<CLordSkillComponentExecutable *,std::allocator<CLordSkillComponentExecutable *> >
_TEXT	ENDS
; Function compile flags: /Ogtp
; File C:\IAGOS\server\v18\Source\Source\_Common\lordskill.cpp
; File C:\IAGOS\server\v18\Source\Source\_Network\Misc\Include\Ar.h
; File C:\IAGOS\server\v18\Source\Source\_Common\lordskill.cpp
; File C:\IAGOS\server\v18\Source\Source\_Network\Misc\Include\Ar.h
; File C:\IAGOS\server\v18\Source\Source\_Common\lordskill.cpp
; File C:\Program Files\Microsoft Visual Studio\2022\Professional\VC\Tools\MSVC\14.44.35207\include\vector
; File C:\IAGOS\server\v18\Source\Source\_Common\lordskill.cpp
; File C:\Program Files\Microsoft Visual Studio\2022\Professional\VC\Tools\MSVC\14.44.35207\include\vector
; File C:\IAGOS\server\v18\Source\Source\_Common\lordskill.cpp
; File C:\Program Files\Microsoft Visual Studio\2022\Professional\VC\Tools\MSVC\14.44.35207\include\vector
; File C:\IAGOS\server\v18\Source\Source\_Common\lordskill.cpp
;	COMDAT ?SerializeTick@CLordSkill@@QAEXAAVCAr@@@Z
_TEXT	SEGMENT
_nTick$1 = -4						; size = 4
_ar$ = 8						; size = 4
$T2 = 8							; size = 4
$T3 = 8							; size = 4
$T4 = 8							; size = 4
_nSize$5 = 8						; size = 4
_nSkill$6 = 8						; size = 4
?SerializeTick@CLordSkill@@QAEXAAVCAr@@@Z PROC		; CLordSkill::SerializeTick, COMDAT
; _this$ = ecx

; 158  : {

  00000	55		 push	 ebp
  00001	8b ec		 mov	 ebp, esp
  00003	51		 push	 ecx
  00004	53		 push	 ebx
  00005	56		 push	 esi
  00006	57		 push	 edi
; File C:\IAGOS\server\v18\Source\Source\_Network\Misc\Include\Ar.h

; 146  : 	return (m_nMode & CAr::load) == 0;

  00007	8b 7d 08	 mov	 edi, DWORD PTR _ar$[ebp]
; File C:\IAGOS\server\v18\Source\Source\_Common\lordskill.cpp

; 158  : {

  0000a	8b d9		 mov	 ebx, ecx

; 159  : 	if( ar.IsStoring() )

  0000c	8b cf		 mov	 ecx, edi
; File C:\IAGOS\server\v18\Source\Source\_Network\Misc\Include\Ar.h

; 146  : 	return (m_nMode & CAr::load) == 0;

  0000e	f6 07 01	 test	 BYTE PTR [edi], 1
; File C:\IAGOS\server\v18\Source\Source\_Common\lordskill.cpp

; 159  : 	if( ar.IsStoring() )

  00011	75 54		 jne	 SHORT $LN8@SerializeT
; File C:\Program Files\Microsoft Visual Studio\2022\Professional\VC\Tools\MSVC\14.44.35207\include\vector

; 1915 :         return static_cast<size_type>(_My_data._Mylast - _My_data._Myfirst);

  00013	8b 43 0c	 mov	 eax, DWORD PTR [ebx+12]
  00016	2b 43 08	 sub	 eax, DWORD PTR [ebx+8]
  00019	c1 f8 02	 sar	 eax, 2
; File C:\IAGOS\server\v18\Source\Source\_Common\lordskill.cpp

; 161  : 		ar << m_vComponents.size();

  0001c	89 45 08	 mov	 DWORD PTR $T2[ebp], eax
  0001f	8d 45 08	 lea	 eax, DWORD PTR $T2[ebp]
  00022	50		 push	 eax
  00023	e8 00 00 00 00	 call	 ??$?6I@CAr@@QAEAAV0@ABI@Z ; CAr::operator<<<unsigned int>
; File C:\Program Files\Microsoft Visual Studio\2022\Professional\VC\Tools\MSVC\14.44.35207\include\vector

; 46   :     _CONSTEXPR20 _Vector_const_iterator(_Tptr _Parg, const _Container_base* _Pvector) noexcept : _Ptr(_Parg) {

  00028	8b 73 08	 mov	 esi, DWORD PTR [ebx+8]

; 176  :         return !(*this == _Right);

  0002b	3b 73 0c	 cmp	 esi, DWORD PTR [ebx+12]
; File C:\IAGOS\server\v18\Source\Source\_Common\lordskill.cpp

; 162  : 		for( VLSC::iterator i = m_vComponents.begin(); i != m_vComponents.end(); ++i )

  0002e	74 76		 je	 SHORT $LN6@SerializeT
$LL4@SerializeT:

; 163  : 		{
; 164  : 			ar << ( *i )->GetId();

  00030	8b 06		 mov	 eax, DWORD PTR [esi]
  00032	8b cf		 mov	 ecx, edi
  00034	8b 40 04	 mov	 eax, DWORD PTR [eax+4]
  00037	89 45 08	 mov	 DWORD PTR $T3[ebp], eax
  0003a	8d 45 08	 lea	 eax, DWORD PTR $T3[ebp]
  0003d	50		 push	 eax
  0003e	e8 00 00 00 00	 call	 ??$?6H@CAr@@QAEAAV0@ABH@Z ; CAr::operator<<<int>

; 165  : 			ar << ( *i )->GetTick();

  00043	8b 06		 mov	 eax, DWORD PTR [esi]
  00045	8b cf		 mov	 ecx, edi
  00047	8b 40 0c	 mov	 eax, DWORD PTR [eax+12]
  0004a	89 45 08	 mov	 DWORD PTR $T4[ebp], eax
  0004d	8d 45 08	 lea	 eax, DWORD PTR $T4[ebp]
  00050	50		 push	 eax
  00051	e8 00 00 00 00	 call	 ??$?6H@CAr@@QAEAAV0@ABH@Z ; CAr::operator<<<int>
; File C:\Program Files\Microsoft Visual Studio\2022\Professional\VC\Tools\MSVC\14.44.35207\include\vector

; 82   :         ++_Ptr;

  00056	83 c6 04	 add	 esi, 4

; 176  :         return !(*this == _Right);

  00059	3b 73 0c	 cmp	 esi, DWORD PTR [ebx+12]
; File C:\IAGOS\server\v18\Source\Source\_Common\lordskill.cpp

; 162  : 		for( VLSC::iterator i = m_vComponents.begin(); i != m_vComponents.end(); ++i )

  0005c	75 d2		 jne	 SHORT $LL4@SerializeT

; 179  : 		}
; 180  : 	}
; 181  : }

  0005e	5f		 pop	 edi
  0005f	5e		 pop	 esi
  00060	5b		 pop	 ebx
  00061	8b e5		 mov	 esp, ebp
  00063	5d		 pop	 ebp
  00064	c2 04 00	 ret	 4
$LN8@SerializeT:

; 166  : 		}
; 167  : 	}
; 168  : 	else
; 169  : 	{
; 170  : 		size_t nSize;
; 171  : 		ar >> nSize;

  00067	8d 45 08	 lea	 eax, DWORD PTR _nSize$5[ebp]
  0006a	50		 push	 eax
  0006b	e8 00 00 00 00	 call	 ??$?5I@CAr@@QAEAAV0@AAI@Z ; CAr::operator>><unsigned int>

; 172  : 		for( size_t i = 0; i < nSize; i++ )

  00070	8b 75 08	 mov	 esi, DWORD PTR _nSize$5[ebp]
  00073	85 f6		 test	 esi, esi
  00075	74 2f		 je	 SHORT $LN6@SerializeT
$LL7@SerializeT:

; 173  : 		{
; 174  : 			int nSkill, nTick;
; 175  : 			ar >> nSkill >> nTick;

  00077	8d 45 fc	 lea	 eax, DWORD PTR _nTick$1[ebp]
  0007a	8b cf		 mov	 ecx, edi
  0007c	50		 push	 eax
  0007d	8d 45 08	 lea	 eax, DWORD PTR _nSkill$6[ebp]
  00080	50		 push	 eax
  00081	e8 00 00 00 00	 call	 ??$?5H@CAr@@QAEAAV0@AAH@Z ; CAr::operator>><int>
  00086	8b c8		 mov	 ecx, eax
  00088	e8 00 00 00 00	 call	 ??$?5H@CAr@@QAEAAV0@AAH@Z ; CAr::operator>><int>

; 176  : 			CLordSkillComponent* pSkill		= GetSkill( nSkill );

  0008d	ff 75 08	 push	 DWORD PTR _nSkill$6[ebp]
  00090	8b cb		 mov	 ecx, ebx
  00092	e8 00 00 00 00	 call	 ?GetSkill@CLordSkill@@QAEPAVCLordSkillComponentExecutable@@H@Z ; CLordSkill::GetSkill

; 177  : 			if( pSkill )

  00097	85 c0		 test	 eax, eax
  00099	74 06		 je	 SHORT $LN5@SerializeT

; 178  : 				pSkill->SetTick( nTick );

  0009b	8b 4d fc	 mov	 ecx, DWORD PTR _nTick$1[ebp]
  0009e	89 48 0c	 mov	 DWORD PTR [eax+12], ecx
$LN5@SerializeT:

; 172  : 		for( size_t i = 0; i < nSize; i++ )

  000a1	83 ee 01	 sub	 esi, 1
  000a4	75 d1		 jne	 SHORT $LL7@SerializeT
$LN6@SerializeT:
  000a6	5f		 pop	 edi

; 179  : 		}
; 180  : 	}
; 181  : }

  000a7	5e		 pop	 esi
  000a8	5b		 pop	 ebx
  000a9	8b e5		 mov	 esp, ebp
  000ab	5d		 pop	 ebp
  000ac	c2 04 00	 ret	 4
?SerializeTick@CLordSkill@@QAEXAAVCAr@@@Z ENDP		; CLordSkill::SerializeTick
_TEXT	ENDS
; Function compile flags: /Ogtp
; File C:\IAGOS\server\v18\Source\Source\_Common\lordskill.cpp
; File C:\Program Files\Microsoft Visual Studio\2022\Professional\VC\Tools\MSVC\14.44.35207\include\vector
; File C:\IAGOS\server\v18\Source\Source\_Common\lordskill.cpp
; File C:\Program Files\Microsoft Visual Studio\2022\Professional\VC\Tools\MSVC\14.44.35207\include\vector
; File C:\IAGOS\server\v18\Source\Source\_Common\lordskill.cpp
; File C:\Program Files\Microsoft Visual Studio\2022\Professional\VC\Tools\MSVC\14.44.35207\include\vector
; File C:\IAGOS\server\v18\Source\Source\_Common\lordskill.cpp
;	COMDAT ?Reset@CLordSkill@@QAEXXZ
_TEXT	SEGMENT
?Reset@CLordSkill@@QAEXXZ PROC				; CLordSkill::Reset, COMDAT
; _this$ = ecx

; 115  : {

  00000	8b d1		 mov	 edx, ecx
; File C:\Program Files\Microsoft Visual Studio\2022\Professional\VC\Tools\MSVC\14.44.35207\include\vector

; 46   :     _CONSTEXPR20 _Vector_const_iterator(_Tptr _Parg, const _Container_base* _Pvector) noexcept : _Ptr(_Parg) {

  00002	8b 42 08	 mov	 eax, DWORD PTR [edx+8]

; 176  :         return !(*this == _Right);

  00005	3b 42 0c	 cmp	 eax, DWORD PTR [edx+12]
; File C:\IAGOS\server\v18\Source\Source\_Common\lordskill.cpp

; 116  : 	for( VLSC::iterator i = m_vComponents.begin(); i != m_vComponents.end(); ++i )

  00008	74 17		 je	 SHORT $LN3@Reset
  0000a	66 0f 1f 44 00
	00		 npad	 6
$LL4@Reset:

; 117  : 		( *i )->SetTick( 0 );

  00010	8b 08		 mov	 ecx, DWORD PTR [eax]
; File C:\Program Files\Microsoft Visual Studio\2022\Professional\VC\Tools\MSVC\14.44.35207\include\vector

; 82   :         ++_Ptr;

  00012	83 c0 04	 add	 eax, 4
; File C:\IAGOS\server\v18\Source\Source\_Common\lordskill.cpp

; 117  : 		( *i )->SetTick( 0 );

  00015	c7 41 0c 00 00
	00 00		 mov	 DWORD PTR [ecx+12], 0
; File C:\Program Files\Microsoft Visual Studio\2022\Professional\VC\Tools\MSVC\14.44.35207\include\vector

; 176  :         return !(*this == _Right);

  0001c	3b 42 0c	 cmp	 eax, DWORD PTR [edx+12]
; File C:\IAGOS\server\v18\Source\Source\_Common\lordskill.cpp

; 116  : 	for( VLSC::iterator i = m_vComponents.begin(); i != m_vComponents.end(); ++i )

  0001f	75 ef		 jne	 SHORT $LL4@Reset
$LN3@Reset:

; 118  : }

  00021	c3		 ret	 0
?Reset@CLordSkill@@QAEXXZ ENDP				; CLordSkill::Reset
_TEXT	ENDS
; Function compile flags: /Ogtp
; File C:\IAGOS\server\v18\Source\Source\_Common\lordskill.cpp
;	COMDAT ?Initialize@CLordSkill@@QAEHPBD@Z
_TEXT	SEGMENT
_nCooltime$1$ = -8056					; size = 4
_nItem$1$ = -8052					; size = 4
_bPassive$1$ = -8048					; size = 4
_nTargetType$1$ = -8044					; size = 4
_dwSrcSfx$1$ = -8040					; size = 4
_fRange$2 = -8036					; size = 4
_nId$1$ = -8032						; size = 4
_this$GSCopy$1$ = -8028					; size = 4
_s$ = -8024						; size = 7784
_szDesc$3 = -240					; size = 128
_szIcon$4 = -112					; size = 64
_szName$5 = -48						; size = 32
__$ArrayPad$ = -16					; size = 4
__$EHRec$ = -12						; size = 12
_szFile$ = 8						; size = 4
?Initialize@CLordSkill@@QAEHPBD@Z PROC			; CLordSkill::Initialize, COMDAT
; _this$ = ecx

; 121  : {

  00000	55		 push	 ebp
  00001	8b ec		 mov	 ebp, esp
  00003	6a ff		 push	 -1
  00005	68 00 00 00 00	 push	 __ehhandler$?Initialize@CLordSkill@@QAEHPBD@Z
  0000a	64 a1 00 00 00
	00		 mov	 eax, DWORD PTR fs:0
  00010	50		 push	 eax
  00011	b8 6c 1f 00 00	 mov	 eax, 8044		; 00001f6cH
  00016	e8 00 00 00 00	 call	 __chkstk
  0001b	a1 00 00 00 00	 mov	 eax, DWORD PTR ___security_cookie
  00020	33 c5		 xor	 eax, ebp
  00022	89 45 f0	 mov	 DWORD PTR __$ArrayPad$[ebp], eax
  00025	56		 push	 esi
  00026	57		 push	 edi
  00027	50		 push	 eax
  00028	8d 45 f4	 lea	 eax, DWORD PTR __$EHRec$[ebp]
  0002b	64 a3 00 00 00
	00		 mov	 DWORD PTR fs:0, eax
  00031	89 8d a4 e0 ff
	ff		 mov	 DWORD PTR _this$GSCopy$1$[ebp], ecx
  00037	8b 75 08	 mov	 esi, DWORD PTR _szFile$[ebp]

; 122  : 	CScript s;

  0003a	8d 8d a8 e0 ff
	ff		 lea	 ecx, DWORD PTR _s$[ebp]
  00040	6a 00		 push	 0
  00042	e8 00 00 00 00	 call	 ??0CScript@@QAE@H@Z	; CScript::CScript

; 123  : 	if( !s.Load( szFile, FALSE ) )

  00047	6a 00		 push	 0
  00049	6a 00		 push	 0
  0004b	56		 push	 esi
  0004c	8d 8d a8 e0 ff
	ff		 lea	 ecx, DWORD PTR _s$[ebp]
  00052	c7 45 fc 00 00
	00 00		 mov	 DWORD PTR __$EHRec$[ebp+8], 0
  00059	e8 00 00 00 00	 call	 ?Load@CScript@@QAEHPBDHH@Z ; CScript::Load
  0005e	8d 8d a8 e0 ff
	ff		 lea	 ecx, DWORD PTR _s$[ebp]
  00064	85 c0		 test	 eax, eax
  00066	75 0c		 jne	 SHORT $LN4@Initialize

; 124  : 		return FALSE;

  00068	e8 00 00 00 00	 call	 ??1CScript@@UAE@XZ	; CScript::~CScript
  0006d	33 c0		 xor	 eax, eax
  0006f	e9 e4 01 00 00	 jmp	 $LN1@Initialize
$LN4@Initialize:

; 125  : 
; 126  : 	int nId		= s.GetNumber();

  00074	6a 00		 push	 0
  00076	e8 00 00 00 00	 call	 ?GetNumber@CScanner@@QAEHH@Z ; CScanner::GetNumber

; 127  : 	while( s.tok != FINISHED )

  0007b	83 bd ec e8 ff
	ff 15		 cmp	 DWORD PTR _s$[ebp+2116], 21 ; 00000015H
  00082	89 85 a0 e0 ff
	ff		 mov	 DWORD PTR _nId$1$[ebp], eax
  00088	0f 84 ba 01 00
	00		 je	 $LN3@Initialize
  0008e	66 90		 npad	 2
$LL2@Initialize:

; 128  : 	{
; 129  : 		char szName[CLordSkillComponent::eMaxName]	= { 0,};
; 130  : 		char szDesc[CLordSkillComponent::eMaxDesc]	= { 0,};

  00090	68 80 00 00 00	 push	 128			; 00000080H
  00095	0f 57 c0	 xorps	 xmm0, xmm0
  00098	8d 85 10 ff ff
	ff		 lea	 eax, DWORD PTR _szDesc$3[ebp]
  0009e	6a 00		 push	 0
  000a0	50		 push	 eax
  000a1	0f 11 45 d0	 movups	 XMMWORD PTR _szName$5[ebp], xmm0
  000a5	0f 11 45 e0	 movups	 XMMWORD PTR _szName$5[ebp+16], xmm0
  000a9	e8 00 00 00 00	 call	 _memset

; 131  : 		char szIcon[CLordSkillComponent::eMaxIcon]	= { 0,};

  000ae	6a 40		 push	 64			; 00000040H
  000b0	8d 45 90	 lea	 eax, DWORD PTR _szIcon$4[ebp]
  000b3	6a 00		 push	 0
  000b5	50		 push	 eax
  000b6	e8 00 00 00 00	 call	 _memset
  000bb	83 c4 18	 add	 esp, 24			; 00000018H

; 132  : 		int nType	= s.GetNumber();

  000be	8d 8d a8 e0 ff
	ff		 lea	 ecx, DWORD PTR _s$[ebp]
  000c4	6a 00		 push	 0
  000c6	e8 00 00 00 00	 call	 ?GetNumber@CScanner@@QAEHH@Z ; CScanner::GetNumber

; 133  : 		s.GetToken();

  000cb	6a 00		 push	 0
  000cd	8d 8d a8 e0 ff
	ff		 lea	 ecx, DWORD PTR _s$[ebp]
  000d3	8b f8		 mov	 edi, eax
  000d5	e8 00 00 00 00	 call	 ?GetToken@CScript@@UAEHH@Z ; CScript::GetToken

; 134  : 		strncpy( szName, s.token, CLordSkillComponent::eMaxName );

  000da	6a 20		 push	 32			; 00000020H
  000dc	ff b5 e4 e0 ff
	ff		 push	 DWORD PTR _s$[ebp+60]
  000e2	8d 45 d0	 lea	 eax, DWORD PTR _szName$5[ebp]
  000e5	50		 push	 eax
  000e6	e8 00 00 00 00	 call	 _strncpy
  000eb	83 c4 0c	 add	 esp, 12			; 0000000cH

; 135  : 		szName[CLordSkillComponent::eMaxName - 1]	= '\0';

  000ee	c6 45 ef 00	 mov	 BYTE PTR _szName$5[ebp+31], 0

; 136  : 		s.GetToken();

  000f2	8d 8d a8 e0 ff
	ff		 lea	 ecx, DWORD PTR _s$[ebp]
  000f8	6a 00		 push	 0
  000fa	e8 00 00 00 00	 call	 ?GetToken@CScript@@UAEHH@Z ; CScript::GetToken

; 137  : 		strncpy( szDesc, s.token, CLordSkillComponent::eMaxDesc );

  000ff	68 80 00 00 00	 push	 128			; 00000080H
  00104	ff b5 e4 e0 ff
	ff		 push	 DWORD PTR _s$[ebp+60]
  0010a	8d 85 10 ff ff
	ff		 lea	 eax, DWORD PTR _szDesc$3[ebp]
  00110	50		 push	 eax
  00111	e8 00 00 00 00	 call	 _strncpy
  00116	83 c4 0c	 add	 esp, 12			; 0000000cH

; 138  : 		szDesc[CLordSkillComponent::eMaxDesc - 1]	= '\0';

  00119	c6 45 8f 00	 mov	 BYTE PTR _szDesc$3[ebp+127], 0

; 139  : 		int nTargetType		= s.GetNumber();

  0011d	8d 8d a8 e0 ff
	ff		 lea	 ecx, DWORD PTR _s$[ebp]
  00123	6a 00		 push	 0
  00125	e8 00 00 00 00	 call	 ?GetNumber@CScanner@@QAEHH@Z ; CScanner::GetNumber

; 140  : 		int	nItem	= s.GetNumber();

  0012a	6a 00		 push	 0
  0012c	8d 8d a8 e0 ff
	ff		 lea	 ecx, DWORD PTR _s$[ebp]
  00132	89 85 94 e0 ff
	ff		 mov	 DWORD PTR _nTargetType$1$[ebp], eax
  00138	e8 00 00 00 00	 call	 ?GetNumber@CScanner@@QAEHH@Z ; CScanner::GetNumber

; 141  : 		int nCooltime	= s.GetNumber();

  0013d	6a 00		 push	 0
  0013f	8d 8d a8 e0 ff
	ff		 lea	 ecx, DWORD PTR _s$[ebp]
  00145	89 85 8c e0 ff
	ff		 mov	 DWORD PTR _nItem$1$[ebp], eax
  0014b	e8 00 00 00 00	 call	 ?GetNumber@CScanner@@QAEHH@Z ; CScanner::GetNumber

; 142  : 		s.GetToken();

  00150	6a 00		 push	 0
  00152	8d 8d a8 e0 ff
	ff		 lea	 ecx, DWORD PTR _s$[ebp]
  00158	89 85 88 e0 ff
	ff		 mov	 DWORD PTR _nCooltime$1$[ebp], eax
  0015e	e8 00 00 00 00	 call	 ?GetToken@CScript@@UAEHH@Z ; CScript::GetToken

; 143  : 		strncpy( szIcon, s.token, CLordSkillComponent::eMaxIcon );

  00163	6a 40		 push	 64			; 00000040H
  00165	ff b5 e4 e0 ff
	ff		 push	 DWORD PTR _s$[ebp+60]
  0016b	8d 45 90	 lea	 eax, DWORD PTR _szIcon$4[ebp]
  0016e	50		 push	 eax
  0016f	e8 00 00 00 00	 call	 _strncpy
  00174	83 c4 0c	 add	 esp, 12			; 0000000cH

; 144  : 		szIcon[CLordSkillComponent::eMaxIcon - 1]	= '\0';

  00177	c6 45 cf 00	 mov	 BYTE PTR _szIcon$4[ebp+63], 0

; 145  : 		BOOL bPassive	= static_cast<BOOL>( s.GetNumber() );

  0017b	8d 8d a8 e0 ff
	ff		 lea	 ecx, DWORD PTR _s$[ebp]
  00181	6a 00		 push	 0
  00183	e8 00 00 00 00	 call	 ?GetNumber@CScanner@@QAEHH@Z ; CScanner::GetNumber

; 146  : 		DWORD dwSrcSfx	= s.GetNumber();

  00188	6a 00		 push	 0
  0018a	8d 8d a8 e0 ff
	ff		 lea	 ecx, DWORD PTR _s$[ebp]
  00190	89 85 90 e0 ff
	ff		 mov	 DWORD PTR _bPassive$1$[ebp], eax
  00196	e8 00 00 00 00	 call	 ?GetNumber@CScanner@@QAEHH@Z ; CScanner::GetNumber

; 147  : 		DWORD dwDstSfx	= s.GetNumber();

  0019b	6a 00		 push	 0
  0019d	8d 8d a8 e0 ff
	ff		 lea	 ecx, DWORD PTR _s$[ebp]
  001a3	89 85 98 e0 ff
	ff		 mov	 DWORD PTR _dwSrcSfx$1$[ebp], eax
  001a9	e8 00 00 00 00	 call	 ?GetNumber@CScanner@@QAEHH@Z ; CScanner::GetNumber

; 148  : 		FLOAT fRange	= s.GetFloat();

  001ae	6a 00		 push	 0
  001b0	8d 8d a8 e0 ff
	ff		 lea	 ecx, DWORD PTR _s$[ebp]
  001b6	8b f0		 mov	 esi, eax
  001b8	e8 00 00 00 00	 call	 ?GetFloat@CScanner@@QAEMH@Z ; CScanner::GetFloat

; 149  : 		CLordSkillComponentExecutable* pComponent		= CreateSkillComponent( nType );

  001bd	8b 8d a4 e0 ff
	ff		 mov	 ecx, DWORD PTR _this$GSCopy$1$[ebp]
  001c3	57		 push	 edi
  001c4	d9 9d 9c e0 ff
	ff		 fstp	 DWORD PTR _fRange$2[ebp]
  001ca	8b 01		 mov	 eax, DWORD PTR [ecx]
  001cc	8b 40 04	 mov	 eax, DWORD PTR [eax+4]
  001cf	ff d0		 call	 eax

; 150  : 		pComponent->Initialize( nId, nCooltime, nItem, szName, szDesc, szIcon, bPassive, nTargetType, dwSrcSfx, dwDstSfx, fRange );

  001d1	f3 0f 10 85 9c
	e0 ff ff	 movss	 xmm0, DWORD PTR _fRange$2[ebp]
  001d9	8b f8		 mov	 edi, eax
  001db	51		 push	 ecx
  001dc	f3 0f 11 04 24	 movss	 DWORD PTR [esp], xmm0
  001e1	8d 45 90	 lea	 eax, DWORD PTR _szIcon$4[ebp]
  001e4	56		 push	 esi
  001e5	ff b5 98 e0 ff
	ff		 push	 DWORD PTR _dwSrcSfx$1$[ebp]
  001eb	8b cf		 mov	 ecx, edi
  001ed	ff b5 94 e0 ff
	ff		 push	 DWORD PTR _nTargetType$1$[ebp]
  001f3	ff b5 90 e0 ff
	ff		 push	 DWORD PTR _bPassive$1$[ebp]
  001f9	50		 push	 eax
  001fa	8d 85 10 ff ff
	ff		 lea	 eax, DWORD PTR _szDesc$3[ebp]
  00200	50		 push	 eax
  00201	8d 45 d0	 lea	 eax, DWORD PTR _szName$5[ebp]
  00204	50		 push	 eax
  00205	ff b5 8c e0 ff
	ff		 push	 DWORD PTR _nItem$1$[ebp]
  0020b	ff b5 88 e0 ff
	ff		 push	 DWORD PTR _nCooltime$1$[ebp]
  00211	ff b5 a0 e0 ff
	ff		 push	 DWORD PTR _nId$1$[ebp]
  00217	e8 00 00 00 00	 call	 ?Initialize@CLordSkillComponent@@QAEXHHHPBD00HHKKM@Z ; CLordSkillComponent::Initialize

; 151  : 		AddSkillComponent( pComponent );

  0021c	8b 8d a4 e0 ff
	ff		 mov	 ecx, DWORD PTR _this$GSCopy$1$[ebp]
  00222	57		 push	 edi
  00223	e8 00 00 00 00	 call	 ?AddSkillComponent@CLordSkill@@QAEXPAVCLordSkillComponentExecutable@@@Z ; CLordSkill::AddSkillComponent

; 152  : 		nId		= s.GetNumber();

  00228	6a 00		 push	 0
  0022a	8d 8d a8 e0 ff
	ff		 lea	 ecx, DWORD PTR _s$[ebp]
  00230	e8 00 00 00 00	 call	 ?GetNumber@CScanner@@QAEHH@Z ; CScanner::GetNumber
  00235	83 bd ec e8 ff
	ff 15		 cmp	 DWORD PTR _s$[ebp+2116], 21 ; 00000015H
  0023c	89 85 a0 e0 ff
	ff		 mov	 DWORD PTR _nId$1$[ebp], eax
  00242	0f 85 48 fe ff
	ff		 jne	 $LL2@Initialize
$LN3@Initialize:

; 153  : 	}
; 154  : 	return TRUE;

  00248	8d 8d a8 e0 ff
	ff		 lea	 ecx, DWORD PTR _s$[ebp]
  0024e	e8 00 00 00 00	 call	 ??1CScript@@UAE@XZ	; CScript::~CScript
  00253	b8 01 00 00 00	 mov	 eax, 1
$LN1@Initialize:

; 155  : }

  00258	8b 4d f4	 mov	 ecx, DWORD PTR __$EHRec$[ebp]
  0025b	64 89 0d 00 00
	00 00		 mov	 DWORD PTR fs:0, ecx
  00262	59		 pop	 ecx
  00263	5f		 pop	 edi
  00264	5e		 pop	 esi
  00265	8b 4d f0	 mov	 ecx, DWORD PTR __$ArrayPad$[ebp]
  00268	33 cd		 xor	 ecx, ebp
  0026a	e8 00 00 00 00	 call	 @__security_check_cookie@4
  0026f	8b e5		 mov	 esp, ebp
  00271	5d		 pop	 ebp
  00272	c2 04 00	 ret	 4
_TEXT	ENDS
;	COMDAT text$x
text$x	SEGMENT
__unwindfunclet$?Initialize@CLordSkill@@QAEHPBD@Z$0:
  00000	8d 8d a8 e0 ff
	ff		 lea	 ecx, DWORD PTR _s$[ebp]
  00006	e9 00 00 00 00	 jmp	 ??1CScript@@UAE@XZ	; CScript::~CScript
  0000b	cc		 int	 3
  0000c	cc		 int	 3
  0000d	cc		 int	 3
  0000e	cc		 int	 3
  0000f	cc		 int	 3
__ehhandler$?Initialize@CLordSkill@@QAEHPBD@Z:
  00010	90		 npad	 1
  00011	90		 npad	 1
  00012	8b 54 24 08	 mov	 edx, DWORD PTR [esp+8]
  00016	8d 42 0c	 lea	 eax, DWORD PTR [edx+12]
  00019	8b 8a 88 e0 ff
	ff		 mov	 ecx, DWORD PTR [edx-8056]
  0001f	33 c8		 xor	 ecx, eax
  00021	e8 00 00 00 00	 call	 @__security_check_cookie@4
  00026	8b 4a fc	 mov	 ecx, DWORD PTR [edx-4]
  00029	33 c8		 xor	 ecx, eax
  0002b	e8 00 00 00 00	 call	 @__security_check_cookie@4
  00030	b8 00 00 00 00	 mov	 eax, OFFSET __ehfuncinfo$?Initialize@CLordSkill@@QAEHPBD@Z
  00035	e9 00 00 00 00	 jmp	 ___CxxFrameHandler3
text$x	ENDS
?Initialize@CLordSkill@@QAEHPBD@Z ENDP			; CLordSkill::Initialize
; Function compile flags: /Ogtp
; File C:\IAGOS\server\v18\Source\Source\_Common\lordskill.cpp
; File C:\Program Files\Microsoft Visual Studio\2022\Professional\VC\Tools\MSVC\14.44.35207\include\vector
; File C:\IAGOS\server\v18\Source\Source\_Common\lordskill.cpp
; File C:\Program Files\Microsoft Visual Studio\2022\Professional\VC\Tools\MSVC\14.44.35207\include\vector
; File C:\IAGOS\server\v18\Source\Source\_Common\lordskill.cpp
; File C:\Program Files\Microsoft Visual Studio\2022\Professional\VC\Tools\MSVC\14.44.35207\include\vector
; File C:\IAGOS\server\v18\Source\Source\_Common\lordskill.cpp
;	COMDAT ?GetSkill@CLordSkill@@QAEPAVCLordSkillComponentExecutable@@H@Z
_TEXT	SEGMENT
_nId$ = 8						; size = 4
?GetSkill@CLordSkill@@QAEPAVCLordSkillComponentExecutable@@H@Z PROC ; CLordSkill::GetSkill, COMDAT
; _this$ = ecx

; 100  : {

  00000	55		 push	 ebp
  00001	8b ec		 mov	 ebp, esp
; File C:\Program Files\Microsoft Visual Studio\2022\Professional\VC\Tools\MSVC\14.44.35207\include\vector

; 46   :     _CONSTEXPR20 _Vector_const_iterator(_Tptr _Parg, const _Container_base* _Pvector) noexcept : _Ptr(_Parg) {

  00003	8b 41 08	 mov	 eax, DWORD PTR [ecx+8]
  00006	8b 51 0c	 mov	 edx, DWORD PTR [ecx+12]
; File C:\IAGOS\server\v18\Source\Source\_Common\lordskill.cpp

; 100  : {

  00009	56		 push	 esi
; File C:\Program Files\Microsoft Visual Studio\2022\Professional\VC\Tools\MSVC\14.44.35207\include\vector

; 176  :         return !(*this == _Right);

  0000a	3b c2		 cmp	 eax, edx
; File C:\IAGOS\server\v18\Source\Source\_Common\lordskill.cpp

; 101  : 	for( VLSC::iterator i = m_vComponents.begin(); i != m_vComponents.end(); ++i )

  0000c	74 11		 je	 SHORT $LN3@GetSkill
  0000e	8b 75 08	 mov	 esi, DWORD PTR _nId$[ebp]
$LL4@GetSkill:

; 102  : 	{
; 103  : 		if( ( *i )->GetId() == nId )

  00011	8b 08		 mov	 ecx, DWORD PTR [eax]
  00013	39 71 04	 cmp	 DWORD PTR [ecx+4], esi
  00016	74 0e		 je	 SHORT $LN38@GetSkill
; File C:\Program Files\Microsoft Visual Studio\2022\Professional\VC\Tools\MSVC\14.44.35207\include\vector

; 82   :         ++_Ptr;

  00018	83 c0 04	 add	 eax, 4

; 176  :         return !(*this == _Right);

  0001b	3b c2		 cmp	 eax, edx
; File C:\IAGOS\server\v18\Source\Source\_Common\lordskill.cpp

; 101  : 	for( VLSC::iterator i = m_vComponents.begin(); i != m_vComponents.end(); ++i )

  0001d	75 f2		 jne	 SHORT $LL4@GetSkill
$LN3@GetSkill:

; 105  : 	}
; 106  : 	return NULL;

  0001f	33 c0		 xor	 eax, eax
  00021	5e		 pop	 esi

; 107  : }

  00022	5d		 pop	 ebp
  00023	c2 04 00	 ret	 4
$LN38@GetSkill:

; 104  : 			return ( *i );

  00026	8b c1		 mov	 eax, ecx
  00028	5e		 pop	 esi

; 107  : }

  00029	5d		 pop	 ebp
  0002a	c2 04 00	 ret	 4
?GetSkill@CLordSkill@@QAEPAVCLordSkillComponentExecutable@@H@Z ENDP ; CLordSkill::GetSkill
_TEXT	ENDS
; Function compile flags: /Ogtp
; File C:\IAGOS\server\v18\Source\Source\_Common\lordskill.cpp
; File C:\Program Files\Microsoft Visual Studio\2022\Professional\VC\Tools\MSVC\14.44.35207\include\vector
; File C:\IAGOS\server\v18\Source\Source\_Common\lordskill.cpp
; File C:\Program Files\Microsoft Visual Studio\2022\Professional\VC\Tools\MSVC\14.44.35207\include\vector
; File C:\IAGOS\server\v18\Source\Source\_Common\lordskill.cpp
; File C:\Program Files\Microsoft Visual Studio\2022\Professional\VC\Tools\MSVC\14.44.35207\include\vector
; File C:\IAGOS\server\v18\Source\Source\_Common\lordskill.cpp
;	COMDAT ?AddSkillComponent@CLordSkill@@QAEXPAVCLordSkillComponentExecutable@@@Z
_TEXT	SEGMENT
_pComponent$ = 8					; size = 4
?AddSkillComponent@CLordSkill@@QAEXPAVCLordSkillComponentExecutable@@@Z PROC ; CLordSkill::AddSkillComponent, COMDAT
; _this$ = ecx

; 95   : {

  00000	55		 push	 ebp
  00001	8b ec		 mov	 ebp, esp
; File C:\Program Files\Microsoft Visual Studio\2022\Professional\VC\Tools\MSVC\14.44.35207\include\vector

; 844  :         if (_Mylast != _My_data._Myend) {

  00003	8b 51 0c	 mov	 edx, DWORD PTR [ecx+12]
; File C:\IAGOS\server\v18\Source\Source\_Common\lordskill.cpp

; 96   : 	m_vComponents.push_back( pComponent );

  00006	83 c1 08	 add	 ecx, 8
; File C:\Program Files\Microsoft Visual Studio\2022\Professional\VC\Tools\MSVC\14.44.35207\include\vector

; 844  :         if (_Mylast != _My_data._Myend) {

  00009	3b 51 08	 cmp	 edx, DWORD PTR [ecx+8]
  0000c	74 0d		 je	 SHORT $LN6@AddSkillCo

; 860  :             _STD _Construct_in_place(*_Mylast, _STD forward<_Valty>(_Val)...);

  0000e	8b 45 08	 mov	 eax, DWORD PTR _pComponent$[ebp]
  00011	89 02		 mov	 DWORD PTR [edx], eax

; 861  :         } else {
; 862  :             _ASAN_VECTOR_EXTEND_GUARD(static_cast<size_type>(_Mylast - _My_data._Myfirst) + 1);
; 863  :             _Alty_traits::construct(_Getal(), _Unfancy(_Mylast), _STD forward<_Valty>(_Val)...);
; 864  :             _ASAN_VECTOR_RELEASE_GUARD;
; 865  :         }
; 866  : 
; 867  :         _Orphan_range(_Mylast, _Mylast);
; 868  :         _Ty& _Result = *_Mylast;
; 869  :         ++_Mylast;

  00013	83 41 04 04	 add	 DWORD PTR [ecx+4], 4
; File C:\IAGOS\server\v18\Source\Source\_Common\lordskill.cpp

; 97   : }

  00017	5d		 pop	 ebp
  00018	c2 04 00	 ret	 4
$LN6@AddSkillCo:
; File C:\Program Files\Microsoft Visual Studio\2022\Professional\VC\Tools\MSVC\14.44.35207\include\vector

; 848  :         return *_Emplace_reallocate(_Mylast, _STD forward<_Valty>(_Val)...);

  0001b	8d 45 08	 lea	 eax, DWORD PTR _pComponent$[ebp]
  0001e	50		 push	 eax
  0001f	52		 push	 edx
  00020	e8 00 00 00 00	 call	 ??$_Emplace_reallocate@ABQAVCLordSkillComponentExecutable@@@?$vector@PAVCLordSkillComponentExecutable@@V?$allocator@PAVCLordSkillComponentExecutable@@@std@@@std@@AAEPAPAVCLordSkillComponentExecutable@@QAPAV2@ABQAV2@@Z ; std::vector<CLordSkillComponentExecutable *,std::allocator<CLordSkillComponentExecutable *> >::_Emplace_reallocate<CLordSkillComponentExecutable * const &>
; File C:\IAGOS\server\v18\Source\Source\_Common\lordskill.cpp

; 97   : }

  00025	5d		 pop	 ebp
  00026	c2 04 00	 ret	 4
?AddSkillComponent@CLordSkill@@QAEXPAVCLordSkillComponentExecutable@@@Z ENDP ; CLordSkill::AddSkillComponent
_TEXT	ENDS
; Function compile flags: /Ogtp
; File C:\IAGOS\server\v18\Source\Source\_Common\lordskill.cpp
; File C:\IAGOS\server\v18\Source\Source\_Common\lordskill.h
; File C:\IAGOS\server\v18\Source\Source\_Common\lordskill.cpp
;	COMDAT ?CreateSkillComponent@CLordSkill@@UAEPAVCLordSkillComponentExecutable@@H@Z
_TEXT	SEGMENT
$T1 = -4						; size = 4
_nType$ = 8						; size = 4
?CreateSkillComponent@CLordSkill@@UAEPAVCLordSkillComponentExecutable@@H@Z PROC ; CLordSkill::CreateSkillComponent, COMDAT
; _this$ = ecx

; 110  : {

  00000	55		 push	 ebp
  00001	8b ec		 mov	 ebp, esp
  00003	51		 push	 ecx
  00004	56		 push	 esi

; 111  : 	return new CLordSkillComponentExecutable;

  00005	68 fc 00 00 00	 push	 252			; 000000fcH
  0000a	e8 00 00 00 00	 call	 ??2@YAPAXI@Z		; operator new
  0000f	8b f0		 mov	 esi, eax
  00011	83 c4 04	 add	 esp, 4
  00014	89 75 fc	 mov	 DWORD PTR $T1[ebp], esi
  00017	85 f6		 test	 esi, esi
  00019	74 16		 je	 SHORT $LN3@CreateSkil
; File C:\IAGOS\server\v18\Source\Source\_Common\lordskill.h

; 67   : 	CLordSkillComponentExecutable() : CLordSkillComponent()	{}

  0001b	8b ce		 mov	 ecx, esi
  0001d	e8 00 00 00 00	 call	 ??0CLordSkillComponent@@QAE@XZ ; CLordSkillComponent::CLordSkillComponent
  00022	c7 06 00 00 00
	00		 mov	 DWORD PTR [esi], OFFSET ??_7CLordSkillComponentExecutable@@6B@
; File C:\IAGOS\server\v18\Source\Source\_Common\lordskill.cpp

; 111  : 	return new CLordSkillComponentExecutable;

  00028	8b c6		 mov	 eax, esi
  0002a	5e		 pop	 esi

; 112  : }

  0002b	8b e5		 mov	 esp, ebp
  0002d	5d		 pop	 ebp
  0002e	c2 04 00	 ret	 4
$LN3@CreateSkil:

; 111  : 	return new CLordSkillComponentExecutable;

  00031	33 c0		 xor	 eax, eax
  00033	5e		 pop	 esi

; 112  : }

  00034	8b e5		 mov	 esp, ebp
  00036	5d		 pop	 ebp
  00037	c2 04 00	 ret	 4
?CreateSkillComponent@CLordSkill@@UAEPAVCLordSkillComponentExecutable@@H@Z ENDP ; CLordSkill::CreateSkillComponent
_TEXT	ENDS
; Function compile flags: /Ogtp
; File C:\IAGOS\server\v18\Source\Source\_Common\lordskill.cpp
; File C:\Program Files\Microsoft Visual Studio\2022\Professional\VC\Tools\MSVC\14.44.35207\include\vector
; File C:\IAGOS\server\v18\Source\Source\_Common\lordskill.cpp
; File C:\Program Files\Microsoft Visual Studio\2022\Professional\VC\Tools\MSVC\14.44.35207\include\vector
; File C:\IAGOS\server\v18\Source\Source\_Common\lordskill.cpp
; File C:\Program Files\Microsoft Visual Studio\2022\Professional\VC\Tools\MSVC\14.44.35207\include\vector
; File C:\IAGOS\server\v18\Source\Source\_Common\lordskill.cpp
;	COMDAT ?Clear@CLordSkill@@QAEXXZ
_TEXT	SEGMENT
?Clear@CLordSkill@@QAEXXZ PROC				; CLordSkill::Clear, COMDAT
; _this$ = ecx

; 88   : {

  00000	56		 push	 esi
  00001	57		 push	 edi
  00002	8b f9		 mov	 edi, ecx
; File C:\Program Files\Microsoft Visual Studio\2022\Professional\VC\Tools\MSVC\14.44.35207\include\vector

; 46   :     _CONSTEXPR20 _Vector_const_iterator(_Tptr _Parg, const _Container_base* _Pvector) noexcept : _Ptr(_Parg) {

  00004	8b 77 08	 mov	 esi, DWORD PTR [edi+8]

; 176  :         return !(*this == _Right);

  00007	3b 77 0c	 cmp	 esi, DWORD PTR [edi+12]
; File C:\IAGOS\server\v18\Source\Source\_Common\lordskill.cpp

; 89   : 	for( VLSC::iterator i = m_vComponents.begin(); i != m_vComponents.end(); ++i )

  0000a	74 18		 je	 SHORT $LN3@Clear
  0000c	0f 1f 40 00	 npad	 4
$LL4@Clear:

; 90   : 		safe_delete( *i );

  00010	8b 0e		 mov	 ecx, DWORD PTR [esi]
  00012	85 c9		 test	 ecx, ecx
  00014	74 06		 je	 SHORT $LN2@Clear
  00016	8b 01		 mov	 eax, DWORD PTR [ecx]
  00018	6a 01		 push	 1
  0001a	ff 10		 call	 DWORD PTR [eax]
$LN2@Clear:
; File C:\Program Files\Microsoft Visual Studio\2022\Professional\VC\Tools\MSVC\14.44.35207\include\vector

; 82   :         ++_Ptr;

  0001c	83 c6 04	 add	 esi, 4

; 176  :         return !(*this == _Right);

  0001f	3b 77 0c	 cmp	 esi, DWORD PTR [edi+12]
; File C:\IAGOS\server\v18\Source\Source\_Common\lordskill.cpp

; 89   : 	for( VLSC::iterator i = m_vComponents.begin(); i != m_vComponents.end(); ++i )

  00022	75 ec		 jne	 SHORT $LL4@Clear
$LN3@Clear:
; File C:\Program Files\Microsoft Visual Studio\2022\Professional\VC\Tools\MSVC\14.44.35207\include\vector

; 1812 :         if (_Myfirst == _Mylast) { // already empty, nothing to do

  00024	8b 47 08	 mov	 eax, DWORD PTR [edi+8]
  00027	3b 47 0c	 cmp	 eax, DWORD PTR [edi+12]
  0002a	74 03		 je	 SHORT $LN38@Clear

; 1813 :             // This is an optimization for debug mode: we can avoid taking the debug lock to invalidate iterators.
; 1814 :             // Note that when clearing an empty vector, this will preserve past-the-end iterators, which is allowed by
; 1815 :             // N4950 [sequence.reqmts]/54 "a.clear() [...] may invalidate the past-the-end iterator".
; 1816 :             return;
; 1817 :         }
; 1818 : 
; 1819 :         _My_data._Orphan_all();
; 1820 :         _Destroy_range(_Myfirst, _Mylast, _Getal());
; 1821 :         _ASAN_VECTOR_MODIFY(static_cast<difference_type>(_Myfirst - _Mylast)); // negative when destroying elements
; 1822 :         _Mylast = _Myfirst;

  0002c	89 47 0c	 mov	 DWORD PTR [edi+12], eax
$LN38@Clear:
  0002f	5f		 pop	 edi
; File C:\IAGOS\server\v18\Source\Source\_Common\lordskill.cpp

; 92   : }

  00030	5e		 pop	 esi
  00031	c3		 ret	 0
?Clear@CLordSkill@@QAEXXZ ENDP				; CLordSkill::Clear
_TEXT	ENDS
; Function compile flags: /Ogtp
; File C:\IAGOS\server\v18\Source\Source\_Common\lordskill.cpp
;	COMDAT ??1CLordSkill@@UAE@XZ
_TEXT	SEGMENT
??1CLordSkill@@UAE@XZ PROC				; CLordSkill::~CLordSkill, COMDAT
; _this$ = ecx

; 83   : {

  00000	56		 push	 esi
  00001	8b f1		 mov	 esi, ecx
  00003	c7 06 00 00 00
	00		 mov	 DWORD PTR [esi], OFFSET ??_7CLordSkill@@6B@

; 84   : 	Clear();

  00009	e8 00 00 00 00	 call	 ?Clear@CLordSkill@@QAEXXZ ; CLordSkill::Clear

; 85   : }

  0000e	8d 4e 08	 lea	 ecx, DWORD PTR [esi+8]
  00011	5e		 pop	 esi
  00012	e9 00 00 00 00	 jmp	 ??1?$vector@PAVCLordSkillComponentExecutable@@V?$allocator@PAVCLordSkillComponentExecutable@@@std@@@std@@QAE@XZ ; std::vector<CLordSkillComponentExecutable *,std::allocator<CLordSkillComponentExecutable *> >::~vector<CLordSkillComponentExecutable *,std::allocator<CLordSkillComponentExecutable *> >
??1CLordSkill@@UAE@XZ ENDP				; CLordSkill::~CLordSkill
_TEXT	ENDS
; Function compile flags: /Ogtp
; File C:\IAGOS\server\v18\Source\Source\_Common\lordskill.cpp
; File C:\Program Files\Microsoft Visual Studio\2022\Professional\VC\Tools\MSVC\14.44.35207\include\vector
; File C:\IAGOS\server\v18\Source\Source\_Common\lordskill.cpp
;	COMDAT ??0CLordSkill@@QAE@PAVCLord@@@Z
_TEXT	SEGMENT
_this$ = -4						; size = 4
_pLord$ = 8						; size = 4
??0CLordSkill@@QAE@PAVCLord@@@Z PROC			; CLordSkill::CLordSkill, COMDAT
; _this$ = ecx

; 79   : {

  00000	55		 push	 ebp
  00001	8b ec		 mov	 ebp, esp
  00003	51		 push	 ecx

; 78   : m_pLord( pLord )

  00004	8b 45 08	 mov	 eax, DWORD PTR _pLord$[ebp]
  00007	89 41 04	 mov	 DWORD PTR [ecx+4], eax

; 80   : }

  0000a	8b c1		 mov	 eax, ecx
  0000c	c7 01 00 00 00
	00		 mov	 DWORD PTR [ecx], OFFSET ??_7CLordSkill@@6B@
  00012	89 4d fc	 mov	 DWORD PTR _this$[ebp], ecx
; File C:\Program Files\Microsoft Visual Studio\2022\Professional\VC\Tools\MSVC\14.44.35207\include\vector

; 400  :     _CONSTEXPR20 _Vector_val() noexcept : _Myfirst(), _Mylast(), _Myend() {}

  00015	c7 41 08 00 00
	00 00		 mov	 DWORD PTR [ecx+8], 0
  0001c	c7 41 0c 00 00
	00 00		 mov	 DWORD PTR [ecx+12], 0
  00023	c7 41 10 00 00
	00 00		 mov	 DWORD PTR [ecx+16], 0
; File C:\IAGOS\server\v18\Source\Source\_Common\lordskill.cpp

; 80   : }

  0002a	8b e5		 mov	 esp, ebp
  0002c	5d		 pop	 ebp
  0002d	c2 04 00	 ret	 4
??0CLordSkill@@QAE@PAVCLord@@@Z ENDP			; CLordSkill::CLordSkill
_TEXT	ENDS
; Function compile flags: /Ogtp
; File C:\IAGOS\server\v18\Source\Source\_Common\lordskill.h
;	COMDAT ??_GCLordSkillComponentExecutable@@UAEPAXI@Z
_TEXT	SEGMENT
___flags$ = 8						; size = 4
??_GCLordSkillComponentExecutable@@UAEPAXI@Z PROC	; CLordSkillComponentExecutable::`scalar deleting destructor', COMDAT
; _this$ = ecx
  00000	55		 push	 ebp
  00001	8b ec		 mov	 ebp, esp

; 68   : 	virtual	~CLordSkillComponentExecutable()	{}

  00003	56		 push	 esi
  00004	8b f1		 mov	 esi, ecx
  00006	c7 06 00 00 00
	00		 mov	 DWORD PTR [esi], OFFSET ??_7CLordSkillComponentExecutable@@6B@
  0000c	e8 00 00 00 00	 call	 ??1CLordSkillComponent@@UAE@XZ ; CLordSkillComponent::~CLordSkillComponent
  00011	f6 45 08 01	 test	 BYTE PTR ___flags$[ebp], 1
  00015	74 0e		 je	 SHORT $LN10@scalar
  00017	68 fc 00 00 00	 push	 252			; 000000fcH
  0001c	56		 push	 esi
  0001d	e8 00 00 00 00	 call	 ??3@YAXPAXI@Z		; operator delete
  00022	83 c4 08	 add	 esp, 8
$LN10@scalar:
  00025	8b c6		 mov	 eax, esi
  00027	5e		 pop	 esi
  00028	5d		 pop	 ebp
  00029	c2 04 00	 ret	 4
??_GCLordSkillComponentExecutable@@UAEPAXI@Z ENDP	; CLordSkillComponentExecutable::`scalar deleting destructor'
_TEXT	ENDS
; Function compile flags: /Ogtp
; File C:\IAGOS\server\v18\Source\Source\_Common\lordskill.h
;	COMDAT ?Execute@CLordSkillComponentExecutable@@UAEXKKPAX@Z
_TEXT	SEGMENT
_idPlayer$ = 8						; size = 4
_idTarget$ = 12						; size = 4
_pParam$ = 16						; size = 4
?Execute@CLordSkillComponentExecutable@@UAEXKKPAX@Z PROC ; CLordSkillComponentExecutable::Execute, COMDAT
; _this$ = ecx

; 72   : 	virtual	void	Execute( u_long idPlayer, u_long idTarget, VOID* pParam )	{	Use();	}

  00000	8b 41 08	 mov	 eax, DWORD PTR [ecx+8]
  00003	89 41 0c	 mov	 DWORD PTR [ecx+12], eax
  00006	c2 0c 00	 ret	 12			; 0000000cH
?Execute@CLordSkillComponentExecutable@@UAEXKKPAX@Z ENDP ; CLordSkillComponentExecutable::Execute
_TEXT	ENDS
; Function compile flags: /Ogtp
; File C:\IAGOS\server\v18\Source\Source\_Common\lordskill.h
;	COMDAT ??1CLordSkillComponentExecutable@@UAE@XZ
_TEXT	SEGMENT
??1CLordSkillComponentExecutable@@UAE@XZ PROC		; CLordSkillComponentExecutable::~CLordSkillComponentExecutable, COMDAT
; _this$ = ecx

; 68   : 	virtual	~CLordSkillComponentExecutable()	{}

  00000	c7 01 00 00 00
	00		 mov	 DWORD PTR [ecx], OFFSET ??_7CLordSkillComponentExecutable@@6B@
  00006	e9 00 00 00 00	 jmp	 ??1CLordSkillComponent@@UAE@XZ ; CLordSkillComponent::~CLordSkillComponent
??1CLordSkillComponentExecutable@@UAE@XZ ENDP		; CLordSkillComponentExecutable::~CLordSkillComponentExecutable
_TEXT	ENDS
; Function compile flags: /Ogtp
;	COMDAT ??_GCLordSkillComponent@@UAEPAXI@Z
_TEXT	SEGMENT
___flags$ = 8						; size = 4
??_GCLordSkillComponent@@UAEPAXI@Z PROC			; CLordSkillComponent::`scalar deleting destructor', COMDAT
; _this$ = ecx
  00000	55		 push	 ebp
  00001	8b ec		 mov	 ebp, esp
  00003	56		 push	 esi
  00004	8b f1		 mov	 esi, ecx
  00006	e8 00 00 00 00	 call	 ??1CLordSkillComponent@@UAE@XZ ; CLordSkillComponent::~CLordSkillComponent
  0000b	f6 45 08 01	 test	 BYTE PTR ___flags$[ebp], 1
  0000f	74 0e		 je	 SHORT $LN5@scalar
  00011	68 fc 00 00 00	 push	 252			; 000000fcH
  00016	56		 push	 esi
  00017	e8 00 00 00 00	 call	 ??3@YAXPAXI@Z		; operator delete
  0001c	83 c4 08	 add	 esp, 8
$LN5@scalar:
  0001f	8b c6		 mov	 eax, esi
  00021	5e		 pop	 esi
  00022	5d		 pop	 ebp
  00023	c2 04 00	 ret	 4
??_GCLordSkillComponent@@UAEPAXI@Z ENDP			; CLordSkillComponent::`scalar deleting destructor'
_TEXT	ENDS
; Function compile flags: /Ogtp
; File C:\IAGOS\server\v18\Source\Source\_Common\lordskill.cpp
;	COMDAT ?Tick@CLordSkillComponent@@QAEHXZ
_TEXT	SEGMENT
?Tick@CLordSkillComponent@@QAEHXZ PROC			; CLordSkillComponent::Tick, COMDAT
; _this$ = ecx

; 72   : 	return 0;

  00000	33 c0		 xor	 eax, eax

; 73   : }

  00002	c3		 ret	 0
?Tick@CLordSkillComponent@@QAEHXZ ENDP			; CLordSkillComponent::Tick
_TEXT	ENDS
; Function compile flags: /Ogtp
; File C:\IAGOS\server\v18\Source\Source\_Common\lordskill.cpp
;	COMDAT ?Initialize@CLordSkillComponent@@QAEXHHHPBD00HHKKM@Z
_TEXT	SEGMENT
_nId$ = 8						; size = 4
_nCooltime$ = 12					; size = 4
_nItem$ = 16						; size = 4
_szName$ = 20						; size = 4
_szDesc$ = 24						; size = 4
_szIcon$ = 28						; size = 4
_bPassive$ = 32						; size = 4
_nTargetType$ = 36					; size = 4
_dwSrcSfx$ = 40						; size = 4
_dwDstSfx$ = 44						; size = 4
_fRange$ = 48						; size = 4
?Initialize@CLordSkillComponent@@QAEXHHHPBD00HHKKM@Z PROC ; CLordSkillComponent::Initialize, COMDAT
; _this$ = ecx

; 43   : {

  00000	55		 push	 ebp
  00001	8b ec		 mov	 ebp, esp

; 44   : 	m_nId	= nId;

  00003	8b 45 08	 mov	 eax, DWORD PTR _nId$[ebp]
  00006	56		 push	 esi

; 45   : 	m_nCooltime		= nCooltime;
; 46   : 	m_nItem		= nItem;
; 47   : 	lstrcpy( m_szName, szName );

  00007	8b 35 00 00 00
	00		 mov	 esi, DWORD PTR __imp__lstrcpyA@8
  0000d	57		 push	 edi
  0000e	ff 75 14	 push	 DWORD PTR _szName$[ebp]
  00011	8b f9		 mov	 edi, ecx
  00013	89 47 04	 mov	 DWORD PTR [edi+4], eax
  00016	8b 45 0c	 mov	 eax, DWORD PTR _nCooltime$[ebp]
  00019	89 47 08	 mov	 DWORD PTR [edi+8], eax
  0001c	8b 45 10	 mov	 eax, DWORD PTR _nItem$[ebp]
  0001f	89 47 10	 mov	 DWORD PTR [edi+16], eax
  00022	8d 47 14	 lea	 eax, DWORD PTR [edi+20]
  00025	50		 push	 eax
  00026	ff d6		 call	 esi

; 48   : 	lstrcpy( m_szDesc, szDesc );

  00028	ff 75 18	 push	 DWORD PTR _szDesc$[ebp]
  0002b	8d 47 34	 lea	 eax, DWORD PTR [edi+52]
  0002e	50		 push	 eax
  0002f	ff d6		 call	 esi

; 49   : 	lstrcpy( m_szIcon, szIcon );

  00031	ff 75 1c	 push	 DWORD PTR _szIcon$[ebp]
  00034	8d 87 b4 00 00
	00		 lea	 eax, DWORD PTR [edi+180]
  0003a	50		 push	 eax
  0003b	ff d6		 call	 esi

; 50   : 	m_bPassive	= bPassive;

  0003d	8b 45 20	 mov	 eax, DWORD PTR _bPassive$[ebp]
  00040	89 87 f4 00 00
	00		 mov	 DWORD PTR [edi+244], eax

; 51   : 	m_nTargetType	= nTargetType;

  00046	8b 45 24	 mov	 eax, DWORD PTR _nTargetType$[ebp]
  00049	89 87 f8 00 00
	00		 mov	 DWORD PTR [edi+248], eax
  0004f	5f		 pop	 edi
  00050	5e		 pop	 esi

; 52   : #ifdef __CLIENT
; 53   : 	m_dwSrcSfx	= dwSrcSfx;
; 54   : 	m_dwDstSfx	= dwDstSfx;
; 55   : #endif	// __CLIENT
; 56   : #ifndef __DBSERVER
; 57   : 	m_fRange	= fRange;
; 58   : #endif	// __DBSERVER
; 59   : }

  00051	5d		 pop	 ebp
  00052	c2 2c 00	 ret	 44			; 0000002cH
?Initialize@CLordSkillComponent@@QAEXHHHPBD00HHKKM@Z ENDP ; CLordSkillComponent::Initialize
_TEXT	ENDS
; Function compile flags: /Ogtp
; File C:\IAGOS\server\v18\Source\Source\_Common\lordskill.cpp
;	COMDAT ??1CLordSkillComponent@@UAE@XZ
_TEXT	SEGMENT
??1CLordSkillComponent@@UAE@XZ PROC			; CLordSkillComponent::~CLordSkillComponent, COMDAT
; _this$ = ecx

; 37   : {

  00000	c7 01 00 00 00
	00		 mov	 DWORD PTR [ecx], OFFSET ??_7CLordSkillComponent@@6B@

; 38   : }

  00006	c3		 ret	 0
??1CLordSkillComponent@@UAE@XZ ENDP			; CLordSkillComponent::~CLordSkillComponent
_TEXT	ENDS
; Function compile flags: /Ogtp
; File C:\IAGOS\server\v18\Source\Source\_Common\lordskill.cpp
;	COMDAT ??0CLordSkillComponent@@QAE@XZ
_TEXT	SEGMENT
??0CLordSkillComponent@@QAE@XZ PROC			; CLordSkillComponent::CLordSkillComponent, COMDAT
; _this$ = ecx

; 30   : {

  00000	c7 01 00 00 00
	00		 mov	 DWORD PTR [ecx], OFFSET ??_7CLordSkillComponent@@6B@

; 31   : 	*m_szName	= '\0';
; 32   : 	*m_szDesc	= '\0';
; 33   : 	*m_szIcon	= '\0';
; 34   : }

  00006	8b c1		 mov	 eax, ecx
  00008	c7 41 04 00 00
	00 00		 mov	 DWORD PTR [ecx+4], 0
  0000f	c7 41 08 00 00
	00 00		 mov	 DWORD PTR [ecx+8], 0
  00016	c7 41 0c 00 00
	00 00		 mov	 DWORD PTR [ecx+12], 0
  0001d	c7 41 10 00 00
	00 00		 mov	 DWORD PTR [ecx+16], 0
  00024	c7 81 f4 00 00
	00 00 00 00 00	 mov	 DWORD PTR [ecx+244], 0
  0002e	c7 81 f8 00 00
	00 00 00 00 00	 mov	 DWORD PTR [ecx+248], 0
  00038	c6 41 14 00	 mov	 BYTE PTR [ecx+20], 0
  0003c	c6 41 34 00	 mov	 BYTE PTR [ecx+52], 0
  00040	c6 81 b4 00 00
	00 00		 mov	 BYTE PTR [ecx+180], 0
  00047	c3		 ret	 0
??0CLordSkillComponent@@QAE@XZ ENDP			; CLordSkillComponent::CLordSkillComponent
_TEXT	ENDS
; Function compile flags: /Ogtp
; File C:\Program Files\Microsoft Visual Studio\2022\Professional\VC\Tools\MSVC\14.44.35207\include\xmemory
;	COMDAT ??$_Allocate_manually_vector_aligned@U_Default_allocate_traits@std@@@std@@YAPAXI@Z
_TEXT	SEGMENT
__Bytes$ = 8						; size = 4
??$_Allocate_manually_vector_aligned@U_Default_allocate_traits@std@@@std@@YAPAXI@Z PROC ; std::_Allocate_manually_vector_aligned<std::_Default_allocate_traits>, COMDAT

; 182  : __declspec(allocator) void* _Allocate_manually_vector_aligned(const size_t _Bytes) {

  00000	55		 push	 ebp
  00001	8b ec		 mov	 ebp, esp

; 183  :     // allocate _Bytes manually aligned to at least _Big_allocation_alignment
; 184  :     const size_t _Block_size = _Non_user_size + _Bytes;

  00003	8b 45 08	 mov	 eax, DWORD PTR __Bytes$[ebp]
  00006	8d 48 23	 lea	 ecx, DWORD PTR [eax+35]

; 185  :     if (_Block_size <= _Bytes) {

  00009	3b c8		 cmp	 ecx, eax
  0000b	0f 86 00 00 00
	00		 jbe	 ?_Throw_bad_array_new_length@std@@YAXXZ ; std::_Throw_bad_array_new_length

; 136  :         return ::operator new(_Bytes);

  00011	51		 push	 ecx
  00012	e8 00 00 00 00	 call	 ??2@YAPAXI@Z		; operator new

; 186  :         _Throw_bad_array_new_length(); // add overflow
; 187  :     }
; 188  : 
; 189  :     const uintptr_t _Ptr_container = reinterpret_cast<uintptr_t>(_Traits::_Allocate(_Block_size));

  00017	8b c8		 mov	 ecx, eax

; 136  :         return ::operator new(_Bytes);

  00019	83 c4 04	 add	 esp, 4

; 190  :     _STL_VERIFY(_Ptr_container != 0, "invalid argument"); // validate even in release since we're doing p[-1]

  0001c	85 c9		 test	 ecx, ecx
  0001e	74 0b		 je	 SHORT $LN9@Allocate_m

; 191  :     void* const _Ptr = reinterpret_cast<void*>((_Ptr_container + _Non_user_size) & ~(_Big_allocation_alignment - 1));

  00020	8d 41 23	 lea	 eax, DWORD PTR [ecx+35]
  00023	83 e0 e0	 and	 eax, -32		; ffffffe0H

; 192  :     static_cast<uintptr_t*>(_Ptr)[-1] = _Ptr_container;

  00026	89 48 fc	 mov	 DWORD PTR [eax-4], ecx

; 193  : 
; 194  : #ifdef _DEBUG
; 195  :     static_cast<uintptr_t*>(_Ptr)[-2] = _Big_allocation_sentinel;
; 196  : #endif // defined(_DEBUG)
; 197  :     return _Ptr;
; 198  : }

  00029	5d		 pop	 ebp
  0002a	c3		 ret	 0
$LN9@Allocate_m:

; 190  :     _STL_VERIFY(_Ptr_container != 0, "invalid argument"); // validate even in release since we're doing p[-1]

  0002b	6a 00		 push	 0
  0002d	6a 00		 push	 0
  0002f	6a 00		 push	 0
  00031	6a 00		 push	 0
  00033	6a 00		 push	 0
  00035	e8 00 00 00 00	 call	 __invoke_watson
$LN7@Allocate_m:
  0003a	cc		 int	 3
??$_Allocate_manually_vector_aligned@U_Default_allocate_traits@std@@@std@@YAPAXI@Z ENDP ; std::_Allocate_manually_vector_aligned<std::_Default_allocate_traits>
_TEXT	ENDS
; Function compile flags: /Ogtp
; File C:\Program Files\Microsoft Visual Studio\2022\Professional\VC\Tools\MSVC\14.44.35207\include\xmemory
;	COMDAT ?_Throw_bad_array_new_length@std@@YAXXZ
_TEXT	SEGMENT
$T1 = -12						; size = 12
?_Throw_bad_array_new_length@std@@YAXXZ PROC		; std::_Throw_bad_array_new_length, COMDAT

; 107  : [[noreturn]] inline void _Throw_bad_array_new_length() {

  00000	55		 push	 ebp
  00001	8b ec		 mov	 ebp, esp
  00003	83 ec 0c	 sub	 esp, 12			; 0000000cH

; 108  :     _THROW(bad_array_new_length{});

  00006	8d 4d f4	 lea	 ecx, DWORD PTR $T1[ebp]
  00009	e8 00 00 00 00	 call	 ??0bad_array_new_length@std@@QAE@XZ ; std::bad_array_new_length::bad_array_new_length
  0000e	68 00 00 00 00	 push	 OFFSET __TI3?AVbad_array_new_length@std@@
  00013	8d 45 f4	 lea	 eax, DWORD PTR $T1[ebp]
  00016	50		 push	 eax
  00017	e8 00 00 00 00	 call	 __CxxThrowException@8
$LN3@Throw_bad_:
  0001c	cc		 int	 3
?_Throw_bad_array_new_length@std@@YAXXZ ENDP		; std::_Throw_bad_array_new_length
_TEXT	ENDS
; Function compile flags: /Ogtp
; File C:\Program Files\Microsoft Visual Studio\2022\Professional\VC\Tools\MSVC\14.44.35207\include\vcruntime_exception.h
;	COMDAT ??_Gbad_array_new_length@std@@UAEPAXI@Z
_TEXT	SEGMENT
___flags$ = 8						; size = 4
??_Gbad_array_new_length@std@@UAEPAXI@Z PROC		; std::bad_array_new_length::`scalar deleting destructor', COMDAT
; _this$ = ecx
  00000	55		 push	 ebp
  00001	8b ec		 mov	 ebp, esp

; 90   :     {

  00003	56		 push	 esi
  00004	8b f1		 mov	 esi, ecx

; 91   :         __std_exception_destroy(&_Data);

  00006	8d 46 04	 lea	 eax, DWORD PTR [esi+4]
  00009	c7 06 00 00 00
	00		 mov	 DWORD PTR [esi], OFFSET ??_7exception@std@@6B@
  0000f	50		 push	 eax
  00010	e8 00 00 00 00	 call	 ___std_exception_destroy
  00015	83 c4 04	 add	 esp, 4
  00018	f6 45 08 01	 test	 BYTE PTR ___flags$[ebp], 1
  0001c	74 0b		 je	 SHORT $LN18@scalar
  0001e	6a 0c		 push	 12			; 0000000cH
  00020	56		 push	 esi
  00021	e8 00 00 00 00	 call	 ??3@YAXPAXI@Z		; operator delete
  00026	83 c4 08	 add	 esp, 8
$LN18@scalar:
  00029	8b c6		 mov	 eax, esi
  0002b	5e		 pop	 esi
  0002c	5d		 pop	 ebp
  0002d	c2 04 00	 ret	 4
??_Gbad_array_new_length@std@@UAEPAXI@Z ENDP		; std::bad_array_new_length::`scalar deleting destructor'
_TEXT	ENDS
; Function compile flags: /Ogtp
; File C:\Program Files\Microsoft Visual Studio\2022\Professional\VC\Tools\MSVC\14.44.35207\include\vcruntime_exception.h
;	COMDAT ??0bad_array_new_length@std@@QAE@ABV01@@Z
_TEXT	SEGMENT
___that$ = 8						; size = 4
??0bad_array_new_length@std@@QAE@ABV01@@Z PROC		; std::bad_array_new_length::bad_array_new_length, COMDAT
; _this$ = ecx
  00000	55		 push	 ebp
  00001	8b ec		 mov	 ebp, esp

; 73   :     {

  00003	56		 push	 esi
  00004	8b f1		 mov	 esi, ecx
  00006	0f 57 c0	 xorps	 xmm0, xmm0

; 72   :         : _Data()

  00009	8d 46 04	 lea	 eax, DWORD PTR [esi+4]

; 74   :         __std_exception_copy(&_Other._Data, &_Data);

  0000c	50		 push	 eax
  0000d	c7 06 00 00 00
	00		 mov	 DWORD PTR [esi], OFFSET ??_7exception@std@@6B@
  00013	66 0f d6 00	 movq	 QWORD PTR [eax], xmm0
  00017	8b 45 08	 mov	 eax, DWORD PTR ___that$[ebp]
  0001a	83 c0 04	 add	 eax, 4
  0001d	50		 push	 eax
  0001e	e8 00 00 00 00	 call	 ___std_exception_copy
  00023	83 c4 08	 add	 esp, 8
  00026	c7 06 00 00 00
	00		 mov	 DWORD PTR [esi], OFFSET ??_7bad_array_new_length@std@@6B@
  0002c	8b c6		 mov	 eax, esi
  0002e	5e		 pop	 esi
  0002f	5d		 pop	 ebp
  00030	c2 04 00	 ret	 4
??0bad_array_new_length@std@@QAE@ABV01@@Z ENDP		; std::bad_array_new_length::bad_array_new_length
_TEXT	ENDS
; Function compile flags: /Ogtp
; File C:\Program Files\Microsoft Visual Studio\2022\Professional\VC\Tools\MSVC\14.44.35207\include\vcruntime_exception.h
;	COMDAT ??1bad_array_new_length@std@@UAE@XZ
_TEXT	SEGMENT
??1bad_array_new_length@std@@UAE@XZ PROC		; std::bad_array_new_length::~bad_array_new_length, COMDAT
; _this$ = ecx

; 91   :         __std_exception_destroy(&_Data);

  00000	8d 41 04	 lea	 eax, DWORD PTR [ecx+4]
  00003	c7 01 00 00 00
	00		 mov	 DWORD PTR [ecx], OFFSET ??_7exception@std@@6B@
  00009	50		 push	 eax
  0000a	e8 00 00 00 00	 call	 ___std_exception_destroy
  0000f	59		 pop	 ecx
  00010	c3		 ret	 0
??1bad_array_new_length@std@@UAE@XZ ENDP		; std::bad_array_new_length::~bad_array_new_length
_TEXT	ENDS
; Function compile flags: /Ogtp
; File C:\Program Files\Microsoft Visual Studio\2022\Professional\VC\Tools\MSVC\14.44.35207\include\vcruntime_exception.h
;	COMDAT ??0bad_array_new_length@std@@QAE@XZ
_TEXT	SEGMENT
??0bad_array_new_length@std@@QAE@XZ PROC		; std::bad_array_new_length::bad_array_new_length, COMDAT
; _this$ = ecx

; 144  :     {

  00000	0f 57 c0	 xorps	 xmm0, xmm0

; 145  :     }

  00003	8b c1		 mov	 eax, ecx

; 66   :         : _Data()

  00005	66 0f d6 41 04	 movq	 QWORD PTR [ecx+4], xmm0

; 67   :     {
; 68   :         _Data._What = _Message;

  0000a	c7 41 04 00 00
	00 00		 mov	 DWORD PTR [ecx+4], OFFSET ??_C@_0BF@KINCDENJ@bad?5array?5new?5length@

; 144  :     {

  00011	c7 01 00 00 00
	00		 mov	 DWORD PTR [ecx], OFFSET ??_7bad_array_new_length@std@@6B@

; 145  :     }

  00017	c3		 ret	 0
??0bad_array_new_length@std@@QAE@XZ ENDP		; std::bad_array_new_length::bad_array_new_length
_TEXT	ENDS
; Function compile flags: /Ogtp
; File C:\Program Files\Microsoft Visual Studio\2022\Professional\VC\Tools\MSVC\14.44.35207\include\vcruntime_exception.h
;	COMDAT ??_Gbad_alloc@std@@UAEPAXI@Z
_TEXT	SEGMENT
___flags$ = 8						; size = 4
??_Gbad_alloc@std@@UAEPAXI@Z PROC			; std::bad_alloc::`scalar deleting destructor', COMDAT
; _this$ = ecx
  00000	55		 push	 ebp
  00001	8b ec		 mov	 ebp, esp

; 90   :     {

  00003	56		 push	 esi
  00004	8b f1		 mov	 esi, ecx

; 91   :         __std_exception_destroy(&_Data);

  00006	8d 46 04	 lea	 eax, DWORD PTR [esi+4]
  00009	c7 06 00 00 00
	00		 mov	 DWORD PTR [esi], OFFSET ??_7exception@std@@6B@
  0000f	50		 push	 eax
  00010	e8 00 00 00 00	 call	 ___std_exception_destroy
  00015	83 c4 04	 add	 esp, 4
  00018	f6 45 08 01	 test	 BYTE PTR ___flags$[ebp], 1
  0001c	74 0b		 je	 SHORT $LN13@scalar
  0001e	6a 0c		 push	 12			; 0000000cH
  00020	56		 push	 esi
  00021	e8 00 00 00 00	 call	 ??3@YAXPAXI@Z		; operator delete
  00026	83 c4 08	 add	 esp, 8
$LN13@scalar:
  00029	8b c6		 mov	 eax, esi
  0002b	5e		 pop	 esi
  0002c	5d		 pop	 ebp
  0002d	c2 04 00	 ret	 4
??_Gbad_alloc@std@@UAEPAXI@Z ENDP			; std::bad_alloc::`scalar deleting destructor'
_TEXT	ENDS
; Function compile flags: /Ogtp
; File C:\Program Files\Microsoft Visual Studio\2022\Professional\VC\Tools\MSVC\14.44.35207\include\vcruntime_exception.h
;	COMDAT ??0bad_alloc@std@@QAE@ABV01@@Z
_TEXT	SEGMENT
___that$ = 8						; size = 4
??0bad_alloc@std@@QAE@ABV01@@Z PROC			; std::bad_alloc::bad_alloc, COMDAT
; _this$ = ecx
  00000	55		 push	 ebp
  00001	8b ec		 mov	 ebp, esp

; 73   :     {

  00003	56		 push	 esi
  00004	8b f1		 mov	 esi, ecx
  00006	0f 57 c0	 xorps	 xmm0, xmm0

; 72   :         : _Data()

  00009	8d 46 04	 lea	 eax, DWORD PTR [esi+4]

; 74   :         __std_exception_copy(&_Other._Data, &_Data);

  0000c	50		 push	 eax
  0000d	c7 06 00 00 00
	00		 mov	 DWORD PTR [esi], OFFSET ??_7exception@std@@6B@
  00013	66 0f d6 00	 movq	 QWORD PTR [eax], xmm0
  00017	8b 45 08	 mov	 eax, DWORD PTR ___that$[ebp]
  0001a	83 c0 04	 add	 eax, 4
  0001d	50		 push	 eax
  0001e	e8 00 00 00 00	 call	 ___std_exception_copy
  00023	83 c4 08	 add	 esp, 8
  00026	c7 06 00 00 00
	00		 mov	 DWORD PTR [esi], OFFSET ??_7bad_alloc@std@@6B@
  0002c	8b c6		 mov	 eax, esi
  0002e	5e		 pop	 esi
  0002f	5d		 pop	 ebp
  00030	c2 04 00	 ret	 4
??0bad_alloc@std@@QAE@ABV01@@Z ENDP			; std::bad_alloc::bad_alloc
_TEXT	ENDS
; Function compile flags: /Ogtp
; File C:\Program Files\Microsoft Visual Studio\2022\Professional\VC\Tools\MSVC\14.44.35207\include\vcruntime_exception.h
;	COMDAT ??_Gexception@std@@UAEPAXI@Z
_TEXT	SEGMENT
___flags$ = 8						; size = 4
??_Gexception@std@@UAEPAXI@Z PROC			; std::exception::`scalar deleting destructor', COMDAT
; _this$ = ecx
  00000	55		 push	 ebp
  00001	8b ec		 mov	 ebp, esp

; 90   :     {

  00003	56		 push	 esi
  00004	8b f1		 mov	 esi, ecx

; 91   :         __std_exception_destroy(&_Data);

  00006	8d 46 04	 lea	 eax, DWORD PTR [esi+4]
  00009	c7 06 00 00 00
	00		 mov	 DWORD PTR [esi], OFFSET ??_7exception@std@@6B@
  0000f	50		 push	 eax
  00010	e8 00 00 00 00	 call	 ___std_exception_destroy
  00015	83 c4 04	 add	 esp, 4
  00018	f6 45 08 01	 test	 BYTE PTR ___flags$[ebp], 1
  0001c	74 0b		 je	 SHORT $LN8@scalar
  0001e	6a 0c		 push	 12			; 0000000cH
  00020	56		 push	 esi
  00021	e8 00 00 00 00	 call	 ??3@YAXPAXI@Z		; operator delete
  00026	83 c4 08	 add	 esp, 8
$LN8@scalar:
  00029	8b c6		 mov	 eax, esi
  0002b	5e		 pop	 esi
  0002c	5d		 pop	 ebp
  0002d	c2 04 00	 ret	 4
??_Gexception@std@@UAEPAXI@Z ENDP			; std::exception::`scalar deleting destructor'
_TEXT	ENDS
; Function compile flags: /Ogtp
; File C:\Program Files\Microsoft Visual Studio\2022\Professional\VC\Tools\MSVC\14.44.35207\include\vcruntime_exception.h
;	COMDAT ?what@exception@std@@UBEPBDXZ
_TEXT	SEGMENT
?what@exception@std@@UBEPBDXZ PROC			; std::exception::what, COMDAT
; _this$ = ecx

; 96   :         return _Data._What ? _Data._What : "Unknown exception";

  00000	8b 49 04	 mov	 ecx, DWORD PTR [ecx+4]
  00003	b8 00 00 00 00	 mov	 eax, OFFSET ??_C@_0BC@EOODALEL@Unknown?5exception@
  00008	85 c9		 test	 ecx, ecx
  0000a	0f 45 c1	 cmovne	 eax, ecx

; 97   :     }

  0000d	c3		 ret	 0
?what@exception@std@@UBEPBDXZ ENDP			; std::exception::what
_TEXT	ENDS
; Function compile flags: /Ogtp
; File C:\Program Files\Microsoft Visual Studio\2022\Professional\VC\Tools\MSVC\14.44.35207\include\vcruntime_exception.h
;	COMDAT ??1exception@std@@UAE@XZ
_TEXT	SEGMENT
??1exception@std@@UAE@XZ PROC				; std::exception::~exception, COMDAT
; _this$ = ecx

; 91   :         __std_exception_destroy(&_Data);

  00000	8d 41 04	 lea	 eax, DWORD PTR [ecx+4]
  00003	c7 01 00 00 00
	00		 mov	 DWORD PTR [ecx], OFFSET ??_7exception@std@@6B@
  00009	50		 push	 eax
  0000a	e8 00 00 00 00	 call	 ___std_exception_destroy
  0000f	59		 pop	 ecx

; 92   :     }

  00010	c3		 ret	 0
??1exception@std@@UAE@XZ ENDP				; std::exception::~exception
_TEXT	ENDS
; Function compile flags: /Ogtp
; File C:\Program Files\Microsoft Visual Studio\2022\Professional\VC\Tools\MSVC\14.44.35207\include\vcruntime_exception.h
;	COMDAT ??0exception@std@@QAE@ABV01@@Z
_TEXT	SEGMENT
__Other$ = 8						; size = 4
??0exception@std@@QAE@ABV01@@Z PROC			; std::exception::exception, COMDAT
; _this$ = ecx

; 73   :     {

  00000	55		 push	 ebp
  00001	8b ec		 mov	 ebp, esp
  00003	56		 push	 esi
  00004	8b f1		 mov	 esi, ecx
  00006	0f 57 c0	 xorps	 xmm0, xmm0
  00009	8d 46 04	 lea	 eax, DWORD PTR [esi+4]

; 74   :         __std_exception_copy(&_Other._Data, &_Data);

  0000c	50		 push	 eax
  0000d	c7 06 00 00 00
	00		 mov	 DWORD PTR [esi], OFFSET ??_7exception@std@@6B@
  00013	66 0f d6 00	 movq	 QWORD PTR [eax], xmm0
  00017	8b 45 08	 mov	 eax, DWORD PTR __Other$[ebp]
  0001a	83 c0 04	 add	 eax, 4
  0001d	50		 push	 eax
  0001e	e8 00 00 00 00	 call	 ___std_exception_copy
  00023	83 c4 08	 add	 esp, 8

; 75   :     }

  00026	8b c6		 mov	 eax, esi
  00028	5e		 pop	 esi
  00029	5d		 pop	 ebp
  0002a	c2 04 00	 ret	 4
??0exception@std@@QAE@ABV01@@Z ENDP			; std::exception::exception
_TEXT	ENDS
; Function compile flags: /Ogtp
; File C:\IAGOS\server\v18\Source\Source\_Common\lordskill.cpp
;	COMDAT ?__empty_global_delete@@YAXPAXI@Z
_TEXT	SEGMENT
___formal$ = 8						; size = 4
___formal$ = 12						; size = 4
?__empty_global_delete@@YAXPAXI@Z PROC			; __empty_global_delete, COMDAT

  00000	c2 00 00	 ret	 0
?__empty_global_delete@@YAXPAXI@Z ENDP			; __empty_global_delete
_TEXT	ENDS
; Function compile flags: /Ogtp
; File C:\IAGOS\server\v18\Source\Source\_Common\lordskill.cpp
;	COMDAT ?__empty_global_delete@@YAXPAX@Z
_TEXT	SEGMENT
___formal$ = 8						; size = 4
?__empty_global_delete@@YAXPAX@Z PROC			; __empty_global_delete, COMDAT

  00000	c2 00 00	 ret	 0
?__empty_global_delete@@YAXPAX@Z ENDP			; __empty_global_delete
_TEXT	ENDS
END
